   1              		.file	"iotx_ota.c"
   2              		.option nopic
   3              		.attribute arch, "rv32i2p0_m2p0_a2p0_f2p0_c2p0_b_p0p94"
   4              		.attribute unaligned_access, 0
   5              		.attribute stack_align, 16
   6              		.text
   7              	.Ltext0:
   8              		.cfi_sections	.debug_frame
   9              		.section	.rodata.otamqtt_UpgrageCb.str1.4,"aMS",@progbits,1
  10              		.align	2
  11              	.LC0:
  12 0000 746F7069 		.string	"topic=%.*s"
  12      633D252E 
  12      2A7300
  13 000b 00       		.align	2
  14              	.LC1:
  15 000c 6F746100 		.string	"ota"
  16              		.align	2
  17              	.LC2:
  18 0010 6C656E3D 		.string	"len=%u, topic_msg=%.*s"
  18      25752C20 
  18      746F7069 
  18      635F6D73 
  18      673D252E 
  19 0027 00       		.align	2
  20              	.LC3:
  21 0028 494F5458 		.string	"IOTX_MQTT_EVENT_PUBLISH_RECEIVED == msg->event_type"
  21      5F4D5154 
  21      545F4556 
  21      454E545F 
  21      5055424C 
  22              		.align	2
  23              	.LC4:
  24 005c 433A2F55 		.string	"C:/Users/stapi/OneDrive/Desktop/GD32VW553/V1_MQTT_OK/GD32VW55X_Wifi_BLE_SDK/GD32VW55x_REL
  24      73657273 
  24      2F737461 
  24      70692F4F 
  24      6E654472 
  25 00f6 0000     		.align	2
  26              	.LC5:
  27 00f8 23232320 		.string	"### %s | %s(%d): ASSERT FAILED ###: %s is FALSE\r\n"
  27      2573207C 
  27      20257328 
  27      2564293A 
  27      20415353 
  28 012a 0000     		.align	2
  29              	.LC6:
  30 012c 2F6F7461 		.string	"/ota/device/request"
  30      2F646576 
  30      6963652F 
  30      72657175 
  30      65737400 
  31              		.align	2
  32              	.LC7:
  33 0140 72656365 		.string	"receive device request"
  33      69766520 
  33      64657669 
  33      63652072 
  33      65717565 
  34 0157 00       		.align	2
  35              	.LC8:
  36 0158 75726C00 		.string	"url"
  37              		.align	2
  38              	.LC9:
  39 015c 5B696E66 		.string	"[inf] "
  39      5D2000
  40 0163 00       		.align	2
  41              	.LC10:
  42 0164 67657420 		.string	"get request reply for new version image"
  42      72657175 
  42      65737420 
  42      7265706C 
  42      7920666F 
  43              		.align	2
  44              	.LC11:
  45 018c 0D0A00   		.string	"\r\n"
  46 018f 00       		.align	2
  47              	.LC12:
  48 0190 2F6F7461 		.string	"/ota/device/upgrade"
  48      2F646576 
  48      6963652F 
  48      75706772 
  48      61646500 
  49              		.align	2
  50              	.LC13:
  51 01a4 72656365 		.string	"receive device upgrade"
  51      69766520 
  51      64657669 
  51      63652075 
  51      70677261 
  52 01bb 00       		.align	2
  53              	.LC14:
  54 01bc 2F746869 		.string	"/thing/config/get_reply"
  54      6E672F63 
  54      6F6E6669 
  54      672F6765 
  54      745F7265 
  55              		.align	2
  56              	.LC15:
  57 01d4 72656365 		.string	"receive config get_reply"
  57      69766520 
  57      636F6E66 
  57      69672067 
  57      65745F72 
  58 01ed 000000   		.align	2
  59              	.LC16:
  60 01f0 2F746869 		.string	"/thing/config/push"
  60      6E672F63 
  60      6F6E6669 
  60      672F7075 
  60      736800
  61 0203 00       		.align	2
  62              	.LC17:
  63 0204 72656365 		.string	"receive config push"
  63      69766520 
  63      636F6E66 
  63      69672070 
  63      75736800 
  64              		.align	2
  65              	.LC18:
  66 0218 696400   		.string	"id"
  67 021b 00       		.align	2
  68              	.LC19:
  69 021c 2F737973 		.string	"/sys/%s/%s/thing/config/push_reply"
  69      2F25732F 
  69      25732F74 
  69      68696E67 
  69      2F636F6E 
  70 023f 00       		.align	2
  71              	.LC20:
  72 0240 22696422 		.string	"\"id\":%d,\"code\":\"%d\",\"data\":{}"
  72      3A25642C 
  72      22636F64 
  72      65223A22 
  72      2564222C 
  73 025e 0000     		.align	2
  74              	.LC21:
  75 0260 5B657272 		.string	"[err] "
  75      5D2000
  76 0267 00       		.align	2
  77              	.LC22:
  78 0268 7075626C 		.string	"publish failed"
  78      69736820 
  78      6661696C 
  78      656400
  79              		.section	.text.otamqtt_UpgrageCb,"ax",@progbits
  80              		.align	1
  82              	otamqtt_UpgrageCb:
  83              	.LFB23:
  84              		.file 1 "C:/Users/stapi/OneDrive/Desktop/GD32VW553/V1_MQTT_OK/GD32VW55X_Wifi_BLE_SDK/GD32VW55x_REL
   1:C:/Users/stapi/OneDrive/Desktop/GD32VW553/V1_MQTT_OK/GD32VW55X_Wifi_BLE_SDK/GD32VW55x_RELEASE_V1.0.2/MSDK/cloud/alicloud/src/services/ota/prot\ota_mqtt.c **** /*
   2:C:/Users/stapi/OneDrive/Desktop/GD32VW553/V1_MQTT_OK/GD32VW55X_Wifi_BLE_SDK/GD32VW55x_RELEASE_V1.0.2/MSDK/cloud/alicloud/src/services/ota/prot\ota_mqtt.c ****  * Copyright (C) 2015-2018 Alibaba Group Holding Limited
   3:C:/Users/stapi/OneDrive/Desktop/GD32VW553/V1_MQTT_OK/GD32VW55X_Wifi_BLE_SDK/GD32VW55x_RELEASE_V1.0.2/MSDK/cloud/alicloud/src/services/ota/prot\ota_mqtt.c ****  */
   4:C:/Users/stapi/OneDrive/Desktop/GD32VW553/V1_MQTT_OK/GD32VW55X_Wifi_BLE_SDK/GD32VW55x_RELEASE_V1.0.2/MSDK/cloud/alicloud/src/services/ota/prot\ota_mqtt.c **** 
   5:C:/Users/stapi/OneDrive/Desktop/GD32VW553/V1_MQTT_OK/GD32VW55X_Wifi_BLE_SDK/GD32VW55x_RELEASE_V1.0.2/MSDK/cloud/alicloud/src/services/ota/prot\ota_mqtt.c **** #ifndef __OTA_MQTT_C_H__
   6:C:/Users/stapi/OneDrive/Desktop/GD32VW553/V1_MQTT_OK/GD32VW55X_Wifi_BLE_SDK/GD32VW55x_RELEASE_V1.0.2/MSDK/cloud/alicloud/src/services/ota/prot\ota_mqtt.c **** #define __OTA_MQTT_C_H__
   7:C:/Users/stapi/OneDrive/Desktop/GD32VW553/V1_MQTT_OK/GD32VW55X_Wifi_BLE_SDK/GD32VW55x_RELEASE_V1.0.2/MSDK/cloud/alicloud/src/services/ota/prot\ota_mqtt.c **** 
   8:C:/Users/stapi/OneDrive/Desktop/GD32VW553/V1_MQTT_OK/GD32VW55X_Wifi_BLE_SDK/GD32VW55x_RELEASE_V1.0.2/MSDK/cloud/alicloud/src/services/ota/prot\ota_mqtt.c **** #if (OTA_SIGNAL_CHANNEL) == 1
   9:C:/Users/stapi/OneDrive/Desktop/GD32VW553/V1_MQTT_OK/GD32VW55X_Wifi_BLE_SDK/GD32VW55x_RELEASE_V1.0.2/MSDK/cloud/alicloud/src/services/ota/prot\ota_mqtt.c **** 
  10:C:/Users/stapi/OneDrive/Desktop/GD32VW553/V1_MQTT_OK/GD32VW55X_Wifi_BLE_SDK/GD32VW55x_RELEASE_V1.0.2/MSDK/cloud/alicloud/src/services/ota/prot\ota_mqtt.c **** #include "iotx_ota_internal.h"
  11:C:/Users/stapi/OneDrive/Desktop/GD32VW553/V1_MQTT_OK/GD32VW55X_Wifi_BLE_SDK/GD32VW55x_RELEASE_V1.0.2/MSDK/cloud/alicloud/src/services/ota/prot\ota_mqtt.c **** 
  12:C:/Users/stapi/OneDrive/Desktop/GD32VW553/V1_MQTT_OK/GD32VW55X_Wifi_BLE_SDK/GD32VW55x_RELEASE_V1.0.2/MSDK/cloud/alicloud/src/services/ota/prot\ota_mqtt.c **** /* OSC, OTA signal channel */
  13:C:/Users/stapi/OneDrive/Desktop/GD32VW553/V1_MQTT_OK/GD32VW55X_Wifi_BLE_SDK/GD32VW55x_RELEASE_V1.0.2/MSDK/cloud/alicloud/src/services/ota/prot\ota_mqtt.c **** 
  14:C:/Users/stapi/OneDrive/Desktop/GD32VW553/V1_MQTT_OK/GD32VW55X_Wifi_BLE_SDK/GD32VW55x_RELEASE_V1.0.2/MSDK/cloud/alicloud/src/services/ota/prot\ota_mqtt.c **** /* Specify the maximum characters of version */
  15:C:/Users/stapi/OneDrive/Desktop/GD32VW553/V1_MQTT_OK/GD32VW55X_Wifi_BLE_SDK/GD32VW55x_RELEASE_V1.0.2/MSDK/cloud/alicloud/src/services/ota/prot\ota_mqtt.c **** #define OTA_MQTT_TOPIC_LEN   (128)
  16:C:/Users/stapi/OneDrive/Desktop/GD32VW553/V1_MQTT_OK/GD32VW55X_Wifi_BLE_SDK/GD32VW55x_RELEASE_V1.0.2/MSDK/cloud/alicloud/src/services/ota/prot\ota_mqtt.c **** 
  17:C:/Users/stapi/OneDrive/Desktop/GD32VW553/V1_MQTT_OK/GD32VW55X_Wifi_BLE_SDK/GD32VW55x_RELEASE_V1.0.2/MSDK/cloud/alicloud/src/services/ota/prot\ota_mqtt.c **** typedef struct  {
  18:C:/Users/stapi/OneDrive/Desktop/GD32VW553/V1_MQTT_OK/GD32VW55X_Wifi_BLE_SDK/GD32VW55x_RELEASE_V1.0.2/MSDK/cloud/alicloud/src/services/ota/prot\ota_mqtt.c ****     void *mqtt;
  19:C:/Users/stapi/OneDrive/Desktop/GD32VW553/V1_MQTT_OK/GD32VW55X_Wifi_BLE_SDK/GD32VW55x_RELEASE_V1.0.2/MSDK/cloud/alicloud/src/services/ota/prot\ota_mqtt.c ****     const char *product_key;
  20:C:/Users/stapi/OneDrive/Desktop/GD32VW553/V1_MQTT_OK/GD32VW55X_Wifi_BLE_SDK/GD32VW55x_RELEASE_V1.0.2/MSDK/cloud/alicloud/src/services/ota/prot\ota_mqtt.c ****     const char *device_name;
  21:C:/Users/stapi/OneDrive/Desktop/GD32VW553/V1_MQTT_OK/GD32VW55X_Wifi_BLE_SDK/GD32VW55x_RELEASE_V1.0.2/MSDK/cloud/alicloud/src/services/ota/prot\ota_mqtt.c ****     char topic_upgrade[OTA_MQTT_TOPIC_LEN];
  22:C:/Users/stapi/OneDrive/Desktop/GD32VW553/V1_MQTT_OK/GD32VW55X_Wifi_BLE_SDK/GD32VW55x_RELEASE_V1.0.2/MSDK/cloud/alicloud/src/services/ota/prot\ota_mqtt.c ****     char topic_request[OTA_MQTT_TOPIC_LEN];
  23:C:/Users/stapi/OneDrive/Desktop/GD32VW553/V1_MQTT_OK/GD32VW55X_Wifi_BLE_SDK/GD32VW55x_RELEASE_V1.0.2/MSDK/cloud/alicloud/src/services/ota/prot\ota_mqtt.c ****     char topic_config_get[OTA_MQTT_TOPIC_LEN];
  24:C:/Users/stapi/OneDrive/Desktop/GD32VW553/V1_MQTT_OK/GD32VW55X_Wifi_BLE_SDK/GD32VW55x_RELEASE_V1.0.2/MSDK/cloud/alicloud/src/services/ota/prot\ota_mqtt.c ****     char topic_config_push[OTA_MQTT_TOPIC_LEN];
  25:C:/Users/stapi/OneDrive/Desktop/GD32VW553/V1_MQTT_OK/GD32VW55X_Wifi_BLE_SDK/GD32VW55x_RELEASE_V1.0.2/MSDK/cloud/alicloud/src/services/ota/prot\ota_mqtt.c ****     ota_cb_fpt cb;
  26:C:/Users/stapi/OneDrive/Desktop/GD32VW553/V1_MQTT_OK/GD32VW55X_Wifi_BLE_SDK/GD32VW55x_RELEASE_V1.0.2/MSDK/cloud/alicloud/src/services/ota/prot\ota_mqtt.c ****     void *context;
  27:C:/Users/stapi/OneDrive/Desktop/GD32VW553/V1_MQTT_OK/GD32VW55X_Wifi_BLE_SDK/GD32VW55x_RELEASE_V1.0.2/MSDK/cloud/alicloud/src/services/ota/prot\ota_mqtt.c **** } otamqtt_Struct_t, *otamqtt_Struct_pt;
  28:C:/Users/stapi/OneDrive/Desktop/GD32VW553/V1_MQTT_OK/GD32VW55X_Wifi_BLE_SDK/GD32VW55x_RELEASE_V1.0.2/MSDK/cloud/alicloud/src/services/ota/prot\ota_mqtt.c **** 
  29:C:/Users/stapi/OneDrive/Desktop/GD32VW553/V1_MQTT_OK/GD32VW55X_Wifi_BLE_SDK/GD32VW55x_RELEASE_V1.0.2/MSDK/cloud/alicloud/src/services/ota/prot\ota_mqtt.c **** 
  30:C:/Users/stapi/OneDrive/Desktop/GD32VW553/V1_MQTT_OK/GD32VW55X_Wifi_BLE_SDK/GD32VW55x_RELEASE_V1.0.2/MSDK/cloud/alicloud/src/services/ota/prot\ota_mqtt.c **** /* Generate topic name according to @ota_topic_type, @product_key, @device_name */
  31:C:/Users/stapi/OneDrive/Desktop/GD32VW553/V1_MQTT_OK/GD32VW55X_Wifi_BLE_SDK/GD32VW55x_RELEASE_V1.0.2/MSDK/cloud/alicloud/src/services/ota/prot\ota_mqtt.c **** /* and then copy to @buf. */
  32:C:/Users/stapi/OneDrive/Desktop/GD32VW553/V1_MQTT_OK/GD32VW55X_Wifi_BLE_SDK/GD32VW55x_RELEASE_V1.0.2/MSDK/cloud/alicloud/src/services/ota/prot\ota_mqtt.c **** /* 0, successful; -1, failed */
  33:C:/Users/stapi/OneDrive/Desktop/GD32VW553/V1_MQTT_OK/GD32VW55X_Wifi_BLE_SDK/GD32VW55x_RELEASE_V1.0.2/MSDK/cloud/alicloud/src/services/ota/prot\ota_mqtt.c **** static int otamqtt_GenTopicName(char *buf, size_t buf_len, const char *ota_topic_type, const char *
  34:C:/Users/stapi/OneDrive/Desktop/GD32VW553/V1_MQTT_OK/GD32VW55X_Wifi_BLE_SDK/GD32VW55x_RELEASE_V1.0.2/MSDK/cloud/alicloud/src/services/ota/prot\ota_mqtt.c ****                                 const char *device_name)
  35:C:/Users/stapi/OneDrive/Desktop/GD32VW553/V1_MQTT_OK/GD32VW55X_Wifi_BLE_SDK/GD32VW55x_RELEASE_V1.0.2/MSDK/cloud/alicloud/src/services/ota/prot\ota_mqtt.c **** {
  36:C:/Users/stapi/OneDrive/Desktop/GD32VW553/V1_MQTT_OK/GD32VW55X_Wifi_BLE_SDK/GD32VW55x_RELEASE_V1.0.2/MSDK/cloud/alicloud/src/services/ota/prot\ota_mqtt.c ****     int ret;
  37:C:/Users/stapi/OneDrive/Desktop/GD32VW553/V1_MQTT_OK/GD32VW55X_Wifi_BLE_SDK/GD32VW55x_RELEASE_V1.0.2/MSDK/cloud/alicloud/src/services/ota/prot\ota_mqtt.c **** 
  38:C:/Users/stapi/OneDrive/Desktop/GD32VW553/V1_MQTT_OK/GD32VW55X_Wifi_BLE_SDK/GD32VW55x_RELEASE_V1.0.2/MSDK/cloud/alicloud/src/services/ota/prot\ota_mqtt.c ****     ret = HAL_Snprintf(buf,
  39:C:/Users/stapi/OneDrive/Desktop/GD32VW553/V1_MQTT_OK/GD32VW55X_Wifi_BLE_SDK/GD32VW55x_RELEASE_V1.0.2/MSDK/cloud/alicloud/src/services/ota/prot\ota_mqtt.c ****                        buf_len,
  40:C:/Users/stapi/OneDrive/Desktop/GD32VW553/V1_MQTT_OK/GD32VW55X_Wifi_BLE_SDK/GD32VW55x_RELEASE_V1.0.2/MSDK/cloud/alicloud/src/services/ota/prot\ota_mqtt.c ****                        "/ota/device/%s/%s/%s",
  41:C:/Users/stapi/OneDrive/Desktop/GD32VW553/V1_MQTT_OK/GD32VW55X_Wifi_BLE_SDK/GD32VW55x_RELEASE_V1.0.2/MSDK/cloud/alicloud/src/services/ota/prot\ota_mqtt.c ****                        ota_topic_type,
  42:C:/Users/stapi/OneDrive/Desktop/GD32VW553/V1_MQTT_OK/GD32VW55X_Wifi_BLE_SDK/GD32VW55x_RELEASE_V1.0.2/MSDK/cloud/alicloud/src/services/ota/prot\ota_mqtt.c ****                        product_key,
  43:C:/Users/stapi/OneDrive/Desktop/GD32VW553/V1_MQTT_OK/GD32VW55X_Wifi_BLE_SDK/GD32VW55x_RELEASE_V1.0.2/MSDK/cloud/alicloud/src/services/ota/prot\ota_mqtt.c ****                        device_name);
  44:C:/Users/stapi/OneDrive/Desktop/GD32VW553/V1_MQTT_OK/GD32VW55X_Wifi_BLE_SDK/GD32VW55x_RELEASE_V1.0.2/MSDK/cloud/alicloud/src/services/ota/prot\ota_mqtt.c **** 
  45:C:/Users/stapi/OneDrive/Desktop/GD32VW553/V1_MQTT_OK/GD32VW55X_Wifi_BLE_SDK/GD32VW55x_RELEASE_V1.0.2/MSDK/cloud/alicloud/src/services/ota/prot\ota_mqtt.c ****     OTA_ASSERT(ret < buf_len);
  46:C:/Users/stapi/OneDrive/Desktop/GD32VW553/V1_MQTT_OK/GD32VW55X_Wifi_BLE_SDK/GD32VW55x_RELEASE_V1.0.2/MSDK/cloud/alicloud/src/services/ota/prot\ota_mqtt.c **** 
  47:C:/Users/stapi/OneDrive/Desktop/GD32VW553/V1_MQTT_OK/GD32VW55X_Wifi_BLE_SDK/GD32VW55x_RELEASE_V1.0.2/MSDK/cloud/alicloud/src/services/ota/prot\ota_mqtt.c ****     if (ret < 0) {
  48:C:/Users/stapi/OneDrive/Desktop/GD32VW553/V1_MQTT_OK/GD32VW55X_Wifi_BLE_SDK/GD32VW55x_RELEASE_V1.0.2/MSDK/cloud/alicloud/src/services/ota/prot\ota_mqtt.c ****         OTA_LOG_ERROR("HAL_Snprintf failed");
  49:C:/Users/stapi/OneDrive/Desktop/GD32VW553/V1_MQTT_OK/GD32VW55X_Wifi_BLE_SDK/GD32VW55x_RELEASE_V1.0.2/MSDK/cloud/alicloud/src/services/ota/prot\ota_mqtt.c ****         return -1;
  50:C:/Users/stapi/OneDrive/Desktop/GD32VW553/V1_MQTT_OK/GD32VW55X_Wifi_BLE_SDK/GD32VW55x_RELEASE_V1.0.2/MSDK/cloud/alicloud/src/services/ota/prot\ota_mqtt.c ****     }
  51:C:/Users/stapi/OneDrive/Desktop/GD32VW553/V1_MQTT_OK/GD32VW55X_Wifi_BLE_SDK/GD32VW55x_RELEASE_V1.0.2/MSDK/cloud/alicloud/src/services/ota/prot\ota_mqtt.c **** 
  52:C:/Users/stapi/OneDrive/Desktop/GD32VW553/V1_MQTT_OK/GD32VW55X_Wifi_BLE_SDK/GD32VW55x_RELEASE_V1.0.2/MSDK/cloud/alicloud/src/services/ota/prot\ota_mqtt.c ****     return 0;
  53:C:/Users/stapi/OneDrive/Desktop/GD32VW553/V1_MQTT_OK/GD32VW55X_Wifi_BLE_SDK/GD32VW55x_RELEASE_V1.0.2/MSDK/cloud/alicloud/src/services/ota/prot\ota_mqtt.c **** }
  54:C:/Users/stapi/OneDrive/Desktop/GD32VW553/V1_MQTT_OK/GD32VW55X_Wifi_BLE_SDK/GD32VW55x_RELEASE_V1.0.2/MSDK/cloud/alicloud/src/services/ota/prot\ota_mqtt.c **** 
  55:C:/Users/stapi/OneDrive/Desktop/GD32VW553/V1_MQTT_OK/GD32VW55X_Wifi_BLE_SDK/GD32VW55x_RELEASE_V1.0.2/MSDK/cloud/alicloud/src/services/ota/prot\ota_mqtt.c **** /* report progress of OTA */
  56:C:/Users/stapi/OneDrive/Desktop/GD32VW553/V1_MQTT_OK/GD32VW55X_Wifi_BLE_SDK/GD32VW55x_RELEASE_V1.0.2/MSDK/cloud/alicloud/src/services/ota/prot\ota_mqtt.c **** static int otamqtt_Publish(otamqtt_Struct_pt handle, const char *topic_type, int qos, const char *m
  57:C:/Users/stapi/OneDrive/Desktop/GD32VW553/V1_MQTT_OK/GD32VW55X_Wifi_BLE_SDK/GD32VW55x_RELEASE_V1.0.2/MSDK/cloud/alicloud/src/services/ota/prot\ota_mqtt.c **** {
  58:C:/Users/stapi/OneDrive/Desktop/GD32VW553/V1_MQTT_OK/GD32VW55X_Wifi_BLE_SDK/GD32VW55x_RELEASE_V1.0.2/MSDK/cloud/alicloud/src/services/ota/prot\ota_mqtt.c ****     int ret;
  59:C:/Users/stapi/OneDrive/Desktop/GD32VW553/V1_MQTT_OK/GD32VW55X_Wifi_BLE_SDK/GD32VW55x_RELEASE_V1.0.2/MSDK/cloud/alicloud/src/services/ota/prot\ota_mqtt.c ****     char topic_name[OTA_MQTT_TOPIC_LEN];
  60:C:/Users/stapi/OneDrive/Desktop/GD32VW553/V1_MQTT_OK/GD32VW55X_Wifi_BLE_SDK/GD32VW55x_RELEASE_V1.0.2/MSDK/cloud/alicloud/src/services/ota/prot\ota_mqtt.c ****     iotx_mqtt_topic_info_t topic_info;
  61:C:/Users/stapi/OneDrive/Desktop/GD32VW553/V1_MQTT_OK/GD32VW55X_Wifi_BLE_SDK/GD32VW55x_RELEASE_V1.0.2/MSDK/cloud/alicloud/src/services/ota/prot\ota_mqtt.c **** 
  62:C:/Users/stapi/OneDrive/Desktop/GD32VW553/V1_MQTT_OK/GD32VW55X_Wifi_BLE_SDK/GD32VW55x_RELEASE_V1.0.2/MSDK/cloud/alicloud/src/services/ota/prot\ota_mqtt.c ****     memset(&topic_info, 0, sizeof(iotx_mqtt_topic_info_t));
  63:C:/Users/stapi/OneDrive/Desktop/GD32VW553/V1_MQTT_OK/GD32VW55X_Wifi_BLE_SDK/GD32VW55x_RELEASE_V1.0.2/MSDK/cloud/alicloud/src/services/ota/prot\ota_mqtt.c **** 
  64:C:/Users/stapi/OneDrive/Desktop/GD32VW553/V1_MQTT_OK/GD32VW55X_Wifi_BLE_SDK/GD32VW55x_RELEASE_V1.0.2/MSDK/cloud/alicloud/src/services/ota/prot\ota_mqtt.c ****     if (0 == qos) {
  65:C:/Users/stapi/OneDrive/Desktop/GD32VW553/V1_MQTT_OK/GD32VW55X_Wifi_BLE_SDK/GD32VW55x_RELEASE_V1.0.2/MSDK/cloud/alicloud/src/services/ota/prot\ota_mqtt.c ****         topic_info.qos = IOTX_MQTT_QOS0;
  66:C:/Users/stapi/OneDrive/Desktop/GD32VW553/V1_MQTT_OK/GD32VW55X_Wifi_BLE_SDK/GD32VW55x_RELEASE_V1.0.2/MSDK/cloud/alicloud/src/services/ota/prot\ota_mqtt.c ****     } else {
  67:C:/Users/stapi/OneDrive/Desktop/GD32VW553/V1_MQTT_OK/GD32VW55X_Wifi_BLE_SDK/GD32VW55x_RELEASE_V1.0.2/MSDK/cloud/alicloud/src/services/ota/prot\ota_mqtt.c ****         topic_info.qos = IOTX_MQTT_QOS1;
  68:C:/Users/stapi/OneDrive/Desktop/GD32VW553/V1_MQTT_OK/GD32VW55X_Wifi_BLE_SDK/GD32VW55x_RELEASE_V1.0.2/MSDK/cloud/alicloud/src/services/ota/prot\ota_mqtt.c ****     }
  69:C:/Users/stapi/OneDrive/Desktop/GD32VW553/V1_MQTT_OK/GD32VW55X_Wifi_BLE_SDK/GD32VW55x_RELEASE_V1.0.2/MSDK/cloud/alicloud/src/services/ota/prot\ota_mqtt.c ****     topic_info.payload = (void *)msg;
  70:C:/Users/stapi/OneDrive/Desktop/GD32VW553/V1_MQTT_OK/GD32VW55X_Wifi_BLE_SDK/GD32VW55x_RELEASE_V1.0.2/MSDK/cloud/alicloud/src/services/ota/prot\ota_mqtt.c ****     topic_info.payload_len = strlen(msg);
  71:C:/Users/stapi/OneDrive/Desktop/GD32VW553/V1_MQTT_OK/GD32VW55X_Wifi_BLE_SDK/GD32VW55x_RELEASE_V1.0.2/MSDK/cloud/alicloud/src/services/ota/prot\ota_mqtt.c **** 
  72:C:/Users/stapi/OneDrive/Desktop/GD32VW553/V1_MQTT_OK/GD32VW55X_Wifi_BLE_SDK/GD32VW55x_RELEASE_V1.0.2/MSDK/cloud/alicloud/src/services/ota/prot\ota_mqtt.c ****     /* inform OTA to topic: "/ota/device/progress/$(product_key)/$(device_name)" */
  73:C:/Users/stapi/OneDrive/Desktop/GD32VW553/V1_MQTT_OK/GD32VW55X_Wifi_BLE_SDK/GD32VW55x_RELEASE_V1.0.2/MSDK/cloud/alicloud/src/services/ota/prot\ota_mqtt.c ****     ret = otamqtt_GenTopicName(topic_name, OTA_MQTT_TOPIC_LEN, topic_type, handle->product_key, han
  74:C:/Users/stapi/OneDrive/Desktop/GD32VW553/V1_MQTT_OK/GD32VW55X_Wifi_BLE_SDK/GD32VW55x_RELEASE_V1.0.2/MSDK/cloud/alicloud/src/services/ota/prot\ota_mqtt.c ****     if (ret < 0) {
  75:C:/Users/stapi/OneDrive/Desktop/GD32VW553/V1_MQTT_OK/GD32VW55X_Wifi_BLE_SDK/GD32VW55x_RELEASE_V1.0.2/MSDK/cloud/alicloud/src/services/ota/prot\ota_mqtt.c ****         OTA_LOG_ERROR("generate topic name of info failed");
  76:C:/Users/stapi/OneDrive/Desktop/GD32VW553/V1_MQTT_OK/GD32VW55X_Wifi_BLE_SDK/GD32VW55x_RELEASE_V1.0.2/MSDK/cloud/alicloud/src/services/ota/prot\ota_mqtt.c ****         return -1;
  77:C:/Users/stapi/OneDrive/Desktop/GD32VW553/V1_MQTT_OK/GD32VW55X_Wifi_BLE_SDK/GD32VW55x_RELEASE_V1.0.2/MSDK/cloud/alicloud/src/services/ota/prot\ota_mqtt.c ****     }
  78:C:/Users/stapi/OneDrive/Desktop/GD32VW553/V1_MQTT_OK/GD32VW55X_Wifi_BLE_SDK/GD32VW55x_RELEASE_V1.0.2/MSDK/cloud/alicloud/src/services/ota/prot\ota_mqtt.c **** 
  79:C:/Users/stapi/OneDrive/Desktop/GD32VW553/V1_MQTT_OK/GD32VW55X_Wifi_BLE_SDK/GD32VW55x_RELEASE_V1.0.2/MSDK/cloud/alicloud/src/services/ota/prot\ota_mqtt.c ****     ret = IOT_MQTT_Publish(handle->mqtt, topic_name, &topic_info);
  80:C:/Users/stapi/OneDrive/Desktop/GD32VW553/V1_MQTT_OK/GD32VW55X_Wifi_BLE_SDK/GD32VW55x_RELEASE_V1.0.2/MSDK/cloud/alicloud/src/services/ota/prot\ota_mqtt.c ****     if (ret < 0) {
  81:C:/Users/stapi/OneDrive/Desktop/GD32VW553/V1_MQTT_OK/GD32VW55X_Wifi_BLE_SDK/GD32VW55x_RELEASE_V1.0.2/MSDK/cloud/alicloud/src/services/ota/prot\ota_mqtt.c ****         OTA_LOG_ERROR("publish failed");
  82:C:/Users/stapi/OneDrive/Desktop/GD32VW553/V1_MQTT_OK/GD32VW55X_Wifi_BLE_SDK/GD32VW55x_RELEASE_V1.0.2/MSDK/cloud/alicloud/src/services/ota/prot\ota_mqtt.c ****         return IOT_OTAE_OSC_FAILED;
  83:C:/Users/stapi/OneDrive/Desktop/GD32VW553/V1_MQTT_OK/GD32VW55X_Wifi_BLE_SDK/GD32VW55x_RELEASE_V1.0.2/MSDK/cloud/alicloud/src/services/ota/prot\ota_mqtt.c ****     }
  84:C:/Users/stapi/OneDrive/Desktop/GD32VW553/V1_MQTT_OK/GD32VW55X_Wifi_BLE_SDK/GD32VW55x_RELEASE_V1.0.2/MSDK/cloud/alicloud/src/services/ota/prot\ota_mqtt.c **** 
  85:C:/Users/stapi/OneDrive/Desktop/GD32VW553/V1_MQTT_OK/GD32VW55X_Wifi_BLE_SDK/GD32VW55x_RELEASE_V1.0.2/MSDK/cloud/alicloud/src/services/ota/prot\ota_mqtt.c ****     return 0;
  86:C:/Users/stapi/OneDrive/Desktop/GD32VW553/V1_MQTT_OK/GD32VW55X_Wifi_BLE_SDK/GD32VW55x_RELEASE_V1.0.2/MSDK/cloud/alicloud/src/services/ota/prot\ota_mqtt.c **** }
  87:C:/Users/stapi/OneDrive/Desktop/GD32VW553/V1_MQTT_OK/GD32VW55X_Wifi_BLE_SDK/GD32VW55x_RELEASE_V1.0.2/MSDK/cloud/alicloud/src/services/ota/prot\ota_mqtt.c **** 
  88:C:/Users/stapi/OneDrive/Desktop/GD32VW553/V1_MQTT_OK/GD32VW55X_Wifi_BLE_SDK/GD32VW55x_RELEASE_V1.0.2/MSDK/cloud/alicloud/src/services/ota/prot\ota_mqtt.c **** static int otamqtt_publish_full_topic(otamqtt_Struct_pt handle, const char *topic_name,
  89:C:/Users/stapi/OneDrive/Desktop/GD32VW553/V1_MQTT_OK/GD32VW55X_Wifi_BLE_SDK/GD32VW55x_RELEASE_V1.0.2/MSDK/cloud/alicloud/src/services/ota/prot\ota_mqtt.c ****                                       iotx_mqtt_topic_info_pt topic_msg)
  90:C:/Users/stapi/OneDrive/Desktop/GD32VW553/V1_MQTT_OK/GD32VW55X_Wifi_BLE_SDK/GD32VW55x_RELEASE_V1.0.2/MSDK/cloud/alicloud/src/services/ota/prot\ota_mqtt.c **** {
  91:C:/Users/stapi/OneDrive/Desktop/GD32VW553/V1_MQTT_OK/GD32VW55X_Wifi_BLE_SDK/GD32VW55x_RELEASE_V1.0.2/MSDK/cloud/alicloud/src/services/ota/prot\ota_mqtt.c ****     if (IOT_MQTT_Publish(handle->mqtt, topic_name, topic_msg) < 0) {
  92:C:/Users/stapi/OneDrive/Desktop/GD32VW553/V1_MQTT_OK/GD32VW55X_Wifi_BLE_SDK/GD32VW55x_RELEASE_V1.0.2/MSDK/cloud/alicloud/src/services/ota/prot\ota_mqtt.c ****         OTA_LOG_ERROR("publish failed");
  93:C:/Users/stapi/OneDrive/Desktop/GD32VW553/V1_MQTT_OK/GD32VW55X_Wifi_BLE_SDK/GD32VW55x_RELEASE_V1.0.2/MSDK/cloud/alicloud/src/services/ota/prot\ota_mqtt.c ****         return IOT_OTAE_OSC_FAILED;
  94:C:/Users/stapi/OneDrive/Desktop/GD32VW553/V1_MQTT_OK/GD32VW55X_Wifi_BLE_SDK/GD32VW55x_RELEASE_V1.0.2/MSDK/cloud/alicloud/src/services/ota/prot\ota_mqtt.c ****     }
  95:C:/Users/stapi/OneDrive/Desktop/GD32VW553/V1_MQTT_OK/GD32VW55X_Wifi_BLE_SDK/GD32VW55x_RELEASE_V1.0.2/MSDK/cloud/alicloud/src/services/ota/prot\ota_mqtt.c **** 
  96:C:/Users/stapi/OneDrive/Desktop/GD32VW553/V1_MQTT_OK/GD32VW55X_Wifi_BLE_SDK/GD32VW55x_RELEASE_V1.0.2/MSDK/cloud/alicloud/src/services/ota/prot\ota_mqtt.c ****     return 0;
  97:C:/Users/stapi/OneDrive/Desktop/GD32VW553/V1_MQTT_OK/GD32VW55X_Wifi_BLE_SDK/GD32VW55x_RELEASE_V1.0.2/MSDK/cloud/alicloud/src/services/ota/prot\ota_mqtt.c **** }
  98:C:/Users/stapi/OneDrive/Desktop/GD32VW553/V1_MQTT_OK/GD32VW55X_Wifi_BLE_SDK/GD32VW55x_RELEASE_V1.0.2/MSDK/cloud/alicloud/src/services/ota/prot\ota_mqtt.c **** 
  99:C:/Users/stapi/OneDrive/Desktop/GD32VW553/V1_MQTT_OK/GD32VW55X_Wifi_BLE_SDK/GD32VW55x_RELEASE_V1.0.2/MSDK/cloud/alicloud/src/services/ota/prot\ota_mqtt.c **** 
 100:C:/Users/stapi/OneDrive/Desktop/GD32VW553/V1_MQTT_OK/GD32VW55X_Wifi_BLE_SDK/GD32VW55x_RELEASE_V1.0.2/MSDK/cloud/alicloud/src/services/ota/prot\ota_mqtt.c **** /* decode JSON string to get firmware information, like firmware version, URL, file size, MD5. */
 101:C:/Users/stapi/OneDrive/Desktop/GD32VW553/V1_MQTT_OK/GD32VW55X_Wifi_BLE_SDK/GD32VW55x_RELEASE_V1.0.2/MSDK/cloud/alicloud/src/services/ota/prot\ota_mqtt.c **** /* return NONE */
 102:C:/Users/stapi/OneDrive/Desktop/GD32VW553/V1_MQTT_OK/GD32VW55X_Wifi_BLE_SDK/GD32VW55x_RELEASE_V1.0.2/MSDK/cloud/alicloud/src/services/ota/prot\ota_mqtt.c **** static void otamqtt_UpgrageCb(void *pcontext, void *pclient, iotx_mqtt_event_msg_pt msg)
 103:C:/Users/stapi/OneDrive/Desktop/GD32VW553/V1_MQTT_OK/GD32VW55X_Wifi_BLE_SDK/GD32VW55x_RELEASE_V1.0.2/MSDK/cloud/alicloud/src/services/ota/prot\ota_mqtt.c **** {
  85              		.loc 1 103 1
  86              		.cfi_startproc
  87              	.LVL0:
  88 0000 17030000 		call	t0,__riscv_save_5
  88      E7020300 
  89              		.cfi_offset 20, -24
  90              		.cfi_offset 19, -20
  91              		.cfi_offset 18, -16
  92              		.cfi_offset 9, -12
  93              		.cfi_offset 8, -8
  94              		.cfi_offset 1, -4
  95              		.cfi_def_cfa_offset 32
 104:C:/Users/stapi/OneDrive/Desktop/GD32VW553/V1_MQTT_OK/GD32VW55X_Wifi_BLE_SDK/GD32VW55x_RELEASE_V1.0.2/MSDK/cloud/alicloud/src/services/ota/prot\ota_mqtt.c ****     otamqtt_Struct_pt handle = (otamqtt_Struct_pt) pcontext;
  96              		.loc 1 104 5
 105:C:/Users/stapi/OneDrive/Desktop/GD32VW553/V1_MQTT_OK/GD32VW55X_Wifi_BLE_SDK/GD32VW55x_RELEASE_V1.0.2/MSDK/cloud/alicloud/src/services/ota/prot\ota_mqtt.c ****     iotx_mqtt_topic_info_pt topic_info = (iotx_mqtt_topic_info_pt)msg->msg;
  97              		.loc 1 105 29 is_stmt 0
  98 0008 4042     		lw	s0,4(a2)
 106:C:/Users/stapi/OneDrive/Desktop/GD32VW553/V1_MQTT_OK/GD32VW55X_Wifi_BLE_SDK/GD32VW55x_RELEASE_V1.0.2/MSDK/cloud/alicloud/src/services/ota/prot\ota_mqtt.c **** 
 107:C:/Users/stapi/OneDrive/Desktop/GD32VW553/V1_MQTT_OK/GD32VW55X_Wifi_BLE_SDK/GD32VW55x_RELEASE_V1.0.2/MSDK/cloud/alicloud/src/services/ota/prot\ota_mqtt.c ****     OTA_LOG_DEBUG("topic=%.*s", topic_info->topic_len, topic_info->ptopic);
  99              		.loc 1 107 5
 100 000a 370A0000 		lui	s4,%hi(.LANCHOR0)
 101 000e 37090000 		lui	s2,%hi(.LC1)
 102 0012 0328C400 		lw	a6,12(s0)
 103 0016 83576400 		lhu	a5,6(s0)
 104 001a 37070000 		lui	a4,%hi(.LC0)
 103:C:/Users/stapi/OneDrive/Desktop/GD32VW553/V1_MQTT_OK/GD32VW55X_Wifi_BLE_SDK/GD32VW55x_RELEASE_V1.0.2/MSDK/cloud/alicloud/src/services/ota/prot\ota_mqtt.c ****     otamqtt_Struct_pt handle = (otamqtt_Struct_pt) pcontext;
 105              		.loc 1 103 1
 106 001e 2D71     		addi	sp,sp,-288
 107              		.cfi_def_cfa_offset 320
 103:C:/Users/stapi/OneDrive/Desktop/GD32VW553/V1_MQTT_OK/GD32VW55X_Wifi_BLE_SDK/GD32VW55x_RELEASE_V1.0.2/MSDK/cloud/alicloud/src/services/ota/prot\ota_mqtt.c ****     otamqtt_Struct_pt handle = (otamqtt_Struct_pt) pcontext;
 108              		.loc 1 103 1
 109 0020 B289     		mv	s3,a2
 110              		.loc 1 107 5
 111 0022 13070700 		addi	a4,a4,%lo(.LC0)
 112 0026 9546     		li	a3,5
 113 0028 1306B006 		li	a2,107
 114              	.LVL1:
 115 002c 93050A00 		addi	a1,s4,%lo(.LANCHOR0)
 116              	.LVL2:
 103:C:/Users/stapi/OneDrive/Desktop/GD32VW553/V1_MQTT_OK/GD32VW55X_Wifi_BLE_SDK/GD32VW55x_RELEASE_V1.0.2/MSDK/cloud/alicloud/src/services/ota/prot\ota_mqtt.c ****     otamqtt_Struct_pt handle = (otamqtt_Struct_pt) pcontext;
 117              		.loc 1 103 1
 118 0030 AA84     		mv	s1,a0
 119              	.LVL3:
 105:C:/Users/stapi/OneDrive/Desktop/GD32VW553/V1_MQTT_OK/GD32VW55X_Wifi_BLE_SDK/GD32VW55x_RELEASE_V1.0.2/MSDK/cloud/alicloud/src/services/ota/prot\ota_mqtt.c ****     iotx_mqtt_topic_info_pt topic_info = (iotx_mqtt_topic_info_pt)msg->msg;
 120              		.loc 1 105 5 is_stmt 1
 121              		.loc 1 107 5
 122 0032 13050900 		addi	a0,s2,%lo(.LC1)
 123              	.LVL4:
 124 0036 97000000 		call	LITE_syslog
 124      E7800000 
 125              	.LVL5:
 108:C:/Users/stapi/OneDrive/Desktop/GD32VW553/V1_MQTT_OK/GD32VW55X_Wifi_BLE_SDK/GD32VW55x_RELEASE_V1.0.2/MSDK/cloud/alicloud/src/services/ota/prot\ota_mqtt.c ****     OTA_LOG_DEBUG("len=%u, topic_msg=%.*s", topic_info->payload_len, topic_info->payload_len, (char
 126              		.loc 1 108 5
 127 003e 03288400 		lw	a6,8(s0)
 128 0042 83280401 		lw	a7,16(s0)
 129 0046 37070000 		lui	a4,%hi(.LC2)
 130 004a C287     		mv	a5,a6
 131 004c 13070700 		addi	a4,a4,%lo(.LC2)
 132 0050 9546     		li	a3,5
 133 0052 1306C006 		li	a2,108
 134 0056 93050A00 		addi	a1,s4,%lo(.LANCHOR0)
 135 005a 13050900 		addi	a0,s2,%lo(.LC1)
 136 005e 97000000 		call	LITE_syslog
 136      E7800000 
 137              	.LVL6:
 109:C:/Users/stapi/OneDrive/Desktop/GD32VW553/V1_MQTT_OK/GD32VW55X_Wifi_BLE_SDK/GD32VW55x_RELEASE_V1.0.2/MSDK/cloud/alicloud/src/services/ota/prot\ota_mqtt.c **** 
 110:C:/Users/stapi/OneDrive/Desktop/GD32VW553/V1_MQTT_OK/GD32VW55X_Wifi_BLE_SDK/GD32VW55x_RELEASE_V1.0.2/MSDK/cloud/alicloud/src/services/ota/prot\ota_mqtt.c ****     OTA_ASSERT(IOTX_MQTT_EVENT_PUBLISH_RECEIVED == msg->event_type);
 138              		.loc 1 110 5
 139              		.loc 1 110 5
 140 0066 03A70900 		lw	a4,0(s3)
 141 006a B147     		li	a5,12
 142 006c 6308F702 		beq	a4,a5,.L2
 143              		.loc 1 110 5 discriminator 1
 144 0070 37070000 		lui	a4,%hi(.LC3)
 145 0074 37060000 		lui	a2,%hi(.LANCHOR1)
 146 0078 B7050000 		lui	a1,%hi(.LC4)
 147 007c 37050000 		lui	a0,%hi(.LC5)
 148 0080 13070700 		addi	a4,a4,%lo(.LC3)
 149 0084 9306E006 		li	a3,110
 150 0088 13060600 		addi	a2,a2,%lo(.LANCHOR1)
 151 008c 93850500 		addi	a1,a1,%lo(.LC4)
 152 0090 13050500 		addi	a0,a0,%lo(.LC5)
 153 0094 97000000 		call	HAL_Printf
 153      E7800000 
 154              	.LVL7:
 155              	.L2:
 156              		.loc 1 110 5 discriminator 3
 111:C:/Users/stapi/OneDrive/Desktop/GD32VW553/V1_MQTT_OK/GD32VW55X_Wifi_BLE_SDK/GD32VW55x_RELEASE_V1.0.2/MSDK/cloud/alicloud/src/services/ota/prot\ota_mqtt.c **** 
 112:C:/Users/stapi/OneDrive/Desktop/GD32VW553/V1_MQTT_OK/GD32VW55X_Wifi_BLE_SDK/GD32VW55x_RELEASE_V1.0.2/MSDK/cloud/alicloud/src/services/ota/prot\ota_mqtt.c ****     if (NULL != strstr(topic_info->ptopic, "/ota/device/request")) {
 157              		.loc 1 112 5 discriminator 3
 158              		.loc 1 112 17 is_stmt 0 discriminator 3
 159 009c 8329C400 		lw	s3,12(s0)
 160              	.LVL8:
 161 00a0 B7050000 		lui	a1,%hi(.LC6)
 162 00a4 93850500 		addi	a1,a1,%lo(.LC6)
 163 00a8 4E85     		mv	a0,s3
 164 00aa 97000000 		call	strstr
 164      E7800000 
 165              	.LVL9:
 166              		.loc 1 112 8 discriminator 3
 167 00b2 3DC9     		beq	a0,zero,.L3
 113:C:/Users/stapi/OneDrive/Desktop/GD32VW553/V1_MQTT_OK/GD32VW55X_Wifi_BLE_SDK/GD32VW55x_RELEASE_V1.0.2/MSDK/cloud/alicloud/src/services/ota/prot\ota_mqtt.c ****         OTA_LOG_DEBUG("receive device request");
 168              		.loc 1 113 9 is_stmt 1
 169 00b4 37070000 		lui	a4,%hi(.LC7)
 170 00b8 93050A00 		addi	a1,s4,%lo(.LANCHOR0)
 171 00bc 13050900 		addi	a0,s2,%lo(.LC1)
 172 00c0 13070700 		addi	a4,a4,%lo(.LC7)
 173 00c4 9546     		li	a3,5
 174 00c6 13061007 		li	a2,113
 175 00ca 97000000 		call	LITE_syslog
 175      E7800000 
 176              	.LVL10:
 114:C:/Users/stapi/OneDrive/Desktop/GD32VW553/V1_MQTT_OK/GD32VW55X_Wifi_BLE_SDK/GD32VW55x_RELEASE_V1.0.2/MSDK/cloud/alicloud/src/services/ota/prot\ota_mqtt.c ****         /*if(NULL != HAL_strnstr(topic_info->payload, topic_info->payload_len,
 115:C:/Users/stapi/OneDrive/Desktop/GD32VW553/V1_MQTT_OK/GD32VW55X_Wifi_BLE_SDK/GD32VW55x_RELEASE_V1.0.2/MSDK/cloud/alicloud/src/services/ota/prot\ota_mqtt.c ****             "url", strlen("url")))*/
 116:C:/Users/stapi/OneDrive/Desktop/GD32VW553/V1_MQTT_OK/GD32VW55X_Wifi_BLE_SDK/GD32VW55x_RELEASE_V1.0.2/MSDK/cloud/alicloud/src/services/ota/prot\ota_mqtt.c ****         if (NULL != strstr(topic_info->payload, "url")) {
 177              		.loc 1 116 9
 178              		.loc 1 116 21 is_stmt 0
 179 00d2 0848     		lw	a0,16(s0)
 180 00d4 B7050000 		lui	a1,%hi(.LC8)
 181 00d8 93850500 		addi	a1,a1,%lo(.LC8)
 182 00dc 97000000 		call	strstr
 182      E7800000 
 183              	.LVL11:
 184              		.loc 1 116 12
 185 00e4 0DCD     		beq	a0,zero,.L1
 117:C:/Users/stapi/OneDrive/Desktop/GD32VW553/V1_MQTT_OK/GD32VW55X_Wifi_BLE_SDK/GD32VW55x_RELEASE_V1.0.2/MSDK/cloud/alicloud/src/services/ota/prot\ota_mqtt.c ****             OTA_LOG_INFO("get request reply for new version image");
 186              		.loc 1 117 13 is_stmt 1
 187              		.loc 1 117 13
 188 00e6 37050000 		lui	a0,%hi(.LC9)
 189 00ea 13050500 		addi	a0,a0,%lo(.LC9)
 190 00ee 97000000 		call	HAL_Printf
 190      E7800000 
 191              	.LVL12:
 192              		.loc 1 117 13
 193 00f6 37050000 		lui	a0,%hi(.LC10)
 194 00fa 13050500 		addi	a0,a0,%lo(.LC10)
 195 00fe 97000000 		call	HAL_Printf
 195      E7800000 
 196              	.LVL13:
 197              		.loc 1 117 13
 198 0106 37050000 		lui	a0,%hi(.LC11)
 199 010a 13050500 		addi	a0,a0,%lo(.LC11)
 200 010e 97000000 		call	HAL_Printf
 200      E7800000 
 201              	.LVL14:
 202              		.loc 1 117 13
 118:C:/Users/stapi/OneDrive/Desktop/GD32VW553/V1_MQTT_OK/GD32VW55X_Wifi_BLE_SDK/GD32VW55x_RELEASE_V1.0.2/MSDK/cloud/alicloud/src/services/ota/prot\ota_mqtt.c ****             if (NULL != handle->cb) {
 203              		.loc 1 118 13
 204              		.loc 1 118 31 is_stmt 0
 205 0116 83A7C420 		lw	a5,524(s1)
 119:C:/Users/stapi/OneDrive/Desktop/GD32VW553/V1_MQTT_OK/GD32VW55X_Wifi_BLE_SDK/GD32VW55x_RELEASE_V1.0.2/MSDK/cloud/alicloud/src/services/ota/prot\ota_mqtt.c ****                 handle->cb(handle->context, topic_info->payload, topic_info->payload_len, IOTX_OTA_
 206              		.loc 1 119 17
 207 011a 8546     		li	a3,1
 118:C:/Users/stapi/OneDrive/Desktop/GD32VW553/V1_MQTT_OK/GD32VW55X_Wifi_BLE_SDK/GD32VW55x_RELEASE_V1.0.2/MSDK/cloud/alicloud/src/services/ota/prot\ota_mqtt.c ****             if (NULL != handle->cb) {
 208              		.loc 1 118 16
 209 011c B9E3     		bne	a5,zero,.L29
 210              	.LVL15:
 211              	.L1:
 120:C:/Users/stapi/OneDrive/Desktop/GD32VW553/V1_MQTT_OK/GD32VW55X_Wifi_BLE_SDK/GD32VW55x_RELEASE_V1.0.2/MSDK/cloud/alicloud/src/services/ota/prot\ota_mqtt.c ****             }
 121:C:/Users/stapi/OneDrive/Desktop/GD32VW553/V1_MQTT_OK/GD32VW55X_Wifi_BLE_SDK/GD32VW55x_RELEASE_V1.0.2/MSDK/cloud/alicloud/src/services/ota/prot\ota_mqtt.c ****         }
 122:C:/Users/stapi/OneDrive/Desktop/GD32VW553/V1_MQTT_OK/GD32VW55X_Wifi_BLE_SDK/GD32VW55x_RELEASE_V1.0.2/MSDK/cloud/alicloud/src/services/ota/prot\ota_mqtt.c ****     } else if (NULL != strstr(topic_info->ptopic, "/ota/device/upgrade")) {
 123:C:/Users/stapi/OneDrive/Desktop/GD32VW553/V1_MQTT_OK/GD32VW55X_Wifi_BLE_SDK/GD32VW55x_RELEASE_V1.0.2/MSDK/cloud/alicloud/src/services/ota/prot\ota_mqtt.c ****         OTA_LOG_DEBUG("receive device upgrade");
 124:C:/Users/stapi/OneDrive/Desktop/GD32VW553/V1_MQTT_OK/GD32VW55X_Wifi_BLE_SDK/GD32VW55x_RELEASE_V1.0.2/MSDK/cloud/alicloud/src/services/ota/prot\ota_mqtt.c ****         if (NULL != handle->cb) {
 125:C:/Users/stapi/OneDrive/Desktop/GD32VW553/V1_MQTT_OK/GD32VW55X_Wifi_BLE_SDK/GD32VW55x_RELEASE_V1.0.2/MSDK/cloud/alicloud/src/services/ota/prot\ota_mqtt.c ****             handle->cb(handle->context, topic_info->payload, topic_info->payload_len, IOTX_OTA_TOPI
 126:C:/Users/stapi/OneDrive/Desktop/GD32VW553/V1_MQTT_OK/GD32VW55X_Wifi_BLE_SDK/GD32VW55x_RELEASE_V1.0.2/MSDK/cloud/alicloud/src/services/ota/prot\ota_mqtt.c ****         }
 127:C:/Users/stapi/OneDrive/Desktop/GD32VW553/V1_MQTT_OK/GD32VW55X_Wifi_BLE_SDK/GD32VW55x_RELEASE_V1.0.2/MSDK/cloud/alicloud/src/services/ota/prot\ota_mqtt.c ****     } else if (NULL != strstr(topic_info->ptopic, "/thing/config/get_reply")) {
 128:C:/Users/stapi/OneDrive/Desktop/GD32VW553/V1_MQTT_OK/GD32VW55X_Wifi_BLE_SDK/GD32VW55x_RELEASE_V1.0.2/MSDK/cloud/alicloud/src/services/ota/prot\ota_mqtt.c ****         OTA_LOG_DEBUG("receive config get_reply");
 129:C:/Users/stapi/OneDrive/Desktop/GD32VW553/V1_MQTT_OK/GD32VW55X_Wifi_BLE_SDK/GD32VW55x_RELEASE_V1.0.2/MSDK/cloud/alicloud/src/services/ota/prot\ota_mqtt.c ****         if (NULL != handle->cb) {
 130:C:/Users/stapi/OneDrive/Desktop/GD32VW553/V1_MQTT_OK/GD32VW55X_Wifi_BLE_SDK/GD32VW55x_RELEASE_V1.0.2/MSDK/cloud/alicloud/src/services/ota/prot\ota_mqtt.c ****             handle->cb(handle->context, topic_info->payload, topic_info->payload_len, IOTX_OTA_TOPI
 131:C:/Users/stapi/OneDrive/Desktop/GD32VW553/V1_MQTT_OK/GD32VW55X_Wifi_BLE_SDK/GD32VW55x_RELEASE_V1.0.2/MSDK/cloud/alicloud/src/services/ota/prot\ota_mqtt.c ****         }
 132:C:/Users/stapi/OneDrive/Desktop/GD32VW553/V1_MQTT_OK/GD32VW55X_Wifi_BLE_SDK/GD32VW55x_RELEASE_V1.0.2/MSDK/cloud/alicloud/src/services/ota/prot\ota_mqtt.c ****     } else if (NULL != strstr(topic_info->ptopic, "/thing/config/push")) {
 133:C:/Users/stapi/OneDrive/Desktop/GD32VW553/V1_MQTT_OK/GD32VW55X_Wifi_BLE_SDK/GD32VW55x_RELEASE_V1.0.2/MSDK/cloud/alicloud/src/services/ota/prot\ota_mqtt.c ****         OTA_LOG_DEBUG("receive config push");
 134:C:/Users/stapi/OneDrive/Desktop/GD32VW553/V1_MQTT_OK/GD32VW55X_Wifi_BLE_SDK/GD32VW55x_RELEASE_V1.0.2/MSDK/cloud/alicloud/src/services/ota/prot\ota_mqtt.c ****         if (NULL != handle->cb) {
 135:C:/Users/stapi/OneDrive/Desktop/GD32VW553/V1_MQTT_OK/GD32VW55X_Wifi_BLE_SDK/GD32VW55x_RELEASE_V1.0.2/MSDK/cloud/alicloud/src/services/ota/prot\ota_mqtt.c ****             if (0 != handle->cb(handle->context, topic_info->payload, topic_info->payload_len, IOTX
 136:C:/Users/stapi/OneDrive/Desktop/GD32VW553/V1_MQTT_OK/GD32VW55X_Wifi_BLE_SDK/GD32VW55x_RELEASE_V1.0.2/MSDK/cloud/alicloud/src/services/ota/prot\ota_mqtt.c ****                 /* fail, send fail response code:400 */
 137:C:/Users/stapi/OneDrive/Desktop/GD32VW553/V1_MQTT_OK/GD32VW55X_Wifi_BLE_SDK/GD32VW55x_RELEASE_V1.0.2/MSDK/cloud/alicloud/src/services/ota/prot\ota_mqtt.c ****                 const char *pvalue;
 138:C:/Users/stapi/OneDrive/Desktop/GD32VW553/V1_MQTT_OK/GD32VW55X_Wifi_BLE_SDK/GD32VW55x_RELEASE_V1.0.2/MSDK/cloud/alicloud/src/services/ota/prot\ota_mqtt.c ****                 uint32_t val_len;
 139:C:/Users/stapi/OneDrive/Desktop/GD32VW553/V1_MQTT_OK/GD32VW55X_Wifi_BLE_SDK/GD32VW55x_RELEASE_V1.0.2/MSDK/cloud/alicloud/src/services/ota/prot\ota_mqtt.c ****                 char topic[OTA_MQTT_TOPIC_LEN] = {0};
 140:C:/Users/stapi/OneDrive/Desktop/GD32VW553/V1_MQTT_OK/GD32VW55X_Wifi_BLE_SDK/GD32VW55x_RELEASE_V1.0.2/MSDK/cloud/alicloud/src/services/ota/prot\ota_mqtt.c ****                 char message[OTA_MQTT_TOPIC_LEN] = {0};
 141:C:/Users/stapi/OneDrive/Desktop/GD32VW553/V1_MQTT_OK/GD32VW55X_Wifi_BLE_SDK/GD32VW55x_RELEASE_V1.0.2/MSDK/cloud/alicloud/src/services/ota/prot\ota_mqtt.c ****                 iotx_mqtt_topic_info_t message_info;
 142:C:/Users/stapi/OneDrive/Desktop/GD32VW553/V1_MQTT_OK/GD32VW55X_Wifi_BLE_SDK/GD32VW55x_RELEASE_V1.0.2/MSDK/cloud/alicloud/src/services/ota/prot\ota_mqtt.c **** 
 143:C:/Users/stapi/OneDrive/Desktop/GD32VW553/V1_MQTT_OK/GD32VW55X_Wifi_BLE_SDK/GD32VW55x_RELEASE_V1.0.2/MSDK/cloud/alicloud/src/services/ota/prot\ota_mqtt.c ****                 memset(&message_info, 0, sizeof(iotx_mqtt_topic_info_t));
 144:C:/Users/stapi/OneDrive/Desktop/GD32VW553/V1_MQTT_OK/GD32VW55X_Wifi_BLE_SDK/GD32VW55x_RELEASE_V1.0.2/MSDK/cloud/alicloud/src/services/ota/prot\ota_mqtt.c **** 
 145:C:/Users/stapi/OneDrive/Desktop/GD32VW553/V1_MQTT_OK/GD32VW55X_Wifi_BLE_SDK/GD32VW55x_RELEASE_V1.0.2/MSDK/cloud/alicloud/src/services/ota/prot\ota_mqtt.c ****                 pvalue = otalib_JsonValueOf(topic_info->payload, topic_info->payload_len, "id", &va
 146:C:/Users/stapi/OneDrive/Desktop/GD32VW553/V1_MQTT_OK/GD32VW55X_Wifi_BLE_SDK/GD32VW55x_RELEASE_V1.0.2/MSDK/cloud/alicloud/src/services/ota/prot\ota_mqtt.c **** 
 147:C:/Users/stapi/OneDrive/Desktop/GD32VW553/V1_MQTT_OK/GD32VW55X_Wifi_BLE_SDK/GD32VW55x_RELEASE_V1.0.2/MSDK/cloud/alicloud/src/services/ota/prot\ota_mqtt.c ****                 HAL_Snprintf(topic,
 148:C:/Users/stapi/OneDrive/Desktop/GD32VW553/V1_MQTT_OK/GD32VW55X_Wifi_BLE_SDK/GD32VW55x_RELEASE_V1.0.2/MSDK/cloud/alicloud/src/services/ota/prot\ota_mqtt.c ****                              OTA_MQTT_TOPIC_LEN,
 149:C:/Users/stapi/OneDrive/Desktop/GD32VW553/V1_MQTT_OK/GD32VW55X_Wifi_BLE_SDK/GD32VW55x_RELEASE_V1.0.2/MSDK/cloud/alicloud/src/services/ota/prot\ota_mqtt.c ****                              "/sys/%s/%s/thing/config/push_reply",
 150:C:/Users/stapi/OneDrive/Desktop/GD32VW553/V1_MQTT_OK/GD32VW55X_Wifi_BLE_SDK/GD32VW55x_RELEASE_V1.0.2/MSDK/cloud/alicloud/src/services/ota/prot\ota_mqtt.c ****                              handle->product_key,
 151:C:/Users/stapi/OneDrive/Desktop/GD32VW553/V1_MQTT_OK/GD32VW55X_Wifi_BLE_SDK/GD32VW55x_RELEASE_V1.0.2/MSDK/cloud/alicloud/src/services/ota/prot\ota_mqtt.c ****                              handle->device_name);
 152:C:/Users/stapi/OneDrive/Desktop/GD32VW553/V1_MQTT_OK/GD32VW55X_Wifi_BLE_SDK/GD32VW55x_RELEASE_V1.0.2/MSDK/cloud/alicloud/src/services/ota/prot\ota_mqtt.c ****                 HAL_Snprintf(message,
 153:C:/Users/stapi/OneDrive/Desktop/GD32VW553/V1_MQTT_OK/GD32VW55X_Wifi_BLE_SDK/GD32VW55x_RELEASE_V1.0.2/MSDK/cloud/alicloud/src/services/ota/prot\ota_mqtt.c ****                              OTA_MQTT_TOPIC_LEN,
 154:C:/Users/stapi/OneDrive/Desktop/GD32VW553/V1_MQTT_OK/GD32VW55X_Wifi_BLE_SDK/GD32VW55x_RELEASE_V1.0.2/MSDK/cloud/alicloud/src/services/ota/prot\ota_mqtt.c ****                              "\"id\":%d,\"code\":\"%d\",\"data\":{}",
 155:C:/Users/stapi/OneDrive/Desktop/GD32VW553/V1_MQTT_OK/GD32VW55X_Wifi_BLE_SDK/GD32VW55x_RELEASE_V1.0.2/MSDK/cloud/alicloud/src/services/ota/prot\ota_mqtt.c ****                              pvalue,
 156:C:/Users/stapi/OneDrive/Desktop/GD32VW553/V1_MQTT_OK/GD32VW55X_Wifi_BLE_SDK/GD32VW55x_RELEASE_V1.0.2/MSDK/cloud/alicloud/src/services/ota/prot\ota_mqtt.c ****                              400);
 157:C:/Users/stapi/OneDrive/Desktop/GD32VW553/V1_MQTT_OK/GD32VW55X_Wifi_BLE_SDK/GD32VW55x_RELEASE_V1.0.2/MSDK/cloud/alicloud/src/services/ota/prot\ota_mqtt.c ****                 message_info.qos = IOTX_MQTT_QOS0;
 158:C:/Users/stapi/OneDrive/Desktop/GD32VW553/V1_MQTT_OK/GD32VW55X_Wifi_BLE_SDK/GD32VW55x_RELEASE_V1.0.2/MSDK/cloud/alicloud/src/services/ota/prot\ota_mqtt.c ****                 message_info.payload = (void *)message;
 159:C:/Users/stapi/OneDrive/Desktop/GD32VW553/V1_MQTT_OK/GD32VW55X_Wifi_BLE_SDK/GD32VW55x_RELEASE_V1.0.2/MSDK/cloud/alicloud/src/services/ota/prot\ota_mqtt.c ****                 message_info.payload_len = strlen(message);
 160:C:/Users/stapi/OneDrive/Desktop/GD32VW553/V1_MQTT_OK/GD32VW55X_Wifi_BLE_SDK/GD32VW55x_RELEASE_V1.0.2/MSDK/cloud/alicloud/src/services/ota/prot\ota_mqtt.c **** 
 161:C:/Users/stapi/OneDrive/Desktop/GD32VW553/V1_MQTT_OK/GD32VW55X_Wifi_BLE_SDK/GD32VW55x_RELEASE_V1.0.2/MSDK/cloud/alicloud/src/services/ota/prot\ota_mqtt.c ****                 if (IOT_MQTT_Publish(handle->mqtt, topic, &message_info) < 0) {
 162:C:/Users/stapi/OneDrive/Desktop/GD32VW553/V1_MQTT_OK/GD32VW55X_Wifi_BLE_SDK/GD32VW55x_RELEASE_V1.0.2/MSDK/cloud/alicloud/src/services/ota/prot\ota_mqtt.c ****                     OTA_LOG_ERROR("publish failed");
 163:C:/Users/stapi/OneDrive/Desktop/GD32VW553/V1_MQTT_OK/GD32VW55X_Wifi_BLE_SDK/GD32VW55x_RELEASE_V1.0.2/MSDK/cloud/alicloud/src/services/ota/prot\ota_mqtt.c ****                 }
 164:C:/Users/stapi/OneDrive/Desktop/GD32VW553/V1_MQTT_OK/GD32VW55X_Wifi_BLE_SDK/GD32VW55x_RELEASE_V1.0.2/MSDK/cloud/alicloud/src/services/ota/prot\ota_mqtt.c ****             }
 165:C:/Users/stapi/OneDrive/Desktop/GD32VW553/V1_MQTT_OK/GD32VW55X_Wifi_BLE_SDK/GD32VW55x_RELEASE_V1.0.2/MSDK/cloud/alicloud/src/services/ota/prot\ota_mqtt.c ****         }
 166:C:/Users/stapi/OneDrive/Desktop/GD32VW553/V1_MQTT_OK/GD32VW55X_Wifi_BLE_SDK/GD32VW55x_RELEASE_V1.0.2/MSDK/cloud/alicloud/src/services/ota/prot\ota_mqtt.c ****     }
 167:C:/Users/stapi/OneDrive/Desktop/GD32VW553/V1_MQTT_OK/GD32VW55X_Wifi_BLE_SDK/GD32VW55x_RELEASE_V1.0.2/MSDK/cloud/alicloud/src/services/ota/prot\ota_mqtt.c **** }
 212              		.loc 1 167 1
 213 011e 1561     		addi	sp,sp,288
 214              		.cfi_remember_state
 215              		.cfi_def_cfa_offset 0
 216 0120 17030000 		tail	__riscv_restore_5
 216      67000300 
 217              		.cfi_restore 20
 218              		.cfi_restore 19
 219              		.cfi_restore 18
 220              		.cfi_restore 9
 221              		.cfi_restore 8
 222              		.cfi_restore 1
 223              		.cfi_def_cfa_offset -32
 224              	.LVL16:
 225              	.L3:
 226              		.cfi_restore_state
 122:C:/Users/stapi/OneDrive/Desktop/GD32VW553/V1_MQTT_OK/GD32VW55X_Wifi_BLE_SDK/GD32VW55x_RELEASE_V1.0.2/MSDK/cloud/alicloud/src/services/ota/prot\ota_mqtt.c ****         OTA_LOG_DEBUG("receive device upgrade");
 227              		.loc 1 122 12 is_stmt 1
 122:C:/Users/stapi/OneDrive/Desktop/GD32VW553/V1_MQTT_OK/GD32VW55X_Wifi_BLE_SDK/GD32VW55x_RELEASE_V1.0.2/MSDK/cloud/alicloud/src/services/ota/prot\ota_mqtt.c ****         OTA_LOG_DEBUG("receive device upgrade");
 228              		.loc 1 122 24 is_stmt 0
 229 0128 B7050000 		lui	a1,%hi(.LC12)
 230 012c 93850500 		addi	a1,a1,%lo(.LC12)
 231 0130 4E85     		mv	a0,s3
 232 0132 97000000 		call	strstr
 232      E7800000 
 233              	.LVL17:
 122:C:/Users/stapi/OneDrive/Desktop/GD32VW553/V1_MQTT_OK/GD32VW55X_Wifi_BLE_SDK/GD32VW55x_RELEASE_V1.0.2/MSDK/cloud/alicloud/src/services/ota/prot\ota_mqtt.c ****         OTA_LOG_DEBUG("receive device upgrade");
 234              		.loc 1 122 15
 235 013a 15C9     		beq	a0,zero,.L7
 123:C:/Users/stapi/OneDrive/Desktop/GD32VW553/V1_MQTT_OK/GD32VW55X_Wifi_BLE_SDK/GD32VW55x_RELEASE_V1.0.2/MSDK/cloud/alicloud/src/services/ota/prot\ota_mqtt.c ****         if (NULL != handle->cb) {
 236              		.loc 1 123 9 is_stmt 1
 237 013c 37070000 		lui	a4,%hi(.LC13)
 238 0140 13070700 		addi	a4,a4,%lo(.LC13)
 239 0144 9546     		li	a3,5
 240 0146 1306B007 		li	a2,123
 241 014a 93050A00 		addi	a1,s4,%lo(.LANCHOR0)
 242 014e 13050900 		addi	a0,s2,%lo(.LC1)
 243 0152 97000000 		call	LITE_syslog
 243      E7800000 
 244              	.LVL18:
 124:C:/Users/stapi/OneDrive/Desktop/GD32VW553/V1_MQTT_OK/GD32VW55X_Wifi_BLE_SDK/GD32VW55x_RELEASE_V1.0.2/MSDK/cloud/alicloud/src/services/ota/prot\ota_mqtt.c ****             handle->cb(handle->context, topic_info->payload, topic_info->payload_len, IOTX_OTA_TOPI
 245              		.loc 1 124 9
 124:C:/Users/stapi/OneDrive/Desktop/GD32VW553/V1_MQTT_OK/GD32VW55X_Wifi_BLE_SDK/GD32VW55x_RELEASE_V1.0.2/MSDK/cloud/alicloud/src/services/ota/prot\ota_mqtt.c ****             handle->cb(handle->context, topic_info->payload, topic_info->payload_len, IOTX_OTA_TOPI
 246              		.loc 1 124 27 is_stmt 0
 247 015a 83A7C420 		lw	a5,524(s1)
 124:C:/Users/stapi/OneDrive/Desktop/GD32VW553/V1_MQTT_OK/GD32VW55X_Wifi_BLE_SDK/GD32VW55x_RELEASE_V1.0.2/MSDK/cloud/alicloud/src/services/ota/prot\ota_mqtt.c ****             handle->cb(handle->context, topic_info->payload, topic_info->payload_len, IOTX_OTA_TOPI
 248              		.loc 1 124 12
 249 015e E1D3     		beq	a5,zero,.L1
 125:C:/Users/stapi/OneDrive/Desktop/GD32VW553/V1_MQTT_OK/GD32VW55X_Wifi_BLE_SDK/GD32VW55x_RELEASE_V1.0.2/MSDK/cloud/alicloud/src/services/ota/prot\ota_mqtt.c ****         }
 250              		.loc 1 125 13 is_stmt 1
 251 0160 8946     		li	a3,2
 252              	.L29:
 253 0162 1044     		lw	a2,8(s0)
 254 0164 0C48     		lw	a1,16(s0)
 255 0166 03A50421 		lw	a0,528(s1)
 256 016a 8297     		jalr	a5
 257              	.LVL19:
 258 016c 4DBF     		j	.L1
 259              	.L7:
 127:C:/Users/stapi/OneDrive/Desktop/GD32VW553/V1_MQTT_OK/GD32VW55X_Wifi_BLE_SDK/GD32VW55x_RELEASE_V1.0.2/MSDK/cloud/alicloud/src/services/ota/prot\ota_mqtt.c ****         OTA_LOG_DEBUG("receive config get_reply");
 260              		.loc 1 127 12
 127:C:/Users/stapi/OneDrive/Desktop/GD32VW553/V1_MQTT_OK/GD32VW55X_Wifi_BLE_SDK/GD32VW55x_RELEASE_V1.0.2/MSDK/cloud/alicloud/src/services/ota/prot\ota_mqtt.c ****         OTA_LOG_DEBUG("receive config get_reply");
 261              		.loc 1 127 24 is_stmt 0
 262 016e B7050000 		lui	a1,%hi(.LC14)
 263 0172 93850500 		addi	a1,a1,%lo(.LC14)
 264 0176 4E85     		mv	a0,s3
 265 0178 97000000 		call	strstr
 265      E7800000 
 266              	.LVL20:
 127:C:/Users/stapi/OneDrive/Desktop/GD32VW553/V1_MQTT_OK/GD32VW55X_Wifi_BLE_SDK/GD32VW55x_RELEASE_V1.0.2/MSDK/cloud/alicloud/src/services/ota/prot\ota_mqtt.c ****         OTA_LOG_DEBUG("receive config get_reply");
 267              		.loc 1 127 15
 268 0180 0DC5     		beq	a0,zero,.L8
 128:C:/Users/stapi/OneDrive/Desktop/GD32VW553/V1_MQTT_OK/GD32VW55X_Wifi_BLE_SDK/GD32VW55x_RELEASE_V1.0.2/MSDK/cloud/alicloud/src/services/ota/prot\ota_mqtt.c ****         if (NULL != handle->cb) {
 269              		.loc 1 128 9 is_stmt 1
 270 0182 37070000 		lui	a4,%hi(.LC15)
 271 0186 9546     		li	a3,5
 272 0188 13070700 		addi	a4,a4,%lo(.LC15)
 273 018c 13060008 		li	a2,128
 274 0190 93050A00 		addi	a1,s4,%lo(.LANCHOR0)
 275 0194 13050900 		addi	a0,s2,%lo(.LC1)
 276 0198 97000000 		call	LITE_syslog
 276      E7800000 
 277              	.LVL21:
 129:C:/Users/stapi/OneDrive/Desktop/GD32VW553/V1_MQTT_OK/GD32VW55X_Wifi_BLE_SDK/GD32VW55x_RELEASE_V1.0.2/MSDK/cloud/alicloud/src/services/ota/prot\ota_mqtt.c ****             handle->cb(handle->context, topic_info->payload, topic_info->payload_len, IOTX_OTA_TOPI
 278              		.loc 1 129 9
 129:C:/Users/stapi/OneDrive/Desktop/GD32VW553/V1_MQTT_OK/GD32VW55X_Wifi_BLE_SDK/GD32VW55x_RELEASE_V1.0.2/MSDK/cloud/alicloud/src/services/ota/prot\ota_mqtt.c ****             handle->cb(handle->context, topic_info->payload, topic_info->payload_len, IOTX_OTA_TOPI
 279              		.loc 1 129 27 is_stmt 0
 280 01a0 83A7C420 		lw	a5,524(s1)
 130:C:/Users/stapi/OneDrive/Desktop/GD32VW553/V1_MQTT_OK/GD32VW55X_Wifi_BLE_SDK/GD32VW55x_RELEASE_V1.0.2/MSDK/cloud/alicloud/src/services/ota/prot\ota_mqtt.c ****         }
 281              		.loc 1 130 13
 282 01a4 8D46     		li	a3,3
 129:C:/Users/stapi/OneDrive/Desktop/GD32VW553/V1_MQTT_OK/GD32VW55X_Wifi_BLE_SDK/GD32VW55x_RELEASE_V1.0.2/MSDK/cloud/alicloud/src/services/ota/prot\ota_mqtt.c ****             handle->cb(handle->context, topic_info->payload, topic_info->payload_len, IOTX_OTA_TOPI
 283              		.loc 1 129 12
 284 01a6 D5FF     		bne	a5,zero,.L29
 285 01a8 9DBF     		j	.L1
 286              	.L8:
 132:C:/Users/stapi/OneDrive/Desktop/GD32VW553/V1_MQTT_OK/GD32VW55X_Wifi_BLE_SDK/GD32VW55x_RELEASE_V1.0.2/MSDK/cloud/alicloud/src/services/ota/prot\ota_mqtt.c ****         OTA_LOG_DEBUG("receive config push");
 287              		.loc 1 132 12 is_stmt 1
 132:C:/Users/stapi/OneDrive/Desktop/GD32VW553/V1_MQTT_OK/GD32VW55X_Wifi_BLE_SDK/GD32VW55x_RELEASE_V1.0.2/MSDK/cloud/alicloud/src/services/ota/prot\ota_mqtt.c ****         OTA_LOG_DEBUG("receive config push");
 288              		.loc 1 132 24 is_stmt 0
 289 01aa B7050000 		lui	a1,%hi(.LC16)
 290 01ae 93850500 		addi	a1,a1,%lo(.LC16)
 291 01b2 4E85     		mv	a0,s3
 292 01b4 97000000 		call	strstr
 292      E7800000 
 293              	.LVL22:
 132:C:/Users/stapi/OneDrive/Desktop/GD32VW553/V1_MQTT_OK/GD32VW55X_Wifi_BLE_SDK/GD32VW55x_RELEASE_V1.0.2/MSDK/cloud/alicloud/src/services/ota/prot\ota_mqtt.c ****         OTA_LOG_DEBUG("receive config push");
 294              		.loc 1 132 15
 295 01bc 2DD1     		beq	a0,zero,.L1
 133:C:/Users/stapi/OneDrive/Desktop/GD32VW553/V1_MQTT_OK/GD32VW55X_Wifi_BLE_SDK/GD32VW55x_RELEASE_V1.0.2/MSDK/cloud/alicloud/src/services/ota/prot\ota_mqtt.c ****         if (NULL != handle->cb) {
 296              		.loc 1 133 9 is_stmt 1
 297 01be 37070000 		lui	a4,%hi(.LC17)
 298 01c2 13070700 		addi	a4,a4,%lo(.LC17)
 299 01c6 9546     		li	a3,5
 300 01c8 13065008 		li	a2,133
 301 01cc 93050A00 		addi	a1,s4,%lo(.LANCHOR0)
 302 01d0 13050900 		addi	a0,s2,%lo(.LC1)
 303 01d4 97000000 		call	LITE_syslog
 303      E7800000 
 304              	.LVL23:
 134:C:/Users/stapi/OneDrive/Desktop/GD32VW553/V1_MQTT_OK/GD32VW55X_Wifi_BLE_SDK/GD32VW55x_RELEASE_V1.0.2/MSDK/cloud/alicloud/src/services/ota/prot\ota_mqtt.c ****             if (0 != handle->cb(handle->context, topic_info->payload, topic_info->payload_len, IOTX
 305              		.loc 1 134 9
 134:C:/Users/stapi/OneDrive/Desktop/GD32VW553/V1_MQTT_OK/GD32VW55X_Wifi_BLE_SDK/GD32VW55x_RELEASE_V1.0.2/MSDK/cloud/alicloud/src/services/ota/prot\ota_mqtt.c ****             if (0 != handle->cb(handle->context, topic_info->payload, topic_info->payload_len, IOTX
 306              		.loc 1 134 27 is_stmt 0
 307 01dc 83A7C420 		lw	a5,524(s1)
 134:C:/Users/stapi/OneDrive/Desktop/GD32VW553/V1_MQTT_OK/GD32VW55X_Wifi_BLE_SDK/GD32VW55x_RELEASE_V1.0.2/MSDK/cloud/alicloud/src/services/ota/prot\ota_mqtt.c ****             if (0 != handle->cb(handle->context, topic_info->payload, topic_info->payload_len, IOTX
 308              		.loc 1 134 12
 309 01e0 9DDF     		beq	a5,zero,.L1
 135:C:/Users/stapi/OneDrive/Desktop/GD32VW553/V1_MQTT_OK/GD32VW55X_Wifi_BLE_SDK/GD32VW55x_RELEASE_V1.0.2/MSDK/cloud/alicloud/src/services/ota/prot\ota_mqtt.c ****                 /* fail, send fail response code:400 */
 310              		.loc 1 135 13 is_stmt 1
 135:C:/Users/stapi/OneDrive/Desktop/GD32VW553/V1_MQTT_OK/GD32VW55X_Wifi_BLE_SDK/GD32VW55x_RELEASE_V1.0.2/MSDK/cloud/alicloud/src/services/ota/prot\ota_mqtt.c ****                 /* fail, send fail response code:400 */
 311              		.loc 1 135 22 is_stmt 0
 312 01e2 1044     		lw	a2,8(s0)
 313 01e4 0C48     		lw	a1,16(s0)
 314 01e6 03A50421 		lw	a0,528(s1)
 315 01ea 9146     		li	a3,4
 316 01ec 8297     		jalr	a5
 317              	.LVL24:
 135:C:/Users/stapi/OneDrive/Desktop/GD32VW553/V1_MQTT_OK/GD32VW55X_Wifi_BLE_SDK/GD32VW55x_RELEASE_V1.0.2/MSDK/cloud/alicloud/src/services/ota/prot\ota_mqtt.c ****                 /* fail, send fail response code:400 */
 318              		.loc 1 135 16
 319 01ee 05D9     		beq	a0,zero,.L1
 320              	.LBB6:
 137:C:/Users/stapi/OneDrive/Desktop/GD32VW553/V1_MQTT_OK/GD32VW55X_Wifi_BLE_SDK/GD32VW55x_RELEASE_V1.0.2/MSDK/cloud/alicloud/src/services/ota/prot\ota_mqtt.c ****                 uint32_t val_len;
 321              		.loc 1 137 17 is_stmt 1
 138:C:/Users/stapi/OneDrive/Desktop/GD32VW553/V1_MQTT_OK/GD32VW55X_Wifi_BLE_SDK/GD32VW55x_RELEASE_V1.0.2/MSDK/cloud/alicloud/src/services/ota/prot\ota_mqtt.c ****                 char topic[OTA_MQTT_TOPIC_LEN] = {0};
 322              		.loc 1 138 17
 139:C:/Users/stapi/OneDrive/Desktop/GD32VW553/V1_MQTT_OK/GD32VW55X_Wifi_BLE_SDK/GD32VW55x_RELEASE_V1.0.2/MSDK/cloud/alicloud/src/services/ota/prot\ota_mqtt.c ****                 char message[OTA_MQTT_TOPIC_LEN] = {0};
 323              		.loc 1 139 17
 139:C:/Users/stapi/OneDrive/Desktop/GD32VW553/V1_MQTT_OK/GD32VW55X_Wifi_BLE_SDK/GD32VW55x_RELEASE_V1.0.2/MSDK/cloud/alicloud/src/services/ota/prot\ota_mqtt.c ****                 char message[OTA_MQTT_TOPIC_LEN] = {0};
 324              		.loc 1 139 22 is_stmt 0
 325 01f0 1306C007 		li	a2,124
 326 01f4 8145     		li	a1,0
 327 01f6 4810     		addi	a0,sp,36
 328 01f8 02D0     		sw	zero,32(sp)
 329 01fa 97000000 		call	memset
 329      E7800000 
 330              	.LVL25:
 140:C:/Users/stapi/OneDrive/Desktop/GD32VW553/V1_MQTT_OK/GD32VW55X_Wifi_BLE_SDK/GD32VW55x_RELEASE_V1.0.2/MSDK/cloud/alicloud/src/services/ota/prot\ota_mqtt.c ****                 iotx_mqtt_topic_info_t message_info;
 331              		.loc 1 140 17 is_stmt 1
 140:C:/Users/stapi/OneDrive/Desktop/GD32VW553/V1_MQTT_OK/GD32VW55X_Wifi_BLE_SDK/GD32VW55x_RELEASE_V1.0.2/MSDK/cloud/alicloud/src/services/ota/prot\ota_mqtt.c ****                 iotx_mqtt_topic_info_t message_info;
 332              		.loc 1 140 22 is_stmt 0
 333 0202 1306C007 		li	a2,124
 334 0206 8145     		li	a1,0
 335 0208 4811     		addi	a0,sp,164
 336 020a 02D1     		sw	zero,160(sp)
 337 020c 97000000 		call	memset
 337      E7800000 
 338              	.LVL26:
 141:C:/Users/stapi/OneDrive/Desktop/GD32VW553/V1_MQTT_OK/GD32VW55X_Wifi_BLE_SDK/GD32VW55x_RELEASE_V1.0.2/MSDK/cloud/alicloud/src/services/ota/prot\ota_mqtt.c **** 
 339              		.loc 1 141 17 is_stmt 1
 143:C:/Users/stapi/OneDrive/Desktop/GD32VW553/V1_MQTT_OK/GD32VW55X_Wifi_BLE_SDK/GD32VW55x_RELEASE_V1.0.2/MSDK/cloud/alicloud/src/services/ota/prot\ota_mqtt.c **** 
 340              		.loc 1 143 17
 341 0214 02C6     		sw	zero,12(sp)
 342 0216 02C8     		sw	zero,16(sp)
 343 0218 02CA     		sw	zero,20(sp)
 344 021a 02CC     		sw	zero,24(sp)
 345 021c 02CE     		sw	zero,28(sp)
 145:C:/Users/stapi/OneDrive/Desktop/GD32VW553/V1_MQTT_OK/GD32VW55X_Wifi_BLE_SDK/GD32VW55x_RELEASE_V1.0.2/MSDK/cloud/alicloud/src/services/ota/prot\ota_mqtt.c **** 
 346              		.loc 1 145 17
 145:C:/Users/stapi/OneDrive/Desktop/GD32VW553/V1_MQTT_OK/GD32VW55X_Wifi_BLE_SDK/GD32VW55x_RELEASE_V1.0.2/MSDK/cloud/alicloud/src/services/ota/prot\ota_mqtt.c **** 
 347              		.loc 1 145 26 is_stmt 0
 348 021e 0C44     		lw	a1,8(s0)
 349 0220 0848     		lw	a0,16(s0)
 350 0222 37060000 		lui	a2,%hi(.LC18)
 351 0226 3400     		addi	a3,sp,8
 352 0228 13060600 		addi	a2,a2,%lo(.LC18)
 353 022c 97000000 		call	otalib_JsonValueOf
 353      E7800000 
 354              	.LVL27:
 147:C:/Users/stapi/OneDrive/Desktop/GD32VW553/V1_MQTT_OK/GD32VW55X_Wifi_BLE_SDK/GD32VW55x_RELEASE_V1.0.2/MSDK/cloud/alicloud/src/services/ota/prot\ota_mqtt.c ****                              OTA_MQTT_TOPIC_LEN,
 355              		.loc 1 147 17
 356 0234 9844     		lw	a4,8(s1)
 357 0236 D440     		lw	a3,4(s1)
 358 0238 37060000 		lui	a2,%hi(.LC19)
 145:C:/Users/stapi/OneDrive/Desktop/GD32VW553/V1_MQTT_OK/GD32VW55X_Wifi_BLE_SDK/GD32VW55x_RELEASE_V1.0.2/MSDK/cloud/alicloud/src/services/ota/prot\ota_mqtt.c **** 
 359              		.loc 1 145 26
 360 023c 2A89     		mv	s2,a0
 361              	.LVL28:
 147:C:/Users/stapi/OneDrive/Desktop/GD32VW553/V1_MQTT_OK/GD32VW55X_Wifi_BLE_SDK/GD32VW55x_RELEASE_V1.0.2/MSDK/cloud/alicloud/src/services/ota/prot\ota_mqtt.c ****                              OTA_MQTT_TOPIC_LEN,
 362              		.loc 1 147 17 is_stmt 1
 363 023e 13060600 		addi	a2,a2,%lo(.LC19)
 364 0242 93050008 		li	a1,128
 365 0246 0810     		addi	a0,sp,32
 366              	.LVL29:
 367 0248 97000000 		call	HAL_Snprintf
 367      E7800000 
 368              	.LVL30:
 152:C:/Users/stapi/OneDrive/Desktop/GD32VW553/V1_MQTT_OK/GD32VW55X_Wifi_BLE_SDK/GD32VW55x_RELEASE_V1.0.2/MSDK/cloud/alicloud/src/services/ota/prot\ota_mqtt.c ****                              OTA_MQTT_TOPIC_LEN,
 369              		.loc 1 152 17
 370 0250 0011     		addi	s0,sp,160
 371              	.LVL31:
 372 0252 37060000 		lui	a2,%hi(.LC20)
 373 0256 13060600 		addi	a2,a2,%lo(.LC20)
 374 025a 93050008 		li	a1,128
 375 025e 13070019 		li	a4,400
 376 0262 CA86     		mv	a3,s2
 377 0264 2285     		mv	a0,s0
 378 0266 97000000 		call	HAL_Snprintf
 378      E7800000 
 379              	.LVL32:
 157:C:/Users/stapi/OneDrive/Desktop/GD32VW553/V1_MQTT_OK/GD32VW55X_Wifi_BLE_SDK/GD32VW55x_RELEASE_V1.0.2/MSDK/cloud/alicloud/src/services/ota/prot\ota_mqtt.c ****                 message_info.payload = (void *)message;
 380              		.loc 1 157 17
 159:C:/Users/stapi/OneDrive/Desktop/GD32VW553/V1_MQTT_OK/GD32VW55X_Wifi_BLE_SDK/GD32VW55x_RELEASE_V1.0.2/MSDK/cloud/alicloud/src/services/ota/prot\ota_mqtt.c **** 
 381              		.loc 1 159 44 is_stmt 0
 382 026e 2285     		mv	a0,s0
 157:C:/Users/stapi/OneDrive/Desktop/GD32VW553/V1_MQTT_OK/GD32VW55X_Wifi_BLE_SDK/GD32VW55x_RELEASE_V1.0.2/MSDK/cloud/alicloud/src/services/ota/prot\ota_mqtt.c ****                 message_info.payload = (void *)message;
 383              		.loc 1 157 34
 384 0270 23070100 		sb	zero,14(sp)
 158:C:/Users/stapi/OneDrive/Desktop/GD32VW553/V1_MQTT_OK/GD32VW55X_Wifi_BLE_SDK/GD32VW55x_RELEASE_V1.0.2/MSDK/cloud/alicloud/src/services/ota/prot\ota_mqtt.c ****                 message_info.payload_len = strlen(message);
 385              		.loc 1 158 17 is_stmt 1
 158:C:/Users/stapi/OneDrive/Desktop/GD32VW553/V1_MQTT_OK/GD32VW55X_Wifi_BLE_SDK/GD32VW55x_RELEASE_V1.0.2/MSDK/cloud/alicloud/src/services/ota/prot\ota_mqtt.c ****                 message_info.payload_len = strlen(message);
 386              		.loc 1 158 38 is_stmt 0
 387 0274 22CE     		sw	s0,28(sp)
 159:C:/Users/stapi/OneDrive/Desktop/GD32VW553/V1_MQTT_OK/GD32VW55X_Wifi_BLE_SDK/GD32VW55x_RELEASE_V1.0.2/MSDK/cloud/alicloud/src/services/ota/prot\ota_mqtt.c **** 
 388              		.loc 1 159 17 is_stmt 1
 159:C:/Users/stapi/OneDrive/Desktop/GD32VW553/V1_MQTT_OK/GD32VW55X_Wifi_BLE_SDK/GD32VW55x_RELEASE_V1.0.2/MSDK/cloud/alicloud/src/services/ota/prot\ota_mqtt.c **** 
 389              		.loc 1 159 44 is_stmt 0
 390 0276 97000000 		call	strlen
 390      E7800000 
 391              	.LVL33:
 159:C:/Users/stapi/OneDrive/Desktop/GD32VW553/V1_MQTT_OK/GD32VW55X_Wifi_BLE_SDK/GD32VW55x_RELEASE_V1.0.2/MSDK/cloud/alicloud/src/services/ota/prot\ota_mqtt.c **** 
 392              		.loc 1 159 42
 393 027e 2ACA     		sw	a0,20(sp)
 161:C:/Users/stapi/OneDrive/Desktop/GD32VW553/V1_MQTT_OK/GD32VW55X_Wifi_BLE_SDK/GD32VW55x_RELEASE_V1.0.2/MSDK/cloud/alicloud/src/services/ota/prot\ota_mqtt.c ****                     OTA_LOG_ERROR("publish failed");
 394              		.loc 1 161 17 is_stmt 1
 161:C:/Users/stapi/OneDrive/Desktop/GD32VW553/V1_MQTT_OK/GD32VW55X_Wifi_BLE_SDK/GD32VW55x_RELEASE_V1.0.2/MSDK/cloud/alicloud/src/services/ota/prot\ota_mqtt.c ****                     OTA_LOG_ERROR("publish failed");
 395              		.loc 1 161 21 is_stmt 0
 396 0280 8840     		lw	a0,0(s1)
 397 0282 7000     		addi	a2,sp,12
 398 0284 0C10     		addi	a1,sp,32
 399 0286 97000000 		call	IOT_MQTT_Publish
 399      E7800000 
 400              	.LVL34:
 161:C:/Users/stapi/OneDrive/Desktop/GD32VW553/V1_MQTT_OK/GD32VW55X_Wifi_BLE_SDK/GD32VW55x_RELEASE_V1.0.2/MSDK/cloud/alicloud/src/services/ota/prot\ota_mqtt.c ****                     OTA_LOG_ERROR("publish failed");
 401              		.loc 1 161 20
 402 028e E35805E8 		bge	a0,zero,.L1
 162:C:/Users/stapi/OneDrive/Desktop/GD32VW553/V1_MQTT_OK/GD32VW55X_Wifi_BLE_SDK/GD32VW55x_RELEASE_V1.0.2/MSDK/cloud/alicloud/src/services/ota/prot\ota_mqtt.c ****                 }
 403              		.loc 1 162 21 is_stmt 1
 162:C:/Users/stapi/OneDrive/Desktop/GD32VW553/V1_MQTT_OK/GD32VW55X_Wifi_BLE_SDK/GD32VW55x_RELEASE_V1.0.2/MSDK/cloud/alicloud/src/services/ota/prot\ota_mqtt.c ****                 }
 404              		.loc 1 162 21
 405 0292 37050000 		lui	a0,%hi(.LC21)
 406 0296 13050500 		addi	a0,a0,%lo(.LC21)
 407 029a 97000000 		call	HAL_Printf
 407      E7800000 
 408              	.LVL35:
 162:C:/Users/stapi/OneDrive/Desktop/GD32VW553/V1_MQTT_OK/GD32VW55X_Wifi_BLE_SDK/GD32VW55x_RELEASE_V1.0.2/MSDK/cloud/alicloud/src/services/ota/prot\ota_mqtt.c ****                 }
 409              		.loc 1 162 21
 410 02a2 37050000 		lui	a0,%hi(.LC22)
 411 02a6 13050500 		addi	a0,a0,%lo(.LC22)
 412 02aa 97000000 		call	HAL_Printf
 412      E7800000 
 413              	.LVL36:
 162:C:/Users/stapi/OneDrive/Desktop/GD32VW553/V1_MQTT_OK/GD32VW55X_Wifi_BLE_SDK/GD32VW55x_RELEASE_V1.0.2/MSDK/cloud/alicloud/src/services/ota/prot\ota_mqtt.c ****                 }
 414              		.loc 1 162 21
 415 02b2 37050000 		lui	a0,%hi(.LC11)
 416 02b6 13050500 		addi	a0,a0,%lo(.LC11)
 417 02ba 97000000 		call	HAL_Printf
 417      E7800000 
 418              	.LVL37:
 162:C:/Users/stapi/OneDrive/Desktop/GD32VW553/V1_MQTT_OK/GD32VW55X_Wifi_BLE_SDK/GD32VW55x_RELEASE_V1.0.2/MSDK/cloud/alicloud/src/services/ota/prot\ota_mqtt.c ****                 }
 419              		.loc 1 162 21
 420              	.LBE6:
 421              		.loc 1 167 1 is_stmt 0
 422 02c2 B1BD     		j	.L1
 423              		.cfi_endproc
 424              	.LFE23:
 426              		.section	.rodata.ota_callback.str1.4,"aMS",@progbits,1
 427              		.align	2
 428              	.LC23:
 429 0000 496E2064 		.string	"In downloading state"
 429      6F776E6C 
 429      6F616469 
 429      6E672073 
 429      74617465 
 430 0015 000000   		.align	2
 431              	.LC24:
 432 0018 6D657373 		.string	"message"
 432      61676500 
 433              		.align	2
 434              	.LC25:
 435 0020 696E7661 		.string	"invalid json doc of OTA "
 435      6C696420 
 435      6A736F6E 
 435      20646F63 
 435      206F6620 
 436 0039 000000   		.align	2
 437              	.LC26:
 438 003c 6661696C 		.string	"fail state of json doc of OTA"
 438      20737461 
 438      7465206F 
 438      66206A73 
 438      6F6E2064 
 439 005a 0000     		.align	2
 440              	.LC27:
 441 005c 73756363 		.string	"success"
 441      65737300 
 442              		.align	2
 443              	.LC28:
 444 0064 64617461 		.string	"data"
 444      00
 445 0069 000000   		.align	2
 446              	.LC29:
 447 006c 4E6F7420 		.string	"Not 'data' key in json doc of OTA"
 447      27646174 
 447      6127206B 
 447      65792069 
 447      6E206A73 
 448 008e 0000     		.align	2
 449              	.LC30:
 450 0090 47657420 		.string	"Get config parameter failed"
 450      636F6E66 
 450      69672070 
 450      6172616D 
 450      65746572 
 451              		.align	2
 452              	.LC31:
 453 00ac 496E6974 		.string	"Initialize fetch module failed"
 453      69616C69 
 453      7A652066 
 453      65746368 
 453      206D6F64 
 454 00cb 00       		.align	2
 455              	.LC32:
 456 00cc 636F6465 		.string	"code"
 456      00
 457 00d1 000000   		.align	2
 458              	.LC33:
 459 00d4 32303000 		.string	"200"
 460              		.align	2
 461              	.LC34:
 462 00d8 47657420 		.string	"Get firmware parameter failed"
 462      6669726D 
 462      77617265 
 462      20706172 
 462      616D6574 
 463 00f6 0000     		.align	2
 464              	.LC35:
 465 00f8 70617261 		.string	"params"
 465      6D7300
 466              		.section	.text.ota_callback,"ax",@progbits
 467              		.align	1
 469              	ota_callback:
 470              	.LFB33:
 471              		.file 2 "C:/Users/stapi/OneDrive/Desktop/GD32VW553/V1_MQTT_OK/GD32VW55X_Wifi_BLE_SDK/GD32VW55x_REL
   1:C:/Users/stapi/OneDrive/Desktop/GD32VW553/V1_MQTT_OK/GD32VW55X_Wifi_BLE_SDK/GD32VW55x_RELEASE_V1.0.2/MSDK/cloud/alicloud/src/services/ota\iotx_ota.c **** /*
   2:C:/Users/stapi/OneDrive/Desktop/GD32VW553/V1_MQTT_OK/GD32VW55X_Wifi_BLE_SDK/GD32VW55x_RELEASE_V1.0.2/MSDK/cloud/alicloud/src/services/ota\iotx_ota.c ****  * Copyright (C) 2015-2018 Alibaba Group Holding Limited
   3:C:/Users/stapi/OneDrive/Desktop/GD32VW553/V1_MQTT_OK/GD32VW55X_Wifi_BLE_SDK/GD32VW55x_RELEASE_V1.0.2/MSDK/cloud/alicloud/src/services/ota\iotx_ota.c ****  */
   4:C:/Users/stapi/OneDrive/Desktop/GD32VW553/V1_MQTT_OK/GD32VW55X_Wifi_BLE_SDK/GD32VW55x_RELEASE_V1.0.2/MSDK/cloud/alicloud/src/services/ota\iotx_ota.c **** 
   5:C:/Users/stapi/OneDrive/Desktop/GD32VW553/V1_MQTT_OK/GD32VW55X_Wifi_BLE_SDK/GD32VW55x_RELEASE_V1.0.2/MSDK/cloud/alicloud/src/services/ota\iotx_ota.c **** #include "iotx_ota_internal.h"
   6:C:/Users/stapi/OneDrive/Desktop/GD32VW553/V1_MQTT_OK/GD32VW55X_Wifi_BLE_SDK/GD32VW55x_RELEASE_V1.0.2/MSDK/cloud/alicloud/src/services/ota\iotx_ota.c **** #include "iot_import_product.h"
   7:C:/Users/stapi/OneDrive/Desktop/GD32VW553/V1_MQTT_OK/GD32VW55X_Wifi_BLE_SDK/GD32VW55x_RELEASE_V1.0.2/MSDK/cloud/alicloud/src/services/ota\iotx_ota.c **** #include "iot_export.h"
   8:C:/Users/stapi/OneDrive/Desktop/GD32VW553/V1_MQTT_OK/GD32VW55X_Wifi_BLE_SDK/GD32VW55x_RELEASE_V1.0.2/MSDK/cloud/alicloud/src/services/ota\iotx_ota.c **** 
   9:C:/Users/stapi/OneDrive/Desktop/GD32VW553/V1_MQTT_OK/GD32VW55X_Wifi_BLE_SDK/GD32VW55x_RELEASE_V1.0.2/MSDK/cloud/alicloud/src/services/ota\iotx_ota.c **** #if (OTA_SIGNAL_CHANNEL) == 1
  10:C:/Users/stapi/OneDrive/Desktop/GD32VW553/V1_MQTT_OK/GD32VW55X_Wifi_BLE_SDK/GD32VW55x_RELEASE_V1.0.2/MSDK/cloud/alicloud/src/services/ota\iotx_ota.c ****     #include "prot/ota_mqtt.c"
  11:C:/Users/stapi/OneDrive/Desktop/GD32VW553/V1_MQTT_OK/GD32VW55X_Wifi_BLE_SDK/GD32VW55x_RELEASE_V1.0.2/MSDK/cloud/alicloud/src/services/ota\iotx_ota.c **** #elif (OTA_SIGNAL_CHANNEL) == 2
  12:C:/Users/stapi/OneDrive/Desktop/GD32VW553/V1_MQTT_OK/GD32VW55X_Wifi_BLE_SDK/GD32VW55x_RELEASE_V1.0.2/MSDK/cloud/alicloud/src/services/ota\iotx_ota.c ****     #include "prot/ota_coap.c"
  13:C:/Users/stapi/OneDrive/Desktop/GD32VW553/V1_MQTT_OK/GD32VW55X_Wifi_BLE_SDK/GD32VW55x_RELEASE_V1.0.2/MSDK/cloud/alicloud/src/services/ota\iotx_ota.c **** #else
  14:C:/Users/stapi/OneDrive/Desktop/GD32VW553/V1_MQTT_OK/GD32VW55X_Wifi_BLE_SDK/GD32VW55x_RELEASE_V1.0.2/MSDK/cloud/alicloud/src/services/ota\iotx_ota.c ****     #error "NOT support yet!"
  15:C:/Users/stapi/OneDrive/Desktop/GD32VW553/V1_MQTT_OK/GD32VW55X_Wifi_BLE_SDK/GD32VW55x_RELEASE_V1.0.2/MSDK/cloud/alicloud/src/services/ota\iotx_ota.c **** #endif
  16:C:/Users/stapi/OneDrive/Desktop/GD32VW553/V1_MQTT_OK/GD32VW55X_Wifi_BLE_SDK/GD32VW55x_RELEASE_V1.0.2/MSDK/cloud/alicloud/src/services/ota\iotx_ota.c **** 
  17:C:/Users/stapi/OneDrive/Desktop/GD32VW553/V1_MQTT_OK/GD32VW55X_Wifi_BLE_SDK/GD32VW55x_RELEASE_V1.0.2/MSDK/cloud/alicloud/src/services/ota\iotx_ota.c **** #define OTA_API_MALLOC(size) LITE_malloc(size, MEM_MAGIC, "ota.api")
  18:C:/Users/stapi/OneDrive/Desktop/GD32VW553/V1_MQTT_OK/GD32VW55X_Wifi_BLE_SDK/GD32VW55x_RELEASE_V1.0.2/MSDK/cloud/alicloud/src/services/ota\iotx_ota.c **** #define OTA_API_FREE(ptr)    LITE_free(ptr)
  19:C:/Users/stapi/OneDrive/Desktop/GD32VW553/V1_MQTT_OK/GD32VW55X_Wifi_BLE_SDK/GD32VW55x_RELEASE_V1.0.2/MSDK/cloud/alicloud/src/services/ota\iotx_ota.c **** 
  20:C:/Users/stapi/OneDrive/Desktop/GD32VW553/V1_MQTT_OK/GD32VW55X_Wifi_BLE_SDK/GD32VW55x_RELEASE_V1.0.2/MSDK/cloud/alicloud/src/services/ota\iotx_ota.c **** typedef struct  {
  21:C:/Users/stapi/OneDrive/Desktop/GD32VW553/V1_MQTT_OK/GD32VW55X_Wifi_BLE_SDK/GD32VW55x_RELEASE_V1.0.2/MSDK/cloud/alicloud/src/services/ota\iotx_ota.c ****     const char *product_key;    /* point to product key */
  22:C:/Users/stapi/OneDrive/Desktop/GD32VW553/V1_MQTT_OK/GD32VW55X_Wifi_BLE_SDK/GD32VW55x_RELEASE_V1.0.2/MSDK/cloud/alicloud/src/services/ota\iotx_ota.c ****     const char *device_name;    /* point to device name */
  23:C:/Users/stapi/OneDrive/Desktop/GD32VW553/V1_MQTT_OK/GD32VW55X_Wifi_BLE_SDK/GD32VW55x_RELEASE_V1.0.2/MSDK/cloud/alicloud/src/services/ota\iotx_ota.c **** 
  24:C:/Users/stapi/OneDrive/Desktop/GD32VW553/V1_MQTT_OK/GD32VW55X_Wifi_BLE_SDK/GD32VW55x_RELEASE_V1.0.2/MSDK/cloud/alicloud/src/services/ota\iotx_ota.c ****     uint32_t id;                /* message id */
  25:C:/Users/stapi/OneDrive/Desktop/GD32VW553/V1_MQTT_OK/GD32VW55X_Wifi_BLE_SDK/GD32VW55x_RELEASE_V1.0.2/MSDK/cloud/alicloud/src/services/ota\iotx_ota.c ****     IOT_OTA_State_t state;      /* OTA state */
  26:C:/Users/stapi/OneDrive/Desktop/GD32VW553/V1_MQTT_OK/GD32VW55X_Wifi_BLE_SDK/GD32VW55x_RELEASE_V1.0.2/MSDK/cloud/alicloud/src/services/ota\iotx_ota.c ****     IOT_OTA_Type_t type;        /* OTA Type */
  27:C:/Users/stapi/OneDrive/Desktop/GD32VW553/V1_MQTT_OK/GD32VW55X_Wifi_BLE_SDK/GD32VW55x_RELEASE_V1.0.2/MSDK/cloud/alicloud/src/services/ota\iotx_ota.c ****     uint32_t size_last_fetched; /* size of last downloaded */
  28:C:/Users/stapi/OneDrive/Desktop/GD32VW553/V1_MQTT_OK/GD32VW55X_Wifi_BLE_SDK/GD32VW55x_RELEASE_V1.0.2/MSDK/cloud/alicloud/src/services/ota\iotx_ota.c ****     uint32_t size_fetched;      /* size of already downloaded */
  29:C:/Users/stapi/OneDrive/Desktop/GD32VW553/V1_MQTT_OK/GD32VW55X_Wifi_BLE_SDK/GD32VW55x_RELEASE_V1.0.2/MSDK/cloud/alicloud/src/services/ota\iotx_ota.c ****     uint32_t size_file;         /* size of file */
  30:C:/Users/stapi/OneDrive/Desktop/GD32VW553/V1_MQTT_OK/GD32VW55X_Wifi_BLE_SDK/GD32VW55x_RELEASE_V1.0.2/MSDK/cloud/alicloud/src/services/ota\iotx_ota.c ****     char *purl;                 /* point to URL */
  31:C:/Users/stapi/OneDrive/Desktop/GD32VW553/V1_MQTT_OK/GD32VW55X_Wifi_BLE_SDK/GD32VW55x_RELEASE_V1.0.2/MSDK/cloud/alicloud/src/services/ota\iotx_ota.c ****     char *version;              /* point to string */
  32:C:/Users/stapi/OneDrive/Desktop/GD32VW553/V1_MQTT_OK/GD32VW55X_Wifi_BLE_SDK/GD32VW55x_RELEASE_V1.0.2/MSDK/cloud/alicloud/src/services/ota\iotx_ota.c ****     char md5sum[33];            /* MD5 string */
  33:C:/Users/stapi/OneDrive/Desktop/GD32VW553/V1_MQTT_OK/GD32VW55X_Wifi_BLE_SDK/GD32VW55x_RELEASE_V1.0.2/MSDK/cloud/alicloud/src/services/ota\iotx_ota.c **** 
  34:C:/Users/stapi/OneDrive/Desktop/GD32VW553/V1_MQTT_OK/GD32VW55X_Wifi_BLE_SDK/GD32VW55x_RELEASE_V1.0.2/MSDK/cloud/alicloud/src/services/ota\iotx_ota.c ****     void *md5;                  /* MD5 handle */
  35:C:/Users/stapi/OneDrive/Desktop/GD32VW553/V1_MQTT_OK/GD32VW55X_Wifi_BLE_SDK/GD32VW55x_RELEASE_V1.0.2/MSDK/cloud/alicloud/src/services/ota\iotx_ota.c ****     void *sha256;               /* Sha256 handle */
  36:C:/Users/stapi/OneDrive/Desktop/GD32VW553/V1_MQTT_OK/GD32VW55X_Wifi_BLE_SDK/GD32VW55x_RELEASE_V1.0.2/MSDK/cloud/alicloud/src/services/ota\iotx_ota.c ****     void *ch_signal;            /* channel handle of signal exchanged with OTA server */
  37:C:/Users/stapi/OneDrive/Desktop/GD32VW553/V1_MQTT_OK/GD32VW55X_Wifi_BLE_SDK/GD32VW55x_RELEASE_V1.0.2/MSDK/cloud/alicloud/src/services/ota\iotx_ota.c ****     void *ch_fetch;             /* channel handle of download */
  38:C:/Users/stapi/OneDrive/Desktop/GD32VW553/V1_MQTT_OK/GD32VW55X_Wifi_BLE_SDK/GD32VW55x_RELEASE_V1.0.2/MSDK/cloud/alicloud/src/services/ota\iotx_ota.c **** 
  39:C:/Users/stapi/OneDrive/Desktop/GD32VW553/V1_MQTT_OK/GD32VW55X_Wifi_BLE_SDK/GD32VW55x_RELEASE_V1.0.2/MSDK/cloud/alicloud/src/services/ota\iotx_ota.c ****     /* cota */
  40:C:/Users/stapi/OneDrive/Desktop/GD32VW553/V1_MQTT_OK/GD32VW55X_Wifi_BLE_SDK/GD32VW55x_RELEASE_V1.0.2/MSDK/cloud/alicloud/src/services/ota\iotx_ota.c ****     char *configId;
  41:C:/Users/stapi/OneDrive/Desktop/GD32VW553/V1_MQTT_OK/GD32VW55X_Wifi_BLE_SDK/GD32VW55x_RELEASE_V1.0.2/MSDK/cloud/alicloud/src/services/ota\iotx_ota.c ****     uint32_t configSize;
  42:C:/Users/stapi/OneDrive/Desktop/GD32VW553/V1_MQTT_OK/GD32VW55X_Wifi_BLE_SDK/GD32VW55x_RELEASE_V1.0.2/MSDK/cloud/alicloud/src/services/ota\iotx_ota.c ****     char *sign;
  43:C:/Users/stapi/OneDrive/Desktop/GD32VW553/V1_MQTT_OK/GD32VW55X_Wifi_BLE_SDK/GD32VW55x_RELEASE_V1.0.2/MSDK/cloud/alicloud/src/services/ota\iotx_ota.c ****     char *signMethod;
  44:C:/Users/stapi/OneDrive/Desktop/GD32VW553/V1_MQTT_OK/GD32VW55X_Wifi_BLE_SDK/GD32VW55x_RELEASE_V1.0.2/MSDK/cloud/alicloud/src/services/ota\iotx_ota.c ****     char *cota_url;
  45:C:/Users/stapi/OneDrive/Desktop/GD32VW553/V1_MQTT_OK/GD32VW55X_Wifi_BLE_SDK/GD32VW55x_RELEASE_V1.0.2/MSDK/cloud/alicloud/src/services/ota\iotx_ota.c ****     char *getType;
  46:C:/Users/stapi/OneDrive/Desktop/GD32VW553/V1_MQTT_OK/GD32VW55X_Wifi_BLE_SDK/GD32VW55x_RELEASE_V1.0.2/MSDK/cloud/alicloud/src/services/ota\iotx_ota.c **** 
  47:C:/Users/stapi/OneDrive/Desktop/GD32VW553/V1_MQTT_OK/GD32VW55X_Wifi_BLE_SDK/GD32VW55x_RELEASE_V1.0.2/MSDK/cloud/alicloud/src/services/ota\iotx_ota.c ****     int err;                    /* last error code */
  48:C:/Users/stapi/OneDrive/Desktop/GD32VW553/V1_MQTT_OK/GD32VW55X_Wifi_BLE_SDK/GD32VW55x_RELEASE_V1.0.2/MSDK/cloud/alicloud/src/services/ota\iotx_ota.c **** 
  49:C:/Users/stapi/OneDrive/Desktop/GD32VW553/V1_MQTT_OK/GD32VW55X_Wifi_BLE_SDK/GD32VW55x_RELEASE_V1.0.2/MSDK/cloud/alicloud/src/services/ota\iotx_ota.c ****     ota_fetch_cb_fpt  fetch_cb;  /* fetch_callback */
  50:C:/Users/stapi/OneDrive/Desktop/GD32VW553/V1_MQTT_OK/GD32VW55X_Wifi_BLE_SDK/GD32VW55x_RELEASE_V1.0.2/MSDK/cloud/alicloud/src/services/ota\iotx_ota.c ****     void  *user_data;            /* fetch_callback's user_data */
  51:C:/Users/stapi/OneDrive/Desktop/GD32VW553/V1_MQTT_OK/GD32VW55X_Wifi_BLE_SDK/GD32VW55x_RELEASE_V1.0.2/MSDK/cloud/alicloud/src/services/ota\iotx_ota.c **** 
  52:C:/Users/stapi/OneDrive/Desktop/GD32VW553/V1_MQTT_OK/GD32VW55X_Wifi_BLE_SDK/GD32VW55x_RELEASE_V1.0.2/MSDK/cloud/alicloud/src/services/ota\iotx_ota.c ****     cota_fetch_cb_fpt fetch_cota_cb;
  53:C:/Users/stapi/OneDrive/Desktop/GD32VW553/V1_MQTT_OK/GD32VW55X_Wifi_BLE_SDK/GD32VW55x_RELEASE_V1.0.2/MSDK/cloud/alicloud/src/services/ota\iotx_ota.c ****     void  *cota_user_data;
  54:C:/Users/stapi/OneDrive/Desktop/GD32VW553/V1_MQTT_OK/GD32VW55X_Wifi_BLE_SDK/GD32VW55x_RELEASE_V1.0.2/MSDK/cloud/alicloud/src/services/ota\iotx_ota.c **** 
  55:C:/Users/stapi/OneDrive/Desktop/GD32VW553/V1_MQTT_OK/GD32VW55X_Wifi_BLE_SDK/GD32VW55x_RELEASE_V1.0.2/MSDK/cloud/alicloud/src/services/ota\iotx_ota.c **** } OTA_Struct_t, *OTA_Struct_pt;
  56:C:/Users/stapi/OneDrive/Desktop/GD32VW553/V1_MQTT_OK/GD32VW55X_Wifi_BLE_SDK/GD32VW55x_RELEASE_V1.0.2/MSDK/cloud/alicloud/src/services/ota\iotx_ota.c **** 
  57:C:/Users/stapi/OneDrive/Desktop/GD32VW553/V1_MQTT_OK/GD32VW55X_Wifi_BLE_SDK/GD32VW55x_RELEASE_V1.0.2/MSDK/cloud/alicloud/src/services/ota\iotx_ota.c **** 
  58:C:/Users/stapi/OneDrive/Desktop/GD32VW553/V1_MQTT_OK/GD32VW55X_Wifi_BLE_SDK/GD32VW55x_RELEASE_V1.0.2/MSDK/cloud/alicloud/src/services/ota\iotx_ota.c **** /* check whether the progress state is valid or not */
  59:C:/Users/stapi/OneDrive/Desktop/GD32VW553/V1_MQTT_OK/GD32VW55X_Wifi_BLE_SDK/GD32VW55x_RELEASE_V1.0.2/MSDK/cloud/alicloud/src/services/ota\iotx_ota.c **** /* return: true, valid progress state; false, invalid progress state. */
  60:C:/Users/stapi/OneDrive/Desktop/GD32VW553/V1_MQTT_OK/GD32VW55X_Wifi_BLE_SDK/GD32VW55x_RELEASE_V1.0.2/MSDK/cloud/alicloud/src/services/ota\iotx_ota.c **** static int ota_check_progress(IOT_OTA_Progress_t progress)
  61:C:/Users/stapi/OneDrive/Desktop/GD32VW553/V1_MQTT_OK/GD32VW55X_Wifi_BLE_SDK/GD32VW55x_RELEASE_V1.0.2/MSDK/cloud/alicloud/src/services/ota\iotx_ota.c **** {
  62:C:/Users/stapi/OneDrive/Desktop/GD32VW553/V1_MQTT_OK/GD32VW55X_Wifi_BLE_SDK/GD32VW55x_RELEASE_V1.0.2/MSDK/cloud/alicloud/src/services/ota\iotx_ota.c ****     return ((progress >= IOT_OTAP_BURN_FAILED)
  63:C:/Users/stapi/OneDrive/Desktop/GD32VW553/V1_MQTT_OK/GD32VW55X_Wifi_BLE_SDK/GD32VW55x_RELEASE_V1.0.2/MSDK/cloud/alicloud/src/services/ota\iotx_ota.c ****             && (progress <= IOT_OTAP_FETCH_PERCENTAGE_MAX));
  64:C:/Users/stapi/OneDrive/Desktop/GD32VW553/V1_MQTT_OK/GD32VW55X_Wifi_BLE_SDK/GD32VW55x_RELEASE_V1.0.2/MSDK/cloud/alicloud/src/services/ota\iotx_ota.c **** }
  65:C:/Users/stapi/OneDrive/Desktop/GD32VW553/V1_MQTT_OK/GD32VW55X_Wifi_BLE_SDK/GD32VW55x_RELEASE_V1.0.2/MSDK/cloud/alicloud/src/services/ota\iotx_ota.c **** 
  66:C:/Users/stapi/OneDrive/Desktop/GD32VW553/V1_MQTT_OK/GD32VW55X_Wifi_BLE_SDK/GD32VW55x_RELEASE_V1.0.2/MSDK/cloud/alicloud/src/services/ota\iotx_ota.c **** 
  67:C:/Users/stapi/OneDrive/Desktop/GD32VW553/V1_MQTT_OK/GD32VW55X_Wifi_BLE_SDK/GD32VW55x_RELEASE_V1.0.2/MSDK/cloud/alicloud/src/services/ota\iotx_ota.c **** int iotx_ota_set_fetch_callback(void *pt, ota_fetch_cb_fpt fetch_cb, void *user_data)
  68:C:/Users/stapi/OneDrive/Desktop/GD32VW553/V1_MQTT_OK/GD32VW55X_Wifi_BLE_SDK/GD32VW55x_RELEASE_V1.0.2/MSDK/cloud/alicloud/src/services/ota\iotx_ota.c **** {
  69:C:/Users/stapi/OneDrive/Desktop/GD32VW553/V1_MQTT_OK/GD32VW55X_Wifi_BLE_SDK/GD32VW55x_RELEASE_V1.0.2/MSDK/cloud/alicloud/src/services/ota\iotx_ota.c ****     OTA_Struct_pt ota_pt = (OTA_Struct_pt)pt;
  70:C:/Users/stapi/OneDrive/Desktop/GD32VW553/V1_MQTT_OK/GD32VW55X_Wifi_BLE_SDK/GD32VW55x_RELEASE_V1.0.2/MSDK/cloud/alicloud/src/services/ota\iotx_ota.c **** 
  71:C:/Users/stapi/OneDrive/Desktop/GD32VW553/V1_MQTT_OK/GD32VW55X_Wifi_BLE_SDK/GD32VW55x_RELEASE_V1.0.2/MSDK/cloud/alicloud/src/services/ota\iotx_ota.c ****     if (NULL == ota_pt || NULL == fetch_cb) {
  72:C:/Users/stapi/OneDrive/Desktop/GD32VW553/V1_MQTT_OK/GD32VW55X_Wifi_BLE_SDK/GD32VW55x_RELEASE_V1.0.2/MSDK/cloud/alicloud/src/services/ota\iotx_ota.c ****         return -1;
  73:C:/Users/stapi/OneDrive/Desktop/GD32VW553/V1_MQTT_OK/GD32VW55X_Wifi_BLE_SDK/GD32VW55x_RELEASE_V1.0.2/MSDK/cloud/alicloud/src/services/ota\iotx_ota.c ****     }
  74:C:/Users/stapi/OneDrive/Desktop/GD32VW553/V1_MQTT_OK/GD32VW55X_Wifi_BLE_SDK/GD32VW55x_RELEASE_V1.0.2/MSDK/cloud/alicloud/src/services/ota\iotx_ota.c **** 
  75:C:/Users/stapi/OneDrive/Desktop/GD32VW553/V1_MQTT_OK/GD32VW55X_Wifi_BLE_SDK/GD32VW55x_RELEASE_V1.0.2/MSDK/cloud/alicloud/src/services/ota\iotx_ota.c ****     ota_pt->fetch_cb = fetch_cb;
  76:C:/Users/stapi/OneDrive/Desktop/GD32VW553/V1_MQTT_OK/GD32VW55X_Wifi_BLE_SDK/GD32VW55x_RELEASE_V1.0.2/MSDK/cloud/alicloud/src/services/ota\iotx_ota.c ****     ota_pt->user_data = user_data;
  77:C:/Users/stapi/OneDrive/Desktop/GD32VW553/V1_MQTT_OK/GD32VW55X_Wifi_BLE_SDK/GD32VW55x_RELEASE_V1.0.2/MSDK/cloud/alicloud/src/services/ota\iotx_ota.c ****     return 0;
  78:C:/Users/stapi/OneDrive/Desktop/GD32VW553/V1_MQTT_OK/GD32VW55X_Wifi_BLE_SDK/GD32VW55x_RELEASE_V1.0.2/MSDK/cloud/alicloud/src/services/ota\iotx_ota.c **** }
  79:C:/Users/stapi/OneDrive/Desktop/GD32VW553/V1_MQTT_OK/GD32VW55X_Wifi_BLE_SDK/GD32VW55x_RELEASE_V1.0.2/MSDK/cloud/alicloud/src/services/ota\iotx_ota.c **** 
  80:C:/Users/stapi/OneDrive/Desktop/GD32VW553/V1_MQTT_OK/GD32VW55X_Wifi_BLE_SDK/GD32VW55x_RELEASE_V1.0.2/MSDK/cloud/alicloud/src/services/ota\iotx_ota.c **** 
  81:C:/Users/stapi/OneDrive/Desktop/GD32VW553/V1_MQTT_OK/GD32VW55X_Wifi_BLE_SDK/GD32VW55x_RELEASE_V1.0.2/MSDK/cloud/alicloud/src/services/ota\iotx_ota.c **** int iotx_ota_set_cota_fetch_callback(void *pt, cota_fetch_cb_fpt fetch_cb, void *user_data)
  82:C:/Users/stapi/OneDrive/Desktop/GD32VW553/V1_MQTT_OK/GD32VW55X_Wifi_BLE_SDK/GD32VW55x_RELEASE_V1.0.2/MSDK/cloud/alicloud/src/services/ota\iotx_ota.c **** {
  83:C:/Users/stapi/OneDrive/Desktop/GD32VW553/V1_MQTT_OK/GD32VW55X_Wifi_BLE_SDK/GD32VW55x_RELEASE_V1.0.2/MSDK/cloud/alicloud/src/services/ota\iotx_ota.c ****     OTA_Struct_pt ota_pt = (OTA_Struct_pt)pt;
  84:C:/Users/stapi/OneDrive/Desktop/GD32VW553/V1_MQTT_OK/GD32VW55X_Wifi_BLE_SDK/GD32VW55x_RELEASE_V1.0.2/MSDK/cloud/alicloud/src/services/ota\iotx_ota.c **** 
  85:C:/Users/stapi/OneDrive/Desktop/GD32VW553/V1_MQTT_OK/GD32VW55X_Wifi_BLE_SDK/GD32VW55x_RELEASE_V1.0.2/MSDK/cloud/alicloud/src/services/ota\iotx_ota.c ****     if (NULL == ota_pt || NULL == fetch_cb) {
  86:C:/Users/stapi/OneDrive/Desktop/GD32VW553/V1_MQTT_OK/GD32VW55X_Wifi_BLE_SDK/GD32VW55x_RELEASE_V1.0.2/MSDK/cloud/alicloud/src/services/ota\iotx_ota.c ****         return -1;
  87:C:/Users/stapi/OneDrive/Desktop/GD32VW553/V1_MQTT_OK/GD32VW55X_Wifi_BLE_SDK/GD32VW55x_RELEASE_V1.0.2/MSDK/cloud/alicloud/src/services/ota\iotx_ota.c ****     }
  88:C:/Users/stapi/OneDrive/Desktop/GD32VW553/V1_MQTT_OK/GD32VW55X_Wifi_BLE_SDK/GD32VW55x_RELEASE_V1.0.2/MSDK/cloud/alicloud/src/services/ota\iotx_ota.c **** 
  89:C:/Users/stapi/OneDrive/Desktop/GD32VW553/V1_MQTT_OK/GD32VW55X_Wifi_BLE_SDK/GD32VW55x_RELEASE_V1.0.2/MSDK/cloud/alicloud/src/services/ota\iotx_ota.c ****     ota_pt->fetch_cota_cb = fetch_cb;
  90:C:/Users/stapi/OneDrive/Desktop/GD32VW553/V1_MQTT_OK/GD32VW55X_Wifi_BLE_SDK/GD32VW55x_RELEASE_V1.0.2/MSDK/cloud/alicloud/src/services/ota\iotx_ota.c ****     ota_pt->cota_user_data = user_data;
  91:C:/Users/stapi/OneDrive/Desktop/GD32VW553/V1_MQTT_OK/GD32VW55X_Wifi_BLE_SDK/GD32VW55x_RELEASE_V1.0.2/MSDK/cloud/alicloud/src/services/ota\iotx_ota.c ****     return 0;
  92:C:/Users/stapi/OneDrive/Desktop/GD32VW553/V1_MQTT_OK/GD32VW55X_Wifi_BLE_SDK/GD32VW55x_RELEASE_V1.0.2/MSDK/cloud/alicloud/src/services/ota\iotx_ota.c **** }
  93:C:/Users/stapi/OneDrive/Desktop/GD32VW553/V1_MQTT_OK/GD32VW55X_Wifi_BLE_SDK/GD32VW55x_RELEASE_V1.0.2/MSDK/cloud/alicloud/src/services/ota\iotx_ota.c **** 
  94:C:/Users/stapi/OneDrive/Desktop/GD32VW553/V1_MQTT_OK/GD32VW55X_Wifi_BLE_SDK/GD32VW55x_RELEASE_V1.0.2/MSDK/cloud/alicloud/src/services/ota\iotx_ota.c **** #ifdef DEV_OFFLINE_OTA_ENABLE
  95:C:/Users/stapi/OneDrive/Desktop/GD32VW553/V1_MQTT_OK/GD32VW55X_Wifi_BLE_SDK/GD32VW55x_RELEASE_V1.0.2/MSDK/cloud/alicloud/src/services/ota\iotx_ota.c **** static int offline_ota_upgrade_cb(void* pctx, char *json)
  96:C:/Users/stapi/OneDrive/Desktop/GD32VW553/V1_MQTT_OK/GD32VW55X_Wifi_BLE_SDK/GD32VW55x_RELEASE_V1.0.2/MSDK/cloud/alicloud/src/services/ota\iotx_ota.c **** {
  97:C:/Users/stapi/OneDrive/Desktop/GD32VW553/V1_MQTT_OK/GD32VW55X_Wifi_BLE_SDK/GD32VW55x_RELEASE_V1.0.2/MSDK/cloud/alicloud/src/services/ota\iotx_ota.c ****     /*
  98:C:/Users/stapi/OneDrive/Desktop/GD32VW553/V1_MQTT_OK/GD32VW55X_Wifi_BLE_SDK/GD32VW55x_RELEASE_V1.0.2/MSDK/cloud/alicloud/src/services/ota\iotx_ota.c ****     format req's json
  99:C:/Users/stapi/OneDrive/Desktop/GD32VW553/V1_MQTT_OK/GD32VW55X_Wifi_BLE_SDK/GD32VW55x_RELEASE_V1.0.2/MSDK/cloud/alicloud/src/services/ota\iotx_ota.c ****     start dl ota_thread_create
 100:C:/Users/stapi/OneDrive/Desktop/GD32VW553/V1_MQTT_OK/GD32VW55X_Wifi_BLE_SDK/GD32VW55x_RELEASE_V1.0.2/MSDK/cloud/alicloud/src/services/ota\iotx_ota.c ****     return ota_upgrade_cb(pctx,json);
 101:C:/Users/stapi/OneDrive/Desktop/GD32VW553/V1_MQTT_OK/GD32VW55X_Wifi_BLE_SDK/GD32VW55x_RELEASE_V1.0.2/MSDK/cloud/alicloud/src/services/ota\iotx_ota.c ****     send resp
 102:C:/Users/stapi/OneDrive/Desktop/GD32VW553/V1_MQTT_OK/GD32VW55X_Wifi_BLE_SDK/GD32VW55x_RELEASE_V1.0.2/MSDK/cloud/alicloud/src/services/ota\iotx_ota.c ****     */
 103:C:/Users/stapi/OneDrive/Desktop/GD32VW553/V1_MQTT_OK/GD32VW55X_Wifi_BLE_SDK/GD32VW55x_RELEASE_V1.0.2/MSDK/cloud/alicloud/src/services/ota\iotx_ota.c **** 
 104:C:/Users/stapi/OneDrive/Desktop/GD32VW553/V1_MQTT_OK/GD32VW55X_Wifi_BLE_SDK/GD32VW55x_RELEASE_V1.0.2/MSDK/cloud/alicloud/src/services/ota\iotx_ota.c ****     OTA_Struct_pt h_ota = (OTA_Struct_pt)pctx;
 105:C:/Users/stapi/OneDrive/Desktop/GD32VW553/V1_MQTT_OK/GD32VW55X_Wifi_BLE_SDK/GD32VW55x_RELEASE_V1.0.2/MSDK/cloud/alicloud/src/services/ota\iotx_ota.c ****     const char *msg = json;
 106:C:/Users/stapi/OneDrive/Desktop/GD32VW553/V1_MQTT_OK/GD32VW55X_Wifi_BLE_SDK/GD32VW55x_RELEASE_V1.0.2/MSDK/cloud/alicloud/src/services/ota\iotx_ota.c ****     uint32_t msg_len = strlen(json);
 107:C:/Users/stapi/OneDrive/Desktop/GD32VW553/V1_MQTT_OK/GD32VW55X_Wifi_BLE_SDK/GD32VW55x_RELEASE_V1.0.2/MSDK/cloud/alicloud/src/services/ota\iotx_ota.c **** 
 108:C:/Users/stapi/OneDrive/Desktop/GD32VW553/V1_MQTT_OK/GD32VW55X_Wifi_BLE_SDK/GD32VW55x_RELEASE_V1.0.2/MSDK/cloud/alicloud/src/services/ota\iotx_ota.c ****     const char *pvalue;
 109:C:/Users/stapi/OneDrive/Desktop/GD32VW553/V1_MQTT_OK/GD32VW55X_Wifi_BLE_SDK/GD32VW55x_RELEASE_V1.0.2/MSDK/cloud/alicloud/src/services/ota\iotx_ota.c ****     uint32_t val_len;
 110:C:/Users/stapi/OneDrive/Desktop/GD32VW553/V1_MQTT_OK/GD32VW55X_Wifi_BLE_SDK/GD32VW55x_RELEASE_V1.0.2/MSDK/cloud/alicloud/src/services/ota\iotx_ota.c ****     int is_ota = 0;
 111:C:/Users/stapi/OneDrive/Desktop/GD32VW553/V1_MQTT_OK/GD32VW55X_Wifi_BLE_SDK/GD32VW55x_RELEASE_V1.0.2/MSDK/cloud/alicloud/src/services/ota\iotx_ota.c ****     int ret_offline_ota = DEV_OFFLINE_OTA_RSP_INVALID_PARAM;
 112:C:/Users/stapi/OneDrive/Desktop/GD32VW553/V1_MQTT_OK/GD32VW55X_Wifi_BLE_SDK/GD32VW55x_RELEASE_V1.0.2/MSDK/cloud/alicloud/src/services/ota\iotx_ota.c **** 
 113:C:/Users/stapi/OneDrive/Desktop/GD32VW553/V1_MQTT_OK/GD32VW55X_Wifi_BLE_SDK/GD32VW55x_RELEASE_V1.0.2/MSDK/cloud/alicloud/src/services/ota\iotx_ota.c ****     if (h_ota->state == IOT_OTAS_FETCHING) {
 114:C:/Users/stapi/OneDrive/Desktop/GD32VW553/V1_MQTT_OK/GD32VW55X_Wifi_BLE_SDK/GD32VW55x_RELEASE_V1.0.2/MSDK/cloud/alicloud/src/services/ota\iotx_ota.c ****         OTA_LOG_INFO("In downloading state");
 115:C:/Users/stapi/OneDrive/Desktop/GD32VW553/V1_MQTT_OK/GD32VW55X_Wifi_BLE_SDK/GD32VW55x_RELEASE_V1.0.2/MSDK/cloud/alicloud/src/services/ota\iotx_ota.c ****         return ret_offline_ota;
 116:C:/Users/stapi/OneDrive/Desktop/GD32VW553/V1_MQTT_OK/GD32VW55X_Wifi_BLE_SDK/GD32VW55x_RELEASE_V1.0.2/MSDK/cloud/alicloud/src/services/ota\iotx_ota.c ****     }
 117:C:/Users/stapi/OneDrive/Desktop/GD32VW553/V1_MQTT_OK/GD32VW55X_Wifi_BLE_SDK/GD32VW55x_RELEASE_V1.0.2/MSDK/cloud/alicloud/src/services/ota\iotx_ota.c **** 
 118:C:/Users/stapi/OneDrive/Desktop/GD32VW553/V1_MQTT_OK/GD32VW55X_Wifi_BLE_SDK/GD32VW55x_RELEASE_V1.0.2/MSDK/cloud/alicloud/src/services/ota\iotx_ota.c ****     #if 0
 119:C:/Users/stapi/OneDrive/Desktop/GD32VW553/V1_MQTT_OK/GD32VW55X_Wifi_BLE_SDK/GD32VW55x_RELEASE_V1.0.2/MSDK/cloud/alicloud/src/services/ota\iotx_ota.c ****     pvalue = otalib_JsonValueOf(msg, msg_len, "method", &val_len);
 120:C:/Users/stapi/OneDrive/Desktop/GD32VW553/V1_MQTT_OK/GD32VW55X_Wifi_BLE_SDK/GD32VW55x_RELEASE_V1.0.2/MSDK/cloud/alicloud/src/services/ota\iotx_ota.c ****     if (NULL == pvalue) {
 121:C:/Users/stapi/OneDrive/Desktop/GD32VW553/V1_MQTT_OK/GD32VW55X_Wifi_BLE_SDK/GD32VW55x_RELEASE_V1.0.2/MSDK/cloud/alicloud/src/services/ota\iotx_ota.c ****         OTA_LOG_ERROR("invalid json doc of OTA ");
 122:C:/Users/stapi/OneDrive/Desktop/GD32VW553/V1_MQTT_OK/GD32VW55X_Wifi_BLE_SDK/GD32VW55x_RELEASE_V1.0.2/MSDK/cloud/alicloud/src/services/ota\iotx_ota.c ****         return ret_offline_ota;
 123:C:/Users/stapi/OneDrive/Desktop/GD32VW553/V1_MQTT_OK/GD32VW55X_Wifi_BLE_SDK/GD32VW55x_RELEASE_V1.0.2/MSDK/cloud/alicloud/src/services/ota\iotx_ota.c ****     }
 124:C:/Users/stapi/OneDrive/Desktop/GD32VW553/V1_MQTT_OK/GD32VW55X_Wifi_BLE_SDK/GD32VW55x_RELEASE_V1.0.2/MSDK/cloud/alicloud/src/services/ota\iotx_ota.c **** 
 125:C:/Users/stapi/OneDrive/Desktop/GD32VW553/V1_MQTT_OK/GD32VW55X_Wifi_BLE_SDK/GD32VW55x_RELEASE_V1.0.2/MSDK/cloud/alicloud/src/services/ota\iotx_ota.c ****     /* check whether is positive message */
 126:C:/Users/stapi/OneDrive/Desktop/GD32VW553/V1_MQTT_OK/GD32VW55X_Wifi_BLE_SDK/GD32VW55x_RELEASE_V1.0.2/MSDK/cloud/alicloud/src/services/ota\iotx_ota.c ****     char* method_value = "ota.local.start";
 127:C:/Users/stapi/OneDrive/Desktop/GD32VW553/V1_MQTT_OK/GD32VW55X_Wifi_BLE_SDK/GD32VW55x_RELEASE_V1.0.2/MSDK/cloud/alicloud/src/services/ota\iotx_ota.c ****     if (!((strlen(method_value) == val_len) && (0 == strncmp(pvalue, method_value, val_len)))) {
 128:C:/Users/stapi/OneDrive/Desktop/GD32VW553/V1_MQTT_OK/GD32VW55X_Wifi_BLE_SDK/GD32VW55x_RELEASE_V1.0.2/MSDK/cloud/alicloud/src/services/ota\iotx_ota.c ****         OTA_LOG_ERROR("fail state of json doc of OTA");
 129:C:/Users/stapi/OneDrive/Desktop/GD32VW553/V1_MQTT_OK/GD32VW55X_Wifi_BLE_SDK/GD32VW55x_RELEASE_V1.0.2/MSDK/cloud/alicloud/src/services/ota\iotx_ota.c ****         return ret_offline_ota;
 130:C:/Users/stapi/OneDrive/Desktop/GD32VW553/V1_MQTT_OK/GD32VW55X_Wifi_BLE_SDK/GD32VW55x_RELEASE_V1.0.2/MSDK/cloud/alicloud/src/services/ota\iotx_ota.c ****     }
 131:C:/Users/stapi/OneDrive/Desktop/GD32VW553/V1_MQTT_OK/GD32VW55X_Wifi_BLE_SDK/GD32VW55x_RELEASE_V1.0.2/MSDK/cloud/alicloud/src/services/ota\iotx_ota.c ****     #endif
 132:C:/Users/stapi/OneDrive/Desktop/GD32VW553/V1_MQTT_OK/GD32VW55X_Wifi_BLE_SDK/GD32VW55x_RELEASE_V1.0.2/MSDK/cloud/alicloud/src/services/ota\iotx_ota.c **** 
 133:C:/Users/stapi/OneDrive/Desktop/GD32VW553/V1_MQTT_OK/GD32VW55X_Wifi_BLE_SDK/GD32VW55x_RELEASE_V1.0.2/MSDK/cloud/alicloud/src/services/ota\iotx_ota.c ****     /* get value of 'params' key */
 134:C:/Users/stapi/OneDrive/Desktop/GD32VW553/V1_MQTT_OK/GD32VW55X_Wifi_BLE_SDK/GD32VW55x_RELEASE_V1.0.2/MSDK/cloud/alicloud/src/services/ota\iotx_ota.c ****     pvalue = otalib_JsonValueOf(msg, msg_len, "params", &val_len);
 135:C:/Users/stapi/OneDrive/Desktop/GD32VW553/V1_MQTT_OK/GD32VW55X_Wifi_BLE_SDK/GD32VW55x_RELEASE_V1.0.2/MSDK/cloud/alicloud/src/services/ota\iotx_ota.c ****     if (NULL == pvalue) {
 136:C:/Users/stapi/OneDrive/Desktop/GD32VW553/V1_MQTT_OK/GD32VW55X_Wifi_BLE_SDK/GD32VW55x_RELEASE_V1.0.2/MSDK/cloud/alicloud/src/services/ota\iotx_ota.c ****         OTA_LOG_ERROR("Not 'params' key in json doc of OTA");
 137:C:/Users/stapi/OneDrive/Desktop/GD32VW553/V1_MQTT_OK/GD32VW55X_Wifi_BLE_SDK/GD32VW55x_RELEASE_V1.0.2/MSDK/cloud/alicloud/src/services/ota\iotx_ota.c ****         return ret_offline_ota;
 138:C:/Users/stapi/OneDrive/Desktop/GD32VW553/V1_MQTT_OK/GD32VW55X_Wifi_BLE_SDK/GD32VW55x_RELEASE_V1.0.2/MSDK/cloud/alicloud/src/services/ota\iotx_ota.c ****     }
 139:C:/Users/stapi/OneDrive/Desktop/GD32VW553/V1_MQTT_OK/GD32VW55X_Wifi_BLE_SDK/GD32VW55x_RELEASE_V1.0.2/MSDK/cloud/alicloud/src/services/ota\iotx_ota.c **** 
 140:C:/Users/stapi/OneDrive/Desktop/GD32VW553/V1_MQTT_OK/GD32VW55X_Wifi_BLE_SDK/GD32VW55x_RELEASE_V1.0.2/MSDK/cloud/alicloud/src/services/ota\iotx_ota.c **** #ifdef DEV_OFFLINE_SECURE_OTA_ENABLE
 141:C:/Users/stapi/OneDrive/Desktop/GD32VW553/V1_MQTT_OK/GD32VW55X_Wifi_BLE_SDK/GD32VW55x_RELEASE_V1.0.2/MSDK/cloud/alicloud/src/services/ota\iotx_ota.c ****     /*OTA sever must open secure OTA option*/
 142:C:/Users/stapi/OneDrive/Desktop/GD32VW553/V1_MQTT_OK/GD32VW55X_Wifi_BLE_SDK/GD32VW55x_RELEASE_V1.0.2/MSDK/cloud/alicloud/src/services/ota\iotx_ota.c ****     pvalue = otalib_JsonValueOf(msg, msg_len, "digestsign", &val_len);
 143:C:/Users/stapi/OneDrive/Desktop/GD32VW553/V1_MQTT_OK/GD32VW55X_Wifi_BLE_SDK/GD32VW55x_RELEASE_V1.0.2/MSDK/cloud/alicloud/src/services/ota\iotx_ota.c ****     if (NULL == pvalue) {
 144:C:/Users/stapi/OneDrive/Desktop/GD32VW553/V1_MQTT_OK/GD32VW55X_Wifi_BLE_SDK/GD32VW55x_RELEASE_V1.0.2/MSDK/cloud/alicloud/src/services/ota\iotx_ota.c ****         OTA_LOG_ERROR("Not 'digestsign' key in json doc of OTA");
 145:C:/Users/stapi/OneDrive/Desktop/GD32VW553/V1_MQTT_OK/GD32VW55X_Wifi_BLE_SDK/GD32VW55x_RELEASE_V1.0.2/MSDK/cloud/alicloud/src/services/ota\iotx_ota.c ****         return ret_offline_ota;
 146:C:/Users/stapi/OneDrive/Desktop/GD32VW553/V1_MQTT_OK/GD32VW55X_Wifi_BLE_SDK/GD32VW55x_RELEASE_V1.0.2/MSDK/cloud/alicloud/src/services/ota\iotx_ota.c ****     }
 147:C:/Users/stapi/OneDrive/Desktop/GD32VW553/V1_MQTT_OK/GD32VW55X_Wifi_BLE_SDK/GD32VW55x_RELEASE_V1.0.2/MSDK/cloud/alicloud/src/services/ota\iotx_ota.c **** #endif
 148:C:/Users/stapi/OneDrive/Desktop/GD32VW553/V1_MQTT_OK/GD32VW55X_Wifi_BLE_SDK/GD32VW55x_RELEASE_V1.0.2/MSDK/cloud/alicloud/src/services/ota\iotx_ota.c **** 
 149:C:/Users/stapi/OneDrive/Desktop/GD32VW553/V1_MQTT_OK/GD32VW55X_Wifi_BLE_SDK/GD32VW55x_RELEASE_V1.0.2/MSDK/cloud/alicloud/src/services/ota\iotx_ota.c ****     if (0 != otalib_GetParams(pvalue, val_len, &h_ota->purl, &h_ota->version, h_ota->md5sum, &h_ota
 150:C:/Users/stapi/OneDrive/Desktop/GD32VW553/V1_MQTT_OK/GD32VW55X_Wifi_BLE_SDK/GD32VW55x_RELEASE_V1.0.2/MSDK/cloud/alicloud/src/services/ota\iotx_ota.c ****         OTA_LOG_ERROR("Get config parameter failed");
 151:C:/Users/stapi/OneDrive/Desktop/GD32VW553/V1_MQTT_OK/GD32VW55X_Wifi_BLE_SDK/GD32VW55x_RELEASE_V1.0.2/MSDK/cloud/alicloud/src/services/ota\iotx_ota.c ****         return ret_offline_ota;
 152:C:/Users/stapi/OneDrive/Desktop/GD32VW553/V1_MQTT_OK/GD32VW55X_Wifi_BLE_SDK/GD32VW55x_RELEASE_V1.0.2/MSDK/cloud/alicloud/src/services/ota\iotx_ota.c ****     }
 153:C:/Users/stapi/OneDrive/Desktop/GD32VW553/V1_MQTT_OK/GD32VW55X_Wifi_BLE_SDK/GD32VW55x_RELEASE_V1.0.2/MSDK/cloud/alicloud/src/services/ota\iotx_ota.c **** 
 154:C:/Users/stapi/OneDrive/Desktop/GD32VW553/V1_MQTT_OK/GD32VW55X_Wifi_BLE_SDK/GD32VW55x_RELEASE_V1.0.2/MSDK/cloud/alicloud/src/services/ota\iotx_ota.c ****     if (NULL == (h_ota->ch_fetch = ofc_Init(h_ota->purl))) {
 155:C:/Users/stapi/OneDrive/Desktop/GD32VW553/V1_MQTT_OK/GD32VW55X_Wifi_BLE_SDK/GD32VW55x_RELEASE_V1.0.2/MSDK/cloud/alicloud/src/services/ota\iotx_ota.c ****         OTA_LOG_ERROR("Initialize fetch module failed");
 156:C:/Users/stapi/OneDrive/Desktop/GD32VW553/V1_MQTT_OK/GD32VW55X_Wifi_BLE_SDK/GD32VW55x_RELEASE_V1.0.2/MSDK/cloud/alicloud/src/services/ota\iotx_ota.c ****         return ret_offline_ota;
 157:C:/Users/stapi/OneDrive/Desktop/GD32VW553/V1_MQTT_OK/GD32VW55X_Wifi_BLE_SDK/GD32VW55x_RELEASE_V1.0.2/MSDK/cloud/alicloud/src/services/ota\iotx_ota.c ****     }
 158:C:/Users/stapi/OneDrive/Desktop/GD32VW553/V1_MQTT_OK/GD32VW55X_Wifi_BLE_SDK/GD32VW55x_RELEASE_V1.0.2/MSDK/cloud/alicloud/src/services/ota\iotx_ota.c **** 
 159:C:/Users/stapi/OneDrive/Desktop/GD32VW553/V1_MQTT_OK/GD32VW55X_Wifi_BLE_SDK/GD32VW55x_RELEASE_V1.0.2/MSDK/cloud/alicloud/src/services/ota\iotx_ota.c ****     char version[FIRMWARE_VERSION_MAXLEN] = {0};
 160:C:/Users/stapi/OneDrive/Desktop/GD32VW553/V1_MQTT_OK/GD32VW55X_Wifi_BLE_SDK/GD32VW55x_RELEASE_V1.0.2/MSDK/cloud/alicloud/src/services/ota\iotx_ota.c ****     HAL_GetFirmwareVersion(version);
 161:C:/Users/stapi/OneDrive/Desktop/GD32VW553/V1_MQTT_OK/GD32VW55X_Wifi_BLE_SDK/GD32VW55x_RELEASE_V1.0.2/MSDK/cloud/alicloud/src/services/ota\iotx_ota.c **** 
 162:C:/Users/stapi/OneDrive/Desktop/GD32VW553/V1_MQTT_OK/GD32VW55X_Wifi_BLE_SDK/GD32VW55x_RELEASE_V1.0.2/MSDK/cloud/alicloud/src/services/ota\iotx_ota.c ****     is_ota = strncmp(h_ota->version,version,strlen(h_ota->version));
 163:C:/Users/stapi/OneDrive/Desktop/GD32VW553/V1_MQTT_OK/GD32VW55X_Wifi_BLE_SDK/GD32VW55x_RELEASE_V1.0.2/MSDK/cloud/alicloud/src/services/ota\iotx_ota.c ****     if(is_ota > 0) {
 164:C:/Users/stapi/OneDrive/Desktop/GD32VW553/V1_MQTT_OK/GD32VW55X_Wifi_BLE_SDK/GD32VW55x_RELEASE_V1.0.2/MSDK/cloud/alicloud/src/services/ota\iotx_ota.c ****         h_ota->type = IOT_OTAT_FOTA_OFFLINE;
 165:C:/Users/stapi/OneDrive/Desktop/GD32VW553/V1_MQTT_OK/GD32VW55X_Wifi_BLE_SDK/GD32VW55x_RELEASE_V1.0.2/MSDK/cloud/alicloud/src/services/ota\iotx_ota.c ****         h_ota->state = IOT_OTAS_FETCHING;
 166:C:/Users/stapi/OneDrive/Desktop/GD32VW553/V1_MQTT_OK/GD32VW55X_Wifi_BLE_SDK/GD32VW55x_RELEASE_V1.0.2/MSDK/cloud/alicloud/src/services/ota\iotx_ota.c ****         ret_offline_ota = DEV_OFFLINE_OTA_RSP_OK;
 167:C:/Users/stapi/OneDrive/Desktop/GD32VW553/V1_MQTT_OK/GD32VW55X_Wifi_BLE_SDK/GD32VW55x_RELEASE_V1.0.2/MSDK/cloud/alicloud/src/services/ota\iotx_ota.c **** 
 168:C:/Users/stapi/OneDrive/Desktop/GD32VW553/V1_MQTT_OK/GD32VW55X_Wifi_BLE_SDK/GD32VW55x_RELEASE_V1.0.2/MSDK/cloud/alicloud/src/services/ota\iotx_ota.c ****         if (h_ota->fetch_cb) {
 169:C:/Users/stapi/OneDrive/Desktop/GD32VW553/V1_MQTT_OK/GD32VW55X_Wifi_BLE_SDK/GD32VW55x_RELEASE_V1.0.2/MSDK/cloud/alicloud/src/services/ota\iotx_ota.c ****             h_ota->fetch_cb(h_ota->user_data, 0, h_ota->size_file, h_ota->purl, h_ota->version);
 170:C:/Users/stapi/OneDrive/Desktop/GD32VW553/V1_MQTT_OK/GD32VW55X_Wifi_BLE_SDK/GD32VW55x_RELEASE_V1.0.2/MSDK/cloud/alicloud/src/services/ota\iotx_ota.c ****         }
 171:C:/Users/stapi/OneDrive/Desktop/GD32VW553/V1_MQTT_OK/GD32VW55X_Wifi_BLE_SDK/GD32VW55x_RELEASE_V1.0.2/MSDK/cloud/alicloud/src/services/ota\iotx_ota.c ****     } else {
 172:C:/Users/stapi/OneDrive/Desktop/GD32VW553/V1_MQTT_OK/GD32VW55X_Wifi_BLE_SDK/GD32VW55x_RELEASE_V1.0.2/MSDK/cloud/alicloud/src/services/ota\iotx_ota.c ****         ret_offline_ota = DEV_OFFLINE_OTA_RSP_SAME_VERSION;
 173:C:/Users/stapi/OneDrive/Desktop/GD32VW553/V1_MQTT_OK/GD32VW55X_Wifi_BLE_SDK/GD32VW55x_RELEASE_V1.0.2/MSDK/cloud/alicloud/src/services/ota\iotx_ota.c ****     }
 174:C:/Users/stapi/OneDrive/Desktop/GD32VW553/V1_MQTT_OK/GD32VW55X_Wifi_BLE_SDK/GD32VW55x_RELEASE_V1.0.2/MSDK/cloud/alicloud/src/services/ota\iotx_ota.c ****     return ret_offline_ota;
 175:C:/Users/stapi/OneDrive/Desktop/GD32VW553/V1_MQTT_OK/GD32VW55X_Wifi_BLE_SDK/GD32VW55x_RELEASE_V1.0.2/MSDK/cloud/alicloud/src/services/ota\iotx_ota.c **** }
 176:C:/Users/stapi/OneDrive/Desktop/GD32VW553/V1_MQTT_OK/GD32VW55X_Wifi_BLE_SDK/GD32VW55x_RELEASE_V1.0.2/MSDK/cloud/alicloud/src/services/ota\iotx_ota.c **** #endif
 177:C:/Users/stapi/OneDrive/Desktop/GD32VW553/V1_MQTT_OK/GD32VW55X_Wifi_BLE_SDK/GD32VW55x_RELEASE_V1.0.2/MSDK/cloud/alicloud/src/services/ota\iotx_ota.c **** 
 178:C:/Users/stapi/OneDrive/Desktop/GD32VW553/V1_MQTT_OK/GD32VW55X_Wifi_BLE_SDK/GD32VW55x_RELEASE_V1.0.2/MSDK/cloud/alicloud/src/services/ota\iotx_ota.c **** static int ota_callback(void *pcontext, const char *msg, uint32_t msg_len, iotx_ota_topic_types_t t
 179:C:/Users/stapi/OneDrive/Desktop/GD32VW553/V1_MQTT_OK/GD32VW55X_Wifi_BLE_SDK/GD32VW55x_RELEASE_V1.0.2/MSDK/cloud/alicloud/src/services/ota\iotx_ota.c **** {
 472              		.loc 2 179 1 is_stmt 1
 473              		.cfi_startproc
 474              	.LVL38:
 475 0000 17030000 		call	t0,__riscv_save_4
 475      E7020300 
 476              		.cfi_offset 19, -20
 477              		.cfi_offset 18, -16
 478              		.cfi_offset 9, -12
 479              		.cfi_offset 8, -8
 480              		.cfi_offset 1, -4
 481              		.cfi_def_cfa_offset 32
 180:C:/Users/stapi/OneDrive/Desktop/GD32VW553/V1_MQTT_OK/GD32VW55X_Wifi_BLE_SDK/GD32VW55x_RELEASE_V1.0.2/MSDK/cloud/alicloud/src/services/ota\iotx_ota.c ****     const char *pvalue;
 482              		.loc 2 180 5
 181:C:/Users/stapi/OneDrive/Desktop/GD32VW553/V1_MQTT_OK/GD32VW55X_Wifi_BLE_SDK/GD32VW55x_RELEASE_V1.0.2/MSDK/cloud/alicloud/src/services/ota\iotx_ota.c ****     uint32_t val_len;
 483              		.loc 2 181 5
 182:C:/Users/stapi/OneDrive/Desktop/GD32VW553/V1_MQTT_OK/GD32VW55X_Wifi_BLE_SDK/GD32VW55x_RELEASE_V1.0.2/MSDK/cloud/alicloud/src/services/ota\iotx_ota.c **** 
 183:C:/Users/stapi/OneDrive/Desktop/GD32VW553/V1_MQTT_OK/GD32VW55X_Wifi_BLE_SDK/GD32VW55x_RELEASE_V1.0.2/MSDK/cloud/alicloud/src/services/ota\iotx_ota.c ****     OTA_Struct_pt h_ota = (OTA_Struct_pt) pcontext;
 484              		.loc 2 183 5
 485              	.LVL39:
 184:C:/Users/stapi/OneDrive/Desktop/GD32VW553/V1_MQTT_OK/GD32VW55X_Wifi_BLE_SDK/GD32VW55x_RELEASE_V1.0.2/MSDK/cloud/alicloud/src/services/ota\iotx_ota.c **** 
 185:C:/Users/stapi/OneDrive/Desktop/GD32VW553/V1_MQTT_OK/GD32VW55X_Wifi_BLE_SDK/GD32VW55x_RELEASE_V1.0.2/MSDK/cloud/alicloud/src/services/ota\iotx_ota.c ****     if (h_ota->state == IOT_OTAS_FETCHING) {
 486              		.loc 2 185 5
 487              		.loc 2 185 8 is_stmt 0
 488 0008 5845     		lw	a4,12(a0)
 489 000a 8947     		li	a5,2
 179:C:/Users/stapi/OneDrive/Desktop/GD32VW553/V1_MQTT_OK/GD32VW55X_Wifi_BLE_SDK/GD32VW55x_RELEASE_V1.0.2/MSDK/cloud/alicloud/src/services/ota\iotx_ota.c ****     const char *pvalue;
 490              		.loc 2 179 1
 491 000c 4111     		addi	sp,sp,-16
 492              		.cfi_def_cfa_offset 48
 493              		.loc 2 185 8
 494 000e 631BF702 		bne	a4,a5,.L31
 186:C:/Users/stapi/OneDrive/Desktop/GD32VW553/V1_MQTT_OK/GD32VW55X_Wifi_BLE_SDK/GD32VW55x_RELEASE_V1.0.2/MSDK/cloud/alicloud/src/services/ota\iotx_ota.c ****         OTA_LOG_INFO("In downloading state");
 495              		.loc 2 186 9 is_stmt 1
 496              		.loc 2 186 9
 497 0012 37050000 		lui	a0,%hi(.LC9)
 498              	.LVL40:
 499 0016 13050500 		addi	a0,a0,%lo(.LC9)
 500 001a 97000000 		call	HAL_Printf
 500      E7800000 
 501              	.LVL41:
 502              		.loc 2 186 9
 503 0022 37050000 		lui	a0,%hi(.LC23)
 504 0026 13050500 		addi	a0,a0,%lo(.LC23)
 505              	.L93:
 187:C:/Users/stapi/OneDrive/Desktop/GD32VW553/V1_MQTT_OK/GD32VW55X_Wifi_BLE_SDK/GD32VW55x_RELEASE_V1.0.2/MSDK/cloud/alicloud/src/services/ota\iotx_ota.c ****         return -1;
 188:C:/Users/stapi/OneDrive/Desktop/GD32VW553/V1_MQTT_OK/GD32VW55X_Wifi_BLE_SDK/GD32VW55x_RELEASE_V1.0.2/MSDK/cloud/alicloud/src/services/ota\iotx_ota.c ****     }
 189:C:/Users/stapi/OneDrive/Desktop/GD32VW553/V1_MQTT_OK/GD32VW55X_Wifi_BLE_SDK/GD32VW55x_RELEASE_V1.0.2/MSDK/cloud/alicloud/src/services/ota\iotx_ota.c **** 
 190:C:/Users/stapi/OneDrive/Desktop/GD32VW553/V1_MQTT_OK/GD32VW55X_Wifi_BLE_SDK/GD32VW55x_RELEASE_V1.0.2/MSDK/cloud/alicloud/src/services/ota\iotx_ota.c ****     switch (type) {
 191:C:/Users/stapi/OneDrive/Desktop/GD32VW553/V1_MQTT_OK/GD32VW55X_Wifi_BLE_SDK/GD32VW55x_RELEASE_V1.0.2/MSDK/cloud/alicloud/src/services/ota\iotx_ota.c ****         case IOTX_OTA_TOPIC_TYPE_DEVICE_REQUEST:
 192:C:/Users/stapi/OneDrive/Desktop/GD32VW553/V1_MQTT_OK/GD32VW55X_Wifi_BLE_SDK/GD32VW55x_RELEASE_V1.0.2/MSDK/cloud/alicloud/src/services/ota\iotx_ota.c ****         case IOTX_OTA_TOPIC_TYPE_DEVICE_UPGRATE: {
 193:C:/Users/stapi/OneDrive/Desktop/GD32VW553/V1_MQTT_OK/GD32VW55X_Wifi_BLE_SDK/GD32VW55x_RELEASE_V1.0.2/MSDK/cloud/alicloud/src/services/ota\iotx_ota.c ****             pvalue = otalib_JsonValueOf(msg, msg_len, "message", &val_len);
 194:C:/Users/stapi/OneDrive/Desktop/GD32VW553/V1_MQTT_OK/GD32VW55X_Wifi_BLE_SDK/GD32VW55x_RELEASE_V1.0.2/MSDK/cloud/alicloud/src/services/ota\iotx_ota.c ****             if (NULL == pvalue) {
 195:C:/Users/stapi/OneDrive/Desktop/GD32VW553/V1_MQTT_OK/GD32VW55X_Wifi_BLE_SDK/GD32VW55x_RELEASE_V1.0.2/MSDK/cloud/alicloud/src/services/ota\iotx_ota.c ****                 OTA_LOG_ERROR("invalid json doc of OTA ");
 196:C:/Users/stapi/OneDrive/Desktop/GD32VW553/V1_MQTT_OK/GD32VW55X_Wifi_BLE_SDK/GD32VW55x_RELEASE_V1.0.2/MSDK/cloud/alicloud/src/services/ota\iotx_ota.c ****                 return -1;
 197:C:/Users/stapi/OneDrive/Desktop/GD32VW553/V1_MQTT_OK/GD32VW55X_Wifi_BLE_SDK/GD32VW55x_RELEASE_V1.0.2/MSDK/cloud/alicloud/src/services/ota\iotx_ota.c ****             }
 198:C:/Users/stapi/OneDrive/Desktop/GD32VW553/V1_MQTT_OK/GD32VW55X_Wifi_BLE_SDK/GD32VW55x_RELEASE_V1.0.2/MSDK/cloud/alicloud/src/services/ota\iotx_ota.c **** 
 199:C:/Users/stapi/OneDrive/Desktop/GD32VW553/V1_MQTT_OK/GD32VW55X_Wifi_BLE_SDK/GD32VW55x_RELEASE_V1.0.2/MSDK/cloud/alicloud/src/services/ota\iotx_ota.c ****             /* check whether is positive message */
 200:C:/Users/stapi/OneDrive/Desktop/GD32VW553/V1_MQTT_OK/GD32VW55X_Wifi_BLE_SDK/GD32VW55x_RELEASE_V1.0.2/MSDK/cloud/alicloud/src/services/ota\iotx_ota.c ****             if (!((strlen("success") == val_len) && (0 == strncmp(pvalue, "success", val_len)))) {
 201:C:/Users/stapi/OneDrive/Desktop/GD32VW553/V1_MQTT_OK/GD32VW55X_Wifi_BLE_SDK/GD32VW55x_RELEASE_V1.0.2/MSDK/cloud/alicloud/src/services/ota\iotx_ota.c ****                 OTA_LOG_ERROR("fail state of json doc of OTA");
 202:C:/Users/stapi/OneDrive/Desktop/GD32VW553/V1_MQTT_OK/GD32VW55X_Wifi_BLE_SDK/GD32VW55x_RELEASE_V1.0.2/MSDK/cloud/alicloud/src/services/ota\iotx_ota.c ****                 return -1;
 203:C:/Users/stapi/OneDrive/Desktop/GD32VW553/V1_MQTT_OK/GD32VW55X_Wifi_BLE_SDK/GD32VW55x_RELEASE_V1.0.2/MSDK/cloud/alicloud/src/services/ota\iotx_ota.c ****             }
 204:C:/Users/stapi/OneDrive/Desktop/GD32VW553/V1_MQTT_OK/GD32VW55X_Wifi_BLE_SDK/GD32VW55x_RELEASE_V1.0.2/MSDK/cloud/alicloud/src/services/ota\iotx_ota.c **** 
 205:C:/Users/stapi/OneDrive/Desktop/GD32VW553/V1_MQTT_OK/GD32VW55X_Wifi_BLE_SDK/GD32VW55x_RELEASE_V1.0.2/MSDK/cloud/alicloud/src/services/ota\iotx_ota.c ****             /* get value of 'data' key */
 206:C:/Users/stapi/OneDrive/Desktop/GD32VW553/V1_MQTT_OK/GD32VW55X_Wifi_BLE_SDK/GD32VW55x_RELEASE_V1.0.2/MSDK/cloud/alicloud/src/services/ota\iotx_ota.c ****             pvalue = otalib_JsonValueOf(msg, msg_len, "data", &val_len);
 207:C:/Users/stapi/OneDrive/Desktop/GD32VW553/V1_MQTT_OK/GD32VW55X_Wifi_BLE_SDK/GD32VW55x_RELEASE_V1.0.2/MSDK/cloud/alicloud/src/services/ota\iotx_ota.c ****             if (NULL == pvalue) {
 208:C:/Users/stapi/OneDrive/Desktop/GD32VW553/V1_MQTT_OK/GD32VW55X_Wifi_BLE_SDK/GD32VW55x_RELEASE_V1.0.2/MSDK/cloud/alicloud/src/services/ota\iotx_ota.c ****                 OTA_LOG_ERROR("Not 'data' key in json doc of OTA");
 209:C:/Users/stapi/OneDrive/Desktop/GD32VW553/V1_MQTT_OK/GD32VW55X_Wifi_BLE_SDK/GD32VW55x_RELEASE_V1.0.2/MSDK/cloud/alicloud/src/services/ota\iotx_ota.c ****                 return -1;
 210:C:/Users/stapi/OneDrive/Desktop/GD32VW553/V1_MQTT_OK/GD32VW55X_Wifi_BLE_SDK/GD32VW55x_RELEASE_V1.0.2/MSDK/cloud/alicloud/src/services/ota\iotx_ota.c ****             }
 211:C:/Users/stapi/OneDrive/Desktop/GD32VW553/V1_MQTT_OK/GD32VW55X_Wifi_BLE_SDK/GD32VW55x_RELEASE_V1.0.2/MSDK/cloud/alicloud/src/services/ota\iotx_ota.c **** 
 212:C:/Users/stapi/OneDrive/Desktop/GD32VW553/V1_MQTT_OK/GD32VW55X_Wifi_BLE_SDK/GD32VW55x_RELEASE_V1.0.2/MSDK/cloud/alicloud/src/services/ota\iotx_ota.c ****             if (0 != otalib_GetParams(pvalue, val_len, &h_ota->purl, &h_ota->version, h_ota->md5sum
 213:C:/Users/stapi/OneDrive/Desktop/GD32VW553/V1_MQTT_OK/GD32VW55X_Wifi_BLE_SDK/GD32VW55x_RELEASE_V1.0.2/MSDK/cloud/alicloud/src/services/ota\iotx_ota.c ****                 OTA_LOG_ERROR("Get config parameter failed");
 214:C:/Users/stapi/OneDrive/Desktop/GD32VW553/V1_MQTT_OK/GD32VW55X_Wifi_BLE_SDK/GD32VW55x_RELEASE_V1.0.2/MSDK/cloud/alicloud/src/services/ota\iotx_ota.c ****                 return -1;
 215:C:/Users/stapi/OneDrive/Desktop/GD32VW553/V1_MQTT_OK/GD32VW55X_Wifi_BLE_SDK/GD32VW55x_RELEASE_V1.0.2/MSDK/cloud/alicloud/src/services/ota\iotx_ota.c ****             }
 216:C:/Users/stapi/OneDrive/Desktop/GD32VW553/V1_MQTT_OK/GD32VW55X_Wifi_BLE_SDK/GD32VW55x_RELEASE_V1.0.2/MSDK/cloud/alicloud/src/services/ota\iotx_ota.c **** 
 217:C:/Users/stapi/OneDrive/Desktop/GD32VW553/V1_MQTT_OK/GD32VW55X_Wifi_BLE_SDK/GD32VW55x_RELEASE_V1.0.2/MSDK/cloud/alicloud/src/services/ota\iotx_ota.c ****             if (NULL == (h_ota->ch_fetch = ofc_Init(h_ota->purl))) {
 218:C:/Users/stapi/OneDrive/Desktop/GD32VW553/V1_MQTT_OK/GD32VW55X_Wifi_BLE_SDK/GD32VW55x_RELEASE_V1.0.2/MSDK/cloud/alicloud/src/services/ota\iotx_ota.c ****                 OTA_LOG_ERROR("Initialize fetch module failed");
 219:C:/Users/stapi/OneDrive/Desktop/GD32VW553/V1_MQTT_OK/GD32VW55X_Wifi_BLE_SDK/GD32VW55x_RELEASE_V1.0.2/MSDK/cloud/alicloud/src/services/ota\iotx_ota.c ****                 return -1;
 220:C:/Users/stapi/OneDrive/Desktop/GD32VW553/V1_MQTT_OK/GD32VW55X_Wifi_BLE_SDK/GD32VW55x_RELEASE_V1.0.2/MSDK/cloud/alicloud/src/services/ota\iotx_ota.c ****             }
 221:C:/Users/stapi/OneDrive/Desktop/GD32VW553/V1_MQTT_OK/GD32VW55X_Wifi_BLE_SDK/GD32VW55x_RELEASE_V1.0.2/MSDK/cloud/alicloud/src/services/ota\iotx_ota.c **** 
 222:C:/Users/stapi/OneDrive/Desktop/GD32VW553/V1_MQTT_OK/GD32VW55X_Wifi_BLE_SDK/GD32VW55x_RELEASE_V1.0.2/MSDK/cloud/alicloud/src/services/ota\iotx_ota.c ****             h_ota->type = IOT_OTAT_FOTA;
 223:C:/Users/stapi/OneDrive/Desktop/GD32VW553/V1_MQTT_OK/GD32VW55X_Wifi_BLE_SDK/GD32VW55x_RELEASE_V1.0.2/MSDK/cloud/alicloud/src/services/ota\iotx_ota.c ****             h_ota->state = IOT_OTAS_FETCHING;
 224:C:/Users/stapi/OneDrive/Desktop/GD32VW553/V1_MQTT_OK/GD32VW55X_Wifi_BLE_SDK/GD32VW55x_RELEASE_V1.0.2/MSDK/cloud/alicloud/src/services/ota\iotx_ota.c ****             if (h_ota->fetch_cb) {
 225:C:/Users/stapi/OneDrive/Desktop/GD32VW553/V1_MQTT_OK/GD32VW55X_Wifi_BLE_SDK/GD32VW55x_RELEASE_V1.0.2/MSDK/cloud/alicloud/src/services/ota\iotx_ota.c ****                 h_ota->fetch_cb(h_ota->user_data, 0, h_ota->size_file, h_ota->purl, h_ota->version)
 226:C:/Users/stapi/OneDrive/Desktop/GD32VW553/V1_MQTT_OK/GD32VW55X_Wifi_BLE_SDK/GD32VW55x_RELEASE_V1.0.2/MSDK/cloud/alicloud/src/services/ota\iotx_ota.c ****             }
 227:C:/Users/stapi/OneDrive/Desktop/GD32VW553/V1_MQTT_OK/GD32VW55X_Wifi_BLE_SDK/GD32VW55x_RELEASE_V1.0.2/MSDK/cloud/alicloud/src/services/ota\iotx_ota.c ****         }
 228:C:/Users/stapi/OneDrive/Desktop/GD32VW553/V1_MQTT_OK/GD32VW55X_Wifi_BLE_SDK/GD32VW55x_RELEASE_V1.0.2/MSDK/cloud/alicloud/src/services/ota\iotx_ota.c ****         break;
 229:C:/Users/stapi/OneDrive/Desktop/GD32VW553/V1_MQTT_OK/GD32VW55X_Wifi_BLE_SDK/GD32VW55x_RELEASE_V1.0.2/MSDK/cloud/alicloud/src/services/ota\iotx_ota.c **** 
 230:C:/Users/stapi/OneDrive/Desktop/GD32VW553/V1_MQTT_OK/GD32VW55X_Wifi_BLE_SDK/GD32VW55x_RELEASE_V1.0.2/MSDK/cloud/alicloud/src/services/ota\iotx_ota.c ****         case IOTX_OTA_TOPIC_TYPE_CONFIG_GET: {
 231:C:/Users/stapi/OneDrive/Desktop/GD32VW553/V1_MQTT_OK/GD32VW55X_Wifi_BLE_SDK/GD32VW55x_RELEASE_V1.0.2/MSDK/cloud/alicloud/src/services/ota\iotx_ota.c ****             pvalue = otalib_JsonValueOf(msg, msg_len, "code", &val_len);
 232:C:/Users/stapi/OneDrive/Desktop/GD32VW553/V1_MQTT_OK/GD32VW55X_Wifi_BLE_SDK/GD32VW55x_RELEASE_V1.0.2/MSDK/cloud/alicloud/src/services/ota\iotx_ota.c ****             if (NULL == pvalue) {
 233:C:/Users/stapi/OneDrive/Desktop/GD32VW553/V1_MQTT_OK/GD32VW55X_Wifi_BLE_SDK/GD32VW55x_RELEASE_V1.0.2/MSDK/cloud/alicloud/src/services/ota\iotx_ota.c ****                 OTA_LOG_ERROR("invalid json doc of OTA ");
 234:C:/Users/stapi/OneDrive/Desktop/GD32VW553/V1_MQTT_OK/GD32VW55X_Wifi_BLE_SDK/GD32VW55x_RELEASE_V1.0.2/MSDK/cloud/alicloud/src/services/ota\iotx_ota.c ****                 return -1;
 235:C:/Users/stapi/OneDrive/Desktop/GD32VW553/V1_MQTT_OK/GD32VW55X_Wifi_BLE_SDK/GD32VW55x_RELEASE_V1.0.2/MSDK/cloud/alicloud/src/services/ota\iotx_ota.c ****             }
 236:C:/Users/stapi/OneDrive/Desktop/GD32VW553/V1_MQTT_OK/GD32VW55X_Wifi_BLE_SDK/GD32VW55x_RELEASE_V1.0.2/MSDK/cloud/alicloud/src/services/ota\iotx_ota.c **** 
 237:C:/Users/stapi/OneDrive/Desktop/GD32VW553/V1_MQTT_OK/GD32VW55X_Wifi_BLE_SDK/GD32VW55x_RELEASE_V1.0.2/MSDK/cloud/alicloud/src/services/ota\iotx_ota.c ****             /* check whether is positive message */
 238:C:/Users/stapi/OneDrive/Desktop/GD32VW553/V1_MQTT_OK/GD32VW55X_Wifi_BLE_SDK/GD32VW55x_RELEASE_V1.0.2/MSDK/cloud/alicloud/src/services/ota\iotx_ota.c ****             if (!((strlen("200") == val_len) && (0 == strncmp(pvalue, "200", val_len)))) {
 239:C:/Users/stapi/OneDrive/Desktop/GD32VW553/V1_MQTT_OK/GD32VW55X_Wifi_BLE_SDK/GD32VW55x_RELEASE_V1.0.2/MSDK/cloud/alicloud/src/services/ota\iotx_ota.c ****                 OTA_LOG_ERROR("fail state of json doc of OTA");
 240:C:/Users/stapi/OneDrive/Desktop/GD32VW553/V1_MQTT_OK/GD32VW55X_Wifi_BLE_SDK/GD32VW55x_RELEASE_V1.0.2/MSDK/cloud/alicloud/src/services/ota\iotx_ota.c ****                 return -1;
 241:C:/Users/stapi/OneDrive/Desktop/GD32VW553/V1_MQTT_OK/GD32VW55X_Wifi_BLE_SDK/GD32VW55x_RELEASE_V1.0.2/MSDK/cloud/alicloud/src/services/ota\iotx_ota.c ****             }
 242:C:/Users/stapi/OneDrive/Desktop/GD32VW553/V1_MQTT_OK/GD32VW55X_Wifi_BLE_SDK/GD32VW55x_RELEASE_V1.0.2/MSDK/cloud/alicloud/src/services/ota\iotx_ota.c **** 
 243:C:/Users/stapi/OneDrive/Desktop/GD32VW553/V1_MQTT_OK/GD32VW55X_Wifi_BLE_SDK/GD32VW55x_RELEASE_V1.0.2/MSDK/cloud/alicloud/src/services/ota\iotx_ota.c ****             /* get value of 'data' key */
 244:C:/Users/stapi/OneDrive/Desktop/GD32VW553/V1_MQTT_OK/GD32VW55X_Wifi_BLE_SDK/GD32VW55x_RELEASE_V1.0.2/MSDK/cloud/alicloud/src/services/ota\iotx_ota.c ****             pvalue = otalib_JsonValueOf(msg, msg_len, "data", &val_len);
 245:C:/Users/stapi/OneDrive/Desktop/GD32VW553/V1_MQTT_OK/GD32VW55X_Wifi_BLE_SDK/GD32VW55x_RELEASE_V1.0.2/MSDK/cloud/alicloud/src/services/ota\iotx_ota.c ****             if (NULL == pvalue) {
 246:C:/Users/stapi/OneDrive/Desktop/GD32VW553/V1_MQTT_OK/GD32VW55X_Wifi_BLE_SDK/GD32VW55x_RELEASE_V1.0.2/MSDK/cloud/alicloud/src/services/ota\iotx_ota.c ****                 OTA_LOG_ERROR("Not 'data' key in json doc of OTA");
 247:C:/Users/stapi/OneDrive/Desktop/GD32VW553/V1_MQTT_OK/GD32VW55X_Wifi_BLE_SDK/GD32VW55x_RELEASE_V1.0.2/MSDK/cloud/alicloud/src/services/ota\iotx_ota.c ****                 return -1;
 248:C:/Users/stapi/OneDrive/Desktop/GD32VW553/V1_MQTT_OK/GD32VW55X_Wifi_BLE_SDK/GD32VW55x_RELEASE_V1.0.2/MSDK/cloud/alicloud/src/services/ota\iotx_ota.c ****             }
 249:C:/Users/stapi/OneDrive/Desktop/GD32VW553/V1_MQTT_OK/GD32VW55X_Wifi_BLE_SDK/GD32VW55x_RELEASE_V1.0.2/MSDK/cloud/alicloud/src/services/ota\iotx_ota.c **** 
 250:C:/Users/stapi/OneDrive/Desktop/GD32VW553/V1_MQTT_OK/GD32VW55X_Wifi_BLE_SDK/GD32VW55x_RELEASE_V1.0.2/MSDK/cloud/alicloud/src/services/ota\iotx_ota.c ****             if (0 != otalib_GetConfigParams(pvalue, val_len, &h_ota->configId, &h_ota->configSize,
 251:C:/Users/stapi/OneDrive/Desktop/GD32VW553/V1_MQTT_OK/GD32VW55X_Wifi_BLE_SDK/GD32VW55x_RELEASE_V1.0.2/MSDK/cloud/alicloud/src/services/ota\iotx_ota.c ****                                             &h_ota->sign, &h_ota->signMethod, &h_ota->cota_url, &h_
 252:C:/Users/stapi/OneDrive/Desktop/GD32VW553/V1_MQTT_OK/GD32VW55X_Wifi_BLE_SDK/GD32VW55x_RELEASE_V1.0.2/MSDK/cloud/alicloud/src/services/ota\iotx_ota.c ****                 OTA_LOG_ERROR("Get firmware parameter failed");
 506              		.loc 2 252 17 is_stmt 0
 507 002a 97000000 		call	HAL_Printf
 507      E7800000 
 508              	.LVL42:
 509              		.loc 2 252 17 is_stmt 1
 510 0032 37050000 		lui	a0,%hi(.LC11)
 511 0036 13050500 		addi	a0,a0,%lo(.LC11)
 512 003a 97000000 		call	HAL_Printf
 512      E7800000 
 513              	.LVL43:
 514 0042 05A8     		j	.L92
 515              	.LVL44:
 516              	.L31:
 190:C:/Users/stapi/OneDrive/Desktop/GD32VW553/V1_MQTT_OK/GD32VW55X_Wifi_BLE_SDK/GD32VW55x_RELEASE_V1.0.2/MSDK/cloud/alicloud/src/services/ota\iotx_ota.c ****         case IOTX_OTA_TOPIC_TYPE_DEVICE_REQUEST:
 517              		.loc 2 190 5 is_stmt 0
 518 0044 8D47     		li	a5,3
 519 0046 2A84     		mv	s0,a0
 520 0048 2E89     		mv	s2,a1
 521 004a B289     		mv	s3,a2
 522 004c B684     		mv	s1,a3
 190:C:/Users/stapi/OneDrive/Desktop/GD32VW553/V1_MQTT_OK/GD32VW55X_Wifi_BLE_SDK/GD32VW55x_RELEASE_V1.0.2/MSDK/cloud/alicloud/src/services/ota\iotx_ota.c ****         case IOTX_OTA_TOPIC_TYPE_DEVICE_REQUEST:
 523              		.loc 2 190 5 is_stmt 1
 524 004e 638FF612 		beq	a3,a5,.L33
 525              	.LVL45:
 526 0052 63EDD700 		bgtu	a3,a5,.L34
 527 0056 FD16     		addi	a3,a3,-1
 528 0058 8547     		li	a5,1
 529 005a FD54     		li	s1,-1
 530              	.LVL46:
 531 005c 63FDD700 		bleu	a3,a5,.L88
 532              	.LVL47:
 533              	.L30:
 253:C:/Users/stapi/OneDrive/Desktop/GD32VW553/V1_MQTT_OK/GD32VW55X_Wifi_BLE_SDK/GD32VW55x_RELEASE_V1.0.2/MSDK/cloud/alicloud/src/services/ota\iotx_ota.c ****                 return -1;
 254:C:/Users/stapi/OneDrive/Desktop/GD32VW553/V1_MQTT_OK/GD32VW55X_Wifi_BLE_SDK/GD32VW55x_RELEASE_V1.0.2/MSDK/cloud/alicloud/src/services/ota\iotx_ota.c ****             }
 255:C:/Users/stapi/OneDrive/Desktop/GD32VW553/V1_MQTT_OK/GD32VW55X_Wifi_BLE_SDK/GD32VW55x_RELEASE_V1.0.2/MSDK/cloud/alicloud/src/services/ota\iotx_ota.c **** 
 256:C:/Users/stapi/OneDrive/Desktop/GD32VW553/V1_MQTT_OK/GD32VW55X_Wifi_BLE_SDK/GD32VW55x_RELEASE_V1.0.2/MSDK/cloud/alicloud/src/services/ota\iotx_ota.c ****             h_ota->size_file = h_ota->configSize;
 257:C:/Users/stapi/OneDrive/Desktop/GD32VW553/V1_MQTT_OK/GD32VW55X_Wifi_BLE_SDK/GD32VW55x_RELEASE_V1.0.2/MSDK/cloud/alicloud/src/services/ota\iotx_ota.c ****             h_ota->size_fetched = 0;
 258:C:/Users/stapi/OneDrive/Desktop/GD32VW553/V1_MQTT_OK/GD32VW55X_Wifi_BLE_SDK/GD32VW55x_RELEASE_V1.0.2/MSDK/cloud/alicloud/src/services/ota\iotx_ota.c ****             if (NULL != h_ota->md5) {
 259:C:/Users/stapi/OneDrive/Desktop/GD32VW553/V1_MQTT_OK/GD32VW55X_Wifi_BLE_SDK/GD32VW55x_RELEASE_V1.0.2/MSDK/cloud/alicloud/src/services/ota\iotx_ota.c ****                 otalib_MD5Deinit(h_ota->md5);
 260:C:/Users/stapi/OneDrive/Desktop/GD32VW553/V1_MQTT_OK/GD32VW55X_Wifi_BLE_SDK/GD32VW55x_RELEASE_V1.0.2/MSDK/cloud/alicloud/src/services/ota\iotx_ota.c ****             }
 261:C:/Users/stapi/OneDrive/Desktop/GD32VW553/V1_MQTT_OK/GD32VW55X_Wifi_BLE_SDK/GD32VW55x_RELEASE_V1.0.2/MSDK/cloud/alicloud/src/services/ota\iotx_ota.c ****             h_ota->md5 = otalib_MD5Init();
 262:C:/Users/stapi/OneDrive/Desktop/GD32VW553/V1_MQTT_OK/GD32VW55X_Wifi_BLE_SDK/GD32VW55x_RELEASE_V1.0.2/MSDK/cloud/alicloud/src/services/ota\iotx_ota.c **** 
 263:C:/Users/stapi/OneDrive/Desktop/GD32VW553/V1_MQTT_OK/GD32VW55X_Wifi_BLE_SDK/GD32VW55x_RELEASE_V1.0.2/MSDK/cloud/alicloud/src/services/ota\iotx_ota.c ****             if (NULL != h_ota->sha256) {
 264:C:/Users/stapi/OneDrive/Desktop/GD32VW553/V1_MQTT_OK/GD32VW55X_Wifi_BLE_SDK/GD32VW55x_RELEASE_V1.0.2/MSDK/cloud/alicloud/src/services/ota\iotx_ota.c ****                 otalib_Sha256Deinit(h_ota->sha256);
 265:C:/Users/stapi/OneDrive/Desktop/GD32VW553/V1_MQTT_OK/GD32VW55X_Wifi_BLE_SDK/GD32VW55x_RELEASE_V1.0.2/MSDK/cloud/alicloud/src/services/ota\iotx_ota.c ****             }
 266:C:/Users/stapi/OneDrive/Desktop/GD32VW553/V1_MQTT_OK/GD32VW55X_Wifi_BLE_SDK/GD32VW55x_RELEASE_V1.0.2/MSDK/cloud/alicloud/src/services/ota\iotx_ota.c ****             h_ota->sha256 = otalib_Sha256Init();
 267:C:/Users/stapi/OneDrive/Desktop/GD32VW553/V1_MQTT_OK/GD32VW55X_Wifi_BLE_SDK/GD32VW55x_RELEASE_V1.0.2/MSDK/cloud/alicloud/src/services/ota\iotx_ota.c **** 
 268:C:/Users/stapi/OneDrive/Desktop/GD32VW553/V1_MQTT_OK/GD32VW55X_Wifi_BLE_SDK/GD32VW55x_RELEASE_V1.0.2/MSDK/cloud/alicloud/src/services/ota\iotx_ota.c ****             if (NULL == (h_ota->ch_fetch = ofc_Init(h_ota->cota_url))) {
 269:C:/Users/stapi/OneDrive/Desktop/GD32VW553/V1_MQTT_OK/GD32VW55X_Wifi_BLE_SDK/GD32VW55x_RELEASE_V1.0.2/MSDK/cloud/alicloud/src/services/ota\iotx_ota.c ****                 OTA_LOG_ERROR("Initialize fetch module failed");
 270:C:/Users/stapi/OneDrive/Desktop/GD32VW553/V1_MQTT_OK/GD32VW55X_Wifi_BLE_SDK/GD32VW55x_RELEASE_V1.0.2/MSDK/cloud/alicloud/src/services/ota\iotx_ota.c ****                 return -1;
 271:C:/Users/stapi/OneDrive/Desktop/GD32VW553/V1_MQTT_OK/GD32VW55X_Wifi_BLE_SDK/GD32VW55x_RELEASE_V1.0.2/MSDK/cloud/alicloud/src/services/ota\iotx_ota.c ****             }
 272:C:/Users/stapi/OneDrive/Desktop/GD32VW553/V1_MQTT_OK/GD32VW55X_Wifi_BLE_SDK/GD32VW55x_RELEASE_V1.0.2/MSDK/cloud/alicloud/src/services/ota\iotx_ota.c **** 
 273:C:/Users/stapi/OneDrive/Desktop/GD32VW553/V1_MQTT_OK/GD32VW55X_Wifi_BLE_SDK/GD32VW55x_RELEASE_V1.0.2/MSDK/cloud/alicloud/src/services/ota\iotx_ota.c ****             h_ota->type = IOT_OTAT_COTA;
 274:C:/Users/stapi/OneDrive/Desktop/GD32VW553/V1_MQTT_OK/GD32VW55X_Wifi_BLE_SDK/GD32VW55x_RELEASE_V1.0.2/MSDK/cloud/alicloud/src/services/ota\iotx_ota.c ****             h_ota->state = IOT_OTAS_FETCHING;
 275:C:/Users/stapi/OneDrive/Desktop/GD32VW553/V1_MQTT_OK/GD32VW55X_Wifi_BLE_SDK/GD32VW55x_RELEASE_V1.0.2/MSDK/cloud/alicloud/src/services/ota\iotx_ota.c **** 
 276:C:/Users/stapi/OneDrive/Desktop/GD32VW553/V1_MQTT_OK/GD32VW55X_Wifi_BLE_SDK/GD32VW55x_RELEASE_V1.0.2/MSDK/cloud/alicloud/src/services/ota\iotx_ota.c ****             if (h_ota->fetch_cota_cb) {
 277:C:/Users/stapi/OneDrive/Desktop/GD32VW553/V1_MQTT_OK/GD32VW55X_Wifi_BLE_SDK/GD32VW55x_RELEASE_V1.0.2/MSDK/cloud/alicloud/src/services/ota\iotx_ota.c ****                 h_ota->fetch_cota_cb(h_ota->user_data, 0, h_ota->configId, h_ota->configSize, h_ota
 278:C:/Users/stapi/OneDrive/Desktop/GD32VW553/V1_MQTT_OK/GD32VW55X_Wifi_BLE_SDK/GD32VW55x_RELEASE_V1.0.2/MSDK/cloud/alicloud/src/services/ota\iotx_ota.c ****                                      h_ota->cota_url, h_ota->getType);
 279:C:/Users/stapi/OneDrive/Desktop/GD32VW553/V1_MQTT_OK/GD32VW55X_Wifi_BLE_SDK/GD32VW55x_RELEASE_V1.0.2/MSDK/cloud/alicloud/src/services/ota\iotx_ota.c ****             }
 280:C:/Users/stapi/OneDrive/Desktop/GD32VW553/V1_MQTT_OK/GD32VW55X_Wifi_BLE_SDK/GD32VW55x_RELEASE_V1.0.2/MSDK/cloud/alicloud/src/services/ota\iotx_ota.c ****         }
 281:C:/Users/stapi/OneDrive/Desktop/GD32VW553/V1_MQTT_OK/GD32VW55X_Wifi_BLE_SDK/GD32VW55x_RELEASE_V1.0.2/MSDK/cloud/alicloud/src/services/ota\iotx_ota.c ****         break;
 282:C:/Users/stapi/OneDrive/Desktop/GD32VW553/V1_MQTT_OK/GD32VW55X_Wifi_BLE_SDK/GD32VW55x_RELEASE_V1.0.2/MSDK/cloud/alicloud/src/services/ota\iotx_ota.c **** 
 283:C:/Users/stapi/OneDrive/Desktop/GD32VW553/V1_MQTT_OK/GD32VW55X_Wifi_BLE_SDK/GD32VW55x_RELEASE_V1.0.2/MSDK/cloud/alicloud/src/services/ota\iotx_ota.c ****         case IOTX_OTA_TOPIC_TYPE_CONFIG_PUSH: {
 284:C:/Users/stapi/OneDrive/Desktop/GD32VW553/V1_MQTT_OK/GD32VW55X_Wifi_BLE_SDK/GD32VW55x_RELEASE_V1.0.2/MSDK/cloud/alicloud/src/services/ota\iotx_ota.c ****             /* get value of 'params' key */
 285:C:/Users/stapi/OneDrive/Desktop/GD32VW553/V1_MQTT_OK/GD32VW55X_Wifi_BLE_SDK/GD32VW55x_RELEASE_V1.0.2/MSDK/cloud/alicloud/src/services/ota\iotx_ota.c ****             pvalue = otalib_JsonValueOf(msg, msg_len, "params", &val_len);
 286:C:/Users/stapi/OneDrive/Desktop/GD32VW553/V1_MQTT_OK/GD32VW55X_Wifi_BLE_SDK/GD32VW55x_RELEASE_V1.0.2/MSDK/cloud/alicloud/src/services/ota\iotx_ota.c ****             if (NULL == pvalue) {
 287:C:/Users/stapi/OneDrive/Desktop/GD32VW553/V1_MQTT_OK/GD32VW55X_Wifi_BLE_SDK/GD32VW55x_RELEASE_V1.0.2/MSDK/cloud/alicloud/src/services/ota\iotx_ota.c ****                 OTA_LOG_ERROR("Not 'data' key in json doc of OTA");
 288:C:/Users/stapi/OneDrive/Desktop/GD32VW553/V1_MQTT_OK/GD32VW55X_Wifi_BLE_SDK/GD32VW55x_RELEASE_V1.0.2/MSDK/cloud/alicloud/src/services/ota\iotx_ota.c ****                 return -1;
 289:C:/Users/stapi/OneDrive/Desktop/GD32VW553/V1_MQTT_OK/GD32VW55X_Wifi_BLE_SDK/GD32VW55x_RELEASE_V1.0.2/MSDK/cloud/alicloud/src/services/ota\iotx_ota.c ****             }
 290:C:/Users/stapi/OneDrive/Desktop/GD32VW553/V1_MQTT_OK/GD32VW55X_Wifi_BLE_SDK/GD32VW55x_RELEASE_V1.0.2/MSDK/cloud/alicloud/src/services/ota\iotx_ota.c **** 
 291:C:/Users/stapi/OneDrive/Desktop/GD32VW553/V1_MQTT_OK/GD32VW55X_Wifi_BLE_SDK/GD32VW55x_RELEASE_V1.0.2/MSDK/cloud/alicloud/src/services/ota\iotx_ota.c ****             if (0 != otalib_GetConfigParams(pvalue, val_len, &h_ota->configId, &h_ota->configSize,
 292:C:/Users/stapi/OneDrive/Desktop/GD32VW553/V1_MQTT_OK/GD32VW55X_Wifi_BLE_SDK/GD32VW55x_RELEASE_V1.0.2/MSDK/cloud/alicloud/src/services/ota\iotx_ota.c ****                                             &h_ota->sign, &h_ota->signMethod, &h_ota->cota_url, &h_
 293:C:/Users/stapi/OneDrive/Desktop/GD32VW553/V1_MQTT_OK/GD32VW55X_Wifi_BLE_SDK/GD32VW55x_RELEASE_V1.0.2/MSDK/cloud/alicloud/src/services/ota\iotx_ota.c ****                 OTA_LOG_ERROR("Get firmware parameter failed");
 294:C:/Users/stapi/OneDrive/Desktop/GD32VW553/V1_MQTT_OK/GD32VW55X_Wifi_BLE_SDK/GD32VW55x_RELEASE_V1.0.2/MSDK/cloud/alicloud/src/services/ota\iotx_ota.c ****                 return -1;
 295:C:/Users/stapi/OneDrive/Desktop/GD32VW553/V1_MQTT_OK/GD32VW55X_Wifi_BLE_SDK/GD32VW55x_RELEASE_V1.0.2/MSDK/cloud/alicloud/src/services/ota\iotx_ota.c ****             }
 296:C:/Users/stapi/OneDrive/Desktop/GD32VW553/V1_MQTT_OK/GD32VW55X_Wifi_BLE_SDK/GD32VW55x_RELEASE_V1.0.2/MSDK/cloud/alicloud/src/services/ota\iotx_ota.c **** 
 297:C:/Users/stapi/OneDrive/Desktop/GD32VW553/V1_MQTT_OK/GD32VW55X_Wifi_BLE_SDK/GD32VW55x_RELEASE_V1.0.2/MSDK/cloud/alicloud/src/services/ota\iotx_ota.c ****             h_ota->size_file = h_ota->configSize;
 298:C:/Users/stapi/OneDrive/Desktop/GD32VW553/V1_MQTT_OK/GD32VW55X_Wifi_BLE_SDK/GD32VW55x_RELEASE_V1.0.2/MSDK/cloud/alicloud/src/services/ota\iotx_ota.c ****             h_ota->size_fetched = 0;
 299:C:/Users/stapi/OneDrive/Desktop/GD32VW553/V1_MQTT_OK/GD32VW55X_Wifi_BLE_SDK/GD32VW55x_RELEASE_V1.0.2/MSDK/cloud/alicloud/src/services/ota\iotx_ota.c ****             if (NULL != h_ota->md5) {
 300:C:/Users/stapi/OneDrive/Desktop/GD32VW553/V1_MQTT_OK/GD32VW55X_Wifi_BLE_SDK/GD32VW55x_RELEASE_V1.0.2/MSDK/cloud/alicloud/src/services/ota\iotx_ota.c ****                 otalib_MD5Deinit(h_ota->md5);
 301:C:/Users/stapi/OneDrive/Desktop/GD32VW553/V1_MQTT_OK/GD32VW55X_Wifi_BLE_SDK/GD32VW55x_RELEASE_V1.0.2/MSDK/cloud/alicloud/src/services/ota\iotx_ota.c ****             }
 302:C:/Users/stapi/OneDrive/Desktop/GD32VW553/V1_MQTT_OK/GD32VW55X_Wifi_BLE_SDK/GD32VW55x_RELEASE_V1.0.2/MSDK/cloud/alicloud/src/services/ota\iotx_ota.c ****             h_ota->md5 = otalib_MD5Init();
 303:C:/Users/stapi/OneDrive/Desktop/GD32VW553/V1_MQTT_OK/GD32VW55X_Wifi_BLE_SDK/GD32VW55x_RELEASE_V1.0.2/MSDK/cloud/alicloud/src/services/ota\iotx_ota.c **** 
 304:C:/Users/stapi/OneDrive/Desktop/GD32VW553/V1_MQTT_OK/GD32VW55X_Wifi_BLE_SDK/GD32VW55x_RELEASE_V1.0.2/MSDK/cloud/alicloud/src/services/ota\iotx_ota.c ****             if (NULL != h_ota->sha256) {
 305:C:/Users/stapi/OneDrive/Desktop/GD32VW553/V1_MQTT_OK/GD32VW55X_Wifi_BLE_SDK/GD32VW55x_RELEASE_V1.0.2/MSDK/cloud/alicloud/src/services/ota\iotx_ota.c ****                 otalib_Sha256Deinit(h_ota->sha256);
 306:C:/Users/stapi/OneDrive/Desktop/GD32VW553/V1_MQTT_OK/GD32VW55X_Wifi_BLE_SDK/GD32VW55x_RELEASE_V1.0.2/MSDK/cloud/alicloud/src/services/ota\iotx_ota.c ****             }
 307:C:/Users/stapi/OneDrive/Desktop/GD32VW553/V1_MQTT_OK/GD32VW55X_Wifi_BLE_SDK/GD32VW55x_RELEASE_V1.0.2/MSDK/cloud/alicloud/src/services/ota\iotx_ota.c ****             h_ota->sha256 = otalib_Sha256Init();
 308:C:/Users/stapi/OneDrive/Desktop/GD32VW553/V1_MQTT_OK/GD32VW55X_Wifi_BLE_SDK/GD32VW55x_RELEASE_V1.0.2/MSDK/cloud/alicloud/src/services/ota\iotx_ota.c **** 
 309:C:/Users/stapi/OneDrive/Desktop/GD32VW553/V1_MQTT_OK/GD32VW55X_Wifi_BLE_SDK/GD32VW55x_RELEASE_V1.0.2/MSDK/cloud/alicloud/src/services/ota\iotx_ota.c ****             if (NULL == (h_ota->ch_fetch = ofc_Init(h_ota->cota_url))) {
 310:C:/Users/stapi/OneDrive/Desktop/GD32VW553/V1_MQTT_OK/GD32VW55X_Wifi_BLE_SDK/GD32VW55x_RELEASE_V1.0.2/MSDK/cloud/alicloud/src/services/ota\iotx_ota.c ****                 OTA_LOG_ERROR("Initialize fetch module failed");
 311:C:/Users/stapi/OneDrive/Desktop/GD32VW553/V1_MQTT_OK/GD32VW55X_Wifi_BLE_SDK/GD32VW55x_RELEASE_V1.0.2/MSDK/cloud/alicloud/src/services/ota\iotx_ota.c ****                 return -1;
 312:C:/Users/stapi/OneDrive/Desktop/GD32VW553/V1_MQTT_OK/GD32VW55X_Wifi_BLE_SDK/GD32VW55x_RELEASE_V1.0.2/MSDK/cloud/alicloud/src/services/ota\iotx_ota.c ****             }
 313:C:/Users/stapi/OneDrive/Desktop/GD32VW553/V1_MQTT_OK/GD32VW55X_Wifi_BLE_SDK/GD32VW55x_RELEASE_V1.0.2/MSDK/cloud/alicloud/src/services/ota\iotx_ota.c **** 
 314:C:/Users/stapi/OneDrive/Desktop/GD32VW553/V1_MQTT_OK/GD32VW55X_Wifi_BLE_SDK/GD32VW55x_RELEASE_V1.0.2/MSDK/cloud/alicloud/src/services/ota\iotx_ota.c ****             h_ota->type = IOT_OTAT_COTA;
 315:C:/Users/stapi/OneDrive/Desktop/GD32VW553/V1_MQTT_OK/GD32VW55X_Wifi_BLE_SDK/GD32VW55x_RELEASE_V1.0.2/MSDK/cloud/alicloud/src/services/ota\iotx_ota.c ****             h_ota->state = IOT_OTAS_FETCHING;
 316:C:/Users/stapi/OneDrive/Desktop/GD32VW553/V1_MQTT_OK/GD32VW55X_Wifi_BLE_SDK/GD32VW55x_RELEASE_V1.0.2/MSDK/cloud/alicloud/src/services/ota\iotx_ota.c **** 
 317:C:/Users/stapi/OneDrive/Desktop/GD32VW553/V1_MQTT_OK/GD32VW55X_Wifi_BLE_SDK/GD32VW55x_RELEASE_V1.0.2/MSDK/cloud/alicloud/src/services/ota\iotx_ota.c ****             if (h_ota->fetch_cota_cb) {
 318:C:/Users/stapi/OneDrive/Desktop/GD32VW553/V1_MQTT_OK/GD32VW55X_Wifi_BLE_SDK/GD32VW55x_RELEASE_V1.0.2/MSDK/cloud/alicloud/src/services/ota\iotx_ota.c ****                 h_ota->fetch_cota_cb(h_ota->user_data, 0, h_ota->configId, h_ota->configSize, h_ota
 319:C:/Users/stapi/OneDrive/Desktop/GD32VW553/V1_MQTT_OK/GD32VW55X_Wifi_BLE_SDK/GD32VW55x_RELEASE_V1.0.2/MSDK/cloud/alicloud/src/services/ota\iotx_ota.c ****                                      h_ota->cota_url, h_ota->getType);
 320:C:/Users/stapi/OneDrive/Desktop/GD32VW553/V1_MQTT_OK/GD32VW55X_Wifi_BLE_SDK/GD32VW55x_RELEASE_V1.0.2/MSDK/cloud/alicloud/src/services/ota\iotx_ota.c ****             }
 321:C:/Users/stapi/OneDrive/Desktop/GD32VW553/V1_MQTT_OK/GD32VW55X_Wifi_BLE_SDK/GD32VW55x_RELEASE_V1.0.2/MSDK/cloud/alicloud/src/services/ota\iotx_ota.c ****         }
 322:C:/Users/stapi/OneDrive/Desktop/GD32VW553/V1_MQTT_OK/GD32VW55X_Wifi_BLE_SDK/GD32VW55x_RELEASE_V1.0.2/MSDK/cloud/alicloud/src/services/ota\iotx_ota.c ****         break;
 323:C:/Users/stapi/OneDrive/Desktop/GD32VW553/V1_MQTT_OK/GD32VW55X_Wifi_BLE_SDK/GD32VW55x_RELEASE_V1.0.2/MSDK/cloud/alicloud/src/services/ota\iotx_ota.c **** 
 324:C:/Users/stapi/OneDrive/Desktop/GD32VW553/V1_MQTT_OK/GD32VW55X_Wifi_BLE_SDK/GD32VW55x_RELEASE_V1.0.2/MSDK/cloud/alicloud/src/services/ota\iotx_ota.c ****         default:
 325:C:/Users/stapi/OneDrive/Desktop/GD32VW553/V1_MQTT_OK/GD32VW55X_Wifi_BLE_SDK/GD32VW55x_RELEASE_V1.0.2/MSDK/cloud/alicloud/src/services/ota\iotx_ota.c ****             return -1;
 326:C:/Users/stapi/OneDrive/Desktop/GD32VW553/V1_MQTT_OK/GD32VW55X_Wifi_BLE_SDK/GD32VW55x_RELEASE_V1.0.2/MSDK/cloud/alicloud/src/services/ota\iotx_ota.c ****             break;
 327:C:/Users/stapi/OneDrive/Desktop/GD32VW553/V1_MQTT_OK/GD32VW55X_Wifi_BLE_SDK/GD32VW55x_RELEASE_V1.0.2/MSDK/cloud/alicloud/src/services/ota\iotx_ota.c ****     }
 328:C:/Users/stapi/OneDrive/Desktop/GD32VW553/V1_MQTT_OK/GD32VW55X_Wifi_BLE_SDK/GD32VW55x_RELEASE_V1.0.2/MSDK/cloud/alicloud/src/services/ota\iotx_ota.c **** 
 329:C:/Users/stapi/OneDrive/Desktop/GD32VW553/V1_MQTT_OK/GD32VW55X_Wifi_BLE_SDK/GD32VW55x_RELEASE_V1.0.2/MSDK/cloud/alicloud/src/services/ota\iotx_ota.c ****     return 0;
 330:C:/Users/stapi/OneDrive/Desktop/GD32VW553/V1_MQTT_OK/GD32VW55X_Wifi_BLE_SDK/GD32VW55x_RELEASE_V1.0.2/MSDK/cloud/alicloud/src/services/ota\iotx_ota.c **** }
 534              		.loc 2 330 1 is_stmt 0
 535 0060 2685     		mv	a0,s1
 536 0062 4101     		addi	sp,sp,16
 537              		.cfi_remember_state
 538              		.cfi_def_cfa_offset 0
 539 0064 17030000 		tail	__riscv_restore_4
 539      67000300 
 540              		.cfi_restore 19
 541              		.cfi_restore 18
 542              		.cfi_restore 9
 543              		.cfi_restore 8
 544              		.cfi_restore 1
 545              		.cfi_def_cfa_offset -32
 546              	.LVL48:
 547              	.L34:
 548              		.cfi_restore_state
 190:C:/Users/stapi/OneDrive/Desktop/GD32VW553/V1_MQTT_OK/GD32VW55X_Wifi_BLE_SDK/GD32VW55x_RELEASE_V1.0.2/MSDK/cloud/alicloud/src/services/ota\iotx_ota.c ****         case IOTX_OTA_TOPIC_TYPE_DEVICE_REQUEST:
 549              		.loc 2 190 5
 550 006c 9147     		li	a5,4
 551 006e 6386F61A 		beq	a3,a5,.L36
 552              	.LVL49:
 553              	.L92:
 252:C:/Users/stapi/OneDrive/Desktop/GD32VW553/V1_MQTT_OK/GD32VW55X_Wifi_BLE_SDK/GD32VW55x_RELEASE_V1.0.2/MSDK/cloud/alicloud/src/services/ota\iotx_ota.c ****                 return -1;
 554              		.loc 2 252 17 is_stmt 1
 253:C:/Users/stapi/OneDrive/Desktop/GD32VW553/V1_MQTT_OK/GD32VW55X_Wifi_BLE_SDK/GD32VW55x_RELEASE_V1.0.2/MSDK/cloud/alicloud/src/services/ota\iotx_ota.c ****                 return -1;
 555              		.loc 2 253 17
 253:C:/Users/stapi/OneDrive/Desktop/GD32VW553/V1_MQTT_OK/GD32VW55X_Wifi_BLE_SDK/GD32VW55x_RELEASE_V1.0.2/MSDK/cloud/alicloud/src/services/ota\iotx_ota.c ****                 return -1;
 556              		.loc 2 253 24 is_stmt 0
 557 0072 FD54     		li	s1,-1
 558 0074 F5B7     		j	.L30
 559              	.LVL50:
 560              	.L88:
 193:C:/Users/stapi/OneDrive/Desktop/GD32VW553/V1_MQTT_OK/GD32VW55X_Wifi_BLE_SDK/GD32VW55x_RELEASE_V1.0.2/MSDK/cloud/alicloud/src/services/ota\iotx_ota.c ****             if (NULL == pvalue) {
 561              		.loc 2 193 13 is_stmt 1
 193:C:/Users/stapi/OneDrive/Desktop/GD32VW553/V1_MQTT_OK/GD32VW55X_Wifi_BLE_SDK/GD32VW55x_RELEASE_V1.0.2/MSDK/cloud/alicloud/src/services/ota\iotx_ota.c ****             if (NULL == pvalue) {
 562              		.loc 2 193 22 is_stmt 0
 563 0076 37060000 		lui	a2,%hi(.LC24)
 564              	.LVL51:
 565 007a 7400     		addi	a3,sp,12
 566              	.LVL52:
 567 007c 13060600 		addi	a2,a2,%lo(.LC24)
 568 0080 CE85     		mv	a1,s3
 569              	.LVL53:
 570 0082 4A85     		mv	a0,s2
 571 0084 97000000 		call	otalib_JsonValueOf
 571      E7800000 
 572              	.LVL54:
 194:C:/Users/stapi/OneDrive/Desktop/GD32VW553/V1_MQTT_OK/GD32VW55X_Wifi_BLE_SDK/GD32VW55x_RELEASE_V1.0.2/MSDK/cloud/alicloud/src/services/ota\iotx_ota.c ****                 OTA_LOG_ERROR("invalid json doc of OTA ");
 573              		.loc 2 194 13 is_stmt 1
 194:C:/Users/stapi/OneDrive/Desktop/GD32VW553/V1_MQTT_OK/GD32VW55X_Wifi_BLE_SDK/GD32VW55x_RELEASE_V1.0.2/MSDK/cloud/alicloud/src/services/ota\iotx_ota.c ****                 OTA_LOG_ERROR("invalid json doc of OTA ");
 574              		.loc 2 194 16 is_stmt 0
 575 008c 11ED     		bne	a0,zero,.L37
 576              	.L44:
 195:C:/Users/stapi/OneDrive/Desktop/GD32VW553/V1_MQTT_OK/GD32VW55X_Wifi_BLE_SDK/GD32VW55x_RELEASE_V1.0.2/MSDK/cloud/alicloud/src/services/ota\iotx_ota.c ****                 return -1;
 577              		.loc 2 195 17 is_stmt 1
 195:C:/Users/stapi/OneDrive/Desktop/GD32VW553/V1_MQTT_OK/GD32VW55X_Wifi_BLE_SDK/GD32VW55x_RELEASE_V1.0.2/MSDK/cloud/alicloud/src/services/ota\iotx_ota.c ****                 return -1;
 578              		.loc 2 195 17
 579 008e 37050000 		lui	a0,%hi(.LC21)
 580              	.LVL55:
 581 0092 13050500 		addi	a0,a0,%lo(.LC21)
 582 0096 97000000 		call	HAL_Printf
 582      E7800000 
 583              	.LVL56:
 195:C:/Users/stapi/OneDrive/Desktop/GD32VW553/V1_MQTT_OK/GD32VW55X_Wifi_BLE_SDK/GD32VW55x_RELEASE_V1.0.2/MSDK/cloud/alicloud/src/services/ota\iotx_ota.c ****                 return -1;
 584              		.loc 2 195 17
 585 009e 37050000 		lui	a0,%hi(.LC25)
 586 00a2 13050500 		addi	a0,a0,%lo(.LC25)
 587 00a6 51B7     		j	.L93
 588              	.LVL57:
 589              	.L37:
 200:C:/Users/stapi/OneDrive/Desktop/GD32VW553/V1_MQTT_OK/GD32VW55X_Wifi_BLE_SDK/GD32VW55x_RELEASE_V1.0.2/MSDK/cloud/alicloud/src/services/ota\iotx_ota.c ****                 OTA_LOG_ERROR("fail state of json doc of OTA");
 590              		.loc 2 200 13
 200:C:/Users/stapi/OneDrive/Desktop/GD32VW553/V1_MQTT_OK/GD32VW55X_Wifi_BLE_SDK/GD32VW55x_RELEASE_V1.0.2/MSDK/cloud/alicloud/src/services/ota\iotx_ota.c ****                 OTA_LOG_ERROR("fail state of json doc of OTA");
 591              		.loc 2 200 16 is_stmt 0
 592 00a8 3247     		lw	a4,12(sp)
 593 00aa 9D47     		li	a5,7
 594 00ac 630FF700 		beq	a4,a5,.L38
 595              	.LVL58:
 596              	.L39:
 201:C:/Users/stapi/OneDrive/Desktop/GD32VW553/V1_MQTT_OK/GD32VW55X_Wifi_BLE_SDK/GD32VW55x_RELEASE_V1.0.2/MSDK/cloud/alicloud/src/services/ota\iotx_ota.c ****                 return -1;
 597              		.loc 2 201 17 is_stmt 1
 201:C:/Users/stapi/OneDrive/Desktop/GD32VW553/V1_MQTT_OK/GD32VW55X_Wifi_BLE_SDK/GD32VW55x_RELEASE_V1.0.2/MSDK/cloud/alicloud/src/services/ota\iotx_ota.c ****                 return -1;
 598              		.loc 2 201 17
 599 00b0 37050000 		lui	a0,%hi(.LC21)
 600 00b4 13050500 		addi	a0,a0,%lo(.LC21)
 601 00b8 97000000 		call	HAL_Printf
 601      E7800000 
 602              	.LVL59:
 201:C:/Users/stapi/OneDrive/Desktop/GD32VW553/V1_MQTT_OK/GD32VW55X_Wifi_BLE_SDK/GD32VW55x_RELEASE_V1.0.2/MSDK/cloud/alicloud/src/services/ota\iotx_ota.c ****                 return -1;
 603              		.loc 2 201 17
 604 00c0 37050000 		lui	a0,%hi(.LC26)
 605 00c4 13050500 		addi	a0,a0,%lo(.LC26)
 606 00c8 8DB7     		j	.L93
 607              	.LVL60:
 608              	.L38:
 200:C:/Users/stapi/OneDrive/Desktop/GD32VW553/V1_MQTT_OK/GD32VW55X_Wifi_BLE_SDK/GD32VW55x_RELEASE_V1.0.2/MSDK/cloud/alicloud/src/services/ota\iotx_ota.c ****                 OTA_LOG_ERROR("fail state of json doc of OTA");
 609              		.loc 2 200 59 is_stmt 0 discriminator 1
 610 00ca B7050000 		lui	a1,%hi(.LC27)
 611 00ce 1D46     		li	a2,7
 612 00d0 93850500 		addi	a1,a1,%lo(.LC27)
 613 00d4 97000000 		call	strncmp
 613      E7800000 
 614              	.LVL61:
 200:C:/Users/stapi/OneDrive/Desktop/GD32VW553/V1_MQTT_OK/GD32VW55X_Wifi_BLE_SDK/GD32VW55x_RELEASE_V1.0.2/MSDK/cloud/alicloud/src/services/ota\iotx_ota.c ****                 OTA_LOG_ERROR("fail state of json doc of OTA");
 615              		.loc 2 200 17 discriminator 1
 616 00dc 71F9     		bne	a0,zero,.L39
 206:C:/Users/stapi/OneDrive/Desktop/GD32VW553/V1_MQTT_OK/GD32VW55X_Wifi_BLE_SDK/GD32VW55x_RELEASE_V1.0.2/MSDK/cloud/alicloud/src/services/ota\iotx_ota.c ****             if (NULL == pvalue) {
 617              		.loc 2 206 13 is_stmt 1
 206:C:/Users/stapi/OneDrive/Desktop/GD32VW553/V1_MQTT_OK/GD32VW55X_Wifi_BLE_SDK/GD32VW55x_RELEASE_V1.0.2/MSDK/cloud/alicloud/src/services/ota\iotx_ota.c ****             if (NULL == pvalue) {
 618              		.loc 2 206 22 is_stmt 0
 619 00de 37060000 		lui	a2,%hi(.LC28)
 620 00e2 7400     		addi	a3,sp,12
 621 00e4 13060600 		addi	a2,a2,%lo(.LC28)
 622 00e8 CE85     		mv	a1,s3
 623 00ea 4A85     		mv	a0,s2
 624 00ec 97000000 		call	otalib_JsonValueOf
 624      E7800000 
 625              	.LVL62:
 207:C:/Users/stapi/OneDrive/Desktop/GD32VW553/V1_MQTT_OK/GD32VW55X_Wifi_BLE_SDK/GD32VW55x_RELEASE_V1.0.2/MSDK/cloud/alicloud/src/services/ota\iotx_ota.c ****                 OTA_LOG_ERROR("Not 'data' key in json doc of OTA");
 626              		.loc 2 207 13 is_stmt 1
 207:C:/Users/stapi/OneDrive/Desktop/GD32VW553/V1_MQTT_OK/GD32VW55X_Wifi_BLE_SDK/GD32VW55x_RELEASE_V1.0.2/MSDK/cloud/alicloud/src/services/ota\iotx_ota.c ****                 OTA_LOG_ERROR("Not 'data' key in json doc of OTA");
 627              		.loc 2 207 16 is_stmt 0
 628 00f4 11ED     		bne	a0,zero,.L40
 629              	.L45:
 208:C:/Users/stapi/OneDrive/Desktop/GD32VW553/V1_MQTT_OK/GD32VW55X_Wifi_BLE_SDK/GD32VW55x_RELEASE_V1.0.2/MSDK/cloud/alicloud/src/services/ota\iotx_ota.c ****                 return -1;
 630              		.loc 2 208 17 is_stmt 1
 208:C:/Users/stapi/OneDrive/Desktop/GD32VW553/V1_MQTT_OK/GD32VW55X_Wifi_BLE_SDK/GD32VW55x_RELEASE_V1.0.2/MSDK/cloud/alicloud/src/services/ota\iotx_ota.c ****                 return -1;
 631              		.loc 2 208 17
 632 00f6 37050000 		lui	a0,%hi(.LC21)
 633              	.LVL63:
 634 00fa 13050500 		addi	a0,a0,%lo(.LC21)
 635 00fe 97000000 		call	HAL_Printf
 635      E7800000 
 636              	.LVL64:
 208:C:/Users/stapi/OneDrive/Desktop/GD32VW553/V1_MQTT_OK/GD32VW55X_Wifi_BLE_SDK/GD32VW55x_RELEASE_V1.0.2/MSDK/cloud/alicloud/src/services/ota\iotx_ota.c ****                 return -1;
 637              		.loc 2 208 17
 638 0106 37050000 		lui	a0,%hi(.LC29)
 639 010a 13050500 		addi	a0,a0,%lo(.LC29)
 640 010e 31BF     		j	.L93
 641              	.LVL65:
 642              	.L40:
 212:C:/Users/stapi/OneDrive/Desktop/GD32VW553/V1_MQTT_OK/GD32VW55X_Wifi_BLE_SDK/GD32VW55x_RELEASE_V1.0.2/MSDK/cloud/alicloud/src/services/ota\iotx_ota.c ****                 OTA_LOG_ERROR("Get config parameter failed");
 643              		.loc 2 212 13
 212:C:/Users/stapi/OneDrive/Desktop/GD32VW553/V1_MQTT_OK/GD32VW55X_Wifi_BLE_SDK/GD32VW55x_RELEASE_V1.0.2/MSDK/cloud/alicloud/src/services/ota\iotx_ota.c ****                 OTA_LOG_ERROR("Get config parameter failed");
 644              		.loc 2 212 22 is_stmt 0
 645 0110 B245     		lw	a1,12(sp)
 646 0112 9307C401 		addi	a5,s0,28
 647 0116 13078402 		addi	a4,s0,40
 648 011a 93064402 		addi	a3,s0,36
 649 011e 13060402 		addi	a2,s0,32
 650 0122 97000000 		call	otalib_GetParams
 650      E7800000 
 651              	.LVL66:
 652 012a AA84     		mv	s1,a0
 212:C:/Users/stapi/OneDrive/Desktop/GD32VW553/V1_MQTT_OK/GD32VW55X_Wifi_BLE_SDK/GD32VW55x_RELEASE_V1.0.2/MSDK/cloud/alicloud/src/services/ota\iotx_ota.c ****                 OTA_LOG_ERROR("Get config parameter failed");
 653              		.loc 2 212 16
 654 012c 11CD     		beq	a0,zero,.L41
 213:C:/Users/stapi/OneDrive/Desktop/GD32VW553/V1_MQTT_OK/GD32VW55X_Wifi_BLE_SDK/GD32VW55x_RELEASE_V1.0.2/MSDK/cloud/alicloud/src/services/ota\iotx_ota.c ****                 return -1;
 655              		.loc 2 213 17 is_stmt 1
 213:C:/Users/stapi/OneDrive/Desktop/GD32VW553/V1_MQTT_OK/GD32VW55X_Wifi_BLE_SDK/GD32VW55x_RELEASE_V1.0.2/MSDK/cloud/alicloud/src/services/ota\iotx_ota.c ****                 return -1;
 656              		.loc 2 213 17
 657 012e 37050000 		lui	a0,%hi(.LC21)
 658 0132 13050500 		addi	a0,a0,%lo(.LC21)
 659 0136 97000000 		call	HAL_Printf
 659      E7800000 
 660              	.LVL67:
 213:C:/Users/stapi/OneDrive/Desktop/GD32VW553/V1_MQTT_OK/GD32VW55X_Wifi_BLE_SDK/GD32VW55x_RELEASE_V1.0.2/MSDK/cloud/alicloud/src/services/ota\iotx_ota.c ****                 return -1;
 661              		.loc 2 213 17
 662 013e 37050000 		lui	a0,%hi(.LC30)
 663 0142 13050500 		addi	a0,a0,%lo(.LC30)
 664 0146 D5B5     		j	.L93
 665              	.L41:
 217:C:/Users/stapi/OneDrive/Desktop/GD32VW553/V1_MQTT_OK/GD32VW55X_Wifi_BLE_SDK/GD32VW55x_RELEASE_V1.0.2/MSDK/cloud/alicloud/src/services/ota\iotx_ota.c ****                 OTA_LOG_ERROR("Initialize fetch module failed");
 666              		.loc 2 217 13
 217:C:/Users/stapi/OneDrive/Desktop/GD32VW553/V1_MQTT_OK/GD32VW55X_Wifi_BLE_SDK/GD32VW55x_RELEASE_V1.0.2/MSDK/cloud/alicloud/src/services/ota\iotx_ota.c ****                 OTA_LOG_ERROR("Initialize fetch module failed");
 667              		.loc 2 217 44 is_stmt 0
 668 0148 0850     		lw	a0,32(s0)
 669 014a 97000000 		call	ofc_Init
 669      E7800000 
 670              	.LVL68:
 217:C:/Users/stapi/OneDrive/Desktop/GD32VW553/V1_MQTT_OK/GD32VW55X_Wifi_BLE_SDK/GD32VW55x_RELEASE_V1.0.2/MSDK/cloud/alicloud/src/services/ota\iotx_ota.c ****                 OTA_LOG_ERROR("Initialize fetch module failed");
 671              		.loc 2 217 42
 672 0152 28CC     		sw	a0,88(s0)
 217:C:/Users/stapi/OneDrive/Desktop/GD32VW553/V1_MQTT_OK/GD32VW55X_Wifi_BLE_SDK/GD32VW55x_RELEASE_V1.0.2/MSDK/cloud/alicloud/src/services/ota\iotx_ota.c ****                 OTA_LOG_ERROR("Initialize fetch module failed");
 673              		.loc 2 217 16
 674 0154 11ED     		bne	a0,zero,.L42
 675              	.L49:
 218:C:/Users/stapi/OneDrive/Desktop/GD32VW553/V1_MQTT_OK/GD32VW55X_Wifi_BLE_SDK/GD32VW55x_RELEASE_V1.0.2/MSDK/cloud/alicloud/src/services/ota\iotx_ota.c ****                 return -1;
 676              		.loc 2 218 17 is_stmt 1
 218:C:/Users/stapi/OneDrive/Desktop/GD32VW553/V1_MQTT_OK/GD32VW55X_Wifi_BLE_SDK/GD32VW55x_RELEASE_V1.0.2/MSDK/cloud/alicloud/src/services/ota\iotx_ota.c ****                 return -1;
 677              		.loc 2 218 17
 678 0156 37050000 		lui	a0,%hi(.LC21)
 679 015a 13050500 		addi	a0,a0,%lo(.LC21)
 680 015e 97000000 		call	HAL_Printf
 680      E7800000 
 681              	.LVL69:
 218:C:/Users/stapi/OneDrive/Desktop/GD32VW553/V1_MQTT_OK/GD32VW55X_Wifi_BLE_SDK/GD32VW55x_RELEASE_V1.0.2/MSDK/cloud/alicloud/src/services/ota\iotx_ota.c ****                 return -1;
 682              		.loc 2 218 17
 683 0166 37050000 		lui	a0,%hi(.LC31)
 684 016a 13050500 		addi	a0,a0,%lo(.LC31)
 685 016e 75BD     		j	.L93
 686              	.L42:
 222:C:/Users/stapi/OneDrive/Desktop/GD32VW553/V1_MQTT_OK/GD32VW55X_Wifi_BLE_SDK/GD32VW55x_RELEASE_V1.0.2/MSDK/cloud/alicloud/src/services/ota\iotx_ota.c ****             h_ota->state = IOT_OTAS_FETCHING;
 687              		.loc 2 222 13
 222:C:/Users/stapi/OneDrive/Desktop/GD32VW553/V1_MQTT_OK/GD32VW55X_Wifi_BLE_SDK/GD32VW55x_RELEASE_V1.0.2/MSDK/cloud/alicloud/src/services/ota\iotx_ota.c ****             h_ota->state = IOT_OTAS_FETCHING;
 688              		.loc 2 222 25 is_stmt 0
 689 0170 8947     		li	a5,2
 690 0172 1CC8     		sw	a5,16(s0)
 223:C:/Users/stapi/OneDrive/Desktop/GD32VW553/V1_MQTT_OK/GD32VW55X_Wifi_BLE_SDK/GD32VW55x_RELEASE_V1.0.2/MSDK/cloud/alicloud/src/services/ota\iotx_ota.c ****             if (h_ota->fetch_cb) {
 691              		.loc 2 223 13 is_stmt 1
 223:C:/Users/stapi/OneDrive/Desktop/GD32VW553/V1_MQTT_OK/GD32VW55X_Wifi_BLE_SDK/GD32VW55x_RELEASE_V1.0.2/MSDK/cloud/alicloud/src/services/ota\iotx_ota.c ****             if (h_ota->fetch_cb) {
 692              		.loc 2 223 26 is_stmt 0
 693 0174 5CC4     		sw	a5,12(s0)
 224:C:/Users/stapi/OneDrive/Desktop/GD32VW553/V1_MQTT_OK/GD32VW55X_Wifi_BLE_SDK/GD32VW55x_RELEASE_V1.0.2/MSDK/cloud/alicloud/src/services/ota\iotx_ota.c ****                 h_ota->fetch_cb(h_ota->user_data, 0, h_ota->size_file, h_ota->purl, h_ota->version)
 694              		.loc 2 224 13 is_stmt 1
 224:C:/Users/stapi/OneDrive/Desktop/GD32VW553/V1_MQTT_OK/GD32VW55X_Wifi_BLE_SDK/GD32VW55x_RELEASE_V1.0.2/MSDK/cloud/alicloud/src/services/ota\iotx_ota.c ****                 h_ota->fetch_cb(h_ota->user_data, 0, h_ota->size_file, h_ota->purl, h_ota->version)
 695              		.loc 2 224 22 is_stmt 0
 696 0176 3C5C     		lw	a5,120(s0)
 224:C:/Users/stapi/OneDrive/Desktop/GD32VW553/V1_MQTT_OK/GD32VW55X_Wifi_BLE_SDK/GD32VW55x_RELEASE_V1.0.2/MSDK/cloud/alicloud/src/services/ota\iotx_ota.c ****                 h_ota->fetch_cb(h_ota->user_data, 0, h_ota->size_file, h_ota->purl, h_ota->version)
 697              		.loc 2 224 16
 698 0178 99E3     		bne	a5,zero,.L43
 699              	.L50:
 329:C:/Users/stapi/OneDrive/Desktop/GD32VW553/V1_MQTT_OK/GD32VW55X_Wifi_BLE_SDK/GD32VW55x_RELEASE_V1.0.2/MSDK/cloud/alicloud/src/services/ota\iotx_ota.c **** }
 700              		.loc 2 329 12
 701 017a 8144     		li	s1,0
 702 017c D5B5     		j	.L30
 703              	.L43:
 225:C:/Users/stapi/OneDrive/Desktop/GD32VW553/V1_MQTT_OK/GD32VW55X_Wifi_BLE_SDK/GD32VW55x_RELEASE_V1.0.2/MSDK/cloud/alicloud/src/services/ota\iotx_ota.c ****             }
 704              		.loc 2 225 17 is_stmt 1
 705 017e 5850     		lw	a4,36(s0)
 706 0180 1450     		lw	a3,32(s0)
 707 0182 504C     		lw	a2,28(s0)
 708 0184 685C     		lw	a0,124(s0)
 709 0186 8145     		li	a1,0
 710 0188 8297     		jalr	a5
 711              	.LVL70:
 712 018a D9BD     		j	.L30
 713              	.LVL71:
 714              	.L33:
 231:C:/Users/stapi/OneDrive/Desktop/GD32VW553/V1_MQTT_OK/GD32VW55X_Wifi_BLE_SDK/GD32VW55x_RELEASE_V1.0.2/MSDK/cloud/alicloud/src/services/ota\iotx_ota.c ****             if (NULL == pvalue) {
 715              		.loc 2 231 13
 231:C:/Users/stapi/OneDrive/Desktop/GD32VW553/V1_MQTT_OK/GD32VW55X_Wifi_BLE_SDK/GD32VW55x_RELEASE_V1.0.2/MSDK/cloud/alicloud/src/services/ota\iotx_ota.c ****             if (NULL == pvalue) {
 716              		.loc 2 231 22 is_stmt 0
 717 018c 37060000 		lui	a2,%hi(.LC32)
 718              	.LVL72:
 719 0190 7400     		addi	a3,sp,12
 720 0192 13060600 		addi	a2,a2,%lo(.LC32)
 721 0196 CE85     		mv	a1,s3
 722              	.LVL73:
 723 0198 4A85     		mv	a0,s2
 724 019a 97000000 		call	otalib_JsonValueOf
 724      E7800000 
 725              	.LVL74:
 232:C:/Users/stapi/OneDrive/Desktop/GD32VW553/V1_MQTT_OK/GD32VW55X_Wifi_BLE_SDK/GD32VW55x_RELEASE_V1.0.2/MSDK/cloud/alicloud/src/services/ota\iotx_ota.c ****                 OTA_LOG_ERROR("invalid json doc of OTA ");
 726              		.loc 2 232 13 is_stmt 1
 232:C:/Users/stapi/OneDrive/Desktop/GD32VW553/V1_MQTT_OK/GD32VW55X_Wifi_BLE_SDK/GD32VW55x_RELEASE_V1.0.2/MSDK/cloud/alicloud/src/services/ota\iotx_ota.c ****                 OTA_LOG_ERROR("invalid json doc of OTA ");
 727              		.loc 2 232 16 is_stmt 0
 728 01a2 E30605EE 		beq	a0,zero,.L44
 238:C:/Users/stapi/OneDrive/Desktop/GD32VW553/V1_MQTT_OK/GD32VW55X_Wifi_BLE_SDK/GD32VW55x_RELEASE_V1.0.2/MSDK/cloud/alicloud/src/services/ota\iotx_ota.c ****                 OTA_LOG_ERROR("fail state of json doc of OTA");
 729              		.loc 2 238 13 is_stmt 1
 238:C:/Users/stapi/OneDrive/Desktop/GD32VW553/V1_MQTT_OK/GD32VW55X_Wifi_BLE_SDK/GD32VW55x_RELEASE_V1.0.2/MSDK/cloud/alicloud/src/services/ota\iotx_ota.c ****                 OTA_LOG_ERROR("fail state of json doc of OTA");
 730              		.loc 2 238 16 is_stmt 0
 731 01a6 B247     		lw	a5,12(sp)
 732 01a8 E39497F0 		bne	a5,s1,.L39
 238:C:/Users/stapi/OneDrive/Desktop/GD32VW553/V1_MQTT_OK/GD32VW55X_Wifi_BLE_SDK/GD32VW55x_RELEASE_V1.0.2/MSDK/cloud/alicloud/src/services/ota\iotx_ota.c ****                 OTA_LOG_ERROR("fail state of json doc of OTA");
 733              		.loc 2 238 55 discriminator 1
 734 01ac B7050000 		lui	a1,%hi(.LC33)
 735 01b0 0D46     		li	a2,3
 736 01b2 93850500 		addi	a1,a1,%lo(.LC33)
 737 01b6 97000000 		call	strncmp
 737      E7800000 
 738              	.LVL75:
 238:C:/Users/stapi/OneDrive/Desktop/GD32VW553/V1_MQTT_OK/GD32VW55X_Wifi_BLE_SDK/GD32VW55x_RELEASE_V1.0.2/MSDK/cloud/alicloud/src/services/ota\iotx_ota.c ****                 OTA_LOG_ERROR("fail state of json doc of OTA");
 739              		.loc 2 238 17 discriminator 1
 740 01be E31905EE 		bne	a0,zero,.L39
 244:C:/Users/stapi/OneDrive/Desktop/GD32VW553/V1_MQTT_OK/GD32VW55X_Wifi_BLE_SDK/GD32VW55x_RELEASE_V1.0.2/MSDK/cloud/alicloud/src/services/ota\iotx_ota.c ****             if (NULL == pvalue) {
 741              		.loc 2 244 13 is_stmt 1
 244:C:/Users/stapi/OneDrive/Desktop/GD32VW553/V1_MQTT_OK/GD32VW55X_Wifi_BLE_SDK/GD32VW55x_RELEASE_V1.0.2/MSDK/cloud/alicloud/src/services/ota\iotx_ota.c ****             if (NULL == pvalue) {
 742              		.loc 2 244 22 is_stmt 0
 743 01c2 37060000 		lui	a2,%hi(.LC28)
 744 01c6 7400     		addi	a3,sp,12
 745 01c8 13060600 		addi	a2,a2,%lo(.LC28)
 746              	.L104:
 747 01cc CE85     		mv	a1,s3
 748 01ce 4A85     		mv	a0,s2
 749 01d0 97000000 		call	otalib_JsonValueOf
 749      E7800000 
 750              	.LVL76:
 245:C:/Users/stapi/OneDrive/Desktop/GD32VW553/V1_MQTT_OK/GD32VW55X_Wifi_BLE_SDK/GD32VW55x_RELEASE_V1.0.2/MSDK/cloud/alicloud/src/services/ota\iotx_ota.c ****                 OTA_LOG_ERROR("Not 'data' key in json doc of OTA");
 751              		.loc 2 245 13 is_stmt 1
 245:C:/Users/stapi/OneDrive/Desktop/GD32VW553/V1_MQTT_OK/GD32VW55X_Wifi_BLE_SDK/GD32VW55x_RELEASE_V1.0.2/MSDK/cloud/alicloud/src/services/ota\iotx_ota.c ****                 OTA_LOG_ERROR("Not 'data' key in json doc of OTA");
 752              		.loc 2 245 16 is_stmt 0
 753 01d8 19DD     		beq	a0,zero,.L45
 250:C:/Users/stapi/OneDrive/Desktop/GD32VW553/V1_MQTT_OK/GD32VW55X_Wifi_BLE_SDK/GD32VW55x_RELEASE_V1.0.2/MSDK/cloud/alicloud/src/services/ota\iotx_ota.c ****                                             &h_ota->sign, &h_ota->signMethod, &h_ota->cota_url, &h_
 754              		.loc 2 250 13 is_stmt 1
 250:C:/Users/stapi/OneDrive/Desktop/GD32VW553/V1_MQTT_OK/GD32VW55X_Wifi_BLE_SDK/GD32VW55x_RELEASE_V1.0.2/MSDK/cloud/alicloud/src/services/ota\iotx_ota.c ****                                             &h_ota->sign, &h_ota->signMethod, &h_ota->cota_url, &h_
 755              		.loc 2 250 22 is_stmt 0
 756 01da B245     		lw	a1,12(sp)
 757 01dc 93080407 		addi	a7,s0,112
 758 01e0 1308C406 		addi	a6,s0,108
 759 01e4 93078406 		addi	a5,s0,104
 760 01e8 13074406 		addi	a4,s0,100
 761 01ec 93060406 		addi	a3,s0,96
 762 01f0 1306C405 		addi	a2,s0,92
 763 01f4 97000000 		call	otalib_GetConfigParams
 763      E7800000 
 764              	.LVL77:
 765 01fc AA84     		mv	s1,a0
 766              	.LVL78:
 250:C:/Users/stapi/OneDrive/Desktop/GD32VW553/V1_MQTT_OK/GD32VW55X_Wifi_BLE_SDK/GD32VW55x_RELEASE_V1.0.2/MSDK/cloud/alicloud/src/services/ota\iotx_ota.c ****                                             &h_ota->sign, &h_ota->signMethod, &h_ota->cota_url, &h_
 767              		.loc 2 250 16
 768 01fe 05C5     		beq	a0,zero,.L101
 252:C:/Users/stapi/OneDrive/Desktop/GD32VW553/V1_MQTT_OK/GD32VW55X_Wifi_BLE_SDK/GD32VW55x_RELEASE_V1.0.2/MSDK/cloud/alicloud/src/services/ota\iotx_ota.c ****                 return -1;
 769              		.loc 2 252 17 is_stmt 1
 252:C:/Users/stapi/OneDrive/Desktop/GD32VW553/V1_MQTT_OK/GD32VW55X_Wifi_BLE_SDK/GD32VW55x_RELEASE_V1.0.2/MSDK/cloud/alicloud/src/services/ota\iotx_ota.c ****                 return -1;
 770              		.loc 2 252 17
 771 0200 37050000 		lui	a0,%hi(.LC21)
 772 0204 13050500 		addi	a0,a0,%lo(.LC21)
 773 0208 97000000 		call	HAL_Printf
 773      E7800000 
 774              	.LVL79:
 252:C:/Users/stapi/OneDrive/Desktop/GD32VW553/V1_MQTT_OK/GD32VW55X_Wifi_BLE_SDK/GD32VW55x_RELEASE_V1.0.2/MSDK/cloud/alicloud/src/services/ota\iotx_ota.c ****                 return -1;
 775              		.loc 2 252 17
 776 0210 37050000 		lui	a0,%hi(.LC34)
 777 0214 13050500 		addi	a0,a0,%lo(.LC34)
 778 0218 09BD     		j	.L93
 779              	.LVL80:
 780              	.L36:
 285:C:/Users/stapi/OneDrive/Desktop/GD32VW553/V1_MQTT_OK/GD32VW55X_Wifi_BLE_SDK/GD32VW55x_RELEASE_V1.0.2/MSDK/cloud/alicloud/src/services/ota\iotx_ota.c ****             if (NULL == pvalue) {
 781              		.loc 2 285 13
 285:C:/Users/stapi/OneDrive/Desktop/GD32VW553/V1_MQTT_OK/GD32VW55X_Wifi_BLE_SDK/GD32VW55x_RELEASE_V1.0.2/MSDK/cloud/alicloud/src/services/ota\iotx_ota.c ****             if (NULL == pvalue) {
 782              		.loc 2 285 22 is_stmt 0
 783 021a 37060000 		lui	a2,%hi(.LC35)
 784              	.LVL81:
 785 021e 7400     		addi	a3,sp,12
 786 0220 13060600 		addi	a2,a2,%lo(.LC35)
 787 0224 65B7     		j	.L104
 788              	.LVL82:
 789              	.L101:
 297:C:/Users/stapi/OneDrive/Desktop/GD32VW553/V1_MQTT_OK/GD32VW55X_Wifi_BLE_SDK/GD32VW55x_RELEASE_V1.0.2/MSDK/cloud/alicloud/src/services/ota\iotx_ota.c ****             h_ota->size_fetched = 0;
 790              		.loc 2 297 13 is_stmt 1
 297:C:/Users/stapi/OneDrive/Desktop/GD32VW553/V1_MQTT_OK/GD32VW55X_Wifi_BLE_SDK/GD32VW55x_RELEASE_V1.0.2/MSDK/cloud/alicloud/src/services/ota\iotx_ota.c ****             h_ota->size_fetched = 0;
 791              		.loc 2 297 30 is_stmt 0
 792 0226 3C50     		lw	a5,96(s0)
 299:C:/Users/stapi/OneDrive/Desktop/GD32VW553/V1_MQTT_OK/GD32VW55X_Wifi_BLE_SDK/GD32VW55x_RELEASE_V1.0.2/MSDK/cloud/alicloud/src/services/ota\iotx_ota.c ****                 otalib_MD5Deinit(h_ota->md5);
 793              		.loc 2 299 30
 794 0228 6844     		lw	a0,76(s0)
 298:C:/Users/stapi/OneDrive/Desktop/GD32VW553/V1_MQTT_OK/GD32VW55X_Wifi_BLE_SDK/GD32VW55x_RELEASE_V1.0.2/MSDK/cloud/alicloud/src/services/ota\iotx_ota.c ****             if (NULL != h_ota->md5) {
 795              		.loc 2 298 33
 796 022a 232C0400 		sw	zero,24(s0)
 297:C:/Users/stapi/OneDrive/Desktop/GD32VW553/V1_MQTT_OK/GD32VW55X_Wifi_BLE_SDK/GD32VW55x_RELEASE_V1.0.2/MSDK/cloud/alicloud/src/services/ota\iotx_ota.c ****             h_ota->size_fetched = 0;
 797              		.loc 2 297 30
 798 022e 5CCC     		sw	a5,28(s0)
 298:C:/Users/stapi/OneDrive/Desktop/GD32VW553/V1_MQTT_OK/GD32VW55X_Wifi_BLE_SDK/GD32VW55x_RELEASE_V1.0.2/MSDK/cloud/alicloud/src/services/ota\iotx_ota.c ****             if (NULL != h_ota->md5) {
 799              		.loc 2 298 13 is_stmt 1
 299:C:/Users/stapi/OneDrive/Desktop/GD32VW553/V1_MQTT_OK/GD32VW55X_Wifi_BLE_SDK/GD32VW55x_RELEASE_V1.0.2/MSDK/cloud/alicloud/src/services/ota\iotx_ota.c ****                 otalib_MD5Deinit(h_ota->md5);
 800              		.loc 2 299 13
 299:C:/Users/stapi/OneDrive/Desktop/GD32VW553/V1_MQTT_OK/GD32VW55X_Wifi_BLE_SDK/GD32VW55x_RELEASE_V1.0.2/MSDK/cloud/alicloud/src/services/ota\iotx_ota.c ****                 otalib_MD5Deinit(h_ota->md5);
 801              		.loc 2 299 16 is_stmt 0
 802 0230 09C5     		beq	a0,zero,.L52
 300:C:/Users/stapi/OneDrive/Desktop/GD32VW553/V1_MQTT_OK/GD32VW55X_Wifi_BLE_SDK/GD32VW55x_RELEASE_V1.0.2/MSDK/cloud/alicloud/src/services/ota\iotx_ota.c ****             }
 803              		.loc 2 300 17 is_stmt 1
 804 0232 97000000 		call	otalib_MD5Deinit
 804      E7800000 
 805              	.LVL83:
 806              	.L52:
 302:C:/Users/stapi/OneDrive/Desktop/GD32VW553/V1_MQTT_OK/GD32VW55X_Wifi_BLE_SDK/GD32VW55x_RELEASE_V1.0.2/MSDK/cloud/alicloud/src/services/ota\iotx_ota.c **** 
 807              		.loc 2 302 13
 302:C:/Users/stapi/OneDrive/Desktop/GD32VW553/V1_MQTT_OK/GD32VW55X_Wifi_BLE_SDK/GD32VW55x_RELEASE_V1.0.2/MSDK/cloud/alicloud/src/services/ota\iotx_ota.c **** 
 808              		.loc 2 302 26 is_stmt 0
 809 023a 97000000 		call	otalib_MD5Init
 809      E7800000 
 810              	.LVL84:
 302:C:/Users/stapi/OneDrive/Desktop/GD32VW553/V1_MQTT_OK/GD32VW55X_Wifi_BLE_SDK/GD32VW55x_RELEASE_V1.0.2/MSDK/cloud/alicloud/src/services/ota\iotx_ota.c **** 
 811              		.loc 2 302 24
 812 0242 68C4     		sw	a0,76(s0)
 304:C:/Users/stapi/OneDrive/Desktop/GD32VW553/V1_MQTT_OK/GD32VW55X_Wifi_BLE_SDK/GD32VW55x_RELEASE_V1.0.2/MSDK/cloud/alicloud/src/services/ota\iotx_ota.c ****                 otalib_Sha256Deinit(h_ota->sha256);
 813              		.loc 2 304 13 is_stmt 1
 304:C:/Users/stapi/OneDrive/Desktop/GD32VW553/V1_MQTT_OK/GD32VW55X_Wifi_BLE_SDK/GD32VW55x_RELEASE_V1.0.2/MSDK/cloud/alicloud/src/services/ota\iotx_ota.c ****                 otalib_Sha256Deinit(h_ota->sha256);
 814              		.loc 2 304 30 is_stmt 0
 815 0244 2848     		lw	a0,80(s0)
 304:C:/Users/stapi/OneDrive/Desktop/GD32VW553/V1_MQTT_OK/GD32VW55X_Wifi_BLE_SDK/GD32VW55x_RELEASE_V1.0.2/MSDK/cloud/alicloud/src/services/ota\iotx_ota.c ****                 otalib_Sha256Deinit(h_ota->sha256);
 816              		.loc 2 304 16
 817 0246 09C5     		beq	a0,zero,.L53
 305:C:/Users/stapi/OneDrive/Desktop/GD32VW553/V1_MQTT_OK/GD32VW55X_Wifi_BLE_SDK/GD32VW55x_RELEASE_V1.0.2/MSDK/cloud/alicloud/src/services/ota\iotx_ota.c ****             }
 818              		.loc 2 305 17 is_stmt 1
 819 0248 97000000 		call	otalib_Sha256Deinit
 819      E7800000 
 820              	.LVL85:
 821              	.L53:
 307:C:/Users/stapi/OneDrive/Desktop/GD32VW553/V1_MQTT_OK/GD32VW55X_Wifi_BLE_SDK/GD32VW55x_RELEASE_V1.0.2/MSDK/cloud/alicloud/src/services/ota\iotx_ota.c **** 
 822              		.loc 2 307 13
 307:C:/Users/stapi/OneDrive/Desktop/GD32VW553/V1_MQTT_OK/GD32VW55X_Wifi_BLE_SDK/GD32VW55x_RELEASE_V1.0.2/MSDK/cloud/alicloud/src/services/ota\iotx_ota.c **** 
 823              		.loc 2 307 29 is_stmt 0
 824 0250 97000000 		call	otalib_Sha256Init
 824      E7800000 
 825              	.LVL86:
 307:C:/Users/stapi/OneDrive/Desktop/GD32VW553/V1_MQTT_OK/GD32VW55X_Wifi_BLE_SDK/GD32VW55x_RELEASE_V1.0.2/MSDK/cloud/alicloud/src/services/ota\iotx_ota.c **** 
 826              		.loc 2 307 27
 827 0258 28C8     		sw	a0,80(s0)
 309:C:/Users/stapi/OneDrive/Desktop/GD32VW553/V1_MQTT_OK/GD32VW55X_Wifi_BLE_SDK/GD32VW55x_RELEASE_V1.0.2/MSDK/cloud/alicloud/src/services/ota\iotx_ota.c ****                 OTA_LOG_ERROR("Initialize fetch module failed");
 828              		.loc 2 309 13 is_stmt 1
 309:C:/Users/stapi/OneDrive/Desktop/GD32VW553/V1_MQTT_OK/GD32VW55X_Wifi_BLE_SDK/GD32VW55x_RELEASE_V1.0.2/MSDK/cloud/alicloud/src/services/ota\iotx_ota.c ****                 OTA_LOG_ERROR("Initialize fetch module failed");
 829              		.loc 2 309 44 is_stmt 0
 830 025a 6854     		lw	a0,108(s0)
 831 025c 97000000 		call	ofc_Init
 831      E7800000 
 832              	.LVL87:
 309:C:/Users/stapi/OneDrive/Desktop/GD32VW553/V1_MQTT_OK/GD32VW55X_Wifi_BLE_SDK/GD32VW55x_RELEASE_V1.0.2/MSDK/cloud/alicloud/src/services/ota\iotx_ota.c ****                 OTA_LOG_ERROR("Initialize fetch module failed");
 833              		.loc 2 309 42
 834 0264 28CC     		sw	a0,88(s0)
 309:C:/Users/stapi/OneDrive/Desktop/GD32VW553/V1_MQTT_OK/GD32VW55X_Wifi_BLE_SDK/GD32VW55x_RELEASE_V1.0.2/MSDK/cloud/alicloud/src/services/ota\iotx_ota.c ****                 OTA_LOG_ERROR("Initialize fetch module failed");
 835              		.loc 2 309 16
 836 0266 E30805EE 		beq	a0,zero,.L49
 314:C:/Users/stapi/OneDrive/Desktop/GD32VW553/V1_MQTT_OK/GD32VW55X_Wifi_BLE_SDK/GD32VW55x_RELEASE_V1.0.2/MSDK/cloud/alicloud/src/services/ota\iotx_ota.c ****             h_ota->state = IOT_OTAS_FETCHING;
 837              		.loc 2 314 13 is_stmt 1
 314:C:/Users/stapi/OneDrive/Desktop/GD32VW553/V1_MQTT_OK/GD32VW55X_Wifi_BLE_SDK/GD32VW55x_RELEASE_V1.0.2/MSDK/cloud/alicloud/src/services/ota\iotx_ota.c ****             h_ota->state = IOT_OTAS_FETCHING;
 838              		.loc 2 314 25 is_stmt 0
 839 026a 8547     		li	a5,1
 317:C:/Users/stapi/OneDrive/Desktop/GD32VW553/V1_MQTT_OK/GD32VW55X_Wifi_BLE_SDK/GD32VW55x_RELEASE_V1.0.2/MSDK/cloud/alicloud/src/services/ota\iotx_ota.c ****                 h_ota->fetch_cota_cb(h_ota->user_data, 0, h_ota->configId, h_ota->configSize, h_ota
 840              		.loc 2 317 22
 841 026c 03230408 		lw	t1,128(s0)
 314:C:/Users/stapi/OneDrive/Desktop/GD32VW553/V1_MQTT_OK/GD32VW55X_Wifi_BLE_SDK/GD32VW55x_RELEASE_V1.0.2/MSDK/cloud/alicloud/src/services/ota\iotx_ota.c ****             h_ota->state = IOT_OTAS_FETCHING;
 842              		.loc 2 314 25
 843 0270 1CC8     		sw	a5,16(s0)
 315:C:/Users/stapi/OneDrive/Desktop/GD32VW553/V1_MQTT_OK/GD32VW55X_Wifi_BLE_SDK/GD32VW55x_RELEASE_V1.0.2/MSDK/cloud/alicloud/src/services/ota\iotx_ota.c **** 
 844              		.loc 2 315 13 is_stmt 1
 315:C:/Users/stapi/OneDrive/Desktop/GD32VW553/V1_MQTT_OK/GD32VW55X_Wifi_BLE_SDK/GD32VW55x_RELEASE_V1.0.2/MSDK/cloud/alicloud/src/services/ota\iotx_ota.c **** 
 845              		.loc 2 315 26 is_stmt 0
 846 0272 8947     		li	a5,2
 847 0274 5CC4     		sw	a5,12(s0)
 317:C:/Users/stapi/OneDrive/Desktop/GD32VW553/V1_MQTT_OK/GD32VW55X_Wifi_BLE_SDK/GD32VW55x_RELEASE_V1.0.2/MSDK/cloud/alicloud/src/services/ota\iotx_ota.c ****                 h_ota->fetch_cota_cb(h_ota->user_data, 0, h_ota->configId, h_ota->configSize, h_ota
 848              		.loc 2 317 13 is_stmt 1
 317:C:/Users/stapi/OneDrive/Desktop/GD32VW553/V1_MQTT_OK/GD32VW55X_Wifi_BLE_SDK/GD32VW55x_RELEASE_V1.0.2/MSDK/cloud/alicloud/src/services/ota\iotx_ota.c ****                 h_ota->fetch_cota_cb(h_ota->user_data, 0, h_ota->configId, h_ota->configSize, h_ota
 849              		.loc 2 317 16 is_stmt 0
 850 0276 E30203F0 		beq	t1,zero,.L50
 318:C:/Users/stapi/OneDrive/Desktop/GD32VW553/V1_MQTT_OK/GD32VW55X_Wifi_BLE_SDK/GD32VW55x_RELEASE_V1.0.2/MSDK/cloud/alicloud/src/services/ota\iotx_ota.c ****                                      h_ota->cota_url, h_ota->getType);
 851              		.loc 2 318 17 is_stmt 1
 852 027a 83280407 		lw	a7,112(s0)
 853 027e 0328C406 		lw	a6,108(s0)
 854 0282 3C54     		lw	a5,104(s0)
 855 0284 7850     		lw	a4,100(s0)
 856 0286 3450     		lw	a3,96(s0)
 857 0288 704C     		lw	a2,92(s0)
 858 028a 685C     		lw	a0,124(s0)
 859 028c 8145     		li	a1,0
 860 028e 0293     		jalr	t1
 861              	.LVL88:
 862 0290 C1BB     		j	.L30
 863              		.cfi_endproc
 864              	.LFE33:
 866              		.section	.rodata.otamqtt_GenTopicName.constprop.0.str1.4,"aMS",@progbits,1
 867              		.align	2
 868              	.LC36:
 869 0000 2F6F7461 		.string	"/ota/device/%s/%s/%s"
 869      2F646576 
 869      6963652F 
 869      25732F25 
 869      732F2573 
 870 0015 000000   		.align	2
 871              	.LC37:
 872 0018 72657420 		.string	"ret < buf_len"
 872      3C206275 
 872      665F6C65 
 872      6E00
 873 0026 0000     		.align	2
 874              	.LC38:
 875 0028 48414C5F 		.string	"HAL_Snprintf failed"
 875      536E7072 
 875      696E7466 
 875      20666169 
 875      6C656400 
 876              		.section	.text.otamqtt_GenTopicName.constprop.0,"ax",@progbits
 877              		.align	1
 879              	otamqtt_GenTopicName.constprop.0:
 880              	.LFB48:
  33:C:/Users/stapi/OneDrive/Desktop/GD32VW553/V1_MQTT_OK/GD32VW55X_Wifi_BLE_SDK/GD32VW55x_RELEASE_V1.0.2/MSDK/cloud/alicloud/src/services/ota/prot\ota_mqtt.c ****                                 const char *device_name)
 881              		.loc 1 33 12
 882              		.cfi_startproc
 883              	.LVL89:
 884 0000 17030000 		call	t0,__riscv_save_1
 884      E7020300 
 885              		.cfi_offset 8, -8
 886              		.cfi_offset 1, -4
 887              		.cfi_def_cfa_offset 16
 888              	.LVL90:
  36:C:/Users/stapi/OneDrive/Desktop/GD32VW553/V1_MQTT_OK/GD32VW55X_Wifi_BLE_SDK/GD32VW55x_RELEASE_V1.0.2/MSDK/cloud/alicloud/src/services/ota/prot\ota_mqtt.c **** 
 889              		.loc 1 36 5
  38:C:/Users/stapi/OneDrive/Desktop/GD32VW553/V1_MQTT_OK/GD32VW55X_Wifi_BLE_SDK/GD32VW55x_RELEASE_V1.0.2/MSDK/cloud/alicloud/src/services/ota/prot\ota_mqtt.c ****                        buf_len,
 890              		.loc 1 38 5
  33:C:/Users/stapi/OneDrive/Desktop/GD32VW553/V1_MQTT_OK/GD32VW55X_Wifi_BLE_SDK/GD32VW55x_RELEASE_V1.0.2/MSDK/cloud/alicloud/src/services/ota/prot\ota_mqtt.c ****                                 const char *device_name)
 891              		.loc 1 33 12 is_stmt 0
 892 0008 3287     		mv	a4,a2
  38:C:/Users/stapi/OneDrive/Desktop/GD32VW553/V1_MQTT_OK/GD32VW55X_Wifi_BLE_SDK/GD32VW55x_RELEASE_V1.0.2/MSDK/cloud/alicloud/src/services/ota/prot\ota_mqtt.c ****                        buf_len,
 893              		.loc 1 38 11
 894 000a 37060000 		lui	a2,%hi(.LC36)
 895              	.LVL91:
  33:C:/Users/stapi/OneDrive/Desktop/GD32VW553/V1_MQTT_OK/GD32VW55X_Wifi_BLE_SDK/GD32VW55x_RELEASE_V1.0.2/MSDK/cloud/alicloud/src/services/ota/prot\ota_mqtt.c ****                                 const char *device_name)
 896              		.loc 1 33 12
 897 000e B687     		mv	a5,a3
  38:C:/Users/stapi/OneDrive/Desktop/GD32VW553/V1_MQTT_OK/GD32VW55X_Wifi_BLE_SDK/GD32VW55x_RELEASE_V1.0.2/MSDK/cloud/alicloud/src/services/ota/prot\ota_mqtt.c ****                        buf_len,
 898              		.loc 1 38 11
 899 0010 13060600 		addi	a2,a2,%lo(.LC36)
 900 0014 AE86     		mv	a3,a1
 901              	.LVL92:
 902 0016 93050008 		li	a1,128
 903              	.LVL93:
 904 001a 97000000 		call	HAL_Snprintf
 904      E7800000 
 905              	.LVL94:
  45:C:/Users/stapi/OneDrive/Desktop/GD32VW553/V1_MQTT_OK/GD32VW55X_Wifi_BLE_SDK/GD32VW55x_RELEASE_V1.0.2/MSDK/cloud/alicloud/src/services/ota/prot\ota_mqtt.c **** 
 906              		.loc 1 45 5 is_stmt 1
  45:C:/Users/stapi/OneDrive/Desktop/GD32VW553/V1_MQTT_OK/GD32VW55X_Wifi_BLE_SDK/GD32VW55x_RELEASE_V1.0.2/MSDK/cloud/alicloud/src/services/ota/prot\ota_mqtt.c **** 
 907              		.loc 1 45 5
 908 0022 9307F007 		li	a5,127
 909 0026 63E7A700 		bgtu	a0,a5,.L106
 910              	.LVL95:
 911              	.L108:
  52:C:/Users/stapi/OneDrive/Desktop/GD32VW553/V1_MQTT_OK/GD32VW55X_Wifi_BLE_SDK/GD32VW55x_RELEASE_V1.0.2/MSDK/cloud/alicloud/src/services/ota/prot\ota_mqtt.c **** }
 912              		.loc 1 52 12 is_stmt 0
 913 002a 0145     		li	a0,0
 914              	.L105:
  53:C:/Users/stapi/OneDrive/Desktop/GD32VW553/V1_MQTT_OK/GD32VW55X_Wifi_BLE_SDK/GD32VW55x_RELEASE_V1.0.2/MSDK/cloud/alicloud/src/services/ota/prot\ota_mqtt.c **** 
 915              		.loc 1 53 1
 916 002c 17030000 		tail	__riscv_restore_1
 916      67000300 
 917              		.cfi_remember_state
 918              		.cfi_restore 8
 919              		.cfi_restore 1
 920              		.cfi_def_cfa_offset 0
 921              	.LVL96:
 922              	.L106:
 923              		.cfi_restore_state
 924 0034 2A84     		mv	s0,a0
  45:C:/Users/stapi/OneDrive/Desktop/GD32VW553/V1_MQTT_OK/GD32VW55X_Wifi_BLE_SDK/GD32VW55x_RELEASE_V1.0.2/MSDK/cloud/alicloud/src/services/ota/prot\ota_mqtt.c **** 
 925              		.loc 1 45 5 is_stmt 1
 926 0036 37070000 		lui	a4,%hi(.LC37)
 927 003a 37060000 		lui	a2,%hi(.LANCHOR2)
 928 003e B7050000 		lui	a1,%hi(.LC4)
 929 0042 37050000 		lui	a0,%hi(.LC5)
 930              	.LVL97:
 931 0046 13070700 		addi	a4,a4,%lo(.LC37)
 932 004a 9306D002 		li	a3,45
 933 004e 13060600 		addi	a2,a2,%lo(.LANCHOR2)
 934 0052 93850500 		addi	a1,a1,%lo(.LC4)
 935 0056 13050500 		addi	a0,a0,%lo(.LC5)
 936 005a 97000000 		call	HAL_Printf
 936      E7800000 
 937              	.LVL98:
  45:C:/Users/stapi/OneDrive/Desktop/GD32VW553/V1_MQTT_OK/GD32VW55X_Wifi_BLE_SDK/GD32VW55x_RELEASE_V1.0.2/MSDK/cloud/alicloud/src/services/ota/prot\ota_mqtt.c **** 
 938              		.loc 1 45 5
  47:C:/Users/stapi/OneDrive/Desktop/GD32VW553/V1_MQTT_OK/GD32VW55X_Wifi_BLE_SDK/GD32VW55x_RELEASE_V1.0.2/MSDK/cloud/alicloud/src/services/ota/prot\ota_mqtt.c ****         OTA_LOG_ERROR("HAL_Snprintf failed");
 939              		.loc 1 47 5
  47:C:/Users/stapi/OneDrive/Desktop/GD32VW553/V1_MQTT_OK/GD32VW55X_Wifi_BLE_SDK/GD32VW55x_RELEASE_V1.0.2/MSDK/cloud/alicloud/src/services/ota/prot\ota_mqtt.c ****         OTA_LOG_ERROR("HAL_Snprintf failed");
 940              		.loc 1 47 8 is_stmt 0
 941 0062 E35404FC 		bge	s0,zero,.L108
 942              	.LVL99:
 943              	.LBB9:
 944              	.LBB10:
  48:C:/Users/stapi/OneDrive/Desktop/GD32VW553/V1_MQTT_OK/GD32VW55X_Wifi_BLE_SDK/GD32VW55x_RELEASE_V1.0.2/MSDK/cloud/alicloud/src/services/ota/prot\ota_mqtt.c ****         return -1;
 945              		.loc 1 48 9 is_stmt 1
  48:C:/Users/stapi/OneDrive/Desktop/GD32VW553/V1_MQTT_OK/GD32VW55X_Wifi_BLE_SDK/GD32VW55x_RELEASE_V1.0.2/MSDK/cloud/alicloud/src/services/ota/prot\ota_mqtt.c ****         return -1;
 946              		.loc 1 48 9
 947 0066 37050000 		lui	a0,%hi(.LC21)
 948 006a 13050500 		addi	a0,a0,%lo(.LC21)
 949 006e 97000000 		call	HAL_Printf
 949      E7800000 
 950              	.LVL100:
  48:C:/Users/stapi/OneDrive/Desktop/GD32VW553/V1_MQTT_OK/GD32VW55X_Wifi_BLE_SDK/GD32VW55x_RELEASE_V1.0.2/MSDK/cloud/alicloud/src/services/ota/prot\ota_mqtt.c ****         return -1;
 951              		.loc 1 48 9
 952 0076 37050000 		lui	a0,%hi(.LC38)
 953 007a 13050500 		addi	a0,a0,%lo(.LC38)
 954 007e 97000000 		call	HAL_Printf
 954      E7800000 
 955              	.LVL101:
  48:C:/Users/stapi/OneDrive/Desktop/GD32VW553/V1_MQTT_OK/GD32VW55X_Wifi_BLE_SDK/GD32VW55x_RELEASE_V1.0.2/MSDK/cloud/alicloud/src/services/ota/prot\ota_mqtt.c ****         return -1;
 956              		.loc 1 48 9
 957 0086 37050000 		lui	a0,%hi(.LC11)
 958 008a 13050500 		addi	a0,a0,%lo(.LC11)
 959 008e 97000000 		call	HAL_Printf
 959      E7800000 
 960              	.LVL102:
  48:C:/Users/stapi/OneDrive/Desktop/GD32VW553/V1_MQTT_OK/GD32VW55X_Wifi_BLE_SDK/GD32VW55x_RELEASE_V1.0.2/MSDK/cloud/alicloud/src/services/ota/prot\ota_mqtt.c ****         return -1;
 961              		.loc 1 48 9
  49:C:/Users/stapi/OneDrive/Desktop/GD32VW553/V1_MQTT_OK/GD32VW55X_Wifi_BLE_SDK/GD32VW55x_RELEASE_V1.0.2/MSDK/cloud/alicloud/src/services/ota/prot\ota_mqtt.c ****     }
 962              		.loc 1 49 9
  48:C:/Users/stapi/OneDrive/Desktop/GD32VW553/V1_MQTT_OK/GD32VW55X_Wifi_BLE_SDK/GD32VW55x_RELEASE_V1.0.2/MSDK/cloud/alicloud/src/services/ota/prot\ota_mqtt.c ****         return -1;
 963              		.loc 1 48 9 is_stmt 0
 964 0096 7D55     		li	a0,-1
 965 0098 51BF     		j	.L105
 966              	.LBE10:
 967              	.LBE9:
 968              		.cfi_endproc
 969              	.LFE48:
 971              		.section	.rodata.otamqtt_Publish.str1.4,"aMS",@progbits,1
 972              		.align	2
 973              	.LC39:
 974 0000 67656E65 		.string	"generate topic name of info failed"
 974      72617465 
 974      20746F70 
 974      6963206E 
 974      616D6520 
 975              		.section	.text.otamqtt_Publish,"ax",@progbits
 976              		.align	1
 978              	otamqtt_Publish:
 979              	.LFB21:
  57:C:/Users/stapi/OneDrive/Desktop/GD32VW553/V1_MQTT_OK/GD32VW55X_Wifi_BLE_SDK/GD32VW55x_RELEASE_V1.0.2/MSDK/cloud/alicloud/src/services/ota/prot\ota_mqtt.c ****     int ret;
 980              		.loc 1 57 1 is_stmt 1
 981              		.cfi_startproc
 982              	.LVL103:
 983 0000 17030000 		call	t0,__riscv_save_1
 983      E7020300 
 984              		.cfi_offset 8, -8
 985              		.cfi_offset 1, -4
 986              		.cfi_def_cfa_offset 16
  58:C:/Users/stapi/OneDrive/Desktop/GD32VW553/V1_MQTT_OK/GD32VW55X_Wifi_BLE_SDK/GD32VW55x_RELEASE_V1.0.2/MSDK/cloud/alicloud/src/services/ota/prot\ota_mqtt.c ****     char topic_name[OTA_MQTT_TOPIC_LEN];
 987              		.loc 1 58 5
  59:C:/Users/stapi/OneDrive/Desktop/GD32VW553/V1_MQTT_OK/GD32VW55X_Wifi_BLE_SDK/GD32VW55x_RELEASE_V1.0.2/MSDK/cloud/alicloud/src/services/ota/prot\ota_mqtt.c ****     iotx_mqtt_topic_info_t topic_info;
 988              		.loc 1 59 5
  60:C:/Users/stapi/OneDrive/Desktop/GD32VW553/V1_MQTT_OK/GD32VW55X_Wifi_BLE_SDK/GD32VW55x_RELEASE_V1.0.2/MSDK/cloud/alicloud/src/services/ota/prot\ota_mqtt.c **** 
 989              		.loc 1 60 5
  62:C:/Users/stapi/OneDrive/Desktop/GD32VW553/V1_MQTT_OK/GD32VW55X_Wifi_BLE_SDK/GD32VW55x_RELEASE_V1.0.2/MSDK/cloud/alicloud/src/services/ota/prot\ota_mqtt.c **** 
 990              		.loc 1 62 5
  57:C:/Users/stapi/OneDrive/Desktop/GD32VW553/V1_MQTT_OK/GD32VW55X_Wifi_BLE_SDK/GD32VW55x_RELEASE_V1.0.2/MSDK/cloud/alicloud/src/services/ota/prot\ota_mqtt.c ****     int ret;
 991              		.loc 1 57 1 is_stmt 0
 992 0008 7171     		addi	sp,sp,-176
 993              		.cfi_def_cfa_offset 192
  62:C:/Users/stapi/OneDrive/Desktop/GD32VW553/V1_MQTT_OK/GD32VW55X_Wifi_BLE_SDK/GD32VW55x_RELEASE_V1.0.2/MSDK/cloud/alicloud/src/services/ota/prot\ota_mqtt.c **** 
 994              		.loc 1 62 5
 995 000a 02CE     		sw	zero,28(sp)
 996 000c 02D0     		sw	zero,32(sp)
 997 000e 02D2     		sw	zero,36(sp)
 998 0010 02D4     		sw	zero,40(sp)
  64:C:/Users/stapi/OneDrive/Desktop/GD32VW553/V1_MQTT_OK/GD32VW55X_Wifi_BLE_SDK/GD32VW55x_RELEASE_V1.0.2/MSDK/cloud/alicloud/src/services/ota/prot\ota_mqtt.c ****         topic_info.qos = IOTX_MQTT_QOS0;
 999              		.loc 1 64 5 is_stmt 1
  57:C:/Users/stapi/OneDrive/Desktop/GD32VW553/V1_MQTT_OK/GD32VW55X_Wifi_BLE_SDK/GD32VW55x_RELEASE_V1.0.2/MSDK/cloud/alicloud/src/services/ota/prot\ota_mqtt.c ****     int ret;
 1000              		.loc 1 57 1 is_stmt 0
 1001 0012 2A84     		mv	s0,a0
 1002 0014 3685     		mv	a0,a3
 1003              	.LVL104:
  64:C:/Users/stapi/OneDrive/Desktop/GD32VW553/V1_MQTT_OK/GD32VW55X_Wifi_BLE_SDK/GD32VW55x_RELEASE_V1.0.2/MSDK/cloud/alicloud/src/services/ota/prot\ota_mqtt.c ****         topic_info.qos = IOTX_MQTT_QOS0;
 1004              		.loc 1 64 8
 1005 0016 01C6     		beq	a2,zero,.L111
  67:C:/Users/stapi/OneDrive/Desktop/GD32VW553/V1_MQTT_OK/GD32VW55X_Wifi_BLE_SDK/GD32VW55x_RELEASE_V1.0.2/MSDK/cloud/alicloud/src/services/ota/prot\ota_mqtt.c ****     }
 1006              		.loc 1 67 9 is_stmt 1
  67:C:/Users/stapi/OneDrive/Desktop/GD32VW553/V1_MQTT_OK/GD32VW55X_Wifi_BLE_SDK/GD32VW55x_RELEASE_V1.0.2/MSDK/cloud/alicloud/src/services/ota/prot\ota_mqtt.c ****     }
 1007              		.loc 1 67 24 is_stmt 0
 1008 0018 8547     		li	a5,1
 1009 001a 230FF100 		sb	a5,30(sp)
 1010              	.L111:
 1011 001e 2EC6     		sw	a1,12(sp)
  69:C:/Users/stapi/OneDrive/Desktop/GD32VW553/V1_MQTT_OK/GD32VW55X_Wifi_BLE_SDK/GD32VW55x_RELEASE_V1.0.2/MSDK/cloud/alicloud/src/services/ota/prot\ota_mqtt.c ****     topic_info.payload_len = strlen(msg);
 1012              		.loc 1 69 5 is_stmt 1
  69:C:/Users/stapi/OneDrive/Desktop/GD32VW553/V1_MQTT_OK/GD32VW55X_Wifi_BLE_SDK/GD32VW55x_RELEASE_V1.0.2/MSDK/cloud/alicloud/src/services/ota/prot\ota_mqtt.c ****     topic_info.payload_len = strlen(msg);
 1013              		.loc 1 69 24 is_stmt 0
 1014 0020 2AD6     		sw	a0,44(sp)
  70:C:/Users/stapi/OneDrive/Desktop/GD32VW553/V1_MQTT_OK/GD32VW55X_Wifi_BLE_SDK/GD32VW55x_RELEASE_V1.0.2/MSDK/cloud/alicloud/src/services/ota/prot\ota_mqtt.c **** 
 1015              		.loc 1 70 5 is_stmt 1
  70:C:/Users/stapi/OneDrive/Desktop/GD32VW553/V1_MQTT_OK/GD32VW55X_Wifi_BLE_SDK/GD32VW55x_RELEASE_V1.0.2/MSDK/cloud/alicloud/src/services/ota/prot\ota_mqtt.c **** 
 1016              		.loc 1 70 30 is_stmt 0
 1017 0022 97000000 		call	strlen
 1017      E7800000 
 1018              	.LVL105:
  73:C:/Users/stapi/OneDrive/Desktop/GD32VW553/V1_MQTT_OK/GD32VW55X_Wifi_BLE_SDK/GD32VW55x_RELEASE_V1.0.2/MSDK/cloud/alicloud/src/services/ota/prot\ota_mqtt.c ****     if (ret < 0) {
 1019              		.loc 1 73 11
 1020 002a 1444     		lw	a3,8(s0)
 1021 002c 5040     		lw	a2,4(s0)
 1022 002e B245     		lw	a1,12(sp)
  70:C:/Users/stapi/OneDrive/Desktop/GD32VW553/V1_MQTT_OK/GD32VW55X_Wifi_BLE_SDK/GD32VW55x_RELEASE_V1.0.2/MSDK/cloud/alicloud/src/services/ota/prot\ota_mqtt.c **** 
 1023              		.loc 1 70 28
 1024 0030 2AD2     		sw	a0,36(sp)
  73:C:/Users/stapi/OneDrive/Desktop/GD32VW553/V1_MQTT_OK/GD32VW55X_Wifi_BLE_SDK/GD32VW55x_RELEASE_V1.0.2/MSDK/cloud/alicloud/src/services/ota/prot\ota_mqtt.c ****     if (ret < 0) {
 1025              		.loc 1 73 5 is_stmt 1
  73:C:/Users/stapi/OneDrive/Desktop/GD32VW553/V1_MQTT_OK/GD32VW55X_Wifi_BLE_SDK/GD32VW55x_RELEASE_V1.0.2/MSDK/cloud/alicloud/src/services/ota/prot\ota_mqtt.c ****     if (ret < 0) {
 1026              		.loc 1 73 11 is_stmt 0
 1027 0032 0818     		addi	a0,sp,48
 1028 0034 97000000 		call	otamqtt_GenTopicName.constprop.0
 1028      E7800000 
 1029              	.LVL106:
  74:C:/Users/stapi/OneDrive/Desktop/GD32VW553/V1_MQTT_OK/GD32VW55X_Wifi_BLE_SDK/GD32VW55x_RELEASE_V1.0.2/MSDK/cloud/alicloud/src/services/ota/prot\ota_mqtt.c ****         OTA_LOG_ERROR("generate topic name of info failed");
 1030              		.loc 1 74 5 is_stmt 1
  74:C:/Users/stapi/OneDrive/Desktop/GD32VW553/V1_MQTT_OK/GD32VW55X_Wifi_BLE_SDK/GD32VW55x_RELEASE_V1.0.2/MSDK/cloud/alicloud/src/services/ota/prot\ota_mqtt.c ****         OTA_LOG_ERROR("generate topic name of info failed");
 1031              		.loc 1 74 8 is_stmt 0
 1032 003c 63510504 		bge	a0,zero,.L112
  75:C:/Users/stapi/OneDrive/Desktop/GD32VW553/V1_MQTT_OK/GD32VW55X_Wifi_BLE_SDK/GD32VW55x_RELEASE_V1.0.2/MSDK/cloud/alicloud/src/services/ota/prot\ota_mqtt.c ****         return -1;
 1033              		.loc 1 75 9 is_stmt 1
  75:C:/Users/stapi/OneDrive/Desktop/GD32VW553/V1_MQTT_OK/GD32VW55X_Wifi_BLE_SDK/GD32VW55x_RELEASE_V1.0.2/MSDK/cloud/alicloud/src/services/ota/prot\ota_mqtt.c ****         return -1;
 1034              		.loc 1 75 9
 1035 0040 37050000 		lui	a0,%hi(.LC21)
 1036              	.LVL107:
 1037 0044 13050500 		addi	a0,a0,%lo(.LC21)
 1038 0048 97000000 		call	HAL_Printf
 1038      E7800000 
 1039              	.LVL108:
  75:C:/Users/stapi/OneDrive/Desktop/GD32VW553/V1_MQTT_OK/GD32VW55X_Wifi_BLE_SDK/GD32VW55x_RELEASE_V1.0.2/MSDK/cloud/alicloud/src/services/ota/prot\ota_mqtt.c ****         return -1;
 1040              		.loc 1 75 9
 1041 0050 37050000 		lui	a0,%hi(.LC39)
 1042 0054 13050500 		addi	a0,a0,%lo(.LC39)
 1043 0058 97000000 		call	HAL_Printf
 1043      E7800000 
 1044              	.LVL109:
  75:C:/Users/stapi/OneDrive/Desktop/GD32VW553/V1_MQTT_OK/GD32VW55X_Wifi_BLE_SDK/GD32VW55x_RELEASE_V1.0.2/MSDK/cloud/alicloud/src/services/ota/prot\ota_mqtt.c ****         return -1;
 1045              		.loc 1 75 9
 1046 0060 37050000 		lui	a0,%hi(.LC11)
 1047 0064 13050500 		addi	a0,a0,%lo(.LC11)
 1048 0068 97000000 		call	HAL_Printf
 1048      E7800000 
 1049              	.LVL110:
  75:C:/Users/stapi/OneDrive/Desktop/GD32VW553/V1_MQTT_OK/GD32VW55X_Wifi_BLE_SDK/GD32VW55x_RELEASE_V1.0.2/MSDK/cloud/alicloud/src/services/ota/prot\ota_mqtt.c ****         return -1;
 1050              		.loc 1 75 9
  76:C:/Users/stapi/OneDrive/Desktop/GD32VW553/V1_MQTT_OK/GD32VW55X_Wifi_BLE_SDK/GD32VW55x_RELEASE_V1.0.2/MSDK/cloud/alicloud/src/services/ota/prot\ota_mqtt.c ****     }
 1051              		.loc 1 76 9
  76:C:/Users/stapi/OneDrive/Desktop/GD32VW553/V1_MQTT_OK/GD32VW55X_Wifi_BLE_SDK/GD32VW55x_RELEASE_V1.0.2/MSDK/cloud/alicloud/src/services/ota/prot\ota_mqtt.c ****     }
 1052              		.loc 1 76 16 is_stmt 0
 1053 0070 FD57     		li	a5,-1
 1054              	.L110:
  86:C:/Users/stapi/OneDrive/Desktop/GD32VW553/V1_MQTT_OK/GD32VW55X_Wifi_BLE_SDK/GD32VW55x_RELEASE_V1.0.2/MSDK/cloud/alicloud/src/services/ota/prot\ota_mqtt.c **** 
 1055              		.loc 1 86 1
 1056 0072 3E85     		mv	a0,a5
 1057 0074 4D61     		addi	sp,sp,176
 1058              		.cfi_remember_state
 1059              		.cfi_def_cfa_offset 0
 1060              	.LVL111:
 1061 0076 17030000 		tail	__riscv_restore_1
 1061      67000300 
 1062              		.cfi_restore 8
 1063              		.cfi_restore 1
 1064              		.cfi_def_cfa_offset -16
 1065              	.LVL112:
 1066              	.L112:
 1067              		.cfi_restore_state
  79:C:/Users/stapi/OneDrive/Desktop/GD32VW553/V1_MQTT_OK/GD32VW55X_Wifi_BLE_SDK/GD32VW55x_RELEASE_V1.0.2/MSDK/cloud/alicloud/src/services/ota/prot\ota_mqtt.c ****     if (ret < 0) {
 1068              		.loc 1 79 5 is_stmt 1
  79:C:/Users/stapi/OneDrive/Desktop/GD32VW553/V1_MQTT_OK/GD32VW55X_Wifi_BLE_SDK/GD32VW55x_RELEASE_V1.0.2/MSDK/cloud/alicloud/src/services/ota/prot\ota_mqtt.c ****     if (ret < 0) {
 1069              		.loc 1 79 11 is_stmt 0
 1070 007e 0840     		lw	a0,0(s0)
 1071              	.LVL113:
 1072 0080 7008     		addi	a2,sp,28
 1073 0082 0C18     		addi	a1,sp,48
 1074 0084 97000000 		call	IOT_MQTT_Publish
 1074      E7800000 
 1075              	.LVL114:
  80:C:/Users/stapi/OneDrive/Desktop/GD32VW553/V1_MQTT_OK/GD32VW55X_Wifi_BLE_SDK/GD32VW55x_RELEASE_V1.0.2/MSDK/cloud/alicloud/src/services/ota/prot\ota_mqtt.c ****         OTA_LOG_ERROR("publish failed");
 1076              		.loc 1 80 5 is_stmt 1
  85:C:/Users/stapi/OneDrive/Desktop/GD32VW553/V1_MQTT_OK/GD32VW55X_Wifi_BLE_SDK/GD32VW55x_RELEASE_V1.0.2/MSDK/cloud/alicloud/src/services/ota/prot\ota_mqtt.c **** }
 1077              		.loc 1 85 12 is_stmt 0
 1078 008c 8147     		li	a5,0
  80:C:/Users/stapi/OneDrive/Desktop/GD32VW553/V1_MQTT_OK/GD32VW55X_Wifi_BLE_SDK/GD32VW55x_RELEASE_V1.0.2/MSDK/cloud/alicloud/src/services/ota/prot\ota_mqtt.c ****         OTA_LOG_ERROR("publish failed");
 1079              		.loc 1 80 8
 1080 008e E35205FE 		bge	a0,zero,.L110
  81:C:/Users/stapi/OneDrive/Desktop/GD32VW553/V1_MQTT_OK/GD32VW55X_Wifi_BLE_SDK/GD32VW55x_RELEASE_V1.0.2/MSDK/cloud/alicloud/src/services/ota/prot\ota_mqtt.c ****         return IOT_OTAE_OSC_FAILED;
 1081              		.loc 1 81 9 is_stmt 1
  81:C:/Users/stapi/OneDrive/Desktop/GD32VW553/V1_MQTT_OK/GD32VW55X_Wifi_BLE_SDK/GD32VW55x_RELEASE_V1.0.2/MSDK/cloud/alicloud/src/services/ota/prot\ota_mqtt.c ****         return IOT_OTAE_OSC_FAILED;
 1082              		.loc 1 81 9
 1083 0092 37050000 		lui	a0,%hi(.LC21)
 1084              	.LVL115:
 1085 0096 13050500 		addi	a0,a0,%lo(.LC21)
 1086 009a 97000000 		call	HAL_Printf
 1086      E7800000 
 1087              	.LVL116:
  81:C:/Users/stapi/OneDrive/Desktop/GD32VW553/V1_MQTT_OK/GD32VW55X_Wifi_BLE_SDK/GD32VW55x_RELEASE_V1.0.2/MSDK/cloud/alicloud/src/services/ota/prot\ota_mqtt.c ****         return IOT_OTAE_OSC_FAILED;
 1088              		.loc 1 81 9
 1089 00a2 37050000 		lui	a0,%hi(.LC22)
 1090 00a6 13050500 		addi	a0,a0,%lo(.LC22)
 1091 00aa 97000000 		call	HAL_Printf
 1091      E7800000 
 1092              	.LVL117:
  81:C:/Users/stapi/OneDrive/Desktop/GD32VW553/V1_MQTT_OK/GD32VW55X_Wifi_BLE_SDK/GD32VW55x_RELEASE_V1.0.2/MSDK/cloud/alicloud/src/services/ota/prot\ota_mqtt.c ****         return IOT_OTAE_OSC_FAILED;
 1093              		.loc 1 81 9
 1094 00b2 37050000 		lui	a0,%hi(.LC11)
 1095 00b6 13050500 		addi	a0,a0,%lo(.LC11)
 1096 00ba 97000000 		call	HAL_Printf
 1096      E7800000 
 1097              	.LVL118:
  81:C:/Users/stapi/OneDrive/Desktop/GD32VW553/V1_MQTT_OK/GD32VW55X_Wifi_BLE_SDK/GD32VW55x_RELEASE_V1.0.2/MSDK/cloud/alicloud/src/services/ota/prot\ota_mqtt.c ****         return IOT_OTAE_OSC_FAILED;
 1098              		.loc 1 81 9
  82:C:/Users/stapi/OneDrive/Desktop/GD32VW553/V1_MQTT_OK/GD32VW55X_Wifi_BLE_SDK/GD32VW55x_RELEASE_V1.0.2/MSDK/cloud/alicloud/src/services/ota/prot\ota_mqtt.c ****     }
 1099              		.loc 1 82 9
  82:C:/Users/stapi/OneDrive/Desktop/GD32VW553/V1_MQTT_OK/GD32VW55X_Wifi_BLE_SDK/GD32VW55x_RELEASE_V1.0.2/MSDK/cloud/alicloud/src/services/ota/prot\ota_mqtt.c ****     }
 1100              		.loc 1 82 16 is_stmt 0
 1101 00c2 E557     		li	a5,-7
 1102 00c4 7DB7     		j	.L110
 1103              		.cfi_endproc
 1104              	.LFE21:
 1106              		.section	.text.otamqtt_publish_full_topic.isra.0,"ax",@progbits
 1107              		.align	1
 1109              	otamqtt_publish_full_topic.isra.0:
 1110              	.LFB47:
  88:C:/Users/stapi/OneDrive/Desktop/GD32VW553/V1_MQTT_OK/GD32VW55X_Wifi_BLE_SDK/GD32VW55x_RELEASE_V1.0.2/MSDK/cloud/alicloud/src/services/ota/prot\ota_mqtt.c ****                                       iotx_mqtt_topic_info_pt topic_msg)
 1111              		.loc 1 88 12 is_stmt 1
 1112              		.cfi_startproc
 1113              	.LVL119:
 1114 0000 17030000 		call	t0,__riscv_save_0
 1114      E7020300 
 1115              		.cfi_offset 1, -4
 1116              		.cfi_def_cfa_offset 16
 1117              	.LVL120:
  91:C:/Users/stapi/OneDrive/Desktop/GD32VW553/V1_MQTT_OK/GD32VW55X_Wifi_BLE_SDK/GD32VW55x_RELEASE_V1.0.2/MSDK/cloud/alicloud/src/services/ota/prot\ota_mqtt.c ****         OTA_LOG_ERROR("publish failed");
 1118              		.loc 1 91 5
  91:C:/Users/stapi/OneDrive/Desktop/GD32VW553/V1_MQTT_OK/GD32VW55X_Wifi_BLE_SDK/GD32VW55x_RELEASE_V1.0.2/MSDK/cloud/alicloud/src/services/ota/prot\ota_mqtt.c ****         OTA_LOG_ERROR("publish failed");
 1119              		.loc 1 91 9 is_stmt 0
 1120 0008 97000000 		call	IOT_MQTT_Publish
 1120      E7800000 
 1121              	.LVL121:
  91:C:/Users/stapi/OneDrive/Desktop/GD32VW553/V1_MQTT_OK/GD32VW55X_Wifi_BLE_SDK/GD32VW55x_RELEASE_V1.0.2/MSDK/cloud/alicloud/src/services/ota/prot\ota_mqtt.c ****         OTA_LOG_ERROR("publish failed");
 1122              		.loc 1 91 8
 1123 0010 635F0502 		bge	a0,zero,.L121
  92:C:/Users/stapi/OneDrive/Desktop/GD32VW553/V1_MQTT_OK/GD32VW55X_Wifi_BLE_SDK/GD32VW55x_RELEASE_V1.0.2/MSDK/cloud/alicloud/src/services/ota/prot\ota_mqtt.c ****         return IOT_OTAE_OSC_FAILED;
 1124              		.loc 1 92 9 is_stmt 1
  92:C:/Users/stapi/OneDrive/Desktop/GD32VW553/V1_MQTT_OK/GD32VW55X_Wifi_BLE_SDK/GD32VW55x_RELEASE_V1.0.2/MSDK/cloud/alicloud/src/services/ota/prot\ota_mqtt.c ****         return IOT_OTAE_OSC_FAILED;
 1125              		.loc 1 92 9
 1126 0014 37050000 		lui	a0,%hi(.LC21)
 1127 0018 13050500 		addi	a0,a0,%lo(.LC21)
 1128 001c 97000000 		call	HAL_Printf
 1128      E7800000 
 1129              	.LVL122:
  92:C:/Users/stapi/OneDrive/Desktop/GD32VW553/V1_MQTT_OK/GD32VW55X_Wifi_BLE_SDK/GD32VW55x_RELEASE_V1.0.2/MSDK/cloud/alicloud/src/services/ota/prot\ota_mqtt.c ****         return IOT_OTAE_OSC_FAILED;
 1130              		.loc 1 92 9
 1131 0024 37050000 		lui	a0,%hi(.LC22)
 1132 0028 13050500 		addi	a0,a0,%lo(.LC22)
 1133 002c 97000000 		call	HAL_Printf
 1133      E7800000 
 1134              	.LVL123:
  92:C:/Users/stapi/OneDrive/Desktop/GD32VW553/V1_MQTT_OK/GD32VW55X_Wifi_BLE_SDK/GD32VW55x_RELEASE_V1.0.2/MSDK/cloud/alicloud/src/services/ota/prot\ota_mqtt.c ****         return IOT_OTAE_OSC_FAILED;
 1135              		.loc 1 92 9
 1136 0034 37050000 		lui	a0,%hi(.LC11)
 1137 0038 13050500 		addi	a0,a0,%lo(.LC11)
 1138 003c 97000000 		call	HAL_Printf
 1138      E7800000 
 1139              	.LVL124:
  92:C:/Users/stapi/OneDrive/Desktop/GD32VW553/V1_MQTT_OK/GD32VW55X_Wifi_BLE_SDK/GD32VW55x_RELEASE_V1.0.2/MSDK/cloud/alicloud/src/services/ota/prot\ota_mqtt.c ****         return IOT_OTAE_OSC_FAILED;
 1140              		.loc 1 92 9
  93:C:/Users/stapi/OneDrive/Desktop/GD32VW553/V1_MQTT_OK/GD32VW55X_Wifi_BLE_SDK/GD32VW55x_RELEASE_V1.0.2/MSDK/cloud/alicloud/src/services/ota/prot\ota_mqtt.c ****     }
 1141              		.loc 1 93 9
  93:C:/Users/stapi/OneDrive/Desktop/GD32VW553/V1_MQTT_OK/GD32VW55X_Wifi_BLE_SDK/GD32VW55x_RELEASE_V1.0.2/MSDK/cloud/alicloud/src/services/ota/prot\ota_mqtt.c ****     }
 1142              		.loc 1 93 16 is_stmt 0
 1143 0044 6555     		li	a0,-7
 1144              	.L119:
  97:C:/Users/stapi/OneDrive/Desktop/GD32VW553/V1_MQTT_OK/GD32VW55X_Wifi_BLE_SDK/GD32VW55x_RELEASE_V1.0.2/MSDK/cloud/alicloud/src/services/ota/prot\ota_mqtt.c **** 
 1145              		.loc 1 97 1
 1146 0046 17030000 		tail	__riscv_restore_0
 1146      67000300 
 1147              		.cfi_remember_state
 1148              		.cfi_restore 1
 1149              		.cfi_def_cfa_offset 0
 1150              	.L121:
 1151              		.cfi_restore_state
  96:C:/Users/stapi/OneDrive/Desktop/GD32VW553/V1_MQTT_OK/GD32VW55X_Wifi_BLE_SDK/GD32VW55x_RELEASE_V1.0.2/MSDK/cloud/alicloud/src/services/ota/prot\ota_mqtt.c **** }
 1152              		.loc 1 96 12
 1153 004e 0145     		li	a0,0
 1154 0050 DDBF     		j	.L119
 1155              		.cfi_endproc
 1156              	.LFE47:
 1158              		.section	.rodata.osc_Init.str1.4,"aMS",@progbits,1
 1159              		.align	2
 1160              	.LC40:
 1161 0000 616C6C6F 		.string	"allocate for h_osc failed"
 1161      63617465 
 1161      20666F72 
 1161      20685F6F 
 1161      73632066 
 1162 001a 0000     		.align	2
 1163              	.LC41:
 1164 001c 72657175 		.string	"request"
 1164      65737400 
 1165              		.align	2
 1166              	.LC42:
 1167 0024 67656E65 		.string	"generate topic name of request failed"
 1167      72617465 
 1167      20746F70 
 1167      6963206E 
 1167      616D6520 
 1168 004a 0000     		.align	2
 1169              	.LC43:
 1170 004c 6D717474 		.string	"mqtt subscribe failed"
 1170      20737562 
 1170      73637269 
 1170      62652066 
 1170      61696C65 
 1171 0062 0000     		.align	2
 1172              	.LC44:
 1173 0064 75706772 		.string	"upgrade"
 1173      61646500 
 1174              		.align	2
 1175              	.LC45:
 1176 006c 67656E65 		.string	"generate topic name of upgrade failed"
 1176      72617465 
 1176      20746F70 
 1176      6963206E 
 1176      616D6520 
 1177 0092 0000     		.align	2
 1178              	.LC46:
 1179 0094 2F737973 		.string	"/sys/%s/%s/thing/config/get_reply"
 1179      2F25732F 
 1179      25732F74 
 1179      68696E67 
 1179      2F636F6E 
 1180 00b6 0000     		.align	2
 1181              	.LC47:
 1182 00b8 67656E65 		.string	"generate topic name of config get failed"
 1182      72617465 
 1182      20746F70 
 1182      6963206E 
 1182      616D6520 
 1183 00e1 000000   		.align	2
 1184              	.LC48:
 1185 00e4 2F737973 		.string	"/sys/%s/%s/thing/config/push"
 1185      2F25732F 
 1185      25732F74 
 1185      68696E67 
 1185      2F636F6E 
 1186              		.section	.text.osc_Init,"ax",@progbits
 1187              		.align	1
 1188              		.globl	osc_Init
 1190              	osc_Init:
 1191              	.LFB24:
 168:C:/Users/stapi/OneDrive/Desktop/GD32VW553/V1_MQTT_OK/GD32VW55X_Wifi_BLE_SDK/GD32VW55x_RELEASE_V1.0.2/MSDK/cloud/alicloud/src/services/ota/prot\ota_mqtt.c **** 
 169:C:/Users/stapi/OneDrive/Desktop/GD32VW553/V1_MQTT_OK/GD32VW55X_Wifi_BLE_SDK/GD32VW55x_RELEASE_V1.0.2/MSDK/cloud/alicloud/src/services/ota/prot\ota_mqtt.c **** void *osc_Init(const char *product_key, const char *device_name, void *ch_signal, ota_cb_fpt cb, vo
 170:C:/Users/stapi/OneDrive/Desktop/GD32VW553/V1_MQTT_OK/GD32VW55X_Wifi_BLE_SDK/GD32VW55x_RELEASE_V1.0.2/MSDK/cloud/alicloud/src/services/ota/prot\ota_mqtt.c **** {
 1192              		.loc 1 170 1 is_stmt 1
 1193              		.cfi_startproc
 1194              	.LVL125:
 1195 0000 17030000 		call	t0,__riscv_save_8
 1195      E7020300 
 1196              		.cfi_offset 23, -36
 1197              		.cfi_offset 22, -32
 1198              		.cfi_offset 21, -28
 1199              		.cfi_offset 20, -24
 1200              		.cfi_offset 19, -20
 1201              		.cfi_offset 18, -16
 1202              		.cfi_offset 9, -12
 1203              		.cfi_offset 8, -8
 1204              		.cfi_offset 1, -4
 1205              		.cfi_def_cfa_offset 48
 171:C:/Users/stapi/OneDrive/Desktop/GD32VW553/V1_MQTT_OK/GD32VW55X_Wifi_BLE_SDK/GD32VW55x_RELEASE_V1.0.2/MSDK/cloud/alicloud/src/services/ota/prot\ota_mqtt.c ****     int ret;
 1206              		.loc 1 171 5
 172:C:/Users/stapi/OneDrive/Desktop/GD32VW553/V1_MQTT_OK/GD32VW55X_Wifi_BLE_SDK/GD32VW55x_RELEASE_V1.0.2/MSDK/cloud/alicloud/src/services/ota/prot\ota_mqtt.c ****     otamqtt_Struct_pt h_osc = NULL;
 1207              		.loc 1 172 5
 1208              	.LVL126:
 173:C:/Users/stapi/OneDrive/Desktop/GD32VW553/V1_MQTT_OK/GD32VW55X_Wifi_BLE_SDK/GD32VW55x_RELEASE_V1.0.2/MSDK/cloud/alicloud/src/services/ota/prot\ota_mqtt.c **** 
 174:C:/Users/stapi/OneDrive/Desktop/GD32VW553/V1_MQTT_OK/GD32VW55X_Wifi_BLE_SDK/GD32VW55x_RELEASE_V1.0.2/MSDK/cloud/alicloud/src/services/ota/prot\ota_mqtt.c ****     if (NULL == (h_osc = OTA_MALLOC(sizeof(otamqtt_Struct_t)))) {
 1209              		.loc 1 174 5
 170:C:/Users/stapi/OneDrive/Desktop/GD32VW553/V1_MQTT_OK/GD32VW55X_Wifi_BLE_SDK/GD32VW55x_RELEASE_V1.0.2/MSDK/cloud/alicloud/src/services/ota/prot\ota_mqtt.c ****     int ret;
 1210              		.loc 1 170 1 is_stmt 0
 1211 0008 2A89     		mv	s2,a0
 1212 000a AE84     		mv	s1,a1
 1213 000c B289     		mv	s3,a2
 1214              		.loc 1 174 26
 1215 000e 8145     		li	a1,0
 1216              	.LVL127:
 1217 0010 13064021 		li	a2,532
 1218              	.LVL128:
 1219 0014 0145     		li	a0,0
 1220              	.LVL129:
 170:C:/Users/stapi/OneDrive/Desktop/GD32VW553/V1_MQTT_OK/GD32VW55X_Wifi_BLE_SDK/GD32VW55x_RELEASE_V1.0.2/MSDK/cloud/alicloud/src/services/ota/prot\ota_mqtt.c ****     int ret;
 1221              		.loc 1 170 1
 1222 0016 368B     		mv	s6,a3
 1223 0018 BA8A     		mv	s5,a4
 1224              		.loc 1 174 26
 1225 001a 97000000 		call	LITE_malloc_internal
 1225      E7800000 
 1226              	.LVL130:
 1227 0022 2A84     		mv	s0,a0
 1228              	.LVL131:
 1229              		.loc 1 174 8
 1230 0024 15ED     		bne	a0,zero,.L124
 175:C:/Users/stapi/OneDrive/Desktop/GD32VW553/V1_MQTT_OK/GD32VW55X_Wifi_BLE_SDK/GD32VW55x_RELEASE_V1.0.2/MSDK/cloud/alicloud/src/services/ota/prot\ota_mqtt.c ****         OTA_LOG_ERROR("allocate for h_osc failed");
 1231              		.loc 1 175 9 is_stmt 1
 1232              		.loc 1 175 9
 1233 0026 37050000 		lui	a0,%hi(.LC21)
 1234 002a 13050500 		addi	a0,a0,%lo(.LC21)
 1235 002e 97000000 		call	HAL_Printf
 1235      E7800000 
 1236              	.LVL132:
 1237              		.loc 1 175 9
 1238 0036 37050000 		lui	a0,%hi(.LC40)
 1239 003a 13050500 		addi	a0,a0,%lo(.LC40)
 1240 003e 97000000 		call	HAL_Printf
 1240      E7800000 
 1241              	.LVL133:
 1242              		.loc 1 175 9
 1243 0046 37050000 		lui	a0,%hi(.LC11)
 1244 004a 13050500 		addi	a0,a0,%lo(.LC11)
 1245 004e 97000000 		call	HAL_Printf
 1245      E7800000 
 1246              	.LVL134:
 1247              		.loc 1 175 9
 176:C:/Users/stapi/OneDrive/Desktop/GD32VW553/V1_MQTT_OK/GD32VW55X_Wifi_BLE_SDK/GD32VW55x_RELEASE_V1.0.2/MSDK/cloud/alicloud/src/services/ota/prot\ota_mqtt.c ****         return NULL;
 1248              		.loc 1 176 9
 1249              	.L123:
 177:C:/Users/stapi/OneDrive/Desktop/GD32VW553/V1_MQTT_OK/GD32VW55X_Wifi_BLE_SDK/GD32VW55x_RELEASE_V1.0.2/MSDK/cloud/alicloud/src/services/ota/prot\ota_mqtt.c ****     }
 178:C:/Users/stapi/OneDrive/Desktop/GD32VW553/V1_MQTT_OK/GD32VW55X_Wifi_BLE_SDK/GD32VW55x_RELEASE_V1.0.2/MSDK/cloud/alicloud/src/services/ota/prot\ota_mqtt.c **** 
 179:C:/Users/stapi/OneDrive/Desktop/GD32VW553/V1_MQTT_OK/GD32VW55X_Wifi_BLE_SDK/GD32VW55x_RELEASE_V1.0.2/MSDK/cloud/alicloud/src/services/ota/prot\ota_mqtt.c ****     memset(h_osc, 0, sizeof(otamqtt_Struct_t));
 180:C:/Users/stapi/OneDrive/Desktop/GD32VW553/V1_MQTT_OK/GD32VW55X_Wifi_BLE_SDK/GD32VW55x_RELEASE_V1.0.2/MSDK/cloud/alicloud/src/services/ota/prot\ota_mqtt.c **** 
 181:C:/Users/stapi/OneDrive/Desktop/GD32VW553/V1_MQTT_OK/GD32VW55X_Wifi_BLE_SDK/GD32VW55x_RELEASE_V1.0.2/MSDK/cloud/alicloud/src/services/ota/prot\ota_mqtt.c ****     /* subscribe the OTA topic: "/ota/device/request/$(product_key)/$(device_name)" */
 182:C:/Users/stapi/OneDrive/Desktop/GD32VW553/V1_MQTT_OK/GD32VW55X_Wifi_BLE_SDK/GD32VW55x_RELEASE_V1.0.2/MSDK/cloud/alicloud/src/services/ota/prot\ota_mqtt.c ****     ret = otamqtt_GenTopicName(h_osc->topic_request, OTA_MQTT_TOPIC_LEN, "request", product_key, de
 183:C:/Users/stapi/OneDrive/Desktop/GD32VW553/V1_MQTT_OK/GD32VW55X_Wifi_BLE_SDK/GD32VW55x_RELEASE_V1.0.2/MSDK/cloud/alicloud/src/services/ota/prot\ota_mqtt.c ****     if (ret < 0) {
 184:C:/Users/stapi/OneDrive/Desktop/GD32VW553/V1_MQTT_OK/GD32VW55X_Wifi_BLE_SDK/GD32VW55x_RELEASE_V1.0.2/MSDK/cloud/alicloud/src/services/ota/prot\ota_mqtt.c ****         OTA_LOG_ERROR("generate topic name of request failed");
 185:C:/Users/stapi/OneDrive/Desktop/GD32VW553/V1_MQTT_OK/GD32VW55X_Wifi_BLE_SDK/GD32VW55x_RELEASE_V1.0.2/MSDK/cloud/alicloud/src/services/ota/prot\ota_mqtt.c ****         goto do_exit;
 186:C:/Users/stapi/OneDrive/Desktop/GD32VW553/V1_MQTT_OK/GD32VW55X_Wifi_BLE_SDK/GD32VW55x_RELEASE_V1.0.2/MSDK/cloud/alicloud/src/services/ota/prot\ota_mqtt.c ****     }
 187:C:/Users/stapi/OneDrive/Desktop/GD32VW553/V1_MQTT_OK/GD32VW55X_Wifi_BLE_SDK/GD32VW55x_RELEASE_V1.0.2/MSDK/cloud/alicloud/src/services/ota/prot\ota_mqtt.c **** 
 188:C:/Users/stapi/OneDrive/Desktop/GD32VW553/V1_MQTT_OK/GD32VW55X_Wifi_BLE_SDK/GD32VW55x_RELEASE_V1.0.2/MSDK/cloud/alicloud/src/services/ota/prot\ota_mqtt.c **** #ifdef MQTT_AUTO_SUBSCRIBE
 189:C:/Users/stapi/OneDrive/Desktop/GD32VW553/V1_MQTT_OK/GD32VW55X_Wifi_BLE_SDK/GD32VW55x_RELEASE_V1.0.2/MSDK/cloud/alicloud/src/services/ota/prot\ota_mqtt.c ****     ret = IOT_MQTT_Subscribe(ch_signal, h_osc->topic_request, IOTX_MQTT_QOS3_SUB_LOCAL, otamqtt_Upg
 190:C:/Users/stapi/OneDrive/Desktop/GD32VW553/V1_MQTT_OK/GD32VW55X_Wifi_BLE_SDK/GD32VW55x_RELEASE_V1.0.2/MSDK/cloud/alicloud/src/services/ota/prot\ota_mqtt.c **** #else
 191:C:/Users/stapi/OneDrive/Desktop/GD32VW553/V1_MQTT_OK/GD32VW55X_Wifi_BLE_SDK/GD32VW55x_RELEASE_V1.0.2/MSDK/cloud/alicloud/src/services/ota/prot\ota_mqtt.c ****     ret = IOT_MQTT_Subscribe(ch_signal, h_osc->topic_request, IOTX_MQTT_QOS1, otamqtt_UpgrageCb, h_
 192:C:/Users/stapi/OneDrive/Desktop/GD32VW553/V1_MQTT_OK/GD32VW55X_Wifi_BLE_SDK/GD32VW55x_RELEASE_V1.0.2/MSDK/cloud/alicloud/src/services/ota/prot\ota_mqtt.c **** #endif
 193:C:/Users/stapi/OneDrive/Desktop/GD32VW553/V1_MQTT_OK/GD32VW55X_Wifi_BLE_SDK/GD32VW55x_RELEASE_V1.0.2/MSDK/cloud/alicloud/src/services/ota/prot\ota_mqtt.c ****     if (ret < 0) {
 194:C:/Users/stapi/OneDrive/Desktop/GD32VW553/V1_MQTT_OK/GD32VW55X_Wifi_BLE_SDK/GD32VW55x_RELEASE_V1.0.2/MSDK/cloud/alicloud/src/services/ota/prot\ota_mqtt.c ****         OTA_LOG_ERROR("mqtt subscribe failed");
 195:C:/Users/stapi/OneDrive/Desktop/GD32VW553/V1_MQTT_OK/GD32VW55X_Wifi_BLE_SDK/GD32VW55x_RELEASE_V1.0.2/MSDK/cloud/alicloud/src/services/ota/prot\ota_mqtt.c ****         goto do_exit;
 196:C:/Users/stapi/OneDrive/Desktop/GD32VW553/V1_MQTT_OK/GD32VW55X_Wifi_BLE_SDK/GD32VW55x_RELEASE_V1.0.2/MSDK/cloud/alicloud/src/services/ota/prot\ota_mqtt.c ****     }
 197:C:/Users/stapi/OneDrive/Desktop/GD32VW553/V1_MQTT_OK/GD32VW55X_Wifi_BLE_SDK/GD32VW55x_RELEASE_V1.0.2/MSDK/cloud/alicloud/src/services/ota/prot\ota_mqtt.c **** 
 198:C:/Users/stapi/OneDrive/Desktop/GD32VW553/V1_MQTT_OK/GD32VW55X_Wifi_BLE_SDK/GD32VW55x_RELEASE_V1.0.2/MSDK/cloud/alicloud/src/services/ota/prot\ota_mqtt.c ****     /* subscribe the OTA topic: "/ota/device/upgrade/$(product_key)/$(device_name)" */
 199:C:/Users/stapi/OneDrive/Desktop/GD32VW553/V1_MQTT_OK/GD32VW55X_Wifi_BLE_SDK/GD32VW55x_RELEASE_V1.0.2/MSDK/cloud/alicloud/src/services/ota/prot\ota_mqtt.c ****     ret = otamqtt_GenTopicName(h_osc->topic_upgrade, OTA_MQTT_TOPIC_LEN, "upgrade", product_key, de
 200:C:/Users/stapi/OneDrive/Desktop/GD32VW553/V1_MQTT_OK/GD32VW55X_Wifi_BLE_SDK/GD32VW55x_RELEASE_V1.0.2/MSDK/cloud/alicloud/src/services/ota/prot\ota_mqtt.c ****     if (ret < 0) {
 201:C:/Users/stapi/OneDrive/Desktop/GD32VW553/V1_MQTT_OK/GD32VW55X_Wifi_BLE_SDK/GD32VW55x_RELEASE_V1.0.2/MSDK/cloud/alicloud/src/services/ota/prot\ota_mqtt.c ****         OTA_LOG_ERROR("generate topic name of upgrade failed");
 202:C:/Users/stapi/OneDrive/Desktop/GD32VW553/V1_MQTT_OK/GD32VW55X_Wifi_BLE_SDK/GD32VW55x_RELEASE_V1.0.2/MSDK/cloud/alicloud/src/services/ota/prot\ota_mqtt.c ****         goto do_exit;
 203:C:/Users/stapi/OneDrive/Desktop/GD32VW553/V1_MQTT_OK/GD32VW55X_Wifi_BLE_SDK/GD32VW55x_RELEASE_V1.0.2/MSDK/cloud/alicloud/src/services/ota/prot\ota_mqtt.c ****     }
 204:C:/Users/stapi/OneDrive/Desktop/GD32VW553/V1_MQTT_OK/GD32VW55X_Wifi_BLE_SDK/GD32VW55x_RELEASE_V1.0.2/MSDK/cloud/alicloud/src/services/ota/prot\ota_mqtt.c **** 
 205:C:/Users/stapi/OneDrive/Desktop/GD32VW553/V1_MQTT_OK/GD32VW55X_Wifi_BLE_SDK/GD32VW55x_RELEASE_V1.0.2/MSDK/cloud/alicloud/src/services/ota/prot\ota_mqtt.c **** #ifdef MQTT_AUTO_SUBSCRIBE
 206:C:/Users/stapi/OneDrive/Desktop/GD32VW553/V1_MQTT_OK/GD32VW55X_Wifi_BLE_SDK/GD32VW55x_RELEASE_V1.0.2/MSDK/cloud/alicloud/src/services/ota/prot\ota_mqtt.c ****     ret = IOT_MQTT_Subscribe(ch_signal, h_osc->topic_upgrade, IOTX_MQTT_QOS3_SUB_LOCAL, otamqtt_Upg
 207:C:/Users/stapi/OneDrive/Desktop/GD32VW553/V1_MQTT_OK/GD32VW55X_Wifi_BLE_SDK/GD32VW55x_RELEASE_V1.0.2/MSDK/cloud/alicloud/src/services/ota/prot\ota_mqtt.c **** #else
 208:C:/Users/stapi/OneDrive/Desktop/GD32VW553/V1_MQTT_OK/GD32VW55X_Wifi_BLE_SDK/GD32VW55x_RELEASE_V1.0.2/MSDK/cloud/alicloud/src/services/ota/prot\ota_mqtt.c ****     ret = IOT_MQTT_Subscribe(ch_signal, h_osc->topic_upgrade, IOTX_MQTT_QOS1, otamqtt_UpgrageCb, h_
 209:C:/Users/stapi/OneDrive/Desktop/GD32VW553/V1_MQTT_OK/GD32VW55X_Wifi_BLE_SDK/GD32VW55x_RELEASE_V1.0.2/MSDK/cloud/alicloud/src/services/ota/prot\ota_mqtt.c **** #endif
 210:C:/Users/stapi/OneDrive/Desktop/GD32VW553/V1_MQTT_OK/GD32VW55X_Wifi_BLE_SDK/GD32VW55x_RELEASE_V1.0.2/MSDK/cloud/alicloud/src/services/ota/prot\ota_mqtt.c ****     if (ret < 0) {
 211:C:/Users/stapi/OneDrive/Desktop/GD32VW553/V1_MQTT_OK/GD32VW55X_Wifi_BLE_SDK/GD32VW55x_RELEASE_V1.0.2/MSDK/cloud/alicloud/src/services/ota/prot\ota_mqtt.c ****         OTA_LOG_ERROR("mqtt subscribe failed");
 212:C:/Users/stapi/OneDrive/Desktop/GD32VW553/V1_MQTT_OK/GD32VW55X_Wifi_BLE_SDK/GD32VW55x_RELEASE_V1.0.2/MSDK/cloud/alicloud/src/services/ota/prot\ota_mqtt.c ****         goto do_exit;
 213:C:/Users/stapi/OneDrive/Desktop/GD32VW553/V1_MQTT_OK/GD32VW55X_Wifi_BLE_SDK/GD32VW55x_RELEASE_V1.0.2/MSDK/cloud/alicloud/src/services/ota/prot\ota_mqtt.c ****     }
 214:C:/Users/stapi/OneDrive/Desktop/GD32VW553/V1_MQTT_OK/GD32VW55X_Wifi_BLE_SDK/GD32VW55x_RELEASE_V1.0.2/MSDK/cloud/alicloud/src/services/ota/prot\ota_mqtt.c **** 
 215:C:/Users/stapi/OneDrive/Desktop/GD32VW553/V1_MQTT_OK/GD32VW55X_Wifi_BLE_SDK/GD32VW55x_RELEASE_V1.0.2/MSDK/cloud/alicloud/src/services/ota/prot\ota_mqtt.c ****     /* subscribe the OTA topic: "/sys/{productKey}/{deviceName}/thing/config/get_reply" */
 216:C:/Users/stapi/OneDrive/Desktop/GD32VW553/V1_MQTT_OK/GD32VW55X_Wifi_BLE_SDK/GD32VW55x_RELEASE_V1.0.2/MSDK/cloud/alicloud/src/services/ota/prot\ota_mqtt.c ****     ret = HAL_Snprintf(h_osc->topic_config_get,
 217:C:/Users/stapi/OneDrive/Desktop/GD32VW553/V1_MQTT_OK/GD32VW55X_Wifi_BLE_SDK/GD32VW55x_RELEASE_V1.0.2/MSDK/cloud/alicloud/src/services/ota/prot\ota_mqtt.c ****                        OTA_MQTT_TOPIC_LEN,
 218:C:/Users/stapi/OneDrive/Desktop/GD32VW553/V1_MQTT_OK/GD32VW55X_Wifi_BLE_SDK/GD32VW55x_RELEASE_V1.0.2/MSDK/cloud/alicloud/src/services/ota/prot\ota_mqtt.c ****                        "/sys/%s/%s/thing/config/get_reply",
 219:C:/Users/stapi/OneDrive/Desktop/GD32VW553/V1_MQTT_OK/GD32VW55X_Wifi_BLE_SDK/GD32VW55x_RELEASE_V1.0.2/MSDK/cloud/alicloud/src/services/ota/prot\ota_mqtt.c ****                        product_key,
 220:C:/Users/stapi/OneDrive/Desktop/GD32VW553/V1_MQTT_OK/GD32VW55X_Wifi_BLE_SDK/GD32VW55x_RELEASE_V1.0.2/MSDK/cloud/alicloud/src/services/ota/prot\ota_mqtt.c ****                        device_name);
 221:C:/Users/stapi/OneDrive/Desktop/GD32VW553/V1_MQTT_OK/GD32VW55X_Wifi_BLE_SDK/GD32VW55x_RELEASE_V1.0.2/MSDK/cloud/alicloud/src/services/ota/prot\ota_mqtt.c ****     if (ret < 0) {
 222:C:/Users/stapi/OneDrive/Desktop/GD32VW553/V1_MQTT_OK/GD32VW55X_Wifi_BLE_SDK/GD32VW55x_RELEASE_V1.0.2/MSDK/cloud/alicloud/src/services/ota/prot\ota_mqtt.c ****         OTA_LOG_ERROR("generate topic name of config get failed");
 223:C:/Users/stapi/OneDrive/Desktop/GD32VW553/V1_MQTT_OK/GD32VW55X_Wifi_BLE_SDK/GD32VW55x_RELEASE_V1.0.2/MSDK/cloud/alicloud/src/services/ota/prot\ota_mqtt.c ****         goto do_exit;
 224:C:/Users/stapi/OneDrive/Desktop/GD32VW553/V1_MQTT_OK/GD32VW55X_Wifi_BLE_SDK/GD32VW55x_RELEASE_V1.0.2/MSDK/cloud/alicloud/src/services/ota/prot\ota_mqtt.c ****     }
 225:C:/Users/stapi/OneDrive/Desktop/GD32VW553/V1_MQTT_OK/GD32VW55X_Wifi_BLE_SDK/GD32VW55x_RELEASE_V1.0.2/MSDK/cloud/alicloud/src/services/ota/prot\ota_mqtt.c **** 
 226:C:/Users/stapi/OneDrive/Desktop/GD32VW553/V1_MQTT_OK/GD32VW55X_Wifi_BLE_SDK/GD32VW55x_RELEASE_V1.0.2/MSDK/cloud/alicloud/src/services/ota/prot\ota_mqtt.c **** #ifdef MQTT_AUTO_SUBSCRIBE
 227:C:/Users/stapi/OneDrive/Desktop/GD32VW553/V1_MQTT_OK/GD32VW55X_Wifi_BLE_SDK/GD32VW55x_RELEASE_V1.0.2/MSDK/cloud/alicloud/src/services/ota/prot\ota_mqtt.c ****     ret = IOT_MQTT_Subscribe(ch_signal, h_osc->topic_config_get, IOTX_MQTT_QOS3_SUB_LOCAL, otamqtt_
 228:C:/Users/stapi/OneDrive/Desktop/GD32VW553/V1_MQTT_OK/GD32VW55X_Wifi_BLE_SDK/GD32VW55x_RELEASE_V1.0.2/MSDK/cloud/alicloud/src/services/ota/prot\ota_mqtt.c **** #else
 229:C:/Users/stapi/OneDrive/Desktop/GD32VW553/V1_MQTT_OK/GD32VW55X_Wifi_BLE_SDK/GD32VW55x_RELEASE_V1.0.2/MSDK/cloud/alicloud/src/services/ota/prot\ota_mqtt.c ****     ret = IOT_MQTT_Subscribe(ch_signal, h_osc->topic_config_get, IOTX_MQTT_QOS0, otamqtt_UpgrageCb,
 230:C:/Users/stapi/OneDrive/Desktop/GD32VW553/V1_MQTT_OK/GD32VW55X_Wifi_BLE_SDK/GD32VW55x_RELEASE_V1.0.2/MSDK/cloud/alicloud/src/services/ota/prot\ota_mqtt.c **** #endif
 231:C:/Users/stapi/OneDrive/Desktop/GD32VW553/V1_MQTT_OK/GD32VW55X_Wifi_BLE_SDK/GD32VW55x_RELEASE_V1.0.2/MSDK/cloud/alicloud/src/services/ota/prot\ota_mqtt.c ****     if (ret < 0) {
 232:C:/Users/stapi/OneDrive/Desktop/GD32VW553/V1_MQTT_OK/GD32VW55X_Wifi_BLE_SDK/GD32VW55x_RELEASE_V1.0.2/MSDK/cloud/alicloud/src/services/ota/prot\ota_mqtt.c ****         OTA_LOG_ERROR("mqtt subscribe failed");
 233:C:/Users/stapi/OneDrive/Desktop/GD32VW553/V1_MQTT_OK/GD32VW55X_Wifi_BLE_SDK/GD32VW55x_RELEASE_V1.0.2/MSDK/cloud/alicloud/src/services/ota/prot\ota_mqtt.c ****         goto do_exit;
 234:C:/Users/stapi/OneDrive/Desktop/GD32VW553/V1_MQTT_OK/GD32VW55X_Wifi_BLE_SDK/GD32VW55x_RELEASE_V1.0.2/MSDK/cloud/alicloud/src/services/ota/prot\ota_mqtt.c ****     }
 235:C:/Users/stapi/OneDrive/Desktop/GD32VW553/V1_MQTT_OK/GD32VW55X_Wifi_BLE_SDK/GD32VW55x_RELEASE_V1.0.2/MSDK/cloud/alicloud/src/services/ota/prot\ota_mqtt.c **** 
 236:C:/Users/stapi/OneDrive/Desktop/GD32VW553/V1_MQTT_OK/GD32VW55X_Wifi_BLE_SDK/GD32VW55x_RELEASE_V1.0.2/MSDK/cloud/alicloud/src/services/ota/prot\ota_mqtt.c ****     /* subscribe the OTA topic: "/sys/{productKey}/{deviceName}/thing/config/push" */
 237:C:/Users/stapi/OneDrive/Desktop/GD32VW553/V1_MQTT_OK/GD32VW55X_Wifi_BLE_SDK/GD32VW55x_RELEASE_V1.0.2/MSDK/cloud/alicloud/src/services/ota/prot\ota_mqtt.c ****     ret = HAL_Snprintf(h_osc->topic_config_push,
 238:C:/Users/stapi/OneDrive/Desktop/GD32VW553/V1_MQTT_OK/GD32VW55X_Wifi_BLE_SDK/GD32VW55x_RELEASE_V1.0.2/MSDK/cloud/alicloud/src/services/ota/prot\ota_mqtt.c ****                        OTA_MQTT_TOPIC_LEN,
 239:C:/Users/stapi/OneDrive/Desktop/GD32VW553/V1_MQTT_OK/GD32VW55X_Wifi_BLE_SDK/GD32VW55x_RELEASE_V1.0.2/MSDK/cloud/alicloud/src/services/ota/prot\ota_mqtt.c ****                        "/sys/%s/%s/thing/config/push",
 240:C:/Users/stapi/OneDrive/Desktop/GD32VW553/V1_MQTT_OK/GD32VW55X_Wifi_BLE_SDK/GD32VW55x_RELEASE_V1.0.2/MSDK/cloud/alicloud/src/services/ota/prot\ota_mqtt.c ****                        product_key,
 241:C:/Users/stapi/OneDrive/Desktop/GD32VW553/V1_MQTT_OK/GD32VW55X_Wifi_BLE_SDK/GD32VW55x_RELEASE_V1.0.2/MSDK/cloud/alicloud/src/services/ota/prot\ota_mqtt.c ****                        device_name);
 242:C:/Users/stapi/OneDrive/Desktop/GD32VW553/V1_MQTT_OK/GD32VW55X_Wifi_BLE_SDK/GD32VW55x_RELEASE_V1.0.2/MSDK/cloud/alicloud/src/services/ota/prot\ota_mqtt.c ****     if (ret < 0) {
 243:C:/Users/stapi/OneDrive/Desktop/GD32VW553/V1_MQTT_OK/GD32VW55X_Wifi_BLE_SDK/GD32VW55x_RELEASE_V1.0.2/MSDK/cloud/alicloud/src/services/ota/prot\ota_mqtt.c ****         OTA_LOG_ERROR("generate topic name of config get failed");
 244:C:/Users/stapi/OneDrive/Desktop/GD32VW553/V1_MQTT_OK/GD32VW55X_Wifi_BLE_SDK/GD32VW55x_RELEASE_V1.0.2/MSDK/cloud/alicloud/src/services/ota/prot\ota_mqtt.c ****         goto do_exit;
 245:C:/Users/stapi/OneDrive/Desktop/GD32VW553/V1_MQTT_OK/GD32VW55X_Wifi_BLE_SDK/GD32VW55x_RELEASE_V1.0.2/MSDK/cloud/alicloud/src/services/ota/prot\ota_mqtt.c ****     }
 246:C:/Users/stapi/OneDrive/Desktop/GD32VW553/V1_MQTT_OK/GD32VW55X_Wifi_BLE_SDK/GD32VW55x_RELEASE_V1.0.2/MSDK/cloud/alicloud/src/services/ota/prot\ota_mqtt.c **** 
 247:C:/Users/stapi/OneDrive/Desktop/GD32VW553/V1_MQTT_OK/GD32VW55X_Wifi_BLE_SDK/GD32VW55x_RELEASE_V1.0.2/MSDK/cloud/alicloud/src/services/ota/prot\ota_mqtt.c **** #ifdef MQTT_AUTO_SUBSCRIBE
 248:C:/Users/stapi/OneDrive/Desktop/GD32VW553/V1_MQTT_OK/GD32VW55X_Wifi_BLE_SDK/GD32VW55x_RELEASE_V1.0.2/MSDK/cloud/alicloud/src/services/ota/prot\ota_mqtt.c ****     ret = IOT_MQTT_Subscribe(ch_signal, h_osc->topic_config_push, IOTX_MQTT_QOS3_SUB_LOCAL, otamqtt
 249:C:/Users/stapi/OneDrive/Desktop/GD32VW553/V1_MQTT_OK/GD32VW55X_Wifi_BLE_SDK/GD32VW55x_RELEASE_V1.0.2/MSDK/cloud/alicloud/src/services/ota/prot\ota_mqtt.c **** #else
 250:C:/Users/stapi/OneDrive/Desktop/GD32VW553/V1_MQTT_OK/GD32VW55X_Wifi_BLE_SDK/GD32VW55x_RELEASE_V1.0.2/MSDK/cloud/alicloud/src/services/ota/prot\ota_mqtt.c ****     ret = IOT_MQTT_Subscribe(ch_signal, h_osc->topic_config_push, IOTX_MQTT_QOS0, otamqtt_UpgrageCb
 251:C:/Users/stapi/OneDrive/Desktop/GD32VW553/V1_MQTT_OK/GD32VW55X_Wifi_BLE_SDK/GD32VW55x_RELEASE_V1.0.2/MSDK/cloud/alicloud/src/services/ota/prot\ota_mqtt.c **** #endif
 252:C:/Users/stapi/OneDrive/Desktop/GD32VW553/V1_MQTT_OK/GD32VW55X_Wifi_BLE_SDK/GD32VW55x_RELEASE_V1.0.2/MSDK/cloud/alicloud/src/services/ota/prot\ota_mqtt.c ****     if (ret < 0) {
 253:C:/Users/stapi/OneDrive/Desktop/GD32VW553/V1_MQTT_OK/GD32VW55X_Wifi_BLE_SDK/GD32VW55x_RELEASE_V1.0.2/MSDK/cloud/alicloud/src/services/ota/prot\ota_mqtt.c ****         OTA_LOG_ERROR("mqtt subscribe failed");
 254:C:/Users/stapi/OneDrive/Desktop/GD32VW553/V1_MQTT_OK/GD32VW55X_Wifi_BLE_SDK/GD32VW55x_RELEASE_V1.0.2/MSDK/cloud/alicloud/src/services/ota/prot\ota_mqtt.c ****         goto do_exit;
 255:C:/Users/stapi/OneDrive/Desktop/GD32VW553/V1_MQTT_OK/GD32VW55X_Wifi_BLE_SDK/GD32VW55x_RELEASE_V1.0.2/MSDK/cloud/alicloud/src/services/ota/prot\ota_mqtt.c ****     }
 256:C:/Users/stapi/OneDrive/Desktop/GD32VW553/V1_MQTT_OK/GD32VW55X_Wifi_BLE_SDK/GD32VW55x_RELEASE_V1.0.2/MSDK/cloud/alicloud/src/services/ota/prot\ota_mqtt.c **** 
 257:C:/Users/stapi/OneDrive/Desktop/GD32VW553/V1_MQTT_OK/GD32VW55X_Wifi_BLE_SDK/GD32VW55x_RELEASE_V1.0.2/MSDK/cloud/alicloud/src/services/ota/prot\ota_mqtt.c ****     h_osc->mqtt = ch_signal;
 258:C:/Users/stapi/OneDrive/Desktop/GD32VW553/V1_MQTT_OK/GD32VW55X_Wifi_BLE_SDK/GD32VW55x_RELEASE_V1.0.2/MSDK/cloud/alicloud/src/services/ota/prot\ota_mqtt.c ****     h_osc->product_key = product_key;
 259:C:/Users/stapi/OneDrive/Desktop/GD32VW553/V1_MQTT_OK/GD32VW55X_Wifi_BLE_SDK/GD32VW55x_RELEASE_V1.0.2/MSDK/cloud/alicloud/src/services/ota/prot\ota_mqtt.c ****     h_osc->device_name = device_name;
 260:C:/Users/stapi/OneDrive/Desktop/GD32VW553/V1_MQTT_OK/GD32VW55X_Wifi_BLE_SDK/GD32VW55x_RELEASE_V1.0.2/MSDK/cloud/alicloud/src/services/ota/prot\ota_mqtt.c ****     h_osc->cb = cb;
 261:C:/Users/stapi/OneDrive/Desktop/GD32VW553/V1_MQTT_OK/GD32VW55X_Wifi_BLE_SDK/GD32VW55x_RELEASE_V1.0.2/MSDK/cloud/alicloud/src/services/ota/prot\ota_mqtt.c ****     h_osc->context = context;
 262:C:/Users/stapi/OneDrive/Desktop/GD32VW553/V1_MQTT_OK/GD32VW55X_Wifi_BLE_SDK/GD32VW55x_RELEASE_V1.0.2/MSDK/cloud/alicloud/src/services/ota/prot\ota_mqtt.c **** 
 263:C:/Users/stapi/OneDrive/Desktop/GD32VW553/V1_MQTT_OK/GD32VW55X_Wifi_BLE_SDK/GD32VW55x_RELEASE_V1.0.2/MSDK/cloud/alicloud/src/services/ota/prot\ota_mqtt.c ****     return h_osc;
 264:C:/Users/stapi/OneDrive/Desktop/GD32VW553/V1_MQTT_OK/GD32VW55X_Wifi_BLE_SDK/GD32VW55x_RELEASE_V1.0.2/MSDK/cloud/alicloud/src/services/ota/prot\ota_mqtt.c **** 
 265:C:/Users/stapi/OneDrive/Desktop/GD32VW553/V1_MQTT_OK/GD32VW55X_Wifi_BLE_SDK/GD32VW55x_RELEASE_V1.0.2/MSDK/cloud/alicloud/src/services/ota/prot\ota_mqtt.c **** do_exit:
 266:C:/Users/stapi/OneDrive/Desktop/GD32VW553/V1_MQTT_OK/GD32VW55X_Wifi_BLE_SDK/GD32VW55x_RELEASE_V1.0.2/MSDK/cloud/alicloud/src/services/ota/prot\ota_mqtt.c ****     if (NULL != h_osc) {
 267:C:/Users/stapi/OneDrive/Desktop/GD32VW553/V1_MQTT_OK/GD32VW55X_Wifi_BLE_SDK/GD32VW55x_RELEASE_V1.0.2/MSDK/cloud/alicloud/src/services/ota/prot\ota_mqtt.c ****         OTA_FREE(h_osc);
 268:C:/Users/stapi/OneDrive/Desktop/GD32VW553/V1_MQTT_OK/GD32VW55X_Wifi_BLE_SDK/GD32VW55x_RELEASE_V1.0.2/MSDK/cloud/alicloud/src/services/ota/prot\ota_mqtt.c ****     }
 269:C:/Users/stapi/OneDrive/Desktop/GD32VW553/V1_MQTT_OK/GD32VW55X_Wifi_BLE_SDK/GD32VW55x_RELEASE_V1.0.2/MSDK/cloud/alicloud/src/services/ota/prot\ota_mqtt.c **** 
 270:C:/Users/stapi/OneDrive/Desktop/GD32VW553/V1_MQTT_OK/GD32VW55X_Wifi_BLE_SDK/GD32VW55x_RELEASE_V1.0.2/MSDK/cloud/alicloud/src/services/ota/prot\ota_mqtt.c ****     return NULL;
 271:C:/Users/stapi/OneDrive/Desktop/GD32VW553/V1_MQTT_OK/GD32VW55X_Wifi_BLE_SDK/GD32VW55x_RELEASE_V1.0.2/MSDK/cloud/alicloud/src/services/ota/prot\ota_mqtt.c **** }
 1250              		.loc 1 271 1 is_stmt 0
 1251 0056 2285     		mv	a0,s0
 1252 0058 17030000 		tail	__riscv_restore_8
 1252      67000300 
 1253              		.cfi_remember_state
 1254              		.cfi_restore 23
 1255              		.cfi_restore 22
 1256              		.cfi_restore 21
 1257              		.cfi_restore 20
 1258              		.cfi_restore 19
 1259              		.cfi_restore 18
 1260              		.cfi_restore 9
 1261              		.cfi_restore 8
 1262              		.cfi_restore 1
 1263              		.cfi_def_cfa_offset 0
 1264              	.LVL135:
 1265              	.L124:
 1266              		.cfi_restore_state
 179:C:/Users/stapi/OneDrive/Desktop/GD32VW553/V1_MQTT_OK/GD32VW55X_Wifi_BLE_SDK/GD32VW55x_RELEASE_V1.0.2/MSDK/cloud/alicloud/src/services/ota/prot\ota_mqtt.c **** 
 1267              		.loc 1 179 5 is_stmt 1
 1268 0060 13064021 		li	a2,532
 1269 0064 8145     		li	a1,0
 1270 0066 97000000 		call	memset
 1270      E7800000 
 1271              	.LVL136:
 182:C:/Users/stapi/OneDrive/Desktop/GD32VW553/V1_MQTT_OK/GD32VW55X_Wifi_BLE_SDK/GD32VW55x_RELEASE_V1.0.2/MSDK/cloud/alicloud/src/services/ota/prot\ota_mqtt.c ****     if (ret < 0) {
 1272              		.loc 1 182 5
 182:C:/Users/stapi/OneDrive/Desktop/GD32VW553/V1_MQTT_OK/GD32VW55X_Wifi_BLE_SDK/GD32VW55x_RELEASE_V1.0.2/MSDK/cloud/alicloud/src/services/ota/prot\ota_mqtt.c ****     if (ret < 0) {
 1273              		.loc 1 182 37 is_stmt 0
 1274 006e 930BC408 		addi	s7,s0,140
 182:C:/Users/stapi/OneDrive/Desktop/GD32VW553/V1_MQTT_OK/GD32VW55X_Wifi_BLE_SDK/GD32VW55x_RELEASE_V1.0.2/MSDK/cloud/alicloud/src/services/ota/prot\ota_mqtt.c ****     if (ret < 0) {
 1275              		.loc 1 182 11
 1276 0072 B7050000 		lui	a1,%hi(.LC41)
 1277 0076 A686     		mv	a3,s1
 1278 0078 4A86     		mv	a2,s2
 1279 007a 93850500 		addi	a1,a1,%lo(.LC41)
 1280 007e 5E85     		mv	a0,s7
 1281 0080 97000000 		call	otamqtt_GenTopicName.constprop.0
 1281      E7800000 
 1282              	.LVL137:
 183:C:/Users/stapi/OneDrive/Desktop/GD32VW553/V1_MQTT_OK/GD32VW55X_Wifi_BLE_SDK/GD32VW55x_RELEASE_V1.0.2/MSDK/cloud/alicloud/src/services/ota/prot\ota_mqtt.c ****         OTA_LOG_ERROR("generate topic name of request failed");
 1283              		.loc 1 183 5 is_stmt 1
 183:C:/Users/stapi/OneDrive/Desktop/GD32VW553/V1_MQTT_OK/GD32VW55X_Wifi_BLE_SDK/GD32VW55x_RELEASE_V1.0.2/MSDK/cloud/alicloud/src/services/ota/prot\ota_mqtt.c ****         OTA_LOG_ERROR("generate topic name of request failed");
 1284              		.loc 1 183 8 is_stmt 0
 1285 0088 63510504 		bge	a0,zero,.L126
 184:C:/Users/stapi/OneDrive/Desktop/GD32VW553/V1_MQTT_OK/GD32VW55X_Wifi_BLE_SDK/GD32VW55x_RELEASE_V1.0.2/MSDK/cloud/alicloud/src/services/ota/prot\ota_mqtt.c ****         goto do_exit;
 1286              		.loc 1 184 9 is_stmt 1
 184:C:/Users/stapi/OneDrive/Desktop/GD32VW553/V1_MQTT_OK/GD32VW55X_Wifi_BLE_SDK/GD32VW55x_RELEASE_V1.0.2/MSDK/cloud/alicloud/src/services/ota/prot\ota_mqtt.c ****         goto do_exit;
 1287              		.loc 1 184 9
 1288 008c 37050000 		lui	a0,%hi(.LC21)
 1289              	.LVL138:
 1290 0090 13050500 		addi	a0,a0,%lo(.LC21)
 1291 0094 97000000 		call	HAL_Printf
 1291      E7800000 
 1292              	.LVL139:
 184:C:/Users/stapi/OneDrive/Desktop/GD32VW553/V1_MQTT_OK/GD32VW55X_Wifi_BLE_SDK/GD32VW55x_RELEASE_V1.0.2/MSDK/cloud/alicloud/src/services/ota/prot\ota_mqtt.c ****         goto do_exit;
 1293              		.loc 1 184 9
 1294 009c 37050000 		lui	a0,%hi(.LC42)
 1295 00a0 13050500 		addi	a0,a0,%lo(.LC42)
 1296              	.L134:
 1297              	.L127:
 222:C:/Users/stapi/OneDrive/Desktop/GD32VW553/V1_MQTT_OK/GD32VW55X_Wifi_BLE_SDK/GD32VW55x_RELEASE_V1.0.2/MSDK/cloud/alicloud/src/services/ota/prot\ota_mqtt.c ****         goto do_exit;
 1298              		.loc 1 222 9 is_stmt 0
 1299 00a4 97000000 		call	HAL_Printf
 1299      E7800000 
 1300              	.LVL140:
 222:C:/Users/stapi/OneDrive/Desktop/GD32VW553/V1_MQTT_OK/GD32VW55X_Wifi_BLE_SDK/GD32VW55x_RELEASE_V1.0.2/MSDK/cloud/alicloud/src/services/ota/prot\ota_mqtt.c ****         goto do_exit;
 1301              		.loc 1 222 9 is_stmt 1
 1302 00ac 37050000 		lui	a0,%hi(.LC11)
 1303 00b0 13050500 		addi	a0,a0,%lo(.LC11)
 1304 00b4 97000000 		call	HAL_Printf
 1304      E7800000 
 1305              	.LVL141:
 222:C:/Users/stapi/OneDrive/Desktop/GD32VW553/V1_MQTT_OK/GD32VW55X_Wifi_BLE_SDK/GD32VW55x_RELEASE_V1.0.2/MSDK/cloud/alicloud/src/services/ota/prot\ota_mqtt.c ****         goto do_exit;
 1306              		.loc 1 222 9
 223:C:/Users/stapi/OneDrive/Desktop/GD32VW553/V1_MQTT_OK/GD32VW55X_Wifi_BLE_SDK/GD32VW55x_RELEASE_V1.0.2/MSDK/cloud/alicloud/src/services/ota/prot\ota_mqtt.c ****     }
 1307              		.loc 1 223 9
 266:C:/Users/stapi/OneDrive/Desktop/GD32VW553/V1_MQTT_OK/GD32VW55X_Wifi_BLE_SDK/GD32VW55x_RELEASE_V1.0.2/MSDK/cloud/alicloud/src/services/ota/prot\ota_mqtt.c ****         OTA_FREE(h_osc);
 1308              		.loc 1 266 5
 267:C:/Users/stapi/OneDrive/Desktop/GD32VW553/V1_MQTT_OK/GD32VW55X_Wifi_BLE_SDK/GD32VW55x_RELEASE_V1.0.2/MSDK/cloud/alicloud/src/services/ota/prot\ota_mqtt.c ****     }
 1309              		.loc 1 267 9
 1310 00bc 2285     		mv	a0,s0
 1311 00be 97000000 		call	LITE_free_internal
 1311      E7800000 
 1312              	.LVL142:
 270:C:/Users/stapi/OneDrive/Desktop/GD32VW553/V1_MQTT_OK/GD32VW55X_Wifi_BLE_SDK/GD32VW55x_RELEASE_V1.0.2/MSDK/cloud/alicloud/src/services/ota/prot\ota_mqtt.c **** }
 1313              		.loc 1 270 5
 270:C:/Users/stapi/OneDrive/Desktop/GD32VW553/V1_MQTT_OK/GD32VW55X_Wifi_BLE_SDK/GD32VW55x_RELEASE_V1.0.2/MSDK/cloud/alicloud/src/services/ota/prot\ota_mqtt.c **** }
 1314              		.loc 1 270 12 is_stmt 0
 1315 00c6 0144     		li	s0,0
 1316              	.LVL143:
 1317 00c8 79B7     		j	.L123
 1318              	.LVL144:
 1319              	.L126:
 189:C:/Users/stapi/OneDrive/Desktop/GD32VW553/V1_MQTT_OK/GD32VW55X_Wifi_BLE_SDK/GD32VW55x_RELEASE_V1.0.2/MSDK/cloud/alicloud/src/services/ota/prot\ota_mqtt.c **** #else
 1320              		.loc 1 189 5 is_stmt 1
 189:C:/Users/stapi/OneDrive/Desktop/GD32VW553/V1_MQTT_OK/GD32VW55X_Wifi_BLE_SDK/GD32VW55x_RELEASE_V1.0.2/MSDK/cloud/alicloud/src/services/ota/prot\ota_mqtt.c **** #else
 1321              		.loc 1 189 11 is_stmt 0
 1322 00ca 370A0000 		lui	s4,%hi(otamqtt_UpgrageCb)
 1323 00ce 2287     		mv	a4,s0
 1324 00d0 93060A00 		addi	a3,s4,%lo(otamqtt_UpgrageCb)
 1325 00d4 0D46     		li	a2,3
 1326 00d6 DE85     		mv	a1,s7
 1327 00d8 4E85     		mv	a0,s3
 1328              	.LVL145:
 1329 00da 97000000 		call	IOT_MQTT_Subscribe
 1329      E7800000 
 1330              	.LVL146:
 193:C:/Users/stapi/OneDrive/Desktop/GD32VW553/V1_MQTT_OK/GD32VW55X_Wifi_BLE_SDK/GD32VW55x_RELEASE_V1.0.2/MSDK/cloud/alicloud/src/services/ota/prot\ota_mqtt.c ****         OTA_LOG_ERROR("mqtt subscribe failed");
 1331              		.loc 1 193 5 is_stmt 1
 193:C:/Users/stapi/OneDrive/Desktop/GD32VW553/V1_MQTT_OK/GD32VW55X_Wifi_BLE_SDK/GD32VW55x_RELEASE_V1.0.2/MSDK/cloud/alicloud/src/services/ota/prot\ota_mqtt.c ****         OTA_LOG_ERROR("mqtt subscribe failed");
 1332              		.loc 1 193 8 is_stmt 0
 1333 00e2 635F0500 		bge	a0,zero,.L128
 1334              	.L130:
 194:C:/Users/stapi/OneDrive/Desktop/GD32VW553/V1_MQTT_OK/GD32VW55X_Wifi_BLE_SDK/GD32VW55x_RELEASE_V1.0.2/MSDK/cloud/alicloud/src/services/ota/prot\ota_mqtt.c ****         goto do_exit;
 1335              		.loc 1 194 9 is_stmt 1
 194:C:/Users/stapi/OneDrive/Desktop/GD32VW553/V1_MQTT_OK/GD32VW55X_Wifi_BLE_SDK/GD32VW55x_RELEASE_V1.0.2/MSDK/cloud/alicloud/src/services/ota/prot\ota_mqtt.c ****         goto do_exit;
 1336              		.loc 1 194 9
 1337 00e6 37050000 		lui	a0,%hi(.LC21)
 1338              	.LVL147:
 1339 00ea 13050500 		addi	a0,a0,%lo(.LC21)
 1340 00ee 97000000 		call	HAL_Printf
 1340      E7800000 
 1341              	.LVL148:
 194:C:/Users/stapi/OneDrive/Desktop/GD32VW553/V1_MQTT_OK/GD32VW55X_Wifi_BLE_SDK/GD32VW55x_RELEASE_V1.0.2/MSDK/cloud/alicloud/src/services/ota/prot\ota_mqtt.c ****         goto do_exit;
 1342              		.loc 1 194 9
 1343 00f6 37050000 		lui	a0,%hi(.LC43)
 1344 00fa 13050500 		addi	a0,a0,%lo(.LC43)
 1345 00fe 5DB7     		j	.L134
 1346              	.LVL149:
 1347              	.L128:
 199:C:/Users/stapi/OneDrive/Desktop/GD32VW553/V1_MQTT_OK/GD32VW55X_Wifi_BLE_SDK/GD32VW55x_RELEASE_V1.0.2/MSDK/cloud/alicloud/src/services/ota/prot\ota_mqtt.c ****     if (ret < 0) {
 1348              		.loc 1 199 5
 199:C:/Users/stapi/OneDrive/Desktop/GD32VW553/V1_MQTT_OK/GD32VW55X_Wifi_BLE_SDK/GD32VW55x_RELEASE_V1.0.2/MSDK/cloud/alicloud/src/services/ota/prot\ota_mqtt.c ****     if (ret < 0) {
 1349              		.loc 1 199 37 is_stmt 0
 1350 0100 930BC400 		addi	s7,s0,12
 199:C:/Users/stapi/OneDrive/Desktop/GD32VW553/V1_MQTT_OK/GD32VW55X_Wifi_BLE_SDK/GD32VW55x_RELEASE_V1.0.2/MSDK/cloud/alicloud/src/services/ota/prot\ota_mqtt.c ****     if (ret < 0) {
 1351              		.loc 1 199 11
 1352 0104 B7050000 		lui	a1,%hi(.LC44)
 1353 0108 A686     		mv	a3,s1
 1354 010a 4A86     		mv	a2,s2
 1355 010c 93850500 		addi	a1,a1,%lo(.LC44)
 1356 0110 5E85     		mv	a0,s7
 1357              	.LVL150:
 1358 0112 97000000 		call	otamqtt_GenTopicName.constprop.0
 1358      E7800000 
 1359              	.LVL151:
 200:C:/Users/stapi/OneDrive/Desktop/GD32VW553/V1_MQTT_OK/GD32VW55X_Wifi_BLE_SDK/GD32VW55x_RELEASE_V1.0.2/MSDK/cloud/alicloud/src/services/ota/prot\ota_mqtt.c ****         OTA_LOG_ERROR("generate topic name of upgrade failed");
 1360              		.loc 1 200 5 is_stmt 1
 200:C:/Users/stapi/OneDrive/Desktop/GD32VW553/V1_MQTT_OK/GD32VW55X_Wifi_BLE_SDK/GD32VW55x_RELEASE_V1.0.2/MSDK/cloud/alicloud/src/services/ota/prot\ota_mqtt.c ****         OTA_LOG_ERROR("generate topic name of upgrade failed");
 1361              		.loc 1 200 8 is_stmt 0
 1362 011a 635F0500 		bge	a0,zero,.L129
 201:C:/Users/stapi/OneDrive/Desktop/GD32VW553/V1_MQTT_OK/GD32VW55X_Wifi_BLE_SDK/GD32VW55x_RELEASE_V1.0.2/MSDK/cloud/alicloud/src/services/ota/prot\ota_mqtt.c ****         goto do_exit;
 1363              		.loc 1 201 9 is_stmt 1
 201:C:/Users/stapi/OneDrive/Desktop/GD32VW553/V1_MQTT_OK/GD32VW55X_Wifi_BLE_SDK/GD32VW55x_RELEASE_V1.0.2/MSDK/cloud/alicloud/src/services/ota/prot\ota_mqtt.c ****         goto do_exit;
 1364              		.loc 1 201 9
 1365 011e 37050000 		lui	a0,%hi(.LC21)
 1366              	.LVL152:
 1367 0122 13050500 		addi	a0,a0,%lo(.LC21)
 1368 0126 97000000 		call	HAL_Printf
 1368      E7800000 
 1369              	.LVL153:
 201:C:/Users/stapi/OneDrive/Desktop/GD32VW553/V1_MQTT_OK/GD32VW55X_Wifi_BLE_SDK/GD32VW55x_RELEASE_V1.0.2/MSDK/cloud/alicloud/src/services/ota/prot\ota_mqtt.c ****         goto do_exit;
 1370              		.loc 1 201 9
 1371 012e 37050000 		lui	a0,%hi(.LC45)
 1372 0132 13050500 		addi	a0,a0,%lo(.LC45)
 1373 0136 BDB7     		j	.L134
 1374              	.LVL154:
 1375              	.L129:
 206:C:/Users/stapi/OneDrive/Desktop/GD32VW553/V1_MQTT_OK/GD32VW55X_Wifi_BLE_SDK/GD32VW55x_RELEASE_V1.0.2/MSDK/cloud/alicloud/src/services/ota/prot\ota_mqtt.c **** #else
 1376              		.loc 1 206 5
 206:C:/Users/stapi/OneDrive/Desktop/GD32VW553/V1_MQTT_OK/GD32VW55X_Wifi_BLE_SDK/GD32VW55x_RELEASE_V1.0.2/MSDK/cloud/alicloud/src/services/ota/prot\ota_mqtt.c **** #else
 1377              		.loc 1 206 11 is_stmt 0
 1378 0138 2287     		mv	a4,s0
 1379 013a 93060A00 		addi	a3,s4,%lo(otamqtt_UpgrageCb)
 1380 013e 0D46     		li	a2,3
 1381 0140 DE85     		mv	a1,s7
 1382 0142 4E85     		mv	a0,s3
 1383              	.LVL155:
 1384 0144 97000000 		call	IOT_MQTT_Subscribe
 1384      E7800000 
 1385              	.LVL156:
 210:C:/Users/stapi/OneDrive/Desktop/GD32VW553/V1_MQTT_OK/GD32VW55X_Wifi_BLE_SDK/GD32VW55x_RELEASE_V1.0.2/MSDK/cloud/alicloud/src/services/ota/prot\ota_mqtt.c ****         OTA_LOG_ERROR("mqtt subscribe failed");
 1386              		.loc 1 210 5 is_stmt 1
 210:C:/Users/stapi/OneDrive/Desktop/GD32VW553/V1_MQTT_OK/GD32VW55X_Wifi_BLE_SDK/GD32VW55x_RELEASE_V1.0.2/MSDK/cloud/alicloud/src/services/ota/prot\ota_mqtt.c ****         OTA_LOG_ERROR("mqtt subscribe failed");
 1387              		.loc 1 210 8 is_stmt 0
 1388 014c E34D05F8 		blt	a0,zero,.L130
 216:C:/Users/stapi/OneDrive/Desktop/GD32VW553/V1_MQTT_OK/GD32VW55X_Wifi_BLE_SDK/GD32VW55x_RELEASE_V1.0.2/MSDK/cloud/alicloud/src/services/ota/prot\ota_mqtt.c ****                        OTA_MQTT_TOPIC_LEN,
 1389              		.loc 1 216 5 is_stmt 1
 216:C:/Users/stapi/OneDrive/Desktop/GD32VW553/V1_MQTT_OK/GD32VW55X_Wifi_BLE_SDK/GD32VW55x_RELEASE_V1.0.2/MSDK/cloud/alicloud/src/services/ota/prot\ota_mqtt.c ****                        OTA_MQTT_TOPIC_LEN,
 1390              		.loc 1 216 29 is_stmt 0
 1391 0150 930BC410 		addi	s7,s0,268
 216:C:/Users/stapi/OneDrive/Desktop/GD32VW553/V1_MQTT_OK/GD32VW55X_Wifi_BLE_SDK/GD32VW55x_RELEASE_V1.0.2/MSDK/cloud/alicloud/src/services/ota/prot\ota_mqtt.c ****                        OTA_MQTT_TOPIC_LEN,
 1392              		.loc 1 216 11
 1393 0154 37060000 		lui	a2,%hi(.LC46)
 1394 0158 2687     		mv	a4,s1
 1395 015a CA86     		mv	a3,s2
 1396 015c 13060600 		addi	a2,a2,%lo(.LC46)
 1397 0160 93050008 		li	a1,128
 1398 0164 5E85     		mv	a0,s7
 1399              	.LVL157:
 1400 0166 97000000 		call	HAL_Snprintf
 1400      E7800000 
 1401              	.LVL158:
 221:C:/Users/stapi/OneDrive/Desktop/GD32VW553/V1_MQTT_OK/GD32VW55X_Wifi_BLE_SDK/GD32VW55x_RELEASE_V1.0.2/MSDK/cloud/alicloud/src/services/ota/prot\ota_mqtt.c ****         OTA_LOG_ERROR("generate topic name of config get failed");
 1402              		.loc 1 221 5 is_stmt 1
 221:C:/Users/stapi/OneDrive/Desktop/GD32VW553/V1_MQTT_OK/GD32VW55X_Wifi_BLE_SDK/GD32VW55x_RELEASE_V1.0.2/MSDK/cloud/alicloud/src/services/ota/prot\ota_mqtt.c ****         OTA_LOG_ERROR("generate topic name of config get failed");
 1403              		.loc 1 221 8 is_stmt 0
 1404 016e 635F0500 		bge	a0,zero,.L131
 1405              	.L132:
 222:C:/Users/stapi/OneDrive/Desktop/GD32VW553/V1_MQTT_OK/GD32VW55X_Wifi_BLE_SDK/GD32VW55x_RELEASE_V1.0.2/MSDK/cloud/alicloud/src/services/ota/prot\ota_mqtt.c ****         goto do_exit;
 1406              		.loc 1 222 9 is_stmt 1
 222:C:/Users/stapi/OneDrive/Desktop/GD32VW553/V1_MQTT_OK/GD32VW55X_Wifi_BLE_SDK/GD32VW55x_RELEASE_V1.0.2/MSDK/cloud/alicloud/src/services/ota/prot\ota_mqtt.c ****         goto do_exit;
 1407              		.loc 1 222 9
 1408 0172 37050000 		lui	a0,%hi(.LC21)
 1409              	.LVL159:
 1410 0176 13050500 		addi	a0,a0,%lo(.LC21)
 1411 017a 97000000 		call	HAL_Printf
 1411      E7800000 
 1412              	.LVL160:
 222:C:/Users/stapi/OneDrive/Desktop/GD32VW553/V1_MQTT_OK/GD32VW55X_Wifi_BLE_SDK/GD32VW55x_RELEASE_V1.0.2/MSDK/cloud/alicloud/src/services/ota/prot\ota_mqtt.c ****         goto do_exit;
 1413              		.loc 1 222 9
 1414 0182 37050000 		lui	a0,%hi(.LC47)
 1415 0186 13050500 		addi	a0,a0,%lo(.LC47)
 1416 018a 29BF     		j	.L134
 1417              	.LVL161:
 1418              	.L131:
 227:C:/Users/stapi/OneDrive/Desktop/GD32VW553/V1_MQTT_OK/GD32VW55X_Wifi_BLE_SDK/GD32VW55x_RELEASE_V1.0.2/MSDK/cloud/alicloud/src/services/ota/prot\ota_mqtt.c **** #else
 1419              		.loc 1 227 5
 227:C:/Users/stapi/OneDrive/Desktop/GD32VW553/V1_MQTT_OK/GD32VW55X_Wifi_BLE_SDK/GD32VW55x_RELEASE_V1.0.2/MSDK/cloud/alicloud/src/services/ota/prot\ota_mqtt.c **** #else
 1420              		.loc 1 227 11 is_stmt 0
 1421 018c 2287     		mv	a4,s0
 1422 018e 93060A00 		addi	a3,s4,%lo(otamqtt_UpgrageCb)
 1423 0192 0D46     		li	a2,3
 1424 0194 DE85     		mv	a1,s7
 1425 0196 4E85     		mv	a0,s3
 1426              	.LVL162:
 1427 0198 97000000 		call	IOT_MQTT_Subscribe
 1427      E7800000 
 1428              	.LVL163:
 231:C:/Users/stapi/OneDrive/Desktop/GD32VW553/V1_MQTT_OK/GD32VW55X_Wifi_BLE_SDK/GD32VW55x_RELEASE_V1.0.2/MSDK/cloud/alicloud/src/services/ota/prot\ota_mqtt.c ****         OTA_LOG_ERROR("mqtt subscribe failed");
 1429              		.loc 1 231 5 is_stmt 1
 231:C:/Users/stapi/OneDrive/Desktop/GD32VW553/V1_MQTT_OK/GD32VW55X_Wifi_BLE_SDK/GD32VW55x_RELEASE_V1.0.2/MSDK/cloud/alicloud/src/services/ota/prot\ota_mqtt.c ****         OTA_LOG_ERROR("mqtt subscribe failed");
 1430              		.loc 1 231 8 is_stmt 0
 1431 01a0 E34305F4 		blt	a0,zero,.L130
 237:C:/Users/stapi/OneDrive/Desktop/GD32VW553/V1_MQTT_OK/GD32VW55X_Wifi_BLE_SDK/GD32VW55x_RELEASE_V1.0.2/MSDK/cloud/alicloud/src/services/ota/prot\ota_mqtt.c ****                        OTA_MQTT_TOPIC_LEN,
 1432              		.loc 1 237 5 is_stmt 1
 237:C:/Users/stapi/OneDrive/Desktop/GD32VW553/V1_MQTT_OK/GD32VW55X_Wifi_BLE_SDK/GD32VW55x_RELEASE_V1.0.2/MSDK/cloud/alicloud/src/services/ota/prot\ota_mqtt.c ****                        OTA_MQTT_TOPIC_LEN,
 1433              		.loc 1 237 29 is_stmt 0
 1434 01a4 930BC418 		addi	s7,s0,396
 237:C:/Users/stapi/OneDrive/Desktop/GD32VW553/V1_MQTT_OK/GD32VW55X_Wifi_BLE_SDK/GD32VW55x_RELEASE_V1.0.2/MSDK/cloud/alicloud/src/services/ota/prot\ota_mqtt.c ****                        OTA_MQTT_TOPIC_LEN,
 1435              		.loc 1 237 11
 1436 01a8 37060000 		lui	a2,%hi(.LC48)
 1437 01ac 2687     		mv	a4,s1
 1438 01ae CA86     		mv	a3,s2
 1439 01b0 13060600 		addi	a2,a2,%lo(.LC48)
 1440 01b4 93050008 		li	a1,128
 1441 01b8 5E85     		mv	a0,s7
 1442              	.LVL164:
 1443 01ba 97000000 		call	HAL_Snprintf
 1443      E7800000 
 1444              	.LVL165:
 242:C:/Users/stapi/OneDrive/Desktop/GD32VW553/V1_MQTT_OK/GD32VW55X_Wifi_BLE_SDK/GD32VW55x_RELEASE_V1.0.2/MSDK/cloud/alicloud/src/services/ota/prot\ota_mqtt.c ****         OTA_LOG_ERROR("generate topic name of config get failed");
 1445              		.loc 1 242 5 is_stmt 1
 242:C:/Users/stapi/OneDrive/Desktop/GD32VW553/V1_MQTT_OK/GD32VW55X_Wifi_BLE_SDK/GD32VW55x_RELEASE_V1.0.2/MSDK/cloud/alicloud/src/services/ota/prot\ota_mqtt.c ****         OTA_LOG_ERROR("generate topic name of config get failed");
 1446              		.loc 1 242 8 is_stmt 0
 1447 01c2 E34805FA 		blt	a0,zero,.L132
 248:C:/Users/stapi/OneDrive/Desktop/GD32VW553/V1_MQTT_OK/GD32VW55X_Wifi_BLE_SDK/GD32VW55x_RELEASE_V1.0.2/MSDK/cloud/alicloud/src/services/ota/prot\ota_mqtt.c **** #else
 1448              		.loc 1 248 5 is_stmt 1
 248:C:/Users/stapi/OneDrive/Desktop/GD32VW553/V1_MQTT_OK/GD32VW55X_Wifi_BLE_SDK/GD32VW55x_RELEASE_V1.0.2/MSDK/cloud/alicloud/src/services/ota/prot\ota_mqtt.c **** #else
 1449              		.loc 1 248 11 is_stmt 0
 1450 01c6 2287     		mv	a4,s0
 1451 01c8 93060A00 		addi	a3,s4,%lo(otamqtt_UpgrageCb)
 1452 01cc 0D46     		li	a2,3
 1453 01ce DE85     		mv	a1,s7
 1454 01d0 4E85     		mv	a0,s3
 1455              	.LVL166:
 1456 01d2 97000000 		call	IOT_MQTT_Subscribe
 1456      E7800000 
 1457              	.LVL167:
 252:C:/Users/stapi/OneDrive/Desktop/GD32VW553/V1_MQTT_OK/GD32VW55X_Wifi_BLE_SDK/GD32VW55x_RELEASE_V1.0.2/MSDK/cloud/alicloud/src/services/ota/prot\ota_mqtt.c ****         OTA_LOG_ERROR("mqtt subscribe failed");
 1458              		.loc 1 252 5 is_stmt 1
 252:C:/Users/stapi/OneDrive/Desktop/GD32VW553/V1_MQTT_OK/GD32VW55X_Wifi_BLE_SDK/GD32VW55x_RELEASE_V1.0.2/MSDK/cloud/alicloud/src/services/ota/prot\ota_mqtt.c ****         OTA_LOG_ERROR("mqtt subscribe failed");
 1459              		.loc 1 252 8 is_stmt 0
 1460 01da E34605F0 		blt	a0,zero,.L130
 257:C:/Users/stapi/OneDrive/Desktop/GD32VW553/V1_MQTT_OK/GD32VW55X_Wifi_BLE_SDK/GD32VW55x_RELEASE_V1.0.2/MSDK/cloud/alicloud/src/services/ota/prot\ota_mqtt.c ****     h_osc->product_key = product_key;
 1461              		.loc 1 257 5 is_stmt 1
 257:C:/Users/stapi/OneDrive/Desktop/GD32VW553/V1_MQTT_OK/GD32VW55X_Wifi_BLE_SDK/GD32VW55x_RELEASE_V1.0.2/MSDK/cloud/alicloud/src/services/ota/prot\ota_mqtt.c ****     h_osc->product_key = product_key;
 1462              		.loc 1 257 17 is_stmt 0
 1463 01de 23203401 		sw	s3,0(s0)
 258:C:/Users/stapi/OneDrive/Desktop/GD32VW553/V1_MQTT_OK/GD32VW55X_Wifi_BLE_SDK/GD32VW55x_RELEASE_V1.0.2/MSDK/cloud/alicloud/src/services/ota/prot\ota_mqtt.c ****     h_osc->device_name = device_name;
 1464              		.loc 1 258 5 is_stmt 1
 258:C:/Users/stapi/OneDrive/Desktop/GD32VW553/V1_MQTT_OK/GD32VW55X_Wifi_BLE_SDK/GD32VW55x_RELEASE_V1.0.2/MSDK/cloud/alicloud/src/services/ota/prot\ota_mqtt.c ****     h_osc->device_name = device_name;
 1465              		.loc 1 258 24 is_stmt 0
 1466 01e2 23222401 		sw	s2,4(s0)
 259:C:/Users/stapi/OneDrive/Desktop/GD32VW553/V1_MQTT_OK/GD32VW55X_Wifi_BLE_SDK/GD32VW55x_RELEASE_V1.0.2/MSDK/cloud/alicloud/src/services/ota/prot\ota_mqtt.c ****     h_osc->cb = cb;
 1467              		.loc 1 259 5 is_stmt 1
 259:C:/Users/stapi/OneDrive/Desktop/GD32VW553/V1_MQTT_OK/GD32VW55X_Wifi_BLE_SDK/GD32VW55x_RELEASE_V1.0.2/MSDK/cloud/alicloud/src/services/ota/prot\ota_mqtt.c ****     h_osc->cb = cb;
 1468              		.loc 1 259 24 is_stmt 0
 1469 01e6 04C4     		sw	s1,8(s0)
 260:C:/Users/stapi/OneDrive/Desktop/GD32VW553/V1_MQTT_OK/GD32VW55X_Wifi_BLE_SDK/GD32VW55x_RELEASE_V1.0.2/MSDK/cloud/alicloud/src/services/ota/prot\ota_mqtt.c ****     h_osc->context = context;
 1470              		.loc 1 260 5 is_stmt 1
 260:C:/Users/stapi/OneDrive/Desktop/GD32VW553/V1_MQTT_OK/GD32VW55X_Wifi_BLE_SDK/GD32VW55x_RELEASE_V1.0.2/MSDK/cloud/alicloud/src/services/ota/prot\ota_mqtt.c ****     h_osc->context = context;
 1471              		.loc 1 260 15 is_stmt 0
 1472 01e8 93070420 		addi	a5,s0,512
 1473 01ec 23A66701 		sw	s6,12(a5)
 261:C:/Users/stapi/OneDrive/Desktop/GD32VW553/V1_MQTT_OK/GD32VW55X_Wifi_BLE_SDK/GD32VW55x_RELEASE_V1.0.2/MSDK/cloud/alicloud/src/services/ota/prot\ota_mqtt.c **** 
 1474              		.loc 1 261 5 is_stmt 1
 261:C:/Users/stapi/OneDrive/Desktop/GD32VW553/V1_MQTT_OK/GD32VW55X_Wifi_BLE_SDK/GD32VW55x_RELEASE_V1.0.2/MSDK/cloud/alicloud/src/services/ota/prot\ota_mqtt.c **** 
 1475              		.loc 1 261 20 is_stmt 0
 1476 01f0 23A85701 		sw	s5,16(a5)
 263:C:/Users/stapi/OneDrive/Desktop/GD32VW553/V1_MQTT_OK/GD32VW55X_Wifi_BLE_SDK/GD32VW55x_RELEASE_V1.0.2/MSDK/cloud/alicloud/src/services/ota/prot\ota_mqtt.c **** 
 1477              		.loc 1 263 5 is_stmt 1
 263:C:/Users/stapi/OneDrive/Desktop/GD32VW553/V1_MQTT_OK/GD32VW55X_Wifi_BLE_SDK/GD32VW55x_RELEASE_V1.0.2/MSDK/cloud/alicloud/src/services/ota/prot\ota_mqtt.c **** 
 1478              		.loc 1 263 12 is_stmt 0
 1479 01f4 8DB5     		j	.L123
 1480              		.cfi_endproc
 1481              	.LFE24:
 1483              		.section	.text.osc_Deinit,"ax",@progbits
 1484              		.align	1
 1485              		.globl	osc_Deinit
 1487              	osc_Deinit:
 1488              	.LFB25:
 272:C:/Users/stapi/OneDrive/Desktop/GD32VW553/V1_MQTT_OK/GD32VW55X_Wifi_BLE_SDK/GD32VW55x_RELEASE_V1.0.2/MSDK/cloud/alicloud/src/services/ota/prot\ota_mqtt.c **** 
 273:C:/Users/stapi/OneDrive/Desktop/GD32VW553/V1_MQTT_OK/GD32VW55X_Wifi_BLE_SDK/GD32VW55x_RELEASE_V1.0.2/MSDK/cloud/alicloud/src/services/ota/prot\ota_mqtt.c **** int osc_Deinit(void *handle)
 274:C:/Users/stapi/OneDrive/Desktop/GD32VW553/V1_MQTT_OK/GD32VW55X_Wifi_BLE_SDK/GD32VW55x_RELEASE_V1.0.2/MSDK/cloud/alicloud/src/services/ota/prot\ota_mqtt.c **** {
 1489              		.loc 1 274 1 is_stmt 1
 1490              		.cfi_startproc
 1491              	.LVL168:
 275:C:/Users/stapi/OneDrive/Desktop/GD32VW553/V1_MQTT_OK/GD32VW55X_Wifi_BLE_SDK/GD32VW55x_RELEASE_V1.0.2/MSDK/cloud/alicloud/src/services/ota/prot\ota_mqtt.c ****     if (NULL != handle) {
 1492              		.loc 1 275 5
 1493              		.loc 1 275 8 is_stmt 0
 1494 0000 11CD     		beq	a0,zero,.L141
 274:C:/Users/stapi/OneDrive/Desktop/GD32VW553/V1_MQTT_OK/GD32VW55X_Wifi_BLE_SDK/GD32VW55x_RELEASE_V1.0.2/MSDK/cloud/alicloud/src/services/ota/prot\ota_mqtt.c ****     if (NULL != handle) {
 1495              		.loc 1 274 1
 1496 0002 17030000 		call	t0,__riscv_save_0
 1496      E7020300 
 1497              		.cfi_offset 1, -4
 1498              		.cfi_def_cfa_offset 16
 276:C:/Users/stapi/OneDrive/Desktop/GD32VW553/V1_MQTT_OK/GD32VW55X_Wifi_BLE_SDK/GD32VW55x_RELEASE_V1.0.2/MSDK/cloud/alicloud/src/services/ota/prot\ota_mqtt.c ****         OTA_FREE(handle);
 1499              		.loc 1 276 9 is_stmt 1
 1500 000a 97000000 		call	LITE_free_internal
 1500      E7800000 
 1501              	.LVL169:
 277:C:/Users/stapi/OneDrive/Desktop/GD32VW553/V1_MQTT_OK/GD32VW55X_Wifi_BLE_SDK/GD32VW55x_RELEASE_V1.0.2/MSDK/cloud/alicloud/src/services/ota/prot\ota_mqtt.c ****     }
 278:C:/Users/stapi/OneDrive/Desktop/GD32VW553/V1_MQTT_OK/GD32VW55X_Wifi_BLE_SDK/GD32VW55x_RELEASE_V1.0.2/MSDK/cloud/alicloud/src/services/ota/prot\ota_mqtt.c **** 
 279:C:/Users/stapi/OneDrive/Desktop/GD32VW553/V1_MQTT_OK/GD32VW55X_Wifi_BLE_SDK/GD32VW55x_RELEASE_V1.0.2/MSDK/cloud/alicloud/src/services/ota/prot\ota_mqtt.c ****     return 0;
 1502              		.loc 1 279 5
 280:C:/Users/stapi/OneDrive/Desktop/GD32VW553/V1_MQTT_OK/GD32VW55X_Wifi_BLE_SDK/GD32VW55x_RELEASE_V1.0.2/MSDK/cloud/alicloud/src/services/ota/prot\ota_mqtt.c **** }
 1503              		.loc 1 280 1 is_stmt 0
 1504 0012 0145     		li	a0,0
 1505 0014 17030000 		tail	__riscv_restore_0
 1505      67000300 
 1506              		.cfi_restore 1
 1507              		.cfi_def_cfa_offset 0
 1508              	.LVL170:
 1509              	.L141:
 279:C:/Users/stapi/OneDrive/Desktop/GD32VW553/V1_MQTT_OK/GD32VW55X_Wifi_BLE_SDK/GD32VW55x_RELEASE_V1.0.2/MSDK/cloud/alicloud/src/services/ota/prot\ota_mqtt.c **** }
 1510              		.loc 1 279 5 is_stmt 1
 1511              		.loc 1 280 1 is_stmt 0
 1512 001c 0145     		li	a0,0
 1513              	.LVL171:
 1514 001e 8280     		ret
 1515              		.cfi_endproc
 1516              	.LFE25:
 1518              		.section	.rodata.osc_ReportProgress.str1.4,"aMS",@progbits,1
 1519              		.align	2
 1520              	.LC49:
 1521 0000 70726F67 		.string	"progress"
 1521      72657373 
 1521      00
 1522              		.section	.text.osc_ReportProgress,"ax",@progbits
 1523              		.align	1
 1524              		.globl	osc_ReportProgress
 1526              	osc_ReportProgress:
 1527              	.LFB26:
 281:C:/Users/stapi/OneDrive/Desktop/GD32VW553/V1_MQTT_OK/GD32VW55X_Wifi_BLE_SDK/GD32VW55x_RELEASE_V1.0.2/MSDK/cloud/alicloud/src/services/ota/prot\ota_mqtt.c **** 
 282:C:/Users/stapi/OneDrive/Desktop/GD32VW553/V1_MQTT_OK/GD32VW55X_Wifi_BLE_SDK/GD32VW55x_RELEASE_V1.0.2/MSDK/cloud/alicloud/src/services/ota/prot\ota_mqtt.c **** /* report progress of OTA */
 283:C:/Users/stapi/OneDrive/Desktop/GD32VW553/V1_MQTT_OK/GD32VW55X_Wifi_BLE_SDK/GD32VW55x_RELEASE_V1.0.2/MSDK/cloud/alicloud/src/services/ota/prot\ota_mqtt.c **** int osc_ReportProgress(void *handle, const char *msg)
 284:C:/Users/stapi/OneDrive/Desktop/GD32VW553/V1_MQTT_OK/GD32VW55X_Wifi_BLE_SDK/GD32VW55x_RELEASE_V1.0.2/MSDK/cloud/alicloud/src/services/ota/prot\ota_mqtt.c **** {
 1528              		.loc 1 284 1 is_stmt 1
 1529              		.cfi_startproc
 1530              	.LVL172:
 285:C:/Users/stapi/OneDrive/Desktop/GD32VW553/V1_MQTT_OK/GD32VW55X_Wifi_BLE_SDK/GD32VW55x_RELEASE_V1.0.2/MSDK/cloud/alicloud/src/services/ota/prot\ota_mqtt.c ****     return otamqtt_Publish(handle, "progress", 0, msg);
 1531              		.loc 1 285 5
 284:C:/Users/stapi/OneDrive/Desktop/GD32VW553/V1_MQTT_OK/GD32VW55X_Wifi_BLE_SDK/GD32VW55x_RELEASE_V1.0.2/MSDK/cloud/alicloud/src/services/ota/prot\ota_mqtt.c ****     return otamqtt_Publish(handle, "progress", 0, msg);
 1532              		.loc 1 284 1 is_stmt 0
 1533 0000 AE86     		mv	a3,a1
 1534              		.loc 1 285 12
 1535 0002 B7050000 		lui	a1,%hi(.LC49)
 1536              	.LVL173:
 1537 0006 0146     		li	a2,0
 1538 0008 93850500 		addi	a1,a1,%lo(.LC49)
 1539 000c 17030000 		tail	otamqtt_Publish
 1539      67000300 
 1540              	.LVL174:
 1541              		.cfi_endproc
 1542              	.LFE26:
 1544              		.section	.rodata.osc_ReportVersion.str1.4,"aMS",@progbits,1
 1545              		.align	2
 1546              	.LC50:
 1547 0000 696E666F 		.string	"inform"
 1547      726D00
 1548              		.section	.text.osc_ReportVersion,"ax",@progbits
 1549              		.align	1
 1550              		.globl	osc_ReportVersion
 1552              	osc_ReportVersion:
 1553              	.LFB27:
 286:C:/Users/stapi/OneDrive/Desktop/GD32VW553/V1_MQTT_OK/GD32VW55X_Wifi_BLE_SDK/GD32VW55x_RELEASE_V1.0.2/MSDK/cloud/alicloud/src/services/ota/prot\ota_mqtt.c **** }
 287:C:/Users/stapi/OneDrive/Desktop/GD32VW553/V1_MQTT_OK/GD32VW55X_Wifi_BLE_SDK/GD32VW55x_RELEASE_V1.0.2/MSDK/cloud/alicloud/src/services/ota/prot\ota_mqtt.c **** 
 288:C:/Users/stapi/OneDrive/Desktop/GD32VW553/V1_MQTT_OK/GD32VW55X_Wifi_BLE_SDK/GD32VW55x_RELEASE_V1.0.2/MSDK/cloud/alicloud/src/services/ota/prot\ota_mqtt.c **** 
 289:C:/Users/stapi/OneDrive/Desktop/GD32VW553/V1_MQTT_OK/GD32VW55X_Wifi_BLE_SDK/GD32VW55x_RELEASE_V1.0.2/MSDK/cloud/alicloud/src/services/ota/prot\ota_mqtt.c **** /* report version of OTA firmware */
 290:C:/Users/stapi/OneDrive/Desktop/GD32VW553/V1_MQTT_OK/GD32VW55X_Wifi_BLE_SDK/GD32VW55x_RELEASE_V1.0.2/MSDK/cloud/alicloud/src/services/ota/prot\ota_mqtt.c **** int osc_ReportVersion(void *handle, const char *msg)
 291:C:/Users/stapi/OneDrive/Desktop/GD32VW553/V1_MQTT_OK/GD32VW55X_Wifi_BLE_SDK/GD32VW55x_RELEASE_V1.0.2/MSDK/cloud/alicloud/src/services/ota/prot\ota_mqtt.c **** {
 1554              		.loc 1 291 1 is_stmt 1
 1555              		.cfi_startproc
 1556              	.LVL175:
 292:C:/Users/stapi/OneDrive/Desktop/GD32VW553/V1_MQTT_OK/GD32VW55X_Wifi_BLE_SDK/GD32VW55x_RELEASE_V1.0.2/MSDK/cloud/alicloud/src/services/ota/prot\ota_mqtt.c ****     return otamqtt_Publish(handle, "inform", 1, msg);
 1557              		.loc 1 292 5
 291:C:/Users/stapi/OneDrive/Desktop/GD32VW553/V1_MQTT_OK/GD32VW55X_Wifi_BLE_SDK/GD32VW55x_RELEASE_V1.0.2/MSDK/cloud/alicloud/src/services/ota/prot\ota_mqtt.c ****     return otamqtt_Publish(handle, "inform", 1, msg);
 1558              		.loc 1 291 1 is_stmt 0
 1559 0000 AE86     		mv	a3,a1
 1560              		.loc 1 292 12
 1561 0002 B7050000 		lui	a1,%hi(.LC50)
 1562              	.LVL176:
 1563 0006 0546     		li	a2,1
 1564 0008 93850500 		addi	a1,a1,%lo(.LC50)
 1565 000c 17030000 		tail	otamqtt_Publish
 1565      67000300 
 1566              	.LVL177:
 1567              		.cfi_endproc
 1568              	.LFE27:
 1570              		.section	.text.osc_RequestImage,"ax",@progbits
 1571              		.align	1
 1572              		.globl	osc_RequestImage
 1574              	osc_RequestImage:
 1575              	.LFB28:
 293:C:/Users/stapi/OneDrive/Desktop/GD32VW553/V1_MQTT_OK/GD32VW55X_Wifi_BLE_SDK/GD32VW55x_RELEASE_V1.0.2/MSDK/cloud/alicloud/src/services/ota/prot\ota_mqtt.c **** }
 294:C:/Users/stapi/OneDrive/Desktop/GD32VW553/V1_MQTT_OK/GD32VW55X_Wifi_BLE_SDK/GD32VW55x_RELEASE_V1.0.2/MSDK/cloud/alicloud/src/services/ota/prot\ota_mqtt.c **** 
 295:C:/Users/stapi/OneDrive/Desktop/GD32VW553/V1_MQTT_OK/GD32VW55X_Wifi_BLE_SDK/GD32VW55x_RELEASE_V1.0.2/MSDK/cloud/alicloud/src/services/ota/prot\ota_mqtt.c **** /* request the OTA firmware pushed by user*/
 296:C:/Users/stapi/OneDrive/Desktop/GD32VW553/V1_MQTT_OK/GD32VW55X_Wifi_BLE_SDK/GD32VW55x_RELEASE_V1.0.2/MSDK/cloud/alicloud/src/services/ota/prot\ota_mqtt.c **** int osc_RequestImage(void *handle, const char *msg)
 297:C:/Users/stapi/OneDrive/Desktop/GD32VW553/V1_MQTT_OK/GD32VW55X_Wifi_BLE_SDK/GD32VW55x_RELEASE_V1.0.2/MSDK/cloud/alicloud/src/services/ota/prot\ota_mqtt.c **** {
 1576              		.loc 1 297 1 is_stmt 1
 1577              		.cfi_startproc
 1578              	.LVL178:
 298:C:/Users/stapi/OneDrive/Desktop/GD32VW553/V1_MQTT_OK/GD32VW55X_Wifi_BLE_SDK/GD32VW55x_RELEASE_V1.0.2/MSDK/cloud/alicloud/src/services/ota/prot\ota_mqtt.c ****     return otamqtt_Publish(handle, "request", 1, msg);
 1579              		.loc 1 298 5
 297:C:/Users/stapi/OneDrive/Desktop/GD32VW553/V1_MQTT_OK/GD32VW55X_Wifi_BLE_SDK/GD32VW55x_RELEASE_V1.0.2/MSDK/cloud/alicloud/src/services/ota/prot\ota_mqtt.c ****     return otamqtt_Publish(handle, "request", 1, msg);
 1580              		.loc 1 297 1 is_stmt 0
 1581 0000 AE86     		mv	a3,a1
 1582              		.loc 1 298 12
 1583 0002 B7050000 		lui	a1,%hi(.LC41)
 1584              	.LVL179:
 1585 0006 0546     		li	a2,1
 1586 0008 93850500 		addi	a1,a1,%lo(.LC41)
 1587 000c 17030000 		tail	otamqtt_Publish
 1587      67000300 
 1588              	.LVL180:
 1589              		.cfi_endproc
 1590              	.LFE28:
 1592              		.section	.text.osc_RequestConfig,"ax",@progbits
 1593              		.align	1
 1594              		.globl	osc_RequestConfig
 1596              	osc_RequestConfig:
 1597              	.LFB29:
 299:C:/Users/stapi/OneDrive/Desktop/GD32VW553/V1_MQTT_OK/GD32VW55X_Wifi_BLE_SDK/GD32VW55x_RELEASE_V1.0.2/MSDK/cloud/alicloud/src/services/ota/prot\ota_mqtt.c **** }
 300:C:/Users/stapi/OneDrive/Desktop/GD32VW553/V1_MQTT_OK/GD32VW55X_Wifi_BLE_SDK/GD32VW55x_RELEASE_V1.0.2/MSDK/cloud/alicloud/src/services/ota/prot\ota_mqtt.c **** 
 301:C:/Users/stapi/OneDrive/Desktop/GD32VW553/V1_MQTT_OK/GD32VW55X_Wifi_BLE_SDK/GD32VW55x_RELEASE_V1.0.2/MSDK/cloud/alicloud/src/services/ota/prot\ota_mqtt.c **** /* request the config */
 302:C:/Users/stapi/OneDrive/Desktop/GD32VW553/V1_MQTT_OK/GD32VW55X_Wifi_BLE_SDK/GD32VW55x_RELEASE_V1.0.2/MSDK/cloud/alicloud/src/services/ota/prot\ota_mqtt.c **** int osc_RequestConfig(void *handle, const char *topic_name, iotx_mqtt_topic_info_pt topic_msg)
 303:C:/Users/stapi/OneDrive/Desktop/GD32VW553/V1_MQTT_OK/GD32VW55X_Wifi_BLE_SDK/GD32VW55x_RELEASE_V1.0.2/MSDK/cloud/alicloud/src/services/ota/prot\ota_mqtt.c **** {
 1598              		.loc 1 303 1 is_stmt 1
 1599              		.cfi_startproc
 1600              	.LVL181:
 304:C:/Users/stapi/OneDrive/Desktop/GD32VW553/V1_MQTT_OK/GD32VW55X_Wifi_BLE_SDK/GD32VW55x_RELEASE_V1.0.2/MSDK/cloud/alicloud/src/services/ota/prot\ota_mqtt.c ****     return otamqtt_publish_full_topic(handle, topic_name, topic_msg);
 1601              		.loc 1 304 5
 1602              		.loc 1 304 12 is_stmt 0
 1603 0000 0841     		lw	a0,0(a0)
 1604              	.LVL182:
 1605 0002 17030000 		tail	otamqtt_publish_full_topic.isra.0
 1605      67000300 
 1606              	.LVL183:
 1607              		.cfi_endproc
 1608              	.LFE29:
 1610              		.section	.text.iotx_ota_set_fetch_callback,"ax",@progbits
 1611              		.align	1
 1612              		.globl	iotx_ota_set_fetch_callback
 1614              	iotx_ota_set_fetch_callback:
 1615              	.LFB31:
  68:C:/Users/stapi/OneDrive/Desktop/GD32VW553/V1_MQTT_OK/GD32VW55X_Wifi_BLE_SDK/GD32VW55x_RELEASE_V1.0.2/MSDK/cloud/alicloud/src/services/ota\iotx_ota.c ****     OTA_Struct_pt ota_pt = (OTA_Struct_pt)pt;
 1616              		.loc 2 68 1 is_stmt 1
 1617              		.cfi_startproc
 1618              	.LVL184:
  69:C:/Users/stapi/OneDrive/Desktop/GD32VW553/V1_MQTT_OK/GD32VW55X_Wifi_BLE_SDK/GD32VW55x_RELEASE_V1.0.2/MSDK/cloud/alicloud/src/services/ota\iotx_ota.c **** 
 1619              		.loc 2 69 5
  68:C:/Users/stapi/OneDrive/Desktop/GD32VW553/V1_MQTT_OK/GD32VW55X_Wifi_BLE_SDK/GD32VW55x_RELEASE_V1.0.2/MSDK/cloud/alicloud/src/services/ota\iotx_ota.c ****     OTA_Struct_pt ota_pt = (OTA_Struct_pt)pt;
 1620              		.loc 2 68 1 is_stmt 0
 1621 0000 AA87     		mv	a5,a0
 1622              	.LVL185:
  71:C:/Users/stapi/OneDrive/Desktop/GD32VW553/V1_MQTT_OK/GD32VW55X_Wifi_BLE_SDK/GD32VW55x_RELEASE_V1.0.2/MSDK/cloud/alicloud/src/services/ota\iotx_ota.c ****         return -1;
 1623              		.loc 2 71 5 is_stmt 1
  72:C:/Users/stapi/OneDrive/Desktop/GD32VW553/V1_MQTT_OK/GD32VW55X_Wifi_BLE_SDK/GD32VW55x_RELEASE_V1.0.2/MSDK/cloud/alicloud/src/services/ota\iotx_ota.c ****     }
 1624              		.loc 2 72 16 is_stmt 0
 1625 0002 7D55     		li	a0,-1
 1626              	.LVL186:
  71:C:/Users/stapi/OneDrive/Desktop/GD32VW553/V1_MQTT_OK/GD32VW55X_Wifi_BLE_SDK/GD32VW55x_RELEASE_V1.0.2/MSDK/cloud/alicloud/src/services/ota\iotx_ota.c ****         return -1;
 1627              		.loc 2 71 8
 1628 0004 91C7     		beq	a5,zero,.L152
  71:C:/Users/stapi/OneDrive/Desktop/GD32VW553/V1_MQTT_OK/GD32VW55X_Wifi_BLE_SDK/GD32VW55x_RELEASE_V1.0.2/MSDK/cloud/alicloud/src/services/ota\iotx_ota.c ****         return -1;
 1629              		.loc 2 71 24 discriminator 1
 1630 0006 89C5     		beq	a1,zero,.L152
  75:C:/Users/stapi/OneDrive/Desktop/GD32VW553/V1_MQTT_OK/GD32VW55X_Wifi_BLE_SDK/GD32VW55x_RELEASE_V1.0.2/MSDK/cloud/alicloud/src/services/ota\iotx_ota.c ****     ota_pt->user_data = user_data;
 1631              		.loc 2 75 5 is_stmt 1
  75:C:/Users/stapi/OneDrive/Desktop/GD32VW553/V1_MQTT_OK/GD32VW55X_Wifi_BLE_SDK/GD32VW55x_RELEASE_V1.0.2/MSDK/cloud/alicloud/src/services/ota\iotx_ota.c ****     ota_pt->user_data = user_data;
 1632              		.loc 2 75 22 is_stmt 0
 1633 0008 ACDF     		sw	a1,120(a5)
  76:C:/Users/stapi/OneDrive/Desktop/GD32VW553/V1_MQTT_OK/GD32VW55X_Wifi_BLE_SDK/GD32VW55x_RELEASE_V1.0.2/MSDK/cloud/alicloud/src/services/ota\iotx_ota.c ****     return 0;
 1634              		.loc 2 76 5 is_stmt 1
  76:C:/Users/stapi/OneDrive/Desktop/GD32VW553/V1_MQTT_OK/GD32VW55X_Wifi_BLE_SDK/GD32VW55x_RELEASE_V1.0.2/MSDK/cloud/alicloud/src/services/ota\iotx_ota.c ****     return 0;
 1635              		.loc 2 76 23 is_stmt 0
 1636 000a F0DF     		sw	a2,124(a5)
  77:C:/Users/stapi/OneDrive/Desktop/GD32VW553/V1_MQTT_OK/GD32VW55X_Wifi_BLE_SDK/GD32VW55x_RELEASE_V1.0.2/MSDK/cloud/alicloud/src/services/ota\iotx_ota.c **** }
 1637              		.loc 2 77 5 is_stmt 1
  77:C:/Users/stapi/OneDrive/Desktop/GD32VW553/V1_MQTT_OK/GD32VW55X_Wifi_BLE_SDK/GD32VW55x_RELEASE_V1.0.2/MSDK/cloud/alicloud/src/services/ota\iotx_ota.c **** }
 1638              		.loc 2 77 12 is_stmt 0
 1639 000c 0145     		li	a0,0
 1640 000e 8280     		ret
 1641              	.L152:
  78:C:/Users/stapi/OneDrive/Desktop/GD32VW553/V1_MQTT_OK/GD32VW55X_Wifi_BLE_SDK/GD32VW55x_RELEASE_V1.0.2/MSDK/cloud/alicloud/src/services/ota\iotx_ota.c **** 
 1642              		.loc 2 78 1
 1643 0010 8280     		ret
 1644              		.cfi_endproc
 1645              	.LFE31:
 1647              		.section	.text.iotx_ota_set_cota_fetch_callback,"ax",@progbits
 1648              		.align	1
 1649              		.globl	iotx_ota_set_cota_fetch_callback
 1651              	iotx_ota_set_cota_fetch_callback:
 1652              	.LFB32:
  82:C:/Users/stapi/OneDrive/Desktop/GD32VW553/V1_MQTT_OK/GD32VW55X_Wifi_BLE_SDK/GD32VW55x_RELEASE_V1.0.2/MSDK/cloud/alicloud/src/services/ota\iotx_ota.c ****     OTA_Struct_pt ota_pt = (OTA_Struct_pt)pt;
 1653              		.loc 2 82 1 is_stmt 1
 1654              		.cfi_startproc
 1655              	.LVL187:
  83:C:/Users/stapi/OneDrive/Desktop/GD32VW553/V1_MQTT_OK/GD32VW55X_Wifi_BLE_SDK/GD32VW55x_RELEASE_V1.0.2/MSDK/cloud/alicloud/src/services/ota\iotx_ota.c **** 
 1656              		.loc 2 83 5
  82:C:/Users/stapi/OneDrive/Desktop/GD32VW553/V1_MQTT_OK/GD32VW55X_Wifi_BLE_SDK/GD32VW55x_RELEASE_V1.0.2/MSDK/cloud/alicloud/src/services/ota\iotx_ota.c ****     OTA_Struct_pt ota_pt = (OTA_Struct_pt)pt;
 1657              		.loc 2 82 1 is_stmt 0
 1658 0000 AA87     		mv	a5,a0
 1659              	.LVL188:
  85:C:/Users/stapi/OneDrive/Desktop/GD32VW553/V1_MQTT_OK/GD32VW55X_Wifi_BLE_SDK/GD32VW55x_RELEASE_V1.0.2/MSDK/cloud/alicloud/src/services/ota\iotx_ota.c ****         return -1;
 1660              		.loc 2 85 5 is_stmt 1
  86:C:/Users/stapi/OneDrive/Desktop/GD32VW553/V1_MQTT_OK/GD32VW55X_Wifi_BLE_SDK/GD32VW55x_RELEASE_V1.0.2/MSDK/cloud/alicloud/src/services/ota\iotx_ota.c ****     }
 1661              		.loc 2 86 16 is_stmt 0
 1662 0002 7D55     		li	a0,-1
 1663              	.LVL189:
  85:C:/Users/stapi/OneDrive/Desktop/GD32VW553/V1_MQTT_OK/GD32VW55X_Wifi_BLE_SDK/GD32VW55x_RELEASE_V1.0.2/MSDK/cloud/alicloud/src/services/ota\iotx_ota.c ****         return -1;
 1664              		.loc 2 85 8
 1665 0004 81CB     		beq	a5,zero,.L156
  85:C:/Users/stapi/OneDrive/Desktop/GD32VW553/V1_MQTT_OK/GD32VW55X_Wifi_BLE_SDK/GD32VW55x_RELEASE_V1.0.2/MSDK/cloud/alicloud/src/services/ota\iotx_ota.c ****         return -1;
 1666              		.loc 2 85 24 discriminator 1
 1667 0006 99C5     		beq	a1,zero,.L156
  89:C:/Users/stapi/OneDrive/Desktop/GD32VW553/V1_MQTT_OK/GD32VW55X_Wifi_BLE_SDK/GD32VW55x_RELEASE_V1.0.2/MSDK/cloud/alicloud/src/services/ota\iotx_ota.c ****     ota_pt->cota_user_data = user_data;
 1668              		.loc 2 89 5 is_stmt 1
  89:C:/Users/stapi/OneDrive/Desktop/GD32VW553/V1_MQTT_OK/GD32VW55X_Wifi_BLE_SDK/GD32VW55x_RELEASE_V1.0.2/MSDK/cloud/alicloud/src/services/ota\iotx_ota.c ****     ota_pt->cota_user_data = user_data;
 1669              		.loc 2 89 27 is_stmt 0
 1670 0008 23A0B708 		sw	a1,128(a5)
  90:C:/Users/stapi/OneDrive/Desktop/GD32VW553/V1_MQTT_OK/GD32VW55X_Wifi_BLE_SDK/GD32VW55x_RELEASE_V1.0.2/MSDK/cloud/alicloud/src/services/ota\iotx_ota.c ****     return 0;
 1671              		.loc 2 90 5 is_stmt 1
  90:C:/Users/stapi/OneDrive/Desktop/GD32VW553/V1_MQTT_OK/GD32VW55X_Wifi_BLE_SDK/GD32VW55x_RELEASE_V1.0.2/MSDK/cloud/alicloud/src/services/ota\iotx_ota.c ****     return 0;
 1672              		.loc 2 90 28 is_stmt 0
 1673 000c 23A2C708 		sw	a2,132(a5)
  91:C:/Users/stapi/OneDrive/Desktop/GD32VW553/V1_MQTT_OK/GD32VW55X_Wifi_BLE_SDK/GD32VW55x_RELEASE_V1.0.2/MSDK/cloud/alicloud/src/services/ota\iotx_ota.c **** }
 1674              		.loc 2 91 5 is_stmt 1
  91:C:/Users/stapi/OneDrive/Desktop/GD32VW553/V1_MQTT_OK/GD32VW55X_Wifi_BLE_SDK/GD32VW55x_RELEASE_V1.0.2/MSDK/cloud/alicloud/src/services/ota\iotx_ota.c **** }
 1675              		.loc 2 91 12 is_stmt 0
 1676 0010 0145     		li	a0,0
 1677 0012 8280     		ret
 1678              	.L156:
  92:C:/Users/stapi/OneDrive/Desktop/GD32VW553/V1_MQTT_OK/GD32VW55X_Wifi_BLE_SDK/GD32VW55x_RELEASE_V1.0.2/MSDK/cloud/alicloud/src/services/ota\iotx_ota.c **** 
 1679              		.loc 2 92 1
 1680 0014 8280     		ret
 1681              		.cfi_endproc
 1682              	.LFE32:
 1684              		.section	.text.iotx_ota_download,"ax",@progbits
 1685              		.align	1
 1686              		.globl	iotx_ota_download
 1688              	iotx_ota_download:
 1689              	.LFB34:
 331:C:/Users/stapi/OneDrive/Desktop/GD32VW553/V1_MQTT_OK/GD32VW55X_Wifi_BLE_SDK/GD32VW55x_RELEASE_V1.0.2/MSDK/cloud/alicloud/src/services/ota\iotx_ota.c **** 
 332:C:/Users/stapi/OneDrive/Desktop/GD32VW553/V1_MQTT_OK/GD32VW55X_Wifi_BLE_SDK/GD32VW55x_RELEASE_V1.0.2/MSDK/cloud/alicloud/src/services/ota\iotx_ota.c **** int iotx_ota_download(void *pcontext, const char *payload, unsigned int payload_len)
 333:C:/Users/stapi/OneDrive/Desktop/GD32VW553/V1_MQTT_OK/GD32VW55X_Wifi_BLE_SDK/GD32VW55x_RELEASE_V1.0.2/MSDK/cloud/alicloud/src/services/ota\iotx_ota.c **** {
 1690              		.loc 2 333 1 is_stmt 1
 1691              		.cfi_startproc
 1692              	.LVL190:
 334:C:/Users/stapi/OneDrive/Desktop/GD32VW553/V1_MQTT_OK/GD32VW55X_Wifi_BLE_SDK/GD32VW55x_RELEASE_V1.0.2/MSDK/cloud/alicloud/src/services/ota\iotx_ota.c ****     return ota_callback(pcontext, payload, payload_len, IOTX_OTA_TOPIC_TYPE_DEVICE_UPGRATE);
 1693              		.loc 2 334 5
 1694              		.loc 2 334 12 is_stmt 0
 1695 0000 8946     		li	a3,2
 1696 0002 17030000 		tail	ota_callback
 1696      67000300 
 1697              	.LVL191:
 1698              		.cfi_endproc
 1699              	.LFE34:
 1701              		.section	.rodata.IOT_OTA_Init.str1.4,"aMS",@progbits,1
 1702              		.align	2
 1703              	.LC51:
 1704 0000 696F7420 		.string	"iot ota has been initialized"
 1704      6F746120 
 1704      68617320 
 1704      6265656E 
 1704      20696E69 
 1705 001d 000000   		.align	2
 1706              	.LC52:
 1707 0020 6F6E6520 		.string	"one or more parameters is invalid"
 1707      6F72206D 
 1707      6F726520 
 1707      70617261 
 1707      6D657465 
 1708 0042 0000     		.align	2
 1709              	.LC53:
 1710 0044 616C6C6F 		.string	"allocate failed"
 1710      63617465 
 1710      20666169 
 1710      6C656400 
 1711              		.align	2
 1712              	.LC54:
 1713 0054 696E6974 		.string	"initialize signal channel failed"
 1713      69616C69 
 1713      7A652073 
 1713      69676E61 
 1713      6C206368 
 1714 0075 000000   		.align	2
 1715              	.LC55:
 1716 0078 696E6974 		.string	"initialize md5 failed"
 1716      69616C69 
 1716      7A65206D 
 1716      64352066 
 1716      61696C65 
 1717 008e 0000     		.align	2
 1718              	.LC56:
 1719 0090 696E6974 		.string	"initialize sha256 failed"
 1719      69616C69 
 1719      7A652073 
 1719      68613235 
 1719      36206661 
 1720              		.section	.text.IOT_OTA_Init,"ax",@progbits
 1721              		.align	1
 1722              		.globl	IOT_OTA_Init
 1724              	IOT_OTA_Init:
 1725              	.LFB35:
 335:C:/Users/stapi/OneDrive/Desktop/GD32VW553/V1_MQTT_OK/GD32VW55X_Wifi_BLE_SDK/GD32VW55x_RELEASE_V1.0.2/MSDK/cloud/alicloud/src/services/ota\iotx_ota.c **** }
 336:C:/Users/stapi/OneDrive/Desktop/GD32VW553/V1_MQTT_OK/GD32VW55X_Wifi_BLE_SDK/GD32VW55x_RELEASE_V1.0.2/MSDK/cloud/alicloud/src/services/ota\iotx_ota.c **** 
 337:C:/Users/stapi/OneDrive/Desktop/GD32VW553/V1_MQTT_OK/GD32VW55X_Wifi_BLE_SDK/GD32VW55x_RELEASE_V1.0.2/MSDK/cloud/alicloud/src/services/ota\iotx_ota.c **** static int g_ota_is_initialized = 0;
 338:C:/Users/stapi/OneDrive/Desktop/GD32VW553/V1_MQTT_OK/GD32VW55X_Wifi_BLE_SDK/GD32VW55x_RELEASE_V1.0.2/MSDK/cloud/alicloud/src/services/ota\iotx_ota.c **** 
 339:C:/Users/stapi/OneDrive/Desktop/GD32VW553/V1_MQTT_OK/GD32VW55X_Wifi_BLE_SDK/GD32VW55x_RELEASE_V1.0.2/MSDK/cloud/alicloud/src/services/ota\iotx_ota.c **** /* Initialize OTA module */
 340:C:/Users/stapi/OneDrive/Desktop/GD32VW553/V1_MQTT_OK/GD32VW55X_Wifi_BLE_SDK/GD32VW55x_RELEASE_V1.0.2/MSDK/cloud/alicloud/src/services/ota\iotx_ota.c **** void *IOT_OTA_Init(const char *product_key, const char *device_name, void *ch_signal)
 341:C:/Users/stapi/OneDrive/Desktop/GD32VW553/V1_MQTT_OK/GD32VW55X_Wifi_BLE_SDK/GD32VW55x_RELEASE_V1.0.2/MSDK/cloud/alicloud/src/services/ota\iotx_ota.c **** {
 1726              		.loc 2 341 1 is_stmt 1
 1727              		.cfi_startproc
 1728              	.LVL192:
 1729 0000 17030000 		call	t0,__riscv_save_6
 1729      E7020300 
 1730              		.cfi_offset 21, -28
 1731              		.cfi_offset 20, -24
 1732              		.cfi_offset 19, -20
 1733              		.cfi_offset 18, -16
 1734              		.cfi_offset 9, -12
 1735              		.cfi_offset 8, -8
 1736              		.cfi_offset 1, -4
 1737              		.cfi_def_cfa_offset 32
 342:C:/Users/stapi/OneDrive/Desktop/GD32VW553/V1_MQTT_OK/GD32VW55X_Wifi_BLE_SDK/GD32VW55x_RELEASE_V1.0.2/MSDK/cloud/alicloud/src/services/ota\iotx_ota.c ****     OTA_Struct_pt h_ota = NULL;
 1738              		.loc 2 342 5
 1739              	.LVL193:
 343:C:/Users/stapi/OneDrive/Desktop/GD32VW553/V1_MQTT_OK/GD32VW55X_Wifi_BLE_SDK/GD32VW55x_RELEASE_V1.0.2/MSDK/cloud/alicloud/src/services/ota\iotx_ota.c **** 
 344:C:/Users/stapi/OneDrive/Desktop/GD32VW553/V1_MQTT_OK/GD32VW55X_Wifi_BLE_SDK/GD32VW55x_RELEASE_V1.0.2/MSDK/cloud/alicloud/src/services/ota\iotx_ota.c ****     if (1 == g_ota_is_initialized) {
 1740              		.loc 2 344 5
 1741              		.loc 2 344 11 is_stmt 0
 1742 0008 B7090000 		lui	s3,%hi(.LANCHOR3)
 1743 000c 93890900 		addi	s3,s3,%lo(.LANCHOR3)
 1744              		.loc 2 344 8
 1745 0010 83A70900 		lw	a5,0(s3)
 1746 0014 054A     		li	s4,1
 1747 0016 639C4703 		bne	a5,s4,.L163
 345:C:/Users/stapi/OneDrive/Desktop/GD32VW553/V1_MQTT_OK/GD32VW55X_Wifi_BLE_SDK/GD32VW55x_RELEASE_V1.0.2/MSDK/cloud/alicloud/src/services/ota\iotx_ota.c ****         OTA_LOG_ERROR("iot ota has been initialized");
 1748              		.loc 2 345 9 is_stmt 1
 1749              		.loc 2 345 9
 1750 001a 37050000 		lui	a0,%hi(.LC21)
 1751              	.LVL194:
 1752 001e 13050500 		addi	a0,a0,%lo(.LC21)
 1753 0022 97000000 		call	HAL_Printf
 1753      E7800000 
 1754              	.LVL195:
 1755              		.loc 2 345 9
 1756 002a 37050000 		lui	a0,%hi(.LC51)
 1757 002e 13050500 		addi	a0,a0,%lo(.LC51)
 1758              	.L190:
 346:C:/Users/stapi/OneDrive/Desktop/GD32VW553/V1_MQTT_OK/GD32VW55X_Wifi_BLE_SDK/GD32VW55x_RELEASE_V1.0.2/MSDK/cloud/alicloud/src/services/ota\iotx_ota.c ****         return NULL;
 347:C:/Users/stapi/OneDrive/Desktop/GD32VW553/V1_MQTT_OK/GD32VW55X_Wifi_BLE_SDK/GD32VW55x_RELEASE_V1.0.2/MSDK/cloud/alicloud/src/services/ota\iotx_ota.c ****     }
 348:C:/Users/stapi/OneDrive/Desktop/GD32VW553/V1_MQTT_OK/GD32VW55X_Wifi_BLE_SDK/GD32VW55x_RELEASE_V1.0.2/MSDK/cloud/alicloud/src/services/ota\iotx_ota.c **** 
 349:C:/Users/stapi/OneDrive/Desktop/GD32VW553/V1_MQTT_OK/GD32VW55X_Wifi_BLE_SDK/GD32VW55x_RELEASE_V1.0.2/MSDK/cloud/alicloud/src/services/ota\iotx_ota.c ****     if ((NULL == product_key) || (NULL == device_name)) {
 350:C:/Users/stapi/OneDrive/Desktop/GD32VW553/V1_MQTT_OK/GD32VW55X_Wifi_BLE_SDK/GD32VW55x_RELEASE_V1.0.2/MSDK/cloud/alicloud/src/services/ota\iotx_ota.c ****         OTA_LOG_ERROR("one or more parameters is invalid");
 1759              		.loc 2 350 9 is_stmt 0
 1760 0032 97000000 		call	HAL_Printf
 1760      E7800000 
 1761              	.LVL196:
 1762              		.loc 2 350 9 is_stmt 1
 1763 003a 37050000 		lui	a0,%hi(.LC11)
 1764 003e 13050500 		addi	a0,a0,%lo(.LC11)
 1765 0042 97000000 		call	HAL_Printf
 1765      E7800000 
 1766              	.LVL197:
 1767              		.loc 2 350 9
 351:C:/Users/stapi/OneDrive/Desktop/GD32VW553/V1_MQTT_OK/GD32VW55X_Wifi_BLE_SDK/GD32VW55x_RELEASE_V1.0.2/MSDK/cloud/alicloud/src/services/ota\iotx_ota.c ****         return NULL;
 1768              		.loc 2 351 9
 1769              	.L189:
 352:C:/Users/stapi/OneDrive/Desktop/GD32VW553/V1_MQTT_OK/GD32VW55X_Wifi_BLE_SDK/GD32VW55x_RELEASE_V1.0.2/MSDK/cloud/alicloud/src/services/ota\iotx_ota.c ****     }
 353:C:/Users/stapi/OneDrive/Desktop/GD32VW553/V1_MQTT_OK/GD32VW55X_Wifi_BLE_SDK/GD32VW55x_RELEASE_V1.0.2/MSDK/cloud/alicloud/src/services/ota\iotx_ota.c **** 
 354:C:/Users/stapi/OneDrive/Desktop/GD32VW553/V1_MQTT_OK/GD32VW55X_Wifi_BLE_SDK/GD32VW55x_RELEASE_V1.0.2/MSDK/cloud/alicloud/src/services/ota\iotx_ota.c ****     if (NULL == (h_ota = OTA_MALLOC(sizeof(OTA_Struct_t)))) {
 355:C:/Users/stapi/OneDrive/Desktop/GD32VW553/V1_MQTT_OK/GD32VW55X_Wifi_BLE_SDK/GD32VW55x_RELEASE_V1.0.2/MSDK/cloud/alicloud/src/services/ota\iotx_ota.c ****         OTA_LOG_ERROR("allocate failed");
 356:C:/Users/stapi/OneDrive/Desktop/GD32VW553/V1_MQTT_OK/GD32VW55X_Wifi_BLE_SDK/GD32VW55x_RELEASE_V1.0.2/MSDK/cloud/alicloud/src/services/ota\iotx_ota.c ****         return NULL;
 357:C:/Users/stapi/OneDrive/Desktop/GD32VW553/V1_MQTT_OK/GD32VW55X_Wifi_BLE_SDK/GD32VW55x_RELEASE_V1.0.2/MSDK/cloud/alicloud/src/services/ota\iotx_ota.c ****     }
 358:C:/Users/stapi/OneDrive/Desktop/GD32VW553/V1_MQTT_OK/GD32VW55X_Wifi_BLE_SDK/GD32VW55x_RELEASE_V1.0.2/MSDK/cloud/alicloud/src/services/ota\iotx_ota.c ****     memset(h_ota, 0, sizeof(OTA_Struct_t));
 359:C:/Users/stapi/OneDrive/Desktop/GD32VW553/V1_MQTT_OK/GD32VW55X_Wifi_BLE_SDK/GD32VW55x_RELEASE_V1.0.2/MSDK/cloud/alicloud/src/services/ota\iotx_ota.c ****     h_ota->type = IOT_OTAT_NONE;
 360:C:/Users/stapi/OneDrive/Desktop/GD32VW553/V1_MQTT_OK/GD32VW55X_Wifi_BLE_SDK/GD32VW55x_RELEASE_V1.0.2/MSDK/cloud/alicloud/src/services/ota\iotx_ota.c ****     h_ota->state = IOT_OTAS_UNINITED;
 361:C:/Users/stapi/OneDrive/Desktop/GD32VW553/V1_MQTT_OK/GD32VW55X_Wifi_BLE_SDK/GD32VW55x_RELEASE_V1.0.2/MSDK/cloud/alicloud/src/services/ota\iotx_ota.c **** 
 362:C:/Users/stapi/OneDrive/Desktop/GD32VW553/V1_MQTT_OK/GD32VW55X_Wifi_BLE_SDK/GD32VW55x_RELEASE_V1.0.2/MSDK/cloud/alicloud/src/services/ota\iotx_ota.c ****     h_ota->ch_signal = osc_Init(product_key, device_name, ch_signal, ota_callback, h_ota);
 363:C:/Users/stapi/OneDrive/Desktop/GD32VW553/V1_MQTT_OK/GD32VW55X_Wifi_BLE_SDK/GD32VW55x_RELEASE_V1.0.2/MSDK/cloud/alicloud/src/services/ota\iotx_ota.c ****     if (NULL == h_ota->ch_signal) {
 364:C:/Users/stapi/OneDrive/Desktop/GD32VW553/V1_MQTT_OK/GD32VW55X_Wifi_BLE_SDK/GD32VW55x_RELEASE_V1.0.2/MSDK/cloud/alicloud/src/services/ota\iotx_ota.c ****         OTA_LOG_ERROR("initialize signal channel failed");
 365:C:/Users/stapi/OneDrive/Desktop/GD32VW553/V1_MQTT_OK/GD32VW55X_Wifi_BLE_SDK/GD32VW55x_RELEASE_V1.0.2/MSDK/cloud/alicloud/src/services/ota\iotx_ota.c ****         goto do_exit;
 366:C:/Users/stapi/OneDrive/Desktop/GD32VW553/V1_MQTT_OK/GD32VW55X_Wifi_BLE_SDK/GD32VW55x_RELEASE_V1.0.2/MSDK/cloud/alicloud/src/services/ota\iotx_ota.c ****     }
 367:C:/Users/stapi/OneDrive/Desktop/GD32VW553/V1_MQTT_OK/GD32VW55X_Wifi_BLE_SDK/GD32VW55x_RELEASE_V1.0.2/MSDK/cloud/alicloud/src/services/ota\iotx_ota.c **** 
 368:C:/Users/stapi/OneDrive/Desktop/GD32VW553/V1_MQTT_OK/GD32VW55X_Wifi_BLE_SDK/GD32VW55x_RELEASE_V1.0.2/MSDK/cloud/alicloud/src/services/ota\iotx_ota.c **** #ifdef DEV_OFFLINE_OTA_ENABLE
 369:C:/Users/stapi/OneDrive/Desktop/GD32VW553/V1_MQTT_OK/GD32VW55X_Wifi_BLE_SDK/GD32VW55x_RELEASE_V1.0.2/MSDK/cloud/alicloud/src/services/ota\iotx_ota.c ****     dev_offline_ota_module_init(h_ota, offline_ota_upgrade_cb);
 370:C:/Users/stapi/OneDrive/Desktop/GD32VW553/V1_MQTT_OK/GD32VW55X_Wifi_BLE_SDK/GD32VW55x_RELEASE_V1.0.2/MSDK/cloud/alicloud/src/services/ota\iotx_ota.c **** #endif
 371:C:/Users/stapi/OneDrive/Desktop/GD32VW553/V1_MQTT_OK/GD32VW55X_Wifi_BLE_SDK/GD32VW55x_RELEASE_V1.0.2/MSDK/cloud/alicloud/src/services/ota\iotx_ota.c **** 
 372:C:/Users/stapi/OneDrive/Desktop/GD32VW553/V1_MQTT_OK/GD32VW55X_Wifi_BLE_SDK/GD32VW55x_RELEASE_V1.0.2/MSDK/cloud/alicloud/src/services/ota\iotx_ota.c ****     h_ota->md5 = otalib_MD5Init();
 373:C:/Users/stapi/OneDrive/Desktop/GD32VW553/V1_MQTT_OK/GD32VW55X_Wifi_BLE_SDK/GD32VW55x_RELEASE_V1.0.2/MSDK/cloud/alicloud/src/services/ota\iotx_ota.c ****     if (NULL == h_ota->md5) {
 374:C:/Users/stapi/OneDrive/Desktop/GD32VW553/V1_MQTT_OK/GD32VW55X_Wifi_BLE_SDK/GD32VW55x_RELEASE_V1.0.2/MSDK/cloud/alicloud/src/services/ota\iotx_ota.c ****         OTA_LOG_ERROR("initialize md5 failed");
 375:C:/Users/stapi/OneDrive/Desktop/GD32VW553/V1_MQTT_OK/GD32VW55X_Wifi_BLE_SDK/GD32VW55x_RELEASE_V1.0.2/MSDK/cloud/alicloud/src/services/ota\iotx_ota.c ****         goto do_exit;
 376:C:/Users/stapi/OneDrive/Desktop/GD32VW553/V1_MQTT_OK/GD32VW55X_Wifi_BLE_SDK/GD32VW55x_RELEASE_V1.0.2/MSDK/cloud/alicloud/src/services/ota\iotx_ota.c ****     }
 377:C:/Users/stapi/OneDrive/Desktop/GD32VW553/V1_MQTT_OK/GD32VW55X_Wifi_BLE_SDK/GD32VW55x_RELEASE_V1.0.2/MSDK/cloud/alicloud/src/services/ota\iotx_ota.c ****     h_ota->sha256 = otalib_Sha256Init();
 378:C:/Users/stapi/OneDrive/Desktop/GD32VW553/V1_MQTT_OK/GD32VW55X_Wifi_BLE_SDK/GD32VW55x_RELEASE_V1.0.2/MSDK/cloud/alicloud/src/services/ota\iotx_ota.c ****     if (NULL == h_ota->sha256) {
 379:C:/Users/stapi/OneDrive/Desktop/GD32VW553/V1_MQTT_OK/GD32VW55X_Wifi_BLE_SDK/GD32VW55x_RELEASE_V1.0.2/MSDK/cloud/alicloud/src/services/ota\iotx_ota.c ****         OTA_LOG_ERROR("initialize sha256 failed");
 380:C:/Users/stapi/OneDrive/Desktop/GD32VW553/V1_MQTT_OK/GD32VW55X_Wifi_BLE_SDK/GD32VW55x_RELEASE_V1.0.2/MSDK/cloud/alicloud/src/services/ota\iotx_ota.c ****         goto do_exit;
 381:C:/Users/stapi/OneDrive/Desktop/GD32VW553/V1_MQTT_OK/GD32VW55X_Wifi_BLE_SDK/GD32VW55x_RELEASE_V1.0.2/MSDK/cloud/alicloud/src/services/ota\iotx_ota.c ****     }
 382:C:/Users/stapi/OneDrive/Desktop/GD32VW553/V1_MQTT_OK/GD32VW55X_Wifi_BLE_SDK/GD32VW55x_RELEASE_V1.0.2/MSDK/cloud/alicloud/src/services/ota\iotx_ota.c **** 
 383:C:/Users/stapi/OneDrive/Desktop/GD32VW553/V1_MQTT_OK/GD32VW55X_Wifi_BLE_SDK/GD32VW55x_RELEASE_V1.0.2/MSDK/cloud/alicloud/src/services/ota\iotx_ota.c ****     h_ota->product_key = product_key;
 384:C:/Users/stapi/OneDrive/Desktop/GD32VW553/V1_MQTT_OK/GD32VW55X_Wifi_BLE_SDK/GD32VW55x_RELEASE_V1.0.2/MSDK/cloud/alicloud/src/services/ota\iotx_ota.c ****     h_ota->device_name = device_name;
 385:C:/Users/stapi/OneDrive/Desktop/GD32VW553/V1_MQTT_OK/GD32VW55X_Wifi_BLE_SDK/GD32VW55x_RELEASE_V1.0.2/MSDK/cloud/alicloud/src/services/ota\iotx_ota.c ****     h_ota->state = IOT_OTAS_INITED;
 386:C:/Users/stapi/OneDrive/Desktop/GD32VW553/V1_MQTT_OK/GD32VW55X_Wifi_BLE_SDK/GD32VW55x_RELEASE_V1.0.2/MSDK/cloud/alicloud/src/services/ota\iotx_ota.c ****     g_ota_is_initialized = 1;
 387:C:/Users/stapi/OneDrive/Desktop/GD32VW553/V1_MQTT_OK/GD32VW55X_Wifi_BLE_SDK/GD32VW55x_RELEASE_V1.0.2/MSDK/cloud/alicloud/src/services/ota\iotx_ota.c ****     return h_ota;
 388:C:/Users/stapi/OneDrive/Desktop/GD32VW553/V1_MQTT_OK/GD32VW55X_Wifi_BLE_SDK/GD32VW55x_RELEASE_V1.0.2/MSDK/cloud/alicloud/src/services/ota\iotx_ota.c **** 
 389:C:/Users/stapi/OneDrive/Desktop/GD32VW553/V1_MQTT_OK/GD32VW55X_Wifi_BLE_SDK/GD32VW55x_RELEASE_V1.0.2/MSDK/cloud/alicloud/src/services/ota\iotx_ota.c **** do_exit:
 390:C:/Users/stapi/OneDrive/Desktop/GD32VW553/V1_MQTT_OK/GD32VW55X_Wifi_BLE_SDK/GD32VW55x_RELEASE_V1.0.2/MSDK/cloud/alicloud/src/services/ota\iotx_ota.c **** 
 391:C:/Users/stapi/OneDrive/Desktop/GD32VW553/V1_MQTT_OK/GD32VW55X_Wifi_BLE_SDK/GD32VW55x_RELEASE_V1.0.2/MSDK/cloud/alicloud/src/services/ota\iotx_ota.c ****     if (NULL != h_ota->ch_signal) {
 392:C:/Users/stapi/OneDrive/Desktop/GD32VW553/V1_MQTT_OK/GD32VW55X_Wifi_BLE_SDK/GD32VW55x_RELEASE_V1.0.2/MSDK/cloud/alicloud/src/services/ota\iotx_ota.c ****         osc_Deinit(h_ota->ch_signal);
 393:C:/Users/stapi/OneDrive/Desktop/GD32VW553/V1_MQTT_OK/GD32VW55X_Wifi_BLE_SDK/GD32VW55x_RELEASE_V1.0.2/MSDK/cloud/alicloud/src/services/ota\iotx_ota.c ****     }
 394:C:/Users/stapi/OneDrive/Desktop/GD32VW553/V1_MQTT_OK/GD32VW55X_Wifi_BLE_SDK/GD32VW55x_RELEASE_V1.0.2/MSDK/cloud/alicloud/src/services/ota\iotx_ota.c **** 
 395:C:/Users/stapi/OneDrive/Desktop/GD32VW553/V1_MQTT_OK/GD32VW55X_Wifi_BLE_SDK/GD32VW55x_RELEASE_V1.0.2/MSDK/cloud/alicloud/src/services/ota\iotx_ota.c ****     if (NULL != h_ota->md5) {
 396:C:/Users/stapi/OneDrive/Desktop/GD32VW553/V1_MQTT_OK/GD32VW55X_Wifi_BLE_SDK/GD32VW55x_RELEASE_V1.0.2/MSDK/cloud/alicloud/src/services/ota\iotx_ota.c ****         otalib_MD5Deinit(h_ota->md5);
 397:C:/Users/stapi/OneDrive/Desktop/GD32VW553/V1_MQTT_OK/GD32VW55X_Wifi_BLE_SDK/GD32VW55x_RELEASE_V1.0.2/MSDK/cloud/alicloud/src/services/ota\iotx_ota.c ****     }
 398:C:/Users/stapi/OneDrive/Desktop/GD32VW553/V1_MQTT_OK/GD32VW55X_Wifi_BLE_SDK/GD32VW55x_RELEASE_V1.0.2/MSDK/cloud/alicloud/src/services/ota\iotx_ota.c **** 
 399:C:/Users/stapi/OneDrive/Desktop/GD32VW553/V1_MQTT_OK/GD32VW55X_Wifi_BLE_SDK/GD32VW55x_RELEASE_V1.0.2/MSDK/cloud/alicloud/src/services/ota\iotx_ota.c ****     if (NULL != h_ota->sha256) {
 400:C:/Users/stapi/OneDrive/Desktop/GD32VW553/V1_MQTT_OK/GD32VW55X_Wifi_BLE_SDK/GD32VW55x_RELEASE_V1.0.2/MSDK/cloud/alicloud/src/services/ota\iotx_ota.c ****         otalib_Sha256Deinit(h_ota->sha256);
 401:C:/Users/stapi/OneDrive/Desktop/GD32VW553/V1_MQTT_OK/GD32VW55X_Wifi_BLE_SDK/GD32VW55x_RELEASE_V1.0.2/MSDK/cloud/alicloud/src/services/ota\iotx_ota.c ****     }
 402:C:/Users/stapi/OneDrive/Desktop/GD32VW553/V1_MQTT_OK/GD32VW55X_Wifi_BLE_SDK/GD32VW55x_RELEASE_V1.0.2/MSDK/cloud/alicloud/src/services/ota\iotx_ota.c **** 
 403:C:/Users/stapi/OneDrive/Desktop/GD32VW553/V1_MQTT_OK/GD32VW55X_Wifi_BLE_SDK/GD32VW55x_RELEASE_V1.0.2/MSDK/cloud/alicloud/src/services/ota\iotx_ota.c ****     if (NULL != h_ota) {
 404:C:/Users/stapi/OneDrive/Desktop/GD32VW553/V1_MQTT_OK/GD32VW55X_Wifi_BLE_SDK/GD32VW55x_RELEASE_V1.0.2/MSDK/cloud/alicloud/src/services/ota\iotx_ota.c ****         OTA_FREE(h_ota);
 405:C:/Users/stapi/OneDrive/Desktop/GD32VW553/V1_MQTT_OK/GD32VW55X_Wifi_BLE_SDK/GD32VW55x_RELEASE_V1.0.2/MSDK/cloud/alicloud/src/services/ota\iotx_ota.c ****     }
 406:C:/Users/stapi/OneDrive/Desktop/GD32VW553/V1_MQTT_OK/GD32VW55X_Wifi_BLE_SDK/GD32VW55x_RELEASE_V1.0.2/MSDK/cloud/alicloud/src/services/ota\iotx_ota.c **** 
 407:C:/Users/stapi/OneDrive/Desktop/GD32VW553/V1_MQTT_OK/GD32VW55X_Wifi_BLE_SDK/GD32VW55x_RELEASE_V1.0.2/MSDK/cloud/alicloud/src/services/ota\iotx_ota.c ****     return NULL;
 1770              		.loc 2 407 5
 1771              		.loc 2 407 12 is_stmt 0
 1772 004a 0144     		li	s0,0
 1773 004c ADA0     		j	.L162
 1774              	.LVL198:
 1775              	.L163:
 1776 004e 2A89     		mv	s2,a0
 349:C:/Users/stapi/OneDrive/Desktop/GD32VW553/V1_MQTT_OK/GD32VW55X_Wifi_BLE_SDK/GD32VW55x_RELEASE_V1.0.2/MSDK/cloud/alicloud/src/services/ota\iotx_ota.c ****         OTA_LOG_ERROR("one or more parameters is invalid");
 1777              		.loc 2 349 5 is_stmt 1
 349:C:/Users/stapi/OneDrive/Desktop/GD32VW553/V1_MQTT_OK/GD32VW55X_Wifi_BLE_SDK/GD32VW55x_RELEASE_V1.0.2/MSDK/cloud/alicloud/src/services/ota\iotx_ota.c ****         OTA_LOG_ERROR("one or more parameters is invalid");
 1778              		.loc 2 349 8 is_stmt 0
 1779 0050 19C1     		beq	a0,zero,.L165
 1780 0052 AE84     		mv	s1,a1
 349:C:/Users/stapi/OneDrive/Desktop/GD32VW553/V1_MQTT_OK/GD32VW55X_Wifi_BLE_SDK/GD32VW55x_RELEASE_V1.0.2/MSDK/cloud/alicloud/src/services/ota\iotx_ota.c ****         OTA_LOG_ERROR("one or more parameters is invalid");
 1781              		.loc 2 349 31 discriminator 1
 1782 0054 91ED     		bne	a1,zero,.L166
 1783              	.L165:
 350:C:/Users/stapi/OneDrive/Desktop/GD32VW553/V1_MQTT_OK/GD32VW55X_Wifi_BLE_SDK/GD32VW55x_RELEASE_V1.0.2/MSDK/cloud/alicloud/src/services/ota\iotx_ota.c ****         return NULL;
 1784              		.loc 2 350 9 is_stmt 1
 350:C:/Users/stapi/OneDrive/Desktop/GD32VW553/V1_MQTT_OK/GD32VW55X_Wifi_BLE_SDK/GD32VW55x_RELEASE_V1.0.2/MSDK/cloud/alicloud/src/services/ota\iotx_ota.c ****         return NULL;
 1785              		.loc 2 350 9
 1786 0056 37050000 		lui	a0,%hi(.LC21)
 1787              	.LVL199:
 1788 005a 13050500 		addi	a0,a0,%lo(.LC21)
 1789 005e 97000000 		call	HAL_Printf
 1789      E7800000 
 1790              	.LVL200:
 350:C:/Users/stapi/OneDrive/Desktop/GD32VW553/V1_MQTT_OK/GD32VW55X_Wifi_BLE_SDK/GD32VW55x_RELEASE_V1.0.2/MSDK/cloud/alicloud/src/services/ota\iotx_ota.c ****         return NULL;
 1791              		.loc 2 350 9
 1792 0066 37050000 		lui	a0,%hi(.LC52)
 1793 006a 13050500 		addi	a0,a0,%lo(.LC52)
 1794 006e D1B7     		j	.L190
 1795              	.LVL201:
 1796              	.L166:
 1797 0070 B28A     		mv	s5,a2
 354:C:/Users/stapi/OneDrive/Desktop/GD32VW553/V1_MQTT_OK/GD32VW55X_Wifi_BLE_SDK/GD32VW55x_RELEASE_V1.0.2/MSDK/cloud/alicloud/src/services/ota\iotx_ota.c ****         OTA_LOG_ERROR("allocate failed");
 1798              		.loc 2 354 5
 354:C:/Users/stapi/OneDrive/Desktop/GD32VW553/V1_MQTT_OK/GD32VW55X_Wifi_BLE_SDK/GD32VW55x_RELEASE_V1.0.2/MSDK/cloud/alicloud/src/services/ota\iotx_ota.c ****         OTA_LOG_ERROR("allocate failed");
 1799              		.loc 2 354 26 is_stmt 0
 1800 0072 8145     		li	a1,0
 1801 0074 13068008 		li	a2,136
 1802              	.LVL202:
 1803 0078 0145     		li	a0,0
 1804              	.LVL203:
 1805 007a 97000000 		call	LITE_malloc_internal
 1805      E7800000 
 1806              	.LVL204:
 1807 0082 2A84     		mv	s0,a0
 1808              	.LVL205:
 354:C:/Users/stapi/OneDrive/Desktop/GD32VW553/V1_MQTT_OK/GD32VW55X_Wifi_BLE_SDK/GD32VW55x_RELEASE_V1.0.2/MSDK/cloud/alicloud/src/services/ota\iotx_ota.c ****         OTA_LOG_ERROR("allocate failed");
 1809              		.loc 2 354 8
 1810 0084 15ED     		bne	a0,zero,.L167
 355:C:/Users/stapi/OneDrive/Desktop/GD32VW553/V1_MQTT_OK/GD32VW55X_Wifi_BLE_SDK/GD32VW55x_RELEASE_V1.0.2/MSDK/cloud/alicloud/src/services/ota\iotx_ota.c ****         return NULL;
 1811              		.loc 2 355 9 is_stmt 1
 355:C:/Users/stapi/OneDrive/Desktop/GD32VW553/V1_MQTT_OK/GD32VW55X_Wifi_BLE_SDK/GD32VW55x_RELEASE_V1.0.2/MSDK/cloud/alicloud/src/services/ota\iotx_ota.c ****         return NULL;
 1812              		.loc 2 355 9
 1813 0086 37050000 		lui	a0,%hi(.LC21)
 1814 008a 13050500 		addi	a0,a0,%lo(.LC21)
 1815 008e 97000000 		call	HAL_Printf
 1815      E7800000 
 1816              	.LVL206:
 355:C:/Users/stapi/OneDrive/Desktop/GD32VW553/V1_MQTT_OK/GD32VW55X_Wifi_BLE_SDK/GD32VW55x_RELEASE_V1.0.2/MSDK/cloud/alicloud/src/services/ota\iotx_ota.c ****         return NULL;
 1817              		.loc 2 355 9
 1818 0096 37050000 		lui	a0,%hi(.LC53)
 1819 009a 13050500 		addi	a0,a0,%lo(.LC53)
 1820 009e 97000000 		call	HAL_Printf
 1820      E7800000 
 1821              	.LVL207:
 355:C:/Users/stapi/OneDrive/Desktop/GD32VW553/V1_MQTT_OK/GD32VW55X_Wifi_BLE_SDK/GD32VW55x_RELEASE_V1.0.2/MSDK/cloud/alicloud/src/services/ota\iotx_ota.c ****         return NULL;
 1822              		.loc 2 355 9
 1823 00a6 37050000 		lui	a0,%hi(.LC11)
 1824 00aa 13050500 		addi	a0,a0,%lo(.LC11)
 1825 00ae 97000000 		call	HAL_Printf
 1825      E7800000 
 1826              	.LVL208:
 355:C:/Users/stapi/OneDrive/Desktop/GD32VW553/V1_MQTT_OK/GD32VW55X_Wifi_BLE_SDK/GD32VW55x_RELEASE_V1.0.2/MSDK/cloud/alicloud/src/services/ota\iotx_ota.c ****         return NULL;
 1827              		.loc 2 355 9
 356:C:/Users/stapi/OneDrive/Desktop/GD32VW553/V1_MQTT_OK/GD32VW55X_Wifi_BLE_SDK/GD32VW55x_RELEASE_V1.0.2/MSDK/cloud/alicloud/src/services/ota\iotx_ota.c ****     }
 1828              		.loc 2 356 9
 1829              	.L162:
 408:C:/Users/stapi/OneDrive/Desktop/GD32VW553/V1_MQTT_OK/GD32VW55X_Wifi_BLE_SDK/GD32VW55x_RELEASE_V1.0.2/MSDK/cloud/alicloud/src/services/ota\iotx_ota.c **** 
 409:C:/Users/stapi/OneDrive/Desktop/GD32VW553/V1_MQTT_OK/GD32VW55X_Wifi_BLE_SDK/GD32VW55x_RELEASE_V1.0.2/MSDK/cloud/alicloud/src/services/ota\iotx_ota.c **** #undef AOM_INFO_MSG_LEN
 410:C:/Users/stapi/OneDrive/Desktop/GD32VW553/V1_MQTT_OK/GD32VW55X_Wifi_BLE_SDK/GD32VW55x_RELEASE_V1.0.2/MSDK/cloud/alicloud/src/services/ota\iotx_ota.c **** }
 1830              		.loc 2 410 1 is_stmt 0
 1831 00b6 2285     		mv	a0,s0
 1832 00b8 17030000 		tail	__riscv_restore_6
 1832      67000300 
 1833              		.cfi_remember_state
 1834              		.cfi_restore 21
 1835              		.cfi_restore 20
 1836              		.cfi_restore 19
 1837              		.cfi_restore 18
 1838              		.cfi_restore 9
 1839              		.cfi_restore 8
 1840              		.cfi_restore 1
 1841              		.cfi_def_cfa_offset 0
 1842              	.LVL209:
 1843              	.L167:
 1844              		.cfi_restore_state
 358:C:/Users/stapi/OneDrive/Desktop/GD32VW553/V1_MQTT_OK/GD32VW55X_Wifi_BLE_SDK/GD32VW55x_RELEASE_V1.0.2/MSDK/cloud/alicloud/src/services/ota\iotx_ota.c ****     h_ota->type = IOT_OTAT_NONE;
 1845              		.loc 2 358 5 is_stmt 1
 1846 00c0 13068008 		li	a2,136
 1847 00c4 8145     		li	a1,0
 1848 00c6 97000000 		call	memset
 1848      E7800000 
 1849              	.LVL210:
 359:C:/Users/stapi/OneDrive/Desktop/GD32VW553/V1_MQTT_OK/GD32VW55X_Wifi_BLE_SDK/GD32VW55x_RELEASE_V1.0.2/MSDK/cloud/alicloud/src/services/ota\iotx_ota.c ****     h_ota->state = IOT_OTAS_UNINITED;
 1850              		.loc 2 359 5
 360:C:/Users/stapi/OneDrive/Desktop/GD32VW553/V1_MQTT_OK/GD32VW55X_Wifi_BLE_SDK/GD32VW55x_RELEASE_V1.0.2/MSDK/cloud/alicloud/src/services/ota\iotx_ota.c **** 
 1851              		.loc 2 360 5
 362:C:/Users/stapi/OneDrive/Desktop/GD32VW553/V1_MQTT_OK/GD32VW55X_Wifi_BLE_SDK/GD32VW55x_RELEASE_V1.0.2/MSDK/cloud/alicloud/src/services/ota\iotx_ota.c ****     if (NULL == h_ota->ch_signal) {
 1852              		.loc 2 362 5
 362:C:/Users/stapi/OneDrive/Desktop/GD32VW553/V1_MQTT_OK/GD32VW55X_Wifi_BLE_SDK/GD32VW55x_RELEASE_V1.0.2/MSDK/cloud/alicloud/src/services/ota\iotx_ota.c ****     if (NULL == h_ota->ch_signal) {
 1853              		.loc 2 362 24 is_stmt 0
 1854 00ce B7060000 		lui	a3,%hi(ota_callback)
 1855 00d2 2287     		mv	a4,s0
 1856 00d4 93860600 		addi	a3,a3,%lo(ota_callback)
 1857 00d8 5686     		mv	a2,s5
 1858 00da A685     		mv	a1,s1
 1859 00dc 4A85     		mv	a0,s2
 1860 00de 97000000 		call	osc_Init
 1860      E7800000 
 1861              	.LVL211:
 362:C:/Users/stapi/OneDrive/Desktop/GD32VW553/V1_MQTT_OK/GD32VW55X_Wifi_BLE_SDK/GD32VW55x_RELEASE_V1.0.2/MSDK/cloud/alicloud/src/services/ota\iotx_ota.c ****     if (NULL == h_ota->ch_signal) {
 1862              		.loc 2 362 22
 1863 00e6 68C8     		sw	a0,84(s0)
 363:C:/Users/stapi/OneDrive/Desktop/GD32VW553/V1_MQTT_OK/GD32VW55X_Wifi_BLE_SDK/GD32VW55x_RELEASE_V1.0.2/MSDK/cloud/alicloud/src/services/ota\iotx_ota.c ****         OTA_LOG_ERROR("initialize signal channel failed");
 1864              		.loc 2 363 5 is_stmt 1
 363:C:/Users/stapi/OneDrive/Desktop/GD32VW553/V1_MQTT_OK/GD32VW55X_Wifi_BLE_SDK/GD32VW55x_RELEASE_V1.0.2/MSDK/cloud/alicloud/src/services/ota\iotx_ota.c ****         OTA_LOG_ERROR("initialize signal channel failed");
 1865              		.loc 2 363 8 is_stmt 0
 1866 00e8 2DE1     		bne	a0,zero,.L168
 364:C:/Users/stapi/OneDrive/Desktop/GD32VW553/V1_MQTT_OK/GD32VW55X_Wifi_BLE_SDK/GD32VW55x_RELEASE_V1.0.2/MSDK/cloud/alicloud/src/services/ota\iotx_ota.c ****         goto do_exit;
 1867              		.loc 2 364 9 is_stmt 1
 364:C:/Users/stapi/OneDrive/Desktop/GD32VW553/V1_MQTT_OK/GD32VW55X_Wifi_BLE_SDK/GD32VW55x_RELEASE_V1.0.2/MSDK/cloud/alicloud/src/services/ota\iotx_ota.c ****         goto do_exit;
 1868              		.loc 2 364 9
 1869 00ea 37050000 		lui	a0,%hi(.LC21)
 1870 00ee 13050500 		addi	a0,a0,%lo(.LC21)
 1871 00f2 97000000 		call	HAL_Printf
 1871      E7800000 
 1872              	.LVL212:
 364:C:/Users/stapi/OneDrive/Desktop/GD32VW553/V1_MQTT_OK/GD32VW55X_Wifi_BLE_SDK/GD32VW55x_RELEASE_V1.0.2/MSDK/cloud/alicloud/src/services/ota\iotx_ota.c ****         goto do_exit;
 1873              		.loc 2 364 9
 1874 00fa 37050000 		lui	a0,%hi(.LC54)
 1875 00fe 13050500 		addi	a0,a0,%lo(.LC54)
 1876              	.L188:
 1877              	.L169:
 379:C:/Users/stapi/OneDrive/Desktop/GD32VW553/V1_MQTT_OK/GD32VW55X_Wifi_BLE_SDK/GD32VW55x_RELEASE_V1.0.2/MSDK/cloud/alicloud/src/services/ota\iotx_ota.c ****         goto do_exit;
 1878              		.loc 2 379 9 is_stmt 0
 1879 0102 97000000 		call	HAL_Printf
 1879      E7800000 
 1880              	.LVL213:
 379:C:/Users/stapi/OneDrive/Desktop/GD32VW553/V1_MQTT_OK/GD32VW55X_Wifi_BLE_SDK/GD32VW55x_RELEASE_V1.0.2/MSDK/cloud/alicloud/src/services/ota\iotx_ota.c ****         goto do_exit;
 1881              		.loc 2 379 9 is_stmt 1
 1882 010a 37050000 		lui	a0,%hi(.LC11)
 1883 010e 13050500 		addi	a0,a0,%lo(.LC11)
 1884 0112 97000000 		call	HAL_Printf
 1884      E7800000 
 1885              	.LVL214:
 379:C:/Users/stapi/OneDrive/Desktop/GD32VW553/V1_MQTT_OK/GD32VW55X_Wifi_BLE_SDK/GD32VW55x_RELEASE_V1.0.2/MSDK/cloud/alicloud/src/services/ota\iotx_ota.c ****         goto do_exit;
 1886              		.loc 2 379 9
 380:C:/Users/stapi/OneDrive/Desktop/GD32VW553/V1_MQTT_OK/GD32VW55X_Wifi_BLE_SDK/GD32VW55x_RELEASE_V1.0.2/MSDK/cloud/alicloud/src/services/ota\iotx_ota.c ****     }
 1887              		.loc 2 380 9
 391:C:/Users/stapi/OneDrive/Desktop/GD32VW553/V1_MQTT_OK/GD32VW55X_Wifi_BLE_SDK/GD32VW55x_RELEASE_V1.0.2/MSDK/cloud/alicloud/src/services/ota\iotx_ota.c ****         osc_Deinit(h_ota->ch_signal);
 1888              		.loc 2 391 5
 391:C:/Users/stapi/OneDrive/Desktop/GD32VW553/V1_MQTT_OK/GD32VW55X_Wifi_BLE_SDK/GD32VW55x_RELEASE_V1.0.2/MSDK/cloud/alicloud/src/services/ota\iotx_ota.c ****         osc_Deinit(h_ota->ch_signal);
 1889              		.loc 2 391 22 is_stmt 0
 1890 011a 6848     		lw	a0,84(s0)
 391:C:/Users/stapi/OneDrive/Desktop/GD32VW553/V1_MQTT_OK/GD32VW55X_Wifi_BLE_SDK/GD32VW55x_RELEASE_V1.0.2/MSDK/cloud/alicloud/src/services/ota\iotx_ota.c ****         osc_Deinit(h_ota->ch_signal);
 1891              		.loc 2 391 8
 1892 011c 09C5     		beq	a0,zero,.L172
 392:C:/Users/stapi/OneDrive/Desktop/GD32VW553/V1_MQTT_OK/GD32VW55X_Wifi_BLE_SDK/GD32VW55x_RELEASE_V1.0.2/MSDK/cloud/alicloud/src/services/ota\iotx_ota.c ****     }
 1893              		.loc 2 392 9 is_stmt 1
 1894 011e 97000000 		call	osc_Deinit
 1894      E7800000 
 1895              	.LVL215:
 1896              	.L172:
 395:C:/Users/stapi/OneDrive/Desktop/GD32VW553/V1_MQTT_OK/GD32VW55X_Wifi_BLE_SDK/GD32VW55x_RELEASE_V1.0.2/MSDK/cloud/alicloud/src/services/ota\iotx_ota.c ****         otalib_MD5Deinit(h_ota->md5);
 1897              		.loc 2 395 5
 395:C:/Users/stapi/OneDrive/Desktop/GD32VW553/V1_MQTT_OK/GD32VW55X_Wifi_BLE_SDK/GD32VW55x_RELEASE_V1.0.2/MSDK/cloud/alicloud/src/services/ota\iotx_ota.c ****         otalib_MD5Deinit(h_ota->md5);
 1898              		.loc 2 395 22 is_stmt 0
 1899 0126 6844     		lw	a0,76(s0)
 395:C:/Users/stapi/OneDrive/Desktop/GD32VW553/V1_MQTT_OK/GD32VW55X_Wifi_BLE_SDK/GD32VW55x_RELEASE_V1.0.2/MSDK/cloud/alicloud/src/services/ota\iotx_ota.c ****         otalib_MD5Deinit(h_ota->md5);
 1900              		.loc 2 395 8
 1901 0128 09C5     		beq	a0,zero,.L173
 396:C:/Users/stapi/OneDrive/Desktop/GD32VW553/V1_MQTT_OK/GD32VW55X_Wifi_BLE_SDK/GD32VW55x_RELEASE_V1.0.2/MSDK/cloud/alicloud/src/services/ota\iotx_ota.c ****     }
 1902              		.loc 2 396 9 is_stmt 1
 1903 012a 97000000 		call	otalib_MD5Deinit
 1903      E7800000 
 1904              	.LVL216:
 1905              	.L173:
 399:C:/Users/stapi/OneDrive/Desktop/GD32VW553/V1_MQTT_OK/GD32VW55X_Wifi_BLE_SDK/GD32VW55x_RELEASE_V1.0.2/MSDK/cloud/alicloud/src/services/ota\iotx_ota.c ****         otalib_Sha256Deinit(h_ota->sha256);
 1906              		.loc 2 399 5
 399:C:/Users/stapi/OneDrive/Desktop/GD32VW553/V1_MQTT_OK/GD32VW55X_Wifi_BLE_SDK/GD32VW55x_RELEASE_V1.0.2/MSDK/cloud/alicloud/src/services/ota\iotx_ota.c ****         otalib_Sha256Deinit(h_ota->sha256);
 1907              		.loc 2 399 22 is_stmt 0
 1908 0132 2848     		lw	a0,80(s0)
 399:C:/Users/stapi/OneDrive/Desktop/GD32VW553/V1_MQTT_OK/GD32VW55X_Wifi_BLE_SDK/GD32VW55x_RELEASE_V1.0.2/MSDK/cloud/alicloud/src/services/ota\iotx_ota.c ****         otalib_Sha256Deinit(h_ota->sha256);
 1909              		.loc 2 399 8
 1910 0134 09C5     		beq	a0,zero,.L174
 400:C:/Users/stapi/OneDrive/Desktop/GD32VW553/V1_MQTT_OK/GD32VW55X_Wifi_BLE_SDK/GD32VW55x_RELEASE_V1.0.2/MSDK/cloud/alicloud/src/services/ota\iotx_ota.c ****     }
 1911              		.loc 2 400 9 is_stmt 1
 1912 0136 97000000 		call	otalib_Sha256Deinit
 1912      E7800000 
 1913              	.LVL217:
 1914              	.L174:
 403:C:/Users/stapi/OneDrive/Desktop/GD32VW553/V1_MQTT_OK/GD32VW55X_Wifi_BLE_SDK/GD32VW55x_RELEASE_V1.0.2/MSDK/cloud/alicloud/src/services/ota\iotx_ota.c ****         OTA_FREE(h_ota);
 1915              		.loc 2 403 5
 404:C:/Users/stapi/OneDrive/Desktop/GD32VW553/V1_MQTT_OK/GD32VW55X_Wifi_BLE_SDK/GD32VW55x_RELEASE_V1.0.2/MSDK/cloud/alicloud/src/services/ota\iotx_ota.c ****     }
 1916              		.loc 2 404 9
 1917 013e 2285     		mv	a0,s0
 1918 0140 97000000 		call	LITE_free_internal
 1918      E7800000 
 1919              	.LVL218:
 1920 0148 09B7     		j	.L189
 1921              	.L168:
 372:C:/Users/stapi/OneDrive/Desktop/GD32VW553/V1_MQTT_OK/GD32VW55X_Wifi_BLE_SDK/GD32VW55x_RELEASE_V1.0.2/MSDK/cloud/alicloud/src/services/ota\iotx_ota.c ****     if (NULL == h_ota->md5) {
 1922              		.loc 2 372 5
 372:C:/Users/stapi/OneDrive/Desktop/GD32VW553/V1_MQTT_OK/GD32VW55X_Wifi_BLE_SDK/GD32VW55x_RELEASE_V1.0.2/MSDK/cloud/alicloud/src/services/ota\iotx_ota.c ****     if (NULL == h_ota->md5) {
 1923              		.loc 2 372 18 is_stmt 0
 1924 014a 97000000 		call	otalib_MD5Init
 1924      E7800000 
 1925              	.LVL219:
 372:C:/Users/stapi/OneDrive/Desktop/GD32VW553/V1_MQTT_OK/GD32VW55X_Wifi_BLE_SDK/GD32VW55x_RELEASE_V1.0.2/MSDK/cloud/alicloud/src/services/ota\iotx_ota.c ****     if (NULL == h_ota->md5) {
 1926              		.loc 2 372 16
 1927 0152 68C4     		sw	a0,76(s0)
 373:C:/Users/stapi/OneDrive/Desktop/GD32VW553/V1_MQTT_OK/GD32VW55X_Wifi_BLE_SDK/GD32VW55x_RELEASE_V1.0.2/MSDK/cloud/alicloud/src/services/ota\iotx_ota.c ****         OTA_LOG_ERROR("initialize md5 failed");
 1928              		.loc 2 373 5 is_stmt 1
 373:C:/Users/stapi/OneDrive/Desktop/GD32VW553/V1_MQTT_OK/GD32VW55X_Wifi_BLE_SDK/GD32VW55x_RELEASE_V1.0.2/MSDK/cloud/alicloud/src/services/ota\iotx_ota.c ****         OTA_LOG_ERROR("initialize md5 failed");
 1929              		.loc 2 373 8 is_stmt 0
 1930 0154 11ED     		bne	a0,zero,.L170
 374:C:/Users/stapi/OneDrive/Desktop/GD32VW553/V1_MQTT_OK/GD32VW55X_Wifi_BLE_SDK/GD32VW55x_RELEASE_V1.0.2/MSDK/cloud/alicloud/src/services/ota\iotx_ota.c ****         goto do_exit;
 1931              		.loc 2 374 9 is_stmt 1
 374:C:/Users/stapi/OneDrive/Desktop/GD32VW553/V1_MQTT_OK/GD32VW55X_Wifi_BLE_SDK/GD32VW55x_RELEASE_V1.0.2/MSDK/cloud/alicloud/src/services/ota\iotx_ota.c ****         goto do_exit;
 1932              		.loc 2 374 9
 1933 0156 37050000 		lui	a0,%hi(.LC21)
 1934 015a 13050500 		addi	a0,a0,%lo(.LC21)
 1935 015e 97000000 		call	HAL_Printf
 1935      E7800000 
 1936              	.LVL220:
 374:C:/Users/stapi/OneDrive/Desktop/GD32VW553/V1_MQTT_OK/GD32VW55X_Wifi_BLE_SDK/GD32VW55x_RELEASE_V1.0.2/MSDK/cloud/alicloud/src/services/ota\iotx_ota.c ****         goto do_exit;
 1937              		.loc 2 374 9
 1938 0166 37050000 		lui	a0,%hi(.LC55)
 1939 016a 13050500 		addi	a0,a0,%lo(.LC55)
 1940 016e 51BF     		j	.L188
 1941              	.L170:
 377:C:/Users/stapi/OneDrive/Desktop/GD32VW553/V1_MQTT_OK/GD32VW55X_Wifi_BLE_SDK/GD32VW55x_RELEASE_V1.0.2/MSDK/cloud/alicloud/src/services/ota\iotx_ota.c ****     if (NULL == h_ota->sha256) {
 1942              		.loc 2 377 5
 377:C:/Users/stapi/OneDrive/Desktop/GD32VW553/V1_MQTT_OK/GD32VW55X_Wifi_BLE_SDK/GD32VW55x_RELEASE_V1.0.2/MSDK/cloud/alicloud/src/services/ota\iotx_ota.c ****     if (NULL == h_ota->sha256) {
 1943              		.loc 2 377 21 is_stmt 0
 1944 0170 97000000 		call	otalib_Sha256Init
 1944      E7800000 
 1945              	.LVL221:
 377:C:/Users/stapi/OneDrive/Desktop/GD32VW553/V1_MQTT_OK/GD32VW55X_Wifi_BLE_SDK/GD32VW55x_RELEASE_V1.0.2/MSDK/cloud/alicloud/src/services/ota\iotx_ota.c ****     if (NULL == h_ota->sha256) {
 1946              		.loc 2 377 19
 1947 0178 28C8     		sw	a0,80(s0)
 378:C:/Users/stapi/OneDrive/Desktop/GD32VW553/V1_MQTT_OK/GD32VW55X_Wifi_BLE_SDK/GD32VW55x_RELEASE_V1.0.2/MSDK/cloud/alicloud/src/services/ota\iotx_ota.c ****         OTA_LOG_ERROR("initialize sha256 failed");
 1948              		.loc 2 378 5 is_stmt 1
 378:C:/Users/stapi/OneDrive/Desktop/GD32VW553/V1_MQTT_OK/GD32VW55X_Wifi_BLE_SDK/GD32VW55x_RELEASE_V1.0.2/MSDK/cloud/alicloud/src/services/ota\iotx_ota.c ****         OTA_LOG_ERROR("initialize sha256 failed");
 1949              		.loc 2 378 8 is_stmt 0
 1950 017a 11ED     		bne	a0,zero,.L171
 379:C:/Users/stapi/OneDrive/Desktop/GD32VW553/V1_MQTT_OK/GD32VW55X_Wifi_BLE_SDK/GD32VW55x_RELEASE_V1.0.2/MSDK/cloud/alicloud/src/services/ota\iotx_ota.c ****         goto do_exit;
 1951              		.loc 2 379 9 is_stmt 1
 379:C:/Users/stapi/OneDrive/Desktop/GD32VW553/V1_MQTT_OK/GD32VW55X_Wifi_BLE_SDK/GD32VW55x_RELEASE_V1.0.2/MSDK/cloud/alicloud/src/services/ota\iotx_ota.c ****         goto do_exit;
 1952              		.loc 2 379 9
 1953 017c 37050000 		lui	a0,%hi(.LC21)
 1954 0180 13050500 		addi	a0,a0,%lo(.LC21)
 1955 0184 97000000 		call	HAL_Printf
 1955      E7800000 
 1956              	.LVL222:
 379:C:/Users/stapi/OneDrive/Desktop/GD32VW553/V1_MQTT_OK/GD32VW55X_Wifi_BLE_SDK/GD32VW55x_RELEASE_V1.0.2/MSDK/cloud/alicloud/src/services/ota\iotx_ota.c ****         goto do_exit;
 1957              		.loc 2 379 9
 1958 018c 37050000 		lui	a0,%hi(.LC56)
 1959 0190 13050500 		addi	a0,a0,%lo(.LC56)
 1960 0194 BDB7     		j	.L188
 1961              	.L171:
 383:C:/Users/stapi/OneDrive/Desktop/GD32VW553/V1_MQTT_OK/GD32VW55X_Wifi_BLE_SDK/GD32VW55x_RELEASE_V1.0.2/MSDK/cloud/alicloud/src/services/ota\iotx_ota.c ****     h_ota->device_name = device_name;
 1962              		.loc 2 383 5
 383:C:/Users/stapi/OneDrive/Desktop/GD32VW553/V1_MQTT_OK/GD32VW55X_Wifi_BLE_SDK/GD32VW55x_RELEASE_V1.0.2/MSDK/cloud/alicloud/src/services/ota\iotx_ota.c ****     h_ota->device_name = device_name;
 1963              		.loc 2 383 24 is_stmt 0
 1964 0196 23202401 		sw	s2,0(s0)
 384:C:/Users/stapi/OneDrive/Desktop/GD32VW553/V1_MQTT_OK/GD32VW55X_Wifi_BLE_SDK/GD32VW55x_RELEASE_V1.0.2/MSDK/cloud/alicloud/src/services/ota\iotx_ota.c ****     h_ota->state = IOT_OTAS_INITED;
 1965              		.loc 2 384 5 is_stmt 1
 384:C:/Users/stapi/OneDrive/Desktop/GD32VW553/V1_MQTT_OK/GD32VW55X_Wifi_BLE_SDK/GD32VW55x_RELEASE_V1.0.2/MSDK/cloud/alicloud/src/services/ota\iotx_ota.c ****     h_ota->state = IOT_OTAS_INITED;
 1966              		.loc 2 384 24 is_stmt 0
 1967 019a 44C0     		sw	s1,4(s0)
 385:C:/Users/stapi/OneDrive/Desktop/GD32VW553/V1_MQTT_OK/GD32VW55X_Wifi_BLE_SDK/GD32VW55x_RELEASE_V1.0.2/MSDK/cloud/alicloud/src/services/ota\iotx_ota.c ****     g_ota_is_initialized = 1;
 1968              		.loc 2 385 5 is_stmt 1
 385:C:/Users/stapi/OneDrive/Desktop/GD32VW553/V1_MQTT_OK/GD32VW55X_Wifi_BLE_SDK/GD32VW55x_RELEASE_V1.0.2/MSDK/cloud/alicloud/src/services/ota\iotx_ota.c ****     g_ota_is_initialized = 1;
 1969              		.loc 2 385 18 is_stmt 0
 1970 019c 23264401 		sw	s4,12(s0)
 386:C:/Users/stapi/OneDrive/Desktop/GD32VW553/V1_MQTT_OK/GD32VW55X_Wifi_BLE_SDK/GD32VW55x_RELEASE_V1.0.2/MSDK/cloud/alicloud/src/services/ota\iotx_ota.c ****     return h_ota;
 1971              		.loc 2 386 5 is_stmt 1
 386:C:/Users/stapi/OneDrive/Desktop/GD32VW553/V1_MQTT_OK/GD32VW55X_Wifi_BLE_SDK/GD32VW55x_RELEASE_V1.0.2/MSDK/cloud/alicloud/src/services/ota\iotx_ota.c ****     return h_ota;
 1972              		.loc 2 386 26 is_stmt 0
 1973 01a0 23A04901 		sw	s4,0(s3)
 387:C:/Users/stapi/OneDrive/Desktop/GD32VW553/V1_MQTT_OK/GD32VW55X_Wifi_BLE_SDK/GD32VW55x_RELEASE_V1.0.2/MSDK/cloud/alicloud/src/services/ota\iotx_ota.c **** 
 1974              		.loc 2 387 5 is_stmt 1
 387:C:/Users/stapi/OneDrive/Desktop/GD32VW553/V1_MQTT_OK/GD32VW55X_Wifi_BLE_SDK/GD32VW55x_RELEASE_V1.0.2/MSDK/cloud/alicloud/src/services/ota\iotx_ota.c **** 
 1975              		.loc 2 387 12 is_stmt 0
 1976 01a4 09BF     		j	.L162
 1977              		.cfi_endproc
 1978              	.LFE35:
 1980              		.section	.rodata.IOT_OTA_Deinit.str1.4,"aMS",@progbits,1
 1981              		.align	2
 1982              	.LC57:
 1983 0000 68616E64 		.string	"handle is NULL"
 1983      6C652069 
 1983      73204E55 
 1983      4C4C00
 1984 000f 00       		.align	2
 1985              	.LC58:
 1986 0010 68616E64 		.string	"handle is uninitialized"
 1986      6C652069 
 1986      7320756E 
 1986      696E6974 
 1986      69616C69 
 1987              		.section	.text.IOT_OTA_Deinit,"ax",@progbits
 1988              		.align	1
 1989              		.globl	IOT_OTA_Deinit
 1991              	IOT_OTA_Deinit:
 1992              	.LFB36:
 411:C:/Users/stapi/OneDrive/Desktop/GD32VW553/V1_MQTT_OK/GD32VW55X_Wifi_BLE_SDK/GD32VW55x_RELEASE_V1.0.2/MSDK/cloud/alicloud/src/services/ota\iotx_ota.c **** 
 412:C:/Users/stapi/OneDrive/Desktop/GD32VW553/V1_MQTT_OK/GD32VW55X_Wifi_BLE_SDK/GD32VW55x_RELEASE_V1.0.2/MSDK/cloud/alicloud/src/services/ota\iotx_ota.c **** 
 413:C:/Users/stapi/OneDrive/Desktop/GD32VW553/V1_MQTT_OK/GD32VW55X_Wifi_BLE_SDK/GD32VW55x_RELEASE_V1.0.2/MSDK/cloud/alicloud/src/services/ota\iotx_ota.c **** /* deinitialize OTA module */
 414:C:/Users/stapi/OneDrive/Desktop/GD32VW553/V1_MQTT_OK/GD32VW55X_Wifi_BLE_SDK/GD32VW55x_RELEASE_V1.0.2/MSDK/cloud/alicloud/src/services/ota\iotx_ota.c **** int IOT_OTA_Deinit(void *handle)
 415:C:/Users/stapi/OneDrive/Desktop/GD32VW553/V1_MQTT_OK/GD32VW55X_Wifi_BLE_SDK/GD32VW55x_RELEASE_V1.0.2/MSDK/cloud/alicloud/src/services/ota\iotx_ota.c **** {
 1993              		.loc 2 415 1 is_stmt 1
 1994              		.cfi_startproc
 1995              	.LVL223:
 1996 0000 17030000 		call	t0,__riscv_save_1
 1996      E7020300 
 1997              		.cfi_offset 8, -8
 1998              		.cfi_offset 1, -4
 1999              		.cfi_def_cfa_offset 16
 416:C:/Users/stapi/OneDrive/Desktop/GD32VW553/V1_MQTT_OK/GD32VW55X_Wifi_BLE_SDK/GD32VW55x_RELEASE_V1.0.2/MSDK/cloud/alicloud/src/services/ota\iotx_ota.c ****     OTA_Struct_pt h_ota = (OTA_Struct_pt) handle;
 2000              		.loc 2 416 5
 2001              	.LVL224:
 417:C:/Users/stapi/OneDrive/Desktop/GD32VW553/V1_MQTT_OK/GD32VW55X_Wifi_BLE_SDK/GD32VW55x_RELEASE_V1.0.2/MSDK/cloud/alicloud/src/services/ota\iotx_ota.c **** 
 418:C:/Users/stapi/OneDrive/Desktop/GD32VW553/V1_MQTT_OK/GD32VW55X_Wifi_BLE_SDK/GD32VW55x_RELEASE_V1.0.2/MSDK/cloud/alicloud/src/services/ota\iotx_ota.c ****     if (NULL == h_ota) {
 2002              		.loc 2 418 5
 2003              		.loc 2 418 8 is_stmt 0
 2004 0008 15ED     		bne	a0,zero,.L192
 419:C:/Users/stapi/OneDrive/Desktop/GD32VW553/V1_MQTT_OK/GD32VW55X_Wifi_BLE_SDK/GD32VW55x_RELEASE_V1.0.2/MSDK/cloud/alicloud/src/services/ota\iotx_ota.c ****         OTA_LOG_ERROR("handle is NULL");
 2005              		.loc 2 419 9 is_stmt 1
 2006              		.loc 2 419 9
 2007 000a 37050000 		lui	a0,%hi(.LC21)
 2008              	.LVL225:
 2009 000e 13050500 		addi	a0,a0,%lo(.LC21)
 2010 0012 97000000 		call	HAL_Printf
 2010      E7800000 
 2011              	.LVL226:
 2012              		.loc 2 419 9
 2013 001a 37050000 		lui	a0,%hi(.LC57)
 2014 001e 13050500 		addi	a0,a0,%lo(.LC57)
 2015 0022 97000000 		call	HAL_Printf
 2015      E7800000 
 2016              	.LVL227:
 2017              		.loc 2 419 9
 2018 002a 37050000 		lui	a0,%hi(.LC11)
 2019 002e 13050500 		addi	a0,a0,%lo(.LC11)
 2020 0032 97000000 		call	HAL_Printf
 2020      E7800000 
 2021              	.LVL228:
 2022              		.loc 2 419 9
 420:C:/Users/stapi/OneDrive/Desktop/GD32VW553/V1_MQTT_OK/GD32VW55X_Wifi_BLE_SDK/GD32VW55x_RELEASE_V1.0.2/MSDK/cloud/alicloud/src/services/ota\iotx_ota.c ****         return IOT_OTAE_INVALID_PARAM;
 2023              		.loc 2 420 9
 2024              		.loc 2 420 16 is_stmt 0
 2025 003a 7955     		li	a0,-2
 2026              	.L191:
 421:C:/Users/stapi/OneDrive/Desktop/GD32VW553/V1_MQTT_OK/GD32VW55X_Wifi_BLE_SDK/GD32VW55x_RELEASE_V1.0.2/MSDK/cloud/alicloud/src/services/ota\iotx_ota.c ****     }
 422:C:/Users/stapi/OneDrive/Desktop/GD32VW553/V1_MQTT_OK/GD32VW55X_Wifi_BLE_SDK/GD32VW55x_RELEASE_V1.0.2/MSDK/cloud/alicloud/src/services/ota\iotx_ota.c **** 
 423:C:/Users/stapi/OneDrive/Desktop/GD32VW553/V1_MQTT_OK/GD32VW55X_Wifi_BLE_SDK/GD32VW55x_RELEASE_V1.0.2/MSDK/cloud/alicloud/src/services/ota\iotx_ota.c ****     if (IOT_OTAS_UNINITED == h_ota->state) {
 424:C:/Users/stapi/OneDrive/Desktop/GD32VW553/V1_MQTT_OK/GD32VW55X_Wifi_BLE_SDK/GD32VW55x_RELEASE_V1.0.2/MSDK/cloud/alicloud/src/services/ota\iotx_ota.c ****         OTA_LOG_ERROR("handle is uninitialized");
 425:C:/Users/stapi/OneDrive/Desktop/GD32VW553/V1_MQTT_OK/GD32VW55X_Wifi_BLE_SDK/GD32VW55x_RELEASE_V1.0.2/MSDK/cloud/alicloud/src/services/ota\iotx_ota.c ****         h_ota->err = IOT_OTAE_INVALID_STATE;
 426:C:/Users/stapi/OneDrive/Desktop/GD32VW553/V1_MQTT_OK/GD32VW55X_Wifi_BLE_SDK/GD32VW55x_RELEASE_V1.0.2/MSDK/cloud/alicloud/src/services/ota\iotx_ota.c ****         return -1;
 427:C:/Users/stapi/OneDrive/Desktop/GD32VW553/V1_MQTT_OK/GD32VW55X_Wifi_BLE_SDK/GD32VW55x_RELEASE_V1.0.2/MSDK/cloud/alicloud/src/services/ota\iotx_ota.c ****     }
 428:C:/Users/stapi/OneDrive/Desktop/GD32VW553/V1_MQTT_OK/GD32VW55X_Wifi_BLE_SDK/GD32VW55x_RELEASE_V1.0.2/MSDK/cloud/alicloud/src/services/ota\iotx_ota.c **** 
 429:C:/Users/stapi/OneDrive/Desktop/GD32VW553/V1_MQTT_OK/GD32VW55X_Wifi_BLE_SDK/GD32VW55x_RELEASE_V1.0.2/MSDK/cloud/alicloud/src/services/ota\iotx_ota.c ****     g_ota_is_initialized = 0;
 430:C:/Users/stapi/OneDrive/Desktop/GD32VW553/V1_MQTT_OK/GD32VW55X_Wifi_BLE_SDK/GD32VW55x_RELEASE_V1.0.2/MSDK/cloud/alicloud/src/services/ota\iotx_ota.c **** 
 431:C:/Users/stapi/OneDrive/Desktop/GD32VW553/V1_MQTT_OK/GD32VW55X_Wifi_BLE_SDK/GD32VW55x_RELEASE_V1.0.2/MSDK/cloud/alicloud/src/services/ota\iotx_ota.c ****     if (NULL != h_ota->ch_signal) {
 432:C:/Users/stapi/OneDrive/Desktop/GD32VW553/V1_MQTT_OK/GD32VW55X_Wifi_BLE_SDK/GD32VW55x_RELEASE_V1.0.2/MSDK/cloud/alicloud/src/services/ota\iotx_ota.c ****         osc_Deinit(h_ota->ch_signal);
 433:C:/Users/stapi/OneDrive/Desktop/GD32VW553/V1_MQTT_OK/GD32VW55X_Wifi_BLE_SDK/GD32VW55x_RELEASE_V1.0.2/MSDK/cloud/alicloud/src/services/ota\iotx_ota.c ****     }
 434:C:/Users/stapi/OneDrive/Desktop/GD32VW553/V1_MQTT_OK/GD32VW55X_Wifi_BLE_SDK/GD32VW55x_RELEASE_V1.0.2/MSDK/cloud/alicloud/src/services/ota\iotx_ota.c **** 
 435:C:/Users/stapi/OneDrive/Desktop/GD32VW553/V1_MQTT_OK/GD32VW55X_Wifi_BLE_SDK/GD32VW55x_RELEASE_V1.0.2/MSDK/cloud/alicloud/src/services/ota\iotx_ota.c ****     if (NULL != h_ota->ch_fetch) {
 436:C:/Users/stapi/OneDrive/Desktop/GD32VW553/V1_MQTT_OK/GD32VW55X_Wifi_BLE_SDK/GD32VW55x_RELEASE_V1.0.2/MSDK/cloud/alicloud/src/services/ota\iotx_ota.c ****         ofc_Deinit(h_ota->ch_fetch);
 437:C:/Users/stapi/OneDrive/Desktop/GD32VW553/V1_MQTT_OK/GD32VW55X_Wifi_BLE_SDK/GD32VW55x_RELEASE_V1.0.2/MSDK/cloud/alicloud/src/services/ota\iotx_ota.c ****     }
 438:C:/Users/stapi/OneDrive/Desktop/GD32VW553/V1_MQTT_OK/GD32VW55X_Wifi_BLE_SDK/GD32VW55x_RELEASE_V1.0.2/MSDK/cloud/alicloud/src/services/ota\iotx_ota.c **** 
 439:C:/Users/stapi/OneDrive/Desktop/GD32VW553/V1_MQTT_OK/GD32VW55X_Wifi_BLE_SDK/GD32VW55x_RELEASE_V1.0.2/MSDK/cloud/alicloud/src/services/ota\iotx_ota.c ****     if (NULL != h_ota->md5) {
 440:C:/Users/stapi/OneDrive/Desktop/GD32VW553/V1_MQTT_OK/GD32VW55X_Wifi_BLE_SDK/GD32VW55x_RELEASE_V1.0.2/MSDK/cloud/alicloud/src/services/ota\iotx_ota.c ****         otalib_MD5Deinit(h_ota->md5);
 441:C:/Users/stapi/OneDrive/Desktop/GD32VW553/V1_MQTT_OK/GD32VW55X_Wifi_BLE_SDK/GD32VW55x_RELEASE_V1.0.2/MSDK/cloud/alicloud/src/services/ota\iotx_ota.c ****     }
 442:C:/Users/stapi/OneDrive/Desktop/GD32VW553/V1_MQTT_OK/GD32VW55X_Wifi_BLE_SDK/GD32VW55x_RELEASE_V1.0.2/MSDK/cloud/alicloud/src/services/ota\iotx_ota.c **** 
 443:C:/Users/stapi/OneDrive/Desktop/GD32VW553/V1_MQTT_OK/GD32VW55X_Wifi_BLE_SDK/GD32VW55x_RELEASE_V1.0.2/MSDK/cloud/alicloud/src/services/ota\iotx_ota.c ****     if (NULL != h_ota->sha256) {
 444:C:/Users/stapi/OneDrive/Desktop/GD32VW553/V1_MQTT_OK/GD32VW55X_Wifi_BLE_SDK/GD32VW55x_RELEASE_V1.0.2/MSDK/cloud/alicloud/src/services/ota\iotx_ota.c ****         otalib_Sha256Deinit(h_ota->sha256);
 445:C:/Users/stapi/OneDrive/Desktop/GD32VW553/V1_MQTT_OK/GD32VW55X_Wifi_BLE_SDK/GD32VW55x_RELEASE_V1.0.2/MSDK/cloud/alicloud/src/services/ota\iotx_ota.c ****     }
 446:C:/Users/stapi/OneDrive/Desktop/GD32VW553/V1_MQTT_OK/GD32VW55X_Wifi_BLE_SDK/GD32VW55x_RELEASE_V1.0.2/MSDK/cloud/alicloud/src/services/ota\iotx_ota.c **** 
 447:C:/Users/stapi/OneDrive/Desktop/GD32VW553/V1_MQTT_OK/GD32VW55X_Wifi_BLE_SDK/GD32VW55x_RELEASE_V1.0.2/MSDK/cloud/alicloud/src/services/ota\iotx_ota.c ****     if (NULL != h_ota->purl) {
 448:C:/Users/stapi/OneDrive/Desktop/GD32VW553/V1_MQTT_OK/GD32VW55X_Wifi_BLE_SDK/GD32VW55x_RELEASE_V1.0.2/MSDK/cloud/alicloud/src/services/ota\iotx_ota.c ****         OTA_FREE(h_ota->purl);
 449:C:/Users/stapi/OneDrive/Desktop/GD32VW553/V1_MQTT_OK/GD32VW55X_Wifi_BLE_SDK/GD32VW55x_RELEASE_V1.0.2/MSDK/cloud/alicloud/src/services/ota\iotx_ota.c ****     }
 450:C:/Users/stapi/OneDrive/Desktop/GD32VW553/V1_MQTT_OK/GD32VW55X_Wifi_BLE_SDK/GD32VW55x_RELEASE_V1.0.2/MSDK/cloud/alicloud/src/services/ota\iotx_ota.c **** 
 451:C:/Users/stapi/OneDrive/Desktop/GD32VW553/V1_MQTT_OK/GD32VW55X_Wifi_BLE_SDK/GD32VW55x_RELEASE_V1.0.2/MSDK/cloud/alicloud/src/services/ota\iotx_ota.c ****     if (NULL != h_ota->version) {
 452:C:/Users/stapi/OneDrive/Desktop/GD32VW553/V1_MQTT_OK/GD32VW55X_Wifi_BLE_SDK/GD32VW55x_RELEASE_V1.0.2/MSDK/cloud/alicloud/src/services/ota\iotx_ota.c ****         OTA_FREE(h_ota->version);
 453:C:/Users/stapi/OneDrive/Desktop/GD32VW553/V1_MQTT_OK/GD32VW55X_Wifi_BLE_SDK/GD32VW55x_RELEASE_V1.0.2/MSDK/cloud/alicloud/src/services/ota\iotx_ota.c ****     }
 454:C:/Users/stapi/OneDrive/Desktop/GD32VW553/V1_MQTT_OK/GD32VW55X_Wifi_BLE_SDK/GD32VW55x_RELEASE_V1.0.2/MSDK/cloud/alicloud/src/services/ota\iotx_ota.c **** 
 455:C:/Users/stapi/OneDrive/Desktop/GD32VW553/V1_MQTT_OK/GD32VW55X_Wifi_BLE_SDK/GD32VW55x_RELEASE_V1.0.2/MSDK/cloud/alicloud/src/services/ota\iotx_ota.c ****     if (NULL != h_ota->configId) {
 456:C:/Users/stapi/OneDrive/Desktop/GD32VW553/V1_MQTT_OK/GD32VW55X_Wifi_BLE_SDK/GD32VW55x_RELEASE_V1.0.2/MSDK/cloud/alicloud/src/services/ota\iotx_ota.c ****         OTA_FREE(h_ota->configId);
 457:C:/Users/stapi/OneDrive/Desktop/GD32VW553/V1_MQTT_OK/GD32VW55X_Wifi_BLE_SDK/GD32VW55x_RELEASE_V1.0.2/MSDK/cloud/alicloud/src/services/ota\iotx_ota.c ****     }
 458:C:/Users/stapi/OneDrive/Desktop/GD32VW553/V1_MQTT_OK/GD32VW55X_Wifi_BLE_SDK/GD32VW55x_RELEASE_V1.0.2/MSDK/cloud/alicloud/src/services/ota\iotx_ota.c **** 
 459:C:/Users/stapi/OneDrive/Desktop/GD32VW553/V1_MQTT_OK/GD32VW55X_Wifi_BLE_SDK/GD32VW55x_RELEASE_V1.0.2/MSDK/cloud/alicloud/src/services/ota\iotx_ota.c ****     if (NULL != h_ota->sign) {
 460:C:/Users/stapi/OneDrive/Desktop/GD32VW553/V1_MQTT_OK/GD32VW55X_Wifi_BLE_SDK/GD32VW55x_RELEASE_V1.0.2/MSDK/cloud/alicloud/src/services/ota\iotx_ota.c ****         OTA_FREE(h_ota->sign);
 461:C:/Users/stapi/OneDrive/Desktop/GD32VW553/V1_MQTT_OK/GD32VW55X_Wifi_BLE_SDK/GD32VW55x_RELEASE_V1.0.2/MSDK/cloud/alicloud/src/services/ota\iotx_ota.c ****     }
 462:C:/Users/stapi/OneDrive/Desktop/GD32VW553/V1_MQTT_OK/GD32VW55X_Wifi_BLE_SDK/GD32VW55x_RELEASE_V1.0.2/MSDK/cloud/alicloud/src/services/ota\iotx_ota.c **** 
 463:C:/Users/stapi/OneDrive/Desktop/GD32VW553/V1_MQTT_OK/GD32VW55X_Wifi_BLE_SDK/GD32VW55x_RELEASE_V1.0.2/MSDK/cloud/alicloud/src/services/ota\iotx_ota.c ****     if (NULL != h_ota->signMethod) {
 464:C:/Users/stapi/OneDrive/Desktop/GD32VW553/V1_MQTT_OK/GD32VW55X_Wifi_BLE_SDK/GD32VW55x_RELEASE_V1.0.2/MSDK/cloud/alicloud/src/services/ota\iotx_ota.c ****         OTA_FREE(h_ota->signMethod);
 465:C:/Users/stapi/OneDrive/Desktop/GD32VW553/V1_MQTT_OK/GD32VW55X_Wifi_BLE_SDK/GD32VW55x_RELEASE_V1.0.2/MSDK/cloud/alicloud/src/services/ota\iotx_ota.c ****     }
 466:C:/Users/stapi/OneDrive/Desktop/GD32VW553/V1_MQTT_OK/GD32VW55X_Wifi_BLE_SDK/GD32VW55x_RELEASE_V1.0.2/MSDK/cloud/alicloud/src/services/ota\iotx_ota.c **** 
 467:C:/Users/stapi/OneDrive/Desktop/GD32VW553/V1_MQTT_OK/GD32VW55X_Wifi_BLE_SDK/GD32VW55x_RELEASE_V1.0.2/MSDK/cloud/alicloud/src/services/ota\iotx_ota.c ****     if (NULL != h_ota->cota_url) {
 468:C:/Users/stapi/OneDrive/Desktop/GD32VW553/V1_MQTT_OK/GD32VW55X_Wifi_BLE_SDK/GD32VW55x_RELEASE_V1.0.2/MSDK/cloud/alicloud/src/services/ota\iotx_ota.c ****         OTA_FREE(h_ota->cota_url);
 469:C:/Users/stapi/OneDrive/Desktop/GD32VW553/V1_MQTT_OK/GD32VW55X_Wifi_BLE_SDK/GD32VW55x_RELEASE_V1.0.2/MSDK/cloud/alicloud/src/services/ota\iotx_ota.c ****     }
 470:C:/Users/stapi/OneDrive/Desktop/GD32VW553/V1_MQTT_OK/GD32VW55X_Wifi_BLE_SDK/GD32VW55x_RELEASE_V1.0.2/MSDK/cloud/alicloud/src/services/ota\iotx_ota.c **** 
 471:C:/Users/stapi/OneDrive/Desktop/GD32VW553/V1_MQTT_OK/GD32VW55X_Wifi_BLE_SDK/GD32VW55x_RELEASE_V1.0.2/MSDK/cloud/alicloud/src/services/ota\iotx_ota.c ****     if (NULL != h_ota->getType) {
 472:C:/Users/stapi/OneDrive/Desktop/GD32VW553/V1_MQTT_OK/GD32VW55X_Wifi_BLE_SDK/GD32VW55x_RELEASE_V1.0.2/MSDK/cloud/alicloud/src/services/ota\iotx_ota.c ****         OTA_FREE(h_ota->getType);
 473:C:/Users/stapi/OneDrive/Desktop/GD32VW553/V1_MQTT_OK/GD32VW55X_Wifi_BLE_SDK/GD32VW55x_RELEASE_V1.0.2/MSDK/cloud/alicloud/src/services/ota\iotx_ota.c ****     }
 474:C:/Users/stapi/OneDrive/Desktop/GD32VW553/V1_MQTT_OK/GD32VW55X_Wifi_BLE_SDK/GD32VW55x_RELEASE_V1.0.2/MSDK/cloud/alicloud/src/services/ota\iotx_ota.c **** 
 475:C:/Users/stapi/OneDrive/Desktop/GD32VW553/V1_MQTT_OK/GD32VW55X_Wifi_BLE_SDK/GD32VW55x_RELEASE_V1.0.2/MSDK/cloud/alicloud/src/services/ota\iotx_ota.c ****     OTA_FREE(h_ota);
 476:C:/Users/stapi/OneDrive/Desktop/GD32VW553/V1_MQTT_OK/GD32VW55X_Wifi_BLE_SDK/GD32VW55x_RELEASE_V1.0.2/MSDK/cloud/alicloud/src/services/ota\iotx_ota.c ****     return 0;
 477:C:/Users/stapi/OneDrive/Desktop/GD32VW553/V1_MQTT_OK/GD32VW55X_Wifi_BLE_SDK/GD32VW55x_RELEASE_V1.0.2/MSDK/cloud/alicloud/src/services/ota\iotx_ota.c **** }
 2027              		.loc 2 477 1
 2028 003c 17030000 		tail	__riscv_restore_1
 2028      67000300 
 2029              		.cfi_remember_state
 2030              		.cfi_restore 8
 2031              		.cfi_restore 1
 2032              		.cfi_def_cfa_offset 0
 2033              	.LVL229:
 2034              	.L192:
 2035              		.cfi_restore_state
 423:C:/Users/stapi/OneDrive/Desktop/GD32VW553/V1_MQTT_OK/GD32VW55X_Wifi_BLE_SDK/GD32VW55x_RELEASE_V1.0.2/MSDK/cloud/alicloud/src/services/ota\iotx_ota.c ****         OTA_LOG_ERROR("handle is uninitialized");
 2036              		.loc 2 423 8
 2037 0044 5C45     		lw	a5,12(a0)
 2038 0046 2A84     		mv	s0,a0
 423:C:/Users/stapi/OneDrive/Desktop/GD32VW553/V1_MQTT_OK/GD32VW55X_Wifi_BLE_SDK/GD32VW55x_RELEASE_V1.0.2/MSDK/cloud/alicloud/src/services/ota\iotx_ota.c ****         OTA_LOG_ERROR("handle is uninitialized");
 2039              		.loc 2 423 5 is_stmt 1
 423:C:/Users/stapi/OneDrive/Desktop/GD32VW553/V1_MQTT_OK/GD32VW55X_Wifi_BLE_SDK/GD32VW55x_RELEASE_V1.0.2/MSDK/cloud/alicloud/src/services/ota\iotx_ota.c ****         OTA_LOG_ERROR("handle is uninitialized");
 2040              		.loc 2 423 8 is_stmt 0
 2041 0048 8DEF     		bne	a5,zero,.L194
 2042              	.LVL230:
 424:C:/Users/stapi/OneDrive/Desktop/GD32VW553/V1_MQTT_OK/GD32VW55X_Wifi_BLE_SDK/GD32VW55x_RELEASE_V1.0.2/MSDK/cloud/alicloud/src/services/ota\iotx_ota.c ****         h_ota->err = IOT_OTAE_INVALID_STATE;
 2043              		.loc 2 424 9 is_stmt 1
 424:C:/Users/stapi/OneDrive/Desktop/GD32VW553/V1_MQTT_OK/GD32VW55X_Wifi_BLE_SDK/GD32VW55x_RELEASE_V1.0.2/MSDK/cloud/alicloud/src/services/ota\iotx_ota.c ****         h_ota->err = IOT_OTAE_INVALID_STATE;
 2044              		.loc 2 424 9
 2045 004a 37050000 		lui	a0,%hi(.LC21)
 2046 004e 13050500 		addi	a0,a0,%lo(.LC21)
 2047 0052 97000000 		call	HAL_Printf
 2047      E7800000 
 2048              	.LVL231:
 424:C:/Users/stapi/OneDrive/Desktop/GD32VW553/V1_MQTT_OK/GD32VW55X_Wifi_BLE_SDK/GD32VW55x_RELEASE_V1.0.2/MSDK/cloud/alicloud/src/services/ota\iotx_ota.c ****         h_ota->err = IOT_OTAE_INVALID_STATE;
 2049              		.loc 2 424 9
 2050 005a 37050000 		lui	a0,%hi(.LC58)
 2051 005e 13050500 		addi	a0,a0,%lo(.LC58)
 2052 0062 97000000 		call	HAL_Printf
 2052      E7800000 
 2053              	.LVL232:
 424:C:/Users/stapi/OneDrive/Desktop/GD32VW553/V1_MQTT_OK/GD32VW55X_Wifi_BLE_SDK/GD32VW55x_RELEASE_V1.0.2/MSDK/cloud/alicloud/src/services/ota\iotx_ota.c ****         h_ota->err = IOT_OTAE_INVALID_STATE;
 2054              		.loc 2 424 9
 2055 006a 37050000 		lui	a0,%hi(.LC11)
 2056 006e 13050500 		addi	a0,a0,%lo(.LC11)
 2057 0072 97000000 		call	HAL_Printf
 2057      E7800000 
 2058              	.LVL233:
 424:C:/Users/stapi/OneDrive/Desktop/GD32VW553/V1_MQTT_OK/GD32VW55X_Wifi_BLE_SDK/GD32VW55x_RELEASE_V1.0.2/MSDK/cloud/alicloud/src/services/ota\iotx_ota.c ****         h_ota->err = IOT_OTAE_INVALID_STATE;
 2059              		.loc 2 424 9
 425:C:/Users/stapi/OneDrive/Desktop/GD32VW553/V1_MQTT_OK/GD32VW55X_Wifi_BLE_SDK/GD32VW55x_RELEASE_V1.0.2/MSDK/cloud/alicloud/src/services/ota\iotx_ota.c ****         return -1;
 2060              		.loc 2 425 9
 425:C:/Users/stapi/OneDrive/Desktop/GD32VW553/V1_MQTT_OK/GD32VW55X_Wifi_BLE_SDK/GD32VW55x_RELEASE_V1.0.2/MSDK/cloud/alicloud/src/services/ota\iotx_ota.c ****         return -1;
 2061              		.loc 2 425 20 is_stmt 0
 2062 007a F557     		li	a5,-3
 2063 007c 7CD8     		sw	a5,116(s0)
 426:C:/Users/stapi/OneDrive/Desktop/GD32VW553/V1_MQTT_OK/GD32VW55X_Wifi_BLE_SDK/GD32VW55x_RELEASE_V1.0.2/MSDK/cloud/alicloud/src/services/ota\iotx_ota.c ****     }
 2064              		.loc 2 426 9 is_stmt 1
 426:C:/Users/stapi/OneDrive/Desktop/GD32VW553/V1_MQTT_OK/GD32VW55X_Wifi_BLE_SDK/GD32VW55x_RELEASE_V1.0.2/MSDK/cloud/alicloud/src/services/ota\iotx_ota.c ****     }
 2065              		.loc 2 426 16 is_stmt 0
 2066 007e 7D55     		li	a0,-1
 2067 0080 75BF     		j	.L191
 2068              	.L194:
 429:C:/Users/stapi/OneDrive/Desktop/GD32VW553/V1_MQTT_OK/GD32VW55X_Wifi_BLE_SDK/GD32VW55x_RELEASE_V1.0.2/MSDK/cloud/alicloud/src/services/ota\iotx_ota.c **** 
 2069              		.loc 2 429 5 is_stmt 1
 431:C:/Users/stapi/OneDrive/Desktop/GD32VW553/V1_MQTT_OK/GD32VW55X_Wifi_BLE_SDK/GD32VW55x_RELEASE_V1.0.2/MSDK/cloud/alicloud/src/services/ota\iotx_ota.c ****         osc_Deinit(h_ota->ch_signal);
 2070              		.loc 2 431 22 is_stmt 0
 2071 0082 6849     		lw	a0,84(a0)
 429:C:/Users/stapi/OneDrive/Desktop/GD32VW553/V1_MQTT_OK/GD32VW55X_Wifi_BLE_SDK/GD32VW55x_RELEASE_V1.0.2/MSDK/cloud/alicloud/src/services/ota\iotx_ota.c **** 
 2072              		.loc 2 429 26
 2073 0084 B7070000 		lui	a5,%hi(.LANCHOR3)
 2074 0088 23A00700 		sw	zero,%lo(.LANCHOR3)(a5)
 431:C:/Users/stapi/OneDrive/Desktop/GD32VW553/V1_MQTT_OK/GD32VW55X_Wifi_BLE_SDK/GD32VW55x_RELEASE_V1.0.2/MSDK/cloud/alicloud/src/services/ota\iotx_ota.c ****         osc_Deinit(h_ota->ch_signal);
 2075              		.loc 2 431 5 is_stmt 1
 431:C:/Users/stapi/OneDrive/Desktop/GD32VW553/V1_MQTT_OK/GD32VW55X_Wifi_BLE_SDK/GD32VW55x_RELEASE_V1.0.2/MSDK/cloud/alicloud/src/services/ota\iotx_ota.c ****         osc_Deinit(h_ota->ch_signal);
 2076              		.loc 2 431 8 is_stmt 0
 2077 008c 09C5     		beq	a0,zero,.L195
 432:C:/Users/stapi/OneDrive/Desktop/GD32VW553/V1_MQTT_OK/GD32VW55X_Wifi_BLE_SDK/GD32VW55x_RELEASE_V1.0.2/MSDK/cloud/alicloud/src/services/ota\iotx_ota.c ****     }
 2078              		.loc 2 432 9 is_stmt 1
 2079 008e 97000000 		call	osc_Deinit
 2079      E7800000 
 2080              	.LVL234:
 2081              	.L195:
 435:C:/Users/stapi/OneDrive/Desktop/GD32VW553/V1_MQTT_OK/GD32VW55X_Wifi_BLE_SDK/GD32VW55x_RELEASE_V1.0.2/MSDK/cloud/alicloud/src/services/ota\iotx_ota.c ****         ofc_Deinit(h_ota->ch_fetch);
 2082              		.loc 2 435 5
 435:C:/Users/stapi/OneDrive/Desktop/GD32VW553/V1_MQTT_OK/GD32VW55X_Wifi_BLE_SDK/GD32VW55x_RELEASE_V1.0.2/MSDK/cloud/alicloud/src/services/ota\iotx_ota.c ****         ofc_Deinit(h_ota->ch_fetch);
 2083              		.loc 2 435 22 is_stmt 0
 2084 0096 284C     		lw	a0,88(s0)
 435:C:/Users/stapi/OneDrive/Desktop/GD32VW553/V1_MQTT_OK/GD32VW55X_Wifi_BLE_SDK/GD32VW55x_RELEASE_V1.0.2/MSDK/cloud/alicloud/src/services/ota\iotx_ota.c ****         ofc_Deinit(h_ota->ch_fetch);
 2085              		.loc 2 435 8
 2086 0098 09C5     		beq	a0,zero,.L196
 436:C:/Users/stapi/OneDrive/Desktop/GD32VW553/V1_MQTT_OK/GD32VW55X_Wifi_BLE_SDK/GD32VW55x_RELEASE_V1.0.2/MSDK/cloud/alicloud/src/services/ota\iotx_ota.c ****     }
 2087              		.loc 2 436 9 is_stmt 1
 2088 009a 97000000 		call	ofc_Deinit
 2088      E7800000 
 2089              	.LVL235:
 2090              	.L196:
 439:C:/Users/stapi/OneDrive/Desktop/GD32VW553/V1_MQTT_OK/GD32VW55X_Wifi_BLE_SDK/GD32VW55x_RELEASE_V1.0.2/MSDK/cloud/alicloud/src/services/ota\iotx_ota.c ****         otalib_MD5Deinit(h_ota->md5);
 2091              		.loc 2 439 5
 439:C:/Users/stapi/OneDrive/Desktop/GD32VW553/V1_MQTT_OK/GD32VW55X_Wifi_BLE_SDK/GD32VW55x_RELEASE_V1.0.2/MSDK/cloud/alicloud/src/services/ota\iotx_ota.c ****         otalib_MD5Deinit(h_ota->md5);
 2092              		.loc 2 439 22 is_stmt 0
 2093 00a2 6844     		lw	a0,76(s0)
 439:C:/Users/stapi/OneDrive/Desktop/GD32VW553/V1_MQTT_OK/GD32VW55X_Wifi_BLE_SDK/GD32VW55x_RELEASE_V1.0.2/MSDK/cloud/alicloud/src/services/ota\iotx_ota.c ****         otalib_MD5Deinit(h_ota->md5);
 2094              		.loc 2 439 8
 2095 00a4 09C5     		beq	a0,zero,.L197
 440:C:/Users/stapi/OneDrive/Desktop/GD32VW553/V1_MQTT_OK/GD32VW55X_Wifi_BLE_SDK/GD32VW55x_RELEASE_V1.0.2/MSDK/cloud/alicloud/src/services/ota\iotx_ota.c ****     }
 2096              		.loc 2 440 9 is_stmt 1
 2097 00a6 97000000 		call	otalib_MD5Deinit
 2097      E7800000 
 2098              	.LVL236:
 2099              	.L197:
 443:C:/Users/stapi/OneDrive/Desktop/GD32VW553/V1_MQTT_OK/GD32VW55X_Wifi_BLE_SDK/GD32VW55x_RELEASE_V1.0.2/MSDK/cloud/alicloud/src/services/ota\iotx_ota.c ****         otalib_Sha256Deinit(h_ota->sha256);
 2100              		.loc 2 443 5
 443:C:/Users/stapi/OneDrive/Desktop/GD32VW553/V1_MQTT_OK/GD32VW55X_Wifi_BLE_SDK/GD32VW55x_RELEASE_V1.0.2/MSDK/cloud/alicloud/src/services/ota\iotx_ota.c ****         otalib_Sha256Deinit(h_ota->sha256);
 2101              		.loc 2 443 22 is_stmt 0
 2102 00ae 2848     		lw	a0,80(s0)
 443:C:/Users/stapi/OneDrive/Desktop/GD32VW553/V1_MQTT_OK/GD32VW55X_Wifi_BLE_SDK/GD32VW55x_RELEASE_V1.0.2/MSDK/cloud/alicloud/src/services/ota\iotx_ota.c ****         otalib_Sha256Deinit(h_ota->sha256);
 2103              		.loc 2 443 8
 2104 00b0 09C5     		beq	a0,zero,.L198
 444:C:/Users/stapi/OneDrive/Desktop/GD32VW553/V1_MQTT_OK/GD32VW55X_Wifi_BLE_SDK/GD32VW55x_RELEASE_V1.0.2/MSDK/cloud/alicloud/src/services/ota\iotx_ota.c ****     }
 2105              		.loc 2 444 9 is_stmt 1
 2106 00b2 97000000 		call	otalib_Sha256Deinit
 2106      E7800000 
 2107              	.LVL237:
 2108              	.L198:
 447:C:/Users/stapi/OneDrive/Desktop/GD32VW553/V1_MQTT_OK/GD32VW55X_Wifi_BLE_SDK/GD32VW55x_RELEASE_V1.0.2/MSDK/cloud/alicloud/src/services/ota\iotx_ota.c ****         OTA_FREE(h_ota->purl);
 2109              		.loc 2 447 5
 447:C:/Users/stapi/OneDrive/Desktop/GD32VW553/V1_MQTT_OK/GD32VW55X_Wifi_BLE_SDK/GD32VW55x_RELEASE_V1.0.2/MSDK/cloud/alicloud/src/services/ota\iotx_ota.c ****         OTA_FREE(h_ota->purl);
 2110              		.loc 2 447 22 is_stmt 0
 2111 00ba 0850     		lw	a0,32(s0)
 447:C:/Users/stapi/OneDrive/Desktop/GD32VW553/V1_MQTT_OK/GD32VW55X_Wifi_BLE_SDK/GD32VW55x_RELEASE_V1.0.2/MSDK/cloud/alicloud/src/services/ota\iotx_ota.c ****         OTA_FREE(h_ota->purl);
 2112              		.loc 2 447 8
 2113 00bc 09C5     		beq	a0,zero,.L199
 448:C:/Users/stapi/OneDrive/Desktop/GD32VW553/V1_MQTT_OK/GD32VW55X_Wifi_BLE_SDK/GD32VW55x_RELEASE_V1.0.2/MSDK/cloud/alicloud/src/services/ota\iotx_ota.c ****     }
 2114              		.loc 2 448 9 is_stmt 1
 2115 00be 97000000 		call	LITE_free_internal
 2115      E7800000 
 2116              	.LVL238:
 2117              	.L199:
 451:C:/Users/stapi/OneDrive/Desktop/GD32VW553/V1_MQTT_OK/GD32VW55X_Wifi_BLE_SDK/GD32VW55x_RELEASE_V1.0.2/MSDK/cloud/alicloud/src/services/ota\iotx_ota.c ****         OTA_FREE(h_ota->version);
 2118              		.loc 2 451 5
 451:C:/Users/stapi/OneDrive/Desktop/GD32VW553/V1_MQTT_OK/GD32VW55X_Wifi_BLE_SDK/GD32VW55x_RELEASE_V1.0.2/MSDK/cloud/alicloud/src/services/ota\iotx_ota.c ****         OTA_FREE(h_ota->version);
 2119              		.loc 2 451 22 is_stmt 0
 2120 00c6 4850     		lw	a0,36(s0)
 451:C:/Users/stapi/OneDrive/Desktop/GD32VW553/V1_MQTT_OK/GD32VW55X_Wifi_BLE_SDK/GD32VW55x_RELEASE_V1.0.2/MSDK/cloud/alicloud/src/services/ota\iotx_ota.c ****         OTA_FREE(h_ota->version);
 2121              		.loc 2 451 8
 2122 00c8 09C5     		beq	a0,zero,.L200
 452:C:/Users/stapi/OneDrive/Desktop/GD32VW553/V1_MQTT_OK/GD32VW55X_Wifi_BLE_SDK/GD32VW55x_RELEASE_V1.0.2/MSDK/cloud/alicloud/src/services/ota\iotx_ota.c ****     }
 2123              		.loc 2 452 9 is_stmt 1
 2124 00ca 97000000 		call	LITE_free_internal
 2124      E7800000 
 2125              	.LVL239:
 2126              	.L200:
 455:C:/Users/stapi/OneDrive/Desktop/GD32VW553/V1_MQTT_OK/GD32VW55X_Wifi_BLE_SDK/GD32VW55x_RELEASE_V1.0.2/MSDK/cloud/alicloud/src/services/ota\iotx_ota.c ****         OTA_FREE(h_ota->configId);
 2127              		.loc 2 455 5
 455:C:/Users/stapi/OneDrive/Desktop/GD32VW553/V1_MQTT_OK/GD32VW55X_Wifi_BLE_SDK/GD32VW55x_RELEASE_V1.0.2/MSDK/cloud/alicloud/src/services/ota\iotx_ota.c ****         OTA_FREE(h_ota->configId);
 2128              		.loc 2 455 22 is_stmt 0
 2129 00d2 684C     		lw	a0,92(s0)
 455:C:/Users/stapi/OneDrive/Desktop/GD32VW553/V1_MQTT_OK/GD32VW55X_Wifi_BLE_SDK/GD32VW55x_RELEASE_V1.0.2/MSDK/cloud/alicloud/src/services/ota\iotx_ota.c ****         OTA_FREE(h_ota->configId);
 2130              		.loc 2 455 8
 2131 00d4 09C5     		beq	a0,zero,.L201
 456:C:/Users/stapi/OneDrive/Desktop/GD32VW553/V1_MQTT_OK/GD32VW55X_Wifi_BLE_SDK/GD32VW55x_RELEASE_V1.0.2/MSDK/cloud/alicloud/src/services/ota\iotx_ota.c ****     }
 2132              		.loc 2 456 9 is_stmt 1
 2133 00d6 97000000 		call	LITE_free_internal
 2133      E7800000 
 2134              	.LVL240:
 2135              	.L201:
 459:C:/Users/stapi/OneDrive/Desktop/GD32VW553/V1_MQTT_OK/GD32VW55X_Wifi_BLE_SDK/GD32VW55x_RELEASE_V1.0.2/MSDK/cloud/alicloud/src/services/ota\iotx_ota.c ****         OTA_FREE(h_ota->sign);
 2136              		.loc 2 459 5
 459:C:/Users/stapi/OneDrive/Desktop/GD32VW553/V1_MQTT_OK/GD32VW55X_Wifi_BLE_SDK/GD32VW55x_RELEASE_V1.0.2/MSDK/cloud/alicloud/src/services/ota\iotx_ota.c ****         OTA_FREE(h_ota->sign);
 2137              		.loc 2 459 22 is_stmt 0
 2138 00de 6850     		lw	a0,100(s0)
 459:C:/Users/stapi/OneDrive/Desktop/GD32VW553/V1_MQTT_OK/GD32VW55X_Wifi_BLE_SDK/GD32VW55x_RELEASE_V1.0.2/MSDK/cloud/alicloud/src/services/ota\iotx_ota.c ****         OTA_FREE(h_ota->sign);
 2139              		.loc 2 459 8
 2140 00e0 09C5     		beq	a0,zero,.L202
 460:C:/Users/stapi/OneDrive/Desktop/GD32VW553/V1_MQTT_OK/GD32VW55X_Wifi_BLE_SDK/GD32VW55x_RELEASE_V1.0.2/MSDK/cloud/alicloud/src/services/ota\iotx_ota.c ****     }
 2141              		.loc 2 460 9 is_stmt 1
 2142 00e2 97000000 		call	LITE_free_internal
 2142      E7800000 
 2143              	.LVL241:
 2144              	.L202:
 463:C:/Users/stapi/OneDrive/Desktop/GD32VW553/V1_MQTT_OK/GD32VW55X_Wifi_BLE_SDK/GD32VW55x_RELEASE_V1.0.2/MSDK/cloud/alicloud/src/services/ota\iotx_ota.c ****         OTA_FREE(h_ota->signMethod);
 2145              		.loc 2 463 5
 463:C:/Users/stapi/OneDrive/Desktop/GD32VW553/V1_MQTT_OK/GD32VW55X_Wifi_BLE_SDK/GD32VW55x_RELEASE_V1.0.2/MSDK/cloud/alicloud/src/services/ota\iotx_ota.c ****         OTA_FREE(h_ota->signMethod);
 2146              		.loc 2 463 22 is_stmt 0
 2147 00ea 2854     		lw	a0,104(s0)
 463:C:/Users/stapi/OneDrive/Desktop/GD32VW553/V1_MQTT_OK/GD32VW55X_Wifi_BLE_SDK/GD32VW55x_RELEASE_V1.0.2/MSDK/cloud/alicloud/src/services/ota\iotx_ota.c ****         OTA_FREE(h_ota->signMethod);
 2148              		.loc 2 463 8
 2149 00ec 09C5     		beq	a0,zero,.L203
 464:C:/Users/stapi/OneDrive/Desktop/GD32VW553/V1_MQTT_OK/GD32VW55X_Wifi_BLE_SDK/GD32VW55x_RELEASE_V1.0.2/MSDK/cloud/alicloud/src/services/ota\iotx_ota.c ****     }
 2150              		.loc 2 464 9 is_stmt 1
 2151 00ee 97000000 		call	LITE_free_internal
 2151      E7800000 
 2152              	.LVL242:
 2153              	.L203:
 467:C:/Users/stapi/OneDrive/Desktop/GD32VW553/V1_MQTT_OK/GD32VW55X_Wifi_BLE_SDK/GD32VW55x_RELEASE_V1.0.2/MSDK/cloud/alicloud/src/services/ota\iotx_ota.c ****         OTA_FREE(h_ota->cota_url);
 2154              		.loc 2 467 5
 467:C:/Users/stapi/OneDrive/Desktop/GD32VW553/V1_MQTT_OK/GD32VW55X_Wifi_BLE_SDK/GD32VW55x_RELEASE_V1.0.2/MSDK/cloud/alicloud/src/services/ota\iotx_ota.c ****         OTA_FREE(h_ota->cota_url);
 2155              		.loc 2 467 22 is_stmt 0
 2156 00f6 6854     		lw	a0,108(s0)
 467:C:/Users/stapi/OneDrive/Desktop/GD32VW553/V1_MQTT_OK/GD32VW55X_Wifi_BLE_SDK/GD32VW55x_RELEASE_V1.0.2/MSDK/cloud/alicloud/src/services/ota\iotx_ota.c ****         OTA_FREE(h_ota->cota_url);
 2157              		.loc 2 467 8
 2158 00f8 09C5     		beq	a0,zero,.L204
 468:C:/Users/stapi/OneDrive/Desktop/GD32VW553/V1_MQTT_OK/GD32VW55X_Wifi_BLE_SDK/GD32VW55x_RELEASE_V1.0.2/MSDK/cloud/alicloud/src/services/ota\iotx_ota.c ****     }
 2159              		.loc 2 468 9 is_stmt 1
 2160 00fa 97000000 		call	LITE_free_internal
 2160      E7800000 
 2161              	.LVL243:
 2162              	.L204:
 471:C:/Users/stapi/OneDrive/Desktop/GD32VW553/V1_MQTT_OK/GD32VW55X_Wifi_BLE_SDK/GD32VW55x_RELEASE_V1.0.2/MSDK/cloud/alicloud/src/services/ota\iotx_ota.c ****         OTA_FREE(h_ota->getType);
 2163              		.loc 2 471 5
 471:C:/Users/stapi/OneDrive/Desktop/GD32VW553/V1_MQTT_OK/GD32VW55X_Wifi_BLE_SDK/GD32VW55x_RELEASE_V1.0.2/MSDK/cloud/alicloud/src/services/ota\iotx_ota.c ****         OTA_FREE(h_ota->getType);
 2164              		.loc 2 471 22 is_stmt 0
 2165 0102 2858     		lw	a0,112(s0)
 471:C:/Users/stapi/OneDrive/Desktop/GD32VW553/V1_MQTT_OK/GD32VW55X_Wifi_BLE_SDK/GD32VW55x_RELEASE_V1.0.2/MSDK/cloud/alicloud/src/services/ota\iotx_ota.c ****         OTA_FREE(h_ota->getType);
 2166              		.loc 2 471 8
 2167 0104 09C5     		beq	a0,zero,.L205
 472:C:/Users/stapi/OneDrive/Desktop/GD32VW553/V1_MQTT_OK/GD32VW55X_Wifi_BLE_SDK/GD32VW55x_RELEASE_V1.0.2/MSDK/cloud/alicloud/src/services/ota\iotx_ota.c ****     }
 2168              		.loc 2 472 9 is_stmt 1
 2169 0106 97000000 		call	LITE_free_internal
 2169      E7800000 
 2170              	.LVL244:
 2171              	.L205:
 475:C:/Users/stapi/OneDrive/Desktop/GD32VW553/V1_MQTT_OK/GD32VW55X_Wifi_BLE_SDK/GD32VW55x_RELEASE_V1.0.2/MSDK/cloud/alicloud/src/services/ota\iotx_ota.c ****     return 0;
 2172              		.loc 2 475 5
 2173 010e 2285     		mv	a0,s0
 2174 0110 97000000 		call	LITE_free_internal
 2174      E7800000 
 2175              	.LVL245:
 476:C:/Users/stapi/OneDrive/Desktop/GD32VW553/V1_MQTT_OK/GD32VW55X_Wifi_BLE_SDK/GD32VW55x_RELEASE_V1.0.2/MSDK/cloud/alicloud/src/services/ota\iotx_ota.c **** }
 2176              		.loc 2 476 5
 476:C:/Users/stapi/OneDrive/Desktop/GD32VW553/V1_MQTT_OK/GD32VW55X_Wifi_BLE_SDK/GD32VW55x_RELEASE_V1.0.2/MSDK/cloud/alicloud/src/services/ota\iotx_ota.c **** }
 2177              		.loc 2 476 12 is_stmt 0
 2178 0118 0145     		li	a0,0
 2179 011a 0DB7     		j	.L191
 2180              		.cfi_endproc
 2181              	.LFE36:
 2183              		.section	.rodata.IOT_OTA_ReportVersion.str1.4,"aMS",@progbits,1
 2184              		.align	2
 2185              	.LC59:
 2186 0000 6F6E6520 		.string	"one or more invalid parameter"
 2186      6F72206D 
 2186      6F726520 
 2186      696E7661 
 2186      6C696420 
 2187 001e 0000     		.align	2
 2188              	.LC60:
 2189 0020 76657273 		.string	"version string is invalid: must be [1, 32] chars"
 2189      696F6E20 
 2189      73747269 
 2189      6E672069 
 2189      7320696E 
 2190 0051 000000   		.align	2
 2191              	.LC61:
 2192 0054 616C6C6F 		.string	"allocate for msg_informed failed"
 2192      63617465 
 2192      20666F72 
 2192      206D7367 
 2192      5F696E66 
 2193 0075 000000   		.align	2
 2194              	.LC62:
 2195 0078 67656E65 		.string	"generate inform message failed"
 2195      72617465 
 2195      20696E66 
 2195      6F726D20 
 2195      6D657373 
 2196 0097 00       		.align	2
 2197              	.LC63:
 2198 0098 5265706F 		.string	"Report version failed"
 2198      72742076 
 2198      65727369 
 2198      6F6E2066 
 2198      61696C65 
 2199              		.section	.text.IOT_OTA_ReportVersion,"ax",@progbits
 2200              		.align	1
 2201              		.globl	IOT_OTA_ReportVersion
 2203              	IOT_OTA_ReportVersion:
 2204              	.LFB37:
 478:C:/Users/stapi/OneDrive/Desktop/GD32VW553/V1_MQTT_OK/GD32VW55X_Wifi_BLE_SDK/GD32VW55x_RELEASE_V1.0.2/MSDK/cloud/alicloud/src/services/ota\iotx_ota.c **** 
 479:C:/Users/stapi/OneDrive/Desktop/GD32VW553/V1_MQTT_OK/GD32VW55X_Wifi_BLE_SDK/GD32VW55x_RELEASE_V1.0.2/MSDK/cloud/alicloud/src/services/ota\iotx_ota.c **** 
 480:C:/Users/stapi/OneDrive/Desktop/GD32VW553/V1_MQTT_OK/GD32VW55X_Wifi_BLE_SDK/GD32VW55x_RELEASE_V1.0.2/MSDK/cloud/alicloud/src/services/ota\iotx_ota.c **** #define OTA_VERSION_STR_LEN_MIN     (1)
 481:C:/Users/stapi/OneDrive/Desktop/GD32VW553/V1_MQTT_OK/GD32VW55X_Wifi_BLE_SDK/GD32VW55x_RELEASE_V1.0.2/MSDK/cloud/alicloud/src/services/ota\iotx_ota.c **** #define OTA_VERSION_STR_LEN_MAX     (32)
 482:C:/Users/stapi/OneDrive/Desktop/GD32VW553/V1_MQTT_OK/GD32VW55X_Wifi_BLE_SDK/GD32VW55x_RELEASE_V1.0.2/MSDK/cloud/alicloud/src/services/ota\iotx_ota.c **** 
 483:C:/Users/stapi/OneDrive/Desktop/GD32VW553/V1_MQTT_OK/GD32VW55X_Wifi_BLE_SDK/GD32VW55x_RELEASE_V1.0.2/MSDK/cloud/alicloud/src/services/ota\iotx_ota.c **** int IOT_OTA_ReportVersion(void *handle, const char *version)
 484:C:/Users/stapi/OneDrive/Desktop/GD32VW553/V1_MQTT_OK/GD32VW55X_Wifi_BLE_SDK/GD32VW55x_RELEASE_V1.0.2/MSDK/cloud/alicloud/src/services/ota\iotx_ota.c **** {
 2205              		.loc 2 484 1 is_stmt 1
 2206              		.cfi_startproc
 2207              	.LVL246:
 2208 0000 17030000 		call	t0,__riscv_save_3
 2208      E7020300 
 2209              		.cfi_offset 18, -16
 2210              		.cfi_offset 9, -12
 2211              		.cfi_offset 8, -8
 2212              		.cfi_offset 1, -4
 2213              		.cfi_def_cfa_offset 16
 485:C:/Users/stapi/OneDrive/Desktop/GD32VW553/V1_MQTT_OK/GD32VW55X_Wifi_BLE_SDK/GD32VW55x_RELEASE_V1.0.2/MSDK/cloud/alicloud/src/services/ota\iotx_ota.c **** #define MSG_INFORM_LEN  (128)
 486:C:/Users/stapi/OneDrive/Desktop/GD32VW553/V1_MQTT_OK/GD32VW55X_Wifi_BLE_SDK/GD32VW55x_RELEASE_V1.0.2/MSDK/cloud/alicloud/src/services/ota\iotx_ota.c **** 
 487:C:/Users/stapi/OneDrive/Desktop/GD32VW553/V1_MQTT_OK/GD32VW55X_Wifi_BLE_SDK/GD32VW55x_RELEASE_V1.0.2/MSDK/cloud/alicloud/src/services/ota\iotx_ota.c ****     int ret, len;
 2214              		.loc 2 487 5
 488:C:/Users/stapi/OneDrive/Desktop/GD32VW553/V1_MQTT_OK/GD32VW55X_Wifi_BLE_SDK/GD32VW55x_RELEASE_V1.0.2/MSDK/cloud/alicloud/src/services/ota\iotx_ota.c ****     char *msg_informed;
 2215              		.loc 2 488 5
 489:C:/Users/stapi/OneDrive/Desktop/GD32VW553/V1_MQTT_OK/GD32VW55X_Wifi_BLE_SDK/GD32VW55x_RELEASE_V1.0.2/MSDK/cloud/alicloud/src/services/ota\iotx_ota.c ****     OTA_Struct_pt h_ota = (OTA_Struct_pt) handle;
 2216              		.loc 2 489 5
 2217              	.LVL247:
 490:C:/Users/stapi/OneDrive/Desktop/GD32VW553/V1_MQTT_OK/GD32VW55X_Wifi_BLE_SDK/GD32VW55x_RELEASE_V1.0.2/MSDK/cloud/alicloud/src/services/ota\iotx_ota.c **** 
 491:C:/Users/stapi/OneDrive/Desktop/GD32VW553/V1_MQTT_OK/GD32VW55X_Wifi_BLE_SDK/GD32VW55x_RELEASE_V1.0.2/MSDK/cloud/alicloud/src/services/ota\iotx_ota.c ****     if ((NULL == h_ota) || (NULL == version)) {
 2218              		.loc 2 491 5
 2219              		.loc 2 491 8 is_stmt 0
 2220 0008 19C1     		beq	a0,zero,.L241
 2221 000a 2E84     		mv	s0,a1
 2222              		.loc 2 491 25 discriminator 1
 2223 000c 9DED     		bne	a1,zero,.L242
 2224              	.L241:
 492:C:/Users/stapi/OneDrive/Desktop/GD32VW553/V1_MQTT_OK/GD32VW55X_Wifi_BLE_SDK/GD32VW55x_RELEASE_V1.0.2/MSDK/cloud/alicloud/src/services/ota\iotx_ota.c ****         OTA_LOG_ERROR("one or more invalid parameter");
 2225              		.loc 2 492 9 is_stmt 1
 2226              		.loc 2 492 9
 2227 000e 37050000 		lui	a0,%hi(.LC21)
 2228              	.LVL248:
 2229 0012 13050500 		addi	a0,a0,%lo(.LC21)
 2230 0016 97000000 		call	HAL_Printf
 2230      E7800000 
 2231              	.LVL249:
 2232              		.loc 2 492 9
 2233 001e 37050000 		lui	a0,%hi(.LC59)
 2234 0022 13050500 		addi	a0,a0,%lo(.LC59)
 2235 0026 97000000 		call	HAL_Printf
 2235      E7800000 
 2236              	.LVL250:
 2237              		.loc 2 492 9
 2238 002e 37050000 		lui	a0,%hi(.LC11)
 2239 0032 13050500 		addi	a0,a0,%lo(.LC11)
 2240 0036 97000000 		call	HAL_Printf
 2240      E7800000 
 2241              	.LVL251:
 2242              		.loc 2 492 9
 493:C:/Users/stapi/OneDrive/Desktop/GD32VW553/V1_MQTT_OK/GD32VW55X_Wifi_BLE_SDK/GD32VW55x_RELEASE_V1.0.2/MSDK/cloud/alicloud/src/services/ota\iotx_ota.c ****         return IOT_OTAE_INVALID_PARAM;
 2243              		.loc 2 493 9
 2244              		.loc 2 493 16 is_stmt 0
 2245 003e 7954     		li	s0,-2
 2246              	.L240:
 494:C:/Users/stapi/OneDrive/Desktop/GD32VW553/V1_MQTT_OK/GD32VW55X_Wifi_BLE_SDK/GD32VW55x_RELEASE_V1.0.2/MSDK/cloud/alicloud/src/services/ota\iotx_ota.c ****     }
 495:C:/Users/stapi/OneDrive/Desktop/GD32VW553/V1_MQTT_OK/GD32VW55X_Wifi_BLE_SDK/GD32VW55x_RELEASE_V1.0.2/MSDK/cloud/alicloud/src/services/ota\iotx_ota.c **** 
 496:C:/Users/stapi/OneDrive/Desktop/GD32VW553/V1_MQTT_OK/GD32VW55X_Wifi_BLE_SDK/GD32VW55x_RELEASE_V1.0.2/MSDK/cloud/alicloud/src/services/ota\iotx_ota.c ****     len = strlen(version);
 497:C:/Users/stapi/OneDrive/Desktop/GD32VW553/V1_MQTT_OK/GD32VW55X_Wifi_BLE_SDK/GD32VW55x_RELEASE_V1.0.2/MSDK/cloud/alicloud/src/services/ota\iotx_ota.c ****     if ((len < OTA_VERSION_STR_LEN_MIN) || (len > OTA_VERSION_STR_LEN_MAX)) {
 498:C:/Users/stapi/OneDrive/Desktop/GD32VW553/V1_MQTT_OK/GD32VW55X_Wifi_BLE_SDK/GD32VW55x_RELEASE_V1.0.2/MSDK/cloud/alicloud/src/services/ota\iotx_ota.c ****         OTA_LOG_ERROR("version string is invalid: must be [1, 32] chars");
 499:C:/Users/stapi/OneDrive/Desktop/GD32VW553/V1_MQTT_OK/GD32VW55X_Wifi_BLE_SDK/GD32VW55x_RELEASE_V1.0.2/MSDK/cloud/alicloud/src/services/ota\iotx_ota.c ****         h_ota->err = IOT_OTAE_INVALID_PARAM;
 500:C:/Users/stapi/OneDrive/Desktop/GD32VW553/V1_MQTT_OK/GD32VW55X_Wifi_BLE_SDK/GD32VW55x_RELEASE_V1.0.2/MSDK/cloud/alicloud/src/services/ota\iotx_ota.c ****         return -1;
 501:C:/Users/stapi/OneDrive/Desktop/GD32VW553/V1_MQTT_OK/GD32VW55X_Wifi_BLE_SDK/GD32VW55x_RELEASE_V1.0.2/MSDK/cloud/alicloud/src/services/ota\iotx_ota.c ****     }
 502:C:/Users/stapi/OneDrive/Desktop/GD32VW553/V1_MQTT_OK/GD32VW55X_Wifi_BLE_SDK/GD32VW55x_RELEASE_V1.0.2/MSDK/cloud/alicloud/src/services/ota\iotx_ota.c **** 
 503:C:/Users/stapi/OneDrive/Desktop/GD32VW553/V1_MQTT_OK/GD32VW55X_Wifi_BLE_SDK/GD32VW55x_RELEASE_V1.0.2/MSDK/cloud/alicloud/src/services/ota\iotx_ota.c ****     if (IOT_OTAS_UNINITED == h_ota->state) {
 504:C:/Users/stapi/OneDrive/Desktop/GD32VW553/V1_MQTT_OK/GD32VW55X_Wifi_BLE_SDK/GD32VW55x_RELEASE_V1.0.2/MSDK/cloud/alicloud/src/services/ota\iotx_ota.c ****         OTA_LOG_ERROR("handle is uninitialized");
 505:C:/Users/stapi/OneDrive/Desktop/GD32VW553/V1_MQTT_OK/GD32VW55X_Wifi_BLE_SDK/GD32VW55x_RELEASE_V1.0.2/MSDK/cloud/alicloud/src/services/ota\iotx_ota.c ****         h_ota->err = IOT_OTAE_INVALID_STATE;
 506:C:/Users/stapi/OneDrive/Desktop/GD32VW553/V1_MQTT_OK/GD32VW55X_Wifi_BLE_SDK/GD32VW55x_RELEASE_V1.0.2/MSDK/cloud/alicloud/src/services/ota\iotx_ota.c ****         return -1;
 507:C:/Users/stapi/OneDrive/Desktop/GD32VW553/V1_MQTT_OK/GD32VW55X_Wifi_BLE_SDK/GD32VW55x_RELEASE_V1.0.2/MSDK/cloud/alicloud/src/services/ota\iotx_ota.c ****     }
 508:C:/Users/stapi/OneDrive/Desktop/GD32VW553/V1_MQTT_OK/GD32VW55X_Wifi_BLE_SDK/GD32VW55x_RELEASE_V1.0.2/MSDK/cloud/alicloud/src/services/ota\iotx_ota.c **** 
 509:C:/Users/stapi/OneDrive/Desktop/GD32VW553/V1_MQTT_OK/GD32VW55X_Wifi_BLE_SDK/GD32VW55x_RELEASE_V1.0.2/MSDK/cloud/alicloud/src/services/ota\iotx_ota.c ****     if (NULL == (msg_informed = OTA_MALLOC(MSG_INFORM_LEN))) {
 510:C:/Users/stapi/OneDrive/Desktop/GD32VW553/V1_MQTT_OK/GD32VW55X_Wifi_BLE_SDK/GD32VW55x_RELEASE_V1.0.2/MSDK/cloud/alicloud/src/services/ota\iotx_ota.c ****         OTA_LOG_ERROR("allocate for msg_informed failed");
 511:C:/Users/stapi/OneDrive/Desktop/GD32VW553/V1_MQTT_OK/GD32VW55X_Wifi_BLE_SDK/GD32VW55x_RELEASE_V1.0.2/MSDK/cloud/alicloud/src/services/ota\iotx_ota.c ****         h_ota->err = IOT_OTAE_NOMEM;
 512:C:/Users/stapi/OneDrive/Desktop/GD32VW553/V1_MQTT_OK/GD32VW55X_Wifi_BLE_SDK/GD32VW55x_RELEASE_V1.0.2/MSDK/cloud/alicloud/src/services/ota\iotx_ota.c ****         return -1;
 513:C:/Users/stapi/OneDrive/Desktop/GD32VW553/V1_MQTT_OK/GD32VW55X_Wifi_BLE_SDK/GD32VW55x_RELEASE_V1.0.2/MSDK/cloud/alicloud/src/services/ota\iotx_ota.c ****     }
 514:C:/Users/stapi/OneDrive/Desktop/GD32VW553/V1_MQTT_OK/GD32VW55X_Wifi_BLE_SDK/GD32VW55x_RELEASE_V1.0.2/MSDK/cloud/alicloud/src/services/ota\iotx_ota.c **** 
 515:C:/Users/stapi/OneDrive/Desktop/GD32VW553/V1_MQTT_OK/GD32VW55X_Wifi_BLE_SDK/GD32VW55x_RELEASE_V1.0.2/MSDK/cloud/alicloud/src/services/ota\iotx_ota.c ****     ret = otalib_GenInfoMsg(msg_informed, MSG_INFORM_LEN, h_ota->id, version);
 516:C:/Users/stapi/OneDrive/Desktop/GD32VW553/V1_MQTT_OK/GD32VW55X_Wifi_BLE_SDK/GD32VW55x_RELEASE_V1.0.2/MSDK/cloud/alicloud/src/services/ota\iotx_ota.c ****     if (ret != 0) {
 517:C:/Users/stapi/OneDrive/Desktop/GD32VW553/V1_MQTT_OK/GD32VW55X_Wifi_BLE_SDK/GD32VW55x_RELEASE_V1.0.2/MSDK/cloud/alicloud/src/services/ota\iotx_ota.c ****         OTA_LOG_ERROR("generate inform message failed");
 518:C:/Users/stapi/OneDrive/Desktop/GD32VW553/V1_MQTT_OK/GD32VW55X_Wifi_BLE_SDK/GD32VW55x_RELEASE_V1.0.2/MSDK/cloud/alicloud/src/services/ota\iotx_ota.c ****         h_ota->err = ret;
 519:C:/Users/stapi/OneDrive/Desktop/GD32VW553/V1_MQTT_OK/GD32VW55X_Wifi_BLE_SDK/GD32VW55x_RELEASE_V1.0.2/MSDK/cloud/alicloud/src/services/ota\iotx_ota.c ****         ret = -1;
 520:C:/Users/stapi/OneDrive/Desktop/GD32VW553/V1_MQTT_OK/GD32VW55X_Wifi_BLE_SDK/GD32VW55x_RELEASE_V1.0.2/MSDK/cloud/alicloud/src/services/ota\iotx_ota.c ****         goto do_exit;
 521:C:/Users/stapi/OneDrive/Desktop/GD32VW553/V1_MQTT_OK/GD32VW55X_Wifi_BLE_SDK/GD32VW55x_RELEASE_V1.0.2/MSDK/cloud/alicloud/src/services/ota\iotx_ota.c ****     }
 522:C:/Users/stapi/OneDrive/Desktop/GD32VW553/V1_MQTT_OK/GD32VW55X_Wifi_BLE_SDK/GD32VW55x_RELEASE_V1.0.2/MSDK/cloud/alicloud/src/services/ota\iotx_ota.c **** 
 523:C:/Users/stapi/OneDrive/Desktop/GD32VW553/V1_MQTT_OK/GD32VW55X_Wifi_BLE_SDK/GD32VW55x_RELEASE_V1.0.2/MSDK/cloud/alicloud/src/services/ota\iotx_ota.c ****     ret = osc_ReportVersion(h_ota->ch_signal, msg_informed);
 524:C:/Users/stapi/OneDrive/Desktop/GD32VW553/V1_MQTT_OK/GD32VW55X_Wifi_BLE_SDK/GD32VW55x_RELEASE_V1.0.2/MSDK/cloud/alicloud/src/services/ota\iotx_ota.c ****     if (0 != ret) {
 525:C:/Users/stapi/OneDrive/Desktop/GD32VW553/V1_MQTT_OK/GD32VW55X_Wifi_BLE_SDK/GD32VW55x_RELEASE_V1.0.2/MSDK/cloud/alicloud/src/services/ota\iotx_ota.c ****         OTA_LOG_ERROR("Report version failed");
 526:C:/Users/stapi/OneDrive/Desktop/GD32VW553/V1_MQTT_OK/GD32VW55X_Wifi_BLE_SDK/GD32VW55x_RELEASE_V1.0.2/MSDK/cloud/alicloud/src/services/ota\iotx_ota.c ****         h_ota->err = ret;
 527:C:/Users/stapi/OneDrive/Desktop/GD32VW553/V1_MQTT_OK/GD32VW55X_Wifi_BLE_SDK/GD32VW55x_RELEASE_V1.0.2/MSDK/cloud/alicloud/src/services/ota\iotx_ota.c ****         ret = -1;
 528:C:/Users/stapi/OneDrive/Desktop/GD32VW553/V1_MQTT_OK/GD32VW55X_Wifi_BLE_SDK/GD32VW55x_RELEASE_V1.0.2/MSDK/cloud/alicloud/src/services/ota\iotx_ota.c ****         goto do_exit;
 529:C:/Users/stapi/OneDrive/Desktop/GD32VW553/V1_MQTT_OK/GD32VW55X_Wifi_BLE_SDK/GD32VW55x_RELEASE_V1.0.2/MSDK/cloud/alicloud/src/services/ota\iotx_ota.c ****     }
 530:C:/Users/stapi/OneDrive/Desktop/GD32VW553/V1_MQTT_OK/GD32VW55X_Wifi_BLE_SDK/GD32VW55x_RELEASE_V1.0.2/MSDK/cloud/alicloud/src/services/ota\iotx_ota.c ****     ret = 0;
 531:C:/Users/stapi/OneDrive/Desktop/GD32VW553/V1_MQTT_OK/GD32VW55X_Wifi_BLE_SDK/GD32VW55x_RELEASE_V1.0.2/MSDK/cloud/alicloud/src/services/ota\iotx_ota.c **** 
 532:C:/Users/stapi/OneDrive/Desktop/GD32VW553/V1_MQTT_OK/GD32VW55X_Wifi_BLE_SDK/GD32VW55x_RELEASE_V1.0.2/MSDK/cloud/alicloud/src/services/ota\iotx_ota.c **** do_exit:
 533:C:/Users/stapi/OneDrive/Desktop/GD32VW553/V1_MQTT_OK/GD32VW55X_Wifi_BLE_SDK/GD32VW55x_RELEASE_V1.0.2/MSDK/cloud/alicloud/src/services/ota\iotx_ota.c ****     if (NULL != msg_informed) {
 534:C:/Users/stapi/OneDrive/Desktop/GD32VW553/V1_MQTT_OK/GD32VW55X_Wifi_BLE_SDK/GD32VW55x_RELEASE_V1.0.2/MSDK/cloud/alicloud/src/services/ota\iotx_ota.c ****         OTA_FREE(msg_informed);
 535:C:/Users/stapi/OneDrive/Desktop/GD32VW553/V1_MQTT_OK/GD32VW55X_Wifi_BLE_SDK/GD32VW55x_RELEASE_V1.0.2/MSDK/cloud/alicloud/src/services/ota\iotx_ota.c ****     }
 536:C:/Users/stapi/OneDrive/Desktop/GD32VW553/V1_MQTT_OK/GD32VW55X_Wifi_BLE_SDK/GD32VW55x_RELEASE_V1.0.2/MSDK/cloud/alicloud/src/services/ota\iotx_ota.c ****     return ret;
 537:C:/Users/stapi/OneDrive/Desktop/GD32VW553/V1_MQTT_OK/GD32VW55X_Wifi_BLE_SDK/GD32VW55x_RELEASE_V1.0.2/MSDK/cloud/alicloud/src/services/ota\iotx_ota.c **** 
 538:C:/Users/stapi/OneDrive/Desktop/GD32VW553/V1_MQTT_OK/GD32VW55X_Wifi_BLE_SDK/GD32VW55x_RELEASE_V1.0.2/MSDK/cloud/alicloud/src/services/ota\iotx_ota.c **** #undef MSG_INFORM_LEN
 539:C:/Users/stapi/OneDrive/Desktop/GD32VW553/V1_MQTT_OK/GD32VW55X_Wifi_BLE_SDK/GD32VW55x_RELEASE_V1.0.2/MSDK/cloud/alicloud/src/services/ota\iotx_ota.c **** }
 2247              		.loc 2 539 1
 2248 0040 2285     		mv	a0,s0
 2249 0042 17030000 		tail	__riscv_restore_3
 2249      67000300 
 2250              		.cfi_remember_state
 2251              		.cfi_restore 18
 2252              		.cfi_restore 9
 2253              		.cfi_restore 8
 2254              		.cfi_restore 1
 2255              		.cfi_def_cfa_offset 0
 2256              	.LVL252:
 2257              	.L242:
 2258              		.cfi_restore_state
 2259 004a AA84     		mv	s1,a0
 496:C:/Users/stapi/OneDrive/Desktop/GD32VW553/V1_MQTT_OK/GD32VW55X_Wifi_BLE_SDK/GD32VW55x_RELEASE_V1.0.2/MSDK/cloud/alicloud/src/services/ota\iotx_ota.c ****     if ((len < OTA_VERSION_STR_LEN_MIN) || (len > OTA_VERSION_STR_LEN_MAX)) {
 2260              		.loc 2 496 5 is_stmt 1
 496:C:/Users/stapi/OneDrive/Desktop/GD32VW553/V1_MQTT_OK/GD32VW55X_Wifi_BLE_SDK/GD32VW55x_RELEASE_V1.0.2/MSDK/cloud/alicloud/src/services/ota\iotx_ota.c ****     if ((len < OTA_VERSION_STR_LEN_MIN) || (len > OTA_VERSION_STR_LEN_MAX)) {
 2261              		.loc 2 496 11 is_stmt 0
 2262 004c 2E85     		mv	a0,a1
 2263              	.LVL253:
 2264 004e 97000000 		call	strlen
 2264      E7800000 
 2265              	.LVL254:
 497:C:/Users/stapi/OneDrive/Desktop/GD32VW553/V1_MQTT_OK/GD32VW55X_Wifi_BLE_SDK/GD32VW55x_RELEASE_V1.0.2/MSDK/cloud/alicloud/src/services/ota\iotx_ota.c ****         OTA_LOG_ERROR("version string is invalid: must be [1, 32] chars");
 2266              		.loc 2 497 5 is_stmt 1
 497:C:/Users/stapi/OneDrive/Desktop/GD32VW553/V1_MQTT_OK/GD32VW55X_Wifi_BLE_SDK/GD32VW55x_RELEASE_V1.0.2/MSDK/cloud/alicloud/src/services/ota\iotx_ota.c ****         OTA_LOG_ERROR("version string is invalid: must be [1, 32] chars");
 2267              		.loc 2 497 41 is_stmt 0
 2268 0056 7D15     		addi	a0,a0,-1
 2269              	.LVL255:
 497:C:/Users/stapi/OneDrive/Desktop/GD32VW553/V1_MQTT_OK/GD32VW55X_Wifi_BLE_SDK/GD32VW55x_RELEASE_V1.0.2/MSDK/cloud/alicloud/src/services/ota\iotx_ota.c ****         OTA_LOG_ERROR("version string is invalid: must be [1, 32] chars");
 2270              		.loc 2 497 8
 2271 0058 FD47     		li	a5,31
 2272 005a 63FEA702 		bleu	a0,a5,.L244
 498:C:/Users/stapi/OneDrive/Desktop/GD32VW553/V1_MQTT_OK/GD32VW55X_Wifi_BLE_SDK/GD32VW55x_RELEASE_V1.0.2/MSDK/cloud/alicloud/src/services/ota\iotx_ota.c ****         h_ota->err = IOT_OTAE_INVALID_PARAM;
 2273              		.loc 2 498 9 is_stmt 1
 498:C:/Users/stapi/OneDrive/Desktop/GD32VW553/V1_MQTT_OK/GD32VW55X_Wifi_BLE_SDK/GD32VW55x_RELEASE_V1.0.2/MSDK/cloud/alicloud/src/services/ota\iotx_ota.c ****         h_ota->err = IOT_OTAE_INVALID_PARAM;
 2274              		.loc 2 498 9
 2275 005e 37050000 		lui	a0,%hi(.LC21)
 2276              	.LVL256:
 2277 0062 13050500 		addi	a0,a0,%lo(.LC21)
 2278 0066 97000000 		call	HAL_Printf
 2278      E7800000 
 2279              	.LVL257:
 498:C:/Users/stapi/OneDrive/Desktop/GD32VW553/V1_MQTT_OK/GD32VW55X_Wifi_BLE_SDK/GD32VW55x_RELEASE_V1.0.2/MSDK/cloud/alicloud/src/services/ota\iotx_ota.c ****         h_ota->err = IOT_OTAE_INVALID_PARAM;
 2280              		.loc 2 498 9
 2281 006e 37050000 		lui	a0,%hi(.LC60)
 2282 0072 13050500 		addi	a0,a0,%lo(.LC60)
 2283 0076 97000000 		call	HAL_Printf
 2283      E7800000 
 2284              	.LVL258:
 498:C:/Users/stapi/OneDrive/Desktop/GD32VW553/V1_MQTT_OK/GD32VW55X_Wifi_BLE_SDK/GD32VW55x_RELEASE_V1.0.2/MSDK/cloud/alicloud/src/services/ota\iotx_ota.c ****         h_ota->err = IOT_OTAE_INVALID_PARAM;
 2285              		.loc 2 498 9
 2286 007e 37050000 		lui	a0,%hi(.LC11)
 2287 0082 13050500 		addi	a0,a0,%lo(.LC11)
 2288 0086 97000000 		call	HAL_Printf
 2288      E7800000 
 2289              	.LVL259:
 498:C:/Users/stapi/OneDrive/Desktop/GD32VW553/V1_MQTT_OK/GD32VW55X_Wifi_BLE_SDK/GD32VW55x_RELEASE_V1.0.2/MSDK/cloud/alicloud/src/services/ota\iotx_ota.c ****         h_ota->err = IOT_OTAE_INVALID_PARAM;
 2290              		.loc 2 498 9
 499:C:/Users/stapi/OneDrive/Desktop/GD32VW553/V1_MQTT_OK/GD32VW55X_Wifi_BLE_SDK/GD32VW55x_RELEASE_V1.0.2/MSDK/cloud/alicloud/src/services/ota\iotx_ota.c ****         return -1;
 2291              		.loc 2 499 9
 499:C:/Users/stapi/OneDrive/Desktop/GD32VW553/V1_MQTT_OK/GD32VW55X_Wifi_BLE_SDK/GD32VW55x_RELEASE_V1.0.2/MSDK/cloud/alicloud/src/services/ota\iotx_ota.c ****         return -1;
 2292              		.loc 2 499 20 is_stmt 0
 2293 008e F957     		li	a5,-2
 2294              	.L257:
 511:C:/Users/stapi/OneDrive/Desktop/GD32VW553/V1_MQTT_OK/GD32VW55X_Wifi_BLE_SDK/GD32VW55x_RELEASE_V1.0.2/MSDK/cloud/alicloud/src/services/ota\iotx_ota.c ****         return -1;
 2295              		.loc 2 511 20
 2296 0090 FCD8     		sw	a5,116(s1)
 512:C:/Users/stapi/OneDrive/Desktop/GD32VW553/V1_MQTT_OK/GD32VW55X_Wifi_BLE_SDK/GD32VW55x_RELEASE_V1.0.2/MSDK/cloud/alicloud/src/services/ota\iotx_ota.c ****     }
 2297              		.loc 2 512 9 is_stmt 1
 512:C:/Users/stapi/OneDrive/Desktop/GD32VW553/V1_MQTT_OK/GD32VW55X_Wifi_BLE_SDK/GD32VW55x_RELEASE_V1.0.2/MSDK/cloud/alicloud/src/services/ota\iotx_ota.c ****     }
 2298              		.loc 2 512 16 is_stmt 0
 2299 0092 7D54     		li	s0,-1
 2300              	.LVL260:
 2301 0094 75B7     		j	.L240
 2302              	.LVL261:
 2303              	.L244:
 503:C:/Users/stapi/OneDrive/Desktop/GD32VW553/V1_MQTT_OK/GD32VW55X_Wifi_BLE_SDK/GD32VW55x_RELEASE_V1.0.2/MSDK/cloud/alicloud/src/services/ota\iotx_ota.c ****         OTA_LOG_ERROR("handle is uninitialized");
 2304              		.loc 2 503 5 is_stmt 1
 503:C:/Users/stapi/OneDrive/Desktop/GD32VW553/V1_MQTT_OK/GD32VW55X_Wifi_BLE_SDK/GD32VW55x_RELEASE_V1.0.2/MSDK/cloud/alicloud/src/services/ota\iotx_ota.c ****         OTA_LOG_ERROR("handle is uninitialized");
 2305              		.loc 2 503 8 is_stmt 0
 2306 0096 DC44     		lw	a5,12(s1)
 2307 0098 9DEB     		bne	a5,zero,.L245
 504:C:/Users/stapi/OneDrive/Desktop/GD32VW553/V1_MQTT_OK/GD32VW55X_Wifi_BLE_SDK/GD32VW55x_RELEASE_V1.0.2/MSDK/cloud/alicloud/src/services/ota\iotx_ota.c ****         h_ota->err = IOT_OTAE_INVALID_STATE;
 2308              		.loc 2 504 9 is_stmt 1
 504:C:/Users/stapi/OneDrive/Desktop/GD32VW553/V1_MQTT_OK/GD32VW55X_Wifi_BLE_SDK/GD32VW55x_RELEASE_V1.0.2/MSDK/cloud/alicloud/src/services/ota\iotx_ota.c ****         h_ota->err = IOT_OTAE_INVALID_STATE;
 2309              		.loc 2 504 9
 2310 009a 37050000 		lui	a0,%hi(.LC21)
 2311              	.LVL262:
 2312 009e 13050500 		addi	a0,a0,%lo(.LC21)
 2313 00a2 97000000 		call	HAL_Printf
 2313      E7800000 
 2314              	.LVL263:
 504:C:/Users/stapi/OneDrive/Desktop/GD32VW553/V1_MQTT_OK/GD32VW55X_Wifi_BLE_SDK/GD32VW55x_RELEASE_V1.0.2/MSDK/cloud/alicloud/src/services/ota\iotx_ota.c ****         h_ota->err = IOT_OTAE_INVALID_STATE;
 2315              		.loc 2 504 9
 2316 00aa 37050000 		lui	a0,%hi(.LC58)
 2317 00ae 13050500 		addi	a0,a0,%lo(.LC58)
 2318 00b2 97000000 		call	HAL_Printf
 2318      E7800000 
 2319              	.LVL264:
 504:C:/Users/stapi/OneDrive/Desktop/GD32VW553/V1_MQTT_OK/GD32VW55X_Wifi_BLE_SDK/GD32VW55x_RELEASE_V1.0.2/MSDK/cloud/alicloud/src/services/ota\iotx_ota.c ****         h_ota->err = IOT_OTAE_INVALID_STATE;
 2320              		.loc 2 504 9
 2321 00ba 37050000 		lui	a0,%hi(.LC11)
 2322 00be 13050500 		addi	a0,a0,%lo(.LC11)
 2323 00c2 97000000 		call	HAL_Printf
 2323      E7800000 
 2324              	.LVL265:
 504:C:/Users/stapi/OneDrive/Desktop/GD32VW553/V1_MQTT_OK/GD32VW55X_Wifi_BLE_SDK/GD32VW55x_RELEASE_V1.0.2/MSDK/cloud/alicloud/src/services/ota\iotx_ota.c ****         h_ota->err = IOT_OTAE_INVALID_STATE;
 2325              		.loc 2 504 9
 505:C:/Users/stapi/OneDrive/Desktop/GD32VW553/V1_MQTT_OK/GD32VW55X_Wifi_BLE_SDK/GD32VW55x_RELEASE_V1.0.2/MSDK/cloud/alicloud/src/services/ota\iotx_ota.c ****         return -1;
 2326              		.loc 2 505 9
 505:C:/Users/stapi/OneDrive/Desktop/GD32VW553/V1_MQTT_OK/GD32VW55X_Wifi_BLE_SDK/GD32VW55x_RELEASE_V1.0.2/MSDK/cloud/alicloud/src/services/ota\iotx_ota.c ****         return -1;
 2327              		.loc 2 505 20 is_stmt 0
 2328 00ca F557     		li	a5,-3
 2329 00cc D1B7     		j	.L257
 2330              	.LVL266:
 2331              	.L245:
 509:C:/Users/stapi/OneDrive/Desktop/GD32VW553/V1_MQTT_OK/GD32VW55X_Wifi_BLE_SDK/GD32VW55x_RELEASE_V1.0.2/MSDK/cloud/alicloud/src/services/ota\iotx_ota.c ****         OTA_LOG_ERROR("allocate for msg_informed failed");
 2332              		.loc 2 509 5 is_stmt 1
 509:C:/Users/stapi/OneDrive/Desktop/GD32VW553/V1_MQTT_OK/GD32VW55X_Wifi_BLE_SDK/GD32VW55x_RELEASE_V1.0.2/MSDK/cloud/alicloud/src/services/ota\iotx_ota.c ****         OTA_LOG_ERROR("allocate for msg_informed failed");
 2333              		.loc 2 509 33 is_stmt 0
 2334 00ce 13060008 		li	a2,128
 2335 00d2 8145     		li	a1,0
 2336 00d4 0145     		li	a0,0
 2337              	.LVL267:
 2338 00d6 97000000 		call	LITE_malloc_internal
 2338      E7800000 
 2339              	.LVL268:
 2340 00de 2A89     		mv	s2,a0
 2341              	.LVL269:
 509:C:/Users/stapi/OneDrive/Desktop/GD32VW553/V1_MQTT_OK/GD32VW55X_Wifi_BLE_SDK/GD32VW55x_RELEASE_V1.0.2/MSDK/cloud/alicloud/src/services/ota\iotx_ota.c ****         OTA_LOG_ERROR("allocate for msg_informed failed");
 2342              		.loc 2 509 8
 2343 00e0 1DE9     		bne	a0,zero,.L246
 510:C:/Users/stapi/OneDrive/Desktop/GD32VW553/V1_MQTT_OK/GD32VW55X_Wifi_BLE_SDK/GD32VW55x_RELEASE_V1.0.2/MSDK/cloud/alicloud/src/services/ota\iotx_ota.c ****         h_ota->err = IOT_OTAE_NOMEM;
 2344              		.loc 2 510 9 is_stmt 1
 510:C:/Users/stapi/OneDrive/Desktop/GD32VW553/V1_MQTT_OK/GD32VW55X_Wifi_BLE_SDK/GD32VW55x_RELEASE_V1.0.2/MSDK/cloud/alicloud/src/services/ota\iotx_ota.c ****         h_ota->err = IOT_OTAE_NOMEM;
 2345              		.loc 2 510 9
 2346 00e2 37050000 		lui	a0,%hi(.LC21)
 2347              	.LVL270:
 2348 00e6 13050500 		addi	a0,a0,%lo(.LC21)
 2349 00ea 97000000 		call	HAL_Printf
 2349      E7800000 
 2350              	.LVL271:
 510:C:/Users/stapi/OneDrive/Desktop/GD32VW553/V1_MQTT_OK/GD32VW55X_Wifi_BLE_SDK/GD32VW55x_RELEASE_V1.0.2/MSDK/cloud/alicloud/src/services/ota\iotx_ota.c ****         h_ota->err = IOT_OTAE_NOMEM;
 2351              		.loc 2 510 9
 2352 00f2 37050000 		lui	a0,%hi(.LC61)
 2353 00f6 13050500 		addi	a0,a0,%lo(.LC61)
 2354 00fa 97000000 		call	HAL_Printf
 2354      E7800000 
 2355              	.LVL272:
 510:C:/Users/stapi/OneDrive/Desktop/GD32VW553/V1_MQTT_OK/GD32VW55X_Wifi_BLE_SDK/GD32VW55x_RELEASE_V1.0.2/MSDK/cloud/alicloud/src/services/ota\iotx_ota.c ****         h_ota->err = IOT_OTAE_NOMEM;
 2356              		.loc 2 510 9
 2357 0102 37050000 		lui	a0,%hi(.LC11)
 2358 0106 13050500 		addi	a0,a0,%lo(.LC11)
 2359 010a 97000000 		call	HAL_Printf
 2359      E7800000 
 2360              	.LVL273:
 510:C:/Users/stapi/OneDrive/Desktop/GD32VW553/V1_MQTT_OK/GD32VW55X_Wifi_BLE_SDK/GD32VW55x_RELEASE_V1.0.2/MSDK/cloud/alicloud/src/services/ota\iotx_ota.c ****         h_ota->err = IOT_OTAE_NOMEM;
 2361              		.loc 2 510 9
 511:C:/Users/stapi/OneDrive/Desktop/GD32VW553/V1_MQTT_OK/GD32VW55X_Wifi_BLE_SDK/GD32VW55x_RELEASE_V1.0.2/MSDK/cloud/alicloud/src/services/ota\iotx_ota.c ****         return -1;
 2362              		.loc 2 511 9
 511:C:/Users/stapi/OneDrive/Desktop/GD32VW553/V1_MQTT_OK/GD32VW55X_Wifi_BLE_SDK/GD32VW55x_RELEASE_V1.0.2/MSDK/cloud/alicloud/src/services/ota\iotx_ota.c ****         return -1;
 2363              		.loc 2 511 20 is_stmt 0
 2364 0112 E957     		li	a5,-6
 2365 0114 B5BF     		j	.L257
 2366              	.LVL274:
 2367              	.L246:
 515:C:/Users/stapi/OneDrive/Desktop/GD32VW553/V1_MQTT_OK/GD32VW55X_Wifi_BLE_SDK/GD32VW55x_RELEASE_V1.0.2/MSDK/cloud/alicloud/src/services/ota\iotx_ota.c ****     if (ret != 0) {
 2368              		.loc 2 515 5 is_stmt 1
 515:C:/Users/stapi/OneDrive/Desktop/GD32VW553/V1_MQTT_OK/GD32VW55X_Wifi_BLE_SDK/GD32VW55x_RELEASE_V1.0.2/MSDK/cloud/alicloud/src/services/ota\iotx_ota.c ****     if (ret != 0) {
 2369              		.loc 2 515 11 is_stmt 0
 2370 0116 9044     		lw	a2,8(s1)
 2371 0118 A286     		mv	a3,s0
 2372 011a 93050008 		li	a1,128
 2373 011e 97000000 		call	otalib_GenInfoMsg
 2373      E7800000 
 2374              	.LVL275:
 2375 0126 2A84     		mv	s0,a0
 2376              	.LVL276:
 516:C:/Users/stapi/OneDrive/Desktop/GD32VW553/V1_MQTT_OK/GD32VW55X_Wifi_BLE_SDK/GD32VW55x_RELEASE_V1.0.2/MSDK/cloud/alicloud/src/services/ota\iotx_ota.c ****         OTA_LOG_ERROR("generate inform message failed");
 2377              		.loc 2 516 5 is_stmt 1
 516:C:/Users/stapi/OneDrive/Desktop/GD32VW553/V1_MQTT_OK/GD32VW55X_Wifi_BLE_SDK/GD32VW55x_RELEASE_V1.0.2/MSDK/cloud/alicloud/src/services/ota\iotx_ota.c ****         OTA_LOG_ERROR("generate inform message failed");
 2378              		.loc 2 516 8 is_stmt 0
 2379 0128 29C1     		beq	a0,zero,.L247
 517:C:/Users/stapi/OneDrive/Desktop/GD32VW553/V1_MQTT_OK/GD32VW55X_Wifi_BLE_SDK/GD32VW55x_RELEASE_V1.0.2/MSDK/cloud/alicloud/src/services/ota\iotx_ota.c ****         h_ota->err = ret;
 2380              		.loc 2 517 9 is_stmt 1
 517:C:/Users/stapi/OneDrive/Desktop/GD32VW553/V1_MQTT_OK/GD32VW55X_Wifi_BLE_SDK/GD32VW55x_RELEASE_V1.0.2/MSDK/cloud/alicloud/src/services/ota\iotx_ota.c ****         h_ota->err = ret;
 2381              		.loc 2 517 9
 2382 012a 37050000 		lui	a0,%hi(.LC21)
 2383 012e 13050500 		addi	a0,a0,%lo(.LC21)
 2384 0132 97000000 		call	HAL_Printf
 2384      E7800000 
 2385              	.LVL277:
 517:C:/Users/stapi/OneDrive/Desktop/GD32VW553/V1_MQTT_OK/GD32VW55X_Wifi_BLE_SDK/GD32VW55x_RELEASE_V1.0.2/MSDK/cloud/alicloud/src/services/ota\iotx_ota.c ****         h_ota->err = ret;
 2386              		.loc 2 517 9
 2387 013a 37050000 		lui	a0,%hi(.LC62)
 2388 013e 13050500 		addi	a0,a0,%lo(.LC62)
 2389              	.L256:
 525:C:/Users/stapi/OneDrive/Desktop/GD32VW553/V1_MQTT_OK/GD32VW55X_Wifi_BLE_SDK/GD32VW55x_RELEASE_V1.0.2/MSDK/cloud/alicloud/src/services/ota\iotx_ota.c ****         h_ota->err = ret;
 2390              		.loc 2 525 9 is_stmt 0
 2391 0142 97000000 		call	HAL_Printf
 2391      E7800000 
 2392              	.LVL278:
 525:C:/Users/stapi/OneDrive/Desktop/GD32VW553/V1_MQTT_OK/GD32VW55X_Wifi_BLE_SDK/GD32VW55x_RELEASE_V1.0.2/MSDK/cloud/alicloud/src/services/ota\iotx_ota.c ****         h_ota->err = ret;
 2393              		.loc 2 525 9 is_stmt 1
 2394 014a 37050000 		lui	a0,%hi(.LC11)
 2395 014e 13050500 		addi	a0,a0,%lo(.LC11)
 2396 0152 97000000 		call	HAL_Printf
 2396      E7800000 
 2397              	.LVL279:
 525:C:/Users/stapi/OneDrive/Desktop/GD32VW553/V1_MQTT_OK/GD32VW55X_Wifi_BLE_SDK/GD32VW55x_RELEASE_V1.0.2/MSDK/cloud/alicloud/src/services/ota\iotx_ota.c ****         h_ota->err = ret;
 2398              		.loc 2 525 9
 526:C:/Users/stapi/OneDrive/Desktop/GD32VW553/V1_MQTT_OK/GD32VW55X_Wifi_BLE_SDK/GD32VW55x_RELEASE_V1.0.2/MSDK/cloud/alicloud/src/services/ota\iotx_ota.c ****         ret = -1;
 2399              		.loc 2 526 9
 526:C:/Users/stapi/OneDrive/Desktop/GD32VW553/V1_MQTT_OK/GD32VW55X_Wifi_BLE_SDK/GD32VW55x_RELEASE_V1.0.2/MSDK/cloud/alicloud/src/services/ota\iotx_ota.c ****         ret = -1;
 2400              		.loc 2 526 20 is_stmt 0
 2401 015a E0D8     		sw	s0,116(s1)
 527:C:/Users/stapi/OneDrive/Desktop/GD32VW553/V1_MQTT_OK/GD32VW55X_Wifi_BLE_SDK/GD32VW55x_RELEASE_V1.0.2/MSDK/cloud/alicloud/src/services/ota\iotx_ota.c ****         goto do_exit;
 2402              		.loc 2 527 9 is_stmt 1
 2403              	.LVL280:
 528:C:/Users/stapi/OneDrive/Desktop/GD32VW553/V1_MQTT_OK/GD32VW55X_Wifi_BLE_SDK/GD32VW55x_RELEASE_V1.0.2/MSDK/cloud/alicloud/src/services/ota\iotx_ota.c ****     }
 2404              		.loc 2 528 9
 527:C:/Users/stapi/OneDrive/Desktop/GD32VW553/V1_MQTT_OK/GD32VW55X_Wifi_BLE_SDK/GD32VW55x_RELEASE_V1.0.2/MSDK/cloud/alicloud/src/services/ota\iotx_ota.c ****         goto do_exit;
 2405              		.loc 2 527 13 is_stmt 0
 2406 015c 7D54     		li	s0,-1
 2407              	.LVL281:
 2408              	.L248:
 533:C:/Users/stapi/OneDrive/Desktop/GD32VW553/V1_MQTT_OK/GD32VW55X_Wifi_BLE_SDK/GD32VW55x_RELEASE_V1.0.2/MSDK/cloud/alicloud/src/services/ota\iotx_ota.c ****         OTA_FREE(msg_informed);
 2409              		.loc 2 533 5 is_stmt 1
 534:C:/Users/stapi/OneDrive/Desktop/GD32VW553/V1_MQTT_OK/GD32VW55X_Wifi_BLE_SDK/GD32VW55x_RELEASE_V1.0.2/MSDK/cloud/alicloud/src/services/ota\iotx_ota.c ****     }
 2410              		.loc 2 534 9
 2411 015e 4A85     		mv	a0,s2
 2412 0160 97000000 		call	LITE_free_internal
 2412      E7800000 
 2413              	.LVL282:
 536:C:/Users/stapi/OneDrive/Desktop/GD32VW553/V1_MQTT_OK/GD32VW55X_Wifi_BLE_SDK/GD32VW55x_RELEASE_V1.0.2/MSDK/cloud/alicloud/src/services/ota\iotx_ota.c **** 
 2414              		.loc 2 536 5
 536:C:/Users/stapi/OneDrive/Desktop/GD32VW553/V1_MQTT_OK/GD32VW55X_Wifi_BLE_SDK/GD32VW55x_RELEASE_V1.0.2/MSDK/cloud/alicloud/src/services/ota\iotx_ota.c **** 
 2415              		.loc 2 536 12 is_stmt 0
 2416 0168 E1BD     		j	.L240
 2417              	.L247:
 523:C:/Users/stapi/OneDrive/Desktop/GD32VW553/V1_MQTT_OK/GD32VW55X_Wifi_BLE_SDK/GD32VW55x_RELEASE_V1.0.2/MSDK/cloud/alicloud/src/services/ota\iotx_ota.c ****     if (0 != ret) {
 2418              		.loc 2 523 5 is_stmt 1
 523:C:/Users/stapi/OneDrive/Desktop/GD32VW553/V1_MQTT_OK/GD32VW55X_Wifi_BLE_SDK/GD32VW55x_RELEASE_V1.0.2/MSDK/cloud/alicloud/src/services/ota\iotx_ota.c ****     if (0 != ret) {
 2419              		.loc 2 523 11 is_stmt 0
 2420 016a E848     		lw	a0,84(s1)
 2421 016c CA85     		mv	a1,s2
 2422 016e 97000000 		call	osc_ReportVersion
 2422      E7800000 
 2423              	.LVL283:
 2424 0176 2A84     		mv	s0,a0
 2425              	.LVL284:
 524:C:/Users/stapi/OneDrive/Desktop/GD32VW553/V1_MQTT_OK/GD32VW55X_Wifi_BLE_SDK/GD32VW55x_RELEASE_V1.0.2/MSDK/cloud/alicloud/src/services/ota\iotx_ota.c ****         OTA_LOG_ERROR("Report version failed");
 2426              		.loc 2 524 5 is_stmt 1
 524:C:/Users/stapi/OneDrive/Desktop/GD32VW553/V1_MQTT_OK/GD32VW55X_Wifi_BLE_SDK/GD32VW55x_RELEASE_V1.0.2/MSDK/cloud/alicloud/src/services/ota\iotx_ota.c ****         OTA_LOG_ERROR("Report version failed");
 2427              		.loc 2 524 8 is_stmt 0
 2428 0178 7DD1     		beq	a0,zero,.L248
 525:C:/Users/stapi/OneDrive/Desktop/GD32VW553/V1_MQTT_OK/GD32VW55X_Wifi_BLE_SDK/GD32VW55x_RELEASE_V1.0.2/MSDK/cloud/alicloud/src/services/ota\iotx_ota.c ****         h_ota->err = ret;
 2429              		.loc 2 525 9 is_stmt 1
 525:C:/Users/stapi/OneDrive/Desktop/GD32VW553/V1_MQTT_OK/GD32VW55X_Wifi_BLE_SDK/GD32VW55x_RELEASE_V1.0.2/MSDK/cloud/alicloud/src/services/ota\iotx_ota.c ****         h_ota->err = ret;
 2430              		.loc 2 525 9
 2431 017a 37050000 		lui	a0,%hi(.LC21)
 2432 017e 13050500 		addi	a0,a0,%lo(.LC21)
 2433 0182 97000000 		call	HAL_Printf
 2433      E7800000 
 2434              	.LVL285:
 525:C:/Users/stapi/OneDrive/Desktop/GD32VW553/V1_MQTT_OK/GD32VW55X_Wifi_BLE_SDK/GD32VW55x_RELEASE_V1.0.2/MSDK/cloud/alicloud/src/services/ota\iotx_ota.c ****         h_ota->err = ret;
 2435              		.loc 2 525 9
 2436 018a 37050000 		lui	a0,%hi(.LC63)
 2437 018e 13050500 		addi	a0,a0,%lo(.LC63)
 2438 0192 45BF     		j	.L256
 2439              		.cfi_endproc
 2440              	.LFE37:
 2442              		.section	.rodata.iotx_req_image.str1.4,"aMS",@progbits,1
 2443              		.align	2
 2444              	.LC64:
 2445 0000 6F746120 		.string	"ota is busying"
 2445      69732062 
 2445      75737969 
 2445      6E6700
 2446 000f 00       		.align	2
 2447              	.LC65:
 2448 0010 67656E65 		.string	"generate request image message failed"
 2448      72617465 
 2448      20726571 
 2448      75657374 
 2448      20696D61 
 2449 0036 0000     		.align	2
 2450              	.LC66:
 2451 0038 52657175 		.string	"Request image failed"
 2451      65737420 
 2451      696D6167 
 2451      65206661 
 2451      696C6564 
 2452              		.section	.text.iotx_req_image,"ax",@progbits
 2453              		.align	1
 2454              		.globl	iotx_req_image
 2456              	iotx_req_image:
 2457              	.LFB38:
 540:C:/Users/stapi/OneDrive/Desktop/GD32VW553/V1_MQTT_OK/GD32VW55X_Wifi_BLE_SDK/GD32VW55x_RELEASE_V1.0.2/MSDK/cloud/alicloud/src/services/ota\iotx_ota.c **** 
 541:C:/Users/stapi/OneDrive/Desktop/GD32VW553/V1_MQTT_OK/GD32VW55X_Wifi_BLE_SDK/GD32VW55x_RELEASE_V1.0.2/MSDK/cloud/alicloud/src/services/ota\iotx_ota.c **** int iotx_req_image(void *handle, const char *version)
 542:C:/Users/stapi/OneDrive/Desktop/GD32VW553/V1_MQTT_OK/GD32VW55X_Wifi_BLE_SDK/GD32VW55x_RELEASE_V1.0.2/MSDK/cloud/alicloud/src/services/ota\iotx_ota.c **** {
 2458              		.loc 2 542 1
 2459              		.cfi_startproc
 2460              	.LVL286:
 2461 0000 17030000 		call	t0,__riscv_save_3
 2461      E7020300 
 2462              		.cfi_offset 18, -16
 2463              		.cfi_offset 9, -12
 2464              		.cfi_offset 8, -8
 2465              		.cfi_offset 1, -4
 2466              		.cfi_def_cfa_offset 16
 543:C:/Users/stapi/OneDrive/Desktop/GD32VW553/V1_MQTT_OK/GD32VW55X_Wifi_BLE_SDK/GD32VW55x_RELEASE_V1.0.2/MSDK/cloud/alicloud/src/services/ota\iotx_ota.c **** #define MSG_REQUEST_LEN  (128)
 544:C:/Users/stapi/OneDrive/Desktop/GD32VW553/V1_MQTT_OK/GD32VW55X_Wifi_BLE_SDK/GD32VW55x_RELEASE_V1.0.2/MSDK/cloud/alicloud/src/services/ota\iotx_ota.c **** 
 545:C:/Users/stapi/OneDrive/Desktop/GD32VW553/V1_MQTT_OK/GD32VW55X_Wifi_BLE_SDK/GD32VW55x_RELEASE_V1.0.2/MSDK/cloud/alicloud/src/services/ota\iotx_ota.c ****     int ret, len;
 2467              		.loc 2 545 5
 546:C:/Users/stapi/OneDrive/Desktop/GD32VW553/V1_MQTT_OK/GD32VW55X_Wifi_BLE_SDK/GD32VW55x_RELEASE_V1.0.2/MSDK/cloud/alicloud/src/services/ota\iotx_ota.c ****     char *msg_informed;
 2468              		.loc 2 546 5
 547:C:/Users/stapi/OneDrive/Desktop/GD32VW553/V1_MQTT_OK/GD32VW55X_Wifi_BLE_SDK/GD32VW55x_RELEASE_V1.0.2/MSDK/cloud/alicloud/src/services/ota\iotx_ota.c ****     OTA_Struct_pt h_ota = (OTA_Struct_pt) handle;
 2469              		.loc 2 547 5
 2470              	.LVL287:
 548:C:/Users/stapi/OneDrive/Desktop/GD32VW553/V1_MQTT_OK/GD32VW55X_Wifi_BLE_SDK/GD32VW55x_RELEASE_V1.0.2/MSDK/cloud/alicloud/src/services/ota\iotx_ota.c **** 
 549:C:/Users/stapi/OneDrive/Desktop/GD32VW553/V1_MQTT_OK/GD32VW55X_Wifi_BLE_SDK/GD32VW55x_RELEASE_V1.0.2/MSDK/cloud/alicloud/src/services/ota\iotx_ota.c ****     if ((NULL == h_ota) || (NULL == version)) {
 2471              		.loc 2 549 5
 2472              		.loc 2 549 8 is_stmt 0
 2473 0008 19C1     		beq	a0,zero,.L259
 2474 000a 2E84     		mv	s0,a1
 2475              		.loc 2 549 25 discriminator 1
 2476 000c 9DED     		bne	a1,zero,.L260
 2477              	.L259:
 550:C:/Users/stapi/OneDrive/Desktop/GD32VW553/V1_MQTT_OK/GD32VW55X_Wifi_BLE_SDK/GD32VW55x_RELEASE_V1.0.2/MSDK/cloud/alicloud/src/services/ota\iotx_ota.c ****         OTA_LOG_ERROR("one or more invalid parameter");
 2478              		.loc 2 550 9 is_stmt 1
 2479              		.loc 2 550 9
 2480 000e 37050000 		lui	a0,%hi(.LC21)
 2481              	.LVL288:
 2482 0012 13050500 		addi	a0,a0,%lo(.LC21)
 2483 0016 97000000 		call	HAL_Printf
 2483      E7800000 
 2484              	.LVL289:
 2485              		.loc 2 550 9
 2486 001e 37050000 		lui	a0,%hi(.LC59)
 2487 0022 13050500 		addi	a0,a0,%lo(.LC59)
 2488 0026 97000000 		call	HAL_Printf
 2488      E7800000 
 2489              	.LVL290:
 2490              		.loc 2 550 9
 2491 002e 37050000 		lui	a0,%hi(.LC11)
 2492 0032 13050500 		addi	a0,a0,%lo(.LC11)
 2493 0036 97000000 		call	HAL_Printf
 2493      E7800000 
 2494              	.LVL291:
 2495              		.loc 2 550 9
 551:C:/Users/stapi/OneDrive/Desktop/GD32VW553/V1_MQTT_OK/GD32VW55X_Wifi_BLE_SDK/GD32VW55x_RELEASE_V1.0.2/MSDK/cloud/alicloud/src/services/ota\iotx_ota.c ****         return IOT_OTAE_INVALID_PARAM;
 2496              		.loc 2 551 9
 2497              		.loc 2 551 16 is_stmt 0
 2498 003e 7954     		li	s0,-2
 2499              	.L258:
 552:C:/Users/stapi/OneDrive/Desktop/GD32VW553/V1_MQTT_OK/GD32VW55X_Wifi_BLE_SDK/GD32VW55x_RELEASE_V1.0.2/MSDK/cloud/alicloud/src/services/ota\iotx_ota.c ****     }
 553:C:/Users/stapi/OneDrive/Desktop/GD32VW553/V1_MQTT_OK/GD32VW55X_Wifi_BLE_SDK/GD32VW55x_RELEASE_V1.0.2/MSDK/cloud/alicloud/src/services/ota\iotx_ota.c **** 
 554:C:/Users/stapi/OneDrive/Desktop/GD32VW553/V1_MQTT_OK/GD32VW55X_Wifi_BLE_SDK/GD32VW55x_RELEASE_V1.0.2/MSDK/cloud/alicloud/src/services/ota\iotx_ota.c ****     len = strlen(version);
 555:C:/Users/stapi/OneDrive/Desktop/GD32VW553/V1_MQTT_OK/GD32VW55X_Wifi_BLE_SDK/GD32VW55x_RELEASE_V1.0.2/MSDK/cloud/alicloud/src/services/ota\iotx_ota.c ****     if ((len < OTA_VERSION_STR_LEN_MIN) || (len > OTA_VERSION_STR_LEN_MAX)) {
 556:C:/Users/stapi/OneDrive/Desktop/GD32VW553/V1_MQTT_OK/GD32VW55X_Wifi_BLE_SDK/GD32VW55x_RELEASE_V1.0.2/MSDK/cloud/alicloud/src/services/ota\iotx_ota.c ****         OTA_LOG_ERROR("version string is invalid: must be [1, 32] chars");
 557:C:/Users/stapi/OneDrive/Desktop/GD32VW553/V1_MQTT_OK/GD32VW55X_Wifi_BLE_SDK/GD32VW55x_RELEASE_V1.0.2/MSDK/cloud/alicloud/src/services/ota\iotx_ota.c ****         h_ota->err = IOT_OTAE_INVALID_PARAM;
 558:C:/Users/stapi/OneDrive/Desktop/GD32VW553/V1_MQTT_OK/GD32VW55X_Wifi_BLE_SDK/GD32VW55x_RELEASE_V1.0.2/MSDK/cloud/alicloud/src/services/ota\iotx_ota.c ****         return -1;
 559:C:/Users/stapi/OneDrive/Desktop/GD32VW553/V1_MQTT_OK/GD32VW55X_Wifi_BLE_SDK/GD32VW55x_RELEASE_V1.0.2/MSDK/cloud/alicloud/src/services/ota\iotx_ota.c ****     }
 560:C:/Users/stapi/OneDrive/Desktop/GD32VW553/V1_MQTT_OK/GD32VW55X_Wifi_BLE_SDK/GD32VW55x_RELEASE_V1.0.2/MSDK/cloud/alicloud/src/services/ota\iotx_ota.c **** 
 561:C:/Users/stapi/OneDrive/Desktop/GD32VW553/V1_MQTT_OK/GD32VW55X_Wifi_BLE_SDK/GD32VW55x_RELEASE_V1.0.2/MSDK/cloud/alicloud/src/services/ota\iotx_ota.c ****     if (IOT_OTAS_UNINITED == h_ota->state) {
 562:C:/Users/stapi/OneDrive/Desktop/GD32VW553/V1_MQTT_OK/GD32VW55X_Wifi_BLE_SDK/GD32VW55x_RELEASE_V1.0.2/MSDK/cloud/alicloud/src/services/ota\iotx_ota.c ****         OTA_LOG_ERROR("handle is uninitialized");
 563:C:/Users/stapi/OneDrive/Desktop/GD32VW553/V1_MQTT_OK/GD32VW55X_Wifi_BLE_SDK/GD32VW55x_RELEASE_V1.0.2/MSDK/cloud/alicloud/src/services/ota\iotx_ota.c ****         h_ota->err = IOT_OTAE_INVALID_STATE;
 564:C:/Users/stapi/OneDrive/Desktop/GD32VW553/V1_MQTT_OK/GD32VW55X_Wifi_BLE_SDK/GD32VW55x_RELEASE_V1.0.2/MSDK/cloud/alicloud/src/services/ota\iotx_ota.c ****         return -1;
 565:C:/Users/stapi/OneDrive/Desktop/GD32VW553/V1_MQTT_OK/GD32VW55X_Wifi_BLE_SDK/GD32VW55x_RELEASE_V1.0.2/MSDK/cloud/alicloud/src/services/ota\iotx_ota.c ****     }
 566:C:/Users/stapi/OneDrive/Desktop/GD32VW553/V1_MQTT_OK/GD32VW55X_Wifi_BLE_SDK/GD32VW55x_RELEASE_V1.0.2/MSDK/cloud/alicloud/src/services/ota\iotx_ota.c **** 
 567:C:/Users/stapi/OneDrive/Desktop/GD32VW553/V1_MQTT_OK/GD32VW55X_Wifi_BLE_SDK/GD32VW55x_RELEASE_V1.0.2/MSDK/cloud/alicloud/src/services/ota\iotx_ota.c ****     if (IOT_OTAS_FETCHING == h_ota->state) {
 568:C:/Users/stapi/OneDrive/Desktop/GD32VW553/V1_MQTT_OK/GD32VW55X_Wifi_BLE_SDK/GD32VW55x_RELEASE_V1.0.2/MSDK/cloud/alicloud/src/services/ota\iotx_ota.c ****         OTA_LOG_ERROR("ota is busying");
 569:C:/Users/stapi/OneDrive/Desktop/GD32VW553/V1_MQTT_OK/GD32VW55X_Wifi_BLE_SDK/GD32VW55x_RELEASE_V1.0.2/MSDK/cloud/alicloud/src/services/ota\iotx_ota.c ****         h_ota->err = IOT_OTAE_INVALID_STATE;
 570:C:/Users/stapi/OneDrive/Desktop/GD32VW553/V1_MQTT_OK/GD32VW55X_Wifi_BLE_SDK/GD32VW55x_RELEASE_V1.0.2/MSDK/cloud/alicloud/src/services/ota\iotx_ota.c ****         return -1;
 571:C:/Users/stapi/OneDrive/Desktop/GD32VW553/V1_MQTT_OK/GD32VW55X_Wifi_BLE_SDK/GD32VW55x_RELEASE_V1.0.2/MSDK/cloud/alicloud/src/services/ota\iotx_ota.c ****     }
 572:C:/Users/stapi/OneDrive/Desktop/GD32VW553/V1_MQTT_OK/GD32VW55X_Wifi_BLE_SDK/GD32VW55x_RELEASE_V1.0.2/MSDK/cloud/alicloud/src/services/ota\iotx_ota.c **** 
 573:C:/Users/stapi/OneDrive/Desktop/GD32VW553/V1_MQTT_OK/GD32VW55X_Wifi_BLE_SDK/GD32VW55x_RELEASE_V1.0.2/MSDK/cloud/alicloud/src/services/ota\iotx_ota.c ****     if (NULL == (msg_informed = OTA_MALLOC(MSG_REQUEST_LEN))) {
 574:C:/Users/stapi/OneDrive/Desktop/GD32VW553/V1_MQTT_OK/GD32VW55X_Wifi_BLE_SDK/GD32VW55x_RELEASE_V1.0.2/MSDK/cloud/alicloud/src/services/ota\iotx_ota.c ****         OTA_LOG_ERROR("allocate for msg_informed failed");
 575:C:/Users/stapi/OneDrive/Desktop/GD32VW553/V1_MQTT_OK/GD32VW55X_Wifi_BLE_SDK/GD32VW55x_RELEASE_V1.0.2/MSDK/cloud/alicloud/src/services/ota\iotx_ota.c ****         h_ota->err = IOT_OTAE_NOMEM;
 576:C:/Users/stapi/OneDrive/Desktop/GD32VW553/V1_MQTT_OK/GD32VW55X_Wifi_BLE_SDK/GD32VW55x_RELEASE_V1.0.2/MSDK/cloud/alicloud/src/services/ota\iotx_ota.c ****         return -1;
 577:C:/Users/stapi/OneDrive/Desktop/GD32VW553/V1_MQTT_OK/GD32VW55X_Wifi_BLE_SDK/GD32VW55x_RELEASE_V1.0.2/MSDK/cloud/alicloud/src/services/ota\iotx_ota.c ****     }
 578:C:/Users/stapi/OneDrive/Desktop/GD32VW553/V1_MQTT_OK/GD32VW55X_Wifi_BLE_SDK/GD32VW55x_RELEASE_V1.0.2/MSDK/cloud/alicloud/src/services/ota\iotx_ota.c **** 
 579:C:/Users/stapi/OneDrive/Desktop/GD32VW553/V1_MQTT_OK/GD32VW55X_Wifi_BLE_SDK/GD32VW55x_RELEASE_V1.0.2/MSDK/cloud/alicloud/src/services/ota\iotx_ota.c ****     ret = otalib_GenInfoMsg(msg_informed, MSG_REQUEST_LEN, h_ota->id, version);
 580:C:/Users/stapi/OneDrive/Desktop/GD32VW553/V1_MQTT_OK/GD32VW55X_Wifi_BLE_SDK/GD32VW55x_RELEASE_V1.0.2/MSDK/cloud/alicloud/src/services/ota\iotx_ota.c ****     if (ret != 0) {
 581:C:/Users/stapi/OneDrive/Desktop/GD32VW553/V1_MQTT_OK/GD32VW55X_Wifi_BLE_SDK/GD32VW55x_RELEASE_V1.0.2/MSDK/cloud/alicloud/src/services/ota\iotx_ota.c ****         OTA_LOG_ERROR("generate request image message failed");
 582:C:/Users/stapi/OneDrive/Desktop/GD32VW553/V1_MQTT_OK/GD32VW55X_Wifi_BLE_SDK/GD32VW55x_RELEASE_V1.0.2/MSDK/cloud/alicloud/src/services/ota\iotx_ota.c ****         h_ota->err = ret;
 583:C:/Users/stapi/OneDrive/Desktop/GD32VW553/V1_MQTT_OK/GD32VW55X_Wifi_BLE_SDK/GD32VW55x_RELEASE_V1.0.2/MSDK/cloud/alicloud/src/services/ota\iotx_ota.c ****         ret = -1;
 584:C:/Users/stapi/OneDrive/Desktop/GD32VW553/V1_MQTT_OK/GD32VW55X_Wifi_BLE_SDK/GD32VW55x_RELEASE_V1.0.2/MSDK/cloud/alicloud/src/services/ota\iotx_ota.c ****         goto do_exit;
 585:C:/Users/stapi/OneDrive/Desktop/GD32VW553/V1_MQTT_OK/GD32VW55X_Wifi_BLE_SDK/GD32VW55x_RELEASE_V1.0.2/MSDK/cloud/alicloud/src/services/ota\iotx_ota.c ****     }
 586:C:/Users/stapi/OneDrive/Desktop/GD32VW553/V1_MQTT_OK/GD32VW55X_Wifi_BLE_SDK/GD32VW55x_RELEASE_V1.0.2/MSDK/cloud/alicloud/src/services/ota\iotx_ota.c **** 
 587:C:/Users/stapi/OneDrive/Desktop/GD32VW553/V1_MQTT_OK/GD32VW55X_Wifi_BLE_SDK/GD32VW55x_RELEASE_V1.0.2/MSDK/cloud/alicloud/src/services/ota\iotx_ota.c ****     ret = osc_RequestImage(h_ota->ch_signal, msg_informed);
 588:C:/Users/stapi/OneDrive/Desktop/GD32VW553/V1_MQTT_OK/GD32VW55X_Wifi_BLE_SDK/GD32VW55x_RELEASE_V1.0.2/MSDK/cloud/alicloud/src/services/ota\iotx_ota.c ****     if (0 != ret) {
 589:C:/Users/stapi/OneDrive/Desktop/GD32VW553/V1_MQTT_OK/GD32VW55X_Wifi_BLE_SDK/GD32VW55x_RELEASE_V1.0.2/MSDK/cloud/alicloud/src/services/ota\iotx_ota.c ****         OTA_LOG_ERROR("Request image failed");
 590:C:/Users/stapi/OneDrive/Desktop/GD32VW553/V1_MQTT_OK/GD32VW55X_Wifi_BLE_SDK/GD32VW55x_RELEASE_V1.0.2/MSDK/cloud/alicloud/src/services/ota\iotx_ota.c ****         h_ota->err = ret;
 591:C:/Users/stapi/OneDrive/Desktop/GD32VW553/V1_MQTT_OK/GD32VW55X_Wifi_BLE_SDK/GD32VW55x_RELEASE_V1.0.2/MSDK/cloud/alicloud/src/services/ota\iotx_ota.c ****         ret = -1;
 592:C:/Users/stapi/OneDrive/Desktop/GD32VW553/V1_MQTT_OK/GD32VW55X_Wifi_BLE_SDK/GD32VW55x_RELEASE_V1.0.2/MSDK/cloud/alicloud/src/services/ota\iotx_ota.c ****         goto do_exit;
 593:C:/Users/stapi/OneDrive/Desktop/GD32VW553/V1_MQTT_OK/GD32VW55X_Wifi_BLE_SDK/GD32VW55x_RELEASE_V1.0.2/MSDK/cloud/alicloud/src/services/ota\iotx_ota.c ****     }
 594:C:/Users/stapi/OneDrive/Desktop/GD32VW553/V1_MQTT_OK/GD32VW55X_Wifi_BLE_SDK/GD32VW55x_RELEASE_V1.0.2/MSDK/cloud/alicloud/src/services/ota\iotx_ota.c ****     ret = 0;
 595:C:/Users/stapi/OneDrive/Desktop/GD32VW553/V1_MQTT_OK/GD32VW55X_Wifi_BLE_SDK/GD32VW55x_RELEASE_V1.0.2/MSDK/cloud/alicloud/src/services/ota\iotx_ota.c **** 
 596:C:/Users/stapi/OneDrive/Desktop/GD32VW553/V1_MQTT_OK/GD32VW55X_Wifi_BLE_SDK/GD32VW55x_RELEASE_V1.0.2/MSDK/cloud/alicloud/src/services/ota\iotx_ota.c **** do_exit:
 597:C:/Users/stapi/OneDrive/Desktop/GD32VW553/V1_MQTT_OK/GD32VW55X_Wifi_BLE_SDK/GD32VW55x_RELEASE_V1.0.2/MSDK/cloud/alicloud/src/services/ota\iotx_ota.c ****     if (NULL != msg_informed) {
 598:C:/Users/stapi/OneDrive/Desktop/GD32VW553/V1_MQTT_OK/GD32VW55X_Wifi_BLE_SDK/GD32VW55x_RELEASE_V1.0.2/MSDK/cloud/alicloud/src/services/ota\iotx_ota.c ****         OTA_FREE(msg_informed);
 599:C:/Users/stapi/OneDrive/Desktop/GD32VW553/V1_MQTT_OK/GD32VW55X_Wifi_BLE_SDK/GD32VW55x_RELEASE_V1.0.2/MSDK/cloud/alicloud/src/services/ota\iotx_ota.c ****     }
 600:C:/Users/stapi/OneDrive/Desktop/GD32VW553/V1_MQTT_OK/GD32VW55X_Wifi_BLE_SDK/GD32VW55x_RELEASE_V1.0.2/MSDK/cloud/alicloud/src/services/ota\iotx_ota.c ****     return ret;
 601:C:/Users/stapi/OneDrive/Desktop/GD32VW553/V1_MQTT_OK/GD32VW55X_Wifi_BLE_SDK/GD32VW55x_RELEASE_V1.0.2/MSDK/cloud/alicloud/src/services/ota\iotx_ota.c **** 
 602:C:/Users/stapi/OneDrive/Desktop/GD32VW553/V1_MQTT_OK/GD32VW55X_Wifi_BLE_SDK/GD32VW55x_RELEASE_V1.0.2/MSDK/cloud/alicloud/src/services/ota\iotx_ota.c **** #undef MSG_REQUEST_LEN
 603:C:/Users/stapi/OneDrive/Desktop/GD32VW553/V1_MQTT_OK/GD32VW55X_Wifi_BLE_SDK/GD32VW55x_RELEASE_V1.0.2/MSDK/cloud/alicloud/src/services/ota\iotx_ota.c **** }
 2500              		.loc 2 603 1
 2501 0040 2285     		mv	a0,s0
 2502 0042 17030000 		tail	__riscv_restore_3
 2502      67000300 
 2503              		.cfi_remember_state
 2504              		.cfi_restore 18
 2505              		.cfi_restore 9
 2506              		.cfi_restore 8
 2507              		.cfi_restore 1
 2508              		.cfi_def_cfa_offset 0
 2509              	.LVL292:
 2510              	.L260:
 2511              		.cfi_restore_state
 2512 004a AA84     		mv	s1,a0
 554:C:/Users/stapi/OneDrive/Desktop/GD32VW553/V1_MQTT_OK/GD32VW55X_Wifi_BLE_SDK/GD32VW55x_RELEASE_V1.0.2/MSDK/cloud/alicloud/src/services/ota\iotx_ota.c ****     if ((len < OTA_VERSION_STR_LEN_MIN) || (len > OTA_VERSION_STR_LEN_MAX)) {
 2513              		.loc 2 554 5 is_stmt 1
 554:C:/Users/stapi/OneDrive/Desktop/GD32VW553/V1_MQTT_OK/GD32VW55X_Wifi_BLE_SDK/GD32VW55x_RELEASE_V1.0.2/MSDK/cloud/alicloud/src/services/ota\iotx_ota.c ****     if ((len < OTA_VERSION_STR_LEN_MIN) || (len > OTA_VERSION_STR_LEN_MAX)) {
 2514              		.loc 2 554 11 is_stmt 0
 2515 004c 2E85     		mv	a0,a1
 2516              	.LVL293:
 2517 004e 97000000 		call	strlen
 2517      E7800000 
 2518              	.LVL294:
 555:C:/Users/stapi/OneDrive/Desktop/GD32VW553/V1_MQTT_OK/GD32VW55X_Wifi_BLE_SDK/GD32VW55x_RELEASE_V1.0.2/MSDK/cloud/alicloud/src/services/ota\iotx_ota.c ****         OTA_LOG_ERROR("version string is invalid: must be [1, 32] chars");
 2519              		.loc 2 555 5 is_stmt 1
 555:C:/Users/stapi/OneDrive/Desktop/GD32VW553/V1_MQTT_OK/GD32VW55X_Wifi_BLE_SDK/GD32VW55x_RELEASE_V1.0.2/MSDK/cloud/alicloud/src/services/ota\iotx_ota.c ****         OTA_LOG_ERROR("version string is invalid: must be [1, 32] chars");
 2520              		.loc 2 555 41 is_stmt 0
 2521 0056 7D15     		addi	a0,a0,-1
 2522              	.LVL295:
 555:C:/Users/stapi/OneDrive/Desktop/GD32VW553/V1_MQTT_OK/GD32VW55X_Wifi_BLE_SDK/GD32VW55x_RELEASE_V1.0.2/MSDK/cloud/alicloud/src/services/ota\iotx_ota.c ****         OTA_LOG_ERROR("version string is invalid: must be [1, 32] chars");
 2523              		.loc 2 555 8
 2524 0058 FD47     		li	a5,31
 2525 005a 63FEA702 		bleu	a0,a5,.L262
 556:C:/Users/stapi/OneDrive/Desktop/GD32VW553/V1_MQTT_OK/GD32VW55X_Wifi_BLE_SDK/GD32VW55x_RELEASE_V1.0.2/MSDK/cloud/alicloud/src/services/ota\iotx_ota.c ****         h_ota->err = IOT_OTAE_INVALID_PARAM;
 2526              		.loc 2 556 9 is_stmt 1
 556:C:/Users/stapi/OneDrive/Desktop/GD32VW553/V1_MQTT_OK/GD32VW55X_Wifi_BLE_SDK/GD32VW55x_RELEASE_V1.0.2/MSDK/cloud/alicloud/src/services/ota\iotx_ota.c ****         h_ota->err = IOT_OTAE_INVALID_PARAM;
 2527              		.loc 2 556 9
 2528 005e 37050000 		lui	a0,%hi(.LC21)
 2529              	.LVL296:
 2530 0062 13050500 		addi	a0,a0,%lo(.LC21)
 2531 0066 97000000 		call	HAL_Printf
 2531      E7800000 
 2532              	.LVL297:
 556:C:/Users/stapi/OneDrive/Desktop/GD32VW553/V1_MQTT_OK/GD32VW55X_Wifi_BLE_SDK/GD32VW55x_RELEASE_V1.0.2/MSDK/cloud/alicloud/src/services/ota\iotx_ota.c ****         h_ota->err = IOT_OTAE_INVALID_PARAM;
 2533              		.loc 2 556 9
 2534 006e 37050000 		lui	a0,%hi(.LC60)
 2535 0072 13050500 		addi	a0,a0,%lo(.LC60)
 2536 0076 97000000 		call	HAL_Printf
 2536      E7800000 
 2537              	.LVL298:
 556:C:/Users/stapi/OneDrive/Desktop/GD32VW553/V1_MQTT_OK/GD32VW55X_Wifi_BLE_SDK/GD32VW55x_RELEASE_V1.0.2/MSDK/cloud/alicloud/src/services/ota\iotx_ota.c ****         h_ota->err = IOT_OTAE_INVALID_PARAM;
 2538              		.loc 2 556 9
 2539 007e 37050000 		lui	a0,%hi(.LC11)
 2540 0082 13050500 		addi	a0,a0,%lo(.LC11)
 2541 0086 97000000 		call	HAL_Printf
 2541      E7800000 
 2542              	.LVL299:
 556:C:/Users/stapi/OneDrive/Desktop/GD32VW553/V1_MQTT_OK/GD32VW55X_Wifi_BLE_SDK/GD32VW55x_RELEASE_V1.0.2/MSDK/cloud/alicloud/src/services/ota\iotx_ota.c ****         h_ota->err = IOT_OTAE_INVALID_PARAM;
 2543              		.loc 2 556 9
 557:C:/Users/stapi/OneDrive/Desktop/GD32VW553/V1_MQTT_OK/GD32VW55X_Wifi_BLE_SDK/GD32VW55x_RELEASE_V1.0.2/MSDK/cloud/alicloud/src/services/ota\iotx_ota.c ****         return -1;
 2544              		.loc 2 557 9
 557:C:/Users/stapi/OneDrive/Desktop/GD32VW553/V1_MQTT_OK/GD32VW55X_Wifi_BLE_SDK/GD32VW55x_RELEASE_V1.0.2/MSDK/cloud/alicloud/src/services/ota\iotx_ota.c ****         return -1;
 2545              		.loc 2 557 20 is_stmt 0
 2546 008e F957     		li	a5,-2
 2547              	.L276:
 575:C:/Users/stapi/OneDrive/Desktop/GD32VW553/V1_MQTT_OK/GD32VW55X_Wifi_BLE_SDK/GD32VW55x_RELEASE_V1.0.2/MSDK/cloud/alicloud/src/services/ota\iotx_ota.c ****         return -1;
 2548              		.loc 2 575 20
 2549 0090 FCD8     		sw	a5,116(s1)
 576:C:/Users/stapi/OneDrive/Desktop/GD32VW553/V1_MQTT_OK/GD32VW55X_Wifi_BLE_SDK/GD32VW55x_RELEASE_V1.0.2/MSDK/cloud/alicloud/src/services/ota\iotx_ota.c ****     }
 2550              		.loc 2 576 9 is_stmt 1
 576:C:/Users/stapi/OneDrive/Desktop/GD32VW553/V1_MQTT_OK/GD32VW55X_Wifi_BLE_SDK/GD32VW55x_RELEASE_V1.0.2/MSDK/cloud/alicloud/src/services/ota\iotx_ota.c ****     }
 2551              		.loc 2 576 16 is_stmt 0
 2552 0092 7D54     		li	s0,-1
 2553              	.LVL300:
 2554 0094 75B7     		j	.L258
 2555              	.LVL301:
 2556              	.L262:
 561:C:/Users/stapi/OneDrive/Desktop/GD32VW553/V1_MQTT_OK/GD32VW55X_Wifi_BLE_SDK/GD32VW55x_RELEASE_V1.0.2/MSDK/cloud/alicloud/src/services/ota\iotx_ota.c ****         OTA_LOG_ERROR("handle is uninitialized");
 2557              		.loc 2 561 5 is_stmt 1
 561:C:/Users/stapi/OneDrive/Desktop/GD32VW553/V1_MQTT_OK/GD32VW55X_Wifi_BLE_SDK/GD32VW55x_RELEASE_V1.0.2/MSDK/cloud/alicloud/src/services/ota\iotx_ota.c ****         OTA_LOG_ERROR("handle is uninitialized");
 2558              		.loc 2 561 35 is_stmt 0
 2559 0096 DC44     		lw	a5,12(s1)
 561:C:/Users/stapi/OneDrive/Desktop/GD32VW553/V1_MQTT_OK/GD32VW55X_Wifi_BLE_SDK/GD32VW55x_RELEASE_V1.0.2/MSDK/cloud/alicloud/src/services/ota\iotx_ota.c ****         OTA_LOG_ERROR("handle is uninitialized");
 2560              		.loc 2 561 8
 2561 0098 9DEB     		bne	a5,zero,.L263
 562:C:/Users/stapi/OneDrive/Desktop/GD32VW553/V1_MQTT_OK/GD32VW55X_Wifi_BLE_SDK/GD32VW55x_RELEASE_V1.0.2/MSDK/cloud/alicloud/src/services/ota\iotx_ota.c ****         h_ota->err = IOT_OTAE_INVALID_STATE;
 2562              		.loc 2 562 9 is_stmt 1
 562:C:/Users/stapi/OneDrive/Desktop/GD32VW553/V1_MQTT_OK/GD32VW55X_Wifi_BLE_SDK/GD32VW55x_RELEASE_V1.0.2/MSDK/cloud/alicloud/src/services/ota\iotx_ota.c ****         h_ota->err = IOT_OTAE_INVALID_STATE;
 2563              		.loc 2 562 9
 2564 009a 37050000 		lui	a0,%hi(.LC21)
 2565              	.LVL302:
 2566 009e 13050500 		addi	a0,a0,%lo(.LC21)
 2567 00a2 97000000 		call	HAL_Printf
 2567      E7800000 
 2568              	.LVL303:
 562:C:/Users/stapi/OneDrive/Desktop/GD32VW553/V1_MQTT_OK/GD32VW55X_Wifi_BLE_SDK/GD32VW55x_RELEASE_V1.0.2/MSDK/cloud/alicloud/src/services/ota\iotx_ota.c ****         h_ota->err = IOT_OTAE_INVALID_STATE;
 2569              		.loc 2 562 9
 2570 00aa 37050000 		lui	a0,%hi(.LC58)
 2571 00ae 13050500 		addi	a0,a0,%lo(.LC58)
 2572              	.L277:
 568:C:/Users/stapi/OneDrive/Desktop/GD32VW553/V1_MQTT_OK/GD32VW55X_Wifi_BLE_SDK/GD32VW55x_RELEASE_V1.0.2/MSDK/cloud/alicloud/src/services/ota\iotx_ota.c ****         h_ota->err = IOT_OTAE_INVALID_STATE;
 2573              		.loc 2 568 9 is_stmt 0
 2574 00b2 97000000 		call	HAL_Printf
 2574      E7800000 
 2575              	.LVL304:
 568:C:/Users/stapi/OneDrive/Desktop/GD32VW553/V1_MQTT_OK/GD32VW55X_Wifi_BLE_SDK/GD32VW55x_RELEASE_V1.0.2/MSDK/cloud/alicloud/src/services/ota\iotx_ota.c ****         h_ota->err = IOT_OTAE_INVALID_STATE;
 2576              		.loc 2 568 9 is_stmt 1
 2577 00ba 37050000 		lui	a0,%hi(.LC11)
 2578 00be 13050500 		addi	a0,a0,%lo(.LC11)
 2579 00c2 97000000 		call	HAL_Printf
 2579      E7800000 
 2580              	.LVL305:
 568:C:/Users/stapi/OneDrive/Desktop/GD32VW553/V1_MQTT_OK/GD32VW55X_Wifi_BLE_SDK/GD32VW55x_RELEASE_V1.0.2/MSDK/cloud/alicloud/src/services/ota\iotx_ota.c ****         h_ota->err = IOT_OTAE_INVALID_STATE;
 2581              		.loc 2 568 9
 569:C:/Users/stapi/OneDrive/Desktop/GD32VW553/V1_MQTT_OK/GD32VW55X_Wifi_BLE_SDK/GD32VW55x_RELEASE_V1.0.2/MSDK/cloud/alicloud/src/services/ota\iotx_ota.c ****         return -1;
 2582              		.loc 2 569 9
 569:C:/Users/stapi/OneDrive/Desktop/GD32VW553/V1_MQTT_OK/GD32VW55X_Wifi_BLE_SDK/GD32VW55x_RELEASE_V1.0.2/MSDK/cloud/alicloud/src/services/ota\iotx_ota.c ****         return -1;
 2583              		.loc 2 569 20 is_stmt 0
 2584 00ca F557     		li	a5,-3
 2585 00cc D1B7     		j	.L276
 2586              	.LVL306:
 2587              	.L263:
 567:C:/Users/stapi/OneDrive/Desktop/GD32VW553/V1_MQTT_OK/GD32VW55X_Wifi_BLE_SDK/GD32VW55x_RELEASE_V1.0.2/MSDK/cloud/alicloud/src/services/ota\iotx_ota.c ****         OTA_LOG_ERROR("ota is busying");
 2588              		.loc 2 567 5 is_stmt 1
 567:C:/Users/stapi/OneDrive/Desktop/GD32VW553/V1_MQTT_OK/GD32VW55X_Wifi_BLE_SDK/GD32VW55x_RELEASE_V1.0.2/MSDK/cloud/alicloud/src/services/ota\iotx_ota.c ****         OTA_LOG_ERROR("ota is busying");
 2589              		.loc 2 567 8 is_stmt 0
 2590 00ce 0947     		li	a4,2
 2591 00d0 639FE700 		bne	a5,a4,.L264
 568:C:/Users/stapi/OneDrive/Desktop/GD32VW553/V1_MQTT_OK/GD32VW55X_Wifi_BLE_SDK/GD32VW55x_RELEASE_V1.0.2/MSDK/cloud/alicloud/src/services/ota\iotx_ota.c ****         h_ota->err = IOT_OTAE_INVALID_STATE;
 2592              		.loc 2 568 9 is_stmt 1
 568:C:/Users/stapi/OneDrive/Desktop/GD32VW553/V1_MQTT_OK/GD32VW55X_Wifi_BLE_SDK/GD32VW55x_RELEASE_V1.0.2/MSDK/cloud/alicloud/src/services/ota\iotx_ota.c ****         h_ota->err = IOT_OTAE_INVALID_STATE;
 2593              		.loc 2 568 9
 2594 00d4 37050000 		lui	a0,%hi(.LC21)
 2595              	.LVL307:
 2596 00d8 13050500 		addi	a0,a0,%lo(.LC21)
 2597 00dc 97000000 		call	HAL_Printf
 2597      E7800000 
 2598              	.LVL308:
 568:C:/Users/stapi/OneDrive/Desktop/GD32VW553/V1_MQTT_OK/GD32VW55X_Wifi_BLE_SDK/GD32VW55x_RELEASE_V1.0.2/MSDK/cloud/alicloud/src/services/ota\iotx_ota.c ****         h_ota->err = IOT_OTAE_INVALID_STATE;
 2599              		.loc 2 568 9
 2600 00e4 37050000 		lui	a0,%hi(.LC64)
 2601 00e8 13050500 		addi	a0,a0,%lo(.LC64)
 2602 00ec D9B7     		j	.L277
 2603              	.LVL309:
 2604              	.L264:
 573:C:/Users/stapi/OneDrive/Desktop/GD32VW553/V1_MQTT_OK/GD32VW55X_Wifi_BLE_SDK/GD32VW55x_RELEASE_V1.0.2/MSDK/cloud/alicloud/src/services/ota\iotx_ota.c ****         OTA_LOG_ERROR("allocate for msg_informed failed");
 2605              		.loc 2 573 5
 573:C:/Users/stapi/OneDrive/Desktop/GD32VW553/V1_MQTT_OK/GD32VW55X_Wifi_BLE_SDK/GD32VW55x_RELEASE_V1.0.2/MSDK/cloud/alicloud/src/services/ota\iotx_ota.c ****         OTA_LOG_ERROR("allocate for msg_informed failed");
 2606              		.loc 2 573 33 is_stmt 0
 2607 00ee 13060008 		li	a2,128
 2608 00f2 8145     		li	a1,0
 2609 00f4 0145     		li	a0,0
 2610              	.LVL310:
 2611 00f6 97000000 		call	LITE_malloc_internal
 2611      E7800000 
 2612              	.LVL311:
 2613 00fe 2A89     		mv	s2,a0
 2614              	.LVL312:
 573:C:/Users/stapi/OneDrive/Desktop/GD32VW553/V1_MQTT_OK/GD32VW55X_Wifi_BLE_SDK/GD32VW55x_RELEASE_V1.0.2/MSDK/cloud/alicloud/src/services/ota\iotx_ota.c ****         OTA_LOG_ERROR("allocate for msg_informed failed");
 2615              		.loc 2 573 8
 2616 0100 1DE9     		bne	a0,zero,.L265
 574:C:/Users/stapi/OneDrive/Desktop/GD32VW553/V1_MQTT_OK/GD32VW55X_Wifi_BLE_SDK/GD32VW55x_RELEASE_V1.0.2/MSDK/cloud/alicloud/src/services/ota\iotx_ota.c ****         h_ota->err = IOT_OTAE_NOMEM;
 2617              		.loc 2 574 9 is_stmt 1
 574:C:/Users/stapi/OneDrive/Desktop/GD32VW553/V1_MQTT_OK/GD32VW55X_Wifi_BLE_SDK/GD32VW55x_RELEASE_V1.0.2/MSDK/cloud/alicloud/src/services/ota\iotx_ota.c ****         h_ota->err = IOT_OTAE_NOMEM;
 2618              		.loc 2 574 9
 2619 0102 37050000 		lui	a0,%hi(.LC21)
 2620              	.LVL313:
 2621 0106 13050500 		addi	a0,a0,%lo(.LC21)
 2622 010a 97000000 		call	HAL_Printf
 2622      E7800000 
 2623              	.LVL314:
 574:C:/Users/stapi/OneDrive/Desktop/GD32VW553/V1_MQTT_OK/GD32VW55X_Wifi_BLE_SDK/GD32VW55x_RELEASE_V1.0.2/MSDK/cloud/alicloud/src/services/ota\iotx_ota.c ****         h_ota->err = IOT_OTAE_NOMEM;
 2624              		.loc 2 574 9
 2625 0112 37050000 		lui	a0,%hi(.LC61)
 2626 0116 13050500 		addi	a0,a0,%lo(.LC61)
 2627 011a 97000000 		call	HAL_Printf
 2627      E7800000 
 2628              	.LVL315:
 574:C:/Users/stapi/OneDrive/Desktop/GD32VW553/V1_MQTT_OK/GD32VW55X_Wifi_BLE_SDK/GD32VW55x_RELEASE_V1.0.2/MSDK/cloud/alicloud/src/services/ota\iotx_ota.c ****         h_ota->err = IOT_OTAE_NOMEM;
 2629              		.loc 2 574 9
 2630 0122 37050000 		lui	a0,%hi(.LC11)
 2631 0126 13050500 		addi	a0,a0,%lo(.LC11)
 2632 012a 97000000 		call	HAL_Printf
 2632      E7800000 
 2633              	.LVL316:
 574:C:/Users/stapi/OneDrive/Desktop/GD32VW553/V1_MQTT_OK/GD32VW55X_Wifi_BLE_SDK/GD32VW55x_RELEASE_V1.0.2/MSDK/cloud/alicloud/src/services/ota\iotx_ota.c ****         h_ota->err = IOT_OTAE_NOMEM;
 2634              		.loc 2 574 9
 575:C:/Users/stapi/OneDrive/Desktop/GD32VW553/V1_MQTT_OK/GD32VW55X_Wifi_BLE_SDK/GD32VW55x_RELEASE_V1.0.2/MSDK/cloud/alicloud/src/services/ota\iotx_ota.c ****         return -1;
 2635              		.loc 2 575 9
 575:C:/Users/stapi/OneDrive/Desktop/GD32VW553/V1_MQTT_OK/GD32VW55X_Wifi_BLE_SDK/GD32VW55x_RELEASE_V1.0.2/MSDK/cloud/alicloud/src/services/ota\iotx_ota.c ****         return -1;
 2636              		.loc 2 575 20 is_stmt 0
 2637 0132 E957     		li	a5,-6
 2638 0134 B1BF     		j	.L276
 2639              	.LVL317:
 2640              	.L265:
 579:C:/Users/stapi/OneDrive/Desktop/GD32VW553/V1_MQTT_OK/GD32VW55X_Wifi_BLE_SDK/GD32VW55x_RELEASE_V1.0.2/MSDK/cloud/alicloud/src/services/ota\iotx_ota.c ****     if (ret != 0) {
 2641              		.loc 2 579 5 is_stmt 1
 579:C:/Users/stapi/OneDrive/Desktop/GD32VW553/V1_MQTT_OK/GD32VW55X_Wifi_BLE_SDK/GD32VW55x_RELEASE_V1.0.2/MSDK/cloud/alicloud/src/services/ota\iotx_ota.c ****     if (ret != 0) {
 2642              		.loc 2 579 11 is_stmt 0
 2643 0136 9044     		lw	a2,8(s1)
 2644 0138 A286     		mv	a3,s0
 2645 013a 93050008 		li	a1,128
 2646 013e 97000000 		call	otalib_GenInfoMsg
 2646      E7800000 
 2647              	.LVL318:
 2648 0146 2A84     		mv	s0,a0
 2649              	.LVL319:
 580:C:/Users/stapi/OneDrive/Desktop/GD32VW553/V1_MQTT_OK/GD32VW55X_Wifi_BLE_SDK/GD32VW55x_RELEASE_V1.0.2/MSDK/cloud/alicloud/src/services/ota\iotx_ota.c ****         OTA_LOG_ERROR("generate request image message failed");
 2650              		.loc 2 580 5 is_stmt 1
 580:C:/Users/stapi/OneDrive/Desktop/GD32VW553/V1_MQTT_OK/GD32VW55X_Wifi_BLE_SDK/GD32VW55x_RELEASE_V1.0.2/MSDK/cloud/alicloud/src/services/ota\iotx_ota.c ****         OTA_LOG_ERROR("generate request image message failed");
 2651              		.loc 2 580 8 is_stmt 0
 2652 0148 29C1     		beq	a0,zero,.L266
 581:C:/Users/stapi/OneDrive/Desktop/GD32VW553/V1_MQTT_OK/GD32VW55X_Wifi_BLE_SDK/GD32VW55x_RELEASE_V1.0.2/MSDK/cloud/alicloud/src/services/ota\iotx_ota.c ****         h_ota->err = ret;
 2653              		.loc 2 581 9 is_stmt 1
 581:C:/Users/stapi/OneDrive/Desktop/GD32VW553/V1_MQTT_OK/GD32VW55X_Wifi_BLE_SDK/GD32VW55x_RELEASE_V1.0.2/MSDK/cloud/alicloud/src/services/ota\iotx_ota.c ****         h_ota->err = ret;
 2654              		.loc 2 581 9
 2655 014a 37050000 		lui	a0,%hi(.LC21)
 2656 014e 13050500 		addi	a0,a0,%lo(.LC21)
 2657 0152 97000000 		call	HAL_Printf
 2657      E7800000 
 2658              	.LVL320:
 581:C:/Users/stapi/OneDrive/Desktop/GD32VW553/V1_MQTT_OK/GD32VW55X_Wifi_BLE_SDK/GD32VW55x_RELEASE_V1.0.2/MSDK/cloud/alicloud/src/services/ota\iotx_ota.c ****         h_ota->err = ret;
 2659              		.loc 2 581 9
 2660 015a 37050000 		lui	a0,%hi(.LC65)
 2661 015e 13050500 		addi	a0,a0,%lo(.LC65)
 2662              	.L275:
 589:C:/Users/stapi/OneDrive/Desktop/GD32VW553/V1_MQTT_OK/GD32VW55X_Wifi_BLE_SDK/GD32VW55x_RELEASE_V1.0.2/MSDK/cloud/alicloud/src/services/ota\iotx_ota.c ****         h_ota->err = ret;
 2663              		.loc 2 589 9 is_stmt 0
 2664 0162 97000000 		call	HAL_Printf
 2664      E7800000 
 2665              	.LVL321:
 589:C:/Users/stapi/OneDrive/Desktop/GD32VW553/V1_MQTT_OK/GD32VW55X_Wifi_BLE_SDK/GD32VW55x_RELEASE_V1.0.2/MSDK/cloud/alicloud/src/services/ota\iotx_ota.c ****         h_ota->err = ret;
 2666              		.loc 2 589 9 is_stmt 1
 2667 016a 37050000 		lui	a0,%hi(.LC11)
 2668 016e 13050500 		addi	a0,a0,%lo(.LC11)
 2669 0172 97000000 		call	HAL_Printf
 2669      E7800000 
 2670              	.LVL322:
 589:C:/Users/stapi/OneDrive/Desktop/GD32VW553/V1_MQTT_OK/GD32VW55X_Wifi_BLE_SDK/GD32VW55x_RELEASE_V1.0.2/MSDK/cloud/alicloud/src/services/ota\iotx_ota.c ****         h_ota->err = ret;
 2671              		.loc 2 589 9
 590:C:/Users/stapi/OneDrive/Desktop/GD32VW553/V1_MQTT_OK/GD32VW55X_Wifi_BLE_SDK/GD32VW55x_RELEASE_V1.0.2/MSDK/cloud/alicloud/src/services/ota\iotx_ota.c ****         ret = -1;
 2672              		.loc 2 590 9
 590:C:/Users/stapi/OneDrive/Desktop/GD32VW553/V1_MQTT_OK/GD32VW55X_Wifi_BLE_SDK/GD32VW55x_RELEASE_V1.0.2/MSDK/cloud/alicloud/src/services/ota\iotx_ota.c ****         ret = -1;
 2673              		.loc 2 590 20 is_stmt 0
 2674 017a E0D8     		sw	s0,116(s1)
 591:C:/Users/stapi/OneDrive/Desktop/GD32VW553/V1_MQTT_OK/GD32VW55X_Wifi_BLE_SDK/GD32VW55x_RELEASE_V1.0.2/MSDK/cloud/alicloud/src/services/ota\iotx_ota.c ****         goto do_exit;
 2675              		.loc 2 591 9 is_stmt 1
 2676              	.LVL323:
 592:C:/Users/stapi/OneDrive/Desktop/GD32VW553/V1_MQTT_OK/GD32VW55X_Wifi_BLE_SDK/GD32VW55x_RELEASE_V1.0.2/MSDK/cloud/alicloud/src/services/ota\iotx_ota.c ****     }
 2677              		.loc 2 592 9
 591:C:/Users/stapi/OneDrive/Desktop/GD32VW553/V1_MQTT_OK/GD32VW55X_Wifi_BLE_SDK/GD32VW55x_RELEASE_V1.0.2/MSDK/cloud/alicloud/src/services/ota\iotx_ota.c ****         goto do_exit;
 2678              		.loc 2 591 13 is_stmt 0
 2679 017c 7D54     		li	s0,-1
 2680              	.LVL324:
 2681              	.L267:
 597:C:/Users/stapi/OneDrive/Desktop/GD32VW553/V1_MQTT_OK/GD32VW55X_Wifi_BLE_SDK/GD32VW55x_RELEASE_V1.0.2/MSDK/cloud/alicloud/src/services/ota\iotx_ota.c ****         OTA_FREE(msg_informed);
 2682              		.loc 2 597 5 is_stmt 1
 598:C:/Users/stapi/OneDrive/Desktop/GD32VW553/V1_MQTT_OK/GD32VW55X_Wifi_BLE_SDK/GD32VW55x_RELEASE_V1.0.2/MSDK/cloud/alicloud/src/services/ota\iotx_ota.c ****     }
 2683              		.loc 2 598 9
 2684 017e 4A85     		mv	a0,s2
 2685 0180 97000000 		call	LITE_free_internal
 2685      E7800000 
 2686              	.LVL325:
 600:C:/Users/stapi/OneDrive/Desktop/GD32VW553/V1_MQTT_OK/GD32VW55X_Wifi_BLE_SDK/GD32VW55x_RELEASE_V1.0.2/MSDK/cloud/alicloud/src/services/ota\iotx_ota.c **** 
 2687              		.loc 2 600 5
 600:C:/Users/stapi/OneDrive/Desktop/GD32VW553/V1_MQTT_OK/GD32VW55X_Wifi_BLE_SDK/GD32VW55x_RELEASE_V1.0.2/MSDK/cloud/alicloud/src/services/ota\iotx_ota.c **** 
 2688              		.loc 2 600 12 is_stmt 0
 2689 0188 65BD     		j	.L258
 2690              	.L266:
 587:C:/Users/stapi/OneDrive/Desktop/GD32VW553/V1_MQTT_OK/GD32VW55X_Wifi_BLE_SDK/GD32VW55x_RELEASE_V1.0.2/MSDK/cloud/alicloud/src/services/ota\iotx_ota.c ****     if (0 != ret) {
 2691              		.loc 2 587 5 is_stmt 1
 587:C:/Users/stapi/OneDrive/Desktop/GD32VW553/V1_MQTT_OK/GD32VW55X_Wifi_BLE_SDK/GD32VW55x_RELEASE_V1.0.2/MSDK/cloud/alicloud/src/services/ota\iotx_ota.c ****     if (0 != ret) {
 2692              		.loc 2 587 11 is_stmt 0
 2693 018a E848     		lw	a0,84(s1)
 2694 018c CA85     		mv	a1,s2
 2695 018e 97000000 		call	osc_RequestImage
 2695      E7800000 
 2696              	.LVL326:
 2697 0196 2A84     		mv	s0,a0
 2698              	.LVL327:
 588:C:/Users/stapi/OneDrive/Desktop/GD32VW553/V1_MQTT_OK/GD32VW55X_Wifi_BLE_SDK/GD32VW55x_RELEASE_V1.0.2/MSDK/cloud/alicloud/src/services/ota\iotx_ota.c ****         OTA_LOG_ERROR("Request image failed");
 2699              		.loc 2 588 5 is_stmt 1
 588:C:/Users/stapi/OneDrive/Desktop/GD32VW553/V1_MQTT_OK/GD32VW55X_Wifi_BLE_SDK/GD32VW55x_RELEASE_V1.0.2/MSDK/cloud/alicloud/src/services/ota\iotx_ota.c ****         OTA_LOG_ERROR("Request image failed");
 2700              		.loc 2 588 8 is_stmt 0
 2701 0198 7DD1     		beq	a0,zero,.L267
 589:C:/Users/stapi/OneDrive/Desktop/GD32VW553/V1_MQTT_OK/GD32VW55X_Wifi_BLE_SDK/GD32VW55x_RELEASE_V1.0.2/MSDK/cloud/alicloud/src/services/ota\iotx_ota.c ****         h_ota->err = ret;
 2702              		.loc 2 589 9 is_stmt 1
 589:C:/Users/stapi/OneDrive/Desktop/GD32VW553/V1_MQTT_OK/GD32VW55X_Wifi_BLE_SDK/GD32VW55x_RELEASE_V1.0.2/MSDK/cloud/alicloud/src/services/ota\iotx_ota.c ****         h_ota->err = ret;
 2703              		.loc 2 589 9
 2704 019a 37050000 		lui	a0,%hi(.LC21)
 2705 019e 13050500 		addi	a0,a0,%lo(.LC21)
 2706 01a2 97000000 		call	HAL_Printf
 2706      E7800000 
 2707              	.LVL328:
 589:C:/Users/stapi/OneDrive/Desktop/GD32VW553/V1_MQTT_OK/GD32VW55X_Wifi_BLE_SDK/GD32VW55x_RELEASE_V1.0.2/MSDK/cloud/alicloud/src/services/ota\iotx_ota.c ****         h_ota->err = ret;
 2708              		.loc 2 589 9
 2709 01aa 37050000 		lui	a0,%hi(.LC66)
 2710 01ae 13050500 		addi	a0,a0,%lo(.LC66)
 2711 01b2 45BF     		j	.L275
 2712              		.cfi_endproc
 2713              	.LFE38:
 2715              		.section	.rodata.IOT_OTA_ReportProgress.str1.4,"aMS",@progbits,1
 2716              		.align	2
 2717              	.LC67:
 2718 0000 70726F67 		.string	"progress is a invalid parameter"
 2718      72657373 
 2718      20697320 
 2718      6120696E 
 2718      76616C69 
 2719              		.align	2
 2720              	.LC68:
 2721 0020 616C6C6F 		.string	"allocate for msg_reported failed"
 2721      63617465 
 2721      20666F72 
 2721      206D7367 
 2721      5F726570 
 2722 0041 000000   		.align	2
 2723              	.LC69:
 2724 0044 67656E65 		.string	"generate reported message failed"
 2724      72617465 
 2724      20726570 
 2724      6F727465 
 2724      64206D65 
 2725 0065 000000   		.align	2
 2726              	.LC70:
 2727 0068 5265706F 		.string	"Report progress failed"
 2727      72742070 
 2727      726F6772 
 2727      65737320 
 2727      6661696C 
 2728              		.section	.text.IOT_OTA_ReportProgress,"ax",@progbits
 2729              		.align	1
 2730              		.globl	IOT_OTA_ReportProgress
 2732              	IOT_OTA_ReportProgress:
 2733              	.LFB39:
 604:C:/Users/stapi/OneDrive/Desktop/GD32VW553/V1_MQTT_OK/GD32VW55X_Wifi_BLE_SDK/GD32VW55x_RELEASE_V1.0.2/MSDK/cloud/alicloud/src/services/ota\iotx_ota.c **** 
 605:C:/Users/stapi/OneDrive/Desktop/GD32VW553/V1_MQTT_OK/GD32VW55X_Wifi_BLE_SDK/GD32VW55x_RELEASE_V1.0.2/MSDK/cloud/alicloud/src/services/ota\iotx_ota.c **** 
 606:C:/Users/stapi/OneDrive/Desktop/GD32VW553/V1_MQTT_OK/GD32VW55X_Wifi_BLE_SDK/GD32VW55x_RELEASE_V1.0.2/MSDK/cloud/alicloud/src/services/ota\iotx_ota.c **** int IOT_OTA_ReportProgress(void *handle, IOT_OTA_Progress_t progress, const char *msg)
 607:C:/Users/stapi/OneDrive/Desktop/GD32VW553/V1_MQTT_OK/GD32VW55X_Wifi_BLE_SDK/GD32VW55x_RELEASE_V1.0.2/MSDK/cloud/alicloud/src/services/ota\iotx_ota.c **** {
 2734              		.loc 2 607 1
 2735              		.cfi_startproc
 2736              	.LVL329:
 2737 0000 17030000 		call	t0,__riscv_save_3
 2737      E7020300 
 2738              		.cfi_offset 18, -16
 2739              		.cfi_offset 9, -12
 2740              		.cfi_offset 8, -8
 2741              		.cfi_offset 1, -4
 2742              		.cfi_def_cfa_offset 16
 608:C:/Users/stapi/OneDrive/Desktop/GD32VW553/V1_MQTT_OK/GD32VW55X_Wifi_BLE_SDK/GD32VW55x_RELEASE_V1.0.2/MSDK/cloud/alicloud/src/services/ota\iotx_ota.c **** #define MSG_REPORT_LEN  (256)
 609:C:/Users/stapi/OneDrive/Desktop/GD32VW553/V1_MQTT_OK/GD32VW55X_Wifi_BLE_SDK/GD32VW55x_RELEASE_V1.0.2/MSDK/cloud/alicloud/src/services/ota\iotx_ota.c **** 
 610:C:/Users/stapi/OneDrive/Desktop/GD32VW553/V1_MQTT_OK/GD32VW55X_Wifi_BLE_SDK/GD32VW55x_RELEASE_V1.0.2/MSDK/cloud/alicloud/src/services/ota\iotx_ota.c ****     int ret = -1;
 2743              		.loc 2 610 5
 2744              	.LVL330:
 611:C:/Users/stapi/OneDrive/Desktop/GD32VW553/V1_MQTT_OK/GD32VW55X_Wifi_BLE_SDK/GD32VW55x_RELEASE_V1.0.2/MSDK/cloud/alicloud/src/services/ota\iotx_ota.c ****     char *msg_reported;
 2745              		.loc 2 611 5
 612:C:/Users/stapi/OneDrive/Desktop/GD32VW553/V1_MQTT_OK/GD32VW55X_Wifi_BLE_SDK/GD32VW55x_RELEASE_V1.0.2/MSDK/cloud/alicloud/src/services/ota\iotx_ota.c ****     OTA_Struct_pt h_ota = (OTA_Struct_pt) handle;
 2746              		.loc 2 612 5
 613:C:/Users/stapi/OneDrive/Desktop/GD32VW553/V1_MQTT_OK/GD32VW55X_Wifi_BLE_SDK/GD32VW55x_RELEASE_V1.0.2/MSDK/cloud/alicloud/src/services/ota\iotx_ota.c **** 
 614:C:/Users/stapi/OneDrive/Desktop/GD32VW553/V1_MQTT_OK/GD32VW55X_Wifi_BLE_SDK/GD32VW55x_RELEASE_V1.0.2/MSDK/cloud/alicloud/src/services/ota\iotx_ota.c ****     if (NULL == handle) {
 2747              		.loc 2 614 5
 607:C:/Users/stapi/OneDrive/Desktop/GD32VW553/V1_MQTT_OK/GD32VW55X_Wifi_BLE_SDK/GD32VW55x_RELEASE_V1.0.2/MSDK/cloud/alicloud/src/services/ota\iotx_ota.c **** #define MSG_REPORT_LEN  (256)
 2748              		.loc 2 607 1 is_stmt 0
 2749 0008 4111     		addi	sp,sp,-16
 2750              		.cfi_def_cfa_offset 32
 2751              		.loc 2 614 8
 2752 000a 21E1     		bne	a0,zero,.L279
 615:C:/Users/stapi/OneDrive/Desktop/GD32VW553/V1_MQTT_OK/GD32VW55X_Wifi_BLE_SDK/GD32VW55x_RELEASE_V1.0.2/MSDK/cloud/alicloud/src/services/ota\iotx_ota.c ****         OTA_LOG_ERROR("handle is NULL");
 2753              		.loc 2 615 9 is_stmt 1
 2754              		.loc 2 615 9
 2755 000c 37050000 		lui	a0,%hi(.LC21)
 2756              	.LVL331:
 2757 0010 13050500 		addi	a0,a0,%lo(.LC21)
 2758 0014 97000000 		call	HAL_Printf
 2758      E7800000 
 2759              	.LVL332:
 2760              		.loc 2 615 9
 2761 001c 37050000 		lui	a0,%hi(.LC57)
 2762 0020 13050500 		addi	a0,a0,%lo(.LC57)
 2763 0024 97000000 		call	HAL_Printf
 2763      E7800000 
 2764              	.LVL333:
 2765              		.loc 2 615 9
 2766 002c 37050000 		lui	a0,%hi(.LC11)
 2767 0030 13050500 		addi	a0,a0,%lo(.LC11)
 2768 0034 97000000 		call	HAL_Printf
 2768      E7800000 
 2769              	.LVL334:
 2770              		.loc 2 615 9
 616:C:/Users/stapi/OneDrive/Desktop/GD32VW553/V1_MQTT_OK/GD32VW55X_Wifi_BLE_SDK/GD32VW55x_RELEASE_V1.0.2/MSDK/cloud/alicloud/src/services/ota\iotx_ota.c ****         return IOT_OTAE_INVALID_PARAM;
 2771              		.loc 2 616 9
 2772              		.loc 2 616 16 is_stmt 0
 2773 003c 7954     		li	s0,-2
 2774              	.LVL335:
 2775              	.L278:
 617:C:/Users/stapi/OneDrive/Desktop/GD32VW553/V1_MQTT_OK/GD32VW55X_Wifi_BLE_SDK/GD32VW55x_RELEASE_V1.0.2/MSDK/cloud/alicloud/src/services/ota\iotx_ota.c ****     }
 618:C:/Users/stapi/OneDrive/Desktop/GD32VW553/V1_MQTT_OK/GD32VW55X_Wifi_BLE_SDK/GD32VW55x_RELEASE_V1.0.2/MSDK/cloud/alicloud/src/services/ota\iotx_ota.c **** 
 619:C:/Users/stapi/OneDrive/Desktop/GD32VW553/V1_MQTT_OK/GD32VW55X_Wifi_BLE_SDK/GD32VW55x_RELEASE_V1.0.2/MSDK/cloud/alicloud/src/services/ota\iotx_ota.c ****     if (IOT_OTAS_UNINITED == h_ota->state) {
 620:C:/Users/stapi/OneDrive/Desktop/GD32VW553/V1_MQTT_OK/GD32VW55X_Wifi_BLE_SDK/GD32VW55x_RELEASE_V1.0.2/MSDK/cloud/alicloud/src/services/ota\iotx_ota.c ****         OTA_LOG_ERROR("handle is uninitialized");
 621:C:/Users/stapi/OneDrive/Desktop/GD32VW553/V1_MQTT_OK/GD32VW55X_Wifi_BLE_SDK/GD32VW55x_RELEASE_V1.0.2/MSDK/cloud/alicloud/src/services/ota\iotx_ota.c ****         h_ota->err = IOT_OTAE_INVALID_STATE;
 622:C:/Users/stapi/OneDrive/Desktop/GD32VW553/V1_MQTT_OK/GD32VW55X_Wifi_BLE_SDK/GD32VW55x_RELEASE_V1.0.2/MSDK/cloud/alicloud/src/services/ota\iotx_ota.c ****         return -1;
 623:C:/Users/stapi/OneDrive/Desktop/GD32VW553/V1_MQTT_OK/GD32VW55X_Wifi_BLE_SDK/GD32VW55x_RELEASE_V1.0.2/MSDK/cloud/alicloud/src/services/ota\iotx_ota.c ****     }
 624:C:/Users/stapi/OneDrive/Desktop/GD32VW553/V1_MQTT_OK/GD32VW55X_Wifi_BLE_SDK/GD32VW55x_RELEASE_V1.0.2/MSDK/cloud/alicloud/src/services/ota\iotx_ota.c ****     if (!ota_check_progress(progress)) {
 625:C:/Users/stapi/OneDrive/Desktop/GD32VW553/V1_MQTT_OK/GD32VW55X_Wifi_BLE_SDK/GD32VW55x_RELEASE_V1.0.2/MSDK/cloud/alicloud/src/services/ota\iotx_ota.c ****         OTA_LOG_ERROR("progress is a invalid parameter");
 626:C:/Users/stapi/OneDrive/Desktop/GD32VW553/V1_MQTT_OK/GD32VW55X_Wifi_BLE_SDK/GD32VW55x_RELEASE_V1.0.2/MSDK/cloud/alicloud/src/services/ota\iotx_ota.c ****         h_ota->err = IOT_OTAE_INVALID_PARAM;
 627:C:/Users/stapi/OneDrive/Desktop/GD32VW553/V1_MQTT_OK/GD32VW55X_Wifi_BLE_SDK/GD32VW55x_RELEASE_V1.0.2/MSDK/cloud/alicloud/src/services/ota\iotx_ota.c ****         return -1;
 628:C:/Users/stapi/OneDrive/Desktop/GD32VW553/V1_MQTT_OK/GD32VW55X_Wifi_BLE_SDK/GD32VW55x_RELEASE_V1.0.2/MSDK/cloud/alicloud/src/services/ota\iotx_ota.c ****     }
 629:C:/Users/stapi/OneDrive/Desktop/GD32VW553/V1_MQTT_OK/GD32VW55X_Wifi_BLE_SDK/GD32VW55x_RELEASE_V1.0.2/MSDK/cloud/alicloud/src/services/ota\iotx_ota.c **** 
 630:C:/Users/stapi/OneDrive/Desktop/GD32VW553/V1_MQTT_OK/GD32VW55X_Wifi_BLE_SDK/GD32VW55x_RELEASE_V1.0.2/MSDK/cloud/alicloud/src/services/ota\iotx_ota.c **** #ifdef DEV_OFFLINE_OTA_ENABLE
 631:C:/Users/stapi/OneDrive/Desktop/GD32VW553/V1_MQTT_OK/GD32VW55X_Wifi_BLE_SDK/GD32VW55x_RELEASE_V1.0.2/MSDK/cloud/alicloud/src/services/ota\iotx_ota.c ****     if (progress == IOT_OTAP_FETCH_FAILED) {
 632:C:/Users/stapi/OneDrive/Desktop/GD32VW553/V1_MQTT_OK/GD32VW55X_Wifi_BLE_SDK/GD32VW55x_RELEASE_V1.0.2/MSDK/cloud/alicloud/src/services/ota\iotx_ota.c ****         if(h_ota->type == IOT_OTAT_FOTA_OFFLINE) {
 633:C:/Users/stapi/OneDrive/Desktop/GD32VW553/V1_MQTT_OK/GD32VW55X_Wifi_BLE_SDK/GD32VW55x_RELEASE_V1.0.2/MSDK/cloud/alicloud/src/services/ota\iotx_ota.c ****             /*notify 10 times to assure APP to receive successfully */
 634:C:/Users/stapi/OneDrive/Desktop/GD32VW553/V1_MQTT_OK/GD32VW55X_Wifi_BLE_SDK/GD32VW55x_RELEASE_V1.0.2/MSDK/cloud/alicloud/src/services/ota\iotx_ota.c ****             uint8_t i = 0;
 635:C:/Users/stapi/OneDrive/Desktop/GD32VW553/V1_MQTT_OK/GD32VW55X_Wifi_BLE_SDK/GD32VW55x_RELEASE_V1.0.2/MSDK/cloud/alicloud/src/services/ota\iotx_ota.c ****             for(; i < 10; i++) {
 636:C:/Users/stapi/OneDrive/Desktop/GD32VW553/V1_MQTT_OK/GD32VW55X_Wifi_BLE_SDK/GD32VW55x_RELEASE_V1.0.2/MSDK/cloud/alicloud/src/services/ota\iotx_ota.c ****                 dev_notify_offline_ota_result(DEV_OFFLINE_OTA_RSP_DOWNLOAD_FAILED);
 637:C:/Users/stapi/OneDrive/Desktop/GD32VW553/V1_MQTT_OK/GD32VW55X_Wifi_BLE_SDK/GD32VW55x_RELEASE_V1.0.2/MSDK/cloud/alicloud/src/services/ota\iotx_ota.c ****                 HAL_SleepMs(300);
 638:C:/Users/stapi/OneDrive/Desktop/GD32VW553/V1_MQTT_OK/GD32VW55X_Wifi_BLE_SDK/GD32VW55x_RELEASE_V1.0.2/MSDK/cloud/alicloud/src/services/ota\iotx_ota.c ****             }
 639:C:/Users/stapi/OneDrive/Desktop/GD32VW553/V1_MQTT_OK/GD32VW55X_Wifi_BLE_SDK/GD32VW55x_RELEASE_V1.0.2/MSDK/cloud/alicloud/src/services/ota\iotx_ota.c ****         }
 640:C:/Users/stapi/OneDrive/Desktop/GD32VW553/V1_MQTT_OK/GD32VW55X_Wifi_BLE_SDK/GD32VW55x_RELEASE_V1.0.2/MSDK/cloud/alicloud/src/services/ota\iotx_ota.c ****     }
 641:C:/Users/stapi/OneDrive/Desktop/GD32VW553/V1_MQTT_OK/GD32VW55X_Wifi_BLE_SDK/GD32VW55x_RELEASE_V1.0.2/MSDK/cloud/alicloud/src/services/ota\iotx_ota.c **** #endif
 642:C:/Users/stapi/OneDrive/Desktop/GD32VW553/V1_MQTT_OK/GD32VW55X_Wifi_BLE_SDK/GD32VW55x_RELEASE_V1.0.2/MSDK/cloud/alicloud/src/services/ota\iotx_ota.c ****     if (NULL == (msg_reported = OTA_MALLOC(MSG_REPORT_LEN))) {
 643:C:/Users/stapi/OneDrive/Desktop/GD32VW553/V1_MQTT_OK/GD32VW55X_Wifi_BLE_SDK/GD32VW55x_RELEASE_V1.0.2/MSDK/cloud/alicloud/src/services/ota\iotx_ota.c ****         OTA_LOG_ERROR("allocate for msg_reported failed");
 644:C:/Users/stapi/OneDrive/Desktop/GD32VW553/V1_MQTT_OK/GD32VW55X_Wifi_BLE_SDK/GD32VW55x_RELEASE_V1.0.2/MSDK/cloud/alicloud/src/services/ota\iotx_ota.c ****         h_ota->err = IOT_OTAE_NOMEM;
 645:C:/Users/stapi/OneDrive/Desktop/GD32VW553/V1_MQTT_OK/GD32VW55X_Wifi_BLE_SDK/GD32VW55x_RELEASE_V1.0.2/MSDK/cloud/alicloud/src/services/ota\iotx_ota.c ****         return -1;
 646:C:/Users/stapi/OneDrive/Desktop/GD32VW553/V1_MQTT_OK/GD32VW55X_Wifi_BLE_SDK/GD32VW55x_RELEASE_V1.0.2/MSDK/cloud/alicloud/src/services/ota\iotx_ota.c ****     }
 647:C:/Users/stapi/OneDrive/Desktop/GD32VW553/V1_MQTT_OK/GD32VW55X_Wifi_BLE_SDK/GD32VW55x_RELEASE_V1.0.2/MSDK/cloud/alicloud/src/services/ota\iotx_ota.c **** 
 648:C:/Users/stapi/OneDrive/Desktop/GD32VW553/V1_MQTT_OK/GD32VW55X_Wifi_BLE_SDK/GD32VW55x_RELEASE_V1.0.2/MSDK/cloud/alicloud/src/services/ota\iotx_ota.c ****     ret = otalib_GenReportMsg(msg_reported, MSG_REPORT_LEN, h_ota->id, progress, msg);
 649:C:/Users/stapi/OneDrive/Desktop/GD32VW553/V1_MQTT_OK/GD32VW55X_Wifi_BLE_SDK/GD32VW55x_RELEASE_V1.0.2/MSDK/cloud/alicloud/src/services/ota\iotx_ota.c ****     if (0 != ret) {
 650:C:/Users/stapi/OneDrive/Desktop/GD32VW553/V1_MQTT_OK/GD32VW55X_Wifi_BLE_SDK/GD32VW55x_RELEASE_V1.0.2/MSDK/cloud/alicloud/src/services/ota\iotx_ota.c ****         OTA_LOG_ERROR("generate reported message failed");
 651:C:/Users/stapi/OneDrive/Desktop/GD32VW553/V1_MQTT_OK/GD32VW55X_Wifi_BLE_SDK/GD32VW55x_RELEASE_V1.0.2/MSDK/cloud/alicloud/src/services/ota\iotx_ota.c ****         h_ota->err = ret;
 652:C:/Users/stapi/OneDrive/Desktop/GD32VW553/V1_MQTT_OK/GD32VW55X_Wifi_BLE_SDK/GD32VW55x_RELEASE_V1.0.2/MSDK/cloud/alicloud/src/services/ota\iotx_ota.c ****         goto do_exit;
 653:C:/Users/stapi/OneDrive/Desktop/GD32VW553/V1_MQTT_OK/GD32VW55X_Wifi_BLE_SDK/GD32VW55x_RELEASE_V1.0.2/MSDK/cloud/alicloud/src/services/ota\iotx_ota.c ****     }
 654:C:/Users/stapi/OneDrive/Desktop/GD32VW553/V1_MQTT_OK/GD32VW55X_Wifi_BLE_SDK/GD32VW55x_RELEASE_V1.0.2/MSDK/cloud/alicloud/src/services/ota\iotx_ota.c **** 
 655:C:/Users/stapi/OneDrive/Desktop/GD32VW553/V1_MQTT_OK/GD32VW55X_Wifi_BLE_SDK/GD32VW55x_RELEASE_V1.0.2/MSDK/cloud/alicloud/src/services/ota\iotx_ota.c ****     ret = osc_ReportProgress(h_ota->ch_signal, msg_reported);
 656:C:/Users/stapi/OneDrive/Desktop/GD32VW553/V1_MQTT_OK/GD32VW55X_Wifi_BLE_SDK/GD32VW55x_RELEASE_V1.0.2/MSDK/cloud/alicloud/src/services/ota\iotx_ota.c ****     if (0 != ret) {
 657:C:/Users/stapi/OneDrive/Desktop/GD32VW553/V1_MQTT_OK/GD32VW55X_Wifi_BLE_SDK/GD32VW55x_RELEASE_V1.0.2/MSDK/cloud/alicloud/src/services/ota\iotx_ota.c ****         OTA_LOG_ERROR("Report progress failed");
 658:C:/Users/stapi/OneDrive/Desktop/GD32VW553/V1_MQTT_OK/GD32VW55X_Wifi_BLE_SDK/GD32VW55x_RELEASE_V1.0.2/MSDK/cloud/alicloud/src/services/ota\iotx_ota.c ****         h_ota->err = ret;
 659:C:/Users/stapi/OneDrive/Desktop/GD32VW553/V1_MQTT_OK/GD32VW55X_Wifi_BLE_SDK/GD32VW55x_RELEASE_V1.0.2/MSDK/cloud/alicloud/src/services/ota\iotx_ota.c ****         goto do_exit;
 660:C:/Users/stapi/OneDrive/Desktop/GD32VW553/V1_MQTT_OK/GD32VW55X_Wifi_BLE_SDK/GD32VW55x_RELEASE_V1.0.2/MSDK/cloud/alicloud/src/services/ota\iotx_ota.c ****     }
 661:C:/Users/stapi/OneDrive/Desktop/GD32VW553/V1_MQTT_OK/GD32VW55X_Wifi_BLE_SDK/GD32VW55x_RELEASE_V1.0.2/MSDK/cloud/alicloud/src/services/ota\iotx_ota.c **** 
 662:C:/Users/stapi/OneDrive/Desktop/GD32VW553/V1_MQTT_OK/GD32VW55X_Wifi_BLE_SDK/GD32VW55x_RELEASE_V1.0.2/MSDK/cloud/alicloud/src/services/ota\iotx_ota.c ****     ret = 0;
 663:C:/Users/stapi/OneDrive/Desktop/GD32VW553/V1_MQTT_OK/GD32VW55X_Wifi_BLE_SDK/GD32VW55x_RELEASE_V1.0.2/MSDK/cloud/alicloud/src/services/ota\iotx_ota.c **** 
 664:C:/Users/stapi/OneDrive/Desktop/GD32VW553/V1_MQTT_OK/GD32VW55X_Wifi_BLE_SDK/GD32VW55x_RELEASE_V1.0.2/MSDK/cloud/alicloud/src/services/ota\iotx_ota.c **** do_exit:
 665:C:/Users/stapi/OneDrive/Desktop/GD32VW553/V1_MQTT_OK/GD32VW55X_Wifi_BLE_SDK/GD32VW55x_RELEASE_V1.0.2/MSDK/cloud/alicloud/src/services/ota\iotx_ota.c ****     if (NULL != msg_reported) {
 666:C:/Users/stapi/OneDrive/Desktop/GD32VW553/V1_MQTT_OK/GD32VW55X_Wifi_BLE_SDK/GD32VW55x_RELEASE_V1.0.2/MSDK/cloud/alicloud/src/services/ota\iotx_ota.c ****         OTA_FREE(msg_reported);
 667:C:/Users/stapi/OneDrive/Desktop/GD32VW553/V1_MQTT_OK/GD32VW55X_Wifi_BLE_SDK/GD32VW55x_RELEASE_V1.0.2/MSDK/cloud/alicloud/src/services/ota\iotx_ota.c ****     }
 668:C:/Users/stapi/OneDrive/Desktop/GD32VW553/V1_MQTT_OK/GD32VW55X_Wifi_BLE_SDK/GD32VW55x_RELEASE_V1.0.2/MSDK/cloud/alicloud/src/services/ota\iotx_ota.c ****     return ret;
 669:C:/Users/stapi/OneDrive/Desktop/GD32VW553/V1_MQTT_OK/GD32VW55X_Wifi_BLE_SDK/GD32VW55x_RELEASE_V1.0.2/MSDK/cloud/alicloud/src/services/ota\iotx_ota.c **** 
 670:C:/Users/stapi/OneDrive/Desktop/GD32VW553/V1_MQTT_OK/GD32VW55X_Wifi_BLE_SDK/GD32VW55x_RELEASE_V1.0.2/MSDK/cloud/alicloud/src/services/ota\iotx_ota.c **** #undef MSG_REPORT_LEN
 671:C:/Users/stapi/OneDrive/Desktop/GD32VW553/V1_MQTT_OK/GD32VW55X_Wifi_BLE_SDK/GD32VW55x_RELEASE_V1.0.2/MSDK/cloud/alicloud/src/services/ota\iotx_ota.c **** }
 2776              		.loc 2 671 1
 2777 003e 2285     		mv	a0,s0
 2778 0040 4101     		addi	sp,sp,16
 2779              		.cfi_remember_state
 2780              		.cfi_def_cfa_offset 0
 2781 0042 17030000 		tail	__riscv_restore_3
 2781      67000300 
 2782              		.cfi_restore 18
 2783              		.cfi_restore 9
 2784              		.cfi_restore 8
 2785              		.cfi_restore 1
 2786              		.cfi_def_cfa_offset -16
 2787              	.LVL336:
 2788              	.L279:
 2789              		.cfi_restore_state
 619:C:/Users/stapi/OneDrive/Desktop/GD32VW553/V1_MQTT_OK/GD32VW55X_Wifi_BLE_SDK/GD32VW55x_RELEASE_V1.0.2/MSDK/cloud/alicloud/src/services/ota\iotx_ota.c ****         OTA_LOG_ERROR("handle is uninitialized");
 2790              		.loc 2 619 8
 2791 004a 5C45     		lw	a5,12(a0)
 2792 004c AA84     		mv	s1,a0
 619:C:/Users/stapi/OneDrive/Desktop/GD32VW553/V1_MQTT_OK/GD32VW55X_Wifi_BLE_SDK/GD32VW55x_RELEASE_V1.0.2/MSDK/cloud/alicloud/src/services/ota\iotx_ota.c ****         OTA_LOG_ERROR("handle is uninitialized");
 2793              		.loc 2 619 5 is_stmt 1
 619:C:/Users/stapi/OneDrive/Desktop/GD32VW553/V1_MQTT_OK/GD32VW55X_Wifi_BLE_SDK/GD32VW55x_RELEASE_V1.0.2/MSDK/cloud/alicloud/src/services/ota\iotx_ota.c ****         OTA_LOG_ERROR("handle is uninitialized");
 2794              		.loc 2 619 8 is_stmt 0
 2795 004e 8DEF     		bne	a5,zero,.L281
 2796              	.LVL337:
 620:C:/Users/stapi/OneDrive/Desktop/GD32VW553/V1_MQTT_OK/GD32VW55X_Wifi_BLE_SDK/GD32VW55x_RELEASE_V1.0.2/MSDK/cloud/alicloud/src/services/ota\iotx_ota.c ****         h_ota->err = IOT_OTAE_INVALID_STATE;
 2797              		.loc 2 620 9 is_stmt 1
 620:C:/Users/stapi/OneDrive/Desktop/GD32VW553/V1_MQTT_OK/GD32VW55X_Wifi_BLE_SDK/GD32VW55x_RELEASE_V1.0.2/MSDK/cloud/alicloud/src/services/ota\iotx_ota.c ****         h_ota->err = IOT_OTAE_INVALID_STATE;
 2798              		.loc 2 620 9
 2799 0050 37050000 		lui	a0,%hi(.LC21)
 2800 0054 13050500 		addi	a0,a0,%lo(.LC21)
 2801 0058 97000000 		call	HAL_Printf
 2801      E7800000 
 2802              	.LVL338:
 620:C:/Users/stapi/OneDrive/Desktop/GD32VW553/V1_MQTT_OK/GD32VW55X_Wifi_BLE_SDK/GD32VW55x_RELEASE_V1.0.2/MSDK/cloud/alicloud/src/services/ota\iotx_ota.c ****         h_ota->err = IOT_OTAE_INVALID_STATE;
 2803              		.loc 2 620 9
 2804 0060 37050000 		lui	a0,%hi(.LC58)
 2805 0064 13050500 		addi	a0,a0,%lo(.LC58)
 2806 0068 97000000 		call	HAL_Printf
 2806      E7800000 
 2807              	.LVL339:
 620:C:/Users/stapi/OneDrive/Desktop/GD32VW553/V1_MQTT_OK/GD32VW55X_Wifi_BLE_SDK/GD32VW55x_RELEASE_V1.0.2/MSDK/cloud/alicloud/src/services/ota\iotx_ota.c ****         h_ota->err = IOT_OTAE_INVALID_STATE;
 2808              		.loc 2 620 9
 2809 0070 37050000 		lui	a0,%hi(.LC11)
 2810 0074 13050500 		addi	a0,a0,%lo(.LC11)
 2811 0078 97000000 		call	HAL_Printf
 2811      E7800000 
 2812              	.LVL340:
 620:C:/Users/stapi/OneDrive/Desktop/GD32VW553/V1_MQTT_OK/GD32VW55X_Wifi_BLE_SDK/GD32VW55x_RELEASE_V1.0.2/MSDK/cloud/alicloud/src/services/ota\iotx_ota.c ****         h_ota->err = IOT_OTAE_INVALID_STATE;
 2813              		.loc 2 620 9
 621:C:/Users/stapi/OneDrive/Desktop/GD32VW553/V1_MQTT_OK/GD32VW55X_Wifi_BLE_SDK/GD32VW55x_RELEASE_V1.0.2/MSDK/cloud/alicloud/src/services/ota\iotx_ota.c ****         return -1;
 2814              		.loc 2 621 9
 621:C:/Users/stapi/OneDrive/Desktop/GD32VW553/V1_MQTT_OK/GD32VW55X_Wifi_BLE_SDK/GD32VW55x_RELEASE_V1.0.2/MSDK/cloud/alicloud/src/services/ota\iotx_ota.c ****         return -1;
 2815              		.loc 2 621 20 is_stmt 0
 2816 0080 F557     		li	a5,-3
 2817              	.L291:
 644:C:/Users/stapi/OneDrive/Desktop/GD32VW553/V1_MQTT_OK/GD32VW55X_Wifi_BLE_SDK/GD32VW55x_RELEASE_V1.0.2/MSDK/cloud/alicloud/src/services/ota\iotx_ota.c ****         return -1;
 2818              		.loc 2 644 20
 2819 0082 FCD8     		sw	a5,116(s1)
 645:C:/Users/stapi/OneDrive/Desktop/GD32VW553/V1_MQTT_OK/GD32VW55X_Wifi_BLE_SDK/GD32VW55x_RELEASE_V1.0.2/MSDK/cloud/alicloud/src/services/ota\iotx_ota.c ****     }
 2820              		.loc 2 645 9 is_stmt 1
 645:C:/Users/stapi/OneDrive/Desktop/GD32VW553/V1_MQTT_OK/GD32VW55X_Wifi_BLE_SDK/GD32VW55x_RELEASE_V1.0.2/MSDK/cloud/alicloud/src/services/ota\iotx_ota.c ****     }
 2821              		.loc 2 645 16 is_stmt 0
 2822 0084 7D54     		li	s0,-1
 2823 0086 65BF     		j	.L278
 2824              	.LVL341:
 2825              	.L281:
 2826 0088 3287     		mv	a4,a2
 624:C:/Users/stapi/OneDrive/Desktop/GD32VW553/V1_MQTT_OK/GD32VW55X_Wifi_BLE_SDK/GD32VW55x_RELEASE_V1.0.2/MSDK/cloud/alicloud/src/services/ota\iotx_ota.c ****         OTA_LOG_ERROR("progress is a invalid parameter");
 2827              		.loc 2 624 5 is_stmt 1
 2828              	.LVL342:
 2829              	.LBB11:
 2830              	.LBB12:
  62:C:/Users/stapi/OneDrive/Desktop/GD32VW553/V1_MQTT_OK/GD32VW55X_Wifi_BLE_SDK/GD32VW55x_RELEASE_V1.0.2/MSDK/cloud/alicloud/src/services/ota\iotx_ota.c ****             && (progress <= IOT_OTAP_FETCH_PERCENTAGE_MAX));
 2831              		.loc 2 62 5
  63:C:/Users/stapi/OneDrive/Desktop/GD32VW553/V1_MQTT_OK/GD32VW55X_Wifi_BLE_SDK/GD32VW55x_RELEASE_V1.0.2/MSDK/cloud/alicloud/src/services/ota\iotx_ota.c **** }
 2832              		.loc 2 63 13 is_stmt 0
 2833 008a 93874500 		addi	a5,a1,4
 2834              	.LBE12:
 2835              	.LBE11:
 624:C:/Users/stapi/OneDrive/Desktop/GD32VW553/V1_MQTT_OK/GD32VW55X_Wifi_BLE_SDK/GD32VW55x_RELEASE_V1.0.2/MSDK/cloud/alicloud/src/services/ota\iotx_ota.c ****         OTA_LOG_ERROR("progress is a invalid parameter");
 2836              		.loc 2 624 8
 2837 008e 13068006 		li	a2,104
 2838              	.LVL343:
 2839 0092 637CF602 		bleu	a5,a2,.L282
 625:C:/Users/stapi/OneDrive/Desktop/GD32VW553/V1_MQTT_OK/GD32VW55X_Wifi_BLE_SDK/GD32VW55x_RELEASE_V1.0.2/MSDK/cloud/alicloud/src/services/ota\iotx_ota.c ****         h_ota->err = IOT_OTAE_INVALID_PARAM;
 2840              		.loc 2 625 9 is_stmt 1
 625:C:/Users/stapi/OneDrive/Desktop/GD32VW553/V1_MQTT_OK/GD32VW55X_Wifi_BLE_SDK/GD32VW55x_RELEASE_V1.0.2/MSDK/cloud/alicloud/src/services/ota\iotx_ota.c ****         h_ota->err = IOT_OTAE_INVALID_PARAM;
 2841              		.loc 2 625 9
 2842 0096 37050000 		lui	a0,%hi(.LC21)
 2843 009a 13050500 		addi	a0,a0,%lo(.LC21)
 2844 009e 97000000 		call	HAL_Printf
 2844      E7800000 
 2845              	.LVL344:
 625:C:/Users/stapi/OneDrive/Desktop/GD32VW553/V1_MQTT_OK/GD32VW55X_Wifi_BLE_SDK/GD32VW55x_RELEASE_V1.0.2/MSDK/cloud/alicloud/src/services/ota\iotx_ota.c ****         h_ota->err = IOT_OTAE_INVALID_PARAM;
 2846              		.loc 2 625 9
 2847 00a6 37050000 		lui	a0,%hi(.LC67)
 2848 00aa 13050500 		addi	a0,a0,%lo(.LC67)
 2849 00ae 97000000 		call	HAL_Printf
 2849      E7800000 
 2850              	.LVL345:
 625:C:/Users/stapi/OneDrive/Desktop/GD32VW553/V1_MQTT_OK/GD32VW55X_Wifi_BLE_SDK/GD32VW55x_RELEASE_V1.0.2/MSDK/cloud/alicloud/src/services/ota\iotx_ota.c ****         h_ota->err = IOT_OTAE_INVALID_PARAM;
 2851              		.loc 2 625 9
 2852 00b6 37050000 		lui	a0,%hi(.LC11)
 2853 00ba 13050500 		addi	a0,a0,%lo(.LC11)
 2854 00be 97000000 		call	HAL_Printf
 2854      E7800000 
 2855              	.LVL346:
 625:C:/Users/stapi/OneDrive/Desktop/GD32VW553/V1_MQTT_OK/GD32VW55X_Wifi_BLE_SDK/GD32VW55x_RELEASE_V1.0.2/MSDK/cloud/alicloud/src/services/ota\iotx_ota.c ****         h_ota->err = IOT_OTAE_INVALID_PARAM;
 2856              		.loc 2 625 9
 626:C:/Users/stapi/OneDrive/Desktop/GD32VW553/V1_MQTT_OK/GD32VW55X_Wifi_BLE_SDK/GD32VW55x_RELEASE_V1.0.2/MSDK/cloud/alicloud/src/services/ota\iotx_ota.c ****         return -1;
 2857              		.loc 2 626 9
 626:C:/Users/stapi/OneDrive/Desktop/GD32VW553/V1_MQTT_OK/GD32VW55X_Wifi_BLE_SDK/GD32VW55x_RELEASE_V1.0.2/MSDK/cloud/alicloud/src/services/ota\iotx_ota.c ****         return -1;
 2858              		.loc 2 626 20 is_stmt 0
 2859 00c6 F957     		li	a5,-2
 2860 00c8 6DBF     		j	.L291
 2861              	.LVL347:
 2862              	.L282:
 2863 00ca 2EC4     		sw	a1,8(sp)
 642:C:/Users/stapi/OneDrive/Desktop/GD32VW553/V1_MQTT_OK/GD32VW55X_Wifi_BLE_SDK/GD32VW55x_RELEASE_V1.0.2/MSDK/cloud/alicloud/src/services/ota\iotx_ota.c ****         OTA_LOG_ERROR("allocate for msg_reported failed");
 2864              		.loc 2 642 5 is_stmt 1
 642:C:/Users/stapi/OneDrive/Desktop/GD32VW553/V1_MQTT_OK/GD32VW55X_Wifi_BLE_SDK/GD32VW55x_RELEASE_V1.0.2/MSDK/cloud/alicloud/src/services/ota\iotx_ota.c ****         OTA_LOG_ERROR("allocate for msg_reported failed");
 2865              		.loc 2 642 33 is_stmt 0
 2866 00cc 13060010 		li	a2,256
 2867 00d0 8145     		li	a1,0
 2868              	.LVL348:
 2869 00d2 0145     		li	a0,0
 2870 00d4 3AC6     		sw	a4,12(sp)
 2871 00d6 97000000 		call	LITE_malloc_internal
 2871      E7800000 
 2872              	.LVL349:
 642:C:/Users/stapi/OneDrive/Desktop/GD32VW553/V1_MQTT_OK/GD32VW55X_Wifi_BLE_SDK/GD32VW55x_RELEASE_V1.0.2/MSDK/cloud/alicloud/src/services/ota\iotx_ota.c ****         OTA_LOG_ERROR("allocate for msg_reported failed");
 2873              		.loc 2 642 8
 2874 00de A246     		lw	a3,8(sp)
 2875 00e0 3247     		lw	a4,12(sp)
 642:C:/Users/stapi/OneDrive/Desktop/GD32VW553/V1_MQTT_OK/GD32VW55X_Wifi_BLE_SDK/GD32VW55x_RELEASE_V1.0.2/MSDK/cloud/alicloud/src/services/ota\iotx_ota.c ****         OTA_LOG_ERROR("allocate for msg_reported failed");
 2876              		.loc 2 642 33
 2877 00e2 2A89     		mv	s2,a0
 2878              	.LVL350:
 642:C:/Users/stapi/OneDrive/Desktop/GD32VW553/V1_MQTT_OK/GD32VW55X_Wifi_BLE_SDK/GD32VW55x_RELEASE_V1.0.2/MSDK/cloud/alicloud/src/services/ota\iotx_ota.c ****         OTA_LOG_ERROR("allocate for msg_reported failed");
 2879              		.loc 2 642 8
 2880 00e4 1DE9     		bne	a0,zero,.L283
 643:C:/Users/stapi/OneDrive/Desktop/GD32VW553/V1_MQTT_OK/GD32VW55X_Wifi_BLE_SDK/GD32VW55x_RELEASE_V1.0.2/MSDK/cloud/alicloud/src/services/ota\iotx_ota.c ****         h_ota->err = IOT_OTAE_NOMEM;
 2881              		.loc 2 643 9 is_stmt 1
 643:C:/Users/stapi/OneDrive/Desktop/GD32VW553/V1_MQTT_OK/GD32VW55X_Wifi_BLE_SDK/GD32VW55x_RELEASE_V1.0.2/MSDK/cloud/alicloud/src/services/ota\iotx_ota.c ****         h_ota->err = IOT_OTAE_NOMEM;
 2882              		.loc 2 643 9
 2883 00e6 37050000 		lui	a0,%hi(.LC21)
 2884              	.LVL351:
 2885 00ea 13050500 		addi	a0,a0,%lo(.LC21)
 2886 00ee 97000000 		call	HAL_Printf
 2886      E7800000 
 2887              	.LVL352:
 643:C:/Users/stapi/OneDrive/Desktop/GD32VW553/V1_MQTT_OK/GD32VW55X_Wifi_BLE_SDK/GD32VW55x_RELEASE_V1.0.2/MSDK/cloud/alicloud/src/services/ota\iotx_ota.c ****         h_ota->err = IOT_OTAE_NOMEM;
 2888              		.loc 2 643 9
 2889 00f6 37050000 		lui	a0,%hi(.LC68)
 2890 00fa 13050500 		addi	a0,a0,%lo(.LC68)
 2891 00fe 97000000 		call	HAL_Printf
 2891      E7800000 
 2892              	.LVL353:
 643:C:/Users/stapi/OneDrive/Desktop/GD32VW553/V1_MQTT_OK/GD32VW55X_Wifi_BLE_SDK/GD32VW55x_RELEASE_V1.0.2/MSDK/cloud/alicloud/src/services/ota\iotx_ota.c ****         h_ota->err = IOT_OTAE_NOMEM;
 2893              		.loc 2 643 9
 2894 0106 37050000 		lui	a0,%hi(.LC11)
 2895 010a 13050500 		addi	a0,a0,%lo(.LC11)
 2896 010e 97000000 		call	HAL_Printf
 2896      E7800000 
 2897              	.LVL354:
 643:C:/Users/stapi/OneDrive/Desktop/GD32VW553/V1_MQTT_OK/GD32VW55X_Wifi_BLE_SDK/GD32VW55x_RELEASE_V1.0.2/MSDK/cloud/alicloud/src/services/ota\iotx_ota.c ****         h_ota->err = IOT_OTAE_NOMEM;
 2898              		.loc 2 643 9
 644:C:/Users/stapi/OneDrive/Desktop/GD32VW553/V1_MQTT_OK/GD32VW55X_Wifi_BLE_SDK/GD32VW55x_RELEASE_V1.0.2/MSDK/cloud/alicloud/src/services/ota\iotx_ota.c ****         return -1;
 2899              		.loc 2 644 9
 644:C:/Users/stapi/OneDrive/Desktop/GD32VW553/V1_MQTT_OK/GD32VW55X_Wifi_BLE_SDK/GD32VW55x_RELEASE_V1.0.2/MSDK/cloud/alicloud/src/services/ota\iotx_ota.c ****         return -1;
 2900              		.loc 2 644 20 is_stmt 0
 2901 0116 E957     		li	a5,-6
 2902 0118 ADB7     		j	.L291
 2903              	.LVL355:
 2904              	.L283:
 648:C:/Users/stapi/OneDrive/Desktop/GD32VW553/V1_MQTT_OK/GD32VW55X_Wifi_BLE_SDK/GD32VW55x_RELEASE_V1.0.2/MSDK/cloud/alicloud/src/services/ota\iotx_ota.c ****     if (0 != ret) {
 2905              		.loc 2 648 5 is_stmt 1
 648:C:/Users/stapi/OneDrive/Desktop/GD32VW553/V1_MQTT_OK/GD32VW55X_Wifi_BLE_SDK/GD32VW55x_RELEASE_V1.0.2/MSDK/cloud/alicloud/src/services/ota\iotx_ota.c ****     if (0 != ret) {
 2906              		.loc 2 648 11 is_stmt 0
 2907 011a 9044     		lw	a2,8(s1)
 2908 011c 93050010 		li	a1,256
 2909 0120 97000000 		call	otalib_GenReportMsg
 2909      E7800000 
 2910              	.LVL356:
 2911 0128 2A84     		mv	s0,a0
 2912              	.LVL357:
 649:C:/Users/stapi/OneDrive/Desktop/GD32VW553/V1_MQTT_OK/GD32VW55X_Wifi_BLE_SDK/GD32VW55x_RELEASE_V1.0.2/MSDK/cloud/alicloud/src/services/ota\iotx_ota.c ****         OTA_LOG_ERROR("generate reported message failed");
 2913              		.loc 2 649 5 is_stmt 1
 649:C:/Users/stapi/OneDrive/Desktop/GD32VW553/V1_MQTT_OK/GD32VW55X_Wifi_BLE_SDK/GD32VW55x_RELEASE_V1.0.2/MSDK/cloud/alicloud/src/services/ota\iotx_ota.c ****         OTA_LOG_ERROR("generate reported message failed");
 2914              		.loc 2 649 8 is_stmt 0
 2915 012a 21C1     		beq	a0,zero,.L284
 650:C:/Users/stapi/OneDrive/Desktop/GD32VW553/V1_MQTT_OK/GD32VW55X_Wifi_BLE_SDK/GD32VW55x_RELEASE_V1.0.2/MSDK/cloud/alicloud/src/services/ota\iotx_ota.c ****         h_ota->err = ret;
 2916              		.loc 2 650 9 is_stmt 1
 650:C:/Users/stapi/OneDrive/Desktop/GD32VW553/V1_MQTT_OK/GD32VW55X_Wifi_BLE_SDK/GD32VW55x_RELEASE_V1.0.2/MSDK/cloud/alicloud/src/services/ota\iotx_ota.c ****         h_ota->err = ret;
 2917              		.loc 2 650 9
 2918 012c 37050000 		lui	a0,%hi(.LC21)
 2919 0130 13050500 		addi	a0,a0,%lo(.LC21)
 2920 0134 97000000 		call	HAL_Printf
 2920      E7800000 
 2921              	.LVL358:
 650:C:/Users/stapi/OneDrive/Desktop/GD32VW553/V1_MQTT_OK/GD32VW55X_Wifi_BLE_SDK/GD32VW55x_RELEASE_V1.0.2/MSDK/cloud/alicloud/src/services/ota\iotx_ota.c ****         h_ota->err = ret;
 2922              		.loc 2 650 9
 2923 013c 37050000 		lui	a0,%hi(.LC69)
 2924 0140 13050500 		addi	a0,a0,%lo(.LC69)
 2925              	.L290:
 657:C:/Users/stapi/OneDrive/Desktop/GD32VW553/V1_MQTT_OK/GD32VW55X_Wifi_BLE_SDK/GD32VW55x_RELEASE_V1.0.2/MSDK/cloud/alicloud/src/services/ota\iotx_ota.c ****         h_ota->err = ret;
 2926              		.loc 2 657 9 is_stmt 0
 2927 0144 97000000 		call	HAL_Printf
 2927      E7800000 
 2928              	.LVL359:
 657:C:/Users/stapi/OneDrive/Desktop/GD32VW553/V1_MQTT_OK/GD32VW55X_Wifi_BLE_SDK/GD32VW55x_RELEASE_V1.0.2/MSDK/cloud/alicloud/src/services/ota\iotx_ota.c ****         h_ota->err = ret;
 2929              		.loc 2 657 9 is_stmt 1
 2930 014c 37050000 		lui	a0,%hi(.LC11)
 2931 0150 13050500 		addi	a0,a0,%lo(.LC11)
 2932 0154 97000000 		call	HAL_Printf
 2932      E7800000 
 2933              	.LVL360:
 657:C:/Users/stapi/OneDrive/Desktop/GD32VW553/V1_MQTT_OK/GD32VW55X_Wifi_BLE_SDK/GD32VW55x_RELEASE_V1.0.2/MSDK/cloud/alicloud/src/services/ota\iotx_ota.c ****         h_ota->err = ret;
 2934              		.loc 2 657 9
 658:C:/Users/stapi/OneDrive/Desktop/GD32VW553/V1_MQTT_OK/GD32VW55X_Wifi_BLE_SDK/GD32VW55x_RELEASE_V1.0.2/MSDK/cloud/alicloud/src/services/ota\iotx_ota.c ****         goto do_exit;
 2935              		.loc 2 658 9
 658:C:/Users/stapi/OneDrive/Desktop/GD32VW553/V1_MQTT_OK/GD32VW55X_Wifi_BLE_SDK/GD32VW55x_RELEASE_V1.0.2/MSDK/cloud/alicloud/src/services/ota\iotx_ota.c ****         goto do_exit;
 2936              		.loc 2 658 20 is_stmt 0
 2937 015c E0D8     		sw	s0,116(s1)
 659:C:/Users/stapi/OneDrive/Desktop/GD32VW553/V1_MQTT_OK/GD32VW55X_Wifi_BLE_SDK/GD32VW55x_RELEASE_V1.0.2/MSDK/cloud/alicloud/src/services/ota\iotx_ota.c ****     }
 2938              		.loc 2 659 9 is_stmt 1
 2939              	.L285:
 665:C:/Users/stapi/OneDrive/Desktop/GD32VW553/V1_MQTT_OK/GD32VW55X_Wifi_BLE_SDK/GD32VW55x_RELEASE_V1.0.2/MSDK/cloud/alicloud/src/services/ota\iotx_ota.c ****         OTA_FREE(msg_reported);
 2940              		.loc 2 665 5
 666:C:/Users/stapi/OneDrive/Desktop/GD32VW553/V1_MQTT_OK/GD32VW55X_Wifi_BLE_SDK/GD32VW55x_RELEASE_V1.0.2/MSDK/cloud/alicloud/src/services/ota\iotx_ota.c ****     }
 2941              		.loc 2 666 9
 2942 015e 4A85     		mv	a0,s2
 2943 0160 97000000 		call	LITE_free_internal
 2943      E7800000 
 2944              	.LVL361:
 668:C:/Users/stapi/OneDrive/Desktop/GD32VW553/V1_MQTT_OK/GD32VW55X_Wifi_BLE_SDK/GD32VW55x_RELEASE_V1.0.2/MSDK/cloud/alicloud/src/services/ota\iotx_ota.c **** 
 2945              		.loc 2 668 5
 668:C:/Users/stapi/OneDrive/Desktop/GD32VW553/V1_MQTT_OK/GD32VW55X_Wifi_BLE_SDK/GD32VW55x_RELEASE_V1.0.2/MSDK/cloud/alicloud/src/services/ota\iotx_ota.c **** 
 2946              		.loc 2 668 12 is_stmt 0
 2947 0168 D9BD     		j	.L278
 2948              	.L284:
 655:C:/Users/stapi/OneDrive/Desktop/GD32VW553/V1_MQTT_OK/GD32VW55X_Wifi_BLE_SDK/GD32VW55x_RELEASE_V1.0.2/MSDK/cloud/alicloud/src/services/ota\iotx_ota.c ****     if (0 != ret) {
 2949              		.loc 2 655 5 is_stmt 1
 655:C:/Users/stapi/OneDrive/Desktop/GD32VW553/V1_MQTT_OK/GD32VW55X_Wifi_BLE_SDK/GD32VW55x_RELEASE_V1.0.2/MSDK/cloud/alicloud/src/services/ota\iotx_ota.c ****     if (0 != ret) {
 2950              		.loc 2 655 11 is_stmt 0
 2951 016a E848     		lw	a0,84(s1)
 2952 016c CA85     		mv	a1,s2
 2953 016e 97000000 		call	osc_ReportProgress
 2953      E7800000 
 2954              	.LVL362:
 2955 0176 2A84     		mv	s0,a0
 2956              	.LVL363:
 656:C:/Users/stapi/OneDrive/Desktop/GD32VW553/V1_MQTT_OK/GD32VW55X_Wifi_BLE_SDK/GD32VW55x_RELEASE_V1.0.2/MSDK/cloud/alicloud/src/services/ota\iotx_ota.c ****         OTA_LOG_ERROR("Report progress failed");
 2957              		.loc 2 656 5 is_stmt 1
 656:C:/Users/stapi/OneDrive/Desktop/GD32VW553/V1_MQTT_OK/GD32VW55X_Wifi_BLE_SDK/GD32VW55x_RELEASE_V1.0.2/MSDK/cloud/alicloud/src/services/ota\iotx_ota.c ****         OTA_LOG_ERROR("Report progress failed");
 2958              		.loc 2 656 8 is_stmt 0
 2959 0178 7DD1     		beq	a0,zero,.L285
 657:C:/Users/stapi/OneDrive/Desktop/GD32VW553/V1_MQTT_OK/GD32VW55X_Wifi_BLE_SDK/GD32VW55x_RELEASE_V1.0.2/MSDK/cloud/alicloud/src/services/ota\iotx_ota.c ****         h_ota->err = ret;
 2960              		.loc 2 657 9 is_stmt 1
 657:C:/Users/stapi/OneDrive/Desktop/GD32VW553/V1_MQTT_OK/GD32VW55X_Wifi_BLE_SDK/GD32VW55x_RELEASE_V1.0.2/MSDK/cloud/alicloud/src/services/ota\iotx_ota.c ****         h_ota->err = ret;
 2961              		.loc 2 657 9
 2962 017a 37050000 		lui	a0,%hi(.LC21)
 2963 017e 13050500 		addi	a0,a0,%lo(.LC21)
 2964 0182 97000000 		call	HAL_Printf
 2964      E7800000 
 2965              	.LVL364:
 657:C:/Users/stapi/OneDrive/Desktop/GD32VW553/V1_MQTT_OK/GD32VW55X_Wifi_BLE_SDK/GD32VW55x_RELEASE_V1.0.2/MSDK/cloud/alicloud/src/services/ota\iotx_ota.c ****         h_ota->err = ret;
 2966              		.loc 2 657 9
 2967 018a 37050000 		lui	a0,%hi(.LC70)
 2968 018e 13050500 		addi	a0,a0,%lo(.LC70)
 2969 0192 4DBF     		j	.L290
 2970              		.cfi_endproc
 2971              	.LFE39:
 2973              		.section	.rodata.iotx_ota_get_config.str1.4,"aMS",@progbits,1
 2974              		.align	2
 2975              	.LC71:
 2976 0000 2F737973 		.string	"/sys/%s/%s/thing/config/get"
 2976      2F25732F 
 2976      25732F74 
 2976      68696E67 
 2976      2F636F6E 
 2977              		.align	2
 2978              	.LC72:
 2979 001c 7B226964 		.string	"{\"id\" : %d,\"version\":\"1.0\",\"params\":{\"configScope\":\"%s\",\"getType\":\"%s\",\"
 2979      22203A20 
 2979      25642C22 
 2979      76657273 
 2979      696F6E22 
 2980              		.section	.text.iotx_ota_get_config,"ax",@progbits
 2981              		.align	1
 2982              		.globl	iotx_ota_get_config
 2984              	iotx_ota_get_config:
 2985              	.LFB40:
 672:C:/Users/stapi/OneDrive/Desktop/GD32VW553/V1_MQTT_OK/GD32VW55X_Wifi_BLE_SDK/GD32VW55x_RELEASE_V1.0.2/MSDK/cloud/alicloud/src/services/ota\iotx_ota.c **** 
 673:C:/Users/stapi/OneDrive/Desktop/GD32VW553/V1_MQTT_OK/GD32VW55X_Wifi_BLE_SDK/GD32VW55x_RELEASE_V1.0.2/MSDK/cloud/alicloud/src/services/ota\iotx_ota.c **** int iotx_ota_get_config(void *handle, const char *configScope, const char *getType, const char *att
 674:C:/Users/stapi/OneDrive/Desktop/GD32VW553/V1_MQTT_OK/GD32VW55X_Wifi_BLE_SDK/GD32VW55x_RELEASE_V1.0.2/MSDK/cloud/alicloud/src/services/ota\iotx_ota.c **** {
 2986              		.loc 2 674 1
 2987              		.cfi_startproc
 2988              	.LVL365:
 2989 0000 17030000 		call	t0,__riscv_save_5
 2989      E7020300 
 2990              		.cfi_offset 20, -24
 2991              		.cfi_offset 19, -20
 2992              		.cfi_offset 18, -16
 2993              		.cfi_offset 9, -12
 2994              		.cfi_offset 8, -8
 2995              		.cfi_offset 1, -4
 2996              		.cfi_def_cfa_offset 32
 675:C:/Users/stapi/OneDrive/Desktop/GD32VW553/V1_MQTT_OK/GD32VW55X_Wifi_BLE_SDK/GD32VW55x_RELEASE_V1.0.2/MSDK/cloud/alicloud/src/services/ota\iotx_ota.c **** #define MSG_REPORT_LEN  (256)
 676:C:/Users/stapi/OneDrive/Desktop/GD32VW553/V1_MQTT_OK/GD32VW55X_Wifi_BLE_SDK/GD32VW55x_RELEASE_V1.0.2/MSDK/cloud/alicloud/src/services/ota\iotx_ota.c **** 
 677:C:/Users/stapi/OneDrive/Desktop/GD32VW553/V1_MQTT_OK/GD32VW55X_Wifi_BLE_SDK/GD32VW55x_RELEASE_V1.0.2/MSDK/cloud/alicloud/src/services/ota\iotx_ota.c ****     int ret = -1;
 2997              		.loc 2 677 5
 2998              	.LVL366:
 678:C:/Users/stapi/OneDrive/Desktop/GD32VW553/V1_MQTT_OK/GD32VW55X_Wifi_BLE_SDK/GD32VW55x_RELEASE_V1.0.2/MSDK/cloud/alicloud/src/services/ota\iotx_ota.c ****     char *msg_get;
 2999              		.loc 2 678 5
 679:C:/Users/stapi/OneDrive/Desktop/GD32VW553/V1_MQTT_OK/GD32VW55X_Wifi_BLE_SDK/GD32VW55x_RELEASE_V1.0.2/MSDK/cloud/alicloud/src/services/ota\iotx_ota.c ****     char topic[OTA_MQTT_TOPIC_LEN] = {0};
 3000              		.loc 2 679 5
 674:C:/Users/stapi/OneDrive/Desktop/GD32VW553/V1_MQTT_OK/GD32VW55X_Wifi_BLE_SDK/GD32VW55x_RELEASE_V1.0.2/MSDK/cloud/alicloud/src/services/ota\iotx_ota.c **** #define MSG_REPORT_LEN  (256)
 3001              		.loc 2 674 1 is_stmt 0
 3002 0008 3571     		addi	sp,sp,-160
 3003              		.cfi_def_cfa_offset 192
 674:C:/Users/stapi/OneDrive/Desktop/GD32VW553/V1_MQTT_OK/GD32VW55X_Wifi_BLE_SDK/GD32VW55x_RELEASE_V1.0.2/MSDK/cloud/alicloud/src/services/ota\iotx_ota.c **** #define MSG_REPORT_LEN  (256)
 3004              		.loc 2 674 1
 3005 000a 2A84     		mv	s0,a0
 3006 000c 2E89     		mv	s2,a1
 3007 000e B289     		mv	s3,a2
 3008              		.loc 2 679 10
 3009 0010 8145     		li	a1,0
 3010              	.LVL367:
 3011 0012 1306C007 		li	a2,124
 3012              	.LVL368:
 3013 0016 4810     		addi	a0,sp,36
 3014              	.LVL369:
 674:C:/Users/stapi/OneDrive/Desktop/GD32VW553/V1_MQTT_OK/GD32VW55X_Wifi_BLE_SDK/GD32VW55x_RELEASE_V1.0.2/MSDK/cloud/alicloud/src/services/ota\iotx_ota.c **** #define MSG_REPORT_LEN  (256)
 3015              		.loc 2 674 1
 3016 0018 368A     		mv	s4,a3
 3017              		.loc 2 679 10
 3018 001a 02D0     		sw	zero,32(sp)
 3019 001c 97000000 		call	memset
 3019      E7800000 
 3020              	.LVL370:
 680:C:/Users/stapi/OneDrive/Desktop/GD32VW553/V1_MQTT_OK/GD32VW55X_Wifi_BLE_SDK/GD32VW55x_RELEASE_V1.0.2/MSDK/cloud/alicloud/src/services/ota\iotx_ota.c ****     OTA_Struct_pt h_ota = (OTA_Struct_pt) handle;
 3021              		.loc 2 680 5 is_stmt 1
 681:C:/Users/stapi/OneDrive/Desktop/GD32VW553/V1_MQTT_OK/GD32VW55X_Wifi_BLE_SDK/GD32VW55x_RELEASE_V1.0.2/MSDK/cloud/alicloud/src/services/ota\iotx_ota.c ****     iotx_mqtt_topic_info_t topic_info;
 3022              		.loc 2 681 5
 682:C:/Users/stapi/OneDrive/Desktop/GD32VW553/V1_MQTT_OK/GD32VW55X_Wifi_BLE_SDK/GD32VW55x_RELEASE_V1.0.2/MSDK/cloud/alicloud/src/services/ota\iotx_ota.c **** 
 683:C:/Users/stapi/OneDrive/Desktop/GD32VW553/V1_MQTT_OK/GD32VW55X_Wifi_BLE_SDK/GD32VW55x_RELEASE_V1.0.2/MSDK/cloud/alicloud/src/services/ota\iotx_ota.c ****     memset(&topic_info, 0, sizeof(iotx_mqtt_topic_info_t));
 3023              		.loc 2 683 5
 3024 0024 02C6     		sw	zero,12(sp)
 3025 0026 02C8     		sw	zero,16(sp)
 3026 0028 02CA     		sw	zero,20(sp)
 3027 002a 02CC     		sw	zero,24(sp)
 3028 002c 02CE     		sw	zero,28(sp)
 684:C:/Users/stapi/OneDrive/Desktop/GD32VW553/V1_MQTT_OK/GD32VW55X_Wifi_BLE_SDK/GD32VW55x_RELEASE_V1.0.2/MSDK/cloud/alicloud/src/services/ota\iotx_ota.c **** 
 685:C:/Users/stapi/OneDrive/Desktop/GD32VW553/V1_MQTT_OK/GD32VW55X_Wifi_BLE_SDK/GD32VW55x_RELEASE_V1.0.2/MSDK/cloud/alicloud/src/services/ota\iotx_ota.c ****     if (NULL == handle) {
 3029              		.loc 2 685 5
 3030              		.loc 2 685 8 is_stmt 0
 3031 002e 21E0     		bne	s0,zero,.L293
 686:C:/Users/stapi/OneDrive/Desktop/GD32VW553/V1_MQTT_OK/GD32VW55X_Wifi_BLE_SDK/GD32VW55x_RELEASE_V1.0.2/MSDK/cloud/alicloud/src/services/ota\iotx_ota.c ****         OTA_LOG_ERROR("handle is NULL");
 3032              		.loc 2 686 9 is_stmt 1
 3033              		.loc 2 686 9
 3034 0030 37050000 		lui	a0,%hi(.LC21)
 3035 0034 13050500 		addi	a0,a0,%lo(.LC21)
 3036 0038 97000000 		call	HAL_Printf
 3036      E7800000 
 3037              	.LVL371:
 3038              		.loc 2 686 9
 3039 0040 37050000 		lui	a0,%hi(.LC57)
 3040 0044 13050500 		addi	a0,a0,%lo(.LC57)
 3041 0048 97000000 		call	HAL_Printf
 3041      E7800000 
 3042              	.LVL372:
 3043              		.loc 2 686 9
 3044 0050 37050000 		lui	a0,%hi(.LC11)
 3045 0054 13050500 		addi	a0,a0,%lo(.LC11)
 3046 0058 97000000 		call	HAL_Printf
 3046      E7800000 
 3047              	.LVL373:
 3048              		.loc 2 686 9
 687:C:/Users/stapi/OneDrive/Desktop/GD32VW553/V1_MQTT_OK/GD32VW55X_Wifi_BLE_SDK/GD32VW55x_RELEASE_V1.0.2/MSDK/cloud/alicloud/src/services/ota\iotx_ota.c ****         return IOT_OTAE_INVALID_PARAM;
 3049              		.loc 2 687 9
 3050              		.loc 2 687 16 is_stmt 0
 3051 0060 7954     		li	s0,-2
 3052              	.LVL374:
 3053              	.L292:
 688:C:/Users/stapi/OneDrive/Desktop/GD32VW553/V1_MQTT_OK/GD32VW55X_Wifi_BLE_SDK/GD32VW55x_RELEASE_V1.0.2/MSDK/cloud/alicloud/src/services/ota\iotx_ota.c ****     }
 689:C:/Users/stapi/OneDrive/Desktop/GD32VW553/V1_MQTT_OK/GD32VW55X_Wifi_BLE_SDK/GD32VW55x_RELEASE_V1.0.2/MSDK/cloud/alicloud/src/services/ota\iotx_ota.c **** 
 690:C:/Users/stapi/OneDrive/Desktop/GD32VW553/V1_MQTT_OK/GD32VW55X_Wifi_BLE_SDK/GD32VW55x_RELEASE_V1.0.2/MSDK/cloud/alicloud/src/services/ota\iotx_ota.c ****     if (IOT_OTAS_UNINITED == h_ota->state) {
 691:C:/Users/stapi/OneDrive/Desktop/GD32VW553/V1_MQTT_OK/GD32VW55X_Wifi_BLE_SDK/GD32VW55x_RELEASE_V1.0.2/MSDK/cloud/alicloud/src/services/ota\iotx_ota.c ****         OTA_LOG_ERROR("handle is uninitialized");
 692:C:/Users/stapi/OneDrive/Desktop/GD32VW553/V1_MQTT_OK/GD32VW55X_Wifi_BLE_SDK/GD32VW55x_RELEASE_V1.0.2/MSDK/cloud/alicloud/src/services/ota\iotx_ota.c ****         h_ota->err = IOT_OTAE_INVALID_STATE;
 693:C:/Users/stapi/OneDrive/Desktop/GD32VW553/V1_MQTT_OK/GD32VW55X_Wifi_BLE_SDK/GD32VW55x_RELEASE_V1.0.2/MSDK/cloud/alicloud/src/services/ota\iotx_ota.c ****         return -1;
 694:C:/Users/stapi/OneDrive/Desktop/GD32VW553/V1_MQTT_OK/GD32VW55X_Wifi_BLE_SDK/GD32VW55x_RELEASE_V1.0.2/MSDK/cloud/alicloud/src/services/ota\iotx_ota.c ****     }
 695:C:/Users/stapi/OneDrive/Desktop/GD32VW553/V1_MQTT_OK/GD32VW55X_Wifi_BLE_SDK/GD32VW55x_RELEASE_V1.0.2/MSDK/cloud/alicloud/src/services/ota\iotx_ota.c **** 
 696:C:/Users/stapi/OneDrive/Desktop/GD32VW553/V1_MQTT_OK/GD32VW55X_Wifi_BLE_SDK/GD32VW55x_RELEASE_V1.0.2/MSDK/cloud/alicloud/src/services/ota\iotx_ota.c ****     if (IOT_OTAS_FETCHING == h_ota->state) {
 697:C:/Users/stapi/OneDrive/Desktop/GD32VW553/V1_MQTT_OK/GD32VW55X_Wifi_BLE_SDK/GD32VW55x_RELEASE_V1.0.2/MSDK/cloud/alicloud/src/services/ota\iotx_ota.c ****         OTA_LOG_ERROR("ota is busying");
 698:C:/Users/stapi/OneDrive/Desktop/GD32VW553/V1_MQTT_OK/GD32VW55X_Wifi_BLE_SDK/GD32VW55x_RELEASE_V1.0.2/MSDK/cloud/alicloud/src/services/ota\iotx_ota.c ****         h_ota->err = IOT_OTAE_INVALID_STATE;
 699:C:/Users/stapi/OneDrive/Desktop/GD32VW553/V1_MQTT_OK/GD32VW55X_Wifi_BLE_SDK/GD32VW55x_RELEASE_V1.0.2/MSDK/cloud/alicloud/src/services/ota\iotx_ota.c ****         return -1;
 700:C:/Users/stapi/OneDrive/Desktop/GD32VW553/V1_MQTT_OK/GD32VW55X_Wifi_BLE_SDK/GD32VW55x_RELEASE_V1.0.2/MSDK/cloud/alicloud/src/services/ota\iotx_ota.c ****     }
 701:C:/Users/stapi/OneDrive/Desktop/GD32VW553/V1_MQTT_OK/GD32VW55X_Wifi_BLE_SDK/GD32VW55x_RELEASE_V1.0.2/MSDK/cloud/alicloud/src/services/ota\iotx_ota.c **** 
 702:C:/Users/stapi/OneDrive/Desktop/GD32VW553/V1_MQTT_OK/GD32VW55X_Wifi_BLE_SDK/GD32VW55x_RELEASE_V1.0.2/MSDK/cloud/alicloud/src/services/ota\iotx_ota.c ****     if (NULL == (msg_get = OTA_MALLOC(MSG_REPORT_LEN))) {
 703:C:/Users/stapi/OneDrive/Desktop/GD32VW553/V1_MQTT_OK/GD32VW55X_Wifi_BLE_SDK/GD32VW55x_RELEASE_V1.0.2/MSDK/cloud/alicloud/src/services/ota\iotx_ota.c ****         OTA_LOG_ERROR("allocate for msg_reported failed");
 704:C:/Users/stapi/OneDrive/Desktop/GD32VW553/V1_MQTT_OK/GD32VW55X_Wifi_BLE_SDK/GD32VW55x_RELEASE_V1.0.2/MSDK/cloud/alicloud/src/services/ota\iotx_ota.c ****         h_ota->err = IOT_OTAE_NOMEM;
 705:C:/Users/stapi/OneDrive/Desktop/GD32VW553/V1_MQTT_OK/GD32VW55X_Wifi_BLE_SDK/GD32VW55x_RELEASE_V1.0.2/MSDK/cloud/alicloud/src/services/ota\iotx_ota.c ****         return -1;
 706:C:/Users/stapi/OneDrive/Desktop/GD32VW553/V1_MQTT_OK/GD32VW55X_Wifi_BLE_SDK/GD32VW55x_RELEASE_V1.0.2/MSDK/cloud/alicloud/src/services/ota\iotx_ota.c ****     }
 707:C:/Users/stapi/OneDrive/Desktop/GD32VW553/V1_MQTT_OK/GD32VW55X_Wifi_BLE_SDK/GD32VW55x_RELEASE_V1.0.2/MSDK/cloud/alicloud/src/services/ota\iotx_ota.c **** 
 708:C:/Users/stapi/OneDrive/Desktop/GD32VW553/V1_MQTT_OK/GD32VW55X_Wifi_BLE_SDK/GD32VW55x_RELEASE_V1.0.2/MSDK/cloud/alicloud/src/services/ota\iotx_ota.c ****     if (0 > HAL_Snprintf(topic,
 709:C:/Users/stapi/OneDrive/Desktop/GD32VW553/V1_MQTT_OK/GD32VW55X_Wifi_BLE_SDK/GD32VW55x_RELEASE_V1.0.2/MSDK/cloud/alicloud/src/services/ota\iotx_ota.c ****                          OTA_MQTT_TOPIC_LEN,
 710:C:/Users/stapi/OneDrive/Desktop/GD32VW553/V1_MQTT_OK/GD32VW55X_Wifi_BLE_SDK/GD32VW55x_RELEASE_V1.0.2/MSDK/cloud/alicloud/src/services/ota\iotx_ota.c ****                          "/sys/%s/%s/thing/config/get",
 711:C:/Users/stapi/OneDrive/Desktop/GD32VW553/V1_MQTT_OK/GD32VW55X_Wifi_BLE_SDK/GD32VW55x_RELEASE_V1.0.2/MSDK/cloud/alicloud/src/services/ota\iotx_ota.c ****                          h_ota->product_key,
 712:C:/Users/stapi/OneDrive/Desktop/GD32VW553/V1_MQTT_OK/GD32VW55X_Wifi_BLE_SDK/GD32VW55x_RELEASE_V1.0.2/MSDK/cloud/alicloud/src/services/ota\iotx_ota.c ****                          h_ota->device_name)) {
 713:C:/Users/stapi/OneDrive/Desktop/GD32VW553/V1_MQTT_OK/GD32VW55X_Wifi_BLE_SDK/GD32VW55x_RELEASE_V1.0.2/MSDK/cloud/alicloud/src/services/ota\iotx_ota.c ****         goto do_exit;
 714:C:/Users/stapi/OneDrive/Desktop/GD32VW553/V1_MQTT_OK/GD32VW55X_Wifi_BLE_SDK/GD32VW55x_RELEASE_V1.0.2/MSDK/cloud/alicloud/src/services/ota\iotx_ota.c ****     };
 715:C:/Users/stapi/OneDrive/Desktop/GD32VW553/V1_MQTT_OK/GD32VW55X_Wifi_BLE_SDK/GD32VW55x_RELEASE_V1.0.2/MSDK/cloud/alicloud/src/services/ota\iotx_ota.c **** 
 716:C:/Users/stapi/OneDrive/Desktop/GD32VW553/V1_MQTT_OK/GD32VW55X_Wifi_BLE_SDK/GD32VW55x_RELEASE_V1.0.2/MSDK/cloud/alicloud/src/services/ota\iotx_ota.c ****     if (0 > HAL_Snprintf(msg_get,
 717:C:/Users/stapi/OneDrive/Desktop/GD32VW553/V1_MQTT_OK/GD32VW55X_Wifi_BLE_SDK/GD32VW55x_RELEASE_V1.0.2/MSDK/cloud/alicloud/src/services/ota\iotx_ota.c ****                          MSG_REPORT_LEN,
 718:C:/Users/stapi/OneDrive/Desktop/GD32VW553/V1_MQTT_OK/GD32VW55X_Wifi_BLE_SDK/GD32VW55x_RELEASE_V1.0.2/MSDK/cloud/alicloud/src/services/ota\iotx_ota.c ****                          "{\"id\" : %d,\"version\":\"1.0\",\"params\":{\"configScope\":\"%s\",\"get
 719:C:/Users/stapi/OneDrive/Desktop/GD32VW553/V1_MQTT_OK/GD32VW55X_Wifi_BLE_SDK/GD32VW55x_RELEASE_V1.0.2/MSDK/cloud/alicloud/src/services/ota\iotx_ota.c ****                          h_ota->id,
 720:C:/Users/stapi/OneDrive/Desktop/GD32VW553/V1_MQTT_OK/GD32VW55X_Wifi_BLE_SDK/GD32VW55x_RELEASE_V1.0.2/MSDK/cloud/alicloud/src/services/ota\iotx_ota.c ****                          configScope,
 721:C:/Users/stapi/OneDrive/Desktop/GD32VW553/V1_MQTT_OK/GD32VW55X_Wifi_BLE_SDK/GD32VW55x_RELEASE_V1.0.2/MSDK/cloud/alicloud/src/services/ota\iotx_ota.c ****                          getType,
 722:C:/Users/stapi/OneDrive/Desktop/GD32VW553/V1_MQTT_OK/GD32VW55X_Wifi_BLE_SDK/GD32VW55x_RELEASE_V1.0.2/MSDK/cloud/alicloud/src/services/ota\iotx_ota.c ****                          attributeKeys)) {
 723:C:/Users/stapi/OneDrive/Desktop/GD32VW553/V1_MQTT_OK/GD32VW55X_Wifi_BLE_SDK/GD32VW55x_RELEASE_V1.0.2/MSDK/cloud/alicloud/src/services/ota\iotx_ota.c ****         goto do_exit;
 724:C:/Users/stapi/OneDrive/Desktop/GD32VW553/V1_MQTT_OK/GD32VW55X_Wifi_BLE_SDK/GD32VW55x_RELEASE_V1.0.2/MSDK/cloud/alicloud/src/services/ota\iotx_ota.c ****     };
 725:C:/Users/stapi/OneDrive/Desktop/GD32VW553/V1_MQTT_OK/GD32VW55X_Wifi_BLE_SDK/GD32VW55x_RELEASE_V1.0.2/MSDK/cloud/alicloud/src/services/ota\iotx_ota.c ****     OTA_LOG_INFO(msg_get);
 726:C:/Users/stapi/OneDrive/Desktop/GD32VW553/V1_MQTT_OK/GD32VW55X_Wifi_BLE_SDK/GD32VW55x_RELEASE_V1.0.2/MSDK/cloud/alicloud/src/services/ota\iotx_ota.c ****     topic_info.qos = IOTX_MQTT_QOS0;
 727:C:/Users/stapi/OneDrive/Desktop/GD32VW553/V1_MQTT_OK/GD32VW55X_Wifi_BLE_SDK/GD32VW55x_RELEASE_V1.0.2/MSDK/cloud/alicloud/src/services/ota\iotx_ota.c ****     topic_info.payload = (void *)msg_get;
 728:C:/Users/stapi/OneDrive/Desktop/GD32VW553/V1_MQTT_OK/GD32VW55X_Wifi_BLE_SDK/GD32VW55x_RELEASE_V1.0.2/MSDK/cloud/alicloud/src/services/ota\iotx_ota.c ****     topic_info.payload_len = strlen(msg_get);
 729:C:/Users/stapi/OneDrive/Desktop/GD32VW553/V1_MQTT_OK/GD32VW55X_Wifi_BLE_SDK/GD32VW55x_RELEASE_V1.0.2/MSDK/cloud/alicloud/src/services/ota\iotx_ota.c **** 
 730:C:/Users/stapi/OneDrive/Desktop/GD32VW553/V1_MQTT_OK/GD32VW55X_Wifi_BLE_SDK/GD32VW55x_RELEASE_V1.0.2/MSDK/cloud/alicloud/src/services/ota\iotx_ota.c ****     ret = osc_RequestConfig(h_ota->ch_signal, topic, &topic_info);
 731:C:/Users/stapi/OneDrive/Desktop/GD32VW553/V1_MQTT_OK/GD32VW55X_Wifi_BLE_SDK/GD32VW55x_RELEASE_V1.0.2/MSDK/cloud/alicloud/src/services/ota\iotx_ota.c ****     if (ret < 0) {
 732:C:/Users/stapi/OneDrive/Desktop/GD32VW553/V1_MQTT_OK/GD32VW55X_Wifi_BLE_SDK/GD32VW55x_RELEASE_V1.0.2/MSDK/cloud/alicloud/src/services/ota\iotx_ota.c ****         OTA_LOG_ERROR("publish failed");
 733:C:/Users/stapi/OneDrive/Desktop/GD32VW553/V1_MQTT_OK/GD32VW55X_Wifi_BLE_SDK/GD32VW55x_RELEASE_V1.0.2/MSDK/cloud/alicloud/src/services/ota\iotx_ota.c ****         return IOT_OTAE_OSC_FAILED;
 734:C:/Users/stapi/OneDrive/Desktop/GD32VW553/V1_MQTT_OK/GD32VW55X_Wifi_BLE_SDK/GD32VW55x_RELEASE_V1.0.2/MSDK/cloud/alicloud/src/services/ota\iotx_ota.c ****     }
 735:C:/Users/stapi/OneDrive/Desktop/GD32VW553/V1_MQTT_OK/GD32VW55X_Wifi_BLE_SDK/GD32VW55x_RELEASE_V1.0.2/MSDK/cloud/alicloud/src/services/ota\iotx_ota.c **** 
 736:C:/Users/stapi/OneDrive/Desktop/GD32VW553/V1_MQTT_OK/GD32VW55X_Wifi_BLE_SDK/GD32VW55x_RELEASE_V1.0.2/MSDK/cloud/alicloud/src/services/ota\iotx_ota.c ****     ret = 0;
 737:C:/Users/stapi/OneDrive/Desktop/GD32VW553/V1_MQTT_OK/GD32VW55X_Wifi_BLE_SDK/GD32VW55x_RELEASE_V1.0.2/MSDK/cloud/alicloud/src/services/ota\iotx_ota.c **** 
 738:C:/Users/stapi/OneDrive/Desktop/GD32VW553/V1_MQTT_OK/GD32VW55X_Wifi_BLE_SDK/GD32VW55x_RELEASE_V1.0.2/MSDK/cloud/alicloud/src/services/ota\iotx_ota.c **** do_exit:
 739:C:/Users/stapi/OneDrive/Desktop/GD32VW553/V1_MQTT_OK/GD32VW55X_Wifi_BLE_SDK/GD32VW55x_RELEASE_V1.0.2/MSDK/cloud/alicloud/src/services/ota\iotx_ota.c ****     if (NULL != msg_get) {
 740:C:/Users/stapi/OneDrive/Desktop/GD32VW553/V1_MQTT_OK/GD32VW55X_Wifi_BLE_SDK/GD32VW55x_RELEASE_V1.0.2/MSDK/cloud/alicloud/src/services/ota\iotx_ota.c ****         OTA_FREE(msg_get);
 741:C:/Users/stapi/OneDrive/Desktop/GD32VW553/V1_MQTT_OK/GD32VW55X_Wifi_BLE_SDK/GD32VW55x_RELEASE_V1.0.2/MSDK/cloud/alicloud/src/services/ota\iotx_ota.c ****     }
 742:C:/Users/stapi/OneDrive/Desktop/GD32VW553/V1_MQTT_OK/GD32VW55X_Wifi_BLE_SDK/GD32VW55x_RELEASE_V1.0.2/MSDK/cloud/alicloud/src/services/ota\iotx_ota.c ****     return ret;
 743:C:/Users/stapi/OneDrive/Desktop/GD32VW553/V1_MQTT_OK/GD32VW55X_Wifi_BLE_SDK/GD32VW55x_RELEASE_V1.0.2/MSDK/cloud/alicloud/src/services/ota\iotx_ota.c **** 
 744:C:/Users/stapi/OneDrive/Desktop/GD32VW553/V1_MQTT_OK/GD32VW55X_Wifi_BLE_SDK/GD32VW55x_RELEASE_V1.0.2/MSDK/cloud/alicloud/src/services/ota\iotx_ota.c **** #undef MSG_REPORT_LEN
 745:C:/Users/stapi/OneDrive/Desktop/GD32VW553/V1_MQTT_OK/GD32VW55X_Wifi_BLE_SDK/GD32VW55x_RELEASE_V1.0.2/MSDK/cloud/alicloud/src/services/ota\iotx_ota.c **** }
 3054              		.loc 2 745 1
 3055 0062 2285     		mv	a0,s0
 3056 0064 0D61     		addi	sp,sp,160
 3057              		.cfi_remember_state
 3058              		.cfi_def_cfa_offset 0
 3059 0066 17030000 		tail	__riscv_restore_5
 3059      67000300 
 3060              		.cfi_restore 20
 3061              		.cfi_restore 19
 3062              		.cfi_restore 18
 3063              		.cfi_restore 9
 3064              		.cfi_restore 8
 3065              		.cfi_restore 1
 3066              		.cfi_def_cfa_offset -32
 3067              	.LVL375:
 3068              	.L293:
 3069              		.cfi_restore_state
 690:C:/Users/stapi/OneDrive/Desktop/GD32VW553/V1_MQTT_OK/GD32VW55X_Wifi_BLE_SDK/GD32VW55x_RELEASE_V1.0.2/MSDK/cloud/alicloud/src/services/ota\iotx_ota.c ****         OTA_LOG_ERROR("handle is uninitialized");
 3070              		.loc 2 690 5 is_stmt 1
 690:C:/Users/stapi/OneDrive/Desktop/GD32VW553/V1_MQTT_OK/GD32VW55X_Wifi_BLE_SDK/GD32VW55x_RELEASE_V1.0.2/MSDK/cloud/alicloud/src/services/ota\iotx_ota.c ****         OTA_LOG_ERROR("handle is uninitialized");
 3071              		.loc 2 690 35 is_stmt 0
 3072 006e 5C44     		lw	a5,12(s0)
 690:C:/Users/stapi/OneDrive/Desktop/GD32VW553/V1_MQTT_OK/GD32VW55X_Wifi_BLE_SDK/GD32VW55x_RELEASE_V1.0.2/MSDK/cloud/alicloud/src/services/ota\iotx_ota.c ****         OTA_LOG_ERROR("handle is uninitialized");
 3073              		.loc 2 690 8
 3074 0070 8DEF     		bne	a5,zero,.L295
 691:C:/Users/stapi/OneDrive/Desktop/GD32VW553/V1_MQTT_OK/GD32VW55X_Wifi_BLE_SDK/GD32VW55x_RELEASE_V1.0.2/MSDK/cloud/alicloud/src/services/ota\iotx_ota.c ****         h_ota->err = IOT_OTAE_INVALID_STATE;
 3075              		.loc 2 691 9 is_stmt 1
 691:C:/Users/stapi/OneDrive/Desktop/GD32VW553/V1_MQTT_OK/GD32VW55X_Wifi_BLE_SDK/GD32VW55x_RELEASE_V1.0.2/MSDK/cloud/alicloud/src/services/ota\iotx_ota.c ****         h_ota->err = IOT_OTAE_INVALID_STATE;
 3076              		.loc 2 691 9
 3077 0072 37050000 		lui	a0,%hi(.LC21)
 3078 0076 13050500 		addi	a0,a0,%lo(.LC21)
 3079 007a 97000000 		call	HAL_Printf
 3079      E7800000 
 3080              	.LVL376:
 691:C:/Users/stapi/OneDrive/Desktop/GD32VW553/V1_MQTT_OK/GD32VW55X_Wifi_BLE_SDK/GD32VW55x_RELEASE_V1.0.2/MSDK/cloud/alicloud/src/services/ota\iotx_ota.c ****         h_ota->err = IOT_OTAE_INVALID_STATE;
 3081              		.loc 2 691 9
 3082 0082 37050000 		lui	a0,%hi(.LC58)
 3083 0086 13050500 		addi	a0,a0,%lo(.LC58)
 3084              	.L303:
 697:C:/Users/stapi/OneDrive/Desktop/GD32VW553/V1_MQTT_OK/GD32VW55X_Wifi_BLE_SDK/GD32VW55x_RELEASE_V1.0.2/MSDK/cloud/alicloud/src/services/ota\iotx_ota.c ****         h_ota->err = IOT_OTAE_INVALID_STATE;
 3085              		.loc 2 697 9 is_stmt 0
 3086 008a 97000000 		call	HAL_Printf
 3086      E7800000 
 3087              	.LVL377:
 697:C:/Users/stapi/OneDrive/Desktop/GD32VW553/V1_MQTT_OK/GD32VW55X_Wifi_BLE_SDK/GD32VW55x_RELEASE_V1.0.2/MSDK/cloud/alicloud/src/services/ota\iotx_ota.c ****         h_ota->err = IOT_OTAE_INVALID_STATE;
 3088              		.loc 2 697 9 is_stmt 1
 3089 0092 37050000 		lui	a0,%hi(.LC11)
 3090 0096 13050500 		addi	a0,a0,%lo(.LC11)
 3091 009a 97000000 		call	HAL_Printf
 3091      E7800000 
 3092              	.LVL378:
 697:C:/Users/stapi/OneDrive/Desktop/GD32VW553/V1_MQTT_OK/GD32VW55X_Wifi_BLE_SDK/GD32VW55x_RELEASE_V1.0.2/MSDK/cloud/alicloud/src/services/ota\iotx_ota.c ****         h_ota->err = IOT_OTAE_INVALID_STATE;
 3093              		.loc 2 697 9
 698:C:/Users/stapi/OneDrive/Desktop/GD32VW553/V1_MQTT_OK/GD32VW55X_Wifi_BLE_SDK/GD32VW55x_RELEASE_V1.0.2/MSDK/cloud/alicloud/src/services/ota\iotx_ota.c ****         return -1;
 3094              		.loc 2 698 9
 698:C:/Users/stapi/OneDrive/Desktop/GD32VW553/V1_MQTT_OK/GD32VW55X_Wifi_BLE_SDK/GD32VW55x_RELEASE_V1.0.2/MSDK/cloud/alicloud/src/services/ota\iotx_ota.c ****         return -1;
 3095              		.loc 2 698 20 is_stmt 0
 3096 00a2 F557     		li	a5,-3
 3097              	.L302:
 704:C:/Users/stapi/OneDrive/Desktop/GD32VW553/V1_MQTT_OK/GD32VW55X_Wifi_BLE_SDK/GD32VW55x_RELEASE_V1.0.2/MSDK/cloud/alicloud/src/services/ota\iotx_ota.c ****         return -1;
 3098              		.loc 2 704 20
 3099 00a4 7CD8     		sw	a5,116(s0)
 705:C:/Users/stapi/OneDrive/Desktop/GD32VW553/V1_MQTT_OK/GD32VW55X_Wifi_BLE_SDK/GD32VW55x_RELEASE_V1.0.2/MSDK/cloud/alicloud/src/services/ota\iotx_ota.c ****     }
 3100              		.loc 2 705 9 is_stmt 1
 705:C:/Users/stapi/OneDrive/Desktop/GD32VW553/V1_MQTT_OK/GD32VW55X_Wifi_BLE_SDK/GD32VW55x_RELEASE_V1.0.2/MSDK/cloud/alicloud/src/services/ota\iotx_ota.c ****     }
 3101              		.loc 2 705 16 is_stmt 0
 3102 00a6 7D54     		li	s0,-1
 3103              	.LVL379:
 3104 00a8 6DBF     		j	.L292
 3105              	.LVL380:
 3106              	.L295:
 696:C:/Users/stapi/OneDrive/Desktop/GD32VW553/V1_MQTT_OK/GD32VW55X_Wifi_BLE_SDK/GD32VW55x_RELEASE_V1.0.2/MSDK/cloud/alicloud/src/services/ota\iotx_ota.c ****         OTA_LOG_ERROR("ota is busying");
 3107              		.loc 2 696 5 is_stmt 1
 696:C:/Users/stapi/OneDrive/Desktop/GD32VW553/V1_MQTT_OK/GD32VW55X_Wifi_BLE_SDK/GD32VW55x_RELEASE_V1.0.2/MSDK/cloud/alicloud/src/services/ota\iotx_ota.c ****         OTA_LOG_ERROR("ota is busying");
 3108              		.loc 2 696 8 is_stmt 0
 3109 00aa 0947     		li	a4,2
 3110 00ac 639FE700 		bne	a5,a4,.L296
 697:C:/Users/stapi/OneDrive/Desktop/GD32VW553/V1_MQTT_OK/GD32VW55X_Wifi_BLE_SDK/GD32VW55x_RELEASE_V1.0.2/MSDK/cloud/alicloud/src/services/ota\iotx_ota.c ****         h_ota->err = IOT_OTAE_INVALID_STATE;
 3111              		.loc 2 697 9 is_stmt 1
 697:C:/Users/stapi/OneDrive/Desktop/GD32VW553/V1_MQTT_OK/GD32VW55X_Wifi_BLE_SDK/GD32VW55x_RELEASE_V1.0.2/MSDK/cloud/alicloud/src/services/ota\iotx_ota.c ****         h_ota->err = IOT_OTAE_INVALID_STATE;
 3112              		.loc 2 697 9
 3113 00b0 37050000 		lui	a0,%hi(.LC21)
 3114 00b4 13050500 		addi	a0,a0,%lo(.LC21)
 3115 00b8 97000000 		call	HAL_Printf
 3115      E7800000 
 3116              	.LVL381:
 697:C:/Users/stapi/OneDrive/Desktop/GD32VW553/V1_MQTT_OK/GD32VW55X_Wifi_BLE_SDK/GD32VW55x_RELEASE_V1.0.2/MSDK/cloud/alicloud/src/services/ota\iotx_ota.c ****         h_ota->err = IOT_OTAE_INVALID_STATE;
 3117              		.loc 2 697 9
 3118 00c0 37050000 		lui	a0,%hi(.LC64)
 3119 00c4 13050500 		addi	a0,a0,%lo(.LC64)
 3120 00c8 C9B7     		j	.L303
 3121              	.L296:
 702:C:/Users/stapi/OneDrive/Desktop/GD32VW553/V1_MQTT_OK/GD32VW55X_Wifi_BLE_SDK/GD32VW55x_RELEASE_V1.0.2/MSDK/cloud/alicloud/src/services/ota\iotx_ota.c ****         OTA_LOG_ERROR("allocate for msg_reported failed");
 3122              		.loc 2 702 5
 702:C:/Users/stapi/OneDrive/Desktop/GD32VW553/V1_MQTT_OK/GD32VW55X_Wifi_BLE_SDK/GD32VW55x_RELEASE_V1.0.2/MSDK/cloud/alicloud/src/services/ota\iotx_ota.c ****         OTA_LOG_ERROR("allocate for msg_reported failed");
 3123              		.loc 2 702 28 is_stmt 0
 3124 00ca 13060010 		li	a2,256
 3125 00ce 8145     		li	a1,0
 3126 00d0 0145     		li	a0,0
 3127 00d2 97000000 		call	LITE_malloc_internal
 3127      E7800000 
 3128              	.LVL382:
 3129 00da AA84     		mv	s1,a0
 3130              	.LVL383:
 702:C:/Users/stapi/OneDrive/Desktop/GD32VW553/V1_MQTT_OK/GD32VW55X_Wifi_BLE_SDK/GD32VW55x_RELEASE_V1.0.2/MSDK/cloud/alicloud/src/services/ota\iotx_ota.c ****         OTA_LOG_ERROR("allocate for msg_reported failed");
 3131              		.loc 2 702 8
 3132 00dc 1DE9     		bne	a0,zero,.L297
 703:C:/Users/stapi/OneDrive/Desktop/GD32VW553/V1_MQTT_OK/GD32VW55X_Wifi_BLE_SDK/GD32VW55x_RELEASE_V1.0.2/MSDK/cloud/alicloud/src/services/ota\iotx_ota.c ****         h_ota->err = IOT_OTAE_NOMEM;
 3133              		.loc 2 703 9 is_stmt 1
 703:C:/Users/stapi/OneDrive/Desktop/GD32VW553/V1_MQTT_OK/GD32VW55X_Wifi_BLE_SDK/GD32VW55x_RELEASE_V1.0.2/MSDK/cloud/alicloud/src/services/ota\iotx_ota.c ****         h_ota->err = IOT_OTAE_NOMEM;
 3134              		.loc 2 703 9
 3135 00de 37050000 		lui	a0,%hi(.LC21)
 3136 00e2 13050500 		addi	a0,a0,%lo(.LC21)
 3137 00e6 97000000 		call	HAL_Printf
 3137      E7800000 
 3138              	.LVL384:
 703:C:/Users/stapi/OneDrive/Desktop/GD32VW553/V1_MQTT_OK/GD32VW55X_Wifi_BLE_SDK/GD32VW55x_RELEASE_V1.0.2/MSDK/cloud/alicloud/src/services/ota\iotx_ota.c ****         h_ota->err = IOT_OTAE_NOMEM;
 3139              		.loc 2 703 9
 3140 00ee 37050000 		lui	a0,%hi(.LC68)
 3141 00f2 13050500 		addi	a0,a0,%lo(.LC68)
 3142 00f6 97000000 		call	HAL_Printf
 3142      E7800000 
 3143              	.LVL385:
 703:C:/Users/stapi/OneDrive/Desktop/GD32VW553/V1_MQTT_OK/GD32VW55X_Wifi_BLE_SDK/GD32VW55x_RELEASE_V1.0.2/MSDK/cloud/alicloud/src/services/ota\iotx_ota.c ****         h_ota->err = IOT_OTAE_NOMEM;
 3144              		.loc 2 703 9
 3145 00fe 37050000 		lui	a0,%hi(.LC11)
 3146 0102 13050500 		addi	a0,a0,%lo(.LC11)
 3147 0106 97000000 		call	HAL_Printf
 3147      E7800000 
 3148              	.LVL386:
 703:C:/Users/stapi/OneDrive/Desktop/GD32VW553/V1_MQTT_OK/GD32VW55X_Wifi_BLE_SDK/GD32VW55x_RELEASE_V1.0.2/MSDK/cloud/alicloud/src/services/ota\iotx_ota.c ****         h_ota->err = IOT_OTAE_NOMEM;
 3149              		.loc 2 703 9
 704:C:/Users/stapi/OneDrive/Desktop/GD32VW553/V1_MQTT_OK/GD32VW55X_Wifi_BLE_SDK/GD32VW55x_RELEASE_V1.0.2/MSDK/cloud/alicloud/src/services/ota\iotx_ota.c ****         return -1;
 3150              		.loc 2 704 9
 704:C:/Users/stapi/OneDrive/Desktop/GD32VW553/V1_MQTT_OK/GD32VW55X_Wifi_BLE_SDK/GD32VW55x_RELEASE_V1.0.2/MSDK/cloud/alicloud/src/services/ota\iotx_ota.c ****         return -1;
 3151              		.loc 2 704 20 is_stmt 0
 3152 010e E957     		li	a5,-6
 3153 0110 51BF     		j	.L302
 3154              	.L297:
 708:C:/Users/stapi/OneDrive/Desktop/GD32VW553/V1_MQTT_OK/GD32VW55X_Wifi_BLE_SDK/GD32VW55x_RELEASE_V1.0.2/MSDK/cloud/alicloud/src/services/ota\iotx_ota.c ****                          OTA_MQTT_TOPIC_LEN,
 3155              		.loc 2 708 5 is_stmt 1
 708:C:/Users/stapi/OneDrive/Desktop/GD32VW553/V1_MQTT_OK/GD32VW55X_Wifi_BLE_SDK/GD32VW55x_RELEASE_V1.0.2/MSDK/cloud/alicloud/src/services/ota\iotx_ota.c ****                          OTA_MQTT_TOPIC_LEN,
 3156              		.loc 2 708 13 is_stmt 0
 3157 0112 5840     		lw	a4,4(s0)
 3158 0114 1440     		lw	a3,0(s0)
 3159 0116 37060000 		lui	a2,%hi(.LC71)
 3160 011a 13060600 		addi	a2,a2,%lo(.LC71)
 3161 011e 93050008 		li	a1,128
 3162 0122 0810     		addi	a0,sp,32
 3163 0124 97000000 		call	HAL_Snprintf
 3163      E7800000 
 3164              	.LVL387:
 708:C:/Users/stapi/OneDrive/Desktop/GD32VW553/V1_MQTT_OK/GD32VW55X_Wifi_BLE_SDK/GD32VW55x_RELEASE_V1.0.2/MSDK/cloud/alicloud/src/services/ota\iotx_ota.c ****                          OTA_MQTT_TOPIC_LEN,
 3165              		.loc 2 708 8
 3166 012c 6344050A 		blt	a0,zero,.L298
 714:C:/Users/stapi/OneDrive/Desktop/GD32VW553/V1_MQTT_OK/GD32VW55X_Wifi_BLE_SDK/GD32VW55x_RELEASE_V1.0.2/MSDK/cloud/alicloud/src/services/ota\iotx_ota.c **** 
 3167              		.loc 2 714 6 is_stmt 1
 716:C:/Users/stapi/OneDrive/Desktop/GD32VW553/V1_MQTT_OK/GD32VW55X_Wifi_BLE_SDK/GD32VW55x_RELEASE_V1.0.2/MSDK/cloud/alicloud/src/services/ota\iotx_ota.c ****                          MSG_REPORT_LEN,
 3168              		.loc 2 716 5
 716:C:/Users/stapi/OneDrive/Desktop/GD32VW553/V1_MQTT_OK/GD32VW55X_Wifi_BLE_SDK/GD32VW55x_RELEASE_V1.0.2/MSDK/cloud/alicloud/src/services/ota\iotx_ota.c ****                          MSG_REPORT_LEN,
 3169              		.loc 2 716 13 is_stmt 0
 3170 0130 1444     		lw	a3,8(s0)
 3171 0132 37060000 		lui	a2,%hi(.LC72)
 3172 0136 5288     		mv	a6,s4
 3173 0138 CE87     		mv	a5,s3
 3174 013a 4A87     		mv	a4,s2
 3175 013c 13060600 		addi	a2,a2,%lo(.LC72)
 3176 0140 93050010 		li	a1,256
 3177 0144 2685     		mv	a0,s1
 3178 0146 97000000 		call	HAL_Snprintf
 3178      E7800000 
 3179              	.LVL388:
 716:C:/Users/stapi/OneDrive/Desktop/GD32VW553/V1_MQTT_OK/GD32VW55X_Wifi_BLE_SDK/GD32VW55x_RELEASE_V1.0.2/MSDK/cloud/alicloud/src/services/ota\iotx_ota.c ****                          MSG_REPORT_LEN,
 3180              		.loc 2 716 8
 3181 014e 63430508 		blt	a0,zero,.L298
 724:C:/Users/stapi/OneDrive/Desktop/GD32VW553/V1_MQTT_OK/GD32VW55X_Wifi_BLE_SDK/GD32VW55x_RELEASE_V1.0.2/MSDK/cloud/alicloud/src/services/ota\iotx_ota.c ****     OTA_LOG_INFO(msg_get);
 3182              		.loc 2 724 6 is_stmt 1
 725:C:/Users/stapi/OneDrive/Desktop/GD32VW553/V1_MQTT_OK/GD32VW55X_Wifi_BLE_SDK/GD32VW55x_RELEASE_V1.0.2/MSDK/cloud/alicloud/src/services/ota\iotx_ota.c ****     topic_info.qos = IOTX_MQTT_QOS0;
 3183              		.loc 2 725 5
 725:C:/Users/stapi/OneDrive/Desktop/GD32VW553/V1_MQTT_OK/GD32VW55X_Wifi_BLE_SDK/GD32VW55x_RELEASE_V1.0.2/MSDK/cloud/alicloud/src/services/ota\iotx_ota.c ****     topic_info.qos = IOTX_MQTT_QOS0;
 3184              		.loc 2 725 5
 3185 0152 37050000 		lui	a0,%hi(.LC9)
 3186 0156 13050500 		addi	a0,a0,%lo(.LC9)
 3187 015a 97000000 		call	HAL_Printf
 3187      E7800000 
 3188              	.LVL389:
 725:C:/Users/stapi/OneDrive/Desktop/GD32VW553/V1_MQTT_OK/GD32VW55X_Wifi_BLE_SDK/GD32VW55x_RELEASE_V1.0.2/MSDK/cloud/alicloud/src/services/ota\iotx_ota.c ****     topic_info.qos = IOTX_MQTT_QOS0;
 3189              		.loc 2 725 5
 3190 0162 2685     		mv	a0,s1
 3191 0164 97000000 		call	HAL_Printf
 3191      E7800000 
 3192              	.LVL390:
 725:C:/Users/stapi/OneDrive/Desktop/GD32VW553/V1_MQTT_OK/GD32VW55X_Wifi_BLE_SDK/GD32VW55x_RELEASE_V1.0.2/MSDK/cloud/alicloud/src/services/ota\iotx_ota.c ****     topic_info.qos = IOTX_MQTT_QOS0;
 3193              		.loc 2 725 5
 3194 016c 37090000 		lui	s2,%hi(.LC11)
 3195              	.LVL391:
 3196 0170 13050900 		addi	a0,s2,%lo(.LC11)
 3197 0174 97000000 		call	HAL_Printf
 3197      E7800000 
 3198              	.LVL392:
 725:C:/Users/stapi/OneDrive/Desktop/GD32VW553/V1_MQTT_OK/GD32VW55X_Wifi_BLE_SDK/GD32VW55x_RELEASE_V1.0.2/MSDK/cloud/alicloud/src/services/ota\iotx_ota.c ****     topic_info.qos = IOTX_MQTT_QOS0;
 3199              		.loc 2 725 5
 726:C:/Users/stapi/OneDrive/Desktop/GD32VW553/V1_MQTT_OK/GD32VW55X_Wifi_BLE_SDK/GD32VW55x_RELEASE_V1.0.2/MSDK/cloud/alicloud/src/services/ota\iotx_ota.c ****     topic_info.payload = (void *)msg_get;
 3200              		.loc 2 726 5
 728:C:/Users/stapi/OneDrive/Desktop/GD32VW553/V1_MQTT_OK/GD32VW55X_Wifi_BLE_SDK/GD32VW55x_RELEASE_V1.0.2/MSDK/cloud/alicloud/src/services/ota\iotx_ota.c **** 
 3201              		.loc 2 728 30 is_stmt 0
 3202 017c 2685     		mv	a0,s1
 726:C:/Users/stapi/OneDrive/Desktop/GD32VW553/V1_MQTT_OK/GD32VW55X_Wifi_BLE_SDK/GD32VW55x_RELEASE_V1.0.2/MSDK/cloud/alicloud/src/services/ota\iotx_ota.c ****     topic_info.payload = (void *)msg_get;
 3203              		.loc 2 726 20
 3204 017e 23070100 		sb	zero,14(sp)
 727:C:/Users/stapi/OneDrive/Desktop/GD32VW553/V1_MQTT_OK/GD32VW55X_Wifi_BLE_SDK/GD32VW55x_RELEASE_V1.0.2/MSDK/cloud/alicloud/src/services/ota\iotx_ota.c ****     topic_info.payload_len = strlen(msg_get);
 3205              		.loc 2 727 5 is_stmt 1
 727:C:/Users/stapi/OneDrive/Desktop/GD32VW553/V1_MQTT_OK/GD32VW55X_Wifi_BLE_SDK/GD32VW55x_RELEASE_V1.0.2/MSDK/cloud/alicloud/src/services/ota\iotx_ota.c ****     topic_info.payload_len = strlen(msg_get);
 3206              		.loc 2 727 24 is_stmt 0
 3207 0182 26CE     		sw	s1,28(sp)
 728:C:/Users/stapi/OneDrive/Desktop/GD32VW553/V1_MQTT_OK/GD32VW55X_Wifi_BLE_SDK/GD32VW55x_RELEASE_V1.0.2/MSDK/cloud/alicloud/src/services/ota\iotx_ota.c **** 
 3208              		.loc 2 728 5 is_stmt 1
 728:C:/Users/stapi/OneDrive/Desktop/GD32VW553/V1_MQTT_OK/GD32VW55X_Wifi_BLE_SDK/GD32VW55x_RELEASE_V1.0.2/MSDK/cloud/alicloud/src/services/ota\iotx_ota.c **** 
 3209              		.loc 2 728 30 is_stmt 0
 3210 0184 97000000 		call	strlen
 3210      E7800000 
 3211              	.LVL393:
 3212              	.LBB13:
 3213              	.LBB14:
 3214              		.loc 1 304 12
 3215 018c 7C48     		lw	a5,84(s0)
 3216              	.LBE14:
 3217              	.LBE13:
 728:C:/Users/stapi/OneDrive/Desktop/GD32VW553/V1_MQTT_OK/GD32VW55X_Wifi_BLE_SDK/GD32VW55x_RELEASE_V1.0.2/MSDK/cloud/alicloud/src/services/ota\iotx_ota.c **** 
 3218              		.loc 2 728 28
 3219 018e 2ACA     		sw	a0,20(sp)
 730:C:/Users/stapi/OneDrive/Desktop/GD32VW553/V1_MQTT_OK/GD32VW55X_Wifi_BLE_SDK/GD32VW55x_RELEASE_V1.0.2/MSDK/cloud/alicloud/src/services/ota\iotx_ota.c ****     if (ret < 0) {
 3220              		.loc 2 730 5 is_stmt 1
 3221              	.LVL394:
 3222              	.LBB17:
 3223              	.LBB15:
 3224              		.loc 1 304 5
 3225              		.loc 1 304 12 is_stmt 0
 3226 0190 7000     		addi	a2,sp,12
 3227              	.LVL395:
 3228 0192 8843     		lw	a0,0(a5)
 3229 0194 0C10     		addi	a1,sp,32
 3230              	.LVL396:
 3231              	.LBE15:
 3232              	.LBE17:
 736:C:/Users/stapi/OneDrive/Desktop/GD32VW553/V1_MQTT_OK/GD32VW55X_Wifi_BLE_SDK/GD32VW55x_RELEASE_V1.0.2/MSDK/cloud/alicloud/src/services/ota\iotx_ota.c **** 
 3233              		.loc 2 736 9
 3234 0196 0144     		li	s0,0
 3235              	.LVL397:
 3236              	.LBB18:
 3237              	.LBB16:
 3238              		.loc 1 304 12
 3239 0198 97000000 		call	otamqtt_publish_full_topic.isra.0
 3239      E7800000 
 3240              	.LVL398:
 3241              	.LBE16:
 3242              	.LBE18:
 731:C:/Users/stapi/OneDrive/Desktop/GD32VW553/V1_MQTT_OK/GD32VW55X_Wifi_BLE_SDK/GD32VW55x_RELEASE_V1.0.2/MSDK/cloud/alicloud/src/services/ota\iotx_ota.c ****         OTA_LOG_ERROR("publish failed");
 3243              		.loc 2 731 5 is_stmt 1
 731:C:/Users/stapi/OneDrive/Desktop/GD32VW553/V1_MQTT_OK/GD32VW55X_Wifi_BLE_SDK/GD32VW55x_RELEASE_V1.0.2/MSDK/cloud/alicloud/src/services/ota\iotx_ota.c ****         OTA_LOG_ERROR("publish failed");
 3244              		.loc 2 731 8 is_stmt 0
 3245 01a0 635B0502 		bge	a0,zero,.L299
 732:C:/Users/stapi/OneDrive/Desktop/GD32VW553/V1_MQTT_OK/GD32VW55X_Wifi_BLE_SDK/GD32VW55x_RELEASE_V1.0.2/MSDK/cloud/alicloud/src/services/ota\iotx_ota.c ****         return IOT_OTAE_OSC_FAILED;
 3246              		.loc 2 732 9 is_stmt 1
 732:C:/Users/stapi/OneDrive/Desktop/GD32VW553/V1_MQTT_OK/GD32VW55X_Wifi_BLE_SDK/GD32VW55x_RELEASE_V1.0.2/MSDK/cloud/alicloud/src/services/ota\iotx_ota.c ****         return IOT_OTAE_OSC_FAILED;
 3247              		.loc 2 732 9
 3248 01a4 37050000 		lui	a0,%hi(.LC21)
 3249              	.LVL399:
 3250 01a8 13050500 		addi	a0,a0,%lo(.LC21)
 3251 01ac 97000000 		call	HAL_Printf
 3251      E7800000 
 3252              	.LVL400:
 732:C:/Users/stapi/OneDrive/Desktop/GD32VW553/V1_MQTT_OK/GD32VW55X_Wifi_BLE_SDK/GD32VW55x_RELEASE_V1.0.2/MSDK/cloud/alicloud/src/services/ota\iotx_ota.c ****         return IOT_OTAE_OSC_FAILED;
 3253              		.loc 2 732 9
 3254 01b4 37050000 		lui	a0,%hi(.LC22)
 3255 01b8 13050500 		addi	a0,a0,%lo(.LC22)
 3256 01bc 97000000 		call	HAL_Printf
 3256      E7800000 
 3257              	.LVL401:
 732:C:/Users/stapi/OneDrive/Desktop/GD32VW553/V1_MQTT_OK/GD32VW55X_Wifi_BLE_SDK/GD32VW55x_RELEASE_V1.0.2/MSDK/cloud/alicloud/src/services/ota\iotx_ota.c ****         return IOT_OTAE_OSC_FAILED;
 3258              		.loc 2 732 9
 3259 01c4 13050900 		addi	a0,s2,%lo(.LC11)
 3260 01c8 97000000 		call	HAL_Printf
 3260      E7800000 
 3261              	.LVL402:
 732:C:/Users/stapi/OneDrive/Desktop/GD32VW553/V1_MQTT_OK/GD32VW55X_Wifi_BLE_SDK/GD32VW55x_RELEASE_V1.0.2/MSDK/cloud/alicloud/src/services/ota\iotx_ota.c ****         return IOT_OTAE_OSC_FAILED;
 3262              		.loc 2 732 9
 733:C:/Users/stapi/OneDrive/Desktop/GD32VW553/V1_MQTT_OK/GD32VW55X_Wifi_BLE_SDK/GD32VW55x_RELEASE_V1.0.2/MSDK/cloud/alicloud/src/services/ota\iotx_ota.c ****     }
 3263              		.loc 2 733 9
 733:C:/Users/stapi/OneDrive/Desktop/GD32VW553/V1_MQTT_OK/GD32VW55X_Wifi_BLE_SDK/GD32VW55x_RELEASE_V1.0.2/MSDK/cloud/alicloud/src/services/ota\iotx_ota.c ****     }
 3264              		.loc 2 733 16 is_stmt 0
 3265 01d0 6554     		li	s0,-7
 3266 01d2 41BD     		j	.L292
 3267              	.LVL403:
 3268              	.L298:
 677:C:/Users/stapi/OneDrive/Desktop/GD32VW553/V1_MQTT_OK/GD32VW55X_Wifi_BLE_SDK/GD32VW55x_RELEASE_V1.0.2/MSDK/cloud/alicloud/src/services/ota\iotx_ota.c ****     char *msg_get;
 3269              		.loc 2 677 9
 3270 01d4 7D54     		li	s0,-1
 3271              	.LVL404:
 3272              	.L299:
 739:C:/Users/stapi/OneDrive/Desktop/GD32VW553/V1_MQTT_OK/GD32VW55X_Wifi_BLE_SDK/GD32VW55x_RELEASE_V1.0.2/MSDK/cloud/alicloud/src/services/ota\iotx_ota.c ****         OTA_FREE(msg_get);
 3273              		.loc 2 739 5 is_stmt 1
 740:C:/Users/stapi/OneDrive/Desktop/GD32VW553/V1_MQTT_OK/GD32VW55X_Wifi_BLE_SDK/GD32VW55x_RELEASE_V1.0.2/MSDK/cloud/alicloud/src/services/ota\iotx_ota.c ****     }
 3274              		.loc 2 740 9
 3275 01d6 2685     		mv	a0,s1
 3276 01d8 97000000 		call	LITE_free_internal
 3276      E7800000 
 3277              	.LVL405:
 742:C:/Users/stapi/OneDrive/Desktop/GD32VW553/V1_MQTT_OK/GD32VW55X_Wifi_BLE_SDK/GD32VW55x_RELEASE_V1.0.2/MSDK/cloud/alicloud/src/services/ota\iotx_ota.c **** 
 3278              		.loc 2 742 5
 742:C:/Users/stapi/OneDrive/Desktop/GD32VW553/V1_MQTT_OK/GD32VW55X_Wifi_BLE_SDK/GD32VW55x_RELEASE_V1.0.2/MSDK/cloud/alicloud/src/services/ota\iotx_ota.c **** 
 3279              		.loc 2 742 12 is_stmt 0
 3280 01e0 49B5     		j	.L292
 3281              		.cfi_endproc
 3282              	.LFE40:
 3284              		.section	.text.IOT_OTA_IsFetching,"ax",@progbits
 3285              		.align	1
 3286              		.globl	IOT_OTA_IsFetching
 3288              	IOT_OTA_IsFetching:
 3289              	.LFB41:
 746:C:/Users/stapi/OneDrive/Desktop/GD32VW553/V1_MQTT_OK/GD32VW55X_Wifi_BLE_SDK/GD32VW55x_RELEASE_V1.0.2/MSDK/cloud/alicloud/src/services/ota\iotx_ota.c **** 
 747:C:/Users/stapi/OneDrive/Desktop/GD32VW553/V1_MQTT_OK/GD32VW55X_Wifi_BLE_SDK/GD32VW55x_RELEASE_V1.0.2/MSDK/cloud/alicloud/src/services/ota\iotx_ota.c **** 
 748:C:/Users/stapi/OneDrive/Desktop/GD32VW553/V1_MQTT_OK/GD32VW55X_Wifi_BLE_SDK/GD32VW55x_RELEASE_V1.0.2/MSDK/cloud/alicloud/src/services/ota\iotx_ota.c **** /* check whether is downloading */
 749:C:/Users/stapi/OneDrive/Desktop/GD32VW553/V1_MQTT_OK/GD32VW55X_Wifi_BLE_SDK/GD32VW55x_RELEASE_V1.0.2/MSDK/cloud/alicloud/src/services/ota\iotx_ota.c **** int IOT_OTA_IsFetching(void *handle)
 750:C:/Users/stapi/OneDrive/Desktop/GD32VW553/V1_MQTT_OK/GD32VW55X_Wifi_BLE_SDK/GD32VW55x_RELEASE_V1.0.2/MSDK/cloud/alicloud/src/services/ota\iotx_ota.c **** {
 3290              		.loc 2 750 1 is_stmt 1
 3291              		.cfi_startproc
 3292              	.LVL406:
 3293 0000 17030000 		call	t0,__riscv_save_1
 3293      E7020300 
 3294              		.cfi_offset 8, -8
 3295              		.cfi_offset 1, -4
 3296              		.cfi_def_cfa_offset 16
 751:C:/Users/stapi/OneDrive/Desktop/GD32VW553/V1_MQTT_OK/GD32VW55X_Wifi_BLE_SDK/GD32VW55x_RELEASE_V1.0.2/MSDK/cloud/alicloud/src/services/ota\iotx_ota.c ****     OTA_Struct_pt h_ota = (OTA_Struct_pt)handle;
 3297              		.loc 2 751 5
 3298              	.LVL407:
 752:C:/Users/stapi/OneDrive/Desktop/GD32VW553/V1_MQTT_OK/GD32VW55X_Wifi_BLE_SDK/GD32VW55x_RELEASE_V1.0.2/MSDK/cloud/alicloud/src/services/ota\iotx_ota.c **** 
 753:C:/Users/stapi/OneDrive/Desktop/GD32VW553/V1_MQTT_OK/GD32VW55X_Wifi_BLE_SDK/GD32VW55x_RELEASE_V1.0.2/MSDK/cloud/alicloud/src/services/ota\iotx_ota.c ****     if (NULL == handle) {
 3299              		.loc 2 753 5
 3300              		.loc 2 753 8 is_stmt 0
 3301 0008 15ED     		bne	a0,zero,.L305
 754:C:/Users/stapi/OneDrive/Desktop/GD32VW553/V1_MQTT_OK/GD32VW55X_Wifi_BLE_SDK/GD32VW55x_RELEASE_V1.0.2/MSDK/cloud/alicloud/src/services/ota\iotx_ota.c ****         OTA_LOG_ERROR("handle is NULL");
 3302              		.loc 2 754 9 is_stmt 1
 3303              		.loc 2 754 9
 3304 000a 37050000 		lui	a0,%hi(.LC21)
 3305              	.LVL408:
 3306 000e 13050500 		addi	a0,a0,%lo(.LC21)
 3307 0012 97000000 		call	HAL_Printf
 3307      E7800000 
 3308              	.LVL409:
 3309              		.loc 2 754 9
 3310 001a 37050000 		lui	a0,%hi(.LC57)
 3311 001e 13050500 		addi	a0,a0,%lo(.LC57)
 3312 0022 97000000 		call	HAL_Printf
 3312      E7800000 
 3313              	.LVL410:
 3314              		.loc 2 754 9
 3315 002a 37050000 		lui	a0,%hi(.LC11)
 3316 002e 13050500 		addi	a0,a0,%lo(.LC11)
 3317 0032 97000000 		call	HAL_Printf
 3317      E7800000 
 3318              	.LVL411:
 3319              		.loc 2 754 9
 755:C:/Users/stapi/OneDrive/Desktop/GD32VW553/V1_MQTT_OK/GD32VW55X_Wifi_BLE_SDK/GD32VW55x_RELEASE_V1.0.2/MSDK/cloud/alicloud/src/services/ota\iotx_ota.c ****         return 0;
 3320              		.loc 2 755 9
 3321              	.L309:
 756:C:/Users/stapi/OneDrive/Desktop/GD32VW553/V1_MQTT_OK/GD32VW55X_Wifi_BLE_SDK/GD32VW55x_RELEASE_V1.0.2/MSDK/cloud/alicloud/src/services/ota\iotx_ota.c ****     }
 757:C:/Users/stapi/OneDrive/Desktop/GD32VW553/V1_MQTT_OK/GD32VW55X_Wifi_BLE_SDK/GD32VW55x_RELEASE_V1.0.2/MSDK/cloud/alicloud/src/services/ota\iotx_ota.c **** 
 758:C:/Users/stapi/OneDrive/Desktop/GD32VW553/V1_MQTT_OK/GD32VW55X_Wifi_BLE_SDK/GD32VW55x_RELEASE_V1.0.2/MSDK/cloud/alicloud/src/services/ota\iotx_ota.c ****     if (IOT_OTAS_UNINITED == h_ota->state) {
 759:C:/Users/stapi/OneDrive/Desktop/GD32VW553/V1_MQTT_OK/GD32VW55X_Wifi_BLE_SDK/GD32VW55x_RELEASE_V1.0.2/MSDK/cloud/alicloud/src/services/ota\iotx_ota.c ****         OTA_LOG_ERROR("handle is uninitialized");
 760:C:/Users/stapi/OneDrive/Desktop/GD32VW553/V1_MQTT_OK/GD32VW55X_Wifi_BLE_SDK/GD32VW55x_RELEASE_V1.0.2/MSDK/cloud/alicloud/src/services/ota\iotx_ota.c ****         h_ota->err = IOT_OTAE_INVALID_STATE;
 761:C:/Users/stapi/OneDrive/Desktop/GD32VW553/V1_MQTT_OK/GD32VW55X_Wifi_BLE_SDK/GD32VW55x_RELEASE_V1.0.2/MSDK/cloud/alicloud/src/services/ota\iotx_ota.c ****         return 0;
 3322              		.loc 2 761 9
 3323              		.loc 2 761 16 is_stmt 0
 3324 003a 0145     		li	a0,0
 3325              	.L304:
 762:C:/Users/stapi/OneDrive/Desktop/GD32VW553/V1_MQTT_OK/GD32VW55X_Wifi_BLE_SDK/GD32VW55x_RELEASE_V1.0.2/MSDK/cloud/alicloud/src/services/ota\iotx_ota.c ****     }
 763:C:/Users/stapi/OneDrive/Desktop/GD32VW553/V1_MQTT_OK/GD32VW55X_Wifi_BLE_SDK/GD32VW55x_RELEASE_V1.0.2/MSDK/cloud/alicloud/src/services/ota\iotx_ota.c **** 
 764:C:/Users/stapi/OneDrive/Desktop/GD32VW553/V1_MQTT_OK/GD32VW55X_Wifi_BLE_SDK/GD32VW55x_RELEASE_V1.0.2/MSDK/cloud/alicloud/src/services/ota\iotx_ota.c ****     return (IOT_OTAS_FETCHING == h_ota->state);
 765:C:/Users/stapi/OneDrive/Desktop/GD32VW553/V1_MQTT_OK/GD32VW55X_Wifi_BLE_SDK/GD32VW55x_RELEASE_V1.0.2/MSDK/cloud/alicloud/src/services/ota\iotx_ota.c **** }
 3326              		.loc 2 765 1
 3327 003c 17030000 		tail	__riscv_restore_1
 3327      67000300 
 3328              		.cfi_remember_state
 3329              		.cfi_restore 8
 3330              		.cfi_restore 1
 3331              		.cfi_def_cfa_offset 0
 3332              	.LVL412:
 3333              	.L305:
 3334              		.cfi_restore_state
 758:C:/Users/stapi/OneDrive/Desktop/GD32VW553/V1_MQTT_OK/GD32VW55X_Wifi_BLE_SDK/GD32VW55x_RELEASE_V1.0.2/MSDK/cloud/alicloud/src/services/ota\iotx_ota.c ****         OTA_LOG_ERROR("handle is uninitialized");
 3335              		.loc 2 758 35
 3336 0044 5C45     		lw	a5,12(a0)
 3337 0046 2A84     		mv	s0,a0
 758:C:/Users/stapi/OneDrive/Desktop/GD32VW553/V1_MQTT_OK/GD32VW55X_Wifi_BLE_SDK/GD32VW55x_RELEASE_V1.0.2/MSDK/cloud/alicloud/src/services/ota\iotx_ota.c ****         OTA_LOG_ERROR("handle is uninitialized");
 3338              		.loc 2 758 5 is_stmt 1
 758:C:/Users/stapi/OneDrive/Desktop/GD32VW553/V1_MQTT_OK/GD32VW55X_Wifi_BLE_SDK/GD32VW55x_RELEASE_V1.0.2/MSDK/cloud/alicloud/src/services/ota\iotx_ota.c ****         OTA_LOG_ERROR("handle is uninitialized");
 3339              		.loc 2 758 8 is_stmt 0
 3340 0048 85EF     		bne	a5,zero,.L307
 3341              	.LVL413:
 759:C:/Users/stapi/OneDrive/Desktop/GD32VW553/V1_MQTT_OK/GD32VW55X_Wifi_BLE_SDK/GD32VW55x_RELEASE_V1.0.2/MSDK/cloud/alicloud/src/services/ota\iotx_ota.c ****         h_ota->err = IOT_OTAE_INVALID_STATE;
 3342              		.loc 2 759 9 is_stmt 1
 759:C:/Users/stapi/OneDrive/Desktop/GD32VW553/V1_MQTT_OK/GD32VW55X_Wifi_BLE_SDK/GD32VW55x_RELEASE_V1.0.2/MSDK/cloud/alicloud/src/services/ota\iotx_ota.c ****         h_ota->err = IOT_OTAE_INVALID_STATE;
 3343              		.loc 2 759 9
 3344 004a 37050000 		lui	a0,%hi(.LC21)
 3345 004e 13050500 		addi	a0,a0,%lo(.LC21)
 3346 0052 97000000 		call	HAL_Printf
 3346      E7800000 
 3347              	.LVL414:
 759:C:/Users/stapi/OneDrive/Desktop/GD32VW553/V1_MQTT_OK/GD32VW55X_Wifi_BLE_SDK/GD32VW55x_RELEASE_V1.0.2/MSDK/cloud/alicloud/src/services/ota\iotx_ota.c ****         h_ota->err = IOT_OTAE_INVALID_STATE;
 3348              		.loc 2 759 9
 3349 005a 37050000 		lui	a0,%hi(.LC58)
 3350 005e 13050500 		addi	a0,a0,%lo(.LC58)
 3351 0062 97000000 		call	HAL_Printf
 3351      E7800000 
 3352              	.LVL415:
 759:C:/Users/stapi/OneDrive/Desktop/GD32VW553/V1_MQTT_OK/GD32VW55X_Wifi_BLE_SDK/GD32VW55x_RELEASE_V1.0.2/MSDK/cloud/alicloud/src/services/ota\iotx_ota.c ****         h_ota->err = IOT_OTAE_INVALID_STATE;
 3353              		.loc 2 759 9
 3354 006a 37050000 		lui	a0,%hi(.LC11)
 3355 006e 13050500 		addi	a0,a0,%lo(.LC11)
 3356 0072 97000000 		call	HAL_Printf
 3356      E7800000 
 3357              	.LVL416:
 759:C:/Users/stapi/OneDrive/Desktop/GD32VW553/V1_MQTT_OK/GD32VW55X_Wifi_BLE_SDK/GD32VW55x_RELEASE_V1.0.2/MSDK/cloud/alicloud/src/services/ota\iotx_ota.c ****         h_ota->err = IOT_OTAE_INVALID_STATE;
 3358              		.loc 2 759 9
 760:C:/Users/stapi/OneDrive/Desktop/GD32VW553/V1_MQTT_OK/GD32VW55X_Wifi_BLE_SDK/GD32VW55x_RELEASE_V1.0.2/MSDK/cloud/alicloud/src/services/ota\iotx_ota.c ****         return 0;
 3359              		.loc 2 760 9
 760:C:/Users/stapi/OneDrive/Desktop/GD32VW553/V1_MQTT_OK/GD32VW55X_Wifi_BLE_SDK/GD32VW55x_RELEASE_V1.0.2/MSDK/cloud/alicloud/src/services/ota\iotx_ota.c ****         return 0;
 3360              		.loc 2 760 20 is_stmt 0
 3361 007a F557     		li	a5,-3
 3362 007c 7CD8     		sw	a5,116(s0)
 3363 007e 75BF     		j	.L309
 3364              	.L307:
 764:C:/Users/stapi/OneDrive/Desktop/GD32VW553/V1_MQTT_OK/GD32VW55X_Wifi_BLE_SDK/GD32VW55x_RELEASE_V1.0.2/MSDK/cloud/alicloud/src/services/ota\iotx_ota.c **** }
 3365              		.loc 2 764 5 is_stmt 1
 764:C:/Users/stapi/OneDrive/Desktop/GD32VW553/V1_MQTT_OK/GD32VW55X_Wifi_BLE_SDK/GD32VW55x_RELEASE_V1.0.2/MSDK/cloud/alicloud/src/services/ota\iotx_ota.c **** }
 3366              		.loc 2 764 31 is_stmt 0
 3367 0080 1385E7FF 		addi	a0,a5,-2
 3368 0084 13351500 		seqz	a0,a0
 3369 0088 55BF     		j	.L304
 3370              		.cfi_endproc
 3371              	.LFE41:
 3373              		.section	.text.IOT_OTA_IsFetchFinish,"ax",@progbits
 3374              		.align	1
 3375              		.globl	IOT_OTA_IsFetchFinish
 3377              	IOT_OTA_IsFetchFinish:
 3378              	.LFB42:
 766:C:/Users/stapi/OneDrive/Desktop/GD32VW553/V1_MQTT_OK/GD32VW55X_Wifi_BLE_SDK/GD32VW55x_RELEASE_V1.0.2/MSDK/cloud/alicloud/src/services/ota\iotx_ota.c **** 
 767:C:/Users/stapi/OneDrive/Desktop/GD32VW553/V1_MQTT_OK/GD32VW55X_Wifi_BLE_SDK/GD32VW55x_RELEASE_V1.0.2/MSDK/cloud/alicloud/src/services/ota\iotx_ota.c **** 
 768:C:/Users/stapi/OneDrive/Desktop/GD32VW553/V1_MQTT_OK/GD32VW55X_Wifi_BLE_SDK/GD32VW55x_RELEASE_V1.0.2/MSDK/cloud/alicloud/src/services/ota\iotx_ota.c **** /* check whether fetch over */
 769:C:/Users/stapi/OneDrive/Desktop/GD32VW553/V1_MQTT_OK/GD32VW55X_Wifi_BLE_SDK/GD32VW55x_RELEASE_V1.0.2/MSDK/cloud/alicloud/src/services/ota\iotx_ota.c **** int IOT_OTA_IsFetchFinish(void *handle)
 770:C:/Users/stapi/OneDrive/Desktop/GD32VW553/V1_MQTT_OK/GD32VW55X_Wifi_BLE_SDK/GD32VW55x_RELEASE_V1.0.2/MSDK/cloud/alicloud/src/services/ota\iotx_ota.c **** {
 3379              		.loc 2 770 1 is_stmt 1
 3380              		.cfi_startproc
 3381              	.LVL417:
 3382 0000 17030000 		call	t0,__riscv_save_1
 3382      E7020300 
 3383              		.cfi_offset 8, -8
 3384              		.cfi_offset 1, -4
 3385              		.cfi_def_cfa_offset 16
 771:C:/Users/stapi/OneDrive/Desktop/GD32VW553/V1_MQTT_OK/GD32VW55X_Wifi_BLE_SDK/GD32VW55x_RELEASE_V1.0.2/MSDK/cloud/alicloud/src/services/ota\iotx_ota.c ****     OTA_Struct_pt h_ota = (OTA_Struct_pt) handle;
 3386              		.loc 2 771 5
 3387              	.LVL418:
 772:C:/Users/stapi/OneDrive/Desktop/GD32VW553/V1_MQTT_OK/GD32VW55X_Wifi_BLE_SDK/GD32VW55x_RELEASE_V1.0.2/MSDK/cloud/alicloud/src/services/ota\iotx_ota.c **** 
 773:C:/Users/stapi/OneDrive/Desktop/GD32VW553/V1_MQTT_OK/GD32VW55X_Wifi_BLE_SDK/GD32VW55x_RELEASE_V1.0.2/MSDK/cloud/alicloud/src/services/ota\iotx_ota.c ****     if (NULL == handle) {
 3388              		.loc 2 773 5
 3389              		.loc 2 773 8 is_stmt 0
 3390 0008 15ED     		bne	a0,zero,.L311
 774:C:/Users/stapi/OneDrive/Desktop/GD32VW553/V1_MQTT_OK/GD32VW55X_Wifi_BLE_SDK/GD32VW55x_RELEASE_V1.0.2/MSDK/cloud/alicloud/src/services/ota\iotx_ota.c ****         OTA_LOG_ERROR("handle is NULL");
 3391              		.loc 2 774 9 is_stmt 1
 3392              		.loc 2 774 9
 3393 000a 37050000 		lui	a0,%hi(.LC21)
 3394              	.LVL419:
 3395 000e 13050500 		addi	a0,a0,%lo(.LC21)
 3396 0012 97000000 		call	HAL_Printf
 3396      E7800000 
 3397              	.LVL420:
 3398              		.loc 2 774 9
 3399 001a 37050000 		lui	a0,%hi(.LC57)
 3400 001e 13050500 		addi	a0,a0,%lo(.LC57)
 3401 0022 97000000 		call	HAL_Printf
 3401      E7800000 
 3402              	.LVL421:
 3403              		.loc 2 774 9
 3404 002a 37050000 		lui	a0,%hi(.LC11)
 3405 002e 13050500 		addi	a0,a0,%lo(.LC11)
 3406 0032 97000000 		call	HAL_Printf
 3406      E7800000 
 3407              	.LVL422:
 3408              		.loc 2 774 9
 775:C:/Users/stapi/OneDrive/Desktop/GD32VW553/V1_MQTT_OK/GD32VW55X_Wifi_BLE_SDK/GD32VW55x_RELEASE_V1.0.2/MSDK/cloud/alicloud/src/services/ota\iotx_ota.c ****         return 0;
 3409              		.loc 2 775 9
 3410              	.L315:
 776:C:/Users/stapi/OneDrive/Desktop/GD32VW553/V1_MQTT_OK/GD32VW55X_Wifi_BLE_SDK/GD32VW55x_RELEASE_V1.0.2/MSDK/cloud/alicloud/src/services/ota\iotx_ota.c ****     }
 777:C:/Users/stapi/OneDrive/Desktop/GD32VW553/V1_MQTT_OK/GD32VW55X_Wifi_BLE_SDK/GD32VW55x_RELEASE_V1.0.2/MSDK/cloud/alicloud/src/services/ota\iotx_ota.c **** 
 778:C:/Users/stapi/OneDrive/Desktop/GD32VW553/V1_MQTT_OK/GD32VW55X_Wifi_BLE_SDK/GD32VW55x_RELEASE_V1.0.2/MSDK/cloud/alicloud/src/services/ota\iotx_ota.c ****     if (IOT_OTAS_UNINITED == h_ota->state) {
 779:C:/Users/stapi/OneDrive/Desktop/GD32VW553/V1_MQTT_OK/GD32VW55X_Wifi_BLE_SDK/GD32VW55x_RELEASE_V1.0.2/MSDK/cloud/alicloud/src/services/ota\iotx_ota.c ****         OTA_LOG_ERROR("handle is uninitialized");
 780:C:/Users/stapi/OneDrive/Desktop/GD32VW553/V1_MQTT_OK/GD32VW55X_Wifi_BLE_SDK/GD32VW55x_RELEASE_V1.0.2/MSDK/cloud/alicloud/src/services/ota\iotx_ota.c ****         h_ota->err = IOT_OTAE_INVALID_STATE;
 781:C:/Users/stapi/OneDrive/Desktop/GD32VW553/V1_MQTT_OK/GD32VW55X_Wifi_BLE_SDK/GD32VW55x_RELEASE_V1.0.2/MSDK/cloud/alicloud/src/services/ota\iotx_ota.c ****         return 0;
 3411              		.loc 2 781 9
 3412              		.loc 2 781 16 is_stmt 0
 3413 003a 0145     		li	a0,0
 3414              	.L310:
 782:C:/Users/stapi/OneDrive/Desktop/GD32VW553/V1_MQTT_OK/GD32VW55X_Wifi_BLE_SDK/GD32VW55x_RELEASE_V1.0.2/MSDK/cloud/alicloud/src/services/ota\iotx_ota.c ****     }
 783:C:/Users/stapi/OneDrive/Desktop/GD32VW553/V1_MQTT_OK/GD32VW55X_Wifi_BLE_SDK/GD32VW55x_RELEASE_V1.0.2/MSDK/cloud/alicloud/src/services/ota\iotx_ota.c **** 
 784:C:/Users/stapi/OneDrive/Desktop/GD32VW553/V1_MQTT_OK/GD32VW55X_Wifi_BLE_SDK/GD32VW55x_RELEASE_V1.0.2/MSDK/cloud/alicloud/src/services/ota\iotx_ota.c ****     return (IOT_OTAS_FETCHED == h_ota->state);
 785:C:/Users/stapi/OneDrive/Desktop/GD32VW553/V1_MQTT_OK/GD32VW55X_Wifi_BLE_SDK/GD32VW55x_RELEASE_V1.0.2/MSDK/cloud/alicloud/src/services/ota\iotx_ota.c **** }
 3415              		.loc 2 785 1
 3416 003c 17030000 		tail	__riscv_restore_1
 3416      67000300 
 3417              		.cfi_remember_state
 3418              		.cfi_restore 8
 3419              		.cfi_restore 1
 3420              		.cfi_def_cfa_offset 0
 3421              	.LVL423:
 3422              	.L311:
 3423              		.cfi_restore_state
 778:C:/Users/stapi/OneDrive/Desktop/GD32VW553/V1_MQTT_OK/GD32VW55X_Wifi_BLE_SDK/GD32VW55x_RELEASE_V1.0.2/MSDK/cloud/alicloud/src/services/ota\iotx_ota.c ****         OTA_LOG_ERROR("handle is uninitialized");
 3424              		.loc 2 778 35
 3425 0044 5C45     		lw	a5,12(a0)
 3426 0046 2A84     		mv	s0,a0
 778:C:/Users/stapi/OneDrive/Desktop/GD32VW553/V1_MQTT_OK/GD32VW55X_Wifi_BLE_SDK/GD32VW55x_RELEASE_V1.0.2/MSDK/cloud/alicloud/src/services/ota\iotx_ota.c ****         OTA_LOG_ERROR("handle is uninitialized");
 3427              		.loc 2 778 5 is_stmt 1
 778:C:/Users/stapi/OneDrive/Desktop/GD32VW553/V1_MQTT_OK/GD32VW55X_Wifi_BLE_SDK/GD32VW55x_RELEASE_V1.0.2/MSDK/cloud/alicloud/src/services/ota\iotx_ota.c ****         OTA_LOG_ERROR("handle is uninitialized");
 3428              		.loc 2 778 8 is_stmt 0
 3429 0048 85EF     		bne	a5,zero,.L313
 3430              	.LVL424:
 779:C:/Users/stapi/OneDrive/Desktop/GD32VW553/V1_MQTT_OK/GD32VW55X_Wifi_BLE_SDK/GD32VW55x_RELEASE_V1.0.2/MSDK/cloud/alicloud/src/services/ota\iotx_ota.c ****         h_ota->err = IOT_OTAE_INVALID_STATE;
 3431              		.loc 2 779 9 is_stmt 1
 779:C:/Users/stapi/OneDrive/Desktop/GD32VW553/V1_MQTT_OK/GD32VW55X_Wifi_BLE_SDK/GD32VW55x_RELEASE_V1.0.2/MSDK/cloud/alicloud/src/services/ota\iotx_ota.c ****         h_ota->err = IOT_OTAE_INVALID_STATE;
 3432              		.loc 2 779 9
 3433 004a 37050000 		lui	a0,%hi(.LC21)
 3434 004e 13050500 		addi	a0,a0,%lo(.LC21)
 3435 0052 97000000 		call	HAL_Printf
 3435      E7800000 
 3436              	.LVL425:
 779:C:/Users/stapi/OneDrive/Desktop/GD32VW553/V1_MQTT_OK/GD32VW55X_Wifi_BLE_SDK/GD32VW55x_RELEASE_V1.0.2/MSDK/cloud/alicloud/src/services/ota\iotx_ota.c ****         h_ota->err = IOT_OTAE_INVALID_STATE;
 3437              		.loc 2 779 9
 3438 005a 37050000 		lui	a0,%hi(.LC58)
 3439 005e 13050500 		addi	a0,a0,%lo(.LC58)
 3440 0062 97000000 		call	HAL_Printf
 3440      E7800000 
 3441              	.LVL426:
 779:C:/Users/stapi/OneDrive/Desktop/GD32VW553/V1_MQTT_OK/GD32VW55X_Wifi_BLE_SDK/GD32VW55x_RELEASE_V1.0.2/MSDK/cloud/alicloud/src/services/ota\iotx_ota.c ****         h_ota->err = IOT_OTAE_INVALID_STATE;
 3442              		.loc 2 779 9
 3443 006a 37050000 		lui	a0,%hi(.LC11)
 3444 006e 13050500 		addi	a0,a0,%lo(.LC11)
 3445 0072 97000000 		call	HAL_Printf
 3445      E7800000 
 3446              	.LVL427:
 779:C:/Users/stapi/OneDrive/Desktop/GD32VW553/V1_MQTT_OK/GD32VW55X_Wifi_BLE_SDK/GD32VW55x_RELEASE_V1.0.2/MSDK/cloud/alicloud/src/services/ota\iotx_ota.c ****         h_ota->err = IOT_OTAE_INVALID_STATE;
 3447              		.loc 2 779 9
 780:C:/Users/stapi/OneDrive/Desktop/GD32VW553/V1_MQTT_OK/GD32VW55X_Wifi_BLE_SDK/GD32VW55x_RELEASE_V1.0.2/MSDK/cloud/alicloud/src/services/ota\iotx_ota.c ****         return 0;
 3448              		.loc 2 780 9
 780:C:/Users/stapi/OneDrive/Desktop/GD32VW553/V1_MQTT_OK/GD32VW55X_Wifi_BLE_SDK/GD32VW55x_RELEASE_V1.0.2/MSDK/cloud/alicloud/src/services/ota\iotx_ota.c ****         return 0;
 3449              		.loc 2 780 20 is_stmt 0
 3450 007a F557     		li	a5,-3
 3451 007c 7CD8     		sw	a5,116(s0)
 3452 007e 75BF     		j	.L315
 3453              	.L313:
 784:C:/Users/stapi/OneDrive/Desktop/GD32VW553/V1_MQTT_OK/GD32VW55X_Wifi_BLE_SDK/GD32VW55x_RELEASE_V1.0.2/MSDK/cloud/alicloud/src/services/ota\iotx_ota.c **** }
 3454              		.loc 2 784 5 is_stmt 1
 784:C:/Users/stapi/OneDrive/Desktop/GD32VW553/V1_MQTT_OK/GD32VW55X_Wifi_BLE_SDK/GD32VW55x_RELEASE_V1.0.2/MSDK/cloud/alicloud/src/services/ota\iotx_ota.c **** }
 3455              		.loc 2 784 30 is_stmt 0
 3456 0080 1385D7FF 		addi	a0,a5,-3
 3457 0084 13351500 		seqz	a0,a0
 3458 0088 55BF     		j	.L310
 3459              		.cfi_endproc
 3460              	.LFE42:
 3462              		.section	.rodata.IOT_OTA_FetchYield.str1.4,"aMS",@progbits,1
 3463              		.align	2
 3464              	.LC73:
 3465 0000 696E7661 		.string	"invalid parameter"
 3465      6C696420 
 3465      70617261 
 3465      6D657465 
 3465      7200
 3466 0012 0000     		.align	2
 3467              	.LC74:
 3468 0014 46657463 		.string	"Fetch firmware failed"
 3468      68206669 
 3468      726D7761 
 3468      72652066 
 3468      61696C65 
 3469 002a 0000     		.align	2
 3470              	.LC75:
 3471 002c 6D643520 		.string	"md5 init failed"
 3471      696E6974 
 3471      20666169 
 3471      6C656400 
 3472              		.align	2
 3473              	.LC76:
 3474 003c 73686132 		.string	"sha256 init failed"
 3474      35362069 
 3474      6E697420 
 3474      6661696C 
 3474      656400
 3475 004f 00       		.align	2
 3476              	.LC77:
 3477 0050 456E7465 		.string	"Enter in downloading state"
 3477      7220696E 
 3477      20646F77 
 3477      6E6C6F61 
 3477      64696E67 
 3478              		.section	.text.IOT_OTA_FetchYield,"ax",@progbits
 3479              		.align	1
 3480              		.globl	IOT_OTA_FetchYield
 3482              	IOT_OTA_FetchYield:
 3483              	.LFB43:
 786:C:/Users/stapi/OneDrive/Desktop/GD32VW553/V1_MQTT_OK/GD32VW55X_Wifi_BLE_SDK/GD32VW55x_RELEASE_V1.0.2/MSDK/cloud/alicloud/src/services/ota\iotx_ota.c **** 
 787:C:/Users/stapi/OneDrive/Desktop/GD32VW553/V1_MQTT_OK/GD32VW55X_Wifi_BLE_SDK/GD32VW55x_RELEASE_V1.0.2/MSDK/cloud/alicloud/src/services/ota\iotx_ota.c **** 
 788:C:/Users/stapi/OneDrive/Desktop/GD32VW553/V1_MQTT_OK/GD32VW55X_Wifi_BLE_SDK/GD32VW55x_RELEASE_V1.0.2/MSDK/cloud/alicloud/src/services/ota\iotx_ota.c **** int IOT_OTA_FetchYield(void *handle, char *buf, uint32_t buf_len, uint32_t timeout_s)
 789:C:/Users/stapi/OneDrive/Desktop/GD32VW553/V1_MQTT_OK/GD32VW55X_Wifi_BLE_SDK/GD32VW55x_RELEASE_V1.0.2/MSDK/cloud/alicloud/src/services/ota\iotx_ota.c **** {
 3484              		.loc 2 789 1 is_stmt 1
 3485              		.cfi_startproc
 3486              	.LVL428:
 3487 0000 17030000 		call	t0,__riscv_save_3
 3487      E7020300 
 3488              		.cfi_offset 18, -16
 3489              		.cfi_offset 9, -12
 3490              		.cfi_offset 8, -8
 3491              		.cfi_offset 1, -4
 3492              		.cfi_def_cfa_offset 16
 790:C:/Users/stapi/OneDrive/Desktop/GD32VW553/V1_MQTT_OK/GD32VW55X_Wifi_BLE_SDK/GD32VW55x_RELEASE_V1.0.2/MSDK/cloud/alicloud/src/services/ota\iotx_ota.c ****     int ret;
 3493              		.loc 2 790 5
 791:C:/Users/stapi/OneDrive/Desktop/GD32VW553/V1_MQTT_OK/GD32VW55X_Wifi_BLE_SDK/GD32VW55x_RELEASE_V1.0.2/MSDK/cloud/alicloud/src/services/ota\iotx_ota.c ****     OTA_Struct_pt h_ota = (OTA_Struct_pt) handle;
 3494              		.loc 2 791 5
 3495              	.LVL429:
 792:C:/Users/stapi/OneDrive/Desktop/GD32VW553/V1_MQTT_OK/GD32VW55X_Wifi_BLE_SDK/GD32VW55x_RELEASE_V1.0.2/MSDK/cloud/alicloud/src/services/ota\iotx_ota.c **** 
 793:C:/Users/stapi/OneDrive/Desktop/GD32VW553/V1_MQTT_OK/GD32VW55X_Wifi_BLE_SDK/GD32VW55x_RELEASE_V1.0.2/MSDK/cloud/alicloud/src/services/ota\iotx_ota.c ****     if ((NULL == handle) || (NULL == buf) || (0 == buf_len)) {
 3496              		.loc 2 793 5
 3497              		.loc 2 793 8 is_stmt 0
 3498 0008 01C5     		beq	a0,zero,.L317
 3499 000a 2E89     		mv	s2,a1
 3500              		.loc 2 793 26 discriminator 1
 3501 000c 91C1     		beq	a1,zero,.L317
 3502              		.loc 2 793 43 discriminator 2
 3503 000e 1DEE     		bne	a2,zero,.L318
 3504              	.L317:
 794:C:/Users/stapi/OneDrive/Desktop/GD32VW553/V1_MQTT_OK/GD32VW55X_Wifi_BLE_SDK/GD32VW55x_RELEASE_V1.0.2/MSDK/cloud/alicloud/src/services/ota\iotx_ota.c ****         OTA_LOG_ERROR("invalid parameter");
 3505              		.loc 2 794 9 is_stmt 1
 3506              		.loc 2 794 9
 3507 0010 37050000 		lui	a0,%hi(.LC21)
 3508              	.LVL430:
 3509 0014 13050500 		addi	a0,a0,%lo(.LC21)
 3510 0018 97000000 		call	HAL_Printf
 3510      E7800000 
 3511              	.LVL431:
 3512              		.loc 2 794 9
 3513 0020 37050000 		lui	a0,%hi(.LC73)
 3514 0024 13050500 		addi	a0,a0,%lo(.LC73)
 3515 0028 97000000 		call	HAL_Printf
 3515      E7800000 
 3516              	.LVL432:
 3517              		.loc 2 794 9
 3518 0030 37050000 		lui	a0,%hi(.LC11)
 3519 0034 13050500 		addi	a0,a0,%lo(.LC11)
 3520 0038 97000000 		call	HAL_Printf
 3520      E7800000 
 3521              	.LVL433:
 3522              		.loc 2 794 9
 795:C:/Users/stapi/OneDrive/Desktop/GD32VW553/V1_MQTT_OK/GD32VW55X_Wifi_BLE_SDK/GD32VW55x_RELEASE_V1.0.2/MSDK/cloud/alicloud/src/services/ota\iotx_ota.c ****         return IOT_OTAE_INVALID_PARAM;
 3523              		.loc 2 795 9
 3524              		.loc 2 795 16 is_stmt 0
 3525 0040 F954     		li	s1,-2
 3526              	.L316:
 796:C:/Users/stapi/OneDrive/Desktop/GD32VW553/V1_MQTT_OK/GD32VW55X_Wifi_BLE_SDK/GD32VW55x_RELEASE_V1.0.2/MSDK/cloud/alicloud/src/services/ota\iotx_ota.c ****     }
 797:C:/Users/stapi/OneDrive/Desktop/GD32VW553/V1_MQTT_OK/GD32VW55X_Wifi_BLE_SDK/GD32VW55x_RELEASE_V1.0.2/MSDK/cloud/alicloud/src/services/ota\iotx_ota.c **** 
 798:C:/Users/stapi/OneDrive/Desktop/GD32VW553/V1_MQTT_OK/GD32VW55X_Wifi_BLE_SDK/GD32VW55x_RELEASE_V1.0.2/MSDK/cloud/alicloud/src/services/ota\iotx_ota.c ****     if (IOT_OTAS_FETCHING != h_ota->state) {
 799:C:/Users/stapi/OneDrive/Desktop/GD32VW553/V1_MQTT_OK/GD32VW55X_Wifi_BLE_SDK/GD32VW55x_RELEASE_V1.0.2/MSDK/cloud/alicloud/src/services/ota\iotx_ota.c ****         h_ota->err = IOT_OTAE_INVALID_STATE;
 800:C:/Users/stapi/OneDrive/Desktop/GD32VW553/V1_MQTT_OK/GD32VW55X_Wifi_BLE_SDK/GD32VW55x_RELEASE_V1.0.2/MSDK/cloud/alicloud/src/services/ota\iotx_ota.c ****         return IOT_OTAE_INVALID_STATE;
 801:C:/Users/stapi/OneDrive/Desktop/GD32VW553/V1_MQTT_OK/GD32VW55X_Wifi_BLE_SDK/GD32VW55x_RELEASE_V1.0.2/MSDK/cloud/alicloud/src/services/ota\iotx_ota.c ****     }
 802:C:/Users/stapi/OneDrive/Desktop/GD32VW553/V1_MQTT_OK/GD32VW55X_Wifi_BLE_SDK/GD32VW55x_RELEASE_V1.0.2/MSDK/cloud/alicloud/src/services/ota\iotx_ota.c **** 
 803:C:/Users/stapi/OneDrive/Desktop/GD32VW553/V1_MQTT_OK/GD32VW55X_Wifi_BLE_SDK/GD32VW55x_RELEASE_V1.0.2/MSDK/cloud/alicloud/src/services/ota\iotx_ota.c ****     ret = ofc_Fetch(h_ota->ch_fetch, buf, buf_len, timeout_s);
 804:C:/Users/stapi/OneDrive/Desktop/GD32VW553/V1_MQTT_OK/GD32VW55X_Wifi_BLE_SDK/GD32VW55x_RELEASE_V1.0.2/MSDK/cloud/alicloud/src/services/ota\iotx_ota.c ****     if (ret < 0) {
 805:C:/Users/stapi/OneDrive/Desktop/GD32VW553/V1_MQTT_OK/GD32VW55X_Wifi_BLE_SDK/GD32VW55x_RELEASE_V1.0.2/MSDK/cloud/alicloud/src/services/ota\iotx_ota.c ****         OTA_LOG_ERROR("Fetch firmware failed");
 806:C:/Users/stapi/OneDrive/Desktop/GD32VW553/V1_MQTT_OK/GD32VW55X_Wifi_BLE_SDK/GD32VW55x_RELEASE_V1.0.2/MSDK/cloud/alicloud/src/services/ota\iotx_ota.c ****         h_ota->state = IOT_OTAS_FETCHED;
 807:C:/Users/stapi/OneDrive/Desktop/GD32VW553/V1_MQTT_OK/GD32VW55X_Wifi_BLE_SDK/GD32VW55x_RELEASE_V1.0.2/MSDK/cloud/alicloud/src/services/ota\iotx_ota.c ****         h_ota->type = IOT_OTAT_NONE;
 808:C:/Users/stapi/OneDrive/Desktop/GD32VW553/V1_MQTT_OK/GD32VW55X_Wifi_BLE_SDK/GD32VW55x_RELEASE_V1.0.2/MSDK/cloud/alicloud/src/services/ota\iotx_ota.c ****         h_ota->err = IOT_OTAE_FETCH_FAILED;
 809:C:/Users/stapi/OneDrive/Desktop/GD32VW553/V1_MQTT_OK/GD32VW55X_Wifi_BLE_SDK/GD32VW55x_RELEASE_V1.0.2/MSDK/cloud/alicloud/src/services/ota\iotx_ota.c **** 
 810:C:/Users/stapi/OneDrive/Desktop/GD32VW553/V1_MQTT_OK/GD32VW55X_Wifi_BLE_SDK/GD32VW55x_RELEASE_V1.0.2/MSDK/cloud/alicloud/src/services/ota\iotx_ota.c ****         if (h_ota->fetch_cb && h_ota->purl) {
 811:C:/Users/stapi/OneDrive/Desktop/GD32VW553/V1_MQTT_OK/GD32VW55X_Wifi_BLE_SDK/GD32VW55x_RELEASE_V1.0.2/MSDK/cloud/alicloud/src/services/ota\iotx_ota.c ****             h_ota->fetch_cb(h_ota->user_data, 1, h_ota->size_file, h_ota->purl, h_ota->version);
 812:C:/Users/stapi/OneDrive/Desktop/GD32VW553/V1_MQTT_OK/GD32VW55X_Wifi_BLE_SDK/GD32VW55x_RELEASE_V1.0.2/MSDK/cloud/alicloud/src/services/ota\iotx_ota.c ****             /* remove */
 813:C:/Users/stapi/OneDrive/Desktop/GD32VW553/V1_MQTT_OK/GD32VW55X_Wifi_BLE_SDK/GD32VW55x_RELEASE_V1.0.2/MSDK/cloud/alicloud/src/services/ota\iotx_ota.c ****             h_ota->purl = NULL;
 814:C:/Users/stapi/OneDrive/Desktop/GD32VW553/V1_MQTT_OK/GD32VW55X_Wifi_BLE_SDK/GD32VW55x_RELEASE_V1.0.2/MSDK/cloud/alicloud/src/services/ota\iotx_ota.c ****         } else if (h_ota->fetch_cota_cb && h_ota->cota_url) {
 815:C:/Users/stapi/OneDrive/Desktop/GD32VW553/V1_MQTT_OK/GD32VW55X_Wifi_BLE_SDK/GD32VW55x_RELEASE_V1.0.2/MSDK/cloud/alicloud/src/services/ota\iotx_ota.c ****             h_ota->fetch_cota_cb(h_ota->user_data, 1, h_ota->configId, h_ota->configSize, h_ota->si
 816:C:/Users/stapi/OneDrive/Desktop/GD32VW553/V1_MQTT_OK/GD32VW55X_Wifi_BLE_SDK/GD32VW55x_RELEASE_V1.0.2/MSDK/cloud/alicloud/src/services/ota\iotx_ota.c ****                                  h_ota->cota_url, h_ota->getType);
 817:C:/Users/stapi/OneDrive/Desktop/GD32VW553/V1_MQTT_OK/GD32VW55X_Wifi_BLE_SDK/GD32VW55x_RELEASE_V1.0.2/MSDK/cloud/alicloud/src/services/ota\iotx_ota.c ****             /* remove */
 818:C:/Users/stapi/OneDrive/Desktop/GD32VW553/V1_MQTT_OK/GD32VW55X_Wifi_BLE_SDK/GD32VW55x_RELEASE_V1.0.2/MSDK/cloud/alicloud/src/services/ota\iotx_ota.c ****             h_ota->cota_url = NULL;
 819:C:/Users/stapi/OneDrive/Desktop/GD32VW553/V1_MQTT_OK/GD32VW55X_Wifi_BLE_SDK/GD32VW55x_RELEASE_V1.0.2/MSDK/cloud/alicloud/src/services/ota\iotx_ota.c ****         }
 820:C:/Users/stapi/OneDrive/Desktop/GD32VW553/V1_MQTT_OK/GD32VW55X_Wifi_BLE_SDK/GD32VW55x_RELEASE_V1.0.2/MSDK/cloud/alicloud/src/services/ota\iotx_ota.c ****         h_ota->size_fetched = 0;
 821:C:/Users/stapi/OneDrive/Desktop/GD32VW553/V1_MQTT_OK/GD32VW55X_Wifi_BLE_SDK/GD32VW55x_RELEASE_V1.0.2/MSDK/cloud/alicloud/src/services/ota\iotx_ota.c ****         return -1;
 822:C:/Users/stapi/OneDrive/Desktop/GD32VW553/V1_MQTT_OK/GD32VW55X_Wifi_BLE_SDK/GD32VW55x_RELEASE_V1.0.2/MSDK/cloud/alicloud/src/services/ota\iotx_ota.c ****     } else if (0 == h_ota->size_fetched) {
 823:C:/Users/stapi/OneDrive/Desktop/GD32VW553/V1_MQTT_OK/GD32VW55X_Wifi_BLE_SDK/GD32VW55x_RELEASE_V1.0.2/MSDK/cloud/alicloud/src/services/ota\iotx_ota.c ****         /* force report status in the first */
 824:C:/Users/stapi/OneDrive/Desktop/GD32VW553/V1_MQTT_OK/GD32VW55X_Wifi_BLE_SDK/GD32VW55x_RELEASE_V1.0.2/MSDK/cloud/alicloud/src/services/ota\iotx_ota.c ****         otalib_MD5Deinit(h_ota->md5);
 825:C:/Users/stapi/OneDrive/Desktop/GD32VW553/V1_MQTT_OK/GD32VW55X_Wifi_BLE_SDK/GD32VW55x_RELEASE_V1.0.2/MSDK/cloud/alicloud/src/services/ota\iotx_ota.c ****         h_ota->md5 = otalib_MD5Init();
 826:C:/Users/stapi/OneDrive/Desktop/GD32VW553/V1_MQTT_OK/GD32VW55X_Wifi_BLE_SDK/GD32VW55x_RELEASE_V1.0.2/MSDK/cloud/alicloud/src/services/ota\iotx_ota.c ****         if(h_ota->md5 == NULL) {
 827:C:/Users/stapi/OneDrive/Desktop/GD32VW553/V1_MQTT_OK/GD32VW55X_Wifi_BLE_SDK/GD32VW55x_RELEASE_V1.0.2/MSDK/cloud/alicloud/src/services/ota\iotx_ota.c ****             OTA_LOG_ERROR("md5 init failed");
 828:C:/Users/stapi/OneDrive/Desktop/GD32VW553/V1_MQTT_OK/GD32VW55X_Wifi_BLE_SDK/GD32VW55x_RELEASE_V1.0.2/MSDK/cloud/alicloud/src/services/ota\iotx_ota.c ****             return -1;
 829:C:/Users/stapi/OneDrive/Desktop/GD32VW553/V1_MQTT_OK/GD32VW55X_Wifi_BLE_SDK/GD32VW55x_RELEASE_V1.0.2/MSDK/cloud/alicloud/src/services/ota\iotx_ota.c ****         }
 830:C:/Users/stapi/OneDrive/Desktop/GD32VW553/V1_MQTT_OK/GD32VW55X_Wifi_BLE_SDK/GD32VW55x_RELEASE_V1.0.2/MSDK/cloud/alicloud/src/services/ota\iotx_ota.c **** 
 831:C:/Users/stapi/OneDrive/Desktop/GD32VW553/V1_MQTT_OK/GD32VW55X_Wifi_BLE_SDK/GD32VW55x_RELEASE_V1.0.2/MSDK/cloud/alicloud/src/services/ota\iotx_ota.c ****         otalib_Sha256Deinit(h_ota->sha256);
 832:C:/Users/stapi/OneDrive/Desktop/GD32VW553/V1_MQTT_OK/GD32VW55X_Wifi_BLE_SDK/GD32VW55x_RELEASE_V1.0.2/MSDK/cloud/alicloud/src/services/ota\iotx_ota.c ****         h_ota->sha256 = otalib_Sha256Init();
 833:C:/Users/stapi/OneDrive/Desktop/GD32VW553/V1_MQTT_OK/GD32VW55X_Wifi_BLE_SDK/GD32VW55x_RELEASE_V1.0.2/MSDK/cloud/alicloud/src/services/ota\iotx_ota.c ****         if(h_ota->sha256 == NULL) {
 834:C:/Users/stapi/OneDrive/Desktop/GD32VW553/V1_MQTT_OK/GD32VW55X_Wifi_BLE_SDK/GD32VW55x_RELEASE_V1.0.2/MSDK/cloud/alicloud/src/services/ota\iotx_ota.c ****             OTA_LOG_ERROR("sha256 init failed");
 835:C:/Users/stapi/OneDrive/Desktop/GD32VW553/V1_MQTT_OK/GD32VW55X_Wifi_BLE_SDK/GD32VW55x_RELEASE_V1.0.2/MSDK/cloud/alicloud/src/services/ota\iotx_ota.c ****             return -1;
 836:C:/Users/stapi/OneDrive/Desktop/GD32VW553/V1_MQTT_OK/GD32VW55X_Wifi_BLE_SDK/GD32VW55x_RELEASE_V1.0.2/MSDK/cloud/alicloud/src/services/ota\iotx_ota.c ****         }
 837:C:/Users/stapi/OneDrive/Desktop/GD32VW553/V1_MQTT_OK/GD32VW55X_Wifi_BLE_SDK/GD32VW55x_RELEASE_V1.0.2/MSDK/cloud/alicloud/src/services/ota\iotx_ota.c **** 
 838:C:/Users/stapi/OneDrive/Desktop/GD32VW553/V1_MQTT_OK/GD32VW55X_Wifi_BLE_SDK/GD32VW55x_RELEASE_V1.0.2/MSDK/cloud/alicloud/src/services/ota\iotx_ota.c ****         IOT_OTA_ReportProgress(h_ota, IOT_OTAP_FETCH_PERCENTAGE_MIN, "Enter in downloading state");
 839:C:/Users/stapi/OneDrive/Desktop/GD32VW553/V1_MQTT_OK/GD32VW55X_Wifi_BLE_SDK/GD32VW55x_RELEASE_V1.0.2/MSDK/cloud/alicloud/src/services/ota\iotx_ota.c ****     }
 840:C:/Users/stapi/OneDrive/Desktop/GD32VW553/V1_MQTT_OK/GD32VW55X_Wifi_BLE_SDK/GD32VW55x_RELEASE_V1.0.2/MSDK/cloud/alicloud/src/services/ota\iotx_ota.c **** 
 841:C:/Users/stapi/OneDrive/Desktop/GD32VW553/V1_MQTT_OK/GD32VW55X_Wifi_BLE_SDK/GD32VW55x_RELEASE_V1.0.2/MSDK/cloud/alicloud/src/services/ota\iotx_ota.c ****     otalib_MD5Update(h_ota->md5, buf, ret);
 842:C:/Users/stapi/OneDrive/Desktop/GD32VW553/V1_MQTT_OK/GD32VW55X_Wifi_BLE_SDK/GD32VW55x_RELEASE_V1.0.2/MSDK/cloud/alicloud/src/services/ota\iotx_ota.c ****     otalib_Sha256Update(h_ota->sha256, buf, ret);
 843:C:/Users/stapi/OneDrive/Desktop/GD32VW553/V1_MQTT_OK/GD32VW55X_Wifi_BLE_SDK/GD32VW55x_RELEASE_V1.0.2/MSDK/cloud/alicloud/src/services/ota\iotx_ota.c ****     h_ota->size_last_fetched = ret;
 844:C:/Users/stapi/OneDrive/Desktop/GD32VW553/V1_MQTT_OK/GD32VW55X_Wifi_BLE_SDK/GD32VW55x_RELEASE_V1.0.2/MSDK/cloud/alicloud/src/services/ota\iotx_ota.c ****     h_ota->size_fetched += ret;
 845:C:/Users/stapi/OneDrive/Desktop/GD32VW553/V1_MQTT_OK/GD32VW55X_Wifi_BLE_SDK/GD32VW55x_RELEASE_V1.0.2/MSDK/cloud/alicloud/src/services/ota\iotx_ota.c **** 
 846:C:/Users/stapi/OneDrive/Desktop/GD32VW553/V1_MQTT_OK/GD32VW55X_Wifi_BLE_SDK/GD32VW55x_RELEASE_V1.0.2/MSDK/cloud/alicloud/src/services/ota\iotx_ota.c ****     if (h_ota->size_fetched >= h_ota->size_file) {
 847:C:/Users/stapi/OneDrive/Desktop/GD32VW553/V1_MQTT_OK/GD32VW55X_Wifi_BLE_SDK/GD32VW55x_RELEASE_V1.0.2/MSDK/cloud/alicloud/src/services/ota\iotx_ota.c ****         h_ota->type = IOT_OTAT_NONE;
 848:C:/Users/stapi/OneDrive/Desktop/GD32VW553/V1_MQTT_OK/GD32VW55X_Wifi_BLE_SDK/GD32VW55x_RELEASE_V1.0.2/MSDK/cloud/alicloud/src/services/ota\iotx_ota.c ****         h_ota->state = IOT_OTAS_FETCHED;
 849:C:/Users/stapi/OneDrive/Desktop/GD32VW553/V1_MQTT_OK/GD32VW55X_Wifi_BLE_SDK/GD32VW55x_RELEASE_V1.0.2/MSDK/cloud/alicloud/src/services/ota\iotx_ota.c ****         if (h_ota->fetch_cb && h_ota->purl) {
 850:C:/Users/stapi/OneDrive/Desktop/GD32VW553/V1_MQTT_OK/GD32VW55X_Wifi_BLE_SDK/GD32VW55x_RELEASE_V1.0.2/MSDK/cloud/alicloud/src/services/ota\iotx_ota.c ****             h_ota->fetch_cb(h_ota->user_data, 1, h_ota->size_file, h_ota->purl, h_ota->version);
 851:C:/Users/stapi/OneDrive/Desktop/GD32VW553/V1_MQTT_OK/GD32VW55X_Wifi_BLE_SDK/GD32VW55x_RELEASE_V1.0.2/MSDK/cloud/alicloud/src/services/ota\iotx_ota.c ****             /* remove */
 852:C:/Users/stapi/OneDrive/Desktop/GD32VW553/V1_MQTT_OK/GD32VW55X_Wifi_BLE_SDK/GD32VW55x_RELEASE_V1.0.2/MSDK/cloud/alicloud/src/services/ota\iotx_ota.c ****             h_ota->purl = NULL;
 853:C:/Users/stapi/OneDrive/Desktop/GD32VW553/V1_MQTT_OK/GD32VW55X_Wifi_BLE_SDK/GD32VW55x_RELEASE_V1.0.2/MSDK/cloud/alicloud/src/services/ota\iotx_ota.c ****         } else if (h_ota->fetch_cota_cb && h_ota->cota_url) {
 854:C:/Users/stapi/OneDrive/Desktop/GD32VW553/V1_MQTT_OK/GD32VW55X_Wifi_BLE_SDK/GD32VW55x_RELEASE_V1.0.2/MSDK/cloud/alicloud/src/services/ota\iotx_ota.c ****             h_ota->fetch_cota_cb(h_ota->user_data, 1, h_ota->configId, h_ota->configSize, h_ota->si
 855:C:/Users/stapi/OneDrive/Desktop/GD32VW553/V1_MQTT_OK/GD32VW55X_Wifi_BLE_SDK/GD32VW55x_RELEASE_V1.0.2/MSDK/cloud/alicloud/src/services/ota\iotx_ota.c ****                                  h_ota->cota_url, h_ota->getType);
 856:C:/Users/stapi/OneDrive/Desktop/GD32VW553/V1_MQTT_OK/GD32VW55X_Wifi_BLE_SDK/GD32VW55x_RELEASE_V1.0.2/MSDK/cloud/alicloud/src/services/ota\iotx_ota.c ****             /* remove */
 857:C:/Users/stapi/OneDrive/Desktop/GD32VW553/V1_MQTT_OK/GD32VW55X_Wifi_BLE_SDK/GD32VW55x_RELEASE_V1.0.2/MSDK/cloud/alicloud/src/services/ota\iotx_ota.c ****             h_ota->cota_url = NULL;
 858:C:/Users/stapi/OneDrive/Desktop/GD32VW553/V1_MQTT_OK/GD32VW55X_Wifi_BLE_SDK/GD32VW55x_RELEASE_V1.0.2/MSDK/cloud/alicloud/src/services/ota\iotx_ota.c ****         }
 859:C:/Users/stapi/OneDrive/Desktop/GD32VW553/V1_MQTT_OK/GD32VW55X_Wifi_BLE_SDK/GD32VW55x_RELEASE_V1.0.2/MSDK/cloud/alicloud/src/services/ota\iotx_ota.c ****     }
 860:C:/Users/stapi/OneDrive/Desktop/GD32VW553/V1_MQTT_OK/GD32VW55X_Wifi_BLE_SDK/GD32VW55x_RELEASE_V1.0.2/MSDK/cloud/alicloud/src/services/ota\iotx_ota.c **** 
 861:C:/Users/stapi/OneDrive/Desktop/GD32VW553/V1_MQTT_OK/GD32VW55X_Wifi_BLE_SDK/GD32VW55x_RELEASE_V1.0.2/MSDK/cloud/alicloud/src/services/ota\iotx_ota.c ****     return ret;
 862:C:/Users/stapi/OneDrive/Desktop/GD32VW553/V1_MQTT_OK/GD32VW55X_Wifi_BLE_SDK/GD32VW55x_RELEASE_V1.0.2/MSDK/cloud/alicloud/src/services/ota\iotx_ota.c **** }
 3527              		.loc 2 862 1
 3528 0042 2685     		mv	a0,s1
 3529 0044 17030000 		tail	__riscv_restore_3
 3529      67000300 
 3530              		.cfi_remember_state
 3531              		.cfi_restore 18
 3532              		.cfi_restore 9
 3533              		.cfi_restore 8
 3534              		.cfi_restore 1
 3535              		.cfi_def_cfa_offset 0
 3536              	.LVL434:
 3537              	.L318:
 3538              		.cfi_restore_state
 798:C:/Users/stapi/OneDrive/Desktop/GD32VW553/V1_MQTT_OK/GD32VW55X_Wifi_BLE_SDK/GD32VW55x_RELEASE_V1.0.2/MSDK/cloud/alicloud/src/services/ota\iotx_ota.c ****         h_ota->err = IOT_OTAE_INVALID_STATE;
 3539              		.loc 2 798 8
 3540 004c 5845     		lw	a4,12(a0)
 3541 004e 8947     		li	a5,2
 3542 0050 2A84     		mv	s0,a0
 798:C:/Users/stapi/OneDrive/Desktop/GD32VW553/V1_MQTT_OK/GD32VW55X_Wifi_BLE_SDK/GD32VW55x_RELEASE_V1.0.2/MSDK/cloud/alicloud/src/services/ota\iotx_ota.c ****         h_ota->err = IOT_OTAE_INVALID_STATE;
 3543              		.loc 2 798 5 is_stmt 1
 798:C:/Users/stapi/OneDrive/Desktop/GD32VW553/V1_MQTT_OK/GD32VW55X_Wifi_BLE_SDK/GD32VW55x_RELEASE_V1.0.2/MSDK/cloud/alicloud/src/services/ota\iotx_ota.c ****         h_ota->err = IOT_OTAE_INVALID_STATE;
 3544              		.loc 2 798 8 is_stmt 0
 3545 0052 6306F700 		beq	a4,a5,.L320
 3546              	.LVL435:
 799:C:/Users/stapi/OneDrive/Desktop/GD32VW553/V1_MQTT_OK/GD32VW55X_Wifi_BLE_SDK/GD32VW55x_RELEASE_V1.0.2/MSDK/cloud/alicloud/src/services/ota\iotx_ota.c ****         return IOT_OTAE_INVALID_STATE;
 3547              		.loc 2 799 9 is_stmt 1
 799:C:/Users/stapi/OneDrive/Desktop/GD32VW553/V1_MQTT_OK/GD32VW55X_Wifi_BLE_SDK/GD32VW55x_RELEASE_V1.0.2/MSDK/cloud/alicloud/src/services/ota\iotx_ota.c ****         return IOT_OTAE_INVALID_STATE;
 3548              		.loc 2 799 20 is_stmt 0
 3549 0056 F557     		li	a5,-3
 3550 0058 7CD9     		sw	a5,116(a0)
 800:C:/Users/stapi/OneDrive/Desktop/GD32VW553/V1_MQTT_OK/GD32VW55X_Wifi_BLE_SDK/GD32VW55x_RELEASE_V1.0.2/MSDK/cloud/alicloud/src/services/ota\iotx_ota.c ****     }
 3551              		.loc 2 800 9 is_stmt 1
 800:C:/Users/stapi/OneDrive/Desktop/GD32VW553/V1_MQTT_OK/GD32VW55X_Wifi_BLE_SDK/GD32VW55x_RELEASE_V1.0.2/MSDK/cloud/alicloud/src/services/ota\iotx_ota.c ****     }
 3552              		.loc 2 800 16 is_stmt 0
 3553 005a F554     		li	s1,-3
 3554 005c DDB7     		j	.L316
 3555              	.L320:
 803:C:/Users/stapi/OneDrive/Desktop/GD32VW553/V1_MQTT_OK/GD32VW55X_Wifi_BLE_SDK/GD32VW55x_RELEASE_V1.0.2/MSDK/cloud/alicloud/src/services/ota\iotx_ota.c ****     if (ret < 0) {
 3556              		.loc 2 803 5 is_stmt 1
 803:C:/Users/stapi/OneDrive/Desktop/GD32VW553/V1_MQTT_OK/GD32VW55X_Wifi_BLE_SDK/GD32VW55x_RELEASE_V1.0.2/MSDK/cloud/alicloud/src/services/ota\iotx_ota.c ****     if (ret < 0) {
 3557              		.loc 2 803 11 is_stmt 0
 3558 005e 284D     		lw	a0,88(a0)
 3559 0060 97000000 		call	ofc_Fetch
 3559      E7800000 
 3560              	.LVL436:
 3561 0068 AA84     		mv	s1,a0
 3562              	.LVL437:
 804:C:/Users/stapi/OneDrive/Desktop/GD32VW553/V1_MQTT_OK/GD32VW55X_Wifi_BLE_SDK/GD32VW55x_RELEASE_V1.0.2/MSDK/cloud/alicloud/src/services/ota\iotx_ota.c ****         OTA_LOG_ERROR("Fetch firmware failed");
 3563              		.loc 2 804 5 is_stmt 1
 804:C:/Users/stapi/OneDrive/Desktop/GD32VW553/V1_MQTT_OK/GD32VW55X_Wifi_BLE_SDK/GD32VW55x_RELEASE_V1.0.2/MSDK/cloud/alicloud/src/services/ota\iotx_ota.c ****         OTA_LOG_ERROR("Fetch firmware failed");
 3564              		.loc 2 804 8 is_stmt 0
 3565 006a 63530508 		bge	a0,zero,.L321
 805:C:/Users/stapi/OneDrive/Desktop/GD32VW553/V1_MQTT_OK/GD32VW55X_Wifi_BLE_SDK/GD32VW55x_RELEASE_V1.0.2/MSDK/cloud/alicloud/src/services/ota\iotx_ota.c ****         h_ota->state = IOT_OTAS_FETCHED;
 3566              		.loc 2 805 9 is_stmt 1
 805:C:/Users/stapi/OneDrive/Desktop/GD32VW553/V1_MQTT_OK/GD32VW55X_Wifi_BLE_SDK/GD32VW55x_RELEASE_V1.0.2/MSDK/cloud/alicloud/src/services/ota\iotx_ota.c ****         h_ota->state = IOT_OTAS_FETCHED;
 3567              		.loc 2 805 9
 3568 006e 37050000 		lui	a0,%hi(.LC21)
 3569 0072 13050500 		addi	a0,a0,%lo(.LC21)
 3570 0076 97000000 		call	HAL_Printf
 3570      E7800000 
 3571              	.LVL438:
 805:C:/Users/stapi/OneDrive/Desktop/GD32VW553/V1_MQTT_OK/GD32VW55X_Wifi_BLE_SDK/GD32VW55x_RELEASE_V1.0.2/MSDK/cloud/alicloud/src/services/ota\iotx_ota.c ****         h_ota->state = IOT_OTAS_FETCHED;
 3572              		.loc 2 805 9
 3573 007e 37050000 		lui	a0,%hi(.LC74)
 3574 0082 13050500 		addi	a0,a0,%lo(.LC74)
 3575 0086 97000000 		call	HAL_Printf
 3575      E7800000 
 3576              	.LVL439:
 805:C:/Users/stapi/OneDrive/Desktop/GD32VW553/V1_MQTT_OK/GD32VW55X_Wifi_BLE_SDK/GD32VW55x_RELEASE_V1.0.2/MSDK/cloud/alicloud/src/services/ota\iotx_ota.c ****         h_ota->state = IOT_OTAS_FETCHED;
 3577              		.loc 2 805 9
 3578 008e 37050000 		lui	a0,%hi(.LC11)
 3579 0092 13050500 		addi	a0,a0,%lo(.LC11)
 3580 0096 97000000 		call	HAL_Printf
 3580      E7800000 
 3581              	.LVL440:
 805:C:/Users/stapi/OneDrive/Desktop/GD32VW553/V1_MQTT_OK/GD32VW55X_Wifi_BLE_SDK/GD32VW55x_RELEASE_V1.0.2/MSDK/cloud/alicloud/src/services/ota\iotx_ota.c ****         h_ota->state = IOT_OTAS_FETCHED;
 3582              		.loc 2 805 9
 806:C:/Users/stapi/OneDrive/Desktop/GD32VW553/V1_MQTT_OK/GD32VW55X_Wifi_BLE_SDK/GD32VW55x_RELEASE_V1.0.2/MSDK/cloud/alicloud/src/services/ota\iotx_ota.c ****         h_ota->type = IOT_OTAT_NONE;
 3583              		.loc 2 806 9
 806:C:/Users/stapi/OneDrive/Desktop/GD32VW553/V1_MQTT_OK/GD32VW55X_Wifi_BLE_SDK/GD32VW55x_RELEASE_V1.0.2/MSDK/cloud/alicloud/src/services/ota\iotx_ota.c ****         h_ota->type = IOT_OTAT_NONE;
 3584              		.loc 2 806 22 is_stmt 0
 3585 009e 8D47     		li	a5,3
 3586 00a0 5CC4     		sw	a5,12(s0)
 807:C:/Users/stapi/OneDrive/Desktop/GD32VW553/V1_MQTT_OK/GD32VW55X_Wifi_BLE_SDK/GD32VW55x_RELEASE_V1.0.2/MSDK/cloud/alicloud/src/services/ota\iotx_ota.c ****         h_ota->err = IOT_OTAE_FETCH_FAILED;
 3587              		.loc 2 807 9 is_stmt 1
 808:C:/Users/stapi/OneDrive/Desktop/GD32VW553/V1_MQTT_OK/GD32VW55X_Wifi_BLE_SDK/GD32VW55x_RELEASE_V1.0.2/MSDK/cloud/alicloud/src/services/ota\iotx_ota.c **** 
 3588              		.loc 2 808 20 is_stmt 0
 3589 00a2 ED57     		li	a5,-5
 3590 00a4 7CD8     		sw	a5,116(s0)
 810:C:/Users/stapi/OneDrive/Desktop/GD32VW553/V1_MQTT_OK/GD32VW55X_Wifi_BLE_SDK/GD32VW55x_RELEASE_V1.0.2/MSDK/cloud/alicloud/src/services/ota\iotx_ota.c ****             h_ota->fetch_cb(h_ota->user_data, 1, h_ota->size_file, h_ota->purl, h_ota->version);
 3591              		.loc 2 810 18
 3592 00a6 3C5C     		lw	a5,120(s0)
 807:C:/Users/stapi/OneDrive/Desktop/GD32VW553/V1_MQTT_OK/GD32VW55X_Wifi_BLE_SDK/GD32VW55x_RELEASE_V1.0.2/MSDK/cloud/alicloud/src/services/ota\iotx_ota.c ****         h_ota->err = IOT_OTAE_FETCH_FAILED;
 3593              		.loc 2 807 21
 3594 00a8 23280400 		sw	zero,16(s0)
 808:C:/Users/stapi/OneDrive/Desktop/GD32VW553/V1_MQTT_OK/GD32VW55X_Wifi_BLE_SDK/GD32VW55x_RELEASE_V1.0.2/MSDK/cloud/alicloud/src/services/ota\iotx_ota.c **** 
 3595              		.loc 2 808 9 is_stmt 1
 810:C:/Users/stapi/OneDrive/Desktop/GD32VW553/V1_MQTT_OK/GD32VW55X_Wifi_BLE_SDK/GD32VW55x_RELEASE_V1.0.2/MSDK/cloud/alicloud/src/services/ota\iotx_ota.c ****             h_ota->fetch_cb(h_ota->user_data, 1, h_ota->size_file, h_ota->purl, h_ota->version);
 3596              		.loc 2 810 9
 810:C:/Users/stapi/OneDrive/Desktop/GD32VW553/V1_MQTT_OK/GD32VW55X_Wifi_BLE_SDK/GD32VW55x_RELEASE_V1.0.2/MSDK/cloud/alicloud/src/services/ota\iotx_ota.c ****             h_ota->fetch_cb(h_ota->user_data, 1, h_ota->size_file, h_ota->purl, h_ota->version);
 3597              		.loc 2 810 12 is_stmt 0
 3598 00ac 91CF     		beq	a5,zero,.L322
 810:C:/Users/stapi/OneDrive/Desktop/GD32VW553/V1_MQTT_OK/GD32VW55X_Wifi_BLE_SDK/GD32VW55x_RELEASE_V1.0.2/MSDK/cloud/alicloud/src/services/ota\iotx_ota.c ****             h_ota->fetch_cb(h_ota->user_data, 1, h_ota->size_file, h_ota->purl, h_ota->version);
 3599              		.loc 2 810 37 discriminator 1
 3600 00ae 1450     		lw	a3,32(s0)
 810:C:/Users/stapi/OneDrive/Desktop/GD32VW553/V1_MQTT_OK/GD32VW55X_Wifi_BLE_SDK/GD32VW55x_RELEASE_V1.0.2/MSDK/cloud/alicloud/src/services/ota\iotx_ota.c ****             h_ota->fetch_cb(h_ota->user_data, 1, h_ota->size_file, h_ota->purl, h_ota->version);
 3601              		.loc 2 810 29 discriminator 1
 3602 00b0 81CE     		beq	a3,zero,.L322
 811:C:/Users/stapi/OneDrive/Desktop/GD32VW553/V1_MQTT_OK/GD32VW55X_Wifi_BLE_SDK/GD32VW55x_RELEASE_V1.0.2/MSDK/cloud/alicloud/src/services/ota\iotx_ota.c ****             /* remove */
 3603              		.loc 2 811 13 is_stmt 1
 3604 00b2 5850     		lw	a4,36(s0)
 3605 00b4 504C     		lw	a2,28(s0)
 3606 00b6 685C     		lw	a0,124(s0)
 3607 00b8 8545     		li	a1,1
 3608 00ba 8297     		jalr	a5
 3609              	.LVL441:
 813:C:/Users/stapi/OneDrive/Desktop/GD32VW553/V1_MQTT_OK/GD32VW55X_Wifi_BLE_SDK/GD32VW55x_RELEASE_V1.0.2/MSDK/cloud/alicloud/src/services/ota\iotx_ota.c ****         } else if (h_ota->fetch_cota_cb && h_ota->cota_url) {
 3610              		.loc 2 813 13
 813:C:/Users/stapi/OneDrive/Desktop/GD32VW553/V1_MQTT_OK/GD32VW55X_Wifi_BLE_SDK/GD32VW55x_RELEASE_V1.0.2/MSDK/cloud/alicloud/src/services/ota\iotx_ota.c ****         } else if (h_ota->fetch_cota_cb && h_ota->cota_url) {
 3611              		.loc 2 813 25 is_stmt 0
 3612 00bc 23200402 		sw	zero,32(s0)
 3613              	.L323:
 820:C:/Users/stapi/OneDrive/Desktop/GD32VW553/V1_MQTT_OK/GD32VW55X_Wifi_BLE_SDK/GD32VW55x_RELEASE_V1.0.2/MSDK/cloud/alicloud/src/services/ota\iotx_ota.c ****         return -1;
 3614              		.loc 2 820 9 is_stmt 1
 820:C:/Users/stapi/OneDrive/Desktop/GD32VW553/V1_MQTT_OK/GD32VW55X_Wifi_BLE_SDK/GD32VW55x_RELEASE_V1.0.2/MSDK/cloud/alicloud/src/services/ota\iotx_ota.c ****         return -1;
 3615              		.loc 2 820 29 is_stmt 0
 3616 00c0 232C0400 		sw	zero,24(s0)
 821:C:/Users/stapi/OneDrive/Desktop/GD32VW553/V1_MQTT_OK/GD32VW55X_Wifi_BLE_SDK/GD32VW55x_RELEASE_V1.0.2/MSDK/cloud/alicloud/src/services/ota\iotx_ota.c ****     } else if (0 == h_ota->size_fetched) {
 3617              		.loc 2 821 9 is_stmt 1
 3618              	.L359:
 827:C:/Users/stapi/OneDrive/Desktop/GD32VW553/V1_MQTT_OK/GD32VW55X_Wifi_BLE_SDK/GD32VW55x_RELEASE_V1.0.2/MSDK/cloud/alicloud/src/services/ota\iotx_ota.c ****             return -1;
 3619              		.loc 2 827 13
 828:C:/Users/stapi/OneDrive/Desktop/GD32VW553/V1_MQTT_OK/GD32VW55X_Wifi_BLE_SDK/GD32VW55x_RELEASE_V1.0.2/MSDK/cloud/alicloud/src/services/ota\iotx_ota.c ****         }
 3620              		.loc 2 828 13
 828:C:/Users/stapi/OneDrive/Desktop/GD32VW553/V1_MQTT_OK/GD32VW55X_Wifi_BLE_SDK/GD32VW55x_RELEASE_V1.0.2/MSDK/cloud/alicloud/src/services/ota\iotx_ota.c ****         }
 3621              		.loc 2 828 20 is_stmt 0
 3622 00c4 FD54     		li	s1,-1
 3623              	.LVL442:
 3624 00c6 B5BF     		j	.L316
 3625              	.LVL443:
 3626              	.L322:
 814:C:/Users/stapi/OneDrive/Desktop/GD32VW553/V1_MQTT_OK/GD32VW55X_Wifi_BLE_SDK/GD32VW55x_RELEASE_V1.0.2/MSDK/cloud/alicloud/src/services/ota\iotx_ota.c ****             h_ota->fetch_cota_cb(h_ota->user_data, 1, h_ota->configId, h_ota->configSize, h_ota->si
 3627              		.loc 2 814 16 is_stmt 1
 814:C:/Users/stapi/OneDrive/Desktop/GD32VW553/V1_MQTT_OK/GD32VW55X_Wifi_BLE_SDK/GD32VW55x_RELEASE_V1.0.2/MSDK/cloud/alicloud/src/services/ota\iotx_ota.c ****             h_ota->fetch_cota_cb(h_ota->user_data, 1, h_ota->configId, h_ota->configSize, h_ota->si
 3628              		.loc 2 814 25 is_stmt 0
 3629 00c8 03230408 		lw	t1,128(s0)
 814:C:/Users/stapi/OneDrive/Desktop/GD32VW553/V1_MQTT_OK/GD32VW55X_Wifi_BLE_SDK/GD32VW55x_RELEASE_V1.0.2/MSDK/cloud/alicloud/src/services/ota\iotx_ota.c ****             h_ota->fetch_cota_cb(h_ota->user_data, 1, h_ota->configId, h_ota->configSize, h_ota->si
 3630              		.loc 2 814 19
 3631 00cc E30A03FE 		beq	t1,zero,.L323
 814:C:/Users/stapi/OneDrive/Desktop/GD32VW553/V1_MQTT_OK/GD32VW55X_Wifi_BLE_SDK/GD32VW55x_RELEASE_V1.0.2/MSDK/cloud/alicloud/src/services/ota\iotx_ota.c ****             h_ota->fetch_cota_cb(h_ota->user_data, 1, h_ota->configId, h_ota->configSize, h_ota->si
 3632              		.loc 2 814 49 discriminator 1
 3633 00d0 0328C406 		lw	a6,108(s0)
 814:C:/Users/stapi/OneDrive/Desktop/GD32VW553/V1_MQTT_OK/GD32VW55X_Wifi_BLE_SDK/GD32VW55x_RELEASE_V1.0.2/MSDK/cloud/alicloud/src/services/ota\iotx_ota.c ****             h_ota->fetch_cota_cb(h_ota->user_data, 1, h_ota->configId, h_ota->configSize, h_ota->si
 3634              		.loc 2 814 41 discriminator 1
 3635 00d4 E30608FE 		beq	a6,zero,.L323
 815:C:/Users/stapi/OneDrive/Desktop/GD32VW553/V1_MQTT_OK/GD32VW55X_Wifi_BLE_SDK/GD32VW55x_RELEASE_V1.0.2/MSDK/cloud/alicloud/src/services/ota\iotx_ota.c ****                                  h_ota->cota_url, h_ota->getType);
 3636              		.loc 2 815 13 is_stmt 1
 3637 00d8 83280407 		lw	a7,112(s0)
 3638 00dc 3C54     		lw	a5,104(s0)
 3639 00de 7850     		lw	a4,100(s0)
 3640 00e0 3450     		lw	a3,96(s0)
 3641 00e2 704C     		lw	a2,92(s0)
 3642 00e4 685C     		lw	a0,124(s0)
 3643 00e6 8545     		li	a1,1
 3644 00e8 0293     		jalr	t1
 3645              	.LVL444:
 818:C:/Users/stapi/OneDrive/Desktop/GD32VW553/V1_MQTT_OK/GD32VW55X_Wifi_BLE_SDK/GD32VW55x_RELEASE_V1.0.2/MSDK/cloud/alicloud/src/services/ota\iotx_ota.c ****         }
 3646              		.loc 2 818 13
 818:C:/Users/stapi/OneDrive/Desktop/GD32VW553/V1_MQTT_OK/GD32VW55X_Wifi_BLE_SDK/GD32VW55x_RELEASE_V1.0.2/MSDK/cloud/alicloud/src/services/ota\iotx_ota.c ****         }
 3647              		.loc 2 818 29 is_stmt 0
 3648 00ea 23260406 		sw	zero,108(s0)
 3649 00ee C9BF     		j	.L323
 3650              	.L321:
 822:C:/Users/stapi/OneDrive/Desktop/GD32VW553/V1_MQTT_OK/GD32VW55X_Wifi_BLE_SDK/GD32VW55x_RELEASE_V1.0.2/MSDK/cloud/alicloud/src/services/ota\iotx_ota.c ****         /* force report status in the first */
 3651              		.loc 2 822 12 is_stmt 1
 822:C:/Users/stapi/OneDrive/Desktop/GD32VW553/V1_MQTT_OK/GD32VW55X_Wifi_BLE_SDK/GD32VW55x_RELEASE_V1.0.2/MSDK/cloud/alicloud/src/services/ota\iotx_ota.c ****         /* force report status in the first */
 3652              		.loc 2 822 15 is_stmt 0
 3653 00f0 1C4C     		lw	a5,24(s0)
 3654 00f2 D9E7     		bne	a5,zero,.L324
 824:C:/Users/stapi/OneDrive/Desktop/GD32VW553/V1_MQTT_OK/GD32VW55X_Wifi_BLE_SDK/GD32VW55x_RELEASE_V1.0.2/MSDK/cloud/alicloud/src/services/ota\iotx_ota.c ****         h_ota->md5 = otalib_MD5Init();
 3655              		.loc 2 824 9 is_stmt 1
 3656 00f4 6844     		lw	a0,76(s0)
 3657 00f6 97000000 		call	otalib_MD5Deinit
 3657      E7800000 
 3658              	.LVL445:
 825:C:/Users/stapi/OneDrive/Desktop/GD32VW553/V1_MQTT_OK/GD32VW55X_Wifi_BLE_SDK/GD32VW55x_RELEASE_V1.0.2/MSDK/cloud/alicloud/src/services/ota\iotx_ota.c ****         if(h_ota->md5 == NULL) {
 3659              		.loc 2 825 9
 825:C:/Users/stapi/OneDrive/Desktop/GD32VW553/V1_MQTT_OK/GD32VW55X_Wifi_BLE_SDK/GD32VW55x_RELEASE_V1.0.2/MSDK/cloud/alicloud/src/services/ota\iotx_ota.c ****         if(h_ota->md5 == NULL) {
 3660              		.loc 2 825 22 is_stmt 0
 3661 00fe 97000000 		call	otalib_MD5Init
 3661      E7800000 
 3662              	.LVL446:
 825:C:/Users/stapi/OneDrive/Desktop/GD32VW553/V1_MQTT_OK/GD32VW55X_Wifi_BLE_SDK/GD32VW55x_RELEASE_V1.0.2/MSDK/cloud/alicloud/src/services/ota\iotx_ota.c ****         if(h_ota->md5 == NULL) {
 3663              		.loc 2 825 20
 3664 0106 68C4     		sw	a0,76(s0)
 826:C:/Users/stapi/OneDrive/Desktop/GD32VW553/V1_MQTT_OK/GD32VW55X_Wifi_BLE_SDK/GD32VW55x_RELEASE_V1.0.2/MSDK/cloud/alicloud/src/services/ota\iotx_ota.c ****             OTA_LOG_ERROR("md5 init failed");
 3665              		.loc 2 826 9 is_stmt 1
 826:C:/Users/stapi/OneDrive/Desktop/GD32VW553/V1_MQTT_OK/GD32VW55X_Wifi_BLE_SDK/GD32VW55x_RELEASE_V1.0.2/MSDK/cloud/alicloud/src/services/ota\iotx_ota.c ****             OTA_LOG_ERROR("md5 init failed");
 3666              		.loc 2 826 11 is_stmt 0
 3667 0108 15E9     		bne	a0,zero,.L325
 827:C:/Users/stapi/OneDrive/Desktop/GD32VW553/V1_MQTT_OK/GD32VW55X_Wifi_BLE_SDK/GD32VW55x_RELEASE_V1.0.2/MSDK/cloud/alicloud/src/services/ota\iotx_ota.c ****             return -1;
 3668              		.loc 2 827 13 is_stmt 1
 827:C:/Users/stapi/OneDrive/Desktop/GD32VW553/V1_MQTT_OK/GD32VW55X_Wifi_BLE_SDK/GD32VW55x_RELEASE_V1.0.2/MSDK/cloud/alicloud/src/services/ota\iotx_ota.c ****             return -1;
 3669              		.loc 2 827 13
 3670 010a 37050000 		lui	a0,%hi(.LC21)
 3671 010e 13050500 		addi	a0,a0,%lo(.LC21)
 3672 0112 97000000 		call	HAL_Printf
 3672      E7800000 
 3673              	.LVL447:
 827:C:/Users/stapi/OneDrive/Desktop/GD32VW553/V1_MQTT_OK/GD32VW55X_Wifi_BLE_SDK/GD32VW55x_RELEASE_V1.0.2/MSDK/cloud/alicloud/src/services/ota\iotx_ota.c ****             return -1;
 3674              		.loc 2 827 13
 3675 011a 37050000 		lui	a0,%hi(.LC75)
 3676 011e 13050500 		addi	a0,a0,%lo(.LC75)
 3677              	.L360:
 3678 0122 97000000 		call	HAL_Printf
 3678      E7800000 
 3679              	.LVL448:
 827:C:/Users/stapi/OneDrive/Desktop/GD32VW553/V1_MQTT_OK/GD32VW55X_Wifi_BLE_SDK/GD32VW55x_RELEASE_V1.0.2/MSDK/cloud/alicloud/src/services/ota\iotx_ota.c ****             return -1;
 3680              		.loc 2 827 13
 3681 012a 37050000 		lui	a0,%hi(.LC11)
 3682 012e 13050500 		addi	a0,a0,%lo(.LC11)
 3683 0132 97000000 		call	HAL_Printf
 3683      E7800000 
 3684              	.LVL449:
 3685 013a 69B7     		j	.L359
 3686              	.L325:
 831:C:/Users/stapi/OneDrive/Desktop/GD32VW553/V1_MQTT_OK/GD32VW55X_Wifi_BLE_SDK/GD32VW55x_RELEASE_V1.0.2/MSDK/cloud/alicloud/src/services/ota\iotx_ota.c ****         h_ota->sha256 = otalib_Sha256Init();
 3687              		.loc 2 831 9
 3688 013c 2848     		lw	a0,80(s0)
 3689 013e 97000000 		call	otalib_Sha256Deinit
 3689      E7800000 
 3690              	.LVL450:
 832:C:/Users/stapi/OneDrive/Desktop/GD32VW553/V1_MQTT_OK/GD32VW55X_Wifi_BLE_SDK/GD32VW55x_RELEASE_V1.0.2/MSDK/cloud/alicloud/src/services/ota\iotx_ota.c ****         if(h_ota->sha256 == NULL) {
 3691              		.loc 2 832 9
 832:C:/Users/stapi/OneDrive/Desktop/GD32VW553/V1_MQTT_OK/GD32VW55X_Wifi_BLE_SDK/GD32VW55x_RELEASE_V1.0.2/MSDK/cloud/alicloud/src/services/ota\iotx_ota.c ****         if(h_ota->sha256 == NULL) {
 3692              		.loc 2 832 25 is_stmt 0
 3693 0146 97000000 		call	otalib_Sha256Init
 3693      E7800000 
 3694              	.LVL451:
 832:C:/Users/stapi/OneDrive/Desktop/GD32VW553/V1_MQTT_OK/GD32VW55X_Wifi_BLE_SDK/GD32VW55x_RELEASE_V1.0.2/MSDK/cloud/alicloud/src/services/ota\iotx_ota.c ****         if(h_ota->sha256 == NULL) {
 3695              		.loc 2 832 23
 3696 014e 28C8     		sw	a0,80(s0)
 833:C:/Users/stapi/OneDrive/Desktop/GD32VW553/V1_MQTT_OK/GD32VW55X_Wifi_BLE_SDK/GD32VW55x_RELEASE_V1.0.2/MSDK/cloud/alicloud/src/services/ota\iotx_ota.c ****             OTA_LOG_ERROR("sha256 init failed");
 3697              		.loc 2 833 9 is_stmt 1
 833:C:/Users/stapi/OneDrive/Desktop/GD32VW553/V1_MQTT_OK/GD32VW55X_Wifi_BLE_SDK/GD32VW55x_RELEASE_V1.0.2/MSDK/cloud/alicloud/src/services/ota\iotx_ota.c ****             OTA_LOG_ERROR("sha256 init failed");
 3698              		.loc 2 833 11 is_stmt 0
 3699 0150 11ED     		bne	a0,zero,.L326
 834:C:/Users/stapi/OneDrive/Desktop/GD32VW553/V1_MQTT_OK/GD32VW55X_Wifi_BLE_SDK/GD32VW55x_RELEASE_V1.0.2/MSDK/cloud/alicloud/src/services/ota\iotx_ota.c ****             return -1;
 3700              		.loc 2 834 13 is_stmt 1
 834:C:/Users/stapi/OneDrive/Desktop/GD32VW553/V1_MQTT_OK/GD32VW55X_Wifi_BLE_SDK/GD32VW55x_RELEASE_V1.0.2/MSDK/cloud/alicloud/src/services/ota\iotx_ota.c ****             return -1;
 3701              		.loc 2 834 13
 3702 0152 37050000 		lui	a0,%hi(.LC21)
 3703 0156 13050500 		addi	a0,a0,%lo(.LC21)
 3704 015a 97000000 		call	HAL_Printf
 3704      E7800000 
 3705              	.LVL452:
 834:C:/Users/stapi/OneDrive/Desktop/GD32VW553/V1_MQTT_OK/GD32VW55X_Wifi_BLE_SDK/GD32VW55x_RELEASE_V1.0.2/MSDK/cloud/alicloud/src/services/ota\iotx_ota.c ****             return -1;
 3706              		.loc 2 834 13
 3707 0162 37050000 		lui	a0,%hi(.LC76)
 3708 0166 13050500 		addi	a0,a0,%lo(.LC76)
 3709 016a 65BF     		j	.L360
 3710              	.L326:
 838:C:/Users/stapi/OneDrive/Desktop/GD32VW553/V1_MQTT_OK/GD32VW55X_Wifi_BLE_SDK/GD32VW55x_RELEASE_V1.0.2/MSDK/cloud/alicloud/src/services/ota\iotx_ota.c ****     }
 3711              		.loc 2 838 9
 3712 016c 37060000 		lui	a2,%hi(.LC77)
 3713 0170 13060600 		addi	a2,a2,%lo(.LC77)
 3714 0174 8145     		li	a1,0
 3715 0176 2285     		mv	a0,s0
 3716 0178 97000000 		call	IOT_OTA_ReportProgress
 3716      E7800000 
 3717              	.LVL453:
 3718              	.L324:
 841:C:/Users/stapi/OneDrive/Desktop/GD32VW553/V1_MQTT_OK/GD32VW55X_Wifi_BLE_SDK/GD32VW55x_RELEASE_V1.0.2/MSDK/cloud/alicloud/src/services/ota\iotx_ota.c ****     otalib_Sha256Update(h_ota->sha256, buf, ret);
 3719              		.loc 2 841 5
 3720 0180 6844     		lw	a0,76(s0)
 3721 0182 2686     		mv	a2,s1
 3722 0184 CA85     		mv	a1,s2
 3723 0186 97000000 		call	otalib_MD5Update
 3723      E7800000 
 3724              	.LVL454:
 842:C:/Users/stapi/OneDrive/Desktop/GD32VW553/V1_MQTT_OK/GD32VW55X_Wifi_BLE_SDK/GD32VW55x_RELEASE_V1.0.2/MSDK/cloud/alicloud/src/services/ota\iotx_ota.c ****     h_ota->size_last_fetched = ret;
 3725              		.loc 2 842 5
 3726 018e 2848     		lw	a0,80(s0)
 3727 0190 2686     		mv	a2,s1
 3728 0192 CA85     		mv	a1,s2
 3729 0194 97000000 		call	otalib_Sha256Update
 3729      E7800000 
 3730              	.LVL455:
 843:C:/Users/stapi/OneDrive/Desktop/GD32VW553/V1_MQTT_OK/GD32VW55X_Wifi_BLE_SDK/GD32VW55x_RELEASE_V1.0.2/MSDK/cloud/alicloud/src/services/ota\iotx_ota.c ****     h_ota->size_fetched += ret;
 3731              		.loc 2 843 5
 844:C:/Users/stapi/OneDrive/Desktop/GD32VW553/V1_MQTT_OK/GD32VW55X_Wifi_BLE_SDK/GD32VW55x_RELEASE_V1.0.2/MSDK/cloud/alicloud/src/services/ota\iotx_ota.c **** 
 3732              		.loc 2 844 25 is_stmt 0
 3733 019c 1C4C     		lw	a5,24(s0)
 846:C:/Users/stapi/OneDrive/Desktop/GD32VW553/V1_MQTT_OK/GD32VW55X_Wifi_BLE_SDK/GD32VW55x_RELEASE_V1.0.2/MSDK/cloud/alicloud/src/services/ota\iotx_ota.c ****         h_ota->type = IOT_OTAT_NONE;
 3734              		.loc 2 846 37
 3735 019e 504C     		lw	a2,28(s0)
 843:C:/Users/stapi/OneDrive/Desktop/GD32VW553/V1_MQTT_OK/GD32VW55X_Wifi_BLE_SDK/GD32VW55x_RELEASE_V1.0.2/MSDK/cloud/alicloud/src/services/ota\iotx_ota.c ****     h_ota->size_fetched += ret;
 3736              		.loc 2 843 30
 3737 01a0 44C8     		sw	s1,20(s0)
 844:C:/Users/stapi/OneDrive/Desktop/GD32VW553/V1_MQTT_OK/GD32VW55X_Wifi_BLE_SDK/GD32VW55x_RELEASE_V1.0.2/MSDK/cloud/alicloud/src/services/ota\iotx_ota.c **** 
 3738              		.loc 2 844 5 is_stmt 1
 844:C:/Users/stapi/OneDrive/Desktop/GD32VW553/V1_MQTT_OK/GD32VW55X_Wifi_BLE_SDK/GD32VW55x_RELEASE_V1.0.2/MSDK/cloud/alicloud/src/services/ota\iotx_ota.c **** 
 3739              		.loc 2 844 25 is_stmt 0
 3740 01a2 A697     		add	a5,s1,a5
 3741 01a4 1CCC     		sw	a5,24(s0)
 846:C:/Users/stapi/OneDrive/Desktop/GD32VW553/V1_MQTT_OK/GD32VW55X_Wifi_BLE_SDK/GD32VW55x_RELEASE_V1.0.2/MSDK/cloud/alicloud/src/services/ota\iotx_ota.c ****         h_ota->type = IOT_OTAT_NONE;
 3742              		.loc 2 846 5 is_stmt 1
 846:C:/Users/stapi/OneDrive/Desktop/GD32VW553/V1_MQTT_OK/GD32VW55X_Wifi_BLE_SDK/GD32VW55x_RELEASE_V1.0.2/MSDK/cloud/alicloud/src/services/ota\iotx_ota.c ****         h_ota->type = IOT_OTAT_NONE;
 3743              		.loc 2 846 8 is_stmt 0
 3744 01a6 E3EEC7E8 		bltu	a5,a2,.L316
 847:C:/Users/stapi/OneDrive/Desktop/GD32VW553/V1_MQTT_OK/GD32VW55X_Wifi_BLE_SDK/GD32VW55x_RELEASE_V1.0.2/MSDK/cloud/alicloud/src/services/ota\iotx_ota.c ****         h_ota->state = IOT_OTAS_FETCHED;
 3745              		.loc 2 847 9 is_stmt 1
 848:C:/Users/stapi/OneDrive/Desktop/GD32VW553/V1_MQTT_OK/GD32VW55X_Wifi_BLE_SDK/GD32VW55x_RELEASE_V1.0.2/MSDK/cloud/alicloud/src/services/ota\iotx_ota.c ****         if (h_ota->fetch_cb && h_ota->purl) {
 3746              		.loc 2 848 22 is_stmt 0
 3747 01aa 8D47     		li	a5,3
 3748 01ac 5CC4     		sw	a5,12(s0)
 849:C:/Users/stapi/OneDrive/Desktop/GD32VW553/V1_MQTT_OK/GD32VW55X_Wifi_BLE_SDK/GD32VW55x_RELEASE_V1.0.2/MSDK/cloud/alicloud/src/services/ota\iotx_ota.c ****             h_ota->fetch_cb(h_ota->user_data, 1, h_ota->size_file, h_ota->purl, h_ota->version);
 3749              		.loc 2 849 18
 3750 01ae 3C5C     		lw	a5,120(s0)
 847:C:/Users/stapi/OneDrive/Desktop/GD32VW553/V1_MQTT_OK/GD32VW55X_Wifi_BLE_SDK/GD32VW55x_RELEASE_V1.0.2/MSDK/cloud/alicloud/src/services/ota\iotx_ota.c ****         h_ota->state = IOT_OTAS_FETCHED;
 3751              		.loc 2 847 21
 3752 01b0 23280400 		sw	zero,16(s0)
 848:C:/Users/stapi/OneDrive/Desktop/GD32VW553/V1_MQTT_OK/GD32VW55X_Wifi_BLE_SDK/GD32VW55x_RELEASE_V1.0.2/MSDK/cloud/alicloud/src/services/ota\iotx_ota.c ****         if (h_ota->fetch_cb && h_ota->purl) {
 3753              		.loc 2 848 9 is_stmt 1
 849:C:/Users/stapi/OneDrive/Desktop/GD32VW553/V1_MQTT_OK/GD32VW55X_Wifi_BLE_SDK/GD32VW55x_RELEASE_V1.0.2/MSDK/cloud/alicloud/src/services/ota\iotx_ota.c ****             h_ota->fetch_cb(h_ota->user_data, 1, h_ota->size_file, h_ota->purl, h_ota->version);
 3754              		.loc 2 849 9
 849:C:/Users/stapi/OneDrive/Desktop/GD32VW553/V1_MQTT_OK/GD32VW55X_Wifi_BLE_SDK/GD32VW55x_RELEASE_V1.0.2/MSDK/cloud/alicloud/src/services/ota\iotx_ota.c ****             h_ota->fetch_cb(h_ota->user_data, 1, h_ota->size_file, h_ota->purl, h_ota->version);
 3755              		.loc 2 849 12 is_stmt 0
 3756 01b4 91CB     		beq	a5,zero,.L327
 849:C:/Users/stapi/OneDrive/Desktop/GD32VW553/V1_MQTT_OK/GD32VW55X_Wifi_BLE_SDK/GD32VW55x_RELEASE_V1.0.2/MSDK/cloud/alicloud/src/services/ota\iotx_ota.c ****             h_ota->fetch_cb(h_ota->user_data, 1, h_ota->size_file, h_ota->purl, h_ota->version);
 3757              		.loc 2 849 37 discriminator 1
 3758 01b6 1450     		lw	a3,32(s0)
 849:C:/Users/stapi/OneDrive/Desktop/GD32VW553/V1_MQTT_OK/GD32VW55X_Wifi_BLE_SDK/GD32VW55x_RELEASE_V1.0.2/MSDK/cloud/alicloud/src/services/ota\iotx_ota.c ****             h_ota->fetch_cb(h_ota->user_data, 1, h_ota->size_file, h_ota->purl, h_ota->version);
 3759              		.loc 2 849 29 discriminator 1
 3760 01b8 81CA     		beq	a3,zero,.L327
 850:C:/Users/stapi/OneDrive/Desktop/GD32VW553/V1_MQTT_OK/GD32VW55X_Wifi_BLE_SDK/GD32VW55x_RELEASE_V1.0.2/MSDK/cloud/alicloud/src/services/ota\iotx_ota.c ****             /* remove */
 3761              		.loc 2 850 13 is_stmt 1
 3762 01ba 5850     		lw	a4,36(s0)
 3763 01bc 685C     		lw	a0,124(s0)
 3764 01be 8545     		li	a1,1
 3765 01c0 8297     		jalr	a5
 3766              	.LVL456:
 852:C:/Users/stapi/OneDrive/Desktop/GD32VW553/V1_MQTT_OK/GD32VW55X_Wifi_BLE_SDK/GD32VW55x_RELEASE_V1.0.2/MSDK/cloud/alicloud/src/services/ota\iotx_ota.c ****         } else if (h_ota->fetch_cota_cb && h_ota->cota_url) {
 3767              		.loc 2 852 13
 852:C:/Users/stapi/OneDrive/Desktop/GD32VW553/V1_MQTT_OK/GD32VW55X_Wifi_BLE_SDK/GD32VW55x_RELEASE_V1.0.2/MSDK/cloud/alicloud/src/services/ota\iotx_ota.c ****         } else if (h_ota->fetch_cota_cb && h_ota->cota_url) {
 3768              		.loc 2 852 25 is_stmt 0
 3769 01c2 23200402 		sw	zero,32(s0)
 3770 01c6 B5BD     		j	.L316
 3771              	.L327:
 853:C:/Users/stapi/OneDrive/Desktop/GD32VW553/V1_MQTT_OK/GD32VW55X_Wifi_BLE_SDK/GD32VW55x_RELEASE_V1.0.2/MSDK/cloud/alicloud/src/services/ota\iotx_ota.c ****             h_ota->fetch_cota_cb(h_ota->user_data, 1, h_ota->configId, h_ota->configSize, h_ota->si
 3772              		.loc 2 853 16 is_stmt 1
 853:C:/Users/stapi/OneDrive/Desktop/GD32VW553/V1_MQTT_OK/GD32VW55X_Wifi_BLE_SDK/GD32VW55x_RELEASE_V1.0.2/MSDK/cloud/alicloud/src/services/ota\iotx_ota.c ****             h_ota->fetch_cota_cb(h_ota->user_data, 1, h_ota->configId, h_ota->configSize, h_ota->si
 3773              		.loc 2 853 25 is_stmt 0
 3774 01c8 03230408 		lw	t1,128(s0)
 853:C:/Users/stapi/OneDrive/Desktop/GD32VW553/V1_MQTT_OK/GD32VW55X_Wifi_BLE_SDK/GD32VW55x_RELEASE_V1.0.2/MSDK/cloud/alicloud/src/services/ota\iotx_ota.c ****             h_ota->fetch_cota_cb(h_ota->user_data, 1, h_ota->configId, h_ota->configSize, h_ota->si
 3775              		.loc 2 853 19
 3776 01cc E30B03E6 		beq	t1,zero,.L316
 853:C:/Users/stapi/OneDrive/Desktop/GD32VW553/V1_MQTT_OK/GD32VW55X_Wifi_BLE_SDK/GD32VW55x_RELEASE_V1.0.2/MSDK/cloud/alicloud/src/services/ota\iotx_ota.c ****             h_ota->fetch_cota_cb(h_ota->user_data, 1, h_ota->configId, h_ota->configSize, h_ota->si
 3777              		.loc 2 853 49 discriminator 1
 3778 01d0 0328C406 		lw	a6,108(s0)
 853:C:/Users/stapi/OneDrive/Desktop/GD32VW553/V1_MQTT_OK/GD32VW55X_Wifi_BLE_SDK/GD32VW55x_RELEASE_V1.0.2/MSDK/cloud/alicloud/src/services/ota\iotx_ota.c ****             h_ota->fetch_cota_cb(h_ota->user_data, 1, h_ota->configId, h_ota->configSize, h_ota->si
 3779              		.loc 2 853 41 discriminator 1
 3780 01d4 E30708E6 		beq	a6,zero,.L316
 854:C:/Users/stapi/OneDrive/Desktop/GD32VW553/V1_MQTT_OK/GD32VW55X_Wifi_BLE_SDK/GD32VW55x_RELEASE_V1.0.2/MSDK/cloud/alicloud/src/services/ota\iotx_ota.c ****                                  h_ota->cota_url, h_ota->getType);
 3781              		.loc 2 854 13 is_stmt 1
 3782 01d8 83280407 		lw	a7,112(s0)
 3783 01dc 3C54     		lw	a5,104(s0)
 3784 01de 7850     		lw	a4,100(s0)
 3785 01e0 3450     		lw	a3,96(s0)
 3786 01e2 704C     		lw	a2,92(s0)
 3787 01e4 685C     		lw	a0,124(s0)
 3788 01e6 8545     		li	a1,1
 3789 01e8 0293     		jalr	t1
 3790              	.LVL457:
 857:C:/Users/stapi/OneDrive/Desktop/GD32VW553/V1_MQTT_OK/GD32VW55X_Wifi_BLE_SDK/GD32VW55x_RELEASE_V1.0.2/MSDK/cloud/alicloud/src/services/ota\iotx_ota.c ****         }
 3791              		.loc 2 857 13
 857:C:/Users/stapi/OneDrive/Desktop/GD32VW553/V1_MQTT_OK/GD32VW55X_Wifi_BLE_SDK/GD32VW55x_RELEASE_V1.0.2/MSDK/cloud/alicloud/src/services/ota\iotx_ota.c ****         }
 3792              		.loc 2 857 29 is_stmt 0
 3793 01ea 23260406 		sw	zero,108(s0)
 3794 01ee 91BD     		j	.L316
 3795              		.cfi_endproc
 3796              	.LFE43:
 3798              		.section	.rodata.IOT_OTA_Ioctl.str1.4,"aMS",@progbits,1
 3799              		.align	2
 3800              	.LC78:
 3801 0000 496E7661 		.string	"Invalid parameter"
 3801      6C696420 
 3801      70617261 
 3801      6D657465 
 3801      7200
 3802 0012 0000     		.align	2
 3803              	.LC79:
 3804 0014 4669726D 		.string	"Firmware can be checked in IOT_OTAS_FETCHED state only"
 3804      77617265 
 3804      2063616E 
 3804      20626520 
 3804      63686563 
 3805 004b 00       		.align	2
 3806              	.LC80:
 3807 004c 6F726967 		.string	"origin=%s, now=%s"
 3807      696E3D25 
 3807      732C206E 
 3807      6F773D25 
 3807      7300
 3808 005e 0000     		.align	2
 3809              	.LC81:
 3810 0060 436F6E66 		.string	"Config can be checked in IOT_OTAS_FETCHED state only"
 3810      69672063 
 3810      616E2062 
 3810      65206368 
 3810      65636B65 
 3811 0095 000000   		.align	2
 3812              	.LC82:
 3813 0098 4D643500 		.string	"Md5"
 3814              		.align	2
 3815              	.LC83:
 3816 009c 53686132 		.string	"Sha256"
 3816      353600
 3817 00a3 00       		.align	2
 3818              	.LC84:
 3819 00a4 696E7661 		.string	"invalid cmd type"
 3819      6C696420 
 3819      636D6420 
 3819      74797065 
 3819      00
 3820              		.section	.text.IOT_OTA_Ioctl,"ax",@progbits
 3821              		.align	1
 3822              		.globl	IOT_OTA_Ioctl
 3824              	IOT_OTA_Ioctl:
 3825              	.LFB44:
 863:C:/Users/stapi/OneDrive/Desktop/GD32VW553/V1_MQTT_OK/GD32VW55X_Wifi_BLE_SDK/GD32VW55x_RELEASE_V1.0.2/MSDK/cloud/alicloud/src/services/ota\iotx_ota.c **** 
 864:C:/Users/stapi/OneDrive/Desktop/GD32VW553/V1_MQTT_OK/GD32VW55X_Wifi_BLE_SDK/GD32VW55x_RELEASE_V1.0.2/MSDK/cloud/alicloud/src/services/ota\iotx_ota.c **** 
 865:C:/Users/stapi/OneDrive/Desktop/GD32VW553/V1_MQTT_OK/GD32VW55X_Wifi_BLE_SDK/GD32VW55x_RELEASE_V1.0.2/MSDK/cloud/alicloud/src/services/ota\iotx_ota.c **** int IOT_OTA_Ioctl(void *handle, IOT_OTA_CmdType_t type, void *buf, size_t buf_len)
 866:C:/Users/stapi/OneDrive/Desktop/GD32VW553/V1_MQTT_OK/GD32VW55X_Wifi_BLE_SDK/GD32VW55x_RELEASE_V1.0.2/MSDK/cloud/alicloud/src/services/ota\iotx_ota.c **** {
 3826              		.loc 2 866 1 is_stmt 1
 3827              		.cfi_startproc
 3828              	.LVL458:
 3829 0000 17030000 		call	t0,__riscv_save_3
 3829      E7020300 
 3830              		.cfi_offset 18, -16
 3831              		.cfi_offset 9, -12
 3832              		.cfi_offset 8, -8
 3833              		.cfi_offset 1, -4
 3834              		.cfi_def_cfa_offset 16
 867:C:/Users/stapi/OneDrive/Desktop/GD32VW553/V1_MQTT_OK/GD32VW55X_Wifi_BLE_SDK/GD32VW55x_RELEASE_V1.0.2/MSDK/cloud/alicloud/src/services/ota\iotx_ota.c ****     OTA_Struct_pt h_ota = (OTA_Struct_pt) handle;
 3835              		.loc 2 867 5
 3836              	.LVL459:
 868:C:/Users/stapi/OneDrive/Desktop/GD32VW553/V1_MQTT_OK/GD32VW55X_Wifi_BLE_SDK/GD32VW55x_RELEASE_V1.0.2/MSDK/cloud/alicloud/src/services/ota\iotx_ota.c **** 
 869:C:/Users/stapi/OneDrive/Desktop/GD32VW553/V1_MQTT_OK/GD32VW55X_Wifi_BLE_SDK/GD32VW55x_RELEASE_V1.0.2/MSDK/cloud/alicloud/src/services/ota\iotx_ota.c ****     if ((NULL == handle) || (NULL == buf) || (0 == buf_len)) {
 3837              		.loc 2 869 5
 866:C:/Users/stapi/OneDrive/Desktop/GD32VW553/V1_MQTT_OK/GD32VW55X_Wifi_BLE_SDK/GD32VW55x_RELEASE_V1.0.2/MSDK/cloud/alicloud/src/services/ota\iotx_ota.c ****     OTA_Struct_pt h_ota = (OTA_Struct_pt) handle;
 3838              		.loc 2 866 1 is_stmt 0
 3839 0008 1D71     		addi	sp,sp,-96
 3840              		.cfi_def_cfa_offset 112
 3841              		.loc 2 869 8
 3842 000a 09C5     		beq	a0,zero,.L362
 3843 000c B284     		mv	s1,a2
 3844              		.loc 2 869 26 discriminator 1
 3845 000e 19C2     		beq	a2,zero,.L362
 3846 0010 3689     		mv	s2,a3
 3847              		.loc 2 869 43 discriminator 2
 3848 0012 A1E2     		bne	a3,zero,.L363
 3849              	.L362:
 870:C:/Users/stapi/OneDrive/Desktop/GD32VW553/V1_MQTT_OK/GD32VW55X_Wifi_BLE_SDK/GD32VW55x_RELEASE_V1.0.2/MSDK/cloud/alicloud/src/services/ota\iotx_ota.c ****         OTA_LOG_ERROR("invalid parameter");
 3850              		.loc 2 870 9 is_stmt 1
 3851              		.loc 2 870 9
 3852 0014 37050000 		lui	a0,%hi(.LC21)
 3853              	.LVL460:
 3854 0018 13050500 		addi	a0,a0,%lo(.LC21)
 3855 001c 97000000 		call	HAL_Printf
 3855      E7800000 
 3856              	.LVL461:
 3857              		.loc 2 870 9
 3858 0024 37050000 		lui	a0,%hi(.LC73)
 3859 0028 13050500 		addi	a0,a0,%lo(.LC73)
 3860 002c 97000000 		call	HAL_Printf
 3860      E7800000 
 3861              	.LVL462:
 3862              		.loc 2 870 9
 3863 0034 37050000 		lui	a0,%hi(.LC11)
 3864 0038 13050500 		addi	a0,a0,%lo(.LC11)
 3865 003c 97000000 		call	HAL_Printf
 3865      E7800000 
 3866              	.LVL463:
 3867              		.loc 2 870 9
 871:C:/Users/stapi/OneDrive/Desktop/GD32VW553/V1_MQTT_OK/GD32VW55X_Wifi_BLE_SDK/GD32VW55x_RELEASE_V1.0.2/MSDK/cloud/alicloud/src/services/ota\iotx_ota.c ****         return IOT_OTAE_INVALID_PARAM;
 3868              		.loc 2 871 9
 3869              		.loc 2 871 16 is_stmt 0
 3870 0044 7959     		li	s2,-2
 3871              	.L361:
 872:C:/Users/stapi/OneDrive/Desktop/GD32VW553/V1_MQTT_OK/GD32VW55X_Wifi_BLE_SDK/GD32VW55x_RELEASE_V1.0.2/MSDK/cloud/alicloud/src/services/ota\iotx_ota.c ****     }
 873:C:/Users/stapi/OneDrive/Desktop/GD32VW553/V1_MQTT_OK/GD32VW55X_Wifi_BLE_SDK/GD32VW55x_RELEASE_V1.0.2/MSDK/cloud/alicloud/src/services/ota\iotx_ota.c **** 
 874:C:/Users/stapi/OneDrive/Desktop/GD32VW553/V1_MQTT_OK/GD32VW55X_Wifi_BLE_SDK/GD32VW55x_RELEASE_V1.0.2/MSDK/cloud/alicloud/src/services/ota\iotx_ota.c ****     if (h_ota->state < IOT_OTAS_FETCHING) {
 875:C:/Users/stapi/OneDrive/Desktop/GD32VW553/V1_MQTT_OK/GD32VW55X_Wifi_BLE_SDK/GD32VW55x_RELEASE_V1.0.2/MSDK/cloud/alicloud/src/services/ota\iotx_ota.c ****         h_ota->err = IOT_OTAE_INVALID_STATE;
 876:C:/Users/stapi/OneDrive/Desktop/GD32VW553/V1_MQTT_OK/GD32VW55X_Wifi_BLE_SDK/GD32VW55x_RELEASE_V1.0.2/MSDK/cloud/alicloud/src/services/ota\iotx_ota.c ****         return IOT_OTAE_INVALID_STATE;
 877:C:/Users/stapi/OneDrive/Desktop/GD32VW553/V1_MQTT_OK/GD32VW55X_Wifi_BLE_SDK/GD32VW55x_RELEASE_V1.0.2/MSDK/cloud/alicloud/src/services/ota\iotx_ota.c ****     }
 878:C:/Users/stapi/OneDrive/Desktop/GD32VW553/V1_MQTT_OK/GD32VW55X_Wifi_BLE_SDK/GD32VW55x_RELEASE_V1.0.2/MSDK/cloud/alicloud/src/services/ota\iotx_ota.c **** 
 879:C:/Users/stapi/OneDrive/Desktop/GD32VW553/V1_MQTT_OK/GD32VW55X_Wifi_BLE_SDK/GD32VW55x_RELEASE_V1.0.2/MSDK/cloud/alicloud/src/services/ota\iotx_ota.c ****     switch (type) {
 880:C:/Users/stapi/OneDrive/Desktop/GD32VW553/V1_MQTT_OK/GD32VW55X_Wifi_BLE_SDK/GD32VW55x_RELEASE_V1.0.2/MSDK/cloud/alicloud/src/services/ota\iotx_ota.c ****         case IOT_OTAG_COTA_CONFIG_ID: {
 881:C:/Users/stapi/OneDrive/Desktop/GD32VW553/V1_MQTT_OK/GD32VW55X_Wifi_BLE_SDK/GD32VW55x_RELEASE_V1.0.2/MSDK/cloud/alicloud/src/services/ota\iotx_ota.c ****             char **value = (char **)buf;
 882:C:/Users/stapi/OneDrive/Desktop/GD32VW553/V1_MQTT_OK/GD32VW55X_Wifi_BLE_SDK/GD32VW55x_RELEASE_V1.0.2/MSDK/cloud/alicloud/src/services/ota\iotx_ota.c ****             if (value == NULL || *value != NULL || h_ota->configId == NULL) {
 883:C:/Users/stapi/OneDrive/Desktop/GD32VW553/V1_MQTT_OK/GD32VW55X_Wifi_BLE_SDK/GD32VW55x_RELEASE_V1.0.2/MSDK/cloud/alicloud/src/services/ota\iotx_ota.c ****                 OTA_LOG_ERROR("Invalid parameter");
 884:C:/Users/stapi/OneDrive/Desktop/GD32VW553/V1_MQTT_OK/GD32VW55X_Wifi_BLE_SDK/GD32VW55x_RELEASE_V1.0.2/MSDK/cloud/alicloud/src/services/ota\iotx_ota.c ****                 h_ota->err = IOT_OTAE_INVALID_PARAM;
 885:C:/Users/stapi/OneDrive/Desktop/GD32VW553/V1_MQTT_OK/GD32VW55X_Wifi_BLE_SDK/GD32VW55x_RELEASE_V1.0.2/MSDK/cloud/alicloud/src/services/ota\iotx_ota.c ****                 return -1;
 886:C:/Users/stapi/OneDrive/Desktop/GD32VW553/V1_MQTT_OK/GD32VW55X_Wifi_BLE_SDK/GD32VW55x_RELEASE_V1.0.2/MSDK/cloud/alicloud/src/services/ota\iotx_ota.c ****             } else {
 887:C:/Users/stapi/OneDrive/Desktop/GD32VW553/V1_MQTT_OK/GD32VW55X_Wifi_BLE_SDK/GD32VW55x_RELEASE_V1.0.2/MSDK/cloud/alicloud/src/services/ota\iotx_ota.c ****                 *value = OTA_API_MALLOC(strlen(h_ota->configId) + 1);
 888:C:/Users/stapi/OneDrive/Desktop/GD32VW553/V1_MQTT_OK/GD32VW55X_Wifi_BLE_SDK/GD32VW55x_RELEASE_V1.0.2/MSDK/cloud/alicloud/src/services/ota\iotx_ota.c ****                 if (*value == NULL) {
 889:C:/Users/stapi/OneDrive/Desktop/GD32VW553/V1_MQTT_OK/GD32VW55X_Wifi_BLE_SDK/GD32VW55x_RELEASE_V1.0.2/MSDK/cloud/alicloud/src/services/ota\iotx_ota.c ****                     h_ota->err = IOT_OTAE_INVALID_PARAM;
 890:C:/Users/stapi/OneDrive/Desktop/GD32VW553/V1_MQTT_OK/GD32VW55X_Wifi_BLE_SDK/GD32VW55x_RELEASE_V1.0.2/MSDK/cloud/alicloud/src/services/ota\iotx_ota.c ****                     return -1;
 891:C:/Users/stapi/OneDrive/Desktop/GD32VW553/V1_MQTT_OK/GD32VW55X_Wifi_BLE_SDK/GD32VW55x_RELEASE_V1.0.2/MSDK/cloud/alicloud/src/services/ota\iotx_ota.c ****                 }
 892:C:/Users/stapi/OneDrive/Desktop/GD32VW553/V1_MQTT_OK/GD32VW55X_Wifi_BLE_SDK/GD32VW55x_RELEASE_V1.0.2/MSDK/cloud/alicloud/src/services/ota\iotx_ota.c ****                 memset(*value, 0, strlen(h_ota->configId) + 1);
 893:C:/Users/stapi/OneDrive/Desktop/GD32VW553/V1_MQTT_OK/GD32VW55X_Wifi_BLE_SDK/GD32VW55x_RELEASE_V1.0.2/MSDK/cloud/alicloud/src/services/ota\iotx_ota.c ****                 memcpy(*value, h_ota->configId, strlen(h_ota->configId));
 894:C:/Users/stapi/OneDrive/Desktop/GD32VW553/V1_MQTT_OK/GD32VW55X_Wifi_BLE_SDK/GD32VW55x_RELEASE_V1.0.2/MSDK/cloud/alicloud/src/services/ota\iotx_ota.c ****                 return 0;
 895:C:/Users/stapi/OneDrive/Desktop/GD32VW553/V1_MQTT_OK/GD32VW55X_Wifi_BLE_SDK/GD32VW55x_RELEASE_V1.0.2/MSDK/cloud/alicloud/src/services/ota\iotx_ota.c ****             }
 896:C:/Users/stapi/OneDrive/Desktop/GD32VW553/V1_MQTT_OK/GD32VW55X_Wifi_BLE_SDK/GD32VW55x_RELEASE_V1.0.2/MSDK/cloud/alicloud/src/services/ota\iotx_ota.c ****         }
 897:C:/Users/stapi/OneDrive/Desktop/GD32VW553/V1_MQTT_OK/GD32VW55X_Wifi_BLE_SDK/GD32VW55x_RELEASE_V1.0.2/MSDK/cloud/alicloud/src/services/ota\iotx_ota.c ****         break;
 898:C:/Users/stapi/OneDrive/Desktop/GD32VW553/V1_MQTT_OK/GD32VW55X_Wifi_BLE_SDK/GD32VW55x_RELEASE_V1.0.2/MSDK/cloud/alicloud/src/services/ota\iotx_ota.c ****         case IOT_OTAG_COTA_CONFIG_SIZE: {
 899:C:/Users/stapi/OneDrive/Desktop/GD32VW553/V1_MQTT_OK/GD32VW55X_Wifi_BLE_SDK/GD32VW55x_RELEASE_V1.0.2/MSDK/cloud/alicloud/src/services/ota\iotx_ota.c ****             if ((4 != buf_len) || (0 != ((unsigned long)buf & 0x3))) {
 900:C:/Users/stapi/OneDrive/Desktop/GD32VW553/V1_MQTT_OK/GD32VW55X_Wifi_BLE_SDK/GD32VW55x_RELEASE_V1.0.2/MSDK/cloud/alicloud/src/services/ota\iotx_ota.c ****                 OTA_LOG_ERROR("Invalid parameter");
 901:C:/Users/stapi/OneDrive/Desktop/GD32VW553/V1_MQTT_OK/GD32VW55X_Wifi_BLE_SDK/GD32VW55x_RELEASE_V1.0.2/MSDK/cloud/alicloud/src/services/ota\iotx_ota.c ****                 h_ota->err = IOT_OTAE_INVALID_PARAM;
 902:C:/Users/stapi/OneDrive/Desktop/GD32VW553/V1_MQTT_OK/GD32VW55X_Wifi_BLE_SDK/GD32VW55x_RELEASE_V1.0.2/MSDK/cloud/alicloud/src/services/ota\iotx_ota.c ****                 return -1;
 903:C:/Users/stapi/OneDrive/Desktop/GD32VW553/V1_MQTT_OK/GD32VW55X_Wifi_BLE_SDK/GD32VW55x_RELEASE_V1.0.2/MSDK/cloud/alicloud/src/services/ota\iotx_ota.c ****             } else {
 904:C:/Users/stapi/OneDrive/Desktop/GD32VW553/V1_MQTT_OK/GD32VW55X_Wifi_BLE_SDK/GD32VW55x_RELEASE_V1.0.2/MSDK/cloud/alicloud/src/services/ota\iotx_ota.c ****                 *((uint32_t *)buf) = h_ota->configSize;
 905:C:/Users/stapi/OneDrive/Desktop/GD32VW553/V1_MQTT_OK/GD32VW55X_Wifi_BLE_SDK/GD32VW55x_RELEASE_V1.0.2/MSDK/cloud/alicloud/src/services/ota\iotx_ota.c ****                 return 0;
 906:C:/Users/stapi/OneDrive/Desktop/GD32VW553/V1_MQTT_OK/GD32VW55X_Wifi_BLE_SDK/GD32VW55x_RELEASE_V1.0.2/MSDK/cloud/alicloud/src/services/ota\iotx_ota.c ****             }
 907:C:/Users/stapi/OneDrive/Desktop/GD32VW553/V1_MQTT_OK/GD32VW55X_Wifi_BLE_SDK/GD32VW55x_RELEASE_V1.0.2/MSDK/cloud/alicloud/src/services/ota\iotx_ota.c ****         }
 908:C:/Users/stapi/OneDrive/Desktop/GD32VW553/V1_MQTT_OK/GD32VW55X_Wifi_BLE_SDK/GD32VW55x_RELEASE_V1.0.2/MSDK/cloud/alicloud/src/services/ota\iotx_ota.c ****         break;
 909:C:/Users/stapi/OneDrive/Desktop/GD32VW553/V1_MQTT_OK/GD32VW55X_Wifi_BLE_SDK/GD32VW55x_RELEASE_V1.0.2/MSDK/cloud/alicloud/src/services/ota\iotx_ota.c ****         case IOT_OTAG_COTA_SIGN: {
 910:C:/Users/stapi/OneDrive/Desktop/GD32VW553/V1_MQTT_OK/GD32VW55X_Wifi_BLE_SDK/GD32VW55x_RELEASE_V1.0.2/MSDK/cloud/alicloud/src/services/ota\iotx_ota.c ****             char **value = (char **)buf;
 911:C:/Users/stapi/OneDrive/Desktop/GD32VW553/V1_MQTT_OK/GD32VW55X_Wifi_BLE_SDK/GD32VW55x_RELEASE_V1.0.2/MSDK/cloud/alicloud/src/services/ota\iotx_ota.c ****             if (value == NULL || *value != NULL || h_ota->sign == NULL) {
 912:C:/Users/stapi/OneDrive/Desktop/GD32VW553/V1_MQTT_OK/GD32VW55X_Wifi_BLE_SDK/GD32VW55x_RELEASE_V1.0.2/MSDK/cloud/alicloud/src/services/ota\iotx_ota.c ****                 OTA_LOG_ERROR("Invalid parameter");
 913:C:/Users/stapi/OneDrive/Desktop/GD32VW553/V1_MQTT_OK/GD32VW55X_Wifi_BLE_SDK/GD32VW55x_RELEASE_V1.0.2/MSDK/cloud/alicloud/src/services/ota\iotx_ota.c ****                 h_ota->err = IOT_OTAE_INVALID_PARAM;
 914:C:/Users/stapi/OneDrive/Desktop/GD32VW553/V1_MQTT_OK/GD32VW55X_Wifi_BLE_SDK/GD32VW55x_RELEASE_V1.0.2/MSDK/cloud/alicloud/src/services/ota\iotx_ota.c ****                 return -1;
 915:C:/Users/stapi/OneDrive/Desktop/GD32VW553/V1_MQTT_OK/GD32VW55X_Wifi_BLE_SDK/GD32VW55x_RELEASE_V1.0.2/MSDK/cloud/alicloud/src/services/ota\iotx_ota.c ****             } else {
 916:C:/Users/stapi/OneDrive/Desktop/GD32VW553/V1_MQTT_OK/GD32VW55X_Wifi_BLE_SDK/GD32VW55x_RELEASE_V1.0.2/MSDK/cloud/alicloud/src/services/ota\iotx_ota.c ****                 *value = OTA_API_MALLOC(strlen(h_ota->sign) + 1);
 917:C:/Users/stapi/OneDrive/Desktop/GD32VW553/V1_MQTT_OK/GD32VW55X_Wifi_BLE_SDK/GD32VW55x_RELEASE_V1.0.2/MSDK/cloud/alicloud/src/services/ota\iotx_ota.c ****                 if (*value == NULL) {
 918:C:/Users/stapi/OneDrive/Desktop/GD32VW553/V1_MQTT_OK/GD32VW55X_Wifi_BLE_SDK/GD32VW55x_RELEASE_V1.0.2/MSDK/cloud/alicloud/src/services/ota\iotx_ota.c ****                     h_ota->err = IOT_OTAE_INVALID_PARAM;
 919:C:/Users/stapi/OneDrive/Desktop/GD32VW553/V1_MQTT_OK/GD32VW55X_Wifi_BLE_SDK/GD32VW55x_RELEASE_V1.0.2/MSDK/cloud/alicloud/src/services/ota\iotx_ota.c ****                     return -1;
 920:C:/Users/stapi/OneDrive/Desktop/GD32VW553/V1_MQTT_OK/GD32VW55X_Wifi_BLE_SDK/GD32VW55x_RELEASE_V1.0.2/MSDK/cloud/alicloud/src/services/ota\iotx_ota.c ****                 }
 921:C:/Users/stapi/OneDrive/Desktop/GD32VW553/V1_MQTT_OK/GD32VW55X_Wifi_BLE_SDK/GD32VW55x_RELEASE_V1.0.2/MSDK/cloud/alicloud/src/services/ota\iotx_ota.c ****                 memset(*value, 0, strlen(h_ota->sign) + 1);
 922:C:/Users/stapi/OneDrive/Desktop/GD32VW553/V1_MQTT_OK/GD32VW55X_Wifi_BLE_SDK/GD32VW55x_RELEASE_V1.0.2/MSDK/cloud/alicloud/src/services/ota\iotx_ota.c ****                 memcpy(*value, h_ota->sign, strlen(h_ota->sign));
 923:C:/Users/stapi/OneDrive/Desktop/GD32VW553/V1_MQTT_OK/GD32VW55X_Wifi_BLE_SDK/GD32VW55x_RELEASE_V1.0.2/MSDK/cloud/alicloud/src/services/ota\iotx_ota.c ****                 return 0;
 924:C:/Users/stapi/OneDrive/Desktop/GD32VW553/V1_MQTT_OK/GD32VW55X_Wifi_BLE_SDK/GD32VW55x_RELEASE_V1.0.2/MSDK/cloud/alicloud/src/services/ota\iotx_ota.c ****             }
 925:C:/Users/stapi/OneDrive/Desktop/GD32VW553/V1_MQTT_OK/GD32VW55X_Wifi_BLE_SDK/GD32VW55x_RELEASE_V1.0.2/MSDK/cloud/alicloud/src/services/ota\iotx_ota.c ****         }
 926:C:/Users/stapi/OneDrive/Desktop/GD32VW553/V1_MQTT_OK/GD32VW55X_Wifi_BLE_SDK/GD32VW55x_RELEASE_V1.0.2/MSDK/cloud/alicloud/src/services/ota\iotx_ota.c ****         break;
 927:C:/Users/stapi/OneDrive/Desktop/GD32VW553/V1_MQTT_OK/GD32VW55X_Wifi_BLE_SDK/GD32VW55x_RELEASE_V1.0.2/MSDK/cloud/alicloud/src/services/ota\iotx_ota.c ****         case IOT_OTAG_COTA_SIGN_METHOD: {
 928:C:/Users/stapi/OneDrive/Desktop/GD32VW553/V1_MQTT_OK/GD32VW55X_Wifi_BLE_SDK/GD32VW55x_RELEASE_V1.0.2/MSDK/cloud/alicloud/src/services/ota\iotx_ota.c ****             char **value = (char **)buf;
 929:C:/Users/stapi/OneDrive/Desktop/GD32VW553/V1_MQTT_OK/GD32VW55X_Wifi_BLE_SDK/GD32VW55x_RELEASE_V1.0.2/MSDK/cloud/alicloud/src/services/ota\iotx_ota.c ****             if (value == NULL || *value != NULL || h_ota->signMethod == NULL) {
 930:C:/Users/stapi/OneDrive/Desktop/GD32VW553/V1_MQTT_OK/GD32VW55X_Wifi_BLE_SDK/GD32VW55x_RELEASE_V1.0.2/MSDK/cloud/alicloud/src/services/ota\iotx_ota.c ****                 OTA_LOG_ERROR("Invalid parameter");
 931:C:/Users/stapi/OneDrive/Desktop/GD32VW553/V1_MQTT_OK/GD32VW55X_Wifi_BLE_SDK/GD32VW55x_RELEASE_V1.0.2/MSDK/cloud/alicloud/src/services/ota\iotx_ota.c ****                 h_ota->err = IOT_OTAE_INVALID_PARAM;
 932:C:/Users/stapi/OneDrive/Desktop/GD32VW553/V1_MQTT_OK/GD32VW55X_Wifi_BLE_SDK/GD32VW55x_RELEASE_V1.0.2/MSDK/cloud/alicloud/src/services/ota\iotx_ota.c ****                 return -1;
 933:C:/Users/stapi/OneDrive/Desktop/GD32VW553/V1_MQTT_OK/GD32VW55X_Wifi_BLE_SDK/GD32VW55x_RELEASE_V1.0.2/MSDK/cloud/alicloud/src/services/ota\iotx_ota.c ****             } else {
 934:C:/Users/stapi/OneDrive/Desktop/GD32VW553/V1_MQTT_OK/GD32VW55X_Wifi_BLE_SDK/GD32VW55x_RELEASE_V1.0.2/MSDK/cloud/alicloud/src/services/ota\iotx_ota.c ****                 *value = OTA_API_MALLOC(strlen(h_ota->signMethod) + 1);
 935:C:/Users/stapi/OneDrive/Desktop/GD32VW553/V1_MQTT_OK/GD32VW55X_Wifi_BLE_SDK/GD32VW55x_RELEASE_V1.0.2/MSDK/cloud/alicloud/src/services/ota\iotx_ota.c ****                 if (*value == NULL) {
 936:C:/Users/stapi/OneDrive/Desktop/GD32VW553/V1_MQTT_OK/GD32VW55X_Wifi_BLE_SDK/GD32VW55x_RELEASE_V1.0.2/MSDK/cloud/alicloud/src/services/ota\iotx_ota.c ****                     h_ota->err = IOT_OTAE_INVALID_PARAM;
 937:C:/Users/stapi/OneDrive/Desktop/GD32VW553/V1_MQTT_OK/GD32VW55X_Wifi_BLE_SDK/GD32VW55x_RELEASE_V1.0.2/MSDK/cloud/alicloud/src/services/ota\iotx_ota.c ****                     return -1;
 938:C:/Users/stapi/OneDrive/Desktop/GD32VW553/V1_MQTT_OK/GD32VW55X_Wifi_BLE_SDK/GD32VW55x_RELEASE_V1.0.2/MSDK/cloud/alicloud/src/services/ota\iotx_ota.c ****                 }
 939:C:/Users/stapi/OneDrive/Desktop/GD32VW553/V1_MQTT_OK/GD32VW55X_Wifi_BLE_SDK/GD32VW55x_RELEASE_V1.0.2/MSDK/cloud/alicloud/src/services/ota\iotx_ota.c ****                 memset(*value, 0, strlen(h_ota->signMethod) + 1);
 940:C:/Users/stapi/OneDrive/Desktop/GD32VW553/V1_MQTT_OK/GD32VW55X_Wifi_BLE_SDK/GD32VW55x_RELEASE_V1.0.2/MSDK/cloud/alicloud/src/services/ota\iotx_ota.c ****                 memcpy(*value, h_ota->signMethod, strlen(h_ota->signMethod));
 941:C:/Users/stapi/OneDrive/Desktop/GD32VW553/V1_MQTT_OK/GD32VW55X_Wifi_BLE_SDK/GD32VW55x_RELEASE_V1.0.2/MSDK/cloud/alicloud/src/services/ota\iotx_ota.c ****                 return 0;
 942:C:/Users/stapi/OneDrive/Desktop/GD32VW553/V1_MQTT_OK/GD32VW55X_Wifi_BLE_SDK/GD32VW55x_RELEASE_V1.0.2/MSDK/cloud/alicloud/src/services/ota\iotx_ota.c ****             }
 943:C:/Users/stapi/OneDrive/Desktop/GD32VW553/V1_MQTT_OK/GD32VW55X_Wifi_BLE_SDK/GD32VW55x_RELEASE_V1.0.2/MSDK/cloud/alicloud/src/services/ota\iotx_ota.c ****         }
 944:C:/Users/stapi/OneDrive/Desktop/GD32VW553/V1_MQTT_OK/GD32VW55X_Wifi_BLE_SDK/GD32VW55x_RELEASE_V1.0.2/MSDK/cloud/alicloud/src/services/ota\iotx_ota.c ****         break;
 945:C:/Users/stapi/OneDrive/Desktop/GD32VW553/V1_MQTT_OK/GD32VW55X_Wifi_BLE_SDK/GD32VW55x_RELEASE_V1.0.2/MSDK/cloud/alicloud/src/services/ota\iotx_ota.c ****         case IOT_OTAG_COTA_URL: {
 946:C:/Users/stapi/OneDrive/Desktop/GD32VW553/V1_MQTT_OK/GD32VW55X_Wifi_BLE_SDK/GD32VW55x_RELEASE_V1.0.2/MSDK/cloud/alicloud/src/services/ota\iotx_ota.c ****             char **value = (char **)buf;
 947:C:/Users/stapi/OneDrive/Desktop/GD32VW553/V1_MQTT_OK/GD32VW55X_Wifi_BLE_SDK/GD32VW55x_RELEASE_V1.0.2/MSDK/cloud/alicloud/src/services/ota\iotx_ota.c ****             if (value == NULL || *value != NULL || h_ota->cota_url == NULL) {
 948:C:/Users/stapi/OneDrive/Desktop/GD32VW553/V1_MQTT_OK/GD32VW55X_Wifi_BLE_SDK/GD32VW55x_RELEASE_V1.0.2/MSDK/cloud/alicloud/src/services/ota\iotx_ota.c ****                 OTA_LOG_ERROR("Invalid parameter");
 949:C:/Users/stapi/OneDrive/Desktop/GD32VW553/V1_MQTT_OK/GD32VW55X_Wifi_BLE_SDK/GD32VW55x_RELEASE_V1.0.2/MSDK/cloud/alicloud/src/services/ota\iotx_ota.c ****                 h_ota->err = IOT_OTAE_INVALID_PARAM;
 950:C:/Users/stapi/OneDrive/Desktop/GD32VW553/V1_MQTT_OK/GD32VW55X_Wifi_BLE_SDK/GD32VW55x_RELEASE_V1.0.2/MSDK/cloud/alicloud/src/services/ota\iotx_ota.c ****                 return -1;
 951:C:/Users/stapi/OneDrive/Desktop/GD32VW553/V1_MQTT_OK/GD32VW55X_Wifi_BLE_SDK/GD32VW55x_RELEASE_V1.0.2/MSDK/cloud/alicloud/src/services/ota\iotx_ota.c ****             } else {
 952:C:/Users/stapi/OneDrive/Desktop/GD32VW553/V1_MQTT_OK/GD32VW55X_Wifi_BLE_SDK/GD32VW55x_RELEASE_V1.0.2/MSDK/cloud/alicloud/src/services/ota\iotx_ota.c ****                 *value = OTA_API_MALLOC(strlen(h_ota->cota_url) + 1);
 953:C:/Users/stapi/OneDrive/Desktop/GD32VW553/V1_MQTT_OK/GD32VW55X_Wifi_BLE_SDK/GD32VW55x_RELEASE_V1.0.2/MSDK/cloud/alicloud/src/services/ota\iotx_ota.c ****                 if (*value == NULL) {
 954:C:/Users/stapi/OneDrive/Desktop/GD32VW553/V1_MQTT_OK/GD32VW55X_Wifi_BLE_SDK/GD32VW55x_RELEASE_V1.0.2/MSDK/cloud/alicloud/src/services/ota\iotx_ota.c ****                     h_ota->err = IOT_OTAE_INVALID_PARAM;
 955:C:/Users/stapi/OneDrive/Desktop/GD32VW553/V1_MQTT_OK/GD32VW55X_Wifi_BLE_SDK/GD32VW55x_RELEASE_V1.0.2/MSDK/cloud/alicloud/src/services/ota\iotx_ota.c ****                     return -1;
 956:C:/Users/stapi/OneDrive/Desktop/GD32VW553/V1_MQTT_OK/GD32VW55X_Wifi_BLE_SDK/GD32VW55x_RELEASE_V1.0.2/MSDK/cloud/alicloud/src/services/ota\iotx_ota.c ****                 }
 957:C:/Users/stapi/OneDrive/Desktop/GD32VW553/V1_MQTT_OK/GD32VW55X_Wifi_BLE_SDK/GD32VW55x_RELEASE_V1.0.2/MSDK/cloud/alicloud/src/services/ota\iotx_ota.c ****                 memset(*value, 0, strlen(h_ota->cota_url) + 1);
 958:C:/Users/stapi/OneDrive/Desktop/GD32VW553/V1_MQTT_OK/GD32VW55X_Wifi_BLE_SDK/GD32VW55x_RELEASE_V1.0.2/MSDK/cloud/alicloud/src/services/ota\iotx_ota.c ****                 memcpy(*value, h_ota->cota_url, strlen(h_ota->cota_url));
 959:C:/Users/stapi/OneDrive/Desktop/GD32VW553/V1_MQTT_OK/GD32VW55X_Wifi_BLE_SDK/GD32VW55x_RELEASE_V1.0.2/MSDK/cloud/alicloud/src/services/ota\iotx_ota.c ****                 return 0;
 960:C:/Users/stapi/OneDrive/Desktop/GD32VW553/V1_MQTT_OK/GD32VW55X_Wifi_BLE_SDK/GD32VW55x_RELEASE_V1.0.2/MSDK/cloud/alicloud/src/services/ota\iotx_ota.c ****             }
 961:C:/Users/stapi/OneDrive/Desktop/GD32VW553/V1_MQTT_OK/GD32VW55X_Wifi_BLE_SDK/GD32VW55x_RELEASE_V1.0.2/MSDK/cloud/alicloud/src/services/ota\iotx_ota.c ****         }
 962:C:/Users/stapi/OneDrive/Desktop/GD32VW553/V1_MQTT_OK/GD32VW55X_Wifi_BLE_SDK/GD32VW55x_RELEASE_V1.0.2/MSDK/cloud/alicloud/src/services/ota\iotx_ota.c ****         break;
 963:C:/Users/stapi/OneDrive/Desktop/GD32VW553/V1_MQTT_OK/GD32VW55X_Wifi_BLE_SDK/GD32VW55x_RELEASE_V1.0.2/MSDK/cloud/alicloud/src/services/ota\iotx_ota.c ****         case IOT_OTAG_COTA_GETTYPE: {
 964:C:/Users/stapi/OneDrive/Desktop/GD32VW553/V1_MQTT_OK/GD32VW55X_Wifi_BLE_SDK/GD32VW55x_RELEASE_V1.0.2/MSDK/cloud/alicloud/src/services/ota\iotx_ota.c ****             char **value = (char **)buf;
 965:C:/Users/stapi/OneDrive/Desktop/GD32VW553/V1_MQTT_OK/GD32VW55X_Wifi_BLE_SDK/GD32VW55x_RELEASE_V1.0.2/MSDK/cloud/alicloud/src/services/ota\iotx_ota.c ****             if (value == NULL || *value != NULL || h_ota->getType == NULL) {
 966:C:/Users/stapi/OneDrive/Desktop/GD32VW553/V1_MQTT_OK/GD32VW55X_Wifi_BLE_SDK/GD32VW55x_RELEASE_V1.0.2/MSDK/cloud/alicloud/src/services/ota\iotx_ota.c ****                 OTA_LOG_ERROR("Invalid parameter");
 967:C:/Users/stapi/OneDrive/Desktop/GD32VW553/V1_MQTT_OK/GD32VW55X_Wifi_BLE_SDK/GD32VW55x_RELEASE_V1.0.2/MSDK/cloud/alicloud/src/services/ota\iotx_ota.c ****                 h_ota->err = IOT_OTAE_INVALID_PARAM;
 968:C:/Users/stapi/OneDrive/Desktop/GD32VW553/V1_MQTT_OK/GD32VW55X_Wifi_BLE_SDK/GD32VW55x_RELEASE_V1.0.2/MSDK/cloud/alicloud/src/services/ota\iotx_ota.c ****                 return -1;
 969:C:/Users/stapi/OneDrive/Desktop/GD32VW553/V1_MQTT_OK/GD32VW55X_Wifi_BLE_SDK/GD32VW55x_RELEASE_V1.0.2/MSDK/cloud/alicloud/src/services/ota\iotx_ota.c ****             } else {
 970:C:/Users/stapi/OneDrive/Desktop/GD32VW553/V1_MQTT_OK/GD32VW55X_Wifi_BLE_SDK/GD32VW55x_RELEASE_V1.0.2/MSDK/cloud/alicloud/src/services/ota\iotx_ota.c ****                 *value = OTA_API_MALLOC(strlen(h_ota->getType) + 1);
 971:C:/Users/stapi/OneDrive/Desktop/GD32VW553/V1_MQTT_OK/GD32VW55X_Wifi_BLE_SDK/GD32VW55x_RELEASE_V1.0.2/MSDK/cloud/alicloud/src/services/ota\iotx_ota.c ****                 if (*value == NULL) {
 972:C:/Users/stapi/OneDrive/Desktop/GD32VW553/V1_MQTT_OK/GD32VW55X_Wifi_BLE_SDK/GD32VW55x_RELEASE_V1.0.2/MSDK/cloud/alicloud/src/services/ota\iotx_ota.c ****                     h_ota->err = IOT_OTAE_INVALID_PARAM;
 973:C:/Users/stapi/OneDrive/Desktop/GD32VW553/V1_MQTT_OK/GD32VW55X_Wifi_BLE_SDK/GD32VW55x_RELEASE_V1.0.2/MSDK/cloud/alicloud/src/services/ota\iotx_ota.c ****                     return -1;
 974:C:/Users/stapi/OneDrive/Desktop/GD32VW553/V1_MQTT_OK/GD32VW55X_Wifi_BLE_SDK/GD32VW55x_RELEASE_V1.0.2/MSDK/cloud/alicloud/src/services/ota\iotx_ota.c ****                 }
 975:C:/Users/stapi/OneDrive/Desktop/GD32VW553/V1_MQTT_OK/GD32VW55X_Wifi_BLE_SDK/GD32VW55x_RELEASE_V1.0.2/MSDK/cloud/alicloud/src/services/ota\iotx_ota.c ****                 memset(*value, 0, strlen(h_ota->getType) + 1);
 976:C:/Users/stapi/OneDrive/Desktop/GD32VW553/V1_MQTT_OK/GD32VW55X_Wifi_BLE_SDK/GD32VW55x_RELEASE_V1.0.2/MSDK/cloud/alicloud/src/services/ota\iotx_ota.c ****                 memcpy(*value, h_ota->getType, strlen(h_ota->getType));
 977:C:/Users/stapi/OneDrive/Desktop/GD32VW553/V1_MQTT_OK/GD32VW55X_Wifi_BLE_SDK/GD32VW55x_RELEASE_V1.0.2/MSDK/cloud/alicloud/src/services/ota\iotx_ota.c ****                 return 0;
 978:C:/Users/stapi/OneDrive/Desktop/GD32VW553/V1_MQTT_OK/GD32VW55X_Wifi_BLE_SDK/GD32VW55x_RELEASE_V1.0.2/MSDK/cloud/alicloud/src/services/ota\iotx_ota.c ****             }
 979:C:/Users/stapi/OneDrive/Desktop/GD32VW553/V1_MQTT_OK/GD32VW55X_Wifi_BLE_SDK/GD32VW55x_RELEASE_V1.0.2/MSDK/cloud/alicloud/src/services/ota\iotx_ota.c ****         }
 980:C:/Users/stapi/OneDrive/Desktop/GD32VW553/V1_MQTT_OK/GD32VW55X_Wifi_BLE_SDK/GD32VW55x_RELEASE_V1.0.2/MSDK/cloud/alicloud/src/services/ota\iotx_ota.c ****         break;
 981:C:/Users/stapi/OneDrive/Desktop/GD32VW553/V1_MQTT_OK/GD32VW55X_Wifi_BLE_SDK/GD32VW55x_RELEASE_V1.0.2/MSDK/cloud/alicloud/src/services/ota\iotx_ota.c ****         case IOT_OTAG_OTA_TYPE: {
 982:C:/Users/stapi/OneDrive/Desktop/GD32VW553/V1_MQTT_OK/GD32VW55X_Wifi_BLE_SDK/GD32VW55x_RELEASE_V1.0.2/MSDK/cloud/alicloud/src/services/ota\iotx_ota.c ****             if ((4 != buf_len) || (0 != ((unsigned long)buf & 0x3))) {
 983:C:/Users/stapi/OneDrive/Desktop/GD32VW553/V1_MQTT_OK/GD32VW55X_Wifi_BLE_SDK/GD32VW55x_RELEASE_V1.0.2/MSDK/cloud/alicloud/src/services/ota\iotx_ota.c ****                 OTA_LOG_ERROR("Invalid parameter");
 984:C:/Users/stapi/OneDrive/Desktop/GD32VW553/V1_MQTT_OK/GD32VW55X_Wifi_BLE_SDK/GD32VW55x_RELEASE_V1.0.2/MSDK/cloud/alicloud/src/services/ota\iotx_ota.c ****                 h_ota->err = IOT_OTAE_INVALID_PARAM;
 985:C:/Users/stapi/OneDrive/Desktop/GD32VW553/V1_MQTT_OK/GD32VW55X_Wifi_BLE_SDK/GD32VW55x_RELEASE_V1.0.2/MSDK/cloud/alicloud/src/services/ota\iotx_ota.c ****                 return -1;
 986:C:/Users/stapi/OneDrive/Desktop/GD32VW553/V1_MQTT_OK/GD32VW55X_Wifi_BLE_SDK/GD32VW55x_RELEASE_V1.0.2/MSDK/cloud/alicloud/src/services/ota\iotx_ota.c ****             } else {
 987:C:/Users/stapi/OneDrive/Desktop/GD32VW553/V1_MQTT_OK/GD32VW55X_Wifi_BLE_SDK/GD32VW55x_RELEASE_V1.0.2/MSDK/cloud/alicloud/src/services/ota\iotx_ota.c ****                 *((uint32_t *)buf) = h_ota->type;
 988:C:/Users/stapi/OneDrive/Desktop/GD32VW553/V1_MQTT_OK/GD32VW55X_Wifi_BLE_SDK/GD32VW55x_RELEASE_V1.0.2/MSDK/cloud/alicloud/src/services/ota\iotx_ota.c ****                 return 0;
 989:C:/Users/stapi/OneDrive/Desktop/GD32VW553/V1_MQTT_OK/GD32VW55X_Wifi_BLE_SDK/GD32VW55x_RELEASE_V1.0.2/MSDK/cloud/alicloud/src/services/ota\iotx_ota.c ****             }
 990:C:/Users/stapi/OneDrive/Desktop/GD32VW553/V1_MQTT_OK/GD32VW55X_Wifi_BLE_SDK/GD32VW55x_RELEASE_V1.0.2/MSDK/cloud/alicloud/src/services/ota\iotx_ota.c ****         }
 991:C:/Users/stapi/OneDrive/Desktop/GD32VW553/V1_MQTT_OK/GD32VW55X_Wifi_BLE_SDK/GD32VW55x_RELEASE_V1.0.2/MSDK/cloud/alicloud/src/services/ota\iotx_ota.c ****         break;
 992:C:/Users/stapi/OneDrive/Desktop/GD32VW553/V1_MQTT_OK/GD32VW55X_Wifi_BLE_SDK/GD32VW55x_RELEASE_V1.0.2/MSDK/cloud/alicloud/src/services/ota\iotx_ota.c ****         case IOT_OTAG_FETCHED_SIZE:
 993:C:/Users/stapi/OneDrive/Desktop/GD32VW553/V1_MQTT_OK/GD32VW55X_Wifi_BLE_SDK/GD32VW55x_RELEASE_V1.0.2/MSDK/cloud/alicloud/src/services/ota\iotx_ota.c ****             if ((4 != buf_len) || (0 != ((unsigned long)buf & 0x3))) {
 994:C:/Users/stapi/OneDrive/Desktop/GD32VW553/V1_MQTT_OK/GD32VW55X_Wifi_BLE_SDK/GD32VW55x_RELEASE_V1.0.2/MSDK/cloud/alicloud/src/services/ota\iotx_ota.c ****                 OTA_LOG_ERROR("Invalid parameter");
 995:C:/Users/stapi/OneDrive/Desktop/GD32VW553/V1_MQTT_OK/GD32VW55X_Wifi_BLE_SDK/GD32VW55x_RELEASE_V1.0.2/MSDK/cloud/alicloud/src/services/ota\iotx_ota.c ****                 h_ota->err = IOT_OTAE_INVALID_PARAM;
 996:C:/Users/stapi/OneDrive/Desktop/GD32VW553/V1_MQTT_OK/GD32VW55X_Wifi_BLE_SDK/GD32VW55x_RELEASE_V1.0.2/MSDK/cloud/alicloud/src/services/ota\iotx_ota.c ****                 return -1;
 997:C:/Users/stapi/OneDrive/Desktop/GD32VW553/V1_MQTT_OK/GD32VW55X_Wifi_BLE_SDK/GD32VW55x_RELEASE_V1.0.2/MSDK/cloud/alicloud/src/services/ota\iotx_ota.c ****             } else {
 998:C:/Users/stapi/OneDrive/Desktop/GD32VW553/V1_MQTT_OK/GD32VW55X_Wifi_BLE_SDK/GD32VW55x_RELEASE_V1.0.2/MSDK/cloud/alicloud/src/services/ota\iotx_ota.c ****                 *((uint32_t *)buf) = h_ota->size_fetched;
 999:C:/Users/stapi/OneDrive/Desktop/GD32VW553/V1_MQTT_OK/GD32VW55X_Wifi_BLE_SDK/GD32VW55x_RELEASE_V1.0.2/MSDK/cloud/alicloud/src/services/ota\iotx_ota.c ****                 return 0;
1000:C:/Users/stapi/OneDrive/Desktop/GD32VW553/V1_MQTT_OK/GD32VW55X_Wifi_BLE_SDK/GD32VW55x_RELEASE_V1.0.2/MSDK/cloud/alicloud/src/services/ota\iotx_ota.c ****             }
1001:C:/Users/stapi/OneDrive/Desktop/GD32VW553/V1_MQTT_OK/GD32VW55X_Wifi_BLE_SDK/GD32VW55x_RELEASE_V1.0.2/MSDK/cloud/alicloud/src/services/ota\iotx_ota.c **** 
1002:C:/Users/stapi/OneDrive/Desktop/GD32VW553/V1_MQTT_OK/GD32VW55X_Wifi_BLE_SDK/GD32VW55x_RELEASE_V1.0.2/MSDK/cloud/alicloud/src/services/ota\iotx_ota.c ****         case IOT_OTAG_FILE_SIZE:
1003:C:/Users/stapi/OneDrive/Desktop/GD32VW553/V1_MQTT_OK/GD32VW55X_Wifi_BLE_SDK/GD32VW55x_RELEASE_V1.0.2/MSDK/cloud/alicloud/src/services/ota\iotx_ota.c ****             if ((4 != buf_len) || (0 != ((unsigned long)buf & 0x3))) {
1004:C:/Users/stapi/OneDrive/Desktop/GD32VW553/V1_MQTT_OK/GD32VW55X_Wifi_BLE_SDK/GD32VW55x_RELEASE_V1.0.2/MSDK/cloud/alicloud/src/services/ota\iotx_ota.c ****                 OTA_LOG_ERROR("Invalid parameter");
1005:C:/Users/stapi/OneDrive/Desktop/GD32VW553/V1_MQTT_OK/GD32VW55X_Wifi_BLE_SDK/GD32VW55x_RELEASE_V1.0.2/MSDK/cloud/alicloud/src/services/ota\iotx_ota.c ****                 h_ota->err = IOT_OTAE_INVALID_PARAM;
1006:C:/Users/stapi/OneDrive/Desktop/GD32VW553/V1_MQTT_OK/GD32VW55X_Wifi_BLE_SDK/GD32VW55x_RELEASE_V1.0.2/MSDK/cloud/alicloud/src/services/ota\iotx_ota.c ****                 return -1;
1007:C:/Users/stapi/OneDrive/Desktop/GD32VW553/V1_MQTT_OK/GD32VW55X_Wifi_BLE_SDK/GD32VW55x_RELEASE_V1.0.2/MSDK/cloud/alicloud/src/services/ota\iotx_ota.c ****             } else {
1008:C:/Users/stapi/OneDrive/Desktop/GD32VW553/V1_MQTT_OK/GD32VW55X_Wifi_BLE_SDK/GD32VW55x_RELEASE_V1.0.2/MSDK/cloud/alicloud/src/services/ota\iotx_ota.c ****                 *((uint32_t *)buf) = h_ota->size_file;
1009:C:/Users/stapi/OneDrive/Desktop/GD32VW553/V1_MQTT_OK/GD32VW55X_Wifi_BLE_SDK/GD32VW55x_RELEASE_V1.0.2/MSDK/cloud/alicloud/src/services/ota\iotx_ota.c ****                 return 0;
1010:C:/Users/stapi/OneDrive/Desktop/GD32VW553/V1_MQTT_OK/GD32VW55X_Wifi_BLE_SDK/GD32VW55x_RELEASE_V1.0.2/MSDK/cloud/alicloud/src/services/ota\iotx_ota.c ****             };
1011:C:/Users/stapi/OneDrive/Desktop/GD32VW553/V1_MQTT_OK/GD32VW55X_Wifi_BLE_SDK/GD32VW55x_RELEASE_V1.0.2/MSDK/cloud/alicloud/src/services/ota\iotx_ota.c **** 
1012:C:/Users/stapi/OneDrive/Desktop/GD32VW553/V1_MQTT_OK/GD32VW55X_Wifi_BLE_SDK/GD32VW55x_RELEASE_V1.0.2/MSDK/cloud/alicloud/src/services/ota\iotx_ota.c ****         case IOT_OTAG_VERSION: {
1013:C:/Users/stapi/OneDrive/Desktop/GD32VW553/V1_MQTT_OK/GD32VW55X_Wifi_BLE_SDK/GD32VW55x_RELEASE_V1.0.2/MSDK/cloud/alicloud/src/services/ota\iotx_ota.c ****             strncpy(buf, h_ota->version, buf_len);
1014:C:/Users/stapi/OneDrive/Desktop/GD32VW553/V1_MQTT_OK/GD32VW55X_Wifi_BLE_SDK/GD32VW55x_RELEASE_V1.0.2/MSDK/cloud/alicloud/src/services/ota\iotx_ota.c ****             ((char *)buf)[buf_len - 1] = '\0';
1015:C:/Users/stapi/OneDrive/Desktop/GD32VW553/V1_MQTT_OK/GD32VW55X_Wifi_BLE_SDK/GD32VW55x_RELEASE_V1.0.2/MSDK/cloud/alicloud/src/services/ota\iotx_ota.c ****         }
1016:C:/Users/stapi/OneDrive/Desktop/GD32VW553/V1_MQTT_OK/GD32VW55X_Wifi_BLE_SDK/GD32VW55x_RELEASE_V1.0.2/MSDK/cloud/alicloud/src/services/ota\iotx_ota.c ****         break;
1017:C:/Users/stapi/OneDrive/Desktop/GD32VW553/V1_MQTT_OK/GD32VW55X_Wifi_BLE_SDK/GD32VW55x_RELEASE_V1.0.2/MSDK/cloud/alicloud/src/services/ota\iotx_ota.c **** 
1018:C:/Users/stapi/OneDrive/Desktop/GD32VW553/V1_MQTT_OK/GD32VW55X_Wifi_BLE_SDK/GD32VW55x_RELEASE_V1.0.2/MSDK/cloud/alicloud/src/services/ota\iotx_ota.c ****         case IOT_OTAG_MD5SUM:
1019:C:/Users/stapi/OneDrive/Desktop/GD32VW553/V1_MQTT_OK/GD32VW55X_Wifi_BLE_SDK/GD32VW55x_RELEASE_V1.0.2/MSDK/cloud/alicloud/src/services/ota\iotx_ota.c ****             strncpy(buf, h_ota->md5sum, buf_len);
1020:C:/Users/stapi/OneDrive/Desktop/GD32VW553/V1_MQTT_OK/GD32VW55X_Wifi_BLE_SDK/GD32VW55x_RELEASE_V1.0.2/MSDK/cloud/alicloud/src/services/ota\iotx_ota.c ****             ((char *)buf)[buf_len - 1] = '\0';
1021:C:/Users/stapi/OneDrive/Desktop/GD32VW553/V1_MQTT_OK/GD32VW55X_Wifi_BLE_SDK/GD32VW55x_RELEASE_V1.0.2/MSDK/cloud/alicloud/src/services/ota\iotx_ota.c ****             break;
1022:C:/Users/stapi/OneDrive/Desktop/GD32VW553/V1_MQTT_OK/GD32VW55X_Wifi_BLE_SDK/GD32VW55x_RELEASE_V1.0.2/MSDK/cloud/alicloud/src/services/ota\iotx_ota.c **** 
1023:C:/Users/stapi/OneDrive/Desktop/GD32VW553/V1_MQTT_OK/GD32VW55X_Wifi_BLE_SDK/GD32VW55x_RELEASE_V1.0.2/MSDK/cloud/alicloud/src/services/ota\iotx_ota.c ****         case IOT_OTAG_CHECK_FIRMWARE:
1024:C:/Users/stapi/OneDrive/Desktop/GD32VW553/V1_MQTT_OK/GD32VW55X_Wifi_BLE_SDK/GD32VW55x_RELEASE_V1.0.2/MSDK/cloud/alicloud/src/services/ota\iotx_ota.c ****             if ((4 != buf_len) || (0 != ((unsigned long)buf & 0x3))) {
1025:C:/Users/stapi/OneDrive/Desktop/GD32VW553/V1_MQTT_OK/GD32VW55X_Wifi_BLE_SDK/GD32VW55x_RELEASE_V1.0.2/MSDK/cloud/alicloud/src/services/ota\iotx_ota.c ****                 OTA_LOG_ERROR("Invalid parameter");
1026:C:/Users/stapi/OneDrive/Desktop/GD32VW553/V1_MQTT_OK/GD32VW55X_Wifi_BLE_SDK/GD32VW55x_RELEASE_V1.0.2/MSDK/cloud/alicloud/src/services/ota\iotx_ota.c ****                 h_ota->err = IOT_OTAE_INVALID_PARAM;
1027:C:/Users/stapi/OneDrive/Desktop/GD32VW553/V1_MQTT_OK/GD32VW55X_Wifi_BLE_SDK/GD32VW55x_RELEASE_V1.0.2/MSDK/cloud/alicloud/src/services/ota\iotx_ota.c ****                 return -1;
1028:C:/Users/stapi/OneDrive/Desktop/GD32VW553/V1_MQTT_OK/GD32VW55X_Wifi_BLE_SDK/GD32VW55x_RELEASE_V1.0.2/MSDK/cloud/alicloud/src/services/ota\iotx_ota.c ****             } else if (h_ota->state != IOT_OTAS_FETCHED) {
1029:C:/Users/stapi/OneDrive/Desktop/GD32VW553/V1_MQTT_OK/GD32VW55X_Wifi_BLE_SDK/GD32VW55x_RELEASE_V1.0.2/MSDK/cloud/alicloud/src/services/ota\iotx_ota.c ****                 h_ota->err = IOT_OTAE_INVALID_STATE;
1030:C:/Users/stapi/OneDrive/Desktop/GD32VW553/V1_MQTT_OK/GD32VW55X_Wifi_BLE_SDK/GD32VW55x_RELEASE_V1.0.2/MSDK/cloud/alicloud/src/services/ota\iotx_ota.c ****                 OTA_LOG_ERROR("Firmware can be checked in IOT_OTAS_FETCHED state only");
1031:C:/Users/stapi/OneDrive/Desktop/GD32VW553/V1_MQTT_OK/GD32VW55X_Wifi_BLE_SDK/GD32VW55x_RELEASE_V1.0.2/MSDK/cloud/alicloud/src/services/ota\iotx_ota.c ****                 return -1;
1032:C:/Users/stapi/OneDrive/Desktop/GD32VW553/V1_MQTT_OK/GD32VW55X_Wifi_BLE_SDK/GD32VW55x_RELEASE_V1.0.2/MSDK/cloud/alicloud/src/services/ota\iotx_ota.c ****             } else {
1033:C:/Users/stapi/OneDrive/Desktop/GD32VW553/V1_MQTT_OK/GD32VW55X_Wifi_BLE_SDK/GD32VW55x_RELEASE_V1.0.2/MSDK/cloud/alicloud/src/services/ota\iotx_ota.c ****                 int offline_ota_resp_code = DEV_OFFLINE_OTA_RSP_OK;
1034:C:/Users/stapi/OneDrive/Desktop/GD32VW553/V1_MQTT_OK/GD32VW55X_Wifi_BLE_SDK/GD32VW55x_RELEASE_V1.0.2/MSDK/cloud/alicloud/src/services/ota\iotx_ota.c ****                 char md5_str[33];
1035:C:/Users/stapi/OneDrive/Desktop/GD32VW553/V1_MQTT_OK/GD32VW55X_Wifi_BLE_SDK/GD32VW55x_RELEASE_V1.0.2/MSDK/cloud/alicloud/src/services/ota\iotx_ota.c ****                 otalib_MD5Finalize(h_ota->md5, md5_str);
1036:C:/Users/stapi/OneDrive/Desktop/GD32VW553/V1_MQTT_OK/GD32VW55X_Wifi_BLE_SDK/GD32VW55x_RELEASE_V1.0.2/MSDK/cloud/alicloud/src/services/ota\iotx_ota.c ****                 OTA_LOG_DEBUG("origin=%s, now=%s", h_ota->md5sum, md5_str);
1037:C:/Users/stapi/OneDrive/Desktop/GD32VW553/V1_MQTT_OK/GD32VW55X_Wifi_BLE_SDK/GD32VW55x_RELEASE_V1.0.2/MSDK/cloud/alicloud/src/services/ota\iotx_ota.c ****                 if (0 == strcmp(h_ota->md5sum, md5_str)) {
1038:C:/Users/stapi/OneDrive/Desktop/GD32VW553/V1_MQTT_OK/GD32VW55X_Wifi_BLE_SDK/GD32VW55x_RELEASE_V1.0.2/MSDK/cloud/alicloud/src/services/ota\iotx_ota.c ****                     *((uint32_t *)buf) = 1;
1039:C:/Users/stapi/OneDrive/Desktop/GD32VW553/V1_MQTT_OK/GD32VW55X_Wifi_BLE_SDK/GD32VW55x_RELEASE_V1.0.2/MSDK/cloud/alicloud/src/services/ota\iotx_ota.c ****                     offline_ota_resp_code = DEV_OFFLINE_OTA_RSP_OK;
1040:C:/Users/stapi/OneDrive/Desktop/GD32VW553/V1_MQTT_OK/GD32VW55X_Wifi_BLE_SDK/GD32VW55x_RELEASE_V1.0.2/MSDK/cloud/alicloud/src/services/ota\iotx_ota.c ****                 } else {
1041:C:/Users/stapi/OneDrive/Desktop/GD32VW553/V1_MQTT_OK/GD32VW55X_Wifi_BLE_SDK/GD32VW55x_RELEASE_V1.0.2/MSDK/cloud/alicloud/src/services/ota\iotx_ota.c ****                     *((uint32_t *)buf) = 0;
1042:C:/Users/stapi/OneDrive/Desktop/GD32VW553/V1_MQTT_OK/GD32VW55X_Wifi_BLE_SDK/GD32VW55x_RELEASE_V1.0.2/MSDK/cloud/alicloud/src/services/ota\iotx_ota.c ****                     offline_ota_resp_code = DEV_OFFLINE_OTA_RSP_VERIFY_FAILED;
1043:C:/Users/stapi/OneDrive/Desktop/GD32VW553/V1_MQTT_OK/GD32VW55X_Wifi_BLE_SDK/GD32VW55x_RELEASE_V1.0.2/MSDK/cloud/alicloud/src/services/ota\iotx_ota.c ****                 }
1044:C:/Users/stapi/OneDrive/Desktop/GD32VW553/V1_MQTT_OK/GD32VW55X_Wifi_BLE_SDK/GD32VW55x_RELEASE_V1.0.2/MSDK/cloud/alicloud/src/services/ota\iotx_ota.c **** #ifdef DEV_OFFLINE_OTA_ENABLE
1045:C:/Users/stapi/OneDrive/Desktop/GD32VW553/V1_MQTT_OK/GD32VW55X_Wifi_BLE_SDK/GD32VW55x_RELEASE_V1.0.2/MSDK/cloud/alicloud/src/services/ota\iotx_ota.c ****                 if(h_ota->type == IOT_OTAT_FOTA_OFFLINE) {
1046:C:/Users/stapi/OneDrive/Desktop/GD32VW553/V1_MQTT_OK/GD32VW55X_Wifi_BLE_SDK/GD32VW55x_RELEASE_V1.0.2/MSDK/cloud/alicloud/src/services/ota\iotx_ota.c ****                     /*notify 10 times to assure APP to receive successfully */
1047:C:/Users/stapi/OneDrive/Desktop/GD32VW553/V1_MQTT_OK/GD32VW55X_Wifi_BLE_SDK/GD32VW55x_RELEASE_V1.0.2/MSDK/cloud/alicloud/src/services/ota\iotx_ota.c ****                     uint8_t i = 0;
1048:C:/Users/stapi/OneDrive/Desktop/GD32VW553/V1_MQTT_OK/GD32VW55X_Wifi_BLE_SDK/GD32VW55x_RELEASE_V1.0.2/MSDK/cloud/alicloud/src/services/ota\iotx_ota.c ****                     for(; i < 10; i++) {
1049:C:/Users/stapi/OneDrive/Desktop/GD32VW553/V1_MQTT_OK/GD32VW55X_Wifi_BLE_SDK/GD32VW55x_RELEASE_V1.0.2/MSDK/cloud/alicloud/src/services/ota\iotx_ota.c ****                         dev_notify_offline_ota_result(offline_ota_resp_code);
1050:C:/Users/stapi/OneDrive/Desktop/GD32VW553/V1_MQTT_OK/GD32VW55X_Wifi_BLE_SDK/GD32VW55x_RELEASE_V1.0.2/MSDK/cloud/alicloud/src/services/ota\iotx_ota.c ****                         HAL_SleepMs(300);
1051:C:/Users/stapi/OneDrive/Desktop/GD32VW553/V1_MQTT_OK/GD32VW55X_Wifi_BLE_SDK/GD32VW55x_RELEASE_V1.0.2/MSDK/cloud/alicloud/src/services/ota\iotx_ota.c ****                     }
1052:C:/Users/stapi/OneDrive/Desktop/GD32VW553/V1_MQTT_OK/GD32VW55X_Wifi_BLE_SDK/GD32VW55x_RELEASE_V1.0.2/MSDK/cloud/alicloud/src/services/ota\iotx_ota.c ****                 }
1053:C:/Users/stapi/OneDrive/Desktop/GD32VW553/V1_MQTT_OK/GD32VW55X_Wifi_BLE_SDK/GD32VW55x_RELEASE_V1.0.2/MSDK/cloud/alicloud/src/services/ota\iotx_ota.c **** #endif
1054:C:/Users/stapi/OneDrive/Desktop/GD32VW553/V1_MQTT_OK/GD32VW55X_Wifi_BLE_SDK/GD32VW55x_RELEASE_V1.0.2/MSDK/cloud/alicloud/src/services/ota\iotx_ota.c ****                 return 0;
1055:C:/Users/stapi/OneDrive/Desktop/GD32VW553/V1_MQTT_OK/GD32VW55X_Wifi_BLE_SDK/GD32VW55x_RELEASE_V1.0.2/MSDK/cloud/alicloud/src/services/ota\iotx_ota.c ****             }
1056:C:/Users/stapi/OneDrive/Desktop/GD32VW553/V1_MQTT_OK/GD32VW55X_Wifi_BLE_SDK/GD32VW55x_RELEASE_V1.0.2/MSDK/cloud/alicloud/src/services/ota\iotx_ota.c ****         case IOT_OTAG_CHECK_CONFIG:
1057:C:/Users/stapi/OneDrive/Desktop/GD32VW553/V1_MQTT_OK/GD32VW55X_Wifi_BLE_SDK/GD32VW55x_RELEASE_V1.0.2/MSDK/cloud/alicloud/src/services/ota\iotx_ota.c ****             if ((4 != buf_len) || (0 != ((unsigned long)buf & 0x3))) {
1058:C:/Users/stapi/OneDrive/Desktop/GD32VW553/V1_MQTT_OK/GD32VW55X_Wifi_BLE_SDK/GD32VW55x_RELEASE_V1.0.2/MSDK/cloud/alicloud/src/services/ota\iotx_ota.c ****                 OTA_LOG_ERROR("Invalid parameter");
1059:C:/Users/stapi/OneDrive/Desktop/GD32VW553/V1_MQTT_OK/GD32VW55X_Wifi_BLE_SDK/GD32VW55x_RELEASE_V1.0.2/MSDK/cloud/alicloud/src/services/ota\iotx_ota.c ****                 h_ota->err = IOT_OTAE_INVALID_PARAM;
1060:C:/Users/stapi/OneDrive/Desktop/GD32VW553/V1_MQTT_OK/GD32VW55X_Wifi_BLE_SDK/GD32VW55x_RELEASE_V1.0.2/MSDK/cloud/alicloud/src/services/ota\iotx_ota.c ****                 return -1;
1061:C:/Users/stapi/OneDrive/Desktop/GD32VW553/V1_MQTT_OK/GD32VW55X_Wifi_BLE_SDK/GD32VW55x_RELEASE_V1.0.2/MSDK/cloud/alicloud/src/services/ota\iotx_ota.c ****             } else if (h_ota->state != IOT_OTAS_FETCHED) {
1062:C:/Users/stapi/OneDrive/Desktop/GD32VW553/V1_MQTT_OK/GD32VW55X_Wifi_BLE_SDK/GD32VW55x_RELEASE_V1.0.2/MSDK/cloud/alicloud/src/services/ota\iotx_ota.c ****                 h_ota->err = IOT_OTAE_INVALID_STATE;
1063:C:/Users/stapi/OneDrive/Desktop/GD32VW553/V1_MQTT_OK/GD32VW55X_Wifi_BLE_SDK/GD32VW55x_RELEASE_V1.0.2/MSDK/cloud/alicloud/src/services/ota\iotx_ota.c ****                 OTA_LOG_ERROR("Config can be checked in IOT_OTAS_FETCHED state only");
1064:C:/Users/stapi/OneDrive/Desktop/GD32VW553/V1_MQTT_OK/GD32VW55X_Wifi_BLE_SDK/GD32VW55x_RELEASE_V1.0.2/MSDK/cloud/alicloud/src/services/ota\iotx_ota.c ****                 return -1;
1065:C:/Users/stapi/OneDrive/Desktop/GD32VW553/V1_MQTT_OK/GD32VW55X_Wifi_BLE_SDK/GD32VW55x_RELEASE_V1.0.2/MSDK/cloud/alicloud/src/services/ota\iotx_ota.c ****             } else {
1066:C:/Users/stapi/OneDrive/Desktop/GD32VW553/V1_MQTT_OK/GD32VW55X_Wifi_BLE_SDK/GD32VW55x_RELEASE_V1.0.2/MSDK/cloud/alicloud/src/services/ota\iotx_ota.c ****                 if (0 == strncmp(h_ota->signMethod, "Md5", strlen(h_ota->signMethod))) {
1067:C:/Users/stapi/OneDrive/Desktop/GD32VW553/V1_MQTT_OK/GD32VW55X_Wifi_BLE_SDK/GD32VW55x_RELEASE_V1.0.2/MSDK/cloud/alicloud/src/services/ota\iotx_ota.c ****                     char md5_str[33];
1068:C:/Users/stapi/OneDrive/Desktop/GD32VW553/V1_MQTT_OK/GD32VW55X_Wifi_BLE_SDK/GD32VW55x_RELEASE_V1.0.2/MSDK/cloud/alicloud/src/services/ota\iotx_ota.c ****                     otalib_MD5Finalize(h_ota->md5, md5_str);
1069:C:/Users/stapi/OneDrive/Desktop/GD32VW553/V1_MQTT_OK/GD32VW55X_Wifi_BLE_SDK/GD32VW55x_RELEASE_V1.0.2/MSDK/cloud/alicloud/src/services/ota\iotx_ota.c ****                     OTA_LOG_DEBUG("origin=%s, now=%s", h_ota->sign, md5_str);
1070:C:/Users/stapi/OneDrive/Desktop/GD32VW553/V1_MQTT_OK/GD32VW55X_Wifi_BLE_SDK/GD32VW55x_RELEASE_V1.0.2/MSDK/cloud/alicloud/src/services/ota\iotx_ota.c ****                     if (0 == strcmp(h_ota->sign, md5_str)) {
1071:C:/Users/stapi/OneDrive/Desktop/GD32VW553/V1_MQTT_OK/GD32VW55X_Wifi_BLE_SDK/GD32VW55x_RELEASE_V1.0.2/MSDK/cloud/alicloud/src/services/ota\iotx_ota.c ****                         *((uint32_t *)buf) = 1;
1072:C:/Users/stapi/OneDrive/Desktop/GD32VW553/V1_MQTT_OK/GD32VW55X_Wifi_BLE_SDK/GD32VW55x_RELEASE_V1.0.2/MSDK/cloud/alicloud/src/services/ota\iotx_ota.c ****                     } else {
1073:C:/Users/stapi/OneDrive/Desktop/GD32VW553/V1_MQTT_OK/GD32VW55X_Wifi_BLE_SDK/GD32VW55x_RELEASE_V1.0.2/MSDK/cloud/alicloud/src/services/ota\iotx_ota.c ****                         *((uint32_t *)buf) = 0;
1074:C:/Users/stapi/OneDrive/Desktop/GD32VW553/V1_MQTT_OK/GD32VW55X_Wifi_BLE_SDK/GD32VW55x_RELEASE_V1.0.2/MSDK/cloud/alicloud/src/services/ota\iotx_ota.c ****                     }
1075:C:/Users/stapi/OneDrive/Desktop/GD32VW553/V1_MQTT_OK/GD32VW55X_Wifi_BLE_SDK/GD32VW55x_RELEASE_V1.0.2/MSDK/cloud/alicloud/src/services/ota\iotx_ota.c ****                 }
1076:C:/Users/stapi/OneDrive/Desktop/GD32VW553/V1_MQTT_OK/GD32VW55X_Wifi_BLE_SDK/GD32VW55x_RELEASE_V1.0.2/MSDK/cloud/alicloud/src/services/ota\iotx_ota.c ****                 if (0 == strncmp(h_ota->signMethod, "Sha256", strlen(h_ota->signMethod))) {
1077:C:/Users/stapi/OneDrive/Desktop/GD32VW553/V1_MQTT_OK/GD32VW55X_Wifi_BLE_SDK/GD32VW55x_RELEASE_V1.0.2/MSDK/cloud/alicloud/src/services/ota\iotx_ota.c ****                     char sha256_str[65];
1078:C:/Users/stapi/OneDrive/Desktop/GD32VW553/V1_MQTT_OK/GD32VW55X_Wifi_BLE_SDK/GD32VW55x_RELEASE_V1.0.2/MSDK/cloud/alicloud/src/services/ota\iotx_ota.c ****                     otalib_Sha256Finalize(h_ota->sha256, sha256_str);
1079:C:/Users/stapi/OneDrive/Desktop/GD32VW553/V1_MQTT_OK/GD32VW55X_Wifi_BLE_SDK/GD32VW55x_RELEASE_V1.0.2/MSDK/cloud/alicloud/src/services/ota\iotx_ota.c ****                     OTA_LOG_DEBUG("origin=%s, now=%s", h_ota->sign, sha256_str);
1080:C:/Users/stapi/OneDrive/Desktop/GD32VW553/V1_MQTT_OK/GD32VW55X_Wifi_BLE_SDK/GD32VW55x_RELEASE_V1.0.2/MSDK/cloud/alicloud/src/services/ota\iotx_ota.c ****                     if (0 == strcmp(h_ota->sign, sha256_str)) {
1081:C:/Users/stapi/OneDrive/Desktop/GD32VW553/V1_MQTT_OK/GD32VW55X_Wifi_BLE_SDK/GD32VW55x_RELEASE_V1.0.2/MSDK/cloud/alicloud/src/services/ota\iotx_ota.c ****                         *((uint32_t *)buf) = 1;
1082:C:/Users/stapi/OneDrive/Desktop/GD32VW553/V1_MQTT_OK/GD32VW55X_Wifi_BLE_SDK/GD32VW55x_RELEASE_V1.0.2/MSDK/cloud/alicloud/src/services/ota\iotx_ota.c ****                     } else {
1083:C:/Users/stapi/OneDrive/Desktop/GD32VW553/V1_MQTT_OK/GD32VW55X_Wifi_BLE_SDK/GD32VW55x_RELEASE_V1.0.2/MSDK/cloud/alicloud/src/services/ota\iotx_ota.c ****                         *((uint32_t *)buf) = 0;
1084:C:/Users/stapi/OneDrive/Desktop/GD32VW553/V1_MQTT_OK/GD32VW55X_Wifi_BLE_SDK/GD32VW55x_RELEASE_V1.0.2/MSDK/cloud/alicloud/src/services/ota\iotx_ota.c ****                     }
1085:C:/Users/stapi/OneDrive/Desktop/GD32VW553/V1_MQTT_OK/GD32VW55X_Wifi_BLE_SDK/GD32VW55x_RELEASE_V1.0.2/MSDK/cloud/alicloud/src/services/ota\iotx_ota.c ****                 }
1086:C:/Users/stapi/OneDrive/Desktop/GD32VW553/V1_MQTT_OK/GD32VW55X_Wifi_BLE_SDK/GD32VW55x_RELEASE_V1.0.2/MSDK/cloud/alicloud/src/services/ota\iotx_ota.c ****                 return 0;
1087:C:/Users/stapi/OneDrive/Desktop/GD32VW553/V1_MQTT_OK/GD32VW55X_Wifi_BLE_SDK/GD32VW55x_RELEASE_V1.0.2/MSDK/cloud/alicloud/src/services/ota\iotx_ota.c ****             }
1088:C:/Users/stapi/OneDrive/Desktop/GD32VW553/V1_MQTT_OK/GD32VW55X_Wifi_BLE_SDK/GD32VW55x_RELEASE_V1.0.2/MSDK/cloud/alicloud/src/services/ota\iotx_ota.c ****         case IOT_OTAG_RESET_FETCHED_SIZE: {
1089:C:/Users/stapi/OneDrive/Desktop/GD32VW553/V1_MQTT_OK/GD32VW55X_Wifi_BLE_SDK/GD32VW55x_RELEASE_V1.0.2/MSDK/cloud/alicloud/src/services/ota\iotx_ota.c ****             h_ota->size_fetched = 0;
1090:C:/Users/stapi/OneDrive/Desktop/GD32VW553/V1_MQTT_OK/GD32VW55X_Wifi_BLE_SDK/GD32VW55x_RELEASE_V1.0.2/MSDK/cloud/alicloud/src/services/ota\iotx_ota.c ****             return 0;
1091:C:/Users/stapi/OneDrive/Desktop/GD32VW553/V1_MQTT_OK/GD32VW55X_Wifi_BLE_SDK/GD32VW55x_RELEASE_V1.0.2/MSDK/cloud/alicloud/src/services/ota\iotx_ota.c ****         }
1092:C:/Users/stapi/OneDrive/Desktop/GD32VW553/V1_MQTT_OK/GD32VW55X_Wifi_BLE_SDK/GD32VW55x_RELEASE_V1.0.2/MSDK/cloud/alicloud/src/services/ota\iotx_ota.c ****         default:
1093:C:/Users/stapi/OneDrive/Desktop/GD32VW553/V1_MQTT_OK/GD32VW55X_Wifi_BLE_SDK/GD32VW55x_RELEASE_V1.0.2/MSDK/cloud/alicloud/src/services/ota\iotx_ota.c ****             OTA_LOG_ERROR("invalid cmd type");
1094:C:/Users/stapi/OneDrive/Desktop/GD32VW553/V1_MQTT_OK/GD32VW55X_Wifi_BLE_SDK/GD32VW55x_RELEASE_V1.0.2/MSDK/cloud/alicloud/src/services/ota\iotx_ota.c ****             h_ota->err = IOT_OTAE_INVALID_PARAM;
1095:C:/Users/stapi/OneDrive/Desktop/GD32VW553/V1_MQTT_OK/GD32VW55X_Wifi_BLE_SDK/GD32VW55x_RELEASE_V1.0.2/MSDK/cloud/alicloud/src/services/ota\iotx_ota.c ****             return -1;
1096:C:/Users/stapi/OneDrive/Desktop/GD32VW553/V1_MQTT_OK/GD32VW55X_Wifi_BLE_SDK/GD32VW55x_RELEASE_V1.0.2/MSDK/cloud/alicloud/src/services/ota\iotx_ota.c ****     }
1097:C:/Users/stapi/OneDrive/Desktop/GD32VW553/V1_MQTT_OK/GD32VW55X_Wifi_BLE_SDK/GD32VW55x_RELEASE_V1.0.2/MSDK/cloud/alicloud/src/services/ota\iotx_ota.c **** 
1098:C:/Users/stapi/OneDrive/Desktop/GD32VW553/V1_MQTT_OK/GD32VW55X_Wifi_BLE_SDK/GD32VW55x_RELEASE_V1.0.2/MSDK/cloud/alicloud/src/services/ota\iotx_ota.c ****     return 0;
1099:C:/Users/stapi/OneDrive/Desktop/GD32VW553/V1_MQTT_OK/GD32VW55X_Wifi_BLE_SDK/GD32VW55x_RELEASE_V1.0.2/MSDK/cloud/alicloud/src/services/ota\iotx_ota.c **** }
 3872              		.loc 2 1099 1
 3873 0046 4A85     		mv	a0,s2
 3874 0048 2561     		addi	sp,sp,96
 3875              		.cfi_remember_state
 3876              		.cfi_def_cfa_offset 0
 3877 004a 17030000 		tail	__riscv_restore_3
 3877      67000300 
 3878              		.cfi_restore 18
 3879              		.cfi_restore 9
 3880              		.cfi_restore 8
 3881              		.cfi_restore 1
 3882              		.cfi_def_cfa_offset -16
 3883              	.LVL464:
 3884              	.L363:
 3885              		.cfi_restore_state
 874:C:/Users/stapi/OneDrive/Desktop/GD32VW553/V1_MQTT_OK/GD32VW55X_Wifi_BLE_SDK/GD32VW55x_RELEASE_V1.0.2/MSDK/cloud/alicloud/src/services/ota\iotx_ota.c ****         h_ota->err = IOT_OTAE_INVALID_STATE;
 3886              		.loc 2 874 14
 3887 0052 5C45     		lw	a5,12(a0)
 874:C:/Users/stapi/OneDrive/Desktop/GD32VW553/V1_MQTT_OK/GD32VW55X_Wifi_BLE_SDK/GD32VW55x_RELEASE_V1.0.2/MSDK/cloud/alicloud/src/services/ota\iotx_ota.c ****         h_ota->err = IOT_OTAE_INVALID_STATE;
 3888              		.loc 2 874 8
 3889 0054 0547     		li	a4,1
 3890 0056 2A84     		mv	s0,a0
 874:C:/Users/stapi/OneDrive/Desktop/GD32VW553/V1_MQTT_OK/GD32VW55X_Wifi_BLE_SDK/GD32VW55x_RELEASE_V1.0.2/MSDK/cloud/alicloud/src/services/ota\iotx_ota.c ****         h_ota->err = IOT_OTAE_INVALID_STATE;
 3891              		.loc 2 874 5 is_stmt 1
 874:C:/Users/stapi/OneDrive/Desktop/GD32VW553/V1_MQTT_OK/GD32VW55X_Wifi_BLE_SDK/GD32VW55x_RELEASE_V1.0.2/MSDK/cloud/alicloud/src/services/ota\iotx_ota.c ****         h_ota->err = IOT_OTAE_INVALID_STATE;
 3892              		.loc 2 874 8 is_stmt 0
 3893 0058 6366F700 		bgtu	a5,a4,.L365
 3894              	.LVL465:
 875:C:/Users/stapi/OneDrive/Desktop/GD32VW553/V1_MQTT_OK/GD32VW55X_Wifi_BLE_SDK/GD32VW55x_RELEASE_V1.0.2/MSDK/cloud/alicloud/src/services/ota\iotx_ota.c ****         return IOT_OTAE_INVALID_STATE;
 3895              		.loc 2 875 9 is_stmt 1
 875:C:/Users/stapi/OneDrive/Desktop/GD32VW553/V1_MQTT_OK/GD32VW55X_Wifi_BLE_SDK/GD32VW55x_RELEASE_V1.0.2/MSDK/cloud/alicloud/src/services/ota\iotx_ota.c ****         return IOT_OTAE_INVALID_STATE;
 3896              		.loc 2 875 20 is_stmt 0
 3897 005c F557     		li	a5,-3
 3898 005e 7CD9     		sw	a5,116(a0)
 876:C:/Users/stapi/OneDrive/Desktop/GD32VW553/V1_MQTT_OK/GD32VW55X_Wifi_BLE_SDK/GD32VW55x_RELEASE_V1.0.2/MSDK/cloud/alicloud/src/services/ota\iotx_ota.c ****     }
 3899              		.loc 2 876 9 is_stmt 1
 876:C:/Users/stapi/OneDrive/Desktop/GD32VW553/V1_MQTT_OK/GD32VW55X_Wifi_BLE_SDK/GD32VW55x_RELEASE_V1.0.2/MSDK/cloud/alicloud/src/services/ota\iotx_ota.c ****     }
 3900              		.loc 2 876 16 is_stmt 0
 3901 0060 7559     		li	s2,-3
 3902 0062 D5B7     		j	.L361
 3903              	.L365:
 879:C:/Users/stapi/OneDrive/Desktop/GD32VW553/V1_MQTT_OK/GD32VW55X_Wifi_BLE_SDK/GD32VW55x_RELEASE_V1.0.2/MSDK/cloud/alicloud/src/services/ota\iotx_ota.c ****         case IOT_OTAG_COTA_CONFIG_ID: {
 3904              		.loc 2 879 5 is_stmt 1
 3905 0064 3547     		li	a4,13
 3906 0066 6362B73E 		bgtu	a1,a4,.L366
 3907 006a 37070000 		lui	a4,%hi(.L368)
 3908 006e 13070700 		addi	a4,a4,%lo(.L368)
 3909 0072 B3C5E520 		sh2add	a1,a1,a4
 3910              	.LVL466:
 3911 0076 9841     		lw	a4,0(a1)
 3912 0078 0287     		jr	a4
 3913              		.section	.rodata.IOT_OTA_Ioctl,"a",@progbits
 3914              		.align	2
 3915              		.align	2
 3916              	.L368:
 3917 0000 00000000 		.word	.L381
 3918 0004 00000000 		.word	.L380
 3919 0008 00000000 		.word	.L379
 3920 000c 00000000 		.word	.L378
 3921 0010 00000000 		.word	.L377
 3922 0014 00000000 		.word	.L376
 3923 0018 00000000 		.word	.L375
 3924 001c 00000000 		.word	.L374
 3925 0020 00000000 		.word	.L373
 3926 0024 00000000 		.word	.L372
 3927 0028 00000000 		.word	.L371
 3928 002c 00000000 		.word	.L370
 3929 0030 00000000 		.word	.L369
 3930 0034 00000000 		.word	.L367
 3931              		.section	.text.IOT_OTA_Ioctl
 3932              	.L381:
 3933              	.LBB19:
 881:C:/Users/stapi/OneDrive/Desktop/GD32VW553/V1_MQTT_OK/GD32VW55X_Wifi_BLE_SDK/GD32VW55x_RELEASE_V1.0.2/MSDK/cloud/alicloud/src/services/ota\iotx_ota.c ****             if (value == NULL || *value != NULL || h_ota->configId == NULL) {
 3934              		.loc 2 881 13 discriminator 1
 3935              	.LVL467:
 882:C:/Users/stapi/OneDrive/Desktop/GD32VW553/V1_MQTT_OK/GD32VW55X_Wifi_BLE_SDK/GD32VW55x_RELEASE_V1.0.2/MSDK/cloud/alicloud/src/services/ota\iotx_ota.c ****                 OTA_LOG_ERROR("Invalid parameter");
 3936              		.loc 2 882 13 discriminator 1
 882:C:/Users/stapi/OneDrive/Desktop/GD32VW553/V1_MQTT_OK/GD32VW55X_Wifi_BLE_SDK/GD32VW55x_RELEASE_V1.0.2/MSDK/cloud/alicloud/src/services/ota\iotx_ota.c ****                 OTA_LOG_ERROR("Invalid parameter");
 3937              		.loc 2 882 31 is_stmt 0 discriminator 1
 3938 007a 1C42     		lw	a5,0(a2)
 3939 007c 99E3     		bne	a5,zero,.L382
 882:C:/Users/stapi/OneDrive/Desktop/GD32VW553/V1_MQTT_OK/GD32VW55X_Wifi_BLE_SDK/GD32VW55x_RELEASE_V1.0.2/MSDK/cloud/alicloud/src/services/ota\iotx_ota.c ****                 OTA_LOG_ERROR("Invalid parameter");
 3940              		.loc 2 882 57 discriminator 2
 3941 007e 684D     		lw	a0,92(a0)
 882:C:/Users/stapi/OneDrive/Desktop/GD32VW553/V1_MQTT_OK/GD32VW55X_Wifi_BLE_SDK/GD32VW55x_RELEASE_V1.0.2/MSDK/cloud/alicloud/src/services/ota\iotx_ota.c ****                 OTA_LOG_ERROR("Invalid parameter");
 3942              		.loc 2 882 49 discriminator 2
 3943 0080 15E9     		bne	a0,zero,.L383
 3944              	.LVL468:
 3945              	.L382:
 883:C:/Users/stapi/OneDrive/Desktop/GD32VW553/V1_MQTT_OK/GD32VW55X_Wifi_BLE_SDK/GD32VW55x_RELEASE_V1.0.2/MSDK/cloud/alicloud/src/services/ota\iotx_ota.c ****                 h_ota->err = IOT_OTAE_INVALID_PARAM;
 3946              		.loc 2 883 17 is_stmt 1
 883:C:/Users/stapi/OneDrive/Desktop/GD32VW553/V1_MQTT_OK/GD32VW55X_Wifi_BLE_SDK/GD32VW55x_RELEASE_V1.0.2/MSDK/cloud/alicloud/src/services/ota\iotx_ota.c ****                 h_ota->err = IOT_OTAE_INVALID_PARAM;
 3947              		.loc 2 883 17
 3948 0082 37050000 		lui	a0,%hi(.LC21)
 3949 0086 13050500 		addi	a0,a0,%lo(.LC21)
 3950 008a 97000000 		call	HAL_Printf
 3950      E7800000 
 3951              	.LVL469:
 883:C:/Users/stapi/OneDrive/Desktop/GD32VW553/V1_MQTT_OK/GD32VW55X_Wifi_BLE_SDK/GD32VW55x_RELEASE_V1.0.2/MSDK/cloud/alicloud/src/services/ota\iotx_ota.c ****                 h_ota->err = IOT_OTAE_INVALID_PARAM;
 3952              		.loc 2 883 17
 3953 0092 37050000 		lui	a0,%hi(.LC78)
 3954 0096 13050500 		addi	a0,a0,%lo(.LC78)
 3955              	.L421:
 3956              	.LBE19:
1093:C:/Users/stapi/OneDrive/Desktop/GD32VW553/V1_MQTT_OK/GD32VW55X_Wifi_BLE_SDK/GD32VW55x_RELEASE_V1.0.2/MSDK/cloud/alicloud/src/services/ota\iotx_ota.c ****             h_ota->err = IOT_OTAE_INVALID_PARAM;
 3957              		.loc 2 1093 13 is_stmt 0
 3958 009a 97000000 		call	HAL_Printf
 3958      E7800000 
 3959              	.LVL470:
1093:C:/Users/stapi/OneDrive/Desktop/GD32VW553/V1_MQTT_OK/GD32VW55X_Wifi_BLE_SDK/GD32VW55x_RELEASE_V1.0.2/MSDK/cloud/alicloud/src/services/ota\iotx_ota.c ****             h_ota->err = IOT_OTAE_INVALID_PARAM;
 3960              		.loc 2 1093 13 is_stmt 1
 3961 00a2 37050000 		lui	a0,%hi(.LC11)
 3962 00a6 13050500 		addi	a0,a0,%lo(.LC11)
 3963 00aa 97000000 		call	HAL_Printf
 3963      E7800000 
 3964              	.LVL471:
 3965 00b2 05A0     		j	.L422
 3966              	.LVL472:
 3967              	.L383:
 3968              	.LBB20:
 887:C:/Users/stapi/OneDrive/Desktop/GD32VW553/V1_MQTT_OK/GD32VW55X_Wifi_BLE_SDK/GD32VW55x_RELEASE_V1.0.2/MSDK/cloud/alicloud/src/services/ota\iotx_ota.c ****                 if (*value == NULL) {
 3969              		.loc 2 887 17
 887:C:/Users/stapi/OneDrive/Desktop/GD32VW553/V1_MQTT_OK/GD32VW55X_Wifi_BLE_SDK/GD32VW55x_RELEASE_V1.0.2/MSDK/cloud/alicloud/src/services/ota\iotx_ota.c ****                 if (*value == NULL) {
 3970              		.loc 2 887 26 is_stmt 0
 3971 00b4 97000000 		call	strlen
 3971      E7800000 
 3972              	.LVL473:
 3973 00bc 13061500 		addi	a2,a0,1
 3974 00c0 8145     		li	a1,0
 3975 00c2 0145     		li	a0,0
 3976 00c4 97000000 		call	LITE_malloc_internal
 3976      E7800000 
 3977              	.LVL474:
 887:C:/Users/stapi/OneDrive/Desktop/GD32VW553/V1_MQTT_OK/GD32VW55X_Wifi_BLE_SDK/GD32VW55x_RELEASE_V1.0.2/MSDK/cloud/alicloud/src/services/ota\iotx_ota.c ****                 if (*value == NULL) {
 3978              		.loc 2 887 24
 3979 00cc 88C0     		sw	a0,0(s1)
 888:C:/Users/stapi/OneDrive/Desktop/GD32VW553/V1_MQTT_OK/GD32VW55X_Wifi_BLE_SDK/GD32VW55x_RELEASE_V1.0.2/MSDK/cloud/alicloud/src/services/ota\iotx_ota.c ****                     h_ota->err = IOT_OTAE_INVALID_PARAM;
 3980              		.loc 2 888 17 is_stmt 1
 887:C:/Users/stapi/OneDrive/Desktop/GD32VW553/V1_MQTT_OK/GD32VW55X_Wifi_BLE_SDK/GD32VW55x_RELEASE_V1.0.2/MSDK/cloud/alicloud/src/services/ota\iotx_ota.c ****                 if (*value == NULL) {
 3981              		.loc 2 887 26 is_stmt 0
 3982 00ce 2A89     		mv	s2,a0
 3983              	.LVL475:
 888:C:/Users/stapi/OneDrive/Desktop/GD32VW553/V1_MQTT_OK/GD32VW55X_Wifi_BLE_SDK/GD32VW55x_RELEASE_V1.0.2/MSDK/cloud/alicloud/src/services/ota\iotx_ota.c ****                     h_ota->err = IOT_OTAE_INVALID_PARAM;
 3984              		.loc 2 888 20
 3985 00d0 01E5     		bne	a0,zero,.L384
 3986              	.LVL476:
 3987              	.L422:
 3988              	.LBE20:
1093:C:/Users/stapi/OneDrive/Desktop/GD32VW553/V1_MQTT_OK/GD32VW55X_Wifi_BLE_SDK/GD32VW55x_RELEASE_V1.0.2/MSDK/cloud/alicloud/src/services/ota\iotx_ota.c ****             h_ota->err = IOT_OTAE_INVALID_PARAM;
 3989              		.loc 2 1093 13 is_stmt 1
1094:C:/Users/stapi/OneDrive/Desktop/GD32VW553/V1_MQTT_OK/GD32VW55X_Wifi_BLE_SDK/GD32VW55x_RELEASE_V1.0.2/MSDK/cloud/alicloud/src/services/ota\iotx_ota.c ****             return -1;
 3990              		.loc 2 1094 13
1094:C:/Users/stapi/OneDrive/Desktop/GD32VW553/V1_MQTT_OK/GD32VW55X_Wifi_BLE_SDK/GD32VW55x_RELEASE_V1.0.2/MSDK/cloud/alicloud/src/services/ota\iotx_ota.c ****             return -1;
 3991              		.loc 2 1094 24 is_stmt 0
 3992 00d2 F957     		li	a5,-2
 3993 00d4 7CD8     		sw	a5,116(s0)
 3994 00d6 19A4     		j	.L423
 3995              	.LVL477:
 3996              	.L384:
 3997              	.LBB21:
 892:C:/Users/stapi/OneDrive/Desktop/GD32VW553/V1_MQTT_OK/GD32VW55X_Wifi_BLE_SDK/GD32VW55x_RELEASE_V1.0.2/MSDK/cloud/alicloud/src/services/ota\iotx_ota.c ****                 memcpy(*value, h_ota->configId, strlen(h_ota->configId));
 3998              		.loc 2 892 17 is_stmt 1
 892:C:/Users/stapi/OneDrive/Desktop/GD32VW553/V1_MQTT_OK/GD32VW55X_Wifi_BLE_SDK/GD32VW55x_RELEASE_V1.0.2/MSDK/cloud/alicloud/src/services/ota\iotx_ota.c ****                 memcpy(*value, h_ota->configId, strlen(h_ota->configId));
 3999              		.loc 2 892 35 is_stmt 0
 4000 00d8 684C     		lw	a0,92(s0)
 4001 00da 97000000 		call	strlen
 4001      E7800000 
 4002              	.LVL478:
 892:C:/Users/stapi/OneDrive/Desktop/GD32VW553/V1_MQTT_OK/GD32VW55X_Wifi_BLE_SDK/GD32VW55x_RELEASE_V1.0.2/MSDK/cloud/alicloud/src/services/ota\iotx_ota.c ****                 memcpy(*value, h_ota->configId, strlen(h_ota->configId));
 4003              		.loc 2 892 17
 4004 00e2 13061500 		addi	a2,a0,1
 4005 00e6 8145     		li	a1,0
 4006 00e8 4A85     		mv	a0,s2
 4007 00ea 97000000 		call	memset
 4007      E7800000 
 4008              	.LVL479:
 893:C:/Users/stapi/OneDrive/Desktop/GD32VW553/V1_MQTT_OK/GD32VW55X_Wifi_BLE_SDK/GD32VW55x_RELEASE_V1.0.2/MSDK/cloud/alicloud/src/services/ota\iotx_ota.c ****                 return 0;
 4009              		.loc 2 893 17 is_stmt 1
 893:C:/Users/stapi/OneDrive/Desktop/GD32VW553/V1_MQTT_OK/GD32VW55X_Wifi_BLE_SDK/GD32VW55x_RELEASE_V1.0.2/MSDK/cloud/alicloud/src/services/ota\iotx_ota.c ****                 return 0;
 4010              		.loc 2 893 37 is_stmt 0
 4011 00f2 6C4C     		lw	a1,92(s0)
 4012              	.LVL480:
 4013              	.L426:
 4014              	.LBE21:
 4015              	.LBB22:
 976:C:/Users/stapi/OneDrive/Desktop/GD32VW553/V1_MQTT_OK/GD32VW55X_Wifi_BLE_SDK/GD32VW55x_RELEASE_V1.0.2/MSDK/cloud/alicloud/src/services/ota\iotx_ota.c ****                 return 0;
 4016              		.loc 2 976 17
 4017 00f4 2E85     		mv	a0,a1
 4018 00f6 2EC6     		sw	a1,12(sp)
 4019 00f8 97000000 		call	strlen
 4019      E7800000 
 4020              	.LVL481:
 4021 0100 2A86     		mv	a2,a0
 4022 0102 B245     		lw	a1,12(sp)
 4023 0104 8840     		lw	a0,0(s1)
 4024 0106 97000000 		call	memcpy
 4024      E7800000 
 4025              	.LVL482:
 977:C:/Users/stapi/OneDrive/Desktop/GD32VW553/V1_MQTT_OK/GD32VW55X_Wifi_BLE_SDK/GD32VW55x_RELEASE_V1.0.2/MSDK/cloud/alicloud/src/services/ota\iotx_ota.c ****             }
 4026              		.loc 2 977 17 is_stmt 1
 4027              	.L389:
 4028              	.LBE22:
1086:C:/Users/stapi/OneDrive/Desktop/GD32VW553/V1_MQTT_OK/GD32VW55X_Wifi_BLE_SDK/GD32VW55x_RELEASE_V1.0.2/MSDK/cloud/alicloud/src/services/ota\iotx_ota.c ****             }
 4029              		.loc 2 1086 24 is_stmt 0
 4030 010e 0149     		li	s2,0
 4031 0110 1DBF     		j	.L361
 4032              	.LVL483:
 4033              	.L380:
 897:C:/Users/stapi/OneDrive/Desktop/GD32VW553/V1_MQTT_OK/GD32VW55X_Wifi_BLE_SDK/GD32VW55x_RELEASE_V1.0.2/MSDK/cloud/alicloud/src/services/ota\iotx_ota.c ****         case IOT_OTAG_COTA_CONFIG_SIZE: {
 4034              		.loc 2 897 9 is_stmt 1
 899:C:/Users/stapi/OneDrive/Desktop/GD32VW553/V1_MQTT_OK/GD32VW55X_Wifi_BLE_SDK/GD32VW55x_RELEASE_V1.0.2/MSDK/cloud/alicloud/src/services/ota\iotx_ota.c ****                 OTA_LOG_ERROR("Invalid parameter");
 4035              		.loc 2 899 13
 899:C:/Users/stapi/OneDrive/Desktop/GD32VW553/V1_MQTT_OK/GD32VW55X_Wifi_BLE_SDK/GD32VW55x_RELEASE_V1.0.2/MSDK/cloud/alicloud/src/services/ota\iotx_ota.c ****                 OTA_LOG_ERROR("Invalid parameter");
 4036              		.loc 2 899 16 is_stmt 0
 4037 0112 9147     		li	a5,4
 4038 0114 E397F6F6 		bne	a3,a5,.L382
 899:C:/Users/stapi/OneDrive/Desktop/GD32VW553/V1_MQTT_OK/GD32VW55X_Wifi_BLE_SDK/GD32VW55x_RELEASE_V1.0.2/MSDK/cloud/alicloud/src/services/ota\iotx_ota.c ****                 OTA_LOG_ERROR("Invalid parameter");
 4039              		.loc 2 899 61 discriminator 1
 4040 0118 93773600 		andi	a5,a2,3
 899:C:/Users/stapi/OneDrive/Desktop/GD32VW553/V1_MQTT_OK/GD32VW55X_Wifi_BLE_SDK/GD32VW55x_RELEASE_V1.0.2/MSDK/cloud/alicloud/src/services/ota\iotx_ota.c ****                 OTA_LOG_ERROR("Invalid parameter");
 4041              		.loc 2 899 32 discriminator 1
 4042 011c BDF3     		bne	a5,zero,.L382
 904:C:/Users/stapi/OneDrive/Desktop/GD32VW553/V1_MQTT_OK/GD32VW55X_Wifi_BLE_SDK/GD32VW55x_RELEASE_V1.0.2/MSDK/cloud/alicloud/src/services/ota\iotx_ota.c ****                 return 0;
 4043              		.loc 2 904 17 is_stmt 1
 904:C:/Users/stapi/OneDrive/Desktop/GD32VW553/V1_MQTT_OK/GD32VW55X_Wifi_BLE_SDK/GD32VW55x_RELEASE_V1.0.2/MSDK/cloud/alicloud/src/services/ota\iotx_ota.c ****                 return 0;
 4044              		.loc 2 904 43 is_stmt 0
 4045 011e 3C51     		lw	a5,96(a0)
 4046              	.L427:
1008:C:/Users/stapi/OneDrive/Desktop/GD32VW553/V1_MQTT_OK/GD32VW55X_Wifi_BLE_SDK/GD32VW55x_RELEASE_V1.0.2/MSDK/cloud/alicloud/src/services/ota\iotx_ota.c ****                 return 0;
 4047              		.loc 2 1008 36
 4048 0120 9CC0     		sw	a5,0(s1)
1009:C:/Users/stapi/OneDrive/Desktop/GD32VW553/V1_MQTT_OK/GD32VW55X_Wifi_BLE_SDK/GD32VW55x_RELEASE_V1.0.2/MSDK/cloud/alicloud/src/services/ota\iotx_ota.c ****             };
 4049              		.loc 2 1009 17 is_stmt 1
 4050 0122 F5B7     		j	.L389
 4051              	.L379:
 908:C:/Users/stapi/OneDrive/Desktop/GD32VW553/V1_MQTT_OK/GD32VW55X_Wifi_BLE_SDK/GD32VW55x_RELEASE_V1.0.2/MSDK/cloud/alicloud/src/services/ota\iotx_ota.c ****         case IOT_OTAG_COTA_SIGN: {
 4052              		.loc 2 908 9 discriminator 1
 4053              	.LBB23:
 910:C:/Users/stapi/OneDrive/Desktop/GD32VW553/V1_MQTT_OK/GD32VW55X_Wifi_BLE_SDK/GD32VW55x_RELEASE_V1.0.2/MSDK/cloud/alicloud/src/services/ota\iotx_ota.c ****             if (value == NULL || *value != NULL || h_ota->sign == NULL) {
 4054              		.loc 2 910 13 discriminator 1
 4055              	.LVL484:
 911:C:/Users/stapi/OneDrive/Desktop/GD32VW553/V1_MQTT_OK/GD32VW55X_Wifi_BLE_SDK/GD32VW55x_RELEASE_V1.0.2/MSDK/cloud/alicloud/src/services/ota\iotx_ota.c ****                 OTA_LOG_ERROR("Invalid parameter");
 4056              		.loc 2 911 13 discriminator 1
 911:C:/Users/stapi/OneDrive/Desktop/GD32VW553/V1_MQTT_OK/GD32VW55X_Wifi_BLE_SDK/GD32VW55x_RELEASE_V1.0.2/MSDK/cloud/alicloud/src/services/ota\iotx_ota.c ****                 OTA_LOG_ERROR("Invalid parameter");
 4057              		.loc 2 911 31 is_stmt 0 discriminator 1
 4058 0124 1C42     		lw	a5,0(a2)
 4059 0126 B1FF     		bne	a5,zero,.L382
 911:C:/Users/stapi/OneDrive/Desktop/GD32VW553/V1_MQTT_OK/GD32VW55X_Wifi_BLE_SDK/GD32VW55x_RELEASE_V1.0.2/MSDK/cloud/alicloud/src/services/ota\iotx_ota.c ****                 OTA_LOG_ERROR("Invalid parameter");
 4060              		.loc 2 911 57 discriminator 2
 4061 0128 6851     		lw	a0,100(a0)
 911:C:/Users/stapi/OneDrive/Desktop/GD32VW553/V1_MQTT_OK/GD32VW55X_Wifi_BLE_SDK/GD32VW55x_RELEASE_V1.0.2/MSDK/cloud/alicloud/src/services/ota\iotx_ota.c ****                 OTA_LOG_ERROR("Invalid parameter");
 4062              		.loc 2 911 49 discriminator 2
 4063 012a 21DD     		beq	a0,zero,.L382
 916:C:/Users/stapi/OneDrive/Desktop/GD32VW553/V1_MQTT_OK/GD32VW55X_Wifi_BLE_SDK/GD32VW55x_RELEASE_V1.0.2/MSDK/cloud/alicloud/src/services/ota\iotx_ota.c ****                 if (*value == NULL) {
 4064              		.loc 2 916 17 is_stmt 1
 916:C:/Users/stapi/OneDrive/Desktop/GD32VW553/V1_MQTT_OK/GD32VW55X_Wifi_BLE_SDK/GD32VW55x_RELEASE_V1.0.2/MSDK/cloud/alicloud/src/services/ota\iotx_ota.c ****                 if (*value == NULL) {
 4065              		.loc 2 916 26 is_stmt 0
 4066 012c 97000000 		call	strlen
 4066      E7800000 
 4067              	.LVL485:
 4068 0134 13061500 		addi	a2,a0,1
 4069 0138 8145     		li	a1,0
 4070 013a 0145     		li	a0,0
 4071 013c 97000000 		call	LITE_malloc_internal
 4071      E7800000 
 4072              	.LVL486:
 916:C:/Users/stapi/OneDrive/Desktop/GD32VW553/V1_MQTT_OK/GD32VW55X_Wifi_BLE_SDK/GD32VW55x_RELEASE_V1.0.2/MSDK/cloud/alicloud/src/services/ota\iotx_ota.c ****                 if (*value == NULL) {
 4073              		.loc 2 916 24
 4074 0144 88C0     		sw	a0,0(s1)
 917:C:/Users/stapi/OneDrive/Desktop/GD32VW553/V1_MQTT_OK/GD32VW55X_Wifi_BLE_SDK/GD32VW55x_RELEASE_V1.0.2/MSDK/cloud/alicloud/src/services/ota\iotx_ota.c ****                     h_ota->err = IOT_OTAE_INVALID_PARAM;
 4075              		.loc 2 917 17 is_stmt 1
 916:C:/Users/stapi/OneDrive/Desktop/GD32VW553/V1_MQTT_OK/GD32VW55X_Wifi_BLE_SDK/GD32VW55x_RELEASE_V1.0.2/MSDK/cloud/alicloud/src/services/ota\iotx_ota.c ****                 if (*value == NULL) {
 4076              		.loc 2 916 26 is_stmt 0
 4077 0146 2A89     		mv	s2,a0
 4078              	.LVL487:
 917:C:/Users/stapi/OneDrive/Desktop/GD32VW553/V1_MQTT_OK/GD32VW55X_Wifi_BLE_SDK/GD32VW55x_RELEASE_V1.0.2/MSDK/cloud/alicloud/src/services/ota\iotx_ota.c ****                     h_ota->err = IOT_OTAE_INVALID_PARAM;
 4079              		.loc 2 917 20
 4080 0148 49D5     		beq	a0,zero,.L422
 921:C:/Users/stapi/OneDrive/Desktop/GD32VW553/V1_MQTT_OK/GD32VW55X_Wifi_BLE_SDK/GD32VW55x_RELEASE_V1.0.2/MSDK/cloud/alicloud/src/services/ota\iotx_ota.c ****                 memcpy(*value, h_ota->sign, strlen(h_ota->sign));
 4081              		.loc 2 921 17 is_stmt 1
 921:C:/Users/stapi/OneDrive/Desktop/GD32VW553/V1_MQTT_OK/GD32VW55X_Wifi_BLE_SDK/GD32VW55x_RELEASE_V1.0.2/MSDK/cloud/alicloud/src/services/ota\iotx_ota.c ****                 memcpy(*value, h_ota->sign, strlen(h_ota->sign));
 4082              		.loc 2 921 35 is_stmt 0
 4083 014a 6850     		lw	a0,100(s0)
 4084 014c 97000000 		call	strlen
 4084      E7800000 
 4085              	.LVL488:
 921:C:/Users/stapi/OneDrive/Desktop/GD32VW553/V1_MQTT_OK/GD32VW55X_Wifi_BLE_SDK/GD32VW55x_RELEASE_V1.0.2/MSDK/cloud/alicloud/src/services/ota\iotx_ota.c ****                 memcpy(*value, h_ota->sign, strlen(h_ota->sign));
 4086              		.loc 2 921 17
 4087 0154 13061500 		addi	a2,a0,1
 4088 0158 8145     		li	a1,0
 4089 015a 4A85     		mv	a0,s2
 4090 015c 97000000 		call	memset
 4090      E7800000 
 4091              	.LVL489:
 922:C:/Users/stapi/OneDrive/Desktop/GD32VW553/V1_MQTT_OK/GD32VW55X_Wifi_BLE_SDK/GD32VW55x_RELEASE_V1.0.2/MSDK/cloud/alicloud/src/services/ota\iotx_ota.c ****                 return 0;
 4092              		.loc 2 922 17 is_stmt 1
 922:C:/Users/stapi/OneDrive/Desktop/GD32VW553/V1_MQTT_OK/GD32VW55X_Wifi_BLE_SDK/GD32VW55x_RELEASE_V1.0.2/MSDK/cloud/alicloud/src/services/ota\iotx_ota.c ****                 return 0;
 4093              		.loc 2 922 37 is_stmt 0
 4094 0164 6C50     		lw	a1,100(s0)
 4095 0166 79B7     		j	.L426
 4096              	.LVL490:
 4097              	.L378:
 4098              	.LBE23:
 926:C:/Users/stapi/OneDrive/Desktop/GD32VW553/V1_MQTT_OK/GD32VW55X_Wifi_BLE_SDK/GD32VW55x_RELEASE_V1.0.2/MSDK/cloud/alicloud/src/services/ota\iotx_ota.c ****         case IOT_OTAG_COTA_SIGN_METHOD: {
 4099              		.loc 2 926 9 is_stmt 1 discriminator 1
 4100              	.LBB24:
 928:C:/Users/stapi/OneDrive/Desktop/GD32VW553/V1_MQTT_OK/GD32VW55X_Wifi_BLE_SDK/GD32VW55x_RELEASE_V1.0.2/MSDK/cloud/alicloud/src/services/ota\iotx_ota.c ****             if (value == NULL || *value != NULL || h_ota->signMethod == NULL) {
 4101              		.loc 2 928 13 discriminator 1
 929:C:/Users/stapi/OneDrive/Desktop/GD32VW553/V1_MQTT_OK/GD32VW55X_Wifi_BLE_SDK/GD32VW55x_RELEASE_V1.0.2/MSDK/cloud/alicloud/src/services/ota\iotx_ota.c ****                 OTA_LOG_ERROR("Invalid parameter");
 4102              		.loc 2 929 13 discriminator 1
 929:C:/Users/stapi/OneDrive/Desktop/GD32VW553/V1_MQTT_OK/GD32VW55X_Wifi_BLE_SDK/GD32VW55x_RELEASE_V1.0.2/MSDK/cloud/alicloud/src/services/ota\iotx_ota.c ****                 OTA_LOG_ERROR("Invalid parameter");
 4103              		.loc 2 929 31 is_stmt 0 discriminator 1
 4104 0168 1C42     		lw	a5,0(a2)
 4105 016a 81FF     		bne	a5,zero,.L382
 929:C:/Users/stapi/OneDrive/Desktop/GD32VW553/V1_MQTT_OK/GD32VW55X_Wifi_BLE_SDK/GD32VW55x_RELEASE_V1.0.2/MSDK/cloud/alicloud/src/services/ota\iotx_ota.c ****                 OTA_LOG_ERROR("Invalid parameter");
 4106              		.loc 2 929 57 discriminator 2
 4107 016c 2855     		lw	a0,104(a0)
 929:C:/Users/stapi/OneDrive/Desktop/GD32VW553/V1_MQTT_OK/GD32VW55X_Wifi_BLE_SDK/GD32VW55x_RELEASE_V1.0.2/MSDK/cloud/alicloud/src/services/ota\iotx_ota.c ****                 OTA_LOG_ERROR("Invalid parameter");
 4108              		.loc 2 929 49 discriminator 2
 4109 016e 11D9     		beq	a0,zero,.L382
 934:C:/Users/stapi/OneDrive/Desktop/GD32VW553/V1_MQTT_OK/GD32VW55X_Wifi_BLE_SDK/GD32VW55x_RELEASE_V1.0.2/MSDK/cloud/alicloud/src/services/ota\iotx_ota.c ****                 if (*value == NULL) {
 4110              		.loc 2 934 17 is_stmt 1
 934:C:/Users/stapi/OneDrive/Desktop/GD32VW553/V1_MQTT_OK/GD32VW55X_Wifi_BLE_SDK/GD32VW55x_RELEASE_V1.0.2/MSDK/cloud/alicloud/src/services/ota\iotx_ota.c ****                 if (*value == NULL) {
 4111              		.loc 2 934 26 is_stmt 0
 4112 0170 97000000 		call	strlen
 4112      E7800000 
 4113              	.LVL491:
 4114 0178 13061500 		addi	a2,a0,1
 4115 017c 8145     		li	a1,0
 4116 017e 0145     		li	a0,0
 4117 0180 97000000 		call	LITE_malloc_internal
 4117      E7800000 
 4118              	.LVL492:
 934:C:/Users/stapi/OneDrive/Desktop/GD32VW553/V1_MQTT_OK/GD32VW55X_Wifi_BLE_SDK/GD32VW55x_RELEASE_V1.0.2/MSDK/cloud/alicloud/src/services/ota\iotx_ota.c ****                 if (*value == NULL) {
 4119              		.loc 2 934 24
 4120 0188 88C0     		sw	a0,0(s1)
 935:C:/Users/stapi/OneDrive/Desktop/GD32VW553/V1_MQTT_OK/GD32VW55X_Wifi_BLE_SDK/GD32VW55x_RELEASE_V1.0.2/MSDK/cloud/alicloud/src/services/ota\iotx_ota.c ****                     h_ota->err = IOT_OTAE_INVALID_PARAM;
 4121              		.loc 2 935 17 is_stmt 1
 934:C:/Users/stapi/OneDrive/Desktop/GD32VW553/V1_MQTT_OK/GD32VW55X_Wifi_BLE_SDK/GD32VW55x_RELEASE_V1.0.2/MSDK/cloud/alicloud/src/services/ota\iotx_ota.c ****                 if (*value == NULL) {
 4122              		.loc 2 934 26 is_stmt 0
 4123 018a 2A89     		mv	s2,a0
 4124              	.LVL493:
 935:C:/Users/stapi/OneDrive/Desktop/GD32VW553/V1_MQTT_OK/GD32VW55X_Wifi_BLE_SDK/GD32VW55x_RELEASE_V1.0.2/MSDK/cloud/alicloud/src/services/ota\iotx_ota.c ****                     h_ota->err = IOT_OTAE_INVALID_PARAM;
 4125              		.loc 2 935 20
 4126 018c 39D1     		beq	a0,zero,.L422
 939:C:/Users/stapi/OneDrive/Desktop/GD32VW553/V1_MQTT_OK/GD32VW55X_Wifi_BLE_SDK/GD32VW55x_RELEASE_V1.0.2/MSDK/cloud/alicloud/src/services/ota\iotx_ota.c ****                 memcpy(*value, h_ota->signMethod, strlen(h_ota->signMethod));
 4127              		.loc 2 939 17 is_stmt 1
 939:C:/Users/stapi/OneDrive/Desktop/GD32VW553/V1_MQTT_OK/GD32VW55X_Wifi_BLE_SDK/GD32VW55x_RELEASE_V1.0.2/MSDK/cloud/alicloud/src/services/ota\iotx_ota.c ****                 memcpy(*value, h_ota->signMethod, strlen(h_ota->signMethod));
 4128              		.loc 2 939 35 is_stmt 0
 4129 018e 2854     		lw	a0,104(s0)
 4130 0190 97000000 		call	strlen
 4130      E7800000 
 4131              	.LVL494:
 939:C:/Users/stapi/OneDrive/Desktop/GD32VW553/V1_MQTT_OK/GD32VW55X_Wifi_BLE_SDK/GD32VW55x_RELEASE_V1.0.2/MSDK/cloud/alicloud/src/services/ota\iotx_ota.c ****                 memcpy(*value, h_ota->signMethod, strlen(h_ota->signMethod));
 4132              		.loc 2 939 17
 4133 0198 13061500 		addi	a2,a0,1
 4134 019c 8145     		li	a1,0
 4135 019e 4A85     		mv	a0,s2
 4136 01a0 97000000 		call	memset
 4136      E7800000 
 4137              	.LVL495:
 940:C:/Users/stapi/OneDrive/Desktop/GD32VW553/V1_MQTT_OK/GD32VW55X_Wifi_BLE_SDK/GD32VW55x_RELEASE_V1.0.2/MSDK/cloud/alicloud/src/services/ota\iotx_ota.c ****                 return 0;
 4138              		.loc 2 940 17 is_stmt 1
 940:C:/Users/stapi/OneDrive/Desktop/GD32VW553/V1_MQTT_OK/GD32VW55X_Wifi_BLE_SDK/GD32VW55x_RELEASE_V1.0.2/MSDK/cloud/alicloud/src/services/ota\iotx_ota.c ****                 return 0;
 4139              		.loc 2 940 37 is_stmt 0
 4140 01a8 2C54     		lw	a1,104(s0)
 4141 01aa A9B7     		j	.L426
 4142              	.LVL496:
 4143              	.L377:
 4144              	.LBE24:
 944:C:/Users/stapi/OneDrive/Desktop/GD32VW553/V1_MQTT_OK/GD32VW55X_Wifi_BLE_SDK/GD32VW55x_RELEASE_V1.0.2/MSDK/cloud/alicloud/src/services/ota\iotx_ota.c ****         case IOT_OTAG_COTA_URL: {
 4145              		.loc 2 944 9 is_stmt 1 discriminator 1
 4146              	.LBB25:
 946:C:/Users/stapi/OneDrive/Desktop/GD32VW553/V1_MQTT_OK/GD32VW55X_Wifi_BLE_SDK/GD32VW55x_RELEASE_V1.0.2/MSDK/cloud/alicloud/src/services/ota\iotx_ota.c ****             if (value == NULL || *value != NULL || h_ota->cota_url == NULL) {
 4147              		.loc 2 946 13 discriminator 1
 947:C:/Users/stapi/OneDrive/Desktop/GD32VW553/V1_MQTT_OK/GD32VW55X_Wifi_BLE_SDK/GD32VW55x_RELEASE_V1.0.2/MSDK/cloud/alicloud/src/services/ota\iotx_ota.c ****                 OTA_LOG_ERROR("Invalid parameter");
 4148              		.loc 2 947 13 discriminator 1
 947:C:/Users/stapi/OneDrive/Desktop/GD32VW553/V1_MQTT_OK/GD32VW55X_Wifi_BLE_SDK/GD32VW55x_RELEASE_V1.0.2/MSDK/cloud/alicloud/src/services/ota\iotx_ota.c ****                 OTA_LOG_ERROR("Invalid parameter");
 4149              		.loc 2 947 31 is_stmt 0 discriminator 1
 4150 01ac 1C42     		lw	a5,0(a2)
 4151 01ae E39A07EC 		bne	a5,zero,.L382
 947:C:/Users/stapi/OneDrive/Desktop/GD32VW553/V1_MQTT_OK/GD32VW55X_Wifi_BLE_SDK/GD32VW55x_RELEASE_V1.0.2/MSDK/cloud/alicloud/src/services/ota\iotx_ota.c ****                 OTA_LOG_ERROR("Invalid parameter");
 4152              		.loc 2 947 57 discriminator 2
 4153 01b2 6855     		lw	a0,108(a0)
 947:C:/Users/stapi/OneDrive/Desktop/GD32VW553/V1_MQTT_OK/GD32VW55X_Wifi_BLE_SDK/GD32VW55x_RELEASE_V1.0.2/MSDK/cloud/alicloud/src/services/ota\iotx_ota.c ****                 OTA_LOG_ERROR("Invalid parameter");
 4154              		.loc 2 947 49 discriminator 2
 4155 01b4 E30705EC 		beq	a0,zero,.L382
 952:C:/Users/stapi/OneDrive/Desktop/GD32VW553/V1_MQTT_OK/GD32VW55X_Wifi_BLE_SDK/GD32VW55x_RELEASE_V1.0.2/MSDK/cloud/alicloud/src/services/ota\iotx_ota.c ****                 if (*value == NULL) {
 4156              		.loc 2 952 17 is_stmt 1
 952:C:/Users/stapi/OneDrive/Desktop/GD32VW553/V1_MQTT_OK/GD32VW55X_Wifi_BLE_SDK/GD32VW55x_RELEASE_V1.0.2/MSDK/cloud/alicloud/src/services/ota\iotx_ota.c ****                 if (*value == NULL) {
 4157              		.loc 2 952 26 is_stmt 0
 4158 01b8 97000000 		call	strlen
 4158      E7800000 
 4159              	.LVL497:
 4160 01c0 13061500 		addi	a2,a0,1
 4161 01c4 8145     		li	a1,0
 4162 01c6 0145     		li	a0,0
 4163 01c8 97000000 		call	LITE_malloc_internal
 4163      E7800000 
 4164              	.LVL498:
 952:C:/Users/stapi/OneDrive/Desktop/GD32VW553/V1_MQTT_OK/GD32VW55X_Wifi_BLE_SDK/GD32VW55x_RELEASE_V1.0.2/MSDK/cloud/alicloud/src/services/ota\iotx_ota.c ****                 if (*value == NULL) {
 4165              		.loc 2 952 24
 4166 01d0 88C0     		sw	a0,0(s1)
 953:C:/Users/stapi/OneDrive/Desktop/GD32VW553/V1_MQTT_OK/GD32VW55X_Wifi_BLE_SDK/GD32VW55x_RELEASE_V1.0.2/MSDK/cloud/alicloud/src/services/ota\iotx_ota.c ****                     h_ota->err = IOT_OTAE_INVALID_PARAM;
 4167              		.loc 2 953 17 is_stmt 1
 952:C:/Users/stapi/OneDrive/Desktop/GD32VW553/V1_MQTT_OK/GD32VW55X_Wifi_BLE_SDK/GD32VW55x_RELEASE_V1.0.2/MSDK/cloud/alicloud/src/services/ota\iotx_ota.c ****                 if (*value == NULL) {
 4168              		.loc 2 952 26 is_stmt 0
 4169 01d2 2A89     		mv	s2,a0
 4170              	.LVL499:
 953:C:/Users/stapi/OneDrive/Desktop/GD32VW553/V1_MQTT_OK/GD32VW55X_Wifi_BLE_SDK/GD32VW55x_RELEASE_V1.0.2/MSDK/cloud/alicloud/src/services/ota\iotx_ota.c ****                     h_ota->err = IOT_OTAE_INVALID_PARAM;
 4171              		.loc 2 953 20
 4172 01d4 E30F05EE 		beq	a0,zero,.L422
 957:C:/Users/stapi/OneDrive/Desktop/GD32VW553/V1_MQTT_OK/GD32VW55X_Wifi_BLE_SDK/GD32VW55x_RELEASE_V1.0.2/MSDK/cloud/alicloud/src/services/ota\iotx_ota.c ****                 memcpy(*value, h_ota->cota_url, strlen(h_ota->cota_url));
 4173              		.loc 2 957 17 is_stmt 1
 957:C:/Users/stapi/OneDrive/Desktop/GD32VW553/V1_MQTT_OK/GD32VW55X_Wifi_BLE_SDK/GD32VW55x_RELEASE_V1.0.2/MSDK/cloud/alicloud/src/services/ota\iotx_ota.c ****                 memcpy(*value, h_ota->cota_url, strlen(h_ota->cota_url));
 4174              		.loc 2 957 35 is_stmt 0
 4175 01d8 6854     		lw	a0,108(s0)
 4176 01da 97000000 		call	strlen
 4176      E7800000 
 4177              	.LVL500:
 957:C:/Users/stapi/OneDrive/Desktop/GD32VW553/V1_MQTT_OK/GD32VW55X_Wifi_BLE_SDK/GD32VW55x_RELEASE_V1.0.2/MSDK/cloud/alicloud/src/services/ota\iotx_ota.c ****                 memcpy(*value, h_ota->cota_url, strlen(h_ota->cota_url));
 4178              		.loc 2 957 17
 4179 01e2 13061500 		addi	a2,a0,1
 4180 01e6 8145     		li	a1,0
 4181 01e8 4A85     		mv	a0,s2
 4182 01ea 97000000 		call	memset
 4182      E7800000 
 4183              	.LVL501:
 958:C:/Users/stapi/OneDrive/Desktop/GD32VW553/V1_MQTT_OK/GD32VW55X_Wifi_BLE_SDK/GD32VW55x_RELEASE_V1.0.2/MSDK/cloud/alicloud/src/services/ota\iotx_ota.c ****                 return 0;
 4184              		.loc 2 958 17 is_stmt 1
 958:C:/Users/stapi/OneDrive/Desktop/GD32VW553/V1_MQTT_OK/GD32VW55X_Wifi_BLE_SDK/GD32VW55x_RELEASE_V1.0.2/MSDK/cloud/alicloud/src/services/ota\iotx_ota.c ****                 return 0;
 4185              		.loc 2 958 37 is_stmt 0
 4186 01f2 6C54     		lw	a1,108(s0)
 4187 01f4 01B7     		j	.L426
 4188              	.LVL502:
 4189              	.L376:
 4190              	.LBE25:
 962:C:/Users/stapi/OneDrive/Desktop/GD32VW553/V1_MQTT_OK/GD32VW55X_Wifi_BLE_SDK/GD32VW55x_RELEASE_V1.0.2/MSDK/cloud/alicloud/src/services/ota\iotx_ota.c ****         case IOT_OTAG_COTA_GETTYPE: {
 4191              		.loc 2 962 9 is_stmt 1 discriminator 1
 4192              	.LBB26:
 964:C:/Users/stapi/OneDrive/Desktop/GD32VW553/V1_MQTT_OK/GD32VW55X_Wifi_BLE_SDK/GD32VW55x_RELEASE_V1.0.2/MSDK/cloud/alicloud/src/services/ota\iotx_ota.c ****             if (value == NULL || *value != NULL || h_ota->getType == NULL) {
 4193              		.loc 2 964 13 discriminator 1
 965:C:/Users/stapi/OneDrive/Desktop/GD32VW553/V1_MQTT_OK/GD32VW55X_Wifi_BLE_SDK/GD32VW55x_RELEASE_V1.0.2/MSDK/cloud/alicloud/src/services/ota\iotx_ota.c ****                 OTA_LOG_ERROR("Invalid parameter");
 4194              		.loc 2 965 13 discriminator 1
 965:C:/Users/stapi/OneDrive/Desktop/GD32VW553/V1_MQTT_OK/GD32VW55X_Wifi_BLE_SDK/GD32VW55x_RELEASE_V1.0.2/MSDK/cloud/alicloud/src/services/ota\iotx_ota.c ****                 OTA_LOG_ERROR("Invalid parameter");
 4195              		.loc 2 965 31 is_stmt 0 discriminator 1
 4196 01f6 1C42     		lw	a5,0(a2)
 4197 01f8 E39507E8 		bne	a5,zero,.L382
 965:C:/Users/stapi/OneDrive/Desktop/GD32VW553/V1_MQTT_OK/GD32VW55X_Wifi_BLE_SDK/GD32VW55x_RELEASE_V1.0.2/MSDK/cloud/alicloud/src/services/ota\iotx_ota.c ****                 OTA_LOG_ERROR("Invalid parameter");
 4198              		.loc 2 965 57 discriminator 2
 4199 01fc 2859     		lw	a0,112(a0)
 965:C:/Users/stapi/OneDrive/Desktop/GD32VW553/V1_MQTT_OK/GD32VW55X_Wifi_BLE_SDK/GD32VW55x_RELEASE_V1.0.2/MSDK/cloud/alicloud/src/services/ota\iotx_ota.c ****                 OTA_LOG_ERROR("Invalid parameter");
 4200              		.loc 2 965 49 discriminator 2
 4201 01fe E30205E8 		beq	a0,zero,.L382
 970:C:/Users/stapi/OneDrive/Desktop/GD32VW553/V1_MQTT_OK/GD32VW55X_Wifi_BLE_SDK/GD32VW55x_RELEASE_V1.0.2/MSDK/cloud/alicloud/src/services/ota\iotx_ota.c ****                 if (*value == NULL) {
 4202              		.loc 2 970 17 is_stmt 1
 970:C:/Users/stapi/OneDrive/Desktop/GD32VW553/V1_MQTT_OK/GD32VW55X_Wifi_BLE_SDK/GD32VW55x_RELEASE_V1.0.2/MSDK/cloud/alicloud/src/services/ota\iotx_ota.c ****                 if (*value == NULL) {
 4203              		.loc 2 970 26 is_stmt 0
 4204 0202 97000000 		call	strlen
 4204      E7800000 
 4205              	.LVL503:
 4206 020a 13061500 		addi	a2,a0,1
 4207 020e 8145     		li	a1,0
 4208 0210 0145     		li	a0,0
 4209 0212 97000000 		call	LITE_malloc_internal
 4209      E7800000 
 4210              	.LVL504:
 970:C:/Users/stapi/OneDrive/Desktop/GD32VW553/V1_MQTT_OK/GD32VW55X_Wifi_BLE_SDK/GD32VW55x_RELEASE_V1.0.2/MSDK/cloud/alicloud/src/services/ota\iotx_ota.c ****                 if (*value == NULL) {
 4211              		.loc 2 970 24
 4212 021a 88C0     		sw	a0,0(s1)
 971:C:/Users/stapi/OneDrive/Desktop/GD32VW553/V1_MQTT_OK/GD32VW55X_Wifi_BLE_SDK/GD32VW55x_RELEASE_V1.0.2/MSDK/cloud/alicloud/src/services/ota\iotx_ota.c ****                     h_ota->err = IOT_OTAE_INVALID_PARAM;
 4213              		.loc 2 971 17 is_stmt 1
 970:C:/Users/stapi/OneDrive/Desktop/GD32VW553/V1_MQTT_OK/GD32VW55X_Wifi_BLE_SDK/GD32VW55x_RELEASE_V1.0.2/MSDK/cloud/alicloud/src/services/ota\iotx_ota.c ****                 if (*value == NULL) {
 4214              		.loc 2 970 26 is_stmt 0
 4215 021c 2A89     		mv	s2,a0
 4216              	.LVL505:
 971:C:/Users/stapi/OneDrive/Desktop/GD32VW553/V1_MQTT_OK/GD32VW55X_Wifi_BLE_SDK/GD32VW55x_RELEASE_V1.0.2/MSDK/cloud/alicloud/src/services/ota\iotx_ota.c ****                     h_ota->err = IOT_OTAE_INVALID_PARAM;
 4217              		.loc 2 971 20
 4218 021e E30A05EA 		beq	a0,zero,.L422
 975:C:/Users/stapi/OneDrive/Desktop/GD32VW553/V1_MQTT_OK/GD32VW55X_Wifi_BLE_SDK/GD32VW55x_RELEASE_V1.0.2/MSDK/cloud/alicloud/src/services/ota\iotx_ota.c ****                 memcpy(*value, h_ota->getType, strlen(h_ota->getType));
 4219              		.loc 2 975 17 is_stmt 1
 975:C:/Users/stapi/OneDrive/Desktop/GD32VW553/V1_MQTT_OK/GD32VW55X_Wifi_BLE_SDK/GD32VW55x_RELEASE_V1.0.2/MSDK/cloud/alicloud/src/services/ota\iotx_ota.c ****                 memcpy(*value, h_ota->getType, strlen(h_ota->getType));
 4220              		.loc 2 975 35 is_stmt 0
 4221 0222 2858     		lw	a0,112(s0)
 4222 0224 97000000 		call	strlen
 4222      E7800000 
 4223              	.LVL506:
 975:C:/Users/stapi/OneDrive/Desktop/GD32VW553/V1_MQTT_OK/GD32VW55X_Wifi_BLE_SDK/GD32VW55x_RELEASE_V1.0.2/MSDK/cloud/alicloud/src/services/ota\iotx_ota.c ****                 memcpy(*value, h_ota->getType, strlen(h_ota->getType));
 4224              		.loc 2 975 17
 4225 022c 13061500 		addi	a2,a0,1
 4226 0230 8145     		li	a1,0
 4227 0232 4A85     		mv	a0,s2
 4228 0234 97000000 		call	memset
 4228      E7800000 
 4229              	.LVL507:
 976:C:/Users/stapi/OneDrive/Desktop/GD32VW553/V1_MQTT_OK/GD32VW55X_Wifi_BLE_SDK/GD32VW55x_RELEASE_V1.0.2/MSDK/cloud/alicloud/src/services/ota\iotx_ota.c ****                 return 0;
 4230              		.loc 2 976 17 is_stmt 1
 976:C:/Users/stapi/OneDrive/Desktop/GD32VW553/V1_MQTT_OK/GD32VW55X_Wifi_BLE_SDK/GD32VW55x_RELEASE_V1.0.2/MSDK/cloud/alicloud/src/services/ota\iotx_ota.c ****                 return 0;
 4231              		.loc 2 976 37 is_stmt 0
 4232 023c 2C58     		lw	a1,112(s0)
 4233 023e 5DBD     		j	.L426
 4234              	.LVL508:
 4235              	.L375:
 4236              	.LBE26:
 980:C:/Users/stapi/OneDrive/Desktop/GD32VW553/V1_MQTT_OK/GD32VW55X_Wifi_BLE_SDK/GD32VW55x_RELEASE_V1.0.2/MSDK/cloud/alicloud/src/services/ota\iotx_ota.c ****         case IOT_OTAG_OTA_TYPE: {
 4237              		.loc 2 980 9 is_stmt 1
 982:C:/Users/stapi/OneDrive/Desktop/GD32VW553/V1_MQTT_OK/GD32VW55X_Wifi_BLE_SDK/GD32VW55x_RELEASE_V1.0.2/MSDK/cloud/alicloud/src/services/ota\iotx_ota.c ****                 OTA_LOG_ERROR("Invalid parameter");
 4238              		.loc 2 982 13
 982:C:/Users/stapi/OneDrive/Desktop/GD32VW553/V1_MQTT_OK/GD32VW55X_Wifi_BLE_SDK/GD32VW55x_RELEASE_V1.0.2/MSDK/cloud/alicloud/src/services/ota\iotx_ota.c ****                 OTA_LOG_ERROR("Invalid parameter");
 4239              		.loc 2 982 16 is_stmt 0
 4240 0240 9147     		li	a5,4
 4241 0242 E390F6E4 		bne	a3,a5,.L382
 982:C:/Users/stapi/OneDrive/Desktop/GD32VW553/V1_MQTT_OK/GD32VW55X_Wifi_BLE_SDK/GD32VW55x_RELEASE_V1.0.2/MSDK/cloud/alicloud/src/services/ota\iotx_ota.c ****                 OTA_LOG_ERROR("Invalid parameter");
 4242              		.loc 2 982 61 discriminator 1
 4243 0246 93773600 		andi	a5,a2,3
 982:C:/Users/stapi/OneDrive/Desktop/GD32VW553/V1_MQTT_OK/GD32VW55X_Wifi_BLE_SDK/GD32VW55x_RELEASE_V1.0.2/MSDK/cloud/alicloud/src/services/ota\iotx_ota.c ****                 OTA_LOG_ERROR("Invalid parameter");
 4244              		.loc 2 982 32 discriminator 1
 4245 024a E39C07E2 		bne	a5,zero,.L382
 987:C:/Users/stapi/OneDrive/Desktop/GD32VW553/V1_MQTT_OK/GD32VW55X_Wifi_BLE_SDK/GD32VW55x_RELEASE_V1.0.2/MSDK/cloud/alicloud/src/services/ota\iotx_ota.c ****                 return 0;
 4246              		.loc 2 987 17 is_stmt 1
 987:C:/Users/stapi/OneDrive/Desktop/GD32VW553/V1_MQTT_OK/GD32VW55X_Wifi_BLE_SDK/GD32VW55x_RELEASE_V1.0.2/MSDK/cloud/alicloud/src/services/ota\iotx_ota.c ****                 return 0;
 4247              		.loc 2 987 36 is_stmt 0
 4248 024e 1C49     		lw	a5,16(a0)
 4249 0250 C1BD     		j	.L427
 4250              	.L374:
 991:C:/Users/stapi/OneDrive/Desktop/GD32VW553/V1_MQTT_OK/GD32VW55X_Wifi_BLE_SDK/GD32VW55x_RELEASE_V1.0.2/MSDK/cloud/alicloud/src/services/ota\iotx_ota.c ****         case IOT_OTAG_FETCHED_SIZE:
 4251              		.loc 2 991 9 is_stmt 1
 993:C:/Users/stapi/OneDrive/Desktop/GD32VW553/V1_MQTT_OK/GD32VW55X_Wifi_BLE_SDK/GD32VW55x_RELEASE_V1.0.2/MSDK/cloud/alicloud/src/services/ota\iotx_ota.c ****                 OTA_LOG_ERROR("Invalid parameter");
 4252              		.loc 2 993 13
 993:C:/Users/stapi/OneDrive/Desktop/GD32VW553/V1_MQTT_OK/GD32VW55X_Wifi_BLE_SDK/GD32VW55x_RELEASE_V1.0.2/MSDK/cloud/alicloud/src/services/ota\iotx_ota.c ****                 OTA_LOG_ERROR("Invalid parameter");
 4253              		.loc 2 993 16 is_stmt 0
 4254 0252 9147     		li	a5,4
 4255 0254 E397F6E2 		bne	a3,a5,.L382
 993:C:/Users/stapi/OneDrive/Desktop/GD32VW553/V1_MQTT_OK/GD32VW55X_Wifi_BLE_SDK/GD32VW55x_RELEASE_V1.0.2/MSDK/cloud/alicloud/src/services/ota\iotx_ota.c ****                 OTA_LOG_ERROR("Invalid parameter");
 4256              		.loc 2 993 61 discriminator 1
 4257 0258 93773600 		andi	a5,a2,3
 993:C:/Users/stapi/OneDrive/Desktop/GD32VW553/V1_MQTT_OK/GD32VW55X_Wifi_BLE_SDK/GD32VW55x_RELEASE_V1.0.2/MSDK/cloud/alicloud/src/services/ota\iotx_ota.c ****                 OTA_LOG_ERROR("Invalid parameter");
 4258              		.loc 2 993 32 discriminator 1
 4259 025c E39307E2 		bne	a5,zero,.L382
 998:C:/Users/stapi/OneDrive/Desktop/GD32VW553/V1_MQTT_OK/GD32VW55X_Wifi_BLE_SDK/GD32VW55x_RELEASE_V1.0.2/MSDK/cloud/alicloud/src/services/ota\iotx_ota.c ****                 return 0;
 4260              		.loc 2 998 17 is_stmt 1
 998:C:/Users/stapi/OneDrive/Desktop/GD32VW553/V1_MQTT_OK/GD32VW55X_Wifi_BLE_SDK/GD32VW55x_RELEASE_V1.0.2/MSDK/cloud/alicloud/src/services/ota\iotx_ota.c ****                 return 0;
 4261              		.loc 2 998 43 is_stmt 0
 4262 0260 1C4D     		lw	a5,24(a0)
 4263 0262 7DBD     		j	.L427
 4264              	.L373:
1003:C:/Users/stapi/OneDrive/Desktop/GD32VW553/V1_MQTT_OK/GD32VW55X_Wifi_BLE_SDK/GD32VW55x_RELEASE_V1.0.2/MSDK/cloud/alicloud/src/services/ota\iotx_ota.c ****                 OTA_LOG_ERROR("Invalid parameter");
 4265              		.loc 2 1003 13 is_stmt 1
1003:C:/Users/stapi/OneDrive/Desktop/GD32VW553/V1_MQTT_OK/GD32VW55X_Wifi_BLE_SDK/GD32VW55x_RELEASE_V1.0.2/MSDK/cloud/alicloud/src/services/ota\iotx_ota.c ****                 OTA_LOG_ERROR("Invalid parameter");
 4266              		.loc 2 1003 16 is_stmt 0
 4267 0264 9147     		li	a5,4
 4268 0266 E39EF6E0 		bne	a3,a5,.L382
1003:C:/Users/stapi/OneDrive/Desktop/GD32VW553/V1_MQTT_OK/GD32VW55X_Wifi_BLE_SDK/GD32VW55x_RELEASE_V1.0.2/MSDK/cloud/alicloud/src/services/ota\iotx_ota.c ****                 OTA_LOG_ERROR("Invalid parameter");
 4269              		.loc 2 1003 61 discriminator 1
 4270 026a 93773600 		andi	a5,a2,3
1003:C:/Users/stapi/OneDrive/Desktop/GD32VW553/V1_MQTT_OK/GD32VW55X_Wifi_BLE_SDK/GD32VW55x_RELEASE_V1.0.2/MSDK/cloud/alicloud/src/services/ota\iotx_ota.c ****                 OTA_LOG_ERROR("Invalid parameter");
 4271              		.loc 2 1003 32 discriminator 1
 4272 026e E39A07E0 		bne	a5,zero,.L382
1008:C:/Users/stapi/OneDrive/Desktop/GD32VW553/V1_MQTT_OK/GD32VW55X_Wifi_BLE_SDK/GD32VW55x_RELEASE_V1.0.2/MSDK/cloud/alicloud/src/services/ota\iotx_ota.c ****                 return 0;
 4273              		.loc 2 1008 17 is_stmt 1
1008:C:/Users/stapi/OneDrive/Desktop/GD32VW553/V1_MQTT_OK/GD32VW55X_Wifi_BLE_SDK/GD32VW55x_RELEASE_V1.0.2/MSDK/cloud/alicloud/src/services/ota\iotx_ota.c ****                 return 0;
 4274              		.loc 2 1008 43 is_stmt 0
 4275 0272 5C4D     		lw	a5,28(a0)
 4276 0274 75B5     		j	.L427
 4277              	.L371:
1010:C:/Users/stapi/OneDrive/Desktop/GD32VW553/V1_MQTT_OK/GD32VW55X_Wifi_BLE_SDK/GD32VW55x_RELEASE_V1.0.2/MSDK/cloud/alicloud/src/services/ota\iotx_ota.c **** 
 4278              		.loc 2 1010 14 is_stmt 1
1013:C:/Users/stapi/OneDrive/Desktop/GD32VW553/V1_MQTT_OK/GD32VW55X_Wifi_BLE_SDK/GD32VW55x_RELEASE_V1.0.2/MSDK/cloud/alicloud/src/services/ota\iotx_ota.c ****             ((char *)buf)[buf_len - 1] = '\0';
 4279              		.loc 2 1013 13
 4280 0276 4C51     		lw	a1,36(a0)
 4281 0278 3686     		mv	a2,a3
 4282              	.LVL509:
 4283              	.L425:
1019:C:/Users/stapi/OneDrive/Desktop/GD32VW553/V1_MQTT_OK/GD32VW55X_Wifi_BLE_SDK/GD32VW55x_RELEASE_V1.0.2/MSDK/cloud/alicloud/src/services/ota\iotx_ota.c ****             ((char *)buf)[buf_len - 1] = '\0';
 4284              		.loc 2 1019 13 is_stmt 0
 4285 027a 2685     		mv	a0,s1
1020:C:/Users/stapi/OneDrive/Desktop/GD32VW553/V1_MQTT_OK/GD32VW55X_Wifi_BLE_SDK/GD32VW55x_RELEASE_V1.0.2/MSDK/cloud/alicloud/src/services/ota\iotx_ota.c ****             break;
 4286              		.loc 2 1020 40
 4287 027c CA94     		add	s1,s1,s2
 4288              	.LVL510:
1019:C:/Users/stapi/OneDrive/Desktop/GD32VW553/V1_MQTT_OK/GD32VW55X_Wifi_BLE_SDK/GD32VW55x_RELEASE_V1.0.2/MSDK/cloud/alicloud/src/services/ota\iotx_ota.c ****             ((char *)buf)[buf_len - 1] = '\0';
 4289              		.loc 2 1019 13
 4290 027e 97000000 		call	strncpy
 4290      E7800000 
 4291              	.LVL511:
1020:C:/Users/stapi/OneDrive/Desktop/GD32VW553/V1_MQTT_OK/GD32VW55X_Wifi_BLE_SDK/GD32VW55x_RELEASE_V1.0.2/MSDK/cloud/alicloud/src/services/ota\iotx_ota.c ****             break;
 4292              		.loc 2 1020 13 is_stmt 1
1020:C:/Users/stapi/OneDrive/Desktop/GD32VW553/V1_MQTT_OK/GD32VW55X_Wifi_BLE_SDK/GD32VW55x_RELEASE_V1.0.2/MSDK/cloud/alicloud/src/services/ota\iotx_ota.c ****             break;
 4293              		.loc 2 1020 40 is_stmt 0
 4294 0286 A38F04FE 		sb	zero,-1(s1)
1021:C:/Users/stapi/OneDrive/Desktop/GD32VW553/V1_MQTT_OK/GD32VW55X_Wifi_BLE_SDK/GD32VW55x_RELEASE_V1.0.2/MSDK/cloud/alicloud/src/services/ota\iotx_ota.c **** 
 4295              		.loc 2 1021 13 is_stmt 1
 4296 028a 51B5     		j	.L389
 4297              	.LVL512:
 4298              	.L372:
1019:C:/Users/stapi/OneDrive/Desktop/GD32VW553/V1_MQTT_OK/GD32VW55X_Wifi_BLE_SDK/GD32VW55x_RELEASE_V1.0.2/MSDK/cloud/alicloud/src/services/ota\iotx_ota.c ****             ((char *)buf)[buf_len - 1] = '\0';
 4299              		.loc 2 1019 13
 4300 028c 3686     		mv	a2,a3
 4301 028e 93058502 		addi	a1,a0,40
 4302 0292 E5B7     		j	.L425
 4303              	.L370:
1024:C:/Users/stapi/OneDrive/Desktop/GD32VW553/V1_MQTT_OK/GD32VW55X_Wifi_BLE_SDK/GD32VW55x_RELEASE_V1.0.2/MSDK/cloud/alicloud/src/services/ota\iotx_ota.c ****                 OTA_LOG_ERROR("Invalid parameter");
 4304              		.loc 2 1024 13
1024:C:/Users/stapi/OneDrive/Desktop/GD32VW553/V1_MQTT_OK/GD32VW55X_Wifi_BLE_SDK/GD32VW55x_RELEASE_V1.0.2/MSDK/cloud/alicloud/src/services/ota\iotx_ota.c ****                 OTA_LOG_ERROR("Invalid parameter");
 4305              		.loc 2 1024 16 is_stmt 0
 4306 0294 1147     		li	a4,4
 4307 0296 E396E6DE 		bne	a3,a4,.L382
1024:C:/Users/stapi/OneDrive/Desktop/GD32VW553/V1_MQTT_OK/GD32VW55X_Wifi_BLE_SDK/GD32VW55x_RELEASE_V1.0.2/MSDK/cloud/alicloud/src/services/ota\iotx_ota.c ****                 OTA_LOG_ERROR("Invalid parameter");
 4308              		.loc 2 1024 61 discriminator 1
 4309 029a 13773600 		andi	a4,a2,3
1024:C:/Users/stapi/OneDrive/Desktop/GD32VW553/V1_MQTT_OK/GD32VW55X_Wifi_BLE_SDK/GD32VW55x_RELEASE_V1.0.2/MSDK/cloud/alicloud/src/services/ota\iotx_ota.c ****                 OTA_LOG_ERROR("Invalid parameter");
 4310              		.loc 2 1024 32 discriminator 1
 4311 029e E31207DE 		bne	a4,zero,.L382
1028:C:/Users/stapi/OneDrive/Desktop/GD32VW553/V1_MQTT_OK/GD32VW55X_Wifi_BLE_SDK/GD32VW55x_RELEASE_V1.0.2/MSDK/cloud/alicloud/src/services/ota\iotx_ota.c ****                 h_ota->err = IOT_OTAE_INVALID_STATE;
 4312              		.loc 2 1028 20 is_stmt 1
1028:C:/Users/stapi/OneDrive/Desktop/GD32VW553/V1_MQTT_OK/GD32VW55X_Wifi_BLE_SDK/GD32VW55x_RELEASE_V1.0.2/MSDK/cloud/alicloud/src/services/ota\iotx_ota.c ****                 h_ota->err = IOT_OTAE_INVALID_STATE;
 4313              		.loc 2 1028 23 is_stmt 0
 4314 02a2 0D47     		li	a4,3
 4315 02a4 638EE702 		beq	a5,a4,.L386
1029:C:/Users/stapi/OneDrive/Desktop/GD32VW553/V1_MQTT_OK/GD32VW55X_Wifi_BLE_SDK/GD32VW55x_RELEASE_V1.0.2/MSDK/cloud/alicloud/src/services/ota\iotx_ota.c ****                 OTA_LOG_ERROR("Firmware can be checked in IOT_OTAS_FETCHED state only");
 4316              		.loc 2 1029 17 is_stmt 1
1029:C:/Users/stapi/OneDrive/Desktop/GD32VW553/V1_MQTT_OK/GD32VW55X_Wifi_BLE_SDK/GD32VW55x_RELEASE_V1.0.2/MSDK/cloud/alicloud/src/services/ota\iotx_ota.c ****                 OTA_LOG_ERROR("Firmware can be checked in IOT_OTAS_FETCHED state only");
 4317              		.loc 2 1029 28 is_stmt 0
 4318 02a8 F557     		li	a5,-3
 4319 02aa 7CD9     		sw	a5,116(a0)
1030:C:/Users/stapi/OneDrive/Desktop/GD32VW553/V1_MQTT_OK/GD32VW55X_Wifi_BLE_SDK/GD32VW55x_RELEASE_V1.0.2/MSDK/cloud/alicloud/src/services/ota\iotx_ota.c ****                 return -1;
 4320              		.loc 2 1030 17 is_stmt 1
1030:C:/Users/stapi/OneDrive/Desktop/GD32VW553/V1_MQTT_OK/GD32VW55X_Wifi_BLE_SDK/GD32VW55x_RELEASE_V1.0.2/MSDK/cloud/alicloud/src/services/ota\iotx_ota.c ****                 return -1;
 4321              		.loc 2 1030 17
 4322 02ac 37050000 		lui	a0,%hi(.LC21)
 4323 02b0 13050500 		addi	a0,a0,%lo(.LC21)
 4324 02b4 97000000 		call	HAL_Printf
 4324      E7800000 
 4325              	.LVL513:
1030:C:/Users/stapi/OneDrive/Desktop/GD32VW553/V1_MQTT_OK/GD32VW55X_Wifi_BLE_SDK/GD32VW55x_RELEASE_V1.0.2/MSDK/cloud/alicloud/src/services/ota\iotx_ota.c ****                 return -1;
 4326              		.loc 2 1030 17
 4327 02bc 37050000 		lui	a0,%hi(.LC79)
 4328 02c0 13050500 		addi	a0,a0,%lo(.LC79)
 4329              	.L424:
1063:C:/Users/stapi/OneDrive/Desktop/GD32VW553/V1_MQTT_OK/GD32VW55X_Wifi_BLE_SDK/GD32VW55x_RELEASE_V1.0.2/MSDK/cloud/alicloud/src/services/ota\iotx_ota.c ****                 return -1;
 4330              		.loc 2 1063 17 is_stmt 0
 4331 02c4 97000000 		call	HAL_Printf
 4331      E7800000 
 4332              	.LVL514:
1063:C:/Users/stapi/OneDrive/Desktop/GD32VW553/V1_MQTT_OK/GD32VW55X_Wifi_BLE_SDK/GD32VW55x_RELEASE_V1.0.2/MSDK/cloud/alicloud/src/services/ota\iotx_ota.c ****                 return -1;
 4333              		.loc 2 1063 17 is_stmt 1
 4334 02cc 37050000 		lui	a0,%hi(.LC11)
 4335 02d0 13050500 		addi	a0,a0,%lo(.LC11)
 4336 02d4 97000000 		call	HAL_Printf
 4336      E7800000 
 4337              	.LVL515:
1063:C:/Users/stapi/OneDrive/Desktop/GD32VW553/V1_MQTT_OK/GD32VW55X_Wifi_BLE_SDK/GD32VW55x_RELEASE_V1.0.2/MSDK/cloud/alicloud/src/services/ota\iotx_ota.c ****                 return -1;
 4338              		.loc 2 1063 17
1064:C:/Users/stapi/OneDrive/Desktop/GD32VW553/V1_MQTT_OK/GD32VW55X_Wifi_BLE_SDK/GD32VW55x_RELEASE_V1.0.2/MSDK/cloud/alicloud/src/services/ota\iotx_ota.c ****             } else {
 4339              		.loc 2 1064 17
 4340              	.L423:
1095:C:/Users/stapi/OneDrive/Desktop/GD32VW553/V1_MQTT_OK/GD32VW55X_Wifi_BLE_SDK/GD32VW55x_RELEASE_V1.0.2/MSDK/cloud/alicloud/src/services/ota\iotx_ota.c ****     }
 4341              		.loc 2 1095 13
1095:C:/Users/stapi/OneDrive/Desktop/GD32VW553/V1_MQTT_OK/GD32VW55X_Wifi_BLE_SDK/GD32VW55x_RELEASE_V1.0.2/MSDK/cloud/alicloud/src/services/ota\iotx_ota.c ****     }
 4342              		.loc 2 1095 20 is_stmt 0
 4343 02dc 7D59     		li	s2,-1
 4344 02de A5B3     		j	.L361
 4345              	.LVL516:
 4346              	.L386:
 4347              	.LBB27:
1033:C:/Users/stapi/OneDrive/Desktop/GD32VW553/V1_MQTT_OK/GD32VW55X_Wifi_BLE_SDK/GD32VW55x_RELEASE_V1.0.2/MSDK/cloud/alicloud/src/services/ota\iotx_ota.c ****                 char md5_str[33];
 4348              		.loc 2 1033 17 is_stmt 1
1034:C:/Users/stapi/OneDrive/Desktop/GD32VW553/V1_MQTT_OK/GD32VW55X_Wifi_BLE_SDK/GD32VW55x_RELEASE_V1.0.2/MSDK/cloud/alicloud/src/services/ota\iotx_ota.c ****                 otalib_MD5Finalize(h_ota->md5, md5_str);
 4349              		.loc 2 1034 17
1035:C:/Users/stapi/OneDrive/Desktop/GD32VW553/V1_MQTT_OK/GD32VW55X_Wifi_BLE_SDK/GD32VW55x_RELEASE_V1.0.2/MSDK/cloud/alicloud/src/services/ota\iotx_ota.c ****                 OTA_LOG_DEBUG("origin=%s, now=%s", h_ota->md5sum, md5_str);
 4350              		.loc 2 1035 17
 4351 02e0 6845     		lw	a0,76(a0)
 4352 02e2 6C08     		addi	a1,sp,28
1036:C:/Users/stapi/OneDrive/Desktop/GD32VW553/V1_MQTT_OK/GD32VW55X_Wifi_BLE_SDK/GD32VW55x_RELEASE_V1.0.2/MSDK/cloud/alicloud/src/services/ota\iotx_ota.c ****                 if (0 == strcmp(h_ota->md5sum, md5_str)) {
 4353              		.loc 2 1036 17 is_stmt 0
 4354 02e4 13048402 		addi	s0,s0,40
 4355              	.LVL517:
1035:C:/Users/stapi/OneDrive/Desktop/GD32VW553/V1_MQTT_OK/GD32VW55X_Wifi_BLE_SDK/GD32VW55x_RELEASE_V1.0.2/MSDK/cloud/alicloud/src/services/ota\iotx_ota.c ****                 OTA_LOG_DEBUG("origin=%s, now=%s", h_ota->md5sum, md5_str);
 4356              		.loc 2 1035 17
 4357 02e8 97000000 		call	otalib_MD5Finalize
 4357      E7800000 
 4358              	.LVL518:
1036:C:/Users/stapi/OneDrive/Desktop/GD32VW553/V1_MQTT_OK/GD32VW55X_Wifi_BLE_SDK/GD32VW55x_RELEASE_V1.0.2/MSDK/cloud/alicloud/src/services/ota\iotx_ota.c ****                 if (0 == strcmp(h_ota->md5sum, md5_str)) {
 4359              		.loc 2 1036 17 is_stmt 1
 4360 02f0 37070000 		lui	a4,%hi(.LC80)
 4361 02f4 B7050000 		lui	a1,%hi(.LANCHOR4)
 4362 02f8 37050000 		lui	a0,%hi(.LC1)
 4363 02fc 1308C101 		addi	a6,sp,28
 4364 0300 A287     		mv	a5,s0
 4365 0302 13070700 		addi	a4,a4,%lo(.LC80)
 4366 0306 9546     		li	a3,5
 4367 0308 1306C040 		li	a2,1036
 4368 030c 93850500 		addi	a1,a1,%lo(.LANCHOR4)
 4369 0310 13050500 		addi	a0,a0,%lo(.LC1)
 4370 0314 97000000 		call	LITE_syslog
 4370      E7800000 
 4371              	.LVL519:
1037:C:/Users/stapi/OneDrive/Desktop/GD32VW553/V1_MQTT_OK/GD32VW55X_Wifi_BLE_SDK/GD32VW55x_RELEASE_V1.0.2/MSDK/cloud/alicloud/src/services/ota\iotx_ota.c ****                     *((uint32_t *)buf) = 1;
 4372              		.loc 2 1037 17
1037:C:/Users/stapi/OneDrive/Desktop/GD32VW553/V1_MQTT_OK/GD32VW55X_Wifi_BLE_SDK/GD32VW55x_RELEASE_V1.0.2/MSDK/cloud/alicloud/src/services/ota\iotx_ota.c ****                     *((uint32_t *)buf) = 1;
 4373              		.loc 2 1037 26 is_stmt 0
 4374 031c 6C08     		addi	a1,sp,28
 4375 031e 2285     		mv	a0,s0
 4376 0320 97000000 		call	strcmp
 4376      E7800000 
 4377              	.LVL520:
1037:C:/Users/stapi/OneDrive/Desktop/GD32VW553/V1_MQTT_OK/GD32VW55X_Wifi_BLE_SDK/GD32VW55x_RELEASE_V1.0.2/MSDK/cloud/alicloud/src/services/ota\iotx_ota.c ****                     *((uint32_t *)buf) = 1;
 4378              		.loc 2 1037 20
 4379 0328 13351500 		seqz	a0,a0
 4380 032c 88C0     		sw	a0,0(s1)
1054:C:/Users/stapi/OneDrive/Desktop/GD32VW553/V1_MQTT_OK/GD32VW55X_Wifi_BLE_SDK/GD32VW55x_RELEASE_V1.0.2/MSDK/cloud/alicloud/src/services/ota\iotx_ota.c ****             }
 4381              		.loc 2 1054 17 is_stmt 1
 4382 032e C5B3     		j	.L389
 4383              	.LVL521:
 4384              	.L369:
 4385              	.LBE27:
1057:C:/Users/stapi/OneDrive/Desktop/GD32VW553/V1_MQTT_OK/GD32VW55X_Wifi_BLE_SDK/GD32VW55x_RELEASE_V1.0.2/MSDK/cloud/alicloud/src/services/ota\iotx_ota.c ****                 OTA_LOG_ERROR("Invalid parameter");
 4386              		.loc 2 1057 13
1057:C:/Users/stapi/OneDrive/Desktop/GD32VW553/V1_MQTT_OK/GD32VW55X_Wifi_BLE_SDK/GD32VW55x_RELEASE_V1.0.2/MSDK/cloud/alicloud/src/services/ota\iotx_ota.c ****                 OTA_LOG_ERROR("Invalid parameter");
 4387              		.loc 2 1057 16 is_stmt 0
 4388 0330 1147     		li	a4,4
 4389 0332 E398E6D4 		bne	a3,a4,.L382
1057:C:/Users/stapi/OneDrive/Desktop/GD32VW553/V1_MQTT_OK/GD32VW55X_Wifi_BLE_SDK/GD32VW55x_RELEASE_V1.0.2/MSDK/cloud/alicloud/src/services/ota\iotx_ota.c ****                 OTA_LOG_ERROR("Invalid parameter");
 4390              		.loc 2 1057 61 discriminator 1
 4391 0336 13773600 		andi	a4,a2,3
1057:C:/Users/stapi/OneDrive/Desktop/GD32VW553/V1_MQTT_OK/GD32VW55X_Wifi_BLE_SDK/GD32VW55x_RELEASE_V1.0.2/MSDK/cloud/alicloud/src/services/ota\iotx_ota.c ****                 OTA_LOG_ERROR("Invalid parameter");
 4392              		.loc 2 1057 32 discriminator 1
 4393 033a E31407D4 		bne	a4,zero,.L382
1061:C:/Users/stapi/OneDrive/Desktop/GD32VW553/V1_MQTT_OK/GD32VW55X_Wifi_BLE_SDK/GD32VW55x_RELEASE_V1.0.2/MSDK/cloud/alicloud/src/services/ota\iotx_ota.c ****                 h_ota->err = IOT_OTAE_INVALID_STATE;
 4394              		.loc 2 1061 20 is_stmt 1
1061:C:/Users/stapi/OneDrive/Desktop/GD32VW553/V1_MQTT_OK/GD32VW55X_Wifi_BLE_SDK/GD32VW55x_RELEASE_V1.0.2/MSDK/cloud/alicloud/src/services/ota\iotx_ota.c ****                 h_ota->err = IOT_OTAE_INVALID_STATE;
 4395              		.loc 2 1061 23 is_stmt 0
 4396 033e 0D47     		li	a4,3
 4397 0340 6381E702 		beq	a5,a4,.L387
1062:C:/Users/stapi/OneDrive/Desktop/GD32VW553/V1_MQTT_OK/GD32VW55X_Wifi_BLE_SDK/GD32VW55x_RELEASE_V1.0.2/MSDK/cloud/alicloud/src/services/ota\iotx_ota.c ****                 OTA_LOG_ERROR("Config can be checked in IOT_OTAS_FETCHED state only");
 4398              		.loc 2 1062 17 is_stmt 1
1062:C:/Users/stapi/OneDrive/Desktop/GD32VW553/V1_MQTT_OK/GD32VW55X_Wifi_BLE_SDK/GD32VW55x_RELEASE_V1.0.2/MSDK/cloud/alicloud/src/services/ota\iotx_ota.c ****                 OTA_LOG_ERROR("Config can be checked in IOT_OTAS_FETCHED state only");
 4399              		.loc 2 1062 28 is_stmt 0
 4400 0344 F557     		li	a5,-3
 4401 0346 7CD9     		sw	a5,116(a0)
1063:C:/Users/stapi/OneDrive/Desktop/GD32VW553/V1_MQTT_OK/GD32VW55X_Wifi_BLE_SDK/GD32VW55x_RELEASE_V1.0.2/MSDK/cloud/alicloud/src/services/ota\iotx_ota.c ****                 return -1;
 4402              		.loc 2 1063 17 is_stmt 1
1063:C:/Users/stapi/OneDrive/Desktop/GD32VW553/V1_MQTT_OK/GD32VW55X_Wifi_BLE_SDK/GD32VW55x_RELEASE_V1.0.2/MSDK/cloud/alicloud/src/services/ota\iotx_ota.c ****                 return -1;
 4403              		.loc 2 1063 17
 4404 0348 37050000 		lui	a0,%hi(.LC21)
 4405 034c 13050500 		addi	a0,a0,%lo(.LC21)
 4406 0350 97000000 		call	HAL_Printf
 4406      E7800000 
 4407              	.LVL522:
1063:C:/Users/stapi/OneDrive/Desktop/GD32VW553/V1_MQTT_OK/GD32VW55X_Wifi_BLE_SDK/GD32VW55x_RELEASE_V1.0.2/MSDK/cloud/alicloud/src/services/ota\iotx_ota.c ****                 return -1;
 4408              		.loc 2 1063 17
 4409 0358 37050000 		lui	a0,%hi(.LC81)
 4410 035c 13050500 		addi	a0,a0,%lo(.LC81)
 4411 0360 95B7     		j	.L424
 4412              	.LVL523:
 4413              	.L387:
1066:C:/Users/stapi/OneDrive/Desktop/GD32VW553/V1_MQTT_OK/GD32VW55X_Wifi_BLE_SDK/GD32VW55x_RELEASE_V1.0.2/MSDK/cloud/alicloud/src/services/ota\iotx_ota.c ****                     char md5_str[33];
 4414              		.loc 2 1066 17
1066:C:/Users/stapi/OneDrive/Desktop/GD32VW553/V1_MQTT_OK/GD32VW55X_Wifi_BLE_SDK/GD32VW55x_RELEASE_V1.0.2/MSDK/cloud/alicloud/src/services/ota\iotx_ota.c ****                     char md5_str[33];
 4415              		.loc 2 1066 39 is_stmt 0
 4416 0362 03298506 		lw	s2,104(a0)
1066:C:/Users/stapi/OneDrive/Desktop/GD32VW553/V1_MQTT_OK/GD32VW55X_Wifi_BLE_SDK/GD32VW55x_RELEASE_V1.0.2/MSDK/cloud/alicloud/src/services/ota\iotx_ota.c ****                     char md5_str[33];
 4417              		.loc 2 1066 26
 4418 0366 4A85     		mv	a0,s2
 4419 0368 97000000 		call	strlen
 4419      E7800000 
 4420              	.LVL524:
 4421 0370 B7050000 		lui	a1,%hi(.LC82)
 4422 0374 2A86     		mv	a2,a0
 4423 0376 93850500 		addi	a1,a1,%lo(.LC82)
 4424 037a 4A85     		mv	a0,s2
 4425 037c 97000000 		call	strncmp
 4425      E7800000 
 4426              	.LVL525:
1066:C:/Users/stapi/OneDrive/Desktop/GD32VW553/V1_MQTT_OK/GD32VW55X_Wifi_BLE_SDK/GD32VW55x_RELEASE_V1.0.2/MSDK/cloud/alicloud/src/services/ota\iotx_ota.c ****                     char md5_str[33];
 4427              		.loc 2 1066 20
 4428 0384 31E5     		bne	a0,zero,.L388
 4429              	.LBB28:
1067:C:/Users/stapi/OneDrive/Desktop/GD32VW553/V1_MQTT_OK/GD32VW55X_Wifi_BLE_SDK/GD32VW55x_RELEASE_V1.0.2/MSDK/cloud/alicloud/src/services/ota\iotx_ota.c ****                     otalib_MD5Finalize(h_ota->md5, md5_str);
 4430              		.loc 2 1067 21 is_stmt 1
1068:C:/Users/stapi/OneDrive/Desktop/GD32VW553/V1_MQTT_OK/GD32VW55X_Wifi_BLE_SDK/GD32VW55x_RELEASE_V1.0.2/MSDK/cloud/alicloud/src/services/ota\iotx_ota.c ****                     OTA_LOG_DEBUG("origin=%s, now=%s", h_ota->sign, md5_str);
 4431              		.loc 2 1068 21
 4432 0386 6844     		lw	a0,76(s0)
 4433 0388 6C08     		addi	a1,sp,28
 4434 038a 97000000 		call	otalib_MD5Finalize
 4434      E7800000 
 4435              	.LVL526:
1069:C:/Users/stapi/OneDrive/Desktop/GD32VW553/V1_MQTT_OK/GD32VW55X_Wifi_BLE_SDK/GD32VW55x_RELEASE_V1.0.2/MSDK/cloud/alicloud/src/services/ota\iotx_ota.c ****                     if (0 == strcmp(h_ota->sign, md5_str)) {
 4436              		.loc 2 1069 21
 4437 0392 7C50     		lw	a5,100(s0)
 4438 0394 37070000 		lui	a4,%hi(.LC80)
 4439 0398 B7050000 		lui	a1,%hi(.LANCHOR4)
 4440 039c 37050000 		lui	a0,%hi(.LC1)
 4441 03a0 1308C101 		addi	a6,sp,28
 4442 03a4 13070700 		addi	a4,a4,%lo(.LC80)
 4443 03a8 9546     		li	a3,5
 4444 03aa 1306D042 		li	a2,1069
 4445 03ae 93850500 		addi	a1,a1,%lo(.LANCHOR4)
 4446 03b2 13050500 		addi	a0,a0,%lo(.LC1)
 4447 03b6 97000000 		call	LITE_syslog
 4447      E7800000 
 4448              	.LVL527:
1070:C:/Users/stapi/OneDrive/Desktop/GD32VW553/V1_MQTT_OK/GD32VW55X_Wifi_BLE_SDK/GD32VW55x_RELEASE_V1.0.2/MSDK/cloud/alicloud/src/services/ota\iotx_ota.c ****                         *((uint32_t *)buf) = 1;
 4449              		.loc 2 1070 21
1070:C:/Users/stapi/OneDrive/Desktop/GD32VW553/V1_MQTT_OK/GD32VW55X_Wifi_BLE_SDK/GD32VW55x_RELEASE_V1.0.2/MSDK/cloud/alicloud/src/services/ota\iotx_ota.c ****                         *((uint32_t *)buf) = 1;
 4450              		.loc 2 1070 30 is_stmt 0
 4451 03be 6850     		lw	a0,100(s0)
 4452 03c0 6C08     		addi	a1,sp,28
 4453 03c2 97000000 		call	strcmp
 4453      E7800000 
 4454              	.LVL528:
1070:C:/Users/stapi/OneDrive/Desktop/GD32VW553/V1_MQTT_OK/GD32VW55X_Wifi_BLE_SDK/GD32VW55x_RELEASE_V1.0.2/MSDK/cloud/alicloud/src/services/ota\iotx_ota.c ****                         *((uint32_t *)buf) = 1;
 4455              		.loc 2 1070 24
 4456 03ca 13351500 		seqz	a0,a0
 4457 03ce 88C0     		sw	a0,0(s1)
 4458              	.L388:
 4459              	.LBE28:
1076:C:/Users/stapi/OneDrive/Desktop/GD32VW553/V1_MQTT_OK/GD32VW55X_Wifi_BLE_SDK/GD32VW55x_RELEASE_V1.0.2/MSDK/cloud/alicloud/src/services/ota\iotx_ota.c ****                     char sha256_str[65];
 4460              		.loc 2 1076 17 is_stmt 1
1076:C:/Users/stapi/OneDrive/Desktop/GD32VW553/V1_MQTT_OK/GD32VW55X_Wifi_BLE_SDK/GD32VW55x_RELEASE_V1.0.2/MSDK/cloud/alicloud/src/services/ota\iotx_ota.c ****                     char sha256_str[65];
 4461              		.loc 2 1076 39 is_stmt 0
 4462 03d0 03298406 		lw	s2,104(s0)
1076:C:/Users/stapi/OneDrive/Desktop/GD32VW553/V1_MQTT_OK/GD32VW55X_Wifi_BLE_SDK/GD32VW55x_RELEASE_V1.0.2/MSDK/cloud/alicloud/src/services/ota\iotx_ota.c ****                     char sha256_str[65];
 4463              		.loc 2 1076 26
 4464 03d4 4A85     		mv	a0,s2
 4465 03d6 97000000 		call	strlen
 4465      E7800000 
 4466              	.LVL529:
 4467 03de B7050000 		lui	a1,%hi(.LC83)
 4468 03e2 2A86     		mv	a2,a0
 4469 03e4 93850500 		addi	a1,a1,%lo(.LC83)
 4470 03e8 4A85     		mv	a0,s2
 4471 03ea 97000000 		call	strncmp
 4471      E7800000 
 4472              	.LVL530:
 4473 03f2 2A89     		mv	s2,a0
1076:C:/Users/stapi/OneDrive/Desktop/GD32VW553/V1_MQTT_OK/GD32VW55X_Wifi_BLE_SDK/GD32VW55x_RELEASE_V1.0.2/MSDK/cloud/alicloud/src/services/ota\iotx_ota.c ****                     char sha256_str[65];
 4474              		.loc 2 1076 20
 4475 03f4 E31D05D0 		bne	a0,zero,.L389
 4476              	.LBB29:
1077:C:/Users/stapi/OneDrive/Desktop/GD32VW553/V1_MQTT_OK/GD32VW55X_Wifi_BLE_SDK/GD32VW55x_RELEASE_V1.0.2/MSDK/cloud/alicloud/src/services/ota\iotx_ota.c ****                     otalib_Sha256Finalize(h_ota->sha256, sha256_str);
 4477              		.loc 2 1077 21 is_stmt 1
1078:C:/Users/stapi/OneDrive/Desktop/GD32VW553/V1_MQTT_OK/GD32VW55X_Wifi_BLE_SDK/GD32VW55x_RELEASE_V1.0.2/MSDK/cloud/alicloud/src/services/ota\iotx_ota.c ****                     OTA_LOG_DEBUG("origin=%s, now=%s", h_ota->sign, sha256_str);
 4478              		.loc 2 1078 21
 4479 03f8 2848     		lw	a0,80(s0)
 4480 03fa 6C08     		addi	a1,sp,28
 4481 03fc 97000000 		call	otalib_Sha256Finalize
 4481      E7800000 
 4482              	.LVL531:
1079:C:/Users/stapi/OneDrive/Desktop/GD32VW553/V1_MQTT_OK/GD32VW55X_Wifi_BLE_SDK/GD32VW55x_RELEASE_V1.0.2/MSDK/cloud/alicloud/src/services/ota\iotx_ota.c ****                     if (0 == strcmp(h_ota->sign, sha256_str)) {
 4483              		.loc 2 1079 21
 4484 0404 7C50     		lw	a5,100(s0)
 4485 0406 37070000 		lui	a4,%hi(.LC80)
 4486 040a B7050000 		lui	a1,%hi(.LANCHOR4)
 4487 040e 37050000 		lui	a0,%hi(.LC1)
 4488 0412 1308C101 		addi	a6,sp,28
 4489 0416 13070700 		addi	a4,a4,%lo(.LC80)
 4490 041a 9546     		li	a3,5
 4491 041c 13067043 		li	a2,1079
 4492 0420 93850500 		addi	a1,a1,%lo(.LANCHOR4)
 4493 0424 13050500 		addi	a0,a0,%lo(.LC1)
 4494 0428 97000000 		call	LITE_syslog
 4494      E7800000 
 4495              	.LVL532:
1080:C:/Users/stapi/OneDrive/Desktop/GD32VW553/V1_MQTT_OK/GD32VW55X_Wifi_BLE_SDK/GD32VW55x_RELEASE_V1.0.2/MSDK/cloud/alicloud/src/services/ota\iotx_ota.c ****                         *((uint32_t *)buf) = 1;
 4496              		.loc 2 1080 21
1080:C:/Users/stapi/OneDrive/Desktop/GD32VW553/V1_MQTT_OK/GD32VW55X_Wifi_BLE_SDK/GD32VW55x_RELEASE_V1.0.2/MSDK/cloud/alicloud/src/services/ota\iotx_ota.c ****                         *((uint32_t *)buf) = 1;
 4497              		.loc 2 1080 30 is_stmt 0
 4498 0430 6850     		lw	a0,100(s0)
 4499 0432 6C08     		addi	a1,sp,28
 4500 0434 97000000 		call	strcmp
 4500      E7800000 
 4501              	.LVL533:
1080:C:/Users/stapi/OneDrive/Desktop/GD32VW553/V1_MQTT_OK/GD32VW55X_Wifi_BLE_SDK/GD32VW55x_RELEASE_V1.0.2/MSDK/cloud/alicloud/src/services/ota\iotx_ota.c ****                         *((uint32_t *)buf) = 1;
 4502              		.loc 2 1080 24
 4503 043c 13351500 		seqz	a0,a0
 4504 0440 88C0     		sw	a0,0(s1)
 4505 0442 11B1     		j	.L361
 4506              	.LVL534:
 4507              	.L367:
 4508              	.LBE29:
1089:C:/Users/stapi/OneDrive/Desktop/GD32VW553/V1_MQTT_OK/GD32VW55X_Wifi_BLE_SDK/GD32VW55x_RELEASE_V1.0.2/MSDK/cloud/alicloud/src/services/ota\iotx_ota.c ****             return 0;
 4509              		.loc 2 1089 13 is_stmt 1
1089:C:/Users/stapi/OneDrive/Desktop/GD32VW553/V1_MQTT_OK/GD32VW55X_Wifi_BLE_SDK/GD32VW55x_RELEASE_V1.0.2/MSDK/cloud/alicloud/src/services/ota\iotx_ota.c ****             return 0;
 4510              		.loc 2 1089 33 is_stmt 0
 4511 0444 232C0500 		sw	zero,24(a0)
1090:C:/Users/stapi/OneDrive/Desktop/GD32VW553/V1_MQTT_OK/GD32VW55X_Wifi_BLE_SDK/GD32VW55x_RELEASE_V1.0.2/MSDK/cloud/alicloud/src/services/ota\iotx_ota.c ****         }
 4512              		.loc 2 1090 13 is_stmt 1
 4513 0448 D9B1     		j	.L389
 4514              	.LVL535:
 4515              	.L366:
1093:C:/Users/stapi/OneDrive/Desktop/GD32VW553/V1_MQTT_OK/GD32VW55X_Wifi_BLE_SDK/GD32VW55x_RELEASE_V1.0.2/MSDK/cloud/alicloud/src/services/ota\iotx_ota.c ****             h_ota->err = IOT_OTAE_INVALID_PARAM;
 4516              		.loc 2 1093 13
1093:C:/Users/stapi/OneDrive/Desktop/GD32VW553/V1_MQTT_OK/GD32VW55X_Wifi_BLE_SDK/GD32VW55x_RELEASE_V1.0.2/MSDK/cloud/alicloud/src/services/ota\iotx_ota.c ****             h_ota->err = IOT_OTAE_INVALID_PARAM;
 4517              		.loc 2 1093 13
 4518 044a 37050000 		lui	a0,%hi(.LC21)
 4519 044e 13050500 		addi	a0,a0,%lo(.LC21)
 4520 0452 97000000 		call	HAL_Printf
 4520      E7800000 
 4521              	.LVL536:
1093:C:/Users/stapi/OneDrive/Desktop/GD32VW553/V1_MQTT_OK/GD32VW55X_Wifi_BLE_SDK/GD32VW55x_RELEASE_V1.0.2/MSDK/cloud/alicloud/src/services/ota\iotx_ota.c ****             h_ota->err = IOT_OTAE_INVALID_PARAM;
 4522              		.loc 2 1093 13
 4523 045a 37050000 		lui	a0,%hi(.LC84)
 4524 045e 13050500 		addi	a0,a0,%lo(.LC84)
 4525 0462 25B9     		j	.L421
 4526              		.cfi_endproc
 4527              	.LFE44:
 4529              		.section	.text.IOT_OTA_GetLastError,"ax",@progbits
 4530              		.align	1
 4531              		.globl	IOT_OTA_GetLastError
 4533              	IOT_OTA_GetLastError:
 4534              	.LFB45:
1100:C:/Users/stapi/OneDrive/Desktop/GD32VW553/V1_MQTT_OK/GD32VW55X_Wifi_BLE_SDK/GD32VW55x_RELEASE_V1.0.2/MSDK/cloud/alicloud/src/services/ota\iotx_ota.c **** 
1101:C:/Users/stapi/OneDrive/Desktop/GD32VW553/V1_MQTT_OK/GD32VW55X_Wifi_BLE_SDK/GD32VW55x_RELEASE_V1.0.2/MSDK/cloud/alicloud/src/services/ota\iotx_ota.c **** 
1102:C:/Users/stapi/OneDrive/Desktop/GD32VW553/V1_MQTT_OK/GD32VW55X_Wifi_BLE_SDK/GD32VW55x_RELEASE_V1.0.2/MSDK/cloud/alicloud/src/services/ota\iotx_ota.c **** /* Get last error code */
1103:C:/Users/stapi/OneDrive/Desktop/GD32VW553/V1_MQTT_OK/GD32VW55X_Wifi_BLE_SDK/GD32VW55x_RELEASE_V1.0.2/MSDK/cloud/alicloud/src/services/ota\iotx_ota.c **** int IOT_OTA_GetLastError(void *handle)
1104:C:/Users/stapi/OneDrive/Desktop/GD32VW553/V1_MQTT_OK/GD32VW55X_Wifi_BLE_SDK/GD32VW55x_RELEASE_V1.0.2/MSDK/cloud/alicloud/src/services/ota\iotx_ota.c **** {
 4535              		.loc 2 1104 1
 4536              		.cfi_startproc
 4537              	.LVL537:
1105:C:/Users/stapi/OneDrive/Desktop/GD32VW553/V1_MQTT_OK/GD32VW55X_Wifi_BLE_SDK/GD32VW55x_RELEASE_V1.0.2/MSDK/cloud/alicloud/src/services/ota\iotx_ota.c ****     OTA_Struct_pt h_ota = (OTA_Struct_pt) handle;
 4538              		.loc 2 1105 5
1106:C:/Users/stapi/OneDrive/Desktop/GD32VW553/V1_MQTT_OK/GD32VW55X_Wifi_BLE_SDK/GD32VW55x_RELEASE_V1.0.2/MSDK/cloud/alicloud/src/services/ota\iotx_ota.c **** 
1107:C:/Users/stapi/OneDrive/Desktop/GD32VW553/V1_MQTT_OK/GD32VW55X_Wifi_BLE_SDK/GD32VW55x_RELEASE_V1.0.2/MSDK/cloud/alicloud/src/services/ota\iotx_ota.c ****     if (NULL == handle) {
 4539              		.loc 2 1107 5
 4540              		.loc 2 1107 8 is_stmt 0
 4541 0000 31E1     		bne	a0,zero,.L429
1104:C:/Users/stapi/OneDrive/Desktop/GD32VW553/V1_MQTT_OK/GD32VW55X_Wifi_BLE_SDK/GD32VW55x_RELEASE_V1.0.2/MSDK/cloud/alicloud/src/services/ota\iotx_ota.c ****     OTA_Struct_pt h_ota = (OTA_Struct_pt) handle;
 4542              		.loc 2 1104 1
 4543 0002 17030000 		call	t0,__riscv_save_0
 4543      E7020300 
 4544              		.cfi_offset 1, -4
 4545              		.cfi_def_cfa_offset 16
1108:C:/Users/stapi/OneDrive/Desktop/GD32VW553/V1_MQTT_OK/GD32VW55X_Wifi_BLE_SDK/GD32VW55x_RELEASE_V1.0.2/MSDK/cloud/alicloud/src/services/ota\iotx_ota.c ****         OTA_LOG_ERROR("handle is NULL");
 4546              		.loc 2 1108 9 is_stmt 1
 4547              		.loc 2 1108 9
 4548 000a 37050000 		lui	a0,%hi(.LC21)
 4549              	.LVL538:
 4550 000e 13050500 		addi	a0,a0,%lo(.LC21)
 4551 0012 97000000 		call	HAL_Printf
 4551      E7800000 
 4552              	.LVL539:
 4553              		.loc 2 1108 9
 4554 001a 37050000 		lui	a0,%hi(.LC57)
 4555 001e 13050500 		addi	a0,a0,%lo(.LC57)
 4556 0022 97000000 		call	HAL_Printf
 4556      E7800000 
 4557              	.LVL540:
 4558              		.loc 2 1108 9
 4559 002a 37050000 		lui	a0,%hi(.LC11)
 4560 002e 13050500 		addi	a0,a0,%lo(.LC11)
 4561 0032 97000000 		call	HAL_Printf
 4561      E7800000 
 4562              	.LVL541:
 4563              		.loc 2 1108 9
1109:C:/Users/stapi/OneDrive/Desktop/GD32VW553/V1_MQTT_OK/GD32VW55X_Wifi_BLE_SDK/GD32VW55x_RELEASE_V1.0.2/MSDK/cloud/alicloud/src/services/ota\iotx_ota.c ****         return  IOT_OTAE_INVALID_PARAM;
 4564              		.loc 2 1109 9
 4565              		.loc 2 1109 17 is_stmt 0
 4566 003a 7955     		li	a0,-2
1110:C:/Users/stapi/OneDrive/Desktop/GD32VW553/V1_MQTT_OK/GD32VW55X_Wifi_BLE_SDK/GD32VW55x_RELEASE_V1.0.2/MSDK/cloud/alicloud/src/services/ota\iotx_ota.c ****     }
1111:C:/Users/stapi/OneDrive/Desktop/GD32VW553/V1_MQTT_OK/GD32VW55X_Wifi_BLE_SDK/GD32VW55x_RELEASE_V1.0.2/MSDK/cloud/alicloud/src/services/ota\iotx_ota.c **** 
1112:C:/Users/stapi/OneDrive/Desktop/GD32VW553/V1_MQTT_OK/GD32VW55X_Wifi_BLE_SDK/GD32VW55x_RELEASE_V1.0.2/MSDK/cloud/alicloud/src/services/ota\iotx_ota.c ****     return h_ota->err;
1113:C:/Users/stapi/OneDrive/Desktop/GD32VW553/V1_MQTT_OK/GD32VW55X_Wifi_BLE_SDK/GD32VW55x_RELEASE_V1.0.2/MSDK/cloud/alicloud/src/services/ota\iotx_ota.c **** }
 4567              		.loc 2 1113 1
 4568 003c 17030000 		tail	__riscv_restore_0
 4568      67000300 
 4569              		.cfi_restore 1
 4570              		.cfi_def_cfa_offset 0
 4571              	.LVL542:
 4572              	.L429:
1112:C:/Users/stapi/OneDrive/Desktop/GD32VW553/V1_MQTT_OK/GD32VW55X_Wifi_BLE_SDK/GD32VW55x_RELEASE_V1.0.2/MSDK/cloud/alicloud/src/services/ota\iotx_ota.c **** }
 4573              		.loc 2 1112 5 is_stmt 1
1112:C:/Users/stapi/OneDrive/Desktop/GD32VW553/V1_MQTT_OK/GD32VW55X_Wifi_BLE_SDK/GD32VW55x_RELEASE_V1.0.2/MSDK/cloud/alicloud/src/services/ota\iotx_ota.c **** }
 4574              		.loc 2 1112 17 is_stmt 0
 4575 0044 6859     		lw	a0,116(a0)
 4576              	.LVL543:
 4577              		.loc 2 1113 1
 4578 0046 8280     		ret
 4579              		.cfi_endproc
 4580              	.LFE45:
 4582              		.section	.rodata.__FUNCTION__.0,"a"
 4583              		.align	2
 4584              		.set	.LANCHOR4,. + 0
 4587              	__FUNCTION__.0:
 4588 0000 494F545F 		.string	"IOT_OTA_Ioctl"
 4588      4F54415F 
 4588      496F6374 
 4588      6C00
 4589              		.section	.rodata.__FUNCTION__.3,"a"
 4590              		.align	2
 4591              		.set	.LANCHOR0,. + 0
 4594              	__FUNCTION__.3:
 4595 0000 6F74616D 		.string	"otamqtt_UpgrageCb"
 4595      7174745F 
 4595      55706772 
 4595      61676543 
 4595      6200
 4596              		.section	.rodata.__func__.1,"a"
 4597              		.align	2
 4598              		.set	.LANCHOR2,. + 0
 4601              	__func__.1:
 4602 0000 6F74616D 		.string	"otamqtt_GenTopicName"
 4602      7174745F 
 4602      47656E54 
 4602      6F706963 
 4602      4E616D65 
 4603              		.section	.rodata.__func__.2,"a"
 4604              		.align	2
 4605              		.set	.LANCHOR1,. + 0
 4608              	__func__.2:
 4609 0000 6F74616D 		.string	"otamqtt_UpgrageCb"
 4609      7174745F 
 4609      55706772 
 4609      61676543 
 4609      6200
 4610              		.section	.sbss.g_ota_is_initialized,"aw",@nobits
 4611              		.align	2
 4612              		.set	.LANCHOR3,. + 0
 4615              	g_ota_is_initialized:
 4616 0000 00000000 		.zero	4
 4617              		.text
 4618              	.Letext0:
 4619              		.file 3 "c:\\users\\stapi\\onedrive\\desktop\\gd32vw553\\embeddedbuilder_v1.4.7.26843\\tools\\nucl
 4620              		.file 4 "c:\\users\\stapi\\onedrive\\desktop\\gd32vw553\\embeddedbuilder_v1.4.7.26843\\tools\\nucl
 4621              		.file 5 "c:\\users\\stapi\\onedrive\\desktop\\gd32vw553\\embeddedbuilder_v1.4.7.26843\\tools\\nucl
 4622              		.file 6 "..\\..\\..\\..\\cloud\\alicloud\\include/exports/iot_export_mqtt.h"
 4623              		.file 7 "..\\..\\..\\..\\cloud\\alicloud\\include/exports/iot_export_ota.h"
 4624              		.file 8 "..\\..\\..\\..\\cloud\\alicloud\\include/exports/iot_export_diagnosis.h"
 4625              		.file 9 "C:/Users/stapi/OneDrive/Desktop/GD32VW553/V1_MQTT_OK/GD32VW55X_Wifi_BLE_SDK/GD32VW55x_REL
 4626              		.file 10 "..\\..\\..\\..\\cloud\\alicloud\\include/iot_import.h"
 4627              		.file 11 "c:\\users\\stapi\\onedrive\\desktop\\gd32vw553\\embeddedbuilder_v1.4.7.26843\\tools\\nuc
 4628              		.file 12 "..\\..\\..\\..\\cloud\\alicloud\\src\\infra\\utils/iotx_utils.h"
 4629              		.file 13 "<built-in>"
 4630              		.file 14 "..\\..\\..\\..\\cloud\\alicloud\\src\\infra\\log/iotx_log.h"
DEFINED SYMBOLS
                            *ABS*:0000000000000000 iotx_ota.c
C:\Users\stapi\AppData\Local\Temp\ccjZAqnI.s:82     .text.otamqtt_UpgrageCb:0000000000000000 otamqtt_UpgrageCb
C:\Users\stapi\AppData\Local\Temp\ccjZAqnI.s:86     .text.otamqtt_UpgrageCb:0000000000000000 .L0 
C:\Users\stapi\AppData\Local\Temp\ccjZAqnI.s:88     .text.otamqtt_UpgrageCb:0000000000000000 .L0 
C:\Users\stapi\AppData\Local\Temp\ccjZAqnI.s:89     .text.otamqtt_UpgrageCb:0000000000000008 .L0 
C:\Users\stapi\AppData\Local\Temp\ccjZAqnI.s:90     .text.otamqtt_UpgrageCb:0000000000000008 .L0 
C:\Users\stapi\AppData\Local\Temp\ccjZAqnI.s:91     .text.otamqtt_UpgrageCb:0000000000000008 .L0 
C:\Users\stapi\AppData\Local\Temp\ccjZAqnI.s:92     .text.otamqtt_UpgrageCb:0000000000000008 .L0 
C:\Users\stapi\AppData\Local\Temp\ccjZAqnI.s:93     .text.otamqtt_UpgrageCb:0000000000000008 .L0 
C:\Users\stapi\AppData\Local\Temp\ccjZAqnI.s:94     .text.otamqtt_UpgrageCb:0000000000000008 .L0 
C:\Users\stapi\AppData\Local\Temp\ccjZAqnI.s:95     .text.otamqtt_UpgrageCb:0000000000000008 .L0 
C:\Users\stapi\AppData\Local\Temp\ccjZAqnI.s:97     .text.otamqtt_UpgrageCb:0000000000000008 .L0 
C:\Users\stapi\AppData\Local\Temp\ccjZAqnI.s:98     .text.otamqtt_UpgrageCb:0000000000000008 .L0 
C:\Users\stapi\AppData\Local\Temp\ccjZAqnI.s:100    .text.otamqtt_UpgrageCb:000000000000000a .L0 
C:\Users\stapi\AppData\Local\Temp\ccjZAqnI.s:106    .text.otamqtt_UpgrageCb:000000000000001e .L0 
C:\Users\stapi\AppData\Local\Temp\ccjZAqnI.s:107    .text.otamqtt_UpgrageCb:0000000000000020 .L0 
C:\Users\stapi\AppData\Local\Temp\ccjZAqnI.s:109    .text.otamqtt_UpgrageCb:0000000000000020 .L0 
C:\Users\stapi\AppData\Local\Temp\ccjZAqnI.s:111    .text.otamqtt_UpgrageCb:0000000000000022 .L0 
C:\Users\stapi\AppData\Local\Temp\ccjZAqnI.s:118    .text.otamqtt_UpgrageCb:0000000000000030 .L0 
C:\Users\stapi\AppData\Local\Temp\ccjZAqnI.s:121    .text.otamqtt_UpgrageCb:0000000000000032 .L0 
C:\Users\stapi\AppData\Local\Temp\ccjZAqnI.s:122    .text.otamqtt_UpgrageCb:0000000000000032 .L0 
C:\Users\stapi\AppData\Local\Temp\ccjZAqnI.s:127    .text.otamqtt_UpgrageCb:000000000000003e .L0 
C:\Users\stapi\AppData\Local\Temp\ccjZAqnI.s:139    .text.otamqtt_UpgrageCb:0000000000000066 .L0 
C:\Users\stapi\AppData\Local\Temp\ccjZAqnI.s:140    .text.otamqtt_UpgrageCb:0000000000000066 .L0 
C:\Users\stapi\AppData\Local\Temp\ccjZAqnI.s:144    .text.otamqtt_UpgrageCb:0000000000000070 .L0 
C:\Users\stapi\AppData\Local\Temp\ccjZAqnI.s:157    .text.otamqtt_UpgrageCb:000000000000009c .L0 
C:\Users\stapi\AppData\Local\Temp\ccjZAqnI.s:158    .text.otamqtt_UpgrageCb:000000000000009c .L0 
C:\Users\stapi\AppData\Local\Temp\ccjZAqnI.s:159    .text.otamqtt_UpgrageCb:000000000000009c .L0 
C:\Users\stapi\AppData\Local\Temp\ccjZAqnI.s:167    .text.otamqtt_UpgrageCb:00000000000000b2 .L0 
C:\Users\stapi\AppData\Local\Temp\ccjZAqnI.s:169    .text.otamqtt_UpgrageCb:00000000000000b4 .L0 
C:\Users\stapi\AppData\Local\Temp\ccjZAqnI.s:178    .text.otamqtt_UpgrageCb:00000000000000d2 .L0 
C:\Users\stapi\AppData\Local\Temp\ccjZAqnI.s:179    .text.otamqtt_UpgrageCb:00000000000000d2 .L0 
C:\Users\stapi\AppData\Local\Temp\ccjZAqnI.s:185    .text.otamqtt_UpgrageCb:00000000000000e4 .L0 
C:\Users\stapi\AppData\Local\Temp\ccjZAqnI.s:187    .text.otamqtt_UpgrageCb:00000000000000e6 .L0 
C:\Users\stapi\AppData\Local\Temp\ccjZAqnI.s:188    .text.otamqtt_UpgrageCb:00000000000000e6 .L0 
C:\Users\stapi\AppData\Local\Temp\ccjZAqnI.s:193    .text.otamqtt_UpgrageCb:00000000000000f6 .L0 
C:\Users\stapi\AppData\Local\Temp\ccjZAqnI.s:198    .text.otamqtt_UpgrageCb:0000000000000106 .L0 
C:\Users\stapi\AppData\Local\Temp\ccjZAqnI.s:203    .text.otamqtt_UpgrageCb:0000000000000116 .L0 
C:\Users\stapi\AppData\Local\Temp\ccjZAqnI.s:204    .text.otamqtt_UpgrageCb:0000000000000116 .L0 
C:\Users\stapi\AppData\Local\Temp\ccjZAqnI.s:205    .text.otamqtt_UpgrageCb:0000000000000116 .L0 
C:\Users\stapi\AppData\Local\Temp\ccjZAqnI.s:207    .text.otamqtt_UpgrageCb:000000000000011a .L0 
C:\Users\stapi\AppData\Local\Temp\ccjZAqnI.s:209    .text.otamqtt_UpgrageCb:000000000000011c .L0 
C:\Users\stapi\AppData\Local\Temp\ccjZAqnI.s:213    .text.otamqtt_UpgrageCb:000000000000011e .L0 
C:\Users\stapi\AppData\Local\Temp\ccjZAqnI.s:214    .text.otamqtt_UpgrageCb:0000000000000120 .L0 
C:\Users\stapi\AppData\Local\Temp\ccjZAqnI.s:215    .text.otamqtt_UpgrageCb:0000000000000120 .L0 
C:\Users\stapi\AppData\Local\Temp\ccjZAqnI.s:217    .text.otamqtt_UpgrageCb:0000000000000128 .L0 
C:\Users\stapi\AppData\Local\Temp\ccjZAqnI.s:218    .text.otamqtt_UpgrageCb:0000000000000128 .L0 
C:\Users\stapi\AppData\Local\Temp\ccjZAqnI.s:219    .text.otamqtt_UpgrageCb:0000000000000128 .L0 
C:\Users\stapi\AppData\Local\Temp\ccjZAqnI.s:220    .text.otamqtt_UpgrageCb:0000000000000128 .L0 
C:\Users\stapi\AppData\Local\Temp\ccjZAqnI.s:221    .text.otamqtt_UpgrageCb:0000000000000128 .L0 
C:\Users\stapi\AppData\Local\Temp\ccjZAqnI.s:222    .text.otamqtt_UpgrageCb:0000000000000128 .L0 
C:\Users\stapi\AppData\Local\Temp\ccjZAqnI.s:223    .text.otamqtt_UpgrageCb:0000000000000128 .L0 
C:\Users\stapi\AppData\Local\Temp\ccjZAqnI.s:226    .text.otamqtt_UpgrageCb:0000000000000128 .L0 
C:\Users\stapi\AppData\Local\Temp\ccjZAqnI.s:228    .text.otamqtt_UpgrageCb:0000000000000128 .L0 
C:\Users\stapi\AppData\Local\Temp\ccjZAqnI.s:229    .text.otamqtt_UpgrageCb:0000000000000128 .L0 
C:\Users\stapi\AppData\Local\Temp\ccjZAqnI.s:235    .text.otamqtt_UpgrageCb:000000000000013a .L0 
C:\Users\stapi\AppData\Local\Temp\ccjZAqnI.s:237    .text.otamqtt_UpgrageCb:000000000000013c .L0 
C:\Users\stapi\AppData\Local\Temp\ccjZAqnI.s:246    .text.otamqtt_UpgrageCb:000000000000015a .L0 
C:\Users\stapi\AppData\Local\Temp\ccjZAqnI.s:247    .text.otamqtt_UpgrageCb:000000000000015a .L0 
C:\Users\stapi\AppData\Local\Temp\ccjZAqnI.s:249    .text.otamqtt_UpgrageCb:000000000000015e .L0 
C:\Users\stapi\AppData\Local\Temp\ccjZAqnI.s:251    .text.otamqtt_UpgrageCb:0000000000000160 .L0 
C:\Users\stapi\AppData\Local\Temp\ccjZAqnI.s:261    .text.otamqtt_UpgrageCb:000000000000016e .L0 
C:\Users\stapi\AppData\Local\Temp\ccjZAqnI.s:262    .text.otamqtt_UpgrageCb:000000000000016e .L0 
C:\Users\stapi\AppData\Local\Temp\ccjZAqnI.s:268    .text.otamqtt_UpgrageCb:0000000000000180 .L0 
C:\Users\stapi\AppData\Local\Temp\ccjZAqnI.s:270    .text.otamqtt_UpgrageCb:0000000000000182 .L0 
C:\Users\stapi\AppData\Local\Temp\ccjZAqnI.s:279    .text.otamqtt_UpgrageCb:00000000000001a0 .L0 
C:\Users\stapi\AppData\Local\Temp\ccjZAqnI.s:280    .text.otamqtt_UpgrageCb:00000000000001a0 .L0 
C:\Users\stapi\AppData\Local\Temp\ccjZAqnI.s:282    .text.otamqtt_UpgrageCb:00000000000001a4 .L0 
C:\Users\stapi\AppData\Local\Temp\ccjZAqnI.s:284    .text.otamqtt_UpgrageCb:00000000000001a6 .L0 
C:\Users\stapi\AppData\Local\Temp\ccjZAqnI.s:288    .text.otamqtt_UpgrageCb:00000000000001aa .L0 
C:\Users\stapi\AppData\Local\Temp\ccjZAqnI.s:289    .text.otamqtt_UpgrageCb:00000000000001aa .L0 
C:\Users\stapi\AppData\Local\Temp\ccjZAqnI.s:295    .text.otamqtt_UpgrageCb:00000000000001bc .L0 
C:\Users\stapi\AppData\Local\Temp\ccjZAqnI.s:297    .text.otamqtt_UpgrageCb:00000000000001be .L0 
C:\Users\stapi\AppData\Local\Temp\ccjZAqnI.s:306    .text.otamqtt_UpgrageCb:00000000000001dc .L0 
C:\Users\stapi\AppData\Local\Temp\ccjZAqnI.s:307    .text.otamqtt_UpgrageCb:00000000000001dc .L0 
C:\Users\stapi\AppData\Local\Temp\ccjZAqnI.s:309    .text.otamqtt_UpgrageCb:00000000000001e0 .L0 
C:\Users\stapi\AppData\Local\Temp\ccjZAqnI.s:311    .text.otamqtt_UpgrageCb:00000000000001e2 .L0 
C:\Users\stapi\AppData\Local\Temp\ccjZAqnI.s:312    .text.otamqtt_UpgrageCb:00000000000001e2 .L0 
C:\Users\stapi\AppData\Local\Temp\ccjZAqnI.s:319    .text.otamqtt_UpgrageCb:00000000000001ee .L0 
C:\Users\stapi\AppData\Local\Temp\ccjZAqnI.s:322    .text.otamqtt_UpgrageCb:00000000000001f0 .L0 
C:\Users\stapi\AppData\Local\Temp\ccjZAqnI.s:323    .text.otamqtt_UpgrageCb:00000000000001f0 .L0 
C:\Users\stapi\AppData\Local\Temp\ccjZAqnI.s:324    .text.otamqtt_UpgrageCb:00000000000001f0 .L0 
C:\Users\stapi\AppData\Local\Temp\ccjZAqnI.s:325    .text.otamqtt_UpgrageCb:00000000000001f0 .L0 
C:\Users\stapi\AppData\Local\Temp\ccjZAqnI.s:332    .text.otamqtt_UpgrageCb:0000000000000202 .L0 
C:\Users\stapi\AppData\Local\Temp\ccjZAqnI.s:333    .text.otamqtt_UpgrageCb:0000000000000202 .L0 
C:\Users\stapi\AppData\Local\Temp\ccjZAqnI.s:340    .text.otamqtt_UpgrageCb:0000000000000214 .L0 
C:\Users\stapi\AppData\Local\Temp\ccjZAqnI.s:341    .text.otamqtt_UpgrageCb:0000000000000214 .L0 
C:\Users\stapi\AppData\Local\Temp\ccjZAqnI.s:347    .text.otamqtt_UpgrageCb:000000000000021e .L0 
C:\Users\stapi\AppData\Local\Temp\ccjZAqnI.s:348    .text.otamqtt_UpgrageCb:000000000000021e .L0 
C:\Users\stapi\AppData\Local\Temp\ccjZAqnI.s:356    .text.otamqtt_UpgrageCb:0000000000000234 .L0 
C:\Users\stapi\AppData\Local\Temp\ccjZAqnI.s:360    .text.otamqtt_UpgrageCb:000000000000023c .L0 
C:\Users\stapi\AppData\Local\Temp\ccjZAqnI.s:363    .text.otamqtt_UpgrageCb:000000000000023e .L0 
C:\Users\stapi\AppData\Local\Temp\ccjZAqnI.s:370    .text.otamqtt_UpgrageCb:0000000000000250 .L0 
C:\Users\stapi\AppData\Local\Temp\ccjZAqnI.s:381    .text.otamqtt_UpgrageCb:000000000000026e .L0 
C:\Users\stapi\AppData\Local\Temp\ccjZAqnI.s:382    .text.otamqtt_UpgrageCb:000000000000026e .L0 
C:\Users\stapi\AppData\Local\Temp\ccjZAqnI.s:384    .text.otamqtt_UpgrageCb:0000000000000270 .L0 
C:\Users\stapi\AppData\Local\Temp\ccjZAqnI.s:386    .text.otamqtt_UpgrageCb:0000000000000274 .L0 
C:\Users\stapi\AppData\Local\Temp\ccjZAqnI.s:387    .text.otamqtt_UpgrageCb:0000000000000274 .L0 
C:\Users\stapi\AppData\Local\Temp\ccjZAqnI.s:389    .text.otamqtt_UpgrageCb:0000000000000276 .L0 
C:\Users\stapi\AppData\Local\Temp\ccjZAqnI.s:390    .text.otamqtt_UpgrageCb:0000000000000276 .L0 
C:\Users\stapi\AppData\Local\Temp\ccjZAqnI.s:393    .text.otamqtt_UpgrageCb:000000000000027e .L0 
C:\Users\stapi\AppData\Local\Temp\ccjZAqnI.s:395    .text.otamqtt_UpgrageCb:0000000000000280 .L0 
C:\Users\stapi\AppData\Local\Temp\ccjZAqnI.s:396    .text.otamqtt_UpgrageCb:0000000000000280 .L0 
C:\Users\stapi\AppData\Local\Temp\ccjZAqnI.s:402    .text.otamqtt_UpgrageCb:000000000000028e .L0 
C:\Users\stapi\AppData\Local\Temp\ccjZAqnI.s:404    .text.otamqtt_UpgrageCb:0000000000000292 .L0 
C:\Users\stapi\AppData\Local\Temp\ccjZAqnI.s:405    .text.otamqtt_UpgrageCb:0000000000000292 .L0 
C:\Users\stapi\AppData\Local\Temp\ccjZAqnI.s:410    .text.otamqtt_UpgrageCb:00000000000002a2 .L0 
C:\Users\stapi\AppData\Local\Temp\ccjZAqnI.s:415    .text.otamqtt_UpgrageCb:00000000000002b2 .L0 
C:\Users\stapi\AppData\Local\Temp\ccjZAqnI.s:421    .text.otamqtt_UpgrageCb:00000000000002c2 .L0 
C:\Users\stapi\AppData\Local\Temp\ccjZAqnI.s:422    .text.otamqtt_UpgrageCb:00000000000002c2 .L0 
C:\Users\stapi\AppData\Local\Temp\ccjZAqnI.s:423    .text.otamqtt_UpgrageCb:00000000000002c4 .L0 
C:\Users\stapi\AppData\Local\Temp\ccjZAqnI.s:469    .text.ota_callback:0000000000000000 ota_callback
C:\Users\stapi\AppData\Local\Temp\ccjZAqnI.s:473    .text.ota_callback:0000000000000000 .L0 
C:\Users\stapi\AppData\Local\Temp\ccjZAqnI.s:475    .text.ota_callback:0000000000000000 .L0 
C:\Users\stapi\AppData\Local\Temp\ccjZAqnI.s:476    .text.ota_callback:0000000000000008 .L0 
C:\Users\stapi\AppData\Local\Temp\ccjZAqnI.s:477    .text.ota_callback:0000000000000008 .L0 
C:\Users\stapi\AppData\Local\Temp\ccjZAqnI.s:478    .text.ota_callback:0000000000000008 .L0 
C:\Users\stapi\AppData\Local\Temp\ccjZAqnI.s:479    .text.ota_callback:0000000000000008 .L0 
C:\Users\stapi\AppData\Local\Temp\ccjZAqnI.s:480    .text.ota_callback:0000000000000008 .L0 
C:\Users\stapi\AppData\Local\Temp\ccjZAqnI.s:481    .text.ota_callback:0000000000000008 .L0 
C:\Users\stapi\AppData\Local\Temp\ccjZAqnI.s:483    .text.ota_callback:0000000000000008 .L0 
C:\Users\stapi\AppData\Local\Temp\ccjZAqnI.s:484    .text.ota_callback:0000000000000008 .L0 
C:\Users\stapi\AppData\Local\Temp\ccjZAqnI.s:486    .text.ota_callback:0000000000000008 .L0 
C:\Users\stapi\AppData\Local\Temp\ccjZAqnI.s:487    .text.ota_callback:0000000000000008 .L0 
C:\Users\stapi\AppData\Local\Temp\ccjZAqnI.s:488    .text.ota_callback:0000000000000008 .L0 
C:\Users\stapi\AppData\Local\Temp\ccjZAqnI.s:491    .text.ota_callback:000000000000000c .L0 
C:\Users\stapi\AppData\Local\Temp\ccjZAqnI.s:492    .text.ota_callback:000000000000000e .L0 
C:\Users\stapi\AppData\Local\Temp\ccjZAqnI.s:494    .text.ota_callback:000000000000000e .L0 
C:\Users\stapi\AppData\Local\Temp\ccjZAqnI.s:496    .text.ota_callback:0000000000000012 .L0 
C:\Users\stapi\AppData\Local\Temp\ccjZAqnI.s:497    .text.ota_callback:0000000000000012 .L0 
C:\Users\stapi\AppData\Local\Temp\ccjZAqnI.s:503    .text.ota_callback:0000000000000022 .L0 
C:\Users\stapi\AppData\Local\Temp\ccjZAqnI.s:507    .text.ota_callback:000000000000002a .L0 
C:\Users\stapi\AppData\Local\Temp\ccjZAqnI.s:510    .text.ota_callback:0000000000000032 .L0 
C:\Users\stapi\AppData\Local\Temp\ccjZAqnI.s:518    .text.ota_callback:0000000000000044 .L0 
C:\Users\stapi\AppData\Local\Temp\ccjZAqnI.s:524    .text.ota_callback:000000000000004e .L0 
C:\Users\stapi\AppData\Local\Temp\ccjZAqnI.s:535    .text.ota_callback:0000000000000060 .L0 
C:\Users\stapi\AppData\Local\Temp\ccjZAqnI.s:537    .text.ota_callback:0000000000000064 .L0 
C:\Users\stapi\AppData\Local\Temp\ccjZAqnI.s:538    .text.ota_callback:0000000000000064 .L0 
C:\Users\stapi\AppData\Local\Temp\ccjZAqnI.s:540    .text.ota_callback:000000000000006c .L0 
C:\Users\stapi\AppData\Local\Temp\ccjZAqnI.s:541    .text.ota_callback:000000000000006c .L0 
C:\Users\stapi\AppData\Local\Temp\ccjZAqnI.s:542    .text.ota_callback:000000000000006c .L0 
C:\Users\stapi\AppData\Local\Temp\ccjZAqnI.s:543    .text.ota_callback:000000000000006c .L0 
C:\Users\stapi\AppData\Local\Temp\ccjZAqnI.s:544    .text.ota_callback:000000000000006c .L0 
C:\Users\stapi\AppData\Local\Temp\ccjZAqnI.s:545    .text.ota_callback:000000000000006c .L0 
C:\Users\stapi\AppData\Local\Temp\ccjZAqnI.s:548    .text.ota_callback:000000000000006c .L0 
C:\Users\stapi\AppData\Local\Temp\ccjZAqnI.s:550    .text.ota_callback:000000000000006c .L0 
C:\Users\stapi\AppData\Local\Temp\ccjZAqnI.s:555    .text.ota_callback:0000000000000072 .L0 
C:\Users\stapi\AppData\Local\Temp\ccjZAqnI.s:556    .text.ota_callback:0000000000000072 .L0 
C:\Users\stapi\AppData\Local\Temp\ccjZAqnI.s:557    .text.ota_callback:0000000000000072 .L0 
C:\Users\stapi\AppData\Local\Temp\ccjZAqnI.s:562    .text.ota_callback:0000000000000076 .L0 
C:\Users\stapi\AppData\Local\Temp\ccjZAqnI.s:563    .text.ota_callback:0000000000000076 .L0 
C:\Users\stapi\AppData\Local\Temp\ccjZAqnI.s:574    .text.ota_callback:000000000000008c .L0 
C:\Users\stapi\AppData\Local\Temp\ccjZAqnI.s:575    .text.ota_callback:000000000000008c .L0 
C:\Users\stapi\AppData\Local\Temp\ccjZAqnI.s:578    .text.ota_callback:000000000000008e .L0 
C:\Users\stapi\AppData\Local\Temp\ccjZAqnI.s:579    .text.ota_callback:000000000000008e .L0 
C:\Users\stapi\AppData\Local\Temp\ccjZAqnI.s:585    .text.ota_callback:000000000000009e .L0 
C:\Users\stapi\AppData\Local\Temp\ccjZAqnI.s:591    .text.ota_callback:00000000000000a8 .L0 
C:\Users\stapi\AppData\Local\Temp\ccjZAqnI.s:592    .text.ota_callback:00000000000000a8 .L0 
C:\Users\stapi\AppData\Local\Temp\ccjZAqnI.s:598    .text.ota_callback:00000000000000b0 .L0 
C:\Users\stapi\AppData\Local\Temp\ccjZAqnI.s:599    .text.ota_callback:00000000000000b0 .L0 
C:\Users\stapi\AppData\Local\Temp\ccjZAqnI.s:604    .text.ota_callback:00000000000000c0 .L0 
C:\Users\stapi\AppData\Local\Temp\ccjZAqnI.s:610    .text.ota_callback:00000000000000ca .L0 
C:\Users\stapi\AppData\Local\Temp\ccjZAqnI.s:616    .text.ota_callback:00000000000000dc .L0 
C:\Users\stapi\AppData\Local\Temp\ccjZAqnI.s:618    .text.ota_callback:00000000000000de .L0 
C:\Users\stapi\AppData\Local\Temp\ccjZAqnI.s:619    .text.ota_callback:00000000000000de .L0 
C:\Users\stapi\AppData\Local\Temp\ccjZAqnI.s:627    .text.ota_callback:00000000000000f4 .L0 
C:\Users\stapi\AppData\Local\Temp\ccjZAqnI.s:628    .text.ota_callback:00000000000000f4 .L0 
C:\Users\stapi\AppData\Local\Temp\ccjZAqnI.s:631    .text.ota_callback:00000000000000f6 .L0 
C:\Users\stapi\AppData\Local\Temp\ccjZAqnI.s:632    .text.ota_callback:00000000000000f6 .L0 
C:\Users\stapi\AppData\Local\Temp\ccjZAqnI.s:638    .text.ota_callback:0000000000000106 .L0 
C:\Users\stapi\AppData\Local\Temp\ccjZAqnI.s:644    .text.ota_callback:0000000000000110 .L0 
C:\Users\stapi\AppData\Local\Temp\ccjZAqnI.s:645    .text.ota_callback:0000000000000110 .L0 
C:\Users\stapi\AppData\Local\Temp\ccjZAqnI.s:654    .text.ota_callback:000000000000012c .L0 
C:\Users\stapi\AppData\Local\Temp\ccjZAqnI.s:656    .text.ota_callback:000000000000012e .L0 
C:\Users\stapi\AppData\Local\Temp\ccjZAqnI.s:657    .text.ota_callback:000000000000012e .L0 
C:\Users\stapi\AppData\Local\Temp\ccjZAqnI.s:662    .text.ota_callback:000000000000013e .L0 
C:\Users\stapi\AppData\Local\Temp\ccjZAqnI.s:667    .text.ota_callback:0000000000000148 .L0 
C:\Users\stapi\AppData\Local\Temp\ccjZAqnI.s:668    .text.ota_callback:0000000000000148 .L0 
C:\Users\stapi\AppData\Local\Temp\ccjZAqnI.s:672    .text.ota_callback:0000000000000152 .L0 
C:\Users\stapi\AppData\Local\Temp\ccjZAqnI.s:674    .text.ota_callback:0000000000000154 .L0 
C:\Users\stapi\AppData\Local\Temp\ccjZAqnI.s:677    .text.ota_callback:0000000000000156 .L0 
C:\Users\stapi\AppData\Local\Temp\ccjZAqnI.s:678    .text.ota_callback:0000000000000156 .L0 
C:\Users\stapi\AppData\Local\Temp\ccjZAqnI.s:683    .text.ota_callback:0000000000000166 .L0 
C:\Users\stapi\AppData\Local\Temp\ccjZAqnI.s:688    .text.ota_callback:0000000000000170 .L0 
C:\Users\stapi\AppData\Local\Temp\ccjZAqnI.s:689    .text.ota_callback:0000000000000170 .L0 
C:\Users\stapi\AppData\Local\Temp\ccjZAqnI.s:692    .text.ota_callback:0000000000000174 .L0 
C:\Users\stapi\AppData\Local\Temp\ccjZAqnI.s:693    .text.ota_callback:0000000000000174 .L0 
C:\Users\stapi\AppData\Local\Temp\ccjZAqnI.s:695    .text.ota_callback:0000000000000176 .L0 
C:\Users\stapi\AppData\Local\Temp\ccjZAqnI.s:696    .text.ota_callback:0000000000000176 .L0 
C:\Users\stapi\AppData\Local\Temp\ccjZAqnI.s:698    .text.ota_callback:0000000000000178 .L0 
C:\Users\stapi\AppData\Local\Temp\ccjZAqnI.s:701    .text.ota_callback:000000000000017a .L0 
C:\Users\stapi\AppData\Local\Temp\ccjZAqnI.s:705    .text.ota_callback:000000000000017e .L0 
C:\Users\stapi\AppData\Local\Temp\ccjZAqnI.s:716    .text.ota_callback:000000000000018c .L0 
C:\Users\stapi\AppData\Local\Temp\ccjZAqnI.s:717    .text.ota_callback:000000000000018c .L0 
C:\Users\stapi\AppData\Local\Temp\ccjZAqnI.s:727    .text.ota_callback:00000000000001a2 .L0 
C:\Users\stapi\AppData\Local\Temp\ccjZAqnI.s:728    .text.ota_callback:00000000000001a2 .L0 
C:\Users\stapi\AppData\Local\Temp\ccjZAqnI.s:730    .text.ota_callback:00000000000001a6 .L0 
C:\Users\stapi\AppData\Local\Temp\ccjZAqnI.s:731    .text.ota_callback:00000000000001a6 .L0 
C:\Users\stapi\AppData\Local\Temp\ccjZAqnI.s:734    .text.ota_callback:00000000000001ac .L0 
C:\Users\stapi\AppData\Local\Temp\ccjZAqnI.s:740    .text.ota_callback:00000000000001be .L0 
C:\Users\stapi\AppData\Local\Temp\ccjZAqnI.s:742    .text.ota_callback:00000000000001c2 .L0 
C:\Users\stapi\AppData\Local\Temp\ccjZAqnI.s:743    .text.ota_callback:00000000000001c2 .L0 
C:\Users\stapi\AppData\Local\Temp\ccjZAqnI.s:752    .text.ota_callback:00000000000001d8 .L0 
C:\Users\stapi\AppData\Local\Temp\ccjZAqnI.s:753    .text.ota_callback:00000000000001d8 .L0 
C:\Users\stapi\AppData\Local\Temp\ccjZAqnI.s:755    .text.ota_callback:00000000000001da .L0 
C:\Users\stapi\AppData\Local\Temp\ccjZAqnI.s:756    .text.ota_callback:00000000000001da .L0 
C:\Users\stapi\AppData\Local\Temp\ccjZAqnI.s:768    .text.ota_callback:00000000000001fe .L0 
C:\Users\stapi\AppData\Local\Temp\ccjZAqnI.s:770    .text.ota_callback:0000000000000200 .L0 
C:\Users\stapi\AppData\Local\Temp\ccjZAqnI.s:771    .text.ota_callback:0000000000000200 .L0 
C:\Users\stapi\AppData\Local\Temp\ccjZAqnI.s:776    .text.ota_callback:0000000000000210 .L0 
C:\Users\stapi\AppData\Local\Temp\ccjZAqnI.s:782    .text.ota_callback:000000000000021a .L0 
C:\Users\stapi\AppData\Local\Temp\ccjZAqnI.s:783    .text.ota_callback:000000000000021a .L0 
C:\Users\stapi\AppData\Local\Temp\ccjZAqnI.s:791    .text.ota_callback:0000000000000226 .L0 
C:\Users\stapi\AppData\Local\Temp\ccjZAqnI.s:792    .text.ota_callback:0000000000000226 .L0 
C:\Users\stapi\AppData\Local\Temp\ccjZAqnI.s:794    .text.ota_callback:0000000000000228 .L0 
C:\Users\stapi\AppData\Local\Temp\ccjZAqnI.s:796    .text.ota_callback:000000000000022a .L0 
C:\Users\stapi\AppData\Local\Temp\ccjZAqnI.s:798    .text.ota_callback:000000000000022e .L0 
C:\Users\stapi\AppData\Local\Temp\ccjZAqnI.s:800    .text.ota_callback:0000000000000230 .L0 
C:\Users\stapi\AppData\Local\Temp\ccjZAqnI.s:801    .text.ota_callback:0000000000000230 .L0 
C:\Users\stapi\AppData\Local\Temp\ccjZAqnI.s:802    .text.ota_callback:0000000000000230 .L0 
C:\Users\stapi\AppData\Local\Temp\ccjZAqnI.s:804    .text.ota_callback:0000000000000232 .L0 
C:\Users\stapi\AppData\Local\Temp\ccjZAqnI.s:808    .text.ota_callback:000000000000023a .L0 
C:\Users\stapi\AppData\Local\Temp\ccjZAqnI.s:809    .text.ota_callback:000000000000023a .L0 
C:\Users\stapi\AppData\Local\Temp\ccjZAqnI.s:812    .text.ota_callback:0000000000000242 .L0 
C:\Users\stapi\AppData\Local\Temp\ccjZAqnI.s:814    .text.ota_callback:0000000000000244 .L0 
C:\Users\stapi\AppData\Local\Temp\ccjZAqnI.s:815    .text.ota_callback:0000000000000244 .L0 
C:\Users\stapi\AppData\Local\Temp\ccjZAqnI.s:817    .text.ota_callback:0000000000000246 .L0 
C:\Users\stapi\AppData\Local\Temp\ccjZAqnI.s:819    .text.ota_callback:0000000000000248 .L0 
C:\Users\stapi\AppData\Local\Temp\ccjZAqnI.s:823    .text.ota_callback:0000000000000250 .L0 
C:\Users\stapi\AppData\Local\Temp\ccjZAqnI.s:824    .text.ota_callback:0000000000000250 .L0 
C:\Users\stapi\AppData\Local\Temp\ccjZAqnI.s:827    .text.ota_callback:0000000000000258 .L0 
C:\Users\stapi\AppData\Local\Temp\ccjZAqnI.s:829    .text.ota_callback:000000000000025a .L0 
C:\Users\stapi\AppData\Local\Temp\ccjZAqnI.s:830    .text.ota_callback:000000000000025a .L0 
C:\Users\stapi\AppData\Local\Temp\ccjZAqnI.s:834    .text.ota_callback:0000000000000264 .L0 
C:\Users\stapi\AppData\Local\Temp\ccjZAqnI.s:836    .text.ota_callback:0000000000000266 .L0 
C:\Users\stapi\AppData\Local\Temp\ccjZAqnI.s:838    .text.ota_callback:000000000000026a .L0 
C:\Users\stapi\AppData\Local\Temp\ccjZAqnI.s:839    .text.ota_callback:000000000000026a .L0 
C:\Users\stapi\AppData\Local\Temp\ccjZAqnI.s:841    .text.ota_callback:000000000000026c .L0 
C:\Users\stapi\AppData\Local\Temp\ccjZAqnI.s:843    .text.ota_callback:0000000000000270 .L0 
C:\Users\stapi\AppData\Local\Temp\ccjZAqnI.s:845    .text.ota_callback:0000000000000272 .L0 
C:\Users\stapi\AppData\Local\Temp\ccjZAqnI.s:846    .text.ota_callback:0000000000000272 .L0 
C:\Users\stapi\AppData\Local\Temp\ccjZAqnI.s:849    .text.ota_callback:0000000000000276 .L0 
C:\Users\stapi\AppData\Local\Temp\ccjZAqnI.s:850    .text.ota_callback:0000000000000276 .L0 
C:\Users\stapi\AppData\Local\Temp\ccjZAqnI.s:852    .text.ota_callback:000000000000027a .L0 
C:\Users\stapi\AppData\Local\Temp\ccjZAqnI.s:863    .text.ota_callback:0000000000000292 .L0 
C:\Users\stapi\AppData\Local\Temp\ccjZAqnI.s:879    .text.otamqtt_GenTopicName.constprop.0:0000000000000000 otamqtt_GenTopicName.constprop.0
C:\Users\stapi\AppData\Local\Temp\ccjZAqnI.s:882    .text.otamqtt_GenTopicName.constprop.0:0000000000000000 .L0 
C:\Users\stapi\AppData\Local\Temp\ccjZAqnI.s:884    .text.otamqtt_GenTopicName.constprop.0:0000000000000000 .L0 
C:\Users\stapi\AppData\Local\Temp\ccjZAqnI.s:885    .text.otamqtt_GenTopicName.constprop.0:0000000000000008 .L0 
C:\Users\stapi\AppData\Local\Temp\ccjZAqnI.s:886    .text.otamqtt_GenTopicName.constprop.0:0000000000000008 .L0 
C:\Users\stapi\AppData\Local\Temp\ccjZAqnI.s:887    .text.otamqtt_GenTopicName.constprop.0:0000000000000008 .L0 
C:\Users\stapi\AppData\Local\Temp\ccjZAqnI.s:890    .text.otamqtt_GenTopicName.constprop.0:0000000000000008 .L0 
C:\Users\stapi\AppData\Local\Temp\ccjZAqnI.s:891    .text.otamqtt_GenTopicName.constprop.0:0000000000000008 .L0 
C:\Users\stapi\AppData\Local\Temp\ccjZAqnI.s:892    .text.otamqtt_GenTopicName.constprop.0:0000000000000008 .L0 
C:\Users\stapi\AppData\Local\Temp\ccjZAqnI.s:894    .text.otamqtt_GenTopicName.constprop.0:000000000000000a .L0 
C:\Users\stapi\AppData\Local\Temp\ccjZAqnI.s:897    .text.otamqtt_GenTopicName.constprop.0:000000000000000e .L0 
C:\Users\stapi\AppData\Local\Temp\ccjZAqnI.s:899    .text.otamqtt_GenTopicName.constprop.0:0000000000000010 .L0 
C:\Users\stapi\AppData\Local\Temp\ccjZAqnI.s:907    .text.otamqtt_GenTopicName.constprop.0:0000000000000022 .L0 
C:\Users\stapi\AppData\Local\Temp\ccjZAqnI.s:908    .text.otamqtt_GenTopicName.constprop.0:0000000000000022 .L0 
C:\Users\stapi\AppData\Local\Temp\ccjZAqnI.s:913    .text.otamqtt_GenTopicName.constprop.0:000000000000002a .L0 
C:\Users\stapi\AppData\Local\Temp\ccjZAqnI.s:916    .text.otamqtt_GenTopicName.constprop.0:000000000000002c .L0 
C:\Users\stapi\AppData\Local\Temp\ccjZAqnI.s:917    .text.otamqtt_GenTopicName.constprop.0:0000000000000034 .L0 
C:\Users\stapi\AppData\Local\Temp\ccjZAqnI.s:918    .text.otamqtt_GenTopicName.constprop.0:0000000000000034 .L0 
C:\Users\stapi\AppData\Local\Temp\ccjZAqnI.s:919    .text.otamqtt_GenTopicName.constprop.0:0000000000000034 .L0 
C:\Users\stapi\AppData\Local\Temp\ccjZAqnI.s:920    .text.otamqtt_GenTopicName.constprop.0:0000000000000034 .L0 
C:\Users\stapi\AppData\Local\Temp\ccjZAqnI.s:923    .text.otamqtt_GenTopicName.constprop.0:0000000000000034 .L0 
C:\Users\stapi\AppData\Local\Temp\ccjZAqnI.s:926    .text.otamqtt_GenTopicName.constprop.0:0000000000000036 .L0 
C:\Users\stapi\AppData\Local\Temp\ccjZAqnI.s:939    .text.otamqtt_GenTopicName.constprop.0:0000000000000062 .L0 
C:\Users\stapi\AppData\Local\Temp\ccjZAqnI.s:940    .text.otamqtt_GenTopicName.constprop.0:0000000000000062 .L0 
C:\Users\stapi\AppData\Local\Temp\ccjZAqnI.s:941    .text.otamqtt_GenTopicName.constprop.0:0000000000000062 .L0 
C:\Users\stapi\AppData\Local\Temp\ccjZAqnI.s:946    .text.otamqtt_GenTopicName.constprop.0:0000000000000066 .L0 
C:\Users\stapi\AppData\Local\Temp\ccjZAqnI.s:947    .text.otamqtt_GenTopicName.constprop.0:0000000000000066 .L0 
C:\Users\stapi\AppData\Local\Temp\ccjZAqnI.s:952    .text.otamqtt_GenTopicName.constprop.0:0000000000000076 .L0 
C:\Users\stapi\AppData\Local\Temp\ccjZAqnI.s:957    .text.otamqtt_GenTopicName.constprop.0:0000000000000086 .L0 
C:\Users\stapi\AppData\Local\Temp\ccjZAqnI.s:962    .text.otamqtt_GenTopicName.constprop.0:0000000000000096 .L0 
C:\Users\stapi\AppData\Local\Temp\ccjZAqnI.s:963    .text.otamqtt_GenTopicName.constprop.0:0000000000000096 .L0 
C:\Users\stapi\AppData\Local\Temp\ccjZAqnI.s:964    .text.otamqtt_GenTopicName.constprop.0:0000000000000096 .L0 
C:\Users\stapi\AppData\Local\Temp\ccjZAqnI.s:968    .text.otamqtt_GenTopicName.constprop.0:000000000000009a .L0 
C:\Users\stapi\AppData\Local\Temp\ccjZAqnI.s:978    .text.otamqtt_Publish:0000000000000000 otamqtt_Publish
C:\Users\stapi\AppData\Local\Temp\ccjZAqnI.s:981    .text.otamqtt_Publish:0000000000000000 .L0 
C:\Users\stapi\AppData\Local\Temp\ccjZAqnI.s:983    .text.otamqtt_Publish:0000000000000000 .L0 
C:\Users\stapi\AppData\Local\Temp\ccjZAqnI.s:984    .text.otamqtt_Publish:0000000000000008 .L0 
C:\Users\stapi\AppData\Local\Temp\ccjZAqnI.s:985    .text.otamqtt_Publish:0000000000000008 .L0 
C:\Users\stapi\AppData\Local\Temp\ccjZAqnI.s:986    .text.otamqtt_Publish:0000000000000008 .L0 
C:\Users\stapi\AppData\Local\Temp\ccjZAqnI.s:988    .text.otamqtt_Publish:0000000000000008 .L0 
C:\Users\stapi\AppData\Local\Temp\ccjZAqnI.s:989    .text.otamqtt_Publish:0000000000000008 .L0 
C:\Users\stapi\AppData\Local\Temp\ccjZAqnI.s:990    .text.otamqtt_Publish:0000000000000008 .L0 
C:\Users\stapi\AppData\Local\Temp\ccjZAqnI.s:991    .text.otamqtt_Publish:0000000000000008 .L0 
C:\Users\stapi\AppData\Local\Temp\ccjZAqnI.s:992    .text.otamqtt_Publish:0000000000000008 .L0 
C:\Users\stapi\AppData\Local\Temp\ccjZAqnI.s:993    .text.otamqtt_Publish:000000000000000a .L0 
C:\Users\stapi\AppData\Local\Temp\ccjZAqnI.s:995    .text.otamqtt_Publish:000000000000000a .L0 
C:\Users\stapi\AppData\Local\Temp\ccjZAqnI.s:1000   .text.otamqtt_Publish:0000000000000012 .L0 
C:\Users\stapi\AppData\Local\Temp\ccjZAqnI.s:1001   .text.otamqtt_Publish:0000000000000012 .L0 
C:\Users\stapi\AppData\Local\Temp\ccjZAqnI.s:1005   .text.otamqtt_Publish:0000000000000016 .L0 
C:\Users\stapi\AppData\Local\Temp\ccjZAqnI.s:1007   .text.otamqtt_Publish:0000000000000018 .L0 
C:\Users\stapi\AppData\Local\Temp\ccjZAqnI.s:1008   .text.otamqtt_Publish:0000000000000018 .L0 
C:\Users\stapi\AppData\Local\Temp\ccjZAqnI.s:1013   .text.otamqtt_Publish:0000000000000020 .L0 
C:\Users\stapi\AppData\Local\Temp\ccjZAqnI.s:1014   .text.otamqtt_Publish:0000000000000020 .L0 
C:\Users\stapi\AppData\Local\Temp\ccjZAqnI.s:1016   .text.otamqtt_Publish:0000000000000022 .L0 
C:\Users\stapi\AppData\Local\Temp\ccjZAqnI.s:1017   .text.otamqtt_Publish:0000000000000022 .L0 
C:\Users\stapi\AppData\Local\Temp\ccjZAqnI.s:1020   .text.otamqtt_Publish:000000000000002a .L0 
C:\Users\stapi\AppData\Local\Temp\ccjZAqnI.s:1024   .text.otamqtt_Publish:0000000000000030 .L0 
C:\Users\stapi\AppData\Local\Temp\ccjZAqnI.s:1026   .text.otamqtt_Publish:0000000000000032 .L0 
C:\Users\stapi\AppData\Local\Temp\ccjZAqnI.s:1027   .text.otamqtt_Publish:0000000000000032 .L0 
C:\Users\stapi\AppData\Local\Temp\ccjZAqnI.s:1031   .text.otamqtt_Publish:000000000000003c .L0 
C:\Users\stapi\AppData\Local\Temp\ccjZAqnI.s:1032   .text.otamqtt_Publish:000000000000003c .L0 
C:\Users\stapi\AppData\Local\Temp\ccjZAqnI.s:1034   .text.otamqtt_Publish:0000000000000040 .L0 
C:\Users\stapi\AppData\Local\Temp\ccjZAqnI.s:1035   .text.otamqtt_Publish:0000000000000040 .L0 
C:\Users\stapi\AppData\Local\Temp\ccjZAqnI.s:1041   .text.otamqtt_Publish:0000000000000050 .L0 
C:\Users\stapi\AppData\Local\Temp\ccjZAqnI.s:1046   .text.otamqtt_Publish:0000000000000060 .L0 
C:\Users\stapi\AppData\Local\Temp\ccjZAqnI.s:1051   .text.otamqtt_Publish:0000000000000070 .L0 
C:\Users\stapi\AppData\Local\Temp\ccjZAqnI.s:1052   .text.otamqtt_Publish:0000000000000070 .L0 
C:\Users\stapi\AppData\Local\Temp\ccjZAqnI.s:1053   .text.otamqtt_Publish:0000000000000070 .L0 
C:\Users\stapi\AppData\Local\Temp\ccjZAqnI.s:1056   .text.otamqtt_Publish:0000000000000072 .L0 
C:\Users\stapi\AppData\Local\Temp\ccjZAqnI.s:1058   .text.otamqtt_Publish:0000000000000076 .L0 
C:\Users\stapi\AppData\Local\Temp\ccjZAqnI.s:1059   .text.otamqtt_Publish:0000000000000076 .L0 
C:\Users\stapi\AppData\Local\Temp\ccjZAqnI.s:1062   .text.otamqtt_Publish:000000000000007e .L0 
C:\Users\stapi\AppData\Local\Temp\ccjZAqnI.s:1063   .text.otamqtt_Publish:000000000000007e .L0 
C:\Users\stapi\AppData\Local\Temp\ccjZAqnI.s:1064   .text.otamqtt_Publish:000000000000007e .L0 
C:\Users\stapi\AppData\Local\Temp\ccjZAqnI.s:1067   .text.otamqtt_Publish:000000000000007e .L0 
C:\Users\stapi\AppData\Local\Temp\ccjZAqnI.s:1069   .text.otamqtt_Publish:000000000000007e .L0 
C:\Users\stapi\AppData\Local\Temp\ccjZAqnI.s:1070   .text.otamqtt_Publish:000000000000007e .L0 
C:\Users\stapi\AppData\Local\Temp\ccjZAqnI.s:1077   .text.otamqtt_Publish:000000000000008c .L0 
C:\Users\stapi\AppData\Local\Temp\ccjZAqnI.s:1078   .text.otamqtt_Publish:000000000000008c .L0 
C:\Users\stapi\AppData\Local\Temp\ccjZAqnI.s:1080   .text.otamqtt_Publish:000000000000008e .L0 
C:\Users\stapi\AppData\Local\Temp\ccjZAqnI.s:1082   .text.otamqtt_Publish:0000000000000092 .L0 
C:\Users\stapi\AppData\Local\Temp\ccjZAqnI.s:1083   .text.otamqtt_Publish:0000000000000092 .L0 
C:\Users\stapi\AppData\Local\Temp\ccjZAqnI.s:1089   .text.otamqtt_Publish:00000000000000a2 .L0 
C:\Users\stapi\AppData\Local\Temp\ccjZAqnI.s:1094   .text.otamqtt_Publish:00000000000000b2 .L0 
C:\Users\stapi\AppData\Local\Temp\ccjZAqnI.s:1099   .text.otamqtt_Publish:00000000000000c2 .L0 
C:\Users\stapi\AppData\Local\Temp\ccjZAqnI.s:1100   .text.otamqtt_Publish:00000000000000c2 .L0 
C:\Users\stapi\AppData\Local\Temp\ccjZAqnI.s:1101   .text.otamqtt_Publish:00000000000000c2 .L0 
C:\Users\stapi\AppData\Local\Temp\ccjZAqnI.s:1103   .text.otamqtt_Publish:00000000000000c6 .L0 
C:\Users\stapi\AppData\Local\Temp\ccjZAqnI.s:1109   .text.otamqtt_publish_full_topic.isra.0:0000000000000000 otamqtt_publish_full_topic.isra.0
C:\Users\stapi\AppData\Local\Temp\ccjZAqnI.s:1112   .text.otamqtt_publish_full_topic.isra.0:0000000000000000 .L0 
C:\Users\stapi\AppData\Local\Temp\ccjZAqnI.s:1114   .text.otamqtt_publish_full_topic.isra.0:0000000000000000 .L0 
C:\Users\stapi\AppData\Local\Temp\ccjZAqnI.s:1115   .text.otamqtt_publish_full_topic.isra.0:0000000000000008 .L0 
C:\Users\stapi\AppData\Local\Temp\ccjZAqnI.s:1116   .text.otamqtt_publish_full_topic.isra.0:0000000000000008 .L0 
C:\Users\stapi\AppData\Local\Temp\ccjZAqnI.s:1119   .text.otamqtt_publish_full_topic.isra.0:0000000000000008 .L0 
C:\Users\stapi\AppData\Local\Temp\ccjZAqnI.s:1120   .text.otamqtt_publish_full_topic.isra.0:0000000000000008 .L0 
C:\Users\stapi\AppData\Local\Temp\ccjZAqnI.s:1123   .text.otamqtt_publish_full_topic.isra.0:0000000000000010 .L0 
C:\Users\stapi\AppData\Local\Temp\ccjZAqnI.s:1125   .text.otamqtt_publish_full_topic.isra.0:0000000000000014 .L0 
C:\Users\stapi\AppData\Local\Temp\ccjZAqnI.s:1126   .text.otamqtt_publish_full_topic.isra.0:0000000000000014 .L0 
C:\Users\stapi\AppData\Local\Temp\ccjZAqnI.s:1131   .text.otamqtt_publish_full_topic.isra.0:0000000000000024 .L0 
C:\Users\stapi\AppData\Local\Temp\ccjZAqnI.s:1136   .text.otamqtt_publish_full_topic.isra.0:0000000000000034 .L0 
C:\Users\stapi\AppData\Local\Temp\ccjZAqnI.s:1141   .text.otamqtt_publish_full_topic.isra.0:0000000000000044 .L0 
C:\Users\stapi\AppData\Local\Temp\ccjZAqnI.s:1142   .text.otamqtt_publish_full_topic.isra.0:0000000000000044 .L0 
C:\Users\stapi\AppData\Local\Temp\ccjZAqnI.s:1143   .text.otamqtt_publish_full_topic.isra.0:0000000000000044 .L0 
C:\Users\stapi\AppData\Local\Temp\ccjZAqnI.s:1146   .text.otamqtt_publish_full_topic.isra.0:0000000000000046 .L0 
C:\Users\stapi\AppData\Local\Temp\ccjZAqnI.s:1147   .text.otamqtt_publish_full_topic.isra.0:000000000000004e .L0 
C:\Users\stapi\AppData\Local\Temp\ccjZAqnI.s:1148   .text.otamqtt_publish_full_topic.isra.0:000000000000004e .L0 
C:\Users\stapi\AppData\Local\Temp\ccjZAqnI.s:1149   .text.otamqtt_publish_full_topic.isra.0:000000000000004e .L0 
C:\Users\stapi\AppData\Local\Temp\ccjZAqnI.s:1151   .text.otamqtt_publish_full_topic.isra.0:000000000000004e .L0 
C:\Users\stapi\AppData\Local\Temp\ccjZAqnI.s:1153   .text.otamqtt_publish_full_topic.isra.0:000000000000004e .L0 
C:\Users\stapi\AppData\Local\Temp\ccjZAqnI.s:1155   .text.otamqtt_publish_full_topic.isra.0:0000000000000052 .L0 
C:\Users\stapi\AppData\Local\Temp\ccjZAqnI.s:1190   .text.osc_Init:0000000000000000 osc_Init
C:\Users\stapi\AppData\Local\Temp\ccjZAqnI.s:1193   .text.osc_Init:0000000000000000 .L0 
C:\Users\stapi\AppData\Local\Temp\ccjZAqnI.s:1195   .text.osc_Init:0000000000000000 .L0 
C:\Users\stapi\AppData\Local\Temp\ccjZAqnI.s:1196   .text.osc_Init:0000000000000008 .L0 
C:\Users\stapi\AppData\Local\Temp\ccjZAqnI.s:1197   .text.osc_Init:0000000000000008 .L0 
C:\Users\stapi\AppData\Local\Temp\ccjZAqnI.s:1198   .text.osc_Init:0000000000000008 .L0 
C:\Users\stapi\AppData\Local\Temp\ccjZAqnI.s:1199   .text.osc_Init:0000000000000008 .L0 
C:\Users\stapi\AppData\Local\Temp\ccjZAqnI.s:1200   .text.osc_Init:0000000000000008 .L0 
C:\Users\stapi\AppData\Local\Temp\ccjZAqnI.s:1201   .text.osc_Init:0000000000000008 .L0 
C:\Users\stapi\AppData\Local\Temp\ccjZAqnI.s:1202   .text.osc_Init:0000000000000008 .L0 
C:\Users\stapi\AppData\Local\Temp\ccjZAqnI.s:1203   .text.osc_Init:0000000000000008 .L0 
C:\Users\stapi\AppData\Local\Temp\ccjZAqnI.s:1204   .text.osc_Init:0000000000000008 .L0 
C:\Users\stapi\AppData\Local\Temp\ccjZAqnI.s:1205   .text.osc_Init:0000000000000008 .L0 
C:\Users\stapi\AppData\Local\Temp\ccjZAqnI.s:1207   .text.osc_Init:0000000000000008 .L0 
C:\Users\stapi\AppData\Local\Temp\ccjZAqnI.s:1209   .text.osc_Init:0000000000000008 .L0 
C:\Users\stapi\AppData\Local\Temp\ccjZAqnI.s:1210   .text.osc_Init:0000000000000008 .L0 
C:\Users\stapi\AppData\Local\Temp\ccjZAqnI.s:1211   .text.osc_Init:0000000000000008 .L0 
C:\Users\stapi\AppData\Local\Temp\ccjZAqnI.s:1215   .text.osc_Init:000000000000000e .L0 
C:\Users\stapi\AppData\Local\Temp\ccjZAqnI.s:1222   .text.osc_Init:0000000000000016 .L0 
C:\Users\stapi\AppData\Local\Temp\ccjZAqnI.s:1225   .text.osc_Init:000000000000001a .L0 
C:\Users\stapi\AppData\Local\Temp\ccjZAqnI.s:1230   .text.osc_Init:0000000000000024 .L0 
C:\Users\stapi\AppData\Local\Temp\ccjZAqnI.s:1232   .text.osc_Init:0000000000000026 .L0 
C:\Users\stapi\AppData\Local\Temp\ccjZAqnI.s:1233   .text.osc_Init:0000000000000026 .L0 
C:\Users\stapi\AppData\Local\Temp\ccjZAqnI.s:1238   .text.osc_Init:0000000000000036 .L0 
C:\Users\stapi\AppData\Local\Temp\ccjZAqnI.s:1243   .text.osc_Init:0000000000000046 .L0 
C:\Users\stapi\AppData\Local\Temp\ccjZAqnI.s:1248   .text.osc_Init:0000000000000056 .L0 
C:\Users\stapi\AppData\Local\Temp\ccjZAqnI.s:1250   .text.osc_Init:0000000000000056 .L0 
C:\Users\stapi\AppData\Local\Temp\ccjZAqnI.s:1251   .text.osc_Init:0000000000000056 .L0 
C:\Users\stapi\AppData\Local\Temp\ccjZAqnI.s:1253   .text.osc_Init:0000000000000060 .L0 
C:\Users\stapi\AppData\Local\Temp\ccjZAqnI.s:1254   .text.osc_Init:0000000000000060 .L0 
C:\Users\stapi\AppData\Local\Temp\ccjZAqnI.s:1255   .text.osc_Init:0000000000000060 .L0 
C:\Users\stapi\AppData\Local\Temp\ccjZAqnI.s:1256   .text.osc_Init:0000000000000060 .L0 
C:\Users\stapi\AppData\Local\Temp\ccjZAqnI.s:1257   .text.osc_Init:0000000000000060 .L0 
C:\Users\stapi\AppData\Local\Temp\ccjZAqnI.s:1258   .text.osc_Init:0000000000000060 .L0 
C:\Users\stapi\AppData\Local\Temp\ccjZAqnI.s:1259   .text.osc_Init:0000000000000060 .L0 
C:\Users\stapi\AppData\Local\Temp\ccjZAqnI.s:1260   .text.osc_Init:0000000000000060 .L0 
C:\Users\stapi\AppData\Local\Temp\ccjZAqnI.s:1261   .text.osc_Init:0000000000000060 .L0 
C:\Users\stapi\AppData\Local\Temp\ccjZAqnI.s:1262   .text.osc_Init:0000000000000060 .L0 
C:\Users\stapi\AppData\Local\Temp\ccjZAqnI.s:1263   .text.osc_Init:0000000000000060 .L0 
C:\Users\stapi\AppData\Local\Temp\ccjZAqnI.s:1266   .text.osc_Init:0000000000000060 .L0 
C:\Users\stapi\AppData\Local\Temp\ccjZAqnI.s:1268   .text.osc_Init:0000000000000060 .L0 
C:\Users\stapi\AppData\Local\Temp\ccjZAqnI.s:1273   .text.osc_Init:000000000000006e .L0 
C:\Users\stapi\AppData\Local\Temp\ccjZAqnI.s:1274   .text.osc_Init:000000000000006e .L0 
C:\Users\stapi\AppData\Local\Temp\ccjZAqnI.s:1276   .text.osc_Init:0000000000000072 .L0 
C:\Users\stapi\AppData\Local\Temp\ccjZAqnI.s:1284   .text.osc_Init:0000000000000088 .L0 
C:\Users\stapi\AppData\Local\Temp\ccjZAqnI.s:1285   .text.osc_Init:0000000000000088 .L0 
C:\Users\stapi\AppData\Local\Temp\ccjZAqnI.s:1287   .text.osc_Init:000000000000008c .L0 
C:\Users\stapi\AppData\Local\Temp\ccjZAqnI.s:1288   .text.osc_Init:000000000000008c .L0 
C:\Users\stapi\AppData\Local\Temp\ccjZAqnI.s:1294   .text.osc_Init:000000000000009c .L0 
C:\Users\stapi\AppData\Local\Temp\ccjZAqnI.s:1299   .text.osc_Init:00000000000000a4 .L0 
C:\Users\stapi\AppData\Local\Temp\ccjZAqnI.s:1302   .text.osc_Init:00000000000000ac .L0 
C:\Users\stapi\AppData\Local\Temp\ccjZAqnI.s:1307   .text.osc_Init:00000000000000bc .L0 
C:\Users\stapi\AppData\Local\Temp\ccjZAqnI.s:1308   .text.osc_Init:00000000000000bc .L0 
C:\Users\stapi\AppData\Local\Temp\ccjZAqnI.s:1309   .text.osc_Init:00000000000000bc .L0 
C:\Users\stapi\AppData\Local\Temp\ccjZAqnI.s:1310   .text.osc_Init:00000000000000bc .L0 
C:\Users\stapi\AppData\Local\Temp\ccjZAqnI.s:1314   .text.osc_Init:00000000000000c6 .L0 
C:\Users\stapi\AppData\Local\Temp\ccjZAqnI.s:1315   .text.osc_Init:00000000000000c6 .L0 
C:\Users\stapi\AppData\Local\Temp\ccjZAqnI.s:1321   .text.osc_Init:00000000000000ca .L0 
C:\Users\stapi\AppData\Local\Temp\ccjZAqnI.s:1322   .text.osc_Init:00000000000000ca .L0 
C:\Users\stapi\AppData\Local\Temp\ccjZAqnI.s:1332   .text.osc_Init:00000000000000e2 .L0 
C:\Users\stapi\AppData\Local\Temp\ccjZAqnI.s:1333   .text.osc_Init:00000000000000e2 .L0 
C:\Users\stapi\AppData\Local\Temp\ccjZAqnI.s:1336   .text.osc_Init:00000000000000e6 .L0 
C:\Users\stapi\AppData\Local\Temp\ccjZAqnI.s:1337   .text.osc_Init:00000000000000e6 .L0 
C:\Users\stapi\AppData\Local\Temp\ccjZAqnI.s:1343   .text.osc_Init:00000000000000f6 .L0 
C:\Users\stapi\AppData\Local\Temp\ccjZAqnI.s:1349   .text.osc_Init:0000000000000100 .L0 
C:\Users\stapi\AppData\Local\Temp\ccjZAqnI.s:1350   .text.osc_Init:0000000000000100 .L0 
C:\Users\stapi\AppData\Local\Temp\ccjZAqnI.s:1352   .text.osc_Init:0000000000000104 .L0 
C:\Users\stapi\AppData\Local\Temp\ccjZAqnI.s:1361   .text.osc_Init:000000000000011a .L0 
C:\Users\stapi\AppData\Local\Temp\ccjZAqnI.s:1362   .text.osc_Init:000000000000011a .L0 
C:\Users\stapi\AppData\Local\Temp\ccjZAqnI.s:1364   .text.osc_Init:000000000000011e .L0 
C:\Users\stapi\AppData\Local\Temp\ccjZAqnI.s:1365   .text.osc_Init:000000000000011e .L0 
C:\Users\stapi\AppData\Local\Temp\ccjZAqnI.s:1371   .text.osc_Init:000000000000012e .L0 
C:\Users\stapi\AppData\Local\Temp\ccjZAqnI.s:1377   .text.osc_Init:0000000000000138 .L0 
C:\Users\stapi\AppData\Local\Temp\ccjZAqnI.s:1378   .text.osc_Init:0000000000000138 .L0 
C:\Users\stapi\AppData\Local\Temp\ccjZAqnI.s:1387   .text.osc_Init:000000000000014c .L0 
C:\Users\stapi\AppData\Local\Temp\ccjZAqnI.s:1388   .text.osc_Init:000000000000014c .L0 
C:\Users\stapi\AppData\Local\Temp\ccjZAqnI.s:1390   .text.osc_Init:0000000000000150 .L0 
C:\Users\stapi\AppData\Local\Temp\ccjZAqnI.s:1391   .text.osc_Init:0000000000000150 .L0 
C:\Users\stapi\AppData\Local\Temp\ccjZAqnI.s:1393   .text.osc_Init:0000000000000154 .L0 
C:\Users\stapi\AppData\Local\Temp\ccjZAqnI.s:1403   .text.osc_Init:000000000000016e .L0 
C:\Users\stapi\AppData\Local\Temp\ccjZAqnI.s:1404   .text.osc_Init:000000000000016e .L0 
C:\Users\stapi\AppData\Local\Temp\ccjZAqnI.s:1407   .text.osc_Init:0000000000000172 .L0 
C:\Users\stapi\AppData\Local\Temp\ccjZAqnI.s:1408   .text.osc_Init:0000000000000172 .L0 
C:\Users\stapi\AppData\Local\Temp\ccjZAqnI.s:1414   .text.osc_Init:0000000000000182 .L0 
C:\Users\stapi\AppData\Local\Temp\ccjZAqnI.s:1420   .text.osc_Init:000000000000018c .L0 
C:\Users\stapi\AppData\Local\Temp\ccjZAqnI.s:1421   .text.osc_Init:000000000000018c .L0 
C:\Users\stapi\AppData\Local\Temp\ccjZAqnI.s:1430   .text.osc_Init:00000000000001a0 .L0 
C:\Users\stapi\AppData\Local\Temp\ccjZAqnI.s:1431   .text.osc_Init:00000000000001a0 .L0 
C:\Users\stapi\AppData\Local\Temp\ccjZAqnI.s:1433   .text.osc_Init:00000000000001a4 .L0 
C:\Users\stapi\AppData\Local\Temp\ccjZAqnI.s:1434   .text.osc_Init:00000000000001a4 .L0 
C:\Users\stapi\AppData\Local\Temp\ccjZAqnI.s:1436   .text.osc_Init:00000000000001a8 .L0 
C:\Users\stapi\AppData\Local\Temp\ccjZAqnI.s:1446   .text.osc_Init:00000000000001c2 .L0 
C:\Users\stapi\AppData\Local\Temp\ccjZAqnI.s:1447   .text.osc_Init:00000000000001c2 .L0 
C:\Users\stapi\AppData\Local\Temp\ccjZAqnI.s:1449   .text.osc_Init:00000000000001c6 .L0 
C:\Users\stapi\AppData\Local\Temp\ccjZAqnI.s:1450   .text.osc_Init:00000000000001c6 .L0 
C:\Users\stapi\AppData\Local\Temp\ccjZAqnI.s:1459   .text.osc_Init:00000000000001da .L0 
C:\Users\stapi\AppData\Local\Temp\ccjZAqnI.s:1460   .text.osc_Init:00000000000001da .L0 
C:\Users\stapi\AppData\Local\Temp\ccjZAqnI.s:1462   .text.osc_Init:00000000000001de .L0 
C:\Users\stapi\AppData\Local\Temp\ccjZAqnI.s:1463   .text.osc_Init:00000000000001de .L0 
C:\Users\stapi\AppData\Local\Temp\ccjZAqnI.s:1465   .text.osc_Init:00000000000001e2 .L0 
C:\Users\stapi\AppData\Local\Temp\ccjZAqnI.s:1466   .text.osc_Init:00000000000001e2 .L0 
C:\Users\stapi\AppData\Local\Temp\ccjZAqnI.s:1468   .text.osc_Init:00000000000001e6 .L0 
C:\Users\stapi\AppData\Local\Temp\ccjZAqnI.s:1469   .text.osc_Init:00000000000001e6 .L0 
C:\Users\stapi\AppData\Local\Temp\ccjZAqnI.s:1471   .text.osc_Init:00000000000001e8 .L0 
C:\Users\stapi\AppData\Local\Temp\ccjZAqnI.s:1472   .text.osc_Init:00000000000001e8 .L0 
C:\Users\stapi\AppData\Local\Temp\ccjZAqnI.s:1475   .text.osc_Init:00000000000001f0 .L0 
C:\Users\stapi\AppData\Local\Temp\ccjZAqnI.s:1476   .text.osc_Init:00000000000001f0 .L0 
C:\Users\stapi\AppData\Local\Temp\ccjZAqnI.s:1478   .text.osc_Init:00000000000001f4 .L0 
C:\Users\stapi\AppData\Local\Temp\ccjZAqnI.s:1479   .text.osc_Init:00000000000001f4 .L0 
C:\Users\stapi\AppData\Local\Temp\ccjZAqnI.s:1480   .text.osc_Init:00000000000001f6 .L0 
C:\Users\stapi\AppData\Local\Temp\ccjZAqnI.s:1487   .text.osc_Deinit:0000000000000000 osc_Deinit
C:\Users\stapi\AppData\Local\Temp\ccjZAqnI.s:1490   .text.osc_Deinit:0000000000000000 .L0 
C:\Users\stapi\AppData\Local\Temp\ccjZAqnI.s:1492   .text.osc_Deinit:0000000000000000 .L0 
C:\Users\stapi\AppData\Local\Temp\ccjZAqnI.s:1493   .text.osc_Deinit:0000000000000000 .L0 
C:\Users\stapi\AppData\Local\Temp\ccjZAqnI.s:1494   .text.osc_Deinit:0000000000000000 .L0 
C:\Users\stapi\AppData\Local\Temp\ccjZAqnI.s:1496   .text.osc_Deinit:0000000000000002 .L0 
C:\Users\stapi\AppData\Local\Temp\ccjZAqnI.s:1497   .text.osc_Deinit:000000000000000a .L0 
C:\Users\stapi\AppData\Local\Temp\ccjZAqnI.s:1498   .text.osc_Deinit:000000000000000a .L0 
C:\Users\stapi\AppData\Local\Temp\ccjZAqnI.s:1500   .text.osc_Deinit:000000000000000a .L0 
C:\Users\stapi\AppData\Local\Temp\ccjZAqnI.s:1503   .text.osc_Deinit:0000000000000012 .L0 
C:\Users\stapi\AppData\Local\Temp\ccjZAqnI.s:1504   .text.osc_Deinit:0000000000000012 .L0 
C:\Users\stapi\AppData\Local\Temp\ccjZAqnI.s:1506   .text.osc_Deinit:000000000000001c .L0 
C:\Users\stapi\AppData\Local\Temp\ccjZAqnI.s:1507   .text.osc_Deinit:000000000000001c .L0 
C:\Users\stapi\AppData\Local\Temp\ccjZAqnI.s:1511   .text.osc_Deinit:000000000000001c .L0 
C:\Users\stapi\AppData\Local\Temp\ccjZAqnI.s:1512   .text.osc_Deinit:000000000000001c .L0 
C:\Users\stapi\AppData\Local\Temp\ccjZAqnI.s:1515   .text.osc_Deinit:0000000000000020 .L0 
C:\Users\stapi\AppData\Local\Temp\ccjZAqnI.s:1526   .text.osc_ReportProgress:0000000000000000 osc_ReportProgress
C:\Users\stapi\AppData\Local\Temp\ccjZAqnI.s:1529   .text.osc_ReportProgress:0000000000000000 .L0 
C:\Users\stapi\AppData\Local\Temp\ccjZAqnI.s:1531   .text.osc_ReportProgress:0000000000000000 .L0 
C:\Users\stapi\AppData\Local\Temp\ccjZAqnI.s:1532   .text.osc_ReportProgress:0000000000000000 .L0 
C:\Users\stapi\AppData\Local\Temp\ccjZAqnI.s:1533   .text.osc_ReportProgress:0000000000000000 .L0 
C:\Users\stapi\AppData\Local\Temp\ccjZAqnI.s:1535   .text.osc_ReportProgress:0000000000000002 .L0 
C:\Users\stapi\AppData\Local\Temp\ccjZAqnI.s:1541   .text.osc_ReportProgress:0000000000000014 .L0 
C:\Users\stapi\AppData\Local\Temp\ccjZAqnI.s:1552   .text.osc_ReportVersion:0000000000000000 osc_ReportVersion
C:\Users\stapi\AppData\Local\Temp\ccjZAqnI.s:1555   .text.osc_ReportVersion:0000000000000000 .L0 
C:\Users\stapi\AppData\Local\Temp\ccjZAqnI.s:1557   .text.osc_ReportVersion:0000000000000000 .L0 
C:\Users\stapi\AppData\Local\Temp\ccjZAqnI.s:1558   .text.osc_ReportVersion:0000000000000000 .L0 
C:\Users\stapi\AppData\Local\Temp\ccjZAqnI.s:1559   .text.osc_ReportVersion:0000000000000000 .L0 
C:\Users\stapi\AppData\Local\Temp\ccjZAqnI.s:1561   .text.osc_ReportVersion:0000000000000002 .L0 
C:\Users\stapi\AppData\Local\Temp\ccjZAqnI.s:1567   .text.osc_ReportVersion:0000000000000014 .L0 
C:\Users\stapi\AppData\Local\Temp\ccjZAqnI.s:1574   .text.osc_RequestImage:0000000000000000 osc_RequestImage
C:\Users\stapi\AppData\Local\Temp\ccjZAqnI.s:1577   .text.osc_RequestImage:0000000000000000 .L0 
C:\Users\stapi\AppData\Local\Temp\ccjZAqnI.s:1579   .text.osc_RequestImage:0000000000000000 .L0 
C:\Users\stapi\AppData\Local\Temp\ccjZAqnI.s:1580   .text.osc_RequestImage:0000000000000000 .L0 
C:\Users\stapi\AppData\Local\Temp\ccjZAqnI.s:1581   .text.osc_RequestImage:0000000000000000 .L0 
C:\Users\stapi\AppData\Local\Temp\ccjZAqnI.s:1583   .text.osc_RequestImage:0000000000000002 .L0 
C:\Users\stapi\AppData\Local\Temp\ccjZAqnI.s:1589   .text.osc_RequestImage:0000000000000014 .L0 
C:\Users\stapi\AppData\Local\Temp\ccjZAqnI.s:1596   .text.osc_RequestConfig:0000000000000000 osc_RequestConfig
C:\Users\stapi\AppData\Local\Temp\ccjZAqnI.s:1599   .text.osc_RequestConfig:0000000000000000 .L0 
C:\Users\stapi\AppData\Local\Temp\ccjZAqnI.s:1601   .text.osc_RequestConfig:0000000000000000 .L0 
C:\Users\stapi\AppData\Local\Temp\ccjZAqnI.s:1602   .text.osc_RequestConfig:0000000000000000 .L0 
C:\Users\stapi\AppData\Local\Temp\ccjZAqnI.s:1603   .text.osc_RequestConfig:0000000000000000 .L0 
C:\Users\stapi\AppData\Local\Temp\ccjZAqnI.s:1607   .text.osc_RequestConfig:000000000000000a .L0 
C:\Users\stapi\AppData\Local\Temp\ccjZAqnI.s:1614   .text.iotx_ota_set_fetch_callback:0000000000000000 iotx_ota_set_fetch_callback
C:\Users\stapi\AppData\Local\Temp\ccjZAqnI.s:1617   .text.iotx_ota_set_fetch_callback:0000000000000000 .L0 
C:\Users\stapi\AppData\Local\Temp\ccjZAqnI.s:1619   .text.iotx_ota_set_fetch_callback:0000000000000000 .L0 
C:\Users\stapi\AppData\Local\Temp\ccjZAqnI.s:1620   .text.iotx_ota_set_fetch_callback:0000000000000000 .L0 
C:\Users\stapi\AppData\Local\Temp\ccjZAqnI.s:1621   .text.iotx_ota_set_fetch_callback:0000000000000000 .L0 
C:\Users\stapi\AppData\Local\Temp\ccjZAqnI.s:1624   .text.iotx_ota_set_fetch_callback:0000000000000002 .L0 
C:\Users\stapi\AppData\Local\Temp\ccjZAqnI.s:1625   .text.iotx_ota_set_fetch_callback:0000000000000002 .L0 
C:\Users\stapi\AppData\Local\Temp\ccjZAqnI.s:1628   .text.iotx_ota_set_fetch_callback:0000000000000004 .L0 
C:\Users\stapi\AppData\Local\Temp\ccjZAqnI.s:1630   .text.iotx_ota_set_fetch_callback:0000000000000006 .L0 
C:\Users\stapi\AppData\Local\Temp\ccjZAqnI.s:1632   .text.iotx_ota_set_fetch_callback:0000000000000008 .L0 
C:\Users\stapi\AppData\Local\Temp\ccjZAqnI.s:1633   .text.iotx_ota_set_fetch_callback:0000000000000008 .L0 
C:\Users\stapi\AppData\Local\Temp\ccjZAqnI.s:1635   .text.iotx_ota_set_fetch_callback:000000000000000a .L0 
C:\Users\stapi\AppData\Local\Temp\ccjZAqnI.s:1636   .text.iotx_ota_set_fetch_callback:000000000000000a .L0 
C:\Users\stapi\AppData\Local\Temp\ccjZAqnI.s:1638   .text.iotx_ota_set_fetch_callback:000000000000000c .L0 
C:\Users\stapi\AppData\Local\Temp\ccjZAqnI.s:1639   .text.iotx_ota_set_fetch_callback:000000000000000c .L0 
C:\Users\stapi\AppData\Local\Temp\ccjZAqnI.s:1643   .text.iotx_ota_set_fetch_callback:0000000000000010 .L0 
C:\Users\stapi\AppData\Local\Temp\ccjZAqnI.s:1644   .text.iotx_ota_set_fetch_callback:0000000000000012 .L0 
C:\Users\stapi\AppData\Local\Temp\ccjZAqnI.s:1651   .text.iotx_ota_set_cota_fetch_callback:0000000000000000 iotx_ota_set_cota_fetch_callback
C:\Users\stapi\AppData\Local\Temp\ccjZAqnI.s:1654   .text.iotx_ota_set_cota_fetch_callback:0000000000000000 .L0 
C:\Users\stapi\AppData\Local\Temp\ccjZAqnI.s:1656   .text.iotx_ota_set_cota_fetch_callback:0000000000000000 .L0 
C:\Users\stapi\AppData\Local\Temp\ccjZAqnI.s:1657   .text.iotx_ota_set_cota_fetch_callback:0000000000000000 .L0 
C:\Users\stapi\AppData\Local\Temp\ccjZAqnI.s:1658   .text.iotx_ota_set_cota_fetch_callback:0000000000000000 .L0 
C:\Users\stapi\AppData\Local\Temp\ccjZAqnI.s:1661   .text.iotx_ota_set_cota_fetch_callback:0000000000000002 .L0 
C:\Users\stapi\AppData\Local\Temp\ccjZAqnI.s:1662   .text.iotx_ota_set_cota_fetch_callback:0000000000000002 .L0 
C:\Users\stapi\AppData\Local\Temp\ccjZAqnI.s:1665   .text.iotx_ota_set_cota_fetch_callback:0000000000000004 .L0 
C:\Users\stapi\AppData\Local\Temp\ccjZAqnI.s:1667   .text.iotx_ota_set_cota_fetch_callback:0000000000000006 .L0 
C:\Users\stapi\AppData\Local\Temp\ccjZAqnI.s:1669   .text.iotx_ota_set_cota_fetch_callback:0000000000000008 .L0 
C:\Users\stapi\AppData\Local\Temp\ccjZAqnI.s:1670   .text.iotx_ota_set_cota_fetch_callback:0000000000000008 .L0 
C:\Users\stapi\AppData\Local\Temp\ccjZAqnI.s:1672   .text.iotx_ota_set_cota_fetch_callback:000000000000000c .L0 
C:\Users\stapi\AppData\Local\Temp\ccjZAqnI.s:1673   .text.iotx_ota_set_cota_fetch_callback:000000000000000c .L0 
C:\Users\stapi\AppData\Local\Temp\ccjZAqnI.s:1675   .text.iotx_ota_set_cota_fetch_callback:0000000000000010 .L0 
C:\Users\stapi\AppData\Local\Temp\ccjZAqnI.s:1676   .text.iotx_ota_set_cota_fetch_callback:0000000000000010 .L0 
C:\Users\stapi\AppData\Local\Temp\ccjZAqnI.s:1680   .text.iotx_ota_set_cota_fetch_callback:0000000000000014 .L0 
C:\Users\stapi\AppData\Local\Temp\ccjZAqnI.s:1681   .text.iotx_ota_set_cota_fetch_callback:0000000000000016 .L0 
C:\Users\stapi\AppData\Local\Temp\ccjZAqnI.s:1688   .text.iotx_ota_download:0000000000000000 iotx_ota_download
C:\Users\stapi\AppData\Local\Temp\ccjZAqnI.s:1691   .text.iotx_ota_download:0000000000000000 .L0 
C:\Users\stapi\AppData\Local\Temp\ccjZAqnI.s:1693   .text.iotx_ota_download:0000000000000000 .L0 
C:\Users\stapi\AppData\Local\Temp\ccjZAqnI.s:1694   .text.iotx_ota_download:0000000000000000 .L0 
C:\Users\stapi\AppData\Local\Temp\ccjZAqnI.s:1695   .text.iotx_ota_download:0000000000000000 .L0 
C:\Users\stapi\AppData\Local\Temp\ccjZAqnI.s:1698   .text.iotx_ota_download:000000000000000a .L0 
C:\Users\stapi\AppData\Local\Temp\ccjZAqnI.s:1724   .text.IOT_OTA_Init:0000000000000000 IOT_OTA_Init
C:\Users\stapi\AppData\Local\Temp\ccjZAqnI.s:1727   .text.IOT_OTA_Init:0000000000000000 .L0 
C:\Users\stapi\AppData\Local\Temp\ccjZAqnI.s:1729   .text.IOT_OTA_Init:0000000000000000 .L0 
C:\Users\stapi\AppData\Local\Temp\ccjZAqnI.s:1730   .text.IOT_OTA_Init:0000000000000008 .L0 
C:\Users\stapi\AppData\Local\Temp\ccjZAqnI.s:1731   .text.IOT_OTA_Init:0000000000000008 .L0 
C:\Users\stapi\AppData\Local\Temp\ccjZAqnI.s:1732   .text.IOT_OTA_Init:0000000000000008 .L0 
C:\Users\stapi\AppData\Local\Temp\ccjZAqnI.s:1733   .text.IOT_OTA_Init:0000000000000008 .L0 
C:\Users\stapi\AppData\Local\Temp\ccjZAqnI.s:1734   .text.IOT_OTA_Init:0000000000000008 .L0 
C:\Users\stapi\AppData\Local\Temp\ccjZAqnI.s:1735   .text.IOT_OTA_Init:0000000000000008 .L0 
C:\Users\stapi\AppData\Local\Temp\ccjZAqnI.s:1736   .text.IOT_OTA_Init:0000000000000008 .L0 
C:\Users\stapi\AppData\Local\Temp\ccjZAqnI.s:1737   .text.IOT_OTA_Init:0000000000000008 .L0 
C:\Users\stapi\AppData\Local\Temp\ccjZAqnI.s:1740   .text.IOT_OTA_Init:0000000000000008 .L0 
C:\Users\stapi\AppData\Local\Temp\ccjZAqnI.s:1741   .text.IOT_OTA_Init:0000000000000008 .L0 
C:\Users\stapi\AppData\Local\Temp\ccjZAqnI.s:1742   .text.IOT_OTA_Init:0000000000000008 .L0 
C:\Users\stapi\AppData\Local\Temp\ccjZAqnI.s:1745   .text.IOT_OTA_Init:0000000000000010 .L0 
C:\Users\stapi\AppData\Local\Temp\ccjZAqnI.s:1749   .text.IOT_OTA_Init:000000000000001a .L0 
C:\Users\stapi\AppData\Local\Temp\ccjZAqnI.s:1750   .text.IOT_OTA_Init:000000000000001a .L0 
C:\Users\stapi\AppData\Local\Temp\ccjZAqnI.s:1756   .text.IOT_OTA_Init:000000000000002a .L0 
C:\Users\stapi\AppData\Local\Temp\ccjZAqnI.s:1760   .text.IOT_OTA_Init:0000000000000032 .L0 
C:\Users\stapi\AppData\Local\Temp\ccjZAqnI.s:1763   .text.IOT_OTA_Init:000000000000003a .L0 
C:\Users\stapi\AppData\Local\Temp\ccjZAqnI.s:1768   .text.IOT_OTA_Init:000000000000004a .L0 
C:\Users\stapi\AppData\Local\Temp\ccjZAqnI.s:1770   .text.IOT_OTA_Init:000000000000004a .L0 
C:\Users\stapi\AppData\Local\Temp\ccjZAqnI.s:1771   .text.IOT_OTA_Init:000000000000004a .L0 
C:\Users\stapi\AppData\Local\Temp\ccjZAqnI.s:1772   .text.IOT_OTA_Init:000000000000004a .L0 
C:\Users\stapi\AppData\Local\Temp\ccjZAqnI.s:1778   .text.IOT_OTA_Init:0000000000000050 .L0 
C:\Users\stapi\AppData\Local\Temp\ccjZAqnI.s:1779   .text.IOT_OTA_Init:0000000000000050 .L0 
C:\Users\stapi\AppData\Local\Temp\ccjZAqnI.s:1782   .text.IOT_OTA_Init:0000000000000054 .L0 
C:\Users\stapi\AppData\Local\Temp\ccjZAqnI.s:1785   .text.IOT_OTA_Init:0000000000000056 .L0 
C:\Users\stapi\AppData\Local\Temp\ccjZAqnI.s:1786   .text.IOT_OTA_Init:0000000000000056 .L0 
C:\Users\stapi\AppData\Local\Temp\ccjZAqnI.s:1792   .text.IOT_OTA_Init:0000000000000066 .L0 
C:\Users\stapi\AppData\Local\Temp\ccjZAqnI.s:1799   .text.IOT_OTA_Init:0000000000000072 .L0 
C:\Users\stapi\AppData\Local\Temp\ccjZAqnI.s:1800   .text.IOT_OTA_Init:0000000000000072 .L0 
C:\Users\stapi\AppData\Local\Temp\ccjZAqnI.s:1810   .text.IOT_OTA_Init:0000000000000084 .L0 
C:\Users\stapi\AppData\Local\Temp\ccjZAqnI.s:1812   .text.IOT_OTA_Init:0000000000000086 .L0 
C:\Users\stapi\AppData\Local\Temp\ccjZAqnI.s:1813   .text.IOT_OTA_Init:0000000000000086 .L0 
C:\Users\stapi\AppData\Local\Temp\ccjZAqnI.s:1818   .text.IOT_OTA_Init:0000000000000096 .L0 
C:\Users\stapi\AppData\Local\Temp\ccjZAqnI.s:1823   .text.IOT_OTA_Init:00000000000000a6 .L0 
C:\Users\stapi\AppData\Local\Temp\ccjZAqnI.s:1828   .text.IOT_OTA_Init:00000000000000b6 .L0 
C:\Users\stapi\AppData\Local\Temp\ccjZAqnI.s:1830   .text.IOT_OTA_Init:00000000000000b6 .L0 
C:\Users\stapi\AppData\Local\Temp\ccjZAqnI.s:1831   .text.IOT_OTA_Init:00000000000000b6 .L0 
C:\Users\stapi\AppData\Local\Temp\ccjZAqnI.s:1833   .text.IOT_OTA_Init:00000000000000c0 .L0 
C:\Users\stapi\AppData\Local\Temp\ccjZAqnI.s:1834   .text.IOT_OTA_Init:00000000000000c0 .L0 
C:\Users\stapi\AppData\Local\Temp\ccjZAqnI.s:1835   .text.IOT_OTA_Init:00000000000000c0 .L0 
C:\Users\stapi\AppData\Local\Temp\ccjZAqnI.s:1836   .text.IOT_OTA_Init:00000000000000c0 .L0 
C:\Users\stapi\AppData\Local\Temp\ccjZAqnI.s:1837   .text.IOT_OTA_Init:00000000000000c0 .L0 
C:\Users\stapi\AppData\Local\Temp\ccjZAqnI.s:1838   .text.IOT_OTA_Init:00000000000000c0 .L0 
C:\Users\stapi\AppData\Local\Temp\ccjZAqnI.s:1839   .text.IOT_OTA_Init:00000000000000c0 .L0 
C:\Users\stapi\AppData\Local\Temp\ccjZAqnI.s:1840   .text.IOT_OTA_Init:00000000000000c0 .L0 
C:\Users\stapi\AppData\Local\Temp\ccjZAqnI.s:1841   .text.IOT_OTA_Init:00000000000000c0 .L0 
C:\Users\stapi\AppData\Local\Temp\ccjZAqnI.s:1844   .text.IOT_OTA_Init:00000000000000c0 .L0 
C:\Users\stapi\AppData\Local\Temp\ccjZAqnI.s:1846   .text.IOT_OTA_Init:00000000000000c0 .L0 
C:\Users\stapi\AppData\Local\Temp\ccjZAqnI.s:1851   .text.IOT_OTA_Init:00000000000000ce .L0 
C:\Users\stapi\AppData\Local\Temp\ccjZAqnI.s:1852   .text.IOT_OTA_Init:00000000000000ce .L0 
C:\Users\stapi\AppData\Local\Temp\ccjZAqnI.s:1853   .text.IOT_OTA_Init:00000000000000ce .L0 
C:\Users\stapi\AppData\Local\Temp\ccjZAqnI.s:1854   .text.IOT_OTA_Init:00000000000000ce .L0 
C:\Users\stapi\AppData\Local\Temp\ccjZAqnI.s:1863   .text.IOT_OTA_Init:00000000000000e6 .L0 
C:\Users\stapi\AppData\Local\Temp\ccjZAqnI.s:1865   .text.IOT_OTA_Init:00000000000000e8 .L0 
C:\Users\stapi\AppData\Local\Temp\ccjZAqnI.s:1866   .text.IOT_OTA_Init:00000000000000e8 .L0 
C:\Users\stapi\AppData\Local\Temp\ccjZAqnI.s:1868   .text.IOT_OTA_Init:00000000000000ea .L0 
C:\Users\stapi\AppData\Local\Temp\ccjZAqnI.s:1869   .text.IOT_OTA_Init:00000000000000ea .L0 
C:\Users\stapi\AppData\Local\Temp\ccjZAqnI.s:1874   .text.IOT_OTA_Init:00000000000000fa .L0 
C:\Users\stapi\AppData\Local\Temp\ccjZAqnI.s:1879   .text.IOT_OTA_Init:0000000000000102 .L0 
C:\Users\stapi\AppData\Local\Temp\ccjZAqnI.s:1882   .text.IOT_OTA_Init:000000000000010a .L0 
C:\Users\stapi\AppData\Local\Temp\ccjZAqnI.s:1887   .text.IOT_OTA_Init:000000000000011a .L0 
C:\Users\stapi\AppData\Local\Temp\ccjZAqnI.s:1888   .text.IOT_OTA_Init:000000000000011a .L0 
C:\Users\stapi\AppData\Local\Temp\ccjZAqnI.s:1889   .text.IOT_OTA_Init:000000000000011a .L0 
C:\Users\stapi\AppData\Local\Temp\ccjZAqnI.s:1890   .text.IOT_OTA_Init:000000000000011a .L0 
C:\Users\stapi\AppData\Local\Temp\ccjZAqnI.s:1892   .text.IOT_OTA_Init:000000000000011c .L0 
C:\Users\stapi\AppData\Local\Temp\ccjZAqnI.s:1894   .text.IOT_OTA_Init:000000000000011e .L0 
C:\Users\stapi\AppData\Local\Temp\ccjZAqnI.s:1898   .text.IOT_OTA_Init:0000000000000126 .L0 
C:\Users\stapi\AppData\Local\Temp\ccjZAqnI.s:1899   .text.IOT_OTA_Init:0000000000000126 .L0 
C:\Users\stapi\AppData\Local\Temp\ccjZAqnI.s:1901   .text.IOT_OTA_Init:0000000000000128 .L0 
C:\Users\stapi\AppData\Local\Temp\ccjZAqnI.s:1903   .text.IOT_OTA_Init:000000000000012a .L0 
C:\Users\stapi\AppData\Local\Temp\ccjZAqnI.s:1907   .text.IOT_OTA_Init:0000000000000132 .L0 
C:\Users\stapi\AppData\Local\Temp\ccjZAqnI.s:1908   .text.IOT_OTA_Init:0000000000000132 .L0 
C:\Users\stapi\AppData\Local\Temp\ccjZAqnI.s:1910   .text.IOT_OTA_Init:0000000000000134 .L0 
C:\Users\stapi\AppData\Local\Temp\ccjZAqnI.s:1912   .text.IOT_OTA_Init:0000000000000136 .L0 
C:\Users\stapi\AppData\Local\Temp\ccjZAqnI.s:1916   .text.IOT_OTA_Init:000000000000013e .L0 
C:\Users\stapi\AppData\Local\Temp\ccjZAqnI.s:1917   .text.IOT_OTA_Init:000000000000013e .L0 
C:\Users\stapi\AppData\Local\Temp\ccjZAqnI.s:1923   .text.IOT_OTA_Init:000000000000014a .L0 
C:\Users\stapi\AppData\Local\Temp\ccjZAqnI.s:1924   .text.IOT_OTA_Init:000000000000014a .L0 
C:\Users\stapi\AppData\Local\Temp\ccjZAqnI.s:1927   .text.IOT_OTA_Init:0000000000000152 .L0 
C:\Users\stapi\AppData\Local\Temp\ccjZAqnI.s:1929   .text.IOT_OTA_Init:0000000000000154 .L0 
C:\Users\stapi\AppData\Local\Temp\ccjZAqnI.s:1930   .text.IOT_OTA_Init:0000000000000154 .L0 
C:\Users\stapi\AppData\Local\Temp\ccjZAqnI.s:1932   .text.IOT_OTA_Init:0000000000000156 .L0 
C:\Users\stapi\AppData\Local\Temp\ccjZAqnI.s:1933   .text.IOT_OTA_Init:0000000000000156 .L0 
C:\Users\stapi\AppData\Local\Temp\ccjZAqnI.s:1938   .text.IOT_OTA_Init:0000000000000166 .L0 
C:\Users\stapi\AppData\Local\Temp\ccjZAqnI.s:1943   .text.IOT_OTA_Init:0000000000000170 .L0 
C:\Users\stapi\AppData\Local\Temp\ccjZAqnI.s:1944   .text.IOT_OTA_Init:0000000000000170 .L0 
C:\Users\stapi\AppData\Local\Temp\ccjZAqnI.s:1947   .text.IOT_OTA_Init:0000000000000178 .L0 
C:\Users\stapi\AppData\Local\Temp\ccjZAqnI.s:1949   .text.IOT_OTA_Init:000000000000017a .L0 
C:\Users\stapi\AppData\Local\Temp\ccjZAqnI.s:1950   .text.IOT_OTA_Init:000000000000017a .L0 
C:\Users\stapi\AppData\Local\Temp\ccjZAqnI.s:1952   .text.IOT_OTA_Init:000000000000017c .L0 
C:\Users\stapi\AppData\Local\Temp\ccjZAqnI.s:1953   .text.IOT_OTA_Init:000000000000017c .L0 
C:\Users\stapi\AppData\Local\Temp\ccjZAqnI.s:1958   .text.IOT_OTA_Init:000000000000018c .L0 
C:\Users\stapi\AppData\Local\Temp\ccjZAqnI.s:1963   .text.IOT_OTA_Init:0000000000000196 .L0 
C:\Users\stapi\AppData\Local\Temp\ccjZAqnI.s:1964   .text.IOT_OTA_Init:0000000000000196 .L0 
C:\Users\stapi\AppData\Local\Temp\ccjZAqnI.s:1966   .text.IOT_OTA_Init:000000000000019a .L0 
C:\Users\stapi\AppData\Local\Temp\ccjZAqnI.s:1967   .text.IOT_OTA_Init:000000000000019a .L0 
C:\Users\stapi\AppData\Local\Temp\ccjZAqnI.s:1969   .text.IOT_OTA_Init:000000000000019c .L0 
C:\Users\stapi\AppData\Local\Temp\ccjZAqnI.s:1970   .text.IOT_OTA_Init:000000000000019c .L0 
C:\Users\stapi\AppData\Local\Temp\ccjZAqnI.s:1972   .text.IOT_OTA_Init:00000000000001a0 .L0 
C:\Users\stapi\AppData\Local\Temp\ccjZAqnI.s:1973   .text.IOT_OTA_Init:00000000000001a0 .L0 
C:\Users\stapi\AppData\Local\Temp\ccjZAqnI.s:1975   .text.IOT_OTA_Init:00000000000001a4 .L0 
C:\Users\stapi\AppData\Local\Temp\ccjZAqnI.s:1976   .text.IOT_OTA_Init:00000000000001a4 .L0 
C:\Users\stapi\AppData\Local\Temp\ccjZAqnI.s:1977   .text.IOT_OTA_Init:00000000000001a6 .L0 
C:\Users\stapi\AppData\Local\Temp\ccjZAqnI.s:1991   .text.IOT_OTA_Deinit:0000000000000000 IOT_OTA_Deinit
C:\Users\stapi\AppData\Local\Temp\ccjZAqnI.s:1994   .text.IOT_OTA_Deinit:0000000000000000 .L0 
C:\Users\stapi\AppData\Local\Temp\ccjZAqnI.s:1996   .text.IOT_OTA_Deinit:0000000000000000 .L0 
C:\Users\stapi\AppData\Local\Temp\ccjZAqnI.s:1997   .text.IOT_OTA_Deinit:0000000000000008 .L0 
C:\Users\stapi\AppData\Local\Temp\ccjZAqnI.s:1998   .text.IOT_OTA_Deinit:0000000000000008 .L0 
C:\Users\stapi\AppData\Local\Temp\ccjZAqnI.s:1999   .text.IOT_OTA_Deinit:0000000000000008 .L0 
C:\Users\stapi\AppData\Local\Temp\ccjZAqnI.s:2002   .text.IOT_OTA_Deinit:0000000000000008 .L0 
C:\Users\stapi\AppData\Local\Temp\ccjZAqnI.s:2003   .text.IOT_OTA_Deinit:0000000000000008 .L0 
C:\Users\stapi\AppData\Local\Temp\ccjZAqnI.s:2004   .text.IOT_OTA_Deinit:0000000000000008 .L0 
C:\Users\stapi\AppData\Local\Temp\ccjZAqnI.s:2006   .text.IOT_OTA_Deinit:000000000000000a .L0 
C:\Users\stapi\AppData\Local\Temp\ccjZAqnI.s:2007   .text.IOT_OTA_Deinit:000000000000000a .L0 
C:\Users\stapi\AppData\Local\Temp\ccjZAqnI.s:2013   .text.IOT_OTA_Deinit:000000000000001a .L0 
C:\Users\stapi\AppData\Local\Temp\ccjZAqnI.s:2018   .text.IOT_OTA_Deinit:000000000000002a .L0 
C:\Users\stapi\AppData\Local\Temp\ccjZAqnI.s:2023   .text.IOT_OTA_Deinit:000000000000003a .L0 
C:\Users\stapi\AppData\Local\Temp\ccjZAqnI.s:2024   .text.IOT_OTA_Deinit:000000000000003a .L0 
C:\Users\stapi\AppData\Local\Temp\ccjZAqnI.s:2025   .text.IOT_OTA_Deinit:000000000000003a .L0 
C:\Users\stapi\AppData\Local\Temp\ccjZAqnI.s:2028   .text.IOT_OTA_Deinit:000000000000003c .L0 
C:\Users\stapi\AppData\Local\Temp\ccjZAqnI.s:2029   .text.IOT_OTA_Deinit:0000000000000044 .L0 
C:\Users\stapi\AppData\Local\Temp\ccjZAqnI.s:2030   .text.IOT_OTA_Deinit:0000000000000044 .L0 
C:\Users\stapi\AppData\Local\Temp\ccjZAqnI.s:2031   .text.IOT_OTA_Deinit:0000000000000044 .L0 
C:\Users\stapi\AppData\Local\Temp\ccjZAqnI.s:2032   .text.IOT_OTA_Deinit:0000000000000044 .L0 
C:\Users\stapi\AppData\Local\Temp\ccjZAqnI.s:2035   .text.IOT_OTA_Deinit:0000000000000044 .L0 
C:\Users\stapi\AppData\Local\Temp\ccjZAqnI.s:2037   .text.IOT_OTA_Deinit:0000000000000044 .L0 
C:\Users\stapi\AppData\Local\Temp\ccjZAqnI.s:2040   .text.IOT_OTA_Deinit:0000000000000048 .L0 
C:\Users\stapi\AppData\Local\Temp\ccjZAqnI.s:2041   .text.IOT_OTA_Deinit:0000000000000048 .L0 
C:\Users\stapi\AppData\Local\Temp\ccjZAqnI.s:2044   .text.IOT_OTA_Deinit:000000000000004a .L0 
C:\Users\stapi\AppData\Local\Temp\ccjZAqnI.s:2045   .text.IOT_OTA_Deinit:000000000000004a .L0 
C:\Users\stapi\AppData\Local\Temp\ccjZAqnI.s:2050   .text.IOT_OTA_Deinit:000000000000005a .L0 
C:\Users\stapi\AppData\Local\Temp\ccjZAqnI.s:2055   .text.IOT_OTA_Deinit:000000000000006a .L0 
C:\Users\stapi\AppData\Local\Temp\ccjZAqnI.s:2060   .text.IOT_OTA_Deinit:000000000000007a .L0 
C:\Users\stapi\AppData\Local\Temp\ccjZAqnI.s:2061   .text.IOT_OTA_Deinit:000000000000007a .L0 
C:\Users\stapi\AppData\Local\Temp\ccjZAqnI.s:2062   .text.IOT_OTA_Deinit:000000000000007a .L0 
C:\Users\stapi\AppData\Local\Temp\ccjZAqnI.s:2065   .text.IOT_OTA_Deinit:000000000000007e .L0 
C:\Users\stapi\AppData\Local\Temp\ccjZAqnI.s:2066   .text.IOT_OTA_Deinit:000000000000007e .L0 
C:\Users\stapi\AppData\Local\Temp\ccjZAqnI.s:2070   .text.IOT_OTA_Deinit:0000000000000082 .L0 
C:\Users\stapi\AppData\Local\Temp\ccjZAqnI.s:2071   .text.IOT_OTA_Deinit:0000000000000082 .L0 
C:\Users\stapi\AppData\Local\Temp\ccjZAqnI.s:2073   .text.IOT_OTA_Deinit:0000000000000084 .L0 
C:\Users\stapi\AppData\Local\Temp\ccjZAqnI.s:2076   .text.IOT_OTA_Deinit:000000000000008c .L0 
C:\Users\stapi\AppData\Local\Temp\ccjZAqnI.s:2077   .text.IOT_OTA_Deinit:000000000000008c .L0 
C:\Users\stapi\AppData\Local\Temp\ccjZAqnI.s:2079   .text.IOT_OTA_Deinit:000000000000008e .L0 
C:\Users\stapi\AppData\Local\Temp\ccjZAqnI.s:2083   .text.IOT_OTA_Deinit:0000000000000096 .L0 
C:\Users\stapi\AppData\Local\Temp\ccjZAqnI.s:2084   .text.IOT_OTA_Deinit:0000000000000096 .L0 
C:\Users\stapi\AppData\Local\Temp\ccjZAqnI.s:2086   .text.IOT_OTA_Deinit:0000000000000098 .L0 
C:\Users\stapi\AppData\Local\Temp\ccjZAqnI.s:2088   .text.IOT_OTA_Deinit:000000000000009a .L0 
C:\Users\stapi\AppData\Local\Temp\ccjZAqnI.s:2092   .text.IOT_OTA_Deinit:00000000000000a2 .L0 
C:\Users\stapi\AppData\Local\Temp\ccjZAqnI.s:2093   .text.IOT_OTA_Deinit:00000000000000a2 .L0 
C:\Users\stapi\AppData\Local\Temp\ccjZAqnI.s:2095   .text.IOT_OTA_Deinit:00000000000000a4 .L0 
C:\Users\stapi\AppData\Local\Temp\ccjZAqnI.s:2097   .text.IOT_OTA_Deinit:00000000000000a6 .L0 
C:\Users\stapi\AppData\Local\Temp\ccjZAqnI.s:2101   .text.IOT_OTA_Deinit:00000000000000ae .L0 
C:\Users\stapi\AppData\Local\Temp\ccjZAqnI.s:2102   .text.IOT_OTA_Deinit:00000000000000ae .L0 
C:\Users\stapi\AppData\Local\Temp\ccjZAqnI.s:2104   .text.IOT_OTA_Deinit:00000000000000b0 .L0 
C:\Users\stapi\AppData\Local\Temp\ccjZAqnI.s:2106   .text.IOT_OTA_Deinit:00000000000000b2 .L0 
C:\Users\stapi\AppData\Local\Temp\ccjZAqnI.s:2110   .text.IOT_OTA_Deinit:00000000000000ba .L0 
C:\Users\stapi\AppData\Local\Temp\ccjZAqnI.s:2111   .text.IOT_OTA_Deinit:00000000000000ba .L0 
C:\Users\stapi\AppData\Local\Temp\ccjZAqnI.s:2113   .text.IOT_OTA_Deinit:00000000000000bc .L0 
C:\Users\stapi\AppData\Local\Temp\ccjZAqnI.s:2115   .text.IOT_OTA_Deinit:00000000000000be .L0 
C:\Users\stapi\AppData\Local\Temp\ccjZAqnI.s:2119   .text.IOT_OTA_Deinit:00000000000000c6 .L0 
C:\Users\stapi\AppData\Local\Temp\ccjZAqnI.s:2120   .text.IOT_OTA_Deinit:00000000000000c6 .L0 
C:\Users\stapi\AppData\Local\Temp\ccjZAqnI.s:2122   .text.IOT_OTA_Deinit:00000000000000c8 .L0 
C:\Users\stapi\AppData\Local\Temp\ccjZAqnI.s:2124   .text.IOT_OTA_Deinit:00000000000000ca .L0 
C:\Users\stapi\AppData\Local\Temp\ccjZAqnI.s:2128   .text.IOT_OTA_Deinit:00000000000000d2 .L0 
C:\Users\stapi\AppData\Local\Temp\ccjZAqnI.s:2129   .text.IOT_OTA_Deinit:00000000000000d2 .L0 
C:\Users\stapi\AppData\Local\Temp\ccjZAqnI.s:2131   .text.IOT_OTA_Deinit:00000000000000d4 .L0 
C:\Users\stapi\AppData\Local\Temp\ccjZAqnI.s:2133   .text.IOT_OTA_Deinit:00000000000000d6 .L0 
C:\Users\stapi\AppData\Local\Temp\ccjZAqnI.s:2137   .text.IOT_OTA_Deinit:00000000000000de .L0 
C:\Users\stapi\AppData\Local\Temp\ccjZAqnI.s:2138   .text.IOT_OTA_Deinit:00000000000000de .L0 
C:\Users\stapi\AppData\Local\Temp\ccjZAqnI.s:2140   .text.IOT_OTA_Deinit:00000000000000e0 .L0 
C:\Users\stapi\AppData\Local\Temp\ccjZAqnI.s:2142   .text.IOT_OTA_Deinit:00000000000000e2 .L0 
C:\Users\stapi\AppData\Local\Temp\ccjZAqnI.s:2146   .text.IOT_OTA_Deinit:00000000000000ea .L0 
C:\Users\stapi\AppData\Local\Temp\ccjZAqnI.s:2147   .text.IOT_OTA_Deinit:00000000000000ea .L0 
C:\Users\stapi\AppData\Local\Temp\ccjZAqnI.s:2149   .text.IOT_OTA_Deinit:00000000000000ec .L0 
C:\Users\stapi\AppData\Local\Temp\ccjZAqnI.s:2151   .text.IOT_OTA_Deinit:00000000000000ee .L0 
C:\Users\stapi\AppData\Local\Temp\ccjZAqnI.s:2155   .text.IOT_OTA_Deinit:00000000000000f6 .L0 
C:\Users\stapi\AppData\Local\Temp\ccjZAqnI.s:2156   .text.IOT_OTA_Deinit:00000000000000f6 .L0 
C:\Users\stapi\AppData\Local\Temp\ccjZAqnI.s:2158   .text.IOT_OTA_Deinit:00000000000000f8 .L0 
C:\Users\stapi\AppData\Local\Temp\ccjZAqnI.s:2160   .text.IOT_OTA_Deinit:00000000000000fa .L0 
C:\Users\stapi\AppData\Local\Temp\ccjZAqnI.s:2164   .text.IOT_OTA_Deinit:0000000000000102 .L0 
C:\Users\stapi\AppData\Local\Temp\ccjZAqnI.s:2165   .text.IOT_OTA_Deinit:0000000000000102 .L0 
C:\Users\stapi\AppData\Local\Temp\ccjZAqnI.s:2167   .text.IOT_OTA_Deinit:0000000000000104 .L0 
C:\Users\stapi\AppData\Local\Temp\ccjZAqnI.s:2169   .text.IOT_OTA_Deinit:0000000000000106 .L0 
C:\Users\stapi\AppData\Local\Temp\ccjZAqnI.s:2173   .text.IOT_OTA_Deinit:000000000000010e .L0 
C:\Users\stapi\AppData\Local\Temp\ccjZAqnI.s:2177   .text.IOT_OTA_Deinit:0000000000000118 .L0 
C:\Users\stapi\AppData\Local\Temp\ccjZAqnI.s:2178   .text.IOT_OTA_Deinit:0000000000000118 .L0 
C:\Users\stapi\AppData\Local\Temp\ccjZAqnI.s:2180   .text.IOT_OTA_Deinit:000000000000011c .L0 
C:\Users\stapi\AppData\Local\Temp\ccjZAqnI.s:2203   .text.IOT_OTA_ReportVersion:0000000000000000 IOT_OTA_ReportVersion
C:\Users\stapi\AppData\Local\Temp\ccjZAqnI.s:2206   .text.IOT_OTA_ReportVersion:0000000000000000 .L0 
C:\Users\stapi\AppData\Local\Temp\ccjZAqnI.s:2208   .text.IOT_OTA_ReportVersion:0000000000000000 .L0 
C:\Users\stapi\AppData\Local\Temp\ccjZAqnI.s:2209   .text.IOT_OTA_ReportVersion:0000000000000008 .L0 
C:\Users\stapi\AppData\Local\Temp\ccjZAqnI.s:2210   .text.IOT_OTA_ReportVersion:0000000000000008 .L0 
C:\Users\stapi\AppData\Local\Temp\ccjZAqnI.s:2211   .text.IOT_OTA_ReportVersion:0000000000000008 .L0 
C:\Users\stapi\AppData\Local\Temp\ccjZAqnI.s:2212   .text.IOT_OTA_ReportVersion:0000000000000008 .L0 
C:\Users\stapi\AppData\Local\Temp\ccjZAqnI.s:2213   .text.IOT_OTA_ReportVersion:0000000000000008 .L0 
C:\Users\stapi\AppData\Local\Temp\ccjZAqnI.s:2215   .text.IOT_OTA_ReportVersion:0000000000000008 .L0 
C:\Users\stapi\AppData\Local\Temp\ccjZAqnI.s:2216   .text.IOT_OTA_ReportVersion:0000000000000008 .L0 
C:\Users\stapi\AppData\Local\Temp\ccjZAqnI.s:2218   .text.IOT_OTA_ReportVersion:0000000000000008 .L0 
C:\Users\stapi\AppData\Local\Temp\ccjZAqnI.s:2219   .text.IOT_OTA_ReportVersion:0000000000000008 .L0 
C:\Users\stapi\AppData\Local\Temp\ccjZAqnI.s:2220   .text.IOT_OTA_ReportVersion:0000000000000008 .L0 
C:\Users\stapi\AppData\Local\Temp\ccjZAqnI.s:2223   .text.IOT_OTA_ReportVersion:000000000000000c .L0 
C:\Users\stapi\AppData\Local\Temp\ccjZAqnI.s:2226   .text.IOT_OTA_ReportVersion:000000000000000e .L0 
C:\Users\stapi\AppData\Local\Temp\ccjZAqnI.s:2227   .text.IOT_OTA_ReportVersion:000000000000000e .L0 
C:\Users\stapi\AppData\Local\Temp\ccjZAqnI.s:2233   .text.IOT_OTA_ReportVersion:000000000000001e .L0 
C:\Users\stapi\AppData\Local\Temp\ccjZAqnI.s:2238   .text.IOT_OTA_ReportVersion:000000000000002e .L0 
C:\Users\stapi\AppData\Local\Temp\ccjZAqnI.s:2243   .text.IOT_OTA_ReportVersion:000000000000003e .L0 
C:\Users\stapi\AppData\Local\Temp\ccjZAqnI.s:2244   .text.IOT_OTA_ReportVersion:000000000000003e .L0 
C:\Users\stapi\AppData\Local\Temp\ccjZAqnI.s:2245   .text.IOT_OTA_ReportVersion:000000000000003e .L0 
C:\Users\stapi\AppData\Local\Temp\ccjZAqnI.s:2248   .text.IOT_OTA_ReportVersion:0000000000000040 .L0 
C:\Users\stapi\AppData\Local\Temp\ccjZAqnI.s:2250   .text.IOT_OTA_ReportVersion:000000000000004a .L0 
C:\Users\stapi\AppData\Local\Temp\ccjZAqnI.s:2251   .text.IOT_OTA_ReportVersion:000000000000004a .L0 
C:\Users\stapi\AppData\Local\Temp\ccjZAqnI.s:2252   .text.IOT_OTA_ReportVersion:000000000000004a .L0 
C:\Users\stapi\AppData\Local\Temp\ccjZAqnI.s:2253   .text.IOT_OTA_ReportVersion:000000000000004a .L0 
C:\Users\stapi\AppData\Local\Temp\ccjZAqnI.s:2254   .text.IOT_OTA_ReportVersion:000000000000004a .L0 
C:\Users\stapi\AppData\Local\Temp\ccjZAqnI.s:2255   .text.IOT_OTA_ReportVersion:000000000000004a .L0 
C:\Users\stapi\AppData\Local\Temp\ccjZAqnI.s:2258   .text.IOT_OTA_ReportVersion:000000000000004a .L0 
C:\Users\stapi\AppData\Local\Temp\ccjZAqnI.s:2261   .text.IOT_OTA_ReportVersion:000000000000004c .L0 
C:\Users\stapi\AppData\Local\Temp\ccjZAqnI.s:2262   .text.IOT_OTA_ReportVersion:000000000000004c .L0 
C:\Users\stapi\AppData\Local\Temp\ccjZAqnI.s:2267   .text.IOT_OTA_ReportVersion:0000000000000056 .L0 
C:\Users\stapi\AppData\Local\Temp\ccjZAqnI.s:2268   .text.IOT_OTA_ReportVersion:0000000000000056 .L0 
C:\Users\stapi\AppData\Local\Temp\ccjZAqnI.s:2271   .text.IOT_OTA_ReportVersion:0000000000000058 .L0 
C:\Users\stapi\AppData\Local\Temp\ccjZAqnI.s:2274   .text.IOT_OTA_ReportVersion:000000000000005e .L0 
C:\Users\stapi\AppData\Local\Temp\ccjZAqnI.s:2275   .text.IOT_OTA_ReportVersion:000000000000005e .L0 
C:\Users\stapi\AppData\Local\Temp\ccjZAqnI.s:2281   .text.IOT_OTA_ReportVersion:000000000000006e .L0 
C:\Users\stapi\AppData\Local\Temp\ccjZAqnI.s:2286   .text.IOT_OTA_ReportVersion:000000000000007e .L0 
C:\Users\stapi\AppData\Local\Temp\ccjZAqnI.s:2291   .text.IOT_OTA_ReportVersion:000000000000008e .L0 
C:\Users\stapi\AppData\Local\Temp\ccjZAqnI.s:2292   .text.IOT_OTA_ReportVersion:000000000000008e .L0 
C:\Users\stapi\AppData\Local\Temp\ccjZAqnI.s:2293   .text.IOT_OTA_ReportVersion:000000000000008e .L0 
C:\Users\stapi\AppData\Local\Temp\ccjZAqnI.s:2296   .text.IOT_OTA_ReportVersion:0000000000000090 .L0 
C:\Users\stapi\AppData\Local\Temp\ccjZAqnI.s:2298   .text.IOT_OTA_ReportVersion:0000000000000092 .L0 
C:\Users\stapi\AppData\Local\Temp\ccjZAqnI.s:2299   .text.IOT_OTA_ReportVersion:0000000000000092 .L0 
C:\Users\stapi\AppData\Local\Temp\ccjZAqnI.s:2305   .text.IOT_OTA_ReportVersion:0000000000000096 .L0 
C:\Users\stapi\AppData\Local\Temp\ccjZAqnI.s:2306   .text.IOT_OTA_ReportVersion:0000000000000096 .L0 
C:\Users\stapi\AppData\Local\Temp\ccjZAqnI.s:2309   .text.IOT_OTA_ReportVersion:000000000000009a .L0 
C:\Users\stapi\AppData\Local\Temp\ccjZAqnI.s:2310   .text.IOT_OTA_ReportVersion:000000000000009a .L0 
C:\Users\stapi\AppData\Local\Temp\ccjZAqnI.s:2316   .text.IOT_OTA_ReportVersion:00000000000000aa .L0 
C:\Users\stapi\AppData\Local\Temp\ccjZAqnI.s:2321   .text.IOT_OTA_ReportVersion:00000000000000ba .L0 
C:\Users\stapi\AppData\Local\Temp\ccjZAqnI.s:2326   .text.IOT_OTA_ReportVersion:00000000000000ca .L0 
C:\Users\stapi\AppData\Local\Temp\ccjZAqnI.s:2327   .text.IOT_OTA_ReportVersion:00000000000000ca .L0 
C:\Users\stapi\AppData\Local\Temp\ccjZAqnI.s:2328   .text.IOT_OTA_ReportVersion:00000000000000ca .L0 
C:\Users\stapi\AppData\Local\Temp\ccjZAqnI.s:2333   .text.IOT_OTA_ReportVersion:00000000000000ce .L0 
C:\Users\stapi\AppData\Local\Temp\ccjZAqnI.s:2334   .text.IOT_OTA_ReportVersion:00000000000000ce .L0 
C:\Users\stapi\AppData\Local\Temp\ccjZAqnI.s:2343   .text.IOT_OTA_ReportVersion:00000000000000e0 .L0 
C:\Users\stapi\AppData\Local\Temp\ccjZAqnI.s:2345   .text.IOT_OTA_ReportVersion:00000000000000e2 .L0 
C:\Users\stapi\AppData\Local\Temp\ccjZAqnI.s:2346   .text.IOT_OTA_ReportVersion:00000000000000e2 .L0 
C:\Users\stapi\AppData\Local\Temp\ccjZAqnI.s:2352   .text.IOT_OTA_ReportVersion:00000000000000f2 .L0 
C:\Users\stapi\AppData\Local\Temp\ccjZAqnI.s:2357   .text.IOT_OTA_ReportVersion:0000000000000102 .L0 
C:\Users\stapi\AppData\Local\Temp\ccjZAqnI.s:2362   .text.IOT_OTA_ReportVersion:0000000000000112 .L0 
C:\Users\stapi\AppData\Local\Temp\ccjZAqnI.s:2363   .text.IOT_OTA_ReportVersion:0000000000000112 .L0 
C:\Users\stapi\AppData\Local\Temp\ccjZAqnI.s:2364   .text.IOT_OTA_ReportVersion:0000000000000112 .L0 
C:\Users\stapi\AppData\Local\Temp\ccjZAqnI.s:2369   .text.IOT_OTA_ReportVersion:0000000000000116 .L0 
C:\Users\stapi\AppData\Local\Temp\ccjZAqnI.s:2370   .text.IOT_OTA_ReportVersion:0000000000000116 .L0 
C:\Users\stapi\AppData\Local\Temp\ccjZAqnI.s:2378   .text.IOT_OTA_ReportVersion:0000000000000128 .L0 
C:\Users\stapi\AppData\Local\Temp\ccjZAqnI.s:2379   .text.IOT_OTA_ReportVersion:0000000000000128 .L0 
C:\Users\stapi\AppData\Local\Temp\ccjZAqnI.s:2381   .text.IOT_OTA_ReportVersion:000000000000012a .L0 
C:\Users\stapi\AppData\Local\Temp\ccjZAqnI.s:2382   .text.IOT_OTA_ReportVersion:000000000000012a .L0 
C:\Users\stapi\AppData\Local\Temp\ccjZAqnI.s:2387   .text.IOT_OTA_ReportVersion:000000000000013a .L0 
C:\Users\stapi\AppData\Local\Temp\ccjZAqnI.s:2391   .text.IOT_OTA_ReportVersion:0000000000000142 .L0 
C:\Users\stapi\AppData\Local\Temp\ccjZAqnI.s:2394   .text.IOT_OTA_ReportVersion:000000000000014a .L0 
C:\Users\stapi\AppData\Local\Temp\ccjZAqnI.s:2399   .text.IOT_OTA_ReportVersion:000000000000015a .L0 
C:\Users\stapi\AppData\Local\Temp\ccjZAqnI.s:2400   .text.IOT_OTA_ReportVersion:000000000000015a .L0 
C:\Users\stapi\AppData\Local\Temp\ccjZAqnI.s:2401   .text.IOT_OTA_ReportVersion:000000000000015a .L0 
C:\Users\stapi\AppData\Local\Temp\ccjZAqnI.s:2404   .text.IOT_OTA_ReportVersion:000000000000015c .L0 
C:\Users\stapi\AppData\Local\Temp\ccjZAqnI.s:2405   .text.IOT_OTA_ReportVersion:000000000000015c .L0 
C:\Users\stapi\AppData\Local\Temp\ccjZAqnI.s:2406   .text.IOT_OTA_ReportVersion:000000000000015c .L0 
C:\Users\stapi\AppData\Local\Temp\ccjZAqnI.s:2410   .text.IOT_OTA_ReportVersion:000000000000015e .L0 
C:\Users\stapi\AppData\Local\Temp\ccjZAqnI.s:2411   .text.IOT_OTA_ReportVersion:000000000000015e .L0 
C:\Users\stapi\AppData\Local\Temp\ccjZAqnI.s:2415   .text.IOT_OTA_ReportVersion:0000000000000168 .L0 
C:\Users\stapi\AppData\Local\Temp\ccjZAqnI.s:2416   .text.IOT_OTA_ReportVersion:0000000000000168 .L0 
C:\Users\stapi\AppData\Local\Temp\ccjZAqnI.s:2419   .text.IOT_OTA_ReportVersion:000000000000016a .L0 
C:\Users\stapi\AppData\Local\Temp\ccjZAqnI.s:2420   .text.IOT_OTA_ReportVersion:000000000000016a .L0 
C:\Users\stapi\AppData\Local\Temp\ccjZAqnI.s:2427   .text.IOT_OTA_ReportVersion:0000000000000178 .L0 
C:\Users\stapi\AppData\Local\Temp\ccjZAqnI.s:2428   .text.IOT_OTA_ReportVersion:0000000000000178 .L0 
C:\Users\stapi\AppData\Local\Temp\ccjZAqnI.s:2430   .text.IOT_OTA_ReportVersion:000000000000017a .L0 
C:\Users\stapi\AppData\Local\Temp\ccjZAqnI.s:2431   .text.IOT_OTA_ReportVersion:000000000000017a .L0 
C:\Users\stapi\AppData\Local\Temp\ccjZAqnI.s:2436   .text.IOT_OTA_ReportVersion:000000000000018a .L0 
C:\Users\stapi\AppData\Local\Temp\ccjZAqnI.s:2439   .text.IOT_OTA_ReportVersion:0000000000000194 .L0 
C:\Users\stapi\AppData\Local\Temp\ccjZAqnI.s:2456   .text.iotx_req_image:0000000000000000 iotx_req_image
C:\Users\stapi\AppData\Local\Temp\ccjZAqnI.s:2459   .text.iotx_req_image:0000000000000000 .L0 
C:\Users\stapi\AppData\Local\Temp\ccjZAqnI.s:2461   .text.iotx_req_image:0000000000000000 .L0 
C:\Users\stapi\AppData\Local\Temp\ccjZAqnI.s:2462   .text.iotx_req_image:0000000000000008 .L0 
C:\Users\stapi\AppData\Local\Temp\ccjZAqnI.s:2463   .text.iotx_req_image:0000000000000008 .L0 
C:\Users\stapi\AppData\Local\Temp\ccjZAqnI.s:2464   .text.iotx_req_image:0000000000000008 .L0 
C:\Users\stapi\AppData\Local\Temp\ccjZAqnI.s:2465   .text.iotx_req_image:0000000000000008 .L0 
C:\Users\stapi\AppData\Local\Temp\ccjZAqnI.s:2466   .text.iotx_req_image:0000000000000008 .L0 
C:\Users\stapi\AppData\Local\Temp\ccjZAqnI.s:2468   .text.iotx_req_image:0000000000000008 .L0 
C:\Users\stapi\AppData\Local\Temp\ccjZAqnI.s:2469   .text.iotx_req_image:0000000000000008 .L0 
C:\Users\stapi\AppData\Local\Temp\ccjZAqnI.s:2471   .text.iotx_req_image:0000000000000008 .L0 
C:\Users\stapi\AppData\Local\Temp\ccjZAqnI.s:2472   .text.iotx_req_image:0000000000000008 .L0 
C:\Users\stapi\AppData\Local\Temp\ccjZAqnI.s:2473   .text.iotx_req_image:0000000000000008 .L0 
C:\Users\stapi\AppData\Local\Temp\ccjZAqnI.s:2476   .text.iotx_req_image:000000000000000c .L0 
C:\Users\stapi\AppData\Local\Temp\ccjZAqnI.s:2479   .text.iotx_req_image:000000000000000e .L0 
C:\Users\stapi\AppData\Local\Temp\ccjZAqnI.s:2480   .text.iotx_req_image:000000000000000e .L0 
C:\Users\stapi\AppData\Local\Temp\ccjZAqnI.s:2486   .text.iotx_req_image:000000000000001e .L0 
C:\Users\stapi\AppData\Local\Temp\ccjZAqnI.s:2491   .text.iotx_req_image:000000000000002e .L0 
C:\Users\stapi\AppData\Local\Temp\ccjZAqnI.s:2496   .text.iotx_req_image:000000000000003e .L0 
C:\Users\stapi\AppData\Local\Temp\ccjZAqnI.s:2497   .text.iotx_req_image:000000000000003e .L0 
C:\Users\stapi\AppData\Local\Temp\ccjZAqnI.s:2498   .text.iotx_req_image:000000000000003e .L0 
C:\Users\stapi\AppData\Local\Temp\ccjZAqnI.s:2501   .text.iotx_req_image:0000000000000040 .L0 
C:\Users\stapi\AppData\Local\Temp\ccjZAqnI.s:2503   .text.iotx_req_image:000000000000004a .L0 
C:\Users\stapi\AppData\Local\Temp\ccjZAqnI.s:2504   .text.iotx_req_image:000000000000004a .L0 
C:\Users\stapi\AppData\Local\Temp\ccjZAqnI.s:2505   .text.iotx_req_image:000000000000004a .L0 
C:\Users\stapi\AppData\Local\Temp\ccjZAqnI.s:2506   .text.iotx_req_image:000000000000004a .L0 
C:\Users\stapi\AppData\Local\Temp\ccjZAqnI.s:2507   .text.iotx_req_image:000000000000004a .L0 
C:\Users\stapi\AppData\Local\Temp\ccjZAqnI.s:2508   .text.iotx_req_image:000000000000004a .L0 
C:\Users\stapi\AppData\Local\Temp\ccjZAqnI.s:2511   .text.iotx_req_image:000000000000004a .L0 
C:\Users\stapi\AppData\Local\Temp\ccjZAqnI.s:2514   .text.iotx_req_image:000000000000004c .L0 
C:\Users\stapi\AppData\Local\Temp\ccjZAqnI.s:2515   .text.iotx_req_image:000000000000004c .L0 
C:\Users\stapi\AppData\Local\Temp\ccjZAqnI.s:2520   .text.iotx_req_image:0000000000000056 .L0 
C:\Users\stapi\AppData\Local\Temp\ccjZAqnI.s:2521   .text.iotx_req_image:0000000000000056 .L0 
C:\Users\stapi\AppData\Local\Temp\ccjZAqnI.s:2524   .text.iotx_req_image:0000000000000058 .L0 
C:\Users\stapi\AppData\Local\Temp\ccjZAqnI.s:2527   .text.iotx_req_image:000000000000005e .L0 
C:\Users\stapi\AppData\Local\Temp\ccjZAqnI.s:2528   .text.iotx_req_image:000000000000005e .L0 
C:\Users\stapi\AppData\Local\Temp\ccjZAqnI.s:2534   .text.iotx_req_image:000000000000006e .L0 
C:\Users\stapi\AppData\Local\Temp\ccjZAqnI.s:2539   .text.iotx_req_image:000000000000007e .L0 
C:\Users\stapi\AppData\Local\Temp\ccjZAqnI.s:2544   .text.iotx_req_image:000000000000008e .L0 
C:\Users\stapi\AppData\Local\Temp\ccjZAqnI.s:2545   .text.iotx_req_image:000000000000008e .L0 
C:\Users\stapi\AppData\Local\Temp\ccjZAqnI.s:2546   .text.iotx_req_image:000000000000008e .L0 
C:\Users\stapi\AppData\Local\Temp\ccjZAqnI.s:2549   .text.iotx_req_image:0000000000000090 .L0 
C:\Users\stapi\AppData\Local\Temp\ccjZAqnI.s:2551   .text.iotx_req_image:0000000000000092 .L0 
C:\Users\stapi\AppData\Local\Temp\ccjZAqnI.s:2552   .text.iotx_req_image:0000000000000092 .L0 
C:\Users\stapi\AppData\Local\Temp\ccjZAqnI.s:2558   .text.iotx_req_image:0000000000000096 .L0 
C:\Users\stapi\AppData\Local\Temp\ccjZAqnI.s:2559   .text.iotx_req_image:0000000000000096 .L0 
C:\Users\stapi\AppData\Local\Temp\ccjZAqnI.s:2561   .text.iotx_req_image:0000000000000098 .L0 
C:\Users\stapi\AppData\Local\Temp\ccjZAqnI.s:2563   .text.iotx_req_image:000000000000009a .L0 
C:\Users\stapi\AppData\Local\Temp\ccjZAqnI.s:2564   .text.iotx_req_image:000000000000009a .L0 
C:\Users\stapi\AppData\Local\Temp\ccjZAqnI.s:2570   .text.iotx_req_image:00000000000000aa .L0 
C:\Users\stapi\AppData\Local\Temp\ccjZAqnI.s:2574   .text.iotx_req_image:00000000000000b2 .L0 
C:\Users\stapi\AppData\Local\Temp\ccjZAqnI.s:2577   .text.iotx_req_image:00000000000000ba .L0 
C:\Users\stapi\AppData\Local\Temp\ccjZAqnI.s:2582   .text.iotx_req_image:00000000000000ca .L0 
C:\Users\stapi\AppData\Local\Temp\ccjZAqnI.s:2583   .text.iotx_req_image:00000000000000ca .L0 
C:\Users\stapi\AppData\Local\Temp\ccjZAqnI.s:2584   .text.iotx_req_image:00000000000000ca .L0 
C:\Users\stapi\AppData\Local\Temp\ccjZAqnI.s:2589   .text.iotx_req_image:00000000000000ce .L0 
C:\Users\stapi\AppData\Local\Temp\ccjZAqnI.s:2590   .text.iotx_req_image:00000000000000ce .L0 
C:\Users\stapi\AppData\Local\Temp\ccjZAqnI.s:2593   .text.iotx_req_image:00000000000000d4 .L0 
C:\Users\stapi\AppData\Local\Temp\ccjZAqnI.s:2594   .text.iotx_req_image:00000000000000d4 .L0 
C:\Users\stapi\AppData\Local\Temp\ccjZAqnI.s:2600   .text.iotx_req_image:00000000000000e4 .L0 
C:\Users\stapi\AppData\Local\Temp\ccjZAqnI.s:2606   .text.iotx_req_image:00000000000000ee .L0 
C:\Users\stapi\AppData\Local\Temp\ccjZAqnI.s:2607   .text.iotx_req_image:00000000000000ee .L0 
C:\Users\stapi\AppData\Local\Temp\ccjZAqnI.s:2616   .text.iotx_req_image:0000000000000100 .L0 
C:\Users\stapi\AppData\Local\Temp\ccjZAqnI.s:2618   .text.iotx_req_image:0000000000000102 .L0 
C:\Users\stapi\AppData\Local\Temp\ccjZAqnI.s:2619   .text.iotx_req_image:0000000000000102 .L0 
C:\Users\stapi\AppData\Local\Temp\ccjZAqnI.s:2625   .text.iotx_req_image:0000000000000112 .L0 
C:\Users\stapi\AppData\Local\Temp\ccjZAqnI.s:2630   .text.iotx_req_image:0000000000000122 .L0 
C:\Users\stapi\AppData\Local\Temp\ccjZAqnI.s:2635   .text.iotx_req_image:0000000000000132 .L0 
C:\Users\stapi\AppData\Local\Temp\ccjZAqnI.s:2636   .text.iotx_req_image:0000000000000132 .L0 
C:\Users\stapi\AppData\Local\Temp\ccjZAqnI.s:2637   .text.iotx_req_image:0000000000000132 .L0 
C:\Users\stapi\AppData\Local\Temp\ccjZAqnI.s:2642   .text.iotx_req_image:0000000000000136 .L0 
C:\Users\stapi\AppData\Local\Temp\ccjZAqnI.s:2643   .text.iotx_req_image:0000000000000136 .L0 
C:\Users\stapi\AppData\Local\Temp\ccjZAqnI.s:2651   .text.iotx_req_image:0000000000000148 .L0 
C:\Users\stapi\AppData\Local\Temp\ccjZAqnI.s:2652   .text.iotx_req_image:0000000000000148 .L0 
C:\Users\stapi\AppData\Local\Temp\ccjZAqnI.s:2654   .text.iotx_req_image:000000000000014a .L0 
C:\Users\stapi\AppData\Local\Temp\ccjZAqnI.s:2655   .text.iotx_req_image:000000000000014a .L0 
C:\Users\stapi\AppData\Local\Temp\ccjZAqnI.s:2660   .text.iotx_req_image:000000000000015a .L0 
C:\Users\stapi\AppData\Local\Temp\ccjZAqnI.s:2664   .text.iotx_req_image:0000000000000162 .L0 
C:\Users\stapi\AppData\Local\Temp\ccjZAqnI.s:2667   .text.iotx_req_image:000000000000016a .L0 
C:\Users\stapi\AppData\Local\Temp\ccjZAqnI.s:2672   .text.iotx_req_image:000000000000017a .L0 
C:\Users\stapi\AppData\Local\Temp\ccjZAqnI.s:2673   .text.iotx_req_image:000000000000017a .L0 
C:\Users\stapi\AppData\Local\Temp\ccjZAqnI.s:2674   .text.iotx_req_image:000000000000017a .L0 
C:\Users\stapi\AppData\Local\Temp\ccjZAqnI.s:2677   .text.iotx_req_image:000000000000017c .L0 
C:\Users\stapi\AppData\Local\Temp\ccjZAqnI.s:2678   .text.iotx_req_image:000000000000017c .L0 
C:\Users\stapi\AppData\Local\Temp\ccjZAqnI.s:2679   .text.iotx_req_image:000000000000017c .L0 
C:\Users\stapi\AppData\Local\Temp\ccjZAqnI.s:2683   .text.iotx_req_image:000000000000017e .L0 
C:\Users\stapi\AppData\Local\Temp\ccjZAqnI.s:2684   .text.iotx_req_image:000000000000017e .L0 
C:\Users\stapi\AppData\Local\Temp\ccjZAqnI.s:2688   .text.iotx_req_image:0000000000000188 .L0 
C:\Users\stapi\AppData\Local\Temp\ccjZAqnI.s:2689   .text.iotx_req_image:0000000000000188 .L0 
C:\Users\stapi\AppData\Local\Temp\ccjZAqnI.s:2692   .text.iotx_req_image:000000000000018a .L0 
C:\Users\stapi\AppData\Local\Temp\ccjZAqnI.s:2693   .text.iotx_req_image:000000000000018a .L0 
C:\Users\stapi\AppData\Local\Temp\ccjZAqnI.s:2700   .text.iotx_req_image:0000000000000198 .L0 
C:\Users\stapi\AppData\Local\Temp\ccjZAqnI.s:2701   .text.iotx_req_image:0000000000000198 .L0 
C:\Users\stapi\AppData\Local\Temp\ccjZAqnI.s:2703   .text.iotx_req_image:000000000000019a .L0 
C:\Users\stapi\AppData\Local\Temp\ccjZAqnI.s:2704   .text.iotx_req_image:000000000000019a .L0 
C:\Users\stapi\AppData\Local\Temp\ccjZAqnI.s:2709   .text.iotx_req_image:00000000000001aa .L0 
C:\Users\stapi\AppData\Local\Temp\ccjZAqnI.s:2712   .text.iotx_req_image:00000000000001b4 .L0 
C:\Users\stapi\AppData\Local\Temp\ccjZAqnI.s:2732   .text.IOT_OTA_ReportProgress:0000000000000000 IOT_OTA_ReportProgress
C:\Users\stapi\AppData\Local\Temp\ccjZAqnI.s:2735   .text.IOT_OTA_ReportProgress:0000000000000000 .L0 
C:\Users\stapi\AppData\Local\Temp\ccjZAqnI.s:2737   .text.IOT_OTA_ReportProgress:0000000000000000 .L0 
C:\Users\stapi\AppData\Local\Temp\ccjZAqnI.s:2738   .text.IOT_OTA_ReportProgress:0000000000000008 .L0 
C:\Users\stapi\AppData\Local\Temp\ccjZAqnI.s:2739   .text.IOT_OTA_ReportProgress:0000000000000008 .L0 
C:\Users\stapi\AppData\Local\Temp\ccjZAqnI.s:2740   .text.IOT_OTA_ReportProgress:0000000000000008 .L0 
C:\Users\stapi\AppData\Local\Temp\ccjZAqnI.s:2741   .text.IOT_OTA_ReportProgress:0000000000000008 .L0 
C:\Users\stapi\AppData\Local\Temp\ccjZAqnI.s:2742   .text.IOT_OTA_ReportProgress:0000000000000008 .L0 
C:\Users\stapi\AppData\Local\Temp\ccjZAqnI.s:2745   .text.IOT_OTA_ReportProgress:0000000000000008 .L0 
C:\Users\stapi\AppData\Local\Temp\ccjZAqnI.s:2746   .text.IOT_OTA_ReportProgress:0000000000000008 .L0 
C:\Users\stapi\AppData\Local\Temp\ccjZAqnI.s:2747   .text.IOT_OTA_ReportProgress:0000000000000008 .L0 
C:\Users\stapi\AppData\Local\Temp\ccjZAqnI.s:2748   .text.IOT_OTA_ReportProgress:0000000000000008 .L0 
C:\Users\stapi\AppData\Local\Temp\ccjZAqnI.s:2749   .text.IOT_OTA_ReportProgress:0000000000000008 .L0 
C:\Users\stapi\AppData\Local\Temp\ccjZAqnI.s:2750   .text.IOT_OTA_ReportProgress:000000000000000a .L0 
C:\Users\stapi\AppData\Local\Temp\ccjZAqnI.s:2752   .text.IOT_OTA_ReportProgress:000000000000000a .L0 
C:\Users\stapi\AppData\Local\Temp\ccjZAqnI.s:2754   .text.IOT_OTA_ReportProgress:000000000000000c .L0 
C:\Users\stapi\AppData\Local\Temp\ccjZAqnI.s:2755   .text.IOT_OTA_ReportProgress:000000000000000c .L0 
C:\Users\stapi\AppData\Local\Temp\ccjZAqnI.s:2761   .text.IOT_OTA_ReportProgress:000000000000001c .L0 
C:\Users\stapi\AppData\Local\Temp\ccjZAqnI.s:2766   .text.IOT_OTA_ReportProgress:000000000000002c .L0 
C:\Users\stapi\AppData\Local\Temp\ccjZAqnI.s:2771   .text.IOT_OTA_ReportProgress:000000000000003c .L0 
C:\Users\stapi\AppData\Local\Temp\ccjZAqnI.s:2772   .text.IOT_OTA_ReportProgress:000000000000003c .L0 
C:\Users\stapi\AppData\Local\Temp\ccjZAqnI.s:2773   .text.IOT_OTA_ReportProgress:000000000000003c .L0 
C:\Users\stapi\AppData\Local\Temp\ccjZAqnI.s:2777   .text.IOT_OTA_ReportProgress:000000000000003e .L0 
C:\Users\stapi\AppData\Local\Temp\ccjZAqnI.s:2779   .text.IOT_OTA_ReportProgress:0000000000000042 .L0 
C:\Users\stapi\AppData\Local\Temp\ccjZAqnI.s:2780   .text.IOT_OTA_ReportProgress:0000000000000042 .L0 
C:\Users\stapi\AppData\Local\Temp\ccjZAqnI.s:2782   .text.IOT_OTA_ReportProgress:000000000000004a .L0 
C:\Users\stapi\AppData\Local\Temp\ccjZAqnI.s:2783   .text.IOT_OTA_ReportProgress:000000000000004a .L0 
C:\Users\stapi\AppData\Local\Temp\ccjZAqnI.s:2784   .text.IOT_OTA_ReportProgress:000000000000004a .L0 
C:\Users\stapi\AppData\Local\Temp\ccjZAqnI.s:2785   .text.IOT_OTA_ReportProgress:000000000000004a .L0 
C:\Users\stapi\AppData\Local\Temp\ccjZAqnI.s:2786   .text.IOT_OTA_ReportProgress:000000000000004a .L0 
C:\Users\stapi\AppData\Local\Temp\ccjZAqnI.s:2789   .text.IOT_OTA_ReportProgress:000000000000004a .L0 
C:\Users\stapi\AppData\Local\Temp\ccjZAqnI.s:2791   .text.IOT_OTA_ReportProgress:000000000000004a .L0 
C:\Users\stapi\AppData\Local\Temp\ccjZAqnI.s:2794   .text.IOT_OTA_ReportProgress:000000000000004e .L0 
C:\Users\stapi\AppData\Local\Temp\ccjZAqnI.s:2795   .text.IOT_OTA_ReportProgress:000000000000004e .L0 
C:\Users\stapi\AppData\Local\Temp\ccjZAqnI.s:2798   .text.IOT_OTA_ReportProgress:0000000000000050 .L0 
C:\Users\stapi\AppData\Local\Temp\ccjZAqnI.s:2799   .text.IOT_OTA_ReportProgress:0000000000000050 .L0 
C:\Users\stapi\AppData\Local\Temp\ccjZAqnI.s:2804   .text.IOT_OTA_ReportProgress:0000000000000060 .L0 
C:\Users\stapi\AppData\Local\Temp\ccjZAqnI.s:2809   .text.IOT_OTA_ReportProgress:0000000000000070 .L0 
C:\Users\stapi\AppData\Local\Temp\ccjZAqnI.s:2814   .text.IOT_OTA_ReportProgress:0000000000000080 .L0 
C:\Users\stapi\AppData\Local\Temp\ccjZAqnI.s:2815   .text.IOT_OTA_ReportProgress:0000000000000080 .L0 
C:\Users\stapi\AppData\Local\Temp\ccjZAqnI.s:2816   .text.IOT_OTA_ReportProgress:0000000000000080 .L0 
C:\Users\stapi\AppData\Local\Temp\ccjZAqnI.s:2819   .text.IOT_OTA_ReportProgress:0000000000000082 .L0 
C:\Users\stapi\AppData\Local\Temp\ccjZAqnI.s:2821   .text.IOT_OTA_ReportProgress:0000000000000084 .L0 
C:\Users\stapi\AppData\Local\Temp\ccjZAqnI.s:2822   .text.IOT_OTA_ReportProgress:0000000000000084 .L0 
C:\Users\stapi\AppData\Local\Temp\ccjZAqnI.s:2831   .text.IOT_OTA_ReportProgress:000000000000008a .L0 
C:\Users\stapi\AppData\Local\Temp\ccjZAqnI.s:2832   .text.IOT_OTA_ReportProgress:000000000000008a .L0 
C:\Users\stapi\AppData\Local\Temp\ccjZAqnI.s:2833   .text.IOT_OTA_ReportProgress:000000000000008a .L0 
C:\Users\stapi\AppData\Local\Temp\ccjZAqnI.s:2837   .text.IOT_OTA_ReportProgress:000000000000008e .L0 
C:\Users\stapi\AppData\Local\Temp\ccjZAqnI.s:2841   .text.IOT_OTA_ReportProgress:0000000000000096 .L0 
C:\Users\stapi\AppData\Local\Temp\ccjZAqnI.s:2842   .text.IOT_OTA_ReportProgress:0000000000000096 .L0 
C:\Users\stapi\AppData\Local\Temp\ccjZAqnI.s:2847   .text.IOT_OTA_ReportProgress:00000000000000a6 .L0 
C:\Users\stapi\AppData\Local\Temp\ccjZAqnI.s:2852   .text.IOT_OTA_ReportProgress:00000000000000b6 .L0 
C:\Users\stapi\AppData\Local\Temp\ccjZAqnI.s:2857   .text.IOT_OTA_ReportProgress:00000000000000c6 .L0 
C:\Users\stapi\AppData\Local\Temp\ccjZAqnI.s:2858   .text.IOT_OTA_ReportProgress:00000000000000c6 .L0 
C:\Users\stapi\AppData\Local\Temp\ccjZAqnI.s:2859   .text.IOT_OTA_ReportProgress:00000000000000c6 .L0 
C:\Users\stapi\AppData\Local\Temp\ccjZAqnI.s:2865   .text.IOT_OTA_ReportProgress:00000000000000cc .L0 
C:\Users\stapi\AppData\Local\Temp\ccjZAqnI.s:2866   .text.IOT_OTA_ReportProgress:00000000000000cc .L0 
C:\Users\stapi\AppData\Local\Temp\ccjZAqnI.s:2874   .text.IOT_OTA_ReportProgress:00000000000000de .L0 
C:\Users\stapi\AppData\Local\Temp\ccjZAqnI.s:2877   .text.IOT_OTA_ReportProgress:00000000000000e2 .L0 
C:\Users\stapi\AppData\Local\Temp\ccjZAqnI.s:2880   .text.IOT_OTA_ReportProgress:00000000000000e4 .L0 
C:\Users\stapi\AppData\Local\Temp\ccjZAqnI.s:2882   .text.IOT_OTA_ReportProgress:00000000000000e6 .L0 
C:\Users\stapi\AppData\Local\Temp\ccjZAqnI.s:2883   .text.IOT_OTA_ReportProgress:00000000000000e6 .L0 
C:\Users\stapi\AppData\Local\Temp\ccjZAqnI.s:2889   .text.IOT_OTA_ReportProgress:00000000000000f6 .L0 
C:\Users\stapi\AppData\Local\Temp\ccjZAqnI.s:2894   .text.IOT_OTA_ReportProgress:0000000000000106 .L0 
C:\Users\stapi\AppData\Local\Temp\ccjZAqnI.s:2899   .text.IOT_OTA_ReportProgress:0000000000000116 .L0 
C:\Users\stapi\AppData\Local\Temp\ccjZAqnI.s:2900   .text.IOT_OTA_ReportProgress:0000000000000116 .L0 
C:\Users\stapi\AppData\Local\Temp\ccjZAqnI.s:2901   .text.IOT_OTA_ReportProgress:0000000000000116 .L0 
C:\Users\stapi\AppData\Local\Temp\ccjZAqnI.s:2906   .text.IOT_OTA_ReportProgress:000000000000011a .L0 
C:\Users\stapi\AppData\Local\Temp\ccjZAqnI.s:2907   .text.IOT_OTA_ReportProgress:000000000000011a .L0 
C:\Users\stapi\AppData\Local\Temp\ccjZAqnI.s:2914   .text.IOT_OTA_ReportProgress:000000000000012a .L0 
C:\Users\stapi\AppData\Local\Temp\ccjZAqnI.s:2915   .text.IOT_OTA_ReportProgress:000000000000012a .L0 
C:\Users\stapi\AppData\Local\Temp\ccjZAqnI.s:2917   .text.IOT_OTA_ReportProgress:000000000000012c .L0 
C:\Users\stapi\AppData\Local\Temp\ccjZAqnI.s:2918   .text.IOT_OTA_ReportProgress:000000000000012c .L0 
C:\Users\stapi\AppData\Local\Temp\ccjZAqnI.s:2923   .text.IOT_OTA_ReportProgress:000000000000013c .L0 
C:\Users\stapi\AppData\Local\Temp\ccjZAqnI.s:2927   .text.IOT_OTA_ReportProgress:0000000000000144 .L0 
C:\Users\stapi\AppData\Local\Temp\ccjZAqnI.s:2930   .text.IOT_OTA_ReportProgress:000000000000014c .L0 
C:\Users\stapi\AppData\Local\Temp\ccjZAqnI.s:2935   .text.IOT_OTA_ReportProgress:000000000000015c .L0 
C:\Users\stapi\AppData\Local\Temp\ccjZAqnI.s:2936   .text.IOT_OTA_ReportProgress:000000000000015c .L0 
C:\Users\stapi\AppData\Local\Temp\ccjZAqnI.s:2937   .text.IOT_OTA_ReportProgress:000000000000015c .L0 
C:\Users\stapi\AppData\Local\Temp\ccjZAqnI.s:2940   .text.IOT_OTA_ReportProgress:000000000000015e .L0 
C:\Users\stapi\AppData\Local\Temp\ccjZAqnI.s:2941   .text.IOT_OTA_ReportProgress:000000000000015e .L0 
C:\Users\stapi\AppData\Local\Temp\ccjZAqnI.s:2942   .text.IOT_OTA_ReportProgress:000000000000015e .L0 
C:\Users\stapi\AppData\Local\Temp\ccjZAqnI.s:2946   .text.IOT_OTA_ReportProgress:0000000000000168 .L0 
C:\Users\stapi\AppData\Local\Temp\ccjZAqnI.s:2947   .text.IOT_OTA_ReportProgress:0000000000000168 .L0 
C:\Users\stapi\AppData\Local\Temp\ccjZAqnI.s:2950   .text.IOT_OTA_ReportProgress:000000000000016a .L0 
C:\Users\stapi\AppData\Local\Temp\ccjZAqnI.s:2951   .text.IOT_OTA_ReportProgress:000000000000016a .L0 
C:\Users\stapi\AppData\Local\Temp\ccjZAqnI.s:2958   .text.IOT_OTA_ReportProgress:0000000000000178 .L0 
C:\Users\stapi\AppData\Local\Temp\ccjZAqnI.s:2959   .text.IOT_OTA_ReportProgress:0000000000000178 .L0 
C:\Users\stapi\AppData\Local\Temp\ccjZAqnI.s:2961   .text.IOT_OTA_ReportProgress:000000000000017a .L0 
C:\Users\stapi\AppData\Local\Temp\ccjZAqnI.s:2962   .text.IOT_OTA_ReportProgress:000000000000017a .L0 
C:\Users\stapi\AppData\Local\Temp\ccjZAqnI.s:2967   .text.IOT_OTA_ReportProgress:000000000000018a .L0 
C:\Users\stapi\AppData\Local\Temp\ccjZAqnI.s:2970   .text.IOT_OTA_ReportProgress:0000000000000194 .L0 
C:\Users\stapi\AppData\Local\Temp\ccjZAqnI.s:2984   .text.iotx_ota_get_config:0000000000000000 iotx_ota_get_config
C:\Users\stapi\AppData\Local\Temp\ccjZAqnI.s:2987   .text.iotx_ota_get_config:0000000000000000 .L0 
C:\Users\stapi\AppData\Local\Temp\ccjZAqnI.s:2989   .text.iotx_ota_get_config:0000000000000000 .L0 
C:\Users\stapi\AppData\Local\Temp\ccjZAqnI.s:2990   .text.iotx_ota_get_config:0000000000000008 .L0 
C:\Users\stapi\AppData\Local\Temp\ccjZAqnI.s:2991   .text.iotx_ota_get_config:0000000000000008 .L0 
C:\Users\stapi\AppData\Local\Temp\ccjZAqnI.s:2992   .text.iotx_ota_get_config:0000000000000008 .L0 
C:\Users\stapi\AppData\Local\Temp\ccjZAqnI.s:2993   .text.iotx_ota_get_config:0000000000000008 .L0 
C:\Users\stapi\AppData\Local\Temp\ccjZAqnI.s:2994   .text.iotx_ota_get_config:0000000000000008 .L0 
C:\Users\stapi\AppData\Local\Temp\ccjZAqnI.s:2995   .text.iotx_ota_get_config:0000000000000008 .L0 
C:\Users\stapi\AppData\Local\Temp\ccjZAqnI.s:2996   .text.iotx_ota_get_config:0000000000000008 .L0 
C:\Users\stapi\AppData\Local\Temp\ccjZAqnI.s:2999   .text.iotx_ota_get_config:0000000000000008 .L0 
C:\Users\stapi\AppData\Local\Temp\ccjZAqnI.s:3000   .text.iotx_ota_get_config:0000000000000008 .L0 
C:\Users\stapi\AppData\Local\Temp\ccjZAqnI.s:3001   .text.iotx_ota_get_config:0000000000000008 .L0 
C:\Users\stapi\AppData\Local\Temp\ccjZAqnI.s:3002   .text.iotx_ota_get_config:0000000000000008 .L0 
C:\Users\stapi\AppData\Local\Temp\ccjZAqnI.s:3003   .text.iotx_ota_get_config:000000000000000a .L0 
C:\Users\stapi\AppData\Local\Temp\ccjZAqnI.s:3005   .text.iotx_ota_get_config:000000000000000a .L0 
C:\Users\stapi\AppData\Local\Temp\ccjZAqnI.s:3009   .text.iotx_ota_get_config:0000000000000010 .L0 
C:\Users\stapi\AppData\Local\Temp\ccjZAqnI.s:3016   .text.iotx_ota_get_config:0000000000000018 .L0 
C:\Users\stapi\AppData\Local\Temp\ccjZAqnI.s:3018   .text.iotx_ota_get_config:000000000000001a .L0 
C:\Users\stapi\AppData\Local\Temp\ccjZAqnI.s:3022   .text.iotx_ota_get_config:0000000000000024 .L0 
C:\Users\stapi\AppData\Local\Temp\ccjZAqnI.s:3023   .text.iotx_ota_get_config:0000000000000024 .L0 
C:\Users\stapi\AppData\Local\Temp\ccjZAqnI.s:3024   .text.iotx_ota_get_config:0000000000000024 .L0 
C:\Users\stapi\AppData\Local\Temp\ccjZAqnI.s:3030   .text.iotx_ota_get_config:000000000000002e .L0 
C:\Users\stapi\AppData\Local\Temp\ccjZAqnI.s:3031   .text.iotx_ota_get_config:000000000000002e .L0 
C:\Users\stapi\AppData\Local\Temp\ccjZAqnI.s:3033   .text.iotx_ota_get_config:0000000000000030 .L0 
C:\Users\stapi\AppData\Local\Temp\ccjZAqnI.s:3034   .text.iotx_ota_get_config:0000000000000030 .L0 
C:\Users\stapi\AppData\Local\Temp\ccjZAqnI.s:3039   .text.iotx_ota_get_config:0000000000000040 .L0 
C:\Users\stapi\AppData\Local\Temp\ccjZAqnI.s:3044   .text.iotx_ota_get_config:0000000000000050 .L0 
C:\Users\stapi\AppData\Local\Temp\ccjZAqnI.s:3049   .text.iotx_ota_get_config:0000000000000060 .L0 
C:\Users\stapi\AppData\Local\Temp\ccjZAqnI.s:3050   .text.iotx_ota_get_config:0000000000000060 .L0 
C:\Users\stapi\AppData\Local\Temp\ccjZAqnI.s:3051   .text.iotx_ota_get_config:0000000000000060 .L0 
C:\Users\stapi\AppData\Local\Temp\ccjZAqnI.s:3055   .text.iotx_ota_get_config:0000000000000062 .L0 
C:\Users\stapi\AppData\Local\Temp\ccjZAqnI.s:3057   .text.iotx_ota_get_config:0000000000000066 .L0 
C:\Users\stapi\AppData\Local\Temp\ccjZAqnI.s:3058   .text.iotx_ota_get_config:0000000000000066 .L0 
C:\Users\stapi\AppData\Local\Temp\ccjZAqnI.s:3060   .text.iotx_ota_get_config:000000000000006e .L0 
C:\Users\stapi\AppData\Local\Temp\ccjZAqnI.s:3061   .text.iotx_ota_get_config:000000000000006e .L0 
C:\Users\stapi\AppData\Local\Temp\ccjZAqnI.s:3062   .text.iotx_ota_get_config:000000000000006e .L0 
C:\Users\stapi\AppData\Local\Temp\ccjZAqnI.s:3063   .text.iotx_ota_get_config:000000000000006e .L0 
C:\Users\stapi\AppData\Local\Temp\ccjZAqnI.s:3064   .text.iotx_ota_get_config:000000000000006e .L0 
C:\Users\stapi\AppData\Local\Temp\ccjZAqnI.s:3065   .text.iotx_ota_get_config:000000000000006e .L0 
C:\Users\stapi\AppData\Local\Temp\ccjZAqnI.s:3066   .text.iotx_ota_get_config:000000000000006e .L0 
C:\Users\stapi\AppData\Local\Temp\ccjZAqnI.s:3069   .text.iotx_ota_get_config:000000000000006e .L0 
C:\Users\stapi\AppData\Local\Temp\ccjZAqnI.s:3071   .text.iotx_ota_get_config:000000000000006e .L0 
C:\Users\stapi\AppData\Local\Temp\ccjZAqnI.s:3072   .text.iotx_ota_get_config:000000000000006e .L0 
C:\Users\stapi\AppData\Local\Temp\ccjZAqnI.s:3074   .text.iotx_ota_get_config:0000000000000070 .L0 
C:\Users\stapi\AppData\Local\Temp\ccjZAqnI.s:3076   .text.iotx_ota_get_config:0000000000000072 .L0 
C:\Users\stapi\AppData\Local\Temp\ccjZAqnI.s:3077   .text.iotx_ota_get_config:0000000000000072 .L0 
C:\Users\stapi\AppData\Local\Temp\ccjZAqnI.s:3082   .text.iotx_ota_get_config:0000000000000082 .L0 
C:\Users\stapi\AppData\Local\Temp\ccjZAqnI.s:3086   .text.iotx_ota_get_config:000000000000008a .L0 
C:\Users\stapi\AppData\Local\Temp\ccjZAqnI.s:3089   .text.iotx_ota_get_config:0000000000000092 .L0 
C:\Users\stapi\AppData\Local\Temp\ccjZAqnI.s:3094   .text.iotx_ota_get_config:00000000000000a2 .L0 
C:\Users\stapi\AppData\Local\Temp\ccjZAqnI.s:3095   .text.iotx_ota_get_config:00000000000000a2 .L0 
C:\Users\stapi\AppData\Local\Temp\ccjZAqnI.s:3096   .text.iotx_ota_get_config:00000000000000a2 .L0 
C:\Users\stapi\AppData\Local\Temp\ccjZAqnI.s:3099   .text.iotx_ota_get_config:00000000000000a4 .L0 
C:\Users\stapi\AppData\Local\Temp\ccjZAqnI.s:3101   .text.iotx_ota_get_config:00000000000000a6 .L0 
C:\Users\stapi\AppData\Local\Temp\ccjZAqnI.s:3102   .text.iotx_ota_get_config:00000000000000a6 .L0 
C:\Users\stapi\AppData\Local\Temp\ccjZAqnI.s:3108   .text.iotx_ota_get_config:00000000000000aa .L0 
C:\Users\stapi\AppData\Local\Temp\ccjZAqnI.s:3109   .text.iotx_ota_get_config:00000000000000aa .L0 
C:\Users\stapi\AppData\Local\Temp\ccjZAqnI.s:3112   .text.iotx_ota_get_config:00000000000000b0 .L0 
C:\Users\stapi\AppData\Local\Temp\ccjZAqnI.s:3113   .text.iotx_ota_get_config:00000000000000b0 .L0 
C:\Users\stapi\AppData\Local\Temp\ccjZAqnI.s:3118   .text.iotx_ota_get_config:00000000000000c0 .L0 
C:\Users\stapi\AppData\Local\Temp\ccjZAqnI.s:3123   .text.iotx_ota_get_config:00000000000000ca .L0 
C:\Users\stapi\AppData\Local\Temp\ccjZAqnI.s:3124   .text.iotx_ota_get_config:00000000000000ca .L0 
C:\Users\stapi\AppData\Local\Temp\ccjZAqnI.s:3132   .text.iotx_ota_get_config:00000000000000dc .L0 
C:\Users\stapi\AppData\Local\Temp\ccjZAqnI.s:3134   .text.iotx_ota_get_config:00000000000000de .L0 
C:\Users\stapi\AppData\Local\Temp\ccjZAqnI.s:3135   .text.iotx_ota_get_config:00000000000000de .L0 
C:\Users\stapi\AppData\Local\Temp\ccjZAqnI.s:3140   .text.iotx_ota_get_config:00000000000000ee .L0 
C:\Users\stapi\AppData\Local\Temp\ccjZAqnI.s:3145   .text.iotx_ota_get_config:00000000000000fe .L0 
C:\Users\stapi\AppData\Local\Temp\ccjZAqnI.s:3150   .text.iotx_ota_get_config:000000000000010e .L0 
C:\Users\stapi\AppData\Local\Temp\ccjZAqnI.s:3151   .text.iotx_ota_get_config:000000000000010e .L0 
C:\Users\stapi\AppData\Local\Temp\ccjZAqnI.s:3152   .text.iotx_ota_get_config:000000000000010e .L0 
C:\Users\stapi\AppData\Local\Temp\ccjZAqnI.s:3156   .text.iotx_ota_get_config:0000000000000112 .L0 
C:\Users\stapi\AppData\Local\Temp\ccjZAqnI.s:3157   .text.iotx_ota_get_config:0000000000000112 .L0 
C:\Users\stapi\AppData\Local\Temp\ccjZAqnI.s:3166   .text.iotx_ota_get_config:000000000000012c .L0 
C:\Users\stapi\AppData\Local\Temp\ccjZAqnI.s:3168   .text.iotx_ota_get_config:0000000000000130 .L0 
C:\Users\stapi\AppData\Local\Temp\ccjZAqnI.s:3169   .text.iotx_ota_get_config:0000000000000130 .L0 
C:\Users\stapi\AppData\Local\Temp\ccjZAqnI.s:3170   .text.iotx_ota_get_config:0000000000000130 .L0 
C:\Users\stapi\AppData\Local\Temp\ccjZAqnI.s:3181   .text.iotx_ota_get_config:000000000000014e .L0 
C:\Users\stapi\AppData\Local\Temp\ccjZAqnI.s:3183   .text.iotx_ota_get_config:0000000000000152 .L0 
C:\Users\stapi\AppData\Local\Temp\ccjZAqnI.s:3184   .text.iotx_ota_get_config:0000000000000152 .L0 
C:\Users\stapi\AppData\Local\Temp\ccjZAqnI.s:3185   .text.iotx_ota_get_config:0000000000000152 .L0 
C:\Users\stapi\AppData\Local\Temp\ccjZAqnI.s:3190   .text.iotx_ota_get_config:0000000000000162 .L0 
C:\Users\stapi\AppData\Local\Temp\ccjZAqnI.s:3194   .text.iotx_ota_get_config:000000000000016c .L0 
C:\Users\stapi\AppData\Local\Temp\ccjZAqnI.s:3200   .text.iotx_ota_get_config:000000000000017c .L0 
C:\Users\stapi\AppData\Local\Temp\ccjZAqnI.s:3201   .text.iotx_ota_get_config:000000000000017c .L0 
C:\Users\stapi\AppData\Local\Temp\ccjZAqnI.s:3202   .text.iotx_ota_get_config:000000000000017c .L0 
C:\Users\stapi\AppData\Local\Temp\ccjZAqnI.s:3204   .text.iotx_ota_get_config:000000000000017e .L0 
C:\Users\stapi\AppData\Local\Temp\ccjZAqnI.s:3206   .text.iotx_ota_get_config:0000000000000182 .L0 
C:\Users\stapi\AppData\Local\Temp\ccjZAqnI.s:3207   .text.iotx_ota_get_config:0000000000000182 .L0 
C:\Users\stapi\AppData\Local\Temp\ccjZAqnI.s:3209   .text.iotx_ota_get_config:0000000000000184 .L0 
C:\Users\stapi\AppData\Local\Temp\ccjZAqnI.s:3210   .text.iotx_ota_get_config:0000000000000184 .L0 
C:\Users\stapi\AppData\Local\Temp\ccjZAqnI.s:3215   .text.iotx_ota_get_config:000000000000018c .L0 
C:\Users\stapi\AppData\Local\Temp\ccjZAqnI.s:3219   .text.iotx_ota_get_config:000000000000018e .L0 
C:\Users\stapi\AppData\Local\Temp\ccjZAqnI.s:3224   .text.iotx_ota_get_config:0000000000000190 .L0 
C:\Users\stapi\AppData\Local\Temp\ccjZAqnI.s:3225   .text.iotx_ota_get_config:0000000000000190 .L0 
C:\Users\stapi\AppData\Local\Temp\ccjZAqnI.s:3226   .text.iotx_ota_get_config:0000000000000190 .L0 
C:\Users\stapi\AppData\Local\Temp\ccjZAqnI.s:3234   .text.iotx_ota_get_config:0000000000000196 .L0 
C:\Users\stapi\AppData\Local\Temp\ccjZAqnI.s:3239   .text.iotx_ota_get_config:0000000000000198 .L0 
C:\Users\stapi\AppData\Local\Temp\ccjZAqnI.s:3244   .text.iotx_ota_get_config:00000000000001a0 .L0 
C:\Users\stapi\AppData\Local\Temp\ccjZAqnI.s:3245   .text.iotx_ota_get_config:00000000000001a0 .L0 
C:\Users\stapi\AppData\Local\Temp\ccjZAqnI.s:3247   .text.iotx_ota_get_config:00000000000001a4 .L0 
C:\Users\stapi\AppData\Local\Temp\ccjZAqnI.s:3248   .text.iotx_ota_get_config:00000000000001a4 .L0 
C:\Users\stapi\AppData\Local\Temp\ccjZAqnI.s:3254   .text.iotx_ota_get_config:00000000000001b4 .L0 
C:\Users\stapi\AppData\Local\Temp\ccjZAqnI.s:3259   .text.iotx_ota_get_config:00000000000001c4 .L0 
C:\Users\stapi\AppData\Local\Temp\ccjZAqnI.s:3263   .text.iotx_ota_get_config:00000000000001d0 .L0 
C:\Users\stapi\AppData\Local\Temp\ccjZAqnI.s:3264   .text.iotx_ota_get_config:00000000000001d0 .L0 
C:\Users\stapi\AppData\Local\Temp\ccjZAqnI.s:3265   .text.iotx_ota_get_config:00000000000001d0 .L0 
C:\Users\stapi\AppData\Local\Temp\ccjZAqnI.s:3270   .text.iotx_ota_get_config:00000000000001d4 .L0 
C:\Users\stapi\AppData\Local\Temp\ccjZAqnI.s:3274   .text.iotx_ota_get_config:00000000000001d6 .L0 
C:\Users\stapi\AppData\Local\Temp\ccjZAqnI.s:3275   .text.iotx_ota_get_config:00000000000001d6 .L0 
C:\Users\stapi\AppData\Local\Temp\ccjZAqnI.s:3279   .text.iotx_ota_get_config:00000000000001e0 .L0 
C:\Users\stapi\AppData\Local\Temp\ccjZAqnI.s:3280   .text.iotx_ota_get_config:00000000000001e0 .L0 
C:\Users\stapi\AppData\Local\Temp\ccjZAqnI.s:3281   .text.iotx_ota_get_config:00000000000001e2 .L0 
C:\Users\stapi\AppData\Local\Temp\ccjZAqnI.s:3288   .text.IOT_OTA_IsFetching:0000000000000000 IOT_OTA_IsFetching
C:\Users\stapi\AppData\Local\Temp\ccjZAqnI.s:3291   .text.IOT_OTA_IsFetching:0000000000000000 .L0 
C:\Users\stapi\AppData\Local\Temp\ccjZAqnI.s:3293   .text.IOT_OTA_IsFetching:0000000000000000 .L0 
C:\Users\stapi\AppData\Local\Temp\ccjZAqnI.s:3294   .text.IOT_OTA_IsFetching:0000000000000008 .L0 
C:\Users\stapi\AppData\Local\Temp\ccjZAqnI.s:3295   .text.IOT_OTA_IsFetching:0000000000000008 .L0 
C:\Users\stapi\AppData\Local\Temp\ccjZAqnI.s:3296   .text.IOT_OTA_IsFetching:0000000000000008 .L0 
C:\Users\stapi\AppData\Local\Temp\ccjZAqnI.s:3299   .text.IOT_OTA_IsFetching:0000000000000008 .L0 
C:\Users\stapi\AppData\Local\Temp\ccjZAqnI.s:3300   .text.IOT_OTA_IsFetching:0000000000000008 .L0 
C:\Users\stapi\AppData\Local\Temp\ccjZAqnI.s:3301   .text.IOT_OTA_IsFetching:0000000000000008 .L0 
C:\Users\stapi\AppData\Local\Temp\ccjZAqnI.s:3303   .text.IOT_OTA_IsFetching:000000000000000a .L0 
C:\Users\stapi\AppData\Local\Temp\ccjZAqnI.s:3304   .text.IOT_OTA_IsFetching:000000000000000a .L0 
C:\Users\stapi\AppData\Local\Temp\ccjZAqnI.s:3310   .text.IOT_OTA_IsFetching:000000000000001a .L0 
C:\Users\stapi\AppData\Local\Temp\ccjZAqnI.s:3315   .text.IOT_OTA_IsFetching:000000000000002a .L0 
C:\Users\stapi\AppData\Local\Temp\ccjZAqnI.s:3320   .text.IOT_OTA_IsFetching:000000000000003a .L0 
C:\Users\stapi\AppData\Local\Temp\ccjZAqnI.s:3322   .text.IOT_OTA_IsFetching:000000000000003a .L0 
C:\Users\stapi\AppData\Local\Temp\ccjZAqnI.s:3323   .text.IOT_OTA_IsFetching:000000000000003a .L0 
C:\Users\stapi\AppData\Local\Temp\ccjZAqnI.s:3324   .text.IOT_OTA_IsFetching:000000000000003a .L0 
C:\Users\stapi\AppData\Local\Temp\ccjZAqnI.s:3327   .text.IOT_OTA_IsFetching:000000000000003c .L0 
C:\Users\stapi\AppData\Local\Temp\ccjZAqnI.s:3328   .text.IOT_OTA_IsFetching:0000000000000044 .L0 
C:\Users\stapi\AppData\Local\Temp\ccjZAqnI.s:3329   .text.IOT_OTA_IsFetching:0000000000000044 .L0 
C:\Users\stapi\AppData\Local\Temp\ccjZAqnI.s:3330   .text.IOT_OTA_IsFetching:0000000000000044 .L0 
C:\Users\stapi\AppData\Local\Temp\ccjZAqnI.s:3331   .text.IOT_OTA_IsFetching:0000000000000044 .L0 
C:\Users\stapi\AppData\Local\Temp\ccjZAqnI.s:3334   .text.IOT_OTA_IsFetching:0000000000000044 .L0 
C:\Users\stapi\AppData\Local\Temp\ccjZAqnI.s:3336   .text.IOT_OTA_IsFetching:0000000000000044 .L0 
C:\Users\stapi\AppData\Local\Temp\ccjZAqnI.s:3339   .text.IOT_OTA_IsFetching:0000000000000048 .L0 
C:\Users\stapi\AppData\Local\Temp\ccjZAqnI.s:3340   .text.IOT_OTA_IsFetching:0000000000000048 .L0 
C:\Users\stapi\AppData\Local\Temp\ccjZAqnI.s:3343   .text.IOT_OTA_IsFetching:000000000000004a .L0 
C:\Users\stapi\AppData\Local\Temp\ccjZAqnI.s:3344   .text.IOT_OTA_IsFetching:000000000000004a .L0 
C:\Users\stapi\AppData\Local\Temp\ccjZAqnI.s:3349   .text.IOT_OTA_IsFetching:000000000000005a .L0 
C:\Users\stapi\AppData\Local\Temp\ccjZAqnI.s:3354   .text.IOT_OTA_IsFetching:000000000000006a .L0 
C:\Users\stapi\AppData\Local\Temp\ccjZAqnI.s:3359   .text.IOT_OTA_IsFetching:000000000000007a .L0 
C:\Users\stapi\AppData\Local\Temp\ccjZAqnI.s:3360   .text.IOT_OTA_IsFetching:000000000000007a .L0 
C:\Users\stapi\AppData\Local\Temp\ccjZAqnI.s:3361   .text.IOT_OTA_IsFetching:000000000000007a .L0 
C:\Users\stapi\AppData\Local\Temp\ccjZAqnI.s:3366   .text.IOT_OTA_IsFetching:0000000000000080 .L0 
C:\Users\stapi\AppData\Local\Temp\ccjZAqnI.s:3367   .text.IOT_OTA_IsFetching:0000000000000080 .L0 
C:\Users\stapi\AppData\Local\Temp\ccjZAqnI.s:3370   .text.IOT_OTA_IsFetching:000000000000008a .L0 
C:\Users\stapi\AppData\Local\Temp\ccjZAqnI.s:3377   .text.IOT_OTA_IsFetchFinish:0000000000000000 IOT_OTA_IsFetchFinish
C:\Users\stapi\AppData\Local\Temp\ccjZAqnI.s:3380   .text.IOT_OTA_IsFetchFinish:0000000000000000 .L0 
C:\Users\stapi\AppData\Local\Temp\ccjZAqnI.s:3382   .text.IOT_OTA_IsFetchFinish:0000000000000000 .L0 
C:\Users\stapi\AppData\Local\Temp\ccjZAqnI.s:3383   .text.IOT_OTA_IsFetchFinish:0000000000000008 .L0 
C:\Users\stapi\AppData\Local\Temp\ccjZAqnI.s:3384   .text.IOT_OTA_IsFetchFinish:0000000000000008 .L0 
C:\Users\stapi\AppData\Local\Temp\ccjZAqnI.s:3385   .text.IOT_OTA_IsFetchFinish:0000000000000008 .L0 
C:\Users\stapi\AppData\Local\Temp\ccjZAqnI.s:3388   .text.IOT_OTA_IsFetchFinish:0000000000000008 .L0 
C:\Users\stapi\AppData\Local\Temp\ccjZAqnI.s:3389   .text.IOT_OTA_IsFetchFinish:0000000000000008 .L0 
C:\Users\stapi\AppData\Local\Temp\ccjZAqnI.s:3390   .text.IOT_OTA_IsFetchFinish:0000000000000008 .L0 
C:\Users\stapi\AppData\Local\Temp\ccjZAqnI.s:3392   .text.IOT_OTA_IsFetchFinish:000000000000000a .L0 
C:\Users\stapi\AppData\Local\Temp\ccjZAqnI.s:3393   .text.IOT_OTA_IsFetchFinish:000000000000000a .L0 
C:\Users\stapi\AppData\Local\Temp\ccjZAqnI.s:3399   .text.IOT_OTA_IsFetchFinish:000000000000001a .L0 
C:\Users\stapi\AppData\Local\Temp\ccjZAqnI.s:3404   .text.IOT_OTA_IsFetchFinish:000000000000002a .L0 
C:\Users\stapi\AppData\Local\Temp\ccjZAqnI.s:3409   .text.IOT_OTA_IsFetchFinish:000000000000003a .L0 
C:\Users\stapi\AppData\Local\Temp\ccjZAqnI.s:3411   .text.IOT_OTA_IsFetchFinish:000000000000003a .L0 
C:\Users\stapi\AppData\Local\Temp\ccjZAqnI.s:3412   .text.IOT_OTA_IsFetchFinish:000000000000003a .L0 
C:\Users\stapi\AppData\Local\Temp\ccjZAqnI.s:3413   .text.IOT_OTA_IsFetchFinish:000000000000003a .L0 
C:\Users\stapi\AppData\Local\Temp\ccjZAqnI.s:3416   .text.IOT_OTA_IsFetchFinish:000000000000003c .L0 
C:\Users\stapi\AppData\Local\Temp\ccjZAqnI.s:3417   .text.IOT_OTA_IsFetchFinish:0000000000000044 .L0 
C:\Users\stapi\AppData\Local\Temp\ccjZAqnI.s:3418   .text.IOT_OTA_IsFetchFinish:0000000000000044 .L0 
C:\Users\stapi\AppData\Local\Temp\ccjZAqnI.s:3419   .text.IOT_OTA_IsFetchFinish:0000000000000044 .L0 
C:\Users\stapi\AppData\Local\Temp\ccjZAqnI.s:3420   .text.IOT_OTA_IsFetchFinish:0000000000000044 .L0 
C:\Users\stapi\AppData\Local\Temp\ccjZAqnI.s:3423   .text.IOT_OTA_IsFetchFinish:0000000000000044 .L0 
C:\Users\stapi\AppData\Local\Temp\ccjZAqnI.s:3425   .text.IOT_OTA_IsFetchFinish:0000000000000044 .L0 
C:\Users\stapi\AppData\Local\Temp\ccjZAqnI.s:3428   .text.IOT_OTA_IsFetchFinish:0000000000000048 .L0 
C:\Users\stapi\AppData\Local\Temp\ccjZAqnI.s:3429   .text.IOT_OTA_IsFetchFinish:0000000000000048 .L0 
C:\Users\stapi\AppData\Local\Temp\ccjZAqnI.s:3432   .text.IOT_OTA_IsFetchFinish:000000000000004a .L0 
C:\Users\stapi\AppData\Local\Temp\ccjZAqnI.s:3433   .text.IOT_OTA_IsFetchFinish:000000000000004a .L0 
C:\Users\stapi\AppData\Local\Temp\ccjZAqnI.s:3438   .text.IOT_OTA_IsFetchFinish:000000000000005a .L0 
C:\Users\stapi\AppData\Local\Temp\ccjZAqnI.s:3443   .text.IOT_OTA_IsFetchFinish:000000000000006a .L0 
C:\Users\stapi\AppData\Local\Temp\ccjZAqnI.s:3448   .text.IOT_OTA_IsFetchFinish:000000000000007a .L0 
C:\Users\stapi\AppData\Local\Temp\ccjZAqnI.s:3449   .text.IOT_OTA_IsFetchFinish:000000000000007a .L0 
C:\Users\stapi\AppData\Local\Temp\ccjZAqnI.s:3450   .text.IOT_OTA_IsFetchFinish:000000000000007a .L0 
C:\Users\stapi\AppData\Local\Temp\ccjZAqnI.s:3455   .text.IOT_OTA_IsFetchFinish:0000000000000080 .L0 
C:\Users\stapi\AppData\Local\Temp\ccjZAqnI.s:3456   .text.IOT_OTA_IsFetchFinish:0000000000000080 .L0 
C:\Users\stapi\AppData\Local\Temp\ccjZAqnI.s:3459   .text.IOT_OTA_IsFetchFinish:000000000000008a .L0 
C:\Users\stapi\AppData\Local\Temp\ccjZAqnI.s:3482   .text.IOT_OTA_FetchYield:0000000000000000 IOT_OTA_FetchYield
C:\Users\stapi\AppData\Local\Temp\ccjZAqnI.s:3485   .text.IOT_OTA_FetchYield:0000000000000000 .L0 
C:\Users\stapi\AppData\Local\Temp\ccjZAqnI.s:3487   .text.IOT_OTA_FetchYield:0000000000000000 .L0 
C:\Users\stapi\AppData\Local\Temp\ccjZAqnI.s:3488   .text.IOT_OTA_FetchYield:0000000000000008 .L0 
C:\Users\stapi\AppData\Local\Temp\ccjZAqnI.s:3489   .text.IOT_OTA_FetchYield:0000000000000008 .L0 
C:\Users\stapi\AppData\Local\Temp\ccjZAqnI.s:3490   .text.IOT_OTA_FetchYield:0000000000000008 .L0 
C:\Users\stapi\AppData\Local\Temp\ccjZAqnI.s:3491   .text.IOT_OTA_FetchYield:0000000000000008 .L0 
C:\Users\stapi\AppData\Local\Temp\ccjZAqnI.s:3492   .text.IOT_OTA_FetchYield:0000000000000008 .L0 
C:\Users\stapi\AppData\Local\Temp\ccjZAqnI.s:3494   .text.IOT_OTA_FetchYield:0000000000000008 .L0 
C:\Users\stapi\AppData\Local\Temp\ccjZAqnI.s:3496   .text.IOT_OTA_FetchYield:0000000000000008 .L0 
C:\Users\stapi\AppData\Local\Temp\ccjZAqnI.s:3497   .text.IOT_OTA_FetchYield:0000000000000008 .L0 
C:\Users\stapi\AppData\Local\Temp\ccjZAqnI.s:3498   .text.IOT_OTA_FetchYield:0000000000000008 .L0 
C:\Users\stapi\AppData\Local\Temp\ccjZAqnI.s:3501   .text.IOT_OTA_FetchYield:000000000000000c .L0 
C:\Users\stapi\AppData\Local\Temp\ccjZAqnI.s:3503   .text.IOT_OTA_FetchYield:000000000000000e .L0 
C:\Users\stapi\AppData\Local\Temp\ccjZAqnI.s:3506   .text.IOT_OTA_FetchYield:0000000000000010 .L0 
C:\Users\stapi\AppData\Local\Temp\ccjZAqnI.s:3507   .text.IOT_OTA_FetchYield:0000000000000010 .L0 
C:\Users\stapi\AppData\Local\Temp\ccjZAqnI.s:3513   .text.IOT_OTA_FetchYield:0000000000000020 .L0 
C:\Users\stapi\AppData\Local\Temp\ccjZAqnI.s:3518   .text.IOT_OTA_FetchYield:0000000000000030 .L0 
C:\Users\stapi\AppData\Local\Temp\ccjZAqnI.s:3523   .text.IOT_OTA_FetchYield:0000000000000040 .L0 
C:\Users\stapi\AppData\Local\Temp\ccjZAqnI.s:3524   .text.IOT_OTA_FetchYield:0000000000000040 .L0 
C:\Users\stapi\AppData\Local\Temp\ccjZAqnI.s:3525   .text.IOT_OTA_FetchYield:0000000000000040 .L0 
C:\Users\stapi\AppData\Local\Temp\ccjZAqnI.s:3528   .text.IOT_OTA_FetchYield:0000000000000042 .L0 
C:\Users\stapi\AppData\Local\Temp\ccjZAqnI.s:3530   .text.IOT_OTA_FetchYield:000000000000004c .L0 
C:\Users\stapi\AppData\Local\Temp\ccjZAqnI.s:3531   .text.IOT_OTA_FetchYield:000000000000004c .L0 
C:\Users\stapi\AppData\Local\Temp\ccjZAqnI.s:3532   .text.IOT_OTA_FetchYield:000000000000004c .L0 
C:\Users\stapi\AppData\Local\Temp\ccjZAqnI.s:3533   .text.IOT_OTA_FetchYield:000000000000004c .L0 
C:\Users\stapi\AppData\Local\Temp\ccjZAqnI.s:3534   .text.IOT_OTA_FetchYield:000000000000004c .L0 
C:\Users\stapi\AppData\Local\Temp\ccjZAqnI.s:3535   .text.IOT_OTA_FetchYield:000000000000004c .L0 
C:\Users\stapi\AppData\Local\Temp\ccjZAqnI.s:3538   .text.IOT_OTA_FetchYield:000000000000004c .L0 
C:\Users\stapi\AppData\Local\Temp\ccjZAqnI.s:3540   .text.IOT_OTA_FetchYield:000000000000004c .L0 
C:\Users\stapi\AppData\Local\Temp\ccjZAqnI.s:3544   .text.IOT_OTA_FetchYield:0000000000000052 .L0 
C:\Users\stapi\AppData\Local\Temp\ccjZAqnI.s:3545   .text.IOT_OTA_FetchYield:0000000000000052 .L0 
C:\Users\stapi\AppData\Local\Temp\ccjZAqnI.s:3548   .text.IOT_OTA_FetchYield:0000000000000056 .L0 
C:\Users\stapi\AppData\Local\Temp\ccjZAqnI.s:3549   .text.IOT_OTA_FetchYield:0000000000000056 .L0 
C:\Users\stapi\AppData\Local\Temp\ccjZAqnI.s:3552   .text.IOT_OTA_FetchYield:000000000000005a .L0 
C:\Users\stapi\AppData\Local\Temp\ccjZAqnI.s:3553   .text.IOT_OTA_FetchYield:000000000000005a .L0 
C:\Users\stapi\AppData\Local\Temp\ccjZAqnI.s:3557   .text.IOT_OTA_FetchYield:000000000000005e .L0 
C:\Users\stapi\AppData\Local\Temp\ccjZAqnI.s:3558   .text.IOT_OTA_FetchYield:000000000000005e .L0 
C:\Users\stapi\AppData\Local\Temp\ccjZAqnI.s:3564   .text.IOT_OTA_FetchYield:000000000000006a .L0 
C:\Users\stapi\AppData\Local\Temp\ccjZAqnI.s:3565   .text.IOT_OTA_FetchYield:000000000000006a .L0 
C:\Users\stapi\AppData\Local\Temp\ccjZAqnI.s:3567   .text.IOT_OTA_FetchYield:000000000000006e .L0 
C:\Users\stapi\AppData\Local\Temp\ccjZAqnI.s:3568   .text.IOT_OTA_FetchYield:000000000000006e .L0 
C:\Users\stapi\AppData\Local\Temp\ccjZAqnI.s:3573   .text.IOT_OTA_FetchYield:000000000000007e .L0 
C:\Users\stapi\AppData\Local\Temp\ccjZAqnI.s:3578   .text.IOT_OTA_FetchYield:000000000000008e .L0 
C:\Users\stapi\AppData\Local\Temp\ccjZAqnI.s:3583   .text.IOT_OTA_FetchYield:000000000000009e .L0 
C:\Users\stapi\AppData\Local\Temp\ccjZAqnI.s:3584   .text.IOT_OTA_FetchYield:000000000000009e .L0 
C:\Users\stapi\AppData\Local\Temp\ccjZAqnI.s:3585   .text.IOT_OTA_FetchYield:000000000000009e .L0 
C:\Users\stapi\AppData\Local\Temp\ccjZAqnI.s:3588   .text.IOT_OTA_FetchYield:00000000000000a2 .L0 
C:\Users\stapi\AppData\Local\Temp\ccjZAqnI.s:3589   .text.IOT_OTA_FetchYield:00000000000000a2 .L0 
C:\Users\stapi\AppData\Local\Temp\ccjZAqnI.s:3592   .text.IOT_OTA_FetchYield:00000000000000a6 .L0 
C:\Users\stapi\AppData\Local\Temp\ccjZAqnI.s:3594   .text.IOT_OTA_FetchYield:00000000000000a8 .L0 
C:\Users\stapi\AppData\Local\Temp\ccjZAqnI.s:3596   .text.IOT_OTA_FetchYield:00000000000000ac .L0 
C:\Users\stapi\AppData\Local\Temp\ccjZAqnI.s:3597   .text.IOT_OTA_FetchYield:00000000000000ac .L0 
C:\Users\stapi\AppData\Local\Temp\ccjZAqnI.s:3598   .text.IOT_OTA_FetchYield:00000000000000ac .L0 
C:\Users\stapi\AppData\Local\Temp\ccjZAqnI.s:3600   .text.IOT_OTA_FetchYield:00000000000000ae .L0 
C:\Users\stapi\AppData\Local\Temp\ccjZAqnI.s:3602   .text.IOT_OTA_FetchYield:00000000000000b0 .L0 
C:\Users\stapi\AppData\Local\Temp\ccjZAqnI.s:3604   .text.IOT_OTA_FetchYield:00000000000000b2 .L0 
C:\Users\stapi\AppData\Local\Temp\ccjZAqnI.s:3611   .text.IOT_OTA_FetchYield:00000000000000bc .L0 
C:\Users\stapi\AppData\Local\Temp\ccjZAqnI.s:3612   .text.IOT_OTA_FetchYield:00000000000000bc .L0 
C:\Users\stapi\AppData\Local\Temp\ccjZAqnI.s:3615   .text.IOT_OTA_FetchYield:00000000000000c0 .L0 
C:\Users\stapi\AppData\Local\Temp\ccjZAqnI.s:3616   .text.IOT_OTA_FetchYield:00000000000000c0 .L0 
C:\Users\stapi\AppData\Local\Temp\ccjZAqnI.s:3619   .text.IOT_OTA_FetchYield:00000000000000c4 .L0 
C:\Users\stapi\AppData\Local\Temp\ccjZAqnI.s:3620   .text.IOT_OTA_FetchYield:00000000000000c4 .L0 
C:\Users\stapi\AppData\Local\Temp\ccjZAqnI.s:3621   .text.IOT_OTA_FetchYield:00000000000000c4 .L0 
C:\Users\stapi\AppData\Local\Temp\ccjZAqnI.s:3622   .text.IOT_OTA_FetchYield:00000000000000c4 .L0 
C:\Users\stapi\AppData\Local\Temp\ccjZAqnI.s:3628   .text.IOT_OTA_FetchYield:00000000000000c8 .L0 
C:\Users\stapi\AppData\Local\Temp\ccjZAqnI.s:3629   .text.IOT_OTA_FetchYield:00000000000000c8 .L0 
C:\Users\stapi\AppData\Local\Temp\ccjZAqnI.s:3631   .text.IOT_OTA_FetchYield:00000000000000cc .L0 
C:\Users\stapi\AppData\Local\Temp\ccjZAqnI.s:3633   .text.IOT_OTA_FetchYield:00000000000000d0 .L0 
C:\Users\stapi\AppData\Local\Temp\ccjZAqnI.s:3635   .text.IOT_OTA_FetchYield:00000000000000d4 .L0 
C:\Users\stapi\AppData\Local\Temp\ccjZAqnI.s:3637   .text.IOT_OTA_FetchYield:00000000000000d8 .L0 
C:\Users\stapi\AppData\Local\Temp\ccjZAqnI.s:3647   .text.IOT_OTA_FetchYield:00000000000000ea .L0 
C:\Users\stapi\AppData\Local\Temp\ccjZAqnI.s:3648   .text.IOT_OTA_FetchYield:00000000000000ea .L0 
C:\Users\stapi\AppData\Local\Temp\ccjZAqnI.s:3652   .text.IOT_OTA_FetchYield:00000000000000f0 .L0 
C:\Users\stapi\AppData\Local\Temp\ccjZAqnI.s:3653   .text.IOT_OTA_FetchYield:00000000000000f0 .L0 
C:\Users\stapi\AppData\Local\Temp\ccjZAqnI.s:3656   .text.IOT_OTA_FetchYield:00000000000000f4 .L0 
C:\Users\stapi\AppData\Local\Temp\ccjZAqnI.s:3660   .text.IOT_OTA_FetchYield:00000000000000fe .L0 
C:\Users\stapi\AppData\Local\Temp\ccjZAqnI.s:3661   .text.IOT_OTA_FetchYield:00000000000000fe .L0 
C:\Users\stapi\AppData\Local\Temp\ccjZAqnI.s:3664   .text.IOT_OTA_FetchYield:0000000000000106 .L0 
C:\Users\stapi\AppData\Local\Temp\ccjZAqnI.s:3666   .text.IOT_OTA_FetchYield:0000000000000108 .L0 
C:\Users\stapi\AppData\Local\Temp\ccjZAqnI.s:3667   .text.IOT_OTA_FetchYield:0000000000000108 .L0 
C:\Users\stapi\AppData\Local\Temp\ccjZAqnI.s:3669   .text.IOT_OTA_FetchYield:000000000000010a .L0 
C:\Users\stapi\AppData\Local\Temp\ccjZAqnI.s:3670   .text.IOT_OTA_FetchYield:000000000000010a .L0 
C:\Users\stapi\AppData\Local\Temp\ccjZAqnI.s:3675   .text.IOT_OTA_FetchYield:000000000000011a .L0 
C:\Users\stapi\AppData\Local\Temp\ccjZAqnI.s:3681   .text.IOT_OTA_FetchYield:000000000000012a .L0 
C:\Users\stapi\AppData\Local\Temp\ccjZAqnI.s:3688   .text.IOT_OTA_FetchYield:000000000000013c .L0 
C:\Users\stapi\AppData\Local\Temp\ccjZAqnI.s:3692   .text.IOT_OTA_FetchYield:0000000000000146 .L0 
C:\Users\stapi\AppData\Local\Temp\ccjZAqnI.s:3693   .text.IOT_OTA_FetchYield:0000000000000146 .L0 
C:\Users\stapi\AppData\Local\Temp\ccjZAqnI.s:3696   .text.IOT_OTA_FetchYield:000000000000014e .L0 
C:\Users\stapi\AppData\Local\Temp\ccjZAqnI.s:3698   .text.IOT_OTA_FetchYield:0000000000000150 .L0 
C:\Users\stapi\AppData\Local\Temp\ccjZAqnI.s:3699   .text.IOT_OTA_FetchYield:0000000000000150 .L0 
C:\Users\stapi\AppData\Local\Temp\ccjZAqnI.s:3701   .text.IOT_OTA_FetchYield:0000000000000152 .L0 
C:\Users\stapi\AppData\Local\Temp\ccjZAqnI.s:3702   .text.IOT_OTA_FetchYield:0000000000000152 .L0 
C:\Users\stapi\AppData\Local\Temp\ccjZAqnI.s:3707   .text.IOT_OTA_FetchYield:0000000000000162 .L0 
C:\Users\stapi\AppData\Local\Temp\ccjZAqnI.s:3712   .text.IOT_OTA_FetchYield:000000000000016c .L0 
C:\Users\stapi\AppData\Local\Temp\ccjZAqnI.s:3720   .text.IOT_OTA_FetchYield:0000000000000180 .L0 
C:\Users\stapi\AppData\Local\Temp\ccjZAqnI.s:3726   .text.IOT_OTA_FetchYield:000000000000018e .L0 
C:\Users\stapi\AppData\Local\Temp\ccjZAqnI.s:3732   .text.IOT_OTA_FetchYield:000000000000019c .L0 
C:\Users\stapi\AppData\Local\Temp\ccjZAqnI.s:3733   .text.IOT_OTA_FetchYield:000000000000019c .L0 
C:\Users\stapi\AppData\Local\Temp\ccjZAqnI.s:3735   .text.IOT_OTA_FetchYield:000000000000019e .L0 
C:\Users\stapi\AppData\Local\Temp\ccjZAqnI.s:3737   .text.IOT_OTA_FetchYield:00000000000001a0 .L0 
C:\Users\stapi\AppData\Local\Temp\ccjZAqnI.s:3739   .text.IOT_OTA_FetchYield:00000000000001a2 .L0 
C:\Users\stapi\AppData\Local\Temp\ccjZAqnI.s:3740   .text.IOT_OTA_FetchYield:00000000000001a2 .L0 
C:\Users\stapi\AppData\Local\Temp\ccjZAqnI.s:3743   .text.IOT_OTA_FetchYield:00000000000001a6 .L0 
C:\Users\stapi\AppData\Local\Temp\ccjZAqnI.s:3744   .text.IOT_OTA_FetchYield:00000000000001a6 .L0 
C:\Users\stapi\AppData\Local\Temp\ccjZAqnI.s:3746   .text.IOT_OTA_FetchYield:00000000000001aa .L0 
C:\Users\stapi\AppData\Local\Temp\ccjZAqnI.s:3747   .text.IOT_OTA_FetchYield:00000000000001aa .L0 
C:\Users\stapi\AppData\Local\Temp\ccjZAqnI.s:3750   .text.IOT_OTA_FetchYield:00000000000001ae .L0 
C:\Users\stapi\AppData\Local\Temp\ccjZAqnI.s:3752   .text.IOT_OTA_FetchYield:00000000000001b0 .L0 
C:\Users\stapi\AppData\Local\Temp\ccjZAqnI.s:3754   .text.IOT_OTA_FetchYield:00000000000001b4 .L0 
C:\Users\stapi\AppData\Local\Temp\ccjZAqnI.s:3755   .text.IOT_OTA_FetchYield:00000000000001b4 .L0 
C:\Users\stapi\AppData\Local\Temp\ccjZAqnI.s:3756   .text.IOT_OTA_FetchYield:00000000000001b4 .L0 
C:\Users\stapi\AppData\Local\Temp\ccjZAqnI.s:3758   .text.IOT_OTA_FetchYield:00000000000001b6 .L0 
C:\Users\stapi\AppData\Local\Temp\ccjZAqnI.s:3760   .text.IOT_OTA_FetchYield:00000000000001b8 .L0 
C:\Users\stapi\AppData\Local\Temp\ccjZAqnI.s:3762   .text.IOT_OTA_FetchYield:00000000000001ba .L0 
C:\Users\stapi\AppData\Local\Temp\ccjZAqnI.s:3768   .text.IOT_OTA_FetchYield:00000000000001c2 .L0 
C:\Users\stapi\AppData\Local\Temp\ccjZAqnI.s:3769   .text.IOT_OTA_FetchYield:00000000000001c2 .L0 
C:\Users\stapi\AppData\Local\Temp\ccjZAqnI.s:3773   .text.IOT_OTA_FetchYield:00000000000001c8 .L0 
C:\Users\stapi\AppData\Local\Temp\ccjZAqnI.s:3774   .text.IOT_OTA_FetchYield:00000000000001c8 .L0 
C:\Users\stapi\AppData\Local\Temp\ccjZAqnI.s:3776   .text.IOT_OTA_FetchYield:00000000000001cc .L0 
C:\Users\stapi\AppData\Local\Temp\ccjZAqnI.s:3778   .text.IOT_OTA_FetchYield:00000000000001d0 .L0 
C:\Users\stapi\AppData\Local\Temp\ccjZAqnI.s:3780   .text.IOT_OTA_FetchYield:00000000000001d4 .L0 
C:\Users\stapi\AppData\Local\Temp\ccjZAqnI.s:3782   .text.IOT_OTA_FetchYield:00000000000001d8 .L0 
C:\Users\stapi\AppData\Local\Temp\ccjZAqnI.s:3792   .text.IOT_OTA_FetchYield:00000000000001ea .L0 
C:\Users\stapi\AppData\Local\Temp\ccjZAqnI.s:3793   .text.IOT_OTA_FetchYield:00000000000001ea .L0 
C:\Users\stapi\AppData\Local\Temp\ccjZAqnI.s:3795   .text.IOT_OTA_FetchYield:00000000000001f0 .L0 
C:\Users\stapi\AppData\Local\Temp\ccjZAqnI.s:3824   .text.IOT_OTA_Ioctl:0000000000000000 IOT_OTA_Ioctl
C:\Users\stapi\AppData\Local\Temp\ccjZAqnI.s:3827   .text.IOT_OTA_Ioctl:0000000000000000 .L0 
C:\Users\stapi\AppData\Local\Temp\ccjZAqnI.s:3829   .text.IOT_OTA_Ioctl:0000000000000000 .L0 
C:\Users\stapi\AppData\Local\Temp\ccjZAqnI.s:3830   .text.IOT_OTA_Ioctl:0000000000000008 .L0 
C:\Users\stapi\AppData\Local\Temp\ccjZAqnI.s:3831   .text.IOT_OTA_Ioctl:0000000000000008 .L0 
C:\Users\stapi\AppData\Local\Temp\ccjZAqnI.s:3832   .text.IOT_OTA_Ioctl:0000000000000008 .L0 
C:\Users\stapi\AppData\Local\Temp\ccjZAqnI.s:3833   .text.IOT_OTA_Ioctl:0000000000000008 .L0 
C:\Users\stapi\AppData\Local\Temp\ccjZAqnI.s:3834   .text.IOT_OTA_Ioctl:0000000000000008 .L0 
C:\Users\stapi\AppData\Local\Temp\ccjZAqnI.s:3837   .text.IOT_OTA_Ioctl:0000000000000008 .L0 
C:\Users\stapi\AppData\Local\Temp\ccjZAqnI.s:3838   .text.IOT_OTA_Ioctl:0000000000000008 .L0 
C:\Users\stapi\AppData\Local\Temp\ccjZAqnI.s:3839   .text.IOT_OTA_Ioctl:0000000000000008 .L0 
C:\Users\stapi\AppData\Local\Temp\ccjZAqnI.s:3840   .text.IOT_OTA_Ioctl:000000000000000a .L0 
C:\Users\stapi\AppData\Local\Temp\ccjZAqnI.s:3842   .text.IOT_OTA_Ioctl:000000000000000a .L0 
C:\Users\stapi\AppData\Local\Temp\ccjZAqnI.s:3845   .text.IOT_OTA_Ioctl:000000000000000e .L0 
C:\Users\stapi\AppData\Local\Temp\ccjZAqnI.s:3848   .text.IOT_OTA_Ioctl:0000000000000012 .L0 
C:\Users\stapi\AppData\Local\Temp\ccjZAqnI.s:3851   .text.IOT_OTA_Ioctl:0000000000000014 .L0 
C:\Users\stapi\AppData\Local\Temp\ccjZAqnI.s:3852   .text.IOT_OTA_Ioctl:0000000000000014 .L0 
C:\Users\stapi\AppData\Local\Temp\ccjZAqnI.s:3858   .text.IOT_OTA_Ioctl:0000000000000024 .L0 
C:\Users\stapi\AppData\Local\Temp\ccjZAqnI.s:3863   .text.IOT_OTA_Ioctl:0000000000000034 .L0 
C:\Users\stapi\AppData\Local\Temp\ccjZAqnI.s:3868   .text.IOT_OTA_Ioctl:0000000000000044 .L0 
C:\Users\stapi\AppData\Local\Temp\ccjZAqnI.s:3869   .text.IOT_OTA_Ioctl:0000000000000044 .L0 
C:\Users\stapi\AppData\Local\Temp\ccjZAqnI.s:3870   .text.IOT_OTA_Ioctl:0000000000000044 .L0 
C:\Users\stapi\AppData\Local\Temp\ccjZAqnI.s:3873   .text.IOT_OTA_Ioctl:0000000000000046 .L0 
C:\Users\stapi\AppData\Local\Temp\ccjZAqnI.s:3875   .text.IOT_OTA_Ioctl:000000000000004a .L0 
C:\Users\stapi\AppData\Local\Temp\ccjZAqnI.s:3876   .text.IOT_OTA_Ioctl:000000000000004a .L0 
C:\Users\stapi\AppData\Local\Temp\ccjZAqnI.s:3878   .text.IOT_OTA_Ioctl:0000000000000052 .L0 
C:\Users\stapi\AppData\Local\Temp\ccjZAqnI.s:3879   .text.IOT_OTA_Ioctl:0000000000000052 .L0 
C:\Users\stapi\AppData\Local\Temp\ccjZAqnI.s:3880   .text.IOT_OTA_Ioctl:0000000000000052 .L0 
C:\Users\stapi\AppData\Local\Temp\ccjZAqnI.s:3881   .text.IOT_OTA_Ioctl:0000000000000052 .L0 
C:\Users\stapi\AppData\Local\Temp\ccjZAqnI.s:3882   .text.IOT_OTA_Ioctl:0000000000000052 .L0 
C:\Users\stapi\AppData\Local\Temp\ccjZAqnI.s:3885   .text.IOT_OTA_Ioctl:0000000000000052 .L0 
C:\Users\stapi\AppData\Local\Temp\ccjZAqnI.s:3887   .text.IOT_OTA_Ioctl:0000000000000052 .L0 
C:\Users\stapi\AppData\Local\Temp\ccjZAqnI.s:3889   .text.IOT_OTA_Ioctl:0000000000000054 .L0 
C:\Users\stapi\AppData\Local\Temp\ccjZAqnI.s:3892   .text.IOT_OTA_Ioctl:0000000000000058 .L0 
C:\Users\stapi\AppData\Local\Temp\ccjZAqnI.s:3893   .text.IOT_OTA_Ioctl:0000000000000058 .L0 
C:\Users\stapi\AppData\Local\Temp\ccjZAqnI.s:3896   .text.IOT_OTA_Ioctl:000000000000005c .L0 
C:\Users\stapi\AppData\Local\Temp\ccjZAqnI.s:3897   .text.IOT_OTA_Ioctl:000000000000005c .L0 
C:\Users\stapi\AppData\Local\Temp\ccjZAqnI.s:3900   .text.IOT_OTA_Ioctl:0000000000000060 .L0 
C:\Users\stapi\AppData\Local\Temp\ccjZAqnI.s:3901   .text.IOT_OTA_Ioctl:0000000000000060 .L0 
C:\Users\stapi\AppData\Local\Temp\ccjZAqnI.s:3905   .text.IOT_OTA_Ioctl:0000000000000064 .L0 
C:\Users\stapi\AppData\Local\Temp\ccjZAqnI.s:3936   .text.IOT_OTA_Ioctl:000000000000007a .L0 
C:\Users\stapi\AppData\Local\Temp\ccjZAqnI.s:3937   .text.IOT_OTA_Ioctl:000000000000007a .L0 
C:\Users\stapi\AppData\Local\Temp\ccjZAqnI.s:3938   .text.IOT_OTA_Ioctl:000000000000007a .L0 
C:\Users\stapi\AppData\Local\Temp\ccjZAqnI.s:3941   .text.IOT_OTA_Ioctl:000000000000007e .L0 
C:\Users\stapi\AppData\Local\Temp\ccjZAqnI.s:3943   .text.IOT_OTA_Ioctl:0000000000000080 .L0 
C:\Users\stapi\AppData\Local\Temp\ccjZAqnI.s:3947   .text.IOT_OTA_Ioctl:0000000000000082 .L0 
C:\Users\stapi\AppData\Local\Temp\ccjZAqnI.s:3948   .text.IOT_OTA_Ioctl:0000000000000082 .L0 
C:\Users\stapi\AppData\Local\Temp\ccjZAqnI.s:3953   .text.IOT_OTA_Ioctl:0000000000000092 .L0 
C:\Users\stapi\AppData\Local\Temp\ccjZAqnI.s:3958   .text.IOT_OTA_Ioctl:000000000000009a .L0 
C:\Users\stapi\AppData\Local\Temp\ccjZAqnI.s:3961   .text.IOT_OTA_Ioctl:00000000000000a2 .L0 
C:\Users\stapi\AppData\Local\Temp\ccjZAqnI.s:3970   .text.IOT_OTA_Ioctl:00000000000000b4 .L0 
C:\Users\stapi\AppData\Local\Temp\ccjZAqnI.s:3971   .text.IOT_OTA_Ioctl:00000000000000b4 .L0 
C:\Users\stapi\AppData\Local\Temp\ccjZAqnI.s:3979   .text.IOT_OTA_Ioctl:00000000000000cc .L0 
C:\Users\stapi\AppData\Local\Temp\ccjZAqnI.s:3981   .text.IOT_OTA_Ioctl:00000000000000ce .L0 
C:\Users\stapi\AppData\Local\Temp\ccjZAqnI.s:3982   .text.IOT_OTA_Ioctl:00000000000000ce .L0 
C:\Users\stapi\AppData\Local\Temp\ccjZAqnI.s:3985   .text.IOT_OTA_Ioctl:00000000000000d0 .L0 
C:\Users\stapi\AppData\Local\Temp\ccjZAqnI.s:3990   .text.IOT_OTA_Ioctl:00000000000000d2 .L0 
C:\Users\stapi\AppData\Local\Temp\ccjZAqnI.s:3991   .text.IOT_OTA_Ioctl:00000000000000d2 .L0 
C:\Users\stapi\AppData\Local\Temp\ccjZAqnI.s:3992   .text.IOT_OTA_Ioctl:00000000000000d2 .L0 
C:\Users\stapi\AppData\Local\Temp\ccjZAqnI.s:3999   .text.IOT_OTA_Ioctl:00000000000000d8 .L0 
C:\Users\stapi\AppData\Local\Temp\ccjZAqnI.s:4000   .text.IOT_OTA_Ioctl:00000000000000d8 .L0 
C:\Users\stapi\AppData\Local\Temp\ccjZAqnI.s:4004   .text.IOT_OTA_Ioctl:00000000000000e2 .L0 
C:\Users\stapi\AppData\Local\Temp\ccjZAqnI.s:4010   .text.IOT_OTA_Ioctl:00000000000000f2 .L0 
C:\Users\stapi\AppData\Local\Temp\ccjZAqnI.s:4011   .text.IOT_OTA_Ioctl:00000000000000f2 .L0 
C:\Users\stapi\AppData\Local\Temp\ccjZAqnI.s:4017   .text.IOT_OTA_Ioctl:00000000000000f4 .L0 
C:\Users\stapi\AppData\Local\Temp\ccjZAqnI.s:4029   .text.IOT_OTA_Ioctl:000000000000010e .L0 
C:\Users\stapi\AppData\Local\Temp\ccjZAqnI.s:4030   .text.IOT_OTA_Ioctl:000000000000010e .L0 
C:\Users\stapi\AppData\Local\Temp\ccjZAqnI.s:4035   .text.IOT_OTA_Ioctl:0000000000000112 .L0 
C:\Users\stapi\AppData\Local\Temp\ccjZAqnI.s:4036   .text.IOT_OTA_Ioctl:0000000000000112 .L0 
C:\Users\stapi\AppData\Local\Temp\ccjZAqnI.s:4037   .text.IOT_OTA_Ioctl:0000000000000112 .L0 
C:\Users\stapi\AppData\Local\Temp\ccjZAqnI.s:4040   .text.IOT_OTA_Ioctl:0000000000000118 .L0 
C:\Users\stapi\AppData\Local\Temp\ccjZAqnI.s:4042   .text.IOT_OTA_Ioctl:000000000000011c .L0 
C:\Users\stapi\AppData\Local\Temp\ccjZAqnI.s:4044   .text.IOT_OTA_Ioctl:000000000000011e .L0 
C:\Users\stapi\AppData\Local\Temp\ccjZAqnI.s:4045   .text.IOT_OTA_Ioctl:000000000000011e .L0 
C:\Users\stapi\AppData\Local\Temp\ccjZAqnI.s:4048   .text.IOT_OTA_Ioctl:0000000000000120 .L0 
C:\Users\stapi\AppData\Local\Temp\ccjZAqnI.s:4050   .text.IOT_OTA_Ioctl:0000000000000122 .L0 
C:\Users\stapi\AppData\Local\Temp\ccjZAqnI.s:4054   .text.IOT_OTA_Ioctl:0000000000000124 .L0 
C:\Users\stapi\AppData\Local\Temp\ccjZAqnI.s:4056   .text.IOT_OTA_Ioctl:0000000000000124 .L0 
C:\Users\stapi\AppData\Local\Temp\ccjZAqnI.s:4057   .text.IOT_OTA_Ioctl:0000000000000124 .L0 
C:\Users\stapi\AppData\Local\Temp\ccjZAqnI.s:4058   .text.IOT_OTA_Ioctl:0000000000000124 .L0 
C:\Users\stapi\AppData\Local\Temp\ccjZAqnI.s:4061   .text.IOT_OTA_Ioctl:0000000000000128 .L0 
C:\Users\stapi\AppData\Local\Temp\ccjZAqnI.s:4063   .text.IOT_OTA_Ioctl:000000000000012a .L0 
C:\Users\stapi\AppData\Local\Temp\ccjZAqnI.s:4065   .text.IOT_OTA_Ioctl:000000000000012c .L0 
C:\Users\stapi\AppData\Local\Temp\ccjZAqnI.s:4066   .text.IOT_OTA_Ioctl:000000000000012c .L0 
C:\Users\stapi\AppData\Local\Temp\ccjZAqnI.s:4074   .text.IOT_OTA_Ioctl:0000000000000144 .L0 
C:\Users\stapi\AppData\Local\Temp\ccjZAqnI.s:4076   .text.IOT_OTA_Ioctl:0000000000000146 .L0 
C:\Users\stapi\AppData\Local\Temp\ccjZAqnI.s:4077   .text.IOT_OTA_Ioctl:0000000000000146 .L0 
C:\Users\stapi\AppData\Local\Temp\ccjZAqnI.s:4080   .text.IOT_OTA_Ioctl:0000000000000148 .L0 
C:\Users\stapi\AppData\Local\Temp\ccjZAqnI.s:4082   .text.IOT_OTA_Ioctl:000000000000014a .L0 
C:\Users\stapi\AppData\Local\Temp\ccjZAqnI.s:4083   .text.IOT_OTA_Ioctl:000000000000014a .L0 
C:\Users\stapi\AppData\Local\Temp\ccjZAqnI.s:4087   .text.IOT_OTA_Ioctl:0000000000000154 .L0 
C:\Users\stapi\AppData\Local\Temp\ccjZAqnI.s:4093   .text.IOT_OTA_Ioctl:0000000000000164 .L0 
C:\Users\stapi\AppData\Local\Temp\ccjZAqnI.s:4094   .text.IOT_OTA_Ioctl:0000000000000164 .L0 
C:\Users\stapi\AppData\Local\Temp\ccjZAqnI.s:4101   .text.IOT_OTA_Ioctl:0000000000000168 .L0 
C:\Users\stapi\AppData\Local\Temp\ccjZAqnI.s:4102   .text.IOT_OTA_Ioctl:0000000000000168 .L0 
C:\Users\stapi\AppData\Local\Temp\ccjZAqnI.s:4103   .text.IOT_OTA_Ioctl:0000000000000168 .L0 
C:\Users\stapi\AppData\Local\Temp\ccjZAqnI.s:4104   .text.IOT_OTA_Ioctl:0000000000000168 .L0 
C:\Users\stapi\AppData\Local\Temp\ccjZAqnI.s:4107   .text.IOT_OTA_Ioctl:000000000000016c .L0 
C:\Users\stapi\AppData\Local\Temp\ccjZAqnI.s:4109   .text.IOT_OTA_Ioctl:000000000000016e .L0 
C:\Users\stapi\AppData\Local\Temp\ccjZAqnI.s:4111   .text.IOT_OTA_Ioctl:0000000000000170 .L0 
C:\Users\stapi\AppData\Local\Temp\ccjZAqnI.s:4112   .text.IOT_OTA_Ioctl:0000000000000170 .L0 
C:\Users\stapi\AppData\Local\Temp\ccjZAqnI.s:4120   .text.IOT_OTA_Ioctl:0000000000000188 .L0 
C:\Users\stapi\AppData\Local\Temp\ccjZAqnI.s:4122   .text.IOT_OTA_Ioctl:000000000000018a .L0 
C:\Users\stapi\AppData\Local\Temp\ccjZAqnI.s:4123   .text.IOT_OTA_Ioctl:000000000000018a .L0 
C:\Users\stapi\AppData\Local\Temp\ccjZAqnI.s:4126   .text.IOT_OTA_Ioctl:000000000000018c .L0 
C:\Users\stapi\AppData\Local\Temp\ccjZAqnI.s:4128   .text.IOT_OTA_Ioctl:000000000000018e .L0 
C:\Users\stapi\AppData\Local\Temp\ccjZAqnI.s:4129   .text.IOT_OTA_Ioctl:000000000000018e .L0 
C:\Users\stapi\AppData\Local\Temp\ccjZAqnI.s:4133   .text.IOT_OTA_Ioctl:0000000000000198 .L0 
C:\Users\stapi\AppData\Local\Temp\ccjZAqnI.s:4139   .text.IOT_OTA_Ioctl:00000000000001a8 .L0 
C:\Users\stapi\AppData\Local\Temp\ccjZAqnI.s:4140   .text.IOT_OTA_Ioctl:00000000000001a8 .L0 
C:\Users\stapi\AppData\Local\Temp\ccjZAqnI.s:4147   .text.IOT_OTA_Ioctl:00000000000001ac .L0 
C:\Users\stapi\AppData\Local\Temp\ccjZAqnI.s:4148   .text.IOT_OTA_Ioctl:00000000000001ac .L0 
C:\Users\stapi\AppData\Local\Temp\ccjZAqnI.s:4149   .text.IOT_OTA_Ioctl:00000000000001ac .L0 
C:\Users\stapi\AppData\Local\Temp\ccjZAqnI.s:4150   .text.IOT_OTA_Ioctl:00000000000001ac .L0 
C:\Users\stapi\AppData\Local\Temp\ccjZAqnI.s:4153   .text.IOT_OTA_Ioctl:00000000000001b2 .L0 
C:\Users\stapi\AppData\Local\Temp\ccjZAqnI.s:4155   .text.IOT_OTA_Ioctl:00000000000001b4 .L0 
C:\Users\stapi\AppData\Local\Temp\ccjZAqnI.s:4157   .text.IOT_OTA_Ioctl:00000000000001b8 .L0 
C:\Users\stapi\AppData\Local\Temp\ccjZAqnI.s:4158   .text.IOT_OTA_Ioctl:00000000000001b8 .L0 
C:\Users\stapi\AppData\Local\Temp\ccjZAqnI.s:4166   .text.IOT_OTA_Ioctl:00000000000001d0 .L0 
C:\Users\stapi\AppData\Local\Temp\ccjZAqnI.s:4168   .text.IOT_OTA_Ioctl:00000000000001d2 .L0 
C:\Users\stapi\AppData\Local\Temp\ccjZAqnI.s:4169   .text.IOT_OTA_Ioctl:00000000000001d2 .L0 
C:\Users\stapi\AppData\Local\Temp\ccjZAqnI.s:4172   .text.IOT_OTA_Ioctl:00000000000001d4 .L0 
C:\Users\stapi\AppData\Local\Temp\ccjZAqnI.s:4174   .text.IOT_OTA_Ioctl:00000000000001d8 .L0 
C:\Users\stapi\AppData\Local\Temp\ccjZAqnI.s:4175   .text.IOT_OTA_Ioctl:00000000000001d8 .L0 
C:\Users\stapi\AppData\Local\Temp\ccjZAqnI.s:4179   .text.IOT_OTA_Ioctl:00000000000001e2 .L0 
C:\Users\stapi\AppData\Local\Temp\ccjZAqnI.s:4185   .text.IOT_OTA_Ioctl:00000000000001f2 .L0 
C:\Users\stapi\AppData\Local\Temp\ccjZAqnI.s:4186   .text.IOT_OTA_Ioctl:00000000000001f2 .L0 
C:\Users\stapi\AppData\Local\Temp\ccjZAqnI.s:4193   .text.IOT_OTA_Ioctl:00000000000001f6 .L0 
C:\Users\stapi\AppData\Local\Temp\ccjZAqnI.s:4194   .text.IOT_OTA_Ioctl:00000000000001f6 .L0 
C:\Users\stapi\AppData\Local\Temp\ccjZAqnI.s:4195   .text.IOT_OTA_Ioctl:00000000000001f6 .L0 
C:\Users\stapi\AppData\Local\Temp\ccjZAqnI.s:4196   .text.IOT_OTA_Ioctl:00000000000001f6 .L0 
C:\Users\stapi\AppData\Local\Temp\ccjZAqnI.s:4199   .text.IOT_OTA_Ioctl:00000000000001fc .L0 
C:\Users\stapi\AppData\Local\Temp\ccjZAqnI.s:4201   .text.IOT_OTA_Ioctl:00000000000001fe .L0 
C:\Users\stapi\AppData\Local\Temp\ccjZAqnI.s:4203   .text.IOT_OTA_Ioctl:0000000000000202 .L0 
C:\Users\stapi\AppData\Local\Temp\ccjZAqnI.s:4204   .text.IOT_OTA_Ioctl:0000000000000202 .L0 
C:\Users\stapi\AppData\Local\Temp\ccjZAqnI.s:4212   .text.IOT_OTA_Ioctl:000000000000021a .L0 
C:\Users\stapi\AppData\Local\Temp\ccjZAqnI.s:4214   .text.IOT_OTA_Ioctl:000000000000021c .L0 
C:\Users\stapi\AppData\Local\Temp\ccjZAqnI.s:4215   .text.IOT_OTA_Ioctl:000000000000021c .L0 
C:\Users\stapi\AppData\Local\Temp\ccjZAqnI.s:4218   .text.IOT_OTA_Ioctl:000000000000021e .L0 
C:\Users\stapi\AppData\Local\Temp\ccjZAqnI.s:4220   .text.IOT_OTA_Ioctl:0000000000000222 .L0 
C:\Users\stapi\AppData\Local\Temp\ccjZAqnI.s:4221   .text.IOT_OTA_Ioctl:0000000000000222 .L0 
C:\Users\stapi\AppData\Local\Temp\ccjZAqnI.s:4225   .text.IOT_OTA_Ioctl:000000000000022c .L0 
C:\Users\stapi\AppData\Local\Temp\ccjZAqnI.s:4231   .text.IOT_OTA_Ioctl:000000000000023c .L0 
C:\Users\stapi\AppData\Local\Temp\ccjZAqnI.s:4232   .text.IOT_OTA_Ioctl:000000000000023c .L0 
C:\Users\stapi\AppData\Local\Temp\ccjZAqnI.s:4238   .text.IOT_OTA_Ioctl:0000000000000240 .L0 
C:\Users\stapi\AppData\Local\Temp\ccjZAqnI.s:4239   .text.IOT_OTA_Ioctl:0000000000000240 .L0 
C:\Users\stapi\AppData\Local\Temp\ccjZAqnI.s:4240   .text.IOT_OTA_Ioctl:0000000000000240 .L0 
C:\Users\stapi\AppData\Local\Temp\ccjZAqnI.s:4243   .text.IOT_OTA_Ioctl:0000000000000246 .L0 
C:\Users\stapi\AppData\Local\Temp\ccjZAqnI.s:4245   .text.IOT_OTA_Ioctl:000000000000024a .L0 
C:\Users\stapi\AppData\Local\Temp\ccjZAqnI.s:4247   .text.IOT_OTA_Ioctl:000000000000024e .L0 
C:\Users\stapi\AppData\Local\Temp\ccjZAqnI.s:4248   .text.IOT_OTA_Ioctl:000000000000024e .L0 
C:\Users\stapi\AppData\Local\Temp\ccjZAqnI.s:4252   .text.IOT_OTA_Ioctl:0000000000000252 .L0 
C:\Users\stapi\AppData\Local\Temp\ccjZAqnI.s:4253   .text.IOT_OTA_Ioctl:0000000000000252 .L0 
C:\Users\stapi\AppData\Local\Temp\ccjZAqnI.s:4254   .text.IOT_OTA_Ioctl:0000000000000252 .L0 
C:\Users\stapi\AppData\Local\Temp\ccjZAqnI.s:4257   .text.IOT_OTA_Ioctl:0000000000000258 .L0 
C:\Users\stapi\AppData\Local\Temp\ccjZAqnI.s:4259   .text.IOT_OTA_Ioctl:000000000000025c .L0 
C:\Users\stapi\AppData\Local\Temp\ccjZAqnI.s:4261   .text.IOT_OTA_Ioctl:0000000000000260 .L0 
C:\Users\stapi\AppData\Local\Temp\ccjZAqnI.s:4262   .text.IOT_OTA_Ioctl:0000000000000260 .L0 
C:\Users\stapi\AppData\Local\Temp\ccjZAqnI.s:4266   .text.IOT_OTA_Ioctl:0000000000000264 .L0 
C:\Users\stapi\AppData\Local\Temp\ccjZAqnI.s:4267   .text.IOT_OTA_Ioctl:0000000000000264 .L0 
C:\Users\stapi\AppData\Local\Temp\ccjZAqnI.s:4270   .text.IOT_OTA_Ioctl:000000000000026a .L0 
C:\Users\stapi\AppData\Local\Temp\ccjZAqnI.s:4272   .text.IOT_OTA_Ioctl:000000000000026e .L0 
C:\Users\stapi\AppData\Local\Temp\ccjZAqnI.s:4274   .text.IOT_OTA_Ioctl:0000000000000272 .L0 
C:\Users\stapi\AppData\Local\Temp\ccjZAqnI.s:4275   .text.IOT_OTA_Ioctl:0000000000000272 .L0 
C:\Users\stapi\AppData\Local\Temp\ccjZAqnI.s:4279   .text.IOT_OTA_Ioctl:0000000000000276 .L0 
C:\Users\stapi\AppData\Local\Temp\ccjZAqnI.s:4280   .text.IOT_OTA_Ioctl:0000000000000276 .L0 
C:\Users\stapi\AppData\Local\Temp\ccjZAqnI.s:4285   .text.IOT_OTA_Ioctl:000000000000027a .L0 
C:\Users\stapi\AppData\Local\Temp\ccjZAqnI.s:4287   .text.IOT_OTA_Ioctl:000000000000027c .L0 
C:\Users\stapi\AppData\Local\Temp\ccjZAqnI.s:4290   .text.IOT_OTA_Ioctl:000000000000027e .L0 
C:\Users\stapi\AppData\Local\Temp\ccjZAqnI.s:4293   .text.IOT_OTA_Ioctl:0000000000000286 .L0 
C:\Users\stapi\AppData\Local\Temp\ccjZAqnI.s:4294   .text.IOT_OTA_Ioctl:0000000000000286 .L0 
C:\Users\stapi\AppData\Local\Temp\ccjZAqnI.s:4296   .text.IOT_OTA_Ioctl:000000000000028a .L0 
C:\Users\stapi\AppData\Local\Temp\ccjZAqnI.s:4300   .text.IOT_OTA_Ioctl:000000000000028c .L0 
C:\Users\stapi\AppData\Local\Temp\ccjZAqnI.s:4305   .text.IOT_OTA_Ioctl:0000000000000294 .L0 
C:\Users\stapi\AppData\Local\Temp\ccjZAqnI.s:4306   .text.IOT_OTA_Ioctl:0000000000000294 .L0 
C:\Users\stapi\AppData\Local\Temp\ccjZAqnI.s:4309   .text.IOT_OTA_Ioctl:000000000000029a .L0 
C:\Users\stapi\AppData\Local\Temp\ccjZAqnI.s:4311   .text.IOT_OTA_Ioctl:000000000000029e .L0 
C:\Users\stapi\AppData\Local\Temp\ccjZAqnI.s:4313   .text.IOT_OTA_Ioctl:00000000000002a2 .L0 
C:\Users\stapi\AppData\Local\Temp\ccjZAqnI.s:4314   .text.IOT_OTA_Ioctl:00000000000002a2 .L0 
C:\Users\stapi\AppData\Local\Temp\ccjZAqnI.s:4317   .text.IOT_OTA_Ioctl:00000000000002a8 .L0 
C:\Users\stapi\AppData\Local\Temp\ccjZAqnI.s:4318   .text.IOT_OTA_Ioctl:00000000000002a8 .L0 
C:\Users\stapi\AppData\Local\Temp\ccjZAqnI.s:4321   .text.IOT_OTA_Ioctl:00000000000002ac .L0 
C:\Users\stapi\AppData\Local\Temp\ccjZAqnI.s:4322   .text.IOT_OTA_Ioctl:00000000000002ac .L0 
C:\Users\stapi\AppData\Local\Temp\ccjZAqnI.s:4327   .text.IOT_OTA_Ioctl:00000000000002bc .L0 
C:\Users\stapi\AppData\Local\Temp\ccjZAqnI.s:4331   .text.IOT_OTA_Ioctl:00000000000002c4 .L0 
C:\Users\stapi\AppData\Local\Temp\ccjZAqnI.s:4334   .text.IOT_OTA_Ioctl:00000000000002cc .L0 
C:\Users\stapi\AppData\Local\Temp\ccjZAqnI.s:4339   .text.IOT_OTA_Ioctl:00000000000002dc .L0 
C:\Users\stapi\AppData\Local\Temp\ccjZAqnI.s:4341   .text.IOT_OTA_Ioctl:00000000000002dc .L0 
C:\Users\stapi\AppData\Local\Temp\ccjZAqnI.s:4342   .text.IOT_OTA_Ioctl:00000000000002dc .L0 
C:\Users\stapi\AppData\Local\Temp\ccjZAqnI.s:4343   .text.IOT_OTA_Ioctl:00000000000002dc .L0 
C:\Users\stapi\AppData\Local\Temp\ccjZAqnI.s:4349   .text.IOT_OTA_Ioctl:00000000000002e0 .L0 
C:\Users\stapi\AppData\Local\Temp\ccjZAqnI.s:4350   .text.IOT_OTA_Ioctl:00000000000002e0 .L0 
C:\Users\stapi\AppData\Local\Temp\ccjZAqnI.s:4351   .text.IOT_OTA_Ioctl:00000000000002e0 .L0 
C:\Users\stapi\AppData\Local\Temp\ccjZAqnI.s:4354   .text.IOT_OTA_Ioctl:00000000000002e4 .L0 
C:\Users\stapi\AppData\Local\Temp\ccjZAqnI.s:4357   .text.IOT_OTA_Ioctl:00000000000002e8 .L0 
C:\Users\stapi\AppData\Local\Temp\ccjZAqnI.s:4360   .text.IOT_OTA_Ioctl:00000000000002f0 .L0 
C:\Users\stapi\AppData\Local\Temp\ccjZAqnI.s:4373   .text.IOT_OTA_Ioctl:000000000000031c .L0 
C:\Users\stapi\AppData\Local\Temp\ccjZAqnI.s:4374   .text.IOT_OTA_Ioctl:000000000000031c .L0 
C:\Users\stapi\AppData\Local\Temp\ccjZAqnI.s:4379   .text.IOT_OTA_Ioctl:0000000000000328 .L0 
C:\Users\stapi\AppData\Local\Temp\ccjZAqnI.s:4382   .text.IOT_OTA_Ioctl:000000000000032e .L0 
C:\Users\stapi\AppData\Local\Temp\ccjZAqnI.s:4387   .text.IOT_OTA_Ioctl:0000000000000330 .L0 
C:\Users\stapi\AppData\Local\Temp\ccjZAqnI.s:4388   .text.IOT_OTA_Ioctl:0000000000000330 .L0 
C:\Users\stapi\AppData\Local\Temp\ccjZAqnI.s:4391   .text.IOT_OTA_Ioctl:0000000000000336 .L0 
C:\Users\stapi\AppData\Local\Temp\ccjZAqnI.s:4393   .text.IOT_OTA_Ioctl:000000000000033a .L0 
C:\Users\stapi\AppData\Local\Temp\ccjZAqnI.s:4395   .text.IOT_OTA_Ioctl:000000000000033e .L0 
C:\Users\stapi\AppData\Local\Temp\ccjZAqnI.s:4396   .text.IOT_OTA_Ioctl:000000000000033e .L0 
C:\Users\stapi\AppData\Local\Temp\ccjZAqnI.s:4399   .text.IOT_OTA_Ioctl:0000000000000344 .L0 
C:\Users\stapi\AppData\Local\Temp\ccjZAqnI.s:4400   .text.IOT_OTA_Ioctl:0000000000000344 .L0 
C:\Users\stapi\AppData\Local\Temp\ccjZAqnI.s:4403   .text.IOT_OTA_Ioctl:0000000000000348 .L0 
C:\Users\stapi\AppData\Local\Temp\ccjZAqnI.s:4404   .text.IOT_OTA_Ioctl:0000000000000348 .L0 
C:\Users\stapi\AppData\Local\Temp\ccjZAqnI.s:4409   .text.IOT_OTA_Ioctl:0000000000000358 .L0 
C:\Users\stapi\AppData\Local\Temp\ccjZAqnI.s:4415   .text.IOT_OTA_Ioctl:0000000000000362 .L0 
C:\Users\stapi\AppData\Local\Temp\ccjZAqnI.s:4416   .text.IOT_OTA_Ioctl:0000000000000362 .L0 
C:\Users\stapi\AppData\Local\Temp\ccjZAqnI.s:4418   .text.IOT_OTA_Ioctl:0000000000000366 .L0 
C:\Users\stapi\AppData\Local\Temp\ccjZAqnI.s:4428   .text.IOT_OTA_Ioctl:0000000000000384 .L0 
C:\Users\stapi\AppData\Local\Temp\ccjZAqnI.s:4431   .text.IOT_OTA_Ioctl:0000000000000386 .L0 
C:\Users\stapi\AppData\Local\Temp\ccjZAqnI.s:4432   .text.IOT_OTA_Ioctl:0000000000000386 .L0 
C:\Users\stapi\AppData\Local\Temp\ccjZAqnI.s:4437   .text.IOT_OTA_Ioctl:0000000000000392 .L0 
C:\Users\stapi\AppData\Local\Temp\ccjZAqnI.s:4450   .text.IOT_OTA_Ioctl:00000000000003be .L0 
C:\Users\stapi\AppData\Local\Temp\ccjZAqnI.s:4451   .text.IOT_OTA_Ioctl:00000000000003be .L0 
C:\Users\stapi\AppData\Local\Temp\ccjZAqnI.s:4456   .text.IOT_OTA_Ioctl:00000000000003ca .L0 
C:\Users\stapi\AppData\Local\Temp\ccjZAqnI.s:4461   .text.IOT_OTA_Ioctl:00000000000003d0 .L0 
C:\Users\stapi\AppData\Local\Temp\ccjZAqnI.s:4462   .text.IOT_OTA_Ioctl:00000000000003d0 .L0 
C:\Users\stapi\AppData\Local\Temp\ccjZAqnI.s:4464   .text.IOT_OTA_Ioctl:00000000000003d4 .L0 
C:\Users\stapi\AppData\Local\Temp\ccjZAqnI.s:4475   .text.IOT_OTA_Ioctl:00000000000003f4 .L0 
C:\Users\stapi\AppData\Local\Temp\ccjZAqnI.s:4478   .text.IOT_OTA_Ioctl:00000000000003f8 .L0 
C:\Users\stapi\AppData\Local\Temp\ccjZAqnI.s:4479   .text.IOT_OTA_Ioctl:00000000000003f8 .L0 
C:\Users\stapi\AppData\Local\Temp\ccjZAqnI.s:4484   .text.IOT_OTA_Ioctl:0000000000000404 .L0 
C:\Users\stapi\AppData\Local\Temp\ccjZAqnI.s:4497   .text.IOT_OTA_Ioctl:0000000000000430 .L0 
C:\Users\stapi\AppData\Local\Temp\ccjZAqnI.s:4498   .text.IOT_OTA_Ioctl:0000000000000430 .L0 
C:\Users\stapi\AppData\Local\Temp\ccjZAqnI.s:4503   .text.IOT_OTA_Ioctl:000000000000043c .L0 
C:\Users\stapi\AppData\Local\Temp\ccjZAqnI.s:4510   .text.IOT_OTA_Ioctl:0000000000000444 .L0 
C:\Users\stapi\AppData\Local\Temp\ccjZAqnI.s:4511   .text.IOT_OTA_Ioctl:0000000000000444 .L0 
C:\Users\stapi\AppData\Local\Temp\ccjZAqnI.s:4513   .text.IOT_OTA_Ioctl:0000000000000448 .L0 
C:\Users\stapi\AppData\Local\Temp\ccjZAqnI.s:4517   .text.IOT_OTA_Ioctl:000000000000044a .L0 
C:\Users\stapi\AppData\Local\Temp\ccjZAqnI.s:4518   .text.IOT_OTA_Ioctl:000000000000044a .L0 
C:\Users\stapi\AppData\Local\Temp\ccjZAqnI.s:4523   .text.IOT_OTA_Ioctl:000000000000045a .L0 
C:\Users\stapi\AppData\Local\Temp\ccjZAqnI.s:4526   .text.IOT_OTA_Ioctl:0000000000000464 .L0 
C:\Users\stapi\AppData\Local\Temp\ccjZAqnI.s:4533   .text.IOT_OTA_GetLastError:0000000000000000 IOT_OTA_GetLastError
C:\Users\stapi\AppData\Local\Temp\ccjZAqnI.s:4536   .text.IOT_OTA_GetLastError:0000000000000000 .L0 
C:\Users\stapi\AppData\Local\Temp\ccjZAqnI.s:4538   .text.IOT_OTA_GetLastError:0000000000000000 .L0 
C:\Users\stapi\AppData\Local\Temp\ccjZAqnI.s:4539   .text.IOT_OTA_GetLastError:0000000000000000 .L0 
C:\Users\stapi\AppData\Local\Temp\ccjZAqnI.s:4540   .text.IOT_OTA_GetLastError:0000000000000000 .L0 
C:\Users\stapi\AppData\Local\Temp\ccjZAqnI.s:4541   .text.IOT_OTA_GetLastError:0000000000000000 .L0 
C:\Users\stapi\AppData\Local\Temp\ccjZAqnI.s:4543   .text.IOT_OTA_GetLastError:0000000000000002 .L0 
C:\Users\stapi\AppData\Local\Temp\ccjZAqnI.s:4544   .text.IOT_OTA_GetLastError:000000000000000a .L0 
C:\Users\stapi\AppData\Local\Temp\ccjZAqnI.s:4545   .text.IOT_OTA_GetLastError:000000000000000a .L0 
C:\Users\stapi\AppData\Local\Temp\ccjZAqnI.s:4547   .text.IOT_OTA_GetLastError:000000000000000a .L0 
C:\Users\stapi\AppData\Local\Temp\ccjZAqnI.s:4548   .text.IOT_OTA_GetLastError:000000000000000a .L0 
C:\Users\stapi\AppData\Local\Temp\ccjZAqnI.s:4554   .text.IOT_OTA_GetLastError:000000000000001a .L0 
C:\Users\stapi\AppData\Local\Temp\ccjZAqnI.s:4559   .text.IOT_OTA_GetLastError:000000000000002a .L0 
C:\Users\stapi\AppData\Local\Temp\ccjZAqnI.s:4564   .text.IOT_OTA_GetLastError:000000000000003a .L0 
C:\Users\stapi\AppData\Local\Temp\ccjZAqnI.s:4565   .text.IOT_OTA_GetLastError:000000000000003a .L0 
C:\Users\stapi\AppData\Local\Temp\ccjZAqnI.s:4566   .text.IOT_OTA_GetLastError:000000000000003a .L0 
C:\Users\stapi\AppData\Local\Temp\ccjZAqnI.s:4568   .text.IOT_OTA_GetLastError:000000000000003c .L0 
C:\Users\stapi\AppData\Local\Temp\ccjZAqnI.s:4569   .text.IOT_OTA_GetLastError:0000000000000044 .L0 
C:\Users\stapi\AppData\Local\Temp\ccjZAqnI.s:4570   .text.IOT_OTA_GetLastError:0000000000000044 .L0 
C:\Users\stapi\AppData\Local\Temp\ccjZAqnI.s:4574   .text.IOT_OTA_GetLastError:0000000000000044 .L0 
C:\Users\stapi\AppData\Local\Temp\ccjZAqnI.s:4575   .text.IOT_OTA_GetLastError:0000000000000044 .L0 
C:\Users\stapi\AppData\Local\Temp\ccjZAqnI.s:4578   .text.IOT_OTA_GetLastError:0000000000000046 .L0 
C:\Users\stapi\AppData\Local\Temp\ccjZAqnI.s:4579   .text.IOT_OTA_GetLastError:0000000000000048 .L0 
C:\Users\stapi\AppData\Local\Temp\ccjZAqnI.s:4584   .rodata.__FUNCTION__.0:0000000000000000 .LANCHOR4
C:\Users\stapi\AppData\Local\Temp\ccjZAqnI.s:4587   .rodata.__FUNCTION__.0:0000000000000000 __FUNCTION__.0
C:\Users\stapi\AppData\Local\Temp\ccjZAqnI.s:4591   .rodata.__FUNCTION__.3:0000000000000000 .LANCHOR0
C:\Users\stapi\AppData\Local\Temp\ccjZAqnI.s:4594   .rodata.__FUNCTION__.3:0000000000000000 __FUNCTION__.3
C:\Users\stapi\AppData\Local\Temp\ccjZAqnI.s:4598   .rodata.__func__.1:0000000000000000 .LANCHOR2
C:\Users\stapi\AppData\Local\Temp\ccjZAqnI.s:4601   .rodata.__func__.1:0000000000000000 __func__.1
C:\Users\stapi\AppData\Local\Temp\ccjZAqnI.s:4605   .rodata.__func__.2:0000000000000000 .LANCHOR1
C:\Users\stapi\AppData\Local\Temp\ccjZAqnI.s:4608   .rodata.__func__.2:0000000000000000 __func__.2
C:\Users\stapi\AppData\Local\Temp\ccjZAqnI.s:4612   .sbss.g_ota_is_initialized:0000000000000000 .LANCHOR3
C:\Users\stapi\AppData\Local\Temp\ccjZAqnI.s:4615   .sbss.g_ota_is_initialized:0000000000000000 g_ota_is_initialized
C:\Users\stapi\AppData\Local\Temp\ccjZAqnI.s:426    .text.otamqtt_UpgrageCb:00000000000002c4 .L0 
C:\Users\stapi\AppData\Local\Temp\ccjZAqnI.s:866    .text.ota_callback:0000000000000292 .L0 
C:\Users\stapi\AppData\Local\Temp\ccjZAqnI.s:971    .text.otamqtt_GenTopicName.constprop.0:000000000000009a .L0 
C:\Users\stapi\AppData\Local\Temp\ccjZAqnI.s:1106   .text.otamqtt_Publish:00000000000000c6 .L0 
C:\Users\stapi\AppData\Local\Temp\ccjZAqnI.s:1158   .text.otamqtt_publish_full_topic.isra.0:0000000000000052 .L0 
C:\Users\stapi\AppData\Local\Temp\ccjZAqnI.s:1483   .text.osc_Init:00000000000001f6 .L0 
C:\Users\stapi\AppData\Local\Temp\ccjZAqnI.s:1518   .text.osc_Deinit:0000000000000020 .L0 
C:\Users\stapi\AppData\Local\Temp\ccjZAqnI.s:1544   .text.osc_ReportProgress:0000000000000014 .L0 
C:\Users\stapi\AppData\Local\Temp\ccjZAqnI.s:1570   .text.osc_ReportVersion:0000000000000014 .L0 
C:\Users\stapi\AppData\Local\Temp\ccjZAqnI.s:1592   .text.osc_RequestImage:0000000000000014 .L0 
C:\Users\stapi\AppData\Local\Temp\ccjZAqnI.s:1610   .text.osc_RequestConfig:000000000000000a .L0 
C:\Users\stapi\AppData\Local\Temp\ccjZAqnI.s:1647   .text.iotx_ota_set_fetch_callback:0000000000000012 .L0 
C:\Users\stapi\AppData\Local\Temp\ccjZAqnI.s:1684   .text.iotx_ota_set_cota_fetch_callback:0000000000000016 .L0 
C:\Users\stapi\AppData\Local\Temp\ccjZAqnI.s:1701   .text.iotx_ota_download:000000000000000a .L0 
C:\Users\stapi\AppData\Local\Temp\ccjZAqnI.s:1980   .text.IOT_OTA_Init:00000000000001a6 .L0 
C:\Users\stapi\AppData\Local\Temp\ccjZAqnI.s:2183   .text.IOT_OTA_Deinit:000000000000011c .L0 
C:\Users\stapi\AppData\Local\Temp\ccjZAqnI.s:2442   .text.IOT_OTA_ReportVersion:0000000000000194 .L0 
C:\Users\stapi\AppData\Local\Temp\ccjZAqnI.s:2715   .text.iotx_req_image:00000000000001b4 .L0 
C:\Users\stapi\AppData\Local\Temp\ccjZAqnI.s:2973   .text.IOT_OTA_ReportProgress:0000000000000194 .L0 
C:\Users\stapi\AppData\Local\Temp\ccjZAqnI.s:3284   .text.iotx_ota_get_config:00000000000001e2 .L0 
C:\Users\stapi\AppData\Local\Temp\ccjZAqnI.s:3373   .text.IOT_OTA_IsFetching:000000000000008a .L0 
C:\Users\stapi\AppData\Local\Temp\ccjZAqnI.s:3462   .text.IOT_OTA_IsFetchFinish:000000000000008a .L0 
C:\Users\stapi\AppData\Local\Temp\ccjZAqnI.s:3798   .text.IOT_OTA_FetchYield:00000000000001f0 .L0 
C:\Users\stapi\AppData\Local\Temp\ccjZAqnI.s:4529   .text.IOT_OTA_Ioctl:0000000000000464 .L0 
C:\Users\stapi\AppData\Local\Temp\ccjZAqnI.s:4582   .text.IOT_OTA_GetLastError:0000000000000048 .L0 
                     .debug_frame:0000000000000000 .L0 
C:\Users\stapi\AppData\Local\Temp\ccjZAqnI.s:14     .rodata.otamqtt_UpgrageCb.str1.4:000000000000000c .LC1
C:\Users\stapi\AppData\Local\Temp\ccjZAqnI.s:11     .rodata.otamqtt_UpgrageCb.str1.4:0000000000000000 .LC0
C:\Users\stapi\AppData\Local\Temp\ccjZAqnI.s:17     .rodata.otamqtt_UpgrageCb.str1.4:0000000000000010 .LC2
C:\Users\stapi\AppData\Local\Temp\ccjZAqnI.s:20     .rodata.otamqtt_UpgrageCb.str1.4:0000000000000028 .LC3
C:\Users\stapi\AppData\Local\Temp\ccjZAqnI.s:23     .rodata.otamqtt_UpgrageCb.str1.4:000000000000005c .LC4
C:\Users\stapi\AppData\Local\Temp\ccjZAqnI.s:26     .rodata.otamqtt_UpgrageCb.str1.4:00000000000000f8 .LC5
C:\Users\stapi\AppData\Local\Temp\ccjZAqnI.s:29     .rodata.otamqtt_UpgrageCb.str1.4:000000000000012c .LC6
C:\Users\stapi\AppData\Local\Temp\ccjZAqnI.s:32     .rodata.otamqtt_UpgrageCb.str1.4:0000000000000140 .LC7
C:\Users\stapi\AppData\Local\Temp\ccjZAqnI.s:35     .rodata.otamqtt_UpgrageCb.str1.4:0000000000000158 .LC8
C:\Users\stapi\AppData\Local\Temp\ccjZAqnI.s:38     .rodata.otamqtt_UpgrageCb.str1.4:000000000000015c .LC9
C:\Users\stapi\AppData\Local\Temp\ccjZAqnI.s:41     .rodata.otamqtt_UpgrageCb.str1.4:0000000000000164 .LC10
C:\Users\stapi\AppData\Local\Temp\ccjZAqnI.s:44     .rodata.otamqtt_UpgrageCb.str1.4:000000000000018c .LC11
C:\Users\stapi\AppData\Local\Temp\ccjZAqnI.s:47     .rodata.otamqtt_UpgrageCb.str1.4:0000000000000190 .LC12
C:\Users\stapi\AppData\Local\Temp\ccjZAqnI.s:50     .rodata.otamqtt_UpgrageCb.str1.4:00000000000001a4 .LC13
C:\Users\stapi\AppData\Local\Temp\ccjZAqnI.s:53     .rodata.otamqtt_UpgrageCb.str1.4:00000000000001bc .LC14
C:\Users\stapi\AppData\Local\Temp\ccjZAqnI.s:56     .rodata.otamqtt_UpgrageCb.str1.4:00000000000001d4 .LC15
C:\Users\stapi\AppData\Local\Temp\ccjZAqnI.s:59     .rodata.otamqtt_UpgrageCb.str1.4:00000000000001f0 .LC16
C:\Users\stapi\AppData\Local\Temp\ccjZAqnI.s:62     .rodata.otamqtt_UpgrageCb.str1.4:0000000000000204 .LC17
C:\Users\stapi\AppData\Local\Temp\ccjZAqnI.s:65     .rodata.otamqtt_UpgrageCb.str1.4:0000000000000218 .LC18
C:\Users\stapi\AppData\Local\Temp\ccjZAqnI.s:68     .rodata.otamqtt_UpgrageCb.str1.4:000000000000021c .LC19
C:\Users\stapi\AppData\Local\Temp\ccjZAqnI.s:71     .rodata.otamqtt_UpgrageCb.str1.4:0000000000000240 .LC20
C:\Users\stapi\AppData\Local\Temp\ccjZAqnI.s:74     .rodata.otamqtt_UpgrageCb.str1.4:0000000000000260 .LC21
C:\Users\stapi\AppData\Local\Temp\ccjZAqnI.s:77     .rodata.otamqtt_UpgrageCb.str1.4:0000000000000268 .LC22
C:\Users\stapi\AppData\Local\Temp\ccjZAqnI.s:155    .text.otamqtt_UpgrageCb:000000000000009c .L2
C:\Users\stapi\AppData\Local\Temp\ccjZAqnI.s:225    .text.otamqtt_UpgrageCb:0000000000000128 .L3
C:\Users\stapi\AppData\Local\Temp\ccjZAqnI.s:211    .text.otamqtt_UpgrageCb:000000000000011e .L1
C:\Users\stapi\AppData\Local\Temp\ccjZAqnI.s:252    .text.otamqtt_UpgrageCb:0000000000000162 .L29
C:\Users\stapi\AppData\Local\Temp\ccjZAqnI.s:259    .text.otamqtt_UpgrageCb:000000000000016e .L7
C:\Users\stapi\AppData\Local\Temp\ccjZAqnI.s:286    .text.otamqtt_UpgrageCb:00000000000001aa .L8
C:\Users\stapi\AppData\Local\Temp\ccjZAqnI.s:428    .rodata.ota_callback.str1.4:0000000000000000 .LC23
C:\Users\stapi\AppData\Local\Temp\ccjZAqnI.s:431    .rodata.ota_callback.str1.4:0000000000000018 .LC24
C:\Users\stapi\AppData\Local\Temp\ccjZAqnI.s:434    .rodata.ota_callback.str1.4:0000000000000020 .LC25
C:\Users\stapi\AppData\Local\Temp\ccjZAqnI.s:437    .rodata.ota_callback.str1.4:000000000000003c .LC26
C:\Users\stapi\AppData\Local\Temp\ccjZAqnI.s:440    .rodata.ota_callback.str1.4:000000000000005c .LC27
C:\Users\stapi\AppData\Local\Temp\ccjZAqnI.s:443    .rodata.ota_callback.str1.4:0000000000000064 .LC28
C:\Users\stapi\AppData\Local\Temp\ccjZAqnI.s:446    .rodata.ota_callback.str1.4:000000000000006c .LC29
C:\Users\stapi\AppData\Local\Temp\ccjZAqnI.s:449    .rodata.ota_callback.str1.4:0000000000000090 .LC30
C:\Users\stapi\AppData\Local\Temp\ccjZAqnI.s:452    .rodata.ota_callback.str1.4:00000000000000ac .LC31
C:\Users\stapi\AppData\Local\Temp\ccjZAqnI.s:455    .rodata.ota_callback.str1.4:00000000000000cc .LC32
C:\Users\stapi\AppData\Local\Temp\ccjZAqnI.s:458    .rodata.ota_callback.str1.4:00000000000000d4 .LC33
C:\Users\stapi\AppData\Local\Temp\ccjZAqnI.s:461    .rodata.ota_callback.str1.4:00000000000000d8 .LC34
C:\Users\stapi\AppData\Local\Temp\ccjZAqnI.s:464    .rodata.ota_callback.str1.4:00000000000000f8 .LC35
C:\Users\stapi\AppData\Local\Temp\ccjZAqnI.s:516    .text.ota_callback:0000000000000044 .L31
C:\Users\stapi\AppData\Local\Temp\ccjZAqnI.s:553    .text.ota_callback:0000000000000072 .L92
C:\Users\stapi\AppData\Local\Temp\ccjZAqnI.s:714    .text.ota_callback:000000000000018c .L33
C:\Users\stapi\AppData\Local\Temp\ccjZAqnI.s:547    .text.ota_callback:000000000000006c .L34
C:\Users\stapi\AppData\Local\Temp\ccjZAqnI.s:560    .text.ota_callback:0000000000000076 .L88
C:\Users\stapi\AppData\Local\Temp\ccjZAqnI.s:780    .text.ota_callback:000000000000021a .L36
C:\Users\stapi\AppData\Local\Temp\ccjZAqnI.s:533    .text.ota_callback:0000000000000060 .L30
C:\Users\stapi\AppData\Local\Temp\ccjZAqnI.s:589    .text.ota_callback:00000000000000a8 .L37
C:\Users\stapi\AppData\Local\Temp\ccjZAqnI.s:505    .text.ota_callback:000000000000002a .L93
C:\Users\stapi\AppData\Local\Temp\ccjZAqnI.s:608    .text.ota_callback:00000000000000ca .L38
C:\Users\stapi\AppData\Local\Temp\ccjZAqnI.s:596    .text.ota_callback:00000000000000b0 .L39
C:\Users\stapi\AppData\Local\Temp\ccjZAqnI.s:642    .text.ota_callback:0000000000000110 .L40
C:\Users\stapi\AppData\Local\Temp\ccjZAqnI.s:665    .text.ota_callback:0000000000000148 .L41
C:\Users\stapi\AppData\Local\Temp\ccjZAqnI.s:686    .text.ota_callback:0000000000000170 .L42
C:\Users\stapi\AppData\Local\Temp\ccjZAqnI.s:703    .text.ota_callback:000000000000017e .L43
C:\Users\stapi\AppData\Local\Temp\ccjZAqnI.s:576    .text.ota_callback:000000000000008e .L44
C:\Users\stapi\AppData\Local\Temp\ccjZAqnI.s:629    .text.ota_callback:00000000000000f6 .L45
C:\Users\stapi\AppData\Local\Temp\ccjZAqnI.s:789    .text.ota_callback:0000000000000226 .L101
C:\Users\stapi\AppData\Local\Temp\ccjZAqnI.s:746    .text.ota_callback:00000000000001cc .L104
C:\Users\stapi\AppData\Local\Temp\ccjZAqnI.s:806    .text.ota_callback:000000000000023a .L52
C:\Users\stapi\AppData\Local\Temp\ccjZAqnI.s:821    .text.ota_callback:0000000000000250 .L53
C:\Users\stapi\AppData\Local\Temp\ccjZAqnI.s:675    .text.ota_callback:0000000000000156 .L49
C:\Users\stapi\AppData\Local\Temp\ccjZAqnI.s:699    .text.ota_callback:000000000000017a .L50
C:\Users\stapi\AppData\Local\Temp\ccjZAqnI.s:868    .rodata.otamqtt_GenTopicName.constprop.0.str1.4:0000000000000000 .LC36
C:\Users\stapi\AppData\Local\Temp\ccjZAqnI.s:871    .rodata.otamqtt_GenTopicName.constprop.0.str1.4:0000000000000018 .LC37
C:\Users\stapi\AppData\Local\Temp\ccjZAqnI.s:874    .rodata.otamqtt_GenTopicName.constprop.0.str1.4:0000000000000028 .LC38
C:\Users\stapi\AppData\Local\Temp\ccjZAqnI.s:922    .text.otamqtt_GenTopicName.constprop.0:0000000000000034 .L106
C:\Users\stapi\AppData\Local\Temp\ccjZAqnI.s:911    .text.otamqtt_GenTopicName.constprop.0:000000000000002a .L108
C:\Users\stapi\AppData\Local\Temp\ccjZAqnI.s:914    .text.otamqtt_GenTopicName.constprop.0:000000000000002c .L105
C:\Users\stapi\AppData\Local\Temp\ccjZAqnI.s:973    .rodata.otamqtt_Publish.str1.4:0000000000000000 .LC39
C:\Users\stapi\AppData\Local\Temp\ccjZAqnI.s:1010   .text.otamqtt_Publish:000000000000001e .L111
C:\Users\stapi\AppData\Local\Temp\ccjZAqnI.s:1066   .text.otamqtt_Publish:000000000000007e .L112
C:\Users\stapi\AppData\Local\Temp\ccjZAqnI.s:1054   .text.otamqtt_Publish:0000000000000072 .L110
C:\Users\stapi\AppData\Local\Temp\ccjZAqnI.s:1150   .text.otamqtt_publish_full_topic.isra.0:000000000000004e .L121
C:\Users\stapi\AppData\Local\Temp\ccjZAqnI.s:1144   .text.otamqtt_publish_full_topic.isra.0:0000000000000046 .L119
C:\Users\stapi\AppData\Local\Temp\ccjZAqnI.s:1160   .rodata.osc_Init.str1.4:0000000000000000 .LC40
C:\Users\stapi\AppData\Local\Temp\ccjZAqnI.s:1163   .rodata.osc_Init.str1.4:000000000000001c .LC41
C:\Users\stapi\AppData\Local\Temp\ccjZAqnI.s:1166   .rodata.osc_Init.str1.4:0000000000000024 .LC42
C:\Users\stapi\AppData\Local\Temp\ccjZAqnI.s:1169   .rodata.osc_Init.str1.4:000000000000004c .LC43
C:\Users\stapi\AppData\Local\Temp\ccjZAqnI.s:1172   .rodata.osc_Init.str1.4:0000000000000064 .LC44
C:\Users\stapi\AppData\Local\Temp\ccjZAqnI.s:1175   .rodata.osc_Init.str1.4:000000000000006c .LC45
C:\Users\stapi\AppData\Local\Temp\ccjZAqnI.s:1178   .rodata.osc_Init.str1.4:0000000000000094 .LC46
C:\Users\stapi\AppData\Local\Temp\ccjZAqnI.s:1181   .rodata.osc_Init.str1.4:00000000000000b8 .LC47
C:\Users\stapi\AppData\Local\Temp\ccjZAqnI.s:1184   .rodata.osc_Init.str1.4:00000000000000e4 .LC48
C:\Users\stapi\AppData\Local\Temp\ccjZAqnI.s:1265   .text.osc_Init:0000000000000060 .L124
C:\Users\stapi\AppData\Local\Temp\ccjZAqnI.s:1319   .text.osc_Init:00000000000000ca .L126
C:\Users\stapi\AppData\Local\Temp\ccjZAqnI.s:1249   .text.osc_Init:0000000000000056 .L123
C:\Users\stapi\AppData\Local\Temp\ccjZAqnI.s:1347   .text.osc_Init:0000000000000100 .L128
C:\Users\stapi\AppData\Local\Temp\ccjZAqnI.s:1296   .text.osc_Init:00000000000000a4 .L134
C:\Users\stapi\AppData\Local\Temp\ccjZAqnI.s:1375   .text.osc_Init:0000000000000138 .L129
C:\Users\stapi\AppData\Local\Temp\ccjZAqnI.s:1334   .text.osc_Init:00000000000000e6 .L130
C:\Users\stapi\AppData\Local\Temp\ccjZAqnI.s:1418   .text.osc_Init:000000000000018c .L131
C:\Users\stapi\AppData\Local\Temp\ccjZAqnI.s:1405   .text.osc_Init:0000000000000172 .L132
C:\Users\stapi\AppData\Local\Temp\ccjZAqnI.s:1509   .text.osc_Deinit:000000000000001c .L141
C:\Users\stapi\AppData\Local\Temp\ccjZAqnI.s:1520   .rodata.osc_ReportProgress.str1.4:0000000000000000 .LC49
C:\Users\stapi\AppData\Local\Temp\ccjZAqnI.s:1546   .rodata.osc_ReportVersion.str1.4:0000000000000000 .LC50
C:\Users\stapi\AppData\Local\Temp\ccjZAqnI.s:1641   .text.iotx_ota_set_fetch_callback:0000000000000010 .L152
C:\Users\stapi\AppData\Local\Temp\ccjZAqnI.s:1678   .text.iotx_ota_set_cota_fetch_callback:0000000000000014 .L156
C:\Users\stapi\AppData\Local\Temp\ccjZAqnI.s:1703   .rodata.IOT_OTA_Init.str1.4:0000000000000000 .LC51
C:\Users\stapi\AppData\Local\Temp\ccjZAqnI.s:1706   .rodata.IOT_OTA_Init.str1.4:0000000000000020 .LC52
C:\Users\stapi\AppData\Local\Temp\ccjZAqnI.s:1709   .rodata.IOT_OTA_Init.str1.4:0000000000000044 .LC53
C:\Users\stapi\AppData\Local\Temp\ccjZAqnI.s:1712   .rodata.IOT_OTA_Init.str1.4:0000000000000054 .LC54
C:\Users\stapi\AppData\Local\Temp\ccjZAqnI.s:1715   .rodata.IOT_OTA_Init.str1.4:0000000000000078 .LC55
C:\Users\stapi\AppData\Local\Temp\ccjZAqnI.s:1718   .rodata.IOT_OTA_Init.str1.4:0000000000000090 .LC56
C:\Users\stapi\AppData\Local\Temp\ccjZAqnI.s:1775   .text.IOT_OTA_Init:000000000000004e .L163
C:\Users\stapi\AppData\Local\Temp\ccjZAqnI.s:1829   .text.IOT_OTA_Init:00000000000000b6 .L162
C:\Users\stapi\AppData\Local\Temp\ccjZAqnI.s:1783   .text.IOT_OTA_Init:0000000000000056 .L165
C:\Users\stapi\AppData\Local\Temp\ccjZAqnI.s:1796   .text.IOT_OTA_Init:0000000000000070 .L166
C:\Users\stapi\AppData\Local\Temp\ccjZAqnI.s:1758   .text.IOT_OTA_Init:0000000000000032 .L190
C:\Users\stapi\AppData\Local\Temp\ccjZAqnI.s:1843   .text.IOT_OTA_Init:00000000000000c0 .L167
C:\Users\stapi\AppData\Local\Temp\ccjZAqnI.s:1921   .text.IOT_OTA_Init:000000000000014a .L168
C:\Users\stapi\AppData\Local\Temp\ccjZAqnI.s:1896   .text.IOT_OTA_Init:0000000000000126 .L172
C:\Users\stapi\AppData\Local\Temp\ccjZAqnI.s:1905   .text.IOT_OTA_Init:0000000000000132 .L173
C:\Users\stapi\AppData\Local\Temp\ccjZAqnI.s:1914   .text.IOT_OTA_Init:000000000000013e .L174
C:\Users\stapi\AppData\Local\Temp\ccjZAqnI.s:1769   .text.IOT_OTA_Init:000000000000004a .L189
C:\Users\stapi\AppData\Local\Temp\ccjZAqnI.s:1941   .text.IOT_OTA_Init:0000000000000170 .L170
C:\Users\stapi\AppData\Local\Temp\ccjZAqnI.s:1876   .text.IOT_OTA_Init:0000000000000102 .L188
C:\Users\stapi\AppData\Local\Temp\ccjZAqnI.s:1961   .text.IOT_OTA_Init:0000000000000196 .L171
C:\Users\stapi\AppData\Local\Temp\ccjZAqnI.s:1982   .rodata.IOT_OTA_Deinit.str1.4:0000000000000000 .LC57
C:\Users\stapi\AppData\Local\Temp\ccjZAqnI.s:1985   .rodata.IOT_OTA_Deinit.str1.4:0000000000000010 .LC58
C:\Users\stapi\AppData\Local\Temp\ccjZAqnI.s:2034   .text.IOT_OTA_Deinit:0000000000000044 .L192
C:\Users\stapi\AppData\Local\Temp\ccjZAqnI.s:2068   .text.IOT_OTA_Deinit:0000000000000082 .L194
C:\Users\stapi\AppData\Local\Temp\ccjZAqnI.s:2026   .text.IOT_OTA_Deinit:000000000000003c .L191
C:\Users\stapi\AppData\Local\Temp\ccjZAqnI.s:2081   .text.IOT_OTA_Deinit:0000000000000096 .L195
C:\Users\stapi\AppData\Local\Temp\ccjZAqnI.s:2090   .text.IOT_OTA_Deinit:00000000000000a2 .L196
C:\Users\stapi\AppData\Local\Temp\ccjZAqnI.s:2099   .text.IOT_OTA_Deinit:00000000000000ae .L197
C:\Users\stapi\AppData\Local\Temp\ccjZAqnI.s:2108   .text.IOT_OTA_Deinit:00000000000000ba .L198
C:\Users\stapi\AppData\Local\Temp\ccjZAqnI.s:2117   .text.IOT_OTA_Deinit:00000000000000c6 .L199
C:\Users\stapi\AppData\Local\Temp\ccjZAqnI.s:2126   .text.IOT_OTA_Deinit:00000000000000d2 .L200
C:\Users\stapi\AppData\Local\Temp\ccjZAqnI.s:2135   .text.IOT_OTA_Deinit:00000000000000de .L201
C:\Users\stapi\AppData\Local\Temp\ccjZAqnI.s:2144   .text.IOT_OTA_Deinit:00000000000000ea .L202
C:\Users\stapi\AppData\Local\Temp\ccjZAqnI.s:2153   .text.IOT_OTA_Deinit:00000000000000f6 .L203
C:\Users\stapi\AppData\Local\Temp\ccjZAqnI.s:2162   .text.IOT_OTA_Deinit:0000000000000102 .L204
C:\Users\stapi\AppData\Local\Temp\ccjZAqnI.s:2171   .text.IOT_OTA_Deinit:000000000000010e .L205
C:\Users\stapi\AppData\Local\Temp\ccjZAqnI.s:2185   .rodata.IOT_OTA_ReportVersion.str1.4:0000000000000000 .LC59
C:\Users\stapi\AppData\Local\Temp\ccjZAqnI.s:2188   .rodata.IOT_OTA_ReportVersion.str1.4:0000000000000020 .LC60
C:\Users\stapi\AppData\Local\Temp\ccjZAqnI.s:2191   .rodata.IOT_OTA_ReportVersion.str1.4:0000000000000054 .LC61
C:\Users\stapi\AppData\Local\Temp\ccjZAqnI.s:2194   .rodata.IOT_OTA_ReportVersion.str1.4:0000000000000078 .LC62
C:\Users\stapi\AppData\Local\Temp\ccjZAqnI.s:2197   .rodata.IOT_OTA_ReportVersion.str1.4:0000000000000098 .LC63
C:\Users\stapi\AppData\Local\Temp\ccjZAqnI.s:2224   .text.IOT_OTA_ReportVersion:000000000000000e .L241
C:\Users\stapi\AppData\Local\Temp\ccjZAqnI.s:2257   .text.IOT_OTA_ReportVersion:000000000000004a .L242
C:\Users\stapi\AppData\Local\Temp\ccjZAqnI.s:2303   .text.IOT_OTA_ReportVersion:0000000000000096 .L244
C:\Users\stapi\AppData\Local\Temp\ccjZAqnI.s:2246   .text.IOT_OTA_ReportVersion:0000000000000040 .L240
C:\Users\stapi\AppData\Local\Temp\ccjZAqnI.s:2331   .text.IOT_OTA_ReportVersion:00000000000000ce .L245
C:\Users\stapi\AppData\Local\Temp\ccjZAqnI.s:2294   .text.IOT_OTA_ReportVersion:0000000000000090 .L257
C:\Users\stapi\AppData\Local\Temp\ccjZAqnI.s:2367   .text.IOT_OTA_ReportVersion:0000000000000116 .L246
C:\Users\stapi\AppData\Local\Temp\ccjZAqnI.s:2417   .text.IOT_OTA_ReportVersion:000000000000016a .L247
C:\Users\stapi\AppData\Local\Temp\ccjZAqnI.s:2408   .text.IOT_OTA_ReportVersion:000000000000015e .L248
C:\Users\stapi\AppData\Local\Temp\ccjZAqnI.s:2389   .text.IOT_OTA_ReportVersion:0000000000000142 .L256
C:\Users\stapi\AppData\Local\Temp\ccjZAqnI.s:2444   .rodata.iotx_req_image.str1.4:0000000000000000 .LC64
C:\Users\stapi\AppData\Local\Temp\ccjZAqnI.s:2447   .rodata.iotx_req_image.str1.4:0000000000000010 .LC65
C:\Users\stapi\AppData\Local\Temp\ccjZAqnI.s:2450   .rodata.iotx_req_image.str1.4:0000000000000038 .LC66
C:\Users\stapi\AppData\Local\Temp\ccjZAqnI.s:2477   .text.iotx_req_image:000000000000000e .L259
C:\Users\stapi\AppData\Local\Temp\ccjZAqnI.s:2510   .text.iotx_req_image:000000000000004a .L260
C:\Users\stapi\AppData\Local\Temp\ccjZAqnI.s:2556   .text.iotx_req_image:0000000000000096 .L262
C:\Users\stapi\AppData\Local\Temp\ccjZAqnI.s:2499   .text.iotx_req_image:0000000000000040 .L258
C:\Users\stapi\AppData\Local\Temp\ccjZAqnI.s:2587   .text.iotx_req_image:00000000000000ce .L263
C:\Users\stapi\AppData\Local\Temp\ccjZAqnI.s:2547   .text.iotx_req_image:0000000000000090 .L276
C:\Users\stapi\AppData\Local\Temp\ccjZAqnI.s:2604   .text.iotx_req_image:00000000000000ee .L264
C:\Users\stapi\AppData\Local\Temp\ccjZAqnI.s:2572   .text.iotx_req_image:00000000000000b2 .L277
C:\Users\stapi\AppData\Local\Temp\ccjZAqnI.s:2640   .text.iotx_req_image:0000000000000136 .L265
C:\Users\stapi\AppData\Local\Temp\ccjZAqnI.s:2690   .text.iotx_req_image:000000000000018a .L266
C:\Users\stapi\AppData\Local\Temp\ccjZAqnI.s:2681   .text.iotx_req_image:000000000000017e .L267
C:\Users\stapi\AppData\Local\Temp\ccjZAqnI.s:2662   .text.iotx_req_image:0000000000000162 .L275
C:\Users\stapi\AppData\Local\Temp\ccjZAqnI.s:2717   .rodata.IOT_OTA_ReportProgress.str1.4:0000000000000000 .LC67
C:\Users\stapi\AppData\Local\Temp\ccjZAqnI.s:2720   .rodata.IOT_OTA_ReportProgress.str1.4:0000000000000020 .LC68
C:\Users\stapi\AppData\Local\Temp\ccjZAqnI.s:2723   .rodata.IOT_OTA_ReportProgress.str1.4:0000000000000044 .LC69
C:\Users\stapi\AppData\Local\Temp\ccjZAqnI.s:2726   .rodata.IOT_OTA_ReportProgress.str1.4:0000000000000068 .LC70
C:\Users\stapi\AppData\Local\Temp\ccjZAqnI.s:2788   .text.IOT_OTA_ReportProgress:000000000000004a .L279
C:\Users\stapi\AppData\Local\Temp\ccjZAqnI.s:2825   .text.IOT_OTA_ReportProgress:0000000000000088 .L281
C:\Users\stapi\AppData\Local\Temp\ccjZAqnI.s:2775   .text.IOT_OTA_ReportProgress:000000000000003e .L278
C:\Users\stapi\AppData\Local\Temp\ccjZAqnI.s:2862   .text.IOT_OTA_ReportProgress:00000000000000ca .L282
C:\Users\stapi\AppData\Local\Temp\ccjZAqnI.s:2817   .text.IOT_OTA_ReportProgress:0000000000000082 .L291
C:\Users\stapi\AppData\Local\Temp\ccjZAqnI.s:2904   .text.IOT_OTA_ReportProgress:000000000000011a .L283
C:\Users\stapi\AppData\Local\Temp\ccjZAqnI.s:2948   .text.IOT_OTA_ReportProgress:000000000000016a .L284
C:\Users\stapi\AppData\Local\Temp\ccjZAqnI.s:2939   .text.IOT_OTA_ReportProgress:000000000000015e .L285
C:\Users\stapi\AppData\Local\Temp\ccjZAqnI.s:2925   .text.IOT_OTA_ReportProgress:0000000000000144 .L290
C:\Users\stapi\AppData\Local\Temp\ccjZAqnI.s:2975   .rodata.iotx_ota_get_config.str1.4:0000000000000000 .LC71
C:\Users\stapi\AppData\Local\Temp\ccjZAqnI.s:2978   .rodata.iotx_ota_get_config.str1.4:000000000000001c .LC72
C:\Users\stapi\AppData\Local\Temp\ccjZAqnI.s:3068   .text.iotx_ota_get_config:000000000000006e .L293
C:\Users\stapi\AppData\Local\Temp\ccjZAqnI.s:3106   .text.iotx_ota_get_config:00000000000000aa .L295
C:\Users\stapi\AppData\Local\Temp\ccjZAqnI.s:3053   .text.iotx_ota_get_config:0000000000000062 .L292
C:\Users\stapi\AppData\Local\Temp\ccjZAqnI.s:3121   .text.iotx_ota_get_config:00000000000000ca .L296
C:\Users\stapi\AppData\Local\Temp\ccjZAqnI.s:3084   .text.iotx_ota_get_config:000000000000008a .L303
C:\Users\stapi\AppData\Local\Temp\ccjZAqnI.s:3154   .text.iotx_ota_get_config:0000000000000112 .L297
C:\Users\stapi\AppData\Local\Temp\ccjZAqnI.s:3097   .text.iotx_ota_get_config:00000000000000a4 .L302
C:\Users\stapi\AppData\Local\Temp\ccjZAqnI.s:3268   .text.iotx_ota_get_config:00000000000001d4 .L298
C:\Users\stapi\AppData\Local\Temp\ccjZAqnI.s:3272   .text.iotx_ota_get_config:00000000000001d6 .L299
C:\Users\stapi\AppData\Local\Temp\ccjZAqnI.s:3333   .text.IOT_OTA_IsFetching:0000000000000044 .L305
C:\Users\stapi\AppData\Local\Temp\ccjZAqnI.s:3364   .text.IOT_OTA_IsFetching:0000000000000080 .L307
C:\Users\stapi\AppData\Local\Temp\ccjZAqnI.s:3321   .text.IOT_OTA_IsFetching:000000000000003a .L309
C:\Users\stapi\AppData\Local\Temp\ccjZAqnI.s:3325   .text.IOT_OTA_IsFetching:000000000000003c .L304
C:\Users\stapi\AppData\Local\Temp\ccjZAqnI.s:3422   .text.IOT_OTA_IsFetchFinish:0000000000000044 .L311
C:\Users\stapi\AppData\Local\Temp\ccjZAqnI.s:3453   .text.IOT_OTA_IsFetchFinish:0000000000000080 .L313
C:\Users\stapi\AppData\Local\Temp\ccjZAqnI.s:3410   .text.IOT_OTA_IsFetchFinish:000000000000003a .L315
C:\Users\stapi\AppData\Local\Temp\ccjZAqnI.s:3414   .text.IOT_OTA_IsFetchFinish:000000000000003c .L310
C:\Users\stapi\AppData\Local\Temp\ccjZAqnI.s:3464   .rodata.IOT_OTA_FetchYield.str1.4:0000000000000000 .LC73
C:\Users\stapi\AppData\Local\Temp\ccjZAqnI.s:3467   .rodata.IOT_OTA_FetchYield.str1.4:0000000000000014 .LC74
C:\Users\stapi\AppData\Local\Temp\ccjZAqnI.s:3470   .rodata.IOT_OTA_FetchYield.str1.4:000000000000002c .LC75
C:\Users\stapi\AppData\Local\Temp\ccjZAqnI.s:3473   .rodata.IOT_OTA_FetchYield.str1.4:000000000000003c .LC76
C:\Users\stapi\AppData\Local\Temp\ccjZAqnI.s:3476   .rodata.IOT_OTA_FetchYield.str1.4:0000000000000050 .LC77
C:\Users\stapi\AppData\Local\Temp\ccjZAqnI.s:3504   .text.IOT_OTA_FetchYield:0000000000000010 .L317
C:\Users\stapi\AppData\Local\Temp\ccjZAqnI.s:3537   .text.IOT_OTA_FetchYield:000000000000004c .L318
C:\Users\stapi\AppData\Local\Temp\ccjZAqnI.s:3555   .text.IOT_OTA_FetchYield:000000000000005e .L320
C:\Users\stapi\AppData\Local\Temp\ccjZAqnI.s:3526   .text.IOT_OTA_FetchYield:0000000000000042 .L316
C:\Users\stapi\AppData\Local\Temp\ccjZAqnI.s:3650   .text.IOT_OTA_FetchYield:00000000000000f0 .L321
C:\Users\stapi\AppData\Local\Temp\ccjZAqnI.s:3626   .text.IOT_OTA_FetchYield:00000000000000c8 .L322
C:\Users\stapi\AppData\Local\Temp\ccjZAqnI.s:3613   .text.IOT_OTA_FetchYield:00000000000000c0 .L323
C:\Users\stapi\AppData\Local\Temp\ccjZAqnI.s:3718   .text.IOT_OTA_FetchYield:0000000000000180 .L324
C:\Users\stapi\AppData\Local\Temp\ccjZAqnI.s:3686   .text.IOT_OTA_FetchYield:000000000000013c .L325
C:\Users\stapi\AppData\Local\Temp\ccjZAqnI.s:3618   .text.IOT_OTA_FetchYield:00000000000000c4 .L359
C:\Users\stapi\AppData\Local\Temp\ccjZAqnI.s:3710   .text.IOT_OTA_FetchYield:000000000000016c .L326
C:\Users\stapi\AppData\Local\Temp\ccjZAqnI.s:3677   .text.IOT_OTA_FetchYield:0000000000000122 .L360
C:\Users\stapi\AppData\Local\Temp\ccjZAqnI.s:3771   .text.IOT_OTA_FetchYield:00000000000001c8 .L327
C:\Users\stapi\AppData\Local\Temp\ccjZAqnI.s:3916   .rodata.IOT_OTA_Ioctl:0000000000000000 .L368
C:\Users\stapi\AppData\Local\Temp\ccjZAqnI.s:3800   .rodata.IOT_OTA_Ioctl.str1.4:0000000000000000 .LC78
C:\Users\stapi\AppData\Local\Temp\ccjZAqnI.s:3803   .rodata.IOT_OTA_Ioctl.str1.4:0000000000000014 .LC79
C:\Users\stapi\AppData\Local\Temp\ccjZAqnI.s:3806   .rodata.IOT_OTA_Ioctl.str1.4:000000000000004c .LC80
C:\Users\stapi\AppData\Local\Temp\ccjZAqnI.s:3809   .rodata.IOT_OTA_Ioctl.str1.4:0000000000000060 .LC81
C:\Users\stapi\AppData\Local\Temp\ccjZAqnI.s:3812   .rodata.IOT_OTA_Ioctl.str1.4:0000000000000098 .LC82
C:\Users\stapi\AppData\Local\Temp\ccjZAqnI.s:3815   .rodata.IOT_OTA_Ioctl.str1.4:000000000000009c .LC83
C:\Users\stapi\AppData\Local\Temp\ccjZAqnI.s:3818   .rodata.IOT_OTA_Ioctl.str1.4:00000000000000a4 .LC84
C:\Users\stapi\AppData\Local\Temp\ccjZAqnI.s:3849   .text.IOT_OTA_Ioctl:0000000000000014 .L362
C:\Users\stapi\AppData\Local\Temp\ccjZAqnI.s:3884   .text.IOT_OTA_Ioctl:0000000000000052 .L363
C:\Users\stapi\AppData\Local\Temp\ccjZAqnI.s:3903   .text.IOT_OTA_Ioctl:0000000000000064 .L365
C:\Users\stapi\AppData\Local\Temp\ccjZAqnI.s:3871   .text.IOT_OTA_Ioctl:0000000000000046 .L361
C:\Users\stapi\AppData\Local\Temp\ccjZAqnI.s:4515   .text.IOT_OTA_Ioctl:000000000000044a .L366
C:\Users\stapi\AppData\Local\Temp\ccjZAqnI.s:3945   .text.IOT_OTA_Ioctl:0000000000000082 .L382
C:\Users\stapi\AppData\Local\Temp\ccjZAqnI.s:3967   .text.IOT_OTA_Ioctl:00000000000000b4 .L383
C:\Users\stapi\AppData\Local\Temp\ccjZAqnI.s:3987   .text.IOT_OTA_Ioctl:00000000000000d2 .L422
C:\Users\stapi\AppData\Local\Temp\ccjZAqnI.s:3996   .text.IOT_OTA_Ioctl:00000000000000d8 .L384
C:\Users\stapi\AppData\Local\Temp\ccjZAqnI.s:4340   .text.IOT_OTA_Ioctl:00000000000002dc .L423
C:\Users\stapi\AppData\Local\Temp\ccjZAqnI.s:4027   .text.IOT_OTA_Ioctl:000000000000010e .L389
C:\Users\stapi\AppData\Local\Temp\ccjZAqnI.s:4013   .text.IOT_OTA_Ioctl:00000000000000f4 .L426
C:\Users\stapi\AppData\Local\Temp\ccjZAqnI.s:4046   .text.IOT_OTA_Ioctl:0000000000000120 .L427
C:\Users\stapi\AppData\Local\Temp\ccjZAqnI.s:4283   .text.IOT_OTA_Ioctl:000000000000027a .L425
C:\Users\stapi\AppData\Local\Temp\ccjZAqnI.s:4346   .text.IOT_OTA_Ioctl:00000000000002e0 .L386
C:\Users\stapi\AppData\Local\Temp\ccjZAqnI.s:4413   .text.IOT_OTA_Ioctl:0000000000000362 .L387
C:\Users\stapi\AppData\Local\Temp\ccjZAqnI.s:4329   .text.IOT_OTA_Ioctl:00000000000002c4 .L424
C:\Users\stapi\AppData\Local\Temp\ccjZAqnI.s:4458   .text.IOT_OTA_Ioctl:00000000000003d0 .L388
C:\Users\stapi\AppData\Local\Temp\ccjZAqnI.s:3955   .text.IOT_OTA_Ioctl:000000000000009a .L421
C:\Users\stapi\AppData\Local\Temp\ccjZAqnI.s:3932   .text.IOT_OTA_Ioctl:000000000000007a .L381
C:\Users\stapi\AppData\Local\Temp\ccjZAqnI.s:4033   .text.IOT_OTA_Ioctl:0000000000000112 .L380
C:\Users\stapi\AppData\Local\Temp\ccjZAqnI.s:4051   .text.IOT_OTA_Ioctl:0000000000000124 .L379
C:\Users\stapi\AppData\Local\Temp\ccjZAqnI.s:4097   .text.IOT_OTA_Ioctl:0000000000000168 .L378
C:\Users\stapi\AppData\Local\Temp\ccjZAqnI.s:4143   .text.IOT_OTA_Ioctl:00000000000001ac .L377
C:\Users\stapi\AppData\Local\Temp\ccjZAqnI.s:4189   .text.IOT_OTA_Ioctl:00000000000001f6 .L376
C:\Users\stapi\AppData\Local\Temp\ccjZAqnI.s:4235   .text.IOT_OTA_Ioctl:0000000000000240 .L375
C:\Users\stapi\AppData\Local\Temp\ccjZAqnI.s:4250   .text.IOT_OTA_Ioctl:0000000000000252 .L374
C:\Users\stapi\AppData\Local\Temp\ccjZAqnI.s:4264   .text.IOT_OTA_Ioctl:0000000000000264 .L373
C:\Users\stapi\AppData\Local\Temp\ccjZAqnI.s:4298   .text.IOT_OTA_Ioctl:000000000000028c .L372
C:\Users\stapi\AppData\Local\Temp\ccjZAqnI.s:4277   .text.IOT_OTA_Ioctl:0000000000000276 .L371
C:\Users\stapi\AppData\Local\Temp\ccjZAqnI.s:4303   .text.IOT_OTA_Ioctl:0000000000000294 .L370
C:\Users\stapi\AppData\Local\Temp\ccjZAqnI.s:4384   .text.IOT_OTA_Ioctl:0000000000000330 .L369
C:\Users\stapi\AppData\Local\Temp\ccjZAqnI.s:4507   .text.IOT_OTA_Ioctl:0000000000000444 .L367
C:\Users\stapi\AppData\Local\Temp\ccjZAqnI.s:4572   .text.IOT_OTA_GetLastError:0000000000000044 .L429
C:\Users\stapi\AppData\Local\Temp\ccjZAqnI.s:11126  .debug_abbrev:0000000000000000 .Ldebug_abbrev0
C:\Users\stapi\AppData\Local\Temp\ccjZAqnI.s:15227  .debug_str:0000000000000eac .LASF222
C:\Users\stapi\AppData\Local\Temp\ccjZAqnI.s:14983  .debug_str:00000000000005c8 .LASF223
C:\Users\stapi\AppData\Local\Temp\ccjZAqnI.s:15001  .debug_str:00000000000006f0 .LASF224
C:\Users\stapi\AppData\Local\Temp\ccjZAqnI.s:14723  .debug_ranges:0000000000000000 .Ldebug_ranges0
C:\Users\stapi\AppData\Local\Temp\ccjZAqnI.s:14799  .debug_line:0000000000000000 .Ldebug_line0
C:\Users\stapi\AppData\Local\Temp\ccjZAqnI.s:14887  .debug_str:0000000000000294 .LASF0
C:\Users\stapi\AppData\Local\Temp\ccjZAqnI.s:14833  .debug_str:00000000000000f4 .LASF3
C:\Users\stapi\AppData\Local\Temp\ccjZAqnI.s:15095  .debug_str:0000000000000a61 .LASF1
C:\Users\stapi\AppData\Local\Temp\ccjZAqnI.s:15105  .debug_str:0000000000000aa1 .LASF2
C:\Users\stapi\AppData\Local\Temp\ccjZAqnI.s:15157  .debug_str:0000000000000c5d .LASF4
C:\Users\stapi\AppData\Local\Temp\ccjZAqnI.s:15119  .debug_str:0000000000000b06 .LASF5
C:\Users\stapi\AppData\Local\Temp\ccjZAqnI.s:14907  .debug_str:0000000000000324 .LASF6
C:\Users\stapi\AppData\Local\Temp\ccjZAqnI.s:14949  .debug_str:0000000000000488 .LASF7
C:\Users\stapi\AppData\Local\Temp\ccjZAqnI.s:14973  .debug_str:0000000000000557 .LASF8
C:\Users\stapi\AppData\Local\Temp\ccjZAqnI.s:14885  .debug_str:0000000000000286 .LASF9
C:\Users\stapi\AppData\Local\Temp\ccjZAqnI.s:14857  .debug_str:00000000000001b3 .LASF10
C:\Users\stapi\AppData\Local\Temp\ccjZAqnI.s:15155  .debug_str:0000000000000c50 .LASF11
C:\Users\stapi\AppData\Local\Temp\ccjZAqnI.s:14821  .debug_str:0000000000000092 .LASF12
C:\Users\stapi\AppData\Local\Temp\ccjZAqnI.s:15149  .debug_str:0000000000000c1e .LASF13
C:\Users\stapi\AppData\Local\Temp\ccjZAqnI.s:15211  .debug_str:0000000000000e39 .LASF14
C:\Users\stapi\AppData\Local\Temp\ccjZAqnI.s:15011  .debug_str:00000000000007ba .LASF15
C:\Users\stapi\AppData\Local\Temp\ccjZAqnI.s:15137  .debug_str:0000000000000bb0 .LASF16
C:\Users\stapi\AppData\Local\Temp\ccjZAqnI.s:15219  .debug_str:0000000000000e6c .LASF17
C:\Users\stapi\AppData\Local\Temp\ccjZAqnI.s:15221  .debug_str:0000000000000e7b .LASF18
C:\Users\stapi\AppData\Local\Temp\ccjZAqnI.s:15223  .debug_str:0000000000000e8a .LASF19
C:\Users\stapi\AppData\Local\Temp\ccjZAqnI.s:15127  .debug_str:0000000000000b51 .LASF20
C:\Users\stapi\AppData\Local\Temp\ccjZAqnI.s:14931  .debug_str:00000000000003e2 .LASF21
C:\Users\stapi\AppData\Local\Temp\ccjZAqnI.s:15025  .debug_str:0000000000000824 .LASF22
C:\Users\stapi\AppData\Local\Temp\ccjZAqnI.s:14807  .debug_str:0000000000000029 .LASF23
C:\Users\stapi\AppData\Local\Temp\ccjZAqnI.s:15041  .debug_str:00000000000008ad .LASF24
C:\Users\stapi\AppData\Local\Temp\ccjZAqnI.s:15147  .debug_str:0000000000000bfd .LASF25
C:\Users\stapi\AppData\Local\Temp\ccjZAqnI.s:15243  .debug_str:0000000000001012 .LASF26
C:\Users\stapi\AppData\Local\Temp\ccjZAqnI.s:14975  .debug_str:0000000000000569 .LASF27
C:\Users\stapi\AppData\Local\Temp\ccjZAqnI.s:15253  .debug_str:000000000000106a .LASF28
C:\Users\stapi\AppData\Local\Temp\ccjZAqnI.s:14921  .debug_str:000000000000037e .LASF29
C:\Users\stapi\AppData\Local\Temp\ccjZAqnI.s:14923  .debug_str:000000000000039e .LASF30
C:\Users\stapi\AppData\Local\Temp\ccjZAqnI.s:15209  .debug_str:0000000000000e19 .LASF31
C:\Users\stapi\AppData\Local\Temp\ccjZAqnI.s:14871  .debug_str:000000000000021a .LASF32
C:\Users\stapi\AppData\Local\Temp\ccjZAqnI.s:15245  .debug_str:0000000000001030 .LASF33
C:\Users\stapi\AppData\Local\Temp\ccjZAqnI.s:15065  .debug_str:0000000000000973 .LASF34
C:\Users\stapi\AppData\Local\Temp\ccjZAqnI.s:14989  .debug_str:0000000000000690 .LASF35
C:\Users\stapi\AppData\Local\Temp\ccjZAqnI.s:15063  .debug_str:0000000000000969 .LASF36
C:\Users\stapi\AppData\Local\Temp\ccjZAqnI.s:14849  .debug_str:000000000000016f .LASF37
C:\Users\stapi\AppData\Local\Temp\ccjZAqnI.s:14893  .debug_str:00000000000002b0 .LASF38
C:\Users\stapi\AppData\Local\Temp\ccjZAqnI.s:15039  .debug_str:00000000000008a1 .LASF39
C:\Users\stapi\AppData\Local\Temp\ccjZAqnI.s:15159  .debug_str:0000000000000c68 .LASF40
C:\Users\stapi\AppData\Local\Temp\ccjZAqnI.s:15057  .debug_str:000000000000094d .LASF41
C:\Users\stapi\AppData\Local\Temp\ccjZAqnI.s:15199  .debug_str:0000000000000dbf .LASF42
C:\Users\stapi\AppData\Local\Temp\ccjZAqnI.s:14835  .debug_str:00000000000000fe .LASF43
C:\Users\stapi\AppData\Local\Temp\ccjZAqnI.s:15103  .debug_str:0000000000000a96 .LASF44
C:\Users\stapi\AppData\Local\Temp\ccjZAqnI.s:15027  .debug_str:000000000000083f .LASF45
C:\Users\stapi\AppData\Local\Temp\ccjZAqnI.s:15019  .debug_str:00000000000007f5 .LASF46
C:\Users\stapi\AppData\Local\Temp\ccjZAqnI.s:15125  .debug_str:0000000000000b3a .LASF47
C:\Users\stapi\AppData\Local\Temp\ccjZAqnI.s:14839  .debug_str:000000000000012d .LASF48
C:\Users\stapi\AppData\Local\Temp\ccjZAqnI.s:15081  .debug_str:00000000000009f7 .LASF49
C:\Users\stapi\AppData\Local\Temp\ccjZAqnI.s:14825  .debug_str:00000000000000a4 .LASF50
C:\Users\stapi\AppData\Local\Temp\ccjZAqnI.s:14865  .debug_str:00000000000001e6 .LASF51
C:\Users\stapi\AppData\Local\Temp\ccjZAqnI.s:15053  .debug_str:0000000000000927 .LASF52
C:\Users\stapi\AppData\Local\Temp\ccjZAqnI.s:14911  .debug_str:0000000000000335 .LASF53
C:\Users\stapi\AppData\Local\Temp\ccjZAqnI.s:15079  .debug_str:00000000000009e5 .LASF54
C:\Users\stapi\AppData\Local\Temp\ccjZAqnI.s:14831  .debug_str:00000000000000e4 .LASF55
C:\Users\stapi\AppData\Local\Temp\ccjZAqnI.s:15051  .debug_str:0000000000000915 .LASF56
C:\Users\stapi\AppData\Local\Temp\ccjZAqnI.s:15217  .debug_str:0000000000000e5b .LASF57
C:\Users\stapi\AppData\Local\Temp\ccjZAqnI.s:14985  .debug_str:000000000000065d .LASF58
C:\Users\stapi\AppData\Local\Temp\ccjZAqnI.s:15109  .debug_str:0000000000000ab9 .LASF59
C:\Users\stapi\AppData\Local\Temp\ccjZAqnI.s:15107  .debug_str:0000000000000aab .LASF60
C:\Users\stapi\AppData\Local\Temp\ccjZAqnI.s:14811  .debug_str:0000000000000049 .LASF61
C:\Users\stapi\AppData\Local\Temp\ccjZAqnI.s:15197  .debug_str:0000000000000da9 .LASF62
C:\Users\stapi\AppData\Local\Temp\ccjZAqnI.s:14867  .debug_str:00000000000001f5 .LASF63
C:\Users\stapi\AppData\Local\Temp\ccjZAqnI.s:15143  .debug_str:0000000000000bd7 .LASF64
C:\Users\stapi\AppData\Local\Temp\ccjZAqnI.s:15003  .debug_str:0000000000000781 .LASF65
C:\Users\stapi\AppData\Local\Temp\ccjZAqnI.s:15017  .debug_str:00000000000007df .LASF66
C:\Users\stapi\AppData\Local\Temp\ccjZAqnI.s:15139  .debug_str:0000000000000bb9 .LASF67
C:\Users\stapi\AppData\Local\Temp\ccjZAqnI.s:15153  .debug_str:0000000000000c32 .LASF68
C:\Users\stapi\AppData\Local\Temp\ccjZAqnI.s:15131  .debug_str:0000000000000b71 .LASF69
C:\Users\stapi\AppData\Local\Temp\ccjZAqnI.s:15113  .debug_str:0000000000000ad5 .LASF70
C:\Users\stapi\AppData\Local\Temp\ccjZAqnI.s:15177  .debug_str:0000000000000d0a .LASF71
C:\Users\stapi\AppData\Local\Temp\ccjZAqnI.s:14953  .debug_str:00000000000004a6 .LASF72
C:\Users\stapi\AppData\Local\Temp\ccjZAqnI.s:14933  .debug_str:00000000000003f8 .LASF73
C:\Users\stapi\AppData\Local\Temp\ccjZAqnI.s:14961  .debug_str:00000000000004e4 .LASF74
C:\Users\stapi\AppData\Local\Temp\ccjZAqnI.s:14999  .debug_str:00000000000006de .LASF75
C:\Users\stapi\AppData\Local\Temp\ccjZAqnI.s:15231  .debug_str:0000000000000f9a .LASF76
C:\Users\stapi\AppData\Local\Temp\ccjZAqnI.s:14873  .debug_str:0000000000000237 .LASF77
C:\Users\stapi\AppData\Local\Temp\ccjZAqnI.s:14943  .debug_str:0000000000000452 .LASF78
C:\Users\stapi\AppData\Local\Temp\ccjZAqnI.s:14977  .debug_str:000000000000058c .LASF79
C:\Users\stapi\AppData\Local\Temp\ccjZAqnI.s:14995  .debug_str:00000000000006bc .LASF80
C:\Users\stapi\AppData\Local\Temp\ccjZAqnI.s:15145  .debug_str:0000000000000bec .LASF81
C:\Users\stapi\AppData\Local\Temp\ccjZAqnI.s:14851  .debug_str:0000000000000176 .LASF82
C:\Users\stapi\AppData\Local\Temp\ccjZAqnI.s:14869  .debug_str:0000000000000204 .LASF83
C:\Users\stapi\AppData\Local\Temp\ccjZAqnI.s:15047  .debug_str:00000000000008e6 .LASF84
C:\Users\stapi\AppData\Local\Temp\ccjZAqnI.s:14899  .debug_str:00000000000002ed .LASF85
C:\Users\stapi\AppData\Local\Temp\ccjZAqnI.s:14837  .debug_str:0000000000000116 .LASF86
C:\Users\stapi\AppData\Local\Temp\ccjZAqnI.s:14895  .debug_str:00000000000002ba .LASF87
C:\Users\stapi\AppData\Local\Temp\ccjZAqnI.s:15173  .debug_str:0000000000000cca .LASF88
C:\Users\stapi\AppData\Local\Temp\ccjZAqnI.s:15203  .debug_str:0000000000000ddd .LASF89
C:\Users\stapi\AppData\Local\Temp\ccjZAqnI.s:15189  .debug_str:0000000000000d62 .LASF90
C:\Users\stapi\AppData\Local\Temp\ccjZAqnI.s:14829  .debug_str:00000000000000cc .LASF91
C:\Users\stapi\AppData\Local\Temp\ccjZAqnI.s:15247  .debug_str:0000000000001051 .LASF92
C:\Users\stapi\AppData\Local\Temp\ccjZAqnI.s:14987  .debug_str:000000000000066d .LASF93
C:\Users\stapi\AppData\Local\Temp\ccjZAqnI.s:14969  .debug_str:000000000000051f .LASF94
C:\Users\stapi\AppData\Local\Temp\ccjZAqnI.s:15175  .debug_str:0000000000000ceb .LASF95
C:\Users\stapi\AppData\Local\Temp\ccjZAqnI.s:15233  .debug_str:0000000000000fb0 .LASF96
C:\Users\stapi\AppData\Local\Temp\ccjZAqnI.s:14947  .debug_str:0000000000000470 .LASF97
C:\Users\stapi\AppData\Local\Temp\ccjZAqnI.s:15089  .debug_str:0000000000000a36 .LASF98
C:\Users\stapi\AppData\Local\Temp\ccjZAqnI.s:14955  .debug_str:00000000000004c0 .LASF99
C:\Users\stapi\AppData\Local\Temp\ccjZAqnI.s:15237  .debug_str:0000000000000fde .LASF100
C:\Users\stapi\AppData\Local\Temp\ccjZAqnI.s:15169  .debug_str:0000000000000ca4 .LASF101
C:\Users\stapi\AppData\Local\Temp\ccjZAqnI.s:15059  .debug_str:0000000000000955 .LASF102
C:\Users\stapi\AppData\Local\Temp\ccjZAqnI.s:15179  .debug_str:0000000000000d22 .LASF103
C:\Users\stapi\AppData\Local\Temp\ccjZAqnI.s:14941  .debug_str:0000000000000446 .LASF104
C:\Users\stapi\AppData\Local\Temp\ccjZAqnI.s:15111  .debug_str:0000000000000ac7 .LASF105
C:\Users\stapi\AppData\Local\Temp\ccjZAqnI.s:15133  .debug_str:0000000000000b8f .LASF106
C:\Users\stapi\AppData\Local\Temp\ccjZAqnI.s:15193  .debug_str:0000000000000d91 .LASF107
C:\Users\stapi\AppData\Local\Temp\ccjZAqnI.s:15083  .debug_str:0000000000000a0d .LASF108
C:\Users\stapi\AppData\Local\Temp\ccjZAqnI.s:14993  .debug_str:00000000000006b4 .LASF109
C:\Users\stapi\AppData\Local\Temp\ccjZAqnI.s:14997  .debug_str:00000000000006cc .LASF110
C:\Users\stapi\AppData\Local\Temp\ccjZAqnI.s:14903  .debug_str:0000000000000311 .LASF111
C:\Users\stapi\AppData\Local\Temp\ccjZAqnI.s:14841  .debug_str:0000000000000144 .LASF112
C:\Users\stapi\AppData\Local\Temp\ccjZAqnI.s:15007  .debug_str:000000000000079c .LASF113
C:\Users\stapi\AppData\Local\Temp\ccjZAqnI.s:15191  .debug_str:0000000000000d84 .LASF114
C:\Users\stapi\AppData\Local\Temp\ccjZAqnI.s:15023  .debug_str:000000000000081a .LASF115
C:\Users\stapi\AppData\Local\Temp\ccjZAqnI.s:15005  .debug_str:0000000000000797 .LASF116
C:\Users\stapi\AppData\Local\Temp\ccjZAqnI.s:15187  .debug_str:0000000000000d5a .LASF117
C:\Users\stapi\AppData\Local\Temp\ccjZAqnI.s:15043  .debug_str:00000000000008ce .LASF118
C:\Users\stapi\AppData\Local\Temp\ccjZAqnI.s:15129  .debug_str:0000000000000b6a .LASF119
C:\Users\stapi\AppData\Local\Temp\ccjZAqnI.s:15205  .debug_str:0000000000000e01 .LASF120
C:\Users\stapi\AppData\Local\Temp\ccjZAqnI.s:15249  .debug_str:0000000000001058 .LASF121
C:\Users\stapi\AppData\Local\Temp\ccjZAqnI.s:15099  .debug_str:0000000000000a85 .LASF122
C:\Users\stapi\AppData\Local\Temp\ccjZAqnI.s:15073  .debug_str:00000000000009c3 .LASF123
C:\Users\stapi\AppData\Local\Temp\ccjZAqnI.s:15213  .debug_str:0000000000000e41 .LASF124
C:\Users\stapi\AppData\Local\Temp\ccjZAqnI.s:15015  .debug_str:00000000000007d4 .LASF125
C:\Users\stapi\AppData\Local\Temp\ccjZAqnI.s:15077  .debug_str:00000000000009dc .LASF126
C:\Users\stapi\AppData\Local\Temp\ccjZAqnI.s:14819  .debug_str:000000000000008a .LASF127
C:\Users\stapi\AppData\Local\Temp\ccjZAqnI.s:15035  .debug_str:000000000000088b .LASF128
C:\Users\stapi\AppData\Local\Temp\ccjZAqnI.s:14803  .debug_str:0000000000000009 .LASF129
C:\Users\stapi\AppData\Local\Temp\ccjZAqnI.s:15235  .debug_str:0000000000000fd0 .LASF130
C:\Users\stapi\AppData\Local\Temp\ccjZAqnI.s:15185  .debug_str:0000000000000d4b .LASF131
C:\Users\stapi\AppData\Local\Temp\ccjZAqnI.s:15075  .debug_str:00000000000009ce .LASF132
C:\Users\stapi\AppData\Local\Temp\ccjZAqnI.s:14883  .debug_str:0000000000000271 .LASF133
C:\Users\stapi\AppData\Local\Temp\ccjZAqnI.s:15117  .debug_str:0000000000000af1 .LASF135
C:\Users\stapi\AppData\Local\Temp\ccjZAqnI.s:4534   .text.IOT_OTA_GetLastError:0000000000000000 .LFB45
C:\Users\stapi\AppData\Local\Temp\ccjZAqnI.s:4580   .text.IOT_OTA_GetLastError:0000000000000048 .LFE45
C:\Users\stapi\AppData\Local\Temp\ccjZAqnI.s:15229  .debug_str:0000000000000f93 .LASF137
C:\Users\stapi\AppData\Local\Temp\ccjZAqnI.s:12119  .debug_loc:0000000000000000 .LLST107
C:\Users\stapi\AppData\Local\Temp\ccjZAqnI.s:15141  .debug_str:0000000000000bd1 .LASF134
C:\Users\stapi\AppData\Local\Temp\ccjZAqnI.s:12144  .debug_loc:000000000000003a .LLST108
C:\Users\stapi\AppData\Local\Temp\ccjZAqnI.s:4552   .text.IOT_OTA_GetLastError:000000000000001a .LVL539
C:\Users\stapi\AppData\Local\Temp\ccjZAqnI.s:4557   .text.IOT_OTA_GetLastError:000000000000002a .LVL540
C:\Users\stapi\AppData\Local\Temp\ccjZAqnI.s:4562   .text.IOT_OTA_GetLastError:000000000000003a .LVL541
C:\Users\stapi\AppData\Local\Temp\ccjZAqnI.s:14927  .debug_str:00000000000003c5 .LASF136
C:\Users\stapi\AppData\Local\Temp\ccjZAqnI.s:3825   .text.IOT_OTA_Ioctl:0000000000000000 .LFB44
C:\Users\stapi\AppData\Local\Temp\ccjZAqnI.s:4527   .text.IOT_OTA_Ioctl:0000000000000464 .LFE44
C:\Users\stapi\AppData\Local\Temp\ccjZAqnI.s:12169  .debug_loc:0000000000000074 .LLST96
C:\Users\stapi\AppData\Local\Temp\ccjZAqnI.s:12212  .debug_loc:00000000000000dc .LLST97
C:\Users\stapi\AppData\Local\Temp\ccjZAqnI.s:12248  .debug_loc:000000000000012f .LLST98
C:\Users\stapi\AppData\Local\Temp\ccjZAqnI.s:14889  .debug_str:00000000000002a0 .LASF138
C:\Users\stapi\AppData\Local\Temp\ccjZAqnI.s:12292  .debug_loc:0000000000000198 .LLST99
C:\Users\stapi\AppData\Local\Temp\ccjZAqnI.s:12451  .debug_loc:0000000000000323 .LLST100
C:\Users\stapi\AppData\Local\Temp\ccjZAqnI.s:14981  .debug_str:00000000000005bb .LASF179
C:\Users\stapi\AppData\Local\Temp\ccjZAqnI.s:14809  .debug_str:0000000000000043 .LASF139
C:\Users\stapi\AppData\Local\Temp\ccjZAqnI.s:12494  .debug_loc:000000000000038b .LLST101
C:\Users\stapi\AppData\Local\Temp\ccjZAqnI.s:3951   .text.IOT_OTA_Ioctl:0000000000000092 .LVL469
C:\Users\stapi\AppData\Local\Temp\ccjZAqnI.s:3972   .text.IOT_OTA_Ioctl:00000000000000bc .LVL473
C:\Users\stapi\AppData\Local\Temp\ccjZAqnI.s:3977   .text.IOT_OTA_Ioctl:00000000000000cc .LVL474
C:\Users\stapi\AppData\Local\Temp\ccjZAqnI.s:4002   .text.IOT_OTA_Ioctl:00000000000000e2 .LVL478
C:\Users\stapi\AppData\Local\Temp\ccjZAqnI.s:4008   .text.IOT_OTA_Ioctl:00000000000000f2 .LVL479
C:\Users\stapi\AppData\Local\Temp\ccjZAqnI.s:4053   .text.IOT_OTA_Ioctl:0000000000000124 .LBB23
C:\Users\stapi\AppData\Local\Temp\ccjZAqnI.s:4098   .text.IOT_OTA_Ioctl:0000000000000168 .LBE23
C:\Users\stapi\AppData\Local\Temp\ccjZAqnI.s:12509  .debug_loc:00000000000003b4 .LLST103
C:\Users\stapi\AppData\Local\Temp\ccjZAqnI.s:4067   .text.IOT_OTA_Ioctl:0000000000000134 .LVL485
C:\Users\stapi\AppData\Local\Temp\ccjZAqnI.s:4072   .text.IOT_OTA_Ioctl:0000000000000144 .LVL486
C:\Users\stapi\AppData\Local\Temp\ccjZAqnI.s:4085   .text.IOT_OTA_Ioctl:0000000000000154 .LVL488
C:\Users\stapi\AppData\Local\Temp\ccjZAqnI.s:4091   .text.IOT_OTA_Ioctl:0000000000000164 .LVL489
C:\Users\stapi\AppData\Local\Temp\ccjZAqnI.s:4100   .text.IOT_OTA_Ioctl:0000000000000168 .LBB24
C:\Users\stapi\AppData\Local\Temp\ccjZAqnI.s:4144   .text.IOT_OTA_Ioctl:00000000000001ac .LBE24
C:\Users\stapi\AppData\Local\Temp\ccjZAqnI.s:12516  .debug_loc:00000000000003c7 .LLST104
C:\Users\stapi\AppData\Local\Temp\ccjZAqnI.s:4113   .text.IOT_OTA_Ioctl:0000000000000178 .LVL491
C:\Users\stapi\AppData\Local\Temp\ccjZAqnI.s:4118   .text.IOT_OTA_Ioctl:0000000000000188 .LVL492
C:\Users\stapi\AppData\Local\Temp\ccjZAqnI.s:4131   .text.IOT_OTA_Ioctl:0000000000000198 .LVL494
C:\Users\stapi\AppData\Local\Temp\ccjZAqnI.s:4137   .text.IOT_OTA_Ioctl:00000000000001a8 .LVL495
C:\Users\stapi\AppData\Local\Temp\ccjZAqnI.s:4146   .text.IOT_OTA_Ioctl:00000000000001ac .LBB25
C:\Users\stapi\AppData\Local\Temp\ccjZAqnI.s:4190   .text.IOT_OTA_Ioctl:00000000000001f6 .LBE25
C:\Users\stapi\AppData\Local\Temp\ccjZAqnI.s:12523  .debug_loc:00000000000003da .LLST105
C:\Users\stapi\AppData\Local\Temp\ccjZAqnI.s:4159   .text.IOT_OTA_Ioctl:00000000000001c0 .LVL497
C:\Users\stapi\AppData\Local\Temp\ccjZAqnI.s:4164   .text.IOT_OTA_Ioctl:00000000000001d0 .LVL498
C:\Users\stapi\AppData\Local\Temp\ccjZAqnI.s:4177   .text.IOT_OTA_Ioctl:00000000000001e2 .LVL500
C:\Users\stapi\AppData\Local\Temp\ccjZAqnI.s:4183   .text.IOT_OTA_Ioctl:00000000000001f2 .LVL501
C:\Users\stapi\AppData\Local\Temp\ccjZAqnI.s:12530  .debug_loc:00000000000003ed .LLST102
C:\Users\stapi\AppData\Local\Temp\ccjZAqnI.s:4020   .text.IOT_OTA_Ioctl:0000000000000100 .LVL481
C:\Users\stapi\AppData\Local\Temp\ccjZAqnI.s:4025   .text.IOT_OTA_Ioctl:000000000000010e .LVL482
C:\Users\stapi\AppData\Local\Temp\ccjZAqnI.s:4205   .text.IOT_OTA_Ioctl:000000000000020a .LVL503
C:\Users\stapi\AppData\Local\Temp\ccjZAqnI.s:4210   .text.IOT_OTA_Ioctl:000000000000021a .LVL504
C:\Users\stapi\AppData\Local\Temp\ccjZAqnI.s:4223   .text.IOT_OTA_Ioctl:000000000000022c .LVL506
C:\Users\stapi\AppData\Local\Temp\ccjZAqnI.s:4229   .text.IOT_OTA_Ioctl:000000000000023c .LVL507
C:\Users\stapi\AppData\Local\Temp\ccjZAqnI.s:4347   .text.IOT_OTA_Ioctl:00000000000002e0 .LBB27
C:\Users\stapi\AppData\Local\Temp\ccjZAqnI.s:4385   .text.IOT_OTA_Ioctl:0000000000000330 .LBE27
C:\Users\stapi\AppData\Local\Temp\ccjZAqnI.s:15121  .debug_str:0000000000000b19 .LASF140
C:\Users\stapi\AppData\Local\Temp\ccjZAqnI.s:12537  .debug_loc:0000000000000400 .LLST106
C:\Users\stapi\AppData\Local\Temp\ccjZAqnI.s:14881  .debug_str:0000000000000269 .LASF141
C:\Users\stapi\AppData\Local\Temp\ccjZAqnI.s:4358   .text.IOT_OTA_Ioctl:00000000000002f0 .LVL518
C:\Users\stapi\AppData\Local\Temp\ccjZAqnI.s:4371   .text.IOT_OTA_Ioctl:000000000000031c .LVL519
C:\Users\stapi\AppData\Local\Temp\ccjZAqnI.s:4377   .text.IOT_OTA_Ioctl:0000000000000328 .LVL520
C:\Users\stapi\AppData\Local\Temp\ccjZAqnI.s:4429   .text.IOT_OTA_Ioctl:0000000000000386 .LBB28
C:\Users\stapi\AppData\Local\Temp\ccjZAqnI.s:4459   .text.IOT_OTA_Ioctl:00000000000003d0 .LBE28
C:\Users\stapi\AppData\Local\Temp\ccjZAqnI.s:4435   .text.IOT_OTA_Ioctl:0000000000000392 .LVL526
C:\Users\stapi\AppData\Local\Temp\ccjZAqnI.s:4448   .text.IOT_OTA_Ioctl:00000000000003be .LVL527
C:\Users\stapi\AppData\Local\Temp\ccjZAqnI.s:4454   .text.IOT_OTA_Ioctl:00000000000003ca .LVL528
C:\Users\stapi\AppData\Local\Temp\ccjZAqnI.s:4476   .text.IOT_OTA_Ioctl:00000000000003f8 .LBB29
C:\Users\stapi\AppData\Local\Temp\ccjZAqnI.s:4508   .text.IOT_OTA_Ioctl:0000000000000444 .LBE29
C:\Users\stapi\AppData\Local\Temp\ccjZAqnI.s:15123  .debug_str:0000000000000b2f .LASF142
C:\Users\stapi\AppData\Local\Temp\ccjZAqnI.s:4482   .text.IOT_OTA_Ioctl:0000000000000404 .LVL531
C:\Users\stapi\AppData\Local\Temp\ccjZAqnI.s:4495   .text.IOT_OTA_Ioctl:0000000000000430 .LVL532
C:\Users\stapi\AppData\Local\Temp\ccjZAqnI.s:4501   .text.IOT_OTA_Ioctl:000000000000043c .LVL533
C:\Users\stapi\AppData\Local\Temp\ccjZAqnI.s:3856   .text.IOT_OTA_Ioctl:0000000000000024 .LVL461
C:\Users\stapi\AppData\Local\Temp\ccjZAqnI.s:3861   .text.IOT_OTA_Ioctl:0000000000000034 .LVL462
C:\Users\stapi\AppData\Local\Temp\ccjZAqnI.s:3866   .text.IOT_OTA_Ioctl:0000000000000044 .LVL463
C:\Users\stapi\AppData\Local\Temp\ccjZAqnI.s:3959   .text.IOT_OTA_Ioctl:00000000000000a2 .LVL470
C:\Users\stapi\AppData\Local\Temp\ccjZAqnI.s:3964   .text.IOT_OTA_Ioctl:00000000000000b2 .LVL471
C:\Users\stapi\AppData\Local\Temp\ccjZAqnI.s:4291   .text.IOT_OTA_Ioctl:0000000000000286 .LVL511
C:\Users\stapi\AppData\Local\Temp\ccjZAqnI.s:4325   .text.IOT_OTA_Ioctl:00000000000002bc .LVL513
C:\Users\stapi\AppData\Local\Temp\ccjZAqnI.s:4332   .text.IOT_OTA_Ioctl:00000000000002cc .LVL514
C:\Users\stapi\AppData\Local\Temp\ccjZAqnI.s:4337   .text.IOT_OTA_Ioctl:00000000000002dc .LVL515
C:\Users\stapi\AppData\Local\Temp\ccjZAqnI.s:4407   .text.IOT_OTA_Ioctl:0000000000000358 .LVL522
C:\Users\stapi\AppData\Local\Temp\ccjZAqnI.s:4420   .text.IOT_OTA_Ioctl:0000000000000370 .LVL524
C:\Users\stapi\AppData\Local\Temp\ccjZAqnI.s:4426   .text.IOT_OTA_Ioctl:0000000000000384 .LVL525
C:\Users\stapi\AppData\Local\Temp\ccjZAqnI.s:4466   .text.IOT_OTA_Ioctl:00000000000003de .LVL529
C:\Users\stapi\AppData\Local\Temp\ccjZAqnI.s:4472   .text.IOT_OTA_Ioctl:00000000000003f2 .LVL530
C:\Users\stapi\AppData\Local\Temp\ccjZAqnI.s:4521   .text.IOT_OTA_Ioctl:000000000000045a .LVL536
C:\Users\stapi\AppData\Local\Temp\ccjZAqnI.s:14847  .debug_str:000000000000015c .LASF143
C:\Users\stapi\AppData\Local\Temp\ccjZAqnI.s:3483   .text.IOT_OTA_FetchYield:0000000000000000 .LFB43
C:\Users\stapi\AppData\Local\Temp\ccjZAqnI.s:3796   .text.IOT_OTA_FetchYield:00000000000001f0 .LFE43
C:\Users\stapi\AppData\Local\Temp\ccjZAqnI.s:12546  .debug_loc:0000000000000415 .LLST90
C:\Users\stapi\AppData\Local\Temp\ccjZAqnI.s:12568  .debug_loc:000000000000044c .LLST91
C:\Users\stapi\AppData\Local\Temp\ccjZAqnI.s:12590  .debug_loc:0000000000000483 .LLST92
C:\Users\stapi\AppData\Local\Temp\ccjZAqnI.s:15093  .debug_str:0000000000000a57 .LASF144
C:\Users\stapi\AppData\Local\Temp\ccjZAqnI.s:12615  .debug_loc:00000000000004bd .LLST93
C:\Users\stapi\AppData\Local\Temp\ccjZAqnI.s:12640  .debug_loc:00000000000004f7 .LLST94
C:\Users\stapi\AppData\Local\Temp\ccjZAqnI.s:12651  .debug_loc:0000000000000515 .LLST95
C:\Users\stapi\AppData\Local\Temp\ccjZAqnI.s:3511   .text.IOT_OTA_FetchYield:0000000000000020 .LVL431
C:\Users\stapi\AppData\Local\Temp\ccjZAqnI.s:3516   .text.IOT_OTA_FetchYield:0000000000000030 .LVL432
C:\Users\stapi\AppData\Local\Temp\ccjZAqnI.s:3521   .text.IOT_OTA_FetchYield:0000000000000040 .LVL433
C:\Users\stapi\AppData\Local\Temp\ccjZAqnI.s:3560   .text.IOT_OTA_FetchYield:0000000000000068 .LVL436
C:\Users\stapi\AppData\Local\Temp\ccjZAqnI.s:3571   .text.IOT_OTA_FetchYield:000000000000007e .LVL438
C:\Users\stapi\AppData\Local\Temp\ccjZAqnI.s:3576   .text.IOT_OTA_FetchYield:000000000000008e .LVL439
C:\Users\stapi\AppData\Local\Temp\ccjZAqnI.s:3581   .text.IOT_OTA_FetchYield:000000000000009e .LVL440
C:\Users\stapi\AppData\Local\Temp\ccjZAqnI.s:3609   .text.IOT_OTA_FetchYield:00000000000000bc .LVL441
C:\Users\stapi\AppData\Local\Temp\ccjZAqnI.s:3645   .text.IOT_OTA_FetchYield:00000000000000ea .LVL444
C:\Users\stapi\AppData\Local\Temp\ccjZAqnI.s:3658   .text.IOT_OTA_FetchYield:00000000000000fe .LVL445
C:\Users\stapi\AppData\Local\Temp\ccjZAqnI.s:3662   .text.IOT_OTA_FetchYield:0000000000000106 .LVL446
C:\Users\stapi\AppData\Local\Temp\ccjZAqnI.s:3673   .text.IOT_OTA_FetchYield:000000000000011a .LVL447
C:\Users\stapi\AppData\Local\Temp\ccjZAqnI.s:3679   .text.IOT_OTA_FetchYield:000000000000012a .LVL448
C:\Users\stapi\AppData\Local\Temp\ccjZAqnI.s:3684   .text.IOT_OTA_FetchYield:000000000000013a .LVL449
C:\Users\stapi\AppData\Local\Temp\ccjZAqnI.s:3690   .text.IOT_OTA_FetchYield:0000000000000146 .LVL450
C:\Users\stapi\AppData\Local\Temp\ccjZAqnI.s:3694   .text.IOT_OTA_FetchYield:000000000000014e .LVL451
C:\Users\stapi\AppData\Local\Temp\ccjZAqnI.s:3705   .text.IOT_OTA_FetchYield:0000000000000162 .LVL452
C:\Users\stapi\AppData\Local\Temp\ccjZAqnI.s:3717   .text.IOT_OTA_FetchYield:0000000000000180 .LVL453
C:\Users\stapi\AppData\Local\Temp\ccjZAqnI.s:3724   .text.IOT_OTA_FetchYield:000000000000018e .LVL454
C:\Users\stapi\AppData\Local\Temp\ccjZAqnI.s:3730   .text.IOT_OTA_FetchYield:000000000000019c .LVL455
C:\Users\stapi\AppData\Local\Temp\ccjZAqnI.s:3766   .text.IOT_OTA_FetchYield:00000000000001c2 .LVL456
C:\Users\stapi\AppData\Local\Temp\ccjZAqnI.s:3790   .text.IOT_OTA_FetchYield:00000000000001ea .LVL457
C:\Users\stapi\AppData\Local\Temp\ccjZAqnI.s:14939  .debug_str:0000000000000430 .LASF145
C:\Users\stapi\AppData\Local\Temp\ccjZAqnI.s:3378   .text.IOT_OTA_IsFetchFinish:0000000000000000 .LFB42
C:\Users\stapi\AppData\Local\Temp\ccjZAqnI.s:3460   .text.IOT_OTA_IsFetchFinish:000000000000008a .LFE42
C:\Users\stapi\AppData\Local\Temp\ccjZAqnI.s:12673  .debug_loc:000000000000054c .LLST88
C:\Users\stapi\AppData\Local\Temp\ccjZAqnI.s:12695  .debug_loc:0000000000000583 .LLST89
C:\Users\stapi\AppData\Local\Temp\ccjZAqnI.s:3397   .text.IOT_OTA_IsFetchFinish:000000000000001a .LVL420
C:\Users\stapi\AppData\Local\Temp\ccjZAqnI.s:3402   .text.IOT_OTA_IsFetchFinish:000000000000002a .LVL421
C:\Users\stapi\AppData\Local\Temp\ccjZAqnI.s:3407   .text.IOT_OTA_IsFetchFinish:000000000000003a .LVL422
C:\Users\stapi\AppData\Local\Temp\ccjZAqnI.s:3436   .text.IOT_OTA_IsFetchFinish:000000000000005a .LVL425
C:\Users\stapi\AppData\Local\Temp\ccjZAqnI.s:3441   .text.IOT_OTA_IsFetchFinish:000000000000006a .LVL426
C:\Users\stapi\AppData\Local\Temp\ccjZAqnI.s:3446   .text.IOT_OTA_IsFetchFinish:000000000000007a .LVL427
C:\Users\stapi\AppData\Local\Temp\ccjZAqnI.s:15225  .debug_str:0000000000000e99 .LASF146
C:\Users\stapi\AppData\Local\Temp\ccjZAqnI.s:3289   .text.IOT_OTA_IsFetching:0000000000000000 .LFB41
C:\Users\stapi\AppData\Local\Temp\ccjZAqnI.s:3371   .text.IOT_OTA_IsFetching:000000000000008a .LFE41
C:\Users\stapi\AppData\Local\Temp\ccjZAqnI.s:12717  .debug_loc:00000000000005ba .LLST86
C:\Users\stapi\AppData\Local\Temp\ccjZAqnI.s:12739  .debug_loc:00000000000005f1 .LLST87
C:\Users\stapi\AppData\Local\Temp\ccjZAqnI.s:3308   .text.IOT_OTA_IsFetching:000000000000001a .LVL409
C:\Users\stapi\AppData\Local\Temp\ccjZAqnI.s:3313   .text.IOT_OTA_IsFetching:000000000000002a .LVL410
C:\Users\stapi\AppData\Local\Temp\ccjZAqnI.s:3318   .text.IOT_OTA_IsFetching:000000000000003a .LVL411
C:\Users\stapi\AppData\Local\Temp\ccjZAqnI.s:3347   .text.IOT_OTA_IsFetching:000000000000005a .LVL414
C:\Users\stapi\AppData\Local\Temp\ccjZAqnI.s:3352   .text.IOT_OTA_IsFetching:000000000000006a .LVL415
C:\Users\stapi\AppData\Local\Temp\ccjZAqnI.s:3357   .text.IOT_OTA_IsFetching:000000000000007a .LVL416
C:\Users\stapi\AppData\Local\Temp\ccjZAqnI.s:15021  .debug_str:0000000000000806 .LASF147
C:\Users\stapi\AppData\Local\Temp\ccjZAqnI.s:2985   .text.iotx_ota_get_config:0000000000000000 .LFB40
C:\Users\stapi\AppData\Local\Temp\ccjZAqnI.s:3282   .text.iotx_ota_get_config:00000000000001e2 .LFE40
C:\Users\stapi\AppData\Local\Temp\ccjZAqnI.s:12761  .debug_loc:0000000000000628 .LLST77
C:\Users\stapi\AppData\Local\Temp\ccjZAqnI.s:14875  .debug_str:0000000000000249 .LASF148
C:\Users\stapi\AppData\Local\Temp\ccjZAqnI.s:12812  .debug_loc:000000000000069f .LLST78
C:\Users\stapi\AppData\Local\Temp\ccjZAqnI.s:12852  .debug_loc:00000000000006fd .LLST79
C:\Users\stapi\AppData\Local\Temp\ccjZAqnI.s:15207  .debug_str:0000000000000e0b .LASF149
C:\Users\stapi\AppData\Local\Temp\ccjZAqnI.s:12863  .debug_loc:000000000000071b .LLST80
C:\Users\stapi\AppData\Local\Temp\ccjZAqnI.s:12874  .debug_loc:0000000000000739 .LLST81
C:\Users\stapi\AppData\Local\Temp\ccjZAqnI.s:14863  .debug_str:00000000000001de .LASF150
C:\Users\stapi\AppData\Local\Temp\ccjZAqnI.s:14913  .debug_str:0000000000000343 .LASF151
C:\Users\stapi\AppData\Local\Temp\ccjZAqnI.s:12903  .debug_loc:000000000000077e .LLST82
C:\Users\stapi\AppData\Local\Temp\ccjZAqnI.s:14823  .debug_str:0000000000000099 .LASF152
C:\Users\stapi\AppData\Local\Temp\ccjZAqnI.s:14891  .debug_str:00000000000002a8 .LASF156
C:\Users\stapi\AppData\Local\Temp\ccjZAqnI.s:3212   .text.iotx_ota_get_config:000000000000018c .LBB13
C:\Users\stapi\AppData\Local\Temp\ccjZAqnI.s:12950  .debug_loc:00000000000007ea .LLST83
C:\Users\stapi\AppData\Local\Temp\ccjZAqnI.s:12969  .debug_loc:0000000000000819 .LLST84
C:\Users\stapi\AppData\Local\Temp\ccjZAqnI.s:12988  .debug_loc:0000000000000848 .LLST85
C:\Users\stapi\AppData\Local\Temp\ccjZAqnI.s:3240   .text.iotx_ota_get_config:00000000000001a0 .LVL398
C:\Users\stapi\AppData\Local\Temp\ccjZAqnI.s:3020   .text.iotx_ota_get_config:0000000000000024 .LVL370
C:\Users\stapi\AppData\Local\Temp\ccjZAqnI.s:3037   .text.iotx_ota_get_config:0000000000000040 .LVL371
C:\Users\stapi\AppData\Local\Temp\ccjZAqnI.s:3042   .text.iotx_ota_get_config:0000000000000050 .LVL372
C:\Users\stapi\AppData\Local\Temp\ccjZAqnI.s:3047   .text.iotx_ota_get_config:0000000000000060 .LVL373
C:\Users\stapi\AppData\Local\Temp\ccjZAqnI.s:3080   .text.iotx_ota_get_config:0000000000000082 .LVL376
C:\Users\stapi\AppData\Local\Temp\ccjZAqnI.s:3087   .text.iotx_ota_get_config:0000000000000092 .LVL377
C:\Users\stapi\AppData\Local\Temp\ccjZAqnI.s:3092   .text.iotx_ota_get_config:00000000000000a2 .LVL378
C:\Users\stapi\AppData\Local\Temp\ccjZAqnI.s:3116   .text.iotx_ota_get_config:00000000000000c0 .LVL381
C:\Users\stapi\AppData\Local\Temp\ccjZAqnI.s:3128   .text.iotx_ota_get_config:00000000000000da .LVL382
C:\Users\stapi\AppData\Local\Temp\ccjZAqnI.s:3138   .text.iotx_ota_get_config:00000000000000ee .LVL384
C:\Users\stapi\AppData\Local\Temp\ccjZAqnI.s:3143   .text.iotx_ota_get_config:00000000000000fe .LVL385
C:\Users\stapi\AppData\Local\Temp\ccjZAqnI.s:3148   .text.iotx_ota_get_config:000000000000010e .LVL386
C:\Users\stapi\AppData\Local\Temp\ccjZAqnI.s:3164   .text.iotx_ota_get_config:000000000000012c .LVL387
C:\Users\stapi\AppData\Local\Temp\ccjZAqnI.s:3179   .text.iotx_ota_get_config:000000000000014e .LVL388
C:\Users\stapi\AppData\Local\Temp\ccjZAqnI.s:3188   .text.iotx_ota_get_config:0000000000000162 .LVL389
C:\Users\stapi\AppData\Local\Temp\ccjZAqnI.s:3192   .text.iotx_ota_get_config:000000000000016c .LVL390
C:\Users\stapi\AppData\Local\Temp\ccjZAqnI.s:3198   .text.iotx_ota_get_config:000000000000017c .LVL392
C:\Users\stapi\AppData\Local\Temp\ccjZAqnI.s:3211   .text.iotx_ota_get_config:000000000000018c .LVL393
C:\Users\stapi\AppData\Local\Temp\ccjZAqnI.s:3252   .text.iotx_ota_get_config:00000000000001b4 .LVL400
C:\Users\stapi\AppData\Local\Temp\ccjZAqnI.s:3257   .text.iotx_ota_get_config:00000000000001c4 .LVL401
C:\Users\stapi\AppData\Local\Temp\ccjZAqnI.s:3261   .text.iotx_ota_get_config:00000000000001d0 .LVL402
C:\Users\stapi\AppData\Local\Temp\ccjZAqnI.s:3277   .text.iotx_ota_get_config:00000000000001e0 .LVL405
C:\Users\stapi\AppData\Local\Temp\ccjZAqnI.s:15071  .debug_str:00000000000009ac .LASF153
C:\Users\stapi\AppData\Local\Temp\ccjZAqnI.s:2733   .text.IOT_OTA_ReportProgress:0000000000000000 .LFB39
C:\Users\stapi\AppData\Local\Temp\ccjZAqnI.s:2971   .text.IOT_OTA_ReportProgress:0000000000000194 .LFE39
C:\Users\stapi\AppData\Local\Temp\ccjZAqnI.s:12995  .debug_loc:000000000000085b .LLST71
C:\Users\stapi\AppData\Local\Temp\ccjZAqnI.s:14957  .debug_str:00000000000004cb .LASF154
C:\Users\stapi\AppData\Local\Temp\ccjZAqnI.s:13017  .debug_loc:0000000000000892 .LLST72
C:\Users\stapi\AppData\Local\Temp\ccjZAqnI.s:13068  .debug_loc:0000000000000909 .LLST73
C:\Users\stapi\AppData\Local\Temp\ccjZAqnI.s:13117  .debug_loc:000000000000097e .LLST74
C:\Users\stapi\AppData\Local\Temp\ccjZAqnI.s:14991  .debug_str:00000000000006a7 .LASF155
C:\Users\stapi\AppData\Local\Temp\ccjZAqnI.s:13136  .debug_loc:00000000000009ab .LLST75
C:\Users\stapi\AppData\Local\Temp\ccjZAqnI.s:13155  .debug_loc:00000000000009df .LLST76
C:\Users\stapi\AppData\Local\Temp\ccjZAqnI.s:2829   .text.IOT_OTA_ReportProgress:000000000000008a .LBB11
C:\Users\stapi\AppData\Local\Temp\ccjZAqnI.s:2835   .text.IOT_OTA_ReportProgress:000000000000008e .LBE11
C:\Users\stapi\AppData\Local\Temp\ccjZAqnI.s:2759   .text.IOT_OTA_ReportProgress:000000000000001c .LVL332
C:\Users\stapi\AppData\Local\Temp\ccjZAqnI.s:2764   .text.IOT_OTA_ReportProgress:000000000000002c .LVL333
C:\Users\stapi\AppData\Local\Temp\ccjZAqnI.s:2769   .text.IOT_OTA_ReportProgress:000000000000003c .LVL334
C:\Users\stapi\AppData\Local\Temp\ccjZAqnI.s:2802   .text.IOT_OTA_ReportProgress:0000000000000060 .LVL338
C:\Users\stapi\AppData\Local\Temp\ccjZAqnI.s:2807   .text.IOT_OTA_ReportProgress:0000000000000070 .LVL339
C:\Users\stapi\AppData\Local\Temp\ccjZAqnI.s:2812   .text.IOT_OTA_ReportProgress:0000000000000080 .LVL340
C:\Users\stapi\AppData\Local\Temp\ccjZAqnI.s:2845   .text.IOT_OTA_ReportProgress:00000000000000a6 .LVL344
C:\Users\stapi\AppData\Local\Temp\ccjZAqnI.s:2850   .text.IOT_OTA_ReportProgress:00000000000000b6 .LVL345
C:\Users\stapi\AppData\Local\Temp\ccjZAqnI.s:2855   .text.IOT_OTA_ReportProgress:00000000000000c6 .LVL346
C:\Users\stapi\AppData\Local\Temp\ccjZAqnI.s:2872   .text.IOT_OTA_ReportProgress:00000000000000de .LVL349
C:\Users\stapi\AppData\Local\Temp\ccjZAqnI.s:2887   .text.IOT_OTA_ReportProgress:00000000000000f6 .LVL352
C:\Users\stapi\AppData\Local\Temp\ccjZAqnI.s:2892   .text.IOT_OTA_ReportProgress:0000000000000106 .LVL353
C:\Users\stapi\AppData\Local\Temp\ccjZAqnI.s:2897   .text.IOT_OTA_ReportProgress:0000000000000116 .LVL354
C:\Users\stapi\AppData\Local\Temp\ccjZAqnI.s:2910   .text.IOT_OTA_ReportProgress:0000000000000128 .LVL356
C:\Users\stapi\AppData\Local\Temp\ccjZAqnI.s:2921   .text.IOT_OTA_ReportProgress:000000000000013c .LVL358
C:\Users\stapi\AppData\Local\Temp\ccjZAqnI.s:2928   .text.IOT_OTA_ReportProgress:000000000000014c .LVL359
C:\Users\stapi\AppData\Local\Temp\ccjZAqnI.s:2933   .text.IOT_OTA_ReportProgress:000000000000015c .LVL360
C:\Users\stapi\AppData\Local\Temp\ccjZAqnI.s:2944   .text.IOT_OTA_ReportProgress:0000000000000168 .LVL361
C:\Users\stapi\AppData\Local\Temp\ccjZAqnI.s:2954   .text.IOT_OTA_ReportProgress:0000000000000176 .LVL362
C:\Users\stapi\AppData\Local\Temp\ccjZAqnI.s:2965   .text.IOT_OTA_ReportProgress:000000000000018a .LVL364
C:\Users\stapi\AppData\Local\Temp\ccjZAqnI.s:14929  .debug_str:00000000000003d3 .LASF157
C:\Users\stapi\AppData\Local\Temp\ccjZAqnI.s:2457   .text.iotx_req_image:0000000000000000 .LFB38
C:\Users\stapi\AppData\Local\Temp\ccjZAqnI.s:2713   .text.iotx_req_image:00000000000001b4 .LFE38
C:\Users\stapi\AppData\Local\Temp\ccjZAqnI.s:13177  .debug_loc:0000000000000a16 .LLST65
C:\Users\stapi\AppData\Local\Temp\ccjZAqnI.s:13199  .debug_loc:0000000000000a4d .LLST66
C:\Users\stapi\AppData\Local\Temp\ccjZAqnI.s:13235  .debug_loc:0000000000000aa0 .LLST67
C:\Users\stapi\AppData\Local\Temp\ccjZAqnI.s:13252  .debug_loc:0000000000000acb .LLST68
C:\Users\stapi\AppData\Local\Temp\ccjZAqnI.s:14965  .debug_str:000000000000050b .LASF158
C:\Users\stapi\AppData\Local\Temp\ccjZAqnI.s:13283  .debug_loc:0000000000000b12 .LLST69
C:\Users\stapi\AppData\Local\Temp\ccjZAqnI.s:13302  .debug_loc:0000000000000b46 .LLST70
C:\Users\stapi\AppData\Local\Temp\ccjZAqnI.s:2484   .text.iotx_req_image:000000000000001e .LVL289
C:\Users\stapi\AppData\Local\Temp\ccjZAqnI.s:2489   .text.iotx_req_image:000000000000002e .LVL290
C:\Users\stapi\AppData\Local\Temp\ccjZAqnI.s:2494   .text.iotx_req_image:000000000000003e .LVL291
C:\Users\stapi\AppData\Local\Temp\ccjZAqnI.s:2518   .text.iotx_req_image:0000000000000056 .LVL294
C:\Users\stapi\AppData\Local\Temp\ccjZAqnI.s:2532   .text.iotx_req_image:000000000000006e .LVL297
C:\Users\stapi\AppData\Local\Temp\ccjZAqnI.s:2537   .text.iotx_req_image:000000000000007e .LVL298
C:\Users\stapi\AppData\Local\Temp\ccjZAqnI.s:2542   .text.iotx_req_image:000000000000008e .LVL299
C:\Users\stapi\AppData\Local\Temp\ccjZAqnI.s:2568   .text.iotx_req_image:00000000000000aa .LVL303
C:\Users\stapi\AppData\Local\Temp\ccjZAqnI.s:2575   .text.iotx_req_image:00000000000000ba .LVL304
C:\Users\stapi\AppData\Local\Temp\ccjZAqnI.s:2580   .text.iotx_req_image:00000000000000ca .LVL305
C:\Users\stapi\AppData\Local\Temp\ccjZAqnI.s:2598   .text.iotx_req_image:00000000000000e4 .LVL308
C:\Users\stapi\AppData\Local\Temp\ccjZAqnI.s:2612   .text.iotx_req_image:00000000000000fe .LVL311
C:\Users\stapi\AppData\Local\Temp\ccjZAqnI.s:2623   .text.iotx_req_image:0000000000000112 .LVL314
C:\Users\stapi\AppData\Local\Temp\ccjZAqnI.s:2628   .text.iotx_req_image:0000000000000122 .LVL315
C:\Users\stapi\AppData\Local\Temp\ccjZAqnI.s:2633   .text.iotx_req_image:0000000000000132 .LVL316
C:\Users\stapi\AppData\Local\Temp\ccjZAqnI.s:2647   .text.iotx_req_image:0000000000000146 .LVL318
C:\Users\stapi\AppData\Local\Temp\ccjZAqnI.s:2658   .text.iotx_req_image:000000000000015a .LVL320
C:\Users\stapi\AppData\Local\Temp\ccjZAqnI.s:2665   .text.iotx_req_image:000000000000016a .LVL321
C:\Users\stapi\AppData\Local\Temp\ccjZAqnI.s:2670   .text.iotx_req_image:000000000000017a .LVL322
C:\Users\stapi\AppData\Local\Temp\ccjZAqnI.s:2686   .text.iotx_req_image:0000000000000188 .LVL325
C:\Users\stapi\AppData\Local\Temp\ccjZAqnI.s:2696   .text.iotx_req_image:0000000000000196 .LVL326
C:\Users\stapi\AppData\Local\Temp\ccjZAqnI.s:2707   .text.iotx_req_image:00000000000001aa .LVL328
C:\Users\stapi\AppData\Local\Temp\ccjZAqnI.s:15097  .debug_str:0000000000000a6f .LASF159
C:\Users\stapi\AppData\Local\Temp\ccjZAqnI.s:2204   .text.IOT_OTA_ReportVersion:0000000000000000 .LFB37
C:\Users\stapi\AppData\Local\Temp\ccjZAqnI.s:2440   .text.IOT_OTA_ReportVersion:0000000000000194 .LFE37
C:\Users\stapi\AppData\Local\Temp\ccjZAqnI.s:13324  .debug_loc:0000000000000b7d .LLST59
C:\Users\stapi\AppData\Local\Temp\ccjZAqnI.s:13346  .debug_loc:0000000000000bb4 .LLST60
C:\Users\stapi\AppData\Local\Temp\ccjZAqnI.s:13382  .debug_loc:0000000000000c07 .LLST61
C:\Users\stapi\AppData\Local\Temp\ccjZAqnI.s:13399  .debug_loc:0000000000000c32 .LLST62
C:\Users\stapi\AppData\Local\Temp\ccjZAqnI.s:13424  .debug_loc:0000000000000c6c .LLST63
C:\Users\stapi\AppData\Local\Temp\ccjZAqnI.s:13443  .debug_loc:0000000000000ca0 .LLST64
C:\Users\stapi\AppData\Local\Temp\ccjZAqnI.s:2231   .text.IOT_OTA_ReportVersion:000000000000001e .LVL249
C:\Users\stapi\AppData\Local\Temp\ccjZAqnI.s:2236   .text.IOT_OTA_ReportVersion:000000000000002e .LVL250
C:\Users\stapi\AppData\Local\Temp\ccjZAqnI.s:2241   .text.IOT_OTA_ReportVersion:000000000000003e .LVL251
C:\Users\stapi\AppData\Local\Temp\ccjZAqnI.s:2265   .text.IOT_OTA_ReportVersion:0000000000000056 .LVL254
C:\Users\stapi\AppData\Local\Temp\ccjZAqnI.s:2279   .text.IOT_OTA_ReportVersion:000000000000006e .LVL257
C:\Users\stapi\AppData\Local\Temp\ccjZAqnI.s:2284   .text.IOT_OTA_ReportVersion:000000000000007e .LVL258
C:\Users\stapi\AppData\Local\Temp\ccjZAqnI.s:2289   .text.IOT_OTA_ReportVersion:000000000000008e .LVL259
C:\Users\stapi\AppData\Local\Temp\ccjZAqnI.s:2314   .text.IOT_OTA_ReportVersion:00000000000000aa .LVL263
C:\Users\stapi\AppData\Local\Temp\ccjZAqnI.s:2319   .text.IOT_OTA_ReportVersion:00000000000000ba .LVL264
C:\Users\stapi\AppData\Local\Temp\ccjZAqnI.s:2324   .text.IOT_OTA_ReportVersion:00000000000000ca .LVL265
C:\Users\stapi\AppData\Local\Temp\ccjZAqnI.s:2339   .text.IOT_OTA_ReportVersion:00000000000000de .LVL268
C:\Users\stapi\AppData\Local\Temp\ccjZAqnI.s:2350   .text.IOT_OTA_ReportVersion:00000000000000f2 .LVL271
C:\Users\stapi\AppData\Local\Temp\ccjZAqnI.s:2355   .text.IOT_OTA_ReportVersion:0000000000000102 .LVL272
C:\Users\stapi\AppData\Local\Temp\ccjZAqnI.s:2360   .text.IOT_OTA_ReportVersion:0000000000000112 .LVL273
C:\Users\stapi\AppData\Local\Temp\ccjZAqnI.s:2374   .text.IOT_OTA_ReportVersion:0000000000000126 .LVL275
C:\Users\stapi\AppData\Local\Temp\ccjZAqnI.s:2385   .text.IOT_OTA_ReportVersion:000000000000013a .LVL277
C:\Users\stapi\AppData\Local\Temp\ccjZAqnI.s:2392   .text.IOT_OTA_ReportVersion:000000000000014a .LVL278
C:\Users\stapi\AppData\Local\Temp\ccjZAqnI.s:2397   .text.IOT_OTA_ReportVersion:000000000000015a .LVL279
C:\Users\stapi\AppData\Local\Temp\ccjZAqnI.s:2413   .text.IOT_OTA_ReportVersion:0000000000000168 .LVL282
C:\Users\stapi\AppData\Local\Temp\ccjZAqnI.s:2423   .text.IOT_OTA_ReportVersion:0000000000000176 .LVL283
C:\Users\stapi\AppData\Local\Temp\ccjZAqnI.s:2434   .text.IOT_OTA_ReportVersion:000000000000018a .LVL285
C:\Users\stapi\AppData\Local\Temp\ccjZAqnI.s:15061  .debug_str:000000000000095a .LASF160
C:\Users\stapi\AppData\Local\Temp\ccjZAqnI.s:1992   .text.IOT_OTA_Deinit:0000000000000000 .LFB36
C:\Users\stapi\AppData\Local\Temp\ccjZAqnI.s:2181   .text.IOT_OTA_Deinit:000000000000011c .LFE36
C:\Users\stapi\AppData\Local\Temp\ccjZAqnI.s:13465  .debug_loc:0000000000000cd7 .LLST57
C:\Users\stapi\AppData\Local\Temp\ccjZAqnI.s:13487  .debug_loc:0000000000000d0e .LLST58
C:\Users\stapi\AppData\Local\Temp\ccjZAqnI.s:2011   .text.IOT_OTA_Deinit:000000000000001a .LVL226
C:\Users\stapi\AppData\Local\Temp\ccjZAqnI.s:2016   .text.IOT_OTA_Deinit:000000000000002a .LVL227
C:\Users\stapi\AppData\Local\Temp\ccjZAqnI.s:2021   .text.IOT_OTA_Deinit:000000000000003a .LVL228
C:\Users\stapi\AppData\Local\Temp\ccjZAqnI.s:2048   .text.IOT_OTA_Deinit:000000000000005a .LVL231
C:\Users\stapi\AppData\Local\Temp\ccjZAqnI.s:2053   .text.IOT_OTA_Deinit:000000000000006a .LVL232
C:\Users\stapi\AppData\Local\Temp\ccjZAqnI.s:2058   .text.IOT_OTA_Deinit:000000000000007a .LVL233
C:\Users\stapi\AppData\Local\Temp\ccjZAqnI.s:2080   .text.IOT_OTA_Deinit:0000000000000096 .LVL234
C:\Users\stapi\AppData\Local\Temp\ccjZAqnI.s:2089   .text.IOT_OTA_Deinit:00000000000000a2 .LVL235
C:\Users\stapi\AppData\Local\Temp\ccjZAqnI.s:2098   .text.IOT_OTA_Deinit:00000000000000ae .LVL236
C:\Users\stapi\AppData\Local\Temp\ccjZAqnI.s:2107   .text.IOT_OTA_Deinit:00000000000000ba .LVL237
C:\Users\stapi\AppData\Local\Temp\ccjZAqnI.s:2116   .text.IOT_OTA_Deinit:00000000000000c6 .LVL238
C:\Users\stapi\AppData\Local\Temp\ccjZAqnI.s:2125   .text.IOT_OTA_Deinit:00000000000000d2 .LVL239
C:\Users\stapi\AppData\Local\Temp\ccjZAqnI.s:2134   .text.IOT_OTA_Deinit:00000000000000de .LVL240
C:\Users\stapi\AppData\Local\Temp\ccjZAqnI.s:2143   .text.IOT_OTA_Deinit:00000000000000ea .LVL241
C:\Users\stapi\AppData\Local\Temp\ccjZAqnI.s:2152   .text.IOT_OTA_Deinit:00000000000000f6 .LVL242
C:\Users\stapi\AppData\Local\Temp\ccjZAqnI.s:2161   .text.IOT_OTA_Deinit:0000000000000102 .LVL243
C:\Users\stapi\AppData\Local\Temp\ccjZAqnI.s:2170   .text.IOT_OTA_Deinit:000000000000010e .LVL244
C:\Users\stapi\AppData\Local\Temp\ccjZAqnI.s:2175   .text.IOT_OTA_Deinit:0000000000000118 .LVL245
C:\Users\stapi\AppData\Local\Temp\ccjZAqnI.s:15037  .debug_str:0000000000000894 .LASF161
C:\Users\stapi\AppData\Local\Temp\ccjZAqnI.s:1725   .text.IOT_OTA_Init:0000000000000000 .LFB35
C:\Users\stapi\AppData\Local\Temp\ccjZAqnI.s:1978   .text.IOT_OTA_Init:00000000000001a6 .LFE35
C:\Users\stapi\AppData\Local\Temp\ccjZAqnI.s:13509  .debug_loc:0000000000000d45 .LLST53
C:\Users\stapi\AppData\Local\Temp\ccjZAqnI.s:13550  .debug_loc:0000000000000dab .LLST54
C:\Users\stapi\AppData\Local\Temp\ccjZAqnI.s:13590  .debug_loc:0000000000000e09 .LLST55
C:\Users\stapi\AppData\Local\Temp\ccjZAqnI.s:13634  .debug_loc:0000000000000e72 .LLST56
C:\Users\stapi\AppData\Local\Temp\ccjZAqnI.s:1877   .text.IOT_OTA_Init:0000000000000102 .L169
C:\Users\stapi\AppData\Local\Temp\ccjZAqnI.s:1754   .text.IOT_OTA_Init:000000000000002a .LVL195
C:\Users\stapi\AppData\Local\Temp\ccjZAqnI.s:1761   .text.IOT_OTA_Init:000000000000003a .LVL196
C:\Users\stapi\AppData\Local\Temp\ccjZAqnI.s:1766   .text.IOT_OTA_Init:000000000000004a .LVL197
C:\Users\stapi\AppData\Local\Temp\ccjZAqnI.s:1790   .text.IOT_OTA_Init:0000000000000066 .LVL200
C:\Users\stapi\AppData\Local\Temp\ccjZAqnI.s:1806   .text.IOT_OTA_Init:0000000000000082 .LVL204
C:\Users\stapi\AppData\Local\Temp\ccjZAqnI.s:1816   .text.IOT_OTA_Init:0000000000000096 .LVL206
C:\Users\stapi\AppData\Local\Temp\ccjZAqnI.s:1821   .text.IOT_OTA_Init:00000000000000a6 .LVL207
C:\Users\stapi\AppData\Local\Temp\ccjZAqnI.s:1826   .text.IOT_OTA_Init:00000000000000b6 .LVL208
C:\Users\stapi\AppData\Local\Temp\ccjZAqnI.s:1849   .text.IOT_OTA_Init:00000000000000ce .LVL210
C:\Users\stapi\AppData\Local\Temp\ccjZAqnI.s:1861   .text.IOT_OTA_Init:00000000000000e6 .LVL211
C:\Users\stapi\AppData\Local\Temp\ccjZAqnI.s:1872   .text.IOT_OTA_Init:00000000000000fa .LVL212
C:\Users\stapi\AppData\Local\Temp\ccjZAqnI.s:1880   .text.IOT_OTA_Init:000000000000010a .LVL213
C:\Users\stapi\AppData\Local\Temp\ccjZAqnI.s:1885   .text.IOT_OTA_Init:000000000000011a .LVL214
C:\Users\stapi\AppData\Local\Temp\ccjZAqnI.s:1895   .text.IOT_OTA_Init:0000000000000126 .LVL215
C:\Users\stapi\AppData\Local\Temp\ccjZAqnI.s:1904   .text.IOT_OTA_Init:0000000000000132 .LVL216
C:\Users\stapi\AppData\Local\Temp\ccjZAqnI.s:1913   .text.IOT_OTA_Init:000000000000013e .LVL217
C:\Users\stapi\AppData\Local\Temp\ccjZAqnI.s:1919   .text.IOT_OTA_Init:0000000000000148 .LVL218
C:\Users\stapi\AppData\Local\Temp\ccjZAqnI.s:1925   .text.IOT_OTA_Init:0000000000000152 .LVL219
C:\Users\stapi\AppData\Local\Temp\ccjZAqnI.s:1936   .text.IOT_OTA_Init:0000000000000166 .LVL220
C:\Users\stapi\AppData\Local\Temp\ccjZAqnI.s:1945   .text.IOT_OTA_Init:0000000000000178 .LVL221
C:\Users\stapi\AppData\Local\Temp\ccjZAqnI.s:1956   .text.IOT_OTA_Init:000000000000018c .LVL222
C:\Users\stapi\AppData\Local\Temp\ccjZAqnI.s:14827  .debug_str:00000000000000ba .LASF162
C:\Users\stapi\AppData\Local\Temp\ccjZAqnI.s:1689   .text.iotx_ota_download:0000000000000000 .LFB34
C:\Users\stapi\AppData\Local\Temp\ccjZAqnI.s:1699   .text.iotx_ota_download:000000000000000a .LFE34
C:\Users\stapi\AppData\Local\Temp\ccjZAqnI.s:14877  .debug_str:0000000000000255 .LASF163
C:\Users\stapi\AppData\Local\Temp\ccjZAqnI.s:13655  .debug_loc:0000000000000ea8 .LLST50
C:\Users\stapi\AppData\Local\Temp\ccjZAqnI.s:13669  .debug_loc:0000000000000ec9 .LLST51
C:\Users\stapi\AppData\Local\Temp\ccjZAqnI.s:13683  .debug_loc:0000000000000eea .LLST52
C:\Users\stapi\AppData\Local\Temp\ccjZAqnI.s:1697   .text.iotx_ota_download:000000000000000a .LVL191
C:\Users\stapi\AppData\Local\Temp\ccjZAqnI.s:14905  .debug_str:0000000000000317 .LASF185
C:\Users\stapi\AppData\Local\Temp\ccjZAqnI.s:470    .text.ota_callback:0000000000000000 .LFB33
C:\Users\stapi\AppData\Local\Temp\ccjZAqnI.s:864    .text.ota_callback:0000000000000292 .LFE33
C:\Users\stapi\AppData\Local\Temp\ccjZAqnI.s:13697  .debug_loc:0000000000000f0b .LLST6
C:\Users\stapi\AppData\Local\Temp\ccjZAqnI.s:13741  .debug_loc:0000000000000f74 .LLST7
C:\Users\stapi\AppData\Local\Temp\ccjZAqnI.s:14909  .debug_str:000000000000032d .LASF164
C:\Users\stapi\AppData\Local\Temp\ccjZAqnI.s:13801  .debug_loc:0000000000001009 .LLST8
C:\Users\stapi\AppData\Local\Temp\ccjZAqnI.s:13861  .debug_loc:000000000000109e .LLST9
C:\Users\stapi\AppData\Local\Temp\ccjZAqnI.s:15201  .debug_str:0000000000000dd6 .LASF165
C:\Users\stapi\AppData\Local\Temp\ccjZAqnI.s:13942  .debug_loc:0000000000001156 .LLST10
C:\Users\stapi\AppData\Local\Temp\ccjZAqnI.s:14945  .debug_str:0000000000000468 .LASF166
C:\Users\stapi\AppData\Local\Temp\ccjZAqnI.s:13973  .debug_loc:00000000000011ab .LLST11
C:\Users\stapi\AppData\Local\Temp\ccjZAqnI.s:501    .text.ota_callback:0000000000000022 .LVL41
C:\Users\stapi\AppData\Local\Temp\ccjZAqnI.s:508    .text.ota_callback:0000000000000032 .LVL42
C:\Users\stapi\AppData\Local\Temp\ccjZAqnI.s:513    .text.ota_callback:0000000000000042 .LVL43
C:\Users\stapi\AppData\Local\Temp\ccjZAqnI.s:572    .text.ota_callback:000000000000008c .LVL54
C:\Users\stapi\AppData\Local\Temp\ccjZAqnI.s:583    .text.ota_callback:000000000000009e .LVL56
C:\Users\stapi\AppData\Local\Temp\ccjZAqnI.s:602    .text.ota_callback:00000000000000c0 .LVL59
C:\Users\stapi\AppData\Local\Temp\ccjZAqnI.s:614    .text.ota_callback:00000000000000dc .LVL61
C:\Users\stapi\AppData\Local\Temp\ccjZAqnI.s:625    .text.ota_callback:00000000000000f4 .LVL62
C:\Users\stapi\AppData\Local\Temp\ccjZAqnI.s:636    .text.ota_callback:0000000000000106 .LVL64
C:\Users\stapi\AppData\Local\Temp\ccjZAqnI.s:651    .text.ota_callback:000000000000012a .LVL66
C:\Users\stapi\AppData\Local\Temp\ccjZAqnI.s:660    .text.ota_callback:000000000000013e .LVL67
C:\Users\stapi\AppData\Local\Temp\ccjZAqnI.s:670    .text.ota_callback:0000000000000152 .LVL68
C:\Users\stapi\AppData\Local\Temp\ccjZAqnI.s:681    .text.ota_callback:0000000000000166 .LVL69
C:\Users\stapi\AppData\Local\Temp\ccjZAqnI.s:711    .text.ota_callback:000000000000018a .LVL70
C:\Users\stapi\AppData\Local\Temp\ccjZAqnI.s:725    .text.ota_callback:00000000000001a2 .LVL74
C:\Users\stapi\AppData\Local\Temp\ccjZAqnI.s:738    .text.ota_callback:00000000000001be .LVL75
C:\Users\stapi\AppData\Local\Temp\ccjZAqnI.s:750    .text.ota_callback:00000000000001d8 .LVL76
C:\Users\stapi\AppData\Local\Temp\ccjZAqnI.s:764    .text.ota_callback:00000000000001fc .LVL77
C:\Users\stapi\AppData\Local\Temp\ccjZAqnI.s:774    .text.ota_callback:0000000000000210 .LVL79
C:\Users\stapi\AppData\Local\Temp\ccjZAqnI.s:805    .text.ota_callback:000000000000023a .LVL83
C:\Users\stapi\AppData\Local\Temp\ccjZAqnI.s:810    .text.ota_callback:0000000000000242 .LVL84
C:\Users\stapi\AppData\Local\Temp\ccjZAqnI.s:820    .text.ota_callback:0000000000000250 .LVL85
C:\Users\stapi\AppData\Local\Temp\ccjZAqnI.s:825    .text.ota_callback:0000000000000258 .LVL86
C:\Users\stapi\AppData\Local\Temp\ccjZAqnI.s:832    .text.ota_callback:0000000000000264 .LVL87
C:\Users\stapi\AppData\Local\Temp\ccjZAqnI.s:861    .text.ota_callback:0000000000000290 .LVL88
C:\Users\stapi\AppData\Local\Temp\ccjZAqnI.s:14815  .debug_str:000000000000005e .LASF167
C:\Users\stapi\AppData\Local\Temp\ccjZAqnI.s:1652   .text.iotx_ota_set_cota_fetch_callback:0000000000000000 .LFB32
C:\Users\stapi\AppData\Local\Temp\ccjZAqnI.s:1682   .text.iotx_ota_set_cota_fetch_callback:0000000000000016 .LFE32
C:\Users\stapi\AppData\Local\Temp\ccjZAqnI.s:14017  .debug_loc:0000000000001214 .LLST48
C:\Users\stapi\AppData\Local\Temp\ccjZAqnI.s:14925  .debug_str:00000000000003be .LASF168
C:\Users\stapi\AppData\Local\Temp\ccjZAqnI.s:14028  .debug_loc:0000000000001232 .LLST49
C:\Users\stapi\AppData\Local\Temp\ccjZAqnI.s:14979  .debug_str:000000000000059f .LASF169
C:\Users\stapi\AppData\Local\Temp\ccjZAqnI.s:1615   .text.iotx_ota_set_fetch_callback:0000000000000000 .LFB31
C:\Users\stapi\AppData\Local\Temp\ccjZAqnI.s:1645   .text.iotx_ota_set_fetch_callback:0000000000000012 .LFE31
C:\Users\stapi\AppData\Local\Temp\ccjZAqnI.s:14039  .debug_loc:0000000000001250 .LLST46
C:\Users\stapi\AppData\Local\Temp\ccjZAqnI.s:14050  .debug_loc:000000000000126e .LLST47
C:\Users\stapi\AppData\Local\Temp\ccjZAqnI.s:14915  .debug_str:0000000000000349 .LASF183
C:\Users\stapi\AppData\Local\Temp\ccjZAqnI.s:14901  .debug_str:00000000000002ff .LASF225
C:\Users\stapi\AppData\Local\Temp\ccjZAqnI.s:15181  .debug_str:0000000000000d2e .LASF170
C:\Users\stapi\AppData\Local\Temp\ccjZAqnI.s:15091  .debug_str:0000000000000a4d .LASF171
C:\Users\stapi\AppData\Local\Temp\ccjZAqnI.s:15069  .debug_str:000000000000099b .LASF172
C:\Users\stapi\AppData\Local\Temp\ccjZAqnI.s:1575   .text.osc_RequestImage:0000000000000000 .LFB28
C:\Users\stapi\AppData\Local\Temp\ccjZAqnI.s:1590   .text.osc_RequestImage:0000000000000014 .LFE28
C:\Users\stapi\AppData\Local\Temp\ccjZAqnI.s:14061  .debug_loc:000000000000128c .LLST41
C:\Users\stapi\AppData\Local\Temp\ccjZAqnI.s:14075  .debug_loc:00000000000012ad .LLST42
C:\Users\stapi\AppData\Local\Temp\ccjZAqnI.s:1588   .text.osc_RequestImage:0000000000000014 .LVL180
C:\Users\stapi\AppData\Local\Temp\ccjZAqnI.s:14935  .debug_str:000000000000040b .LASF173
C:\Users\stapi\AppData\Local\Temp\ccjZAqnI.s:1553   .text.osc_ReportVersion:0000000000000000 .LFB27
C:\Users\stapi\AppData\Local\Temp\ccjZAqnI.s:1568   .text.osc_ReportVersion:0000000000000014 .LFE27
C:\Users\stapi\AppData\Local\Temp\ccjZAqnI.s:14093  .debug_loc:00000000000012d9 .LLST39
C:\Users\stapi\AppData\Local\Temp\ccjZAqnI.s:14107  .debug_loc:00000000000012fa .LLST40
C:\Users\stapi\AppData\Local\Temp\ccjZAqnI.s:1566   .text.osc_ReportVersion:0000000000000014 .LVL177
C:\Users\stapi\AppData\Local\Temp\ccjZAqnI.s:15033  .debug_str:0000000000000878 .LASF174
C:\Users\stapi\AppData\Local\Temp\ccjZAqnI.s:1527   .text.osc_ReportProgress:0000000000000000 .LFB26
C:\Users\stapi\AppData\Local\Temp\ccjZAqnI.s:1542   .text.osc_ReportProgress:0000000000000014 .LFE26
C:\Users\stapi\AppData\Local\Temp\ccjZAqnI.s:14125  .debug_loc:0000000000001326 .LLST37
C:\Users\stapi\AppData\Local\Temp\ccjZAqnI.s:14139  .debug_loc:0000000000001347 .LLST38
C:\Users\stapi\AppData\Local\Temp\ccjZAqnI.s:1540   .text.osc_ReportProgress:0000000000000014 .LVL174
C:\Users\stapi\AppData\Local\Temp\ccjZAqnI.s:15029  .debug_str:0000000000000856 .LASF175
C:\Users\stapi\AppData\Local\Temp\ccjZAqnI.s:1488   .text.osc_Deinit:0000000000000000 .LFB25
C:\Users\stapi\AppData\Local\Temp\ccjZAqnI.s:1516   .text.osc_Deinit:0000000000000020 .LFE25
C:\Users\stapi\AppData\Local\Temp\ccjZAqnI.s:14157  .debug_loc:0000000000001373 .LLST36
C:\Users\stapi\AppData\Local\Temp\ccjZAqnI.s:1501   .text.osc_Deinit:0000000000000012 .LVL169
C:\Users\stapi\AppData\Local\Temp\ccjZAqnI.s:15251  .debug_str:0000000000001061 .LASF176
C:\Users\stapi\AppData\Local\Temp\ccjZAqnI.s:1191   .text.osc_Init:0000000000000000 .LFB24
C:\Users\stapi\AppData\Local\Temp\ccjZAqnI.s:1481   .text.osc_Init:00000000000001f6 .LFE24
C:\Users\stapi\AppData\Local\Temp\ccjZAqnI.s:14182  .debug_loc:00000000000013ad .LLST29
C:\Users\stapi\AppData\Local\Temp\ccjZAqnI.s:14193  .debug_loc:00000000000013cb .LLST30
C:\Users\stapi\AppData\Local\Temp\ccjZAqnI.s:14204  .debug_loc:00000000000013e9 .LLST31
C:\Users\stapi\AppData\Local\Temp\ccjZAqnI.s:14215  .debug_loc:0000000000001407 .LLST32
C:\Users\stapi\AppData\Local\Temp\ccjZAqnI.s:14226  .debug_loc:0000000000001425 .LLST33
C:\Users\stapi\AppData\Local\Temp\ccjZAqnI.s:14237  .debug_loc:0000000000001443 .LLST34
C:\Users\stapi\AppData\Local\Temp\ccjZAqnI.s:15087  .debug_str:0000000000000a30 .LASF177
C:\Users\stapi\AppData\Local\Temp\ccjZAqnI.s:14288  .debug_loc:00000000000014cf .LLST35
C:\Users\stapi\AppData\Local\Temp\ccjZAqnI.s:1297   .text.osc_Init:00000000000000a4 .L127
C:\Users\stapi\AppData\Local\Temp\ccjZAqnI.s:1226   .text.osc_Init:0000000000000022 .LVL130
C:\Users\stapi\AppData\Local\Temp\ccjZAqnI.s:1236   .text.osc_Init:0000000000000036 .LVL132
C:\Users\stapi\AppData\Local\Temp\ccjZAqnI.s:1241   .text.osc_Init:0000000000000046 .LVL133
C:\Users\stapi\AppData\Local\Temp\ccjZAqnI.s:1246   .text.osc_Init:0000000000000056 .LVL134
C:\Users\stapi\AppData\Local\Temp\ccjZAqnI.s:1271   .text.osc_Init:000000000000006e .LVL136
C:\Users\stapi\AppData\Local\Temp\ccjZAqnI.s:1282   .text.osc_Init:0000000000000088 .LVL137
C:\Users\stapi\AppData\Local\Temp\ccjZAqnI.s:1292   .text.osc_Init:000000000000009c .LVL139
C:\Users\stapi\AppData\Local\Temp\ccjZAqnI.s:1300   .text.osc_Init:00000000000000ac .LVL140
C:\Users\stapi\AppData\Local\Temp\ccjZAqnI.s:1305   .text.osc_Init:00000000000000bc .LVL141
C:\Users\stapi\AppData\Local\Temp\ccjZAqnI.s:1312   .text.osc_Init:00000000000000c6 .LVL142
C:\Users\stapi\AppData\Local\Temp\ccjZAqnI.s:1330   .text.osc_Init:00000000000000e2 .LVL146
C:\Users\stapi\AppData\Local\Temp\ccjZAqnI.s:1341   .text.osc_Init:00000000000000f6 .LVL148
C:\Users\stapi\AppData\Local\Temp\ccjZAqnI.s:1359   .text.osc_Init:000000000000011a .LVL151
C:\Users\stapi\AppData\Local\Temp\ccjZAqnI.s:1369   .text.osc_Init:000000000000012e .LVL153
C:\Users\stapi\AppData\Local\Temp\ccjZAqnI.s:1385   .text.osc_Init:000000000000014c .LVL156
C:\Users\stapi\AppData\Local\Temp\ccjZAqnI.s:1401   .text.osc_Init:000000000000016e .LVL158
C:\Users\stapi\AppData\Local\Temp\ccjZAqnI.s:1412   .text.osc_Init:0000000000000182 .LVL160
C:\Users\stapi\AppData\Local\Temp\ccjZAqnI.s:1428   .text.osc_Init:00000000000001a0 .LVL163
C:\Users\stapi\AppData\Local\Temp\ccjZAqnI.s:1444   .text.osc_Init:00000000000001c2 .LVL165
C:\Users\stapi\AppData\Local\Temp\ccjZAqnI.s:1457   .text.osc_Init:00000000000001da .LVL167
C:\Users\stapi\AppData\Local\Temp\ccjZAqnI.s:15183  .debug_str:0000000000000d39 .LASF226
C:\Users\stapi\AppData\Local\Temp\ccjZAqnI.s:83     .text.otamqtt_UpgrageCb:0000000000000000 .LFB23
C:\Users\stapi\AppData\Local\Temp\ccjZAqnI.s:424    .text.otamqtt_UpgrageCb:00000000000002c4 .LFE23
C:\Users\stapi\AppData\Local\Temp\ccjZAqnI.s:14308  .debug_loc:0000000000001504 .LLST0
C:\Users\stapi\AppData\Local\Temp\ccjZAqnI.s:15161  .debug_str:0000000000000c6f .LASF178
C:\Users\stapi\AppData\Local\Temp\ccjZAqnI.s:14319  .debug_loc:0000000000001522 .LLST1
C:\Users\stapi\AppData\Local\Temp\ccjZAqnI.s:14333  .debug_loc:0000000000001543 .LLST2
C:\Users\stapi\AppData\Local\Temp\ccjZAqnI.s:14351  .debug_loc:000000000000156f .LLST3
C:\Users\stapi\AppData\Local\Temp\ccjZAqnI.s:14362  .debug_loc:000000000000158d .LLST4
C:\Users\stapi\AppData\Local\Temp\ccjZAqnI.s:15115  .debug_str:0000000000000ae8 .LASF180
C:\Users\stapi\AppData\Local\Temp\ccjZAqnI.s:320    .text.otamqtt_UpgrageCb:00000000000001f0 .LBB6
C:\Users\stapi\AppData\Local\Temp\ccjZAqnI.s:420    .text.otamqtt_UpgrageCb:00000000000002c2 .LBE6
C:\Users\stapi\AppData\Local\Temp\ccjZAqnI.s:14373  .debug_loc:00000000000015ab .LLST5
C:\Users\stapi\AppData\Local\Temp\ccjZAqnI.s:15067  .debug_str:0000000000000993 .LASF181
C:\Users\stapi\AppData\Local\Temp\ccjZAqnI.s:14963  .debug_str:00000000000004fe .LASF182
C:\Users\stapi\AppData\Local\Temp\ccjZAqnI.s:330    .text.otamqtt_UpgrageCb:0000000000000202 .LVL25
C:\Users\stapi\AppData\Local\Temp\ccjZAqnI.s:338    .text.otamqtt_UpgrageCb:0000000000000214 .LVL26
C:\Users\stapi\AppData\Local\Temp\ccjZAqnI.s:354    .text.otamqtt_UpgrageCb:0000000000000234 .LVL27
C:\Users\stapi\AppData\Local\Temp\ccjZAqnI.s:368    .text.otamqtt_UpgrageCb:0000000000000250 .LVL30
C:\Users\stapi\AppData\Local\Temp\ccjZAqnI.s:379    .text.otamqtt_UpgrageCb:000000000000026e .LVL32
C:\Users\stapi\AppData\Local\Temp\ccjZAqnI.s:391    .text.otamqtt_UpgrageCb:000000000000027e .LVL33
C:\Users\stapi\AppData\Local\Temp\ccjZAqnI.s:400    .text.otamqtt_UpgrageCb:000000000000028e .LVL34
C:\Users\stapi\AppData\Local\Temp\ccjZAqnI.s:408    .text.otamqtt_UpgrageCb:00000000000002a2 .LVL35
C:\Users\stapi\AppData\Local\Temp\ccjZAqnI.s:413    .text.otamqtt_UpgrageCb:00000000000002b2 .LVL36
C:\Users\stapi\AppData\Local\Temp\ccjZAqnI.s:418    .text.otamqtt_UpgrageCb:00000000000002c2 .LVL37
C:\Users\stapi\AppData\Local\Temp\ccjZAqnI.s:125    .text.otamqtt_UpgrageCb:000000000000003e .LVL5
C:\Users\stapi\AppData\Local\Temp\ccjZAqnI.s:137    .text.otamqtt_UpgrageCb:0000000000000066 .LVL6
C:\Users\stapi\AppData\Local\Temp\ccjZAqnI.s:154    .text.otamqtt_UpgrageCb:000000000000009c .LVL7
C:\Users\stapi\AppData\Local\Temp\ccjZAqnI.s:165    .text.otamqtt_UpgrageCb:00000000000000b2 .LVL9
C:\Users\stapi\AppData\Local\Temp\ccjZAqnI.s:176    .text.otamqtt_UpgrageCb:00000000000000d2 .LVL10
C:\Users\stapi\AppData\Local\Temp\ccjZAqnI.s:183    .text.otamqtt_UpgrageCb:00000000000000e4 .LVL11
C:\Users\stapi\AppData\Local\Temp\ccjZAqnI.s:191    .text.otamqtt_UpgrageCb:00000000000000f6 .LVL12
C:\Users\stapi\AppData\Local\Temp\ccjZAqnI.s:196    .text.otamqtt_UpgrageCb:0000000000000106 .LVL13
C:\Users\stapi\AppData\Local\Temp\ccjZAqnI.s:201    .text.otamqtt_UpgrageCb:0000000000000116 .LVL14
C:\Users\stapi\AppData\Local\Temp\ccjZAqnI.s:233    .text.otamqtt_UpgrageCb:000000000000013a .LVL17
C:\Users\stapi\AppData\Local\Temp\ccjZAqnI.s:244    .text.otamqtt_UpgrageCb:000000000000015a .LVL18
C:\Users\stapi\AppData\Local\Temp\ccjZAqnI.s:266    .text.otamqtt_UpgrageCb:0000000000000180 .LVL20
C:\Users\stapi\AppData\Local\Temp\ccjZAqnI.s:277    .text.otamqtt_UpgrageCb:00000000000001a0 .LVL21
C:\Users\stapi\AppData\Local\Temp\ccjZAqnI.s:293    .text.otamqtt_UpgrageCb:00000000000001bc .LVL22
C:\Users\stapi\AppData\Local\Temp\ccjZAqnI.s:304    .text.otamqtt_UpgrageCb:00000000000001dc .LVL23
C:\Users\stapi\AppData\Local\Temp\ccjZAqnI.s:317    .text.otamqtt_UpgrageCb:00000000000001ee .LVL24
C:\Users\stapi\AppData\Local\Temp\ccjZAqnI.s:14917  .debug_str:000000000000035c .LASF184
C:\Users\stapi\AppData\Local\Temp\ccjZAqnI.s:14959  .debug_str:00000000000004d4 .LASF186
C:\Users\stapi\AppData\Local\Temp\ccjZAqnI.s:979    .text.otamqtt_Publish:0000000000000000 .LFB21
C:\Users\stapi\AppData\Local\Temp\ccjZAqnI.s:1104   .text.otamqtt_Publish:00000000000000c6 .LFE21
C:\Users\stapi\AppData\Local\Temp\ccjZAqnI.s:14384  .debug_loc:00000000000015c9 .LLST22
C:\Users\stapi\AppData\Local\Temp\ccjZAqnI.s:14879  .debug_str:000000000000025e .LASF187
C:\Users\stapi\AppData\Local\Temp\ccjZAqnI.s:14395  .debug_loc:00000000000015e7 .LLST23
C:\Users\stapi\AppData\Local\Temp\ccjZAqnI.s:14417  .debug_loc:0000000000001621 .LLST24
C:\Users\stapi\AppData\Local\Temp\ccjZAqnI.s:14431  .debug_loc:0000000000001642 .LLST25
C:\Users\stapi\AppData\Local\Temp\ccjZAqnI.s:14445  .debug_loc:0000000000001663 .LLST26
C:\Users\stapi\AppData\Local\Temp\ccjZAqnI.s:1018   .text.otamqtt_Publish:000000000000002a .LVL105
C:\Users\stapi\AppData\Local\Temp\ccjZAqnI.s:1029   .text.otamqtt_Publish:000000000000003c .LVL106
C:\Users\stapi\AppData\Local\Temp\ccjZAqnI.s:1039   .text.otamqtt_Publish:0000000000000050 .LVL108
C:\Users\stapi\AppData\Local\Temp\ccjZAqnI.s:1044   .text.otamqtt_Publish:0000000000000060 .LVL109
C:\Users\stapi\AppData\Local\Temp\ccjZAqnI.s:1049   .text.otamqtt_Publish:0000000000000070 .LVL110
C:\Users\stapi\AppData\Local\Temp\ccjZAqnI.s:1075   .text.otamqtt_Publish:000000000000008c .LVL114
C:\Users\stapi\AppData\Local\Temp\ccjZAqnI.s:1087   .text.otamqtt_Publish:00000000000000a2 .LVL116
C:\Users\stapi\AppData\Local\Temp\ccjZAqnI.s:1092   .text.otamqtt_Publish:00000000000000b2 .LVL117
C:\Users\stapi\AppData\Local\Temp\ccjZAqnI.s:1097   .text.otamqtt_Publish:00000000000000c2 .LVL118
C:\Users\stapi\AppData\Local\Temp\ccjZAqnI.s:14971  .debug_str:0000000000000542 .LASF188
C:\Users\stapi\AppData\Local\Temp\ccjZAqnI.s:15239  .debug_str:0000000000000fef .LASF189
C:\Users\stapi\AppData\Local\Temp\ccjZAqnI.s:880    .text.otamqtt_GenTopicName.constprop.0:0000000000000000 .LFB48
C:\Users\stapi\AppData\Local\Temp\ccjZAqnI.s:969    .text.otamqtt_GenTopicName.constprop.0:000000000000009a .LFE48
C:\Users\stapi\AppData\Local\Temp\ccjZAqnI.s:14460  .debug_loc:000000000000168c .LLST12
C:\Users\stapi\AppData\Local\Temp\ccjZAqnI.s:14474  .debug_loc:00000000000016ad .LLST13
C:\Users\stapi\AppData\Local\Temp\ccjZAqnI.s:14492  .debug_loc:00000000000016d9 .LLST14
C:\Users\stapi\AppData\Local\Temp\ccjZAqnI.s:14510  .debug_loc:0000000000001705 .LLST15
C:\Users\stapi\AppData\Local\Temp\ccjZAqnI.s:14528  .debug_loc:0000000000001731 .LLST16
C:\Users\stapi\AppData\Local\Temp\ccjZAqnI.s:943    .text.otamqtt_GenTopicName.constprop.0:0000000000000066 .LBB9
C:\Users\stapi\AppData\Local\Temp\ccjZAqnI.s:967    .text.otamqtt_GenTopicName.constprop.0:000000000000009a .LBE9
C:\Users\stapi\AppData\Local\Temp\ccjZAqnI.s:14543  .debug_loc:000000000000175a .LLST17
C:\Users\stapi\AppData\Local\Temp\ccjZAqnI.s:14553  .debug_loc:0000000000001770 .LLST18
C:\Users\stapi\AppData\Local\Temp\ccjZAqnI.s:14562  .debug_loc:0000000000001785 .LLST19
C:\Users\stapi\AppData\Local\Temp\ccjZAqnI.s:14572  .debug_loc:000000000000179b .LLST20
C:\Users\stapi\AppData\Local\Temp\ccjZAqnI.s:14582  .debug_loc:00000000000017b1 .LLST21
C:\Users\stapi\AppData\Local\Temp\ccjZAqnI.s:950    .text.otamqtt_GenTopicName.constprop.0:0000000000000076 .LVL100
C:\Users\stapi\AppData\Local\Temp\ccjZAqnI.s:955    .text.otamqtt_GenTopicName.constprop.0:0000000000000086 .LVL101
C:\Users\stapi\AppData\Local\Temp\ccjZAqnI.s:960    .text.otamqtt_GenTopicName.constprop.0:0000000000000096 .LVL102
C:\Users\stapi\AppData\Local\Temp\ccjZAqnI.s:905    .text.otamqtt_GenTopicName.constprop.0:0000000000000022 .LVL94
C:\Users\stapi\AppData\Local\Temp\ccjZAqnI.s:937    .text.otamqtt_GenTopicName.constprop.0:0000000000000062 .LVL98
C:\Users\stapi\AppData\Local\Temp\ccjZAqnI.s:1110   .text.otamqtt_publish_full_topic.isra.0:0000000000000000 .LFB47
C:\Users\stapi\AppData\Local\Temp\ccjZAqnI.s:1156   .text.otamqtt_publish_full_topic.isra.0:0000000000000052 .LFE47
C:\Users\stapi\AppData\Local\Temp\ccjZAqnI.s:14592  .debug_loc:00000000000017c7 .LLST27
C:\Users\stapi\AppData\Local\Temp\ccjZAqnI.s:14606  .debug_loc:00000000000017e8 .LLST28
C:\Users\stapi\AppData\Local\Temp\ccjZAqnI.s:1121   .text.otamqtt_publish_full_topic.isra.0:0000000000000010 .LVL121
C:\Users\stapi\AppData\Local\Temp\ccjZAqnI.s:1129   .text.otamqtt_publish_full_topic.isra.0:0000000000000024 .LVL122
C:\Users\stapi\AppData\Local\Temp\ccjZAqnI.s:1134   .text.otamqtt_publish_full_topic.isra.0:0000000000000034 .LVL123
C:\Users\stapi\AppData\Local\Temp\ccjZAqnI.s:1139   .text.otamqtt_publish_full_topic.isra.0:0000000000000044 .LVL124
C:\Users\stapi\AppData\Local\Temp\ccjZAqnI.s:1597   .text.osc_RequestConfig:0000000000000000 .LFB29
C:\Users\stapi\AppData\Local\Temp\ccjZAqnI.s:1608   .text.osc_RequestConfig:000000000000000a .LFE29
C:\Users\stapi\AppData\Local\Temp\ccjZAqnI.s:14620  .debug_loc:0000000000001809 .LLST43
C:\Users\stapi\AppData\Local\Temp\ccjZAqnI.s:14634  .debug_loc:000000000000182a .LLST44
C:\Users\stapi\AppData\Local\Temp\ccjZAqnI.s:14648  .debug_loc:000000000000184b .LLST45
C:\Users\stapi\AppData\Local\Temp\ccjZAqnI.s:1606   .text.osc_RequestConfig:000000000000000a .LVL183
C:\Users\stapi\AppData\Local\Temp\ccjZAqnI.s:14845  .debug_str:0000000000000151 .LASF190
C:\Users\stapi\AppData\Local\Temp\ccjZAqnI.s:14967  .debug_str:0000000000000518 .LASF191
C:\Users\stapi\AppData\Local\Temp\ccjZAqnI.s:15215  .debug_str:0000000000000e46 .LASF192
C:\Users\stapi\AppData\Local\Temp\ccjZAqnI.s:15195  .debug_str:0000000000000da2 .LASF193
C:\Users\stapi\AppData\Local\Temp\ccjZAqnI.s:14853  .debug_str:000000000000018e .LASF195
C:\Users\stapi\AppData\Local\Temp\ccjZAqnI.s:14919  .debug_str:0000000000000377 .LASF194
C:\Users\stapi\AppData\Local\Temp\ccjZAqnI.s:15013  .debug_str:00000000000007c3 .LASF196
C:\Users\stapi\AppData\Local\Temp\ccjZAqnI.s:14951  .debug_str:0000000000000493 .LASF197
C:\Users\stapi\AppData\Local\Temp\ccjZAqnI.s:15009  .debug_str:00000000000007ae .LASF198
C:\Users\stapi\AppData\Local\Temp\ccjZAqnI.s:14813  .debug_str:0000000000000057 .LASF199
C:\Users\stapi\AppData\Local\Temp\ccjZAqnI.s:14805  .debug_str:0000000000000013 .LASF200
C:\Users\stapi\AppData\Local\Temp\ccjZAqnI.s:14843  .debug_str:0000000000000149 .LASF201
C:\Users\stapi\AppData\Local\Temp\ccjZAqnI.s:15101  .debug_str:0000000000000a8e .LASF202
C:\Users\stapi\AppData\Local\Temp\ccjZAqnI.s:15165  .debug_str:0000000000000c89 .LASF203
C:\Users\stapi\AppData\Local\Temp\ccjZAqnI.s:15167  .debug_str:0000000000000c93 .LASF204
C:\Users\stapi\AppData\Local\Temp\ccjZAqnI.s:15151  .debug_str:0000000000000c23 .LASF205
C:\Users\stapi\AppData\Local\Temp\ccjZAqnI.s:15241  .debug_str:0000000000000ffe .LASF206
C:\Users\stapi\AppData\Local\Temp\ccjZAqnI.s:15055  .debug_str:000000000000093b .LASF207
C:\Users\stapi\AppData\Local\Temp\ccjZAqnI.s:15085  .debug_str:0000000000000a1f .LASF208
C:\Users\stapi\AppData\Local\Temp\ccjZAqnI.s:14855  .debug_str:000000000000019f .LASF209
C:\Users\stapi\AppData\Local\Temp\ccjZAqnI.s:14861  .debug_str:00000000000001d1 .LASF210
C:\Users\stapi\AppData\Local\Temp\ccjZAqnI.s:14937  .debug_str:000000000000041d .LASF211
C:\Users\stapi\AppData\Local\Temp\ccjZAqnI.s:15171  .debug_str:0000000000000cb6 .LASF212
C:\Users\stapi\AppData\Local\Temp\ccjZAqnI.s:15163  .debug_str:0000000000000c77 .LASF213
C:\Users\stapi\AppData\Local\Temp\ccjZAqnI.s:14817  .debug_str:000000000000007f .LASF214
C:\Users\stapi\AppData\Local\Temp\ccjZAqnI.s:15049  .debug_str:0000000000000902 .LASF215
C:\Users\stapi\AppData\Local\Temp\ccjZAqnI.s:15045  .debug_str:00000000000008d5 .LASF216
C:\Users\stapi\AppData\Local\Temp\ccjZAqnI.s:14801  .debug_str:0000000000000000 .LASF217
C:\Users\stapi\AppData\Local\Temp\ccjZAqnI.s:15031  .debug_str:0000000000000861 .LASF218
C:\Users\stapi\AppData\Local\Temp\ccjZAqnI.s:15135  .debug_str:0000000000000b9d .LASF219
C:\Users\stapi\AppData\Local\Temp\ccjZAqnI.s:14897  .debug_str:00000000000002dc .LASF220
C:\Users\stapi\AppData\Local\Temp\ccjZAqnI.s:14859  .debug_str:00000000000001ca .LASF221
C:\Users\stapi\AppData\Local\Temp\ccjZAqnI.s:4537   .text.IOT_OTA_GetLastError:0000000000000000 .LVL537
C:\Users\stapi\AppData\Local\Temp\ccjZAqnI.s:4549   .text.IOT_OTA_GetLastError:000000000000000e .LVL538
C:\Users\stapi\AppData\Local\Temp\ccjZAqnI.s:4571   .text.IOT_OTA_GetLastError:0000000000000044 .LVL542
C:\Users\stapi\AppData\Local\Temp\ccjZAqnI.s:4576   .text.IOT_OTA_GetLastError:0000000000000046 .LVL543
C:\Users\stapi\AppData\Local\Temp\ccjZAqnI.s:3828   .text.IOT_OTA_Ioctl:0000000000000000 .LVL458
C:\Users\stapi\AppData\Local\Temp\ccjZAqnI.s:3853   .text.IOT_OTA_Ioctl:0000000000000018 .LVL460
C:\Users\stapi\AppData\Local\Temp\ccjZAqnI.s:3883   .text.IOT_OTA_Ioctl:0000000000000052 .LVL464
C:\Users\stapi\AppData\Local\Temp\ccjZAqnI.s:3894   .text.IOT_OTA_Ioctl:000000000000005c .LVL465
C:\Users\stapi\AppData\Local\Temp\ccjZAqnI.s:4032   .text.IOT_OTA_Ioctl:0000000000000112 .LVL483
C:\Users\stapi\AppData\Local\Temp\ccjZAqnI.s:4355   .text.IOT_OTA_Ioctl:00000000000002e8 .LVL517
C:\Users\stapi\AppData\Local\Temp\ccjZAqnI.s:4383   .text.IOT_OTA_Ioctl:0000000000000330 .LVL521
C:\Users\stapi\AppData\Local\Temp\ccjZAqnI.s:3910   .text.IOT_OTA_Ioctl:0000000000000076 .LVL466
C:\Users\stapi\AppData\Local\Temp\ccjZAqnI.s:4514   .text.IOT_OTA_Ioctl:000000000000044a .LVL535
C:\Users\stapi\AppData\Local\Temp\ccjZAqnI.s:4288   .text.IOT_OTA_Ioctl:000000000000027e .LVL510
C:\Users\stapi\AppData\Local\Temp\ccjZAqnI.s:4297   .text.IOT_OTA_Ioctl:000000000000028c .LVL512
C:\Users\stapi\AppData\Local\Temp\ccjZAqnI.s:3966   .text.IOT_OTA_Ioctl:00000000000000b4 .LVL472
C:\Users\stapi\AppData\Local\Temp\ccjZAqnI.s:3983   .text.IOT_OTA_Ioctl:00000000000000d0 .LVL475
C:\Users\stapi\AppData\Local\Temp\ccjZAqnI.s:4078   .text.IOT_OTA_Ioctl:0000000000000148 .LVL487
C:\Users\stapi\AppData\Local\Temp\ccjZAqnI.s:4096   .text.IOT_OTA_Ioctl:0000000000000168 .LVL490
C:\Users\stapi\AppData\Local\Temp\ccjZAqnI.s:4124   .text.IOT_OTA_Ioctl:000000000000018c .LVL493
C:\Users\stapi\AppData\Local\Temp\ccjZAqnI.s:4142   .text.IOT_OTA_Ioctl:00000000000001ac .LVL496
C:\Users\stapi\AppData\Local\Temp\ccjZAqnI.s:4170   .text.IOT_OTA_Ioctl:00000000000001d4 .LVL499
C:\Users\stapi\AppData\Local\Temp\ccjZAqnI.s:4188   .text.IOT_OTA_Ioctl:00000000000001f6 .LVL502
C:\Users\stapi\AppData\Local\Temp\ccjZAqnI.s:4216   .text.IOT_OTA_Ioctl:000000000000021e .LVL505
C:\Users\stapi\AppData\Local\Temp\ccjZAqnI.s:4234   .text.IOT_OTA_Ioctl:0000000000000240 .LVL508
C:\Users\stapi\AppData\Local\Temp\ccjZAqnI.s:4282   .text.IOT_OTA_Ioctl:000000000000027a .LVL509
C:\Users\stapi\AppData\Local\Temp\ccjZAqnI.s:4345   .text.IOT_OTA_Ioctl:00000000000002e0 .LVL516
C:\Users\stapi\AppData\Local\Temp\ccjZAqnI.s:4412   .text.IOT_OTA_Ioctl:0000000000000362 .LVL523
C:\Users\stapi\AppData\Local\Temp\ccjZAqnI.s:4506   .text.IOT_OTA_Ioctl:0000000000000444 .LVL534
C:\Users\stapi\AppData\Local\Temp\ccjZAqnI.s:3836   .text.IOT_OTA_Ioctl:0000000000000008 .LVL459
C:\Users\stapi\AppData\Local\Temp\ccjZAqnI.s:3935   .text.IOT_OTA_Ioctl:000000000000007a .LVL467
C:\Users\stapi\AppData\Local\Temp\ccjZAqnI.s:3944   .text.IOT_OTA_Ioctl:0000000000000082 .LVL468
C:\Users\stapi\AppData\Local\Temp\ccjZAqnI.s:3986   .text.IOT_OTA_Ioctl:00000000000000d2 .LVL476
C:\Users\stapi\AppData\Local\Temp\ccjZAqnI.s:3995   .text.IOT_OTA_Ioctl:00000000000000d8 .LVL477
C:\Users\stapi\AppData\Local\Temp\ccjZAqnI.s:4012   .text.IOT_OTA_Ioctl:00000000000000f4 .LVL480
C:\Users\stapi\AppData\Local\Temp\ccjZAqnI.s:4055   .text.IOT_OTA_Ioctl:0000000000000124 .LVL484
C:\Users\stapi\AppData\Local\Temp\ccjZAqnI.s:3486   .text.IOT_OTA_FetchYield:0000000000000000 .LVL428
C:\Users\stapi\AppData\Local\Temp\ccjZAqnI.s:3508   .text.IOT_OTA_FetchYield:0000000000000014 .LVL430
C:\Users\stapi\AppData\Local\Temp\ccjZAqnI.s:3536   .text.IOT_OTA_FetchYield:000000000000004c .LVL434
C:\Users\stapi\AppData\Local\Temp\ccjZAqnI.s:3546   .text.IOT_OTA_FetchYield:0000000000000056 .LVL435
C:\Users\stapi\AppData\Local\Temp\ccjZAqnI.s:3562   .text.IOT_OTA_FetchYield:000000000000006a .LVL437
C:\Users\stapi\AppData\Local\Temp\ccjZAqnI.s:3623   .text.IOT_OTA_FetchYield:00000000000000c6 .LVL442
C:\Users\stapi\AppData\Local\Temp\ccjZAqnI.s:3625   .text.IOT_OTA_FetchYield:00000000000000c8 .LVL443
C:\Users\stapi\AppData\Local\Temp\ccjZAqnI.s:3495   .text.IOT_OTA_FetchYield:0000000000000008 .LVL429
C:\Users\stapi\AppData\Local\Temp\ccjZAqnI.s:3381   .text.IOT_OTA_IsFetchFinish:0000000000000000 .LVL417
C:\Users\stapi\AppData\Local\Temp\ccjZAqnI.s:3394   .text.IOT_OTA_IsFetchFinish:000000000000000e .LVL419
C:\Users\stapi\AppData\Local\Temp\ccjZAqnI.s:3421   .text.IOT_OTA_IsFetchFinish:0000000000000044 .LVL423
C:\Users\stapi\AppData\Local\Temp\ccjZAqnI.s:3430   .text.IOT_OTA_IsFetchFinish:000000000000004a .LVL424
C:\Users\stapi\AppData\Local\Temp\ccjZAqnI.s:3387   .text.IOT_OTA_IsFetchFinish:0000000000000008 .LVL418
C:\Users\stapi\AppData\Local\Temp\ccjZAqnI.s:3292   .text.IOT_OTA_IsFetching:0000000000000000 .LVL406
C:\Users\stapi\AppData\Local\Temp\ccjZAqnI.s:3305   .text.IOT_OTA_IsFetching:000000000000000e .LVL408
C:\Users\stapi\AppData\Local\Temp\ccjZAqnI.s:3332   .text.IOT_OTA_IsFetching:0000000000000044 .LVL412
C:\Users\stapi\AppData\Local\Temp\ccjZAqnI.s:3341   .text.IOT_OTA_IsFetching:000000000000004a .LVL413
C:\Users\stapi\AppData\Local\Temp\ccjZAqnI.s:3298   .text.IOT_OTA_IsFetching:0000000000000008 .LVL407
C:\Users\stapi\AppData\Local\Temp\ccjZAqnI.s:2988   .text.iotx_ota_get_config:0000000000000000 .LVL365
C:\Users\stapi\AppData\Local\Temp\ccjZAqnI.s:3014   .text.iotx_ota_get_config:0000000000000018 .LVL369
C:\Users\stapi\AppData\Local\Temp\ccjZAqnI.s:3052   .text.iotx_ota_get_config:0000000000000062 .LVL374
C:\Users\stapi\AppData\Local\Temp\ccjZAqnI.s:3067   .text.iotx_ota_get_config:000000000000006e .LVL375
C:\Users\stapi\AppData\Local\Temp\ccjZAqnI.s:3103   .text.iotx_ota_get_config:00000000000000a8 .LVL379
C:\Users\stapi\AppData\Local\Temp\ccjZAqnI.s:3105   .text.iotx_ota_get_config:00000000000000aa .LVL380
C:\Users\stapi\AppData\Local\Temp\ccjZAqnI.s:3235   .text.iotx_ota_get_config:0000000000000198 .LVL397
C:\Users\stapi\AppData\Local\Temp\ccjZAqnI.s:3267   .text.iotx_ota_get_config:00000000000001d4 .LVL403
C:\Users\stapi\AppData\Local\Temp\ccjZAqnI.s:3271   .text.iotx_ota_get_config:00000000000001d6 .LVL404
C:\Users\stapi\AppData\Local\Temp\ccjZAqnI.s:3010   .text.iotx_ota_get_config:0000000000000012 .LVL367
C:\Users\stapi\AppData\Local\Temp\ccjZAqnI.s:3195   .text.iotx_ota_get_config:0000000000000170 .LVL391
C:\Users\stapi\AppData\Local\Temp\ccjZAqnI.s:3012   .text.iotx_ota_get_config:0000000000000016 .LVL368
C:\Users\stapi\AppData\Local\Temp\ccjZAqnI.s:2998   .text.iotx_ota_get_config:0000000000000008 .LVL366
C:\Users\stapi\AppData\Local\Temp\ccjZAqnI.s:3249   .text.iotx_ota_get_config:00000000000001a8 .LVL399
C:\Users\stapi\AppData\Local\Temp\ccjZAqnI.s:3221   .text.iotx_ota_get_config:0000000000000190 .LVL394
C:\Users\stapi\AppData\Local\Temp\ccjZAqnI.s:3227   .text.iotx_ota_get_config:0000000000000192 .LVL395
C:\Users\stapi\AppData\Local\Temp\ccjZAqnI.s:3230   .text.iotx_ota_get_config:0000000000000196 .LVL396
C:\Users\stapi\AppData\Local\Temp\ccjZAqnI.s:2736   .text.IOT_OTA_ReportProgress:0000000000000000 .LVL329
C:\Users\stapi\AppData\Local\Temp\ccjZAqnI.s:2756   .text.IOT_OTA_ReportProgress:0000000000000010 .LVL331
C:\Users\stapi\AppData\Local\Temp\ccjZAqnI.s:2787   .text.IOT_OTA_ReportProgress:000000000000004a .LVL336
C:\Users\stapi\AppData\Local\Temp\ccjZAqnI.s:2796   .text.IOT_OTA_ReportProgress:0000000000000050 .LVL337
C:\Users\stapi\AppData\Local\Temp\ccjZAqnI.s:2824   .text.IOT_OTA_ReportProgress:0000000000000088 .LVL341
C:\Users\stapi\AppData\Local\Temp\ccjZAqnI.s:2861   .text.IOT_OTA_ReportProgress:00000000000000ca .LVL347
C:\Users\stapi\AppData\Local\Temp\ccjZAqnI.s:2868   .text.IOT_OTA_ReportProgress:00000000000000d2 .LVL348
C:\Users\stapi\AppData\Local\Temp\ccjZAqnI.s:2838   .text.IOT_OTA_ReportProgress:0000000000000092 .LVL343
C:\Users\stapi\AppData\Local\Temp\ccjZAqnI.s:2744   .text.IOT_OTA_ReportProgress:0000000000000008 .LVL330
C:\Users\stapi\AppData\Local\Temp\ccjZAqnI.s:2774   .text.IOT_OTA_ReportProgress:000000000000003e .LVL335
C:\Users\stapi\AppData\Local\Temp\ccjZAqnI.s:2912   .text.IOT_OTA_ReportProgress:000000000000012a .LVL357
C:\Users\stapi\AppData\Local\Temp\ccjZAqnI.s:2878   .text.IOT_OTA_ReportProgress:00000000000000e4 .LVL350
C:\Users\stapi\AppData\Local\Temp\ccjZAqnI.s:2884   .text.IOT_OTA_ReportProgress:00000000000000ea .LVL351
C:\Users\stapi\AppData\Local\Temp\ccjZAqnI.s:2903   .text.IOT_OTA_ReportProgress:000000000000011a .LVL355
C:\Users\stapi\AppData\Local\Temp\ccjZAqnI.s:2460   .text.iotx_req_image:0000000000000000 .LVL286
C:\Users\stapi\AppData\Local\Temp\ccjZAqnI.s:2481   .text.iotx_req_image:0000000000000012 .LVL288
C:\Users\stapi\AppData\Local\Temp\ccjZAqnI.s:2509   .text.iotx_req_image:000000000000004a .LVL292
C:\Users\stapi\AppData\Local\Temp\ccjZAqnI.s:2516   .text.iotx_req_image:000000000000004e .LVL293
C:\Users\stapi\AppData\Local\Temp\ccjZAqnI.s:2553   .text.iotx_req_image:0000000000000094 .LVL300
C:\Users\stapi\AppData\Local\Temp\ccjZAqnI.s:2555   .text.iotx_req_image:0000000000000096 .LVL301
C:\Users\stapi\AppData\Local\Temp\ccjZAqnI.s:2649   .text.iotx_req_image:0000000000000148 .LVL319
C:\Users\stapi\AppData\Local\Temp\ccjZAqnI.s:2676   .text.iotx_req_image:000000000000017c .LVL323
C:\Users\stapi\AppData\Local\Temp\ccjZAqnI.s:2680   .text.iotx_req_image:000000000000017e .LVL324
C:\Users\stapi\AppData\Local\Temp\ccjZAqnI.s:2522   .text.iotx_req_image:0000000000000058 .LVL295
C:\Users\stapi\AppData\Local\Temp\ccjZAqnI.s:2529   .text.iotx_req_image:0000000000000062 .LVL296
C:\Users\stapi\AppData\Local\Temp\ccjZAqnI.s:2565   .text.iotx_req_image:000000000000009e .LVL302
C:\Users\stapi\AppData\Local\Temp\ccjZAqnI.s:2586   .text.iotx_req_image:00000000000000ce .LVL306
C:\Users\stapi\AppData\Local\Temp\ccjZAqnI.s:2595   .text.iotx_req_image:00000000000000d8 .LVL307
C:\Users\stapi\AppData\Local\Temp\ccjZAqnI.s:2603   .text.iotx_req_image:00000000000000ee .LVL309
C:\Users\stapi\AppData\Local\Temp\ccjZAqnI.s:2610   .text.iotx_req_image:00000000000000f6 .LVL310
C:\Users\stapi\AppData\Local\Temp\ccjZAqnI.s:2614   .text.iotx_req_image:0000000000000100 .LVL312
C:\Users\stapi\AppData\Local\Temp\ccjZAqnI.s:2620   .text.iotx_req_image:0000000000000106 .LVL313
C:\Users\stapi\AppData\Local\Temp\ccjZAqnI.s:2639   .text.iotx_req_image:0000000000000136 .LVL317
C:\Users\stapi\AppData\Local\Temp\ccjZAqnI.s:2470   .text.iotx_req_image:0000000000000008 .LVL287
C:\Users\stapi\AppData\Local\Temp\ccjZAqnI.s:2207   .text.IOT_OTA_ReportVersion:0000000000000000 .LVL246
C:\Users\stapi\AppData\Local\Temp\ccjZAqnI.s:2228   .text.IOT_OTA_ReportVersion:0000000000000012 .LVL248
C:\Users\stapi\AppData\Local\Temp\ccjZAqnI.s:2256   .text.IOT_OTA_ReportVersion:000000000000004a .LVL252
C:\Users\stapi\AppData\Local\Temp\ccjZAqnI.s:2263   .text.IOT_OTA_ReportVersion:000000000000004e .LVL253
C:\Users\stapi\AppData\Local\Temp\ccjZAqnI.s:2300   .text.IOT_OTA_ReportVersion:0000000000000094 .LVL260
C:\Users\stapi\AppData\Local\Temp\ccjZAqnI.s:2302   .text.IOT_OTA_ReportVersion:0000000000000096 .LVL261
C:\Users\stapi\AppData\Local\Temp\ccjZAqnI.s:2376   .text.IOT_OTA_ReportVersion:0000000000000128 .LVL276
C:\Users\stapi\AppData\Local\Temp\ccjZAqnI.s:2403   .text.IOT_OTA_ReportVersion:000000000000015c .LVL280
C:\Users\stapi\AppData\Local\Temp\ccjZAqnI.s:2407   .text.IOT_OTA_ReportVersion:000000000000015e .LVL281
C:\Users\stapi\AppData\Local\Temp\ccjZAqnI.s:2269   .text.IOT_OTA_ReportVersion:0000000000000058 .LVL255
C:\Users\stapi\AppData\Local\Temp\ccjZAqnI.s:2276   .text.IOT_OTA_ReportVersion:0000000000000062 .LVL256
C:\Users\stapi\AppData\Local\Temp\ccjZAqnI.s:2311   .text.IOT_OTA_ReportVersion:000000000000009e .LVL262
C:\Users\stapi\AppData\Local\Temp\ccjZAqnI.s:2330   .text.IOT_OTA_ReportVersion:00000000000000ce .LVL266
C:\Users\stapi\AppData\Local\Temp\ccjZAqnI.s:2337   .text.IOT_OTA_ReportVersion:00000000000000d6 .LVL267
C:\Users\stapi\AppData\Local\Temp\ccjZAqnI.s:2341   .text.IOT_OTA_ReportVersion:00000000000000e0 .LVL269
C:\Users\stapi\AppData\Local\Temp\ccjZAqnI.s:2347   .text.IOT_OTA_ReportVersion:00000000000000e6 .LVL270
C:\Users\stapi\AppData\Local\Temp\ccjZAqnI.s:2366   .text.IOT_OTA_ReportVersion:0000000000000116 .LVL274
C:\Users\stapi\AppData\Local\Temp\ccjZAqnI.s:2217   .text.IOT_OTA_ReportVersion:0000000000000008 .LVL247
C:\Users\stapi\AppData\Local\Temp\ccjZAqnI.s:1995   .text.IOT_OTA_Deinit:0000000000000000 .LVL223
C:\Users\stapi\AppData\Local\Temp\ccjZAqnI.s:2008   .text.IOT_OTA_Deinit:000000000000000e .LVL225
C:\Users\stapi\AppData\Local\Temp\ccjZAqnI.s:2033   .text.IOT_OTA_Deinit:0000000000000044 .LVL229
C:\Users\stapi\AppData\Local\Temp\ccjZAqnI.s:2042   .text.IOT_OTA_Deinit:000000000000004a .LVL230
C:\Users\stapi\AppData\Local\Temp\ccjZAqnI.s:2001   .text.IOT_OTA_Deinit:0000000000000008 .LVL224
C:\Users\stapi\AppData\Local\Temp\ccjZAqnI.s:1728   .text.IOT_OTA_Init:0000000000000000 .LVL192
C:\Users\stapi\AppData\Local\Temp\ccjZAqnI.s:1751   .text.IOT_OTA_Init:000000000000001e .LVL194
C:\Users\stapi\AppData\Local\Temp\ccjZAqnI.s:1774   .text.IOT_OTA_Init:000000000000004e .LVL198
C:\Users\stapi\AppData\Local\Temp\ccjZAqnI.s:1787   .text.IOT_OTA_Init:000000000000005a .LVL199
C:\Users\stapi\AppData\Local\Temp\ccjZAqnI.s:1795   .text.IOT_OTA_Init:0000000000000070 .LVL201
C:\Users\stapi\AppData\Local\Temp\ccjZAqnI.s:1804   .text.IOT_OTA_Init:000000000000007a .LVL203
C:\Users\stapi\AppData\Local\Temp\ccjZAqnI.s:1842   .text.IOT_OTA_Init:00000000000000c0 .LVL209
C:\Users\stapi\AppData\Local\Temp\ccjZAqnI.s:1802   .text.IOT_OTA_Init:0000000000000078 .LVL202
C:\Users\stapi\AppData\Local\Temp\ccjZAqnI.s:1739   .text.IOT_OTA_Init:0000000000000008 .LVL193
C:\Users\stapi\AppData\Local\Temp\ccjZAqnI.s:1808   .text.IOT_OTA_Init:0000000000000084 .LVL205
C:\Users\stapi\AppData\Local\Temp\ccjZAqnI.s:1692   .text.iotx_ota_download:0000000000000000 .LVL190
C:\Users\stapi\AppData\Local\Temp\ccjZAqnI.s:474    .text.ota_callback:0000000000000000 .LVL38
C:\Users\stapi\AppData\Local\Temp\ccjZAqnI.s:498    .text.ota_callback:0000000000000016 .LVL40
C:\Users\stapi\AppData\Local\Temp\ccjZAqnI.s:515    .text.ota_callback:0000000000000044 .LVL44
C:\Users\stapi\AppData\Local\Temp\ccjZAqnI.s:525    .text.ota_callback:0000000000000052 .LVL45
C:\Users\stapi\AppData\Local\Temp\ccjZAqnI.s:532    .text.ota_callback:0000000000000060 .LVL47
C:\Users\stapi\AppData\Local\Temp\ccjZAqnI.s:546    .text.ota_callback:000000000000006c .LVL48
C:\Users\stapi\AppData\Local\Temp\ccjZAqnI.s:552    .text.ota_callback:0000000000000072 .LVL49
C:\Users\stapi\AppData\Local\Temp\ccjZAqnI.s:559    .text.ota_callback:0000000000000076 .LVL50
C:\Users\stapi\AppData\Local\Temp\ccjZAqnI.s:569    .text.ota_callback:0000000000000082 .LVL53
C:\Users\stapi\AppData\Local\Temp\ccjZAqnI.s:713    .text.ota_callback:000000000000018c .LVL71
C:\Users\stapi\AppData\Local\Temp\ccjZAqnI.s:722    .text.ota_callback:0000000000000198 .LVL73
C:\Users\stapi\AppData\Local\Temp\ccjZAqnI.s:779    .text.ota_callback:000000000000021a .LVL80
C:\Users\stapi\AppData\Local\Temp\ccjZAqnI.s:788    .text.ota_callback:0000000000000226 .LVL82
C:\Users\stapi\AppData\Local\Temp\ccjZAqnI.s:564    .text.ota_callback:000000000000007a .LVL51
C:\Users\stapi\AppData\Local\Temp\ccjZAqnI.s:718    .text.ota_callback:0000000000000190 .LVL72
C:\Users\stapi\AppData\Local\Temp\ccjZAqnI.s:784    .text.ota_callback:000000000000021e .LVL81
C:\Users\stapi\AppData\Local\Temp\ccjZAqnI.s:530    .text.ota_callback:000000000000005c .LVL46
C:\Users\stapi\AppData\Local\Temp\ccjZAqnI.s:566    .text.ota_callback:000000000000007c .LVL52
C:\Users\stapi\AppData\Local\Temp\ccjZAqnI.s:766    .text.ota_callback:00000000000001fe .LVL78
C:\Users\stapi\AppData\Local\Temp\ccjZAqnI.s:580    .text.ota_callback:0000000000000092 .LVL55
C:\Users\stapi\AppData\Local\Temp\ccjZAqnI.s:588    .text.ota_callback:00000000000000a8 .LVL57
C:\Users\stapi\AppData\Local\Temp\ccjZAqnI.s:595    .text.ota_callback:00000000000000b0 .LVL58
C:\Users\stapi\AppData\Local\Temp\ccjZAqnI.s:607    .text.ota_callback:00000000000000ca .LVL60
C:\Users\stapi\AppData\Local\Temp\ccjZAqnI.s:633    .text.ota_callback:00000000000000fa .LVL63
C:\Users\stapi\AppData\Local\Temp\ccjZAqnI.s:641    .text.ota_callback:0000000000000110 .LVL65
C:\Users\stapi\AppData\Local\Temp\ccjZAqnI.s:485    .text.ota_callback:0000000000000008 .LVL39
C:\Users\stapi\AppData\Local\Temp\ccjZAqnI.s:1655   .text.iotx_ota_set_cota_fetch_callback:0000000000000000 .LVL187
C:\Users\stapi\AppData\Local\Temp\ccjZAqnI.s:1663   .text.iotx_ota_set_cota_fetch_callback:0000000000000004 .LVL189
C:\Users\stapi\AppData\Local\Temp\ccjZAqnI.s:1659   .text.iotx_ota_set_cota_fetch_callback:0000000000000002 .LVL188
C:\Users\stapi\AppData\Local\Temp\ccjZAqnI.s:1618   .text.iotx_ota_set_fetch_callback:0000000000000000 .LVL184
C:\Users\stapi\AppData\Local\Temp\ccjZAqnI.s:1626   .text.iotx_ota_set_fetch_callback:0000000000000004 .LVL186
C:\Users\stapi\AppData\Local\Temp\ccjZAqnI.s:1622   .text.iotx_ota_set_fetch_callback:0000000000000002 .LVL185
C:\Users\stapi\AppData\Local\Temp\ccjZAqnI.s:1578   .text.osc_RequestImage:0000000000000000 .LVL178
C:\Users\stapi\AppData\Local\Temp\ccjZAqnI.s:1584   .text.osc_RequestImage:0000000000000006 .LVL179
C:\Users\stapi\AppData\Local\Temp\ccjZAqnI.s:1556   .text.osc_ReportVersion:0000000000000000 .LVL175
C:\Users\stapi\AppData\Local\Temp\ccjZAqnI.s:1562   .text.osc_ReportVersion:0000000000000006 .LVL176
C:\Users\stapi\AppData\Local\Temp\ccjZAqnI.s:1530   .text.osc_ReportProgress:0000000000000000 .LVL172
C:\Users\stapi\AppData\Local\Temp\ccjZAqnI.s:1536   .text.osc_ReportProgress:0000000000000006 .LVL173
C:\Users\stapi\AppData\Local\Temp\ccjZAqnI.s:1491   .text.osc_Deinit:0000000000000000 .LVL168
C:\Users\stapi\AppData\Local\Temp\ccjZAqnI.s:1508   .text.osc_Deinit:000000000000001c .LVL170
C:\Users\stapi\AppData\Local\Temp\ccjZAqnI.s:1513   .text.osc_Deinit:000000000000001e .LVL171
C:\Users\stapi\AppData\Local\Temp\ccjZAqnI.s:1194   .text.osc_Init:0000000000000000 .LVL125
C:\Users\stapi\AppData\Local\Temp\ccjZAqnI.s:1220   .text.osc_Init:0000000000000016 .LVL129
C:\Users\stapi\AppData\Local\Temp\ccjZAqnI.s:1216   .text.osc_Init:0000000000000010 .LVL127
C:\Users\stapi\AppData\Local\Temp\ccjZAqnI.s:1218   .text.osc_Init:0000000000000014 .LVL128
C:\Users\stapi\AppData\Local\Temp\ccjZAqnI.s:1289   .text.osc_Init:0000000000000090 .LVL138
C:\Users\stapi\AppData\Local\Temp\ccjZAqnI.s:1318   .text.osc_Init:00000000000000ca .LVL144
C:\Users\stapi\AppData\Local\Temp\ccjZAqnI.s:1328   .text.osc_Init:00000000000000da .LVL145
C:\Users\stapi\AppData\Local\Temp\ccjZAqnI.s:1338   .text.osc_Init:00000000000000ea .LVL147
C:\Users\stapi\AppData\Local\Temp\ccjZAqnI.s:1346   .text.osc_Init:0000000000000100 .LVL149
C:\Users\stapi\AppData\Local\Temp\ccjZAqnI.s:1357   .text.osc_Init:0000000000000112 .LVL150
C:\Users\stapi\AppData\Local\Temp\ccjZAqnI.s:1366   .text.osc_Init:0000000000000122 .LVL152
C:\Users\stapi\AppData\Local\Temp\ccjZAqnI.s:1374   .text.osc_Init:0000000000000138 .LVL154
C:\Users\stapi\AppData\Local\Temp\ccjZAqnI.s:1383   .text.osc_Init:0000000000000144 .LVL155
C:\Users\stapi\AppData\Local\Temp\ccjZAqnI.s:1399   .text.osc_Init:0000000000000166 .LVL157
C:\Users\stapi\AppData\Local\Temp\ccjZAqnI.s:1409   .text.osc_Init:0000000000000176 .LVL159
C:\Users\stapi\AppData\Local\Temp\ccjZAqnI.s:1417   .text.osc_Init:000000000000018c .LVL161
C:\Users\stapi\AppData\Local\Temp\ccjZAqnI.s:1426   .text.osc_Init:0000000000000198 .LVL162
C:\Users\stapi\AppData\Local\Temp\ccjZAqnI.s:1442   .text.osc_Init:00000000000001ba .LVL164
C:\Users\stapi\AppData\Local\Temp\ccjZAqnI.s:1455   .text.osc_Init:00000000000001d2 .LVL166
C:\Users\stapi\AppData\Local\Temp\ccjZAqnI.s:1208   .text.osc_Init:0000000000000008 .LVL126
C:\Users\stapi\AppData\Local\Temp\ccjZAqnI.s:1228   .text.osc_Init:0000000000000024 .LVL131
C:\Users\stapi\AppData\Local\Temp\ccjZAqnI.s:1264   .text.osc_Init:0000000000000060 .LVL135
C:\Users\stapi\AppData\Local\Temp\ccjZAqnI.s:1316   .text.osc_Init:00000000000000c8 .LVL143
C:\Users\stapi\AppData\Local\Temp\ccjZAqnI.s:87     .text.otamqtt_UpgrageCb:0000000000000000 .LVL0
C:\Users\stapi\AppData\Local\Temp\ccjZAqnI.s:123    .text.otamqtt_UpgrageCb:0000000000000036 .LVL4
C:\Users\stapi\AppData\Local\Temp\ccjZAqnI.s:116    .text.otamqtt_UpgrageCb:0000000000000030 .LVL2
C:\Users\stapi\AppData\Local\Temp\ccjZAqnI.s:114    .text.otamqtt_UpgrageCb:000000000000002c .LVL1
C:\Users\stapi\AppData\Local\Temp\ccjZAqnI.s:160    .text.otamqtt_UpgrageCb:00000000000000a0 .LVL8
C:\Users\stapi\AppData\Local\Temp\ccjZAqnI.s:119    .text.otamqtt_UpgrageCb:0000000000000032 .LVL3
C:\Users\stapi\AppData\Local\Temp\ccjZAqnI.s:210    .text.otamqtt_UpgrageCb:000000000000011e .LVL15
C:\Users\stapi\AppData\Local\Temp\ccjZAqnI.s:224    .text.otamqtt_UpgrageCb:0000000000000128 .LVL16
C:\Users\stapi\AppData\Local\Temp\ccjZAqnI.s:371    .text.otamqtt_UpgrageCb:0000000000000252 .LVL31
C:\Users\stapi\AppData\Local\Temp\ccjZAqnI.s:361    .text.otamqtt_UpgrageCb:000000000000023e .LVL28
C:\Users\stapi\AppData\Local\Temp\ccjZAqnI.s:366    .text.otamqtt_UpgrageCb:0000000000000248 .LVL29
C:\Users\stapi\AppData\Local\Temp\ccjZAqnI.s:982    .text.otamqtt_Publish:0000000000000000 .LVL103
C:\Users\stapi\AppData\Local\Temp\ccjZAqnI.s:1003   .text.otamqtt_Publish:0000000000000016 .LVL104
C:\Users\stapi\AppData\Local\Temp\ccjZAqnI.s:1060   .text.otamqtt_Publish:0000000000000076 .LVL111
C:\Users\stapi\AppData\Local\Temp\ccjZAqnI.s:1065   .text.otamqtt_Publish:000000000000007e .LVL112
C:\Users\stapi\AppData\Local\Temp\ccjZAqnI.s:1036   .text.otamqtt_Publish:0000000000000044 .LVL107
C:\Users\stapi\AppData\Local\Temp\ccjZAqnI.s:1071   .text.otamqtt_Publish:0000000000000080 .LVL113
C:\Users\stapi\AppData\Local\Temp\ccjZAqnI.s:1084   .text.otamqtt_Publish:0000000000000096 .LVL115
C:\Users\stapi\AppData\Local\Temp\ccjZAqnI.s:883    .text.otamqtt_GenTopicName.constprop.0:0000000000000000 .LVL89
C:\Users\stapi\AppData\Local\Temp\ccjZAqnI.s:903    .text.otamqtt_GenTopicName.constprop.0:000000000000001a .LVL93
C:\Users\stapi\AppData\Local\Temp\ccjZAqnI.s:895    .text.otamqtt_GenTopicName.constprop.0:000000000000000e .LVL91
C:\Users\stapi\AppData\Local\Temp\ccjZAqnI.s:901    .text.otamqtt_GenTopicName.constprop.0:0000000000000016 .LVL92
C:\Users\stapi\AppData\Local\Temp\ccjZAqnI.s:910    .text.otamqtt_GenTopicName.constprop.0:000000000000002a .LVL95
C:\Users\stapi\AppData\Local\Temp\ccjZAqnI.s:921    .text.otamqtt_GenTopicName.constprop.0:0000000000000034 .LVL96
C:\Users\stapi\AppData\Local\Temp\ccjZAqnI.s:930    .text.otamqtt_GenTopicName.constprop.0:0000000000000046 .LVL97
C:\Users\stapi\AppData\Local\Temp\ccjZAqnI.s:942    .text.otamqtt_GenTopicName.constprop.0:0000000000000066 .LVL99
C:\Users\stapi\AppData\Local\Temp\ccjZAqnI.s:1113   .text.otamqtt_publish_full_topic.isra.0:0000000000000000 .LVL119
C:\Users\stapi\AppData\Local\Temp\ccjZAqnI.s:1600   .text.osc_RequestConfig:0000000000000000 .LVL181
C:\Users\stapi\AppData\Local\Temp\ccjZAqnI.s:1604   .text.osc_RequestConfig:0000000000000002 .LVL182
C:\Users\stapi\AppData\Local\Temp\ccjZAqnI.s:4632   .debug_info:0000000000000000 .Ldebug_info0
C:\Users\stapi\AppData\Local\Temp\ccjZAqnI.s:3217   .text.iotx_ota_get_config:000000000000018e .LBE13
C:\Users\stapi\AppData\Local\Temp\ccjZAqnI.s:3222   .text.iotx_ota_get_config:0000000000000190 .LBB17
C:\Users\stapi\AppData\Local\Temp\ccjZAqnI.s:3232   .text.iotx_ota_get_config:0000000000000196 .LBE17
C:\Users\stapi\AppData\Local\Temp\ccjZAqnI.s:3236   .text.iotx_ota_get_config:0000000000000198 .LBB18
C:\Users\stapi\AppData\Local\Temp\ccjZAqnI.s:3242   .text.iotx_ota_get_config:00000000000001a0 .LBE18
C:\Users\stapi\AppData\Local\Temp\ccjZAqnI.s:3933   .text.IOT_OTA_Ioctl:000000000000007a .LBB19
C:\Users\stapi\AppData\Local\Temp\ccjZAqnI.s:3956   .text.IOT_OTA_Ioctl:000000000000009a .LBE19
C:\Users\stapi\AppData\Local\Temp\ccjZAqnI.s:3968   .text.IOT_OTA_Ioctl:00000000000000b4 .LBB20
C:\Users\stapi\AppData\Local\Temp\ccjZAqnI.s:3988   .text.IOT_OTA_Ioctl:00000000000000d2 .LBE20
C:\Users\stapi\AppData\Local\Temp\ccjZAqnI.s:3997   .text.IOT_OTA_Ioctl:00000000000000d8 .LBB21
C:\Users\stapi\AppData\Local\Temp\ccjZAqnI.s:4014   .text.IOT_OTA_Ioctl:00000000000000f4 .LBE21
C:\Users\stapi\AppData\Local\Temp\ccjZAqnI.s:4015   .text.IOT_OTA_Ioctl:00000000000000f4 .LBB22
C:\Users\stapi\AppData\Local\Temp\ccjZAqnI.s:4028   .text.IOT_OTA_Ioctl:000000000000010e .LBE22
C:\Users\stapi\AppData\Local\Temp\ccjZAqnI.s:4192   .text.IOT_OTA_Ioctl:00000000000001f6 .LBB26
C:\Users\stapi\AppData\Local\Temp\ccjZAqnI.s:4236   .text.IOT_OTA_Ioctl:0000000000000240 .LBE26

UNDEFINED SYMBOLS
__riscv_save_5
LITE_syslog
HAL_Printf
strstr
__riscv_restore_5
memset
otalib_JsonValueOf
HAL_Snprintf
strlen
IOT_MQTT_Publish
__riscv_save_4
__riscv_restore_4
strncmp
otalib_GetParams
ofc_Init
otalib_GetConfigParams
otalib_MD5Deinit
otalib_MD5Init
otalib_Sha256Deinit
otalib_Sha256Init
__riscv_save_1
__riscv_restore_1
__riscv_save_0
__riscv_restore_0
__riscv_save_8
LITE_malloc_internal
__riscv_restore_8
LITE_free_internal
IOT_MQTT_Subscribe
__riscv_save_6
__riscv_restore_6
ofc_Deinit
__riscv_save_3
__riscv_restore_3
otalib_GenInfoMsg
otalib_GenReportMsg
ofc_Fetch
otalib_MD5Update
otalib_Sha256Update
memcpy
strncpy
otalib_MD5Finalize
strcmp
otalib_Sha256Finalize
