   1              		.file	"ota_lib.c"
   2              		.option nopic
   3              		.attribute arch, "rv32i2p0_m2p0_a2p0_f2p0_c2p0_b_p0p94"
   4              		.attribute unaligned_access, 0
   5              		.attribute stack_align, 16
   6              		.text
   7              	.Ltext0:
   8              		.cfi_sections	.debug_frame
   9              		.section	.text.otalib_JsonValueOf,"ax",@progbits
  10              		.align	1
  11              		.globl	otalib_JsonValueOf
  13              	otalib_JsonValueOf:
  14              	.LFB20:
  15              		.file 1 "C:/Users/stapi/OneDrive/Desktop/GD32VW553/V1_MQTT_OK/GD32VW55X_Wifi_BLE_SDK/GD32VW55x_REL
   1:C:/Users/stapi/OneDrive/Desktop/GD32VW553/V1_MQTT_OK/GD32VW55X_Wifi_BLE_SDK/GD32VW55x_RELEASE_V1.0.2/MSDK/cloud/alicloud/src/services/ota/impl\ota_lib.c **** /*
   2:C:/Users/stapi/OneDrive/Desktop/GD32VW553/V1_MQTT_OK/GD32VW55X_Wifi_BLE_SDK/GD32VW55x_RELEASE_V1.0.2/MSDK/cloud/alicloud/src/services/ota/impl\ota_lib.c ****  * Copyright (C) 2015-2018 Alibaba Group Holding Limited
   3:C:/Users/stapi/OneDrive/Desktop/GD32VW553/V1_MQTT_OK/GD32VW55X_Wifi_BLE_SDK/GD32VW55x_RELEASE_V1.0.2/MSDK/cloud/alicloud/src/services/ota/impl\ota_lib.c ****  */
   4:C:/Users/stapi/OneDrive/Desktop/GD32VW553/V1_MQTT_OK/GD32VW55X_Wifi_BLE_SDK/GD32VW55x_RELEASE_V1.0.2/MSDK/cloud/alicloud/src/services/ota/impl\ota_lib.c **** 
   5:C:/Users/stapi/OneDrive/Desktop/GD32VW553/V1_MQTT_OK/GD32VW55X_Wifi_BLE_SDK/GD32VW55x_RELEASE_V1.0.2/MSDK/cloud/alicloud/src/services/ota/impl\ota_lib.c **** #include "iotx_ota_internal.h"
   6:C:/Users/stapi/OneDrive/Desktop/GD32VW553/V1_MQTT_OK/GD32VW55X_Wifi_BLE_SDK/GD32VW55x_RELEASE_V1.0.2/MSDK/cloud/alicloud/src/services/ota/impl\ota_lib.c **** 
   7:C:/Users/stapi/OneDrive/Desktop/GD32VW553/V1_MQTT_OK/GD32VW55X_Wifi_BLE_SDK/GD32VW55x_RELEASE_V1.0.2/MSDK/cloud/alicloud/src/services/ota/impl\ota_lib.c **** const char *otalib_JsonValueOf(const char *json, uint32_t json_len, const char *key, uint32_t *val_
   8:C:/Users/stapi/OneDrive/Desktop/GD32VW553/V1_MQTT_OK/GD32VW55X_Wifi_BLE_SDK/GD32VW55x_RELEASE_V1.0.2/MSDK/cloud/alicloud/src/services/ota/impl\ota_lib.c **** {
  16              		.loc 1 8 1
  17              		.cfi_startproc
  18              	.LVL0:
  19 0000 17030000 		call	t0,__riscv_save_1
  19      E7020300 
  20              		.cfi_offset 8, -8
  21              		.cfi_offset 1, -4
  22              		.cfi_def_cfa_offset 16
   9:C:/Users/stapi/OneDrive/Desktop/GD32VW553/V1_MQTT_OK/GD32VW55X_Wifi_BLE_SDK/GD32VW55x_RELEASE_V1.0.2/MSDK/cloud/alicloud/src/services/ota/impl\ota_lib.c ****     int length;
  23              		.loc 1 9 5
  10:C:/Users/stapi/OneDrive/Desktop/GD32VW553/V1_MQTT_OK/GD32VW55X_Wifi_BLE_SDK/GD32VW55x_RELEASE_V1.0.2/MSDK/cloud/alicloud/src/services/ota/impl\ota_lib.c ****     const char *val;
  24              		.loc 1 10 5
  11:C:/Users/stapi/OneDrive/Desktop/GD32VW553/V1_MQTT_OK/GD32VW55X_Wifi_BLE_SDK/GD32VW55x_RELEASE_V1.0.2/MSDK/cloud/alicloud/src/services/ota/impl\ota_lib.c ****     val = json_get_value_by_name((char *)json, json_len, (char *)key, &length, NULL);
  25              		.loc 1 11 5
   8:C:/Users/stapi/OneDrive/Desktop/GD32VW553/V1_MQTT_OK/GD32VW55X_Wifi_BLE_SDK/GD32VW55x_RELEASE_V1.0.2/MSDK/cloud/alicloud/src/services/ota/impl\ota_lib.c ****     int length;
  26              		.loc 1 8 1 is_stmt 0
  27 0008 4111     		addi	sp,sp,-16
  28              		.cfi_def_cfa_offset 32
   8:C:/Users/stapi/OneDrive/Desktop/GD32VW553/V1_MQTT_OK/GD32VW55X_Wifi_BLE_SDK/GD32VW55x_RELEASE_V1.0.2/MSDK/cloud/alicloud/src/services/ota/impl\ota_lib.c ****     int length;
  29              		.loc 1 8 1
  30 000a 3684     		mv	s0,a3
  31              		.loc 1 11 11
  32 000c 0147     		li	a4,0
  33 000e 7400     		addi	a3,sp,12
  34              	.LVL1:
  35 0010 97000000 		call	json_get_value_by_name
  35      E7800000 
  36              	.LVL2:
  12:C:/Users/stapi/OneDrive/Desktop/GD32VW553/V1_MQTT_OK/GD32VW55X_Wifi_BLE_SDK/GD32VW55x_RELEASE_V1.0.2/MSDK/cloud/alicloud/src/services/ota/impl\ota_lib.c ****     if (NULL != val) {
  37              		.loc 1 12 5 is_stmt 1
  38              		.loc 1 12 8 is_stmt 0
  39 0018 19C1     		beq	a0,zero,.L1
  13:C:/Users/stapi/OneDrive/Desktop/GD32VW553/V1_MQTT_OK/GD32VW55X_Wifi_BLE_SDK/GD32VW55x_RELEASE_V1.0.2/MSDK/cloud/alicloud/src/services/ota/impl\ota_lib.c ****         *val_len = (uint32_t) length;
  40              		.loc 1 13 9 is_stmt 1
  41              		.loc 1 13 18 is_stmt 0
  42 001a B247     		lw	a5,12(sp)
  43 001c 1CC0     		sw	a5,0(s0)
  14:C:/Users/stapi/OneDrive/Desktop/GD32VW553/V1_MQTT_OK/GD32VW55X_Wifi_BLE_SDK/GD32VW55x_RELEASE_V1.0.2/MSDK/cloud/alicloud/src/services/ota/impl\ota_lib.c ****     }
  15:C:/Users/stapi/OneDrive/Desktop/GD32VW553/V1_MQTT_OK/GD32VW55X_Wifi_BLE_SDK/GD32VW55x_RELEASE_V1.0.2/MSDK/cloud/alicloud/src/services/ota/impl\ota_lib.c ****     return val;
  44              		.loc 1 15 5 is_stmt 1
  45              	.L1:
  16:C:/Users/stapi/OneDrive/Desktop/GD32VW553/V1_MQTT_OK/GD32VW55X_Wifi_BLE_SDK/GD32VW55x_RELEASE_V1.0.2/MSDK/cloud/alicloud/src/services/ota/impl\ota_lib.c **** }
  46              		.loc 1 16 1 is_stmt 0
  47 001e 4101     		addi	sp,sp,16
  48              		.cfi_def_cfa_offset 0
  49 0020 17030000 		tail	__riscv_restore_1
  49      67000300 
  50              		.cfi_restore 8
  51              		.cfi_restore 1
  52              		.cfi_def_cfa_offset -16
  53              		.cfi_endproc
  54              	.LFE20:
  56              		.section	.text.otalib_MD5Init,"ax",@progbits
  57              		.align	1
  58              		.globl	otalib_MD5Init
  60              	otalib_MD5Init:
  61              	.LFB21:
  17:C:/Users/stapi/OneDrive/Desktop/GD32VW553/V1_MQTT_OK/GD32VW55X_Wifi_BLE_SDK/GD32VW55x_RELEASE_V1.0.2/MSDK/cloud/alicloud/src/services/ota/impl\ota_lib.c **** 
  18:C:/Users/stapi/OneDrive/Desktop/GD32VW553/V1_MQTT_OK/GD32VW55X_Wifi_BLE_SDK/GD32VW55x_RELEASE_V1.0.2/MSDK/cloud/alicloud/src/services/ota/impl\ota_lib.c **** void *otalib_MD5Init(void)
  19:C:/Users/stapi/OneDrive/Desktop/GD32VW553/V1_MQTT_OK/GD32VW55X_Wifi_BLE_SDK/GD32VW55x_RELEASE_V1.0.2/MSDK/cloud/alicloud/src/services/ota/impl\ota_lib.c **** {
  62              		.loc 1 19 1 is_stmt 1
  63              		.cfi_startproc
  64 0000 17030000 		call	t0,__riscv_save_1
  64      E7020300 
  65              		.cfi_offset 8, -8
  66              		.cfi_offset 1, -4
  67              		.cfi_def_cfa_offset 16
  20:C:/Users/stapi/OneDrive/Desktop/GD32VW553/V1_MQTT_OK/GD32VW55X_Wifi_BLE_SDK/GD32VW55x_RELEASE_V1.0.2/MSDK/cloud/alicloud/src/services/ota/impl\ota_lib.c ****     iot_md5_context *ctx = OTA_MALLOC(sizeof(iot_md5_context));
  68              		.loc 1 20 5
  69              		.loc 1 20 28 is_stmt 0
  70 0008 13068005 		li	a2,88
  71 000c 8145     		li	a1,0
  72 000e 0145     		li	a0,0
  73 0010 97000000 		call	LITE_malloc_internal
  73      E7800000 
  74              	.LVL3:
  75 0018 2A84     		mv	s0,a0
  76              	.LVL4:
  21:C:/Users/stapi/OneDrive/Desktop/GD32VW553/V1_MQTT_OK/GD32VW55X_Wifi_BLE_SDK/GD32VW55x_RELEASE_V1.0.2/MSDK/cloud/alicloud/src/services/ota/impl\ota_lib.c ****     if (NULL == ctx) {
  77              		.loc 1 21 5 is_stmt 1
  78              		.loc 1 21 8 is_stmt 0
  79 001a 11C9     		beq	a0,zero,.L7
  22:C:/Users/stapi/OneDrive/Desktop/GD32VW553/V1_MQTT_OK/GD32VW55X_Wifi_BLE_SDK/GD32VW55x_RELEASE_V1.0.2/MSDK/cloud/alicloud/src/services/ota/impl\ota_lib.c ****         return NULL;
  23:C:/Users/stapi/OneDrive/Desktop/GD32VW553/V1_MQTT_OK/GD32VW55X_Wifi_BLE_SDK/GD32VW55x_RELEASE_V1.0.2/MSDK/cloud/alicloud/src/services/ota/impl\ota_lib.c ****     }
  24:C:/Users/stapi/OneDrive/Desktop/GD32VW553/V1_MQTT_OK/GD32VW55X_Wifi_BLE_SDK/GD32VW55x_RELEASE_V1.0.2/MSDK/cloud/alicloud/src/services/ota/impl\ota_lib.c **** 
  25:C:/Users/stapi/OneDrive/Desktop/GD32VW553/V1_MQTT_OK/GD32VW55X_Wifi_BLE_SDK/GD32VW55x_RELEASE_V1.0.2/MSDK/cloud/alicloud/src/services/ota/impl\ota_lib.c ****     utils_md5_init(ctx);
  80              		.loc 1 25 5 is_stmt 1
  81 001c 97000000 		call	utils_md5_init
  81      E7800000 
  82              	.LVL5:
  26:C:/Users/stapi/OneDrive/Desktop/GD32VW553/V1_MQTT_OK/GD32VW55X_Wifi_BLE_SDK/GD32VW55x_RELEASE_V1.0.2/MSDK/cloud/alicloud/src/services/ota/impl\ota_lib.c ****     utils_md5_starts(ctx);
  83              		.loc 1 26 5
  84 0024 2285     		mv	a0,s0
  85 0026 97000000 		call	utils_md5_starts
  85      E7800000 
  86              	.LVL6:
  27:C:/Users/stapi/OneDrive/Desktop/GD32VW553/V1_MQTT_OK/GD32VW55X_Wifi_BLE_SDK/GD32VW55x_RELEASE_V1.0.2/MSDK/cloud/alicloud/src/services/ota/impl\ota_lib.c **** 
  28:C:/Users/stapi/OneDrive/Desktop/GD32VW553/V1_MQTT_OK/GD32VW55X_Wifi_BLE_SDK/GD32VW55x_RELEASE_V1.0.2/MSDK/cloud/alicloud/src/services/ota/impl\ota_lib.c ****     return ctx;
  87              		.loc 1 28 5
  88              	.L7:
  29:C:/Users/stapi/OneDrive/Desktop/GD32VW553/V1_MQTT_OK/GD32VW55X_Wifi_BLE_SDK/GD32VW55x_RELEASE_V1.0.2/MSDK/cloud/alicloud/src/services/ota/impl\ota_lib.c **** }
  89              		.loc 1 29 1 is_stmt 0
  90 002e 2285     		mv	a0,s0
  91 0030 17030000 		tail	__riscv_restore_1
  91      67000300 
  92              		.cfi_restore 8
  93              		.cfi_restore 1
  94              		.cfi_def_cfa_offset 0
  95              		.cfi_endproc
  96              	.LFE21:
  98              		.section	.text.otalib_MD5Update,"ax",@progbits
  99              		.align	1
 100              		.globl	otalib_MD5Update
 102              	otalib_MD5Update:
 103              	.LFB22:
  30:C:/Users/stapi/OneDrive/Desktop/GD32VW553/V1_MQTT_OK/GD32VW55X_Wifi_BLE_SDK/GD32VW55x_RELEASE_V1.0.2/MSDK/cloud/alicloud/src/services/ota/impl\ota_lib.c **** 
  31:C:/Users/stapi/OneDrive/Desktop/GD32VW553/V1_MQTT_OK/GD32VW55X_Wifi_BLE_SDK/GD32VW55x_RELEASE_V1.0.2/MSDK/cloud/alicloud/src/services/ota/impl\ota_lib.c **** void otalib_MD5Update(void *md5, const char *buf, size_t buf_len)
  32:C:/Users/stapi/OneDrive/Desktop/GD32VW553/V1_MQTT_OK/GD32VW55X_Wifi_BLE_SDK/GD32VW55x_RELEASE_V1.0.2/MSDK/cloud/alicloud/src/services/ota/impl\ota_lib.c **** {
 104              		.loc 1 32 1 is_stmt 1
 105              		.cfi_startproc
 106              	.LVL7:
  33:C:/Users/stapi/OneDrive/Desktop/GD32VW553/V1_MQTT_OK/GD32VW55X_Wifi_BLE_SDK/GD32VW55x_RELEASE_V1.0.2/MSDK/cloud/alicloud/src/services/ota/impl\ota_lib.c ****     utils_md5_update(md5, (unsigned char *)buf, buf_len);
 107              		.loc 1 33 5
 108 0000 17030000 		tail	utils_md5_update
 108      67000300 
 109              	.LVL8:
 110              		.cfi_endproc
 111              	.LFE22:
 113              		.section	.text.otalib_MD5Finalize,"ax",@progbits
 114              		.align	1
 115              		.globl	otalib_MD5Finalize
 117              	otalib_MD5Finalize:
 118              	.LFB23:
  34:C:/Users/stapi/OneDrive/Desktop/GD32VW553/V1_MQTT_OK/GD32VW55X_Wifi_BLE_SDK/GD32VW55x_RELEASE_V1.0.2/MSDK/cloud/alicloud/src/services/ota/impl\ota_lib.c **** }
  35:C:/Users/stapi/OneDrive/Desktop/GD32VW553/V1_MQTT_OK/GD32VW55X_Wifi_BLE_SDK/GD32VW55x_RELEASE_V1.0.2/MSDK/cloud/alicloud/src/services/ota/impl\ota_lib.c **** 
  36:C:/Users/stapi/OneDrive/Desktop/GD32VW553/V1_MQTT_OK/GD32VW55X_Wifi_BLE_SDK/GD32VW55x_RELEASE_V1.0.2/MSDK/cloud/alicloud/src/services/ota/impl\ota_lib.c **** void otalib_MD5Finalize(void *md5, char *output_str)
  37:C:/Users/stapi/OneDrive/Desktop/GD32VW553/V1_MQTT_OK/GD32VW55X_Wifi_BLE_SDK/GD32VW55x_RELEASE_V1.0.2/MSDK/cloud/alicloud/src/services/ota/impl\ota_lib.c **** {
 119              		.loc 1 37 1
 120              		.cfi_startproc
 121              	.LVL9:
 122 0000 17030000 		call	t0,__riscv_save_4
 122      E7020300 
 123              		.cfi_offset 19, -20
 124              		.cfi_offset 18, -16
 125              		.cfi_offset 9, -12
 126              		.cfi_offset 8, -8
 127              		.cfi_offset 1, -4
 128              		.cfi_def_cfa_offset 32
  38:C:/Users/stapi/OneDrive/Desktop/GD32VW553/V1_MQTT_OK/GD32VW55X_Wifi_BLE_SDK/GD32VW55x_RELEASE_V1.0.2/MSDK/cloud/alicloud/src/services/ota/impl\ota_lib.c ****     int i;
 129              		.loc 1 38 5
  39:C:/Users/stapi/OneDrive/Desktop/GD32VW553/V1_MQTT_OK/GD32VW55X_Wifi_BLE_SDK/GD32VW55x_RELEASE_V1.0.2/MSDK/cloud/alicloud/src/services/ota/impl\ota_lib.c ****     unsigned char buf_out[16];
 130              		.loc 1 39 5
  40:C:/Users/stapi/OneDrive/Desktop/GD32VW553/V1_MQTT_OK/GD32VW55X_Wifi_BLE_SDK/GD32VW55x_RELEASE_V1.0.2/MSDK/cloud/alicloud/src/services/ota/impl\ota_lib.c ****     utils_md5_finish(md5, buf_out);
 131              		.loc 1 40 5
  37:C:/Users/stapi/OneDrive/Desktop/GD32VW553/V1_MQTT_OK/GD32VW55X_Wifi_BLE_SDK/GD32VW55x_RELEASE_V1.0.2/MSDK/cloud/alicloud/src/services/ota/impl\ota_lib.c ****     int i;
 132              		.loc 1 37 1 is_stmt 0
 133 0008 4111     		addi	sp,sp,-16
 134              		.cfi_def_cfa_offset 48
  37:C:/Users/stapi/OneDrive/Desktop/GD32VW553/V1_MQTT_OK/GD32VW55X_Wifi_BLE_SDK/GD32VW55x_RELEASE_V1.0.2/MSDK/cloud/alicloud/src/services/ota/impl\ota_lib.c ****     int i;
 135              		.loc 1 37 1
 136 000a AE84     		mv	s1,a1
 137              		.loc 1 40 5
 138 000c 8A85     		mv	a1,sp
 139              	.LVL10:
 140 000e 97000000 		call	utils_md5_finish
 140      E7800000 
 141              	.LVL11:
  41:C:/Users/stapi/OneDrive/Desktop/GD32VW553/V1_MQTT_OK/GD32VW55X_Wifi_BLE_SDK/GD32VW55x_RELEASE_V1.0.2/MSDK/cloud/alicloud/src/services/ota/impl\ota_lib.c **** 
  42:C:/Users/stapi/OneDrive/Desktop/GD32VW553/V1_MQTT_OK/GD32VW55X_Wifi_BLE_SDK/GD32VW55x_RELEASE_V1.0.2/MSDK/cloud/alicloud/src/services/ota/impl\ota_lib.c ****     for (i = 0; i < 16; ++i) {
 142              		.loc 1 42 5 is_stmt 1
 143              		.loc 1 42 17
 144 0016 0A84     		mv	s0,sp
 145 0018 2689     		mv	s2,s1
 146 001a 93890402 		addi	s3,s1,32
 147              	.LVL12:
 148              	.L16:
  43:C:/Users/stapi/OneDrive/Desktop/GD32VW553/V1_MQTT_OK/GD32VW55X_Wifi_BLE_SDK/GD32VW55x_RELEASE_V1.0.2/MSDK/cloud/alicloud/src/services/ota/impl\ota_lib.c ****         output_str[i * 2] = utils_hb2hex(buf_out[i] >> 4);
 149              		.loc 1 43 9 discriminator 3
 150              		.loc 1 43 29 is_stmt 0 discriminator 3
 151 001e 03450400 		lbu	a0,0(s0)
  42:C:/Users/stapi/OneDrive/Desktop/GD32VW553/V1_MQTT_OK/GD32VW55X_Wifi_BLE_SDK/GD32VW55x_RELEASE_V1.0.2/MSDK/cloud/alicloud/src/services/ota/impl\ota_lib.c ****         output_str[i * 2] = utils_hb2hex(buf_out[i] >> 4);
 152              		.loc 1 42 5 discriminator 3
 153 0022 0909     		addi	s2,s2,2
 154 0024 0504     		addi	s0,s0,1
 155              	.LVL13:
 156              		.loc 1 43 29 discriminator 3
 157 0026 1181     		srli	a0,a0,4
 158 0028 97000000 		call	utils_hb2hex
 158      E7800000 
 159              	.LVL14:
 160              		.loc 1 43 27 discriminator 3
 161 0030 230FA9FE 		sb	a0,-2(s2)
  44:C:/Users/stapi/OneDrive/Desktop/GD32VW553/V1_MQTT_OK/GD32VW55X_Wifi_BLE_SDK/GD32VW55x_RELEASE_V1.0.2/MSDK/cloud/alicloud/src/services/ota/impl\ota_lib.c ****         output_str[i * 2 + 1] = utils_hb2hex(buf_out[i]);
 162              		.loc 1 44 9 is_stmt 1 discriminator 3
 163              		.loc 1 44 33 is_stmt 0 discriminator 3
 164 0034 0345F4FF 		lbu	a0,-1(s0)
 165 0038 97000000 		call	utils_hb2hex
 165      E7800000 
 166              	.LVL15:
 167              		.loc 1 44 31 discriminator 3
 168 0040 A30FA9FE 		sb	a0,-1(s2)
  42:C:/Users/stapi/OneDrive/Desktop/GD32VW553/V1_MQTT_OK/GD32VW55X_Wifi_BLE_SDK/GD32VW55x_RELEASE_V1.0.2/MSDK/cloud/alicloud/src/services/ota/impl\ota_lib.c ****         output_str[i * 2] = utils_hb2hex(buf_out[i] >> 4);
 169              		.loc 1 42 25 is_stmt 1 discriminator 3
 170              	.LVL16:
  42:C:/Users/stapi/OneDrive/Desktop/GD32VW553/V1_MQTT_OK/GD32VW55X_Wifi_BLE_SDK/GD32VW55x_RELEASE_V1.0.2/MSDK/cloud/alicloud/src/services/ota/impl\ota_lib.c ****         output_str[i * 2] = utils_hb2hex(buf_out[i] >> 4);
 171              		.loc 1 42 17 discriminator 3
  42:C:/Users/stapi/OneDrive/Desktop/GD32VW553/V1_MQTT_OK/GD32VW55X_Wifi_BLE_SDK/GD32VW55x_RELEASE_V1.0.2/MSDK/cloud/alicloud/src/services/ota/impl\ota_lib.c ****         output_str[i * 2] = utils_hb2hex(buf_out[i] >> 4);
 172              		.loc 1 42 5 is_stmt 0 discriminator 3
 173 0044 E31D39FD 		bne	s2,s3,.L16
  45:C:/Users/stapi/OneDrive/Desktop/GD32VW553/V1_MQTT_OK/GD32VW55X_Wifi_BLE_SDK/GD32VW55x_RELEASE_V1.0.2/MSDK/cloud/alicloud/src/services/ota/impl\ota_lib.c ****     }
  46:C:/Users/stapi/OneDrive/Desktop/GD32VW553/V1_MQTT_OK/GD32VW55X_Wifi_BLE_SDK/GD32VW55x_RELEASE_V1.0.2/MSDK/cloud/alicloud/src/services/ota/impl\ota_lib.c ****     output_str[32] = '\0';
 174              		.loc 1 46 5 is_stmt 1
 175              		.loc 1 46 20 is_stmt 0
 176 0048 23800402 		sb	zero,32(s1)
  47:C:/Users/stapi/OneDrive/Desktop/GD32VW553/V1_MQTT_OK/GD32VW55X_Wifi_BLE_SDK/GD32VW55x_RELEASE_V1.0.2/MSDK/cloud/alicloud/src/services/ota/impl\ota_lib.c **** }
 177              		.loc 1 47 1
 178 004c 4101     		addi	sp,sp,16
 179              		.cfi_def_cfa_offset 0
 180 004e 17030000 		tail	__riscv_restore_4
 180      67000300 
 181              		.cfi_restore 19
 182              		.cfi_restore 18
 183              		.cfi_restore 9
 184              		.cfi_restore 8
 185              		.cfi_restore 1
 186              		.cfi_def_cfa_offset -32
 187              		.cfi_endproc
 188              	.LFE23:
 190              		.section	.text.otalib_MD5Deinit,"ax",@progbits
 191              		.align	1
 192              		.globl	otalib_MD5Deinit
 194              	otalib_MD5Deinit:
 195              	.LFB24:
  48:C:/Users/stapi/OneDrive/Desktop/GD32VW553/V1_MQTT_OK/GD32VW55X_Wifi_BLE_SDK/GD32VW55x_RELEASE_V1.0.2/MSDK/cloud/alicloud/src/services/ota/impl\ota_lib.c **** 
  49:C:/Users/stapi/OneDrive/Desktop/GD32VW553/V1_MQTT_OK/GD32VW55X_Wifi_BLE_SDK/GD32VW55x_RELEASE_V1.0.2/MSDK/cloud/alicloud/src/services/ota/impl\ota_lib.c **** void otalib_MD5Deinit(void *md5)
  50:C:/Users/stapi/OneDrive/Desktop/GD32VW553/V1_MQTT_OK/GD32VW55X_Wifi_BLE_SDK/GD32VW55x_RELEASE_V1.0.2/MSDK/cloud/alicloud/src/services/ota/impl\ota_lib.c **** {
 196              		.loc 1 50 1 is_stmt 1
 197              		.cfi_startproc
 198              	.LVL17:
  51:C:/Users/stapi/OneDrive/Desktop/GD32VW553/V1_MQTT_OK/GD32VW55X_Wifi_BLE_SDK/GD32VW55x_RELEASE_V1.0.2/MSDK/cloud/alicloud/src/services/ota/impl\ota_lib.c ****     if (NULL != md5) {
 199              		.loc 1 51 5
 200              		.loc 1 51 8 is_stmt 0
 201 0000 09C5     		beq	a0,zero,.L25
  52:C:/Users/stapi/OneDrive/Desktop/GD32VW553/V1_MQTT_OK/GD32VW55X_Wifi_BLE_SDK/GD32VW55x_RELEASE_V1.0.2/MSDK/cloud/alicloud/src/services/ota/impl\ota_lib.c ****         OTA_FREE(md5);
 202              		.loc 1 52 9 is_stmt 1
 203 0002 17030000 		tail	LITE_free_internal
 203      67000300 
 204              	.LVL18:
 205              	.L25:
 206 000a 8280     		ret
 207              		.cfi_endproc
 208              	.LFE24:
 210              		.section	.text.otalib_Sha256Init,"ax",@progbits
 211              		.align	1
 212              		.globl	otalib_Sha256Init
 214              	otalib_Sha256Init:
 215              	.LFB25:
  53:C:/Users/stapi/OneDrive/Desktop/GD32VW553/V1_MQTT_OK/GD32VW55X_Wifi_BLE_SDK/GD32VW55x_RELEASE_V1.0.2/MSDK/cloud/alicloud/src/services/ota/impl\ota_lib.c ****     }
  54:C:/Users/stapi/OneDrive/Desktop/GD32VW553/V1_MQTT_OK/GD32VW55X_Wifi_BLE_SDK/GD32VW55x_RELEASE_V1.0.2/MSDK/cloud/alicloud/src/services/ota/impl\ota_lib.c **** }
  55:C:/Users/stapi/OneDrive/Desktop/GD32VW553/V1_MQTT_OK/GD32VW55X_Wifi_BLE_SDK/GD32VW55x_RELEASE_V1.0.2/MSDK/cloud/alicloud/src/services/ota/impl\ota_lib.c **** 
  56:C:/Users/stapi/OneDrive/Desktop/GD32VW553/V1_MQTT_OK/GD32VW55X_Wifi_BLE_SDK/GD32VW55x_RELEASE_V1.0.2/MSDK/cloud/alicloud/src/services/ota/impl\ota_lib.c **** void *otalib_Sha256Init(void)
  57:C:/Users/stapi/OneDrive/Desktop/GD32VW553/V1_MQTT_OK/GD32VW55X_Wifi_BLE_SDK/GD32VW55x_RELEASE_V1.0.2/MSDK/cloud/alicloud/src/services/ota/impl\ota_lib.c **** {
 216              		.loc 1 57 1
 217              		.cfi_startproc
 218 0000 17030000 		call	t0,__riscv_save_1
 218      E7020300 
 219              		.cfi_offset 8, -8
 220              		.cfi_offset 1, -4
 221              		.cfi_def_cfa_offset 16
  58:C:/Users/stapi/OneDrive/Desktop/GD32VW553/V1_MQTT_OK/GD32VW55X_Wifi_BLE_SDK/GD32VW55x_RELEASE_V1.0.2/MSDK/cloud/alicloud/src/services/ota/impl\ota_lib.c ****     iot_sha256_context *ctx = OTA_MALLOC(sizeof(iot_sha256_context));
 222              		.loc 1 58 5
 223              		.loc 1 58 31 is_stmt 0
 224 0008 13068006 		li	a2,104
 225 000c 8145     		li	a1,0
 226 000e 0145     		li	a0,0
 227 0010 97000000 		call	LITE_malloc_internal
 227      E7800000 
 228              	.LVL19:
 229 0018 2A84     		mv	s0,a0
 230              	.LVL20:
  59:C:/Users/stapi/OneDrive/Desktop/GD32VW553/V1_MQTT_OK/GD32VW55X_Wifi_BLE_SDK/GD32VW55x_RELEASE_V1.0.2/MSDK/cloud/alicloud/src/services/ota/impl\ota_lib.c ****     if (NULL == ctx) {
 231              		.loc 1 59 5 is_stmt 1
 232              		.loc 1 59 8 is_stmt 0
 233 001a 11C9     		beq	a0,zero,.L28
  60:C:/Users/stapi/OneDrive/Desktop/GD32VW553/V1_MQTT_OK/GD32VW55X_Wifi_BLE_SDK/GD32VW55x_RELEASE_V1.0.2/MSDK/cloud/alicloud/src/services/ota/impl\ota_lib.c ****         return NULL;
  61:C:/Users/stapi/OneDrive/Desktop/GD32VW553/V1_MQTT_OK/GD32VW55X_Wifi_BLE_SDK/GD32VW55x_RELEASE_V1.0.2/MSDK/cloud/alicloud/src/services/ota/impl\ota_lib.c ****     }
  62:C:/Users/stapi/OneDrive/Desktop/GD32VW553/V1_MQTT_OK/GD32VW55X_Wifi_BLE_SDK/GD32VW55x_RELEASE_V1.0.2/MSDK/cloud/alicloud/src/services/ota/impl\ota_lib.c **** 
  63:C:/Users/stapi/OneDrive/Desktop/GD32VW553/V1_MQTT_OK/GD32VW55X_Wifi_BLE_SDK/GD32VW55x_RELEASE_V1.0.2/MSDK/cloud/alicloud/src/services/ota/impl\ota_lib.c ****     utils_sha256_init(ctx);
 234              		.loc 1 63 5 is_stmt 1
 235 001c 97000000 		call	utils_sha256_init
 235      E7800000 
 236              	.LVL21:
  64:C:/Users/stapi/OneDrive/Desktop/GD32VW553/V1_MQTT_OK/GD32VW55X_Wifi_BLE_SDK/GD32VW55x_RELEASE_V1.0.2/MSDK/cloud/alicloud/src/services/ota/impl\ota_lib.c ****     utils_sha256_starts(ctx);
 237              		.loc 1 64 5
 238 0024 2285     		mv	a0,s0
 239 0026 97000000 		call	utils_sha256_starts
 239      E7800000 
 240              	.LVL22:
  65:C:/Users/stapi/OneDrive/Desktop/GD32VW553/V1_MQTT_OK/GD32VW55X_Wifi_BLE_SDK/GD32VW55x_RELEASE_V1.0.2/MSDK/cloud/alicloud/src/services/ota/impl\ota_lib.c **** 
  66:C:/Users/stapi/OneDrive/Desktop/GD32VW553/V1_MQTT_OK/GD32VW55X_Wifi_BLE_SDK/GD32VW55x_RELEASE_V1.0.2/MSDK/cloud/alicloud/src/services/ota/impl\ota_lib.c ****     return ctx;
 241              		.loc 1 66 5
 242              	.L28:
  67:C:/Users/stapi/OneDrive/Desktop/GD32VW553/V1_MQTT_OK/GD32VW55X_Wifi_BLE_SDK/GD32VW55x_RELEASE_V1.0.2/MSDK/cloud/alicloud/src/services/ota/impl\ota_lib.c **** }
 243              		.loc 1 67 1 is_stmt 0
 244 002e 2285     		mv	a0,s0
 245 0030 17030000 		tail	__riscv_restore_1
 245      67000300 
 246              		.cfi_restore 8
 247              		.cfi_restore 1
 248              		.cfi_def_cfa_offset 0
 249              		.cfi_endproc
 250              	.LFE25:
 252              		.section	.text.otalib_Sha256Update,"ax",@progbits
 253              		.align	1
 254              		.globl	otalib_Sha256Update
 256              	otalib_Sha256Update:
 257              	.LFB26:
  68:C:/Users/stapi/OneDrive/Desktop/GD32VW553/V1_MQTT_OK/GD32VW55X_Wifi_BLE_SDK/GD32VW55x_RELEASE_V1.0.2/MSDK/cloud/alicloud/src/services/ota/impl\ota_lib.c **** 
  69:C:/Users/stapi/OneDrive/Desktop/GD32VW553/V1_MQTT_OK/GD32VW55X_Wifi_BLE_SDK/GD32VW55x_RELEASE_V1.0.2/MSDK/cloud/alicloud/src/services/ota/impl\ota_lib.c **** void otalib_Sha256Update(void *sha256, const char *buf, size_t buf_len)
  70:C:/Users/stapi/OneDrive/Desktop/GD32VW553/V1_MQTT_OK/GD32VW55X_Wifi_BLE_SDK/GD32VW55x_RELEASE_V1.0.2/MSDK/cloud/alicloud/src/services/ota/impl\ota_lib.c **** {
 258              		.loc 1 70 1 is_stmt 1
 259              		.cfi_startproc
 260              	.LVL23:
  71:C:/Users/stapi/OneDrive/Desktop/GD32VW553/V1_MQTT_OK/GD32VW55X_Wifi_BLE_SDK/GD32VW55x_RELEASE_V1.0.2/MSDK/cloud/alicloud/src/services/ota/impl\ota_lib.c ****     utils_sha256_update(sha256, (unsigned char *)buf, buf_len);
 261              		.loc 1 71 5
 262 0000 17030000 		tail	utils_sha256_update
 262      67000300 
 263              	.LVL24:
 264              		.cfi_endproc
 265              	.LFE26:
 267              		.section	.text.otalib_Sha256Finalize,"ax",@progbits
 268              		.align	1
 269              		.globl	otalib_Sha256Finalize
 271              	otalib_Sha256Finalize:
 272              	.LFB27:
  72:C:/Users/stapi/OneDrive/Desktop/GD32VW553/V1_MQTT_OK/GD32VW55X_Wifi_BLE_SDK/GD32VW55x_RELEASE_V1.0.2/MSDK/cloud/alicloud/src/services/ota/impl\ota_lib.c **** }
  73:C:/Users/stapi/OneDrive/Desktop/GD32VW553/V1_MQTT_OK/GD32VW55X_Wifi_BLE_SDK/GD32VW55x_RELEASE_V1.0.2/MSDK/cloud/alicloud/src/services/ota/impl\ota_lib.c **** 
  74:C:/Users/stapi/OneDrive/Desktop/GD32VW553/V1_MQTT_OK/GD32VW55X_Wifi_BLE_SDK/GD32VW55x_RELEASE_V1.0.2/MSDK/cloud/alicloud/src/services/ota/impl\ota_lib.c **** void otalib_Sha256Finalize(void *sha256, char *output_str)
  75:C:/Users/stapi/OneDrive/Desktop/GD32VW553/V1_MQTT_OK/GD32VW55X_Wifi_BLE_SDK/GD32VW55x_RELEASE_V1.0.2/MSDK/cloud/alicloud/src/services/ota/impl\ota_lib.c **** {
 273              		.loc 1 75 1
 274              		.cfi_startproc
 275              	.LVL25:
 276 0000 17030000 		call	t0,__riscv_save_4
 276      E7020300 
 277              		.cfi_offset 19, -20
 278              		.cfi_offset 18, -16
 279              		.cfi_offset 9, -12
 280              		.cfi_offset 8, -8
 281              		.cfi_offset 1, -4
 282              		.cfi_def_cfa_offset 32
  76:C:/Users/stapi/OneDrive/Desktop/GD32VW553/V1_MQTT_OK/GD32VW55X_Wifi_BLE_SDK/GD32VW55x_RELEASE_V1.0.2/MSDK/cloud/alicloud/src/services/ota/impl\ota_lib.c ****     int i;
 283              		.loc 1 76 5
  77:C:/Users/stapi/OneDrive/Desktop/GD32VW553/V1_MQTT_OK/GD32VW55X_Wifi_BLE_SDK/GD32VW55x_RELEASE_V1.0.2/MSDK/cloud/alicloud/src/services/ota/impl\ota_lib.c ****     unsigned char buf_out[32];
 284              		.loc 1 77 5
  78:C:/Users/stapi/OneDrive/Desktop/GD32VW553/V1_MQTT_OK/GD32VW55X_Wifi_BLE_SDK/GD32VW55x_RELEASE_V1.0.2/MSDK/cloud/alicloud/src/services/ota/impl\ota_lib.c ****     utils_sha256_finish(sha256, buf_out);
 285              		.loc 1 78 5
  75:C:/Users/stapi/OneDrive/Desktop/GD32VW553/V1_MQTT_OK/GD32VW55X_Wifi_BLE_SDK/GD32VW55x_RELEASE_V1.0.2/MSDK/cloud/alicloud/src/services/ota/impl\ota_lib.c ****     int i;
 286              		.loc 1 75 1 is_stmt 0
 287 0008 0111     		addi	sp,sp,-32
 288              		.cfi_def_cfa_offset 64
  75:C:/Users/stapi/OneDrive/Desktop/GD32VW553/V1_MQTT_OK/GD32VW55X_Wifi_BLE_SDK/GD32VW55x_RELEASE_V1.0.2/MSDK/cloud/alicloud/src/services/ota/impl\ota_lib.c ****     int i;
 289              		.loc 1 75 1
 290 000a AE84     		mv	s1,a1
 291              		.loc 1 78 5
 292 000c 8A85     		mv	a1,sp
 293              	.LVL26:
 294 000e 97000000 		call	utils_sha256_finish
 294      E7800000 
 295              	.LVL27:
  79:C:/Users/stapi/OneDrive/Desktop/GD32VW553/V1_MQTT_OK/GD32VW55X_Wifi_BLE_SDK/GD32VW55x_RELEASE_V1.0.2/MSDK/cloud/alicloud/src/services/ota/impl\ota_lib.c **** 
  80:C:/Users/stapi/OneDrive/Desktop/GD32VW553/V1_MQTT_OK/GD32VW55X_Wifi_BLE_SDK/GD32VW55x_RELEASE_V1.0.2/MSDK/cloud/alicloud/src/services/ota/impl\ota_lib.c ****     for (i = 0; i < 32; ++i) {
 296              		.loc 1 80 5 is_stmt 1
 297              		.loc 1 80 17
 298 0016 0A84     		mv	s0,sp
 299 0018 2689     		mv	s2,s1
 300 001a 93890404 		addi	s3,s1,64
 301              	.LVL28:
 302              	.L37:
  81:C:/Users/stapi/OneDrive/Desktop/GD32VW553/V1_MQTT_OK/GD32VW55X_Wifi_BLE_SDK/GD32VW55x_RELEASE_V1.0.2/MSDK/cloud/alicloud/src/services/ota/impl\ota_lib.c ****         output_str[i * 2] = utils_hb2hex(buf_out[i] >> 4);
 303              		.loc 1 81 9 discriminator 3
 304              		.loc 1 81 29 is_stmt 0 discriminator 3
 305 001e 03450400 		lbu	a0,0(s0)
  80:C:/Users/stapi/OneDrive/Desktop/GD32VW553/V1_MQTT_OK/GD32VW55X_Wifi_BLE_SDK/GD32VW55x_RELEASE_V1.0.2/MSDK/cloud/alicloud/src/services/ota/impl\ota_lib.c ****         output_str[i * 2] = utils_hb2hex(buf_out[i] >> 4);
 306              		.loc 1 80 5 discriminator 3
 307 0022 0909     		addi	s2,s2,2
 308 0024 0504     		addi	s0,s0,1
 309              	.LVL29:
 310              		.loc 1 81 29 discriminator 3
 311 0026 1181     		srli	a0,a0,4
 312 0028 97000000 		call	utils_hb2hex
 312      E7800000 
 313              	.LVL30:
 314              		.loc 1 81 27 discriminator 3
 315 0030 230FA9FE 		sb	a0,-2(s2)
  82:C:/Users/stapi/OneDrive/Desktop/GD32VW553/V1_MQTT_OK/GD32VW55X_Wifi_BLE_SDK/GD32VW55x_RELEASE_V1.0.2/MSDK/cloud/alicloud/src/services/ota/impl\ota_lib.c ****         output_str[i * 2 + 1] = utils_hb2hex(buf_out[i]);
 316              		.loc 1 82 9 is_stmt 1 discriminator 3
 317              		.loc 1 82 33 is_stmt 0 discriminator 3
 318 0034 0345F4FF 		lbu	a0,-1(s0)
 319 0038 97000000 		call	utils_hb2hex
 319      E7800000 
 320              	.LVL31:
 321              		.loc 1 82 31 discriminator 3
 322 0040 A30FA9FE 		sb	a0,-1(s2)
  80:C:/Users/stapi/OneDrive/Desktop/GD32VW553/V1_MQTT_OK/GD32VW55X_Wifi_BLE_SDK/GD32VW55x_RELEASE_V1.0.2/MSDK/cloud/alicloud/src/services/ota/impl\ota_lib.c ****         output_str[i * 2] = utils_hb2hex(buf_out[i] >> 4);
 323              		.loc 1 80 25 is_stmt 1 discriminator 3
 324              	.LVL32:
  80:C:/Users/stapi/OneDrive/Desktop/GD32VW553/V1_MQTT_OK/GD32VW55X_Wifi_BLE_SDK/GD32VW55x_RELEASE_V1.0.2/MSDK/cloud/alicloud/src/services/ota/impl\ota_lib.c ****         output_str[i * 2] = utils_hb2hex(buf_out[i] >> 4);
 325              		.loc 1 80 17 discriminator 3
  80:C:/Users/stapi/OneDrive/Desktop/GD32VW553/V1_MQTT_OK/GD32VW55X_Wifi_BLE_SDK/GD32VW55x_RELEASE_V1.0.2/MSDK/cloud/alicloud/src/services/ota/impl\ota_lib.c ****         output_str[i * 2] = utils_hb2hex(buf_out[i] >> 4);
 326              		.loc 1 80 5 is_stmt 0 discriminator 3
 327 0044 E31D39FD 		bne	s2,s3,.L37
  83:C:/Users/stapi/OneDrive/Desktop/GD32VW553/V1_MQTT_OK/GD32VW55X_Wifi_BLE_SDK/GD32VW55x_RELEASE_V1.0.2/MSDK/cloud/alicloud/src/services/ota/impl\ota_lib.c ****     }
  84:C:/Users/stapi/OneDrive/Desktop/GD32VW553/V1_MQTT_OK/GD32VW55X_Wifi_BLE_SDK/GD32VW55x_RELEASE_V1.0.2/MSDK/cloud/alicloud/src/services/ota/impl\ota_lib.c ****     output_str[64] = '\0';
 328              		.loc 1 84 5 is_stmt 1
 329              		.loc 1 84 20 is_stmt 0
 330 0048 23800404 		sb	zero,64(s1)
  85:C:/Users/stapi/OneDrive/Desktop/GD32VW553/V1_MQTT_OK/GD32VW55X_Wifi_BLE_SDK/GD32VW55x_RELEASE_V1.0.2/MSDK/cloud/alicloud/src/services/ota/impl\ota_lib.c **** }
 331              		.loc 1 85 1
 332 004c 0561     		addi	sp,sp,32
 333              		.cfi_def_cfa_offset 0
 334 004e 17030000 		tail	__riscv_restore_4
 334      67000300 
 335              		.cfi_restore 19
 336              		.cfi_restore 18
 337              		.cfi_restore 9
 338              		.cfi_restore 8
 339              		.cfi_restore 1
 340              		.cfi_def_cfa_offset -32
 341              		.cfi_endproc
 342              	.LFE27:
 344              		.section	.text.otalib_Sha256Deinit,"ax",@progbits
 345              		.align	1
 346              		.globl	otalib_Sha256Deinit
 348              	otalib_Sha256Deinit:
 349              	.LFB28:
  86:C:/Users/stapi/OneDrive/Desktop/GD32VW553/V1_MQTT_OK/GD32VW55X_Wifi_BLE_SDK/GD32VW55x_RELEASE_V1.0.2/MSDK/cloud/alicloud/src/services/ota/impl\ota_lib.c **** 
  87:C:/Users/stapi/OneDrive/Desktop/GD32VW553/V1_MQTT_OK/GD32VW55X_Wifi_BLE_SDK/GD32VW55x_RELEASE_V1.0.2/MSDK/cloud/alicloud/src/services/ota/impl\ota_lib.c **** void otalib_Sha256Deinit(void *sha256)
  88:C:/Users/stapi/OneDrive/Desktop/GD32VW553/V1_MQTT_OK/GD32VW55X_Wifi_BLE_SDK/GD32VW55x_RELEASE_V1.0.2/MSDK/cloud/alicloud/src/services/ota/impl\ota_lib.c **** {
 350              		.loc 1 88 1 is_stmt 1
 351              		.cfi_startproc
 352              	.LVL33:
 353 0000 17030000 		call	t0,__riscv_save_1
 353      E7020300 
 354              		.cfi_offset 8, -8
 355              		.cfi_offset 1, -4
 356              		.cfi_def_cfa_offset 16
  89:C:/Users/stapi/OneDrive/Desktop/GD32VW553/V1_MQTT_OK/GD32VW55X_Wifi_BLE_SDK/GD32VW55x_RELEASE_V1.0.2/MSDK/cloud/alicloud/src/services/ota/impl\ota_lib.c ****     utils_sha256_free(sha256);
 357              		.loc 1 89 5
  88:C:/Users/stapi/OneDrive/Desktop/GD32VW553/V1_MQTT_OK/GD32VW55X_Wifi_BLE_SDK/GD32VW55x_RELEASE_V1.0.2/MSDK/cloud/alicloud/src/services/ota/impl\ota_lib.c ****     utils_sha256_free(sha256);
 358              		.loc 1 88 1 is_stmt 0
 359 0008 2A84     		mv	s0,a0
 360              		.loc 1 89 5
 361 000a 97000000 		call	utils_sha256_free
 361      E7800000 
 362              	.LVL34:
  90:C:/Users/stapi/OneDrive/Desktop/GD32VW553/V1_MQTT_OK/GD32VW55X_Wifi_BLE_SDK/GD32VW55x_RELEASE_V1.0.2/MSDK/cloud/alicloud/src/services/ota/impl\ota_lib.c ****     if (NULL != sha256) {
 363              		.loc 1 90 5 is_stmt 1
 364              		.loc 1 90 8 is_stmt 0
 365 0012 11C4     		beq	s0,zero,.L40
  91:C:/Users/stapi/OneDrive/Desktop/GD32VW553/V1_MQTT_OK/GD32VW55X_Wifi_BLE_SDK/GD32VW55x_RELEASE_V1.0.2/MSDK/cloud/alicloud/src/services/ota/impl\ota_lib.c ****         OTA_FREE(sha256);
 366              		.loc 1 91 9 is_stmt 1
 367 0014 2285     		mv	a0,s0
 368 0016 97000000 		call	LITE_free_internal
 368      E7800000 
 369              	.LVL35:
 370              	.L40:
  92:C:/Users/stapi/OneDrive/Desktop/GD32VW553/V1_MQTT_OK/GD32VW55X_Wifi_BLE_SDK/GD32VW55x_RELEASE_V1.0.2/MSDK/cloud/alicloud/src/services/ota/impl\ota_lib.c ****     }
  93:C:/Users/stapi/OneDrive/Desktop/GD32VW553/V1_MQTT_OK/GD32VW55X_Wifi_BLE_SDK/GD32VW55x_RELEASE_V1.0.2/MSDK/cloud/alicloud/src/services/ota/impl\ota_lib.c **** }
 371              		.loc 1 93 1 is_stmt 0
 372 001e 17030000 		tail	__riscv_restore_1
 372      67000300 
 373              		.cfi_restore 8
 374              		.cfi_restore 1
 375              		.cfi_def_cfa_offset 0
 376              		.cfi_endproc
 377              	.LFE28:
 379              		.section	.rodata.otalib_GetFirmwareFixlenPara.str1.4,"aMS",@progbits,1
 380              		.align	2
 381              	.LC0:
 382 0000 5B657272 		.string	"[err] "
 382      5D2000
 383 0007 00       		.align	2
 384              	.LC1:
 385 0008 4E6F7420 		.string	"Not '%s' key in json doc of OTA"
 385      27257327 
 385      206B6579 
 385      20696E20 
 385      6A736F6E 
 386              		.align	2
 387              	.LC2:
 388 0028 0D0A00   		.string	"\r\n"
 389 002b 00       		.align	2
 390              	.LC3:
 391 002c 76616C75 		.string	"value length of the key is too long"
 391      65206C65 
 391      6E677468 
 391      206F6620 
 391      74686520 
 392              		.section	.text.otalib_GetFirmwareFixlenPara,"ax",@progbits
 393              		.align	1
 394              		.globl	otalib_GetFirmwareFixlenPara
 396              	otalib_GetFirmwareFixlenPara:
 397              	.LFB29:
  94:C:/Users/stapi/OneDrive/Desktop/GD32VW553/V1_MQTT_OK/GD32VW55X_Wifi_BLE_SDK/GD32VW55x_RELEASE_V1.0.2/MSDK/cloud/alicloud/src/services/ota/impl\ota_lib.c **** /* Get the specific @key value, and copy to @dest */
  95:C:/Users/stapi/OneDrive/Desktop/GD32VW553/V1_MQTT_OK/GD32VW55X_Wifi_BLE_SDK/GD32VW55x_RELEASE_V1.0.2/MSDK/cloud/alicloud/src/services/ota/impl\ota_lib.c **** /* 0, successful; -1, failed */
  96:C:/Users/stapi/OneDrive/Desktop/GD32VW553/V1_MQTT_OK/GD32VW55X_Wifi_BLE_SDK/GD32VW55x_RELEASE_V1.0.2/MSDK/cloud/alicloud/src/services/ota/impl\ota_lib.c **** int otalib_GetFirmwareFixlenPara(const char *json_doc,
  97:C:/Users/stapi/OneDrive/Desktop/GD32VW553/V1_MQTT_OK/GD32VW55X_Wifi_BLE_SDK/GD32VW55x_RELEASE_V1.0.2/MSDK/cloud/alicloud/src/services/ota/impl\ota_lib.c ****                                  size_t json_doc_len,
  98:C:/Users/stapi/OneDrive/Desktop/GD32VW553/V1_MQTT_OK/GD32VW55X_Wifi_BLE_SDK/GD32VW55x_RELEASE_V1.0.2/MSDK/cloud/alicloud/src/services/ota/impl\ota_lib.c ****                                  const char *key,
  99:C:/Users/stapi/OneDrive/Desktop/GD32VW553/V1_MQTT_OK/GD32VW55X_Wifi_BLE_SDK/GD32VW55x_RELEASE_V1.0.2/MSDK/cloud/alicloud/src/services/ota/impl\ota_lib.c ****                                  char *dest,
 100:C:/Users/stapi/OneDrive/Desktop/GD32VW553/V1_MQTT_OK/GD32VW55X_Wifi_BLE_SDK/GD32VW55x_RELEASE_V1.0.2/MSDK/cloud/alicloud/src/services/ota/impl\ota_lib.c ****                                  size_t dest_len)
 101:C:/Users/stapi/OneDrive/Desktop/GD32VW553/V1_MQTT_OK/GD32VW55X_Wifi_BLE_SDK/GD32VW55x_RELEASE_V1.0.2/MSDK/cloud/alicloud/src/services/ota/impl\ota_lib.c **** {
 398              		.loc 1 101 1 is_stmt 1
 399              		.cfi_startproc
 400              	.LVL36:
 401 0000 17030000 		call	t0,__riscv_save_3
 401      E7020300 
 402              		.cfi_offset 18, -16
 403              		.cfi_offset 9, -12
 404              		.cfi_offset 8, -8
 405              		.cfi_offset 1, -4
 406              		.cfi_def_cfa_offset 16
 102:C:/Users/stapi/OneDrive/Desktop/GD32VW553/V1_MQTT_OK/GD32VW55X_Wifi_BLE_SDK/GD32VW55x_RELEASE_V1.0.2/MSDK/cloud/alicloud/src/services/ota/impl\ota_lib.c ****     const char *pvalue;
 407              		.loc 1 102 5
 103:C:/Users/stapi/OneDrive/Desktop/GD32VW553/V1_MQTT_OK/GD32VW55X_Wifi_BLE_SDK/GD32VW55x_RELEASE_V1.0.2/MSDK/cloud/alicloud/src/services/ota/impl\ota_lib.c ****     uint32_t val_len;
 408              		.loc 1 103 5
 104:C:/Users/stapi/OneDrive/Desktop/GD32VW553/V1_MQTT_OK/GD32VW55X_Wifi_BLE_SDK/GD32VW55x_RELEASE_V1.0.2/MSDK/cloud/alicloud/src/services/ota/impl\ota_lib.c **** 
 105:C:/Users/stapi/OneDrive/Desktop/GD32VW553/V1_MQTT_OK/GD32VW55X_Wifi_BLE_SDK/GD32VW55x_RELEASE_V1.0.2/MSDK/cloud/alicloud/src/services/ota/impl\ota_lib.c ****     if (NULL == (pvalue = otalib_JsonValueOf(json_doc, json_doc_len, key, &val_len))) {
 409              		.loc 1 105 5
 101:C:/Users/stapi/OneDrive/Desktop/GD32VW553/V1_MQTT_OK/GD32VW55X_Wifi_BLE_SDK/GD32VW55x_RELEASE_V1.0.2/MSDK/cloud/alicloud/src/services/ota/impl\ota_lib.c ****     const char *pvalue;
 410              		.loc 1 101 1 is_stmt 0
 411 0008 4111     		addi	sp,sp,-16
 412              		.cfi_def_cfa_offset 32
 101:C:/Users/stapi/OneDrive/Desktop/GD32VW553/V1_MQTT_OK/GD32VW55X_Wifi_BLE_SDK/GD32VW55x_RELEASE_V1.0.2/MSDK/cloud/alicloud/src/services/ota/impl\ota_lib.c ****     const char *pvalue;
 413              		.loc 1 101 1
 414 000a 3684     		mv	s0,a3
 415              		.loc 1 105 27
 416 000c 7400     		addi	a3,sp,12
 417              	.LVL37:
 101:C:/Users/stapi/OneDrive/Desktop/GD32VW553/V1_MQTT_OK/GD32VW55X_Wifi_BLE_SDK/GD32VW55x_RELEASE_V1.0.2/MSDK/cloud/alicloud/src/services/ota/impl\ota_lib.c ****     const char *pvalue;
 418              		.loc 1 101 1
 419 000e 3289     		mv	s2,a2
 420 0010 BA84     		mv	s1,a4
 421              		.loc 1 105 27
 422 0012 97000000 		call	otalib_JsonValueOf
 422      E7800000 
 423              	.LVL38:
 424              		.loc 1 105 8
 425 001a 21E1     		bne	a0,zero,.L47
 106:C:/Users/stapi/OneDrive/Desktop/GD32VW553/V1_MQTT_OK/GD32VW55X_Wifi_BLE_SDK/GD32VW55x_RELEASE_V1.0.2/MSDK/cloud/alicloud/src/services/ota/impl\ota_lib.c ****         OTA_LOG_ERROR("Not '%s' key in json doc of OTA", key);
 426              		.loc 1 106 9 is_stmt 1
 427              		.loc 1 106 9
 428 001c 37050000 		lui	a0,%hi(.LC0)
 429              	.LVL39:
 430 0020 13050500 		addi	a0,a0,%lo(.LC0)
 431 0024 97000000 		call	HAL_Printf
 431      E7800000 
 432              	.LVL40:
 433              		.loc 1 106 9
 434 002c 37050000 		lui	a0,%hi(.LC1)
 435 0030 CA85     		mv	a1,s2
 436 0032 13050500 		addi	a0,a0,%lo(.LC1)
 437 0036 97000000 		call	HAL_Printf
 437      E7800000 
 438              	.LVL41:
 439              		.loc 1 106 9
 440              	.L51:
 107:C:/Users/stapi/OneDrive/Desktop/GD32VW553/V1_MQTT_OK/GD32VW55X_Wifi_BLE_SDK/GD32VW55x_RELEASE_V1.0.2/MSDK/cloud/alicloud/src/services/ota/impl\ota_lib.c ****         return -1;
 108:C:/Users/stapi/OneDrive/Desktop/GD32VW553/V1_MQTT_OK/GD32VW55X_Wifi_BLE_SDK/GD32VW55x_RELEASE_V1.0.2/MSDK/cloud/alicloud/src/services/ota/impl\ota_lib.c ****     }
 109:C:/Users/stapi/OneDrive/Desktop/GD32VW553/V1_MQTT_OK/GD32VW55X_Wifi_BLE_SDK/GD32VW55x_RELEASE_V1.0.2/MSDK/cloud/alicloud/src/services/ota/impl\ota_lib.c **** 
 110:C:/Users/stapi/OneDrive/Desktop/GD32VW553/V1_MQTT_OK/GD32VW55X_Wifi_BLE_SDK/GD32VW55x_RELEASE_V1.0.2/MSDK/cloud/alicloud/src/services/ota/impl\ota_lib.c ****     if (val_len > dest_len) {
 111:C:/Users/stapi/OneDrive/Desktop/GD32VW553/V1_MQTT_OK/GD32VW55X_Wifi_BLE_SDK/GD32VW55x_RELEASE_V1.0.2/MSDK/cloud/alicloud/src/services/ota/impl\ota_lib.c ****         OTA_LOG_ERROR("value length of the key is too long");
 441              		.loc 1 111 9
 442 003e 37050000 		lui	a0,%hi(.LC2)
 443 0042 13050500 		addi	a0,a0,%lo(.LC2)
 444 0046 97000000 		call	HAL_Printf
 444      E7800000 
 445              	.LVL42:
 446              		.loc 1 111 9
 112:C:/Users/stapi/OneDrive/Desktop/GD32VW553/V1_MQTT_OK/GD32VW55X_Wifi_BLE_SDK/GD32VW55x_RELEASE_V1.0.2/MSDK/cloud/alicloud/src/services/ota/impl\ota_lib.c ****         return -1;
 447              		.loc 1 112 9
 448              		.loc 1 112 16 is_stmt 0
 449 004e 7D55     		li	a0,-1
 450              	.L46:
 113:C:/Users/stapi/OneDrive/Desktop/GD32VW553/V1_MQTT_OK/GD32VW55X_Wifi_BLE_SDK/GD32VW55x_RELEASE_V1.0.2/MSDK/cloud/alicloud/src/services/ota/impl\ota_lib.c ****     }
 114:C:/Users/stapi/OneDrive/Desktop/GD32VW553/V1_MQTT_OK/GD32VW55X_Wifi_BLE_SDK/GD32VW55x_RELEASE_V1.0.2/MSDK/cloud/alicloud/src/services/ota/impl\ota_lib.c **** 
 115:C:/Users/stapi/OneDrive/Desktop/GD32VW553/V1_MQTT_OK/GD32VW55X_Wifi_BLE_SDK/GD32VW55x_RELEASE_V1.0.2/MSDK/cloud/alicloud/src/services/ota/impl\ota_lib.c ****     memcpy(dest, pvalue, val_len);
 116:C:/Users/stapi/OneDrive/Desktop/GD32VW553/V1_MQTT_OK/GD32VW55X_Wifi_BLE_SDK/GD32VW55x_RELEASE_V1.0.2/MSDK/cloud/alicloud/src/services/ota/impl\ota_lib.c **** 
 117:C:/Users/stapi/OneDrive/Desktop/GD32VW553/V1_MQTT_OK/GD32VW55X_Wifi_BLE_SDK/GD32VW55x_RELEASE_V1.0.2/MSDK/cloud/alicloud/src/services/ota/impl\ota_lib.c ****     return 0;
 118:C:/Users/stapi/OneDrive/Desktop/GD32VW553/V1_MQTT_OK/GD32VW55X_Wifi_BLE_SDK/GD32VW55x_RELEASE_V1.0.2/MSDK/cloud/alicloud/src/services/ota/impl\ota_lib.c **** }
 451              		.loc 1 118 1
 452 0050 4101     		addi	sp,sp,16
 453              		.cfi_remember_state
 454              		.cfi_def_cfa_offset 0
 455 0052 17030000 		tail	__riscv_restore_3
 455      67000300 
 456              		.cfi_restore 18
 457              		.cfi_restore 9
 458              		.cfi_restore 8
 459              		.cfi_restore 1
 460              		.cfi_def_cfa_offset -16
 461              	.LVL43:
 462              	.L47:
 463              		.cfi_restore_state
 110:C:/Users/stapi/OneDrive/Desktop/GD32VW553/V1_MQTT_OK/GD32VW55X_Wifi_BLE_SDK/GD32VW55x_RELEASE_V1.0.2/MSDK/cloud/alicloud/src/services/ota/impl\ota_lib.c ****         OTA_LOG_ERROR("value length of the key is too long");
 464              		.loc 1 110 5 is_stmt 1
 110:C:/Users/stapi/OneDrive/Desktop/GD32VW553/V1_MQTT_OK/GD32VW55X_Wifi_BLE_SDK/GD32VW55x_RELEASE_V1.0.2/MSDK/cloud/alicloud/src/services/ota/impl\ota_lib.c ****         OTA_LOG_ERROR("value length of the key is too long");
 465              		.loc 1 110 17 is_stmt 0
 466 005a 3246     		lw	a2,12(sp)
 110:C:/Users/stapi/OneDrive/Desktop/GD32VW553/V1_MQTT_OK/GD32VW55X_Wifi_BLE_SDK/GD32VW55x_RELEASE_V1.0.2/MSDK/cloud/alicloud/src/services/ota/impl\ota_lib.c ****         OTA_LOG_ERROR("value length of the key is too long");
 467              		.loc 1 110 8
 468 005c 63F3C402 		bleu	a2,s1,.L49
 111:C:/Users/stapi/OneDrive/Desktop/GD32VW553/V1_MQTT_OK/GD32VW55X_Wifi_BLE_SDK/GD32VW55x_RELEASE_V1.0.2/MSDK/cloud/alicloud/src/services/ota/impl\ota_lib.c ****         return -1;
 469              		.loc 1 111 9 is_stmt 1
 111:C:/Users/stapi/OneDrive/Desktop/GD32VW553/V1_MQTT_OK/GD32VW55X_Wifi_BLE_SDK/GD32VW55x_RELEASE_V1.0.2/MSDK/cloud/alicloud/src/services/ota/impl\ota_lib.c ****         return -1;
 470              		.loc 1 111 9
 471 0060 37050000 		lui	a0,%hi(.LC0)
 472              	.LVL44:
 473 0064 13050500 		addi	a0,a0,%lo(.LC0)
 474 0068 97000000 		call	HAL_Printf
 474      E7800000 
 475              	.LVL45:
 111:C:/Users/stapi/OneDrive/Desktop/GD32VW553/V1_MQTT_OK/GD32VW55X_Wifi_BLE_SDK/GD32VW55x_RELEASE_V1.0.2/MSDK/cloud/alicloud/src/services/ota/impl\ota_lib.c ****         return -1;
 476              		.loc 1 111 9
 477 0070 37050000 		lui	a0,%hi(.LC3)
 478 0074 13050500 		addi	a0,a0,%lo(.LC3)
 479 0078 97000000 		call	HAL_Printf
 479      E7800000 
 480              	.LVL46:
 481 0080 7DBF     		j	.L51
 482              	.LVL47:
 483              	.L49:
 484 0082 AA85     		mv	a1,a0
 115:C:/Users/stapi/OneDrive/Desktop/GD32VW553/V1_MQTT_OK/GD32VW55X_Wifi_BLE_SDK/GD32VW55x_RELEASE_V1.0.2/MSDK/cloud/alicloud/src/services/ota/impl\ota_lib.c **** 
 485              		.loc 1 115 5
 486 0084 2285     		mv	a0,s0
 487              	.LVL48:
 488 0086 97000000 		call	memcpy
 488      E7800000 
 489              	.LVL49:
 117:C:/Users/stapi/OneDrive/Desktop/GD32VW553/V1_MQTT_OK/GD32VW55X_Wifi_BLE_SDK/GD32VW55x_RELEASE_V1.0.2/MSDK/cloud/alicloud/src/services/ota/impl\ota_lib.c **** }
 490              		.loc 1 117 5
 117:C:/Users/stapi/OneDrive/Desktop/GD32VW553/V1_MQTT_OK/GD32VW55X_Wifi_BLE_SDK/GD32VW55x_RELEASE_V1.0.2/MSDK/cloud/alicloud/src/services/ota/impl\ota_lib.c **** }
 491              		.loc 1 117 12 is_stmt 0
 492 008e 0145     		li	a0,0
 493 0090 C1B7     		j	.L46
 494              		.cfi_endproc
 495              	.LFE29:
 497              		.section	.rodata.otalib_GetFirmwareVarlenPara.str1.4,"aMS",@progbits,1
 498              		.align	2
 499              	.LC4:
 500 0000 4E6F7420 		.string	"Not %s key in json doc of OTA"
 500      2573206B 
 500      65792069 
 500      6E206A73 
 500      6F6E2064 
 501 001e 0000     		.align	2
 502              	.LC5:
 503 0020 616C6C6F 		.string	"allocate for dest failed"
 503      63617465 
 503      20666F72 
 503      20646573 
 503      74206661 
 504              		.section	.text.otalib_GetFirmwareVarlenPara,"ax",@progbits
 505              		.align	1
 506              		.globl	otalib_GetFirmwareVarlenPara
 508              	otalib_GetFirmwareVarlenPara:
 509              	.LFB30:
 119:C:/Users/stapi/OneDrive/Desktop/GD32VW553/V1_MQTT_OK/GD32VW55X_Wifi_BLE_SDK/GD32VW55x_RELEASE_V1.0.2/MSDK/cloud/alicloud/src/services/ota/impl\ota_lib.c **** 
 120:C:/Users/stapi/OneDrive/Desktop/GD32VW553/V1_MQTT_OK/GD32VW55X_Wifi_BLE_SDK/GD32VW55x_RELEASE_V1.0.2/MSDK/cloud/alicloud/src/services/ota/impl\ota_lib.c **** 
 121:C:/Users/stapi/OneDrive/Desktop/GD32VW553/V1_MQTT_OK/GD32VW55X_Wifi_BLE_SDK/GD32VW55x_RELEASE_V1.0.2/MSDK/cloud/alicloud/src/services/ota/impl\ota_lib.c **** /* Get variant length parameter of firmware, and copy to @dest */
 122:C:/Users/stapi/OneDrive/Desktop/GD32VW553/V1_MQTT_OK/GD32VW55X_Wifi_BLE_SDK/GD32VW55x_RELEASE_V1.0.2/MSDK/cloud/alicloud/src/services/ota/impl\ota_lib.c **** /* 0, successful; -1, failed */
 123:C:/Users/stapi/OneDrive/Desktop/GD32VW553/V1_MQTT_OK/GD32VW55X_Wifi_BLE_SDK/GD32VW55x_RELEASE_V1.0.2/MSDK/cloud/alicloud/src/services/ota/impl\ota_lib.c **** int otalib_GetFirmwareVarlenPara(const char *json_doc,
 124:C:/Users/stapi/OneDrive/Desktop/GD32VW553/V1_MQTT_OK/GD32VW55X_Wifi_BLE_SDK/GD32VW55x_RELEASE_V1.0.2/MSDK/cloud/alicloud/src/services/ota/impl\ota_lib.c ****                                  size_t json_doc_len,
 125:C:/Users/stapi/OneDrive/Desktop/GD32VW553/V1_MQTT_OK/GD32VW55X_Wifi_BLE_SDK/GD32VW55x_RELEASE_V1.0.2/MSDK/cloud/alicloud/src/services/ota/impl\ota_lib.c ****                                  const char *key,
 126:C:/Users/stapi/OneDrive/Desktop/GD32VW553/V1_MQTT_OK/GD32VW55X_Wifi_BLE_SDK/GD32VW55x_RELEASE_V1.0.2/MSDK/cloud/alicloud/src/services/ota/impl\ota_lib.c ****                                  char **dest)
 127:C:/Users/stapi/OneDrive/Desktop/GD32VW553/V1_MQTT_OK/GD32VW55X_Wifi_BLE_SDK/GD32VW55x_RELEASE_V1.0.2/MSDK/cloud/alicloud/src/services/ota/impl\ota_lib.c **** {
 510              		.loc 1 127 1 is_stmt 1
 511              		.cfi_startproc
 512              	.LVL50:
 513 0000 17030000 		call	t0,__riscv_save_3
 513      E7020300 
 514              		.cfi_offset 18, -16
 515              		.cfi_offset 9, -12
 516              		.cfi_offset 8, -8
 517              		.cfi_offset 1, -4
 518              		.cfi_def_cfa_offset 16
 128:C:/Users/stapi/OneDrive/Desktop/GD32VW553/V1_MQTT_OK/GD32VW55X_Wifi_BLE_SDK/GD32VW55x_RELEASE_V1.0.2/MSDK/cloud/alicloud/src/services/ota/impl\ota_lib.c ****     const char *pvalue;
 519              		.loc 1 128 5
 129:C:/Users/stapi/OneDrive/Desktop/GD32VW553/V1_MQTT_OK/GD32VW55X_Wifi_BLE_SDK/GD32VW55x_RELEASE_V1.0.2/MSDK/cloud/alicloud/src/services/ota/impl\ota_lib.c ****     uint32_t val_len;
 520              		.loc 1 129 5
 130:C:/Users/stapi/OneDrive/Desktop/GD32VW553/V1_MQTT_OK/GD32VW55X_Wifi_BLE_SDK/GD32VW55x_RELEASE_V1.0.2/MSDK/cloud/alicloud/src/services/ota/impl\ota_lib.c **** 
 131:C:/Users/stapi/OneDrive/Desktop/GD32VW553/V1_MQTT_OK/GD32VW55X_Wifi_BLE_SDK/GD32VW55x_RELEASE_V1.0.2/MSDK/cloud/alicloud/src/services/ota/impl\ota_lib.c ****     if (NULL == (pvalue = otalib_JsonValueOf(json_doc, json_doc_len, key, &val_len))) {
 521              		.loc 1 131 5
 127:C:/Users/stapi/OneDrive/Desktop/GD32VW553/V1_MQTT_OK/GD32VW55X_Wifi_BLE_SDK/GD32VW55x_RELEASE_V1.0.2/MSDK/cloud/alicloud/src/services/ota/impl\ota_lib.c ****     const char *pvalue;
 522              		.loc 1 127 1 is_stmt 0
 523 0008 4111     		addi	sp,sp,-16
 524              		.cfi_def_cfa_offset 32
 127:C:/Users/stapi/OneDrive/Desktop/GD32VW553/V1_MQTT_OK/GD32VW55X_Wifi_BLE_SDK/GD32VW55x_RELEASE_V1.0.2/MSDK/cloud/alicloud/src/services/ota/impl\ota_lib.c ****     const char *pvalue;
 525              		.loc 1 127 1
 526 000a 3684     		mv	s0,a3
 527              		.loc 1 131 27
 528 000c 7400     		addi	a3,sp,12
 529              	.LVL51:
 127:C:/Users/stapi/OneDrive/Desktop/GD32VW553/V1_MQTT_OK/GD32VW55X_Wifi_BLE_SDK/GD32VW55x_RELEASE_V1.0.2/MSDK/cloud/alicloud/src/services/ota/impl\ota_lib.c ****     const char *pvalue;
 530              		.loc 1 127 1
 531 000e 3289     		mv	s2,a2
 532              		.loc 1 131 27
 533 0010 97000000 		call	otalib_JsonValueOf
 533      E7800000 
 534              	.LVL52:
 535              		.loc 1 131 8
 536 0018 21E1     		bne	a0,zero,.L53
 132:C:/Users/stapi/OneDrive/Desktop/GD32VW553/V1_MQTT_OK/GD32VW55X_Wifi_BLE_SDK/GD32VW55x_RELEASE_V1.0.2/MSDK/cloud/alicloud/src/services/ota/impl\ota_lib.c ****         OTA_LOG_ERROR("Not %s key in json doc of OTA", key);
 537              		.loc 1 132 9 is_stmt 1
 538              		.loc 1 132 9
 539 001a 37050000 		lui	a0,%hi(.LC0)
 540              	.LVL53:
 541 001e 13050500 		addi	a0,a0,%lo(.LC0)
 542 0022 97000000 		call	HAL_Printf
 542      E7800000 
 543              	.LVL54:
 544              		.loc 1 132 9
 545 002a 37050000 		lui	a0,%hi(.LC4)
 546 002e CA85     		mv	a1,s2
 547 0030 13050500 		addi	a0,a0,%lo(.LC4)
 548 0034 97000000 		call	HAL_Printf
 548      E7800000 
 549              	.LVL55:
 550              		.loc 1 132 9
 551              	.L57:
 133:C:/Users/stapi/OneDrive/Desktop/GD32VW553/V1_MQTT_OK/GD32VW55X_Wifi_BLE_SDK/GD32VW55x_RELEASE_V1.0.2/MSDK/cloud/alicloud/src/services/ota/impl\ota_lib.c ****         return -1;
 134:C:/Users/stapi/OneDrive/Desktop/GD32VW553/V1_MQTT_OK/GD32VW55X_Wifi_BLE_SDK/GD32VW55x_RELEASE_V1.0.2/MSDK/cloud/alicloud/src/services/ota/impl\ota_lib.c ****     }
 135:C:/Users/stapi/OneDrive/Desktop/GD32VW553/V1_MQTT_OK/GD32VW55X_Wifi_BLE_SDK/GD32VW55x_RELEASE_V1.0.2/MSDK/cloud/alicloud/src/services/ota/impl\ota_lib.c **** 
 136:C:/Users/stapi/OneDrive/Desktop/GD32VW553/V1_MQTT_OK/GD32VW55X_Wifi_BLE_SDK/GD32VW55x_RELEASE_V1.0.2/MSDK/cloud/alicloud/src/services/ota/impl\ota_lib.c ****     if (NULL == (*dest = OTA_MALLOC(val_len + 1))) {
 137:C:/Users/stapi/OneDrive/Desktop/GD32VW553/V1_MQTT_OK/GD32VW55X_Wifi_BLE_SDK/GD32VW55x_RELEASE_V1.0.2/MSDK/cloud/alicloud/src/services/ota/impl\ota_lib.c ****         OTA_LOG_ERROR("allocate for dest failed");
 552              		.loc 1 137 9
 553 003c 37050000 		lui	a0,%hi(.LC2)
 554 0040 13050500 		addi	a0,a0,%lo(.LC2)
 555 0044 97000000 		call	HAL_Printf
 555      E7800000 
 556              	.LVL56:
 557              		.loc 1 137 9
 138:C:/Users/stapi/OneDrive/Desktop/GD32VW553/V1_MQTT_OK/GD32VW55X_Wifi_BLE_SDK/GD32VW55x_RELEASE_V1.0.2/MSDK/cloud/alicloud/src/services/ota/impl\ota_lib.c ****         return -1;
 558              		.loc 1 138 9
 559              		.loc 1 138 16 is_stmt 0
 560 004c 7D55     		li	a0,-1
 561              	.L52:
 139:C:/Users/stapi/OneDrive/Desktop/GD32VW553/V1_MQTT_OK/GD32VW55X_Wifi_BLE_SDK/GD32VW55x_RELEASE_V1.0.2/MSDK/cloud/alicloud/src/services/ota/impl\ota_lib.c ****     }
 140:C:/Users/stapi/OneDrive/Desktop/GD32VW553/V1_MQTT_OK/GD32VW55X_Wifi_BLE_SDK/GD32VW55x_RELEASE_V1.0.2/MSDK/cloud/alicloud/src/services/ota/impl\ota_lib.c **** 
 141:C:/Users/stapi/OneDrive/Desktop/GD32VW553/V1_MQTT_OK/GD32VW55X_Wifi_BLE_SDK/GD32VW55x_RELEASE_V1.0.2/MSDK/cloud/alicloud/src/services/ota/impl\ota_lib.c ****     memcpy(*dest, pvalue, val_len);
 142:C:/Users/stapi/OneDrive/Desktop/GD32VW553/V1_MQTT_OK/GD32VW55X_Wifi_BLE_SDK/GD32VW55x_RELEASE_V1.0.2/MSDK/cloud/alicloud/src/services/ota/impl\ota_lib.c ****     (*dest)[val_len] = '\0';
 143:C:/Users/stapi/OneDrive/Desktop/GD32VW553/V1_MQTT_OK/GD32VW55X_Wifi_BLE_SDK/GD32VW55x_RELEASE_V1.0.2/MSDK/cloud/alicloud/src/services/ota/impl\ota_lib.c **** 
 144:C:/Users/stapi/OneDrive/Desktop/GD32VW553/V1_MQTT_OK/GD32VW55X_Wifi_BLE_SDK/GD32VW55x_RELEASE_V1.0.2/MSDK/cloud/alicloud/src/services/ota/impl\ota_lib.c ****     return 0;
 145:C:/Users/stapi/OneDrive/Desktop/GD32VW553/V1_MQTT_OK/GD32VW55X_Wifi_BLE_SDK/GD32VW55x_RELEASE_V1.0.2/MSDK/cloud/alicloud/src/services/ota/impl\ota_lib.c **** }
 562              		.loc 1 145 1
 563 004e 4101     		addi	sp,sp,16
 564              		.cfi_remember_state
 565              		.cfi_def_cfa_offset 0
 566 0050 17030000 		tail	__riscv_restore_3
 566      67000300 
 567              		.cfi_restore 18
 568              		.cfi_restore 9
 569              		.cfi_restore 8
 570              		.cfi_restore 1
 571              		.cfi_def_cfa_offset -16
 572              	.LVL57:
 573              	.L53:
 574              		.cfi_restore_state
 136:C:/Users/stapi/OneDrive/Desktop/GD32VW553/V1_MQTT_OK/GD32VW55X_Wifi_BLE_SDK/GD32VW55x_RELEASE_V1.0.2/MSDK/cloud/alicloud/src/services/ota/impl\ota_lib.c ****         OTA_LOG_ERROR("allocate for dest failed");
 575              		.loc 1 136 26
 576 0058 3246     		lw	a2,12(sp)
 577 005a AA84     		mv	s1,a0
 136:C:/Users/stapi/OneDrive/Desktop/GD32VW553/V1_MQTT_OK/GD32VW55X_Wifi_BLE_SDK/GD32VW55x_RELEASE_V1.0.2/MSDK/cloud/alicloud/src/services/ota/impl\ota_lib.c ****         OTA_LOG_ERROR("allocate for dest failed");
 578              		.loc 1 136 5 is_stmt 1
 136:C:/Users/stapi/OneDrive/Desktop/GD32VW553/V1_MQTT_OK/GD32VW55X_Wifi_BLE_SDK/GD32VW55x_RELEASE_V1.0.2/MSDK/cloud/alicloud/src/services/ota/impl\ota_lib.c ****         OTA_LOG_ERROR("allocate for dest failed");
 579              		.loc 1 136 26 is_stmt 0
 580 005c 8145     		li	a1,0
 581 005e 0506     		addi	a2,a2,1
 582 0060 0145     		li	a0,0
 583              	.LVL58:
 584 0062 97000000 		call	LITE_malloc_internal
 584      E7800000 
 585              	.LVL59:
 136:C:/Users/stapi/OneDrive/Desktop/GD32VW553/V1_MQTT_OK/GD32VW55X_Wifi_BLE_SDK/GD32VW55x_RELEASE_V1.0.2/MSDK/cloud/alicloud/src/services/ota/impl\ota_lib.c ****         OTA_LOG_ERROR("allocate for dest failed");
 586              		.loc 1 136 24
 587 006a 08C0     		sw	a0,0(s0)
 136:C:/Users/stapi/OneDrive/Desktop/GD32VW553/V1_MQTT_OK/GD32VW55X_Wifi_BLE_SDK/GD32VW55x_RELEASE_V1.0.2/MSDK/cloud/alicloud/src/services/ota/impl\ota_lib.c ****         OTA_LOG_ERROR("allocate for dest failed");
 588              		.loc 1 136 8
 589 006c 15E1     		bne	a0,zero,.L55
 137:C:/Users/stapi/OneDrive/Desktop/GD32VW553/V1_MQTT_OK/GD32VW55X_Wifi_BLE_SDK/GD32VW55x_RELEASE_V1.0.2/MSDK/cloud/alicloud/src/services/ota/impl\ota_lib.c ****         return -1;
 590              		.loc 1 137 9 is_stmt 1
 137:C:/Users/stapi/OneDrive/Desktop/GD32VW553/V1_MQTT_OK/GD32VW55X_Wifi_BLE_SDK/GD32VW55x_RELEASE_V1.0.2/MSDK/cloud/alicloud/src/services/ota/impl\ota_lib.c ****         return -1;
 591              		.loc 1 137 9
 592 006e 37050000 		lui	a0,%hi(.LC0)
 593 0072 13050500 		addi	a0,a0,%lo(.LC0)
 594 0076 97000000 		call	HAL_Printf
 594      E7800000 
 595              	.LVL60:
 137:C:/Users/stapi/OneDrive/Desktop/GD32VW553/V1_MQTT_OK/GD32VW55X_Wifi_BLE_SDK/GD32VW55x_RELEASE_V1.0.2/MSDK/cloud/alicloud/src/services/ota/impl\ota_lib.c ****         return -1;
 596              		.loc 1 137 9
 597 007e 37050000 		lui	a0,%hi(.LC5)
 598 0082 13050500 		addi	a0,a0,%lo(.LC5)
 599 0086 97000000 		call	HAL_Printf
 599      E7800000 
 600              	.LVL61:
 601 008e 7DB7     		j	.L57
 602              	.L55:
 141:C:/Users/stapi/OneDrive/Desktop/GD32VW553/V1_MQTT_OK/GD32VW55X_Wifi_BLE_SDK/GD32VW55x_RELEASE_V1.0.2/MSDK/cloud/alicloud/src/services/ota/impl\ota_lib.c ****     (*dest)[val_len] = '\0';
 603              		.loc 1 141 5
 604 0090 3246     		lw	a2,12(sp)
 605 0092 A685     		mv	a1,s1
 606 0094 97000000 		call	memcpy
 606      E7800000 
 607              	.LVL62:
 142:C:/Users/stapi/OneDrive/Desktop/GD32VW553/V1_MQTT_OK/GD32VW55X_Wifi_BLE_SDK/GD32VW55x_RELEASE_V1.0.2/MSDK/cloud/alicloud/src/services/ota/impl\ota_lib.c **** 
 608              		.loc 1 142 5
 142:C:/Users/stapi/OneDrive/Desktop/GD32VW553/V1_MQTT_OK/GD32VW55X_Wifi_BLE_SDK/GD32VW55x_RELEASE_V1.0.2/MSDK/cloud/alicloud/src/services/ota/impl\ota_lib.c **** 
 609              		.loc 1 142 22 is_stmt 0
 610 009c 1C40     		lw	a5,0(s0)
 611 009e 3247     		lw	a4,12(sp)
 144:C:/Users/stapi/OneDrive/Desktop/GD32VW553/V1_MQTT_OK/GD32VW55X_Wifi_BLE_SDK/GD32VW55x_RELEASE_V1.0.2/MSDK/cloud/alicloud/src/services/ota/impl\ota_lib.c **** }
 612              		.loc 1 144 12
 613 00a0 0145     		li	a0,0
 142:C:/Users/stapi/OneDrive/Desktop/GD32VW553/V1_MQTT_OK/GD32VW55X_Wifi_BLE_SDK/GD32VW55x_RELEASE_V1.0.2/MSDK/cloud/alicloud/src/services/ota/impl\ota_lib.c **** 
 614              		.loc 1 142 22
 615 00a2 BA97     		add	a5,a5,a4
 616 00a4 23800700 		sb	zero,0(a5)
 144:C:/Users/stapi/OneDrive/Desktop/GD32VW553/V1_MQTT_OK/GD32VW55X_Wifi_BLE_SDK/GD32VW55x_RELEASE_V1.0.2/MSDK/cloud/alicloud/src/services/ota/impl\ota_lib.c **** }
 617              		.loc 1 144 5 is_stmt 1
 144:C:/Users/stapi/OneDrive/Desktop/GD32VW553/V1_MQTT_OK/GD32VW55X_Wifi_BLE_SDK/GD32VW55x_RELEASE_V1.0.2/MSDK/cloud/alicloud/src/services/ota/impl\ota_lib.c **** }
 618              		.loc 1 144 12 is_stmt 0
 619 00a8 5DB7     		j	.L52
 620              		.cfi_endproc
 621              	.LFE30:
 623              		.section	.rodata.otalib_GetParams.str1.4,"aMS",@progbits,1
 624              		.align	2
 625              	.LC6:
 626 0000 76657273 		.string	"version"
 626      696F6E00 
 627              		.align	2
 628              	.LC7:
 629 0008 67657420 		.string	"get value of version key failed"
 629      76616C75 
 629      65206F66 
 629      20766572 
 629      73696F6E 
 630              		.align	2
 631              	.LC8:
 632 0028 75726C00 		.string	"url"
 633              		.align	2
 634              	.LC9:
 635 002c 67657420 		.string	"get value of url key failed"
 635      76616C75 
 635      65206F66 
 635      2075726C 
 635      206B6579 
 636              		.align	2
 637              	.LC10:
 638 0048 6D643500 		.string	"md5"
 639              		.align	2
 640              	.LC11:
 641 004c 67657420 		.string	"get value of md5 key failed"
 641      76616C75 
 641      65206F66 
 641      206D6435 
 641      206B6579 
 642              		.align	2
 643              	.LC12:
 644 0068 73697A65 		.string	"size"
 644      00
 645 006d 000000   		.align	2
 646              	.LC13:
 647 0070 67657420 		.string	"get value of size key failed"
 647      76616C75 
 647      65206F66 
 647      2073697A 
 647      65206B65 
 648              		.section	.text.otalib_GetParams,"ax",@progbits
 649              		.align	1
 650              		.globl	otalib_GetParams
 652              	otalib_GetParams:
 653              	.LFB31:
 146:C:/Users/stapi/OneDrive/Desktop/GD32VW553/V1_MQTT_OK/GD32VW55X_Wifi_BLE_SDK/GD32VW55x_RELEASE_V1.0.2/MSDK/cloud/alicloud/src/services/ota/impl\ota_lib.c **** 
 147:C:/Users/stapi/OneDrive/Desktop/GD32VW553/V1_MQTT_OK/GD32VW55X_Wifi_BLE_SDK/GD32VW55x_RELEASE_V1.0.2/MSDK/cloud/alicloud/src/services/ota/impl\ota_lib.c **** int otalib_GetParams(const char *json_doc, uint32_t json_len, char **url, char **version, char *md5
 148:C:/Users/stapi/OneDrive/Desktop/GD32VW553/V1_MQTT_OK/GD32VW55X_Wifi_BLE_SDK/GD32VW55x_RELEASE_V1.0.2/MSDK/cloud/alicloud/src/services/ota/impl\ota_lib.c ****                      uint32_t *file_size)
 149:C:/Users/stapi/OneDrive/Desktop/GD32VW553/V1_MQTT_OK/GD32VW55X_Wifi_BLE_SDK/GD32VW55x_RELEASE_V1.0.2/MSDK/cloud/alicloud/src/services/ota/impl\ota_lib.c **** {
 654              		.loc 1 149 1 is_stmt 1
 655              		.cfi_startproc
 656              	.LVL63:
 657 0000 17030000 		call	t0,__riscv_save_5
 657      E7020300 
 658              		.cfi_offset 20, -24
 659              		.cfi_offset 19, -20
 660              		.cfi_offset 18, -16
 661              		.cfi_offset 9, -12
 662              		.cfi_offset 8, -8
 663              		.cfi_offset 1, -4
 664              		.cfi_def_cfa_offset 32
 150:C:/Users/stapi/OneDrive/Desktop/GD32VW553/V1_MQTT_OK/GD32VW55X_Wifi_BLE_SDK/GD32VW55x_RELEASE_V1.0.2/MSDK/cloud/alicloud/src/services/ota/impl\ota_lib.c **** #define OTA_FILESIZE_STR_LEN    (16)
 151:C:/Users/stapi/OneDrive/Desktop/GD32VW553/V1_MQTT_OK/GD32VW55X_Wifi_BLE_SDK/GD32VW55x_RELEASE_V1.0.2/MSDK/cloud/alicloud/src/services/ota/impl\ota_lib.c ****     char file_size_str[OTA_FILESIZE_STR_LEN + 1] = {0};
 665              		.loc 1 151 5
 149:C:/Users/stapi/OneDrive/Desktop/GD32VW553/V1_MQTT_OK/GD32VW55X_Wifi_BLE_SDK/GD32VW55x_RELEASE_V1.0.2/MSDK/cloud/alicloud/src/services/ota/impl\ota_lib.c **** #define OTA_FILESIZE_STR_LEN    (16)
 666              		.loc 1 149 1 is_stmt 0
 667 0008 328A     		mv	s4,a2
 152:C:/Users/stapi/OneDrive/Desktop/GD32VW553/V1_MQTT_OK/GD32VW55X_Wifi_BLE_SDK/GD32VW55x_RELEASE_V1.0.2/MSDK/cloud/alicloud/src/services/ota/impl\ota_lib.c **** 
 153:C:/Users/stapi/OneDrive/Desktop/GD32VW553/V1_MQTT_OK/GD32VW55X_Wifi_BLE_SDK/GD32VW55x_RELEASE_V1.0.2/MSDK/cloud/alicloud/src/services/ota/impl\ota_lib.c ****     /* get version */
 154:C:/Users/stapi/OneDrive/Desktop/GD32VW553/V1_MQTT_OK/GD32VW55X_Wifi_BLE_SDK/GD32VW55x_RELEASE_V1.0.2/MSDK/cloud/alicloud/src/services/ota/impl\ota_lib.c ****     if (0 != otalib_GetFirmwareVarlenPara(json_doc, json_len, "version", version)) {
 668              		.loc 1 154 14
 669 000a 37060000 		lui	a2,%hi(.LC6)
 670              	.LVL64:
 149:C:/Users/stapi/OneDrive/Desktop/GD32VW553/V1_MQTT_OK/GD32VW55X_Wifi_BLE_SDK/GD32VW55x_RELEASE_V1.0.2/MSDK/cloud/alicloud/src/services/ota/impl\ota_lib.c **** #define OTA_FILESIZE_STR_LEN    (16)
 671              		.loc 1 149 1
 672 000e 0111     		addi	sp,sp,-32
 673              		.cfi_def_cfa_offset 64
 674              		.loc 1 154 14
 675 0010 13060600 		addi	a2,a2,%lo(.LC6)
 149:C:/Users/stapi/OneDrive/Desktop/GD32VW553/V1_MQTT_OK/GD32VW55X_Wifi_BLE_SDK/GD32VW55x_RELEASE_V1.0.2/MSDK/cloud/alicloud/src/services/ota/impl\ota_lib.c **** #define OTA_FILESIZE_STR_LEN    (16)
 676              		.loc 1 149 1
 677 0014 2A84     		mv	s0,a0
 678 0016 AE84     		mv	s1,a1
 679 0018 BA89     		mv	s3,a4
 680 001a 3E89     		mv	s2,a5
 151:C:/Users/stapi/OneDrive/Desktop/GD32VW553/V1_MQTT_OK/GD32VW55X_Wifi_BLE_SDK/GD32VW55x_RELEASE_V1.0.2/MSDK/cloud/alicloud/src/services/ota/impl\ota_lib.c **** 
 681              		.loc 1 151 10
 682 001c 02C6     		sw	zero,12(sp)
 683 001e 02C8     		sw	zero,16(sp)
 684 0020 02CA     		sw	zero,20(sp)
 685 0022 02CC     		sw	zero,24(sp)
 686 0024 230E0100 		sb	zero,28(sp)
 687              		.loc 1 154 5 is_stmt 1
 688              		.loc 1 154 14 is_stmt 0
 689 0028 97000000 		call	otalib_GetFirmwareVarlenPara
 689      E7800000 
 690              	.LVL65:
 691              		.loc 1 154 8
 692 0030 21C1     		beq	a0,zero,.L59
 155:C:/Users/stapi/OneDrive/Desktop/GD32VW553/V1_MQTT_OK/GD32VW55X_Wifi_BLE_SDK/GD32VW55x_RELEASE_V1.0.2/MSDK/cloud/alicloud/src/services/ota/impl\ota_lib.c ****         OTA_LOG_ERROR("get value of version key failed");
 693              		.loc 1 155 9 is_stmt 1
 694              		.loc 1 155 9
 695 0032 37050000 		lui	a0,%hi(.LC0)
 696 0036 13050500 		addi	a0,a0,%lo(.LC0)
 697 003a 97000000 		call	HAL_Printf
 697      E7800000 
 698              	.LVL66:
 699              		.loc 1 155 9
 700 0042 37050000 		lui	a0,%hi(.LC7)
 701 0046 13050500 		addi	a0,a0,%lo(.LC7)
 702              	.LVL67:
 703              	.L65:
 156:C:/Users/stapi/OneDrive/Desktop/GD32VW553/V1_MQTT_OK/GD32VW55X_Wifi_BLE_SDK/GD32VW55x_RELEASE_V1.0.2/MSDK/cloud/alicloud/src/services/ota/impl\ota_lib.c ****         return -1;
 157:C:/Users/stapi/OneDrive/Desktop/GD32VW553/V1_MQTT_OK/GD32VW55X_Wifi_BLE_SDK/GD32VW55x_RELEASE_V1.0.2/MSDK/cloud/alicloud/src/services/ota/impl\ota_lib.c ****     }
 158:C:/Users/stapi/OneDrive/Desktop/GD32VW553/V1_MQTT_OK/GD32VW55X_Wifi_BLE_SDK/GD32VW55x_RELEASE_V1.0.2/MSDK/cloud/alicloud/src/services/ota/impl\ota_lib.c **** 
 159:C:/Users/stapi/OneDrive/Desktop/GD32VW553/V1_MQTT_OK/GD32VW55X_Wifi_BLE_SDK/GD32VW55x_RELEASE_V1.0.2/MSDK/cloud/alicloud/src/services/ota/impl\ota_lib.c ****     /* get URL */
 160:C:/Users/stapi/OneDrive/Desktop/GD32VW553/V1_MQTT_OK/GD32VW55X_Wifi_BLE_SDK/GD32VW55x_RELEASE_V1.0.2/MSDK/cloud/alicloud/src/services/ota/impl\ota_lib.c ****     if (0 != otalib_GetFirmwareVarlenPara(json_doc, json_len, "url", url)) {
 161:C:/Users/stapi/OneDrive/Desktop/GD32VW553/V1_MQTT_OK/GD32VW55X_Wifi_BLE_SDK/GD32VW55x_RELEASE_V1.0.2/MSDK/cloud/alicloud/src/services/ota/impl\ota_lib.c ****         OTA_LOG_ERROR("get value of url key failed");
 162:C:/Users/stapi/OneDrive/Desktop/GD32VW553/V1_MQTT_OK/GD32VW55X_Wifi_BLE_SDK/GD32VW55x_RELEASE_V1.0.2/MSDK/cloud/alicloud/src/services/ota/impl\ota_lib.c ****         return -1;
 163:C:/Users/stapi/OneDrive/Desktop/GD32VW553/V1_MQTT_OK/GD32VW55X_Wifi_BLE_SDK/GD32VW55x_RELEASE_V1.0.2/MSDK/cloud/alicloud/src/services/ota/impl\ota_lib.c ****     }
 164:C:/Users/stapi/OneDrive/Desktop/GD32VW553/V1_MQTT_OK/GD32VW55X_Wifi_BLE_SDK/GD32VW55x_RELEASE_V1.0.2/MSDK/cloud/alicloud/src/services/ota/impl\ota_lib.c **** 
 165:C:/Users/stapi/OneDrive/Desktop/GD32VW553/V1_MQTT_OK/GD32VW55X_Wifi_BLE_SDK/GD32VW55x_RELEASE_V1.0.2/MSDK/cloud/alicloud/src/services/ota/impl\ota_lib.c ****     /* get md5 */
 166:C:/Users/stapi/OneDrive/Desktop/GD32VW553/V1_MQTT_OK/GD32VW55X_Wifi_BLE_SDK/GD32VW55x_RELEASE_V1.0.2/MSDK/cloud/alicloud/src/services/ota/impl\ota_lib.c ****     if (0 != otalib_GetFirmwareFixlenPara(json_doc, json_len, "md5", md5, 32)) {
 167:C:/Users/stapi/OneDrive/Desktop/GD32VW553/V1_MQTT_OK/GD32VW55X_Wifi_BLE_SDK/GD32VW55x_RELEASE_V1.0.2/MSDK/cloud/alicloud/src/services/ota/impl\ota_lib.c ****         OTA_LOG_ERROR("get value of md5 key failed");
 168:C:/Users/stapi/OneDrive/Desktop/GD32VW553/V1_MQTT_OK/GD32VW55X_Wifi_BLE_SDK/GD32VW55x_RELEASE_V1.0.2/MSDK/cloud/alicloud/src/services/ota/impl\ota_lib.c ****         return -1;
 169:C:/Users/stapi/OneDrive/Desktop/GD32VW553/V1_MQTT_OK/GD32VW55X_Wifi_BLE_SDK/GD32VW55x_RELEASE_V1.0.2/MSDK/cloud/alicloud/src/services/ota/impl\ota_lib.c ****     }
 170:C:/Users/stapi/OneDrive/Desktop/GD32VW553/V1_MQTT_OK/GD32VW55X_Wifi_BLE_SDK/GD32VW55x_RELEASE_V1.0.2/MSDK/cloud/alicloud/src/services/ota/impl\ota_lib.c **** 
 171:C:/Users/stapi/OneDrive/Desktop/GD32VW553/V1_MQTT_OK/GD32VW55X_Wifi_BLE_SDK/GD32VW55x_RELEASE_V1.0.2/MSDK/cloud/alicloud/src/services/ota/impl\ota_lib.c ****     /* get file size */
 172:C:/Users/stapi/OneDrive/Desktop/GD32VW553/V1_MQTT_OK/GD32VW55X_Wifi_BLE_SDK/GD32VW55x_RELEASE_V1.0.2/MSDK/cloud/alicloud/src/services/ota/impl\ota_lib.c ****     if (0 != otalib_GetFirmwareFixlenPara(json_doc, json_len, "size", file_size_str, OTA_FILESIZE_S
 173:C:/Users/stapi/OneDrive/Desktop/GD32VW553/V1_MQTT_OK/GD32VW55X_Wifi_BLE_SDK/GD32VW55x_RELEASE_V1.0.2/MSDK/cloud/alicloud/src/services/ota/impl\ota_lib.c ****         OTA_LOG_ERROR("get value of size key failed");
 704              		.loc 1 173 9 is_stmt 0
 705 004a 97000000 		call	HAL_Printf
 705      E7800000 
 706              	.LVL68:
 707              		.loc 1 173 9 is_stmt 1
 708 0052 37050000 		lui	a0,%hi(.LC2)
 709 0056 13050500 		addi	a0,a0,%lo(.LC2)
 710 005a 97000000 		call	HAL_Printf
 710      E7800000 
 711              	.LVL69:
 712              		.loc 1 173 9
 174:C:/Users/stapi/OneDrive/Desktop/GD32VW553/V1_MQTT_OK/GD32VW55X_Wifi_BLE_SDK/GD32VW55x_RELEASE_V1.0.2/MSDK/cloud/alicloud/src/services/ota/impl\ota_lib.c ****         return -1;
 713              		.loc 1 174 9
 714              		.loc 1 174 16 is_stmt 0
 715 0062 7D54     		li	s0,-1
 716              	.L58:
 175:C:/Users/stapi/OneDrive/Desktop/GD32VW553/V1_MQTT_OK/GD32VW55X_Wifi_BLE_SDK/GD32VW55x_RELEASE_V1.0.2/MSDK/cloud/alicloud/src/services/ota/impl\ota_lib.c ****     }
 176:C:/Users/stapi/OneDrive/Desktop/GD32VW553/V1_MQTT_OK/GD32VW55X_Wifi_BLE_SDK/GD32VW55x_RELEASE_V1.0.2/MSDK/cloud/alicloud/src/services/ota/impl\ota_lib.c ****     file_size_str[OTA_FILESIZE_STR_LEN] = '\0';
 177:C:/Users/stapi/OneDrive/Desktop/GD32VW553/V1_MQTT_OK/GD32VW55X_Wifi_BLE_SDK/GD32VW55x_RELEASE_V1.0.2/MSDK/cloud/alicloud/src/services/ota/impl\ota_lib.c ****     *file_size = atoi(file_size_str);
 178:C:/Users/stapi/OneDrive/Desktop/GD32VW553/V1_MQTT_OK/GD32VW55X_Wifi_BLE_SDK/GD32VW55x_RELEASE_V1.0.2/MSDK/cloud/alicloud/src/services/ota/impl\ota_lib.c **** 
 179:C:/Users/stapi/OneDrive/Desktop/GD32VW553/V1_MQTT_OK/GD32VW55X_Wifi_BLE_SDK/GD32VW55x_RELEASE_V1.0.2/MSDK/cloud/alicloud/src/services/ota/impl\ota_lib.c ****     return 0;
 180:C:/Users/stapi/OneDrive/Desktop/GD32VW553/V1_MQTT_OK/GD32VW55X_Wifi_BLE_SDK/GD32VW55x_RELEASE_V1.0.2/MSDK/cloud/alicloud/src/services/ota/impl\ota_lib.c **** 
 181:C:/Users/stapi/OneDrive/Desktop/GD32VW553/V1_MQTT_OK/GD32VW55X_Wifi_BLE_SDK/GD32VW55x_RELEASE_V1.0.2/MSDK/cloud/alicloud/src/services/ota/impl\ota_lib.c **** #undef OTA_FILESIZE_STR_LEN
 182:C:/Users/stapi/OneDrive/Desktop/GD32VW553/V1_MQTT_OK/GD32VW55X_Wifi_BLE_SDK/GD32VW55x_RELEASE_V1.0.2/MSDK/cloud/alicloud/src/services/ota/impl\ota_lib.c **** }
 717              		.loc 1 182 1
 718 0064 2285     		mv	a0,s0
 719 0066 0561     		addi	sp,sp,32
 720              		.cfi_remember_state
 721              		.cfi_def_cfa_offset 0
 722 0068 17030000 		tail	__riscv_restore_5
 722      67000300 
 723              		.cfi_restore 20
 724              		.cfi_restore 19
 725              		.cfi_restore 18
 726              		.cfi_restore 9
 727              		.cfi_restore 8
 728              		.cfi_restore 1
 729              		.cfi_def_cfa_offset -32
 730              	.LVL70:
 731              	.L59:
 732              		.cfi_restore_state
 160:C:/Users/stapi/OneDrive/Desktop/GD32VW553/V1_MQTT_OK/GD32VW55X_Wifi_BLE_SDK/GD32VW55x_RELEASE_V1.0.2/MSDK/cloud/alicloud/src/services/ota/impl\ota_lib.c ****         OTA_LOG_ERROR("get value of url key failed");
 733              		.loc 1 160 5 is_stmt 1
 160:C:/Users/stapi/OneDrive/Desktop/GD32VW553/V1_MQTT_OK/GD32VW55X_Wifi_BLE_SDK/GD32VW55x_RELEASE_V1.0.2/MSDK/cloud/alicloud/src/services/ota/impl\ota_lib.c ****         OTA_LOG_ERROR("get value of url key failed");
 734              		.loc 1 160 14 is_stmt 0
 735 0070 37060000 		lui	a2,%hi(.LC8)
 736 0074 D286     		mv	a3,s4
 737 0076 13060600 		addi	a2,a2,%lo(.LC8)
 738 007a A685     		mv	a1,s1
 739 007c 2285     		mv	a0,s0
 740 007e 97000000 		call	otalib_GetFirmwareVarlenPara
 740      E7800000 
 741              	.LVL71:
 160:C:/Users/stapi/OneDrive/Desktop/GD32VW553/V1_MQTT_OK/GD32VW55X_Wifi_BLE_SDK/GD32VW55x_RELEASE_V1.0.2/MSDK/cloud/alicloud/src/services/ota/impl\ota_lib.c ****         OTA_LOG_ERROR("get value of url key failed");
 742              		.loc 1 160 8
 743 0086 11CD     		beq	a0,zero,.L61
 161:C:/Users/stapi/OneDrive/Desktop/GD32VW553/V1_MQTT_OK/GD32VW55X_Wifi_BLE_SDK/GD32VW55x_RELEASE_V1.0.2/MSDK/cloud/alicloud/src/services/ota/impl\ota_lib.c ****         return -1;
 744              		.loc 1 161 9 is_stmt 1
 161:C:/Users/stapi/OneDrive/Desktop/GD32VW553/V1_MQTT_OK/GD32VW55X_Wifi_BLE_SDK/GD32VW55x_RELEASE_V1.0.2/MSDK/cloud/alicloud/src/services/ota/impl\ota_lib.c ****         return -1;
 745              		.loc 1 161 9
 746 0088 37050000 		lui	a0,%hi(.LC0)
 747 008c 13050500 		addi	a0,a0,%lo(.LC0)
 748 0090 97000000 		call	HAL_Printf
 748      E7800000 
 749              	.LVL72:
 161:C:/Users/stapi/OneDrive/Desktop/GD32VW553/V1_MQTT_OK/GD32VW55X_Wifi_BLE_SDK/GD32VW55x_RELEASE_V1.0.2/MSDK/cloud/alicloud/src/services/ota/impl\ota_lib.c ****         return -1;
 750              		.loc 1 161 9
 751 0098 37050000 		lui	a0,%hi(.LC9)
 752 009c 13050500 		addi	a0,a0,%lo(.LC9)
 753 00a0 6DB7     		j	.L65
 754              	.L61:
 166:C:/Users/stapi/OneDrive/Desktop/GD32VW553/V1_MQTT_OK/GD32VW55X_Wifi_BLE_SDK/GD32VW55x_RELEASE_V1.0.2/MSDK/cloud/alicloud/src/services/ota/impl\ota_lib.c ****         OTA_LOG_ERROR("get value of md5 key failed");
 755              		.loc 1 166 5
 166:C:/Users/stapi/OneDrive/Desktop/GD32VW553/V1_MQTT_OK/GD32VW55X_Wifi_BLE_SDK/GD32VW55x_RELEASE_V1.0.2/MSDK/cloud/alicloud/src/services/ota/impl\ota_lib.c ****         OTA_LOG_ERROR("get value of md5 key failed");
 756              		.loc 1 166 14 is_stmt 0
 757 00a2 37060000 		lui	a2,%hi(.LC10)
 758 00a6 13070002 		li	a4,32
 759 00aa CE86     		mv	a3,s3
 760 00ac 13060600 		addi	a2,a2,%lo(.LC10)
 761 00b0 A685     		mv	a1,s1
 762 00b2 2285     		mv	a0,s0
 763 00b4 97000000 		call	otalib_GetFirmwareFixlenPara
 763      E7800000 
 764              	.LVL73:
 166:C:/Users/stapi/OneDrive/Desktop/GD32VW553/V1_MQTT_OK/GD32VW55X_Wifi_BLE_SDK/GD32VW55x_RELEASE_V1.0.2/MSDK/cloud/alicloud/src/services/ota/impl\ota_lib.c ****         OTA_LOG_ERROR("get value of md5 key failed");
 765              		.loc 1 166 8
 766 00bc 11CD     		beq	a0,zero,.L62
 167:C:/Users/stapi/OneDrive/Desktop/GD32VW553/V1_MQTT_OK/GD32VW55X_Wifi_BLE_SDK/GD32VW55x_RELEASE_V1.0.2/MSDK/cloud/alicloud/src/services/ota/impl\ota_lib.c ****         return -1;
 767              		.loc 1 167 9 is_stmt 1
 167:C:/Users/stapi/OneDrive/Desktop/GD32VW553/V1_MQTT_OK/GD32VW55X_Wifi_BLE_SDK/GD32VW55x_RELEASE_V1.0.2/MSDK/cloud/alicloud/src/services/ota/impl\ota_lib.c ****         return -1;
 768              		.loc 1 167 9
 769 00be 37050000 		lui	a0,%hi(.LC0)
 770 00c2 13050500 		addi	a0,a0,%lo(.LC0)
 771 00c6 97000000 		call	HAL_Printf
 771      E7800000 
 772              	.LVL74:
 167:C:/Users/stapi/OneDrive/Desktop/GD32VW553/V1_MQTT_OK/GD32VW55X_Wifi_BLE_SDK/GD32VW55x_RELEASE_V1.0.2/MSDK/cloud/alicloud/src/services/ota/impl\ota_lib.c ****         return -1;
 773              		.loc 1 167 9
 774 00ce 37050000 		lui	a0,%hi(.LC11)
 775 00d2 13050500 		addi	a0,a0,%lo(.LC11)
 776 00d6 95BF     		j	.L65
 777              	.L62:
 172:C:/Users/stapi/OneDrive/Desktop/GD32VW553/V1_MQTT_OK/GD32VW55X_Wifi_BLE_SDK/GD32VW55x_RELEASE_V1.0.2/MSDK/cloud/alicloud/src/services/ota/impl\ota_lib.c ****         OTA_LOG_ERROR("get value of size key failed");
 778              		.loc 1 172 5
 172:C:/Users/stapi/OneDrive/Desktop/GD32VW553/V1_MQTT_OK/GD32VW55X_Wifi_BLE_SDK/GD32VW55x_RELEASE_V1.0.2/MSDK/cloud/alicloud/src/services/ota/impl\ota_lib.c ****         OTA_LOG_ERROR("get value of size key failed");
 779              		.loc 1 172 14 is_stmt 0
 780 00d8 37060000 		lui	a2,%hi(.LC12)
 781 00dc 2285     		mv	a0,s0
 782 00de 4147     		li	a4,16
 783 00e0 7400     		addi	a3,sp,12
 784 00e2 13060600 		addi	a2,a2,%lo(.LC12)
 785 00e6 A685     		mv	a1,s1
 786 00e8 97000000 		call	otalib_GetFirmwareFixlenPara
 786      E7800000 
 787              	.LVL75:
 788 00f0 2A84     		mv	s0,a0
 789              	.LVL76:
 172:C:/Users/stapi/OneDrive/Desktop/GD32VW553/V1_MQTT_OK/GD32VW55X_Wifi_BLE_SDK/GD32VW55x_RELEASE_V1.0.2/MSDK/cloud/alicloud/src/services/ota/impl\ota_lib.c ****         OTA_LOG_ERROR("get value of size key failed");
 790              		.loc 1 172 8
 791 00f2 11CD     		beq	a0,zero,.L63
 173:C:/Users/stapi/OneDrive/Desktop/GD32VW553/V1_MQTT_OK/GD32VW55X_Wifi_BLE_SDK/GD32VW55x_RELEASE_V1.0.2/MSDK/cloud/alicloud/src/services/ota/impl\ota_lib.c ****         return -1;
 792              		.loc 1 173 9 is_stmt 1
 173:C:/Users/stapi/OneDrive/Desktop/GD32VW553/V1_MQTT_OK/GD32VW55X_Wifi_BLE_SDK/GD32VW55x_RELEASE_V1.0.2/MSDK/cloud/alicloud/src/services/ota/impl\ota_lib.c ****         return -1;
 793              		.loc 1 173 9
 794 00f4 37050000 		lui	a0,%hi(.LC0)
 795 00f8 13050500 		addi	a0,a0,%lo(.LC0)
 796 00fc 97000000 		call	HAL_Printf
 796      E7800000 
 797              	.LVL77:
 173:C:/Users/stapi/OneDrive/Desktop/GD32VW553/V1_MQTT_OK/GD32VW55X_Wifi_BLE_SDK/GD32VW55x_RELEASE_V1.0.2/MSDK/cloud/alicloud/src/services/ota/impl\ota_lib.c ****         return -1;
 798              		.loc 1 173 9
 799 0104 37050000 		lui	a0,%hi(.LC13)
 800 0108 13050500 		addi	a0,a0,%lo(.LC13)
 801 010c 3DBF     		j	.L65
 802              	.L63:
 176:C:/Users/stapi/OneDrive/Desktop/GD32VW553/V1_MQTT_OK/GD32VW55X_Wifi_BLE_SDK/GD32VW55x_RELEASE_V1.0.2/MSDK/cloud/alicloud/src/services/ota/impl\ota_lib.c ****     *file_size = atoi(file_size_str);
 803              		.loc 1 176 5
 177:C:/Users/stapi/OneDrive/Desktop/GD32VW553/V1_MQTT_OK/GD32VW55X_Wifi_BLE_SDK/GD32VW55x_RELEASE_V1.0.2/MSDK/cloud/alicloud/src/services/ota/impl\ota_lib.c **** 
 804              		.loc 1 177 18 is_stmt 0
 805 010e 6800     		addi	a0,sp,12
 176:C:/Users/stapi/OneDrive/Desktop/GD32VW553/V1_MQTT_OK/GD32VW55X_Wifi_BLE_SDK/GD32VW55x_RELEASE_V1.0.2/MSDK/cloud/alicloud/src/services/ota/impl\ota_lib.c ****     *file_size = atoi(file_size_str);
 806              		.loc 1 176 41
 807 0110 230E0100 		sb	zero,28(sp)
 177:C:/Users/stapi/OneDrive/Desktop/GD32VW553/V1_MQTT_OK/GD32VW55X_Wifi_BLE_SDK/GD32VW55x_RELEASE_V1.0.2/MSDK/cloud/alicloud/src/services/ota/impl\ota_lib.c **** 
 808              		.loc 1 177 5 is_stmt 1
 177:C:/Users/stapi/OneDrive/Desktop/GD32VW553/V1_MQTT_OK/GD32VW55X_Wifi_BLE_SDK/GD32VW55x_RELEASE_V1.0.2/MSDK/cloud/alicloud/src/services/ota/impl\ota_lib.c **** 
 809              		.loc 1 177 18 is_stmt 0
 810 0114 97000000 		call	atoi
 810      E7800000 
 811              	.LVL78:
 177:C:/Users/stapi/OneDrive/Desktop/GD32VW553/V1_MQTT_OK/GD32VW55X_Wifi_BLE_SDK/GD32VW55x_RELEASE_V1.0.2/MSDK/cloud/alicloud/src/services/ota/impl\ota_lib.c **** 
 812              		.loc 1 177 16
 813 011c 2320A900 		sw	a0,0(s2)
 179:C:/Users/stapi/OneDrive/Desktop/GD32VW553/V1_MQTT_OK/GD32VW55X_Wifi_BLE_SDK/GD32VW55x_RELEASE_V1.0.2/MSDK/cloud/alicloud/src/services/ota/impl\ota_lib.c **** 
 814              		.loc 1 179 5 is_stmt 1
 179:C:/Users/stapi/OneDrive/Desktop/GD32VW553/V1_MQTT_OK/GD32VW55X_Wifi_BLE_SDK/GD32VW55x_RELEASE_V1.0.2/MSDK/cloud/alicloud/src/services/ota/impl\ota_lib.c **** 
 815              		.loc 1 179 12 is_stmt 0
 816 0120 91B7     		j	.L58
 817              		.cfi_endproc
 818              	.LFE31:
 820              		.section	.rodata.otalib_GetConfigParams.str1.4,"aMS",@progbits,1
 821              		.align	2
 822              	.LC14:
 823 0000 636F6E66 		.string	"configId"
 823      69674964 
 823      00
 824 0009 000000   		.align	2
 825              	.LC15:
 826 000c 67657420 		.string	"get value of configId key failed"
 826      76616C75 
 826      65206F66 
 826      20636F6E 
 826      66696749 
 827 002d 000000   		.align	2
 828              	.LC16:
 829 0030 636F6E66 		.string	"configSize"
 829      69675369 
 829      7A6500
 830 003b 00       		.align	2
 831              	.LC17:
 832 003c 7369676E 		.string	"sign"
 832      00
 833 0041 000000   		.align	2
 834              	.LC18:
 835 0044 67657420 		.string	"get value of sign key failed"
 835      76616C75 
 835      65206F66 
 835      20736967 
 835      6E206B65 
 836 0061 000000   		.align	2
 837              	.LC19:
 838 0064 7369676E 		.string	"signMethod"
 838      4D657468 
 838      6F6400
 839 006f 00       		.align	2
 840              	.LC20:
 841 0070 67657420 		.string	"get value of signMethod key failed"
 841      76616C75 
 841      65206F66 
 841      20736967 
 841      6E4D6574 
 842 0093 00       		.align	2
 843              	.LC21:
 844 0094 67657454 		.string	"getType"
 844      79706500 
 845              		.align	2
 846              	.LC22:
 847 009c 67657420 		.string	"get value of getType key failed"
 847      76616C75 
 847      65206F66 
 847      20676574 
 847      54797065 
 848              		.section	.text.otalib_GetConfigParams,"ax",@progbits
 849              		.align	1
 850              		.globl	otalib_GetConfigParams
 852              	otalib_GetConfigParams:
 853              	.LFB32:
 183:C:/Users/stapi/OneDrive/Desktop/GD32VW553/V1_MQTT_OK/GD32VW55X_Wifi_BLE_SDK/GD32VW55x_RELEASE_V1.0.2/MSDK/cloud/alicloud/src/services/ota/impl\ota_lib.c **** 
 184:C:/Users/stapi/OneDrive/Desktop/GD32VW553/V1_MQTT_OK/GD32VW55X_Wifi_BLE_SDK/GD32VW55x_RELEASE_V1.0.2/MSDK/cloud/alicloud/src/services/ota/impl\ota_lib.c **** int otalib_GetConfigParams(const char *json_doc, uint32_t json_len, char **configId, uint32_t *conf
 185:C:/Users/stapi/OneDrive/Desktop/GD32VW553/V1_MQTT_OK/GD32VW55X_Wifi_BLE_SDK/GD32VW55x_RELEASE_V1.0.2/MSDK/cloud/alicloud/src/services/ota/impl\ota_lib.c ****                            char **signMethod, char **url, char **getType)
 186:C:/Users/stapi/OneDrive/Desktop/GD32VW553/V1_MQTT_OK/GD32VW55X_Wifi_BLE_SDK/GD32VW55x_RELEASE_V1.0.2/MSDK/cloud/alicloud/src/services/ota/impl\ota_lib.c **** {
 854              		.loc 1 186 1 is_stmt 1
 855              		.cfi_startproc
 856              	.LVL79:
 857 0000 17030000 		call	t0,__riscv_save_7
 857      E7020300 
 858              		.cfi_offset 22, -32
 859              		.cfi_offset 21, -28
 860              		.cfi_offset 20, -24
 861              		.cfi_offset 19, -20
 862              		.cfi_offset 18, -16
 863              		.cfi_offset 9, -12
 864              		.cfi_offset 8, -8
 865              		.cfi_offset 1, -4
 866              		.cfi_def_cfa_offset 32
 187:C:/Users/stapi/OneDrive/Desktop/GD32VW553/V1_MQTT_OK/GD32VW55X_Wifi_BLE_SDK/GD32VW55x_RELEASE_V1.0.2/MSDK/cloud/alicloud/src/services/ota/impl\ota_lib.c **** #define OTA_FILESIZE_STR_LEN    (16)
 188:C:/Users/stapi/OneDrive/Desktop/GD32VW553/V1_MQTT_OK/GD32VW55X_Wifi_BLE_SDK/GD32VW55x_RELEASE_V1.0.2/MSDK/cloud/alicloud/src/services/ota/impl\ota_lib.c ****     char file_size_str[OTA_FILESIZE_STR_LEN + 1];
 867              		.loc 1 188 5
 189:C:/Users/stapi/OneDrive/Desktop/GD32VW553/V1_MQTT_OK/GD32VW55X_Wifi_BLE_SDK/GD32VW55x_RELEASE_V1.0.2/MSDK/cloud/alicloud/src/services/ota/impl\ota_lib.c **** 
 190:C:/Users/stapi/OneDrive/Desktop/GD32VW553/V1_MQTT_OK/GD32VW55X_Wifi_BLE_SDK/GD32VW55x_RELEASE_V1.0.2/MSDK/cloud/alicloud/src/services/ota/impl\ota_lib.c ****     /* get configId */
 191:C:/Users/stapi/OneDrive/Desktop/GD32VW553/V1_MQTT_OK/GD32VW55X_Wifi_BLE_SDK/GD32VW55x_RELEASE_V1.0.2/MSDK/cloud/alicloud/src/services/ota/impl\ota_lib.c ****     if (0 != otalib_GetFirmwareVarlenPara(json_doc, json_len, "configId", configId)) {
 868              		.loc 1 191 5
 186:C:/Users/stapi/OneDrive/Desktop/GD32VW553/V1_MQTT_OK/GD32VW55X_Wifi_BLE_SDK/GD32VW55x_RELEASE_V1.0.2/MSDK/cloud/alicloud/src/services/ota/impl\ota_lib.c **** #define OTA_FILESIZE_STR_LEN    (16)
 869              		.loc 1 186 1 is_stmt 0
 870 0008 368B     		mv	s6,a3
 871              		.loc 1 191 14
 872 000a B286     		mv	a3,a2
 873              	.LVL80:
 874 000c 37060000 		lui	a2,%hi(.LC14)
 875              	.LVL81:
 186:C:/Users/stapi/OneDrive/Desktop/GD32VW553/V1_MQTT_OK/GD32VW55X_Wifi_BLE_SDK/GD32VW55x_RELEASE_V1.0.2/MSDK/cloud/alicloud/src/services/ota/impl\ota_lib.c **** #define OTA_FILESIZE_STR_LEN    (16)
 876              		.loc 1 186 1
 877 0010 0111     		addi	sp,sp,-32
 878              		.cfi_def_cfa_offset 64
 879              		.loc 1 191 14
 880 0012 13060600 		addi	a2,a2,%lo(.LC14)
 186:C:/Users/stapi/OneDrive/Desktop/GD32VW553/V1_MQTT_OK/GD32VW55X_Wifi_BLE_SDK/GD32VW55x_RELEASE_V1.0.2/MSDK/cloud/alicloud/src/services/ota/impl\ota_lib.c **** #define OTA_FILESIZE_STR_LEN    (16)
 881              		.loc 1 186 1
 882 0016 2A84     		mv	s0,a0
 883 0018 AE84     		mv	s1,a1
 884 001a BA8A     		mv	s5,a4
 885 001c 3E8A     		mv	s4,a5
 886 001e C289     		mv	s3,a6
 887 0020 4689     		mv	s2,a7
 888              		.loc 1 191 14
 889 0022 97000000 		call	otalib_GetFirmwareVarlenPara
 889      E7800000 
 890              	.LVL82:
 891              		.loc 1 191 8
 892 002a 1DCD     		beq	a0,zero,.L67
 192:C:/Users/stapi/OneDrive/Desktop/GD32VW553/V1_MQTT_OK/GD32VW55X_Wifi_BLE_SDK/GD32VW55x_RELEASE_V1.0.2/MSDK/cloud/alicloud/src/services/ota/impl\ota_lib.c ****         OTA_LOG_ERROR("get value of configId key failed");
 893              		.loc 1 192 9 is_stmt 1
 894              		.loc 1 192 9
 895 002c 37050000 		lui	a0,%hi(.LC0)
 896 0030 13050500 		addi	a0,a0,%lo(.LC0)
 897 0034 97000000 		call	HAL_Printf
 897      E7800000 
 898              	.LVL83:
 899              		.loc 1 192 9
 900 003c 37050000 		lui	a0,%hi(.LC15)
 901 0040 13050500 		addi	a0,a0,%lo(.LC15)
 902              	.L77:
 193:C:/Users/stapi/OneDrive/Desktop/GD32VW553/V1_MQTT_OK/GD32VW55X_Wifi_BLE_SDK/GD32VW55x_RELEASE_V1.0.2/MSDK/cloud/alicloud/src/services/ota/impl\ota_lib.c ****         return -1;
 194:C:/Users/stapi/OneDrive/Desktop/GD32VW553/V1_MQTT_OK/GD32VW55X_Wifi_BLE_SDK/GD32VW55x_RELEASE_V1.0.2/MSDK/cloud/alicloud/src/services/ota/impl\ota_lib.c ****     }
 195:C:/Users/stapi/OneDrive/Desktop/GD32VW553/V1_MQTT_OK/GD32VW55X_Wifi_BLE_SDK/GD32VW55x_RELEASE_V1.0.2/MSDK/cloud/alicloud/src/services/ota/impl\ota_lib.c **** 
 196:C:/Users/stapi/OneDrive/Desktop/GD32VW553/V1_MQTT_OK/GD32VW55X_Wifi_BLE_SDK/GD32VW55x_RELEASE_V1.0.2/MSDK/cloud/alicloud/src/services/ota/impl\ota_lib.c ****     /* get configSize */
 197:C:/Users/stapi/OneDrive/Desktop/GD32VW553/V1_MQTT_OK/GD32VW55X_Wifi_BLE_SDK/GD32VW55x_RELEASE_V1.0.2/MSDK/cloud/alicloud/src/services/ota/impl\ota_lib.c ****     if (0 != otalib_GetFirmwareFixlenPara(json_doc, json_len, "configSize", file_size_str, OTA_FILE
 198:C:/Users/stapi/OneDrive/Desktop/GD32VW553/V1_MQTT_OK/GD32VW55X_Wifi_BLE_SDK/GD32VW55x_RELEASE_V1.0.2/MSDK/cloud/alicloud/src/services/ota/impl\ota_lib.c ****         OTA_LOG_ERROR("get value of size key failed");
 199:C:/Users/stapi/OneDrive/Desktop/GD32VW553/V1_MQTT_OK/GD32VW55X_Wifi_BLE_SDK/GD32VW55x_RELEASE_V1.0.2/MSDK/cloud/alicloud/src/services/ota/impl\ota_lib.c ****         return -1;
 200:C:/Users/stapi/OneDrive/Desktop/GD32VW553/V1_MQTT_OK/GD32VW55X_Wifi_BLE_SDK/GD32VW55x_RELEASE_V1.0.2/MSDK/cloud/alicloud/src/services/ota/impl\ota_lib.c ****     }
 201:C:/Users/stapi/OneDrive/Desktop/GD32VW553/V1_MQTT_OK/GD32VW55X_Wifi_BLE_SDK/GD32VW55x_RELEASE_V1.0.2/MSDK/cloud/alicloud/src/services/ota/impl\ota_lib.c ****     file_size_str[OTA_FILESIZE_STR_LEN] = '\0';
 202:C:/Users/stapi/OneDrive/Desktop/GD32VW553/V1_MQTT_OK/GD32VW55X_Wifi_BLE_SDK/GD32VW55x_RELEASE_V1.0.2/MSDK/cloud/alicloud/src/services/ota/impl\ota_lib.c ****     *configSize = atoi(file_size_str);
 203:C:/Users/stapi/OneDrive/Desktop/GD32VW553/V1_MQTT_OK/GD32VW55X_Wifi_BLE_SDK/GD32VW55x_RELEASE_V1.0.2/MSDK/cloud/alicloud/src/services/ota/impl\ota_lib.c **** 
 204:C:/Users/stapi/OneDrive/Desktop/GD32VW553/V1_MQTT_OK/GD32VW55X_Wifi_BLE_SDK/GD32VW55x_RELEASE_V1.0.2/MSDK/cloud/alicloud/src/services/ota/impl\ota_lib.c ****     /* get sign */
 205:C:/Users/stapi/OneDrive/Desktop/GD32VW553/V1_MQTT_OK/GD32VW55X_Wifi_BLE_SDK/GD32VW55x_RELEASE_V1.0.2/MSDK/cloud/alicloud/src/services/ota/impl\ota_lib.c ****     if (0 != otalib_GetFirmwareVarlenPara(json_doc, json_len, "sign", sign)) {
 206:C:/Users/stapi/OneDrive/Desktop/GD32VW553/V1_MQTT_OK/GD32VW55X_Wifi_BLE_SDK/GD32VW55x_RELEASE_V1.0.2/MSDK/cloud/alicloud/src/services/ota/impl\ota_lib.c ****         OTA_LOG_ERROR("get value of sign key failed");
 207:C:/Users/stapi/OneDrive/Desktop/GD32VW553/V1_MQTT_OK/GD32VW55X_Wifi_BLE_SDK/GD32VW55x_RELEASE_V1.0.2/MSDK/cloud/alicloud/src/services/ota/impl\ota_lib.c ****         return -1;
 208:C:/Users/stapi/OneDrive/Desktop/GD32VW553/V1_MQTT_OK/GD32VW55X_Wifi_BLE_SDK/GD32VW55x_RELEASE_V1.0.2/MSDK/cloud/alicloud/src/services/ota/impl\ota_lib.c ****     }
 209:C:/Users/stapi/OneDrive/Desktop/GD32VW553/V1_MQTT_OK/GD32VW55X_Wifi_BLE_SDK/GD32VW55x_RELEASE_V1.0.2/MSDK/cloud/alicloud/src/services/ota/impl\ota_lib.c **** 
 210:C:/Users/stapi/OneDrive/Desktop/GD32VW553/V1_MQTT_OK/GD32VW55X_Wifi_BLE_SDK/GD32VW55x_RELEASE_V1.0.2/MSDK/cloud/alicloud/src/services/ota/impl\ota_lib.c ****     /* get signMethod */
 211:C:/Users/stapi/OneDrive/Desktop/GD32VW553/V1_MQTT_OK/GD32VW55X_Wifi_BLE_SDK/GD32VW55x_RELEASE_V1.0.2/MSDK/cloud/alicloud/src/services/ota/impl\ota_lib.c ****     if (0 != otalib_GetFirmwareVarlenPara(json_doc, json_len, "signMethod", signMethod)) {
 212:C:/Users/stapi/OneDrive/Desktop/GD32VW553/V1_MQTT_OK/GD32VW55X_Wifi_BLE_SDK/GD32VW55x_RELEASE_V1.0.2/MSDK/cloud/alicloud/src/services/ota/impl\ota_lib.c ****         OTA_LOG_ERROR("get value of signMethod key failed");
 213:C:/Users/stapi/OneDrive/Desktop/GD32VW553/V1_MQTT_OK/GD32VW55X_Wifi_BLE_SDK/GD32VW55x_RELEASE_V1.0.2/MSDK/cloud/alicloud/src/services/ota/impl\ota_lib.c ****         return -1;
 214:C:/Users/stapi/OneDrive/Desktop/GD32VW553/V1_MQTT_OK/GD32VW55X_Wifi_BLE_SDK/GD32VW55x_RELEASE_V1.0.2/MSDK/cloud/alicloud/src/services/ota/impl\ota_lib.c ****     }
 215:C:/Users/stapi/OneDrive/Desktop/GD32VW553/V1_MQTT_OK/GD32VW55X_Wifi_BLE_SDK/GD32VW55x_RELEASE_V1.0.2/MSDK/cloud/alicloud/src/services/ota/impl\ota_lib.c **** 
 216:C:/Users/stapi/OneDrive/Desktop/GD32VW553/V1_MQTT_OK/GD32VW55X_Wifi_BLE_SDK/GD32VW55x_RELEASE_V1.0.2/MSDK/cloud/alicloud/src/services/ota/impl\ota_lib.c ****     /* get url */
 217:C:/Users/stapi/OneDrive/Desktop/GD32VW553/V1_MQTT_OK/GD32VW55X_Wifi_BLE_SDK/GD32VW55x_RELEASE_V1.0.2/MSDK/cloud/alicloud/src/services/ota/impl\ota_lib.c ****     if (0 != otalib_GetFirmwareVarlenPara(json_doc, json_len, "url", url)) {
 218:C:/Users/stapi/OneDrive/Desktop/GD32VW553/V1_MQTT_OK/GD32VW55X_Wifi_BLE_SDK/GD32VW55x_RELEASE_V1.0.2/MSDK/cloud/alicloud/src/services/ota/impl\ota_lib.c ****         OTA_LOG_ERROR("get value of url key failed");
 219:C:/Users/stapi/OneDrive/Desktop/GD32VW553/V1_MQTT_OK/GD32VW55X_Wifi_BLE_SDK/GD32VW55x_RELEASE_V1.0.2/MSDK/cloud/alicloud/src/services/ota/impl\ota_lib.c ****         return -1;
 220:C:/Users/stapi/OneDrive/Desktop/GD32VW553/V1_MQTT_OK/GD32VW55X_Wifi_BLE_SDK/GD32VW55x_RELEASE_V1.0.2/MSDK/cloud/alicloud/src/services/ota/impl\ota_lib.c ****     }
 221:C:/Users/stapi/OneDrive/Desktop/GD32VW553/V1_MQTT_OK/GD32VW55X_Wifi_BLE_SDK/GD32VW55x_RELEASE_V1.0.2/MSDK/cloud/alicloud/src/services/ota/impl\ota_lib.c **** 
 222:C:/Users/stapi/OneDrive/Desktop/GD32VW553/V1_MQTT_OK/GD32VW55X_Wifi_BLE_SDK/GD32VW55x_RELEASE_V1.0.2/MSDK/cloud/alicloud/src/services/ota/impl\ota_lib.c ****     /* get getType */
 223:C:/Users/stapi/OneDrive/Desktop/GD32VW553/V1_MQTT_OK/GD32VW55X_Wifi_BLE_SDK/GD32VW55x_RELEASE_V1.0.2/MSDK/cloud/alicloud/src/services/ota/impl\ota_lib.c ****     if (0 != otalib_GetFirmwareVarlenPara(json_doc, json_len, "getType", getType)) {
 224:C:/Users/stapi/OneDrive/Desktop/GD32VW553/V1_MQTT_OK/GD32VW55X_Wifi_BLE_SDK/GD32VW55x_RELEASE_V1.0.2/MSDK/cloud/alicloud/src/services/ota/impl\ota_lib.c ****         OTA_LOG_ERROR("get value of getType key failed");
 903              		.loc 1 224 9 is_stmt 0
 904 0044 97000000 		call	HAL_Printf
 904      E7800000 
 905              	.LVL84:
 906              		.loc 1 224 9 is_stmt 1
 907 004c 37050000 		lui	a0,%hi(.LC2)
 908 0050 13050500 		addi	a0,a0,%lo(.LC2)
 909 0054 97000000 		call	HAL_Printf
 909      E7800000 
 910              	.LVL85:
 911              		.loc 1 224 9
 225:C:/Users/stapi/OneDrive/Desktop/GD32VW553/V1_MQTT_OK/GD32VW55X_Wifi_BLE_SDK/GD32VW55x_RELEASE_V1.0.2/MSDK/cloud/alicloud/src/services/ota/impl\ota_lib.c ****         return -1;
 912              		.loc 1 225 9
 913              		.loc 1 225 16 is_stmt 0
 914 005c 7D55     		li	a0,-1
 915              	.L66:
 226:C:/Users/stapi/OneDrive/Desktop/GD32VW553/V1_MQTT_OK/GD32VW55X_Wifi_BLE_SDK/GD32VW55x_RELEASE_V1.0.2/MSDK/cloud/alicloud/src/services/ota/impl\ota_lib.c ****     }
 227:C:/Users/stapi/OneDrive/Desktop/GD32VW553/V1_MQTT_OK/GD32VW55X_Wifi_BLE_SDK/GD32VW55x_RELEASE_V1.0.2/MSDK/cloud/alicloud/src/services/ota/impl\ota_lib.c ****     return 0;
 228:C:/Users/stapi/OneDrive/Desktop/GD32VW553/V1_MQTT_OK/GD32VW55X_Wifi_BLE_SDK/GD32VW55x_RELEASE_V1.0.2/MSDK/cloud/alicloud/src/services/ota/impl\ota_lib.c **** 
 229:C:/Users/stapi/OneDrive/Desktop/GD32VW553/V1_MQTT_OK/GD32VW55X_Wifi_BLE_SDK/GD32VW55x_RELEASE_V1.0.2/MSDK/cloud/alicloud/src/services/ota/impl\ota_lib.c **** #undef OTA_FILESIZE_STR_LEN
 230:C:/Users/stapi/OneDrive/Desktop/GD32VW553/V1_MQTT_OK/GD32VW55X_Wifi_BLE_SDK/GD32VW55x_RELEASE_V1.0.2/MSDK/cloud/alicloud/src/services/ota/impl\ota_lib.c **** }
 916              		.loc 1 230 1
 917 005e 0561     		addi	sp,sp,32
 918              		.cfi_remember_state
 919              		.cfi_def_cfa_offset 0
 920 0060 17030000 		tail	__riscv_restore_7
 920      67000300 
 921              		.cfi_restore 22
 922              		.cfi_restore 21
 923              		.cfi_restore 20
 924              		.cfi_restore 19
 925              		.cfi_restore 18
 926              		.cfi_restore 9
 927              		.cfi_restore 8
 928              		.cfi_restore 1
 929              		.cfi_def_cfa_offset -32
 930              	.L67:
 931              		.cfi_restore_state
 197:C:/Users/stapi/OneDrive/Desktop/GD32VW553/V1_MQTT_OK/GD32VW55X_Wifi_BLE_SDK/GD32VW55x_RELEASE_V1.0.2/MSDK/cloud/alicloud/src/services/ota/impl\ota_lib.c ****         OTA_LOG_ERROR("get value of size key failed");
 932              		.loc 1 197 5 is_stmt 1
 197:C:/Users/stapi/OneDrive/Desktop/GD32VW553/V1_MQTT_OK/GD32VW55X_Wifi_BLE_SDK/GD32VW55x_RELEASE_V1.0.2/MSDK/cloud/alicloud/src/services/ota/impl\ota_lib.c ****         OTA_LOG_ERROR("get value of size key failed");
 933              		.loc 1 197 14 is_stmt 0
 934 0068 37060000 		lui	a2,%hi(.LC16)
 935 006c 4147     		li	a4,16
 936 006e 7400     		addi	a3,sp,12
 937 0070 13060600 		addi	a2,a2,%lo(.LC16)
 938 0074 A685     		mv	a1,s1
 939 0076 2285     		mv	a0,s0
 940 0078 97000000 		call	otalib_GetFirmwareFixlenPara
 940      E7800000 
 941              	.LVL86:
 197:C:/Users/stapi/OneDrive/Desktop/GD32VW553/V1_MQTT_OK/GD32VW55X_Wifi_BLE_SDK/GD32VW55x_RELEASE_V1.0.2/MSDK/cloud/alicloud/src/services/ota/impl\ota_lib.c ****         OTA_LOG_ERROR("get value of size key failed");
 942              		.loc 1 197 8
 943 0080 11CD     		beq	a0,zero,.L69
 198:C:/Users/stapi/OneDrive/Desktop/GD32VW553/V1_MQTT_OK/GD32VW55X_Wifi_BLE_SDK/GD32VW55x_RELEASE_V1.0.2/MSDK/cloud/alicloud/src/services/ota/impl\ota_lib.c ****         return -1;
 944              		.loc 1 198 9 is_stmt 1
 198:C:/Users/stapi/OneDrive/Desktop/GD32VW553/V1_MQTT_OK/GD32VW55X_Wifi_BLE_SDK/GD32VW55x_RELEASE_V1.0.2/MSDK/cloud/alicloud/src/services/ota/impl\ota_lib.c ****         return -1;
 945              		.loc 1 198 9
 946 0082 37050000 		lui	a0,%hi(.LC0)
 947 0086 13050500 		addi	a0,a0,%lo(.LC0)
 948 008a 97000000 		call	HAL_Printf
 948      E7800000 
 949              	.LVL87:
 198:C:/Users/stapi/OneDrive/Desktop/GD32VW553/V1_MQTT_OK/GD32VW55X_Wifi_BLE_SDK/GD32VW55x_RELEASE_V1.0.2/MSDK/cloud/alicloud/src/services/ota/impl\ota_lib.c ****         return -1;
 950              		.loc 1 198 9
 951 0092 37050000 		lui	a0,%hi(.LC13)
 952 0096 13050500 		addi	a0,a0,%lo(.LC13)
 953 009a 6DB7     		j	.L77
 954              	.L69:
 201:C:/Users/stapi/OneDrive/Desktop/GD32VW553/V1_MQTT_OK/GD32VW55X_Wifi_BLE_SDK/GD32VW55x_RELEASE_V1.0.2/MSDK/cloud/alicloud/src/services/ota/impl\ota_lib.c ****     *configSize = atoi(file_size_str);
 955              		.loc 1 201 5
 202:C:/Users/stapi/OneDrive/Desktop/GD32VW553/V1_MQTT_OK/GD32VW55X_Wifi_BLE_SDK/GD32VW55x_RELEASE_V1.0.2/MSDK/cloud/alicloud/src/services/ota/impl\ota_lib.c **** 
 956              		.loc 1 202 19 is_stmt 0
 957 009c 6800     		addi	a0,sp,12
 201:C:/Users/stapi/OneDrive/Desktop/GD32VW553/V1_MQTT_OK/GD32VW55X_Wifi_BLE_SDK/GD32VW55x_RELEASE_V1.0.2/MSDK/cloud/alicloud/src/services/ota/impl\ota_lib.c ****     *configSize = atoi(file_size_str);
 958              		.loc 1 201 41
 959 009e 230E0100 		sb	zero,28(sp)
 202:C:/Users/stapi/OneDrive/Desktop/GD32VW553/V1_MQTT_OK/GD32VW55X_Wifi_BLE_SDK/GD32VW55x_RELEASE_V1.0.2/MSDK/cloud/alicloud/src/services/ota/impl\ota_lib.c **** 
 960              		.loc 1 202 5 is_stmt 1
 202:C:/Users/stapi/OneDrive/Desktop/GD32VW553/V1_MQTT_OK/GD32VW55X_Wifi_BLE_SDK/GD32VW55x_RELEASE_V1.0.2/MSDK/cloud/alicloud/src/services/ota/impl\ota_lib.c **** 
 961              		.loc 1 202 19 is_stmt 0
 962 00a2 97000000 		call	atoi
 962      E7800000 
 963              	.LVL88:
 205:C:/Users/stapi/OneDrive/Desktop/GD32VW553/V1_MQTT_OK/GD32VW55X_Wifi_BLE_SDK/GD32VW55x_RELEASE_V1.0.2/MSDK/cloud/alicloud/src/services/ota/impl\ota_lib.c ****         OTA_LOG_ERROR("get value of sign key failed");
 964              		.loc 1 205 14
 965 00aa 37060000 		lui	a2,%hi(.LC17)
 202:C:/Users/stapi/OneDrive/Desktop/GD32VW553/V1_MQTT_OK/GD32VW55X_Wifi_BLE_SDK/GD32VW55x_RELEASE_V1.0.2/MSDK/cloud/alicloud/src/services/ota/impl\ota_lib.c **** 
 966              		.loc 1 202 17
 967 00ae 2320AB00 		sw	a0,0(s6)
 205:C:/Users/stapi/OneDrive/Desktop/GD32VW553/V1_MQTT_OK/GD32VW55X_Wifi_BLE_SDK/GD32VW55x_RELEASE_V1.0.2/MSDK/cloud/alicloud/src/services/ota/impl\ota_lib.c ****         OTA_LOG_ERROR("get value of sign key failed");
 968              		.loc 1 205 5 is_stmt 1
 205:C:/Users/stapi/OneDrive/Desktop/GD32VW553/V1_MQTT_OK/GD32VW55X_Wifi_BLE_SDK/GD32VW55x_RELEASE_V1.0.2/MSDK/cloud/alicloud/src/services/ota/impl\ota_lib.c ****         OTA_LOG_ERROR("get value of sign key failed");
 969              		.loc 1 205 14 is_stmt 0
 970 00b2 D686     		mv	a3,s5
 971 00b4 13060600 		addi	a2,a2,%lo(.LC17)
 972 00b8 A685     		mv	a1,s1
 973 00ba 2285     		mv	a0,s0
 974 00bc 97000000 		call	otalib_GetFirmwareVarlenPara
 974      E7800000 
 975              	.LVL89:
 205:C:/Users/stapi/OneDrive/Desktop/GD32VW553/V1_MQTT_OK/GD32VW55X_Wifi_BLE_SDK/GD32VW55x_RELEASE_V1.0.2/MSDK/cloud/alicloud/src/services/ota/impl\ota_lib.c ****         OTA_LOG_ERROR("get value of sign key failed");
 976              		.loc 1 205 8
 977 00c4 11CD     		beq	a0,zero,.L70
 206:C:/Users/stapi/OneDrive/Desktop/GD32VW553/V1_MQTT_OK/GD32VW55X_Wifi_BLE_SDK/GD32VW55x_RELEASE_V1.0.2/MSDK/cloud/alicloud/src/services/ota/impl\ota_lib.c ****         return -1;
 978              		.loc 1 206 9 is_stmt 1
 206:C:/Users/stapi/OneDrive/Desktop/GD32VW553/V1_MQTT_OK/GD32VW55X_Wifi_BLE_SDK/GD32VW55x_RELEASE_V1.0.2/MSDK/cloud/alicloud/src/services/ota/impl\ota_lib.c ****         return -1;
 979              		.loc 1 206 9
 980 00c6 37050000 		lui	a0,%hi(.LC0)
 981 00ca 13050500 		addi	a0,a0,%lo(.LC0)
 982 00ce 97000000 		call	HAL_Printf
 982      E7800000 
 983              	.LVL90:
 206:C:/Users/stapi/OneDrive/Desktop/GD32VW553/V1_MQTT_OK/GD32VW55X_Wifi_BLE_SDK/GD32VW55x_RELEASE_V1.0.2/MSDK/cloud/alicloud/src/services/ota/impl\ota_lib.c ****         return -1;
 984              		.loc 1 206 9
 985 00d6 37050000 		lui	a0,%hi(.LC18)
 986 00da 13050500 		addi	a0,a0,%lo(.LC18)
 987 00de 9DB7     		j	.L77
 988              	.L70:
 211:C:/Users/stapi/OneDrive/Desktop/GD32VW553/V1_MQTT_OK/GD32VW55X_Wifi_BLE_SDK/GD32VW55x_RELEASE_V1.0.2/MSDK/cloud/alicloud/src/services/ota/impl\ota_lib.c ****         OTA_LOG_ERROR("get value of signMethod key failed");
 989              		.loc 1 211 5
 211:C:/Users/stapi/OneDrive/Desktop/GD32VW553/V1_MQTT_OK/GD32VW55X_Wifi_BLE_SDK/GD32VW55x_RELEASE_V1.0.2/MSDK/cloud/alicloud/src/services/ota/impl\ota_lib.c ****         OTA_LOG_ERROR("get value of signMethod key failed");
 990              		.loc 1 211 14 is_stmt 0
 991 00e0 37060000 		lui	a2,%hi(.LC19)
 992 00e4 D286     		mv	a3,s4
 993 00e6 13060600 		addi	a2,a2,%lo(.LC19)
 994 00ea A685     		mv	a1,s1
 995 00ec 2285     		mv	a0,s0
 996 00ee 97000000 		call	otalib_GetFirmwareVarlenPara
 996      E7800000 
 997              	.LVL91:
 211:C:/Users/stapi/OneDrive/Desktop/GD32VW553/V1_MQTT_OK/GD32VW55X_Wifi_BLE_SDK/GD32VW55x_RELEASE_V1.0.2/MSDK/cloud/alicloud/src/services/ota/impl\ota_lib.c ****         OTA_LOG_ERROR("get value of signMethod key failed");
 998              		.loc 1 211 8
 999 00f6 11CD     		beq	a0,zero,.L71
 212:C:/Users/stapi/OneDrive/Desktop/GD32VW553/V1_MQTT_OK/GD32VW55X_Wifi_BLE_SDK/GD32VW55x_RELEASE_V1.0.2/MSDK/cloud/alicloud/src/services/ota/impl\ota_lib.c ****         return -1;
 1000              		.loc 1 212 9 is_stmt 1
 212:C:/Users/stapi/OneDrive/Desktop/GD32VW553/V1_MQTT_OK/GD32VW55X_Wifi_BLE_SDK/GD32VW55x_RELEASE_V1.0.2/MSDK/cloud/alicloud/src/services/ota/impl\ota_lib.c ****         return -1;
 1001              		.loc 1 212 9
 1002 00f8 37050000 		lui	a0,%hi(.LC0)
 1003 00fc 13050500 		addi	a0,a0,%lo(.LC0)
 1004 0100 97000000 		call	HAL_Printf
 1004      E7800000 
 1005              	.LVL92:
 212:C:/Users/stapi/OneDrive/Desktop/GD32VW553/V1_MQTT_OK/GD32VW55X_Wifi_BLE_SDK/GD32VW55x_RELEASE_V1.0.2/MSDK/cloud/alicloud/src/services/ota/impl\ota_lib.c ****         return -1;
 1006              		.loc 1 212 9
 1007 0108 37050000 		lui	a0,%hi(.LC20)
 1008 010c 13050500 		addi	a0,a0,%lo(.LC20)
 1009 0110 15BF     		j	.L77
 1010              	.L71:
 217:C:/Users/stapi/OneDrive/Desktop/GD32VW553/V1_MQTT_OK/GD32VW55X_Wifi_BLE_SDK/GD32VW55x_RELEASE_V1.0.2/MSDK/cloud/alicloud/src/services/ota/impl\ota_lib.c ****         OTA_LOG_ERROR("get value of url key failed");
 1011              		.loc 1 217 5
 217:C:/Users/stapi/OneDrive/Desktop/GD32VW553/V1_MQTT_OK/GD32VW55X_Wifi_BLE_SDK/GD32VW55x_RELEASE_V1.0.2/MSDK/cloud/alicloud/src/services/ota/impl\ota_lib.c ****         OTA_LOG_ERROR("get value of url key failed");
 1012              		.loc 1 217 14 is_stmt 0
 1013 0112 37060000 		lui	a2,%hi(.LC8)
 1014 0116 CE86     		mv	a3,s3
 1015 0118 13060600 		addi	a2,a2,%lo(.LC8)
 1016 011c A685     		mv	a1,s1
 1017 011e 2285     		mv	a0,s0
 1018 0120 97000000 		call	otalib_GetFirmwareVarlenPara
 1018      E7800000 
 1019              	.LVL93:
 217:C:/Users/stapi/OneDrive/Desktop/GD32VW553/V1_MQTT_OK/GD32VW55X_Wifi_BLE_SDK/GD32VW55x_RELEASE_V1.0.2/MSDK/cloud/alicloud/src/services/ota/impl\ota_lib.c ****         OTA_LOG_ERROR("get value of url key failed");
 1020              		.loc 1 217 8
 1021 0128 11CD     		beq	a0,zero,.L72
 218:C:/Users/stapi/OneDrive/Desktop/GD32VW553/V1_MQTT_OK/GD32VW55X_Wifi_BLE_SDK/GD32VW55x_RELEASE_V1.0.2/MSDK/cloud/alicloud/src/services/ota/impl\ota_lib.c ****         return -1;
 1022              		.loc 1 218 9 is_stmt 1
 218:C:/Users/stapi/OneDrive/Desktop/GD32VW553/V1_MQTT_OK/GD32VW55X_Wifi_BLE_SDK/GD32VW55x_RELEASE_V1.0.2/MSDK/cloud/alicloud/src/services/ota/impl\ota_lib.c ****         return -1;
 1023              		.loc 1 218 9
 1024 012a 37050000 		lui	a0,%hi(.LC0)
 1025 012e 13050500 		addi	a0,a0,%lo(.LC0)
 1026 0132 97000000 		call	HAL_Printf
 1026      E7800000 
 1027              	.LVL94:
 218:C:/Users/stapi/OneDrive/Desktop/GD32VW553/V1_MQTT_OK/GD32VW55X_Wifi_BLE_SDK/GD32VW55x_RELEASE_V1.0.2/MSDK/cloud/alicloud/src/services/ota/impl\ota_lib.c ****         return -1;
 1028              		.loc 1 218 9
 1029 013a 37050000 		lui	a0,%hi(.LC9)
 1030 013e 13050500 		addi	a0,a0,%lo(.LC9)
 1031 0142 09B7     		j	.L77
 1032              	.L72:
 223:C:/Users/stapi/OneDrive/Desktop/GD32VW553/V1_MQTT_OK/GD32VW55X_Wifi_BLE_SDK/GD32VW55x_RELEASE_V1.0.2/MSDK/cloud/alicloud/src/services/ota/impl\ota_lib.c ****         OTA_LOG_ERROR("get value of getType key failed");
 1033              		.loc 1 223 5
 223:C:/Users/stapi/OneDrive/Desktop/GD32VW553/V1_MQTT_OK/GD32VW55X_Wifi_BLE_SDK/GD32VW55x_RELEASE_V1.0.2/MSDK/cloud/alicloud/src/services/ota/impl\ota_lib.c ****         OTA_LOG_ERROR("get value of getType key failed");
 1034              		.loc 1 223 14 is_stmt 0
 1035 0144 37060000 		lui	a2,%hi(.LC21)
 1036 0148 CA86     		mv	a3,s2
 1037 014a 13060600 		addi	a2,a2,%lo(.LC21)
 1038 014e A685     		mv	a1,s1
 1039 0150 2285     		mv	a0,s0
 1040 0152 97000000 		call	otalib_GetFirmwareVarlenPara
 1040      E7800000 
 1041              	.LVL95:
 223:C:/Users/stapi/OneDrive/Desktop/GD32VW553/V1_MQTT_OK/GD32VW55X_Wifi_BLE_SDK/GD32VW55x_RELEASE_V1.0.2/MSDK/cloud/alicloud/src/services/ota/impl\ota_lib.c ****         OTA_LOG_ERROR("get value of getType key failed");
 1042              		.loc 1 223 8
 1043 015a 11D1     		beq	a0,zero,.L66
 224:C:/Users/stapi/OneDrive/Desktop/GD32VW553/V1_MQTT_OK/GD32VW55X_Wifi_BLE_SDK/GD32VW55x_RELEASE_V1.0.2/MSDK/cloud/alicloud/src/services/ota/impl\ota_lib.c ****         return -1;
 1044              		.loc 1 224 9 is_stmt 1
 224:C:/Users/stapi/OneDrive/Desktop/GD32VW553/V1_MQTT_OK/GD32VW55X_Wifi_BLE_SDK/GD32VW55x_RELEASE_V1.0.2/MSDK/cloud/alicloud/src/services/ota/impl\ota_lib.c ****         return -1;
 1045              		.loc 1 224 9
 1046 015c 37050000 		lui	a0,%hi(.LC0)
 1047 0160 13050500 		addi	a0,a0,%lo(.LC0)
 1048 0164 97000000 		call	HAL_Printf
 1048      E7800000 
 1049              	.LVL96:
 224:C:/Users/stapi/OneDrive/Desktop/GD32VW553/V1_MQTT_OK/GD32VW55X_Wifi_BLE_SDK/GD32VW55x_RELEASE_V1.0.2/MSDK/cloud/alicloud/src/services/ota/impl\ota_lib.c ****         return -1;
 1050              		.loc 1 224 9
 1051 016c 37050000 		lui	a0,%hi(.LC22)
 1052 0170 13050500 		addi	a0,a0,%lo(.LC22)
 1053 0174 C1BD     		j	.L77
 1054              		.cfi_endproc
 1055              	.LFE32:
 1057              		.section	.rodata.otalib_GenInfoMsg.str1.4,"aMS",@progbits,1
 1058              		.align	2
 1059              	.LC23:
 1060 0000 7B226964 		.string	"{\"id\":%d,\"params\":{\"version\":\"%s\"}}"
 1060      223A2564 
 1060      2C227061 
 1060      72616D73 
 1060      223A7B22 
 1061              		.align	2
 1062              	.LC24:
 1063 0024 48414C5F 		.string	"HAL_Snprintf failed"
 1063      536E7072 
 1063      696E7466 
 1063      20666169 
 1063      6C656400 
 1064              		.section	.text.otalib_GenInfoMsg,"ax",@progbits
 1065              		.align	1
 1066              		.globl	otalib_GenInfoMsg
 1068              	otalib_GenInfoMsg:
 1069              	.LFB33:
 231:C:/Users/stapi/OneDrive/Desktop/GD32VW553/V1_MQTT_OK/GD32VW55X_Wifi_BLE_SDK/GD32VW55x_RELEASE_V1.0.2/MSDK/cloud/alicloud/src/services/ota/impl\ota_lib.c **** 
 232:C:/Users/stapi/OneDrive/Desktop/GD32VW553/V1_MQTT_OK/GD32VW55X_Wifi_BLE_SDK/GD32VW55x_RELEASE_V1.0.2/MSDK/cloud/alicloud/src/services/ota/impl\ota_lib.c **** /* Generate firmware information according to @id, @version */
 233:C:/Users/stapi/OneDrive/Desktop/GD32VW553/V1_MQTT_OK/GD32VW55X_Wifi_BLE_SDK/GD32VW55x_RELEASE_V1.0.2/MSDK/cloud/alicloud/src/services/ota/impl\ota_lib.c **** /* and then copy to @buf. */
 234:C:/Users/stapi/OneDrive/Desktop/GD32VW553/V1_MQTT_OK/GD32VW55X_Wifi_BLE_SDK/GD32VW55x_RELEASE_V1.0.2/MSDK/cloud/alicloud/src/services/ota/impl\ota_lib.c **** /* 0, successful; -1, failed */
 235:C:/Users/stapi/OneDrive/Desktop/GD32VW553/V1_MQTT_OK/GD32VW55X_Wifi_BLE_SDK/GD32VW55x_RELEASE_V1.0.2/MSDK/cloud/alicloud/src/services/ota/impl\ota_lib.c **** int otalib_GenInfoMsg(char *buf, size_t buf_len, uint32_t id, const char *version)
 236:C:/Users/stapi/OneDrive/Desktop/GD32VW553/V1_MQTT_OK/GD32VW55X_Wifi_BLE_SDK/GD32VW55x_RELEASE_V1.0.2/MSDK/cloud/alicloud/src/services/ota/impl\ota_lib.c **** {
 1070              		.loc 1 236 1
 1071              		.cfi_startproc
 1072              	.LVL97:
 1073 0000 17030000 		call	t0,__riscv_save_0
 1073      E7020300 
 1074              		.cfi_offset 1, -4
 1075              		.cfi_def_cfa_offset 16
 237:C:/Users/stapi/OneDrive/Desktop/GD32VW553/V1_MQTT_OK/GD32VW55X_Wifi_BLE_SDK/GD32VW55x_RELEASE_V1.0.2/MSDK/cloud/alicloud/src/services/ota/impl\ota_lib.c ****     int ret;
 1076              		.loc 1 237 5
 238:C:/Users/stapi/OneDrive/Desktop/GD32VW553/V1_MQTT_OK/GD32VW55X_Wifi_BLE_SDK/GD32VW55x_RELEASE_V1.0.2/MSDK/cloud/alicloud/src/services/ota/impl\ota_lib.c ****     ret = HAL_Snprintf(buf,
 1077              		.loc 1 238 5
 236:C:/Users/stapi/OneDrive/Desktop/GD32VW553/V1_MQTT_OK/GD32VW55X_Wifi_BLE_SDK/GD32VW55x_RELEASE_V1.0.2/MSDK/cloud/alicloud/src/services/ota/impl\ota_lib.c ****     int ret;
 1078              		.loc 1 236 1 is_stmt 0
 1079 0008 3687     		mv	a4,a3
 1080              		.loc 1 238 11
 1081 000a B286     		mv	a3,a2
 1082              	.LVL98:
 1083 000c 37060000 		lui	a2,%hi(.LC23)
 1084              	.LVL99:
 1085 0010 13060600 		addi	a2,a2,%lo(.LC23)
 1086 0014 97000000 		call	HAL_Snprintf
 1086      E7800000 
 1087              	.LVL100:
 239:C:/Users/stapi/OneDrive/Desktop/GD32VW553/V1_MQTT_OK/GD32VW55X_Wifi_BLE_SDK/GD32VW55x_RELEASE_V1.0.2/MSDK/cloud/alicloud/src/services/ota/impl\ota_lib.c ****                        buf_len,
 240:C:/Users/stapi/OneDrive/Desktop/GD32VW553/V1_MQTT_OK/GD32VW55X_Wifi_BLE_SDK/GD32VW55x_RELEASE_V1.0.2/MSDK/cloud/alicloud/src/services/ota/impl\ota_lib.c ****                        "{\"id\":%d,\"params\":{\"version\":\"%s\"}}",
 241:C:/Users/stapi/OneDrive/Desktop/GD32VW553/V1_MQTT_OK/GD32VW55X_Wifi_BLE_SDK/GD32VW55x_RELEASE_V1.0.2/MSDK/cloud/alicloud/src/services/ota/impl\ota_lib.c ****                        id,
 242:C:/Users/stapi/OneDrive/Desktop/GD32VW553/V1_MQTT_OK/GD32VW55X_Wifi_BLE_SDK/GD32VW55x_RELEASE_V1.0.2/MSDK/cloud/alicloud/src/services/ota/impl\ota_lib.c ****                        version);
 243:C:/Users/stapi/OneDrive/Desktop/GD32VW553/V1_MQTT_OK/GD32VW55X_Wifi_BLE_SDK/GD32VW55x_RELEASE_V1.0.2/MSDK/cloud/alicloud/src/services/ota/impl\ota_lib.c **** 
 244:C:/Users/stapi/OneDrive/Desktop/GD32VW553/V1_MQTT_OK/GD32VW55X_Wifi_BLE_SDK/GD32VW55x_RELEASE_V1.0.2/MSDK/cloud/alicloud/src/services/ota/impl\ota_lib.c ****     if (ret < 0) {
 1088              		.loc 1 244 5 is_stmt 1
 1089              		.loc 1 244 8 is_stmt 0
 1090 001c 635F0502 		bge	a0,zero,.L80
 245:C:/Users/stapi/OneDrive/Desktop/GD32VW553/V1_MQTT_OK/GD32VW55X_Wifi_BLE_SDK/GD32VW55x_RELEASE_V1.0.2/MSDK/cloud/alicloud/src/services/ota/impl\ota_lib.c ****         OTA_LOG_ERROR("HAL_Snprintf failed");
 1091              		.loc 1 245 9 is_stmt 1
 1092              		.loc 1 245 9
 1093 0020 37050000 		lui	a0,%hi(.LC0)
 1094              	.LVL101:
 1095 0024 13050500 		addi	a0,a0,%lo(.LC0)
 1096 0028 97000000 		call	HAL_Printf
 1096      E7800000 
 1097              	.LVL102:
 1098              		.loc 1 245 9
 1099 0030 37050000 		lui	a0,%hi(.LC24)
 1100 0034 13050500 		addi	a0,a0,%lo(.LC24)
 1101 0038 97000000 		call	HAL_Printf
 1101      E7800000 
 1102              	.LVL103:
 1103              		.loc 1 245 9
 1104 0040 37050000 		lui	a0,%hi(.LC2)
 1105 0044 13050500 		addi	a0,a0,%lo(.LC2)
 1106 0048 97000000 		call	HAL_Printf
 1106      E7800000 
 1107              	.LVL104:
 1108              		.loc 1 245 9
 246:C:/Users/stapi/OneDrive/Desktop/GD32VW553/V1_MQTT_OK/GD32VW55X_Wifi_BLE_SDK/GD32VW55x_RELEASE_V1.0.2/MSDK/cloud/alicloud/src/services/ota/impl\ota_lib.c ****         return -1;
 1109              		.loc 1 246 9
 1110              		.loc 1 246 16 is_stmt 0
 1111 0050 7D55     		li	a0,-1
 1112              	.L78:
 247:C:/Users/stapi/OneDrive/Desktop/GD32VW553/V1_MQTT_OK/GD32VW55X_Wifi_BLE_SDK/GD32VW55x_RELEASE_V1.0.2/MSDK/cloud/alicloud/src/services/ota/impl\ota_lib.c ****     }
 248:C:/Users/stapi/OneDrive/Desktop/GD32VW553/V1_MQTT_OK/GD32VW55X_Wifi_BLE_SDK/GD32VW55x_RELEASE_V1.0.2/MSDK/cloud/alicloud/src/services/ota/impl\ota_lib.c **** 
 249:C:/Users/stapi/OneDrive/Desktop/GD32VW553/V1_MQTT_OK/GD32VW55X_Wifi_BLE_SDK/GD32VW55x_RELEASE_V1.0.2/MSDK/cloud/alicloud/src/services/ota/impl\ota_lib.c ****     return 0;
 250:C:/Users/stapi/OneDrive/Desktop/GD32VW553/V1_MQTT_OK/GD32VW55X_Wifi_BLE_SDK/GD32VW55x_RELEASE_V1.0.2/MSDK/cloud/alicloud/src/services/ota/impl\ota_lib.c **** }
 1113              		.loc 1 250 1
 1114 0052 17030000 		tail	__riscv_restore_0
 1114      67000300 
 1115              		.cfi_remember_state
 1116              		.cfi_restore 1
 1117              		.cfi_def_cfa_offset 0
 1118              	.LVL105:
 1119              	.L80:
 1120              		.cfi_restore_state
 249:C:/Users/stapi/OneDrive/Desktop/GD32VW553/V1_MQTT_OK/GD32VW55X_Wifi_BLE_SDK/GD32VW55x_RELEASE_V1.0.2/MSDK/cloud/alicloud/src/services/ota/impl\ota_lib.c **** }
 1121              		.loc 1 249 12
 1122 005a 0145     		li	a0,0
 1123              	.LVL106:
 1124 005c DDBF     		j	.L78
 1125              		.cfi_endproc
 1126              	.LFE33:
 1128              		.section	.rodata.otalib_GenReportMsg.str1.4,"aMS",@progbits,1
 1129              		.align	2
 1130              	.LC25:
 1131 0000 7B226964 		.string	"{\"id\":%d,\"params\":{\"step\":\"%d\",\"desc\":\"\"}}"
 1131      223A2564 
 1131      2C227061 
 1131      72616D73 
 1131      223A7B22 
 1132 002b 00       		.align	2
 1133              	.LC26:
 1134 002c 7B226964 		.string	"{\"id\":%d,\"params\":{\"step\":\"%d\",\"desc\":\"%s\"}}"
 1134      223A2564 
 1134      2C227061 
 1134      72616D73 
 1134      223A7B22 
 1135 0059 000000   		.align	2
 1136              	.LC27:
 1137 005c 6D736720 		.string	"msg is too long"
 1137      69732074 
 1137      6F6F206C 
 1137      6F6E6700 
 1138              		.section	.text.otalib_GenReportMsg,"ax",@progbits
 1139              		.align	1
 1140              		.globl	otalib_GenReportMsg
 1142              	otalib_GenReportMsg:
 1143              	.LFB34:
 251:C:/Users/stapi/OneDrive/Desktop/GD32VW553/V1_MQTT_OK/GD32VW55X_Wifi_BLE_SDK/GD32VW55x_RELEASE_V1.0.2/MSDK/cloud/alicloud/src/services/ota/impl\ota_lib.c **** 
 252:C:/Users/stapi/OneDrive/Desktop/GD32VW553/V1_MQTT_OK/GD32VW55X_Wifi_BLE_SDK/GD32VW55x_RELEASE_V1.0.2/MSDK/cloud/alicloud/src/services/ota/impl\ota_lib.c **** /* Generate report information according to @id, @msg */
 253:C:/Users/stapi/OneDrive/Desktop/GD32VW553/V1_MQTT_OK/GD32VW55X_Wifi_BLE_SDK/GD32VW55x_RELEASE_V1.0.2/MSDK/cloud/alicloud/src/services/ota/impl\ota_lib.c **** /* and then copy to @buf. */
 254:C:/Users/stapi/OneDrive/Desktop/GD32VW553/V1_MQTT_OK/GD32VW55X_Wifi_BLE_SDK/GD32VW55x_RELEASE_V1.0.2/MSDK/cloud/alicloud/src/services/ota/impl\ota_lib.c **** /* 0, successful; -1, failed */
 255:C:/Users/stapi/OneDrive/Desktop/GD32VW553/V1_MQTT_OK/GD32VW55X_Wifi_BLE_SDK/GD32VW55x_RELEASE_V1.0.2/MSDK/cloud/alicloud/src/services/ota/impl\ota_lib.c **** int otalib_GenReportMsg(char *buf, size_t buf_len, uint32_t id, int progress, const char *msg_detai
 256:C:/Users/stapi/OneDrive/Desktop/GD32VW553/V1_MQTT_OK/GD32VW55X_Wifi_BLE_SDK/GD32VW55x_RELEASE_V1.0.2/MSDK/cloud/alicloud/src/services/ota/impl\ota_lib.c **** {
 1144              		.loc 1 256 1 is_stmt 1
 1145              		.cfi_startproc
 1146              	.LVL107:
 1147 0000 17030000 		call	t0,__riscv_save_1
 1147      E7020300 
 1148              		.cfi_offset 8, -8
 1149              		.cfi_offset 1, -4
 1150              		.cfi_def_cfa_offset 16
 257:C:/Users/stapi/OneDrive/Desktop/GD32VW553/V1_MQTT_OK/GD32VW55X_Wifi_BLE_SDK/GD32VW55x_RELEASE_V1.0.2/MSDK/cloud/alicloud/src/services/ota/impl\ota_lib.c ****     int ret;
 1151              		.loc 1 257 5
 258:C:/Users/stapi/OneDrive/Desktop/GD32VW553/V1_MQTT_OK/GD32VW55X_Wifi_BLE_SDK/GD32VW55x_RELEASE_V1.0.2/MSDK/cloud/alicloud/src/services/ota/impl\ota_lib.c ****     if (NULL == msg_detail) {
 1152              		.loc 1 258 5
 256:C:/Users/stapi/OneDrive/Desktop/GD32VW553/V1_MQTT_OK/GD32VW55X_Wifi_BLE_SDK/GD32VW55x_RELEASE_V1.0.2/MSDK/cloud/alicloud/src/services/ota/impl\ota_lib.c ****     int ret;
 1153              		.loc 1 256 1 is_stmt 0
 1154 0008 2E84     		mv	s0,a1
 1155              		.loc 1 258 8
 1156 000a 39EB     		bne	a4,zero,.L83
 259:C:/Users/stapi/OneDrive/Desktop/GD32VW553/V1_MQTT_OK/GD32VW55X_Wifi_BLE_SDK/GD32VW55x_RELEASE_V1.0.2/MSDK/cloud/alicloud/src/services/ota/impl\ota_lib.c ****         ret = HAL_Snprintf(buf,
 1157              		.loc 1 259 9 is_stmt 1
 1158              		.loc 1 259 15 is_stmt 0
 1159 000c 3687     		mv	a4,a3
 1160              	.LVL108:
 1161 000e B286     		mv	a3,a2
 1162              	.LVL109:
 1163 0010 37060000 		lui	a2,%hi(.LC25)
 1164              	.LVL110:
 1165 0014 13060600 		addi	a2,a2,%lo(.LC25)
 1166 0018 97000000 		call	HAL_Snprintf
 1166      E7800000 
 1167              	.LVL111:
 1168              	.L89:
 260:C:/Users/stapi/OneDrive/Desktop/GD32VW553/V1_MQTT_OK/GD32VW55X_Wifi_BLE_SDK/GD32VW55x_RELEASE_V1.0.2/MSDK/cloud/alicloud/src/services/ota/impl\ota_lib.c ****                            buf_len,
 261:C:/Users/stapi/OneDrive/Desktop/GD32VW553/V1_MQTT_OK/GD32VW55X_Wifi_BLE_SDK/GD32VW55x_RELEASE_V1.0.2/MSDK/cloud/alicloud/src/services/ota/impl\ota_lib.c ****                            "{\"id\":%d,\"params\":{\"step\":\"%d\",\"desc\":\"\"}}",
 262:C:/Users/stapi/OneDrive/Desktop/GD32VW553/V1_MQTT_OK/GD32VW55X_Wifi_BLE_SDK/GD32VW55x_RELEASE_V1.0.2/MSDK/cloud/alicloud/src/services/ota/impl\ota_lib.c ****                            id,
 263:C:/Users/stapi/OneDrive/Desktop/GD32VW553/V1_MQTT_OK/GD32VW55X_Wifi_BLE_SDK/GD32VW55x_RELEASE_V1.0.2/MSDK/cloud/alicloud/src/services/ota/impl\ota_lib.c ****                            progress);
 264:C:/Users/stapi/OneDrive/Desktop/GD32VW553/V1_MQTT_OK/GD32VW55X_Wifi_BLE_SDK/GD32VW55x_RELEASE_V1.0.2/MSDK/cloud/alicloud/src/services/ota/impl\ota_lib.c ****     } else {
 265:C:/Users/stapi/OneDrive/Desktop/GD32VW553/V1_MQTT_OK/GD32VW55X_Wifi_BLE_SDK/GD32VW55x_RELEASE_V1.0.2/MSDK/cloud/alicloud/src/services/ota/impl\ota_lib.c ****         ret = HAL_Snprintf(buf,
 1169              		.loc 1 265 15
 1170 0020 AA87     		mv	a5,a0
 1171              	.LVL112:
 266:C:/Users/stapi/OneDrive/Desktop/GD32VW553/V1_MQTT_OK/GD32VW55X_Wifi_BLE_SDK/GD32VW55x_RELEASE_V1.0.2/MSDK/cloud/alicloud/src/services/ota/impl\ota_lib.c ****                            buf_len,
 267:C:/Users/stapi/OneDrive/Desktop/GD32VW553/V1_MQTT_OK/GD32VW55X_Wifi_BLE_SDK/GD32VW55x_RELEASE_V1.0.2/MSDK/cloud/alicloud/src/services/ota/impl\ota_lib.c ****                            "{\"id\":%d,\"params\":{\"step\":\"%d\",\"desc\":\"%s\"}}",
 268:C:/Users/stapi/OneDrive/Desktop/GD32VW553/V1_MQTT_OK/GD32VW55X_Wifi_BLE_SDK/GD32VW55x_RELEASE_V1.0.2/MSDK/cloud/alicloud/src/services/ota/impl\ota_lib.c ****                            id,
 269:C:/Users/stapi/OneDrive/Desktop/GD32VW553/V1_MQTT_OK/GD32VW55X_Wifi_BLE_SDK/GD32VW55x_RELEASE_V1.0.2/MSDK/cloud/alicloud/src/services/ota/impl\ota_lib.c ****                            progress,
 270:C:/Users/stapi/OneDrive/Desktop/GD32VW553/V1_MQTT_OK/GD32VW55X_Wifi_BLE_SDK/GD32VW55x_RELEASE_V1.0.2/MSDK/cloud/alicloud/src/services/ota/impl\ota_lib.c ****                            msg_detail);
 271:C:/Users/stapi/OneDrive/Desktop/GD32VW553/V1_MQTT_OK/GD32VW55X_Wifi_BLE_SDK/GD32VW55x_RELEASE_V1.0.2/MSDK/cloud/alicloud/src/services/ota/impl\ota_lib.c ****     }
 272:C:/Users/stapi/OneDrive/Desktop/GD32VW553/V1_MQTT_OK/GD32VW55X_Wifi_BLE_SDK/GD32VW55x_RELEASE_V1.0.2/MSDK/cloud/alicloud/src/services/ota/impl\ota_lib.c **** 
 273:C:/Users/stapi/OneDrive/Desktop/GD32VW553/V1_MQTT_OK/GD32VW55X_Wifi_BLE_SDK/GD32VW55x_RELEASE_V1.0.2/MSDK/cloud/alicloud/src/services/ota/impl\ota_lib.c **** 
 274:C:/Users/stapi/OneDrive/Desktop/GD32VW553/V1_MQTT_OK/GD32VW55X_Wifi_BLE_SDK/GD32VW55x_RELEASE_V1.0.2/MSDK/cloud/alicloud/src/services/ota/impl\ota_lib.c ****     if (ret < 0) {
 1172              		.loc 1 274 5 is_stmt 1
 1173              		.loc 1 274 8 is_stmt 0
 1174 0022 635B0504 		bge	a0,zero,.L85
 275:C:/Users/stapi/OneDrive/Desktop/GD32VW553/V1_MQTT_OK/GD32VW55X_Wifi_BLE_SDK/GD32VW55x_RELEASE_V1.0.2/MSDK/cloud/alicloud/src/services/ota/impl\ota_lib.c ****         OTA_LOG_ERROR("HAL_Snprintf failed");
 1175              		.loc 1 275 9 is_stmt 1
 1176              		.loc 1 275 9
 1177 0026 37050000 		lui	a0,%hi(.LC0)
 1178              	.LVL113:
 1179 002a 13050500 		addi	a0,a0,%lo(.LC0)
 1180 002e 97000000 		call	HAL_Printf
 1180      E7800000 
 1181              	.LVL114:
 1182              		.loc 1 275 9
 1183 0036 37050000 		lui	a0,%hi(.LC24)
 1184 003a 13050500 		addi	a0,a0,%lo(.LC24)
 1185 003e 97000000 		call	HAL_Printf
 1185      E7800000 
 1186              	.LVL115:
 1187              		.loc 1 275 9
 1188 0046 37050000 		lui	a0,%hi(.LC2)
 1189 004a 13050500 		addi	a0,a0,%lo(.LC2)
 1190 004e 97000000 		call	HAL_Printf
 1190      E7800000 
 1191              	.LVL116:
 1192              		.loc 1 275 9
 276:C:/Users/stapi/OneDrive/Desktop/GD32VW553/V1_MQTT_OK/GD32VW55X_Wifi_BLE_SDK/GD32VW55x_RELEASE_V1.0.2/MSDK/cloud/alicloud/src/services/ota/impl\ota_lib.c ****         return -1;
 1193              		.loc 1 276 9
 1194              		.loc 1 276 16 is_stmt 0
 1195 0056 7D55     		li	a0,-1
 1196              	.L82:
 277:C:/Users/stapi/OneDrive/Desktop/GD32VW553/V1_MQTT_OK/GD32VW55X_Wifi_BLE_SDK/GD32VW55x_RELEASE_V1.0.2/MSDK/cloud/alicloud/src/services/ota/impl\ota_lib.c ****     } else if (ret >= buf_len) {
 278:C:/Users/stapi/OneDrive/Desktop/GD32VW553/V1_MQTT_OK/GD32VW55X_Wifi_BLE_SDK/GD32VW55x_RELEASE_V1.0.2/MSDK/cloud/alicloud/src/services/ota/impl\ota_lib.c ****         OTA_LOG_ERROR("msg is too long");
 279:C:/Users/stapi/OneDrive/Desktop/GD32VW553/V1_MQTT_OK/GD32VW55X_Wifi_BLE_SDK/GD32VW55x_RELEASE_V1.0.2/MSDK/cloud/alicloud/src/services/ota/impl\ota_lib.c ****         return IOT_OTAE_STR_TOO_LONG;
 280:C:/Users/stapi/OneDrive/Desktop/GD32VW553/V1_MQTT_OK/GD32VW55X_Wifi_BLE_SDK/GD32VW55x_RELEASE_V1.0.2/MSDK/cloud/alicloud/src/services/ota/impl\ota_lib.c ****     }
 281:C:/Users/stapi/OneDrive/Desktop/GD32VW553/V1_MQTT_OK/GD32VW55X_Wifi_BLE_SDK/GD32VW55x_RELEASE_V1.0.2/MSDK/cloud/alicloud/src/services/ota/impl\ota_lib.c **** 
 282:C:/Users/stapi/OneDrive/Desktop/GD32VW553/V1_MQTT_OK/GD32VW55X_Wifi_BLE_SDK/GD32VW55x_RELEASE_V1.0.2/MSDK/cloud/alicloud/src/services/ota/impl\ota_lib.c ****     return 0;
 283:C:/Users/stapi/OneDrive/Desktop/GD32VW553/V1_MQTT_OK/GD32VW55X_Wifi_BLE_SDK/GD32VW55x_RELEASE_V1.0.2/MSDK/cloud/alicloud/src/services/ota/impl\ota_lib.c **** }
 1197              		.loc 1 283 1
 1198 0058 17030000 		tail	__riscv_restore_1
 1198      67000300 
 1199              		.cfi_remember_state
 1200              		.cfi_restore 8
 1201              		.cfi_restore 1
 1202              		.cfi_def_cfa_offset 0
 1203              	.LVL117:
 1204              	.L83:
 1205              		.cfi_restore_state
 1206 0060 BA87     		mv	a5,a4
 265:C:/Users/stapi/OneDrive/Desktop/GD32VW553/V1_MQTT_OK/GD32VW55X_Wifi_BLE_SDK/GD32VW55x_RELEASE_V1.0.2/MSDK/cloud/alicloud/src/services/ota/impl\ota_lib.c ****                            buf_len,
 1207              		.loc 1 265 9 is_stmt 1
 265:C:/Users/stapi/OneDrive/Desktop/GD32VW553/V1_MQTT_OK/GD32VW55X_Wifi_BLE_SDK/GD32VW55x_RELEASE_V1.0.2/MSDK/cloud/alicloud/src/services/ota/impl\ota_lib.c ****                            buf_len,
 1208              		.loc 1 265 15 is_stmt 0
 1209 0062 3687     		mv	a4,a3
 1210              	.LVL118:
 1211 0064 B286     		mv	a3,a2
 1212              	.LVL119:
 1213 0066 37060000 		lui	a2,%hi(.LC26)
 1214              	.LVL120:
 1215 006a 13060600 		addi	a2,a2,%lo(.LC26)
 1216 006e 97000000 		call	HAL_Snprintf
 1216      E7800000 
 1217              	.LVL121:
 1218 0076 6DB7     		j	.L89
 1219              	.LVL122:
 1220              	.L85:
 277:C:/Users/stapi/OneDrive/Desktop/GD32VW553/V1_MQTT_OK/GD32VW55X_Wifi_BLE_SDK/GD32VW55x_RELEASE_V1.0.2/MSDK/cloud/alicloud/src/services/ota/impl\ota_lib.c ****     } else if (ret >= buf_len) {
 1221              		.loc 1 277 12 is_stmt 1
 282:C:/Users/stapi/OneDrive/Desktop/GD32VW553/V1_MQTT_OK/GD32VW55X_Wifi_BLE_SDK/GD32VW55x_RELEASE_V1.0.2/MSDK/cloud/alicloud/src/services/ota/impl\ota_lib.c **** }
 1222              		.loc 1 282 12 is_stmt 0
 1223 0078 0145     		li	a0,0
 1224              	.LVL123:
 277:C:/Users/stapi/OneDrive/Desktop/GD32VW553/V1_MQTT_OK/GD32VW55X_Wifi_BLE_SDK/GD32VW55x_RELEASE_V1.0.2/MSDK/cloud/alicloud/src/services/ota/impl\ota_lib.c ****     } else if (ret >= buf_len) {
 1225              		.loc 1 277 15
 1226 007a E3EF87FC 		bltu	a5,s0,.L82
 278:C:/Users/stapi/OneDrive/Desktop/GD32VW553/V1_MQTT_OK/GD32VW55X_Wifi_BLE_SDK/GD32VW55x_RELEASE_V1.0.2/MSDK/cloud/alicloud/src/services/ota/impl\ota_lib.c ****         return IOT_OTAE_STR_TOO_LONG;
 1227              		.loc 1 278 9 is_stmt 1
 278:C:/Users/stapi/OneDrive/Desktop/GD32VW553/V1_MQTT_OK/GD32VW55X_Wifi_BLE_SDK/GD32VW55x_RELEASE_V1.0.2/MSDK/cloud/alicloud/src/services/ota/impl\ota_lib.c ****         return IOT_OTAE_STR_TOO_LONG;
 1228              		.loc 1 278 9
 1229 007e 37050000 		lui	a0,%hi(.LC0)
 1230 0082 13050500 		addi	a0,a0,%lo(.LC0)
 1231 0086 97000000 		call	HAL_Printf
 1231      E7800000 
 1232              	.LVL124:
 278:C:/Users/stapi/OneDrive/Desktop/GD32VW553/V1_MQTT_OK/GD32VW55X_Wifi_BLE_SDK/GD32VW55x_RELEASE_V1.0.2/MSDK/cloud/alicloud/src/services/ota/impl\ota_lib.c ****         return IOT_OTAE_STR_TOO_LONG;
 1233              		.loc 1 278 9
 1234 008e 37050000 		lui	a0,%hi(.LC27)
 1235 0092 13050500 		addi	a0,a0,%lo(.LC27)
 1236 0096 97000000 		call	HAL_Printf
 1236      E7800000 
 1237              	.LVL125:
 278:C:/Users/stapi/OneDrive/Desktop/GD32VW553/V1_MQTT_OK/GD32VW55X_Wifi_BLE_SDK/GD32VW55x_RELEASE_V1.0.2/MSDK/cloud/alicloud/src/services/ota/impl\ota_lib.c ****         return IOT_OTAE_STR_TOO_LONG;
 1238              		.loc 1 278 9
 1239 009e 37050000 		lui	a0,%hi(.LC2)
 1240 00a2 13050500 		addi	a0,a0,%lo(.LC2)
 1241 00a6 97000000 		call	HAL_Printf
 1241      E7800000 
 1242              	.LVL126:
 278:C:/Users/stapi/OneDrive/Desktop/GD32VW553/V1_MQTT_OK/GD32VW55X_Wifi_BLE_SDK/GD32VW55x_RELEASE_V1.0.2/MSDK/cloud/alicloud/src/services/ota/impl\ota_lib.c ****         return IOT_OTAE_STR_TOO_LONG;
 1243              		.loc 1 278 9
 279:C:/Users/stapi/OneDrive/Desktop/GD32VW553/V1_MQTT_OK/GD32VW55X_Wifi_BLE_SDK/GD32VW55x_RELEASE_V1.0.2/MSDK/cloud/alicloud/src/services/ota/impl\ota_lib.c ****     }
 1244              		.loc 1 279 9
 279:C:/Users/stapi/OneDrive/Desktop/GD32VW553/V1_MQTT_OK/GD32VW55X_Wifi_BLE_SDK/GD32VW55x_RELEASE_V1.0.2/MSDK/cloud/alicloud/src/services/ota/impl\ota_lib.c ****     }
 1245              		.loc 1 279 16 is_stmt 0
 1246 00ae 7155     		li	a0,-4
 1247 00b0 65B7     		j	.L82
 1248              		.cfi_endproc
 1249              	.LFE34:
 1251              		.text
 1252              	.Letext0:
 1253              		.file 2 "c:\\users\\stapi\\onedrive\\desktop\\gd32vw553\\embeddedbuilder_v1.4.7.26843\\tools\\nucl
 1254              		.file 3 "c:\\users\\stapi\\onedrive\\desktop\\gd32vw553\\embeddedbuilder_v1.4.7.26843\\tools\\nucl
 1255              		.file 4 "c:\\users\\stapi\\onedrive\\desktop\\gd32vw553\\embeddedbuilder_v1.4.7.26843\\tools\\nucl
 1256              		.file 5 "..\\..\\..\\..\\cloud\\alicloud\\src\\infra\\utils\\digest/utils_md5.h"
 1257              		.file 6 "..\\..\\..\\..\\cloud\\alicloud\\src\\infra\\utils\\digest/utils_sha256.h"
 1258              		.file 7 "..\\..\\..\\..\\cloud\\alicloud\\include/iot_import.h"
 1259              		.file 8 "c:\\users\\stapi\\onedrive\\desktop\\gd32vw553\\embeddedbuilder_v1.4.7.26843\\tools\\nucl
 1260              		.file 9 "..\\..\\..\\..\\cloud\\alicloud\\src\\infra\\utils/iotx_utils.h"
 1261              		.file 10 "..\\..\\..\\..\\cloud\\alicloud\\src\\infra\\utils\\misc/json_parser.h"
 1262              		.file 11 "..\\..\\..\\..\\cloud\\alicloud\\include/exports/iot_export_ota.h"
 1263              		.file 12 "<built-in>"
DEFINED SYMBOLS
                            *ABS*:0000000000000000 ota_lib.c
C:\Users\stapi\AppData\Local\Temp\ccH7NpP3.s:13     .text.otalib_JsonValueOf:0000000000000000 otalib_JsonValueOf
C:\Users\stapi\AppData\Local\Temp\ccH7NpP3.s:17     .text.otalib_JsonValueOf:0000000000000000 .L0 
C:\Users\stapi\AppData\Local\Temp\ccH7NpP3.s:19     .text.otalib_JsonValueOf:0000000000000000 .L0 
C:\Users\stapi\AppData\Local\Temp\ccH7NpP3.s:20     .text.otalib_JsonValueOf:0000000000000008 .L0 
C:\Users\stapi\AppData\Local\Temp\ccH7NpP3.s:21     .text.otalib_JsonValueOf:0000000000000008 .L0 
C:\Users\stapi\AppData\Local\Temp\ccH7NpP3.s:22     .text.otalib_JsonValueOf:0000000000000008 .L0 
C:\Users\stapi\AppData\Local\Temp\ccH7NpP3.s:24     .text.otalib_JsonValueOf:0000000000000008 .L0 
C:\Users\stapi\AppData\Local\Temp\ccH7NpP3.s:25     .text.otalib_JsonValueOf:0000000000000008 .L0 
C:\Users\stapi\AppData\Local\Temp\ccH7NpP3.s:26     .text.otalib_JsonValueOf:0000000000000008 .L0 
C:\Users\stapi\AppData\Local\Temp\ccH7NpP3.s:27     .text.otalib_JsonValueOf:0000000000000008 .L0 
C:\Users\stapi\AppData\Local\Temp\ccH7NpP3.s:28     .text.otalib_JsonValueOf:000000000000000a .L0 
C:\Users\stapi\AppData\Local\Temp\ccH7NpP3.s:30     .text.otalib_JsonValueOf:000000000000000a .L0 
C:\Users\stapi\AppData\Local\Temp\ccH7NpP3.s:32     .text.otalib_JsonValueOf:000000000000000c .L0 
C:\Users\stapi\AppData\Local\Temp\ccH7NpP3.s:38     .text.otalib_JsonValueOf:0000000000000018 .L0 
C:\Users\stapi\AppData\Local\Temp\ccH7NpP3.s:39     .text.otalib_JsonValueOf:0000000000000018 .L0 
C:\Users\stapi\AppData\Local\Temp\ccH7NpP3.s:41     .text.otalib_JsonValueOf:000000000000001a .L0 
C:\Users\stapi\AppData\Local\Temp\ccH7NpP3.s:42     .text.otalib_JsonValueOf:000000000000001a .L0 
C:\Users\stapi\AppData\Local\Temp\ccH7NpP3.s:46     .text.otalib_JsonValueOf:000000000000001e .L0 
C:\Users\stapi\AppData\Local\Temp\ccH7NpP3.s:47     .text.otalib_JsonValueOf:000000000000001e .L0 
C:\Users\stapi\AppData\Local\Temp\ccH7NpP3.s:48     .text.otalib_JsonValueOf:0000000000000020 .L0 
C:\Users\stapi\AppData\Local\Temp\ccH7NpP3.s:50     .text.otalib_JsonValueOf:0000000000000028 .L0 
C:\Users\stapi\AppData\Local\Temp\ccH7NpP3.s:51     .text.otalib_JsonValueOf:0000000000000028 .L0 
C:\Users\stapi\AppData\Local\Temp\ccH7NpP3.s:52     .text.otalib_JsonValueOf:0000000000000028 .L0 
C:\Users\stapi\AppData\Local\Temp\ccH7NpP3.s:53     .text.otalib_JsonValueOf:0000000000000028 .L0 
C:\Users\stapi\AppData\Local\Temp\ccH7NpP3.s:60     .text.otalib_MD5Init:0000000000000000 otalib_MD5Init
C:\Users\stapi\AppData\Local\Temp\ccH7NpP3.s:63     .text.otalib_MD5Init:0000000000000000 .L0 
C:\Users\stapi\AppData\Local\Temp\ccH7NpP3.s:64     .text.otalib_MD5Init:0000000000000000 .L0 
C:\Users\stapi\AppData\Local\Temp\ccH7NpP3.s:65     .text.otalib_MD5Init:0000000000000008 .L0 
C:\Users\stapi\AppData\Local\Temp\ccH7NpP3.s:66     .text.otalib_MD5Init:0000000000000008 .L0 
C:\Users\stapi\AppData\Local\Temp\ccH7NpP3.s:67     .text.otalib_MD5Init:0000000000000008 .L0 
C:\Users\stapi\AppData\Local\Temp\ccH7NpP3.s:69     .text.otalib_MD5Init:0000000000000008 .L0 
C:\Users\stapi\AppData\Local\Temp\ccH7NpP3.s:70     .text.otalib_MD5Init:0000000000000008 .L0 
C:\Users\stapi\AppData\Local\Temp\ccH7NpP3.s:78     .text.otalib_MD5Init:000000000000001a .L0 
C:\Users\stapi\AppData\Local\Temp\ccH7NpP3.s:79     .text.otalib_MD5Init:000000000000001a .L0 
C:\Users\stapi\AppData\Local\Temp\ccH7NpP3.s:81     .text.otalib_MD5Init:000000000000001c .L0 
C:\Users\stapi\AppData\Local\Temp\ccH7NpP3.s:84     .text.otalib_MD5Init:0000000000000024 .L0 
C:\Users\stapi\AppData\Local\Temp\ccH7NpP3.s:89     .text.otalib_MD5Init:000000000000002e .L0 
C:\Users\stapi\AppData\Local\Temp\ccH7NpP3.s:90     .text.otalib_MD5Init:000000000000002e .L0 
C:\Users\stapi\AppData\Local\Temp\ccH7NpP3.s:92     .text.otalib_MD5Init:0000000000000038 .L0 
C:\Users\stapi\AppData\Local\Temp\ccH7NpP3.s:93     .text.otalib_MD5Init:0000000000000038 .L0 
C:\Users\stapi\AppData\Local\Temp\ccH7NpP3.s:94     .text.otalib_MD5Init:0000000000000038 .L0 
C:\Users\stapi\AppData\Local\Temp\ccH7NpP3.s:95     .text.otalib_MD5Init:0000000000000038 .L0 
C:\Users\stapi\AppData\Local\Temp\ccH7NpP3.s:102    .text.otalib_MD5Update:0000000000000000 otalib_MD5Update
C:\Users\stapi\AppData\Local\Temp\ccH7NpP3.s:105    .text.otalib_MD5Update:0000000000000000 .L0 
C:\Users\stapi\AppData\Local\Temp\ccH7NpP3.s:107    .text.otalib_MD5Update:0000000000000000 .L0 
C:\Users\stapi\AppData\Local\Temp\ccH7NpP3.s:108    .text.otalib_MD5Update:0000000000000000 .L0 
C:\Users\stapi\AppData\Local\Temp\ccH7NpP3.s:110    .text.otalib_MD5Update:0000000000000008 .L0 
C:\Users\stapi\AppData\Local\Temp\ccH7NpP3.s:117    .text.otalib_MD5Finalize:0000000000000000 otalib_MD5Finalize
C:\Users\stapi\AppData\Local\Temp\ccH7NpP3.s:120    .text.otalib_MD5Finalize:0000000000000000 .L0 
C:\Users\stapi\AppData\Local\Temp\ccH7NpP3.s:122    .text.otalib_MD5Finalize:0000000000000000 .L0 
C:\Users\stapi\AppData\Local\Temp\ccH7NpP3.s:123    .text.otalib_MD5Finalize:0000000000000008 .L0 
C:\Users\stapi\AppData\Local\Temp\ccH7NpP3.s:124    .text.otalib_MD5Finalize:0000000000000008 .L0 
C:\Users\stapi\AppData\Local\Temp\ccH7NpP3.s:125    .text.otalib_MD5Finalize:0000000000000008 .L0 
C:\Users\stapi\AppData\Local\Temp\ccH7NpP3.s:126    .text.otalib_MD5Finalize:0000000000000008 .L0 
C:\Users\stapi\AppData\Local\Temp\ccH7NpP3.s:127    .text.otalib_MD5Finalize:0000000000000008 .L0 
C:\Users\stapi\AppData\Local\Temp\ccH7NpP3.s:128    .text.otalib_MD5Finalize:0000000000000008 .L0 
C:\Users\stapi\AppData\Local\Temp\ccH7NpP3.s:130    .text.otalib_MD5Finalize:0000000000000008 .L0 
C:\Users\stapi\AppData\Local\Temp\ccH7NpP3.s:131    .text.otalib_MD5Finalize:0000000000000008 .L0 
C:\Users\stapi\AppData\Local\Temp\ccH7NpP3.s:132    .text.otalib_MD5Finalize:0000000000000008 .L0 
C:\Users\stapi\AppData\Local\Temp\ccH7NpP3.s:133    .text.otalib_MD5Finalize:0000000000000008 .L0 
C:\Users\stapi\AppData\Local\Temp\ccH7NpP3.s:134    .text.otalib_MD5Finalize:000000000000000a .L0 
C:\Users\stapi\AppData\Local\Temp\ccH7NpP3.s:136    .text.otalib_MD5Finalize:000000000000000a .L0 
C:\Users\stapi\AppData\Local\Temp\ccH7NpP3.s:138    .text.otalib_MD5Finalize:000000000000000c .L0 
C:\Users\stapi\AppData\Local\Temp\ccH7NpP3.s:143    .text.otalib_MD5Finalize:0000000000000016 .L0 
C:\Users\stapi\AppData\Local\Temp\ccH7NpP3.s:144    .text.otalib_MD5Finalize:0000000000000016 .L0 
C:\Users\stapi\AppData\Local\Temp\ccH7NpP3.s:150    .text.otalib_MD5Finalize:000000000000001e .L0 
C:\Users\stapi\AppData\Local\Temp\ccH7NpP3.s:151    .text.otalib_MD5Finalize:000000000000001e .L0 
C:\Users\stapi\AppData\Local\Temp\ccH7NpP3.s:153    .text.otalib_MD5Finalize:0000000000000022 .L0 
C:\Users\stapi\AppData\Local\Temp\ccH7NpP3.s:157    .text.otalib_MD5Finalize:0000000000000026 .L0 
C:\Users\stapi\AppData\Local\Temp\ccH7NpP3.s:161    .text.otalib_MD5Finalize:0000000000000030 .L0 
C:\Users\stapi\AppData\Local\Temp\ccH7NpP3.s:163    .text.otalib_MD5Finalize:0000000000000034 .L0 
C:\Users\stapi\AppData\Local\Temp\ccH7NpP3.s:164    .text.otalib_MD5Finalize:0000000000000034 .L0 
C:\Users\stapi\AppData\Local\Temp\ccH7NpP3.s:168    .text.otalib_MD5Finalize:0000000000000040 .L0 
C:\Users\stapi\AppData\Local\Temp\ccH7NpP3.s:171    .text.otalib_MD5Finalize:0000000000000044 .L0 
C:\Users\stapi\AppData\Local\Temp\ccH7NpP3.s:172    .text.otalib_MD5Finalize:0000000000000044 .L0 
C:\Users\stapi\AppData\Local\Temp\ccH7NpP3.s:173    .text.otalib_MD5Finalize:0000000000000044 .L0 
C:\Users\stapi\AppData\Local\Temp\ccH7NpP3.s:175    .text.otalib_MD5Finalize:0000000000000048 .L0 
C:\Users\stapi\AppData\Local\Temp\ccH7NpP3.s:176    .text.otalib_MD5Finalize:0000000000000048 .L0 
C:\Users\stapi\AppData\Local\Temp\ccH7NpP3.s:178    .text.otalib_MD5Finalize:000000000000004c .L0 
C:\Users\stapi\AppData\Local\Temp\ccH7NpP3.s:179    .text.otalib_MD5Finalize:000000000000004e .L0 
C:\Users\stapi\AppData\Local\Temp\ccH7NpP3.s:181    .text.otalib_MD5Finalize:0000000000000056 .L0 
C:\Users\stapi\AppData\Local\Temp\ccH7NpP3.s:182    .text.otalib_MD5Finalize:0000000000000056 .L0 
C:\Users\stapi\AppData\Local\Temp\ccH7NpP3.s:183    .text.otalib_MD5Finalize:0000000000000056 .L0 
C:\Users\stapi\AppData\Local\Temp\ccH7NpP3.s:184    .text.otalib_MD5Finalize:0000000000000056 .L0 
C:\Users\stapi\AppData\Local\Temp\ccH7NpP3.s:185    .text.otalib_MD5Finalize:0000000000000056 .L0 
C:\Users\stapi\AppData\Local\Temp\ccH7NpP3.s:186    .text.otalib_MD5Finalize:0000000000000056 .L0 
C:\Users\stapi\AppData\Local\Temp\ccH7NpP3.s:187    .text.otalib_MD5Finalize:0000000000000056 .L0 
C:\Users\stapi\AppData\Local\Temp\ccH7NpP3.s:194    .text.otalib_MD5Deinit:0000000000000000 otalib_MD5Deinit
C:\Users\stapi\AppData\Local\Temp\ccH7NpP3.s:197    .text.otalib_MD5Deinit:0000000000000000 .L0 
C:\Users\stapi\AppData\Local\Temp\ccH7NpP3.s:199    .text.otalib_MD5Deinit:0000000000000000 .L0 
C:\Users\stapi\AppData\Local\Temp\ccH7NpP3.s:200    .text.otalib_MD5Deinit:0000000000000000 .L0 
C:\Users\stapi\AppData\Local\Temp\ccH7NpP3.s:201    .text.otalib_MD5Deinit:0000000000000000 .L0 
C:\Users\stapi\AppData\Local\Temp\ccH7NpP3.s:203    .text.otalib_MD5Deinit:0000000000000002 .L0 
C:\Users\stapi\AppData\Local\Temp\ccH7NpP3.s:207    .text.otalib_MD5Deinit:000000000000000c .L0 
C:\Users\stapi\AppData\Local\Temp\ccH7NpP3.s:214    .text.otalib_Sha256Init:0000000000000000 otalib_Sha256Init
C:\Users\stapi\AppData\Local\Temp\ccH7NpP3.s:217    .text.otalib_Sha256Init:0000000000000000 .L0 
C:\Users\stapi\AppData\Local\Temp\ccH7NpP3.s:218    .text.otalib_Sha256Init:0000000000000000 .L0 
C:\Users\stapi\AppData\Local\Temp\ccH7NpP3.s:219    .text.otalib_Sha256Init:0000000000000008 .L0 
C:\Users\stapi\AppData\Local\Temp\ccH7NpP3.s:220    .text.otalib_Sha256Init:0000000000000008 .L0 
C:\Users\stapi\AppData\Local\Temp\ccH7NpP3.s:221    .text.otalib_Sha256Init:0000000000000008 .L0 
C:\Users\stapi\AppData\Local\Temp\ccH7NpP3.s:223    .text.otalib_Sha256Init:0000000000000008 .L0 
C:\Users\stapi\AppData\Local\Temp\ccH7NpP3.s:224    .text.otalib_Sha256Init:0000000000000008 .L0 
C:\Users\stapi\AppData\Local\Temp\ccH7NpP3.s:232    .text.otalib_Sha256Init:000000000000001a .L0 
C:\Users\stapi\AppData\Local\Temp\ccH7NpP3.s:233    .text.otalib_Sha256Init:000000000000001a .L0 
C:\Users\stapi\AppData\Local\Temp\ccH7NpP3.s:235    .text.otalib_Sha256Init:000000000000001c .L0 
C:\Users\stapi\AppData\Local\Temp\ccH7NpP3.s:238    .text.otalib_Sha256Init:0000000000000024 .L0 
C:\Users\stapi\AppData\Local\Temp\ccH7NpP3.s:243    .text.otalib_Sha256Init:000000000000002e .L0 
C:\Users\stapi\AppData\Local\Temp\ccH7NpP3.s:244    .text.otalib_Sha256Init:000000000000002e .L0 
C:\Users\stapi\AppData\Local\Temp\ccH7NpP3.s:246    .text.otalib_Sha256Init:0000000000000038 .L0 
C:\Users\stapi\AppData\Local\Temp\ccH7NpP3.s:247    .text.otalib_Sha256Init:0000000000000038 .L0 
C:\Users\stapi\AppData\Local\Temp\ccH7NpP3.s:248    .text.otalib_Sha256Init:0000000000000038 .L0 
C:\Users\stapi\AppData\Local\Temp\ccH7NpP3.s:249    .text.otalib_Sha256Init:0000000000000038 .L0 
C:\Users\stapi\AppData\Local\Temp\ccH7NpP3.s:256    .text.otalib_Sha256Update:0000000000000000 otalib_Sha256Update
C:\Users\stapi\AppData\Local\Temp\ccH7NpP3.s:259    .text.otalib_Sha256Update:0000000000000000 .L0 
C:\Users\stapi\AppData\Local\Temp\ccH7NpP3.s:261    .text.otalib_Sha256Update:0000000000000000 .L0 
C:\Users\stapi\AppData\Local\Temp\ccH7NpP3.s:262    .text.otalib_Sha256Update:0000000000000000 .L0 
C:\Users\stapi\AppData\Local\Temp\ccH7NpP3.s:264    .text.otalib_Sha256Update:0000000000000008 .L0 
C:\Users\stapi\AppData\Local\Temp\ccH7NpP3.s:271    .text.otalib_Sha256Finalize:0000000000000000 otalib_Sha256Finalize
C:\Users\stapi\AppData\Local\Temp\ccH7NpP3.s:274    .text.otalib_Sha256Finalize:0000000000000000 .L0 
C:\Users\stapi\AppData\Local\Temp\ccH7NpP3.s:276    .text.otalib_Sha256Finalize:0000000000000000 .L0 
C:\Users\stapi\AppData\Local\Temp\ccH7NpP3.s:277    .text.otalib_Sha256Finalize:0000000000000008 .L0 
C:\Users\stapi\AppData\Local\Temp\ccH7NpP3.s:278    .text.otalib_Sha256Finalize:0000000000000008 .L0 
C:\Users\stapi\AppData\Local\Temp\ccH7NpP3.s:279    .text.otalib_Sha256Finalize:0000000000000008 .L0 
C:\Users\stapi\AppData\Local\Temp\ccH7NpP3.s:280    .text.otalib_Sha256Finalize:0000000000000008 .L0 
C:\Users\stapi\AppData\Local\Temp\ccH7NpP3.s:281    .text.otalib_Sha256Finalize:0000000000000008 .L0 
C:\Users\stapi\AppData\Local\Temp\ccH7NpP3.s:282    .text.otalib_Sha256Finalize:0000000000000008 .L0 
C:\Users\stapi\AppData\Local\Temp\ccH7NpP3.s:284    .text.otalib_Sha256Finalize:0000000000000008 .L0 
C:\Users\stapi\AppData\Local\Temp\ccH7NpP3.s:285    .text.otalib_Sha256Finalize:0000000000000008 .L0 
C:\Users\stapi\AppData\Local\Temp\ccH7NpP3.s:286    .text.otalib_Sha256Finalize:0000000000000008 .L0 
C:\Users\stapi\AppData\Local\Temp\ccH7NpP3.s:287    .text.otalib_Sha256Finalize:0000000000000008 .L0 
C:\Users\stapi\AppData\Local\Temp\ccH7NpP3.s:288    .text.otalib_Sha256Finalize:000000000000000a .L0 
C:\Users\stapi\AppData\Local\Temp\ccH7NpP3.s:290    .text.otalib_Sha256Finalize:000000000000000a .L0 
C:\Users\stapi\AppData\Local\Temp\ccH7NpP3.s:292    .text.otalib_Sha256Finalize:000000000000000c .L0 
C:\Users\stapi\AppData\Local\Temp\ccH7NpP3.s:297    .text.otalib_Sha256Finalize:0000000000000016 .L0 
C:\Users\stapi\AppData\Local\Temp\ccH7NpP3.s:298    .text.otalib_Sha256Finalize:0000000000000016 .L0 
C:\Users\stapi\AppData\Local\Temp\ccH7NpP3.s:304    .text.otalib_Sha256Finalize:000000000000001e .L0 
C:\Users\stapi\AppData\Local\Temp\ccH7NpP3.s:305    .text.otalib_Sha256Finalize:000000000000001e .L0 
C:\Users\stapi\AppData\Local\Temp\ccH7NpP3.s:307    .text.otalib_Sha256Finalize:0000000000000022 .L0 
C:\Users\stapi\AppData\Local\Temp\ccH7NpP3.s:311    .text.otalib_Sha256Finalize:0000000000000026 .L0 
C:\Users\stapi\AppData\Local\Temp\ccH7NpP3.s:315    .text.otalib_Sha256Finalize:0000000000000030 .L0 
C:\Users\stapi\AppData\Local\Temp\ccH7NpP3.s:317    .text.otalib_Sha256Finalize:0000000000000034 .L0 
C:\Users\stapi\AppData\Local\Temp\ccH7NpP3.s:318    .text.otalib_Sha256Finalize:0000000000000034 .L0 
C:\Users\stapi\AppData\Local\Temp\ccH7NpP3.s:322    .text.otalib_Sha256Finalize:0000000000000040 .L0 
C:\Users\stapi\AppData\Local\Temp\ccH7NpP3.s:325    .text.otalib_Sha256Finalize:0000000000000044 .L0 
C:\Users\stapi\AppData\Local\Temp\ccH7NpP3.s:326    .text.otalib_Sha256Finalize:0000000000000044 .L0 
C:\Users\stapi\AppData\Local\Temp\ccH7NpP3.s:327    .text.otalib_Sha256Finalize:0000000000000044 .L0 
C:\Users\stapi\AppData\Local\Temp\ccH7NpP3.s:329    .text.otalib_Sha256Finalize:0000000000000048 .L0 
C:\Users\stapi\AppData\Local\Temp\ccH7NpP3.s:330    .text.otalib_Sha256Finalize:0000000000000048 .L0 
C:\Users\stapi\AppData\Local\Temp\ccH7NpP3.s:332    .text.otalib_Sha256Finalize:000000000000004c .L0 
C:\Users\stapi\AppData\Local\Temp\ccH7NpP3.s:333    .text.otalib_Sha256Finalize:000000000000004e .L0 
C:\Users\stapi\AppData\Local\Temp\ccH7NpP3.s:335    .text.otalib_Sha256Finalize:0000000000000056 .L0 
C:\Users\stapi\AppData\Local\Temp\ccH7NpP3.s:336    .text.otalib_Sha256Finalize:0000000000000056 .L0 
C:\Users\stapi\AppData\Local\Temp\ccH7NpP3.s:337    .text.otalib_Sha256Finalize:0000000000000056 .L0 
C:\Users\stapi\AppData\Local\Temp\ccH7NpP3.s:338    .text.otalib_Sha256Finalize:0000000000000056 .L0 
C:\Users\stapi\AppData\Local\Temp\ccH7NpP3.s:339    .text.otalib_Sha256Finalize:0000000000000056 .L0 
C:\Users\stapi\AppData\Local\Temp\ccH7NpP3.s:340    .text.otalib_Sha256Finalize:0000000000000056 .L0 
C:\Users\stapi\AppData\Local\Temp\ccH7NpP3.s:341    .text.otalib_Sha256Finalize:0000000000000056 .L0 
C:\Users\stapi\AppData\Local\Temp\ccH7NpP3.s:348    .text.otalib_Sha256Deinit:0000000000000000 otalib_Sha256Deinit
C:\Users\stapi\AppData\Local\Temp\ccH7NpP3.s:351    .text.otalib_Sha256Deinit:0000000000000000 .L0 
C:\Users\stapi\AppData\Local\Temp\ccH7NpP3.s:353    .text.otalib_Sha256Deinit:0000000000000000 .L0 
C:\Users\stapi\AppData\Local\Temp\ccH7NpP3.s:354    .text.otalib_Sha256Deinit:0000000000000008 .L0 
C:\Users\stapi\AppData\Local\Temp\ccH7NpP3.s:355    .text.otalib_Sha256Deinit:0000000000000008 .L0 
C:\Users\stapi\AppData\Local\Temp\ccH7NpP3.s:356    .text.otalib_Sha256Deinit:0000000000000008 .L0 
C:\Users\stapi\AppData\Local\Temp\ccH7NpP3.s:358    .text.otalib_Sha256Deinit:0000000000000008 .L0 
C:\Users\stapi\AppData\Local\Temp\ccH7NpP3.s:359    .text.otalib_Sha256Deinit:0000000000000008 .L0 
C:\Users\stapi\AppData\Local\Temp\ccH7NpP3.s:361    .text.otalib_Sha256Deinit:000000000000000a .L0 
C:\Users\stapi\AppData\Local\Temp\ccH7NpP3.s:364    .text.otalib_Sha256Deinit:0000000000000012 .L0 
C:\Users\stapi\AppData\Local\Temp\ccH7NpP3.s:365    .text.otalib_Sha256Deinit:0000000000000012 .L0 
C:\Users\stapi\AppData\Local\Temp\ccH7NpP3.s:367    .text.otalib_Sha256Deinit:0000000000000014 .L0 
C:\Users\stapi\AppData\Local\Temp\ccH7NpP3.s:372    .text.otalib_Sha256Deinit:000000000000001e .L0 
C:\Users\stapi\AppData\Local\Temp\ccH7NpP3.s:373    .text.otalib_Sha256Deinit:0000000000000026 .L0 
C:\Users\stapi\AppData\Local\Temp\ccH7NpP3.s:374    .text.otalib_Sha256Deinit:0000000000000026 .L0 
C:\Users\stapi\AppData\Local\Temp\ccH7NpP3.s:375    .text.otalib_Sha256Deinit:0000000000000026 .L0 
C:\Users\stapi\AppData\Local\Temp\ccH7NpP3.s:376    .text.otalib_Sha256Deinit:0000000000000026 .L0 
C:\Users\stapi\AppData\Local\Temp\ccH7NpP3.s:396    .text.otalib_GetFirmwareFixlenPara:0000000000000000 otalib_GetFirmwareFixlenPara
C:\Users\stapi\AppData\Local\Temp\ccH7NpP3.s:399    .text.otalib_GetFirmwareFixlenPara:0000000000000000 .L0 
C:\Users\stapi\AppData\Local\Temp\ccH7NpP3.s:401    .text.otalib_GetFirmwareFixlenPara:0000000000000000 .L0 
C:\Users\stapi\AppData\Local\Temp\ccH7NpP3.s:402    .text.otalib_GetFirmwareFixlenPara:0000000000000008 .L0 
C:\Users\stapi\AppData\Local\Temp\ccH7NpP3.s:403    .text.otalib_GetFirmwareFixlenPara:0000000000000008 .L0 
C:\Users\stapi\AppData\Local\Temp\ccH7NpP3.s:404    .text.otalib_GetFirmwareFixlenPara:0000000000000008 .L0 
C:\Users\stapi\AppData\Local\Temp\ccH7NpP3.s:405    .text.otalib_GetFirmwareFixlenPara:0000000000000008 .L0 
C:\Users\stapi\AppData\Local\Temp\ccH7NpP3.s:406    .text.otalib_GetFirmwareFixlenPara:0000000000000008 .L0 
C:\Users\stapi\AppData\Local\Temp\ccH7NpP3.s:408    .text.otalib_GetFirmwareFixlenPara:0000000000000008 .L0 
C:\Users\stapi\AppData\Local\Temp\ccH7NpP3.s:409    .text.otalib_GetFirmwareFixlenPara:0000000000000008 .L0 
C:\Users\stapi\AppData\Local\Temp\ccH7NpP3.s:410    .text.otalib_GetFirmwareFixlenPara:0000000000000008 .L0 
C:\Users\stapi\AppData\Local\Temp\ccH7NpP3.s:411    .text.otalib_GetFirmwareFixlenPara:0000000000000008 .L0 
C:\Users\stapi\AppData\Local\Temp\ccH7NpP3.s:412    .text.otalib_GetFirmwareFixlenPara:000000000000000a .L0 
C:\Users\stapi\AppData\Local\Temp\ccH7NpP3.s:414    .text.otalib_GetFirmwareFixlenPara:000000000000000a .L0 
C:\Users\stapi\AppData\Local\Temp\ccH7NpP3.s:416    .text.otalib_GetFirmwareFixlenPara:000000000000000c .L0 
C:\Users\stapi\AppData\Local\Temp\ccH7NpP3.s:419    .text.otalib_GetFirmwareFixlenPara:000000000000000e .L0 
C:\Users\stapi\AppData\Local\Temp\ccH7NpP3.s:422    .text.otalib_GetFirmwareFixlenPara:0000000000000012 .L0 
C:\Users\stapi\AppData\Local\Temp\ccH7NpP3.s:425    .text.otalib_GetFirmwareFixlenPara:000000000000001a .L0 
C:\Users\stapi\AppData\Local\Temp\ccH7NpP3.s:427    .text.otalib_GetFirmwareFixlenPara:000000000000001c .L0 
C:\Users\stapi\AppData\Local\Temp\ccH7NpP3.s:428    .text.otalib_GetFirmwareFixlenPara:000000000000001c .L0 
C:\Users\stapi\AppData\Local\Temp\ccH7NpP3.s:434    .text.otalib_GetFirmwareFixlenPara:000000000000002c .L0 
C:\Users\stapi\AppData\Local\Temp\ccH7NpP3.s:441    .text.otalib_GetFirmwareFixlenPara:000000000000003e .L0 
C:\Users\stapi\AppData\Local\Temp\ccH7NpP3.s:442    .text.otalib_GetFirmwareFixlenPara:000000000000003e .L0 
C:\Users\stapi\AppData\Local\Temp\ccH7NpP3.s:447    .text.otalib_GetFirmwareFixlenPara:000000000000004e .L0 
C:\Users\stapi\AppData\Local\Temp\ccH7NpP3.s:448    .text.otalib_GetFirmwareFixlenPara:000000000000004e .L0 
C:\Users\stapi\AppData\Local\Temp\ccH7NpP3.s:449    .text.otalib_GetFirmwareFixlenPara:000000000000004e .L0 
C:\Users\stapi\AppData\Local\Temp\ccH7NpP3.s:452    .text.otalib_GetFirmwareFixlenPara:0000000000000050 .L0 
C:\Users\stapi\AppData\Local\Temp\ccH7NpP3.s:453    .text.otalib_GetFirmwareFixlenPara:0000000000000052 .L0 
C:\Users\stapi\AppData\Local\Temp\ccH7NpP3.s:454    .text.otalib_GetFirmwareFixlenPara:0000000000000052 .L0 
C:\Users\stapi\AppData\Local\Temp\ccH7NpP3.s:456    .text.otalib_GetFirmwareFixlenPara:000000000000005a .L0 
C:\Users\stapi\AppData\Local\Temp\ccH7NpP3.s:457    .text.otalib_GetFirmwareFixlenPara:000000000000005a .L0 
C:\Users\stapi\AppData\Local\Temp\ccH7NpP3.s:458    .text.otalib_GetFirmwareFixlenPara:000000000000005a .L0 
C:\Users\stapi\AppData\Local\Temp\ccH7NpP3.s:459    .text.otalib_GetFirmwareFixlenPara:000000000000005a .L0 
C:\Users\stapi\AppData\Local\Temp\ccH7NpP3.s:460    .text.otalib_GetFirmwareFixlenPara:000000000000005a .L0 
C:\Users\stapi\AppData\Local\Temp\ccH7NpP3.s:463    .text.otalib_GetFirmwareFixlenPara:000000000000005a .L0 
C:\Users\stapi\AppData\Local\Temp\ccH7NpP3.s:465    .text.otalib_GetFirmwareFixlenPara:000000000000005a .L0 
C:\Users\stapi\AppData\Local\Temp\ccH7NpP3.s:466    .text.otalib_GetFirmwareFixlenPara:000000000000005a .L0 
C:\Users\stapi\AppData\Local\Temp\ccH7NpP3.s:468    .text.otalib_GetFirmwareFixlenPara:000000000000005c .L0 
C:\Users\stapi\AppData\Local\Temp\ccH7NpP3.s:470    .text.otalib_GetFirmwareFixlenPara:0000000000000060 .L0 
C:\Users\stapi\AppData\Local\Temp\ccH7NpP3.s:471    .text.otalib_GetFirmwareFixlenPara:0000000000000060 .L0 
C:\Users\stapi\AppData\Local\Temp\ccH7NpP3.s:477    .text.otalib_GetFirmwareFixlenPara:0000000000000070 .L0 
C:\Users\stapi\AppData\Local\Temp\ccH7NpP3.s:486    .text.otalib_GetFirmwareFixlenPara:0000000000000084 .L0 
C:\Users\stapi\AppData\Local\Temp\ccH7NpP3.s:491    .text.otalib_GetFirmwareFixlenPara:000000000000008e .L0 
C:\Users\stapi\AppData\Local\Temp\ccH7NpP3.s:492    .text.otalib_GetFirmwareFixlenPara:000000000000008e .L0 
C:\Users\stapi\AppData\Local\Temp\ccH7NpP3.s:494    .text.otalib_GetFirmwareFixlenPara:0000000000000092 .L0 
C:\Users\stapi\AppData\Local\Temp\ccH7NpP3.s:508    .text.otalib_GetFirmwareVarlenPara:0000000000000000 otalib_GetFirmwareVarlenPara
C:\Users\stapi\AppData\Local\Temp\ccH7NpP3.s:511    .text.otalib_GetFirmwareVarlenPara:0000000000000000 .L0 
C:\Users\stapi\AppData\Local\Temp\ccH7NpP3.s:513    .text.otalib_GetFirmwareVarlenPara:0000000000000000 .L0 
C:\Users\stapi\AppData\Local\Temp\ccH7NpP3.s:514    .text.otalib_GetFirmwareVarlenPara:0000000000000008 .L0 
C:\Users\stapi\AppData\Local\Temp\ccH7NpP3.s:515    .text.otalib_GetFirmwareVarlenPara:0000000000000008 .L0 
C:\Users\stapi\AppData\Local\Temp\ccH7NpP3.s:516    .text.otalib_GetFirmwareVarlenPara:0000000000000008 .L0 
C:\Users\stapi\AppData\Local\Temp\ccH7NpP3.s:517    .text.otalib_GetFirmwareVarlenPara:0000000000000008 .L0 
C:\Users\stapi\AppData\Local\Temp\ccH7NpP3.s:518    .text.otalib_GetFirmwareVarlenPara:0000000000000008 .L0 
C:\Users\stapi\AppData\Local\Temp\ccH7NpP3.s:520    .text.otalib_GetFirmwareVarlenPara:0000000000000008 .L0 
C:\Users\stapi\AppData\Local\Temp\ccH7NpP3.s:521    .text.otalib_GetFirmwareVarlenPara:0000000000000008 .L0 
C:\Users\stapi\AppData\Local\Temp\ccH7NpP3.s:522    .text.otalib_GetFirmwareVarlenPara:0000000000000008 .L0 
C:\Users\stapi\AppData\Local\Temp\ccH7NpP3.s:523    .text.otalib_GetFirmwareVarlenPara:0000000000000008 .L0 
C:\Users\stapi\AppData\Local\Temp\ccH7NpP3.s:524    .text.otalib_GetFirmwareVarlenPara:000000000000000a .L0 
C:\Users\stapi\AppData\Local\Temp\ccH7NpP3.s:526    .text.otalib_GetFirmwareVarlenPara:000000000000000a .L0 
C:\Users\stapi\AppData\Local\Temp\ccH7NpP3.s:528    .text.otalib_GetFirmwareVarlenPara:000000000000000c .L0 
C:\Users\stapi\AppData\Local\Temp\ccH7NpP3.s:531    .text.otalib_GetFirmwareVarlenPara:000000000000000e .L0 
C:\Users\stapi\AppData\Local\Temp\ccH7NpP3.s:533    .text.otalib_GetFirmwareVarlenPara:0000000000000010 .L0 
C:\Users\stapi\AppData\Local\Temp\ccH7NpP3.s:536    .text.otalib_GetFirmwareVarlenPara:0000000000000018 .L0 
C:\Users\stapi\AppData\Local\Temp\ccH7NpP3.s:538    .text.otalib_GetFirmwareVarlenPara:000000000000001a .L0 
C:\Users\stapi\AppData\Local\Temp\ccH7NpP3.s:539    .text.otalib_GetFirmwareVarlenPara:000000000000001a .L0 
C:\Users\stapi\AppData\Local\Temp\ccH7NpP3.s:545    .text.otalib_GetFirmwareVarlenPara:000000000000002a .L0 
C:\Users\stapi\AppData\Local\Temp\ccH7NpP3.s:552    .text.otalib_GetFirmwareVarlenPara:000000000000003c .L0 
C:\Users\stapi\AppData\Local\Temp\ccH7NpP3.s:553    .text.otalib_GetFirmwareVarlenPara:000000000000003c .L0 
C:\Users\stapi\AppData\Local\Temp\ccH7NpP3.s:558    .text.otalib_GetFirmwareVarlenPara:000000000000004c .L0 
C:\Users\stapi\AppData\Local\Temp\ccH7NpP3.s:559    .text.otalib_GetFirmwareVarlenPara:000000000000004c .L0 
C:\Users\stapi\AppData\Local\Temp\ccH7NpP3.s:560    .text.otalib_GetFirmwareVarlenPara:000000000000004c .L0 
C:\Users\stapi\AppData\Local\Temp\ccH7NpP3.s:563    .text.otalib_GetFirmwareVarlenPara:000000000000004e .L0 
C:\Users\stapi\AppData\Local\Temp\ccH7NpP3.s:564    .text.otalib_GetFirmwareVarlenPara:0000000000000050 .L0 
C:\Users\stapi\AppData\Local\Temp\ccH7NpP3.s:565    .text.otalib_GetFirmwareVarlenPara:0000000000000050 .L0 
C:\Users\stapi\AppData\Local\Temp\ccH7NpP3.s:567    .text.otalib_GetFirmwareVarlenPara:0000000000000058 .L0 
C:\Users\stapi\AppData\Local\Temp\ccH7NpP3.s:568    .text.otalib_GetFirmwareVarlenPara:0000000000000058 .L0 
C:\Users\stapi\AppData\Local\Temp\ccH7NpP3.s:569    .text.otalib_GetFirmwareVarlenPara:0000000000000058 .L0 
C:\Users\stapi\AppData\Local\Temp\ccH7NpP3.s:570    .text.otalib_GetFirmwareVarlenPara:0000000000000058 .L0 
C:\Users\stapi\AppData\Local\Temp\ccH7NpP3.s:571    .text.otalib_GetFirmwareVarlenPara:0000000000000058 .L0 
C:\Users\stapi\AppData\Local\Temp\ccH7NpP3.s:574    .text.otalib_GetFirmwareVarlenPara:0000000000000058 .L0 
C:\Users\stapi\AppData\Local\Temp\ccH7NpP3.s:576    .text.otalib_GetFirmwareVarlenPara:0000000000000058 .L0 
C:\Users\stapi\AppData\Local\Temp\ccH7NpP3.s:579    .text.otalib_GetFirmwareVarlenPara:000000000000005c .L0 
C:\Users\stapi\AppData\Local\Temp\ccH7NpP3.s:580    .text.otalib_GetFirmwareVarlenPara:000000000000005c .L0 
C:\Users\stapi\AppData\Local\Temp\ccH7NpP3.s:587    .text.otalib_GetFirmwareVarlenPara:000000000000006a .L0 
C:\Users\stapi\AppData\Local\Temp\ccH7NpP3.s:589    .text.otalib_GetFirmwareVarlenPara:000000000000006c .L0 
C:\Users\stapi\AppData\Local\Temp\ccH7NpP3.s:591    .text.otalib_GetFirmwareVarlenPara:000000000000006e .L0 
C:\Users\stapi\AppData\Local\Temp\ccH7NpP3.s:592    .text.otalib_GetFirmwareVarlenPara:000000000000006e .L0 
C:\Users\stapi\AppData\Local\Temp\ccH7NpP3.s:597    .text.otalib_GetFirmwareVarlenPara:000000000000007e .L0 
C:\Users\stapi\AppData\Local\Temp\ccH7NpP3.s:604    .text.otalib_GetFirmwareVarlenPara:0000000000000090 .L0 
C:\Users\stapi\AppData\Local\Temp\ccH7NpP3.s:609    .text.otalib_GetFirmwareVarlenPara:000000000000009c .L0 
C:\Users\stapi\AppData\Local\Temp\ccH7NpP3.s:610    .text.otalib_GetFirmwareVarlenPara:000000000000009c .L0 
C:\Users\stapi\AppData\Local\Temp\ccH7NpP3.s:613    .text.otalib_GetFirmwareVarlenPara:00000000000000a0 .L0 
C:\Users\stapi\AppData\Local\Temp\ccH7NpP3.s:615    .text.otalib_GetFirmwareVarlenPara:00000000000000a2 .L0 
C:\Users\stapi\AppData\Local\Temp\ccH7NpP3.s:618    .text.otalib_GetFirmwareVarlenPara:00000000000000a8 .L0 
C:\Users\stapi\AppData\Local\Temp\ccH7NpP3.s:619    .text.otalib_GetFirmwareVarlenPara:00000000000000a8 .L0 
C:\Users\stapi\AppData\Local\Temp\ccH7NpP3.s:620    .text.otalib_GetFirmwareVarlenPara:00000000000000aa .L0 
C:\Users\stapi\AppData\Local\Temp\ccH7NpP3.s:652    .text.otalib_GetParams:0000000000000000 otalib_GetParams
C:\Users\stapi\AppData\Local\Temp\ccH7NpP3.s:655    .text.otalib_GetParams:0000000000000000 .L0 
C:\Users\stapi\AppData\Local\Temp\ccH7NpP3.s:657    .text.otalib_GetParams:0000000000000000 .L0 
C:\Users\stapi\AppData\Local\Temp\ccH7NpP3.s:658    .text.otalib_GetParams:0000000000000008 .L0 
C:\Users\stapi\AppData\Local\Temp\ccH7NpP3.s:659    .text.otalib_GetParams:0000000000000008 .L0 
C:\Users\stapi\AppData\Local\Temp\ccH7NpP3.s:660    .text.otalib_GetParams:0000000000000008 .L0 
C:\Users\stapi\AppData\Local\Temp\ccH7NpP3.s:661    .text.otalib_GetParams:0000000000000008 .L0 
C:\Users\stapi\AppData\Local\Temp\ccH7NpP3.s:662    .text.otalib_GetParams:0000000000000008 .L0 
C:\Users\stapi\AppData\Local\Temp\ccH7NpP3.s:663    .text.otalib_GetParams:0000000000000008 .L0 
C:\Users\stapi\AppData\Local\Temp\ccH7NpP3.s:664    .text.otalib_GetParams:0000000000000008 .L0 
C:\Users\stapi\AppData\Local\Temp\ccH7NpP3.s:666    .text.otalib_GetParams:0000000000000008 .L0 
C:\Users\stapi\AppData\Local\Temp\ccH7NpP3.s:667    .text.otalib_GetParams:0000000000000008 .L0 
C:\Users\stapi\AppData\Local\Temp\ccH7NpP3.s:669    .text.otalib_GetParams:000000000000000a .L0 
C:\Users\stapi\AppData\Local\Temp\ccH7NpP3.s:672    .text.otalib_GetParams:000000000000000e .L0 
C:\Users\stapi\AppData\Local\Temp\ccH7NpP3.s:673    .text.otalib_GetParams:0000000000000010 .L0 
C:\Users\stapi\AppData\Local\Temp\ccH7NpP3.s:675    .text.otalib_GetParams:0000000000000010 .L0 
C:\Users\stapi\AppData\Local\Temp\ccH7NpP3.s:677    .text.otalib_GetParams:0000000000000014 .L0 
C:\Users\stapi\AppData\Local\Temp\ccH7NpP3.s:682    .text.otalib_GetParams:000000000000001c .L0 
C:\Users\stapi\AppData\Local\Temp\ccH7NpP3.s:688    .text.otalib_GetParams:0000000000000028 .L0 
C:\Users\stapi\AppData\Local\Temp\ccH7NpP3.s:689    .text.otalib_GetParams:0000000000000028 .L0 
C:\Users\stapi\AppData\Local\Temp\ccH7NpP3.s:692    .text.otalib_GetParams:0000000000000030 .L0 
C:\Users\stapi\AppData\Local\Temp\ccH7NpP3.s:694    .text.otalib_GetParams:0000000000000032 .L0 
C:\Users\stapi\AppData\Local\Temp\ccH7NpP3.s:695    .text.otalib_GetParams:0000000000000032 .L0 
C:\Users\stapi\AppData\Local\Temp\ccH7NpP3.s:700    .text.otalib_GetParams:0000000000000042 .L0 
C:\Users\stapi\AppData\Local\Temp\ccH7NpP3.s:705    .text.otalib_GetParams:000000000000004a .L0 
C:\Users\stapi\AppData\Local\Temp\ccH7NpP3.s:708    .text.otalib_GetParams:0000000000000052 .L0 
C:\Users\stapi\AppData\Local\Temp\ccH7NpP3.s:713    .text.otalib_GetParams:0000000000000062 .L0 
C:\Users\stapi\AppData\Local\Temp\ccH7NpP3.s:714    .text.otalib_GetParams:0000000000000062 .L0 
C:\Users\stapi\AppData\Local\Temp\ccH7NpP3.s:715    .text.otalib_GetParams:0000000000000062 .L0 
C:\Users\stapi\AppData\Local\Temp\ccH7NpP3.s:718    .text.otalib_GetParams:0000000000000064 .L0 
C:\Users\stapi\AppData\Local\Temp\ccH7NpP3.s:720    .text.otalib_GetParams:0000000000000068 .L0 
C:\Users\stapi\AppData\Local\Temp\ccH7NpP3.s:721    .text.otalib_GetParams:0000000000000068 .L0 
C:\Users\stapi\AppData\Local\Temp\ccH7NpP3.s:723    .text.otalib_GetParams:0000000000000070 .L0 
C:\Users\stapi\AppData\Local\Temp\ccH7NpP3.s:724    .text.otalib_GetParams:0000000000000070 .L0 
C:\Users\stapi\AppData\Local\Temp\ccH7NpP3.s:725    .text.otalib_GetParams:0000000000000070 .L0 
C:\Users\stapi\AppData\Local\Temp\ccH7NpP3.s:726    .text.otalib_GetParams:0000000000000070 .L0 
C:\Users\stapi\AppData\Local\Temp\ccH7NpP3.s:727    .text.otalib_GetParams:0000000000000070 .L0 
C:\Users\stapi\AppData\Local\Temp\ccH7NpP3.s:728    .text.otalib_GetParams:0000000000000070 .L0 
C:\Users\stapi\AppData\Local\Temp\ccH7NpP3.s:729    .text.otalib_GetParams:0000000000000070 .L0 
C:\Users\stapi\AppData\Local\Temp\ccH7NpP3.s:732    .text.otalib_GetParams:0000000000000070 .L0 
C:\Users\stapi\AppData\Local\Temp\ccH7NpP3.s:734    .text.otalib_GetParams:0000000000000070 .L0 
C:\Users\stapi\AppData\Local\Temp\ccH7NpP3.s:735    .text.otalib_GetParams:0000000000000070 .L0 
C:\Users\stapi\AppData\Local\Temp\ccH7NpP3.s:743    .text.otalib_GetParams:0000000000000086 .L0 
C:\Users\stapi\AppData\Local\Temp\ccH7NpP3.s:745    .text.otalib_GetParams:0000000000000088 .L0 
C:\Users\stapi\AppData\Local\Temp\ccH7NpP3.s:746    .text.otalib_GetParams:0000000000000088 .L0 
C:\Users\stapi\AppData\Local\Temp\ccH7NpP3.s:751    .text.otalib_GetParams:0000000000000098 .L0 
C:\Users\stapi\AppData\Local\Temp\ccH7NpP3.s:756    .text.otalib_GetParams:00000000000000a2 .L0 
C:\Users\stapi\AppData\Local\Temp\ccH7NpP3.s:757    .text.otalib_GetParams:00000000000000a2 .L0 
C:\Users\stapi\AppData\Local\Temp\ccH7NpP3.s:766    .text.otalib_GetParams:00000000000000bc .L0 
C:\Users\stapi\AppData\Local\Temp\ccH7NpP3.s:768    .text.otalib_GetParams:00000000000000be .L0 
C:\Users\stapi\AppData\Local\Temp\ccH7NpP3.s:769    .text.otalib_GetParams:00000000000000be .L0 
C:\Users\stapi\AppData\Local\Temp\ccH7NpP3.s:774    .text.otalib_GetParams:00000000000000ce .L0 
C:\Users\stapi\AppData\Local\Temp\ccH7NpP3.s:779    .text.otalib_GetParams:00000000000000d8 .L0 
C:\Users\stapi\AppData\Local\Temp\ccH7NpP3.s:780    .text.otalib_GetParams:00000000000000d8 .L0 
C:\Users\stapi\AppData\Local\Temp\ccH7NpP3.s:791    .text.otalib_GetParams:00000000000000f2 .L0 
C:\Users\stapi\AppData\Local\Temp\ccH7NpP3.s:793    .text.otalib_GetParams:00000000000000f4 .L0 
C:\Users\stapi\AppData\Local\Temp\ccH7NpP3.s:794    .text.otalib_GetParams:00000000000000f4 .L0 
C:\Users\stapi\AppData\Local\Temp\ccH7NpP3.s:799    .text.otalib_GetParams:0000000000000104 .L0 
C:\Users\stapi\AppData\Local\Temp\ccH7NpP3.s:804    .text.otalib_GetParams:000000000000010e .L0 
C:\Users\stapi\AppData\Local\Temp\ccH7NpP3.s:805    .text.otalib_GetParams:000000000000010e .L0 
C:\Users\stapi\AppData\Local\Temp\ccH7NpP3.s:807    .text.otalib_GetParams:0000000000000110 .L0 
C:\Users\stapi\AppData\Local\Temp\ccH7NpP3.s:809    .text.otalib_GetParams:0000000000000114 .L0 
C:\Users\stapi\AppData\Local\Temp\ccH7NpP3.s:810    .text.otalib_GetParams:0000000000000114 .L0 
C:\Users\stapi\AppData\Local\Temp\ccH7NpP3.s:813    .text.otalib_GetParams:000000000000011c .L0 
C:\Users\stapi\AppData\Local\Temp\ccH7NpP3.s:815    .text.otalib_GetParams:0000000000000120 .L0 
C:\Users\stapi\AppData\Local\Temp\ccH7NpP3.s:816    .text.otalib_GetParams:0000000000000120 .L0 
C:\Users\stapi\AppData\Local\Temp\ccH7NpP3.s:817    .text.otalib_GetParams:0000000000000122 .L0 
C:\Users\stapi\AppData\Local\Temp\ccH7NpP3.s:852    .text.otalib_GetConfigParams:0000000000000000 otalib_GetConfigParams
C:\Users\stapi\AppData\Local\Temp\ccH7NpP3.s:855    .text.otalib_GetConfigParams:0000000000000000 .L0 
C:\Users\stapi\AppData\Local\Temp\ccH7NpP3.s:857    .text.otalib_GetConfigParams:0000000000000000 .L0 
C:\Users\stapi\AppData\Local\Temp\ccH7NpP3.s:858    .text.otalib_GetConfigParams:0000000000000008 .L0 
C:\Users\stapi\AppData\Local\Temp\ccH7NpP3.s:859    .text.otalib_GetConfigParams:0000000000000008 .L0 
C:\Users\stapi\AppData\Local\Temp\ccH7NpP3.s:860    .text.otalib_GetConfigParams:0000000000000008 .L0 
C:\Users\stapi\AppData\Local\Temp\ccH7NpP3.s:861    .text.otalib_GetConfigParams:0000000000000008 .L0 
C:\Users\stapi\AppData\Local\Temp\ccH7NpP3.s:862    .text.otalib_GetConfigParams:0000000000000008 .L0 
C:\Users\stapi\AppData\Local\Temp\ccH7NpP3.s:863    .text.otalib_GetConfigParams:0000000000000008 .L0 
C:\Users\stapi\AppData\Local\Temp\ccH7NpP3.s:864    .text.otalib_GetConfigParams:0000000000000008 .L0 
C:\Users\stapi\AppData\Local\Temp\ccH7NpP3.s:865    .text.otalib_GetConfigParams:0000000000000008 .L0 
C:\Users\stapi\AppData\Local\Temp\ccH7NpP3.s:866    .text.otalib_GetConfigParams:0000000000000008 .L0 
C:\Users\stapi\AppData\Local\Temp\ccH7NpP3.s:868    .text.otalib_GetConfigParams:0000000000000008 .L0 
C:\Users\stapi\AppData\Local\Temp\ccH7NpP3.s:869    .text.otalib_GetConfigParams:0000000000000008 .L0 
C:\Users\stapi\AppData\Local\Temp\ccH7NpP3.s:870    .text.otalib_GetConfigParams:0000000000000008 .L0 
C:\Users\stapi\AppData\Local\Temp\ccH7NpP3.s:872    .text.otalib_GetConfigParams:000000000000000a .L0 
C:\Users\stapi\AppData\Local\Temp\ccH7NpP3.s:877    .text.otalib_GetConfigParams:0000000000000010 .L0 
C:\Users\stapi\AppData\Local\Temp\ccH7NpP3.s:878    .text.otalib_GetConfigParams:0000000000000012 .L0 
C:\Users\stapi\AppData\Local\Temp\ccH7NpP3.s:880    .text.otalib_GetConfigParams:0000000000000012 .L0 
C:\Users\stapi\AppData\Local\Temp\ccH7NpP3.s:882    .text.otalib_GetConfigParams:0000000000000016 .L0 
C:\Users\stapi\AppData\Local\Temp\ccH7NpP3.s:889    .text.otalib_GetConfigParams:0000000000000022 .L0 
C:\Users\stapi\AppData\Local\Temp\ccH7NpP3.s:892    .text.otalib_GetConfigParams:000000000000002a .L0 
C:\Users\stapi\AppData\Local\Temp\ccH7NpP3.s:894    .text.otalib_GetConfigParams:000000000000002c .L0 
C:\Users\stapi\AppData\Local\Temp\ccH7NpP3.s:895    .text.otalib_GetConfigParams:000000000000002c .L0 
C:\Users\stapi\AppData\Local\Temp\ccH7NpP3.s:900    .text.otalib_GetConfigParams:000000000000003c .L0 
C:\Users\stapi\AppData\Local\Temp\ccH7NpP3.s:904    .text.otalib_GetConfigParams:0000000000000044 .L0 
C:\Users\stapi\AppData\Local\Temp\ccH7NpP3.s:907    .text.otalib_GetConfigParams:000000000000004c .L0 
C:\Users\stapi\AppData\Local\Temp\ccH7NpP3.s:912    .text.otalib_GetConfigParams:000000000000005c .L0 
C:\Users\stapi\AppData\Local\Temp\ccH7NpP3.s:913    .text.otalib_GetConfigParams:000000000000005c .L0 
C:\Users\stapi\AppData\Local\Temp\ccH7NpP3.s:914    .text.otalib_GetConfigParams:000000000000005c .L0 
C:\Users\stapi\AppData\Local\Temp\ccH7NpP3.s:917    .text.otalib_GetConfigParams:000000000000005e .L0 
C:\Users\stapi\AppData\Local\Temp\ccH7NpP3.s:918    .text.otalib_GetConfigParams:0000000000000060 .L0 
C:\Users\stapi\AppData\Local\Temp\ccH7NpP3.s:919    .text.otalib_GetConfigParams:0000000000000060 .L0 
C:\Users\stapi\AppData\Local\Temp\ccH7NpP3.s:921    .text.otalib_GetConfigParams:0000000000000068 .L0 
C:\Users\stapi\AppData\Local\Temp\ccH7NpP3.s:922    .text.otalib_GetConfigParams:0000000000000068 .L0 
C:\Users\stapi\AppData\Local\Temp\ccH7NpP3.s:923    .text.otalib_GetConfigParams:0000000000000068 .L0 
C:\Users\stapi\AppData\Local\Temp\ccH7NpP3.s:924    .text.otalib_GetConfigParams:0000000000000068 .L0 
C:\Users\stapi\AppData\Local\Temp\ccH7NpP3.s:925    .text.otalib_GetConfigParams:0000000000000068 .L0 
C:\Users\stapi\AppData\Local\Temp\ccH7NpP3.s:926    .text.otalib_GetConfigParams:0000000000000068 .L0 
C:\Users\stapi\AppData\Local\Temp\ccH7NpP3.s:927    .text.otalib_GetConfigParams:0000000000000068 .L0 
C:\Users\stapi\AppData\Local\Temp\ccH7NpP3.s:928    .text.otalib_GetConfigParams:0000000000000068 .L0 
C:\Users\stapi\AppData\Local\Temp\ccH7NpP3.s:929    .text.otalib_GetConfigParams:0000000000000068 .L0 
C:\Users\stapi\AppData\Local\Temp\ccH7NpP3.s:931    .text.otalib_GetConfigParams:0000000000000068 .L0 
C:\Users\stapi\AppData\Local\Temp\ccH7NpP3.s:933    .text.otalib_GetConfigParams:0000000000000068 .L0 
C:\Users\stapi\AppData\Local\Temp\ccH7NpP3.s:934    .text.otalib_GetConfigParams:0000000000000068 .L0 
C:\Users\stapi\AppData\Local\Temp\ccH7NpP3.s:943    .text.otalib_GetConfigParams:0000000000000080 .L0 
C:\Users\stapi\AppData\Local\Temp\ccH7NpP3.s:945    .text.otalib_GetConfigParams:0000000000000082 .L0 
C:\Users\stapi\AppData\Local\Temp\ccH7NpP3.s:946    .text.otalib_GetConfigParams:0000000000000082 .L0 
C:\Users\stapi\AppData\Local\Temp\ccH7NpP3.s:951    .text.otalib_GetConfigParams:0000000000000092 .L0 
C:\Users\stapi\AppData\Local\Temp\ccH7NpP3.s:956    .text.otalib_GetConfigParams:000000000000009c .L0 
C:\Users\stapi\AppData\Local\Temp\ccH7NpP3.s:957    .text.otalib_GetConfigParams:000000000000009c .L0 
C:\Users\stapi\AppData\Local\Temp\ccH7NpP3.s:959    .text.otalib_GetConfigParams:000000000000009e .L0 
C:\Users\stapi\AppData\Local\Temp\ccH7NpP3.s:961    .text.otalib_GetConfigParams:00000000000000a2 .L0 
C:\Users\stapi\AppData\Local\Temp\ccH7NpP3.s:962    .text.otalib_GetConfigParams:00000000000000a2 .L0 
C:\Users\stapi\AppData\Local\Temp\ccH7NpP3.s:965    .text.otalib_GetConfigParams:00000000000000aa .L0 
C:\Users\stapi\AppData\Local\Temp\ccH7NpP3.s:967    .text.otalib_GetConfigParams:00000000000000ae .L0 
C:\Users\stapi\AppData\Local\Temp\ccH7NpP3.s:969    .text.otalib_GetConfigParams:00000000000000b2 .L0 
C:\Users\stapi\AppData\Local\Temp\ccH7NpP3.s:970    .text.otalib_GetConfigParams:00000000000000b2 .L0 
C:\Users\stapi\AppData\Local\Temp\ccH7NpP3.s:977    .text.otalib_GetConfigParams:00000000000000c4 .L0 
C:\Users\stapi\AppData\Local\Temp\ccH7NpP3.s:979    .text.otalib_GetConfigParams:00000000000000c6 .L0 
C:\Users\stapi\AppData\Local\Temp\ccH7NpP3.s:980    .text.otalib_GetConfigParams:00000000000000c6 .L0 
C:\Users\stapi\AppData\Local\Temp\ccH7NpP3.s:985    .text.otalib_GetConfigParams:00000000000000d6 .L0 
C:\Users\stapi\AppData\Local\Temp\ccH7NpP3.s:990    .text.otalib_GetConfigParams:00000000000000e0 .L0 
C:\Users\stapi\AppData\Local\Temp\ccH7NpP3.s:991    .text.otalib_GetConfigParams:00000000000000e0 .L0 
C:\Users\stapi\AppData\Local\Temp\ccH7NpP3.s:999    .text.otalib_GetConfigParams:00000000000000f6 .L0 
C:\Users\stapi\AppData\Local\Temp\ccH7NpP3.s:1001   .text.otalib_GetConfigParams:00000000000000f8 .L0 
C:\Users\stapi\AppData\Local\Temp\ccH7NpP3.s:1002   .text.otalib_GetConfigParams:00000000000000f8 .L0 
C:\Users\stapi\AppData\Local\Temp\ccH7NpP3.s:1007   .text.otalib_GetConfigParams:0000000000000108 .L0 
C:\Users\stapi\AppData\Local\Temp\ccH7NpP3.s:1012   .text.otalib_GetConfigParams:0000000000000112 .L0 
C:\Users\stapi\AppData\Local\Temp\ccH7NpP3.s:1013   .text.otalib_GetConfigParams:0000000000000112 .L0 
C:\Users\stapi\AppData\Local\Temp\ccH7NpP3.s:1021   .text.otalib_GetConfigParams:0000000000000128 .L0 
C:\Users\stapi\AppData\Local\Temp\ccH7NpP3.s:1023   .text.otalib_GetConfigParams:000000000000012a .L0 
C:\Users\stapi\AppData\Local\Temp\ccH7NpP3.s:1024   .text.otalib_GetConfigParams:000000000000012a .L0 
C:\Users\stapi\AppData\Local\Temp\ccH7NpP3.s:1029   .text.otalib_GetConfigParams:000000000000013a .L0 
C:\Users\stapi\AppData\Local\Temp\ccH7NpP3.s:1034   .text.otalib_GetConfigParams:0000000000000144 .L0 
C:\Users\stapi\AppData\Local\Temp\ccH7NpP3.s:1035   .text.otalib_GetConfigParams:0000000000000144 .L0 
C:\Users\stapi\AppData\Local\Temp\ccH7NpP3.s:1043   .text.otalib_GetConfigParams:000000000000015a .L0 
C:\Users\stapi\AppData\Local\Temp\ccH7NpP3.s:1045   .text.otalib_GetConfigParams:000000000000015c .L0 
C:\Users\stapi\AppData\Local\Temp\ccH7NpP3.s:1046   .text.otalib_GetConfigParams:000000000000015c .L0 
C:\Users\stapi\AppData\Local\Temp\ccH7NpP3.s:1051   .text.otalib_GetConfigParams:000000000000016c .L0 
C:\Users\stapi\AppData\Local\Temp\ccH7NpP3.s:1054   .text.otalib_GetConfigParams:0000000000000176 .L0 
C:\Users\stapi\AppData\Local\Temp\ccH7NpP3.s:1068   .text.otalib_GenInfoMsg:0000000000000000 otalib_GenInfoMsg
C:\Users\stapi\AppData\Local\Temp\ccH7NpP3.s:1071   .text.otalib_GenInfoMsg:0000000000000000 .L0 
C:\Users\stapi\AppData\Local\Temp\ccH7NpP3.s:1073   .text.otalib_GenInfoMsg:0000000000000000 .L0 
C:\Users\stapi\AppData\Local\Temp\ccH7NpP3.s:1074   .text.otalib_GenInfoMsg:0000000000000008 .L0 
C:\Users\stapi\AppData\Local\Temp\ccH7NpP3.s:1075   .text.otalib_GenInfoMsg:0000000000000008 .L0 
C:\Users\stapi\AppData\Local\Temp\ccH7NpP3.s:1077   .text.otalib_GenInfoMsg:0000000000000008 .L0 
C:\Users\stapi\AppData\Local\Temp\ccH7NpP3.s:1078   .text.otalib_GenInfoMsg:0000000000000008 .L0 
C:\Users\stapi\AppData\Local\Temp\ccH7NpP3.s:1079   .text.otalib_GenInfoMsg:0000000000000008 .L0 
C:\Users\stapi\AppData\Local\Temp\ccH7NpP3.s:1081   .text.otalib_GenInfoMsg:000000000000000a .L0 
C:\Users\stapi\AppData\Local\Temp\ccH7NpP3.s:1089   .text.otalib_GenInfoMsg:000000000000001c .L0 
C:\Users\stapi\AppData\Local\Temp\ccH7NpP3.s:1090   .text.otalib_GenInfoMsg:000000000000001c .L0 
C:\Users\stapi\AppData\Local\Temp\ccH7NpP3.s:1092   .text.otalib_GenInfoMsg:0000000000000020 .L0 
C:\Users\stapi\AppData\Local\Temp\ccH7NpP3.s:1093   .text.otalib_GenInfoMsg:0000000000000020 .L0 
C:\Users\stapi\AppData\Local\Temp\ccH7NpP3.s:1099   .text.otalib_GenInfoMsg:0000000000000030 .L0 
C:\Users\stapi\AppData\Local\Temp\ccH7NpP3.s:1104   .text.otalib_GenInfoMsg:0000000000000040 .L0 
C:\Users\stapi\AppData\Local\Temp\ccH7NpP3.s:1109   .text.otalib_GenInfoMsg:0000000000000050 .L0 
C:\Users\stapi\AppData\Local\Temp\ccH7NpP3.s:1110   .text.otalib_GenInfoMsg:0000000000000050 .L0 
C:\Users\stapi\AppData\Local\Temp\ccH7NpP3.s:1111   .text.otalib_GenInfoMsg:0000000000000050 .L0 
C:\Users\stapi\AppData\Local\Temp\ccH7NpP3.s:1114   .text.otalib_GenInfoMsg:0000000000000052 .L0 
C:\Users\stapi\AppData\Local\Temp\ccH7NpP3.s:1115   .text.otalib_GenInfoMsg:000000000000005a .L0 
C:\Users\stapi\AppData\Local\Temp\ccH7NpP3.s:1116   .text.otalib_GenInfoMsg:000000000000005a .L0 
C:\Users\stapi\AppData\Local\Temp\ccH7NpP3.s:1117   .text.otalib_GenInfoMsg:000000000000005a .L0 
C:\Users\stapi\AppData\Local\Temp\ccH7NpP3.s:1120   .text.otalib_GenInfoMsg:000000000000005a .L0 
C:\Users\stapi\AppData\Local\Temp\ccH7NpP3.s:1122   .text.otalib_GenInfoMsg:000000000000005a .L0 
C:\Users\stapi\AppData\Local\Temp\ccH7NpP3.s:1125   .text.otalib_GenInfoMsg:000000000000005e .L0 
C:\Users\stapi\AppData\Local\Temp\ccH7NpP3.s:1142   .text.otalib_GenReportMsg:0000000000000000 otalib_GenReportMsg
C:\Users\stapi\AppData\Local\Temp\ccH7NpP3.s:1145   .text.otalib_GenReportMsg:0000000000000000 .L0 
C:\Users\stapi\AppData\Local\Temp\ccH7NpP3.s:1147   .text.otalib_GenReportMsg:0000000000000000 .L0 
C:\Users\stapi\AppData\Local\Temp\ccH7NpP3.s:1148   .text.otalib_GenReportMsg:0000000000000008 .L0 
C:\Users\stapi\AppData\Local\Temp\ccH7NpP3.s:1149   .text.otalib_GenReportMsg:0000000000000008 .L0 
C:\Users\stapi\AppData\Local\Temp\ccH7NpP3.s:1150   .text.otalib_GenReportMsg:0000000000000008 .L0 
C:\Users\stapi\AppData\Local\Temp\ccH7NpP3.s:1152   .text.otalib_GenReportMsg:0000000000000008 .L0 
C:\Users\stapi\AppData\Local\Temp\ccH7NpP3.s:1153   .text.otalib_GenReportMsg:0000000000000008 .L0 
C:\Users\stapi\AppData\Local\Temp\ccH7NpP3.s:1154   .text.otalib_GenReportMsg:0000000000000008 .L0 
C:\Users\stapi\AppData\Local\Temp\ccH7NpP3.s:1156   .text.otalib_GenReportMsg:000000000000000a .L0 
C:\Users\stapi\AppData\Local\Temp\ccH7NpP3.s:1158   .text.otalib_GenReportMsg:000000000000000c .L0 
C:\Users\stapi\AppData\Local\Temp\ccH7NpP3.s:1159   .text.otalib_GenReportMsg:000000000000000c .L0 
C:\Users\stapi\AppData\Local\Temp\ccH7NpP3.s:1170   .text.otalib_GenReportMsg:0000000000000020 .L0 
C:\Users\stapi\AppData\Local\Temp\ccH7NpP3.s:1173   .text.otalib_GenReportMsg:0000000000000022 .L0 
C:\Users\stapi\AppData\Local\Temp\ccH7NpP3.s:1174   .text.otalib_GenReportMsg:0000000000000022 .L0 
C:\Users\stapi\AppData\Local\Temp\ccH7NpP3.s:1176   .text.otalib_GenReportMsg:0000000000000026 .L0 
C:\Users\stapi\AppData\Local\Temp\ccH7NpP3.s:1177   .text.otalib_GenReportMsg:0000000000000026 .L0 
C:\Users\stapi\AppData\Local\Temp\ccH7NpP3.s:1183   .text.otalib_GenReportMsg:0000000000000036 .L0 
C:\Users\stapi\AppData\Local\Temp\ccH7NpP3.s:1188   .text.otalib_GenReportMsg:0000000000000046 .L0 
C:\Users\stapi\AppData\Local\Temp\ccH7NpP3.s:1193   .text.otalib_GenReportMsg:0000000000000056 .L0 
C:\Users\stapi\AppData\Local\Temp\ccH7NpP3.s:1194   .text.otalib_GenReportMsg:0000000000000056 .L0 
C:\Users\stapi\AppData\Local\Temp\ccH7NpP3.s:1195   .text.otalib_GenReportMsg:0000000000000056 .L0 
C:\Users\stapi\AppData\Local\Temp\ccH7NpP3.s:1198   .text.otalib_GenReportMsg:0000000000000058 .L0 
C:\Users\stapi\AppData\Local\Temp\ccH7NpP3.s:1199   .text.otalib_GenReportMsg:0000000000000060 .L0 
C:\Users\stapi\AppData\Local\Temp\ccH7NpP3.s:1200   .text.otalib_GenReportMsg:0000000000000060 .L0 
C:\Users\stapi\AppData\Local\Temp\ccH7NpP3.s:1201   .text.otalib_GenReportMsg:0000000000000060 .L0 
C:\Users\stapi\AppData\Local\Temp\ccH7NpP3.s:1202   .text.otalib_GenReportMsg:0000000000000060 .L0 
C:\Users\stapi\AppData\Local\Temp\ccH7NpP3.s:1205   .text.otalib_GenReportMsg:0000000000000060 .L0 
C:\Users\stapi\AppData\Local\Temp\ccH7NpP3.s:1208   .text.otalib_GenReportMsg:0000000000000062 .L0 
C:\Users\stapi\AppData\Local\Temp\ccH7NpP3.s:1209   .text.otalib_GenReportMsg:0000000000000062 .L0 
C:\Users\stapi\AppData\Local\Temp\ccH7NpP3.s:1222   .text.otalib_GenReportMsg:0000000000000078 .L0 
C:\Users\stapi\AppData\Local\Temp\ccH7NpP3.s:1223   .text.otalib_GenReportMsg:0000000000000078 .L0 
C:\Users\stapi\AppData\Local\Temp\ccH7NpP3.s:1226   .text.otalib_GenReportMsg:000000000000007a .L0 
C:\Users\stapi\AppData\Local\Temp\ccH7NpP3.s:1228   .text.otalib_GenReportMsg:000000000000007e .L0 
C:\Users\stapi\AppData\Local\Temp\ccH7NpP3.s:1229   .text.otalib_GenReportMsg:000000000000007e .L0 
C:\Users\stapi\AppData\Local\Temp\ccH7NpP3.s:1234   .text.otalib_GenReportMsg:000000000000008e .L0 
C:\Users\stapi\AppData\Local\Temp\ccH7NpP3.s:1239   .text.otalib_GenReportMsg:000000000000009e .L0 
C:\Users\stapi\AppData\Local\Temp\ccH7NpP3.s:1244   .text.otalib_GenReportMsg:00000000000000ae .L0 
C:\Users\stapi\AppData\Local\Temp\ccH7NpP3.s:1245   .text.otalib_GenReportMsg:00000000000000ae .L0 
C:\Users\stapi\AppData\Local\Temp\ccH7NpP3.s:1246   .text.otalib_GenReportMsg:00000000000000ae .L0 
C:\Users\stapi\AppData\Local\Temp\ccH7NpP3.s:1248   .text.otalib_GenReportMsg:00000000000000b2 .L0 
C:\Users\stapi\AppData\Local\Temp\ccH7NpP3.s:56     .text.otalib_JsonValueOf:0000000000000028 .L0 
C:\Users\stapi\AppData\Local\Temp\ccH7NpP3.s:98     .text.otalib_MD5Init:0000000000000038 .L0 
C:\Users\stapi\AppData\Local\Temp\ccH7NpP3.s:113    .text.otalib_MD5Update:0000000000000008 .L0 
C:\Users\stapi\AppData\Local\Temp\ccH7NpP3.s:190    .text.otalib_MD5Finalize:0000000000000056 .L0 
C:\Users\stapi\AppData\Local\Temp\ccH7NpP3.s:210    .text.otalib_MD5Deinit:000000000000000c .L0 
C:\Users\stapi\AppData\Local\Temp\ccH7NpP3.s:252    .text.otalib_Sha256Init:0000000000000038 .L0 
C:\Users\stapi\AppData\Local\Temp\ccH7NpP3.s:267    .text.otalib_Sha256Update:0000000000000008 .L0 
C:\Users\stapi\AppData\Local\Temp\ccH7NpP3.s:344    .text.otalib_Sha256Finalize:0000000000000056 .L0 
C:\Users\stapi\AppData\Local\Temp\ccH7NpP3.s:379    .text.otalib_Sha256Deinit:0000000000000026 .L0 
C:\Users\stapi\AppData\Local\Temp\ccH7NpP3.s:497    .text.otalib_GetFirmwareFixlenPara:0000000000000092 .L0 
C:\Users\stapi\AppData\Local\Temp\ccH7NpP3.s:623    .text.otalib_GetFirmwareVarlenPara:00000000000000aa .L0 
C:\Users\stapi\AppData\Local\Temp\ccH7NpP3.s:820    .text.otalib_GetParams:0000000000000122 .L0 
C:\Users\stapi\AppData\Local\Temp\ccH7NpP3.s:1057   .text.otalib_GetConfigParams:0000000000000176 .L0 
C:\Users\stapi\AppData\Local\Temp\ccH7NpP3.s:1128   .text.otalib_GenInfoMsg:000000000000005e .L0 
C:\Users\stapi\AppData\Local\Temp\ccH7NpP3.s:1251   .text.otalib_GenReportMsg:00000000000000b2 .L0 
                     .debug_frame:0000000000000000 .L0 
C:\Users\stapi\AppData\Local\Temp\ccH7NpP3.s:45     .text.otalib_JsonValueOf:000000000000001e .L1
C:\Users\stapi\AppData\Local\Temp\ccH7NpP3.s:88     .text.otalib_MD5Init:000000000000002e .L7
C:\Users\stapi\AppData\Local\Temp\ccH7NpP3.s:148    .text.otalib_MD5Finalize:000000000000001e .L16
C:\Users\stapi\AppData\Local\Temp\ccH7NpP3.s:205    .text.otalib_MD5Deinit:000000000000000a .L25
C:\Users\stapi\AppData\Local\Temp\ccH7NpP3.s:242    .text.otalib_Sha256Init:000000000000002e .L28
C:\Users\stapi\AppData\Local\Temp\ccH7NpP3.s:302    .text.otalib_Sha256Finalize:000000000000001e .L37
C:\Users\stapi\AppData\Local\Temp\ccH7NpP3.s:370    .text.otalib_Sha256Deinit:000000000000001e .L40
C:\Users\stapi\AppData\Local\Temp\ccH7NpP3.s:381    .rodata.otalib_GetFirmwareFixlenPara.str1.4:0000000000000000 .LC0
C:\Users\stapi\AppData\Local\Temp\ccH7NpP3.s:384    .rodata.otalib_GetFirmwareFixlenPara.str1.4:0000000000000008 .LC1
C:\Users\stapi\AppData\Local\Temp\ccH7NpP3.s:387    .rodata.otalib_GetFirmwareFixlenPara.str1.4:0000000000000028 .LC2
C:\Users\stapi\AppData\Local\Temp\ccH7NpP3.s:390    .rodata.otalib_GetFirmwareFixlenPara.str1.4:000000000000002c .LC3
C:\Users\stapi\AppData\Local\Temp\ccH7NpP3.s:462    .text.otalib_GetFirmwareFixlenPara:000000000000005a .L47
C:\Users\stapi\AppData\Local\Temp\ccH7NpP3.s:483    .text.otalib_GetFirmwareFixlenPara:0000000000000082 .L49
C:\Users\stapi\AppData\Local\Temp\ccH7NpP3.s:440    .text.otalib_GetFirmwareFixlenPara:000000000000003e .L51
C:\Users\stapi\AppData\Local\Temp\ccH7NpP3.s:450    .text.otalib_GetFirmwareFixlenPara:0000000000000050 .L46
C:\Users\stapi\AppData\Local\Temp\ccH7NpP3.s:499    .rodata.otalib_GetFirmwareVarlenPara.str1.4:0000000000000000 .LC4
C:\Users\stapi\AppData\Local\Temp\ccH7NpP3.s:502    .rodata.otalib_GetFirmwareVarlenPara.str1.4:0000000000000020 .LC5
C:\Users\stapi\AppData\Local\Temp\ccH7NpP3.s:573    .text.otalib_GetFirmwareVarlenPara:0000000000000058 .L53
C:\Users\stapi\AppData\Local\Temp\ccH7NpP3.s:602    .text.otalib_GetFirmwareVarlenPara:0000000000000090 .L55
C:\Users\stapi\AppData\Local\Temp\ccH7NpP3.s:551    .text.otalib_GetFirmwareVarlenPara:000000000000003c .L57
C:\Users\stapi\AppData\Local\Temp\ccH7NpP3.s:561    .text.otalib_GetFirmwareVarlenPara:000000000000004e .L52
C:\Users\stapi\AppData\Local\Temp\ccH7NpP3.s:625    .rodata.otalib_GetParams.str1.4:0000000000000000 .LC6
C:\Users\stapi\AppData\Local\Temp\ccH7NpP3.s:628    .rodata.otalib_GetParams.str1.4:0000000000000008 .LC7
C:\Users\stapi\AppData\Local\Temp\ccH7NpP3.s:631    .rodata.otalib_GetParams.str1.4:0000000000000028 .LC8
C:\Users\stapi\AppData\Local\Temp\ccH7NpP3.s:634    .rodata.otalib_GetParams.str1.4:000000000000002c .LC9
C:\Users\stapi\AppData\Local\Temp\ccH7NpP3.s:637    .rodata.otalib_GetParams.str1.4:0000000000000048 .LC10
C:\Users\stapi\AppData\Local\Temp\ccH7NpP3.s:640    .rodata.otalib_GetParams.str1.4:000000000000004c .LC11
C:\Users\stapi\AppData\Local\Temp\ccH7NpP3.s:643    .rodata.otalib_GetParams.str1.4:0000000000000068 .LC12
C:\Users\stapi\AppData\Local\Temp\ccH7NpP3.s:646    .rodata.otalib_GetParams.str1.4:0000000000000070 .LC13
C:\Users\stapi\AppData\Local\Temp\ccH7NpP3.s:731    .text.otalib_GetParams:0000000000000070 .L59
C:\Users\stapi\AppData\Local\Temp\ccH7NpP3.s:754    .text.otalib_GetParams:00000000000000a2 .L61
C:\Users\stapi\AppData\Local\Temp\ccH7NpP3.s:703    .text.otalib_GetParams:000000000000004a .L65
C:\Users\stapi\AppData\Local\Temp\ccH7NpP3.s:777    .text.otalib_GetParams:00000000000000d8 .L62
C:\Users\stapi\AppData\Local\Temp\ccH7NpP3.s:802    .text.otalib_GetParams:000000000000010e .L63
C:\Users\stapi\AppData\Local\Temp\ccH7NpP3.s:716    .text.otalib_GetParams:0000000000000064 .L58
C:\Users\stapi\AppData\Local\Temp\ccH7NpP3.s:822    .rodata.otalib_GetConfigParams.str1.4:0000000000000000 .LC14
C:\Users\stapi\AppData\Local\Temp\ccH7NpP3.s:825    .rodata.otalib_GetConfigParams.str1.4:000000000000000c .LC15
C:\Users\stapi\AppData\Local\Temp\ccH7NpP3.s:828    .rodata.otalib_GetConfigParams.str1.4:0000000000000030 .LC16
C:\Users\stapi\AppData\Local\Temp\ccH7NpP3.s:831    .rodata.otalib_GetConfigParams.str1.4:000000000000003c .LC17
C:\Users\stapi\AppData\Local\Temp\ccH7NpP3.s:834    .rodata.otalib_GetConfigParams.str1.4:0000000000000044 .LC18
C:\Users\stapi\AppData\Local\Temp\ccH7NpP3.s:837    .rodata.otalib_GetConfigParams.str1.4:0000000000000064 .LC19
C:\Users\stapi\AppData\Local\Temp\ccH7NpP3.s:840    .rodata.otalib_GetConfigParams.str1.4:0000000000000070 .LC20
C:\Users\stapi\AppData\Local\Temp\ccH7NpP3.s:843    .rodata.otalib_GetConfigParams.str1.4:0000000000000094 .LC21
C:\Users\stapi\AppData\Local\Temp\ccH7NpP3.s:846    .rodata.otalib_GetConfigParams.str1.4:000000000000009c .LC22
C:\Users\stapi\AppData\Local\Temp\ccH7NpP3.s:930    .text.otalib_GetConfigParams:0000000000000068 .L67
C:\Users\stapi\AppData\Local\Temp\ccH7NpP3.s:954    .text.otalib_GetConfigParams:000000000000009c .L69
C:\Users\stapi\AppData\Local\Temp\ccH7NpP3.s:902    .text.otalib_GetConfigParams:0000000000000044 .L77
C:\Users\stapi\AppData\Local\Temp\ccH7NpP3.s:988    .text.otalib_GetConfigParams:00000000000000e0 .L70
C:\Users\stapi\AppData\Local\Temp\ccH7NpP3.s:1010   .text.otalib_GetConfigParams:0000000000000112 .L71
C:\Users\stapi\AppData\Local\Temp\ccH7NpP3.s:1032   .text.otalib_GetConfigParams:0000000000000144 .L72
C:\Users\stapi\AppData\Local\Temp\ccH7NpP3.s:915    .text.otalib_GetConfigParams:000000000000005e .L66
C:\Users\stapi\AppData\Local\Temp\ccH7NpP3.s:1059   .rodata.otalib_GenInfoMsg.str1.4:0000000000000000 .LC23
C:\Users\stapi\AppData\Local\Temp\ccH7NpP3.s:1062   .rodata.otalib_GenInfoMsg.str1.4:0000000000000024 .LC24
C:\Users\stapi\AppData\Local\Temp\ccH7NpP3.s:1119   .text.otalib_GenInfoMsg:000000000000005a .L80
C:\Users\stapi\AppData\Local\Temp\ccH7NpP3.s:1112   .text.otalib_GenInfoMsg:0000000000000052 .L78
C:\Users\stapi\AppData\Local\Temp\ccH7NpP3.s:1130   .rodata.otalib_GenReportMsg.str1.4:0000000000000000 .LC25
C:\Users\stapi\AppData\Local\Temp\ccH7NpP3.s:1133   .rodata.otalib_GenReportMsg.str1.4:000000000000002c .LC26
C:\Users\stapi\AppData\Local\Temp\ccH7NpP3.s:1136   .rodata.otalib_GenReportMsg.str1.4:000000000000005c .LC27
C:\Users\stapi\AppData\Local\Temp\ccH7NpP3.s:1204   .text.otalib_GenReportMsg:0000000000000060 .L83
C:\Users\stapi\AppData\Local\Temp\ccH7NpP3.s:1220   .text.otalib_GenReportMsg:0000000000000078 .L85
C:\Users\stapi\AppData\Local\Temp\ccH7NpP3.s:1168   .text.otalib_GenReportMsg:0000000000000020 .L89
C:\Users\stapi\AppData\Local\Temp\ccH7NpP3.s:1196   .text.otalib_GenReportMsg:0000000000000058 .L82
C:\Users\stapi\AppData\Local\Temp\ccH7NpP3.s:3411   .debug_abbrev:0000000000000000 .Ldebug_abbrev0
C:\Users\stapi\AppData\Local\Temp\ccH7NpP3.s:4829   .debug_str:00000000000002d5 .LASF84
C:\Users\stapi\AppData\Local\Temp\ccH7NpP3.s:4765   .debug_str:0000000000000000 .LASF85
C:\Users\stapi\AppData\Local\Temp\ccH7NpP3.s:4823   .debug_str:000000000000021f .LASF86
C:\Users\stapi\AppData\Local\Temp\ccH7NpP3.s:4729   .debug_ranges:0000000000000000 .Ldebug_ranges0
C:\Users\stapi\AppData\Local\Temp\ccH7NpP3.s:4763   .debug_line:0000000000000000 .Ldebug_line0
C:\Users\stapi\AppData\Local\Temp\ccH7NpP3.s:4863   .debug_str:0000000000000490 .LASF0
C:\Users\stapi\AppData\Local\Temp\ccH7NpP3.s:4859   .debug_str:0000000000000465 .LASF1
C:\Users\stapi\AppData\Local\Temp\ccH7NpP3.s:4787   .debug_str:0000000000000125 .LASF2
C:\Users\stapi\AppData\Local\Temp\ccH7NpP3.s:4877   .debug_str:00000000000004fe .LASF3
C:\Users\stapi\AppData\Local\Temp\ccH7NpP3.s:4839   .debug_str:00000000000003fa .LASF4
C:\Users\stapi\AppData\Local\Temp\ccH7NpP3.s:4797   .debug_str:0000000000000170 .LASF7
C:\Users\stapi\AppData\Local\Temp\ccH7NpP3.s:4907   .debug_str:00000000000005c1 .LASF5
C:\Users\stapi\AppData\Local\Temp\ccH7NpP3.s:4831   .debug_str:00000000000003bc .LASF6
C:\Users\stapi\AppData\Local\Temp\ccH7NpP3.s:4897   .debug_str:0000000000000593 .LASF8
C:\Users\stapi\AppData\Local\Temp\ccH7NpP3.s:4865   .debug_str:000000000000049c .LASF9
C:\Users\stapi\AppData\Local\Temp\ccH7NpP3.s:4869   .debug_str:00000000000004bc .LASF10
C:\Users\stapi\AppData\Local\Temp\ccH7NpP3.s:4789   .debug_str:000000000000012f .LASF11
C:\Users\stapi\AppData\Local\Temp\ccH7NpP3.s:4883   .debug_str:0000000000000522 .LASF12
C:\Users\stapi\AppData\Local\Temp\ccH7NpP3.s:4867   .debug_str:00000000000004b3 .LASF13
C:\Users\stapi\AppData\Local\Temp\ccH7NpP3.s:4783   .debug_str:0000000000000109 .LASF14
C:\Users\stapi\AppData\Local\Temp\ccH7NpP3.s:4811   .debug_str:00000000000001c6 .LASF15
C:\Users\stapi\AppData\Local\Temp\ccH7NpP3.s:4801   .debug_str:0000000000000186 .LASF16
C:\Users\stapi\AppData\Local\Temp\ccH7NpP3.s:4793   .debug_str:0000000000000148 .LASF17
C:\Users\stapi\AppData\Local\Temp\ccH7NpP3.s:4909   .debug_str:00000000000005d3 .LASF18
C:\Users\stapi\AppData\Local\Temp\ccH7NpP3.s:4919   .debug_str:000000000000061a .LASF19
C:\Users\stapi\AppData\Local\Temp\ccH7NpP3.s:4771   .debug_str:00000000000000be .LASF20
C:\Users\stapi\AppData\Local\Temp\ccH7NpP3.s:4769   .debug_str:00000000000000aa .LASF21
C:\Users\stapi\AppData\Local\Temp\ccH7NpP3.s:4923   .debug_str:0000000000000642 .LASF22
C:\Users\stapi\AppData\Local\Temp\ccH7NpP3.s:4913   .debug_str:00000000000005ee .LASF23
C:\Users\stapi\AppData\Local\Temp\ccH7NpP3.s:4929   .debug_str:000000000000066c .LASF24
C:\Users\stapi\AppData\Local\Temp\ccH7NpP3.s:4781   .debug_str:0000000000000103 .LASF25
C:\Users\stapi\AppData\Local\Temp\ccH7NpP3.s:4903   .debug_str:00000000000005ad .LASF26
C:\Users\stapi\AppData\Local\Temp\ccH7NpP3.s:4885   .debug_str:0000000000000527 .LASF27
C:\Users\stapi\AppData\Local\Temp\ccH7NpP3.s:4855   .debug_str:0000000000000451 .LASF28
C:\Users\stapi\AppData\Local\Temp\ccH7NpP3.s:4837   .debug_str:00000000000003e7 .LASF29
C:\Users\stapi\AppData\Local\Temp\ccH7NpP3.s:4835   .debug_str:00000000000003d3 .LASF33
C:\Users\stapi\AppData\Local\Temp\ccH7NpP3.s:1143   .text.otalib_GenReportMsg:0000000000000000 .LFB34
C:\Users\stapi\AppData\Local\Temp\ccH7NpP3.s:1249   .text.otalib_GenReportMsg:00000000000000b2 .LFE34
C:\Users\stapi\AppData\Local\Temp\ccH7NpP3.s:3860   .debug_loc:0000000000000000 .LLST48
C:\Users\stapi\AppData\Local\Temp\ccH7NpP3.s:4901   .debug_str:00000000000005a5 .LASF30
C:\Users\stapi\AppData\Local\Temp\ccH7NpP3.s:3885   .debug_loc:000000000000003a .LLST49
C:\Users\stapi\AppData\Local\Temp\ccH7NpP3.s:3896   .debug_loc:0000000000000058 .LLST50
C:\Users\stapi\AppData\Local\Temp\ccH7NpP3.s:4843   .debug_str:0000000000000414 .LASF31
C:\Users\stapi\AppData\Local\Temp\ccH7NpP3.s:3929   .debug_loc:00000000000000a8 .LLST51
C:\Users\stapi\AppData\Local\Temp\ccH7NpP3.s:4875   .debug_str:00000000000004f3 .LASF32
C:\Users\stapi\AppData\Local\Temp\ccH7NpP3.s:3962   .debug_loc:00000000000000f8 .LLST52
C:\Users\stapi\AppData\Local\Temp\ccH7NpP3.s:3991   .debug_loc:000000000000013d .LLST53
C:\Users\stapi\AppData\Local\Temp\ccH7NpP3.s:1167   .text.otalib_GenReportMsg:0000000000000020 .LVL111
C:\Users\stapi\AppData\Local\Temp\ccH7NpP3.s:1181   .text.otalib_GenReportMsg:0000000000000036 .LVL114
C:\Users\stapi\AppData\Local\Temp\ccH7NpP3.s:1186   .text.otalib_GenReportMsg:0000000000000046 .LVL115
C:\Users\stapi\AppData\Local\Temp\ccH7NpP3.s:1191   .text.otalib_GenReportMsg:0000000000000056 .LVL116
C:\Users\stapi\AppData\Local\Temp\ccH7NpP3.s:1217   .text.otalib_GenReportMsg:0000000000000076 .LVL121
C:\Users\stapi\AppData\Local\Temp\ccH7NpP3.s:1232   .text.otalib_GenReportMsg:000000000000008e .LVL124
C:\Users\stapi\AppData\Local\Temp\ccH7NpP3.s:1237   .text.otalib_GenReportMsg:000000000000009e .LVL125
C:\Users\stapi\AppData\Local\Temp\ccH7NpP3.s:1242   .text.otalib_GenReportMsg:00000000000000ae .LVL126
C:\Users\stapi\AppData\Local\Temp\ccH7NpP3.s:4807   .debug_str:00000000000001ad .LASF34
C:\Users\stapi\AppData\Local\Temp\ccH7NpP3.s:1069   .text.otalib_GenInfoMsg:0000000000000000 .LFB33
C:\Users\stapi\AppData\Local\Temp\ccH7NpP3.s:1126   .text.otalib_GenInfoMsg:000000000000005e .LFE33
C:\Users\stapi\AppData\Local\Temp\ccH7NpP3.s:4010   .debug_loc:0000000000000171 .LLST43
C:\Users\stapi\AppData\Local\Temp\ccH7NpP3.s:4024   .debug_loc:0000000000000192 .LLST44
C:\Users\stapi\AppData\Local\Temp\ccH7NpP3.s:4038   .debug_loc:00000000000001b3 .LLST45
C:\Users\stapi\AppData\Local\Temp\ccH7NpP3.s:4941   .debug_str:00000000000006bf .LASF35
C:\Users\stapi\AppData\Local\Temp\ccH7NpP3.s:4056   .debug_loc:00000000000001df .LLST46
C:\Users\stapi\AppData\Local\Temp\ccH7NpP3.s:4074   .debug_loc:000000000000020b .LLST47
C:\Users\stapi\AppData\Local\Temp\ccH7NpP3.s:1087   .text.otalib_GenInfoMsg:000000000000001c .LVL100
C:\Users\stapi\AppData\Local\Temp\ccH7NpP3.s:1097   .text.otalib_GenInfoMsg:0000000000000030 .LVL102
C:\Users\stapi\AppData\Local\Temp\ccH7NpP3.s:1102   .text.otalib_GenInfoMsg:0000000000000040 .LVL103
C:\Users\stapi\AppData\Local\Temp\ccH7NpP3.s:1107   .text.otalib_GenInfoMsg:0000000000000050 .LVL104
C:\Users\stapi\AppData\Local\Temp\ccH7NpP3.s:4915   .debug_str:00000000000005f5 .LASF36
C:\Users\stapi\AppData\Local\Temp\ccH7NpP3.s:853    .text.otalib_GetConfigParams:0000000000000000 .LFB32
C:\Users\stapi\AppData\Local\Temp\ccH7NpP3.s:1055   .text.otalib_GetConfigParams:0000000000000176 .LFE32
C:\Users\stapi\AppData\Local\Temp\ccH7NpP3.s:4925   .debug_str:0000000000000650 .LASF37
C:\Users\stapi\AppData\Local\Temp\ccH7NpP3.s:4085   .debug_loc:0000000000000229 .LLST35
C:\Users\stapi\AppData\Local\Temp\ccH7NpP3.s:4833   .debug_str:00000000000003ca .LASF38
C:\Users\stapi\AppData\Local\Temp\ccH7NpP3.s:4096   .debug_loc:0000000000000247 .LLST36
C:\Users\stapi\AppData\Local\Temp\ccH7NpP3.s:4879   .debug_str:0000000000000511 .LASF39
C:\Users\stapi\AppData\Local\Temp\ccH7NpP3.s:4107   .debug_loc:0000000000000265 .LLST37
C:\Users\stapi\AppData\Local\Temp\ccH7NpP3.s:4857   .debug_str:000000000000045a .LASF40
C:\Users\stapi\AppData\Local\Temp\ccH7NpP3.s:4125   .debug_loc:0000000000000291 .LLST38
C:\Users\stapi\AppData\Local\Temp\ccH7NpP3.s:4911   .debug_str:00000000000005e9 .LASF41
C:\Users\stapi\AppData\Local\Temp\ccH7NpP3.s:4136   .debug_loc:00000000000002af .LLST39
C:\Users\stapi\AppData\Local\Temp\ccH7NpP3.s:4799   .debug_str:000000000000017b .LASF42
C:\Users\stapi\AppData\Local\Temp\ccH7NpP3.s:4147   .debug_loc:00000000000002cd .LLST40
C:\Users\stapi\AppData\Local\Temp\ccH7NpP3.s:4158   .debug_loc:00000000000002eb .LLST41
C:\Users\stapi\AppData\Local\Temp\ccH7NpP3.s:4851   .debug_str:0000000000000442 .LASF43
C:\Users\stapi\AppData\Local\Temp\ccH7NpP3.s:4169   .debug_loc:0000000000000309 .LLST42
C:\Users\stapi\AppData\Local\Temp\ccH7NpP3.s:4917   .debug_str:000000000000060c .LASF44
C:\Users\stapi\AppData\Local\Temp\ccH7NpP3.s:890    .text.otalib_GetConfigParams:000000000000002a .LVL82
C:\Users\stapi\AppData\Local\Temp\ccH7NpP3.s:898    .text.otalib_GetConfigParams:000000000000003c .LVL83
C:\Users\stapi\AppData\Local\Temp\ccH7NpP3.s:905    .text.otalib_GetConfigParams:000000000000004c .LVL84
C:\Users\stapi\AppData\Local\Temp\ccH7NpP3.s:910    .text.otalib_GetConfigParams:000000000000005c .LVL85
C:\Users\stapi\AppData\Local\Temp\ccH7NpP3.s:941    .text.otalib_GetConfigParams:0000000000000080 .LVL86
C:\Users\stapi\AppData\Local\Temp\ccH7NpP3.s:949    .text.otalib_GetConfigParams:0000000000000092 .LVL87
C:\Users\stapi\AppData\Local\Temp\ccH7NpP3.s:963    .text.otalib_GetConfigParams:00000000000000aa .LVL88
C:\Users\stapi\AppData\Local\Temp\ccH7NpP3.s:975    .text.otalib_GetConfigParams:00000000000000c4 .LVL89
C:\Users\stapi\AppData\Local\Temp\ccH7NpP3.s:983    .text.otalib_GetConfigParams:00000000000000d6 .LVL90
C:\Users\stapi\AppData\Local\Temp\ccH7NpP3.s:997    .text.otalib_GetConfigParams:00000000000000f6 .LVL91
C:\Users\stapi\AppData\Local\Temp\ccH7NpP3.s:1005   .text.otalib_GetConfigParams:0000000000000108 .LVL92
C:\Users\stapi\AppData\Local\Temp\ccH7NpP3.s:1019   .text.otalib_GetConfigParams:0000000000000128 .LVL93
C:\Users\stapi\AppData\Local\Temp\ccH7NpP3.s:1027   .text.otalib_GetConfigParams:000000000000013a .LVL94
C:\Users\stapi\AppData\Local\Temp\ccH7NpP3.s:1041   .text.otalib_GetConfigParams:000000000000015a .LVL95
C:\Users\stapi\AppData\Local\Temp\ccH7NpP3.s:1049   .text.otalib_GetConfigParams:000000000000016c .LVL96
C:\Users\stapi\AppData\Local\Temp\ccH7NpP3.s:4887   .debug_str:0000000000000537 .LASF45
C:\Users\stapi\AppData\Local\Temp\ccH7NpP3.s:653    .text.otalib_GetParams:0000000000000000 .LFB31
C:\Users\stapi\AppData\Local\Temp\ccH7NpP3.s:818    .text.otalib_GetParams:0000000000000122 .LFE31
C:\Users\stapi\AppData\Local\Temp\ccH7NpP3.s:4180   .debug_loc:0000000000000327 .LLST29
C:\Users\stapi\AppData\Local\Temp\ccH7NpP3.s:4209   .debug_loc:000000000000036c .LLST30
C:\Users\stapi\AppData\Local\Temp\ccH7NpP3.s:4220   .debug_loc:000000000000038a .LLST31
C:\Users\stapi\AppData\Local\Temp\ccH7NpP3.s:4231   .debug_loc:00000000000003a8 .LLST32
C:\Users\stapi\AppData\Local\Temp\ccH7NpP3.s:4245   .debug_loc:00000000000003c9 .LLST33
C:\Users\stapi\AppData\Local\Temp\ccH7NpP3.s:4895   .debug_str:0000000000000589 .LASF46
C:\Users\stapi\AppData\Local\Temp\ccH7NpP3.s:4256   .debug_loc:00000000000003e7 .LLST34
C:\Users\stapi\AppData\Local\Temp\ccH7NpP3.s:690    .text.otalib_GetParams:0000000000000030 .LVL65
C:\Users\stapi\AppData\Local\Temp\ccH7NpP3.s:698    .text.otalib_GetParams:0000000000000042 .LVL66
C:\Users\stapi\AppData\Local\Temp\ccH7NpP3.s:706    .text.otalib_GetParams:0000000000000052 .LVL68
C:\Users\stapi\AppData\Local\Temp\ccH7NpP3.s:711    .text.otalib_GetParams:0000000000000062 .LVL69
C:\Users\stapi\AppData\Local\Temp\ccH7NpP3.s:741    .text.otalib_GetParams:0000000000000086 .LVL71
C:\Users\stapi\AppData\Local\Temp\ccH7NpP3.s:749    .text.otalib_GetParams:0000000000000098 .LVL72
C:\Users\stapi\AppData\Local\Temp\ccH7NpP3.s:764    .text.otalib_GetParams:00000000000000bc .LVL73
C:\Users\stapi\AppData\Local\Temp\ccH7NpP3.s:772    .text.otalib_GetParams:00000000000000ce .LVL74
C:\Users\stapi\AppData\Local\Temp\ccH7NpP3.s:787    .text.otalib_GetParams:00000000000000f0 .LVL75
C:\Users\stapi\AppData\Local\Temp\ccH7NpP3.s:797    .text.otalib_GetParams:0000000000000104 .LVL77
C:\Users\stapi\AppData\Local\Temp\ccH7NpP3.s:811    .text.otalib_GetParams:000000000000011c .LVL78
C:\Users\stapi\AppData\Local\Temp\ccH7NpP3.s:4861   .debug_str:0000000000000473 .LASF47
C:\Users\stapi\AppData\Local\Temp\ccH7NpP3.s:509    .text.otalib_GetFirmwareVarlenPara:0000000000000000 .LFB30
C:\Users\stapi\AppData\Local\Temp\ccH7NpP3.s:621    .text.otalib_GetFirmwareVarlenPara:00000000000000aa .LFE30
C:\Users\stapi\AppData\Local\Temp\ccH7NpP3.s:4267   .debug_loc:0000000000000405 .LLST24
C:\Users\stapi\AppData\Local\Temp\ccH7NpP3.s:4813   .debug_str:00000000000001d7 .LASF48
C:\Users\stapi\AppData\Local\Temp\ccH7NpP3.s:4281   .debug_loc:0000000000000426 .LLST25
C:\Users\stapi\AppData\Local\Temp\ccH7NpP3.s:4295   .debug_loc:0000000000000447 .LLST26
C:\Users\stapi\AppData\Local\Temp\ccH7NpP3.s:4777   .debug_str:00000000000000ed .LASF49
C:\Users\stapi\AppData\Local\Temp\ccH7NpP3.s:4306   .debug_loc:0000000000000465 .LLST27
C:\Users\stapi\AppData\Local\Temp\ccH7NpP3.s:4809   .debug_str:00000000000001bf .LASF50
C:\Users\stapi\AppData\Local\Temp\ccH7NpP3.s:4317   .debug_loc:0000000000000483 .LLST28
C:\Users\stapi\AppData\Local\Temp\ccH7NpP3.s:4821   .debug_str:0000000000000217 .LASF51
C:\Users\stapi\AppData\Local\Temp\ccH7NpP3.s:534    .text.otalib_GetFirmwareVarlenPara:0000000000000018 .LVL52
C:\Users\stapi\AppData\Local\Temp\ccH7NpP3.s:543    .text.otalib_GetFirmwareVarlenPara:000000000000002a .LVL54
C:\Users\stapi\AppData\Local\Temp\ccH7NpP3.s:549    .text.otalib_GetFirmwareVarlenPara:000000000000003c .LVL55
C:\Users\stapi\AppData\Local\Temp\ccH7NpP3.s:556    .text.otalib_GetFirmwareVarlenPara:000000000000004c .LVL56
C:\Users\stapi\AppData\Local\Temp\ccH7NpP3.s:585    .text.otalib_GetFirmwareVarlenPara:000000000000006a .LVL59
C:\Users\stapi\AppData\Local\Temp\ccH7NpP3.s:595    .text.otalib_GetFirmwareVarlenPara:000000000000007e .LVL60
C:\Users\stapi\AppData\Local\Temp\ccH7NpP3.s:600    .text.otalib_GetFirmwareVarlenPara:000000000000008e .LVL61
C:\Users\stapi\AppData\Local\Temp\ccH7NpP3.s:607    .text.otalib_GetFirmwareVarlenPara:000000000000009c .LVL62
C:\Users\stapi\AppData\Local\Temp\ccH7NpP3.s:4889   .debug_str:0000000000000548 .LASF52
C:\Users\stapi\AppData\Local\Temp\ccH7NpP3.s:397    .text.otalib_GetFirmwareFixlenPara:0000000000000000 .LFB29
C:\Users\stapi\AppData\Local\Temp\ccH7NpP3.s:495    .text.otalib_GetFirmwareFixlenPara:0000000000000092 .LFE29
C:\Users\stapi\AppData\Local\Temp\ccH7NpP3.s:4332   .debug_loc:00000000000004ac .LLST18
C:\Users\stapi\AppData\Local\Temp\ccH7NpP3.s:4346   .debug_loc:00000000000004cd .LLST19
C:\Users\stapi\AppData\Local\Temp\ccH7NpP3.s:4360   .debug_loc:00000000000004ee .LLST20
C:\Users\stapi\AppData\Local\Temp\ccH7NpP3.s:4371   .debug_loc:000000000000050c .LLST21
C:\Users\stapi\AppData\Local\Temp\ccH7NpP3.s:4805   .debug_str:00000000000001a4 .LASF53
C:\Users\stapi\AppData\Local\Temp\ccH7NpP3.s:4382   .debug_loc:000000000000052a .LLST22
C:\Users\stapi\AppData\Local\Temp\ccH7NpP3.s:4393   .debug_loc:0000000000000548 .LLST23
C:\Users\stapi\AppData\Local\Temp\ccH7NpP3.s:423    .text.otalib_GetFirmwareFixlenPara:000000000000001a .LVL38
C:\Users\stapi\AppData\Local\Temp\ccH7NpP3.s:432    .text.otalib_GetFirmwareFixlenPara:000000000000002c .LVL40
C:\Users\stapi\AppData\Local\Temp\ccH7NpP3.s:438    .text.otalib_GetFirmwareFixlenPara:000000000000003e .LVL41
C:\Users\stapi\AppData\Local\Temp\ccH7NpP3.s:445    .text.otalib_GetFirmwareFixlenPara:000000000000004e .LVL42
C:\Users\stapi\AppData\Local\Temp\ccH7NpP3.s:475    .text.otalib_GetFirmwareFixlenPara:0000000000000070 .LVL45
C:\Users\stapi\AppData\Local\Temp\ccH7NpP3.s:480    .text.otalib_GetFirmwareFixlenPara:0000000000000080 .LVL46
C:\Users\stapi\AppData\Local\Temp\ccH7NpP3.s:489    .text.otalib_GetFirmwareFixlenPara:000000000000008e .LVL49
C:\Users\stapi\AppData\Local\Temp\ccH7NpP3.s:4871   .debug_str:00000000000004c9 .LASF55
C:\Users\stapi\AppData\Local\Temp\ccH7NpP3.s:349    .text.otalib_Sha256Deinit:0000000000000000 .LFB28
C:\Users\stapi\AppData\Local\Temp\ccH7NpP3.s:377    .text.otalib_Sha256Deinit:0000000000000026 .LFE28
C:\Users\stapi\AppData\Local\Temp\ccH7NpP3.s:4899   .debug_str:000000000000059e .LASF54
C:\Users\stapi\AppData\Local\Temp\ccH7NpP3.s:4412   .debug_loc:000000000000057c .LLST17
C:\Users\stapi\AppData\Local\Temp\ccH7NpP3.s:362    .text.otalib_Sha256Deinit:0000000000000012 .LVL34
C:\Users\stapi\AppData\Local\Temp\ccH7NpP3.s:369    .text.otalib_Sha256Deinit:000000000000001e .LVL35
C:\Users\stapi\AppData\Local\Temp\ccH7NpP3.s:4873   .debug_str:00000000000004dd .LASF56
C:\Users\stapi\AppData\Local\Temp\ccH7NpP3.s:272    .text.otalib_Sha256Finalize:0000000000000000 .LFB27
C:\Users\stapi\AppData\Local\Temp\ccH7NpP3.s:342    .text.otalib_Sha256Finalize:0000000000000056 .LFE27
C:\Users\stapi\AppData\Local\Temp\ccH7NpP3.s:4423   .debug_loc:000000000000059a .LLST14
C:\Users\stapi\AppData\Local\Temp\ccH7NpP3.s:4819   .debug_str:000000000000020c .LASF57
C:\Users\stapi\AppData\Local\Temp\ccH7NpP3.s:4437   .debug_loc:00000000000005bb .LLST15
C:\Users\stapi\AppData\Local\Temp\ccH7NpP3.s:4448   .debug_loc:00000000000005d9 .LLST16
C:\Users\stapi\AppData\Local\Temp\ccH7NpP3.s:4881   .debug_str:000000000000051a .LASF58
C:\Users\stapi\AppData\Local\Temp\ccH7NpP3.s:295    .text.otalib_Sha256Finalize:0000000000000016 .LVL27
C:\Users\stapi\AppData\Local\Temp\ccH7NpP3.s:313    .text.otalib_Sha256Finalize:0000000000000030 .LVL30
C:\Users\stapi\AppData\Local\Temp\ccH7NpP3.s:320    .text.otalib_Sha256Finalize:0000000000000040 .LVL31
C:\Users\stapi\AppData\Local\Temp\ccH7NpP3.s:4933   .debug_str:0000000000000677 .LASF59
C:\Users\stapi\AppData\Local\Temp\ccH7NpP3.s:257    .text.otalib_Sha256Update:0000000000000000 .LFB26
C:\Users\stapi\AppData\Local\Temp\ccH7NpP3.s:265    .text.otalib_Sha256Update:0000000000000008 .LFE26
C:\Users\stapi\AppData\Local\Temp\ccH7NpP3.s:4478   .debug_loc:0000000000000611 .LLST11
C:\Users\stapi\AppData\Local\Temp\ccH7NpP3.s:4492   .debug_loc:0000000000000632 .LLST12
C:\Users\stapi\AppData\Local\Temp\ccH7NpP3.s:4506   .debug_loc:0000000000000653 .LLST13
C:\Users\stapi\AppData\Local\Temp\ccH7NpP3.s:263    .text.otalib_Sha256Update:0000000000000008 .LVL24
C:\Users\stapi\AppData\Local\Temp\ccH7NpP3.s:4937   .debug_str:0000000000000696 .LASF60
C:\Users\stapi\AppData\Local\Temp\ccH7NpP3.s:215    .text.otalib_Sha256Init:0000000000000000 .LFB25
C:\Users\stapi\AppData\Local\Temp\ccH7NpP3.s:250    .text.otalib_Sha256Init:0000000000000038 .LFE25
C:\Users\stapi\AppData\Local\Temp\ccH7NpP3.s:228    .text.otalib_Sha256Init:0000000000000018 .LVL19
C:\Users\stapi\AppData\Local\Temp\ccH7NpP3.s:236    .text.otalib_Sha256Init:0000000000000024 .LVL21
C:\Users\stapi\AppData\Local\Temp\ccH7NpP3.s:240    .text.otalib_Sha256Init:000000000000002e .LVL22
C:\Users\stapi\AppData\Local\Temp\ccH7NpP3.s:4779   .debug_str:00000000000000f2 .LASF61
C:\Users\stapi\AppData\Local\Temp\ccH7NpP3.s:195    .text.otalib_MD5Deinit:0000000000000000 .LFB24
C:\Users\stapi\AppData\Local\Temp\ccH7NpP3.s:208    .text.otalib_MD5Deinit:000000000000000c .LFE24
C:\Users\stapi\AppData\Local\Temp\ccH7NpP3.s:4520   .debug_loc:0000000000000674 .LLST10
C:\Users\stapi\AppData\Local\Temp\ccH7NpP3.s:204    .text.otalib_MD5Deinit:000000000000000a .LVL18
C:\Users\stapi\AppData\Local\Temp\ccH7NpP3.s:4785   .debug_str:0000000000000112 .LASF62
C:\Users\stapi\AppData\Local\Temp\ccH7NpP3.s:118    .text.otalib_MD5Finalize:0000000000000000 .LFB23
C:\Users\stapi\AppData\Local\Temp\ccH7NpP3.s:188    .text.otalib_MD5Finalize:0000000000000056 .LFE23
C:\Users\stapi\AppData\Local\Temp\ccH7NpP3.s:4538   .debug_loc:00000000000006a0 .LLST7
C:\Users\stapi\AppData\Local\Temp\ccH7NpP3.s:4552   .debug_loc:00000000000006c1 .LLST8
C:\Users\stapi\AppData\Local\Temp\ccH7NpP3.s:4563   .debug_loc:00000000000006df .LLST9
C:\Users\stapi\AppData\Local\Temp\ccH7NpP3.s:141    .text.otalib_MD5Finalize:0000000000000016 .LVL11
C:\Users\stapi\AppData\Local\Temp\ccH7NpP3.s:159    .text.otalib_MD5Finalize:0000000000000030 .LVL14
C:\Users\stapi\AppData\Local\Temp\ccH7NpP3.s:166    .text.otalib_MD5Finalize:0000000000000040 .LVL15
C:\Users\stapi\AppData\Local\Temp\ccH7NpP3.s:4825   .debug_str:00000000000002b0 .LASF63
C:\Users\stapi\AppData\Local\Temp\ccH7NpP3.s:103    .text.otalib_MD5Update:0000000000000000 .LFB22
C:\Users\stapi\AppData\Local\Temp\ccH7NpP3.s:111    .text.otalib_MD5Update:0000000000000008 .LFE22
C:\Users\stapi\AppData\Local\Temp\ccH7NpP3.s:4593   .debug_loc:0000000000000717 .LLST4
C:\Users\stapi\AppData\Local\Temp\ccH7NpP3.s:4607   .debug_loc:0000000000000738 .LLST5
C:\Users\stapi\AppData\Local\Temp\ccH7NpP3.s:4621   .debug_loc:0000000000000759 .LLST6
C:\Users\stapi\AppData\Local\Temp\ccH7NpP3.s:109    .text.otalib_MD5Update:0000000000000008 .LVL8
C:\Users\stapi\AppData\Local\Temp\ccH7NpP3.s:4893   .debug_str:000000000000057a .LASF64
C:\Users\stapi\AppData\Local\Temp\ccH7NpP3.s:61     .text.otalib_MD5Init:0000000000000000 .LFB21
C:\Users\stapi\AppData\Local\Temp\ccH7NpP3.s:96     .text.otalib_MD5Init:0000000000000038 .LFE21
C:\Users\stapi\AppData\Local\Temp\ccH7NpP3.s:74     .text.otalib_MD5Init:0000000000000018 .LVL3
C:\Users\stapi\AppData\Local\Temp\ccH7NpP3.s:82     .text.otalib_MD5Init:0000000000000024 .LVL5
C:\Users\stapi\AppData\Local\Temp\ccH7NpP3.s:86     .text.otalib_MD5Init:000000000000002e .LVL6
C:\Users\stapi\AppData\Local\Temp\ccH7NpP3.s:4773   .debug_str:00000000000000cd .LASF65
C:\Users\stapi\AppData\Local\Temp\ccH7NpP3.s:14     .text.otalib_JsonValueOf:0000000000000000 .LFB20
C:\Users\stapi\AppData\Local\Temp\ccH7NpP3.s:54     .text.otalib_JsonValueOf:0000000000000028 .LFE20
C:\Users\stapi\AppData\Local\Temp\ccH7NpP3.s:4931   .debug_str:0000000000000672 .LASF66
C:\Users\stapi\AppData\Local\Temp\ccH7NpP3.s:4635   .debug_loc:000000000000077a .LLST0
C:\Users\stapi\AppData\Local\Temp\ccH7NpP3.s:4649   .debug_loc:000000000000079b .LLST1
C:\Users\stapi\AppData\Local\Temp\ccH7NpP3.s:4663   .debug_loc:00000000000007bc .LLST2
C:\Users\stapi\AppData\Local\Temp\ccH7NpP3.s:4677   .debug_loc:00000000000007dd .LLST3
C:\Users\stapi\AppData\Local\Temp\ccH7NpP3.s:4853   .debug_str:000000000000044a .LASF67
C:\Users\stapi\AppData\Local\Temp\ccH7NpP3.s:36     .text.otalib_JsonValueOf:0000000000000018 .LVL2
C:\Users\stapi\AppData\Local\Temp\ccH7NpP3.s:4775   .debug_str:00000000000000e0 .LASF68
C:\Users\stapi\AppData\Local\Temp\ccH7NpP3.s:4935   .debug_str:000000000000068b .LASF69
C:\Users\stapi\AppData\Local\Temp\ccH7NpP3.s:4845   .debug_str:000000000000041d .LASF70
C:\Users\stapi\AppData\Local\Temp\ccH7NpP3.s:4891   .debug_str:0000000000000565 .LASF71
C:\Users\stapi\AppData\Local\Temp\ccH7NpP3.s:4803   .debug_str:000000000000019d .LASF87
C:\Users\stapi\AppData\Local\Temp\ccH7NpP3.s:4767   .debug_str:0000000000000099 .LASF88
C:\Users\stapi\AppData\Local\Temp\ccH7NpP3.s:4921   .debug_str:0000000000000630 .LASF72
C:\Users\stapi\AppData\Local\Temp\ccH7NpP3.s:4927   .debug_str:0000000000000659 .LASF73
C:\Users\stapi\AppData\Local\Temp\ccH7NpP3.s:4827   .debug_str:00000000000002c1 .LASF74
C:\Users\stapi\AppData\Local\Temp\ccH7NpP3.s:4905   .debug_str:00000000000005b4 .LASF75
C:\Users\stapi\AppData\Local\Temp\ccH7NpP3.s:4815   .debug_str:00000000000001e4 .LASF76
C:\Users\stapi\AppData\Local\Temp\ccH7NpP3.s:4791   .debug_str:0000000000000136 .LASF77
C:\Users\stapi\AppData\Local\Temp\ccH7NpP3.s:4817   .debug_str:00000000000001f8 .LASF78
C:\Users\stapi\AppData\Local\Temp\ccH7NpP3.s:4847   .debug_str:0000000000000422 .LASF79
C:\Users\stapi\AppData\Local\Temp\ccH7NpP3.s:4795   .debug_str:000000000000015f .LASF80
C:\Users\stapi\AppData\Local\Temp\ccH7NpP3.s:4849   .debug_str:0000000000000433 .LASF81
C:\Users\stapi\AppData\Local\Temp\ccH7NpP3.s:4841   .debug_str:0000000000000403 .LASF82
C:\Users\stapi\AppData\Local\Temp\ccH7NpP3.s:4939   .debug_str:00000000000006a8 .LASF83
C:\Users\stapi\AppData\Local\Temp\ccH7NpP3.s:1146   .text.otalib_GenReportMsg:0000000000000000 .LVL107
C:\Users\stapi\AppData\Local\Temp\ccH7NpP3.s:1203   .text.otalib_GenReportMsg:0000000000000060 .LVL117
C:\Users\stapi\AppData\Local\Temp\ccH7NpP3.s:1164   .text.otalib_GenReportMsg:0000000000000014 .LVL110
C:\Users\stapi\AppData\Local\Temp\ccH7NpP3.s:1214   .text.otalib_GenReportMsg:000000000000006a .LVL120
C:\Users\stapi\AppData\Local\Temp\ccH7NpP3.s:1162   .text.otalib_GenReportMsg:0000000000000010 .LVL109
C:\Users\stapi\AppData\Local\Temp\ccH7NpP3.s:1212   .text.otalib_GenReportMsg:0000000000000066 .LVL119
C:\Users\stapi\AppData\Local\Temp\ccH7NpP3.s:1160   .text.otalib_GenReportMsg:000000000000000e .LVL108
C:\Users\stapi\AppData\Local\Temp\ccH7NpP3.s:1210   .text.otalib_GenReportMsg:0000000000000064 .LVL118
C:\Users\stapi\AppData\Local\Temp\ccH7NpP3.s:1171   .text.otalib_GenReportMsg:0000000000000022 .LVL112
C:\Users\stapi\AppData\Local\Temp\ccH7NpP3.s:1178   .text.otalib_GenReportMsg:000000000000002a .LVL113
C:\Users\stapi\AppData\Local\Temp\ccH7NpP3.s:1219   .text.otalib_GenReportMsg:0000000000000078 .LVL122
C:\Users\stapi\AppData\Local\Temp\ccH7NpP3.s:1224   .text.otalib_GenReportMsg:000000000000007a .LVL123
C:\Users\stapi\AppData\Local\Temp\ccH7NpP3.s:1072   .text.otalib_GenInfoMsg:0000000000000000 .LVL97
C:\Users\stapi\AppData\Local\Temp\ccH7NpP3.s:1084   .text.otalib_GenInfoMsg:0000000000000010 .LVL99
C:\Users\stapi\AppData\Local\Temp\ccH7NpP3.s:1082   .text.otalib_GenInfoMsg:000000000000000c .LVL98
C:\Users\stapi\AppData\Local\Temp\ccH7NpP3.s:1094   .text.otalib_GenInfoMsg:0000000000000024 .LVL101
C:\Users\stapi\AppData\Local\Temp\ccH7NpP3.s:1118   .text.otalib_GenInfoMsg:000000000000005a .LVL105
C:\Users\stapi\AppData\Local\Temp\ccH7NpP3.s:1123   .text.otalib_GenInfoMsg:000000000000005c .LVL106
C:\Users\stapi\AppData\Local\Temp\ccH7NpP3.s:856    .text.otalib_GetConfigParams:0000000000000000 .LVL79
C:\Users\stapi\AppData\Local\Temp\ccH7NpP3.s:875    .text.otalib_GetConfigParams:0000000000000010 .LVL81
C:\Users\stapi\AppData\Local\Temp\ccH7NpP3.s:873    .text.otalib_GetConfigParams:000000000000000c .LVL80
C:\Users\stapi\AppData\Local\Temp\ccH7NpP3.s:656    .text.otalib_GetParams:0000000000000000 .LVL63
C:\Users\stapi\AppData\Local\Temp\ccH7NpP3.s:702    .text.otalib_GetParams:000000000000004a .LVL67
C:\Users\stapi\AppData\Local\Temp\ccH7NpP3.s:730    .text.otalib_GetParams:0000000000000070 .LVL70
C:\Users\stapi\AppData\Local\Temp\ccH7NpP3.s:789    .text.otalib_GetParams:00000000000000f2 .LVL76
C:\Users\stapi\AppData\Local\Temp\ccH7NpP3.s:670    .text.otalib_GetParams:000000000000000e .LVL64
C:\Users\stapi\AppData\Local\Temp\ccH7NpP3.s:512    .text.otalib_GetFirmwareVarlenPara:0000000000000000 .LVL50
C:\Users\stapi\AppData\Local\Temp\ccH7NpP3.s:529    .text.otalib_GetFirmwareVarlenPara:000000000000000e .LVL51
C:\Users\stapi\AppData\Local\Temp\ccH7NpP3.s:540    .text.otalib_GetFirmwareVarlenPara:000000000000001e .LVL53
C:\Users\stapi\AppData\Local\Temp\ccH7NpP3.s:572    .text.otalib_GetFirmwareVarlenPara:0000000000000058 .LVL57
C:\Users\stapi\AppData\Local\Temp\ccH7NpP3.s:583    .text.otalib_GetFirmwareVarlenPara:0000000000000062 .LVL58
C:\Users\stapi\AppData\Local\Temp\ccH7NpP3.s:400    .text.otalib_GetFirmwareFixlenPara:0000000000000000 .LVL36
C:\Users\stapi\AppData\Local\Temp\ccH7NpP3.s:417    .text.otalib_GetFirmwareFixlenPara:000000000000000e .LVL37
C:\Users\stapi\AppData\Local\Temp\ccH7NpP3.s:429    .text.otalib_GetFirmwareFixlenPara:0000000000000020 .LVL39
C:\Users\stapi\AppData\Local\Temp\ccH7NpP3.s:461    .text.otalib_GetFirmwareFixlenPara:000000000000005a .LVL43
C:\Users\stapi\AppData\Local\Temp\ccH7NpP3.s:472    .text.otalib_GetFirmwareFixlenPara:0000000000000064 .LVL44
C:\Users\stapi\AppData\Local\Temp\ccH7NpP3.s:482    .text.otalib_GetFirmwareFixlenPara:0000000000000082 .LVL47
C:\Users\stapi\AppData\Local\Temp\ccH7NpP3.s:487    .text.otalib_GetFirmwareFixlenPara:0000000000000086 .LVL48
C:\Users\stapi\AppData\Local\Temp\ccH7NpP3.s:352    .text.otalib_Sha256Deinit:0000000000000000 .LVL33
C:\Users\stapi\AppData\Local\Temp\ccH7NpP3.s:275    .text.otalib_Sha256Finalize:0000000000000000 .LVL25
C:\Users\stapi\AppData\Local\Temp\ccH7NpP3.s:293    .text.otalib_Sha256Finalize:000000000000000e .LVL26
C:\Users\stapi\AppData\Local\Temp\ccH7NpP3.s:301    .text.otalib_Sha256Finalize:000000000000001e .LVL28
C:\Users\stapi\AppData\Local\Temp\ccH7NpP3.s:309    .text.otalib_Sha256Finalize:0000000000000026 .LVL29
C:\Users\stapi\AppData\Local\Temp\ccH7NpP3.s:324    .text.otalib_Sha256Finalize:0000000000000044 .LVL32
C:\Users\stapi\AppData\Local\Temp\ccH7NpP3.s:260    .text.otalib_Sha256Update:0000000000000000 .LVL23
C:\Users\stapi\AppData\Local\Temp\ccH7NpP3.s:198    .text.otalib_MD5Deinit:0000000000000000 .LVL17
C:\Users\stapi\AppData\Local\Temp\ccH7NpP3.s:121    .text.otalib_MD5Finalize:0000000000000000 .LVL9
C:\Users\stapi\AppData\Local\Temp\ccH7NpP3.s:139    .text.otalib_MD5Finalize:000000000000000e .LVL10
C:\Users\stapi\AppData\Local\Temp\ccH7NpP3.s:147    .text.otalib_MD5Finalize:000000000000001e .LVL12
C:\Users\stapi\AppData\Local\Temp\ccH7NpP3.s:155    .text.otalib_MD5Finalize:0000000000000026 .LVL13
C:\Users\stapi\AppData\Local\Temp\ccH7NpP3.s:170    .text.otalib_MD5Finalize:0000000000000044 .LVL16
C:\Users\stapi\AppData\Local\Temp\ccH7NpP3.s:106    .text.otalib_MD5Update:0000000000000000 .LVL7
C:\Users\stapi\AppData\Local\Temp\ccH7NpP3.s:18     .text.otalib_JsonValueOf:0000000000000000 .LVL0
C:\Users\stapi\AppData\Local\Temp\ccH7NpP3.s:34     .text.otalib_JsonValueOf:0000000000000010 .LVL1
C:\Users\stapi\AppData\Local\Temp\ccH7NpP3.s:1265   .debug_info:0000000000000000 .Ldebug_info0

UNDEFINED SYMBOLS
__riscv_save_1
json_get_value_by_name
__riscv_restore_1
LITE_malloc_internal
utils_md5_init
utils_md5_starts
utils_md5_update
__riscv_save_4
utils_md5_finish
utils_hb2hex
__riscv_restore_4
LITE_free_internal
utils_sha256_init
utils_sha256_starts
utils_sha256_update
utils_sha256_finish
utils_sha256_free
__riscv_save_3
HAL_Printf
__riscv_restore_3
memcpy
__riscv_save_5
__riscv_restore_5
atoi
__riscv_save_7
__riscv_restore_7
__riscv_save_0
HAL_Snprintf
__riscv_restore_0
