   1              		.file	"ota_fetch.c"
   2              		.option nopic
   3              		.attribute arch, "rv32i2p0_m2p0_a2p0_f2p0_c2p0_b_p0p94"
   4              		.attribute unaligned_access, 0
   5              		.attribute stack_align, 16
   6              		.text
   7              	.Ltext0:
   8              		.cfi_sections	.debug_frame
   9              		.section	.rodata.ofc_Init.str1.4,"aMS",@progbits,1
  10              		.align	2
  11              	.LC0:
  12 0000 5B657272 		.string	"[err] "
  12      5D2000
  13 0007 00       		.align	2
  14              	.LC1:
  15 0008 616C6C6F 		.string	"allocate for h_odc failed"
  15      63617465 
  15      20666F72 
  15      20685F6F 
  15      64632066 
  16 0022 0000     		.align	2
  17              	.LC2:
  18 0024 0D0A00   		.string	"\r\n"
  19 0027 00       		.align	2
  20              	.LC3:
  21 0028 41636365 		.string	"Accept: text/html,application/xhtml+xml,application/xml;q=0.9,*/*;q=0.8\r\n"
  21      70743A20 
  21      74657874 
  21      2F68746D 
  21      6C2C6170 
  22              		.section	.text.ofc_Init,"ax",@progbits
  23              		.align	1
  24              		.globl	ofc_Init
  26              	ofc_Init:
  27              	.LFB20:
  28              		.file 1 "C:/Users/stapi/OneDrive/Desktop/GD32VW553/V1_MQTT_OK/GD32VW55X_Wifi_BLE_SDK/GD32VW55x_REL
   1:C:/Users/stapi/OneDrive/Desktop/GD32VW553/V1_MQTT_OK/GD32VW55X_Wifi_BLE_SDK/GD32VW55x_RELEASE_V1.0.2/MSDK/cloud/alicloud/src/services/ota/impl\ota_fetch.c **** /*
   2:C:/Users/stapi/OneDrive/Desktop/GD32VW553/V1_MQTT_OK/GD32VW55X_Wifi_BLE_SDK/GD32VW55x_RELEASE_V1.0.2/MSDK/cloud/alicloud/src/services/ota/impl\ota_fetch.c ****  * Copyright (C) 2015-2018 Alibaba Group Holding Limited
   3:C:/Users/stapi/OneDrive/Desktop/GD32VW553/V1_MQTT_OK/GD32VW55X_Wifi_BLE_SDK/GD32VW55x_RELEASE_V1.0.2/MSDK/cloud/alicloud/src/services/ota/impl\ota_fetch.c ****  */
   4:C:/Users/stapi/OneDrive/Desktop/GD32VW553/V1_MQTT_OK/GD32VW55X_Wifi_BLE_SDK/GD32VW55x_RELEASE_V1.0.2/MSDK/cloud/alicloud/src/services/ota/impl\ota_fetch.c **** 
   5:C:/Users/stapi/OneDrive/Desktop/GD32VW553/V1_MQTT_OK/GD32VW55X_Wifi_BLE_SDK/GD32VW55x_RELEASE_V1.0.2/MSDK/cloud/alicloud/src/services/ota/impl\ota_fetch.c **** #include "iotx_ota_internal.h"
   6:C:/Users/stapi/OneDrive/Desktop/GD32VW553/V1_MQTT_OK/GD32VW55X_Wifi_BLE_SDK/GD32VW55x_RELEASE_V1.0.2/MSDK/cloud/alicloud/src/services/ota/impl\ota_fetch.c **** 
   7:C:/Users/stapi/OneDrive/Desktop/GD32VW553/V1_MQTT_OK/GD32VW55X_Wifi_BLE_SDK/GD32VW55x_RELEASE_V1.0.2/MSDK/cloud/alicloud/src/services/ota/impl\ota_fetch.c **** /* ofc, OTA fetch channel */
   8:C:/Users/stapi/OneDrive/Desktop/GD32VW553/V1_MQTT_OK/GD32VW55X_Wifi_BLE_SDK/GD32VW55x_RELEASE_V1.0.2/MSDK/cloud/alicloud/src/services/ota/impl\ota_fetch.c **** 
   9:C:/Users/stapi/OneDrive/Desktop/GD32VW553/V1_MQTT_OK/GD32VW55X_Wifi_BLE_SDK/GD32VW55x_RELEASE_V1.0.2/MSDK/cloud/alicloud/src/services/ota/impl\ota_fetch.c **** typedef struct {
  10:C:/Users/stapi/OneDrive/Desktop/GD32VW553/V1_MQTT_OK/GD32VW55X_Wifi_BLE_SDK/GD32VW55x_RELEASE_V1.0.2/MSDK/cloud/alicloud/src/services/ota/impl\ota_fetch.c **** 
  11:C:/Users/stapi/OneDrive/Desktop/GD32VW553/V1_MQTT_OK/GD32VW55X_Wifi_BLE_SDK/GD32VW55x_RELEASE_V1.0.2/MSDK/cloud/alicloud/src/services/ota/impl\ota_fetch.c ****     const char *url;
  12:C:/Users/stapi/OneDrive/Desktop/GD32VW553/V1_MQTT_OK/GD32VW55X_Wifi_BLE_SDK/GD32VW55x_RELEASE_V1.0.2/MSDK/cloud/alicloud/src/services/ota/impl\ota_fetch.c ****     httpclient_t http;              /* http client */
  13:C:/Users/stapi/OneDrive/Desktop/GD32VW553/V1_MQTT_OK/GD32VW55X_Wifi_BLE_SDK/GD32VW55x_RELEASE_V1.0.2/MSDK/cloud/alicloud/src/services/ota/impl\ota_fetch.c ****     httpclient_data_t http_data;    /* http client data */
  14:C:/Users/stapi/OneDrive/Desktop/GD32VW553/V1_MQTT_OK/GD32VW55X_Wifi_BLE_SDK/GD32VW55x_RELEASE_V1.0.2/MSDK/cloud/alicloud/src/services/ota/impl\ota_fetch.c **** 
  15:C:/Users/stapi/OneDrive/Desktop/GD32VW553/V1_MQTT_OK/GD32VW55X_Wifi_BLE_SDK/GD32VW55x_RELEASE_V1.0.2/MSDK/cloud/alicloud/src/services/ota/impl\ota_fetch.c **** } otahttp_Struct_t, *otahttp_Struct_pt;
  16:C:/Users/stapi/OneDrive/Desktop/GD32VW553/V1_MQTT_OK/GD32VW55X_Wifi_BLE_SDK/GD32VW55x_RELEASE_V1.0.2/MSDK/cloud/alicloud/src/services/ota/impl\ota_fetch.c **** 
  17:C:/Users/stapi/OneDrive/Desktop/GD32VW553/V1_MQTT_OK/GD32VW55X_Wifi_BLE_SDK/GD32VW55x_RELEASE_V1.0.2/MSDK/cloud/alicloud/src/services/ota/impl\ota_fetch.c **** extern int httpclient_common(httpclient_t *client,
  18:C:/Users/stapi/OneDrive/Desktop/GD32VW553/V1_MQTT_OK/GD32VW55X_Wifi_BLE_SDK/GD32VW55x_RELEASE_V1.0.2/MSDK/cloud/alicloud/src/services/ota/impl\ota_fetch.c ****                              const char *url,
  19:C:/Users/stapi/OneDrive/Desktop/GD32VW553/V1_MQTT_OK/GD32VW55X_Wifi_BLE_SDK/GD32VW55x_RELEASE_V1.0.2/MSDK/cloud/alicloud/src/services/ota/impl\ota_fetch.c ****                              int port,
  20:C:/Users/stapi/OneDrive/Desktop/GD32VW553/V1_MQTT_OK/GD32VW55X_Wifi_BLE_SDK/GD32VW55x_RELEASE_V1.0.2/MSDK/cloud/alicloud/src/services/ota/impl\ota_fetch.c ****                              const char *ca_crt,
  21:C:/Users/stapi/OneDrive/Desktop/GD32VW553/V1_MQTT_OK/GD32VW55X_Wifi_BLE_SDK/GD32VW55x_RELEASE_V1.0.2/MSDK/cloud/alicloud/src/services/ota/impl\ota_fetch.c ****                              HTTPCLIENT_REQUEST_TYPE method,
  22:C:/Users/stapi/OneDrive/Desktop/GD32VW553/V1_MQTT_OK/GD32VW55X_Wifi_BLE_SDK/GD32VW55x_RELEASE_V1.0.2/MSDK/cloud/alicloud/src/services/ota/impl\ota_fetch.c ****                              uint32_t timeout_ms,
  23:C:/Users/stapi/OneDrive/Desktop/GD32VW553/V1_MQTT_OK/GD32VW55X_Wifi_BLE_SDK/GD32VW55x_RELEASE_V1.0.2/MSDK/cloud/alicloud/src/services/ota/impl\ota_fetch.c ****                              httpclient_data_t *client_data);
  24:C:/Users/stapi/OneDrive/Desktop/GD32VW553/V1_MQTT_OK/GD32VW55X_Wifi_BLE_SDK/GD32VW55x_RELEASE_V1.0.2/MSDK/cloud/alicloud/src/services/ota/impl\ota_fetch.c **** 
  25:C:/Users/stapi/OneDrive/Desktop/GD32VW553/V1_MQTT_OK/GD32VW55X_Wifi_BLE_SDK/GD32VW55x_RELEASE_V1.0.2/MSDK/cloud/alicloud/src/services/ota/impl\ota_fetch.c **** extern const char *iotx_ca_get(void);
  26:C:/Users/stapi/OneDrive/Desktop/GD32VW553/V1_MQTT_OK/GD32VW55X_Wifi_BLE_SDK/GD32VW55x_RELEASE_V1.0.2/MSDK/cloud/alicloud/src/services/ota/impl\ota_fetch.c **** 
  27:C:/Users/stapi/OneDrive/Desktop/GD32VW553/V1_MQTT_OK/GD32VW55X_Wifi_BLE_SDK/GD32VW55x_RELEASE_V1.0.2/MSDK/cloud/alicloud/src/services/ota/impl\ota_fetch.c **** 
  28:C:/Users/stapi/OneDrive/Desktop/GD32VW553/V1_MQTT_OK/GD32VW55X_Wifi_BLE_SDK/GD32VW55x_RELEASE_V1.0.2/MSDK/cloud/alicloud/src/services/ota/impl\ota_fetch.c **** void *ofc_Init(char *url)
  29:C:/Users/stapi/OneDrive/Desktop/GD32VW553/V1_MQTT_OK/GD32VW55X_Wifi_BLE_SDK/GD32VW55x_RELEASE_V1.0.2/MSDK/cloud/alicloud/src/services/ota/impl\ota_fetch.c **** {
  29              		.loc 1 29 1
  30              		.cfi_startproc
  31              	.LVL0:
  32 0000 17030000 		call	t0,__riscv_save_2
  32      E7020300 
  33              		.cfi_offset 9, -12
  34              		.cfi_offset 8, -8
  35              		.cfi_offset 1, -4
  36              		.cfi_def_cfa_offset 16
  30:C:/Users/stapi/OneDrive/Desktop/GD32VW553/V1_MQTT_OK/GD32VW55X_Wifi_BLE_SDK/GD32VW55x_RELEASE_V1.0.2/MSDK/cloud/alicloud/src/services/ota/impl\ota_fetch.c ****     otahttp_Struct_pt h_odc;
  37              		.loc 1 30 5
  31:C:/Users/stapi/OneDrive/Desktop/GD32VW553/V1_MQTT_OK/GD32VW55X_Wifi_BLE_SDK/GD32VW55x_RELEASE_V1.0.2/MSDK/cloud/alicloud/src/services/ota/impl\ota_fetch.c **** 
  32:C:/Users/stapi/OneDrive/Desktop/GD32VW553/V1_MQTT_OK/GD32VW55X_Wifi_BLE_SDK/GD32VW55x_RELEASE_V1.0.2/MSDK/cloud/alicloud/src/services/ota/impl\ota_fetch.c ****     if (NULL == (h_odc = OTA_MALLOC(sizeof(otahttp_Struct_t)))) {
  38              		.loc 1 32 5
  29:C:/Users/stapi/OneDrive/Desktop/GD32VW553/V1_MQTT_OK/GD32VW55X_Wifi_BLE_SDK/GD32VW55x_RELEASE_V1.0.2/MSDK/cloud/alicloud/src/services/ota/impl\ota_fetch.c ****     otahttp_Struct_pt h_odc;
  39              		.loc 1 29 1 is_stmt 0
  40 0008 AA84     		mv	s1,a0
  41              		.loc 1 32 26
  42 000a 13060006 		li	a2,96
  43 000e 8145     		li	a1,0
  44 0010 0145     		li	a0,0
  45              	.LVL1:
  46 0012 97000000 		call	LITE_malloc_internal
  46      E7800000 
  47              	.LVL2:
  48 001a 2A84     		mv	s0,a0
  49              	.LVL3:
  50              		.loc 1 32 8
  51 001c 15ED     		bne	a0,zero,.L2
  33:C:/Users/stapi/OneDrive/Desktop/GD32VW553/V1_MQTT_OK/GD32VW55X_Wifi_BLE_SDK/GD32VW55x_RELEASE_V1.0.2/MSDK/cloud/alicloud/src/services/ota/impl\ota_fetch.c ****         OTA_LOG_ERROR("allocate for h_odc failed");
  52              		.loc 1 33 9 is_stmt 1
  53              		.loc 1 33 9
  54 001e 37050000 		lui	a0,%hi(.LC0)
  55 0022 13050500 		addi	a0,a0,%lo(.LC0)
  56 0026 97000000 		call	HAL_Printf
  56      E7800000 
  57              	.LVL4:
  58              		.loc 1 33 9
  59 002e 37050000 		lui	a0,%hi(.LC1)
  60 0032 13050500 		addi	a0,a0,%lo(.LC1)
  61 0036 97000000 		call	HAL_Printf
  61      E7800000 
  62              	.LVL5:
  63              		.loc 1 33 9
  64 003e 37050000 		lui	a0,%hi(.LC2)
  65 0042 13050500 		addi	a0,a0,%lo(.LC2)
  66 0046 97000000 		call	HAL_Printf
  66      E7800000 
  67              	.LVL6:
  68              		.loc 1 33 9
  34:C:/Users/stapi/OneDrive/Desktop/GD32VW553/V1_MQTT_OK/GD32VW55X_Wifi_BLE_SDK/GD32VW55x_RELEASE_V1.0.2/MSDK/cloud/alicloud/src/services/ota/impl\ota_fetch.c ****         return NULL;
  69              		.loc 1 34 9
  70              	.L1:
  35:C:/Users/stapi/OneDrive/Desktop/GD32VW553/V1_MQTT_OK/GD32VW55X_Wifi_BLE_SDK/GD32VW55x_RELEASE_V1.0.2/MSDK/cloud/alicloud/src/services/ota/impl\ota_fetch.c ****     }
  36:C:/Users/stapi/OneDrive/Desktop/GD32VW553/V1_MQTT_OK/GD32VW55X_Wifi_BLE_SDK/GD32VW55x_RELEASE_V1.0.2/MSDK/cloud/alicloud/src/services/ota/impl\ota_fetch.c **** 
  37:C:/Users/stapi/OneDrive/Desktop/GD32VW553/V1_MQTT_OK/GD32VW55X_Wifi_BLE_SDK/GD32VW55x_RELEASE_V1.0.2/MSDK/cloud/alicloud/src/services/ota/impl\ota_fetch.c ****     memset(h_odc, 0, sizeof(otahttp_Struct_t));
  38:C:/Users/stapi/OneDrive/Desktop/GD32VW553/V1_MQTT_OK/GD32VW55X_Wifi_BLE_SDK/GD32VW55x_RELEASE_V1.0.2/MSDK/cloud/alicloud/src/services/ota/impl\ota_fetch.c **** 
  39:C:/Users/stapi/OneDrive/Desktop/GD32VW553/V1_MQTT_OK/GD32VW55X_Wifi_BLE_SDK/GD32VW55x_RELEASE_V1.0.2/MSDK/cloud/alicloud/src/services/ota/impl\ota_fetch.c ****     /* set http request-header parameter */
  40:C:/Users/stapi/OneDrive/Desktop/GD32VW553/V1_MQTT_OK/GD32VW55X_Wifi_BLE_SDK/GD32VW55x_RELEASE_V1.0.2/MSDK/cloud/alicloud/src/services/ota/impl\ota_fetch.c ****     h_odc->http.header = "Accept: text/html,application/xhtml+xml,application/xml;q=0.9,*/*;q=0.8\r
  41:C:/Users/stapi/OneDrive/Desktop/GD32VW553/V1_MQTT_OK/GD32VW55X_Wifi_BLE_SDK/GD32VW55x_RELEASE_V1.0.2/MSDK/cloud/alicloud/src/services/ota/impl\ota_fetch.c **** 
  42:C:/Users/stapi/OneDrive/Desktop/GD32VW553/V1_MQTT_OK/GD32VW55X_Wifi_BLE_SDK/GD32VW55x_RELEASE_V1.0.2/MSDK/cloud/alicloud/src/services/ota/impl\ota_fetch.c **** #if defined(SUPPORT_ITLS)
  43:C:/Users/stapi/OneDrive/Desktop/GD32VW553/V1_MQTT_OK/GD32VW55X_Wifi_BLE_SDK/GD32VW55x_RELEASE_V1.0.2/MSDK/cloud/alicloud/src/services/ota/impl\ota_fetch.c ****     char *s_ptr = strstr(url, "://");
  44:C:/Users/stapi/OneDrive/Desktop/GD32VW553/V1_MQTT_OK/GD32VW55X_Wifi_BLE_SDK/GD32VW55x_RELEASE_V1.0.2/MSDK/cloud/alicloud/src/services/ota/impl\ota_fetch.c ****     if (strlen("https") == (s_ptr - url) && (0 == strncmp(url, "https", strlen("https")))) {
  45:C:/Users/stapi/OneDrive/Desktop/GD32VW553/V1_MQTT_OK/GD32VW55X_Wifi_BLE_SDK/GD32VW55x_RELEASE_V1.0.2/MSDK/cloud/alicloud/src/services/ota/impl\ota_fetch.c ****         strncpy(url + 1, url, strlen("http"));
  46:C:/Users/stapi/OneDrive/Desktop/GD32VW553/V1_MQTT_OK/GD32VW55X_Wifi_BLE_SDK/GD32VW55x_RELEASE_V1.0.2/MSDK/cloud/alicloud/src/services/ota/impl\ota_fetch.c ****         url++;
  47:C:/Users/stapi/OneDrive/Desktop/GD32VW553/V1_MQTT_OK/GD32VW55X_Wifi_BLE_SDK/GD32VW55x_RELEASE_V1.0.2/MSDK/cloud/alicloud/src/services/ota/impl\ota_fetch.c ****     }
  48:C:/Users/stapi/OneDrive/Desktop/GD32VW553/V1_MQTT_OK/GD32VW55X_Wifi_BLE_SDK/GD32VW55x_RELEASE_V1.0.2/MSDK/cloud/alicloud/src/services/ota/impl\ota_fetch.c **** #endif
  49:C:/Users/stapi/OneDrive/Desktop/GD32VW553/V1_MQTT_OK/GD32VW55X_Wifi_BLE_SDK/GD32VW55x_RELEASE_V1.0.2/MSDK/cloud/alicloud/src/services/ota/impl\ota_fetch.c ****     h_odc->url = url;
  50:C:/Users/stapi/OneDrive/Desktop/GD32VW553/V1_MQTT_OK/GD32VW55X_Wifi_BLE_SDK/GD32VW55x_RELEASE_V1.0.2/MSDK/cloud/alicloud/src/services/ota/impl\ota_fetch.c **** 
  51:C:/Users/stapi/OneDrive/Desktop/GD32VW553/V1_MQTT_OK/GD32VW55X_Wifi_BLE_SDK/GD32VW55x_RELEASE_V1.0.2/MSDK/cloud/alicloud/src/services/ota/impl\ota_fetch.c ****     return h_odc;
  52:C:/Users/stapi/OneDrive/Desktop/GD32VW553/V1_MQTT_OK/GD32VW55X_Wifi_BLE_SDK/GD32VW55x_RELEASE_V1.0.2/MSDK/cloud/alicloud/src/services/ota/impl\ota_fetch.c **** }
  71              		.loc 1 52 1 is_stmt 0
  72 004e 2285     		mv	a0,s0
  73 0050 17030000 		tail	__riscv_restore_2
  73      67000300 
  74              		.cfi_remember_state
  75              		.cfi_restore 9
  76              		.cfi_restore 8
  77              		.cfi_restore 1
  78              		.cfi_def_cfa_offset 0
  79              	.L2:
  80              		.cfi_restore_state
  37:C:/Users/stapi/OneDrive/Desktop/GD32VW553/V1_MQTT_OK/GD32VW55X_Wifi_BLE_SDK/GD32VW55x_RELEASE_V1.0.2/MSDK/cloud/alicloud/src/services/ota/impl\ota_fetch.c **** 
  81              		.loc 1 37 5 is_stmt 1
  82 0058 1306C005 		li	a2,92
  83 005c 8145     		li	a1,0
  84 005e 1105     		addi	a0,a0,4
  85 0060 97000000 		call	memset
  85      E7800000 
  86              	.LVL7:
  40:C:/Users/stapi/OneDrive/Desktop/GD32VW553/V1_MQTT_OK/GD32VW55X_Wifi_BLE_SDK/GD32VW55x_RELEASE_V1.0.2/MSDK/cloud/alicloud/src/services/ota/impl\ota_fetch.c **** 
  87              		.loc 1 40 5
  40:C:/Users/stapi/OneDrive/Desktop/GD32VW553/V1_MQTT_OK/GD32VW55X_Wifi_BLE_SDK/GD32VW55x_RELEASE_V1.0.2/MSDK/cloud/alicloud/src/services/ota/impl\ota_fetch.c **** 
  88              		.loc 1 40 24 is_stmt 0
  89 0068 B7070000 		lui	a5,%hi(.LC3)
  90 006c 93870700 		addi	a5,a5,%lo(.LC3)
  91 0070 5CD4     		sw	a5,44(s0)
  49:C:/Users/stapi/OneDrive/Desktop/GD32VW553/V1_MQTT_OK/GD32VW55X_Wifi_BLE_SDK/GD32VW55x_RELEASE_V1.0.2/MSDK/cloud/alicloud/src/services/ota/impl\ota_fetch.c **** 
  92              		.loc 1 49 5 is_stmt 1
  49:C:/Users/stapi/OneDrive/Desktop/GD32VW553/V1_MQTT_OK/GD32VW55X_Wifi_BLE_SDK/GD32VW55x_RELEASE_V1.0.2/MSDK/cloud/alicloud/src/services/ota/impl\ota_fetch.c **** 
  93              		.loc 1 49 16 is_stmt 0
  94 0072 04C0     		sw	s1,0(s0)
  51:C:/Users/stapi/OneDrive/Desktop/GD32VW553/V1_MQTT_OK/GD32VW55X_Wifi_BLE_SDK/GD32VW55x_RELEASE_V1.0.2/MSDK/cloud/alicloud/src/services/ota/impl\ota_fetch.c **** }
  95              		.loc 1 51 5 is_stmt 1
  51:C:/Users/stapi/OneDrive/Desktop/GD32VW553/V1_MQTT_OK/GD32VW55X_Wifi_BLE_SDK/GD32VW55x_RELEASE_V1.0.2/MSDK/cloud/alicloud/src/services/ota/impl\ota_fetch.c **** }
  96              		.loc 1 51 12 is_stmt 0
  97 0074 E9BF     		j	.L1
  98              		.cfi_endproc
  99              	.LFE20:
 101              		.section	.rodata.ofc_Fetch.str1.4,"aMS",@progbits,1
 102              		.align	2
 103              	.LC4:
 104 0000 3A2F2F00 		.string	"://"
 105              		.align	2
 106              	.LC5:
 107 0004 436F756C 		.string	"Could not find host"
 107      64206E6F 
 107      74206669 
 107      6E642068 
 107      6F737400 
 108              		.align	2
 109              	.LC6:
 110 0018 5B696E66 		.string	"[inf] "
 110      5D2000
 111 001f 00       		.align	2
 112              	.LC7:
 113 0020 68747470 		.string	"http:port=%d."
 113      3A706F72 
 113      743D2564 
 113      2E00
 114 002e 0000     		.align	2
 115              	.LC8:
 116 0030 66657463 		.string	"fetch firmware failed"
 116      68206669 
 116      726D7761 
 116      72652066 
 116      61696C65 
 117              		.section	.text.ofc_Fetch,"ax",@progbits
 118              		.align	1
 119              		.globl	ofc_Fetch
 121              	ofc_Fetch:
 122              	.LFB21:
  53:C:/Users/stapi/OneDrive/Desktop/GD32VW553/V1_MQTT_OK/GD32VW55X_Wifi_BLE_SDK/GD32VW55x_RELEASE_V1.0.2/MSDK/cloud/alicloud/src/services/ota/impl\ota_fetch.c **** 
  54:C:/Users/stapi/OneDrive/Desktop/GD32VW553/V1_MQTT_OK/GD32VW55X_Wifi_BLE_SDK/GD32VW55x_RELEASE_V1.0.2/MSDK/cloud/alicloud/src/services/ota/impl\ota_fetch.c **** 
  55:C:/Users/stapi/OneDrive/Desktop/GD32VW553/V1_MQTT_OK/GD32VW55X_Wifi_BLE_SDK/GD32VW55x_RELEASE_V1.0.2/MSDK/cloud/alicloud/src/services/ota/impl\ota_fetch.c **** int32_t ofc_Fetch(void *handle, char *buf, uint32_t buf_len, uint32_t timeout_s)
  56:C:/Users/stapi/OneDrive/Desktop/GD32VW553/V1_MQTT_OK/GD32VW55X_Wifi_BLE_SDK/GD32VW55x_RELEASE_V1.0.2/MSDK/cloud/alicloud/src/services/ota/impl\ota_fetch.c **** {
 123              		.loc 1 56 1 is_stmt 1
 124              		.cfi_startproc
 125              	.LVL8:
 126 0000 17030000 		call	t0,__riscv_save_6
 126      E7020300 
 127              		.cfi_offset 21, -28
 128              		.cfi_offset 20, -24
 129              		.cfi_offset 19, -20
 130              		.cfi_offset 18, -16
 131              		.cfi_offset 9, -12
 132              		.cfi_offset 8, -8
 133              		.cfi_offset 1, -4
 134              		.cfi_def_cfa_offset 32
  57:C:/Users/stapi/OneDrive/Desktop/GD32VW553/V1_MQTT_OK/GD32VW55X_Wifi_BLE_SDK/GD32VW55x_RELEASE_V1.0.2/MSDK/cloud/alicloud/src/services/ota/impl\ota_fetch.c ****     int diff;
 135              		.loc 1 57 5
  58:C:/Users/stapi/OneDrive/Desktop/GD32VW553/V1_MQTT_OK/GD32VW55X_Wifi_BLE_SDK/GD32VW55x_RELEASE_V1.0.2/MSDK/cloud/alicloud/src/services/ota/impl\ota_fetch.c ****     int port =0;
 136              		.loc 1 58 5
 137              	.LVL9:
  59:C:/Users/stapi/OneDrive/Desktop/GD32VW553/V1_MQTT_OK/GD32VW55X_Wifi_BLE_SDK/GD32VW55x_RELEASE_V1.0.2/MSDK/cloud/alicloud/src/services/ota/impl\ota_fetch.c ****     otahttp_Struct_pt h_odc = (otahttp_Struct_pt)handle;
 138              		.loc 1 59 5
  60:C:/Users/stapi/OneDrive/Desktop/GD32VW553/V1_MQTT_OK/GD32VW55X_Wifi_BLE_SDK/GD32VW55x_RELEASE_V1.0.2/MSDK/cloud/alicloud/src/services/ota/impl\ota_fetch.c **** 
  61:C:/Users/stapi/OneDrive/Desktop/GD32VW553/V1_MQTT_OK/GD32VW55X_Wifi_BLE_SDK/GD32VW55x_RELEASE_V1.0.2/MSDK/cloud/alicloud/src/services/ota/impl\ota_fetch.c ****     h_odc->http_data.response_buf = buf;
 139              		.loc 1 61 5
  62:C:/Users/stapi/OneDrive/Desktop/GD32VW553/V1_MQTT_OK/GD32VW55X_Wifi_BLE_SDK/GD32VW55x_RELEASE_V1.0.2/MSDK/cloud/alicloud/src/services/ota/impl\ota_fetch.c ****     h_odc->http_data.response_buf_len = buf_len;
  63:C:/Users/stapi/OneDrive/Desktop/GD32VW553/V1_MQTT_OK/GD32VW55X_Wifi_BLE_SDK/GD32VW55x_RELEASE_V1.0.2/MSDK/cloud/alicloud/src/services/ota/impl\ota_fetch.c ****     diff = h_odc->http_data.response_content_len - h_odc->http_data.retrieve_len;
 140              		.loc 1 63 10 is_stmt 0
 141 0008 83294504 		lw	s3,68(a0)
  56:C:/Users/stapi/OneDrive/Desktop/GD32VW553/V1_MQTT_OK/GD32VW55X_Wifi_BLE_SDK/GD32VW55x_RELEASE_V1.0.2/MSDK/cloud/alicloud/src/services/ota/impl\ota_fetch.c ****     int diff;
 142              		.loc 1 56 1
 143 000c 2A84     		mv	s0,a0
  61:C:/Users/stapi/OneDrive/Desktop/GD32VW553/V1_MQTT_OK/GD32VW55X_Wifi_BLE_SDK/GD32VW55x_RELEASE_V1.0.2/MSDK/cloud/alicloud/src/services/ota/impl\ota_fetch.c ****     h_odc->http_data.response_buf_len = buf_len;
 144              		.loc 1 61 35
 145 000e 6CCD     		sw	a1,92(a0)
  62:C:/Users/stapi/OneDrive/Desktop/GD32VW553/V1_MQTT_OK/GD32VW55X_Wifi_BLE_SDK/GD32VW55x_RELEASE_V1.0.2/MSDK/cloud/alicloud/src/services/ota/impl\ota_fetch.c ****     h_odc->http_data.response_buf_len = buf_len;
 146              		.loc 1 62 5 is_stmt 1
  62:C:/Users/stapi/OneDrive/Desktop/GD32VW553/V1_MQTT_OK/GD32VW55X_Wifi_BLE_SDK/GD32VW55x_RELEASE_V1.0.2/MSDK/cloud/alicloud/src/services/ota/impl\ota_fetch.c ****     h_odc->http_data.response_buf_len = buf_len;
 147              		.loc 1 62 39 is_stmt 0
 148 0010 30C9     		sw	a2,80(a0)
 149              		.loc 1 63 5 is_stmt 1
 150              		.loc 1 63 10 is_stmt 0
 151 0012 2841     		lw	a0,64(a0)
 152              	.LVL10:
  64:C:/Users/stapi/OneDrive/Desktop/GD32VW553/V1_MQTT_OK/GD32VW55X_Wifi_BLE_SDK/GD32VW55x_RELEASE_V1.0.2/MSDK/cloud/alicloud/src/services/ota/impl\ota_fetch.c **** #if defined(SUPPORT_ITLS)
  65:C:/Users/stapi/OneDrive/Desktop/GD32VW553/V1_MQTT_OK/GD32VW55X_Wifi_BLE_SDK/GD32VW55x_RELEASE_V1.0.2/MSDK/cloud/alicloud/src/services/ota/impl\ota_fetch.c ****     port = 80;
  66:C:/Users/stapi/OneDrive/Desktop/GD32VW553/V1_MQTT_OK/GD32VW55X_Wifi_BLE_SDK/GD32VW55x_RELEASE_V1.0.2/MSDK/cloud/alicloud/src/services/ota/impl\ota_fetch.c **** #else
  67:C:/Users/stapi/OneDrive/Desktop/GD32VW553/V1_MQTT_OK/GD32VW55X_Wifi_BLE_SDK/GD32VW55x_RELEASE_V1.0.2/MSDK/cloud/alicloud/src/services/ota/impl\ota_fetch.c ****     port = 443;
  68:C:/Users/stapi/OneDrive/Desktop/GD32VW553/V1_MQTT_OK/GD32VW55X_Wifi_BLE_SDK/GD32VW55x_RELEASE_V1.0.2/MSDK/cloud/alicloud/src/services/ota/impl\ota_fetch.c **** #endif
  69:C:/Users/stapi/OneDrive/Desktop/GD32VW553/V1_MQTT_OK/GD32VW55X_Wifi_BLE_SDK/GD32VW55x_RELEASE_V1.0.2/MSDK/cloud/alicloud/src/services/ota/impl\ota_fetch.c **** 
  70:C:/Users/stapi/OneDrive/Desktop/GD32VW553/V1_MQTT_OK/GD32VW55X_Wifi_BLE_SDK/GD32VW55x_RELEASE_V1.0.2/MSDK/cloud/alicloud/src/services/ota/impl\ota_fetch.c ****     //try to get port from url
  71:C:/Users/stapi/OneDrive/Desktop/GD32VW553/V1_MQTT_OK/GD32VW55X_Wifi_BLE_SDK/GD32VW55x_RELEASE_V1.0.2/MSDK/cloud/alicloud/src/services/ota/impl\ota_fetch.c ****     #define port_str_max_len 5  /* port max:65535 */
  72:C:/Users/stapi/OneDrive/Desktop/GD32VW553/V1_MQTT_OK/GD32VW55X_Wifi_BLE_SDK/GD32VW55x_RELEASE_V1.0.2/MSDK/cloud/alicloud/src/services/ota/impl\ota_fetch.c ****     const char *host_ptr = (const char *) strstr(h_odc->url, "://");
 153              		.loc 1 72 43
 154 0014 B7050000 		lui	a1,%hi(.LC4)
 155              	.LVL11:
  56:C:/Users/stapi/OneDrive/Desktop/GD32VW553/V1_MQTT_OK/GD32VW55X_Wifi_BLE_SDK/GD32VW55x_RELEASE_V1.0.2/MSDK/cloud/alicloud/src/services/ota/impl\ota_fetch.c ****     int diff;
 156              		.loc 1 56 1
 157 0018 4111     		addi	sp,sp,-16
 158              		.cfi_def_cfa_offset 48
  63:C:/Users/stapi/OneDrive/Desktop/GD32VW553/V1_MQTT_OK/GD32VW55X_Wifi_BLE_SDK/GD32VW55x_RELEASE_V1.0.2/MSDK/cloud/alicloud/src/services/ota/impl\ota_fetch.c **** #if defined(SUPPORT_ITLS)
 159              		.loc 1 63 10
 160 001a B389A940 		sub	s3,s3,a0
 161              	.LVL12:
  67:C:/Users/stapi/OneDrive/Desktop/GD32VW553/V1_MQTT_OK/GD32VW55X_Wifi_BLE_SDK/GD32VW55x_RELEASE_V1.0.2/MSDK/cloud/alicloud/src/services/ota/impl\ota_fetch.c **** #endif
 162              		.loc 1 67 5 is_stmt 1
 163              		.loc 1 72 5
 164              		.loc 1 72 43 is_stmt 0
 165 001e 0840     		lw	a0,0(s0)
 166 0020 93850500 		addi	a1,a1,%lo(.LC4)
  56:C:/Users/stapi/OneDrive/Desktop/GD32VW553/V1_MQTT_OK/GD32VW55X_Wifi_BLE_SDK/GD32VW55x_RELEASE_V1.0.2/MSDK/cloud/alicloud/src/services/ota/impl\ota_fetch.c ****     int diff;
 167              		.loc 1 56 1
 168 0024 368A     		mv	s4,a3
 169              		.loc 1 72 43
 170 0026 97000000 		call	strstr
 170      E7800000 
 171              	.LVL13:
  73:C:/Users/stapi/OneDrive/Desktop/GD32VW553/V1_MQTT_OK/GD32VW55X_Wifi_BLE_SDK/GD32VW55x_RELEASE_V1.0.2/MSDK/cloud/alicloud/src/services/ota/impl\ota_fetch.c ****     char *path_ptr;
 172              		.loc 1 73 5 is_stmt 1
  74:C:/Users/stapi/OneDrive/Desktop/GD32VW553/V1_MQTT_OK/GD32VW55X_Wifi_BLE_SDK/GD32VW55x_RELEASE_V1.0.2/MSDK/cloud/alicloud/src/services/ota/impl\ota_fetch.c ****     char *port_ptr;
 173              		.loc 1 74 5
  75:C:/Users/stapi/OneDrive/Desktop/GD32VW553/V1_MQTT_OK/GD32VW55X_Wifi_BLE_SDK/GD32VW55x_RELEASE_V1.0.2/MSDK/cloud/alicloud/src/services/ota/impl\ota_fetch.c ****     char port_str[port_str_max_len+1];
 174              		.loc 1 75 5
  76:C:/Users/stapi/OneDrive/Desktop/GD32VW553/V1_MQTT_OK/GD32VW55X_Wifi_BLE_SDK/GD32VW55x_RELEASE_V1.0.2/MSDK/cloud/alicloud/src/services/ota/impl\ota_fetch.c ****     int8_t port_str_len = 0;
 175              		.loc 1 76 5
  77:C:/Users/stapi/OneDrive/Desktop/GD32VW553/V1_MQTT_OK/GD32VW55X_Wifi_BLE_SDK/GD32VW55x_RELEASE_V1.0.2/MSDK/cloud/alicloud/src/services/ota/impl\ota_fetch.c **** 
  78:C:/Users/stapi/OneDrive/Desktop/GD32VW553/V1_MQTT_OK/GD32VW55X_Wifi_BLE_SDK/GD32VW55x_RELEASE_V1.0.2/MSDK/cloud/alicloud/src/services/ota/impl\ota_fetch.c ****     if (host_ptr == NULL) {
 176              		.loc 1 78 5
 177              		.loc 1 78 8 is_stmt 0
 178 002e 1DED     		bne	a0,zero,.L6
  79:C:/Users/stapi/OneDrive/Desktop/GD32VW553/V1_MQTT_OK/GD32VW55X_Wifi_BLE_SDK/GD32VW55x_RELEASE_V1.0.2/MSDK/cloud/alicloud/src/services/ota/impl\ota_fetch.c ****         OTA_LOG_ERROR("Could not find host");
 179              		.loc 1 79 9 is_stmt 1
 180              		.loc 1 79 9
 181 0030 37050000 		lui	a0,%hi(.LC0)
 182              	.LVL14:
 183 0034 13050500 		addi	a0,a0,%lo(.LC0)
 184 0038 97000000 		call	HAL_Printf
 184      E7800000 
 185              	.LVL15:
 186              		.loc 1 79 9
 187 0040 37050000 		lui	a0,%hi(.LC5)
 188 0044 13050500 		addi	a0,a0,%lo(.LC5)
 189              	.LVL16:
 190              	.L14:
  80:C:/Users/stapi/OneDrive/Desktop/GD32VW553/V1_MQTT_OK/GD32VW55X_Wifi_BLE_SDK/GD32VW55x_RELEASE_V1.0.2/MSDK/cloud/alicloud/src/services/ota/impl\ota_fetch.c ****         return -1; /* URL is invalid */
  81:C:/Users/stapi/OneDrive/Desktop/GD32VW553/V1_MQTT_OK/GD32VW55X_Wifi_BLE_SDK/GD32VW55x_RELEASE_V1.0.2/MSDK/cloud/alicloud/src/services/ota/impl\ota_fetch.c ****     }
  82:C:/Users/stapi/OneDrive/Desktop/GD32VW553/V1_MQTT_OK/GD32VW55X_Wifi_BLE_SDK/GD32VW55x_RELEASE_V1.0.2/MSDK/cloud/alicloud/src/services/ota/impl\ota_fetch.c **** 
  83:C:/Users/stapi/OneDrive/Desktop/GD32VW553/V1_MQTT_OK/GD32VW55X_Wifi_BLE_SDK/GD32VW55x_RELEASE_V1.0.2/MSDK/cloud/alicloud/src/services/ota/impl\ota_fetch.c ****     host_ptr += 3; /* sizeof("://") */
  84:C:/Users/stapi/OneDrive/Desktop/GD32VW553/V1_MQTT_OK/GD32VW55X_Wifi_BLE_SDK/GD32VW55x_RELEASE_V1.0.2/MSDK/cloud/alicloud/src/services/ota/impl\ota_fetch.c **** 
  85:C:/Users/stapi/OneDrive/Desktop/GD32VW553/V1_MQTT_OK/GD32VW55X_Wifi_BLE_SDK/GD32VW55x_RELEASE_V1.0.2/MSDK/cloud/alicloud/src/services/ota/impl\ota_fetch.c ****     path_ptr = strchr(host_ptr, '/');
  86:C:/Users/stapi/OneDrive/Desktop/GD32VW553/V1_MQTT_OK/GD32VW55X_Wifi_BLE_SDK/GD32VW55x_RELEASE_V1.0.2/MSDK/cloud/alicloud/src/services/ota/impl\ota_fetch.c ****     port_ptr = strchr(host_ptr, ':');
  87:C:/Users/stapi/OneDrive/Desktop/GD32VW553/V1_MQTT_OK/GD32VW55X_Wifi_BLE_SDK/GD32VW55x_RELEASE_V1.0.2/MSDK/cloud/alicloud/src/services/ota/impl\ota_fetch.c **** 
  88:C:/Users/stapi/OneDrive/Desktop/GD32VW553/V1_MQTT_OK/GD32VW55X_Wifi_BLE_SDK/GD32VW55x_RELEASE_V1.0.2/MSDK/cloud/alicloud/src/services/ota/impl\ota_fetch.c ****     if(port_ptr++) {
  89:C:/Users/stapi/OneDrive/Desktop/GD32VW553/V1_MQTT_OK/GD32VW55X_Wifi_BLE_SDK/GD32VW55x_RELEASE_V1.0.2/MSDK/cloud/alicloud/src/services/ota/impl\ota_fetch.c ****         port_str_len = path_ptr - port_ptr;
  90:C:/Users/stapi/OneDrive/Desktop/GD32VW553/V1_MQTT_OK/GD32VW55X_Wifi_BLE_SDK/GD32VW55x_RELEASE_V1.0.2/MSDK/cloud/alicloud/src/services/ota/impl\ota_fetch.c ****         port_str_len = port_str_len > port_str_max_len?port_str_max_len:port_str_len;
  91:C:/Users/stapi/OneDrive/Desktop/GD32VW553/V1_MQTT_OK/GD32VW55X_Wifi_BLE_SDK/GD32VW55x_RELEASE_V1.0.2/MSDK/cloud/alicloud/src/services/ota/impl\ota_fetch.c ****         memcpy(port_str, port_ptr, port_str_len);
  92:C:/Users/stapi/OneDrive/Desktop/GD32VW553/V1_MQTT_OK/GD32VW55X_Wifi_BLE_SDK/GD32VW55x_RELEASE_V1.0.2/MSDK/cloud/alicloud/src/services/ota/impl\ota_fetch.c ****         port_str[port_str_len] = '\0';
  93:C:/Users/stapi/OneDrive/Desktop/GD32VW553/V1_MQTT_OK/GD32VW55X_Wifi_BLE_SDK/GD32VW55x_RELEASE_V1.0.2/MSDK/cloud/alicloud/src/services/ota/impl\ota_fetch.c ****         port = atoi(port_str);
  94:C:/Users/stapi/OneDrive/Desktop/GD32VW553/V1_MQTT_OK/GD32VW55X_Wifi_BLE_SDK/GD32VW55x_RELEASE_V1.0.2/MSDK/cloud/alicloud/src/services/ota/impl\ota_fetch.c ****         OTA_LOG_INFO("http:port=%d.",port);
  95:C:/Users/stapi/OneDrive/Desktop/GD32VW553/V1_MQTT_OK/GD32VW55X_Wifi_BLE_SDK/GD32VW55x_RELEASE_V1.0.2/MSDK/cloud/alicloud/src/services/ota/impl\ota_fetch.c ****     }
  96:C:/Users/stapi/OneDrive/Desktop/GD32VW553/V1_MQTT_OK/GD32VW55X_Wifi_BLE_SDK/GD32VW55x_RELEASE_V1.0.2/MSDK/cloud/alicloud/src/services/ota/impl\ota_fetch.c **** 
  97:C:/Users/stapi/OneDrive/Desktop/GD32VW553/V1_MQTT_OK/GD32VW55X_Wifi_BLE_SDK/GD32VW55x_RELEASE_V1.0.2/MSDK/cloud/alicloud/src/services/ota/impl\ota_fetch.c ****     const char* ca = iotx_ca_get();
  98:C:/Users/stapi/OneDrive/Desktop/GD32VW553/V1_MQTT_OK/GD32VW55X_Wifi_BLE_SDK/GD32VW55x_RELEASE_V1.0.2/MSDK/cloud/alicloud/src/services/ota/impl\ota_fetch.c **** 
  99:C:/Users/stapi/OneDrive/Desktop/GD32VW553/V1_MQTT_OK/GD32VW55X_Wifi_BLE_SDK/GD32VW55x_RELEASE_V1.0.2/MSDK/cloud/alicloud/src/services/ota/impl\ota_fetch.c ****     //not use ssl for local http transfer
 100:C:/Users/stapi/OneDrive/Desktop/GD32VW553/V1_MQTT_OK/GD32VW55X_Wifi_BLE_SDK/GD32VW55x_RELEASE_V1.0.2/MSDK/cloud/alicloud/src/services/ota/impl\ota_fetch.c ****     if((port != 80)&&(port != 443)) {
 101:C:/Users/stapi/OneDrive/Desktop/GD32VW553/V1_MQTT_OK/GD32VW55X_Wifi_BLE_SDK/GD32VW55x_RELEASE_V1.0.2/MSDK/cloud/alicloud/src/services/ota/impl\ota_fetch.c ****         ca =NULL;
 102:C:/Users/stapi/OneDrive/Desktop/GD32VW553/V1_MQTT_OK/GD32VW55X_Wifi_BLE_SDK/GD32VW55x_RELEASE_V1.0.2/MSDK/cloud/alicloud/src/services/ota/impl\ota_fetch.c ****     }
 103:C:/Users/stapi/OneDrive/Desktop/GD32VW553/V1_MQTT_OK/GD32VW55X_Wifi_BLE_SDK/GD32VW55x_RELEASE_V1.0.2/MSDK/cloud/alicloud/src/services/ota/impl\ota_fetch.c ****     if (0 != httpclient_common(&h_odc->http, h_odc->url, port,ca, HTTPCLIENT_GET, timeout_s * 1000,
 104:C:/Users/stapi/OneDrive/Desktop/GD32VW553/V1_MQTT_OK/GD32VW55X_Wifi_BLE_SDK/GD32VW55x_RELEASE_V1.0.2/MSDK/cloud/alicloud/src/services/ota/impl\ota_fetch.c ****                                &h_odc->http_data)) {
 105:C:/Users/stapi/OneDrive/Desktop/GD32VW553/V1_MQTT_OK/GD32VW55X_Wifi_BLE_SDK/GD32VW55x_RELEASE_V1.0.2/MSDK/cloud/alicloud/src/services/ota/impl\ota_fetch.c ****         OTA_LOG_ERROR("fetch firmware failed");
 191              		.loc 1 105 9 is_stmt 0
 192 0048 97000000 		call	HAL_Printf
 192      E7800000 
 193              	.LVL17:
 194              		.loc 1 105 9 is_stmt 1
 195 0050 37050000 		lui	a0,%hi(.LC2)
 196 0054 13050500 		addi	a0,a0,%lo(.LC2)
 197 0058 97000000 		call	HAL_Printf
 197      E7800000 
 198              	.LVL18:
 199              		.loc 1 105 9
 106:C:/Users/stapi/OneDrive/Desktop/GD32VW553/V1_MQTT_OK/GD32VW55X_Wifi_BLE_SDK/GD32VW55x_RELEASE_V1.0.2/MSDK/cloud/alicloud/src/services/ota/impl\ota_fetch.c ****         return -1;
 200              		.loc 1 106 9
 201              		.loc 1 106 16 is_stmt 0
 202 0060 7D55     		li	a0,-1
 203              	.L5:
 107:C:/Users/stapi/OneDrive/Desktop/GD32VW553/V1_MQTT_OK/GD32VW55X_Wifi_BLE_SDK/GD32VW55x_RELEASE_V1.0.2/MSDK/cloud/alicloud/src/services/ota/impl\ota_fetch.c ****     }
 108:C:/Users/stapi/OneDrive/Desktop/GD32VW553/V1_MQTT_OK/GD32VW55X_Wifi_BLE_SDK/GD32VW55x_RELEASE_V1.0.2/MSDK/cloud/alicloud/src/services/ota/impl\ota_fetch.c **** 
 109:C:/Users/stapi/OneDrive/Desktop/GD32VW553/V1_MQTT_OK/GD32VW55X_Wifi_BLE_SDK/GD32VW55x_RELEASE_V1.0.2/MSDK/cloud/alicloud/src/services/ota/impl\ota_fetch.c ****     return h_odc->http_data.response_content_len - h_odc->http_data.retrieve_len - diff;
 110:C:/Users/stapi/OneDrive/Desktop/GD32VW553/V1_MQTT_OK/GD32VW55X_Wifi_BLE_SDK/GD32VW55x_RELEASE_V1.0.2/MSDK/cloud/alicloud/src/services/ota/impl\ota_fetch.c **** }
 204              		.loc 1 110 1
 205 0062 4101     		addi	sp,sp,16
 206              		.cfi_remember_state
 207              		.cfi_def_cfa_offset 0
 208 0064 17030000 		tail	__riscv_restore_6
 208      67000300 
 209              		.cfi_restore 21
 210              		.cfi_restore 20
 211              		.cfi_restore 19
 212              		.cfi_restore 18
 213              		.cfi_restore 9
 214              		.cfi_restore 8
 215              		.cfi_restore 1
 216              		.cfi_def_cfa_offset -32
 217              	.LVL19:
 218              	.L6:
 219              		.cfi_restore_state
  83:C:/Users/stapi/OneDrive/Desktop/GD32VW553/V1_MQTT_OK/GD32VW55X_Wifi_BLE_SDK/GD32VW55x_RELEASE_V1.0.2/MSDK/cloud/alicloud/src/services/ota/impl\ota_fetch.c **** 
 220              		.loc 1 83 5 is_stmt 1
  83:C:/Users/stapi/OneDrive/Desktop/GD32VW553/V1_MQTT_OK/GD32VW55X_Wifi_BLE_SDK/GD32VW55x_RELEASE_V1.0.2/MSDK/cloud/alicloud/src/services/ota/impl\ota_fetch.c **** 
 221              		.loc 1 83 14 is_stmt 0
 222 006c 930A3500 		addi	s5,a0,3
 223              	.LVL20:
  85:C:/Users/stapi/OneDrive/Desktop/GD32VW553/V1_MQTT_OK/GD32VW55X_Wifi_BLE_SDK/GD32VW55x_RELEASE_V1.0.2/MSDK/cloud/alicloud/src/services/ota/impl\ota_fetch.c ****     port_ptr = strchr(host_ptr, ':');
 224              		.loc 1 85 5 is_stmt 1
  86:C:/Users/stapi/OneDrive/Desktop/GD32VW553/V1_MQTT_OK/GD32VW55X_Wifi_BLE_SDK/GD32VW55x_RELEASE_V1.0.2/MSDK/cloud/alicloud/src/services/ota/impl\ota_fetch.c **** 
 225              		.loc 1 86 5
  86:C:/Users/stapi/OneDrive/Desktop/GD32VW553/V1_MQTT_OK/GD32VW55X_Wifi_BLE_SDK/GD32VW55x_RELEASE_V1.0.2/MSDK/cloud/alicloud/src/services/ota/impl\ota_fetch.c **** 
 226              		.loc 1 86 16 is_stmt 0
 227 0070 9305A003 		li	a1,58
 228 0074 5685     		mv	a0,s5
 229 0076 97000000 		call	strchr
 229      E7800000 
 230              	.LVL21:
 231 007e 2A89     		mv	s2,a0
 232              	.LVL22:
  88:C:/Users/stapi/OneDrive/Desktop/GD32VW553/V1_MQTT_OK/GD32VW55X_Wifi_BLE_SDK/GD32VW55x_RELEASE_V1.0.2/MSDK/cloud/alicloud/src/services/ota/impl\ota_fetch.c ****         port_str_len = path_ptr - port_ptr;
 233              		.loc 1 88 5 is_stmt 1
  67:C:/Users/stapi/OneDrive/Desktop/GD32VW553/V1_MQTT_OK/GD32VW55X_Wifi_BLE_SDK/GD32VW55x_RELEASE_V1.0.2/MSDK/cloud/alicloud/src/services/ota/impl\ota_fetch.c **** #endif
 234              		.loc 1 67 10 is_stmt 0
 235 0080 9304B01B 		li	s1,443
  88:C:/Users/stapi/OneDrive/Desktop/GD32VW553/V1_MQTT_OK/GD32VW55X_Wifi_BLE_SDK/GD32VW55x_RELEASE_V1.0.2/MSDK/cloud/alicloud/src/services/ota/impl\ota_fetch.c ****         port_str_len = path_ptr - port_ptr;
 236              		.loc 1 88 7
 237 0084 35C9     		beq	a0,zero,.L8
  85:C:/Users/stapi/OneDrive/Desktop/GD32VW553/V1_MQTT_OK/GD32VW55X_Wifi_BLE_SDK/GD32VW55x_RELEASE_V1.0.2/MSDK/cloud/alicloud/src/services/ota/impl\ota_fetch.c ****     port_ptr = strchr(host_ptr, ':');
 238              		.loc 1 85 16
 239 0086 9305F002 		li	a1,47
 240 008a 5685     		mv	a0,s5
 241              	.LVL23:
 242 008c 97000000 		call	strchr
 242      E7800000 
 243              	.LVL24:
  88:C:/Users/stapi/OneDrive/Desktop/GD32VW553/V1_MQTT_OK/GD32VW55X_Wifi_BLE_SDK/GD32VW55x_RELEASE_V1.0.2/MSDK/cloud/alicloud/src/services/ota/impl\ota_fetch.c ****         port_str_len = path_ptr - port_ptr;
 244              		.loc 1 88 16
 245 0094 93051900 		addi	a1,s2,1
 246              	.LVL25:
  89:C:/Users/stapi/OneDrive/Desktop/GD32VW553/V1_MQTT_OK/GD32VW55X_Wifi_BLE_SDK/GD32VW55x_RELEASE_V1.0.2/MSDK/cloud/alicloud/src/services/ota/impl\ota_fetch.c ****         port_str_len = port_str_len > port_str_max_len?port_str_max_len:port_str_len;
 247              		.loc 1 89 9 is_stmt 1
  89:C:/Users/stapi/OneDrive/Desktop/GD32VW553/V1_MQTT_OK/GD32VW55X_Wifi_BLE_SDK/GD32VW55x_RELEASE_V1.0.2/MSDK/cloud/alicloud/src/services/ota/impl\ota_fetch.c ****         port_str_len = port_str_len > port_str_max_len?port_str_max_len:port_str_len;
 248              		.loc 1 89 33 is_stmt 0
 249 0098 B304B540 		sub	s1,a0,a1
  90:C:/Users/stapi/OneDrive/Desktop/GD32VW553/V1_MQTT_OK/GD32VW55X_Wifi_BLE_SDK/GD32VW55x_RELEASE_V1.0.2/MSDK/cloud/alicloud/src/services/ota/impl\ota_fetch.c ****         memcpy(port_str, port_ptr, port_str_len);
 250              		.loc 1 90 22
 251 009c 1546     		li	a2,5
  91:C:/Users/stapi/OneDrive/Desktop/GD32VW553/V1_MQTT_OK/GD32VW55X_Wifi_BLE_SDK/GD32VW55x_RELEASE_V1.0.2/MSDK/cloud/alicloud/src/services/ota/impl\ota_fetch.c ****         port_str[port_str_len] = '\0';
 252              		.loc 1 91 9
 253 009e 2800     		addi	a0,sp,8
  89:C:/Users/stapi/OneDrive/Desktop/GD32VW553/V1_MQTT_OK/GD32VW55X_Wifi_BLE_SDK/GD32VW55x_RELEASE_V1.0.2/MSDK/cloud/alicloud/src/services/ota/impl\ota_fetch.c ****         port_str_len = port_str_len > port_str_max_len?port_str_max_len:port_str_len;
 254              		.loc 1 89 22
 255 00a0 93944460 		sext.b	s1,s1
 256              	.LVL26:
  90:C:/Users/stapi/OneDrive/Desktop/GD32VW553/V1_MQTT_OK/GD32VW55X_Wifi_BLE_SDK/GD32VW55x_RELEASE_V1.0.2/MSDK/cloud/alicloud/src/services/ota/impl\ota_fetch.c ****         memcpy(port_str, port_ptr, port_str_len);
 257              		.loc 1 90 9 is_stmt 1
  90:C:/Users/stapi/OneDrive/Desktop/GD32VW553/V1_MQTT_OK/GD32VW55X_Wifi_BLE_SDK/GD32VW55x_RELEASE_V1.0.2/MSDK/cloud/alicloud/src/services/ota/impl\ota_fetch.c ****         memcpy(port_str, port_ptr, port_str_len);
 258              		.loc 1 90 22 is_stmt 0
 259 00a4 B3C4C40A 		min	s1,s1,a2
 260              	.LVL27:
  91:C:/Users/stapi/OneDrive/Desktop/GD32VW553/V1_MQTT_OK/GD32VW55X_Wifi_BLE_SDK/GD32VW55x_RELEASE_V1.0.2/MSDK/cloud/alicloud/src/services/ota/impl\ota_fetch.c ****         port_str[port_str_len] = '\0';
 261              		.loc 1 91 9 is_stmt 1
 262 00a8 2686     		mv	a2,s1
 263 00aa 97000000 		call	memcpy
 263      E7800000 
 264              	.LVL28:
  92:C:/Users/stapi/OneDrive/Desktop/GD32VW553/V1_MQTT_OK/GD32VW55X_Wifi_BLE_SDK/GD32VW55x_RELEASE_V1.0.2/MSDK/cloud/alicloud/src/services/ota/impl\ota_fetch.c ****         port = atoi(port_str);
 265              		.loc 1 92 9
  92:C:/Users/stapi/OneDrive/Desktop/GD32VW553/V1_MQTT_OK/GD32VW55X_Wifi_BLE_SDK/GD32VW55x_RELEASE_V1.0.2/MSDK/cloud/alicloud/src/services/ota/impl\ota_fetch.c ****         port = atoi(port_str);
 266              		.loc 1 92 32 is_stmt 0
 267 00b2 1C08     		addi	a5,sp,16
 268 00b4 BE94     		add	s1,a5,s1
 269              	.LVL29:
 270 00b6 238C04FE 		sb	zero,-8(s1)
  93:C:/Users/stapi/OneDrive/Desktop/GD32VW553/V1_MQTT_OK/GD32VW55X_Wifi_BLE_SDK/GD32VW55x_RELEASE_V1.0.2/MSDK/cloud/alicloud/src/services/ota/impl\ota_fetch.c ****         OTA_LOG_INFO("http:port=%d.",port);
 271              		.loc 1 93 9 is_stmt 1
  93:C:/Users/stapi/OneDrive/Desktop/GD32VW553/V1_MQTT_OK/GD32VW55X_Wifi_BLE_SDK/GD32VW55x_RELEASE_V1.0.2/MSDK/cloud/alicloud/src/services/ota/impl\ota_fetch.c ****         OTA_LOG_INFO("http:port=%d.",port);
 272              		.loc 1 93 16 is_stmt 0
 273 00ba 2800     		addi	a0,sp,8
 274 00bc 97000000 		call	atoi
 274      E7800000 
 275              	.LVL30:
 276 00c4 AA84     		mv	s1,a0
 277              	.LVL31:
  94:C:/Users/stapi/OneDrive/Desktop/GD32VW553/V1_MQTT_OK/GD32VW55X_Wifi_BLE_SDK/GD32VW55x_RELEASE_V1.0.2/MSDK/cloud/alicloud/src/services/ota/impl\ota_fetch.c ****     }
 278              		.loc 1 94 9 is_stmt 1
  94:C:/Users/stapi/OneDrive/Desktop/GD32VW553/V1_MQTT_OK/GD32VW55X_Wifi_BLE_SDK/GD32VW55x_RELEASE_V1.0.2/MSDK/cloud/alicloud/src/services/ota/impl\ota_fetch.c ****     }
 279              		.loc 1 94 9
 280 00c6 37050000 		lui	a0,%hi(.LC6)
 281 00ca 13050500 		addi	a0,a0,%lo(.LC6)
 282 00ce 97000000 		call	HAL_Printf
 282      E7800000 
 283              	.LVL32:
  94:C:/Users/stapi/OneDrive/Desktop/GD32VW553/V1_MQTT_OK/GD32VW55X_Wifi_BLE_SDK/GD32VW55x_RELEASE_V1.0.2/MSDK/cloud/alicloud/src/services/ota/impl\ota_fetch.c ****     }
 284              		.loc 1 94 9
 285 00d6 37050000 		lui	a0,%hi(.LC7)
 286 00da 13050500 		addi	a0,a0,%lo(.LC7)
 287 00de A685     		mv	a1,s1
 288 00e0 97000000 		call	HAL_Printf
 288      E7800000 
 289              	.LVL33:
  94:C:/Users/stapi/OneDrive/Desktop/GD32VW553/V1_MQTT_OK/GD32VW55X_Wifi_BLE_SDK/GD32VW55x_RELEASE_V1.0.2/MSDK/cloud/alicloud/src/services/ota/impl\ota_fetch.c ****     }
 290              		.loc 1 94 9
 291 00e8 37050000 		lui	a0,%hi(.LC2)
 292 00ec 13050500 		addi	a0,a0,%lo(.LC2)
 293 00f0 97000000 		call	HAL_Printf
 293      E7800000 
 294              	.LVL34:
 295              	.L8:
  94:C:/Users/stapi/OneDrive/Desktop/GD32VW553/V1_MQTT_OK/GD32VW55X_Wifi_BLE_SDK/GD32VW55x_RELEASE_V1.0.2/MSDK/cloud/alicloud/src/services/ota/impl\ota_fetch.c ****     }
 296              		.loc 1 94 9 discriminator 1
  97:C:/Users/stapi/OneDrive/Desktop/GD32VW553/V1_MQTT_OK/GD32VW55X_Wifi_BLE_SDK/GD32VW55x_RELEASE_V1.0.2/MSDK/cloud/alicloud/src/services/ota/impl\ota_fetch.c **** 
 297              		.loc 1 97 5 discriminator 1
  97:C:/Users/stapi/OneDrive/Desktop/GD32VW553/V1_MQTT_OK/GD32VW55X_Wifi_BLE_SDK/GD32VW55x_RELEASE_V1.0.2/MSDK/cloud/alicloud/src/services/ota/impl\ota_fetch.c **** 
 298              		.loc 1 97 22 is_stmt 0 discriminator 1
 299 00f8 97000000 		call	iotx_ca_get
 299      E7800000 
 300              	.LVL35:
 100:C:/Users/stapi/OneDrive/Desktop/GD32VW553/V1_MQTT_OK/GD32VW55X_Wifi_BLE_SDK/GD32VW55x_RELEASE_V1.0.2/MSDK/cloud/alicloud/src/services/ota/impl\ota_fetch.c ****         ca =NULL;
 301              		.loc 1 100 7 discriminator 1
 302 0100 93070005 		li	a5,80
  97:C:/Users/stapi/OneDrive/Desktop/GD32VW553/V1_MQTT_OK/GD32VW55X_Wifi_BLE_SDK/GD32VW55x_RELEASE_V1.0.2/MSDK/cloud/alicloud/src/services/ota/impl\ota_fetch.c **** 
 303              		.loc 1 97 22 discriminator 1
 304 0104 AA86     		mv	a3,a0
 305              	.LVL36:
 100:C:/Users/stapi/OneDrive/Desktop/GD32VW553/V1_MQTT_OK/GD32VW55X_Wifi_BLE_SDK/GD32VW55x_RELEASE_V1.0.2/MSDK/cloud/alicloud/src/services/ota/impl\ota_fetch.c ****         ca =NULL;
 306              		.loc 1 100 5 is_stmt 1 discriminator 1
 100:C:/Users/stapi/OneDrive/Desktop/GD32VW553/V1_MQTT_OK/GD32VW55X_Wifi_BLE_SDK/GD32VW55x_RELEASE_V1.0.2/MSDK/cloud/alicloud/src/services/ota/impl\ota_fetch.c ****         ca =NULL;
 307              		.loc 1 100 7 is_stmt 0 discriminator 1
 308 0106 6387F400 		beq	s1,a5,.L9
 100:C:/Users/stapi/OneDrive/Desktop/GD32VW553/V1_MQTT_OK/GD32VW55X_Wifi_BLE_SDK/GD32VW55x_RELEASE_V1.0.2/MSDK/cloud/alicloud/src/services/ota/impl\ota_fetch.c ****         ca =NULL;
 309              		.loc 1 100 20 discriminator 1
 310 010a 9307B01B 		li	a5,443
 311 010e 6383F400 		beq	s1,a5,.L9
 101:C:/Users/stapi/OneDrive/Desktop/GD32VW553/V1_MQTT_OK/GD32VW55X_Wifi_BLE_SDK/GD32VW55x_RELEASE_V1.0.2/MSDK/cloud/alicloud/src/services/ota/impl\ota_fetch.c ****     }
 312              		.loc 1 101 12
 313 0112 8146     		li	a3,0
 314              	.L9:
 315              	.LVL37:
 103:C:/Users/stapi/OneDrive/Desktop/GD32VW553/V1_MQTT_OK/GD32VW55X_Wifi_BLE_SDK/GD32VW55x_RELEASE_V1.0.2/MSDK/cloud/alicloud/src/services/ota/impl\ota_fetch.c ****                                &h_odc->http_data)) {
 316              		.loc 1 103 5 is_stmt 1
 103:C:/Users/stapi/OneDrive/Desktop/GD32VW553/V1_MQTT_OK/GD32VW55X_Wifi_BLE_SDK/GD32VW55x_RELEASE_V1.0.2/MSDK/cloud/alicloud/src/services/ota/impl\ota_fetch.c ****                                &h_odc->http_data)) {
 317              		.loc 1 103 14 is_stmt 0
 318 0114 9307803E 		li	a5,1000
 319 0118 B307FA02 		mul	a5,s4,a5
 320 011c 0C40     		lw	a1,0(s0)
 321 011e 13088403 		addi	a6,s0,56
 322 0122 0147     		li	a4,0
 323 0124 2686     		mv	a2,s1
 324 0126 13054400 		addi	a0,s0,4
 325 012a 97000000 		call	httpclient_common
 325      E7800000 
 326              	.LVL38:
 103:C:/Users/stapi/OneDrive/Desktop/GD32VW553/V1_MQTT_OK/GD32VW55X_Wifi_BLE_SDK/GD32VW55x_RELEASE_V1.0.2/MSDK/cloud/alicloud/src/services/ota/impl\ota_fetch.c ****                                &h_odc->http_data)) {
 327              		.loc 1 103 8
 328 0132 11CD     		beq	a0,zero,.L10
 105:C:/Users/stapi/OneDrive/Desktop/GD32VW553/V1_MQTT_OK/GD32VW55X_Wifi_BLE_SDK/GD32VW55x_RELEASE_V1.0.2/MSDK/cloud/alicloud/src/services/ota/impl\ota_fetch.c ****         return -1;
 329              		.loc 1 105 9 is_stmt 1
 105:C:/Users/stapi/OneDrive/Desktop/GD32VW553/V1_MQTT_OK/GD32VW55X_Wifi_BLE_SDK/GD32VW55x_RELEASE_V1.0.2/MSDK/cloud/alicloud/src/services/ota/impl\ota_fetch.c ****         return -1;
 330              		.loc 1 105 9
 331 0134 37050000 		lui	a0,%hi(.LC0)
 332 0138 13050500 		addi	a0,a0,%lo(.LC0)
 333 013c 97000000 		call	HAL_Printf
 333      E7800000 
 334              	.LVL39:
 105:C:/Users/stapi/OneDrive/Desktop/GD32VW553/V1_MQTT_OK/GD32VW55X_Wifi_BLE_SDK/GD32VW55x_RELEASE_V1.0.2/MSDK/cloud/alicloud/src/services/ota/impl\ota_fetch.c ****         return -1;
 335              		.loc 1 105 9
 336 0144 37050000 		lui	a0,%hi(.LC8)
 337 0148 13050500 		addi	a0,a0,%lo(.LC8)
 338 014c F5BD     		j	.L14
 339              	.L10:
 109:C:/Users/stapi/OneDrive/Desktop/GD32VW553/V1_MQTT_OK/GD32VW55X_Wifi_BLE_SDK/GD32VW55x_RELEASE_V1.0.2/MSDK/cloud/alicloud/src/services/ota/impl\ota_fetch.c **** }
 340              		.loc 1 109 5
 109:C:/Users/stapi/OneDrive/Desktop/GD32VW553/V1_MQTT_OK/GD32VW55X_Wifi_BLE_SDK/GD32VW55x_RELEASE_V1.0.2/MSDK/cloud/alicloud/src/services/ota/impl\ota_fetch.c **** }
 341              		.loc 1 109 50 is_stmt 0
 342 014e 6840     		lw	a0,68(s0)
 343 0150 3C40     		lw	a5,64(s0)
 344 0152 1D8D     		sub	a0,a0,a5
 109:C:/Users/stapi/OneDrive/Desktop/GD32VW553/V1_MQTT_OK/GD32VW55X_Wifi_BLE_SDK/GD32VW55x_RELEASE_V1.0.2/MSDK/cloud/alicloud/src/services/ota/impl\ota_fetch.c **** }
 345              		.loc 1 109 82
 346 0154 33053541 		sub	a0,a0,s3
 347 0158 29B7     		j	.L5
 348              		.cfi_endproc
 349              	.LFE21:
 351              		.section	.text.ofc_Deinit,"ax",@progbits
 352              		.align	1
 353              		.globl	ofc_Deinit
 355              	ofc_Deinit:
 356              	.LFB22:
 111:C:/Users/stapi/OneDrive/Desktop/GD32VW553/V1_MQTT_OK/GD32VW55X_Wifi_BLE_SDK/GD32VW55x_RELEASE_V1.0.2/MSDK/cloud/alicloud/src/services/ota/impl\ota_fetch.c **** 
 112:C:/Users/stapi/OneDrive/Desktop/GD32VW553/V1_MQTT_OK/GD32VW55X_Wifi_BLE_SDK/GD32VW55x_RELEASE_V1.0.2/MSDK/cloud/alicloud/src/services/ota/impl\ota_fetch.c **** 
 113:C:/Users/stapi/OneDrive/Desktop/GD32VW553/V1_MQTT_OK/GD32VW55X_Wifi_BLE_SDK/GD32VW55x_RELEASE_V1.0.2/MSDK/cloud/alicloud/src/services/ota/impl\ota_fetch.c **** int ofc_Deinit(void *handle)
 114:C:/Users/stapi/OneDrive/Desktop/GD32VW553/V1_MQTT_OK/GD32VW55X_Wifi_BLE_SDK/GD32VW55x_RELEASE_V1.0.2/MSDK/cloud/alicloud/src/services/ota/impl\ota_fetch.c **** {
 357              		.loc 1 114 1 is_stmt 1
 358              		.cfi_startproc
 359              	.LVL40:
 115:C:/Users/stapi/OneDrive/Desktop/GD32VW553/V1_MQTT_OK/GD32VW55X_Wifi_BLE_SDK/GD32VW55x_RELEASE_V1.0.2/MSDK/cloud/alicloud/src/services/ota/impl\ota_fetch.c ****     if (NULL != handle) {
 360              		.loc 1 115 5
 361              		.loc 1 115 8 is_stmt 0
 362 0000 11CD     		beq	a0,zero,.L21
 114:C:/Users/stapi/OneDrive/Desktop/GD32VW553/V1_MQTT_OK/GD32VW55X_Wifi_BLE_SDK/GD32VW55x_RELEASE_V1.0.2/MSDK/cloud/alicloud/src/services/ota/impl\ota_fetch.c ****     if (NULL != handle) {
 363              		.loc 1 114 1
 364 0002 17030000 		call	t0,__riscv_save_0
 364      E7020300 
 365              		.cfi_offset 1, -4
 366              		.cfi_def_cfa_offset 16
 116:C:/Users/stapi/OneDrive/Desktop/GD32VW553/V1_MQTT_OK/GD32VW55X_Wifi_BLE_SDK/GD32VW55x_RELEASE_V1.0.2/MSDK/cloud/alicloud/src/services/ota/impl\ota_fetch.c ****         OTA_FREE(handle);
 367              		.loc 1 116 9 is_stmt 1
 368 000a 97000000 		call	LITE_free_internal
 368      E7800000 
 369              	.LVL41:
 117:C:/Users/stapi/OneDrive/Desktop/GD32VW553/V1_MQTT_OK/GD32VW55X_Wifi_BLE_SDK/GD32VW55x_RELEASE_V1.0.2/MSDK/cloud/alicloud/src/services/ota/impl\ota_fetch.c ****     }
 118:C:/Users/stapi/OneDrive/Desktop/GD32VW553/V1_MQTT_OK/GD32VW55X_Wifi_BLE_SDK/GD32VW55x_RELEASE_V1.0.2/MSDK/cloud/alicloud/src/services/ota/impl\ota_fetch.c **** 
 119:C:/Users/stapi/OneDrive/Desktop/GD32VW553/V1_MQTT_OK/GD32VW55X_Wifi_BLE_SDK/GD32VW55x_RELEASE_V1.0.2/MSDK/cloud/alicloud/src/services/ota/impl\ota_fetch.c ****     return 0;
 370              		.loc 1 119 5
 120:C:/Users/stapi/OneDrive/Desktop/GD32VW553/V1_MQTT_OK/GD32VW55X_Wifi_BLE_SDK/GD32VW55x_RELEASE_V1.0.2/MSDK/cloud/alicloud/src/services/ota/impl\ota_fetch.c **** }
 371              		.loc 1 120 1 is_stmt 0
 372 0012 0145     		li	a0,0
 373 0014 17030000 		tail	__riscv_restore_0
 373      67000300 
 374              		.cfi_restore 1
 375              		.cfi_def_cfa_offset 0
 376              	.LVL42:
 377              	.L21:
 119:C:/Users/stapi/OneDrive/Desktop/GD32VW553/V1_MQTT_OK/GD32VW55X_Wifi_BLE_SDK/GD32VW55x_RELEASE_V1.0.2/MSDK/cloud/alicloud/src/services/ota/impl\ota_fetch.c **** }
 378              		.loc 1 119 5 is_stmt 1
 379              		.loc 1 120 1 is_stmt 0
 380 001c 0145     		li	a0,0
 381              	.LVL43:
 382 001e 8280     		ret
 383              		.cfi_endproc
 384              	.LFE22:
 386              		.text
 387              	.Letext0:
 388              		.file 2 "c:\\users\\stapi\\onedrive\\desktop\\gd32vw553\\embeddedbuilder_v1.4.7.26843\\tools\\nucl
 389              		.file 3 "c:\\users\\stapi\\onedrive\\desktop\\gd32vw553\\embeddedbuilder_v1.4.7.26843\\tools\\nucl
 390              		.file 4 "..\\..\\..\\..\\cloud\\alicloud\\src\\infra\\utils\\misc/utils_net.h"
 391              		.file 5 "..\\..\\..\\..\\cloud\\alicloud\\src\\infra\\utils\\misc/utils_httpc.h"
 392              		.file 6 "..\\..\\..\\..\\cloud\\alicloud\\src\\infra\\utils/iotx_utils.h"
 393              		.file 7 "c:\\users\\stapi\\onedrive\\desktop\\gd32vw553\\embeddedbuilder_v1.4.7.26843\\tools\\nucl
 394              		.file 8 "..\\..\\..\\..\\cloud\\alicloud\\include/iot_import.h"
 395              		.file 9 "c:\\users\\stapi\\onedrive\\desktop\\gd32vw553\\embeddedbuilder_v1.4.7.26843\\tools\\nucl
 396              		.file 10 "<built-in>"
DEFINED SYMBOLS
                            *ABS*:0000000000000000 ota_fetch.c
C:\Users\stapi\AppData\Local\Temp\ccVyFSoM.s:26     .text.ofc_Init:0000000000000000 ofc_Init
C:\Users\stapi\AppData\Local\Temp\ccVyFSoM.s:30     .text.ofc_Init:0000000000000000 .L0 
C:\Users\stapi\AppData\Local\Temp\ccVyFSoM.s:32     .text.ofc_Init:0000000000000000 .L0 
C:\Users\stapi\AppData\Local\Temp\ccVyFSoM.s:33     .text.ofc_Init:0000000000000008 .L0 
C:\Users\stapi\AppData\Local\Temp\ccVyFSoM.s:34     .text.ofc_Init:0000000000000008 .L0 
C:\Users\stapi\AppData\Local\Temp\ccVyFSoM.s:35     .text.ofc_Init:0000000000000008 .L0 
C:\Users\stapi\AppData\Local\Temp\ccVyFSoM.s:36     .text.ofc_Init:0000000000000008 .L0 
C:\Users\stapi\AppData\Local\Temp\ccVyFSoM.s:38     .text.ofc_Init:0000000000000008 .L0 
C:\Users\stapi\AppData\Local\Temp\ccVyFSoM.s:39     .text.ofc_Init:0000000000000008 .L0 
C:\Users\stapi\AppData\Local\Temp\ccVyFSoM.s:40     .text.ofc_Init:0000000000000008 .L0 
C:\Users\stapi\AppData\Local\Temp\ccVyFSoM.s:42     .text.ofc_Init:000000000000000a .L0 
C:\Users\stapi\AppData\Local\Temp\ccVyFSoM.s:51     .text.ofc_Init:000000000000001c .L0 
C:\Users\stapi\AppData\Local\Temp\ccVyFSoM.s:53     .text.ofc_Init:000000000000001e .L0 
C:\Users\stapi\AppData\Local\Temp\ccVyFSoM.s:54     .text.ofc_Init:000000000000001e .L0 
C:\Users\stapi\AppData\Local\Temp\ccVyFSoM.s:59     .text.ofc_Init:000000000000002e .L0 
C:\Users\stapi\AppData\Local\Temp\ccVyFSoM.s:64     .text.ofc_Init:000000000000003e .L0 
C:\Users\stapi\AppData\Local\Temp\ccVyFSoM.s:69     .text.ofc_Init:000000000000004e .L0 
C:\Users\stapi\AppData\Local\Temp\ccVyFSoM.s:71     .text.ofc_Init:000000000000004e .L0 
C:\Users\stapi\AppData\Local\Temp\ccVyFSoM.s:72     .text.ofc_Init:000000000000004e .L0 
C:\Users\stapi\AppData\Local\Temp\ccVyFSoM.s:74     .text.ofc_Init:0000000000000058 .L0 
C:\Users\stapi\AppData\Local\Temp\ccVyFSoM.s:75     .text.ofc_Init:0000000000000058 .L0 
C:\Users\stapi\AppData\Local\Temp\ccVyFSoM.s:76     .text.ofc_Init:0000000000000058 .L0 
C:\Users\stapi\AppData\Local\Temp\ccVyFSoM.s:77     .text.ofc_Init:0000000000000058 .L0 
C:\Users\stapi\AppData\Local\Temp\ccVyFSoM.s:78     .text.ofc_Init:0000000000000058 .L0 
C:\Users\stapi\AppData\Local\Temp\ccVyFSoM.s:80     .text.ofc_Init:0000000000000058 .L0 
C:\Users\stapi\AppData\Local\Temp\ccVyFSoM.s:82     .text.ofc_Init:0000000000000058 .L0 
C:\Users\stapi\AppData\Local\Temp\ccVyFSoM.s:88     .text.ofc_Init:0000000000000068 .L0 
C:\Users\stapi\AppData\Local\Temp\ccVyFSoM.s:89     .text.ofc_Init:0000000000000068 .L0 
C:\Users\stapi\AppData\Local\Temp\ccVyFSoM.s:93     .text.ofc_Init:0000000000000072 .L0 
C:\Users\stapi\AppData\Local\Temp\ccVyFSoM.s:94     .text.ofc_Init:0000000000000072 .L0 
C:\Users\stapi\AppData\Local\Temp\ccVyFSoM.s:96     .text.ofc_Init:0000000000000074 .L0 
C:\Users\stapi\AppData\Local\Temp\ccVyFSoM.s:97     .text.ofc_Init:0000000000000074 .L0 
C:\Users\stapi\AppData\Local\Temp\ccVyFSoM.s:98     .text.ofc_Init:0000000000000076 .L0 
C:\Users\stapi\AppData\Local\Temp\ccVyFSoM.s:121    .text.ofc_Fetch:0000000000000000 ofc_Fetch
C:\Users\stapi\AppData\Local\Temp\ccVyFSoM.s:124    .text.ofc_Fetch:0000000000000000 .L0 
C:\Users\stapi\AppData\Local\Temp\ccVyFSoM.s:126    .text.ofc_Fetch:0000000000000000 .L0 
C:\Users\stapi\AppData\Local\Temp\ccVyFSoM.s:127    .text.ofc_Fetch:0000000000000008 .L0 
C:\Users\stapi\AppData\Local\Temp\ccVyFSoM.s:128    .text.ofc_Fetch:0000000000000008 .L0 
C:\Users\stapi\AppData\Local\Temp\ccVyFSoM.s:129    .text.ofc_Fetch:0000000000000008 .L0 
C:\Users\stapi\AppData\Local\Temp\ccVyFSoM.s:130    .text.ofc_Fetch:0000000000000008 .L0 
C:\Users\stapi\AppData\Local\Temp\ccVyFSoM.s:131    .text.ofc_Fetch:0000000000000008 .L0 
C:\Users\stapi\AppData\Local\Temp\ccVyFSoM.s:132    .text.ofc_Fetch:0000000000000008 .L0 
C:\Users\stapi\AppData\Local\Temp\ccVyFSoM.s:133    .text.ofc_Fetch:0000000000000008 .L0 
C:\Users\stapi\AppData\Local\Temp\ccVyFSoM.s:134    .text.ofc_Fetch:0000000000000008 .L0 
C:\Users\stapi\AppData\Local\Temp\ccVyFSoM.s:136    .text.ofc_Fetch:0000000000000008 .L0 
C:\Users\stapi\AppData\Local\Temp\ccVyFSoM.s:138    .text.ofc_Fetch:0000000000000008 .L0 
C:\Users\stapi\AppData\Local\Temp\ccVyFSoM.s:139    .text.ofc_Fetch:0000000000000008 .L0 
C:\Users\stapi\AppData\Local\Temp\ccVyFSoM.s:140    .text.ofc_Fetch:0000000000000008 .L0 
C:\Users\stapi\AppData\Local\Temp\ccVyFSoM.s:141    .text.ofc_Fetch:0000000000000008 .L0 
C:\Users\stapi\AppData\Local\Temp\ccVyFSoM.s:143    .text.ofc_Fetch:000000000000000c .L0 
C:\Users\stapi\AppData\Local\Temp\ccVyFSoM.s:145    .text.ofc_Fetch:000000000000000e .L0 
C:\Users\stapi\AppData\Local\Temp\ccVyFSoM.s:147    .text.ofc_Fetch:0000000000000010 .L0 
C:\Users\stapi\AppData\Local\Temp\ccVyFSoM.s:148    .text.ofc_Fetch:0000000000000010 .L0 
C:\Users\stapi\AppData\Local\Temp\ccVyFSoM.s:150    .text.ofc_Fetch:0000000000000012 .L0 
C:\Users\stapi\AppData\Local\Temp\ccVyFSoM.s:151    .text.ofc_Fetch:0000000000000012 .L0 
C:\Users\stapi\AppData\Local\Temp\ccVyFSoM.s:154    .text.ofc_Fetch:0000000000000014 .L0 
C:\Users\stapi\AppData\Local\Temp\ccVyFSoM.s:157    .text.ofc_Fetch:0000000000000018 .L0 
C:\Users\stapi\AppData\Local\Temp\ccVyFSoM.s:158    .text.ofc_Fetch:000000000000001a .L0 
C:\Users\stapi\AppData\Local\Temp\ccVyFSoM.s:160    .text.ofc_Fetch:000000000000001a .L0 
C:\Users\stapi\AppData\Local\Temp\ccVyFSoM.s:163    .text.ofc_Fetch:000000000000001e .L0 
C:\Users\stapi\AppData\Local\Temp\ccVyFSoM.s:164    .text.ofc_Fetch:000000000000001e .L0 
C:\Users\stapi\AppData\Local\Temp\ccVyFSoM.s:165    .text.ofc_Fetch:000000000000001e .L0 
C:\Users\stapi\AppData\Local\Temp\ccVyFSoM.s:168    .text.ofc_Fetch:0000000000000024 .L0 
C:\Users\stapi\AppData\Local\Temp\ccVyFSoM.s:170    .text.ofc_Fetch:0000000000000026 .L0 
C:\Users\stapi\AppData\Local\Temp\ccVyFSoM.s:173    .text.ofc_Fetch:000000000000002e .L0 
C:\Users\stapi\AppData\Local\Temp\ccVyFSoM.s:174    .text.ofc_Fetch:000000000000002e .L0 
C:\Users\stapi\AppData\Local\Temp\ccVyFSoM.s:175    .text.ofc_Fetch:000000000000002e .L0 
C:\Users\stapi\AppData\Local\Temp\ccVyFSoM.s:176    .text.ofc_Fetch:000000000000002e .L0 
C:\Users\stapi\AppData\Local\Temp\ccVyFSoM.s:177    .text.ofc_Fetch:000000000000002e .L0 
C:\Users\stapi\AppData\Local\Temp\ccVyFSoM.s:178    .text.ofc_Fetch:000000000000002e .L0 
C:\Users\stapi\AppData\Local\Temp\ccVyFSoM.s:180    .text.ofc_Fetch:0000000000000030 .L0 
C:\Users\stapi\AppData\Local\Temp\ccVyFSoM.s:181    .text.ofc_Fetch:0000000000000030 .L0 
C:\Users\stapi\AppData\Local\Temp\ccVyFSoM.s:187    .text.ofc_Fetch:0000000000000040 .L0 
C:\Users\stapi\AppData\Local\Temp\ccVyFSoM.s:192    .text.ofc_Fetch:0000000000000048 .L0 
C:\Users\stapi\AppData\Local\Temp\ccVyFSoM.s:195    .text.ofc_Fetch:0000000000000050 .L0 
C:\Users\stapi\AppData\Local\Temp\ccVyFSoM.s:200    .text.ofc_Fetch:0000000000000060 .L0 
C:\Users\stapi\AppData\Local\Temp\ccVyFSoM.s:201    .text.ofc_Fetch:0000000000000060 .L0 
C:\Users\stapi\AppData\Local\Temp\ccVyFSoM.s:202    .text.ofc_Fetch:0000000000000060 .L0 
C:\Users\stapi\AppData\Local\Temp\ccVyFSoM.s:205    .text.ofc_Fetch:0000000000000062 .L0 
C:\Users\stapi\AppData\Local\Temp\ccVyFSoM.s:206    .text.ofc_Fetch:0000000000000064 .L0 
C:\Users\stapi\AppData\Local\Temp\ccVyFSoM.s:207    .text.ofc_Fetch:0000000000000064 .L0 
C:\Users\stapi\AppData\Local\Temp\ccVyFSoM.s:209    .text.ofc_Fetch:000000000000006c .L0 
C:\Users\stapi\AppData\Local\Temp\ccVyFSoM.s:210    .text.ofc_Fetch:000000000000006c .L0 
C:\Users\stapi\AppData\Local\Temp\ccVyFSoM.s:211    .text.ofc_Fetch:000000000000006c .L0 
C:\Users\stapi\AppData\Local\Temp\ccVyFSoM.s:212    .text.ofc_Fetch:000000000000006c .L0 
C:\Users\stapi\AppData\Local\Temp\ccVyFSoM.s:213    .text.ofc_Fetch:000000000000006c .L0 
C:\Users\stapi\AppData\Local\Temp\ccVyFSoM.s:214    .text.ofc_Fetch:000000000000006c .L0 
C:\Users\stapi\AppData\Local\Temp\ccVyFSoM.s:215    .text.ofc_Fetch:000000000000006c .L0 
C:\Users\stapi\AppData\Local\Temp\ccVyFSoM.s:216    .text.ofc_Fetch:000000000000006c .L0 
C:\Users\stapi\AppData\Local\Temp\ccVyFSoM.s:219    .text.ofc_Fetch:000000000000006c .L0 
C:\Users\stapi\AppData\Local\Temp\ccVyFSoM.s:221    .text.ofc_Fetch:000000000000006c .L0 
C:\Users\stapi\AppData\Local\Temp\ccVyFSoM.s:222    .text.ofc_Fetch:000000000000006c .L0 
C:\Users\stapi\AppData\Local\Temp\ccVyFSoM.s:225    .text.ofc_Fetch:0000000000000070 .L0 
C:\Users\stapi\AppData\Local\Temp\ccVyFSoM.s:226    .text.ofc_Fetch:0000000000000070 .L0 
C:\Users\stapi\AppData\Local\Temp\ccVyFSoM.s:227    .text.ofc_Fetch:0000000000000070 .L0 
C:\Users\stapi\AppData\Local\Temp\ccVyFSoM.s:234    .text.ofc_Fetch:0000000000000080 .L0 
C:\Users\stapi\AppData\Local\Temp\ccVyFSoM.s:235    .text.ofc_Fetch:0000000000000080 .L0 
C:\Users\stapi\AppData\Local\Temp\ccVyFSoM.s:237    .text.ofc_Fetch:0000000000000084 .L0 
C:\Users\stapi\AppData\Local\Temp\ccVyFSoM.s:239    .text.ofc_Fetch:0000000000000086 .L0 
C:\Users\stapi\AppData\Local\Temp\ccVyFSoM.s:245    .text.ofc_Fetch:0000000000000094 .L0 
C:\Users\stapi\AppData\Local\Temp\ccVyFSoM.s:248    .text.ofc_Fetch:0000000000000098 .L0 
C:\Users\stapi\AppData\Local\Temp\ccVyFSoM.s:249    .text.ofc_Fetch:0000000000000098 .L0 
C:\Users\stapi\AppData\Local\Temp\ccVyFSoM.s:251    .text.ofc_Fetch:000000000000009c .L0 
C:\Users\stapi\AppData\Local\Temp\ccVyFSoM.s:253    .text.ofc_Fetch:000000000000009e .L0 
C:\Users\stapi\AppData\Local\Temp\ccVyFSoM.s:255    .text.ofc_Fetch:00000000000000a0 .L0 
C:\Users\stapi\AppData\Local\Temp\ccVyFSoM.s:258    .text.ofc_Fetch:00000000000000a4 .L0 
C:\Users\stapi\AppData\Local\Temp\ccVyFSoM.s:259    .text.ofc_Fetch:00000000000000a4 .L0 
C:\Users\stapi\AppData\Local\Temp\ccVyFSoM.s:262    .text.ofc_Fetch:00000000000000a8 .L0 
C:\Users\stapi\AppData\Local\Temp\ccVyFSoM.s:266    .text.ofc_Fetch:00000000000000b2 .L0 
C:\Users\stapi\AppData\Local\Temp\ccVyFSoM.s:267    .text.ofc_Fetch:00000000000000b2 .L0 
C:\Users\stapi\AppData\Local\Temp\ccVyFSoM.s:272    .text.ofc_Fetch:00000000000000ba .L0 
C:\Users\stapi\AppData\Local\Temp\ccVyFSoM.s:273    .text.ofc_Fetch:00000000000000ba .L0 
C:\Users\stapi\AppData\Local\Temp\ccVyFSoM.s:279    .text.ofc_Fetch:00000000000000c6 .L0 
C:\Users\stapi\AppData\Local\Temp\ccVyFSoM.s:280    .text.ofc_Fetch:00000000000000c6 .L0 
C:\Users\stapi\AppData\Local\Temp\ccVyFSoM.s:285    .text.ofc_Fetch:00000000000000d6 .L0 
C:\Users\stapi\AppData\Local\Temp\ccVyFSoM.s:291    .text.ofc_Fetch:00000000000000e8 .L0 
C:\Users\stapi\AppData\Local\Temp\ccVyFSoM.s:297    .text.ofc_Fetch:00000000000000f8 .L0 
C:\Users\stapi\AppData\Local\Temp\ccVyFSoM.s:298    .text.ofc_Fetch:00000000000000f8 .L0 
C:\Users\stapi\AppData\Local\Temp\ccVyFSoM.s:299    .text.ofc_Fetch:00000000000000f8 .L0 
C:\Users\stapi\AppData\Local\Temp\ccVyFSoM.s:302    .text.ofc_Fetch:0000000000000100 .L0 
C:\Users\stapi\AppData\Local\Temp\ccVyFSoM.s:304    .text.ofc_Fetch:0000000000000104 .L0 
C:\Users\stapi\AppData\Local\Temp\ccVyFSoM.s:307    .text.ofc_Fetch:0000000000000106 .L0 
C:\Users\stapi\AppData\Local\Temp\ccVyFSoM.s:308    .text.ofc_Fetch:0000000000000106 .L0 
C:\Users\stapi\AppData\Local\Temp\ccVyFSoM.s:310    .text.ofc_Fetch:000000000000010a .L0 
C:\Users\stapi\AppData\Local\Temp\ccVyFSoM.s:313    .text.ofc_Fetch:0000000000000112 .L0 
C:\Users\stapi\AppData\Local\Temp\ccVyFSoM.s:317    .text.ofc_Fetch:0000000000000114 .L0 
C:\Users\stapi\AppData\Local\Temp\ccVyFSoM.s:318    .text.ofc_Fetch:0000000000000114 .L0 
C:\Users\stapi\AppData\Local\Temp\ccVyFSoM.s:328    .text.ofc_Fetch:0000000000000132 .L0 
C:\Users\stapi\AppData\Local\Temp\ccVyFSoM.s:330    .text.ofc_Fetch:0000000000000134 .L0 
C:\Users\stapi\AppData\Local\Temp\ccVyFSoM.s:331    .text.ofc_Fetch:0000000000000134 .L0 
C:\Users\stapi\AppData\Local\Temp\ccVyFSoM.s:336    .text.ofc_Fetch:0000000000000144 .L0 
C:\Users\stapi\AppData\Local\Temp\ccVyFSoM.s:341    .text.ofc_Fetch:000000000000014e .L0 
C:\Users\stapi\AppData\Local\Temp\ccVyFSoM.s:342    .text.ofc_Fetch:000000000000014e .L0 
C:\Users\stapi\AppData\Local\Temp\ccVyFSoM.s:346    .text.ofc_Fetch:0000000000000154 .L0 
C:\Users\stapi\AppData\Local\Temp\ccVyFSoM.s:348    .text.ofc_Fetch:000000000000015a .L0 
C:\Users\stapi\AppData\Local\Temp\ccVyFSoM.s:355    .text.ofc_Deinit:0000000000000000 ofc_Deinit
C:\Users\stapi\AppData\Local\Temp\ccVyFSoM.s:358    .text.ofc_Deinit:0000000000000000 .L0 
C:\Users\stapi\AppData\Local\Temp\ccVyFSoM.s:360    .text.ofc_Deinit:0000000000000000 .L0 
C:\Users\stapi\AppData\Local\Temp\ccVyFSoM.s:361    .text.ofc_Deinit:0000000000000000 .L0 
C:\Users\stapi\AppData\Local\Temp\ccVyFSoM.s:362    .text.ofc_Deinit:0000000000000000 .L0 
C:\Users\stapi\AppData\Local\Temp\ccVyFSoM.s:364    .text.ofc_Deinit:0000000000000002 .L0 
C:\Users\stapi\AppData\Local\Temp\ccVyFSoM.s:365    .text.ofc_Deinit:000000000000000a .L0 
C:\Users\stapi\AppData\Local\Temp\ccVyFSoM.s:366    .text.ofc_Deinit:000000000000000a .L0 
C:\Users\stapi\AppData\Local\Temp\ccVyFSoM.s:368    .text.ofc_Deinit:000000000000000a .L0 
C:\Users\stapi\AppData\Local\Temp\ccVyFSoM.s:371    .text.ofc_Deinit:0000000000000012 .L0 
C:\Users\stapi\AppData\Local\Temp\ccVyFSoM.s:372    .text.ofc_Deinit:0000000000000012 .L0 
C:\Users\stapi\AppData\Local\Temp\ccVyFSoM.s:374    .text.ofc_Deinit:000000000000001c .L0 
C:\Users\stapi\AppData\Local\Temp\ccVyFSoM.s:375    .text.ofc_Deinit:000000000000001c .L0 
C:\Users\stapi\AppData\Local\Temp\ccVyFSoM.s:379    .text.ofc_Deinit:000000000000001c .L0 
C:\Users\stapi\AppData\Local\Temp\ccVyFSoM.s:380    .text.ofc_Deinit:000000000000001c .L0 
C:\Users\stapi\AppData\Local\Temp\ccVyFSoM.s:383    .text.ofc_Deinit:0000000000000020 .L0 
C:\Users\stapi\AppData\Local\Temp\ccVyFSoM.s:101    .text.ofc_Init:0000000000000076 .L0 
C:\Users\stapi\AppData\Local\Temp\ccVyFSoM.s:351    .text.ofc_Fetch:000000000000015a .L0 
C:\Users\stapi\AppData\Local\Temp\ccVyFSoM.s:386    .text.ofc_Deinit:0000000000000020 .L0 
                     .debug_frame:0000000000000000 .L0 
C:\Users\stapi\AppData\Local\Temp\ccVyFSoM.s:11     .rodata.ofc_Init.str1.4:0000000000000000 .LC0
C:\Users\stapi\AppData\Local\Temp\ccVyFSoM.s:14     .rodata.ofc_Init.str1.4:0000000000000008 .LC1
C:\Users\stapi\AppData\Local\Temp\ccVyFSoM.s:17     .rodata.ofc_Init.str1.4:0000000000000024 .LC2
C:\Users\stapi\AppData\Local\Temp\ccVyFSoM.s:20     .rodata.ofc_Init.str1.4:0000000000000028 .LC3
C:\Users\stapi\AppData\Local\Temp\ccVyFSoM.s:79     .text.ofc_Init:0000000000000058 .L2
C:\Users\stapi\AppData\Local\Temp\ccVyFSoM.s:70     .text.ofc_Init:000000000000004e .L1
C:\Users\stapi\AppData\Local\Temp\ccVyFSoM.s:103    .rodata.ofc_Fetch.str1.4:0000000000000000 .LC4
C:\Users\stapi\AppData\Local\Temp\ccVyFSoM.s:106    .rodata.ofc_Fetch.str1.4:0000000000000004 .LC5
C:\Users\stapi\AppData\Local\Temp\ccVyFSoM.s:109    .rodata.ofc_Fetch.str1.4:0000000000000018 .LC6
C:\Users\stapi\AppData\Local\Temp\ccVyFSoM.s:112    .rodata.ofc_Fetch.str1.4:0000000000000020 .LC7
C:\Users\stapi\AppData\Local\Temp\ccVyFSoM.s:115    .rodata.ofc_Fetch.str1.4:0000000000000030 .LC8
C:\Users\stapi\AppData\Local\Temp\ccVyFSoM.s:218    .text.ofc_Fetch:000000000000006c .L6
C:\Users\stapi\AppData\Local\Temp\ccVyFSoM.s:295    .text.ofc_Fetch:00000000000000f8 .L8
C:\Users\stapi\AppData\Local\Temp\ccVyFSoM.s:314    .text.ofc_Fetch:0000000000000114 .L9
C:\Users\stapi\AppData\Local\Temp\ccVyFSoM.s:339    .text.ofc_Fetch:000000000000014e .L10
C:\Users\stapi\AppData\Local\Temp\ccVyFSoM.s:190    .text.ofc_Fetch:0000000000000048 .L14
C:\Users\stapi\AppData\Local\Temp\ccVyFSoM.s:203    .text.ofc_Fetch:0000000000000062 .L5
C:\Users\stapi\AppData\Local\Temp\ccVyFSoM.s:377    .text.ofc_Deinit:000000000000001c .L21
C:\Users\stapi\AppData\Local\Temp\ccVyFSoM.s:1350   .debug_abbrev:0000000000000000 .Ldebug_abbrev0
C:\Users\stapi\AppData\Local\Temp\ccVyFSoM.s:2060   .debug_str:00000000000001ca .LASF80
C:\Users\stapi\AppData\Local\Temp\ccVyFSoM.s:2116   .debug_str:00000000000003dc .LASF81
C:\Users\stapi\AppData\Local\Temp\ccVyFSoM.s:2056   .debug_str:0000000000000129 .LASF82
C:\Users\stapi\AppData\Local\Temp\ccVyFSoM.s:1996   .debug_ranges:0000000000000000 .Ldebug_ranges0
C:\Users\stapi\AppData\Local\Temp\ccVyFSoM.s:2006   .debug_line:0000000000000000 .Ldebug_line0
C:\Users\stapi\AppData\Local\Temp\ccVyFSoM.s:2084   .debug_str:000000000000031e .LASF3
C:\Users\stapi\AppData\Local\Temp\ccVyFSoM.s:2098   .debug_str:000000000000036d .LASF0
C:\Users\stapi\AppData\Local\Temp\ccVyFSoM.s:2090   .debug_str:000000000000033f .LASF1
C:\Users\stapi\AppData\Local\Temp\ccVyFSoM.s:2026   .debug_str:0000000000000065 .LASF2
C:\Users\stapi\AppData\Local\Temp\ccVyFSoM.s:2038   .debug_str:00000000000000c3 .LASF4
C:\Users\stapi\AppData\Local\Temp\ccVyFSoM.s:2128   .debug_str:00000000000004b5 .LASF5
C:\Users\stapi\AppData\Local\Temp\ccVyFSoM.s:2152   .debug_str:0000000000000543 .LASF6
C:\Users\stapi\AppData\Local\Temp\ccVyFSoM.s:2070   .debug_str:00000000000002d9 .LASF7
C:\Users\stapi\AppData\Local\Temp\ccVyFSoM.s:2034   .debug_str:00000000000000a8 .LASF8
C:\Users\stapi\AppData\Local\Temp\ccVyFSoM.s:2140   .debug_str:00000000000004f1 .LASF9
C:\Users\stapi\AppData\Local\Temp\ccVyFSoM.s:2064   .debug_str:00000000000002b6 .LASF10
C:\Users\stapi\AppData\Local\Temp\ccVyFSoM.s:2100   .debug_str:0000000000000379 .LASF11
C:\Users\stapi\AppData\Local\Temp\ccVyFSoM.s:2158   .debug_str:0000000000000569 .LASF12
C:\Users\stapi\AppData\Local\Temp\ccVyFSoM.s:2106   .debug_str:00000000000003aa .LASF13
C:\Users\stapi\AppData\Local\Temp\ccVyFSoM.s:2122   .debug_str:0000000000000499 .LASF14
C:\Users\stapi\AppData\Local\Temp\ccVyFSoM.s:2020   .debug_str:0000000000000041 .LASF15
C:\Users\stapi\AppData\Local\Temp\ccVyFSoM.s:2108   .debug_str:00000000000003b7 .LASF16
C:\Users\stapi\AppData\Local\Temp\ccVyFSoM.s:2126   .debug_str:00000000000004ad .LASF17
C:\Users\stapi\AppData\Local\Temp\ccVyFSoM.s:2102   .debug_str:0000000000000390 .LASF18
C:\Users\stapi\AppData\Local\Temp\ccVyFSoM.s:2050   .debug_str:0000000000000102 .LASF19
C:\Users\stapi\AppData\Local\Temp\ccVyFSoM.s:2036   .debug_str:00000000000000b3 .LASF20
C:\Users\stapi\AppData\Local\Temp\ccVyFSoM.s:2066   .debug_str:00000000000002c4 .LASF83
C:\Users\stapi\AppData\Local\Temp\ccVyFSoM.s:2076   .debug_str:00000000000002f1 .LASF21
C:\Users\stapi\AppData\Local\Temp\ccVyFSoM.s:2136   .debug_str:00000000000004e4 .LASF22
C:\Users\stapi\AppData\Local\Temp\ccVyFSoM.s:2052   .debug_str:000000000000010c .LASF23
C:\Users\stapi\AppData\Local\Temp\ccVyFSoM.s:2044   .debug_str:00000000000000e2 .LASF24
C:\Users\stapi\AppData\Local\Temp\ccVyFSoM.s:2146   .debug_str:0000000000000514 .LASF25
C:\Users\stapi\AppData\Local\Temp\ccVyFSoM.s:2062   .debug_str:00000000000002b1 .LASF26
C:\Users\stapi\AppData\Local\Temp\ccVyFSoM.s:2014   .debug_str:0000000000000021 .LASF27
C:\Users\stapi\AppData\Local\Temp\ccVyFSoM.s:2166   .debug_str:0000000000000599 .LASF28
C:\Users\stapi\AppData\Local\Temp\ccVyFSoM.s:2048   .debug_str:00000000000000fa .LASF29
C:\Users\stapi\AppData\Local\Temp\ccVyFSoM.s:2104   .debug_str:0000000000000399 .LASF30
C:\Users\stapi\AppData\Local\Temp\ccVyFSoM.s:2080   .debug_str:000000000000030a .LASF31
C:\Users\stapi\AppData\Local\Temp\ccVyFSoM.s:2022   .debug_str:0000000000000048 .LASF32
C:\Users\stapi\AppData\Local\Temp\ccVyFSoM.s:2124   .debug_str:000000000000049e .LASF33
C:\Users\stapi\AppData\Local\Temp\ccVyFSoM.s:2030   .debug_str:0000000000000081 .LASF34
C:\Users\stapi\AppData\Local\Temp\ccVyFSoM.s:2058   .debug_str:00000000000001ba .LASF35
C:\Users\stapi\AppData\Local\Temp\ccVyFSoM.s:2078   .debug_str:00000000000002fe .LASF36
C:\Users\stapi\AppData\Local\Temp\ccVyFSoM.s:2110   .debug_str:00000000000003c0 .LASF37
C:\Users\stapi\AppData\Local\Temp\ccVyFSoM.s:2008   .debug_str:0000000000000000 .LASF38
C:\Users\stapi\AppData\Local\Temp\ccVyFSoM.s:2144   .debug_str:000000000000050a .LASF39
C:\Users\stapi\AppData\Local\Temp\ccVyFSoM.s:2172   .debug_str:00000000000005b9 .LASF40
C:\Users\stapi\AppData\Local\Temp\ccVyFSoM.s:2086   .debug_str:0000000000000327 .LASF41
C:\Users\stapi\AppData\Local\Temp\ccVyFSoM.s:2138   .debug_str:00000000000004e9 .LASF42
C:\Users\stapi\AppData\Local\Temp\ccVyFSoM.s:2132   .debug_str:00000000000004d0 .LASF43
C:\Users\stapi\AppData\Local\Temp\ccVyFSoM.s:2118   .debug_str:0000000000000477 .LASF44
C:\Users\stapi\AppData\Local\Temp\ccVyFSoM.s:2032   .debug_str:0000000000000093 .LASF45
C:\Users\stapi\AppData\Local\Temp\ccVyFSoM.s:2150   .debug_str:000000000000052d .LASF46
C:\Users\stapi\AppData\Local\Temp\ccVyFSoM.s:2042   .debug_str:00000000000000d5 .LASF47
C:\Users\stapi\AppData\Local\Temp\ccVyFSoM.s:2018   .debug_str:0000000000000030 .LASF48
C:\Users\stapi\AppData\Local\Temp\ccVyFSoM.s:2028   .debug_str:000000000000006f .LASF49
C:\Users\stapi\AppData\Local\Temp\ccVyFSoM.s:2134   .debug_str:00000000000004db .LASF50
C:\Users\stapi\AppData\Local\Temp\ccVyFSoM.s:2096   .debug_str:0000000000000360 .LASF51
C:\Users\stapi\AppData\Local\Temp\ccVyFSoM.s:2148   .debug_str:000000000000051b .LASF52
C:\Users\stapi\AppData\Local\Temp\ccVyFSoM.s:2142   .debug_str:0000000000000503 .LASF53
C:\Users\stapi\AppData\Local\Temp\ccVyFSoM.s:2112   .debug_str:00000000000003ce .LASF54
C:\Users\stapi\AppData\Local\Temp\ccVyFSoM.s:2156   .debug_str:000000000000055f .LASF55
C:\Users\stapi\AppData\Local\Temp\ccVyFSoM.s:2154   .debug_str:000000000000054d .LASF56
C:\Users\stapi\AppData\Local\Temp\ccVyFSoM.s:2088   .debug_str:0000000000000334 .LASF57
C:\Users\stapi\AppData\Local\Temp\ccVyFSoM.s:356    .text.ofc_Deinit:0000000000000000 .LFB22
C:\Users\stapi\AppData\Local\Temp\ccVyFSoM.s:384    .text.ofc_Deinit:0000000000000020 .LFE22
C:\Users\stapi\AppData\Local\Temp\ccVyFSoM.s:1785   .debug_loc:0000000000000000 .LLST11
C:\Users\stapi\AppData\Local\Temp\ccVyFSoM.s:369    .text.ofc_Deinit:0000000000000012 .LVL41
C:\Users\stapi\AppData\Local\Temp\ccVyFSoM.s:2160   .debug_str:0000000000000575 .LASF58
C:\Users\stapi\AppData\Local\Temp\ccVyFSoM.s:122    .text.ofc_Fetch:0000000000000000 .LFB21
C:\Users\stapi\AppData\Local\Temp\ccVyFSoM.s:349    .text.ofc_Fetch:000000000000015a .LFE21
C:\Users\stapi\AppData\Local\Temp\ccVyFSoM.s:1810   .debug_loc:000000000000003a .LLST1
C:\Users\stapi\AppData\Local\Temp\ccVyFSoM.s:1821   .debug_loc:0000000000000058 .LLST2
C:\Users\stapi\AppData\Local\Temp\ccVyFSoM.s:2130   .debug_str:00000000000004c8 .LASF59
C:\Users\stapi\AppData\Local\Temp\ccVyFSoM.s:1840   .debug_loc:0000000000000086 .LLST3
C:\Users\stapi\AppData\Local\Temp\ccVyFSoM.s:2170   .debug_str:00000000000005af .LASF60
C:\Users\stapi\AppData\Local\Temp\ccVyFSoM.s:1854   .debug_loc:00000000000000a7 .LLST4
C:\Users\stapi\AppData\Local\Temp\ccVyFSoM.s:2176   .debug_str:00000000000005d0 .LASF61
C:\Users\stapi\AppData\Local\Temp\ccVyFSoM.s:1865   .debug_loc:00000000000000c5 .LLST5
C:\Users\stapi\AppData\Local\Temp\ccVyFSoM.s:2074   .debug_str:00000000000002eb .LASF62
C:\Users\stapi\AppData\Local\Temp\ccVyFSoM.s:1889   .debug_loc:0000000000000100 .LLST6
C:\Users\stapi\AppData\Local\Temp\ccVyFSoM.s:2114   .debug_str:00000000000003d3 .LASF63
C:\Users\stapi\AppData\Local\Temp\ccVyFSoM.s:1900   .debug_loc:000000000000011e .LLST7
C:\Users\stapi\AppData\Local\Temp\ccVyFSoM.s:2016   .debug_str:0000000000000027 .LASF84
C:\Users\stapi\AppData\Local\Temp\ccVyFSoM.s:2072   .debug_str:00000000000002e2 .LASF64
C:\Users\stapi\AppData\Local\Temp\ccVyFSoM.s:1915   .debug_loc:0000000000000147 .LLST8
C:\Users\stapi\AppData\Local\Temp\ccVyFSoM.s:2012   .debug_str:0000000000000018 .LASF65
C:\Users\stapi\AppData\Local\Temp\ccVyFSoM.s:2024   .debug_str:0000000000000058 .LASF66
C:\Users\stapi\AppData\Local\Temp\ccVyFSoM.s:1940   .debug_loc:0000000000000181 .LLST9
C:\Users\stapi\AppData\Local\Temp\ccVyFSoM.s:1957   .debug_loc:00000000000001ac .LLST10
C:\Users\stapi\AppData\Local\Temp\ccVyFSoM.s:171    .text.ofc_Fetch:000000000000002e .LVL13
C:\Users\stapi\AppData\Local\Temp\ccVyFSoM.s:185    .text.ofc_Fetch:0000000000000040 .LVL15
C:\Users\stapi\AppData\Local\Temp\ccVyFSoM.s:193    .text.ofc_Fetch:0000000000000050 .LVL17
C:\Users\stapi\AppData\Local\Temp\ccVyFSoM.s:198    .text.ofc_Fetch:0000000000000060 .LVL18
C:\Users\stapi\AppData\Local\Temp\ccVyFSoM.s:230    .text.ofc_Fetch:000000000000007e .LVL21
C:\Users\stapi\AppData\Local\Temp\ccVyFSoM.s:243    .text.ofc_Fetch:0000000000000094 .LVL24
C:\Users\stapi\AppData\Local\Temp\ccVyFSoM.s:264    .text.ofc_Fetch:00000000000000b2 .LVL28
C:\Users\stapi\AppData\Local\Temp\ccVyFSoM.s:275    .text.ofc_Fetch:00000000000000c4 .LVL30
C:\Users\stapi\AppData\Local\Temp\ccVyFSoM.s:283    .text.ofc_Fetch:00000000000000d6 .LVL32
C:\Users\stapi\AppData\Local\Temp\ccVyFSoM.s:289    .text.ofc_Fetch:00000000000000e8 .LVL33
C:\Users\stapi\AppData\Local\Temp\ccVyFSoM.s:294    .text.ofc_Fetch:00000000000000f8 .LVL34
C:\Users\stapi\AppData\Local\Temp\ccVyFSoM.s:300    .text.ofc_Fetch:0000000000000100 .LVL35
C:\Users\stapi\AppData\Local\Temp\ccVyFSoM.s:326    .text.ofc_Fetch:0000000000000132 .LVL38
C:\Users\stapi\AppData\Local\Temp\ccVyFSoM.s:334    .text.ofc_Fetch:0000000000000144 .LVL39
C:\Users\stapi\AppData\Local\Temp\ccVyFSoM.s:2174   .debug_str:00000000000005c7 .LASF67
C:\Users\stapi\AppData\Local\Temp\ccVyFSoM.s:27     .text.ofc_Init:0000000000000000 .LFB20
C:\Users\stapi\AppData\Local\Temp\ccVyFSoM.s:99     .text.ofc_Init:0000000000000076 .LFE20
C:\Users\stapi\AppData\Local\Temp\ccVyFSoM.s:1968   .debug_loc:00000000000001ca .LLST0
C:\Users\stapi\AppData\Local\Temp\ccVyFSoM.s:47     .text.ofc_Init:000000000000001a .LVL2
C:\Users\stapi\AppData\Local\Temp\ccVyFSoM.s:57     .text.ofc_Init:000000000000002e .LVL4
C:\Users\stapi\AppData\Local\Temp\ccVyFSoM.s:62     .text.ofc_Init:000000000000003e .LVL5
C:\Users\stapi\AppData\Local\Temp\ccVyFSoM.s:67     .text.ofc_Init:000000000000004e .LVL6
C:\Users\stapi\AppData\Local\Temp\ccVyFSoM.s:86     .text.ofc_Init:0000000000000068 .LVL7
C:\Users\stapi\AppData\Local\Temp\ccVyFSoM.s:2164   .debug_str:0000000000000586 .LASF68
C:\Users\stapi\AppData\Local\Temp\ccVyFSoM.s:2162   .debug_str:000000000000057f .LASF69
C:\Users\stapi\AppData\Local\Temp\ccVyFSoM.s:2168   .debug_str:00000000000005a4 .LASF70
C:\Users\stapi\AppData\Local\Temp\ccVyFSoM.s:2094   .debug_str:0000000000000359 .LASF71
C:\Users\stapi\AppData\Local\Temp\ccVyFSoM.s:2040   .debug_str:00000000000000ce .LASF76
C:\Users\stapi\AppData\Local\Temp\ccVyFSoM.s:2010   .debug_str:0000000000000007 .LASF78
C:\Users\stapi\AppData\Local\Temp\ccVyFSoM.s:2082   .debug_str:0000000000000319 .LASF72
C:\Users\stapi\AppData\Local\Temp\ccVyFSoM.s:2092   .debug_str:000000000000034d .LASF73
C:\Users\stapi\AppData\Local\Temp\ccVyFSoM.s:2054   .debug_str:0000000000000117 .LASF74
C:\Users\stapi\AppData\Local\Temp\ccVyFSoM.s:2120   .debug_str:0000000000000484 .LASF75
C:\Users\stapi\AppData\Local\Temp\ccVyFSoM.s:2068   .debug_str:00000000000002d2 .LASF77
C:\Users\stapi\AppData\Local\Temp\ccVyFSoM.s:2046   .debug_str:00000000000000e9 .LASF79
C:\Users\stapi\AppData\Local\Temp\ccVyFSoM.s:359    .text.ofc_Deinit:0000000000000000 .LVL40
C:\Users\stapi\AppData\Local\Temp\ccVyFSoM.s:376    .text.ofc_Deinit:000000000000001c .LVL42
C:\Users\stapi\AppData\Local\Temp\ccVyFSoM.s:381    .text.ofc_Deinit:000000000000001e .LVL43
C:\Users\stapi\AppData\Local\Temp\ccVyFSoM.s:125    .text.ofc_Fetch:0000000000000000 .LVL8
C:\Users\stapi\AppData\Local\Temp\ccVyFSoM.s:152    .text.ofc_Fetch:0000000000000014 .LVL10
C:\Users\stapi\AppData\Local\Temp\ccVyFSoM.s:155    .text.ofc_Fetch:0000000000000018 .LVL11
C:\Users\stapi\AppData\Local\Temp\ccVyFSoM.s:137    .text.ofc_Fetch:0000000000000008 .LVL9
C:\Users\stapi\AppData\Local\Temp\ccVyFSoM.s:161    .text.ofc_Fetch:000000000000001e .LVL12
C:\Users\stapi\AppData\Local\Temp\ccVyFSoM.s:189    .text.ofc_Fetch:0000000000000048 .LVL16
C:\Users\stapi\AppData\Local\Temp\ccVyFSoM.s:217    .text.ofc_Fetch:000000000000006c .LVL19
C:\Users\stapi\AppData\Local\Temp\ccVyFSoM.s:277    .text.ofc_Fetch:00000000000000c6 .LVL31
C:\Users\stapi\AppData\Local\Temp\ccVyFSoM.s:182    .text.ofc_Fetch:0000000000000034 .LVL14
C:\Users\stapi\AppData\Local\Temp\ccVyFSoM.s:223    .text.ofc_Fetch:0000000000000070 .LVL20
C:\Users\stapi\AppData\Local\Temp\ccVyFSoM.s:232    .text.ofc_Fetch:0000000000000080 .LVL22
C:\Users\stapi\AppData\Local\Temp\ccVyFSoM.s:241    .text.ofc_Fetch:000000000000008c .LVL23
C:\Users\stapi\AppData\Local\Temp\ccVyFSoM.s:246    .text.ofc_Fetch:0000000000000098 .LVL25
C:\Users\stapi\AppData\Local\Temp\ccVyFSoM.s:256    .text.ofc_Fetch:00000000000000a4 .LVL26
C:\Users\stapi\AppData\Local\Temp\ccVyFSoM.s:269    .text.ofc_Fetch:00000000000000b6 .LVL29
C:\Users\stapi\AppData\Local\Temp\ccVyFSoM.s:305    .text.ofc_Fetch:0000000000000106 .LVL36
C:\Users\stapi\AppData\Local\Temp\ccVyFSoM.s:315    .text.ofc_Fetch:0000000000000114 .LVL37
C:\Users\stapi\AppData\Local\Temp\ccVyFSoM.s:31     .text.ofc_Init:0000000000000000 .LVL0
C:\Users\stapi\AppData\Local\Temp\ccVyFSoM.s:45     .text.ofc_Init:0000000000000012 .LVL1
C:\Users\stapi\AppData\Local\Temp\ccVyFSoM.s:398    .debug_info:0000000000000000 .Ldebug_info0

UNDEFINED SYMBOLS
__riscv_save_2
LITE_malloc_internal
HAL_Printf
__riscv_restore_2
memset
__riscv_save_6
strstr
__riscv_restore_6
strchr
memcpy
atoi
iotx_ca_get
httpclient_common
__riscv_save_0
LITE_free_internal
__riscv_restore_0
