   1              		.file	"ble_datatrans_srv.c"
   2              		.option nopic
   3              		.attribute arch, "rv32i2p0_m2p0_a2p0_f2p0_c2p0_b_p0p94"
   4              		.attribute unaligned_access, 0
   5              		.attribute stack_align, 16
   6              		.text
   7              	.Ltext0:
   8              		.cfi_sections	.debug_frame
   9              		.section	.rodata.ble_datatrans_srv_cb.str1.4,"aMS",@progbits,1
  10              		.align	2
  11              	.LC0:
  12 0000 5B626C65 		.string	"[ble_datatrans_srv_cb], svc_add_rsp status = 0x%x\r\n"
  12      5F646174 
  12      61747261 
  12      6E735F73 
  12      72765F63 
  13              		.align	2
  14              	.LC1:
  15 0034 5B626C65 		.string	"[ble_datatrans_srv_cb], svc_rmv_rsp status = 0x%x\r\n"
  15      5F646174 
  15      61747261 
  15      6E735F73 
  15      72765F63 
  16              		.align	2
  17              	.LC2:
  18 0068 5B626C65 		.string	"[ble_datatrans_srv_cb], write CCCD to 0x%x\r\n"
  18      5F646174 
  18      61747261 
  18      6E735F73 
  18      72765F63 
  19              		.section	.text.ble_datatrans_srv_cb,"ax",@progbits
  20              		.align	1
  21              		.globl	ble_datatrans_srv_cb
  23              	ble_datatrans_srv_cb:
  24              	.LFB19:
  25              		.file 1 "C:/Users/stapi/OneDrive/Desktop/GD32VW553/GD32VW55X_Wifi_BLE_SDK/GD32VW55x_RELEASE_V1.0.2
   1:C:/Users/stapi/OneDrive/Desktop/GD32VW553/GD32VW55X_Wifi_BLE_SDK/GD32VW55x_RELEASE_V1.0.2/MSDK/ble/profile/datatrans\ble_datatrans_srv.c **** /*!
   2:C:/Users/stapi/OneDrive/Desktop/GD32VW553/GD32VW55X_Wifi_BLE_SDK/GD32VW55x_RELEASE_V1.0.2/MSDK/ble/profile/datatrans\ble_datatrans_srv.c ****     \file    ble_datatrans_srv.c
   3:C:/Users/stapi/OneDrive/Desktop/GD32VW553/GD32VW55X_Wifi_BLE_SDK/GD32VW55x_RELEASE_V1.0.2/MSDK/ble/profile/datatrans\ble_datatrans_srv.c ****     \brief   Implementations of ble datatrans server
   4:C:/Users/stapi/OneDrive/Desktop/GD32VW553/GD32VW55X_Wifi_BLE_SDK/GD32VW55x_RELEASE_V1.0.2/MSDK/ble/profile/datatrans\ble_datatrans_srv.c **** 
   5:C:/Users/stapi/OneDrive/Desktop/GD32VW553/GD32VW55X_Wifi_BLE_SDK/GD32VW55x_RELEASE_V1.0.2/MSDK/ble/profile/datatrans\ble_datatrans_srv.c ****     \version 2023-07-20, V1.0.0, firmware for GD32VW55x
   6:C:/Users/stapi/OneDrive/Desktop/GD32VW553/GD32VW55X_Wifi_BLE_SDK/GD32VW55x_RELEASE_V1.0.2/MSDK/ble/profile/datatrans\ble_datatrans_srv.c **** */
   7:C:/Users/stapi/OneDrive/Desktop/GD32VW553/GD32VW55X_Wifi_BLE_SDK/GD32VW55x_RELEASE_V1.0.2/MSDK/ble/profile/datatrans\ble_datatrans_srv.c **** 
   8:C:/Users/stapi/OneDrive/Desktop/GD32VW553/GD32VW55X_Wifi_BLE_SDK/GD32VW55x_RELEASE_V1.0.2/MSDK/ble/profile/datatrans\ble_datatrans_srv.c **** /*
   9:C:/Users/stapi/OneDrive/Desktop/GD32VW553/GD32VW55X_Wifi_BLE_SDK/GD32VW55x_RELEASE_V1.0.2/MSDK/ble/profile/datatrans\ble_datatrans_srv.c ****     Copyright (c) 2023, GigaDevice Semiconductor Inc.
  10:C:/Users/stapi/OneDrive/Desktop/GD32VW553/GD32VW55X_Wifi_BLE_SDK/GD32VW55x_RELEASE_V1.0.2/MSDK/ble/profile/datatrans\ble_datatrans_srv.c **** 
  11:C:/Users/stapi/OneDrive/Desktop/GD32VW553/GD32VW55X_Wifi_BLE_SDK/GD32VW55x_RELEASE_V1.0.2/MSDK/ble/profile/datatrans\ble_datatrans_srv.c ****     Redistribution and use in source and binary forms, with or without modification,
  12:C:/Users/stapi/OneDrive/Desktop/GD32VW553/GD32VW55X_Wifi_BLE_SDK/GD32VW55x_RELEASE_V1.0.2/MSDK/ble/profile/datatrans\ble_datatrans_srv.c **** are permitted provided that the following conditions are met:
  13:C:/Users/stapi/OneDrive/Desktop/GD32VW553/GD32VW55X_Wifi_BLE_SDK/GD32VW55x_RELEASE_V1.0.2/MSDK/ble/profile/datatrans\ble_datatrans_srv.c **** 
  14:C:/Users/stapi/OneDrive/Desktop/GD32VW553/GD32VW55X_Wifi_BLE_SDK/GD32VW55x_RELEASE_V1.0.2/MSDK/ble/profile/datatrans\ble_datatrans_srv.c ****     1. Redistributions of source code must retain the above copyright notice, this
  15:C:/Users/stapi/OneDrive/Desktop/GD32VW553/GD32VW55X_Wifi_BLE_SDK/GD32VW55x_RELEASE_V1.0.2/MSDK/ble/profile/datatrans\ble_datatrans_srv.c ****        list of conditions and the following disclaimer.
  16:C:/Users/stapi/OneDrive/Desktop/GD32VW553/GD32VW55X_Wifi_BLE_SDK/GD32VW55x_RELEASE_V1.0.2/MSDK/ble/profile/datatrans\ble_datatrans_srv.c ****     2. Redistributions in binary form must reproduce the above copyright notice,
  17:C:/Users/stapi/OneDrive/Desktop/GD32VW553/GD32VW55X_Wifi_BLE_SDK/GD32VW55x_RELEASE_V1.0.2/MSDK/ble/profile/datatrans\ble_datatrans_srv.c ****        this list of conditions and the following disclaimer in the documentation
  18:C:/Users/stapi/OneDrive/Desktop/GD32VW553/GD32VW55X_Wifi_BLE_SDK/GD32VW55x_RELEASE_V1.0.2/MSDK/ble/profile/datatrans\ble_datatrans_srv.c ****        and/or other materials provided with the distribution.
  19:C:/Users/stapi/OneDrive/Desktop/GD32VW553/GD32VW55X_Wifi_BLE_SDK/GD32VW55x_RELEASE_V1.0.2/MSDK/ble/profile/datatrans\ble_datatrans_srv.c ****     3. Neither the name of the copyright holder nor the names of its contributors
  20:C:/Users/stapi/OneDrive/Desktop/GD32VW553/GD32VW55X_Wifi_BLE_SDK/GD32VW55x_RELEASE_V1.0.2/MSDK/ble/profile/datatrans\ble_datatrans_srv.c ****        may be used to endorse or promote products derived from this software without
  21:C:/Users/stapi/OneDrive/Desktop/GD32VW553/GD32VW55X_Wifi_BLE_SDK/GD32VW55x_RELEASE_V1.0.2/MSDK/ble/profile/datatrans\ble_datatrans_srv.c ****        specific prior written permission.
  22:C:/Users/stapi/OneDrive/Desktop/GD32VW553/GD32VW55X_Wifi_BLE_SDK/GD32VW55x_RELEASE_V1.0.2/MSDK/ble/profile/datatrans\ble_datatrans_srv.c **** 
  23:C:/Users/stapi/OneDrive/Desktop/GD32VW553/GD32VW55X_Wifi_BLE_SDK/GD32VW55x_RELEASE_V1.0.2/MSDK/ble/profile/datatrans\ble_datatrans_srv.c ****     THIS SOFTWARE IS PROVIDED BY THE COPYRIGHT HOLDERS AND CONTRIBUTORS "AS IS"
  24:C:/Users/stapi/OneDrive/Desktop/GD32VW553/GD32VW55X_Wifi_BLE_SDK/GD32VW55x_RELEASE_V1.0.2/MSDK/ble/profile/datatrans\ble_datatrans_srv.c **** AND ANY EXPRESS OR IMPLIED WARRANTIES, INCLUDING, BUT NOT LIMITED TO, THE IMPLIED
  25:C:/Users/stapi/OneDrive/Desktop/GD32VW553/GD32VW55X_Wifi_BLE_SDK/GD32VW55x_RELEASE_V1.0.2/MSDK/ble/profile/datatrans\ble_datatrans_srv.c **** WARRANTIES OF MERCHANTABILITY AND FITNESS FOR A PARTICULAR PURPOSE ARE DISCLAIMED.
  26:C:/Users/stapi/OneDrive/Desktop/GD32VW553/GD32VW55X_Wifi_BLE_SDK/GD32VW55x_RELEASE_V1.0.2/MSDK/ble/profile/datatrans\ble_datatrans_srv.c **** IN NO EVENT SHALL THE COPYRIGHT HOLDER OR CONTRIBUTORS BE LIABLE FOR ANY DIRECT,
  27:C:/Users/stapi/OneDrive/Desktop/GD32VW553/GD32VW55X_Wifi_BLE_SDK/GD32VW55x_RELEASE_V1.0.2/MSDK/ble/profile/datatrans\ble_datatrans_srv.c **** INDIRECT, INCIDENTAL, SPECIAL, EXEMPLARY, OR CONSEQUENTIAL DAMAGES (INCLUDING, BUT
  28:C:/Users/stapi/OneDrive/Desktop/GD32VW553/GD32VW55X_Wifi_BLE_SDK/GD32VW55x_RELEASE_V1.0.2/MSDK/ble/profile/datatrans\ble_datatrans_srv.c **** NOT LIMITED TO, PROCUREMENT OF SUBSTITUTE GOODS OR SERVICES; LOSS OF USE, DATA, OR
  29:C:/Users/stapi/OneDrive/Desktop/GD32VW553/GD32VW55X_Wifi_BLE_SDK/GD32VW55x_RELEASE_V1.0.2/MSDK/ble/profile/datatrans\ble_datatrans_srv.c **** PROFITS; OR BUSINESS INTERRUPTION) HOWEVER CAUSED AND ON ANY THEORY OF LIABILITY,
  30:C:/Users/stapi/OneDrive/Desktop/GD32VW553/GD32VW55X_Wifi_BLE_SDK/GD32VW55x_RELEASE_V1.0.2/MSDK/ble/profile/datatrans\ble_datatrans_srv.c **** WHETHER IN CONTRACT, STRICT LIABILITY, OR TORT (INCLUDING NEGLIGENCE OR OTHERWISE)
  31:C:/Users/stapi/OneDrive/Desktop/GD32VW553/GD32VW55X_Wifi_BLE_SDK/GD32VW55x_RELEASE_V1.0.2/MSDK/ble/profile/datatrans\ble_datatrans_srv.c **** ARISING IN ANY WAY OUT OF THE USE OF THIS SOFTWARE, EVEN IF ADVISED OF THE POSSIBILITY
  32:C:/Users/stapi/OneDrive/Desktop/GD32VW553/GD32VW55X_Wifi_BLE_SDK/GD32VW55x_RELEASE_V1.0.2/MSDK/ble/profile/datatrans\ble_datatrans_srv.c **** OF SUCH DAMAGE.
  33:C:/Users/stapi/OneDrive/Desktop/GD32VW553/GD32VW55X_Wifi_BLE_SDK/GD32VW55x_RELEASE_V1.0.2/MSDK/ble/profile/datatrans\ble_datatrans_srv.c **** */
  34:C:/Users/stapi/OneDrive/Desktop/GD32VW553/GD32VW55X_Wifi_BLE_SDK/GD32VW55x_RELEASE_V1.0.2/MSDK/ble/profile/datatrans\ble_datatrans_srv.c **** 
  35:C:/Users/stapi/OneDrive/Desktop/GD32VW553/GD32VW55X_Wifi_BLE_SDK/GD32VW55x_RELEASE_V1.0.2/MSDK/ble/profile/datatrans\ble_datatrans_srv.c **** #include <string.h>
  36:C:/Users/stapi/OneDrive/Desktop/GD32VW553/GD32VW55X_Wifi_BLE_SDK/GD32VW55x_RELEASE_V1.0.2/MSDK/ble/profile/datatrans\ble_datatrans_srv.c **** #include "ble_datatrans_srv.h"
  37:C:/Users/stapi/OneDrive/Desktop/GD32VW553/GD32VW55X_Wifi_BLE_SDK/GD32VW55x_RELEASE_V1.0.2/MSDK/ble/profile/datatrans\ble_datatrans_srv.c **** #include "ble_gap.h"
  38:C:/Users/stapi/OneDrive/Desktop/GD32VW553/GD32VW55X_Wifi_BLE_SDK/GD32VW55x_RELEASE_V1.0.2/MSDK/ble/profile/datatrans\ble_datatrans_srv.c **** #include "ble_gatt.h"
  39:C:/Users/stapi/OneDrive/Desktop/GD32VW553/GD32VW55X_Wifi_BLE_SDK/GD32VW55x_RELEASE_V1.0.2/MSDK/ble/profile/datatrans\ble_datatrans_srv.c **** #include "ble_gatts.h"
  40:C:/Users/stapi/OneDrive/Desktop/GD32VW553/GD32VW55X_Wifi_BLE_SDK/GD32VW55x_RELEASE_V1.0.2/MSDK/ble/profile/datatrans\ble_datatrans_srv.c **** #include "ble_error.h"
  41:C:/Users/stapi/OneDrive/Desktop/GD32VW553/GD32VW55X_Wifi_BLE_SDK/GD32VW55x_RELEASE_V1.0.2/MSDK/ble/profile/datatrans\ble_datatrans_srv.c **** #include "dbg_print.h"
  42:C:/Users/stapi/OneDrive/Desktop/GD32VW553/GD32VW55X_Wifi_BLE_SDK/GD32VW55x_RELEASE_V1.0.2/MSDK/ble/profile/datatrans\ble_datatrans_srv.c **** #include "ble_utils.h"
  43:C:/Users/stapi/OneDrive/Desktop/GD32VW553/GD32VW55X_Wifi_BLE_SDK/GD32VW55x_RELEASE_V1.0.2/MSDK/ble/profile/datatrans\ble_datatrans_srv.c **** #include "wrapper_os.h"
  44:C:/Users/stapi/OneDrive/Desktop/GD32VW553/GD32VW55X_Wifi_BLE_SDK/GD32VW55x_RELEASE_V1.0.2/MSDK/ble/profile/datatrans\ble_datatrans_srv.c **** 
  45:C:/Users/stapi/OneDrive/Desktop/GD32VW553/GD32VW55X_Wifi_BLE_SDK/GD32VW55x_RELEASE_V1.0.2/MSDK/ble/profile/datatrans\ble_datatrans_srv.c **** /* Max length that BLE datatrans server Characteristic value can be written */
  46:C:/Users/stapi/OneDrive/Desktop/GD32VW553/GD32VW55X_Wifi_BLE_SDK/GD32VW55x_RELEASE_V1.0.2/MSDK/ble/profile/datatrans\ble_datatrans_srv.c **** #define BLE_DATATRANS_SRV_WRITE_MAX_LEN         512
  47:C:/Users/stapi/OneDrive/Desktop/GD32VW553/GD32VW55X_Wifi_BLE_SDK/GD32VW55x_RELEASE_V1.0.2/MSDK/ble/profile/datatrans\ble_datatrans_srv.c **** 
  48:C:/Users/stapi/OneDrive/Desktop/GD32VW553/GD32VW55X_Wifi_BLE_SDK/GD32VW55x_RELEASE_V1.0.2/MSDK/ble/profile/datatrans\ble_datatrans_srv.c **** /* BLE datatrans server data receive callback function */
  49:C:/Users/stapi/OneDrive/Desktop/GD32VW553/GD32VW55X_Wifi_BLE_SDK/GD32VW55x_RELEASE_V1.0.2/MSDK/ble/profile/datatrans\ble_datatrans_srv.c **** static ble_datatrans_srv_rx_cb datatrans_srv_rx_cb = NULL;
  50:C:/Users/stapi/OneDrive/Desktop/GD32VW553/GD32VW55X_Wifi_BLE_SDK/GD32VW55x_RELEASE_V1.0.2/MSDK/ble/profile/datatrans\ble_datatrans_srv.c **** 
  51:C:/Users/stapi/OneDrive/Desktop/GD32VW553/GD32VW55X_Wifi_BLE_SDK/GD32VW55x_RELEASE_V1.0.2/MSDK/ble/profile/datatrans\ble_datatrans_srv.c **** /* BLE datatrans server attribute database handle list */
  52:C:/Users/stapi/OneDrive/Desktop/GD32VW553/GD32VW55X_Wifi_BLE_SDK/GD32VW55x_RELEASE_V1.0.2/MSDK/ble/profile/datatrans\ble_datatrans_srv.c **** enum ble_datatrans_srv_att_idx
  53:C:/Users/stapi/OneDrive/Desktop/GD32VW553/GD32VW55X_Wifi_BLE_SDK/GD32VW55x_RELEASE_V1.0.2/MSDK/ble/profile/datatrans\ble_datatrans_srv.c **** {
  54:C:/Users/stapi/OneDrive/Desktop/GD32VW553/GD32VW55X_Wifi_BLE_SDK/GD32VW55x_RELEASE_V1.0.2/MSDK/ble/profile/datatrans\ble_datatrans_srv.c ****     BLE_DATATRANS_SRV_IDX_SVC,                  /*!< BLE Datatrans Server Service Declaration */
  55:C:/Users/stapi/OneDrive/Desktop/GD32VW553/GD32VW55X_Wifi_BLE_SDK/GD32VW55x_RELEASE_V1.0.2/MSDK/ble/profile/datatrans\ble_datatrans_srv.c ****     BLE_DATATRANS_SRV_IDX_RX_HANDLE_CHAR,       /*!< RX Characteristic Declaration */
  56:C:/Users/stapi/OneDrive/Desktop/GD32VW553/GD32VW55X_Wifi_BLE_SDK/GD32VW55x_RELEASE_V1.0.2/MSDK/ble/profile/datatrans\ble_datatrans_srv.c ****     BLE_DATATRANS_SRV_IDX_RX_HANDLE_VAL,        /*!< RX Characteristic value */
  57:C:/Users/stapi/OneDrive/Desktop/GD32VW553/GD32VW55X_Wifi_BLE_SDK/GD32VW55x_RELEASE_V1.0.2/MSDK/ble/profile/datatrans\ble_datatrans_srv.c ****     BLE_DATATRANS_SRV_IDX_TX_HANDLE_CHAR,       /*!< TX Characteristic Declaration */
  58:C:/Users/stapi/OneDrive/Desktop/GD32VW553/GD32VW55X_Wifi_BLE_SDK/GD32VW55x_RELEASE_V1.0.2/MSDK/ble/profile/datatrans\ble_datatrans_srv.c ****     BLE_DATATRANS_SRV_IDX_TX_HANDLE_VAL,        /*!< TX Characteristic value */
  59:C:/Users/stapi/OneDrive/Desktop/GD32VW553/GD32VW55X_Wifi_BLE_SDK/GD32VW55x_RELEASE_V1.0.2/MSDK/ble/profile/datatrans\ble_datatrans_srv.c ****     BLE_DATATRANS_SRV_IDX_TX_HANDLE_CCCD_CFG,   /*!< TX Characteristic cccd */
  60:C:/Users/stapi/OneDrive/Desktop/GD32VW553/GD32VW55X_Wifi_BLE_SDK/GD32VW55x_RELEASE_V1.0.2/MSDK/ble/profile/datatrans\ble_datatrans_srv.c ****     BLE_DATATRANS_SRV_IDX_NB,
  61:C:/Users/stapi/OneDrive/Desktop/GD32VW553/GD32VW55X_Wifi_BLE_SDK/GD32VW55x_RELEASE_V1.0.2/MSDK/ble/profile/datatrans\ble_datatrans_srv.c **** };
  62:C:/Users/stapi/OneDrive/Desktop/GD32VW553/GD32VW55X_Wifi_BLE_SDK/GD32VW55x_RELEASE_V1.0.2/MSDK/ble/profile/datatrans\ble_datatrans_srv.c **** 
  63:C:/Users/stapi/OneDrive/Desktop/GD32VW553/GD32VW55X_Wifi_BLE_SDK/GD32VW55x_RELEASE_V1.0.2/MSDK/ble/profile/datatrans\ble_datatrans_srv.c **** /* BLE datatrans server service ID assigned by GATT server module */
  64:C:/Users/stapi/OneDrive/Desktop/GD32VW553/GD32VW55X_Wifi_BLE_SDK/GD32VW55x_RELEASE_V1.0.2/MSDK/ble/profile/datatrans\ble_datatrans_srv.c **** static uint8_t svc_id;
  65:C:/Users/stapi/OneDrive/Desktop/GD32VW553/GD32VW55X_Wifi_BLE_SDK/GD32VW55x_RELEASE_V1.0.2/MSDK/ble/profile/datatrans\ble_datatrans_srv.c **** 
  66:C:/Users/stapi/OneDrive/Desktop/GD32VW553/GD32VW55X_Wifi_BLE_SDK/GD32VW55x_RELEASE_V1.0.2/MSDK/ble/profile/datatrans\ble_datatrans_srv.c **** /* BLE datatrans server service UUID array */
  67:C:/Users/stapi/OneDrive/Desktop/GD32VW553/GD32VW55X_Wifi_BLE_SDK/GD32VW55x_RELEASE_V1.0.2/MSDK/ble/profile/datatrans\ble_datatrans_srv.c **** const uint8_t ble_datatrans_srv_svc_uuid[BLE_GATT_UUID_16_LEN] = UUID_16BIT_TO_ARRAY(BLE_GATT_SVC_D
  68:C:/Users/stapi/OneDrive/Desktop/GD32VW553/GD32VW55X_Wifi_BLE_SDK/GD32VW55x_RELEASE_V1.0.2/MSDK/ble/profile/datatrans\ble_datatrans_srv.c **** 
  69:C:/Users/stapi/OneDrive/Desktop/GD32VW553/GD32VW55X_Wifi_BLE_SDK/GD32VW55x_RELEASE_V1.0.2/MSDK/ble/profile/datatrans\ble_datatrans_srv.c **** /* BLE datatrans server service Database Description */
  70:C:/Users/stapi/OneDrive/Desktop/GD32VW553/GD32VW55X_Wifi_BLE_SDK/GD32VW55x_RELEASE_V1.0.2/MSDK/ble/profile/datatrans\ble_datatrans_srv.c **** const ble_gatt_attr_desc_t ble_datatrans_srv_att_db[BLE_DATATRANS_SRV_IDX_NB] = {
  71:C:/Users/stapi/OneDrive/Desktop/GD32VW553/GD32VW55X_Wifi_BLE_SDK/GD32VW55x_RELEASE_V1.0.2/MSDK/ble/profile/datatrans\ble_datatrans_srv.c **** 
  72:C:/Users/stapi/OneDrive/Desktop/GD32VW553/GD32VW55X_Wifi_BLE_SDK/GD32VW55x_RELEASE_V1.0.2/MSDK/ble/profile/datatrans\ble_datatrans_srv.c ****     [BLE_DATATRANS_SRV_IDX_SVC]                 = { UUID_16BIT_TO_ARRAY(BLE_GATT_DECL_PRIMARY_SERVI
  73:C:/Users/stapi/OneDrive/Desktop/GD32VW553/GD32VW55X_Wifi_BLE_SDK/GD32VW55x_RELEASE_V1.0.2/MSDK/ble/profile/datatrans\ble_datatrans_srv.c **** 
  74:C:/Users/stapi/OneDrive/Desktop/GD32VW553/GD32VW55X_Wifi_BLE_SDK/GD32VW55x_RELEASE_V1.0.2/MSDK/ble/profile/datatrans\ble_datatrans_srv.c ****     [BLE_DATATRANS_SRV_IDX_RX_HANDLE_CHAR]      = { UUID_16BIT_TO_ARRAY(BLE_GATT_DECL_CHARACTERISTI
  75:C:/Users/stapi/OneDrive/Desktop/GD32VW553/GD32VW55X_Wifi_BLE_SDK/GD32VW55x_RELEASE_V1.0.2/MSDK/ble/profile/datatrans\ble_datatrans_srv.c **** 
  76:C:/Users/stapi/OneDrive/Desktop/GD32VW553/GD32VW55X_Wifi_BLE_SDK/GD32VW55x_RELEASE_V1.0.2/MSDK/ble/profile/datatrans\ble_datatrans_srv.c ****     [BLE_DATATRANS_SRV_IDX_RX_HANDLE_VAL]       = { UUID_16BIT_TO_ARRAY(BLE_GATT_SVC_DATATRANS_RX_C
  77:C:/Users/stapi/OneDrive/Desktop/GD32VW553/GD32VW55X_Wifi_BLE_SDK/GD32VW55x_RELEASE_V1.0.2/MSDK/ble/profile/datatrans\ble_datatrans_srv.c **** 
  78:C:/Users/stapi/OneDrive/Desktop/GD32VW553/GD32VW55X_Wifi_BLE_SDK/GD32VW55x_RELEASE_V1.0.2/MSDK/ble/profile/datatrans\ble_datatrans_srv.c ****     [BLE_DATATRANS_SRV_IDX_TX_HANDLE_CHAR]      = { UUID_16BIT_TO_ARRAY(BLE_GATT_DECL_CHARACTERISTI
  79:C:/Users/stapi/OneDrive/Desktop/GD32VW553/GD32VW55X_Wifi_BLE_SDK/GD32VW55x_RELEASE_V1.0.2/MSDK/ble/profile/datatrans\ble_datatrans_srv.c **** 
  80:C:/Users/stapi/OneDrive/Desktop/GD32VW553/GD32VW55X_Wifi_BLE_SDK/GD32VW55x_RELEASE_V1.0.2/MSDK/ble/profile/datatrans\ble_datatrans_srv.c ****     [BLE_DATATRANS_SRV_IDX_TX_HANDLE_VAL]       = { UUID_16BIT_TO_ARRAY(BLE_GATT_SVC_DATATRANS_TX_C
  81:C:/Users/stapi/OneDrive/Desktop/GD32VW553/GD32VW55X_Wifi_BLE_SDK/GD32VW55x_RELEASE_V1.0.2/MSDK/ble/profile/datatrans\ble_datatrans_srv.c **** 
  82:C:/Users/stapi/OneDrive/Desktop/GD32VW553/GD32VW55X_Wifi_BLE_SDK/GD32VW55x_RELEASE_V1.0.2/MSDK/ble/profile/datatrans\ble_datatrans_srv.c ****     [BLE_DATATRANS_SRV_IDX_TX_HANDLE_CCCD_CFG]  = { UUID_16BIT_TO_ARRAY(BLE_GATT_DESC_CLIENT_CHAR_C
  83:C:/Users/stapi/OneDrive/Desktop/GD32VW553/GD32VW55X_Wifi_BLE_SDK/GD32VW55x_RELEASE_V1.0.2/MSDK/ble/profile/datatrans\ble_datatrans_srv.c **** 
  84:C:/Users/stapi/OneDrive/Desktop/GD32VW553/GD32VW55X_Wifi_BLE_SDK/GD32VW55x_RELEASE_V1.0.2/MSDK/ble/profile/datatrans\ble_datatrans_srv.c **** };
  85:C:/Users/stapi/OneDrive/Desktop/GD32VW553/GD32VW55X_Wifi_BLE_SDK/GD32VW55x_RELEASE_V1.0.2/MSDK/ble/profile/datatrans\ble_datatrans_srv.c **** 
  86:C:/Users/stapi/OneDrive/Desktop/GD32VW553/GD32VW55X_Wifi_BLE_SDK/GD32VW55x_RELEASE_V1.0.2/MSDK/ble/profile/datatrans\ble_datatrans_srv.c **** /*!
  87:C:/Users/stapi/OneDrive/Desktop/GD32VW553/GD32VW55X_Wifi_BLE_SDK/GD32VW55x_RELEASE_V1.0.2/MSDK/ble/profile/datatrans\ble_datatrans_srv.c ****     \brief      Callback function to handle GATT server messages
  88:C:/Users/stapi/OneDrive/Desktop/GD32VW553/GD32VW55X_Wifi_BLE_SDK/GD32VW55x_RELEASE_V1.0.2/MSDK/ble/profile/datatrans\ble_datatrans_srv.c ****     \param[in]  p_srv_msg_info: pointer to GATT server message information
  89:C:/Users/stapi/OneDrive/Desktop/GD32VW553/GD32VW55X_Wifi_BLE_SDK/GD32VW55x_RELEASE_V1.0.2/MSDK/ble/profile/datatrans\ble_datatrans_srv.c ****     \param[out] none
  90:C:/Users/stapi/OneDrive/Desktop/GD32VW553/GD32VW55X_Wifi_BLE_SDK/GD32VW55x_RELEASE_V1.0.2/MSDK/ble/profile/datatrans\ble_datatrans_srv.c ****     \retval     ble_status_t: BLE_ERR_NO_ERROR on success, otherwise an error code
  91:C:/Users/stapi/OneDrive/Desktop/GD32VW553/GD32VW55X_Wifi_BLE_SDK/GD32VW55x_RELEASE_V1.0.2/MSDK/ble/profile/datatrans\ble_datatrans_srv.c **** */
  92:C:/Users/stapi/OneDrive/Desktop/GD32VW553/GD32VW55X_Wifi_BLE_SDK/GD32VW55x_RELEASE_V1.0.2/MSDK/ble/profile/datatrans\ble_datatrans_srv.c **** ble_status_t ble_datatrans_srv_cb(ble_gatts_msg_info_t *p_srv_msg_info)
  93:C:/Users/stapi/OneDrive/Desktop/GD32VW553/GD32VW55X_Wifi_BLE_SDK/GD32VW55x_RELEASE_V1.0.2/MSDK/ble/profile/datatrans\ble_datatrans_srv.c **** {
  26              		.loc 1 93 1
  27              		.cfi_startproc
  28              	.LVL0:
  29 0000 17030000 		call	t0,__riscv_save_0
  29      E7020300 
  30              		.cfi_offset 1, -4
  31              		.cfi_def_cfa_offset 16
  94:C:/Users/stapi/OneDrive/Desktop/GD32VW553/GD32VW55X_Wifi_BLE_SDK/GD32VW55x_RELEASE_V1.0.2/MSDK/ble/profile/datatrans\ble_datatrans_srv.c ****     uint8_t status = BLE_ERR_NO_ERROR;
  32              		.loc 1 94 5
  33              	.LVL1:
  95:C:/Users/stapi/OneDrive/Desktop/GD32VW553/GD32VW55X_Wifi_BLE_SDK/GD32VW55x_RELEASE_V1.0.2/MSDK/ble/profile/datatrans\ble_datatrans_srv.c **** 
  96:C:/Users/stapi/OneDrive/Desktop/GD32VW553/GD32VW55X_Wifi_BLE_SDK/GD32VW55x_RELEASE_V1.0.2/MSDK/ble/profile/datatrans\ble_datatrans_srv.c ****     switch (p_srv_msg_info->srv_msg_type) {
  34              		.loc 1 96 5
  35              		.loc 1 96 27 is_stmt 0
  36 0008 1C41     		lw	a5,0(a0)
  37              		.loc 1 96 5
  38 000a 8546     		li	a3,1
  39 000c 638CD702 		beq	a5,a3,.L2
  40 0010 0D47     		li	a4,3
  41 0012 6387E704 		beq	a5,a4,.L3
  42 0016 95E3     		bne	a5,zero,.L4
  97:C:/Users/stapi/OneDrive/Desktop/GD32VW553/GD32VW55X_Wifi_BLE_SDK/GD32VW55x_RELEASE_V1.0.2/MSDK/ble/profile/datatrans\ble_datatrans_srv.c ****     case BLE_SRV_EVT_SVC_ADD_RSP:
  98:C:/Users/stapi/OneDrive/Desktop/GD32VW553/GD32VW55X_Wifi_BLE_SDK/GD32VW55x_RELEASE_V1.0.2/MSDK/ble/profile/datatrans\ble_datatrans_srv.c ****         dbg_print(NOTICE, "[ble_datatrans_srv_cb], svc_add_rsp status = 0x%x\r\n",
  43              		.loc 1 98 9 is_stmt 1
  44              		.loc 1 98 9
  45 0018 B7070000 		lui	a5,%hi(global_debug_level)
  46 001c 03C70700 		lbu	a4,%lo(global_debug_level)(a5)
  47 0020 8947     		li	a5,2
  48 0022 63FCE700 		bleu	a4,a5,.L4
  49              		.loc 1 98 9 discriminator 1
  50 0026 83554500 		lhu	a1,4(a0)
  51 002a 37050000 		lui	a0,%hi(.LC0)
  52              	.LVL2:
  53 002e 13050500 		addi	a0,a0,%lo(.LC0)
  54              	.L11:
  99:C:/Users/stapi/OneDrive/Desktop/GD32VW553/GD32VW55X_Wifi_BLE_SDK/GD32VW55x_RELEASE_V1.0.2/MSDK/ble/profile/datatrans\ble_datatrans_srv.c ****                   p_srv_msg_info->msg_data.svc_add_rsp.status);
 100:C:/Users/stapi/OneDrive/Desktop/GD32VW553/GD32VW55X_Wifi_BLE_SDK/GD32VW55x_RELEASE_V1.0.2/MSDK/ble/profile/datatrans\ble_datatrans_srv.c ****         break;
 101:C:/Users/stapi/OneDrive/Desktop/GD32VW553/GD32VW55X_Wifi_BLE_SDK/GD32VW55x_RELEASE_V1.0.2/MSDK/ble/profile/datatrans\ble_datatrans_srv.c **** 
 102:C:/Users/stapi/OneDrive/Desktop/GD32VW553/GD32VW55X_Wifi_BLE_SDK/GD32VW55x_RELEASE_V1.0.2/MSDK/ble/profile/datatrans\ble_datatrans_srv.c ****     case BLE_SRV_EVT_SVC_RMV_RSP:
 103:C:/Users/stapi/OneDrive/Desktop/GD32VW553/GD32VW55X_Wifi_BLE_SDK/GD32VW55x_RELEASE_V1.0.2/MSDK/ble/profile/datatrans\ble_datatrans_srv.c ****         dbg_print(NOTICE, "[ble_datatrans_srv_cb], svc_rmv_rsp status = 0x%x\r\n",
  55              		.loc 1 103 9 is_stmt 0 discriminator 1
  56 0032 97000000 		call	co_printf
  56      E7800000 
  57              	.LVL3:
  58              	.L4:
 104:C:/Users/stapi/OneDrive/Desktop/GD32VW553/GD32VW55X_Wifi_BLE_SDK/GD32VW55x_RELEASE_V1.0.2/MSDK/ble/profile/datatrans\ble_datatrans_srv.c ****                   p_srv_msg_info->msg_data.svc_rmv_rsp.status);
 105:C:/Users/stapi/OneDrive/Desktop/GD32VW553/GD32VW55X_Wifi_BLE_SDK/GD32VW55x_RELEASE_V1.0.2/MSDK/ble/profile/datatrans\ble_datatrans_srv.c ****         break;
 106:C:/Users/stapi/OneDrive/Desktop/GD32VW553/GD32VW55X_Wifi_BLE_SDK/GD32VW55x_RELEASE_V1.0.2/MSDK/ble/profile/datatrans\ble_datatrans_srv.c **** 
 107:C:/Users/stapi/OneDrive/Desktop/GD32VW553/GD32VW55X_Wifi_BLE_SDK/GD32VW55x_RELEASE_V1.0.2/MSDK/ble/profile/datatrans\ble_datatrans_srv.c ****     case BLE_SRV_EVT_GATT_OPERATION: {
 108:C:/Users/stapi/OneDrive/Desktop/GD32VW553/GD32VW55X_Wifi_BLE_SDK/GD32VW55x_RELEASE_V1.0.2/MSDK/ble/profile/datatrans\ble_datatrans_srv.c ****         uint8_t conn_idx = p_srv_msg_info->msg_data.gatts_op_info.conn_idx;
 109:C:/Users/stapi/OneDrive/Desktop/GD32VW553/GD32VW55X_Wifi_BLE_SDK/GD32VW55x_RELEASE_V1.0.2/MSDK/ble/profile/datatrans\ble_datatrans_srv.c **** 
 110:C:/Users/stapi/OneDrive/Desktop/GD32VW553/GD32VW55X_Wifi_BLE_SDK/GD32VW55x_RELEASE_V1.0.2/MSDK/ble/profile/datatrans\ble_datatrans_srv.c ****         if (p_srv_msg_info->msg_data.gatts_op_info.gatts_op_sub_evt == BLE_SRV_EVT_NTF_IND_SEND_RSP
 111:C:/Users/stapi/OneDrive/Desktop/GD32VW553/GD32VW55X_Wifi_BLE_SDK/GD32VW55x_RELEASE_V1.0.2/MSDK/ble/profile/datatrans\ble_datatrans_srv.c ****             ble_gatts_ntf_ind_send_rsp_t *p_rsp = &p_srv_msg_info->msg_data.gatts_op_info.gatts_op_
 112:C:/Users/stapi/OneDrive/Desktop/GD32VW553/GD32VW55X_Wifi_BLE_SDK/GD32VW55x_RELEASE_V1.0.2/MSDK/ble/profile/datatrans\ble_datatrans_srv.c **** 
 113:C:/Users/stapi/OneDrive/Desktop/GD32VW553/GD32VW55X_Wifi_BLE_SDK/GD32VW55x_RELEASE_V1.0.2/MSDK/ble/profile/datatrans\ble_datatrans_srv.c ****             if (p_rsp->att_idx == BLE_DATATRANS_SRV_IDX_TX_HANDLE_VAL) {
 114:C:/Users/stapi/OneDrive/Desktop/GD32VW553/GD32VW55X_Wifi_BLE_SDK/GD32VW55x_RELEASE_V1.0.2/MSDK/ble/profile/datatrans\ble_datatrans_srv.c ****                 //add user code here
 115:C:/Users/stapi/OneDrive/Desktop/GD32VW553/GD32VW55X_Wifi_BLE_SDK/GD32VW55x_RELEASE_V1.0.2/MSDK/ble/profile/datatrans\ble_datatrans_srv.c ****             }
 116:C:/Users/stapi/OneDrive/Desktop/GD32VW553/GD32VW55X_Wifi_BLE_SDK/GD32VW55x_RELEASE_V1.0.2/MSDK/ble/profile/datatrans\ble_datatrans_srv.c ****         } else if (p_srv_msg_info->msg_data.gatts_op_info.gatts_op_sub_evt == BLE_SRV_EVT_WRITE_REQ
 117:C:/Users/stapi/OneDrive/Desktop/GD32VW553/GD32VW55X_Wifi_BLE_SDK/GD32VW55x_RELEASE_V1.0.2/MSDK/ble/profile/datatrans\ble_datatrans_srv.c ****             ble_gatts_write_req_t *p_req = &p_srv_msg_info->msg_data.gatts_op_info.gatts_op_data.wr
 118:C:/Users/stapi/OneDrive/Desktop/GD32VW553/GD32VW55X_Wifi_BLE_SDK/GD32VW55x_RELEASE_V1.0.2/MSDK/ble/profile/datatrans\ble_datatrans_srv.c **** 
 119:C:/Users/stapi/OneDrive/Desktop/GD32VW553/GD32VW55X_Wifi_BLE_SDK/GD32VW55x_RELEASE_V1.0.2/MSDK/ble/profile/datatrans\ble_datatrans_srv.c ****             if (p_req->att_idx == BLE_DATATRANS_SRV_IDX_RX_HANDLE_VAL) {
 120:C:/Users/stapi/OneDrive/Desktop/GD32VW553/GD32VW55X_Wifi_BLE_SDK/GD32VW55x_RELEASE_V1.0.2/MSDK/ble/profile/datatrans\ble_datatrans_srv.c ****                 if (datatrans_srv_rx_cb)
 121:C:/Users/stapi/OneDrive/Desktop/GD32VW553/GD32VW55X_Wifi_BLE_SDK/GD32VW55x_RELEASE_V1.0.2/MSDK/ble/profile/datatrans\ble_datatrans_srv.c ****                     datatrans_srv_rx_cb(p_req->val_len, p_req->p_val);
 122:C:/Users/stapi/OneDrive/Desktop/GD32VW553/GD32VW55X_Wifi_BLE_SDK/GD32VW55x_RELEASE_V1.0.2/MSDK/ble/profile/datatrans\ble_datatrans_srv.c ****             } else if (p_req->att_idx == BLE_DATATRANS_SRV_IDX_TX_HANDLE_CCCD_CFG) {
 123:C:/Users/stapi/OneDrive/Desktop/GD32VW553/GD32VW55X_Wifi_BLE_SDK/GD32VW55x_RELEASE_V1.0.2/MSDK/ble/profile/datatrans\ble_datatrans_srv.c ****                 dbg_print(NOTICE, "[ble_datatrans_srv_cb], write CCCD to 0x%x\r\n",
 124:C:/Users/stapi/OneDrive/Desktop/GD32VW553/GD32VW55X_Wifi_BLE_SDK/GD32VW55x_RELEASE_V1.0.2/MSDK/ble/profile/datatrans\ble_datatrans_srv.c ****                           *((uint16_t *)p_req->p_val));
 125:C:/Users/stapi/OneDrive/Desktop/GD32VW553/GD32VW55X_Wifi_BLE_SDK/GD32VW55x_RELEASE_V1.0.2/MSDK/ble/profile/datatrans\ble_datatrans_srv.c ****             }
 126:C:/Users/stapi/OneDrive/Desktop/GD32VW553/GD32VW55X_Wifi_BLE_SDK/GD32VW55x_RELEASE_V1.0.2/MSDK/ble/profile/datatrans\ble_datatrans_srv.c ****         } else if (p_srv_msg_info->msg_data.gatts_op_info.gatts_op_sub_evt == BLE_SRV_EVT_READ_REQ)
 127:C:/Users/stapi/OneDrive/Desktop/GD32VW553/GD32VW55X_Wifi_BLE_SDK/GD32VW55x_RELEASE_V1.0.2/MSDK/ble/profile/datatrans\ble_datatrans_srv.c ****             ble_gatts_read_req_t * p_req = &p_srv_msg_info->msg_data.gatts_op_info.gatts_op_data.re
 128:C:/Users/stapi/OneDrive/Desktop/GD32VW553/GD32VW55X_Wifi_BLE_SDK/GD32VW55x_RELEASE_V1.0.2/MSDK/ble/profile/datatrans\ble_datatrans_srv.c **** 
 129:C:/Users/stapi/OneDrive/Desktop/GD32VW553/GD32VW55X_Wifi_BLE_SDK/GD32VW55x_RELEASE_V1.0.2/MSDK/ble/profile/datatrans\ble_datatrans_srv.c ****             if (p_req->att_idx == BLE_DATATRANS_SRV_IDX_TX_HANDLE_CCCD_CFG) {
 130:C:/Users/stapi/OneDrive/Desktop/GD32VW553/GD32VW55X_Wifi_BLE_SDK/GD32VW55x_RELEASE_V1.0.2/MSDK/ble/profile/datatrans\ble_datatrans_srv.c ****                 p_req->val_len = BLE_GATT_CCCD_LEN;
 131:C:/Users/stapi/OneDrive/Desktop/GD32VW553/GD32VW55X_Wifi_BLE_SDK/GD32VW55x_RELEASE_V1.0.2/MSDK/ble/profile/datatrans\ble_datatrans_srv.c ****                 p_req->att_len = BLE_GATT_CCCD_LEN;
 132:C:/Users/stapi/OneDrive/Desktop/GD32VW553/GD32VW55X_Wifi_BLE_SDK/GD32VW55x_RELEASE_V1.0.2/MSDK/ble/profile/datatrans\ble_datatrans_srv.c ****                 memset(p_req->p_val, 0, p_req->val_len);
 133:C:/Users/stapi/OneDrive/Desktop/GD32VW553/GD32VW55X_Wifi_BLE_SDK/GD32VW55x_RELEASE_V1.0.2/MSDK/ble/profile/datatrans\ble_datatrans_srv.c ****             }
 134:C:/Users/stapi/OneDrive/Desktop/GD32VW553/GD32VW55X_Wifi_BLE_SDK/GD32VW55x_RELEASE_V1.0.2/MSDK/ble/profile/datatrans\ble_datatrans_srv.c ****         }
 135:C:/Users/stapi/OneDrive/Desktop/GD32VW553/GD32VW55X_Wifi_BLE_SDK/GD32VW55x_RELEASE_V1.0.2/MSDK/ble/profile/datatrans\ble_datatrans_srv.c ****     } break;
 136:C:/Users/stapi/OneDrive/Desktop/GD32VW553/GD32VW55X_Wifi_BLE_SDK/GD32VW55x_RELEASE_V1.0.2/MSDK/ble/profile/datatrans\ble_datatrans_srv.c **** 
 137:C:/Users/stapi/OneDrive/Desktop/GD32VW553/GD32VW55X_Wifi_BLE_SDK/GD32VW55x_RELEASE_V1.0.2/MSDK/ble/profile/datatrans\ble_datatrans_srv.c ****     default:
 138:C:/Users/stapi/OneDrive/Desktop/GD32VW553/GD32VW55X_Wifi_BLE_SDK/GD32VW55x_RELEASE_V1.0.2/MSDK/ble/profile/datatrans\ble_datatrans_srv.c ****         break;
 139:C:/Users/stapi/OneDrive/Desktop/GD32VW553/GD32VW55X_Wifi_BLE_SDK/GD32VW55x_RELEASE_V1.0.2/MSDK/ble/profile/datatrans\ble_datatrans_srv.c ****     }
 140:C:/Users/stapi/OneDrive/Desktop/GD32VW553/GD32VW55X_Wifi_BLE_SDK/GD32VW55x_RELEASE_V1.0.2/MSDK/ble/profile/datatrans\ble_datatrans_srv.c **** 
 141:C:/Users/stapi/OneDrive/Desktop/GD32VW553/GD32VW55X_Wifi_BLE_SDK/GD32VW55x_RELEASE_V1.0.2/MSDK/ble/profile/datatrans\ble_datatrans_srv.c ****     return status;
  59              		.loc 1 141 5 is_stmt 1
 142:C:/Users/stapi/OneDrive/Desktop/GD32VW553/GD32VW55X_Wifi_BLE_SDK/GD32VW55x_RELEASE_V1.0.2/MSDK/ble/profile/datatrans\ble_datatrans_srv.c **** }
  60              		.loc 1 142 1 is_stmt 0
  61 003a 0145     		li	a0,0
  62 003c 17030000 		tail	__riscv_restore_0
  62      67000300 
  63              		.cfi_remember_state
  64              		.cfi_restore 1
  65              		.cfi_def_cfa_offset 0
  66              	.LVL4:
  67              	.L2:
  68              		.cfi_restore_state
 103:C:/Users/stapi/OneDrive/Desktop/GD32VW553/GD32VW55X_Wifi_BLE_SDK/GD32VW55x_RELEASE_V1.0.2/MSDK/ble/profile/datatrans\ble_datatrans_srv.c ****                   p_srv_msg_info->msg_data.svc_rmv_rsp.status);
  69              		.loc 1 103 9 is_stmt 1
 103:C:/Users/stapi/OneDrive/Desktop/GD32VW553/GD32VW55X_Wifi_BLE_SDK/GD32VW55x_RELEASE_V1.0.2/MSDK/ble/profile/datatrans\ble_datatrans_srv.c ****                   p_srv_msg_info->msg_data.svc_rmv_rsp.status);
  70              		.loc 1 103 9
  71 0044 B7070000 		lui	a5,%hi(global_debug_level)
  72 0048 03C70700 		lbu	a4,%lo(global_debug_level)(a5)
  73 004c 8947     		li	a5,2
  74 004e E3F6E7FE 		bleu	a4,a5,.L4
 103:C:/Users/stapi/OneDrive/Desktop/GD32VW553/GD32VW55X_Wifi_BLE_SDK/GD32VW55x_RELEASE_V1.0.2/MSDK/ble/profile/datatrans\ble_datatrans_srv.c ****                   p_srv_msg_info->msg_data.svc_rmv_rsp.status);
  75              		.loc 1 103 9 discriminator 1
  76 0052 83554500 		lhu	a1,4(a0)
  77 0056 37050000 		lui	a0,%hi(.LC1)
  78              	.LVL5:
  79 005a 13050500 		addi	a0,a0,%lo(.LC1)
  80 005e D1BF     		j	.L11
  81              	.LVL6:
  82              	.L3:
  83              	.LBB2:
 108:C:/Users/stapi/OneDrive/Desktop/GD32VW553/GD32VW55X_Wifi_BLE_SDK/GD32VW55x_RELEASE_V1.0.2/MSDK/ble/profile/datatrans\ble_datatrans_srv.c **** 
  84              		.loc 1 108 9
 110:C:/Users/stapi/OneDrive/Desktop/GD32VW553/GD32VW55X_Wifi_BLE_SDK/GD32VW55x_RELEASE_V1.0.2/MSDK/ble/profile/datatrans\ble_datatrans_srv.c ****             ble_gatts_ntf_ind_send_rsp_t *p_rsp = &p_srv_msg_info->msg_data.gatts_op_info.gatts_op_
  85              		.loc 1 110 9
 110:C:/Users/stapi/OneDrive/Desktop/GD32VW553/GD32VW55X_Wifi_BLE_SDK/GD32VW55x_RELEASE_V1.0.2/MSDK/ble/profile/datatrans\ble_datatrans_srv.c ****             ble_gatts_ntf_ind_send_rsp_t *p_rsp = &p_srv_msg_info->msg_data.gatts_op_info.gatts_op_
  86              		.loc 1 110 51 is_stmt 0
  87 0060 5C41     		lw	a5,4(a0)
 110:C:/Users/stapi/OneDrive/Desktop/GD32VW553/GD32VW55X_Wifi_BLE_SDK/GD32VW55x_RELEASE_V1.0.2/MSDK/ble/profile/datatrans\ble_datatrans_srv.c ****             ble_gatts_ntf_ind_send_rsp_t *p_rsp = &p_srv_msg_info->msg_data.gatts_op_info.gatts_op_
  88              		.loc 1 110 12
  89 0062 0947     		li	a4,2
  90 0064 E38BE7FC 		beq	a5,a4,.L4
 116:C:/Users/stapi/OneDrive/Desktop/GD32VW553/GD32VW55X_Wifi_BLE_SDK/GD32VW55x_RELEASE_V1.0.2/MSDK/ble/profile/datatrans\ble_datatrans_srv.c ****             ble_gatts_write_req_t *p_req = &p_srv_msg_info->msg_data.gatts_op_info.gatts_op_data.wr
  91              		.loc 1 116 16 is_stmt 1
 116:C:/Users/stapi/OneDrive/Desktop/GD32VW553/GD32VW55X_Wifi_BLE_SDK/GD32VW55x_RELEASE_V1.0.2/MSDK/ble/profile/datatrans\ble_datatrans_srv.c ****             ble_gatts_write_req_t *p_req = &p_srv_msg_info->msg_data.gatts_op_info.gatts_op_data.wr
  92              		.loc 1 116 19 is_stmt 0
  93 0068 6391D704 		bne	a5,a3,.L5
  94              	.LBB3:
 117:C:/Users/stapi/OneDrive/Desktop/GD32VW553/GD32VW55X_Wifi_BLE_SDK/GD32VW55x_RELEASE_V1.0.2/MSDK/ble/profile/datatrans\ble_datatrans_srv.c **** 
  95              		.loc 1 117 13 is_stmt 1
  96              	.LVL7:
 119:C:/Users/stapi/OneDrive/Desktop/GD32VW553/GD32VW55X_Wifi_BLE_SDK/GD32VW55x_RELEASE_V1.0.2/MSDK/ble/profile/datatrans\ble_datatrans_srv.c ****                 if (datatrans_srv_rx_cb)
  97              		.loc 1 119 13
 119:C:/Users/stapi/OneDrive/Desktop/GD32VW553/GD32VW55X_Wifi_BLE_SDK/GD32VW55x_RELEASE_V1.0.2/MSDK/ble/profile/datatrans\ble_datatrans_srv.c ****                 if (datatrans_srv_rx_cb)
  98              		.loc 1 119 22 is_stmt 0
  99 006c 83570501 		lhu	a5,16(a0)
 119:C:/Users/stapi/OneDrive/Desktop/GD32VW553/GD32VW55X_Wifi_BLE_SDK/GD32VW55x_RELEASE_V1.0.2/MSDK/ble/profile/datatrans\ble_datatrans_srv.c ****                 if (datatrans_srv_rx_cb)
 100              		.loc 1 119 16
 101 0070 639CE700 		bne	a5,a4,.L6
 120:C:/Users/stapi/OneDrive/Desktop/GD32VW553/GD32VW55X_Wifi_BLE_SDK/GD32VW55x_RELEASE_V1.0.2/MSDK/ble/profile/datatrans\ble_datatrans_srv.c ****                     datatrans_srv_rx_cb(p_req->val_len, p_req->p_val);
 102              		.loc 1 120 17 is_stmt 1
 120:C:/Users/stapi/OneDrive/Desktop/GD32VW553/GD32VW55X_Wifi_BLE_SDK/GD32VW55x_RELEASE_V1.0.2/MSDK/ble/profile/datatrans\ble_datatrans_srv.c ****                     datatrans_srv_rx_cb(p_req->val_len, p_req->p_val);
 103              		.loc 1 120 21 is_stmt 0
 104 0074 B7070000 		lui	a5,%hi(.LANCHOR0)
 105 0078 83A70700 		lw	a5,%lo(.LANCHOR0)(a5)
 120:C:/Users/stapi/OneDrive/Desktop/GD32VW553/GD32VW55X_Wifi_BLE_SDK/GD32VW55x_RELEASE_V1.0.2/MSDK/ble/profile/datatrans\ble_datatrans_srv.c ****                     datatrans_srv_rx_cb(p_req->val_len, p_req->p_val);
 106              		.loc 1 120 20
 107 007c DDDF     		beq	a5,zero,.L4
 121:C:/Users/stapi/OneDrive/Desktop/GD32VW553/GD32VW55X_Wifi_BLE_SDK/GD32VW55x_RELEASE_V1.0.2/MSDK/ble/profile/datatrans\ble_datatrans_srv.c ****             } else if (p_req->att_idx == BLE_DATATRANS_SRV_IDX_TX_HANDLE_CCCD_CFG) {
 108              		.loc 1 121 21 is_stmt 1
 109 007e 0C4D     		lw	a1,24(a0)
 110 0080 03556501 		lhu	a0,22(a0)
 111              	.LVL8:
 112 0084 8297     		jalr	a5
 113              	.LVL9:
 114 0086 55BF     		j	.L4
 115              	.LVL10:
 116              	.L6:
 122:C:/Users/stapi/OneDrive/Desktop/GD32VW553/GD32VW55X_Wifi_BLE_SDK/GD32VW55x_RELEASE_V1.0.2/MSDK/ble/profile/datatrans\ble_datatrans_srv.c ****                 dbg_print(NOTICE, "[ble_datatrans_srv_cb], write CCCD to 0x%x\r\n",
 117              		.loc 1 122 20
 122:C:/Users/stapi/OneDrive/Desktop/GD32VW553/GD32VW55X_Wifi_BLE_SDK/GD32VW55x_RELEASE_V1.0.2/MSDK/ble/profile/datatrans\ble_datatrans_srv.c ****                 dbg_print(NOTICE, "[ble_datatrans_srv_cb], write CCCD to 0x%x\r\n",
 118              		.loc 1 122 23 is_stmt 0
 119 0088 9546     		li	a3,5
 120 008a E398D7FA 		bne	a5,a3,.L4
 123:C:/Users/stapi/OneDrive/Desktop/GD32VW553/GD32VW55X_Wifi_BLE_SDK/GD32VW55x_RELEASE_V1.0.2/MSDK/ble/profile/datatrans\ble_datatrans_srv.c ****                           *((uint16_t *)p_req->p_val));
 121              		.loc 1 123 17 is_stmt 1 discriminator 2
 123:C:/Users/stapi/OneDrive/Desktop/GD32VW553/GD32VW55X_Wifi_BLE_SDK/GD32VW55x_RELEASE_V1.0.2/MSDK/ble/profile/datatrans\ble_datatrans_srv.c ****                           *((uint16_t *)p_req->p_val));
 122              		.loc 1 123 17 discriminator 2
 123 008e B7070000 		lui	a5,%hi(global_debug_level)
 124 0092 83C70700 		lbu	a5,%lo(global_debug_level)(a5)
 125 0096 E372F7FA 		bleu	a5,a4,.L4
 123:C:/Users/stapi/OneDrive/Desktop/GD32VW553/GD32VW55X_Wifi_BLE_SDK/GD32VW55x_RELEASE_V1.0.2/MSDK/ble/profile/datatrans\ble_datatrans_srv.c ****                           *((uint16_t *)p_req->p_val));
 126              		.loc 1 123 17 discriminator 1
 127 009a 1C4D     		lw	a5,24(a0)
 128 009c 37050000 		lui	a0,%hi(.LC2)
 129              	.LVL11:
 130 00a0 13050500 		addi	a0,a0,%lo(.LC2)
 131 00a4 83D50700 		lhu	a1,0(a5)
 132 00a8 69B7     		j	.L11
 133              	.LVL12:
 134              	.L5:
 135              	.LBE3:
 126:C:/Users/stapi/OneDrive/Desktop/GD32VW553/GD32VW55X_Wifi_BLE_SDK/GD32VW55x_RELEASE_V1.0.2/MSDK/ble/profile/datatrans\ble_datatrans_srv.c ****             ble_gatts_read_req_t * p_req = &p_srv_msg_info->msg_data.gatts_op_info.gatts_op_data.re
 136              		.loc 1 126 16
 126:C:/Users/stapi/OneDrive/Desktop/GD32VW553/GD32VW55X_Wifi_BLE_SDK/GD32VW55x_RELEASE_V1.0.2/MSDK/ble/profile/datatrans\ble_datatrans_srv.c ****             ble_gatts_read_req_t * p_req = &p_srv_msg_info->msg_data.gatts_op_info.gatts_op_data.re
 137              		.loc 1 126 19 is_stmt 0
 138 00aa C1FB     		bne	a5,zero,.L4
 139              	.LBB4:
 127:C:/Users/stapi/OneDrive/Desktop/GD32VW553/GD32VW55X_Wifi_BLE_SDK/GD32VW55x_RELEASE_V1.0.2/MSDK/ble/profile/datatrans\ble_datatrans_srv.c **** 
 140              		.loc 1 127 13 is_stmt 1
 141              	.LVL13:
 129:C:/Users/stapi/OneDrive/Desktop/GD32VW553/GD32VW55X_Wifi_BLE_SDK/GD32VW55x_RELEASE_V1.0.2/MSDK/ble/profile/datatrans\ble_datatrans_srv.c ****                 p_req->val_len = BLE_GATT_CCCD_LEN;
 142              		.loc 1 129 13
 129:C:/Users/stapi/OneDrive/Desktop/GD32VW553/GD32VW55X_Wifi_BLE_SDK/GD32VW55x_RELEASE_V1.0.2/MSDK/ble/profile/datatrans\ble_datatrans_srv.c ****                 p_req->val_len = BLE_GATT_CCCD_LEN;
 143              		.loc 1 129 16 is_stmt 0
 144 00ac 03570501 		lhu	a4,16(a0)
 145 00b0 9547     		li	a5,5
 146 00b2 E314F7F8 		bne	a4,a5,.L4
 130:C:/Users/stapi/OneDrive/Desktop/GD32VW553/GD32VW55X_Wifi_BLE_SDK/GD32VW55x_RELEASE_V1.0.2/MSDK/ble/profile/datatrans\ble_datatrans_srv.c ****                 p_req->att_len = BLE_GATT_CCCD_LEN;
 147              		.loc 1 130 17 is_stmt 1
 131:C:/Users/stapi/OneDrive/Desktop/GD32VW553/GD32VW55X_Wifi_BLE_SDK/GD32VW55x_RELEASE_V1.0.2/MSDK/ble/profile/datatrans\ble_datatrans_srv.c ****                 memset(p_req->p_val, 0, p_req->val_len);
 148              		.loc 1 131 17
 130:C:/Users/stapi/OneDrive/Desktop/GD32VW553/GD32VW55X_Wifi_BLE_SDK/GD32VW55x_RELEASE_V1.0.2/MSDK/ble/profile/datatrans\ble_datatrans_srv.c ****                 p_req->att_len = BLE_GATT_CCCD_LEN;
 149              		.loc 1 130 32 is_stmt 0
 150 00b6 B7070200 		li	a5,131072
 151 00ba 8907     		addi	a5,a5,2
 152 00bc 1CCD     		sw	a5,24(a0)
 132:C:/Users/stapi/OneDrive/Desktop/GD32VW553/GD32VW55X_Wifi_BLE_SDK/GD32VW55x_RELEASE_V1.0.2/MSDK/ble/profile/datatrans\ble_datatrans_srv.c ****             }
 153              		.loc 1 132 17 is_stmt 1
 154 00be 5C4D     		lw	a5,28(a0)
 155 00c0 23800700 		sb	zero,0(a5)
 156              	.LVL14:
 157 00c4 A3800700 		sb	zero,1(a5)
 158 00c8 8DBF     		j	.L4
 159              	.LBE4:
 160              	.LBE2:
 161              		.cfi_endproc
 162              	.LFE19:
 164              		.section	.text.ble_datatrans_srv_init,"ax",@progbits
 165              		.align	1
 166              		.globl	ble_datatrans_srv_init
 168              	ble_datatrans_srv_init:
 169              	.LFB20:
 143:C:/Users/stapi/OneDrive/Desktop/GD32VW553/GD32VW55X_Wifi_BLE_SDK/GD32VW55x_RELEASE_V1.0.2/MSDK/ble/profile/datatrans\ble_datatrans_srv.c **** 
 144:C:/Users/stapi/OneDrive/Desktop/GD32VW553/GD32VW55X_Wifi_BLE_SDK/GD32VW55x_RELEASE_V1.0.2/MSDK/ble/profile/datatrans\ble_datatrans_srv.c **** /*!
 145:C:/Users/stapi/OneDrive/Desktop/GD32VW553/GD32VW55X_Wifi_BLE_SDK/GD32VW55x_RELEASE_V1.0.2/MSDK/ble/profile/datatrans\ble_datatrans_srv.c ****     \brief      Init BLE datatrans server service
 146:C:/Users/stapi/OneDrive/Desktop/GD32VW553/GD32VW55X_Wifi_BLE_SDK/GD32VW55x_RELEASE_V1.0.2/MSDK/ble/profile/datatrans\ble_datatrans_srv.c ****     \param[in]  callback: datatrans server callback function
 147:C:/Users/stapi/OneDrive/Desktop/GD32VW553/GD32VW55X_Wifi_BLE_SDK/GD32VW55x_RELEASE_V1.0.2/MSDK/ble/profile/datatrans\ble_datatrans_srv.c ****     \param[out] none
 148:C:/Users/stapi/OneDrive/Desktop/GD32VW553/GD32VW55X_Wifi_BLE_SDK/GD32VW55x_RELEASE_V1.0.2/MSDK/ble/profile/datatrans\ble_datatrans_srv.c ****     \retval     ble_status_t: BLE_ERR_NO_ERROR on success, otherwise an error code
 149:C:/Users/stapi/OneDrive/Desktop/GD32VW553/GD32VW55X_Wifi_BLE_SDK/GD32VW55x_RELEASE_V1.0.2/MSDK/ble/profile/datatrans\ble_datatrans_srv.c **** */
 150:C:/Users/stapi/OneDrive/Desktop/GD32VW553/GD32VW55X_Wifi_BLE_SDK/GD32VW55x_RELEASE_V1.0.2/MSDK/ble/profile/datatrans\ble_datatrans_srv.c **** ble_status_t ble_datatrans_srv_init(ble_datatrans_srv_rx_cb callback)
 151:C:/Users/stapi/OneDrive/Desktop/GD32VW553/GD32VW55X_Wifi_BLE_SDK/GD32VW55x_RELEASE_V1.0.2/MSDK/ble/profile/datatrans\ble_datatrans_srv.c **** {
 170              		.loc 1 151 1
 171              		.cfi_startproc
 172              	.LVL15:
 152:C:/Users/stapi/OneDrive/Desktop/GD32VW553/GD32VW55X_Wifi_BLE_SDK/GD32VW55x_RELEASE_V1.0.2/MSDK/ble/profile/datatrans\ble_datatrans_srv.c ****     datatrans_srv_rx_cb = callback;
 173              		.loc 1 152 5
 174              		.loc 1 152 25 is_stmt 0
 175 0000 B7070000 		lui	a5,%hi(.LANCHOR0)
 176 0004 23A0A700 		sw	a0,%lo(.LANCHOR0)(a5)
 153:C:/Users/stapi/OneDrive/Desktop/GD32VW553/GD32VW55X_Wifi_BLE_SDK/GD32VW55x_RELEASE_V1.0.2/MSDK/ble/profile/datatrans\ble_datatrans_srv.c **** 
 154:C:/Users/stapi/OneDrive/Desktop/GD32VW553/GD32VW55X_Wifi_BLE_SDK/GD32VW55x_RELEASE_V1.0.2/MSDK/ble/profile/datatrans\ble_datatrans_srv.c ****     return ble_gatts_svc_add(&svc_id, ble_datatrans_srv_svc_uuid, 0, SVC_UUID(16),
 177              		.loc 1 154 5 is_stmt 1
 178              		.loc 1 154 12 is_stmt 0
 179 0008 37080000 		lui	a6,%hi(ble_datatrans_srv_cb)
 180 000c 37070000 		lui	a4,%hi(.LANCHOR1)
 181 0010 B7050000 		lui	a1,%hi(.LANCHOR2)
 182 0014 37050000 		lui	a0,%hi(.LANCHOR3)
 183              	.LVL16:
 184 0018 13080800 		addi	a6,a6,%lo(ble_datatrans_srv_cb)
 185 001c 9947     		li	a5,6
 186 001e 13070700 		addi	a4,a4,%lo(.LANCHOR1)
 187 0022 8146     		li	a3,0
 188 0024 0146     		li	a2,0
 189 0026 93850500 		addi	a1,a1,%lo(.LANCHOR2)
 190 002a 13050500 		addi	a0,a0,%lo(.LANCHOR3)
 191 002e 17030000 		tail	ble_gatts_svc_add
 191      67000300 
 192              	.LVL17:
 193              		.cfi_endproc
 194              	.LFE20:
 196              		.section	.text.ble_datatrans_srv_deinit,"ax",@progbits
 197              		.align	1
 198              		.globl	ble_datatrans_srv_deinit
 200              	ble_datatrans_srv_deinit:
 201              	.LFB21:
 155:C:/Users/stapi/OneDrive/Desktop/GD32VW553/GD32VW55X_Wifi_BLE_SDK/GD32VW55x_RELEASE_V1.0.2/MSDK/ble/profile/datatrans\ble_datatrans_srv.c ****                              ble_datatrans_srv_att_db, BLE_DATATRANS_SRV_IDX_NB,
 156:C:/Users/stapi/OneDrive/Desktop/GD32VW553/GD32VW55X_Wifi_BLE_SDK/GD32VW55x_RELEASE_V1.0.2/MSDK/ble/profile/datatrans\ble_datatrans_srv.c ****                              ble_datatrans_srv_cb);
 157:C:/Users/stapi/OneDrive/Desktop/GD32VW553/GD32VW55X_Wifi_BLE_SDK/GD32VW55x_RELEASE_V1.0.2/MSDK/ble/profile/datatrans\ble_datatrans_srv.c **** }
 158:C:/Users/stapi/OneDrive/Desktop/GD32VW553/GD32VW55X_Wifi_BLE_SDK/GD32VW55x_RELEASE_V1.0.2/MSDK/ble/profile/datatrans\ble_datatrans_srv.c **** 
 159:C:/Users/stapi/OneDrive/Desktop/GD32VW553/GD32VW55X_Wifi_BLE_SDK/GD32VW55x_RELEASE_V1.0.2/MSDK/ble/profile/datatrans\ble_datatrans_srv.c **** /*!
 160:C:/Users/stapi/OneDrive/Desktop/GD32VW553/GD32VW55X_Wifi_BLE_SDK/GD32VW55x_RELEASE_V1.0.2/MSDK/ble/profile/datatrans\ble_datatrans_srv.c ****     \brief      Deinit BLE datatrans server service
 161:C:/Users/stapi/OneDrive/Desktop/GD32VW553/GD32VW55X_Wifi_BLE_SDK/GD32VW55x_RELEASE_V1.0.2/MSDK/ble/profile/datatrans\ble_datatrans_srv.c ****     \param[in]  none
 162:C:/Users/stapi/OneDrive/Desktop/GD32VW553/GD32VW55X_Wifi_BLE_SDK/GD32VW55x_RELEASE_V1.0.2/MSDK/ble/profile/datatrans\ble_datatrans_srv.c ****     \param[out] none
 163:C:/Users/stapi/OneDrive/Desktop/GD32VW553/GD32VW55X_Wifi_BLE_SDK/GD32VW55x_RELEASE_V1.0.2/MSDK/ble/profile/datatrans\ble_datatrans_srv.c ****     \retval     ble_status_t: BLE_ERR_NO_ERROR on success, otherwise an error code
 164:C:/Users/stapi/OneDrive/Desktop/GD32VW553/GD32VW55X_Wifi_BLE_SDK/GD32VW55x_RELEASE_V1.0.2/MSDK/ble/profile/datatrans\ble_datatrans_srv.c **** */
 165:C:/Users/stapi/OneDrive/Desktop/GD32VW553/GD32VW55X_Wifi_BLE_SDK/GD32VW55x_RELEASE_V1.0.2/MSDK/ble/profile/datatrans\ble_datatrans_srv.c **** ble_status_t ble_datatrans_srv_deinit(void)
 166:C:/Users/stapi/OneDrive/Desktop/GD32VW553/GD32VW55X_Wifi_BLE_SDK/GD32VW55x_RELEASE_V1.0.2/MSDK/ble/profile/datatrans\ble_datatrans_srv.c **** {
 202              		.loc 1 166 1 is_stmt 1
 203              		.cfi_startproc
 167:C:/Users/stapi/OneDrive/Desktop/GD32VW553/GD32VW55X_Wifi_BLE_SDK/GD32VW55x_RELEASE_V1.0.2/MSDK/ble/profile/datatrans\ble_datatrans_srv.c ****     datatrans_srv_rx_cb = NULL;
 204              		.loc 1 167 5
 205              		.loc 1 167 25 is_stmt 0
 206 0000 B7070000 		lui	a5,%hi(.LANCHOR0)
 207 0004 23A00700 		sw	zero,%lo(.LANCHOR0)(a5)
 168:C:/Users/stapi/OneDrive/Desktop/GD32VW553/GD32VW55X_Wifi_BLE_SDK/GD32VW55x_RELEASE_V1.0.2/MSDK/ble/profile/datatrans\ble_datatrans_srv.c **** 
 169:C:/Users/stapi/OneDrive/Desktop/GD32VW553/GD32VW55X_Wifi_BLE_SDK/GD32VW55x_RELEASE_V1.0.2/MSDK/ble/profile/datatrans\ble_datatrans_srv.c ****     return ble_gatts_svc_rmv(svc_id);
 208              		.loc 1 169 5 is_stmt 1
 209              		.loc 1 169 12 is_stmt 0
 210 0008 B7070000 		lui	a5,%hi(.LANCHOR3)
 211 000c 03C50700 		lbu	a0,%lo(.LANCHOR3)(a5)
 212 0010 17030000 		tail	ble_gatts_svc_rmv
 212      67000300 
 213              	.LVL18:
 214              		.cfi_endproc
 215              	.LFE21:
 217              		.section	.text.ble_datatrans_srv_tx,"ax",@progbits
 218              		.align	1
 219              		.globl	ble_datatrans_srv_tx
 221              	ble_datatrans_srv_tx:
 222              	.LFB22:
 170:C:/Users/stapi/OneDrive/Desktop/GD32VW553/GD32VW55X_Wifi_BLE_SDK/GD32VW55x_RELEASE_V1.0.2/MSDK/ble/profile/datatrans\ble_datatrans_srv.c **** }
 171:C:/Users/stapi/OneDrive/Desktop/GD32VW553/GD32VW55X_Wifi_BLE_SDK/GD32VW55x_RELEASE_V1.0.2/MSDK/ble/profile/datatrans\ble_datatrans_srv.c **** 
 172:C:/Users/stapi/OneDrive/Desktop/GD32VW553/GD32VW55X_Wifi_BLE_SDK/GD32VW55x_RELEASE_V1.0.2/MSDK/ble/profile/datatrans\ble_datatrans_srv.c **** 
 173:C:/Users/stapi/OneDrive/Desktop/GD32VW553/GD32VW55X_Wifi_BLE_SDK/GD32VW55x_RELEASE_V1.0.2/MSDK/ble/profile/datatrans\ble_datatrans_srv.c **** /*!
 174:C:/Users/stapi/OneDrive/Desktop/GD32VW553/GD32VW55X_Wifi_BLE_SDK/GD32VW55x_RELEASE_V1.0.2/MSDK/ble/profile/datatrans\ble_datatrans_srv.c ****     \brief      BLE datatrans server transmit data to client
 175:C:/Users/stapi/OneDrive/Desktop/GD32VW553/GD32VW55X_Wifi_BLE_SDK/GD32VW55x_RELEASE_V1.0.2/MSDK/ble/profile/datatrans\ble_datatrans_srv.c ****     \param[in]  conn_idx: connection index
 176:C:/Users/stapi/OneDrive/Desktop/GD32VW553/GD32VW55X_Wifi_BLE_SDK/GD32VW55x_RELEASE_V1.0.2/MSDK/ble/profile/datatrans\ble_datatrans_srv.c ****     \param[in]  p_buf: pointer to transmit data buffer
 177:C:/Users/stapi/OneDrive/Desktop/GD32VW553/GD32VW55X_Wifi_BLE_SDK/GD32VW55x_RELEASE_V1.0.2/MSDK/ble/profile/datatrans\ble_datatrans_srv.c ****     \param[in]  len: transmit data length
 178:C:/Users/stapi/OneDrive/Desktop/GD32VW553/GD32VW55X_Wifi_BLE_SDK/GD32VW55x_RELEASE_V1.0.2/MSDK/ble/profile/datatrans\ble_datatrans_srv.c ****     \param[out] none
 179:C:/Users/stapi/OneDrive/Desktop/GD32VW553/GD32VW55X_Wifi_BLE_SDK/GD32VW55x_RELEASE_V1.0.2/MSDK/ble/profile/datatrans\ble_datatrans_srv.c ****     \retval     ble_status_t: BLE_ERR_NO_ERROR on success, otherwise an error code
 180:C:/Users/stapi/OneDrive/Desktop/GD32VW553/GD32VW55X_Wifi_BLE_SDK/GD32VW55x_RELEASE_V1.0.2/MSDK/ble/profile/datatrans\ble_datatrans_srv.c **** */
 181:C:/Users/stapi/OneDrive/Desktop/GD32VW553/GD32VW55X_Wifi_BLE_SDK/GD32VW55x_RELEASE_V1.0.2/MSDK/ble/profile/datatrans\ble_datatrans_srv.c **** ble_status_t ble_datatrans_srv_tx(uint8_t conn_idx, uint8_t *p_buf, uint16_t len)
 182:C:/Users/stapi/OneDrive/Desktop/GD32VW553/GD32VW55X_Wifi_BLE_SDK/GD32VW55x_RELEASE_V1.0.2/MSDK/ble/profile/datatrans\ble_datatrans_srv.c **** {
 223              		.loc 1 182 1 is_stmt 1
 224              		.cfi_startproc
 225              	.LVL19:
 183:C:/Users/stapi/OneDrive/Desktop/GD32VW553/GD32VW55X_Wifi_BLE_SDK/GD32VW55x_RELEASE_V1.0.2/MSDK/ble/profile/datatrans\ble_datatrans_srv.c ****     return ble_gatts_ntf_ind_send(conn_idx, svc_id, BLE_DATATRANS_SRV_IDX_TX_HANDLE_VAL,
 226              		.loc 1 183 5
 182:C:/Users/stapi/OneDrive/Desktop/GD32VW553/GD32VW55X_Wifi_BLE_SDK/GD32VW55x_RELEASE_V1.0.2/MSDK/ble/profile/datatrans\ble_datatrans_srv.c ****     return ble_gatts_ntf_ind_send(conn_idx, svc_id, BLE_DATATRANS_SRV_IDX_TX_HANDLE_VAL,
 227              		.loc 1 182 1 is_stmt 0
 228 0000 AE86     		mv	a3,a1
 229              		.loc 1 183 12
 230 0002 B7050000 		lui	a1,%hi(.LANCHOR3)
 231              	.LVL20:
 232 0006 83C50500 		lbu	a1,%lo(.LANCHOR3)(a1)
 182:C:/Users/stapi/OneDrive/Desktop/GD32VW553/GD32VW55X_Wifi_BLE_SDK/GD32VW55x_RELEASE_V1.0.2/MSDK/ble/profile/datatrans\ble_datatrans_srv.c ****     return ble_gatts_ntf_ind_send(conn_idx, svc_id, BLE_DATATRANS_SRV_IDX_TX_HANDLE_VAL,
 233              		.loc 1 182 1
 234 000a 3287     		mv	a4,a2
 235              		.loc 1 183 12
 236 000c 8147     		li	a5,0
 237 000e 1146     		li	a2,4
 238              	.LVL21:
 239 0010 17030000 		tail	ble_gatts_ntf_ind_send
 239      67000300 
 240              	.LVL22:
 241              		.cfi_endproc
 242              	.LFE22:
 244              		.section	.text.ble_datatrans_srv_tx_mtp,"ax",@progbits
 245              		.align	1
 246              		.globl	ble_datatrans_srv_tx_mtp
 248              	ble_datatrans_srv_tx_mtp:
 249              	.LFB23:
 184:C:/Users/stapi/OneDrive/Desktop/GD32VW553/GD32VW55X_Wifi_BLE_SDK/GD32VW55x_RELEASE_V1.0.2/MSDK/ble/profile/datatrans\ble_datatrans_srv.c ****                                   p_buf, len, BLE_GATT_NOTIFY);
 185:C:/Users/stapi/OneDrive/Desktop/GD32VW553/GD32VW55X_Wifi_BLE_SDK/GD32VW55x_RELEASE_V1.0.2/MSDK/ble/profile/datatrans\ble_datatrans_srv.c **** }
 186:C:/Users/stapi/OneDrive/Desktop/GD32VW553/GD32VW55X_Wifi_BLE_SDK/GD32VW55x_RELEASE_V1.0.2/MSDK/ble/profile/datatrans\ble_datatrans_srv.c **** 
 187:C:/Users/stapi/OneDrive/Desktop/GD32VW553/GD32VW55X_Wifi_BLE_SDK/GD32VW55x_RELEASE_V1.0.2/MSDK/ble/profile/datatrans\ble_datatrans_srv.c **** /*!
 188:C:/Users/stapi/OneDrive/Desktop/GD32VW553/GD32VW55X_Wifi_BLE_SDK/GD32VW55x_RELEASE_V1.0.2/MSDK/ble/profile/datatrans\ble_datatrans_srv.c ****     \brief      BLE datatrans server multiple transmit data to client
 189:C:/Users/stapi/OneDrive/Desktop/GD32VW553/GD32VW55X_Wifi_BLE_SDK/GD32VW55x_RELEASE_V1.0.2/MSDK/ble/profile/datatrans\ble_datatrans_srv.c ****     \param[in]  conidx_bf: connection index bit field
 190:C:/Users/stapi/OneDrive/Desktop/GD32VW553/GD32VW55X_Wifi_BLE_SDK/GD32VW55x_RELEASE_V1.0.2/MSDK/ble/profile/datatrans\ble_datatrans_srv.c ****     \param[in]  p_buf: pointer to transmit data buffer
 191:C:/Users/stapi/OneDrive/Desktop/GD32VW553/GD32VW55X_Wifi_BLE_SDK/GD32VW55x_RELEASE_V1.0.2/MSDK/ble/profile/datatrans\ble_datatrans_srv.c ****     \param[in]  len: transmit data length
 192:C:/Users/stapi/OneDrive/Desktop/GD32VW553/GD32VW55X_Wifi_BLE_SDK/GD32VW55x_RELEASE_V1.0.2/MSDK/ble/profile/datatrans\ble_datatrans_srv.c ****     \param[out] none
 193:C:/Users/stapi/OneDrive/Desktop/GD32VW553/GD32VW55X_Wifi_BLE_SDK/GD32VW55x_RELEASE_V1.0.2/MSDK/ble/profile/datatrans\ble_datatrans_srv.c ****     \retval     ble_status_t: BLE_ERR_NO_ERROR on success, otherwise an error code
 194:C:/Users/stapi/OneDrive/Desktop/GD32VW553/GD32VW55X_Wifi_BLE_SDK/GD32VW55x_RELEASE_V1.0.2/MSDK/ble/profile/datatrans\ble_datatrans_srv.c **** */
 195:C:/Users/stapi/OneDrive/Desktop/GD32VW553/GD32VW55X_Wifi_BLE_SDK/GD32VW55x_RELEASE_V1.0.2/MSDK/ble/profile/datatrans\ble_datatrans_srv.c **** ble_status_t ble_datatrans_srv_tx_mtp(uint32_t conidx_bf, uint8_t *p_buf, uint16_t len)
 196:C:/Users/stapi/OneDrive/Desktop/GD32VW553/GD32VW55X_Wifi_BLE_SDK/GD32VW55x_RELEASE_V1.0.2/MSDK/ble/profile/datatrans\ble_datatrans_srv.c **** {
 250              		.loc 1 196 1 is_stmt 1
 251              		.cfi_startproc
 252              	.LVL23:
 197:C:/Users/stapi/OneDrive/Desktop/GD32VW553/GD32VW55X_Wifi_BLE_SDK/GD32VW55x_RELEASE_V1.0.2/MSDK/ble/profile/datatrans\ble_datatrans_srv.c ****     return ble_gatts_ntf_ind_mtp_send(conidx_bf, svc_id, BLE_DATATRANS_SRV_IDX_TX_HANDLE_VAL,
 253              		.loc 1 197 5
 196:C:/Users/stapi/OneDrive/Desktop/GD32VW553/GD32VW55X_Wifi_BLE_SDK/GD32VW55x_RELEASE_V1.0.2/MSDK/ble/profile/datatrans\ble_datatrans_srv.c ****     return ble_gatts_ntf_ind_mtp_send(conidx_bf, svc_id, BLE_DATATRANS_SRV_IDX_TX_HANDLE_VAL,
 254              		.loc 1 196 1 is_stmt 0
 255 0000 AE86     		mv	a3,a1
 256              		.loc 1 197 12
 257 0002 B7050000 		lui	a1,%hi(.LANCHOR3)
 258              	.LVL24:
 259 0006 83C50500 		lbu	a1,%lo(.LANCHOR3)(a1)
 196:C:/Users/stapi/OneDrive/Desktop/GD32VW553/GD32VW55X_Wifi_BLE_SDK/GD32VW55x_RELEASE_V1.0.2/MSDK/ble/profile/datatrans\ble_datatrans_srv.c ****     return ble_gatts_ntf_ind_mtp_send(conidx_bf, svc_id, BLE_DATATRANS_SRV_IDX_TX_HANDLE_VAL,
 260              		.loc 1 196 1
 261 000a 3287     		mv	a4,a2
 262              		.loc 1 197 12
 263 000c 8147     		li	a5,0
 264 000e 1146     		li	a2,4
 265              	.LVL25:
 266 0010 17030000 		tail	ble_gatts_ntf_ind_mtp_send
 266      67000300 
 267              	.LVL26:
 268              		.cfi_endproc
 269              	.LFE23:
 271              		.globl	ble_datatrans_srv_att_db
 272              		.globl	ble_datatrans_srv_svc_uuid
 273              		.section	.rodata.ble_datatrans_srv_att_db,"a"
 274              		.align	2
 275              		.set	.LANCHOR1,. + 0
 278              	ble_datatrans_srv_att_db:
 279 0000 00       		.string	""
 280 0001 2800     		.string	"("
 281 0003 00000000 		.zero	13
 281      00000000 
 281      00000000 
 281      00
 282 0010 0200     		.half	2
 283 0012 0000     		.half	0
 284 0014 032800   		.string	"\003("
 285 0017 00000000 		.zero	13
 285      00000000 
 285      00000000 
 285      00
 286 0024 0200     		.half	2
 287 0026 0000     		.half	0
 288 0028 020100   		.string	"\002\001"
 289 002b 00000000 		.zero	13
 289      00000000 
 289      00000000 
 289      00
 290 0038 0C00     		.half	12
 291 003a 0082     		.half	-32256
 292 003c 032800   		.string	"\003("
 293 003f 00000000 		.zero	13
 293      00000000 
 293      00000000 
 293      00
 294 004c 0200     		.half	2
 295 004e 0000     		.half	0
 296 0050 030100   		.string	"\003\001"
 297 0053 00000000 		.zero	13
 297      00000000 
 297      00000000 
 297      00
 298 0060 1000     		.half	16
 299 0062 0080     		.half	-32768
 300 0064 022900   		.string	"\002)"
 301 0067 00000000 		.zero	13
 301      00000000 
 301      00000000 
 301      00
 302 0074 0A00     		.half	10
 303 0076 0080     		.half	-32768
 304              		.section	.sbss.datatrans_srv_rx_cb,"aw",@nobits
 305              		.align	2
 306              		.set	.LANCHOR0,. + 0
 309              	datatrans_srv_rx_cb:
 310 0000 00000000 		.zero	4
 311              		.section	.sbss.svc_id,"aw",@nobits
 312              		.set	.LANCHOR3,. + 0
 315              	svc_id:
 316 0000 00       		.zero	1
 317              		.section	.srodata.ble_datatrans_srv_svc_uuid,"a"
 318              		.align	2
 319              		.set	.LANCHOR2,. + 0
 322              	ble_datatrans_srv_svc_uuid:
 323 0000 0101     		.ascii	"\001\001"
 324              		.text
 325              	.Letext0:
 326              		.file 2 "c:\\users\\stapi\\onedrive\\desktop\\gd32vw553\\embeddedbuilder_v1.4.7.26843\\tools\\nucl
 327              		.file 3 "c:\\users\\stapi\\onedrive\\desktop\\gd32vw553\\embeddedbuilder_v1.4.7.26843\\tools\\nucl
 328              		.file 4 "..\\..\\..\\..\\blesw\\src\\export/ble_error.h"
 329              		.file 5 "..\\..\\..\\..\\blesw\\src\\export/ble_gatt.h"
 330              		.file 6 "..\\..\\..\\..\\blesw\\src\\export/ble_gap.h"
 331              		.file 7 "..\\..\\..\\..\\blesw\\src\\export/ble_conn.h"
 332              		.file 8 "..\\..\\..\\..\\blesw\\src\\export/ble_gatts.h"
 333              		.file 9 "C:/Users/stapi/OneDrive/Desktop/GD32VW553/GD32VW55X_Wifi_BLE_SDK/GD32VW55x_RELEASE_V1.0.2
 334              		.file 10 "..\\..\\..\\..\\util\\include/dbg_print.h"
 335              		.file 11 "..\\..\\..\\..\\util\\include/debug_print.h"