   1              		.file	"ble_diss.c"
   2              		.option nopic
   3              		.attribute arch, "rv32i2p0_m2p0_a2p0_f2p0_c2p0_b_p0p94"
   4              		.attribute unaligned_access, 0
   5              		.attribute stack_align, 16
   6              		.text
   7              	.Ltext0:
   8              		.cfi_sections	.debug_frame
   9              		.section	.text.ble_diss_srv_cb,"ax",@progbits
  10              		.align	1
  12              	ble_diss_srv_cb:
  13              	.LFB19:
  14              		.file 1 "C:/Users/stapi/OneDrive/Desktop/GD32VW553/V1_MQTT_OK/GD32VW55X_Wifi_BLE_SDK/GD32VW55x_REL
   1:C:/Users/stapi/OneDrive/Desktop/GD32VW553/V1_MQTT_OK/GD32VW55X_Wifi_BLE_SDK/GD32VW55x_RELEASE_V1.0.2/MSDK/ble/profile/dis\ble_diss.c **** /*!
   2:C:/Users/stapi/OneDrive/Desktop/GD32VW553/V1_MQTT_OK/GD32VW55X_Wifi_BLE_SDK/GD32VW55x_RELEASE_V1.0.2/MSDK/ble/profile/dis\ble_diss.c ****     \file    ble_diss.c
   3:C:/Users/stapi/OneDrive/Desktop/GD32VW553/V1_MQTT_OK/GD32VW55X_Wifi_BLE_SDK/GD32VW55x_RELEASE_V1.0.2/MSDK/ble/profile/dis\ble_diss.c ****     \brief   Implementation of device information service server.
   4:C:/Users/stapi/OneDrive/Desktop/GD32VW553/V1_MQTT_OK/GD32VW55X_Wifi_BLE_SDK/GD32VW55x_RELEASE_V1.0.2/MSDK/ble/profile/dis\ble_diss.c **** 
   5:C:/Users/stapi/OneDrive/Desktop/GD32VW553/V1_MQTT_OK/GD32VW55X_Wifi_BLE_SDK/GD32VW55x_RELEASE_V1.0.2/MSDK/ble/profile/dis\ble_diss.c ****     \version 2023-07-20, V1.0.0, firmware for GD32VW55x
   6:C:/Users/stapi/OneDrive/Desktop/GD32VW553/V1_MQTT_OK/GD32VW55X_Wifi_BLE_SDK/GD32VW55x_RELEASE_V1.0.2/MSDK/ble/profile/dis\ble_diss.c **** */
   7:C:/Users/stapi/OneDrive/Desktop/GD32VW553/V1_MQTT_OK/GD32VW55X_Wifi_BLE_SDK/GD32VW55x_RELEASE_V1.0.2/MSDK/ble/profile/dis\ble_diss.c **** 
   8:C:/Users/stapi/OneDrive/Desktop/GD32VW553/V1_MQTT_OK/GD32VW55X_Wifi_BLE_SDK/GD32VW55x_RELEASE_V1.0.2/MSDK/ble/profile/dis\ble_diss.c **** /*
   9:C:/Users/stapi/OneDrive/Desktop/GD32VW553/V1_MQTT_OK/GD32VW55X_Wifi_BLE_SDK/GD32VW55x_RELEASE_V1.0.2/MSDK/ble/profile/dis\ble_diss.c ****     Copyright (c) 2023, GigaDevice Semiconductor Inc.
  10:C:/Users/stapi/OneDrive/Desktop/GD32VW553/V1_MQTT_OK/GD32VW55X_Wifi_BLE_SDK/GD32VW55x_RELEASE_V1.0.2/MSDK/ble/profile/dis\ble_diss.c **** 
  11:C:/Users/stapi/OneDrive/Desktop/GD32VW553/V1_MQTT_OK/GD32VW55X_Wifi_BLE_SDK/GD32VW55x_RELEASE_V1.0.2/MSDK/ble/profile/dis\ble_diss.c ****     Redistribution and use in source and binary forms, with or without modification,
  12:C:/Users/stapi/OneDrive/Desktop/GD32VW553/V1_MQTT_OK/GD32VW55X_Wifi_BLE_SDK/GD32VW55x_RELEASE_V1.0.2/MSDK/ble/profile/dis\ble_diss.c **** are permitted provided that the following conditions are met:
  13:C:/Users/stapi/OneDrive/Desktop/GD32VW553/V1_MQTT_OK/GD32VW55X_Wifi_BLE_SDK/GD32VW55x_RELEASE_V1.0.2/MSDK/ble/profile/dis\ble_diss.c **** 
  14:C:/Users/stapi/OneDrive/Desktop/GD32VW553/V1_MQTT_OK/GD32VW55X_Wifi_BLE_SDK/GD32VW55x_RELEASE_V1.0.2/MSDK/ble/profile/dis\ble_diss.c ****     1. Redistributions of source code must retain the above copyright notice, this
  15:C:/Users/stapi/OneDrive/Desktop/GD32VW553/V1_MQTT_OK/GD32VW55X_Wifi_BLE_SDK/GD32VW55x_RELEASE_V1.0.2/MSDK/ble/profile/dis\ble_diss.c ****        list of conditions and the following disclaimer.
  16:C:/Users/stapi/OneDrive/Desktop/GD32VW553/V1_MQTT_OK/GD32VW55X_Wifi_BLE_SDK/GD32VW55x_RELEASE_V1.0.2/MSDK/ble/profile/dis\ble_diss.c ****     2. Redistributions in binary form must reproduce the above copyright notice,
  17:C:/Users/stapi/OneDrive/Desktop/GD32VW553/V1_MQTT_OK/GD32VW55X_Wifi_BLE_SDK/GD32VW55x_RELEASE_V1.0.2/MSDK/ble/profile/dis\ble_diss.c ****        this list of conditions and the following disclaimer in the documentation
  18:C:/Users/stapi/OneDrive/Desktop/GD32VW553/V1_MQTT_OK/GD32VW55X_Wifi_BLE_SDK/GD32VW55x_RELEASE_V1.0.2/MSDK/ble/profile/dis\ble_diss.c ****        and/or other materials provided with the distribution.
  19:C:/Users/stapi/OneDrive/Desktop/GD32VW553/V1_MQTT_OK/GD32VW55X_Wifi_BLE_SDK/GD32VW55x_RELEASE_V1.0.2/MSDK/ble/profile/dis\ble_diss.c ****     3. Neither the name of the copyright holder nor the names of its contributors
  20:C:/Users/stapi/OneDrive/Desktop/GD32VW553/V1_MQTT_OK/GD32VW55X_Wifi_BLE_SDK/GD32VW55x_RELEASE_V1.0.2/MSDK/ble/profile/dis\ble_diss.c ****        may be used to endorse or promote products derived from this software without
  21:C:/Users/stapi/OneDrive/Desktop/GD32VW553/V1_MQTT_OK/GD32VW55X_Wifi_BLE_SDK/GD32VW55x_RELEASE_V1.0.2/MSDK/ble/profile/dis\ble_diss.c ****        specific prior written permission.
  22:C:/Users/stapi/OneDrive/Desktop/GD32VW553/V1_MQTT_OK/GD32VW55X_Wifi_BLE_SDK/GD32VW55x_RELEASE_V1.0.2/MSDK/ble/profile/dis\ble_diss.c **** 
  23:C:/Users/stapi/OneDrive/Desktop/GD32VW553/V1_MQTT_OK/GD32VW55X_Wifi_BLE_SDK/GD32VW55x_RELEASE_V1.0.2/MSDK/ble/profile/dis\ble_diss.c ****     THIS SOFTWARE IS PROVIDED BY THE COPYRIGHT HOLDERS AND CONTRIBUTORS "AS IS"
  24:C:/Users/stapi/OneDrive/Desktop/GD32VW553/V1_MQTT_OK/GD32VW55X_Wifi_BLE_SDK/GD32VW55x_RELEASE_V1.0.2/MSDK/ble/profile/dis\ble_diss.c **** AND ANY EXPRESS OR IMPLIED WARRANTIES, INCLUDING, BUT NOT LIMITED TO, THE IMPLIED
  25:C:/Users/stapi/OneDrive/Desktop/GD32VW553/V1_MQTT_OK/GD32VW55X_Wifi_BLE_SDK/GD32VW55x_RELEASE_V1.0.2/MSDK/ble/profile/dis\ble_diss.c **** WARRANTIES OF MERCHANTABILITY AND FITNESS FOR A PARTICULAR PURPOSE ARE DISCLAIMED.
  26:C:/Users/stapi/OneDrive/Desktop/GD32VW553/V1_MQTT_OK/GD32VW55X_Wifi_BLE_SDK/GD32VW55x_RELEASE_V1.0.2/MSDK/ble/profile/dis\ble_diss.c **** IN NO EVENT SHALL THE COPYRIGHT HOLDER OR CONTRIBUTORS BE LIABLE FOR ANY DIRECT,
  27:C:/Users/stapi/OneDrive/Desktop/GD32VW553/V1_MQTT_OK/GD32VW55X_Wifi_BLE_SDK/GD32VW55x_RELEASE_V1.0.2/MSDK/ble/profile/dis\ble_diss.c **** INDIRECT, INCIDENTAL, SPECIAL, EXEMPLARY, OR CONSEQUENTIAL DAMAGES (INCLUDING, BUT
  28:C:/Users/stapi/OneDrive/Desktop/GD32VW553/V1_MQTT_OK/GD32VW55X_Wifi_BLE_SDK/GD32VW55x_RELEASE_V1.0.2/MSDK/ble/profile/dis\ble_diss.c **** NOT LIMITED TO, PROCUREMENT OF SUBSTITUTE GOODS OR SERVICES; LOSS OF USE, DATA, OR
  29:C:/Users/stapi/OneDrive/Desktop/GD32VW553/V1_MQTT_OK/GD32VW55X_Wifi_BLE_SDK/GD32VW55x_RELEASE_V1.0.2/MSDK/ble/profile/dis\ble_diss.c **** PROFITS; OR BUSINESS INTERRUPTION) HOWEVER CAUSED AND ON ANY THEORY OF LIABILITY,
  30:C:/Users/stapi/OneDrive/Desktop/GD32VW553/V1_MQTT_OK/GD32VW55X_Wifi_BLE_SDK/GD32VW55x_RELEASE_V1.0.2/MSDK/ble/profile/dis\ble_diss.c **** WHETHER IN CONTRACT, STRICT LIABILITY, OR TORT (INCLUDING NEGLIGENCE OR OTHERWISE)
  31:C:/Users/stapi/OneDrive/Desktop/GD32VW553/V1_MQTT_OK/GD32VW55X_Wifi_BLE_SDK/GD32VW55x_RELEASE_V1.0.2/MSDK/ble/profile/dis\ble_diss.c **** ARISING IN ANY WAY OUT OF THE USE OF THIS SOFTWARE, EVEN IF ADVISED OF THE POSSIBILITY
  32:C:/Users/stapi/OneDrive/Desktop/GD32VW553/V1_MQTT_OK/GD32VW55X_Wifi_BLE_SDK/GD32VW55x_RELEASE_V1.0.2/MSDK/ble/profile/dis\ble_diss.c **** OF SUCH DAMAGE.
  33:C:/Users/stapi/OneDrive/Desktop/GD32VW553/V1_MQTT_OK/GD32VW55X_Wifi_BLE_SDK/GD32VW55x_RELEASE_V1.0.2/MSDK/ble/profile/dis\ble_diss.c **** */
  34:C:/Users/stapi/OneDrive/Desktop/GD32VW553/V1_MQTT_OK/GD32VW55X_Wifi_BLE_SDK/GD32VW55x_RELEASE_V1.0.2/MSDK/ble/profile/dis\ble_diss.c **** 
  35:C:/Users/stapi/OneDrive/Desktop/GD32VW553/V1_MQTT_OK/GD32VW55X_Wifi_BLE_SDK/GD32VW55x_RELEASE_V1.0.2/MSDK/ble/profile/dis\ble_diss.c **** #include "ble_profile_config.h"
  36:C:/Users/stapi/OneDrive/Desktop/GD32VW553/V1_MQTT_OK/GD32VW55X_Wifi_BLE_SDK/GD32VW55x_RELEASE_V1.0.2/MSDK/ble/profile/dis\ble_diss.c **** 
  37:C:/Users/stapi/OneDrive/Desktop/GD32VW553/V1_MQTT_OK/GD32VW55X_Wifi_BLE_SDK/GD32VW55x_RELEASE_V1.0.2/MSDK/ble/profile/dis\ble_diss.c **** #if (BLE_PROFILE_DIS_SERVER)
  38:C:/Users/stapi/OneDrive/Desktop/GD32VW553/V1_MQTT_OK/GD32VW55X_Wifi_BLE_SDK/GD32VW55x_RELEASE_V1.0.2/MSDK/ble/profile/dis\ble_diss.c **** #include <string.h>
  39:C:/Users/stapi/OneDrive/Desktop/GD32VW553/V1_MQTT_OK/GD32VW55X_Wifi_BLE_SDK/GD32VW55x_RELEASE_V1.0.2/MSDK/ble/profile/dis\ble_diss.c **** 
  40:C:/Users/stapi/OneDrive/Desktop/GD32VW553/V1_MQTT_OK/GD32VW55X_Wifi_BLE_SDK/GD32VW55x_RELEASE_V1.0.2/MSDK/ble/profile/dis\ble_diss.c **** #include "ble_utils.h"
  41:C:/Users/stapi/OneDrive/Desktop/GD32VW553/V1_MQTT_OK/GD32VW55X_Wifi_BLE_SDK/GD32VW55x_RELEASE_V1.0.2/MSDK/ble/profile/dis\ble_diss.c **** #include "ble_gatt.h"
  42:C:/Users/stapi/OneDrive/Desktop/GD32VW553/V1_MQTT_OK/GD32VW55X_Wifi_BLE_SDK/GD32VW55x_RELEASE_V1.0.2/MSDK/ble/profile/dis\ble_diss.c **** #include "ble_gatts.h"
  43:C:/Users/stapi/OneDrive/Desktop/GD32VW553/V1_MQTT_OK/GD32VW55X_Wifi_BLE_SDK/GD32VW55x_RELEASE_V1.0.2/MSDK/ble/profile/dis\ble_diss.c **** #include "ble_diss.h"
  44:C:/Users/stapi/OneDrive/Desktop/GD32VW553/V1_MQTT_OK/GD32VW55X_Wifi_BLE_SDK/GD32VW55x_RELEASE_V1.0.2/MSDK/ble/profile/dis\ble_diss.c **** #include "wrapper_os.h"
  45:C:/Users/stapi/OneDrive/Desktop/GD32VW553/V1_MQTT_OK/GD32VW55X_Wifi_BLE_SDK/GD32VW55x_RELEASE_V1.0.2/MSDK/ble/profile/dis\ble_diss.c **** 
  46:C:/Users/stapi/OneDrive/Desktop/GD32VW553/V1_MQTT_OK/GD32VW55X_Wifi_BLE_SDK/GD32VW55x_RELEASE_V1.0.2/MSDK/ble/profile/dis\ble_diss.c **** /* System ID string length */
  47:C:/Users/stapi/OneDrive/Desktop/GD32VW553/V1_MQTT_OK/GD32VW55X_Wifi_BLE_SDK/GD32VW55x_RELEASE_V1.0.2/MSDK/ble/profile/dis\ble_diss.c **** #define BLE_DIS_SYS_ID_LEN                          (0x08)
  48:C:/Users/stapi/OneDrive/Desktop/GD32VW553/V1_MQTT_OK/GD32VW55X_Wifi_BLE_SDK/GD32VW55x_RELEASE_V1.0.2/MSDK/ble/profile/dis\ble_diss.c **** 
  49:C:/Users/stapi/OneDrive/Desktop/GD32VW553/V1_MQTT_OK/GD32VW55X_Wifi_BLE_SDK/GD32VW55x_RELEASE_V1.0.2/MSDK/ble/profile/dis\ble_diss.c **** /* PnP ID length */
  50:C:/Users/stapi/OneDrive/Desktop/GD32VW553/V1_MQTT_OK/GD32VW55X_Wifi_BLE_SDK/GD32VW55x_RELEASE_V1.0.2/MSDK/ble/profile/dis\ble_diss.c **** #define BLE_DIS_PNP_ID_LEN                          (0x07)
  51:C:/Users/stapi/OneDrive/Desktop/GD32VW553/V1_MQTT_OK/GD32VW55X_Wifi_BLE_SDK/GD32VW55x_RELEASE_V1.0.2/MSDK/ble/profile/dis\ble_diss.c **** 
  52:C:/Users/stapi/OneDrive/Desktop/GD32VW553/V1_MQTT_OK/GD32VW55X_Wifi_BLE_SDK/GD32VW55x_RELEASE_V1.0.2/MSDK/ble/profile/dis\ble_diss.c **** /* DIS related service/characteristic UUID value */
  53:C:/Users/stapi/OneDrive/Desktop/GD32VW553/V1_MQTT_OK/GD32VW55X_Wifi_BLE_SDK/GD32VW55x_RELEASE_V1.0.2/MSDK/ble/profile/dis\ble_diss.c **** typedef enum
  54:C:/Users/stapi/OneDrive/Desktop/GD32VW553/V1_MQTT_OK/GD32VW55X_Wifi_BLE_SDK/GD32VW55x_RELEASE_V1.0.2/MSDK/ble/profile/dis\ble_diss.c **** {
  55:C:/Users/stapi/OneDrive/Desktop/GD32VW553/V1_MQTT_OK/GD32VW55X_Wifi_BLE_SDK/GD32VW55x_RELEASE_V1.0.2/MSDK/ble/profile/dis\ble_diss.c ****     BLE_DIS_SVC_DEVICE_INFO  = BLE_GATT_UUID_16_LSB(0x180A),    /*!< Device Information Service */
  56:C:/Users/stapi/OneDrive/Desktop/GD32VW553/V1_MQTT_OK/GD32VW55X_Wifi_BLE_SDK/GD32VW55x_RELEASE_V1.0.2/MSDK/ble/profile/dis\ble_diss.c **** 
  57:C:/Users/stapi/OneDrive/Desktop/GD32VW553/V1_MQTT_OK/GD32VW55X_Wifi_BLE_SDK/GD32VW55x_RELEASE_V1.0.2/MSDK/ble/profile/dis\ble_diss.c ****     BLE_DIS_CHAR_SYS_ID      = BLE_GATT_UUID_16_LSB(0x2A23),    /*!< System ID characteristic */
  58:C:/Users/stapi/OneDrive/Desktop/GD32VW553/V1_MQTT_OK/GD32VW55X_Wifi_BLE_SDK/GD32VW55x_RELEASE_V1.0.2/MSDK/ble/profile/dis\ble_diss.c ****     BLE_DIS_CHAR_MODEL_NB    = BLE_GATT_UUID_16_LSB(0x2A24),    /*!< Model Number characteristic */
  59:C:/Users/stapi/OneDrive/Desktop/GD32VW553/V1_MQTT_OK/GD32VW55X_Wifi_BLE_SDK/GD32VW55x_RELEASE_V1.0.2/MSDK/ble/profile/dis\ble_diss.c ****     BLE_DIS_CHAR_SERIAL_NB   = BLE_GATT_UUID_16_LSB(0x2A25),    /*!< Serial Number characteristic *
  60:C:/Users/stapi/OneDrive/Desktop/GD32VW553/V1_MQTT_OK/GD32VW55X_Wifi_BLE_SDK/GD32VW55x_RELEASE_V1.0.2/MSDK/ble/profile/dis\ble_diss.c ****     BLE_DIS_CHAR_FW_REV      = BLE_GATT_UUID_16_LSB(0x2A26),    /*!< Firmware Revision characterist
  61:C:/Users/stapi/OneDrive/Desktop/GD32VW553/V1_MQTT_OK/GD32VW55X_Wifi_BLE_SDK/GD32VW55x_RELEASE_V1.0.2/MSDK/ble/profile/dis\ble_diss.c ****     BLE_DIS_CHAR_HW_REV      = BLE_GATT_UUID_16_LSB(0x2A27),    /*!< Hardware Rsssevision character
  62:C:/Users/stapi/OneDrive/Desktop/GD32VW553/V1_MQTT_OK/GD32VW55X_Wifi_BLE_SDK/GD32VW55x_RELEASE_V1.0.2/MSDK/ble/profile/dis\ble_diss.c ****     BLE_DIS_CHAR_SW_REV      = BLE_GATT_UUID_16_LSB(0x2A28),    /*!< Software Revision characterist
  63:C:/Users/stapi/OneDrive/Desktop/GD32VW553/V1_MQTT_OK/GD32VW55X_Wifi_BLE_SDK/GD32VW55x_RELEASE_V1.0.2/MSDK/ble/profile/dis\ble_diss.c ****     BLE_DIS_CHAR_MANUF_NAME  = BLE_GATT_UUID_16_LSB(0x2A29),    /*!< Manufacturer Name characterist
  64:C:/Users/stapi/OneDrive/Desktop/GD32VW553/V1_MQTT_OK/GD32VW55X_Wifi_BLE_SDK/GD32VW55x_RELEASE_V1.0.2/MSDK/ble/profile/dis\ble_diss.c ****     BLE_DIS_CHAR_IEEE_CERTIF = BLE_GATT_UUID_16_LSB(0x2A2A),    /*!< IEEE Regulatory Certification 
  65:C:/Users/stapi/OneDrive/Desktop/GD32VW553/V1_MQTT_OK/GD32VW55X_Wifi_BLE_SDK/GD32VW55x_RELEASE_V1.0.2/MSDK/ble/profile/dis\ble_diss.c ****     BLE_DIS_CHAR_PNP_ID      = BLE_GATT_UUID_16_LSB(0x2A50),    /*!< PnP ID characteristic */
  66:C:/Users/stapi/OneDrive/Desktop/GD32VW553/V1_MQTT_OK/GD32VW55X_Wifi_BLE_SDK/GD32VW55x_RELEASE_V1.0.2/MSDK/ble/profile/dis\ble_diss.c **** } ble_dis_char_uuid_t;
  67:C:/Users/stapi/OneDrive/Desktop/GD32VW553/V1_MQTT_OK/GD32VW55X_Wifi_BLE_SDK/GD32VW55x_RELEASE_V1.0.2/MSDK/ble/profile/dis\ble_diss.c **** 
  68:C:/Users/stapi/OneDrive/Desktop/GD32VW553/V1_MQTT_OK/GD32VW55X_Wifi_BLE_SDK/GD32VW55x_RELEASE_V1.0.2/MSDK/ble/profile/dis\ble_diss.c **** /* DIS Attribute database handle list */
  69:C:/Users/stapi/OneDrive/Desktop/GD32VW553/V1_MQTT_OK/GD32VW55X_Wifi_BLE_SDK/GD32VW55x_RELEASE_V1.0.2/MSDK/ble/profile/dis\ble_diss.c **** typedef enum
  70:C:/Users/stapi/OneDrive/Desktop/GD32VW553/V1_MQTT_OK/GD32VW55X_Wifi_BLE_SDK/GD32VW55x_RELEASE_V1.0.2/MSDK/ble/profile/dis\ble_diss.c **** {
  71:C:/Users/stapi/OneDrive/Desktop/GD32VW553/V1_MQTT_OK/GD32VW55X_Wifi_BLE_SDK/GD32VW55x_RELEASE_V1.0.2/MSDK/ble/profile/dis\ble_diss.c ****     BLE_DIS_HDL_SVC,                /*!< Device Information Service Declaration */
  72:C:/Users/stapi/OneDrive/Desktop/GD32VW553/V1_MQTT_OK/GD32VW55X_Wifi_BLE_SDK/GD32VW55x_RELEASE_V1.0.2/MSDK/ble/profile/dis\ble_diss.c **** 
  73:C:/Users/stapi/OneDrive/Desktop/GD32VW553/V1_MQTT_OK/GD32VW55X_Wifi_BLE_SDK/GD32VW55x_RELEASE_V1.0.2/MSDK/ble/profile/dis\ble_diss.c ****     BLE_DIS_HDL_MANUFACT_NAME_CHAR, /*!< Manufacturer Name Characteristic Declaration */
  74:C:/Users/stapi/OneDrive/Desktop/GD32VW553/V1_MQTT_OK/GD32VW55X_Wifi_BLE_SDK/GD32VW55x_RELEASE_V1.0.2/MSDK/ble/profile/dis\ble_diss.c ****     BLE_DIS_HDL_MANUFACT_NAME_VAL,  /*!< Manufacturer Name Characteristic Value */
  75:C:/Users/stapi/OneDrive/Desktop/GD32VW553/V1_MQTT_OK/GD32VW55X_Wifi_BLE_SDK/GD32VW55x_RELEASE_V1.0.2/MSDK/ble/profile/dis\ble_diss.c **** 
  76:C:/Users/stapi/OneDrive/Desktop/GD32VW553/V1_MQTT_OK/GD32VW55X_Wifi_BLE_SDK/GD32VW55x_RELEASE_V1.0.2/MSDK/ble/profile/dis\ble_diss.c ****     BLE_DIS_HDL_MODEL_NB_CHAR,      /*!< Model Number String Characteristic Declaration */
  77:C:/Users/stapi/OneDrive/Desktop/GD32VW553/V1_MQTT_OK/GD32VW55X_Wifi_BLE_SDK/GD32VW55x_RELEASE_V1.0.2/MSDK/ble/profile/dis\ble_diss.c ****     BLE_DIS_HDL_MODEL_NB_VAL,       /*!< Model Number String Characteristic Value */
  78:C:/Users/stapi/OneDrive/Desktop/GD32VW553/V1_MQTT_OK/GD32VW55X_Wifi_BLE_SDK/GD32VW55x_RELEASE_V1.0.2/MSDK/ble/profile/dis\ble_diss.c **** 
  79:C:/Users/stapi/OneDrive/Desktop/GD32VW553/V1_MQTT_OK/GD32VW55X_Wifi_BLE_SDK/GD32VW55x_RELEASE_V1.0.2/MSDK/ble/profile/dis\ble_diss.c ****     BLE_DIS_HDL_SERIAL_NB_CHAR,     /*!< Serial Number String Characteristic Declaration */
  80:C:/Users/stapi/OneDrive/Desktop/GD32VW553/V1_MQTT_OK/GD32VW55X_Wifi_BLE_SDK/GD32VW55x_RELEASE_V1.0.2/MSDK/ble/profile/dis\ble_diss.c ****     BLE_DIS_HDL_SERIAL_NB_VAL,      /*!< Serial Number String Characteristic Value */
  81:C:/Users/stapi/OneDrive/Desktop/GD32VW553/V1_MQTT_OK/GD32VW55X_Wifi_BLE_SDK/GD32VW55x_RELEASE_V1.0.2/MSDK/ble/profile/dis\ble_diss.c **** 
  82:C:/Users/stapi/OneDrive/Desktop/GD32VW553/V1_MQTT_OK/GD32VW55X_Wifi_BLE_SDK/GD32VW55x_RELEASE_V1.0.2/MSDK/ble/profile/dis\ble_diss.c ****     BLE_DIS_HDL_HARD_REV_CHAR,      /*!< Hardware Revision String Characteristic Declaration */
  83:C:/Users/stapi/OneDrive/Desktop/GD32VW553/V1_MQTT_OK/GD32VW55X_Wifi_BLE_SDK/GD32VW55x_RELEASE_V1.0.2/MSDK/ble/profile/dis\ble_diss.c ****     BLE_DIS_HDL_HARD_REV_VAL,       /*!< Hardware Revision String Characteristic Value */
  84:C:/Users/stapi/OneDrive/Desktop/GD32VW553/V1_MQTT_OK/GD32VW55X_Wifi_BLE_SDK/GD32VW55x_RELEASE_V1.0.2/MSDK/ble/profile/dis\ble_diss.c **** 
  85:C:/Users/stapi/OneDrive/Desktop/GD32VW553/V1_MQTT_OK/GD32VW55X_Wifi_BLE_SDK/GD32VW55x_RELEASE_V1.0.2/MSDK/ble/profile/dis\ble_diss.c ****     BLE_DIS_HDL_FIRM_REV_CHAR,      /*!< Firmware Revision String Characteristic Declaration */
  86:C:/Users/stapi/OneDrive/Desktop/GD32VW553/V1_MQTT_OK/GD32VW55X_Wifi_BLE_SDK/GD32VW55x_RELEASE_V1.0.2/MSDK/ble/profile/dis\ble_diss.c ****     BLE_DIS_HDL_FIRM_REV_VAL,       /*!< Firmware Revision String Characteristic Value */
  87:C:/Users/stapi/OneDrive/Desktop/GD32VW553/V1_MQTT_OK/GD32VW55X_Wifi_BLE_SDK/GD32VW55x_RELEASE_V1.0.2/MSDK/ble/profile/dis\ble_diss.c **** 
  88:C:/Users/stapi/OneDrive/Desktop/GD32VW553/V1_MQTT_OK/GD32VW55X_Wifi_BLE_SDK/GD32VW55x_RELEASE_V1.0.2/MSDK/ble/profile/dis\ble_diss.c ****     BLE_DIS_HDL_SW_REV_CHAR,        /*!< Software Revision String Characteristic Declaration */
  89:C:/Users/stapi/OneDrive/Desktop/GD32VW553/V1_MQTT_OK/GD32VW55X_Wifi_BLE_SDK/GD32VW55x_RELEASE_V1.0.2/MSDK/ble/profile/dis\ble_diss.c ****     BLE_DIS_HDL_SW_REV_VAL,         /*!< Software Revision String Characteristic Value */
  90:C:/Users/stapi/OneDrive/Desktop/GD32VW553/V1_MQTT_OK/GD32VW55X_Wifi_BLE_SDK/GD32VW55x_RELEASE_V1.0.2/MSDK/ble/profile/dis\ble_diss.c **** 
  91:C:/Users/stapi/OneDrive/Desktop/GD32VW553/V1_MQTT_OK/GD32VW55X_Wifi_BLE_SDK/GD32VW55x_RELEASE_V1.0.2/MSDK/ble/profile/dis\ble_diss.c ****     BLE_DIS_HDL_SYSTEM_ID_CHAR,     /*!< System ID Characteristic Declaration */
  92:C:/Users/stapi/OneDrive/Desktop/GD32VW553/V1_MQTT_OK/GD32VW55X_Wifi_BLE_SDK/GD32VW55x_RELEASE_V1.0.2/MSDK/ble/profile/dis\ble_diss.c ****     BLE_DIS_HDL_SYSTEM_ID_VAL,      /*!< System ID Characteristic Value */
  93:C:/Users/stapi/OneDrive/Desktop/GD32VW553/V1_MQTT_OK/GD32VW55X_Wifi_BLE_SDK/GD32VW55x_RELEASE_V1.0.2/MSDK/ble/profile/dis\ble_diss.c **** 
  94:C:/Users/stapi/OneDrive/Desktop/GD32VW553/V1_MQTT_OK/GD32VW55X_Wifi_BLE_SDK/GD32VW55x_RELEASE_V1.0.2/MSDK/ble/profile/dis\ble_diss.c ****     BLE_DIS_HDL_IEEE_CHAR,          /*!< IEEE Regulatory Certification Data List Characteristic Dec
  95:C:/Users/stapi/OneDrive/Desktop/GD32VW553/V1_MQTT_OK/GD32VW55X_Wifi_BLE_SDK/GD32VW55x_RELEASE_V1.0.2/MSDK/ble/profile/dis\ble_diss.c ****     BLE_DIS_HDL_IEEE_VAL,           /*!< IEEE Regulatory Certification Data List Characteristic Val
  96:C:/Users/stapi/OneDrive/Desktop/GD32VW553/V1_MQTT_OK/GD32VW55X_Wifi_BLE_SDK/GD32VW55x_RELEASE_V1.0.2/MSDK/ble/profile/dis\ble_diss.c **** 
  97:C:/Users/stapi/OneDrive/Desktop/GD32VW553/V1_MQTT_OK/GD32VW55X_Wifi_BLE_SDK/GD32VW55x_RELEASE_V1.0.2/MSDK/ble/profile/dis\ble_diss.c ****     BLE_DIS_HDL_PNP_ID_CHAR,        /*!< PnP ID Characteristic Declaration */
  98:C:/Users/stapi/OneDrive/Desktop/GD32VW553/V1_MQTT_OK/GD32VW55X_Wifi_BLE_SDK/GD32VW55x_RELEASE_V1.0.2/MSDK/ble/profile/dis\ble_diss.c ****     BLE_DIS_HDL_PNP_ID_VAL,         /*!< PnP ID Characteristic Value */
  99:C:/Users/stapi/OneDrive/Desktop/GD32VW553/V1_MQTT_OK/GD32VW55X_Wifi_BLE_SDK/GD32VW55x_RELEASE_V1.0.2/MSDK/ble/profile/dis\ble_diss.c **** 
 100:C:/Users/stapi/OneDrive/Desktop/GD32VW553/V1_MQTT_OK/GD32VW55X_Wifi_BLE_SDK/GD32VW55x_RELEASE_V1.0.2/MSDK/ble/profile/dis\ble_diss.c ****     BLE_DIS_HDL_NB,
 101:C:/Users/stapi/OneDrive/Desktop/GD32VW553/V1_MQTT_OK/GD32VW55X_Wifi_BLE_SDK/GD32VW55x_RELEASE_V1.0.2/MSDK/ble/profile/dis\ble_diss.c **** } ble_diss_attr_db_handle_t;
 102:C:/Users/stapi/OneDrive/Desktop/GD32VW553/V1_MQTT_OK/GD32VW55X_Wifi_BLE_SDK/GD32VW55x_RELEASE_V1.0.2/MSDK/ble/profile/dis\ble_diss.c **** 
 103:C:/Users/stapi/OneDrive/Desktop/GD32VW553/V1_MQTT_OK/GD32VW55X_Wifi_BLE_SDK/GD32VW55x_RELEASE_V1.0.2/MSDK/ble/profile/dis\ble_diss.c **** /* DIS value structure */
 104:C:/Users/stapi/OneDrive/Desktop/GD32VW553/V1_MQTT_OK/GD32VW55X_Wifi_BLE_SDK/GD32VW55x_RELEASE_V1.0.2/MSDK/ble/profile/dis\ble_diss.c **** typedef struct
 105:C:/Users/stapi/OneDrive/Desktop/GD32VW553/V1_MQTT_OK/GD32VW55X_Wifi_BLE_SDK/GD32VW55x_RELEASE_V1.0.2/MSDK/ble/profile/dis\ble_diss.c **** {
 106:C:/Users/stapi/OneDrive/Desktop/GD32VW553/V1_MQTT_OK/GD32VW55X_Wifi_BLE_SDK/GD32VW55x_RELEASE_V1.0.2/MSDK/ble/profile/dis\ble_diss.c ****     uint8_t manufact_name[BLE_DIS_VAL_MAX_LEN];     /*!< Manufacturer Name String */
 107:C:/Users/stapi/OneDrive/Desktop/GD32VW553/V1_MQTT_OK/GD32VW55X_Wifi_BLE_SDK/GD32VW55x_RELEASE_V1.0.2/MSDK/ble/profile/dis\ble_diss.c ****     uint8_t manufact_name_len;
 108:C:/Users/stapi/OneDrive/Desktop/GD32VW553/V1_MQTT_OK/GD32VW55X_Wifi_BLE_SDK/GD32VW55x_RELEASE_V1.0.2/MSDK/ble/profile/dis\ble_diss.c ****     uint8_t model_num[BLE_DIS_VAL_MAX_LEN];         /*!< Model Number String */
 109:C:/Users/stapi/OneDrive/Desktop/GD32VW553/V1_MQTT_OK/GD32VW55X_Wifi_BLE_SDK/GD32VW55x_RELEASE_V1.0.2/MSDK/ble/profile/dis\ble_diss.c ****     uint8_t model_num_len;
 110:C:/Users/stapi/OneDrive/Desktop/GD32VW553/V1_MQTT_OK/GD32VW55X_Wifi_BLE_SDK/GD32VW55x_RELEASE_V1.0.2/MSDK/ble/profile/dis\ble_diss.c ****     uint8_t serial_num[BLE_DIS_VAL_MAX_LEN];        /*!< Serial Number String */
 111:C:/Users/stapi/OneDrive/Desktop/GD32VW553/V1_MQTT_OK/GD32VW55X_Wifi_BLE_SDK/GD32VW55x_RELEASE_V1.0.2/MSDK/ble/profile/dis\ble_diss.c ****     uint8_t serial_num_len;
 112:C:/Users/stapi/OneDrive/Desktop/GD32VW553/V1_MQTT_OK/GD32VW55X_Wifi_BLE_SDK/GD32VW55x_RELEASE_V1.0.2/MSDK/ble/profile/dis\ble_diss.c ****     uint8_t hw_rev[BLE_DIS_VAL_MAX_LEN];            /*!< Hardware Revision String */
 113:C:/Users/stapi/OneDrive/Desktop/GD32VW553/V1_MQTT_OK/GD32VW55X_Wifi_BLE_SDK/GD32VW55x_RELEASE_V1.0.2/MSDK/ble/profile/dis\ble_diss.c ****     uint8_t hw_rev_len;
 114:C:/Users/stapi/OneDrive/Desktop/GD32VW553/V1_MQTT_OK/GD32VW55X_Wifi_BLE_SDK/GD32VW55x_RELEASE_V1.0.2/MSDK/ble/profile/dis\ble_diss.c ****     uint8_t fw_rev[BLE_DIS_VAL_MAX_LEN];            /*!< Firmware Revision String */
 115:C:/Users/stapi/OneDrive/Desktop/GD32VW553/V1_MQTT_OK/GD32VW55X_Wifi_BLE_SDK/GD32VW55x_RELEASE_V1.0.2/MSDK/ble/profile/dis\ble_diss.c ****     uint8_t fw_rev_len;
 116:C:/Users/stapi/OneDrive/Desktop/GD32VW553/V1_MQTT_OK/GD32VW55X_Wifi_BLE_SDK/GD32VW55x_RELEASE_V1.0.2/MSDK/ble/profile/dis\ble_diss.c ****     uint8_t sw_rev[BLE_DIS_VAL_MAX_LEN];            /*!< Software Revision String */
 117:C:/Users/stapi/OneDrive/Desktop/GD32VW553/V1_MQTT_OK/GD32VW55X_Wifi_BLE_SDK/GD32VW55x_RELEASE_V1.0.2/MSDK/ble/profile/dis\ble_diss.c ****     uint8_t sw_rev_len;
 118:C:/Users/stapi/OneDrive/Desktop/GD32VW553/V1_MQTT_OK/GD32VW55X_Wifi_BLE_SDK/GD32VW55x_RELEASE_V1.0.2/MSDK/ble/profile/dis\ble_diss.c ****     uint8_t sys_id[BLE_DIS_SYS_ID_LEN];             /*!< System ID */
 119:C:/Users/stapi/OneDrive/Desktop/GD32VW553/V1_MQTT_OK/GD32VW55X_Wifi_BLE_SDK/GD32VW55x_RELEASE_V1.0.2/MSDK/ble/profile/dis\ble_diss.c ****     uint8_t ieee_data[BLE_DIS_VAL_MAX_LEN];         /*!< IEEE Regulatory Certification Data List */
 120:C:/Users/stapi/OneDrive/Desktop/GD32VW553/V1_MQTT_OK/GD32VW55X_Wifi_BLE_SDK/GD32VW55x_RELEASE_V1.0.2/MSDK/ble/profile/dis\ble_diss.c ****     uint8_t ieee_data_len;
 121:C:/Users/stapi/OneDrive/Desktop/GD32VW553/V1_MQTT_OK/GD32VW55X_Wifi_BLE_SDK/GD32VW55x_RELEASE_V1.0.2/MSDK/ble/profile/dis\ble_diss.c ****     uint8_t pnp_id[BLE_DIS_PNP_ID_LEN];             /*!< PnP ID */
 122:C:/Users/stapi/OneDrive/Desktop/GD32VW553/V1_MQTT_OK/GD32VW55X_Wifi_BLE_SDK/GD32VW55x_RELEASE_V1.0.2/MSDK/ble/profile/dis\ble_diss.c **** } ble_diss_value_t;
 123:C:/Users/stapi/OneDrive/Desktop/GD32VW553/V1_MQTT_OK/GD32VW55X_Wifi_BLE_SDK/GD32VW55x_RELEASE_V1.0.2/MSDK/ble/profile/dis\ble_diss.c **** 
 124:C:/Users/stapi/OneDrive/Desktop/GD32VW553/V1_MQTT_OK/GD32VW55X_Wifi_BLE_SDK/GD32VW55x_RELEASE_V1.0.2/MSDK/ble/profile/dis\ble_diss.c **** /* DIS Database Description */
 125:C:/Users/stapi/OneDrive/Desktop/GD32VW553/V1_MQTT_OK/GD32VW55X_Wifi_BLE_SDK/GD32VW55x_RELEASE_V1.0.2/MSDK/ble/profile/dis\ble_diss.c **** const ble_gatt_attr_desc_t ble_diss_attr_db[BLE_DIS_HDL_NB] =
 126:C:/Users/stapi/OneDrive/Desktop/GD32VW553/V1_MQTT_OK/GD32VW55X_Wifi_BLE_SDK/GD32VW55x_RELEASE_V1.0.2/MSDK/ble/profile/dis\ble_diss.c **** {
 127:C:/Users/stapi/OneDrive/Desktop/GD32VW553/V1_MQTT_OK/GD32VW55X_Wifi_BLE_SDK/GD32VW55x_RELEASE_V1.0.2/MSDK/ble/profile/dis\ble_diss.c ****     [BLE_DIS_HDL_SVC]                = {UUID_16BIT_TO_ARRAY(BLE_GATT_DECL_PRIMARY_SERVICE), PROP(RD
 128:C:/Users/stapi/OneDrive/Desktop/GD32VW553/V1_MQTT_OK/GD32VW55X_Wifi_BLE_SDK/GD32VW55x_RELEASE_V1.0.2/MSDK/ble/profile/dis\ble_diss.c **** 
 129:C:/Users/stapi/OneDrive/Desktop/GD32VW553/V1_MQTT_OK/GD32VW55X_Wifi_BLE_SDK/GD32VW55x_RELEASE_V1.0.2/MSDK/ble/profile/dis\ble_diss.c ****     [BLE_DIS_HDL_MANUFACT_NAME_CHAR] = {UUID_16BIT_TO_ARRAY(BLE_GATT_DECL_CHARACTERISTIC),  PROP(RD
 130:C:/Users/stapi/OneDrive/Desktop/GD32VW553/V1_MQTT_OK/GD32VW55X_Wifi_BLE_SDK/GD32VW55x_RELEASE_V1.0.2/MSDK/ble/profile/dis\ble_diss.c ****     [BLE_DIS_HDL_MANUFACT_NAME_VAL]  = {UUID_16BIT_TO_ARRAY(BLE_DIS_CHAR_MANUF_NAME),       PROP(RD
 131:C:/Users/stapi/OneDrive/Desktop/GD32VW553/V1_MQTT_OK/GD32VW55X_Wifi_BLE_SDK/GD32VW55x_RELEASE_V1.0.2/MSDK/ble/profile/dis\ble_diss.c **** 
 132:C:/Users/stapi/OneDrive/Desktop/GD32VW553/V1_MQTT_OK/GD32VW55X_Wifi_BLE_SDK/GD32VW55x_RELEASE_V1.0.2/MSDK/ble/profile/dis\ble_diss.c ****     [BLE_DIS_HDL_MODEL_NB_CHAR]      = {UUID_16BIT_TO_ARRAY(BLE_GATT_DECL_CHARACTERISTIC),  PROP(RD
 133:C:/Users/stapi/OneDrive/Desktop/GD32VW553/V1_MQTT_OK/GD32VW55X_Wifi_BLE_SDK/GD32VW55x_RELEASE_V1.0.2/MSDK/ble/profile/dis\ble_diss.c ****     [BLE_DIS_HDL_MODEL_NB_VAL]       = {UUID_16BIT_TO_ARRAY(BLE_DIS_CHAR_MODEL_NB),         PROP(RD
 134:C:/Users/stapi/OneDrive/Desktop/GD32VW553/V1_MQTT_OK/GD32VW55X_Wifi_BLE_SDK/GD32VW55x_RELEASE_V1.0.2/MSDK/ble/profile/dis\ble_diss.c **** 
 135:C:/Users/stapi/OneDrive/Desktop/GD32VW553/V1_MQTT_OK/GD32VW55X_Wifi_BLE_SDK/GD32VW55x_RELEASE_V1.0.2/MSDK/ble/profile/dis\ble_diss.c ****     [BLE_DIS_HDL_SERIAL_NB_CHAR]     = {UUID_16BIT_TO_ARRAY(BLE_GATT_DECL_CHARACTERISTIC),  PROP(RD
 136:C:/Users/stapi/OneDrive/Desktop/GD32VW553/V1_MQTT_OK/GD32VW55X_Wifi_BLE_SDK/GD32VW55x_RELEASE_V1.0.2/MSDK/ble/profile/dis\ble_diss.c ****     [BLE_DIS_HDL_SERIAL_NB_VAL]      = {UUID_16BIT_TO_ARRAY(BLE_DIS_CHAR_SERIAL_NB),        PROP(RD
 137:C:/Users/stapi/OneDrive/Desktop/GD32VW553/V1_MQTT_OK/GD32VW55X_Wifi_BLE_SDK/GD32VW55x_RELEASE_V1.0.2/MSDK/ble/profile/dis\ble_diss.c **** 
 138:C:/Users/stapi/OneDrive/Desktop/GD32VW553/V1_MQTT_OK/GD32VW55X_Wifi_BLE_SDK/GD32VW55x_RELEASE_V1.0.2/MSDK/ble/profile/dis\ble_diss.c ****     [BLE_DIS_HDL_HARD_REV_CHAR]      = {UUID_16BIT_TO_ARRAY(BLE_GATT_DECL_CHARACTERISTIC),  PROP(RD
 139:C:/Users/stapi/OneDrive/Desktop/GD32VW553/V1_MQTT_OK/GD32VW55X_Wifi_BLE_SDK/GD32VW55x_RELEASE_V1.0.2/MSDK/ble/profile/dis\ble_diss.c ****     [BLE_DIS_HDL_HARD_REV_VAL]       = {UUID_16BIT_TO_ARRAY(BLE_DIS_CHAR_HW_REV),           PROP(RD
 140:C:/Users/stapi/OneDrive/Desktop/GD32VW553/V1_MQTT_OK/GD32VW55X_Wifi_BLE_SDK/GD32VW55x_RELEASE_V1.0.2/MSDK/ble/profile/dis\ble_diss.c **** 
 141:C:/Users/stapi/OneDrive/Desktop/GD32VW553/V1_MQTT_OK/GD32VW55X_Wifi_BLE_SDK/GD32VW55x_RELEASE_V1.0.2/MSDK/ble/profile/dis\ble_diss.c ****     [BLE_DIS_HDL_FIRM_REV_CHAR]      = {UUID_16BIT_TO_ARRAY(BLE_GATT_DECL_CHARACTERISTIC),  PROP(RD
 142:C:/Users/stapi/OneDrive/Desktop/GD32VW553/V1_MQTT_OK/GD32VW55X_Wifi_BLE_SDK/GD32VW55x_RELEASE_V1.0.2/MSDK/ble/profile/dis\ble_diss.c ****     [BLE_DIS_HDL_FIRM_REV_VAL]       = {UUID_16BIT_TO_ARRAY(BLE_DIS_CHAR_FW_REV),           PROP(RD
 143:C:/Users/stapi/OneDrive/Desktop/GD32VW553/V1_MQTT_OK/GD32VW55X_Wifi_BLE_SDK/GD32VW55x_RELEASE_V1.0.2/MSDK/ble/profile/dis\ble_diss.c **** 
 144:C:/Users/stapi/OneDrive/Desktop/GD32VW553/V1_MQTT_OK/GD32VW55X_Wifi_BLE_SDK/GD32VW55x_RELEASE_V1.0.2/MSDK/ble/profile/dis\ble_diss.c ****     [BLE_DIS_HDL_SW_REV_CHAR]        = {UUID_16BIT_TO_ARRAY(BLE_GATT_DECL_CHARACTERISTIC),  PROP(RD
 145:C:/Users/stapi/OneDrive/Desktop/GD32VW553/V1_MQTT_OK/GD32VW55X_Wifi_BLE_SDK/GD32VW55x_RELEASE_V1.0.2/MSDK/ble/profile/dis\ble_diss.c ****     [BLE_DIS_HDL_SW_REV_VAL]         = {UUID_16BIT_TO_ARRAY(BLE_DIS_CHAR_SW_REV),           PROP(RD
 146:C:/Users/stapi/OneDrive/Desktop/GD32VW553/V1_MQTT_OK/GD32VW55X_Wifi_BLE_SDK/GD32VW55x_RELEASE_V1.0.2/MSDK/ble/profile/dis\ble_diss.c **** 
 147:C:/Users/stapi/OneDrive/Desktop/GD32VW553/V1_MQTT_OK/GD32VW55X_Wifi_BLE_SDK/GD32VW55x_RELEASE_V1.0.2/MSDK/ble/profile/dis\ble_diss.c ****     [BLE_DIS_HDL_SYSTEM_ID_CHAR]     = {UUID_16BIT_TO_ARRAY(BLE_GATT_DECL_CHARACTERISTIC),  PROP(RD
 148:C:/Users/stapi/OneDrive/Desktop/GD32VW553/V1_MQTT_OK/GD32VW55X_Wifi_BLE_SDK/GD32VW55x_RELEASE_V1.0.2/MSDK/ble/profile/dis\ble_diss.c ****     [BLE_DIS_HDL_SYSTEM_ID_VAL]      = {UUID_16BIT_TO_ARRAY(BLE_DIS_CHAR_SYS_ID),           PROP(RD
 149:C:/Users/stapi/OneDrive/Desktop/GD32VW553/V1_MQTT_OK/GD32VW55X_Wifi_BLE_SDK/GD32VW55x_RELEASE_V1.0.2/MSDK/ble/profile/dis\ble_diss.c **** 
 150:C:/Users/stapi/OneDrive/Desktop/GD32VW553/V1_MQTT_OK/GD32VW55X_Wifi_BLE_SDK/GD32VW55x_RELEASE_V1.0.2/MSDK/ble/profile/dis\ble_diss.c ****     [BLE_DIS_HDL_IEEE_CHAR]          = {UUID_16BIT_TO_ARRAY(BLE_GATT_DECL_CHARACTERISTIC),  PROP(RD
 151:C:/Users/stapi/OneDrive/Desktop/GD32VW553/V1_MQTT_OK/GD32VW55X_Wifi_BLE_SDK/GD32VW55x_RELEASE_V1.0.2/MSDK/ble/profile/dis\ble_diss.c ****     [BLE_DIS_HDL_IEEE_VAL]           = {UUID_16BIT_TO_ARRAY(BLE_DIS_CHAR_IEEE_CERTIF),      PROP(RD
 152:C:/Users/stapi/OneDrive/Desktop/GD32VW553/V1_MQTT_OK/GD32VW55X_Wifi_BLE_SDK/GD32VW55x_RELEASE_V1.0.2/MSDK/ble/profile/dis\ble_diss.c **** 
 153:C:/Users/stapi/OneDrive/Desktop/GD32VW553/V1_MQTT_OK/GD32VW55X_Wifi_BLE_SDK/GD32VW55x_RELEASE_V1.0.2/MSDK/ble/profile/dis\ble_diss.c ****     [BLE_DIS_HDL_PNP_ID_CHAR]        = {UUID_16BIT_TO_ARRAY(BLE_GATT_DECL_CHARACTERISTIC),  PROP(RD
 154:C:/Users/stapi/OneDrive/Desktop/GD32VW553/V1_MQTT_OK/GD32VW55X_Wifi_BLE_SDK/GD32VW55x_RELEASE_V1.0.2/MSDK/ble/profile/dis\ble_diss.c ****     [BLE_DIS_HDL_PNP_ID_VAL]         = {UUID_16BIT_TO_ARRAY(BLE_DIS_CHAR_PNP_ID),           PROP(RD
 155:C:/Users/stapi/OneDrive/Desktop/GD32VW553/V1_MQTT_OK/GD32VW55X_Wifi_BLE_SDK/GD32VW55x_RELEASE_V1.0.2/MSDK/ble/profile/dis\ble_diss.c **** };
 156:C:/Users/stapi/OneDrive/Desktop/GD32VW553/V1_MQTT_OK/GD32VW55X_Wifi_BLE_SDK/GD32VW55x_RELEASE_V1.0.2/MSDK/ble/profile/dis\ble_diss.c **** 
 157:C:/Users/stapi/OneDrive/Desktop/GD32VW553/V1_MQTT_OK/GD32VW55X_Wifi_BLE_SDK/GD32VW55x_RELEASE_V1.0.2/MSDK/ble/profile/dis\ble_diss.c **** /* Device information value */
 158:C:/Users/stapi/OneDrive/Desktop/GD32VW553/V1_MQTT_OK/GD32VW55X_Wifi_BLE_SDK/GD32VW55x_RELEASE_V1.0.2/MSDK/ble/profile/dis\ble_diss.c **** static ble_diss_value_t ble_diss_val = {0};
 159:C:/Users/stapi/OneDrive/Desktop/GD32VW553/V1_MQTT_OK/GD32VW55X_Wifi_BLE_SDK/GD32VW55x_RELEASE_V1.0.2/MSDK/ble/profile/dis\ble_diss.c **** 
 160:C:/Users/stapi/OneDrive/Desktop/GD32VW553/V1_MQTT_OK/GD32VW55X_Wifi_BLE_SDK/GD32VW55x_RELEASE_V1.0.2/MSDK/ble/profile/dis\ble_diss.c **** /* DIS service ID assigned by GATT server module */
 161:C:/Users/stapi/OneDrive/Desktop/GD32VW553/V1_MQTT_OK/GD32VW55X_Wifi_BLE_SDK/GD32VW55x_RELEASE_V1.0.2/MSDK/ble/profile/dis\ble_diss.c **** static uint8_t ble_diss_svc_id = 0xFF;
 162:C:/Users/stapi/OneDrive/Desktop/GD32VW553/V1_MQTT_OK/GD32VW55X_Wifi_BLE_SDK/GD32VW55x_RELEASE_V1.0.2/MSDK/ble/profile/dis\ble_diss.c **** 
 163:C:/Users/stapi/OneDrive/Desktop/GD32VW553/V1_MQTT_OK/GD32VW55X_Wifi_BLE_SDK/GD32VW55x_RELEASE_V1.0.2/MSDK/ble/profile/dis\ble_diss.c **** /* DIS UUID 16bits array */
 164:C:/Users/stapi/OneDrive/Desktop/GD32VW553/V1_MQTT_OK/GD32VW55X_Wifi_BLE_SDK/GD32VW55x_RELEASE_V1.0.2/MSDK/ble/profile/dis\ble_diss.c **** const uint8_t ble_dis_uuid[2] = UUID_16BIT_TO_ARRAY(BLE_DIS_SVC_DEVICE_INFO);
 165:C:/Users/stapi/OneDrive/Desktop/GD32VW553/V1_MQTT_OK/GD32VW55X_Wifi_BLE_SDK/GD32VW55x_RELEASE_V1.0.2/MSDK/ble/profile/dis\ble_diss.c **** 
 166:C:/Users/stapi/OneDrive/Desktop/GD32VW553/V1_MQTT_OK/GD32VW55X_Wifi_BLE_SDK/GD32VW55x_RELEASE_V1.0.2/MSDK/ble/profile/dis\ble_diss.c **** /*!
 167:C:/Users/stapi/OneDrive/Desktop/GD32VW553/V1_MQTT_OK/GD32VW55X_Wifi_BLE_SDK/GD32VW55x_RELEASE_V1.0.2/MSDK/ble/profile/dis\ble_diss.c ****     \brief      Callback function to handle GATT server messages
 168:C:/Users/stapi/OneDrive/Desktop/GD32VW553/V1_MQTT_OK/GD32VW55X_Wifi_BLE_SDK/GD32VW55x_RELEASE_V1.0.2/MSDK/ble/profile/dis\ble_diss.c ****     \param[in]  p_srv_msg_info: pointer to GATT server message information
 169:C:/Users/stapi/OneDrive/Desktop/GD32VW553/V1_MQTT_OK/GD32VW55X_Wifi_BLE_SDK/GD32VW55x_RELEASE_V1.0.2/MSDK/ble/profile/dis\ble_diss.c ****     \param[out] none
 170:C:/Users/stapi/OneDrive/Desktop/GD32VW553/V1_MQTT_OK/GD32VW55X_Wifi_BLE_SDK/GD32VW55x_RELEASE_V1.0.2/MSDK/ble/profile/dis\ble_diss.c ****     \retval     ble_status_t: BLE_ERR_NO_ERROR on success, otherwise an error code
 171:C:/Users/stapi/OneDrive/Desktop/GD32VW553/V1_MQTT_OK/GD32VW55X_Wifi_BLE_SDK/GD32VW55x_RELEASE_V1.0.2/MSDK/ble/profile/dis\ble_diss.c **** */
 172:C:/Users/stapi/OneDrive/Desktop/GD32VW553/V1_MQTT_OK/GD32VW55X_Wifi_BLE_SDK/GD32VW55x_RELEASE_V1.0.2/MSDK/ble/profile/dis\ble_diss.c **** static ble_status_t ble_diss_srv_cb(ble_gatts_msg_info_t *p_srv_msg_info)
 173:C:/Users/stapi/OneDrive/Desktop/GD32VW553/V1_MQTT_OK/GD32VW55X_Wifi_BLE_SDK/GD32VW55x_RELEASE_V1.0.2/MSDK/ble/profile/dis\ble_diss.c **** {
  15              		.loc 1 173 1
  16              		.cfi_startproc
  17              	.LVL0:
  18 0000 17030000 		call	t0,__riscv_save_1
  18      E7020300 
  19              		.cfi_offset 8, -8
  20              		.cfi_offset 1, -4
  21              		.cfi_def_cfa_offset 16
 174:C:/Users/stapi/OneDrive/Desktop/GD32VW553/V1_MQTT_OK/GD32VW55X_Wifi_BLE_SDK/GD32VW55x_RELEASE_V1.0.2/MSDK/ble/profile/dis\ble_diss.c ****     uint8_t attr_idx = 0;
  22              		.loc 1 174 5
  23              	.LVL1:
 175:C:/Users/stapi/OneDrive/Desktop/GD32VW553/V1_MQTT_OK/GD32VW55X_Wifi_BLE_SDK/GD32VW55x_RELEASE_V1.0.2/MSDK/ble/profile/dis\ble_diss.c ****     uint16_t len = 0;
  24              		.loc 1 175 5
 176:C:/Users/stapi/OneDrive/Desktop/GD32VW553/V1_MQTT_OK/GD32VW55X_Wifi_BLE_SDK/GD32VW55x_RELEASE_V1.0.2/MSDK/ble/profile/dis\ble_diss.c ****     uint8_t attr_len = 0;
  25              		.loc 1 176 5
 177:C:/Users/stapi/OneDrive/Desktop/GD32VW553/V1_MQTT_OK/GD32VW55X_Wifi_BLE_SDK/GD32VW55x_RELEASE_V1.0.2/MSDK/ble/profile/dis\ble_diss.c ****     uint8_t *p_attr = NULL;
  26              		.loc 1 177 5
 178:C:/Users/stapi/OneDrive/Desktop/GD32VW553/V1_MQTT_OK/GD32VW55X_Wifi_BLE_SDK/GD32VW55x_RELEASE_V1.0.2/MSDK/ble/profile/dis\ble_diss.c **** 
 179:C:/Users/stapi/OneDrive/Desktop/GD32VW553/V1_MQTT_OK/GD32VW55X_Wifi_BLE_SDK/GD32VW55x_RELEASE_V1.0.2/MSDK/ble/profile/dis\ble_diss.c ****     if (p_srv_msg_info->srv_msg_type == BLE_SRV_EVT_GATT_OPERATION) {
  27              		.loc 1 179 5
  28              		.loc 1 179 8 is_stmt 0
  29 0008 1841     		lw	a4,0(a0)
  30 000a 8D47     		li	a5,3
  31 000c 6313F70E 		bne	a4,a5,.L14
 180:C:/Users/stapi/OneDrive/Desktop/GD32VW553/V1_MQTT_OK/GD32VW55X_Wifi_BLE_SDK/GD32VW55x_RELEASE_V1.0.2/MSDK/ble/profile/dis\ble_diss.c ****         if (p_srv_msg_info->msg_data.gatts_op_info.gatts_op_sub_evt == BLE_SRV_EVT_READ_REQ) {
  32              		.loc 1 180 9 is_stmt 1
  33              		.loc 1 180 51 is_stmt 0
  34 0010 4041     		lw	s0,4(a0)
  35              		.loc 1 180 12
  36 0012 65E0     		bne	s0,zero,.L14
  37              	.LVL2:
  38              	.LBB27:
  39              	.LBB28:
  40              	.LBB29:
 181:C:/Users/stapi/OneDrive/Desktop/GD32VW553/V1_MQTT_OK/GD32VW55X_Wifi_BLE_SDK/GD32VW55x_RELEASE_V1.0.2/MSDK/ble/profile/dis\ble_diss.c ****             ble_gatts_read_req_t * p_read_req = &p_srv_msg_info->msg_data.gatts_op_info.gatts_op_da
  41              		.loc 1 181 13 is_stmt 1
 182:C:/Users/stapi/OneDrive/Desktop/GD32VW553/V1_MQTT_OK/GD32VW55X_Wifi_BLE_SDK/GD32VW55x_RELEASE_V1.0.2/MSDK/ble/profile/dis\ble_diss.c **** 
 183:C:/Users/stapi/OneDrive/Desktop/GD32VW553/V1_MQTT_OK/GD32VW55X_Wifi_BLE_SDK/GD32VW55x_RELEASE_V1.0.2/MSDK/ble/profile/dis\ble_diss.c ****             attr_idx = p_read_req->att_idx;
  42              		.loc 1 183 13
 184:C:/Users/stapi/OneDrive/Desktop/GD32VW553/V1_MQTT_OK/GD32VW55X_Wifi_BLE_SDK/GD32VW55x_RELEASE_V1.0.2/MSDK/ble/profile/dis\ble_diss.c ****             switch (attr_idx) {
  43              		.loc 1 184 13
 183:C:/Users/stapi/OneDrive/Desktop/GD32VW553/V1_MQTT_OK/GD32VW55X_Wifi_BLE_SDK/GD32VW55x_RELEASE_V1.0.2/MSDK/ble/profile/dis\ble_diss.c ****             switch (attr_idx) {
  44              		.loc 1 183 22 is_stmt 0
  45 0014 83570501 		lhu	a5,16(a0)
  46 0018 4147     		li	a4,16
  47 001a F917     		addi	a5,a5,-2
  48 001c 93F7F70F 		andi	a5,a5,0xff
  49 0020 636BF70C 		bgtu	a5,a4,.L15
  50 0024 37070000 		lui	a4,%hi(.L4)
  51 0028 13070700 		addi	a4,a4,%lo(.L4)
  52 002c B3C7E720 		sh2add	a5,a5,a4
  53 0030 9C43     		lw	a5,0(a5)
  54 0032 8287     		jr	a5
  55              		.section	.rodata.ble_diss_srv_cb,"a",@progbits
  56              		.align	2
  57              		.align	2
  58              	.L4:
  59 0000 00000000 		.word	.L12
  60 0004 00000000 		.word	.L15
  61 0008 00000000 		.word	.L11
  62 000c 00000000 		.word	.L15
  63 0010 00000000 		.word	.L10
  64 0014 00000000 		.word	.L15
  65 0018 00000000 		.word	.L9
  66 001c 00000000 		.word	.L15
  67 0020 00000000 		.word	.L8
  68 0024 00000000 		.word	.L15
  69 0028 00000000 		.word	.L7
  70 002c 00000000 		.word	.L15
  71 0030 00000000 		.word	.L16
  72 0034 00000000 		.word	.L15
  73 0038 00000000 		.word	.L5
  74 003c 00000000 		.word	.L15
  75 0040 00000000 		.word	.L3
  76              		.section	.text.ble_diss_srv_cb
  77              	.L3:
  78 0034 B7050000 		lui	a1,%hi(.LANCHOR0+232)
  79 0038 9385850E 		addi	a1,a1,%lo(.LANCHOR0+232)
  80 003c 9D47     		li	a5,7
  81              	.L6:
  82              	.LVL3:
 185:C:/Users/stapi/OneDrive/Desktop/GD32VW553/V1_MQTT_OK/GD32VW55X_Wifi_BLE_SDK/GD32VW55x_RELEASE_V1.0.2/MSDK/ble/profile/dis\ble_diss.c ****             case BLE_DIS_HDL_MANUFACT_NAME_VAL: {
 186:C:/Users/stapi/OneDrive/Desktop/GD32VW553/V1_MQTT_OK/GD32VW55X_Wifi_BLE_SDK/GD32VW55x_RELEASE_V1.0.2/MSDK/ble/profile/dis\ble_diss.c ****                 p_attr   = ble_diss_val.manufact_name;
 187:C:/Users/stapi/OneDrive/Desktop/GD32VW553/V1_MQTT_OK/GD32VW55X_Wifi_BLE_SDK/GD32VW55x_RELEASE_V1.0.2/MSDK/ble/profile/dis\ble_diss.c ****                 attr_len = ble_diss_val.manufact_name_len;
 188:C:/Users/stapi/OneDrive/Desktop/GD32VW553/V1_MQTT_OK/GD32VW55X_Wifi_BLE_SDK/GD32VW55x_RELEASE_V1.0.2/MSDK/ble/profile/dis\ble_diss.c ****             } break;
 189:C:/Users/stapi/OneDrive/Desktop/GD32VW553/V1_MQTT_OK/GD32VW55X_Wifi_BLE_SDK/GD32VW55x_RELEASE_V1.0.2/MSDK/ble/profile/dis\ble_diss.c **** 
 190:C:/Users/stapi/OneDrive/Desktop/GD32VW553/V1_MQTT_OK/GD32VW55X_Wifi_BLE_SDK/GD32VW55x_RELEASE_V1.0.2/MSDK/ble/profile/dis\ble_diss.c ****             case BLE_DIS_HDL_MODEL_NB_VAL: {
 191:C:/Users/stapi/OneDrive/Desktop/GD32VW553/V1_MQTT_OK/GD32VW55X_Wifi_BLE_SDK/GD32VW55x_RELEASE_V1.0.2/MSDK/ble/profile/dis\ble_diss.c ****                 p_attr   = ble_diss_val.model_num;
 192:C:/Users/stapi/OneDrive/Desktop/GD32VW553/V1_MQTT_OK/GD32VW55X_Wifi_BLE_SDK/GD32VW55x_RELEASE_V1.0.2/MSDK/ble/profile/dis\ble_diss.c ****                 attr_len = ble_diss_val.model_num_len;
 193:C:/Users/stapi/OneDrive/Desktop/GD32VW553/V1_MQTT_OK/GD32VW55X_Wifi_BLE_SDK/GD32VW55x_RELEASE_V1.0.2/MSDK/ble/profile/dis\ble_diss.c ****             } break;
 194:C:/Users/stapi/OneDrive/Desktop/GD32VW553/V1_MQTT_OK/GD32VW55X_Wifi_BLE_SDK/GD32VW55x_RELEASE_V1.0.2/MSDK/ble/profile/dis\ble_diss.c **** 
 195:C:/Users/stapi/OneDrive/Desktop/GD32VW553/V1_MQTT_OK/GD32VW55X_Wifi_BLE_SDK/GD32VW55x_RELEASE_V1.0.2/MSDK/ble/profile/dis\ble_diss.c ****             case BLE_DIS_HDL_SERIAL_NB_VAL: {
 196:C:/Users/stapi/OneDrive/Desktop/GD32VW553/V1_MQTT_OK/GD32VW55X_Wifi_BLE_SDK/GD32VW55x_RELEASE_V1.0.2/MSDK/ble/profile/dis\ble_diss.c ****                 p_attr   = ble_diss_val.serial_num;
 197:C:/Users/stapi/OneDrive/Desktop/GD32VW553/V1_MQTT_OK/GD32VW55X_Wifi_BLE_SDK/GD32VW55x_RELEASE_V1.0.2/MSDK/ble/profile/dis\ble_diss.c ****                 attr_len = ble_diss_val.serial_num_len;
 198:C:/Users/stapi/OneDrive/Desktop/GD32VW553/V1_MQTT_OK/GD32VW55X_Wifi_BLE_SDK/GD32VW55x_RELEASE_V1.0.2/MSDK/ble/profile/dis\ble_diss.c ****             } break;
 199:C:/Users/stapi/OneDrive/Desktop/GD32VW553/V1_MQTT_OK/GD32VW55X_Wifi_BLE_SDK/GD32VW55x_RELEASE_V1.0.2/MSDK/ble/profile/dis\ble_diss.c **** 
 200:C:/Users/stapi/OneDrive/Desktop/GD32VW553/V1_MQTT_OK/GD32VW55X_Wifi_BLE_SDK/GD32VW55x_RELEASE_V1.0.2/MSDK/ble/profile/dis\ble_diss.c ****             case BLE_DIS_HDL_HARD_REV_VAL: {
 201:C:/Users/stapi/OneDrive/Desktop/GD32VW553/V1_MQTT_OK/GD32VW55X_Wifi_BLE_SDK/GD32VW55x_RELEASE_V1.0.2/MSDK/ble/profile/dis\ble_diss.c ****                 p_attr   = ble_diss_val.hw_rev;
 202:C:/Users/stapi/OneDrive/Desktop/GD32VW553/V1_MQTT_OK/GD32VW55X_Wifi_BLE_SDK/GD32VW55x_RELEASE_V1.0.2/MSDK/ble/profile/dis\ble_diss.c ****                 attr_len = ble_diss_val.hw_rev_len;
 203:C:/Users/stapi/OneDrive/Desktop/GD32VW553/V1_MQTT_OK/GD32VW55X_Wifi_BLE_SDK/GD32VW55x_RELEASE_V1.0.2/MSDK/ble/profile/dis\ble_diss.c ****             } break;
 204:C:/Users/stapi/OneDrive/Desktop/GD32VW553/V1_MQTT_OK/GD32VW55X_Wifi_BLE_SDK/GD32VW55x_RELEASE_V1.0.2/MSDK/ble/profile/dis\ble_diss.c **** 
 205:C:/Users/stapi/OneDrive/Desktop/GD32VW553/V1_MQTT_OK/GD32VW55X_Wifi_BLE_SDK/GD32VW55x_RELEASE_V1.0.2/MSDK/ble/profile/dis\ble_diss.c ****             case BLE_DIS_HDL_FIRM_REV_VAL: {
 206:C:/Users/stapi/OneDrive/Desktop/GD32VW553/V1_MQTT_OK/GD32VW55X_Wifi_BLE_SDK/GD32VW55x_RELEASE_V1.0.2/MSDK/ble/profile/dis\ble_diss.c ****                 p_attr   = ble_diss_val.fw_rev;
 207:C:/Users/stapi/OneDrive/Desktop/GD32VW553/V1_MQTT_OK/GD32VW55X_Wifi_BLE_SDK/GD32VW55x_RELEASE_V1.0.2/MSDK/ble/profile/dis\ble_diss.c ****                 attr_len = ble_diss_val.fw_rev_len;
 208:C:/Users/stapi/OneDrive/Desktop/GD32VW553/V1_MQTT_OK/GD32VW55X_Wifi_BLE_SDK/GD32VW55x_RELEASE_V1.0.2/MSDK/ble/profile/dis\ble_diss.c ****             } break;
 209:C:/Users/stapi/OneDrive/Desktop/GD32VW553/V1_MQTT_OK/GD32VW55X_Wifi_BLE_SDK/GD32VW55x_RELEASE_V1.0.2/MSDK/ble/profile/dis\ble_diss.c **** 
 210:C:/Users/stapi/OneDrive/Desktop/GD32VW553/V1_MQTT_OK/GD32VW55X_Wifi_BLE_SDK/GD32VW55x_RELEASE_V1.0.2/MSDK/ble/profile/dis\ble_diss.c ****             case BLE_DIS_HDL_SW_REV_VAL: {
 211:C:/Users/stapi/OneDrive/Desktop/GD32VW553/V1_MQTT_OK/GD32VW55X_Wifi_BLE_SDK/GD32VW55x_RELEASE_V1.0.2/MSDK/ble/profile/dis\ble_diss.c ****                 p_attr   = ble_diss_val.sw_rev;
 212:C:/Users/stapi/OneDrive/Desktop/GD32VW553/V1_MQTT_OK/GD32VW55X_Wifi_BLE_SDK/GD32VW55x_RELEASE_V1.0.2/MSDK/ble/profile/dis\ble_diss.c ****                 attr_len = ble_diss_val.sw_rev_len;
 213:C:/Users/stapi/OneDrive/Desktop/GD32VW553/V1_MQTT_OK/GD32VW55X_Wifi_BLE_SDK/GD32VW55x_RELEASE_V1.0.2/MSDK/ble/profile/dis\ble_diss.c ****             } break;
 214:C:/Users/stapi/OneDrive/Desktop/GD32VW553/V1_MQTT_OK/GD32VW55X_Wifi_BLE_SDK/GD32VW55x_RELEASE_V1.0.2/MSDK/ble/profile/dis\ble_diss.c **** 
 215:C:/Users/stapi/OneDrive/Desktop/GD32VW553/V1_MQTT_OK/GD32VW55X_Wifi_BLE_SDK/GD32VW55x_RELEASE_V1.0.2/MSDK/ble/profile/dis\ble_diss.c ****             case BLE_DIS_HDL_SYSTEM_ID_VAL: {
 216:C:/Users/stapi/OneDrive/Desktop/GD32VW553/V1_MQTT_OK/GD32VW55X_Wifi_BLE_SDK/GD32VW55x_RELEASE_V1.0.2/MSDK/ble/profile/dis\ble_diss.c ****                 p_attr   = ble_diss_val.sys_id;
 217:C:/Users/stapi/OneDrive/Desktop/GD32VW553/V1_MQTT_OK/GD32VW55X_Wifi_BLE_SDK/GD32VW55x_RELEASE_V1.0.2/MSDK/ble/profile/dis\ble_diss.c ****                 attr_len = BLE_DIS_SYS_ID_LEN;
 218:C:/Users/stapi/OneDrive/Desktop/GD32VW553/V1_MQTT_OK/GD32VW55X_Wifi_BLE_SDK/GD32VW55x_RELEASE_V1.0.2/MSDK/ble/profile/dis\ble_diss.c ****             } break;
 219:C:/Users/stapi/OneDrive/Desktop/GD32VW553/V1_MQTT_OK/GD32VW55X_Wifi_BLE_SDK/GD32VW55x_RELEASE_V1.0.2/MSDK/ble/profile/dis\ble_diss.c **** 
 220:C:/Users/stapi/OneDrive/Desktop/GD32VW553/V1_MQTT_OK/GD32VW55X_Wifi_BLE_SDK/GD32VW55x_RELEASE_V1.0.2/MSDK/ble/profile/dis\ble_diss.c ****             case BLE_DIS_HDL_IEEE_VAL: {
 221:C:/Users/stapi/OneDrive/Desktop/GD32VW553/V1_MQTT_OK/GD32VW55X_Wifi_BLE_SDK/GD32VW55x_RELEASE_V1.0.2/MSDK/ble/profile/dis\ble_diss.c ****                 p_attr   = ble_diss_val.ieee_data;
 222:C:/Users/stapi/OneDrive/Desktop/GD32VW553/V1_MQTT_OK/GD32VW55X_Wifi_BLE_SDK/GD32VW55x_RELEASE_V1.0.2/MSDK/ble/profile/dis\ble_diss.c ****                 attr_len = ble_diss_val.ieee_data_len;
 223:C:/Users/stapi/OneDrive/Desktop/GD32VW553/V1_MQTT_OK/GD32VW55X_Wifi_BLE_SDK/GD32VW55x_RELEASE_V1.0.2/MSDK/ble/profile/dis\ble_diss.c ****             } break;
 224:C:/Users/stapi/OneDrive/Desktop/GD32VW553/V1_MQTT_OK/GD32VW55X_Wifi_BLE_SDK/GD32VW55x_RELEASE_V1.0.2/MSDK/ble/profile/dis\ble_diss.c **** 
 225:C:/Users/stapi/OneDrive/Desktop/GD32VW553/V1_MQTT_OK/GD32VW55X_Wifi_BLE_SDK/GD32VW55x_RELEASE_V1.0.2/MSDK/ble/profile/dis\ble_diss.c ****             case BLE_DIS_HDL_PNP_ID_VAL: {
 226:C:/Users/stapi/OneDrive/Desktop/GD32VW553/V1_MQTT_OK/GD32VW55X_Wifi_BLE_SDK/GD32VW55x_RELEASE_V1.0.2/MSDK/ble/profile/dis\ble_diss.c ****                 p_attr   = ble_diss_val.pnp_id;
 227:C:/Users/stapi/OneDrive/Desktop/GD32VW553/V1_MQTT_OK/GD32VW55X_Wifi_BLE_SDK/GD32VW55x_RELEASE_V1.0.2/MSDK/ble/profile/dis\ble_diss.c ****                 attr_len = BLE_DIS_PNP_ID_LEN;
 228:C:/Users/stapi/OneDrive/Desktop/GD32VW553/V1_MQTT_OK/GD32VW55X_Wifi_BLE_SDK/GD32VW55x_RELEASE_V1.0.2/MSDK/ble/profile/dis\ble_diss.c ****             } break;
 229:C:/Users/stapi/OneDrive/Desktop/GD32VW553/V1_MQTT_OK/GD32VW55X_Wifi_BLE_SDK/GD32VW55x_RELEASE_V1.0.2/MSDK/ble/profile/dis\ble_diss.c **** 
 230:C:/Users/stapi/OneDrive/Desktop/GD32VW553/V1_MQTT_OK/GD32VW55X_Wifi_BLE_SDK/GD32VW55x_RELEASE_V1.0.2/MSDK/ble/profile/dis\ble_diss.c ****             default:
 231:C:/Users/stapi/OneDrive/Desktop/GD32VW553/V1_MQTT_OK/GD32VW55X_Wifi_BLE_SDK/GD32VW55x_RELEASE_V1.0.2/MSDK/ble/profile/dis\ble_diss.c ****                 return BLE_ATT_ERR_INVALID_HANDLE;
 232:C:/Users/stapi/OneDrive/Desktop/GD32VW553/V1_MQTT_OK/GD32VW55X_Wifi_BLE_SDK/GD32VW55x_RELEASE_V1.0.2/MSDK/ble/profile/dis\ble_diss.c ****             }
 233:C:/Users/stapi/OneDrive/Desktop/GD32VW553/V1_MQTT_OK/GD32VW55X_Wifi_BLE_SDK/GD32VW55x_RELEASE_V1.0.2/MSDK/ble/profile/dis\ble_diss.c **** 
 234:C:/Users/stapi/OneDrive/Desktop/GD32VW553/V1_MQTT_OK/GD32VW55X_Wifi_BLE_SDK/GD32VW55x_RELEASE_V1.0.2/MSDK/ble/profile/dis\ble_diss.c ****             if (p_read_req->offset > attr_len) {
  83              		.loc 1 234 13 is_stmt 1
  84              		.loc 1 234 27 is_stmt 0
  85 003e 03572501 		lhu	a4,18(a0)
  86              		.loc 1 234 16
  87 0042 63ECE70A 		bgtu	a4,a5,.L17
 235:C:/Users/stapi/OneDrive/Desktop/GD32VW553/V1_MQTT_OK/GD32VW55X_Wifi_BLE_SDK/GD32VW55x_RELEASE_V1.0.2/MSDK/ble/profile/dis\ble_diss.c ****                 return BLE_ATT_ERR_INVALID_OFFSET;
 236:C:/Users/stapi/OneDrive/Desktop/GD32VW553/V1_MQTT_OK/GD32VW55X_Wifi_BLE_SDK/GD32VW55x_RELEASE_V1.0.2/MSDK/ble/profile/dis\ble_diss.c ****             }
 237:C:/Users/stapi/OneDrive/Desktop/GD32VW553/V1_MQTT_OK/GD32VW55X_Wifi_BLE_SDK/GD32VW55x_RELEASE_V1.0.2/MSDK/ble/profile/dis\ble_diss.c **** 
 238:C:/Users/stapi/OneDrive/Desktop/GD32VW553/V1_MQTT_OK/GD32VW55X_Wifi_BLE_SDK/GD32VW55x_RELEASE_V1.0.2/MSDK/ble/profile/dis\ble_diss.c ****             len = ble_min(p_read_req->max_len, attr_len - p_read_req->offset);
  88              		.loc 1 238 13 is_stmt 1
  89              	.LVL4:
  90              	.LBB30:
  91              	.LBB31:
  92              		.file 2 "..\\..\\..\\..\\blesw\\src\\export/ble_utils.h"
   1:..\..\..\..\blesw\src\export/ble_utils.h **** /*!
   2:..\..\..\..\blesw\src\export/ble_utils.h ****     \file    ble_utils.h
   3:..\..\..\..\blesw\src\export/ble_utils.h ****     \brief   Utility Functions and Definitions for BLE.
   4:..\..\..\..\blesw\src\export/ble_utils.h **** 
   5:..\..\..\..\blesw\src\export/ble_utils.h ****     \version 2023-07-20, V1.0.0, firmware for GD32VW55x
   6:..\..\..\..\blesw\src\export/ble_utils.h **** */
   7:..\..\..\..\blesw\src\export/ble_utils.h **** 
   8:..\..\..\..\blesw\src\export/ble_utils.h **** /*
   9:..\..\..\..\blesw\src\export/ble_utils.h ****     Copyright (c) 2023, GigaDevice Semiconductor Inc.
  10:..\..\..\..\blesw\src\export/ble_utils.h **** 
  11:..\..\..\..\blesw\src\export/ble_utils.h ****     Redistribution and use in source and binary forms, with or without modification,
  12:..\..\..\..\blesw\src\export/ble_utils.h **** are permitted provided that the following conditions are met:
  13:..\..\..\..\blesw\src\export/ble_utils.h **** 
  14:..\..\..\..\blesw\src\export/ble_utils.h ****     1. Redistributions of source code must retain the above copyright notice, this
  15:..\..\..\..\blesw\src\export/ble_utils.h ****        list of conditions and the following disclaimer.
  16:..\..\..\..\blesw\src\export/ble_utils.h ****     2. Redistributions in binary form must reproduce the above copyright notice,
  17:..\..\..\..\blesw\src\export/ble_utils.h ****        this list of conditions and the following disclaimer in the documentation
  18:..\..\..\..\blesw\src\export/ble_utils.h ****        and/or other materials provided with the distribution.
  19:..\..\..\..\blesw\src\export/ble_utils.h ****     3. Neither the name of the copyright holder nor the names of its contributors
  20:..\..\..\..\blesw\src\export/ble_utils.h ****        may be used to endorse or promote products derived from this software without
  21:..\..\..\..\blesw\src\export/ble_utils.h ****        specific prior written permission.
  22:..\..\..\..\blesw\src\export/ble_utils.h **** 
  23:..\..\..\..\blesw\src\export/ble_utils.h ****     THIS SOFTWARE IS PROVIDED BY THE COPYRIGHT HOLDERS AND CONTRIBUTORS "AS IS"
  24:..\..\..\..\blesw\src\export/ble_utils.h **** AND ANY EXPRESS OR IMPLIED WARRANTIES, INCLUDING, BUT NOT LIMITED TO, THE IMPLIED
  25:..\..\..\..\blesw\src\export/ble_utils.h **** WARRANTIES OF MERCHANTABILITY AND FITNESS FOR A PARTICULAR PURPOSE ARE DISCLAIMED.
  26:..\..\..\..\blesw\src\export/ble_utils.h **** IN NO EVENT SHALL THE COPYRIGHT HOLDER OR CONTRIBUTORS BE LIABLE FOR ANY DIRECT,
  27:..\..\..\..\blesw\src\export/ble_utils.h **** INDIRECT, INCIDENTAL, SPECIAL, EXEMPLARY, OR CONSEQUENTIAL DAMAGES (INCLUDING, BUT
  28:..\..\..\..\blesw\src\export/ble_utils.h **** NOT LIMITED TO, PROCUREMENT OF SUBSTITUTE GOODS OR SERVICES; LOSS OF USE, DATA, OR
  29:..\..\..\..\blesw\src\export/ble_utils.h **** PROFITS; OR BUSINESS INTERRUPTION) HOWEVER CAUSED AND ON ANY THEORY OF LIABILITY,
  30:..\..\..\..\blesw\src\export/ble_utils.h **** WHETHER IN CONTRACT, STRICT LIABILITY, OR TORT (INCLUDING NEGLIGENCE OR OTHERWISE)
  31:..\..\..\..\blesw\src\export/ble_utils.h **** ARISING IN ANY WAY OUT OF THE USE OF THIS SOFTWARE, EVEN IF ADVISED OF THE POSSIBILITY
  32:..\..\..\..\blesw\src\export/ble_utils.h **** OF SUCH DAMAGE.
  33:..\..\..\..\blesw\src\export/ble_utils.h **** */
  34:..\..\..\..\blesw\src\export/ble_utils.h **** 
  35:..\..\..\..\blesw\src\export/ble_utils.h **** #ifndef _BLE_UTILS_H_
  36:..\..\..\..\blesw\src\export/ble_utils.h **** #define _BLE_UTILS_H_
  37:..\..\..\..\blesw\src\export/ble_utils.h **** 
  38:..\..\..\..\blesw\src\export/ble_utils.h **** #include <stdint.h>
  39:..\..\..\..\blesw\src\export/ble_utils.h **** 
  40:..\..\..\..\blesw\src\export/ble_utils.h **** #include "compiler.h"   // for INLINE
  41:..\..\..\..\blesw\src\export/ble_utils.h **** 
  42:..\..\..\..\blesw\src\export/ble_utils.h **** #ifdef __cplusplus
  43:..\..\..\..\blesw\src\export/ble_utils.h **** extern "C" {
  44:..\..\..\..\blesw\src\export/ble_utils.h **** #endif
  45:..\..\..\..\blesw\src\export/ble_utils.h **** 
  46:..\..\..\..\blesw\src\export/ble_utils.h **** /*!
  47:..\..\..\..\blesw\src\export/ble_utils.h ****     \brief      Macro to return value with one bit set
  48:..\..\..\..\blesw\src\export/ble_utils.h ****     \param[in]  pos: position of the bit to set
  49:..\..\..\..\blesw\src\export/ble_utils.h ****     \param[out] none
  50:..\..\..\..\blesw\src\export/ble_utils.h ****     \retval     The value with one bit set
  51:..\..\..\..\blesw\src\export/ble_utils.h **** */
  52:..\..\..\..\blesw\src\export/ble_utils.h **** #ifndef BIT
  53:..\..\..\..\blesw\src\export/ble_utils.h **** #define BIT(pos)                (1UL << (pos))
  54:..\..\..\..\blesw\src\export/ble_utils.h **** #endif
  55:..\..\..\..\blesw\src\export/ble_utils.h **** 
  56:..\..\..\..\blesw\src\export/ble_utils.h **** /*!
  57:..\..\..\..\blesw\src\export/ble_utils.h ****     \brief      Macro to extract a field from a value containing several fields
  58:..\..\..\..\blesw\src\export/ble_utils.h ****     \param[in]  __r: bit field value
  59:..\..\..\..\blesw\src\export/ble_utils.h ****     \param[in]  __f: field name
  60:..\..\..\..\blesw\src\export/ble_utils.h ****     \param[out] none
  61:..\..\..\..\blesw\src\export/ble_utils.h ****     \retval     The value of the register masked and shifted
  62:..\..\..\..\blesw\src\export/ble_utils.h **** */
  63:..\..\..\..\blesw\src\export/ble_utils.h **** #ifndef GETF
  64:..\..\..\..\blesw\src\export/ble_utils.h **** #define GETF(__r, __f)                                                           \
  65:..\..\..\..\blesw\src\export/ble_utils.h ****     (( (__r) & (__f##_MASK) ) >> (__f##_LSB))
  66:..\..\..\..\blesw\src\export/ble_utils.h **** #endif
  67:..\..\..\..\blesw\src\export/ble_utils.h **** 
  68:..\..\..\..\blesw\src\export/ble_utils.h **** /*!
  69:..\..\..\..\blesw\src\export/ble_utils.h ****     \brief      Macro to set a field value into a value containing several fields
  70:..\..\..\..\blesw\src\export/ble_utils.h ****     \param[in]  __r: bit field value
  71:..\..\..\..\blesw\src\export/ble_utils.h ****     \param[in]  __f: field name
  72:..\..\..\..\blesw\src\export/ble_utils.h ****     \param[in]  __v: value to put in field
  73:..\..\..\..\blesw\src\export/ble_utils.h ****     \param[out] none
  74:..\..\..\..\blesw\src\export/ble_utils.h ****     \retval     none
  75:..\..\..\..\blesw\src\export/ble_utils.h **** */
  76:..\..\..\..\blesw\src\export/ble_utils.h **** #ifndef SETF
  77:..\..\..\..\blesw\src\export/ble_utils.h **** #define SETF(__r, __f, __v)                                                      \
  78:..\..\..\..\blesw\src\export/ble_utils.h ****     do {                                                                         \
  79:..\..\..\..\blesw\src\export/ble_utils.h ****         __r = (((__r) & ~(__f##_MASK)) | (__v) << (__f##_LSB));                  \
  80:..\..\..\..\blesw\src\export/ble_utils.h ****     } while (0)
  81:..\..\..\..\blesw\src\export/ble_utils.h **** #endif
  82:..\..\..\..\blesw\src\export/ble_utils.h **** 
  83:..\..\..\..\blesw\src\export/ble_utils.h **** /*!
  84:..\..\..\..\blesw\src\export/ble_utils.h ****     \brief      Macro to extract a bit from a value containing several fields
  85:..\..\..\..\blesw\src\export/ble_utils.h ****     \param[in]  __r: bit field value
  86:..\..\..\..\blesw\src\export/ble_utils.h ****     \param[in]  __b: bit field name
  87:..\..\..\..\blesw\src\export/ble_utils.h ****     \param[out] none
  88:..\..\..\..\blesw\src\export/ble_utils.h ****     \retval     The value of the register masked and shifted
  89:..\..\..\..\blesw\src\export/ble_utils.h **** */
  90:..\..\..\..\blesw\src\export/ble_utils.h **** #ifndef GETB
  91:..\..\..\..\blesw\src\export/ble_utils.h **** #define GETB(__r, __b)                                                           \
  92:..\..\..\..\blesw\src\export/ble_utils.h ****     (( (__r) & (__b##_BIT) ) >> (__b##_POS))
  93:..\..\..\..\blesw\src\export/ble_utils.h **** #endif
  94:..\..\..\..\blesw\src\export/ble_utils.h **** 
  95:..\..\..\..\blesw\src\export/ble_utils.h **** /*!
  96:..\..\..\..\blesw\src\export/ble_utils.h ****     \brief      Macro to set a bit value into a value containing several fields
  97:..\..\..\..\blesw\src\export/ble_utils.h ****     \param[in]  __r: bit field value
  98:..\..\..\..\blesw\src\export/ble_utils.h ****     \param[in]  __b: bit field name
  99:..\..\..\..\blesw\src\export/ble_utils.h ****     \param[in]  __v: value to put in field
 100:..\..\..\..\blesw\src\export/ble_utils.h ****     \param[out] none
 101:..\..\..\..\blesw\src\export/ble_utils.h ****     \retval     none
 102:..\..\..\..\blesw\src\export/ble_utils.h **** */
 103:..\..\..\..\blesw\src\export/ble_utils.h **** #ifndef SETB
 104:..\..\..\..\blesw\src\export/ble_utils.h **** #define SETB(__r, __b, __v)                                                      \
 105:..\..\..\..\blesw\src\export/ble_utils.h ****     do {                                                                         \
 106:..\..\..\..\blesw\src\export/ble_utils.h ****         __r = (((__r) & ~(__b##_BIT)) | (uint32_t)((__v ? 1 : 0) << (__b##_POS)));  \
 107:..\..\..\..\blesw\src\export/ble_utils.h ****     } while (0)
 108:..\..\..\..\blesw\src\export/ble_utils.h **** #endif
 109:..\..\..\..\blesw\src\export/ble_utils.h **** 
 110:..\..\..\..\blesw\src\export/ble_utils.h **** /*!
 111:..\..\..\..\blesw\src\export/ble_utils.h ****     \brief      Macro to toggle a bit in a value containing several bits
 112:..\..\..\..\blesw\src\export/ble_utils.h ****     \param[in]  __r: bit field value
 113:..\..\..\..\blesw\src\export/ble_utils.h ****     \param[in]  __b: bit field name
 114:..\..\..\..\blesw\src\export/ble_utils.h ****     \param[out] none
 115:..\..\..\..\blesw\src\export/ble_utils.h ****     \retval     none
 116:..\..\..\..\blesw\src\export/ble_utils.h **** */
 117:..\..\..\..\blesw\src\export/ble_utils.h **** #ifndef TOGB
 118:..\..\..\..\blesw\src\export/ble_utils.h **** #define TOGB(__r, __b)                                                           \
 119:..\..\..\..\blesw\src\export/ble_utils.h ****     do {                                                                         \
 120:..\..\..\..\blesw\src\export/ble_utils.h ****         __r = ((__r) ^ (__b##_BIT));                                             \
 121:..\..\..\..\blesw\src\export/ble_utils.h ****     } while (0)
 122:..\..\..\..\blesw\src\export/ble_utils.h **** #endif
 123:..\..\..\..\blesw\src\export/ble_utils.h **** 
 124:..\..\..\..\blesw\src\export/ble_utils.h **** /* Get the number of elements within an array, give also number of rows in a 2-D array */
 125:..\..\..\..\blesw\src\export/ble_utils.h **** #ifndef ARRAY_LEN
 126:..\..\..\..\blesw\src\export/ble_utils.h **** #define ARRAY_LEN(array)   (sizeof((array)) / sizeof((array)[0]))
 127:..\..\..\..\blesw\src\export/ble_utils.h **** #endif
 128:..\..\..\..\blesw\src\export/ble_utils.h **** 
 129:..\..\..\..\blesw\src\export/ble_utils.h **** /*!
 130:..\..\..\..\blesw\src\export/ble_utils.h ****     \brief      Read an aligned 32 bits word
 131:..\..\..\..\blesw\src\export/ble_utils.h ****     \param[in]  ptr32: the address of the first byte of the 32 bits word
 132:..\..\..\..\blesw\src\export/ble_utils.h ****     \param[out] none
 133:..\..\..\..\blesw\src\export/ble_utils.h ****     \retval     uint32_t: the 32 bits value
 134:..\..\..\..\blesw\src\export/ble_utils.h **** */
 135:..\..\..\..\blesw\src\export/ble_utils.h **** __INLINE uint32_t ble_read32(void const *ptr32)
 136:..\..\..\..\blesw\src\export/ble_utils.h **** {
 137:..\..\..\..\blesw\src\export/ble_utils.h ****     return *((uint32_t *)ptr32);
 138:..\..\..\..\blesw\src\export/ble_utils.h **** }
 139:..\..\..\..\blesw\src\export/ble_utils.h **** 
 140:..\..\..\..\blesw\src\export/ble_utils.h **** /*!
 141:..\..\..\..\blesw\src\export/ble_utils.h ****     \brief      Read an aligned 16 bits word
 142:..\..\..\..\blesw\src\export/ble_utils.h ****     \param[in]  ptr16: the address of the first byte of the 16 bits word
 143:..\..\..\..\blesw\src\export/ble_utils.h ****     \param[out] none
 144:..\..\..\..\blesw\src\export/ble_utils.h ****     \retval     uint16_t: the 16 bits value
 145:..\..\..\..\blesw\src\export/ble_utils.h **** */
 146:..\..\..\..\blesw\src\export/ble_utils.h **** __INLINE uint16_t ble_read16(void const *ptr16)
 147:..\..\..\..\blesw\src\export/ble_utils.h **** {
 148:..\..\..\..\blesw\src\export/ble_utils.h ****     return *((uint16_t *)ptr16);
 149:..\..\..\..\blesw\src\export/ble_utils.h **** }
 150:..\..\..\..\blesw\src\export/ble_utils.h **** 
 151:..\..\..\..\blesw\src\export/ble_utils.h **** /*!
 152:..\..\..\..\blesw\src\export/ble_utils.h ****     \brief      Write an aligned 32 bits word
 153:..\..\..\..\blesw\src\export/ble_utils.h ****     \param[in]  ptr32: the address of the first byte of the 32 bits word
 154:..\..\..\..\blesw\src\export/ble_utils.h ****     \param[in]  value: the value to write
 155:..\..\..\..\blesw\src\export/ble_utils.h ****     \param[out] none
 156:..\..\..\..\blesw\src\export/ble_utils.h ****     \retval     none
 157:..\..\..\..\blesw\src\export/ble_utils.h **** */
 158:..\..\..\..\blesw\src\export/ble_utils.h **** __INLINE void ble_write32(void const *ptr32, uint32_t value)
 159:..\..\..\..\blesw\src\export/ble_utils.h **** {
 160:..\..\..\..\blesw\src\export/ble_utils.h ****     *(uint32_t *)ptr32 = value;
 161:..\..\..\..\blesw\src\export/ble_utils.h **** }
 162:..\..\..\..\blesw\src\export/ble_utils.h **** 
 163:..\..\..\..\blesw\src\export/ble_utils.h **** /*!
 164:..\..\..\..\blesw\src\export/ble_utils.h ****     \brief      Write an aligned 16 bits word
 165:..\..\..\..\blesw\src\export/ble_utils.h ****     \param[in]  ptr16: the address of the first byte of the 16 bits word
 166:..\..\..\..\blesw\src\export/ble_utils.h ****     \param[in]  value: the value to write
 167:..\..\..\..\blesw\src\export/ble_utils.h ****     \param[out] none
 168:..\..\..\..\blesw\src\export/ble_utils.h ****     \retval     none
 169:..\..\..\..\blesw\src\export/ble_utils.h **** */
 170:..\..\..\..\blesw\src\export/ble_utils.h **** __INLINE void ble_write16(void const *ptr16, uint32_t value)
 171:..\..\..\..\blesw\src\export/ble_utils.h **** {
 172:..\..\..\..\blesw\src\export/ble_utils.h ****     *(uint16_t *)ptr16 = value;
 173:..\..\..\..\blesw\src\export/ble_utils.h **** }
 174:..\..\..\..\blesw\src\export/ble_utils.h **** 
 175:..\..\..\..\blesw\src\export/ble_utils.h **** /*!
 176:..\..\..\..\blesw\src\export/ble_utils.h ****     \brief      Write a 8 bits word
 177:..\..\..\..\blesw\src\export/ble_utils.h ****     \param[in]  ptr8: the address of the first byte of the 8 bits word
 178:..\..\..\..\blesw\src\export/ble_utils.h ****     \param[in]  value: the value to write
 179:..\..\..\..\blesw\src\export/ble_utils.h ****     \param[out] none
 180:..\..\..\..\blesw\src\export/ble_utils.h ****     \retval     none
 181:..\..\..\..\blesw\src\export/ble_utils.h **** */
 182:..\..\..\..\blesw\src\export/ble_utils.h **** __INLINE void ble_write8(void const *ptr8, uint32_t value)
 183:..\..\..\..\blesw\src\export/ble_utils.h **** {
 184:..\..\..\..\blesw\src\export/ble_utils.h ****     *(uint8_t *)ptr8 = value;
 185:..\..\..\..\blesw\src\export/ble_utils.h **** }
 186:..\..\..\..\blesw\src\export/ble_utils.h **** 
 187:..\..\..\..\blesw\src\export/ble_utils.h **** /*!
 188:..\..\..\..\blesw\src\export/ble_utils.h ****     \brief      Read a packed 16 bits word
 189:..\..\..\..\blesw\src\export/ble_utils.h ****     \param[in]  ptr16: the address of the first byte of the 16 bits word
 190:..\..\..\..\blesw\src\export/ble_utils.h ****     \param[out] none
 191:..\..\..\..\blesw\src\export/ble_utils.h ****     \retval     uint16_t: the 16 bits value
 192:..\..\..\..\blesw\src\export/ble_utils.h **** */
 193:..\..\..\..\blesw\src\export/ble_utils.h **** __INLINE uint16_t ble_read16p(void const *ptr16)
 194:..\..\..\..\blesw\src\export/ble_utils.h **** {
 195:..\..\..\..\blesw\src\export/ble_utils.h ****     uint16_t value = ((uint8_t const volatile *)ptr16)[0] | ((uint8_t const volatile *)ptr16)[1] <<
 196:..\..\..\..\blesw\src\export/ble_utils.h ****     return value;
 197:..\..\..\..\blesw\src\export/ble_utils.h **** }
 198:..\..\..\..\blesw\src\export/ble_utils.h **** 
 199:..\..\..\..\blesw\src\export/ble_utils.h **** /*!
 200:..\..\..\..\blesw\src\export/ble_utils.h ****     \brief      Read a packed 24 bits word
 201:..\..\..\..\blesw\src\export/ble_utils.h ****     \param[in]  ptr24: the address of the first byte of the 24 bits word
 202:..\..\..\..\blesw\src\export/ble_utils.h ****     \param[out] none
 203:..\..\..\..\blesw\src\export/ble_utils.h ****     \retval     uint32_t: the 24 bits value
 204:..\..\..\..\blesw\src\export/ble_utils.h **** */
 205:..\..\..\..\blesw\src\export/ble_utils.h **** __INLINE uint32_t ble_read24p(void const *ptr24)
 206:..\..\..\..\blesw\src\export/ble_utils.h **** {
 207:..\..\..\..\blesw\src\export/ble_utils.h ****     uint16_t addr_l, addr_h;
 208:..\..\..\..\blesw\src\export/ble_utils.h ****     addr_l = ble_read16p(ptr24);
 209:..\..\..\..\blesw\src\export/ble_utils.h ****     addr_h = *((uint8_t const volatile *)ptr24 + 2) & 0x00FF;
 210:..\..\..\..\blesw\src\export/ble_utils.h ****     return ((uint32_t)addr_l | (uint32_t)addr_h << 16);
 211:..\..\..\..\blesw\src\export/ble_utils.h **** }
 212:..\..\..\..\blesw\src\export/ble_utils.h **** 
 213:..\..\..\..\blesw\src\export/ble_utils.h **** /*!
 214:..\..\..\..\blesw\src\export/ble_utils.h ****     \brief      Write a packed 24 bits word
 215:..\..\..\..\blesw\src\export/ble_utils.h ****     \param[in]  ptr24: the address of the first byte of the 24 bits word
 216:..\..\..\..\blesw\src\export/ble_utils.h ****     \param[in]  value: the value to write
 217:..\..\..\..\blesw\src\export/ble_utils.h ****     \param[out] none
 218:..\..\..\..\blesw\src\export/ble_utils.h ****     \retval     none
 219:..\..\..\..\blesw\src\export/ble_utils.h **** */
 220:..\..\..\..\blesw\src\export/ble_utils.h **** __INLINE void ble_write24p(void const *ptr24, uint32_t value)
 221:..\..\..\..\blesw\src\export/ble_utils.h **** {
 222:..\..\..\..\blesw\src\export/ble_utils.h ****     uint8_t volatile *ptr=(uint8_t*)ptr24;
 223:..\..\..\..\blesw\src\export/ble_utils.h **** 
 224:..\..\..\..\blesw\src\export/ble_utils.h ****     *ptr++ = (uint8_t)(value & 0xff);
 225:..\..\..\..\blesw\src\export/ble_utils.h ****     *ptr++ = (uint8_t)((value & 0xff00) >> 8);
 226:..\..\..\..\blesw\src\export/ble_utils.h ****     *ptr++ = (uint8_t)((value & 0xff0000) >> 16);
 227:..\..\..\..\blesw\src\export/ble_utils.h **** }
 228:..\..\..\..\blesw\src\export/ble_utils.h **** 
 229:..\..\..\..\blesw\src\export/ble_utils.h **** /*!
 230:..\..\..\..\blesw\src\export/ble_utils.h ****     \brief      Read a packed 32 bits word
 231:..\..\..\..\blesw\src\export/ble_utils.h ****     \param[in]  ptr32: the address of the first byte of the 32 bits word
 232:..\..\..\..\blesw\src\export/ble_utils.h ****     \param[out] none
 233:..\..\..\..\blesw\src\export/ble_utils.h ****     \retval     uint32_t: the 32 bits value
 234:..\..\..\..\blesw\src\export/ble_utils.h **** */
 235:..\..\..\..\blesw\src\export/ble_utils.h **** __INLINE uint32_t ble_read32p(void const *ptr32)
 236:..\..\..\..\blesw\src\export/ble_utils.h **** {
 237:..\..\..\..\blesw\src\export/ble_utils.h ****     uint16_t addr_l, addr_h;
 238:..\..\..\..\blesw\src\export/ble_utils.h ****     addr_l = ble_read16p(ptr32);
 239:..\..\..\..\blesw\src\export/ble_utils.h ****     addr_h = ble_read16p((uint8_t *)ptr32 + 2);
 240:..\..\..\..\blesw\src\export/ble_utils.h ****     return ((uint32_t)addr_l | (uint32_t)addr_h << 16);
 241:..\..\..\..\blesw\src\export/ble_utils.h **** }
 242:..\..\..\..\blesw\src\export/ble_utils.h **** 
 243:..\..\..\..\blesw\src\export/ble_utils.h **** /*!
 244:..\..\..\..\blesw\src\export/ble_utils.h ****     \brief      Write a packed 32 bits word
 245:..\..\..\..\blesw\src\export/ble_utils.h ****     \param[in]  ptr32: the address of the first byte of the 32 bits word
 246:..\..\..\..\blesw\src\export/ble_utils.h ****     \param[in]  value: the value to write
 247:..\..\..\..\blesw\src\export/ble_utils.h ****     \param[out] none
 248:..\..\..\..\blesw\src\export/ble_utils.h ****     \retval     none
 249:..\..\..\..\blesw\src\export/ble_utils.h **** */
 250:..\..\..\..\blesw\src\export/ble_utils.h **** __INLINE void ble_write32p(void const *ptr32, uint32_t value)
 251:..\..\..\..\blesw\src\export/ble_utils.h **** {
 252:..\..\..\..\blesw\src\export/ble_utils.h ****     uint8_t volatile *ptr=(uint8_t *)ptr32;
 253:..\..\..\..\blesw\src\export/ble_utils.h **** 
 254:..\..\..\..\blesw\src\export/ble_utils.h ****     *ptr++ = (uint8_t)(value & 0xff);
 255:..\..\..\..\blesw\src\export/ble_utils.h ****     *ptr++ = (uint8_t)((value & 0xff00) >> 8);
 256:..\..\..\..\blesw\src\export/ble_utils.h ****     *ptr++ = (uint8_t)((value & 0xff0000) >> 16);
 257:..\..\..\..\blesw\src\export/ble_utils.h ****     *ptr = (uint8_t)((value & 0xff000000) >> 24);
 258:..\..\..\..\blesw\src\export/ble_utils.h **** }
 259:..\..\..\..\blesw\src\export/ble_utils.h **** 
 260:..\..\..\..\blesw\src\export/ble_utils.h **** /*!
 261:..\..\..\..\blesw\src\export/ble_utils.h ****     \brief      Write a packed 16 bits word
 262:..\..\..\..\blesw\src\export/ble_utils.h ****     \param[in]  ptr16: the address of the first byte of the 16 bits word
 263:..\..\..\..\blesw\src\export/ble_utils.h ****     \param[in]  value: the value to write
 264:..\..\..\..\blesw\src\export/ble_utils.h ****     \param[out] none
 265:..\..\..\..\blesw\src\export/ble_utils.h ****     \retval     none
 266:..\..\..\..\blesw\src\export/ble_utils.h **** */
 267:..\..\..\..\blesw\src\export/ble_utils.h **** __INLINE void ble_write16p(void const *ptr16, uint16_t value)
 268:..\..\..\..\blesw\src\export/ble_utils.h **** {
 269:..\..\..\..\blesw\src\export/ble_utils.h ****     uint8_t volatile *ptr=(uint8_t *)ptr16;
 270:..\..\..\..\blesw\src\export/ble_utils.h **** 
 271:..\..\..\..\blesw\src\export/ble_utils.h ****     *ptr++ = value & 0xff;
 272:..\..\..\..\blesw\src\export/ble_utils.h ****     *ptr = (value & 0xff00)>>8;
 273:..\..\..\..\blesw\src\export/ble_utils.h **** }
 274:..\..\..\..\blesw\src\export/ble_utils.h **** 
 275:..\..\..\..\blesw\src\export/ble_utils.h **** /*!
 276:..\..\..\..\blesw\src\export/ble_utils.h ****     \brief      Function to return the smallest of 2 unsigned 32 bits words
 277:..\..\..\..\blesw\src\export/ble_utils.h ****     \param[in]  a: unsigned 32 bits word to compare
 278:..\..\..\..\blesw\src\export/ble_utils.h ****     \param[in]  b: unsigned 32 bits word to compare
 279:..\..\..\..\blesw\src\export/ble_utils.h ****     \param[out] none
 280:..\..\..\..\blesw\src\export/ble_utils.h ****     \retval     uint32_t: the smallest value
 281:..\..\..\..\blesw\src\export/ble_utils.h **** */
 282:..\..\..\..\blesw\src\export/ble_utils.h **** __INLINE uint32_t ble_min(uint32_t a, uint32_t b)
 283:..\..\..\..\blesw\src\export/ble_utils.h **** {
 284:..\..\..\..\blesw\src\export/ble_utils.h ****     return a < b ? a : b;
  93              		.loc 2 284 5
  94              	.LBE31:
  95              	.LBE30:
  96              		.loc 1 238 19 is_stmt 0
  97 0046 03566501 		lhu	a2,22(a0)
  98              	.LVL5:
  99              		.loc 1 238 57
 100 004a 998F     		sub	a5,a5,a4
 101              	.LVL6:
 102              	.LBB33:
 103              	.LBB32:
 104              		.loc 2 284 22
 105 004c 3356F60A 		minu	a2,a2,a5
 106              	.LVL7:
 107              	.LBE32:
 108              	.LBE33:
 239:C:/Users/stapi/OneDrive/Desktop/GD32VW553/V1_MQTT_OK/GD32VW55X_Wifi_BLE_SDK/GD32VW55x_RELEASE_V1.0.2/MSDK/ble/profile/dis\ble_diss.c ****             p_read_req->val_len = len;
 109              		.loc 1 239 13 is_stmt 1
 238:C:/Users/stapi/OneDrive/Desktop/GD32VW553/V1_MQTT_OK/GD32VW55X_Wifi_BLE_SDK/GD32VW55x_RELEASE_V1.0.2/MSDK/ble/profile/dis\ble_diss.c ****             p_read_req->val_len = len;
 110              		.loc 1 238 17 is_stmt 0
 111 0050 231CC500 		sh	a2,24(a0)
 240:C:/Users/stapi/OneDrive/Desktop/GD32VW553/V1_MQTT_OK/GD32VW55X_Wifi_BLE_SDK/GD32VW55x_RELEASE_V1.0.2/MSDK/ble/profile/dis\ble_diss.c ****             sys_memcpy(p_read_req->p_val, p_attr, len);
 112              		.loc 1 240 13 is_stmt 1
 113 0054 484D     		lw	a0,28(a0)
 114              	.LVL8:
 115 0056 97000000 		call	sys_memcpy
 115      E7800000 
 116              	.LVL9:
 117              	.L1:
 118              	.LBE29:
 119              	.LBE28:
 120              	.LBE27:
 241:C:/Users/stapi/OneDrive/Desktop/GD32VW553/V1_MQTT_OK/GD32VW55X_Wifi_BLE_SDK/GD32VW55x_RELEASE_V1.0.2/MSDK/ble/profile/dis\ble_diss.c ****         }
 242:C:/Users/stapi/OneDrive/Desktop/GD32VW553/V1_MQTT_OK/GD32VW55X_Wifi_BLE_SDK/GD32VW55x_RELEASE_V1.0.2/MSDK/ble/profile/dis\ble_diss.c ****     }
 243:C:/Users/stapi/OneDrive/Desktop/GD32VW553/V1_MQTT_OK/GD32VW55X_Wifi_BLE_SDK/GD32VW55x_RELEASE_V1.0.2/MSDK/ble/profile/dis\ble_diss.c **** 
 244:C:/Users/stapi/OneDrive/Desktop/GD32VW553/V1_MQTT_OK/GD32VW55X_Wifi_BLE_SDK/GD32VW55x_RELEASE_V1.0.2/MSDK/ble/profile/dis\ble_diss.c ****     return BLE_ERR_NO_ERROR;
 245:C:/Users/stapi/OneDrive/Desktop/GD32VW553/V1_MQTT_OK/GD32VW55X_Wifi_BLE_SDK/GD32VW55x_RELEASE_V1.0.2/MSDK/ble/profile/dis\ble_diss.c **** }
 121              		.loc 1 245 1 is_stmt 0
 122 005e 2285     		mv	a0,s0
 123 0060 17030000 		tail	__riscv_restore_1
 123      67000300 
 124              		.cfi_remember_state
 125              		.cfi_restore 8
 126              		.cfi_restore 1
 127              		.cfi_def_cfa_offset 0
 128              	.LVL10:
 129              	.L12:
 130              		.cfi_restore_state
 131              	.LBB38:
 132              	.LBB36:
 133              	.LBB34:
 186:C:/Users/stapi/OneDrive/Desktop/GD32VW553/V1_MQTT_OK/GD32VW55X_Wifi_BLE_SDK/GD32VW55x_RELEASE_V1.0.2/MSDK/ble/profile/dis\ble_diss.c ****                 attr_len = ble_diss_val.manufact_name_len;
 134              		.loc 1 186 17 is_stmt 1
 187:C:/Users/stapi/OneDrive/Desktop/GD32VW553/V1_MQTT_OK/GD32VW55X_Wifi_BLE_SDK/GD32VW55x_RELEASE_V1.0.2/MSDK/ble/profile/dis\ble_diss.c ****             } break;
 135              		.loc 1 187 17
 187:C:/Users/stapi/OneDrive/Desktop/GD32VW553/V1_MQTT_OK/GD32VW55X_Wifi_BLE_SDK/GD32VW55x_RELEASE_V1.0.2/MSDK/ble/profile/dis\ble_diss.c ****             } break;
 136              		.loc 1 187 26 is_stmt 0
 137 0068 B7050000 		lui	a1,%hi(.LANCHOR0)
 138 006c 93870500 		addi	a5,a1,%lo(.LANCHOR0)
 139 0070 83C7F701 		lbu	a5,31(a5)
 140              	.LVL11:
 188:C:/Users/stapi/OneDrive/Desktop/GD32VW553/V1_MQTT_OK/GD32VW55X_Wifi_BLE_SDK/GD32VW55x_RELEASE_V1.0.2/MSDK/ble/profile/dis\ble_diss.c **** 
 141              		.loc 1 188 15 is_stmt 1
 186:C:/Users/stapi/OneDrive/Desktop/GD32VW553/V1_MQTT_OK/GD32VW55X_Wifi_BLE_SDK/GD32VW55x_RELEASE_V1.0.2/MSDK/ble/profile/dis\ble_diss.c ****                 attr_len = ble_diss_val.manufact_name_len;
 142              		.loc 1 186 26 is_stmt 0
 143 0074 93850500 		addi	a1,a1,%lo(.LANCHOR0)
 188:C:/Users/stapi/OneDrive/Desktop/GD32VW553/V1_MQTT_OK/GD32VW55X_Wifi_BLE_SDK/GD32VW55x_RELEASE_V1.0.2/MSDK/ble/profile/dis\ble_diss.c **** 
 144              		.loc 1 188 13
 145 0078 D9B7     		j	.L6
 146              	.LVL12:
 147              	.L11:
 191:C:/Users/stapi/OneDrive/Desktop/GD32VW553/V1_MQTT_OK/GD32VW55X_Wifi_BLE_SDK/GD32VW55x_RELEASE_V1.0.2/MSDK/ble/profile/dis\ble_diss.c ****                 attr_len = ble_diss_val.model_num_len;
 148              		.loc 1 191 17 is_stmt 1
 192:C:/Users/stapi/OneDrive/Desktop/GD32VW553/V1_MQTT_OK/GD32VW55X_Wifi_BLE_SDK/GD32VW55x_RELEASE_V1.0.2/MSDK/ble/profile/dis\ble_diss.c ****             } break;
 149              		.loc 1 192 17
 192:C:/Users/stapi/OneDrive/Desktop/GD32VW553/V1_MQTT_OK/GD32VW55X_Wifi_BLE_SDK/GD32VW55x_RELEASE_V1.0.2/MSDK/ble/profile/dis\ble_diss.c ****             } break;
 150              		.loc 1 192 26 is_stmt 0
 151 007a B7050000 		lui	a1,%hi(.LANCHOR0)
 152 007e 93850500 		addi	a1,a1,%lo(.LANCHOR0)
 153 0082 83C7F503 		lbu	a5,63(a1)
 154              	.LVL13:
 193:C:/Users/stapi/OneDrive/Desktop/GD32VW553/V1_MQTT_OK/GD32VW55X_Wifi_BLE_SDK/GD32VW55x_RELEASE_V1.0.2/MSDK/ble/profile/dis\ble_diss.c **** 
 155              		.loc 1 193 15 is_stmt 1
 191:C:/Users/stapi/OneDrive/Desktop/GD32VW553/V1_MQTT_OK/GD32VW55X_Wifi_BLE_SDK/GD32VW55x_RELEASE_V1.0.2/MSDK/ble/profile/dis\ble_diss.c ****                 attr_len = ble_diss_val.model_num_len;
 156              		.loc 1 191 26 is_stmt 0
 157 0086 93850502 		addi	a1,a1,32
 193:C:/Users/stapi/OneDrive/Desktop/GD32VW553/V1_MQTT_OK/GD32VW55X_Wifi_BLE_SDK/GD32VW55x_RELEASE_V1.0.2/MSDK/ble/profile/dis\ble_diss.c **** 
 158              		.loc 1 193 13
 159 008a 55BF     		j	.L6
 160              	.LVL14:
 161              	.L10:
 196:C:/Users/stapi/OneDrive/Desktop/GD32VW553/V1_MQTT_OK/GD32VW55X_Wifi_BLE_SDK/GD32VW55x_RELEASE_V1.0.2/MSDK/ble/profile/dis\ble_diss.c ****                 attr_len = ble_diss_val.serial_num_len;
 162              		.loc 1 196 17 is_stmt 1
 197:C:/Users/stapi/OneDrive/Desktop/GD32VW553/V1_MQTT_OK/GD32VW55X_Wifi_BLE_SDK/GD32VW55x_RELEASE_V1.0.2/MSDK/ble/profile/dis\ble_diss.c ****             } break;
 163              		.loc 1 197 17
 197:C:/Users/stapi/OneDrive/Desktop/GD32VW553/V1_MQTT_OK/GD32VW55X_Wifi_BLE_SDK/GD32VW55x_RELEASE_V1.0.2/MSDK/ble/profile/dis\ble_diss.c ****             } break;
 164              		.loc 1 197 26 is_stmt 0
 165 008c B7050000 		lui	a1,%hi(.LANCHOR0)
 166 0090 93850500 		addi	a1,a1,%lo(.LANCHOR0)
 167 0094 83C7F505 		lbu	a5,95(a1)
 168              	.LVL15:
 198:C:/Users/stapi/OneDrive/Desktop/GD32VW553/V1_MQTT_OK/GD32VW55X_Wifi_BLE_SDK/GD32VW55x_RELEASE_V1.0.2/MSDK/ble/profile/dis\ble_diss.c **** 
 169              		.loc 1 198 15 is_stmt 1
 196:C:/Users/stapi/OneDrive/Desktop/GD32VW553/V1_MQTT_OK/GD32VW55X_Wifi_BLE_SDK/GD32VW55x_RELEASE_V1.0.2/MSDK/ble/profile/dis\ble_diss.c ****                 attr_len = ble_diss_val.serial_num_len;
 170              		.loc 1 196 26 is_stmt 0
 171 0098 93850504 		addi	a1,a1,64
 198:C:/Users/stapi/OneDrive/Desktop/GD32VW553/V1_MQTT_OK/GD32VW55X_Wifi_BLE_SDK/GD32VW55x_RELEASE_V1.0.2/MSDK/ble/profile/dis\ble_diss.c **** 
 172              		.loc 1 198 13
 173 009c 4DB7     		j	.L6
 174              	.LVL16:
 175              	.L9:
 201:C:/Users/stapi/OneDrive/Desktop/GD32VW553/V1_MQTT_OK/GD32VW55X_Wifi_BLE_SDK/GD32VW55x_RELEASE_V1.0.2/MSDK/ble/profile/dis\ble_diss.c ****                 attr_len = ble_diss_val.hw_rev_len;
 176              		.loc 1 201 17 is_stmt 1
 202:C:/Users/stapi/OneDrive/Desktop/GD32VW553/V1_MQTT_OK/GD32VW55X_Wifi_BLE_SDK/GD32VW55x_RELEASE_V1.0.2/MSDK/ble/profile/dis\ble_diss.c ****             } break;
 177              		.loc 1 202 17
 202:C:/Users/stapi/OneDrive/Desktop/GD32VW553/V1_MQTT_OK/GD32VW55X_Wifi_BLE_SDK/GD32VW55x_RELEASE_V1.0.2/MSDK/ble/profile/dis\ble_diss.c ****             } break;
 178              		.loc 1 202 26 is_stmt 0
 179 009e B7050000 		lui	a1,%hi(.LANCHOR0)
 180 00a2 93850500 		addi	a1,a1,%lo(.LANCHOR0)
 181 00a6 83C7F507 		lbu	a5,127(a1)
 182              	.LVL17:
 203:C:/Users/stapi/OneDrive/Desktop/GD32VW553/V1_MQTT_OK/GD32VW55X_Wifi_BLE_SDK/GD32VW55x_RELEASE_V1.0.2/MSDK/ble/profile/dis\ble_diss.c **** 
 183              		.loc 1 203 15 is_stmt 1
 201:C:/Users/stapi/OneDrive/Desktop/GD32VW553/V1_MQTT_OK/GD32VW55X_Wifi_BLE_SDK/GD32VW55x_RELEASE_V1.0.2/MSDK/ble/profile/dis\ble_diss.c ****                 attr_len = ble_diss_val.hw_rev_len;
 184              		.loc 1 201 26 is_stmt 0
 185 00aa 93850506 		addi	a1,a1,96
 203:C:/Users/stapi/OneDrive/Desktop/GD32VW553/V1_MQTT_OK/GD32VW55X_Wifi_BLE_SDK/GD32VW55x_RELEASE_V1.0.2/MSDK/ble/profile/dis\ble_diss.c **** 
 186              		.loc 1 203 13
 187 00ae 41BF     		j	.L6
 188              	.LVL18:
 189              	.L8:
 206:C:/Users/stapi/OneDrive/Desktop/GD32VW553/V1_MQTT_OK/GD32VW55X_Wifi_BLE_SDK/GD32VW55x_RELEASE_V1.0.2/MSDK/ble/profile/dis\ble_diss.c ****                 attr_len = ble_diss_val.fw_rev_len;
 190              		.loc 1 206 17 is_stmt 1
 207:C:/Users/stapi/OneDrive/Desktop/GD32VW553/V1_MQTT_OK/GD32VW55X_Wifi_BLE_SDK/GD32VW55x_RELEASE_V1.0.2/MSDK/ble/profile/dis\ble_diss.c ****             } break;
 191              		.loc 1 207 17
 207:C:/Users/stapi/OneDrive/Desktop/GD32VW553/V1_MQTT_OK/GD32VW55X_Wifi_BLE_SDK/GD32VW55x_RELEASE_V1.0.2/MSDK/ble/profile/dis\ble_diss.c ****             } break;
 192              		.loc 1 207 26 is_stmt 0
 193 00b0 B7050000 		lui	a1,%hi(.LANCHOR0)
 194 00b4 93850500 		addi	a1,a1,%lo(.LANCHOR0)
 195 00b8 83C7F509 		lbu	a5,159(a1)
 196              	.LVL19:
 208:C:/Users/stapi/OneDrive/Desktop/GD32VW553/V1_MQTT_OK/GD32VW55X_Wifi_BLE_SDK/GD32VW55x_RELEASE_V1.0.2/MSDK/ble/profile/dis\ble_diss.c **** 
 197              		.loc 1 208 15 is_stmt 1
 206:C:/Users/stapi/OneDrive/Desktop/GD32VW553/V1_MQTT_OK/GD32VW55X_Wifi_BLE_SDK/GD32VW55x_RELEASE_V1.0.2/MSDK/ble/profile/dis\ble_diss.c ****                 attr_len = ble_diss_val.fw_rev_len;
 198              		.loc 1 206 26 is_stmt 0
 199 00bc 93850508 		addi	a1,a1,128
 208:C:/Users/stapi/OneDrive/Desktop/GD32VW553/V1_MQTT_OK/GD32VW55X_Wifi_BLE_SDK/GD32VW55x_RELEASE_V1.0.2/MSDK/ble/profile/dis\ble_diss.c **** 
 200              		.loc 1 208 13
 201 00c0 BDBF     		j	.L6
 202              	.LVL20:
 203              	.L7:
 211:C:/Users/stapi/OneDrive/Desktop/GD32VW553/V1_MQTT_OK/GD32VW55X_Wifi_BLE_SDK/GD32VW55x_RELEASE_V1.0.2/MSDK/ble/profile/dis\ble_diss.c ****                 attr_len = ble_diss_val.sw_rev_len;
 204              		.loc 1 211 17 is_stmt 1
 212:C:/Users/stapi/OneDrive/Desktop/GD32VW553/V1_MQTT_OK/GD32VW55X_Wifi_BLE_SDK/GD32VW55x_RELEASE_V1.0.2/MSDK/ble/profile/dis\ble_diss.c ****             } break;
 205              		.loc 1 212 17
 212:C:/Users/stapi/OneDrive/Desktop/GD32VW553/V1_MQTT_OK/GD32VW55X_Wifi_BLE_SDK/GD32VW55x_RELEASE_V1.0.2/MSDK/ble/profile/dis\ble_diss.c ****             } break;
 206              		.loc 1 212 26 is_stmt 0
 207 00c2 B7050000 		lui	a1,%hi(.LANCHOR0)
 208 00c6 93850500 		addi	a1,a1,%lo(.LANCHOR0)
 209 00ca 83C7F50B 		lbu	a5,191(a1)
 210              	.LVL21:
 213:C:/Users/stapi/OneDrive/Desktop/GD32VW553/V1_MQTT_OK/GD32VW55X_Wifi_BLE_SDK/GD32VW55x_RELEASE_V1.0.2/MSDK/ble/profile/dis\ble_diss.c **** 
 211              		.loc 1 213 15 is_stmt 1
 211:C:/Users/stapi/OneDrive/Desktop/GD32VW553/V1_MQTT_OK/GD32VW55X_Wifi_BLE_SDK/GD32VW55x_RELEASE_V1.0.2/MSDK/ble/profile/dis\ble_diss.c ****                 attr_len = ble_diss_val.sw_rev_len;
 212              		.loc 1 211 26 is_stmt 0
 213 00ce 9385050A 		addi	a1,a1,160
 213:C:/Users/stapi/OneDrive/Desktop/GD32VW553/V1_MQTT_OK/GD32VW55X_Wifi_BLE_SDK/GD32VW55x_RELEASE_V1.0.2/MSDK/ble/profile/dis\ble_diss.c **** 
 214              		.loc 1 213 13
 215 00d2 B5B7     		j	.L6
 216              	.LVL22:
 217              	.L5:
 221:C:/Users/stapi/OneDrive/Desktop/GD32VW553/V1_MQTT_OK/GD32VW55X_Wifi_BLE_SDK/GD32VW55x_RELEASE_V1.0.2/MSDK/ble/profile/dis\ble_diss.c ****                 attr_len = ble_diss_val.ieee_data_len;
 218              		.loc 1 221 17 is_stmt 1
 222:C:/Users/stapi/OneDrive/Desktop/GD32VW553/V1_MQTT_OK/GD32VW55X_Wifi_BLE_SDK/GD32VW55x_RELEASE_V1.0.2/MSDK/ble/profile/dis\ble_diss.c ****             } break;
 219              		.loc 1 222 17
 222:C:/Users/stapi/OneDrive/Desktop/GD32VW553/V1_MQTT_OK/GD32VW55X_Wifi_BLE_SDK/GD32VW55x_RELEASE_V1.0.2/MSDK/ble/profile/dis\ble_diss.c ****             } break;
 220              		.loc 1 222 26 is_stmt 0
 221 00d4 B7050000 		lui	a1,%hi(.LANCHOR0)
 222 00d8 93850500 		addi	a1,a1,%lo(.LANCHOR0)
 223 00dc 83C7750E 		lbu	a5,231(a1)
 224              	.LVL23:
 223:C:/Users/stapi/OneDrive/Desktop/GD32VW553/V1_MQTT_OK/GD32VW55X_Wifi_BLE_SDK/GD32VW55x_RELEASE_V1.0.2/MSDK/ble/profile/dis\ble_diss.c **** 
 225              		.loc 1 223 15 is_stmt 1
 221:C:/Users/stapi/OneDrive/Desktop/GD32VW553/V1_MQTT_OK/GD32VW55X_Wifi_BLE_SDK/GD32VW55x_RELEASE_V1.0.2/MSDK/ble/profile/dis\ble_diss.c ****                 attr_len = ble_diss_val.ieee_data_len;
 226              		.loc 1 221 26 is_stmt 0
 227 00e0 9385850C 		addi	a1,a1,200
 223:C:/Users/stapi/OneDrive/Desktop/GD32VW553/V1_MQTT_OK/GD32VW55X_Wifi_BLE_SDK/GD32VW55x_RELEASE_V1.0.2/MSDK/ble/profile/dis\ble_diss.c **** 
 228              		.loc 1 223 13
 229 00e4 A9BF     		j	.L6
 230              	.LVL24:
 231              	.L16:
 216:C:/Users/stapi/OneDrive/Desktop/GD32VW553/V1_MQTT_OK/GD32VW55X_Wifi_BLE_SDK/GD32VW55x_RELEASE_V1.0.2/MSDK/ble/profile/dis\ble_diss.c ****                 attr_len = BLE_DIS_SYS_ID_LEN;
 232              		.loc 1 216 26
 233 00e6 B7050000 		lui	a1,%hi(.LANCHOR0+192)
 234 00ea 9385050C 		addi	a1,a1,%lo(.LANCHOR0+192)
 217:C:/Users/stapi/OneDrive/Desktop/GD32VW553/V1_MQTT_OK/GD32VW55X_Wifi_BLE_SDK/GD32VW55x_RELEASE_V1.0.2/MSDK/ble/profile/dis\ble_diss.c ****             } break;
 235              		.loc 1 217 26
 236 00ee A147     		li	a5,8
 237 00f0 B9B7     		j	.L6
 238              	.LVL25:
 239              	.L14:
 240              	.LBE34:
 241              	.LBE36:
 242              	.LBE38:
 244:C:/Users/stapi/OneDrive/Desktop/GD32VW553/V1_MQTT_OK/GD32VW55X_Wifi_BLE_SDK/GD32VW55x_RELEASE_V1.0.2/MSDK/ble/profile/dis\ble_diss.c **** }
 243              		.loc 1 244 12
 244 00f2 0144     		li	s0,0
 245 00f4 ADB7     		j	.L1
 246              	.LVL26:
 247              	.L15:
 248              	.LBB39:
 249              	.LBB37:
 250              	.LBB35:
 183:C:/Users/stapi/OneDrive/Desktop/GD32VW553/V1_MQTT_OK/GD32VW55X_Wifi_BLE_SDK/GD32VW55x_RELEASE_V1.0.2/MSDK/ble/profile/dis\ble_diss.c ****             switch (attr_idx) {
 251              		.loc 1 183 22
 252 00f6 0544     		li	s0,1
 253 00f8 9DB7     		j	.L1
 254              	.LVL27:
 255              	.L17:
 235:C:/Users/stapi/OneDrive/Desktop/GD32VW553/V1_MQTT_OK/GD32VW55X_Wifi_BLE_SDK/GD32VW55x_RELEASE_V1.0.2/MSDK/ble/profile/dis\ble_diss.c ****             }
 256              		.loc 1 235 24
 257 00fa 1D44     		li	s0,7
 258              	.LVL28:
 259 00fc 8DB7     		j	.L1
 260              	.LBE35:
 261              	.LBE37:
 262              	.LBE39:
 263              		.cfi_endproc
 264              	.LFE19:
 266              		.section	.text.ble_diss_init,"ax",@progbits
 267              		.align	1
 268              		.globl	ble_diss_init
 270              	ble_diss_init:
 271              	.LFB20:
 246:C:/Users/stapi/OneDrive/Desktop/GD32VW553/V1_MQTT_OK/GD32VW55X_Wifi_BLE_SDK/GD32VW55x_RELEASE_V1.0.2/MSDK/ble/profile/dis\ble_diss.c **** 
 247:C:/Users/stapi/OneDrive/Desktop/GD32VW553/V1_MQTT_OK/GD32VW55X_Wifi_BLE_SDK/GD32VW55x_RELEASE_V1.0.2/MSDK/ble/profile/dis\ble_diss.c **** /*!
 248:C:/Users/stapi/OneDrive/Desktop/GD32VW553/V1_MQTT_OK/GD32VW55X_Wifi_BLE_SDK/GD32VW55x_RELEASE_V1.0.2/MSDK/ble/profile/dis\ble_diss.c ****     \brief      Init Device Information Service Server
 249:C:/Users/stapi/OneDrive/Desktop/GD32VW553/V1_MQTT_OK/GD32VW55X_Wifi_BLE_SDK/GD32VW55x_RELEASE_V1.0.2/MSDK/ble/profile/dis\ble_diss.c ****     \param[in]  p_param: pointer to Device Information Service init parameters
 250:C:/Users/stapi/OneDrive/Desktop/GD32VW553/V1_MQTT_OK/GD32VW55X_Wifi_BLE_SDK/GD32VW55x_RELEASE_V1.0.2/MSDK/ble/profile/dis\ble_diss.c ****     \param[out] none
 251:C:/Users/stapi/OneDrive/Desktop/GD32VW553/V1_MQTT_OK/GD32VW55X_Wifi_BLE_SDK/GD32VW55x_RELEASE_V1.0.2/MSDK/ble/profile/dis\ble_diss.c ****     \retval     ble_status_t: BLE_ERR_NO_ERROR on success, otherwise an error code
 252:C:/Users/stapi/OneDrive/Desktop/GD32VW553/V1_MQTT_OK/GD32VW55X_Wifi_BLE_SDK/GD32VW55x_RELEASE_V1.0.2/MSDK/ble/profile/dis\ble_diss.c **** */
 253:C:/Users/stapi/OneDrive/Desktop/GD32VW553/V1_MQTT_OK/GD32VW55X_Wifi_BLE_SDK/GD32VW55x_RELEASE_V1.0.2/MSDK/ble/profile/dis\ble_diss.c **** ble_status_t ble_diss_init(ble_diss_init_param_t *p_param)
 254:C:/Users/stapi/OneDrive/Desktop/GD32VW553/V1_MQTT_OK/GD32VW55X_Wifi_BLE_SDK/GD32VW55x_RELEASE_V1.0.2/MSDK/ble/profile/dis\ble_diss.c **** {
 272              		.loc 1 254 1 is_stmt 1
 273              		.cfi_startproc
 274              	.LVL29:
 275 0000 17030000 		call	t0,__riscv_save_2
 275      E7020300 
 276              		.cfi_offset 9, -12
 277              		.cfi_offset 8, -8
 278              		.cfi_offset 1, -4
 279              		.cfi_def_cfa_offset 16
 255:C:/Users/stapi/OneDrive/Desktop/GD32VW553/V1_MQTT_OK/GD32VW55X_Wifi_BLE_SDK/GD32VW55x_RELEASE_V1.0.2/MSDK/ble/profile/dis\ble_diss.c ****     ble_status_t ret = BLE_ERR_NO_ERROR;
 280              		.loc 1 255 5
 281              	.LVL30:
 256:C:/Users/stapi/OneDrive/Desktop/GD32VW553/V1_MQTT_OK/GD32VW55X_Wifi_BLE_SDK/GD32VW55x_RELEASE_V1.0.2/MSDK/ble/profile/dis\ble_diss.c **** 
 257:C:/Users/stapi/OneDrive/Desktop/GD32VW553/V1_MQTT_OK/GD32VW55X_Wifi_BLE_SDK/GD32VW55x_RELEASE_V1.0.2/MSDK/ble/profile/dis\ble_diss.c ****     if (p_param == NULL) {
 282              		.loc 1 257 5
 258:C:/Users/stapi/OneDrive/Desktop/GD32VW553/V1_MQTT_OK/GD32VW55X_Wifi_BLE_SDK/GD32VW55x_RELEASE_V1.0.2/MSDK/ble/profile/dis\ble_diss.c ****         return BLE_PRF_ERR_INVALID_PARAM;
 283              		.loc 1 258 16 is_stmt 0
 284 0008 93041008 		li	s1,129
 257:C:/Users/stapi/OneDrive/Desktop/GD32VW553/V1_MQTT_OK/GD32VW55X_Wifi_BLE_SDK/GD32VW55x_RELEASE_V1.0.2/MSDK/ble/profile/dis\ble_diss.c ****         return BLE_PRF_ERR_INVALID_PARAM;
 285              		.loc 1 257 8
 286 000c 6308051A 		beq	a0,zero,.L19
 259:C:/Users/stapi/OneDrive/Desktop/GD32VW553/V1_MQTT_OK/GD32VW55X_Wifi_BLE_SDK/GD32VW55x_RELEASE_V1.0.2/MSDK/ble/profile/dis\ble_diss.c ****     }
 260:C:/Users/stapi/OneDrive/Desktop/GD32VW553/V1_MQTT_OK/GD32VW55X_Wifi_BLE_SDK/GD32VW55x_RELEASE_V1.0.2/MSDK/ble/profile/dis\ble_diss.c **** 
 261:C:/Users/stapi/OneDrive/Desktop/GD32VW553/V1_MQTT_OK/GD32VW55X_Wifi_BLE_SDK/GD32VW55x_RELEASE_V1.0.2/MSDK/ble/profile/dis\ble_diss.c ****     ret = ble_gatts_svc_add(&ble_diss_svc_id, ble_dis_uuid, 0, SVC_UUID(16) | SVC_SEC_LVL_VAL(p_par
 287              		.loc 1 261 11
 288 0010 3441     		lw	a3,64(a0)
 289 0012 2A84     		mv	s0,a0
 290              		.loc 1 261 5 is_stmt 1
 291              		.loc 1 261 11 is_stmt 0
 292 0014 37080000 		lui	a6,%hi(ble_diss_srv_cb)
 293 0018 37070000 		lui	a4,%hi(.LANCHOR1)
 294 001c B7050000 		lui	a1,%hi(.LANCHOR2)
 295 0020 37050000 		lui	a0,%hi(.LANCHOR3)
 296              	.LVL31:
 297 0024 13080800 		addi	a6,a6,%lo(ble_diss_srv_cb)
 298 0028 CD47     		li	a5,19
 299 002a 13070700 		addi	a4,a4,%lo(.LANCHOR1)
 300 002e 8D8A     		andi	a3,a3,3
 301 0030 0146     		li	a2,0
 302 0032 93850500 		addi	a1,a1,%lo(.LANCHOR2)
 303 0036 13050500 		addi	a0,a0,%lo(.LANCHOR3)
 304 003a 97000000 		call	ble_gatts_svc_add
 304      E7800000 
 305              	.LVL32:
 306 0042 AA84     		mv	s1,a0
 307              	.LVL33:
 262:C:/Users/stapi/OneDrive/Desktop/GD32VW553/V1_MQTT_OK/GD32VW55X_Wifi_BLE_SDK/GD32VW55x_RELEASE_V1.0.2/MSDK/ble/profile/dis\ble_diss.c ****                             ble_diss_attr_db, BLE_DIS_HDL_NB, ble_diss_srv_cb);
 263:C:/Users/stapi/OneDrive/Desktop/GD32VW553/V1_MQTT_OK/GD32VW55X_Wifi_BLE_SDK/GD32VW55x_RELEASE_V1.0.2/MSDK/ble/profile/dis\ble_diss.c **** 
 264:C:/Users/stapi/OneDrive/Desktop/GD32VW553/V1_MQTT_OK/GD32VW55X_Wifi_BLE_SDK/GD32VW55x_RELEASE_V1.0.2/MSDK/ble/profile/dis\ble_diss.c ****     if (ret != BLE_ERR_NO_ERROR) {
 308              		.loc 1 264 5 is_stmt 1
 309              		.loc 1 264 8 is_stmt 0
 310 0044 631C0516 		bne	a0,zero,.L19
 265:C:/Users/stapi/OneDrive/Desktop/GD32VW553/V1_MQTT_OK/GD32VW55X_Wifi_BLE_SDK/GD32VW55x_RELEASE_V1.0.2/MSDK/ble/profile/dis\ble_diss.c ****         return ret;
 266:C:/Users/stapi/OneDrive/Desktop/GD32VW553/V1_MQTT_OK/GD32VW55X_Wifi_BLE_SDK/GD32VW55x_RELEASE_V1.0.2/MSDK/ble/profile/dis\ble_diss.c ****     }
 267:C:/Users/stapi/OneDrive/Desktop/GD32VW553/V1_MQTT_OK/GD32VW55X_Wifi_BLE_SDK/GD32VW55x_RELEASE_V1.0.2/MSDK/ble/profile/dis\ble_diss.c **** 
 268:C:/Users/stapi/OneDrive/Desktop/GD32VW553/V1_MQTT_OK/GD32VW55X_Wifi_BLE_SDK/GD32VW55x_RELEASE_V1.0.2/MSDK/ble/profile/dis\ble_diss.c ****     if (p_param->manufact_name.len) {
 311              		.loc 1 268 5 is_stmt 1
 312              		.loc 1 268 31 is_stmt 0
 313 0048 03564400 		lhu	a2,4(s0)
 314              		.loc 1 268 8
 315 004c 0DC2     		beq	a2,zero,.L21
 269:C:/Users/stapi/OneDrive/Desktop/GD32VW553/V1_MQTT_OK/GD32VW55X_Wifi_BLE_SDK/GD32VW55x_RELEASE_V1.0.2/MSDK/ble/profile/dis\ble_diss.c ****         ble_diss_val.manufact_name_len = ble_min(p_param->manufact_name.len, BLE_DIS_VAL_MAX_LEN);
 316              		.loc 1 269 9 is_stmt 1
 317              	.LVL34:
 318              	.LBB40:
 319              	.LBB41:
 320              		.loc 2 284 5
 321              		.loc 2 284 22 is_stmt 0
 322 004e FD47     		li	a5,31
 323              	.LBE41:
 324              	.LBE40:
 325              		.loc 1 269 40
 326 0050 37050000 		lui	a0,%hi(.LANCHOR0)
 327              	.LBB43:
 328              	.LBB42:
 329              		.loc 2 284 22
 330 0054 3356F60A 		minu	a2,a2,a5
 331              	.LVL35:
 332              	.LBE42:
 333              	.LBE43:
 334              		.loc 1 269 40
 335 0058 93070500 		addi	a5,a0,%lo(.LANCHOR0)
 336 005c A38FC700 		sb	a2,31(a5)
 270:C:/Users/stapi/OneDrive/Desktop/GD32VW553/V1_MQTT_OK/GD32VW55X_Wifi_BLE_SDK/GD32VW55x_RELEASE_V1.0.2/MSDK/ble/profile/dis\ble_diss.c ****         sys_memcpy(ble_diss_val.manufact_name, p_param->manufact_name.p_data, ble_diss_val.manufact
 337              		.loc 1 270 9 is_stmt 1
 338 0060 0C40     		lw	a1,0(s0)
 339 0062 13050500 		addi	a0,a0,%lo(.LANCHOR0)
 340 0066 97000000 		call	sys_memcpy
 340      E7800000 
 341              	.LVL36:
 342              	.L21:
 271:C:/Users/stapi/OneDrive/Desktop/GD32VW553/V1_MQTT_OK/GD32VW55X_Wifi_BLE_SDK/GD32VW55x_RELEASE_V1.0.2/MSDK/ble/profile/dis\ble_diss.c ****     }
 272:C:/Users/stapi/OneDrive/Desktop/GD32VW553/V1_MQTT_OK/GD32VW55X_Wifi_BLE_SDK/GD32VW55x_RELEASE_V1.0.2/MSDK/ble/profile/dis\ble_diss.c **** 
 273:C:/Users/stapi/OneDrive/Desktop/GD32VW553/V1_MQTT_OK/GD32VW55X_Wifi_BLE_SDK/GD32VW55x_RELEASE_V1.0.2/MSDK/ble/profile/dis\ble_diss.c ****     if (p_param->model_num.len) {
 343              		.loc 1 273 5
 344              		.loc 1 273 27 is_stmt 0
 345 006e 0356C400 		lhu	a2,12(s0)
 346              		.loc 1 273 8
 347 0072 0DC2     		beq	a2,zero,.L22
 274:C:/Users/stapi/OneDrive/Desktop/GD32VW553/V1_MQTT_OK/GD32VW55X_Wifi_BLE_SDK/GD32VW55x_RELEASE_V1.0.2/MSDK/ble/profile/dis\ble_diss.c ****         ble_diss_val.model_num_len = ble_min(p_param->model_num.len, BLE_DIS_VAL_MAX_LEN);
 348              		.loc 1 274 9 is_stmt 1
 349              	.LVL37:
 350              	.LBB44:
 351              	.LBB45:
 352              		.loc 2 284 5
 353              	.LBE45:
 354              	.LBE44:
 355              		.loc 1 274 36 is_stmt 0
 356 0074 37050000 		lui	a0,%hi(.LANCHOR0)
 357 0078 13050500 		addi	a0,a0,%lo(.LANCHOR0)
 358              	.LBB47:
 359              	.LBB46:
 360              		.loc 2 284 22
 361 007c FD47     		li	a5,31
 362 007e 3356F60A 		minu	a2,a2,a5
 363              	.LVL38:
 364              	.LBE46:
 365              	.LBE47:
 366              		.loc 1 274 36
 367 0082 A30FC502 		sb	a2,63(a0)
 275:C:/Users/stapi/OneDrive/Desktop/GD32VW553/V1_MQTT_OK/GD32VW55X_Wifi_BLE_SDK/GD32VW55x_RELEASE_V1.0.2/MSDK/ble/profile/dis\ble_diss.c ****         sys_memcpy(ble_diss_val.model_num, p_param->model_num.p_data, ble_diss_val.model_num_len);
 368              		.loc 1 275 9 is_stmt 1
 369 0086 0C44     		lw	a1,8(s0)
 370 0088 13050502 		addi	a0,a0,32
 371 008c 97000000 		call	sys_memcpy
 371      E7800000 
 372              	.LVL39:
 373              	.L22:
 276:C:/Users/stapi/OneDrive/Desktop/GD32VW553/V1_MQTT_OK/GD32VW55X_Wifi_BLE_SDK/GD32VW55x_RELEASE_V1.0.2/MSDK/ble/profile/dis\ble_diss.c ****     }
 277:C:/Users/stapi/OneDrive/Desktop/GD32VW553/V1_MQTT_OK/GD32VW55X_Wifi_BLE_SDK/GD32VW55x_RELEASE_V1.0.2/MSDK/ble/profile/dis\ble_diss.c **** 
 278:C:/Users/stapi/OneDrive/Desktop/GD32VW553/V1_MQTT_OK/GD32VW55X_Wifi_BLE_SDK/GD32VW55x_RELEASE_V1.0.2/MSDK/ble/profile/dis\ble_diss.c ****     if (p_param->serial_num.len) {
 374              		.loc 1 278 5
 375              		.loc 1 278 28 is_stmt 0
 376 0094 03564401 		lhu	a2,20(s0)
 377              		.loc 1 278 8
 378 0098 0DC2     		beq	a2,zero,.L23
 279:C:/Users/stapi/OneDrive/Desktop/GD32VW553/V1_MQTT_OK/GD32VW55X_Wifi_BLE_SDK/GD32VW55x_RELEASE_V1.0.2/MSDK/ble/profile/dis\ble_diss.c ****         ble_diss_val.serial_num_len = ble_min(p_param->serial_num.len, BLE_DIS_VAL_MAX_LEN);
 379              		.loc 1 279 9 is_stmt 1
 380              	.LVL40:
 381              	.LBB48:
 382              	.LBB49:
 383              		.loc 2 284 5
 384              	.LBE49:
 385              	.LBE48:
 386              		.loc 1 279 37 is_stmt 0
 387 009a 37050000 		lui	a0,%hi(.LANCHOR0)
 388 009e 13050500 		addi	a0,a0,%lo(.LANCHOR0)
 389              	.LBB51:
 390              	.LBB50:
 391              		.loc 2 284 22
 392 00a2 FD47     		li	a5,31
 393 00a4 3356F60A 		minu	a2,a2,a5
 394              	.LVL41:
 395              	.LBE50:
 396              	.LBE51:
 397              		.loc 1 279 37
 398 00a8 A30FC504 		sb	a2,95(a0)
 280:C:/Users/stapi/OneDrive/Desktop/GD32VW553/V1_MQTT_OK/GD32VW55X_Wifi_BLE_SDK/GD32VW55x_RELEASE_V1.0.2/MSDK/ble/profile/dis\ble_diss.c ****         sys_memcpy(ble_diss_val.serial_num, p_param->serial_num.p_data, ble_diss_val.serial_num_len
 399              		.loc 1 280 9 is_stmt 1
 400 00ac 0C48     		lw	a1,16(s0)
 401 00ae 13050504 		addi	a0,a0,64
 402 00b2 97000000 		call	sys_memcpy
 402      E7800000 
 403              	.LVL42:
 404              	.L23:
 281:C:/Users/stapi/OneDrive/Desktop/GD32VW553/V1_MQTT_OK/GD32VW55X_Wifi_BLE_SDK/GD32VW55x_RELEASE_V1.0.2/MSDK/ble/profile/dis\ble_diss.c ****     }
 282:C:/Users/stapi/OneDrive/Desktop/GD32VW553/V1_MQTT_OK/GD32VW55X_Wifi_BLE_SDK/GD32VW55x_RELEASE_V1.0.2/MSDK/ble/profile/dis\ble_diss.c **** 
 283:C:/Users/stapi/OneDrive/Desktop/GD32VW553/V1_MQTT_OK/GD32VW55X_Wifi_BLE_SDK/GD32VW55x_RELEASE_V1.0.2/MSDK/ble/profile/dis\ble_diss.c ****     if (p_param->hw_rev.len) {
 405              		.loc 1 283 5
 406              		.loc 1 283 24 is_stmt 0
 407 00ba 0356C401 		lhu	a2,28(s0)
 408              		.loc 1 283 8
 409 00be 0DC2     		beq	a2,zero,.L24
 284:C:/Users/stapi/OneDrive/Desktop/GD32VW553/V1_MQTT_OK/GD32VW55X_Wifi_BLE_SDK/GD32VW55x_RELEASE_V1.0.2/MSDK/ble/profile/dis\ble_diss.c ****         ble_diss_val.hw_rev_len = ble_min(p_param->hw_rev.len, BLE_DIS_VAL_MAX_LEN);
 410              		.loc 1 284 9 is_stmt 1
 411              	.LVL43:
 412              	.LBB52:
 413              	.LBB53:
 414              		.loc 2 284 5
 415              	.LBE53:
 416              	.LBE52:
 417              		.loc 1 284 33 is_stmt 0
 418 00c0 37050000 		lui	a0,%hi(.LANCHOR0)
 419 00c4 13050500 		addi	a0,a0,%lo(.LANCHOR0)
 420              	.LBB55:
 421              	.LBB54:
 422              		.loc 2 284 22
 423 00c8 FD47     		li	a5,31
 424 00ca 3356F60A 		minu	a2,a2,a5
 425              	.LVL44:
 426              	.LBE54:
 427              	.LBE55:
 428              		.loc 1 284 33
 429 00ce A30FC506 		sb	a2,127(a0)
 285:C:/Users/stapi/OneDrive/Desktop/GD32VW553/V1_MQTT_OK/GD32VW55X_Wifi_BLE_SDK/GD32VW55x_RELEASE_V1.0.2/MSDK/ble/profile/dis\ble_diss.c ****         sys_memcpy(ble_diss_val.hw_rev, p_param->hw_rev.p_data, ble_diss_val.hw_rev_len);
 430              		.loc 1 285 9 is_stmt 1
 431 00d2 0C4C     		lw	a1,24(s0)
 432 00d4 13050506 		addi	a0,a0,96
 433 00d8 97000000 		call	sys_memcpy
 433      E7800000 
 434              	.LVL45:
 435              	.L24:
 286:C:/Users/stapi/OneDrive/Desktop/GD32VW553/V1_MQTT_OK/GD32VW55X_Wifi_BLE_SDK/GD32VW55x_RELEASE_V1.0.2/MSDK/ble/profile/dis\ble_diss.c ****     }
 287:C:/Users/stapi/OneDrive/Desktop/GD32VW553/V1_MQTT_OK/GD32VW55X_Wifi_BLE_SDK/GD32VW55x_RELEASE_V1.0.2/MSDK/ble/profile/dis\ble_diss.c **** 
 288:C:/Users/stapi/OneDrive/Desktop/GD32VW553/V1_MQTT_OK/GD32VW55X_Wifi_BLE_SDK/GD32VW55x_RELEASE_V1.0.2/MSDK/ble/profile/dis\ble_diss.c ****     if (p_param->fw_rev.len) {
 436              		.loc 1 288 5
 437              		.loc 1 288 24 is_stmt 0
 438 00e0 03564402 		lhu	a2,36(s0)
 439              		.loc 1 288 8
 440 00e4 0DC2     		beq	a2,zero,.L25
 289:C:/Users/stapi/OneDrive/Desktop/GD32VW553/V1_MQTT_OK/GD32VW55X_Wifi_BLE_SDK/GD32VW55x_RELEASE_V1.0.2/MSDK/ble/profile/dis\ble_diss.c ****         ble_diss_val.fw_rev_len = ble_min(p_param->fw_rev.len, BLE_DIS_VAL_MAX_LEN);
 441              		.loc 1 289 9 is_stmt 1
 442              	.LVL46:
 443              	.LBB56:
 444              	.LBB57:
 445              		.loc 2 284 5
 446              	.LBE57:
 447              	.LBE56:
 448              		.loc 1 289 33 is_stmt 0
 449 00e6 37050000 		lui	a0,%hi(.LANCHOR0)
 450 00ea 13050500 		addi	a0,a0,%lo(.LANCHOR0)
 451              	.LBB59:
 452              	.LBB58:
 453              		.loc 2 284 22
 454 00ee FD47     		li	a5,31
 455 00f0 3356F60A 		minu	a2,a2,a5
 456              	.LVL47:
 457              	.LBE58:
 458              	.LBE59:
 459              		.loc 1 289 33
 460 00f4 A30FC508 		sb	a2,159(a0)
 290:C:/Users/stapi/OneDrive/Desktop/GD32VW553/V1_MQTT_OK/GD32VW55X_Wifi_BLE_SDK/GD32VW55x_RELEASE_V1.0.2/MSDK/ble/profile/dis\ble_diss.c ****         sys_memcpy(ble_diss_val.fw_rev, p_param->fw_rev.p_data, ble_diss_val.fw_rev_len);
 461              		.loc 1 290 9 is_stmt 1
 462 00f8 0C50     		lw	a1,32(s0)
 463 00fa 13050508 		addi	a0,a0,128
 464 00fe 97000000 		call	sys_memcpy
 464      E7800000 
 465              	.LVL48:
 466              	.L25:
 291:C:/Users/stapi/OneDrive/Desktop/GD32VW553/V1_MQTT_OK/GD32VW55X_Wifi_BLE_SDK/GD32VW55x_RELEASE_V1.0.2/MSDK/ble/profile/dis\ble_diss.c ****     }
 292:C:/Users/stapi/OneDrive/Desktop/GD32VW553/V1_MQTT_OK/GD32VW55X_Wifi_BLE_SDK/GD32VW55x_RELEASE_V1.0.2/MSDK/ble/profile/dis\ble_diss.c **** 
 293:C:/Users/stapi/OneDrive/Desktop/GD32VW553/V1_MQTT_OK/GD32VW55X_Wifi_BLE_SDK/GD32VW55x_RELEASE_V1.0.2/MSDK/ble/profile/dis\ble_diss.c ****     if (p_param->sw_rev.len) {
 467              		.loc 1 293 5
 468              		.loc 1 293 24 is_stmt 0
 469 0106 0356C402 		lhu	a2,44(s0)
 470              		.loc 1 293 8
 471 010a 0DC2     		beq	a2,zero,.L26
 294:C:/Users/stapi/OneDrive/Desktop/GD32VW553/V1_MQTT_OK/GD32VW55X_Wifi_BLE_SDK/GD32VW55x_RELEASE_V1.0.2/MSDK/ble/profile/dis\ble_diss.c ****         ble_diss_val.sw_rev_len = ble_min(p_param->sw_rev.len, BLE_DIS_VAL_MAX_LEN);
 472              		.loc 1 294 9 is_stmt 1
 473              	.LVL49:
 474              	.LBB60:
 475              	.LBB61:
 476              		.loc 2 284 5
 477              	.LBE61:
 478              	.LBE60:
 479              		.loc 1 294 33 is_stmt 0
 480 010c 37050000 		lui	a0,%hi(.LANCHOR0)
 481 0110 13050500 		addi	a0,a0,%lo(.LANCHOR0)
 482              	.LBB63:
 483              	.LBB62:
 484              		.loc 2 284 22
 485 0114 FD47     		li	a5,31
 486 0116 3356F60A 		minu	a2,a2,a5
 487              	.LVL50:
 488              	.LBE62:
 489              	.LBE63:
 490              		.loc 1 294 33
 491 011a A30FC50A 		sb	a2,191(a0)
 295:C:/Users/stapi/OneDrive/Desktop/GD32VW553/V1_MQTT_OK/GD32VW55X_Wifi_BLE_SDK/GD32VW55x_RELEASE_V1.0.2/MSDK/ble/profile/dis\ble_diss.c ****         sys_memcpy(ble_diss_val.sw_rev, p_param->sw_rev.p_data, ble_diss_val.sw_rev_len);
 492              		.loc 1 295 9 is_stmt 1
 493 011e 0C54     		lw	a1,40(s0)
 494 0120 1305050A 		addi	a0,a0,160
 495 0124 97000000 		call	sys_memcpy
 495      E7800000 
 496              	.LVL51:
 497              	.L26:
 296:C:/Users/stapi/OneDrive/Desktop/GD32VW553/V1_MQTT_OK/GD32VW55X_Wifi_BLE_SDK/GD32VW55x_RELEASE_V1.0.2/MSDK/ble/profile/dis\ble_diss.c ****     }
 297:C:/Users/stapi/OneDrive/Desktop/GD32VW553/V1_MQTT_OK/GD32VW55X_Wifi_BLE_SDK/GD32VW55x_RELEASE_V1.0.2/MSDK/ble/profile/dis\ble_diss.c **** 
 298:C:/Users/stapi/OneDrive/Desktop/GD32VW553/V1_MQTT_OK/GD32VW55X_Wifi_BLE_SDK/GD32VW55x_RELEASE_V1.0.2/MSDK/ble/profile/dis\ble_diss.c ****     if (p_param->ieee_data.len) {
 498              		.loc 1 298 5
 499              		.loc 1 298 27 is_stmt 0
 500 012c 03564403 		lhu	a2,52(s0)
 501              		.loc 1 298 8
 502 0130 0DC2     		beq	a2,zero,.L27
 299:C:/Users/stapi/OneDrive/Desktop/GD32VW553/V1_MQTT_OK/GD32VW55X_Wifi_BLE_SDK/GD32VW55x_RELEASE_V1.0.2/MSDK/ble/profile/dis\ble_diss.c ****         ble_diss_val.ieee_data_len = ble_min(p_param->ieee_data.len, BLE_DIS_VAL_MAX_LEN);
 503              		.loc 1 299 9 is_stmt 1
 504              	.LVL52:
 505              	.LBB64:
 506              	.LBB65:
 507              		.loc 2 284 5
 508              	.LBE65:
 509              	.LBE64:
 510              		.loc 1 299 36 is_stmt 0
 511 0132 37050000 		lui	a0,%hi(.LANCHOR0)
 512 0136 13050500 		addi	a0,a0,%lo(.LANCHOR0)
 513              	.LBB67:
 514              	.LBB66:
 515              		.loc 2 284 22
 516 013a FD47     		li	a5,31
 517 013c 3356F60A 		minu	a2,a2,a5
 518              	.LVL53:
 519              	.LBE66:
 520              	.LBE67:
 521              		.loc 1 299 36
 522 0140 A303C50E 		sb	a2,231(a0)
 300:C:/Users/stapi/OneDrive/Desktop/GD32VW553/V1_MQTT_OK/GD32VW55X_Wifi_BLE_SDK/GD32VW55x_RELEASE_V1.0.2/MSDK/ble/profile/dis\ble_diss.c ****         sys_memcpy(ble_diss_val.ieee_data, p_param->ieee_data.p_data, ble_diss_val.ieee_data_len);
 523              		.loc 1 300 9 is_stmt 1
 524 0144 0C58     		lw	a1,48(s0)
 525 0146 1305850C 		addi	a0,a0,200
 526 014a 97000000 		call	sys_memcpy
 526      E7800000 
 527              	.LVL54:
 528              	.L27:
 301:C:/Users/stapi/OneDrive/Desktop/GD32VW553/V1_MQTT_OK/GD32VW55X_Wifi_BLE_SDK/GD32VW55x_RELEASE_V1.0.2/MSDK/ble/profile/dis\ble_diss.c ****     }
 302:C:/Users/stapi/OneDrive/Desktop/GD32VW553/V1_MQTT_OK/GD32VW55X_Wifi_BLE_SDK/GD32VW55x_RELEASE_V1.0.2/MSDK/ble/profile/dis\ble_diss.c **** 
 303:C:/Users/stapi/OneDrive/Desktop/GD32VW553/V1_MQTT_OK/GD32VW55X_Wifi_BLE_SDK/GD32VW55x_RELEASE_V1.0.2/MSDK/ble/profile/dis\ble_diss.c ****     if (p_param->p_sys_id) {
 529              		.loc 1 303 5
 530              		.loc 1 303 16 is_stmt 0
 531 0152 185C     		lw	a4,56(s0)
 532              		.loc 1 303 8
 533 0154 0DC7     		beq	a4,zero,.L28
 304:C:/Users/stapi/OneDrive/Desktop/GD32VW553/V1_MQTT_OK/GD32VW55X_Wifi_BLE_SDK/GD32VW55x_RELEASE_V1.0.2/MSDK/ble/profile/dis\ble_diss.c ****         ble_diss_val.sys_id[0] = (p_param->p_sys_id->manufact_id & 0x00000000FF);
 534              		.loc 1 304 9 is_stmt 1
 535              		.loc 1 304 52 is_stmt 0
 536 0156 5443     		lw	a3,4(a4)
 305:C:/Users/stapi/OneDrive/Desktop/GD32VW553/V1_MQTT_OK/GD32VW55X_Wifi_BLE_SDK/GD32VW55x_RELEASE_V1.0.2/MSDK/ble/profile/dis\ble_diss.c ****         ble_diss_val.sys_id[1] = (p_param->p_sys_id->manufact_id & 0x000000FF00) >> 8;
 537              		.loc 1 305 9 is_stmt 1
 306:C:/Users/stapi/OneDrive/Desktop/GD32VW553/V1_MQTT_OK/GD32VW55X_Wifi_BLE_SDK/GD32VW55x_RELEASE_V1.0.2/MSDK/ble/profile/dis\ble_diss.c ****         ble_diss_val.sys_id[2] = (p_param->p_sys_id->manufact_id & 0x0000FF0000) >> 16;
 538              		.loc 1 306 9
 307:C:/Users/stapi/OneDrive/Desktop/GD32VW553/V1_MQTT_OK/GD32VW55X_Wifi_BLE_SDK/GD32VW55x_RELEASE_V1.0.2/MSDK/ble/profile/dis\ble_diss.c ****         ble_diss_val.sys_id[3] = (p_param->p_sys_id->manufact_id & 0x00FF000000) >> 24;
 539              		.loc 1 307 9
 540 0158 1043     		lw	a2,0(a4)
 304:C:/Users/stapi/OneDrive/Desktop/GD32VW553/V1_MQTT_OK/GD32VW55X_Wifi_BLE_SDK/GD32VW55x_RELEASE_V1.0.2/MSDK/ble/profile/dis\ble_diss.c ****         ble_diss_val.sys_id[1] = (p_param->p_sys_id->manufact_id & 0x000000FF00) >> 8;
 541              		.loc 1 304 32 is_stmt 0
 542 015a B7070000 		lui	a5,%hi(.LANCHOR0)
 543 015e 93870700 		addi	a5,a5,%lo(.LANCHOR0)
 308:C:/Users/stapi/OneDrive/Desktop/GD32VW553/V1_MQTT_OK/GD32VW55X_Wifi_BLE_SDK/GD32VW55x_RELEASE_V1.0.2/MSDK/ble/profile/dis\ble_diss.c ****         ble_diss_val.sys_id[4] = (p_param->p_sys_id->manufact_id & 0xFF00000000) >> 32;
 544              		.loc 1 308 32
 545 0162 2382D70C 		sb	a3,196(a5)
 304:C:/Users/stapi/OneDrive/Desktop/GD32VW553/V1_MQTT_OK/GD32VW55X_Wifi_BLE_SDK/GD32VW55x_RELEASE_V1.0.2/MSDK/ble/profile/dis\ble_diss.c ****         ble_diss_val.sys_id[1] = (p_param->p_sys_id->manufact_id & 0x000000FF00) >> 8;
 546              		.loc 1 304 32
 547 0166 23A0C70C 		sw	a2,192(a5)
 548              		.loc 1 308 9 is_stmt 1
 309:C:/Users/stapi/OneDrive/Desktop/GD32VW553/V1_MQTT_OK/GD32VW55X_Wifi_BLE_SDK/GD32VW55x_RELEASE_V1.0.2/MSDK/ble/profile/dis\ble_diss.c **** 
 310:C:/Users/stapi/OneDrive/Desktop/GD32VW553/V1_MQTT_OK/GD32VW55X_Wifi_BLE_SDK/GD32VW55x_RELEASE_V1.0.2/MSDK/ble/profile/dis\ble_diss.c ****         ble_diss_val.sys_id[5] = (p_param->p_sys_id->oui & 0x0000FF);
 549              		.loc 1 310 9
 550              		.loc 1 310 52 is_stmt 0
 551 016a 1847     		lw	a4,8(a4)
 311:C:/Users/stapi/OneDrive/Desktop/GD32VW553/V1_MQTT_OK/GD32VW55X_Wifi_BLE_SDK/GD32VW55x_RELEASE_V1.0.2/MSDK/ble/profile/dis\ble_diss.c ****         ble_diss_val.sys_id[6] = (p_param->p_sys_id->oui & 0x00FF00) >> 8;
 552              		.loc 1 311 70
 553 016c 93568700 		srli	a3,a4,8
 310:C:/Users/stapi/OneDrive/Desktop/GD32VW553/V1_MQTT_OK/GD32VW55X_Wifi_BLE_SDK/GD32VW55x_RELEASE_V1.0.2/MSDK/ble/profile/dis\ble_diss.c ****         ble_diss_val.sys_id[6] = (p_param->p_sys_id->oui & 0x00FF00) >> 8;
 554              		.loc 1 310 32
 555 0170 A382E70C 		sb	a4,197(a5)
 556              		.loc 1 311 9 is_stmt 1
 312:C:/Users/stapi/OneDrive/Desktop/GD32VW553/V1_MQTT_OK/GD32VW55X_Wifi_BLE_SDK/GD32VW55x_RELEASE_V1.0.2/MSDK/ble/profile/dis\ble_diss.c ****         ble_diss_val.sys_id[7] = (p_param->p_sys_id->oui & 0xFF0000) >> 16;
 557              		.loc 1 312 70 is_stmt 0
 558 0174 4183     		srli	a4,a4,16
 311:C:/Users/stapi/OneDrive/Desktop/GD32VW553/V1_MQTT_OK/GD32VW55X_Wifi_BLE_SDK/GD32VW55x_RELEASE_V1.0.2/MSDK/ble/profile/dis\ble_diss.c ****         ble_diss_val.sys_id[6] = (p_param->p_sys_id->oui & 0x00FF00) >> 8;
 559              		.loc 1 311 32
 560 0176 2383D70C 		sb	a3,198(a5)
 561              		.loc 1 312 9 is_stmt 1
 562              		.loc 1 312 32 is_stmt 0
 563 017a A383E70C 		sb	a4,199(a5)
 564              	.L28:
 313:C:/Users/stapi/OneDrive/Desktop/GD32VW553/V1_MQTT_OK/GD32VW55X_Wifi_BLE_SDK/GD32VW55x_RELEASE_V1.0.2/MSDK/ble/profile/dis\ble_diss.c ****     }
 314:C:/Users/stapi/OneDrive/Desktop/GD32VW553/V1_MQTT_OK/GD32VW55X_Wifi_BLE_SDK/GD32VW55x_RELEASE_V1.0.2/MSDK/ble/profile/dis\ble_diss.c **** 
 315:C:/Users/stapi/OneDrive/Desktop/GD32VW553/V1_MQTT_OK/GD32VW55X_Wifi_BLE_SDK/GD32VW55x_RELEASE_V1.0.2/MSDK/ble/profile/dis\ble_diss.c ****     if (p_param->p_pnp_id) {
 565              		.loc 1 315 5 is_stmt 1
 566              		.loc 1 315 16 is_stmt 0
 567 017e 585C     		lw	a4,60(s0)
 568              		.loc 1 315 8
 569 0180 15CF     		beq	a4,zero,.L19
 316:C:/Users/stapi/OneDrive/Desktop/GD32VW553/V1_MQTT_OK/GD32VW55X_Wifi_BLE_SDK/GD32VW55x_RELEASE_V1.0.2/MSDK/ble/profile/dis\ble_diss.c ****         ble_diss_val.pnp_id[0] = p_param->p_pnp_id->vendor_id_source;
 570              		.loc 1 316 9 is_stmt 1
 571              		.loc 1 316 32 is_stmt 0
 572 0182 83460700 		lbu	a3,0(a4)
 573 0186 B7070000 		lui	a5,%hi(.LANCHOR0)
 574 018a 93870700 		addi	a5,a5,%lo(.LANCHOR0)
 575 018e 2384D70E 		sb	a3,232(a5)
 317:C:/Users/stapi/OneDrive/Desktop/GD32VW553/V1_MQTT_OK/GD32VW55X_Wifi_BLE_SDK/GD32VW55x_RELEASE_V1.0.2/MSDK/ble/profile/dis\ble_diss.c ****         ble_diss_val.pnp_id[1] = p_param->p_pnp_id->vendor_id & 0x00FF;
 576              		.loc 1 317 9 is_stmt 1
 577              		.loc 1 317 51 is_stmt 0
 578 0192 83562700 		lhu	a3,2(a4)
 579              		.loc 1 317 32
 580 0196 A384D70E 		sb	a3,233(a5)
 318:C:/Users/stapi/OneDrive/Desktop/GD32VW553/V1_MQTT_OK/GD32VW55X_Wifi_BLE_SDK/GD32VW55x_RELEASE_V1.0.2/MSDK/ble/profile/dis\ble_diss.c ****         ble_diss_val.pnp_id[2] = (p_param->p_pnp_id->vendor_id & 0xFF00) >> 8;
 581              		.loc 1 318 9 is_stmt 1
 582              		.loc 1 318 74 is_stmt 0
 583 019a A182     		srli	a3,a3,8
 584              		.loc 1 318 32
 585 019c 2385D70E 		sb	a3,234(a5)
 319:C:/Users/stapi/OneDrive/Desktop/GD32VW553/V1_MQTT_OK/GD32VW55X_Wifi_BLE_SDK/GD32VW55x_RELEASE_V1.0.2/MSDK/ble/profile/dis\ble_diss.c ****         ble_diss_val.pnp_id[3] = p_param->p_pnp_id->product_id & 0x00FF;
 586              		.loc 1 319 9 is_stmt 1
 587              		.loc 1 319 51 is_stmt 0
 588 01a0 83564700 		lhu	a3,4(a4)
 589              		.loc 1 319 32
 590 01a4 A385D70E 		sb	a3,235(a5)
 320:C:/Users/stapi/OneDrive/Desktop/GD32VW553/V1_MQTT_OK/GD32VW55X_Wifi_BLE_SDK/GD32VW55x_RELEASE_V1.0.2/MSDK/ble/profile/dis\ble_diss.c ****         ble_diss_val.pnp_id[4] = (p_param->p_pnp_id->product_id & 0xFF00) >> 8;
 591              		.loc 1 320 9 is_stmt 1
 592              		.loc 1 320 75 is_stmt 0
 593 01a8 A182     		srli	a3,a3,8
 594              		.loc 1 320 32
 595 01aa 2386D70E 		sb	a3,236(a5)
 321:C:/Users/stapi/OneDrive/Desktop/GD32VW553/V1_MQTT_OK/GD32VW55X_Wifi_BLE_SDK/GD32VW55x_RELEASE_V1.0.2/MSDK/ble/profile/dis\ble_diss.c ****         ble_diss_val.pnp_id[5] = p_param->p_pnp_id->product_version & 0x00FF;
 596              		.loc 1 321 9 is_stmt 1
 597              		.loc 1 321 51 is_stmt 0
 598 01ae 03576700 		lhu	a4,6(a4)
 599              		.loc 1 321 32
 600 01b2 A386E70E 		sb	a4,237(a5)
 322:C:/Users/stapi/OneDrive/Desktop/GD32VW553/V1_MQTT_OK/GD32VW55X_Wifi_BLE_SDK/GD32VW55x_RELEASE_V1.0.2/MSDK/ble/profile/dis\ble_diss.c ****         ble_diss_val.pnp_id[6] = (p_param->p_pnp_id->product_version & 0xFF00) >> 8;
 601              		.loc 1 322 9 is_stmt 1
 602              		.loc 1 322 80 is_stmt 0
 603 01b6 2183     		srli	a4,a4,8
 604              		.loc 1 322 32
 605 01b8 2387E70E 		sb	a4,238(a5)
 606              	.LVL55:
 607              	.L19:
 323:C:/Users/stapi/OneDrive/Desktop/GD32VW553/V1_MQTT_OK/GD32VW55X_Wifi_BLE_SDK/GD32VW55x_RELEASE_V1.0.2/MSDK/ble/profile/dis\ble_diss.c ****     }
 324:C:/Users/stapi/OneDrive/Desktop/GD32VW553/V1_MQTT_OK/GD32VW55X_Wifi_BLE_SDK/GD32VW55x_RELEASE_V1.0.2/MSDK/ble/profile/dis\ble_diss.c **** 
 325:C:/Users/stapi/OneDrive/Desktop/GD32VW553/V1_MQTT_OK/GD32VW55X_Wifi_BLE_SDK/GD32VW55x_RELEASE_V1.0.2/MSDK/ble/profile/dis\ble_diss.c ****     return BLE_ERR_NO_ERROR;
 326:C:/Users/stapi/OneDrive/Desktop/GD32VW553/V1_MQTT_OK/GD32VW55X_Wifi_BLE_SDK/GD32VW55x_RELEASE_V1.0.2/MSDK/ble/profile/dis\ble_diss.c **** }
 608              		.loc 1 326 1
 609 01bc 2685     		mv	a0,s1
 610 01be 17030000 		tail	__riscv_restore_2
 610      67000300 
 611              		.cfi_restore 9
 612              		.cfi_restore 8
 613              		.cfi_restore 1
 614              		.cfi_def_cfa_offset 0
 615              		.cfi_endproc
 616              	.LFE20:
 618              		.section	.text.ble_diss_deinit,"ax",@progbits
 619              		.align	1
 620              		.globl	ble_diss_deinit
 622              	ble_diss_deinit:
 623              	.LFB21:
 327:C:/Users/stapi/OneDrive/Desktop/GD32VW553/V1_MQTT_OK/GD32VW55X_Wifi_BLE_SDK/GD32VW55x_RELEASE_V1.0.2/MSDK/ble/profile/dis\ble_diss.c **** 
 328:C:/Users/stapi/OneDrive/Desktop/GD32VW553/V1_MQTT_OK/GD32VW55X_Wifi_BLE_SDK/GD32VW55x_RELEASE_V1.0.2/MSDK/ble/profile/dis\ble_diss.c **** /*!
 329:C:/Users/stapi/OneDrive/Desktop/GD32VW553/V1_MQTT_OK/GD32VW55X_Wifi_BLE_SDK/GD32VW55x_RELEASE_V1.0.2/MSDK/ble/profile/dis\ble_diss.c ****     \brief      Deinit Device Information Service Server
 330:C:/Users/stapi/OneDrive/Desktop/GD32VW553/V1_MQTT_OK/GD32VW55X_Wifi_BLE_SDK/GD32VW55x_RELEASE_V1.0.2/MSDK/ble/profile/dis\ble_diss.c ****     \param[in]  nont
 331:C:/Users/stapi/OneDrive/Desktop/GD32VW553/V1_MQTT_OK/GD32VW55X_Wifi_BLE_SDK/GD32VW55x_RELEASE_V1.0.2/MSDK/ble/profile/dis\ble_diss.c ****     \param[out] none
 332:C:/Users/stapi/OneDrive/Desktop/GD32VW553/V1_MQTT_OK/GD32VW55X_Wifi_BLE_SDK/GD32VW55x_RELEASE_V1.0.2/MSDK/ble/profile/dis\ble_diss.c ****     \retval     ble_status_t: BLE_ERR_NO_ERROR on success, otherwise an error code
 333:C:/Users/stapi/OneDrive/Desktop/GD32VW553/V1_MQTT_OK/GD32VW55X_Wifi_BLE_SDK/GD32VW55x_RELEASE_V1.0.2/MSDK/ble/profile/dis\ble_diss.c **** */
 334:C:/Users/stapi/OneDrive/Desktop/GD32VW553/V1_MQTT_OK/GD32VW55X_Wifi_BLE_SDK/GD32VW55x_RELEASE_V1.0.2/MSDK/ble/profile/dis\ble_diss.c **** ble_status_t ble_diss_deinit(void)
 335:C:/Users/stapi/OneDrive/Desktop/GD32VW553/V1_MQTT_OK/GD32VW55X_Wifi_BLE_SDK/GD32VW55x_RELEASE_V1.0.2/MSDK/ble/profile/dis\ble_diss.c **** {
 624              		.loc 1 335 1 is_stmt 1
 625              		.cfi_startproc
 336:C:/Users/stapi/OneDrive/Desktop/GD32VW553/V1_MQTT_OK/GD32VW55X_Wifi_BLE_SDK/GD32VW55x_RELEASE_V1.0.2/MSDK/ble/profile/dis\ble_diss.c ****     return ble_gatts_svc_rmv(ble_diss_svc_id);
 626              		.loc 1 336 5
 627              		.loc 1 336 12 is_stmt 0
 628 0000 B7070000 		lui	a5,%hi(.LANCHOR3)
 629 0004 03C50700 		lbu	a0,%lo(.LANCHOR3)(a5)
 630 0008 17030000 		tail	ble_gatts_svc_rmv
 630      67000300 
 631              	.LVL56:
 632              		.cfi_endproc
 633              	.LFE21:
 635              		.globl	ble_dis_uuid
 636              		.globl	ble_diss_attr_db
 637              		.section	.bss.ble_diss_val,"aw",@nobits
 638              		.align	2
 639              		.set	.LANCHOR0,. + 0
 642              	ble_diss_val:
 643 0000 00000000 		.zero	239
 643      00000000 
 643      00000000 
 643      00000000 
 643      00000000 
 644              		.section	.rodata.ble_diss_attr_db,"a"
 645              		.align	2
 646              		.set	.LANCHOR1,. + 0
 649              	ble_diss_attr_db:
 650 0000 00       		.string	""
 651 0001 2800     		.string	"("
 652 0003 00000000 		.zero	13
 652      00000000 
 652      00000000 
 652      00
 653 0010 0200     		.half	2
 654 0012 0000     		.half	0
 655 0014 032800   		.string	"\003("
 656 0017 00000000 		.zero	13
 656      00000000 
 656      00000000 
 656      00
 657 0024 0200     		.half	2
 658 0026 0000     		.half	0
 659 0028 292A00   		.string	")*"
 660 002b 00000000 		.zero	13
 660      00000000 
 660      00000000 
 660      00
 661 0038 0200     		.half	2
 662 003a 1F00     		.half	31
 663 003c 032800   		.string	"\003("
 664 003f 00000000 		.zero	13
 664      00000000 
 664      00000000 
 664      00
 665 004c 0200     		.half	2
 666 004e 0000     		.half	0
 667 0050 242A00   		.string	"$*"
 668 0053 00000000 		.zero	13
 668      00000000 
 668      00000000 
 668      00
 669 0060 0200     		.half	2
 670 0062 1F00     		.half	31
 671 0064 032800   		.string	"\003("
 672 0067 00000000 		.zero	13
 672      00000000 
 672      00000000 
 672      00
 673 0074 0200     		.half	2
 674 0076 0000     		.half	0
 675 0078 252A00   		.string	"%*"
 676 007b 00000000 		.zero	13
 676      00000000 
 676      00000000 
 676      00
 677 0088 0200     		.half	2
 678 008a 1F00     		.half	31
 679 008c 032800   		.string	"\003("
 680 008f 00000000 		.zero	13
 680      00000000 
 680      00000000 
 680      00
 681 009c 0200     		.half	2
 682 009e 0000     		.half	0
 683 00a0 272A00   		.string	"'*"
 684 00a3 00000000 		.zero	13
 684      00000000 
 684      00000000 
 684      00
 685 00b0 0200     		.half	2
 686 00b2 1F00     		.half	31
 687 00b4 032800   		.string	"\003("
 688 00b7 00000000 		.zero	13
 688      00000000 
 688      00000000 
 688      00
 689 00c4 0200     		.half	2
 690 00c6 0000     		.half	0
 691 00c8 262A00   		.string	"&*"
 692 00cb 00000000 		.zero	13
 692      00000000 
 692      00000000 
 692      00
 693 00d8 0200     		.half	2
 694 00da 1F00     		.half	31
 695 00dc 032800   		.string	"\003("
 696 00df 00000000 		.zero	13
 696      00000000 
 696      00000000 
 696      00
 697 00ec 0200     		.half	2
 698 00ee 0000     		.half	0
 699 00f0 282A00   		.string	"(*"
 700 00f3 00000000 		.zero	13
 700      00000000 
 700      00000000 
 700      00
 701 0100 0200     		.half	2
 702 0102 1F00     		.half	31
 703 0104 032800   		.string	"\003("
 704 0107 00000000 		.zero	13
 704      00000000 
 704      00000000 
 704      00
 705 0114 0200     		.half	2
 706 0116 0000     		.half	0
 707 0118 232A00   		.string	"#*"
 708 011b 00000000 		.zero	13
 708      00000000 
 708      00000000 
 708      00
 709 0128 0200     		.half	2
 710 012a 0800     		.half	8
 711 012c 032800   		.string	"\003("
 712 012f 00000000 		.zero	13
 712      00000000 
 712      00000000 
 712      00
 713 013c 0200     		.half	2
 714 013e 0000     		.half	0
 715 0140 2A2A00   		.string	"**"
 716 0143 00000000 		.zero	13
 716      00000000 
 716      00000000 
 716      00
 717 0150 0200     		.half	2
 718 0152 1F00     		.half	31
 719 0154 032800   		.string	"\003("
 720 0157 00000000 		.zero	13
 720      00000000 
 720      00000000 
 720      00
 721 0164 0200     		.half	2
 722 0166 0000     		.half	0
 723 0168 502A00   		.string	"P*"
 724 016b 00000000 		.zero	13
 724      00000000 
 724      00000000 
 724      00
 725 0178 0200     		.half	2
 726 017a 0700     		.half	7
 727              		.section	.sdata.ble_diss_svc_id,"aw"
 728              		.set	.LANCHOR3,. + 0
 731              	ble_diss_svc_id:
 732 0000 FF       		.byte	-1
 733              		.section	.srodata.ble_dis_uuid,"a"
 734              		.align	2
 735              		.set	.LANCHOR2,. + 0
 738              	ble_dis_uuid:
 739 0000 0A18     		.ascii	"\n\030"
 740              		.text
 741              	.Letext0:
 742              		.file 3 "c:\\users\\stapi\\onedrive\\desktop\\gd32vw553\\embeddedbuilder_v1.4.7.26843\\tools\\nucl
 743              		.file 4 "c:\\users\\stapi\\onedrive\\desktop\\gd32vw553\\embeddedbuilder_v1.4.7.26843\\tools\\nucl
 744              		.file 5 "..\\..\\..\\..\\blesw\\src\\export/ble_types.h"
 745              		.file 6 "..\\..\\..\\..\\blesw\\src\\export/ble_error.h"
 746              		.file 7 "..\\..\\..\\..\\blesw\\src\\export/ble_gap.h"
 747              		.file 8 "..\\..\\..\\..\\ble\\profile/dis/ble_diss.h"
 748              		.file 9 "..\\..\\..\\..\\blesw\\src\\export/ble_gatt.h"
 749              		.file 10 "..\\..\\..\\..\\blesw\\src\\export/ble_conn.h"
 750              		.file 11 "..\\..\\..\\..\\blesw\\src\\export/ble_gatts.h"
 751              		.file 12 "..\\..\\..\\..\\rtos\\rtos_wrapper/wrapper_os.h"