   1              		.file	"ble_diss.c"
   2              		.option nopic
   3              		.attribute arch, "rv32i2p0_m2p0_a2p0_f2p0_c2p0_b_p0p94"
   4              		.attribute unaligned_access, 0
   5              		.attribute stack_align, 16
   6              		.text
   7              	.Ltext0:
   8              		.cfi_sections	.debug_frame
   9              		.section	.text.ble_diss_srv_cb,"ax",@progbits
  10              		.align	1
  12              	ble_diss_srv_cb:
  13              	.LFB19:
  14              		.file 1 "C:/Users/stapi/OneDrive/Desktop/GD32VW553/V1_MQTT_OK/GD32VW55X_Wifi_BLE_SDK/GD32VW55x_REL
   1:C:/Users/stapi/OneDrive/Desktop/GD32VW553/V1_MQTT_OK/GD32VW55X_Wifi_BLE_SDK/GD32VW55x_RELEASE_V1.0.2/MSDK/ble/profile/dis\ble_diss.c **** /*!
   2:C:/Users/stapi/OneDrive/Desktop/GD32VW553/V1_MQTT_OK/GD32VW55X_Wifi_BLE_SDK/GD32VW55x_RELEASE_V1.0.2/MSDK/ble/profile/dis\ble_diss.c ****     \file    ble_diss.c
   3:C:/Users/stapi/OneDrive/Desktop/GD32VW553/V1_MQTT_OK/GD32VW55X_Wifi_BLE_SDK/GD32VW55x_RELEASE_V1.0.2/MSDK/ble/profile/dis\ble_diss.c ****     \brief   Implementation of device information service server.
   4:C:/Users/stapi/OneDrive/Desktop/GD32VW553/V1_MQTT_OK/GD32VW55X_Wifi_BLE_SDK/GD32VW55x_RELEASE_V1.0.2/MSDK/ble/profile/dis\ble_diss.c **** 
   5:C:/Users/stapi/OneDrive/Desktop/GD32VW553/V1_MQTT_OK/GD32VW55X_Wifi_BLE_SDK/GD32VW55x_RELEASE_V1.0.2/MSDK/ble/profile/dis\ble_diss.c ****     \version 2023-07-20, V1.0.0, firmware for GD32VW55x
   6:C:/Users/stapi/OneDrive/Desktop/GD32VW553/V1_MQTT_OK/GD32VW55X_Wifi_BLE_SDK/GD32VW55x_RELEASE_V1.0.2/MSDK/ble/profile/dis\ble_diss.c **** */
   7:C:/Users/stapi/OneDrive/Desktop/GD32VW553/V1_MQTT_OK/GD32VW55X_Wifi_BLE_SDK/GD32VW55x_RELEASE_V1.0.2/MSDK/ble/profile/dis\ble_diss.c **** 
   8:C:/Users/stapi/OneDrive/Desktop/GD32VW553/V1_MQTT_OK/GD32VW55X_Wifi_BLE_SDK/GD32VW55x_RELEASE_V1.0.2/MSDK/ble/profile/dis\ble_diss.c **** /*
   9:C:/Users/stapi/OneDrive/Desktop/GD32VW553/V1_MQTT_OK/GD32VW55X_Wifi_BLE_SDK/GD32VW55x_RELEASE_V1.0.2/MSDK/ble/profile/dis\ble_diss.c ****     Copyright (c) 2023, GigaDevice Semiconductor Inc.
  10:C:/Users/stapi/OneDrive/Desktop/GD32VW553/V1_MQTT_OK/GD32VW55X_Wifi_BLE_SDK/GD32VW55x_RELEASE_V1.0.2/MSDK/ble/profile/dis\ble_diss.c **** 
  11:C:/Users/stapi/OneDrive/Desktop/GD32VW553/V1_MQTT_OK/GD32VW55X_Wifi_BLE_SDK/GD32VW55x_RELEASE_V1.0.2/MSDK/ble/profile/dis\ble_diss.c ****     Redistribution and use in source and binary forms, with or without modification,
  12:C:/Users/stapi/OneDrive/Desktop/GD32VW553/V1_MQTT_OK/GD32VW55X_Wifi_BLE_SDK/GD32VW55x_RELEASE_V1.0.2/MSDK/ble/profile/dis\ble_diss.c **** are permitted provided that the following conditions are met:
  13:C:/Users/stapi/OneDrive/Desktop/GD32VW553/V1_MQTT_OK/GD32VW55X_Wifi_BLE_SDK/GD32VW55x_RELEASE_V1.0.2/MSDK/ble/profile/dis\ble_diss.c **** 
  14:C:/Users/stapi/OneDrive/Desktop/GD32VW553/V1_MQTT_OK/GD32VW55X_Wifi_BLE_SDK/GD32VW55x_RELEASE_V1.0.2/MSDK/ble/profile/dis\ble_diss.c ****     1. Redistributions of source code must retain the above copyright notice, this
  15:C:/Users/stapi/OneDrive/Desktop/GD32VW553/V1_MQTT_OK/GD32VW55X_Wifi_BLE_SDK/GD32VW55x_RELEASE_V1.0.2/MSDK/ble/profile/dis\ble_diss.c ****        list of conditions and the following disclaimer.
  16:C:/Users/stapi/OneDrive/Desktop/GD32VW553/V1_MQTT_OK/GD32VW55X_Wifi_BLE_SDK/GD32VW55x_RELEASE_V1.0.2/MSDK/ble/profile/dis\ble_diss.c ****     2. Redistributions in binary form must reproduce the above copyright notice,
  17:C:/Users/stapi/OneDrive/Desktop/GD32VW553/V1_MQTT_OK/GD32VW55X_Wifi_BLE_SDK/GD32VW55x_RELEASE_V1.0.2/MSDK/ble/profile/dis\ble_diss.c ****        this list of conditions and the following disclaimer in the documentation
  18:C:/Users/stapi/OneDrive/Desktop/GD32VW553/V1_MQTT_OK/GD32VW55X_Wifi_BLE_SDK/GD32VW55x_RELEASE_V1.0.2/MSDK/ble/profile/dis\ble_diss.c ****        and/or other materials provided with the distribution.
  19:C:/Users/stapi/OneDrive/Desktop/GD32VW553/V1_MQTT_OK/GD32VW55X_Wifi_BLE_SDK/GD32VW55x_RELEASE_V1.0.2/MSDK/ble/profile/dis\ble_diss.c ****     3. Neither the name of the copyright holder nor the names of its contributors
  20:C:/Users/stapi/OneDrive/Desktop/GD32VW553/V1_MQTT_OK/GD32VW55X_Wifi_BLE_SDK/GD32VW55x_RELEASE_V1.0.2/MSDK/ble/profile/dis\ble_diss.c ****        may be used to endorse or promote products derived from this software without
  21:C:/Users/stapi/OneDrive/Desktop/GD32VW553/V1_MQTT_OK/GD32VW55X_Wifi_BLE_SDK/GD32VW55x_RELEASE_V1.0.2/MSDK/ble/profile/dis\ble_diss.c ****        specific prior written permission.
  22:C:/Users/stapi/OneDrive/Desktop/GD32VW553/V1_MQTT_OK/GD32VW55X_Wifi_BLE_SDK/GD32VW55x_RELEASE_V1.0.2/MSDK/ble/profile/dis\ble_diss.c **** 
  23:C:/Users/stapi/OneDrive/Desktop/GD32VW553/V1_MQTT_OK/GD32VW55X_Wifi_BLE_SDK/GD32VW55x_RELEASE_V1.0.2/MSDK/ble/profile/dis\ble_diss.c ****     THIS SOFTWARE IS PROVIDED BY THE COPYRIGHT HOLDERS AND CONTRIBUTORS "AS IS"
  24:C:/Users/stapi/OneDrive/Desktop/GD32VW553/V1_MQTT_OK/GD32VW55X_Wifi_BLE_SDK/GD32VW55x_RELEASE_V1.0.2/MSDK/ble/profile/dis\ble_diss.c **** AND ANY EXPRESS OR IMPLIED WARRANTIES, INCLUDING, BUT NOT LIMITED TO, THE IMPLIED
  25:C:/Users/stapi/OneDrive/Desktop/GD32VW553/V1_MQTT_OK/GD32VW55X_Wifi_BLE_SDK/GD32VW55x_RELEASE_V1.0.2/MSDK/ble/profile/dis\ble_diss.c **** WARRANTIES OF MERCHANTABILITY AND FITNESS FOR A PARTICULAR PURPOSE ARE DISCLAIMED.
  26:C:/Users/stapi/OneDrive/Desktop/GD32VW553/V1_MQTT_OK/GD32VW55X_Wifi_BLE_SDK/GD32VW55x_RELEASE_V1.0.2/MSDK/ble/profile/dis\ble_diss.c **** IN NO EVENT SHALL THE COPYRIGHT HOLDER OR CONTRIBUTORS BE LIABLE FOR ANY DIRECT,
  27:C:/Users/stapi/OneDrive/Desktop/GD32VW553/V1_MQTT_OK/GD32VW55X_Wifi_BLE_SDK/GD32VW55x_RELEASE_V1.0.2/MSDK/ble/profile/dis\ble_diss.c **** INDIRECT, INCIDENTAL, SPECIAL, EXEMPLARY, OR CONSEQUENTIAL DAMAGES (INCLUDING, BUT
  28:C:/Users/stapi/OneDrive/Desktop/GD32VW553/V1_MQTT_OK/GD32VW55X_Wifi_BLE_SDK/GD32VW55x_RELEASE_V1.0.2/MSDK/ble/profile/dis\ble_diss.c **** NOT LIMITED TO, PROCUREMENT OF SUBSTITUTE GOODS OR SERVICES; LOSS OF USE, DATA, OR
  29:C:/Users/stapi/OneDrive/Desktop/GD32VW553/V1_MQTT_OK/GD32VW55X_Wifi_BLE_SDK/GD32VW55x_RELEASE_V1.0.2/MSDK/ble/profile/dis\ble_diss.c **** PROFITS; OR BUSINESS INTERRUPTION) HOWEVER CAUSED AND ON ANY THEORY OF LIABILITY,
  30:C:/Users/stapi/OneDrive/Desktop/GD32VW553/V1_MQTT_OK/GD32VW55X_Wifi_BLE_SDK/GD32VW55x_RELEASE_V1.0.2/MSDK/ble/profile/dis\ble_diss.c **** WHETHER IN CONTRACT, STRICT LIABILITY, OR TORT (INCLUDING NEGLIGENCE OR OTHERWISE)
  31:C:/Users/stapi/OneDrive/Desktop/GD32VW553/V1_MQTT_OK/GD32VW55X_Wifi_BLE_SDK/GD32VW55x_RELEASE_V1.0.2/MSDK/ble/profile/dis\ble_diss.c **** ARISING IN ANY WAY OUT OF THE USE OF THIS SOFTWARE, EVEN IF ADVISED OF THE POSSIBILITY
  32:C:/Users/stapi/OneDrive/Desktop/GD32VW553/V1_MQTT_OK/GD32VW55X_Wifi_BLE_SDK/GD32VW55x_RELEASE_V1.0.2/MSDK/ble/profile/dis\ble_diss.c **** OF SUCH DAMAGE.
  33:C:/Users/stapi/OneDrive/Desktop/GD32VW553/V1_MQTT_OK/GD32VW55X_Wifi_BLE_SDK/GD32VW55x_RELEASE_V1.0.2/MSDK/ble/profile/dis\ble_diss.c **** */
  34:C:/Users/stapi/OneDrive/Desktop/GD32VW553/V1_MQTT_OK/GD32VW55X_Wifi_BLE_SDK/GD32VW55x_RELEASE_V1.0.2/MSDK/ble/profile/dis\ble_diss.c **** 
  35:C:/Users/stapi/OneDrive/Desktop/GD32VW553/V1_MQTT_OK/GD32VW55X_Wifi_BLE_SDK/GD32VW55x_RELEASE_V1.0.2/MSDK/ble/profile/dis\ble_diss.c **** #include "ble_profile_config.h"
  36:C:/Users/stapi/OneDrive/Desktop/GD32VW553/V1_MQTT_OK/GD32VW55X_Wifi_BLE_SDK/GD32VW55x_RELEASE_V1.0.2/MSDK/ble/profile/dis\ble_diss.c **** 
  37:C:/Users/stapi/OneDrive/Desktop/GD32VW553/V1_MQTT_OK/GD32VW55X_Wifi_BLE_SDK/GD32VW55x_RELEASE_V1.0.2/MSDK/ble/profile/dis\ble_diss.c **** #if (BLE_PROFILE_DIS_SERVER)
  38:C:/Users/stapi/OneDrive/Desktop/GD32VW553/V1_MQTT_OK/GD32VW55X_Wifi_BLE_SDK/GD32VW55x_RELEASE_V1.0.2/MSDK/ble/profile/dis\ble_diss.c **** #include <string.h>
  39:C:/Users/stapi/OneDrive/Desktop/GD32VW553/V1_MQTT_OK/GD32VW55X_Wifi_BLE_SDK/GD32VW55x_RELEASE_V1.0.2/MSDK/ble/profile/dis\ble_diss.c **** 
  40:C:/Users/stapi/OneDrive/Desktop/GD32VW553/V1_MQTT_OK/GD32VW55X_Wifi_BLE_SDK/GD32VW55x_RELEASE_V1.0.2/MSDK/ble/profile/dis\ble_diss.c **** #include "ble_utils.h"
  41:C:/Users/stapi/OneDrive/Desktop/GD32VW553/V1_MQTT_OK/GD32VW55X_Wifi_BLE_SDK/GD32VW55x_RELEASE_V1.0.2/MSDK/ble/profile/dis\ble_diss.c **** #include "ble_gatt.h"
  42:C:/Users/stapi/OneDrive/Desktop/GD32VW553/V1_MQTT_OK/GD32VW55X_Wifi_BLE_SDK/GD32VW55x_RELEASE_V1.0.2/MSDK/ble/profile/dis\ble_diss.c **** #include "ble_gatts.h"
  43:C:/Users/stapi/OneDrive/Desktop/GD32VW553/V1_MQTT_OK/GD32VW55X_Wifi_BLE_SDK/GD32VW55x_RELEASE_V1.0.2/MSDK/ble/profile/dis\ble_diss.c **** #include "ble_diss.h"
  44:C:/Users/stapi/OneDrive/Desktop/GD32VW553/V1_MQTT_OK/GD32VW55X_Wifi_BLE_SDK/GD32VW55x_RELEASE_V1.0.2/MSDK/ble/profile/dis\ble_diss.c **** #include "wrapper_os.h"
  45:C:/Users/stapi/OneDrive/Desktop/GD32VW553/V1_MQTT_OK/GD32VW55X_Wifi_BLE_SDK/GD32VW55x_RELEASE_V1.0.2/MSDK/ble/profile/dis\ble_diss.c **** 
  46:C:/Users/stapi/OneDrive/Desktop/GD32VW553/V1_MQTT_OK/GD32VW55X_Wifi_BLE_SDK/GD32VW55x_RELEASE_V1.0.2/MSDK/ble/profile/dis\ble_diss.c **** /* System ID string length */
  47:C:/Users/stapi/OneDrive/Desktop/GD32VW553/V1_MQTT_OK/GD32VW55X_Wifi_BLE_SDK/GD32VW55x_RELEASE_V1.0.2/MSDK/ble/profile/dis\ble_diss.c **** #define BLE_DIS_SYS_ID_LEN                          (0x08)
  48:C:/Users/stapi/OneDrive/Desktop/GD32VW553/V1_MQTT_OK/GD32VW55X_Wifi_BLE_SDK/GD32VW55x_RELEASE_V1.0.2/MSDK/ble/profile/dis\ble_diss.c **** 
  49:C:/Users/stapi/OneDrive/Desktop/GD32VW553/V1_MQTT_OK/GD32VW55X_Wifi_BLE_SDK/GD32VW55x_RELEASE_V1.0.2/MSDK/ble/profile/dis\ble_diss.c **** /* PnP ID length */
  50:C:/Users/stapi/OneDrive/Desktop/GD32VW553/V1_MQTT_OK/GD32VW55X_Wifi_BLE_SDK/GD32VW55x_RELEASE_V1.0.2/MSDK/ble/profile/dis\ble_diss.c **** #define BLE_DIS_PNP_ID_LEN                          (0x07)
  51:C:/Users/stapi/OneDrive/Desktop/GD32VW553/V1_MQTT_OK/GD32VW55X_Wifi_BLE_SDK/GD32VW55x_RELEASE_V1.0.2/MSDK/ble/profile/dis\ble_diss.c **** 
  52:C:/Users/stapi/OneDrive/Desktop/GD32VW553/V1_MQTT_OK/GD32VW55X_Wifi_BLE_SDK/GD32VW55x_RELEASE_V1.0.2/MSDK/ble/profile/dis\ble_diss.c **** /* DIS related service/characteristic UUID value */
  53:C:/Users/stapi/OneDrive/Desktop/GD32VW553/V1_MQTT_OK/GD32VW55X_Wifi_BLE_SDK/GD32VW55x_RELEASE_V1.0.2/MSDK/ble/profile/dis\ble_diss.c **** typedef enum
  54:C:/Users/stapi/OneDrive/Desktop/GD32VW553/V1_MQTT_OK/GD32VW55X_Wifi_BLE_SDK/GD32VW55x_RELEASE_V1.0.2/MSDK/ble/profile/dis\ble_diss.c **** {
  55:C:/Users/stapi/OneDrive/Desktop/GD32VW553/V1_MQTT_OK/GD32VW55X_Wifi_BLE_SDK/GD32VW55x_RELEASE_V1.0.2/MSDK/ble/profile/dis\ble_diss.c ****     BLE_DIS_SVC_DEVICE_INFO  = BLE_GATT_UUID_16_LSB(0x180A),    /*!< Device Information Service */
  56:C:/Users/stapi/OneDrive/Desktop/GD32VW553/V1_MQTT_OK/GD32VW55X_Wifi_BLE_SDK/GD32VW55x_RELEASE_V1.0.2/MSDK/ble/profile/dis\ble_diss.c **** 
  57:C:/Users/stapi/OneDrive/Desktop/GD32VW553/V1_MQTT_OK/GD32VW55X_Wifi_BLE_SDK/GD32VW55x_RELEASE_V1.0.2/MSDK/ble/profile/dis\ble_diss.c ****     BLE_DIS_CHAR_SYS_ID      = BLE_GATT_UUID_16_LSB(0x2A23),    /*!< System ID characteristic */
  58:C:/Users/stapi/OneDrive/Desktop/GD32VW553/V1_MQTT_OK/GD32VW55X_Wifi_BLE_SDK/GD32VW55x_RELEASE_V1.0.2/MSDK/ble/profile/dis\ble_diss.c ****     BLE_DIS_CHAR_MODEL_NB    = BLE_GATT_UUID_16_LSB(0x2A24),    /*!< Model Number characteristic */
  59:C:/Users/stapi/OneDrive/Desktop/GD32VW553/V1_MQTT_OK/GD32VW55X_Wifi_BLE_SDK/GD32VW55x_RELEASE_V1.0.2/MSDK/ble/profile/dis\ble_diss.c ****     BLE_DIS_CHAR_SERIAL_NB   = BLE_GATT_UUID_16_LSB(0x2A25),    /*!< Serial Number characteristic *
  60:C:/Users/stapi/OneDrive/Desktop/GD32VW553/V1_MQTT_OK/GD32VW55X_Wifi_BLE_SDK/GD32VW55x_RELEASE_V1.0.2/MSDK/ble/profile/dis\ble_diss.c ****     BLE_DIS_CHAR_FW_REV      = BLE_GATT_UUID_16_LSB(0x2A26),    /*!< Firmware Revision characterist
  61:C:/Users/stapi/OneDrive/Desktop/GD32VW553/V1_MQTT_OK/GD32VW55X_Wifi_BLE_SDK/GD32VW55x_RELEASE_V1.0.2/MSDK/ble/profile/dis\ble_diss.c ****     BLE_DIS_CHAR_HW_REV      = BLE_GATT_UUID_16_LSB(0x2A27),    /*!< Hardware Rsssevision character
  62:C:/Users/stapi/OneDrive/Desktop/GD32VW553/V1_MQTT_OK/GD32VW55X_Wifi_BLE_SDK/GD32VW55x_RELEASE_V1.0.2/MSDK/ble/profile/dis\ble_diss.c ****     BLE_DIS_CHAR_SW_REV      = BLE_GATT_UUID_16_LSB(0x2A28),    /*!< Software Revision characterist
  63:C:/Users/stapi/OneDrive/Desktop/GD32VW553/V1_MQTT_OK/GD32VW55X_Wifi_BLE_SDK/GD32VW55x_RELEASE_V1.0.2/MSDK/ble/profile/dis\ble_diss.c ****     BLE_DIS_CHAR_MANUF_NAME  = BLE_GATT_UUID_16_LSB(0x2A29),    /*!< Manufacturer Name characterist
  64:C:/Users/stapi/OneDrive/Desktop/GD32VW553/V1_MQTT_OK/GD32VW55X_Wifi_BLE_SDK/GD32VW55x_RELEASE_V1.0.2/MSDK/ble/profile/dis\ble_diss.c ****     BLE_DIS_CHAR_IEEE_CERTIF = BLE_GATT_UUID_16_LSB(0x2A2A),    /*!< IEEE Regulatory Certification 
  65:C:/Users/stapi/OneDrive/Desktop/GD32VW553/V1_MQTT_OK/GD32VW55X_Wifi_BLE_SDK/GD32VW55x_RELEASE_V1.0.2/MSDK/ble/profile/dis\ble_diss.c ****     BLE_DIS_CHAR_PNP_ID      = BLE_GATT_UUID_16_LSB(0x2A50),    /*!< PnP ID characteristic */
  66:C:/Users/stapi/OneDrive/Desktop/GD32VW553/V1_MQTT_OK/GD32VW55X_Wifi_BLE_SDK/GD32VW55x_RELEASE_V1.0.2/MSDK/ble/profile/dis\ble_diss.c **** } ble_dis_char_uuid_t;
  67:C:/Users/stapi/OneDrive/Desktop/GD32VW553/V1_MQTT_OK/GD32VW55X_Wifi_BLE_SDK/GD32VW55x_RELEASE_V1.0.2/MSDK/ble/profile/dis\ble_diss.c **** 
  68:C:/Users/stapi/OneDrive/Desktop/GD32VW553/V1_MQTT_OK/GD32VW55X_Wifi_BLE_SDK/GD32VW55x_RELEASE_V1.0.2/MSDK/ble/profile/dis\ble_diss.c **** /* DIS Attribute database handle list */
  69:C:/Users/stapi/OneDrive/Desktop/GD32VW553/V1_MQTT_OK/GD32VW55X_Wifi_BLE_SDK/GD32VW55x_RELEASE_V1.0.2/MSDK/ble/profile/dis\ble_diss.c **** typedef enum
  70:C:/Users/stapi/OneDrive/Desktop/GD32VW553/V1_MQTT_OK/GD32VW55X_Wifi_BLE_SDK/GD32VW55x_RELEASE_V1.0.2/MSDK/ble/profile/dis\ble_diss.c **** {
  71:C:/Users/stapi/OneDrive/Desktop/GD32VW553/V1_MQTT_OK/GD32VW55X_Wifi_BLE_SDK/GD32VW55x_RELEASE_V1.0.2/MSDK/ble/profile/dis\ble_diss.c ****     BLE_DIS_HDL_SVC,                /*!< Device Information Service Declaration */
  72:C:/Users/stapi/OneDrive/Desktop/GD32VW553/V1_MQTT_OK/GD32VW55X_Wifi_BLE_SDK/GD32VW55x_RELEASE_V1.0.2/MSDK/ble/profile/dis\ble_diss.c **** 
  73:C:/Users/stapi/OneDrive/Desktop/GD32VW553/V1_MQTT_OK/GD32VW55X_Wifi_BLE_SDK/GD32VW55x_RELEASE_V1.0.2/MSDK/ble/profile/dis\ble_diss.c ****     BLE_DIS_HDL_MANUFACT_NAME_CHAR, /*!< Manufacturer Name Characteristic Declaration */
  74:C:/Users/stapi/OneDrive/Desktop/GD32VW553/V1_MQTT_OK/GD32VW55X_Wifi_BLE_SDK/GD32VW55x_RELEASE_V1.0.2/MSDK/ble/profile/dis\ble_diss.c ****     BLE_DIS_HDL_MANUFACT_NAME_VAL,  /*!< Manufacturer Name Characteristic Value */
  75:C:/Users/stapi/OneDrive/Desktop/GD32VW553/V1_MQTT_OK/GD32VW55X_Wifi_BLE_SDK/GD32VW55x_RELEASE_V1.0.2/MSDK/ble/profile/dis\ble_diss.c **** 
  76:C:/Users/stapi/OneDrive/Desktop/GD32VW553/V1_MQTT_OK/GD32VW55X_Wifi_BLE_SDK/GD32VW55x_RELEASE_V1.0.2/MSDK/ble/profile/dis\ble_diss.c ****     BLE_DIS_HDL_MODEL_NB_CHAR,      /*!< Model Number String Characteristic Declaration */
  77:C:/Users/stapi/OneDrive/Desktop/GD32VW553/V1_MQTT_OK/GD32VW55X_Wifi_BLE_SDK/GD32VW55x_RELEASE_V1.0.2/MSDK/ble/profile/dis\ble_diss.c ****     BLE_DIS_HDL_MODEL_NB_VAL,       /*!< Model Number String Characteristic Value */
  78:C:/Users/stapi/OneDrive/Desktop/GD32VW553/V1_MQTT_OK/GD32VW55X_Wifi_BLE_SDK/GD32VW55x_RELEASE_V1.0.2/MSDK/ble/profile/dis\ble_diss.c **** 
  79:C:/Users/stapi/OneDrive/Desktop/GD32VW553/V1_MQTT_OK/GD32VW55X_Wifi_BLE_SDK/GD32VW55x_RELEASE_V1.0.2/MSDK/ble/profile/dis\ble_diss.c ****     BLE_DIS_HDL_SERIAL_NB_CHAR,     /*!< Serial Number String Characteristic Declaration */
  80:C:/Users/stapi/OneDrive/Desktop/GD32VW553/V1_MQTT_OK/GD32VW55X_Wifi_BLE_SDK/GD32VW55x_RELEASE_V1.0.2/MSDK/ble/profile/dis\ble_diss.c ****     BLE_DIS_HDL_SERIAL_NB_VAL,      /*!< Serial Number String Characteristic Value */
  81:C:/Users/stapi/OneDrive/Desktop/GD32VW553/V1_MQTT_OK/GD32VW55X_Wifi_BLE_SDK/GD32VW55x_RELEASE_V1.0.2/MSDK/ble/profile/dis\ble_diss.c **** 
  82:C:/Users/stapi/OneDrive/Desktop/GD32VW553/V1_MQTT_OK/GD32VW55X_Wifi_BLE_SDK/GD32VW55x_RELEASE_V1.0.2/MSDK/ble/profile/dis\ble_diss.c ****     BLE_DIS_HDL_HARD_REV_CHAR,      /*!< Hardware Revision String Characteristic Declaration */
  83:C:/Users/stapi/OneDrive/Desktop/GD32VW553/V1_MQTT_OK/GD32VW55X_Wifi_BLE_SDK/GD32VW55x_RELEASE_V1.0.2/MSDK/ble/profile/dis\ble_diss.c ****     BLE_DIS_HDL_HARD_REV_VAL,       /*!< Hardware Revision String Characteristic Value */
  84:C:/Users/stapi/OneDrive/Desktop/GD32VW553/V1_MQTT_OK/GD32VW55X_Wifi_BLE_SDK/GD32VW55x_RELEASE_V1.0.2/MSDK/ble/profile/dis\ble_diss.c **** 
  85:C:/Users/stapi/OneDrive/Desktop/GD32VW553/V1_MQTT_OK/GD32VW55X_Wifi_BLE_SDK/GD32VW55x_RELEASE_V1.0.2/MSDK/ble/profile/dis\ble_diss.c ****     BLE_DIS_HDL_FIRM_REV_CHAR,      /*!< Firmware Revision String Characteristic Declaration */
  86:C:/Users/stapi/OneDrive/Desktop/GD32VW553/V1_MQTT_OK/GD32VW55X_Wifi_BLE_SDK/GD32VW55x_RELEASE_V1.0.2/MSDK/ble/profile/dis\ble_diss.c ****     BLE_DIS_HDL_FIRM_REV_VAL,       /*!< Firmware Revision String Characteristic Value */
  87:C:/Users/stapi/OneDrive/Desktop/GD32VW553/V1_MQTT_OK/GD32VW55X_Wifi_BLE_SDK/GD32VW55x_RELEASE_V1.0.2/MSDK/ble/profile/dis\ble_diss.c **** 
  88:C:/Users/stapi/OneDrive/Desktop/GD32VW553/V1_MQTT_OK/GD32VW55X_Wifi_BLE_SDK/GD32VW55x_RELEASE_V1.0.2/MSDK/ble/profile/dis\ble_diss.c ****     BLE_DIS_HDL_SW_REV_CHAR,        /*!< Software Revision String Characteristic Declaration */
  89:C:/Users/stapi/OneDrive/Desktop/GD32VW553/V1_MQTT_OK/GD32VW55X_Wifi_BLE_SDK/GD32VW55x_RELEASE_V1.0.2/MSDK/ble/profile/dis\ble_diss.c ****     BLE_DIS_HDL_SW_REV_VAL,         /*!< Software Revision String Characteristic Value */
  90:C:/Users/stapi/OneDrive/Desktop/GD32VW553/V1_MQTT_OK/GD32VW55X_Wifi_BLE_SDK/GD32VW55x_RELEASE_V1.0.2/MSDK/ble/profile/dis\ble_diss.c **** 
  91:C:/Users/stapi/OneDrive/Desktop/GD32VW553/V1_MQTT_OK/GD32VW55X_Wifi_BLE_SDK/GD32VW55x_RELEASE_V1.0.2/MSDK/ble/profile/dis\ble_diss.c ****     BLE_DIS_HDL_SYSTEM_ID_CHAR,     /*!< System ID Characteristic Declaration */
  92:C:/Users/stapi/OneDrive/Desktop/GD32VW553/V1_MQTT_OK/GD32VW55X_Wifi_BLE_SDK/GD32VW55x_RELEASE_V1.0.2/MSDK/ble/profile/dis\ble_diss.c ****     BLE_DIS_HDL_SYSTEM_ID_VAL,      /*!< System ID Characteristic Value */
  93:C:/Users/stapi/OneDrive/Desktop/GD32VW553/V1_MQTT_OK/GD32VW55X_Wifi_BLE_SDK/GD32VW55x_RELEASE_V1.0.2/MSDK/ble/profile/dis\ble_diss.c **** 
  94:C:/Users/stapi/OneDrive/Desktop/GD32VW553/V1_MQTT_OK/GD32VW55X_Wifi_BLE_SDK/GD32VW55x_RELEASE_V1.0.2/MSDK/ble/profile/dis\ble_diss.c ****     BLE_DIS_HDL_IEEE_CHAR,          /*!< IEEE Regulatory Certification Data List Characteristic Dec
  95:C:/Users/stapi/OneDrive/Desktop/GD32VW553/V1_MQTT_OK/GD32VW55X_Wifi_BLE_SDK/GD32VW55x_RELEASE_V1.0.2/MSDK/ble/profile/dis\ble_diss.c ****     BLE_DIS_HDL_IEEE_VAL,           /*!< IEEE Regulatory Certification Data List Characteristic Val
  96:C:/Users/stapi/OneDrive/Desktop/GD32VW553/V1_MQTT_OK/GD32VW55X_Wifi_BLE_SDK/GD32VW55x_RELEASE_V1.0.2/MSDK/ble/profile/dis\ble_diss.c **** 
  97:C:/Users/stapi/OneDrive/Desktop/GD32VW553/V1_MQTT_OK/GD32VW55X_Wifi_BLE_SDK/GD32VW55x_RELEASE_V1.0.2/MSDK/ble/profile/dis\ble_diss.c ****     BLE_DIS_HDL_PNP_ID_CHAR,        /*!< PnP ID Characteristic Declaration */
  98:C:/Users/stapi/OneDrive/Desktop/GD32VW553/V1_MQTT_OK/GD32VW55X_Wifi_BLE_SDK/GD32VW55x_RELEASE_V1.0.2/MSDK/ble/profile/dis\ble_diss.c ****     BLE_DIS_HDL_PNP_ID_VAL,         /*!< PnP ID Characteristic Value */
  99:C:/Users/stapi/OneDrive/Desktop/GD32VW553/V1_MQTT_OK/GD32VW55X_Wifi_BLE_SDK/GD32VW55x_RELEASE_V1.0.2/MSDK/ble/profile/dis\ble_diss.c **** 
 100:C:/Users/stapi/OneDrive/Desktop/GD32VW553/V1_MQTT_OK/GD32VW55X_Wifi_BLE_SDK/GD32VW55x_RELEASE_V1.0.2/MSDK/ble/profile/dis\ble_diss.c ****     BLE_DIS_HDL_NB,
 101:C:/Users/stapi/OneDrive/Desktop/GD32VW553/V1_MQTT_OK/GD32VW55X_Wifi_BLE_SDK/GD32VW55x_RELEASE_V1.0.2/MSDK/ble/profile/dis\ble_diss.c **** } ble_diss_attr_db_handle_t;
 102:C:/Users/stapi/OneDrive/Desktop/GD32VW553/V1_MQTT_OK/GD32VW55X_Wifi_BLE_SDK/GD32VW55x_RELEASE_V1.0.2/MSDK/ble/profile/dis\ble_diss.c **** 
 103:C:/Users/stapi/OneDrive/Desktop/GD32VW553/V1_MQTT_OK/GD32VW55X_Wifi_BLE_SDK/GD32VW55x_RELEASE_V1.0.2/MSDK/ble/profile/dis\ble_diss.c **** /* DIS value structure */
 104:C:/Users/stapi/OneDrive/Desktop/GD32VW553/V1_MQTT_OK/GD32VW55X_Wifi_BLE_SDK/GD32VW55x_RELEASE_V1.0.2/MSDK/ble/profile/dis\ble_diss.c **** typedef struct
 105:C:/Users/stapi/OneDrive/Desktop/GD32VW553/V1_MQTT_OK/GD32VW55X_Wifi_BLE_SDK/GD32VW55x_RELEASE_V1.0.2/MSDK/ble/profile/dis\ble_diss.c **** {
 106:C:/Users/stapi/OneDrive/Desktop/GD32VW553/V1_MQTT_OK/GD32VW55X_Wifi_BLE_SDK/GD32VW55x_RELEASE_V1.0.2/MSDK/ble/profile/dis\ble_diss.c ****     uint8_t manufact_name[BLE_DIS_VAL_MAX_LEN];     /*!< Manufacturer Name String */
 107:C:/Users/stapi/OneDrive/Desktop/GD32VW553/V1_MQTT_OK/GD32VW55X_Wifi_BLE_SDK/GD32VW55x_RELEASE_V1.0.2/MSDK/ble/profile/dis\ble_diss.c ****     uint8_t manufact_name_len;
 108:C:/Users/stapi/OneDrive/Desktop/GD32VW553/V1_MQTT_OK/GD32VW55X_Wifi_BLE_SDK/GD32VW55x_RELEASE_V1.0.2/MSDK/ble/profile/dis\ble_diss.c ****     uint8_t model_num[BLE_DIS_VAL_MAX_LEN];         /*!< Model Number String */
 109:C:/Users/stapi/OneDrive/Desktop/GD32VW553/V1_MQTT_OK/GD32VW55X_Wifi_BLE_SDK/GD32VW55x_RELEASE_V1.0.2/MSDK/ble/profile/dis\ble_diss.c ****     uint8_t model_num_len;
 110:C:/Users/stapi/OneDrive/Desktop/GD32VW553/V1_MQTT_OK/GD32VW55X_Wifi_BLE_SDK/GD32VW55x_RELEASE_V1.0.2/MSDK/ble/profile/dis\ble_diss.c ****     uint8_t serial_num[BLE_DIS_VAL_MAX_LEN];        /*!< Serial Number String */
 111:C:/Users/stapi/OneDrive/Desktop/GD32VW553/V1_MQTT_OK/GD32VW55X_Wifi_BLE_SDK/GD32VW55x_RELEASE_V1.0.2/MSDK/ble/profile/dis\ble_diss.c ****     uint8_t serial_num_len;
 112:C:/Users/stapi/OneDrive/Desktop/GD32VW553/V1_MQTT_OK/GD32VW55X_Wifi_BLE_SDK/GD32VW55x_RELEASE_V1.0.2/MSDK/ble/profile/dis\ble_diss.c ****     uint8_t hw_rev[BLE_DIS_VAL_MAX_LEN];            /*!< Hardware Revision String */
 113:C:/Users/stapi/OneDrive/Desktop/GD32VW553/V1_MQTT_OK/GD32VW55X_Wifi_BLE_SDK/GD32VW55x_RELEASE_V1.0.2/MSDK/ble/profile/dis\ble_diss.c ****     uint8_t hw_rev_len;
 114:C:/Users/stapi/OneDrive/Desktop/GD32VW553/V1_MQTT_OK/GD32VW55X_Wifi_BLE_SDK/GD32VW55x_RELEASE_V1.0.2/MSDK/ble/profile/dis\ble_diss.c ****     uint8_t fw_rev[BLE_DIS_VAL_MAX_LEN];            /*!< Firmware Revision String */
 115:C:/Users/stapi/OneDrive/Desktop/GD32VW553/V1_MQTT_OK/GD32VW55X_Wifi_BLE_SDK/GD32VW55x_RELEASE_V1.0.2/MSDK/ble/profile/dis\ble_diss.c ****     uint8_t fw_rev_len;
 116:C:/Users/stapi/OneDrive/Desktop/GD32VW553/V1_MQTT_OK/GD32VW55X_Wifi_BLE_SDK/GD32VW55x_RELEASE_V1.0.2/MSDK/ble/profile/dis\ble_diss.c ****     uint8_t sw_rev[BLE_DIS_VAL_MAX_LEN];            /*!< Software Revision String */
 117:C:/Users/stapi/OneDrive/Desktop/GD32VW553/V1_MQTT_OK/GD32VW55X_Wifi_BLE_SDK/GD32VW55x_RELEASE_V1.0.2/MSDK/ble/profile/dis\ble_diss.c ****     uint8_t sw_rev_len;
 118:C:/Users/stapi/OneDrive/Desktop/GD32VW553/V1_MQTT_OK/GD32VW55X_Wifi_BLE_SDK/GD32VW55x_RELEASE_V1.0.2/MSDK/ble/profile/dis\ble_diss.c ****     uint8_t sys_id[BLE_DIS_SYS_ID_LEN];             /*!< System ID */
 119:C:/Users/stapi/OneDrive/Desktop/GD32VW553/V1_MQTT_OK/GD32VW55X_Wifi_BLE_SDK/GD32VW55x_RELEASE_V1.0.2/MSDK/ble/profile/dis\ble_diss.c ****     uint8_t ieee_data[BLE_DIS_VAL_MAX_LEN];         /*!< IEEE Regulatory Certification Data List */
 120:C:/Users/stapi/OneDrive/Desktop/GD32VW553/V1_MQTT_OK/GD32VW55X_Wifi_BLE_SDK/GD32VW55x_RELEASE_V1.0.2/MSDK/ble/profile/dis\ble_diss.c ****     uint8_t ieee_data_len;
 121:C:/Users/stapi/OneDrive/Desktop/GD32VW553/V1_MQTT_OK/GD32VW55X_Wifi_BLE_SDK/GD32VW55x_RELEASE_V1.0.2/MSDK/ble/profile/dis\ble_diss.c ****     uint8_t pnp_id[BLE_DIS_PNP_ID_LEN];             /*!< PnP ID */
 122:C:/Users/stapi/OneDrive/Desktop/GD32VW553/V1_MQTT_OK/GD32VW55X_Wifi_BLE_SDK/GD32VW55x_RELEASE_V1.0.2/MSDK/ble/profile/dis\ble_diss.c **** } ble_diss_value_t;
 123:C:/Users/stapi/OneDrive/Desktop/GD32VW553/V1_MQTT_OK/GD32VW55X_Wifi_BLE_SDK/GD32VW55x_RELEASE_V1.0.2/MSDK/ble/profile/dis\ble_diss.c **** 
 124:C:/Users/stapi/OneDrive/Desktop/GD32VW553/V1_MQTT_OK/GD32VW55X_Wifi_BLE_SDK/GD32VW55x_RELEASE_V1.0.2/MSDK/ble/profile/dis\ble_diss.c **** /* DIS Database Description */
 125:C:/Users/stapi/OneDrive/Desktop/GD32VW553/V1_MQTT_OK/GD32VW55X_Wifi_BLE_SDK/GD32VW55x_RELEASE_V1.0.2/MSDK/ble/profile/dis\ble_diss.c **** const ble_gatt_attr_desc_t ble_diss_attr_db[BLE_DIS_HDL_NB] =
 126:C:/Users/stapi/OneDrive/Desktop/GD32VW553/V1_MQTT_OK/GD32VW55X_Wifi_BLE_SDK/GD32VW55x_RELEASE_V1.0.2/MSDK/ble/profile/dis\ble_diss.c **** {
 127:C:/Users/stapi/OneDrive/Desktop/GD32VW553/V1_MQTT_OK/GD32VW55X_Wifi_BLE_SDK/GD32VW55x_RELEASE_V1.0.2/MSDK/ble/profile/dis\ble_diss.c ****     [BLE_DIS_HDL_SVC]                = {UUID_16BIT_TO_ARRAY(BLE_GATT_DECL_PRIMARY_SERVICE), PROP(RD
 128:C:/Users/stapi/OneDrive/Desktop/GD32VW553/V1_MQTT_OK/GD32VW55X_Wifi_BLE_SDK/GD32VW55x_RELEASE_V1.0.2/MSDK/ble/profile/dis\ble_diss.c **** 
 129:C:/Users/stapi/OneDrive/Desktop/GD32VW553/V1_MQTT_OK/GD32VW55X_Wifi_BLE_SDK/GD32VW55x_RELEASE_V1.0.2/MSDK/ble/profile/dis\ble_diss.c ****     [BLE_DIS_HDL_MANUFACT_NAME_CHAR] = {UUID_16BIT_TO_ARRAY(BLE_GATT_DECL_CHARACTERISTIC),  PROP(RD
 130:C:/Users/stapi/OneDrive/Desktop/GD32VW553/V1_MQTT_OK/GD32VW55X_Wifi_BLE_SDK/GD32VW55x_RELEASE_V1.0.2/MSDK/ble/profile/dis\ble_diss.c ****     [BLE_DIS_HDL_MANUFACT_NAME_VAL]  = {UUID_16BIT_TO_ARRAY(BLE_DIS_CHAR_MANUF_NAME),       PROP(RD
 131:C:/Users/stapi/OneDrive/Desktop/GD32VW553/V1_MQTT_OK/GD32VW55X_Wifi_BLE_SDK/GD32VW55x_RELEASE_V1.0.2/MSDK/ble/profile/dis\ble_diss.c **** 
 132:C:/Users/stapi/OneDrive/Desktop/GD32VW553/V1_MQTT_OK/GD32VW55X_Wifi_BLE_SDK/GD32VW55x_RELEASE_V1.0.2/MSDK/ble/profile/dis\ble_diss.c ****     [BLE_DIS_HDL_MODEL_NB_CHAR]      = {UUID_16BIT_TO_ARRAY(BLE_GATT_DECL_CHARACTERISTIC),  PROP(RD
 133:C:/Users/stapi/OneDrive/Desktop/GD32VW553/V1_MQTT_OK/GD32VW55X_Wifi_BLE_SDK/GD32VW55x_RELEASE_V1.0.2/MSDK/ble/profile/dis\ble_diss.c ****     [BLE_DIS_HDL_MODEL_NB_VAL]       = {UUID_16BIT_TO_ARRAY(BLE_DIS_CHAR_MODEL_NB),         PROP(RD
 134:C:/Users/stapi/OneDrive/Desktop/GD32VW553/V1_MQTT_OK/GD32VW55X_Wifi_BLE_SDK/GD32VW55x_RELEASE_V1.0.2/MSDK/ble/profile/dis\ble_diss.c **** 
 135:C:/Users/stapi/OneDrive/Desktop/GD32VW553/V1_MQTT_OK/GD32VW55X_Wifi_BLE_SDK/GD32VW55x_RELEASE_V1.0.2/MSDK/ble/profile/dis\ble_diss.c ****     [BLE_DIS_HDL_SERIAL_NB_CHAR]     = {UUID_16BIT_TO_ARRAY(BLE_GATT_DECL_CHARACTERISTIC),  PROP(RD
 136:C:/Users/stapi/OneDrive/Desktop/GD32VW553/V1_MQTT_OK/GD32VW55X_Wifi_BLE_SDK/GD32VW55x_RELEASE_V1.0.2/MSDK/ble/profile/dis\ble_diss.c ****     [BLE_DIS_HDL_SERIAL_NB_VAL]      = {UUID_16BIT_TO_ARRAY(BLE_DIS_CHAR_SERIAL_NB),        PROP(RD
 137:C:/Users/stapi/OneDrive/Desktop/GD32VW553/V1_MQTT_OK/GD32VW55X_Wifi_BLE_SDK/GD32VW55x_RELEASE_V1.0.2/MSDK/ble/profile/dis\ble_diss.c **** 
 138:C:/Users/stapi/OneDrive/Desktop/GD32VW553/V1_MQTT_OK/GD32VW55X_Wifi_BLE_SDK/GD32VW55x_RELEASE_V1.0.2/MSDK/ble/profile/dis\ble_diss.c ****     [BLE_DIS_HDL_HARD_REV_CHAR]      = {UUID_16BIT_TO_ARRAY(BLE_GATT_DECL_CHARACTERISTIC),  PROP(RD
 139:C:/Users/stapi/OneDrive/Desktop/GD32VW553/V1_MQTT_OK/GD32VW55X_Wifi_BLE_SDK/GD32VW55x_RELEASE_V1.0.2/MSDK/ble/profile/dis\ble_diss.c ****     [BLE_DIS_HDL_HARD_REV_VAL]       = {UUID_16BIT_TO_ARRAY(BLE_DIS_CHAR_HW_REV),           PROP(RD
 140:C:/Users/stapi/OneDrive/Desktop/GD32VW553/V1_MQTT_OK/GD32VW55X_Wifi_BLE_SDK/GD32VW55x_RELEASE_V1.0.2/MSDK/ble/profile/dis\ble_diss.c **** 
 141:C:/Users/stapi/OneDrive/Desktop/GD32VW553/V1_MQTT_OK/GD32VW55X_Wifi_BLE_SDK/GD32VW55x_RELEASE_V1.0.2/MSDK/ble/profile/dis\ble_diss.c ****     [BLE_DIS_HDL_FIRM_REV_CHAR]      = {UUID_16BIT_TO_ARRAY(BLE_GATT_DECL_CHARACTERISTIC),  PROP(RD
 142:C:/Users/stapi/OneDrive/Desktop/GD32VW553/V1_MQTT_OK/GD32VW55X_Wifi_BLE_SDK/GD32VW55x_RELEASE_V1.0.2/MSDK/ble/profile/dis\ble_diss.c ****     [BLE_DIS_HDL_FIRM_REV_VAL]       = {UUID_16BIT_TO_ARRAY(BLE_DIS_CHAR_FW_REV),           PROP(RD
 143:C:/Users/stapi/OneDrive/Desktop/GD32VW553/V1_MQTT_OK/GD32VW55X_Wifi_BLE_SDK/GD32VW55x_RELEASE_V1.0.2/MSDK/ble/profile/dis\ble_diss.c **** 
 144:C:/Users/stapi/OneDrive/Desktop/GD32VW553/V1_MQTT_OK/GD32VW55X_Wifi_BLE_SDK/GD32VW55x_RELEASE_V1.0.2/MSDK/ble/profile/dis\ble_diss.c ****     [BLE_DIS_HDL_SW_REV_CHAR]        = {UUID_16BIT_TO_ARRAY(BLE_GATT_DECL_CHARACTERISTIC),  PROP(RD
 145:C:/Users/stapi/OneDrive/Desktop/GD32VW553/V1_MQTT_OK/GD32VW55X_Wifi_BLE_SDK/GD32VW55x_RELEASE_V1.0.2/MSDK/ble/profile/dis\ble_diss.c ****     [BLE_DIS_HDL_SW_REV_VAL]         = {UUID_16BIT_TO_ARRAY(BLE_DIS_CHAR_SW_REV),           PROP(RD
 146:C:/Users/stapi/OneDrive/Desktop/GD32VW553/V1_MQTT_OK/GD32VW55X_Wifi_BLE_SDK/GD32VW55x_RELEASE_V1.0.2/MSDK/ble/profile/dis\ble_diss.c **** 
 147:C:/Users/stapi/OneDrive/Desktop/GD32VW553/V1_MQTT_OK/GD32VW55X_Wifi_BLE_SDK/GD32VW55x_RELEASE_V1.0.2/MSDK/ble/profile/dis\ble_diss.c ****     [BLE_DIS_HDL_SYSTEM_ID_CHAR]     = {UUID_16BIT_TO_ARRAY(BLE_GATT_DECL_CHARACTERISTIC),  PROP(RD
 148:C:/Users/stapi/OneDrive/Desktop/GD32VW553/V1_MQTT_OK/GD32VW55X_Wifi_BLE_SDK/GD32VW55x_RELEASE_V1.0.2/MSDK/ble/profile/dis\ble_diss.c ****     [BLE_DIS_HDL_SYSTEM_ID_VAL]      = {UUID_16BIT_TO_ARRAY(BLE_DIS_CHAR_SYS_ID),           PROP(RD
 149:C:/Users/stapi/OneDrive/Desktop/GD32VW553/V1_MQTT_OK/GD32VW55X_Wifi_BLE_SDK/GD32VW55x_RELEASE_V1.0.2/MSDK/ble/profile/dis\ble_diss.c **** 
 150:C:/Users/stapi/OneDrive/Desktop/GD32VW553/V1_MQTT_OK/GD32VW55X_Wifi_BLE_SDK/GD32VW55x_RELEASE_V1.0.2/MSDK/ble/profile/dis\ble_diss.c ****     [BLE_DIS_HDL_IEEE_CHAR]          = {UUID_16BIT_TO_ARRAY(BLE_GATT_DECL_CHARACTERISTIC),  PROP(RD
 151:C:/Users/stapi/OneDrive/Desktop/GD32VW553/V1_MQTT_OK/GD32VW55X_Wifi_BLE_SDK/GD32VW55x_RELEASE_V1.0.2/MSDK/ble/profile/dis\ble_diss.c ****     [BLE_DIS_HDL_IEEE_VAL]           = {UUID_16BIT_TO_ARRAY(BLE_DIS_CHAR_IEEE_CERTIF),      PROP(RD
 152:C:/Users/stapi/OneDrive/Desktop/GD32VW553/V1_MQTT_OK/GD32VW55X_Wifi_BLE_SDK/GD32VW55x_RELEASE_V1.0.2/MSDK/ble/profile/dis\ble_diss.c **** 
 153:C:/Users/stapi/OneDrive/Desktop/GD32VW553/V1_MQTT_OK/GD32VW55X_Wifi_BLE_SDK/GD32VW55x_RELEASE_V1.0.2/MSDK/ble/profile/dis\ble_diss.c ****     [BLE_DIS_HDL_PNP_ID_CHAR]        = {UUID_16BIT_TO_ARRAY(BLE_GATT_DECL_CHARACTERISTIC),  PROP(RD
 154:C:/Users/stapi/OneDrive/Desktop/GD32VW553/V1_MQTT_OK/GD32VW55X_Wifi_BLE_SDK/GD32VW55x_RELEASE_V1.0.2/MSDK/ble/profile/dis\ble_diss.c ****     [BLE_DIS_HDL_PNP_ID_VAL]         = {UUID_16BIT_TO_ARRAY(BLE_DIS_CHAR_PNP_ID),           PROP(RD
 155:C:/Users/stapi/OneDrive/Desktop/GD32VW553/V1_MQTT_OK/GD32VW55X_Wifi_BLE_SDK/GD32VW55x_RELEASE_V1.0.2/MSDK/ble/profile/dis\ble_diss.c **** };
 156:C:/Users/stapi/OneDrive/Desktop/GD32VW553/V1_MQTT_OK/GD32VW55X_Wifi_BLE_SDK/GD32VW55x_RELEASE_V1.0.2/MSDK/ble/profile/dis\ble_diss.c **** 
 157:C:/Users/stapi/OneDrive/Desktop/GD32VW553/V1_MQTT_OK/GD32VW55X_Wifi_BLE_SDK/GD32VW55x_RELEASE_V1.0.2/MSDK/ble/profile/dis\ble_diss.c **** /* Device information value */
 158:C:/Users/stapi/OneDrive/Desktop/GD32VW553/V1_MQTT_OK/GD32VW55X_Wifi_BLE_SDK/GD32VW55x_RELEASE_V1.0.2/MSDK/ble/profile/dis\ble_diss.c **** static ble_diss_value_t ble_diss_val = {0};
 159:C:/Users/stapi/OneDrive/Desktop/GD32VW553/V1_MQTT_OK/GD32VW55X_Wifi_BLE_SDK/GD32VW55x_RELEASE_V1.0.2/MSDK/ble/profile/dis\ble_diss.c **** 
 160:C:/Users/stapi/OneDrive/Desktop/GD32VW553/V1_MQTT_OK/GD32VW55X_Wifi_BLE_SDK/GD32VW55x_RELEASE_V1.0.2/MSDK/ble/profile/dis\ble_diss.c **** /* DIS service ID assigned by GATT server module */
 161:C:/Users/stapi/OneDrive/Desktop/GD32VW553/V1_MQTT_OK/GD32VW55X_Wifi_BLE_SDK/GD32VW55x_RELEASE_V1.0.2/MSDK/ble/profile/dis\ble_diss.c **** static uint8_t ble_diss_svc_id = 0xFF;
 162:C:/Users/stapi/OneDrive/Desktop/GD32VW553/V1_MQTT_OK/GD32VW55X_Wifi_BLE_SDK/GD32VW55x_RELEASE_V1.0.2/MSDK/ble/profile/dis\ble_diss.c **** 
 163:C:/Users/stapi/OneDrive/Desktop/GD32VW553/V1_MQTT_OK/GD32VW55X_Wifi_BLE_SDK/GD32VW55x_RELEASE_V1.0.2/MSDK/ble/profile/dis\ble_diss.c **** /* DIS UUID 16bits array */
 164:C:/Users/stapi/OneDrive/Desktop/GD32VW553/V1_MQTT_OK/GD32VW55X_Wifi_BLE_SDK/GD32VW55x_RELEASE_V1.0.2/MSDK/ble/profile/dis\ble_diss.c **** const uint8_t ble_dis_uuid[2] = UUID_16BIT_TO_ARRAY(BLE_DIS_SVC_DEVICE_INFO);
 165:C:/Users/stapi/OneDrive/Desktop/GD32VW553/V1_MQTT_OK/GD32VW55X_Wifi_BLE_SDK/GD32VW55x_RELEASE_V1.0.2/MSDK/ble/profile/dis\ble_diss.c **** 
 166:C:/Users/stapi/OneDrive/Desktop/GD32VW553/V1_MQTT_OK/GD32VW55X_Wifi_BLE_SDK/GD32VW55x_RELEASE_V1.0.2/MSDK/ble/profile/dis\ble_diss.c **** /*!
 167:C:/Users/stapi/OneDrive/Desktop/GD32VW553/V1_MQTT_OK/GD32VW55X_Wifi_BLE_SDK/GD32VW55x_RELEASE_V1.0.2/MSDK/ble/profile/dis\ble_diss.c ****     \brief      Callback function to handle GATT server messages
 168:C:/Users/stapi/OneDrive/Desktop/GD32VW553/V1_MQTT_OK/GD32VW55X_Wifi_BLE_SDK/GD32VW55x_RELEASE_V1.0.2/MSDK/ble/profile/dis\ble_diss.c ****     \param[in]  p_srv_msg_info: pointer to GATT server message information
 169:C:/Users/stapi/OneDrive/Desktop/GD32VW553/V1_MQTT_OK/GD32VW55X_Wifi_BLE_SDK/GD32VW55x_RELEASE_V1.0.2/MSDK/ble/profile/dis\ble_diss.c ****     \param[out] none
 170:C:/Users/stapi/OneDrive/Desktop/GD32VW553/V1_MQTT_OK/GD32VW55X_Wifi_BLE_SDK/GD32VW55x_RELEASE_V1.0.2/MSDK/ble/profile/dis\ble_diss.c ****     \retval     ble_status_t: BLE_ERR_NO_ERROR on success, otherwise an error code
 171:C:/Users/stapi/OneDrive/Desktop/GD32VW553/V1_MQTT_OK/GD32VW55X_Wifi_BLE_SDK/GD32VW55x_RELEASE_V1.0.2/MSDK/ble/profile/dis\ble_diss.c **** */
 172:C:/Users/stapi/OneDrive/Desktop/GD32VW553/V1_MQTT_OK/GD32VW55X_Wifi_BLE_SDK/GD32VW55x_RELEASE_V1.0.2/MSDK/ble/profile/dis\ble_diss.c **** static ble_status_t ble_diss_srv_cb(ble_gatts_msg_info_t *p_srv_msg_info)
 173:C:/Users/stapi/OneDrive/Desktop/GD32VW553/V1_MQTT_OK/GD32VW55X_Wifi_BLE_SDK/GD32VW55x_RELEASE_V1.0.2/MSDK/ble/profile/dis\ble_diss.c **** {
  15              		.loc 1 173 1
  16              		.cfi_startproc
  17              	.LVL0:
  18 0000 17030000 		call	t0,__riscv_save_1
  18      E7020300 
  19              		.cfi_offset 8, -8
  20              		.cfi_offset 1, -4
  21              		.cfi_def_cfa_offset 16
 174:C:/Users/stapi/OneDrive/Desktop/GD32VW553/V1_MQTT_OK/GD32VW55X_Wifi_BLE_SDK/GD32VW55x_RELEASE_V1.0.2/MSDK/ble/profile/dis\ble_diss.c ****     uint8_t attr_idx = 0;
  22              		.loc 1 174 5
  23              	.LVL1:
 175:C:/Users/stapi/OneDrive/Desktop/GD32VW553/V1_MQTT_OK/GD32VW55X_Wifi_BLE_SDK/GD32VW55x_RELEASE_V1.0.2/MSDK/ble/profile/dis\ble_diss.c ****     uint16_t len = 0;
  24              		.loc 1 175 5
 176:C:/Users/stapi/OneDrive/Desktop/GD32VW553/V1_MQTT_OK/GD32VW55X_Wifi_BLE_SDK/GD32VW55x_RELEASE_V1.0.2/MSDK/ble/profile/dis\ble_diss.c ****     uint8_t attr_len = 0;
  25              		.loc 1 176 5
 177:C:/Users/stapi/OneDrive/Desktop/GD32VW553/V1_MQTT_OK/GD32VW55X_Wifi_BLE_SDK/GD32VW55x_RELEASE_V1.0.2/MSDK/ble/profile/dis\ble_diss.c ****     uint8_t *p_attr = NULL;
  26              		.loc 1 177 5
 178:C:/Users/stapi/OneDrive/Desktop/GD32VW553/V1_MQTT_OK/GD32VW55X_Wifi_BLE_SDK/GD32VW55x_RELEASE_V1.0.2/MSDK/ble/profile/dis\ble_diss.c **** 
 179:C:/Users/stapi/OneDrive/Desktop/GD32VW553/V1_MQTT_OK/GD32VW55X_Wifi_BLE_SDK/GD32VW55x_RELEASE_V1.0.2/MSDK/ble/profile/dis\ble_diss.c ****     if (p_srv_msg_info->srv_msg_type == BLE_SRV_EVT_GATT_OPERATION) {
  27              		.loc 1 179 5
  28              		.loc 1 179 8 is_stmt 0
  29 0008 1841     		lw	a4,0(a0)
  30 000a 8D47     		li	a5,3
  31 000c 6313F70E 		bne	a4,a5,.L14
 180:C:/Users/stapi/OneDrive/Desktop/GD32VW553/V1_MQTT_OK/GD32VW55X_Wifi_BLE_SDK/GD32VW55x_RELEASE_V1.0.2/MSDK/ble/profile/dis\ble_diss.c ****         if (p_srv_msg_info->msg_data.gatts_op_info.gatts_op_sub_evt == BLE_SRV_EVT_READ_REQ) {
  32              		.loc 1 180 9 is_stmt 1
  33              		.loc 1 180 51 is_stmt 0
  34 0010 4041     		lw	s0,4(a0)
  35              		.loc 1 180 12
  36 0012 65E0     		bne	s0,zero,.L14
  37              	.LVL2:
  38              	.LBB27:
  39              	.LBB28:
  40              	.LBB29:
 181:C:/Users/stapi/OneDrive/Desktop/GD32VW553/V1_MQTT_OK/GD32VW55X_Wifi_BLE_SDK/GD32VW55x_RELEASE_V1.0.2/MSDK/ble/profile/dis\ble_diss.c ****             ble_gatts_read_req_t * p_read_req = &p_srv_msg_info->msg_data.gatts_op_info.gatts_op_da
  41              		.loc 1 181 13 is_stmt 1
 182:C:/Users/stapi/OneDrive/Desktop/GD32VW553/V1_MQTT_OK/GD32VW55X_Wifi_BLE_SDK/GD32VW55x_RELEASE_V1.0.2/MSDK/ble/profile/dis\ble_diss.c **** 
 183:C:/Users/stapi/OneDrive/Desktop/GD32VW553/V1_MQTT_OK/GD32VW55X_Wifi_BLE_SDK/GD32VW55x_RELEASE_V1.0.2/MSDK/ble/profile/dis\ble_diss.c ****             attr_idx = p_read_req->att_idx;
  42              		.loc 1 183 13
 184:C:/Users/stapi/OneDrive/Desktop/GD32VW553/V1_MQTT_OK/GD32VW55X_Wifi_BLE_SDK/GD32VW55x_RELEASE_V1.0.2/MSDK/ble/profile/dis\ble_diss.c ****             switch (attr_idx) {
  43              		.loc 1 184 13
 183:C:/Users/stapi/OneDrive/Desktop/GD32VW553/V1_MQTT_OK/GD32VW55X_Wifi_BLE_SDK/GD32VW55x_RELEASE_V1.0.2/MSDK/ble/profile/dis\ble_diss.c ****             switch (attr_idx) {
  44              		.loc 1 183 22 is_stmt 0
  45 0014 83570501 		lhu	a5,16(a0)
  46 0018 4147     		li	a4,16
  47 001a F917     		addi	a5,a5,-2
  48 001c 93F7F70F 		andi	a5,a5,0xff
  49 0020 636BF70C 		bgtu	a5,a4,.L15
  50 0024 37070000 		lui	a4,%hi(.L4)
  51 0028 13070700 		addi	a4,a4,%lo(.L4)
  52 002c B3C7E720 		sh2add	a5,a5,a4
  53 0030 9C43     		lw	a5,0(a5)
  54 0032 8287     		jr	a5
  55              		.section	.rodata.ble_diss_srv_cb,"a",@progbits
  56              		.align	2
  57              		.align	2
  58              	.L4:
  59 0000 00000000 		.word	.L12
  60 0004 00000000 		.word	.L15
  61 0008 00000000 		.word	.L11
  62 000c 00000000 		.word	.L15
  63 0010 00000000 		.word	.L10
  64 0014 00000000 		.word	.L15
  65 0018 00000000 		.word	.L9
  66 001c 00000000 		.word	.L15
  67 0020 00000000 		.word	.L8
  68 0024 00000000 		.word	.L15
  69 0028 00000000 		.word	.L7
  70 002c 00000000 		.word	.L15
  71 0030 00000000 		.word	.L16
  72 0034 00000000 		.word	.L15
  73 0038 00000000 		.word	.L5
  74 003c 00000000 		.word	.L15
  75 0040 00000000 		.word	.L3
  76              		.section	.text.ble_diss_srv_cb
  77              	.L3:
  78 0034 B7050000 		lui	a1,%hi(.LANCHOR0+232)
  79 0038 9385850E 		addi	a1,a1,%lo(.LANCHOR0+232)
  80 003c 9D47     		li	a5,7
  81              	.L6:
  82              	.LVL3:
 185:C:/Users/stapi/OneDrive/Desktop/GD32VW553/V1_MQTT_OK/GD32VW55X_Wifi_BLE_SDK/GD32VW55x_RELEASE_V1.0.2/MSDK/ble/profile/dis\ble_diss.c ****             case BLE_DIS_HDL_MANUFACT_NAME_VAL: {
 186:C:/Users/stapi/OneDrive/Desktop/GD32VW553/V1_MQTT_OK/GD32VW55X_Wifi_BLE_SDK/GD32VW55x_RELEASE_V1.0.2/MSDK/ble/profile/dis\ble_diss.c ****                 p_attr   = ble_diss_val.manufact_name;
 187:C:/Users/stapi/OneDrive/Desktop/GD32VW553/V1_MQTT_OK/GD32VW55X_Wifi_BLE_SDK/GD32VW55x_RELEASE_V1.0.2/MSDK/ble/profile/dis\ble_diss.c ****                 attr_len = ble_diss_val.manufact_name_len;
 188:C:/Users/stapi/OneDrive/Desktop/GD32VW553/V1_MQTT_OK/GD32VW55X_Wifi_BLE_SDK/GD32VW55x_RELEASE_V1.0.2/MSDK/ble/profile/dis\ble_diss.c ****             } break;
 189:C:/Users/stapi/OneDrive/Desktop/GD32VW553/V1_MQTT_OK/GD32VW55X_Wifi_BLE_SDK/GD32VW55x_RELEASE_V1.0.2/MSDK/ble/profile/dis\ble_diss.c **** 
 190:C:/Users/stapi/OneDrive/Desktop/GD32VW553/V1_MQTT_OK/GD32VW55X_Wifi_BLE_SDK/GD32VW55x_RELEASE_V1.0.2/MSDK/ble/profile/dis\ble_diss.c ****             case BLE_DIS_HDL_MODEL_NB_VAL: {
 191:C:/Users/stapi/OneDrive/Desktop/GD32VW553/V1_MQTT_OK/GD32VW55X_Wifi_BLE_SDK/GD32VW55x_RELEASE_V1.0.2/MSDK/ble/profile/dis\ble_diss.c ****                 p_attr   = ble_diss_val.model_num;
 192:C:/Users/stapi/OneDrive/Desktop/GD32VW553/V1_MQTT_OK/GD32VW55X_Wifi_BLE_SDK/GD32VW55x_RELEASE_V1.0.2/MSDK/ble/profile/dis\ble_diss.c ****                 attr_len = ble_diss_val.model_num_len;
 193:C:/Users/stapi/OneDrive/Desktop/GD32VW553/V1_MQTT_OK/GD32VW55X_Wifi_BLE_SDK/GD32VW55x_RELEASE_V1.0.2/MSDK/ble/profile/dis\ble_diss.c ****             } break;
 194:C:/Users/stapi/OneDrive/Desktop/GD32VW553/V1_MQTT_OK/GD32VW55X_Wifi_BLE_SDK/GD32VW55x_RELEASE_V1.0.2/MSDK/ble/profile/dis\ble_diss.c **** 
 195:C:/Users/stapi/OneDrive/Desktop/GD32VW553/V1_MQTT_OK/GD32VW55X_Wifi_BLE_SDK/GD32VW55x_RELEASE_V1.0.2/MSDK/ble/profile/dis\ble_diss.c ****             case BLE_DIS_HDL_SERIAL_NB_VAL: {
 196:C:/Users/stapi/OneDrive/Desktop/GD32VW553/V1_MQTT_OK/GD32VW55X_Wifi_BLE_SDK/GD32VW55x_RELEASE_V1.0.2/MSDK/ble/profile/dis\ble_diss.c ****                 p_attr   = ble_diss_val.serial_num;
 197:C:/Users/stapi/OneDrive/Desktop/GD32VW553/V1_MQTT_OK/GD32VW55X_Wifi_BLE_SDK/GD32VW55x_RELEASE_V1.0.2/MSDK/ble/profile/dis\ble_diss.c ****                 attr_len = ble_diss_val.serial_num_len;
 198:C:/Users/stapi/OneDrive/Desktop/GD32VW553/V1_MQTT_OK/GD32VW55X_Wifi_BLE_SDK/GD32VW55x_RELEASE_V1.0.2/MSDK/ble/profile/dis\ble_diss.c ****             } break;
 199:C:/Users/stapi/OneDrive/Desktop/GD32VW553/V1_MQTT_OK/GD32VW55X_Wifi_BLE_SDK/GD32VW55x_RELEASE_V1.0.2/MSDK/ble/profile/dis\ble_diss.c **** 
 200:C:/Users/stapi/OneDrive/Desktop/GD32VW553/V1_MQTT_OK/GD32VW55X_Wifi_BLE_SDK/GD32VW55x_RELEASE_V1.0.2/MSDK/ble/profile/dis\ble_diss.c ****             case BLE_DIS_HDL_HARD_REV_VAL: {
 201:C:/Users/stapi/OneDrive/Desktop/GD32VW553/V1_MQTT_OK/GD32VW55X_Wifi_BLE_SDK/GD32VW55x_RELEASE_V1.0.2/MSDK/ble/profile/dis\ble_diss.c ****                 p_attr   = ble_diss_val.hw_rev;
 202:C:/Users/stapi/OneDrive/Desktop/GD32VW553/V1_MQTT_OK/GD32VW55X_Wifi_BLE_SDK/GD32VW55x_RELEASE_V1.0.2/MSDK/ble/profile/dis\ble_diss.c ****                 attr_len = ble_diss_val.hw_rev_len;
 203:C:/Users/stapi/OneDrive/Desktop/GD32VW553/V1_MQTT_OK/GD32VW55X_Wifi_BLE_SDK/GD32VW55x_RELEASE_V1.0.2/MSDK/ble/profile/dis\ble_diss.c ****             } break;
 204:C:/Users/stapi/OneDrive/Desktop/GD32VW553/V1_MQTT_OK/GD32VW55X_Wifi_BLE_SDK/GD32VW55x_RELEASE_V1.0.2/MSDK/ble/profile/dis\ble_diss.c **** 
 205:C:/Users/stapi/OneDrive/Desktop/GD32VW553/V1_MQTT_OK/GD32VW55X_Wifi_BLE_SDK/GD32VW55x_RELEASE_V1.0.2/MSDK/ble/profile/dis\ble_diss.c ****             case BLE_DIS_HDL_FIRM_REV_VAL: {
 206:C:/Users/stapi/OneDrive/Desktop/GD32VW553/V1_MQTT_OK/GD32VW55X_Wifi_BLE_SDK/GD32VW55x_RELEASE_V1.0.2/MSDK/ble/profile/dis\ble_diss.c ****                 p_attr   = ble_diss_val.fw_rev;
 207:C:/Users/stapi/OneDrive/Desktop/GD32VW553/V1_MQTT_OK/GD32VW55X_Wifi_BLE_SDK/GD32VW55x_RELEASE_V1.0.2/MSDK/ble/profile/dis\ble_diss.c ****                 attr_len = ble_diss_val.fw_rev_len;
 208:C:/Users/stapi/OneDrive/Desktop/GD32VW553/V1_MQTT_OK/GD32VW55X_Wifi_BLE_SDK/GD32VW55x_RELEASE_V1.0.2/MSDK/ble/profile/dis\ble_diss.c ****             } break;
 209:C:/Users/stapi/OneDrive/Desktop/GD32VW553/V1_MQTT_OK/GD32VW55X_Wifi_BLE_SDK/GD32VW55x_RELEASE_V1.0.2/MSDK/ble/profile/dis\ble_diss.c **** 
 210:C:/Users/stapi/OneDrive/Desktop/GD32VW553/V1_MQTT_OK/GD32VW55X_Wifi_BLE_SDK/GD32VW55x_RELEASE_V1.0.2/MSDK/ble/profile/dis\ble_diss.c ****             case BLE_DIS_HDL_SW_REV_VAL: {
 211:C:/Users/stapi/OneDrive/Desktop/GD32VW553/V1_MQTT_OK/GD32VW55X_Wifi_BLE_SDK/GD32VW55x_RELEASE_V1.0.2/MSDK/ble/profile/dis\ble_diss.c ****                 p_attr   = ble_diss_val.sw_rev;
 212:C:/Users/stapi/OneDrive/Desktop/GD32VW553/V1_MQTT_OK/GD32VW55X_Wifi_BLE_SDK/GD32VW55x_RELEASE_V1.0.2/MSDK/ble/profile/dis\ble_diss.c ****                 attr_len = ble_diss_val.sw_rev_len;
 213:C:/Users/stapi/OneDrive/Desktop/GD32VW553/V1_MQTT_OK/GD32VW55X_Wifi_BLE_SDK/GD32VW55x_RELEASE_V1.0.2/MSDK/ble/profile/dis\ble_diss.c ****             } break;
 214:C:/Users/stapi/OneDrive/Desktop/GD32VW553/V1_MQTT_OK/GD32VW55X_Wifi_BLE_SDK/GD32VW55x_RELEASE_V1.0.2/MSDK/ble/profile/dis\ble_diss.c **** 
 215:C:/Users/stapi/OneDrive/Desktop/GD32VW553/V1_MQTT_OK/GD32VW55X_Wifi_BLE_SDK/GD32VW55x_RELEASE_V1.0.2/MSDK/ble/profile/dis\ble_diss.c ****             case BLE_DIS_HDL_SYSTEM_ID_VAL: {
 216:C:/Users/stapi/OneDrive/Desktop/GD32VW553/V1_MQTT_OK/GD32VW55X_Wifi_BLE_SDK/GD32VW55x_RELEASE_V1.0.2/MSDK/ble/profile/dis\ble_diss.c ****                 p_attr   = ble_diss_val.sys_id;
 217:C:/Users/stapi/OneDrive/Desktop/GD32VW553/V1_MQTT_OK/GD32VW55X_Wifi_BLE_SDK/GD32VW55x_RELEASE_V1.0.2/MSDK/ble/profile/dis\ble_diss.c ****                 attr_len = BLE_DIS_SYS_ID_LEN;
 218:C:/Users/stapi/OneDrive/Desktop/GD32VW553/V1_MQTT_OK/GD32VW55X_Wifi_BLE_SDK/GD32VW55x_RELEASE_V1.0.2/MSDK/ble/profile/dis\ble_diss.c ****             } break;
 219:C:/Users/stapi/OneDrive/Desktop/GD32VW553/V1_MQTT_OK/GD32VW55X_Wifi_BLE_SDK/GD32VW55x_RELEASE_V1.0.2/MSDK/ble/profile/dis\ble_diss.c **** 
 220:C:/Users/stapi/OneDrive/Desktop/GD32VW553/V1_MQTT_OK/GD32VW55X_Wifi_BLE_SDK/GD32VW55x_RELEASE_V1.0.2/MSDK/ble/profile/dis\ble_diss.c ****             case BLE_DIS_HDL_IEEE_VAL: {
 221:C:/Users/stapi/OneDrive/Desktop/GD32VW553/V1_MQTT_OK/GD32VW55X_Wifi_BLE_SDK/GD32VW55x_RELEASE_V1.0.2/MSDK/ble/profile/dis\ble_diss.c ****                 p_attr   = ble_diss_val.ieee_data;
 222:C:/Users/stapi/OneDrive/Desktop/GD32VW553/V1_MQTT_OK/GD32VW55X_Wifi_BLE_SDK/GD32VW55x_RELEASE_V1.0.2/MSDK/ble/profile/dis\ble_diss.c ****                 attr_len = ble_diss_val.ieee_data_len;
 223:C:/Users/stapi/OneDrive/Desktop/GD32VW553/V1_MQTT_OK/GD32VW55X_Wifi_BLE_SDK/GD32VW55x_RELEASE_V1.0.2/MSDK/ble/profile/dis\ble_diss.c ****             } break;
 224:C:/Users/stapi/OneDrive/Desktop/GD32VW553/V1_MQTT_OK/GD32VW55X_Wifi_BLE_SDK/GD32VW55x_RELEASE_V1.0.2/MSDK/ble/profile/dis\ble_diss.c **** 
 225:C:/Users/stapi/OneDrive/Desktop/GD32VW553/V1_MQTT_OK/GD32VW55X_Wifi_BLE_SDK/GD32VW55x_RELEASE_V1.0.2/MSDK/ble/profile/dis\ble_diss.c ****             case BLE_DIS_HDL_PNP_ID_VAL: {
 226:C:/Users/stapi/OneDrive/Desktop/GD32VW553/V1_MQTT_OK/GD32VW55X_Wifi_BLE_SDK/GD32VW55x_RELEASE_V1.0.2/MSDK/ble/profile/dis\ble_diss.c ****                 p_attr   = ble_diss_val.pnp_id;
 227:C:/Users/stapi/OneDrive/Desktop/GD32VW553/V1_MQTT_OK/GD32VW55X_Wifi_BLE_SDK/GD32VW55x_RELEASE_V1.0.2/MSDK/ble/profile/dis\ble_diss.c ****                 attr_len = BLE_DIS_PNP_ID_LEN;
 228:C:/Users/stapi/OneDrive/Desktop/GD32VW553/V1_MQTT_OK/GD32VW55X_Wifi_BLE_SDK/GD32VW55x_RELEASE_V1.0.2/MSDK/ble/profile/dis\ble_diss.c ****             } break;
 229:C:/Users/stapi/OneDrive/Desktop/GD32VW553/V1_MQTT_OK/GD32VW55X_Wifi_BLE_SDK/GD32VW55x_RELEASE_V1.0.2/MSDK/ble/profile/dis\ble_diss.c **** 
 230:C:/Users/stapi/OneDrive/Desktop/GD32VW553/V1_MQTT_OK/GD32VW55X_Wifi_BLE_SDK/GD32VW55x_RELEASE_V1.0.2/MSDK/ble/profile/dis\ble_diss.c ****             default:
 231:C:/Users/stapi/OneDrive/Desktop/GD32VW553/V1_MQTT_OK/GD32VW55X_Wifi_BLE_SDK/GD32VW55x_RELEASE_V1.0.2/MSDK/ble/profile/dis\ble_diss.c ****                 return BLE_ATT_ERR_INVALID_HANDLE;
 232:C:/Users/stapi/OneDrive/Desktop/GD32VW553/V1_MQTT_OK/GD32VW55X_Wifi_BLE_SDK/GD32VW55x_RELEASE_V1.0.2/MSDK/ble/profile/dis\ble_diss.c ****             }
 233:C:/Users/stapi/OneDrive/Desktop/GD32VW553/V1_MQTT_OK/GD32VW55X_Wifi_BLE_SDK/GD32VW55x_RELEASE_V1.0.2/MSDK/ble/profile/dis\ble_diss.c **** 
 234:C:/Users/stapi/OneDrive/Desktop/GD32VW553/V1_MQTT_OK/GD32VW55X_Wifi_BLE_SDK/GD32VW55x_RELEASE_V1.0.2/MSDK/ble/profile/dis\ble_diss.c ****             if (p_read_req->offset > attr_len) {
  83              		.loc 1 234 13 is_stmt 1
  84              		.loc 1 234 27 is_stmt 0
  85 003e 03572501 		lhu	a4,18(a0)
  86              		.loc 1 234 16
  87 0042 63ECE70A 		bgtu	a4,a5,.L17
 235:C:/Users/stapi/OneDrive/Desktop/GD32VW553/V1_MQTT_OK/GD32VW55X_Wifi_BLE_SDK/GD32VW55x_RELEASE_V1.0.2/MSDK/ble/profile/dis\ble_diss.c ****                 return BLE_ATT_ERR_INVALID_OFFSET;
 236:C:/Users/stapi/OneDrive/Desktop/GD32VW553/V1_MQTT_OK/GD32VW55X_Wifi_BLE_SDK/GD32VW55x_RELEASE_V1.0.2/MSDK/ble/profile/dis\ble_diss.c ****             }
 237:C:/Users/stapi/OneDrive/Desktop/GD32VW553/V1_MQTT_OK/GD32VW55X_Wifi_BLE_SDK/GD32VW55x_RELEASE_V1.0.2/MSDK/ble/profile/dis\ble_diss.c **** 
 238:C:/Users/stapi/OneDrive/Desktop/GD32VW553/V1_MQTT_OK/GD32VW55X_Wifi_BLE_SDK/GD32VW55x_RELEASE_V1.0.2/MSDK/ble/profile/dis\ble_diss.c ****             len = ble_min(p_read_req->max_len, attr_len - p_read_req->offset);
  88              		.loc 1 238 13 is_stmt 1
  89              	.LVL4:
  90              	.LBB30:
  91              	.LBB31:
  92              		.file 2 "..\\..\\..\\..\\blesw\\src\\export/ble_utils.h"
   1:..\..\..\..\blesw\src\export/ble_utils.h **** /*!
   2:..\..\..\..\blesw\src\export/ble_utils.h ****     \file    ble_utils.h
   3:..\..\..\..\blesw\src\export/ble_utils.h ****     \brief   Utility Functions and Definitions for BLE.
   4:..\..\..\..\blesw\src\export/ble_utils.h **** 
   5:..\..\..\..\blesw\src\export/ble_utils.h ****     \version 2023-07-20, V1.0.0, firmware for GD32VW55x
   6:..\..\..\..\blesw\src\export/ble_utils.h **** */
   7:..\..\..\..\blesw\src\export/ble_utils.h **** 
   8:..\..\..\..\blesw\src\export/ble_utils.h **** /*
   9:..\..\..\..\blesw\src\export/ble_utils.h ****     Copyright (c) 2023, GigaDevice Semiconductor Inc.
  10:..\..\..\..\blesw\src\export/ble_utils.h **** 
  11:..\..\..\..\blesw\src\export/ble_utils.h ****     Redistribution and use in source and binary forms, with or without modification,
  12:..\..\..\..\blesw\src\export/ble_utils.h **** are permitted provided that the following conditions are met:
  13:..\..\..\..\blesw\src\export/ble_utils.h **** 
  14:..\..\..\..\blesw\src\export/ble_utils.h ****     1. Redistributions of source code must retain the above copyright notice, this
  15:..\..\..\..\blesw\src\export/ble_utils.h ****        list of conditions and the following disclaimer.
  16:..\..\..\..\blesw\src\export/ble_utils.h ****     2. Redistributions in binary form must reproduce the above copyright notice,
  17:..\..\..\..\blesw\src\export/ble_utils.h ****        this list of conditions and the following disclaimer in the documentation
  18:..\..\..\..\blesw\src\export/ble_utils.h ****        and/or other materials provided with the distribution.
  19:..\..\..\..\blesw\src\export/ble_utils.h ****     3. Neither the name of the copyright holder nor the names of its contributors
  20:..\..\..\..\blesw\src\export/ble_utils.h ****        may be used to endorse or promote products derived from this software without
  21:..\..\..\..\blesw\src\export/ble_utils.h ****        specific prior written permission.
  22:..\..\..\..\blesw\src\export/ble_utils.h **** 
  23:..\..\..\..\blesw\src\export/ble_utils.h ****     THIS SOFTWARE IS PROVIDED BY THE COPYRIGHT HOLDERS AND CONTRIBUTORS "AS IS"
  24:..\..\..\..\blesw\src\export/ble_utils.h **** AND ANY EXPRESS OR IMPLIED WARRANTIES, INCLUDING, BUT NOT LIMITED TO, THE IMPLIED
  25:..\..\..\..\blesw\src\export/ble_utils.h **** WARRANTIES OF MERCHANTABILITY AND FITNESS FOR A PARTICULAR PURPOSE ARE DISCLAIMED.
  26:..\..\..\..\blesw\src\export/ble_utils.h **** IN NO EVENT SHALL THE COPYRIGHT HOLDER OR CONTRIBUTORS BE LIABLE FOR ANY DIRECT,
  27:..\..\..\..\blesw\src\export/ble_utils.h **** INDIRECT, INCIDENTAL, SPECIAL, EXEMPLARY, OR CONSEQUENTIAL DAMAGES (INCLUDING, BUT
  28:..\..\..\..\blesw\src\export/ble_utils.h **** NOT LIMITED TO, PROCUREMENT OF SUBSTITUTE GOODS OR SERVICES; LOSS OF USE, DATA, OR
  29:..\..\..\..\blesw\src\export/ble_utils.h **** PROFITS; OR BUSINESS INTERRUPTION) HOWEVER CAUSED AND ON ANY THEORY OF LIABILITY,
  30:..\..\..\..\blesw\src\export/ble_utils.h **** WHETHER IN CONTRACT, STRICT LIABILITY, OR TORT (INCLUDING NEGLIGENCE OR OTHERWISE)
  31:..\..\..\..\blesw\src\export/ble_utils.h **** ARISING IN ANY WAY OUT OF THE USE OF THIS SOFTWARE, EVEN IF ADVISED OF THE POSSIBILITY
  32:..\..\..\..\blesw\src\export/ble_utils.h **** OF SUCH DAMAGE.
  33:..\..\..\..\blesw\src\export/ble_utils.h **** */
  34:..\..\..\..\blesw\src\export/ble_utils.h **** 
  35:..\..\..\..\blesw\src\export/ble_utils.h **** #ifndef _BLE_UTILS_H_
  36:..\..\..\..\blesw\src\export/ble_utils.h **** #define _BLE_UTILS_H_
  37:..\..\..\..\blesw\src\export/ble_utils.h **** 
  38:..\..\..\..\blesw\src\export/ble_utils.h **** #include <stdint.h>
  39:..\..\..\..\blesw\src\export/ble_utils.h **** 
  40:..\..\..\..\blesw\src\export/ble_utils.h **** #include "compiler.h"   // for INLINE
  41:..\..\..\..\blesw\src\export/ble_utils.h **** 
  42:..\..\..\..\blesw\src\export/ble_utils.h **** #ifdef __cplusplus
  43:..\..\..\..\blesw\src\export/ble_utils.h **** extern "C" {
  44:..\..\..\..\blesw\src\export/ble_utils.h **** #endif
  45:..\..\..\..\blesw\src\export/ble_utils.h **** 
  46:..\..\..\..\blesw\src\export/ble_utils.h **** /*!
  47:..\..\..\..\blesw\src\export/ble_utils.h ****     \brief      Macro to return value with one bit set
  48:..\..\..\..\blesw\src\export/ble_utils.h ****     \param[in]  pos: position of the bit to set
  49:..\..\..\..\blesw\src\export/ble_utils.h ****     \param[out] none
  50:..\..\..\..\blesw\src\export/ble_utils.h ****     \retval     The value with one bit set
  51:..\..\..\..\blesw\src\export/ble_utils.h **** */
  52:..\..\..\..\blesw\src\export/ble_utils.h **** #ifndef BIT
  53:..\..\..\..\blesw\src\export/ble_utils.h **** #define BIT(pos)                (1UL << (pos))
  54:..\..\..\..\blesw\src\export/ble_utils.h **** #endif
  55:..\..\..\..\blesw\src\export/ble_utils.h **** 
  56:..\..\..\..\blesw\src\export/ble_utils.h **** /*!
  57:..\..\..\..\blesw\src\export/ble_utils.h ****     \brief      Macro to extract a field from a value containing several fields
  58:..\..\..\..\blesw\src\export/ble_utils.h ****     \param[in]  __r: bit field value
  59:..\..\..\..\blesw\src\export/ble_utils.h ****     \param[in]  __f: field name
  60:..\..\..\..\blesw\src\export/ble_utils.h ****     \param[out] none
  61:..\..\..\..\blesw\src\export/ble_utils.h ****     \retval     The value of the register masked and shifted
  62:..\..\..\..\blesw\src\export/ble_utils.h **** */
  63:..\..\..\..\blesw\src\export/ble_utils.h **** #ifndef GETF
  64:..\..\..\..\blesw\src\export/ble_utils.h **** #define GETF(__r, __f)                                                           \
  65:..\..\..\..\blesw\src\export/ble_utils.h ****     (( (__r) & (__f##_MASK) ) >> (__f##_LSB))
  66:..\..\..\..\blesw\src\export/ble_utils.h **** #endif
  67:..\..\..\..\blesw\src\export/ble_utils.h **** 
  68:..\..\..\..\blesw\src\export/ble_utils.h **** /*!
  69:..\..\..\..\blesw\src\export/ble_utils.h ****     \brief      Macro to set a field value into a value containing several fields
  70:..\..\..\..\blesw\src\export/ble_utils.h ****     \param[in]  __r: bit field value
  71:..\..\..\..\blesw\src\export/ble_utils.h ****     \param[in]  __f: field name
  72:..\..\..\..\blesw\src\export/ble_utils.h ****     \param[in]  __v: value to put in field
  73:..\..\..\..\blesw\src\export/ble_utils.h ****     \param[out] none
  74:..\..\..\..\blesw\src\export/ble_utils.h ****     \retval     none
  75:..\..\..\..\blesw\src\export/ble_utils.h **** */
  76:..\..\..\..\blesw\src\export/ble_utils.h **** #ifndef SETF
  77:..\..\..\..\blesw\src\export/ble_utils.h **** #define SETF(__r, __f, __v)                                                      \
  78:..\..\..\..\blesw\src\export/ble_utils.h ****     do {                                                                         \
  79:..\..\..\..\blesw\src\export/ble_utils.h ****         __r = (((__r) & ~(__f##_MASK)) | (__v) << (__f##_LSB));                  \
  80:..\..\..\..\blesw\src\export/ble_utils.h ****     } while (0)
  81:..\..\..\..\blesw\src\export/ble_utils.h **** #endif
  82:..\..\..\..\blesw\src\export/ble_utils.h **** 
  83:..\..\..\..\blesw\src\export/ble_utils.h **** /*!
  84:..\..\..\..\blesw\src\export/ble_utils.h ****     \brief      Macro to extract a bit from a value containing several fields
  85:..\..\..\..\blesw\src\export/ble_utils.h ****     \param[in]  __r: bit field value
  86:..\..\..\..\blesw\src\export/ble_utils.h ****     \param[in]  __b: bit field name
  87:..\..\..\..\blesw\src\export/ble_utils.h ****     \param[out] none
  88:..\..\..\..\blesw\src\export/ble_utils.h ****     \retval     The value of the register masked and shifted
  89:..\..\..\..\blesw\src\export/ble_utils.h **** */
  90:..\..\..\..\blesw\src\export/ble_utils.h **** #ifndef GETB
  91:..\..\..\..\blesw\src\export/ble_utils.h **** #define GETB(__r, __b)                                                           \
  92:..\..\..\..\blesw\src\export/ble_utils.h ****     (( (__r) & (__b##_BIT) ) >> (__b##_POS))
  93:..\..\..\..\blesw\src\export/ble_utils.h **** #endif
  94:..\..\..\..\blesw\src\export/ble_utils.h **** 
  95:..\..\..\..\blesw\src\export/ble_utils.h **** /*!
  96:..\..\..\..\blesw\src\export/ble_utils.h ****     \brief      Macro to set a bit value into a value containing several fields
  97:..\..\..\..\blesw\src\export/ble_utils.h ****     \param[in]  __r: bit field value
  98:..\..\..\..\blesw\src\export/ble_utils.h ****     \param[in]  __b: bit field name
  99:..\..\..\..\blesw\src\export/ble_utils.h ****     \param[in]  __v: value to put in field
 100:..\..\..\..\blesw\src\export/ble_utils.h ****     \param[out] none
 101:..\..\..\..\blesw\src\export/ble_utils.h ****     \retval     none
 102:..\..\..\..\blesw\src\export/ble_utils.h **** */
 103:..\..\..\..\blesw\src\export/ble_utils.h **** #ifndef SETB
 104:..\..\..\..\blesw\src\export/ble_utils.h **** #define SETB(__r, __b, __v)                                                      \
 105:..\..\..\..\blesw\src\export/ble_utils.h ****     do {                                                                         \
 106:..\..\..\..\blesw\src\export/ble_utils.h ****         __r = (((__r) & ~(__b##_BIT)) | (uint32_t)((__v ? 1 : 0) << (__b##_POS)));  \
 107:..\..\..\..\blesw\src\export/ble_utils.h ****     } while (0)
 108:..\..\..\..\blesw\src\export/ble_utils.h **** #endif
 109:..\..\..\..\blesw\src\export/ble_utils.h **** 
 110:..\..\..\..\blesw\src\export/ble_utils.h **** /*!
 111:..\..\..\..\blesw\src\export/ble_utils.h ****     \brief      Macro to toggle a bit in a value containing several bits
 112:..\..\..\..\blesw\src\export/ble_utils.h ****     \param[in]  __r: bit field value
 113:..\..\..\..\blesw\src\export/ble_utils.h ****     \param[in]  __b: bit field name
 114:..\..\..\..\blesw\src\export/ble_utils.h ****     \param[out] none
 115:..\..\..\..\blesw\src\export/ble_utils.h ****     \retval     none
 116:..\..\..\..\blesw\src\export/ble_utils.h **** */
 117:..\..\..\..\blesw\src\export/ble_utils.h **** #ifndef TOGB
 118:..\..\..\..\blesw\src\export/ble_utils.h **** #define TOGB(__r, __b)                                                           \
 119:..\..\..\..\blesw\src\export/ble_utils.h ****     do {                                                                         \
 120:..\..\..\..\blesw\src\export/ble_utils.h ****         __r = ((__r) ^ (__b##_BIT));                                             \
 121:..\..\..\..\blesw\src\export/ble_utils.h ****     } while (0)
 122:..\..\..\..\blesw\src\export/ble_utils.h **** #endif
 123:..\..\..\..\blesw\src\export/ble_utils.h **** 
 124:..\..\..\..\blesw\src\export/ble_utils.h **** /* Get the number of elements within an array, give also number of rows in a 2-D array */
 125:..\..\..\..\blesw\src\export/ble_utils.h **** #ifndef ARRAY_LEN
 126:..\..\..\..\blesw\src\export/ble_utils.h **** #define ARRAY_LEN(array)   (sizeof((array)) / sizeof((array)[0]))
 127:..\..\..\..\blesw\src\export/ble_utils.h **** #endif
 128:..\..\..\..\blesw\src\export/ble_utils.h **** 
 129:..\..\..\..\blesw\src\export/ble_utils.h **** /*!
 130:..\..\..\..\blesw\src\export/ble_utils.h ****     \brief      Read an aligned 32 bits word
 131:..\..\..\..\blesw\src\export/ble_utils.h ****     \param[in]  ptr32: the address of the first byte of the 32 bits word
 132:..\..\..\..\blesw\src\export/ble_utils.h ****     \param[out] none
 133:..\..\..\..\blesw\src\export/ble_utils.h ****     \retval     uint32_t: the 32 bits value
 134:..\..\..\..\blesw\src\export/ble_utils.h **** */
 135:..\..\..\..\blesw\src\export/ble_utils.h **** __INLINE uint32_t ble_read32(void const *ptr32)
 136:..\..\..\..\blesw\src\export/ble_utils.h **** {
 137:..\..\..\..\blesw\src\export/ble_utils.h ****     return *((uint32_t *)ptr32);
 138:..\..\..\..\blesw\src\export/ble_utils.h **** }
 139:..\..\..\..\blesw\src\export/ble_utils.h **** 
 140:..\..\..\..\blesw\src\export/ble_utils.h **** /*!
 141:..\..\..\..\blesw\src\export/ble_utils.h ****     \brief      Read an aligned 16 bits word
 142:..\..\..\..\blesw\src\export/ble_utils.h ****     \param[in]  ptr16: the address of the first byte of the 16 bits word
 143:..\..\..\..\blesw\src\export/ble_utils.h ****     \param[out] none
 144:..\..\..\..\blesw\src\export/ble_utils.h ****     \retval     uint16_t: the 16 bits value
 145:..\..\..\..\blesw\src\export/ble_utils.h **** */
 146:..\..\..\..\blesw\src\export/ble_utils.h **** __INLINE uint16_t ble_read16(void const *ptr16)
 147:..\..\..\..\blesw\src\export/ble_utils.h **** {
 148:..\..\..\..\blesw\src\export/ble_utils.h ****     return *((uint16_t *)ptr16);
 149:..\..\..\..\blesw\src\export/ble_utils.h **** }
 150:..\..\..\..\blesw\src\export/ble_utils.h **** 
 151:..\..\..\..\blesw\src\export/ble_utils.h **** /*!
 152:..\..\..\..\blesw\src\export/ble_utils.h ****     \brief      Write an aligned 32 bits word
 153:..\..\..\..\blesw\src\export/ble_utils.h ****     \param[in]  ptr32: the address of the first byte of the 32 bits word
 154:..\..\..\..\blesw\src\export/ble_utils.h ****     \param[in]  value: the value to write
 155:..\..\..\..\blesw\src\export/ble_utils.h ****     \param[out] none
 156:..\..\..\..\blesw\src\export/ble_utils.h ****     \retval     none
 157:..\..\..\..\blesw\src\export/ble_utils.h **** */
 158:..\..\..\..\blesw\src\export/ble_utils.h **** __INLINE void ble_write32(void const *ptr32, uint32_t value)
 159:..\..\..\..\blesw\src\export/ble_utils.h **** {
 160:..\..\..\..\blesw\src\export/ble_utils.h ****     *(uint32_t *)ptr32 = value;
 161:..\..\..\..\blesw\src\export/ble_utils.h **** }
 162:..\..\..\..\blesw\src\export/ble_utils.h **** 
 163:..\..\..\..\blesw\src\export/ble_utils.h **** /*!
 164:..\..\..\..\blesw\src\export/ble_utils.h ****     \brief      Write an aligned 16 bits word
 165:..\..\..\..\blesw\src\export/ble_utils.h ****     \param[in]  ptr16: the address of the first byte of the 16 bits word
 166:..\..\..\..\blesw\src\export/ble_utils.h ****     \param[in]  value: the value to write
 167:..\..\..\..\blesw\src\export/ble_utils.h ****     \param[out] none
 168:..\..\..\..\blesw\src\export/ble_utils.h ****     \retval     none
 169:..\..\..\..\blesw\src\export/ble_utils.h **** */
 170:..\..\..\..\blesw\src\export/ble_utils.h **** __INLINE void ble_write16(void const *ptr16, uint32_t value)
 171:..\..\..\..\blesw\src\export/ble_utils.h **** {
 172:..\..\..\..\blesw\src\export/ble_utils.h ****     *(uint16_t *)ptr16 = value;
 173:..\..\..\..\blesw\src\export/ble_utils.h **** }
 174:..\..\..\..\blesw\src\export/ble_utils.h **** 
 175:..\..\..\..\blesw\src\export/ble_utils.h **** /*!
 176:..\..\..\..\blesw\src\export/ble_utils.h ****     \brief      Write a 8 bits word
 177:..\..\..\..\blesw\src\export/ble_utils.h ****     \param[in]  ptr8: the address of the first byte of the 8 bits word
 178:..\..\..\..\blesw\src\export/ble_utils.h ****     \param[in]  value: the value to write
 179:..\..\..\..\blesw\src\export/ble_utils.h ****     \param[out] none
 180:..\..\..\..\blesw\src\export/ble_utils.h ****     \retval     none
 181:..\..\..\..\blesw\src\export/ble_utils.h **** */
 182:..\..\..\..\blesw\src\export/ble_utils.h **** __INLINE void ble_write8(void const *ptr8, uint32_t value)
 183:..\..\..\..\blesw\src\export/ble_utils.h **** {
 184:..\..\..\..\blesw\src\export/ble_utils.h ****     *(uint8_t *)ptr8 = value;
 185:..\..\..\..\blesw\src\export/ble_utils.h **** }
 186:..\..\..\..\blesw\src\export/ble_utils.h **** 
 187:..\..\..\..\blesw\src\export/ble_utils.h **** /*!
 188:..\..\..\..\blesw\src\export/ble_utils.h ****     \brief      Read a packed 16 bits word
 189:..\..\..\..\blesw\src\export/ble_utils.h ****     \param[in]  ptr16: the address of the first byte of the 16 bits word
 190:..\..\..\..\blesw\src\export/ble_utils.h ****     \param[out] none
 191:..\..\..\..\blesw\src\export/ble_utils.h ****     \retval     uint16_t: the 16 bits value
 192:..\..\..\..\blesw\src\export/ble_utils.h **** */
 193:..\..\..\..\blesw\src\export/ble_utils.h **** __INLINE uint16_t ble_read16p(void const *ptr16)
 194:..\..\..\..\blesw\src\export/ble_utils.h **** {
 195:..\..\..\..\blesw\src\export/ble_utils.h ****     uint16_t value = ((uint8_t const volatile *)ptr16)[0] | ((uint8_t const volatile *)ptr16)[1] <<
 196:..\..\..\..\blesw\src\export/ble_utils.h ****     return value;
 197:..\..\..\..\blesw\src\export/ble_utils.h **** }
 198:..\..\..\..\blesw\src\export/ble_utils.h **** 
 199:..\..\..\..\blesw\src\export/ble_utils.h **** /*!
 200:..\..\..\..\blesw\src\export/ble_utils.h ****     \brief      Read a packed 24 bits word
 201:..\..\..\..\blesw\src\export/ble_utils.h ****     \param[in]  ptr24: the address of the first byte of the 24 bits word
 202:..\..\..\..\blesw\src\export/ble_utils.h ****     \param[out] none
 203:..\..\..\..\blesw\src\export/ble_utils.h ****     \retval     uint32_t: the 24 bits value
 204:..\..\..\..\blesw\src\export/ble_utils.h **** */
 205:..\..\..\..\blesw\src\export/ble_utils.h **** __INLINE uint32_t ble_read24p(void const *ptr24)
 206:..\..\..\..\blesw\src\export/ble_utils.h **** {
 207:..\..\..\..\blesw\src\export/ble_utils.h ****     uint16_t addr_l, addr_h;
 208:..\..\..\..\blesw\src\export/ble_utils.h ****     addr_l = ble_read16p(ptr24);
 209:..\..\..\..\blesw\src\export/ble_utils.h ****     addr_h = *((uint8_t const volatile *)ptr24 + 2) & 0x00FF;
 210:..\..\..\..\blesw\src\export/ble_utils.h ****     return ((uint32_t)addr_l | (uint32_t)addr_h << 16);
 211:..\..\..\..\blesw\src\export/ble_utils.h **** }
 212:..\..\..\..\blesw\src\export/ble_utils.h **** 
 213:..\..\..\..\blesw\src\export/ble_utils.h **** /*!
 214:..\..\..\..\blesw\src\export/ble_utils.h ****     \brief      Write a packed 24 bits word
 215:..\..\..\..\blesw\src\export/ble_utils.h ****     \param[in]  ptr24: the address of the first byte of the 24 bits word
 216:..\..\..\..\blesw\src\export/ble_utils.h ****     \param[in]  value: the value to write
 217:..\..\..\..\blesw\src\export/ble_utils.h ****     \param[out] none
 218:..\..\..\..\blesw\src\export/ble_utils.h ****     \retval     none
 219:..\..\..\..\blesw\src\export/ble_utils.h **** */
 220:..\..\..\..\blesw\src\export/ble_utils.h **** __INLINE void ble_write24p(void const *ptr24, uint32_t value)
 221:..\..\..\..\blesw\src\export/ble_utils.h **** {
 222:..\..\..\..\blesw\src\export/ble_utils.h ****     uint8_t volatile *ptr=(uint8_t*)ptr24;
 223:..\..\..\..\blesw\src\export/ble_utils.h **** 
 224:..\..\..\..\blesw\src\export/ble_utils.h ****     *ptr++ = (uint8_t)(value & 0xff);
 225:..\..\..\..\blesw\src\export/ble_utils.h ****     *ptr++ = (uint8_t)((value & 0xff00) >> 8);
 226:..\..\..\..\blesw\src\export/ble_utils.h ****     *ptr++ = (uint8_t)((value & 0xff0000) >> 16);
 227:..\..\..\..\blesw\src\export/ble_utils.h **** }
 228:..\..\..\..\blesw\src\export/ble_utils.h **** 
 229:..\..\..\..\blesw\src\export/ble_utils.h **** /*!
 230:..\..\..\..\blesw\src\export/ble_utils.h ****     \brief      Read a packed 32 bits word
 231:..\..\..\..\blesw\src\export/ble_utils.h ****     \param[in]  ptr32: the address of the first byte of the 32 bits word
 232:..\..\..\..\blesw\src\export/ble_utils.h ****     \param[out] none
 233:..\..\..\..\blesw\src\export/ble_utils.h ****     \retval     uint32_t: the 32 bits value
 234:..\..\..\..\blesw\src\export/ble_utils.h **** */
 235:..\..\..\..\blesw\src\export/ble_utils.h **** __INLINE uint32_t ble_read32p(void const *ptr32)
 236:..\..\..\..\blesw\src\export/ble_utils.h **** {
 237:..\..\..\..\blesw\src\export/ble_utils.h ****     uint16_t addr_l, addr_h;
 238:..\..\..\..\blesw\src\export/ble_utils.h ****     addr_l = ble_read16p(ptr32);
 239:..\..\..\..\blesw\src\export/ble_utils.h ****     addr_h = ble_read16p((uint8_t *)ptr32 + 2);
 240:..\..\..\..\blesw\src\export/ble_utils.h ****     return ((uint32_t)addr_l | (uint32_t)addr_h << 16);
 241:..\..\..\..\blesw\src\export/ble_utils.h **** }
 242:..\..\..\..\blesw\src\export/ble_utils.h **** 
 243:..\..\..\..\blesw\src\export/ble_utils.h **** /*!
 244:..\..\..\..\blesw\src\export/ble_utils.h ****     \brief      Write a packed 32 bits word
 245:..\..\..\..\blesw\src\export/ble_utils.h ****     \param[in]  ptr32: the address of the first byte of the 32 bits word
 246:..\..\..\..\blesw\src\export/ble_utils.h ****     \param[in]  value: the value to write
 247:..\..\..\..\blesw\src\export/ble_utils.h ****     \param[out] none
 248:..\..\..\..\blesw\src\export/ble_utils.h ****     \retval     none
 249:..\..\..\..\blesw\src\export/ble_utils.h **** */
 250:..\..\..\..\blesw\src\export/ble_utils.h **** __INLINE void ble_write32p(void const *ptr32, uint32_t value)
 251:..\..\..\..\blesw\src\export/ble_utils.h **** {
 252:..\..\..\..\blesw\src\export/ble_utils.h ****     uint8_t volatile *ptr=(uint8_t *)ptr32;
 253:..\..\..\..\blesw\src\export/ble_utils.h **** 
 254:..\..\..\..\blesw\src\export/ble_utils.h ****     *ptr++ = (uint8_t)(value & 0xff);
 255:..\..\..\..\blesw\src\export/ble_utils.h ****     *ptr++ = (uint8_t)((value & 0xff00) >> 8);
 256:..\..\..\..\blesw\src\export/ble_utils.h ****     *ptr++ = (uint8_t)((value & 0xff0000) >> 16);
 257:..\..\..\..\blesw\src\export/ble_utils.h ****     *ptr = (uint8_t)((value & 0xff000000) >> 24);
 258:..\..\..\..\blesw\src\export/ble_utils.h **** }
 259:..\..\..\..\blesw\src\export/ble_utils.h **** 
 260:..\..\..\..\blesw\src\export/ble_utils.h **** /*!
 261:..\..\..\..\blesw\src\export/ble_utils.h ****     \brief      Write a packed 16 bits word
 262:..\..\..\..\blesw\src\export/ble_utils.h ****     \param[in]  ptr16: the address of the first byte of the 16 bits word
 263:..\..\..\..\blesw\src\export/ble_utils.h ****     \param[in]  value: the value to write
 264:..\..\..\..\blesw\src\export/ble_utils.h ****     \param[out] none
 265:..\..\..\..\blesw\src\export/ble_utils.h ****     \retval     none
 266:..\..\..\..\blesw\src\export/ble_utils.h **** */
 267:..\..\..\..\blesw\src\export/ble_utils.h **** __INLINE void ble_write16p(void const *ptr16, uint16_t value)
 268:..\..\..\..\blesw\src\export/ble_utils.h **** {
 269:..\..\..\..\blesw\src\export/ble_utils.h ****     uint8_t volatile *ptr=(uint8_t *)ptr16;
 270:..\..\..\..\blesw\src\export/ble_utils.h **** 
 271:..\..\..\..\blesw\src\export/ble_utils.h ****     *ptr++ = value & 0xff;
 272:..\..\..\..\blesw\src\export/ble_utils.h ****     *ptr = (value & 0xff00)>>8;
 273:..\..\..\..\blesw\src\export/ble_utils.h **** }
 274:..\..\..\..\blesw\src\export/ble_utils.h **** 
 275:..\..\..\..\blesw\src\export/ble_utils.h **** /*!
 276:..\..\..\..\blesw\src\export/ble_utils.h ****     \brief      Function to return the smallest of 2 unsigned 32 bits words
 277:..\..\..\..\blesw\src\export/ble_utils.h ****     \param[in]  a: unsigned 32 bits word to compare
 278:..\..\..\..\blesw\src\export/ble_utils.h ****     \param[in]  b: unsigned 32 bits word to compare
 279:..\..\..\..\blesw\src\export/ble_utils.h ****     \param[out] none
 280:..\..\..\..\blesw\src\export/ble_utils.h ****     \retval     uint32_t: the smallest value
 281:..\..\..\..\blesw\src\export/ble_utils.h **** */
 282:..\..\..\..\blesw\src\export/ble_utils.h **** __INLINE uint32_t ble_min(uint32_t a, uint32_t b)
 283:..\..\..\..\blesw\src\export/ble_utils.h **** {
 284:..\..\..\..\blesw\src\export/ble_utils.h ****     return a < b ? a : b;
  93              		.loc 2 284 5
  94              	.LBE31:
  95              	.LBE30:
  96              		.loc 1 238 19 is_stmt 0
  97 0046 03566501 		lhu	a2,22(a0)
  98              	.LVL5:
  99              		.loc 1 238 57
 100 004a 998F     		sub	a5,a5,a4
 101              	.LVL6:
 102              	.LBB33:
 103              	.LBB32:
 104              		.loc 2 284 22
 105 004c 3356F60A 		minu	a2,a2,a5
 106              	.LVL7:
 107              	.LBE32:
 108              	.LBE33:
 239:C:/Users/stapi/OneDrive/Desktop/GD32VW553/V1_MQTT_OK/GD32VW55X_Wifi_BLE_SDK/GD32VW55x_RELEASE_V1.0.2/MSDK/ble/profile/dis\ble_diss.c ****             p_read_req->val_len = len;
 109              		.loc 1 239 13 is_stmt 1
 238:C:/Users/stapi/OneDrive/Desktop/GD32VW553/V1_MQTT_OK/GD32VW55X_Wifi_BLE_SDK/GD32VW55x_RELEASE_V1.0.2/MSDK/ble/profile/dis\ble_diss.c ****             p_read_req->val_len = len;
 110              		.loc 1 238 17 is_stmt 0
 111 0050 231CC500 		sh	a2,24(a0)
 240:C:/Users/stapi/OneDrive/Desktop/GD32VW553/V1_MQTT_OK/GD32VW55X_Wifi_BLE_SDK/GD32VW55x_RELEASE_V1.0.2/MSDK/ble/profile/dis\ble_diss.c ****             sys_memcpy(p_read_req->p_val, p_attr, len);
 112              		.loc 1 240 13 is_stmt 1
 113 0054 484D     		lw	a0,28(a0)
 114              	.LVL8:
 115 0056 97000000 		call	sys_memcpy
 115      E7800000 
 116              	.LVL9:
 117              	.L1:
 118              	.LBE29:
 119              	.LBE28:
 120              	.LBE27:
 241:C:/Users/stapi/OneDrive/Desktop/GD32VW553/V1_MQTT_OK/GD32VW55X_Wifi_BLE_SDK/GD32VW55x_RELEASE_V1.0.2/MSDK/ble/profile/dis\ble_diss.c ****         }
 242:C:/Users/stapi/OneDrive/Desktop/GD32VW553/V1_MQTT_OK/GD32VW55X_Wifi_BLE_SDK/GD32VW55x_RELEASE_V1.0.2/MSDK/ble/profile/dis\ble_diss.c ****     }
 243:C:/Users/stapi/OneDrive/Desktop/GD32VW553/V1_MQTT_OK/GD32VW55X_Wifi_BLE_SDK/GD32VW55x_RELEASE_V1.0.2/MSDK/ble/profile/dis\ble_diss.c **** 
 244:C:/Users/stapi/OneDrive/Desktop/GD32VW553/V1_MQTT_OK/GD32VW55X_Wifi_BLE_SDK/GD32VW55x_RELEASE_V1.0.2/MSDK/ble/profile/dis\ble_diss.c ****     return BLE_ERR_NO_ERROR;
 245:C:/Users/stapi/OneDrive/Desktop/GD32VW553/V1_MQTT_OK/GD32VW55X_Wifi_BLE_SDK/GD32VW55x_RELEASE_V1.0.2/MSDK/ble/profile/dis\ble_diss.c **** }
 121              		.loc 1 245 1 is_stmt 0
 122 005e 2285     		mv	a0,s0
 123 0060 17030000 		tail	__riscv_restore_1
 123      67000300 
 124              		.cfi_remember_state
 125              		.cfi_restore 8
 126              		.cfi_restore 1
 127              		.cfi_def_cfa_offset 0
 128              	.LVL10:
 129              	.L12:
 130              		.cfi_restore_state
 131              	.LBB38:
 132              	.LBB36:
 133              	.LBB34:
 186:C:/Users/stapi/OneDrive/Desktop/GD32VW553/V1_MQTT_OK/GD32VW55X_Wifi_BLE_SDK/GD32VW55x_RELEASE_V1.0.2/MSDK/ble/profile/dis\ble_diss.c ****                 attr_len = ble_diss_val.manufact_name_len;
 134              		.loc 1 186 17 is_stmt 1
 187:C:/Users/stapi/OneDrive/Desktop/GD32VW553/V1_MQTT_OK/GD32VW55X_Wifi_BLE_SDK/GD32VW55x_RELEASE_V1.0.2/MSDK/ble/profile/dis\ble_diss.c ****             } break;
 135              		.loc 1 187 17
 187:C:/Users/stapi/OneDrive/Desktop/GD32VW553/V1_MQTT_OK/GD32VW55X_Wifi_BLE_SDK/GD32VW55x_RELEASE_V1.0.2/MSDK/ble/profile/dis\ble_diss.c ****             } break;
 136              		.loc 1 187 26 is_stmt 0
 137 0068 B7050000 		lui	a1,%hi(.LANCHOR0)
 138 006c 93870500 		addi	a5,a1,%lo(.LANCHOR0)
 139 0070 83C7F701 		lbu	a5,31(a5)
 140              	.LVL11:
 188:C:/Users/stapi/OneDrive/Desktop/GD32VW553/V1_MQTT_OK/GD32VW55X_Wifi_BLE_SDK/GD32VW55x_RELEASE_V1.0.2/MSDK/ble/profile/dis\ble_diss.c **** 
 141              		.loc 1 188 15 is_stmt 1
 186:C:/Users/stapi/OneDrive/Desktop/GD32VW553/V1_MQTT_OK/GD32VW55X_Wifi_BLE_SDK/GD32VW55x_RELEASE_V1.0.2/MSDK/ble/profile/dis\ble_diss.c ****                 attr_len = ble_diss_val.manufact_name_len;
 142              		.loc 1 186 26 is_stmt 0
 143 0074 93850500 		addi	a1,a1,%lo(.LANCHOR0)
 188:C:/Users/stapi/OneDrive/Desktop/GD32VW553/V1_MQTT_OK/GD32VW55X_Wifi_BLE_SDK/GD32VW55x_RELEASE_V1.0.2/MSDK/ble/profile/dis\ble_diss.c **** 
 144              		.loc 1 188 13
 145 0078 D9B7     		j	.L6
 146              	.LVL12:
 147              	.L11:
 191:C:/Users/stapi/OneDrive/Desktop/GD32VW553/V1_MQTT_OK/GD32VW55X_Wifi_BLE_SDK/GD32VW55x_RELEASE_V1.0.2/MSDK/ble/profile/dis\ble_diss.c ****                 attr_len = ble_diss_val.model_num_len;
 148              		.loc 1 191 17 is_stmt 1
 192:C:/Users/stapi/OneDrive/Desktop/GD32VW553/V1_MQTT_OK/GD32VW55X_Wifi_BLE_SDK/GD32VW55x_RELEASE_V1.0.2/MSDK/ble/profile/dis\ble_diss.c ****             } break;
 149              		.loc 1 192 17
 192:C:/Users/stapi/OneDrive/Desktop/GD32VW553/V1_MQTT_OK/GD32VW55X_Wifi_BLE_SDK/GD32VW55x_RELEASE_V1.0.2/MSDK/ble/profile/dis\ble_diss.c ****             } break;
 150              		.loc 1 192 26 is_stmt 0
 151 007a B7050000 		lui	a1,%hi(.LANCHOR0)
 152 007e 93850500 		addi	a1,a1,%lo(.LANCHOR0)
 153 0082 83C7F503 		lbu	a5,63(a1)
 154              	.LVL13:
 193:C:/Users/stapi/OneDrive/Desktop/GD32VW553/V1_MQTT_OK/GD32VW55X_Wifi_BLE_SDK/GD32VW55x_RELEASE_V1.0.2/MSDK/ble/profile/dis\ble_diss.c **** 
 155              		.loc 1 193 15 is_stmt 1
 191:C:/Users/stapi/OneDrive/Desktop/GD32VW553/V1_MQTT_OK/GD32VW55X_Wifi_BLE_SDK/GD32VW55x_RELEASE_V1.0.2/MSDK/ble/profile/dis\ble_diss.c ****                 attr_len = ble_diss_val.model_num_len;
 156              		.loc 1 191 26 is_stmt 0
 157 0086 93850502 		addi	a1,a1,32
 193:C:/Users/stapi/OneDrive/Desktop/GD32VW553/V1_MQTT_OK/GD32VW55X_Wifi_BLE_SDK/GD32VW55x_RELEASE_V1.0.2/MSDK/ble/profile/dis\ble_diss.c **** 
 158              		.loc 1 193 13
 159 008a 55BF     		j	.L6
 160              	.LVL14:
 161              	.L10:
 196:C:/Users/stapi/OneDrive/Desktop/GD32VW553/V1_MQTT_OK/GD32VW55X_Wifi_BLE_SDK/GD32VW55x_RELEASE_V1.0.2/MSDK/ble/profile/dis\ble_diss.c ****                 attr_len = ble_diss_val.serial_num_len;
 162              		.loc 1 196 17 is_stmt 1
 197:C:/Users/stapi/OneDrive/Desktop/GD32VW553/V1_MQTT_OK/GD32VW55X_Wifi_BLE_SDK/GD32VW55x_RELEASE_V1.0.2/MSDK/ble/profile/dis\ble_diss.c ****             } break;
 163              		.loc 1 197 17
 197:C:/Users/stapi/OneDrive/Desktop/GD32VW553/V1_MQTT_OK/GD32VW55X_Wifi_BLE_SDK/GD32VW55x_RELEASE_V1.0.2/MSDK/ble/profile/dis\ble_diss.c ****             } break;
 164              		.loc 1 197 26 is_stmt 0
 165 008c B7050000 		lui	a1,%hi(.LANCHOR0)
 166 0090 93850500 		addi	a1,a1,%lo(.LANCHOR0)
 167 0094 83C7F505 		lbu	a5,95(a1)
 168              	.LVL15:
 198:C:/Users/stapi/OneDrive/Desktop/GD32VW553/V1_MQTT_OK/GD32VW55X_Wifi_BLE_SDK/GD32VW55x_RELEASE_V1.0.2/MSDK/ble/profile/dis\ble_diss.c **** 
 169              		.loc 1 198 15 is_stmt 1
 196:C:/Users/stapi/OneDrive/Desktop/GD32VW553/V1_MQTT_OK/GD32VW55X_Wifi_BLE_SDK/GD32VW55x_RELEASE_V1.0.2/MSDK/ble/profile/dis\ble_diss.c ****                 attr_len = ble_diss_val.serial_num_len;
 170              		.loc 1 196 26 is_stmt 0
 171 0098 93850504 		addi	a1,a1,64
 198:C:/Users/stapi/OneDrive/Desktop/GD32VW553/V1_MQTT_OK/GD32VW55X_Wifi_BLE_SDK/GD32VW55x_RELEASE_V1.0.2/MSDK/ble/profile/dis\ble_diss.c **** 
 172              		.loc 1 198 13
 173 009c 4DB7     		j	.L6
 174              	.LVL16:
 175              	.L9:
 201:C:/Users/stapi/OneDrive/Desktop/GD32VW553/V1_MQTT_OK/GD32VW55X_Wifi_BLE_SDK/GD32VW55x_RELEASE_V1.0.2/MSDK/ble/profile/dis\ble_diss.c ****                 attr_len = ble_diss_val.hw_rev_len;
 176              		.loc 1 201 17 is_stmt 1
 202:C:/Users/stapi/OneDrive/Desktop/GD32VW553/V1_MQTT_OK/GD32VW55X_Wifi_BLE_SDK/GD32VW55x_RELEASE_V1.0.2/MSDK/ble/profile/dis\ble_diss.c ****             } break;
 177              		.loc 1 202 17
 202:C:/Users/stapi/OneDrive/Desktop/GD32VW553/V1_MQTT_OK/GD32VW55X_Wifi_BLE_SDK/GD32VW55x_RELEASE_V1.0.2/MSDK/ble/profile/dis\ble_diss.c ****             } break;
 178              		.loc 1 202 26 is_stmt 0
 179 009e B7050000 		lui	a1,%hi(.LANCHOR0)
 180 00a2 93850500 		addi	a1,a1,%lo(.LANCHOR0)
 181 00a6 83C7F507 		lbu	a5,127(a1)
 182              	.LVL17:
 203:C:/Users/stapi/OneDrive/Desktop/GD32VW553/V1_MQTT_OK/GD32VW55X_Wifi_BLE_SDK/GD32VW55x_RELEASE_V1.0.2/MSDK/ble/profile/dis\ble_diss.c **** 
 183              		.loc 1 203 15 is_stmt 1
 201:C:/Users/stapi/OneDrive/Desktop/GD32VW553/V1_MQTT_OK/GD32VW55X_Wifi_BLE_SDK/GD32VW55x_RELEASE_V1.0.2/MSDK/ble/profile/dis\ble_diss.c ****                 attr_len = ble_diss_val.hw_rev_len;
 184              		.loc 1 201 26 is_stmt 0
 185 00aa 93850506 		addi	a1,a1,96
 203:C:/Users/stapi/OneDrive/Desktop/GD32VW553/V1_MQTT_OK/GD32VW55X_Wifi_BLE_SDK/GD32VW55x_RELEASE_V1.0.2/MSDK/ble/profile/dis\ble_diss.c **** 
 186              		.loc 1 203 13
 187 00ae 41BF     		j	.L6
 188              	.LVL18:
 189              	.L8:
 206:C:/Users/stapi/OneDrive/Desktop/GD32VW553/V1_MQTT_OK/GD32VW55X_Wifi_BLE_SDK/GD32VW55x_RELEASE_V1.0.2/MSDK/ble/profile/dis\ble_diss.c ****                 attr_len = ble_diss_val.fw_rev_len;
 190              		.loc 1 206 17 is_stmt 1
 207:C:/Users/stapi/OneDrive/Desktop/GD32VW553/V1_MQTT_OK/GD32VW55X_Wifi_BLE_SDK/GD32VW55x_RELEASE_V1.0.2/MSDK/ble/profile/dis\ble_diss.c ****             } break;
 191              		.loc 1 207 17
 207:C:/Users/stapi/OneDrive/Desktop/GD32VW553/V1_MQTT_OK/GD32VW55X_Wifi_BLE_SDK/GD32VW55x_RELEASE_V1.0.2/MSDK/ble/profile/dis\ble_diss.c ****             } break;
 192              		.loc 1 207 26 is_stmt 0
 193 00b0 B7050000 		lui	a1,%hi(.LANCHOR0)
 194 00b4 93850500 		addi	a1,a1,%lo(.LANCHOR0)
 195 00b8 83C7F509 		lbu	a5,159(a1)
 196              	.LVL19:
 208:C:/Users/stapi/OneDrive/Desktop/GD32VW553/V1_MQTT_OK/GD32VW55X_Wifi_BLE_SDK/GD32VW55x_RELEASE_V1.0.2/MSDK/ble/profile/dis\ble_diss.c **** 
 197              		.loc 1 208 15 is_stmt 1
 206:C:/Users/stapi/OneDrive/Desktop/GD32VW553/V1_MQTT_OK/GD32VW55X_Wifi_BLE_SDK/GD32VW55x_RELEASE_V1.0.2/MSDK/ble/profile/dis\ble_diss.c ****                 attr_len = ble_diss_val.fw_rev_len;
 198              		.loc 1 206 26 is_stmt 0
 199 00bc 93850508 		addi	a1,a1,128
 208:C:/Users/stapi/OneDrive/Desktop/GD32VW553/V1_MQTT_OK/GD32VW55X_Wifi_BLE_SDK/GD32VW55x_RELEASE_V1.0.2/MSDK/ble/profile/dis\ble_diss.c **** 
 200              		.loc 1 208 13
 201 00c0 BDBF     		j	.L6
 202              	.LVL20:
 203              	.L7:
 211:C:/Users/stapi/OneDrive/Desktop/GD32VW553/V1_MQTT_OK/GD32VW55X_Wifi_BLE_SDK/GD32VW55x_RELEASE_V1.0.2/MSDK/ble/profile/dis\ble_diss.c ****                 attr_len = ble_diss_val.sw_rev_len;
 204              		.loc 1 211 17 is_stmt 1
 212:C:/Users/stapi/OneDrive/Desktop/GD32VW553/V1_MQTT_OK/GD32VW55X_Wifi_BLE_SDK/GD32VW55x_RELEASE_V1.0.2/MSDK/ble/profile/dis\ble_diss.c ****             } break;
 205              		.loc 1 212 17
 212:C:/Users/stapi/OneDrive/Desktop/GD32VW553/V1_MQTT_OK/GD32VW55X_Wifi_BLE_SDK/GD32VW55x_RELEASE_V1.0.2/MSDK/ble/profile/dis\ble_diss.c ****             } break;
 206              		.loc 1 212 26 is_stmt 0
 207 00c2 B7050000 		lui	a1,%hi(.LANCHOR0)
 208 00c6 93850500 		addi	a1,a1,%lo(.LANCHOR0)
 209 00ca 83C7F50B 		lbu	a5,191(a1)
 210              	.LVL21:
 213:C:/Users/stapi/OneDrive/Desktop/GD32VW553/V1_MQTT_OK/GD32VW55X_Wifi_BLE_SDK/GD32VW55x_RELEASE_V1.0.2/MSDK/ble/profile/dis\ble_diss.c **** 
 211              		.loc 1 213 15 is_stmt 1
 211:C:/Users/stapi/OneDrive/Desktop/GD32VW553/V1_MQTT_OK/GD32VW55X_Wifi_BLE_SDK/GD32VW55x_RELEASE_V1.0.2/MSDK/ble/profile/dis\ble_diss.c ****                 attr_len = ble_diss_val.sw_rev_len;
 212              		.loc 1 211 26 is_stmt 0
 213 00ce 9385050A 		addi	a1,a1,160
 213:C:/Users/stapi/OneDrive/Desktop/GD32VW553/V1_MQTT_OK/GD32VW55X_Wifi_BLE_SDK/GD32VW55x_RELEASE_V1.0.2/MSDK/ble/profile/dis\ble_diss.c **** 
 214              		.loc 1 213 13
 215 00d2 B5B7     		j	.L6
 216              	.LVL22:
 217              	.L5:
 221:C:/Users/stapi/OneDrive/Desktop/GD32VW553/V1_MQTT_OK/GD32VW55X_Wifi_BLE_SDK/GD32VW55x_RELEASE_V1.0.2/MSDK/ble/profile/dis\ble_diss.c ****                 attr_len = ble_diss_val.ieee_data_len;
 218              		.loc 1 221 17 is_stmt 1
 222:C:/Users/stapi/OneDrive/Desktop/GD32VW553/V1_MQTT_OK/GD32VW55X_Wifi_BLE_SDK/GD32VW55x_RELEASE_V1.0.2/MSDK/ble/profile/dis\ble_diss.c ****             } break;
 219              		.loc 1 222 17
 222:C:/Users/stapi/OneDrive/Desktop/GD32VW553/V1_MQTT_OK/GD32VW55X_Wifi_BLE_SDK/GD32VW55x_RELEASE_V1.0.2/MSDK/ble/profile/dis\ble_diss.c ****             } break;
 220              		.loc 1 222 26 is_stmt 0
 221 00d4 B7050000 		lui	a1,%hi(.LANCHOR0)
 222 00d8 93850500 		addi	a1,a1,%lo(.LANCHOR0)
 223 00dc 83C7750E 		lbu	a5,231(a1)
 224              	.LVL23:
 223:C:/Users/stapi/OneDrive/Desktop/GD32VW553/V1_MQTT_OK/GD32VW55X_Wifi_BLE_SDK/GD32VW55x_RELEASE_V1.0.2/MSDK/ble/profile/dis\ble_diss.c **** 
 225              		.loc 1 223 15 is_stmt 1
 221:C:/Users/stapi/OneDrive/Desktop/GD32VW553/V1_MQTT_OK/GD32VW55X_Wifi_BLE_SDK/GD32VW55x_RELEASE_V1.0.2/MSDK/ble/profile/dis\ble_diss.c ****                 attr_len = ble_diss_val.ieee_data_len;
 226              		.loc 1 221 26 is_stmt 0
 227 00e0 9385850C 		addi	a1,a1,200
 223:C:/Users/stapi/OneDrive/Desktop/GD32VW553/V1_MQTT_OK/GD32VW55X_Wifi_BLE_SDK/GD32VW55x_RELEASE_V1.0.2/MSDK/ble/profile/dis\ble_diss.c **** 
 228              		.loc 1 223 13
 229 00e4 A9BF     		j	.L6
 230              	.LVL24:
 231              	.L16:
 216:C:/Users/stapi/OneDrive/Desktop/GD32VW553/V1_MQTT_OK/GD32VW55X_Wifi_BLE_SDK/GD32VW55x_RELEASE_V1.0.2/MSDK/ble/profile/dis\ble_diss.c ****                 attr_len = BLE_DIS_SYS_ID_LEN;
 232              		.loc 1 216 26
 233 00e6 B7050000 		lui	a1,%hi(.LANCHOR0+192)
 234 00ea 9385050C 		addi	a1,a1,%lo(.LANCHOR0+192)
 217:C:/Users/stapi/OneDrive/Desktop/GD32VW553/V1_MQTT_OK/GD32VW55X_Wifi_BLE_SDK/GD32VW55x_RELEASE_V1.0.2/MSDK/ble/profile/dis\ble_diss.c ****             } break;
 235              		.loc 1 217 26
 236 00ee A147     		li	a5,8
 237 00f0 B9B7     		j	.L6
 238              	.LVL25:
 239              	.L14:
 240              	.LBE34:
 241              	.LBE36:
 242              	.LBE38:
 244:C:/Users/stapi/OneDrive/Desktop/GD32VW553/V1_MQTT_OK/GD32VW55X_Wifi_BLE_SDK/GD32VW55x_RELEASE_V1.0.2/MSDK/ble/profile/dis\ble_diss.c **** }
 243              		.loc 1 244 12
 244 00f2 0144     		li	s0,0
 245 00f4 ADB7     		j	.L1
 246              	.LVL26:
 247              	.L15:
 248              	.LBB39:
 249              	.LBB37:
 250              	.LBB35:
 183:C:/Users/stapi/OneDrive/Desktop/GD32VW553/V1_MQTT_OK/GD32VW55X_Wifi_BLE_SDK/GD32VW55x_RELEASE_V1.0.2/MSDK/ble/profile/dis\ble_diss.c ****             switch (attr_idx) {
 251              		.loc 1 183 22
 252 00f6 0544     		li	s0,1
 253 00f8 9DB7     		j	.L1
 254              	.LVL27:
 255              	.L17:
 235:C:/Users/stapi/OneDrive/Desktop/GD32VW553/V1_MQTT_OK/GD32VW55X_Wifi_BLE_SDK/GD32VW55x_RELEASE_V1.0.2/MSDK/ble/profile/dis\ble_diss.c ****             }
 256              		.loc 1 235 24
 257 00fa 1D44     		li	s0,7
 258              	.LVL28:
 259 00fc 8DB7     		j	.L1
 260              	.LBE35:
 261              	.LBE37:
 262              	.LBE39:
 263              		.cfi_endproc
 264              	.LFE19:
 266              		.section	.text.ble_diss_init,"ax",@progbits
 267              		.align	1
 268              		.globl	ble_diss_init
 270              	ble_diss_init:
 271              	.LFB20:
 246:C:/Users/stapi/OneDrive/Desktop/GD32VW553/V1_MQTT_OK/GD32VW55X_Wifi_BLE_SDK/GD32VW55x_RELEASE_V1.0.2/MSDK/ble/profile/dis\ble_diss.c **** 
 247:C:/Users/stapi/OneDrive/Desktop/GD32VW553/V1_MQTT_OK/GD32VW55X_Wifi_BLE_SDK/GD32VW55x_RELEASE_V1.0.2/MSDK/ble/profile/dis\ble_diss.c **** /*!
 248:C:/Users/stapi/OneDrive/Desktop/GD32VW553/V1_MQTT_OK/GD32VW55X_Wifi_BLE_SDK/GD32VW55x_RELEASE_V1.0.2/MSDK/ble/profile/dis\ble_diss.c ****     \brief      Init Device Information Service Server
 249:C:/Users/stapi/OneDrive/Desktop/GD32VW553/V1_MQTT_OK/GD32VW55X_Wifi_BLE_SDK/GD32VW55x_RELEASE_V1.0.2/MSDK/ble/profile/dis\ble_diss.c ****     \param[in]  p_param: pointer to Device Information Service init parameters
 250:C:/Users/stapi/OneDrive/Desktop/GD32VW553/V1_MQTT_OK/GD32VW55X_Wifi_BLE_SDK/GD32VW55x_RELEASE_V1.0.2/MSDK/ble/profile/dis\ble_diss.c ****     \param[out] none
 251:C:/Users/stapi/OneDrive/Desktop/GD32VW553/V1_MQTT_OK/GD32VW55X_Wifi_BLE_SDK/GD32VW55x_RELEASE_V1.0.2/MSDK/ble/profile/dis\ble_diss.c ****     \retval     ble_status_t: BLE_ERR_NO_ERROR on success, otherwise an error code
 252:C:/Users/stapi/OneDrive/Desktop/GD32VW553/V1_MQTT_OK/GD32VW55X_Wifi_BLE_SDK/GD32VW55x_RELEASE_V1.0.2/MSDK/ble/profile/dis\ble_diss.c **** */
 253:C:/Users/stapi/OneDrive/Desktop/GD32VW553/V1_MQTT_OK/GD32VW55X_Wifi_BLE_SDK/GD32VW55x_RELEASE_V1.0.2/MSDK/ble/profile/dis\ble_diss.c **** ble_status_t ble_diss_init(ble_diss_init_param_t *p_param)
 254:C:/Users/stapi/OneDrive/Desktop/GD32VW553/V1_MQTT_OK/GD32VW55X_Wifi_BLE_SDK/GD32VW55x_RELEASE_V1.0.2/MSDK/ble/profile/dis\ble_diss.c **** {
 272              		.loc 1 254 1 is_stmt 1
 273              		.cfi_startproc
 274              	.LVL29:
 275 0000 17030000 		call	t0,__riscv_save_2
 275      E7020300 
 276              		.cfi_offset 9, -12
 277              		.cfi_offset 8, -8
 278              		.cfi_offset 1, -4
 279              		.cfi_def_cfa_offset 16
 255:C:/Users/stapi/OneDrive/Desktop/GD32VW553/V1_MQTT_OK/GD32VW55X_Wifi_BLE_SDK/GD32VW55x_RELEASE_V1.0.2/MSDK/ble/profile/dis\ble_diss.c ****     ble_status_t ret = BLE_ERR_NO_ERROR;
 280              		.loc 1 255 5
 281              	.LVL30:
 256:C:/Users/stapi/OneDrive/Desktop/GD32VW553/V1_MQTT_OK/GD32VW55X_Wifi_BLE_SDK/GD32VW55x_RELEASE_V1.0.2/MSDK/ble/profile/dis\ble_diss.c **** 
 257:C:/Users/stapi/OneDrive/Desktop/GD32VW553/V1_MQTT_OK/GD32VW55X_Wifi_BLE_SDK/GD32VW55x_RELEASE_V1.0.2/MSDK/ble/profile/dis\ble_diss.c ****     if (p_param == NULL) {
 282              		.loc 1 257 5
 258:C:/Users/stapi/OneDrive/Desktop/GD32VW553/V1_MQTT_OK/GD32VW55X_Wifi_BLE_SDK/GD32VW55x_RELEASE_V1.0.2/MSDK/ble/profile/dis\ble_diss.c ****         return BLE_PRF_ERR_INVALID_PARAM;
 283              		.loc 1 258 16 is_stmt 0
 284 0008 93041008 		li	s1,129
 257:C:/Users/stapi/OneDrive/Desktop/GD32VW553/V1_MQTT_OK/GD32VW55X_Wifi_BLE_SDK/GD32VW55x_RELEASE_V1.0.2/MSDK/ble/profile/dis\ble_diss.c ****         return BLE_PRF_ERR_INVALID_PARAM;
 285              		.loc 1 257 8
 286 000c 6308051A 		beq	a0,zero,.L19
 259:C:/Users/stapi/OneDrive/Desktop/GD32VW553/V1_MQTT_OK/GD32VW55X_Wifi_BLE_SDK/GD32VW55x_RELEASE_V1.0.2/MSDK/ble/profile/dis\ble_diss.c ****     }
 260:C:/Users/stapi/OneDrive/Desktop/GD32VW553/V1_MQTT_OK/GD32VW55X_Wifi_BLE_SDK/GD32VW55x_RELEASE_V1.0.2/MSDK/ble/profile/dis\ble_diss.c **** 
 261:C:/Users/stapi/OneDrive/Desktop/GD32VW553/V1_MQTT_OK/GD32VW55X_Wifi_BLE_SDK/GD32VW55x_RELEASE_V1.0.2/MSDK/ble/profile/dis\ble_diss.c ****     ret = ble_gatts_svc_add(&ble_diss_svc_id, ble_dis_uuid, 0, SVC_UUID(16) | SVC_SEC_LVL_VAL(p_par
 287              		.loc 1 261 11
 288 0010 3441     		lw	a3,64(a0)
 289 0012 2A84     		mv	s0,a0
 290              		.loc 1 261 5 is_stmt 1
 291              		.loc 1 261 11 is_stmt 0
 292 0014 37080000 		lui	a6,%hi(ble_diss_srv_cb)
 293 0018 37070000 		lui	a4,%hi(.LANCHOR1)
 294 001c B7050000 		lui	a1,%hi(.LANCHOR2)
 295 0020 37050000 		lui	a0,%hi(.LANCHOR3)
 296              	.LVL31:
 297 0024 13080800 		addi	a6,a6,%lo(ble_diss_srv_cb)
 298 0028 CD47     		li	a5,19
 299 002a 13070700 		addi	a4,a4,%lo(.LANCHOR1)
 300 002e 8D8A     		andi	a3,a3,3
 301 0030 0146     		li	a2,0
 302 0032 93850500 		addi	a1,a1,%lo(.LANCHOR2)
 303 0036 13050500 		addi	a0,a0,%lo(.LANCHOR3)
 304 003a 97000000 		call	ble_gatts_svc_add
 304      E7800000 
 305              	.LVL32:
 306 0042 AA84     		mv	s1,a0
 307              	.LVL33:
 262:C:/Users/stapi/OneDrive/Desktop/GD32VW553/V1_MQTT_OK/GD32VW55X_Wifi_BLE_SDK/GD32VW55x_RELEASE_V1.0.2/MSDK/ble/profile/dis\ble_diss.c ****                             ble_diss_attr_db, BLE_DIS_HDL_NB, ble_diss_srv_cb);
 263:C:/Users/stapi/OneDrive/Desktop/GD32VW553/V1_MQTT_OK/GD32VW55X_Wifi_BLE_SDK/GD32VW55x_RELEASE_V1.0.2/MSDK/ble/profile/dis\ble_diss.c **** 
 264:C:/Users/stapi/OneDrive/Desktop/GD32VW553/V1_MQTT_OK/GD32VW55X_Wifi_BLE_SDK/GD32VW55x_RELEASE_V1.0.2/MSDK/ble/profile/dis\ble_diss.c ****     if (ret != BLE_ERR_NO_ERROR) {
 308              		.loc 1 264 5 is_stmt 1
 309              		.loc 1 264 8 is_stmt 0
 310 0044 631C0516 		bne	a0,zero,.L19
 265:C:/Users/stapi/OneDrive/Desktop/GD32VW553/V1_MQTT_OK/GD32VW55X_Wifi_BLE_SDK/GD32VW55x_RELEASE_V1.0.2/MSDK/ble/profile/dis\ble_diss.c ****         return ret;
 266:C:/Users/stapi/OneDrive/Desktop/GD32VW553/V1_MQTT_OK/GD32VW55X_Wifi_BLE_SDK/GD32VW55x_RELEASE_V1.0.2/MSDK/ble/profile/dis\ble_diss.c ****     }
 267:C:/Users/stapi/OneDrive/Desktop/GD32VW553/V1_MQTT_OK/GD32VW55X_Wifi_BLE_SDK/GD32VW55x_RELEASE_V1.0.2/MSDK/ble/profile/dis\ble_diss.c **** 
 268:C:/Users/stapi/OneDrive/Desktop/GD32VW553/V1_MQTT_OK/GD32VW55X_Wifi_BLE_SDK/GD32VW55x_RELEASE_V1.0.2/MSDK/ble/profile/dis\ble_diss.c ****     if (p_param->manufact_name.len) {
 311              		.loc 1 268 5 is_stmt 1
 312              		.loc 1 268 31 is_stmt 0
 313 0048 03564400 		lhu	a2,4(s0)
 314              		.loc 1 268 8
 315 004c 0DC2     		beq	a2,zero,.L21
 269:C:/Users/stapi/OneDrive/Desktop/GD32VW553/V1_MQTT_OK/GD32VW55X_Wifi_BLE_SDK/GD32VW55x_RELEASE_V1.0.2/MSDK/ble/profile/dis\ble_diss.c ****         ble_diss_val.manufact_name_len = ble_min(p_param->manufact_name.len, BLE_DIS_VAL_MAX_LEN);
 316              		.loc 1 269 9 is_stmt 1
 317              	.LVL34:
 318              	.LBB40:
 319              	.LBB41:
 320              		.loc 2 284 5
 321              		.loc 2 284 22 is_stmt 0
 322 004e FD47     		li	a5,31
 323              	.LBE41:
 324              	.LBE40:
 325              		.loc 1 269 40
 326 0050 37050000 		lui	a0,%hi(.LANCHOR0)
 327              	.LBB43:
 328              	.LBB42:
 329              		.loc 2 284 22
 330 0054 3356F60A 		minu	a2,a2,a5
 331              	.LVL35:
 332              	.LBE42:
 333              	.LBE43:
 334              		.loc 1 269 40
 335 0058 93070500 		addi	a5,a0,%lo(.LANCHOR0)
 336 005c A38FC700 		sb	a2,31(a5)
 270:C:/Users/stapi/OneDrive/Desktop/GD32VW553/V1_MQTT_OK/GD32VW55X_Wifi_BLE_SDK/GD32VW55x_RELEASE_V1.0.2/MSDK/ble/profile/dis\ble_diss.c ****         sys_memcpy(ble_diss_val.manufact_name, p_param->manufact_name.p_data, ble_diss_val.manufact
 337              		.loc 1 270 9 is_stmt 1
 338 0060 0C40     		lw	a1,0(s0)
 339 0062 13050500 		addi	a0,a0,%lo(.LANCHOR0)
 340 0066 97000000 		call	sys_memcpy
 340      E7800000 
 341              	.LVL36:
 342              	.L21:
 271:C:/Users/stapi/OneDrive/Desktop/GD32VW553/V1_MQTT_OK/GD32VW55X_Wifi_BLE_SDK/GD32VW55x_RELEASE_V1.0.2/MSDK/ble/profile/dis\ble_diss.c ****     }
 272:C:/Users/stapi/OneDrive/Desktop/GD32VW553/V1_MQTT_OK/GD32VW55X_Wifi_BLE_SDK/GD32VW55x_RELEASE_V1.0.2/MSDK/ble/profile/dis\ble_diss.c **** 
 273:C:/Users/stapi/OneDrive/Desktop/GD32VW553/V1_MQTT_OK/GD32VW55X_Wifi_BLE_SDK/GD32VW55x_RELEASE_V1.0.2/MSDK/ble/profile/dis\ble_diss.c ****     if (p_param->model_num.len) {
 343              		.loc 1 273 5
 344              		.loc 1 273 27 is_stmt 0
 345 006e 0356C400 		lhu	a2,12(s0)
 346              		.loc 1 273 8
 347 0072 0DC2     		beq	a2,zero,.L22
 274:C:/Users/stapi/OneDrive/Desktop/GD32VW553/V1_MQTT_OK/GD32VW55X_Wifi_BLE_SDK/GD32VW55x_RELEASE_V1.0.2/MSDK/ble/profile/dis\ble_diss.c ****         ble_diss_val.model_num_len = ble_min(p_param->model_num.len, BLE_DIS_VAL_MAX_LEN);
 348              		.loc 1 274 9 is_stmt 1
 349              	.LVL37:
 350              	.LBB44:
 351              	.LBB45:
 352              		.loc 2 284 5
 353              	.LBE45:
 354              	.LBE44:
 355              		.loc 1 274 36 is_stmt 0
 356 0074 37050000 		lui	a0,%hi(.LANCHOR0)
 357 0078 13050500 		addi	a0,a0,%lo(.LANCHOR0)
 358              	.LBB47:
 359              	.LBB46:
 360              		.loc 2 284 22
 361 007c FD47     		li	a5,31
 362 007e 3356F60A 		minu	a2,a2,a5
 363              	.LVL38:
 364              	.LBE46:
 365              	.LBE47:
 366              		.loc 1 274 36
 367 0082 A30FC502 		sb	a2,63(a0)
 275:C:/Users/stapi/OneDrive/Desktop/GD32VW553/V1_MQTT_OK/GD32VW55X_Wifi_BLE_SDK/GD32VW55x_RELEASE_V1.0.2/MSDK/ble/profile/dis\ble_diss.c ****         sys_memcpy(ble_diss_val.model_num, p_param->model_num.p_data, ble_diss_val.model_num_len);
 368              		.loc 1 275 9 is_stmt 1
 369 0086 0C44     		lw	a1,8(s0)
 370 0088 13050502 		addi	a0,a0,32
 371 008c 97000000 		call	sys_memcpy
 371      E7800000 
 372              	.LVL39:
 373              	.L22:
 276:C:/Users/stapi/OneDrive/Desktop/GD32VW553/V1_MQTT_OK/GD32VW55X_Wifi_BLE_SDK/GD32VW55x_RELEASE_V1.0.2/MSDK/ble/profile/dis\ble_diss.c ****     }
 277:C:/Users/stapi/OneDrive/Desktop/GD32VW553/V1_MQTT_OK/GD32VW55X_Wifi_BLE_SDK/GD32VW55x_RELEASE_V1.0.2/MSDK/ble/profile/dis\ble_diss.c **** 
 278:C:/Users/stapi/OneDrive/Desktop/GD32VW553/V1_MQTT_OK/GD32VW55X_Wifi_BLE_SDK/GD32VW55x_RELEASE_V1.0.2/MSDK/ble/profile/dis\ble_diss.c ****     if (p_param->serial_num.len) {
 374              		.loc 1 278 5
 375              		.loc 1 278 28 is_stmt 0
 376 0094 03564401 		lhu	a2,20(s0)
 377              		.loc 1 278 8
 378 0098 0DC2     		beq	a2,zero,.L23
 279:C:/Users/stapi/OneDrive/Desktop/GD32VW553/V1_MQTT_OK/GD32VW55X_Wifi_BLE_SDK/GD32VW55x_RELEASE_V1.0.2/MSDK/ble/profile/dis\ble_diss.c ****         ble_diss_val.serial_num_len = ble_min(p_param->serial_num.len, BLE_DIS_VAL_MAX_LEN);
 379              		.loc 1 279 9 is_stmt 1
 380              	.LVL40:
 381              	.LBB48:
 382              	.LBB49:
 383              		.loc 2 284 5
 384              	.LBE49:
 385              	.LBE48:
 386              		.loc 1 279 37 is_stmt 0
 387 009a 37050000 		lui	a0,%hi(.LANCHOR0)
 388 009e 13050500 		addi	a0,a0,%lo(.LANCHOR0)
 389              	.LBB51:
 390              	.LBB50:
 391              		.loc 2 284 22
 392 00a2 FD47     		li	a5,31
 393 00a4 3356F60A 		minu	a2,a2,a5
 394              	.LVL41:
 395              	.LBE50:
 396              	.LBE51:
 397              		.loc 1 279 37
 398 00a8 A30FC504 		sb	a2,95(a0)
 280:C:/Users/stapi/OneDrive/Desktop/GD32VW553/V1_MQTT_OK/GD32VW55X_Wifi_BLE_SDK/GD32VW55x_RELEASE_V1.0.2/MSDK/ble/profile/dis\ble_diss.c ****         sys_memcpy(ble_diss_val.serial_num, p_param->serial_num.p_data, ble_diss_val.serial_num_len
 399              		.loc 1 280 9 is_stmt 1
 400 00ac 0C48     		lw	a1,16(s0)
 401 00ae 13050504 		addi	a0,a0,64
 402 00b2 97000000 		call	sys_memcpy
 402      E7800000 
 403              	.LVL42:
 404              	.L23:
 281:C:/Users/stapi/OneDrive/Desktop/GD32VW553/V1_MQTT_OK/GD32VW55X_Wifi_BLE_SDK/GD32VW55x_RELEASE_V1.0.2/MSDK/ble/profile/dis\ble_diss.c ****     }
 282:C:/Users/stapi/OneDrive/Desktop/GD32VW553/V1_MQTT_OK/GD32VW55X_Wifi_BLE_SDK/GD32VW55x_RELEASE_V1.0.2/MSDK/ble/profile/dis\ble_diss.c **** 
 283:C:/Users/stapi/OneDrive/Desktop/GD32VW553/V1_MQTT_OK/GD32VW55X_Wifi_BLE_SDK/GD32VW55x_RELEASE_V1.0.2/MSDK/ble/profile/dis\ble_diss.c ****     if (p_param->hw_rev.len) {
 405              		.loc 1 283 5
 406              		.loc 1 283 24 is_stmt 0
 407 00ba 0356C401 		lhu	a2,28(s0)
 408              		.loc 1 283 8
 409 00be 0DC2     		beq	a2,zero,.L24
 284:C:/Users/stapi/OneDrive/Desktop/GD32VW553/V1_MQTT_OK/GD32VW55X_Wifi_BLE_SDK/GD32VW55x_RELEASE_V1.0.2/MSDK/ble/profile/dis\ble_diss.c ****         ble_diss_val.hw_rev_len = ble_min(p_param->hw_rev.len, BLE_DIS_VAL_MAX_LEN);
 410              		.loc 1 284 9 is_stmt 1
 411              	.LVL43:
 412              	.LBB52:
 413              	.LBB53:
 414              		.loc 2 284 5
 415              	.LBE53:
 416              	.LBE52:
 417              		.loc 1 284 33 is_stmt 0
 418 00c0 37050000 		lui	a0,%hi(.LANCHOR0)
 419 00c4 13050500 		addi	a0,a0,%lo(.LANCHOR0)
 420              	.LBB55:
 421              	.LBB54:
 422              		.loc 2 284 22
 423 00c8 FD47     		li	a5,31
 424 00ca 3356F60A 		minu	a2,a2,a5
 425              	.LVL44:
 426              	.LBE54:
 427              	.LBE55:
 428              		.loc 1 284 33
 429 00ce A30FC506 		sb	a2,127(a0)
 285:C:/Users/stapi/OneDrive/Desktop/GD32VW553/V1_MQTT_OK/GD32VW55X_Wifi_BLE_SDK/GD32VW55x_RELEASE_V1.0.2/MSDK/ble/profile/dis\ble_diss.c ****         sys_memcpy(ble_diss_val.hw_rev, p_param->hw_rev.p_data, ble_diss_val.hw_rev_len);
 430              		.loc 1 285 9 is_stmt 1
 431 00d2 0C4C     		lw	a1,24(s0)
 432 00d4 13050506 		addi	a0,a0,96
 433 00d8 97000000 		call	sys_memcpy
 433      E7800000 
 434              	.LVL45:
 435              	.L24:
 286:C:/Users/stapi/OneDrive/Desktop/GD32VW553/V1_MQTT_OK/GD32VW55X_Wifi_BLE_SDK/GD32VW55x_RELEASE_V1.0.2/MSDK/ble/profile/dis\ble_diss.c ****     }
 287:C:/Users/stapi/OneDrive/Desktop/GD32VW553/V1_MQTT_OK/GD32VW55X_Wifi_BLE_SDK/GD32VW55x_RELEASE_V1.0.2/MSDK/ble/profile/dis\ble_diss.c **** 
 288:C:/Users/stapi/OneDrive/Desktop/GD32VW553/V1_MQTT_OK/GD32VW55X_Wifi_BLE_SDK/GD32VW55x_RELEASE_V1.0.2/MSDK/ble/profile/dis\ble_diss.c ****     if (p_param->fw_rev.len) {
 436              		.loc 1 288 5
 437              		.loc 1 288 24 is_stmt 0
 438 00e0 03564402 		lhu	a2,36(s0)
 439              		.loc 1 288 8
 440 00e4 0DC2     		beq	a2,zero,.L25
 289:C:/Users/stapi/OneDrive/Desktop/GD32VW553/V1_MQTT_OK/GD32VW55X_Wifi_BLE_SDK/GD32VW55x_RELEASE_V1.0.2/MSDK/ble/profile/dis\ble_diss.c ****         ble_diss_val.fw_rev_len = ble_min(p_param->fw_rev.len, BLE_DIS_VAL_MAX_LEN);
 441              		.loc 1 289 9 is_stmt 1
 442              	.LVL46:
 443              	.LBB56:
 444              	.LBB57:
 445              		.loc 2 284 5
 446              	.LBE57:
 447              	.LBE56:
 448              		.loc 1 289 33 is_stmt 0
 449 00e6 37050000 		lui	a0,%hi(.LANCHOR0)
 450 00ea 13050500 		addi	a0,a0,%lo(.LANCHOR0)
 451              	.LBB59:
 452              	.LBB58:
 453              		.loc 2 284 22
 454 00ee FD47     		li	a5,31
 455 00f0 3356F60A 		minu	a2,a2,a5
 456              	.LVL47:
 457              	.LBE58:
 458              	.LBE59:
 459              		.loc 1 289 33
 460 00f4 A30FC508 		sb	a2,159(a0)
 290:C:/Users/stapi/OneDrive/Desktop/GD32VW553/V1_MQTT_OK/GD32VW55X_Wifi_BLE_SDK/GD32VW55x_RELEASE_V1.0.2/MSDK/ble/profile/dis\ble_diss.c ****         sys_memcpy(ble_diss_val.fw_rev, p_param->fw_rev.p_data, ble_diss_val.fw_rev_len);
 461              		.loc 1 290 9 is_stmt 1
 462 00f8 0C50     		lw	a1,32(s0)
 463 00fa 13050508 		addi	a0,a0,128
 464 00fe 97000000 		call	sys_memcpy
 464      E7800000 
 465              	.LVL48:
 466              	.L25:
 291:C:/Users/stapi/OneDrive/Desktop/GD32VW553/V1_MQTT_OK/GD32VW55X_Wifi_BLE_SDK/GD32VW55x_RELEASE_V1.0.2/MSDK/ble/profile/dis\ble_diss.c ****     }
 292:C:/Users/stapi/OneDrive/Desktop/GD32VW553/V1_MQTT_OK/GD32VW55X_Wifi_BLE_SDK/GD32VW55x_RELEASE_V1.0.2/MSDK/ble/profile/dis\ble_diss.c **** 
 293:C:/Users/stapi/OneDrive/Desktop/GD32VW553/V1_MQTT_OK/GD32VW55X_Wifi_BLE_SDK/GD32VW55x_RELEASE_V1.0.2/MSDK/ble/profile/dis\ble_diss.c ****     if (p_param->sw_rev.len) {
 467              		.loc 1 293 5
 468              		.loc 1 293 24 is_stmt 0
 469 0106 0356C402 		lhu	a2,44(s0)
 470              		.loc 1 293 8
 471 010a 0DC2     		beq	a2,zero,.L26
 294:C:/Users/stapi/OneDrive/Desktop/GD32VW553/V1_MQTT_OK/GD32VW55X_Wifi_BLE_SDK/GD32VW55x_RELEASE_V1.0.2/MSDK/ble/profile/dis\ble_diss.c ****         ble_diss_val.sw_rev_len = ble_min(p_param->sw_rev.len, BLE_DIS_VAL_MAX_LEN);
 472              		.loc 1 294 9 is_stmt 1
 473              	.LVL49:
 474              	.LBB60:
 475              	.LBB61:
 476              		.loc 2 284 5
 477              	.LBE61:
 478              	.LBE60:
 479              		.loc 1 294 33 is_stmt 0
 480 010c 37050000 		lui	a0,%hi(.LANCHOR0)
 481 0110 13050500 		addi	a0,a0,%lo(.LANCHOR0)
 482              	.LBB63:
 483              	.LBB62:
 484              		.loc 2 284 22
 485 0114 FD47     		li	a5,31
 486 0116 3356F60A 		minu	a2,a2,a5
 487              	.LVL50:
 488              	.LBE62:
 489              	.LBE63:
 490              		.loc 1 294 33
 491 011a A30FC50A 		sb	a2,191(a0)
 295:C:/Users/stapi/OneDrive/Desktop/GD32VW553/V1_MQTT_OK/GD32VW55X_Wifi_BLE_SDK/GD32VW55x_RELEASE_V1.0.2/MSDK/ble/profile/dis\ble_diss.c ****         sys_memcpy(ble_diss_val.sw_rev, p_param->sw_rev.p_data, ble_diss_val.sw_rev_len);
 492              		.loc 1 295 9 is_stmt 1
 493 011e 0C54     		lw	a1,40(s0)
 494 0120 1305050A 		addi	a0,a0,160
 495 0124 97000000 		call	sys_memcpy
 495      E7800000 
 496              	.LVL51:
 497              	.L26:
 296:C:/Users/stapi/OneDrive/Desktop/GD32VW553/V1_MQTT_OK/GD32VW55X_Wifi_BLE_SDK/GD32VW55x_RELEASE_V1.0.2/MSDK/ble/profile/dis\ble_diss.c ****     }
 297:C:/Users/stapi/OneDrive/Desktop/GD32VW553/V1_MQTT_OK/GD32VW55X_Wifi_BLE_SDK/GD32VW55x_RELEASE_V1.0.2/MSDK/ble/profile/dis\ble_diss.c **** 
 298:C:/Users/stapi/OneDrive/Desktop/GD32VW553/V1_MQTT_OK/GD32VW55X_Wifi_BLE_SDK/GD32VW55x_RELEASE_V1.0.2/MSDK/ble/profile/dis\ble_diss.c ****     if (p_param->ieee_data.len) {
 498              		.loc 1 298 5
 499              		.loc 1 298 27 is_stmt 0
 500 012c 03564403 		lhu	a2,52(s0)
 501              		.loc 1 298 8
 502 0130 0DC2     		beq	a2,zero,.L27
 299:C:/Users/stapi/OneDrive/Desktop/GD32VW553/V1_MQTT_OK/GD32VW55X_Wifi_BLE_SDK/GD32VW55x_RELEASE_V1.0.2/MSDK/ble/profile/dis\ble_diss.c ****         ble_diss_val.ieee_data_len = ble_min(p_param->ieee_data.len, BLE_DIS_VAL_MAX_LEN);
 503              		.loc 1 299 9 is_stmt 1
 504              	.LVL52:
 505              	.LBB64:
 506              	.LBB65:
 507              		.loc 2 284 5
 508              	.LBE65:
 509              	.LBE64:
 510              		.loc 1 299 36 is_stmt 0
 511 0132 37050000 		lui	a0,%hi(.LANCHOR0)
 512 0136 13050500 		addi	a0,a0,%lo(.LANCHOR0)
 513              	.LBB67:
 514              	.LBB66:
 515              		.loc 2 284 22
 516 013a FD47     		li	a5,31
 517 013c 3356F60A 		minu	a2,a2,a5
 518              	.LVL53:
 519              	.LBE66:
 520              	.LBE67:
 521              		.loc 1 299 36
 522 0140 A303C50E 		sb	a2,231(a0)
 300:C:/Users/stapi/OneDrive/Desktop/GD32VW553/V1_MQTT_OK/GD32VW55X_Wifi_BLE_SDK/GD32VW55x_RELEASE_V1.0.2/MSDK/ble/profile/dis\ble_diss.c ****         sys_memcpy(ble_diss_val.ieee_data, p_param->ieee_data.p_data, ble_diss_val.ieee_data_len);
 523              		.loc 1 300 9 is_stmt 1
 524 0144 0C58     		lw	a1,48(s0)
 525 0146 1305850C 		addi	a0,a0,200
 526 014a 97000000 		call	sys_memcpy
 526      E7800000 
 527              	.LVL54:
 528              	.L27:
 301:C:/Users/stapi/OneDrive/Desktop/GD32VW553/V1_MQTT_OK/GD32VW55X_Wifi_BLE_SDK/GD32VW55x_RELEASE_V1.0.2/MSDK/ble/profile/dis\ble_diss.c ****     }
 302:C:/Users/stapi/OneDrive/Desktop/GD32VW553/V1_MQTT_OK/GD32VW55X_Wifi_BLE_SDK/GD32VW55x_RELEASE_V1.0.2/MSDK/ble/profile/dis\ble_diss.c **** 
 303:C:/Users/stapi/OneDrive/Desktop/GD32VW553/V1_MQTT_OK/GD32VW55X_Wifi_BLE_SDK/GD32VW55x_RELEASE_V1.0.2/MSDK/ble/profile/dis\ble_diss.c ****     if (p_param->p_sys_id) {
 529              		.loc 1 303 5
 530              		.loc 1 303 16 is_stmt 0
 531 0152 185C     		lw	a4,56(s0)
 532              		.loc 1 303 8
 533 0154 0DC7     		beq	a4,zero,.L28
 304:C:/Users/stapi/OneDrive/Desktop/GD32VW553/V1_MQTT_OK/GD32VW55X_Wifi_BLE_SDK/GD32VW55x_RELEASE_V1.0.2/MSDK/ble/profile/dis\ble_diss.c ****         ble_diss_val.sys_id[0] = (p_param->p_sys_id->manufact_id & 0x00000000FF);
 534              		.loc 1 304 9 is_stmt 1
 535              		.loc 1 304 52 is_stmt 0
 536 0156 5443     		lw	a3,4(a4)
 305:C:/Users/stapi/OneDrive/Desktop/GD32VW553/V1_MQTT_OK/GD32VW55X_Wifi_BLE_SDK/GD32VW55x_RELEASE_V1.0.2/MSDK/ble/profile/dis\ble_diss.c ****         ble_diss_val.sys_id[1] = (p_param->p_sys_id->manufact_id & 0x000000FF00) >> 8;
 537              		.loc 1 305 9 is_stmt 1
 306:C:/Users/stapi/OneDrive/Desktop/GD32VW553/V1_MQTT_OK/GD32VW55X_Wifi_BLE_SDK/GD32VW55x_RELEASE_V1.0.2/MSDK/ble/profile/dis\ble_diss.c ****         ble_diss_val.sys_id[2] = (p_param->p_sys_id->manufact_id & 0x0000FF0000) >> 16;
 538              		.loc 1 306 9
 307:C:/Users/stapi/OneDrive/Desktop/GD32VW553/V1_MQTT_OK/GD32VW55X_Wifi_BLE_SDK/GD32VW55x_RELEASE_V1.0.2/MSDK/ble/profile/dis\ble_diss.c ****         ble_diss_val.sys_id[3] = (p_param->p_sys_id->manufact_id & 0x00FF000000) >> 24;
 539              		.loc 1 307 9
 540 0158 1043     		lw	a2,0(a4)
 304:C:/Users/stapi/OneDrive/Desktop/GD32VW553/V1_MQTT_OK/GD32VW55X_Wifi_BLE_SDK/GD32VW55x_RELEASE_V1.0.2/MSDK/ble/profile/dis\ble_diss.c ****         ble_diss_val.sys_id[1] = (p_param->p_sys_id->manufact_id & 0x000000FF00) >> 8;
 541              		.loc 1 304 32 is_stmt 0
 542 015a B7070000 		lui	a5,%hi(.LANCHOR0)
 543 015e 93870700 		addi	a5,a5,%lo(.LANCHOR0)
 308:C:/Users/stapi/OneDrive/Desktop/GD32VW553/V1_MQTT_OK/GD32VW55X_Wifi_BLE_SDK/GD32VW55x_RELEASE_V1.0.2/MSDK/ble/profile/dis\ble_diss.c ****         ble_diss_val.sys_id[4] = (p_param->p_sys_id->manufact_id & 0xFF00000000) >> 32;
 544              		.loc 1 308 32
 545 0162 2382D70C 		sb	a3,196(a5)
 304:C:/Users/stapi/OneDrive/Desktop/GD32VW553/V1_MQTT_OK/GD32VW55X_Wifi_BLE_SDK/GD32VW55x_RELEASE_V1.0.2/MSDK/ble/profile/dis\ble_diss.c ****         ble_diss_val.sys_id[1] = (p_param->p_sys_id->manufact_id & 0x000000FF00) >> 8;
 546              		.loc 1 304 32
 547 0166 23A0C70C 		sw	a2,192(a5)
 548              		.loc 1 308 9 is_stmt 1
 309:C:/Users/stapi/OneDrive/Desktop/GD32VW553/V1_MQTT_OK/GD32VW55X_Wifi_BLE_SDK/GD32VW55x_RELEASE_V1.0.2/MSDK/ble/profile/dis\ble_diss.c **** 
 310:C:/Users/stapi/OneDrive/Desktop/GD32VW553/V1_MQTT_OK/GD32VW55X_Wifi_BLE_SDK/GD32VW55x_RELEASE_V1.0.2/MSDK/ble/profile/dis\ble_diss.c ****         ble_diss_val.sys_id[5] = (p_param->p_sys_id->oui & 0x0000FF);
 549              		.loc 1 310 9
 550              		.loc 1 310 52 is_stmt 0
 551 016a 1847     		lw	a4,8(a4)
 311:C:/Users/stapi/OneDrive/Desktop/GD32VW553/V1_MQTT_OK/GD32VW55X_Wifi_BLE_SDK/GD32VW55x_RELEASE_V1.0.2/MSDK/ble/profile/dis\ble_diss.c ****         ble_diss_val.sys_id[6] = (p_param->p_sys_id->oui & 0x00FF00) >> 8;
 552              		.loc 1 311 70
 553 016c 93568700 		srli	a3,a4,8
 310:C:/Users/stapi/OneDrive/Desktop/GD32VW553/V1_MQTT_OK/GD32VW55X_Wifi_BLE_SDK/GD32VW55x_RELEASE_V1.0.2/MSDK/ble/profile/dis\ble_diss.c ****         ble_diss_val.sys_id[6] = (p_param->p_sys_id->oui & 0x00FF00) >> 8;
 554              		.loc 1 310 32
 555 0170 A382E70C 		sb	a4,197(a5)
 556              		.loc 1 311 9 is_stmt 1
 312:C:/Users/stapi/OneDrive/Desktop/GD32VW553/V1_MQTT_OK/GD32VW55X_Wifi_BLE_SDK/GD32VW55x_RELEASE_V1.0.2/MSDK/ble/profile/dis\ble_diss.c ****         ble_diss_val.sys_id[7] = (p_param->p_sys_id->oui & 0xFF0000) >> 16;
 557              		.loc 1 312 70 is_stmt 0
 558 0174 4183     		srli	a4,a4,16
 311:C:/Users/stapi/OneDrive/Desktop/GD32VW553/V1_MQTT_OK/GD32VW55X_Wifi_BLE_SDK/GD32VW55x_RELEASE_V1.0.2/MSDK/ble/profile/dis\ble_diss.c ****         ble_diss_val.sys_id[6] = (p_param->p_sys_id->oui & 0x00FF00) >> 8;
 559              		.loc 1 311 32
 560 0176 2383D70C 		sb	a3,198(a5)
 561              		.loc 1 312 9 is_stmt 1
 562              		.loc 1 312 32 is_stmt 0
 563 017a A383E70C 		sb	a4,199(a5)
 564              	.L28:
 313:C:/Users/stapi/OneDrive/Desktop/GD32VW553/V1_MQTT_OK/GD32VW55X_Wifi_BLE_SDK/GD32VW55x_RELEASE_V1.0.2/MSDK/ble/profile/dis\ble_diss.c ****     }
 314:C:/Users/stapi/OneDrive/Desktop/GD32VW553/V1_MQTT_OK/GD32VW55X_Wifi_BLE_SDK/GD32VW55x_RELEASE_V1.0.2/MSDK/ble/profile/dis\ble_diss.c **** 
 315:C:/Users/stapi/OneDrive/Desktop/GD32VW553/V1_MQTT_OK/GD32VW55X_Wifi_BLE_SDK/GD32VW55x_RELEASE_V1.0.2/MSDK/ble/profile/dis\ble_diss.c ****     if (p_param->p_pnp_id) {
 565              		.loc 1 315 5 is_stmt 1
 566              		.loc 1 315 16 is_stmt 0
 567 017e 585C     		lw	a4,60(s0)
 568              		.loc 1 315 8
 569 0180 15CF     		beq	a4,zero,.L19
 316:C:/Users/stapi/OneDrive/Desktop/GD32VW553/V1_MQTT_OK/GD32VW55X_Wifi_BLE_SDK/GD32VW55x_RELEASE_V1.0.2/MSDK/ble/profile/dis\ble_diss.c ****         ble_diss_val.pnp_id[0] = p_param->p_pnp_id->vendor_id_source;
 570              		.loc 1 316 9 is_stmt 1
 571              		.loc 1 316 32 is_stmt 0
 572 0182 83460700 		lbu	a3,0(a4)
 573 0186 B7070000 		lui	a5,%hi(.LANCHOR0)
 574 018a 93870700 		addi	a5,a5,%lo(.LANCHOR0)
 575 018e 2384D70E 		sb	a3,232(a5)
 317:C:/Users/stapi/OneDrive/Desktop/GD32VW553/V1_MQTT_OK/GD32VW55X_Wifi_BLE_SDK/GD32VW55x_RELEASE_V1.0.2/MSDK/ble/profile/dis\ble_diss.c ****         ble_diss_val.pnp_id[1] = p_param->p_pnp_id->vendor_id & 0x00FF;
 576              		.loc 1 317 9 is_stmt 1
 577              		.loc 1 317 51 is_stmt 0
 578 0192 83562700 		lhu	a3,2(a4)
 579              		.loc 1 317 32
 580 0196 A384D70E 		sb	a3,233(a5)
 318:C:/Users/stapi/OneDrive/Desktop/GD32VW553/V1_MQTT_OK/GD32VW55X_Wifi_BLE_SDK/GD32VW55x_RELEASE_V1.0.2/MSDK/ble/profile/dis\ble_diss.c ****         ble_diss_val.pnp_id[2] = (p_param->p_pnp_id->vendor_id & 0xFF00) >> 8;
 581              		.loc 1 318 9 is_stmt 1
 582              		.loc 1 318 74 is_stmt 0
 583 019a A182     		srli	a3,a3,8
 584              		.loc 1 318 32
 585 019c 2385D70E 		sb	a3,234(a5)
 319:C:/Users/stapi/OneDrive/Desktop/GD32VW553/V1_MQTT_OK/GD32VW55X_Wifi_BLE_SDK/GD32VW55x_RELEASE_V1.0.2/MSDK/ble/profile/dis\ble_diss.c ****         ble_diss_val.pnp_id[3] = p_param->p_pnp_id->product_id & 0x00FF;
 586              		.loc 1 319 9 is_stmt 1
 587              		.loc 1 319 51 is_stmt 0
 588 01a0 83564700 		lhu	a3,4(a4)
 589              		.loc 1 319 32
 590 01a4 A385D70E 		sb	a3,235(a5)
 320:C:/Users/stapi/OneDrive/Desktop/GD32VW553/V1_MQTT_OK/GD32VW55X_Wifi_BLE_SDK/GD32VW55x_RELEASE_V1.0.2/MSDK/ble/profile/dis\ble_diss.c ****         ble_diss_val.pnp_id[4] = (p_param->p_pnp_id->product_id & 0xFF00) >> 8;
 591              		.loc 1 320 9 is_stmt 1
 592              		.loc 1 320 75 is_stmt 0
 593 01a8 A182     		srli	a3,a3,8
 594              		.loc 1 320 32
 595 01aa 2386D70E 		sb	a3,236(a5)
 321:C:/Users/stapi/OneDrive/Desktop/GD32VW553/V1_MQTT_OK/GD32VW55X_Wifi_BLE_SDK/GD32VW55x_RELEASE_V1.0.2/MSDK/ble/profile/dis\ble_diss.c ****         ble_diss_val.pnp_id[5] = p_param->p_pnp_id->product_version & 0x00FF;
 596              		.loc 1 321 9 is_stmt 1
 597              		.loc 1 321 51 is_stmt 0
 598 01ae 03576700 		lhu	a4,6(a4)
 599              		.loc 1 321 32
 600 01b2 A386E70E 		sb	a4,237(a5)
 322:C:/Users/stapi/OneDrive/Desktop/GD32VW553/V1_MQTT_OK/GD32VW55X_Wifi_BLE_SDK/GD32VW55x_RELEASE_V1.0.2/MSDK/ble/profile/dis\ble_diss.c ****         ble_diss_val.pnp_id[6] = (p_param->p_pnp_id->product_version & 0xFF00) >> 8;
 601              		.loc 1 322 9 is_stmt 1
 602              		.loc 1 322 80 is_stmt 0
 603 01b6 2183     		srli	a4,a4,8
 604              		.loc 1 322 32
 605 01b8 2387E70E 		sb	a4,238(a5)
 606              	.LVL55:
 607              	.L19:
 323:C:/Users/stapi/OneDrive/Desktop/GD32VW553/V1_MQTT_OK/GD32VW55X_Wifi_BLE_SDK/GD32VW55x_RELEASE_V1.0.2/MSDK/ble/profile/dis\ble_diss.c ****     }
 324:C:/Users/stapi/OneDrive/Desktop/GD32VW553/V1_MQTT_OK/GD32VW55X_Wifi_BLE_SDK/GD32VW55x_RELEASE_V1.0.2/MSDK/ble/profile/dis\ble_diss.c **** 
 325:C:/Users/stapi/OneDrive/Desktop/GD32VW553/V1_MQTT_OK/GD32VW55X_Wifi_BLE_SDK/GD32VW55x_RELEASE_V1.0.2/MSDK/ble/profile/dis\ble_diss.c ****     return BLE_ERR_NO_ERROR;
 326:C:/Users/stapi/OneDrive/Desktop/GD32VW553/V1_MQTT_OK/GD32VW55X_Wifi_BLE_SDK/GD32VW55x_RELEASE_V1.0.2/MSDK/ble/profile/dis\ble_diss.c **** }
 608              		.loc 1 326 1
 609 01bc 2685     		mv	a0,s1
 610 01be 17030000 		tail	__riscv_restore_2
 610      67000300 
 611              		.cfi_restore 9
 612              		.cfi_restore 8
 613              		.cfi_restore 1
 614              		.cfi_def_cfa_offset 0
 615              		.cfi_endproc
 616              	.LFE20:
 618              		.section	.text.ble_diss_deinit,"ax",@progbits
 619              		.align	1
 620              		.globl	ble_diss_deinit
 622              	ble_diss_deinit:
 623              	.LFB21:
 327:C:/Users/stapi/OneDrive/Desktop/GD32VW553/V1_MQTT_OK/GD32VW55X_Wifi_BLE_SDK/GD32VW55x_RELEASE_V1.0.2/MSDK/ble/profile/dis\ble_diss.c **** 
 328:C:/Users/stapi/OneDrive/Desktop/GD32VW553/V1_MQTT_OK/GD32VW55X_Wifi_BLE_SDK/GD32VW55x_RELEASE_V1.0.2/MSDK/ble/profile/dis\ble_diss.c **** /*!
 329:C:/Users/stapi/OneDrive/Desktop/GD32VW553/V1_MQTT_OK/GD32VW55X_Wifi_BLE_SDK/GD32VW55x_RELEASE_V1.0.2/MSDK/ble/profile/dis\ble_diss.c ****     \brief      Deinit Device Information Service Server
 330:C:/Users/stapi/OneDrive/Desktop/GD32VW553/V1_MQTT_OK/GD32VW55X_Wifi_BLE_SDK/GD32VW55x_RELEASE_V1.0.2/MSDK/ble/profile/dis\ble_diss.c ****     \param[in]  nont
 331:C:/Users/stapi/OneDrive/Desktop/GD32VW553/V1_MQTT_OK/GD32VW55X_Wifi_BLE_SDK/GD32VW55x_RELEASE_V1.0.2/MSDK/ble/profile/dis\ble_diss.c ****     \param[out] none
 332:C:/Users/stapi/OneDrive/Desktop/GD32VW553/V1_MQTT_OK/GD32VW55X_Wifi_BLE_SDK/GD32VW55x_RELEASE_V1.0.2/MSDK/ble/profile/dis\ble_diss.c ****     \retval     ble_status_t: BLE_ERR_NO_ERROR on success, otherwise an error code
 333:C:/Users/stapi/OneDrive/Desktop/GD32VW553/V1_MQTT_OK/GD32VW55X_Wifi_BLE_SDK/GD32VW55x_RELEASE_V1.0.2/MSDK/ble/profile/dis\ble_diss.c **** */
 334:C:/Users/stapi/OneDrive/Desktop/GD32VW553/V1_MQTT_OK/GD32VW55X_Wifi_BLE_SDK/GD32VW55x_RELEASE_V1.0.2/MSDK/ble/profile/dis\ble_diss.c **** ble_status_t ble_diss_deinit(void)
 335:C:/Users/stapi/OneDrive/Desktop/GD32VW553/V1_MQTT_OK/GD32VW55X_Wifi_BLE_SDK/GD32VW55x_RELEASE_V1.0.2/MSDK/ble/profile/dis\ble_diss.c **** {
 624              		.loc 1 335 1 is_stmt 1
 625              		.cfi_startproc
 336:C:/Users/stapi/OneDrive/Desktop/GD32VW553/V1_MQTT_OK/GD32VW55X_Wifi_BLE_SDK/GD32VW55x_RELEASE_V1.0.2/MSDK/ble/profile/dis\ble_diss.c ****     return ble_gatts_svc_rmv(ble_diss_svc_id);
 626              		.loc 1 336 5
 627              		.loc 1 336 12 is_stmt 0
 628 0000 B7070000 		lui	a5,%hi(.LANCHOR3)
 629 0004 03C50700 		lbu	a0,%lo(.LANCHOR3)(a5)
 630 0008 17030000 		tail	ble_gatts_svc_rmv
 630      67000300 
 631              	.LVL56:
 632              		.cfi_endproc
 633              	.LFE21:
 635              		.globl	ble_dis_uuid
 636              		.globl	ble_diss_attr_db
 637              		.section	.bss.ble_diss_val,"aw",@nobits
 638              		.align	2
 639              		.set	.LANCHOR0,. + 0
 642              	ble_diss_val:
 643 0000 00000000 		.zero	239
 643      00000000 
 643      00000000 
 643      00000000 
 643      00000000 
 644              		.section	.rodata.ble_diss_attr_db,"a"
 645              		.align	2
 646              		.set	.LANCHOR1,. + 0
 649              	ble_diss_attr_db:
 650 0000 00       		.string	""
 651 0001 2800     		.string	"("
 652 0003 00000000 		.zero	13
 652      00000000 
 652      00000000 
 652      00
 653 0010 0200     		.half	2
 654 0012 0000     		.half	0
 655 0014 032800   		.string	"\003("
 656 0017 00000000 		.zero	13
 656      00000000 
 656      00000000 
 656      00
 657 0024 0200     		.half	2
 658 0026 0000     		.half	0
 659 0028 292A00   		.string	")*"
 660 002b 00000000 		.zero	13
 660      00000000 
 660      00000000 
 660      00
 661 0038 0200     		.half	2
 662 003a 1F00     		.half	31
 663 003c 032800   		.string	"\003("
 664 003f 00000000 		.zero	13
 664      00000000 
 664      00000000 
 664      00
 665 004c 0200     		.half	2
 666 004e 0000     		.half	0
 667 0050 242A00   		.string	"$*"
 668 0053 00000000 		.zero	13
 668      00000000 
 668      00000000 
 668      00
 669 0060 0200     		.half	2
 670 0062 1F00     		.half	31
 671 0064 032800   		.string	"\003("
 672 0067 00000000 		.zero	13
 672      00000000 
 672      00000000 
 672      00
 673 0074 0200     		.half	2
 674 0076 0000     		.half	0
 675 0078 252A00   		.string	"%*"
 676 007b 00000000 		.zero	13
 676      00000000 
 676      00000000 
 676      00
 677 0088 0200     		.half	2
 678 008a 1F00     		.half	31
 679 008c 032800   		.string	"\003("
 680 008f 00000000 		.zero	13
 680      00000000 
 680      00000000 
 680      00
 681 009c 0200     		.half	2
 682 009e 0000     		.half	0
 683 00a0 272A00   		.string	"'*"
 684 00a3 00000000 		.zero	13
 684      00000000 
 684      00000000 
 684      00
 685 00b0 0200     		.half	2
 686 00b2 1F00     		.half	31
 687 00b4 032800   		.string	"\003("
 688 00b7 00000000 		.zero	13
 688      00000000 
 688      00000000 
 688      00
 689 00c4 0200     		.half	2
 690 00c6 0000     		.half	0
 691 00c8 262A00   		.string	"&*"
 692 00cb 00000000 		.zero	13
 692      00000000 
 692      00000000 
 692      00
 693 00d8 0200     		.half	2
 694 00da 1F00     		.half	31
 695 00dc 032800   		.string	"\003("
 696 00df 00000000 		.zero	13
 696      00000000 
 696      00000000 
 696      00
 697 00ec 0200     		.half	2
 698 00ee 0000     		.half	0
 699 00f0 282A00   		.string	"(*"
 700 00f3 00000000 		.zero	13
 700      00000000 
 700      00000000 
 700      00
 701 0100 0200     		.half	2
 702 0102 1F00     		.half	31
 703 0104 032800   		.string	"\003("
 704 0107 00000000 		.zero	13
 704      00000000 
 704      00000000 
 704      00
 705 0114 0200     		.half	2
 706 0116 0000     		.half	0
 707 0118 232A00   		.string	"#*"
 708 011b 00000000 		.zero	13
 708      00000000 
 708      00000000 
 708      00
 709 0128 0200     		.half	2
 710 012a 0800     		.half	8
 711 012c 032800   		.string	"\003("
 712 012f 00000000 		.zero	13
 712      00000000 
 712      00000000 
 712      00
 713 013c 0200     		.half	2
 714 013e 0000     		.half	0
 715 0140 2A2A00   		.string	"**"
 716 0143 00000000 		.zero	13
 716      00000000 
 716      00000000 
 716      00
 717 0150 0200     		.half	2
 718 0152 1F00     		.half	31
 719 0154 032800   		.string	"\003("
 720 0157 00000000 		.zero	13
 720      00000000 
 720      00000000 
 720      00
 721 0164 0200     		.half	2
 722 0166 0000     		.half	0
 723 0168 502A00   		.string	"P*"
 724 016b 00000000 		.zero	13
 724      00000000 
 724      00000000 
 724      00
 725 0178 0200     		.half	2
 726 017a 0700     		.half	7
 727              		.section	.sdata.ble_diss_svc_id,"aw"
 728              		.set	.LANCHOR3,. + 0
 731              	ble_diss_svc_id:
 732 0000 FF       		.byte	-1
 733              		.section	.srodata.ble_dis_uuid,"a"
 734              		.align	2
 735              		.set	.LANCHOR2,. + 0
 738              	ble_dis_uuid:
 739 0000 0A18     		.ascii	"\n\030"
 740              		.text
 741              	.Letext0:
 742              		.file 3 "c:\\users\\stapi\\onedrive\\desktop\\gd32vw553\\embeddedbuilder_v1.4.7.26843\\tools\\nucl
 743              		.file 4 "c:\\users\\stapi\\onedrive\\desktop\\gd32vw553\\embeddedbuilder_v1.4.7.26843\\tools\\nucl
 744              		.file 5 "..\\..\\..\\..\\blesw\\src\\export/ble_types.h"
 745              		.file 6 "..\\..\\..\\..\\blesw\\src\\export/ble_error.h"
 746              		.file 7 "..\\..\\..\\..\\blesw\\src\\export/ble_gap.h"
 747              		.file 8 "..\\..\\..\\..\\ble\\profile/dis/ble_diss.h"
 748              		.file 9 "..\\..\\..\\..\\blesw\\src\\export/ble_gatt.h"
 749              		.file 10 "..\\..\\..\\..\\blesw\\src\\export/ble_conn.h"
 750              		.file 11 "..\\..\\..\\..\\blesw\\src\\export/ble_gatts.h"
 751              		.file 12 "..\\..\\..\\..\\rtos\\rtos_wrapper/wrapper_os.h"
DEFINED SYMBOLS
                            *ABS*:0000000000000000 ble_diss.c
C:\Users\stapi\AppData\Local\Temp\ccuARVJd.s:12     .text.ble_diss_srv_cb:0000000000000000 ble_diss_srv_cb
C:\Users\stapi\AppData\Local\Temp\ccuARVJd.s:16     .text.ble_diss_srv_cb:0000000000000000 .L0 
C:\Users\stapi\AppData\Local\Temp\ccuARVJd.s:18     .text.ble_diss_srv_cb:0000000000000000 .L0 
C:\Users\stapi\AppData\Local\Temp\ccuARVJd.s:19     .text.ble_diss_srv_cb:0000000000000008 .L0 
C:\Users\stapi\AppData\Local\Temp\ccuARVJd.s:20     .text.ble_diss_srv_cb:0000000000000008 .L0 
C:\Users\stapi\AppData\Local\Temp\ccuARVJd.s:21     .text.ble_diss_srv_cb:0000000000000008 .L0 
C:\Users\stapi\AppData\Local\Temp\ccuARVJd.s:24     .text.ble_diss_srv_cb:0000000000000008 .L0 
C:\Users\stapi\AppData\Local\Temp\ccuARVJd.s:25     .text.ble_diss_srv_cb:0000000000000008 .L0 
C:\Users\stapi\AppData\Local\Temp\ccuARVJd.s:26     .text.ble_diss_srv_cb:0000000000000008 .L0 
C:\Users\stapi\AppData\Local\Temp\ccuARVJd.s:27     .text.ble_diss_srv_cb:0000000000000008 .L0 
C:\Users\stapi\AppData\Local\Temp\ccuARVJd.s:28     .text.ble_diss_srv_cb:0000000000000008 .L0 
C:\Users\stapi\AppData\Local\Temp\ccuARVJd.s:29     .text.ble_diss_srv_cb:0000000000000008 .L0 
C:\Users\stapi\AppData\Local\Temp\ccuARVJd.s:33     .text.ble_diss_srv_cb:0000000000000010 .L0 
C:\Users\stapi\AppData\Local\Temp\ccuARVJd.s:34     .text.ble_diss_srv_cb:0000000000000010 .L0 
C:\Users\stapi\AppData\Local\Temp\ccuARVJd.s:36     .text.ble_diss_srv_cb:0000000000000012 .L0 
C:\Users\stapi\AppData\Local\Temp\ccuARVJd.s:42     .text.ble_diss_srv_cb:0000000000000014 .L0 
C:\Users\stapi\AppData\Local\Temp\ccuARVJd.s:43     .text.ble_diss_srv_cb:0000000000000014 .L0 
C:\Users\stapi\AppData\Local\Temp\ccuARVJd.s:44     .text.ble_diss_srv_cb:0000000000000014 .L0 
C:\Users\stapi\AppData\Local\Temp\ccuARVJd.s:45     .text.ble_diss_srv_cb:0000000000000014 .L0 
C:\Users\stapi\AppData\Local\Temp\ccuARVJd.s:84     .text.ble_diss_srv_cb:000000000000003e .L0 
C:\Users\stapi\AppData\Local\Temp\ccuARVJd.s:85     .text.ble_diss_srv_cb:000000000000003e .L0 
C:\Users\stapi\AppData\Local\Temp\ccuARVJd.s:87     .text.ble_diss_srv_cb:0000000000000042 .L0 
C:\Users\stapi\AppData\Local\Temp\ccuARVJd.s:93     .text.ble_diss_srv_cb:0000000000000046 .L0 
C:\Users\stapi\AppData\Local\Temp\ccuARVJd.s:96     .text.ble_diss_srv_cb:0000000000000046 .L0 
C:\Users\stapi\AppData\Local\Temp\ccuARVJd.s:97     .text.ble_diss_srv_cb:0000000000000046 .L0 
C:\Users\stapi\AppData\Local\Temp\ccuARVJd.s:100    .text.ble_diss_srv_cb:000000000000004a .L0 
C:\Users\stapi\AppData\Local\Temp\ccuARVJd.s:105    .text.ble_diss_srv_cb:000000000000004c .L0 
C:\Users\stapi\AppData\Local\Temp\ccuARVJd.s:110    .text.ble_diss_srv_cb:0000000000000050 .L0 
C:\Users\stapi\AppData\Local\Temp\ccuARVJd.s:111    .text.ble_diss_srv_cb:0000000000000050 .L0 
C:\Users\stapi\AppData\Local\Temp\ccuARVJd.s:113    .text.ble_diss_srv_cb:0000000000000054 .L0 
C:\Users\stapi\AppData\Local\Temp\ccuARVJd.s:122    .text.ble_diss_srv_cb:000000000000005e .L0 
C:\Users\stapi\AppData\Local\Temp\ccuARVJd.s:124    .text.ble_diss_srv_cb:0000000000000068 .L0 
C:\Users\stapi\AppData\Local\Temp\ccuARVJd.s:125    .text.ble_diss_srv_cb:0000000000000068 .L0 
C:\Users\stapi\AppData\Local\Temp\ccuARVJd.s:126    .text.ble_diss_srv_cb:0000000000000068 .L0 
C:\Users\stapi\AppData\Local\Temp\ccuARVJd.s:127    .text.ble_diss_srv_cb:0000000000000068 .L0 
C:\Users\stapi\AppData\Local\Temp\ccuARVJd.s:130    .text.ble_diss_srv_cb:0000000000000068 .L0 
C:\Users\stapi\AppData\Local\Temp\ccuARVJd.s:135    .text.ble_diss_srv_cb:0000000000000068 .L0 
C:\Users\stapi\AppData\Local\Temp\ccuARVJd.s:136    .text.ble_diss_srv_cb:0000000000000068 .L0 
C:\Users\stapi\AppData\Local\Temp\ccuARVJd.s:137    .text.ble_diss_srv_cb:0000000000000068 .L0 
C:\Users\stapi\AppData\Local\Temp\ccuARVJd.s:142    .text.ble_diss_srv_cb:0000000000000074 .L0 
C:\Users\stapi\AppData\Local\Temp\ccuARVJd.s:143    .text.ble_diss_srv_cb:0000000000000074 .L0 
C:\Users\stapi\AppData\Local\Temp\ccuARVJd.s:145    .text.ble_diss_srv_cb:0000000000000078 .L0 
C:\Users\stapi\AppData\Local\Temp\ccuARVJd.s:149    .text.ble_diss_srv_cb:000000000000007a .L0 
C:\Users\stapi\AppData\Local\Temp\ccuARVJd.s:150    .text.ble_diss_srv_cb:000000000000007a .L0 
C:\Users\stapi\AppData\Local\Temp\ccuARVJd.s:151    .text.ble_diss_srv_cb:000000000000007a .L0 
C:\Users\stapi\AppData\Local\Temp\ccuARVJd.s:156    .text.ble_diss_srv_cb:0000000000000086 .L0 
C:\Users\stapi\AppData\Local\Temp\ccuARVJd.s:157    .text.ble_diss_srv_cb:0000000000000086 .L0 
C:\Users\stapi\AppData\Local\Temp\ccuARVJd.s:159    .text.ble_diss_srv_cb:000000000000008a .L0 
C:\Users\stapi\AppData\Local\Temp\ccuARVJd.s:163    .text.ble_diss_srv_cb:000000000000008c .L0 
C:\Users\stapi\AppData\Local\Temp\ccuARVJd.s:164    .text.ble_diss_srv_cb:000000000000008c .L0 
C:\Users\stapi\AppData\Local\Temp\ccuARVJd.s:165    .text.ble_diss_srv_cb:000000000000008c .L0 
C:\Users\stapi\AppData\Local\Temp\ccuARVJd.s:170    .text.ble_diss_srv_cb:0000000000000098 .L0 
C:\Users\stapi\AppData\Local\Temp\ccuARVJd.s:171    .text.ble_diss_srv_cb:0000000000000098 .L0 
C:\Users\stapi\AppData\Local\Temp\ccuARVJd.s:173    .text.ble_diss_srv_cb:000000000000009c .L0 
C:\Users\stapi\AppData\Local\Temp\ccuARVJd.s:177    .text.ble_diss_srv_cb:000000000000009e .L0 
C:\Users\stapi\AppData\Local\Temp\ccuARVJd.s:178    .text.ble_diss_srv_cb:000000000000009e .L0 
C:\Users\stapi\AppData\Local\Temp\ccuARVJd.s:179    .text.ble_diss_srv_cb:000000000000009e .L0 
C:\Users\stapi\AppData\Local\Temp\ccuARVJd.s:184    .text.ble_diss_srv_cb:00000000000000aa .L0 
C:\Users\stapi\AppData\Local\Temp\ccuARVJd.s:185    .text.ble_diss_srv_cb:00000000000000aa .L0 
C:\Users\stapi\AppData\Local\Temp\ccuARVJd.s:187    .text.ble_diss_srv_cb:00000000000000ae .L0 
C:\Users\stapi\AppData\Local\Temp\ccuARVJd.s:191    .text.ble_diss_srv_cb:00000000000000b0 .L0 
C:\Users\stapi\AppData\Local\Temp\ccuARVJd.s:192    .text.ble_diss_srv_cb:00000000000000b0 .L0 
C:\Users\stapi\AppData\Local\Temp\ccuARVJd.s:193    .text.ble_diss_srv_cb:00000000000000b0 .L0 
C:\Users\stapi\AppData\Local\Temp\ccuARVJd.s:198    .text.ble_diss_srv_cb:00000000000000bc .L0 
C:\Users\stapi\AppData\Local\Temp\ccuARVJd.s:199    .text.ble_diss_srv_cb:00000000000000bc .L0 
C:\Users\stapi\AppData\Local\Temp\ccuARVJd.s:201    .text.ble_diss_srv_cb:00000000000000c0 .L0 
C:\Users\stapi\AppData\Local\Temp\ccuARVJd.s:205    .text.ble_diss_srv_cb:00000000000000c2 .L0 
C:\Users\stapi\AppData\Local\Temp\ccuARVJd.s:206    .text.ble_diss_srv_cb:00000000000000c2 .L0 
C:\Users\stapi\AppData\Local\Temp\ccuARVJd.s:207    .text.ble_diss_srv_cb:00000000000000c2 .L0 
C:\Users\stapi\AppData\Local\Temp\ccuARVJd.s:212    .text.ble_diss_srv_cb:00000000000000ce .L0 
C:\Users\stapi\AppData\Local\Temp\ccuARVJd.s:213    .text.ble_diss_srv_cb:00000000000000ce .L0 
C:\Users\stapi\AppData\Local\Temp\ccuARVJd.s:215    .text.ble_diss_srv_cb:00000000000000d2 .L0 
C:\Users\stapi\AppData\Local\Temp\ccuARVJd.s:219    .text.ble_diss_srv_cb:00000000000000d4 .L0 
C:\Users\stapi\AppData\Local\Temp\ccuARVJd.s:220    .text.ble_diss_srv_cb:00000000000000d4 .L0 
C:\Users\stapi\AppData\Local\Temp\ccuARVJd.s:221    .text.ble_diss_srv_cb:00000000000000d4 .L0 
C:\Users\stapi\AppData\Local\Temp\ccuARVJd.s:226    .text.ble_diss_srv_cb:00000000000000e0 .L0 
C:\Users\stapi\AppData\Local\Temp\ccuARVJd.s:227    .text.ble_diss_srv_cb:00000000000000e0 .L0 
C:\Users\stapi\AppData\Local\Temp\ccuARVJd.s:229    .text.ble_diss_srv_cb:00000000000000e4 .L0 
C:\Users\stapi\AppData\Local\Temp\ccuARVJd.s:233    .text.ble_diss_srv_cb:00000000000000e6 .L0 
C:\Users\stapi\AppData\Local\Temp\ccuARVJd.s:236    .text.ble_diss_srv_cb:00000000000000ee .L0 
C:\Users\stapi\AppData\Local\Temp\ccuARVJd.s:244    .text.ble_diss_srv_cb:00000000000000f2 .L0 
C:\Users\stapi\AppData\Local\Temp\ccuARVJd.s:252    .text.ble_diss_srv_cb:00000000000000f6 .L0 
C:\Users\stapi\AppData\Local\Temp\ccuARVJd.s:257    .text.ble_diss_srv_cb:00000000000000fa .L0 
C:\Users\stapi\AppData\Local\Temp\ccuARVJd.s:263    .text.ble_diss_srv_cb:00000000000000fe .L0 
C:\Users\stapi\AppData\Local\Temp\ccuARVJd.s:270    .text.ble_diss_init:0000000000000000 ble_diss_init
C:\Users\stapi\AppData\Local\Temp\ccuARVJd.s:273    .text.ble_diss_init:0000000000000000 .L0 
C:\Users\stapi\AppData\Local\Temp\ccuARVJd.s:275    .text.ble_diss_init:0000000000000000 .L0 
C:\Users\stapi\AppData\Local\Temp\ccuARVJd.s:276    .text.ble_diss_init:0000000000000008 .L0 
C:\Users\stapi\AppData\Local\Temp\ccuARVJd.s:277    .text.ble_diss_init:0000000000000008 .L0 
C:\Users\stapi\AppData\Local\Temp\ccuARVJd.s:278    .text.ble_diss_init:0000000000000008 .L0 
C:\Users\stapi\AppData\Local\Temp\ccuARVJd.s:279    .text.ble_diss_init:0000000000000008 .L0 
C:\Users\stapi\AppData\Local\Temp\ccuARVJd.s:282    .text.ble_diss_init:0000000000000008 .L0 
C:\Users\stapi\AppData\Local\Temp\ccuARVJd.s:283    .text.ble_diss_init:0000000000000008 .L0 
C:\Users\stapi\AppData\Local\Temp\ccuARVJd.s:284    .text.ble_diss_init:0000000000000008 .L0 
C:\Users\stapi\AppData\Local\Temp\ccuARVJd.s:286    .text.ble_diss_init:000000000000000c .L0 
C:\Users\stapi\AppData\Local\Temp\ccuARVJd.s:288    .text.ble_diss_init:0000000000000010 .L0 
C:\Users\stapi\AppData\Local\Temp\ccuARVJd.s:291    .text.ble_diss_init:0000000000000014 .L0 
C:\Users\stapi\AppData\Local\Temp\ccuARVJd.s:292    .text.ble_diss_init:0000000000000014 .L0 
C:\Users\stapi\AppData\Local\Temp\ccuARVJd.s:309    .text.ble_diss_init:0000000000000044 .L0 
C:\Users\stapi\AppData\Local\Temp\ccuARVJd.s:310    .text.ble_diss_init:0000000000000044 .L0 
C:\Users\stapi\AppData\Local\Temp\ccuARVJd.s:312    .text.ble_diss_init:0000000000000048 .L0 
C:\Users\stapi\AppData\Local\Temp\ccuARVJd.s:313    .text.ble_diss_init:0000000000000048 .L0 
C:\Users\stapi\AppData\Local\Temp\ccuARVJd.s:315    .text.ble_diss_init:000000000000004c .L0 
C:\Users\stapi\AppData\Local\Temp\ccuARVJd.s:320    .text.ble_diss_init:000000000000004e .L0 
C:\Users\stapi\AppData\Local\Temp\ccuARVJd.s:321    .text.ble_diss_init:000000000000004e .L0 
C:\Users\stapi\AppData\Local\Temp\ccuARVJd.s:322    .text.ble_diss_init:000000000000004e .L0 
C:\Users\stapi\AppData\Local\Temp\ccuARVJd.s:326    .text.ble_diss_init:0000000000000050 .L0 
C:\Users\stapi\AppData\Local\Temp\ccuARVJd.s:330    .text.ble_diss_init:0000000000000054 .L0 
C:\Users\stapi\AppData\Local\Temp\ccuARVJd.s:335    .text.ble_diss_init:0000000000000058 .L0 
C:\Users\stapi\AppData\Local\Temp\ccuARVJd.s:338    .text.ble_diss_init:0000000000000060 .L0 
C:\Users\stapi\AppData\Local\Temp\ccuARVJd.s:344    .text.ble_diss_init:000000000000006e .L0 
C:\Users\stapi\AppData\Local\Temp\ccuARVJd.s:345    .text.ble_diss_init:000000000000006e .L0 
C:\Users\stapi\AppData\Local\Temp\ccuARVJd.s:347    .text.ble_diss_init:0000000000000072 .L0 
C:\Users\stapi\AppData\Local\Temp\ccuARVJd.s:352    .text.ble_diss_init:0000000000000074 .L0 
C:\Users\stapi\AppData\Local\Temp\ccuARVJd.s:355    .text.ble_diss_init:0000000000000074 .L0 
C:\Users\stapi\AppData\Local\Temp\ccuARVJd.s:356    .text.ble_diss_init:0000000000000074 .L0 
C:\Users\stapi\AppData\Local\Temp\ccuARVJd.s:361    .text.ble_diss_init:000000000000007c .L0 
C:\Users\stapi\AppData\Local\Temp\ccuARVJd.s:367    .text.ble_diss_init:0000000000000082 .L0 
C:\Users\stapi\AppData\Local\Temp\ccuARVJd.s:369    .text.ble_diss_init:0000000000000086 .L0 
C:\Users\stapi\AppData\Local\Temp\ccuARVJd.s:375    .text.ble_diss_init:0000000000000094 .L0 
C:\Users\stapi\AppData\Local\Temp\ccuARVJd.s:376    .text.ble_diss_init:0000000000000094 .L0 
C:\Users\stapi\AppData\Local\Temp\ccuARVJd.s:378    .text.ble_diss_init:0000000000000098 .L0 
C:\Users\stapi\AppData\Local\Temp\ccuARVJd.s:383    .text.ble_diss_init:000000000000009a .L0 
C:\Users\stapi\AppData\Local\Temp\ccuARVJd.s:386    .text.ble_diss_init:000000000000009a .L0 
C:\Users\stapi\AppData\Local\Temp\ccuARVJd.s:387    .text.ble_diss_init:000000000000009a .L0 
C:\Users\stapi\AppData\Local\Temp\ccuARVJd.s:392    .text.ble_diss_init:00000000000000a2 .L0 
C:\Users\stapi\AppData\Local\Temp\ccuARVJd.s:398    .text.ble_diss_init:00000000000000a8 .L0 
C:\Users\stapi\AppData\Local\Temp\ccuARVJd.s:400    .text.ble_diss_init:00000000000000ac .L0 
C:\Users\stapi\AppData\Local\Temp\ccuARVJd.s:406    .text.ble_diss_init:00000000000000ba .L0 
C:\Users\stapi\AppData\Local\Temp\ccuARVJd.s:407    .text.ble_diss_init:00000000000000ba .L0 
C:\Users\stapi\AppData\Local\Temp\ccuARVJd.s:409    .text.ble_diss_init:00000000000000be .L0 
C:\Users\stapi\AppData\Local\Temp\ccuARVJd.s:414    .text.ble_diss_init:00000000000000c0 .L0 
C:\Users\stapi\AppData\Local\Temp\ccuARVJd.s:417    .text.ble_diss_init:00000000000000c0 .L0 
C:\Users\stapi\AppData\Local\Temp\ccuARVJd.s:418    .text.ble_diss_init:00000000000000c0 .L0 
C:\Users\stapi\AppData\Local\Temp\ccuARVJd.s:423    .text.ble_diss_init:00000000000000c8 .L0 
C:\Users\stapi\AppData\Local\Temp\ccuARVJd.s:429    .text.ble_diss_init:00000000000000ce .L0 
C:\Users\stapi\AppData\Local\Temp\ccuARVJd.s:431    .text.ble_diss_init:00000000000000d2 .L0 
C:\Users\stapi\AppData\Local\Temp\ccuARVJd.s:437    .text.ble_diss_init:00000000000000e0 .L0 
C:\Users\stapi\AppData\Local\Temp\ccuARVJd.s:438    .text.ble_diss_init:00000000000000e0 .L0 
C:\Users\stapi\AppData\Local\Temp\ccuARVJd.s:440    .text.ble_diss_init:00000000000000e4 .L0 
C:\Users\stapi\AppData\Local\Temp\ccuARVJd.s:445    .text.ble_diss_init:00000000000000e6 .L0 
C:\Users\stapi\AppData\Local\Temp\ccuARVJd.s:448    .text.ble_diss_init:00000000000000e6 .L0 
C:\Users\stapi\AppData\Local\Temp\ccuARVJd.s:449    .text.ble_diss_init:00000000000000e6 .L0 
C:\Users\stapi\AppData\Local\Temp\ccuARVJd.s:454    .text.ble_diss_init:00000000000000ee .L0 
C:\Users\stapi\AppData\Local\Temp\ccuARVJd.s:460    .text.ble_diss_init:00000000000000f4 .L0 
C:\Users\stapi\AppData\Local\Temp\ccuARVJd.s:462    .text.ble_diss_init:00000000000000f8 .L0 
C:\Users\stapi\AppData\Local\Temp\ccuARVJd.s:468    .text.ble_diss_init:0000000000000106 .L0 
C:\Users\stapi\AppData\Local\Temp\ccuARVJd.s:469    .text.ble_diss_init:0000000000000106 .L0 
C:\Users\stapi\AppData\Local\Temp\ccuARVJd.s:471    .text.ble_diss_init:000000000000010a .L0 
C:\Users\stapi\AppData\Local\Temp\ccuARVJd.s:476    .text.ble_diss_init:000000000000010c .L0 
C:\Users\stapi\AppData\Local\Temp\ccuARVJd.s:479    .text.ble_diss_init:000000000000010c .L0 
C:\Users\stapi\AppData\Local\Temp\ccuARVJd.s:480    .text.ble_diss_init:000000000000010c .L0 
C:\Users\stapi\AppData\Local\Temp\ccuARVJd.s:485    .text.ble_diss_init:0000000000000114 .L0 
C:\Users\stapi\AppData\Local\Temp\ccuARVJd.s:491    .text.ble_diss_init:000000000000011a .L0 
C:\Users\stapi\AppData\Local\Temp\ccuARVJd.s:493    .text.ble_diss_init:000000000000011e .L0 
C:\Users\stapi\AppData\Local\Temp\ccuARVJd.s:499    .text.ble_diss_init:000000000000012c .L0 
C:\Users\stapi\AppData\Local\Temp\ccuARVJd.s:500    .text.ble_diss_init:000000000000012c .L0 
C:\Users\stapi\AppData\Local\Temp\ccuARVJd.s:502    .text.ble_diss_init:0000000000000130 .L0 
C:\Users\stapi\AppData\Local\Temp\ccuARVJd.s:507    .text.ble_diss_init:0000000000000132 .L0 
C:\Users\stapi\AppData\Local\Temp\ccuARVJd.s:510    .text.ble_diss_init:0000000000000132 .L0 
C:\Users\stapi\AppData\Local\Temp\ccuARVJd.s:511    .text.ble_diss_init:0000000000000132 .L0 
C:\Users\stapi\AppData\Local\Temp\ccuARVJd.s:516    .text.ble_diss_init:000000000000013a .L0 
C:\Users\stapi\AppData\Local\Temp\ccuARVJd.s:522    .text.ble_diss_init:0000000000000140 .L0 
C:\Users\stapi\AppData\Local\Temp\ccuARVJd.s:524    .text.ble_diss_init:0000000000000144 .L0 
C:\Users\stapi\AppData\Local\Temp\ccuARVJd.s:530    .text.ble_diss_init:0000000000000152 .L0 
C:\Users\stapi\AppData\Local\Temp\ccuARVJd.s:531    .text.ble_diss_init:0000000000000152 .L0 
C:\Users\stapi\AppData\Local\Temp\ccuARVJd.s:533    .text.ble_diss_init:0000000000000154 .L0 
C:\Users\stapi\AppData\Local\Temp\ccuARVJd.s:535    .text.ble_diss_init:0000000000000156 .L0 
C:\Users\stapi\AppData\Local\Temp\ccuARVJd.s:536    .text.ble_diss_init:0000000000000156 .L0 
C:\Users\stapi\AppData\Local\Temp\ccuARVJd.s:538    .text.ble_diss_init:0000000000000158 .L0 
C:\Users\stapi\AppData\Local\Temp\ccuARVJd.s:539    .text.ble_diss_init:0000000000000158 .L0 
C:\Users\stapi\AppData\Local\Temp\ccuARVJd.s:540    .text.ble_diss_init:0000000000000158 .L0 
C:\Users\stapi\AppData\Local\Temp\ccuARVJd.s:542    .text.ble_diss_init:000000000000015a .L0 
C:\Users\stapi\AppData\Local\Temp\ccuARVJd.s:545    .text.ble_diss_init:0000000000000162 .L0 
C:\Users\stapi\AppData\Local\Temp\ccuARVJd.s:547    .text.ble_diss_init:0000000000000166 .L0 
C:\Users\stapi\AppData\Local\Temp\ccuARVJd.s:549    .text.ble_diss_init:000000000000016a .L0 
C:\Users\stapi\AppData\Local\Temp\ccuARVJd.s:550    .text.ble_diss_init:000000000000016a .L0 
C:\Users\stapi\AppData\Local\Temp\ccuARVJd.s:551    .text.ble_diss_init:000000000000016a .L0 
C:\Users\stapi\AppData\Local\Temp\ccuARVJd.s:553    .text.ble_diss_init:000000000000016c .L0 
C:\Users\stapi\AppData\Local\Temp\ccuARVJd.s:555    .text.ble_diss_init:0000000000000170 .L0 
C:\Users\stapi\AppData\Local\Temp\ccuARVJd.s:557    .text.ble_diss_init:0000000000000174 .L0 
C:\Users\stapi\AppData\Local\Temp\ccuARVJd.s:558    .text.ble_diss_init:0000000000000174 .L0 
C:\Users\stapi\AppData\Local\Temp\ccuARVJd.s:560    .text.ble_diss_init:0000000000000176 .L0 
C:\Users\stapi\AppData\Local\Temp\ccuARVJd.s:562    .text.ble_diss_init:000000000000017a .L0 
C:\Users\stapi\AppData\Local\Temp\ccuARVJd.s:563    .text.ble_diss_init:000000000000017a .L0 
C:\Users\stapi\AppData\Local\Temp\ccuARVJd.s:566    .text.ble_diss_init:000000000000017e .L0 
C:\Users\stapi\AppData\Local\Temp\ccuARVJd.s:567    .text.ble_diss_init:000000000000017e .L0 
C:\Users\stapi\AppData\Local\Temp\ccuARVJd.s:569    .text.ble_diss_init:0000000000000180 .L0 
C:\Users\stapi\AppData\Local\Temp\ccuARVJd.s:571    .text.ble_diss_init:0000000000000182 .L0 
C:\Users\stapi\AppData\Local\Temp\ccuARVJd.s:572    .text.ble_diss_init:0000000000000182 .L0 
C:\Users\stapi\AppData\Local\Temp\ccuARVJd.s:577    .text.ble_diss_init:0000000000000192 .L0 
C:\Users\stapi\AppData\Local\Temp\ccuARVJd.s:578    .text.ble_diss_init:0000000000000192 .L0 
C:\Users\stapi\AppData\Local\Temp\ccuARVJd.s:580    .text.ble_diss_init:0000000000000196 .L0 
C:\Users\stapi\AppData\Local\Temp\ccuARVJd.s:582    .text.ble_diss_init:000000000000019a .L0 
C:\Users\stapi\AppData\Local\Temp\ccuARVJd.s:583    .text.ble_diss_init:000000000000019a .L0 
C:\Users\stapi\AppData\Local\Temp\ccuARVJd.s:585    .text.ble_diss_init:000000000000019c .L0 
C:\Users\stapi\AppData\Local\Temp\ccuARVJd.s:587    .text.ble_diss_init:00000000000001a0 .L0 
C:\Users\stapi\AppData\Local\Temp\ccuARVJd.s:588    .text.ble_diss_init:00000000000001a0 .L0 
C:\Users\stapi\AppData\Local\Temp\ccuARVJd.s:590    .text.ble_diss_init:00000000000001a4 .L0 
C:\Users\stapi\AppData\Local\Temp\ccuARVJd.s:592    .text.ble_diss_init:00000000000001a8 .L0 
C:\Users\stapi\AppData\Local\Temp\ccuARVJd.s:593    .text.ble_diss_init:00000000000001a8 .L0 
C:\Users\stapi\AppData\Local\Temp\ccuARVJd.s:595    .text.ble_diss_init:00000000000001aa .L0 
C:\Users\stapi\AppData\Local\Temp\ccuARVJd.s:597    .text.ble_diss_init:00000000000001ae .L0 
C:\Users\stapi\AppData\Local\Temp\ccuARVJd.s:598    .text.ble_diss_init:00000000000001ae .L0 
C:\Users\stapi\AppData\Local\Temp\ccuARVJd.s:600    .text.ble_diss_init:00000000000001b2 .L0 
C:\Users\stapi\AppData\Local\Temp\ccuARVJd.s:602    .text.ble_diss_init:00000000000001b6 .L0 
C:\Users\stapi\AppData\Local\Temp\ccuARVJd.s:603    .text.ble_diss_init:00000000000001b6 .L0 
C:\Users\stapi\AppData\Local\Temp\ccuARVJd.s:605    .text.ble_diss_init:00000000000001b8 .L0 
C:\Users\stapi\AppData\Local\Temp\ccuARVJd.s:609    .text.ble_diss_init:00000000000001bc .L0 
C:\Users\stapi\AppData\Local\Temp\ccuARVJd.s:611    .text.ble_diss_init:00000000000001c6 .L0 
C:\Users\stapi\AppData\Local\Temp\ccuARVJd.s:612    .text.ble_diss_init:00000000000001c6 .L0 
C:\Users\stapi\AppData\Local\Temp\ccuARVJd.s:613    .text.ble_diss_init:00000000000001c6 .L0 
C:\Users\stapi\AppData\Local\Temp\ccuARVJd.s:614    .text.ble_diss_init:00000000000001c6 .L0 
C:\Users\stapi\AppData\Local\Temp\ccuARVJd.s:615    .text.ble_diss_init:00000000000001c6 .L0 
C:\Users\stapi\AppData\Local\Temp\ccuARVJd.s:622    .text.ble_diss_deinit:0000000000000000 ble_diss_deinit
C:\Users\stapi\AppData\Local\Temp\ccuARVJd.s:625    .text.ble_diss_deinit:0000000000000000 .L0 
C:\Users\stapi\AppData\Local\Temp\ccuARVJd.s:626    .text.ble_diss_deinit:0000000000000000 .L0 
C:\Users\stapi\AppData\Local\Temp\ccuARVJd.s:627    .text.ble_diss_deinit:0000000000000000 .L0 
C:\Users\stapi\AppData\Local\Temp\ccuARVJd.s:628    .text.ble_diss_deinit:0000000000000000 .L0 
C:\Users\stapi\AppData\Local\Temp\ccuARVJd.s:632    .text.ble_diss_deinit:0000000000000010 .L0 
C:\Users\stapi\AppData\Local\Temp\ccuARVJd.s:738    .srodata.ble_dis_uuid:0000000000000000 ble_dis_uuid
C:\Users\stapi\AppData\Local\Temp\ccuARVJd.s:649    .rodata.ble_diss_attr_db:0000000000000000 ble_diss_attr_db
C:\Users\stapi\AppData\Local\Temp\ccuARVJd.s:639    .bss.ble_diss_val:0000000000000000 .LANCHOR0
C:\Users\stapi\AppData\Local\Temp\ccuARVJd.s:642    .bss.ble_diss_val:0000000000000000 ble_diss_val
C:\Users\stapi\AppData\Local\Temp\ccuARVJd.s:646    .rodata.ble_diss_attr_db:0000000000000000 .LANCHOR1
C:\Users\stapi\AppData\Local\Temp\ccuARVJd.s:728    .sdata.ble_diss_svc_id:0000000000000000 .LANCHOR3
C:\Users\stapi\AppData\Local\Temp\ccuARVJd.s:731    .sdata.ble_diss_svc_id:0000000000000000 ble_diss_svc_id
C:\Users\stapi\AppData\Local\Temp\ccuARVJd.s:735    .srodata.ble_dis_uuid:0000000000000000 .LANCHOR2
C:\Users\stapi\AppData\Local\Temp\ccuARVJd.s:266    .text.ble_diss_srv_cb:00000000000000fe .L0 
C:\Users\stapi\AppData\Local\Temp\ccuARVJd.s:618    .text.ble_diss_init:00000000000001c6 .L0 
C:\Users\stapi\AppData\Local\Temp\ccuARVJd.s:637    .text.ble_diss_deinit:0000000000000010 .L0 
                     .debug_frame:0000000000000000 .L0 
C:\Users\stapi\AppData\Local\Temp\ccuARVJd.s:58     .rodata.ble_diss_srv_cb:0000000000000000 .L4
C:\Users\stapi\AppData\Local\Temp\ccuARVJd.s:239    .text.ble_diss_srv_cb:00000000000000f2 .L14
C:\Users\stapi\AppData\Local\Temp\ccuARVJd.s:247    .text.ble_diss_srv_cb:00000000000000f6 .L15
C:\Users\stapi\AppData\Local\Temp\ccuARVJd.s:255    .text.ble_diss_srv_cb:00000000000000fa .L17
C:\Users\stapi\AppData\Local\Temp\ccuARVJd.s:81     .text.ble_diss_srv_cb:000000000000003e .L6
C:\Users\stapi\AppData\Local\Temp\ccuARVJd.s:117    .text.ble_diss_srv_cb:000000000000005e .L1
C:\Users\stapi\AppData\Local\Temp\ccuARVJd.s:129    .text.ble_diss_srv_cb:0000000000000068 .L12
C:\Users\stapi\AppData\Local\Temp\ccuARVJd.s:147    .text.ble_diss_srv_cb:000000000000007a .L11
C:\Users\stapi\AppData\Local\Temp\ccuARVJd.s:161    .text.ble_diss_srv_cb:000000000000008c .L10
C:\Users\stapi\AppData\Local\Temp\ccuARVJd.s:175    .text.ble_diss_srv_cb:000000000000009e .L9
C:\Users\stapi\AppData\Local\Temp\ccuARVJd.s:189    .text.ble_diss_srv_cb:00000000000000b0 .L8
C:\Users\stapi\AppData\Local\Temp\ccuARVJd.s:203    .text.ble_diss_srv_cb:00000000000000c2 .L7
C:\Users\stapi\AppData\Local\Temp\ccuARVJd.s:231    .text.ble_diss_srv_cb:00000000000000e6 .L16
C:\Users\stapi\AppData\Local\Temp\ccuARVJd.s:217    .text.ble_diss_srv_cb:00000000000000d4 .L5
C:\Users\stapi\AppData\Local\Temp\ccuARVJd.s:77     .text.ble_diss_srv_cb:0000000000000034 .L3
C:\Users\stapi\AppData\Local\Temp\ccuARVJd.s:607    .text.ble_diss_init:00000000000001bc .L19
C:\Users\stapi\AppData\Local\Temp\ccuARVJd.s:342    .text.ble_diss_init:000000000000006e .L21
C:\Users\stapi\AppData\Local\Temp\ccuARVJd.s:373    .text.ble_diss_init:0000000000000094 .L22
C:\Users\stapi\AppData\Local\Temp\ccuARVJd.s:404    .text.ble_diss_init:00000000000000ba .L23
C:\Users\stapi\AppData\Local\Temp\ccuARVJd.s:435    .text.ble_diss_init:00000000000000e0 .L24
C:\Users\stapi\AppData\Local\Temp\ccuARVJd.s:466    .text.ble_diss_init:0000000000000106 .L25
C:\Users\stapi\AppData\Local\Temp\ccuARVJd.s:497    .text.ble_diss_init:000000000000012c .L26
C:\Users\stapi\AppData\Local\Temp\ccuARVJd.s:528    .text.ble_diss_init:0000000000000152 .L27
C:\Users\stapi\AppData\Local\Temp\ccuARVJd.s:564    .text.ble_diss_init:000000000000017e .L28
C:\Users\stapi\AppData\Local\Temp\ccuARVJd.s:4532   .debug_abbrev:0000000000000000 .Ldebug_abbrev0
C:\Users\stapi\AppData\Local\Temp\ccuARVJd.s:6762   .debug_str:000000000000335c .LASF832
C:\Users\stapi\AppData\Local\Temp\ccuARVJd.s:7180   .debug_str:00000000000049af .LASF833
C:\Users\stapi\AppData\Local\Temp\ccuARVJd.s:6652   .debug_str:0000000000002d78 .LASF834
C:\Users\stapi\AppData\Local\Temp\ccuARVJd.s:5684   .debug_ranges:0000000000000000 .Ldebug_ranges0
C:\Users\stapi\AppData\Local\Temp\ccuARVJd.s:5750   .debug_line:0000000000000000 .Ldebug_line0
C:\Users\stapi\AppData\Local\Temp\ccuARVJd.s:6634   .debug_str:0000000000002ca9 .LASF0
C:\Users\stapi\AppData\Local\Temp\ccuARVJd.s:5800   .debug_str:000000000000028d .LASF3
C:\Users\stapi\AppData\Local\Temp\ccuARVJd.s:6178   .debug_str:000000000000156b .LASF1
C:\Users\stapi\AppData\Local\Temp\ccuARVJd.s:7380   .debug_str:000000000000543e .LASF2
C:\Users\stapi\AppData\Local\Temp\ccuARVJd.s:6118   .debug_str:00000000000012c1 .LASF4
C:\Users\stapi\AppData\Local\Temp\ccuARVJd.s:6626   .debug_str:0000000000002c56 .LASF5
C:\Users\stapi\AppData\Local\Temp\ccuARVJd.s:6752   .debug_str:00000000000032e0 .LASF6
C:\Users\stapi\AppData\Local\Temp\ccuARVJd.s:7076   .debug_str:000000000000442b .LASF7
C:\Users\stapi\AppData\Local\Temp\ccuARVJd.s:6824   .debug_str:000000000000377d .LASF8
C:\Users\stapi\AppData\Local\Temp\ccuARVJd.s:7260   .debug_str:0000000000004df9 .LASF9
C:\Users\stapi\AppData\Local\Temp\ccuARVJd.s:6484   .debug_str:0000000000002506 .LASF10
C:\Users\stapi\AppData\Local\Temp\ccuARVJd.s:7166   .debug_str:00000000000048e7 .LASF11
C:\Users\stapi\AppData\Local\Temp\ccuARVJd.s:7366   .debug_str:000000000000537d .LASF12
C:\Users\stapi\AppData\Local\Temp\ccuARVJd.s:6364   .debug_str:0000000000001eb6 .LASF13
C:\Users\stapi\AppData\Local\Temp\ccuARVJd.s:5858   .debug_str:0000000000000576 .LASF14
C:\Users\stapi\AppData\Local\Temp\ccuARVJd.s:6798   .debug_str:0000000000003630 .LASF15
C:\Users\stapi\AppData\Local\Temp\ccuARVJd.s:6224   .debug_str:000000000000179d .LASF16
C:\Users\stapi\AppData\Local\Temp\ccuARVJd.s:6034   .debug_str:0000000000000e44 .LASF17
C:\Users\stapi\AppData\Local\Temp\ccuARVJd.s:6340   .debug_str:0000000000001d75 .LASF18
C:\Users\stapi\AppData\Local\Temp\ccuARVJd.s:6300   .debug_str:0000000000001b7d .LASF19
C:\Users\stapi\AppData\Local\Temp\ccuARVJd.s:5958   .debug_str:0000000000000a73 .LASF20
C:\Users\stapi\AppData\Local\Temp\ccuARVJd.s:7360   .debug_str:0000000000005331 .LASF21
C:\Users\stapi\AppData\Local\Temp\ccuARVJd.s:6238   .debug_str:0000000000001837 .LASF22
C:\Users\stapi\AppData\Local\Temp\ccuARVJd.s:6618   .debug_str:0000000000002bf1 .LASF23
C:\Users\stapi\AppData\Local\Temp\ccuARVJd.s:6800   .debug_str:0000000000003639 .LASF24
C:\Users\stapi\AppData\Local\Temp\ccuARVJd.s:7322   .debug_str:000000000000510f .LASF25
C:\Users\stapi\AppData\Local\Temp\ccuARVJd.s:6418   .debug_str:0000000000002188 .LASF26
C:\Users\stapi\AppData\Local\Temp\ccuARVJd.s:7108   .debug_str:00000000000045b7 .LASF27
C:\Users\stapi\AppData\Local\Temp\ccuARVJd.s:7078   .debug_str:0000000000004436 .LASF28
C:\Users\stapi\AppData\Local\Temp\ccuARVJd.s:7382   .debug_str:0000000000005448 .LASF29
C:\Users\stapi\AppData\Local\Temp\ccuARVJd.s:6378   .debug_str:0000000000001f75 .LASF30
C:\Users\stapi\AppData\Local\Temp\ccuARVJd.s:7238   .debug_str:0000000000004ce2 .LASF31
C:\Users\stapi\AppData\Local\Temp\ccuARVJd.s:7146   .debug_str:00000000000047d3 .LASF32
C:\Users\stapi\AppData\Local\Temp\ccuARVJd.s:6302   .debug_str:0000000000001b8e .LASF33
C:\Users\stapi\AppData\Local\Temp\ccuARVJd.s:7126   .debug_str:00000000000046c1 .LASF34
C:\Users\stapi\AppData\Local\Temp\ccuARVJd.s:6326   .debug_str:0000000000001cbd .LASF35
C:\Users\stapi\AppData\Local\Temp\ccuARVJd.s:6542   .debug_str:0000000000002821 .LASF36
C:\Users\stapi\AppData\Local\Temp\ccuARVJd.s:6604   .debug_str:0000000000002b23 .LASF37
C:\Users\stapi\AppData\Local\Temp\ccuARVJd.s:7098   .debug_str:000000000000452c .LASF38
C:\Users\stapi\AppData\Local\Temp\ccuARVJd.s:7102   .debug_str:0000000000004567 .LASF39
C:\Users\stapi\AppData\Local\Temp\ccuARVJd.s:6254   .debug_str:000000000000191b .LASF40
C:\Users\stapi\AppData\Local\Temp\ccuARVJd.s:6568   .debug_str:000000000000296d .LASF41
C:\Users\stapi\AppData\Local\Temp\ccuARVJd.s:6212   .debug_str:0000000000001734 .LASF42
C:\Users\stapi\AppData\Local\Temp\ccuARVJd.s:7312   .debug_str:000000000000508c .LASF43
C:\Users\stapi\AppData\Local\Temp\ccuARVJd.s:6310   .debug_str:0000000000001bf7 .LASF44
C:\Users\stapi\AppData\Local\Temp\ccuARVJd.s:6196   .debug_str:0000000000001667 .LASF45
C:\Users\stapi\AppData\Local\Temp\ccuARVJd.s:6040   .debug_str:0000000000000e8c .LASF46
C:\Users\stapi\AppData\Local\Temp\ccuARVJd.s:6358   .debug_str:0000000000001e67 .LASF47
C:\Users\stapi\AppData\Local\Temp\ccuARVJd.s:5780   .debug_str:0000000000000185 .LASF48
C:\Users\stapi\AppData\Local\Temp\ccuARVJd.s:6642   .debug_str:0000000000002d04 .LASF49
C:\Users\stapi\AppData\Local\Temp\ccuARVJd.s:6934   .debug_str:0000000000003d04 .LASF50
C:\Users\stapi\AppData\Local\Temp\ccuARVJd.s:6646   .debug_str:0000000000002d33 .LASF51
C:\Users\stapi\AppData\Local\Temp\ccuARVJd.s:6070   .debug_str:0000000000001013 .LASF52
C:\Users\stapi\AppData\Local\Temp\ccuARVJd.s:6764   .debug_str:0000000000003455 .LASF53
C:\Users\stapi\AppData\Local\Temp\ccuARVJd.s:6520   .debug_str:00000000000026f7 .LASF54
C:\Users\stapi\AppData\Local\Temp\ccuARVJd.s:6958   .debug_str:0000000000003e6b .LASF55
C:\Users\stapi\AppData\Local\Temp\ccuARVJd.s:5812   .debug_str:0000000000000306 .LASF56
C:\Users\stapi\AppData\Local\Temp\ccuARVJd.s:6808   .debug_str:00000000000036a2 .LASF57
C:\Users\stapi\AppData\Local\Temp\ccuARVJd.s:7188   .debug_str:0000000000004a80 .LASF58
C:\Users\stapi\AppData\Local\Temp\ccuARVJd.s:7306   .debug_str:0000000000005046 .LASF59
C:\Users\stapi\AppData\Local\Temp\ccuARVJd.s:6166   .debug_str:00000000000014e1 .LASF60
C:\Users\stapi\AppData\Local\Temp\ccuARVJd.s:6758   .debug_str:000000000000331c .LASF61
C:\Users\stapi\AppData\Local\Temp\ccuARVJd.s:6436   .debug_str:0000000000002261 .LASF62
C:\Users\stapi\AppData\Local\Temp\ccuARVJd.s:6392   .debug_str:0000000000002040 .LASF63
C:\Users\stapi\AppData\Local\Temp\ccuARVJd.s:7068   .debug_str:00000000000043b5 .LASF64
C:\Users\stapi\AppData\Local\Temp\ccuARVJd.s:7224   .debug_str:0000000000004c3c .LASF65
C:\Users\stapi\AppData\Local\Temp\ccuARVJd.s:6682   .debug_str:0000000000002f5e .LASF66
C:\Users\stapi\AppData\Local\Temp\ccuARVJd.s:6548   .debug_str:000000000000286d .LASF67
C:\Users\stapi\AppData\Local\Temp\ccuARVJd.s:5862   .debug_str:000000000000058e .LASF68
C:\Users\stapi\AppData\Local\Temp\ccuARVJd.s:5774   .debug_str:000000000000012f .LASF69
C:\Users\stapi\AppData\Local\Temp\ccuARVJd.s:6068   .debug_str:0000000000000ff6 .LASF70
C:\Users\stapi\AppData\Local\Temp\ccuARVJd.s:7156   .debug_str:0000000000004870 .LASF71
C:\Users\stapi\AppData\Local\Temp\ccuARVJd.s:6458   .debug_str:000000000000239f .LASF72
C:\Users\stapi\AppData\Local\Temp\ccuARVJd.s:5914   .debug_str:0000000000000826 .LASF73
C:\Users\stapi\AppData\Local\Temp\ccuARVJd.s:5818   .debug_str:000000000000034f .LASF74
C:\Users\stapi\AppData\Local\Temp\ccuARVJd.s:6784   .debug_str:0000000000003573 .LASF75
C:\Users\stapi\AppData\Local\Temp\ccuARVJd.s:6612   .debug_str:0000000000002b98 .LASF76
C:\Users\stapi\AppData\Local\Temp\ccuARVJd.s:6376   .debug_str:0000000000001f4d .LASF77
C:\Users\stapi\AppData\Local\Temp\ccuARVJd.s:5984   .debug_str:0000000000000bb1 .LASF78
C:\Users\stapi\AppData\Local\Temp\ccuARVJd.s:6328   .debug_str:0000000000001cd9 .LASF79
C:\Users\stapi\AppData\Local\Temp\ccuARVJd.s:6760   .debug_str:0000000000003336 .LASF80
C:\Users\stapi\AppData\Local\Temp\ccuARVJd.s:6236   .debug_str:0000000000001811 .LASF81
C:\Users\stapi\AppData\Local\Temp\ccuARVJd.s:6498   .debug_str:00000000000025d0 .LASF82
C:\Users\stapi\AppData\Local\Temp\ccuARVJd.s:6248   .debug_str:00000000000018c6 .LASF83
C:\Users\stapi\AppData\Local\Temp\ccuARVJd.s:7268   .debug_str:0000000000004e62 .LASF84
C:\Users\stapi\AppData\Local\Temp\ccuARVJd.s:6562   .debug_str:0000000000002924 .LASF85
C:\Users\stapi\AppData\Local\Temp\ccuARVJd.s:5768   .debug_str:00000000000000db .LASF86
C:\Users\stapi\AppData\Local\Temp\ccuARVJd.s:7358   .debug_str:0000000000005318 .LASF87
C:\Users\stapi\AppData\Local\Temp\ccuARVJd.s:5962   .debug_str:0000000000000aa4 .LASF88
C:\Users\stapi\AppData\Local\Temp\ccuARVJd.s:6066   .debug_str:0000000000000fd5 .LASF89
C:\Users\stapi\AppData\Local\Temp\ccuARVJd.s:6272   .debug_str:0000000000001a20 .LASF90
C:\Users\stapi\AppData\Local\Temp\ccuARVJd.s:7264   .debug_str:0000000000004e1c .LASF91
C:\Users\stapi\AppData\Local\Temp\ccuARVJd.s:5830   .debug_str:00000000000003db .LASF92
C:\Users\stapi\AppData\Local\Temp\ccuARVJd.s:6610   .debug_str:0000000000002b76 .LASF93
C:\Users\stapi\AppData\Local\Temp\ccuARVJd.s:6428   .debug_str:00000000000021f2 .LASF94
C:\Users\stapi\AppData\Local\Temp\ccuARVJd.s:7386   .debug_str:0000000000005484 .LASF95
C:\Users\stapi\AppData\Local\Temp\ccuARVJd.s:7396   .debug_str:0000000000005503 .LASF96
C:\Users\stapi\AppData\Local\Temp\ccuARVJd.s:7172   .debug_str:000000000000492e .LASF97
C:\Users\stapi\AppData\Local\Temp\ccuARVJd.s:6086   .debug_str:00000000000010f6 .LASF98
C:\Users\stapi\AppData\Local\Temp\ccuARVJd.s:6526   .debug_str:000000000000274d .LASF99
C:\Users\stapi\AppData\Local\Temp\ccuARVJd.s:6362   .debug_str:0000000000001e94 .LASF100
C:\Users\stapi\AppData\Local\Temp\ccuARVJd.s:7112   .debug_str:00000000000045fb .LASF101
C:\Users\stapi\AppData\Local\Temp\ccuARVJd.s:6180   .debug_str:0000000000001579 .LASF102
C:\Users\stapi\AppData\Local\Temp\ccuARVJd.s:6482   .debug_str:00000000000024e5 .LASF103
C:\Users\stapi\AppData\Local\Temp\ccuARVJd.s:6902   .debug_str:0000000000003b60 .LASF104
C:\Users\stapi\AppData\Local\Temp\ccuARVJd.s:6182   .debug_str:0000000000001599 .LASF105
C:\Users\stapi\AppData\Local\Temp\ccuARVJd.s:6352   .debug_str:0000000000001e0f .LASF106
C:\Users\stapi\AppData\Local\Temp\ccuARVJd.s:7208   .debug_str:0000000000004b63 .LASF107
C:\Users\stapi\AppData\Local\Temp\ccuARVJd.s:6600   .debug_str:0000000000002af0 .LASF108
C:\Users\stapi\AppData\Local\Temp\ccuARVJd.s:6244   .debug_str:0000000000001889 .LASF109
C:\Users\stapi\AppData\Local\Temp\ccuARVJd.s:6732   .debug_str:00000000000031d7 .LASF110
C:\Users\stapi\AppData\Local\Temp\ccuARVJd.s:6510   .debug_str:0000000000002666 .LASF111
C:\Users\stapi\AppData\Local\Temp\ccuARVJd.s:6846   .debug_str:0000000000003889 .LASF112
C:\Users\stapi\AppData\Local\Temp\ccuARVJd.s:5978   .debug_str:0000000000000b73 .LASF113
C:\Users\stapi\AppData\Local\Temp\ccuARVJd.s:7356   .debug_str:00000000000052fc .LASF114
C:\Users\stapi\AppData\Local\Temp\ccuARVJd.s:6950   .debug_str:0000000000003df7 .LASF115
C:\Users\stapi\AppData\Local\Temp\ccuARVJd.s:6818   .debug_str:000000000000371e .LASF116
C:\Users\stapi\AppData\Local\Temp\ccuARVJd.s:6710   .debug_str:00000000000030a7 .LASF117
C:\Users\stapi\AppData\Local\Temp\ccuARVJd.s:7244   .debug_str:0000000000004d3d .LASF118
C:\Users\stapi\AppData\Local\Temp\ccuARVJd.s:5992   .debug_str:0000000000000c20 .LASF119
C:\Users\stapi\AppData\Local\Temp\ccuARVJd.s:5894   .debug_str:00000000000006ff .LASF120
C:\Users\stapi\AppData\Local\Temp\ccuARVJd.s:7074   .debug_str:0000000000004410 .LASF121
C:\Users\stapi\AppData\Local\Temp\ccuARVJd.s:6786   .debug_str:0000000000003592 .LASF122
C:\Users\stapi\AppData\Local\Temp\ccuARVJd.s:7328   .debug_str:0000000000005167 .LASF123
C:\Users\stapi\AppData\Local\Temp\ccuARVJd.s:6746   .debug_str:00000000000032a0 .LASF124
C:\Users\stapi\AppData\Local\Temp\ccuARVJd.s:7058   .debug_str:0000000000004336 .LASF125
C:\Users\stapi\AppData\Local\Temp\ccuARVJd.s:6006   .debug_str:0000000000000cdf .LASF126
C:\Users\stapi\AppData\Local\Temp\ccuARVJd.s:5934   .debug_str:0000000000000925 .LASF127
C:\Users\stapi\AppData\Local\Temp\ccuARVJd.s:7026   .debug_str:00000000000041c4 .LASF128
C:\Users\stapi\AppData\Local\Temp\ccuARVJd.s:7228   .debug_str:0000000000004c7a .LASF129
C:\Users\stapi\AppData\Local\Temp\ccuARVJd.s:6834   .debug_str:00000000000037fb .LASF130
C:\Users\stapi\AppData\Local\Temp\ccuARVJd.s:6370   .debug_str:0000000000001f05 .LASF131
C:\Users\stapi\AppData\Local\Temp\ccuARVJd.s:6500   .debug_str:00000000000025ea .LASF132
C:\Users\stapi\AppData\Local\Temp\ccuARVJd.s:7158   .debug_str:0000000000004887 .LASF133
C:\Users\stapi\AppData\Local\Temp\ccuARVJd.s:6192   .debug_str:000000000000162d .LASF134
C:\Users\stapi\AppData\Local\Temp\ccuARVJd.s:5754   .debug_str:000000000000001a .LASF135
C:\Users\stapi\AppData\Local\Temp\ccuARVJd.s:6466   .debug_str:000000000000240d .LASF136
C:\Users\stapi\AppData\Local\Temp\ccuARVJd.s:6052   .debug_str:0000000000000f42 .LASF137
C:\Users\stapi\AppData\Local\Temp\ccuARVJd.s:7394   .debug_str:00000000000054ef .LASF138
C:\Users\stapi\AppData\Local\Temp\ccuARVJd.s:7242   .debug_str:0000000000004d1e .LASF139
C:\Users\stapi\AppData\Local\Temp\ccuARVJd.s:7374   .debug_str:00000000000053da .LASF140
C:\Users\stapi\AppData\Local\Temp\ccuARVJd.s:6560   .debug_str:0000000000002908 .LASF141
C:\Users\stapi\AppData\Local\Temp\ccuARVJd.s:6804   .debug_str:0000000000003672 .LASF142
C:\Users\stapi\AppData\Local\Temp\ccuARVJd.s:6974   .debug_str:0000000000003f4c .LASF143
C:\Users\stapi\AppData\Local\Temp\ccuARVJd.s:6694   .debug_str:0000000000002fe5 .LASF144
C:\Users\stapi\AppData\Local\Temp\ccuARVJd.s:6998   .debug_str:0000000000004072 .LASF145
C:\Users\stapi\AppData\Local\Temp\ccuARVJd.s:6242   .debug_str:0000000000001872 .LASF146
C:\Users\stapi\AppData\Local\Temp\ccuARVJd.s:7420   .debug_str:000000000000565b .LASF147
C:\Users\stapi\AppData\Local\Temp\ccuARVJd.s:6050   .debug_str:0000000000000f1d .LASF148
C:\Users\stapi\AppData\Local\Temp\ccuARVJd.s:7014   .debug_str:000000000000414e .LASF149
C:\Users\stapi\AppData\Local\Temp\ccuARVJd.s:6314   .debug_str:0000000000001c1a .LASF150
C:\Users\stapi\AppData\Local\Temp\ccuARVJd.s:6768   .debug_str:0000000000003487 .LASF151
C:\Users\stapi\AppData\Local\Temp\ccuARVJd.s:7226   .debug_str:0000000000004c55 .LASF152
C:\Users\stapi\AppData\Local\Temp\ccuARVJd.s:5854   .debug_str:0000000000000532 .LASF153
C:\Users\stapi\AppData\Local\Temp\ccuARVJd.s:6102   .debug_str:00000000000011f1 .LASF154
C:\Users\stapi\AppData\Local\Temp\ccuARVJd.s:5864   .debug_str:00000000000005a9 .LASF155
C:\Users\stapi\AppData\Local\Temp\ccuARVJd.s:6318   .debug_str:0000000000001c54 .LASF156
C:\Users\stapi\AppData\Local\Temp\ccuARVJd.s:6774   .debug_str:00000000000034ed .LASF157
C:\Users\stapi\AppData\Local\Temp\ccuARVJd.s:6494   .debug_str:0000000000002584 .LASF158
C:\Users\stapi\AppData\Local\Temp\ccuARVJd.s:6390   .debug_str:0000000000002020 .LASF159
C:\Users\stapi\AppData\Local\Temp\ccuARVJd.s:6090   .debug_str:0000000000001130 .LASF160
C:\Users\stapi\AppData\Local\Temp\ccuARVJd.s:5966   .debug_str:0000000000000ae3 .LASF161
C:\Users\stapi\AppData\Local\Temp\ccuARVJd.s:6852   .debug_str:00000000000038eb .LASF162
C:\Users\stapi\AppData\Local\Temp\ccuARVJd.s:5838   .debug_str:0000000000000455 .LASF163
C:\Users\stapi\AppData\Local\Temp\ccuARVJd.s:5908   .debug_str:00000000000007c1 .LASF164
C:\Users\stapi\AppData\Local\Temp\ccuARVJd.s:6104   .debug_str:0000000000001217 .LASF165
C:\Users\stapi\AppData\Local\Temp\ccuARVJd.s:6038   .debug_str:0000000000000e6b .LASF166
C:\Users\stapi\AppData\Local\Temp\ccuARVJd.s:7348   .debug_str:00000000000052a0 .LASF167
C:\Users\stapi\AppData\Local\Temp\ccuARVJd.s:7302   .debug_str:000000000000500f .LASF168
C:\Users\stapi\AppData\Local\Temp\ccuARVJd.s:6426   .debug_str:00000000000021d5 .LASF169
C:\Users\stapi\AppData\Local\Temp\ccuARVJd.s:6338   .debug_str:0000000000001d4e .LASF170
C:\Users\stapi\AppData\Local\Temp\ccuARVJd.s:6294   .debug_str:0000000000001b22 .LASF171
C:\Users\stapi\AppData\Local\Temp\ccuARVJd.s:6842   .debug_str:0000000000003855 .LASF172
C:\Users\stapi\AppData\Local\Temp\ccuARVJd.s:7132   .debug_str:000000000000470a .LASF173
C:\Users\stapi\AppData\Local\Temp\ccuARVJd.s:6716   .debug_str:00000000000030e1 .LASF174
C:\Users\stapi\AppData\Local\Temp\ccuARVJd.s:6942   .debug_str:0000000000003d77 .LASF175
C:\Users\stapi\AppData\Local\Temp\ccuARVJd.s:6250   .debug_str:00000000000018e4 .LASF176
C:\Users\stapi\AppData\Local\Temp\ccuARVJd.s:6570   .debug_str:0000000000002990 .LASF177
C:\Users\stapi\AppData\Local\Temp\ccuARVJd.s:7094   .debug_str:00000000000044fc .LASF178
C:\Users\stapi\AppData\Local\Temp\ccuARVJd.s:7296   .debug_str:0000000000004fb8 .LASF179
C:\Users\stapi\AppData\Local\Temp\ccuARVJd.s:6858   .debug_str:0000000000003940 .LASF180
C:\Users\stapi\AppData\Local\Temp\ccuARVJd.s:6028   .debug_str:0000000000000de8 .LASF181
C:\Users\stapi\AppData\Local\Temp\ccuARVJd.s:6598   .debug_str:0000000000002ad8 .LASF182
C:\Users\stapi\AppData\Local\Temp\ccuARVJd.s:7034   .debug_str:000000000000421e .LASF183
C:\Users\stapi\AppData\Local\Temp\ccuARVJd.s:6504   .debug_str:000000000000260c .LASF184
C:\Users\stapi\AppData\Local\Temp\ccuARVJd.s:7372   .debug_str:00000000000053b7 .LASF185
C:\Users\stapi\AppData\Local\Temp\ccuARVJd.s:7384   .debug_str:0000000000005468 .LASF186
C:\Users\stapi\AppData\Local\Temp\ccuARVJd.s:5802   .debug_str:0000000000000297 .LASF187
C:\Users\stapi\AppData\Local\Temp\ccuARVJd.s:6890   .debug_str:0000000000003ab1 .LASF188
C:\Users\stapi\AppData\Local\Temp\ccuARVJd.s:5942   .debug_str:00000000000009a7 .LASF189
C:\Users\stapi\AppData\Local\Temp\ccuARVJd.s:6384   .debug_str:0000000000001fc5 .LASF190
C:\Users\stapi\AppData\Local\Temp\ccuARVJd.s:6322   .debug_str:0000000000001c89 .LASF191
C:\Users\stapi\AppData\Local\Temp\ccuARVJd.s:6734   .debug_str:0000000000003201 .LASF192
C:\Users\stapi\AppData\Local\Temp\ccuARVJd.s:5938   .debug_str:0000000000000960 .LASF193
C:\Users\stapi\AppData\Local\Temp\ccuARVJd.s:5788   .debug_str:00000000000001ef .LASF194
C:\Users\stapi\AppData\Local\Temp\ccuARVJd.s:6092   .debug_str:0000000000001152 .LASF195
C:\Users\stapi\AppData\Local\Temp\ccuARVJd.s:6134   .debug_str:000000000000138a .LASF196
C:\Users\stapi\AppData\Local\Temp\ccuARVJd.s:6742   .debug_str:000000000000326a .LASF197
C:\Users\stapi\AppData\Local\Temp\ccuARVJd.s:6270   .debug_str:00000000000019fe .LASF198
C:\Users\stapi\AppData\Local\Temp\ccuARVJd.s:5884   .debug_str:0000000000000674 .LASF199
C:\Users\stapi\AppData\Local\Temp\ccuARVJd.s:5852   .debug_str:0000000000000510 .LASF200
C:\Users\stapi\AppData\Local\Temp\ccuARVJd.s:6954   .debug_str:0000000000003e32 .LASF201
C:\Users\stapi\AppData\Local\Temp\ccuARVJd.s:6514   .debug_str:00000000000026a9 .LASF202
C:\Users\stapi\AppData\Local\Temp\ccuARVJd.s:7176   .debug_str:000000000000496f .LASF203
C:\Users\stapi\AppData\Local\Temp\ccuARVJd.s:6922   .debug_str:0000000000003c70 .LASF204
C:\Users\stapi\AppData\Local\Temp\ccuARVJd.s:5794   .debug_str:0000000000000249 .LASF205
C:\Users\stapi\AppData\Local\Temp\ccuARVJd.s:6582   .debug_str:0000000000002a14 .LASF206
C:\Users\stapi\AppData\Local\Temp\ccuARVJd.s:6148   .debug_str:0000000000001425 .LASF207
C:\Users\stapi\AppData\Local\Temp\ccuARVJd.s:5834   .debug_str:0000000000000417 .LASF208
C:\Users\stapi\AppData\Local\Temp\ccuARVJd.s:6144   .debug_str:00000000000013f5 .LASF209
C:\Users\stapi\AppData\Local\Temp\ccuARVJd.s:6278   .debug_str:0000000000001a6c .LASF210
C:\Users\stapi\AppData\Local\Temp\ccuARVJd.s:6712   .debug_str:00000000000030bf .LASF211
C:\Users\stapi\AppData\Local\Temp\ccuARVJd.s:6332   .debug_str:0000000000001d0e .LASF212
C:\Users\stapi\AppData\Local\Temp\ccuARVJd.s:6176   .debug_str:0000000000001557 .LASF218
C:\Users\stapi\AppData\Local\Temp\ccuARVJd.s:6308   .debug_str:0000000000001bd6 .LASF213
C:\Users\stapi\AppData\Local\Temp\ccuARVJd.s:6398   .debug_str:0000000000002094 .LASF214
C:\Users\stapi\AppData\Local\Temp\ccuARVJd.s:7050   .debug_str:00000000000042cf .LASF215
C:\Users\stapi\AppData\Local\Temp\ccuARVJd.s:5850   .debug_str:00000000000004f1 .LASF216
C:\Users\stapi\AppData\Local\Temp\ccuARVJd.s:6128   .debug_str:0000000000001337 .LASF217
C:\Users\stapi\AppData\Local\Temp\ccuARVJd.s:6750   .debug_str:00000000000032ce .LASF219
C:\Users\stapi\AppData\Local\Temp\ccuARVJd.s:6252   .debug_str:0000000000001904 .LASF220
C:\Users\stapi\AppData\Local\Temp\ccuARVJd.s:6576   .debug_str:00000000000029d0 .LASF221
C:\Users\stapi\AppData\Local\Temp\ccuARVJd.s:6324   .debug_str:0000000000001ca6 .LASF222
C:\Users\stapi\AppData\Local\Temp\ccuARVJd.s:7052   .debug_str:00000000000042ed .LASF223
C:\Users\stapi\AppData\Local\Temp\ccuARVJd.s:6660   .debug_str:0000000000002e55 .LASF224
C:\Users\stapi\AppData\Local\Temp\ccuARVJd.s:6558   .debug_str:00000000000028f2 .LASF225
C:\Users\stapi\AppData\Local\Temp\ccuARVJd.s:7234   .debug_str:0000000000004cba .LASF226
C:\Users\stapi\AppData\Local\Temp\ccuARVJd.s:7310   .debug_str:0000000000005078 .LASF227
C:\Users\stapi\AppData\Local\Temp\ccuARVJd.s:7248   .debug_str:0000000000004d69 .LASF228
C:\Users\stapi\AppData\Local\Temp\ccuARVJd.s:6704   .debug_str:0000000000003067 .LASF229
C:\Users\stapi\AppData\Local\Temp\ccuARVJd.s:6292   .debug_str:0000000000001b0b .LASF230
C:\Users\stapi\AppData\Local\Temp\ccuARVJd.s:7036   .debug_str:000000000000423f .LASF231
C:\Users\stapi\AppData\Local\Temp\ccuARVJd.s:5970   .debug_str:0000000000000b11 .LASF232
C:\Users\stapi\AppData\Local\Temp\ccuARVJd.s:6402   .debug_str:00000000000020d3 .LASF233
C:\Users\stapi\AppData\Local\Temp\ccuARVJd.s:7164   .debug_str:00000000000048d8 .LASF234
C:\Users\stapi\AppData\Local\Temp\ccuARVJd.s:5804   .debug_str:00000000000002ba .LASF235
C:\Users\stapi\AppData\Local\Temp\ccuARVJd.s:7230   .debug_str:0000000000004c93 .LASF236
C:\Users\stapi\AppData\Local\Temp\ccuARVJd.s:7288   .debug_str:0000000000004f6e .LASF237
C:\Users\stapi\AppData\Local\Temp\ccuARVJd.s:6056   .debug_str:0000000000000f7d .LASF238
C:\Users\stapi\AppData\Local\Temp\ccuARVJd.s:6810   .debug_str:00000000000036c2 .LASF239
C:\Users\stapi\AppData\Local\Temp\ccuARVJd.s:5980   .debug_str:0000000000000b90 .LASF240
C:\Users\stapi\AppData\Local\Temp\ccuARVJd.s:6566   .debug_str:000000000000295d .LASF241
C:\Users\stapi\AppData\Local\Temp\ccuARVJd.s:6854   .debug_str:000000000000390a .LASF242
C:\Users\stapi\AppData\Local\Temp\ccuARVJd.s:7192   .debug_str:0000000000004aa4 .LASF243
C:\Users\stapi\AppData\Local\Temp\ccuARVJd.s:6884   .debug_str:0000000000003a70 .LASF244
C:\Users\stapi\AppData\Local\Temp\ccuARVJd.s:7060   .debug_str:0000000000004350 .LASF245
C:\Users\stapi\AppData\Local\Temp\ccuARVJd.s:7292   .debug_str:0000000000004f9f .LASF246
C:\Users\stapi\AppData\Local\Temp\ccuARVJd.s:6586   .debug_str:0000000000002a3e .LASF247
C:\Users\stapi\AppData\Local\Temp\ccuARVJd.s:5882   .debug_str:000000000000066d .LASF248
C:\Users\stapi\AppData\Local\Temp\ccuARVJd.s:7190   .debug_str:0000000000004a9a .LASF249
C:\Users\stapi\AppData\Local\Temp\ccuARVJd.s:6218   .debug_str:0000000000001779 .LASF250
C:\Users\stapi\AppData\Local\Temp\ccuARVJd.s:7318   .debug_str:00000000000050e4 .LASF251
C:\Users\stapi\AppData\Local\Temp\ccuARVJd.s:6410   .debug_str:000000000000213d .LASF252
C:\Users\stapi\AppData\Local\Temp\ccuARVJd.s:6234   .debug_str:00000000000017fb .LASF253
C:\Users\stapi\AppData\Local\Temp\ccuARVJd.s:6862   .debug_str:000000000000397d .LASF254
C:\Users\stapi\AppData\Local\Temp\ccuARVJd.s:6334   .debug_str:0000000000001d1b .LASF255
C:\Users\stapi\AppData\Local\Temp\ccuARVJd.s:5968   .debug_str:0000000000000b00 .LASF256
C:\Users\stapi\AppData\Local\Temp\ccuARVJd.s:6024   .debug_str:0000000000000dbe .LASF257
C:\Users\stapi\AppData\Local\Temp\ccuARVJd.s:5866   .debug_str:00000000000005c0 .LASF258
C:\Users\stapi\AppData\Local\Temp\ccuARVJd.s:6738   .debug_str:0000000000003243 .LASF259
C:\Users\stapi\AppData\Local\Temp\ccuARVJd.s:6114   .debug_str:0000000000001298 .LASF260
C:\Users\stapi\AppData\Local\Temp\ccuARVJd.s:7298   .debug_str:0000000000004fe1 .LASF261
C:\Users\stapi\AppData\Local\Temp\ccuARVJd.s:7018   .debug_str:0000000000004180 .LASF262
C:\Users\stapi\AppData\Local\Temp\ccuARVJd.s:6172   .debug_str:000000000000152c .LASF263
C:\Users\stapi\AppData\Local\Temp\ccuARVJd.s:6888   .debug_str:0000000000003a9c .LASF264
C:\Users\stapi\AppData\Local\Temp\ccuARVJd.s:6908   .debug_str:0000000000003bbf .LASF265
C:\Users\stapi\AppData\Local\Temp\ccuARVJd.s:5880   .debug_str:0000000000000658 .LASF266
C:\Users\stapi\AppData\Local\Temp\ccuARVJd.s:5930   .debug_str:00000000000008fc .LASF267
C:\Users\stapi\AppData\Local\Temp\ccuARVJd.s:6662   .debug_str:0000000000002e71 .LASF268
C:\Users\stapi\AppData\Local\Temp\ccuARVJd.s:7082   .debug_str:000000000000445b .LASF269
C:\Users\stapi\AppData\Local\Temp\ccuARVJd.s:6388   .debug_str:0000000000002005 .LASF270
C:\Users\stapi\AppData\Local\Temp\ccuARVJd.s:6588   .debug_str:0000000000002a45 .LASF271
C:\Users\stapi\AppData\Local\Temp\ccuARVJd.s:6448   .debug_str:000000000000232e .LASF272
C:\Users\stapi\AppData\Local\Temp\ccuARVJd.s:7194   .debug_str:0000000000004ab2 .LASF273
C:\Users\stapi\AppData\Local\Temp\ccuARVJd.s:6850   .debug_str:00000000000038d6 .LASF274
C:\Users\stapi\AppData\Local\Temp\ccuARVJd.s:5956   .debug_str:0000000000000a5e .LASF275
C:\Users\stapi\AppData\Local\Temp\ccuARVJd.s:6020   .debug_str:0000000000000d8f .LASF276
C:\Users\stapi\AppData\Local\Temp\ccuARVJd.s:6756   .debug_str:0000000000003307 .LASF277
C:\Users\stapi\AppData\Local\Temp\ccuARVJd.s:7198   .debug_str:0000000000004ae9 .LASF278
C:\Users\stapi\AppData\Local\Temp\ccuARVJd.s:6288   .debug_str:0000000000001ae0 .LASF279
C:\Users\stapi\AppData\Local\Temp\ccuARVJd.s:6342   .debug_str:0000000000001d80 .LASF280
C:\Users\stapi\AppData\Local\Temp\ccuARVJd.s:7086   .debug_str:0000000000004492 .LASF281
C:\Users\stapi\AppData\Local\Temp\ccuARVJd.s:6476   .debug_str:0000000000002497 .LASF282
C:\Users\stapi\AppData\Local\Temp\ccuARVJd.s:7216   .debug_str:0000000000004bd5 .LASF283
C:\Users\stapi\AppData\Local\Temp\ccuARVJd.s:6044   .debug_str:0000000000000ebd .LASF284
C:\Users\stapi\AppData\Local\Temp\ccuARVJd.s:6772   .debug_str:00000000000034d8 .LASF285
C:\Users\stapi\AppData\Local\Temp\ccuARVJd.s:6992   .debug_str:000000000000403e .LASF286
C:\Users\stapi\AppData\Local\Temp\ccuARVJd.s:6100   .debug_str:00000000000011db .LASF287
C:\Users\stapi\AppData\Local\Temp\ccuARVJd.s:5798   .debug_str:0000000000000277 .LASF288
C:\Users\stapi\AppData\Local\Temp\ccuARVJd.s:6658   .debug_str:0000000000002e40 .LASF289
C:\Users\stapi\AppData\Local\Temp\ccuARVJd.s:5900   .debug_str:000000000000074c .LASF290
C:\Users\stapi\AppData\Local\Temp\ccuARVJd.s:6372   .debug_str:0000000000001f20 .LASF291
C:\Users\stapi\AppData\Local\Temp\ccuARVJd.s:6898   .debug_str:0000000000003b28 .LASF292
C:\Users\stapi\AppData\Local\Temp\ccuARVJd.s:5766   .debug_str:00000000000000c5 .LASF293
C:\Users\stapi\AppData\Local\Temp\ccuARVJd.s:7354   .debug_str:00000000000052df .LASF294
C:\Users\stapi\AppData\Local\Temp\ccuARVJd.s:6156   .debug_str:0000000000001484 .LASF295
C:\Users\stapi\AppData\Local\Temp\ccuARVJd.s:6282   .debug_str:0000000000001a9f .LASF296
C:\Users\stapi\AppData\Local\Temp\ccuARVJd.s:6624   .debug_str:0000000000002c40 .LASF297
C:\Users\stapi\AppData\Local\Temp\ccuARVJd.s:7240   .debug_str:0000000000004d02 .LASF298
C:\Users\stapi\AppData\Local\Temp\ccuARVJd.s:6938   .debug_str:0000000000003d36 .LASF299
C:\Users\stapi\AppData\Local\Temp\ccuARVJd.s:6968   .debug_str:0000000000003ef0 .LASF300
C:\Users\stapi\AppData\Local\Temp\ccuARVJd.s:6170   .debug_str:0000000000001515 .LASF301
C:\Users\stapi\AppData\Local\Temp\ccuARVJd.s:6874   .debug_str:0000000000003a0a .LASF302
C:\Users\stapi\AppData\Local\Temp\ccuARVJd.s:7148   .debug_str:00000000000047f9 .LASF303
C:\Users\stapi\AppData\Local\Temp\ccuARVJd.s:7398   .debug_str:000000000000552d .LASF304
C:\Users\stapi\AppData\Local\Temp\ccuARVJd.s:5816   .debug_str:0000000000000332 .LASF305
C:\Users\stapi\AppData\Local\Temp\ccuARVJd.s:6074   .debug_str:0000000000001044 .LASF306
C:\Users\stapi\AppData\Local\Temp\ccuARVJd.s:6880   .debug_str:0000000000003a4c .LASF307
C:\Users\stapi\AppData\Local\Temp\ccuARVJd.s:6828   .debug_str:00000000000037ac .LASF308
C:\Users\stapi\AppData\Local\Temp\ccuARVJd.s:6490   .debug_str:000000000000254c .LASF309
C:\Users\stapi\AppData\Local\Temp\ccuARVJd.s:6944   .debug_str:0000000000003d96 .LASF310
C:\Users\stapi\AppData\Local\Temp\ccuARVJd.s:6452   .debug_str:0000000000002357 .LASF311
C:\Users\stapi\AppData\Local\Temp\ccuARVJd.s:6972   .debug_str:0000000000003f30 .LASF312
C:\Users\stapi\AppData\Local\Temp\ccuARVJd.s:7024   .debug_str:00000000000041ad .LASF313
C:\Users\stapi\AppData\Local\Temp\ccuARVJd.s:5756   .debug_str:0000000000000037 .LASF314
C:\Users\stapi\AppData\Local\Temp\ccuARVJd.s:6016   .debug_str:0000000000000d5a .LASF315
C:\Users\stapi\AppData\Local\Temp\ccuARVJd.s:6444   .debug_str:00000000000022f0 .LASF316
C:\Users\stapi\AppData\Local\Temp\ccuARVJd.s:5892   .debug_str:00000000000006dc .LASF317
C:\Users\stapi\AppData\Local\Temp\ccuARVJd.s:6330   .debug_str:0000000000001cf3 .LASF318
C:\Users\stapi\AppData\Local\Temp\ccuARVJd.s:6508   .debug_str:0000000000002641 .LASF319
C:\Users\stapi\AppData\Local\Temp\ccuARVJd.s:6200   .debug_str:0000000000001698 .LASF320
C:\Users\stapi\AppData\Local\Temp\ccuARVJd.s:6382   .debug_str:0000000000001fa7 .LASF321
C:\Users\stapi\AppData\Local\Temp\ccuARVJd.s:6702   .debug_str:0000000000003050 .LASF322
C:\Users\stapi\AppData\Local\Temp\ccuARVJd.s:6260   .debug_str:0000000000001975 .LASF323
C:\Users\stapi\AppData\Local\Temp\ccuARVJd.s:7204   .debug_str:0000000000004b30 .LASF324
C:\Users\stapi\AppData\Local\Temp\ccuARVJd.s:6366   .debug_str:0000000000001ebe .LASF325
C:\Users\stapi\AppData\Local\Temp\ccuARVJd.s:7308   .debug_str:0000000000005060 .LASF326
C:\Users\stapi\AppData\Local\Temp\ccuARVJd.s:6456   .debug_str:000000000000237f .LASF327
C:\Users\stapi\AppData\Local\Temp\ccuARVJd.s:6782   .debug_str:0000000000003557 .LASF328
C:\Users\stapi\AppData\Local\Temp\ccuARVJd.s:6832   .debug_str:00000000000037e3 .LASF329
C:\Users\stapi\AppData\Local\Temp\ccuARVJd.s:6126   .debug_str:0000000000001316 .LASF330
C:\Users\stapi\AppData\Local\Temp\ccuARVJd.s:6792   .debug_str:00000000000035ee .LASF331
C:\Users\stapi\AppData\Local\Temp\ccuARVJd.s:6696   .debug_str:0000000000002ffc .LASF332
C:\Users\stapi\AppData\Local\Temp\ccuARVJd.s:6374   .debug_str:0000000000001f35 .LASF333
C:\Users\stapi\AppData\Local\Temp\ccuARVJd.s:6866   .debug_str:00000000000039a6 .LASF334
C:\Users\stapi\AppData\Local\Temp\ccuARVJd.s:7142   .debug_str:0000000000004790 .LASF335
C:\Users\stapi\AppData\Local\Temp\ccuARVJd.s:6188   .debug_str:00000000000015f9 .LASF336
C:\Users\stapi\AppData\Local\Temp\ccuARVJd.s:7422   .debug_str:0000000000005677 .LASF337
C:\Users\stapi\AppData\Local\Temp\ccuARVJd.s:7154   .debug_str:0000000000004852 .LASF338
C:\Users\stapi\AppData\Local\Temp\ccuARVJd.s:6408   .debug_str:0000000000002117 .LASF339
C:\Users\stapi\AppData\Local\Temp\ccuARVJd.s:5764   .debug_str:00000000000000aa .LASF340
C:\Users\stapi\AppData\Local\Temp\ccuARVJd.s:6108   .debug_str:0000000000001251 .LASF341
C:\Users\stapi\AppData\Local\Temp\ccuARVJd.s:7116   .debug_str:000000000000462e .LASF342
C:\Users\stapi\AppData\Local\Temp\ccuARVJd.s:5842   .debug_str:0000000000000489 .LASF343
C:\Users\stapi\AppData\Local\Temp\ccuARVJd.s:6952   .debug_str:0000000000003e13 .LASF344
C:\Users\stapi\AppData\Local\Temp\ccuARVJd.s:6396   .debug_str:000000000000206e .LASF345
C:\Users\stapi\AppData\Local\Temp\ccuARVJd.s:6058   .debug_str:0000000000000f8e .LASF346
C:\Users\stapi\AppData\Local\Temp\ccuARVJd.s:7408   .debug_str:00000000000055c2 .LASF347
C:\Users\stapi\AppData\Local\Temp\ccuARVJd.s:7162   .debug_str:00000000000048bc .LASF348
C:\Users\stapi\AppData\Local\Temp\ccuARVJd.s:6720   .debug_str:0000000000003119 .LASF349
C:\Users\stapi\AppData\Local\Temp\ccuARVJd.s:6054   .debug_str:0000000000000f57 .LASF350
C:\Users\stapi\AppData\Local\Temp\ccuARVJd.s:6654   .debug_str:0000000000002e01 .LASF351
C:\Users\stapi\AppData\Local\Temp\ccuARVJd.s:7174   .debug_str:0000000000004958 .LASF352
C:\Users\stapi\AppData\Local\Temp\ccuARVJd.s:5826   .debug_str:00000000000003b9 .LASF353
C:\Users\stapi\AppData\Local\Temp\ccuARVJd.s:5872   .debug_str:0000000000000602 .LASF354
C:\Users\stapi\AppData\Local\Temp\ccuARVJd.s:5878   .debug_str:0000000000000643 .LASF355
C:\Users\stapi\AppData\Local\Temp\ccuARVJd.s:6708   .debug_str:0000000000003092 .LASF356
C:\Users\stapi\AppData\Local\Temp\ccuARVJd.s:7118   .debug_str:0000000000004650 .LASF357
C:\Users\stapi\AppData\Local\Temp\ccuARVJd.s:6160   .debug_str:00000000000014ae .LASF358
C:\Users\stapi\AppData\Local\Temp\ccuARVJd.s:6936   .debug_str:0000000000003d20 .LASF359
C:\Users\stapi\AppData\Local\Temp\ccuARVJd.s:5918   .debug_str:0000000000000857 .LASF360
C:\Users\stapi\AppData\Local\Temp\ccuARVJd.s:7002   .debug_str:00000000000040ab .LASF361
C:\Users\stapi\AppData\Local\Temp\ccuARVJd.s:7104   .debug_str:0000000000004585 .LASF362
C:\Users\stapi\AppData\Local\Temp\ccuARVJd.s:6268   .debug_str:00000000000019de .LASF363
C:\Users\stapi\AppData\Local\Temp\ccuARVJd.s:5924   .debug_str:00000000000008ab .LASF364
C:\Users\stapi\AppData\Local\Temp\ccuARVJd.s:6012   .debug_str:0000000000000d23 .LASF365
C:\Users\stapi\AppData\Local\Temp\ccuARVJd.s:7072   .debug_str:00000000000043f2 .LASF366
C:\Users\stapi\AppData\Local\Temp\ccuARVJd.s:7012   .debug_str:000000000000412d .LASF367
C:\Users\stapi\AppData\Local\Temp\ccuARVJd.s:6078   .debug_str:0000000000001078 .LASF368
C:\Users\stapi\AppData\Local\Temp\ccuARVJd.s:5964   .debug_str:0000000000000ac4 .LASF369
C:\Users\stapi\AppData\Local\Temp\ccuARVJd.s:7416   .debug_str:000000000000561a .LASF370
C:\Users\stapi\AppData\Local\Temp\ccuARVJd.s:5912   .debug_str:0000000000000800 .LASF371
C:\Users\stapi\AppData\Local\Temp\ccuARVJd.s:7006   .debug_str:00000000000040e0 .LASF372
C:\Users\stapi\AppData\Local\Temp\ccuARVJd.s:6420   .debug_str:00000000000021a3 .LASF373
C:\Users\stapi\AppData\Local\Temp\ccuARVJd.s:5940   .debug_str:0000000000000983 .LASF374
C:\Users\stapi\AppData\Local\Temp\ccuARVJd.s:5896   .debug_str:0000000000000719 .LASF375
C:\Users\stapi\AppData\Local\Temp\ccuARVJd.s:7016   .debug_str:0000000000004168 .LASF376
C:\Users\stapi\AppData\Local\Temp\ccuARVJd.s:6304   .debug_str:0000000000001ba7 .LASF377
C:\Users\stapi\AppData\Local\Temp\ccuARVJd.s:6460   .debug_str:00000000000023bc .LASF378
C:\Users\stapi\AppData\Local\Temp\ccuARVJd.s:7028   .debug_str:00000000000041dd .LASF379
C:\Users\stapi\AppData\Local\Temp\ccuARVJd.s:7300   .debug_str:0000000000004ffb .LASF380
C:\Users\stapi\AppData\Local\Temp\ccuARVJd.s:6962   .debug_str:0000000000003ea5 .LASF381
C:\Users\stapi\AppData\Local\Temp\ccuARVJd.s:6256   .debug_str:000000000000193a .LASF382
C:\Users\stapi\AppData\Local\Temp\ccuARVJd.s:6530   .debug_str:000000000000278c .LASF383
C:\Users\stapi\AppData\Local\Temp\ccuARVJd.s:6506   .debug_str:000000000000262d .LASF384
C:\Users\stapi\AppData\Local\Temp\ccuARVJd.s:6580   .debug_str:0000000000002a02 .LASF385
C:\Users\stapi\AppData\Local\Temp\ccuARVJd.s:7218   .debug_str:0000000000004beb .LASF386
C:\Users\stapi\AppData\Local\Temp\ccuARVJd.s:6140   .debug_str:00000000000013c9 .LASF387
C:\Users\stapi\AppData\Local\Temp\ccuARVJd.s:5822   .debug_str:0000000000000381 .LASF388
C:\Users\stapi\AppData\Local\Temp\ccuARVJd.s:7256   .debug_str:0000000000004dcc .LASF389
C:\Users\stapi\AppData\Local\Temp\ccuARVJd.s:6174   .debug_str:0000000000001541 .LASF390
C:\Users\stapi\AppData\Local\Temp\ccuARVJd.s:6656   .debug_str:0000000000002e2c .LASF391
C:\Users\stapi\AppData\Local\Temp\ccuARVJd.s:6122   .debug_str:00000000000012e0 .LASF392
C:\Users\stapi\AppData\Local\Temp\ccuARVJd.s:7042   .debug_str:000000000000428a .LASF393
C:\Users\stapi\AppData\Local\Temp\ccuARVJd.s:6360   .debug_str:0000000000001e81 .LASF394
C:\Users\stapi\AppData\Local\Temp\ccuARVJd.s:6232   .debug_str:00000000000017e5 .LASF395
C:\Users\stapi\AppData\Local\Temp\ccuARVJd.s:6116   .debug_str:00000000000012ad .LASF396
C:\Users\stapi\AppData\Local\Temp\ccuARVJd.s:6368   .debug_str:0000000000001ee9 .LASF397
C:\Users\stapi\AppData\Local\Temp\ccuARVJd.s:5846   .debug_str:00000000000004c8 .LASF398
C:\Users\stapi\AppData\Local\Temp\ccuARVJd.s:6010   .debug_str:0000000000000d04 .LASF399
C:\Users\stapi\AppData\Local\Temp\ccuARVJd.s:6336   .debug_str:0000000000001d2e .LASF400
C:\Users\stapi\AppData\Local\Temp\ccuARVJd.s:6924   .debug_str:0000000000003c83 .LASF401
C:\Users\stapi\AppData\Local\Temp\ccuARVJd.s:5844   .debug_str:00000000000004a7 .LASF402
C:\Users\stapi\AppData\Local\Temp\ccuARVJd.s:6802   .debug_str:0000000000003653 .LASF403
C:\Users\stapi\AppData\Local\Temp\ccuARVJd.s:6886   .debug_str:0000000000003a7a .LASF404
C:\Users\stapi\AppData\Local\Temp\ccuARVJd.s:6638   .debug_str:0000000000002ccd .LASF405
C:\Users\stapi\AppData\Local\Temp\ccuARVJd.s:6664   .debug_str:0000000000002e87 .LASF406
C:\Users\stapi\AppData\Local\Temp\ccuARVJd.s:6124   .debug_str:00000000000012f2 .LASF407
C:\Users\stapi\AppData\Local\Temp\ccuARVJd.s:5994   .debug_str:0000000000000c32 .LASF408
C:\Users\stapi\AppData\Local\Temp\ccuARVJd.s:6540   .debug_str:00000000000027fb .LASF409
C:\Users\stapi\AppData\Local\Temp\ccuARVJd.s:5836   .debug_str:000000000000042d .LASF410
C:\Users\stapi\AppData\Local\Temp\ccuARVJd.s:6722   .debug_str:000000000000313f .LASF411
C:\Users\stapi\AppData\Local\Temp\ccuARVJd.s:5898   .debug_str:000000000000072e .LASF412
C:\Users\stapi\AppData\Local\Temp\ccuARVJd.s:5950   .debug_str:0000000000000a09 .LASF413
C:\Users\stapi\AppData\Local\Temp\ccuARVJd.s:5904   .debug_str:000000000000077c .LASF414
C:\Users\stapi\AppData\Local\Temp\ccuARVJd.s:6152   .debug_str:0000000000001458 .LASF415
C:\Users\stapi\AppData\Local\Temp\ccuARVJd.s:6960   .debug_str:0000000000003e88 .LASF416
C:\Users\stapi\AppData\Local\Temp\ccuARVJd.s:7376   .debug_str:00000000000053fb .LASF417
C:\Users\stapi\AppData\Local\Temp\ccuARVJd.s:7278   .debug_str:0000000000004edf .LASF418
C:\Users\stapi\AppData\Local\Temp\ccuARVJd.s:7340   .debug_str:000000000000521e .LASF419
C:\Users\stapi\AppData\Local\Temp\ccuARVJd.s:6470   .debug_str:000000000000243d .LASF420
C:\Users\stapi\AppData\Local\Temp\ccuARVJd.s:6602   .debug_str:0000000000002b0e .LASF421
C:\Users\stapi\AppData\Local\Temp\ccuARVJd.s:7210   .debug_str:0000000000004b85 .LASF422
C:\Users\stapi\AppData\Local\Temp\ccuARVJd.s:5944   .debug_str:00000000000009c0 .LASF423
C:\Users\stapi\AppData\Local\Temp\ccuARVJd.s:7084   .debug_str:0000000000004477 .LASF424
C:\Users\stapi\AppData\Local\Temp\ccuARVJd.s:6464   .debug_str:00000000000023f2 .LASF425
C:\Users\stapi\AppData\Local\Temp\ccuARVJd.s:6698   .debug_str:000000000000301b .LASF426
C:\Users\stapi\AppData\Local\Temp\ccuARVJd.s:5990   .debug_str:0000000000000c0a .LASF427
C:\Users\stapi\AppData\Local\Temp\ccuARVJd.s:6816   .debug_str:000000000000370a .LASF428
C:\Users\stapi\AppData\Local\Temp\ccuARVJd.s:6450   .debug_str:0000000000002343 .LASF429
C:\Users\stapi\AppData\Local\Temp\ccuARVJd.s:7294   .debug_str:0000000000004fa6 .LASF430
C:\Users\stapi\AppData\Local\Temp\ccuARVJd.s:7258   .debug_str:0000000000004de0 .LASF431
C:\Users\stapi\AppData\Local\Temp\ccuARVJd.s:7182   .debug_str:0000000000004a34 .LASF432
C:\Users\stapi\AppData\Local\Temp\ccuARVJd.s:6640   .debug_str:0000000000002ce8 .LASF433
C:\Users\stapi\AppData\Local\Temp\ccuARVJd.s:6928   .debug_str:0000000000003cbb .LASF434
C:\Users\stapi\AppData\Local\Temp\ccuARVJd.s:5948   .debug_str:00000000000009f6 .LASF435
C:\Users\stapi\AppData\Local\Temp\ccuARVJd.s:7010   .debug_str:0000000000004119 .LASF436
C:\Users\stapi\AppData\Local\Temp\ccuARVJd.s:7388   .debug_str:00000000000054a7 .LASF437
C:\Users\stapi\AppData\Local\Temp\ccuARVJd.s:6822   .debug_str:000000000000376a .LASF438
C:\Users\stapi\AppData\Local\Temp\ccuARVJd.s:7246   .debug_str:0000000000004d54 .LASF439
C:\Users\stapi\AppData\Local\Temp\ccuARVJd.s:7350   .debug_str:00000000000052c1 .LASF440
C:\Users\stapi\AppData\Local\Temp\ccuARVJd.s:7106   .debug_str:00000000000045a4 .LASF441
C:\Users\stapi\AppData\Local\Temp\ccuARVJd.s:6644   .debug_str:0000000000002d20 .LASF442
C:\Users\stapi\AppData\Local\Temp\ccuARVJd.s:5920   .debug_str:000000000000086e .LASF443
C:\Users\stapi\AppData\Local\Temp\ccuARVJd.s:6528   .debug_str:0000000000002772 .LASF444
C:\Users\stapi\AppData\Local\Temp\ccuARVJd.s:6948   .debug_str:0000000000003ddb .LASF445
C:\Users\stapi\AppData\Local\Temp\ccuARVJd.s:5946   .debug_str:00000000000009d2 .LASF446
C:\Users\stapi\AppData\Local\Temp\ccuARVJd.s:6162   .debug_str:00000000000014c1 .LASF447
C:\Users\stapi\AppData\Local\Temp\ccuARVJd.s:5832   .debug_str:00000000000003fe .LASF448
C:\Users\stapi\AppData\Local\Temp\ccuARVJd.s:7202   .debug_str:0000000000004b13 .LASF449
C:\Users\stapi\AppData\Local\Temp\ccuARVJd.s:6984   .debug_str:0000000000003fdf .LASF450
C:\Users\stapi\AppData\Local\Temp\ccuARVJd.s:6592   .debug_str:0000000000002a7b .LASF451
C:\Users\stapi\AppData\Local\Temp\ccuARVJd.s:7330   .debug_str:0000000000005180 .LASF452
C:\Users\stapi\AppData\Local\Temp\ccuARVJd.s:6486   .debug_str:0000000000002511 .LASF453
C:\Users\stapi\AppData\Local\Temp\ccuARVJd.s:6676   .debug_str:0000000000002f14 .LASF454
C:\Users\stapi\AppData\Local\Temp\ccuARVJd.s:7038   .debug_str:0000000000004251 .LASF455
C:\Users\stapi\AppData\Local\Temp\ccuARVJd.s:6616   .debug_str:0000000000002bcf .LASF456
C:\Users\stapi\AppData\Local\Temp\ccuARVJd.s:7040   .debug_str:0000000000004277 .LASF457
C:\Users\stapi\AppData\Local\Temp\ccuARVJd.s:6298   .debug_str:0000000000001b69 .LASF458
C:\Users\stapi\AppData\Local\Temp\ccuARVJd.s:7120   .debug_str:0000000000004665 .LASF459
C:\Users\stapi\AppData\Local\Temp\ccuARVJd.s:7290   .debug_str:0000000000004f7f .LASF460
C:\Users\stapi\AppData\Local\Temp\ccuARVJd.s:6688   .debug_str:0000000000002fa6 .LASF461
C:\Users\stapi\AppData\Local\Temp\ccuARVJd.s:6348   .debug_str:0000000000001dd1 .LASF462
C:\Users\stapi\AppData\Local\Temp\ccuARVJd.s:7196   .debug_str:0000000000004ac7 .LASF463
C:\Users\stapi\AppData\Local\Temp\ccuARVJd.s:6296   .debug_str:0000000000001b45 .LASF464
C:\Users\stapi\AppData\Local\Temp\ccuARVJd.s:6280   .debug_str:0000000000001a81 .LASF465
C:\Users\stapi\AppData\Local\Temp\ccuARVJd.s:6912   .debug_str:0000000000003bec .LASF466
C:\Users\stapi\AppData\Local\Temp\ccuARVJd.s:7066   .debug_str:0000000000004396 .LASF467
C:\Users\stapi\AppData\Local\Temp\ccuARVJd.s:6864   .debug_str:0000000000003982 .LASF468
C:\Users\stapi\AppData\Local\Temp\ccuARVJd.s:7134   .debug_str:0000000000004723 .LASF469
C:\Users\stapi\AppData\Local\Temp\ccuARVJd.s:6826   .debug_str:000000000000378f .LASF470
C:\Users\stapi\AppData\Local\Temp\ccuARVJd.s:6432   .debug_str:0000000000002226 .LASF471
C:\Users\stapi\AppData\Local\Temp\ccuARVJd.s:6672   .debug_str:0000000000002eee .LASF472
C:\Users\stapi\AppData\Local\Temp\ccuARVJd.s:6266   .debug_str:00000000000019c1 .LASF473
C:\Users\stapi\AppData\Local\Temp\ccuARVJd.s:5820   .debug_str:0000000000000360 .LASF474
C:\Users\stapi\AppData\Local\Temp\ccuARVJd.s:6478   .debug_str:00000000000024ad .LASF475
C:\Users\stapi\AppData\Local\Temp\ccuARVJd.s:7122   .debug_str:0000000000004683 .LASF476
C:\Users\stapi\AppData\Local\Temp\ccuARVJd.s:6184   .debug_str:00000000000015bb .LASF477
C:\Users\stapi\AppData\Local\Temp\ccuARVJd.s:6590   .debug_str:0000000000002a5b .LASF478
C:\Users\stapi\AppData\Local\Temp\ccuARVJd.s:7266   .debug_str:0000000000004e3e .LASF479
C:\Users\stapi\AppData\Local\Temp\ccuARVJd.s:6048   .debug_str:0000000000000eff .LASF480
C:\Users\stapi\AppData\Local\Temp\ccuARVJd.s:7212   .debug_str:0000000000004b98 .LASF481
C:\Users\stapi\AppData\Local\Temp\ccuARVJd.s:7032   .debug_str:0000000000004201 .LASF482
C:\Users\stapi\AppData\Local\Temp\ccuARVJd.s:6572   .debug_str:00000000000029ad .LASF483
C:\Users\stapi\AppData\Local\Temp\ccuARVJd.s:5868   .debug_str:00000000000005d2 .LASF484
C:\Users\stapi\AppData\Local\Temp\ccuARVJd.s:7160   .debug_str:00000000000048a0 .LASF485
C:\Users\stapi\AppData\Local\Temp\ccuARVJd.s:7336   .debug_str:00000000000051df .LASF486
C:\Users\stapi\AppData\Local\Temp\ccuARVJd.s:6026   .debug_str:0000000000000dcf .LASF487
C:\Users\stapi\AppData\Local\Temp\ccuARVJd.s:6018   .debug_str:0000000000000d77 .LASF488
C:\Users\stapi\AppData\Local\Temp\ccuARVJd.s:6754   .debug_str:00000000000032e9 .LASF489
C:\Users\stapi\AppData\Local\Temp\ccuARVJd.s:6316   .debug_str:0000000000001c38 .LASF490
C:\Users\stapi\AppData\Local\Temp\ccuARVJd.s:6648   .debug_str:0000000000002d55 .LASF491
C:\Users\stapi\AppData\Local\Temp\ccuARVJd.s:5888   .debug_str:00000000000006ad .LASF492
C:\Users\stapi\AppData\Local\Temp\ccuARVJd.s:7338   .debug_str:00000000000051fc .LASF493
C:\Users\stapi\AppData\Local\Temp\ccuARVJd.s:6946   .debug_str:0000000000003db6 .LASF494
C:\Users\stapi\AppData\Local\Temp\ccuARVJd.s:6492   .debug_str:0000000000002564 .LASF495
C:\Users\stapi\AppData\Local\Temp\ccuARVJd.s:6206   .debug_str:00000000000016eb .LASF496
C:\Users\stapi\AppData\Local\Temp\ccuARVJd.s:5786   .debug_str:00000000000001d3 .LASF497
C:\Users\stapi\AppData\Local\Temp\ccuARVJd.s:6076   .debug_str:0000000000001059 .LASF498
C:\Users\stapi\AppData\Local\Temp\ccuARVJd.s:6978   .debug_str:0000000000003f86 .LASF499
C:\Users\stapi\AppData\Local\Temp\ccuARVJd.s:7214   .debug_str:0000000000004bb2 .LASF500
C:\Users\stapi\AppData\Local\Temp\ccuARVJd.s:6488   .debug_str:0000000000002530 .LASF501
C:\Users\stapi\AppData\Local\Temp\ccuARVJd.s:6400   .debug_str:00000000000020b3 .LASF502
C:\Users\stapi\AppData\Local\Temp\ccuARVJd.s:7092   .debug_str:00000000000044e7 .LASF503
C:\Users\stapi\AppData\Local\Temp\ccuARVJd.s:7316   .debug_str:00000000000050cd .LASF504
C:\Users\stapi\AppData\Local\Temp\ccuARVJd.s:7276   .debug_str:0000000000004ec7 .LASF505
C:\Users\stapi\AppData\Local\Temp\ccuARVJd.s:5886   .debug_str:0000000000000698 .LASF506
C:\Users\stapi\AppData\Local\Temp\ccuARVJd.s:6544   .debug_str:000000000000283d .LASF507
C:\Users\stapi\AppData\Local\Temp\ccuARVJd.s:6794   .debug_str:000000000000360b .LASF508
C:\Users\stapi\AppData\Local\Temp\ccuARVJd.s:6550   .debug_str:0000000000002882 .LASF509
C:\Users\stapi\AppData\Local\Temp\ccuARVJd.s:7304   .debug_str:000000000000502c .LASF510
C:\Users\stapi\AppData\Local\Temp\ccuARVJd.s:5916   .debug_str:0000000000000841 .LASF511
C:\Users\stapi\AppData\Local\Temp\ccuARVJd.s:7000   .debug_str:0000000000004090 .LASF512
C:\Users\stapi\AppData\Local\Temp\ccuARVJd.s:6084   .debug_str:00000000000010db .LASF513
C:\Users\stapi\AppData\Local\Temp\ccuARVJd.s:7274   .debug_str:0000000000004ea6 .LASF514
C:\Users\stapi\AppData\Local\Temp\ccuARVJd.s:5776   .debug_str:000000000000014c .LASF515
C:\Users\stapi\AppData\Local\Temp\ccuARVJd.s:6386   .debug_str:0000000000001fe6 .LASF516
C:\Users\stapi\AppData\Local\Temp\ccuARVJd.s:5772   .debug_str:000000000000010d .LASF517
C:\Users\stapi\AppData\Local\Temp\ccuARVJd.s:7170   .debug_str:0000000000004905 .LASF518
C:\Users\stapi\AppData\Local\Temp\ccuARVJd.s:7152   .debug_str:0000000000004834 .LASF519
C:\Users\stapi\AppData\Local\Temp\ccuARVJd.s:6970   .debug_str:0000000000003f0d .LASF520
C:\Users\stapi\AppData\Local\Temp\ccuARVJd.s:6030   .debug_str:0000000000000e0a .LASF521
C:\Users\stapi\AppData\Local\Temp\ccuARVJd.s:6230   .debug_str:00000000000017ca .LASF522
C:\Users\stapi\AppData\Local\Temp\ccuARVJd.s:6036   .debug_str:0000000000000e4b .LASF523
C:\Users\stapi\AppData\Local\Temp\ccuARVJd.s:6896   .debug_str:0000000000003b0b .LASF524
C:\Users\stapi\AppData\Local\Temp\ccuARVJd.s:6596   .debug_str:0000000000002ab4 .LASF525
C:\Users\stapi\AppData\Local\Temp\ccuARVJd.s:6446   .debug_str:0000000000002313 .LASF526
C:\Users\stapi\AppData\Local\Temp\ccuARVJd.s:5936   .debug_str:0000000000000940 .LASF527
C:\Users\stapi\AppData\Local\Temp\ccuARVJd.s:6920   .debug_str:0000000000003c4e .LASF528
C:\Users\stapi\AppData\Local\Temp\ccuARVJd.s:6204   .debug_str:00000000000016d3 .LASF529
C:\Users\stapi\AppData\Local\Temp\ccuARVJd.s:6414   .debug_str:0000000000002160 .LASF530
C:\Users\stapi\AppData\Local\Temp\ccuARVJd.s:6186   .debug_str:00000000000015d6 .LASF531
C:\Users\stapi\AppData\Local\Temp\ccuARVJd.s:7124   .debug_str:000000000000469c .LASF532
C:\Users\stapi\AppData\Local\Temp\ccuARVJd.s:6860   .debug_str:0000000000003966 .LASF533
C:\Users\stapi\AppData\Local\Temp\ccuARVJd.s:5796   .debug_str:000000000000025e .LASF534
C:\Users\stapi\AppData\Local\Temp\ccuARVJd.s:5752   .debug_str:0000000000000000 .LASF535
C:\Users\stapi\AppData\Local\Temp\ccuARVJd.s:6918   .debug_str:0000000000003c39 .LASF536
C:\Users\stapi\AppData\Local\Temp\ccuARVJd.s:6524   .debug_str:0000000000002731 .LASF537
C:\Users\stapi\AppData\Local\Temp\ccuARVJd.s:7220   .debug_str:0000000000004c01 .LASF538
C:\Users\stapi\AppData\Local\Temp\ccuARVJd.s:6584   .debug_str:0000000000002a29 .LASF539
C:\Users\stapi\AppData\Local\Temp\ccuARVJd.s:5952   .debug_str:0000000000000a27 .LASF540
C:\Users\stapi\AppData\Local\Temp\ccuARVJd.s:6208   .debug_str:0000000000001706 .LASF541
C:\Users\stapi\AppData\Local\Temp\ccuARVJd.s:7254   .debug_str:0000000000004db5 .LASF542
C:\Users\stapi\AppData\Local\Temp\ccuARVJd.s:6606   .debug_str:0000000000002b3e .LASF543
C:\Users\stapi\AppData\Local\Temp\ccuARVJd.s:5790   .debug_str:0000000000000208 .LASF544
C:\Users\stapi\AppData\Local\Temp\ccuARVJd.s:6876   .debug_str:0000000000003a20 .LASF545
C:\Users\stapi\AppData\Local\Temp\ccuARVJd.s:6286   .debug_str:0000000000001ac9 .LASF546
C:\Users\stapi\AppData\Local\Temp\ccuARVJd.s:5954   .debug_str:0000000000000a45 .LASF547
C:\Users\stapi\AppData\Local\Temp\ccuARVJd.s:6442   .debug_str:00000000000022c3 .LASF548
C:\Users\stapi\AppData\Local\Temp\ccuARVJd.s:6046   .debug_str:0000000000000ed2 .LASF549
C:\Users\stapi\AppData\Local\Temp\ccuARVJd.s:7390   .debug_str:00000000000054b9 .LASF550
C:\Users\stapi\AppData\Local\Temp\ccuARVJd.s:5758   .debug_str:0000000000000048 .LASF551
C:\Users\stapi\AppData\Local\Temp\ccuARVJd.s:6072   .debug_str:000000000000102c .LASF552
C:\Users\stapi\AppData\Local\Temp\ccuARVJd.s:6776   .debug_str:000000000000350d .LASF553
C:\Users\stapi\AppData\Local\Temp\ccuARVJd.s:6512   .debug_str:0000000000002690 .LASF554
C:\Users\stapi\AppData\Local\Temp\ccuARVJd.s:6678   .debug_str:0000000000002f2f .LASF555
C:\Users\stapi\AppData\Local\Temp\ccuARVJd.s:6718   .debug_str:0000000000003100 .LASF556
C:\Users\stapi\AppData\Local\Temp\ccuARVJd.s:5926   .debug_str:00000000000008ca .LASF557
C:\Users\stapi\AppData\Local\Temp\ccuARVJd.s:6430   .debug_str:0000000000002210 .LASF558
C:\Users\stapi\AppData\Local\Temp\ccuARVJd.s:6778   .debug_str:0000000000003523 .LASF559
C:\Users\stapi\AppData\Local\Temp\ccuARVJd.s:6686   .debug_str:0000000000002f8e .LASF560
C:\Users\stapi\AppData\Local\Temp\ccuARVJd.s:6680   .debug_str:0000000000002f47 .LASF561
C:\Users\stapi\AppData\Local\Temp\ccuARVJd.s:6990   .debug_str:0000000000004024 .LASF562
C:\Users\stapi\AppData\Local\Temp\ccuARVJd.s:6262   .debug_str:000000000000198f .LASF563
C:\Users\stapi\AppData\Local\Temp\ccuARVJd.s:7418   .debug_str:000000000000563d .LASF564
C:\Users\stapi\AppData\Local\Temp\ccuARVJd.s:5856   .debug_str:000000000000055a .LASF565
C:\Users\stapi\AppData\Local\Temp\ccuARVJd.s:6622   .debug_str:0000000000002c21 .LASF566
C:\Users\stapi\AppData\Local\Temp\ccuARVJd.s:6496   .debug_str:00000000000025ad .LASF567
C:\Users\stapi\AppData\Local\Temp\ccuARVJd.s:6274   .debug_str:0000000000001a3d .LASF568
C:\Users\stapi\AppData\Local\Temp\ccuARVJd.s:6146   .debug_str:000000000000140b .LASF569
C:\Users\stapi\AppData\Local\Temp\ccuARVJd.s:6904   .debug_str:0000000000003b7d .LASF570
C:\Users\stapi\AppData\Local\Temp\ccuARVJd.s:6844   .debug_str:0000000000003870 .LASF571
C:\Users\stapi\AppData\Local\Temp\ccuARVJd.s:5874   .debug_str:0000000000000613 .LASF572
C:\Users\stapi\AppData\Local\Temp\ccuARVJd.s:5840   .debug_str:0000000000000470 .LASF573
C:\Users\stapi\AppData\Local\Temp\ccuARVJd.s:5870   .debug_str:00000000000005e9 .LASF574
C:\Users\stapi\AppData\Local\Temp\ccuARVJd.s:6910   .debug_str:0000000000003bd4 .LASF575
C:\Users\stapi\AppData\Local\Temp\ccuARVJd.s:7144   .debug_str:00000000000047ac .LASF576
C:\Users\stapi\AppData\Local\Temp\ccuARVJd.s:7070   .debug_str:00000000000043c9 .LASF577
C:\Users\stapi\AppData\Local\Temp\ccuARVJd.s:6706   .debug_str:0000000000003078 .LASF578
C:\Users\stapi\AppData\Local\Temp\ccuARVJd.s:6630   .debug_str:0000000000002c8a .LASF579
C:\Users\stapi\AppData\Local\Temp\ccuARVJd.s:5792   .debug_str:0000000000000221 .LASF580
C:\Users\stapi\AppData\Local\Temp\ccuARVJd.s:6736   .debug_str:000000000000321c .LASF581
C:\Users\stapi\AppData\Local\Temp\ccuARVJd.s:6284   .debug_str:0000000000001ab0 .LASF582
C:\Users\stapi\AppData\Local\Temp\ccuARVJd.s:6440   .debug_str:000000000000229b .LASF583
C:\Users\stapi\AppData\Local\Temp\ccuARVJd.s:7324   .debug_str:0000000000005131 .LASF584
C:\Users\stapi\AppData\Local\Temp\ccuARVJd.s:6532   .debug_str:000000000000279f .LASF585
C:\Users\stapi\AppData\Local\Temp\ccuARVJd.s:6892   .debug_str:0000000000003acd .LASF586
C:\Users\stapi\AppData\Local\Temp\ccuARVJd.s:7110   .debug_str:00000000000045d1 .LASF587
C:\Users\stapi\AppData\Local\Temp\ccuARVJd.s:6726   .debug_str:000000000000316f .LASF588
C:\Users\stapi\AppData\Local\Temp\ccuARVJd.s:7252   .debug_str:0000000000004d9c .LASF589
C:\Users\stapi\AppData\Local\Temp\ccuARVJd.s:5762   .debug_str:0000000000000080 .LASF590
C:\Users\stapi\AppData\Local\Temp\ccuARVJd.s:6276   .debug_str:0000000000001a57 .LASF591
C:\Users\stapi\AppData\Local\Temp\ccuARVJd.s:6098   .debug_str:00000000000011be .LASF592
C:\Users\stapi\AppData\Local\Temp\ccuARVJd.s:6136   .debug_str:00000000000013ab .LASF593
C:\Users\stapi\AppData\Local\Temp\ccuARVJd.s:6956   .debug_str:0000000000003e4b .LASF594
C:\Users\stapi\AppData\Local\Temp\ccuARVJd.s:6812   .debug_str:00000000000036cc .LASF595
C:\Users\stapi\AppData\Local\Temp\ccuARVJd.s:6894   .debug_str:0000000000003ae9 .LASF596
C:\Users\stapi\AppData\Local\Temp\ccuARVJd.s:6980   .debug_str:0000000000003fa5 .LASF597
C:\Users\stapi\AppData\Local\Temp\ccuARVJd.s:6820   .debug_str:000000000000373c .LASF598
C:\Users\stapi\AppData\Local\Temp\ccuARVJd.s:6770   .debug_str:00000000000034ad .LASF599
C:\Users\stapi\AppData\Local\Temp\ccuARVJd.s:7178   .debug_str:0000000000004987 .LASF600
C:\Users\stapi\AppData\Local\Temp\ccuARVJd.s:7206   .debug_str:0000000000004b4d .LASF601
C:\Users\stapi\AppData\Local\Temp\ccuARVJd.s:6434   .debug_str:000000000000223f .LASF602
C:\Users\stapi\AppData\Local\Temp\ccuARVJd.s:7262   .debug_str:0000000000004e07 .LASF603
C:\Users\stapi\AppData\Local\Temp\ccuARVJd.s:7346   .debug_str:0000000000005281 .LASF604
C:\Users\stapi\AppData\Local\Temp\ccuARVJd.s:6848   .debug_str:00000000000038bd .LASF605
C:\Users\stapi\AppData\Local\Temp\ccuARVJd.s:6096   .debug_str:0000000000001197 .LASF606
C:\Users\stapi\AppData\Local\Temp\ccuARVJd.s:6906   .debug_str:0000000000003b94 .LASF607
C:\Users\stapi\AppData\Local\Temp\ccuARVJd.s:6350   .debug_str:0000000000001dee .LASF608
C:\Users\stapi\AppData\Local\Temp\ccuARVJd.s:6344   .debug_str:0000000000001d96 .LASF609
C:\Users\stapi\AppData\Local\Temp\ccuARVJd.s:7406   .debug_str:00000000000055a1 .LASF610
C:\Users\stapi\AppData\Local\Temp\ccuARVJd.s:6546   .debug_str:0000000000002852 .LASF611
C:\Users\stapi\AppData\Local\Temp\ccuARVJd.s:6578   .debug_str:00000000000029e7 .LASF612
C:\Users\stapi\AppData\Local\Temp\ccuARVJd.s:6198   .debug_str:0000000000001681 .LASF613
C:\Users\stapi\AppData\Local\Temp\ccuARVJd.s:7100   .debug_str:000000000000454a .LASF614
C:\Users\stapi\AppData\Local\Temp\ccuARVJd.s:6790   .debug_str:00000000000035cc .LASF615
C:\Users\stapi\AppData\Local\Temp\ccuARVJd.s:5974   .debug_str:0000000000000b3c .LASF616
C:\Users\stapi\AppData\Local\Temp\ccuARVJd.s:7232   .debug_str:0000000000004c9f .LASF617
C:\Users\stapi\AppData\Local\Temp\ccuARVJd.s:5876   .debug_str:000000000000062a .LASF618
C:\Users\stapi\AppData\Local\Temp\ccuARVJd.s:7222   .debug_str:0000000000004c1c .LASF619
C:\Users\stapi\AppData\Local\Temp\ccuARVJd.s:5988   .debug_str:0000000000000bec .LASF620
C:\Users\stapi\AppData\Local\Temp\ccuARVJd.s:6728   .debug_str:0000000000003198 .LASF621
C:\Users\stapi\AppData\Local\Temp\ccuARVJd.s:7130   .debug_str:00000000000046f4 .LASF622
C:\Users\stapi\AppData\Local\Temp\ccuARVJd.s:6246   .debug_str:00000000000018ac .LASF623
C:\Users\stapi\AppData\Local\Temp\ccuARVJd.s:6518   .debug_str:00000000000026d9 .LASF624
C:\Users\stapi\AppData\Local\Temp\ccuARVJd.s:7282   .debug_str:0000000000004f27 .LASF625
C:\Users\stapi\AppData\Local\Temp\ccuARVJd.s:7362   .debug_str:0000000000005350 .LASF626
C:\Users\stapi\AppData\Local\Temp\ccuARVJd.s:6780   .debug_str:000000000000353c .LASF627
C:\Users\stapi\AppData\Local\Temp\ccuARVJd.s:7114   .debug_str:0000000000004614 .LASF628
C:\Users\stapi\AppData\Local\Temp\ccuARVJd.s:6480   .debug_str:00000000000024c7 .LASF629
C:\Users\stapi\AppData\Local\Temp\ccuARVJd.s:5998   .debug_str:0000000000000c64 .LASF630
C:\Users\stapi\AppData\Local\Temp\ccuARVJd.s:7140   .debug_str:0000000000004772 .LASF631
C:\Users\stapi\AppData\Local\Temp\ccuARVJd.s:7088   .debug_str:00000000000044a8 .LASF632
C:\Users\stapi\AppData\Local\Temp\ccuARVJd.s:6406   .debug_str:00000000000020f0 .LASF633
C:\Users\stapi\AppData\Local\Temp\ccuARVJd.s:7284   .debug_str:0000000000004f45 .LASF634
C:\Users\stapi\AppData\Local\Temp\ccuARVJd.s:6472   .debug_str:0000000000002461 .LASF635
C:\Users\stapi\AppData\Local\Temp\ccuARVJd.s:6042   .debug_str:0000000000000ea6 .LASF636
C:\Users\stapi\AppData\Local\Temp\ccuARVJd.s:6168   .debug_str:00000000000014fe .LASF637
C:\Users\stapi\AppData\Local\Temp\ccuARVJd.s:7378   .debug_str:0000000000005419 .LASF638
C:\Users\stapi\AppData\Local\Temp\ccuARVJd.s:6900   .debug_str:0000000000003b3f .LASF639
C:\Users\stapi\AppData\Local\Temp\ccuARVJd.s:6940   .debug_str:0000000000003d55 .LASF640
C:\Users\stapi\AppData\Local\Temp\ccuARVJd.s:7404   .debug_str:0000000000005581 .LASF641
C:\Users\stapi\AppData\Local\Temp\ccuARVJd.s:6608   .debug_str:0000000000002b55 .LASF642
C:\Users\stapi\AppData\Local\Temp\ccuARVJd.s:7270   .debug_str:0000000000004e7e .LASF643
C:\Users\stapi\AppData\Local\Temp\ccuARVJd.s:7320   .debug_str:00000000000050ed .LASF644
C:\Users\stapi\AppData\Local\Temp\ccuARVJd.s:6438   .debug_str:0000000000002280 .LASF645
C:\Users\stapi\AppData\Local\Temp\ccuARVJd.s:6806   .debug_str:000000000000368a .LASF646
C:\Users\stapi\AppData\Local\Temp\ccuARVJd.s:6194   .debug_str:000000000000164c .LASF647
C:\Users\stapi\AppData\Local\Temp\ccuARVJd.s:5932   .debug_str:0000000000000912 .LASF648
C:\Users\stapi\AppData\Local\Temp\ccuARVJd.s:6240   .debug_str:0000000000001857 .LASF649
C:\Users\stapi\AppData\Local\Temp\ccuARVJd.s:6404   .debug_str:00000000000020d8 .LASF650
C:\Users\stapi\AppData\Local\Temp\ccuARVJd.s:5808   .debug_str:00000000000002d5 .LASF651
C:\Users\stapi\AppData\Local\Temp\ccuARVJd.s:5902   .debug_str:0000000000000762 .LASF652
C:\Users\stapi\AppData\Local\Temp\ccuARVJd.s:6684   .debug_str:0000000000002f74 .LASF653
C:\Users\stapi\AppData\Local\Temp\ccuARVJd.s:7236   .debug_str:0000000000004cca .LASF654
C:\Users\stapi\AppData\Local\Temp\ccuARVJd.s:5910   .debug_str:00000000000007e7 .LASF655
C:\Users\stapi\AppData\Local\Temp\ccuARVJd.s:6536   .debug_str:00000000000027d6 .LASF656
C:\Users\stapi\AppData\Local\Temp\ccuARVJd.s:6468   .debug_str:0000000000002426 .LASF657
C:\Users\stapi\AppData\Local\Temp\ccuARVJd.s:6556   .debug_str:00000000000028d9 .LASF658
C:\Users\stapi\AppData\Local\Temp\ccuARVJd.s:6788   .debug_str:00000000000035b5 .LASF659
C:\Users\stapi\AppData\Local\Temp\ccuARVJd.s:5782   .debug_str:00000000000001a6 .LASF660
C:\Users\stapi\AppData\Local\Temp\ccuARVJd.s:7064   .debug_str:0000000000004380 .LASF661
C:\Users\stapi\AppData\Local\Temp\ccuARVJd.s:6534   .debug_str:00000000000027c0 .LASF662
C:\Users\stapi\AppData\Local\Temp\ccuARVJd.s:6870   .debug_str:00000000000039e2 .LASF663
C:\Users\stapi\AppData\Local\Temp\ccuARVJd.s:6106   .debug_str:0000000000001236 .LASF664
C:\Users\stapi\AppData\Local\Temp\ccuARVJd.s:5760   .debug_str:000000000000005e .LASF665
C:\Users\stapi\AppData\Local\Temp\ccuARVJd.s:7344   .debug_str:0000000000005264 .LASF666
C:\Users\stapi\AppData\Local\Temp\ccuARVJd.s:5922   .debug_str:0000000000000894 .LASF667
C:\Users\stapi\AppData\Local\Temp\ccuARVJd.s:5982   .debug_str:0000000000000b9b .LASF668
C:\Users\stapi\AppData\Local\Temp\ccuARVJd.s:5996   .debug_str:0000000000000c4f .LASF669
C:\Users\stapi\AppData\Local\Temp\ccuARVJd.s:6714   .debug_str:00000000000030c9 .LASF670
C:\Users\stapi\AppData\Local\Temp\ccuARVJd.s:6930   .debug_str:0000000000003cce .LASF671
C:\Users\stapi\AppData\Local\Temp\ccuARVJd.s:6636   .debug_str:0000000000002cb5 .LASF672
C:\Users\stapi\AppData\Local\Temp\ccuARVJd.s:6202   .debug_str:00000000000016bb .LASF673
C:\Users\stapi\AppData\Local\Temp\ccuARVJd.s:7128   .debug_str:00000000000046d8 .LASF674
C:\Users\stapi\AppData\Local\Temp\ccuARVJd.s:5778   .debug_str:000000000000016f .LASF675
C:\Users\stapi\AppData\Local\Temp\ccuARVJd.s:6150   .debug_str:000000000000143f .LASF676
C:\Users\stapi\AppData\Local\Temp\ccuARVJd.s:7314   .debug_str:00000000000050aa .LASF677
C:\Users\stapi\AppData\Local\Temp\ccuARVJd.s:6060   .debug_str:0000000000000fa8 .LASF678
C:\Users\stapi\AppData\Local\Temp\ccuARVJd.s:7062   .debug_str:000000000000435b .LASF679
C:\Users\stapi\AppData\Local\Temp\ccuARVJd.s:6002   .debug_str:0000000000000ca7 .LASF680
C:\Users\stapi\AppData\Local\Temp\ccuARVJd.s:6082   .debug_str:00000000000010bc .LASF681
C:\Users\stapi\AppData\Local\Temp\ccuARVJd.s:6094   .debug_str:0000000000001174 .LASF682
C:\Users\stapi\AppData\Local\Temp\ccuARVJd.s:6554   .debug_str:00000000000028bc .LASF683
C:\Users\stapi\AppData\Local\Temp\ccuARVJd.s:7326   .debug_str:000000000000514d .LASF684
C:\Users\stapi\AppData\Local\Temp\ccuARVJd.s:6814   .debug_str:00000000000036e4 .LASF685
C:\Users\stapi\AppData\Local\Temp\ccuARVJd.s:6522   .debug_str:0000000000002713 .LASF686
C:\Users\stapi\AppData\Local\Temp\ccuARVJd.s:6594   .debug_str:0000000000002a94 .LASF687
C:\Users\stapi\AppData\Local\Temp\ccuARVJd.s:6000   .debug_str:0000000000000c82 .LASF688
C:\Users\stapi\AppData\Local\Temp\ccuARVJd.s:6670   .debug_str:0000000000002ed0 .LASF689
C:\Users\stapi\AppData\Local\Temp\ccuARVJd.s:6856   .debug_str:000000000000391b .LASF690
C:\Users\stapi\AppData\Local\Temp\ccuARVJd.s:6976   .debug_str:0000000000003f64 .LASF691
C:\Users\stapi\AppData\Local\Temp\ccuARVJd.s:7250   .debug_str:0000000000004d7c .LASF692
C:\Users\stapi\AppData\Local\Temp\ccuARVJd.s:6830   .debug_str:00000000000037c5 .LASF693
C:\Users\stapi\AppData\Local\Temp\ccuARVJd.s:5972   .debug_str:0000000000000b1b .LASF694
C:\Users\stapi\AppData\Local\Temp\ccuARVJd.s:6552   .debug_str:000000000000289b .LASF695
C:\Users\stapi\AppData\Local\Temp\ccuARVJd.s:6462   .debug_str:00000000000023d1 .LASF696
C:\Users\stapi\AppData\Local\Temp\ccuARVJd.s:6216   .debug_str:0000000000001759 .LASF697
C:\Users\stapi\AppData\Local\Temp\ccuARVJd.s:7332   .debug_str:0000000000005198 .LASF698
C:\Users\stapi\AppData\Local\Temp\ccuARVJd.s:6966   .debug_str:0000000000003ecd .LASF699
C:\Users\stapi\AppData\Local\Temp\ccuARVJd.s:5824   .debug_str:0000000000000395 .LASF700
C:\Users\stapi\AppData\Local\Temp\ccuARVJd.s:6132   .debug_str:0000000000001367 .LASF701
C:\Users\stapi\AppData\Local\Temp\ccuARVJd.s:7184   .debug_str:0000000000004a4b .LASF702
C:\Users\stapi\AppData\Local\Temp\ccuARVJd.s:7334   .debug_str:00000000000051bf .LASF703
C:\Users\stapi\AppData\Local\Temp\ccuARVJd.s:6258   .debug_str:0000000000001950 .LASF704
C:\Users\stapi\AppData\Local\Temp\ccuARVJd.s:6932   .debug_str:0000000000003ce6 .LASF705
C:\Users\stapi\AppData\Local\Temp\ccuARVJd.s:6306   .debug_str:0000000000001bbb .LASF706
C:\Users\stapi\AppData\Local\Temp\ccuARVJd.s:5906   .debug_str:0000000000000799 .LASF707
C:\Users\stapi\AppData\Local\Temp\ccuARVJd.s:5986   .debug_str:0000000000000bc4 .LASF708
C:\Users\stapi\AppData\Local\Temp\ccuARVJd.s:7136   .debug_str:000000000000473d .LASF709
C:\Users\stapi\AppData\Local\Temp\ccuARVJd.s:6380   .debug_str:0000000000001f94 .LASF710
C:\Users\stapi\AppData\Local\Temp\ccuARVJd.s:6354   .debug_str:0000000000001e32 .LASF711
C:\Users\stapi\AppData\Local\Temp\ccuARVJd.s:7342   .debug_str:0000000000005249 .LASF712
C:\Users\stapi\AppData\Local\Temp\ccuARVJd.s:5806   .debug_str:00000000000002c0 .LASF713
C:\Users\stapi\AppData\Local\Temp\ccuARVJd.s:7280   .debug_str:0000000000004f01 .LASF714
C:\Users\stapi\AppData\Local\Temp\ccuARVJd.s:6868   .debug_str:00000000000039c7 .LASF715
C:\Users\stapi\AppData\Local\Temp\ccuARVJd.s:6032   .debug_str:0000000000000e2e .LASF716
C:\Users\stapi\AppData\Local\Temp\ccuARVJd.s:7004   .debug_str:00000000000040c5 .LASF717
C:\Users\stapi\AppData\Local\Temp\ccuARVJd.s:6062   .debug_str:0000000000000fc8 .LASF718
C:\Users\stapi\AppData\Local\Temp\ccuARVJd.s:6164   .debug_str:00000000000014dc .LASF719
C:\Users\stapi\AppData\Local\Temp\ccuARVJd.s:7044   .debug_str:00000000000042a2 .LASF720
C:\Users\stapi\AppData\Local\Temp\ccuARVJd.s:6964   .debug_str:0000000000003eb8 .LASF721
C:\Users\stapi\AppData\Local\Temp\ccuARVJd.s:6744   .debug_str:0000000000003285 .LASF722
C:\Users\stapi\AppData\Local\Temp\ccuARVJd.s:6394   .debug_str:0000000000002055 .LASF723
C:\Users\stapi\AppData\Local\Temp\ccuARVJd.s:6356   .debug_str:0000000000001e4a .LASF724
C:\Users\stapi\AppData\Local\Temp\ccuARVJd.s:6130   .debug_str:0000000000001356 .LASF725
C:\Users\stapi\AppData\Local\Temp\ccuARVJd.s:6346   .debug_str:0000000000001db9 .LASF726
C:\Users\stapi\AppData\Local\Temp\ccuARVJd.s:6142   .debug_str:00000000000013dd .LASF727
C:\Users\stapi\AppData\Local\Temp\ccuARVJd.s:6080   .debug_str:000000000000109a .LASF728
C:\Users\stapi\AppData\Local\Temp\ccuARVJd.s:6264   .debug_str:00000000000019a6 .LASF729
C:\Users\stapi\AppData\Local\Temp\ccuARVJd.s:5770   .debug_str:00000000000000fd .LASF730
C:\Users\stapi\AppData\Local\Temp\ccuARVJd.s:6878   .debug_str:0000000000003a37 .LASF731
C:\Users\stapi\AppData\Local\Temp\ccuARVJd.s:6290   .debug_str:0000000000001af5 .LASF732
C:\Users\stapi\AppData\Local\Temp\ccuARVJd.s:6666   .debug_str:0000000000002eac .LASF733
C:\Users\stapi\AppData\Local\Temp\ccuARVJd.s:6628   .debug_str:0000000000002c69 .LASF734
C:\Users\stapi\AppData\Local\Temp\ccuARVJd.s:7392   .debug_str:00000000000054d8 .LASF735
C:\Users\stapi\AppData\Local\Temp\ccuARVJd.s:6650   .debug_str:0000000000002d71 .LASF736
C:\Users\stapi\AppData\Local\Temp\ccuARVJd.s:6424   .debug_str:00000000000021cb .LASF737
C:\Users\stapi\AppData\Local\Temp\ccuARVJd.s:7272   .debug_str:0000000000004e9f .LASF738
C:\Users\stapi\AppData\Local\Temp\ccuARVJd.s:6320   .debug_str:0000000000001c71 .LASF739
C:\Users\stapi\AppData\Local\Temp\ccuARVJd.s:7090   .debug_str:00000000000044cf .LASF740
C:\Users\stapi\AppData\Local\Temp\ccuARVJd.s:6088   .debug_str:000000000000112a .LASF741
C:\Users\stapi\AppData\Local\Temp\ccuARVJd.s:6416   .debug_str:0000000000002180 .LASF742
C:\Users\stapi\AppData\Local\Temp\ccuARVJd.s:7168   .debug_str:00000000000048fe .LASF743
C:\Users\stapi\AppData\Local\Temp\ccuARVJd.s:7048   .debug_str:00000000000042c3 .LASF744
C:\Users\stapi\AppData\Local\Temp\ccuARVJd.s:6724   .debug_str:0000000000003167 .LASF745
C:\Users\stapi\AppData\Local\Temp\ccuARVJd.s:6064   .debug_str:0000000000000fcd .LASF746
C:\Users\stapi\AppData\Local\Temp\ccuARVJd.s:6882   .debug_str:0000000000003a68 .LASF747
C:\Users\stapi\AppData\Local\Temp\ccuARVJd.s:7080   .debug_str:0000000000004455 .LASF748
C:\Users\stapi\AppData\Local\Temp\ccuARVJd.s:7200   .debug_str:0000000000004afe .LASF749
C:\Users\stapi\AppData\Local\Temp\ccuARVJd.s:7008   .debug_str:0000000000004103 .LASF750
C:\Users\stapi\AppData\Local\Temp\ccuARVJd.s:7400   .debug_str:000000000000554a .LASF751
C:\Users\stapi\AppData\Local\Temp\ccuARVJd.s:7150   .debug_str:0000000000004813 .LASF752
C:\Users\stapi\AppData\Local\Temp\ccuARVJd.s:6422   .debug_str:00000000000021c2 .LASF753
C:\Users\stapi\AppData\Local\Temp\ccuARVJd.s:6516   .debug_str:00000000000026cf .LASF754
C:\Users\stapi\AppData\Local\Temp\ccuARVJd.s:5960   .debug_str:0000000000000a8e .LASF755
C:\Users\stapi\AppData\Local\Temp\ccuARVJd.s:6840   .debug_str:000000000000384e .LASF756
C:\Users\stapi\AppData\Local\Temp\ccuARVJd.s:6982   .debug_str:0000000000003fc6 .LASF757
C:\Users\stapi\AppData\Local\Temp\ccuARVJd.s:6538   .debug_str:00000000000027f1 .LASF758
C:\Users\stapi\AppData\Local\Temp\ccuARVJd.s:6210   .debug_str:0000000000001727 .LASF759
C:\Users\stapi\AppData\Local\Temp\ccuARVJd.s:6454   .debug_str:0000000000002374 .LASF760
C:\Users\stapi\AppData\Local\Temp\ccuARVJd.s:6914   .debug_str:0000000000003c0a .LASF761
C:\Users\stapi\AppData\Local\Temp\ccuARVJd.s:6138   .debug_str:00000000000013c0 .LASF762
C:\Users\stapi\AppData\Local\Temp\ccuARVJd.s:6996   .debug_str:0000000000004068 .LASF763
C:\Users\stapi\AppData\Local\Temp\ccuARVJd.s:5814   .debug_str:0000000000000321 .LASF764
C:\Users\stapi\AppData\Local\Temp\ccuARVJd.s:5890   .debug_str:00000000000006c7 .LASF765
C:\Users\stapi\AppData\Local\Temp\ccuARVJd.s:6190   .debug_str:000000000000161c .LASF766
C:\Users\stapi\AppData\Local\Temp\ccuARVJd.s:5848   .debug_str:00000000000004e3 .LASF767
C:\Users\stapi\AppData\Local\Temp\ccuARVJd.s:6220   .debug_str:0000000000001782 .LASF768
C:\Users\stapi\AppData\Local\Temp\ccuARVJd.s:7030   .debug_str:00000000000041f2 .LASF835
C:\Users\stapi\AppData\Local\Temp\ccuARVJd.s:7424   .debug_str:0000000000005697 .LASF769
C:\Users\stapi\AppData\Local\Temp\ccuARVJd.s:7414   .debug_str:000000000000560e .LASF770
C:\Users\stapi\AppData\Local\Temp\ccuARVJd.s:6004   .debug_str:0000000000000cc9 .LASF771
C:\Users\stapi\AppData\Local\Temp\ccuARVJd.s:6158   .debug_str:00000000000014a0 .LASF772
C:\Users\stapi\AppData\Local\Temp\ccuARVJd.s:6916   .debug_str:0000000000003c2c .LASF773
C:\Users\stapi\AppData\Local\Temp\ccuARVJd.s:6312   .debug_str:0000000000001c11 .LASF774
C:\Users\stapi\AppData\Local\Temp\ccuARVJd.s:6926   .debug_str:0000000000003ca6 .LASF775
C:\Users\stapi\AppData\Local\Temp\ccuARVJd.s:6730   .debug_str:00000000000031bf .LASF776
C:\Users\stapi\AppData\Local\Temp\ccuARVJd.s:6564   .debug_str:0000000000002949 .LASF777
C:\Users\stapi\AppData\Local\Temp\ccuARVJd.s:5784   .debug_str:00000000000001bd .LASF778
C:\Users\stapi\AppData\Local\Temp\ccuARVJd.s:6836   .debug_str:000000000000381d .LASF779
C:\Users\stapi\AppData\Local\Temp\ccuARVJd.s:7056   .debug_str:0000000000004322 .LASF780
C:\Users\stapi\AppData\Local\Temp\ccuARVJd.s:6994   .debug_str:0000000000004054 .LASF781
C:\Users\stapi\AppData\Local\Temp\ccuARVJd.s:6112   .debug_str:0000000000001284 .LASF782
C:\Users\stapi\AppData\Local\Temp\ccuARVJd.s:6620   .debug_str:0000000000002c09 .LASF783
C:\Users\stapi\AppData\Local\Temp\ccuARVJd.s:6226   .debug_str:00000000000017a6 .LASF784
C:\Users\stapi\AppData\Local\Temp\ccuARVJd.s:6120   .debug_str:00000000000012cc .LASF785
C:\Users\stapi\AppData\Local\Temp\ccuARVJd.s:6796   .debug_str:0000000000003620 .LASF786
C:\Users\stapi\AppData\Local\Temp\ccuARVJd.s:7368   .debug_str:000000000000538a .LASF787
C:\Users\stapi\AppData\Local\Temp\ccuARVJd.s:7412   .debug_str:00000000000055f0 .LASF788
C:\Users\stapi\AppData\Local\Temp\ccuARVJd.s:6614   .debug_str:0000000000002bb5 .LASF789
C:\Users\stapi\AppData\Local\Temp\ccuARVJd.s:7138   .debug_str:0000000000004759 .LASF790
C:\Users\stapi\AppData\Local\Temp\ccuARVJd.s:6412   .debug_str:0000000000002145 .LASF791
C:\Users\stapi\AppData\Local\Temp\ccuARVJd.s:7402   .debug_str:0000000000005567 .LASF792
C:\Users\stapi\AppData\Local\Temp\ccuARVJd.s:6838   .debug_str:0000000000003834 .LASF793
C:\Users\stapi\AppData\Local\Temp\ccuARVJd.s:5976   .debug_str:0000000000000b5a .LASF794
C:\Users\stapi\AppData\Local\Temp\ccuARVJd.s:6022   .debug_str:0000000000000da4 .LASF795
C:\Users\stapi\AppData\Local\Temp\ccuARVJd.s:5810   .debug_str:00000000000002ed .LASF796
C:\Users\stapi\AppData\Local\Temp\ccuARVJd.s:5928   .debug_str:00000000000008e4 .LASF797
C:\Users\stapi\AppData\Local\Temp\ccuARVJd.s:6692   .debug_str:0000000000002fce .LASF798
C:\Users\stapi\AppData\Local\Temp\ccuARVJd.s:7054   .debug_str:0000000000004307 .LASF799
C:\Users\stapi\AppData\Local\Temp\ccuARVJd.s:6700   .debug_str:0000000000003036 .LASF800
C:\Users\stapi\AppData\Local\Temp\ccuARVJd.s:7096   .debug_str:0000000000004516 .LASF801
C:\Users\stapi\AppData\Local\Temp\ccuARVJd.s:6988   .debug_str:000000000000400f .LASF802
C:\Users\stapi\AppData\Local\Temp\ccuARVJd.s:7046   .debug_str:00000000000042ab .LASF803
C:\Users\stapi\AppData\Local\Temp\ccuARVJd.s:6986   .debug_str:0000000000003ff8 .LASF804
C:\Users\stapi\AppData\Local\Temp\ccuARVJd.s:7186   .debug_str:0000000000004a71 .LASF805
C:\Users\stapi\AppData\Local\Temp\ccuARVJd.s:6766   .debug_str:0000000000003475 .LASF806
C:\Users\stapi\AppData\Local\Temp\ccuARVJd.s:5828   .debug_str:00000000000003cd .LASF807
C:\Users\stapi\AppData\Local\Temp\ccuARVJd.s:6214   .debug_str:000000000000174a .LASF808
C:\Users\stapi\AppData\Local\Temp\ccuARVJd.s:7352   .debug_str:00000000000052d4 .LASF809
C:\Users\stapi\AppData\Local\Temp\ccuARVJd.s:7020   .debug_str:0000000000004199 .LASF810
C:\Users\stapi\AppData\Local\Temp\ccuARVJd.s:6574   .debug_str:00000000000029c5 .LASF811
C:\Users\stapi\AppData\Local\Temp\ccuARVJd.s:6674   .debug_str:0000000000002f0d .LASF812
C:\Users\stapi\AppData\Local\Temp\ccuARVJd.s:6872   .debug_str:00000000000039fc .LASF813
C:\Users\stapi\AppData\Local\Temp\ccuARVJd.s:6222   .debug_str:0000000000001796 .LASF814
C:\Users\stapi\AppData\Local\Temp\ccuARVJd.s:6740   .debug_str:0000000000003259 .LASF815
C:\Users\stapi\AppData\Local\Temp\ccuARVJd.s:6014   .debug_str:0000000000000d49 .LASF818
C:\Users\stapi\AppData\Local\Temp\ccuARVJd.s:6632   .debug_str:0000000000002c9c .LASF816
C:\Users\stapi\AppData\Local\Temp\ccuARVJd.s:6008   .debug_str:0000000000000cf4 .LASF817
C:\Users\stapi\AppData\Local\Temp\ccuARVJd.s:7286   .debug_str:0000000000004f61 .LASF819
C:\Users\stapi\AppData\Local\Temp\ccuARVJd.s:6110   .debug_str:0000000000001274 .LASF820
C:\Users\stapi\AppData\Local\Temp\ccuARVJd.s:623    .text.ble_diss_deinit:0000000000000000 .LFB21
C:\Users\stapi\AppData\Local\Temp\ccuARVJd.s:633    .text.ble_diss_deinit:0000000000000010 .LFE21
C:\Users\stapi\AppData\Local\Temp\ccuARVJd.s:631    .text.ble_diss_deinit:0000000000000010 .LVL56
C:\Users\stapi\AppData\Local\Temp\ccuARVJd.s:7370   .debug_str:00000000000053a9 .LASF821
C:\Users\stapi\AppData\Local\Temp\ccuARVJd.s:271    .text.ble_diss_init:0000000000000000 .LFB20
C:\Users\stapi\AppData\Local\Temp\ccuARVJd.s:616    .text.ble_diss_init:00000000000001c6 .LFE20
C:\Users\stapi\AppData\Local\Temp\ccuARVJd.s:6154   .debug_str:000000000000147c .LASF836
C:\Users\stapi\AppData\Local\Temp\ccuARVJd.s:5266   .debug_loc:0000000000000000 .LLST9
C:\Users\stapi\AppData\Local\Temp\ccuARVJd.s:5284   .debug_loc:000000000000002c .LLST10
C:\Users\stapi\AppData\Local\Temp\ccuARVJd.s:318    .text.ble_diss_init:000000000000004e .LBB40
C:\Users\stapi\AppData\Local\Temp\ccuARVJd.s:5296   .debug_loc:000000000000004b .LLST11
C:\Users\stapi\AppData\Local\Temp\ccuARVJd.s:5304   .debug_loc:000000000000005f .LLST12
C:\Users\stapi\AppData\Local\Temp\ccuARVJd.s:350    .text.ble_diss_init:0000000000000074 .LBB44
C:\Users\stapi\AppData\Local\Temp\ccuARVJd.s:5316   .debug_loc:0000000000000078 .LLST13
C:\Users\stapi\AppData\Local\Temp\ccuARVJd.s:5324   .debug_loc:000000000000008c .LLST14
C:\Users\stapi\AppData\Local\Temp\ccuARVJd.s:381    .text.ble_diss_init:000000000000009a .LBB48
C:\Users\stapi\AppData\Local\Temp\ccuARVJd.s:5336   .debug_loc:00000000000000a5 .LLST15
C:\Users\stapi\AppData\Local\Temp\ccuARVJd.s:5344   .debug_loc:00000000000000b9 .LLST16
C:\Users\stapi\AppData\Local\Temp\ccuARVJd.s:412    .text.ble_diss_init:00000000000000c0 .LBB52
C:\Users\stapi\AppData\Local\Temp\ccuARVJd.s:5356   .debug_loc:00000000000000d2 .LLST17
C:\Users\stapi\AppData\Local\Temp\ccuARVJd.s:5364   .debug_loc:00000000000000e6 .LLST18
C:\Users\stapi\AppData\Local\Temp\ccuARVJd.s:443    .text.ble_diss_init:00000000000000e6 .LBB56
C:\Users\stapi\AppData\Local\Temp\ccuARVJd.s:5376   .debug_loc:00000000000000ff .LLST19
C:\Users\stapi\AppData\Local\Temp\ccuARVJd.s:5384   .debug_loc:0000000000000113 .LLST20
C:\Users\stapi\AppData\Local\Temp\ccuARVJd.s:474    .text.ble_diss_init:000000000000010c .LBB60
C:\Users\stapi\AppData\Local\Temp\ccuARVJd.s:5396   .debug_loc:000000000000012c .LLST21
C:\Users\stapi\AppData\Local\Temp\ccuARVJd.s:5404   .debug_loc:0000000000000140 .LLST22
C:\Users\stapi\AppData\Local\Temp\ccuARVJd.s:505    .text.ble_diss_init:0000000000000132 .LBB64
C:\Users\stapi\AppData\Local\Temp\ccuARVJd.s:5416   .debug_loc:0000000000000159 .LLST23
C:\Users\stapi\AppData\Local\Temp\ccuARVJd.s:5424   .debug_loc:000000000000016d .LLST24
C:\Users\stapi\AppData\Local\Temp\ccuARVJd.s:305    .text.ble_diss_init:0000000000000042 .LVL32
C:\Users\stapi\AppData\Local\Temp\ccuARVJd.s:341    .text.ble_diss_init:000000000000006e .LVL36
C:\Users\stapi\AppData\Local\Temp\ccuARVJd.s:372    .text.ble_diss_init:0000000000000094 .LVL39
C:\Users\stapi\AppData\Local\Temp\ccuARVJd.s:403    .text.ble_diss_init:00000000000000ba .LVL42
C:\Users\stapi\AppData\Local\Temp\ccuARVJd.s:434    .text.ble_diss_init:00000000000000e0 .LVL45
C:\Users\stapi\AppData\Local\Temp\ccuARVJd.s:465    .text.ble_diss_init:0000000000000106 .LVL48
C:\Users\stapi\AppData\Local\Temp\ccuARVJd.s:496    .text.ble_diss_init:000000000000012c .LVL51
C:\Users\stapi\AppData\Local\Temp\ccuARVJd.s:527    .text.ble_diss_init:0000000000000152 .LVL54
C:\Users\stapi\AppData\Local\Temp\ccuARVJd.s:7364   .debug_str:000000000000536d .LASF826
C:\Users\stapi\AppData\Local\Temp\ccuARVJd.s:5860   .debug_str:000000000000057f .LASF828
C:\Users\stapi\AppData\Local\Temp\ccuARVJd.s:6502   .debug_str:0000000000002603 .LASF822
C:\Users\stapi\AppData\Local\Temp\ccuARVJd.s:7022   .debug_str:00000000000041a4 .LASF823
C:\Users\stapi\AppData\Local\Temp\ccuARVJd.s:6668   .debug_str:0000000000002ec9 .LASF824
C:\Users\stapi\AppData\Local\Temp\ccuARVJd.s:7410   .debug_str:00000000000055e5 .LASF825
C:\Users\stapi\AppData\Local\Temp\ccuARVJd.s:6748   .debug_str:00000000000032c6 .LASF827
C:\Users\stapi\AppData\Local\Temp\ccuARVJd.s:13     .text.ble_diss_srv_cb:0000000000000000 .LFB19
C:\Users\stapi\AppData\Local\Temp\ccuARVJd.s:264    .text.ble_diss_srv_cb:00000000000000fe .LFE19
C:\Users\stapi\AppData\Local\Temp\ccuARVJd.s:5436   .debug_loc:0000000000000186 .LLST0
C:\Users\stapi\AppData\Local\Temp\ccuARVJd.s:38     .text.ble_diss_srv_cb:0000000000000014 .LBB27
C:\Users\stapi\AppData\Local\Temp\ccuARVJd.s:5454   .debug_loc:00000000000001b2 .LLST1
C:\Users\stapi\AppData\Local\Temp\ccuARVJd.s:5476   .debug_loc:00000000000001e9 .LLST2
C:\Users\stapi\AppData\Local\Temp\ccuARVJd.s:5502   .debug_loc:0000000000000224 .LLST3
C:\Users\stapi\AppData\Local\Temp\ccuARVJd.s:5509   .debug_loc:0000000000000237 .LLST4
C:\Users\stapi\AppData\Local\Temp\ccuARVJd.s:5548   .debug_loc:00000000000002a2 .LLST5
C:\Users\stapi\AppData\Local\Temp\ccuARVJd.s:5601   .debug_loc:0000000000000330 .LLST6
C:\Users\stapi\AppData\Local\Temp\ccuARVJd.s:90     .text.ble_diss_srv_cb:0000000000000046 .LBB30
C:\Users\stapi\AppData\Local\Temp\ccuARVJd.s:5631   .debug_loc:000000000000036f .LLST7
C:\Users\stapi\AppData\Local\Temp\ccuARVJd.s:5649   .debug_loc:000000000000038e .LLST8
C:\Users\stapi\AppData\Local\Temp\ccuARVJd.s:116    .text.ble_diss_srv_cb:000000000000005e .LVL9
C:\Users\stapi\AppData\Local\Temp\ccuARVJd.s:6690   .debug_str:0000000000002fbc .LASF829
C:\Users\stapi\AppData\Local\Temp\ccuARVJd.s:6474   .debug_str:0000000000002485 .LASF830
C:\Users\stapi\AppData\Local\Temp\ccuARVJd.s:6228   .debug_str:00000000000017bf .LASF831
C:\Users\stapi\AppData\Local\Temp\ccuARVJd.s:274    .text.ble_diss_init:0000000000000000 .LVL29
C:\Users\stapi\AppData\Local\Temp\ccuARVJd.s:296    .text.ble_diss_init:0000000000000024 .LVL31
C:\Users\stapi\AppData\Local\Temp\ccuARVJd.s:606    .text.ble_diss_init:00000000000001bc .LVL55
C:\Users\stapi\AppData\Local\Temp\ccuARVJd.s:281    .text.ble_diss_init:0000000000000008 .LVL30
C:\Users\stapi\AppData\Local\Temp\ccuARVJd.s:307    .text.ble_diss_init:0000000000000044 .LVL33
C:\Users\stapi\AppData\Local\Temp\ccuARVJd.s:317    .text.ble_diss_init:000000000000004e .LVL34
C:\Users\stapi\AppData\Local\Temp\ccuARVJd.s:331    .text.ble_diss_init:0000000000000058 .LVL35
C:\Users\stapi\AppData\Local\Temp\ccuARVJd.s:349    .text.ble_diss_init:0000000000000074 .LVL37
C:\Users\stapi\AppData\Local\Temp\ccuARVJd.s:363    .text.ble_diss_init:0000000000000082 .LVL38
C:\Users\stapi\AppData\Local\Temp\ccuARVJd.s:380    .text.ble_diss_init:000000000000009a .LVL40
C:\Users\stapi\AppData\Local\Temp\ccuARVJd.s:394    .text.ble_diss_init:00000000000000a8 .LVL41
C:\Users\stapi\AppData\Local\Temp\ccuARVJd.s:411    .text.ble_diss_init:00000000000000c0 .LVL43
C:\Users\stapi\AppData\Local\Temp\ccuARVJd.s:425    .text.ble_diss_init:00000000000000ce .LVL44
C:\Users\stapi\AppData\Local\Temp\ccuARVJd.s:442    .text.ble_diss_init:00000000000000e6 .LVL46
C:\Users\stapi\AppData\Local\Temp\ccuARVJd.s:456    .text.ble_diss_init:00000000000000f4 .LVL47
C:\Users\stapi\AppData\Local\Temp\ccuARVJd.s:473    .text.ble_diss_init:000000000000010c .LVL49
C:\Users\stapi\AppData\Local\Temp\ccuARVJd.s:487    .text.ble_diss_init:000000000000011a .LVL50
C:\Users\stapi\AppData\Local\Temp\ccuARVJd.s:504    .text.ble_diss_init:0000000000000132 .LVL52
C:\Users\stapi\AppData\Local\Temp\ccuARVJd.s:518    .text.ble_diss_init:0000000000000140 .LVL53
C:\Users\stapi\AppData\Local\Temp\ccuARVJd.s:17     .text.ble_diss_srv_cb:0000000000000000 .LVL0
C:\Users\stapi\AppData\Local\Temp\ccuARVJd.s:114    .text.ble_diss_srv_cb:0000000000000056 .LVL8
C:\Users\stapi\AppData\Local\Temp\ccuARVJd.s:128    .text.ble_diss_srv_cb:0000000000000068 .LVL10
C:\Users\stapi\AppData\Local\Temp\ccuARVJd.s:37     .text.ble_diss_srv_cb:0000000000000014 .LVL2
C:\Users\stapi\AppData\Local\Temp\ccuARVJd.s:238    .text.ble_diss_srv_cb:00000000000000f2 .LVL25
C:\Users\stapi\AppData\Local\Temp\ccuARVJd.s:246    .text.ble_diss_srv_cb:00000000000000f6 .LVL26
C:\Users\stapi\AppData\Local\Temp\ccuARVJd.s:258    .text.ble_diss_srv_cb:00000000000000fc .LVL28
C:\Users\stapi\AppData\Local\Temp\ccuARVJd.s:106    .text.ble_diss_srv_cb:0000000000000050 .LVL7
C:\Users\stapi\AppData\Local\Temp\ccuARVJd.s:82     .text.ble_diss_srv_cb:000000000000003e .LVL3
C:\Users\stapi\AppData\Local\Temp\ccuARVJd.s:101    .text.ble_diss_srv_cb:000000000000004c .LVL6
C:\Users\stapi\AppData\Local\Temp\ccuARVJd.s:140    .text.ble_diss_srv_cb:0000000000000074 .LVL11
C:\Users\stapi\AppData\Local\Temp\ccuARVJd.s:146    .text.ble_diss_srv_cb:000000000000007a .LVL12
C:\Users\stapi\AppData\Local\Temp\ccuARVJd.s:154    .text.ble_diss_srv_cb:0000000000000086 .LVL13
C:\Users\stapi\AppData\Local\Temp\ccuARVJd.s:160    .text.ble_diss_srv_cb:000000000000008c .LVL14
C:\Users\stapi\AppData\Local\Temp\ccuARVJd.s:168    .text.ble_diss_srv_cb:0000000000000098 .LVL15
C:\Users\stapi\AppData\Local\Temp\ccuARVJd.s:174    .text.ble_diss_srv_cb:000000000000009e .LVL16
C:\Users\stapi\AppData\Local\Temp\ccuARVJd.s:182    .text.ble_diss_srv_cb:00000000000000aa .LVL17
C:\Users\stapi\AppData\Local\Temp\ccuARVJd.s:188    .text.ble_diss_srv_cb:00000000000000b0 .LVL18
C:\Users\stapi\AppData\Local\Temp\ccuARVJd.s:196    .text.ble_diss_srv_cb:00000000000000bc .LVL19
C:\Users\stapi\AppData\Local\Temp\ccuARVJd.s:202    .text.ble_diss_srv_cb:00000000000000c2 .LVL20
C:\Users\stapi\AppData\Local\Temp\ccuARVJd.s:210    .text.ble_diss_srv_cb:00000000000000ce .LVL21
C:\Users\stapi\AppData\Local\Temp\ccuARVJd.s:216    .text.ble_diss_srv_cb:00000000000000d4 .LVL22
C:\Users\stapi\AppData\Local\Temp\ccuARVJd.s:224    .text.ble_diss_srv_cb:00000000000000e0 .LVL23
C:\Users\stapi\AppData\Local\Temp\ccuARVJd.s:230    .text.ble_diss_srv_cb:00000000000000e6 .LVL24
C:\Users\stapi\AppData\Local\Temp\ccuARVJd.s:254    .text.ble_diss_srv_cb:00000000000000fa .LVL27
C:\Users\stapi\AppData\Local\Temp\ccuARVJd.s:89     .text.ble_diss_srv_cb:0000000000000046 .LVL4
C:\Users\stapi\AppData\Local\Temp\ccuARVJd.s:98     .text.ble_diss_srv_cb:000000000000004a .LVL5
C:\Users\stapi\AppData\Local\Temp\ccuARVJd.s:753    .debug_info:0000000000000000 .Ldebug_info0
C:\Users\stapi\AppData\Local\Temp\ccuARVJd.s:120    .text.ble_diss_srv_cb:000000000000005e .LBE27
C:\Users\stapi\AppData\Local\Temp\ccuARVJd.s:131    .text.ble_diss_srv_cb:0000000000000068 .LBB38
C:\Users\stapi\AppData\Local\Temp\ccuARVJd.s:242    .text.ble_diss_srv_cb:00000000000000f2 .LBE38
C:\Users\stapi\AppData\Local\Temp\ccuARVJd.s:248    .text.ble_diss_srv_cb:00000000000000f6 .LBB39
C:\Users\stapi\AppData\Local\Temp\ccuARVJd.s:262    .text.ble_diss_srv_cb:00000000000000fe .LBE39
C:\Users\stapi\AppData\Local\Temp\ccuARVJd.s:95     .text.ble_diss_srv_cb:0000000000000046 .LBE30
C:\Users\stapi\AppData\Local\Temp\ccuARVJd.s:102    .text.ble_diss_srv_cb:000000000000004c .LBB33
C:\Users\stapi\AppData\Local\Temp\ccuARVJd.s:108    .text.ble_diss_srv_cb:0000000000000050 .LBE33
C:\Users\stapi\AppData\Local\Temp\ccuARVJd.s:324    .text.ble_diss_init:0000000000000050 .LBE40
C:\Users\stapi\AppData\Local\Temp\ccuARVJd.s:327    .text.ble_diss_init:0000000000000054 .LBB43
C:\Users\stapi\AppData\Local\Temp\ccuARVJd.s:333    .text.ble_diss_init:0000000000000058 .LBE43
C:\Users\stapi\AppData\Local\Temp\ccuARVJd.s:354    .text.ble_diss_init:0000000000000074 .LBE44
C:\Users\stapi\AppData\Local\Temp\ccuARVJd.s:358    .text.ble_diss_init:000000000000007c .LBB47
C:\Users\stapi\AppData\Local\Temp\ccuARVJd.s:365    .text.ble_diss_init:0000000000000082 .LBE47
C:\Users\stapi\AppData\Local\Temp\ccuARVJd.s:385    .text.ble_diss_init:000000000000009a .LBE48
C:\Users\stapi\AppData\Local\Temp\ccuARVJd.s:389    .text.ble_diss_init:00000000000000a2 .LBB51
C:\Users\stapi\AppData\Local\Temp\ccuARVJd.s:396    .text.ble_diss_init:00000000000000a8 .LBE51
C:\Users\stapi\AppData\Local\Temp\ccuARVJd.s:416    .text.ble_diss_init:00000000000000c0 .LBE52
C:\Users\stapi\AppData\Local\Temp\ccuARVJd.s:420    .text.ble_diss_init:00000000000000c8 .LBB55
C:\Users\stapi\AppData\Local\Temp\ccuARVJd.s:427    .text.ble_diss_init:00000000000000ce .LBE55
C:\Users\stapi\AppData\Local\Temp\ccuARVJd.s:447    .text.ble_diss_init:00000000000000e6 .LBE56
C:\Users\stapi\AppData\Local\Temp\ccuARVJd.s:451    .text.ble_diss_init:00000000000000ee .LBB59
C:\Users\stapi\AppData\Local\Temp\ccuARVJd.s:458    .text.ble_diss_init:00000000000000f4 .LBE59
C:\Users\stapi\AppData\Local\Temp\ccuARVJd.s:478    .text.ble_diss_init:000000000000010c .LBE60
C:\Users\stapi\AppData\Local\Temp\ccuARVJd.s:482    .text.ble_diss_init:0000000000000114 .LBB63
C:\Users\stapi\AppData\Local\Temp\ccuARVJd.s:489    .text.ble_diss_init:000000000000011a .LBE63
C:\Users\stapi\AppData\Local\Temp\ccuARVJd.s:509    .text.ble_diss_init:0000000000000132 .LBE64
C:\Users\stapi\AppData\Local\Temp\ccuARVJd.s:513    .text.ble_diss_init:000000000000013a .LBB67
C:\Users\stapi\AppData\Local\Temp\ccuARVJd.s:520    .text.ble_diss_init:0000000000000140 .LBE67

UNDEFINED SYMBOLS
__riscv_save_1
sys_memcpy
__riscv_restore_1
__riscv_save_2
ble_gatts_svc_add
__riscv_restore_2
ble_gatts_svc_rmv
