   1              		.file	"dma.c"
   2              		.option nopic
   3              		.attribute arch, "rv32i2p0_m2p0_a2p0_f2p0_c2p0_b_p0p94"
   4              		.attribute unaligned_access, 0
   5              		.attribute stack_align, 16
   6              		.text
   7              	.Ltext0:
   8              		.cfi_sections	.debug_frame
   9              		.section	.text.dma_config,"ax",@progbits
  10              		.align	1
  11              		.globl	dma_config
  13              	dma_config:
  14              	.LFB365:
  15              		.file 1 "C:/Users/stapi/OneDrive/Desktop/GD32VW553/GD32VW55X_Wifi_BLE_SDK/GD32VW55x_RELEASE_V1.0.2
   1:C:/Users/stapi/OneDrive/Desktop/GD32VW553/GD32VW55X_Wifi_BLE_SDK/GD32VW55x_RELEASE_V1.0.2/MSDK/plf/src/dma\dma.c **** /*!
   2:C:/Users/stapi/OneDrive/Desktop/GD32VW553/GD32VW55X_Wifi_BLE_SDK/GD32VW55x_RELEASE_V1.0.2/MSDK/plf/src/dma\dma.c ****     \file    dma.c
   3:C:/Users/stapi/OneDrive/Desktop/GD32VW553/GD32VW55X_Wifi_BLE_SDK/GD32VW55x_RELEASE_V1.0.2/MSDK/plf/src/dma\dma.c ****     \brief   DMA utility functions for GD32VW55x SDK.
   4:C:/Users/stapi/OneDrive/Desktop/GD32VW553/GD32VW55X_Wifi_BLE_SDK/GD32VW55x_RELEASE_V1.0.2/MSDK/plf/src/dma\dma.c **** 
   5:C:/Users/stapi/OneDrive/Desktop/GD32VW553/GD32VW55X_Wifi_BLE_SDK/GD32VW55x_RELEASE_V1.0.2/MSDK/plf/src/dma\dma.c ****     \version 2023-07-20, V1.0.0, firmware for GD32VW55x
   6:C:/Users/stapi/OneDrive/Desktop/GD32VW553/GD32VW55X_Wifi_BLE_SDK/GD32VW55x_RELEASE_V1.0.2/MSDK/plf/src/dma\dma.c **** */
   7:C:/Users/stapi/OneDrive/Desktop/GD32VW553/GD32VW55X_Wifi_BLE_SDK/GD32VW55x_RELEASE_V1.0.2/MSDK/plf/src/dma\dma.c **** 
   8:C:/Users/stapi/OneDrive/Desktop/GD32VW553/GD32VW55X_Wifi_BLE_SDK/GD32VW55x_RELEASE_V1.0.2/MSDK/plf/src/dma\dma.c **** /*
   9:C:/Users/stapi/OneDrive/Desktop/GD32VW553/GD32VW55X_Wifi_BLE_SDK/GD32VW55x_RELEASE_V1.0.2/MSDK/plf/src/dma\dma.c ****     Copyright (c) 2023, GigaDevice Semiconductor Inc.
  10:C:/Users/stapi/OneDrive/Desktop/GD32VW553/GD32VW55X_Wifi_BLE_SDK/GD32VW55x_RELEASE_V1.0.2/MSDK/plf/src/dma\dma.c **** 
  11:C:/Users/stapi/OneDrive/Desktop/GD32VW553/GD32VW55X_Wifi_BLE_SDK/GD32VW55x_RELEASE_V1.0.2/MSDK/plf/src/dma\dma.c ****     Redistribution and use in source and binary forms, with or without modification,
  12:C:/Users/stapi/OneDrive/Desktop/GD32VW553/GD32VW55X_Wifi_BLE_SDK/GD32VW55x_RELEASE_V1.0.2/MSDK/plf/src/dma\dma.c **** are permitted provided that the following conditions are met:
  13:C:/Users/stapi/OneDrive/Desktop/GD32VW553/GD32VW55X_Wifi_BLE_SDK/GD32VW55x_RELEASE_V1.0.2/MSDK/plf/src/dma\dma.c **** 
  14:C:/Users/stapi/OneDrive/Desktop/GD32VW553/GD32VW55X_Wifi_BLE_SDK/GD32VW55x_RELEASE_V1.0.2/MSDK/plf/src/dma\dma.c ****     1. Redistributions of source code must retain the above copyright notice, this
  15:C:/Users/stapi/OneDrive/Desktop/GD32VW553/GD32VW55X_Wifi_BLE_SDK/GD32VW55x_RELEASE_V1.0.2/MSDK/plf/src/dma\dma.c ****        list of conditions and the following disclaimer.
  16:C:/Users/stapi/OneDrive/Desktop/GD32VW553/GD32VW55X_Wifi_BLE_SDK/GD32VW55x_RELEASE_V1.0.2/MSDK/plf/src/dma\dma.c ****     2. Redistributions in binary form must reproduce the above copyright notice,
  17:C:/Users/stapi/OneDrive/Desktop/GD32VW553/GD32VW55X_Wifi_BLE_SDK/GD32VW55x_RELEASE_V1.0.2/MSDK/plf/src/dma\dma.c ****        this list of conditions and the following disclaimer in the documentation
  18:C:/Users/stapi/OneDrive/Desktop/GD32VW553/GD32VW55X_Wifi_BLE_SDK/GD32VW55x_RELEASE_V1.0.2/MSDK/plf/src/dma\dma.c ****        and/or other materials provided with the distribution.
  19:C:/Users/stapi/OneDrive/Desktop/GD32VW553/GD32VW55X_Wifi_BLE_SDK/GD32VW55x_RELEASE_V1.0.2/MSDK/plf/src/dma\dma.c ****     3. Neither the name of the copyright holder nor the names of its contributors
  20:C:/Users/stapi/OneDrive/Desktop/GD32VW553/GD32VW55X_Wifi_BLE_SDK/GD32VW55x_RELEASE_V1.0.2/MSDK/plf/src/dma\dma.c ****        may be used to endorse or promote products derived from this software without
  21:C:/Users/stapi/OneDrive/Desktop/GD32VW553/GD32VW55X_Wifi_BLE_SDK/GD32VW55x_RELEASE_V1.0.2/MSDK/plf/src/dma\dma.c ****        specific prior written permission.
  22:C:/Users/stapi/OneDrive/Desktop/GD32VW553/GD32VW55X_Wifi_BLE_SDK/GD32VW55x_RELEASE_V1.0.2/MSDK/plf/src/dma\dma.c **** 
  23:C:/Users/stapi/OneDrive/Desktop/GD32VW553/GD32VW55X_Wifi_BLE_SDK/GD32VW55x_RELEASE_V1.0.2/MSDK/plf/src/dma\dma.c ****     THIS SOFTWARE IS PROVIDED BY THE COPYRIGHT HOLDERS AND CONTRIBUTORS "AS IS"
  24:C:/Users/stapi/OneDrive/Desktop/GD32VW553/GD32VW55X_Wifi_BLE_SDK/GD32VW55x_RELEASE_V1.0.2/MSDK/plf/src/dma\dma.c **** AND ANY EXPRESS OR IMPLIED WARRANTIES, INCLUDING, BUT NOT LIMITED TO, THE IMPLIED
  25:C:/Users/stapi/OneDrive/Desktop/GD32VW553/GD32VW55X_Wifi_BLE_SDK/GD32VW55x_RELEASE_V1.0.2/MSDK/plf/src/dma\dma.c **** WARRANTIES OF MERCHANTABILITY AND FITNESS FOR A PARTICULAR PURPOSE ARE DISCLAIMED.
  26:C:/Users/stapi/OneDrive/Desktop/GD32VW553/GD32VW55X_Wifi_BLE_SDK/GD32VW55x_RELEASE_V1.0.2/MSDK/plf/src/dma\dma.c **** IN NO EVENT SHALL THE COPYRIGHT HOLDER OR CONTRIBUTORS BE LIABLE FOR ANY DIRECT,
  27:C:/Users/stapi/OneDrive/Desktop/GD32VW553/GD32VW55X_Wifi_BLE_SDK/GD32VW55x_RELEASE_V1.0.2/MSDK/plf/src/dma\dma.c **** INDIRECT, INCIDENTAL, SPECIAL, EXEMPLARY, OR CONSEQUENTIAL DAMAGES (INCLUDING, BUT
  28:C:/Users/stapi/OneDrive/Desktop/GD32VW553/GD32VW55X_Wifi_BLE_SDK/GD32VW55x_RELEASE_V1.0.2/MSDK/plf/src/dma\dma.c **** NOT LIMITED TO, PROCUREMENT OF SUBSTITUTE GOODS OR SERVICES; LOSS OF USE, DATA, OR
  29:C:/Users/stapi/OneDrive/Desktop/GD32VW553/GD32VW55X_Wifi_BLE_SDK/GD32VW55x_RELEASE_V1.0.2/MSDK/plf/src/dma\dma.c **** PROFITS; OR BUSINESS INTERRUPTION) HOWEVER CAUSED AND ON ANY THEORY OF LIABILITY,
  30:C:/Users/stapi/OneDrive/Desktop/GD32VW553/GD32VW55X_Wifi_BLE_SDK/GD32VW55x_RELEASE_V1.0.2/MSDK/plf/src/dma\dma.c **** WHETHER IN CONTRACT, STRICT LIABILITY, OR TORT (INCLUDING NEGLIGENCE OR OTHERWISE)
  31:C:/Users/stapi/OneDrive/Desktop/GD32VW553/GD32VW55X_Wifi_BLE_SDK/GD32VW55x_RELEASE_V1.0.2/MSDK/plf/src/dma\dma.c **** ARISING IN ANY WAY OUT OF THE USE OF THIS SOFTWARE, EVEN IF ADVISED OF THE POSSIBILITY
  32:C:/Users/stapi/OneDrive/Desktop/GD32VW553/GD32VW55X_Wifi_BLE_SDK/GD32VW55x_RELEASE_V1.0.2/MSDK/plf/src/dma\dma.c **** OF SUCH DAMAGE.
  33:C:/Users/stapi/OneDrive/Desktop/GD32VW553/GD32VW55X_Wifi_BLE_SDK/GD32VW55x_RELEASE_V1.0.2/MSDK/plf/src/dma\dma.c **** */
  34:C:/Users/stapi/OneDrive/Desktop/GD32VW553/GD32VW55X_Wifi_BLE_SDK/GD32VW55x_RELEASE_V1.0.2/MSDK/plf/src/dma\dma.c **** 
  35:C:/Users/stapi/OneDrive/Desktop/GD32VW553/GD32VW55X_Wifi_BLE_SDK/GD32VW55x_RELEASE_V1.0.2/MSDK/plf/src/dma\dma.c **** /*
  36:C:/Users/stapi/OneDrive/Desktop/GD32VW553/GD32VW55X_Wifi_BLE_SDK/GD32VW55x_RELEASE_V1.0.2/MSDK/plf/src/dma\dma.c ****  * INCLUDE FILES
  37:C:/Users/stapi/OneDrive/Desktop/GD32VW553/GD32VW55X_Wifi_BLE_SDK/GD32VW55x_RELEASE_V1.0.2/MSDK/plf/src/dma\dma.c ****  ****************************************************************************************
  38:C:/Users/stapi/OneDrive/Desktop/GD32VW553/GD32VW55X_Wifi_BLE_SDK/GD32VW55x_RELEASE_V1.0.2/MSDK/plf/src/dma\dma.c ****  */
  39:C:/Users/stapi/OneDrive/Desktop/GD32VW553/GD32VW55X_Wifi_BLE_SDK/GD32VW55x_RELEASE_V1.0.2/MSDK/plf/src/dma\dma.c **** #include <stddef.h>
  40:C:/Users/stapi/OneDrive/Desktop/GD32VW553/GD32VW55X_Wifi_BLE_SDK/GD32VW55x_RELEASE_V1.0.2/MSDK/plf/src/dma\dma.c **** #include <string.h>
  41:C:/Users/stapi/OneDrive/Desktop/GD32VW553/GD32VW55X_Wifi_BLE_SDK/GD32VW55x_RELEASE_V1.0.2/MSDK/plf/src/dma\dma.c **** #include "dma.h"
  42:C:/Users/stapi/OneDrive/Desktop/GD32VW553/GD32VW55X_Wifi_BLE_SDK/GD32VW55x_RELEASE_V1.0.2/MSDK/plf/src/dma\dma.c **** #include "gd32vw55x.h"
  43:C:/Users/stapi/OneDrive/Desktop/GD32VW553/GD32VW55X_Wifi_BLE_SDK/GD32VW55x_RELEASE_V1.0.2/MSDK/plf/src/dma\dma.c **** /*!
  44:C:/Users/stapi/OneDrive/Desktop/GD32VW553/GD32VW55X_Wifi_BLE_SDK/GD32VW55x_RELEASE_V1.0.2/MSDK/plf/src/dma\dma.c ****     \brief      configure DMA
  45:C:/Users/stapi/OneDrive/Desktop/GD32VW553/GD32VW55X_Wifi_BLE_SDK/GD32VW55x_RELEASE_V1.0.2/MSDK/plf/src/dma\dma.c ****     \param[in]  none
  46:C:/Users/stapi/OneDrive/Desktop/GD32VW553/GD32VW55X_Wifi_BLE_SDK/GD32VW55x_RELEASE_V1.0.2/MSDK/plf/src/dma\dma.c ****     \param[out] none
  47:C:/Users/stapi/OneDrive/Desktop/GD32VW553/GD32VW55X_Wifi_BLE_SDK/GD32VW55x_RELEASE_V1.0.2/MSDK/plf/src/dma\dma.c ****     \retval     none
  48:C:/Users/stapi/OneDrive/Desktop/GD32VW553/GD32VW55X_Wifi_BLE_SDK/GD32VW55x_RELEASE_V1.0.2/MSDK/plf/src/dma\dma.c **** */
  49:C:/Users/stapi/OneDrive/Desktop/GD32VW553/GD32VW55X_Wifi_BLE_SDK/GD32VW55x_RELEASE_V1.0.2/MSDK/plf/src/dma\dma.c **** void dma_config(void)
  50:C:/Users/stapi/OneDrive/Desktop/GD32VW553/GD32VW55X_Wifi_BLE_SDK/GD32VW55x_RELEASE_V1.0.2/MSDK/plf/src/dma\dma.c **** {
  16              		.loc 1 50 1
  17              		.cfi_startproc
  18 0000 17030000 		call	t0,__riscv_save_1
  18      E7020300 
  19              		.cfi_offset 8, -8
  20              		.cfi_offset 1, -4
  21              		.cfi_def_cfa_offset 16
  51:C:/Users/stapi/OneDrive/Desktop/GD32VW553/GD32VW55X_Wifi_BLE_SDK/GD32VW55x_RELEASE_V1.0.2/MSDK/plf/src/dma\dma.c ****     dma_multi_data_parameter_struct  dma_init_parameter;
  22              		.loc 1 51 5
  52:C:/Users/stapi/OneDrive/Desktop/GD32VW553/GD32VW55X_Wifi_BLE_SDK/GD32VW55x_RELEASE_V1.0.2/MSDK/plf/src/dma\dma.c **** 
  53:C:/Users/stapi/OneDrive/Desktop/GD32VW553/GD32VW55X_Wifi_BLE_SDK/GD32VW55x_RELEASE_V1.0.2/MSDK/plf/src/dma\dma.c ****     /* peripheral clock enable */
  54:C:/Users/stapi/OneDrive/Desktop/GD32VW553/GD32VW55X_Wifi_BLE_SDK/GD32VW55x_RELEASE_V1.0.2/MSDK/plf/src/dma\dma.c ****     rcu_periph_clock_enable(RCU_DMA);
  23              		.loc 1 54 5
  24 0008 0564     		li	s0,4096
  50:C:/Users/stapi/OneDrive/Desktop/GD32VW553/GD32VW55X_Wifi_BLE_SDK/GD32VW55x_RELEASE_V1.0.2/MSDK/plf/src/dma\dma.c ****     dma_multi_data_parameter_struct  dma_init_parameter;
  25              		.loc 1 50 1 is_stmt 0
  26 000a 3971     		addi	sp,sp,-64
  27              		.cfi_def_cfa_offset 80
  28              		.loc 1 54 5
  29 000c 130554C1 		addi	a0,s0,-1003
  30 0010 97000000 		call	rcu_periph_clock_enable
  30      E7800000 
  31              	.LVL0:
  55:C:/Users/stapi/OneDrive/Desktop/GD32VW553/GD32VW55X_Wifi_BLE_SDK/GD32VW55x_RELEASE_V1.0.2/MSDK/plf/src/dma\dma.c **** 
  56:C:/Users/stapi/OneDrive/Desktop/GD32VW553/GD32VW55X_Wifi_BLE_SDK/GD32VW55x_RELEASE_V1.0.2/MSDK/plf/src/dma\dma.c ****     /* DMA peripheral configure */
  57:C:/Users/stapi/OneDrive/Desktop/GD32VW553/GD32VW55X_Wifi_BLE_SDK/GD32VW55x_RELEASE_V1.0.2/MSDK/plf/src/dma\dma.c ****     dma_deinit(DMA_CH0);
  32              		.loc 1 57 5 is_stmt 1
  33 0018 0145     		li	a0,0
  34 001a 97000000 		call	dma_deinit
  34      E7800000 
  35              	.LVL1:
  58:C:/Users/stapi/OneDrive/Desktop/GD32VW553/GD32VW55X_Wifi_BLE_SDK/GD32VW55x_RELEASE_V1.0.2/MSDK/plf/src/dma\dma.c **** 
  59:C:/Users/stapi/OneDrive/Desktop/GD32VW553/GD32VW55X_Wifi_BLE_SDK/GD32VW55x_RELEASE_V1.0.2/MSDK/plf/src/dma\dma.c ****     dma_init_parameter.periph_width = DMA_PERIPH_WIDTH_32BIT;
  36              		.loc 1 59 5
  60:C:/Users/stapi/OneDrive/Desktop/GD32VW553/GD32VW55X_Wifi_BLE_SDK/GD32VW55x_RELEASE_V1.0.2/MSDK/plf/src/dma\dma.c ****     dma_init_parameter.periph_inc = DMA_PERIPH_INCREASE_ENABLE;
  61:C:/Users/stapi/OneDrive/Desktop/GD32VW553/GD32VW55X_Wifi_BLE_SDK/GD32VW55x_RELEASE_V1.0.2/MSDK/plf/src/dma\dma.c ****     dma_init_parameter.memory_width = DMA_MEMORY_WIDTH_32BIT;
  37              		.loc 1 61 37 is_stmt 0
  38 0022 9167     		li	a5,16384
  39 0024 3ECE     		sw	a5,28(sp)
  62:C:/Users/stapi/OneDrive/Desktop/GD32VW553/GD32VW55X_Wifi_BLE_SDK/GD32VW55x_RELEASE_V1.0.2/MSDK/plf/src/dma\dma.c ****     dma_init_parameter.memory_inc = DMA_MEMORY_INCREASE_ENABLE;
  63:C:/Users/stapi/OneDrive/Desktop/GD32VW553/GD32VW55X_Wifi_BLE_SDK/GD32VW55x_RELEASE_V1.0.2/MSDK/plf/src/dma\dma.c ****     dma_init_parameter.memory_burst_width = DMA_MEMORY_BURST_SINGLE;
  64:C:/Users/stapi/OneDrive/Desktop/GD32VW553/GD32VW55X_Wifi_BLE_SDK/GD32VW55x_RELEASE_V1.0.2/MSDK/plf/src/dma\dma.c ****     dma_init_parameter.periph_burst_width = DMA_PERIPH_BURST_SINGLE;
  65:C:/Users/stapi/OneDrive/Desktop/GD32VW553/GD32VW55X_Wifi_BLE_SDK/GD32VW55x_RELEASE_V1.0.2/MSDK/plf/src/dma\dma.c ****     dma_init_parameter.critical_value = DMA_FIFO_4_WORD;
  40              		.loc 1 65 39
  41 0026 8D47     		li	a5,3
  42 0028 3ED6     		sw	a5,44(sp)
  66:C:/Users/stapi/OneDrive/Desktop/GD32VW553/GD32VW55X_Wifi_BLE_SDK/GD32VW55x_RELEASE_V1.0.2/MSDK/plf/src/dma\dma.c ****     dma_init_parameter.circular_mode = DMA_CIRCULAR_MODE_DISABLE;
  67:C:/Users/stapi/OneDrive/Desktop/GD32VW553/GD32VW55X_Wifi_BLE_SDK/GD32VW55x_RELEASE_V1.0.2/MSDK/plf/src/dma\dma.c ****     dma_init_parameter.direction = DMA_MEMORY_TO_MEMORY;
  43              		.loc 1 67 34
  44 002a 93070008 		li	a5,128
  45 002e 3EDA     		sw	a5,52(sp)
  68:C:/Users/stapi/OneDrive/Desktop/GD32VW553/GD32VW55X_Wifi_BLE_SDK/GD32VW55x_RELEASE_V1.0.2/MSDK/plf/src/dma\dma.c ****     dma_init_parameter.priority = DMA_PRIORITY_ULTRA_HIGH;
  69:C:/Users/stapi/OneDrive/Desktop/GD32VW553/GD32VW55X_Wifi_BLE_SDK/GD32VW55x_RELEASE_V1.0.2/MSDK/plf/src/dma\dma.c ****     dma_multi_data_mode_init(DMA_CH0, &dma_init_parameter);
  46              		.loc 1 69 5
  47 0030 6C00     		addi	a1,sp,12
  68:C:/Users/stapi/OneDrive/Desktop/GD32VW553/GD32VW55X_Wifi_BLE_SDK/GD32VW55x_RELEASE_V1.0.2/MSDK/plf/src/dma\dma.c ****     dma_init_parameter.priority = DMA_PRIORITY_ULTRA_HIGH;
  48              		.loc 1 68 33
  49 0032 B7070300 		li	a5,196608
  50              		.loc 1 69 5
  51 0036 0145     		li	a0,0
  59:C:/Users/stapi/OneDrive/Desktop/GD32VW553/GD32VW55X_Wifi_BLE_SDK/GD32VW55x_RELEASE_V1.0.2/MSDK/plf/src/dma\dma.c ****     dma_init_parameter.periph_inc = DMA_PERIPH_INCREASE_ENABLE;
  52              		.loc 1 59 37
  53 0038 22C8     		sw	s0,16(sp)
  60:C:/Users/stapi/OneDrive/Desktop/GD32VW553/GD32VW55X_Wifi_BLE_SDK/GD32VW55x_RELEASE_V1.0.2/MSDK/plf/src/dma\dma.c ****     dma_init_parameter.memory_width = DMA_MEMORY_WIDTH_32BIT;
  54              		.loc 1 60 5 is_stmt 1
  68:C:/Users/stapi/OneDrive/Desktop/GD32VW553/GD32VW55X_Wifi_BLE_SDK/GD32VW55x_RELEASE_V1.0.2/MSDK/plf/src/dma\dma.c ****     dma_init_parameter.priority = DMA_PRIORITY_ULTRA_HIGH;
  55              		.loc 1 68 33 is_stmt 0
  56 003a 3EDE     		sw	a5,60(sp)
  60:C:/Users/stapi/OneDrive/Desktop/GD32VW553/GD32VW55X_Wifi_BLE_SDK/GD32VW55x_RELEASE_V1.0.2/MSDK/plf/src/dma\dma.c ****     dma_init_parameter.memory_width = DMA_MEMORY_WIDTH_32BIT;
  57              		.loc 1 60 35
  58 003c 02CA     		sw	zero,20(sp)
  61:C:/Users/stapi/OneDrive/Desktop/GD32VW553/GD32VW55X_Wifi_BLE_SDK/GD32VW55x_RELEASE_V1.0.2/MSDK/plf/src/dma\dma.c ****     dma_init_parameter.memory_inc = DMA_MEMORY_INCREASE_ENABLE;
  59              		.loc 1 61 5 is_stmt 1
  62:C:/Users/stapi/OneDrive/Desktop/GD32VW553/GD32VW55X_Wifi_BLE_SDK/GD32VW55x_RELEASE_V1.0.2/MSDK/plf/src/dma\dma.c ****     dma_init_parameter.memory_burst_width = DMA_MEMORY_BURST_SINGLE;
  60              		.loc 1 62 5
  62:C:/Users/stapi/OneDrive/Desktop/GD32VW553/GD32VW55X_Wifi_BLE_SDK/GD32VW55x_RELEASE_V1.0.2/MSDK/plf/src/dma\dma.c ****     dma_init_parameter.memory_burst_width = DMA_MEMORY_BURST_SINGLE;
  61              		.loc 1 62 35 is_stmt 0
  62 003e 02D0     		sw	zero,32(sp)
  63:C:/Users/stapi/OneDrive/Desktop/GD32VW553/GD32VW55X_Wifi_BLE_SDK/GD32VW55x_RELEASE_V1.0.2/MSDK/plf/src/dma\dma.c ****     dma_init_parameter.periph_burst_width = DMA_PERIPH_BURST_SINGLE;
  63              		.loc 1 63 5 is_stmt 1
  63:C:/Users/stapi/OneDrive/Desktop/GD32VW553/GD32VW55X_Wifi_BLE_SDK/GD32VW55x_RELEASE_V1.0.2/MSDK/plf/src/dma\dma.c ****     dma_init_parameter.periph_burst_width = DMA_PERIPH_BURST_SINGLE;
  64              		.loc 1 63 43 is_stmt 0
  65 0040 02D2     		sw	zero,36(sp)
  64:C:/Users/stapi/OneDrive/Desktop/GD32VW553/GD32VW55X_Wifi_BLE_SDK/GD32VW55x_RELEASE_V1.0.2/MSDK/plf/src/dma\dma.c ****     dma_init_parameter.critical_value = DMA_FIFO_4_WORD;
  66              		.loc 1 64 5 is_stmt 1
  64:C:/Users/stapi/OneDrive/Desktop/GD32VW553/GD32VW55X_Wifi_BLE_SDK/GD32VW55x_RELEASE_V1.0.2/MSDK/plf/src/dma\dma.c ****     dma_init_parameter.critical_value = DMA_FIFO_4_WORD;
  67              		.loc 1 64 43 is_stmt 0
  68 0042 02D4     		sw	zero,40(sp)
  65:C:/Users/stapi/OneDrive/Desktop/GD32VW553/GD32VW55X_Wifi_BLE_SDK/GD32VW55x_RELEASE_V1.0.2/MSDK/plf/src/dma\dma.c ****     dma_init_parameter.circular_mode = DMA_CIRCULAR_MODE_DISABLE;
  69              		.loc 1 65 5 is_stmt 1
  66:C:/Users/stapi/OneDrive/Desktop/GD32VW553/GD32VW55X_Wifi_BLE_SDK/GD32VW55x_RELEASE_V1.0.2/MSDK/plf/src/dma\dma.c ****     dma_init_parameter.direction = DMA_MEMORY_TO_MEMORY;
  70              		.loc 1 66 5
  66:C:/Users/stapi/OneDrive/Desktop/GD32VW553/GD32VW55X_Wifi_BLE_SDK/GD32VW55x_RELEASE_V1.0.2/MSDK/plf/src/dma\dma.c ****     dma_init_parameter.direction = DMA_MEMORY_TO_MEMORY;
  71              		.loc 1 66 38 is_stmt 0
  72 0044 02D8     		sw	zero,48(sp)
  67:C:/Users/stapi/OneDrive/Desktop/GD32VW553/GD32VW55X_Wifi_BLE_SDK/GD32VW55x_RELEASE_V1.0.2/MSDK/plf/src/dma\dma.c ****     dma_init_parameter.priority = DMA_PRIORITY_ULTRA_HIGH;
  73              		.loc 1 67 5 is_stmt 1
  68:C:/Users/stapi/OneDrive/Desktop/GD32VW553/GD32VW55X_Wifi_BLE_SDK/GD32VW55x_RELEASE_V1.0.2/MSDK/plf/src/dma\dma.c ****     dma_multi_data_mode_init(DMA_CH0, &dma_init_parameter);
  74              		.loc 1 68 5
  75              		.loc 1 69 5
  76 0046 97000000 		call	dma_multi_data_mode_init
  76      E7800000 
  77              	.LVL2:
  70:C:/Users/stapi/OneDrive/Desktop/GD32VW553/GD32VW55X_Wifi_BLE_SDK/GD32VW55x_RELEASE_V1.0.2/MSDK/plf/src/dma\dma.c **** }
  78              		.loc 1 70 1 is_stmt 0
  79 004e 2161     		addi	sp,sp,64
  80              		.cfi_def_cfa_offset 0
  81 0050 17030000 		tail	__riscv_restore_1
  81      67000300 
  82              		.cfi_restore 8
  83              		.cfi_restore 1
  84              		.cfi_def_cfa_offset -16
  85              		.cfi_endproc
  86              	.LFE365:
  88              		.section	.text.dma_transfer,"ax",@progbits
  89              		.align	1
  90              		.globl	dma_transfer
  92              	dma_transfer:
  93              	.LFB366:
  71:C:/Users/stapi/OneDrive/Desktop/GD32VW553/GD32VW55X_Wifi_BLE_SDK/GD32VW55x_RELEASE_V1.0.2/MSDK/plf/src/dma\dma.c **** 
  72:C:/Users/stapi/OneDrive/Desktop/GD32VW553/GD32VW55X_Wifi_BLE_SDK/GD32VW55x_RELEASE_V1.0.2/MSDK/plf/src/dma\dma.c **** /*!
  73:C:/Users/stapi/OneDrive/Desktop/GD32VW553/GD32VW55X_Wifi_BLE_SDK/GD32VW55x_RELEASE_V1.0.2/MSDK/plf/src/dma\dma.c ****     \brief      transfer DMA
  74:C:/Users/stapi/OneDrive/Desktop/GD32VW553/GD32VW55X_Wifi_BLE_SDK/GD32VW55x_RELEASE_V1.0.2/MSDK/plf/src/dma\dma.c ****     \param[in]  channel: specify which DMA channel to get flag
  75:C:/Users/stapi/OneDrive/Desktop/GD32VW553/GD32VW55X_Wifi_BLE_SDK/GD32VW55x_RELEASE_V1.0.2/MSDK/plf/src/dma\dma.c ****       \arg        DMA_CHx(x=0..7)
  76:C:/Users/stapi/OneDrive/Desktop/GD32VW553/GD32VW55X_Wifi_BLE_SDK/GD32VW55x_RELEASE_V1.0.2/MSDK/plf/src/dma\dma.c ****     \param[in]  periph_addr:periphel address
  77:C:/Users/stapi/OneDrive/Desktop/GD32VW553/GD32VW55X_Wifi_BLE_SDK/GD32VW55x_RELEASE_V1.0.2/MSDK/plf/src/dma\dma.c ****     \param[in]  memory0_addr:memory0 address
  78:C:/Users/stapi/OneDrive/Desktop/GD32VW553/GD32VW55X_Wifi_BLE_SDK/GD32VW55x_RELEASE_V1.0.2/MSDK/plf/src/dma\dma.c ****     \param[in]  number:data number want  to transfer
  79:C:/Users/stapi/OneDrive/Desktop/GD32VW553/GD32VW55X_Wifi_BLE_SDK/GD32VW55x_RELEASE_V1.0.2/MSDK/plf/src/dma\dma.c ****     \param[out] none
  80:C:/Users/stapi/OneDrive/Desktop/GD32VW553/GD32VW55X_Wifi_BLE_SDK/GD32VW55x_RELEASE_V1.0.2/MSDK/plf/src/dma\dma.c ****     \retval     none
  81:C:/Users/stapi/OneDrive/Desktop/GD32VW553/GD32VW55X_Wifi_BLE_SDK/GD32VW55x_RELEASE_V1.0.2/MSDK/plf/src/dma\dma.c **** */
  82:C:/Users/stapi/OneDrive/Desktop/GD32VW553/GD32VW55X_Wifi_BLE_SDK/GD32VW55x_RELEASE_V1.0.2/MSDK/plf/src/dma\dma.c **** void dma_transfer(uint32_t periph_addr, uint32_t memory0_addr, uint32_t number)
  83:C:/Users/stapi/OneDrive/Desktop/GD32VW553/GD32VW55X_Wifi_BLE_SDK/GD32VW55x_RELEASE_V1.0.2/MSDK/plf/src/dma\dma.c **** {
  94              		.loc 1 83 1 is_stmt 1
  95              		.cfi_startproc
  96              	.LVL3:
  97 0000 17030000 		call	t0,__riscv_save_3
  97      E7020300 
  98              		.cfi_offset 18, -16
  99              		.cfi_offset 9, -12
 100              		.cfi_offset 8, -8
 101              		.cfi_offset 1, -4
 102              		.cfi_def_cfa_offset 16
  84:C:/Users/stapi/OneDrive/Desktop/GD32VW553/GD32VW55X_Wifi_BLE_SDK/GD32VW55x_RELEASE_V1.0.2/MSDK/plf/src/dma\dma.c ****     dma_flag_clear(DMA_CH0, (DMA_FLAG_FTF | DMA_FLAG_HTF));
 103              		.loc 1 84 5
  83:C:/Users/stapi/OneDrive/Desktop/GD32VW553/GD32VW55X_Wifi_BLE_SDK/GD32VW55x_RELEASE_V1.0.2/MSDK/plf/src/dma\dma.c ****     dma_flag_clear(DMA_CH0, (DMA_FLAG_FTF | DMA_FLAG_HTF));
 104              		.loc 1 83 1 is_stmt 0
 105 0008 2A89     		mv	s2,a0
 106 000a AE84     		mv	s1,a1
 107              		.loc 1 84 5
 108 000c 0145     		li	a0,0
 109              	.LVL4:
 110 000e 93050003 		li	a1,48
 111              	.LVL5:
  83:C:/Users/stapi/OneDrive/Desktop/GD32VW553/GD32VW55X_Wifi_BLE_SDK/GD32VW55x_RELEASE_V1.0.2/MSDK/plf/src/dma\dma.c ****     dma_flag_clear(DMA_CH0, (DMA_FLAG_FTF | DMA_FLAG_HTF));
 112              		.loc 1 83 1
 113 0012 3284     		mv	s0,a2
 114              		.loc 1 84 5
 115 0014 97000000 		call	dma_flag_clear
 115      E7800000 
 116              	.LVL6:
  85:C:/Users/stapi/OneDrive/Desktop/GD32VW553/GD32VW55X_Wifi_BLE_SDK/GD32VW55x_RELEASE_V1.0.2/MSDK/plf/src/dma\dma.c **** 
  86:C:/Users/stapi/OneDrive/Desktop/GD32VW553/GD32VW55X_Wifi_BLE_SDK/GD32VW55x_RELEASE_V1.0.2/MSDK/plf/src/dma\dma.c ****     /* DMA peripheral configure */
  87:C:/Users/stapi/OneDrive/Desktop/GD32VW553/GD32VW55X_Wifi_BLE_SDK/GD32VW55x_RELEASE_V1.0.2/MSDK/plf/src/dma\dma.c ****     dma_periph_address_config(DMA_CH0, periph_addr);
 117              		.loc 1 87 5 is_stmt 1
 118 001c CA85     		mv	a1,s2
 119 001e 0145     		li	a0,0
 120 0020 97000000 		call	dma_periph_address_config
 120      E7800000 
 121              	.LVL7:
  88:C:/Users/stapi/OneDrive/Desktop/GD32VW553/GD32VW55X_Wifi_BLE_SDK/GD32VW55x_RELEASE_V1.0.2/MSDK/plf/src/dma\dma.c ****     dma_memory_address_config(DMA_CH0, DMA_MEMORY_0, memory0_addr);
 122              		.loc 1 88 5
 123 0028 2686     		mv	a2,s1
 124 002a 8145     		li	a1,0
 125 002c 0145     		li	a0,0
 126 002e 97000000 		call	dma_memory_address_config
 126      E7800000 
 127              	.LVL8:
  89:C:/Users/stapi/OneDrive/Desktop/GD32VW553/GD32VW55X_Wifi_BLE_SDK/GD32VW55x_RELEASE_V1.0.2/MSDK/plf/src/dma\dma.c ****     dma_transfer_number_config(DMA_CH0, number);
 128              		.loc 1 89 5
 129 0036 0145     		li	a0,0
 130 0038 A285     		mv	a1,s0
 131 003a 97000000 		call	dma_transfer_number_config
 131      E7800000 
 132              	.LVL9:
  90:C:/Users/stapi/OneDrive/Desktop/GD32VW553/GD32VW55X_Wifi_BLE_SDK/GD32VW55x_RELEASE_V1.0.2/MSDK/plf/src/dma\dma.c **** 
  91:C:/Users/stapi/OneDrive/Desktop/GD32VW553/GD32VW55X_Wifi_BLE_SDK/GD32VW55x_RELEASE_V1.0.2/MSDK/plf/src/dma\dma.c ****     dma_channel_enable(DMA_CH0);
 133              		.loc 1 91 5
 134 0042 0145     		li	a0,0
 135 0044 97000000 		call	dma_channel_enable
 135      E7800000 
 136              	.LVL10:
  92:C:/Users/stapi/OneDrive/Desktop/GD32VW553/GD32VW55X_Wifi_BLE_SDK/GD32VW55x_RELEASE_V1.0.2/MSDK/plf/src/dma\dma.c ****     while(!dma_flag_get(DMA_CH0, DMA_FLAG_FTF));
 137              		.loc 1 92 5
 138              	.L4:
 139              		.loc 1 92 48 discriminator 1
 140              		.loc 1 92 10 discriminator 1
 141              		.loc 1 92 12 is_stmt 0 discriminator 1
 142 004c 93050002 		li	a1,32
 143 0050 0145     		li	a0,0
 144 0052 97000000 		call	dma_flag_get
 144      E7800000 
 145              	.LVL11:
 146              		.loc 1 92 10 discriminator 1
 147 005a 6DD9     		beq	a0,zero,.L4
  93:C:/Users/stapi/OneDrive/Desktop/GD32VW553/GD32VW55X_Wifi_BLE_SDK/GD32VW55x_RELEASE_V1.0.2/MSDK/plf/src/dma\dma.c **** }
 148              		.loc 1 93 1
 149 005c 17030000 		tail	__riscv_restore_3
 149      67000300 
 150              		.cfi_restore 18
 151              		.cfi_restore 9
 152              		.cfi_restore 8
 153              		.cfi_restore 1
 154              		.cfi_def_cfa_offset 0
 155              		.cfi_endproc
 156              	.LFE366:
 158              		.text
 159              	.Letext0:
 160              		.file 2 "c:\\users\\stapi\\onedrive\\desktop\\gd32vw553\\embeddedbuilder_v1.4.7.26843\\tools\\nucl
 161              		.file 3 "c:\\users\\stapi\\onedrive\\desktop\\gd32vw553\\embeddedbuilder_v1.4.7.26843\\tools\\nucl
 162              		.file 4 "..\\..\\..\\..\\plf\\GD32VW55x_standard_peripheral\\Include/gd32vw55x_dma.h"
 163              		.file 5 "..\\..\\..\\..\\plf\\GD32VW55x_standard_peripheral\\Include/gd32vw55x_rcu.h"
DEFINED SYMBOLS
                            *ABS*:0000000000000000 dma.c
C:\Users\stapi\AppData\Local\Temp\ccamFlJb.s:13     .text.dma_config:0000000000000000 dma_config
C:\Users\stapi\AppData\Local\Temp\ccamFlJb.s:17     .text.dma_config:0000000000000000 .L0 
C:\Users\stapi\AppData\Local\Temp\ccamFlJb.s:18     .text.dma_config:0000000000000000 .L0 
C:\Users\stapi\AppData\Local\Temp\ccamFlJb.s:19     .text.dma_config:0000000000000008 .L0 
C:\Users\stapi\AppData\Local\Temp\ccamFlJb.s:20     .text.dma_config:0000000000000008 .L0 
C:\Users\stapi\AppData\Local\Temp\ccamFlJb.s:21     .text.dma_config:0000000000000008 .L0 
C:\Users\stapi\AppData\Local\Temp\ccamFlJb.s:23     .text.dma_config:0000000000000008 .L0 
C:\Users\stapi\AppData\Local\Temp\ccamFlJb.s:24     .text.dma_config:0000000000000008 .L0 
C:\Users\stapi\AppData\Local\Temp\ccamFlJb.s:26     .text.dma_config:000000000000000a .L0 
C:\Users\stapi\AppData\Local\Temp\ccamFlJb.s:27     .text.dma_config:000000000000000c .L0 
C:\Users\stapi\AppData\Local\Temp\ccamFlJb.s:29     .text.dma_config:000000000000000c .L0 
C:\Users\stapi\AppData\Local\Temp\ccamFlJb.s:33     .text.dma_config:0000000000000018 .L0 
C:\Users\stapi\AppData\Local\Temp\ccamFlJb.s:37     .text.dma_config:0000000000000022 .L0 
C:\Users\stapi\AppData\Local\Temp\ccamFlJb.s:38     .text.dma_config:0000000000000022 .L0 
C:\Users\stapi\AppData\Local\Temp\ccamFlJb.s:41     .text.dma_config:0000000000000026 .L0 
C:\Users\stapi\AppData\Local\Temp\ccamFlJb.s:44     .text.dma_config:000000000000002a .L0 
C:\Users\stapi\AppData\Local\Temp\ccamFlJb.s:47     .text.dma_config:0000000000000030 .L0 
C:\Users\stapi\AppData\Local\Temp\ccamFlJb.s:49     .text.dma_config:0000000000000032 .L0 
C:\Users\stapi\AppData\Local\Temp\ccamFlJb.s:51     .text.dma_config:0000000000000036 .L0 
C:\Users\stapi\AppData\Local\Temp\ccamFlJb.s:53     .text.dma_config:0000000000000038 .L0 
C:\Users\stapi\AppData\Local\Temp\ccamFlJb.s:55     .text.dma_config:000000000000003a .L0 
C:\Users\stapi\AppData\Local\Temp\ccamFlJb.s:56     .text.dma_config:000000000000003a .L0 
C:\Users\stapi\AppData\Local\Temp\ccamFlJb.s:58     .text.dma_config:000000000000003c .L0 
C:\Users\stapi\AppData\Local\Temp\ccamFlJb.s:60     .text.dma_config:000000000000003e .L0 
C:\Users\stapi\AppData\Local\Temp\ccamFlJb.s:61     .text.dma_config:000000000000003e .L0 
C:\Users\stapi\AppData\Local\Temp\ccamFlJb.s:62     .text.dma_config:000000000000003e .L0 
C:\Users\stapi\AppData\Local\Temp\ccamFlJb.s:64     .text.dma_config:0000000000000040 .L0 
C:\Users\stapi\AppData\Local\Temp\ccamFlJb.s:65     .text.dma_config:0000000000000040 .L0 
C:\Users\stapi\AppData\Local\Temp\ccamFlJb.s:67     .text.dma_config:0000000000000042 .L0 
C:\Users\stapi\AppData\Local\Temp\ccamFlJb.s:68     .text.dma_config:0000000000000042 .L0 
C:\Users\stapi\AppData\Local\Temp\ccamFlJb.s:70     .text.dma_config:0000000000000044 .L0 
C:\Users\stapi\AppData\Local\Temp\ccamFlJb.s:71     .text.dma_config:0000000000000044 .L0 
C:\Users\stapi\AppData\Local\Temp\ccamFlJb.s:72     .text.dma_config:0000000000000044 .L0 
C:\Users\stapi\AppData\Local\Temp\ccamFlJb.s:74     .text.dma_config:0000000000000046 .L0 
C:\Users\stapi\AppData\Local\Temp\ccamFlJb.s:75     .text.dma_config:0000000000000046 .L0 
C:\Users\stapi\AppData\Local\Temp\ccamFlJb.s:76     .text.dma_config:0000000000000046 .L0 
C:\Users\stapi\AppData\Local\Temp\ccamFlJb.s:79     .text.dma_config:000000000000004e .L0 
C:\Users\stapi\AppData\Local\Temp\ccamFlJb.s:80     .text.dma_config:0000000000000050 .L0 
C:\Users\stapi\AppData\Local\Temp\ccamFlJb.s:82     .text.dma_config:0000000000000058 .L0 
C:\Users\stapi\AppData\Local\Temp\ccamFlJb.s:83     .text.dma_config:0000000000000058 .L0 
C:\Users\stapi\AppData\Local\Temp\ccamFlJb.s:84     .text.dma_config:0000000000000058 .L0 
C:\Users\stapi\AppData\Local\Temp\ccamFlJb.s:85     .text.dma_config:0000000000000058 .L0 
C:\Users\stapi\AppData\Local\Temp\ccamFlJb.s:92     .text.dma_transfer:0000000000000000 dma_transfer
C:\Users\stapi\AppData\Local\Temp\ccamFlJb.s:95     .text.dma_transfer:0000000000000000 .L0 
C:\Users\stapi\AppData\Local\Temp\ccamFlJb.s:97     .text.dma_transfer:0000000000000000 .L0 
C:\Users\stapi\AppData\Local\Temp\ccamFlJb.s:98     .text.dma_transfer:0000000000000008 .L0 
C:\Users\stapi\AppData\Local\Temp\ccamFlJb.s:99     .text.dma_transfer:0000000000000008 .L0 
C:\Users\stapi\AppData\Local\Temp\ccamFlJb.s:100    .text.dma_transfer:0000000000000008 .L0 
C:\Users\stapi\AppData\Local\Temp\ccamFlJb.s:101    .text.dma_transfer:0000000000000008 .L0 
C:\Users\stapi\AppData\Local\Temp\ccamFlJb.s:102    .text.dma_transfer:0000000000000008 .L0 
C:\Users\stapi\AppData\Local\Temp\ccamFlJb.s:104    .text.dma_transfer:0000000000000008 .L0 
C:\Users\stapi\AppData\Local\Temp\ccamFlJb.s:105    .text.dma_transfer:0000000000000008 .L0 
C:\Users\stapi\AppData\Local\Temp\ccamFlJb.s:108    .text.dma_transfer:000000000000000c .L0 
C:\Users\stapi\AppData\Local\Temp\ccamFlJb.s:113    .text.dma_transfer:0000000000000012 .L0 
C:\Users\stapi\AppData\Local\Temp\ccamFlJb.s:115    .text.dma_transfer:0000000000000014 .L0 
C:\Users\stapi\AppData\Local\Temp\ccamFlJb.s:118    .text.dma_transfer:000000000000001c .L0 
C:\Users\stapi\AppData\Local\Temp\ccamFlJb.s:123    .text.dma_transfer:0000000000000028 .L0 
C:\Users\stapi\AppData\Local\Temp\ccamFlJb.s:129    .text.dma_transfer:0000000000000036 .L0 
C:\Users\stapi\AppData\Local\Temp\ccamFlJb.s:134    .text.dma_transfer:0000000000000042 .L0 
C:\Users\stapi\AppData\Local\Temp\ccamFlJb.s:139    .text.dma_transfer:000000000000004c .L0 
C:\Users\stapi\AppData\Local\Temp\ccamFlJb.s:140    .text.dma_transfer:000000000000004c .L0 
C:\Users\stapi\AppData\Local\Temp\ccamFlJb.s:141    .text.dma_transfer:000000000000004c .L0 
C:\Users\stapi\AppData\Local\Temp\ccamFlJb.s:142    .text.dma_transfer:000000000000004c .L0 
C:\Users\stapi\AppData\Local\Temp\ccamFlJb.s:147    .text.dma_transfer:000000000000005a .L0 
C:\Users\stapi\AppData\Local\Temp\ccamFlJb.s:149    .text.dma_transfer:000000000000005c .L0 
C:\Users\stapi\AppData\Local\Temp\ccamFlJb.s:150    .text.dma_transfer:0000000000000064 .L0 
C:\Users\stapi\AppData\Local\Temp\ccamFlJb.s:151    .text.dma_transfer:0000000000000064 .L0 
C:\Users\stapi\AppData\Local\Temp\ccamFlJb.s:152    .text.dma_transfer:0000000000000064 .L0 
C:\Users\stapi\AppData\Local\Temp\ccamFlJb.s:153    .text.dma_transfer:0000000000000064 .L0 
C:\Users\stapi\AppData\Local\Temp\ccamFlJb.s:154    .text.dma_transfer:0000000000000064 .L0 
C:\Users\stapi\AppData\Local\Temp\ccamFlJb.s:155    .text.dma_transfer:0000000000000064 .L0 
C:\Users\stapi\AppData\Local\Temp\ccamFlJb.s:88     .text.dma_config:0000000000000058 .L0 
C:\Users\stapi\AppData\Local\Temp\ccamFlJb.s:158    .text.dma_transfer:0000000000000064 .L0 
                     .debug_frame:0000000000000000 .L0 
C:\Users\stapi\AppData\Local\Temp\ccamFlJb.s:138    .text.dma_transfer:000000000000004c .L4
C:\Users\stapi\AppData\Local\Temp\ccamFlJb.s:726    .debug_abbrev:0000000000000000 .Ldebug_abbrev0
C:\Users\stapi\AppData\Local\Temp\ccamFlJb.s:1083   .debug_str:0000000000000170 .LASF81
C:\Users\stapi\AppData\Local\Temp\ccamFlJb.s:1045   .debug_str:0000000000000022 .LASF82
C:\Users\stapi\AppData\Local\Temp\ccamFlJb.s:1165   .debug_str:0000000000000464 .LASF83
C:\Users\stapi\AppData\Local\Temp\ccamFlJb.s:1031   .debug_ranges:0000000000000000 .Ldebug_ranges0
C:\Users\stapi\AppData\Local\Temp\ccamFlJb.s:1039   .debug_line:0000000000000000 .Ldebug_line0
C:\Users\stapi\AppData\Local\Temp\ccamFlJb.s:1137   .debug_str:00000000000003bb .LASF0
C:\Users\stapi\AppData\Local\Temp\ccamFlJb.s:1087   .debug_str:0000000000000276 .LASF1
C:\Users\stapi\AppData\Local\Temp\ccamFlJb.s:1121   .debug_str:0000000000000347 .LASF2
C:\Users\stapi\AppData\Local\Temp\ccamFlJb.s:1125   .debug_str:000000000000036d .LASF3
C:\Users\stapi\AppData\Local\Temp\ccamFlJb.s:1159   .debug_str:0000000000000440 .LASF4
C:\Users\stapi\AppData\Local\Temp\ccamFlJb.s:1097   .debug_str:00000000000002c9 .LASF5
C:\Users\stapi\AppData\Local\Temp\ccamFlJb.s:1073   .debug_str:0000000000000127 .LASF10
C:\Users\stapi\AppData\Local\Temp\ccamFlJb.s:1167   .debug_str:00000000000004e2 .LASF6
C:\Users\stapi\AppData\Local\Temp\ccamFlJb.s:1093   .debug_str:00000000000002a4 .LASF7
C:\Users\stapi\AppData\Local\Temp\ccamFlJb.s:1095   .debug_str:00000000000002b2 .LASF8
C:\Users\stapi\AppData\Local\Temp\ccamFlJb.s:1151   .debug_str:000000000000041d .LASF9
C:\Users\stapi\AppData\Local\Temp\ccamFlJb.s:1135   .debug_str:00000000000003b2 .LASF11
C:\Users\stapi\AppData\Local\Temp\ccamFlJb.s:1195   .debug_str:0000000000000588 .LASF12
C:\Users\stapi\AppData\Local\Temp\ccamFlJb.s:1197   .debug_str:0000000000000590 .LASF13
C:\Users\stapi\AppData\Local\Temp\ccamFlJb.s:1199   .debug_str:0000000000000598 .LASF14
C:\Users\stapi\AppData\Local\Temp\ccamFlJb.s:1201   .debug_str:00000000000005a0 .LASF15
C:\Users\stapi\AppData\Local\Temp\ccamFlJb.s:1203   .debug_str:00000000000005a8 .LASF16
C:\Users\stapi\AppData\Local\Temp\ccamFlJb.s:1205   .debug_str:00000000000005b0 .LASF17
C:\Users\stapi\AppData\Local\Temp\ccamFlJb.s:1207   .debug_str:00000000000005b8 .LASF18
C:\Users\stapi\AppData\Local\Temp\ccamFlJb.s:1209   .debug_str:00000000000005c0 .LASF19
C:\Users\stapi\AppData\Local\Temp\ccamFlJb.s:1071   .debug_str:000000000000011b .LASF20
C:\Users\stapi\AppData\Local\Temp\ccamFlJb.s:1113   .debug_str:000000000000031c .LASF21
C:\Users\stapi\AppData\Local\Temp\ccamFlJb.s:1111   .debug_str:0000000000000311 .LASF22
C:\Users\stapi\AppData\Local\Temp\ccamFlJb.s:1049   .debug_str:00000000000000a2 .LASF23
C:\Users\stapi\AppData\Local\Temp\ccamFlJb.s:1115   .debug_str:0000000000000329 .LASF24
C:\Users\stapi\AppData\Local\Temp\ccamFlJb.s:1081   .debug_str:0000000000000165 .LASF25
C:\Users\stapi\AppData\Local\Temp\ccamFlJb.s:1127   .debug_str:0000000000000377 .LASF26
C:\Users\stapi\AppData\Local\Temp\ccamFlJb.s:1133   .debug_str:000000000000039f .LASF27
C:\Users\stapi\AppData\Local\Temp\ccamFlJb.s:1065   .debug_str:00000000000000f9 .LASF28
C:\Users\stapi\AppData\Local\Temp\ccamFlJb.s:1181   .debug_str:000000000000053f .LASF29
C:\Users\stapi\AppData\Local\Temp\ccamFlJb.s:1069   .debug_str:0000000000000111 .LASF30
C:\Users\stapi\AppData\Local\Temp\ccamFlJb.s:1191   .debug_str:000000000000056e .LASF31
C:\Users\stapi\AppData\Local\Temp\ccamFlJb.s:1051   .debug_str:00000000000000af .LASF32
C:\Users\stapi\AppData\Local\Temp\ccamFlJb.s:1079   .debug_str:0000000000000145 .LASF33
C:\Users\stapi\AppData\Local\Temp\ccamFlJb.s:1053   .debug_str:00000000000000b8 .LASF34
C:\Users\stapi\AppData\Local\Temp\ccamFlJb.s:1055   .debug_str:00000000000000c2 .LASF35
C:\Users\stapi\AppData\Local\Temp\ccamFlJb.s:1057   .debug_str:00000000000000cc .LASF36
C:\Users\stapi\AppData\Local\Temp\ccamFlJb.s:1099   .debug_str:00000000000002d2 .LASF37
C:\Users\stapi\AppData\Local\Temp\ccamFlJb.s:1129   .debug_str:000000000000038a .LASF38
C:\Users\stapi\AppData\Local\Temp\ccamFlJb.s:1131   .debug_str:0000000000000393 .LASF39
C:\Users\stapi\AppData\Local\Temp\ccamFlJb.s:1149   .debug_str:0000000000000413 .LASF40
C:\Users\stapi\AppData\Local\Temp\ccamFlJb.s:1153   .debug_str:0000000000000422 .LASF41
C:\Users\stapi\AppData\Local\Temp\ccamFlJb.s:1155   .debug_str:000000000000042c .LASF42
C:\Users\stapi\AppData\Local\Temp\ccamFlJb.s:1157   .debug_str:0000000000000436 .LASF43
C:\Users\stapi\AppData\Local\Temp\ccamFlJb.s:1189   .debug_str:0000000000000566 .LASF44
C:\Users\stapi\AppData\Local\Temp\ccamFlJb.s:1183   .debug_str:000000000000054d .LASF45
C:\Users\stapi\AppData\Local\Temp\ccamFlJb.s:1161   .debug_str:0000000000000453 .LASF46
C:\Users\stapi\AppData\Local\Temp\ccamFlJb.s:1185   .debug_str:0000000000000555 .LASF47
C:\Users\stapi\AppData\Local\Temp\ccamFlJb.s:1091   .debug_str:000000000000029c .LASF48
C:\Users\stapi\AppData\Local\Temp\ccamFlJb.s:1169   .debug_str:00000000000004f4 .LASF49
C:\Users\stapi\AppData\Local\Temp\ccamFlJb.s:1119   .debug_str:000000000000033e .LASF50
C:\Users\stapi\AppData\Local\Temp\ccamFlJb.s:1105   .debug_str:00000000000002f0 .LASF51
C:\Users\stapi\AppData\Local\Temp\ccamFlJb.s:1107   .debug_str:00000000000002fb .LASF52
C:\Users\stapi\AppData\Local\Temp\ccamFlJb.s:1109   .debug_str:0000000000000306 .LASF53
C:\Users\stapi\AppData\Local\Temp\ccamFlJb.s:1063   .debug_str:00000000000000ef .LASF54
C:\Users\stapi\AppData\Local\Temp\ccamFlJb.s:1117   .debug_str:0000000000000336 .LASF55
C:\Users\stapi\AppData\Local\Temp\ccamFlJb.s:1175   .debug_str:0000000000000510 .LASF56
C:\Users\stapi\AppData\Local\Temp\ccamFlJb.s:1171   .debug_str:00000000000004fd .LASF57
C:\Users\stapi\AppData\Local\Temp\ccamFlJb.s:1067   .debug_str:0000000000000108 .LASF58
C:\Users\stapi\AppData\Local\Temp\ccamFlJb.s:1187   .debug_str:000000000000055d .LASF59
C:\Users\stapi\AppData\Local\Temp\ccamFlJb.s:1145   .debug_str:00000000000003ff .LASF60
C:\Users\stapi\AppData\Local\Temp\ccamFlJb.s:1075   .debug_str:0000000000000132 .LASF61
C:\Users\stapi\AppData\Local\Temp\ccamFlJb.s:1103   .debug_str:00000000000002e5 .LASF62
C:\Users\stapi\AppData\Local\Temp\ccamFlJb.s:1177   .debug_str:000000000000051a .LASF63
C:\Users\stapi\AppData\Local\Temp\ccamFlJb.s:1173   .debug_str:0000000000000508 .LASF64
C:\Users\stapi\AppData\Local\Temp\ccamFlJb.s:1043   .debug_str:000000000000001a .LASF65
C:\Users\stapi\AppData\Local\Temp\ccamFlJb.s:1077   .debug_str:000000000000013a .LASF66
C:\Users\stapi\AppData\Local\Temp\ccamFlJb.s:1061   .debug_str:00000000000000e3 .LASF67
C:\Users\stapi\AppData\Local\Temp\ccamFlJb.s:1147   .debug_str:0000000000000407 .LASF68
C:\Users\stapi\AppData\Local\Temp\ccamFlJb.s:1163   .debug_str:000000000000045d .LASF69
C:\Users\stapi\AppData\Local\Temp\ccamFlJb.s:1059   .debug_str:00000000000000d6 .LASF70
C:\Users\stapi\AppData\Local\Temp\ccamFlJb.s:93     .text.dma_transfer:0000000000000000 .LFB366
C:\Users\stapi\AppData\Local\Temp\ccamFlJb.s:156    .text.dma_transfer:0000000000000064 .LFE366
C:\Users\stapi\AppData\Local\Temp\ccamFlJb.s:983    .debug_loc:0000000000000000 .LLST0
C:\Users\stapi\AppData\Local\Temp\ccamFlJb.s:994    .debug_loc:000000000000001e .LLST1
C:\Users\stapi\AppData\Local\Temp\ccamFlJb.s:1005   .debug_loc:000000000000003c .LLST2
C:\Users\stapi\AppData\Local\Temp\ccamFlJb.s:116    .text.dma_transfer:000000000000001c .LVL6
C:\Users\stapi\AppData\Local\Temp\ccamFlJb.s:121    .text.dma_transfer:0000000000000028 .LVL7
C:\Users\stapi\AppData\Local\Temp\ccamFlJb.s:127    .text.dma_transfer:0000000000000036 .LVL8
C:\Users\stapi\AppData\Local\Temp\ccamFlJb.s:132    .text.dma_transfer:0000000000000042 .LVL9
C:\Users\stapi\AppData\Local\Temp\ccamFlJb.s:136    .text.dma_transfer:000000000000004c .LVL10
C:\Users\stapi\AppData\Local\Temp\ccamFlJb.s:145    .text.dma_transfer:000000000000005a .LVL11
C:\Users\stapi\AppData\Local\Temp\ccamFlJb.s:1141   .debug_str:00000000000003db .LASF71
C:\Users\stapi\AppData\Local\Temp\ccamFlJb.s:14     .text.dma_config:0000000000000000 .LFB365
C:\Users\stapi\AppData\Local\Temp\ccamFlJb.s:86     .text.dma_config:0000000000000058 .LFE365
C:\Users\stapi\AppData\Local\Temp\ccamFlJb.s:1139   .debug_str:00000000000003c8 .LASF84
C:\Users\stapi\AppData\Local\Temp\ccamFlJb.s:31     .text.dma_config:0000000000000018 .LVL0
C:\Users\stapi\AppData\Local\Temp\ccamFlJb.s:35     .text.dma_config:0000000000000022 .LVL1
C:\Users\stapi\AppData\Local\Temp\ccamFlJb.s:77     .text.dma_config:000000000000004e .LVL2
C:\Users\stapi\AppData\Local\Temp\ccamFlJb.s:1047   .debug_str:0000000000000093 .LASF72
C:\Users\stapi\AppData\Local\Temp\ccamFlJb.s:1041   .debug_str:0000000000000000 .LASF73
C:\Users\stapi\AppData\Local\Temp\ccamFlJb.s:1089   .debug_str:0000000000000282 .LASF74
C:\Users\stapi\AppData\Local\Temp\ccamFlJb.s:1179   .debug_str:0000000000000524 .LASF75
C:\Users\stapi\AppData\Local\Temp\ccamFlJb.s:1193   .debug_str:0000000000000575 .LASF76
C:\Users\stapi\AppData\Local\Temp\ccamFlJb.s:1085   .debug_str:0000000000000269 .LASF77
C:\Users\stapi\AppData\Local\Temp\ccamFlJb.s:1123   .debug_str:0000000000000355 .LASF78
C:\Users\stapi\AppData\Local\Temp\ccamFlJb.s:1101   .debug_str:00000000000002da .LASF79
C:\Users\stapi\AppData\Local\Temp\ccamFlJb.s:1143   .debug_str:00000000000003e6 .LASF80
C:\Users\stapi\AppData\Local\Temp\ccamFlJb.s:96     .text.dma_transfer:0000000000000000 .LVL3
C:\Users\stapi\AppData\Local\Temp\ccamFlJb.s:109    .text.dma_transfer:000000000000000e .LVL4
C:\Users\stapi\AppData\Local\Temp\ccamFlJb.s:111    .text.dma_transfer:0000000000000012 .LVL5
C:\Users\stapi\AppData\Local\Temp\ccamFlJb.s:165    .debug_info:0000000000000000 .Ldebug_info0

UNDEFINED SYMBOLS
__riscv_save_1
rcu_periph_clock_enable
dma_deinit
dma_multi_data_mode_init
__riscv_restore_1
__riscv_save_3
dma_flag_clear
dma_periph_address_config
dma_memory_address_config
dma_transfer_number_config
dma_channel_enable
dma_flag_get
__riscv_restore_3
