   1              		.file	"gd32vw55x_platform.c"
   2              		.option nopic
   3              		.attribute arch, "rv32i2p0_m2p0_a2p0_f2p0_c2p0_b_p0p94"
   4              		.attribute unaligned_access, 0
   5              		.attribute stack_align, 16
   6              		.text
   7              	.Ltext0:
   8              		.cfi_sections	.debug_frame
   9              		.section	.text.exti_line_clear,"ax",@progbits
  10              		.align	1
  12              	exti_line_clear:
  13              	.LFB380:
  14              		.file 1 "C:/Users/stapi/OneDrive/Desktop/GD32VW553/V1_MQTT_OK/GD32VW55X_Wifi_BLE_SDK/GD32VW55x_REL
   1:C:/Users/stapi/OneDrive/Desktop/GD32VW553/V1_MQTT_OK/GD32VW55X_Wifi_BLE_SDK/GD32VW55x_RELEASE_V1.0.2/MSDK/plf/src\gd32vw55x_platform.c **** /*!
   2:C:/Users/stapi/OneDrive/Desktop/GD32VW553/V1_MQTT_OK/GD32VW55X_Wifi_BLE_SDK/GD32VW55x_RELEASE_V1.0.2/MSDK/plf/src\gd32vw55x_platform.c ****     \file    gd32vw55x_platform.c
   3:C:/Users/stapi/OneDrive/Desktop/GD32VW553/V1_MQTT_OK/GD32VW55X_Wifi_BLE_SDK/GD32VW55x_RELEASE_V1.0.2/MSDK/plf/src\gd32vw55x_platform.c ****     \brief   WIFI reference platform initialization.
   4:C:/Users/stapi/OneDrive/Desktop/GD32VW553/V1_MQTT_OK/GD32VW55X_Wifi_BLE_SDK/GD32VW55x_RELEASE_V1.0.2/MSDK/plf/src\gd32vw55x_platform.c **** 
   5:C:/Users/stapi/OneDrive/Desktop/GD32VW553/V1_MQTT_OK/GD32VW55X_Wifi_BLE_SDK/GD32VW55x_RELEASE_V1.0.2/MSDK/plf/src\gd32vw55x_platform.c ****     \version 2023-07-20, V1.0.0, firmware for GD32VW55x
   6:C:/Users/stapi/OneDrive/Desktop/GD32VW553/V1_MQTT_OK/GD32VW55X_Wifi_BLE_SDK/GD32VW55x_RELEASE_V1.0.2/MSDK/plf/src\gd32vw55x_platform.c **** */
   7:C:/Users/stapi/OneDrive/Desktop/GD32VW553/V1_MQTT_OK/GD32VW55X_Wifi_BLE_SDK/GD32VW55x_RELEASE_V1.0.2/MSDK/plf/src\gd32vw55x_platform.c **** 
   8:C:/Users/stapi/OneDrive/Desktop/GD32VW553/V1_MQTT_OK/GD32VW55X_Wifi_BLE_SDK/GD32VW55x_RELEASE_V1.0.2/MSDK/plf/src\gd32vw55x_platform.c **** /*
   9:C:/Users/stapi/OneDrive/Desktop/GD32VW553/V1_MQTT_OK/GD32VW55X_Wifi_BLE_SDK/GD32VW55x_RELEASE_V1.0.2/MSDK/plf/src\gd32vw55x_platform.c ****     Copyright (c) 2023, GigaDevice Semiconductor Inc.
  10:C:/Users/stapi/OneDrive/Desktop/GD32VW553/V1_MQTT_OK/GD32VW55X_Wifi_BLE_SDK/GD32VW55x_RELEASE_V1.0.2/MSDK/plf/src\gd32vw55x_platform.c **** 
  11:C:/Users/stapi/OneDrive/Desktop/GD32VW553/V1_MQTT_OK/GD32VW55X_Wifi_BLE_SDK/GD32VW55x_RELEASE_V1.0.2/MSDK/plf/src\gd32vw55x_platform.c ****     Redistribution and use in source and binary forms, with or without modification,
  12:C:/Users/stapi/OneDrive/Desktop/GD32VW553/V1_MQTT_OK/GD32VW55X_Wifi_BLE_SDK/GD32VW55x_RELEASE_V1.0.2/MSDK/plf/src\gd32vw55x_platform.c **** are permitted provided that the following conditions are met:
  13:C:/Users/stapi/OneDrive/Desktop/GD32VW553/V1_MQTT_OK/GD32VW55X_Wifi_BLE_SDK/GD32VW55x_RELEASE_V1.0.2/MSDK/plf/src\gd32vw55x_platform.c **** 
  14:C:/Users/stapi/OneDrive/Desktop/GD32VW553/V1_MQTT_OK/GD32VW55X_Wifi_BLE_SDK/GD32VW55x_RELEASE_V1.0.2/MSDK/plf/src\gd32vw55x_platform.c ****     1. Redistributions of source code must retain the above copyright notice, this
  15:C:/Users/stapi/OneDrive/Desktop/GD32VW553/V1_MQTT_OK/GD32VW55X_Wifi_BLE_SDK/GD32VW55x_RELEASE_V1.0.2/MSDK/plf/src\gd32vw55x_platform.c ****        list of conditions and the following disclaimer.
  16:C:/Users/stapi/OneDrive/Desktop/GD32VW553/V1_MQTT_OK/GD32VW55X_Wifi_BLE_SDK/GD32VW55x_RELEASE_V1.0.2/MSDK/plf/src\gd32vw55x_platform.c ****     2. Redistributions in binary form must reproduce the above copyright notice,
  17:C:/Users/stapi/OneDrive/Desktop/GD32VW553/V1_MQTT_OK/GD32VW55X_Wifi_BLE_SDK/GD32VW55x_RELEASE_V1.0.2/MSDK/plf/src\gd32vw55x_platform.c ****        this list of conditions and the following disclaimer in the documentation
  18:C:/Users/stapi/OneDrive/Desktop/GD32VW553/V1_MQTT_OK/GD32VW55X_Wifi_BLE_SDK/GD32VW55x_RELEASE_V1.0.2/MSDK/plf/src\gd32vw55x_platform.c ****        and/or other materials provided with the distribution.
  19:C:/Users/stapi/OneDrive/Desktop/GD32VW553/V1_MQTT_OK/GD32VW55X_Wifi_BLE_SDK/GD32VW55x_RELEASE_V1.0.2/MSDK/plf/src\gd32vw55x_platform.c ****     3. Neither the name of the copyright holder nor the names of its contributors
  20:C:/Users/stapi/OneDrive/Desktop/GD32VW553/V1_MQTT_OK/GD32VW55X_Wifi_BLE_SDK/GD32VW55x_RELEASE_V1.0.2/MSDK/plf/src\gd32vw55x_platform.c ****        may be used to endorse or promote products derived from this software without
  21:C:/Users/stapi/OneDrive/Desktop/GD32VW553/V1_MQTT_OK/GD32VW55X_Wifi_BLE_SDK/GD32VW55x_RELEASE_V1.0.2/MSDK/plf/src\gd32vw55x_platform.c ****        specific prior written permission.
  22:C:/Users/stapi/OneDrive/Desktop/GD32VW553/V1_MQTT_OK/GD32VW55X_Wifi_BLE_SDK/GD32VW55x_RELEASE_V1.0.2/MSDK/plf/src\gd32vw55x_platform.c **** 
  23:C:/Users/stapi/OneDrive/Desktop/GD32VW553/V1_MQTT_OK/GD32VW55X_Wifi_BLE_SDK/GD32VW55x_RELEASE_V1.0.2/MSDK/plf/src\gd32vw55x_platform.c ****     THIS SOFTWARE IS PROVIDED BY THE COPYRIGHT HOLDERS AND CONTRIBUTORS "AS IS"
  24:C:/Users/stapi/OneDrive/Desktop/GD32VW553/V1_MQTT_OK/GD32VW55X_Wifi_BLE_SDK/GD32VW55x_RELEASE_V1.0.2/MSDK/plf/src\gd32vw55x_platform.c **** AND ANY EXPRESS OR IMPLIED WARRANTIES, INCLUDING, BUT NOT LIMITED TO, THE IMPLIED
  25:C:/Users/stapi/OneDrive/Desktop/GD32VW553/V1_MQTT_OK/GD32VW55X_Wifi_BLE_SDK/GD32VW55x_RELEASE_V1.0.2/MSDK/plf/src\gd32vw55x_platform.c **** WARRANTIES OF MERCHANTABILITY AND FITNESS FOR A PARTICULAR PURPOSE ARE DISCLAIMED.
  26:C:/Users/stapi/OneDrive/Desktop/GD32VW553/V1_MQTT_OK/GD32VW55X_Wifi_BLE_SDK/GD32VW55x_RELEASE_V1.0.2/MSDK/plf/src\gd32vw55x_platform.c **** IN NO EVENT SHALL THE COPYRIGHT HOLDER OR CONTRIBUTORS BE LIABLE FOR ANY DIRECT,
  27:C:/Users/stapi/OneDrive/Desktop/GD32VW553/V1_MQTT_OK/GD32VW55X_Wifi_BLE_SDK/GD32VW55x_RELEASE_V1.0.2/MSDK/plf/src\gd32vw55x_platform.c **** INDIRECT, INCIDENTAL, SPECIAL, EXEMPLARY, OR CONSEQUENTIAL DAMAGES (INCLUDING, BUT
  28:C:/Users/stapi/OneDrive/Desktop/GD32VW553/V1_MQTT_OK/GD32VW55X_Wifi_BLE_SDK/GD32VW55x_RELEASE_V1.0.2/MSDK/plf/src\gd32vw55x_platform.c **** NOT LIMITED TO, PROCUREMENT OF SUBSTITUTE GOODS OR SERVICES; LOSS OF USE, DATA, OR
  29:C:/Users/stapi/OneDrive/Desktop/GD32VW553/V1_MQTT_OK/GD32VW55X_Wifi_BLE_SDK/GD32VW55x_RELEASE_V1.0.2/MSDK/plf/src\gd32vw55x_platform.c **** PROFITS; OR BUSINESS INTERRUPTION) HOWEVER CAUSED AND ON ANY THEORY OF LIABILITY,
  30:C:/Users/stapi/OneDrive/Desktop/GD32VW553/V1_MQTT_OK/GD32VW55X_Wifi_BLE_SDK/GD32VW55x_RELEASE_V1.0.2/MSDK/plf/src\gd32vw55x_platform.c **** WHETHER IN CONTRACT, STRICT LIABILITY, OR TORT (INCLUDING NEGLIGENCE OR OTHERWISE)
  31:C:/Users/stapi/OneDrive/Desktop/GD32VW553/V1_MQTT_OK/GD32VW55X_Wifi_BLE_SDK/GD32VW55x_RELEASE_V1.0.2/MSDK/plf/src\gd32vw55x_platform.c **** ARISING IN ANY WAY OUT OF THE USE OF THIS SOFTWARE, EVEN IF ADVISED OF THE POSSIBILITY
  32:C:/Users/stapi/OneDrive/Desktop/GD32VW553/V1_MQTT_OK/GD32VW55X_Wifi_BLE_SDK/GD32VW55x_RELEASE_V1.0.2/MSDK/plf/src\gd32vw55x_platform.c **** OF SUCH DAMAGE.
  33:C:/Users/stapi/OneDrive/Desktop/GD32VW553/V1_MQTT_OK/GD32VW55X_Wifi_BLE_SDK/GD32VW55x_RELEASE_V1.0.2/MSDK/plf/src\gd32vw55x_platform.c **** */
  34:C:/Users/stapi/OneDrive/Desktop/GD32VW553/V1_MQTT_OK/GD32VW55X_Wifi_BLE_SDK/GD32VW55x_RELEASE_V1.0.2/MSDK/plf/src\gd32vw55x_platform.c **** 
  35:C:/Users/stapi/OneDrive/Desktop/GD32VW553/V1_MQTT_OK/GD32VW55X_Wifi_BLE_SDK/GD32VW55x_RELEASE_V1.0.2/MSDK/plf/src\gd32vw55x_platform.c **** #include "app_cfg.h"
  36:C:/Users/stapi/OneDrive/Desktop/GD32VW553/V1_MQTT_OK/GD32VW55X_Wifi_BLE_SDK/GD32VW55x_RELEASE_V1.0.2/MSDK/plf/src\gd32vw55x_platform.c **** 
  37:C:/Users/stapi/OneDrive/Desktop/GD32VW553/V1_MQTT_OK/GD32VW55X_Wifi_BLE_SDK/GD32VW55x_RELEASE_V1.0.2/MSDK/plf/src\gd32vw55x_platform.c **** #ifdef CFG_WLAN_SUPPORT
  38:C:/Users/stapi/OneDrive/Desktop/GD32VW553/V1_MQTT_OK/GD32VW55X_Wifi_BLE_SDK/GD32VW55x_RELEASE_V1.0.2/MSDK/plf/src\gd32vw55x_platform.c **** #include "wlan_config.h"
  39:C:/Users/stapi/OneDrive/Desktop/GD32VW553/V1_MQTT_OK/GD32VW55X_Wifi_BLE_SDK/GD32VW55x_RELEASE_V1.0.2/MSDK/plf/src\gd32vw55x_platform.c **** #include "wifi_export.h"
  40:C:/Users/stapi/OneDrive/Desktop/GD32VW553/V1_MQTT_OK/GD32VW55X_Wifi_BLE_SDK/GD32VW55x_RELEASE_V1.0.2/MSDK/plf/src\gd32vw55x_platform.c **** #endif
  41:C:/Users/stapi/OneDrive/Desktop/GD32VW553/V1_MQTT_OK/GD32VW55X_Wifi_BLE_SDK/GD32VW55x_RELEASE_V1.0.2/MSDK/plf/src\gd32vw55x_platform.c **** 
  42:C:/Users/stapi/OneDrive/Desktop/GD32VW553/V1_MQTT_OK/GD32VW55X_Wifi_BLE_SDK/GD32VW55x_RELEASE_V1.0.2/MSDK/plf/src\gd32vw55x_platform.c **** #include "arch.h"
  43:C:/Users/stapi/OneDrive/Desktop/GD32VW553/V1_MQTT_OK/GD32VW55X_Wifi_BLE_SDK/GD32VW55x_RELEASE_V1.0.2/MSDK/plf/src\gd32vw55x_platform.c **** #include "gd32vw55x.h"
  44:C:/Users/stapi/OneDrive/Desktop/GD32VW553/V1_MQTT_OK/GD32VW55X_Wifi_BLE_SDK/GD32VW55x_RELEASE_V1.0.2/MSDK/plf/src\gd32vw55x_platform.c **** #include "systime.h"
  45:C:/Users/stapi/OneDrive/Desktop/GD32VW553/V1_MQTT_OK/GD32VW55X_Wifi_BLE_SDK/GD32VW55x_RELEASE_V1.0.2/MSDK/plf/src\gd32vw55x_platform.c **** #include "uart.h"
  46:C:/Users/stapi/OneDrive/Desktop/GD32VW553/V1_MQTT_OK/GD32VW55X_Wifi_BLE_SDK/GD32VW55x_RELEASE_V1.0.2/MSDK/plf/src\gd32vw55x_platform.c **** #include "rf_spi.h"
  47:C:/Users/stapi/OneDrive/Desktop/GD32VW553/V1_MQTT_OK/GD32VW55X_Wifi_BLE_SDK/GD32VW55x_RELEASE_V1.0.2/MSDK/plf/src\gd32vw55x_platform.c **** #include "hal_rf.h"
  48:C:/Users/stapi/OneDrive/Desktop/GD32VW553/V1_MQTT_OK/GD32VW55X_Wifi_BLE_SDK/GD32VW55x_RELEASE_V1.0.2/MSDK/plf/src\gd32vw55x_platform.c **** #include "dma.h"
  49:C:/Users/stapi/OneDrive/Desktop/GD32VW553/V1_MQTT_OK/GD32VW55X_Wifi_BLE_SDK/GD32VW55x_RELEASE_V1.0.2/MSDK/plf/src\gd32vw55x_platform.c **** #include "gd32vw55x_platform.h"
  50:C:/Users/stapi/OneDrive/Desktop/GD32VW553/V1_MQTT_OK/GD32VW55X_Wifi_BLE_SDK/GD32VW55x_RELEASE_V1.0.2/MSDK/plf/src\gd32vw55x_platform.c **** #include "wakelock.h"
  51:C:/Users/stapi/OneDrive/Desktop/GD32VW553/V1_MQTT_OK/GD32VW55X_Wifi_BLE_SDK/GD32VW55x_RELEASE_V1.0.2/MSDK/plf/src\gd32vw55x_platform.c **** #include "init_rom.h"
  52:C:/Users/stapi/OneDrive/Desktop/GD32VW553/V1_MQTT_OK/GD32VW55X_Wifi_BLE_SDK/GD32VW55x_RELEASE_V1.0.2/MSDK/plf/src\gd32vw55x_platform.c **** #include "nvds_flash.h"
  53:C:/Users/stapi/OneDrive/Desktop/GD32VW553/V1_MQTT_OK/GD32VW55X_Wifi_BLE_SDK/GD32VW55x_RELEASE_V1.0.2/MSDK/plf/src\gd32vw55x_platform.c **** #include "dbg_print.h"
  54:C:/Users/stapi/OneDrive/Desktop/GD32VW553/V1_MQTT_OK/GD32VW55X_Wifi_BLE_SDK/GD32VW55x_RELEASE_V1.0.2/MSDK/plf/src\gd32vw55x_platform.c **** #include "trng.h"
  55:C:/Users/stapi/OneDrive/Desktop/GD32VW553/V1_MQTT_OK/GD32VW55X_Wifi_BLE_SDK/GD32VW55x_RELEASE_V1.0.2/MSDK/plf/src\gd32vw55x_platform.c **** #include "trace_uart.h"
  56:C:/Users/stapi/OneDrive/Desktop/GD32VW553/V1_MQTT_OK/GD32VW55X_Wifi_BLE_SDK/GD32VW55x_RELEASE_V1.0.2/MSDK/plf/src\gd32vw55x_platform.c **** #include "log_uart.h"
  57:C:/Users/stapi/OneDrive/Desktop/GD32VW553/V1_MQTT_OK/GD32VW55X_Wifi_BLE_SDK/GD32VW55x_RELEASE_V1.0.2/MSDK/plf/src\gd32vw55x_platform.c **** #include "raw_flash_api.h"
  58:C:/Users/stapi/OneDrive/Desktop/GD32VW553/V1_MQTT_OK/GD32VW55X_Wifi_BLE_SDK/GD32VW55x_RELEASE_V1.0.2/MSDK/plf/src\gd32vw55x_platform.c **** 
  59:C:/Users/stapi/OneDrive/Desktop/GD32VW553/V1_MQTT_OK/GD32VW55X_Wifi_BLE_SDK/GD32VW55x_RELEASE_V1.0.2/MSDK/plf/src\gd32vw55x_platform.c **** #ifdef CFG_BLE_HCI_MODE
  60:C:/Users/stapi/OneDrive/Desktop/GD32VW553/V1_MQTT_OK/GD32VW55X_Wifi_BLE_SDK/GD32VW55x_RELEASE_V1.0.2/MSDK/plf/src\gd32vw55x_platform.c **** #include "ble_uart.h"
  61:C:/Users/stapi/OneDrive/Desktop/GD32VW553/V1_MQTT_OK/GD32VW55X_Wifi_BLE_SDK/GD32VW55x_RELEASE_V1.0.2/MSDK/plf/src\gd32vw55x_platform.c **** #endif
  62:C:/Users/stapi/OneDrive/Desktop/GD32VW553/V1_MQTT_OK/GD32VW55X_Wifi_BLE_SDK/GD32VW55x_RELEASE_V1.0.2/MSDK/plf/src\gd32vw55x_platform.c **** 
  63:C:/Users/stapi/OneDrive/Desktop/GD32VW553/V1_MQTT_OK/GD32VW55X_Wifi_BLE_SDK/GD32VW55x_RELEASE_V1.0.2/MSDK/plf/src\gd32vw55x_platform.c **** // Indicate WiFi is existed or not (CFG_WLAN_SUPPORT)
  64:C:/Users/stapi/OneDrive/Desktop/GD32VW553/V1_MQTT_OK/GD32VW55X_Wifi_BLE_SDK/GD32VW55x_RELEASE_V1.0.2/MSDK/plf/src\gd32vw55x_platform.c **** uint8_t wifi_exist_flag = 0;
  65:C:/Users/stapi/OneDrive/Desktop/GD32VW553/V1_MQTT_OK/GD32VW55X_Wifi_BLE_SDK/GD32VW55x_RELEASE_V1.0.2/MSDK/plf/src\gd32vw55x_platform.c **** 
  66:C:/Users/stapi/OneDrive/Desktop/GD32VW553/V1_MQTT_OK/GD32VW55X_Wifi_BLE_SDK/GD32VW55x_RELEASE_V1.0.2/MSDK/plf/src\gd32vw55x_platform.c **** extern void system_clock_config(void);
  67:C:/Users/stapi/OneDrive/Desktop/GD32VW553/V1_MQTT_OK/GD32VW55X_Wifi_BLE_SDK/GD32VW55x_RELEASE_V1.0.2/MSDK/plf/src\gd32vw55x_platform.c **** 
  68:C:/Users/stapi/OneDrive/Desktop/GD32VW553/V1_MQTT_OK/GD32VW55X_Wifi_BLE_SDK/GD32VW55x_RELEASE_V1.0.2/MSDK/plf/src\gd32vw55x_platform.c **** __INLINE void hw_crypto_engine_enable(void)
  69:C:/Users/stapi/OneDrive/Desktop/GD32VW553/V1_MQTT_OK/GD32VW55X_Wifi_BLE_SDK/GD32VW55x_RELEASE_V1.0.2/MSDK/plf/src\gd32vw55x_platform.c **** {
  70:C:/Users/stapi/OneDrive/Desktop/GD32VW553/V1_MQTT_OK/GD32VW55X_Wifi_BLE_SDK/GD32VW55x_RELEASE_V1.0.2/MSDK/plf/src\gd32vw55x_platform.c ****     rcu_periph_clock_enable(RCU_PKCAU);
  71:C:/Users/stapi/OneDrive/Desktop/GD32VW553/V1_MQTT_OK/GD32VW55X_Wifi_BLE_SDK/GD32VW55x_RELEASE_V1.0.2/MSDK/plf/src\gd32vw55x_platform.c ****     rcu_periph_clock_enable(RCU_CAU);
  72:C:/Users/stapi/OneDrive/Desktop/GD32VW553/V1_MQTT_OK/GD32VW55X_Wifi_BLE_SDK/GD32VW55x_RELEASE_V1.0.2/MSDK/plf/src\gd32vw55x_platform.c ****     rcu_periph_clock_enable(RCU_HAU);
  73:C:/Users/stapi/OneDrive/Desktop/GD32VW553/V1_MQTT_OK/GD32VW55X_Wifi_BLE_SDK/GD32VW55x_RELEASE_V1.0.2/MSDK/plf/src\gd32vw55x_platform.c **** }
  74:C:/Users/stapi/OneDrive/Desktop/GD32VW553/V1_MQTT_OK/GD32VW55X_Wifi_BLE_SDK/GD32VW55x_RELEASE_V1.0.2/MSDK/plf/src\gd32vw55x_platform.c **** 
  75:C:/Users/stapi/OneDrive/Desktop/GD32VW553/V1_MQTT_OK/GD32VW55X_Wifi_BLE_SDK/GD32VW55x_RELEASE_V1.0.2/MSDK/plf/src\gd32vw55x_platform.c **** __INLINE void hw_crypto_engine_disable(void)
  76:C:/Users/stapi/OneDrive/Desktop/GD32VW553/V1_MQTT_OK/GD32VW55X_Wifi_BLE_SDK/GD32VW55x_RELEASE_V1.0.2/MSDK/plf/src\gd32vw55x_platform.c **** {
  77:C:/Users/stapi/OneDrive/Desktop/GD32VW553/V1_MQTT_OK/GD32VW55X_Wifi_BLE_SDK/GD32VW55x_RELEASE_V1.0.2/MSDK/plf/src\gd32vw55x_platform.c ****     rcu_periph_clock_disable(RCU_PKCAU);
  78:C:/Users/stapi/OneDrive/Desktop/GD32VW553/V1_MQTT_OK/GD32VW55X_Wifi_BLE_SDK/GD32VW55x_RELEASE_V1.0.2/MSDK/plf/src\gd32vw55x_platform.c ****     rcu_periph_clock_disable(RCU_CAU);
  79:C:/Users/stapi/OneDrive/Desktop/GD32VW553/V1_MQTT_OK/GD32VW55X_Wifi_BLE_SDK/GD32VW55x_RELEASE_V1.0.2/MSDK/plf/src\gd32vw55x_platform.c ****     rcu_periph_clock_disable(RCU_HAU);
  80:C:/Users/stapi/OneDrive/Desktop/GD32VW553/V1_MQTT_OK/GD32VW55X_Wifi_BLE_SDK/GD32VW55x_RELEASE_V1.0.2/MSDK/plf/src\gd32vw55x_platform.c **** }
  81:C:/Users/stapi/OneDrive/Desktop/GD32VW553/V1_MQTT_OK/GD32VW55X_Wifi_BLE_SDK/GD32VW55x_RELEASE_V1.0.2/MSDK/plf/src\gd32vw55x_platform.c **** 
  82:C:/Users/stapi/OneDrive/Desktop/GD32VW553/V1_MQTT_OK/GD32VW55X_Wifi_BLE_SDK/GD32VW55x_RELEASE_V1.0.2/MSDK/plf/src\gd32vw55x_platform.c **** /*!
  83:C:/Users/stapi/OneDrive/Desktop/GD32VW553/V1_MQTT_OK/GD32VW55X_Wifi_BLE_SDK/GD32VW55x_RELEASE_V1.0.2/MSDK/plf/src\gd32vw55x_platform.c ****     \brief      set lpds preconfig
  84:C:/Users/stapi/OneDrive/Desktop/GD32VW553/V1_MQTT_OK/GD32VW55X_Wifi_BLE_SDK/GD32VW55x_RELEASE_V1.0.2/MSDK/plf/src\gd32vw55x_platform.c ****     \param[in]  settle_time: time want to set
  85:C:/Users/stapi/OneDrive/Desktop/GD32VW553/V1_MQTT_OK/GD32VW55X_Wifi_BLE_SDK/GD32VW55x_RELEASE_V1.0.2/MSDK/plf/src\gd32vw55x_platform.c ****     \param[out] none
  86:C:/Users/stapi/OneDrive/Desktop/GD32VW553/V1_MQTT_OK/GD32VW55X_Wifi_BLE_SDK/GD32VW55x_RELEASE_V1.0.2/MSDK/plf/src\gd32vw55x_platform.c ****     \retval     none
  87:C:/Users/stapi/OneDrive/Desktop/GD32VW553/V1_MQTT_OK/GD32VW55X_Wifi_BLE_SDK/GD32VW55x_RELEASE_V1.0.2/MSDK/plf/src\gd32vw55x_platform.c **** */
  88:C:/Users/stapi/OneDrive/Desktop/GD32VW553/V1_MQTT_OK/GD32VW55X_Wifi_BLE_SDK/GD32VW55x_RELEASE_V1.0.2/MSDK/plf/src\gd32vw55x_platform.c **** void wifi_lpds_preconfig(uint8_t settle_time)
  89:C:/Users/stapi/OneDrive/Desktop/GD32VW553/V1_MQTT_OK/GD32VW55X_Wifi_BLE_SDK/GD32VW55x_RELEASE_V1.0.2/MSDK/plf/src\gd32vw55x_platform.c **** {
  90:C:/Users/stapi/OneDrive/Desktop/GD32VW553/V1_MQTT_OK/GD32VW55X_Wifi_BLE_SDK/GD32VW55x_RELEASE_V1.0.2/MSDK/plf/src\gd32vw55x_platform.c ****     /* set HXTAL settle time */
  91:C:/Users/stapi/OneDrive/Desktop/GD32VW553/V1_MQTT_OK/GD32VW55X_Wifi_BLE_SDK/GD32VW55x_RELEASE_V1.0.2/MSDK/plf/src\gd32vw55x_platform.c ****     PMU_RFPAR  &= (~PMU_RFPAR_TIM1_PAR);
  92:C:/Users/stapi/OneDrive/Desktop/GD32VW553/V1_MQTT_OK/GD32VW55X_Wifi_BLE_SDK/GD32VW55x_RELEASE_V1.0.2/MSDK/plf/src\gd32vw55x_platform.c ****     PMU_RFPAR  |= (settle_time & PMU_RFPAR_TIM1_PAR);
  93:C:/Users/stapi/OneDrive/Desktop/GD32VW553/V1_MQTT_OK/GD32VW55X_Wifi_BLE_SDK/GD32VW55x_RELEASE_V1.0.2/MSDK/plf/src\gd32vw55x_platform.c **** }
  94:C:/Users/stapi/OneDrive/Desktop/GD32VW553/V1_MQTT_OK/GD32VW55X_Wifi_BLE_SDK/GD32VW55x_RELEASE_V1.0.2/MSDK/plf/src\gd32vw55x_platform.c **** 
  95:C:/Users/stapi/OneDrive/Desktop/GD32VW553/V1_MQTT_OK/GD32VW55X_Wifi_BLE_SDK/GD32VW55x_RELEASE_V1.0.2/MSDK/plf/src\gd32vw55x_platform.c **** void wifi_lpds_enter(void)
  96:C:/Users/stapi/OneDrive/Desktop/GD32VW553/V1_MQTT_OK/GD32VW55X_Wifi_BLE_SDK/GD32VW55x_RELEASE_V1.0.2/MSDK/plf/src\gd32vw55x_platform.c **** {
  97:C:/Users/stapi/OneDrive/Desktop/GD32VW553/V1_MQTT_OK/GD32VW55X_Wifi_BLE_SDK/GD32VW55x_RELEASE_V1.0.2/MSDK/plf/src\gd32vw55x_platform.c ****     PMU_CTL1 |= PMU_CTL1_WIFI_LPDS_ON;
  98:C:/Users/stapi/OneDrive/Desktop/GD32VW553/V1_MQTT_OK/GD32VW55X_Wifi_BLE_SDK/GD32VW55x_RELEASE_V1.0.2/MSDK/plf/src\gd32vw55x_platform.c **** }
  99:C:/Users/stapi/OneDrive/Desktop/GD32VW553/V1_MQTT_OK/GD32VW55X_Wifi_BLE_SDK/GD32VW55x_RELEASE_V1.0.2/MSDK/plf/src\gd32vw55x_platform.c **** 
 100:C:/Users/stapi/OneDrive/Desktop/GD32VW553/V1_MQTT_OK/GD32VW55X_Wifi_BLE_SDK/GD32VW55x_RELEASE_V1.0.2/MSDK/plf/src\gd32vw55x_platform.c **** void wifi_lpds_exit(void)
 101:C:/Users/stapi/OneDrive/Desktop/GD32VW553/V1_MQTT_OK/GD32VW55X_Wifi_BLE_SDK/GD32VW55x_RELEASE_V1.0.2/MSDK/plf/src\gd32vw55x_platform.c **** {
 102:C:/Users/stapi/OneDrive/Desktop/GD32VW553/V1_MQTT_OK/GD32VW55X_Wifi_BLE_SDK/GD32VW55x_RELEASE_V1.0.2/MSDK/plf/src\gd32vw55x_platform.c ****     PMU_CTL1 &= (~PMU_CTL1_WIFI_LPDS_ON);
 103:C:/Users/stapi/OneDrive/Desktop/GD32VW553/V1_MQTT_OK/GD32VW55X_Wifi_BLE_SDK/GD32VW55x_RELEASE_V1.0.2/MSDK/plf/src\gd32vw55x_platform.c ****     while (((PMU_RFCTL & PMU_RFCTL_RF_STATE) >> 16) != 0x08);
 104:C:/Users/stapi/OneDrive/Desktop/GD32VW553/V1_MQTT_OK/GD32VW55X_Wifi_BLE_SDK/GD32VW55x_RELEASE_V1.0.2/MSDK/plf/src\gd32vw55x_platform.c ****     // wait wifi pmu active
 105:C:/Users/stapi/OneDrive/Desktop/GD32VW553/V1_MQTT_OK/GD32VW55X_Wifi_BLE_SDK/GD32VW55x_RELEASE_V1.0.2/MSDK/plf/src\gd32vw55x_platform.c ****     while ((PMU_CS1 & PMU_CS1_WPS_ACTIVE) != PMU_CS1_WPS_ACTIVE);
 106:C:/Users/stapi/OneDrive/Desktop/GD32VW553/V1_MQTT_OK/GD32VW55X_Wifi_BLE_SDK/GD32VW55x_RELEASE_V1.0.2/MSDK/plf/src\gd32vw55x_platform.c ****     // wait wifi module pmc idle
 107:C:/Users/stapi/OneDrive/Desktop/GD32VW553/V1_MQTT_OK/GD32VW55X_Wifi_BLE_SDK/GD32VW55x_RELEASE_V1.0.2/MSDK/plf/src\gd32vw55x_platform.c ****     while (!(REG32(0x4002392C) & BIT(31)));
 108:C:/Users/stapi/OneDrive/Desktop/GD32VW553/V1_MQTT_OK/GD32VW55X_Wifi_BLE_SDK/GD32VW55x_RELEASE_V1.0.2/MSDK/plf/src\gd32vw55x_platform.c **** }
 109:C:/Users/stapi/OneDrive/Desktop/GD32VW553/V1_MQTT_OK/GD32VW55X_Wifi_BLE_SDK/GD32VW55x_RELEASE_V1.0.2/MSDK/plf/src\gd32vw55x_platform.c **** 
 110:C:/Users/stapi/OneDrive/Desktop/GD32VW553/V1_MQTT_OK/GD32VW55X_Wifi_BLE_SDK/GD32VW55x_RELEASE_V1.0.2/MSDK/plf/src\gd32vw55x_platform.c **** bool wifi_is_not_idle(void)
 111:C:/Users/stapi/OneDrive/Desktop/GD32VW553/V1_MQTT_OK/GD32VW55X_Wifi_BLE_SDK/GD32VW55x_RELEASE_V1.0.2/MSDK/plf/src\gd32vw55x_platform.c **** {
 112:C:/Users/stapi/OneDrive/Desktop/GD32VW553/V1_MQTT_OK/GD32VW55X_Wifi_BLE_SDK/GD32VW55x_RELEASE_V1.0.2/MSDK/plf/src\gd32vw55x_platform.c ****     return (REG32(0x4002392C) & BITS(28, 30)) != BITS(28, 30);
 113:C:/Users/stapi/OneDrive/Desktop/GD32VW553/V1_MQTT_OK/GD32VW55X_Wifi_BLE_SDK/GD32VW55x_RELEASE_V1.0.2/MSDK/plf/src\gd32vw55x_platform.c **** }
 114:C:/Users/stapi/OneDrive/Desktop/GD32VW553/V1_MQTT_OK/GD32VW55X_Wifi_BLE_SDK/GD32VW55x_RELEASE_V1.0.2/MSDK/plf/src\gd32vw55x_platform.c **** 
 115:C:/Users/stapi/OneDrive/Desktop/GD32VW553/V1_MQTT_OK/GD32VW55X_Wifi_BLE_SDK/GD32VW55x_RELEASE_V1.0.2/MSDK/plf/src\gd32vw55x_platform.c **** bool wifi_hw_is_sleep(void)
 116:C:/Users/stapi/OneDrive/Desktop/GD32VW553/V1_MQTT_OK/GD32VW55X_Wifi_BLE_SDK/GD32VW55x_RELEASE_V1.0.2/MSDK/plf/src\gd32vw55x_platform.c **** {
 117:C:/Users/stapi/OneDrive/Desktop/GD32VW553/V1_MQTT_OK/GD32VW55X_Wifi_BLE_SDK/GD32VW55x_RELEASE_V1.0.2/MSDK/plf/src\gd32vw55x_platform.c **** #ifdef CFG_WLAN_SUPPORT
 118:C:/Users/stapi/OneDrive/Desktop/GD32VW553/V1_MQTT_OK/GD32VW55X_Wifi_BLE_SDK/GD32VW55x_RELEASE_V1.0.2/MSDK/plf/src\gd32vw55x_platform.c ****     return (((PMU_RFCTL & PMU_RFCTL_RF_STATE) == 0x00) // RF state is idle
 119:C:/Users/stapi/OneDrive/Desktop/GD32VW553/V1_MQTT_OK/GD32VW55X_Wifi_BLE_SDK/GD32VW55x_RELEASE_V1.0.2/MSDK/plf/src\gd32vw55x_platform.c ****             && ((PMU_CS1 & PMU_CS1_WPS_SLEEP) == PMU_CS1_WPS_SLEEP) // wifi module is sleep
 120:C:/Users/stapi/OneDrive/Desktop/GD32VW553/V1_MQTT_OK/GD32VW55X_Wifi_BLE_SDK/GD32VW55x_RELEASE_V1.0.2/MSDK/plf/src\gd32vw55x_platform.c ****             );
 121:C:/Users/stapi/OneDrive/Desktop/GD32VW553/V1_MQTT_OK/GD32VW55X_Wifi_BLE_SDK/GD32VW55x_RELEASE_V1.0.2/MSDK/plf/src\gd32vw55x_platform.c **** #else
 122:C:/Users/stapi/OneDrive/Desktop/GD32VW553/V1_MQTT_OK/GD32VW55X_Wifi_BLE_SDK/GD32VW55x_RELEASE_V1.0.2/MSDK/plf/src\gd32vw55x_platform.c ****     return true;
 123:C:/Users/stapi/OneDrive/Desktop/GD32VW553/V1_MQTT_OK/GD32VW55X_Wifi_BLE_SDK/GD32VW55x_RELEASE_V1.0.2/MSDK/plf/src\gd32vw55x_platform.c **** #endif
 124:C:/Users/stapi/OneDrive/Desktop/GD32VW553/V1_MQTT_OK/GD32VW55X_Wifi_BLE_SDK/GD32VW55x_RELEASE_V1.0.2/MSDK/plf/src\gd32vw55x_platform.c **** }
 125:C:/Users/stapi/OneDrive/Desktop/GD32VW553/V1_MQTT_OK/GD32VW55X_Wifi_BLE_SDK/GD32VW55x_RELEASE_V1.0.2/MSDK/plf/src\gd32vw55x_platform.c **** 
 126:C:/Users/stapi/OneDrive/Desktop/GD32VW553/V1_MQTT_OK/GD32VW55X_Wifi_BLE_SDK/GD32VW55x_RELEASE_V1.0.2/MSDK/plf/src\gd32vw55x_platform.c **** /*!
 127:C:/Users/stapi/OneDrive/Desktop/GD32VW553/V1_MQTT_OK/GD32VW55X_Wifi_BLE_SDK/GD32VW55x_RELEASE_V1.0.2/MSDK/plf/src\gd32vw55x_platform.c ****     \brief      clear exti line
 128:C:/Users/stapi/OneDrive/Desktop/GD32VW553/V1_MQTT_OK/GD32VW55X_Wifi_BLE_SDK/GD32VW55x_RELEASE_V1.0.2/MSDK/plf/src\gd32vw55x_platform.c ****     \param[in]  line_no: EXTI line number, refer to exti_line_enum
 129:C:/Users/stapi/OneDrive/Desktop/GD32VW553/V1_MQTT_OK/GD32VW55X_Wifi_BLE_SDK/GD32VW55x_RELEASE_V1.0.2/MSDK/plf/src\gd32vw55x_platform.c ****                 only one parameter can be selected which is shown as below:
 130:C:/Users/stapi/OneDrive/Desktop/GD32VW553/V1_MQTT_OK/GD32VW55X_Wifi_BLE_SDK/GD32VW55x_RELEASE_V1.0.2/MSDK/plf/src\gd32vw55x_platform.c ****       \arg        EXTI_x (x=0..28): EXTI line x
 131:C:/Users/stapi/OneDrive/Desktop/GD32VW553/V1_MQTT_OK/GD32VW55X_Wifi_BLE_SDK/GD32VW55x_RELEASE_V1.0.2/MSDK/plf/src\gd32vw55x_platform.c ****     \param[out] none
 132:C:/Users/stapi/OneDrive/Desktop/GD32VW553/V1_MQTT_OK/GD32VW55X_Wifi_BLE_SDK/GD32VW55x_RELEASE_V1.0.2/MSDK/plf/src\gd32vw55x_platform.c ****     \retval     none
 133:C:/Users/stapi/OneDrive/Desktop/GD32VW553/V1_MQTT_OK/GD32VW55X_Wifi_BLE_SDK/GD32VW55x_RELEASE_V1.0.2/MSDK/plf/src\gd32vw55x_platform.c **** */
 134:C:/Users/stapi/OneDrive/Desktop/GD32VW553/V1_MQTT_OK/GD32VW55X_Wifi_BLE_SDK/GD32VW55x_RELEASE_V1.0.2/MSDK/plf/src\gd32vw55x_platform.c **** static void exti_line_clear(exti_line_enum line_no)
 135:C:/Users/stapi/OneDrive/Desktop/GD32VW553/V1_MQTT_OK/GD32VW55X_Wifi_BLE_SDK/GD32VW55x_RELEASE_V1.0.2/MSDK/plf/src\gd32vw55x_platform.c **** {
  15              		.loc 1 135 1
  16              		.cfi_startproc
  17              	.LVL0:
  18 0000 17030000 		call	t0,__riscv_save_1
  18      E7020300 
  19              		.cfi_offset 8, -8
  20              		.cfi_offset 1, -4
  21              		.cfi_def_cfa_offset 16
 136:C:/Users/stapi/OneDrive/Desktop/GD32VW553/V1_MQTT_OK/GD32VW55X_Wifi_BLE_SDK/GD32VW55x_RELEASE_V1.0.2/MSDK/plf/src\gd32vw55x_platform.c ****     /* disable interrupt mask */
 137:C:/Users/stapi/OneDrive/Desktop/GD32VW553/V1_MQTT_OK/GD32VW55X_Wifi_BLE_SDK/GD32VW55x_RELEASE_V1.0.2/MSDK/plf/src\gd32vw55x_platform.c ****     exti_interrupt_disable(line_no);
  22              		.loc 1 137 5
 135:C:/Users/stapi/OneDrive/Desktop/GD32VW553/V1_MQTT_OK/GD32VW55X_Wifi_BLE_SDK/GD32VW55x_RELEASE_V1.0.2/MSDK/plf/src\gd32vw55x_platform.c ****     /* disable interrupt mask */
  23              		.loc 1 135 1 is_stmt 0
  24 0008 2A84     		mv	s0,a0
  25              		.loc 1 137 5
  26 000a 97000000 		call	exti_interrupt_disable
  26      E7800000 
  27              	.LVL1:
 138:C:/Users/stapi/OneDrive/Desktop/GD32VW553/V1_MQTT_OK/GD32VW55X_Wifi_BLE_SDK/GD32VW55x_RELEASE_V1.0.2/MSDK/plf/src\gd32vw55x_platform.c **** 
 139:C:/Users/stapi/OneDrive/Desktop/GD32VW553/V1_MQTT_OK/GD32VW55X_Wifi_BLE_SDK/GD32VW55x_RELEASE_V1.0.2/MSDK/plf/src\gd32vw55x_platform.c ****     /* clear pending interrupt bit */
 140:C:/Users/stapi/OneDrive/Desktop/GD32VW553/V1_MQTT_OK/GD32VW55X_Wifi_BLE_SDK/GD32VW55x_RELEASE_V1.0.2/MSDK/plf/src\gd32vw55x_platform.c ****     if (SET == exti_flag_get(line_no)) {
  28              		.loc 1 140 5 is_stmt 1
  29              		.loc 1 140 16 is_stmt 0
  30 0012 2285     		mv	a0,s0
  31 0014 97000000 		call	exti_flag_get
  31      E7800000 
  32              	.LVL2:
  33              		.loc 1 140 8
  34 001c 8547     		li	a5,1
  35 001e 6317F500 		bne	a0,a5,.L1
 141:C:/Users/stapi/OneDrive/Desktop/GD32VW553/V1_MQTT_OK/GD32VW55X_Wifi_BLE_SDK/GD32VW55x_RELEASE_V1.0.2/MSDK/plf/src\gd32vw55x_platform.c ****         exti_interrupt_flag_clear(line_no);
  36              		.loc 1 141 9 is_stmt 1
  37 0022 2285     		mv	a0,s0
  38 0024 97000000 		call	exti_interrupt_flag_clear
  38      E7800000 
  39              	.LVL3:
  40              	.L1:
 142:C:/Users/stapi/OneDrive/Desktop/GD32VW553/V1_MQTT_OK/GD32VW55X_Wifi_BLE_SDK/GD32VW55x_RELEASE_V1.0.2/MSDK/plf/src\gd32vw55x_platform.c ****     }
 143:C:/Users/stapi/OneDrive/Desktop/GD32VW553/V1_MQTT_OK/GD32VW55X_Wifi_BLE_SDK/GD32VW55x_RELEASE_V1.0.2/MSDK/plf/src\gd32vw55x_platform.c **** }
  41              		.loc 1 143 1 is_stmt 0
  42 002c 17030000 		tail	__riscv_restore_1
  42      67000300 
  43              		.cfi_restore 8
  44              		.cfi_restore 1
  45              		.cfi_def_cfa_offset 0
  46              		.cfi_endproc
  47              	.LFE380:
  49              		.section	.text.ble_pmu_config.part.0,"ax",@progbits
  50              		.align	1
  52              	ble_pmu_config.part.0:
  53              	.LFB427:
 144:C:/Users/stapi/OneDrive/Desktop/GD32VW553/V1_MQTT_OK/GD32VW55X_Wifi_BLE_SDK/GD32VW55x_RELEASE_V1.0.2/MSDK/plf/src\gd32vw55x_platform.c **** 
 145:C:/Users/stapi/OneDrive/Desktop/GD32VW553/V1_MQTT_OK/GD32VW55X_Wifi_BLE_SDK/GD32VW55x_RELEASE_V1.0.2/MSDK/plf/src\gd32vw55x_platform.c **** /*!
 146:C:/Users/stapi/OneDrive/Desktop/GD32VW553/V1_MQTT_OK/GD32VW55X_Wifi_BLE_SDK/GD32VW55x_RELEASE_V1.0.2/MSDK/plf/src\gd32vw55x_platform.c ****     \brief      enter deep sleep mode
 147:C:/Users/stapi/OneDrive/Desktop/GD32VW553/V1_MQTT_OK/GD32VW55X_Wifi_BLE_SDK/GD32VW55x_RELEASE_V1.0.2/MSDK/plf/src\gd32vw55x_platform.c ****     \param[in]  sleep_time: sleep time(0x0000-0x7fff)
 148:C:/Users/stapi/OneDrive/Desktop/GD32VW553/V1_MQTT_OK/GD32VW55X_Wifi_BLE_SDK/GD32VW55x_RELEASE_V1.0.2/MSDK/plf/src\gd32vw55x_platform.c ****     \param[out] none
 149:C:/Users/stapi/OneDrive/Desktop/GD32VW553/V1_MQTT_OK/GD32VW55X_Wifi_BLE_SDK/GD32VW55x_RELEASE_V1.0.2/MSDK/plf/src\gd32vw55x_platform.c ****     \retval     none
 150:C:/Users/stapi/OneDrive/Desktop/GD32VW553/V1_MQTT_OK/GD32VW55X_Wifi_BLE_SDK/GD32VW55x_RELEASE_V1.0.2/MSDK/plf/src\gd32vw55x_platform.c **** */
 151:C:/Users/stapi/OneDrive/Desktop/GD32VW553/V1_MQTT_OK/GD32VW55X_Wifi_BLE_SDK/GD32VW55x_RELEASE_V1.0.2/MSDK/plf/src\gd32vw55x_platform.c **** void deep_sleep_enter(uint16_t sleep_time)
 152:C:/Users/stapi/OneDrive/Desktop/GD32VW553/V1_MQTT_OK/GD32VW55X_Wifi_BLE_SDK/GD32VW55x_RELEASE_V1.0.2/MSDK/plf/src\gd32vw55x_platform.c **** {
 153:C:/Users/stapi/OneDrive/Desktop/GD32VW553/V1_MQTT_OK/GD32VW55X_Wifi_BLE_SDK/GD32VW55x_RELEASE_V1.0.2/MSDK/plf/src\gd32vw55x_platform.c ****     exti_init(LOG_USART_RX_PIN_EXTI_LINE, EXTI_INTERRUPT, EXTI_TRIG_RISING);
 154:C:/Users/stapi/OneDrive/Desktop/GD32VW553/V1_MQTT_OK/GD32VW55X_Wifi_BLE_SDK/GD32VW55x_RELEASE_V1.0.2/MSDK/plf/src\gd32vw55x_platform.c **** 
 155:C:/Users/stapi/OneDrive/Desktop/GD32VW553/V1_MQTT_OK/GD32VW55X_Wifi_BLE_SDK/GD32VW55x_RELEASE_V1.0.2/MSDK/plf/src\gd32vw55x_platform.c ****     // Wifi module enter exit by self
 156:C:/Users/stapi/OneDrive/Desktop/GD32VW553/V1_MQTT_OK/GD32VW55X_Wifi_BLE_SDK/GD32VW55x_RELEASE_V1.0.2/MSDK/plf/src\gd32vw55x_platform.c ****     // exti_init(WLAN_WAKEUP_EXTI_LINE, EXTI_INTERRUPT, EXTI_TRIG_RISING);
 157:C:/Users/stapi/OneDrive/Desktop/GD32VW553/V1_MQTT_OK/GD32VW55X_Wifi_BLE_SDK/GD32VW55x_RELEASE_V1.0.2/MSDK/plf/src\gd32vw55x_platform.c **** 
 158:C:/Users/stapi/OneDrive/Desktop/GD32VW553/V1_MQTT_OK/GD32VW55X_Wifi_BLE_SDK/GD32VW55x_RELEASE_V1.0.2/MSDK/plf/src\gd32vw55x_platform.c ****     exti_init(RTC_WAKEUP_EXTI_LINE, EXTI_INTERRUPT, EXTI_TRIG_RISING);
 159:C:/Users/stapi/OneDrive/Desktop/GD32VW553/V1_MQTT_OK/GD32VW55X_Wifi_BLE_SDK/GD32VW55x_RELEASE_V1.0.2/MSDK/plf/src\gd32vw55x_platform.c **** 
 160:C:/Users/stapi/OneDrive/Desktop/GD32VW553/V1_MQTT_OK/GD32VW55X_Wifi_BLE_SDK/GD32VW55x_RELEASE_V1.0.2/MSDK/plf/src\gd32vw55x_platform.c ****     rtc_flag_clear(RTC_STAT_WTF);
 161:C:/Users/stapi/OneDrive/Desktop/GD32VW553/V1_MQTT_OK/GD32VW55X_Wifi_BLE_SDK/GD32VW55x_RELEASE_V1.0.2/MSDK/plf/src\gd32vw55x_platform.c ****     rtc_wakeup_disable();
 162:C:/Users/stapi/OneDrive/Desktop/GD32VW553/V1_MQTT_OK/GD32VW55X_Wifi_BLE_SDK/GD32VW55x_RELEASE_V1.0.2/MSDK/plf/src\gd32vw55x_platform.c **** 
 163:C:/Users/stapi/OneDrive/Desktop/GD32VW553/V1_MQTT_OK/GD32VW55X_Wifi_BLE_SDK/GD32VW55x_RELEASE_V1.0.2/MSDK/plf/src\gd32vw55x_platform.c **** #if defined(RTC_CLOCK_SOURCE_IRC32K)
 164:C:/Users/stapi/OneDrive/Desktop/GD32VW553/V1_MQTT_OK/GD32VW55X_Wifi_BLE_SDK/GD32VW55x_RELEASE_V1.0.2/MSDK/plf/src\gd32vw55x_platform.c ****     rtc_wakeup_timer_set(sleep_time * 2);  /* unit: 500us */
 165:C:/Users/stapi/OneDrive/Desktop/GD32VW553/V1_MQTT_OK/GD32VW55X_Wifi_BLE_SDK/GD32VW55x_RELEASE_V1.0.2/MSDK/plf/src\gd32vw55x_platform.c **** #else
 166:C:/Users/stapi/OneDrive/Desktop/GD32VW553/V1_MQTT_OK/GD32VW55X_Wifi_BLE_SDK/GD32VW55x_RELEASE_V1.0.2/MSDK/plf/src\gd32vw55x_platform.c ****     rtc_wakeup_timer_set(sleep_time * 5); /* unit: 200us */
 167:C:/Users/stapi/OneDrive/Desktop/GD32VW553/V1_MQTT_OK/GD32VW55X_Wifi_BLE_SDK/GD32VW55x_RELEASE_V1.0.2/MSDK/plf/src\gd32vw55x_platform.c **** #endif
 168:C:/Users/stapi/OneDrive/Desktop/GD32VW553/V1_MQTT_OK/GD32VW55X_Wifi_BLE_SDK/GD32VW55x_RELEASE_V1.0.2/MSDK/plf/src\gd32vw55x_platform.c **** 
 169:C:/Users/stapi/OneDrive/Desktop/GD32VW553/V1_MQTT_OK/GD32VW55X_Wifi_BLE_SDK/GD32VW55x_RELEASE_V1.0.2/MSDK/plf/src\gd32vw55x_platform.c ****     rtc_wakeup_enable();
 170:C:/Users/stapi/OneDrive/Desktop/GD32VW553/V1_MQTT_OK/GD32VW55X_Wifi_BLE_SDK/GD32VW55x_RELEASE_V1.0.2/MSDK/plf/src\gd32vw55x_platform.c **** 
 171:C:/Users/stapi/OneDrive/Desktop/GD32VW553/V1_MQTT_OK/GD32VW55X_Wifi_BLE_SDK/GD32VW55x_RELEASE_V1.0.2/MSDK/plf/src\gd32vw55x_platform.c ****     hw_crypto_engine_disable();
 172:C:/Users/stapi/OneDrive/Desktop/GD32VW553/V1_MQTT_OK/GD32VW55X_Wifi_BLE_SDK/GD32VW55x_RELEASE_V1.0.2/MSDK/plf/src\gd32vw55x_platform.c ****     trng_close(0);
 173:C:/Users/stapi/OneDrive/Desktop/GD32VW553/V1_MQTT_OK/GD32VW55X_Wifi_BLE_SDK/GD32VW55x_RELEASE_V1.0.2/MSDK/plf/src\gd32vw55x_platform.c **** 
 174:C:/Users/stapi/OneDrive/Desktop/GD32VW553/V1_MQTT_OK/GD32VW55X_Wifi_BLE_SDK/GD32VW55x_RELEASE_V1.0.2/MSDK/plf/src\gd32vw55x_platform.c **** #ifdef LOG_UART
 175:C:/Users/stapi/OneDrive/Desktop/GD32VW553/V1_MQTT_OK/GD32VW55X_Wifi_BLE_SDK/GD32VW55x_RELEASE_V1.0.2/MSDK/plf/src\gd32vw55x_platform.c ****     /* wait usart transmition complete */
 176:C:/Users/stapi/OneDrive/Desktop/GD32VW553/V1_MQTT_OK/GD32VW55X_Wifi_BLE_SDK/GD32VW55x_RELEASE_V1.0.2/MSDK/plf/src\gd32vw55x_platform.c ****     while(RESET == usart_flag_get(LOG_UART, USART_FLAG_TC));
 177:C:/Users/stapi/OneDrive/Desktop/GD32VW553/V1_MQTT_OK/GD32VW55X_Wifi_BLE_SDK/GD32VW55x_RELEASE_V1.0.2/MSDK/plf/src\gd32vw55x_platform.c **** #endif
 178:C:/Users/stapi/OneDrive/Desktop/GD32VW553/V1_MQTT_OK/GD32VW55X_Wifi_BLE_SDK/GD32VW55x_RELEASE_V1.0.2/MSDK/plf/src\gd32vw55x_platform.c **** 
 179:C:/Users/stapi/OneDrive/Desktop/GD32VW553/V1_MQTT_OK/GD32VW55X_Wifi_BLE_SDK/GD32VW55x_RELEASE_V1.0.2/MSDK/plf/src\gd32vw55x_platform.c **** #ifdef TRACE_UART
 180:C:/Users/stapi/OneDrive/Desktop/GD32VW553/V1_MQTT_OK/GD32VW55X_Wifi_BLE_SDK/GD32VW55x_RELEASE_V1.0.2/MSDK/plf/src\gd32vw55x_platform.c ****     /* wait usart transmition complete */
 181:C:/Users/stapi/OneDrive/Desktop/GD32VW553/V1_MQTT_OK/GD32VW55X_Wifi_BLE_SDK/GD32VW55x_RELEASE_V1.0.2/MSDK/plf/src\gd32vw55x_platform.c ****     while(RESET == usart_flag_get(TRACE_UART, USART_FLAG_TC));
 182:C:/Users/stapi/OneDrive/Desktop/GD32VW553/V1_MQTT_OK/GD32VW55X_Wifi_BLE_SDK/GD32VW55x_RELEASE_V1.0.2/MSDK/plf/src\gd32vw55x_platform.c **** #endif
 183:C:/Users/stapi/OneDrive/Desktop/GD32VW553/V1_MQTT_OK/GD32VW55X_Wifi_BLE_SDK/GD32VW55x_RELEASE_V1.0.2/MSDK/plf/src\gd32vw55x_platform.c **** 
 184:C:/Users/stapi/OneDrive/Desktop/GD32VW553/V1_MQTT_OK/GD32VW55X_Wifi_BLE_SDK/GD32VW55x_RELEASE_V1.0.2/MSDK/plf/src\gd32vw55x_platform.c **** #ifdef HCI_UART
 185:C:/Users/stapi/OneDrive/Desktop/GD32VW553/V1_MQTT_OK/GD32VW55X_Wifi_BLE_SDK/GD32VW55x_RELEASE_V1.0.2/MSDK/plf/src\gd32vw55x_platform.c ****     /* wait usart transmition complete */
 186:C:/Users/stapi/OneDrive/Desktop/GD32VW553/V1_MQTT_OK/GD32VW55X_Wifi_BLE_SDK/GD32VW55x_RELEASE_V1.0.2/MSDK/plf/src\gd32vw55x_platform.c ****     while(RESET == usart_flag_get(HCI_UART, USART_FLAG_TC));
 187:C:/Users/stapi/OneDrive/Desktop/GD32VW553/V1_MQTT_OK/GD32VW55X_Wifi_BLE_SDK/GD32VW55x_RELEASE_V1.0.2/MSDK/plf/src\gd32vw55x_platform.c **** #endif
 188:C:/Users/stapi/OneDrive/Desktop/GD32VW553/V1_MQTT_OK/GD32VW55X_Wifi_BLE_SDK/GD32VW55x_RELEASE_V1.0.2/MSDK/plf/src\gd32vw55x_platform.c **** 
 189:C:/Users/stapi/OneDrive/Desktop/GD32VW553/V1_MQTT_OK/GD32VW55X_Wifi_BLE_SDK/GD32VW55x_RELEASE_V1.0.2/MSDK/plf/src\gd32vw55x_platform.c ****     pmu_to_deepsleepmode(PMU_LDO_LOWPOWER, PMU_LOWDRIVER_ENABLE, WFI_CMD);
 190:C:/Users/stapi/OneDrive/Desktop/GD32VW553/V1_MQTT_OK/GD32VW55X_Wifi_BLE_SDK/GD32VW55x_RELEASE_V1.0.2/MSDK/plf/src\gd32vw55x_platform.c **** }
 191:C:/Users/stapi/OneDrive/Desktop/GD32VW553/V1_MQTT_OK/GD32VW55X_Wifi_BLE_SDK/GD32VW55x_RELEASE_V1.0.2/MSDK/plf/src\gd32vw55x_platform.c **** 
 192:C:/Users/stapi/OneDrive/Desktop/GD32VW553/V1_MQTT_OK/GD32VW55X_Wifi_BLE_SDK/GD32VW55x_RELEASE_V1.0.2/MSDK/plf/src\gd32vw55x_platform.c **** /*!
 193:C:/Users/stapi/OneDrive/Desktop/GD32VW553/V1_MQTT_OK/GD32VW55X_Wifi_BLE_SDK/GD32VW55x_RELEASE_V1.0.2/MSDK/plf/src\gd32vw55x_platform.c ****     \brief      exit deep sleep mode
 194:C:/Users/stapi/OneDrive/Desktop/GD32VW553/V1_MQTT_OK/GD32VW55X_Wifi_BLE_SDK/GD32VW55x_RELEASE_V1.0.2/MSDK/plf/src\gd32vw55x_platform.c ****     \param[in]  none
 195:C:/Users/stapi/OneDrive/Desktop/GD32VW553/V1_MQTT_OK/GD32VW55X_Wifi_BLE_SDK/GD32VW55x_RELEASE_V1.0.2/MSDK/plf/src\gd32vw55x_platform.c ****     \param[out] none
 196:C:/Users/stapi/OneDrive/Desktop/GD32VW553/V1_MQTT_OK/GD32VW55X_Wifi_BLE_SDK/GD32VW55x_RELEASE_V1.0.2/MSDK/plf/src\gd32vw55x_platform.c ****     \retval     none
 197:C:/Users/stapi/OneDrive/Desktop/GD32VW553/V1_MQTT_OK/GD32VW55X_Wifi_BLE_SDK/GD32VW55x_RELEASE_V1.0.2/MSDK/plf/src\gd32vw55x_platform.c **** */
 198:C:/Users/stapi/OneDrive/Desktop/GD32VW553/V1_MQTT_OK/GD32VW55X_Wifi_BLE_SDK/GD32VW55x_RELEASE_V1.0.2/MSDK/plf/src\gd32vw55x_platform.c **** void deep_sleep_exit(void)
 199:C:/Users/stapi/OneDrive/Desktop/GD32VW553/V1_MQTT_OK/GD32VW55X_Wifi_BLE_SDK/GD32VW55x_RELEASE_V1.0.2/MSDK/plf/src\gd32vw55x_platform.c **** {
 200:C:/Users/stapi/OneDrive/Desktop/GD32VW553/V1_MQTT_OK/GD32VW55X_Wifi_BLE_SDK/GD32VW55x_RELEASE_V1.0.2/MSDK/plf/src\gd32vw55x_platform.c ****     GLOBAL_INT_STOP();
 201:C:/Users/stapi/OneDrive/Desktop/GD32VW553/V1_MQTT_OK/GD32VW55X_Wifi_BLE_SDK/GD32VW55x_RELEASE_V1.0.2/MSDK/plf/src\gd32vw55x_platform.c ****     if (rcu_system_clock_source_get() != RCU_SCSS_PLLDIG)
 202:C:/Users/stapi/OneDrive/Desktop/GD32VW553/V1_MQTT_OK/GD32VW55X_Wifi_BLE_SDK/GD32VW55x_RELEASE_V1.0.2/MSDK/plf/src\gd32vw55x_platform.c ****         system_clock_config();
 203:C:/Users/stapi/OneDrive/Desktop/GD32VW553/V1_MQTT_OK/GD32VW55X_Wifi_BLE_SDK/GD32VW55x_RELEASE_V1.0.2/MSDK/plf/src\gd32vw55x_platform.c ****     GLOBAL_INT_START();
 204:C:/Users/stapi/OneDrive/Desktop/GD32VW553/V1_MQTT_OK/GD32VW55X_Wifi_BLE_SDK/GD32VW55x_RELEASE_V1.0.2/MSDK/plf/src\gd32vw55x_platform.c **** 
 205:C:/Users/stapi/OneDrive/Desktop/GD32VW553/V1_MQTT_OK/GD32VW55X_Wifi_BLE_SDK/GD32VW55x_RELEASE_V1.0.2/MSDK/plf/src\gd32vw55x_platform.c ****     exti_line_clear(LOG_USART_RX_PIN_EXTI_LINE);
 206:C:/Users/stapi/OneDrive/Desktop/GD32VW553/V1_MQTT_OK/GD32VW55X_Wifi_BLE_SDK/GD32VW55x_RELEASE_V1.0.2/MSDK/plf/src\gd32vw55x_platform.c ****     // Wifi module clear exit by self
 207:C:/Users/stapi/OneDrive/Desktop/GD32VW553/V1_MQTT_OK/GD32VW55X_Wifi_BLE_SDK/GD32VW55x_RELEASE_V1.0.2/MSDK/plf/src\gd32vw55x_platform.c ****     // exti_line_clear(WLAN_WAKEUP_EXTI_LINE);
 208:C:/Users/stapi/OneDrive/Desktop/GD32VW553/V1_MQTT_OK/GD32VW55X_Wifi_BLE_SDK/GD32VW55x_RELEASE_V1.0.2/MSDK/plf/src\gd32vw55x_platform.c ****     exti_line_clear(RTC_WAKEUP_EXTI_LINE);
 209:C:/Users/stapi/OneDrive/Desktop/GD32VW553/V1_MQTT_OK/GD32VW55X_Wifi_BLE_SDK/GD32VW55x_RELEASE_V1.0.2/MSDK/plf/src\gd32vw55x_platform.c **** 
 210:C:/Users/stapi/OneDrive/Desktop/GD32VW553/V1_MQTT_OK/GD32VW55X_Wifi_BLE_SDK/GD32VW55x_RELEASE_V1.0.2/MSDK/plf/src\gd32vw55x_platform.c ****     hw_crypto_engine_enable();
 211:C:/Users/stapi/OneDrive/Desktop/GD32VW553/V1_MQTT_OK/GD32VW55X_Wifi_BLE_SDK/GD32VW55x_RELEASE_V1.0.2/MSDK/plf/src\gd32vw55x_platform.c **** 
 212:C:/Users/stapi/OneDrive/Desktop/GD32VW553/V1_MQTT_OK/GD32VW55X_Wifi_BLE_SDK/GD32VW55x_RELEASE_V1.0.2/MSDK/plf/src\gd32vw55x_platform.c ****     if(RESET != rtc_flag_get(RTC_STAT_WTF)) {
 213:C:/Users/stapi/OneDrive/Desktop/GD32VW553/V1_MQTT_OK/GD32VW55X_Wifi_BLE_SDK/GD32VW55x_RELEASE_V1.0.2/MSDK/plf/src\gd32vw55x_platform.c ****         rtc_flag_clear(RTC_STAT_WTF);
 214:C:/Users/stapi/OneDrive/Desktop/GD32VW553/V1_MQTT_OK/GD32VW55X_Wifi_BLE_SDK/GD32VW55x_RELEASE_V1.0.2/MSDK/plf/src\gd32vw55x_platform.c ****     }
 215:C:/Users/stapi/OneDrive/Desktop/GD32VW553/V1_MQTT_OK/GD32VW55X_Wifi_BLE_SDK/GD32VW55x_RELEASE_V1.0.2/MSDK/plf/src\gd32vw55x_platform.c **** }
 216:C:/Users/stapi/OneDrive/Desktop/GD32VW553/V1_MQTT_OK/GD32VW55X_Wifi_BLE_SDK/GD32VW55x_RELEASE_V1.0.2/MSDK/plf/src\gd32vw55x_platform.c **** 
 217:C:/Users/stapi/OneDrive/Desktop/GD32VW553/V1_MQTT_OK/GD32VW55X_Wifi_BLE_SDK/GD32VW55x_RELEASE_V1.0.2/MSDK/plf/src\gd32vw55x_platform.c **** /*!
 218:C:/Users/stapi/OneDrive/Desktop/GD32VW553/V1_MQTT_OK/GD32VW55X_Wifi_BLE_SDK/GD32VW55x_RELEASE_V1.0.2/MSDK/plf/src\gd32vw55x_platform.c ****     \brief      enter deep sleep mode
 219:C:/Users/stapi/OneDrive/Desktop/GD32VW553/V1_MQTT_OK/GD32VW55X_Wifi_BLE_SDK/GD32VW55x_RELEASE_V1.0.2/MSDK/plf/src\gd32vw55x_platform.c ****     \param[in]  none
 220:C:/Users/stapi/OneDrive/Desktop/GD32VW553/V1_MQTT_OK/GD32VW55X_Wifi_BLE_SDK/GD32VW55x_RELEASE_V1.0.2/MSDK/plf/src\gd32vw55x_platform.c ****     \param[out] none
 221:C:/Users/stapi/OneDrive/Desktop/GD32VW553/V1_MQTT_OK/GD32VW55X_Wifi_BLE_SDK/GD32VW55x_RELEASE_V1.0.2/MSDK/plf/src\gd32vw55x_platform.c ****     \retval     none
 222:C:/Users/stapi/OneDrive/Desktop/GD32VW553/V1_MQTT_OK/GD32VW55X_Wifi_BLE_SDK/GD32VW55x_RELEASE_V1.0.2/MSDK/plf/src\gd32vw55x_platform.c **** */
 223:C:/Users/stapi/OneDrive/Desktop/GD32VW553/V1_MQTT_OK/GD32VW55X_Wifi_BLE_SDK/GD32VW55x_RELEASE_V1.0.2/MSDK/plf/src\gd32vw55x_platform.c **** void wlan_exti_enter()
 224:C:/Users/stapi/OneDrive/Desktop/GD32VW553/V1_MQTT_OK/GD32VW55X_Wifi_BLE_SDK/GD32VW55x_RELEASE_V1.0.2/MSDK/plf/src\gd32vw55x_platform.c **** {
 225:C:/Users/stapi/OneDrive/Desktop/GD32VW553/V1_MQTT_OK/GD32VW55X_Wifi_BLE_SDK/GD32VW55x_RELEASE_V1.0.2/MSDK/plf/src\gd32vw55x_platform.c **** #ifdef CFG_LPS
 226:C:/Users/stapi/OneDrive/Desktop/GD32VW553/V1_MQTT_OK/GD32VW55X_Wifi_BLE_SDK/GD32VW55x_RELEASE_V1.0.2/MSDK/plf/src\gd32vw55x_platform.c ****     exti_init(WLAN_WAKEUP_EXTI_LINE, EXTI_INTERRUPT, EXTI_TRIG_RISING);
 227:C:/Users/stapi/OneDrive/Desktop/GD32VW553/V1_MQTT_OK/GD32VW55X_Wifi_BLE_SDK/GD32VW55x_RELEASE_V1.0.2/MSDK/plf/src\gd32vw55x_platform.c **** #endif
 228:C:/Users/stapi/OneDrive/Desktop/GD32VW553/V1_MQTT_OK/GD32VW55X_Wifi_BLE_SDK/GD32VW55x_RELEASE_V1.0.2/MSDK/plf/src\gd32vw55x_platform.c **** }
 229:C:/Users/stapi/OneDrive/Desktop/GD32VW553/V1_MQTT_OK/GD32VW55X_Wifi_BLE_SDK/GD32VW55x_RELEASE_V1.0.2/MSDK/plf/src\gd32vw55x_platform.c **** 
 230:C:/Users/stapi/OneDrive/Desktop/GD32VW553/V1_MQTT_OK/GD32VW55X_Wifi_BLE_SDK/GD32VW55x_RELEASE_V1.0.2/MSDK/plf/src\gd32vw55x_platform.c **** /*!
 231:C:/Users/stapi/OneDrive/Desktop/GD32VW553/V1_MQTT_OK/GD32VW55X_Wifi_BLE_SDK/GD32VW55x_RELEASE_V1.0.2/MSDK/plf/src\gd32vw55x_platform.c ****     \brief      exit deep sleep mode
 232:C:/Users/stapi/OneDrive/Desktop/GD32VW553/V1_MQTT_OK/GD32VW55X_Wifi_BLE_SDK/GD32VW55x_RELEASE_V1.0.2/MSDK/plf/src\gd32vw55x_platform.c ****     \param[in]  none
 233:C:/Users/stapi/OneDrive/Desktop/GD32VW553/V1_MQTT_OK/GD32VW55X_Wifi_BLE_SDK/GD32VW55x_RELEASE_V1.0.2/MSDK/plf/src\gd32vw55x_platform.c ****     \param[out] none
 234:C:/Users/stapi/OneDrive/Desktop/GD32VW553/V1_MQTT_OK/GD32VW55X_Wifi_BLE_SDK/GD32VW55x_RELEASE_V1.0.2/MSDK/plf/src\gd32vw55x_platform.c ****     \retval     none
 235:C:/Users/stapi/OneDrive/Desktop/GD32VW553/V1_MQTT_OK/GD32VW55X_Wifi_BLE_SDK/GD32VW55x_RELEASE_V1.0.2/MSDK/plf/src\gd32vw55x_platform.c **** */
 236:C:/Users/stapi/OneDrive/Desktop/GD32VW553/V1_MQTT_OK/GD32VW55X_Wifi_BLE_SDK/GD32VW55x_RELEASE_V1.0.2/MSDK/plf/src\gd32vw55x_platform.c **** void wlan_exti_exit(void)
 237:C:/Users/stapi/OneDrive/Desktop/GD32VW553/V1_MQTT_OK/GD32VW55X_Wifi_BLE_SDK/GD32VW55x_RELEASE_V1.0.2/MSDK/plf/src\gd32vw55x_platform.c **** {
 238:C:/Users/stapi/OneDrive/Desktop/GD32VW553/V1_MQTT_OK/GD32VW55X_Wifi_BLE_SDK/GD32VW55x_RELEASE_V1.0.2/MSDK/plf/src\gd32vw55x_platform.c **** #ifdef CFG_LPS
 239:C:/Users/stapi/OneDrive/Desktop/GD32VW553/V1_MQTT_OK/GD32VW55X_Wifi_BLE_SDK/GD32VW55x_RELEASE_V1.0.2/MSDK/plf/src\gd32vw55x_platform.c ****     exti_line_clear(WLAN_WAKEUP_EXTI_LINE);
 240:C:/Users/stapi/OneDrive/Desktop/GD32VW553/V1_MQTT_OK/GD32VW55X_Wifi_BLE_SDK/GD32VW55x_RELEASE_V1.0.2/MSDK/plf/src\gd32vw55x_platform.c **** #endif
 241:C:/Users/stapi/OneDrive/Desktop/GD32VW553/V1_MQTT_OK/GD32VW55X_Wifi_BLE_SDK/GD32VW55x_RELEASE_V1.0.2/MSDK/plf/src\gd32vw55x_platform.c **** }
 242:C:/Users/stapi/OneDrive/Desktop/GD32VW553/V1_MQTT_OK/GD32VW55X_Wifi_BLE_SDK/GD32VW55x_RELEASE_V1.0.2/MSDK/plf/src\gd32vw55x_platform.c **** 
 243:C:/Users/stapi/OneDrive/Desktop/GD32VW553/V1_MQTT_OK/GD32VW55X_Wifi_BLE_SDK/GD32VW55x_RELEASE_V1.0.2/MSDK/plf/src\gd32vw55x_platform.c **** /*!
 244:C:/Users/stapi/OneDrive/Desktop/GD32VW553/V1_MQTT_OK/GD32VW55X_Wifi_BLE_SDK/GD32VW55x_RELEASE_V1.0.2/MSDK/plf/src\gd32vw55x_platform.c ****     \brief      ble enter deep sleep mode
 245:C:/Users/stapi/OneDrive/Desktop/GD32VW553/V1_MQTT_OK/GD32VW55X_Wifi_BLE_SDK/GD32VW55x_RELEASE_V1.0.2/MSDK/plf/src\gd32vw55x_platform.c **** */
 246:C:/Users/stapi/OneDrive/Desktop/GD32VW553/V1_MQTT_OK/GD32VW55X_Wifi_BLE_SDK/GD32VW55x_RELEASE_V1.0.2/MSDK/plf/src\gd32vw55x_platform.c **** void ble_exti_enter(void)
 247:C:/Users/stapi/OneDrive/Desktop/GD32VW553/V1_MQTT_OK/GD32VW55X_Wifi_BLE_SDK/GD32VW55x_RELEASE_V1.0.2/MSDK/plf/src\gd32vw55x_platform.c **** {
 248:C:/Users/stapi/OneDrive/Desktop/GD32VW553/V1_MQTT_OK/GD32VW55X_Wifi_BLE_SDK/GD32VW55x_RELEASE_V1.0.2/MSDK/plf/src\gd32vw55x_platform.c ****     exti_init(BLE_WAKEUP_EXTI_LINE, EXTI_INTERRUPT, EXTI_TRIG_RISING);
 249:C:/Users/stapi/OneDrive/Desktop/GD32VW553/V1_MQTT_OK/GD32VW55X_Wifi_BLE_SDK/GD32VW55x_RELEASE_V1.0.2/MSDK/plf/src\gd32vw55x_platform.c **** }
 250:C:/Users/stapi/OneDrive/Desktop/GD32VW553/V1_MQTT_OK/GD32VW55X_Wifi_BLE_SDK/GD32VW55x_RELEASE_V1.0.2/MSDK/plf/src\gd32vw55x_platform.c **** 
 251:C:/Users/stapi/OneDrive/Desktop/GD32VW553/V1_MQTT_OK/GD32VW55X_Wifi_BLE_SDK/GD32VW55x_RELEASE_V1.0.2/MSDK/plf/src\gd32vw55x_platform.c **** /*!
 252:C:/Users/stapi/OneDrive/Desktop/GD32VW553/V1_MQTT_OK/GD32VW55X_Wifi_BLE_SDK/GD32VW55x_RELEASE_V1.0.2/MSDK/plf/src\gd32vw55x_platform.c ****     \brief      ble exit deep sleep mode
 253:C:/Users/stapi/OneDrive/Desktop/GD32VW553/V1_MQTT_OK/GD32VW55X_Wifi_BLE_SDK/GD32VW55x_RELEASE_V1.0.2/MSDK/plf/src\gd32vw55x_platform.c **** */
 254:C:/Users/stapi/OneDrive/Desktop/GD32VW553/V1_MQTT_OK/GD32VW55X_Wifi_BLE_SDK/GD32VW55x_RELEASE_V1.0.2/MSDK/plf/src\gd32vw55x_platform.c **** void ble_exti_exit(void)
 255:C:/Users/stapi/OneDrive/Desktop/GD32VW553/V1_MQTT_OK/GD32VW55X_Wifi_BLE_SDK/GD32VW55x_RELEASE_V1.0.2/MSDK/plf/src\gd32vw55x_platform.c **** {
 256:C:/Users/stapi/OneDrive/Desktop/GD32VW553/V1_MQTT_OK/GD32VW55X_Wifi_BLE_SDK/GD32VW55x_RELEASE_V1.0.2/MSDK/plf/src\gd32vw55x_platform.c ****     exti_line_clear(BLE_WAKEUP_EXTI_LINE);
 257:C:/Users/stapi/OneDrive/Desktop/GD32VW553/V1_MQTT_OK/GD32VW55X_Wifi_BLE_SDK/GD32VW55x_RELEASE_V1.0.2/MSDK/plf/src\gd32vw55x_platform.c **** }
 258:C:/Users/stapi/OneDrive/Desktop/GD32VW553/V1_MQTT_OK/GD32VW55X_Wifi_BLE_SDK/GD32VW55x_RELEASE_V1.0.2/MSDK/plf/src\gd32vw55x_platform.c **** 
 259:C:/Users/stapi/OneDrive/Desktop/GD32VW553/V1_MQTT_OK/GD32VW55X_Wifi_BLE_SDK/GD32VW55x_RELEASE_V1.0.2/MSDK/plf/src\gd32vw55x_platform.c **** void ble_pmu_config(uint32_t enable)
  54              		.loc 1 259 6 is_stmt 1
  55              		.cfi_startproc
  56 0000 17030000 		call	t0,__riscv_save_1
  56      E7020300 
  57              		.cfi_offset 8, -8
  58              		.cfi_offset 1, -4
  59              		.cfi_def_cfa_offset 16
  60              	.LVL4:
 260:C:/Users/stapi/OneDrive/Desktop/GD32VW553/V1_MQTT_OK/GD32VW55X_Wifi_BLE_SDK/GD32VW55x_RELEASE_V1.0.2/MSDK/plf/src\gd32vw55x_platform.c **** {
 261:C:/Users/stapi/OneDrive/Desktop/GD32VW553/V1_MQTT_OK/GD32VW55X_Wifi_BLE_SDK/GD32VW55x_RELEASE_V1.0.2/MSDK/plf/src\gd32vw55x_platform.c ****     if (enable) {
 262:C:/Users/stapi/OneDrive/Desktop/GD32VW553/V1_MQTT_OK/GD32VW55X_Wifi_BLE_SDK/GD32VW55x_RELEASE_V1.0.2/MSDK/plf/src\gd32vw55x_platform.c ****         /* if ble is sleep, config power on */
 263:C:/Users/stapi/OneDrive/Desktop/GD32VW553/V1_MQTT_OK/GD32VW55X_Wifi_BLE_SDK/GD32VW55x_RELEASE_V1.0.2/MSDK/plf/src\gd32vw55x_platform.c ****         if (pmu_flag_get(PMU_FLAG_BLE_SLEEP) == SET)
  61              		.loc 1 263 9
  62              		.loc 1 263 13 is_stmt 0
  63 0008 37050180 		li	a0,-2147418112
  64 000c 97000000 		call	pmu_flag_get
  64      E7800000 
  65              	.LVL5:
  66              		.loc 1 263 12
  67 0014 8547     		li	a5,1
  68 0016 6318F500 		bne	a0,a5,.L5
 264:C:/Users/stapi/OneDrive/Desktop/GD32VW553/V1_MQTT_OK/GD32VW55X_Wifi_BLE_SDK/GD32VW55x_RELEASE_V1.0.2/MSDK/plf/src\gd32vw55x_platform.c ****             pmu_ble_control(PMU_BLE_WAKE);
  69              		.loc 1 264 13 is_stmt 1
  70 001a 37050001 		li	a0,16777216
  71 001e 97000000 		call	pmu_ble_control
  71      E7800000 
  72              	.LVL6:
  73              	.L5:
 265:C:/Users/stapi/OneDrive/Desktop/GD32VW553/V1_MQTT_OK/GD32VW55X_Wifi_BLE_SDK/GD32VW55x_RELEASE_V1.0.2/MSDK/plf/src\gd32vw55x_platform.c ****         /* wait active */
 266:C:/Users/stapi/OneDrive/Desktop/GD32VW553/V1_MQTT_OK/GD32VW55X_Wifi_BLE_SDK/GD32VW55x_RELEASE_V1.0.2/MSDK/plf/src\gd32vw55x_platform.c ****         while (pmu_flag_get(PMU_FLAG_BLE_ACTIVE) != SET);
  74              		.loc 1 266 15 is_stmt 0
  75 0026 0544     		li	s0,1
  76              	.L6:
  77              		.loc 1 266 57 is_stmt 1
  78              		.loc 1 266 15
  79              		.loc 1 266 16 is_stmt 0
  80 0028 37050280 		li	a0,-2147352576
  81 002c 97000000 		call	pmu_flag_get
  81      E7800000 
  82              	.LVL7:
  83              		.loc 1 266 15
  84 0034 E31A85FE 		bne	a0,s0,.L6
 267:C:/Users/stapi/OneDrive/Desktop/GD32VW553/V1_MQTT_OK/GD32VW55X_Wifi_BLE_SDK/GD32VW55x_RELEASE_V1.0.2/MSDK/plf/src\gd32vw55x_platform.c ****     } else {
 268:C:/Users/stapi/OneDrive/Desktop/GD32VW553/V1_MQTT_OK/GD32VW55X_Wifi_BLE_SDK/GD32VW55x_RELEASE_V1.0.2/MSDK/plf/src\gd32vw55x_platform.c ****         /* if ble is active, config power off */
 269:C:/Users/stapi/OneDrive/Desktop/GD32VW553/V1_MQTT_OK/GD32VW55X_Wifi_BLE_SDK/GD32VW55x_RELEASE_V1.0.2/MSDK/plf/src\gd32vw55x_platform.c ****         if (pmu_flag_get(PMU_FLAG_BLE_ACTIVE) == SET)
 270:C:/Users/stapi/OneDrive/Desktop/GD32VW553/V1_MQTT_OK/GD32VW55X_Wifi_BLE_SDK/GD32VW55x_RELEASE_V1.0.2/MSDK/plf/src\gd32vw55x_platform.c ****             pmu_ble_control(PMU_BLE_SLEEP);
 271:C:/Users/stapi/OneDrive/Desktop/GD32VW553/V1_MQTT_OK/GD32VW55X_Wifi_BLE_SDK/GD32VW55x_RELEASE_V1.0.2/MSDK/plf/src\gd32vw55x_platform.c ****         /* wait sleep */
 272:C:/Users/stapi/OneDrive/Desktop/GD32VW553/V1_MQTT_OK/GD32VW55X_Wifi_BLE_SDK/GD32VW55x_RELEASE_V1.0.2/MSDK/plf/src\gd32vw55x_platform.c ****         while (pmu_flag_get(PMU_FLAG_BLE_SLEEP) != SET);
 273:C:/Users/stapi/OneDrive/Desktop/GD32VW553/V1_MQTT_OK/GD32VW55X_Wifi_BLE_SDK/GD32VW55x_RELEASE_V1.0.2/MSDK/plf/src\gd32vw55x_platform.c ****     }
 274:C:/Users/stapi/OneDrive/Desktop/GD32VW553/V1_MQTT_OK/GD32VW55X_Wifi_BLE_SDK/GD32VW55x_RELEASE_V1.0.2/MSDK/plf/src\gd32vw55x_platform.c **** }
  85              		.loc 1 274 1
  86 0038 17030000 		tail	__riscv_restore_1
  86      67000300 
  87              		.cfi_restore 8
  88              		.cfi_restore 1
  89              		.cfi_def_cfa_offset 0
  90              		.cfi_endproc
  91              	.LFE427:
  93              		.section	.text.wifi_lpds_preconfig,"ax",@progbits
  94              		.align	1
  95              		.globl	wifi_lpds_preconfig
  97              	wifi_lpds_preconfig:
  98              	.LFB375:
  89:C:/Users/stapi/OneDrive/Desktop/GD32VW553/V1_MQTT_OK/GD32VW55X_Wifi_BLE_SDK/GD32VW55x_RELEASE_V1.0.2/MSDK/plf/src\gd32vw55x_platform.c ****     /* set HXTAL settle time */
  99              		.loc 1 89 1 is_stmt 1
 100              		.cfi_startproc
 101              	.LVL8:
  91:C:/Users/stapi/OneDrive/Desktop/GD32VW553/V1_MQTT_OK/GD32VW55X_Wifi_BLE_SDK/GD32VW55x_RELEASE_V1.0.2/MSDK/plf/src\gd32vw55x_platform.c ****     PMU_RFPAR  |= (settle_time & PMU_RFPAR_TIM1_PAR);
 102              		.loc 1 91 5
  91:C:/Users/stapi/OneDrive/Desktop/GD32VW553/V1_MQTT_OK/GD32VW55X_Wifi_BLE_SDK/GD32VW55x_RELEASE_V1.0.2/MSDK/plf/src\gd32vw55x_platform.c ****     PMU_RFPAR  |= (settle_time & PMU_RFPAR_TIM1_PAR);
 103              		.loc 1 91 16 is_stmt 0
 104 0000 B7770040 		li	a5,1073770496
 105 0004 D853     		lw	a4,36(a5)
  92:C:/Users/stapi/OneDrive/Desktop/GD32VW553/V1_MQTT_OK/GD32VW55X_Wifi_BLE_SDK/GD32VW55x_RELEASE_V1.0.2/MSDK/plf/src\gd32vw55x_platform.c **** }
 106              		.loc 1 92 32
 107 0006 1375F507 		andi	a0,a0,127
 108              	.LVL9:
  91:C:/Users/stapi/OneDrive/Desktop/GD32VW553/V1_MQTT_OK/GD32VW55X_Wifi_BLE_SDK/GD32VW55x_RELEASE_V1.0.2/MSDK/plf/src\gd32vw55x_platform.c ****     PMU_RFPAR  |= (settle_time & PMU_RFPAR_TIM1_PAR);
 109              		.loc 1 91 16
 110 000a 137707F8 		andi	a4,a4,-128
 111 000e D8D3     		sw	a4,36(a5)
  92:C:/Users/stapi/OneDrive/Desktop/GD32VW553/V1_MQTT_OK/GD32VW55X_Wifi_BLE_SDK/GD32VW55x_RELEASE_V1.0.2/MSDK/plf/src\gd32vw55x_platform.c **** }
 112              		.loc 1 92 5 is_stmt 1
  92:C:/Users/stapi/OneDrive/Desktop/GD32VW553/V1_MQTT_OK/GD32VW55X_Wifi_BLE_SDK/GD32VW55x_RELEASE_V1.0.2/MSDK/plf/src\gd32vw55x_platform.c **** }
 113              		.loc 1 92 16 is_stmt 0
 114 0010 D853     		lw	a4,36(a5)
 115 0012 598D     		or	a0,a0,a4
 116 0014 C8D3     		sw	a0,36(a5)
  93:C:/Users/stapi/OneDrive/Desktop/GD32VW553/V1_MQTT_OK/GD32VW55X_Wifi_BLE_SDK/GD32VW55x_RELEASE_V1.0.2/MSDK/plf/src\gd32vw55x_platform.c **** 
 117              		.loc 1 93 1
 118 0016 8280     		ret
 119              		.cfi_endproc
 120              	.LFE375:
 122              		.section	.text.wifi_lpds_enter,"ax",@progbits
 123              		.align	1
 124              		.globl	wifi_lpds_enter
 126              	wifi_lpds_enter:
 127              	.LFB376:
  96:C:/Users/stapi/OneDrive/Desktop/GD32VW553/V1_MQTT_OK/GD32VW55X_Wifi_BLE_SDK/GD32VW55x_RELEASE_V1.0.2/MSDK/plf/src\gd32vw55x_platform.c ****     PMU_CTL1 |= PMU_CTL1_WIFI_LPDS_ON;
 128              		.loc 1 96 1 is_stmt 1
 129              		.cfi_startproc
  97:C:/Users/stapi/OneDrive/Desktop/GD32VW553/V1_MQTT_OK/GD32VW55X_Wifi_BLE_SDK/GD32VW55x_RELEASE_V1.0.2/MSDK/plf/src\gd32vw55x_platform.c **** }
 130              		.loc 1 97 5
  97:C:/Users/stapi/OneDrive/Desktop/GD32VW553/V1_MQTT_OK/GD32VW55X_Wifi_BLE_SDK/GD32VW55x_RELEASE_V1.0.2/MSDK/plf/src\gd32vw55x_platform.c **** }
 131              		.loc 1 97 14 is_stmt 0
 132 0000 37770040 		li	a4,1073770496
 133 0004 1C47     		lw	a5,8(a4)
 134 0006 93971729 		bseti	a5,a5,17
 135 000a 1CC7     		sw	a5,8(a4)
  98:C:/Users/stapi/OneDrive/Desktop/GD32VW553/V1_MQTT_OK/GD32VW55X_Wifi_BLE_SDK/GD32VW55x_RELEASE_V1.0.2/MSDK/plf/src\gd32vw55x_platform.c **** 
 136              		.loc 1 98 1
 137 000c 8280     		ret
 138              		.cfi_endproc
 139              	.LFE376:
 141              		.section	.text.wifi_lpds_exit,"ax",@progbits
 142              		.align	1
 143              		.globl	wifi_lpds_exit
 145              	wifi_lpds_exit:
 146              	.LFB377:
 101:C:/Users/stapi/OneDrive/Desktop/GD32VW553/V1_MQTT_OK/GD32VW55X_Wifi_BLE_SDK/GD32VW55x_RELEASE_V1.0.2/MSDK/plf/src\gd32vw55x_platform.c ****     PMU_CTL1 &= (~PMU_CTL1_WIFI_LPDS_ON);
 147              		.loc 1 101 1 is_stmt 1
 148              		.cfi_startproc
 102:C:/Users/stapi/OneDrive/Desktop/GD32VW553/V1_MQTT_OK/GD32VW55X_Wifi_BLE_SDK/GD32VW55x_RELEASE_V1.0.2/MSDK/plf/src\gd32vw55x_platform.c ****     while (((PMU_RFCTL & PMU_RFCTL_RF_STATE) >> 16) != 0x08);
 149              		.loc 1 102 5
 102:C:/Users/stapi/OneDrive/Desktop/GD32VW553/V1_MQTT_OK/GD32VW55X_Wifi_BLE_SDK/GD32VW55x_RELEASE_V1.0.2/MSDK/plf/src\gd32vw55x_platform.c ****     while (((PMU_RFCTL & PMU_RFCTL_RF_STATE) >> 16) != 0x08);
 150              		.loc 1 102 14 is_stmt 0
 151 0000 37770040 		li	a4,1073770496
 152 0004 1C47     		lw	a5,8(a4)
 103:C:/Users/stapi/OneDrive/Desktop/GD32VW553/V1_MQTT_OK/GD32VW55X_Wifi_BLE_SDK/GD32VW55x_RELEASE_V1.0.2/MSDK/plf/src\gd32vw55x_platform.c ****     // wait wifi pmu active
 153              		.loc 1 103 14
 154 0006 B7760040 		li	a3,1073770496
 102:C:/Users/stapi/OneDrive/Desktop/GD32VW553/V1_MQTT_OK/GD32VW55X_Wifi_BLE_SDK/GD32VW55x_RELEASE_V1.0.2/MSDK/plf/src\gd32vw55x_platform.c ****     while (((PMU_RFCTL & PMU_RFCTL_RF_STATE) >> 16) != 0x08);
 155              		.loc 1 102 14
 156 000a 93971749 		bclri	a5,a5,17
 157 000e 1CC7     		sw	a5,8(a4)
 103:C:/Users/stapi/OneDrive/Desktop/GD32VW553/V1_MQTT_OK/GD32VW55X_Wifi_BLE_SDK/GD32VW55x_RELEASE_V1.0.2/MSDK/plf/src\gd32vw55x_platform.c ****     // wait wifi pmu active
 158              		.loc 1 103 5 is_stmt 1
 103:C:/Users/stapi/OneDrive/Desktop/GD32VW553/V1_MQTT_OK/GD32VW55X_Wifi_BLE_SDK/GD32VW55x_RELEASE_V1.0.2/MSDK/plf/src\gd32vw55x_platform.c ****     // wait wifi pmu active
 159              		.loc 1 103 11 is_stmt 0
 160 0010 2147     		li	a4,8
 161              	.L12:
 103:C:/Users/stapi/OneDrive/Desktop/GD32VW553/V1_MQTT_OK/GD32VW55X_Wifi_BLE_SDK/GD32VW55x_RELEASE_V1.0.2/MSDK/plf/src\gd32vw55x_platform.c ****     // wait wifi pmu active
 162              		.loc 1 103 61 is_stmt 1 discriminator 1
 103:C:/Users/stapi/OneDrive/Desktop/GD32VW553/V1_MQTT_OK/GD32VW55X_Wifi_BLE_SDK/GD32VW55x_RELEASE_V1.0.2/MSDK/plf/src\gd32vw55x_platform.c ****     // wait wifi pmu active
 163              		.loc 1 103 11 discriminator 1
 103:C:/Users/stapi/OneDrive/Desktop/GD32VW553/V1_MQTT_OK/GD32VW55X_Wifi_BLE_SDK/GD32VW55x_RELEASE_V1.0.2/MSDK/plf/src\gd32vw55x_platform.c ****     // wait wifi pmu active
 164              		.loc 1 103 14 is_stmt 0 discriminator 1
 165 0012 9C52     		lw	a5,32(a3)
 103:C:/Users/stapi/OneDrive/Desktop/GD32VW553/V1_MQTT_OK/GD32VW55X_Wifi_BLE_SDK/GD32VW55x_RELEASE_V1.0.2/MSDK/plf/src\gd32vw55x_platform.c ****     // wait wifi pmu active
 166              		.loc 1 103 46 discriminator 1
 167 0014 C183     		srli	a5,a5,16
 168 0016 BD8B     		andi	a5,a5,15
 103:C:/Users/stapi/OneDrive/Desktop/GD32VW553/V1_MQTT_OK/GD32VW55X_Wifi_BLE_SDK/GD32VW55x_RELEASE_V1.0.2/MSDK/plf/src\gd32vw55x_platform.c ****     // wait wifi pmu active
 169              		.loc 1 103 11 discriminator 1
 170 0018 E39DE7FE 		bne	a5,a4,.L12
 105:C:/Users/stapi/OneDrive/Desktop/GD32VW553/V1_MQTT_OK/GD32VW55X_Wifi_BLE_SDK/GD32VW55x_RELEASE_V1.0.2/MSDK/plf/src\gd32vw55x_platform.c ****     // wait wifi module pmc idle
 171              		.loc 1 105 13
 172 001c 37770040 		li	a4,1073770496
 173              	.L13:
 105:C:/Users/stapi/OneDrive/Desktop/GD32VW553/V1_MQTT_OK/GD32VW55X_Wifi_BLE_SDK/GD32VW55x_RELEASE_V1.0.2/MSDK/plf/src\gd32vw55x_platform.c ****     // wait wifi module pmc idle
 174              		.loc 1 105 65 is_stmt 1 discriminator 1
 105:C:/Users/stapi/OneDrive/Desktop/GD32VW553/V1_MQTT_OK/GD32VW55X_Wifi_BLE_SDK/GD32VW55x_RELEASE_V1.0.2/MSDK/plf/src\gd32vw55x_platform.c ****     // wait wifi module pmc idle
 175              		.loc 1 105 11 discriminator 1
 105:C:/Users/stapi/OneDrive/Desktop/GD32VW553/V1_MQTT_OK/GD32VW55X_Wifi_BLE_SDK/GD32VW55x_RELEASE_V1.0.2/MSDK/plf/src\gd32vw55x_platform.c ****     // wait wifi module pmc idle
 176              		.loc 1 105 13 is_stmt 0 discriminator 1
 177 0020 5C47     		lw	a5,12(a4)
 105:C:/Users/stapi/OneDrive/Desktop/GD32VW553/V1_MQTT_OK/GD32VW55X_Wifi_BLE_SDK/GD32VW55x_RELEASE_V1.0.2/MSDK/plf/src\gd32vw55x_platform.c ****     // wait wifi module pmc idle
 178              		.loc 1 105 21 discriminator 1
 179 0022 A18B     		andi	a5,a5,8
 105:C:/Users/stapi/OneDrive/Desktop/GD32VW553/V1_MQTT_OK/GD32VW55X_Wifi_BLE_SDK/GD32VW55x_RELEASE_V1.0.2/MSDK/plf/src\gd32vw55x_platform.c ****     // wait wifi module pmc idle
 180              		.loc 1 105 11 discriminator 1
 181 0024 F5DF     		beq	a5,zero,.L13
 107:C:/Users/stapi/OneDrive/Desktop/GD32VW553/V1_MQTT_OK/GD32VW55X_Wifi_BLE_SDK/GD32VW55x_RELEASE_V1.0.2/MSDK/plf/src\gd32vw55x_platform.c **** }
 182              		.loc 1 107 14
 183 0026 37470240 		li	a4,1073889280
 184              	.L14:
 107:C:/Users/stapi/OneDrive/Desktop/GD32VW553/V1_MQTT_OK/GD32VW55X_Wifi_BLE_SDK/GD32VW55x_RELEASE_V1.0.2/MSDK/plf/src\gd32vw55x_platform.c **** }
 185              		.loc 1 107 43 is_stmt 1 discriminator 1
 107:C:/Users/stapi/OneDrive/Desktop/GD32VW553/V1_MQTT_OK/GD32VW55X_Wifi_BLE_SDK/GD32VW55x_RELEASE_V1.0.2/MSDK/plf/src\gd32vw55x_platform.c **** }
 186              		.loc 1 107 11 discriminator 1
 107:C:/Users/stapi/OneDrive/Desktop/GD32VW553/V1_MQTT_OK/GD32VW55X_Wifi_BLE_SDK/GD32VW55x_RELEASE_V1.0.2/MSDK/plf/src\gd32vw55x_platform.c **** }
 187              		.loc 1 107 14 is_stmt 0 discriminator 1
 188 002a 8327C792 		lw	a5,-1748(a4)
 107:C:/Users/stapi/OneDrive/Desktop/GD32VW553/V1_MQTT_OK/GD32VW55X_Wifi_BLE_SDK/GD32VW55x_RELEASE_V1.0.2/MSDK/plf/src\gd32vw55x_platform.c **** }
 189              		.loc 1 107 11 discriminator 1
 190 002e E3DE07FE 		bge	a5,zero,.L14
 108:C:/Users/stapi/OneDrive/Desktop/GD32VW553/V1_MQTT_OK/GD32VW55X_Wifi_BLE_SDK/GD32VW55x_RELEASE_V1.0.2/MSDK/plf/src\gd32vw55x_platform.c **** 
 191              		.loc 1 108 1
 192 0032 8280     		ret
 193              		.cfi_endproc
 194              	.LFE377:
 196              		.section	.text.wifi_is_not_idle,"ax",@progbits
 197              		.align	1
 198              		.globl	wifi_is_not_idle
 200              	wifi_is_not_idle:
 201              	.LFB378:
 111:C:/Users/stapi/OneDrive/Desktop/GD32VW553/V1_MQTT_OK/GD32VW55X_Wifi_BLE_SDK/GD32VW55x_RELEASE_V1.0.2/MSDK/plf/src\gd32vw55x_platform.c ****     return (REG32(0x4002392C) & BITS(28, 30)) != BITS(28, 30);
 202              		.loc 1 111 1 is_stmt 1
 203              		.cfi_startproc
 112:C:/Users/stapi/OneDrive/Desktop/GD32VW553/V1_MQTT_OK/GD32VW55X_Wifi_BLE_SDK/GD32VW55x_RELEASE_V1.0.2/MSDK/plf/src\gd32vw55x_platform.c **** }
 204              		.loc 1 112 5
 112:C:/Users/stapi/OneDrive/Desktop/GD32VW553/V1_MQTT_OK/GD32VW55X_Wifi_BLE_SDK/GD32VW55x_RELEASE_V1.0.2/MSDK/plf/src\gd32vw55x_platform.c **** }
 205              		.loc 1 112 13 is_stmt 0
 206 0000 B7470240 		li	a5,1073889280
 207 0004 03A5C792 		lw	a0,-1748(a5)
 112:C:/Users/stapi/OneDrive/Desktop/GD32VW553/V1_MQTT_OK/GD32VW55X_Wifi_BLE_SDK/GD32VW55x_RELEASE_V1.0.2/MSDK/plf/src\gd32vw55x_platform.c **** }
 208              		.loc 1 112 47
 209 0008 B7070070 		li	a5,1879048192
 210 000c 33F5A740 		andn	a0,a5,a0
 113:C:/Users/stapi/OneDrive/Desktop/GD32VW553/V1_MQTT_OK/GD32VW55X_Wifi_BLE_SDK/GD32VW55x_RELEASE_V1.0.2/MSDK/plf/src\gd32vw55x_platform.c **** 
 211              		.loc 1 113 1
 212 0010 3335A000 		snez	a0,a0
 213 0014 8280     		ret
 214              		.cfi_endproc
 215              	.LFE378:
 217              		.section	.text.wifi_hw_is_sleep,"ax",@progbits
 218              		.align	1
 219              		.globl	wifi_hw_is_sleep
 221              	wifi_hw_is_sleep:
 222              	.LFB379:
 116:C:/Users/stapi/OneDrive/Desktop/GD32VW553/V1_MQTT_OK/GD32VW55X_Wifi_BLE_SDK/GD32VW55x_RELEASE_V1.0.2/MSDK/plf/src\gd32vw55x_platform.c **** #ifdef CFG_WLAN_SUPPORT
 223              		.loc 1 116 1 is_stmt 1
 224              		.cfi_startproc
 118:C:/Users/stapi/OneDrive/Desktop/GD32VW553/V1_MQTT_OK/GD32VW55X_Wifi_BLE_SDK/GD32VW55x_RELEASE_V1.0.2/MSDK/plf/src\gd32vw55x_platform.c ****             && ((PMU_CS1 & PMU_CS1_WPS_SLEEP) == PMU_CS1_WPS_SLEEP) // wifi module is sleep
 225              		.loc 1 118 5
 118:C:/Users/stapi/OneDrive/Desktop/GD32VW553/V1_MQTT_OK/GD32VW55X_Wifi_BLE_SDK/GD32VW55x_RELEASE_V1.0.2/MSDK/plf/src\gd32vw55x_platform.c ****             && ((PMU_CS1 & PMU_CS1_WPS_SLEEP) == PMU_CS1_WPS_SLEEP) // wifi module is sleep
 226              		.loc 1 118 15 is_stmt 0
 227 0000 37770040 		li	a4,1073770496
 228 0004 1C53     		lw	a5,32(a4)
 118:C:/Users/stapi/OneDrive/Desktop/GD32VW553/V1_MQTT_OK/GD32VW55X_Wifi_BLE_SDK/GD32VW55x_RELEASE_V1.0.2/MSDK/plf/src\gd32vw55x_platform.c ****             && ((PMU_CS1 & PMU_CS1_WPS_SLEEP) == PMU_CS1_WPS_SLEEP) // wifi module is sleep
 229              		.loc 1 118 25
 230 0006 B7060F00 		li	a3,983040
 119:C:/Users/stapi/OneDrive/Desktop/GD32VW553/V1_MQTT_OK/GD32VW55X_Wifi_BLE_SDK/GD32VW55x_RELEASE_V1.0.2/MSDK/plf/src\gd32vw55x_platform.c ****             );
 231              		.loc 1 119 13
 232 000a 0145     		li	a0,0
 118:C:/Users/stapi/OneDrive/Desktop/GD32VW553/V1_MQTT_OK/GD32VW55X_Wifi_BLE_SDK/GD32VW55x_RELEASE_V1.0.2/MSDK/plf/src\gd32vw55x_platform.c ****             && ((PMU_CS1 & PMU_CS1_WPS_SLEEP) == PMU_CS1_WPS_SLEEP) // wifi module is sleep
 233              		.loc 1 118 25
 234 000c F58F     		and	a5,a5,a3
 119:C:/Users/stapi/OneDrive/Desktop/GD32VW553/V1_MQTT_OK/GD32VW55X_Wifi_BLE_SDK/GD32VW55x_RELEASE_V1.0.2/MSDK/plf/src\gd32vw55x_platform.c ****             );
 235              		.loc 1 119 13
 236 000e 81E7     		bne	a5,zero,.L21
 119:C:/Users/stapi/OneDrive/Desktop/GD32VW553/V1_MQTT_OK/GD32VW55X_Wifi_BLE_SDK/GD32VW55x_RELEASE_V1.0.2/MSDK/plf/src\gd32vw55x_platform.c ****             );
 237              		.loc 1 119 18 discriminator 1
 238 0010 4847     		lw	a0,12(a4)
 119:C:/Users/stapi/OneDrive/Desktop/GD32VW553/V1_MQTT_OK/GD32VW55X_Wifi_BLE_SDK/GD32VW55x_RELEASE_V1.0.2/MSDK/plf/src\gd32vw55x_platform.c ****             );
 239              		.loc 1 119 13 discriminator 1
 240 0012 13552548 		bexti	a0,a0,2
 241              	.L21:
 124:C:/Users/stapi/OneDrive/Desktop/GD32VW553/V1_MQTT_OK/GD32VW55X_Wifi_BLE_SDK/GD32VW55x_RELEASE_V1.0.2/MSDK/plf/src\gd32vw55x_platform.c **** 
 242              		.loc 1 124 1 discriminator 6
 243 0016 8280     		ret
 244              		.cfi_endproc
 245              	.LFE379:
 247              		.section	.text.deep_sleep_enter,"ax",@progbits
 248              		.align	1
 249              		.globl	deep_sleep_enter
 251              	deep_sleep_enter:
 252              	.LFB381:
 152:C:/Users/stapi/OneDrive/Desktop/GD32VW553/V1_MQTT_OK/GD32VW55X_Wifi_BLE_SDK/GD32VW55x_RELEASE_V1.0.2/MSDK/plf/src\gd32vw55x_platform.c ****     exti_init(LOG_USART_RX_PIN_EXTI_LINE, EXTI_INTERRUPT, EXTI_TRIG_RISING);
 253              		.loc 1 152 1 is_stmt 1
 254              		.cfi_startproc
 255              	.LVL10:
 256 0000 17030000 		call	t0,__riscv_save_1
 256      E7020300 
 257              		.cfi_offset 8, -8
 258              		.cfi_offset 1, -4
 259              		.cfi_def_cfa_offset 16
 153:C:/Users/stapi/OneDrive/Desktop/GD32VW553/V1_MQTT_OK/GD32VW55X_Wifi_BLE_SDK/GD32VW55x_RELEASE_V1.0.2/MSDK/plf/src\gd32vw55x_platform.c **** 
 260              		.loc 1 153 5
 152:C:/Users/stapi/OneDrive/Desktop/GD32VW553/V1_MQTT_OK/GD32VW55X_Wifi_BLE_SDK/GD32VW55x_RELEASE_V1.0.2/MSDK/plf/src\gd32vw55x_platform.c ****     exti_init(LOG_USART_RX_PIN_EXTI_LINE, EXTI_INTERRUPT, EXTI_TRIG_RISING);
 261              		.loc 1 152 1 is_stmt 0
 262 0008 2A84     		mv	s0,a0
 153:C:/Users/stapi/OneDrive/Desktop/GD32VW553/V1_MQTT_OK/GD32VW55X_Wifi_BLE_SDK/GD32VW55x_RELEASE_V1.0.2/MSDK/plf/src\gd32vw55x_platform.c **** 
 263              		.loc 1 153 5
 264 000a 0146     		li	a2,0
 265 000c 8145     		li	a1,0
 266 000e 13050008 		li	a0,128
 267              	.LVL11:
 268 0012 97000000 		call	exti_init
 268      E7800000 
 269              	.LVL12:
 158:C:/Users/stapi/OneDrive/Desktop/GD32VW553/V1_MQTT_OK/GD32VW55X_Wifi_BLE_SDK/GD32VW55x_RELEASE_V1.0.2/MSDK/plf/src\gd32vw55x_platform.c **** 
 270              		.loc 1 158 5 is_stmt 1
 271 001a 0146     		li	a2,0
 272 001c 8145     		li	a1,0
 273 001e 37052000 		li	a0,2097152
 274 0022 97000000 		call	exti_init
 274      E7800000 
 275              	.LVL13:
 160:C:/Users/stapi/OneDrive/Desktop/GD32VW553/V1_MQTT_OK/GD32VW55X_Wifi_BLE_SDK/GD32VW55x_RELEASE_V1.0.2/MSDK/plf/src\gd32vw55x_platform.c ****     rtc_wakeup_disable();
 276              		.loc 1 160 5
 277 002a 13050040 		li	a0,1024
 278 002e 97000000 		call	rtc_flag_clear
 278      E7800000 
 279              	.LVL14:
 161:C:/Users/stapi/OneDrive/Desktop/GD32VW553/V1_MQTT_OK/GD32VW55X_Wifi_BLE_SDK/GD32VW55x_RELEASE_V1.0.2/MSDK/plf/src\gd32vw55x_platform.c **** 
 280              		.loc 1 161 5
 281 0036 97000000 		call	rtc_wakeup_disable
 281      E7800000 
 282              	.LVL15:
 166:C:/Users/stapi/OneDrive/Desktop/GD32VW553/V1_MQTT_OK/GD32VW55X_Wifi_BLE_SDK/GD32VW55x_RELEASE_V1.0.2/MSDK/plf/src\gd32vw55x_platform.c **** #endif
 283              		.loc 1 166 5
 284 003e 1545     		li	a0,5
 285 0040 3305A402 		mul	a0,s0,a0
 286              	.LBB44:
 287              	.LBB45:
  77:C:/Users/stapi/OneDrive/Desktop/GD32VW553/V1_MQTT_OK/GD32VW55X_Wifi_BLE_SDK/GD32VW55x_RELEASE_V1.0.2/MSDK/plf/src\gd32vw55x_platform.c ****     rcu_periph_clock_disable(RCU_CAU);
 288              		.loc 1 77 5 is_stmt 0
 289 0044 0564     		li	s0,4096
 290              	.LBE45:
 291              	.LBE44:
 166:C:/Users/stapi/OneDrive/Desktop/GD32VW553/V1_MQTT_OK/GD32VW55X_Wifi_BLE_SDK/GD32VW55x_RELEASE_V1.0.2/MSDK/plf/src\gd32vw55x_platform.c **** #endif
 292              		.loc 1 166 5
 293 0046 33450508 		zext.h	a0,a0
 294 004a 97000000 		call	rtc_wakeup_timer_set
 294      E7800000 
 295              	.LVL16:
 169:C:/Users/stapi/OneDrive/Desktop/GD32VW553/V1_MQTT_OK/GD32VW55X_Wifi_BLE_SDK/GD32VW55x_RELEASE_V1.0.2/MSDK/plf/src\gd32vw55x_platform.c **** 
 296              		.loc 1 169 5 is_stmt 1
 297 0052 97000000 		call	rtc_wakeup_enable
 297      E7800000 
 298              	.LVL17:
 171:C:/Users/stapi/OneDrive/Desktop/GD32VW553/V1_MQTT_OK/GD32VW55X_Wifi_BLE_SDK/GD32VW55x_RELEASE_V1.0.2/MSDK/plf/src\gd32vw55x_platform.c ****     trng_close(0);
 299              		.loc 1 171 5
 300              	.LBB47:
 301              	.LBB46:
  77:C:/Users/stapi/OneDrive/Desktop/GD32VW553/V1_MQTT_OK/GD32VW55X_Wifi_BLE_SDK/GD32VW55x_RELEASE_V1.0.2/MSDK/plf/src\gd32vw55x_platform.c ****     rcu_periph_clock_disable(RCU_CAU);
 302              		.loc 1 77 5
 303 005a 130534D0 		addi	a0,s0,-765
 304 005e 97000000 		call	rcu_periph_clock_disable
 304      E7800000 
 305              	.LVL18:
  78:C:/Users/stapi/OneDrive/Desktop/GD32VW553/V1_MQTT_OK/GD32VW55X_Wifi_BLE_SDK/GD32VW55x_RELEASE_V1.0.2/MSDK/plf/src\gd32vw55x_platform.c ****     rcu_periph_clock_disable(RCU_HAU);
 306              		.loc 1 78 5
 307 0066 130544D0 		addi	a0,s0,-764
 308 006a 97000000 		call	rcu_periph_clock_disable
 308      E7800000 
 309              	.LVL19:
  79:C:/Users/stapi/OneDrive/Desktop/GD32VW553/V1_MQTT_OK/GD32VW55X_Wifi_BLE_SDK/GD32VW55x_RELEASE_V1.0.2/MSDK/plf/src\gd32vw55x_platform.c **** }
 310              		.loc 1 79 5
 311 0072 130554D0 		addi	a0,s0,-763
 312 0076 97000000 		call	rcu_periph_clock_disable
 312      E7800000 
 313              	.LVL20:
 314              	.LBE46:
 315              	.LBE47:
 172:C:/Users/stapi/OneDrive/Desktop/GD32VW553/V1_MQTT_OK/GD32VW55X_Wifi_BLE_SDK/GD32VW55x_RELEASE_V1.0.2/MSDK/plf/src\gd32vw55x_platform.c **** 
 316              		.loc 1 172 5
 317 007e 0145     		li	a0,0
 176:C:/Users/stapi/OneDrive/Desktop/GD32VW553/V1_MQTT_OK/GD32VW55X_Wifi_BLE_SDK/GD32VW55x_RELEASE_V1.0.2/MSDK/plf/src\gd32vw55x_platform.c **** #endif
 318              		.loc 1 176 20 is_stmt 0
 319 0080 37440040 		li	s0,1073758208
 172:C:/Users/stapi/OneDrive/Desktop/GD32VW553/V1_MQTT_OK/GD32VW55X_Wifi_BLE_SDK/GD32VW55x_RELEASE_V1.0.2/MSDK/plf/src\gd32vw55x_platform.c **** 
 320              		.loc 1 172 5
 321 0084 97000000 		call	trng_close
 321      E7800000 
 322              	.LVL21:
 176:C:/Users/stapi/OneDrive/Desktop/GD32VW553/V1_MQTT_OK/GD32VW55X_Wifi_BLE_SDK/GD32VW55x_RELEASE_V1.0.2/MSDK/plf/src\gd32vw55x_platform.c **** #endif
 323              		.loc 1 176 5 is_stmt 1
 176:C:/Users/stapi/OneDrive/Desktop/GD32VW553/V1_MQTT_OK/GD32VW55X_Wifi_BLE_SDK/GD32VW55x_RELEASE_V1.0.2/MSDK/plf/src\gd32vw55x_platform.c **** #endif
 324              		.loc 1 176 20 is_stmt 0
 325 008c 13040440 		addi	s0,s0,1024
 326              	.L24:
 176:C:/Users/stapi/OneDrive/Desktop/GD32VW553/V1_MQTT_OK/GD32VW55X_Wifi_BLE_SDK/GD32VW55x_RELEASE_V1.0.2/MSDK/plf/src\gd32vw55x_platform.c **** #endif
 327              		.loc 1 176 60 is_stmt 1 discriminator 1
 176:C:/Users/stapi/OneDrive/Desktop/GD32VW553/V1_MQTT_OK/GD32VW55X_Wifi_BLE_SDK/GD32VW55x_RELEASE_V1.0.2/MSDK/plf/src\gd32vw55x_platform.c **** #endif
 328              		.loc 1 176 10 discriminator 1
 176:C:/Users/stapi/OneDrive/Desktop/GD32VW553/V1_MQTT_OK/GD32VW55X_Wifi_BLE_SDK/GD32VW55x_RELEASE_V1.0.2/MSDK/plf/src\gd32vw55x_platform.c **** #endif
 329              		.loc 1 176 20 is_stmt 0 discriminator 1
 330 0090 93056070 		li	a1,1798
 331 0094 2285     		mv	a0,s0
 332 0096 97000000 		call	usart_flag_get
 332      E7800000 
 333              	.LVL22:
 176:C:/Users/stapi/OneDrive/Desktop/GD32VW553/V1_MQTT_OK/GD32VW55X_Wifi_BLE_SDK/GD32VW55x_RELEASE_V1.0.2/MSDK/plf/src\gd32vw55x_platform.c **** #endif
 334              		.loc 1 176 10 discriminator 1
 335 009e 6DD9     		beq	a0,zero,.L24
 189:C:/Users/stapi/OneDrive/Desktop/GD32VW553/V1_MQTT_OK/GD32VW55X_Wifi_BLE_SDK/GD32VW55x_RELEASE_V1.0.2/MSDK/plf/src\gd32vw55x_platform.c **** }
 336              		.loc 1 189 5 is_stmt 1
 337 00a0 0146     		li	a2,0
 338 00a2 B7050C00 		li	a1,786432
 339 00a6 0545     		li	a0,1
 340 00a8 97000000 		call	pmu_to_deepsleepmode
 340      E7800000 
 341              	.LVL23:
 190:C:/Users/stapi/OneDrive/Desktop/GD32VW553/V1_MQTT_OK/GD32VW55X_Wifi_BLE_SDK/GD32VW55x_RELEASE_V1.0.2/MSDK/plf/src\gd32vw55x_platform.c **** 
 342              		.loc 1 190 1 is_stmt 0
 343 00b0 17030000 		tail	__riscv_restore_1
 343      67000300 
 344              		.cfi_restore 8
 345              		.cfi_restore 1
 346              		.cfi_def_cfa_offset 0
 347              		.cfi_endproc
 348              	.LFE381:
 350              		.section	.text.deep_sleep_exit,"ax",@progbits
 351              		.align	1
 352              		.globl	deep_sleep_exit
 354              	deep_sleep_exit:
 355              	.LFB382:
 199:C:/Users/stapi/OneDrive/Desktop/GD32VW553/V1_MQTT_OK/GD32VW55X_Wifi_BLE_SDK/GD32VW55x_RELEASE_V1.0.2/MSDK/plf/src\gd32vw55x_platform.c ****     GLOBAL_INT_STOP();
 356              		.loc 1 199 1 is_stmt 1
 357              		.cfi_startproc
 358 0000 17030000 		call	t0,__riscv_save_1
 358      E7020300 
 359              		.cfi_offset 8, -8
 360              		.cfi_offset 1, -4
 361              		.cfi_def_cfa_offset 16
 200:C:/Users/stapi/OneDrive/Desktop/GD32VW553/V1_MQTT_OK/GD32VW55X_Wifi_BLE_SDK/GD32VW55x_RELEASE_V1.0.2/MSDK/plf/src\gd32vw55x_platform.c ****     if (rcu_system_clock_source_get() != RCU_SCSS_PLLDIG)
 362              		.loc 1 200 5
 363              	.LBB48:
 200:C:/Users/stapi/OneDrive/Desktop/GD32VW553/V1_MQTT_OK/GD32VW55X_Wifi_BLE_SDK/GD32VW55x_RELEASE_V1.0.2/MSDK/plf/src\gd32vw55x_platform.c ****     if (rcu_system_clock_source_get() != RCU_SCSS_PLLDIG)
 364              		.loc 1 200 5
 200:C:/Users/stapi/OneDrive/Desktop/GD32VW553/V1_MQTT_OK/GD32VW55X_Wifi_BLE_SDK/GD32VW55x_RELEASE_V1.0.2/MSDK/plf/src\gd32vw55x_platform.c ****     if (rcu_system_clock_source_get() != RCU_SCSS_PLLDIG)
 365              		.loc 1 200 5
 366              	 #APP
 367              	# 200 "C:/Users/stapi/OneDrive/Desktop/GD32VW553/V1_MQTT_OK/GD32VW55X_Wifi_BLE_SDK/GD32VW55x_RELEAS
 368              		csrrci a5, mstatus, 8
 369              	# 0 "" 2
 370              	.LVL24:
 371              	 #NO_APP
 372              	.LBE48:
 200:C:/Users/stapi/OneDrive/Desktop/GD32VW553/V1_MQTT_OK/GD32VW55X_Wifi_BLE_SDK/GD32VW55x_RELEASE_V1.0.2/MSDK/plf/src\gd32vw55x_platform.c ****     if (rcu_system_clock_source_get() != RCU_SCSS_PLLDIG)
 373              		.loc 1 200 5
 201:C:/Users/stapi/OneDrive/Desktop/GD32VW553/V1_MQTT_OK/GD32VW55X_Wifi_BLE_SDK/GD32VW55x_RELEASE_V1.0.2/MSDK/plf/src\gd32vw55x_platform.c ****         system_clock_config();
 374              		.loc 1 201 5
 201:C:/Users/stapi/OneDrive/Desktop/GD32VW553/V1_MQTT_OK/GD32VW55X_Wifi_BLE_SDK/GD32VW55x_RELEASE_V1.0.2/MSDK/plf/src\gd32vw55x_platform.c ****         system_clock_config();
 375              		.loc 1 201 9 is_stmt 0
 376 000c 97000000 		call	rcu_system_clock_source_get
 376      E7800000 
 377              	.LVL25:
 201:C:/Users/stapi/OneDrive/Desktop/GD32VW553/V1_MQTT_OK/GD32VW55X_Wifi_BLE_SDK/GD32VW55x_RELEASE_V1.0.2/MSDK/plf/src\gd32vw55x_platform.c ****         system_clock_config();
 378              		.loc 1 201 8
 379 0014 A147     		li	a5,8
 380 0016 6306F500 		beq	a0,a5,.L29
 202:C:/Users/stapi/OneDrive/Desktop/GD32VW553/V1_MQTT_OK/GD32VW55X_Wifi_BLE_SDK/GD32VW55x_RELEASE_V1.0.2/MSDK/plf/src\gd32vw55x_platform.c ****     GLOBAL_INT_START();
 381              		.loc 1 202 9 is_stmt 1
 382 001a 97000000 		call	system_clock_config
 382      E7800000 
 383              	.LVL26:
 384              	.L29:
 203:C:/Users/stapi/OneDrive/Desktop/GD32VW553/V1_MQTT_OK/GD32VW55X_Wifi_BLE_SDK/GD32VW55x_RELEASE_V1.0.2/MSDK/plf/src\gd32vw55x_platform.c **** 
 385              		.loc 1 203 5
 386              	.LBB49:
 203:C:/Users/stapi/OneDrive/Desktop/GD32VW553/V1_MQTT_OK/GD32VW55X_Wifi_BLE_SDK/GD32VW55x_RELEASE_V1.0.2/MSDK/plf/src\gd32vw55x_platform.c **** 
 387              		.loc 1 203 5
 203:C:/Users/stapi/OneDrive/Desktop/GD32VW553/V1_MQTT_OK/GD32VW55X_Wifi_BLE_SDK/GD32VW55x_RELEASE_V1.0.2/MSDK/plf/src\gd32vw55x_platform.c **** 
 388              		.loc 1 203 5
 389              	 #APP
 390              	# 203 "C:/Users/stapi/OneDrive/Desktop/GD32VW553/V1_MQTT_OK/GD32VW55X_Wifi_BLE_SDK/GD32VW55x_RELEAS
 391              		csrrsi a5, mstatus, 8
 392              	# 0 "" 2
 393              	.LVL27:
 394              	 #NO_APP
 395              	.LBE49:
 203:C:/Users/stapi/OneDrive/Desktop/GD32VW553/V1_MQTT_OK/GD32VW55X_Wifi_BLE_SDK/GD32VW55x_RELEASE_V1.0.2/MSDK/plf/src\gd32vw55x_platform.c **** 
 396              		.loc 1 203 5
 205:C:/Users/stapi/OneDrive/Desktop/GD32VW553/V1_MQTT_OK/GD32VW55X_Wifi_BLE_SDK/GD32VW55x_RELEASE_V1.0.2/MSDK/plf/src\gd32vw55x_platform.c ****     // Wifi module clear exit by self
 397              		.loc 1 205 5
 398 0026 13050008 		li	a0,128
 399 002a 97000000 		call	exti_line_clear
 399      E7800000 
 400              	.LVL28:
 208:C:/Users/stapi/OneDrive/Desktop/GD32VW553/V1_MQTT_OK/GD32VW55X_Wifi_BLE_SDK/GD32VW55x_RELEASE_V1.0.2/MSDK/plf/src\gd32vw55x_platform.c **** 
 401              		.loc 1 208 5
 402 0032 37052000 		li	a0,2097152
 403              	.LBB50:
 404              	.LBB51:
  70:C:/Users/stapi/OneDrive/Desktop/GD32VW553/V1_MQTT_OK/GD32VW55X_Wifi_BLE_SDK/GD32VW55x_RELEASE_V1.0.2/MSDK/plf/src\gd32vw55x_platform.c ****     rcu_periph_clock_enable(RCU_CAU);
 405              		.loc 1 70 5 is_stmt 0
 406 0036 0564     		li	s0,4096
 407              	.LBE51:
 408              	.LBE50:
 208:C:/Users/stapi/OneDrive/Desktop/GD32VW553/V1_MQTT_OK/GD32VW55X_Wifi_BLE_SDK/GD32VW55x_RELEASE_V1.0.2/MSDK/plf/src\gd32vw55x_platform.c **** 
 409              		.loc 1 208 5
 410 0038 97000000 		call	exti_line_clear
 410      E7800000 
 411              	.LVL29:
 210:C:/Users/stapi/OneDrive/Desktop/GD32VW553/V1_MQTT_OK/GD32VW55X_Wifi_BLE_SDK/GD32VW55x_RELEASE_V1.0.2/MSDK/plf/src\gd32vw55x_platform.c **** 
 412              		.loc 1 210 5 is_stmt 1
 413              	.LBB53:
 414              	.LBB52:
  70:C:/Users/stapi/OneDrive/Desktop/GD32VW553/V1_MQTT_OK/GD32VW55X_Wifi_BLE_SDK/GD32VW55x_RELEASE_V1.0.2/MSDK/plf/src\gd32vw55x_platform.c ****     rcu_periph_clock_enable(RCU_CAU);
 415              		.loc 1 70 5
 416 0040 130534D0 		addi	a0,s0,-765
 417 0044 97000000 		call	rcu_periph_clock_enable
 417      E7800000 
 418              	.LVL30:
  71:C:/Users/stapi/OneDrive/Desktop/GD32VW553/V1_MQTT_OK/GD32VW55X_Wifi_BLE_SDK/GD32VW55x_RELEASE_V1.0.2/MSDK/plf/src\gd32vw55x_platform.c ****     rcu_periph_clock_enable(RCU_HAU);
 419              		.loc 1 71 5
 420 004c 130544D0 		addi	a0,s0,-764
 421 0050 97000000 		call	rcu_periph_clock_enable
 421      E7800000 
 422              	.LVL31:
  72:C:/Users/stapi/OneDrive/Desktop/GD32VW553/V1_MQTT_OK/GD32VW55X_Wifi_BLE_SDK/GD32VW55x_RELEASE_V1.0.2/MSDK/plf/src\gd32vw55x_platform.c **** }
 423              		.loc 1 72 5
 424 0058 130554D0 		addi	a0,s0,-763
 425 005c 97000000 		call	rcu_periph_clock_enable
 425      E7800000 
 426              	.LVL32:
 427              	.LBE52:
 428              	.LBE53:
 212:C:/Users/stapi/OneDrive/Desktop/GD32VW553/V1_MQTT_OK/GD32VW55X_Wifi_BLE_SDK/GD32VW55x_RELEASE_V1.0.2/MSDK/plf/src\gd32vw55x_platform.c ****         rtc_flag_clear(RTC_STAT_WTF);
 429              		.loc 1 212 5
 212:C:/Users/stapi/OneDrive/Desktop/GD32VW553/V1_MQTT_OK/GD32VW55X_Wifi_BLE_SDK/GD32VW55x_RELEASE_V1.0.2/MSDK/plf/src\gd32vw55x_platform.c ****         rtc_flag_clear(RTC_STAT_WTF);
 430              		.loc 1 212 17 is_stmt 0
 431 0064 13050040 		li	a0,1024
 432 0068 97000000 		call	rtc_flag_get
 432      E7800000 
 433              	.LVL33:
 212:C:/Users/stapi/OneDrive/Desktop/GD32VW553/V1_MQTT_OK/GD32VW55X_Wifi_BLE_SDK/GD32VW55x_RELEASE_V1.0.2/MSDK/plf/src\gd32vw55x_platform.c ****         rtc_flag_clear(RTC_STAT_WTF);
 434              		.loc 1 212 7
 435 0070 19C5     		beq	a0,zero,.L28
 213:C:/Users/stapi/OneDrive/Desktop/GD32VW553/V1_MQTT_OK/GD32VW55X_Wifi_BLE_SDK/GD32VW55x_RELEASE_V1.0.2/MSDK/plf/src\gd32vw55x_platform.c ****     }
 436              		.loc 1 213 9 is_stmt 1
 437 0072 13050040 		li	a0,1024
 438 0076 97000000 		call	rtc_flag_clear
 438      E7800000 
 439              	.LVL34:
 440              	.L28:
 215:C:/Users/stapi/OneDrive/Desktop/GD32VW553/V1_MQTT_OK/GD32VW55X_Wifi_BLE_SDK/GD32VW55x_RELEASE_V1.0.2/MSDK/plf/src\gd32vw55x_platform.c **** 
 441              		.loc 1 215 1 is_stmt 0
 442 007e 17030000 		tail	__riscv_restore_1
 442      67000300 
 443              		.cfi_restore 8
 444              		.cfi_restore 1
 445              		.cfi_def_cfa_offset 0
 446              		.cfi_endproc
 447              	.LFE382:
 449              		.section	.text.wlan_exti_enter,"ax",@progbits
 450              		.align	1
 451              		.globl	wlan_exti_enter
 453              	wlan_exti_enter:
 454              	.LFB383:
 224:C:/Users/stapi/OneDrive/Desktop/GD32VW553/V1_MQTT_OK/GD32VW55X_Wifi_BLE_SDK/GD32VW55x_RELEASE_V1.0.2/MSDK/plf/src\gd32vw55x_platform.c **** #ifdef CFG_LPS
 455              		.loc 1 224 1 is_stmt 1
 456              		.cfi_startproc
 226:C:/Users/stapi/OneDrive/Desktop/GD32VW553/V1_MQTT_OK/GD32VW55X_Wifi_BLE_SDK/GD32VW55x_RELEASE_V1.0.2/MSDK/plf/src\gd32vw55x_platform.c **** #endif
 457              		.loc 1 226 5
 458 0000 0146     		li	a2,0
 459 0002 8145     		li	a1,0
 460 0004 37050800 		li	a0,524288
 461 0008 17030000 		tail	exti_init
 461      67000300 
 462              	.LVL35:
 463              		.cfi_endproc
 464              	.LFE383:
 466              		.section	.text.wlan_exti_exit,"ax",@progbits
 467              		.align	1
 468              		.globl	wlan_exti_exit
 470              	wlan_exti_exit:
 471              	.LFB384:
 237:C:/Users/stapi/OneDrive/Desktop/GD32VW553/V1_MQTT_OK/GD32VW55X_Wifi_BLE_SDK/GD32VW55x_RELEASE_V1.0.2/MSDK/plf/src\gd32vw55x_platform.c **** #ifdef CFG_LPS
 472              		.loc 1 237 1
 473              		.cfi_startproc
 239:C:/Users/stapi/OneDrive/Desktop/GD32VW553/V1_MQTT_OK/GD32VW55X_Wifi_BLE_SDK/GD32VW55x_RELEASE_V1.0.2/MSDK/plf/src\gd32vw55x_platform.c **** #endif
 474              		.loc 1 239 5
 475 0000 37050800 		li	a0,524288
 476 0004 17030000 		tail	exti_line_clear
 476      67000300 
 477              	.LVL36:
 478              		.cfi_endproc
 479              	.LFE384:
 481              		.section	.text.ble_exti_enter,"ax",@progbits
 482              		.align	1
 483              		.globl	ble_exti_enter
 485              	ble_exti_enter:
 486              	.LFB385:
 247:C:/Users/stapi/OneDrive/Desktop/GD32VW553/V1_MQTT_OK/GD32VW55X_Wifi_BLE_SDK/GD32VW55x_RELEASE_V1.0.2/MSDK/plf/src\gd32vw55x_platform.c ****     exti_init(BLE_WAKEUP_EXTI_LINE, EXTI_INTERRUPT, EXTI_TRIG_RISING);
 487              		.loc 1 247 1
 488              		.cfi_startproc
 248:C:/Users/stapi/OneDrive/Desktop/GD32VW553/V1_MQTT_OK/GD32VW55X_Wifi_BLE_SDK/GD32VW55x_RELEASE_V1.0.2/MSDK/plf/src\gd32vw55x_platform.c **** }
 489              		.loc 1 248 5
 490 0000 0146     		li	a2,0
 491 0002 8145     		li	a1,0
 492 0004 37050001 		li	a0,16777216
 493 0008 17030000 		tail	exti_init
 493      67000300 
 494              	.LVL37:
 495              		.cfi_endproc
 496              	.LFE385:
 498              		.section	.text.ble_exti_exit,"ax",@progbits
 499              		.align	1
 500              		.globl	ble_exti_exit
 502              	ble_exti_exit:
 503              	.LFB386:
 255:C:/Users/stapi/OneDrive/Desktop/GD32VW553/V1_MQTT_OK/GD32VW55X_Wifi_BLE_SDK/GD32VW55x_RELEASE_V1.0.2/MSDK/plf/src\gd32vw55x_platform.c ****     exti_line_clear(BLE_WAKEUP_EXTI_LINE);
 504              		.loc 1 255 1
 505              		.cfi_startproc
 256:C:/Users/stapi/OneDrive/Desktop/GD32VW553/V1_MQTT_OK/GD32VW55X_Wifi_BLE_SDK/GD32VW55x_RELEASE_V1.0.2/MSDK/plf/src\gd32vw55x_platform.c **** }
 506              		.loc 1 256 5
 507 0000 37050001 		li	a0,16777216
 508 0004 17030000 		tail	exti_line_clear
 508      67000300 
 509              	.LVL38:
 510              		.cfi_endproc
 511              	.LFE386:
 513              		.section	.text.ble_pmu_config,"ax",@progbits
 514              		.align	1
 515              		.globl	ble_pmu_config
 517              	ble_pmu_config:
 518              	.LFB387:
 260:C:/Users/stapi/OneDrive/Desktop/GD32VW553/V1_MQTT_OK/GD32VW55X_Wifi_BLE_SDK/GD32VW55x_RELEASE_V1.0.2/MSDK/plf/src\gd32vw55x_platform.c ****     if (enable) {
 519              		.loc 1 260 1
 520              		.cfi_startproc
 521              	.LVL39:
 522 0000 17030000 		call	t0,__riscv_save_1
 522      E7020300 
 523              		.cfi_offset 8, -8
 524              		.cfi_offset 1, -4
 525              		.cfi_def_cfa_offset 16
 261:C:/Users/stapi/OneDrive/Desktop/GD32VW553/V1_MQTT_OK/GD32VW55X_Wifi_BLE_SDK/GD32VW55x_RELEASE_V1.0.2/MSDK/plf/src\gd32vw55x_platform.c ****         /* if ble is sleep, config power on */
 526              		.loc 1 261 5
 261:C:/Users/stapi/OneDrive/Desktop/GD32VW553/V1_MQTT_OK/GD32VW55X_Wifi_BLE_SDK/GD32VW55x_RELEASE_V1.0.2/MSDK/plf/src\gd32vw55x_platform.c ****         /* if ble is sleep, config power on */
 527              		.loc 1 261 8 is_stmt 0
 528 0008 09C9     		beq	a0,zero,.L44
 529 000a 97000000 		call	ble_pmu_config.part.0
 529      E7800000 
 530              	.LVL40:
 531              	.L43:
 532              		.loc 1 274 1
 533 0012 17030000 		tail	__riscv_restore_1
 533      67000300 
 534              		.cfi_remember_state
 535              		.cfi_restore 8
 536              		.cfi_restore 1
 537              		.cfi_def_cfa_offset 0
 538              	.LVL41:
 539              	.L44:
 540              		.cfi_restore_state
 269:C:/Users/stapi/OneDrive/Desktop/GD32VW553/V1_MQTT_OK/GD32VW55X_Wifi_BLE_SDK/GD32VW55x_RELEASE_V1.0.2/MSDK/plf/src\gd32vw55x_platform.c ****             pmu_ble_control(PMU_BLE_SLEEP);
 541              		.loc 1 269 9 is_stmt 1
 269:C:/Users/stapi/OneDrive/Desktop/GD32VW553/V1_MQTT_OK/GD32VW55X_Wifi_BLE_SDK/GD32VW55x_RELEASE_V1.0.2/MSDK/plf/src\gd32vw55x_platform.c ****             pmu_ble_control(PMU_BLE_SLEEP);
 542              		.loc 1 269 13 is_stmt 0
 543 001a 37050280 		li	a0,-2147352576
 544              	.LVL42:
 545 001e 97000000 		call	pmu_flag_get
 545      E7800000 
 546              	.LVL43:
 269:C:/Users/stapi/OneDrive/Desktop/GD32VW553/V1_MQTT_OK/GD32VW55X_Wifi_BLE_SDK/GD32VW55x_RELEASE_V1.0.2/MSDK/plf/src\gd32vw55x_platform.c ****             pmu_ble_control(PMU_BLE_SLEEP);
 547              		.loc 1 269 12
 548 0026 8547     		li	a5,1
 549 0028 6318F500 		bne	a0,a5,.L46
 270:C:/Users/stapi/OneDrive/Desktop/GD32VW553/V1_MQTT_OK/GD32VW55X_Wifi_BLE_SDK/GD32VW55x_RELEASE_V1.0.2/MSDK/plf/src\gd32vw55x_platform.c ****         /* wait sleep */
 550              		.loc 1 270 13 is_stmt 1
 551 002c 37058000 		li	a0,8388608
 552 0030 97000000 		call	pmu_ble_control
 552      E7800000 
 553              	.LVL44:
 554              	.L46:
 272:C:/Users/stapi/OneDrive/Desktop/GD32VW553/V1_MQTT_OK/GD32VW55X_Wifi_BLE_SDK/GD32VW55x_RELEASE_V1.0.2/MSDK/plf/src\gd32vw55x_platform.c ****     }
 555              		.loc 1 272 15 is_stmt 0 discriminator 1
 556 0038 0544     		li	s0,1
 557              	.L47:
 272:C:/Users/stapi/OneDrive/Desktop/GD32VW553/V1_MQTT_OK/GD32VW55X_Wifi_BLE_SDK/GD32VW55x_RELEASE_V1.0.2/MSDK/plf/src\gd32vw55x_platform.c ****     }
 558              		.loc 1 272 56 is_stmt 1 discriminator 1
 272:C:/Users/stapi/OneDrive/Desktop/GD32VW553/V1_MQTT_OK/GD32VW55X_Wifi_BLE_SDK/GD32VW55x_RELEASE_V1.0.2/MSDK/plf/src\gd32vw55x_platform.c ****     }
 559              		.loc 1 272 15 discriminator 1
 272:C:/Users/stapi/OneDrive/Desktop/GD32VW553/V1_MQTT_OK/GD32VW55X_Wifi_BLE_SDK/GD32VW55x_RELEASE_V1.0.2/MSDK/plf/src\gd32vw55x_platform.c ****     }
 560              		.loc 1 272 16 is_stmt 0 discriminator 1
 561 003a 37050180 		li	a0,-2147418112
 562 003e 97000000 		call	pmu_flag_get
 562      E7800000 
 563              	.LVL45:
 272:C:/Users/stapi/OneDrive/Desktop/GD32VW553/V1_MQTT_OK/GD32VW55X_Wifi_BLE_SDK/GD32VW55x_RELEASE_V1.0.2/MSDK/plf/src\gd32vw55x_platform.c ****     }
 564              		.loc 1 272 15 discriminator 1
 565 0046 E31A85FE 		bne	a0,s0,.L47
 566 004a E1B7     		j	.L43
 567              		.cfi_endproc
 568              	.LFE387:
 570              		.section	.text.ble_wait_pmu_on,"ax",@progbits
 571              		.align	1
 572              		.globl	ble_wait_pmu_on
 574              	ble_wait_pmu_on:
 575              	.LFB388:
 275:C:/Users/stapi/OneDrive/Desktop/GD32VW553/V1_MQTT_OK/GD32VW55X_Wifi_BLE_SDK/GD32VW55x_RELEASE_V1.0.2/MSDK/plf/src\gd32vw55x_platform.c **** 
 276:C:/Users/stapi/OneDrive/Desktop/GD32VW553/V1_MQTT_OK/GD32VW55X_Wifi_BLE_SDK/GD32VW55x_RELEASE_V1.0.2/MSDK/plf/src\gd32vw55x_platform.c **** void ble_wait_pmu_on(uint32_t timeout_ms)
 277:C:/Users/stapi/OneDrive/Desktop/GD32VW553/V1_MQTT_OK/GD32VW55X_Wifi_BLE_SDK/GD32VW55x_RELEASE_V1.0.2/MSDK/plf/src\gd32vw55x_platform.c **** {
 576              		.loc 1 277 1 is_stmt 1
 577              		.cfi_startproc
 578              	.LVL46:
 579 0000 17030000 		call	t0,__riscv_save_3
 579      E7020300 
 580              		.cfi_offset 18, -16
 581              		.cfi_offset 9, -12
 582              		.cfi_offset 8, -8
 583              		.cfi_offset 1, -4
 584              		.cfi_def_cfa_offset 16
 278:C:/Users/stapi/OneDrive/Desktop/GD32VW553/V1_MQTT_OK/GD32VW55X_Wifi_BLE_SDK/GD32VW55x_RELEASE_V1.0.2/MSDK/plf/src\gd32vw55x_platform.c ****     uint64_t start;
 585              		.loc 1 278 5
 279:C:/Users/stapi/OneDrive/Desktop/GD32VW553/V1_MQTT_OK/GD32VW55X_Wifi_BLE_SDK/GD32VW55x_RELEASE_V1.0.2/MSDK/plf/src\gd32vw55x_platform.c **** 
 280:C:/Users/stapi/OneDrive/Desktop/GD32VW553/V1_MQTT_OK/GD32VW55X_Wifi_BLE_SDK/GD32VW55x_RELEASE_V1.0.2/MSDK/plf/src\gd32vw55x_platform.c ****     if (timeout_ms > 0) {
 586              		.loc 1 280 5
 587 0008 0544     		li	s0,1
 588              		.loc 1 280 8 is_stmt 0
 589 000a 39C5     		beq	a0,zero,.L51
 590 000c AA84     		mv	s1,a0
 281:C:/Users/stapi/OneDrive/Desktop/GD32VW553/V1_MQTT_OK/GD32VW55X_Wifi_BLE_SDK/GD32VW55x_RELEASE_V1.0.2/MSDK/plf/src\gd32vw55x_platform.c ****         start = get_sys_local_time_us();
 591              		.loc 1 281 9 is_stmt 1
 282:C:/Users/stapi/OneDrive/Desktop/GD32VW553/V1_MQTT_OK/GD32VW55X_Wifi_BLE_SDK/GD32VW55x_RELEASE_V1.0.2/MSDK/plf/src\gd32vw55x_platform.c ****         while (pmu_flag_get(PMU_FLAG_BLE_ACTIVE) != SET && (get_sys_local_time_us() < start + timeo
 592              		.loc 1 282 106 is_stmt 0
 593 000e 1304803E 		li	s0,1000
 594 0012 B3848402 		mul	s1,s1,s0
 281:C:/Users/stapi/OneDrive/Desktop/GD32VW553/V1_MQTT_OK/GD32VW55X_Wifi_BLE_SDK/GD32VW55x_RELEASE_V1.0.2/MSDK/plf/src\gd32vw55x_platform.c ****         start = get_sys_local_time_us();
 595              		.loc 1 281 17
 596 0016 97000000 		call	get_sys_local_time_us
 596      E7800000 
 597              	.LVL47:
 598              		.loc 1 282 9 is_stmt 1
 599              		.loc 1 282 93 is_stmt 0
 600 001e 3389A400 		add	s2,s1,a0
 601 0022 B3349900 		sltu	s1,s2,s1
 602 0026 3384B400 		add	s0,s1,a1
 603              		.loc 1 282 15
 604 002a 8544     		li	s1,1
 605              	.LVL48:
 606              	.L58:
 607              		.loc 1 282 114 is_stmt 1 discriminator 2
 608              		.loc 1 282 15 discriminator 2
 609              		.loc 1 282 16 is_stmt 0 discriminator 2
 610 002c 37050280 		li	a0,-2147352576
 611 0030 97000000 		call	pmu_flag_get
 611      E7800000 
 612              	.LVL49:
 613              		.loc 1 282 15 discriminator 2
 614 0038 630C9500 		beq	a0,s1,.L50
 615              		.loc 1 282 61 discriminator 1
 616 003c 97000000 		call	get_sys_local_time_us
 616      E7800000 
 617              	.LVL50:
 618              		.loc 1 282 57 discriminator 1
 619 0044 E3E485FE 		bgtu	s0,a1,.L58
 620 0048 6314B400 		bne	s0,a1,.L50
 621 004c E36025FF 		bgtu	s2,a0,.L58
 622              	.L50:
 283:C:/Users/stapi/OneDrive/Desktop/GD32VW553/V1_MQTT_OK/GD32VW55X_Wifi_BLE_SDK/GD32VW55x_RELEASE_V1.0.2/MSDK/plf/src\gd32vw55x_platform.c ****     } else {
 284:C:/Users/stapi/OneDrive/Desktop/GD32VW553/V1_MQTT_OK/GD32VW55X_Wifi_BLE_SDK/GD32VW55x_RELEASE_V1.0.2/MSDK/plf/src\gd32vw55x_platform.c ****         while (pmu_flag_get(PMU_FLAG_BLE_ACTIVE) != SET);
 285:C:/Users/stapi/OneDrive/Desktop/GD32VW553/V1_MQTT_OK/GD32VW55X_Wifi_BLE_SDK/GD32VW55x_RELEASE_V1.0.2/MSDK/plf/src\gd32vw55x_platform.c ****     }
 286:C:/Users/stapi/OneDrive/Desktop/GD32VW553/V1_MQTT_OK/GD32VW55X_Wifi_BLE_SDK/GD32VW55x_RELEASE_V1.0.2/MSDK/plf/src\gd32vw55x_platform.c **** }
 623              		.loc 1 286 1
 624 0050 17030000 		tail	__riscv_restore_3
 624      67000300 
 625              		.cfi_remember_state
 626              		.cfi_restore 18
 627              		.cfi_restore 9
 628              		.cfi_restore 8
 629              		.cfi_restore 1
 630              		.cfi_def_cfa_offset 0
 631              	.L51:
 632              		.cfi_restore_state
 284:C:/Users/stapi/OneDrive/Desktop/GD32VW553/V1_MQTT_OK/GD32VW55X_Wifi_BLE_SDK/GD32VW55x_RELEASE_V1.0.2/MSDK/plf/src\gd32vw55x_platform.c ****     }
 633              		.loc 1 284 57 is_stmt 1 discriminator 1
 284:C:/Users/stapi/OneDrive/Desktop/GD32VW553/V1_MQTT_OK/GD32VW55X_Wifi_BLE_SDK/GD32VW55x_RELEASE_V1.0.2/MSDK/plf/src\gd32vw55x_platform.c ****     }
 634              		.loc 1 284 15 discriminator 1
 284:C:/Users/stapi/OneDrive/Desktop/GD32VW553/V1_MQTT_OK/GD32VW55X_Wifi_BLE_SDK/GD32VW55x_RELEASE_V1.0.2/MSDK/plf/src\gd32vw55x_platform.c ****     }
 635              		.loc 1 284 16 is_stmt 0 discriminator 1
 636 0058 37050280 		li	a0,-2147352576
 637 005c 97000000 		call	pmu_flag_get
 637      E7800000 
 638              	.LVL51:
 284:C:/Users/stapi/OneDrive/Desktop/GD32VW553/V1_MQTT_OK/GD32VW55X_Wifi_BLE_SDK/GD32VW55x_RELEASE_V1.0.2/MSDK/plf/src\gd32vw55x_platform.c ****     }
 639              		.loc 1 284 15 discriminator 1
 640 0064 E31A85FE 		bne	a0,s0,.L51
 641 0068 E5B7     		j	.L50
 642              		.cfi_endproc
 643              	.LFE388:
 645              		.section	.text.ble_rcc_config,"ax",@progbits
 646              		.align	1
 647              		.globl	ble_rcc_config
 649              	ble_rcc_config:
 650              	.LFB389:
 287:C:/Users/stapi/OneDrive/Desktop/GD32VW553/V1_MQTT_OK/GD32VW55X_Wifi_BLE_SDK/GD32VW55x_RELEASE_V1.0.2/MSDK/plf/src\gd32vw55x_platform.c **** 
 288:C:/Users/stapi/OneDrive/Desktop/GD32VW553/V1_MQTT_OK/GD32VW55X_Wifi_BLE_SDK/GD32VW55x_RELEASE_V1.0.2/MSDK/plf/src\gd32vw55x_platform.c **** void ble_rcc_config(void)
 289:C:/Users/stapi/OneDrive/Desktop/GD32VW553/V1_MQTT_OK/GD32VW55X_Wifi_BLE_SDK/GD32VW55x_RELEASE_V1.0.2/MSDK/plf/src\gd32vw55x_platform.c **** {
 651              		.loc 1 289 1 is_stmt 1
 652              		.cfi_startproc
 653 0000 17030000 		call	t0,__riscv_save_0
 653      E7020300 
 654              		.cfi_offset 1, -4
 655              		.cfi_def_cfa_offset 16
 290:C:/Users/stapi/OneDrive/Desktop/GD32VW553/V1_MQTT_OK/GD32VW55X_Wifi_BLE_SDK/GD32VW55x_RELEASE_V1.0.2/MSDK/plf/src\gd32vw55x_platform.c ****     /* ble enable */
 291:C:/Users/stapi/OneDrive/Desktop/GD32VW553/V1_MQTT_OK/GD32VW55X_Wifi_BLE_SDK/GD32VW55x_RELEASE_V1.0.2/MSDK/plf/src\gd32vw55x_platform.c ****     rcu_periph_clock_enable(RCU_BLE);
 656              		.loc 1 291 5
 657 0008 0565     		li	a0,4096
 658 000a 1305F5C1 		addi	a0,a0,-993
 659 000e 97000000 		call	rcu_periph_clock_enable
 659      E7800000 
 660              	.LVL52:
 292:C:/Users/stapi/OneDrive/Desktop/GD32VW553/V1_MQTT_OK/GD32VW55X_Wifi_BLE_SDK/GD32VW55x_RELEASE_V1.0.2/MSDK/plf/src\gd32vw55x_platform.c **** 
 293:C:/Users/stapi/OneDrive/Desktop/GD32VW553/V1_MQTT_OK/GD32VW55X_Wifi_BLE_SDK/GD32VW55x_RELEASE_V1.0.2/MSDK/plf/src\gd32vw55x_platform.c ****     /* ble reset */
 294:C:/Users/stapi/OneDrive/Desktop/GD32VW553/V1_MQTT_OK/GD32VW55X_Wifi_BLE_SDK/GD32VW55x_RELEASE_V1.0.2/MSDK/plf/src\gd32vw55x_platform.c ****     rcu_periph_reset_enable(RCU_BLERST);
 661              		.loc 1 294 5
 662 0016 1305F041 		li	a0,1055
 663 001a 97000000 		call	rcu_periph_reset_enable
 663      E7800000 
 664              	.LVL53:
 295:C:/Users/stapi/OneDrive/Desktop/GD32VW553/V1_MQTT_OK/GD32VW55X_Wifi_BLE_SDK/GD32VW55x_RELEASE_V1.0.2/MSDK/plf/src\gd32vw55x_platform.c ****     rcu_periph_reset_disable(RCU_BLERST);
 665              		.loc 1 295 5
 666 0022 1305F041 		li	a0,1055
 667 0026 97000000 		call	rcu_periph_reset_disable
 667      E7800000 
 668              	.LVL54:
 296:C:/Users/stapi/OneDrive/Desktop/GD32VW553/V1_MQTT_OK/GD32VW55X_Wifi_BLE_SDK/GD32VW55x_RELEASE_V1.0.2/MSDK/plf/src\gd32vw55x_platform.c **** 
 297:C:/Users/stapi/OneDrive/Desktop/GD32VW553/V1_MQTT_OK/GD32VW55X_Wifi_BLE_SDK/GD32VW55x_RELEASE_V1.0.2/MSDK/plf/src\gd32vw55x_platform.c **** }
 669              		.loc 1 297 1 is_stmt 0
 670 002e 17030000 		tail	__riscv_restore_0
 670      67000300 
 671              		.cfi_restore 1
 672              		.cfi_def_cfa_offset 0
 673              		.cfi_endproc
 674              	.LFE389:
 676              		.section	.text.ble_power_status_en,"ax",@progbits
 677              		.align	1
 678              		.globl	ble_power_status_en
 680              	ble_power_status_en:
 681              	.LFB390:
 298:C:/Users/stapi/OneDrive/Desktop/GD32VW553/V1_MQTT_OK/GD32VW55X_Wifi_BLE_SDK/GD32VW55x_RELEASE_V1.0.2/MSDK/plf/src\gd32vw55x_platform.c **** 
 299:C:/Users/stapi/OneDrive/Desktop/GD32VW553/V1_MQTT_OK/GD32VW55X_Wifi_BLE_SDK/GD32VW55x_RELEASE_V1.0.2/MSDK/plf/src\gd32vw55x_platform.c **** void ble_power_status_en(void)
 300:C:/Users/stapi/OneDrive/Desktop/GD32VW553/V1_MQTT_OK/GD32VW55X_Wifi_BLE_SDK/GD32VW55x_RELEASE_V1.0.2/MSDK/plf/src\gd32vw55x_platform.c **** {
 682              		.loc 1 300 1 is_stmt 1
 683              		.cfi_startproc
 684 0000 17030000 		call	t0,__riscv_save_0
 684      E7020300 
 685              		.cfi_offset 1, -4
 686              		.cfi_def_cfa_offset 16
 301:C:/Users/stapi/OneDrive/Desktop/GD32VW553/V1_MQTT_OK/GD32VW55X_Wifi_BLE_SDK/GD32VW55x_RELEASE_V1.0.2/MSDK/plf/src\gd32vw55x_platform.c ****     pmu_interrupt_enable(PMU_INT_BLE_POWER_FALL);
 687              		.loc 1 301 5
 688 0008 0545     		li	a0,1
 689 000a 97000000 		call	pmu_interrupt_enable
 689      E7800000 
 690              	.LVL55:
 302:C:/Users/stapi/OneDrive/Desktop/GD32VW553/V1_MQTT_OK/GD32VW55X_Wifi_BLE_SDK/GD32VW55x_RELEASE_V1.0.2/MSDK/plf/src\gd32vw55x_platform.c ****     pmu_interrupt_enable(PMU_INT_BLE_POWER_RISE);
 691              		.loc 1 302 5
 692 0012 0945     		li	a0,2
 693 0014 97000000 		call	pmu_interrupt_enable
 693      E7800000 
 694              	.LVL56:
 303:C:/Users/stapi/OneDrive/Desktop/GD32VW553/V1_MQTT_OK/GD32VW55X_Wifi_BLE_SDK/GD32VW55x_RELEASE_V1.0.2/MSDK/plf/src\gd32vw55x_platform.c **** }
 695              		.loc 1 303 1 is_stmt 0
 696 001c 17030000 		tail	__riscv_restore_0
 696      67000300 
 697              		.cfi_restore 1
 698              		.cfi_def_cfa_offset 0
 699              		.cfi_endproc
 700              	.LFE390:
 702              		.section	.text.ble_power_status_rise_status,"ax",@progbits
 703              		.align	1
 704              		.globl	ble_power_status_rise_status
 706              	ble_power_status_rise_status:
 707              	.LFB391:
 304:C:/Users/stapi/OneDrive/Desktop/GD32VW553/V1_MQTT_OK/GD32VW55X_Wifi_BLE_SDK/GD32VW55x_RELEASE_V1.0.2/MSDK/plf/src\gd32vw55x_platform.c **** 
 305:C:/Users/stapi/OneDrive/Desktop/GD32VW553/V1_MQTT_OK/GD32VW55X_Wifi_BLE_SDK/GD32VW55x_RELEASE_V1.0.2/MSDK/plf/src\gd32vw55x_platform.c **** uint32_t ble_power_status_rise_status(void)
 306:C:/Users/stapi/OneDrive/Desktop/GD32VW553/V1_MQTT_OK/GD32VW55X_Wifi_BLE_SDK/GD32VW55x_RELEASE_V1.0.2/MSDK/plf/src\gd32vw55x_platform.c **** {
 708              		.loc 1 306 1 is_stmt 1
 709              		.cfi_startproc
 710 0000 17030000 		call	t0,__riscv_save_0
 710      E7020300 
 711              		.cfi_offset 1, -4
 712              		.cfi_def_cfa_offset 16
 307:C:/Users/stapi/OneDrive/Desktop/GD32VW553/V1_MQTT_OK/GD32VW55X_Wifi_BLE_SDK/GD32VW55x_RELEASE_V1.0.2/MSDK/plf/src\gd32vw55x_platform.c ****     return pmu_interrupt_flag_get(PMU_INT_FLAG_BLE_POWER_RISE) == SET;
 713              		.loc 1 307 5
 714              		.loc 1 307 12 is_stmt 0
 715 0008 0945     		li	a0,2
 716 000a 97000000 		call	pmu_interrupt_flag_get
 716      E7800000 
 717              	.LVL57:
 718              		.loc 1 307 64
 719 0012 7D15     		addi	a0,a0,-1
 308:C:/Users/stapi/OneDrive/Desktop/GD32VW553/V1_MQTT_OK/GD32VW55X_Wifi_BLE_SDK/GD32VW55x_RELEASE_V1.0.2/MSDK/plf/src\gd32vw55x_platform.c **** }
 720              		.loc 1 308 1
 721 0014 13351500 		seqz	a0,a0
 722 0018 17030000 		tail	__riscv_restore_0
 722      67000300 
 723              		.cfi_restore 1
 724              		.cfi_def_cfa_offset 0
 725              		.cfi_endproc
 726              	.LFE391:
 728              		.section	.text.ble_power_status_rise_clear,"ax",@progbits
 729              		.align	1
 730              		.globl	ble_power_status_rise_clear
 732              	ble_power_status_rise_clear:
 733              	.LFB392:
 309:C:/Users/stapi/OneDrive/Desktop/GD32VW553/V1_MQTT_OK/GD32VW55X_Wifi_BLE_SDK/GD32VW55x_RELEASE_V1.0.2/MSDK/plf/src\gd32vw55x_platform.c **** 
 310:C:/Users/stapi/OneDrive/Desktop/GD32VW553/V1_MQTT_OK/GD32VW55X_Wifi_BLE_SDK/GD32VW55x_RELEASE_V1.0.2/MSDK/plf/src\gd32vw55x_platform.c **** void ble_power_status_rise_clear(void)
 311:C:/Users/stapi/OneDrive/Desktop/GD32VW553/V1_MQTT_OK/GD32VW55X_Wifi_BLE_SDK/GD32VW55x_RELEASE_V1.0.2/MSDK/plf/src\gd32vw55x_platform.c **** {
 734              		.loc 1 311 1 is_stmt 1
 735              		.cfi_startproc
 312:C:/Users/stapi/OneDrive/Desktop/GD32VW553/V1_MQTT_OK/GD32VW55X_Wifi_BLE_SDK/GD32VW55x_RELEASE_V1.0.2/MSDK/plf/src\gd32vw55x_platform.c ****     pmu_interrupt_flag_clear(PMU_INT_FLAG_RESET_BLE_POWER_RISE);
 736              		.loc 1 312 5
 737 0000 0945     		li	a0,2
 738 0002 17030000 		tail	pmu_interrupt_flag_clear
 738      67000300 
 739              	.LVL58:
 740              		.cfi_endproc
 741              	.LFE392:
 743              		.section	.text.ble_power_status_fall_status,"ax",@progbits
 744              		.align	1
 745              		.globl	ble_power_status_fall_status
 747              	ble_power_status_fall_status:
 748              	.LFB393:
 313:C:/Users/stapi/OneDrive/Desktop/GD32VW553/V1_MQTT_OK/GD32VW55X_Wifi_BLE_SDK/GD32VW55x_RELEASE_V1.0.2/MSDK/plf/src\gd32vw55x_platform.c **** }
 314:C:/Users/stapi/OneDrive/Desktop/GD32VW553/V1_MQTT_OK/GD32VW55X_Wifi_BLE_SDK/GD32VW55x_RELEASE_V1.0.2/MSDK/plf/src\gd32vw55x_platform.c **** 
 315:C:/Users/stapi/OneDrive/Desktop/GD32VW553/V1_MQTT_OK/GD32VW55X_Wifi_BLE_SDK/GD32VW55x_RELEASE_V1.0.2/MSDK/plf/src\gd32vw55x_platform.c **** uint32_t ble_power_status_fall_status(void)
 316:C:/Users/stapi/OneDrive/Desktop/GD32VW553/V1_MQTT_OK/GD32VW55X_Wifi_BLE_SDK/GD32VW55x_RELEASE_V1.0.2/MSDK/plf/src\gd32vw55x_platform.c **** {
 749              		.loc 1 316 1
 750              		.cfi_startproc
 751 0000 17030000 		call	t0,__riscv_save_0
 751      E7020300 
 752              		.cfi_offset 1, -4
 753              		.cfi_def_cfa_offset 16
 317:C:/Users/stapi/OneDrive/Desktop/GD32VW553/V1_MQTT_OK/GD32VW55X_Wifi_BLE_SDK/GD32VW55x_RELEASE_V1.0.2/MSDK/plf/src\gd32vw55x_platform.c ****     return pmu_interrupt_flag_get(PMU_INT_FLAG_BLE_POWER_FALL) == SET;
 754              		.loc 1 317 5
 755              		.loc 1 317 12 is_stmt 0
 756 0008 0545     		li	a0,1
 757 000a 97000000 		call	pmu_interrupt_flag_get
 757      E7800000 
 758              	.LVL59:
 759              		.loc 1 317 64
 760 0012 7D15     		addi	a0,a0,-1
 318:C:/Users/stapi/OneDrive/Desktop/GD32VW553/V1_MQTT_OK/GD32VW55X_Wifi_BLE_SDK/GD32VW55x_RELEASE_V1.0.2/MSDK/plf/src\gd32vw55x_platform.c **** }
 761              		.loc 1 318 1
 762 0014 13351500 		seqz	a0,a0
 763 0018 17030000 		tail	__riscv_restore_0
 763      67000300 
 764              		.cfi_restore 1
 765              		.cfi_def_cfa_offset 0
 766              		.cfi_endproc
 767              	.LFE393:
 769              		.section	.text.ble_power_status_fall_clear,"ax",@progbits
 770              		.align	1
 771              		.globl	ble_power_status_fall_clear
 773              	ble_power_status_fall_clear:
 774              	.LFB394:
 319:C:/Users/stapi/OneDrive/Desktop/GD32VW553/V1_MQTT_OK/GD32VW55X_Wifi_BLE_SDK/GD32VW55x_RELEASE_V1.0.2/MSDK/plf/src\gd32vw55x_platform.c **** 
 320:C:/Users/stapi/OneDrive/Desktop/GD32VW553/V1_MQTT_OK/GD32VW55X_Wifi_BLE_SDK/GD32VW55x_RELEASE_V1.0.2/MSDK/plf/src\gd32vw55x_platform.c **** void ble_power_status_fall_clear(void)
 321:C:/Users/stapi/OneDrive/Desktop/GD32VW553/V1_MQTT_OK/GD32VW55X_Wifi_BLE_SDK/GD32VW55x_RELEASE_V1.0.2/MSDK/plf/src\gd32vw55x_platform.c **** {
 775              		.loc 1 321 1 is_stmt 1
 776              		.cfi_startproc
 322:C:/Users/stapi/OneDrive/Desktop/GD32VW553/V1_MQTT_OK/GD32VW55X_Wifi_BLE_SDK/GD32VW55x_RELEASE_V1.0.2/MSDK/plf/src\gd32vw55x_platform.c ****     pmu_interrupt_flag_clear(PMU_INT_FLAG_RESET_BLE_POWER_FALL);
 777              		.loc 1 322 5
 778 0000 0545     		li	a0,1
 779 0002 17030000 		tail	pmu_interrupt_flag_clear
 779      67000300 
 780              	.LVL60:
 781              		.cfi_endproc
 782              	.LFE394:
 784              		.section	.text.ble_external_wakeup,"ax",@progbits
 785              		.align	1
 786              		.globl	ble_external_wakeup
 788              	ble_external_wakeup:
 789              	.LFB395:
 323:C:/Users/stapi/OneDrive/Desktop/GD32VW553/V1_MQTT_OK/GD32VW55X_Wifi_BLE_SDK/GD32VW55x_RELEASE_V1.0.2/MSDK/plf/src\gd32vw55x_platform.c **** }
 324:C:/Users/stapi/OneDrive/Desktop/GD32VW553/V1_MQTT_OK/GD32VW55X_Wifi_BLE_SDK/GD32VW55x_RELEASE_V1.0.2/MSDK/plf/src\gd32vw55x_platform.c **** 
 325:C:/Users/stapi/OneDrive/Desktop/GD32VW553/V1_MQTT_OK/GD32VW55X_Wifi_BLE_SDK/GD32VW55x_RELEASE_V1.0.2/MSDK/plf/src\gd32vw55x_platform.c **** void ble_external_wakeup(void)
 326:C:/Users/stapi/OneDrive/Desktop/GD32VW553/V1_MQTT_OK/GD32VW55X_Wifi_BLE_SDK/GD32VW55x_RELEASE_V1.0.2/MSDK/plf/src\gd32vw55x_platform.c **** {
 790              		.loc 1 326 1
 791              		.cfi_startproc
 327:C:/Users/stapi/OneDrive/Desktop/GD32VW553/V1_MQTT_OK/GD32VW55X_Wifi_BLE_SDK/GD32VW55x_RELEASE_V1.0.2/MSDK/plf/src\gd32vw55x_platform.c ****     pmu_ble_wakeup_request_enable();
 792              		.loc 1 327 5
 793 0000 17030000 		tail	pmu_ble_wakeup_request_enable
 793      67000300 
 794              	.LVL61:
 795              		.cfi_endproc
 796              	.LFE395:
 798              		.section	.text.ble_external_wakeup_clear,"ax",@progbits
 799              		.align	1
 800              		.globl	ble_external_wakeup_clear
 802              	ble_external_wakeup_clear:
 803              	.LFB396:
 328:C:/Users/stapi/OneDrive/Desktop/GD32VW553/V1_MQTT_OK/GD32VW55X_Wifi_BLE_SDK/GD32VW55x_RELEASE_V1.0.2/MSDK/plf/src\gd32vw55x_platform.c **** }
 329:C:/Users/stapi/OneDrive/Desktop/GD32VW553/V1_MQTT_OK/GD32VW55X_Wifi_BLE_SDK/GD32VW55x_RELEASE_V1.0.2/MSDK/plf/src\gd32vw55x_platform.c **** 
 330:C:/Users/stapi/OneDrive/Desktop/GD32VW553/V1_MQTT_OK/GD32VW55X_Wifi_BLE_SDK/GD32VW55x_RELEASE_V1.0.2/MSDK/plf/src\gd32vw55x_platform.c **** void ble_external_wakeup_clear(void)
 331:C:/Users/stapi/OneDrive/Desktop/GD32VW553/V1_MQTT_OK/GD32VW55X_Wifi_BLE_SDK/GD32VW55x_RELEASE_V1.0.2/MSDK/plf/src\gd32vw55x_platform.c **** {
 804              		.loc 1 331 1
 805              		.cfi_startproc
 332:C:/Users/stapi/OneDrive/Desktop/GD32VW553/V1_MQTT_OK/GD32VW55X_Wifi_BLE_SDK/GD32VW55x_RELEASE_V1.0.2/MSDK/plf/src\gd32vw55x_platform.c ****     pmu_ble_wakeup_request_disable();
 806              		.loc 1 332 5
 807 0000 17030000 		tail	pmu_ble_wakeup_request_disable
 807      67000300 
 808              	.LVL62:
 809              		.cfi_endproc
 810              	.LFE396:
 812              		.section	.text.ble_sleep_measure_clock_get,"ax",@progbits
 813              		.align	1
 814              		.globl	ble_sleep_measure_clock_get
 816              	ble_sleep_measure_clock_get:
 817              	.LFB397:
 333:C:/Users/stapi/OneDrive/Desktop/GD32VW553/V1_MQTT_OK/GD32VW55X_Wifi_BLE_SDK/GD32VW55x_RELEASE_V1.0.2/MSDK/plf/src\gd32vw55x_platform.c **** }
 334:C:/Users/stapi/OneDrive/Desktop/GD32VW553/V1_MQTT_OK/GD32VW55X_Wifi_BLE_SDK/GD32VW55x_RELEASE_V1.0.2/MSDK/plf/src\gd32vw55x_platform.c **** 
 335:C:/Users/stapi/OneDrive/Desktop/GD32VW553/V1_MQTT_OK/GD32VW55X_Wifi_BLE_SDK/GD32VW55x_RELEASE_V1.0.2/MSDK/plf/src\gd32vw55x_platform.c **** uint32_t ble_sleep_measure_clock_get(void)
 336:C:/Users/stapi/OneDrive/Desktop/GD32VW553/V1_MQTT_OK/GD32VW55X_Wifi_BLE_SDK/GD32VW55x_RELEASE_V1.0.2/MSDK/plf/src\gd32vw55x_platform.c **** {
 818              		.loc 1 336 1
 819              		.cfi_startproc
 337:C:/Users/stapi/OneDrive/Desktop/GD32VW553/V1_MQTT_OK/GD32VW55X_Wifi_BLE_SDK/GD32VW55x_RELEASE_V1.0.2/MSDK/plf/src\gd32vw55x_platform.c **** #ifdef CONFIG_PLATFORM_FPGA
 338:C:/Users/stapi/OneDrive/Desktop/GD32VW553/V1_MQTT_OK/GD32VW55X_Wifi_BLE_SDK/GD32VW55x_RELEASE_V1.0.2/MSDK/plf/src\gd32vw55x_platform.c ****     return rcu_clock_freq_get(CK_SYS);
 339:C:/Users/stapi/OneDrive/Desktop/GD32VW553/V1_MQTT_OK/GD32VW55X_Wifi_BLE_SDK/GD32VW55x_RELEASE_V1.0.2/MSDK/plf/src\gd32vw55x_platform.c **** #else
 340:C:/Users/stapi/OneDrive/Desktop/GD32VW553/V1_MQTT_OK/GD32VW55X_Wifi_BLE_SDK/GD32VW55x_RELEASE_V1.0.2/MSDK/plf/src\gd32vw55x_platform.c ****     return rcu_clock_freq_get(CK_APB1);
 820              		.loc 1 340 5
 821              		.loc 1 340 12 is_stmt 0
 822 0000 0945     		li	a0,2
 823 0002 17030000 		tail	rcu_clock_freq_get
 823      67000300 
 824              	.LVL63:
 825              		.cfi_endproc
 826              	.LFE397:
 828              		.section	.text.ble_power_on,"ax",@progbits
 829              		.align	1
 830              		.globl	ble_power_on
 832              	ble_power_on:
 833              	.LFB399:
 341:C:/Users/stapi/OneDrive/Desktop/GD32VW553/V1_MQTT_OK/GD32VW55X_Wifi_BLE_SDK/GD32VW55x_RELEASE_V1.0.2/MSDK/plf/src\gd32vw55x_platform.c **** #endif
 342:C:/Users/stapi/OneDrive/Desktop/GD32VW553/V1_MQTT_OK/GD32VW55X_Wifi_BLE_SDK/GD32VW55x_RELEASE_V1.0.2/MSDK/plf/src\gd32vw55x_platform.c **** }
 343:C:/Users/stapi/OneDrive/Desktop/GD32VW553/V1_MQTT_OK/GD32VW55X_Wifi_BLE_SDK/GD32VW55x_RELEASE_V1.0.2/MSDK/plf/src\gd32vw55x_platform.c **** 
 344:C:/Users/stapi/OneDrive/Desktop/GD32VW553/V1_MQTT_OK/GD32VW55X_Wifi_BLE_SDK/GD32VW55x_RELEASE_V1.0.2/MSDK/plf/src\gd32vw55x_platform.c **** static void ble_irq_enable(void)
 345:C:/Users/stapi/OneDrive/Desktop/GD32VW553/V1_MQTT_OK/GD32VW55X_Wifi_BLE_SDK/GD32VW55x_RELEASE_V1.0.2/MSDK/plf/src\gd32vw55x_platform.c **** {
 346:C:/Users/stapi/OneDrive/Desktop/GD32VW553/V1_MQTT_OK/GD32VW55X_Wifi_BLE_SDK/GD32VW55x_RELEASE_V1.0.2/MSDK/plf/src\gd32vw55x_platform.c ****     /* exti interrupt wake up the cpu from deep sleep state */
 347:C:/Users/stapi/OneDrive/Desktop/GD32VW553/V1_MQTT_OK/GD32VW55X_Wifi_BLE_SDK/GD32VW55x_RELEASE_V1.0.2/MSDK/plf/src\gd32vw55x_platform.c ****     eclic_irq_enable(BLE_WKUP_IRQn, 12, 0);
 348:C:/Users/stapi/OneDrive/Desktop/GD32VW553/V1_MQTT_OK/GD32VW55X_Wifi_BLE_SDK/GD32VW55x_RELEASE_V1.0.2/MSDK/plf/src\gd32vw55x_platform.c **** 
 349:C:/Users/stapi/OneDrive/Desktop/GD32VW553/V1_MQTT_OK/GD32VW55X_Wifi_BLE_SDK/GD32VW55x_RELEASE_V1.0.2/MSDK/plf/src\gd32vw55x_platform.c **** #ifdef CONFIG_PLATFORM_ASIC
 350:C:/Users/stapi/OneDrive/Desktop/GD32VW553/V1_MQTT_OK/GD32VW55X_Wifi_BLE_SDK/GD32VW55x_RELEASE_V1.0.2/MSDK/plf/src\gd32vw55x_platform.c ****     eclic_irq_enable(USART0_IRQn, 8, 0);
 351:C:/Users/stapi/OneDrive/Desktop/GD32VW553/V1_MQTT_OK/GD32VW55X_Wifi_BLE_SDK/GD32VW55x_RELEASE_V1.0.2/MSDK/plf/src\gd32vw55x_platform.c **** #endif
 352:C:/Users/stapi/OneDrive/Desktop/GD32VW553/V1_MQTT_OK/GD32VW55X_Wifi_BLE_SDK/GD32VW55x_RELEASE_V1.0.2/MSDK/plf/src\gd32vw55x_platform.c **** 
 353:C:/Users/stapi/OneDrive/Desktop/GD32VW553/V1_MQTT_OK/GD32VW55X_Wifi_BLE_SDK/GD32VW55x_RELEASE_V1.0.2/MSDK/plf/src\gd32vw55x_platform.c **** #ifdef HCI_UART_RX_DMA
 354:C:/Users/stapi/OneDrive/Desktop/GD32VW553/V1_MQTT_OK/GD32VW55X_Wifi_BLE_SDK/GD32VW55x_RELEASE_V1.0.2/MSDK/plf/src\gd32vw55x_platform.c ****     eclic_irq_enable(DMA_Channel5_IRQn, 8, 0);
 355:C:/Users/stapi/OneDrive/Desktop/GD32VW553/V1_MQTT_OK/GD32VW55X_Wifi_BLE_SDK/GD32VW55x_RELEASE_V1.0.2/MSDK/plf/src\gd32vw55x_platform.c **** #endif
 356:C:/Users/stapi/OneDrive/Desktop/GD32VW553/V1_MQTT_OK/GD32VW55X_Wifi_BLE_SDK/GD32VW55x_RELEASE_V1.0.2/MSDK/plf/src\gd32vw55x_platform.c **** 
 357:C:/Users/stapi/OneDrive/Desktop/GD32VW553/V1_MQTT_OK/GD32VW55X_Wifi_BLE_SDK/GD32VW55x_RELEASE_V1.0.2/MSDK/plf/src\gd32vw55x_platform.c ****     /* ble ps requires low interrupt processing latency for pmu, the interrupt priority is higher t
 358:C:/Users/stapi/OneDrive/Desktop/GD32VW553/V1_MQTT_OK/GD32VW55X_Wifi_BLE_SDK/GD32VW55x_RELEASE_V1.0.2/MSDK/plf/src\gd32vw55x_platform.c ****     eclic_irq_enable(BLE_POWER_STATUS_IRQn, 11, 0);
 359:C:/Users/stapi/OneDrive/Desktop/GD32VW553/V1_MQTT_OK/GD32VW55X_Wifi_BLE_SDK/GD32VW55x_RELEASE_V1.0.2/MSDK/plf/src\gd32vw55x_platform.c **** 
 360:C:/Users/stapi/OneDrive/Desktop/GD32VW553/V1_MQTT_OK/GD32VW55X_Wifi_BLE_SDK/GD32VW55x_RELEASE_V1.0.2/MSDK/plf/src\gd32vw55x_platform.c ****     eclic_irq_enable(BLE_SW_TRIG_IRQn, 8, 0);
 361:C:/Users/stapi/OneDrive/Desktop/GD32VW553/V1_MQTT_OK/GD32VW55X_Wifi_BLE_SDK/GD32VW55x_RELEASE_V1.0.2/MSDK/plf/src\gd32vw55x_platform.c ****     ECLIC_SetTrigIRQ(BLE_SW_TRIG_IRQn, ECLIC_POSTIVE_EDGE_TRIGGER);
 362:C:/Users/stapi/OneDrive/Desktop/GD32VW553/V1_MQTT_OK/GD32VW55X_Wifi_BLE_SDK/GD32VW55x_RELEASE_V1.0.2/MSDK/plf/src\gd32vw55x_platform.c **** 
 363:C:/Users/stapi/OneDrive/Desktop/GD32VW553/V1_MQTT_OK/GD32VW55X_Wifi_BLE_SDK/GD32VW55x_RELEASE_V1.0.2/MSDK/plf/src\gd32vw55x_platform.c ****     eclic_irq_enable(BLE_HALF_SLOT_IRQn, 8, 0);
 364:C:/Users/stapi/OneDrive/Desktop/GD32VW553/V1_MQTT_OK/GD32VW55X_Wifi_BLE_SDK/GD32VW55x_RELEASE_V1.0.2/MSDK/plf/src\gd32vw55x_platform.c ****     ECLIC_SetTrigIRQ(BLE_HALF_SLOT_IRQn, ECLIC_POSTIVE_EDGE_TRIGGER);
 365:C:/Users/stapi/OneDrive/Desktop/GD32VW553/V1_MQTT_OK/GD32VW55X_Wifi_BLE_SDK/GD32VW55x_RELEASE_V1.0.2/MSDK/plf/src\gd32vw55x_platform.c **** 
 366:C:/Users/stapi/OneDrive/Desktop/GD32VW553/V1_MQTT_OK/GD32VW55X_Wifi_BLE_SDK/GD32VW55x_RELEASE_V1.0.2/MSDK/plf/src\gd32vw55x_platform.c ****     eclic_irq_enable(BLE_SLEEP_MODE_IRQn, 8, 0);
 367:C:/Users/stapi/OneDrive/Desktop/GD32VW553/V1_MQTT_OK/GD32VW55X_Wifi_BLE_SDK/GD32VW55x_RELEASE_V1.0.2/MSDK/plf/src\gd32vw55x_platform.c ****     ECLIC_SetTrigIRQ(BLE_SLEEP_MODE_IRQn, ECLIC_POSTIVE_EDGE_TRIGGER);
 368:C:/Users/stapi/OneDrive/Desktop/GD32VW553/V1_MQTT_OK/GD32VW55X_Wifi_BLE_SDK/GD32VW55x_RELEASE_V1.0.2/MSDK/plf/src\gd32vw55x_platform.c **** 
 369:C:/Users/stapi/OneDrive/Desktop/GD32VW553/V1_MQTT_OK/GD32VW55X_Wifi_BLE_SDK/GD32VW55x_RELEASE_V1.0.2/MSDK/plf/src\gd32vw55x_platform.c ****     eclic_irq_enable(BLE_ENCRYPTION_ENGINE_IRQn, 8, 0);
 370:C:/Users/stapi/OneDrive/Desktop/GD32VW553/V1_MQTT_OK/GD32VW55X_Wifi_BLE_SDK/GD32VW55x_RELEASE_V1.0.2/MSDK/plf/src\gd32vw55x_platform.c ****     ECLIC_SetTrigIRQ(BLE_ENCRYPTION_ENGINE_IRQn, ECLIC_POSTIVE_EDGE_TRIGGER);
 371:C:/Users/stapi/OneDrive/Desktop/GD32VW553/V1_MQTT_OK/GD32VW55X_Wifi_BLE_SDK/GD32VW55x_RELEASE_V1.0.2/MSDK/plf/src\gd32vw55x_platform.c **** 
 372:C:/Users/stapi/OneDrive/Desktop/GD32VW553/V1_MQTT_OK/GD32VW55X_Wifi_BLE_SDK/GD32VW55x_RELEASE_V1.0.2/MSDK/plf/src\gd32vw55x_platform.c ****     eclic_irq_enable(BLE_FINE_TIMER_TARGET_IRQn, 8, 0);
 373:C:/Users/stapi/OneDrive/Desktop/GD32VW553/V1_MQTT_OK/GD32VW55X_Wifi_BLE_SDK/GD32VW55x_RELEASE_V1.0.2/MSDK/plf/src\gd32vw55x_platform.c ****     ECLIC_SetTrigIRQ(BLE_FINE_TIMER_TARGET_IRQn, ECLIC_POSTIVE_EDGE_TRIGGER);
 374:C:/Users/stapi/OneDrive/Desktop/GD32VW553/V1_MQTT_OK/GD32VW55X_Wifi_BLE_SDK/GD32VW55x_RELEASE_V1.0.2/MSDK/plf/src\gd32vw55x_platform.c **** 
 375:C:/Users/stapi/OneDrive/Desktop/GD32VW553/V1_MQTT_OK/GD32VW55X_Wifi_BLE_SDK/GD32VW55x_RELEASE_V1.0.2/MSDK/plf/src\gd32vw55x_platform.c ****     eclic_irq_enable(BLE_STAMP_TARGET1_IRQn, 8, 0);
 376:C:/Users/stapi/OneDrive/Desktop/GD32VW553/V1_MQTT_OK/GD32VW55X_Wifi_BLE_SDK/GD32VW55x_RELEASE_V1.0.2/MSDK/plf/src\gd32vw55x_platform.c ****     ECLIC_SetTrigIRQ(BLE_STAMP_TARGET1_IRQn, ECLIC_POSTIVE_EDGE_TRIGGER);
 377:C:/Users/stapi/OneDrive/Desktop/GD32VW553/V1_MQTT_OK/GD32VW55X_Wifi_BLE_SDK/GD32VW55x_RELEASE_V1.0.2/MSDK/plf/src\gd32vw55x_platform.c **** 
 378:C:/Users/stapi/OneDrive/Desktop/GD32VW553/V1_MQTT_OK/GD32VW55X_Wifi_BLE_SDK/GD32VW55x_RELEASE_V1.0.2/MSDK/plf/src\gd32vw55x_platform.c ****     eclic_irq_enable(BLE_STAMP_TARGET2_IRQn, 8, 0);
 379:C:/Users/stapi/OneDrive/Desktop/GD32VW553/V1_MQTT_OK/GD32VW55X_Wifi_BLE_SDK/GD32VW55x_RELEASE_V1.0.2/MSDK/plf/src\gd32vw55x_platform.c ****     ECLIC_SetTrigIRQ(BLE_STAMP_TARGET2_IRQn, ECLIC_POSTIVE_EDGE_TRIGGER);
 380:C:/Users/stapi/OneDrive/Desktop/GD32VW553/V1_MQTT_OK/GD32VW55X_Wifi_BLE_SDK/GD32VW55x_RELEASE_V1.0.2/MSDK/plf/src\gd32vw55x_platform.c **** 
 381:C:/Users/stapi/OneDrive/Desktop/GD32VW553/V1_MQTT_OK/GD32VW55X_Wifi_BLE_SDK/GD32VW55x_RELEASE_V1.0.2/MSDK/plf/src\gd32vw55x_platform.c ****     eclic_irq_enable(BLE_STAMP_TARGET3_IRQn, 8, 0);
 382:C:/Users/stapi/OneDrive/Desktop/GD32VW553/V1_MQTT_OK/GD32VW55X_Wifi_BLE_SDK/GD32VW55x_RELEASE_V1.0.2/MSDK/plf/src\gd32vw55x_platform.c ****     ECLIC_SetTrigIRQ(BLE_STAMP_TARGET3_IRQn, ECLIC_POSTIVE_EDGE_TRIGGER);
 383:C:/Users/stapi/OneDrive/Desktop/GD32VW553/V1_MQTT_OK/GD32VW55X_Wifi_BLE_SDK/GD32VW55x_RELEASE_V1.0.2/MSDK/plf/src\gd32vw55x_platform.c **** 
 384:C:/Users/stapi/OneDrive/Desktop/GD32VW553/V1_MQTT_OK/GD32VW55X_Wifi_BLE_SDK/GD32VW55x_RELEASE_V1.0.2/MSDK/plf/src\gd32vw55x_platform.c ****     eclic_irq_enable(BLE_FREQ_SELECT_IRQn, 8, 0);
 385:C:/Users/stapi/OneDrive/Desktop/GD32VW553/V1_MQTT_OK/GD32VW55X_Wifi_BLE_SDK/GD32VW55x_RELEASE_V1.0.2/MSDK/plf/src\gd32vw55x_platform.c ****     ECLIC_SetTrigIRQ(BLE_FREQ_SELECT_IRQn, ECLIC_POSTIVE_EDGE_TRIGGER);
 386:C:/Users/stapi/OneDrive/Desktop/GD32VW553/V1_MQTT_OK/GD32VW55X_Wifi_BLE_SDK/GD32VW55x_RELEASE_V1.0.2/MSDK/plf/src\gd32vw55x_platform.c **** 
 387:C:/Users/stapi/OneDrive/Desktop/GD32VW553/V1_MQTT_OK/GD32VW55X_Wifi_BLE_SDK/GD32VW55x_RELEASE_V1.0.2/MSDK/plf/src\gd32vw55x_platform.c ****     eclic_irq_enable(BLE_ERROR_IRQn, 8, 0);
 388:C:/Users/stapi/OneDrive/Desktop/GD32VW553/V1_MQTT_OK/GD32VW55X_Wifi_BLE_SDK/GD32VW55x_RELEASE_V1.0.2/MSDK/plf/src\gd32vw55x_platform.c ****     ECLIC_SetTrigIRQ(BLE_ERROR_IRQn, ECLIC_POSTIVE_EDGE_TRIGGER);
 389:C:/Users/stapi/OneDrive/Desktop/GD32VW553/V1_MQTT_OK/GD32VW55X_Wifi_BLE_SDK/GD32VW55x_RELEASE_V1.0.2/MSDK/plf/src\gd32vw55x_platform.c **** 
 390:C:/Users/stapi/OneDrive/Desktop/GD32VW553/V1_MQTT_OK/GD32VW55X_Wifi_BLE_SDK/GD32VW55x_RELEASE_V1.0.2/MSDK/plf/src\gd32vw55x_platform.c ****     eclic_irq_enable(BLE_FIFO_ACTIVITY_IRQn, 8, 0);
 391:C:/Users/stapi/OneDrive/Desktop/GD32VW553/V1_MQTT_OK/GD32VW55X_Wifi_BLE_SDK/GD32VW55x_RELEASE_V1.0.2/MSDK/plf/src\gd32vw55x_platform.c ****     ECLIC_SetTrigIRQ(BLE_FIFO_ACTIVITY_IRQn, ECLIC_POSTIVE_EDGE_TRIGGER);
 392:C:/Users/stapi/OneDrive/Desktop/GD32VW553/V1_MQTT_OK/GD32VW55X_Wifi_BLE_SDK/GD32VW55x_RELEASE_V1.0.2/MSDK/plf/src\gd32vw55x_platform.c **** }
 393:C:/Users/stapi/OneDrive/Desktop/GD32VW553/V1_MQTT_OK/GD32VW55X_Wifi_BLE_SDK/GD32VW55x_RELEASE_V1.0.2/MSDK/plf/src\gd32vw55x_platform.c **** 
 394:C:/Users/stapi/OneDrive/Desktop/GD32VW553/V1_MQTT_OK/GD32VW55X_Wifi_BLE_SDK/GD32VW55x_RELEASE_V1.0.2/MSDK/plf/src\gd32vw55x_platform.c **** void ble_power_on(void)
 395:C:/Users/stapi/OneDrive/Desktop/GD32VW553/V1_MQTT_OK/GD32VW55X_Wifi_BLE_SDK/GD32VW55x_RELEASE_V1.0.2/MSDK/plf/src\gd32vw55x_platform.c **** {
 834              		.loc 1 395 1 is_stmt 1
 835              		.cfi_startproc
 836 0000 17030000 		call	t0,__riscv_save_0
 836      E7020300 
 837              		.cfi_offset 1, -4
 838              		.cfi_def_cfa_offset 16
 396:C:/Users/stapi/OneDrive/Desktop/GD32VW553/V1_MQTT_OK/GD32VW55X_Wifi_BLE_SDK/GD32VW55x_RELEASE_V1.0.2/MSDK/plf/src\gd32vw55x_platform.c ****     /* ble power on */
 397:C:/Users/stapi/OneDrive/Desktop/GD32VW553/V1_MQTT_OK/GD32VW55X_Wifi_BLE_SDK/GD32VW55x_RELEASE_V1.0.2/MSDK/plf/src\gd32vw55x_platform.c ****     ble_pmu_config(1);
 839              		.loc 1 397 5
 840              	.LVL64:
 841              	.LBB54:
 842              	.LBB55:
 261:C:/Users/stapi/OneDrive/Desktop/GD32VW553/V1_MQTT_OK/GD32VW55X_Wifi_BLE_SDK/GD32VW55x_RELEASE_V1.0.2/MSDK/plf/src\gd32vw55x_platform.c ****         /* if ble is sleep, config power on */
 843              		.loc 1 261 5
 844 0008 97000000 		call	ble_pmu_config.part.0
 844      E7800000 
 845              	.LVL65:
 846              	.LBE55:
 847              	.LBE54:
 398:C:/Users/stapi/OneDrive/Desktop/GD32VW553/V1_MQTT_OK/GD32VW55X_Wifi_BLE_SDK/GD32VW55x_RELEASE_V1.0.2/MSDK/plf/src\gd32vw55x_platform.c ****     /* ble enable and reset */
 399:C:/Users/stapi/OneDrive/Desktop/GD32VW553/V1_MQTT_OK/GD32VW55X_Wifi_BLE_SDK/GD32VW55x_RELEASE_V1.0.2/MSDK/plf/src\gd32vw55x_platform.c ****     ble_rcc_config();
 848              		.loc 1 399 5
 849 0010 97000000 		call	ble_rcc_config
 849      E7800000 
 850              	.LVL66:
 400:C:/Users/stapi/OneDrive/Desktop/GD32VW553/V1_MQTT_OK/GD32VW55X_Wifi_BLE_SDK/GD32VW55x_RELEASE_V1.0.2/MSDK/plf/src\gd32vw55x_platform.c ****     /* ble ps enable, ble core sleep will generate power status interrupt */
 401:C:/Users/stapi/OneDrive/Desktop/GD32VW553/V1_MQTT_OK/GD32VW55X_Wifi_BLE_SDK/GD32VW55x_RELEASE_V1.0.2/MSDK/plf/src\gd32vw55x_platform.c ****     ble_power_status_en();
 851              		.loc 1 401 5
 852 0018 97000000 		call	ble_power_status_en
 852      E7800000 
 853              	.LVL67:
 402:C:/Users/stapi/OneDrive/Desktop/GD32VW553/V1_MQTT_OK/GD32VW55X_Wifi_BLE_SDK/GD32VW55x_RELEASE_V1.0.2/MSDK/plf/src\gd32vw55x_platform.c **** }
 854              		.loc 1 402 1 is_stmt 0
 855 0020 17030000 		tail	__riscv_restore_0
 855      67000300 
 856              		.cfi_restore 1
 857              		.cfi_def_cfa_offset 0
 858              		.cfi_endproc
 859              	.LFE399:
 861              		.section	.text.ble_power_off,"ax",@progbits
 862              		.align	1
 863              		.globl	ble_power_off
 865              	ble_power_off:
 866              	.LFB400:
 403:C:/Users/stapi/OneDrive/Desktop/GD32VW553/V1_MQTT_OK/GD32VW55X_Wifi_BLE_SDK/GD32VW55x_RELEASE_V1.0.2/MSDK/plf/src\gd32vw55x_platform.c **** 
 404:C:/Users/stapi/OneDrive/Desktop/GD32VW553/V1_MQTT_OK/GD32VW55X_Wifi_BLE_SDK/GD32VW55x_RELEASE_V1.0.2/MSDK/plf/src\gd32vw55x_platform.c **** void ble_power_off(void)
 405:C:/Users/stapi/OneDrive/Desktop/GD32VW553/V1_MQTT_OK/GD32VW55X_Wifi_BLE_SDK/GD32VW55x_RELEASE_V1.0.2/MSDK/plf/src\gd32vw55x_platform.c **** {
 867              		.loc 1 405 1 is_stmt 1
 868              		.cfi_startproc
 869 0000 17030000 		call	t0,__riscv_save_0
 869      E7020300 
 870              		.cfi_offset 1, -4
 871              		.cfi_def_cfa_offset 16
 406:C:/Users/stapi/OneDrive/Desktop/GD32VW553/V1_MQTT_OK/GD32VW55X_Wifi_BLE_SDK/GD32VW55x_RELEASE_V1.0.2/MSDK/plf/src\gd32vw55x_platform.c ****     /* ble power off */
 407:C:/Users/stapi/OneDrive/Desktop/GD32VW553/V1_MQTT_OK/GD32VW55X_Wifi_BLE_SDK/GD32VW55x_RELEASE_V1.0.2/MSDK/plf/src\gd32vw55x_platform.c ****     ble_pmu_config(0);
 872              		.loc 1 407 5
 873 0008 0145     		li	a0,0
 874 000a 97000000 		call	ble_pmu_config
 874      E7800000 
 875              	.LVL68:
 408:C:/Users/stapi/OneDrive/Desktop/GD32VW553/V1_MQTT_OK/GD32VW55X_Wifi_BLE_SDK/GD32VW55x_RELEASE_V1.0.2/MSDK/plf/src\gd32vw55x_platform.c **** 
 409:C:/Users/stapi/OneDrive/Desktop/GD32VW553/V1_MQTT_OK/GD32VW55X_Wifi_BLE_SDK/GD32VW55x_RELEASE_V1.0.2/MSDK/plf/src\gd32vw55x_platform.c ****     rcu_periph_clock_disable(RCU_BLE);
 876              		.loc 1 409 5
 877 0012 0565     		li	a0,4096
 878 0014 1305F5C1 		addi	a0,a0,-993
 879 0018 97000000 		call	rcu_periph_clock_disable
 879      E7800000 
 880              	.LVL69:
 410:C:/Users/stapi/OneDrive/Desktop/GD32VW553/V1_MQTT_OK/GD32VW55X_Wifi_BLE_SDK/GD32VW55x_RELEASE_V1.0.2/MSDK/plf/src\gd32vw55x_platform.c **** }
 881              		.loc 1 410 1 is_stmt 0
 882 0020 17030000 		tail	__riscv_restore_0
 882      67000300 
 883              		.cfi_restore 1
 884              		.cfi_def_cfa_offset 0
 885              		.cfi_endproc
 886              	.LFE400:
 888              		.section	.text.hw_crc32_enable,"ax",@progbits
 889              		.align	1
 890              		.globl	hw_crc32_enable
 892              	hw_crc32_enable:
 893              	.LFB401:
 411:C:/Users/stapi/OneDrive/Desktop/GD32VW553/V1_MQTT_OK/GD32VW55X_Wifi_BLE_SDK/GD32VW55x_RELEASE_V1.0.2/MSDK/plf/src\gd32vw55x_platform.c **** 
 412:C:/Users/stapi/OneDrive/Desktop/GD32VW553/V1_MQTT_OK/GD32VW55X_Wifi_BLE_SDK/GD32VW55x_RELEASE_V1.0.2/MSDK/plf/src\gd32vw55x_platform.c **** void hw_crc32_enable(void)
 413:C:/Users/stapi/OneDrive/Desktop/GD32VW553/V1_MQTT_OK/GD32VW55X_Wifi_BLE_SDK/GD32VW55x_RELEASE_V1.0.2/MSDK/plf/src\gd32vw55x_platform.c **** {
 894              		.loc 1 413 1 is_stmt 1
 895              		.cfi_startproc
 896 0000 17030000 		call	t0,__riscv_save_0
 896      E7020300 
 897              		.cfi_offset 1, -4
 898              		.cfi_def_cfa_offset 16
 414:C:/Users/stapi/OneDrive/Desktop/GD32VW553/V1_MQTT_OK/GD32VW55X_Wifi_BLE_SDK/GD32VW55x_RELEASE_V1.0.2/MSDK/plf/src\gd32vw55x_platform.c ****     rcu_periph_clock_enable(RCU_CRC);
 899              		.loc 1 414 5
 900 0008 0565     		li	a0,4096
 901 000a 1305C5C0 		addi	a0,a0,-1012
 902 000e 97000000 		call	rcu_periph_clock_enable
 902      E7800000 
 903              	.LVL70:
 415:C:/Users/stapi/OneDrive/Desktop/GD32VW553/V1_MQTT_OK/GD32VW55X_Wifi_BLE_SDK/GD32VW55x_RELEASE_V1.0.2/MSDK/plf/src\gd32vw55x_platform.c ****     crc_data_register_reset();
 904              		.loc 1 415 5
 905 0016 97000000 		call	crc_data_register_reset
 905      E7800000 
 906              	.LVL71:
 416:C:/Users/stapi/OneDrive/Desktop/GD32VW553/V1_MQTT_OK/GD32VW55X_Wifi_BLE_SDK/GD32VW55x_RELEASE_V1.0.2/MSDK/plf/src\gd32vw55x_platform.c **** }
 907              		.loc 1 416 1 is_stmt 0
 908 001e 17030000 		tail	__riscv_restore_0
 908      67000300 
 909              		.cfi_restore 1
 910              		.cfi_def_cfa_offset 0
 911              		.cfi_endproc
 912              	.LFE401:
 914              		.section	.text.hw_crc32_single,"ax",@progbits
 915              		.align	1
 916              		.globl	hw_crc32_single
 918              	hw_crc32_single:
 919              	.LFB402:
 417:C:/Users/stapi/OneDrive/Desktop/GD32VW553/V1_MQTT_OK/GD32VW55X_Wifi_BLE_SDK/GD32VW55x_RELEASE_V1.0.2/MSDK/plf/src\gd32vw55x_platform.c **** 
 418:C:/Users/stapi/OneDrive/Desktop/GD32VW553/V1_MQTT_OK/GD32VW55X_Wifi_BLE_SDK/GD32VW55x_RELEASE_V1.0.2/MSDK/plf/src\gd32vw55x_platform.c **** uint32_t hw_crc32_single(uint32_t data)
 419:C:/Users/stapi/OneDrive/Desktop/GD32VW553/V1_MQTT_OK/GD32VW55X_Wifi_BLE_SDK/GD32VW55x_RELEASE_V1.0.2/MSDK/plf/src\gd32vw55x_platform.c **** {
 920              		.loc 1 419 1 is_stmt 1
 921              		.cfi_startproc
 922              	.LVL72:
 420:C:/Users/stapi/OneDrive/Desktop/GD32VW553/V1_MQTT_OK/GD32VW55X_Wifi_BLE_SDK/GD32VW55x_RELEASE_V1.0.2/MSDK/plf/src\gd32vw55x_platform.c ****     return crc_single_data_calculate(data);
 923              		.loc 1 420 5
 924              		.loc 1 420 12 is_stmt 0
 925 0000 17030000 		tail	crc_single_data_calculate
 925      67000300 
 926              	.LVL73:
 927              		.cfi_endproc
 928              	.LFE402:
 930              		.section	.text.hw_crc32_disable,"ax",@progbits
 931              		.align	1
 932              		.globl	hw_crc32_disable
 934              	hw_crc32_disable:
 935              	.LFB403:
 421:C:/Users/stapi/OneDrive/Desktop/GD32VW553/V1_MQTT_OK/GD32VW55X_Wifi_BLE_SDK/GD32VW55x_RELEASE_V1.0.2/MSDK/plf/src\gd32vw55x_platform.c **** }
 422:C:/Users/stapi/OneDrive/Desktop/GD32VW553/V1_MQTT_OK/GD32VW55X_Wifi_BLE_SDK/GD32VW55x_RELEASE_V1.0.2/MSDK/plf/src\gd32vw55x_platform.c **** 
 423:C:/Users/stapi/OneDrive/Desktop/GD32VW553/V1_MQTT_OK/GD32VW55X_Wifi_BLE_SDK/GD32VW55x_RELEASE_V1.0.2/MSDK/plf/src\gd32vw55x_platform.c **** void hw_crc32_disable(void)
 424:C:/Users/stapi/OneDrive/Desktop/GD32VW553/V1_MQTT_OK/GD32VW55X_Wifi_BLE_SDK/GD32VW55x_RELEASE_V1.0.2/MSDK/plf/src\gd32vw55x_platform.c **** {
 936              		.loc 1 424 1 is_stmt 1
 937              		.cfi_startproc
 425:C:/Users/stapi/OneDrive/Desktop/GD32VW553/V1_MQTT_OK/GD32VW55X_Wifi_BLE_SDK/GD32VW55x_RELEASE_V1.0.2/MSDK/plf/src\gd32vw55x_platform.c ****     rcu_periph_clock_disable(RCU_CRC);
 938              		.loc 1 425 5
 939 0000 0565     		li	a0,4096
 940 0002 1305C5C0 		addi	a0,a0,-1012
 941 0006 17030000 		tail	rcu_periph_clock_disable
 941      67000300 
 942              	.LVL74:
 943              		.cfi_endproc
 944              	.LFE403:
 946              		.section	.text.ble_wakelock_acquire,"ax",@progbits
 947              		.align	1
 948              		.globl	ble_wakelock_acquire
 950              	ble_wakelock_acquire:
 951              	.LFB404:
 426:C:/Users/stapi/OneDrive/Desktop/GD32VW553/V1_MQTT_OK/GD32VW55X_Wifi_BLE_SDK/GD32VW55x_RELEASE_V1.0.2/MSDK/plf/src\gd32vw55x_platform.c **** }
 427:C:/Users/stapi/OneDrive/Desktop/GD32VW553/V1_MQTT_OK/GD32VW55X_Wifi_BLE_SDK/GD32VW55x_RELEASE_V1.0.2/MSDK/plf/src\gd32vw55x_platform.c **** 
 428:C:/Users/stapi/OneDrive/Desktop/GD32VW553/V1_MQTT_OK/GD32VW55X_Wifi_BLE_SDK/GD32VW55x_RELEASE_V1.0.2/MSDK/plf/src\gd32vw55x_platform.c **** /*!
 429:C:/Users/stapi/OneDrive/Desktop/GD32VW553/V1_MQTT_OK/GD32VW55X_Wifi_BLE_SDK/GD32VW55x_RELEASE_V1.0.2/MSDK/plf/src\gd32vw55x_platform.c ****     \brief      acquire ble wakelock
 430:C:/Users/stapi/OneDrive/Desktop/GD32VW553/V1_MQTT_OK/GD32VW55X_Wifi_BLE_SDK/GD32VW55x_RELEASE_V1.0.2/MSDK/plf/src\gd32vw55x_platform.c ****     \param[in]  none
 431:C:/Users/stapi/OneDrive/Desktop/GD32VW553/V1_MQTT_OK/GD32VW55X_Wifi_BLE_SDK/GD32VW55x_RELEASE_V1.0.2/MSDK/plf/src\gd32vw55x_platform.c ****     \param[out] none
 432:C:/Users/stapi/OneDrive/Desktop/GD32VW553/V1_MQTT_OK/GD32VW55X_Wifi_BLE_SDK/GD32VW55x_RELEASE_V1.0.2/MSDK/plf/src\gd32vw55x_platform.c ****     \retval     none
 433:C:/Users/stapi/OneDrive/Desktop/GD32VW553/V1_MQTT_OK/GD32VW55X_Wifi_BLE_SDK/GD32VW55x_RELEASE_V1.0.2/MSDK/plf/src\gd32vw55x_platform.c **** */
 434:C:/Users/stapi/OneDrive/Desktop/GD32VW553/V1_MQTT_OK/GD32VW55X_Wifi_BLE_SDK/GD32VW55x_RELEASE_V1.0.2/MSDK/plf/src\gd32vw55x_platform.c **** void ble_wakelock_acquire(void)
 435:C:/Users/stapi/OneDrive/Desktop/GD32VW553/V1_MQTT_OK/GD32VW55X_Wifi_BLE_SDK/GD32VW55x_RELEASE_V1.0.2/MSDK/plf/src\gd32vw55x_platform.c **** {
 952              		.loc 1 435 1
 953              		.cfi_startproc
 436:C:/Users/stapi/OneDrive/Desktop/GD32VW553/V1_MQTT_OK/GD32VW55X_Wifi_BLE_SDK/GD32VW55x_RELEASE_V1.0.2/MSDK/plf/src\gd32vw55x_platform.c ****     sys_wakelock_acquire(LOCK_ID_BLE);
 954              		.loc 1 436 5
 955 0000 0D45     		li	a0,3
 956 0002 17030000 		tail	sys_wakelock_acquire
 956      67000300 
 957              	.LVL75:
 958              		.cfi_endproc
 959              	.LFE404:
 961              		.section	.text.ble_wakelock_release,"ax",@progbits
 962              		.align	1
 963              		.globl	ble_wakelock_release
 965              	ble_wakelock_release:
 966              	.LFB405:
 437:C:/Users/stapi/OneDrive/Desktop/GD32VW553/V1_MQTT_OK/GD32VW55X_Wifi_BLE_SDK/GD32VW55x_RELEASE_V1.0.2/MSDK/plf/src\gd32vw55x_platform.c **** }
 438:C:/Users/stapi/OneDrive/Desktop/GD32VW553/V1_MQTT_OK/GD32VW55X_Wifi_BLE_SDK/GD32VW55x_RELEASE_V1.0.2/MSDK/plf/src\gd32vw55x_platform.c **** 
 439:C:/Users/stapi/OneDrive/Desktop/GD32VW553/V1_MQTT_OK/GD32VW55X_Wifi_BLE_SDK/GD32VW55x_RELEASE_V1.0.2/MSDK/plf/src\gd32vw55x_platform.c **** /*!
 440:C:/Users/stapi/OneDrive/Desktop/GD32VW553/V1_MQTT_OK/GD32VW55X_Wifi_BLE_SDK/GD32VW55x_RELEASE_V1.0.2/MSDK/plf/src\gd32vw55x_platform.c ****     \brief      release ble wakelock
 441:C:/Users/stapi/OneDrive/Desktop/GD32VW553/V1_MQTT_OK/GD32VW55X_Wifi_BLE_SDK/GD32VW55x_RELEASE_V1.0.2/MSDK/plf/src\gd32vw55x_platform.c ****     \param[in]  none
 442:C:/Users/stapi/OneDrive/Desktop/GD32VW553/V1_MQTT_OK/GD32VW55X_Wifi_BLE_SDK/GD32VW55x_RELEASE_V1.0.2/MSDK/plf/src\gd32vw55x_platform.c ****     \param[out] none
 443:C:/Users/stapi/OneDrive/Desktop/GD32VW553/V1_MQTT_OK/GD32VW55X_Wifi_BLE_SDK/GD32VW55x_RELEASE_V1.0.2/MSDK/plf/src\gd32vw55x_platform.c ****     \retval     none
 444:C:/Users/stapi/OneDrive/Desktop/GD32VW553/V1_MQTT_OK/GD32VW55X_Wifi_BLE_SDK/GD32VW55x_RELEASE_V1.0.2/MSDK/plf/src\gd32vw55x_platform.c **** */
 445:C:/Users/stapi/OneDrive/Desktop/GD32VW553/V1_MQTT_OK/GD32VW55X_Wifi_BLE_SDK/GD32VW55x_RELEASE_V1.0.2/MSDK/plf/src\gd32vw55x_platform.c **** void ble_wakelock_release(void)
 446:C:/Users/stapi/OneDrive/Desktop/GD32VW553/V1_MQTT_OK/GD32VW55X_Wifi_BLE_SDK/GD32VW55x_RELEASE_V1.0.2/MSDK/plf/src\gd32vw55x_platform.c **** {
 967              		.loc 1 446 1
 968              		.cfi_startproc
 447:C:/Users/stapi/OneDrive/Desktop/GD32VW553/V1_MQTT_OK/GD32VW55X_Wifi_BLE_SDK/GD32VW55x_RELEASE_V1.0.2/MSDK/plf/src\gd32vw55x_platform.c ****     sys_wakelock_release(LOCK_ID_BLE);
 969              		.loc 1 447 5
 970 0000 0D45     		li	a0,3
 971 0002 17030000 		tail	sys_wakelock_release
 971      67000300 
 972              	.LVL76:
 973              		.cfi_endproc
 974              	.LFE405:
 976              		.section	.text.wifi_wakelock_acquire,"ax",@progbits
 977              		.align	1
 978              		.globl	wifi_wakelock_acquire
 980              	wifi_wakelock_acquire:
 981              	.LFB406:
 448:C:/Users/stapi/OneDrive/Desktop/GD32VW553/V1_MQTT_OK/GD32VW55X_Wifi_BLE_SDK/GD32VW55x_RELEASE_V1.0.2/MSDK/plf/src\gd32vw55x_platform.c **** }
 449:C:/Users/stapi/OneDrive/Desktop/GD32VW553/V1_MQTT_OK/GD32VW55X_Wifi_BLE_SDK/GD32VW55x_RELEASE_V1.0.2/MSDK/plf/src\gd32vw55x_platform.c **** 
 450:C:/Users/stapi/OneDrive/Desktop/GD32VW553/V1_MQTT_OK/GD32VW55X_Wifi_BLE_SDK/GD32VW55x_RELEASE_V1.0.2/MSDK/plf/src\gd32vw55x_platform.c **** #ifdef CFG_WLAN_SUPPORT
 451:C:/Users/stapi/OneDrive/Desktop/GD32VW553/V1_MQTT_OK/GD32VW55X_Wifi_BLE_SDK/GD32VW55x_RELEASE_V1.0.2/MSDK/plf/src\gd32vw55x_platform.c **** /*!
 452:C:/Users/stapi/OneDrive/Desktop/GD32VW553/V1_MQTT_OK/GD32VW55X_Wifi_BLE_SDK/GD32VW55x_RELEASE_V1.0.2/MSDK/plf/src\gd32vw55x_platform.c ****     \brief      acquire wifi wakelock
 453:C:/Users/stapi/OneDrive/Desktop/GD32VW553/V1_MQTT_OK/GD32VW55X_Wifi_BLE_SDK/GD32VW55x_RELEASE_V1.0.2/MSDK/plf/src\gd32vw55x_platform.c ****     \param[in]  none
 454:C:/Users/stapi/OneDrive/Desktop/GD32VW553/V1_MQTT_OK/GD32VW55X_Wifi_BLE_SDK/GD32VW55x_RELEASE_V1.0.2/MSDK/plf/src\gd32vw55x_platform.c ****     \param[out] none
 455:C:/Users/stapi/OneDrive/Desktop/GD32VW553/V1_MQTT_OK/GD32VW55X_Wifi_BLE_SDK/GD32VW55x_RELEASE_V1.0.2/MSDK/plf/src\gd32vw55x_platform.c ****     \retval     none
 456:C:/Users/stapi/OneDrive/Desktop/GD32VW553/V1_MQTT_OK/GD32VW55X_Wifi_BLE_SDK/GD32VW55x_RELEASE_V1.0.2/MSDK/plf/src\gd32vw55x_platform.c **** */
 457:C:/Users/stapi/OneDrive/Desktop/GD32VW553/V1_MQTT_OK/GD32VW55X_Wifi_BLE_SDK/GD32VW55x_RELEASE_V1.0.2/MSDK/plf/src\gd32vw55x_platform.c **** void wifi_wakelock_acquire(void)
 458:C:/Users/stapi/OneDrive/Desktop/GD32VW553/V1_MQTT_OK/GD32VW55X_Wifi_BLE_SDK/GD32VW55x_RELEASE_V1.0.2/MSDK/plf/src\gd32vw55x_platform.c **** {
 982              		.loc 1 458 1
 983              		.cfi_startproc
 459:C:/Users/stapi/OneDrive/Desktop/GD32VW553/V1_MQTT_OK/GD32VW55X_Wifi_BLE_SDK/GD32VW55x_RELEASE_V1.0.2/MSDK/plf/src\gd32vw55x_platform.c ****     sys_wakelock_acquire(LOCK_ID_WLAN);
 984              		.loc 1 459 5
 985 0000 0145     		li	a0,0
 986 0002 17030000 		tail	sys_wakelock_acquire
 986      67000300 
 987              	.LVL77:
 988              		.cfi_endproc
 989              	.LFE406:
 991              		.section	.text.wifi_wakelock_release,"ax",@progbits
 992              		.align	1
 993              		.globl	wifi_wakelock_release
 995              	wifi_wakelock_release:
 996              	.LFB407:
 460:C:/Users/stapi/OneDrive/Desktop/GD32VW553/V1_MQTT_OK/GD32VW55X_Wifi_BLE_SDK/GD32VW55x_RELEASE_V1.0.2/MSDK/plf/src\gd32vw55x_platform.c **** }
 461:C:/Users/stapi/OneDrive/Desktop/GD32VW553/V1_MQTT_OK/GD32VW55X_Wifi_BLE_SDK/GD32VW55x_RELEASE_V1.0.2/MSDK/plf/src\gd32vw55x_platform.c **** 
 462:C:/Users/stapi/OneDrive/Desktop/GD32VW553/V1_MQTT_OK/GD32VW55X_Wifi_BLE_SDK/GD32VW55x_RELEASE_V1.0.2/MSDK/plf/src\gd32vw55x_platform.c **** /*!
 463:C:/Users/stapi/OneDrive/Desktop/GD32VW553/V1_MQTT_OK/GD32VW55X_Wifi_BLE_SDK/GD32VW55x_RELEASE_V1.0.2/MSDK/plf/src\gd32vw55x_platform.c ****     \brief      release wifi wakelock
 464:C:/Users/stapi/OneDrive/Desktop/GD32VW553/V1_MQTT_OK/GD32VW55X_Wifi_BLE_SDK/GD32VW55x_RELEASE_V1.0.2/MSDK/plf/src\gd32vw55x_platform.c ****     \param[in]  none
 465:C:/Users/stapi/OneDrive/Desktop/GD32VW553/V1_MQTT_OK/GD32VW55X_Wifi_BLE_SDK/GD32VW55x_RELEASE_V1.0.2/MSDK/plf/src\gd32vw55x_platform.c ****     \param[out] none
 466:C:/Users/stapi/OneDrive/Desktop/GD32VW553/V1_MQTT_OK/GD32VW55X_Wifi_BLE_SDK/GD32VW55x_RELEASE_V1.0.2/MSDK/plf/src\gd32vw55x_platform.c ****     \retval     none
 467:C:/Users/stapi/OneDrive/Desktop/GD32VW553/V1_MQTT_OK/GD32VW55X_Wifi_BLE_SDK/GD32VW55x_RELEASE_V1.0.2/MSDK/plf/src\gd32vw55x_platform.c **** */
 468:C:/Users/stapi/OneDrive/Desktop/GD32VW553/V1_MQTT_OK/GD32VW55X_Wifi_BLE_SDK/GD32VW55x_RELEASE_V1.0.2/MSDK/plf/src\gd32vw55x_platform.c **** void wifi_wakelock_release(void)
 469:C:/Users/stapi/OneDrive/Desktop/GD32VW553/V1_MQTT_OK/GD32VW55X_Wifi_BLE_SDK/GD32VW55x_RELEASE_V1.0.2/MSDK/plf/src\gd32vw55x_platform.c **** {
 997              		.loc 1 469 1
 998              		.cfi_startproc
 470:C:/Users/stapi/OneDrive/Desktop/GD32VW553/V1_MQTT_OK/GD32VW55X_Wifi_BLE_SDK/GD32VW55x_RELEASE_V1.0.2/MSDK/plf/src\gd32vw55x_platform.c ****     sys_wakelock_release(LOCK_ID_WLAN);
 999              		.loc 1 470 5
 1000 0000 0145     		li	a0,0
 1001 0002 17030000 		tail	sys_wakelock_release
 1001      67000300 
 1002              	.LVL78:
 1003              		.cfi_endproc
 1004              	.LFE407:
 1006              		.section	.text.wifi_pmu_config,"ax",@progbits
 1007              		.align	1
 1008              		.globl	wifi_pmu_config
 1010              	wifi_pmu_config:
 1011              	.LFB408:
 471:C:/Users/stapi/OneDrive/Desktop/GD32VW553/V1_MQTT_OK/GD32VW55X_Wifi_BLE_SDK/GD32VW55x_RELEASE_V1.0.2/MSDK/plf/src\gd32vw55x_platform.c **** }
 472:C:/Users/stapi/OneDrive/Desktop/GD32VW553/V1_MQTT_OK/GD32VW55X_Wifi_BLE_SDK/GD32VW55x_RELEASE_V1.0.2/MSDK/plf/src\gd32vw55x_platform.c **** 
 473:C:/Users/stapi/OneDrive/Desktop/GD32VW553/V1_MQTT_OK/GD32VW55X_Wifi_BLE_SDK/GD32VW55x_RELEASE_V1.0.2/MSDK/plf/src\gd32vw55x_platform.c **** #ifdef CONFIG_PLATFORM_ASIC
 474:C:/Users/stapi/OneDrive/Desktop/GD32VW553/V1_MQTT_OK/GD32VW55X_Wifi_BLE_SDK/GD32VW55x_RELEASE_V1.0.2/MSDK/plf/src\gd32vw55x_platform.c **** void wifi_pmu_config(void)
 475:C:/Users/stapi/OneDrive/Desktop/GD32VW553/V1_MQTT_OK/GD32VW55X_Wifi_BLE_SDK/GD32VW55x_RELEASE_V1.0.2/MSDK/plf/src\gd32vw55x_platform.c **** {
 1012              		.loc 1 475 1
 1013              		.cfi_startproc
 1014 0000 17030000 		call	t0,__riscv_save_2
 1014      E7020300 
 1015              		.cfi_offset 9, -12
 1016              		.cfi_offset 8, -8
 1017              		.cfi_offset 1, -4
 1018              		.cfi_def_cfa_offset 16
 476:C:/Users/stapi/OneDrive/Desktop/GD32VW553/V1_MQTT_OK/GD32VW55X_Wifi_BLE_SDK/GD32VW55x_RELEASE_V1.0.2/MSDK/plf/src\gd32vw55x_platform.c ****     /* PMU enable WLAN power */
 477:C:/Users/stapi/OneDrive/Desktop/GD32VW553/V1_MQTT_OK/GD32VW55X_Wifi_BLE_SDK/GD32VW55x_RELEASE_V1.0.2/MSDK/plf/src\gd32vw55x_platform.c ****     pmu_wifi_power_enable();
 1019              		.loc 1 477 5
 1020 0008 97000000 		call	pmu_wifi_power_enable
 1020      E7800000 
 1021              	.LVL79:
 478:C:/Users/stapi/OneDrive/Desktop/GD32VW553/V1_MQTT_OK/GD32VW55X_Wifi_BLE_SDK/GD32VW55x_RELEASE_V1.0.2/MSDK/plf/src\gd32vw55x_platform.c ****     /* wlan is in sleep state by default, set wlan_wake command to PMU to switch wlan power state *
 479:C:/Users/stapi/OneDrive/Desktop/GD32VW553/V1_MQTT_OK/GD32VW55X_Wifi_BLE_SDK/GD32VW55x_RELEASE_V1.0.2/MSDK/plf/src\gd32vw55x_platform.c ****     pmu_wifi_sram_control(PMU_WIFI_WAKE);
 1022              		.loc 1 479 5
 1023 0010 2145     		li	a0,8
 480:C:/Users/stapi/OneDrive/Desktop/GD32VW553/V1_MQTT_OK/GD32VW55X_Wifi_BLE_SDK/GD32VW55x_RELEASE_V1.0.2/MSDK/plf/src\gd32vw55x_platform.c **** 
 481:C:/Users/stapi/OneDrive/Desktop/GD32VW553/V1_MQTT_OK/GD32VW55X_Wifi_BLE_SDK/GD32VW55x_RELEASE_V1.0.2/MSDK/plf/src\gd32vw55x_platform.c ****     /* polling PMU to confirm wlan is switched from sleep state */
 482:C:/Users/stapi/OneDrive/Desktop/GD32VW553/V1_MQTT_OK/GD32VW55X_Wifi_BLE_SDK/GD32VW55x_RELEASE_V1.0.2/MSDK/plf/src\gd32vw55x_platform.c ****     while (pmu_flag_get(PMU_FLAG_WIFI_ACTIVE) != SET) {
 1024              		.loc 1 482 12 is_stmt 0
 1025 0012 37040080 		li	s0,-2147483648
 479:C:/Users/stapi/OneDrive/Desktop/GD32VW553/V1_MQTT_OK/GD32VW55X_Wifi_BLE_SDK/GD32VW55x_RELEASE_V1.0.2/MSDK/plf/src\gd32vw55x_platform.c **** 
 1026              		.loc 1 479 5
 1027 0016 97000000 		call	pmu_wifi_sram_control
 1027      E7800000 
 1028              	.LVL80:
 1029              		.loc 1 482 5 is_stmt 1
 1030              		.loc 1 482 12 is_stmt 0
 1031 001e 2104     		addi	s0,s0,8
 1032              		.loc 1 482 11
 1033 0020 8544     		li	s1,1
 1034              	.L98:
 1035              		.loc 1 482 11 is_stmt 1
 1036              		.loc 1 482 12 is_stmt 0
 1037 0022 2285     		mv	a0,s0
 1038 0024 97000000 		call	pmu_flag_get
 1038      E7800000 
 1039              	.LVL81:
 1040              		.loc 1 482 11
 1041 002c 63169500 		bne	a0,s1,.L99
 483:C:/Users/stapi/OneDrive/Desktop/GD32VW553/V1_MQTT_OK/GD32VW55X_Wifi_BLE_SDK/GD32VW55x_RELEASE_V1.0.2/MSDK/plf/src\gd32vw55x_platform.c ****         pmu_wifi_sram_control(PMU_WIFI_WAKE);
 484:C:/Users/stapi/OneDrive/Desktop/GD32VW553/V1_MQTT_OK/GD32VW55X_Wifi_BLE_SDK/GD32VW55x_RELEASE_V1.0.2/MSDK/plf/src\gd32vw55x_platform.c ****         systick_udelay(50);
 485:C:/Users/stapi/OneDrive/Desktop/GD32VW553/V1_MQTT_OK/GD32VW55X_Wifi_BLE_SDK/GD32VW55x_RELEASE_V1.0.2/MSDK/plf/src\gd32vw55x_platform.c ****     }
 486:C:/Users/stapi/OneDrive/Desktop/GD32VW553/V1_MQTT_OK/GD32VW55X_Wifi_BLE_SDK/GD32VW55x_RELEASE_V1.0.2/MSDK/plf/src\gd32vw55x_platform.c **** }
 1042              		.loc 1 486 1
 1043 0030 17030000 		tail	__riscv_restore_2
 1043      67000300 
 1044              		.cfi_remember_state
 1045              		.cfi_restore 9
 1046              		.cfi_restore 8
 1047              		.cfi_restore 1
 1048              		.cfi_def_cfa_offset 0
 1049              	.L99:
 1050              		.cfi_restore_state
 483:C:/Users/stapi/OneDrive/Desktop/GD32VW553/V1_MQTT_OK/GD32VW55X_Wifi_BLE_SDK/GD32VW55x_RELEASE_V1.0.2/MSDK/plf/src\gd32vw55x_platform.c ****         pmu_wifi_sram_control(PMU_WIFI_WAKE);
 1051              		.loc 1 483 9 is_stmt 1
 1052 0038 2145     		li	a0,8
 1053 003a 97000000 		call	pmu_wifi_sram_control
 1053      E7800000 
 1054              	.LVL82:
 484:C:/Users/stapi/OneDrive/Desktop/GD32VW553/V1_MQTT_OK/GD32VW55X_Wifi_BLE_SDK/GD32VW55x_RELEASE_V1.0.2/MSDK/plf/src\gd32vw55x_platform.c ****     }
 1055              		.loc 1 484 9
 1056 0042 13052003 		li	a0,50
 1057 0046 97000000 		call	systick_udelay
 1057      E7800000 
 1058              	.LVL83:
 1059 004e D1BF     		j	.L98
 1060              		.cfi_endproc
 1061              	.LFE408:
 1063              		.section	.text.wifi_rcc_config,"ax",@progbits
 1064              		.align	1
 1065              		.globl	wifi_rcc_config
 1067              	wifi_rcc_config:
 1068              	.LFB409:
 487:C:/Users/stapi/OneDrive/Desktop/GD32VW553/V1_MQTT_OK/GD32VW55X_Wifi_BLE_SDK/GD32VW55x_RELEASE_V1.0.2/MSDK/plf/src\gd32vw55x_platform.c **** 
 488:C:/Users/stapi/OneDrive/Desktop/GD32VW553/V1_MQTT_OK/GD32VW55X_Wifi_BLE_SDK/GD32VW55x_RELEASE_V1.0.2/MSDK/plf/src\gd32vw55x_platform.c **** void wifi_rcc_config(void)
 489:C:/Users/stapi/OneDrive/Desktop/GD32VW553/V1_MQTT_OK/GD32VW55X_Wifi_BLE_SDK/GD32VW55x_RELEASE_V1.0.2/MSDK/plf/src\gd32vw55x_platform.c **** {
 1069              		.loc 1 489 1
 1070              		.cfi_startproc
 1071 0000 17030000 		call	t0,__riscv_save_1
 1071      E7020300 
 1072              		.cfi_offset 8, -8
 1073              		.cfi_offset 1, -4
 1074              		.cfi_def_cfa_offset 16
 490:C:/Users/stapi/OneDrive/Desktop/GD32VW553/V1_MQTT_OK/GD32VW55X_Wifi_BLE_SDK/GD32VW55x_RELEASE_V1.0.2/MSDK/plf/src\gd32vw55x_platform.c ****     rcu_periph_clock_enable(RCU_WIFI);
 1075              		.loc 1 490 5
 1076 0008 0564     		li	s0,4096
 1077 000a 1305D4C0 		addi	a0,s0,-1011
 1078 000e 97000000 		call	rcu_periph_clock_enable
 1078      E7800000 
 1079              	.LVL84:
 491:C:/Users/stapi/OneDrive/Desktop/GD32VW553/V1_MQTT_OK/GD32VW55X_Wifi_BLE_SDK/GD32VW55x_RELEASE_V1.0.2/MSDK/plf/src\gd32vw55x_platform.c ****     rcu_periph_clock_enable(RCU_WIFIRUN);
 1080              		.loc 1 491 5
 1081 0016 1305E4C0 		addi	a0,s0,-1010
 1082 001a 97000000 		call	rcu_periph_clock_enable
 1082      E7800000 
 1083              	.LVL85:
 492:C:/Users/stapi/OneDrive/Desktop/GD32VW553/V1_MQTT_OK/GD32VW55X_Wifi_BLE_SDK/GD32VW55x_RELEASE_V1.0.2/MSDK/plf/src\gd32vw55x_platform.c ****     rcu_periph_reset_enable(RCU_WIFIRST);
 1084              		.loc 1 492 5
 1085 0022 1305D040 		li	a0,1037
 1086 0026 97000000 		call	rcu_periph_reset_enable
 1086      E7800000 
 1087              	.LVL86:
 493:C:/Users/stapi/OneDrive/Desktop/GD32VW553/V1_MQTT_OK/GD32VW55X_Wifi_BLE_SDK/GD32VW55x_RELEASE_V1.0.2/MSDK/plf/src\gd32vw55x_platform.c ****     rcu_periph_reset_disable(RCU_WIFIRST);
 1088              		.loc 1 493 5
 1089 002e 1305D040 		li	a0,1037
 1090 0032 97000000 		call	rcu_periph_reset_disable
 1090      E7800000 
 1091              	.LVL87:
 494:C:/Users/stapi/OneDrive/Desktop/GD32VW553/V1_MQTT_OK/GD32VW55X_Wifi_BLE_SDK/GD32VW55x_RELEASE_V1.0.2/MSDK/plf/src\gd32vw55x_platform.c **** }
 1092              		.loc 1 494 1 is_stmt 0
 1093 003a 17030000 		tail	__riscv_restore_1
 1093      67000300 
 1094              		.cfi_restore 8
 1095              		.cfi_restore 1
 1096              		.cfi_def_cfa_offset 0
 1097              		.cfi_endproc
 1098              	.LFE409:
 1100              		.section	.text.wifi_irq_enable,"ax",@progbits
 1101              		.align	1
 1102              		.globl	wifi_irq_enable
 1104              	wifi_irq_enable:
 1105              	.LFB410:
 495:C:/Users/stapi/OneDrive/Desktop/GD32VW553/V1_MQTT_OK/GD32VW55X_Wifi_BLE_SDK/GD32VW55x_RELEASE_V1.0.2/MSDK/plf/src\gd32vw55x_platform.c **** 
 496:C:/Users/stapi/OneDrive/Desktop/GD32VW553/V1_MQTT_OK/GD32VW55X_Wifi_BLE_SDK/GD32VW55x_RELEASE_V1.0.2/MSDK/plf/src\gd32vw55x_platform.c **** #else  /* CONFIG_PLATFORM_ASIC */
 497:C:/Users/stapi/OneDrive/Desktop/GD32VW553/V1_MQTT_OK/GD32VW55X_Wifi_BLE_SDK/GD32VW55x_RELEASE_V1.0.2/MSDK/plf/src\gd32vw55x_platform.c **** 
 498:C:/Users/stapi/OneDrive/Desktop/GD32VW553/V1_MQTT_OK/GD32VW55X_Wifi_BLE_SDK/GD32VW55x_RELEASE_V1.0.2/MSDK/plf/src\gd32vw55x_platform.c **** void wifi_pmu_config(void)
 499:C:/Users/stapi/OneDrive/Desktop/GD32VW553/V1_MQTT_OK/GD32VW55X_Wifi_BLE_SDK/GD32VW55x_RELEASE_V1.0.2/MSDK/plf/src\gd32vw55x_platform.c **** {
 500:C:/Users/stapi/OneDrive/Desktop/GD32VW553/V1_MQTT_OK/GD32VW55X_Wifi_BLE_SDK/GD32VW55x_RELEASE_V1.0.2/MSDK/plf/src\gd32vw55x_platform.c ****     /* PMU enable WLAN power */
 501:C:/Users/stapi/OneDrive/Desktop/GD32VW553/V1_MQTT_OK/GD32VW55X_Wifi_BLE_SDK/GD32VW55x_RELEASE_V1.0.2/MSDK/plf/src\gd32vw55x_platform.c ****     REG32(PMU + 0x08) |= BIT(1);
 502:C:/Users/stapi/OneDrive/Desktop/GD32VW553/V1_MQTT_OK/GD32VW55X_Wifi_BLE_SDK/GD32VW55x_RELEASE_V1.0.2/MSDK/plf/src\gd32vw55x_platform.c ****     /* wlan is in sleep state by default, set wlan_wake command to PMU to switch wlan power state *
 503:C:/Users/stapi/OneDrive/Desktop/GD32VW553/V1_MQTT_OK/GD32VW55X_Wifi_BLE_SDK/GD32VW55x_RELEASE_V1.0.2/MSDK/plf/src\gd32vw55x_platform.c ****     REG32(PMU + 0x08) |= BIT(3);
 504:C:/Users/stapi/OneDrive/Desktop/GD32VW553/V1_MQTT_OK/GD32VW55X_Wifi_BLE_SDK/GD32VW55x_RELEASE_V1.0.2/MSDK/plf/src\gd32vw55x_platform.c **** 
 505:C:/Users/stapi/OneDrive/Desktop/GD32VW553/V1_MQTT_OK/GD32VW55X_Wifi_BLE_SDK/GD32VW55x_RELEASE_V1.0.2/MSDK/plf/src\gd32vw55x_platform.c ****     /* polling PMU to confirm wlan is switched from sleep state */
 506:C:/Users/stapi/OneDrive/Desktop/GD32VW553/V1_MQTT_OK/GD32VW55X_Wifi_BLE_SDK/GD32VW55x_RELEASE_V1.0.2/MSDK/plf/src\gd32vw55x_platform.c ****     //while ((REG32(PMU + 0x0c) & BIT(2)) == 0) {
 507:C:/Users/stapi/OneDrive/Desktop/GD32VW553/V1_MQTT_OK/GD32VW55X_Wifi_BLE_SDK/GD32VW55x_RELEASE_V1.0.2/MSDK/plf/src\gd32vw55x_platform.c ****     //}
 508:C:/Users/stapi/OneDrive/Desktop/GD32VW553/V1_MQTT_OK/GD32VW55X_Wifi_BLE_SDK/GD32VW55x_RELEASE_V1.0.2/MSDK/plf/src\gd32vw55x_platform.c **** }
 509:C:/Users/stapi/OneDrive/Desktop/GD32VW553/V1_MQTT_OK/GD32VW55X_Wifi_BLE_SDK/GD32VW55x_RELEASE_V1.0.2/MSDK/plf/src\gd32vw55x_platform.c **** 
 510:C:/Users/stapi/OneDrive/Desktop/GD32VW553/V1_MQTT_OK/GD32VW55X_Wifi_BLE_SDK/GD32VW55x_RELEASE_V1.0.2/MSDK/plf/src\gd32vw55x_platform.c **** void wifi_rcc_config(void)
 511:C:/Users/stapi/OneDrive/Desktop/GD32VW553/V1_MQTT_OK/GD32VW55X_Wifi_BLE_SDK/GD32VW55x_RELEASE_V1.0.2/MSDK/plf/src\gd32vw55x_platform.c **** {
 512:C:/Users/stapi/OneDrive/Desktop/GD32VW553/V1_MQTT_OK/GD32VW55X_Wifi_BLE_SDK/GD32VW55x_RELEASE_V1.0.2/MSDK/plf/src\gd32vw55x_platform.c ****     /* wlan enable, wlan run enable */
 513:C:/Users/stapi/OneDrive/Desktop/GD32VW553/V1_MQTT_OK/GD32VW55X_Wifi_BLE_SDK/GD32VW55x_RELEASE_V1.0.2/MSDK/plf/src\gd32vw55x_platform.c ****     REG32(RCU + 0x30) |= 0x00006000;
 514:C:/Users/stapi/OneDrive/Desktop/GD32VW553/V1_MQTT_OK/GD32VW55X_Wifi_BLE_SDK/GD32VW55x_RELEASE_V1.0.2/MSDK/plf/src\gd32vw55x_platform.c **** 
 515:C:/Users/stapi/OneDrive/Desktop/GD32VW553/V1_MQTT_OK/GD32VW55X_Wifi_BLE_SDK/GD32VW55x_RELEASE_V1.0.2/MSDK/plf/src\gd32vw55x_platform.c ****     /* pwr */
 516:C:/Users/stapi/OneDrive/Desktop/GD32VW553/V1_MQTT_OK/GD32VW55X_Wifi_BLE_SDK/GD32VW55x_RELEASE_V1.0.2/MSDK/plf/src\gd32vw55x_platform.c ****     REG32(0x40007080) = 0x00040000;
 517:C:/Users/stapi/OneDrive/Desktop/GD32VW553/V1_MQTT_OK/GD32VW55X_Wifi_BLE_SDK/GD32VW55x_RELEASE_V1.0.2/MSDK/plf/src\gd32vw55x_platform.c **** }
 518:C:/Users/stapi/OneDrive/Desktop/GD32VW553/V1_MQTT_OK/GD32VW55X_Wifi_BLE_SDK/GD32VW55x_RELEASE_V1.0.2/MSDK/plf/src\gd32vw55x_platform.c **** 
 519:C:/Users/stapi/OneDrive/Desktop/GD32VW553/V1_MQTT_OK/GD32VW55X_Wifi_BLE_SDK/GD32VW55x_RELEASE_V1.0.2/MSDK/plf/src\gd32vw55x_platform.c **** 
 520:C:/Users/stapi/OneDrive/Desktop/GD32VW553/V1_MQTT_OK/GD32VW55X_Wifi_BLE_SDK/GD32VW55x_RELEASE_V1.0.2/MSDK/plf/src\gd32vw55x_platform.c **** void wifi_pll_reset(void)
 521:C:/Users/stapi/OneDrive/Desktop/GD32VW553/V1_MQTT_OK/GD32VW55X_Wifi_BLE_SDK/GD32VW55x_RELEASE_V1.0.2/MSDK/plf/src\gd32vw55x_platform.c **** {
 522:C:/Users/stapi/OneDrive/Desktop/GD32VW553/V1_MQTT_OK/GD32VW55X_Wifi_BLE_SDK/GD32VW55x_RELEASE_V1.0.2/MSDK/plf/src\gd32vw55x_platform.c ****     REG32(RCU + 0xa0) |= 0x00180000;
 523:C:/Users/stapi/OneDrive/Desktop/GD32VW553/V1_MQTT_OK/GD32VW55X_Wifi_BLE_SDK/GD32VW55x_RELEASE_V1.0.2/MSDK/plf/src\gd32vw55x_platform.c ****     REG32(RCU + 0xa0) &= (~0x00180000);
 524:C:/Users/stapi/OneDrive/Desktop/GD32VW553/V1_MQTT_OK/GD32VW55X_Wifi_BLE_SDK/GD32VW55x_RELEASE_V1.0.2/MSDK/plf/src\gd32vw55x_platform.c **** }
 525:C:/Users/stapi/OneDrive/Desktop/GD32VW553/V1_MQTT_OK/GD32VW55X_Wifi_BLE_SDK/GD32VW55x_RELEASE_V1.0.2/MSDK/plf/src\gd32vw55x_platform.c **** 
 526:C:/Users/stapi/OneDrive/Desktop/GD32VW553/V1_MQTT_OK/GD32VW55X_Wifi_BLE_SDK/GD32VW55x_RELEASE_V1.0.2/MSDK/plf/src\gd32vw55x_platform.c **** #endif  /* CONFIG_PLATFORM_ASIC */
 527:C:/Users/stapi/OneDrive/Desktop/GD32VW553/V1_MQTT_OK/GD32VW55X_Wifi_BLE_SDK/GD32VW55x_RELEASE_V1.0.2/MSDK/plf/src\gd32vw55x_platform.c **** 
 528:C:/Users/stapi/OneDrive/Desktop/GD32VW553/V1_MQTT_OK/GD32VW55X_Wifi_BLE_SDK/GD32VW55x_RELEASE_V1.0.2/MSDK/plf/src\gd32vw55x_platform.c **** void wifi_irq_enable(void)
 529:C:/Users/stapi/OneDrive/Desktop/GD32VW553/V1_MQTT_OK/GD32VW55X_Wifi_BLE_SDK/GD32VW55x_RELEASE_V1.0.2/MSDK/plf/src\gd32vw55x_platform.c **** {
 1106              		.loc 1 529 1 is_stmt 1
 1107              		.cfi_startproc
 1108 0000 17030000 		call	t0,__riscv_save_0
 1108      E7020300 
 1109              		.cfi_offset 1, -4
 1110              		.cfi_def_cfa_offset 16
 530:C:/Users/stapi/OneDrive/Desktop/GD32VW553/V1_MQTT_OK/GD32VW55X_Wifi_BLE_SDK/GD32VW55x_RELEASE_V1.0.2/MSDK/plf/src\gd32vw55x_platform.c ****     /* exti interrupt wake up the cpu from deep sleep state */
 531:C:/Users/stapi/OneDrive/Desktop/GD32VW553/V1_MQTT_OK/GD32VW55X_Wifi_BLE_SDK/GD32VW55x_RELEASE_V1.0.2/MSDK/plf/src\gd32vw55x_platform.c ****     eclic_irq_enable(WIFI_WKUP_IRQn, 12, 0);
 1111              		.loc 1 531 5
 1112 0008 0146     		li	a2,0
 1113 000a B145     		li	a1,12
 1114 000c 13054005 		li	a0,84
 1115 0010 97000000 		call	eclic_irq_enable
 1115      E7800000 
 1116              	.LVL88:
 532:C:/Users/stapi/OneDrive/Desktop/GD32VW553/V1_MQTT_OK/GD32VW55X_Wifi_BLE_SDK/GD32VW55x_RELEASE_V1.0.2/MSDK/plf/src\gd32vw55x_platform.c **** 
 533:C:/Users/stapi/OneDrive/Desktop/GD32VW553/V1_MQTT_OK/GD32VW55X_Wifi_BLE_SDK/GD32VW55x_RELEASE_V1.0.2/MSDK/plf/src\gd32vw55x_platform.c ****     eclic_irq_enable(WIFI_INT_IRQn, 8, 0);
 1117              		.loc 1 533 5
 1118 0018 0146     		li	a2,0
 1119 001a A145     		li	a1,8
 1120 001c 13055006 		li	a0,101
 1121 0020 97000000 		call	eclic_irq_enable
 1121      E7800000 
 1122              	.LVL89:
 534:C:/Users/stapi/OneDrive/Desktop/GD32VW553/V1_MQTT_OK/GD32VW55X_Wifi_BLE_SDK/GD32VW55x_RELEASE_V1.0.2/MSDK/plf/src\gd32vw55x_platform.c **** #ifdef GD32VW55X_WIFI_MUL_INTS
 535:C:/Users/stapi/OneDrive/Desktop/GD32VW553/V1_MQTT_OK/GD32VW55X_Wifi_BLE_SDK/GD32VW55x_RELEASE_V1.0.2/MSDK/plf/src\gd32vw55x_platform.c ****     eclic_irq_enable(WIFI_PROT_IRQn, 8, 0);
 1123              		.loc 1 535 5
 1124 0028 0146     		li	a2,0
 1125 002a A145     		li	a1,8
 1126 002c 1305A004 		li	a0,74
 1127 0030 97000000 		call	eclic_irq_enable
 1127      E7800000 
 1128              	.LVL90:
 536:C:/Users/stapi/OneDrive/Desktop/GD32VW553/V1_MQTT_OK/GD32VW55X_Wifi_BLE_SDK/GD32VW55x_RELEASE_V1.0.2/MSDK/plf/src\gd32vw55x_platform.c ****     eclic_irq_enable(WIFI_INTGEN_IRQn, 8, 0);
 1129              		.loc 1 536 5
 1130 0038 0146     		li	a2,0
 1131 003a A145     		li	a1,8
 1132 003c 1305B004 		li	a0,75
 1133 0040 97000000 		call	eclic_irq_enable
 1133      E7800000 
 1134              	.LVL91:
 537:C:/Users/stapi/OneDrive/Desktop/GD32VW553/V1_MQTT_OK/GD32VW55X_Wifi_BLE_SDK/GD32VW55x_RELEASE_V1.0.2/MSDK/plf/src\gd32vw55x_platform.c ****     eclic_irq_enable(WIFI_TX_IRQn, 8, 0);
 1135              		.loc 1 537 5
 1136 0048 0146     		li	a2,0
 1137 004a A145     		li	a1,8
 1138 004c 1305C004 		li	a0,76
 1139 0050 97000000 		call	eclic_irq_enable
 1139      E7800000 
 1140              	.LVL92:
 538:C:/Users/stapi/OneDrive/Desktop/GD32VW553/V1_MQTT_OK/GD32VW55X_Wifi_BLE_SDK/GD32VW55x_RELEASE_V1.0.2/MSDK/plf/src\gd32vw55x_platform.c ****     eclic_irq_enable(WIFI_RX_IRQn, 8, 0);
 1141              		.loc 1 538 5
 1142 0058 0146     		li	a2,0
 1143 005a A145     		li	a1,8
 1144 005c 1305D004 		li	a0,77
 1145 0060 97000000 		call	eclic_irq_enable
 1145      E7800000 
 1146              	.LVL93:
 539:C:/Users/stapi/OneDrive/Desktop/GD32VW553/V1_MQTT_OK/GD32VW55X_Wifi_BLE_SDK/GD32VW55x_RELEASE_V1.0.2/MSDK/plf/src\gd32vw55x_platform.c **** #endif
 540:C:/Users/stapi/OneDrive/Desktop/GD32VW553/V1_MQTT_OK/GD32VW55X_Wifi_BLE_SDK/GD32VW55x_RELEASE_V1.0.2/MSDK/plf/src\gd32vw55x_platform.c ****     eclic_irq_enable(LA_IRQn, 8, 0);
 1147              		.loc 1 540 5
 1148 0068 0146     		li	a2,0
 1149 006a A145     		li	a1,8
 1150 006c 13053005 		li	a0,83
 1151 0070 97000000 		call	eclic_irq_enable
 1151      E7800000 
 1152              	.LVL94:
 541:C:/Users/stapi/OneDrive/Desktop/GD32VW553/V1_MQTT_OK/GD32VW55X_Wifi_BLE_SDK/GD32VW55x_RELEASE_V1.0.2/MSDK/plf/src\gd32vw55x_platform.c **** 
 542:C:/Users/stapi/OneDrive/Desktop/GD32VW553/V1_MQTT_OK/GD32VW55X_Wifi_BLE_SDK/GD32VW55x_RELEASE_V1.0.2/MSDK/plf/src\gd32vw55x_platform.c ****     // configure the interrupt controller
 543:C:/Users/stapi/OneDrive/Desktop/GD32VW553/V1_MQTT_OK/GD32VW55X_Wifi_BLE_SDK/GD32VW55x_RELEASE_V1.0.2/MSDK/plf/src\gd32vw55x_platform.c ****     intc_init();
 1153              		.loc 1 543 5
 1154 0078 97000000 		call	intc_init
 1154      E7800000 
 1155              	.LVL95:
 544:C:/Users/stapi/OneDrive/Desktop/GD32VW553/V1_MQTT_OK/GD32VW55X_Wifi_BLE_SDK/GD32VW55x_RELEASE_V1.0.2/MSDK/plf/src\gd32vw55x_platform.c **** }
 1156              		.loc 1 544 1 is_stmt 0
 1157 0080 17030000 		tail	__riscv_restore_0
 1157      67000300 
 1158              		.cfi_restore 1
 1159              		.cfi_def_cfa_offset 0
 1160              		.cfi_endproc
 1161              	.LFE410:
 1163              		.section	.text.wifi_irq_disable,"ax",@progbits
 1164              		.align	1
 1165              		.globl	wifi_irq_disable
 1167              	wifi_irq_disable:
 1168              	.LFB411:
 545:C:/Users/stapi/OneDrive/Desktop/GD32VW553/V1_MQTT_OK/GD32VW55X_Wifi_BLE_SDK/GD32VW55x_RELEASE_V1.0.2/MSDK/plf/src\gd32vw55x_platform.c **** 
 546:C:/Users/stapi/OneDrive/Desktop/GD32VW553/V1_MQTT_OK/GD32VW55X_Wifi_BLE_SDK/GD32VW55x_RELEASE_V1.0.2/MSDK/plf/src\gd32vw55x_platform.c **** void wifi_irq_disable(void)
 547:C:/Users/stapi/OneDrive/Desktop/GD32VW553/V1_MQTT_OK/GD32VW55X_Wifi_BLE_SDK/GD32VW55x_RELEASE_V1.0.2/MSDK/plf/src\gd32vw55x_platform.c **** {
 1169              		.loc 1 547 1 is_stmt 1
 1170              		.cfi_startproc
 1171 0000 17030000 		call	t0,__riscv_save_0
 1171      E7020300 
 1172              		.cfi_offset 1, -4
 1173              		.cfi_def_cfa_offset 16
 548:C:/Users/stapi/OneDrive/Desktop/GD32VW553/V1_MQTT_OK/GD32VW55X_Wifi_BLE_SDK/GD32VW55x_RELEASE_V1.0.2/MSDK/plf/src\gd32vw55x_platform.c ****     intc_deinit();
 1174              		.loc 1 548 5
 1175 0008 97000000 		call	intc_deinit
 1175      E7800000 
 1176              	.LVL96:
 549:C:/Users/stapi/OneDrive/Desktop/GD32VW553/V1_MQTT_OK/GD32VW55X_Wifi_BLE_SDK/GD32VW55x_RELEASE_V1.0.2/MSDK/plf/src\gd32vw55x_platform.c **** 
 550:C:/Users/stapi/OneDrive/Desktop/GD32VW553/V1_MQTT_OK/GD32VW55X_Wifi_BLE_SDK/GD32VW55x_RELEASE_V1.0.2/MSDK/plf/src\gd32vw55x_platform.c ****     eclic_irq_disable(WIFI_WKUP_IRQn);
 1177              		.loc 1 550 5
 1178 0010 13054005 		li	a0,84
 1179 0014 97000000 		call	eclic_irq_disable
 1179      E7800000 
 1180              	.LVL97:
 551:C:/Users/stapi/OneDrive/Desktop/GD32VW553/V1_MQTT_OK/GD32VW55X_Wifi_BLE_SDK/GD32VW55x_RELEASE_V1.0.2/MSDK/plf/src\gd32vw55x_platform.c **** 
 552:C:/Users/stapi/OneDrive/Desktop/GD32VW553/V1_MQTT_OK/GD32VW55X_Wifi_BLE_SDK/GD32VW55x_RELEASE_V1.0.2/MSDK/plf/src\gd32vw55x_platform.c ****     eclic_irq_disable(WIFI_INT_IRQn);
 1181              		.loc 1 552 5
 1182 001c 13055006 		li	a0,101
 1183 0020 97000000 		call	eclic_irq_disable
 1183      E7800000 
 1184              	.LVL98:
 553:C:/Users/stapi/OneDrive/Desktop/GD32VW553/V1_MQTT_OK/GD32VW55X_Wifi_BLE_SDK/GD32VW55x_RELEASE_V1.0.2/MSDK/plf/src\gd32vw55x_platform.c **** #ifdef GD32VW55X_WIFI_MUL_INTS
 554:C:/Users/stapi/OneDrive/Desktop/GD32VW553/V1_MQTT_OK/GD32VW55X_Wifi_BLE_SDK/GD32VW55x_RELEASE_V1.0.2/MSDK/plf/src\gd32vw55x_platform.c ****     eclic_irq_disable(WIFI_PROT_IRQn);
 1185              		.loc 1 554 5
 1186 0028 1305A004 		li	a0,74
 1187 002c 97000000 		call	eclic_irq_disable
 1187      E7800000 
 1188              	.LVL99:
 555:C:/Users/stapi/OneDrive/Desktop/GD32VW553/V1_MQTT_OK/GD32VW55X_Wifi_BLE_SDK/GD32VW55x_RELEASE_V1.0.2/MSDK/plf/src\gd32vw55x_platform.c ****     eclic_irq_disable(WIFI_INTGEN_IRQn);
 1189              		.loc 1 555 5
 1190 0034 1305B004 		li	a0,75
 1191 0038 97000000 		call	eclic_irq_disable
 1191      E7800000 
 1192              	.LVL100:
 556:C:/Users/stapi/OneDrive/Desktop/GD32VW553/V1_MQTT_OK/GD32VW55X_Wifi_BLE_SDK/GD32VW55x_RELEASE_V1.0.2/MSDK/plf/src\gd32vw55x_platform.c ****     eclic_irq_disable(WIFI_TX_IRQn);
 1193              		.loc 1 556 5
 1194 0040 1305C004 		li	a0,76
 1195 0044 97000000 		call	eclic_irq_disable
 1195      E7800000 
 1196              	.LVL101:
 557:C:/Users/stapi/OneDrive/Desktop/GD32VW553/V1_MQTT_OK/GD32VW55X_Wifi_BLE_SDK/GD32VW55x_RELEASE_V1.0.2/MSDK/plf/src\gd32vw55x_platform.c ****     eclic_irq_disable(WIFI_RX_IRQn);
 1197              		.loc 1 557 5
 1198 004c 1305D004 		li	a0,77
 1199 0050 97000000 		call	eclic_irq_disable
 1199      E7800000 
 1200              	.LVL102:
 558:C:/Users/stapi/OneDrive/Desktop/GD32VW553/V1_MQTT_OK/GD32VW55X_Wifi_BLE_SDK/GD32VW55x_RELEASE_V1.0.2/MSDK/plf/src\gd32vw55x_platform.c **** #endif
 559:C:/Users/stapi/OneDrive/Desktop/GD32VW553/V1_MQTT_OK/GD32VW55X_Wifi_BLE_SDK/GD32VW55x_RELEASE_V1.0.2/MSDK/plf/src\gd32vw55x_platform.c ****     eclic_irq_disable(LA_IRQn);
 1201              		.loc 1 559 5
 1202 0058 13053005 		li	a0,83
 1203 005c 97000000 		call	eclic_irq_disable
 1203      E7800000 
 1204              	.LVL103:
 560:C:/Users/stapi/OneDrive/Desktop/GD32VW553/V1_MQTT_OK/GD32VW55X_Wifi_BLE_SDK/GD32VW55x_RELEASE_V1.0.2/MSDK/plf/src\gd32vw55x_platform.c **** }
 1205              		.loc 1 560 1 is_stmt 0
 1206 0064 17030000 		tail	__riscv_restore_0
 1206      67000300 
 1207              		.cfi_restore 1
 1208              		.cfi_def_cfa_offset 0
 1209              		.cfi_endproc
 1210              	.LFE411:
 1212              		.section	.text.wifi_power_on,"ax",@progbits
 1213              		.align	1
 1214              		.globl	wifi_power_on
 1216              	wifi_power_on:
 1217              	.LFB412:
 561:C:/Users/stapi/OneDrive/Desktop/GD32VW553/V1_MQTT_OK/GD32VW55X_Wifi_BLE_SDK/GD32VW55x_RELEASE_V1.0.2/MSDK/plf/src\gd32vw55x_platform.c **** 
 562:C:/Users/stapi/OneDrive/Desktop/GD32VW553/V1_MQTT_OK/GD32VW55X_Wifi_BLE_SDK/GD32VW55x_RELEASE_V1.0.2/MSDK/plf/src\gd32vw55x_platform.c **** int wifi_power_on(void)
 563:C:/Users/stapi/OneDrive/Desktop/GD32VW553/V1_MQTT_OK/GD32VW55X_Wifi_BLE_SDK/GD32VW55x_RELEASE_V1.0.2/MSDK/plf/src\gd32vw55x_platform.c **** {
 1218              		.loc 1 563 1 is_stmt 1
 1219              		.cfi_startproc
 1220 0000 17030000 		call	t0,__riscv_save_0
 1220      E7020300 
 1221              		.cfi_offset 1, -4
 1222              		.cfi_def_cfa_offset 16
 564:C:/Users/stapi/OneDrive/Desktop/GD32VW553/V1_MQTT_OK/GD32VW55X_Wifi_BLE_SDK/GD32VW55x_RELEASE_V1.0.2/MSDK/plf/src\gd32vw55x_platform.c ****     // Enable wifi
 565:C:/Users/stapi/OneDrive/Desktop/GD32VW553/V1_MQTT_OK/GD32VW55X_Wifi_BLE_SDK/GD32VW55x_RELEASE_V1.0.2/MSDK/plf/src\gd32vw55x_platform.c ****     wifi_pmu_config();
 1223              		.loc 1 565 5
 1224 0008 97000000 		call	wifi_pmu_config
 1224      E7800000 
 1225              	.LVL104:
 566:C:/Users/stapi/OneDrive/Desktop/GD32VW553/V1_MQTT_OK/GD32VW55X_Wifi_BLE_SDK/GD32VW55x_RELEASE_V1.0.2/MSDK/plf/src\gd32vw55x_platform.c ****     wifi_rcc_config();
 1226              		.loc 1 566 5
 1227 0010 97000000 		call	wifi_rcc_config
 1227      E7800000 
 1228              	.LVL105:
 567:C:/Users/stapi/OneDrive/Desktop/GD32VW553/V1_MQTT_OK/GD32VW55X_Wifi_BLE_SDK/GD32VW55x_RELEASE_V1.0.2/MSDK/plf/src\gd32vw55x_platform.c **** 
 568:C:/Users/stapi/OneDrive/Desktop/GD32VW553/V1_MQTT_OK/GD32VW55X_Wifi_BLE_SDK/GD32VW55x_RELEASE_V1.0.2/MSDK/plf/src\gd32vw55x_platform.c ****     //wifi_irq_enable();
 569:C:/Users/stapi/OneDrive/Desktop/GD32VW553/V1_MQTT_OK/GD32VW55X_Wifi_BLE_SDK/GD32VW55x_RELEASE_V1.0.2/MSDK/plf/src\gd32vw55x_platform.c **** 
 570:C:/Users/stapi/OneDrive/Desktop/GD32VW553/V1_MQTT_OK/GD32VW55X_Wifi_BLE_SDK/GD32VW55x_RELEASE_V1.0.2/MSDK/plf/src\gd32vw55x_platform.c ****     return 0;
 1229              		.loc 1 570 5
 571:C:/Users/stapi/OneDrive/Desktop/GD32VW553/V1_MQTT_OK/GD32VW55X_Wifi_BLE_SDK/GD32VW55x_RELEASE_V1.0.2/MSDK/plf/src\gd32vw55x_platform.c **** }
 1230              		.loc 1 571 1 is_stmt 0
 1231 0018 0145     		li	a0,0
 1232 001a 17030000 		tail	__riscv_restore_0
 1232      67000300 
 1233              		.cfi_restore 1
 1234              		.cfi_def_cfa_offset 0
 1235              		.cfi_endproc
 1236              	.LFE412:
 1238              		.section	.text.wifi_power_off,"ax",@progbits
 1239              		.align	1
 1240              		.globl	wifi_power_off
 1242              	wifi_power_off:
 1243              	.LFB413:
 572:C:/Users/stapi/OneDrive/Desktop/GD32VW553/V1_MQTT_OK/GD32VW55X_Wifi_BLE_SDK/GD32VW55x_RELEASE_V1.0.2/MSDK/plf/src\gd32vw55x_platform.c **** 
 573:C:/Users/stapi/OneDrive/Desktop/GD32VW553/V1_MQTT_OK/GD32VW55X_Wifi_BLE_SDK/GD32VW55x_RELEASE_V1.0.2/MSDK/plf/src\gd32vw55x_platform.c **** void wifi_power_off(void)
 574:C:/Users/stapi/OneDrive/Desktop/GD32VW553/V1_MQTT_OK/GD32VW55X_Wifi_BLE_SDK/GD32VW55x_RELEASE_V1.0.2/MSDK/plf/src\gd32vw55x_platform.c **** {
 1244              		.loc 1 574 1 is_stmt 1
 1245              		.cfi_startproc
 1246 0000 17030000 		call	t0,__riscv_save_1
 1246      E7020300 
 1247              		.cfi_offset 8, -8
 1248              		.cfi_offset 1, -4
 1249              		.cfi_def_cfa_offset 16
 575:C:/Users/stapi/OneDrive/Desktop/GD32VW553/V1_MQTT_OK/GD32VW55X_Wifi_BLE_SDK/GD32VW55x_RELEASE_V1.0.2/MSDK/plf/src\gd32vw55x_platform.c ****     /* disable wifi interrupts */
 576:C:/Users/stapi/OneDrive/Desktop/GD32VW553/V1_MQTT_OK/GD32VW55X_Wifi_BLE_SDK/GD32VW55x_RELEASE_V1.0.2/MSDK/plf/src\gd32vw55x_platform.c ****     //wifi_irq_disable();
 577:C:/Users/stapi/OneDrive/Desktop/GD32VW553/V1_MQTT_OK/GD32VW55X_Wifi_BLE_SDK/GD32VW55x_RELEASE_V1.0.2/MSDK/plf/src\gd32vw55x_platform.c **** 
 578:C:/Users/stapi/OneDrive/Desktop/GD32VW553/V1_MQTT_OK/GD32VW55X_Wifi_BLE_SDK/GD32VW55x_RELEASE_V1.0.2/MSDK/plf/src\gd32vw55x_platform.c ****     /* RCC disable wifi clock */
 579:C:/Users/stapi/OneDrive/Desktop/GD32VW553/V1_MQTT_OK/GD32VW55X_Wifi_BLE_SDK/GD32VW55x_RELEASE_V1.0.2/MSDK/plf/src\gd32vw55x_platform.c ****     rcu_periph_clock_disable(RCU_WIFI);
 1250              		.loc 1 579 5
 1251 0008 0564     		li	s0,4096
 1252 000a 1305D4C0 		addi	a0,s0,-1011
 1253 000e 97000000 		call	rcu_periph_clock_disable
 1253      E7800000 
 1254              	.LVL106:
 580:C:/Users/stapi/OneDrive/Desktop/GD32VW553/V1_MQTT_OK/GD32VW55X_Wifi_BLE_SDK/GD32VW55x_RELEASE_V1.0.2/MSDK/plf/src\gd32vw55x_platform.c ****     rcu_periph_clock_disable(RCU_WIFIRUN);
 1255              		.loc 1 580 5
 1256 0016 1305E4C0 		addi	a0,s0,-1010
 1257 001a 97000000 		call	rcu_periph_clock_disable
 1257      E7800000 
 1258              	.LVL107:
 581:C:/Users/stapi/OneDrive/Desktop/GD32VW553/V1_MQTT_OK/GD32VW55X_Wifi_BLE_SDK/GD32VW55x_RELEASE_V1.0.2/MSDK/plf/src\gd32vw55x_platform.c **** 
 582:C:/Users/stapi/OneDrive/Desktop/GD32VW553/V1_MQTT_OK/GD32VW55X_Wifi_BLE_SDK/GD32VW55x_RELEASE_V1.0.2/MSDK/plf/src\gd32vw55x_platform.c ****     /* PMU set wifi to sleep state */
 583:C:/Users/stapi/OneDrive/Desktop/GD32VW553/V1_MQTT_OK/GD32VW55X_Wifi_BLE_SDK/GD32VW55x_RELEASE_V1.0.2/MSDK/plf/src\gd32vw55x_platform.c ****     pmu_wifi_sram_control(PMU_WIFI_SLEEP);
 1259              		.loc 1 583 5
 1260 0022 1145     		li	a0,4
 1261 0024 97000000 		call	pmu_wifi_sram_control
 1261      E7800000 
 1262              	.LVL108:
 584:C:/Users/stapi/OneDrive/Desktop/GD32VW553/V1_MQTT_OK/GD32VW55X_Wifi_BLE_SDK/GD32VW55x_RELEASE_V1.0.2/MSDK/plf/src\gd32vw55x_platform.c **** }
 1263              		.loc 1 584 1 is_stmt 0
 1264 002c 17030000 		tail	__riscv_restore_1
 1264      67000300 
 1265              		.cfi_restore 8
 1266              		.cfi_restore 1
 1267              		.cfi_def_cfa_offset 0
 1268              		.cfi_endproc
 1269              	.LFE413:
 1271              		.section	.text.wifi_led_config,"ax",@progbits
 1272              		.align	1
 1273              		.globl	wifi_led_config
 1275              	wifi_led_config:
 1276              	.LFB414:
 585:C:/Users/stapi/OneDrive/Desktop/GD32VW553/V1_MQTT_OK/GD32VW55X_Wifi_BLE_SDK/GD32VW55x_RELEASE_V1.0.2/MSDK/plf/src\gd32vw55x_platform.c **** 
 586:C:/Users/stapi/OneDrive/Desktop/GD32VW553/V1_MQTT_OK/GD32VW55X_Wifi_BLE_SDK/GD32VW55x_RELEASE_V1.0.2/MSDK/plf/src\gd32vw55x_platform.c **** void wifi_led_config(void)
 587:C:/Users/stapi/OneDrive/Desktop/GD32VW553/V1_MQTT_OK/GD32VW55X_Wifi_BLE_SDK/GD32VW55x_RELEASE_V1.0.2/MSDK/plf/src\gd32vw55x_platform.c **** {
 1277              		.loc 1 587 1 is_stmt 1
 1278              		.cfi_startproc
 1279 0000 17030000 		call	t0,__riscv_save_1
 1279      E7020300 
 1280              		.cfi_offset 8, -8
 1281              		.cfi_offset 1, -4
 1282              		.cfi_def_cfa_offset 16
 588:C:/Users/stapi/OneDrive/Desktop/GD32VW553/V1_MQTT_OK/GD32VW55X_Wifi_BLE_SDK/GD32VW55x_RELEASE_V1.0.2/MSDK/plf/src\gd32vw55x_platform.c ****     /* enable the LED GPIO clock */
 589:C:/Users/stapi/OneDrive/Desktop/GD32VW553/V1_MQTT_OK/GD32VW55X_Wifi_BLE_SDK/GD32VW55x_RELEASE_V1.0.2/MSDK/plf/src\gd32vw55x_platform.c ****     rcu_periph_clock_enable(RCU_GPIOC);
 1283              		.loc 1 589 5
 1284 0008 0565     		li	a0,4096
 1285 000a 130525C0 		addi	a0,a0,-1022
 590:C:/Users/stapi/OneDrive/Desktop/GD32VW553/V1_MQTT_OK/GD32VW55X_Wifi_BLE_SDK/GD32VW55x_RELEASE_V1.0.2/MSDK/plf/src\gd32vw55x_platform.c ****     /* configure LED GPIO pin */
 591:C:/Users/stapi/OneDrive/Desktop/GD32VW553/V1_MQTT_OK/GD32VW55X_Wifi_BLE_SDK/GD32VW55x_RELEASE_V1.0.2/MSDK/plf/src\gd32vw55x_platform.c ****     gpio_mode_set(GPIOC, GPIO_MODE_OUTPUT, GPIO_PUPD_NONE, LED_RUN);
 1286              		.loc 1 591 5 is_stmt 0
 1287 000e 37140240 		li	s0,1073876992
 589:C:/Users/stapi/OneDrive/Desktop/GD32VW553/V1_MQTT_OK/GD32VW55X_Wifi_BLE_SDK/GD32VW55x_RELEASE_V1.0.2/MSDK/plf/src\gd32vw55x_platform.c ****     /* configure LED GPIO pin */
 1288              		.loc 1 589 5
 1289 0012 97000000 		call	rcu_periph_clock_enable
 1289      E7800000 
 1290              	.LVL109:
 1291              		.loc 1 591 5 is_stmt 1
 1292 001a 13050480 		addi	a0,s0,-2048
 1293 001e 8546     		li	a3,1
 1294 0020 0146     		li	a2,0
 1295 0022 8545     		li	a1,1
 1296 0024 97000000 		call	gpio_mode_set
 1296      E7800000 
 1297              	.LVL110:
 592:C:/Users/stapi/OneDrive/Desktop/GD32VW553/V1_MQTT_OK/GD32VW55X_Wifi_BLE_SDK/GD32VW55x_RELEASE_V1.0.2/MSDK/plf/src\gd32vw55x_platform.c ****     gpio_output_options_set(GPIOC, GPIO_OTYPE_PP, GPIO_OSPEED_MAX, LED_RUN);
 1298              		.loc 1 592 5
 1299 002c 13050480 		addi	a0,s0,-2048
 1300 0030 8546     		li	a3,1
 1301 0032 0D46     		li	a2,3
 1302 0034 8145     		li	a1,0
 1303 0036 97000000 		call	gpio_output_options_set
 1303      E7800000 
 1304              	.LVL111:
 593:C:/Users/stapi/OneDrive/Desktop/GD32VW553/V1_MQTT_OK/GD32VW55X_Wifi_BLE_SDK/GD32VW55x_RELEASE_V1.0.2/MSDK/plf/src\gd32vw55x_platform.c ****     gpio_mode_set(GPIOC, GPIO_MODE_OUTPUT, GPIO_PUPD_NONE, LED_RX);
 1305              		.loc 1 593 5
 1306 003e 13050480 		addi	a0,s0,-2048
 1307 0042 9146     		li	a3,4
 1308 0044 0146     		li	a2,0
 1309 0046 8545     		li	a1,1
 1310 0048 97000000 		call	gpio_mode_set
 1310      E7800000 
 1311              	.LVL112:
 594:C:/Users/stapi/OneDrive/Desktop/GD32VW553/V1_MQTT_OK/GD32VW55X_Wifi_BLE_SDK/GD32VW55x_RELEASE_V1.0.2/MSDK/plf/src\gd32vw55x_platform.c ****     gpio_output_options_set(GPIOC, GPIO_OTYPE_PP, GPIO_OSPEED_MAX, LED_RX);
 1312              		.loc 1 594 5
 1313 0050 13050480 		addi	a0,s0,-2048
 1314 0054 9146     		li	a3,4
 1315 0056 0D46     		li	a2,3
 1316 0058 8145     		li	a1,0
 1317 005a 97000000 		call	gpio_output_options_set
 1317      E7800000 
 1318              	.LVL113:
 595:C:/Users/stapi/OneDrive/Desktop/GD32VW553/V1_MQTT_OK/GD32VW55X_Wifi_BLE_SDK/GD32VW55x_RELEASE_V1.0.2/MSDK/plf/src\gd32vw55x_platform.c ****     gpio_mode_set(GPIOC, GPIO_MODE_OUTPUT, GPIO_PUPD_NONE, LED_SLEEP);
 1319              		.loc 1 595 5
 1320 0062 13050480 		addi	a0,s0,-2048
 1321 0066 8946     		li	a3,2
 1322 0068 0146     		li	a2,0
 1323 006a 8545     		li	a1,1
 1324 006c 97000000 		call	gpio_mode_set
 1324      E7800000 
 1325              	.LVL114:
 596:C:/Users/stapi/OneDrive/Desktop/GD32VW553/V1_MQTT_OK/GD32VW55X_Wifi_BLE_SDK/GD32VW55x_RELEASE_V1.0.2/MSDK/plf/src\gd32vw55x_platform.c ****     gpio_output_options_set(GPIOC, GPIO_OTYPE_PP, GPIO_OSPEED_MAX, LED_SLEEP);
 1326              		.loc 1 596 5
 1327 0074 8946     		li	a3,2
 1328 0076 0D46     		li	a2,3
 1329 0078 8145     		li	a1,0
 1330 007a 13050480 		addi	a0,s0,-2048
 1331 007e 97000000 		call	gpio_output_options_set
 1331      E7800000 
 1332              	.LVL115:
 597:C:/Users/stapi/OneDrive/Desktop/GD32VW553/V1_MQTT_OK/GD32VW55X_Wifi_BLE_SDK/GD32VW55x_RELEASE_V1.0.2/MSDK/plf/src\gd32vw55x_platform.c **** 
 598:C:/Users/stapi/OneDrive/Desktop/GD32VW553/V1_MQTT_OK/GD32VW55X_Wifi_BLE_SDK/GD32VW55x_RELEASE_V1.0.2/MSDK/plf/src\gd32vw55x_platform.c ****     //LED_ON(LED_RUN);
 599:C:/Users/stapi/OneDrive/Desktop/GD32VW553/V1_MQTT_OK/GD32VW55X_Wifi_BLE_SDK/GD32VW55x_RELEASE_V1.0.2/MSDK/plf/src\gd32vw55x_platform.c **** }
 1333              		.loc 1 599 1 is_stmt 0
 1334 0086 17030000 		tail	__riscv_restore_1
 1334      67000300 
 1335              		.cfi_restore 8
 1336              		.cfi_restore 1
 1337              		.cfi_def_cfa_offset 0
 1338              		.cfi_endproc
 1339              	.LFE414:
 1341              		.section	.text.rf_pmu_par_config,"ax",@progbits
 1342              		.align	1
 1343              		.globl	rf_pmu_par_config
 1345              	rf_pmu_par_config:
 1346              	.LFB417:
 600:C:/Users/stapi/OneDrive/Desktop/GD32VW553/V1_MQTT_OK/GD32VW55X_Wifi_BLE_SDK/GD32VW55x_RELEASE_V1.0.2/MSDK/plf/src\gd32vw55x_platform.c **** #endif
 601:C:/Users/stapi/OneDrive/Desktop/GD32VW553/V1_MQTT_OK/GD32VW55X_Wifi_BLE_SDK/GD32VW55x_RELEASE_V1.0.2/MSDK/plf/src\gd32vw55x_platform.c **** 
 602:C:/Users/stapi/OneDrive/Desktop/GD32VW553/V1_MQTT_OK/GD32VW55X_Wifi_BLE_SDK/GD32VW55x_RELEASE_V1.0.2/MSDK/plf/src\gd32vw55x_platform.c **** #ifdef CONFIG_PLATFORM_ASIC
 603:C:/Users/stapi/OneDrive/Desktop/GD32VW553/V1_MQTT_OK/GD32VW55X_Wifi_BLE_SDK/GD32VW55x_RELEASE_V1.0.2/MSDK/plf/src\gd32vw55x_platform.c **** __INLINE void rf_rcc_config(void)
 604:C:/Users/stapi/OneDrive/Desktop/GD32VW553/V1_MQTT_OK/GD32VW55X_Wifi_BLE_SDK/GD32VW55x_RELEASE_V1.0.2/MSDK/plf/src\gd32vw55x_platform.c **** {
 605:C:/Users/stapi/OneDrive/Desktop/GD32VW553/V1_MQTT_OK/GD32VW55X_Wifi_BLE_SDK/GD32VW55x_RELEASE_V1.0.2/MSDK/plf/src\gd32vw55x_platform.c ****     /* polling RF DPLL ready */
 606:C:/Users/stapi/OneDrive/Desktop/GD32VW553/V1_MQTT_OK/GD32VW55X_Wifi_BLE_SDK/GD32VW55x_RELEASE_V1.0.2/MSDK/plf/src\gd32vw55x_platform.c ****     while ((RCU_CTL & RCU_CTL_PLLDIGSTB) == 0) {
 607:C:/Users/stapi/OneDrive/Desktop/GD32VW553/V1_MQTT_OK/GD32VW55X_Wifi_BLE_SDK/GD32VW55x_RELEASE_V1.0.2/MSDK/plf/src\gd32vw55x_platform.c ****     }
 608:C:/Users/stapi/OneDrive/Desktop/GD32VW553/V1_MQTT_OK/GD32VW55X_Wifi_BLE_SDK/GD32VW55x_RELEASE_V1.0.2/MSDK/plf/src\gd32vw55x_platform.c **** 
 609:C:/Users/stapi/OneDrive/Desktop/GD32VW553/V1_MQTT_OK/GD32VW55X_Wifi_BLE_SDK/GD32VW55x_RELEASE_V1.0.2/MSDK/plf/src\gd32vw55x_platform.c ****     rcu_periph_clock_enable(RCU_RF);
 610:C:/Users/stapi/OneDrive/Desktop/GD32VW553/V1_MQTT_OK/GD32VW55X_Wifi_BLE_SDK/GD32VW55x_RELEASE_V1.0.2/MSDK/plf/src\gd32vw55x_platform.c ****     rcu_periph_reset_enable(RCU_RFRST);
 611:C:/Users/stapi/OneDrive/Desktop/GD32VW553/V1_MQTT_OK/GD32VW55X_Wifi_BLE_SDK/GD32VW55x_RELEASE_V1.0.2/MSDK/plf/src\gd32vw55x_platform.c ****     rcu_periph_reset_disable(RCU_RFRST);
 612:C:/Users/stapi/OneDrive/Desktop/GD32VW553/V1_MQTT_OK/GD32VW55X_Wifi_BLE_SDK/GD32VW55x_RELEASE_V1.0.2/MSDK/plf/src\gd32vw55x_platform.c ****     rcu_periph_clock_enable(RCU_RFI);
 613:C:/Users/stapi/OneDrive/Desktop/GD32VW553/V1_MQTT_OK/GD32VW55X_Wifi_BLE_SDK/GD32VW55x_RELEASE_V1.0.2/MSDK/plf/src\gd32vw55x_platform.c ****     rcu_periph_reset_enable(RCU_RFIRST);
 614:C:/Users/stapi/OneDrive/Desktop/GD32VW553/V1_MQTT_OK/GD32VW55X_Wifi_BLE_SDK/GD32VW55x_RELEASE_V1.0.2/MSDK/plf/src\gd32vw55x_platform.c ****     rcu_periph_reset_disable(RCU_RFIRST);
 615:C:/Users/stapi/OneDrive/Desktop/GD32VW553/V1_MQTT_OK/GD32VW55X_Wifi_BLE_SDK/GD32VW55x_RELEASE_V1.0.2/MSDK/plf/src\gd32vw55x_platform.c **** }
 616:C:/Users/stapi/OneDrive/Desktop/GD32VW553/V1_MQTT_OK/GD32VW55X_Wifi_BLE_SDK/GD32VW55x_RELEASE_V1.0.2/MSDK/plf/src\gd32vw55x_platform.c **** #else /* CONFIG_PLATFORM_ASIC */
 617:C:/Users/stapi/OneDrive/Desktop/GD32VW553/V1_MQTT_OK/GD32VW55X_Wifi_BLE_SDK/GD32VW55x_RELEASE_V1.0.2/MSDK/plf/src\gd32vw55x_platform.c **** __INLINE void rf_rcc_config(void)
 618:C:/Users/stapi/OneDrive/Desktop/GD32VW553/V1_MQTT_OK/GD32VW55X_Wifi_BLE_SDK/GD32VW55x_RELEASE_V1.0.2/MSDK/plf/src\gd32vw55x_platform.c **** {
 619:C:/Users/stapi/OneDrive/Desktop/GD32VW553/V1_MQTT_OK/GD32VW55X_Wifi_BLE_SDK/GD32VW55x_RELEASE_V1.0.2/MSDK/plf/src\gd32vw55x_platform.c ****     /* RF PU & RF reset(bit29-30)*/
 620:C:/Users/stapi/OneDrive/Desktop/GD32VW553/V1_MQTT_OK/GD32VW55X_Wifi_BLE_SDK/GD32VW55x_RELEASE_V1.0.2/MSDK/plf/src\gd32vw55x_platform.c ****     REG32(RCU + 0x30) |= 0x60000000;
 621:C:/Users/stapi/OneDrive/Desktop/GD32VW553/V1_MQTT_OK/GD32VW55X_Wifi_BLE_SDK/GD32VW55x_RELEASE_V1.0.2/MSDK/plf/src\gd32vw55x_platform.c **** }
 622:C:/Users/stapi/OneDrive/Desktop/GD32VW553/V1_MQTT_OK/GD32VW55X_Wifi_BLE_SDK/GD32VW55x_RELEASE_V1.0.2/MSDK/plf/src\gd32vw55x_platform.c **** #endif /* CONFIG_PLATFORM_ASIC */
 623:C:/Users/stapi/OneDrive/Desktop/GD32VW553/V1_MQTT_OK/GD32VW55X_Wifi_BLE_SDK/GD32VW55x_RELEASE_V1.0.2/MSDK/plf/src\gd32vw55x_platform.c **** 
 624:C:/Users/stapi/OneDrive/Desktop/GD32VW553/V1_MQTT_OK/GD32VW55X_Wifi_BLE_SDK/GD32VW55x_RELEASE_V1.0.2/MSDK/plf/src\gd32vw55x_platform.c **** static void rf_crystal_config(void)
 625:C:/Users/stapi/OneDrive/Desktop/GD32VW553/V1_MQTT_OK/GD32VW55X_Wifi_BLE_SDK/GD32VW55x_RELEASE_V1.0.2/MSDK/plf/src\gd32vw55x_platform.c **** {
 626:C:/Users/stapi/OneDrive/Desktop/GD32VW553/V1_MQTT_OK/GD32VW55X_Wifi_BLE_SDK/GD32VW55x_RELEASE_V1.0.2/MSDK/plf/src\gd32vw55x_platform.c **** #if PLATFORM_CRYSTAL == CRYSTAL_26M
 627:C:/Users/stapi/OneDrive/Desktop/GD32VW553/V1_MQTT_OK/GD32VW55X_Wifi_BLE_SDK/GD32VW55x_RELEASE_V1.0.2/MSDK/plf/src\gd32vw55x_platform.c ****     uint32_t fxtal = 26;
 628:C:/Users/stapi/OneDrive/Desktop/GD32VW553/V1_MQTT_OK/GD32VW55X_Wifi_BLE_SDK/GD32VW55x_RELEASE_V1.0.2/MSDK/plf/src\gd32vw55x_platform.c ****     uint32_t delta_1m;
 629:C:/Users/stapi/OneDrive/Desktop/GD32VW553/V1_MQTT_OK/GD32VW55X_Wifi_BLE_SDK/GD32VW55x_RELEASE_V1.0.2/MSDK/plf/src\gd32vw55x_platform.c ****     double frac;
 630:C:/Users/stapi/OneDrive/Desktop/GD32VW553/V1_MQTT_OK/GD32VW55X_Wifi_BLE_SDK/GD32VW55x_RELEASE_V1.0.2/MSDK/plf/src\gd32vw55x_platform.c ****     uint32_t reg_value;
 631:C:/Users/stapi/OneDrive/Desktop/GD32VW553/V1_MQTT_OK/GD32VW55X_Wifi_BLE_SDK/GD32VW55x_RELEASE_V1.0.2/MSDK/plf/src\gd32vw55x_platform.c **** 
 632:C:/Users/stapi/OneDrive/Desktop/GD32VW553/V1_MQTT_OK/GD32VW55X_Wifi_BLE_SDK/GD32VW55x_RELEASE_V1.0.2/MSDK/plf/src\gd32vw55x_platform.c ****     write_rf_reg(0x50, ((read_rf_reg(0x50) & ~BITS(0,3)) | 0x8));
 633:C:/Users/stapi/OneDrive/Desktop/GD32VW553/V1_MQTT_OK/GD32VW55X_Wifi_BLE_SDK/GD32VW55x_RELEASE_V1.0.2/MSDK/plf/src\gd32vw55x_platform.c **** 
 634:C:/Users/stapi/OneDrive/Desktop/GD32VW553/V1_MQTT_OK/GD32VW55X_Wifi_BLE_SDK/GD32VW55x_RELEASE_V1.0.2/MSDK/plf/src\gd32vw55x_platform.c ****     delta_1m = ((1 << 27) * 4) / (fxtal * 8);
 635:C:/Users/stapi/OneDrive/Desktop/GD32VW553/V1_MQTT_OK/GD32VW55X_Wifi_BLE_SDK/GD32VW55x_RELEASE_V1.0.2/MSDK/plf/src\gd32vw55x_platform.c ****     REG_PHY_RFTOP_WR(0x2c, delta_1m);
 636:C:/Users/stapi/OneDrive/Desktop/GD32VW553/V1_MQTT_OK/GD32VW55X_Wifi_BLE_SDK/GD32VW55x_RELEASE_V1.0.2/MSDK/plf/src\gd32vw55x_platform.c **** 
 637:C:/Users/stapi/OneDrive/Desktop/GD32VW553/V1_MQTT_OK/GD32VW55X_Wifi_BLE_SDK/GD32VW55x_RELEASE_V1.0.2/MSDK/plf/src\gd32vw55x_platform.c ****     frac = (2402 * 4.0f) / (fxtal * 8.0f);
 638:C:/Users/stapi/OneDrive/Desktop/GD32VW553/V1_MQTT_OK/GD32VW55X_Wifi_BLE_SDK/GD32VW55x_RELEASE_V1.0.2/MSDK/plf/src\gd32vw55x_platform.c ****     reg_value = ((uint32_t)(frac * BIT(21)));
 639:C:/Users/stapi/OneDrive/Desktop/GD32VW553/V1_MQTT_OK/GD32VW55X_Wifi_BLE_SDK/GD32VW55x_RELEASE_V1.0.2/MSDK/plf/src\gd32vw55x_platform.c ****     REG_PHY_RFTOP_WR(0x28, ((REG_PHY_RFTOP_RD(0x28) & ~BITS(0,29)) | reg_value));
 640:C:/Users/stapi/OneDrive/Desktop/GD32VW553/V1_MQTT_OK/GD32VW55X_Wifi_BLE_SDK/GD32VW55x_RELEASE_V1.0.2/MSDK/plf/src\gd32vw55x_platform.c **** 
 641:C:/Users/stapi/OneDrive/Desktop/GD32VW553/V1_MQTT_OK/GD32VW55X_Wifi_BLE_SDK/GD32VW55x_RELEASE_V1.0.2/MSDK/plf/src\gd32vw55x_platform.c ****     REG_PHY_RFTOP_WR(0x14, ((REG_PHY_RFTOP_RD(0x14) & ~BITS(0,7)) | 0xa));
 642:C:/Users/stapi/OneDrive/Desktop/GD32VW553/V1_MQTT_OK/GD32VW55X_Wifi_BLE_SDK/GD32VW55x_RELEASE_V1.0.2/MSDK/plf/src\gd32vw55x_platform.c **** #endif
 643:C:/Users/stapi/OneDrive/Desktop/GD32VW553/V1_MQTT_OK/GD32VW55X_Wifi_BLE_SDK/GD32VW55x_RELEASE_V1.0.2/MSDK/plf/src\gd32vw55x_platform.c **** }
 644:C:/Users/stapi/OneDrive/Desktop/GD32VW553/V1_MQTT_OK/GD32VW55X_Wifi_BLE_SDK/GD32VW55x_RELEASE_V1.0.2/MSDK/plf/src\gd32vw55x_platform.c **** 
 645:C:/Users/stapi/OneDrive/Desktop/GD32VW553/V1_MQTT_OK/GD32VW55X_Wifi_BLE_SDK/GD32VW55x_RELEASE_V1.0.2/MSDK/plf/src\gd32vw55x_platform.c **** void rf_pmu_par_config(void)
 646:C:/Users/stapi/OneDrive/Desktop/GD32VW553/V1_MQTT_OK/GD32VW55X_Wifi_BLE_SDK/GD32VW55x_RELEASE_V1.0.2/MSDK/plf/src\gd32vw55x_platform.c **** {
 1347              		.loc 1 646 1 is_stmt 1
 1348              		.cfi_startproc
 647:C:/Users/stapi/OneDrive/Desktop/GD32VW553/V1_MQTT_OK/GD32VW55X_Wifi_BLE_SDK/GD32VW55x_RELEASE_V1.0.2/MSDK/plf/src\gd32vw55x_platform.c ****     /* set PMU_RFPAR_T1 to 0 so that RF XTAL up time is 1ms */
 648:C:/Users/stapi/OneDrive/Desktop/GD32VW553/V1_MQTT_OK/GD32VW55X_Wifi_BLE_SDK/GD32VW55x_RELEASE_V1.0.2/MSDK/plf/src\gd32vw55x_platform.c ****     PMU_RFPAR = PMU_RFPAR  & (~PMU_RFPAR_TIM1_PAR);
 1349              		.loc 1 648 5
 1350              		.loc 1 648 17 is_stmt 0
 1351 0000 37770040 		li	a4,1073770496
 1352 0004 5C53     		lw	a5,36(a4)
 1353              		.loc 1 648 28
 1354 0006 93F707F8 		andi	a5,a5,-128
 1355              		.loc 1 648 15
 1356 000a 5CD3     		sw	a5,36(a4)
 649:C:/Users/stapi/OneDrive/Desktop/GD32VW553/V1_MQTT_OK/GD32VW55X_Wifi_BLE_SDK/GD32VW55x_RELEASE_V1.0.2/MSDK/plf/src\gd32vw55x_platform.c **** }
 1357              		.loc 1 649 1
 1358 000c 8280     		ret
 1359              		.cfi_endproc
 1360              	.LFE417:
 1362              		.section	.text.rf_power_on,"ax",@progbits
 1363              		.align	1
 1364              		.globl	rf_power_on
 1366              	rf_power_on:
 1367              	.LFB418:
 650:C:/Users/stapi/OneDrive/Desktop/GD32VW553/V1_MQTT_OK/GD32VW55X_Wifi_BLE_SDK/GD32VW55x_RELEASE_V1.0.2/MSDK/plf/src\gd32vw55x_platform.c **** 
 651:C:/Users/stapi/OneDrive/Desktop/GD32VW553/V1_MQTT_OK/GD32VW55X_Wifi_BLE_SDK/GD32VW55x_RELEASE_V1.0.2/MSDK/plf/src\gd32vw55x_platform.c **** int rf_power_on(void)
 652:C:/Users/stapi/OneDrive/Desktop/GD32VW553/V1_MQTT_OK/GD32VW55X_Wifi_BLE_SDK/GD32VW55x_RELEASE_V1.0.2/MSDK/plf/src\gd32vw55x_platform.c **** {
 1368              		.loc 1 652 1 is_stmt 1
 1369              		.cfi_startproc
 1370 0000 17030000 		call	t0,__riscv_save_1
 1370      E7020300 
 1371              		.cfi_offset 8, -8
 1372              		.cfi_offset 1, -4
 1373              		.cfi_def_cfa_offset 16
 653:C:/Users/stapi/OneDrive/Desktop/GD32VW553/V1_MQTT_OK/GD32VW55X_Wifi_BLE_SDK/GD32VW55x_RELEASE_V1.0.2/MSDK/plf/src\gd32vw55x_platform.c **** #ifdef CONFIG_PLATFORM_FPGA
 654:C:/Users/stapi/OneDrive/Desktop/GD32VW553/V1_MQTT_OK/GD32VW55X_Wifi_BLE_SDK/GD32VW55x_RELEASE_V1.0.2/MSDK/plf/src\gd32vw55x_platform.c ****     spi_config();
 655:C:/Users/stapi/OneDrive/Desktop/GD32VW553/V1_MQTT_OK/GD32VW55X_Wifi_BLE_SDK/GD32VW55x_RELEASE_V1.0.2/MSDK/plf/src\gd32vw55x_platform.c ****     // Reset and enable RF PU
 656:C:/Users/stapi/OneDrive/Desktop/GD32VW553/V1_MQTT_OK/GD32VW55X_Wifi_BLE_SDK/GD32VW55x_RELEASE_V1.0.2/MSDK/plf/src\gd32vw55x_platform.c ****     rf_rcc_config();
 657:C:/Users/stapi/OneDrive/Desktop/GD32VW553/V1_MQTT_OK/GD32VW55X_Wifi_BLE_SDK/GD32VW55x_RELEASE_V1.0.2/MSDK/plf/src\gd32vw55x_platform.c **** 
 658:C:/Users/stapi/OneDrive/Desktop/GD32VW553/V1_MQTT_OK/GD32VW55X_Wifi_BLE_SDK/GD32VW55x_RELEASE_V1.0.2/MSDK/plf/src\gd32vw55x_platform.c ****     // Wait RF PU stable
 659:C:/Users/stapi/OneDrive/Desktop/GD32VW553/V1_MQTT_OK/GD32VW55X_Wifi_BLE_SDK/GD32VW55x_RELEASE_V1.0.2/MSDK/plf/src\gd32vw55x_platform.c ****     systick_udelay(50);
 660:C:/Users/stapi/OneDrive/Desktop/GD32VW553/V1_MQTT_OK/GD32VW55X_Wifi_BLE_SDK/GD32VW55x_RELEASE_V1.0.2/MSDK/plf/src\gd32vw55x_platform.c **** 
 661:C:/Users/stapi/OneDrive/Desktop/GD32VW553/V1_MQTT_OK/GD32VW55X_Wifi_BLE_SDK/GD32VW55x_RELEASE_V1.0.2/MSDK/plf/src\gd32vw55x_platform.c ****     // RF 960M clock should enable and stable first before wifi work.
 662:C:/Users/stapi/OneDrive/Desktop/GD32VW553/V1_MQTT_OK/GD32VW55X_Wifi_BLE_SDK/GD32VW55x_RELEASE_V1.0.2/MSDK/plf/src\gd32vw55x_platform.c ****     hal_start_rf_pll();
 663:C:/Users/stapi/OneDrive/Desktop/GD32VW553/V1_MQTT_OK/GD32VW55X_Wifi_BLE_SDK/GD32VW55x_RELEASE_V1.0.2/MSDK/plf/src\gd32vw55x_platform.c **** #else
 664:C:/Users/stapi/OneDrive/Desktop/GD32VW553/V1_MQTT_OK/GD32VW55X_Wifi_BLE_SDK/GD32VW55x_RELEASE_V1.0.2/MSDK/plf/src\gd32vw55x_platform.c ****     rf_rcc_config();
 1374              		.loc 1 664 5
 1375              	.LBB56:
 1376              	.LBB57:
 606:C:/Users/stapi/OneDrive/Desktop/GD32VW553/V1_MQTT_OK/GD32VW55X_Wifi_BLE_SDK/GD32VW55x_RELEASE_V1.0.2/MSDK/plf/src\gd32vw55x_platform.c ****     }
 1377              		.loc 1 606 5
 606:C:/Users/stapi/OneDrive/Desktop/GD32VW553/V1_MQTT_OK/GD32VW55X_Wifi_BLE_SDK/GD32VW55x_RELEASE_V1.0.2/MSDK/plf/src\gd32vw55x_platform.c ****     }
 1378              		.loc 1 606 13 is_stmt 0
 1379 0008 B7460240 		li	a3,1073889280
 606:C:/Users/stapi/OneDrive/Desktop/GD32VW553/V1_MQTT_OK/GD32VW55X_Wifi_BLE_SDK/GD32VW55x_RELEASE_V1.0.2/MSDK/plf/src\gd32vw55x_platform.c ****     }
 1380              		.loc 1 606 21
 1381 000c 37078000 		li	a4,8388608
 1382              	.L115:
 607:C:/Users/stapi/OneDrive/Desktop/GD32VW553/V1_MQTT_OK/GD32VW55X_Wifi_BLE_SDK/GD32VW55x_RELEASE_V1.0.2/MSDK/plf/src\gd32vw55x_platform.c **** 
 1383              		.loc 1 607 5 is_stmt 1
 606:C:/Users/stapi/OneDrive/Desktop/GD32VW553/V1_MQTT_OK/GD32VW55X_Wifi_BLE_SDK/GD32VW55x_RELEASE_V1.0.2/MSDK/plf/src\gd32vw55x_platform.c ****     }
 1384              		.loc 1 606 11
 606:C:/Users/stapi/OneDrive/Desktop/GD32VW553/V1_MQTT_OK/GD32VW55X_Wifi_BLE_SDK/GD32VW55x_RELEASE_V1.0.2/MSDK/plf/src\gd32vw55x_platform.c ****     }
 1385              		.loc 1 606 13 is_stmt 0
 1386 0010 83A70680 		lw	a5,-2048(a3)
 606:C:/Users/stapi/OneDrive/Desktop/GD32VW553/V1_MQTT_OK/GD32VW55X_Wifi_BLE_SDK/GD32VW55x_RELEASE_V1.0.2/MSDK/plf/src\gd32vw55x_platform.c ****     }
 1387              		.loc 1 606 21
 1388 0014 F98F     		and	a5,a5,a4
 606:C:/Users/stapi/OneDrive/Desktop/GD32VW553/V1_MQTT_OK/GD32VW55X_Wifi_BLE_SDK/GD32VW55x_RELEASE_V1.0.2/MSDK/plf/src\gd32vw55x_platform.c ****     }
 1389              		.loc 1 606 11
 1390 0016 EDDF     		beq	a5,zero,.L115
 609:C:/Users/stapi/OneDrive/Desktop/GD32VW553/V1_MQTT_OK/GD32VW55X_Wifi_BLE_SDK/GD32VW55x_RELEASE_V1.0.2/MSDK/plf/src\gd32vw55x_platform.c ****     rcu_periph_reset_enable(RCU_RFRST);
 1391              		.loc 1 609 5 is_stmt 1
 1392 0018 0564     		li	s0,4096
 1393 001a 1305F411 		addi	a0,s0,287
 1394 001e 97000000 		call	rcu_periph_clock_enable
 1394      E7800000 
 1395              	.LVL116:
 610:C:/Users/stapi/OneDrive/Desktop/GD32VW553/V1_MQTT_OK/GD32VW55X_Wifi_BLE_SDK/GD32VW55x_RELEASE_V1.0.2/MSDK/plf/src\gd32vw55x_platform.c ****     rcu_periph_reset_disable(RCU_RFRST);
 1396              		.loc 1 610 5
 1397 0026 1305F491 		addi	a0,s0,-1761
 1398 002a 97000000 		call	rcu_periph_reset_enable
 1398      E7800000 
 1399              	.LVL117:
 611:C:/Users/stapi/OneDrive/Desktop/GD32VW553/V1_MQTT_OK/GD32VW55X_Wifi_BLE_SDK/GD32VW55x_RELEASE_V1.0.2/MSDK/plf/src\gd32vw55x_platform.c ****     rcu_periph_clock_enable(RCU_RFI);
 1400              		.loc 1 611 5
 1401 0032 1305F491 		addi	a0,s0,-1761
 1402 0036 97000000 		call	rcu_periph_reset_disable
 1402      E7800000 
 1403              	.LVL118:
 612:C:/Users/stapi/OneDrive/Desktop/GD32VW553/V1_MQTT_OK/GD32VW55X_Wifi_BLE_SDK/GD32VW55x_RELEASE_V1.0.2/MSDK/plf/src\gd32vw55x_platform.c ****     rcu_periph_reset_enable(RCU_RFIRST);
 1404              		.loc 1 612 5
 1405 003e 1305F400 		addi	a0,s0,15
 1406 0042 97000000 		call	rcu_periph_clock_enable
 1406      E7800000 
 1407              	.LVL119:
 613:C:/Users/stapi/OneDrive/Desktop/GD32VW553/V1_MQTT_OK/GD32VW55X_Wifi_BLE_SDK/GD32VW55x_RELEASE_V1.0.2/MSDK/plf/src\gd32vw55x_platform.c ****     rcu_periph_reset_disable(RCU_RFIRST);
 1408              		.loc 1 613 5
 1409 004a 1305F480 		addi	a0,s0,-2033
 1410 004e 97000000 		call	rcu_periph_reset_enable
 1410      E7800000 
 1411              	.LVL120:
 614:C:/Users/stapi/OneDrive/Desktop/GD32VW553/V1_MQTT_OK/GD32VW55X_Wifi_BLE_SDK/GD32VW55x_RELEASE_V1.0.2/MSDK/plf/src\gd32vw55x_platform.c **** }
 1412              		.loc 1 614 5
 1413 0056 1305F480 		addi	a0,s0,-2033
 1414 005a 97000000 		call	rcu_periph_reset_disable
 1414      E7800000 
 1415              	.LVL121:
 1416              	.LBE57:
 1417              	.LBE56:
 665:C:/Users/stapi/OneDrive/Desktop/GD32VW553/V1_MQTT_OK/GD32VW55X_Wifi_BLE_SDK/GD32VW55x_RELEASE_V1.0.2/MSDK/plf/src\gd32vw55x_platform.c ****     rf_crystal_config();
 1418              		.loc 1 665 5
 643:C:/Users/stapi/OneDrive/Desktop/GD32VW553/V1_MQTT_OK/GD32VW55X_Wifi_BLE_SDK/GD32VW55x_RELEASE_V1.0.2/MSDK/plf/src\gd32vw55x_platform.c **** 
 1419              		.loc 1 643 1
 666:C:/Users/stapi/OneDrive/Desktop/GD32VW553/V1_MQTT_OK/GD32VW55X_Wifi_BLE_SDK/GD32VW55x_RELEASE_V1.0.2/MSDK/plf/src\gd32vw55x_platform.c **** #endif
 667:C:/Users/stapi/OneDrive/Desktop/GD32VW553/V1_MQTT_OK/GD32VW55X_Wifi_BLE_SDK/GD32VW55x_RELEASE_V1.0.2/MSDK/plf/src\gd32vw55x_platform.c **** 
 668:C:/Users/stapi/OneDrive/Desktop/GD32VW553/V1_MQTT_OK/GD32VW55X_Wifi_BLE_SDK/GD32VW55x_RELEASE_V1.0.2/MSDK/plf/src\gd32vw55x_platform.c ****     rf_pmu_par_config();
 1420              		.loc 1 668 5
 1421 0062 97000000 		call	rf_pmu_par_config
 1421      E7800000 
 1422              	.LVL122:
 669:C:/Users/stapi/OneDrive/Desktop/GD32VW553/V1_MQTT_OK/GD32VW55X_Wifi_BLE_SDK/GD32VW55x_RELEASE_V1.0.2/MSDK/plf/src\gd32vw55x_platform.c ****     // init rfi
 670:C:/Users/stapi/OneDrive/Desktop/GD32VW553/V1_MQTT_OK/GD32VW55X_Wifi_BLE_SDK/GD32VW55x_RELEASE_V1.0.2/MSDK/plf/src\gd32vw55x_platform.c ****     hal_rfi_init();
 1423              		.loc 1 670 5
 1424 006a 97000000 		call	hal_rfi_init
 1424      E7800000 
 1425              	.LVL123:
 671:C:/Users/stapi/OneDrive/Desktop/GD32VW553/V1_MQTT_OK/GD32VW55X_Wifi_BLE_SDK/GD32VW55x_RELEASE_V1.0.2/MSDK/plf/src\gd32vw55x_platform.c **** 
 672:C:/Users/stapi/OneDrive/Desktop/GD32VW553/V1_MQTT_OK/GD32VW55X_Wifi_BLE_SDK/GD32VW55x_RELEASE_V1.0.2/MSDK/plf/src\gd32vw55x_platform.c ****     // Add the initial configuration of the RF/ADC/DAC/etc.
 673:C:/Users/stapi/OneDrive/Desktop/GD32VW553/V1_MQTT_OK/GD32VW55X_Wifi_BLE_SDK/GD32VW55x_RELEASE_V1.0.2/MSDK/plf/src\gd32vw55x_platform.c ****     hal_init_rf();
 1426              		.loc 1 673 5
 1427 0072 97000000 		call	hal_init_rf
 1427      E7800000 
 1428              	.LVL124:
 674:C:/Users/stapi/OneDrive/Desktop/GD32VW553/V1_MQTT_OK/GD32VW55X_Wifi_BLE_SDK/GD32VW55x_RELEASE_V1.0.2/MSDK/plf/src\gd32vw55x_platform.c **** 
 675:C:/Users/stapi/OneDrive/Desktop/GD32VW553/V1_MQTT_OK/GD32VW55X_Wifi_BLE_SDK/GD32VW55x_RELEASE_V1.0.2/MSDK/plf/src\gd32vw55x_platform.c ****     return 0;
 1429              		.loc 1 675 5
 676:C:/Users/stapi/OneDrive/Desktop/GD32VW553/V1_MQTT_OK/GD32VW55X_Wifi_BLE_SDK/GD32VW55x_RELEASE_V1.0.2/MSDK/plf/src\gd32vw55x_platform.c **** }
 1430              		.loc 1 676 1 is_stmt 0
 1431 007a 0145     		li	a0,0
 1432 007c 17030000 		tail	__riscv_restore_1
 1432      67000300 
 1433              		.cfi_restore 8
 1434              		.cfi_restore 1
 1435              		.cfi_def_cfa_offset 0
 1436              		.cfi_endproc
 1437              	.LFE418:
 1439              		.section	.text.rf_power_off,"ax",@progbits
 1440              		.align	1
 1441              		.globl	rf_power_off
 1443              	rf_power_off:
 1444              	.LFB419:
 677:C:/Users/stapi/OneDrive/Desktop/GD32VW553/V1_MQTT_OK/GD32VW55X_Wifi_BLE_SDK/GD32VW55x_RELEASE_V1.0.2/MSDK/plf/src\gd32vw55x_platform.c **** 
 678:C:/Users/stapi/OneDrive/Desktop/GD32VW553/V1_MQTT_OK/GD32VW55X_Wifi_BLE_SDK/GD32VW55x_RELEASE_V1.0.2/MSDK/plf/src\gd32vw55x_platform.c **** void rf_power_off(void)
 679:C:/Users/stapi/OneDrive/Desktop/GD32VW553/V1_MQTT_OK/GD32VW55X_Wifi_BLE_SDK/GD32VW55x_RELEASE_V1.0.2/MSDK/plf/src\gd32vw55x_platform.c **** {
 1445              		.loc 1 679 1 is_stmt 1
 1446              		.cfi_startproc
 1447 0000 17030000 		call	t0,__riscv_save_1
 1447      E7020300 
 1448              		.cfi_offset 8, -8
 1449              		.cfi_offset 1, -4
 1450              		.cfi_def_cfa_offset 16
 680:C:/Users/stapi/OneDrive/Desktop/GD32VW553/V1_MQTT_OK/GD32VW55X_Wifi_BLE_SDK/GD32VW55x_RELEASE_V1.0.2/MSDK/plf/src\gd32vw55x_platform.c **** #ifdef CONFIG_PLATFORM_ASIC
 681:C:/Users/stapi/OneDrive/Desktop/GD32VW553/V1_MQTT_OK/GD32VW55X_Wifi_BLE_SDK/GD32VW55x_RELEASE_V1.0.2/MSDK/plf/src\gd32vw55x_platform.c ****     rcu_periph_clock_disable(RCU_RFI);
 1451              		.loc 1 681 5
 1452 0008 0564     		li	s0,4096
 1453 000a 1305F400 		addi	a0,s0,15
 1454 000e 97000000 		call	rcu_periph_clock_disable
 1454      E7800000 
 1455              	.LVL125:
 682:C:/Users/stapi/OneDrive/Desktop/GD32VW553/V1_MQTT_OK/GD32VW55X_Wifi_BLE_SDK/GD32VW55x_RELEASE_V1.0.2/MSDK/plf/src\gd32vw55x_platform.c ****     rcu_periph_clock_disable(RCU_RF);
 1456              		.loc 1 682 5
 1457 0016 1305F411 		addi	a0,s0,287
 1458 001a 97000000 		call	rcu_periph_clock_disable
 1458      E7800000 
 1459              	.LVL126:
 683:C:/Users/stapi/OneDrive/Desktop/GD32VW553/V1_MQTT_OK/GD32VW55X_Wifi_BLE_SDK/GD32VW55x_RELEASE_V1.0.2/MSDK/plf/src\gd32vw55x_platform.c **** #endif /* CONFIG_PLATFORM_ASIC */
 684:C:/Users/stapi/OneDrive/Desktop/GD32VW553/V1_MQTT_OK/GD32VW55X_Wifi_BLE_SDK/GD32VW55x_RELEASE_V1.0.2/MSDK/plf/src\gd32vw55x_platform.c **** }
 1460              		.loc 1 684 1 is_stmt 0
 1461 0022 17030000 		tail	__riscv_restore_1
 1461      67000300 
 1462              		.cfi_restore 8
 1463              		.cfi_restore 1
 1464              		.cfi_def_cfa_offset 0
 1465              		.cfi_endproc
 1466              	.LFE419:
 1468              		.section	.text.rtc_32k_time_get,"ax",@progbits
 1469              		.align	1
 1470              		.globl	rtc_32k_time_get
 1472              	rtc_32k_time_get:
 1473              	.LFB421:
 685:C:/Users/stapi/OneDrive/Desktop/GD32VW553/V1_MQTT_OK/GD32VW55X_Wifi_BLE_SDK/GD32VW55x_RELEASE_V1.0.2/MSDK/plf/src\gd32vw55x_platform.c **** 
 686:C:/Users/stapi/OneDrive/Desktop/GD32VW553/V1_MQTT_OK/GD32VW55X_Wifi_BLE_SDK/GD32VW55x_RELEASE_V1.0.2/MSDK/plf/src\gd32vw55x_platform.c **** #ifdef CONFIG_PLATFORM_FPGA
 687:C:/Users/stapi/OneDrive/Desktop/GD32VW553/V1_MQTT_OK/GD32VW55X_Wifi_BLE_SDK/GD32VW55x_RELEASE_V1.0.2/MSDK/plf/src\gd32vw55x_platform.c **** #define RTC_CLOCK_SOURCE_HXTAL_DIV_RTCDIV
 688:C:/Users/stapi/OneDrive/Desktop/GD32VW553/V1_MQTT_OK/GD32VW55X_Wifi_BLE_SDK/GD32VW55x_RELEASE_V1.0.2/MSDK/plf/src\gd32vw55x_platform.c **** #else
 689:C:/Users/stapi/OneDrive/Desktop/GD32VW553/V1_MQTT_OK/GD32VW55X_Wifi_BLE_SDK/GD32VW55x_RELEASE_V1.0.2/MSDK/plf/src\gd32vw55x_platform.c **** #define RTC_CLOCK_SOURCE_IRC32K
 690:C:/Users/stapi/OneDrive/Desktop/GD32VW553/V1_MQTT_OK/GD32VW55X_Wifi_BLE_SDK/GD32VW55x_RELEASE_V1.0.2/MSDK/plf/src\gd32vw55x_platform.c **** #endif
 691:C:/Users/stapi/OneDrive/Desktop/GD32VW553/V1_MQTT_OK/GD32VW55X_Wifi_BLE_SDK/GD32VW55x_RELEASE_V1.0.2/MSDK/plf/src\gd32vw55x_platform.c **** 
 692:C:/Users/stapi/OneDrive/Desktop/GD32VW553/V1_MQTT_OK/GD32VW55X_Wifi_BLE_SDK/GD32VW55x_RELEASE_V1.0.2/MSDK/plf/src\gd32vw55x_platform.c **** __IO uint32_t prescaler_a = 0, prescaler_s = 0;
 693:C:/Users/stapi/OneDrive/Desktop/GD32VW553/V1_MQTT_OK/GD32VW55X_Wifi_BLE_SDK/GD32VW55x_RELEASE_V1.0.2/MSDK/plf/src\gd32vw55x_platform.c **** 
 694:C:/Users/stapi/OneDrive/Desktop/GD32VW553/V1_MQTT_OK/GD32VW55X_Wifi_BLE_SDK/GD32VW55x_RELEASE_V1.0.2/MSDK/plf/src\gd32vw55x_platform.c **** /*!
 695:C:/Users/stapi/OneDrive/Desktop/GD32VW553/V1_MQTT_OK/GD32VW55X_Wifi_BLE_SDK/GD32VW55x_RELEASE_V1.0.2/MSDK/plf/src\gd32vw55x_platform.c ****     \brief      configure RTC pre-configure
 696:C:/Users/stapi/OneDrive/Desktop/GD32VW553/V1_MQTT_OK/GD32VW55X_Wifi_BLE_SDK/GD32VW55x_RELEASE_V1.0.2/MSDK/plf/src\gd32vw55x_platform.c ****     \param[in]  none
 697:C:/Users/stapi/OneDrive/Desktop/GD32VW553/V1_MQTT_OK/GD32VW55X_Wifi_BLE_SDK/GD32VW55x_RELEASE_V1.0.2/MSDK/plf/src\gd32vw55x_platform.c ****     \param[out] none
 698:C:/Users/stapi/OneDrive/Desktop/GD32VW553/V1_MQTT_OK/GD32VW55X_Wifi_BLE_SDK/GD32VW55x_RELEASE_V1.0.2/MSDK/plf/src\gd32vw55x_platform.c ****     \retval     none
 699:C:/Users/stapi/OneDrive/Desktop/GD32VW553/V1_MQTT_OK/GD32VW55X_Wifi_BLE_SDK/GD32VW55x_RELEASE_V1.0.2/MSDK/plf/src\gd32vw55x_platform.c **** */
 700:C:/Users/stapi/OneDrive/Desktop/GD32VW553/V1_MQTT_OK/GD32VW55X_Wifi_BLE_SDK/GD32VW55x_RELEASE_V1.0.2/MSDK/plf/src\gd32vw55x_platform.c **** static void rtc_pre_config(void)
 701:C:/Users/stapi/OneDrive/Desktop/GD32VW553/V1_MQTT_OK/GD32VW55X_Wifi_BLE_SDK/GD32VW55x_RELEASE_V1.0.2/MSDK/plf/src\gd32vw55x_platform.c **** {
 702:C:/Users/stapi/OneDrive/Desktop/GD32VW553/V1_MQTT_OK/GD32VW55X_Wifi_BLE_SDK/GD32VW55x_RELEASE_V1.0.2/MSDK/plf/src\gd32vw55x_platform.c ****     #if defined(RTC_CLOCK_SOURCE_IRC32K)
 703:C:/Users/stapi/OneDrive/Desktop/GD32VW553/V1_MQTT_OK/GD32VW55X_Wifi_BLE_SDK/GD32VW55x_RELEASE_V1.0.2/MSDK/plf/src\gd32vw55x_platform.c ****         rcu_osci_on(RCU_IRC32K);
 704:C:/Users/stapi/OneDrive/Desktop/GD32VW553/V1_MQTT_OK/GD32VW55X_Wifi_BLE_SDK/GD32VW55x_RELEASE_V1.0.2/MSDK/plf/src\gd32vw55x_platform.c ****         rcu_osci_stab_wait(RCU_IRC32K);
 705:C:/Users/stapi/OneDrive/Desktop/GD32VW553/V1_MQTT_OK/GD32VW55X_Wifi_BLE_SDK/GD32VW55x_RELEASE_V1.0.2/MSDK/plf/src\gd32vw55x_platform.c ****         rcu_rtc_clock_config(RCU_RTCSRC_IRC32K);
 706:C:/Users/stapi/OneDrive/Desktop/GD32VW553/V1_MQTT_OK/GD32VW55X_Wifi_BLE_SDK/GD32VW55x_RELEASE_V1.0.2/MSDK/plf/src\gd32vw55x_platform.c **** 
 707:C:/Users/stapi/OneDrive/Desktop/GD32VW553/V1_MQTT_OK/GD32VW55X_Wifi_BLE_SDK/GD32VW55x_RELEASE_V1.0.2/MSDK/plf/src\gd32vw55x_platform.c ****         prescaler_s = 0x3E7;  // 0x13F;
 708:C:/Users/stapi/OneDrive/Desktop/GD32VW553/V1_MQTT_OK/GD32VW55X_Wifi_BLE_SDK/GD32VW55x_RELEASE_V1.0.2/MSDK/plf/src\gd32vw55x_platform.c ****         prescaler_a = 0x1F;  // 0x63;
 709:C:/Users/stapi/OneDrive/Desktop/GD32VW553/V1_MQTT_OK/GD32VW55X_Wifi_BLE_SDK/GD32VW55x_RELEASE_V1.0.2/MSDK/plf/src\gd32vw55x_platform.c ****     #elif defined(RTC_CLOCK_SOURCE_LXTAL)
 710:C:/Users/stapi/OneDrive/Desktop/GD32VW553/V1_MQTT_OK/GD32VW55X_Wifi_BLE_SDK/GD32VW55x_RELEASE_V1.0.2/MSDK/plf/src\gd32vw55x_platform.c ****         rcu_osci_on(RCU_LXTAL);
 711:C:/Users/stapi/OneDrive/Desktop/GD32VW553/V1_MQTT_OK/GD32VW55X_Wifi_BLE_SDK/GD32VW55x_RELEASE_V1.0.2/MSDK/plf/src\gd32vw55x_platform.c ****         rcu_osci_stab_wait(RCU_LXTAL);
 712:C:/Users/stapi/OneDrive/Desktop/GD32VW553/V1_MQTT_OK/GD32VW55X_Wifi_BLE_SDK/GD32VW55x_RELEASE_V1.0.2/MSDK/plf/src\gd32vw55x_platform.c ****         rcu_rtc_clock_config(RCU_RTCSRC_LXTAL);
 713:C:/Users/stapi/OneDrive/Desktop/GD32VW553/V1_MQTT_OK/GD32VW55X_Wifi_BLE_SDK/GD32VW55x_RELEASE_V1.0.2/MSDK/plf/src\gd32vw55x_platform.c **** 
 714:C:/Users/stapi/OneDrive/Desktop/GD32VW553/V1_MQTT_OK/GD32VW55X_Wifi_BLE_SDK/GD32VW55x_RELEASE_V1.0.2/MSDK/plf/src\gd32vw55x_platform.c ****         prescaler_s = 0xFF;
 715:C:/Users/stapi/OneDrive/Desktop/GD32VW553/V1_MQTT_OK/GD32VW55X_Wifi_BLE_SDK/GD32VW55x_RELEASE_V1.0.2/MSDK/plf/src\gd32vw55x_platform.c ****         prescaler_a = 0x7F;
 716:C:/Users/stapi/OneDrive/Desktop/GD32VW553/V1_MQTT_OK/GD32VW55X_Wifi_BLE_SDK/GD32VW55x_RELEASE_V1.0.2/MSDK/plf/src\gd32vw55x_platform.c ****     #elif defined(RTC_CLOCK_SOURCE_HXTAL_DIV_RTCDIV)
 717:C:/Users/stapi/OneDrive/Desktop/GD32VW553/V1_MQTT_OK/GD32VW55X_Wifi_BLE_SDK/GD32VW55x_RELEASE_V1.0.2/MSDK/plf/src\gd32vw55x_platform.c ****         rcu_osci_on(RCU_HXTAL);
 718:C:/Users/stapi/OneDrive/Desktop/GD32VW553/V1_MQTT_OK/GD32VW55X_Wifi_BLE_SDK/GD32VW55x_RELEASE_V1.0.2/MSDK/plf/src\gd32vw55x_platform.c ****         rcu_osci_stab_wait(RCU_HXTAL);
 719:C:/Users/stapi/OneDrive/Desktop/GD32VW553/V1_MQTT_OK/GD32VW55X_Wifi_BLE_SDK/GD32VW55x_RELEASE_V1.0.2/MSDK/plf/src\gd32vw55x_platform.c ****         prescaler_s = 0x3E7;  // 999;
 720:C:/Users/stapi/OneDrive/Desktop/GD32VW553/V1_MQTT_OK/GD32VW55X_Wifi_BLE_SDK/GD32VW55x_RELEASE_V1.0.2/MSDK/plf/src\gd32vw55x_platform.c ****         prescaler_a = 0x13;  // 19;
 721:C:/Users/stapi/OneDrive/Desktop/GD32VW553/V1_MQTT_OK/GD32VW55X_Wifi_BLE_SDK/GD32VW55x_RELEASE_V1.0.2/MSDK/plf/src\gd32vw55x_platform.c ****         /* HW fix pre-scaler 100*/
 722:C:/Users/stapi/OneDrive/Desktop/GD32VW553/V1_MQTT_OK/GD32VW55X_Wifi_BLE_SDK/GD32VW55x_RELEASE_V1.0.2/MSDK/plf/src\gd32vw55x_platform.c ****         /* rtc clock selection as (HXTAL/25)/100 = 20KHZ */
 723:C:/Users/stapi/OneDrive/Desktop/GD32VW553/V1_MQTT_OK/GD32VW55X_Wifi_BLE_SDK/GD32VW55x_RELEASE_V1.0.2/MSDK/plf/src\gd32vw55x_platform.c ****         rcu_rtc_clock_config(RCU_RTCSRC_HXTAL_DIV_RTCDIV);
 724:C:/Users/stapi/OneDrive/Desktop/GD32VW553/V1_MQTT_OK/GD32VW55X_Wifi_BLE_SDK/GD32VW55x_RELEASE_V1.0.2/MSDK/plf/src\gd32vw55x_platform.c ****         rcu_rtc_div_config(RCU_RTC_HXTAL_DIV25);
 725:C:/Users/stapi/OneDrive/Desktop/GD32VW553/V1_MQTT_OK/GD32VW55X_Wifi_BLE_SDK/GD32VW55x_RELEASE_V1.0.2/MSDK/plf/src\gd32vw55x_platform.c ****     #else
 726:C:/Users/stapi/OneDrive/Desktop/GD32VW553/V1_MQTT_OK/GD32VW55X_Wifi_BLE_SDK/GD32VW55x_RELEASE_V1.0.2/MSDK/plf/src\gd32vw55x_platform.c ****     #error RTC clock source should be defined.
 727:C:/Users/stapi/OneDrive/Desktop/GD32VW553/V1_MQTT_OK/GD32VW55X_Wifi_BLE_SDK/GD32VW55x_RELEASE_V1.0.2/MSDK/plf/src\gd32vw55x_platform.c ****     #endif  /* RTC_CLOCK_SOURCE_IRC32K */
 728:C:/Users/stapi/OneDrive/Desktop/GD32VW553/V1_MQTT_OK/GD32VW55X_Wifi_BLE_SDK/GD32VW55x_RELEASE_V1.0.2/MSDK/plf/src\gd32vw55x_platform.c **** 
 729:C:/Users/stapi/OneDrive/Desktop/GD32VW553/V1_MQTT_OK/GD32VW55X_Wifi_BLE_SDK/GD32VW55x_RELEASE_V1.0.2/MSDK/plf/src\gd32vw55x_platform.c ****     rcu_periph_clock_enable(RCU_RTC);
 730:C:/Users/stapi/OneDrive/Desktop/GD32VW553/V1_MQTT_OK/GD32VW55X_Wifi_BLE_SDK/GD32VW55x_RELEASE_V1.0.2/MSDK/plf/src\gd32vw55x_platform.c ****     rtc_register_sync_wait();
 731:C:/Users/stapi/OneDrive/Desktop/GD32VW553/V1_MQTT_OK/GD32VW55X_Wifi_BLE_SDK/GD32VW55x_RELEASE_V1.0.2/MSDK/plf/src\gd32vw55x_platform.c **** }
 732:C:/Users/stapi/OneDrive/Desktop/GD32VW553/V1_MQTT_OK/GD32VW55X_Wifi_BLE_SDK/GD32VW55x_RELEASE_V1.0.2/MSDK/plf/src\gd32vw55x_platform.c **** 
 733:C:/Users/stapi/OneDrive/Desktop/GD32VW553/V1_MQTT_OK/GD32VW55X_Wifi_BLE_SDK/GD32VW55x_RELEASE_V1.0.2/MSDK/plf/src\gd32vw55x_platform.c **** /*!
 734:C:/Users/stapi/OneDrive/Desktop/GD32VW553/V1_MQTT_OK/GD32VW55X_Wifi_BLE_SDK/GD32VW55x_RELEASE_V1.0.2/MSDK/plf/src\gd32vw55x_platform.c ****     \brief      get rtc 32k time
 735:C:/Users/stapi/OneDrive/Desktop/GD32VW553/V1_MQTT_OK/GD32VW55X_Wifi_BLE_SDK/GD32VW55x_RELEASE_V1.0.2/MSDK/plf/src\gd32vw55x_platform.c ****     \param[in]  cur_time: pointer to the input structure
 736:C:/Users/stapi/OneDrive/Desktop/GD32VW553/V1_MQTT_OK/GD32VW55X_Wifi_BLE_SDK/GD32VW55x_RELEASE_V1.0.2/MSDK/plf/src\gd32vw55x_platform.c ****                   tv_sec: second of current time
 737:C:/Users/stapi/OneDrive/Desktop/GD32VW553/V1_MQTT_OK/GD32VW55X_Wifi_BLE_SDK/GD32VW55x_RELEASE_V1.0.2/MSDK/plf/src\gd32vw55x_platform.c ****                   tv_msec: miliseconds of current time
 738:C:/Users/stapi/OneDrive/Desktop/GD32VW553/V1_MQTT_OK/GD32VW55X_Wifi_BLE_SDK/GD32VW55x_RELEASE_V1.0.2/MSDK/plf/src\gd32vw55x_platform.c ****      \param[in]  is_wakeup: wakeup state
 739:C:/Users/stapi/OneDrive/Desktop/GD32VW553/V1_MQTT_OK/GD32VW55X_Wifi_BLE_SDK/GD32VW55x_RELEASE_V1.0.2/MSDK/plf/src\gd32vw55x_platform.c ****     \param[out] none
 740:C:/Users/stapi/OneDrive/Desktop/GD32VW553/V1_MQTT_OK/GD32VW55X_Wifi_BLE_SDK/GD32VW55x_RELEASE_V1.0.2/MSDK/plf/src\gd32vw55x_platform.c ****     \retval     none
 741:C:/Users/stapi/OneDrive/Desktop/GD32VW553/V1_MQTT_OK/GD32VW55X_Wifi_BLE_SDK/GD32VW55x_RELEASE_V1.0.2/MSDK/plf/src\gd32vw55x_platform.c **** */
 742:C:/Users/stapi/OneDrive/Desktop/GD32VW553/V1_MQTT_OK/GD32VW55X_Wifi_BLE_SDK/GD32VW55x_RELEASE_V1.0.2/MSDK/plf/src\gd32vw55x_platform.c **** void rtc_32k_time_get(struct time_rtc *cur_time, uint32_t is_wakeup)
 743:C:/Users/stapi/OneDrive/Desktop/GD32VW553/V1_MQTT_OK/GD32VW55X_Wifi_BLE_SDK/GD32VW55x_RELEASE_V1.0.2/MSDK/plf/src\gd32vw55x_platform.c **** {
 1474              		.loc 1 743 1 is_stmt 1
 1475              		.cfi_startproc
 1476              	.LVL127:
 1477 0000 17030000 		call	t0,__riscv_save_2
 1477      E7020300 
 1478              		.cfi_offset 9, -12
 1479              		.cfi_offset 8, -8
 1480              		.cfi_offset 1, -4
 1481              		.cfi_def_cfa_offset 16
 744:C:/Users/stapi/OneDrive/Desktop/GD32VW553/V1_MQTT_OK/GD32VW55X_Wifi_BLE_SDK/GD32VW55x_RELEASE_V1.0.2/MSDK/plf/src\gd32vw55x_platform.c ****     rtc_parameter_struct rtc_time;
 1482              		.loc 1 744 5
 745:C:/Users/stapi/OneDrive/Desktop/GD32VW553/V1_MQTT_OK/GD32VW55X_Wifi_BLE_SDK/GD32VW55x_RELEASE_V1.0.2/MSDK/plf/src\gd32vw55x_platform.c ****     uint32_t second;
 1483              		.loc 1 745 5
 746:C:/Users/stapi/OneDrive/Desktop/GD32VW553/V1_MQTT_OK/GD32VW55X_Wifi_BLE_SDK/GD32VW55x_RELEASE_V1.0.2/MSDK/plf/src\gd32vw55x_platform.c ****     uint32_t sub_second;
 1484              		.loc 1 746 5
 747:C:/Users/stapi/OneDrive/Desktop/GD32VW553/V1_MQTT_OK/GD32VW55X_Wifi_BLE_SDK/GD32VW55x_RELEASE_V1.0.2/MSDK/plf/src\gd32vw55x_platform.c **** 
 748:C:/Users/stapi/OneDrive/Desktop/GD32VW553/V1_MQTT_OK/GD32VW55X_Wifi_BLE_SDK/GD32VW55x_RELEASE_V1.0.2/MSDK/plf/src\gd32vw55x_platform.c ****     if (is_wakeup) {
 1485              		.loc 1 748 5
 743:C:/Users/stapi/OneDrive/Desktop/GD32VW553/V1_MQTT_OK/GD32VW55X_Wifi_BLE_SDK/GD32VW55x_RELEASE_V1.0.2/MSDK/plf/src\gd32vw55x_platform.c ****     rtc_parameter_struct rtc_time;
 1486              		.loc 1 743 1 is_stmt 0
 1487 0008 0111     		addi	sp,sp,-32
 1488              		.cfi_def_cfa_offset 48
 743:C:/Users/stapi/OneDrive/Desktop/GD32VW553/V1_MQTT_OK/GD32VW55X_Wifi_BLE_SDK/GD32VW55x_RELEASE_V1.0.2/MSDK/plf/src\gd32vw55x_platform.c ****     rtc_parameter_struct rtc_time;
 1489              		.loc 1 743 1
 1490 000a 2A84     		mv	s0,a0
 1491              		.loc 1 748 8
 1492 000c 89C5     		beq	a1,zero,.L122
 749:C:/Users/stapi/OneDrive/Desktop/GD32VW553/V1_MQTT_OK/GD32VW55X_Wifi_BLE_SDK/GD32VW55x_RELEASE_V1.0.2/MSDK/plf/src\gd32vw55x_platform.c ****         rtc_register_sync_wait();
 1493              		.loc 1 749 9 is_stmt 1
 1494 000e 97000000 		call	rtc_register_sync_wait
 1494      E7800000 
 1495              	.LVL128:
 1496              	.L122:
 750:C:/Users/stapi/OneDrive/Desktop/GD32VW553/V1_MQTT_OK/GD32VW55X_Wifi_BLE_SDK/GD32VW55x_RELEASE_V1.0.2/MSDK/plf/src\gd32vw55x_platform.c ****     }
 751:C:/Users/stapi/OneDrive/Desktop/GD32VW553/V1_MQTT_OK/GD32VW55X_Wifi_BLE_SDK/GD32VW55x_RELEASE_V1.0.2/MSDK/plf/src\gd32vw55x_platform.c **** 
 752:C:/Users/stapi/OneDrive/Desktop/GD32VW553/V1_MQTT_OK/GD32VW55X_Wifi_BLE_SDK/GD32VW55x_RELEASE_V1.0.2/MSDK/plf/src\gd32vw55x_platform.c ****     /* If directly call rtc_subsecond_get() function to get sub-second,
 753:C:/Users/stapi/OneDrive/Desktop/GD32VW553/V1_MQTT_OK/GD32VW55X_Wifi_BLE_SDK/GD32VW55x_RELEASE_V1.0.2/MSDK/plf/src\gd32vw55x_platform.c ****        it would unlock RTC_TIME and RTC_DATE by reading the RTC_DATE at the end.
 754:C:/Users/stapi/OneDrive/Desktop/GD32VW553/V1_MQTT_OK/GD32VW55X_Wifi_BLE_SDK/GD32VW55x_RELEASE_V1.0.2/MSDK/plf/src\gd32vw55x_platform.c ****        This could not protect the situation where we read the time just 59.999.
 755:C:/Users/stapi/OneDrive/Desktop/GD32VW553/V1_MQTT_OK/GD32VW55X_Wifi_BLE_SDK/GD32VW55x_RELEASE_V1.0.2/MSDK/plf/src\gd32vw55x_platform.c ****        as RTC_TIME may be updated to 00 at the next clock.
 756:C:/Users/stapi/OneDrive/Desktop/GD32VW553/V1_MQTT_OK/GD32VW55X_Wifi_BLE_SDK/GD32VW55x_RELEASE_V1.0.2/MSDK/plf/src\gd32vw55x_platform.c ****     */
 757:C:/Users/stapi/OneDrive/Desktop/GD32VW553/V1_MQTT_OK/GD32VW55X_Wifi_BLE_SDK/GD32VW55x_RELEASE_V1.0.2/MSDK/plf/src\gd32vw55x_platform.c ****     // Firstly we read RTC_SS to lock RTC_TIME and RTC_DATE,
 758:C:/Users/stapi/OneDrive/Desktop/GD32VW553/V1_MQTT_OK/GD32VW55X_Wifi_BLE_SDK/GD32VW55x_RELEASE_V1.0.2/MSDK/plf/src\gd32vw55x_platform.c ****     sub_second = RTC_SS;
 1497              		.loc 1 758 5
 1498              		.loc 1 758 16 is_stmt 0
 1499 0016 B7370040 		li	a5,1073754112
 759:C:/Users/stapi/OneDrive/Desktop/GD32VW553/V1_MQTT_OK/GD32VW55X_Wifi_BLE_SDK/GD32VW55x_RELEASE_V1.0.2/MSDK/plf/src\gd32vw55x_platform.c **** 
 760:C:/Users/stapi/OneDrive/Desktop/GD32VW553/V1_MQTT_OK/GD32VW55X_Wifi_BLE_SDK/GD32VW55x_RELEASE_V1.0.2/MSDK/plf/src\gd32vw55x_platform.c ****     /* Then, we must call rtc_current_time_get here to read RTC_TIME && RTC_DATA
 761:C:/Users/stapi/OneDrive/Desktop/GD32VW553/V1_MQTT_OK/GD32VW55X_Wifi_BLE_SDK/GD32VW55x_RELEASE_V1.0.2/MSDK/plf/src\gd32vw55x_platform.c ****        and unlock them by the way
 762:C:/Users/stapi/OneDrive/Desktop/GD32VW553/V1_MQTT_OK/GD32VW55X_Wifi_BLE_SDK/GD32VW55x_RELEASE_V1.0.2/MSDK/plf/src\gd32vw55x_platform.c ****     */
 763:C:/Users/stapi/OneDrive/Desktop/GD32VW553/V1_MQTT_OK/GD32VW55X_Wifi_BLE_SDK/GD32VW55x_RELEASE_V1.0.2/MSDK/plf/src\gd32vw55x_platform.c ****     rtc_current_time_get(&rtc_time);
 1500              		.loc 1 763 5
 1501 001a 6800     		addi	a0,sp,12
 758:C:/Users/stapi/OneDrive/Desktop/GD32VW553/V1_MQTT_OK/GD32VW55X_Wifi_BLE_SDK/GD32VW55x_RELEASE_V1.0.2/MSDK/plf/src\gd32vw55x_platform.c **** 
 1502              		.loc 1 758 16
 1503 001c 83A48782 		lw	s1,-2008(a5)
 1504              	.LVL129:
 1505              		.loc 1 763 5 is_stmt 1
 1506 0020 97000000 		call	rtc_current_time_get
 1506      E7800000 
 1507              	.LVL130:
 764:C:/Users/stapi/OneDrive/Desktop/GD32VW553/V1_MQTT_OK/GD32VW55X_Wifi_BLE_SDK/GD32VW55x_RELEASE_V1.0.2/MSDK/plf/src\gd32vw55x_platform.c **** 
 765:C:/Users/stapi/OneDrive/Desktop/GD32VW553/V1_MQTT_OK/GD32VW55X_Wifi_BLE_SDK/GD32VW55x_RELEASE_V1.0.2/MSDK/plf/src\gd32vw55x_platform.c ****     second = ((rtc_time.second >> 4) * 10) + (rtc_time.second & 0x0f);
 1508              		.loc 1 765 5
 1509              		.loc 1 765 24 is_stmt 0
 1510 0028 83472101 		lbu	a5,18(sp)
 1511              	.LVL131:
 766:C:/Users/stapi/OneDrive/Desktop/GD32VW553/V1_MQTT_OK/GD32VW55X_Wifi_BLE_SDK/GD32VW55x_RELEASE_V1.0.2/MSDK/plf/src\gd32vw55x_platform.c **** 
 767:C:/Users/stapi/OneDrive/Desktop/GD32VW553/V1_MQTT_OK/GD32VW55X_Wifi_BLE_SDK/GD32VW55x_RELEASE_V1.0.2/MSDK/plf/src\gd32vw55x_platform.c ****     cur_time->tv_sec = second;
 1512              		.loc 1 767 5 is_stmt 1
 765:C:/Users/stapi/OneDrive/Desktop/GD32VW553/V1_MQTT_OK/GD32VW55X_Wifi_BLE_SDK/GD32VW55x_RELEASE_V1.0.2/MSDK/plf/src\gd32vw55x_platform.c **** 
 1513              		.loc 1 765 44 is_stmt 0
 1514 002c 2947     		li	a4,10
 765:C:/Users/stapi/OneDrive/Desktop/GD32VW553/V1_MQTT_OK/GD32VW55X_Wifi_BLE_SDK/GD32VW55x_RELEASE_V1.0.2/MSDK/plf/src\gd32vw55x_platform.c **** 
 1515              		.loc 1 765 32
 1516 002e 93D64700 		srli	a3,a5,4
 765:C:/Users/stapi/OneDrive/Desktop/GD32VW553/V1_MQTT_OK/GD32VW55X_Wifi_BLE_SDK/GD32VW55x_RELEASE_V1.0.2/MSDK/plf/src\gd32vw55x_platform.c **** 
 1517              		.loc 1 765 63
 1518 0032 BD8B     		andi	a5,a5,15
 1519              	.LVL132:
 765:C:/Users/stapi/OneDrive/Desktop/GD32VW553/V1_MQTT_OK/GD32VW55X_Wifi_BLE_SDK/GD32VW55x_RELEASE_V1.0.2/MSDK/plf/src\gd32vw55x_platform.c **** 
 1520              		.loc 1 765 44
 1521 0034 FF97E6C4 		maddr32	a5, a3, a4
 1522              		.loc 1 767 22
 1523 0038 1CC0     		sw	a5,0(s0)
 768:C:/Users/stapi/OneDrive/Desktop/GD32VW553/V1_MQTT_OK/GD32VW55X_Wifi_BLE_SDK/GD32VW55x_RELEASE_V1.0.2/MSDK/plf/src\gd32vw55x_platform.c ****     /* The sub-second(unit ms) calculated formula is as follow:
 769:C:/Users/stapi/OneDrive/Desktop/GD32VW553/V1_MQTT_OK/GD32VW55X_Wifi_BLE_SDK/GD32VW55x_RELEASE_V1.0.2/MSDK/plf/src\gd32vw55x_platform.c ****           sub_second = 1000*((float)(prescaler_s - RTC_SS)/(float)(prescaler_s + 1))
 770:C:/Users/stapi/OneDrive/Desktop/GD32VW553/V1_MQTT_OK/GD32VW55X_Wifi_BLE_SDK/GD32VW55x_RELEASE_V1.0.2/MSDK/plf/src\gd32vw55x_platform.c ****        We can use the simple formula if prescaler_s = 999.
 771:C:/Users/stapi/OneDrive/Desktop/GD32VW553/V1_MQTT_OK/GD32VW55X_Wifi_BLE_SDK/GD32VW55x_RELEASE_V1.0.2/MSDK/plf/src\gd32vw55x_platform.c ****     */
 772:C:/Users/stapi/OneDrive/Desktop/GD32VW553/V1_MQTT_OK/GD32VW55X_Wifi_BLE_SDK/GD32VW55x_RELEASE_V1.0.2/MSDK/plf/src\gd32vw55x_platform.c ****     cur_time->tv_msec = prescaler_s - sub_second;
 1524              		.loc 1 772 5 is_stmt 1
 1525              		.loc 1 772 37 is_stmt 0
 1526 003a B7070000 		lui	a5,%hi(.LANCHOR0)
 1527 003e 83A70700 		lw	a5,%lo(.LANCHOR0)(a5)
 1528 0042 858F     		sub	a5,a5,s1
 1529              		.loc 1 772 23
 1530 0044 5CC0     		sw	a5,4(s0)
 773:C:/Users/stapi/OneDrive/Desktop/GD32VW553/V1_MQTT_OK/GD32VW55X_Wifi_BLE_SDK/GD32VW55x_RELEASE_V1.0.2/MSDK/plf/src\gd32vw55x_platform.c **** }
 1531              		.loc 1 773 1
 1532 0046 0561     		addi	sp,sp,32
 1533              		.cfi_def_cfa_offset 0
 1534              	.LVL133:
 1535 0048 17030000 		tail	__riscv_restore_2
 1535      67000300 
 1536              		.cfi_restore 9
 1537              		.cfi_restore 8
 1538              		.cfi_restore 1
 1539              		.cfi_def_cfa_offset -16
 1540              		.cfi_endproc
 1541              	.LFE421:
 1543              		.section	.rodata.platform_init.str1.4,"aMS",@progbits,1
 1544              		.align	2
 1545              	.LC0:
 1546 0000 52544320 		.string	"RTC time configuration failed!\r"
 1546      74696D65 
 1546      20636F6E 
 1546      66696775 
 1546      72617469 
 1547              		.align	2
 1548              	.LC1:
 1549 0020 6E766473 		.string	"nvds flash init failed\r\n"
 1549      20666C61 
 1549      73682069 
 1549      6E697420 
 1549      6661696C 
 1550              		.section	.text.platform_init,"ax",@progbits
 1551              		.align	1
 1552              		.globl	platform_init
 1554              	platform_init:
 1555              	.LFB426:
 774:C:/Users/stapi/OneDrive/Desktop/GD32VW553/V1_MQTT_OK/GD32VW55X_Wifi_BLE_SDK/GD32VW55x_RELEASE_V1.0.2/MSDK/plf/src\gd32vw55x_platform.c **** 
 775:C:/Users/stapi/OneDrive/Desktop/GD32VW553/V1_MQTT_OK/GD32VW55X_Wifi_BLE_SDK/GD32VW55x_RELEASE_V1.0.2/MSDK/plf/src\gd32vw55x_platform.c **** 
 776:C:/Users/stapi/OneDrive/Desktop/GD32VW553/V1_MQTT_OK/GD32VW55X_Wifi_BLE_SDK/GD32VW55x_RELEASE_V1.0.2/MSDK/plf/src\gd32vw55x_platform.c **** 
 777:C:/Users/stapi/OneDrive/Desktop/GD32VW553/V1_MQTT_OK/GD32VW55X_Wifi_BLE_SDK/GD32VW55x_RELEASE_V1.0.2/MSDK/plf/src\gd32vw55x_platform.c **** /*!
 778:C:/Users/stapi/OneDrive/Desktop/GD32VW553/V1_MQTT_OK/GD32VW55X_Wifi_BLE_SDK/GD32VW55x_RELEASE_V1.0.2/MSDK/plf/src\gd32vw55x_platform.c ****     \brief      setup rtc
 779:C:/Users/stapi/OneDrive/Desktop/GD32VW553/V1_MQTT_OK/GD32VW55X_Wifi_BLE_SDK/GD32VW55x_RELEASE_V1.0.2/MSDK/plf/src\gd32vw55x_platform.c ****     \param[in]  none
 780:C:/Users/stapi/OneDrive/Desktop/GD32VW553/V1_MQTT_OK/GD32VW55X_Wifi_BLE_SDK/GD32VW55x_RELEASE_V1.0.2/MSDK/plf/src\gd32vw55x_platform.c ****     \param[out] none
 781:C:/Users/stapi/OneDrive/Desktop/GD32VW553/V1_MQTT_OK/GD32VW55X_Wifi_BLE_SDK/GD32VW55x_RELEASE_V1.0.2/MSDK/plf/src\gd32vw55x_platform.c ****     \retval     none
 782:C:/Users/stapi/OneDrive/Desktop/GD32VW553/V1_MQTT_OK/GD32VW55X_Wifi_BLE_SDK/GD32VW55x_RELEASE_V1.0.2/MSDK/plf/src\gd32vw55x_platform.c **** */
 783:C:/Users/stapi/OneDrive/Desktop/GD32VW553/V1_MQTT_OK/GD32VW55X_Wifi_BLE_SDK/GD32VW55x_RELEASE_V1.0.2/MSDK/plf/src\gd32vw55x_platform.c **** static void rtc_setup(void)
 784:C:/Users/stapi/OneDrive/Desktop/GD32VW553/V1_MQTT_OK/GD32VW55X_Wifi_BLE_SDK/GD32VW55x_RELEASE_V1.0.2/MSDK/plf/src\gd32vw55x_platform.c **** {
 785:C:/Users/stapi/OneDrive/Desktop/GD32VW553/V1_MQTT_OK/GD32VW55X_Wifi_BLE_SDK/GD32VW55x_RELEASE_V1.0.2/MSDK/plf/src\gd32vw55x_platform.c ****     rtc_parameter_struct rtc_initpara;
 786:C:/Users/stapi/OneDrive/Desktop/GD32VW553/V1_MQTT_OK/GD32VW55X_Wifi_BLE_SDK/GD32VW55x_RELEASE_V1.0.2/MSDK/plf/src\gd32vw55x_platform.c **** 
 787:C:/Users/stapi/OneDrive/Desktop/GD32VW553/V1_MQTT_OK/GD32VW55X_Wifi_BLE_SDK/GD32VW55x_RELEASE_V1.0.2/MSDK/plf/src\gd32vw55x_platform.c ****     /* setup RTC time value */
 788:C:/Users/stapi/OneDrive/Desktop/GD32VW553/V1_MQTT_OK/GD32VW55X_Wifi_BLE_SDK/GD32VW55x_RELEASE_V1.0.2/MSDK/plf/src\gd32vw55x_platform.c ****     uint32_t tmp_hh = 0, tmp_mm = 0, tmp_ss = 0;
 789:C:/Users/stapi/OneDrive/Desktop/GD32VW553/V1_MQTT_OK/GD32VW55X_Wifi_BLE_SDK/GD32VW55x_RELEASE_V1.0.2/MSDK/plf/src\gd32vw55x_platform.c **** 
 790:C:/Users/stapi/OneDrive/Desktop/GD32VW553/V1_MQTT_OK/GD32VW55X_Wifi_BLE_SDK/GD32VW55x_RELEASE_V1.0.2/MSDK/plf/src\gd32vw55x_platform.c ****     rtc_initpara.factor_asyn = prescaler_a;
 791:C:/Users/stapi/OneDrive/Desktop/GD32VW553/V1_MQTT_OK/GD32VW55X_Wifi_BLE_SDK/GD32VW55x_RELEASE_V1.0.2/MSDK/plf/src\gd32vw55x_platform.c ****     rtc_initpara.factor_syn = prescaler_s;
 792:C:/Users/stapi/OneDrive/Desktop/GD32VW553/V1_MQTT_OK/GD32VW55X_Wifi_BLE_SDK/GD32VW55x_RELEASE_V1.0.2/MSDK/plf/src\gd32vw55x_platform.c ****     rtc_initpara.year = 0x20;
 793:C:/Users/stapi/OneDrive/Desktop/GD32VW553/V1_MQTT_OK/GD32VW55X_Wifi_BLE_SDK/GD32VW55x_RELEASE_V1.0.2/MSDK/plf/src\gd32vw55x_platform.c ****     rtc_initpara.day_of_week = RTC_MONDAY;
 794:C:/Users/stapi/OneDrive/Desktop/GD32VW553/V1_MQTT_OK/GD32VW55X_Wifi_BLE_SDK/GD32VW55x_RELEASE_V1.0.2/MSDK/plf/src\gd32vw55x_platform.c ****     rtc_initpara.month = RTC_NOV;
 795:C:/Users/stapi/OneDrive/Desktop/GD32VW553/V1_MQTT_OK/GD32VW55X_Wifi_BLE_SDK/GD32VW55x_RELEASE_V1.0.2/MSDK/plf/src\gd32vw55x_platform.c ****     rtc_initpara.date = 0x2;
 796:C:/Users/stapi/OneDrive/Desktop/GD32VW553/V1_MQTT_OK/GD32VW55X_Wifi_BLE_SDK/GD32VW55x_RELEASE_V1.0.2/MSDK/plf/src\gd32vw55x_platform.c ****     rtc_initpara.display_format = RTC_24HOUR;
 797:C:/Users/stapi/OneDrive/Desktop/GD32VW553/V1_MQTT_OK/GD32VW55X_Wifi_BLE_SDK/GD32VW55x_RELEASE_V1.0.2/MSDK/plf/src\gd32vw55x_platform.c ****     rtc_initpara.am_pm = RTC_AM;
 798:C:/Users/stapi/OneDrive/Desktop/GD32VW553/V1_MQTT_OK/GD32VW55X_Wifi_BLE_SDK/GD32VW55x_RELEASE_V1.0.2/MSDK/plf/src\gd32vw55x_platform.c ****     rtc_initpara.hour = tmp_hh;
 799:C:/Users/stapi/OneDrive/Desktop/GD32VW553/V1_MQTT_OK/GD32VW55X_Wifi_BLE_SDK/GD32VW55x_RELEASE_V1.0.2/MSDK/plf/src\gd32vw55x_platform.c ****     rtc_initpara.minute = tmp_mm;
 800:C:/Users/stapi/OneDrive/Desktop/GD32VW553/V1_MQTT_OK/GD32VW55X_Wifi_BLE_SDK/GD32VW55x_RELEASE_V1.0.2/MSDK/plf/src\gd32vw55x_platform.c ****     rtc_initpara.second = tmp_ss;
 801:C:/Users/stapi/OneDrive/Desktop/GD32VW553/V1_MQTT_OK/GD32VW55X_Wifi_BLE_SDK/GD32VW55x_RELEASE_V1.0.2/MSDK/plf/src\gd32vw55x_platform.c **** 
 802:C:/Users/stapi/OneDrive/Desktop/GD32VW553/V1_MQTT_OK/GD32VW55X_Wifi_BLE_SDK/GD32VW55x_RELEASE_V1.0.2/MSDK/plf/src\gd32vw55x_platform.c ****     /* RTC current time configuration */
 803:C:/Users/stapi/OneDrive/Desktop/GD32VW553/V1_MQTT_OK/GD32VW55X_Wifi_BLE_SDK/GD32VW55x_RELEASE_V1.0.2/MSDK/plf/src\gd32vw55x_platform.c ****     if (ERROR == rtc_init(&rtc_initpara)) {
 804:C:/Users/stapi/OneDrive/Desktop/GD32VW553/V1_MQTT_OK/GD32VW55X_Wifi_BLE_SDK/GD32VW55x_RELEASE_V1.0.2/MSDK/plf/src\gd32vw55x_platform.c ****         printf("RTC time configuration failed!\r\n");
 805:C:/Users/stapi/OneDrive/Desktop/GD32VW553/V1_MQTT_OK/GD32VW55X_Wifi_BLE_SDK/GD32VW55x_RELEASE_V1.0.2/MSDK/plf/src\gd32vw55x_platform.c ****     } else {
 806:C:/Users/stapi/OneDrive/Desktop/GD32VW553/V1_MQTT_OK/GD32VW55X_Wifi_BLE_SDK/GD32VW55x_RELEASE_V1.0.2/MSDK/plf/src\gd32vw55x_platform.c ****         rtc_current_time_get(&rtc_initpara);
 807:C:/Users/stapi/OneDrive/Desktop/GD32VW553/V1_MQTT_OK/GD32VW55X_Wifi_BLE_SDK/GD32VW55x_RELEASE_V1.0.2/MSDK/plf/src\gd32vw55x_platform.c ****     }
 808:C:/Users/stapi/OneDrive/Desktop/GD32VW553/V1_MQTT_OK/GD32VW55X_Wifi_BLE_SDK/GD32VW55x_RELEASE_V1.0.2/MSDK/plf/src\gd32vw55x_platform.c **** }
 809:C:/Users/stapi/OneDrive/Desktop/GD32VW553/V1_MQTT_OK/GD32VW55X_Wifi_BLE_SDK/GD32VW55x_RELEASE_V1.0.2/MSDK/plf/src\gd32vw55x_platform.c **** 
 810:C:/Users/stapi/OneDrive/Desktop/GD32VW553/V1_MQTT_OK/GD32VW55X_Wifi_BLE_SDK/GD32VW55x_RELEASE_V1.0.2/MSDK/plf/src\gd32vw55x_platform.c **** /*!
 811:C:/Users/stapi/OneDrive/Desktop/GD32VW553/V1_MQTT_OK/GD32VW55X_Wifi_BLE_SDK/GD32VW55x_RELEASE_V1.0.2/MSDK/plf/src\gd32vw55x_platform.c ****     \brief      configure rtc 32k clock
 812:C:/Users/stapi/OneDrive/Desktop/GD32VW553/V1_MQTT_OK/GD32VW55X_Wifi_BLE_SDK/GD32VW55x_RELEASE_V1.0.2/MSDK/plf/src\gd32vw55x_platform.c ****     \param[in]  none
 813:C:/Users/stapi/OneDrive/Desktop/GD32VW553/V1_MQTT_OK/GD32VW55X_Wifi_BLE_SDK/GD32VW55x_RELEASE_V1.0.2/MSDK/plf/src\gd32vw55x_platform.c ****     \param[out] none
 814:C:/Users/stapi/OneDrive/Desktop/GD32VW553/V1_MQTT_OK/GD32VW55X_Wifi_BLE_SDK/GD32VW55x_RELEASE_V1.0.2/MSDK/plf/src\gd32vw55x_platform.c ****     \retval     none
 815:C:/Users/stapi/OneDrive/Desktop/GD32VW553/V1_MQTT_OK/GD32VW55X_Wifi_BLE_SDK/GD32VW55x_RELEASE_V1.0.2/MSDK/plf/src\gd32vw55x_platform.c **** */
 816:C:/Users/stapi/OneDrive/Desktop/GD32VW553/V1_MQTT_OK/GD32VW55X_Wifi_BLE_SDK/GD32VW55x_RELEASE_V1.0.2/MSDK/plf/src\gd32vw55x_platform.c **** static void rtc_32k_config(void)
 817:C:/Users/stapi/OneDrive/Desktop/GD32VW553/V1_MQTT_OK/GD32VW55X_Wifi_BLE_SDK/GD32VW55x_RELEASE_V1.0.2/MSDK/plf/src\gd32vw55x_platform.c **** {
 818:C:/Users/stapi/OneDrive/Desktop/GD32VW553/V1_MQTT_OK/GD32VW55X_Wifi_BLE_SDK/GD32VW55x_RELEASE_V1.0.2/MSDK/plf/src\gd32vw55x_platform.c ****     /* enable access to RTC registers in Backup domain */
 819:C:/Users/stapi/OneDrive/Desktop/GD32VW553/V1_MQTT_OK/GD32VW55X_Wifi_BLE_SDK/GD32VW55x_RELEASE_V1.0.2/MSDK/plf/src\gd32vw55x_platform.c ****     rcu_periph_clock_enable(RCU_PMU);
 820:C:/Users/stapi/OneDrive/Desktop/GD32VW553/V1_MQTT_OK/GD32VW55X_Wifi_BLE_SDK/GD32VW55x_RELEASE_V1.0.2/MSDK/plf/src\gd32vw55x_platform.c ****     pmu_backup_write_enable();
 821:C:/Users/stapi/OneDrive/Desktop/GD32VW553/V1_MQTT_OK/GD32VW55X_Wifi_BLE_SDK/GD32VW55x_RELEASE_V1.0.2/MSDK/plf/src\gd32vw55x_platform.c **** 
 822:C:/Users/stapi/OneDrive/Desktop/GD32VW553/V1_MQTT_OK/GD32VW55X_Wifi_BLE_SDK/GD32VW55x_RELEASE_V1.0.2/MSDK/plf/src\gd32vw55x_platform.c ****     rtc_pre_config();
 823:C:/Users/stapi/OneDrive/Desktop/GD32VW553/V1_MQTT_OK/GD32VW55X_Wifi_BLE_SDK/GD32VW55x_RELEASE_V1.0.2/MSDK/plf/src\gd32vw55x_platform.c ****     // /* 32K clock selection */
 824:C:/Users/stapi/OneDrive/Desktop/GD32VW553/V1_MQTT_OK/GD32VW55X_Wifi_BLE_SDK/GD32VW55x_RELEASE_V1.0.2/MSDK/plf/src\gd32vw55x_platform.c ****     // REG32(RCU + 0x70) = (REG32(RCU + 0x70) & 0xfffffcff) | 0x00000200;
 825:C:/Users/stapi/OneDrive/Desktop/GD32VW553/V1_MQTT_OK/GD32VW55X_Wifi_BLE_SDK/GD32VW55x_RELEASE_V1.0.2/MSDK/plf/src\gd32vw55x_platform.c **** 
 826:C:/Users/stapi/OneDrive/Desktop/GD32VW553/V1_MQTT_OK/GD32VW55X_Wifi_BLE_SDK/GD32VW55x_RELEASE_V1.0.2/MSDK/plf/src\gd32vw55x_platform.c ****     rtc_deinit();
 827:C:/Users/stapi/OneDrive/Desktop/GD32VW553/V1_MQTT_OK/GD32VW55X_Wifi_BLE_SDK/GD32VW55x_RELEASE_V1.0.2/MSDK/plf/src\gd32vw55x_platform.c ****     rtc_setup();
 828:C:/Users/stapi/OneDrive/Desktop/GD32VW553/V1_MQTT_OK/GD32VW55X_Wifi_BLE_SDK/GD32VW55x_RELEASE_V1.0.2/MSDK/plf/src\gd32vw55x_platform.c **** 
 829:C:/Users/stapi/OneDrive/Desktop/GD32VW553/V1_MQTT_OK/GD32VW55X_Wifi_BLE_SDK/GD32VW55x_RELEASE_V1.0.2/MSDK/plf/src\gd32vw55x_platform.c ****     /* clear wakeup timer occurs flag */
 830:C:/Users/stapi/OneDrive/Desktop/GD32VW553/V1_MQTT_OK/GD32VW55X_Wifi_BLE_SDK/GD32VW55x_RELEASE_V1.0.2/MSDK/plf/src\gd32vw55x_platform.c ****     rtc_flag_clear(RTC_STAT_WTF);
 831:C:/Users/stapi/OneDrive/Desktop/GD32VW553/V1_MQTT_OK/GD32VW55X_Wifi_BLE_SDK/GD32VW55x_RELEASE_V1.0.2/MSDK/plf/src\gd32vw55x_platform.c ****     /* RTC wakeup configuration */
 832:C:/Users/stapi/OneDrive/Desktop/GD32VW553/V1_MQTT_OK/GD32VW55X_Wifi_BLE_SDK/GD32VW55x_RELEASE_V1.0.2/MSDK/plf/src\gd32vw55x_platform.c ****     rtc_interrupt_enable(RTC_INT_WAKEUP);
 833:C:/Users/stapi/OneDrive/Desktop/GD32VW553/V1_MQTT_OK/GD32VW55X_Wifi_BLE_SDK/GD32VW55x_RELEASE_V1.0.2/MSDK/plf/src\gd32vw55x_platform.c **** #if defined(RTC_CLOCK_SOURCE_IRC32K)
 834:C:/Users/stapi/OneDrive/Desktop/GD32VW553/V1_MQTT_OK/GD32VW55X_Wifi_BLE_SDK/GD32VW55x_RELEASE_V1.0.2/MSDK/plf/src\gd32vw55x_platform.c ****     /* set wakeup clock as RTCCK_DIV16 */
 835:C:/Users/stapi/OneDrive/Desktop/GD32VW553/V1_MQTT_OK/GD32VW55X_Wifi_BLE_SDK/GD32VW55x_RELEASE_V1.0.2/MSDK/plf/src\gd32vw55x_platform.c ****     rtc_wakeup_clock_set(WAKEUP_RTCCK_DIV16);
 836:C:/Users/stapi/OneDrive/Desktop/GD32VW553/V1_MQTT_OK/GD32VW55X_Wifi_BLE_SDK/GD32VW55x_RELEASE_V1.0.2/MSDK/plf/src\gd32vw55x_platform.c **** #else
 837:C:/Users/stapi/OneDrive/Desktop/GD32VW553/V1_MQTT_OK/GD32VW55X_Wifi_BLE_SDK/GD32VW55x_RELEASE_V1.0.2/MSDK/plf/src\gd32vw55x_platform.c ****     /* set wakeup clock as WAKEUP_RTCCK_DIV4 = RTC CLOCK / 4 = 5KHZ*/
 838:C:/Users/stapi/OneDrive/Desktop/GD32VW553/V1_MQTT_OK/GD32VW55X_Wifi_BLE_SDK/GD32VW55x_RELEASE_V1.0.2/MSDK/plf/src\gd32vw55x_platform.c ****     rtc_wakeup_clock_set(WAKEUP_RTCCK_DIV4);
 839:C:/Users/stapi/OneDrive/Desktop/GD32VW553/V1_MQTT_OK/GD32VW55X_Wifi_BLE_SDK/GD32VW55x_RELEASE_V1.0.2/MSDK/plf/src\gd32vw55x_platform.c **** #endif
 840:C:/Users/stapi/OneDrive/Desktop/GD32VW553/V1_MQTT_OK/GD32VW55X_Wifi_BLE_SDK/GD32VW55x_RELEASE_V1.0.2/MSDK/plf/src\gd32vw55x_platform.c **** }
 841:C:/Users/stapi/OneDrive/Desktop/GD32VW553/V1_MQTT_OK/GD32VW55X_Wifi_BLE_SDK/GD32VW55x_RELEASE_V1.0.2/MSDK/plf/src\gd32vw55x_platform.c **** 
 842:C:/Users/stapi/OneDrive/Desktop/GD32VW553/V1_MQTT_OK/GD32VW55X_Wifi_BLE_SDK/GD32VW55x_RELEASE_V1.0.2/MSDK/plf/src\gd32vw55x_platform.c **** 
 843:C:/Users/stapi/OneDrive/Desktop/GD32VW553/V1_MQTT_OK/GD32VW55X_Wifi_BLE_SDK/GD32VW55x_RELEASE_V1.0.2/MSDK/plf/src\gd32vw55x_platform.c **** static void platform_uart_init()
 844:C:/Users/stapi/OneDrive/Desktop/GD32VW553/V1_MQTT_OK/GD32VW55X_Wifi_BLE_SDK/GD32VW55x_RELEASE_V1.0.2/MSDK/plf/src\gd32vw55x_platform.c **** {
 845:C:/Users/stapi/OneDrive/Desktop/GD32VW553/V1_MQTT_OK/GD32VW55X_Wifi_BLE_SDK/GD32VW55x_RELEASE_V1.0.2/MSDK/plf/src\gd32vw55x_platform.c ****     uart_driver_init();
 846:C:/Users/stapi/OneDrive/Desktop/GD32VW553/V1_MQTT_OK/GD32VW55X_Wifi_BLE_SDK/GD32VW55x_RELEASE_V1.0.2/MSDK/plf/src\gd32vw55x_platform.c **** 
 847:C:/Users/stapi/OneDrive/Desktop/GD32VW553/V1_MQTT_OK/GD32VW55X_Wifi_BLE_SDK/GD32VW55x_RELEASE_V1.0.2/MSDK/plf/src\gd32vw55x_platform.c ****     log_uart_init();
 848:C:/Users/stapi/OneDrive/Desktop/GD32VW553/V1_MQTT_OK/GD32VW55X_Wifi_BLE_SDK/GD32VW55x_RELEASE_V1.0.2/MSDK/plf/src\gd32vw55x_platform.c **** 
 849:C:/Users/stapi/OneDrive/Desktop/GD32VW553/V1_MQTT_OK/GD32VW55X_Wifi_BLE_SDK/GD32VW55x_RELEASE_V1.0.2/MSDK/plf/src\gd32vw55x_platform.c **** #ifdef CFG_BLE_HCI_MODE
 850:C:/Users/stapi/OneDrive/Desktop/GD32VW553/V1_MQTT_OK/GD32VW55X_Wifi_BLE_SDK/GD32VW55x_RELEASE_V1.0.2/MSDK/plf/src\gd32vw55x_platform.c ****     ble_uart_init();
 851:C:/Users/stapi/OneDrive/Desktop/GD32VW553/V1_MQTT_OK/GD32VW55X_Wifi_BLE_SDK/GD32VW55x_RELEASE_V1.0.2/MSDK/plf/src\gd32vw55x_platform.c **** #endif
 852:C:/Users/stapi/OneDrive/Desktop/GD32VW553/V1_MQTT_OK/GD32VW55X_Wifi_BLE_SDK/GD32VW55x_RELEASE_V1.0.2/MSDK/plf/src\gd32vw55x_platform.c **** 
 853:C:/Users/stapi/OneDrive/Desktop/GD32VW553/V1_MQTT_OK/GD32VW55X_Wifi_BLE_SDK/GD32VW55x_RELEASE_V1.0.2/MSDK/plf/src\gd32vw55x_platform.c **** #ifdef TRACE_UART
 854:C:/Users/stapi/OneDrive/Desktop/GD32VW553/V1_MQTT_OK/GD32VW55X_Wifi_BLE_SDK/GD32VW55x_RELEASE_V1.0.2/MSDK/plf/src\gd32vw55x_platform.c ****     trace_uart_init();
 855:C:/Users/stapi/OneDrive/Desktop/GD32VW553/V1_MQTT_OK/GD32VW55X_Wifi_BLE_SDK/GD32VW55x_RELEASE_V1.0.2/MSDK/plf/src\gd32vw55x_platform.c **** #endif
 856:C:/Users/stapi/OneDrive/Desktop/GD32VW553/V1_MQTT_OK/GD32VW55X_Wifi_BLE_SDK/GD32VW55x_RELEASE_V1.0.2/MSDK/plf/src\gd32vw55x_platform.c **** }
 857:C:/Users/stapi/OneDrive/Desktop/GD32VW553/V1_MQTT_OK/GD32VW55X_Wifi_BLE_SDK/GD32VW55x_RELEASE_V1.0.2/MSDK/plf/src\gd32vw55x_platform.c **** 
 858:C:/Users/stapi/OneDrive/Desktop/GD32VW553/V1_MQTT_OK/GD32VW55X_Wifi_BLE_SDK/GD32VW55x_RELEASE_V1.0.2/MSDK/plf/src\gd32vw55x_platform.c **** static void eclic_config(void)
 859:C:/Users/stapi/OneDrive/Desktop/GD32VW553/V1_MQTT_OK/GD32VW55X_Wifi_BLE_SDK/GD32VW55x_RELEASE_V1.0.2/MSDK/plf/src\gd32vw55x_platform.c **** {
 860:C:/Users/stapi/OneDrive/Desktop/GD32VW553/V1_MQTT_OK/GD32VW55X_Wifi_BLE_SDK/GD32VW55x_RELEASE_V1.0.2/MSDK/plf/src\gd32vw55x_platform.c ****     // disable all interrupts
 861:C:/Users/stapi/OneDrive/Desktop/GD32VW553/V1_MQTT_OK/GD32VW55X_Wifi_BLE_SDK/GD32VW55x_RELEASE_V1.0.2/MSDK/plf/src\gd32vw55x_platform.c ****     eclic_global_interrupt_disable();
 862:C:/Users/stapi/OneDrive/Desktop/GD32VW553/V1_MQTT_OK/GD32VW55X_Wifi_BLE_SDK/GD32VW55x_RELEASE_V1.0.2/MSDK/plf/src\gd32vw55x_platform.c ****     eclic_priority_group_set(ECLIC_PRIGROUP_LEVEL4_PRIO0);
 863:C:/Users/stapi/OneDrive/Desktop/GD32VW553/V1_MQTT_OK/GD32VW55X_Wifi_BLE_SDK/GD32VW55x_RELEASE_V1.0.2/MSDK/plf/src\gd32vw55x_platform.c **** 
 864:C:/Users/stapi/OneDrive/Desktop/GD32VW553/V1_MQTT_OK/GD32VW55X_Wifi_BLE_SDK/GD32VW55x_RELEASE_V1.0.2/MSDK/plf/src\gd32vw55x_platform.c ****     /* CLIC_INT_SFT,CLIC_INT_TMR set trigger mode */
 865:C:/Users/stapi/OneDrive/Desktop/GD32VW553/V1_MQTT_OK/GD32VW55X_Wifi_BLE_SDK/GD32VW55x_RELEASE_V1.0.2/MSDK/plf/src\gd32vw55x_platform.c ****     ECLIC_SetTrigIRQ(CLIC_INT_SFT, ECLIC_POSTIVE_EDGE_TRIGGER);
 866:C:/Users/stapi/OneDrive/Desktop/GD32VW553/V1_MQTT_OK/GD32VW55X_Wifi_BLE_SDK/GD32VW55x_RELEASE_V1.0.2/MSDK/plf/src\gd32vw55x_platform.c ****     ECLIC_SetTrigIRQ(CLIC_INT_TMR, ECLIC_POSTIVE_EDGE_TRIGGER);
 867:C:/Users/stapi/OneDrive/Desktop/GD32VW553/V1_MQTT_OK/GD32VW55X_Wifi_BLE_SDK/GD32VW55x_RELEASE_V1.0.2/MSDK/plf/src\gd32vw55x_platform.c **** 
 868:C:/Users/stapi/OneDrive/Desktop/GD32VW553/V1_MQTT_OK/GD32VW55X_Wifi_BLE_SDK/GD32VW55x_RELEASE_V1.0.2/MSDK/plf/src\gd32vw55x_platform.c ****     eclic_irq_enable(UART1_IRQn, 8, 0);
 869:C:/Users/stapi/OneDrive/Desktop/GD32VW553/V1_MQTT_OK/GD32VW55X_Wifi_BLE_SDK/GD32VW55x_RELEASE_V1.0.2/MSDK/plf/src\gd32vw55x_platform.c **** 
 870:C:/Users/stapi/OneDrive/Desktop/GD32VW553/V1_MQTT_OK/GD32VW55X_Wifi_BLE_SDK/GD32VW55x_RELEASE_V1.0.2/MSDK/plf/src\gd32vw55x_platform.c **** #ifndef CFG_MATTER
 871:C:/Users/stapi/OneDrive/Desktop/GD32VW553/V1_MQTT_OK/GD32VW55X_Wifi_BLE_SDK/GD32VW55x_RELEASE_V1.0.2/MSDK/plf/src\gd32vw55x_platform.c ****     /* set trigger mode and interrupt level, same as arm priority. a larger interrupt priorities va
 872:C:/Users/stapi/OneDrive/Desktop/GD32VW553/V1_MQTT_OK/GD32VW55X_Wifi_BLE_SDK/GD32VW55x_RELEASE_V1.0.2/MSDK/plf/src\gd32vw55x_platform.c ****     eclic_irq_enable(UART2_IRQn, 8, 0);
 873:C:/Users/stapi/OneDrive/Desktop/GD32VW553/V1_MQTT_OK/GD32VW55X_Wifi_BLE_SDK/GD32VW55x_RELEASE_V1.0.2/MSDK/plf/src\gd32vw55x_platform.c **** #endif
 874:C:/Users/stapi/OneDrive/Desktop/GD32VW553/V1_MQTT_OK/GD32VW55X_Wifi_BLE_SDK/GD32VW55x_RELEASE_V1.0.2/MSDK/plf/src\gd32vw55x_platform.c **** 
 875:C:/Users/stapi/OneDrive/Desktop/GD32VW553/V1_MQTT_OK/GD32VW55X_Wifi_BLE_SDK/GD32VW55x_RELEASE_V1.0.2/MSDK/plf/src\gd32vw55x_platform.c ****     /* exti interrupt wake up the cpu from deep sleep state, TODO: uart exti interrupts processing 
 876:C:/Users/stapi/OneDrive/Desktop/GD32VW553/V1_MQTT_OK/GD32VW55X_Wifi_BLE_SDK/GD32VW55x_RELEASE_V1.0.2/MSDK/plf/src\gd32vw55x_platform.c ****     eclic_irq_enable(RTC_WKUP_IRQn, 12, 0);
 877:C:/Users/stapi/OneDrive/Desktop/GD32VW553/V1_MQTT_OK/GD32VW55X_Wifi_BLE_SDK/GD32VW55x_RELEASE_V1.0.2/MSDK/plf/src\gd32vw55x_platform.c ****     eclic_irq_enable(EXTI5_9_IRQn, 9, 0);
 878:C:/Users/stapi/OneDrive/Desktop/GD32VW553/V1_MQTT_OK/GD32VW55X_Wifi_BLE_SDK/GD32VW55x_RELEASE_V1.0.2/MSDK/plf/src\gd32vw55x_platform.c **** 
 879:C:/Users/stapi/OneDrive/Desktop/GD32VW553/V1_MQTT_OK/GD32VW55X_Wifi_BLE_SDK/GD32VW55x_RELEASE_V1.0.2/MSDK/plf/src\gd32vw55x_platform.c **** #ifdef TRACE_UART_DMA
 880:C:/Users/stapi/OneDrive/Desktop/GD32VW553/V1_MQTT_OK/GD32VW55X_Wifi_BLE_SDK/GD32VW55x_RELEASE_V1.0.2/MSDK/plf/src\gd32vw55x_platform.c ****     eclic_irq_enable(TRACE_DMA_IRQ_NUM, 8, 0);
 881:C:/Users/stapi/OneDrive/Desktop/GD32VW553/V1_MQTT_OK/GD32VW55X_Wifi_BLE_SDK/GD32VW55x_RELEASE_V1.0.2/MSDK/plf/src\gd32vw55x_platform.c **** #endif
 882:C:/Users/stapi/OneDrive/Desktop/GD32VW553/V1_MQTT_OK/GD32VW55X_Wifi_BLE_SDK/GD32VW55x_RELEASE_V1.0.2/MSDK/plf/src\gd32vw55x_platform.c **** 
 883:C:/Users/stapi/OneDrive/Desktop/GD32VW553/V1_MQTT_OK/GD32VW55X_Wifi_BLE_SDK/GD32VW55x_RELEASE_V1.0.2/MSDK/plf/src\gd32vw55x_platform.c ****     ble_irq_enable();
 884:C:/Users/stapi/OneDrive/Desktop/GD32VW553/V1_MQTT_OK/GD32VW55X_Wifi_BLE_SDK/GD32VW55x_RELEASE_V1.0.2/MSDK/plf/src\gd32vw55x_platform.c **** }
 885:C:/Users/stapi/OneDrive/Desktop/GD32VW553/V1_MQTT_OK/GD32VW55X_Wifi_BLE_SDK/GD32VW55x_RELEASE_V1.0.2/MSDK/plf/src\gd32vw55x_platform.c **** 
 886:C:/Users/stapi/OneDrive/Desktop/GD32VW553/V1_MQTT_OK/GD32VW55X_Wifi_BLE_SDK/GD32VW55x_RELEASE_V1.0.2/MSDK/plf/src\gd32vw55x_platform.c **** void platform_init(void)
 887:C:/Users/stapi/OneDrive/Desktop/GD32VW553/V1_MQTT_OK/GD32VW55X_Wifi_BLE_SDK/GD32VW55x_RELEASE_V1.0.2/MSDK/plf/src\gd32vw55x_platform.c **** {
 1556              		.loc 1 887 1 is_stmt 1
 1557              		.cfi_startproc
 1558 0000 17030000 		call	t0,__riscv_save_3
 1558      E7020300 
 1559              		.cfi_offset 18, -16
 1560              		.cfi_offset 9, -12
 1561              		.cfi_offset 8, -8
 1562              		.cfi_offset 1, -4
 1563              		.cfi_def_cfa_offset 16
 888:C:/Users/stapi/OneDrive/Desktop/GD32VW553/V1_MQTT_OK/GD32VW55X_Wifi_BLE_SDK/GD32VW55x_RELEASE_V1.0.2/MSDK/plf/src\gd32vw55x_platform.c ****     eclic_config();
 1564              		.loc 1 888 5
 1565              	.LBB98:
 1566              	.LBB99:
 861:C:/Users/stapi/OneDrive/Desktop/GD32VW553/V1_MQTT_OK/GD32VW55X_Wifi_BLE_SDK/GD32VW55x_RELEASE_V1.0.2/MSDK/plf/src\gd32vw55x_platform.c ****     eclic_priority_group_set(ECLIC_PRIGROUP_LEVEL4_PRIO0);
 1567              		.loc 1 861 5
 1568              	.LBE99:
 1569              	.LBE98:
 887:C:/Users/stapi/OneDrive/Desktop/GD32VW553/V1_MQTT_OK/GD32VW55X_Wifi_BLE_SDK/GD32VW55x_RELEASE_V1.0.2/MSDK/plf/src\gd32vw55x_platform.c ****     eclic_config();
 1570              		.loc 1 887 1 is_stmt 0
 1571 0008 0111     		addi	sp,sp,-32
 1572              		.cfi_def_cfa_offset 48
 1573              	.LBB178:
 1574              	.LBB176:
 861:C:/Users/stapi/OneDrive/Desktop/GD32VW553/V1_MQTT_OK/GD32VW55X_Wifi_BLE_SDK/GD32VW55x_RELEASE_V1.0.2/MSDK/plf/src\gd32vw55x_platform.c ****     eclic_priority_group_set(ECLIC_PRIGROUP_LEVEL4_PRIO0);
 1575              		.loc 1 861 5
 1576 000a 97000000 		call	eclic_global_interrupt_disable
 1576      E7800000 
 1577              	.LVL134:
 862:C:/Users/stapi/OneDrive/Desktop/GD32VW553/V1_MQTT_OK/GD32VW55X_Wifi_BLE_SDK/GD32VW55x_RELEASE_V1.0.2/MSDK/plf/src\gd32vw55x_platform.c **** 
 1578              		.loc 1 862 5 is_stmt 1
 1579 0012 1145     		li	a0,4
 1580              	.LBB100:
 1581              	.LBB101:
 1582              		.file 2 "..\\..\\..\\..\\plf\\riscv\\NMSIS\\Core\\Include/core_feature_eclic.h"
   1:..\..\..\..\plf\riscv\NMSIS\Core\Include/core_feature_eclic.h **** /*
   2:..\..\..\..\plf\riscv\NMSIS\Core\Include/core_feature_eclic.h ****  * Copyright (c) 2019 Nuclei Limited. All rights reserved.
   3:..\..\..\..\plf\riscv\NMSIS\Core\Include/core_feature_eclic.h ****  *
   4:..\..\..\..\plf\riscv\NMSIS\Core\Include/core_feature_eclic.h ****  * SPDX-License-Identifier: Apache-2.0
   5:..\..\..\..\plf\riscv\NMSIS\Core\Include/core_feature_eclic.h ****  *
   6:..\..\..\..\plf\riscv\NMSIS\Core\Include/core_feature_eclic.h ****  * Licensed under the Apache License, Version 2.0 (the License); you may
   7:..\..\..\..\plf\riscv\NMSIS\Core\Include/core_feature_eclic.h ****  * not use this file except in compliance with the License.
   8:..\..\..\..\plf\riscv\NMSIS\Core\Include/core_feature_eclic.h ****  * You may obtain a copy of the License at
   9:..\..\..\..\plf\riscv\NMSIS\Core\Include/core_feature_eclic.h ****  *
  10:..\..\..\..\plf\riscv\NMSIS\Core\Include/core_feature_eclic.h ****  * www.apache.org/licenses/LICENSE-2.0
  11:..\..\..\..\plf\riscv\NMSIS\Core\Include/core_feature_eclic.h ****  *
  12:..\..\..\..\plf\riscv\NMSIS\Core\Include/core_feature_eclic.h ****  * Unless required by applicable law or agreed to in writing, software
  13:..\..\..\..\plf\riscv\NMSIS\Core\Include/core_feature_eclic.h ****  * distributed under the License is distributed on an AS IS BASIS, WITHOUT
  14:..\..\..\..\plf\riscv\NMSIS\Core\Include/core_feature_eclic.h ****  * WARRANTIES OR CONDITIONS OF ANY KIND, either express or implied.
  15:..\..\..\..\plf\riscv\NMSIS\Core\Include/core_feature_eclic.h ****  * See the License for the specific language governing permissions and
  16:..\..\..\..\plf\riscv\NMSIS\Core\Include/core_feature_eclic.h ****  * limitations under the License.
  17:..\..\..\..\plf\riscv\NMSIS\Core\Include/core_feature_eclic.h ****  */
  18:..\..\..\..\plf\riscv\NMSIS\Core\Include/core_feature_eclic.h **** #ifndef __CORE_FEATURE_ECLIC__
  19:..\..\..\..\plf\riscv\NMSIS\Core\Include/core_feature_eclic.h **** #define __CORE_FEATURE_ECLIC__
  20:..\..\..\..\plf\riscv\NMSIS\Core\Include/core_feature_eclic.h **** /*!
  21:..\..\..\..\plf\riscv\NMSIS\Core\Include/core_feature_eclic.h ****  * @file     core_feature_eclic.h
  22:..\..\..\..\plf\riscv\NMSIS\Core\Include/core_feature_eclic.h ****  * @brief    ECLIC feature API header file for Nuclei N/NX Core
  23:..\..\..\..\plf\riscv\NMSIS\Core\Include/core_feature_eclic.h ****  */
  24:..\..\..\..\plf\riscv\NMSIS\Core\Include/core_feature_eclic.h **** /*
  25:..\..\..\..\plf\riscv\NMSIS\Core\Include/core_feature_eclic.h ****  * ECLIC Feature Configuration Macro:
  26:..\..\..\..\plf\riscv\NMSIS\Core\Include/core_feature_eclic.h ****  * 1. __ECLIC_PRESENT:  Define whether Enhanced Core Local Interrupt Controller (ECLIC) Unit is pre
  27:..\..\..\..\plf\riscv\NMSIS\Core\Include/core_feature_eclic.h ****  *   * 0: Not present
  28:..\..\..\..\plf\riscv\NMSIS\Core\Include/core_feature_eclic.h ****  *   * 1: Present
  29:..\..\..\..\plf\riscv\NMSIS\Core\Include/core_feature_eclic.h ****  * 2. __ECLIC_BASEADDR:  Base address of the ECLIC unit.
  30:..\..\..\..\plf\riscv\NMSIS\Core\Include/core_feature_eclic.h ****  * 3. ECLIC_GetInfoCtlbits():  Define the number of hardware bits are actually implemented in the c
  31:..\..\..\..\plf\riscv\NMSIS\Core\Include/core_feature_eclic.h ****  *   Valid number is 1 - 8.
  32:..\..\..\..\plf\riscv\NMSIS\Core\Include/core_feature_eclic.h ****  * 4. __ECLIC_INTNUM  : Define the external interrupt number of ECLIC Unit
  33:..\..\..\..\plf\riscv\NMSIS\Core\Include/core_feature_eclic.h ****  *
  34:..\..\..\..\plf\riscv\NMSIS\Core\Include/core_feature_eclic.h ****  */
  35:..\..\..\..\plf\riscv\NMSIS\Core\Include/core_feature_eclic.h **** #ifdef __cplusplus
  36:..\..\..\..\plf\riscv\NMSIS\Core\Include/core_feature_eclic.h ****  extern "C" {
  37:..\..\..\..\plf\riscv\NMSIS\Core\Include/core_feature_eclic.h **** #endif
  38:..\..\..\..\plf\riscv\NMSIS\Core\Include/core_feature_eclic.h **** 
  39:..\..\..\..\plf\riscv\NMSIS\Core\Include/core_feature_eclic.h **** #if defined(__ECLIC_PRESENT) && (__ECLIC_PRESENT == 1)
  40:..\..\..\..\plf\riscv\NMSIS\Core\Include/core_feature_eclic.h **** /**
  41:..\..\..\..\plf\riscv\NMSIS\Core\Include/core_feature_eclic.h ****  * \defgroup NMSIS_Core_ECLIC_Registers     Register Define and Type Definitions Of ECLIC
  42:..\..\..\..\plf\riscv\NMSIS\Core\Include/core_feature_eclic.h ****  * \ingroup NMSIS_Core_Registers
  43:..\..\..\..\plf\riscv\NMSIS\Core\Include/core_feature_eclic.h ****  * \brief   Type definitions and defines for eclic registers.
  44:..\..\..\..\plf\riscv\NMSIS\Core\Include/core_feature_eclic.h ****  *
  45:..\..\..\..\plf\riscv\NMSIS\Core\Include/core_feature_eclic.h ****  * @{
  46:..\..\..\..\plf\riscv\NMSIS\Core\Include/core_feature_eclic.h ****  */
  47:..\..\..\..\plf\riscv\NMSIS\Core\Include/core_feature_eclic.h **** 
  48:..\..\..\..\plf\riscv\NMSIS\Core\Include/core_feature_eclic.h **** /**
  49:..\..\..\..\plf\riscv\NMSIS\Core\Include/core_feature_eclic.h ****  * \brief  Union type to access CLICFG configure register.
  50:..\..\..\..\plf\riscv\NMSIS\Core\Include/core_feature_eclic.h ****  */
  51:..\..\..\..\plf\riscv\NMSIS\Core\Include/core_feature_eclic.h **** typedef union
  52:..\..\..\..\plf\riscv\NMSIS\Core\Include/core_feature_eclic.h **** {
  53:..\..\..\..\plf\riscv\NMSIS\Core\Include/core_feature_eclic.h ****     struct {
  54:..\..\..\..\plf\riscv\NMSIS\Core\Include/core_feature_eclic.h ****         uint8_t _reserved0:1;                   /*!< bit:     0   Overflow condition code flag */
  55:..\..\..\..\plf\riscv\NMSIS\Core\Include/core_feature_eclic.h ****         uint8_t nlbits:4;                       /*!< bit:     29  Carry condition code flag */
  56:..\..\..\..\plf\riscv\NMSIS\Core\Include/core_feature_eclic.h ****         uint8_t _reserved1:2;                   /*!< bit:     30  Zero condition code flag */
  57:..\..\..\..\plf\riscv\NMSIS\Core\Include/core_feature_eclic.h ****         uint8_t _reserved2:1;                   /*!< bit:     31  Negative condition code flag */
  58:..\..\..\..\plf\riscv\NMSIS\Core\Include/core_feature_eclic.h ****     } b;                                        /*!< Structure used for bit  access */
  59:..\..\..\..\plf\riscv\NMSIS\Core\Include/core_feature_eclic.h ****     uint8_t w;                                  /*!< Type      used for byte access */
  60:..\..\..\..\plf\riscv\NMSIS\Core\Include/core_feature_eclic.h **** } CLICCFG_Type;
  61:..\..\..\..\plf\riscv\NMSIS\Core\Include/core_feature_eclic.h **** 
  62:..\..\..\..\plf\riscv\NMSIS\Core\Include/core_feature_eclic.h **** /**
  63:..\..\..\..\plf\riscv\NMSIS\Core\Include/core_feature_eclic.h ****  * \brief  Union type to access CLICINFO information register.
  64:..\..\..\..\plf\riscv\NMSIS\Core\Include/core_feature_eclic.h ****  */
  65:..\..\..\..\plf\riscv\NMSIS\Core\Include/core_feature_eclic.h **** typedef union {
  66:..\..\..\..\plf\riscv\NMSIS\Core\Include/core_feature_eclic.h ****     struct {
  67:..\..\..\..\plf\riscv\NMSIS\Core\Include/core_feature_eclic.h ****         uint32_t numint:13;                     /*!< bit:  0..12   number of maximum interrupt inpu
  68:..\..\..\..\plf\riscv\NMSIS\Core\Include/core_feature_eclic.h ****         uint32_t version:8;                     /*!< bit:  13..20  20:17 for architecture version,1
  69:..\..\..\..\plf\riscv\NMSIS\Core\Include/core_feature_eclic.h ****         uint32_t intctlbits:4;                  /*!< bit:  21..24  specifies how many hardware bits
  70:..\..\..\..\plf\riscv\NMSIS\Core\Include/core_feature_eclic.h ****         uint32_t _reserved0:7;                  /*!< bit:  25..31  Reserved */
  71:..\..\..\..\plf\riscv\NMSIS\Core\Include/core_feature_eclic.h ****     } b;                                        /*!< Structure used for bit  access */
  72:..\..\..\..\plf\riscv\NMSIS\Core\Include/core_feature_eclic.h ****     uint32_t w;                                 /*!< Type      used for word access */
  73:..\..\..\..\plf\riscv\NMSIS\Core\Include/core_feature_eclic.h **** } CLICINFO_Type;
  74:..\..\..\..\plf\riscv\NMSIS\Core\Include/core_feature_eclic.h **** 
  75:..\..\..\..\plf\riscv\NMSIS\Core\Include/core_feature_eclic.h **** /**
  76:..\..\..\..\plf\riscv\NMSIS\Core\Include/core_feature_eclic.h ****  * \brief Access to the structure of a vector interrupt controller.
  77:..\..\..\..\plf\riscv\NMSIS\Core\Include/core_feature_eclic.h ****  */
  78:..\..\..\..\plf\riscv\NMSIS\Core\Include/core_feature_eclic.h **** typedef struct {
  79:..\..\..\..\plf\riscv\NMSIS\Core\Include/core_feature_eclic.h ****     __IOM uint8_t  INTIP;                       /*!< Offset: 0x000 (R/W)  Interrupt set pending reg
  80:..\..\..\..\plf\riscv\NMSIS\Core\Include/core_feature_eclic.h ****     __IOM uint8_t  INTIE;                       /*!< Offset: 0x001 (R/W)  Interrupt set enable regi
  81:..\..\..\..\plf\riscv\NMSIS\Core\Include/core_feature_eclic.h ****     __IOM uint8_t  INTATTR;                     /*!< Offset: 0x002 (R/W)  Interrupt set attributes 
  82:..\..\..\..\plf\riscv\NMSIS\Core\Include/core_feature_eclic.h ****     __IOM uint8_t  INTCTRL;                     /*!< Offset: 0x003 (R/W)  Interrupt configure regis
  83:..\..\..\..\plf\riscv\NMSIS\Core\Include/core_feature_eclic.h **** } CLIC_CTRL_Type;
  84:..\..\..\..\plf\riscv\NMSIS\Core\Include/core_feature_eclic.h **** 
  85:..\..\..\..\plf\riscv\NMSIS\Core\Include/core_feature_eclic.h **** typedef struct {
  86:..\..\..\..\plf\riscv\NMSIS\Core\Include/core_feature_eclic.h ****     __IOM uint8_t   CFG;                        /*!< Offset: 0x000 (R/W)  CLIC configuration regist
  87:..\..\..\..\plf\riscv\NMSIS\Core\Include/core_feature_eclic.h ****     uint8_t RESERVED0[3];
  88:..\..\..\..\plf\riscv\NMSIS\Core\Include/core_feature_eclic.h ****     __IM uint32_t  INFO;                        /*!< Offset: 0x004 (R/ )  CLIC information register
  89:..\..\..\..\plf\riscv\NMSIS\Core\Include/core_feature_eclic.h ****     uint8_t RESERVED1[3];
  90:..\..\..\..\plf\riscv\NMSIS\Core\Include/core_feature_eclic.h ****     __IOM uint8_t  MTH;                         /*!< Offset: 0x00B (R/W)  CLIC machine mode thresho
  91:..\..\..\..\plf\riscv\NMSIS\Core\Include/core_feature_eclic.h ****     uint32_t RESERVED2[0x3FD];
  92:..\..\..\..\plf\riscv\NMSIS\Core\Include/core_feature_eclic.h ****     CLIC_CTRL_Type CTRL[4096];                  /*!< Offset: 0x1000 (R/W) CLIC register structure f
  93:..\..\..\..\plf\riscv\NMSIS\Core\Include/core_feature_eclic.h **** } CLIC_Type;
  94:..\..\..\..\plf\riscv\NMSIS\Core\Include/core_feature_eclic.h **** 
  95:..\..\..\..\plf\riscv\NMSIS\Core\Include/core_feature_eclic.h **** #define CLIC_CLICCFG_NLBIT_Pos                 1U                                       /*!< CLIC C
  96:..\..\..\..\plf\riscv\NMSIS\Core\Include/core_feature_eclic.h **** #define CLIC_CLICCFG_NLBIT_Msk                 (0xFUL << CLIC_CLICCFG_NLBIT_Pos)        /*!< CLIC C
  97:..\..\..\..\plf\riscv\NMSIS\Core\Include/core_feature_eclic.h **** 
  98:..\..\..\..\plf\riscv\NMSIS\Core\Include/core_feature_eclic.h **** #define CLIC_CLICINFO_CTLBIT_Pos                21U                                     /*!< CLIC I
  99:..\..\..\..\plf\riscv\NMSIS\Core\Include/core_feature_eclic.h **** #define CLIC_CLICINFO_CTLBIT_Msk                (0xFUL << CLIC_CLICINFO_CTLBIT_Pos)     /*!< CLIC I
 100:..\..\..\..\plf\riscv\NMSIS\Core\Include/core_feature_eclic.h **** 
 101:..\..\..\..\plf\riscv\NMSIS\Core\Include/core_feature_eclic.h **** #define CLIC_CLICINFO_VER_Pos                  13U                                      /*!< CLIC C
 102:..\..\..\..\plf\riscv\NMSIS\Core\Include/core_feature_eclic.h **** #define CLIC_CLICINFO_VER_Msk                  (0xFFUL << CLIC_CLICCFG_NLBIT_Pos)       /*!< CLIC C
 103:..\..\..\..\plf\riscv\NMSIS\Core\Include/core_feature_eclic.h **** 
 104:..\..\..\..\plf\riscv\NMSIS\Core\Include/core_feature_eclic.h **** #define CLIC_CLICINFO_NUM_Pos                  0U                                       /*!< CLIC C
 105:..\..\..\..\plf\riscv\NMSIS\Core\Include/core_feature_eclic.h **** #define CLIC_CLICINFO_NUM_Msk                  (0xFFFUL << CLIC_CLICINFO_NUM_Pos)       /*!< CLIC C
 106:..\..\..\..\plf\riscv\NMSIS\Core\Include/core_feature_eclic.h **** 
 107:..\..\..\..\plf\riscv\NMSIS\Core\Include/core_feature_eclic.h **** #define CLIC_INTIP_IP_Pos                      0U                                       /*!< CLIC I
