   1              		.file	"gd32vw55x_platform.c"
   2              		.option nopic
   3              		.attribute arch, "rv32i2p0_m2p0_a2p0_f2p0_c2p0_b_p0p94"
   4              		.attribute unaligned_access, 0
   5              		.attribute stack_align, 16
   6              		.text
   7              	.Ltext0:
   8              		.cfi_sections	.debug_frame
   9              		.section	.text.exti_line_clear,"ax",@progbits
  10              		.align	1
  12              	exti_line_clear:
  13              	.LFB380:
  14              		.file 1 "C:/Users/stapi/OneDrive/Desktop/GD32VW553/V1_MQTT_OK/GD32VW55X_Wifi_BLE_SDK/GD32VW55x_REL
   1:C:/Users/stapi/OneDrive/Desktop/GD32VW553/V1_MQTT_OK/GD32VW55X_Wifi_BLE_SDK/GD32VW55x_RELEASE_V1.0.2/MSDK/plf/src\gd32vw55x_platform.c **** /*!
   2:C:/Users/stapi/OneDrive/Desktop/GD32VW553/V1_MQTT_OK/GD32VW55X_Wifi_BLE_SDK/GD32VW55x_RELEASE_V1.0.2/MSDK/plf/src\gd32vw55x_platform.c ****     \file    gd32vw55x_platform.c
   3:C:/Users/stapi/OneDrive/Desktop/GD32VW553/V1_MQTT_OK/GD32VW55X_Wifi_BLE_SDK/GD32VW55x_RELEASE_V1.0.2/MSDK/plf/src\gd32vw55x_platform.c ****     \brief   WIFI reference platform initialization.
   4:C:/Users/stapi/OneDrive/Desktop/GD32VW553/V1_MQTT_OK/GD32VW55X_Wifi_BLE_SDK/GD32VW55x_RELEASE_V1.0.2/MSDK/plf/src\gd32vw55x_platform.c **** 
   5:C:/Users/stapi/OneDrive/Desktop/GD32VW553/V1_MQTT_OK/GD32VW55X_Wifi_BLE_SDK/GD32VW55x_RELEASE_V1.0.2/MSDK/plf/src\gd32vw55x_platform.c ****     \version 2023-07-20, V1.0.0, firmware for GD32VW55x
   6:C:/Users/stapi/OneDrive/Desktop/GD32VW553/V1_MQTT_OK/GD32VW55X_Wifi_BLE_SDK/GD32VW55x_RELEASE_V1.0.2/MSDK/plf/src\gd32vw55x_platform.c **** */
   7:C:/Users/stapi/OneDrive/Desktop/GD32VW553/V1_MQTT_OK/GD32VW55X_Wifi_BLE_SDK/GD32VW55x_RELEASE_V1.0.2/MSDK/plf/src\gd32vw55x_platform.c **** 
   8:C:/Users/stapi/OneDrive/Desktop/GD32VW553/V1_MQTT_OK/GD32VW55X_Wifi_BLE_SDK/GD32VW55x_RELEASE_V1.0.2/MSDK/plf/src\gd32vw55x_platform.c **** /*
   9:C:/Users/stapi/OneDrive/Desktop/GD32VW553/V1_MQTT_OK/GD32VW55X_Wifi_BLE_SDK/GD32VW55x_RELEASE_V1.0.2/MSDK/plf/src\gd32vw55x_platform.c ****     Copyright (c) 2023, GigaDevice Semiconductor Inc.
  10:C:/Users/stapi/OneDrive/Desktop/GD32VW553/V1_MQTT_OK/GD32VW55X_Wifi_BLE_SDK/GD32VW55x_RELEASE_V1.0.2/MSDK/plf/src\gd32vw55x_platform.c **** 
  11:C:/Users/stapi/OneDrive/Desktop/GD32VW553/V1_MQTT_OK/GD32VW55X_Wifi_BLE_SDK/GD32VW55x_RELEASE_V1.0.2/MSDK/plf/src\gd32vw55x_platform.c ****     Redistribution and use in source and binary forms, with or without modification,
  12:C:/Users/stapi/OneDrive/Desktop/GD32VW553/V1_MQTT_OK/GD32VW55X_Wifi_BLE_SDK/GD32VW55x_RELEASE_V1.0.2/MSDK/plf/src\gd32vw55x_platform.c **** are permitted provided that the following conditions are met:
  13:C:/Users/stapi/OneDrive/Desktop/GD32VW553/V1_MQTT_OK/GD32VW55X_Wifi_BLE_SDK/GD32VW55x_RELEASE_V1.0.2/MSDK/plf/src\gd32vw55x_platform.c **** 
  14:C:/Users/stapi/OneDrive/Desktop/GD32VW553/V1_MQTT_OK/GD32VW55X_Wifi_BLE_SDK/GD32VW55x_RELEASE_V1.0.2/MSDK/plf/src\gd32vw55x_platform.c ****     1. Redistributions of source code must retain the above copyright notice, this
  15:C:/Users/stapi/OneDrive/Desktop/GD32VW553/V1_MQTT_OK/GD32VW55X_Wifi_BLE_SDK/GD32VW55x_RELEASE_V1.0.2/MSDK/plf/src\gd32vw55x_platform.c ****        list of conditions and the following disclaimer.
  16:C:/Users/stapi/OneDrive/Desktop/GD32VW553/V1_MQTT_OK/GD32VW55X_Wifi_BLE_SDK/GD32VW55x_RELEASE_V1.0.2/MSDK/plf/src\gd32vw55x_platform.c ****     2. Redistributions in binary form must reproduce the above copyright notice,
  17:C:/Users/stapi/OneDrive/Desktop/GD32VW553/V1_MQTT_OK/GD32VW55X_Wifi_BLE_SDK/GD32VW55x_RELEASE_V1.0.2/MSDK/plf/src\gd32vw55x_platform.c ****        this list of conditions and the following disclaimer in the documentation
  18:C:/Users/stapi/OneDrive/Desktop/GD32VW553/V1_MQTT_OK/GD32VW55X_Wifi_BLE_SDK/GD32VW55x_RELEASE_V1.0.2/MSDK/plf/src\gd32vw55x_platform.c ****        and/or other materials provided with the distribution.
  19:C:/Users/stapi/OneDrive/Desktop/GD32VW553/V1_MQTT_OK/GD32VW55X_Wifi_BLE_SDK/GD32VW55x_RELEASE_V1.0.2/MSDK/plf/src\gd32vw55x_platform.c ****     3. Neither the name of the copyright holder nor the names of its contributors
  20:C:/Users/stapi/OneDrive/Desktop/GD32VW553/V1_MQTT_OK/GD32VW55X_Wifi_BLE_SDK/GD32VW55x_RELEASE_V1.0.2/MSDK/plf/src\gd32vw55x_platform.c ****        may be used to endorse or promote products derived from this software without
  21:C:/Users/stapi/OneDrive/Desktop/GD32VW553/V1_MQTT_OK/GD32VW55X_Wifi_BLE_SDK/GD32VW55x_RELEASE_V1.0.2/MSDK/plf/src\gd32vw55x_platform.c ****        specific prior written permission.
  22:C:/Users/stapi/OneDrive/Desktop/GD32VW553/V1_MQTT_OK/GD32VW55X_Wifi_BLE_SDK/GD32VW55x_RELEASE_V1.0.2/MSDK/plf/src\gd32vw55x_platform.c **** 
  23:C:/Users/stapi/OneDrive/Desktop/GD32VW553/V1_MQTT_OK/GD32VW55X_Wifi_BLE_SDK/GD32VW55x_RELEASE_V1.0.2/MSDK/plf/src\gd32vw55x_platform.c ****     THIS SOFTWARE IS PROVIDED BY THE COPYRIGHT HOLDERS AND CONTRIBUTORS "AS IS"
  24:C:/Users/stapi/OneDrive/Desktop/GD32VW553/V1_MQTT_OK/GD32VW55X_Wifi_BLE_SDK/GD32VW55x_RELEASE_V1.0.2/MSDK/plf/src\gd32vw55x_platform.c **** AND ANY EXPRESS OR IMPLIED WARRANTIES, INCLUDING, BUT NOT LIMITED TO, THE IMPLIED
  25:C:/Users/stapi/OneDrive/Desktop/GD32VW553/V1_MQTT_OK/GD32VW55X_Wifi_BLE_SDK/GD32VW55x_RELEASE_V1.0.2/MSDK/plf/src\gd32vw55x_platform.c **** WARRANTIES OF MERCHANTABILITY AND FITNESS FOR A PARTICULAR PURPOSE ARE DISCLAIMED.
  26:C:/Users/stapi/OneDrive/Desktop/GD32VW553/V1_MQTT_OK/GD32VW55X_Wifi_BLE_SDK/GD32VW55x_RELEASE_V1.0.2/MSDK/plf/src\gd32vw55x_platform.c **** IN NO EVENT SHALL THE COPYRIGHT HOLDER OR CONTRIBUTORS BE LIABLE FOR ANY DIRECT,
  27:C:/Users/stapi/OneDrive/Desktop/GD32VW553/V1_MQTT_OK/GD32VW55X_Wifi_BLE_SDK/GD32VW55x_RELEASE_V1.0.2/MSDK/plf/src\gd32vw55x_platform.c **** INDIRECT, INCIDENTAL, SPECIAL, EXEMPLARY, OR CONSEQUENTIAL DAMAGES (INCLUDING, BUT
  28:C:/Users/stapi/OneDrive/Desktop/GD32VW553/V1_MQTT_OK/GD32VW55X_Wifi_BLE_SDK/GD32VW55x_RELEASE_V1.0.2/MSDK/plf/src\gd32vw55x_platform.c **** NOT LIMITED TO, PROCUREMENT OF SUBSTITUTE GOODS OR SERVICES; LOSS OF USE, DATA, OR
  29:C:/Users/stapi/OneDrive/Desktop/GD32VW553/V1_MQTT_OK/GD32VW55X_Wifi_BLE_SDK/GD32VW55x_RELEASE_V1.0.2/MSDK/plf/src\gd32vw55x_platform.c **** PROFITS; OR BUSINESS INTERRUPTION) HOWEVER CAUSED AND ON ANY THEORY OF LIABILITY,
  30:C:/Users/stapi/OneDrive/Desktop/GD32VW553/V1_MQTT_OK/GD32VW55X_Wifi_BLE_SDK/GD32VW55x_RELEASE_V1.0.2/MSDK/plf/src\gd32vw55x_platform.c **** WHETHER IN CONTRACT, STRICT LIABILITY, OR TORT (INCLUDING NEGLIGENCE OR OTHERWISE)
  31:C:/Users/stapi/OneDrive/Desktop/GD32VW553/V1_MQTT_OK/GD32VW55X_Wifi_BLE_SDK/GD32VW55x_RELEASE_V1.0.2/MSDK/plf/src\gd32vw55x_platform.c **** ARISING IN ANY WAY OUT OF THE USE OF THIS SOFTWARE, EVEN IF ADVISED OF THE POSSIBILITY
  32:C:/Users/stapi/OneDrive/Desktop/GD32VW553/V1_MQTT_OK/GD32VW55X_Wifi_BLE_SDK/GD32VW55x_RELEASE_V1.0.2/MSDK/plf/src\gd32vw55x_platform.c **** OF SUCH DAMAGE.
  33:C:/Users/stapi/OneDrive/Desktop/GD32VW553/V1_MQTT_OK/GD32VW55X_Wifi_BLE_SDK/GD32VW55x_RELEASE_V1.0.2/MSDK/plf/src\gd32vw55x_platform.c **** */
  34:C:/Users/stapi/OneDrive/Desktop/GD32VW553/V1_MQTT_OK/GD32VW55X_Wifi_BLE_SDK/GD32VW55x_RELEASE_V1.0.2/MSDK/plf/src\gd32vw55x_platform.c **** 
  35:C:/Users/stapi/OneDrive/Desktop/GD32VW553/V1_MQTT_OK/GD32VW55X_Wifi_BLE_SDK/GD32VW55x_RELEASE_V1.0.2/MSDK/plf/src\gd32vw55x_platform.c **** #include "app_cfg.h"
  36:C:/Users/stapi/OneDrive/Desktop/GD32VW553/V1_MQTT_OK/GD32VW55X_Wifi_BLE_SDK/GD32VW55x_RELEASE_V1.0.2/MSDK/plf/src\gd32vw55x_platform.c **** 
  37:C:/Users/stapi/OneDrive/Desktop/GD32VW553/V1_MQTT_OK/GD32VW55X_Wifi_BLE_SDK/GD32VW55x_RELEASE_V1.0.2/MSDK/plf/src\gd32vw55x_platform.c **** #ifdef CFG_WLAN_SUPPORT
  38:C:/Users/stapi/OneDrive/Desktop/GD32VW553/V1_MQTT_OK/GD32VW55X_Wifi_BLE_SDK/GD32VW55x_RELEASE_V1.0.2/MSDK/plf/src\gd32vw55x_platform.c **** #include "wlan_config.h"
  39:C:/Users/stapi/OneDrive/Desktop/GD32VW553/V1_MQTT_OK/GD32VW55X_Wifi_BLE_SDK/GD32VW55x_RELEASE_V1.0.2/MSDK/plf/src\gd32vw55x_platform.c **** #include "wifi_export.h"
  40:C:/Users/stapi/OneDrive/Desktop/GD32VW553/V1_MQTT_OK/GD32VW55X_Wifi_BLE_SDK/GD32VW55x_RELEASE_V1.0.2/MSDK/plf/src\gd32vw55x_platform.c **** #endif
  41:C:/Users/stapi/OneDrive/Desktop/GD32VW553/V1_MQTT_OK/GD32VW55X_Wifi_BLE_SDK/GD32VW55x_RELEASE_V1.0.2/MSDK/plf/src\gd32vw55x_platform.c **** 
  42:C:/Users/stapi/OneDrive/Desktop/GD32VW553/V1_MQTT_OK/GD32VW55X_Wifi_BLE_SDK/GD32VW55x_RELEASE_V1.0.2/MSDK/plf/src\gd32vw55x_platform.c **** #include "arch.h"
  43:C:/Users/stapi/OneDrive/Desktop/GD32VW553/V1_MQTT_OK/GD32VW55X_Wifi_BLE_SDK/GD32VW55x_RELEASE_V1.0.2/MSDK/plf/src\gd32vw55x_platform.c **** #include "gd32vw55x.h"
  44:C:/Users/stapi/OneDrive/Desktop/GD32VW553/V1_MQTT_OK/GD32VW55X_Wifi_BLE_SDK/GD32VW55x_RELEASE_V1.0.2/MSDK/plf/src\gd32vw55x_platform.c **** #include "systime.h"
  45:C:/Users/stapi/OneDrive/Desktop/GD32VW553/V1_MQTT_OK/GD32VW55X_Wifi_BLE_SDK/GD32VW55x_RELEASE_V1.0.2/MSDK/plf/src\gd32vw55x_platform.c **** #include "uart.h"
  46:C:/Users/stapi/OneDrive/Desktop/GD32VW553/V1_MQTT_OK/GD32VW55X_Wifi_BLE_SDK/GD32VW55x_RELEASE_V1.0.2/MSDK/plf/src\gd32vw55x_platform.c **** #include "rf_spi.h"
  47:C:/Users/stapi/OneDrive/Desktop/GD32VW553/V1_MQTT_OK/GD32VW55X_Wifi_BLE_SDK/GD32VW55x_RELEASE_V1.0.2/MSDK/plf/src\gd32vw55x_platform.c **** #include "hal_rf.h"
  48:C:/Users/stapi/OneDrive/Desktop/GD32VW553/V1_MQTT_OK/GD32VW55X_Wifi_BLE_SDK/GD32VW55x_RELEASE_V1.0.2/MSDK/plf/src\gd32vw55x_platform.c **** #include "dma.h"
  49:C:/Users/stapi/OneDrive/Desktop/GD32VW553/V1_MQTT_OK/GD32VW55X_Wifi_BLE_SDK/GD32VW55x_RELEASE_V1.0.2/MSDK/plf/src\gd32vw55x_platform.c **** #include "gd32vw55x_platform.h"
  50:C:/Users/stapi/OneDrive/Desktop/GD32VW553/V1_MQTT_OK/GD32VW55X_Wifi_BLE_SDK/GD32VW55x_RELEASE_V1.0.2/MSDK/plf/src\gd32vw55x_platform.c **** #include "wakelock.h"
  51:C:/Users/stapi/OneDrive/Desktop/GD32VW553/V1_MQTT_OK/GD32VW55X_Wifi_BLE_SDK/GD32VW55x_RELEASE_V1.0.2/MSDK/plf/src\gd32vw55x_platform.c **** #include "init_rom.h"
  52:C:/Users/stapi/OneDrive/Desktop/GD32VW553/V1_MQTT_OK/GD32VW55X_Wifi_BLE_SDK/GD32VW55x_RELEASE_V1.0.2/MSDK/plf/src\gd32vw55x_platform.c **** #include "nvds_flash.h"
  53:C:/Users/stapi/OneDrive/Desktop/GD32VW553/V1_MQTT_OK/GD32VW55X_Wifi_BLE_SDK/GD32VW55x_RELEASE_V1.0.2/MSDK/plf/src\gd32vw55x_platform.c **** #include "dbg_print.h"
  54:C:/Users/stapi/OneDrive/Desktop/GD32VW553/V1_MQTT_OK/GD32VW55X_Wifi_BLE_SDK/GD32VW55x_RELEASE_V1.0.2/MSDK/plf/src\gd32vw55x_platform.c **** #include "trng.h"
  55:C:/Users/stapi/OneDrive/Desktop/GD32VW553/V1_MQTT_OK/GD32VW55X_Wifi_BLE_SDK/GD32VW55x_RELEASE_V1.0.2/MSDK/plf/src\gd32vw55x_platform.c **** #include "trace_uart.h"
  56:C:/Users/stapi/OneDrive/Desktop/GD32VW553/V1_MQTT_OK/GD32VW55X_Wifi_BLE_SDK/GD32VW55x_RELEASE_V1.0.2/MSDK/plf/src\gd32vw55x_platform.c **** #include "log_uart.h"
  57:C:/Users/stapi/OneDrive/Desktop/GD32VW553/V1_MQTT_OK/GD32VW55X_Wifi_BLE_SDK/GD32VW55x_RELEASE_V1.0.2/MSDK/plf/src\gd32vw55x_platform.c **** #include "raw_flash_api.h"
  58:C:/Users/stapi/OneDrive/Desktop/GD32VW553/V1_MQTT_OK/GD32VW55X_Wifi_BLE_SDK/GD32VW55x_RELEASE_V1.0.2/MSDK/plf/src\gd32vw55x_platform.c **** 
  59:C:/Users/stapi/OneDrive/Desktop/GD32VW553/V1_MQTT_OK/GD32VW55X_Wifi_BLE_SDK/GD32VW55x_RELEASE_V1.0.2/MSDK/plf/src\gd32vw55x_platform.c **** #ifdef CFG_BLE_HCI_MODE
  60:C:/Users/stapi/OneDrive/Desktop/GD32VW553/V1_MQTT_OK/GD32VW55X_Wifi_BLE_SDK/GD32VW55x_RELEASE_V1.0.2/MSDK/plf/src\gd32vw55x_platform.c **** #include "ble_uart.h"
  61:C:/Users/stapi/OneDrive/Desktop/GD32VW553/V1_MQTT_OK/GD32VW55X_Wifi_BLE_SDK/GD32VW55x_RELEASE_V1.0.2/MSDK/plf/src\gd32vw55x_platform.c **** #endif
  62:C:/Users/stapi/OneDrive/Desktop/GD32VW553/V1_MQTT_OK/GD32VW55X_Wifi_BLE_SDK/GD32VW55x_RELEASE_V1.0.2/MSDK/plf/src\gd32vw55x_platform.c **** 
  63:C:/Users/stapi/OneDrive/Desktop/GD32VW553/V1_MQTT_OK/GD32VW55X_Wifi_BLE_SDK/GD32VW55x_RELEASE_V1.0.2/MSDK/plf/src\gd32vw55x_platform.c **** // Indicate WiFi is existed or not (CFG_WLAN_SUPPORT)
  64:C:/Users/stapi/OneDrive/Desktop/GD32VW553/V1_MQTT_OK/GD32VW55X_Wifi_BLE_SDK/GD32VW55x_RELEASE_V1.0.2/MSDK/plf/src\gd32vw55x_platform.c **** uint8_t wifi_exist_flag = 0;
  65:C:/Users/stapi/OneDrive/Desktop/GD32VW553/V1_MQTT_OK/GD32VW55X_Wifi_BLE_SDK/GD32VW55x_RELEASE_V1.0.2/MSDK/plf/src\gd32vw55x_platform.c **** 
  66:C:/Users/stapi/OneDrive/Desktop/GD32VW553/V1_MQTT_OK/GD32VW55X_Wifi_BLE_SDK/GD32VW55x_RELEASE_V1.0.2/MSDK/plf/src\gd32vw55x_platform.c **** extern void system_clock_config(void);
  67:C:/Users/stapi/OneDrive/Desktop/GD32VW553/V1_MQTT_OK/GD32VW55X_Wifi_BLE_SDK/GD32VW55x_RELEASE_V1.0.2/MSDK/plf/src\gd32vw55x_platform.c **** 
  68:C:/Users/stapi/OneDrive/Desktop/GD32VW553/V1_MQTT_OK/GD32VW55X_Wifi_BLE_SDK/GD32VW55x_RELEASE_V1.0.2/MSDK/plf/src\gd32vw55x_platform.c **** __INLINE void hw_crypto_engine_enable(void)
  69:C:/Users/stapi/OneDrive/Desktop/GD32VW553/V1_MQTT_OK/GD32VW55X_Wifi_BLE_SDK/GD32VW55x_RELEASE_V1.0.2/MSDK/plf/src\gd32vw55x_platform.c **** {
  70:C:/Users/stapi/OneDrive/Desktop/GD32VW553/V1_MQTT_OK/GD32VW55X_Wifi_BLE_SDK/GD32VW55x_RELEASE_V1.0.2/MSDK/plf/src\gd32vw55x_platform.c ****     rcu_periph_clock_enable(RCU_PKCAU);
  71:C:/Users/stapi/OneDrive/Desktop/GD32VW553/V1_MQTT_OK/GD32VW55X_Wifi_BLE_SDK/GD32VW55x_RELEASE_V1.0.2/MSDK/plf/src\gd32vw55x_platform.c ****     rcu_periph_clock_enable(RCU_CAU);
  72:C:/Users/stapi/OneDrive/Desktop/GD32VW553/V1_MQTT_OK/GD32VW55X_Wifi_BLE_SDK/GD32VW55x_RELEASE_V1.0.2/MSDK/plf/src\gd32vw55x_platform.c ****     rcu_periph_clock_enable(RCU_HAU);
  73:C:/Users/stapi/OneDrive/Desktop/GD32VW553/V1_MQTT_OK/GD32VW55X_Wifi_BLE_SDK/GD32VW55x_RELEASE_V1.0.2/MSDK/plf/src\gd32vw55x_platform.c **** }
  74:C:/Users/stapi/OneDrive/Desktop/GD32VW553/V1_MQTT_OK/GD32VW55X_Wifi_BLE_SDK/GD32VW55x_RELEASE_V1.0.2/MSDK/plf/src\gd32vw55x_platform.c **** 
  75:C:/Users/stapi/OneDrive/Desktop/GD32VW553/V1_MQTT_OK/GD32VW55X_Wifi_BLE_SDK/GD32VW55x_RELEASE_V1.0.2/MSDK/plf/src\gd32vw55x_platform.c **** __INLINE void hw_crypto_engine_disable(void)
  76:C:/Users/stapi/OneDrive/Desktop/GD32VW553/V1_MQTT_OK/GD32VW55X_Wifi_BLE_SDK/GD32VW55x_RELEASE_V1.0.2/MSDK/plf/src\gd32vw55x_platform.c **** {
  77:C:/Users/stapi/OneDrive/Desktop/GD32VW553/V1_MQTT_OK/GD32VW55X_Wifi_BLE_SDK/GD32VW55x_RELEASE_V1.0.2/MSDK/plf/src\gd32vw55x_platform.c ****     rcu_periph_clock_disable(RCU_PKCAU);
  78:C:/Users/stapi/OneDrive/Desktop/GD32VW553/V1_MQTT_OK/GD32VW55X_Wifi_BLE_SDK/GD32VW55x_RELEASE_V1.0.2/MSDK/plf/src\gd32vw55x_platform.c ****     rcu_periph_clock_disable(RCU_CAU);
  79:C:/Users/stapi/OneDrive/Desktop/GD32VW553/V1_MQTT_OK/GD32VW55X_Wifi_BLE_SDK/GD32VW55x_RELEASE_V1.0.2/MSDK/plf/src\gd32vw55x_platform.c ****     rcu_periph_clock_disable(RCU_HAU);
  80:C:/Users/stapi/OneDrive/Desktop/GD32VW553/V1_MQTT_OK/GD32VW55X_Wifi_BLE_SDK/GD32VW55x_RELEASE_V1.0.2/MSDK/plf/src\gd32vw55x_platform.c **** }
  81:C:/Users/stapi/OneDrive/Desktop/GD32VW553/V1_MQTT_OK/GD32VW55X_Wifi_BLE_SDK/GD32VW55x_RELEASE_V1.0.2/MSDK/plf/src\gd32vw55x_platform.c **** 
  82:C:/Users/stapi/OneDrive/Desktop/GD32VW553/V1_MQTT_OK/GD32VW55X_Wifi_BLE_SDK/GD32VW55x_RELEASE_V1.0.2/MSDK/plf/src\gd32vw55x_platform.c **** /*!
  83:C:/Users/stapi/OneDrive/Desktop/GD32VW553/V1_MQTT_OK/GD32VW55X_Wifi_BLE_SDK/GD32VW55x_RELEASE_V1.0.2/MSDK/plf/src\gd32vw55x_platform.c ****     \brief      set lpds preconfig
  84:C:/Users/stapi/OneDrive/Desktop/GD32VW553/V1_MQTT_OK/GD32VW55X_Wifi_BLE_SDK/GD32VW55x_RELEASE_V1.0.2/MSDK/plf/src\gd32vw55x_platform.c ****     \param[in]  settle_time: time want to set
  85:C:/Users/stapi/OneDrive/Desktop/GD32VW553/V1_MQTT_OK/GD32VW55X_Wifi_BLE_SDK/GD32VW55x_RELEASE_V1.0.2/MSDK/plf/src\gd32vw55x_platform.c ****     \param[out] none
  86:C:/Users/stapi/OneDrive/Desktop/GD32VW553/V1_MQTT_OK/GD32VW55X_Wifi_BLE_SDK/GD32VW55x_RELEASE_V1.0.2/MSDK/plf/src\gd32vw55x_platform.c ****     \retval     none
  87:C:/Users/stapi/OneDrive/Desktop/GD32VW553/V1_MQTT_OK/GD32VW55X_Wifi_BLE_SDK/GD32VW55x_RELEASE_V1.0.2/MSDK/plf/src\gd32vw55x_platform.c **** */
  88:C:/Users/stapi/OneDrive/Desktop/GD32VW553/V1_MQTT_OK/GD32VW55X_Wifi_BLE_SDK/GD32VW55x_RELEASE_V1.0.2/MSDK/plf/src\gd32vw55x_platform.c **** void wifi_lpds_preconfig(uint8_t settle_time)
  89:C:/Users/stapi/OneDrive/Desktop/GD32VW553/V1_MQTT_OK/GD32VW55X_Wifi_BLE_SDK/GD32VW55x_RELEASE_V1.0.2/MSDK/plf/src\gd32vw55x_platform.c **** {
  90:C:/Users/stapi/OneDrive/Desktop/GD32VW553/V1_MQTT_OK/GD32VW55X_Wifi_BLE_SDK/GD32VW55x_RELEASE_V1.0.2/MSDK/plf/src\gd32vw55x_platform.c ****     /* set HXTAL settle time */
  91:C:/Users/stapi/OneDrive/Desktop/GD32VW553/V1_MQTT_OK/GD32VW55X_Wifi_BLE_SDK/GD32VW55x_RELEASE_V1.0.2/MSDK/plf/src\gd32vw55x_platform.c ****     PMU_RFPAR  &= (~PMU_RFPAR_TIM1_PAR);
  92:C:/Users/stapi/OneDrive/Desktop/GD32VW553/V1_MQTT_OK/GD32VW55X_Wifi_BLE_SDK/GD32VW55x_RELEASE_V1.0.2/MSDK/plf/src\gd32vw55x_platform.c ****     PMU_RFPAR  |= (settle_time & PMU_RFPAR_TIM1_PAR);
  93:C:/Users/stapi/OneDrive/Desktop/GD32VW553/V1_MQTT_OK/GD32VW55X_Wifi_BLE_SDK/GD32VW55x_RELEASE_V1.0.2/MSDK/plf/src\gd32vw55x_platform.c **** }
  94:C:/Users/stapi/OneDrive/Desktop/GD32VW553/V1_MQTT_OK/GD32VW55X_Wifi_BLE_SDK/GD32VW55x_RELEASE_V1.0.2/MSDK/plf/src\gd32vw55x_platform.c **** 
  95:C:/Users/stapi/OneDrive/Desktop/GD32VW553/V1_MQTT_OK/GD32VW55X_Wifi_BLE_SDK/GD32VW55x_RELEASE_V1.0.2/MSDK/plf/src\gd32vw55x_platform.c **** void wifi_lpds_enter(void)
  96:C:/Users/stapi/OneDrive/Desktop/GD32VW553/V1_MQTT_OK/GD32VW55X_Wifi_BLE_SDK/GD32VW55x_RELEASE_V1.0.2/MSDK/plf/src\gd32vw55x_platform.c **** {
  97:C:/Users/stapi/OneDrive/Desktop/GD32VW553/V1_MQTT_OK/GD32VW55X_Wifi_BLE_SDK/GD32VW55x_RELEASE_V1.0.2/MSDK/plf/src\gd32vw55x_platform.c ****     PMU_CTL1 |= PMU_CTL1_WIFI_LPDS_ON;
  98:C:/Users/stapi/OneDrive/Desktop/GD32VW553/V1_MQTT_OK/GD32VW55X_Wifi_BLE_SDK/GD32VW55x_RELEASE_V1.0.2/MSDK/plf/src\gd32vw55x_platform.c **** }
  99:C:/Users/stapi/OneDrive/Desktop/GD32VW553/V1_MQTT_OK/GD32VW55X_Wifi_BLE_SDK/GD32VW55x_RELEASE_V1.0.2/MSDK/plf/src\gd32vw55x_platform.c **** 
 100:C:/Users/stapi/OneDrive/Desktop/GD32VW553/V1_MQTT_OK/GD32VW55X_Wifi_BLE_SDK/GD32VW55x_RELEASE_V1.0.2/MSDK/plf/src\gd32vw55x_platform.c **** void wifi_lpds_exit(void)
 101:C:/Users/stapi/OneDrive/Desktop/GD32VW553/V1_MQTT_OK/GD32VW55X_Wifi_BLE_SDK/GD32VW55x_RELEASE_V1.0.2/MSDK/plf/src\gd32vw55x_platform.c **** {
 102:C:/Users/stapi/OneDrive/Desktop/GD32VW553/V1_MQTT_OK/GD32VW55X_Wifi_BLE_SDK/GD32VW55x_RELEASE_V1.0.2/MSDK/plf/src\gd32vw55x_platform.c ****     PMU_CTL1 &= (~PMU_CTL1_WIFI_LPDS_ON);
 103:C:/Users/stapi/OneDrive/Desktop/GD32VW553/V1_MQTT_OK/GD32VW55X_Wifi_BLE_SDK/GD32VW55x_RELEASE_V1.0.2/MSDK/plf/src\gd32vw55x_platform.c ****     while (((PMU_RFCTL & PMU_RFCTL_RF_STATE) >> 16) != 0x08);
 104:C:/Users/stapi/OneDrive/Desktop/GD32VW553/V1_MQTT_OK/GD32VW55X_Wifi_BLE_SDK/GD32VW55x_RELEASE_V1.0.2/MSDK/plf/src\gd32vw55x_platform.c ****     // wait wifi pmu active
 105:C:/Users/stapi/OneDrive/Desktop/GD32VW553/V1_MQTT_OK/GD32VW55X_Wifi_BLE_SDK/GD32VW55x_RELEASE_V1.0.2/MSDK/plf/src\gd32vw55x_platform.c ****     while ((PMU_CS1 & PMU_CS1_WPS_ACTIVE) != PMU_CS1_WPS_ACTIVE);
 106:C:/Users/stapi/OneDrive/Desktop/GD32VW553/V1_MQTT_OK/GD32VW55X_Wifi_BLE_SDK/GD32VW55x_RELEASE_V1.0.2/MSDK/plf/src\gd32vw55x_platform.c ****     // wait wifi module pmc idle
 107:C:/Users/stapi/OneDrive/Desktop/GD32VW553/V1_MQTT_OK/GD32VW55X_Wifi_BLE_SDK/GD32VW55x_RELEASE_V1.0.2/MSDK/plf/src\gd32vw55x_platform.c ****     while (!(REG32(0x4002392C) & BIT(31)));
 108:C:/Users/stapi/OneDrive/Desktop/GD32VW553/V1_MQTT_OK/GD32VW55X_Wifi_BLE_SDK/GD32VW55x_RELEASE_V1.0.2/MSDK/plf/src\gd32vw55x_platform.c **** }
 109:C:/Users/stapi/OneDrive/Desktop/GD32VW553/V1_MQTT_OK/GD32VW55X_Wifi_BLE_SDK/GD32VW55x_RELEASE_V1.0.2/MSDK/plf/src\gd32vw55x_platform.c **** 
 110:C:/Users/stapi/OneDrive/Desktop/GD32VW553/V1_MQTT_OK/GD32VW55X_Wifi_BLE_SDK/GD32VW55x_RELEASE_V1.0.2/MSDK/plf/src\gd32vw55x_platform.c **** bool wifi_is_not_idle(void)
 111:C:/Users/stapi/OneDrive/Desktop/GD32VW553/V1_MQTT_OK/GD32VW55X_Wifi_BLE_SDK/GD32VW55x_RELEASE_V1.0.2/MSDK/plf/src\gd32vw55x_platform.c **** {
 112:C:/Users/stapi/OneDrive/Desktop/GD32VW553/V1_MQTT_OK/GD32VW55X_Wifi_BLE_SDK/GD32VW55x_RELEASE_V1.0.2/MSDK/plf/src\gd32vw55x_platform.c ****     return (REG32(0x4002392C) & BITS(28, 30)) != BITS(28, 30);
 113:C:/Users/stapi/OneDrive/Desktop/GD32VW553/V1_MQTT_OK/GD32VW55X_Wifi_BLE_SDK/GD32VW55x_RELEASE_V1.0.2/MSDK/plf/src\gd32vw55x_platform.c **** }
 114:C:/Users/stapi/OneDrive/Desktop/GD32VW553/V1_MQTT_OK/GD32VW55X_Wifi_BLE_SDK/GD32VW55x_RELEASE_V1.0.2/MSDK/plf/src\gd32vw55x_platform.c **** 
 115:C:/Users/stapi/OneDrive/Desktop/GD32VW553/V1_MQTT_OK/GD32VW55X_Wifi_BLE_SDK/GD32VW55x_RELEASE_V1.0.2/MSDK/plf/src\gd32vw55x_platform.c **** bool wifi_hw_is_sleep(void)
 116:C:/Users/stapi/OneDrive/Desktop/GD32VW553/V1_MQTT_OK/GD32VW55X_Wifi_BLE_SDK/GD32VW55x_RELEASE_V1.0.2/MSDK/plf/src\gd32vw55x_platform.c **** {
 117:C:/Users/stapi/OneDrive/Desktop/GD32VW553/V1_MQTT_OK/GD32VW55X_Wifi_BLE_SDK/GD32VW55x_RELEASE_V1.0.2/MSDK/plf/src\gd32vw55x_platform.c **** #ifdef CFG_WLAN_SUPPORT
 118:C:/Users/stapi/OneDrive/Desktop/GD32VW553/V1_MQTT_OK/GD32VW55X_Wifi_BLE_SDK/GD32VW55x_RELEASE_V1.0.2/MSDK/plf/src\gd32vw55x_platform.c ****     return (((PMU_RFCTL & PMU_RFCTL_RF_STATE) == 0x00) // RF state is idle
 119:C:/Users/stapi/OneDrive/Desktop/GD32VW553/V1_MQTT_OK/GD32VW55X_Wifi_BLE_SDK/GD32VW55x_RELEASE_V1.0.2/MSDK/plf/src\gd32vw55x_platform.c ****             && ((PMU_CS1 & PMU_CS1_WPS_SLEEP) == PMU_CS1_WPS_SLEEP) // wifi module is sleep
 120:C:/Users/stapi/OneDrive/Desktop/GD32VW553/V1_MQTT_OK/GD32VW55X_Wifi_BLE_SDK/GD32VW55x_RELEASE_V1.0.2/MSDK/plf/src\gd32vw55x_platform.c ****             );
 121:C:/Users/stapi/OneDrive/Desktop/GD32VW553/V1_MQTT_OK/GD32VW55X_Wifi_BLE_SDK/GD32VW55x_RELEASE_V1.0.2/MSDK/plf/src\gd32vw55x_platform.c **** #else
 122:C:/Users/stapi/OneDrive/Desktop/GD32VW553/V1_MQTT_OK/GD32VW55X_Wifi_BLE_SDK/GD32VW55x_RELEASE_V1.0.2/MSDK/plf/src\gd32vw55x_platform.c ****     return true;
 123:C:/Users/stapi/OneDrive/Desktop/GD32VW553/V1_MQTT_OK/GD32VW55X_Wifi_BLE_SDK/GD32VW55x_RELEASE_V1.0.2/MSDK/plf/src\gd32vw55x_platform.c **** #endif
 124:C:/Users/stapi/OneDrive/Desktop/GD32VW553/V1_MQTT_OK/GD32VW55X_Wifi_BLE_SDK/GD32VW55x_RELEASE_V1.0.2/MSDK/plf/src\gd32vw55x_platform.c **** }
 125:C:/Users/stapi/OneDrive/Desktop/GD32VW553/V1_MQTT_OK/GD32VW55X_Wifi_BLE_SDK/GD32VW55x_RELEASE_V1.0.2/MSDK/plf/src\gd32vw55x_platform.c **** 
 126:C:/Users/stapi/OneDrive/Desktop/GD32VW553/V1_MQTT_OK/GD32VW55X_Wifi_BLE_SDK/GD32VW55x_RELEASE_V1.0.2/MSDK/plf/src\gd32vw55x_platform.c **** /*!
 127:C:/Users/stapi/OneDrive/Desktop/GD32VW553/V1_MQTT_OK/GD32VW55X_Wifi_BLE_SDK/GD32VW55x_RELEASE_V1.0.2/MSDK/plf/src\gd32vw55x_platform.c ****     \brief      clear exti line
 128:C:/Users/stapi/OneDrive/Desktop/GD32VW553/V1_MQTT_OK/GD32VW55X_Wifi_BLE_SDK/GD32VW55x_RELEASE_V1.0.2/MSDK/plf/src\gd32vw55x_platform.c ****     \param[in]  line_no: EXTI line number, refer to exti_line_enum
 129:C:/Users/stapi/OneDrive/Desktop/GD32VW553/V1_MQTT_OK/GD32VW55X_Wifi_BLE_SDK/GD32VW55x_RELEASE_V1.0.2/MSDK/plf/src\gd32vw55x_platform.c ****                 only one parameter can be selected which is shown as below:
 130:C:/Users/stapi/OneDrive/Desktop/GD32VW553/V1_MQTT_OK/GD32VW55X_Wifi_BLE_SDK/GD32VW55x_RELEASE_V1.0.2/MSDK/plf/src\gd32vw55x_platform.c ****       \arg        EXTI_x (x=0..28): EXTI line x
 131:C:/Users/stapi/OneDrive/Desktop/GD32VW553/V1_MQTT_OK/GD32VW55X_Wifi_BLE_SDK/GD32VW55x_RELEASE_V1.0.2/MSDK/plf/src\gd32vw55x_platform.c ****     \param[out] none
 132:C:/Users/stapi/OneDrive/Desktop/GD32VW553/V1_MQTT_OK/GD32VW55X_Wifi_BLE_SDK/GD32VW55x_RELEASE_V1.0.2/MSDK/plf/src\gd32vw55x_platform.c ****     \retval     none
 133:C:/Users/stapi/OneDrive/Desktop/GD32VW553/V1_MQTT_OK/GD32VW55X_Wifi_BLE_SDK/GD32VW55x_RELEASE_V1.0.2/MSDK/plf/src\gd32vw55x_platform.c **** */
 134:C:/Users/stapi/OneDrive/Desktop/GD32VW553/V1_MQTT_OK/GD32VW55X_Wifi_BLE_SDK/GD32VW55x_RELEASE_V1.0.2/MSDK/plf/src\gd32vw55x_platform.c **** static void exti_line_clear(exti_line_enum line_no)
 135:C:/Users/stapi/OneDrive/Desktop/GD32VW553/V1_MQTT_OK/GD32VW55X_Wifi_BLE_SDK/GD32VW55x_RELEASE_V1.0.2/MSDK/plf/src\gd32vw55x_platform.c **** {
  15              		.loc 1 135 1
  16              		.cfi_startproc
  17              	.LVL0:
  18 0000 17030000 		call	t0,__riscv_save_1
  18      E7020300 
  19              		.cfi_offset 8, -8
  20              		.cfi_offset 1, -4
  21              		.cfi_def_cfa_offset 16
 136:C:/Users/stapi/OneDrive/Desktop/GD32VW553/V1_MQTT_OK/GD32VW55X_Wifi_BLE_SDK/GD32VW55x_RELEASE_V1.0.2/MSDK/plf/src\gd32vw55x_platform.c ****     /* disable interrupt mask */
 137:C:/Users/stapi/OneDrive/Desktop/GD32VW553/V1_MQTT_OK/GD32VW55X_Wifi_BLE_SDK/GD32VW55x_RELEASE_V1.0.2/MSDK/plf/src\gd32vw55x_platform.c ****     exti_interrupt_disable(line_no);
  22              		.loc 1 137 5
 135:C:/Users/stapi/OneDrive/Desktop/GD32VW553/V1_MQTT_OK/GD32VW55X_Wifi_BLE_SDK/GD32VW55x_RELEASE_V1.0.2/MSDK/plf/src\gd32vw55x_platform.c ****     /* disable interrupt mask */
  23              		.loc 1 135 1 is_stmt 0
  24 0008 2A84     		mv	s0,a0
  25              		.loc 1 137 5
  26 000a 97000000 		call	exti_interrupt_disable
  26      E7800000 
  27              	.LVL1:
 138:C:/Users/stapi/OneDrive/Desktop/GD32VW553/V1_MQTT_OK/GD32VW55X_Wifi_BLE_SDK/GD32VW55x_RELEASE_V1.0.2/MSDK/plf/src\gd32vw55x_platform.c **** 
 139:C:/Users/stapi/OneDrive/Desktop/GD32VW553/V1_MQTT_OK/GD32VW55X_Wifi_BLE_SDK/GD32VW55x_RELEASE_V1.0.2/MSDK/plf/src\gd32vw55x_platform.c ****     /* clear pending interrupt bit */
 140:C:/Users/stapi/OneDrive/Desktop/GD32VW553/V1_MQTT_OK/GD32VW55X_Wifi_BLE_SDK/GD32VW55x_RELEASE_V1.0.2/MSDK/plf/src\gd32vw55x_platform.c ****     if (SET == exti_flag_get(line_no)) {
  28              		.loc 1 140 5 is_stmt 1
  29              		.loc 1 140 16 is_stmt 0
  30 0012 2285     		mv	a0,s0
  31 0014 97000000 		call	exti_flag_get
  31      E7800000 
  32              	.LVL2:
  33              		.loc 1 140 8
  34 001c 8547     		li	a5,1
  35 001e 6317F500 		bne	a0,a5,.L1
 141:C:/Users/stapi/OneDrive/Desktop/GD32VW553/V1_MQTT_OK/GD32VW55X_Wifi_BLE_SDK/GD32VW55x_RELEASE_V1.0.2/MSDK/plf/src\gd32vw55x_platform.c ****         exti_interrupt_flag_clear(line_no);
  36              		.loc 1 141 9 is_stmt 1
  37 0022 2285     		mv	a0,s0
  38 0024 97000000 		call	exti_interrupt_flag_clear
  38      E7800000 
  39              	.LVL3:
  40              	.L1:
 142:C:/Users/stapi/OneDrive/Desktop/GD32VW553/V1_MQTT_OK/GD32VW55X_Wifi_BLE_SDK/GD32VW55x_RELEASE_V1.0.2/MSDK/plf/src\gd32vw55x_platform.c ****     }
 143:C:/Users/stapi/OneDrive/Desktop/GD32VW553/V1_MQTT_OK/GD32VW55X_Wifi_BLE_SDK/GD32VW55x_RELEASE_V1.0.2/MSDK/plf/src\gd32vw55x_platform.c **** }
  41              		.loc 1 143 1 is_stmt 0
  42 002c 17030000 		tail	__riscv_restore_1
  42      67000300 
  43              		.cfi_restore 8
  44              		.cfi_restore 1
  45              		.cfi_def_cfa_offset 0
  46              		.cfi_endproc
  47              	.LFE380:
  49              		.section	.text.ble_pmu_config.part.0,"ax",@progbits
  50              		.align	1
  52              	ble_pmu_config.part.0:
  53              	.LFB427:
 144:C:/Users/stapi/OneDrive/Desktop/GD32VW553/V1_MQTT_OK/GD32VW55X_Wifi_BLE_SDK/GD32VW55x_RELEASE_V1.0.2/MSDK/plf/src\gd32vw55x_platform.c **** 
 145:C:/Users/stapi/OneDrive/Desktop/GD32VW553/V1_MQTT_OK/GD32VW55X_Wifi_BLE_SDK/GD32VW55x_RELEASE_V1.0.2/MSDK/plf/src\gd32vw55x_platform.c **** /*!
 146:C:/Users/stapi/OneDrive/Desktop/GD32VW553/V1_MQTT_OK/GD32VW55X_Wifi_BLE_SDK/GD32VW55x_RELEASE_V1.0.2/MSDK/plf/src\gd32vw55x_platform.c ****     \brief      enter deep sleep mode
 147:C:/Users/stapi/OneDrive/Desktop/GD32VW553/V1_MQTT_OK/GD32VW55X_Wifi_BLE_SDK/GD32VW55x_RELEASE_V1.0.2/MSDK/plf/src\gd32vw55x_platform.c ****     \param[in]  sleep_time: sleep time(0x0000-0x7fff)
 148:C:/Users/stapi/OneDrive/Desktop/GD32VW553/V1_MQTT_OK/GD32VW55X_Wifi_BLE_SDK/GD32VW55x_RELEASE_V1.0.2/MSDK/plf/src\gd32vw55x_platform.c ****     \param[out] none
 149:C:/Users/stapi/OneDrive/Desktop/GD32VW553/V1_MQTT_OK/GD32VW55X_Wifi_BLE_SDK/GD32VW55x_RELEASE_V1.0.2/MSDK/plf/src\gd32vw55x_platform.c ****     \retval     none
 150:C:/Users/stapi/OneDrive/Desktop/GD32VW553/V1_MQTT_OK/GD32VW55X_Wifi_BLE_SDK/GD32VW55x_RELEASE_V1.0.2/MSDK/plf/src\gd32vw55x_platform.c **** */
 151:C:/Users/stapi/OneDrive/Desktop/GD32VW553/V1_MQTT_OK/GD32VW55X_Wifi_BLE_SDK/GD32VW55x_RELEASE_V1.0.2/MSDK/plf/src\gd32vw55x_platform.c **** void deep_sleep_enter(uint16_t sleep_time)
 152:C:/Users/stapi/OneDrive/Desktop/GD32VW553/V1_MQTT_OK/GD32VW55X_Wifi_BLE_SDK/GD32VW55x_RELEASE_V1.0.2/MSDK/plf/src\gd32vw55x_platform.c **** {
 153:C:/Users/stapi/OneDrive/Desktop/GD32VW553/V1_MQTT_OK/GD32VW55X_Wifi_BLE_SDK/GD32VW55x_RELEASE_V1.0.2/MSDK/plf/src\gd32vw55x_platform.c ****     exti_init(LOG_USART_RX_PIN_EXTI_LINE, EXTI_INTERRUPT, EXTI_TRIG_RISING);
 154:C:/Users/stapi/OneDrive/Desktop/GD32VW553/V1_MQTT_OK/GD32VW55X_Wifi_BLE_SDK/GD32VW55x_RELEASE_V1.0.2/MSDK/plf/src\gd32vw55x_platform.c **** 
 155:C:/Users/stapi/OneDrive/Desktop/GD32VW553/V1_MQTT_OK/GD32VW55X_Wifi_BLE_SDK/GD32VW55x_RELEASE_V1.0.2/MSDK/plf/src\gd32vw55x_platform.c ****     // Wifi module enter exit by self
 156:C:/Users/stapi/OneDrive/Desktop/GD32VW553/V1_MQTT_OK/GD32VW55X_Wifi_BLE_SDK/GD32VW55x_RELEASE_V1.0.2/MSDK/plf/src\gd32vw55x_platform.c ****     // exti_init(WLAN_WAKEUP_EXTI_LINE, EXTI_INTERRUPT, EXTI_TRIG_RISING);
 157:C:/Users/stapi/OneDrive/Desktop/GD32VW553/V1_MQTT_OK/GD32VW55X_Wifi_BLE_SDK/GD32VW55x_RELEASE_V1.0.2/MSDK/plf/src\gd32vw55x_platform.c **** 
 158:C:/Users/stapi/OneDrive/Desktop/GD32VW553/V1_MQTT_OK/GD32VW55X_Wifi_BLE_SDK/GD32VW55x_RELEASE_V1.0.2/MSDK/plf/src\gd32vw55x_platform.c ****     exti_init(RTC_WAKEUP_EXTI_LINE, EXTI_INTERRUPT, EXTI_TRIG_RISING);
 159:C:/Users/stapi/OneDrive/Desktop/GD32VW553/V1_MQTT_OK/GD32VW55X_Wifi_BLE_SDK/GD32VW55x_RELEASE_V1.0.2/MSDK/plf/src\gd32vw55x_platform.c **** 
 160:C:/Users/stapi/OneDrive/Desktop/GD32VW553/V1_MQTT_OK/GD32VW55X_Wifi_BLE_SDK/GD32VW55x_RELEASE_V1.0.2/MSDK/plf/src\gd32vw55x_platform.c ****     rtc_flag_clear(RTC_STAT_WTF);
 161:C:/Users/stapi/OneDrive/Desktop/GD32VW553/V1_MQTT_OK/GD32VW55X_Wifi_BLE_SDK/GD32VW55x_RELEASE_V1.0.2/MSDK/plf/src\gd32vw55x_platform.c ****     rtc_wakeup_disable();
 162:C:/Users/stapi/OneDrive/Desktop/GD32VW553/V1_MQTT_OK/GD32VW55X_Wifi_BLE_SDK/GD32VW55x_RELEASE_V1.0.2/MSDK/plf/src\gd32vw55x_platform.c **** 
 163:C:/Users/stapi/OneDrive/Desktop/GD32VW553/V1_MQTT_OK/GD32VW55X_Wifi_BLE_SDK/GD32VW55x_RELEASE_V1.0.2/MSDK/plf/src\gd32vw55x_platform.c **** #if defined(RTC_CLOCK_SOURCE_IRC32K)
 164:C:/Users/stapi/OneDrive/Desktop/GD32VW553/V1_MQTT_OK/GD32VW55X_Wifi_BLE_SDK/GD32VW55x_RELEASE_V1.0.2/MSDK/plf/src\gd32vw55x_platform.c ****     rtc_wakeup_timer_set(sleep_time * 2);  /* unit: 500us */
 165:C:/Users/stapi/OneDrive/Desktop/GD32VW553/V1_MQTT_OK/GD32VW55X_Wifi_BLE_SDK/GD32VW55x_RELEASE_V1.0.2/MSDK/plf/src\gd32vw55x_platform.c **** #else
 166:C:/Users/stapi/OneDrive/Desktop/GD32VW553/V1_MQTT_OK/GD32VW55X_Wifi_BLE_SDK/GD32VW55x_RELEASE_V1.0.2/MSDK/plf/src\gd32vw55x_platform.c ****     rtc_wakeup_timer_set(sleep_time * 5); /* unit: 200us */
 167:C:/Users/stapi/OneDrive/Desktop/GD32VW553/V1_MQTT_OK/GD32VW55X_Wifi_BLE_SDK/GD32VW55x_RELEASE_V1.0.2/MSDK/plf/src\gd32vw55x_platform.c **** #endif
 168:C:/Users/stapi/OneDrive/Desktop/GD32VW553/V1_MQTT_OK/GD32VW55X_Wifi_BLE_SDK/GD32VW55x_RELEASE_V1.0.2/MSDK/plf/src\gd32vw55x_platform.c **** 
 169:C:/Users/stapi/OneDrive/Desktop/GD32VW553/V1_MQTT_OK/GD32VW55X_Wifi_BLE_SDK/GD32VW55x_RELEASE_V1.0.2/MSDK/plf/src\gd32vw55x_platform.c ****     rtc_wakeup_enable();
 170:C:/Users/stapi/OneDrive/Desktop/GD32VW553/V1_MQTT_OK/GD32VW55X_Wifi_BLE_SDK/GD32VW55x_RELEASE_V1.0.2/MSDK/plf/src\gd32vw55x_platform.c **** 
 171:C:/Users/stapi/OneDrive/Desktop/GD32VW553/V1_MQTT_OK/GD32VW55X_Wifi_BLE_SDK/GD32VW55x_RELEASE_V1.0.2/MSDK/plf/src\gd32vw55x_platform.c ****     hw_crypto_engine_disable();
 172:C:/Users/stapi/OneDrive/Desktop/GD32VW553/V1_MQTT_OK/GD32VW55X_Wifi_BLE_SDK/GD32VW55x_RELEASE_V1.0.2/MSDK/plf/src\gd32vw55x_platform.c ****     trng_close(0);
 173:C:/Users/stapi/OneDrive/Desktop/GD32VW553/V1_MQTT_OK/GD32VW55X_Wifi_BLE_SDK/GD32VW55x_RELEASE_V1.0.2/MSDK/plf/src\gd32vw55x_platform.c **** 
 174:C:/Users/stapi/OneDrive/Desktop/GD32VW553/V1_MQTT_OK/GD32VW55X_Wifi_BLE_SDK/GD32VW55x_RELEASE_V1.0.2/MSDK/plf/src\gd32vw55x_platform.c **** #ifdef LOG_UART
 175:C:/Users/stapi/OneDrive/Desktop/GD32VW553/V1_MQTT_OK/GD32VW55X_Wifi_BLE_SDK/GD32VW55x_RELEASE_V1.0.2/MSDK/plf/src\gd32vw55x_platform.c ****     /* wait usart transmition complete */
 176:C:/Users/stapi/OneDrive/Desktop/GD32VW553/V1_MQTT_OK/GD32VW55X_Wifi_BLE_SDK/GD32VW55x_RELEASE_V1.0.2/MSDK/plf/src\gd32vw55x_platform.c ****     while(RESET == usart_flag_get(LOG_UART, USART_FLAG_TC));
 177:C:/Users/stapi/OneDrive/Desktop/GD32VW553/V1_MQTT_OK/GD32VW55X_Wifi_BLE_SDK/GD32VW55x_RELEASE_V1.0.2/MSDK/plf/src\gd32vw55x_platform.c **** #endif
 178:C:/Users/stapi/OneDrive/Desktop/GD32VW553/V1_MQTT_OK/GD32VW55X_Wifi_BLE_SDK/GD32VW55x_RELEASE_V1.0.2/MSDK/plf/src\gd32vw55x_platform.c **** 
 179:C:/Users/stapi/OneDrive/Desktop/GD32VW553/V1_MQTT_OK/GD32VW55X_Wifi_BLE_SDK/GD32VW55x_RELEASE_V1.0.2/MSDK/plf/src\gd32vw55x_platform.c **** #ifdef TRACE_UART
 180:C:/Users/stapi/OneDrive/Desktop/GD32VW553/V1_MQTT_OK/GD32VW55X_Wifi_BLE_SDK/GD32VW55x_RELEASE_V1.0.2/MSDK/plf/src\gd32vw55x_platform.c ****     /* wait usart transmition complete */
 181:C:/Users/stapi/OneDrive/Desktop/GD32VW553/V1_MQTT_OK/GD32VW55X_Wifi_BLE_SDK/GD32VW55x_RELEASE_V1.0.2/MSDK/plf/src\gd32vw55x_platform.c ****     while(RESET == usart_flag_get(TRACE_UART, USART_FLAG_TC));
 182:C:/Users/stapi/OneDrive/Desktop/GD32VW553/V1_MQTT_OK/GD32VW55X_Wifi_BLE_SDK/GD32VW55x_RELEASE_V1.0.2/MSDK/plf/src\gd32vw55x_platform.c **** #endif
 183:C:/Users/stapi/OneDrive/Desktop/GD32VW553/V1_MQTT_OK/GD32VW55X_Wifi_BLE_SDK/GD32VW55x_RELEASE_V1.0.2/MSDK/plf/src\gd32vw55x_platform.c **** 
 184:C:/Users/stapi/OneDrive/Desktop/GD32VW553/V1_MQTT_OK/GD32VW55X_Wifi_BLE_SDK/GD32VW55x_RELEASE_V1.0.2/MSDK/plf/src\gd32vw55x_platform.c **** #ifdef HCI_UART
 185:C:/Users/stapi/OneDrive/Desktop/GD32VW553/V1_MQTT_OK/GD32VW55X_Wifi_BLE_SDK/GD32VW55x_RELEASE_V1.0.2/MSDK/plf/src\gd32vw55x_platform.c ****     /* wait usart transmition complete */
 186:C:/Users/stapi/OneDrive/Desktop/GD32VW553/V1_MQTT_OK/GD32VW55X_Wifi_BLE_SDK/GD32VW55x_RELEASE_V1.0.2/MSDK/plf/src\gd32vw55x_platform.c ****     while(RESET == usart_flag_get(HCI_UART, USART_FLAG_TC));
 187:C:/Users/stapi/OneDrive/Desktop/GD32VW553/V1_MQTT_OK/GD32VW55X_Wifi_BLE_SDK/GD32VW55x_RELEASE_V1.0.2/MSDK/plf/src\gd32vw55x_platform.c **** #endif
 188:C:/Users/stapi/OneDrive/Desktop/GD32VW553/V1_MQTT_OK/GD32VW55X_Wifi_BLE_SDK/GD32VW55x_RELEASE_V1.0.2/MSDK/plf/src\gd32vw55x_platform.c **** 
 189:C:/Users/stapi/OneDrive/Desktop/GD32VW553/V1_MQTT_OK/GD32VW55X_Wifi_BLE_SDK/GD32VW55x_RELEASE_V1.0.2/MSDK/plf/src\gd32vw55x_platform.c ****     pmu_to_deepsleepmode(PMU_LDO_LOWPOWER, PMU_LOWDRIVER_ENABLE, WFI_CMD);
 190:C:/Users/stapi/OneDrive/Desktop/GD32VW553/V1_MQTT_OK/GD32VW55X_Wifi_BLE_SDK/GD32VW55x_RELEASE_V1.0.2/MSDK/plf/src\gd32vw55x_platform.c **** }
 191:C:/Users/stapi/OneDrive/Desktop/GD32VW553/V1_MQTT_OK/GD32VW55X_Wifi_BLE_SDK/GD32VW55x_RELEASE_V1.0.2/MSDK/plf/src\gd32vw55x_platform.c **** 
 192:C:/Users/stapi/OneDrive/Desktop/GD32VW553/V1_MQTT_OK/GD32VW55X_Wifi_BLE_SDK/GD32VW55x_RELEASE_V1.0.2/MSDK/plf/src\gd32vw55x_platform.c **** /*!
 193:C:/Users/stapi/OneDrive/Desktop/GD32VW553/V1_MQTT_OK/GD32VW55X_Wifi_BLE_SDK/GD32VW55x_RELEASE_V1.0.2/MSDK/plf/src\gd32vw55x_platform.c ****     \brief      exit deep sleep mode
 194:C:/Users/stapi/OneDrive/Desktop/GD32VW553/V1_MQTT_OK/GD32VW55X_Wifi_BLE_SDK/GD32VW55x_RELEASE_V1.0.2/MSDK/plf/src\gd32vw55x_platform.c ****     \param[in]  none
 195:C:/Users/stapi/OneDrive/Desktop/GD32VW553/V1_MQTT_OK/GD32VW55X_Wifi_BLE_SDK/GD32VW55x_RELEASE_V1.0.2/MSDK/plf/src\gd32vw55x_platform.c ****     \param[out] none
 196:C:/Users/stapi/OneDrive/Desktop/GD32VW553/V1_MQTT_OK/GD32VW55X_Wifi_BLE_SDK/GD32VW55x_RELEASE_V1.0.2/MSDK/plf/src\gd32vw55x_platform.c ****     \retval     none
 197:C:/Users/stapi/OneDrive/Desktop/GD32VW553/V1_MQTT_OK/GD32VW55X_Wifi_BLE_SDK/GD32VW55x_RELEASE_V1.0.2/MSDK/plf/src\gd32vw55x_platform.c **** */
 198:C:/Users/stapi/OneDrive/Desktop/GD32VW553/V1_MQTT_OK/GD32VW55X_Wifi_BLE_SDK/GD32VW55x_RELEASE_V1.0.2/MSDK/plf/src\gd32vw55x_platform.c **** void deep_sleep_exit(void)
 199:C:/Users/stapi/OneDrive/Desktop/GD32VW553/V1_MQTT_OK/GD32VW55X_Wifi_BLE_SDK/GD32VW55x_RELEASE_V1.0.2/MSDK/plf/src\gd32vw55x_platform.c **** {
 200:C:/Users/stapi/OneDrive/Desktop/GD32VW553/V1_MQTT_OK/GD32VW55X_Wifi_BLE_SDK/GD32VW55x_RELEASE_V1.0.2/MSDK/plf/src\gd32vw55x_platform.c ****     GLOBAL_INT_STOP();
 201:C:/Users/stapi/OneDrive/Desktop/GD32VW553/V1_MQTT_OK/GD32VW55X_Wifi_BLE_SDK/GD32VW55x_RELEASE_V1.0.2/MSDK/plf/src\gd32vw55x_platform.c ****     if (rcu_system_clock_source_get() != RCU_SCSS_PLLDIG)
 202:C:/Users/stapi/OneDrive/Desktop/GD32VW553/V1_MQTT_OK/GD32VW55X_Wifi_BLE_SDK/GD32VW55x_RELEASE_V1.0.2/MSDK/plf/src\gd32vw55x_platform.c ****         system_clock_config();
 203:C:/Users/stapi/OneDrive/Desktop/GD32VW553/V1_MQTT_OK/GD32VW55X_Wifi_BLE_SDK/GD32VW55x_RELEASE_V1.0.2/MSDK/plf/src\gd32vw55x_platform.c ****     GLOBAL_INT_START();
 204:C:/Users/stapi/OneDrive/Desktop/GD32VW553/V1_MQTT_OK/GD32VW55X_Wifi_BLE_SDK/GD32VW55x_RELEASE_V1.0.2/MSDK/plf/src\gd32vw55x_platform.c **** 
 205:C:/Users/stapi/OneDrive/Desktop/GD32VW553/V1_MQTT_OK/GD32VW55X_Wifi_BLE_SDK/GD32VW55x_RELEASE_V1.0.2/MSDK/plf/src\gd32vw55x_platform.c ****     exti_line_clear(LOG_USART_RX_PIN_EXTI_LINE);
 206:C:/Users/stapi/OneDrive/Desktop/GD32VW553/V1_MQTT_OK/GD32VW55X_Wifi_BLE_SDK/GD32VW55x_RELEASE_V1.0.2/MSDK/plf/src\gd32vw55x_platform.c ****     // Wifi module clear exit by self
 207:C:/Users/stapi/OneDrive/Desktop/GD32VW553/V1_MQTT_OK/GD32VW55X_Wifi_BLE_SDK/GD32VW55x_RELEASE_V1.0.2/MSDK/plf/src\gd32vw55x_platform.c ****     // exti_line_clear(WLAN_WAKEUP_EXTI_LINE);
 208:C:/Users/stapi/OneDrive/Desktop/GD32VW553/V1_MQTT_OK/GD32VW55X_Wifi_BLE_SDK/GD32VW55x_RELEASE_V1.0.2/MSDK/plf/src\gd32vw55x_platform.c ****     exti_line_clear(RTC_WAKEUP_EXTI_LINE);
 209:C:/Users/stapi/OneDrive/Desktop/GD32VW553/V1_MQTT_OK/GD32VW55X_Wifi_BLE_SDK/GD32VW55x_RELEASE_V1.0.2/MSDK/plf/src\gd32vw55x_platform.c **** 
 210:C:/Users/stapi/OneDrive/Desktop/GD32VW553/V1_MQTT_OK/GD32VW55X_Wifi_BLE_SDK/GD32VW55x_RELEASE_V1.0.2/MSDK/plf/src\gd32vw55x_platform.c ****     hw_crypto_engine_enable();
 211:C:/Users/stapi/OneDrive/Desktop/GD32VW553/V1_MQTT_OK/GD32VW55X_Wifi_BLE_SDK/GD32VW55x_RELEASE_V1.0.2/MSDK/plf/src\gd32vw55x_platform.c **** 
 212:C:/Users/stapi/OneDrive/Desktop/GD32VW553/V1_MQTT_OK/GD32VW55X_Wifi_BLE_SDK/GD32VW55x_RELEASE_V1.0.2/MSDK/plf/src\gd32vw55x_platform.c ****     if(RESET != rtc_flag_get(RTC_STAT_WTF)) {
 213:C:/Users/stapi/OneDrive/Desktop/GD32VW553/V1_MQTT_OK/GD32VW55X_Wifi_BLE_SDK/GD32VW55x_RELEASE_V1.0.2/MSDK/plf/src\gd32vw55x_platform.c ****         rtc_flag_clear(RTC_STAT_WTF);
 214:C:/Users/stapi/OneDrive/Desktop/GD32VW553/V1_MQTT_OK/GD32VW55X_Wifi_BLE_SDK/GD32VW55x_RELEASE_V1.0.2/MSDK/plf/src\gd32vw55x_platform.c ****     }
 215:C:/Users/stapi/OneDrive/Desktop/GD32VW553/V1_MQTT_OK/GD32VW55X_Wifi_BLE_SDK/GD32VW55x_RELEASE_V1.0.2/MSDK/plf/src\gd32vw55x_platform.c **** }
 216:C:/Users/stapi/OneDrive/Desktop/GD32VW553/V1_MQTT_OK/GD32VW55X_Wifi_BLE_SDK/GD32VW55x_RELEASE_V1.0.2/MSDK/plf/src\gd32vw55x_platform.c **** 
 217:C:/Users/stapi/OneDrive/Desktop/GD32VW553/V1_MQTT_OK/GD32VW55X_Wifi_BLE_SDK/GD32VW55x_RELEASE_V1.0.2/MSDK/plf/src\gd32vw55x_platform.c **** /*!
 218:C:/Users/stapi/OneDrive/Desktop/GD32VW553/V1_MQTT_OK/GD32VW55X_Wifi_BLE_SDK/GD32VW55x_RELEASE_V1.0.2/MSDK/plf/src\gd32vw55x_platform.c ****     \brief      enter deep sleep mode
 219:C:/Users/stapi/OneDrive/Desktop/GD32VW553/V1_MQTT_OK/GD32VW55X_Wifi_BLE_SDK/GD32VW55x_RELEASE_V1.0.2/MSDK/plf/src\gd32vw55x_platform.c ****     \param[in]  none
 220:C:/Users/stapi/OneDrive/Desktop/GD32VW553/V1_MQTT_OK/GD32VW55X_Wifi_BLE_SDK/GD32VW55x_RELEASE_V1.0.2/MSDK/plf/src\gd32vw55x_platform.c ****     \param[out] none
 221:C:/Users/stapi/OneDrive/Desktop/GD32VW553/V1_MQTT_OK/GD32VW55X_Wifi_BLE_SDK/GD32VW55x_RELEASE_V1.0.2/MSDK/plf/src\gd32vw55x_platform.c ****     \retval     none
 222:C:/Users/stapi/OneDrive/Desktop/GD32VW553/V1_MQTT_OK/GD32VW55X_Wifi_BLE_SDK/GD32VW55x_RELEASE_V1.0.2/MSDK/plf/src\gd32vw55x_platform.c **** */
 223:C:/Users/stapi/OneDrive/Desktop/GD32VW553/V1_MQTT_OK/GD32VW55X_Wifi_BLE_SDK/GD32VW55x_RELEASE_V1.0.2/MSDK/plf/src\gd32vw55x_platform.c **** void wlan_exti_enter()
 224:C:/Users/stapi/OneDrive/Desktop/GD32VW553/V1_MQTT_OK/GD32VW55X_Wifi_BLE_SDK/GD32VW55x_RELEASE_V1.0.2/MSDK/plf/src\gd32vw55x_platform.c **** {
 225:C:/Users/stapi/OneDrive/Desktop/GD32VW553/V1_MQTT_OK/GD32VW55X_Wifi_BLE_SDK/GD32VW55x_RELEASE_V1.0.2/MSDK/plf/src\gd32vw55x_platform.c **** #ifdef CFG_LPS
 226:C:/Users/stapi/OneDrive/Desktop/GD32VW553/V1_MQTT_OK/GD32VW55X_Wifi_BLE_SDK/GD32VW55x_RELEASE_V1.0.2/MSDK/plf/src\gd32vw55x_platform.c ****     exti_init(WLAN_WAKEUP_EXTI_LINE, EXTI_INTERRUPT, EXTI_TRIG_RISING);
 227:C:/Users/stapi/OneDrive/Desktop/GD32VW553/V1_MQTT_OK/GD32VW55X_Wifi_BLE_SDK/GD32VW55x_RELEASE_V1.0.2/MSDK/plf/src\gd32vw55x_platform.c **** #endif
 228:C:/Users/stapi/OneDrive/Desktop/GD32VW553/V1_MQTT_OK/GD32VW55X_Wifi_BLE_SDK/GD32VW55x_RELEASE_V1.0.2/MSDK/plf/src\gd32vw55x_platform.c **** }
 229:C:/Users/stapi/OneDrive/Desktop/GD32VW553/V1_MQTT_OK/GD32VW55X_Wifi_BLE_SDK/GD32VW55x_RELEASE_V1.0.2/MSDK/plf/src\gd32vw55x_platform.c **** 
 230:C:/Users/stapi/OneDrive/Desktop/GD32VW553/V1_MQTT_OK/GD32VW55X_Wifi_BLE_SDK/GD32VW55x_RELEASE_V1.0.2/MSDK/plf/src\gd32vw55x_platform.c **** /*!
 231:C:/Users/stapi/OneDrive/Desktop/GD32VW553/V1_MQTT_OK/GD32VW55X_Wifi_BLE_SDK/GD32VW55x_RELEASE_V1.0.2/MSDK/plf/src\gd32vw55x_platform.c ****     \brief      exit deep sleep mode
 232:C:/Users/stapi/OneDrive/Desktop/GD32VW553/V1_MQTT_OK/GD32VW55X_Wifi_BLE_SDK/GD32VW55x_RELEASE_V1.0.2/MSDK/plf/src\gd32vw55x_platform.c ****     \param[in]  none
 233:C:/Users/stapi/OneDrive/Desktop/GD32VW553/V1_MQTT_OK/GD32VW55X_Wifi_BLE_SDK/GD32VW55x_RELEASE_V1.0.2/MSDK/plf/src\gd32vw55x_platform.c ****     \param[out] none
 234:C:/Users/stapi/OneDrive/Desktop/GD32VW553/V1_MQTT_OK/GD32VW55X_Wifi_BLE_SDK/GD32VW55x_RELEASE_V1.0.2/MSDK/plf/src\gd32vw55x_platform.c ****     \retval     none
 235:C:/Users/stapi/OneDrive/Desktop/GD32VW553/V1_MQTT_OK/GD32VW55X_Wifi_BLE_SDK/GD32VW55x_RELEASE_V1.0.2/MSDK/plf/src\gd32vw55x_platform.c **** */
 236:C:/Users/stapi/OneDrive/Desktop/GD32VW553/V1_MQTT_OK/GD32VW55X_Wifi_BLE_SDK/GD32VW55x_RELEASE_V1.0.2/MSDK/plf/src\gd32vw55x_platform.c **** void wlan_exti_exit(void)
 237:C:/Users/stapi/OneDrive/Desktop/GD32VW553/V1_MQTT_OK/GD32VW55X_Wifi_BLE_SDK/GD32VW55x_RELEASE_V1.0.2/MSDK/plf/src\gd32vw55x_platform.c **** {
 238:C:/Users/stapi/OneDrive/Desktop/GD32VW553/V1_MQTT_OK/GD32VW55X_Wifi_BLE_SDK/GD32VW55x_RELEASE_V1.0.2/MSDK/plf/src\gd32vw55x_platform.c **** #ifdef CFG_LPS
 239:C:/Users/stapi/OneDrive/Desktop/GD32VW553/V1_MQTT_OK/GD32VW55X_Wifi_BLE_SDK/GD32VW55x_RELEASE_V1.0.2/MSDK/plf/src\gd32vw55x_platform.c ****     exti_line_clear(WLAN_WAKEUP_EXTI_LINE);
 240:C:/Users/stapi/OneDrive/Desktop/GD32VW553/V1_MQTT_OK/GD32VW55X_Wifi_BLE_SDK/GD32VW55x_RELEASE_V1.0.2/MSDK/plf/src\gd32vw55x_platform.c **** #endif
 241:C:/Users/stapi/OneDrive/Desktop/GD32VW553/V1_MQTT_OK/GD32VW55X_Wifi_BLE_SDK/GD32VW55x_RELEASE_V1.0.2/MSDK/plf/src\gd32vw55x_platform.c **** }
 242:C:/Users/stapi/OneDrive/Desktop/GD32VW553/V1_MQTT_OK/GD32VW55X_Wifi_BLE_SDK/GD32VW55x_RELEASE_V1.0.2/MSDK/plf/src\gd32vw55x_platform.c **** 
 243:C:/Users/stapi/OneDrive/Desktop/GD32VW553/V1_MQTT_OK/GD32VW55X_Wifi_BLE_SDK/GD32VW55x_RELEASE_V1.0.2/MSDK/plf/src\gd32vw55x_platform.c **** /*!
 244:C:/Users/stapi/OneDrive/Desktop/GD32VW553/V1_MQTT_OK/GD32VW55X_Wifi_BLE_SDK/GD32VW55x_RELEASE_V1.0.2/MSDK/plf/src\gd32vw55x_platform.c ****     \brief      ble enter deep sleep mode
 245:C:/Users/stapi/OneDrive/Desktop/GD32VW553/V1_MQTT_OK/GD32VW55X_Wifi_BLE_SDK/GD32VW55x_RELEASE_V1.0.2/MSDK/plf/src\gd32vw55x_platform.c **** */
 246:C:/Users/stapi/OneDrive/Desktop/GD32VW553/V1_MQTT_OK/GD32VW55X_Wifi_BLE_SDK/GD32VW55x_RELEASE_V1.0.2/MSDK/plf/src\gd32vw55x_platform.c **** void ble_exti_enter(void)
 247:C:/Users/stapi/OneDrive/Desktop/GD32VW553/V1_MQTT_OK/GD32VW55X_Wifi_BLE_SDK/GD32VW55x_RELEASE_V1.0.2/MSDK/plf/src\gd32vw55x_platform.c **** {
 248:C:/Users/stapi/OneDrive/Desktop/GD32VW553/V1_MQTT_OK/GD32VW55X_Wifi_BLE_SDK/GD32VW55x_RELEASE_V1.0.2/MSDK/plf/src\gd32vw55x_platform.c ****     exti_init(BLE_WAKEUP_EXTI_LINE, EXTI_INTERRUPT, EXTI_TRIG_RISING);
 249:C:/Users/stapi/OneDrive/Desktop/GD32VW553/V1_MQTT_OK/GD32VW55X_Wifi_BLE_SDK/GD32VW55x_RELEASE_V1.0.2/MSDK/plf/src\gd32vw55x_platform.c **** }
 250:C:/Users/stapi/OneDrive/Desktop/GD32VW553/V1_MQTT_OK/GD32VW55X_Wifi_BLE_SDK/GD32VW55x_RELEASE_V1.0.2/MSDK/plf/src\gd32vw55x_platform.c **** 
 251:C:/Users/stapi/OneDrive/Desktop/GD32VW553/V1_MQTT_OK/GD32VW55X_Wifi_BLE_SDK/GD32VW55x_RELEASE_V1.0.2/MSDK/plf/src\gd32vw55x_platform.c **** /*!
 252:C:/Users/stapi/OneDrive/Desktop/GD32VW553/V1_MQTT_OK/GD32VW55X_Wifi_BLE_SDK/GD32VW55x_RELEASE_V1.0.2/MSDK/plf/src\gd32vw55x_platform.c ****     \brief      ble exit deep sleep mode
 253:C:/Users/stapi/OneDrive/Desktop/GD32VW553/V1_MQTT_OK/GD32VW55X_Wifi_BLE_SDK/GD32VW55x_RELEASE_V1.0.2/MSDK/plf/src\gd32vw55x_platform.c **** */
 254:C:/Users/stapi/OneDrive/Desktop/GD32VW553/V1_MQTT_OK/GD32VW55X_Wifi_BLE_SDK/GD32VW55x_RELEASE_V1.0.2/MSDK/plf/src\gd32vw55x_platform.c **** void ble_exti_exit(void)
 255:C:/Users/stapi/OneDrive/Desktop/GD32VW553/V1_MQTT_OK/GD32VW55X_Wifi_BLE_SDK/GD32VW55x_RELEASE_V1.0.2/MSDK/plf/src\gd32vw55x_platform.c **** {
 256:C:/Users/stapi/OneDrive/Desktop/GD32VW553/V1_MQTT_OK/GD32VW55X_Wifi_BLE_SDK/GD32VW55x_RELEASE_V1.0.2/MSDK/plf/src\gd32vw55x_platform.c ****     exti_line_clear(BLE_WAKEUP_EXTI_LINE);
 257:C:/Users/stapi/OneDrive/Desktop/GD32VW553/V1_MQTT_OK/GD32VW55X_Wifi_BLE_SDK/GD32VW55x_RELEASE_V1.0.2/MSDK/plf/src\gd32vw55x_platform.c **** }
 258:C:/Users/stapi/OneDrive/Desktop/GD32VW553/V1_MQTT_OK/GD32VW55X_Wifi_BLE_SDK/GD32VW55x_RELEASE_V1.0.2/MSDK/plf/src\gd32vw55x_platform.c **** 
 259:C:/Users/stapi/OneDrive/Desktop/GD32VW553/V1_MQTT_OK/GD32VW55X_Wifi_BLE_SDK/GD32VW55x_RELEASE_V1.0.2/MSDK/plf/src\gd32vw55x_platform.c **** void ble_pmu_config(uint32_t enable)
  54              		.loc 1 259 6 is_stmt 1
  55              		.cfi_startproc
  56 0000 17030000 		call	t0,__riscv_save_1
  56      E7020300 
  57              		.cfi_offset 8, -8
  58              		.cfi_offset 1, -4
  59              		.cfi_def_cfa_offset 16
  60              	.LVL4:
 260:C:/Users/stapi/OneDrive/Desktop/GD32VW553/V1_MQTT_OK/GD32VW55X_Wifi_BLE_SDK/GD32VW55x_RELEASE_V1.0.2/MSDK/plf/src\gd32vw55x_platform.c **** {
 261:C:/Users/stapi/OneDrive/Desktop/GD32VW553/V1_MQTT_OK/GD32VW55X_Wifi_BLE_SDK/GD32VW55x_RELEASE_V1.0.2/MSDK/plf/src\gd32vw55x_platform.c ****     if (enable) {
 262:C:/Users/stapi/OneDrive/Desktop/GD32VW553/V1_MQTT_OK/GD32VW55X_Wifi_BLE_SDK/GD32VW55x_RELEASE_V1.0.2/MSDK/plf/src\gd32vw55x_platform.c ****         /* if ble is sleep, config power on */
 263:C:/Users/stapi/OneDrive/Desktop/GD32VW553/V1_MQTT_OK/GD32VW55X_Wifi_BLE_SDK/GD32VW55x_RELEASE_V1.0.2/MSDK/plf/src\gd32vw55x_platform.c ****         if (pmu_flag_get(PMU_FLAG_BLE_SLEEP) == SET)
  61              		.loc 1 263 9
  62              		.loc 1 263 13 is_stmt 0
  63 0008 37050180 		li	a0,-2147418112
  64 000c 97000000 		call	pmu_flag_get
  64      E7800000 
  65              	.LVL5:
  66              		.loc 1 263 12
  67 0014 8547     		li	a5,1
  68 0016 6318F500 		bne	a0,a5,.L5
 264:C:/Users/stapi/OneDrive/Desktop/GD32VW553/V1_MQTT_OK/GD32VW55X_Wifi_BLE_SDK/GD32VW55x_RELEASE_V1.0.2/MSDK/plf/src\gd32vw55x_platform.c ****             pmu_ble_control(PMU_BLE_WAKE);
  69              		.loc 1 264 13 is_stmt 1
  70 001a 37050001 		li	a0,16777216
  71 001e 97000000 		call	pmu_ble_control
  71      E7800000 
  72              	.LVL6:
  73              	.L5:
 265:C:/Users/stapi/OneDrive/Desktop/GD32VW553/V1_MQTT_OK/GD32VW55X_Wifi_BLE_SDK/GD32VW55x_RELEASE_V1.0.2/MSDK/plf/src\gd32vw55x_platform.c ****         /* wait active */
 266:C:/Users/stapi/OneDrive/Desktop/GD32VW553/V1_MQTT_OK/GD32VW55X_Wifi_BLE_SDK/GD32VW55x_RELEASE_V1.0.2/MSDK/plf/src\gd32vw55x_platform.c ****         while (pmu_flag_get(PMU_FLAG_BLE_ACTIVE) != SET);
  74              		.loc 1 266 15 is_stmt 0
  75 0026 0544     		li	s0,1
  76              	.L6:
  77              		.loc 1 266 57 is_stmt 1
  78              		.loc 1 266 15
  79              		.loc 1 266 16 is_stmt 0
  80 0028 37050280 		li	a0,-2147352576
  81 002c 97000000 		call	pmu_flag_get
  81      E7800000 
  82              	.LVL7:
  83              		.loc 1 266 15
  84 0034 E31A85FE 		bne	a0,s0,.L6
 267:C:/Users/stapi/OneDrive/Desktop/GD32VW553/V1_MQTT_OK/GD32VW55X_Wifi_BLE_SDK/GD32VW55x_RELEASE_V1.0.2/MSDK/plf/src\gd32vw55x_platform.c ****     } else {
 268:C:/Users/stapi/OneDrive/Desktop/GD32VW553/V1_MQTT_OK/GD32VW55X_Wifi_BLE_SDK/GD32VW55x_RELEASE_V1.0.2/MSDK/plf/src\gd32vw55x_platform.c ****         /* if ble is active, config power off */
 269:C:/Users/stapi/OneDrive/Desktop/GD32VW553/V1_MQTT_OK/GD32VW55X_Wifi_BLE_SDK/GD32VW55x_RELEASE_V1.0.2/MSDK/plf/src\gd32vw55x_platform.c ****         if (pmu_flag_get(PMU_FLAG_BLE_ACTIVE) == SET)
 270:C:/Users/stapi/OneDrive/Desktop/GD32VW553/V1_MQTT_OK/GD32VW55X_Wifi_BLE_SDK/GD32VW55x_RELEASE_V1.0.2/MSDK/plf/src\gd32vw55x_platform.c ****             pmu_ble_control(PMU_BLE_SLEEP);
 271:C:/Users/stapi/OneDrive/Desktop/GD32VW553/V1_MQTT_OK/GD32VW55X_Wifi_BLE_SDK/GD32VW55x_RELEASE_V1.0.2/MSDK/plf/src\gd32vw55x_platform.c ****         /* wait sleep */
 272:C:/Users/stapi/OneDrive/Desktop/GD32VW553/V1_MQTT_OK/GD32VW55X_Wifi_BLE_SDK/GD32VW55x_RELEASE_V1.0.2/MSDK/plf/src\gd32vw55x_platform.c ****         while (pmu_flag_get(PMU_FLAG_BLE_SLEEP) != SET);
 273:C:/Users/stapi/OneDrive/Desktop/GD32VW553/V1_MQTT_OK/GD32VW55X_Wifi_BLE_SDK/GD32VW55x_RELEASE_V1.0.2/MSDK/plf/src\gd32vw55x_platform.c ****     }
 274:C:/Users/stapi/OneDrive/Desktop/GD32VW553/V1_MQTT_OK/GD32VW55X_Wifi_BLE_SDK/GD32VW55x_RELEASE_V1.0.2/MSDK/plf/src\gd32vw55x_platform.c **** }
  85              		.loc 1 274 1
  86 0038 17030000 		tail	__riscv_restore_1
  86      67000300 
  87              		.cfi_restore 8
  88              		.cfi_restore 1
  89              		.cfi_def_cfa_offset 0
  90              		.cfi_endproc
  91              	.LFE427:
  93              		.section	.text.wifi_lpds_preconfig,"ax",@progbits
  94              		.align	1
  95              		.globl	wifi_lpds_preconfig
  97              	wifi_lpds_preconfig:
  98              	.LFB375:
  89:C:/Users/stapi/OneDrive/Desktop/GD32VW553/V1_MQTT_OK/GD32VW55X_Wifi_BLE_SDK/GD32VW55x_RELEASE_V1.0.2/MSDK/plf/src\gd32vw55x_platform.c ****     /* set HXTAL settle time */
  99              		.loc 1 89 1 is_stmt 1
 100              		.cfi_startproc
 101              	.LVL8:
  91:C:/Users/stapi/OneDrive/Desktop/GD32VW553/V1_MQTT_OK/GD32VW55X_Wifi_BLE_SDK/GD32VW55x_RELEASE_V1.0.2/MSDK/plf/src\gd32vw55x_platform.c ****     PMU_RFPAR  |= (settle_time & PMU_RFPAR_TIM1_PAR);
 102              		.loc 1 91 5
  91:C:/Users/stapi/OneDrive/Desktop/GD32VW553/V1_MQTT_OK/GD32VW55X_Wifi_BLE_SDK/GD32VW55x_RELEASE_V1.0.2/MSDK/plf/src\gd32vw55x_platform.c ****     PMU_RFPAR  |= (settle_time & PMU_RFPAR_TIM1_PAR);
 103              		.loc 1 91 16 is_stmt 0
 104 0000 B7770040 		li	a5,1073770496
 105 0004 D853     		lw	a4,36(a5)
  92:C:/Users/stapi/OneDrive/Desktop/GD32VW553/V1_MQTT_OK/GD32VW55X_Wifi_BLE_SDK/GD32VW55x_RELEASE_V1.0.2/MSDK/plf/src\gd32vw55x_platform.c **** }
 106              		.loc 1 92 32
 107 0006 1375F507 		andi	a0,a0,127
 108              	.LVL9:
  91:C:/Users/stapi/OneDrive/Desktop/GD32VW553/V1_MQTT_OK/GD32VW55X_Wifi_BLE_SDK/GD32VW55x_RELEASE_V1.0.2/MSDK/plf/src\gd32vw55x_platform.c ****     PMU_RFPAR  |= (settle_time & PMU_RFPAR_TIM1_PAR);
 109              		.loc 1 91 16
 110 000a 137707F8 		andi	a4,a4,-128
 111 000e D8D3     		sw	a4,36(a5)
  92:C:/Users/stapi/OneDrive/Desktop/GD32VW553/V1_MQTT_OK/GD32VW55X_Wifi_BLE_SDK/GD32VW55x_RELEASE_V1.0.2/MSDK/plf/src\gd32vw55x_platform.c **** }
 112              		.loc 1 92 5 is_stmt 1
  92:C:/Users/stapi/OneDrive/Desktop/GD32VW553/V1_MQTT_OK/GD32VW55X_Wifi_BLE_SDK/GD32VW55x_RELEASE_V1.0.2/MSDK/plf/src\gd32vw55x_platform.c **** }
 113              		.loc 1 92 16 is_stmt 0
 114 0010 D853     		lw	a4,36(a5)
 115 0012 598D     		or	a0,a0,a4
 116 0014 C8D3     		sw	a0,36(a5)
  93:C:/Users/stapi/OneDrive/Desktop/GD32VW553/V1_MQTT_OK/GD32VW55X_Wifi_BLE_SDK/GD32VW55x_RELEASE_V1.0.2/MSDK/plf/src\gd32vw55x_platform.c **** 
 117              		.loc 1 93 1
 118 0016 8280     		ret
 119              		.cfi_endproc
 120              	.LFE375:
 122              		.section	.text.wifi_lpds_enter,"ax",@progbits
 123              		.align	1
 124              		.globl	wifi_lpds_enter
 126              	wifi_lpds_enter:
 127              	.LFB376:
  96:C:/Users/stapi/OneDrive/Desktop/GD32VW553/V1_MQTT_OK/GD32VW55X_Wifi_BLE_SDK/GD32VW55x_RELEASE_V1.0.2/MSDK/plf/src\gd32vw55x_platform.c ****     PMU_CTL1 |= PMU_CTL1_WIFI_LPDS_ON;
 128              		.loc 1 96 1 is_stmt 1
 129              		.cfi_startproc
  97:C:/Users/stapi/OneDrive/Desktop/GD32VW553/V1_MQTT_OK/GD32VW55X_Wifi_BLE_SDK/GD32VW55x_RELEASE_V1.0.2/MSDK/plf/src\gd32vw55x_platform.c **** }
 130              		.loc 1 97 5
  97:C:/Users/stapi/OneDrive/Desktop/GD32VW553/V1_MQTT_OK/GD32VW55X_Wifi_BLE_SDK/GD32VW55x_RELEASE_V1.0.2/MSDK/plf/src\gd32vw55x_platform.c **** }
 131              		.loc 1 97 14 is_stmt 0
 132 0000 37770040 		li	a4,1073770496
 133 0004 1C47     		lw	a5,8(a4)
 134 0006 93971729 		bseti	a5,a5,17
 135 000a 1CC7     		sw	a5,8(a4)
  98:C:/Users/stapi/OneDrive/Desktop/GD32VW553/V1_MQTT_OK/GD32VW55X_Wifi_BLE_SDK/GD32VW55x_RELEASE_V1.0.2/MSDK/plf/src\gd32vw55x_platform.c **** 
 136              		.loc 1 98 1
 137 000c 8280     		ret
 138              		.cfi_endproc
 139              	.LFE376:
 141              		.section	.text.wifi_lpds_exit,"ax",@progbits
 142              		.align	1
 143              		.globl	wifi_lpds_exit
 145              	wifi_lpds_exit:
 146              	.LFB377:
 101:C:/Users/stapi/OneDrive/Desktop/GD32VW553/V1_MQTT_OK/GD32VW55X_Wifi_BLE_SDK/GD32VW55x_RELEASE_V1.0.2/MSDK/plf/src\gd32vw55x_platform.c ****     PMU_CTL1 &= (~PMU_CTL1_WIFI_LPDS_ON);
 147              		.loc 1 101 1 is_stmt 1
 148              		.cfi_startproc
 102:C:/Users/stapi/OneDrive/Desktop/GD32VW553/V1_MQTT_OK/GD32VW55X_Wifi_BLE_SDK/GD32VW55x_RELEASE_V1.0.2/MSDK/plf/src\gd32vw55x_platform.c ****     while (((PMU_RFCTL & PMU_RFCTL_RF_STATE) >> 16) != 0x08);
 149              		.loc 1 102 5
 102:C:/Users/stapi/OneDrive/Desktop/GD32VW553/V1_MQTT_OK/GD32VW55X_Wifi_BLE_SDK/GD32VW55x_RELEASE_V1.0.2/MSDK/plf/src\gd32vw55x_platform.c ****     while (((PMU_RFCTL & PMU_RFCTL_RF_STATE) >> 16) != 0x08);
 150              		.loc 1 102 14 is_stmt 0
 151 0000 37770040 		li	a4,1073770496
 152 0004 1C47     		lw	a5,8(a4)
 103:C:/Users/stapi/OneDrive/Desktop/GD32VW553/V1_MQTT_OK/GD32VW55X_Wifi_BLE_SDK/GD32VW55x_RELEASE_V1.0.2/MSDK/plf/src\gd32vw55x_platform.c ****     // wait wifi pmu active
 153              		.loc 1 103 14
 154 0006 B7760040 		li	a3,1073770496
 102:C:/Users/stapi/OneDrive/Desktop/GD32VW553/V1_MQTT_OK/GD32VW55X_Wifi_BLE_SDK/GD32VW55x_RELEASE_V1.0.2/MSDK/plf/src\gd32vw55x_platform.c ****     while (((PMU_RFCTL & PMU_RFCTL_RF_STATE) >> 16) != 0x08);
 155              		.loc 1 102 14
 156 000a 93971749 		bclri	a5,a5,17
 157 000e 1CC7     		sw	a5,8(a4)
 103:C:/Users/stapi/OneDrive/Desktop/GD32VW553/V1_MQTT_OK/GD32VW55X_Wifi_BLE_SDK/GD32VW55x_RELEASE_V1.0.2/MSDK/plf/src\gd32vw55x_platform.c ****     // wait wifi pmu active
 158              		.loc 1 103 5 is_stmt 1
 103:C:/Users/stapi/OneDrive/Desktop/GD32VW553/V1_MQTT_OK/GD32VW55X_Wifi_BLE_SDK/GD32VW55x_RELEASE_V1.0.2/MSDK/plf/src\gd32vw55x_platform.c ****     // wait wifi pmu active
 159              		.loc 1 103 11 is_stmt 0
 160 0010 2147     		li	a4,8
 161              	.L12:
 103:C:/Users/stapi/OneDrive/Desktop/GD32VW553/V1_MQTT_OK/GD32VW55X_Wifi_BLE_SDK/GD32VW55x_RELEASE_V1.0.2/MSDK/plf/src\gd32vw55x_platform.c ****     // wait wifi pmu active
 162              		.loc 1 103 61 is_stmt 1 discriminator 1
 103:C:/Users/stapi/OneDrive/Desktop/GD32VW553/V1_MQTT_OK/GD32VW55X_Wifi_BLE_SDK/GD32VW55x_RELEASE_V1.0.2/MSDK/plf/src\gd32vw55x_platform.c ****     // wait wifi pmu active
 163              		.loc 1 103 11 discriminator 1
 103:C:/Users/stapi/OneDrive/Desktop/GD32VW553/V1_MQTT_OK/GD32VW55X_Wifi_BLE_SDK/GD32VW55x_RELEASE_V1.0.2/MSDK/plf/src\gd32vw55x_platform.c ****     // wait wifi pmu active
 164              		.loc 1 103 14 is_stmt 0 discriminator 1
 165 0012 9C52     		lw	a5,32(a3)
 103:C:/Users/stapi/OneDrive/Desktop/GD32VW553/V1_MQTT_OK/GD32VW55X_Wifi_BLE_SDK/GD32VW55x_RELEASE_V1.0.2/MSDK/plf/src\gd32vw55x_platform.c ****     // wait wifi pmu active
 166              		.loc 1 103 46 discriminator 1
 167 0014 C183     		srli	a5,a5,16
 168 0016 BD8B     		andi	a5,a5,15
 103:C:/Users/stapi/OneDrive/Desktop/GD32VW553/V1_MQTT_OK/GD32VW55X_Wifi_BLE_SDK/GD32VW55x_RELEASE_V1.0.2/MSDK/plf/src\gd32vw55x_platform.c ****     // wait wifi pmu active
 169              		.loc 1 103 11 discriminator 1
 170 0018 E39DE7FE 		bne	a5,a4,.L12
 105:C:/Users/stapi/OneDrive/Desktop/GD32VW553/V1_MQTT_OK/GD32VW55X_Wifi_BLE_SDK/GD32VW55x_RELEASE_V1.0.2/MSDK/plf/src\gd32vw55x_platform.c ****     // wait wifi module pmc idle
 171              		.loc 1 105 13
 172 001c 37770040 		li	a4,1073770496
 173              	.L13:
 105:C:/Users/stapi/OneDrive/Desktop/GD32VW553/V1_MQTT_OK/GD32VW55X_Wifi_BLE_SDK/GD32VW55x_RELEASE_V1.0.2/MSDK/plf/src\gd32vw55x_platform.c ****     // wait wifi module pmc idle
 174              		.loc 1 105 65 is_stmt 1 discriminator 1
 105:C:/Users/stapi/OneDrive/Desktop/GD32VW553/V1_MQTT_OK/GD32VW55X_Wifi_BLE_SDK/GD32VW55x_RELEASE_V1.0.2/MSDK/plf/src\gd32vw55x_platform.c ****     // wait wifi module pmc idle
 175              		.loc 1 105 11 discriminator 1
 105:C:/Users/stapi/OneDrive/Desktop/GD32VW553/V1_MQTT_OK/GD32VW55X_Wifi_BLE_SDK/GD32VW55x_RELEASE_V1.0.2/MSDK/plf/src\gd32vw55x_platform.c ****     // wait wifi module pmc idle
 176              		.loc 1 105 13 is_stmt 0 discriminator 1
 177 0020 5C47     		lw	a5,12(a4)
 105:C:/Users/stapi/OneDrive/Desktop/GD32VW553/V1_MQTT_OK/GD32VW55X_Wifi_BLE_SDK/GD32VW55x_RELEASE_V1.0.2/MSDK/plf/src\gd32vw55x_platform.c ****     // wait wifi module pmc idle
 178              		.loc 1 105 21 discriminator 1
 179 0022 A18B     		andi	a5,a5,8
 105:C:/Users/stapi/OneDrive/Desktop/GD32VW553/V1_MQTT_OK/GD32VW55X_Wifi_BLE_SDK/GD32VW55x_RELEASE_V1.0.2/MSDK/plf/src\gd32vw55x_platform.c ****     // wait wifi module pmc idle
 180              		.loc 1 105 11 discriminator 1
 181 0024 F5DF     		beq	a5,zero,.L13
 107:C:/Users/stapi/OneDrive/Desktop/GD32VW553/V1_MQTT_OK/GD32VW55X_Wifi_BLE_SDK/GD32VW55x_RELEASE_V1.0.2/MSDK/plf/src\gd32vw55x_platform.c **** }
 182              		.loc 1 107 14
 183 0026 37470240 		li	a4,1073889280
 184              	.L14:
 107:C:/Users/stapi/OneDrive/Desktop/GD32VW553/V1_MQTT_OK/GD32VW55X_Wifi_BLE_SDK/GD32VW55x_RELEASE_V1.0.2/MSDK/plf/src\gd32vw55x_platform.c **** }
 185              		.loc 1 107 43 is_stmt 1 discriminator 1
 107:C:/Users/stapi/OneDrive/Desktop/GD32VW553/V1_MQTT_OK/GD32VW55X_Wifi_BLE_SDK/GD32VW55x_RELEASE_V1.0.2/MSDK/plf/src\gd32vw55x_platform.c **** }
 186              		.loc 1 107 11 discriminator 1
 107:C:/Users/stapi/OneDrive/Desktop/GD32VW553/V1_MQTT_OK/GD32VW55X_Wifi_BLE_SDK/GD32VW55x_RELEASE_V1.0.2/MSDK/plf/src\gd32vw55x_platform.c **** }
 187              		.loc 1 107 14 is_stmt 0 discriminator 1
 188 002a 8327C792 		lw	a5,-1748(a4)
 107:C:/Users/stapi/OneDrive/Desktop/GD32VW553/V1_MQTT_OK/GD32VW55X_Wifi_BLE_SDK/GD32VW55x_RELEASE_V1.0.2/MSDK/plf/src\gd32vw55x_platform.c **** }
 189              		.loc 1 107 11 discriminator 1
 190 002e E3DE07FE 		bge	a5,zero,.L14
 108:C:/Users/stapi/OneDrive/Desktop/GD32VW553/V1_MQTT_OK/GD32VW55X_Wifi_BLE_SDK/GD32VW55x_RELEASE_V1.0.2/MSDK/plf/src\gd32vw55x_platform.c **** 
 191              		.loc 1 108 1
 192 0032 8280     		ret
 193              		.cfi_endproc
 194              	.LFE377:
 196              		.section	.text.wifi_is_not_idle,"ax",@progbits
 197              		.align	1
 198              		.globl	wifi_is_not_idle
 200              	wifi_is_not_idle:
 201              	.LFB378:
 111:C:/Users/stapi/OneDrive/Desktop/GD32VW553/V1_MQTT_OK/GD32VW55X_Wifi_BLE_SDK/GD32VW55x_RELEASE_V1.0.2/MSDK/plf/src\gd32vw55x_platform.c ****     return (REG32(0x4002392C) & BITS(28, 30)) != BITS(28, 30);
 202              		.loc 1 111 1 is_stmt 1
 203              		.cfi_startproc
 112:C:/Users/stapi/OneDrive/Desktop/GD32VW553/V1_MQTT_OK/GD32VW55X_Wifi_BLE_SDK/GD32VW55x_RELEASE_V1.0.2/MSDK/plf/src\gd32vw55x_platform.c **** }
 204              		.loc 1 112 5
 112:C:/Users/stapi/OneDrive/Desktop/GD32VW553/V1_MQTT_OK/GD32VW55X_Wifi_BLE_SDK/GD32VW55x_RELEASE_V1.0.2/MSDK/plf/src\gd32vw55x_platform.c **** }
 205              		.loc 1 112 13 is_stmt 0
 206 0000 B7470240 		li	a5,1073889280
 207 0004 03A5C792 		lw	a0,-1748(a5)
 112:C:/Users/stapi/OneDrive/Desktop/GD32VW553/V1_MQTT_OK/GD32VW55X_Wifi_BLE_SDK/GD32VW55x_RELEASE_V1.0.2/MSDK/plf/src\gd32vw55x_platform.c **** }
 208              		.loc 1 112 47
 209 0008 B7070070 		li	a5,1879048192
 210 000c 33F5A740 		andn	a0,a5,a0
 113:C:/Users/stapi/OneDrive/Desktop/GD32VW553/V1_MQTT_OK/GD32VW55X_Wifi_BLE_SDK/GD32VW55x_RELEASE_V1.0.2/MSDK/plf/src\gd32vw55x_platform.c **** 
 211              		.loc 1 113 1
 212 0010 3335A000 		snez	a0,a0
 213 0014 8280     		ret
 214              		.cfi_endproc
 215              	.LFE378:
 217              		.section	.text.wifi_hw_is_sleep,"ax",@progbits
 218              		.align	1
 219              		.globl	wifi_hw_is_sleep
 221              	wifi_hw_is_sleep:
 222              	.LFB379:
 116:C:/Users/stapi/OneDrive/Desktop/GD32VW553/V1_MQTT_OK/GD32VW55X_Wifi_BLE_SDK/GD32VW55x_RELEASE_V1.0.2/MSDK/plf/src\gd32vw55x_platform.c **** #ifdef CFG_WLAN_SUPPORT
 223              		.loc 1 116 1 is_stmt 1
 224              		.cfi_startproc
 118:C:/Users/stapi/OneDrive/Desktop/GD32VW553/V1_MQTT_OK/GD32VW55X_Wifi_BLE_SDK/GD32VW55x_RELEASE_V1.0.2/MSDK/plf/src\gd32vw55x_platform.c ****             && ((PMU_CS1 & PMU_CS1_WPS_SLEEP) == PMU_CS1_WPS_SLEEP) // wifi module is sleep
 225              		.loc 1 118 5
 118:C:/Users/stapi/OneDrive/Desktop/GD32VW553/V1_MQTT_OK/GD32VW55X_Wifi_BLE_SDK/GD32VW55x_RELEASE_V1.0.2/MSDK/plf/src\gd32vw55x_platform.c ****             && ((PMU_CS1 & PMU_CS1_WPS_SLEEP) == PMU_CS1_WPS_SLEEP) // wifi module is sleep
 226              		.loc 1 118 15 is_stmt 0
 227 0000 37770040 		li	a4,1073770496
 228 0004 1C53     		lw	a5,32(a4)
 118:C:/Users/stapi/OneDrive/Desktop/GD32VW553/V1_MQTT_OK/GD32VW55X_Wifi_BLE_SDK/GD32VW55x_RELEASE_V1.0.2/MSDK/plf/src\gd32vw55x_platform.c ****             && ((PMU_CS1 & PMU_CS1_WPS_SLEEP) == PMU_CS1_WPS_SLEEP) // wifi module is sleep
 229              		.loc 1 118 25
 230 0006 B7060F00 		li	a3,983040
 119:C:/Users/stapi/OneDrive/Desktop/GD32VW553/V1_MQTT_OK/GD32VW55X_Wifi_BLE_SDK/GD32VW55x_RELEASE_V1.0.2/MSDK/plf/src\gd32vw55x_platform.c ****             );
 231              		.loc 1 119 13
 232 000a 0145     		li	a0,0
 118:C:/Users/stapi/OneDrive/Desktop/GD32VW553/V1_MQTT_OK/GD32VW55X_Wifi_BLE_SDK/GD32VW55x_RELEASE_V1.0.2/MSDK/plf/src\gd32vw55x_platform.c ****             && ((PMU_CS1 & PMU_CS1_WPS_SLEEP) == PMU_CS1_WPS_SLEEP) // wifi module is sleep
 233              		.loc 1 118 25
 234 000c F58F     		and	a5,a5,a3
 119:C:/Users/stapi/OneDrive/Desktop/GD32VW553/V1_MQTT_OK/GD32VW55X_Wifi_BLE_SDK/GD32VW55x_RELEASE_V1.0.2/MSDK/plf/src\gd32vw55x_platform.c ****             );
 235              		.loc 1 119 13
 236 000e 81E7     		bne	a5,zero,.L21
 119:C:/Users/stapi/OneDrive/Desktop/GD32VW553/V1_MQTT_OK/GD32VW55X_Wifi_BLE_SDK/GD32VW55x_RELEASE_V1.0.2/MSDK/plf/src\gd32vw55x_platform.c ****             );
 237              		.loc 1 119 18 discriminator 1
 238 0010 4847     		lw	a0,12(a4)
 119:C:/Users/stapi/OneDrive/Desktop/GD32VW553/V1_MQTT_OK/GD32VW55X_Wifi_BLE_SDK/GD32VW55x_RELEASE_V1.0.2/MSDK/plf/src\gd32vw55x_platform.c ****             );
 239              		.loc 1 119 13 discriminator 1
 240 0012 13552548 		bexti	a0,a0,2
 241              	.L21:
 124:C:/Users/stapi/OneDrive/Desktop/GD32VW553/V1_MQTT_OK/GD32VW55X_Wifi_BLE_SDK/GD32VW55x_RELEASE_V1.0.2/MSDK/plf/src\gd32vw55x_platform.c **** 
 242              		.loc 1 124 1 discriminator 6
 243 0016 8280     		ret
 244              		.cfi_endproc
 245              	.LFE379:
 247              		.section	.text.deep_sleep_enter,"ax",@progbits
 248              		.align	1
 249              		.globl	deep_sleep_enter
 251              	deep_sleep_enter:
 252              	.LFB381:
 152:C:/Users/stapi/OneDrive/Desktop/GD32VW553/V1_MQTT_OK/GD32VW55X_Wifi_BLE_SDK/GD32VW55x_RELEASE_V1.0.2/MSDK/plf/src\gd32vw55x_platform.c ****     exti_init(LOG_USART_RX_PIN_EXTI_LINE, EXTI_INTERRUPT, EXTI_TRIG_RISING);
 253              		.loc 1 152 1 is_stmt 1
 254              		.cfi_startproc
 255              	.LVL10:
 256 0000 17030000 		call	t0,__riscv_save_1
 256      E7020300 
 257              		.cfi_offset 8, -8
 258              		.cfi_offset 1, -4
 259              		.cfi_def_cfa_offset 16
 153:C:/Users/stapi/OneDrive/Desktop/GD32VW553/V1_MQTT_OK/GD32VW55X_Wifi_BLE_SDK/GD32VW55x_RELEASE_V1.0.2/MSDK/plf/src\gd32vw55x_platform.c **** 
 260              		.loc 1 153 5
 152:C:/Users/stapi/OneDrive/Desktop/GD32VW553/V1_MQTT_OK/GD32VW55X_Wifi_BLE_SDK/GD32VW55x_RELEASE_V1.0.2/MSDK/plf/src\gd32vw55x_platform.c ****     exti_init(LOG_USART_RX_PIN_EXTI_LINE, EXTI_INTERRUPT, EXTI_TRIG_RISING);
 261              		.loc 1 152 1 is_stmt 0
 262 0008 2A84     		mv	s0,a0
 153:C:/Users/stapi/OneDrive/Desktop/GD32VW553/V1_MQTT_OK/GD32VW55X_Wifi_BLE_SDK/GD32VW55x_RELEASE_V1.0.2/MSDK/plf/src\gd32vw55x_platform.c **** 
 263              		.loc 1 153 5
 264 000a 0146     		li	a2,0
 265 000c 8145     		li	a1,0
 266 000e 13050008 		li	a0,128
 267              	.LVL11:
 268 0012 97000000 		call	exti_init
 268      E7800000 
 269              	.LVL12:
 158:C:/Users/stapi/OneDrive/Desktop/GD32VW553/V1_MQTT_OK/GD32VW55X_Wifi_BLE_SDK/GD32VW55x_RELEASE_V1.0.2/MSDK/plf/src\gd32vw55x_platform.c **** 
 270              		.loc 1 158 5 is_stmt 1
 271 001a 0146     		li	a2,0
 272 001c 8145     		li	a1,0
 273 001e 37052000 		li	a0,2097152
 274 0022 97000000 		call	exti_init
 274      E7800000 
 275              	.LVL13:
 160:C:/Users/stapi/OneDrive/Desktop/GD32VW553/V1_MQTT_OK/GD32VW55X_Wifi_BLE_SDK/GD32VW55x_RELEASE_V1.0.2/MSDK/plf/src\gd32vw55x_platform.c ****     rtc_wakeup_disable();
 276              		.loc 1 160 5
 277 002a 13050040 		li	a0,1024
 278 002e 97000000 		call	rtc_flag_clear
 278      E7800000 
 279              	.LVL14:
 161:C:/Users/stapi/OneDrive/Desktop/GD32VW553/V1_MQTT_OK/GD32VW55X_Wifi_BLE_SDK/GD32VW55x_RELEASE_V1.0.2/MSDK/plf/src\gd32vw55x_platform.c **** 
 280              		.loc 1 161 5
 281 0036 97000000 		call	rtc_wakeup_disable
 281      E7800000 
 282              	.LVL15:
 166:C:/Users/stapi/OneDrive/Desktop/GD32VW553/V1_MQTT_OK/GD32VW55X_Wifi_BLE_SDK/GD32VW55x_RELEASE_V1.0.2/MSDK/plf/src\gd32vw55x_platform.c **** #endif
 283              		.loc 1 166 5
 284 003e 1545     		li	a0,5
 285 0040 3305A402 		mul	a0,s0,a0
 286              	.LBB44:
 287              	.LBB45:
  77:C:/Users/stapi/OneDrive/Desktop/GD32VW553/V1_MQTT_OK/GD32VW55X_Wifi_BLE_SDK/GD32VW55x_RELEASE_V1.0.2/MSDK/plf/src\gd32vw55x_platform.c ****     rcu_periph_clock_disable(RCU_CAU);
 288              		.loc 1 77 5 is_stmt 0
 289 0044 0564     		li	s0,4096
 290              	.LBE45:
 291              	.LBE44:
 166:C:/Users/stapi/OneDrive/Desktop/GD32VW553/V1_MQTT_OK/GD32VW55X_Wifi_BLE_SDK/GD32VW55x_RELEASE_V1.0.2/MSDK/plf/src\gd32vw55x_platform.c **** #endif
 292              		.loc 1 166 5
 293 0046 33450508 		zext.h	a0,a0
 294 004a 97000000 		call	rtc_wakeup_timer_set
 294      E7800000 
 295              	.LVL16:
 169:C:/Users/stapi/OneDrive/Desktop/GD32VW553/V1_MQTT_OK/GD32VW55X_Wifi_BLE_SDK/GD32VW55x_RELEASE_V1.0.2/MSDK/plf/src\gd32vw55x_platform.c **** 
 296              		.loc 1 169 5 is_stmt 1
 297 0052 97000000 		call	rtc_wakeup_enable
 297      E7800000 
 298              	.LVL17:
 171:C:/Users/stapi/OneDrive/Desktop/GD32VW553/V1_MQTT_OK/GD32VW55X_Wifi_BLE_SDK/GD32VW55x_RELEASE_V1.0.2/MSDK/plf/src\gd32vw55x_platform.c ****     trng_close(0);
 299              		.loc 1 171 5
 300              	.LBB47:
 301              	.LBB46:
  77:C:/Users/stapi/OneDrive/Desktop/GD32VW553/V1_MQTT_OK/GD32VW55X_Wifi_BLE_SDK/GD32VW55x_RELEASE_V1.0.2/MSDK/plf/src\gd32vw55x_platform.c ****     rcu_periph_clock_disable(RCU_CAU);
 302              		.loc 1 77 5
 303 005a 130534D0 		addi	a0,s0,-765
 304 005e 97000000 		call	rcu_periph_clock_disable
 304      E7800000 
 305              	.LVL18:
  78:C:/Users/stapi/OneDrive/Desktop/GD32VW553/V1_MQTT_OK/GD32VW55X_Wifi_BLE_SDK/GD32VW55x_RELEASE_V1.0.2/MSDK/plf/src\gd32vw55x_platform.c ****     rcu_periph_clock_disable(RCU_HAU);
 306              		.loc 1 78 5
 307 0066 130544D0 		addi	a0,s0,-764
 308 006a 97000000 		call	rcu_periph_clock_disable
 308      E7800000 
 309              	.LVL19:
  79:C:/Users/stapi/OneDrive/Desktop/GD32VW553/V1_MQTT_OK/GD32VW55X_Wifi_BLE_SDK/GD32VW55x_RELEASE_V1.0.2/MSDK/plf/src\gd32vw55x_platform.c **** }
 310              		.loc 1 79 5
 311 0072 130554D0 		addi	a0,s0,-763
 312 0076 97000000 		call	rcu_periph_clock_disable
 312      E7800000 
 313              	.LVL20:
 314              	.LBE46:
 315              	.LBE47:
 172:C:/Users/stapi/OneDrive/Desktop/GD32VW553/V1_MQTT_OK/GD32VW55X_Wifi_BLE_SDK/GD32VW55x_RELEASE_V1.0.2/MSDK/plf/src\gd32vw55x_platform.c **** 
 316              		.loc 1 172 5
 317 007e 0145     		li	a0,0
 176:C:/Users/stapi/OneDrive/Desktop/GD32VW553/V1_MQTT_OK/GD32VW55X_Wifi_BLE_SDK/GD32VW55x_RELEASE_V1.0.2/MSDK/plf/src\gd32vw55x_platform.c **** #endif
 318              		.loc 1 176 20 is_stmt 0
 319 0080 37440040 		li	s0,1073758208
 172:C:/Users/stapi/OneDrive/Desktop/GD32VW553/V1_MQTT_OK/GD32VW55X_Wifi_BLE_SDK/GD32VW55x_RELEASE_V1.0.2/MSDK/plf/src\gd32vw55x_platform.c **** 
 320              		.loc 1 172 5
 321 0084 97000000 		call	trng_close
 321      E7800000 
 322              	.LVL21:
 176:C:/Users/stapi/OneDrive/Desktop/GD32VW553/V1_MQTT_OK/GD32VW55X_Wifi_BLE_SDK/GD32VW55x_RELEASE_V1.0.2/MSDK/plf/src\gd32vw55x_platform.c **** #endif
 323              		.loc 1 176 5 is_stmt 1
 176:C:/Users/stapi/OneDrive/Desktop/GD32VW553/V1_MQTT_OK/GD32VW55X_Wifi_BLE_SDK/GD32VW55x_RELEASE_V1.0.2/MSDK/plf/src\gd32vw55x_platform.c **** #endif
 324              		.loc 1 176 20 is_stmt 0
 325 008c 13040440 		addi	s0,s0,1024
 326              	.L24:
 176:C:/Users/stapi/OneDrive/Desktop/GD32VW553/V1_MQTT_OK/GD32VW55X_Wifi_BLE_SDK/GD32VW55x_RELEASE_V1.0.2/MSDK/plf/src\gd32vw55x_platform.c **** #endif
 327              		.loc 1 176 60 is_stmt 1 discriminator 1
 176:C:/Users/stapi/OneDrive/Desktop/GD32VW553/V1_MQTT_OK/GD32VW55X_Wifi_BLE_SDK/GD32VW55x_RELEASE_V1.0.2/MSDK/plf/src\gd32vw55x_platform.c **** #endif
 328              		.loc 1 176 10 discriminator 1
 176:C:/Users/stapi/OneDrive/Desktop/GD32VW553/V1_MQTT_OK/GD32VW55X_Wifi_BLE_SDK/GD32VW55x_RELEASE_V1.0.2/MSDK/plf/src\gd32vw55x_platform.c **** #endif
 329              		.loc 1 176 20 is_stmt 0 discriminator 1
 330 0090 93056070 		li	a1,1798
 331 0094 2285     		mv	a0,s0
 332 0096 97000000 		call	usart_flag_get
 332      E7800000 
 333              	.LVL22:
 176:C:/Users/stapi/OneDrive/Desktop/GD32VW553/V1_MQTT_OK/GD32VW55X_Wifi_BLE_SDK/GD32VW55x_RELEASE_V1.0.2/MSDK/plf/src\gd32vw55x_platform.c **** #endif
 334              		.loc 1 176 10 discriminator 1
 335 009e 6DD9     		beq	a0,zero,.L24
 189:C:/Users/stapi/OneDrive/Desktop/GD32VW553/V1_MQTT_OK/GD32VW55X_Wifi_BLE_SDK/GD32VW55x_RELEASE_V1.0.2/MSDK/plf/src\gd32vw55x_platform.c **** }
 336              		.loc 1 189 5 is_stmt 1
 337 00a0 0146     		li	a2,0
 338 00a2 B7050C00 		li	a1,786432
 339 00a6 0545     		li	a0,1
 340 00a8 97000000 		call	pmu_to_deepsleepmode
 340      E7800000 
 341              	.LVL23:
 190:C:/Users/stapi/OneDrive/Desktop/GD32VW553/V1_MQTT_OK/GD32VW55X_Wifi_BLE_SDK/GD32VW55x_RELEASE_V1.0.2/MSDK/plf/src\gd32vw55x_platform.c **** 
 342              		.loc 1 190 1 is_stmt 0
 343 00b0 17030000 		tail	__riscv_restore_1
 343      67000300 
 344              		.cfi_restore 8
 345              		.cfi_restore 1
 346              		.cfi_def_cfa_offset 0
 347              		.cfi_endproc
 348              	.LFE381:
 350              		.section	.text.deep_sleep_exit,"ax",@progbits
 351              		.align	1
 352              		.globl	deep_sleep_exit
 354              	deep_sleep_exit:
 355              	.LFB382:
 199:C:/Users/stapi/OneDrive/Desktop/GD32VW553/V1_MQTT_OK/GD32VW55X_Wifi_BLE_SDK/GD32VW55x_RELEASE_V1.0.2/MSDK/plf/src\gd32vw55x_platform.c ****     GLOBAL_INT_STOP();
 356              		.loc 1 199 1 is_stmt 1
 357              		.cfi_startproc
 358 0000 17030000 		call	t0,__riscv_save_1
 358      E7020300 
 359              		.cfi_offset 8, -8
 360              		.cfi_offset 1, -4
 361              		.cfi_def_cfa_offset 16
 200:C:/Users/stapi/OneDrive/Desktop/GD32VW553/V1_MQTT_OK/GD32VW55X_Wifi_BLE_SDK/GD32VW55x_RELEASE_V1.0.2/MSDK/plf/src\gd32vw55x_platform.c ****     if (rcu_system_clock_source_get() != RCU_SCSS_PLLDIG)
 362              		.loc 1 200 5
 363              	.LBB48:
 200:C:/Users/stapi/OneDrive/Desktop/GD32VW553/V1_MQTT_OK/GD32VW55X_Wifi_BLE_SDK/GD32VW55x_RELEASE_V1.0.2/MSDK/plf/src\gd32vw55x_platform.c ****     if (rcu_system_clock_source_get() != RCU_SCSS_PLLDIG)
 364              		.loc 1 200 5
 200:C:/Users/stapi/OneDrive/Desktop/GD32VW553/V1_MQTT_OK/GD32VW55X_Wifi_BLE_SDK/GD32VW55x_RELEASE_V1.0.2/MSDK/plf/src\gd32vw55x_platform.c ****     if (rcu_system_clock_source_get() != RCU_SCSS_PLLDIG)
 365              		.loc 1 200 5
 366              	 #APP
 367              	# 200 "C:/Users/stapi/OneDrive/Desktop/GD32VW553/V1_MQTT_OK/GD32VW55X_Wifi_BLE_SDK/GD32VW55x_RELEAS
 368              		csrrci a5, mstatus, 8
 369              	# 0 "" 2
 370              	.LVL24:
 371              	 #NO_APP
 372              	.LBE48:
 200:C:/Users/stapi/OneDrive/Desktop/GD32VW553/V1_MQTT_OK/GD32VW55X_Wifi_BLE_SDK/GD32VW55x_RELEASE_V1.0.2/MSDK/plf/src\gd32vw55x_platform.c ****     if (rcu_system_clock_source_get() != RCU_SCSS_PLLDIG)
 373              		.loc 1 200 5
 201:C:/Users/stapi/OneDrive/Desktop/GD32VW553/V1_MQTT_OK/GD32VW55X_Wifi_BLE_SDK/GD32VW55x_RELEASE_V1.0.2/MSDK/plf/src\gd32vw55x_platform.c ****         system_clock_config();
 374              		.loc 1 201 5
 201:C:/Users/stapi/OneDrive/Desktop/GD32VW553/V1_MQTT_OK/GD32VW55X_Wifi_BLE_SDK/GD32VW55x_RELEASE_V1.0.2/MSDK/plf/src\gd32vw55x_platform.c ****         system_clock_config();
 375              		.loc 1 201 9 is_stmt 0
 376 000c 97000000 		call	rcu_system_clock_source_get
 376      E7800000 
 377              	.LVL25:
 201:C:/Users/stapi/OneDrive/Desktop/GD32VW553/V1_MQTT_OK/GD32VW55X_Wifi_BLE_SDK/GD32VW55x_RELEASE_V1.0.2/MSDK/plf/src\gd32vw55x_platform.c ****         system_clock_config();
 378              		.loc 1 201 8
 379 0014 A147     		li	a5,8
 380 0016 6306F500 		beq	a0,a5,.L29
 202:C:/Users/stapi/OneDrive/Desktop/GD32VW553/V1_MQTT_OK/GD32VW55X_Wifi_BLE_SDK/GD32VW55x_RELEASE_V1.0.2/MSDK/plf/src\gd32vw55x_platform.c ****     GLOBAL_INT_START();
 381              		.loc 1 202 9 is_stmt 1
 382 001a 97000000 		call	system_clock_config
 382      E7800000 
 383              	.LVL26:
 384              	.L29:
 203:C:/Users/stapi/OneDrive/Desktop/GD32VW553/V1_MQTT_OK/GD32VW55X_Wifi_BLE_SDK/GD32VW55x_RELEASE_V1.0.2/MSDK/plf/src\gd32vw55x_platform.c **** 
 385              		.loc 1 203 5
 386              	.LBB49:
 203:C:/Users/stapi/OneDrive/Desktop/GD32VW553/V1_MQTT_OK/GD32VW55X_Wifi_BLE_SDK/GD32VW55x_RELEASE_V1.0.2/MSDK/plf/src\gd32vw55x_platform.c **** 
 387              		.loc 1 203 5
 203:C:/Users/stapi/OneDrive/Desktop/GD32VW553/V1_MQTT_OK/GD32VW55X_Wifi_BLE_SDK/GD32VW55x_RELEASE_V1.0.2/MSDK/plf/src\gd32vw55x_platform.c **** 
 388              		.loc 1 203 5
 389              	 #APP
 390              	# 203 "C:/Users/stapi/OneDrive/Desktop/GD32VW553/V1_MQTT_OK/GD32VW55X_Wifi_BLE_SDK/GD32VW55x_RELEAS
 391              		csrrsi a5, mstatus, 8
 392              	# 0 "" 2
 393              	.LVL27:
 394              	 #NO_APP
 395              	.LBE49:
 203:C:/Users/stapi/OneDrive/Desktop/GD32VW553/V1_MQTT_OK/GD32VW55X_Wifi_BLE_SDK/GD32VW55x_RELEASE_V1.0.2/MSDK/plf/src\gd32vw55x_platform.c **** 
 396              		.loc 1 203 5
 205:C:/Users/stapi/OneDrive/Desktop/GD32VW553/V1_MQTT_OK/GD32VW55X_Wifi_BLE_SDK/GD32VW55x_RELEASE_V1.0.2/MSDK/plf/src\gd32vw55x_platform.c ****     // Wifi module clear exit by self
 397              		.loc 1 205 5
 398 0026 13050008 		li	a0,128
 399 002a 97000000 		call	exti_line_clear
 399      E7800000 
 400              	.LVL28:
 208:C:/Users/stapi/OneDrive/Desktop/GD32VW553/V1_MQTT_OK/GD32VW55X_Wifi_BLE_SDK/GD32VW55x_RELEASE_V1.0.2/MSDK/plf/src\gd32vw55x_platform.c **** 
 401              		.loc 1 208 5
 402 0032 37052000 		li	a0,2097152
 403              	.LBB50:
 404              	.LBB51:
  70:C:/Users/stapi/OneDrive/Desktop/GD32VW553/V1_MQTT_OK/GD32VW55X_Wifi_BLE_SDK/GD32VW55x_RELEASE_V1.0.2/MSDK/plf/src\gd32vw55x_platform.c ****     rcu_periph_clock_enable(RCU_CAU);
 405              		.loc 1 70 5 is_stmt 0
 406 0036 0564     		li	s0,4096
 407              	.LBE51:
 408              	.LBE50:
 208:C:/Users/stapi/OneDrive/Desktop/GD32VW553/V1_MQTT_OK/GD32VW55X_Wifi_BLE_SDK/GD32VW55x_RELEASE_V1.0.2/MSDK/plf/src\gd32vw55x_platform.c **** 
 409              		.loc 1 208 5
 410 0038 97000000 		call	exti_line_clear
 410      E7800000 
 411              	.LVL29:
 210:C:/Users/stapi/OneDrive/Desktop/GD32VW553/V1_MQTT_OK/GD32VW55X_Wifi_BLE_SDK/GD32VW55x_RELEASE_V1.0.2/MSDK/plf/src\gd32vw55x_platform.c **** 
 412              		.loc 1 210 5 is_stmt 1
 413              	.LBB53:
 414              	.LBB52:
  70:C:/Users/stapi/OneDrive/Desktop/GD32VW553/V1_MQTT_OK/GD32VW55X_Wifi_BLE_SDK/GD32VW55x_RELEASE_V1.0.2/MSDK/plf/src\gd32vw55x_platform.c ****     rcu_periph_clock_enable(RCU_CAU);
 415              		.loc 1 70 5
 416 0040 130534D0 		addi	a0,s0,-765
 417 0044 97000000 		call	rcu_periph_clock_enable
 417      E7800000 
 418              	.LVL30:
  71:C:/Users/stapi/OneDrive/Desktop/GD32VW553/V1_MQTT_OK/GD32VW55X_Wifi_BLE_SDK/GD32VW55x_RELEASE_V1.0.2/MSDK/plf/src\gd32vw55x_platform.c ****     rcu_periph_clock_enable(RCU_HAU);
 419              		.loc 1 71 5
 420 004c 130544D0 		addi	a0,s0,-764
 421 0050 97000000 		call	rcu_periph_clock_enable
 421      E7800000 
 422              	.LVL31:
  72:C:/Users/stapi/OneDrive/Desktop/GD32VW553/V1_MQTT_OK/GD32VW55X_Wifi_BLE_SDK/GD32VW55x_RELEASE_V1.0.2/MSDK/plf/src\gd32vw55x_platform.c **** }
 423              		.loc 1 72 5
 424 0058 130554D0 		addi	a0,s0,-763
 425 005c 97000000 		call	rcu_periph_clock_enable
 425      E7800000 
 426              	.LVL32:
 427              	.LBE52:
 428              	.LBE53:
 212:C:/Users/stapi/OneDrive/Desktop/GD32VW553/V1_MQTT_OK/GD32VW55X_Wifi_BLE_SDK/GD32VW55x_RELEASE_V1.0.2/MSDK/plf/src\gd32vw55x_platform.c ****         rtc_flag_clear(RTC_STAT_WTF);
 429              		.loc 1 212 5
 212:C:/Users/stapi/OneDrive/Desktop/GD32VW553/V1_MQTT_OK/GD32VW55X_Wifi_BLE_SDK/GD32VW55x_RELEASE_V1.0.2/MSDK/plf/src\gd32vw55x_platform.c ****         rtc_flag_clear(RTC_STAT_WTF);
 430              		.loc 1 212 17 is_stmt 0
 431 0064 13050040 		li	a0,1024
 432 0068 97000000 		call	rtc_flag_get
 432      E7800000 
 433              	.LVL33:
 212:C:/Users/stapi/OneDrive/Desktop/GD32VW553/V1_MQTT_OK/GD32VW55X_Wifi_BLE_SDK/GD32VW55x_RELEASE_V1.0.2/MSDK/plf/src\gd32vw55x_platform.c ****         rtc_flag_clear(RTC_STAT_WTF);
 434              		.loc 1 212 7
 435 0070 19C5     		beq	a0,zero,.L28
 213:C:/Users/stapi/OneDrive/Desktop/GD32VW553/V1_MQTT_OK/GD32VW55X_Wifi_BLE_SDK/GD32VW55x_RELEASE_V1.0.2/MSDK/plf/src\gd32vw55x_platform.c ****     }
 436              		.loc 1 213 9 is_stmt 1
 437 0072 13050040 		li	a0,1024
 438 0076 97000000 		call	rtc_flag_clear
 438      E7800000 
 439              	.LVL34:
 440              	.L28:
 215:C:/Users/stapi/OneDrive/Desktop/GD32VW553/V1_MQTT_OK/GD32VW55X_Wifi_BLE_SDK/GD32VW55x_RELEASE_V1.0.2/MSDK/plf/src\gd32vw55x_platform.c **** 
 441              		.loc 1 215 1 is_stmt 0
 442 007e 17030000 		tail	__riscv_restore_1
 442      67000300 
 443              		.cfi_restore 8
 444              		.cfi_restore 1
 445              		.cfi_def_cfa_offset 0
 446              		.cfi_endproc
 447              	.LFE382:
 449              		.section	.text.wlan_exti_enter,"ax",@progbits
 450              		.align	1
 451              		.globl	wlan_exti_enter
 453              	wlan_exti_enter:
 454              	.LFB383:
 224:C:/Users/stapi/OneDrive/Desktop/GD32VW553/V1_MQTT_OK/GD32VW55X_Wifi_BLE_SDK/GD32VW55x_RELEASE_V1.0.2/MSDK/plf/src\gd32vw55x_platform.c **** #ifdef CFG_LPS
 455              		.loc 1 224 1 is_stmt 1
 456              		.cfi_startproc
 226:C:/Users/stapi/OneDrive/Desktop/GD32VW553/V1_MQTT_OK/GD32VW55X_Wifi_BLE_SDK/GD32VW55x_RELEASE_V1.0.2/MSDK/plf/src\gd32vw55x_platform.c **** #endif
 457              		.loc 1 226 5
 458 0000 0146     		li	a2,0
 459 0002 8145     		li	a1,0
 460 0004 37050800 		li	a0,524288
 461 0008 17030000 		tail	exti_init
 461      67000300 
 462              	.LVL35:
 463              		.cfi_endproc
 464              	.LFE383:
 466              		.section	.text.wlan_exti_exit,"ax",@progbits
 467              		.align	1
 468              		.globl	wlan_exti_exit
 470              	wlan_exti_exit:
 471              	.LFB384:
 237:C:/Users/stapi/OneDrive/Desktop/GD32VW553/V1_MQTT_OK/GD32VW55X_Wifi_BLE_SDK/GD32VW55x_RELEASE_V1.0.2/MSDK/plf/src\gd32vw55x_platform.c **** #ifdef CFG_LPS
 472              		.loc 1 237 1
 473              		.cfi_startproc
 239:C:/Users/stapi/OneDrive/Desktop/GD32VW553/V1_MQTT_OK/GD32VW55X_Wifi_BLE_SDK/GD32VW55x_RELEASE_V1.0.2/MSDK/plf/src\gd32vw55x_platform.c **** #endif
 474              		.loc 1 239 5
 475 0000 37050800 		li	a0,524288
 476 0004 17030000 		tail	exti_line_clear
 476      67000300 
 477              	.LVL36:
 478              		.cfi_endproc
 479              	.LFE384:
 481              		.section	.text.ble_exti_enter,"ax",@progbits
 482              		.align	1
 483              		.globl	ble_exti_enter
 485              	ble_exti_enter:
 486              	.LFB385:
 247:C:/Users/stapi/OneDrive/Desktop/GD32VW553/V1_MQTT_OK/GD32VW55X_Wifi_BLE_SDK/GD32VW55x_RELEASE_V1.0.2/MSDK/plf/src\gd32vw55x_platform.c ****     exti_init(BLE_WAKEUP_EXTI_LINE, EXTI_INTERRUPT, EXTI_TRIG_RISING);
 487              		.loc 1 247 1
 488              		.cfi_startproc
 248:C:/Users/stapi/OneDrive/Desktop/GD32VW553/V1_MQTT_OK/GD32VW55X_Wifi_BLE_SDK/GD32VW55x_RELEASE_V1.0.2/MSDK/plf/src\gd32vw55x_platform.c **** }
 489              		.loc 1 248 5
 490 0000 0146     		li	a2,0
 491 0002 8145     		li	a1,0
 492 0004 37050001 		li	a0,16777216
 493 0008 17030000 		tail	exti_init
 493      67000300 
 494              	.LVL37:
 495              		.cfi_endproc
 496              	.LFE385:
 498              		.section	.text.ble_exti_exit,"ax",@progbits
 499              		.align	1
 500              		.globl	ble_exti_exit
 502              	ble_exti_exit:
 503              	.LFB386:
 255:C:/Users/stapi/OneDrive/Desktop/GD32VW553/V1_MQTT_OK/GD32VW55X_Wifi_BLE_SDK/GD32VW55x_RELEASE_V1.0.2/MSDK/plf/src\gd32vw55x_platform.c ****     exti_line_clear(BLE_WAKEUP_EXTI_LINE);
 504              		.loc 1 255 1
 505              		.cfi_startproc
 256:C:/Users/stapi/OneDrive/Desktop/GD32VW553/V1_MQTT_OK/GD32VW55X_Wifi_BLE_SDK/GD32VW55x_RELEASE_V1.0.2/MSDK/plf/src\gd32vw55x_platform.c **** }
 506              		.loc 1 256 5
 507 0000 37050001 		li	a0,16777216
 508 0004 17030000 		tail	exti_line_clear
 508      67000300 
 509              	.LVL38:
 510              		.cfi_endproc
 511              	.LFE386:
 513              		.section	.text.ble_pmu_config,"ax",@progbits
 514              		.align	1
 515              		.globl	ble_pmu_config
 517              	ble_pmu_config:
 518              	.LFB387:
 260:C:/Users/stapi/OneDrive/Desktop/GD32VW553/V1_MQTT_OK/GD32VW55X_Wifi_BLE_SDK/GD32VW55x_RELEASE_V1.0.2/MSDK/plf/src\gd32vw55x_platform.c ****     if (enable) {
 519              		.loc 1 260 1
 520              		.cfi_startproc
 521              	.LVL39:
 522 0000 17030000 		call	t0,__riscv_save_1
 522      E7020300 
 523              		.cfi_offset 8, -8
 524              		.cfi_offset 1, -4
 525              		.cfi_def_cfa_offset 16
 261:C:/Users/stapi/OneDrive/Desktop/GD32VW553/V1_MQTT_OK/GD32VW55X_Wifi_BLE_SDK/GD32VW55x_RELEASE_V1.0.2/MSDK/plf/src\gd32vw55x_platform.c ****         /* if ble is sleep, config power on */
 526              		.loc 1 261 5
 261:C:/Users/stapi/OneDrive/Desktop/GD32VW553/V1_MQTT_OK/GD32VW55X_Wifi_BLE_SDK/GD32VW55x_RELEASE_V1.0.2/MSDK/plf/src\gd32vw55x_platform.c ****         /* if ble is sleep, config power on */
 527              		.loc 1 261 8 is_stmt 0
 528 0008 09C9     		beq	a0,zero,.L44
 529 000a 97000000 		call	ble_pmu_config.part.0
 529      E7800000 
 530              	.LVL40:
 531              	.L43:
 532              		.loc 1 274 1
 533 0012 17030000 		tail	__riscv_restore_1
 533      67000300 
 534              		.cfi_remember_state
 535              		.cfi_restore 8
 536              		.cfi_restore 1
 537              		.cfi_def_cfa_offset 0
 538              	.LVL41:
 539              	.L44:
 540              		.cfi_restore_state
 269:C:/Users/stapi/OneDrive/Desktop/GD32VW553/V1_MQTT_OK/GD32VW55X_Wifi_BLE_SDK/GD32VW55x_RELEASE_V1.0.2/MSDK/plf/src\gd32vw55x_platform.c ****             pmu_ble_control(PMU_BLE_SLEEP);
 541              		.loc 1 269 9 is_stmt 1
 269:C:/Users/stapi/OneDrive/Desktop/GD32VW553/V1_MQTT_OK/GD32VW55X_Wifi_BLE_SDK/GD32VW55x_RELEASE_V1.0.2/MSDK/plf/src\gd32vw55x_platform.c ****             pmu_ble_control(PMU_BLE_SLEEP);
 542              		.loc 1 269 13 is_stmt 0
 543 001a 37050280 		li	a0,-2147352576
 544              	.LVL42:
 545 001e 97000000 		call	pmu_flag_get
 545      E7800000 
 546              	.LVL43:
 269:C:/Users/stapi/OneDrive/Desktop/GD32VW553/V1_MQTT_OK/GD32VW55X_Wifi_BLE_SDK/GD32VW55x_RELEASE_V1.0.2/MSDK/plf/src\gd32vw55x_platform.c ****             pmu_ble_control(PMU_BLE_SLEEP);
 547              		.loc 1 269 12
 548 0026 8547     		li	a5,1
 549 0028 6318F500 		bne	a0,a5,.L46
 270:C:/Users/stapi/OneDrive/Desktop/GD32VW553/V1_MQTT_OK/GD32VW55X_Wifi_BLE_SDK/GD32VW55x_RELEASE_V1.0.2/MSDK/plf/src\gd32vw55x_platform.c ****         /* wait sleep */
 550              		.loc 1 270 13 is_stmt 1
 551 002c 37058000 		li	a0,8388608
 552 0030 97000000 		call	pmu_ble_control
 552      E7800000 
 553              	.LVL44:
 554              	.L46:
 272:C:/Users/stapi/OneDrive/Desktop/GD32VW553/V1_MQTT_OK/GD32VW55X_Wifi_BLE_SDK/GD32VW55x_RELEASE_V1.0.2/MSDK/plf/src\gd32vw55x_platform.c ****     }
 555              		.loc 1 272 15 is_stmt 0 discriminator 1
 556 0038 0544     		li	s0,1
 557              	.L47:
 272:C:/Users/stapi/OneDrive/Desktop/GD32VW553/V1_MQTT_OK/GD32VW55X_Wifi_BLE_SDK/GD32VW55x_RELEASE_V1.0.2/MSDK/plf/src\gd32vw55x_platform.c ****     }
 558              		.loc 1 272 56 is_stmt 1 discriminator 1
 272:C:/Users/stapi/OneDrive/Desktop/GD32VW553/V1_MQTT_OK/GD32VW55X_Wifi_BLE_SDK/GD32VW55x_RELEASE_V1.0.2/MSDK/plf/src\gd32vw55x_platform.c ****     }
 559              		.loc 1 272 15 discriminator 1
 272:C:/Users/stapi/OneDrive/Desktop/GD32VW553/V1_MQTT_OK/GD32VW55X_Wifi_BLE_SDK/GD32VW55x_RELEASE_V1.0.2/MSDK/plf/src\gd32vw55x_platform.c ****     }
 560              		.loc 1 272 16 is_stmt 0 discriminator 1
 561 003a 37050180 		li	a0,-2147418112
 562 003e 97000000 		call	pmu_flag_get
 562      E7800000 
 563              	.LVL45:
 272:C:/Users/stapi/OneDrive/Desktop/GD32VW553/V1_MQTT_OK/GD32VW55X_Wifi_BLE_SDK/GD32VW55x_RELEASE_V1.0.2/MSDK/plf/src\gd32vw55x_platform.c ****     }
 564              		.loc 1 272 15 discriminator 1
 565 0046 E31A85FE 		bne	a0,s0,.L47
 566 004a E1B7     		j	.L43
 567              		.cfi_endproc
 568              	.LFE387:
 570              		.section	.text.ble_wait_pmu_on,"ax",@progbits
 571              		.align	1
 572              		.globl	ble_wait_pmu_on
 574              	ble_wait_pmu_on:
 575              	.LFB388:
 275:C:/Users/stapi/OneDrive/Desktop/GD32VW553/V1_MQTT_OK/GD32VW55X_Wifi_BLE_SDK/GD32VW55x_RELEASE_V1.0.2/MSDK/plf/src\gd32vw55x_platform.c **** 
 276:C:/Users/stapi/OneDrive/Desktop/GD32VW553/V1_MQTT_OK/GD32VW55X_Wifi_BLE_SDK/GD32VW55x_RELEASE_V1.0.2/MSDK/plf/src\gd32vw55x_platform.c **** void ble_wait_pmu_on(uint32_t timeout_ms)
 277:C:/Users/stapi/OneDrive/Desktop/GD32VW553/V1_MQTT_OK/GD32VW55X_Wifi_BLE_SDK/GD32VW55x_RELEASE_V1.0.2/MSDK/plf/src\gd32vw55x_platform.c **** {
 576              		.loc 1 277 1 is_stmt 1
 577              		.cfi_startproc
 578              	.LVL46:
 579 0000 17030000 		call	t0,__riscv_save_3
 579      E7020300 
 580              		.cfi_offset 18, -16
 581              		.cfi_offset 9, -12
 582              		.cfi_offset 8, -8
 583              		.cfi_offset 1, -4
 584              		.cfi_def_cfa_offset 16
 278:C:/Users/stapi/OneDrive/Desktop/GD32VW553/V1_MQTT_OK/GD32VW55X_Wifi_BLE_SDK/GD32VW55x_RELEASE_V1.0.2/MSDK/plf/src\gd32vw55x_platform.c ****     uint64_t start;
 585              		.loc 1 278 5
 279:C:/Users/stapi/OneDrive/Desktop/GD32VW553/V1_MQTT_OK/GD32VW55X_Wifi_BLE_SDK/GD32VW55x_RELEASE_V1.0.2/MSDK/plf/src\gd32vw55x_platform.c **** 
 280:C:/Users/stapi/OneDrive/Desktop/GD32VW553/V1_MQTT_OK/GD32VW55X_Wifi_BLE_SDK/GD32VW55x_RELEASE_V1.0.2/MSDK/plf/src\gd32vw55x_platform.c ****     if (timeout_ms > 0) {
 586              		.loc 1 280 5
 587 0008 0544     		li	s0,1
 588              		.loc 1 280 8 is_stmt 0
 589 000a 39C5     		beq	a0,zero,.L51
 590 000c AA84     		mv	s1,a0
 281:C:/Users/stapi/OneDrive/Desktop/GD32VW553/V1_MQTT_OK/GD32VW55X_Wifi_BLE_SDK/GD32VW55x_RELEASE_V1.0.2/MSDK/plf/src\gd32vw55x_platform.c ****         start = get_sys_local_time_us();
 591              		.loc 1 281 9 is_stmt 1
 282:C:/Users/stapi/OneDrive/Desktop/GD32VW553/V1_MQTT_OK/GD32VW55X_Wifi_BLE_SDK/GD32VW55x_RELEASE_V1.0.2/MSDK/plf/src\gd32vw55x_platform.c ****         while (pmu_flag_get(PMU_FLAG_BLE_ACTIVE) != SET && (get_sys_local_time_us() < start + timeo
 592              		.loc 1 282 106 is_stmt 0
 593 000e 1304803E 		li	s0,1000
 594 0012 B3848402 		mul	s1,s1,s0
 281:C:/Users/stapi/OneDrive/Desktop/GD32VW553/V1_MQTT_OK/GD32VW55X_Wifi_BLE_SDK/GD32VW55x_RELEASE_V1.0.2/MSDK/plf/src\gd32vw55x_platform.c ****         start = get_sys_local_time_us();
 595              		.loc 1 281 17
 596 0016 97000000 		call	get_sys_local_time_us
 596      E7800000 
 597              	.LVL47:
 598              		.loc 1 282 9 is_stmt 1
 599              		.loc 1 282 93 is_stmt 0
 600 001e 3389A400 		add	s2,s1,a0
 601 0022 B3349900 		sltu	s1,s2,s1
 602 0026 3384B400 		add	s0,s1,a1
 603              		.loc 1 282 15
 604 002a 8544     		li	s1,1
 605              	.LVL48:
 606              	.L58:
 607              		.loc 1 282 114 is_stmt 1 discriminator 2
 608              		.loc 1 282 15 discriminator 2
 609              		.loc 1 282 16 is_stmt 0 discriminator 2
 610 002c 37050280 		li	a0,-2147352576
 611 0030 97000000 		call	pmu_flag_get
 611      E7800000 
 612              	.LVL49:
 613              		.loc 1 282 15 discriminator 2
 614 0038 630C9500 		beq	a0,s1,.L50
 615              		.loc 1 282 61 discriminator 1
 616 003c 97000000 		call	get_sys_local_time_us
 616      E7800000 
 617              	.LVL50:
 618              		.loc 1 282 57 discriminator 1
 619 0044 E3E485FE 		bgtu	s0,a1,.L58
 620 0048 6314B400 		bne	s0,a1,.L50
 621 004c E36025FF 		bgtu	s2,a0,.L58
 622              	.L50:
 283:C:/Users/stapi/OneDrive/Desktop/GD32VW553/V1_MQTT_OK/GD32VW55X_Wifi_BLE_SDK/GD32VW55x_RELEASE_V1.0.2/MSDK/plf/src\gd32vw55x_platform.c ****     } else {
 284:C:/Users/stapi/OneDrive/Desktop/GD32VW553/V1_MQTT_OK/GD32VW55X_Wifi_BLE_SDK/GD32VW55x_RELEASE_V1.0.2/MSDK/plf/src\gd32vw55x_platform.c ****         while (pmu_flag_get(PMU_FLAG_BLE_ACTIVE) != SET);
 285:C:/Users/stapi/OneDrive/Desktop/GD32VW553/V1_MQTT_OK/GD32VW55X_Wifi_BLE_SDK/GD32VW55x_RELEASE_V1.0.2/MSDK/plf/src\gd32vw55x_platform.c ****     }
 286:C:/Users/stapi/OneDrive/Desktop/GD32VW553/V1_MQTT_OK/GD32VW55X_Wifi_BLE_SDK/GD32VW55x_RELEASE_V1.0.2/MSDK/plf/src\gd32vw55x_platform.c **** }
 623              		.loc 1 286 1
 624 0050 17030000 		tail	__riscv_restore_3
 624      67000300 
 625              		.cfi_remember_state
 626              		.cfi_restore 18
 627              		.cfi_restore 9
 628              		.cfi_restore 8
 629              		.cfi_restore 1
 630              		.cfi_def_cfa_offset 0
 631              	.L51:
 632              		.cfi_restore_state
 284:C:/Users/stapi/OneDrive/Desktop/GD32VW553/V1_MQTT_OK/GD32VW55X_Wifi_BLE_SDK/GD32VW55x_RELEASE_V1.0.2/MSDK/plf/src\gd32vw55x_platform.c ****     }
 633              		.loc 1 284 57 is_stmt 1 discriminator 1
 284:C:/Users/stapi/OneDrive/Desktop/GD32VW553/V1_MQTT_OK/GD32VW55X_Wifi_BLE_SDK/GD32VW55x_RELEASE_V1.0.2/MSDK/plf/src\gd32vw55x_platform.c ****     }
 634              		.loc 1 284 15 discriminator 1
 284:C:/Users/stapi/OneDrive/Desktop/GD32VW553/V1_MQTT_OK/GD32VW55X_Wifi_BLE_SDK/GD32VW55x_RELEASE_V1.0.2/MSDK/plf/src\gd32vw55x_platform.c ****     }
 635              		.loc 1 284 16 is_stmt 0 discriminator 1
 636 0058 37050280 		li	a0,-2147352576
 637 005c 97000000 		call	pmu_flag_get
 637      E7800000 
 638              	.LVL51:
 284:C:/Users/stapi/OneDrive/Desktop/GD32VW553/V1_MQTT_OK/GD32VW55X_Wifi_BLE_SDK/GD32VW55x_RELEASE_V1.0.2/MSDK/plf/src\gd32vw55x_platform.c ****     }
 639              		.loc 1 284 15 discriminator 1
 640 0064 E31A85FE 		bne	a0,s0,.L51
 641 0068 E5B7     		j	.L50
 642              		.cfi_endproc
 643              	.LFE388:
 645              		.section	.text.ble_rcc_config,"ax",@progbits
 646              		.align	1
 647              		.globl	ble_rcc_config
 649              	ble_rcc_config:
 650              	.LFB389:
 287:C:/Users/stapi/OneDrive/Desktop/GD32VW553/V1_MQTT_OK/GD32VW55X_Wifi_BLE_SDK/GD32VW55x_RELEASE_V1.0.2/MSDK/plf/src\gd32vw55x_platform.c **** 
 288:C:/Users/stapi/OneDrive/Desktop/GD32VW553/V1_MQTT_OK/GD32VW55X_Wifi_BLE_SDK/GD32VW55x_RELEASE_V1.0.2/MSDK/plf/src\gd32vw55x_platform.c **** void ble_rcc_config(void)
 289:C:/Users/stapi/OneDrive/Desktop/GD32VW553/V1_MQTT_OK/GD32VW55X_Wifi_BLE_SDK/GD32VW55x_RELEASE_V1.0.2/MSDK/plf/src\gd32vw55x_platform.c **** {
 651              		.loc 1 289 1 is_stmt 1
 652              		.cfi_startproc
 653 0000 17030000 		call	t0,__riscv_save_0
 653      E7020300 
 654              		.cfi_offset 1, -4
 655              		.cfi_def_cfa_offset 16
 290:C:/Users/stapi/OneDrive/Desktop/GD32VW553/V1_MQTT_OK/GD32VW55X_Wifi_BLE_SDK/GD32VW55x_RELEASE_V1.0.2/MSDK/plf/src\gd32vw55x_platform.c ****     /* ble enable */
 291:C:/Users/stapi/OneDrive/Desktop/GD32VW553/V1_MQTT_OK/GD32VW55X_Wifi_BLE_SDK/GD32VW55x_RELEASE_V1.0.2/MSDK/plf/src\gd32vw55x_platform.c ****     rcu_periph_clock_enable(RCU_BLE);
 656              		.loc 1 291 5
 657 0008 0565     		li	a0,4096
 658 000a 1305F5C1 		addi	a0,a0,-993
 659 000e 97000000 		call	rcu_periph_clock_enable
 659      E7800000 
 660              	.LVL52:
 292:C:/Users/stapi/OneDrive/Desktop/GD32VW553/V1_MQTT_OK/GD32VW55X_Wifi_BLE_SDK/GD32VW55x_RELEASE_V1.0.2/MSDK/plf/src\gd32vw55x_platform.c **** 
 293:C:/Users/stapi/OneDrive/Desktop/GD32VW553/V1_MQTT_OK/GD32VW55X_Wifi_BLE_SDK/GD32VW55x_RELEASE_V1.0.2/MSDK/plf/src\gd32vw55x_platform.c ****     /* ble reset */
 294:C:/Users/stapi/OneDrive/Desktop/GD32VW553/V1_MQTT_OK/GD32VW55X_Wifi_BLE_SDK/GD32VW55x_RELEASE_V1.0.2/MSDK/plf/src\gd32vw55x_platform.c ****     rcu_periph_reset_enable(RCU_BLERST);
 661              		.loc 1 294 5
 662 0016 1305F041 		li	a0,1055
 663 001a 97000000 		call	rcu_periph_reset_enable
 663      E7800000 
 664              	.LVL53:
 295:C:/Users/stapi/OneDrive/Desktop/GD32VW553/V1_MQTT_OK/GD32VW55X_Wifi_BLE_SDK/GD32VW55x_RELEASE_V1.0.2/MSDK/plf/src\gd32vw55x_platform.c ****     rcu_periph_reset_disable(RCU_BLERST);
 665              		.loc 1 295 5
 666 0022 1305F041 		li	a0,1055
 667 0026 97000000 		call	rcu_periph_reset_disable
 667      E7800000 
 668              	.LVL54:
 296:C:/Users/stapi/OneDrive/Desktop/GD32VW553/V1_MQTT_OK/GD32VW55X_Wifi_BLE_SDK/GD32VW55x_RELEASE_V1.0.2/MSDK/plf/src\gd32vw55x_platform.c **** 
 297:C:/Users/stapi/OneDrive/Desktop/GD32VW553/V1_MQTT_OK/GD32VW55X_Wifi_BLE_SDK/GD32VW55x_RELEASE_V1.0.2/MSDK/plf/src\gd32vw55x_platform.c **** }
 669              		.loc 1 297 1 is_stmt 0
 670 002e 17030000 		tail	__riscv_restore_0
 670      67000300 
 671              		.cfi_restore 1
 672              		.cfi_def_cfa_offset 0
 673              		.cfi_endproc
 674              	.LFE389:
 676              		.section	.text.ble_power_status_en,"ax",@progbits
 677              		.align	1
 678              		.globl	ble_power_status_en
 680              	ble_power_status_en:
 681              	.LFB390:
 298:C:/Users/stapi/OneDrive/Desktop/GD32VW553/V1_MQTT_OK/GD32VW55X_Wifi_BLE_SDK/GD32VW55x_RELEASE_V1.0.2/MSDK/plf/src\gd32vw55x_platform.c **** 
 299:C:/Users/stapi/OneDrive/Desktop/GD32VW553/V1_MQTT_OK/GD32VW55X_Wifi_BLE_SDK/GD32VW55x_RELEASE_V1.0.2/MSDK/plf/src\gd32vw55x_platform.c **** void ble_power_status_en(void)
 300:C:/Users/stapi/OneDrive/Desktop/GD32VW553/V1_MQTT_OK/GD32VW55X_Wifi_BLE_SDK/GD32VW55x_RELEASE_V1.0.2/MSDK/plf/src\gd32vw55x_platform.c **** {
 682              		.loc 1 300 1 is_stmt 1
 683              		.cfi_startproc
 684 0000 17030000 		call	t0,__riscv_save_0
 684      E7020300 
 685              		.cfi_offset 1, -4
 686              		.cfi_def_cfa_offset 16
 301:C:/Users/stapi/OneDrive/Desktop/GD32VW553/V1_MQTT_OK/GD32VW55X_Wifi_BLE_SDK/GD32VW55x_RELEASE_V1.0.2/MSDK/plf/src\gd32vw55x_platform.c ****     pmu_interrupt_enable(PMU_INT_BLE_POWER_FALL);
 687              		.loc 1 301 5
 688 0008 0545     		li	a0,1
 689 000a 97000000 		call	pmu_interrupt_enable
 689      E7800000 
 690              	.LVL55:
 302:C:/Users/stapi/OneDrive/Desktop/GD32VW553/V1_MQTT_OK/GD32VW55X_Wifi_BLE_SDK/GD32VW55x_RELEASE_V1.0.2/MSDK/plf/src\gd32vw55x_platform.c ****     pmu_interrupt_enable(PMU_INT_BLE_POWER_RISE);
 691              		.loc 1 302 5
 692 0012 0945     		li	a0,2
 693 0014 97000000 		call	pmu_interrupt_enable
 693      E7800000 
 694              	.LVL56:
 303:C:/Users/stapi/OneDrive/Desktop/GD32VW553/V1_MQTT_OK/GD32VW55X_Wifi_BLE_SDK/GD32VW55x_RELEASE_V1.0.2/MSDK/plf/src\gd32vw55x_platform.c **** }
 695              		.loc 1 303 1 is_stmt 0
 696 001c 17030000 		tail	__riscv_restore_0
 696      67000300 
 697              		.cfi_restore 1
 698              		.cfi_def_cfa_offset 0
 699              		.cfi_endproc
 700              	.LFE390:
 702              		.section	.text.ble_power_status_rise_status,"ax",@progbits
 703              		.align	1
 704              		.globl	ble_power_status_rise_status
 706              	ble_power_status_rise_status:
 707              	.LFB391:
 304:C:/Users/stapi/OneDrive/Desktop/GD32VW553/V1_MQTT_OK/GD32VW55X_Wifi_BLE_SDK/GD32VW55x_RELEASE_V1.0.2/MSDK/plf/src\gd32vw55x_platform.c **** 
 305:C:/Users/stapi/OneDrive/Desktop/GD32VW553/V1_MQTT_OK/GD32VW55X_Wifi_BLE_SDK/GD32VW55x_RELEASE_V1.0.2/MSDK/plf/src\gd32vw55x_platform.c **** uint32_t ble_power_status_rise_status(void)
 306:C:/Users/stapi/OneDrive/Desktop/GD32VW553/V1_MQTT_OK/GD32VW55X_Wifi_BLE_SDK/GD32VW55x_RELEASE_V1.0.2/MSDK/plf/src\gd32vw55x_platform.c **** {
 708              		.loc 1 306 1 is_stmt 1
 709              		.cfi_startproc
 710 0000 17030000 		call	t0,__riscv_save_0
 710      E7020300 
 711              		.cfi_offset 1, -4
 712              		.cfi_def_cfa_offset 16
 307:C:/Users/stapi/OneDrive/Desktop/GD32VW553/V1_MQTT_OK/GD32VW55X_Wifi_BLE_SDK/GD32VW55x_RELEASE_V1.0.2/MSDK/plf/src\gd32vw55x_platform.c ****     return pmu_interrupt_flag_get(PMU_INT_FLAG_BLE_POWER_RISE) == SET;
 713              		.loc 1 307 5
 714              		.loc 1 307 12 is_stmt 0
 715 0008 0945     		li	a0,2
 716 000a 97000000 		call	pmu_interrupt_flag_get
 716      E7800000 
 717              	.LVL57:
 718              		.loc 1 307 64
 719 0012 7D15     		addi	a0,a0,-1
 308:C:/Users/stapi/OneDrive/Desktop/GD32VW553/V1_MQTT_OK/GD32VW55X_Wifi_BLE_SDK/GD32VW55x_RELEASE_V1.0.2/MSDK/plf/src\gd32vw55x_platform.c **** }
 720              		.loc 1 308 1
 721 0014 13351500 		seqz	a0,a0
 722 0018 17030000 		tail	__riscv_restore_0
 722      67000300 
 723              		.cfi_restore 1
 724              		.cfi_def_cfa_offset 0
 725              		.cfi_endproc
 726              	.LFE391:
 728              		.section	.text.ble_power_status_rise_clear,"ax",@progbits
 729              		.align	1
 730              		.globl	ble_power_status_rise_clear
 732              	ble_power_status_rise_clear:
 733              	.LFB392:
 309:C:/Users/stapi/OneDrive/Desktop/GD32VW553/V1_MQTT_OK/GD32VW55X_Wifi_BLE_SDK/GD32VW55x_RELEASE_V1.0.2/MSDK/plf/src\gd32vw55x_platform.c **** 
 310:C:/Users/stapi/OneDrive/Desktop/GD32VW553/V1_MQTT_OK/GD32VW55X_Wifi_BLE_SDK/GD32VW55x_RELEASE_V1.0.2/MSDK/plf/src\gd32vw55x_platform.c **** void ble_power_status_rise_clear(void)
 311:C:/Users/stapi/OneDrive/Desktop/GD32VW553/V1_MQTT_OK/GD32VW55X_Wifi_BLE_SDK/GD32VW55x_RELEASE_V1.0.2/MSDK/plf/src\gd32vw55x_platform.c **** {
 734              		.loc 1 311 1 is_stmt 1
 735              		.cfi_startproc
 312:C:/Users/stapi/OneDrive/Desktop/GD32VW553/V1_MQTT_OK/GD32VW55X_Wifi_BLE_SDK/GD32VW55x_RELEASE_V1.0.2/MSDK/plf/src\gd32vw55x_platform.c ****     pmu_interrupt_flag_clear(PMU_INT_FLAG_RESET_BLE_POWER_RISE);
 736              		.loc 1 312 5
 737 0000 0945     		li	a0,2
 738 0002 17030000 		tail	pmu_interrupt_flag_clear
 738      67000300 
 739              	.LVL58:
 740              		.cfi_endproc
 741              	.LFE392:
 743              		.section	.text.ble_power_status_fall_status,"ax",@progbits
 744              		.align	1
 745              		.globl	ble_power_status_fall_status
 747              	ble_power_status_fall_status:
 748              	.LFB393:
 313:C:/Users/stapi/OneDrive/Desktop/GD32VW553/V1_MQTT_OK/GD32VW55X_Wifi_BLE_SDK/GD32VW55x_RELEASE_V1.0.2/MSDK/plf/src\gd32vw55x_platform.c **** }
 314:C:/Users/stapi/OneDrive/Desktop/GD32VW553/V1_MQTT_OK/GD32VW55X_Wifi_BLE_SDK/GD32VW55x_RELEASE_V1.0.2/MSDK/plf/src\gd32vw55x_platform.c **** 
 315:C:/Users/stapi/OneDrive/Desktop/GD32VW553/V1_MQTT_OK/GD32VW55X_Wifi_BLE_SDK/GD32VW55x_RELEASE_V1.0.2/MSDK/plf/src\gd32vw55x_platform.c **** uint32_t ble_power_status_fall_status(void)
 316:C:/Users/stapi/OneDrive/Desktop/GD32VW553/V1_MQTT_OK/GD32VW55X_Wifi_BLE_SDK/GD32VW55x_RELEASE_V1.0.2/MSDK/plf/src\gd32vw55x_platform.c **** {
 749              		.loc 1 316 1
 750              		.cfi_startproc
 751 0000 17030000 		call	t0,__riscv_save_0
 751      E7020300 
 752              		.cfi_offset 1, -4
 753              		.cfi_def_cfa_offset 16
 317:C:/Users/stapi/OneDrive/Desktop/GD32VW553/V1_MQTT_OK/GD32VW55X_Wifi_BLE_SDK/GD32VW55x_RELEASE_V1.0.2/MSDK/plf/src\gd32vw55x_platform.c ****     return pmu_interrupt_flag_get(PMU_INT_FLAG_BLE_POWER_FALL) == SET;
 754              		.loc 1 317 5
 755              		.loc 1 317 12 is_stmt 0
 756 0008 0545     		li	a0,1
 757 000a 97000000 		call	pmu_interrupt_flag_get
 757      E7800000 
 758              	.LVL59:
 759              		.loc 1 317 64
 760 0012 7D15     		addi	a0,a0,-1
 318:C:/Users/stapi/OneDrive/Desktop/GD32VW553/V1_MQTT_OK/GD32VW55X_Wifi_BLE_SDK/GD32VW55x_RELEASE_V1.0.2/MSDK/plf/src\gd32vw55x_platform.c **** }
 761              		.loc 1 318 1
 762 0014 13351500 		seqz	a0,a0
 763 0018 17030000 		tail	__riscv_restore_0
 763      67000300 
 764              		.cfi_restore 1
 765              		.cfi_def_cfa_offset 0
 766              		.cfi_endproc
 767              	.LFE393:
 769              		.section	.text.ble_power_status_fall_clear,"ax",@progbits
 770              		.align	1
 771              		.globl	ble_power_status_fall_clear
 773              	ble_power_status_fall_clear:
 774              	.LFB394:
 319:C:/Users/stapi/OneDrive/Desktop/GD32VW553/V1_MQTT_OK/GD32VW55X_Wifi_BLE_SDK/GD32VW55x_RELEASE_V1.0.2/MSDK/plf/src\gd32vw55x_platform.c **** 
 320:C:/Users/stapi/OneDrive/Desktop/GD32VW553/V1_MQTT_OK/GD32VW55X_Wifi_BLE_SDK/GD32VW55x_RELEASE_V1.0.2/MSDK/plf/src\gd32vw55x_platform.c **** void ble_power_status_fall_clear(void)
 321:C:/Users/stapi/OneDrive/Desktop/GD32VW553/V1_MQTT_OK/GD32VW55X_Wifi_BLE_SDK/GD32VW55x_RELEASE_V1.0.2/MSDK/plf/src\gd32vw55x_platform.c **** {
 775              		.loc 1 321 1 is_stmt 1
 776              		.cfi_startproc
 322:C:/Users/stapi/OneDrive/Desktop/GD32VW553/V1_MQTT_OK/GD32VW55X_Wifi_BLE_SDK/GD32VW55x_RELEASE_V1.0.2/MSDK/plf/src\gd32vw55x_platform.c ****     pmu_interrupt_flag_clear(PMU_INT_FLAG_RESET_BLE_POWER_FALL);
 777              		.loc 1 322 5
 778 0000 0545     		li	a0,1
 779 0002 17030000 		tail	pmu_interrupt_flag_clear
 779      67000300 
 780              	.LVL60:
 781              		.cfi_endproc
 782              	.LFE394:
 784              		.section	.text.ble_external_wakeup,"ax",@progbits
 785              		.align	1
 786              		.globl	ble_external_wakeup
 788              	ble_external_wakeup:
 789              	.LFB395:
 323:C:/Users/stapi/OneDrive/Desktop/GD32VW553/V1_MQTT_OK/GD32VW55X_Wifi_BLE_SDK/GD32VW55x_RELEASE_V1.0.2/MSDK/plf/src\gd32vw55x_platform.c **** }
 324:C:/Users/stapi/OneDrive/Desktop/GD32VW553/V1_MQTT_OK/GD32VW55X_Wifi_BLE_SDK/GD32VW55x_RELEASE_V1.0.2/MSDK/plf/src\gd32vw55x_platform.c **** 
 325:C:/Users/stapi/OneDrive/Desktop/GD32VW553/V1_MQTT_OK/GD32VW55X_Wifi_BLE_SDK/GD32VW55x_RELEASE_V1.0.2/MSDK/plf/src\gd32vw55x_platform.c **** void ble_external_wakeup(void)
 326:C:/Users/stapi/OneDrive/Desktop/GD32VW553/V1_MQTT_OK/GD32VW55X_Wifi_BLE_SDK/GD32VW55x_RELEASE_V1.0.2/MSDK/plf/src\gd32vw55x_platform.c **** {
 790              		.loc 1 326 1
 791              		.cfi_startproc
 327:C:/Users/stapi/OneDrive/Desktop/GD32VW553/V1_MQTT_OK/GD32VW55X_Wifi_BLE_SDK/GD32VW55x_RELEASE_V1.0.2/MSDK/plf/src\gd32vw55x_platform.c ****     pmu_ble_wakeup_request_enable();
 792              		.loc 1 327 5
 793 0000 17030000 		tail	pmu_ble_wakeup_request_enable
 793      67000300 
 794              	.LVL61:
 795              		.cfi_endproc
 796              	.LFE395:
 798              		.section	.text.ble_external_wakeup_clear,"ax",@progbits
 799              		.align	1
 800              		.globl	ble_external_wakeup_clear
 802              	ble_external_wakeup_clear:
 803              	.LFB396:
 328:C:/Users/stapi/OneDrive/Desktop/GD32VW553/V1_MQTT_OK/GD32VW55X_Wifi_BLE_SDK/GD32VW55x_RELEASE_V1.0.2/MSDK/plf/src\gd32vw55x_platform.c **** }
 329:C:/Users/stapi/OneDrive/Desktop/GD32VW553/V1_MQTT_OK/GD32VW55X_Wifi_BLE_SDK/GD32VW55x_RELEASE_V1.0.2/MSDK/plf/src\gd32vw55x_platform.c **** 
 330:C:/Users/stapi/OneDrive/Desktop/GD32VW553/V1_MQTT_OK/GD32VW55X_Wifi_BLE_SDK/GD32VW55x_RELEASE_V1.0.2/MSDK/plf/src\gd32vw55x_platform.c **** void ble_external_wakeup_clear(void)
 331:C:/Users/stapi/OneDrive/Desktop/GD32VW553/V1_MQTT_OK/GD32VW55X_Wifi_BLE_SDK/GD32VW55x_RELEASE_V1.0.2/MSDK/plf/src\gd32vw55x_platform.c **** {
 804              		.loc 1 331 1
 805              		.cfi_startproc
 332:C:/Users/stapi/OneDrive/Desktop/GD32VW553/V1_MQTT_OK/GD32VW55X_Wifi_BLE_SDK/GD32VW55x_RELEASE_V1.0.2/MSDK/plf/src\gd32vw55x_platform.c ****     pmu_ble_wakeup_request_disable();
 806              		.loc 1 332 5
 807 0000 17030000 		tail	pmu_ble_wakeup_request_disable
 807      67000300 
 808              	.LVL62:
 809              		.cfi_endproc
 810              	.LFE396:
 812              		.section	.text.ble_sleep_measure_clock_get,"ax",@progbits
 813              		.align	1
 814              		.globl	ble_sleep_measure_clock_get
 816              	ble_sleep_measure_clock_get:
 817              	.LFB397:
 333:C:/Users/stapi/OneDrive/Desktop/GD32VW553/V1_MQTT_OK/GD32VW55X_Wifi_BLE_SDK/GD32VW55x_RELEASE_V1.0.2/MSDK/plf/src\gd32vw55x_platform.c **** }
 334:C:/Users/stapi/OneDrive/Desktop/GD32VW553/V1_MQTT_OK/GD32VW55X_Wifi_BLE_SDK/GD32VW55x_RELEASE_V1.0.2/MSDK/plf/src\gd32vw55x_platform.c **** 
 335:C:/Users/stapi/OneDrive/Desktop/GD32VW553/V1_MQTT_OK/GD32VW55X_Wifi_BLE_SDK/GD32VW55x_RELEASE_V1.0.2/MSDK/plf/src\gd32vw55x_platform.c **** uint32_t ble_sleep_measure_clock_get(void)
 336:C:/Users/stapi/OneDrive/Desktop/GD32VW553/V1_MQTT_OK/GD32VW55X_Wifi_BLE_SDK/GD32VW55x_RELEASE_V1.0.2/MSDK/plf/src\gd32vw55x_platform.c **** {
 818              		.loc 1 336 1
 819              		.cfi_startproc
 337:C:/Users/stapi/OneDrive/Desktop/GD32VW553/V1_MQTT_OK/GD32VW55X_Wifi_BLE_SDK/GD32VW55x_RELEASE_V1.0.2/MSDK/plf/src\gd32vw55x_platform.c **** #ifdef CONFIG_PLATFORM_FPGA
 338:C:/Users/stapi/OneDrive/Desktop/GD32VW553/V1_MQTT_OK/GD32VW55X_Wifi_BLE_SDK/GD32VW55x_RELEASE_V1.0.2/MSDK/plf/src\gd32vw55x_platform.c ****     return rcu_clock_freq_get(CK_SYS);
 339:C:/Users/stapi/OneDrive/Desktop/GD32VW553/V1_MQTT_OK/GD32VW55X_Wifi_BLE_SDK/GD32VW55x_RELEASE_V1.0.2/MSDK/plf/src\gd32vw55x_platform.c **** #else
 340:C:/Users/stapi/OneDrive/Desktop/GD32VW553/V1_MQTT_OK/GD32VW55X_Wifi_BLE_SDK/GD32VW55x_RELEASE_V1.0.2/MSDK/plf/src\gd32vw55x_platform.c ****     return rcu_clock_freq_get(CK_APB1);
 820              		.loc 1 340 5
 821              		.loc 1 340 12 is_stmt 0
 822 0000 0945     		li	a0,2
 823 0002 17030000 		tail	rcu_clock_freq_get
 823      67000300 
 824              	.LVL63:
 825              		.cfi_endproc
 826              	.LFE397:
 828              		.section	.text.ble_power_on,"ax",@progbits
 829              		.align	1
 830              		.globl	ble_power_on
 832              	ble_power_on:
 833              	.LFB399:
 341:C:/Users/stapi/OneDrive/Desktop/GD32VW553/V1_MQTT_OK/GD32VW55X_Wifi_BLE_SDK/GD32VW55x_RELEASE_V1.0.2/MSDK/plf/src\gd32vw55x_platform.c **** #endif
 342:C:/Users/stapi/OneDrive/Desktop/GD32VW553/V1_MQTT_OK/GD32VW55X_Wifi_BLE_SDK/GD32VW55x_RELEASE_V1.0.2/MSDK/plf/src\gd32vw55x_platform.c **** }
 343:C:/Users/stapi/OneDrive/Desktop/GD32VW553/V1_MQTT_OK/GD32VW55X_Wifi_BLE_SDK/GD32VW55x_RELEASE_V1.0.2/MSDK/plf/src\gd32vw55x_platform.c **** 
 344:C:/Users/stapi/OneDrive/Desktop/GD32VW553/V1_MQTT_OK/GD32VW55X_Wifi_BLE_SDK/GD32VW55x_RELEASE_V1.0.2/MSDK/plf/src\gd32vw55x_platform.c **** static void ble_irq_enable(void)
 345:C:/Users/stapi/OneDrive/Desktop/GD32VW553/V1_MQTT_OK/GD32VW55X_Wifi_BLE_SDK/GD32VW55x_RELEASE_V1.0.2/MSDK/plf/src\gd32vw55x_platform.c **** {
 346:C:/Users/stapi/OneDrive/Desktop/GD32VW553/V1_MQTT_OK/GD32VW55X_Wifi_BLE_SDK/GD32VW55x_RELEASE_V1.0.2/MSDK/plf/src\gd32vw55x_platform.c ****     /* exti interrupt wake up the cpu from deep sleep state */
 347:C:/Users/stapi/OneDrive/Desktop/GD32VW553/V1_MQTT_OK/GD32VW55X_Wifi_BLE_SDK/GD32VW55x_RELEASE_V1.0.2/MSDK/plf/src\gd32vw55x_platform.c ****     eclic_irq_enable(BLE_WKUP_IRQn, 12, 0);
 348:C:/Users/stapi/OneDrive/Desktop/GD32VW553/V1_MQTT_OK/GD32VW55X_Wifi_BLE_SDK/GD32VW55x_RELEASE_V1.0.2/MSDK/plf/src\gd32vw55x_platform.c **** 
 349:C:/Users/stapi/OneDrive/Desktop/GD32VW553/V1_MQTT_OK/GD32VW55X_Wifi_BLE_SDK/GD32VW55x_RELEASE_V1.0.2/MSDK/plf/src\gd32vw55x_platform.c **** #ifdef CONFIG_PLATFORM_ASIC
 350:C:/Users/stapi/OneDrive/Desktop/GD32VW553/V1_MQTT_OK/GD32VW55X_Wifi_BLE_SDK/GD32VW55x_RELEASE_V1.0.2/MSDK/plf/src\gd32vw55x_platform.c ****     eclic_irq_enable(USART0_IRQn, 8, 0);
 351:C:/Users/stapi/OneDrive/Desktop/GD32VW553/V1_MQTT_OK/GD32VW55X_Wifi_BLE_SDK/GD32VW55x_RELEASE_V1.0.2/MSDK/plf/src\gd32vw55x_platform.c **** #endif
 352:C:/Users/stapi/OneDrive/Desktop/GD32VW553/V1_MQTT_OK/GD32VW55X_Wifi_BLE_SDK/GD32VW55x_RELEASE_V1.0.2/MSDK/plf/src\gd32vw55x_platform.c **** 
 353:C:/Users/stapi/OneDrive/Desktop/GD32VW553/V1_MQTT_OK/GD32VW55X_Wifi_BLE_SDK/GD32VW55x_RELEASE_V1.0.2/MSDK/plf/src\gd32vw55x_platform.c **** #ifdef HCI_UART_RX_DMA
 354:C:/Users/stapi/OneDrive/Desktop/GD32VW553/V1_MQTT_OK/GD32VW55X_Wifi_BLE_SDK/GD32VW55x_RELEASE_V1.0.2/MSDK/plf/src\gd32vw55x_platform.c ****     eclic_irq_enable(DMA_Channel5_IRQn, 8, 0);
 355:C:/Users/stapi/OneDrive/Desktop/GD32VW553/V1_MQTT_OK/GD32VW55X_Wifi_BLE_SDK/GD32VW55x_RELEASE_V1.0.2/MSDK/plf/src\gd32vw55x_platform.c **** #endif
 356:C:/Users/stapi/OneDrive/Desktop/GD32VW553/V1_MQTT_OK/GD32VW55X_Wifi_BLE_SDK/GD32VW55x_RELEASE_V1.0.2/MSDK/plf/src\gd32vw55x_platform.c **** 
 357:C:/Users/stapi/OneDrive/Desktop/GD32VW553/V1_MQTT_OK/GD32VW55X_Wifi_BLE_SDK/GD32VW55x_RELEASE_V1.0.2/MSDK/plf/src\gd32vw55x_platform.c ****     /* ble ps requires low interrupt processing latency for pmu, the interrupt priority is higher t
 358:C:/Users/stapi/OneDrive/Desktop/GD32VW553/V1_MQTT_OK/GD32VW55X_Wifi_BLE_SDK/GD32VW55x_RELEASE_V1.0.2/MSDK/plf/src\gd32vw55x_platform.c ****     eclic_irq_enable(BLE_POWER_STATUS_IRQn, 11, 0);
 359:C:/Users/stapi/OneDrive/Desktop/GD32VW553/V1_MQTT_OK/GD32VW55X_Wifi_BLE_SDK/GD32VW55x_RELEASE_V1.0.2/MSDK/plf/src\gd32vw55x_platform.c **** 
 360:C:/Users/stapi/OneDrive/Desktop/GD32VW553/V1_MQTT_OK/GD32VW55X_Wifi_BLE_SDK/GD32VW55x_RELEASE_V1.0.2/MSDK/plf/src\gd32vw55x_platform.c ****     eclic_irq_enable(BLE_SW_TRIG_IRQn, 8, 0);
 361:C:/Users/stapi/OneDrive/Desktop/GD32VW553/V1_MQTT_OK/GD32VW55X_Wifi_BLE_SDK/GD32VW55x_RELEASE_V1.0.2/MSDK/plf/src\gd32vw55x_platform.c ****     ECLIC_SetTrigIRQ(BLE_SW_TRIG_IRQn, ECLIC_POSTIVE_EDGE_TRIGGER);
 362:C:/Users/stapi/OneDrive/Desktop/GD32VW553/V1_MQTT_OK/GD32VW55X_Wifi_BLE_SDK/GD32VW55x_RELEASE_V1.0.2/MSDK/plf/src\gd32vw55x_platform.c **** 
 363:C:/Users/stapi/OneDrive/Desktop/GD32VW553/V1_MQTT_OK/GD32VW55X_Wifi_BLE_SDK/GD32VW55x_RELEASE_V1.0.2/MSDK/plf/src\gd32vw55x_platform.c ****     eclic_irq_enable(BLE_HALF_SLOT_IRQn, 8, 0);
 364:C:/Users/stapi/OneDrive/Desktop/GD32VW553/V1_MQTT_OK/GD32VW55X_Wifi_BLE_SDK/GD32VW55x_RELEASE_V1.0.2/MSDK/plf/src\gd32vw55x_platform.c ****     ECLIC_SetTrigIRQ(BLE_HALF_SLOT_IRQn, ECLIC_POSTIVE_EDGE_TRIGGER);
 365:C:/Users/stapi/OneDrive/Desktop/GD32VW553/V1_MQTT_OK/GD32VW55X_Wifi_BLE_SDK/GD32VW55x_RELEASE_V1.0.2/MSDK/plf/src\gd32vw55x_platform.c **** 
 366:C:/Users/stapi/OneDrive/Desktop/GD32VW553/V1_MQTT_OK/GD32VW55X_Wifi_BLE_SDK/GD32VW55x_RELEASE_V1.0.2/MSDK/plf/src\gd32vw55x_platform.c ****     eclic_irq_enable(BLE_SLEEP_MODE_IRQn, 8, 0);
 367:C:/Users/stapi/OneDrive/Desktop/GD32VW553/V1_MQTT_OK/GD32VW55X_Wifi_BLE_SDK/GD32VW55x_RELEASE_V1.0.2/MSDK/plf/src\gd32vw55x_platform.c ****     ECLIC_SetTrigIRQ(BLE_SLEEP_MODE_IRQn, ECLIC_POSTIVE_EDGE_TRIGGER);
 368:C:/Users/stapi/OneDrive/Desktop/GD32VW553/V1_MQTT_OK/GD32VW55X_Wifi_BLE_SDK/GD32VW55x_RELEASE_V1.0.2/MSDK/plf/src\gd32vw55x_platform.c **** 
 369:C:/Users/stapi/OneDrive/Desktop/GD32VW553/V1_MQTT_OK/GD32VW55X_Wifi_BLE_SDK/GD32VW55x_RELEASE_V1.0.2/MSDK/plf/src\gd32vw55x_platform.c ****     eclic_irq_enable(BLE_ENCRYPTION_ENGINE_IRQn, 8, 0);
 370:C:/Users/stapi/OneDrive/Desktop/GD32VW553/V1_MQTT_OK/GD32VW55X_Wifi_BLE_SDK/GD32VW55x_RELEASE_V1.0.2/MSDK/plf/src\gd32vw55x_platform.c ****     ECLIC_SetTrigIRQ(BLE_ENCRYPTION_ENGINE_IRQn, ECLIC_POSTIVE_EDGE_TRIGGER);
 371:C:/Users/stapi/OneDrive/Desktop/GD32VW553/V1_MQTT_OK/GD32VW55X_Wifi_BLE_SDK/GD32VW55x_RELEASE_V1.0.2/MSDK/plf/src\gd32vw55x_platform.c **** 
 372:C:/Users/stapi/OneDrive/Desktop/GD32VW553/V1_MQTT_OK/GD32VW55X_Wifi_BLE_SDK/GD32VW55x_RELEASE_V1.0.2/MSDK/plf/src\gd32vw55x_platform.c ****     eclic_irq_enable(BLE_FINE_TIMER_TARGET_IRQn, 8, 0);
 373:C:/Users/stapi/OneDrive/Desktop/GD32VW553/V1_MQTT_OK/GD32VW55X_Wifi_BLE_SDK/GD32VW55x_RELEASE_V1.0.2/MSDK/plf/src\gd32vw55x_platform.c ****     ECLIC_SetTrigIRQ(BLE_FINE_TIMER_TARGET_IRQn, ECLIC_POSTIVE_EDGE_TRIGGER);
 374:C:/Users/stapi/OneDrive/Desktop/GD32VW553/V1_MQTT_OK/GD32VW55X_Wifi_BLE_SDK/GD32VW55x_RELEASE_V1.0.2/MSDK/plf/src\gd32vw55x_platform.c **** 
 375:C:/Users/stapi/OneDrive/Desktop/GD32VW553/V1_MQTT_OK/GD32VW55X_Wifi_BLE_SDK/GD32VW55x_RELEASE_V1.0.2/MSDK/plf/src\gd32vw55x_platform.c ****     eclic_irq_enable(BLE_STAMP_TARGET1_IRQn, 8, 0);
 376:C:/Users/stapi/OneDrive/Desktop/GD32VW553/V1_MQTT_OK/GD32VW55X_Wifi_BLE_SDK/GD32VW55x_RELEASE_V1.0.2/MSDK/plf/src\gd32vw55x_platform.c ****     ECLIC_SetTrigIRQ(BLE_STAMP_TARGET1_IRQn, ECLIC_POSTIVE_EDGE_TRIGGER);
 377:C:/Users/stapi/OneDrive/Desktop/GD32VW553/V1_MQTT_OK/GD32VW55X_Wifi_BLE_SDK/GD32VW55x_RELEASE_V1.0.2/MSDK/plf/src\gd32vw55x_platform.c **** 
 378:C:/Users/stapi/OneDrive/Desktop/GD32VW553/V1_MQTT_OK/GD32VW55X_Wifi_BLE_SDK/GD32VW55x_RELEASE_V1.0.2/MSDK/plf/src\gd32vw55x_platform.c ****     eclic_irq_enable(BLE_STAMP_TARGET2_IRQn, 8, 0);
 379:C:/Users/stapi/OneDrive/Desktop/GD32VW553/V1_MQTT_OK/GD32VW55X_Wifi_BLE_SDK/GD32VW55x_RELEASE_V1.0.2/MSDK/plf/src\gd32vw55x_platform.c ****     ECLIC_SetTrigIRQ(BLE_STAMP_TARGET2_IRQn, ECLIC_POSTIVE_EDGE_TRIGGER);
 380:C:/Users/stapi/OneDrive/Desktop/GD32VW553/V1_MQTT_OK/GD32VW55X_Wifi_BLE_SDK/GD32VW55x_RELEASE_V1.0.2/MSDK/plf/src\gd32vw55x_platform.c **** 
 381:C:/Users/stapi/OneDrive/Desktop/GD32VW553/V1_MQTT_OK/GD32VW55X_Wifi_BLE_SDK/GD32VW55x_RELEASE_V1.0.2/MSDK/plf/src\gd32vw55x_platform.c ****     eclic_irq_enable(BLE_STAMP_TARGET3_IRQn, 8, 0);
 382:C:/Users/stapi/OneDrive/Desktop/GD32VW553/V1_MQTT_OK/GD32VW55X_Wifi_BLE_SDK/GD32VW55x_RELEASE_V1.0.2/MSDK/plf/src\gd32vw55x_platform.c ****     ECLIC_SetTrigIRQ(BLE_STAMP_TARGET3_IRQn, ECLIC_POSTIVE_EDGE_TRIGGER);
 383:C:/Users/stapi/OneDrive/Desktop/GD32VW553/V1_MQTT_OK/GD32VW55X_Wifi_BLE_SDK/GD32VW55x_RELEASE_V1.0.2/MSDK/plf/src\gd32vw55x_platform.c **** 
 384:C:/Users/stapi/OneDrive/Desktop/GD32VW553/V1_MQTT_OK/GD32VW55X_Wifi_BLE_SDK/GD32VW55x_RELEASE_V1.0.2/MSDK/plf/src\gd32vw55x_platform.c ****     eclic_irq_enable(BLE_FREQ_SELECT_IRQn, 8, 0);
 385:C:/Users/stapi/OneDrive/Desktop/GD32VW553/V1_MQTT_OK/GD32VW55X_Wifi_BLE_SDK/GD32VW55x_RELEASE_V1.0.2/MSDK/plf/src\gd32vw55x_platform.c ****     ECLIC_SetTrigIRQ(BLE_FREQ_SELECT_IRQn, ECLIC_POSTIVE_EDGE_TRIGGER);
 386:C:/Users/stapi/OneDrive/Desktop/GD32VW553/V1_MQTT_OK/GD32VW55X_Wifi_BLE_SDK/GD32VW55x_RELEASE_V1.0.2/MSDK/plf/src\gd32vw55x_platform.c **** 
 387:C:/Users/stapi/OneDrive/Desktop/GD32VW553/V1_MQTT_OK/GD32VW55X_Wifi_BLE_SDK/GD32VW55x_RELEASE_V1.0.2/MSDK/plf/src\gd32vw55x_platform.c ****     eclic_irq_enable(BLE_ERROR_IRQn, 8, 0);
 388:C:/Users/stapi/OneDrive/Desktop/GD32VW553/V1_MQTT_OK/GD32VW55X_Wifi_BLE_SDK/GD32VW55x_RELEASE_V1.0.2/MSDK/plf/src\gd32vw55x_platform.c ****     ECLIC_SetTrigIRQ(BLE_ERROR_IRQn, ECLIC_POSTIVE_EDGE_TRIGGER);
 389:C:/Users/stapi/OneDrive/Desktop/GD32VW553/V1_MQTT_OK/GD32VW55X_Wifi_BLE_SDK/GD32VW55x_RELEASE_V1.0.2/MSDK/plf/src\gd32vw55x_platform.c **** 
 390:C:/Users/stapi/OneDrive/Desktop/GD32VW553/V1_MQTT_OK/GD32VW55X_Wifi_BLE_SDK/GD32VW55x_RELEASE_V1.0.2/MSDK/plf/src\gd32vw55x_platform.c ****     eclic_irq_enable(BLE_FIFO_ACTIVITY_IRQn, 8, 0);
 391:C:/Users/stapi/OneDrive/Desktop/GD32VW553/V1_MQTT_OK/GD32VW55X_Wifi_BLE_SDK/GD32VW55x_RELEASE_V1.0.2/MSDK/plf/src\gd32vw55x_platform.c ****     ECLIC_SetTrigIRQ(BLE_FIFO_ACTIVITY_IRQn, ECLIC_POSTIVE_EDGE_TRIGGER);
 392:C:/Users/stapi/OneDrive/Desktop/GD32VW553/V1_MQTT_OK/GD32VW55X_Wifi_BLE_SDK/GD32VW55x_RELEASE_V1.0.2/MSDK/plf/src\gd32vw55x_platform.c **** }
 393:C:/Users/stapi/OneDrive/Desktop/GD32VW553/V1_MQTT_OK/GD32VW55X_Wifi_BLE_SDK/GD32VW55x_RELEASE_V1.0.2/MSDK/plf/src\gd32vw55x_platform.c **** 
 394:C:/Users/stapi/OneDrive/Desktop/GD32VW553/V1_MQTT_OK/GD32VW55X_Wifi_BLE_SDK/GD32VW55x_RELEASE_V1.0.2/MSDK/plf/src\gd32vw55x_platform.c **** void ble_power_on(void)
 395:C:/Users/stapi/OneDrive/Desktop/GD32VW553/V1_MQTT_OK/GD32VW55X_Wifi_BLE_SDK/GD32VW55x_RELEASE_V1.0.2/MSDK/plf/src\gd32vw55x_platform.c **** {
 834              		.loc 1 395 1 is_stmt 1
 835              		.cfi_startproc
 836 0000 17030000 		call	t0,__riscv_save_0
 836      E7020300 
 837              		.cfi_offset 1, -4
 838              		.cfi_def_cfa_offset 16
 396:C:/Users/stapi/OneDrive/Desktop/GD32VW553/V1_MQTT_OK/GD32VW55X_Wifi_BLE_SDK/GD32VW55x_RELEASE_V1.0.2/MSDK/plf/src\gd32vw55x_platform.c ****     /* ble power on */
 397:C:/Users/stapi/OneDrive/Desktop/GD32VW553/V1_MQTT_OK/GD32VW55X_Wifi_BLE_SDK/GD32VW55x_RELEASE_V1.0.2/MSDK/plf/src\gd32vw55x_platform.c ****     ble_pmu_config(1);
 839              		.loc 1 397 5
 840              	.LVL64:
 841              	.LBB54:
 842              	.LBB55:
 261:C:/Users/stapi/OneDrive/Desktop/GD32VW553/V1_MQTT_OK/GD32VW55X_Wifi_BLE_SDK/GD32VW55x_RELEASE_V1.0.2/MSDK/plf/src\gd32vw55x_platform.c ****         /* if ble is sleep, config power on */
 843              		.loc 1 261 5
 844 0008 97000000 		call	ble_pmu_config.part.0
 844      E7800000 
 845              	.LVL65:
 846              	.LBE55:
 847              	.LBE54:
 398:C:/Users/stapi/OneDrive/Desktop/GD32VW553/V1_MQTT_OK/GD32VW55X_Wifi_BLE_SDK/GD32VW55x_RELEASE_V1.0.2/MSDK/plf/src\gd32vw55x_platform.c ****     /* ble enable and reset */
 399:C:/Users/stapi/OneDrive/Desktop/GD32VW553/V1_MQTT_OK/GD32VW55X_Wifi_BLE_SDK/GD32VW55x_RELEASE_V1.0.2/MSDK/plf/src\gd32vw55x_platform.c ****     ble_rcc_config();
 848              		.loc 1 399 5
 849 0010 97000000 		call	ble_rcc_config
 849      E7800000 
 850              	.LVL66:
 400:C:/Users/stapi/OneDrive/Desktop/GD32VW553/V1_MQTT_OK/GD32VW55X_Wifi_BLE_SDK/GD32VW55x_RELEASE_V1.0.2/MSDK/plf/src\gd32vw55x_platform.c ****     /* ble ps enable, ble core sleep will generate power status interrupt */
 401:C:/Users/stapi/OneDrive/Desktop/GD32VW553/V1_MQTT_OK/GD32VW55X_Wifi_BLE_SDK/GD32VW55x_RELEASE_V1.0.2/MSDK/plf/src\gd32vw55x_platform.c ****     ble_power_status_en();
 851              		.loc 1 401 5
 852 0018 97000000 		call	ble_power_status_en
 852      E7800000 
 853              	.LVL67:
 402:C:/Users/stapi/OneDrive/Desktop/GD32VW553/V1_MQTT_OK/GD32VW55X_Wifi_BLE_SDK/GD32VW55x_RELEASE_V1.0.2/MSDK/plf/src\gd32vw55x_platform.c **** }
 854              		.loc 1 402 1 is_stmt 0
 855 0020 17030000 		tail	__riscv_restore_0
 855      67000300 
 856              		.cfi_restore 1
 857              		.cfi_def_cfa_offset 0
 858              		.cfi_endproc
 859              	.LFE399:
 861              		.section	.text.ble_power_off,"ax",@progbits
 862              		.align	1
 863              		.globl	ble_power_off
 865              	ble_power_off:
 866              	.LFB400:
 403:C:/Users/stapi/OneDrive/Desktop/GD32VW553/V1_MQTT_OK/GD32VW55X_Wifi_BLE_SDK/GD32VW55x_RELEASE_V1.0.2/MSDK/plf/src\gd32vw55x_platform.c **** 
 404:C:/Users/stapi/OneDrive/Desktop/GD32VW553/V1_MQTT_OK/GD32VW55X_Wifi_BLE_SDK/GD32VW55x_RELEASE_V1.0.2/MSDK/plf/src\gd32vw55x_platform.c **** void ble_power_off(void)
 405:C:/Users/stapi/OneDrive/Desktop/GD32VW553/V1_MQTT_OK/GD32VW55X_Wifi_BLE_SDK/GD32VW55x_RELEASE_V1.0.2/MSDK/plf/src\gd32vw55x_platform.c **** {
 867              		.loc 1 405 1 is_stmt 1
 868              		.cfi_startproc
 869 0000 17030000 		call	t0,__riscv_save_0
 869      E7020300 
 870              		.cfi_offset 1, -4
 871              		.cfi_def_cfa_offset 16
 406:C:/Users/stapi/OneDrive/Desktop/GD32VW553/V1_MQTT_OK/GD32VW55X_Wifi_BLE_SDK/GD32VW55x_RELEASE_V1.0.2/MSDK/plf/src\gd32vw55x_platform.c ****     /* ble power off */
 407:C:/Users/stapi/OneDrive/Desktop/GD32VW553/V1_MQTT_OK/GD32VW55X_Wifi_BLE_SDK/GD32VW55x_RELEASE_V1.0.2/MSDK/plf/src\gd32vw55x_platform.c ****     ble_pmu_config(0);
 872              		.loc 1 407 5
 873 0008 0145     		li	a0,0
 874 000a 97000000 		call	ble_pmu_config
 874      E7800000 
 875              	.LVL68:
 408:C:/Users/stapi/OneDrive/Desktop/GD32VW553/V1_MQTT_OK/GD32VW55X_Wifi_BLE_SDK/GD32VW55x_RELEASE_V1.0.2/MSDK/plf/src\gd32vw55x_platform.c **** 
 409:C:/Users/stapi/OneDrive/Desktop/GD32VW553/V1_MQTT_OK/GD32VW55X_Wifi_BLE_SDK/GD32VW55x_RELEASE_V1.0.2/MSDK/plf/src\gd32vw55x_platform.c ****     rcu_periph_clock_disable(RCU_BLE);
 876              		.loc 1 409 5
 877 0012 0565     		li	a0,4096
 878 0014 1305F5C1 		addi	a0,a0,-993
 879 0018 97000000 		call	rcu_periph_clock_disable
 879      E7800000 
 880              	.LVL69:
 410:C:/Users/stapi/OneDrive/Desktop/GD32VW553/V1_MQTT_OK/GD32VW55X_Wifi_BLE_SDK/GD32VW55x_RELEASE_V1.0.2/MSDK/plf/src\gd32vw55x_platform.c **** }
 881              		.loc 1 410 1 is_stmt 0
 882 0020 17030000 		tail	__riscv_restore_0
 882      67000300 
 883              		.cfi_restore 1
 884              		.cfi_def_cfa_offset 0
 885              		.cfi_endproc
 886              	.LFE400:
 888              		.section	.text.hw_crc32_enable,"ax",@progbits
 889              		.align	1
 890              		.globl	hw_crc32_enable
 892              	hw_crc32_enable:
 893              	.LFB401:
 411:C:/Users/stapi/OneDrive/Desktop/GD32VW553/V1_MQTT_OK/GD32VW55X_Wifi_BLE_SDK/GD32VW55x_RELEASE_V1.0.2/MSDK/plf/src\gd32vw55x_platform.c **** 
 412:C:/Users/stapi/OneDrive/Desktop/GD32VW553/V1_MQTT_OK/GD32VW55X_Wifi_BLE_SDK/GD32VW55x_RELEASE_V1.0.2/MSDK/plf/src\gd32vw55x_platform.c **** void hw_crc32_enable(void)
 413:C:/Users/stapi/OneDrive/Desktop/GD32VW553/V1_MQTT_OK/GD32VW55X_Wifi_BLE_SDK/GD32VW55x_RELEASE_V1.0.2/MSDK/plf/src\gd32vw55x_platform.c **** {
 894              		.loc 1 413 1 is_stmt 1
 895              		.cfi_startproc
 896 0000 17030000 		call	t0,__riscv_save_0
 896      E7020300 
 897              		.cfi_offset 1, -4
 898              		.cfi_def_cfa_offset 16
 414:C:/Users/stapi/OneDrive/Desktop/GD32VW553/V1_MQTT_OK/GD32VW55X_Wifi_BLE_SDK/GD32VW55x_RELEASE_V1.0.2/MSDK/plf/src\gd32vw55x_platform.c ****     rcu_periph_clock_enable(RCU_CRC);
 899              		.loc 1 414 5
 900 0008 0565     		li	a0,4096
 901 000a 1305C5C0 		addi	a0,a0,-1012
 902 000e 97000000 		call	rcu_periph_clock_enable
 902      E7800000 
 903              	.LVL70:
 415:C:/Users/stapi/OneDrive/Desktop/GD32VW553/V1_MQTT_OK/GD32VW55X_Wifi_BLE_SDK/GD32VW55x_RELEASE_V1.0.2/MSDK/plf/src\gd32vw55x_platform.c ****     crc_data_register_reset();
 904              		.loc 1 415 5
 905 0016 97000000 		call	crc_data_register_reset
 905      E7800000 
 906              	.LVL71:
 416:C:/Users/stapi/OneDrive/Desktop/GD32VW553/V1_MQTT_OK/GD32VW55X_Wifi_BLE_SDK/GD32VW55x_RELEASE_V1.0.2/MSDK/plf/src\gd32vw55x_platform.c **** }
 907              		.loc 1 416 1 is_stmt 0
 908 001e 17030000 		tail	__riscv_restore_0
 908      67000300 
 909              		.cfi_restore 1
 910              		.cfi_def_cfa_offset 0
 911              		.cfi_endproc
 912              	.LFE401:
 914              		.section	.text.hw_crc32_single,"ax",@progbits
 915              		.align	1
 916              		.globl	hw_crc32_single
 918              	hw_crc32_single:
 919              	.LFB402:
 417:C:/Users/stapi/OneDrive/Desktop/GD32VW553/V1_MQTT_OK/GD32VW55X_Wifi_BLE_SDK/GD32VW55x_RELEASE_V1.0.2/MSDK/plf/src\gd32vw55x_platform.c **** 
 418:C:/Users/stapi/OneDrive/Desktop/GD32VW553/V1_MQTT_OK/GD32VW55X_Wifi_BLE_SDK/GD32VW55x_RELEASE_V1.0.2/MSDK/plf/src\gd32vw55x_platform.c **** uint32_t hw_crc32_single(uint32_t data)
 419:C:/Users/stapi/OneDrive/Desktop/GD32VW553/V1_MQTT_OK/GD32VW55X_Wifi_BLE_SDK/GD32VW55x_RELEASE_V1.0.2/MSDK/plf/src\gd32vw55x_platform.c **** {
 920              		.loc 1 419 1 is_stmt 1
 921              		.cfi_startproc
 922              	.LVL72:
 420:C:/Users/stapi/OneDrive/Desktop/GD32VW553/V1_MQTT_OK/GD32VW55X_Wifi_BLE_SDK/GD32VW55x_RELEASE_V1.0.2/MSDK/plf/src\gd32vw55x_platform.c ****     return crc_single_data_calculate(data);
 923              		.loc 1 420 5
 924              		.loc 1 420 12 is_stmt 0
 925 0000 17030000 		tail	crc_single_data_calculate
 925      67000300 
 926              	.LVL73:
 927              		.cfi_endproc
 928              	.LFE402:
 930              		.section	.text.hw_crc32_disable,"ax",@progbits
 931              		.align	1
 932              		.globl	hw_crc32_disable
 934              	hw_crc32_disable:
 935              	.LFB403:
 421:C:/Users/stapi/OneDrive/Desktop/GD32VW553/V1_MQTT_OK/GD32VW55X_Wifi_BLE_SDK/GD32VW55x_RELEASE_V1.0.2/MSDK/plf/src\gd32vw55x_platform.c **** }
 422:C:/Users/stapi/OneDrive/Desktop/GD32VW553/V1_MQTT_OK/GD32VW55X_Wifi_BLE_SDK/GD32VW55x_RELEASE_V1.0.2/MSDK/plf/src\gd32vw55x_platform.c **** 
 423:C:/Users/stapi/OneDrive/Desktop/GD32VW553/V1_MQTT_OK/GD32VW55X_Wifi_BLE_SDK/GD32VW55x_RELEASE_V1.0.2/MSDK/plf/src\gd32vw55x_platform.c **** void hw_crc32_disable(void)
 424:C:/Users/stapi/OneDrive/Desktop/GD32VW553/V1_MQTT_OK/GD32VW55X_Wifi_BLE_SDK/GD32VW55x_RELEASE_V1.0.2/MSDK/plf/src\gd32vw55x_platform.c **** {
 936              		.loc 1 424 1 is_stmt 1
 937              		.cfi_startproc
 425:C:/Users/stapi/OneDrive/Desktop/GD32VW553/V1_MQTT_OK/GD32VW55X_Wifi_BLE_SDK/GD32VW55x_RELEASE_V1.0.2/MSDK/plf/src\gd32vw55x_platform.c ****     rcu_periph_clock_disable(RCU_CRC);
 938              		.loc 1 425 5
 939 0000 0565     		li	a0,4096
 940 0002 1305C5C0 		addi	a0,a0,-1012
 941 0006 17030000 		tail	rcu_periph_clock_disable
 941      67000300 
 942              	.LVL74:
 943              		.cfi_endproc
 944              	.LFE403:
 946              		.section	.text.ble_wakelock_acquire,"ax",@progbits
 947              		.align	1
 948              		.globl	ble_wakelock_acquire
 950              	ble_wakelock_acquire:
 951              	.LFB404:
 426:C:/Users/stapi/OneDrive/Desktop/GD32VW553/V1_MQTT_OK/GD32VW55X_Wifi_BLE_SDK/GD32VW55x_RELEASE_V1.0.2/MSDK/plf/src\gd32vw55x_platform.c **** }
 427:C:/Users/stapi/OneDrive/Desktop/GD32VW553/V1_MQTT_OK/GD32VW55X_Wifi_BLE_SDK/GD32VW55x_RELEASE_V1.0.2/MSDK/plf/src\gd32vw55x_platform.c **** 
 428:C:/Users/stapi/OneDrive/Desktop/GD32VW553/V1_MQTT_OK/GD32VW55X_Wifi_BLE_SDK/GD32VW55x_RELEASE_V1.0.2/MSDK/plf/src\gd32vw55x_platform.c **** /*!
 429:C:/Users/stapi/OneDrive/Desktop/GD32VW553/V1_MQTT_OK/GD32VW55X_Wifi_BLE_SDK/GD32VW55x_RELEASE_V1.0.2/MSDK/plf/src\gd32vw55x_platform.c ****     \brief      acquire ble wakelock
 430:C:/Users/stapi/OneDrive/Desktop/GD32VW553/V1_MQTT_OK/GD32VW55X_Wifi_BLE_SDK/GD32VW55x_RELEASE_V1.0.2/MSDK/plf/src\gd32vw55x_platform.c ****     \param[in]  none
 431:C:/Users/stapi/OneDrive/Desktop/GD32VW553/V1_MQTT_OK/GD32VW55X_Wifi_BLE_SDK/GD32VW55x_RELEASE_V1.0.2/MSDK/plf/src\gd32vw55x_platform.c ****     \param[out] none
 432:C:/Users/stapi/OneDrive/Desktop/GD32VW553/V1_MQTT_OK/GD32VW55X_Wifi_BLE_SDK/GD32VW55x_RELEASE_V1.0.2/MSDK/plf/src\gd32vw55x_platform.c ****     \retval     none
 433:C:/Users/stapi/OneDrive/Desktop/GD32VW553/V1_MQTT_OK/GD32VW55X_Wifi_BLE_SDK/GD32VW55x_RELEASE_V1.0.2/MSDK/plf/src\gd32vw55x_platform.c **** */
 434:C:/Users/stapi/OneDrive/Desktop/GD32VW553/V1_MQTT_OK/GD32VW55X_Wifi_BLE_SDK/GD32VW55x_RELEASE_V1.0.2/MSDK/plf/src\gd32vw55x_platform.c **** void ble_wakelock_acquire(void)
 435:C:/Users/stapi/OneDrive/Desktop/GD32VW553/V1_MQTT_OK/GD32VW55X_Wifi_BLE_SDK/GD32VW55x_RELEASE_V1.0.2/MSDK/plf/src\gd32vw55x_platform.c **** {
 952              		.loc 1 435 1
 953              		.cfi_startproc
 436:C:/Users/stapi/OneDrive/Desktop/GD32VW553/V1_MQTT_OK/GD32VW55X_Wifi_BLE_SDK/GD32VW55x_RELEASE_V1.0.2/MSDK/plf/src\gd32vw55x_platform.c ****     sys_wakelock_acquire(LOCK_ID_BLE);
 954              		.loc 1 436 5
 955 0000 0D45     		li	a0,3
 956 0002 17030000 		tail	sys_wakelock_acquire
 956      67000300 
 957              	.LVL75:
 958              		.cfi_endproc
 959              	.LFE404:
 961              		.section	.text.ble_wakelock_release,"ax",@progbits
 962              		.align	1
 963              		.globl	ble_wakelock_release
 965              	ble_wakelock_release:
 966              	.LFB405:
 437:C:/Users/stapi/OneDrive/Desktop/GD32VW553/V1_MQTT_OK/GD32VW55X_Wifi_BLE_SDK/GD32VW55x_RELEASE_V1.0.2/MSDK/plf/src\gd32vw55x_platform.c **** }
 438:C:/Users/stapi/OneDrive/Desktop/GD32VW553/V1_MQTT_OK/GD32VW55X_Wifi_BLE_SDK/GD32VW55x_RELEASE_V1.0.2/MSDK/plf/src\gd32vw55x_platform.c **** 
 439:C:/Users/stapi/OneDrive/Desktop/GD32VW553/V1_MQTT_OK/GD32VW55X_Wifi_BLE_SDK/GD32VW55x_RELEASE_V1.0.2/MSDK/plf/src\gd32vw55x_platform.c **** /*!
 440:C:/Users/stapi/OneDrive/Desktop/GD32VW553/V1_MQTT_OK/GD32VW55X_Wifi_BLE_SDK/GD32VW55x_RELEASE_V1.0.2/MSDK/plf/src\gd32vw55x_platform.c ****     \brief      release ble wakelock
 441:C:/Users/stapi/OneDrive/Desktop/GD32VW553/V1_MQTT_OK/GD32VW55X_Wifi_BLE_SDK/GD32VW55x_RELEASE_V1.0.2/MSDK/plf/src\gd32vw55x_platform.c ****     \param[in]  none
 442:C:/Users/stapi/OneDrive/Desktop/GD32VW553/V1_MQTT_OK/GD32VW55X_Wifi_BLE_SDK/GD32VW55x_RELEASE_V1.0.2/MSDK/plf/src\gd32vw55x_platform.c ****     \param[out] none
 443:C:/Users/stapi/OneDrive/Desktop/GD32VW553/V1_MQTT_OK/GD32VW55X_Wifi_BLE_SDK/GD32VW55x_RELEASE_V1.0.2/MSDK/plf/src\gd32vw55x_platform.c ****     \retval     none
 444:C:/Users/stapi/OneDrive/Desktop/GD32VW553/V1_MQTT_OK/GD32VW55X_Wifi_BLE_SDK/GD32VW55x_RELEASE_V1.0.2/MSDK/plf/src\gd32vw55x_platform.c **** */
 445:C:/Users/stapi/OneDrive/Desktop/GD32VW553/V1_MQTT_OK/GD32VW55X_Wifi_BLE_SDK/GD32VW55x_RELEASE_V1.0.2/MSDK/plf/src\gd32vw55x_platform.c **** void ble_wakelock_release(void)
 446:C:/Users/stapi/OneDrive/Desktop/GD32VW553/V1_MQTT_OK/GD32VW55X_Wifi_BLE_SDK/GD32VW55x_RELEASE_V1.0.2/MSDK/plf/src\gd32vw55x_platform.c **** {
 967              		.loc 1 446 1
 968              		.cfi_startproc
 447:C:/Users/stapi/OneDrive/Desktop/GD32VW553/V1_MQTT_OK/GD32VW55X_Wifi_BLE_SDK/GD32VW55x_RELEASE_V1.0.2/MSDK/plf/src\gd32vw55x_platform.c ****     sys_wakelock_release(LOCK_ID_BLE);
 969              		.loc 1 447 5
 970 0000 0D45     		li	a0,3
 971 0002 17030000 		tail	sys_wakelock_release
 971      67000300 
 972              	.LVL76:
 973              		.cfi_endproc
 974              	.LFE405:
 976              		.section	.text.wifi_wakelock_acquire,"ax",@progbits
 977              		.align	1
 978              		.globl	wifi_wakelock_acquire
 980              	wifi_wakelock_acquire:
 981              	.LFB406:
 448:C:/Users/stapi/OneDrive/Desktop/GD32VW553/V1_MQTT_OK/GD32VW55X_Wifi_BLE_SDK/GD32VW55x_RELEASE_V1.0.2/MSDK/plf/src\gd32vw55x_platform.c **** }
 449:C:/Users/stapi/OneDrive/Desktop/GD32VW553/V1_MQTT_OK/GD32VW55X_Wifi_BLE_SDK/GD32VW55x_RELEASE_V1.0.2/MSDK/plf/src\gd32vw55x_platform.c **** 
 450:C:/Users/stapi/OneDrive/Desktop/GD32VW553/V1_MQTT_OK/GD32VW55X_Wifi_BLE_SDK/GD32VW55x_RELEASE_V1.0.2/MSDK/plf/src\gd32vw55x_platform.c **** #ifdef CFG_WLAN_SUPPORT
 451:C:/Users/stapi/OneDrive/Desktop/GD32VW553/V1_MQTT_OK/GD32VW55X_Wifi_BLE_SDK/GD32VW55x_RELEASE_V1.0.2/MSDK/plf/src\gd32vw55x_platform.c **** /*!
 452:C:/Users/stapi/OneDrive/Desktop/GD32VW553/V1_MQTT_OK/GD32VW55X_Wifi_BLE_SDK/GD32VW55x_RELEASE_V1.0.2/MSDK/plf/src\gd32vw55x_platform.c ****     \brief      acquire wifi wakelock
 453:C:/Users/stapi/OneDrive/Desktop/GD32VW553/V1_MQTT_OK/GD32VW55X_Wifi_BLE_SDK/GD32VW55x_RELEASE_V1.0.2/MSDK/plf/src\gd32vw55x_platform.c ****     \param[in]  none
 454:C:/Users/stapi/OneDrive/Desktop/GD32VW553/V1_MQTT_OK/GD32VW55X_Wifi_BLE_SDK/GD32VW55x_RELEASE_V1.0.2/MSDK/plf/src\gd32vw55x_platform.c ****     \param[out] none
 455:C:/Users/stapi/OneDrive/Desktop/GD32VW553/V1_MQTT_OK/GD32VW55X_Wifi_BLE_SDK/GD32VW55x_RELEASE_V1.0.2/MSDK/plf/src\gd32vw55x_platform.c ****     \retval     none
 456:C:/Users/stapi/OneDrive/Desktop/GD32VW553/V1_MQTT_OK/GD32VW55X_Wifi_BLE_SDK/GD32VW55x_RELEASE_V1.0.2/MSDK/plf/src\gd32vw55x_platform.c **** */
 457:C:/Users/stapi/OneDrive/Desktop/GD32VW553/V1_MQTT_OK/GD32VW55X_Wifi_BLE_SDK/GD32VW55x_RELEASE_V1.0.2/MSDK/plf/src\gd32vw55x_platform.c **** void wifi_wakelock_acquire(void)
 458:C:/Users/stapi/OneDrive/Desktop/GD32VW553/V1_MQTT_OK/GD32VW55X_Wifi_BLE_SDK/GD32VW55x_RELEASE_V1.0.2/MSDK/plf/src\gd32vw55x_platform.c **** {
 982              		.loc 1 458 1
 983              		.cfi_startproc
 459:C:/Users/stapi/OneDrive/Desktop/GD32VW553/V1_MQTT_OK/GD32VW55X_Wifi_BLE_SDK/GD32VW55x_RELEASE_V1.0.2/MSDK/plf/src\gd32vw55x_platform.c ****     sys_wakelock_acquire(LOCK_ID_WLAN);
 984              		.loc 1 459 5
 985 0000 0145     		li	a0,0
 986 0002 17030000 		tail	sys_wakelock_acquire
 986      67000300 
 987              	.LVL77:
 988              		.cfi_endproc
 989              	.LFE406:
 991              		.section	.text.wifi_wakelock_release,"ax",@progbits
 992              		.align	1
 993              		.globl	wifi_wakelock_release
 995              	wifi_wakelock_release:
 996              	.LFB407:
 460:C:/Users/stapi/OneDrive/Desktop/GD32VW553/V1_MQTT_OK/GD32VW55X_Wifi_BLE_SDK/GD32VW55x_RELEASE_V1.0.2/MSDK/plf/src\gd32vw55x_platform.c **** }
 461:C:/Users/stapi/OneDrive/Desktop/GD32VW553/V1_MQTT_OK/GD32VW55X_Wifi_BLE_SDK/GD32VW55x_RELEASE_V1.0.2/MSDK/plf/src\gd32vw55x_platform.c **** 
 462:C:/Users/stapi/OneDrive/Desktop/GD32VW553/V1_MQTT_OK/GD32VW55X_Wifi_BLE_SDK/GD32VW55x_RELEASE_V1.0.2/MSDK/plf/src\gd32vw55x_platform.c **** /*!
 463:C:/Users/stapi/OneDrive/Desktop/GD32VW553/V1_MQTT_OK/GD32VW55X_Wifi_BLE_SDK/GD32VW55x_RELEASE_V1.0.2/MSDK/plf/src\gd32vw55x_platform.c ****     \brief      release wifi wakelock
 464:C:/Users/stapi/OneDrive/Desktop/GD32VW553/V1_MQTT_OK/GD32VW55X_Wifi_BLE_SDK/GD32VW55x_RELEASE_V1.0.2/MSDK/plf/src\gd32vw55x_platform.c ****     \param[in]  none
 465:C:/Users/stapi/OneDrive/Desktop/GD32VW553/V1_MQTT_OK/GD32VW55X_Wifi_BLE_SDK/GD32VW55x_RELEASE_V1.0.2/MSDK/plf/src\gd32vw55x_platform.c ****     \param[out] none
 466:C:/Users/stapi/OneDrive/Desktop/GD32VW553/V1_MQTT_OK/GD32VW55X_Wifi_BLE_SDK/GD32VW55x_RELEASE_V1.0.2/MSDK/plf/src\gd32vw55x_platform.c ****     \retval     none
 467:C:/Users/stapi/OneDrive/Desktop/GD32VW553/V1_MQTT_OK/GD32VW55X_Wifi_BLE_SDK/GD32VW55x_RELEASE_V1.0.2/MSDK/plf/src\gd32vw55x_platform.c **** */
 468:C:/Users/stapi/OneDrive/Desktop/GD32VW553/V1_MQTT_OK/GD32VW55X_Wifi_BLE_SDK/GD32VW55x_RELEASE_V1.0.2/MSDK/plf/src\gd32vw55x_platform.c **** void wifi_wakelock_release(void)
 469:C:/Users/stapi/OneDrive/Desktop/GD32VW553/V1_MQTT_OK/GD32VW55X_Wifi_BLE_SDK/GD32VW55x_RELEASE_V1.0.2/MSDK/plf/src\gd32vw55x_platform.c **** {
 997              		.loc 1 469 1
 998              		.cfi_startproc
 470:C:/Users/stapi/OneDrive/Desktop/GD32VW553/V1_MQTT_OK/GD32VW55X_Wifi_BLE_SDK/GD32VW55x_RELEASE_V1.0.2/MSDK/plf/src\gd32vw55x_platform.c ****     sys_wakelock_release(LOCK_ID_WLAN);
 999              		.loc 1 470 5
 1000 0000 0145     		li	a0,0
 1001 0002 17030000 		tail	sys_wakelock_release
 1001      67000300 
 1002              	.LVL78:
 1003              		.cfi_endproc
 1004              	.LFE407:
 1006              		.section	.text.wifi_pmu_config,"ax",@progbits
 1007              		.align	1
 1008              		.globl	wifi_pmu_config
 1010              	wifi_pmu_config:
 1011              	.LFB408:
 471:C:/Users/stapi/OneDrive/Desktop/GD32VW553/V1_MQTT_OK/GD32VW55X_Wifi_BLE_SDK/GD32VW55x_RELEASE_V1.0.2/MSDK/plf/src\gd32vw55x_platform.c **** }
 472:C:/Users/stapi/OneDrive/Desktop/GD32VW553/V1_MQTT_OK/GD32VW55X_Wifi_BLE_SDK/GD32VW55x_RELEASE_V1.0.2/MSDK/plf/src\gd32vw55x_platform.c **** 
 473:C:/Users/stapi/OneDrive/Desktop/GD32VW553/V1_MQTT_OK/GD32VW55X_Wifi_BLE_SDK/GD32VW55x_RELEASE_V1.0.2/MSDK/plf/src\gd32vw55x_platform.c **** #ifdef CONFIG_PLATFORM_ASIC
 474:C:/Users/stapi/OneDrive/Desktop/GD32VW553/V1_MQTT_OK/GD32VW55X_Wifi_BLE_SDK/GD32VW55x_RELEASE_V1.0.2/MSDK/plf/src\gd32vw55x_platform.c **** void wifi_pmu_config(void)
 475:C:/Users/stapi/OneDrive/Desktop/GD32VW553/V1_MQTT_OK/GD32VW55X_Wifi_BLE_SDK/GD32VW55x_RELEASE_V1.0.2/MSDK/plf/src\gd32vw55x_platform.c **** {
 1012              		.loc 1 475 1
 1013              		.cfi_startproc
 1014 0000 17030000 		call	t0,__riscv_save_2
 1014      E7020300 
 1015              		.cfi_offset 9, -12
 1016              		.cfi_offset 8, -8
 1017              		.cfi_offset 1, -4
 1018              		.cfi_def_cfa_offset 16
 476:C:/Users/stapi/OneDrive/Desktop/GD32VW553/V1_MQTT_OK/GD32VW55X_Wifi_BLE_SDK/GD32VW55x_RELEASE_V1.0.2/MSDK/plf/src\gd32vw55x_platform.c ****     /* PMU enable WLAN power */
 477:C:/Users/stapi/OneDrive/Desktop/GD32VW553/V1_MQTT_OK/GD32VW55X_Wifi_BLE_SDK/GD32VW55x_RELEASE_V1.0.2/MSDK/plf/src\gd32vw55x_platform.c ****     pmu_wifi_power_enable();
 1019              		.loc 1 477 5
 1020 0008 97000000 		call	pmu_wifi_power_enable
 1020      E7800000 
 1021              	.LVL79:
 478:C:/Users/stapi/OneDrive/Desktop/GD32VW553/V1_MQTT_OK/GD32VW55X_Wifi_BLE_SDK/GD32VW55x_RELEASE_V1.0.2/MSDK/plf/src\gd32vw55x_platform.c ****     /* wlan is in sleep state by default, set wlan_wake command to PMU to switch wlan power state *
 479:C:/Users/stapi/OneDrive/Desktop/GD32VW553/V1_MQTT_OK/GD32VW55X_Wifi_BLE_SDK/GD32VW55x_RELEASE_V1.0.2/MSDK/plf/src\gd32vw55x_platform.c ****     pmu_wifi_sram_control(PMU_WIFI_WAKE);
 1022              		.loc 1 479 5
 1023 0010 2145     		li	a0,8
 480:C:/Users/stapi/OneDrive/Desktop/GD32VW553/V1_MQTT_OK/GD32VW55X_Wifi_BLE_SDK/GD32VW55x_RELEASE_V1.0.2/MSDK/plf/src\gd32vw55x_platform.c **** 
 481:C:/Users/stapi/OneDrive/Desktop/GD32VW553/V1_MQTT_OK/GD32VW55X_Wifi_BLE_SDK/GD32VW55x_RELEASE_V1.0.2/MSDK/plf/src\gd32vw55x_platform.c ****     /* polling PMU to confirm wlan is switched from sleep state */
 482:C:/Users/stapi/OneDrive/Desktop/GD32VW553/V1_MQTT_OK/GD32VW55X_Wifi_BLE_SDK/GD32VW55x_RELEASE_V1.0.2/MSDK/plf/src\gd32vw55x_platform.c ****     while (pmu_flag_get(PMU_FLAG_WIFI_ACTIVE) != SET) {
 1024              		.loc 1 482 12 is_stmt 0
 1025 0012 37040080 		li	s0,-2147483648
 479:C:/Users/stapi/OneDrive/Desktop/GD32VW553/V1_MQTT_OK/GD32VW55X_Wifi_BLE_SDK/GD32VW55x_RELEASE_V1.0.2/MSDK/plf/src\gd32vw55x_platform.c **** 
 1026              		.loc 1 479 5
 1027 0016 97000000 		call	pmu_wifi_sram_control
 1027      E7800000 
 1028              	.LVL80:
 1029              		.loc 1 482 5 is_stmt 1
 1030              		.loc 1 482 12 is_stmt 0
 1031 001e 2104     		addi	s0,s0,8
 1032              		.loc 1 482 11
 1033 0020 8544     		li	s1,1
 1034              	.L98:
 1035              		.loc 1 482 11 is_stmt 1
 1036              		.loc 1 482 12 is_stmt 0
 1037 0022 2285     		mv	a0,s0
 1038 0024 97000000 		call	pmu_flag_get
 1038      E7800000 
 1039              	.LVL81:
 1040              		.loc 1 482 11
 1041 002c 63169500 		bne	a0,s1,.L99
 483:C:/Users/stapi/OneDrive/Desktop/GD32VW553/V1_MQTT_OK/GD32VW55X_Wifi_BLE_SDK/GD32VW55x_RELEASE_V1.0.2/MSDK/plf/src\gd32vw55x_platform.c ****         pmu_wifi_sram_control(PMU_WIFI_WAKE);
 484:C:/Users/stapi/OneDrive/Desktop/GD32VW553/V1_MQTT_OK/GD32VW55X_Wifi_BLE_SDK/GD32VW55x_RELEASE_V1.0.2/MSDK/plf/src\gd32vw55x_platform.c ****         systick_udelay(50);
 485:C:/Users/stapi/OneDrive/Desktop/GD32VW553/V1_MQTT_OK/GD32VW55X_Wifi_BLE_SDK/GD32VW55x_RELEASE_V1.0.2/MSDK/plf/src\gd32vw55x_platform.c ****     }
 486:C:/Users/stapi/OneDrive/Desktop/GD32VW553/V1_MQTT_OK/GD32VW55X_Wifi_BLE_SDK/GD32VW55x_RELEASE_V1.0.2/MSDK/plf/src\gd32vw55x_platform.c **** }
 1042              		.loc 1 486 1
 1043 0030 17030000 		tail	__riscv_restore_2
 1043      67000300 
 1044              		.cfi_remember_state
 1045              		.cfi_restore 9
 1046              		.cfi_restore 8
 1047              		.cfi_restore 1
 1048              		.cfi_def_cfa_offset 0
 1049              	.L99:
 1050              		.cfi_restore_state
 483:C:/Users/stapi/OneDrive/Desktop/GD32VW553/V1_MQTT_OK/GD32VW55X_Wifi_BLE_SDK/GD32VW55x_RELEASE_V1.0.2/MSDK/plf/src\gd32vw55x_platform.c ****         pmu_wifi_sram_control(PMU_WIFI_WAKE);
 1051              		.loc 1 483 9 is_stmt 1
 1052 0038 2145     		li	a0,8
 1053 003a 97000000 		call	pmu_wifi_sram_control
 1053      E7800000 
 1054              	.LVL82:
 484:C:/Users/stapi/OneDrive/Desktop/GD32VW553/V1_MQTT_OK/GD32VW55X_Wifi_BLE_SDK/GD32VW55x_RELEASE_V1.0.2/MSDK/plf/src\gd32vw55x_platform.c ****     }
 1055              		.loc 1 484 9
 1056 0042 13052003 		li	a0,50
 1057 0046 97000000 		call	systick_udelay
 1057      E7800000 
 1058              	.LVL83:
 1059 004e D1BF     		j	.L98
 1060              		.cfi_endproc
 1061              	.LFE408:
 1063              		.section	.text.wifi_rcc_config,"ax",@progbits
 1064              		.align	1
 1065              		.globl	wifi_rcc_config
 1067              	wifi_rcc_config:
 1068              	.LFB409:
 487:C:/Users/stapi/OneDrive/Desktop/GD32VW553/V1_MQTT_OK/GD32VW55X_Wifi_BLE_SDK/GD32VW55x_RELEASE_V1.0.2/MSDK/plf/src\gd32vw55x_platform.c **** 
 488:C:/Users/stapi/OneDrive/Desktop/GD32VW553/V1_MQTT_OK/GD32VW55X_Wifi_BLE_SDK/GD32VW55x_RELEASE_V1.0.2/MSDK/plf/src\gd32vw55x_platform.c **** void wifi_rcc_config(void)
 489:C:/Users/stapi/OneDrive/Desktop/GD32VW553/V1_MQTT_OK/GD32VW55X_Wifi_BLE_SDK/GD32VW55x_RELEASE_V1.0.2/MSDK/plf/src\gd32vw55x_platform.c **** {
 1069              		.loc 1 489 1
 1070              		.cfi_startproc
 1071 0000 17030000 		call	t0,__riscv_save_1
 1071      E7020300 
 1072              		.cfi_offset 8, -8
 1073              		.cfi_offset 1, -4
 1074              		.cfi_def_cfa_offset 16
 490:C:/Users/stapi/OneDrive/Desktop/GD32VW553/V1_MQTT_OK/GD32VW55X_Wifi_BLE_SDK/GD32VW55x_RELEASE_V1.0.2/MSDK/plf/src\gd32vw55x_platform.c ****     rcu_periph_clock_enable(RCU_WIFI);
 1075              		.loc 1 490 5
 1076 0008 0564     		li	s0,4096
 1077 000a 1305D4C0 		addi	a0,s0,-1011
 1078 000e 97000000 		call	rcu_periph_clock_enable
 1078      E7800000 
 1079              	.LVL84:
 491:C:/Users/stapi/OneDrive/Desktop/GD32VW553/V1_MQTT_OK/GD32VW55X_Wifi_BLE_SDK/GD32VW55x_RELEASE_V1.0.2/MSDK/plf/src\gd32vw55x_platform.c ****     rcu_periph_clock_enable(RCU_WIFIRUN);
 1080              		.loc 1 491 5
 1081 0016 1305E4C0 		addi	a0,s0,-1010
 1082 001a 97000000 		call	rcu_periph_clock_enable
 1082      E7800000 
 1083              	.LVL85:
 492:C:/Users/stapi/OneDrive/Desktop/GD32VW553/V1_MQTT_OK/GD32VW55X_Wifi_BLE_SDK/GD32VW55x_RELEASE_V1.0.2/MSDK/plf/src\gd32vw55x_platform.c ****     rcu_periph_reset_enable(RCU_WIFIRST);
 1084              		.loc 1 492 5
 1085 0022 1305D040 		li	a0,1037
 1086 0026 97000000 		call	rcu_periph_reset_enable
 1086      E7800000 
 1087              	.LVL86:
 493:C:/Users/stapi/OneDrive/Desktop/GD32VW553/V1_MQTT_OK/GD32VW55X_Wifi_BLE_SDK/GD32VW55x_RELEASE_V1.0.2/MSDK/plf/src\gd32vw55x_platform.c ****     rcu_periph_reset_disable(RCU_WIFIRST);
 1088              		.loc 1 493 5
 1089 002e 1305D040 		li	a0,1037
 1090 0032 97000000 		call	rcu_periph_reset_disable
 1090      E7800000 
 1091              	.LVL87:
 494:C:/Users/stapi/OneDrive/Desktop/GD32VW553/V1_MQTT_OK/GD32VW55X_Wifi_BLE_SDK/GD32VW55x_RELEASE_V1.0.2/MSDK/plf/src\gd32vw55x_platform.c **** }
 1092              		.loc 1 494 1 is_stmt 0
 1093 003a 17030000 		tail	__riscv_restore_1
 1093      67000300 
 1094              		.cfi_restore 8
 1095              		.cfi_restore 1
 1096              		.cfi_def_cfa_offset 0
 1097              		.cfi_endproc
 1098              	.LFE409:
 1100              		.section	.text.wifi_irq_enable,"ax",@progbits
 1101              		.align	1
 1102              		.globl	wifi_irq_enable
 1104              	wifi_irq_enable:
 1105              	.LFB410:
 495:C:/Users/stapi/OneDrive/Desktop/GD32VW553/V1_MQTT_OK/GD32VW55X_Wifi_BLE_SDK/GD32VW55x_RELEASE_V1.0.2/MSDK/plf/src\gd32vw55x_platform.c **** 
 496:C:/Users/stapi/OneDrive/Desktop/GD32VW553/V1_MQTT_OK/GD32VW55X_Wifi_BLE_SDK/GD32VW55x_RELEASE_V1.0.2/MSDK/plf/src\gd32vw55x_platform.c **** #else  /* CONFIG_PLATFORM_ASIC */
 497:C:/Users/stapi/OneDrive/Desktop/GD32VW553/V1_MQTT_OK/GD32VW55X_Wifi_BLE_SDK/GD32VW55x_RELEASE_V1.0.2/MSDK/plf/src\gd32vw55x_platform.c **** 
 498:C:/Users/stapi/OneDrive/Desktop/GD32VW553/V1_MQTT_OK/GD32VW55X_Wifi_BLE_SDK/GD32VW55x_RELEASE_V1.0.2/MSDK/plf/src\gd32vw55x_platform.c **** void wifi_pmu_config(void)
 499:C:/Users/stapi/OneDrive/Desktop/GD32VW553/V1_MQTT_OK/GD32VW55X_Wifi_BLE_SDK/GD32VW55x_RELEASE_V1.0.2/MSDK/plf/src\gd32vw55x_platform.c **** {
 500:C:/Users/stapi/OneDrive/Desktop/GD32VW553/V1_MQTT_OK/GD32VW55X_Wifi_BLE_SDK/GD32VW55x_RELEASE_V1.0.2/MSDK/plf/src\gd32vw55x_platform.c ****     /* PMU enable WLAN power */
 501:C:/Users/stapi/OneDrive/Desktop/GD32VW553/V1_MQTT_OK/GD32VW55X_Wifi_BLE_SDK/GD32VW55x_RELEASE_V1.0.2/MSDK/plf/src\gd32vw55x_platform.c ****     REG32(PMU + 0x08) |= BIT(1);
 502:C:/Users/stapi/OneDrive/Desktop/GD32VW553/V1_MQTT_OK/GD32VW55X_Wifi_BLE_SDK/GD32VW55x_RELEASE_V1.0.2/MSDK/plf/src\gd32vw55x_platform.c ****     /* wlan is in sleep state by default, set wlan_wake command to PMU to switch wlan power state *
 503:C:/Users/stapi/OneDrive/Desktop/GD32VW553/V1_MQTT_OK/GD32VW55X_Wifi_BLE_SDK/GD32VW55x_RELEASE_V1.0.2/MSDK/plf/src\gd32vw55x_platform.c ****     REG32(PMU + 0x08) |= BIT(3);
 504:C:/Users/stapi/OneDrive/Desktop/GD32VW553/V1_MQTT_OK/GD32VW55X_Wifi_BLE_SDK/GD32VW55x_RELEASE_V1.0.2/MSDK/plf/src\gd32vw55x_platform.c **** 
 505:C:/Users/stapi/OneDrive/Desktop/GD32VW553/V1_MQTT_OK/GD32VW55X_Wifi_BLE_SDK/GD32VW55x_RELEASE_V1.0.2/MSDK/plf/src\gd32vw55x_platform.c ****     /* polling PMU to confirm wlan is switched from sleep state */
 506:C:/Users/stapi/OneDrive/Desktop/GD32VW553/V1_MQTT_OK/GD32VW55X_Wifi_BLE_SDK/GD32VW55x_RELEASE_V1.0.2/MSDK/plf/src\gd32vw55x_platform.c ****     //while ((REG32(PMU + 0x0c) & BIT(2)) == 0) {
 507:C:/Users/stapi/OneDrive/Desktop/GD32VW553/V1_MQTT_OK/GD32VW55X_Wifi_BLE_SDK/GD32VW55x_RELEASE_V1.0.2/MSDK/plf/src\gd32vw55x_platform.c ****     //}
 508:C:/Users/stapi/OneDrive/Desktop/GD32VW553/V1_MQTT_OK/GD32VW55X_Wifi_BLE_SDK/GD32VW55x_RELEASE_V1.0.2/MSDK/plf/src\gd32vw55x_platform.c **** }
 509:C:/Users/stapi/OneDrive/Desktop/GD32VW553/V1_MQTT_OK/GD32VW55X_Wifi_BLE_SDK/GD32VW55x_RELEASE_V1.0.2/MSDK/plf/src\gd32vw55x_platform.c **** 
 510:C:/Users/stapi/OneDrive/Desktop/GD32VW553/V1_MQTT_OK/GD32VW55X_Wifi_BLE_SDK/GD32VW55x_RELEASE_V1.0.2/MSDK/plf/src\gd32vw55x_platform.c **** void wifi_rcc_config(void)
 511:C:/Users/stapi/OneDrive/Desktop/GD32VW553/V1_MQTT_OK/GD32VW55X_Wifi_BLE_SDK/GD32VW55x_RELEASE_V1.0.2/MSDK/plf/src\gd32vw55x_platform.c **** {
 512:C:/Users/stapi/OneDrive/Desktop/GD32VW553/V1_MQTT_OK/GD32VW55X_Wifi_BLE_SDK/GD32VW55x_RELEASE_V1.0.2/MSDK/plf/src\gd32vw55x_platform.c ****     /* wlan enable, wlan run enable */
 513:C:/Users/stapi/OneDrive/Desktop/GD32VW553/V1_MQTT_OK/GD32VW55X_Wifi_BLE_SDK/GD32VW55x_RELEASE_V1.0.2/MSDK/plf/src\gd32vw55x_platform.c ****     REG32(RCU + 0x30) |= 0x00006000;
 514:C:/Users/stapi/OneDrive/Desktop/GD32VW553/V1_MQTT_OK/GD32VW55X_Wifi_BLE_SDK/GD32VW55x_RELEASE_V1.0.2/MSDK/plf/src\gd32vw55x_platform.c **** 
 515:C:/Users/stapi/OneDrive/Desktop/GD32VW553/V1_MQTT_OK/GD32VW55X_Wifi_BLE_SDK/GD32VW55x_RELEASE_V1.0.2/MSDK/plf/src\gd32vw55x_platform.c ****     /* pwr */
 516:C:/Users/stapi/OneDrive/Desktop/GD32VW553/V1_MQTT_OK/GD32VW55X_Wifi_BLE_SDK/GD32VW55x_RELEASE_V1.0.2/MSDK/plf/src\gd32vw55x_platform.c ****     REG32(0x40007080) = 0x00040000;
 517:C:/Users/stapi/OneDrive/Desktop/GD32VW553/V1_MQTT_OK/GD32VW55X_Wifi_BLE_SDK/GD32VW55x_RELEASE_V1.0.2/MSDK/plf/src\gd32vw55x_platform.c **** }
 518:C:/Users/stapi/OneDrive/Desktop/GD32VW553/V1_MQTT_OK/GD32VW55X_Wifi_BLE_SDK/GD32VW55x_RELEASE_V1.0.2/MSDK/plf/src\gd32vw55x_platform.c **** 
 519:C:/Users/stapi/OneDrive/Desktop/GD32VW553/V1_MQTT_OK/GD32VW55X_Wifi_BLE_SDK/GD32VW55x_RELEASE_V1.0.2/MSDK/plf/src\gd32vw55x_platform.c **** 
 520:C:/Users/stapi/OneDrive/Desktop/GD32VW553/V1_MQTT_OK/GD32VW55X_Wifi_BLE_SDK/GD32VW55x_RELEASE_V1.0.2/MSDK/plf/src\gd32vw55x_platform.c **** void wifi_pll_reset(void)
 521:C:/Users/stapi/OneDrive/Desktop/GD32VW553/V1_MQTT_OK/GD32VW55X_Wifi_BLE_SDK/GD32VW55x_RELEASE_V1.0.2/MSDK/plf/src\gd32vw55x_platform.c **** {
 522:C:/Users/stapi/OneDrive/Desktop/GD32VW553/V1_MQTT_OK/GD32VW55X_Wifi_BLE_SDK/GD32VW55x_RELEASE_V1.0.2/MSDK/plf/src\gd32vw55x_platform.c ****     REG32(RCU + 0xa0) |= 0x00180000;
 523:C:/Users/stapi/OneDrive/Desktop/GD32VW553/V1_MQTT_OK/GD32VW55X_Wifi_BLE_SDK/GD32VW55x_RELEASE_V1.0.2/MSDK/plf/src\gd32vw55x_platform.c ****     REG32(RCU + 0xa0) &= (~0x00180000);
 524:C:/Users/stapi/OneDrive/Desktop/GD32VW553/V1_MQTT_OK/GD32VW55X_Wifi_BLE_SDK/GD32VW55x_RELEASE_V1.0.2/MSDK/plf/src\gd32vw55x_platform.c **** }
 525:C:/Users/stapi/OneDrive/Desktop/GD32VW553/V1_MQTT_OK/GD32VW55X_Wifi_BLE_SDK/GD32VW55x_RELEASE_V1.0.2/MSDK/plf/src\gd32vw55x_platform.c **** 
 526:C:/Users/stapi/OneDrive/Desktop/GD32VW553/V1_MQTT_OK/GD32VW55X_Wifi_BLE_SDK/GD32VW55x_RELEASE_V1.0.2/MSDK/plf/src\gd32vw55x_platform.c **** #endif  /* CONFIG_PLATFORM_ASIC */
 527:C:/Users/stapi/OneDrive/Desktop/GD32VW553/V1_MQTT_OK/GD32VW55X_Wifi_BLE_SDK/GD32VW55x_RELEASE_V1.0.2/MSDK/plf/src\gd32vw55x_platform.c **** 
 528:C:/Users/stapi/OneDrive/Desktop/GD32VW553/V1_MQTT_OK/GD32VW55X_Wifi_BLE_SDK/GD32VW55x_RELEASE_V1.0.2/MSDK/plf/src\gd32vw55x_platform.c **** void wifi_irq_enable(void)
 529:C:/Users/stapi/OneDrive/Desktop/GD32VW553/V1_MQTT_OK/GD32VW55X_Wifi_BLE_SDK/GD32VW55x_RELEASE_V1.0.2/MSDK/plf/src\gd32vw55x_platform.c **** {
 1106              		.loc 1 529 1 is_stmt 1
 1107              		.cfi_startproc
 1108 0000 17030000 		call	t0,__riscv_save_0
 1108      E7020300 
 1109              		.cfi_offset 1, -4
 1110              		.cfi_def_cfa_offset 16
 530:C:/Users/stapi/OneDrive/Desktop/GD32VW553/V1_MQTT_OK/GD32VW55X_Wifi_BLE_SDK/GD32VW55x_RELEASE_V1.0.2/MSDK/plf/src\gd32vw55x_platform.c ****     /* exti interrupt wake up the cpu from deep sleep state */
 531:C:/Users/stapi/OneDrive/Desktop/GD32VW553/V1_MQTT_OK/GD32VW55X_Wifi_BLE_SDK/GD32VW55x_RELEASE_V1.0.2/MSDK/plf/src\gd32vw55x_platform.c ****     eclic_irq_enable(WIFI_WKUP_IRQn, 12, 0);
 1111              		.loc 1 531 5
 1112 0008 0146     		li	a2,0
 1113 000a B145     		li	a1,12
 1114 000c 13054005 		li	a0,84
 1115 0010 97000000 		call	eclic_irq_enable
 1115      E7800000 
 1116              	.LVL88:
 532:C:/Users/stapi/OneDrive/Desktop/GD32VW553/V1_MQTT_OK/GD32VW55X_Wifi_BLE_SDK/GD32VW55x_RELEASE_V1.0.2/MSDK/plf/src\gd32vw55x_platform.c **** 
 533:C:/Users/stapi/OneDrive/Desktop/GD32VW553/V1_MQTT_OK/GD32VW55X_Wifi_BLE_SDK/GD32VW55x_RELEASE_V1.0.2/MSDK/plf/src\gd32vw55x_platform.c ****     eclic_irq_enable(WIFI_INT_IRQn, 8, 0);
 1117              		.loc 1 533 5
 1118 0018 0146     		li	a2,0
 1119 001a A145     		li	a1,8
 1120 001c 13055006 		li	a0,101
 1121 0020 97000000 		call	eclic_irq_enable
 1121      E7800000 
 1122              	.LVL89:
 534:C:/Users/stapi/OneDrive/Desktop/GD32VW553/V1_MQTT_OK/GD32VW55X_Wifi_BLE_SDK/GD32VW55x_RELEASE_V1.0.2/MSDK/plf/src\gd32vw55x_platform.c **** #ifdef GD32VW55X_WIFI_MUL_INTS
 535:C:/Users/stapi/OneDrive/Desktop/GD32VW553/V1_MQTT_OK/GD32VW55X_Wifi_BLE_SDK/GD32VW55x_RELEASE_V1.0.2/MSDK/plf/src\gd32vw55x_platform.c ****     eclic_irq_enable(WIFI_PROT_IRQn, 8, 0);
 1123              		.loc 1 535 5
 1124 0028 0146     		li	a2,0
 1125 002a A145     		li	a1,8
 1126 002c 1305A004 		li	a0,74
 1127 0030 97000000 		call	eclic_irq_enable
 1127      E7800000 
 1128              	.LVL90:
 536:C:/Users/stapi/OneDrive/Desktop/GD32VW553/V1_MQTT_OK/GD32VW55X_Wifi_BLE_SDK/GD32VW55x_RELEASE_V1.0.2/MSDK/plf/src\gd32vw55x_platform.c ****     eclic_irq_enable(WIFI_INTGEN_IRQn, 8, 0);
 1129              		.loc 1 536 5
 1130 0038 0146     		li	a2,0
 1131 003a A145     		li	a1,8
 1132 003c 1305B004 		li	a0,75
 1133 0040 97000000 		call	eclic_irq_enable
 1133      E7800000 
 1134              	.LVL91:
 537:C:/Users/stapi/OneDrive/Desktop/GD32VW553/V1_MQTT_OK/GD32VW55X_Wifi_BLE_SDK/GD32VW55x_RELEASE_V1.0.2/MSDK/plf/src\gd32vw55x_platform.c ****     eclic_irq_enable(WIFI_TX_IRQn, 8, 0);
 1135              		.loc 1 537 5
 1136 0048 0146     		li	a2,0
 1137 004a A145     		li	a1,8
 1138 004c 1305C004 		li	a0,76
 1139 0050 97000000 		call	eclic_irq_enable
 1139      E7800000 
 1140              	.LVL92:
 538:C:/Users/stapi/OneDrive/Desktop/GD32VW553/V1_MQTT_OK/GD32VW55X_Wifi_BLE_SDK/GD32VW55x_RELEASE_V1.0.2/MSDK/plf/src\gd32vw55x_platform.c ****     eclic_irq_enable(WIFI_RX_IRQn, 8, 0);
 1141              		.loc 1 538 5
 1142 0058 0146     		li	a2,0
 1143 005a A145     		li	a1,8
 1144 005c 1305D004 		li	a0,77
 1145 0060 97000000 		call	eclic_irq_enable
 1145      E7800000 
 1146              	.LVL93:
 539:C:/Users/stapi/OneDrive/Desktop/GD32VW553/V1_MQTT_OK/GD32VW55X_Wifi_BLE_SDK/GD32VW55x_RELEASE_V1.0.2/MSDK/plf/src\gd32vw55x_platform.c **** #endif
 540:C:/Users/stapi/OneDrive/Desktop/GD32VW553/V1_MQTT_OK/GD32VW55X_Wifi_BLE_SDK/GD32VW55x_RELEASE_V1.0.2/MSDK/plf/src\gd32vw55x_platform.c ****     eclic_irq_enable(LA_IRQn, 8, 0);
 1147              		.loc 1 540 5
 1148 0068 0146     		li	a2,0
 1149 006a A145     		li	a1,8
 1150 006c 13053005 		li	a0,83
 1151 0070 97000000 		call	eclic_irq_enable
 1151      E7800000 
 1152              	.LVL94:
 541:C:/Users/stapi/OneDrive/Desktop/GD32VW553/V1_MQTT_OK/GD32VW55X_Wifi_BLE_SDK/GD32VW55x_RELEASE_V1.0.2/MSDK/plf/src\gd32vw55x_platform.c **** 
 542:C:/Users/stapi/OneDrive/Desktop/GD32VW553/V1_MQTT_OK/GD32VW55X_Wifi_BLE_SDK/GD32VW55x_RELEASE_V1.0.2/MSDK/plf/src\gd32vw55x_platform.c ****     // configure the interrupt controller
 543:C:/Users/stapi/OneDrive/Desktop/GD32VW553/V1_MQTT_OK/GD32VW55X_Wifi_BLE_SDK/GD32VW55x_RELEASE_V1.0.2/MSDK/plf/src\gd32vw55x_platform.c ****     intc_init();
 1153              		.loc 1 543 5
 1154 0078 97000000 		call	intc_init
 1154      E7800000 
 1155              	.LVL95:
 544:C:/Users/stapi/OneDrive/Desktop/GD32VW553/V1_MQTT_OK/GD32VW55X_Wifi_BLE_SDK/GD32VW55x_RELEASE_V1.0.2/MSDK/plf/src\gd32vw55x_platform.c **** }
 1156              		.loc 1 544 1 is_stmt 0
 1157 0080 17030000 		tail	__riscv_restore_0
 1157      67000300 
 1158              		.cfi_restore 1
 1159              		.cfi_def_cfa_offset 0
 1160              		.cfi_endproc
 1161              	.LFE410:
 1163              		.section	.text.wifi_irq_disable,"ax",@progbits
 1164              		.align	1
 1165              		.globl	wifi_irq_disable
 1167              	wifi_irq_disable:
 1168              	.LFB411:
 545:C:/Users/stapi/OneDrive/Desktop/GD32VW553/V1_MQTT_OK/GD32VW55X_Wifi_BLE_SDK/GD32VW55x_RELEASE_V1.0.2/MSDK/plf/src\gd32vw55x_platform.c **** 
 546:C:/Users/stapi/OneDrive/Desktop/GD32VW553/V1_MQTT_OK/GD32VW55X_Wifi_BLE_SDK/GD32VW55x_RELEASE_V1.0.2/MSDK/plf/src\gd32vw55x_platform.c **** void wifi_irq_disable(void)
 547:C:/Users/stapi/OneDrive/Desktop/GD32VW553/V1_MQTT_OK/GD32VW55X_Wifi_BLE_SDK/GD32VW55x_RELEASE_V1.0.2/MSDK/plf/src\gd32vw55x_platform.c **** {
 1169              		.loc 1 547 1 is_stmt 1
 1170              		.cfi_startproc
 1171 0000 17030000 		call	t0,__riscv_save_0
 1171      E7020300 
 1172              		.cfi_offset 1, -4
 1173              		.cfi_def_cfa_offset 16
 548:C:/Users/stapi/OneDrive/Desktop/GD32VW553/V1_MQTT_OK/GD32VW55X_Wifi_BLE_SDK/GD32VW55x_RELEASE_V1.0.2/MSDK/plf/src\gd32vw55x_platform.c ****     intc_deinit();
 1174              		.loc 1 548 5
 1175 0008 97000000 		call	intc_deinit
 1175      E7800000 
 1176              	.LVL96:
 549:C:/Users/stapi/OneDrive/Desktop/GD32VW553/V1_MQTT_OK/GD32VW55X_Wifi_BLE_SDK/GD32VW55x_RELEASE_V1.0.2/MSDK/plf/src\gd32vw55x_platform.c **** 
 550:C:/Users/stapi/OneDrive/Desktop/GD32VW553/V1_MQTT_OK/GD32VW55X_Wifi_BLE_SDK/GD32VW55x_RELEASE_V1.0.2/MSDK/plf/src\gd32vw55x_platform.c ****     eclic_irq_disable(WIFI_WKUP_IRQn);
 1177              		.loc 1 550 5
 1178 0010 13054005 		li	a0,84
 1179 0014 97000000 		call	eclic_irq_disable
 1179      E7800000 
 1180              	.LVL97:
 551:C:/Users/stapi/OneDrive/Desktop/GD32VW553/V1_MQTT_OK/GD32VW55X_Wifi_BLE_SDK/GD32VW55x_RELEASE_V1.0.2/MSDK/plf/src\gd32vw55x_platform.c **** 
 552:C:/Users/stapi/OneDrive/Desktop/GD32VW553/V1_MQTT_OK/GD32VW55X_Wifi_BLE_SDK/GD32VW55x_RELEASE_V1.0.2/MSDK/plf/src\gd32vw55x_platform.c ****     eclic_irq_disable(WIFI_INT_IRQn);
 1181              		.loc 1 552 5
 1182 001c 13055006 		li	a0,101
 1183 0020 97000000 		call	eclic_irq_disable
 1183      E7800000 
 1184              	.LVL98:
 553:C:/Users/stapi/OneDrive/Desktop/GD32VW553/V1_MQTT_OK/GD32VW55X_Wifi_BLE_SDK/GD32VW55x_RELEASE_V1.0.2/MSDK/plf/src\gd32vw55x_platform.c **** #ifdef GD32VW55X_WIFI_MUL_INTS
 554:C:/Users/stapi/OneDrive/Desktop/GD32VW553/V1_MQTT_OK/GD32VW55X_Wifi_BLE_SDK/GD32VW55x_RELEASE_V1.0.2/MSDK/plf/src\gd32vw55x_platform.c ****     eclic_irq_disable(WIFI_PROT_IRQn);
 1185              		.loc 1 554 5
 1186 0028 1305A004 		li	a0,74
 1187 002c 97000000 		call	eclic_irq_disable
 1187      E7800000 
 1188              	.LVL99:
 555:C:/Users/stapi/OneDrive/Desktop/GD32VW553/V1_MQTT_OK/GD32VW55X_Wifi_BLE_SDK/GD32VW55x_RELEASE_V1.0.2/MSDK/plf/src\gd32vw55x_platform.c ****     eclic_irq_disable(WIFI_INTGEN_IRQn);
 1189              		.loc 1 555 5
 1190 0034 1305B004 		li	a0,75
 1191 0038 97000000 		call	eclic_irq_disable
 1191      E7800000 
 1192              	.LVL100:
 556:C:/Users/stapi/OneDrive/Desktop/GD32VW553/V1_MQTT_OK/GD32VW55X_Wifi_BLE_SDK/GD32VW55x_RELEASE_V1.0.2/MSDK/plf/src\gd32vw55x_platform.c ****     eclic_irq_disable(WIFI_TX_IRQn);
 1193              		.loc 1 556 5
 1194 0040 1305C004 		li	a0,76
 1195 0044 97000000 		call	eclic_irq_disable
 1195      E7800000 
 1196              	.LVL101:
 557:C:/Users/stapi/OneDrive/Desktop/GD32VW553/V1_MQTT_OK/GD32VW55X_Wifi_BLE_SDK/GD32VW55x_RELEASE_V1.0.2/MSDK/plf/src\gd32vw55x_platform.c ****     eclic_irq_disable(WIFI_RX_IRQn);
 1197              		.loc 1 557 5
 1198 004c 1305D004 		li	a0,77
 1199 0050 97000000 		call	eclic_irq_disable
 1199      E7800000 
 1200              	.LVL102:
 558:C:/Users/stapi/OneDrive/Desktop/GD32VW553/V1_MQTT_OK/GD32VW55X_Wifi_BLE_SDK/GD32VW55x_RELEASE_V1.0.2/MSDK/plf/src\gd32vw55x_platform.c **** #endif
 559:C:/Users/stapi/OneDrive/Desktop/GD32VW553/V1_MQTT_OK/GD32VW55X_Wifi_BLE_SDK/GD32VW55x_RELEASE_V1.0.2/MSDK/plf/src\gd32vw55x_platform.c ****     eclic_irq_disable(LA_IRQn);
 1201              		.loc 1 559 5
 1202 0058 13053005 		li	a0,83
 1203 005c 97000000 		call	eclic_irq_disable
 1203      E7800000 
 1204              	.LVL103:
 560:C:/Users/stapi/OneDrive/Desktop/GD32VW553/V1_MQTT_OK/GD32VW55X_Wifi_BLE_SDK/GD32VW55x_RELEASE_V1.0.2/MSDK/plf/src\gd32vw55x_platform.c **** }
 1205              		.loc 1 560 1 is_stmt 0
 1206 0064 17030000 		tail	__riscv_restore_0
 1206      67000300 
 1207              		.cfi_restore 1
 1208              		.cfi_def_cfa_offset 0
 1209              		.cfi_endproc
 1210              	.LFE411:
 1212              		.section	.text.wifi_power_on,"ax",@progbits
 1213              		.align	1
 1214              		.globl	wifi_power_on
 1216              	wifi_power_on:
 1217              	.LFB412:
 561:C:/Users/stapi/OneDrive/Desktop/GD32VW553/V1_MQTT_OK/GD32VW55X_Wifi_BLE_SDK/GD32VW55x_RELEASE_V1.0.2/MSDK/plf/src\gd32vw55x_platform.c **** 
 562:C:/Users/stapi/OneDrive/Desktop/GD32VW553/V1_MQTT_OK/GD32VW55X_Wifi_BLE_SDK/GD32VW55x_RELEASE_V1.0.2/MSDK/plf/src\gd32vw55x_platform.c **** int wifi_power_on(void)
 563:C:/Users/stapi/OneDrive/Desktop/GD32VW553/V1_MQTT_OK/GD32VW55X_Wifi_BLE_SDK/GD32VW55x_RELEASE_V1.0.2/MSDK/plf/src\gd32vw55x_platform.c **** {
 1218              		.loc 1 563 1 is_stmt 1
 1219              		.cfi_startproc
 1220 0000 17030000 		call	t0,__riscv_save_0
 1220      E7020300 
 1221              		.cfi_offset 1, -4
 1222              		.cfi_def_cfa_offset 16
 564:C:/Users/stapi/OneDrive/Desktop/GD32VW553/V1_MQTT_OK/GD32VW55X_Wifi_BLE_SDK/GD32VW55x_RELEASE_V1.0.2/MSDK/plf/src\gd32vw55x_platform.c ****     // Enable wifi
 565:C:/Users/stapi/OneDrive/Desktop/GD32VW553/V1_MQTT_OK/GD32VW55X_Wifi_BLE_SDK/GD32VW55x_RELEASE_V1.0.2/MSDK/plf/src\gd32vw55x_platform.c ****     wifi_pmu_config();
 1223              		.loc 1 565 5
 1224 0008 97000000 		call	wifi_pmu_config
 1224      E7800000 
 1225              	.LVL104:
 566:C:/Users/stapi/OneDrive/Desktop/GD32VW553/V1_MQTT_OK/GD32VW55X_Wifi_BLE_SDK/GD32VW55x_RELEASE_V1.0.2/MSDK/plf/src\gd32vw55x_platform.c ****     wifi_rcc_config();
 1226              		.loc 1 566 5
 1227 0010 97000000 		call	wifi_rcc_config
 1227      E7800000 
 1228              	.LVL105:
 567:C:/Users/stapi/OneDrive/Desktop/GD32VW553/V1_MQTT_OK/GD32VW55X_Wifi_BLE_SDK/GD32VW55x_RELEASE_V1.0.2/MSDK/plf/src\gd32vw55x_platform.c **** 
 568:C:/Users/stapi/OneDrive/Desktop/GD32VW553/V1_MQTT_OK/GD32VW55X_Wifi_BLE_SDK/GD32VW55x_RELEASE_V1.0.2/MSDK/plf/src\gd32vw55x_platform.c ****     //wifi_irq_enable();
 569:C:/Users/stapi/OneDrive/Desktop/GD32VW553/V1_MQTT_OK/GD32VW55X_Wifi_BLE_SDK/GD32VW55x_RELEASE_V1.0.2/MSDK/plf/src\gd32vw55x_platform.c **** 
 570:C:/Users/stapi/OneDrive/Desktop/GD32VW553/V1_MQTT_OK/GD32VW55X_Wifi_BLE_SDK/GD32VW55x_RELEASE_V1.0.2/MSDK/plf/src\gd32vw55x_platform.c ****     return 0;
 1229              		.loc 1 570 5
 571:C:/Users/stapi/OneDrive/Desktop/GD32VW553/V1_MQTT_OK/GD32VW55X_Wifi_BLE_SDK/GD32VW55x_RELEASE_V1.0.2/MSDK/plf/src\gd32vw55x_platform.c **** }
 1230              		.loc 1 571 1 is_stmt 0
 1231 0018 0145     		li	a0,0
 1232 001a 17030000 		tail	__riscv_restore_0
 1232      67000300 
 1233              		.cfi_restore 1
 1234              		.cfi_def_cfa_offset 0
 1235              		.cfi_endproc
 1236              	.LFE412:
 1238              		.section	.text.wifi_power_off,"ax",@progbits
 1239              		.align	1
 1240              		.globl	wifi_power_off
 1242              	wifi_power_off:
 1243              	.LFB413:
 572:C:/Users/stapi/OneDrive/Desktop/GD32VW553/V1_MQTT_OK/GD32VW55X_Wifi_BLE_SDK/GD32VW55x_RELEASE_V1.0.2/MSDK/plf/src\gd32vw55x_platform.c **** 
 573:C:/Users/stapi/OneDrive/Desktop/GD32VW553/V1_MQTT_OK/GD32VW55X_Wifi_BLE_SDK/GD32VW55x_RELEASE_V1.0.2/MSDK/plf/src\gd32vw55x_platform.c **** void wifi_power_off(void)
 574:C:/Users/stapi/OneDrive/Desktop/GD32VW553/V1_MQTT_OK/GD32VW55X_Wifi_BLE_SDK/GD32VW55x_RELEASE_V1.0.2/MSDK/plf/src\gd32vw55x_platform.c **** {
 1244              		.loc 1 574 1 is_stmt 1
 1245              		.cfi_startproc
 1246 0000 17030000 		call	t0,__riscv_save_1
 1246      E7020300 
 1247              		.cfi_offset 8, -8
 1248              		.cfi_offset 1, -4
 1249              		.cfi_def_cfa_offset 16
 575:C:/Users/stapi/OneDrive/Desktop/GD32VW553/V1_MQTT_OK/GD32VW55X_Wifi_BLE_SDK/GD32VW55x_RELEASE_V1.0.2/MSDK/plf/src\gd32vw55x_platform.c ****     /* disable wifi interrupts */
 576:C:/Users/stapi/OneDrive/Desktop/GD32VW553/V1_MQTT_OK/GD32VW55X_Wifi_BLE_SDK/GD32VW55x_RELEASE_V1.0.2/MSDK/plf/src\gd32vw55x_platform.c ****     //wifi_irq_disable();
 577:C:/Users/stapi/OneDrive/Desktop/GD32VW553/V1_MQTT_OK/GD32VW55X_Wifi_BLE_SDK/GD32VW55x_RELEASE_V1.0.2/MSDK/plf/src\gd32vw55x_platform.c **** 
 578:C:/Users/stapi/OneDrive/Desktop/GD32VW553/V1_MQTT_OK/GD32VW55X_Wifi_BLE_SDK/GD32VW55x_RELEASE_V1.0.2/MSDK/plf/src\gd32vw55x_platform.c ****     /* RCC disable wifi clock */
 579:C:/Users/stapi/OneDrive/Desktop/GD32VW553/V1_MQTT_OK/GD32VW55X_Wifi_BLE_SDK/GD32VW55x_RELEASE_V1.0.2/MSDK/plf/src\gd32vw55x_platform.c ****     rcu_periph_clock_disable(RCU_WIFI);
 1250              		.loc 1 579 5
 1251 0008 0564     		li	s0,4096
 1252 000a 1305D4C0 		addi	a0,s0,-1011
 1253 000e 97000000 		call	rcu_periph_clock_disable
 1253      E7800000 
 1254              	.LVL106:
 580:C:/Users/stapi/OneDrive/Desktop/GD32VW553/V1_MQTT_OK/GD32VW55X_Wifi_BLE_SDK/GD32VW55x_RELEASE_V1.0.2/MSDK/plf/src\gd32vw55x_platform.c ****     rcu_periph_clock_disable(RCU_WIFIRUN);
 1255              		.loc 1 580 5
 1256 0016 1305E4C0 		addi	a0,s0,-1010
 1257 001a 97000000 		call	rcu_periph_clock_disable
 1257      E7800000 
 1258              	.LVL107:
 581:C:/Users/stapi/OneDrive/Desktop/GD32VW553/V1_MQTT_OK/GD32VW55X_Wifi_BLE_SDK/GD32VW55x_RELEASE_V1.0.2/MSDK/plf/src\gd32vw55x_platform.c **** 
 582:C:/Users/stapi/OneDrive/Desktop/GD32VW553/V1_MQTT_OK/GD32VW55X_Wifi_BLE_SDK/GD32VW55x_RELEASE_V1.0.2/MSDK/plf/src\gd32vw55x_platform.c ****     /* PMU set wifi to sleep state */
 583:C:/Users/stapi/OneDrive/Desktop/GD32VW553/V1_MQTT_OK/GD32VW55X_Wifi_BLE_SDK/GD32VW55x_RELEASE_V1.0.2/MSDK/plf/src\gd32vw55x_platform.c ****     pmu_wifi_sram_control(PMU_WIFI_SLEEP);
 1259              		.loc 1 583 5
 1260 0022 1145     		li	a0,4
 1261 0024 97000000 		call	pmu_wifi_sram_control
 1261      E7800000 
 1262              	.LVL108:
 584:C:/Users/stapi/OneDrive/Desktop/GD32VW553/V1_MQTT_OK/GD32VW55X_Wifi_BLE_SDK/GD32VW55x_RELEASE_V1.0.2/MSDK/plf/src\gd32vw55x_platform.c **** }
 1263              		.loc 1 584 1 is_stmt 0
 1264 002c 17030000 		tail	__riscv_restore_1
 1264      67000300 
 1265              		.cfi_restore 8
 1266              		.cfi_restore 1
 1267              		.cfi_def_cfa_offset 0
 1268              		.cfi_endproc
 1269              	.LFE413:
 1271              		.section	.text.wifi_led_config,"ax",@progbits
 1272              		.align	1
 1273              		.globl	wifi_led_config
 1275              	wifi_led_config:
 1276              	.LFB414:
 585:C:/Users/stapi/OneDrive/Desktop/GD32VW553/V1_MQTT_OK/GD32VW55X_Wifi_BLE_SDK/GD32VW55x_RELEASE_V1.0.2/MSDK/plf/src\gd32vw55x_platform.c **** 
 586:C:/Users/stapi/OneDrive/Desktop/GD32VW553/V1_MQTT_OK/GD32VW55X_Wifi_BLE_SDK/GD32VW55x_RELEASE_V1.0.2/MSDK/plf/src\gd32vw55x_platform.c **** void wifi_led_config(void)
 587:C:/Users/stapi/OneDrive/Desktop/GD32VW553/V1_MQTT_OK/GD32VW55X_Wifi_BLE_SDK/GD32VW55x_RELEASE_V1.0.2/MSDK/plf/src\gd32vw55x_platform.c **** {
 1277              		.loc 1 587 1 is_stmt 1
 1278              		.cfi_startproc
 1279 0000 17030000 		call	t0,__riscv_save_1
 1279      E7020300 
 1280              		.cfi_offset 8, -8
 1281              		.cfi_offset 1, -4
 1282              		.cfi_def_cfa_offset 16
 588:C:/Users/stapi/OneDrive/Desktop/GD32VW553/V1_MQTT_OK/GD32VW55X_Wifi_BLE_SDK/GD32VW55x_RELEASE_V1.0.2/MSDK/plf/src\gd32vw55x_platform.c ****     /* enable the LED GPIO clock */
 589:C:/Users/stapi/OneDrive/Desktop/GD32VW553/V1_MQTT_OK/GD32VW55X_Wifi_BLE_SDK/GD32VW55x_RELEASE_V1.0.2/MSDK/plf/src\gd32vw55x_platform.c ****     rcu_periph_clock_enable(RCU_GPIOC);
 1283              		.loc 1 589 5
 1284 0008 0565     		li	a0,4096
 1285 000a 130525C0 		addi	a0,a0,-1022
 590:C:/Users/stapi/OneDrive/Desktop/GD32VW553/V1_MQTT_OK/GD32VW55X_Wifi_BLE_SDK/GD32VW55x_RELEASE_V1.0.2/MSDK/plf/src\gd32vw55x_platform.c ****     /* configure LED GPIO pin */
 591:C:/Users/stapi/OneDrive/Desktop/GD32VW553/V1_MQTT_OK/GD32VW55X_Wifi_BLE_SDK/GD32VW55x_RELEASE_V1.0.2/MSDK/plf/src\gd32vw55x_platform.c ****     gpio_mode_set(GPIOC, GPIO_MODE_OUTPUT, GPIO_PUPD_NONE, LED_RUN);
 1286              		.loc 1 591 5 is_stmt 0
 1287 000e 37140240 		li	s0,1073876992
 589:C:/Users/stapi/OneDrive/Desktop/GD32VW553/V1_MQTT_OK/GD32VW55X_Wifi_BLE_SDK/GD32VW55x_RELEASE_V1.0.2/MSDK/plf/src\gd32vw55x_platform.c ****     /* configure LED GPIO pin */
 1288              		.loc 1 589 5
 1289 0012 97000000 		call	rcu_periph_clock_enable
 1289      E7800000 
 1290              	.LVL109:
 1291              		.loc 1 591 5 is_stmt 1
 1292 001a 13050480 		addi	a0,s0,-2048
 1293 001e 8546     		li	a3,1
 1294 0020 0146     		li	a2,0
 1295 0022 8545     		li	a1,1
 1296 0024 97000000 		call	gpio_mode_set
 1296      E7800000 
 1297              	.LVL110:
 592:C:/Users/stapi/OneDrive/Desktop/GD32VW553/V1_MQTT_OK/GD32VW55X_Wifi_BLE_SDK/GD32VW55x_RELEASE_V1.0.2/MSDK/plf/src\gd32vw55x_platform.c ****     gpio_output_options_set(GPIOC, GPIO_OTYPE_PP, GPIO_OSPEED_MAX, LED_RUN);
 1298              		.loc 1 592 5
 1299 002c 13050480 		addi	a0,s0,-2048
 1300 0030 8546     		li	a3,1
 1301 0032 0D46     		li	a2,3
 1302 0034 8145     		li	a1,0
 1303 0036 97000000 		call	gpio_output_options_set
 1303      E7800000 
 1304              	.LVL111:
 593:C:/Users/stapi/OneDrive/Desktop/GD32VW553/V1_MQTT_OK/GD32VW55X_Wifi_BLE_SDK/GD32VW55x_RELEASE_V1.0.2/MSDK/plf/src\gd32vw55x_platform.c ****     gpio_mode_set(GPIOC, GPIO_MODE_OUTPUT, GPIO_PUPD_NONE, LED_RX);
 1305              		.loc 1 593 5
 1306 003e 13050480 		addi	a0,s0,-2048
 1307 0042 9146     		li	a3,4
 1308 0044 0146     		li	a2,0
 1309 0046 8545     		li	a1,1
 1310 0048 97000000 		call	gpio_mode_set
 1310      E7800000 
 1311              	.LVL112:
 594:C:/Users/stapi/OneDrive/Desktop/GD32VW553/V1_MQTT_OK/GD32VW55X_Wifi_BLE_SDK/GD32VW55x_RELEASE_V1.0.2/MSDK/plf/src\gd32vw55x_platform.c ****     gpio_output_options_set(GPIOC, GPIO_OTYPE_PP, GPIO_OSPEED_MAX, LED_RX);
 1312              		.loc 1 594 5
 1313 0050 13050480 		addi	a0,s0,-2048
 1314 0054 9146     		li	a3,4
 1315 0056 0D46     		li	a2,3
 1316 0058 8145     		li	a1,0
 1317 005a 97000000 		call	gpio_output_options_set
 1317      E7800000 
 1318              	.LVL113:
 595:C:/Users/stapi/OneDrive/Desktop/GD32VW553/V1_MQTT_OK/GD32VW55X_Wifi_BLE_SDK/GD32VW55x_RELEASE_V1.0.2/MSDK/plf/src\gd32vw55x_platform.c ****     gpio_mode_set(GPIOC, GPIO_MODE_OUTPUT, GPIO_PUPD_NONE, LED_SLEEP);
 1319              		.loc 1 595 5
 1320 0062 13050480 		addi	a0,s0,-2048
 1321 0066 8946     		li	a3,2
 1322 0068 0146     		li	a2,0
 1323 006a 8545     		li	a1,1
 1324 006c 97000000 		call	gpio_mode_set
 1324      E7800000 
 1325              	.LVL114:
 596:C:/Users/stapi/OneDrive/Desktop/GD32VW553/V1_MQTT_OK/GD32VW55X_Wifi_BLE_SDK/GD32VW55x_RELEASE_V1.0.2/MSDK/plf/src\gd32vw55x_platform.c ****     gpio_output_options_set(GPIOC, GPIO_OTYPE_PP, GPIO_OSPEED_MAX, LED_SLEEP);
 1326              		.loc 1 596 5
 1327 0074 8946     		li	a3,2
 1328 0076 0D46     		li	a2,3
 1329 0078 8145     		li	a1,0
 1330 007a 13050480 		addi	a0,s0,-2048
 1331 007e 97000000 		call	gpio_output_options_set
 1331      E7800000 
 1332              	.LVL115:
 597:C:/Users/stapi/OneDrive/Desktop/GD32VW553/V1_MQTT_OK/GD32VW55X_Wifi_BLE_SDK/GD32VW55x_RELEASE_V1.0.2/MSDK/plf/src\gd32vw55x_platform.c **** 
 598:C:/Users/stapi/OneDrive/Desktop/GD32VW553/V1_MQTT_OK/GD32VW55X_Wifi_BLE_SDK/GD32VW55x_RELEASE_V1.0.2/MSDK/plf/src\gd32vw55x_platform.c ****     //LED_ON(LED_RUN);
 599:C:/Users/stapi/OneDrive/Desktop/GD32VW553/V1_MQTT_OK/GD32VW55X_Wifi_BLE_SDK/GD32VW55x_RELEASE_V1.0.2/MSDK/plf/src\gd32vw55x_platform.c **** }
 1333              		.loc 1 599 1 is_stmt 0
 1334 0086 17030000 		tail	__riscv_restore_1
 1334      67000300 
 1335              		.cfi_restore 8
 1336              		.cfi_restore 1
 1337              		.cfi_def_cfa_offset 0
 1338              		.cfi_endproc
 1339              	.LFE414:
 1341              		.section	.text.rf_pmu_par_config,"ax",@progbits
 1342              		.align	1
 1343              		.globl	rf_pmu_par_config
 1345              	rf_pmu_par_config:
 1346              	.LFB417:
 600:C:/Users/stapi/OneDrive/Desktop/GD32VW553/V1_MQTT_OK/GD32VW55X_Wifi_BLE_SDK/GD32VW55x_RELEASE_V1.0.2/MSDK/plf/src\gd32vw55x_platform.c **** #endif
 601:C:/Users/stapi/OneDrive/Desktop/GD32VW553/V1_MQTT_OK/GD32VW55X_Wifi_BLE_SDK/GD32VW55x_RELEASE_V1.0.2/MSDK/plf/src\gd32vw55x_platform.c **** 
 602:C:/Users/stapi/OneDrive/Desktop/GD32VW553/V1_MQTT_OK/GD32VW55X_Wifi_BLE_SDK/GD32VW55x_RELEASE_V1.0.2/MSDK/plf/src\gd32vw55x_platform.c **** #ifdef CONFIG_PLATFORM_ASIC
 603:C:/Users/stapi/OneDrive/Desktop/GD32VW553/V1_MQTT_OK/GD32VW55X_Wifi_BLE_SDK/GD32VW55x_RELEASE_V1.0.2/MSDK/plf/src\gd32vw55x_platform.c **** __INLINE void rf_rcc_config(void)
 604:C:/Users/stapi/OneDrive/Desktop/GD32VW553/V1_MQTT_OK/GD32VW55X_Wifi_BLE_SDK/GD32VW55x_RELEASE_V1.0.2/MSDK/plf/src\gd32vw55x_platform.c **** {
 605:C:/Users/stapi/OneDrive/Desktop/GD32VW553/V1_MQTT_OK/GD32VW55X_Wifi_BLE_SDK/GD32VW55x_RELEASE_V1.0.2/MSDK/plf/src\gd32vw55x_platform.c ****     /* polling RF DPLL ready */
 606:C:/Users/stapi/OneDrive/Desktop/GD32VW553/V1_MQTT_OK/GD32VW55X_Wifi_BLE_SDK/GD32VW55x_RELEASE_V1.0.2/MSDK/plf/src\gd32vw55x_platform.c ****     while ((RCU_CTL & RCU_CTL_PLLDIGSTB) == 0) {
 607:C:/Users/stapi/OneDrive/Desktop/GD32VW553/V1_MQTT_OK/GD32VW55X_Wifi_BLE_SDK/GD32VW55x_RELEASE_V1.0.2/MSDK/plf/src\gd32vw55x_platform.c ****     }
 608:C:/Users/stapi/OneDrive/Desktop/GD32VW553/V1_MQTT_OK/GD32VW55X_Wifi_BLE_SDK/GD32VW55x_RELEASE_V1.0.2/MSDK/plf/src\gd32vw55x_platform.c **** 
 609:C:/Users/stapi/OneDrive/Desktop/GD32VW553/V1_MQTT_OK/GD32VW55X_Wifi_BLE_SDK/GD32VW55x_RELEASE_V1.0.2/MSDK/plf/src\gd32vw55x_platform.c ****     rcu_periph_clock_enable(RCU_RF);
 610:C:/Users/stapi/OneDrive/Desktop/GD32VW553/V1_MQTT_OK/GD32VW55X_Wifi_BLE_SDK/GD32VW55x_RELEASE_V1.0.2/MSDK/plf/src\gd32vw55x_platform.c ****     rcu_periph_reset_enable(RCU_RFRST);
 611:C:/Users/stapi/OneDrive/Desktop/GD32VW553/V1_MQTT_OK/GD32VW55X_Wifi_BLE_SDK/GD32VW55x_RELEASE_V1.0.2/MSDK/plf/src\gd32vw55x_platform.c ****     rcu_periph_reset_disable(RCU_RFRST);
 612:C:/Users/stapi/OneDrive/Desktop/GD32VW553/V1_MQTT_OK/GD32VW55X_Wifi_BLE_SDK/GD32VW55x_RELEASE_V1.0.2/MSDK/plf/src\gd32vw55x_platform.c ****     rcu_periph_clock_enable(RCU_RFI);
 613:C:/Users/stapi/OneDrive/Desktop/GD32VW553/V1_MQTT_OK/GD32VW55X_Wifi_BLE_SDK/GD32VW55x_RELEASE_V1.0.2/MSDK/plf/src\gd32vw55x_platform.c ****     rcu_periph_reset_enable(RCU_RFIRST);
 614:C:/Users/stapi/OneDrive/Desktop/GD32VW553/V1_MQTT_OK/GD32VW55X_Wifi_BLE_SDK/GD32VW55x_RELEASE_V1.0.2/MSDK/plf/src\gd32vw55x_platform.c ****     rcu_periph_reset_disable(RCU_RFIRST);
 615:C:/Users/stapi/OneDrive/Desktop/GD32VW553/V1_MQTT_OK/GD32VW55X_Wifi_BLE_SDK/GD32VW55x_RELEASE_V1.0.2/MSDK/plf/src\gd32vw55x_platform.c **** }
 616:C:/Users/stapi/OneDrive/Desktop/GD32VW553/V1_MQTT_OK/GD32VW55X_Wifi_BLE_SDK/GD32VW55x_RELEASE_V1.0.2/MSDK/plf/src\gd32vw55x_platform.c **** #else /* CONFIG_PLATFORM_ASIC */
 617:C:/Users/stapi/OneDrive/Desktop/GD32VW553/V1_MQTT_OK/GD32VW55X_Wifi_BLE_SDK/GD32VW55x_RELEASE_V1.0.2/MSDK/plf/src\gd32vw55x_platform.c **** __INLINE void rf_rcc_config(void)
 618:C:/Users/stapi/OneDrive/Desktop/GD32VW553/V1_MQTT_OK/GD32VW55X_Wifi_BLE_SDK/GD32VW55x_RELEASE_V1.0.2/MSDK/plf/src\gd32vw55x_platform.c **** {
 619:C:/Users/stapi/OneDrive/Desktop/GD32VW553/V1_MQTT_OK/GD32VW55X_Wifi_BLE_SDK/GD32VW55x_RELEASE_V1.0.2/MSDK/plf/src\gd32vw55x_platform.c ****     /* RF PU & RF reset(bit29-30)*/
 620:C:/Users/stapi/OneDrive/Desktop/GD32VW553/V1_MQTT_OK/GD32VW55X_Wifi_BLE_SDK/GD32VW55x_RELEASE_V1.0.2/MSDK/plf/src\gd32vw55x_platform.c ****     REG32(RCU + 0x30) |= 0x60000000;
 621:C:/Users/stapi/OneDrive/Desktop/GD32VW553/V1_MQTT_OK/GD32VW55X_Wifi_BLE_SDK/GD32VW55x_RELEASE_V1.0.2/MSDK/plf/src\gd32vw55x_platform.c **** }
 622:C:/Users/stapi/OneDrive/Desktop/GD32VW553/V1_MQTT_OK/GD32VW55X_Wifi_BLE_SDK/GD32VW55x_RELEASE_V1.0.2/MSDK/plf/src\gd32vw55x_platform.c **** #endif /* CONFIG_PLATFORM_ASIC */
 623:C:/Users/stapi/OneDrive/Desktop/GD32VW553/V1_MQTT_OK/GD32VW55X_Wifi_BLE_SDK/GD32VW55x_RELEASE_V1.0.2/MSDK/plf/src\gd32vw55x_platform.c **** 
 624:C:/Users/stapi/OneDrive/Desktop/GD32VW553/V1_MQTT_OK/GD32VW55X_Wifi_BLE_SDK/GD32VW55x_RELEASE_V1.0.2/MSDK/plf/src\gd32vw55x_platform.c **** static void rf_crystal_config(void)
 625:C:/Users/stapi/OneDrive/Desktop/GD32VW553/V1_MQTT_OK/GD32VW55X_Wifi_BLE_SDK/GD32VW55x_RELEASE_V1.0.2/MSDK/plf/src\gd32vw55x_platform.c **** {
 626:C:/Users/stapi/OneDrive/Desktop/GD32VW553/V1_MQTT_OK/GD32VW55X_Wifi_BLE_SDK/GD32VW55x_RELEASE_V1.0.2/MSDK/plf/src\gd32vw55x_platform.c **** #if PLATFORM_CRYSTAL == CRYSTAL_26M
 627:C:/Users/stapi/OneDrive/Desktop/GD32VW553/V1_MQTT_OK/GD32VW55X_Wifi_BLE_SDK/GD32VW55x_RELEASE_V1.0.2/MSDK/plf/src\gd32vw55x_platform.c ****     uint32_t fxtal = 26;
 628:C:/Users/stapi/OneDrive/Desktop/GD32VW553/V1_MQTT_OK/GD32VW55X_Wifi_BLE_SDK/GD32VW55x_RELEASE_V1.0.2/MSDK/plf/src\gd32vw55x_platform.c ****     uint32_t delta_1m;
 629:C:/Users/stapi/OneDrive/Desktop/GD32VW553/V1_MQTT_OK/GD32VW55X_Wifi_BLE_SDK/GD32VW55x_RELEASE_V1.0.2/MSDK/plf/src\gd32vw55x_platform.c ****     double frac;
 630:C:/Users/stapi/OneDrive/Desktop/GD32VW553/V1_MQTT_OK/GD32VW55X_Wifi_BLE_SDK/GD32VW55x_RELEASE_V1.0.2/MSDK/plf/src\gd32vw55x_platform.c ****     uint32_t reg_value;
 631:C:/Users/stapi/OneDrive/Desktop/GD32VW553/V1_MQTT_OK/GD32VW55X_Wifi_BLE_SDK/GD32VW55x_RELEASE_V1.0.2/MSDK/plf/src\gd32vw55x_platform.c **** 
 632:C:/Users/stapi/OneDrive/Desktop/GD32VW553/V1_MQTT_OK/GD32VW55X_Wifi_BLE_SDK/GD32VW55x_RELEASE_V1.0.2/MSDK/plf/src\gd32vw55x_platform.c ****     write_rf_reg(0x50, ((read_rf_reg(0x50) & ~BITS(0,3)) | 0x8));
 633:C:/Users/stapi/OneDrive/Desktop/GD32VW553/V1_MQTT_OK/GD32VW55X_Wifi_BLE_SDK/GD32VW55x_RELEASE_V1.0.2/MSDK/plf/src\gd32vw55x_platform.c **** 
 634:C:/Users/stapi/OneDrive/Desktop/GD32VW553/V1_MQTT_OK/GD32VW55X_Wifi_BLE_SDK/GD32VW55x_RELEASE_V1.0.2/MSDK/plf/src\gd32vw55x_platform.c ****     delta_1m = ((1 << 27) * 4) / (fxtal * 8);
 635:C:/Users/stapi/OneDrive/Desktop/GD32VW553/V1_MQTT_OK/GD32VW55X_Wifi_BLE_SDK/GD32VW55x_RELEASE_V1.0.2/MSDK/plf/src\gd32vw55x_platform.c ****     REG_PHY_RFTOP_WR(0x2c, delta_1m);
 636:C:/Users/stapi/OneDrive/Desktop/GD32VW553/V1_MQTT_OK/GD32VW55X_Wifi_BLE_SDK/GD32VW55x_RELEASE_V1.0.2/MSDK/plf/src\gd32vw55x_platform.c **** 
 637:C:/Users/stapi/OneDrive/Desktop/GD32VW553/V1_MQTT_OK/GD32VW55X_Wifi_BLE_SDK/GD32VW55x_RELEASE_V1.0.2/MSDK/plf/src\gd32vw55x_platform.c ****     frac = (2402 * 4.0f) / (fxtal * 8.0f);
 638:C:/Users/stapi/OneDrive/Desktop/GD32VW553/V1_MQTT_OK/GD32VW55X_Wifi_BLE_SDK/GD32VW55x_RELEASE_V1.0.2/MSDK/plf/src\gd32vw55x_platform.c ****     reg_value = ((uint32_t)(frac * BIT(21)));
 639:C:/Users/stapi/OneDrive/Desktop/GD32VW553/V1_MQTT_OK/GD32VW55X_Wifi_BLE_SDK/GD32VW55x_RELEASE_V1.0.2/MSDK/plf/src\gd32vw55x_platform.c ****     REG_PHY_RFTOP_WR(0x28, ((REG_PHY_RFTOP_RD(0x28) & ~BITS(0,29)) | reg_value));
 640:C:/Users/stapi/OneDrive/Desktop/GD32VW553/V1_MQTT_OK/GD32VW55X_Wifi_BLE_SDK/GD32VW55x_RELEASE_V1.0.2/MSDK/plf/src\gd32vw55x_platform.c **** 
 641:C:/Users/stapi/OneDrive/Desktop/GD32VW553/V1_MQTT_OK/GD32VW55X_Wifi_BLE_SDK/GD32VW55x_RELEASE_V1.0.2/MSDK/plf/src\gd32vw55x_platform.c ****     REG_PHY_RFTOP_WR(0x14, ((REG_PHY_RFTOP_RD(0x14) & ~BITS(0,7)) | 0xa));
 642:C:/Users/stapi/OneDrive/Desktop/GD32VW553/V1_MQTT_OK/GD32VW55X_Wifi_BLE_SDK/GD32VW55x_RELEASE_V1.0.2/MSDK/plf/src\gd32vw55x_platform.c **** #endif
 643:C:/Users/stapi/OneDrive/Desktop/GD32VW553/V1_MQTT_OK/GD32VW55X_Wifi_BLE_SDK/GD32VW55x_RELEASE_V1.0.2/MSDK/plf/src\gd32vw55x_platform.c **** }
 644:C:/Users/stapi/OneDrive/Desktop/GD32VW553/V1_MQTT_OK/GD32VW55X_Wifi_BLE_SDK/GD32VW55x_RELEASE_V1.0.2/MSDK/plf/src\gd32vw55x_platform.c **** 
 645:C:/Users/stapi/OneDrive/Desktop/GD32VW553/V1_MQTT_OK/GD32VW55X_Wifi_BLE_SDK/GD32VW55x_RELEASE_V1.0.2/MSDK/plf/src\gd32vw55x_platform.c **** void rf_pmu_par_config(void)
 646:C:/Users/stapi/OneDrive/Desktop/GD32VW553/V1_MQTT_OK/GD32VW55X_Wifi_BLE_SDK/GD32VW55x_RELEASE_V1.0.2/MSDK/plf/src\gd32vw55x_platform.c **** {
 1347              		.loc 1 646 1 is_stmt 1
 1348              		.cfi_startproc
 647:C:/Users/stapi/OneDrive/Desktop/GD32VW553/V1_MQTT_OK/GD32VW55X_Wifi_BLE_SDK/GD32VW55x_RELEASE_V1.0.2/MSDK/plf/src\gd32vw55x_platform.c ****     /* set PMU_RFPAR_T1 to 0 so that RF XTAL up time is 1ms */
 648:C:/Users/stapi/OneDrive/Desktop/GD32VW553/V1_MQTT_OK/GD32VW55X_Wifi_BLE_SDK/GD32VW55x_RELEASE_V1.0.2/MSDK/plf/src\gd32vw55x_platform.c ****     PMU_RFPAR = PMU_RFPAR  & (~PMU_RFPAR_TIM1_PAR);
 1349              		.loc 1 648 5
 1350              		.loc 1 648 17 is_stmt 0
 1351 0000 37770040 		li	a4,1073770496
 1352 0004 5C53     		lw	a5,36(a4)
 1353              		.loc 1 648 28
 1354 0006 93F707F8 		andi	a5,a5,-128
 1355              		.loc 1 648 15
 1356 000a 5CD3     		sw	a5,36(a4)
 649:C:/Users/stapi/OneDrive/Desktop/GD32VW553/V1_MQTT_OK/GD32VW55X_Wifi_BLE_SDK/GD32VW55x_RELEASE_V1.0.2/MSDK/plf/src\gd32vw55x_platform.c **** }
 1357              		.loc 1 649 1
 1358 000c 8280     		ret
 1359              		.cfi_endproc
 1360              	.LFE417:
 1362              		.section	.text.rf_power_on,"ax",@progbits
 1363              		.align	1
 1364              		.globl	rf_power_on
 1366              	rf_power_on:
 1367              	.LFB418:
 650:C:/Users/stapi/OneDrive/Desktop/GD32VW553/V1_MQTT_OK/GD32VW55X_Wifi_BLE_SDK/GD32VW55x_RELEASE_V1.0.2/MSDK/plf/src\gd32vw55x_platform.c **** 
 651:C:/Users/stapi/OneDrive/Desktop/GD32VW553/V1_MQTT_OK/GD32VW55X_Wifi_BLE_SDK/GD32VW55x_RELEASE_V1.0.2/MSDK/plf/src\gd32vw55x_platform.c **** int rf_power_on(void)
 652:C:/Users/stapi/OneDrive/Desktop/GD32VW553/V1_MQTT_OK/GD32VW55X_Wifi_BLE_SDK/GD32VW55x_RELEASE_V1.0.2/MSDK/plf/src\gd32vw55x_platform.c **** {
 1368              		.loc 1 652 1 is_stmt 1
 1369              		.cfi_startproc
 1370 0000 17030000 		call	t0,__riscv_save_1
 1370      E7020300 
 1371              		.cfi_offset 8, -8
 1372              		.cfi_offset 1, -4
 1373              		.cfi_def_cfa_offset 16
 653:C:/Users/stapi/OneDrive/Desktop/GD32VW553/V1_MQTT_OK/GD32VW55X_Wifi_BLE_SDK/GD32VW55x_RELEASE_V1.0.2/MSDK/plf/src\gd32vw55x_platform.c **** #ifdef CONFIG_PLATFORM_FPGA
 654:C:/Users/stapi/OneDrive/Desktop/GD32VW553/V1_MQTT_OK/GD32VW55X_Wifi_BLE_SDK/GD32VW55x_RELEASE_V1.0.2/MSDK/plf/src\gd32vw55x_platform.c ****     spi_config();
 655:C:/Users/stapi/OneDrive/Desktop/GD32VW553/V1_MQTT_OK/GD32VW55X_Wifi_BLE_SDK/GD32VW55x_RELEASE_V1.0.2/MSDK/plf/src\gd32vw55x_platform.c ****     // Reset and enable RF PU
 656:C:/Users/stapi/OneDrive/Desktop/GD32VW553/V1_MQTT_OK/GD32VW55X_Wifi_BLE_SDK/GD32VW55x_RELEASE_V1.0.2/MSDK/plf/src\gd32vw55x_platform.c ****     rf_rcc_config();
 657:C:/Users/stapi/OneDrive/Desktop/GD32VW553/V1_MQTT_OK/GD32VW55X_Wifi_BLE_SDK/GD32VW55x_RELEASE_V1.0.2/MSDK/plf/src\gd32vw55x_platform.c **** 
 658:C:/Users/stapi/OneDrive/Desktop/GD32VW553/V1_MQTT_OK/GD32VW55X_Wifi_BLE_SDK/GD32VW55x_RELEASE_V1.0.2/MSDK/plf/src\gd32vw55x_platform.c ****     // Wait RF PU stable
 659:C:/Users/stapi/OneDrive/Desktop/GD32VW553/V1_MQTT_OK/GD32VW55X_Wifi_BLE_SDK/GD32VW55x_RELEASE_V1.0.2/MSDK/plf/src\gd32vw55x_platform.c ****     systick_udelay(50);
 660:C:/Users/stapi/OneDrive/Desktop/GD32VW553/V1_MQTT_OK/GD32VW55X_Wifi_BLE_SDK/GD32VW55x_RELEASE_V1.0.2/MSDK/plf/src\gd32vw55x_platform.c **** 
 661:C:/Users/stapi/OneDrive/Desktop/GD32VW553/V1_MQTT_OK/GD32VW55X_Wifi_BLE_SDK/GD32VW55x_RELEASE_V1.0.2/MSDK/plf/src\gd32vw55x_platform.c ****     // RF 960M clock should enable and stable first before wifi work.
 662:C:/Users/stapi/OneDrive/Desktop/GD32VW553/V1_MQTT_OK/GD32VW55X_Wifi_BLE_SDK/GD32VW55x_RELEASE_V1.0.2/MSDK/plf/src\gd32vw55x_platform.c ****     hal_start_rf_pll();
 663:C:/Users/stapi/OneDrive/Desktop/GD32VW553/V1_MQTT_OK/GD32VW55X_Wifi_BLE_SDK/GD32VW55x_RELEASE_V1.0.2/MSDK/plf/src\gd32vw55x_platform.c **** #else
 664:C:/Users/stapi/OneDrive/Desktop/GD32VW553/V1_MQTT_OK/GD32VW55X_Wifi_BLE_SDK/GD32VW55x_RELEASE_V1.0.2/MSDK/plf/src\gd32vw55x_platform.c ****     rf_rcc_config();
 1374              		.loc 1 664 5
 1375              	.LBB56:
 1376              	.LBB57:
 606:C:/Users/stapi/OneDrive/Desktop/GD32VW553/V1_MQTT_OK/GD32VW55X_Wifi_BLE_SDK/GD32VW55x_RELEASE_V1.0.2/MSDK/plf/src\gd32vw55x_platform.c ****     }
 1377              		.loc 1 606 5
 606:C:/Users/stapi/OneDrive/Desktop/GD32VW553/V1_MQTT_OK/GD32VW55X_Wifi_BLE_SDK/GD32VW55x_RELEASE_V1.0.2/MSDK/plf/src\gd32vw55x_platform.c ****     }
 1378              		.loc 1 606 13 is_stmt 0
 1379 0008 B7460240 		li	a3,1073889280
 606:C:/Users/stapi/OneDrive/Desktop/GD32VW553/V1_MQTT_OK/GD32VW55X_Wifi_BLE_SDK/GD32VW55x_RELEASE_V1.0.2/MSDK/plf/src\gd32vw55x_platform.c ****     }
 1380              		.loc 1 606 21
 1381 000c 37078000 		li	a4,8388608
 1382              	.L115:
 607:C:/Users/stapi/OneDrive/Desktop/GD32VW553/V1_MQTT_OK/GD32VW55X_Wifi_BLE_SDK/GD32VW55x_RELEASE_V1.0.2/MSDK/plf/src\gd32vw55x_platform.c **** 
 1383              		.loc 1 607 5 is_stmt 1
 606:C:/Users/stapi/OneDrive/Desktop/GD32VW553/V1_MQTT_OK/GD32VW55X_Wifi_BLE_SDK/GD32VW55x_RELEASE_V1.0.2/MSDK/plf/src\gd32vw55x_platform.c ****     }
 1384              		.loc 1 606 11
 606:C:/Users/stapi/OneDrive/Desktop/GD32VW553/V1_MQTT_OK/GD32VW55X_Wifi_BLE_SDK/GD32VW55x_RELEASE_V1.0.2/MSDK/plf/src\gd32vw55x_platform.c ****     }
 1385              		.loc 1 606 13 is_stmt 0
 1386 0010 83A70680 		lw	a5,-2048(a3)
 606:C:/Users/stapi/OneDrive/Desktop/GD32VW553/V1_MQTT_OK/GD32VW55X_Wifi_BLE_SDK/GD32VW55x_RELEASE_V1.0.2/MSDK/plf/src\gd32vw55x_platform.c ****     }
 1387              		.loc 1 606 21
 1388 0014 F98F     		and	a5,a5,a4
 606:C:/Users/stapi/OneDrive/Desktop/GD32VW553/V1_MQTT_OK/GD32VW55X_Wifi_BLE_SDK/GD32VW55x_RELEASE_V1.0.2/MSDK/plf/src\gd32vw55x_platform.c ****     }
 1389              		.loc 1 606 11
 1390 0016 EDDF     		beq	a5,zero,.L115
 609:C:/Users/stapi/OneDrive/Desktop/GD32VW553/V1_MQTT_OK/GD32VW55X_Wifi_BLE_SDK/GD32VW55x_RELEASE_V1.0.2/MSDK/plf/src\gd32vw55x_platform.c ****     rcu_periph_reset_enable(RCU_RFRST);
 1391              		.loc 1 609 5 is_stmt 1
 1392 0018 0564     		li	s0,4096
 1393 001a 1305F411 		addi	a0,s0,287
 1394 001e 97000000 		call	rcu_periph_clock_enable
 1394      E7800000 
 1395              	.LVL116:
 610:C:/Users/stapi/OneDrive/Desktop/GD32VW553/V1_MQTT_OK/GD32VW55X_Wifi_BLE_SDK/GD32VW55x_RELEASE_V1.0.2/MSDK/plf/src\gd32vw55x_platform.c ****     rcu_periph_reset_disable(RCU_RFRST);
 1396              		.loc 1 610 5
 1397 0026 1305F491 		addi	a0,s0,-1761
 1398 002a 97000000 		call	rcu_periph_reset_enable
 1398      E7800000 
 1399              	.LVL117:
 611:C:/Users/stapi/OneDrive/Desktop/GD32VW553/V1_MQTT_OK/GD32VW55X_Wifi_BLE_SDK/GD32VW55x_RELEASE_V1.0.2/MSDK/plf/src\gd32vw55x_platform.c ****     rcu_periph_clock_enable(RCU_RFI);
 1400              		.loc 1 611 5
 1401 0032 1305F491 		addi	a0,s0,-1761
 1402 0036 97000000 		call	rcu_periph_reset_disable
 1402      E7800000 
 1403              	.LVL118:
 612:C:/Users/stapi/OneDrive/Desktop/GD32VW553/V1_MQTT_OK/GD32VW55X_Wifi_BLE_SDK/GD32VW55x_RELEASE_V1.0.2/MSDK/plf/src\gd32vw55x_platform.c ****     rcu_periph_reset_enable(RCU_RFIRST);
 1404              		.loc 1 612 5
 1405 003e 1305F400 		addi	a0,s0,15
 1406 0042 97000000 		call	rcu_periph_clock_enable
 1406      E7800000 
 1407              	.LVL119:
 613:C:/Users/stapi/OneDrive/Desktop/GD32VW553/V1_MQTT_OK/GD32VW55X_Wifi_BLE_SDK/GD32VW55x_RELEASE_V1.0.2/MSDK/plf/src\gd32vw55x_platform.c ****     rcu_periph_reset_disable(RCU_RFIRST);
 1408              		.loc 1 613 5
 1409 004a 1305F480 		addi	a0,s0,-2033
 1410 004e 97000000 		call	rcu_periph_reset_enable
 1410      E7800000 
 1411              	.LVL120:
 614:C:/Users/stapi/OneDrive/Desktop/GD32VW553/V1_MQTT_OK/GD32VW55X_Wifi_BLE_SDK/GD32VW55x_RELEASE_V1.0.2/MSDK/plf/src\gd32vw55x_platform.c **** }
 1412              		.loc 1 614 5
 1413 0056 1305F480 		addi	a0,s0,-2033
 1414 005a 97000000 		call	rcu_periph_reset_disable
 1414      E7800000 
 1415              	.LVL121:
 1416              	.LBE57:
 1417              	.LBE56:
 665:C:/Users/stapi/OneDrive/Desktop/GD32VW553/V1_MQTT_OK/GD32VW55X_Wifi_BLE_SDK/GD32VW55x_RELEASE_V1.0.2/MSDK/plf/src\gd32vw55x_platform.c ****     rf_crystal_config();
 1418              		.loc 1 665 5
 643:C:/Users/stapi/OneDrive/Desktop/GD32VW553/V1_MQTT_OK/GD32VW55X_Wifi_BLE_SDK/GD32VW55x_RELEASE_V1.0.2/MSDK/plf/src\gd32vw55x_platform.c **** 
 1419              		.loc 1 643 1
 666:C:/Users/stapi/OneDrive/Desktop/GD32VW553/V1_MQTT_OK/GD32VW55X_Wifi_BLE_SDK/GD32VW55x_RELEASE_V1.0.2/MSDK/plf/src\gd32vw55x_platform.c **** #endif
 667:C:/Users/stapi/OneDrive/Desktop/GD32VW553/V1_MQTT_OK/GD32VW55X_Wifi_BLE_SDK/GD32VW55x_RELEASE_V1.0.2/MSDK/plf/src\gd32vw55x_platform.c **** 
 668:C:/Users/stapi/OneDrive/Desktop/GD32VW553/V1_MQTT_OK/GD32VW55X_Wifi_BLE_SDK/GD32VW55x_RELEASE_V1.0.2/MSDK/plf/src\gd32vw55x_platform.c ****     rf_pmu_par_config();
 1420              		.loc 1 668 5
 1421 0062 97000000 		call	rf_pmu_par_config
 1421      E7800000 
 1422              	.LVL122:
 669:C:/Users/stapi/OneDrive/Desktop/GD32VW553/V1_MQTT_OK/GD32VW55X_Wifi_BLE_SDK/GD32VW55x_RELEASE_V1.0.2/MSDK/plf/src\gd32vw55x_platform.c ****     // init rfi
 670:C:/Users/stapi/OneDrive/Desktop/GD32VW553/V1_MQTT_OK/GD32VW55X_Wifi_BLE_SDK/GD32VW55x_RELEASE_V1.0.2/MSDK/plf/src\gd32vw55x_platform.c ****     hal_rfi_init();
 1423              		.loc 1 670 5
 1424 006a 97000000 		call	hal_rfi_init
 1424      E7800000 
 1425              	.LVL123:
 671:C:/Users/stapi/OneDrive/Desktop/GD32VW553/V1_MQTT_OK/GD32VW55X_Wifi_BLE_SDK/GD32VW55x_RELEASE_V1.0.2/MSDK/plf/src\gd32vw55x_platform.c **** 
 672:C:/Users/stapi/OneDrive/Desktop/GD32VW553/V1_MQTT_OK/GD32VW55X_Wifi_BLE_SDK/GD32VW55x_RELEASE_V1.0.2/MSDK/plf/src\gd32vw55x_platform.c ****     // Add the initial configuration of the RF/ADC/DAC/etc.
 673:C:/Users/stapi/OneDrive/Desktop/GD32VW553/V1_MQTT_OK/GD32VW55X_Wifi_BLE_SDK/GD32VW55x_RELEASE_V1.0.2/MSDK/plf/src\gd32vw55x_platform.c ****     hal_init_rf();
 1426              		.loc 1 673 5
 1427 0072 97000000 		call	hal_init_rf
 1427      E7800000 
 1428              	.LVL124:
 674:C:/Users/stapi/OneDrive/Desktop/GD32VW553/V1_MQTT_OK/GD32VW55X_Wifi_BLE_SDK/GD32VW55x_RELEASE_V1.0.2/MSDK/plf/src\gd32vw55x_platform.c **** 
 675:C:/Users/stapi/OneDrive/Desktop/GD32VW553/V1_MQTT_OK/GD32VW55X_Wifi_BLE_SDK/GD32VW55x_RELEASE_V1.0.2/MSDK/plf/src\gd32vw55x_platform.c ****     return 0;
 1429              		.loc 1 675 5
 676:C:/Users/stapi/OneDrive/Desktop/GD32VW553/V1_MQTT_OK/GD32VW55X_Wifi_BLE_SDK/GD32VW55x_RELEASE_V1.0.2/MSDK/plf/src\gd32vw55x_platform.c **** }
 1430              		.loc 1 676 1 is_stmt 0
 1431 007a 0145     		li	a0,0
 1432 007c 17030000 		tail	__riscv_restore_1
 1432      67000300 
 1433              		.cfi_restore 8
 1434              		.cfi_restore 1
 1435              		.cfi_def_cfa_offset 0
 1436              		.cfi_endproc
 1437              	.LFE418:
 1439              		.section	.text.rf_power_off,"ax",@progbits
 1440              		.align	1
 1441              		.globl	rf_power_off
 1443              	rf_power_off:
 1444              	.LFB419:
 677:C:/Users/stapi/OneDrive/Desktop/GD32VW553/V1_MQTT_OK/GD32VW55X_Wifi_BLE_SDK/GD32VW55x_RELEASE_V1.0.2/MSDK/plf/src\gd32vw55x_platform.c **** 
 678:C:/Users/stapi/OneDrive/Desktop/GD32VW553/V1_MQTT_OK/GD32VW55X_Wifi_BLE_SDK/GD32VW55x_RELEASE_V1.0.2/MSDK/plf/src\gd32vw55x_platform.c **** void rf_power_off(void)
 679:C:/Users/stapi/OneDrive/Desktop/GD32VW553/V1_MQTT_OK/GD32VW55X_Wifi_BLE_SDK/GD32VW55x_RELEASE_V1.0.2/MSDK/plf/src\gd32vw55x_platform.c **** {
 1445              		.loc 1 679 1 is_stmt 1
 1446              		.cfi_startproc
 1447 0000 17030000 		call	t0,__riscv_save_1
 1447      E7020300 
 1448              		.cfi_offset 8, -8
 1449              		.cfi_offset 1, -4
 1450              		.cfi_def_cfa_offset 16
 680:C:/Users/stapi/OneDrive/Desktop/GD32VW553/V1_MQTT_OK/GD32VW55X_Wifi_BLE_SDK/GD32VW55x_RELEASE_V1.0.2/MSDK/plf/src\gd32vw55x_platform.c **** #ifdef CONFIG_PLATFORM_ASIC
 681:C:/Users/stapi/OneDrive/Desktop/GD32VW553/V1_MQTT_OK/GD32VW55X_Wifi_BLE_SDK/GD32VW55x_RELEASE_V1.0.2/MSDK/plf/src\gd32vw55x_platform.c ****     rcu_periph_clock_disable(RCU_RFI);
 1451              		.loc 1 681 5
 1452 0008 0564     		li	s0,4096
 1453 000a 1305F400 		addi	a0,s0,15
 1454 000e 97000000 		call	rcu_periph_clock_disable
 1454      E7800000 
 1455              	.LVL125:
 682:C:/Users/stapi/OneDrive/Desktop/GD32VW553/V1_MQTT_OK/GD32VW55X_Wifi_BLE_SDK/GD32VW55x_RELEASE_V1.0.2/MSDK/plf/src\gd32vw55x_platform.c ****     rcu_periph_clock_disable(RCU_RF);
 1456              		.loc 1 682 5
 1457 0016 1305F411 		addi	a0,s0,287
 1458 001a 97000000 		call	rcu_periph_clock_disable
 1458      E7800000 
 1459              	.LVL126:
 683:C:/Users/stapi/OneDrive/Desktop/GD32VW553/V1_MQTT_OK/GD32VW55X_Wifi_BLE_SDK/GD32VW55x_RELEASE_V1.0.2/MSDK/plf/src\gd32vw55x_platform.c **** #endif /* CONFIG_PLATFORM_ASIC */
 684:C:/Users/stapi/OneDrive/Desktop/GD32VW553/V1_MQTT_OK/GD32VW55X_Wifi_BLE_SDK/GD32VW55x_RELEASE_V1.0.2/MSDK/plf/src\gd32vw55x_platform.c **** }
 1460              		.loc 1 684 1 is_stmt 0
 1461 0022 17030000 		tail	__riscv_restore_1
 1461      67000300 
 1462              		.cfi_restore 8
 1463              		.cfi_restore 1
 1464              		.cfi_def_cfa_offset 0
 1465              		.cfi_endproc
 1466              	.LFE419:
 1468              		.section	.text.rtc_32k_time_get,"ax",@progbits
 1469              		.align	1
 1470              		.globl	rtc_32k_time_get
 1472              	rtc_32k_time_get:
 1473              	.LFB421:
 685:C:/Users/stapi/OneDrive/Desktop/GD32VW553/V1_MQTT_OK/GD32VW55X_Wifi_BLE_SDK/GD32VW55x_RELEASE_V1.0.2/MSDK/plf/src\gd32vw55x_platform.c **** 
 686:C:/Users/stapi/OneDrive/Desktop/GD32VW553/V1_MQTT_OK/GD32VW55X_Wifi_BLE_SDK/GD32VW55x_RELEASE_V1.0.2/MSDK/plf/src\gd32vw55x_platform.c **** #ifdef CONFIG_PLATFORM_FPGA
 687:C:/Users/stapi/OneDrive/Desktop/GD32VW553/V1_MQTT_OK/GD32VW55X_Wifi_BLE_SDK/GD32VW55x_RELEASE_V1.0.2/MSDK/plf/src\gd32vw55x_platform.c **** #define RTC_CLOCK_SOURCE_HXTAL_DIV_RTCDIV
 688:C:/Users/stapi/OneDrive/Desktop/GD32VW553/V1_MQTT_OK/GD32VW55X_Wifi_BLE_SDK/GD32VW55x_RELEASE_V1.0.2/MSDK/plf/src\gd32vw55x_platform.c **** #else
 689:C:/Users/stapi/OneDrive/Desktop/GD32VW553/V1_MQTT_OK/GD32VW55X_Wifi_BLE_SDK/GD32VW55x_RELEASE_V1.0.2/MSDK/plf/src\gd32vw55x_platform.c **** #define RTC_CLOCK_SOURCE_IRC32K
 690:C:/Users/stapi/OneDrive/Desktop/GD32VW553/V1_MQTT_OK/GD32VW55X_Wifi_BLE_SDK/GD32VW55x_RELEASE_V1.0.2/MSDK/plf/src\gd32vw55x_platform.c **** #endif
 691:C:/Users/stapi/OneDrive/Desktop/GD32VW553/V1_MQTT_OK/GD32VW55X_Wifi_BLE_SDK/GD32VW55x_RELEASE_V1.0.2/MSDK/plf/src\gd32vw55x_platform.c **** 
 692:C:/Users/stapi/OneDrive/Desktop/GD32VW553/V1_MQTT_OK/GD32VW55X_Wifi_BLE_SDK/GD32VW55x_RELEASE_V1.0.2/MSDK/plf/src\gd32vw55x_platform.c **** __IO uint32_t prescaler_a = 0, prescaler_s = 0;
 693:C:/Users/stapi/OneDrive/Desktop/GD32VW553/V1_MQTT_OK/GD32VW55X_Wifi_BLE_SDK/GD32VW55x_RELEASE_V1.0.2/MSDK/plf/src\gd32vw55x_platform.c **** 
 694:C:/Users/stapi/OneDrive/Desktop/GD32VW553/V1_MQTT_OK/GD32VW55X_Wifi_BLE_SDK/GD32VW55x_RELEASE_V1.0.2/MSDK/plf/src\gd32vw55x_platform.c **** /*!
 695:C:/Users/stapi/OneDrive/Desktop/GD32VW553/V1_MQTT_OK/GD32VW55X_Wifi_BLE_SDK/GD32VW55x_RELEASE_V1.0.2/MSDK/plf/src\gd32vw55x_platform.c ****     \brief      configure RTC pre-configure
 696:C:/Users/stapi/OneDrive/Desktop/GD32VW553/V1_MQTT_OK/GD32VW55X_Wifi_BLE_SDK/GD32VW55x_RELEASE_V1.0.2/MSDK/plf/src\gd32vw55x_platform.c ****     \param[in]  none
 697:C:/Users/stapi/OneDrive/Desktop/GD32VW553/V1_MQTT_OK/GD32VW55X_Wifi_BLE_SDK/GD32VW55x_RELEASE_V1.0.2/MSDK/plf/src\gd32vw55x_platform.c ****     \param[out] none
 698:C:/Users/stapi/OneDrive/Desktop/GD32VW553/V1_MQTT_OK/GD32VW55X_Wifi_BLE_SDK/GD32VW55x_RELEASE_V1.0.2/MSDK/plf/src\gd32vw55x_platform.c ****     \retval     none
 699:C:/Users/stapi/OneDrive/Desktop/GD32VW553/V1_MQTT_OK/GD32VW55X_Wifi_BLE_SDK/GD32VW55x_RELEASE_V1.0.2/MSDK/plf/src\gd32vw55x_platform.c **** */
 700:C:/Users/stapi/OneDrive/Desktop/GD32VW553/V1_MQTT_OK/GD32VW55X_Wifi_BLE_SDK/GD32VW55x_RELEASE_V1.0.2/MSDK/plf/src\gd32vw55x_platform.c **** static void rtc_pre_config(void)
 701:C:/Users/stapi/OneDrive/Desktop/GD32VW553/V1_MQTT_OK/GD32VW55X_Wifi_BLE_SDK/GD32VW55x_RELEASE_V1.0.2/MSDK/plf/src\gd32vw55x_platform.c **** {
 702:C:/Users/stapi/OneDrive/Desktop/GD32VW553/V1_MQTT_OK/GD32VW55X_Wifi_BLE_SDK/GD32VW55x_RELEASE_V1.0.2/MSDK/plf/src\gd32vw55x_platform.c ****     #if defined(RTC_CLOCK_SOURCE_IRC32K)
 703:C:/Users/stapi/OneDrive/Desktop/GD32VW553/V1_MQTT_OK/GD32VW55X_Wifi_BLE_SDK/GD32VW55x_RELEASE_V1.0.2/MSDK/plf/src\gd32vw55x_platform.c ****         rcu_osci_on(RCU_IRC32K);
 704:C:/Users/stapi/OneDrive/Desktop/GD32VW553/V1_MQTT_OK/GD32VW55X_Wifi_BLE_SDK/GD32VW55x_RELEASE_V1.0.2/MSDK/plf/src\gd32vw55x_platform.c ****         rcu_osci_stab_wait(RCU_IRC32K);
 705:C:/Users/stapi/OneDrive/Desktop/GD32VW553/V1_MQTT_OK/GD32VW55X_Wifi_BLE_SDK/GD32VW55x_RELEASE_V1.0.2/MSDK/plf/src\gd32vw55x_platform.c ****         rcu_rtc_clock_config(RCU_RTCSRC_IRC32K);
 706:C:/Users/stapi/OneDrive/Desktop/GD32VW553/V1_MQTT_OK/GD32VW55X_Wifi_BLE_SDK/GD32VW55x_RELEASE_V1.0.2/MSDK/plf/src\gd32vw55x_platform.c **** 
 707:C:/Users/stapi/OneDrive/Desktop/GD32VW553/V1_MQTT_OK/GD32VW55X_Wifi_BLE_SDK/GD32VW55x_RELEASE_V1.0.2/MSDK/plf/src\gd32vw55x_platform.c ****         prescaler_s = 0x3E7;  // 0x13F;
 708:C:/Users/stapi/OneDrive/Desktop/GD32VW553/V1_MQTT_OK/GD32VW55X_Wifi_BLE_SDK/GD32VW55x_RELEASE_V1.0.2/MSDK/plf/src\gd32vw55x_platform.c ****         prescaler_a = 0x1F;  // 0x63;
 709:C:/Users/stapi/OneDrive/Desktop/GD32VW553/V1_MQTT_OK/GD32VW55X_Wifi_BLE_SDK/GD32VW55x_RELEASE_V1.0.2/MSDK/plf/src\gd32vw55x_platform.c ****     #elif defined(RTC_CLOCK_SOURCE_LXTAL)
 710:C:/Users/stapi/OneDrive/Desktop/GD32VW553/V1_MQTT_OK/GD32VW55X_Wifi_BLE_SDK/GD32VW55x_RELEASE_V1.0.2/MSDK/plf/src\gd32vw55x_platform.c ****         rcu_osci_on(RCU_LXTAL);
 711:C:/Users/stapi/OneDrive/Desktop/GD32VW553/V1_MQTT_OK/GD32VW55X_Wifi_BLE_SDK/GD32VW55x_RELEASE_V1.0.2/MSDK/plf/src\gd32vw55x_platform.c ****         rcu_osci_stab_wait(RCU_LXTAL);
 712:C:/Users/stapi/OneDrive/Desktop/GD32VW553/V1_MQTT_OK/GD32VW55X_Wifi_BLE_SDK/GD32VW55x_RELEASE_V1.0.2/MSDK/plf/src\gd32vw55x_platform.c ****         rcu_rtc_clock_config(RCU_RTCSRC_LXTAL);
 713:C:/Users/stapi/OneDrive/Desktop/GD32VW553/V1_MQTT_OK/GD32VW55X_Wifi_BLE_SDK/GD32VW55x_RELEASE_V1.0.2/MSDK/plf/src\gd32vw55x_platform.c **** 
 714:C:/Users/stapi/OneDrive/Desktop/GD32VW553/V1_MQTT_OK/GD32VW55X_Wifi_BLE_SDK/GD32VW55x_RELEASE_V1.0.2/MSDK/plf/src\gd32vw55x_platform.c ****         prescaler_s = 0xFF;
 715:C:/Users/stapi/OneDrive/Desktop/GD32VW553/V1_MQTT_OK/GD32VW55X_Wifi_BLE_SDK/GD32VW55x_RELEASE_V1.0.2/MSDK/plf/src\gd32vw55x_platform.c ****         prescaler_a = 0x7F;
 716:C:/Users/stapi/OneDrive/Desktop/GD32VW553/V1_MQTT_OK/GD32VW55X_Wifi_BLE_SDK/GD32VW55x_RELEASE_V1.0.2/MSDK/plf/src\gd32vw55x_platform.c ****     #elif defined(RTC_CLOCK_SOURCE_HXTAL_DIV_RTCDIV)
 717:C:/Users/stapi/OneDrive/Desktop/GD32VW553/V1_MQTT_OK/GD32VW55X_Wifi_BLE_SDK/GD32VW55x_RELEASE_V1.0.2/MSDK/plf/src\gd32vw55x_platform.c ****         rcu_osci_on(RCU_HXTAL);
 718:C:/Users/stapi/OneDrive/Desktop/GD32VW553/V1_MQTT_OK/GD32VW55X_Wifi_BLE_SDK/GD32VW55x_RELEASE_V1.0.2/MSDK/plf/src\gd32vw55x_platform.c ****         rcu_osci_stab_wait(RCU_HXTAL);
 719:C:/Users/stapi/OneDrive/Desktop/GD32VW553/V1_MQTT_OK/GD32VW55X_Wifi_BLE_SDK/GD32VW55x_RELEASE_V1.0.2/MSDK/plf/src\gd32vw55x_platform.c ****         prescaler_s = 0x3E7;  // 999;
 720:C:/Users/stapi/OneDrive/Desktop/GD32VW553/V1_MQTT_OK/GD32VW55X_Wifi_BLE_SDK/GD32VW55x_RELEASE_V1.0.2/MSDK/plf/src\gd32vw55x_platform.c ****         prescaler_a = 0x13;  // 19;
 721:C:/Users/stapi/OneDrive/Desktop/GD32VW553/V1_MQTT_OK/GD32VW55X_Wifi_BLE_SDK/GD32VW55x_RELEASE_V1.0.2/MSDK/plf/src\gd32vw55x_platform.c ****         /* HW fix pre-scaler 100*/
 722:C:/Users/stapi/OneDrive/Desktop/GD32VW553/V1_MQTT_OK/GD32VW55X_Wifi_BLE_SDK/GD32VW55x_RELEASE_V1.0.2/MSDK/plf/src\gd32vw55x_platform.c ****         /* rtc clock selection as (HXTAL/25)/100 = 20KHZ */
 723:C:/Users/stapi/OneDrive/Desktop/GD32VW553/V1_MQTT_OK/GD32VW55X_Wifi_BLE_SDK/GD32VW55x_RELEASE_V1.0.2/MSDK/plf/src\gd32vw55x_platform.c ****         rcu_rtc_clock_config(RCU_RTCSRC_HXTAL_DIV_RTCDIV);
 724:C:/Users/stapi/OneDrive/Desktop/GD32VW553/V1_MQTT_OK/GD32VW55X_Wifi_BLE_SDK/GD32VW55x_RELEASE_V1.0.2/MSDK/plf/src\gd32vw55x_platform.c ****         rcu_rtc_div_config(RCU_RTC_HXTAL_DIV25);
 725:C:/Users/stapi/OneDrive/Desktop/GD32VW553/V1_MQTT_OK/GD32VW55X_Wifi_BLE_SDK/GD32VW55x_RELEASE_V1.0.2/MSDK/plf/src\gd32vw55x_platform.c ****     #else
 726:C:/Users/stapi/OneDrive/Desktop/GD32VW553/V1_MQTT_OK/GD32VW55X_Wifi_BLE_SDK/GD32VW55x_RELEASE_V1.0.2/MSDK/plf/src\gd32vw55x_platform.c ****     #error RTC clock source should be defined.
 727:C:/Users/stapi/OneDrive/Desktop/GD32VW553/V1_MQTT_OK/GD32VW55X_Wifi_BLE_SDK/GD32VW55x_RELEASE_V1.0.2/MSDK/plf/src\gd32vw55x_platform.c ****     #endif  /* RTC_CLOCK_SOURCE_IRC32K */
 728:C:/Users/stapi/OneDrive/Desktop/GD32VW553/V1_MQTT_OK/GD32VW55X_Wifi_BLE_SDK/GD32VW55x_RELEASE_V1.0.2/MSDK/plf/src\gd32vw55x_platform.c **** 
 729:C:/Users/stapi/OneDrive/Desktop/GD32VW553/V1_MQTT_OK/GD32VW55X_Wifi_BLE_SDK/GD32VW55x_RELEASE_V1.0.2/MSDK/plf/src\gd32vw55x_platform.c ****     rcu_periph_clock_enable(RCU_RTC);
 730:C:/Users/stapi/OneDrive/Desktop/GD32VW553/V1_MQTT_OK/GD32VW55X_Wifi_BLE_SDK/GD32VW55x_RELEASE_V1.0.2/MSDK/plf/src\gd32vw55x_platform.c ****     rtc_register_sync_wait();
 731:C:/Users/stapi/OneDrive/Desktop/GD32VW553/V1_MQTT_OK/GD32VW55X_Wifi_BLE_SDK/GD32VW55x_RELEASE_V1.0.2/MSDK/plf/src\gd32vw55x_platform.c **** }
 732:C:/Users/stapi/OneDrive/Desktop/GD32VW553/V1_MQTT_OK/GD32VW55X_Wifi_BLE_SDK/GD32VW55x_RELEASE_V1.0.2/MSDK/plf/src\gd32vw55x_platform.c **** 
 733:C:/Users/stapi/OneDrive/Desktop/GD32VW553/V1_MQTT_OK/GD32VW55X_Wifi_BLE_SDK/GD32VW55x_RELEASE_V1.0.2/MSDK/plf/src\gd32vw55x_platform.c **** /*!
 734:C:/Users/stapi/OneDrive/Desktop/GD32VW553/V1_MQTT_OK/GD32VW55X_Wifi_BLE_SDK/GD32VW55x_RELEASE_V1.0.2/MSDK/plf/src\gd32vw55x_platform.c ****     \brief      get rtc 32k time
 735:C:/Users/stapi/OneDrive/Desktop/GD32VW553/V1_MQTT_OK/GD32VW55X_Wifi_BLE_SDK/GD32VW55x_RELEASE_V1.0.2/MSDK/plf/src\gd32vw55x_platform.c ****     \param[in]  cur_time: pointer to the input structure
 736:C:/Users/stapi/OneDrive/Desktop/GD32VW553/V1_MQTT_OK/GD32VW55X_Wifi_BLE_SDK/GD32VW55x_RELEASE_V1.0.2/MSDK/plf/src\gd32vw55x_platform.c ****                   tv_sec: second of current time
 737:C:/Users/stapi/OneDrive/Desktop/GD32VW553/V1_MQTT_OK/GD32VW55X_Wifi_BLE_SDK/GD32VW55x_RELEASE_V1.0.2/MSDK/plf/src\gd32vw55x_platform.c ****                   tv_msec: miliseconds of current time
 738:C:/Users/stapi/OneDrive/Desktop/GD32VW553/V1_MQTT_OK/GD32VW55X_Wifi_BLE_SDK/GD32VW55x_RELEASE_V1.0.2/MSDK/plf/src\gd32vw55x_platform.c ****      \param[in]  is_wakeup: wakeup state
 739:C:/Users/stapi/OneDrive/Desktop/GD32VW553/V1_MQTT_OK/GD32VW55X_Wifi_BLE_SDK/GD32VW55x_RELEASE_V1.0.2/MSDK/plf/src\gd32vw55x_platform.c ****     \param[out] none
 740:C:/Users/stapi/OneDrive/Desktop/GD32VW553/V1_MQTT_OK/GD32VW55X_Wifi_BLE_SDK/GD32VW55x_RELEASE_V1.0.2/MSDK/plf/src\gd32vw55x_platform.c ****     \retval     none
 741:C:/Users/stapi/OneDrive/Desktop/GD32VW553/V1_MQTT_OK/GD32VW55X_Wifi_BLE_SDK/GD32VW55x_RELEASE_V1.0.2/MSDK/plf/src\gd32vw55x_platform.c **** */
 742:C:/Users/stapi/OneDrive/Desktop/GD32VW553/V1_MQTT_OK/GD32VW55X_Wifi_BLE_SDK/GD32VW55x_RELEASE_V1.0.2/MSDK/plf/src\gd32vw55x_platform.c **** void rtc_32k_time_get(struct time_rtc *cur_time, uint32_t is_wakeup)
 743:C:/Users/stapi/OneDrive/Desktop/GD32VW553/V1_MQTT_OK/GD32VW55X_Wifi_BLE_SDK/GD32VW55x_RELEASE_V1.0.2/MSDK/plf/src\gd32vw55x_platform.c **** {
 1474              		.loc 1 743 1 is_stmt 1
 1475              		.cfi_startproc
 1476              	.LVL127:
 1477 0000 17030000 		call	t0,__riscv_save_2
 1477      E7020300 
 1478              		.cfi_offset 9, -12
 1479              		.cfi_offset 8, -8
 1480              		.cfi_offset 1, -4
 1481              		.cfi_def_cfa_offset 16
 744:C:/Users/stapi/OneDrive/Desktop/GD32VW553/V1_MQTT_OK/GD32VW55X_Wifi_BLE_SDK/GD32VW55x_RELEASE_V1.0.2/MSDK/plf/src\gd32vw55x_platform.c ****     rtc_parameter_struct rtc_time;
 1482              		.loc 1 744 5
 745:C:/Users/stapi/OneDrive/Desktop/GD32VW553/V1_MQTT_OK/GD32VW55X_Wifi_BLE_SDK/GD32VW55x_RELEASE_V1.0.2/MSDK/plf/src\gd32vw55x_platform.c ****     uint32_t second;
 1483              		.loc 1 745 5
 746:C:/Users/stapi/OneDrive/Desktop/GD32VW553/V1_MQTT_OK/GD32VW55X_Wifi_BLE_SDK/GD32VW55x_RELEASE_V1.0.2/MSDK/plf/src\gd32vw55x_platform.c ****     uint32_t sub_second;
 1484              		.loc 1 746 5
 747:C:/Users/stapi/OneDrive/Desktop/GD32VW553/V1_MQTT_OK/GD32VW55X_Wifi_BLE_SDK/GD32VW55x_RELEASE_V1.0.2/MSDK/plf/src\gd32vw55x_platform.c **** 
 748:C:/Users/stapi/OneDrive/Desktop/GD32VW553/V1_MQTT_OK/GD32VW55X_Wifi_BLE_SDK/GD32VW55x_RELEASE_V1.0.2/MSDK/plf/src\gd32vw55x_platform.c ****     if (is_wakeup) {
 1485              		.loc 1 748 5
 743:C:/Users/stapi/OneDrive/Desktop/GD32VW553/V1_MQTT_OK/GD32VW55X_Wifi_BLE_SDK/GD32VW55x_RELEASE_V1.0.2/MSDK/plf/src\gd32vw55x_platform.c ****     rtc_parameter_struct rtc_time;
 1486              		.loc 1 743 1 is_stmt 0
 1487 0008 0111     		addi	sp,sp,-32
 1488              		.cfi_def_cfa_offset 48
 743:C:/Users/stapi/OneDrive/Desktop/GD32VW553/V1_MQTT_OK/GD32VW55X_Wifi_BLE_SDK/GD32VW55x_RELEASE_V1.0.2/MSDK/plf/src\gd32vw55x_platform.c ****     rtc_parameter_struct rtc_time;
 1489              		.loc 1 743 1
 1490 000a 2A84     		mv	s0,a0
 1491              		.loc 1 748 8
 1492 000c 89C5     		beq	a1,zero,.L122
 749:C:/Users/stapi/OneDrive/Desktop/GD32VW553/V1_MQTT_OK/GD32VW55X_Wifi_BLE_SDK/GD32VW55x_RELEASE_V1.0.2/MSDK/plf/src\gd32vw55x_platform.c ****         rtc_register_sync_wait();
 1493              		.loc 1 749 9 is_stmt 1
 1494 000e 97000000 		call	rtc_register_sync_wait
 1494      E7800000 
 1495              	.LVL128:
 1496              	.L122:
 750:C:/Users/stapi/OneDrive/Desktop/GD32VW553/V1_MQTT_OK/GD32VW55X_Wifi_BLE_SDK/GD32VW55x_RELEASE_V1.0.2/MSDK/plf/src\gd32vw55x_platform.c ****     }
 751:C:/Users/stapi/OneDrive/Desktop/GD32VW553/V1_MQTT_OK/GD32VW55X_Wifi_BLE_SDK/GD32VW55x_RELEASE_V1.0.2/MSDK/plf/src\gd32vw55x_platform.c **** 
 752:C:/Users/stapi/OneDrive/Desktop/GD32VW553/V1_MQTT_OK/GD32VW55X_Wifi_BLE_SDK/GD32VW55x_RELEASE_V1.0.2/MSDK/plf/src\gd32vw55x_platform.c ****     /* If directly call rtc_subsecond_get() function to get sub-second,
 753:C:/Users/stapi/OneDrive/Desktop/GD32VW553/V1_MQTT_OK/GD32VW55X_Wifi_BLE_SDK/GD32VW55x_RELEASE_V1.0.2/MSDK/plf/src\gd32vw55x_platform.c ****        it would unlock RTC_TIME and RTC_DATE by reading the RTC_DATE at the end.
 754:C:/Users/stapi/OneDrive/Desktop/GD32VW553/V1_MQTT_OK/GD32VW55X_Wifi_BLE_SDK/GD32VW55x_RELEASE_V1.0.2/MSDK/plf/src\gd32vw55x_platform.c ****        This could not protect the situation where we read the time just 59.999.
 755:C:/Users/stapi/OneDrive/Desktop/GD32VW553/V1_MQTT_OK/GD32VW55X_Wifi_BLE_SDK/GD32VW55x_RELEASE_V1.0.2/MSDK/plf/src\gd32vw55x_platform.c ****        as RTC_TIME may be updated to 00 at the next clock.
 756:C:/Users/stapi/OneDrive/Desktop/GD32VW553/V1_MQTT_OK/GD32VW55X_Wifi_BLE_SDK/GD32VW55x_RELEASE_V1.0.2/MSDK/plf/src\gd32vw55x_platform.c ****     */
 757:C:/Users/stapi/OneDrive/Desktop/GD32VW553/V1_MQTT_OK/GD32VW55X_Wifi_BLE_SDK/GD32VW55x_RELEASE_V1.0.2/MSDK/plf/src\gd32vw55x_platform.c ****     // Firstly we read RTC_SS to lock RTC_TIME and RTC_DATE,
 758:C:/Users/stapi/OneDrive/Desktop/GD32VW553/V1_MQTT_OK/GD32VW55X_Wifi_BLE_SDK/GD32VW55x_RELEASE_V1.0.2/MSDK/plf/src\gd32vw55x_platform.c ****     sub_second = RTC_SS;
 1497              		.loc 1 758 5
 1498              		.loc 1 758 16 is_stmt 0
 1499 0016 B7370040 		li	a5,1073754112
 759:C:/Users/stapi/OneDrive/Desktop/GD32VW553/V1_MQTT_OK/GD32VW55X_Wifi_BLE_SDK/GD32VW55x_RELEASE_V1.0.2/MSDK/plf/src\gd32vw55x_platform.c **** 
 760:C:/Users/stapi/OneDrive/Desktop/GD32VW553/V1_MQTT_OK/GD32VW55X_Wifi_BLE_SDK/GD32VW55x_RELEASE_V1.0.2/MSDK/plf/src\gd32vw55x_platform.c ****     /* Then, we must call rtc_current_time_get here to read RTC_TIME && RTC_DATA
 761:C:/Users/stapi/OneDrive/Desktop/GD32VW553/V1_MQTT_OK/GD32VW55X_Wifi_BLE_SDK/GD32VW55x_RELEASE_V1.0.2/MSDK/plf/src\gd32vw55x_platform.c ****        and unlock them by the way
 762:C:/Users/stapi/OneDrive/Desktop/GD32VW553/V1_MQTT_OK/GD32VW55X_Wifi_BLE_SDK/GD32VW55x_RELEASE_V1.0.2/MSDK/plf/src\gd32vw55x_platform.c ****     */
 763:C:/Users/stapi/OneDrive/Desktop/GD32VW553/V1_MQTT_OK/GD32VW55X_Wifi_BLE_SDK/GD32VW55x_RELEASE_V1.0.2/MSDK/plf/src\gd32vw55x_platform.c ****     rtc_current_time_get(&rtc_time);
 1500              		.loc 1 763 5
 1501 001a 6800     		addi	a0,sp,12
 758:C:/Users/stapi/OneDrive/Desktop/GD32VW553/V1_MQTT_OK/GD32VW55X_Wifi_BLE_SDK/GD32VW55x_RELEASE_V1.0.2/MSDK/plf/src\gd32vw55x_platform.c **** 
 1502              		.loc 1 758 16
 1503 001c 83A48782 		lw	s1,-2008(a5)
 1504              	.LVL129:
 1505              		.loc 1 763 5 is_stmt 1
 1506 0020 97000000 		call	rtc_current_time_get
 1506      E7800000 
 1507              	.LVL130:
 764:C:/Users/stapi/OneDrive/Desktop/GD32VW553/V1_MQTT_OK/GD32VW55X_Wifi_BLE_SDK/GD32VW55x_RELEASE_V1.0.2/MSDK/plf/src\gd32vw55x_platform.c **** 
 765:C:/Users/stapi/OneDrive/Desktop/GD32VW553/V1_MQTT_OK/GD32VW55X_Wifi_BLE_SDK/GD32VW55x_RELEASE_V1.0.2/MSDK/plf/src\gd32vw55x_platform.c ****     second = ((rtc_time.second >> 4) * 10) + (rtc_time.second & 0x0f);
 1508              		.loc 1 765 5
 1509              		.loc 1 765 24 is_stmt 0
 1510 0028 83472101 		lbu	a5,18(sp)
 1511              	.LVL131:
 766:C:/Users/stapi/OneDrive/Desktop/GD32VW553/V1_MQTT_OK/GD32VW55X_Wifi_BLE_SDK/GD32VW55x_RELEASE_V1.0.2/MSDK/plf/src\gd32vw55x_platform.c **** 
 767:C:/Users/stapi/OneDrive/Desktop/GD32VW553/V1_MQTT_OK/GD32VW55X_Wifi_BLE_SDK/GD32VW55x_RELEASE_V1.0.2/MSDK/plf/src\gd32vw55x_platform.c ****     cur_time->tv_sec = second;
 1512              		.loc 1 767 5 is_stmt 1
 765:C:/Users/stapi/OneDrive/Desktop/GD32VW553/V1_MQTT_OK/GD32VW55X_Wifi_BLE_SDK/GD32VW55x_RELEASE_V1.0.2/MSDK/plf/src\gd32vw55x_platform.c **** 
 1513              		.loc 1 765 44 is_stmt 0
 1514 002c 2947     		li	a4,10
 765:C:/Users/stapi/OneDrive/Desktop/GD32VW553/V1_MQTT_OK/GD32VW55X_Wifi_BLE_SDK/GD32VW55x_RELEASE_V1.0.2/MSDK/plf/src\gd32vw55x_platform.c **** 
 1515              		.loc 1 765 32
 1516 002e 93D64700 		srli	a3,a5,4
 765:C:/Users/stapi/OneDrive/Desktop/GD32VW553/V1_MQTT_OK/GD32VW55X_Wifi_BLE_SDK/GD32VW55x_RELEASE_V1.0.2/MSDK/plf/src\gd32vw55x_platform.c **** 
 1517              		.loc 1 765 63
 1518 0032 BD8B     		andi	a5,a5,15
 1519              	.LVL132:
 765:C:/Users/stapi/OneDrive/Desktop/GD32VW553/V1_MQTT_OK/GD32VW55X_Wifi_BLE_SDK/GD32VW55x_RELEASE_V1.0.2/MSDK/plf/src\gd32vw55x_platform.c **** 
 1520              		.loc 1 765 44
 1521 0034 FF97E6C4 		maddr32	a5, a3, a4
 1522              		.loc 1 767 22
 1523 0038 1CC0     		sw	a5,0(s0)
 768:C:/Users/stapi/OneDrive/Desktop/GD32VW553/V1_MQTT_OK/GD32VW55X_Wifi_BLE_SDK/GD32VW55x_RELEASE_V1.0.2/MSDK/plf/src\gd32vw55x_platform.c ****     /* The sub-second(unit ms) calculated formula is as follow:
 769:C:/Users/stapi/OneDrive/Desktop/GD32VW553/V1_MQTT_OK/GD32VW55X_Wifi_BLE_SDK/GD32VW55x_RELEASE_V1.0.2/MSDK/plf/src\gd32vw55x_platform.c ****           sub_second = 1000*((float)(prescaler_s - RTC_SS)/(float)(prescaler_s + 1))
 770:C:/Users/stapi/OneDrive/Desktop/GD32VW553/V1_MQTT_OK/GD32VW55X_Wifi_BLE_SDK/GD32VW55x_RELEASE_V1.0.2/MSDK/plf/src\gd32vw55x_platform.c ****        We can use the simple formula if prescaler_s = 999.
 771:C:/Users/stapi/OneDrive/Desktop/GD32VW553/V1_MQTT_OK/GD32VW55X_Wifi_BLE_SDK/GD32VW55x_RELEASE_V1.0.2/MSDK/plf/src\gd32vw55x_platform.c ****     */
 772:C:/Users/stapi/OneDrive/Desktop/GD32VW553/V1_MQTT_OK/GD32VW55X_Wifi_BLE_SDK/GD32VW55x_RELEASE_V1.0.2/MSDK/plf/src\gd32vw55x_platform.c ****     cur_time->tv_msec = prescaler_s - sub_second;
 1524              		.loc 1 772 5 is_stmt 1
 1525              		.loc 1 772 37 is_stmt 0
 1526 003a B7070000 		lui	a5,%hi(.LANCHOR0)
 1527 003e 83A70700 		lw	a5,%lo(.LANCHOR0)(a5)
 1528 0042 858F     		sub	a5,a5,s1
 1529              		.loc 1 772 23
 1530 0044 5CC0     		sw	a5,4(s0)
 773:C:/Users/stapi/OneDrive/Desktop/GD32VW553/V1_MQTT_OK/GD32VW55X_Wifi_BLE_SDK/GD32VW55x_RELEASE_V1.0.2/MSDK/plf/src\gd32vw55x_platform.c **** }
 1531              		.loc 1 773 1
 1532 0046 0561     		addi	sp,sp,32
 1533              		.cfi_def_cfa_offset 0
 1534              	.LVL133:
 1535 0048 17030000 		tail	__riscv_restore_2
 1535      67000300 
 1536              		.cfi_restore 9
 1537              		.cfi_restore 8
 1538              		.cfi_restore 1
 1539              		.cfi_def_cfa_offset -16
 1540              		.cfi_endproc
 1541              	.LFE421:
 1543              		.section	.rodata.platform_init.str1.4,"aMS",@progbits,1
 1544              		.align	2
 1545              	.LC0:
 1546 0000 52544320 		.string	"RTC time configuration failed!\r"
 1546      74696D65 
 1546      20636F6E 
 1546      66696775 
 1546      72617469 
 1547              		.align	2
 1548              	.LC1:
 1549 0020 6E766473 		.string	"nvds flash init failed\r\n"
 1549      20666C61 
 1549      73682069 
 1549      6E697420 
 1549      6661696C 
 1550              		.section	.text.platform_init,"ax",@progbits
 1551              		.align	1
 1552              		.globl	platform_init
 1554              	platform_init:
 1555              	.LFB426:
 774:C:/Users/stapi/OneDrive/Desktop/GD32VW553/V1_MQTT_OK/GD32VW55X_Wifi_BLE_SDK/GD32VW55x_RELEASE_V1.0.2/MSDK/plf/src\gd32vw55x_platform.c **** 
 775:C:/Users/stapi/OneDrive/Desktop/GD32VW553/V1_MQTT_OK/GD32VW55X_Wifi_BLE_SDK/GD32VW55x_RELEASE_V1.0.2/MSDK/plf/src\gd32vw55x_platform.c **** 
 776:C:/Users/stapi/OneDrive/Desktop/GD32VW553/V1_MQTT_OK/GD32VW55X_Wifi_BLE_SDK/GD32VW55x_RELEASE_V1.0.2/MSDK/plf/src\gd32vw55x_platform.c **** 
 777:C:/Users/stapi/OneDrive/Desktop/GD32VW553/V1_MQTT_OK/GD32VW55X_Wifi_BLE_SDK/GD32VW55x_RELEASE_V1.0.2/MSDK/plf/src\gd32vw55x_platform.c **** /*!
 778:C:/Users/stapi/OneDrive/Desktop/GD32VW553/V1_MQTT_OK/GD32VW55X_Wifi_BLE_SDK/GD32VW55x_RELEASE_V1.0.2/MSDK/plf/src\gd32vw55x_platform.c ****     \brief      setup rtc
 779:C:/Users/stapi/OneDrive/Desktop/GD32VW553/V1_MQTT_OK/GD32VW55X_Wifi_BLE_SDK/GD32VW55x_RELEASE_V1.0.2/MSDK/plf/src\gd32vw55x_platform.c ****     \param[in]  none
 780:C:/Users/stapi/OneDrive/Desktop/GD32VW553/V1_MQTT_OK/GD32VW55X_Wifi_BLE_SDK/GD32VW55x_RELEASE_V1.0.2/MSDK/plf/src\gd32vw55x_platform.c ****     \param[out] none
 781:C:/Users/stapi/OneDrive/Desktop/GD32VW553/V1_MQTT_OK/GD32VW55X_Wifi_BLE_SDK/GD32VW55x_RELEASE_V1.0.2/MSDK/plf/src\gd32vw55x_platform.c ****     \retval     none
 782:C:/Users/stapi/OneDrive/Desktop/GD32VW553/V1_MQTT_OK/GD32VW55X_Wifi_BLE_SDK/GD32VW55x_RELEASE_V1.0.2/MSDK/plf/src\gd32vw55x_platform.c **** */
 783:C:/Users/stapi/OneDrive/Desktop/GD32VW553/V1_MQTT_OK/GD32VW55X_Wifi_BLE_SDK/GD32VW55x_RELEASE_V1.0.2/MSDK/plf/src\gd32vw55x_platform.c **** static void rtc_setup(void)
 784:C:/Users/stapi/OneDrive/Desktop/GD32VW553/V1_MQTT_OK/GD32VW55X_Wifi_BLE_SDK/GD32VW55x_RELEASE_V1.0.2/MSDK/plf/src\gd32vw55x_platform.c **** {
 785:C:/Users/stapi/OneDrive/Desktop/GD32VW553/V1_MQTT_OK/GD32VW55X_Wifi_BLE_SDK/GD32VW55x_RELEASE_V1.0.2/MSDK/plf/src\gd32vw55x_platform.c ****     rtc_parameter_struct rtc_initpara;
 786:C:/Users/stapi/OneDrive/Desktop/GD32VW553/V1_MQTT_OK/GD32VW55X_Wifi_BLE_SDK/GD32VW55x_RELEASE_V1.0.2/MSDK/plf/src\gd32vw55x_platform.c **** 
 787:C:/Users/stapi/OneDrive/Desktop/GD32VW553/V1_MQTT_OK/GD32VW55X_Wifi_BLE_SDK/GD32VW55x_RELEASE_V1.0.2/MSDK/plf/src\gd32vw55x_platform.c ****     /* setup RTC time value */
 788:C:/Users/stapi/OneDrive/Desktop/GD32VW553/V1_MQTT_OK/GD32VW55X_Wifi_BLE_SDK/GD32VW55x_RELEASE_V1.0.2/MSDK/plf/src\gd32vw55x_platform.c ****     uint32_t tmp_hh = 0, tmp_mm = 0, tmp_ss = 0;
 789:C:/Users/stapi/OneDrive/Desktop/GD32VW553/V1_MQTT_OK/GD32VW55X_Wifi_BLE_SDK/GD32VW55x_RELEASE_V1.0.2/MSDK/plf/src\gd32vw55x_platform.c **** 
 790:C:/Users/stapi/OneDrive/Desktop/GD32VW553/V1_MQTT_OK/GD32VW55X_Wifi_BLE_SDK/GD32VW55x_RELEASE_V1.0.2/MSDK/plf/src\gd32vw55x_platform.c ****     rtc_initpara.factor_asyn = prescaler_a;
 791:C:/Users/stapi/OneDrive/Desktop/GD32VW553/V1_MQTT_OK/GD32VW55X_Wifi_BLE_SDK/GD32VW55x_RELEASE_V1.0.2/MSDK/plf/src\gd32vw55x_platform.c ****     rtc_initpara.factor_syn = prescaler_s;
 792:C:/Users/stapi/OneDrive/Desktop/GD32VW553/V1_MQTT_OK/GD32VW55X_Wifi_BLE_SDK/GD32VW55x_RELEASE_V1.0.2/MSDK/plf/src\gd32vw55x_platform.c ****     rtc_initpara.year = 0x20;
 793:C:/Users/stapi/OneDrive/Desktop/GD32VW553/V1_MQTT_OK/GD32VW55X_Wifi_BLE_SDK/GD32VW55x_RELEASE_V1.0.2/MSDK/plf/src\gd32vw55x_platform.c ****     rtc_initpara.day_of_week = RTC_MONDAY;
 794:C:/Users/stapi/OneDrive/Desktop/GD32VW553/V1_MQTT_OK/GD32VW55X_Wifi_BLE_SDK/GD32VW55x_RELEASE_V1.0.2/MSDK/plf/src\gd32vw55x_platform.c ****     rtc_initpara.month = RTC_NOV;
 795:C:/Users/stapi/OneDrive/Desktop/GD32VW553/V1_MQTT_OK/GD32VW55X_Wifi_BLE_SDK/GD32VW55x_RELEASE_V1.0.2/MSDK/plf/src\gd32vw55x_platform.c ****     rtc_initpara.date = 0x2;
 796:C:/Users/stapi/OneDrive/Desktop/GD32VW553/V1_MQTT_OK/GD32VW55X_Wifi_BLE_SDK/GD32VW55x_RELEASE_V1.0.2/MSDK/plf/src\gd32vw55x_platform.c ****     rtc_initpara.display_format = RTC_24HOUR;
 797:C:/Users/stapi/OneDrive/Desktop/GD32VW553/V1_MQTT_OK/GD32VW55X_Wifi_BLE_SDK/GD32VW55x_RELEASE_V1.0.2/MSDK/plf/src\gd32vw55x_platform.c ****     rtc_initpara.am_pm = RTC_AM;
 798:C:/Users/stapi/OneDrive/Desktop/GD32VW553/V1_MQTT_OK/GD32VW55X_Wifi_BLE_SDK/GD32VW55x_RELEASE_V1.0.2/MSDK/plf/src\gd32vw55x_platform.c ****     rtc_initpara.hour = tmp_hh;
 799:C:/Users/stapi/OneDrive/Desktop/GD32VW553/V1_MQTT_OK/GD32VW55X_Wifi_BLE_SDK/GD32VW55x_RELEASE_V1.0.2/MSDK/plf/src\gd32vw55x_platform.c ****     rtc_initpara.minute = tmp_mm;
 800:C:/Users/stapi/OneDrive/Desktop/GD32VW553/V1_MQTT_OK/GD32VW55X_Wifi_BLE_SDK/GD32VW55x_RELEASE_V1.0.2/MSDK/plf/src\gd32vw55x_platform.c ****     rtc_initpara.second = tmp_ss;
 801:C:/Users/stapi/OneDrive/Desktop/GD32VW553/V1_MQTT_OK/GD32VW55X_Wifi_BLE_SDK/GD32VW55x_RELEASE_V1.0.2/MSDK/plf/src\gd32vw55x_platform.c **** 
 802:C:/Users/stapi/OneDrive/Desktop/GD32VW553/V1_MQTT_OK/GD32VW55X_Wifi_BLE_SDK/GD32VW55x_RELEASE_V1.0.2/MSDK/plf/src\gd32vw55x_platform.c ****     /* RTC current time configuration */
 803:C:/Users/stapi/OneDrive/Desktop/GD32VW553/V1_MQTT_OK/GD32VW55X_Wifi_BLE_SDK/GD32VW55x_RELEASE_V1.0.2/MSDK/plf/src\gd32vw55x_platform.c ****     if (ERROR == rtc_init(&rtc_initpara)) {
 804:C:/Users/stapi/OneDrive/Desktop/GD32VW553/V1_MQTT_OK/GD32VW55X_Wifi_BLE_SDK/GD32VW55x_RELEASE_V1.0.2/MSDK/plf/src\gd32vw55x_platform.c ****         printf("RTC time configuration failed!\r\n");
 805:C:/Users/stapi/OneDrive/Desktop/GD32VW553/V1_MQTT_OK/GD32VW55X_Wifi_BLE_SDK/GD32VW55x_RELEASE_V1.0.2/MSDK/plf/src\gd32vw55x_platform.c ****     } else {
 806:C:/Users/stapi/OneDrive/Desktop/GD32VW553/V1_MQTT_OK/GD32VW55X_Wifi_BLE_SDK/GD32VW55x_RELEASE_V1.0.2/MSDK/plf/src\gd32vw55x_platform.c ****         rtc_current_time_get(&rtc_initpara);
 807:C:/Users/stapi/OneDrive/Desktop/GD32VW553/V1_MQTT_OK/GD32VW55X_Wifi_BLE_SDK/GD32VW55x_RELEASE_V1.0.2/MSDK/plf/src\gd32vw55x_platform.c ****     }
 808:C:/Users/stapi/OneDrive/Desktop/GD32VW553/V1_MQTT_OK/GD32VW55X_Wifi_BLE_SDK/GD32VW55x_RELEASE_V1.0.2/MSDK/plf/src\gd32vw55x_platform.c **** }
 809:C:/Users/stapi/OneDrive/Desktop/GD32VW553/V1_MQTT_OK/GD32VW55X_Wifi_BLE_SDK/GD32VW55x_RELEASE_V1.0.2/MSDK/plf/src\gd32vw55x_platform.c **** 
 810:C:/Users/stapi/OneDrive/Desktop/GD32VW553/V1_MQTT_OK/GD32VW55X_Wifi_BLE_SDK/GD32VW55x_RELEASE_V1.0.2/MSDK/plf/src\gd32vw55x_platform.c **** /*!
 811:C:/Users/stapi/OneDrive/Desktop/GD32VW553/V1_MQTT_OK/GD32VW55X_Wifi_BLE_SDK/GD32VW55x_RELEASE_V1.0.2/MSDK/plf/src\gd32vw55x_platform.c ****     \brief      configure rtc 32k clock
 812:C:/Users/stapi/OneDrive/Desktop/GD32VW553/V1_MQTT_OK/GD32VW55X_Wifi_BLE_SDK/GD32VW55x_RELEASE_V1.0.2/MSDK/plf/src\gd32vw55x_platform.c ****     \param[in]  none
 813:C:/Users/stapi/OneDrive/Desktop/GD32VW553/V1_MQTT_OK/GD32VW55X_Wifi_BLE_SDK/GD32VW55x_RELEASE_V1.0.2/MSDK/plf/src\gd32vw55x_platform.c ****     \param[out] none
 814:C:/Users/stapi/OneDrive/Desktop/GD32VW553/V1_MQTT_OK/GD32VW55X_Wifi_BLE_SDK/GD32VW55x_RELEASE_V1.0.2/MSDK/plf/src\gd32vw55x_platform.c ****     \retval     none
 815:C:/Users/stapi/OneDrive/Desktop/GD32VW553/V1_MQTT_OK/GD32VW55X_Wifi_BLE_SDK/GD32VW55x_RELEASE_V1.0.2/MSDK/plf/src\gd32vw55x_platform.c **** */
 816:C:/Users/stapi/OneDrive/Desktop/GD32VW553/V1_MQTT_OK/GD32VW55X_Wifi_BLE_SDK/GD32VW55x_RELEASE_V1.0.2/MSDK/plf/src\gd32vw55x_platform.c **** static void rtc_32k_config(void)
 817:C:/Users/stapi/OneDrive/Desktop/GD32VW553/V1_MQTT_OK/GD32VW55X_Wifi_BLE_SDK/GD32VW55x_RELEASE_V1.0.2/MSDK/plf/src\gd32vw55x_platform.c **** {
 818:C:/Users/stapi/OneDrive/Desktop/GD32VW553/V1_MQTT_OK/GD32VW55X_Wifi_BLE_SDK/GD32VW55x_RELEASE_V1.0.2/MSDK/plf/src\gd32vw55x_platform.c ****     /* enable access to RTC registers in Backup domain */
 819:C:/Users/stapi/OneDrive/Desktop/GD32VW553/V1_MQTT_OK/GD32VW55X_Wifi_BLE_SDK/GD32VW55x_RELEASE_V1.0.2/MSDK/plf/src\gd32vw55x_platform.c ****     rcu_periph_clock_enable(RCU_PMU);
 820:C:/Users/stapi/OneDrive/Desktop/GD32VW553/V1_MQTT_OK/GD32VW55X_Wifi_BLE_SDK/GD32VW55x_RELEASE_V1.0.2/MSDK/plf/src\gd32vw55x_platform.c ****     pmu_backup_write_enable();
 821:C:/Users/stapi/OneDrive/Desktop/GD32VW553/V1_MQTT_OK/GD32VW55X_Wifi_BLE_SDK/GD32VW55x_RELEASE_V1.0.2/MSDK/plf/src\gd32vw55x_platform.c **** 
 822:C:/Users/stapi/OneDrive/Desktop/GD32VW553/V1_MQTT_OK/GD32VW55X_Wifi_BLE_SDK/GD32VW55x_RELEASE_V1.0.2/MSDK/plf/src\gd32vw55x_platform.c ****     rtc_pre_config();
 823:C:/Users/stapi/OneDrive/Desktop/GD32VW553/V1_MQTT_OK/GD32VW55X_Wifi_BLE_SDK/GD32VW55x_RELEASE_V1.0.2/MSDK/plf/src\gd32vw55x_platform.c ****     // /* 32K clock selection */
 824:C:/Users/stapi/OneDrive/Desktop/GD32VW553/V1_MQTT_OK/GD32VW55X_Wifi_BLE_SDK/GD32VW55x_RELEASE_V1.0.2/MSDK/plf/src\gd32vw55x_platform.c ****     // REG32(RCU + 0x70) = (REG32(RCU + 0x70) & 0xfffffcff) | 0x00000200;
 825:C:/Users/stapi/OneDrive/Desktop/GD32VW553/V1_MQTT_OK/GD32VW55X_Wifi_BLE_SDK/GD32VW55x_RELEASE_V1.0.2/MSDK/plf/src\gd32vw55x_platform.c **** 
 826:C:/Users/stapi/OneDrive/Desktop/GD32VW553/V1_MQTT_OK/GD32VW55X_Wifi_BLE_SDK/GD32VW55x_RELEASE_V1.0.2/MSDK/plf/src\gd32vw55x_platform.c ****     rtc_deinit();
 827:C:/Users/stapi/OneDrive/Desktop/GD32VW553/V1_MQTT_OK/GD32VW55X_Wifi_BLE_SDK/GD32VW55x_RELEASE_V1.0.2/MSDK/plf/src\gd32vw55x_platform.c ****     rtc_setup();
 828:C:/Users/stapi/OneDrive/Desktop/GD32VW553/V1_MQTT_OK/GD32VW55X_Wifi_BLE_SDK/GD32VW55x_RELEASE_V1.0.2/MSDK/plf/src\gd32vw55x_platform.c **** 
 829:C:/Users/stapi/OneDrive/Desktop/GD32VW553/V1_MQTT_OK/GD32VW55X_Wifi_BLE_SDK/GD32VW55x_RELEASE_V1.0.2/MSDK/plf/src\gd32vw55x_platform.c ****     /* clear wakeup timer occurs flag */
 830:C:/Users/stapi/OneDrive/Desktop/GD32VW553/V1_MQTT_OK/GD32VW55X_Wifi_BLE_SDK/GD32VW55x_RELEASE_V1.0.2/MSDK/plf/src\gd32vw55x_platform.c ****     rtc_flag_clear(RTC_STAT_WTF);
 831:C:/Users/stapi/OneDrive/Desktop/GD32VW553/V1_MQTT_OK/GD32VW55X_Wifi_BLE_SDK/GD32VW55x_RELEASE_V1.0.2/MSDK/plf/src\gd32vw55x_platform.c ****     /* RTC wakeup configuration */
 832:C:/Users/stapi/OneDrive/Desktop/GD32VW553/V1_MQTT_OK/GD32VW55X_Wifi_BLE_SDK/GD32VW55x_RELEASE_V1.0.2/MSDK/plf/src\gd32vw55x_platform.c ****     rtc_interrupt_enable(RTC_INT_WAKEUP);
 833:C:/Users/stapi/OneDrive/Desktop/GD32VW553/V1_MQTT_OK/GD32VW55X_Wifi_BLE_SDK/GD32VW55x_RELEASE_V1.0.2/MSDK/plf/src\gd32vw55x_platform.c **** #if defined(RTC_CLOCK_SOURCE_IRC32K)
 834:C:/Users/stapi/OneDrive/Desktop/GD32VW553/V1_MQTT_OK/GD32VW55X_Wifi_BLE_SDK/GD32VW55x_RELEASE_V1.0.2/MSDK/plf/src\gd32vw55x_platform.c ****     /* set wakeup clock as RTCCK_DIV16 */
 835:C:/Users/stapi/OneDrive/Desktop/GD32VW553/V1_MQTT_OK/GD32VW55X_Wifi_BLE_SDK/GD32VW55x_RELEASE_V1.0.2/MSDK/plf/src\gd32vw55x_platform.c ****     rtc_wakeup_clock_set(WAKEUP_RTCCK_DIV16);
 836:C:/Users/stapi/OneDrive/Desktop/GD32VW553/V1_MQTT_OK/GD32VW55X_Wifi_BLE_SDK/GD32VW55x_RELEASE_V1.0.2/MSDK/plf/src\gd32vw55x_platform.c **** #else
 837:C:/Users/stapi/OneDrive/Desktop/GD32VW553/V1_MQTT_OK/GD32VW55X_Wifi_BLE_SDK/GD32VW55x_RELEASE_V1.0.2/MSDK/plf/src\gd32vw55x_platform.c ****     /* set wakeup clock as WAKEUP_RTCCK_DIV4 = RTC CLOCK / 4 = 5KHZ*/
 838:C:/Users/stapi/OneDrive/Desktop/GD32VW553/V1_MQTT_OK/GD32VW55X_Wifi_BLE_SDK/GD32VW55x_RELEASE_V1.0.2/MSDK/plf/src\gd32vw55x_platform.c ****     rtc_wakeup_clock_set(WAKEUP_RTCCK_DIV4);
 839:C:/Users/stapi/OneDrive/Desktop/GD32VW553/V1_MQTT_OK/GD32VW55X_Wifi_BLE_SDK/GD32VW55x_RELEASE_V1.0.2/MSDK/plf/src\gd32vw55x_platform.c **** #endif
 840:C:/Users/stapi/OneDrive/Desktop/GD32VW553/V1_MQTT_OK/GD32VW55X_Wifi_BLE_SDK/GD32VW55x_RELEASE_V1.0.2/MSDK/plf/src\gd32vw55x_platform.c **** }
 841:C:/Users/stapi/OneDrive/Desktop/GD32VW553/V1_MQTT_OK/GD32VW55X_Wifi_BLE_SDK/GD32VW55x_RELEASE_V1.0.2/MSDK/plf/src\gd32vw55x_platform.c **** 
 842:C:/Users/stapi/OneDrive/Desktop/GD32VW553/V1_MQTT_OK/GD32VW55X_Wifi_BLE_SDK/GD32VW55x_RELEASE_V1.0.2/MSDK/plf/src\gd32vw55x_platform.c **** 
 843:C:/Users/stapi/OneDrive/Desktop/GD32VW553/V1_MQTT_OK/GD32VW55X_Wifi_BLE_SDK/GD32VW55x_RELEASE_V1.0.2/MSDK/plf/src\gd32vw55x_platform.c **** static void platform_uart_init()
 844:C:/Users/stapi/OneDrive/Desktop/GD32VW553/V1_MQTT_OK/GD32VW55X_Wifi_BLE_SDK/GD32VW55x_RELEASE_V1.0.2/MSDK/plf/src\gd32vw55x_platform.c **** {
 845:C:/Users/stapi/OneDrive/Desktop/GD32VW553/V1_MQTT_OK/GD32VW55X_Wifi_BLE_SDK/GD32VW55x_RELEASE_V1.0.2/MSDK/plf/src\gd32vw55x_platform.c ****     uart_driver_init();
 846:C:/Users/stapi/OneDrive/Desktop/GD32VW553/V1_MQTT_OK/GD32VW55X_Wifi_BLE_SDK/GD32VW55x_RELEASE_V1.0.2/MSDK/plf/src\gd32vw55x_platform.c **** 
 847:C:/Users/stapi/OneDrive/Desktop/GD32VW553/V1_MQTT_OK/GD32VW55X_Wifi_BLE_SDK/GD32VW55x_RELEASE_V1.0.2/MSDK/plf/src\gd32vw55x_platform.c ****     log_uart_init();
 848:C:/Users/stapi/OneDrive/Desktop/GD32VW553/V1_MQTT_OK/GD32VW55X_Wifi_BLE_SDK/GD32VW55x_RELEASE_V1.0.2/MSDK/plf/src\gd32vw55x_platform.c **** 
 849:C:/Users/stapi/OneDrive/Desktop/GD32VW553/V1_MQTT_OK/GD32VW55X_Wifi_BLE_SDK/GD32VW55x_RELEASE_V1.0.2/MSDK/plf/src\gd32vw55x_platform.c **** #ifdef CFG_BLE_HCI_MODE
 850:C:/Users/stapi/OneDrive/Desktop/GD32VW553/V1_MQTT_OK/GD32VW55X_Wifi_BLE_SDK/GD32VW55x_RELEASE_V1.0.2/MSDK/plf/src\gd32vw55x_platform.c ****     ble_uart_init();
 851:C:/Users/stapi/OneDrive/Desktop/GD32VW553/V1_MQTT_OK/GD32VW55X_Wifi_BLE_SDK/GD32VW55x_RELEASE_V1.0.2/MSDK/plf/src\gd32vw55x_platform.c **** #endif
 852:C:/Users/stapi/OneDrive/Desktop/GD32VW553/V1_MQTT_OK/GD32VW55X_Wifi_BLE_SDK/GD32VW55x_RELEASE_V1.0.2/MSDK/plf/src\gd32vw55x_platform.c **** 
 853:C:/Users/stapi/OneDrive/Desktop/GD32VW553/V1_MQTT_OK/GD32VW55X_Wifi_BLE_SDK/GD32VW55x_RELEASE_V1.0.2/MSDK/plf/src\gd32vw55x_platform.c **** #ifdef TRACE_UART
 854:C:/Users/stapi/OneDrive/Desktop/GD32VW553/V1_MQTT_OK/GD32VW55X_Wifi_BLE_SDK/GD32VW55x_RELEASE_V1.0.2/MSDK/plf/src\gd32vw55x_platform.c ****     trace_uart_init();
 855:C:/Users/stapi/OneDrive/Desktop/GD32VW553/V1_MQTT_OK/GD32VW55X_Wifi_BLE_SDK/GD32VW55x_RELEASE_V1.0.2/MSDK/plf/src\gd32vw55x_platform.c **** #endif
 856:C:/Users/stapi/OneDrive/Desktop/GD32VW553/V1_MQTT_OK/GD32VW55X_Wifi_BLE_SDK/GD32VW55x_RELEASE_V1.0.2/MSDK/plf/src\gd32vw55x_platform.c **** }
 857:C:/Users/stapi/OneDrive/Desktop/GD32VW553/V1_MQTT_OK/GD32VW55X_Wifi_BLE_SDK/GD32VW55x_RELEASE_V1.0.2/MSDK/plf/src\gd32vw55x_platform.c **** 
 858:C:/Users/stapi/OneDrive/Desktop/GD32VW553/V1_MQTT_OK/GD32VW55X_Wifi_BLE_SDK/GD32VW55x_RELEASE_V1.0.2/MSDK/plf/src\gd32vw55x_platform.c **** static void eclic_config(void)
 859:C:/Users/stapi/OneDrive/Desktop/GD32VW553/V1_MQTT_OK/GD32VW55X_Wifi_BLE_SDK/GD32VW55x_RELEASE_V1.0.2/MSDK/plf/src\gd32vw55x_platform.c **** {
 860:C:/Users/stapi/OneDrive/Desktop/GD32VW553/V1_MQTT_OK/GD32VW55X_Wifi_BLE_SDK/GD32VW55x_RELEASE_V1.0.2/MSDK/plf/src\gd32vw55x_platform.c ****     // disable all interrupts
 861:C:/Users/stapi/OneDrive/Desktop/GD32VW553/V1_MQTT_OK/GD32VW55X_Wifi_BLE_SDK/GD32VW55x_RELEASE_V1.0.2/MSDK/plf/src\gd32vw55x_platform.c ****     eclic_global_interrupt_disable();
 862:C:/Users/stapi/OneDrive/Desktop/GD32VW553/V1_MQTT_OK/GD32VW55X_Wifi_BLE_SDK/GD32VW55x_RELEASE_V1.0.2/MSDK/plf/src\gd32vw55x_platform.c ****     eclic_priority_group_set(ECLIC_PRIGROUP_LEVEL4_PRIO0);
 863:C:/Users/stapi/OneDrive/Desktop/GD32VW553/V1_MQTT_OK/GD32VW55X_Wifi_BLE_SDK/GD32VW55x_RELEASE_V1.0.2/MSDK/plf/src\gd32vw55x_platform.c **** 
 864:C:/Users/stapi/OneDrive/Desktop/GD32VW553/V1_MQTT_OK/GD32VW55X_Wifi_BLE_SDK/GD32VW55x_RELEASE_V1.0.2/MSDK/plf/src\gd32vw55x_platform.c ****     /* CLIC_INT_SFT,CLIC_INT_TMR set trigger mode */
 865:C:/Users/stapi/OneDrive/Desktop/GD32VW553/V1_MQTT_OK/GD32VW55X_Wifi_BLE_SDK/GD32VW55x_RELEASE_V1.0.2/MSDK/plf/src\gd32vw55x_platform.c ****     ECLIC_SetTrigIRQ(CLIC_INT_SFT, ECLIC_POSTIVE_EDGE_TRIGGER);
 866:C:/Users/stapi/OneDrive/Desktop/GD32VW553/V1_MQTT_OK/GD32VW55X_Wifi_BLE_SDK/GD32VW55x_RELEASE_V1.0.2/MSDK/plf/src\gd32vw55x_platform.c ****     ECLIC_SetTrigIRQ(CLIC_INT_TMR, ECLIC_POSTIVE_EDGE_TRIGGER);
 867:C:/Users/stapi/OneDrive/Desktop/GD32VW553/V1_MQTT_OK/GD32VW55X_Wifi_BLE_SDK/GD32VW55x_RELEASE_V1.0.2/MSDK/plf/src\gd32vw55x_platform.c **** 
 868:C:/Users/stapi/OneDrive/Desktop/GD32VW553/V1_MQTT_OK/GD32VW55X_Wifi_BLE_SDK/GD32VW55x_RELEASE_V1.0.2/MSDK/plf/src\gd32vw55x_platform.c ****     eclic_irq_enable(UART1_IRQn, 8, 0);
 869:C:/Users/stapi/OneDrive/Desktop/GD32VW553/V1_MQTT_OK/GD32VW55X_Wifi_BLE_SDK/GD32VW55x_RELEASE_V1.0.2/MSDK/plf/src\gd32vw55x_platform.c **** 
 870:C:/Users/stapi/OneDrive/Desktop/GD32VW553/V1_MQTT_OK/GD32VW55X_Wifi_BLE_SDK/GD32VW55x_RELEASE_V1.0.2/MSDK/plf/src\gd32vw55x_platform.c **** #ifndef CFG_MATTER
 871:C:/Users/stapi/OneDrive/Desktop/GD32VW553/V1_MQTT_OK/GD32VW55X_Wifi_BLE_SDK/GD32VW55x_RELEASE_V1.0.2/MSDK/plf/src\gd32vw55x_platform.c ****     /* set trigger mode and interrupt level, same as arm priority. a larger interrupt priorities va
 872:C:/Users/stapi/OneDrive/Desktop/GD32VW553/V1_MQTT_OK/GD32VW55X_Wifi_BLE_SDK/GD32VW55x_RELEASE_V1.0.2/MSDK/plf/src\gd32vw55x_platform.c ****     eclic_irq_enable(UART2_IRQn, 8, 0);
 873:C:/Users/stapi/OneDrive/Desktop/GD32VW553/V1_MQTT_OK/GD32VW55X_Wifi_BLE_SDK/GD32VW55x_RELEASE_V1.0.2/MSDK/plf/src\gd32vw55x_platform.c **** #endif
 874:C:/Users/stapi/OneDrive/Desktop/GD32VW553/V1_MQTT_OK/GD32VW55X_Wifi_BLE_SDK/GD32VW55x_RELEASE_V1.0.2/MSDK/plf/src\gd32vw55x_platform.c **** 
 875:C:/Users/stapi/OneDrive/Desktop/GD32VW553/V1_MQTT_OK/GD32VW55X_Wifi_BLE_SDK/GD32VW55x_RELEASE_V1.0.2/MSDK/plf/src\gd32vw55x_platform.c ****     /* exti interrupt wake up the cpu from deep sleep state, TODO: uart exti interrupts processing 
 876:C:/Users/stapi/OneDrive/Desktop/GD32VW553/V1_MQTT_OK/GD32VW55X_Wifi_BLE_SDK/GD32VW55x_RELEASE_V1.0.2/MSDK/plf/src\gd32vw55x_platform.c ****     eclic_irq_enable(RTC_WKUP_IRQn, 12, 0);
 877:C:/Users/stapi/OneDrive/Desktop/GD32VW553/V1_MQTT_OK/GD32VW55X_Wifi_BLE_SDK/GD32VW55x_RELEASE_V1.0.2/MSDK/plf/src\gd32vw55x_platform.c ****     eclic_irq_enable(EXTI5_9_IRQn, 9, 0);
 878:C:/Users/stapi/OneDrive/Desktop/GD32VW553/V1_MQTT_OK/GD32VW55X_Wifi_BLE_SDK/GD32VW55x_RELEASE_V1.0.2/MSDK/plf/src\gd32vw55x_platform.c **** 
 879:C:/Users/stapi/OneDrive/Desktop/GD32VW553/V1_MQTT_OK/GD32VW55X_Wifi_BLE_SDK/GD32VW55x_RELEASE_V1.0.2/MSDK/plf/src\gd32vw55x_platform.c **** #ifdef TRACE_UART_DMA
 880:C:/Users/stapi/OneDrive/Desktop/GD32VW553/V1_MQTT_OK/GD32VW55X_Wifi_BLE_SDK/GD32VW55x_RELEASE_V1.0.2/MSDK/plf/src\gd32vw55x_platform.c ****     eclic_irq_enable(TRACE_DMA_IRQ_NUM, 8, 0);
 881:C:/Users/stapi/OneDrive/Desktop/GD32VW553/V1_MQTT_OK/GD32VW55X_Wifi_BLE_SDK/GD32VW55x_RELEASE_V1.0.2/MSDK/plf/src\gd32vw55x_platform.c **** #endif
 882:C:/Users/stapi/OneDrive/Desktop/GD32VW553/V1_MQTT_OK/GD32VW55X_Wifi_BLE_SDK/GD32VW55x_RELEASE_V1.0.2/MSDK/plf/src\gd32vw55x_platform.c **** 
 883:C:/Users/stapi/OneDrive/Desktop/GD32VW553/V1_MQTT_OK/GD32VW55X_Wifi_BLE_SDK/GD32VW55x_RELEASE_V1.0.2/MSDK/plf/src\gd32vw55x_platform.c ****     ble_irq_enable();
 884:C:/Users/stapi/OneDrive/Desktop/GD32VW553/V1_MQTT_OK/GD32VW55X_Wifi_BLE_SDK/GD32VW55x_RELEASE_V1.0.2/MSDK/plf/src\gd32vw55x_platform.c **** }
 885:C:/Users/stapi/OneDrive/Desktop/GD32VW553/V1_MQTT_OK/GD32VW55X_Wifi_BLE_SDK/GD32VW55x_RELEASE_V1.0.2/MSDK/plf/src\gd32vw55x_platform.c **** 
 886:C:/Users/stapi/OneDrive/Desktop/GD32VW553/V1_MQTT_OK/GD32VW55X_Wifi_BLE_SDK/GD32VW55x_RELEASE_V1.0.2/MSDK/plf/src\gd32vw55x_platform.c **** void platform_init(void)
 887:C:/Users/stapi/OneDrive/Desktop/GD32VW553/V1_MQTT_OK/GD32VW55X_Wifi_BLE_SDK/GD32VW55x_RELEASE_V1.0.2/MSDK/plf/src\gd32vw55x_platform.c **** {
 1556              		.loc 1 887 1 is_stmt 1
 1557              		.cfi_startproc
 1558 0000 17030000 		call	t0,__riscv_save_3
 1558      E7020300 
 1559              		.cfi_offset 18, -16
 1560              		.cfi_offset 9, -12
 1561              		.cfi_offset 8, -8
 1562              		.cfi_offset 1, -4
 1563              		.cfi_def_cfa_offset 16
 888:C:/Users/stapi/OneDrive/Desktop/GD32VW553/V1_MQTT_OK/GD32VW55X_Wifi_BLE_SDK/GD32VW55x_RELEASE_V1.0.2/MSDK/plf/src\gd32vw55x_platform.c ****     eclic_config();
 1564              		.loc 1 888 5
 1565              	.LBB98:
 1566              	.LBB99:
 861:C:/Users/stapi/OneDrive/Desktop/GD32VW553/V1_MQTT_OK/GD32VW55X_Wifi_BLE_SDK/GD32VW55x_RELEASE_V1.0.2/MSDK/plf/src\gd32vw55x_platform.c ****     eclic_priority_group_set(ECLIC_PRIGROUP_LEVEL4_PRIO0);
 1567              		.loc 1 861 5
 1568              	.LBE99:
 1569              	.LBE98:
 887:C:/Users/stapi/OneDrive/Desktop/GD32VW553/V1_MQTT_OK/GD32VW55X_Wifi_BLE_SDK/GD32VW55x_RELEASE_V1.0.2/MSDK/plf/src\gd32vw55x_platform.c ****     eclic_config();
 1570              		.loc 1 887 1 is_stmt 0
 1571 0008 0111     		addi	sp,sp,-32
 1572              		.cfi_def_cfa_offset 48
 1573              	.LBB178:
 1574              	.LBB176:
 861:C:/Users/stapi/OneDrive/Desktop/GD32VW553/V1_MQTT_OK/GD32VW55X_Wifi_BLE_SDK/GD32VW55x_RELEASE_V1.0.2/MSDK/plf/src\gd32vw55x_platform.c ****     eclic_priority_group_set(ECLIC_PRIGROUP_LEVEL4_PRIO0);
 1575              		.loc 1 861 5
 1576 000a 97000000 		call	eclic_global_interrupt_disable
 1576      E7800000 
 1577              	.LVL134:
 862:C:/Users/stapi/OneDrive/Desktop/GD32VW553/V1_MQTT_OK/GD32VW55X_Wifi_BLE_SDK/GD32VW55x_RELEASE_V1.0.2/MSDK/plf/src\gd32vw55x_platform.c **** 
 1578              		.loc 1 862 5 is_stmt 1
 1579 0012 1145     		li	a0,4
 1580              	.LBB100:
 1581              	.LBB101:
 1582              		.file 2 "..\\..\\..\\..\\plf\\riscv\\NMSIS\\Core\\Include/core_feature_eclic.h"
   1:..\..\..\..\plf\riscv\NMSIS\Core\Include/core_feature_eclic.h **** /*
   2:..\..\..\..\plf\riscv\NMSIS\Core\Include/core_feature_eclic.h ****  * Copyright (c) 2019 Nuclei Limited. All rights reserved.
   3:..\..\..\..\plf\riscv\NMSIS\Core\Include/core_feature_eclic.h ****  *
   4:..\..\..\..\plf\riscv\NMSIS\Core\Include/core_feature_eclic.h ****  * SPDX-License-Identifier: Apache-2.0
   5:..\..\..\..\plf\riscv\NMSIS\Core\Include/core_feature_eclic.h ****  *
   6:..\..\..\..\plf\riscv\NMSIS\Core\Include/core_feature_eclic.h ****  * Licensed under the Apache License, Version 2.0 (the License); you may
   7:..\..\..\..\plf\riscv\NMSIS\Core\Include/core_feature_eclic.h ****  * not use this file except in compliance with the License.
   8:..\..\..\..\plf\riscv\NMSIS\Core\Include/core_feature_eclic.h ****  * You may obtain a copy of the License at
   9:..\..\..\..\plf\riscv\NMSIS\Core\Include/core_feature_eclic.h ****  *
  10:..\..\..\..\plf\riscv\NMSIS\Core\Include/core_feature_eclic.h ****  * www.apache.org/licenses/LICENSE-2.0
  11:..\..\..\..\plf\riscv\NMSIS\Core\Include/core_feature_eclic.h ****  *
  12:..\..\..\..\plf\riscv\NMSIS\Core\Include/core_feature_eclic.h ****  * Unless required by applicable law or agreed to in writing, software
  13:..\..\..\..\plf\riscv\NMSIS\Core\Include/core_feature_eclic.h ****  * distributed under the License is distributed on an AS IS BASIS, WITHOUT
  14:..\..\..\..\plf\riscv\NMSIS\Core\Include/core_feature_eclic.h ****  * WARRANTIES OR CONDITIONS OF ANY KIND, either express or implied.
  15:..\..\..\..\plf\riscv\NMSIS\Core\Include/core_feature_eclic.h ****  * See the License for the specific language governing permissions and
  16:..\..\..\..\plf\riscv\NMSIS\Core\Include/core_feature_eclic.h ****  * limitations under the License.
  17:..\..\..\..\plf\riscv\NMSIS\Core\Include/core_feature_eclic.h ****  */
  18:..\..\..\..\plf\riscv\NMSIS\Core\Include/core_feature_eclic.h **** #ifndef __CORE_FEATURE_ECLIC__
  19:..\..\..\..\plf\riscv\NMSIS\Core\Include/core_feature_eclic.h **** #define __CORE_FEATURE_ECLIC__
  20:..\..\..\..\plf\riscv\NMSIS\Core\Include/core_feature_eclic.h **** /*!
  21:..\..\..\..\plf\riscv\NMSIS\Core\Include/core_feature_eclic.h ****  * @file     core_feature_eclic.h
  22:..\..\..\..\plf\riscv\NMSIS\Core\Include/core_feature_eclic.h ****  * @brief    ECLIC feature API header file for Nuclei N/NX Core
  23:..\..\..\..\plf\riscv\NMSIS\Core\Include/core_feature_eclic.h ****  */
  24:..\..\..\..\plf\riscv\NMSIS\Core\Include/core_feature_eclic.h **** /*
  25:..\..\..\..\plf\riscv\NMSIS\Core\Include/core_feature_eclic.h ****  * ECLIC Feature Configuration Macro:
  26:..\..\..\..\plf\riscv\NMSIS\Core\Include/core_feature_eclic.h ****  * 1. __ECLIC_PRESENT:  Define whether Enhanced Core Local Interrupt Controller (ECLIC) Unit is pre
  27:..\..\..\..\plf\riscv\NMSIS\Core\Include/core_feature_eclic.h ****  *   * 0: Not present
  28:..\..\..\..\plf\riscv\NMSIS\Core\Include/core_feature_eclic.h ****  *   * 1: Present
  29:..\..\..\..\plf\riscv\NMSIS\Core\Include/core_feature_eclic.h ****  * 2. __ECLIC_BASEADDR:  Base address of the ECLIC unit.
  30:..\..\..\..\plf\riscv\NMSIS\Core\Include/core_feature_eclic.h ****  * 3. ECLIC_GetInfoCtlbits():  Define the number of hardware bits are actually implemented in the c
  31:..\..\..\..\plf\riscv\NMSIS\Core\Include/core_feature_eclic.h ****  *   Valid number is 1 - 8.
  32:..\..\..\..\plf\riscv\NMSIS\Core\Include/core_feature_eclic.h ****  * 4. __ECLIC_INTNUM  : Define the external interrupt number of ECLIC Unit
  33:..\..\..\..\plf\riscv\NMSIS\Core\Include/core_feature_eclic.h ****  *
  34:..\..\..\..\plf\riscv\NMSIS\Core\Include/core_feature_eclic.h ****  */
  35:..\..\..\..\plf\riscv\NMSIS\Core\Include/core_feature_eclic.h **** #ifdef __cplusplus
  36:..\..\..\..\plf\riscv\NMSIS\Core\Include/core_feature_eclic.h ****  extern "C" {
  37:..\..\..\..\plf\riscv\NMSIS\Core\Include/core_feature_eclic.h **** #endif
  38:..\..\..\..\plf\riscv\NMSIS\Core\Include/core_feature_eclic.h **** 
  39:..\..\..\..\plf\riscv\NMSIS\Core\Include/core_feature_eclic.h **** #if defined(__ECLIC_PRESENT) && (__ECLIC_PRESENT == 1)
  40:..\..\..\..\plf\riscv\NMSIS\Core\Include/core_feature_eclic.h **** /**
  41:..\..\..\..\plf\riscv\NMSIS\Core\Include/core_feature_eclic.h ****  * \defgroup NMSIS_Core_ECLIC_Registers     Register Define and Type Definitions Of ECLIC
  42:..\..\..\..\plf\riscv\NMSIS\Core\Include/core_feature_eclic.h ****  * \ingroup NMSIS_Core_Registers
  43:..\..\..\..\plf\riscv\NMSIS\Core\Include/core_feature_eclic.h ****  * \brief   Type definitions and defines for eclic registers.
  44:..\..\..\..\plf\riscv\NMSIS\Core\Include/core_feature_eclic.h ****  *
  45:..\..\..\..\plf\riscv\NMSIS\Core\Include/core_feature_eclic.h ****  * @{
  46:..\..\..\..\plf\riscv\NMSIS\Core\Include/core_feature_eclic.h ****  */
  47:..\..\..\..\plf\riscv\NMSIS\Core\Include/core_feature_eclic.h **** 
  48:..\..\..\..\plf\riscv\NMSIS\Core\Include/core_feature_eclic.h **** /**
  49:..\..\..\..\plf\riscv\NMSIS\Core\Include/core_feature_eclic.h ****  * \brief  Union type to access CLICFG configure register.
  50:..\..\..\..\plf\riscv\NMSIS\Core\Include/core_feature_eclic.h ****  */
  51:..\..\..\..\plf\riscv\NMSIS\Core\Include/core_feature_eclic.h **** typedef union
  52:..\..\..\..\plf\riscv\NMSIS\Core\Include/core_feature_eclic.h **** {
  53:..\..\..\..\plf\riscv\NMSIS\Core\Include/core_feature_eclic.h ****     struct {
  54:..\..\..\..\plf\riscv\NMSIS\Core\Include/core_feature_eclic.h ****         uint8_t _reserved0:1;                   /*!< bit:     0   Overflow condition code flag */
  55:..\..\..\..\plf\riscv\NMSIS\Core\Include/core_feature_eclic.h ****         uint8_t nlbits:4;                       /*!< bit:     29  Carry condition code flag */
  56:..\..\..\..\plf\riscv\NMSIS\Core\Include/core_feature_eclic.h ****         uint8_t _reserved1:2;                   /*!< bit:     30  Zero condition code flag */
  57:..\..\..\..\plf\riscv\NMSIS\Core\Include/core_feature_eclic.h ****         uint8_t _reserved2:1;                   /*!< bit:     31  Negative condition code flag */
  58:..\..\..\..\plf\riscv\NMSIS\Core\Include/core_feature_eclic.h ****     } b;                                        /*!< Structure used for bit  access */
  59:..\..\..\..\plf\riscv\NMSIS\Core\Include/core_feature_eclic.h ****     uint8_t w;                                  /*!< Type      used for byte access */
  60:..\..\..\..\plf\riscv\NMSIS\Core\Include/core_feature_eclic.h **** } CLICCFG_Type;
  61:..\..\..\..\plf\riscv\NMSIS\Core\Include/core_feature_eclic.h **** 
  62:..\..\..\..\plf\riscv\NMSIS\Core\Include/core_feature_eclic.h **** /**
  63:..\..\..\..\plf\riscv\NMSIS\Core\Include/core_feature_eclic.h ****  * \brief  Union type to access CLICINFO information register.
  64:..\..\..\..\plf\riscv\NMSIS\Core\Include/core_feature_eclic.h ****  */
  65:..\..\..\..\plf\riscv\NMSIS\Core\Include/core_feature_eclic.h **** typedef union {
  66:..\..\..\..\plf\riscv\NMSIS\Core\Include/core_feature_eclic.h ****     struct {
  67:..\..\..\..\plf\riscv\NMSIS\Core\Include/core_feature_eclic.h ****         uint32_t numint:13;                     /*!< bit:  0..12   number of maximum interrupt inpu
  68:..\..\..\..\plf\riscv\NMSIS\Core\Include/core_feature_eclic.h ****         uint32_t version:8;                     /*!< bit:  13..20  20:17 for architecture version,1
  69:..\..\..\..\plf\riscv\NMSIS\Core\Include/core_feature_eclic.h ****         uint32_t intctlbits:4;                  /*!< bit:  21..24  specifies how many hardware bits
  70:..\..\..\..\plf\riscv\NMSIS\Core\Include/core_feature_eclic.h ****         uint32_t _reserved0:7;                  /*!< bit:  25..31  Reserved */
  71:..\..\..\..\plf\riscv\NMSIS\Core\Include/core_feature_eclic.h ****     } b;                                        /*!< Structure used for bit  access */
  72:..\..\..\..\plf\riscv\NMSIS\Core\Include/core_feature_eclic.h ****     uint32_t w;                                 /*!< Type      used for word access */
  73:..\..\..\..\plf\riscv\NMSIS\Core\Include/core_feature_eclic.h **** } CLICINFO_Type;
  74:..\..\..\..\plf\riscv\NMSIS\Core\Include/core_feature_eclic.h **** 
  75:..\..\..\..\plf\riscv\NMSIS\Core\Include/core_feature_eclic.h **** /**
  76:..\..\..\..\plf\riscv\NMSIS\Core\Include/core_feature_eclic.h ****  * \brief Access to the structure of a vector interrupt controller.
  77:..\..\..\..\plf\riscv\NMSIS\Core\Include/core_feature_eclic.h ****  */
  78:..\..\..\..\plf\riscv\NMSIS\Core\Include/core_feature_eclic.h **** typedef struct {
  79:..\..\..\..\plf\riscv\NMSIS\Core\Include/core_feature_eclic.h ****     __IOM uint8_t  INTIP;                       /*!< Offset: 0x000 (R/W)  Interrupt set pending reg
  80:..\..\..\..\plf\riscv\NMSIS\Core\Include/core_feature_eclic.h ****     __IOM uint8_t  INTIE;                       /*!< Offset: 0x001 (R/W)  Interrupt set enable regi
  81:..\..\..\..\plf\riscv\NMSIS\Core\Include/core_feature_eclic.h ****     __IOM uint8_t  INTATTR;                     /*!< Offset: 0x002 (R/W)  Interrupt set attributes 
  82:..\..\..\..\plf\riscv\NMSIS\Core\Include/core_feature_eclic.h ****     __IOM uint8_t  INTCTRL;                     /*!< Offset: 0x003 (R/W)  Interrupt configure regis
  83:..\..\..\..\plf\riscv\NMSIS\Core\Include/core_feature_eclic.h **** } CLIC_CTRL_Type;
  84:..\..\..\..\plf\riscv\NMSIS\Core\Include/core_feature_eclic.h **** 
  85:..\..\..\..\plf\riscv\NMSIS\Core\Include/core_feature_eclic.h **** typedef struct {
  86:..\..\..\..\plf\riscv\NMSIS\Core\Include/core_feature_eclic.h ****     __IOM uint8_t   CFG;                        /*!< Offset: 0x000 (R/W)  CLIC configuration regist
  87:..\..\..\..\plf\riscv\NMSIS\Core\Include/core_feature_eclic.h ****     uint8_t RESERVED0[3];
  88:..\..\..\..\plf\riscv\NMSIS\Core\Include/core_feature_eclic.h ****     __IM uint32_t  INFO;                        /*!< Offset: 0x004 (R/ )  CLIC information register
  89:..\..\..\..\plf\riscv\NMSIS\Core\Include/core_feature_eclic.h ****     uint8_t RESERVED1[3];
  90:..\..\..\..\plf\riscv\NMSIS\Core\Include/core_feature_eclic.h ****     __IOM uint8_t  MTH;                         /*!< Offset: 0x00B (R/W)  CLIC machine mode thresho
  91:..\..\..\..\plf\riscv\NMSIS\Core\Include/core_feature_eclic.h ****     uint32_t RESERVED2[0x3FD];
  92:..\..\..\..\plf\riscv\NMSIS\Core\Include/core_feature_eclic.h ****     CLIC_CTRL_Type CTRL[4096];                  /*!< Offset: 0x1000 (R/W) CLIC register structure f
  93:..\..\..\..\plf\riscv\NMSIS\Core\Include/core_feature_eclic.h **** } CLIC_Type;
  94:..\..\..\..\plf\riscv\NMSIS\Core\Include/core_feature_eclic.h **** 
  95:..\..\..\..\plf\riscv\NMSIS\Core\Include/core_feature_eclic.h **** #define CLIC_CLICCFG_NLBIT_Pos                 1U                                       /*!< CLIC C
  96:..\..\..\..\plf\riscv\NMSIS\Core\Include/core_feature_eclic.h **** #define CLIC_CLICCFG_NLBIT_Msk                 (0xFUL << CLIC_CLICCFG_NLBIT_Pos)        /*!< CLIC C
  97:..\..\..\..\plf\riscv\NMSIS\Core\Include/core_feature_eclic.h **** 
  98:..\..\..\..\plf\riscv\NMSIS\Core\Include/core_feature_eclic.h **** #define CLIC_CLICINFO_CTLBIT_Pos                21U                                     /*!< CLIC I
  99:..\..\..\..\plf\riscv\NMSIS\Core\Include/core_feature_eclic.h **** #define CLIC_CLICINFO_CTLBIT_Msk                (0xFUL << CLIC_CLICINFO_CTLBIT_Pos)     /*!< CLIC I
 100:..\..\..\..\plf\riscv\NMSIS\Core\Include/core_feature_eclic.h **** 
 101:..\..\..\..\plf\riscv\NMSIS\Core\Include/core_feature_eclic.h **** #define CLIC_CLICINFO_VER_Pos                  13U                                      /*!< CLIC C
 102:..\..\..\..\plf\riscv\NMSIS\Core\Include/core_feature_eclic.h **** #define CLIC_CLICINFO_VER_Msk                  (0xFFUL << CLIC_CLICCFG_NLBIT_Pos)       /*!< CLIC C
 103:..\..\..\..\plf\riscv\NMSIS\Core\Include/core_feature_eclic.h **** 
 104:..\..\..\..\plf\riscv\NMSIS\Core\Include/core_feature_eclic.h **** #define CLIC_CLICINFO_NUM_Pos                  0U                                       /*!< CLIC C
 105:..\..\..\..\plf\riscv\NMSIS\Core\Include/core_feature_eclic.h **** #define CLIC_CLICINFO_NUM_Msk                  (0xFFFUL << CLIC_CLICINFO_NUM_Pos)       /*!< CLIC C
 106:..\..\..\..\plf\riscv\NMSIS\Core\Include/core_feature_eclic.h **** 
 107:..\..\..\..\plf\riscv\NMSIS\Core\Include/core_feature_eclic.h **** #define CLIC_INTIP_IP_Pos                      0U                                       /*!< CLIC I
 108:..\..\..\..\plf\riscv\NMSIS\Core\Include/core_feature_eclic.h **** #define CLIC_INTIP_IP_Msk                      (0x1UL << CLIC_INTIP_IP_Pos)             /*!< CLIC I
 109:..\..\..\..\plf\riscv\NMSIS\Core\Include/core_feature_eclic.h **** 
 110:..\..\..\..\plf\riscv\NMSIS\Core\Include/core_feature_eclic.h **** #define CLIC_INTIE_IE_Pos                      0U                                       /*!< CLIC I
 111:..\..\..\..\plf\riscv\NMSIS\Core\Include/core_feature_eclic.h **** #define CLIC_INTIE_IE_Msk                      (0x1UL << CLIC_INTIE_IE_Pos)             /*!< CLIC I
 112:..\..\..\..\plf\riscv\NMSIS\Core\Include/core_feature_eclic.h **** 
 113:..\..\..\..\plf\riscv\NMSIS\Core\Include/core_feature_eclic.h **** #define CLIC_INTATTR_TRIG_Pos                  1U                                       /*!< CLIC I
 114:..\..\..\..\plf\riscv\NMSIS\Core\Include/core_feature_eclic.h **** #define CLIC_INTATTR_TRIG_Msk                  (0x3UL << CLIC_INTATTR_TRIG_Pos)         /*!< CLIC I
 115:..\..\..\..\plf\riscv\NMSIS\Core\Include/core_feature_eclic.h **** 
 116:..\..\..\..\plf\riscv\NMSIS\Core\Include/core_feature_eclic.h **** #define CLIC_INTATTR_SHV_Pos                   0U                                       /*!< CLIC I
 117:..\..\..\..\plf\riscv\NMSIS\Core\Include/core_feature_eclic.h **** #define CLIC_INTATTR_SHV_Msk                   (0x1UL << CLIC_INTATTR_SHV_Pos)          /*!< CLIC I
 118:..\..\..\..\plf\riscv\NMSIS\Core\Include/core_feature_eclic.h **** 
 119:..\..\..\..\plf\riscv\NMSIS\Core\Include/core_feature_eclic.h **** #define ECLIC_MAX_NLBITS                       8U                                       /*!< Max nl
 120:..\..\..\..\plf\riscv\NMSIS\Core\Include/core_feature_eclic.h **** #define ECLIC_MODE_MTVEC_Msk                   3U                                       /*!< ECLIC 
 121:..\..\..\..\plf\riscv\NMSIS\Core\Include/core_feature_eclic.h **** 
 122:..\..\..\..\plf\riscv\NMSIS\Core\Include/core_feature_eclic.h **** #define ECLIC_NON_VECTOR_INTERRUPT             0x0                                      /*!< Non-Ve
 123:..\..\..\..\plf\riscv\NMSIS\Core\Include/core_feature_eclic.h **** #define ECLIC_VECTOR_INTERRUPT                 0x1                                      /*!< Vector
 124:..\..\..\..\plf\riscv\NMSIS\Core\Include/core_feature_eclic.h **** 
 125:..\..\..\..\plf\riscv\NMSIS\Core\Include/core_feature_eclic.h **** /**\brief ECLIC Trigger Enum for different Trigger Type */
 126:..\..\..\..\plf\riscv\NMSIS\Core\Include/core_feature_eclic.h **** typedef enum ECLIC_TRIGGER {
 127:..\..\..\..\plf\riscv\NMSIS\Core\Include/core_feature_eclic.h ****     ECLIC_LEVEL_TRIGGER = 0x0,          /*!< Level Triggerred, trig[0] = 0 */
 128:..\..\..\..\plf\riscv\NMSIS\Core\Include/core_feature_eclic.h ****     ECLIC_POSTIVE_EDGE_TRIGGER = 0x1,   /*!< Postive/Rising Edge Triggered, trig[0] = 1, trig[1] = 
 129:..\..\..\..\plf\riscv\NMSIS\Core\Include/core_feature_eclic.h ****     ECLIC_NEGTIVE_EDGE_TRIGGER = 0x3,   /*!< Negtive/Falling Edge Triggered, trig[0] = 1, trig[1] =
 130:..\..\..\..\plf\riscv\NMSIS\Core\Include/core_feature_eclic.h ****     ECLIC_MAX_TRIGGER = 0x3             /*!< MAX Supported Trigger Mode */
 131:..\..\..\..\plf\riscv\NMSIS\Core\Include/core_feature_eclic.h **** } ECLIC_TRIGGER_Type;
 132:..\..\..\..\plf\riscv\NMSIS\Core\Include/core_feature_eclic.h **** 
 133:..\..\..\..\plf\riscv\NMSIS\Core\Include/core_feature_eclic.h **** #ifndef __ECLIC_BASEADDR
 134:..\..\..\..\plf\riscv\NMSIS\Core\Include/core_feature_eclic.h **** /* Base address of ECLIC(__ECLIC_BASEADDR) should be defined in <Device.h> */
 135:..\..\..\..\plf\riscv\NMSIS\Core\Include/core_feature_eclic.h **** #error "__ECLIC_BASEADDR is not defined, please check!"
 136:..\..\..\..\plf\riscv\NMSIS\Core\Include/core_feature_eclic.h **** #endif
 137:..\..\..\..\plf\riscv\NMSIS\Core\Include/core_feature_eclic.h **** 
 138:..\..\..\..\plf\riscv\NMSIS\Core\Include/core_feature_eclic.h **** #ifndef __ECLIC_INTCTLBITS
 139:..\..\..\..\plf\riscv\NMSIS\Core\Include/core_feature_eclic.h **** /* Define __ECLIC_INTCTLBITS to get via ECLIC->INFO if not defined */
 140:..\..\..\..\plf\riscv\NMSIS\Core\Include/core_feature_eclic.h **** #define __ECLIC_INTCTLBITS                  (__ECLIC_GetInfoCtlbits())
 141:..\..\..\..\plf\riscv\NMSIS\Core\Include/core_feature_eclic.h **** #endif
 142:..\..\..\..\plf\riscv\NMSIS\Core\Include/core_feature_eclic.h **** 
 143:..\..\..\..\plf\riscv\NMSIS\Core\Include/core_feature_eclic.h **** /* ECLIC Memory mapping of Device */
 144:..\..\..\..\plf\riscv\NMSIS\Core\Include/core_feature_eclic.h **** #define ECLIC_BASE                          __ECLIC_BASEADDR                            /*!< ECLIC 
 145:..\..\..\..\plf\riscv\NMSIS\Core\Include/core_feature_eclic.h **** #define ECLIC                               ((CLIC_Type *) ECLIC_BASE)                  /*!< CLIC c
 146:..\..\..\..\plf\riscv\NMSIS\Core\Include/core_feature_eclic.h **** 
 147:..\..\..\..\plf\riscv\NMSIS\Core\Include/core_feature_eclic.h **** /** @} */ /* end of group NMSIS_Core_ECLIC_Registers */
 148:..\..\..\..\plf\riscv\NMSIS\Core\Include/core_feature_eclic.h **** 
 149:..\..\..\..\plf\riscv\NMSIS\Core\Include/core_feature_eclic.h **** /* ##########################   ECLIC functions  #################################### */
 150:..\..\..\..\plf\riscv\NMSIS\Core\Include/core_feature_eclic.h **** /**
 151:..\..\..\..\plf\riscv\NMSIS\Core\Include/core_feature_eclic.h ****  * \defgroup   NMSIS_Core_IntExc        Interrupts and Exceptions
 152:..\..\..\..\plf\riscv\NMSIS\Core\Include/core_feature_eclic.h ****  * \brief Functions that manage interrupts and exceptions via the ECLIC.
 153:..\..\..\..\plf\riscv\NMSIS\Core\Include/core_feature_eclic.h ****  *
 154:..\..\..\..\plf\riscv\NMSIS\Core\Include/core_feature_eclic.h ****  * @{
 155:..\..\..\..\plf\riscv\NMSIS\Core\Include/core_feature_eclic.h ****  */
 156:..\..\..\..\plf\riscv\NMSIS\Core\Include/core_feature_eclic.h **** 
 157:..\..\..\..\plf\riscv\NMSIS\Core\Include/core_feature_eclic.h **** /**
 158:..\..\..\..\plf\riscv\NMSIS\Core\Include/core_feature_eclic.h ****  * \brief  Definition of IRQn numbers
 159:..\..\..\..\plf\riscv\NMSIS\Core\Include/core_feature_eclic.h ****  * \details
 160:..\..\..\..\plf\riscv\NMSIS\Core\Include/core_feature_eclic.h ****  * The core interrupt enumeration names for IRQn values are defined in the file <b><Device>.h</b>.
 161:..\..\..\..\plf\riscv\NMSIS\Core\Include/core_feature_eclic.h ****  * - Interrupt ID(IRQn) from 0 to 18 are reserved for core internal interrupts.
 162:..\..\..\..\plf\riscv\NMSIS\Core\Include/core_feature_eclic.h ****  * - Interrupt ID(IRQn) start from 19 represent device-specific external interrupts.
 163:..\..\..\..\plf\riscv\NMSIS\Core\Include/core_feature_eclic.h ****  * - The first device-specific interrupt has the IRQn value 19.
 164:..\..\..\..\plf\riscv\NMSIS\Core\Include/core_feature_eclic.h ****  *
 165:..\..\..\..\plf\riscv\NMSIS\Core\Include/core_feature_eclic.h ****  * The table below describes the core interrupt names and their availability in various Nuclei Core
 166:..\..\..\..\plf\riscv\NMSIS\Core\Include/core_feature_eclic.h ****  */
 167:..\..\..\..\plf\riscv\NMSIS\Core\Include/core_feature_eclic.h **** /* The following enum IRQn definition in this file
 168:..\..\..\..\plf\riscv\NMSIS\Core\Include/core_feature_eclic.h ****  * is only used for doxygen documentation generation,
 169:..\..\..\..\plf\riscv\NMSIS\Core\Include/core_feature_eclic.h ****  * The <Device>.h is the real file to define it by vendor
 170:..\..\..\..\plf\riscv\NMSIS\Core\Include/core_feature_eclic.h ****  */
 171:..\..\..\..\plf\riscv\NMSIS\Core\Include/core_feature_eclic.h **** #if defined(__ONLY_FOR_DOXYGEN_DOCUMENT_GENERATION__)
 172:..\..\..\..\plf\riscv\NMSIS\Core\Include/core_feature_eclic.h **** typedef enum IRQn {
 173:..\..\..\..\plf\riscv\NMSIS\Core\Include/core_feature_eclic.h ****     /* ========= Nuclei N/NX Core Specific Interrupt Numbers  =========== */
 174:..\..\..\..\plf\riscv\NMSIS\Core\Include/core_feature_eclic.h ****     /* Core Internal Interrupt IRQn definitions */
 175:..\..\..\..\plf\riscv\NMSIS\Core\Include/core_feature_eclic.h ****     Reserved0_IRQn            =   0,              /*!<  Internal reserved */
 176:..\..\..\..\plf\riscv\NMSIS\Core\Include/core_feature_eclic.h ****     Reserved1_IRQn            =   1,              /*!<  Internal reserved */
 177:..\..\..\..\plf\riscv\NMSIS\Core\Include/core_feature_eclic.h ****     Reserved2_IRQn            =   2,              /*!<  Internal reserved */
 178:..\..\..\..\plf\riscv\NMSIS\Core\Include/core_feature_eclic.h ****     CLIC_INT_SFT              =   3,              /*!<  System Timer SW interrupt */
 179:..\..\..\..\plf\riscv\NMSIS\Core\Include/core_feature_eclic.h ****     Reserved3_IRQn            =   4,              /*!<  Internal reserved */
 180:..\..\..\..\plf\riscv\NMSIS\Core\Include/core_feature_eclic.h ****     Reserved4_IRQn            =   5,              /*!<  Internal reserved */
 181:..\..\..\..\plf\riscv\NMSIS\Core\Include/core_feature_eclic.h ****     Reserved5_IRQn            =   6,              /*!<  Internal reserved */
 182:..\..\..\..\plf\riscv\NMSIS\Core\Include/core_feature_eclic.h ****     CLIC_INT_TMR              =   7,              /*!<  System Timer Interrupt */
 183:..\..\..\..\plf\riscv\NMSIS\Core\Include/core_feature_eclic.h ****     Reserved6_IRQn            =   8,              /*!<  Internal reserved */
 184:..\..\..\..\plf\riscv\NMSIS\Core\Include/core_feature_eclic.h ****     Reserved7_IRQn            =   9,              /*!<  Internal reserved */
 185:..\..\..\..\plf\riscv\NMSIS\Core\Include/core_feature_eclic.h ****     Reserved8_IRQn            =  10,              /*!<  Internal reserved */
 186:..\..\..\..\plf\riscv\NMSIS\Core\Include/core_feature_eclic.h ****     Reserved9_IRQn            =  11,              /*!<  Internal reserved */
 187:..\..\..\..\plf\riscv\NMSIS\Core\Include/core_feature_eclic.h ****     Reserved10_IRQn           =  12,              /*!<  Internal reserved */
 188:..\..\..\..\plf\riscv\NMSIS\Core\Include/core_feature_eclic.h ****     Reserved11_IRQn           =  13,              /*!<  Internal reserved */
 189:..\..\..\..\plf\riscv\NMSIS\Core\Include/core_feature_eclic.h ****     Reserved12_IRQn           =  14,              /*!<  Internal reserved */
 190:..\..\..\..\plf\riscv\NMSIS\Core\Include/core_feature_eclic.h ****     Reserved13_IRQn           =  15,              /*!<  Internal reserved */
 191:..\..\..\..\plf\riscv\NMSIS\Core\Include/core_feature_eclic.h ****     Reserved14_IRQn           =  16,              /*!<  Internal reserved */
 192:..\..\..\..\plf\riscv\NMSIS\Core\Include/core_feature_eclic.h ****     Reserved15_IRQn           =  17,              /*!<  Internal reserved */
 193:..\..\..\..\plf\riscv\NMSIS\Core\Include/core_feature_eclic.h ****     Reserved16_IRQn           =  18,              /*!<  Internal reserved */
 194:..\..\..\..\plf\riscv\NMSIS\Core\Include/core_feature_eclic.h **** 
 195:..\..\..\..\plf\riscv\NMSIS\Core\Include/core_feature_eclic.h ****     /* ========= Device Specific Interrupt Numbers  =================== */
 196:..\..\..\..\plf\riscv\NMSIS\Core\Include/core_feature_eclic.h ****     /* ToDo: add here your device specific external interrupt numbers.
 197:..\..\..\..\plf\riscv\NMSIS\Core\Include/core_feature_eclic.h ****      * 19~max(NUM_INTERRUPT, 1023) is reserved number for user.
 198:..\..\..\..\plf\riscv\NMSIS\Core\Include/core_feature_eclic.h ****      * Maxmum interrupt supported could get from clicinfo.NUM_INTERRUPT.
 199:..\..\..\..\plf\riscv\NMSIS\Core\Include/core_feature_eclic.h ****      * According the interrupt handlers defined in startup_Device.S
 200:..\..\..\..\plf\riscv\NMSIS\Core\Include/core_feature_eclic.h ****      * eg.: Interrupt for Timer#1       eclic_tim1_handler   ->   TIM1_IRQn */
 201:..\..\..\..\plf\riscv\NMSIS\Core\Include/core_feature_eclic.h ****     FirstDeviceSpecificInterrupt_IRQn    = 19,    /*!< First Device Specific Interrupt */
 202:..\..\..\..\plf\riscv\NMSIS\Core\Include/core_feature_eclic.h ****     SOC_INT_MAX,                                  /*!< Number of total interrupts */
 203:..\..\..\..\plf\riscv\NMSIS\Core\Include/core_feature_eclic.h **** } IRQn_Type;
 204:..\..\..\..\plf\riscv\NMSIS\Core\Include/core_feature_eclic.h **** #endif /* __ONLY_FOR_DOXYGEN_DOCUMENT_GENERATION__ */
 205:..\..\..\..\plf\riscv\NMSIS\Core\Include/core_feature_eclic.h **** 
 206:..\..\..\..\plf\riscv\NMSIS\Core\Include/core_feature_eclic.h **** #ifdef NMSIS_ECLIC_VIRTUAL
 207:..\..\..\..\plf\riscv\NMSIS\Core\Include/core_feature_eclic.h ****     #ifndef NMSIS_ECLIC_VIRTUAL_HEADER_FILE
 208:..\..\..\..\plf\riscv\NMSIS\Core\Include/core_feature_eclic.h ****         #define NMSIS_ECLIC_VIRTUAL_HEADER_FILE "nmsis_eclic_virtual.h"
 209:..\..\..\..\plf\riscv\NMSIS\Core\Include/core_feature_eclic.h ****     #endif
 210:..\..\..\..\plf\riscv\NMSIS\Core\Include/core_feature_eclic.h ****     #include NMSIS_ECLIC_VIRTUAL_HEADER_FILE
 211:..\..\..\..\plf\riscv\NMSIS\Core\Include/core_feature_eclic.h **** #else
 212:..\..\..\..\plf\riscv\NMSIS\Core\Include/core_feature_eclic.h ****     #define ECLIC_SetCfgNlbits            __ECLIC_SetCfgNlbits
 213:..\..\..\..\plf\riscv\NMSIS\Core\Include/core_feature_eclic.h ****     #define ECLIC_GetCfgNlbits            __ECLIC_GetCfgNlbits
 214:..\..\..\..\plf\riscv\NMSIS\Core\Include/core_feature_eclic.h ****     #define ECLIC_GetInfoVer              __ECLIC_GetInfoVer
 215:..\..\..\..\plf\riscv\NMSIS\Core\Include/core_feature_eclic.h ****     #define ECLIC_GetInfoCtlbits          __ECLIC_GetInfoCtlbits
 216:..\..\..\..\plf\riscv\NMSIS\Core\Include/core_feature_eclic.h ****     #define ECLIC_GetInfoNum              __ECLIC_GetInfoNum
 217:..\..\..\..\plf\riscv\NMSIS\Core\Include/core_feature_eclic.h ****     #define ECLIC_SetMth                  __ECLIC_SetMth
 218:..\..\..\..\plf\riscv\NMSIS\Core\Include/core_feature_eclic.h ****     #define ECLIC_GetMth                  __ECLIC_GetMth
 219:..\..\..\..\plf\riscv\NMSIS\Core\Include/core_feature_eclic.h ****     #define ECLIC_EnableIRQ               __ECLIC_EnableIRQ
 220:..\..\..\..\plf\riscv\NMSIS\Core\Include/core_feature_eclic.h ****     #define ECLIC_GetEnableIRQ            __ECLIC_GetEnableIRQ
 221:..\..\..\..\plf\riscv\NMSIS\Core\Include/core_feature_eclic.h ****     #define ECLIC_DisableIRQ              __ECLIC_DisableIRQ
 222:..\..\..\..\plf\riscv\NMSIS\Core\Include/core_feature_eclic.h ****     #define ECLIC_SetPendingIRQ           __ECLIC_SetPendingIRQ
 223:..\..\..\..\plf\riscv\NMSIS\Core\Include/core_feature_eclic.h ****     #define ECLIC_GetPendingIRQ           __ECLIC_GetPendingIRQ
 224:..\..\..\..\plf\riscv\NMSIS\Core\Include/core_feature_eclic.h ****     #define ECLIC_ClearPendingIRQ         __ECLIC_ClearPendingIRQ
 225:..\..\..\..\plf\riscv\NMSIS\Core\Include/core_feature_eclic.h ****     #define ECLIC_SetTrigIRQ              __ECLIC_SetTrigIRQ
 226:..\..\..\..\plf\riscv\NMSIS\Core\Include/core_feature_eclic.h ****     #define ECLIC_GetTrigIRQ              __ECLIC_GetTrigIRQ
 227:..\..\..\..\plf\riscv\NMSIS\Core\Include/core_feature_eclic.h ****     #define ECLIC_SetShvIRQ               __ECLIC_SetShvIRQ
 228:..\..\..\..\plf\riscv\NMSIS\Core\Include/core_feature_eclic.h ****     #define ECLIC_GetShvIRQ               __ECLIC_GetShvIRQ
 229:..\..\..\..\plf\riscv\NMSIS\Core\Include/core_feature_eclic.h ****     #define ECLIC_SetCtrlIRQ              __ECLIC_SetCtrlIRQ
 230:..\..\..\..\plf\riscv\NMSIS\Core\Include/core_feature_eclic.h ****     #define ECLIC_GetCtrlIRQ              __ECLIC_GetCtrlIRQ
 231:..\..\..\..\plf\riscv\NMSIS\Core\Include/core_feature_eclic.h ****     #define ECLIC_SetLevelIRQ             __ECLIC_SetLevelIRQ
 232:..\..\..\..\plf\riscv\NMSIS\Core\Include/core_feature_eclic.h ****     #define ECLIC_GetLevelIRQ             __ECLIC_GetLevelIRQ
 233:..\..\..\..\plf\riscv\NMSIS\Core\Include/core_feature_eclic.h ****     #define ECLIC_SetPriorityIRQ          __ECLIC_SetPriorityIRQ
 234:..\..\..\..\plf\riscv\NMSIS\Core\Include/core_feature_eclic.h ****     #define ECLIC_GetPriorityIRQ          __ECLIC_GetPriorityIRQ
 235:..\..\..\..\plf\riscv\NMSIS\Core\Include/core_feature_eclic.h **** 
 236:..\..\..\..\plf\riscv\NMSIS\Core\Include/core_feature_eclic.h **** #endif /* NMSIS_ECLIC_VIRTUAL */
 237:..\..\..\..\plf\riscv\NMSIS\Core\Include/core_feature_eclic.h **** 
 238:..\..\..\..\plf\riscv\NMSIS\Core\Include/core_feature_eclic.h **** #ifdef NMSIS_VECTAB_VIRTUAL
 239:..\..\..\..\plf\riscv\NMSIS\Core\Include/core_feature_eclic.h ****     #ifndef NMSIS_VECTAB_VIRTUAL_HEADER_FILE
 240:..\..\..\..\plf\riscv\NMSIS\Core\Include/core_feature_eclic.h ****         #define NMSIS_VECTAB_VIRTUAL_HEADER_FILE "nmsis_vectab_virtual.h"
 241:..\..\..\..\plf\riscv\NMSIS\Core\Include/core_feature_eclic.h ****     #endif
 242:..\..\..\..\plf\riscv\NMSIS\Core\Include/core_feature_eclic.h ****     #include NMSIS_VECTAB_VIRTUAL_HEADER_FILE
 243:..\..\..\..\plf\riscv\NMSIS\Core\Include/core_feature_eclic.h **** #else
 244:..\..\..\..\plf\riscv\NMSIS\Core\Include/core_feature_eclic.h ****     #define ECLIC_SetVector              __ECLIC_SetVector
 245:..\..\..\..\plf\riscv\NMSIS\Core\Include/core_feature_eclic.h ****     #define ECLIC_GetVector              __ECLIC_GetVector
 246:..\..\..\..\plf\riscv\NMSIS\Core\Include/core_feature_eclic.h **** #endif  /* (NMSIS_VECTAB_VIRTUAL) */
 247:..\..\..\..\plf\riscv\NMSIS\Core\Include/core_feature_eclic.h **** 
 248:..\..\..\..\plf\riscv\NMSIS\Core\Include/core_feature_eclic.h **** /**
 249:..\..\..\..\plf\riscv\NMSIS\Core\Include/core_feature_eclic.h ****  * \brief  Set nlbits value
 250:..\..\..\..\plf\riscv\NMSIS\Core\Include/core_feature_eclic.h ****  * \details
 251:..\..\..\..\plf\riscv\NMSIS\Core\Include/core_feature_eclic.h ****  * This function set the nlbits value of CLICCFG register.
 252:..\..\..\..\plf\riscv\NMSIS\Core\Include/core_feature_eclic.h ****  * \param [in]    nlbits    nlbits value
 253:..\..\..\..\plf\riscv\NMSIS\Core\Include/core_feature_eclic.h ****  * \remarks
 254:..\..\..\..\plf\riscv\NMSIS\Core\Include/core_feature_eclic.h ****  * - nlbits is used to set the width of level in the CLICINTCTL[i].
 255:..\..\..\..\plf\riscv\NMSIS\Core\Include/core_feature_eclic.h ****  * \sa
 256:..\..\..\..\plf\riscv\NMSIS\Core\Include/core_feature_eclic.h ****  * - \ref ECLIC_GetCfgNlbits
 257:..\..\..\..\plf\riscv\NMSIS\Core\Include/core_feature_eclic.h ****  */
 258:..\..\..\..\plf\riscv\NMSIS\Core\Include/core_feature_eclic.h **** __STATIC_FORCEINLINE void __ECLIC_SetCfgNlbits(uint32_t nlbits)
 259:..\..\..\..\plf\riscv\NMSIS\Core\Include/core_feature_eclic.h **** {
 260:..\..\..\..\plf\riscv\NMSIS\Core\Include/core_feature_eclic.h ****     ECLIC->CFG &= ~CLIC_CLICCFG_NLBIT_Msk;
 261:..\..\..\..\plf\riscv\NMSIS\Core\Include/core_feature_eclic.h ****     ECLIC->CFG |= (uint8_t)((nlbits <<CLIC_CLICCFG_NLBIT_Pos) & CLIC_CLICCFG_NLBIT_Msk);
 262:..\..\..\..\plf\riscv\NMSIS\Core\Include/core_feature_eclic.h **** }
 263:..\..\..\..\plf\riscv\NMSIS\Core\Include/core_feature_eclic.h **** 
 264:..\..\..\..\plf\riscv\NMSIS\Core\Include/core_feature_eclic.h **** /**
 265:..\..\..\..\plf\riscv\NMSIS\Core\Include/core_feature_eclic.h ****  * \brief  Get nlbits value
 266:..\..\..\..\plf\riscv\NMSIS\Core\Include/core_feature_eclic.h ****  * \details
 267:..\..\..\..\plf\riscv\NMSIS\Core\Include/core_feature_eclic.h ****  * This function get the nlbits value of CLICCFG register.
 268:..\..\..\..\plf\riscv\NMSIS\Core\Include/core_feature_eclic.h ****  * \return   nlbits value of CLICCFG register
 269:..\..\..\..\plf\riscv\NMSIS\Core\Include/core_feature_eclic.h ****  * \remarks
 270:..\..\..\..\plf\riscv\NMSIS\Core\Include/core_feature_eclic.h ****  * - nlbits is used to set the width of level in the CLICINTCTL[i].
 271:..\..\..\..\plf\riscv\NMSIS\Core\Include/core_feature_eclic.h ****  * \sa
 272:..\..\..\..\plf\riscv\NMSIS\Core\Include/core_feature_eclic.h ****  * - \ref ECLIC_SetCfgNlbits
 273:..\..\..\..\plf\riscv\NMSIS\Core\Include/core_feature_eclic.h ****  */
 274:..\..\..\..\plf\riscv\NMSIS\Core\Include/core_feature_eclic.h **** __STATIC_FORCEINLINE uint32_t __ECLIC_GetCfgNlbits(void)
 275:..\..\..\..\plf\riscv\NMSIS\Core\Include/core_feature_eclic.h **** {
 276:..\..\..\..\plf\riscv\NMSIS\Core\Include/core_feature_eclic.h ****     return ((uint32_t)((ECLIC->CFG & CLIC_CLICCFG_NLBIT_Msk) >> CLIC_CLICCFG_NLBIT_Pos));
 277:..\..\..\..\plf\riscv\NMSIS\Core\Include/core_feature_eclic.h **** }
 278:..\..\..\..\plf\riscv\NMSIS\Core\Include/core_feature_eclic.h **** 
 279:..\..\..\..\plf\riscv\NMSIS\Core\Include/core_feature_eclic.h **** /**
 280:..\..\..\..\plf\riscv\NMSIS\Core\Include/core_feature_eclic.h ****  * \brief  Get the ECLIC version number
 281:..\..\..\..\plf\riscv\NMSIS\Core\Include/core_feature_eclic.h ****  * \details
 282:..\..\..\..\plf\riscv\NMSIS\Core\Include/core_feature_eclic.h ****  * This function gets the hardware version information from CLICINFO register.
 283:..\..\..\..\plf\riscv\NMSIS\Core\Include/core_feature_eclic.h ****  * \return   hardware version number in CLICINFO register.
 284:..\..\..\..\plf\riscv\NMSIS\Core\Include/core_feature_eclic.h ****  * \remarks
 285:..\..\..\..\plf\riscv\NMSIS\Core\Include/core_feature_eclic.h ****  * - This function gets harware version information from CLICINFO register.
 286:..\..\..\..\plf\riscv\NMSIS\Core\Include/core_feature_eclic.h ****  * - Bit 20:17 for architecture version, bit 16:13 for implementation version.
 287:..\..\..\..\plf\riscv\NMSIS\Core\Include/core_feature_eclic.h ****  * \sa
 288:..\..\..\..\plf\riscv\NMSIS\Core\Include/core_feature_eclic.h ****  * - \ref ECLIC_GetInfoNum
 289:..\..\..\..\plf\riscv\NMSIS\Core\Include/core_feature_eclic.h **** */
 290:..\..\..\..\plf\riscv\NMSIS\Core\Include/core_feature_eclic.h **** __STATIC_FORCEINLINE uint32_t __ECLIC_GetInfoVer(void)
 291:..\..\..\..\plf\riscv\NMSIS\Core\Include/core_feature_eclic.h **** {
 292:..\..\..\..\plf\riscv\NMSIS\Core\Include/core_feature_eclic.h ****     return ((uint32_t)((ECLIC->INFO & CLIC_CLICINFO_VER_Msk) >> CLIC_CLICINFO_VER_Pos));
 293:..\..\..\..\plf\riscv\NMSIS\Core\Include/core_feature_eclic.h **** }
 294:..\..\..\..\plf\riscv\NMSIS\Core\Include/core_feature_eclic.h **** 
 295:..\..\..\..\plf\riscv\NMSIS\Core\Include/core_feature_eclic.h **** /**
 296:..\..\..\..\plf\riscv\NMSIS\Core\Include/core_feature_eclic.h ****  * \brief  Get CLICINTCTLBITS
 297:..\..\..\..\plf\riscv\NMSIS\Core\Include/core_feature_eclic.h ****  * \details
 298:..\..\..\..\plf\riscv\NMSIS\Core\Include/core_feature_eclic.h ****  * This function gets CLICINTCTLBITS from CLICINFO register.
 299:..\..\..\..\plf\riscv\NMSIS\Core\Include/core_feature_eclic.h ****  * \return  CLICINTCTLBITS from CLICINFO register.
 300:..\..\..\..\plf\riscv\NMSIS\Core\Include/core_feature_eclic.h ****  * \remarks
 301:..\..\..\..\plf\riscv\NMSIS\Core\Include/core_feature_eclic.h ****  * - In the CLICINTCTL[i] registers, with 2 <= CLICINTCTLBITS <= 8.
 302:..\..\..\..\plf\riscv\NMSIS\Core\Include/core_feature_eclic.h ****  * - The implemented bits are kept left-justified in the most-significant bits of each 8-bit
 303:..\..\..\..\plf\riscv\NMSIS\Core\Include/core_feature_eclic.h ****  *   CLICINTCTL[I] register, with the lower unimplemented bits treated as hardwired to 1.
 304:..\..\..\..\plf\riscv\NMSIS\Core\Include/core_feature_eclic.h ****  * \sa
 305:..\..\..\..\plf\riscv\NMSIS\Core\Include/core_feature_eclic.h ****  * - \ref ECLIC_GetInfoNum
 306:..\..\..\..\plf\riscv\NMSIS\Core\Include/core_feature_eclic.h ****  */
 307:..\..\..\..\plf\riscv\NMSIS\Core\Include/core_feature_eclic.h **** __STATIC_FORCEINLINE uint32_t __ECLIC_GetInfoCtlbits(void)
 308:..\..\..\..\plf\riscv\NMSIS\Core\Include/core_feature_eclic.h **** {
 309:..\..\..\..\plf\riscv\NMSIS\Core\Include/core_feature_eclic.h ****     return ((uint32_t)((ECLIC->INFO & CLIC_CLICINFO_CTLBIT_Msk) >> CLIC_CLICINFO_CTLBIT_Pos));
 310:..\..\..\..\plf\riscv\NMSIS\Core\Include/core_feature_eclic.h **** }
 311:..\..\..\..\plf\riscv\NMSIS\Core\Include/core_feature_eclic.h **** 
 312:..\..\..\..\plf\riscv\NMSIS\Core\Include/core_feature_eclic.h **** /**
 313:..\..\..\..\plf\riscv\NMSIS\Core\Include/core_feature_eclic.h ****  * \brief  Get number of maximum interrupt inputs supported
 314:..\..\..\..\plf\riscv\NMSIS\Core\Include/core_feature_eclic.h ****  * \details
 315:..\..\..\..\plf\riscv\NMSIS\Core\Include/core_feature_eclic.h ****  * This function gets number of maximum interrupt inputs supported from CLICINFO register.
 316:..\..\..\..\plf\riscv\NMSIS\Core\Include/core_feature_eclic.h ****  * \return  number of maximum interrupt inputs supported from CLICINFO register.
 317:..\..\..\..\plf\riscv\NMSIS\Core\Include/core_feature_eclic.h ****  * \remarks
 318:..\..\..\..\plf\riscv\NMSIS\Core\Include/core_feature_eclic.h ****  * - This function gets number of maximum interrupt inputs supported from CLICINFO register.
 319:..\..\..\..\plf\riscv\NMSIS\Core\Include/core_feature_eclic.h ****  * - The num_interrupt field specifies the actual number of maximum interrupt inputs supported in t
 320:..\..\..\..\plf\riscv\NMSIS\Core\Include/core_feature_eclic.h ****  * \sa
 321:..\..\..\..\plf\riscv\NMSIS\Core\Include/core_feature_eclic.h ****  * - \ref ECLIC_GetInfoCtlbits
 322:..\..\..\..\plf\riscv\NMSIS\Core\Include/core_feature_eclic.h ****  */
 323:..\..\..\..\plf\riscv\NMSIS\Core\Include/core_feature_eclic.h **** __STATIC_FORCEINLINE uint32_t __ECLIC_GetInfoNum(void)
 324:..\..\..\..\plf\riscv\NMSIS\Core\Include/core_feature_eclic.h **** {
 325:..\..\..\..\plf\riscv\NMSIS\Core\Include/core_feature_eclic.h ****     return ((uint32_t)((ECLIC->INFO & CLIC_CLICINFO_NUM_Msk) >> CLIC_CLICINFO_NUM_Pos));
 326:..\..\..\..\plf\riscv\NMSIS\Core\Include/core_feature_eclic.h **** }
 327:..\..\..\..\plf\riscv\NMSIS\Core\Include/core_feature_eclic.h **** 
 328:..\..\..\..\plf\riscv\NMSIS\Core\Include/core_feature_eclic.h **** /**
 329:..\..\..\..\plf\riscv\NMSIS\Core\Include/core_feature_eclic.h ****  * \brief  Set Machine Mode Interrupt Level Threshold
 330:..\..\..\..\plf\riscv\NMSIS\Core\Include/core_feature_eclic.h ****  * \details
 331:..\..\..\..\plf\riscv\NMSIS\Core\Include/core_feature_eclic.h ****  * This function sets machine mode interrupt level threshold.
 332:..\..\..\..\plf\riscv\NMSIS\Core\Include/core_feature_eclic.h ****  * \param [in]  mth       Interrupt Level Threshold.
 333:..\..\..\..\plf\riscv\NMSIS\Core\Include/core_feature_eclic.h ****  * \sa
 334:..\..\..\..\plf\riscv\NMSIS\Core\Include/core_feature_eclic.h ****  * - \ref ECLIC_GetMth
 335:..\..\..\..\plf\riscv\NMSIS\Core\Include/core_feature_eclic.h ****  */
 336:..\..\..\..\plf\riscv\NMSIS\Core\Include/core_feature_eclic.h **** __STATIC_FORCEINLINE void __ECLIC_SetMth(uint8_t mth)
 337:..\..\..\..\plf\riscv\NMSIS\Core\Include/core_feature_eclic.h **** {
 338:..\..\..\..\plf\riscv\NMSIS\Core\Include/core_feature_eclic.h ****     ECLIC->MTH = mth;
 339:..\..\..\..\plf\riscv\NMSIS\Core\Include/core_feature_eclic.h **** }
 340:..\..\..\..\plf\riscv\NMSIS\Core\Include/core_feature_eclic.h **** 
 341:..\..\..\..\plf\riscv\NMSIS\Core\Include/core_feature_eclic.h **** /**
 342:..\..\..\..\plf\riscv\NMSIS\Core\Include/core_feature_eclic.h ****  * \brief  Get Machine Mode Interrupt Level Threshold
 343:..\..\..\..\plf\riscv\NMSIS\Core\Include/core_feature_eclic.h ****  * \details
 344:..\..\..\..\plf\riscv\NMSIS\Core\Include/core_feature_eclic.h ****  * This function gets machine mode interrupt level threshold.
 345:..\..\..\..\plf\riscv\NMSIS\Core\Include/core_feature_eclic.h ****  * \return       Interrupt Level Threshold.
 346:..\..\..\..\plf\riscv\NMSIS\Core\Include/core_feature_eclic.h ****  * \sa
 347:..\..\..\..\plf\riscv\NMSIS\Core\Include/core_feature_eclic.h ****  * - \ref ECLIC_SetMth
 348:..\..\..\..\plf\riscv\NMSIS\Core\Include/core_feature_eclic.h ****  */
 349:..\..\..\..\plf\riscv\NMSIS\Core\Include/core_feature_eclic.h **** __STATIC_FORCEINLINE uint8_t __ECLIC_GetMth(void)
 350:..\..\..\..\plf\riscv\NMSIS\Core\Include/core_feature_eclic.h **** {
 351:..\..\..\..\plf\riscv\NMSIS\Core\Include/core_feature_eclic.h ****     return (ECLIC->MTH);
 352:..\..\..\..\plf\riscv\NMSIS\Core\Include/core_feature_eclic.h **** }
 353:..\..\..\..\plf\riscv\NMSIS\Core\Include/core_feature_eclic.h **** 
 354:..\..\..\..\plf\riscv\NMSIS\Core\Include/core_feature_eclic.h **** 
 355:..\..\..\..\plf\riscv\NMSIS\Core\Include/core_feature_eclic.h **** /**
 356:..\..\..\..\plf\riscv\NMSIS\Core\Include/core_feature_eclic.h ****  * \brief  Enable a specific interrupt
 357:..\..\..\..\plf\riscv\NMSIS\Core\Include/core_feature_eclic.h ****  * \details
 358:..\..\..\..\plf\riscv\NMSIS\Core\Include/core_feature_eclic.h ****  * This function enables the specific interrupt \em IRQn.
 359:..\..\..\..\plf\riscv\NMSIS\Core\Include/core_feature_eclic.h ****  * \param [in]  IRQn  Interrupt number
 360:..\..\..\..\plf\riscv\NMSIS\Core\Include/core_feature_eclic.h ****  * \remarks
 361:..\..\..\..\plf\riscv\NMSIS\Core\Include/core_feature_eclic.h ****  * - IRQn must not be negative.
 362:..\..\..\..\plf\riscv\NMSIS\Core\Include/core_feature_eclic.h ****  * \sa
 363:..\..\..\..\plf\riscv\NMSIS\Core\Include/core_feature_eclic.h ****  * - \ref ECLIC_DisableIRQ
 364:..\..\..\..\plf\riscv\NMSIS\Core\Include/core_feature_eclic.h ****  */
 365:..\..\..\..\plf\riscv\NMSIS\Core\Include/core_feature_eclic.h **** __STATIC_FORCEINLINE void __ECLIC_EnableIRQ(IRQn_Type IRQn)
 366:..\..\..\..\plf\riscv\NMSIS\Core\Include/core_feature_eclic.h **** {
 367:..\..\..\..\plf\riscv\NMSIS\Core\Include/core_feature_eclic.h ****     ECLIC->CTRL[IRQn].INTIE |= CLIC_INTIE_IE_Msk;
 368:..\..\..\..\plf\riscv\NMSIS\Core\Include/core_feature_eclic.h **** }
 369:..\..\..\..\plf\riscv\NMSIS\Core\Include/core_feature_eclic.h **** 
 370:..\..\..\..\plf\riscv\NMSIS\Core\Include/core_feature_eclic.h **** /**
 371:..\..\..\..\plf\riscv\NMSIS\Core\Include/core_feature_eclic.h ****  * \brief  Get a specific interrupt enable status
 372:..\..\..\..\plf\riscv\NMSIS\Core\Include/core_feature_eclic.h ****  * \details
 373:..\..\..\..\plf\riscv\NMSIS\Core\Include/core_feature_eclic.h ****  * This function returns the interrupt enable status for the specific interrupt \em IRQn.
 374:..\..\..\..\plf\riscv\NMSIS\Core\Include/core_feature_eclic.h ****  * \param [in]  IRQn  Interrupt number
 375:..\..\..\..\plf\riscv\NMSIS\Core\Include/core_feature_eclic.h ****  * \returns
 376:..\..\..\..\plf\riscv\NMSIS\Core\Include/core_feature_eclic.h ****  * - 0  Interrupt is not enabled
 377:..\..\..\..\plf\riscv\NMSIS\Core\Include/core_feature_eclic.h ****  * - 1  Interrupt is pending
 378:..\..\..\..\plf\riscv\NMSIS\Core\Include/core_feature_eclic.h ****  * \remarks
 379:..\..\..\..\plf\riscv\NMSIS\Core\Include/core_feature_eclic.h ****  * - IRQn must not be negative.
 380:..\..\..\..\plf\riscv\NMSIS\Core\Include/core_feature_eclic.h ****  * \sa
 381:..\..\..\..\plf\riscv\NMSIS\Core\Include/core_feature_eclic.h ****  * - \ref ECLIC_EnableIRQ
 382:..\..\..\..\plf\riscv\NMSIS\Core\Include/core_feature_eclic.h ****  * - \ref ECLIC_DisableIRQ
 383:..\..\..\..\plf\riscv\NMSIS\Core\Include/core_feature_eclic.h ****  */
 384:..\..\..\..\plf\riscv\NMSIS\Core\Include/core_feature_eclic.h **** __STATIC_FORCEINLINE uint32_t __ECLIC_GetEnableIRQ(IRQn_Type IRQn)
 385:..\..\..\..\plf\riscv\NMSIS\Core\Include/core_feature_eclic.h **** {
 386:..\..\..\..\plf\riscv\NMSIS\Core\Include/core_feature_eclic.h ****     return((uint32_t) (ECLIC->CTRL[IRQn].INTIE) & CLIC_INTIE_IE_Msk);
 387:..\..\..\..\plf\riscv\NMSIS\Core\Include/core_feature_eclic.h **** }
 388:..\..\..\..\plf\riscv\NMSIS\Core\Include/core_feature_eclic.h **** 
 389:..\..\..\..\plf\riscv\NMSIS\Core\Include/core_feature_eclic.h **** /**
 390:..\..\..\..\plf\riscv\NMSIS\Core\Include/core_feature_eclic.h ****  * \brief  Disable a specific interrupt
 391:..\..\..\..\plf\riscv\NMSIS\Core\Include/core_feature_eclic.h ****  * \details
 392:..\..\..\..\plf\riscv\NMSIS\Core\Include/core_feature_eclic.h ****  * This function disables the specific interrupt \em IRQn.
 393:..\..\..\..\plf\riscv\NMSIS\Core\Include/core_feature_eclic.h ****  * \param [in]  IRQn  Number of the external interrupt to disable
 394:..\..\..\..\plf\riscv\NMSIS\Core\Include/core_feature_eclic.h ****  * \remarks
 395:..\..\..\..\plf\riscv\NMSIS\Core\Include/core_feature_eclic.h ****  * - IRQn must not be negative.
 396:..\..\..\..\plf\riscv\NMSIS\Core\Include/core_feature_eclic.h ****  * \sa
 397:..\..\..\..\plf\riscv\NMSIS\Core\Include/core_feature_eclic.h ****  * - \ref ECLIC_EnableIRQ
 398:..\..\..\..\plf\riscv\NMSIS\Core\Include/core_feature_eclic.h ****  */
 399:..\..\..\..\plf\riscv\NMSIS\Core\Include/core_feature_eclic.h **** __STATIC_FORCEINLINE void __ECLIC_DisableIRQ(IRQn_Type IRQn)
 400:..\..\..\..\plf\riscv\NMSIS\Core\Include/core_feature_eclic.h **** {
 401:..\..\..\..\plf\riscv\NMSIS\Core\Include/core_feature_eclic.h ****     ECLIC->CTRL[IRQn].INTIE &= ~CLIC_INTIE_IE_Msk;
 402:..\..\..\..\plf\riscv\NMSIS\Core\Include/core_feature_eclic.h **** }
 403:..\..\..\..\plf\riscv\NMSIS\Core\Include/core_feature_eclic.h **** 
 404:..\..\..\..\plf\riscv\NMSIS\Core\Include/core_feature_eclic.h **** /**
 405:..\..\..\..\plf\riscv\NMSIS\Core\Include/core_feature_eclic.h ****  * \brief  Get the pending specific interrupt
 406:..\..\..\..\plf\riscv\NMSIS\Core\Include/core_feature_eclic.h ****  * \details
 407:..\..\..\..\plf\riscv\NMSIS\Core\Include/core_feature_eclic.h ****  * This function returns the pending status of the specific interrupt \em IRQn.
 408:..\..\..\..\plf\riscv\NMSIS\Core\Include/core_feature_eclic.h ****  * \param [in]      IRQn  Interrupt number
 409:..\..\..\..\plf\riscv\NMSIS\Core\Include/core_feature_eclic.h ****  * \returns
 410:..\..\..\..\plf\riscv\NMSIS\Core\Include/core_feature_eclic.h ****  * - 0  Interrupt is not pending
 411:..\..\..\..\plf\riscv\NMSIS\Core\Include/core_feature_eclic.h ****  * - 1  Interrupt is pending
 412:..\..\..\..\plf\riscv\NMSIS\Core\Include/core_feature_eclic.h ****  * \remarks
 413:..\..\..\..\plf\riscv\NMSIS\Core\Include/core_feature_eclic.h ****  * - IRQn must not be negative.
 414:..\..\..\..\plf\riscv\NMSIS\Core\Include/core_feature_eclic.h ****  * \sa
 415:..\..\..\..\plf\riscv\NMSIS\Core\Include/core_feature_eclic.h ****  * - \ref ECLIC_SetPendingIRQ
 416:..\..\..\..\plf\riscv\NMSIS\Core\Include/core_feature_eclic.h ****  * - \ref ECLIC_ClearPendingIRQ
 417:..\..\..\..\plf\riscv\NMSIS\Core\Include/core_feature_eclic.h ****  */
 418:..\..\..\..\plf\riscv\NMSIS\Core\Include/core_feature_eclic.h **** __STATIC_FORCEINLINE int32_t __ECLIC_GetPendingIRQ(IRQn_Type IRQn)
 419:..\..\..\..\plf\riscv\NMSIS\Core\Include/core_feature_eclic.h **** {
 420:..\..\..\..\plf\riscv\NMSIS\Core\Include/core_feature_eclic.h ****     return((uint32_t)(ECLIC->CTRL[IRQn].INTIP) & CLIC_INTIP_IP_Msk);
 421:..\..\..\..\plf\riscv\NMSIS\Core\Include/core_feature_eclic.h **** }
 422:..\..\..\..\plf\riscv\NMSIS\Core\Include/core_feature_eclic.h **** 
 423:..\..\..\..\plf\riscv\NMSIS\Core\Include/core_feature_eclic.h **** /**
 424:..\..\..\..\plf\riscv\NMSIS\Core\Include/core_feature_eclic.h ****  * \brief  Set a specific interrupt to pending
 425:..\..\..\..\plf\riscv\NMSIS\Core\Include/core_feature_eclic.h ****  * \details
 426:..\..\..\..\plf\riscv\NMSIS\Core\Include/core_feature_eclic.h ****  * This function sets the pending bit for the specific interrupt \em IRQn.
 427:..\..\..\..\plf\riscv\NMSIS\Core\Include/core_feature_eclic.h ****  * \param [in]      IRQn  Interrupt number
 428:..\..\..\..\plf\riscv\NMSIS\Core\Include/core_feature_eclic.h ****  * \remarks
 429:..\..\..\..\plf\riscv\NMSIS\Core\Include/core_feature_eclic.h ****  * - IRQn must not be negative.
 430:..\..\..\..\plf\riscv\NMSIS\Core\Include/core_feature_eclic.h ****  * \sa
 431:..\..\..\..\plf\riscv\NMSIS\Core\Include/core_feature_eclic.h ****  * - \ref ECLIC_GetPendingIRQ
 432:..\..\..\..\plf\riscv\NMSIS\Core\Include/core_feature_eclic.h ****  * - \ref ECLIC_ClearPendingIRQ
 433:..\..\..\..\plf\riscv\NMSIS\Core\Include/core_feature_eclic.h ****  */
 434:..\..\..\..\plf\riscv\NMSIS\Core\Include/core_feature_eclic.h **** __STATIC_FORCEINLINE void __ECLIC_SetPendingIRQ(IRQn_Type IRQn)
 435:..\..\..\..\plf\riscv\NMSIS\Core\Include/core_feature_eclic.h **** {
 436:..\..\..\..\plf\riscv\NMSIS\Core\Include/core_feature_eclic.h ****     ECLIC->CTRL[IRQn].INTIP |= CLIC_INTIP_IP_Msk;
 437:..\..\..\..\plf\riscv\NMSIS\Core\Include/core_feature_eclic.h **** }
 438:..\..\..\..\plf\riscv\NMSIS\Core\Include/core_feature_eclic.h **** 
 439:..\..\..\..\plf\riscv\NMSIS\Core\Include/core_feature_eclic.h **** /**
 440:..\..\..\..\plf\riscv\NMSIS\Core\Include/core_feature_eclic.h ****  * \brief  Clear a specific interrupt from pending
 441:..\..\..\..\plf\riscv\NMSIS\Core\Include/core_feature_eclic.h ****  * \details
 442:..\..\..\..\plf\riscv\NMSIS\Core\Include/core_feature_eclic.h ****  * This function removes the pending state of the specific interrupt \em IRQn.
 443:..\..\..\..\plf\riscv\NMSIS\Core\Include/core_feature_eclic.h ****  * \em IRQn cannot be a negative number.
 444:..\..\..\..\plf\riscv\NMSIS\Core\Include/core_feature_eclic.h ****  * \param [in]      IRQn  Interrupt number
 445:..\..\..\..\plf\riscv\NMSIS\Core\Include/core_feature_eclic.h ****  * \remarks
 446:..\..\..\..\plf\riscv\NMSIS\Core\Include/core_feature_eclic.h ****  * - IRQn must not be negative.
 447:..\..\..\..\plf\riscv\NMSIS\Core\Include/core_feature_eclic.h ****  * \sa
 448:..\..\..\..\plf\riscv\NMSIS\Core\Include/core_feature_eclic.h ****  * - \ref ECLIC_SetPendingIRQ
 449:..\..\..\..\plf\riscv\NMSIS\Core\Include/core_feature_eclic.h ****  * - \ref ECLIC_GetPendingIRQ
 450:..\..\..\..\plf\riscv\NMSIS\Core\Include/core_feature_eclic.h ****  */
 451:..\..\..\..\plf\riscv\NMSIS\Core\Include/core_feature_eclic.h **** __STATIC_FORCEINLINE void __ECLIC_ClearPendingIRQ(IRQn_Type IRQn)
 452:..\..\..\..\plf\riscv\NMSIS\Core\Include/core_feature_eclic.h **** {
 453:..\..\..\..\plf\riscv\NMSIS\Core\Include/core_feature_eclic.h ****     ECLIC->CTRL[IRQn].INTIP &= ~ CLIC_INTIP_IP_Msk;
 454:..\..\..\..\plf\riscv\NMSIS\Core\Include/core_feature_eclic.h **** }
 455:..\..\..\..\plf\riscv\NMSIS\Core\Include/core_feature_eclic.h **** 
 456:..\..\..\..\plf\riscv\NMSIS\Core\Include/core_feature_eclic.h **** /**
 457:..\..\..\..\plf\riscv\NMSIS\Core\Include/core_feature_eclic.h ****  * \brief  Set trigger mode and polarity for a specific interrupt
 458:..\..\..\..\plf\riscv\NMSIS\Core\Include/core_feature_eclic.h ****  * \details
 459:..\..\..\..\plf\riscv\NMSIS\Core\Include/core_feature_eclic.h ****  * This function set trigger mode and polarity of the specific interrupt \em IRQn.
 460:..\..\..\..\plf\riscv\NMSIS\Core\Include/core_feature_eclic.h ****  * \param [in]      IRQn  Interrupt number
 461:..\..\..\..\plf\riscv\NMSIS\Core\Include/core_feature_eclic.h ****  * \param [in]      trig
 462:..\..\..\..\plf\riscv\NMSIS\Core\Include/core_feature_eclic.h ****  *                   - 00  level trigger, \ref ECLIC_LEVEL_TRIGGER
 463:..\..\..\..\plf\riscv\NMSIS\Core\Include/core_feature_eclic.h ****  *                   - 01  positive edge trigger, \ref ECLIC_POSTIVE_EDGE_TRIGGER
 464:..\..\..\..\plf\riscv\NMSIS\Core\Include/core_feature_eclic.h ****  *                   - 02  level trigger, \ref ECLIC_LEVEL_TRIGGER
 465:..\..\..\..\plf\riscv\NMSIS\Core\Include/core_feature_eclic.h ****  *                   - 03  negative edge trigger, \ref ECLIC_NEGTIVE_EDGE_TRIGGER
 466:..\..\..\..\plf\riscv\NMSIS\Core\Include/core_feature_eclic.h ****  * \remarks
 467:..\..\..\..\plf\riscv\NMSIS\Core\Include/core_feature_eclic.h ****  * - IRQn must not be negative.
 468:..\..\..\..\plf\riscv\NMSIS\Core\Include/core_feature_eclic.h ****  *
 469:..\..\..\..\plf\riscv\NMSIS\Core\Include/core_feature_eclic.h ****  * \sa
 470:..\..\..\..\plf\riscv\NMSIS\Core\Include/core_feature_eclic.h ****  * - \ref ECLIC_GetTrigIRQ
 471:..\..\..\..\plf\riscv\NMSIS\Core\Include/core_feature_eclic.h ****  */
 472:..\..\..\..\plf\riscv\NMSIS\Core\Include/core_feature_eclic.h **** __STATIC_FORCEINLINE void __ECLIC_SetTrigIRQ(IRQn_Type IRQn, uint32_t trig)
 473:..\..\..\..\plf\riscv\NMSIS\Core\Include/core_feature_eclic.h **** {
 474:..\..\..\..\plf\riscv\NMSIS\Core\Include/core_feature_eclic.h ****     ECLIC->CTRL[IRQn].INTATTR &= ~CLIC_INTATTR_TRIG_Msk;
 1583              		.loc 2 474 31 is_stmt 0
 1584 0014 371400D2 		li	s0,-771747840
 1585              	.LBE101:
 1586              	.LBE100:
 862:C:/Users/stapi/OneDrive/Desktop/GD32VW553/V1_MQTT_OK/GD32VW55X_Wifi_BLE_SDK/GD32VW55x_RELEASE_V1.0.2/MSDK/plf/src\gd32vw55x_platform.c **** 
 1587              		.loc 1 862 5
 1588 0018 97000000 		call	eclic_priority_group_set
 1588      E7800000 
 1589              	.LVL135:
 865:C:/Users/stapi/OneDrive/Desktop/GD32VW553/V1_MQTT_OK/GD32VW55X_Wifi_BLE_SDK/GD32VW55x_RELEASE_V1.0.2/MSDK/plf/src\gd32vw55x_platform.c ****     ECLIC_SetTrigIRQ(CLIC_INT_TMR, ECLIC_POSTIVE_EDGE_TRIGGER);
 1590              		.loc 1 865 5 is_stmt 1
 1591              	.LBB105:
 1592              	.LBB102:
 1593              		.loc 2 474 5
 1594              		.loc 2 474 31 is_stmt 0
 1595 0020 8347E400 		lbu	a5,14(s0)
 1596              	.LBE102:
 1597              	.LBE105:
 868:C:/Users/stapi/OneDrive/Desktop/GD32VW553/V1_MQTT_OK/GD32VW55X_Wifi_BLE_SDK/GD32VW55x_RELEASE_V1.0.2/MSDK/plf/src\gd32vw55x_platform.c **** 
 1598              		.loc 1 868 5
 1599 0024 0146     		li	a2,0
 1600 0026 A145     		li	a1,8
 1601              	.LBB106:
 1602              	.LBB103:
 1603              		.loc 2 474 31
 1604 0028 93F7970F 		andi	a5,a5,249
 1605 002c 2307F400 		sb	a5,14(s0)
 475:..\..\..\..\plf\riscv\NMSIS\Core\Include/core_feature_eclic.h ****     ECLIC->CTRL[IRQn].INTATTR |= (uint8_t)(trig<<CLIC_INTATTR_TRIG_Pos);
 1606              		.loc 2 475 5 is_stmt 1
 1607              		.loc 2 475 31 is_stmt 0
 1608 0030 8347E400 		lbu	a5,14(s0)
 1609              	.LBE103:
 1610              	.LBE106:
 868:C:/Users/stapi/OneDrive/Desktop/GD32VW553/V1_MQTT_OK/GD32VW55X_Wifi_BLE_SDK/GD32VW55x_RELEASE_V1.0.2/MSDK/plf/src\gd32vw55x_platform.c **** 
 1611              		.loc 1 868 5
 1612 0034 13059003 		li	a0,57
 1613              	.LBB107:
 1614              	.LBB104:
 474:..\..\..\..\plf\riscv\NMSIS\Core\Include/core_feature_eclic.h ****     ECLIC->CTRL[IRQn].INTATTR |= (uint8_t)(trig<<CLIC_INTATTR_TRIG_Pos);
 1615              		.loc 2 474 31
 1616 0038 8564     		li	s1,4096
 1617              		.loc 2 475 31
 1618 003a 93F7F70F 		andi	a5,a5,0xff
 1619 003e 93E72700 		ori	a5,a5,2
 1620 0042 2307F400 		sb	a5,14(s0)
 1621              	.LVL136:
 1622              	.LBE104:
 1623              	.LBE107:
 866:C:/Users/stapi/OneDrive/Desktop/GD32VW553/V1_MQTT_OK/GD32VW55X_Wifi_BLE_SDK/GD32VW55x_RELEASE_V1.0.2/MSDK/plf/src\gd32vw55x_platform.c **** 
 1624              		.loc 1 866 5 is_stmt 1
 1625              	.LBB108:
 1626              	.LBB109:
 474:..\..\..\..\plf\riscv\NMSIS\Core\Include/core_feature_eclic.h ****     ECLIC->CTRL[IRQn].INTATTR |= (uint8_t)(trig<<CLIC_INTATTR_TRIG_Pos);
 1627              		.loc 2 474 5
 474:..\..\..\..\plf\riscv\NMSIS\Core\Include/core_feature_eclic.h ****     ECLIC->CTRL[IRQn].INTATTR |= (uint8_t)(trig<<CLIC_INTATTR_TRIG_Pos);
 1628              		.loc 2 474 31 is_stmt 0
 1629 0046 8347E401 		lbu	a5,30(s0)
 1630              	.LBE109:
 1631              	.LBE108:
 1632              	.LBE176:
 1633              	.LBE178:
 1634              	.LBB179:
 1635              	.LBB180:
 1636              	.LBB181:
 1637              	.LBB182:
 703:C:/Users/stapi/OneDrive/Desktop/GD32VW553/V1_MQTT_OK/GD32VW55X_Wifi_BLE_SDK/GD32VW55x_RELEASE_V1.0.2/MSDK/plf/src\gd32vw55x_platform.c ****         rcu_osci_stab_wait(RCU_IRC32K);
 1638              		.loc 1 703 9
 1639 004a 0969     		li	s2,8192
 1640              	.LBE182:
 1641              	.LBE181:
 1642              	.LBE180:
 1643              	.LBE179:
 1644              	.LBB191:
 1645              	.LBB177:
 1646              	.LBB111:
 1647              	.LBB110:
 474:..\..\..\..\plf\riscv\NMSIS\Core\Include/core_feature_eclic.h ****     ECLIC->CTRL[IRQn].INTATTR |= (uint8_t)(trig<<CLIC_INTATTR_TRIG_Pos);
 1648              		.loc 2 474 31
 1649 004c 93F7970F 		andi	a5,a5,249
 1650 0050 230FF400 		sb	a5,30(s0)
 1651              		.loc 2 475 5 is_stmt 1
 1652              		.loc 2 475 31 is_stmt 0
 1653 0054 8347E401 		lbu	a5,30(s0)
 1654 0058 93F7F70F 		andi	a5,a5,0xff
 1655 005c 93E72700 		ori	a5,a5,2
 1656 0060 230FF400 		sb	a5,30(s0)
 1657              	.LVL137:
 1658              	.LBE110:
 1659              	.LBE111:
 868:C:/Users/stapi/OneDrive/Desktop/GD32VW553/V1_MQTT_OK/GD32VW55X_Wifi_BLE_SDK/GD32VW55x_RELEASE_V1.0.2/MSDK/plf/src\gd32vw55x_platform.c **** 
 1660              		.loc 1 868 5 is_stmt 1
 1661 0064 97000000 		call	eclic_irq_enable
 1661      E7800000 
 1662              	.LVL138:
 872:C:/Users/stapi/OneDrive/Desktop/GD32VW553/V1_MQTT_OK/GD32VW55X_Wifi_BLE_SDK/GD32VW55x_RELEASE_V1.0.2/MSDK/plf/src\gd32vw55x_platform.c **** #endif
 1663              		.loc 1 872 5
 1664 006c 0146     		li	a2,0
 1665 006e A145     		li	a1,8
 1666 0070 1305A003 		li	a0,58
 1667 0074 97000000 		call	eclic_irq_enable
 1667      E7800000 
 1668              	.LVL139:
 876:C:/Users/stapi/OneDrive/Desktop/GD32VW553/V1_MQTT_OK/GD32VW55X_Wifi_BLE_SDK/GD32VW55x_RELEASE_V1.0.2/MSDK/plf/src\gd32vw55x_platform.c ****     eclic_irq_enable(EXTI5_9_IRQn, 9, 0);
 1669              		.loc 1 876 5
 1670 007c 0146     		li	a2,0
 1671 007e B145     		li	a1,12
 1672 0080 5945     		li	a0,22
 1673 0082 97000000 		call	eclic_irq_enable
 1673      E7800000 
 1674              	.LVL140:
 877:C:/Users/stapi/OneDrive/Desktop/GD32VW553/V1_MQTT_OK/GD32VW55X_Wifi_BLE_SDK/GD32VW55x_RELEASE_V1.0.2/MSDK/plf/src\gd32vw55x_platform.c **** 
 1675              		.loc 1 877 5
 1676 008a 0146     		li	a2,0
 1677 008c A545     		li	a1,9
 1678 008e 1305A002 		li	a0,42
 1679 0092 97000000 		call	eclic_irq_enable
 1679      E7800000 
 1680              	.LVL141:
 883:C:/Users/stapi/OneDrive/Desktop/GD32VW553/V1_MQTT_OK/GD32VW55X_Wifi_BLE_SDK/GD32VW55x_RELEASE_V1.0.2/MSDK/plf/src\gd32vw55x_platform.c **** }
 1681              		.loc 1 883 5
 1682              	.LBB112:
 1683              	.LBB113:
 347:C:/Users/stapi/OneDrive/Desktop/GD32VW553/V1_MQTT_OK/GD32VW55X_Wifi_BLE_SDK/GD32VW55x_RELEASE_V1.0.2/MSDK/plf/src\gd32vw55x_platform.c **** 
 1684              		.loc 1 347 5
 1685 009a 0146     		li	a2,0
 1686 009c B145     		li	a1,12
 1687 009e 13055005 		li	a0,85
 1688 00a2 97000000 		call	eclic_irq_enable
 1688      E7800000 
 1689              	.LVL142:
 350:C:/Users/stapi/OneDrive/Desktop/GD32VW553/V1_MQTT_OK/GD32VW55X_Wifi_BLE_SDK/GD32VW55x_RELEASE_V1.0.2/MSDK/plf/src\gd32vw55x_platform.c **** #endif
 1690              		.loc 1 350 5
 1691 00aa 0146     		li	a2,0
 1692 00ac A145     		li	a1,8
 1693 00ae 13058003 		li	a0,56
 1694 00b2 97000000 		call	eclic_irq_enable
 1694      E7800000 
 1695              	.LVL143:
 358:C:/Users/stapi/OneDrive/Desktop/GD32VW553/V1_MQTT_OK/GD32VW55X_Wifi_BLE_SDK/GD32VW55x_RELEASE_V1.0.2/MSDK/plf/src\gd32vw55x_platform.c **** 
 1696              		.loc 1 358 5
 1697 00ba 0146     		li	a2,0
 1698 00bc AD45     		li	a1,11
 1699 00be 1305F005 		li	a0,95
 1700 00c2 97000000 		call	eclic_irq_enable
 1700      E7800000 
 1701              	.LVL144:
 360:C:/Users/stapi/OneDrive/Desktop/GD32VW553/V1_MQTT_OK/GD32VW55X_Wifi_BLE_SDK/GD32VW55x_RELEASE_V1.0.2/MSDK/plf/src\gd32vw55x_platform.c ****     ECLIC_SetTrigIRQ(BLE_SW_TRIG_IRQn, ECLIC_POSTIVE_EDGE_TRIGGER);
 1702              		.loc 1 360 5
 1703 00ca 0146     		li	a2,0
 1704 00cc A145     		li	a1,8
 1705 00ce 13056006 		li	a0,102
 1706 00d2 97000000 		call	eclic_irq_enable
 1706      E7800000 
 1707              	.LVL145:
 361:C:/Users/stapi/OneDrive/Desktop/GD32VW553/V1_MQTT_OK/GD32VW55X_Wifi_BLE_SDK/GD32VW55x_RELEASE_V1.0.2/MSDK/plf/src\gd32vw55x_platform.c **** 
 1708              		.loc 1 361 5
 1709              	.LBB114:
 1710              	.LBB115:
 474:..\..\..\..\plf\riscv\NMSIS\Core\Include/core_feature_eclic.h ****     ECLIC->CTRL[IRQn].INTATTR |= (uint8_t)(trig<<CLIC_INTATTR_TRIG_Pos);
 1711              		.loc 2 474 5
 474:..\..\..\..\plf\riscv\NMSIS\Core\Include/core_feature_eclic.h ****     ECLIC->CTRL[IRQn].INTATTR |= (uint8_t)(trig<<CLIC_INTATTR_TRIG_Pos);
 1712              		.loc 2 474 31 is_stmt 0
 1713 00da 8347A419 		lbu	a5,410(s0)
 1714              	.LBE115:
 1715              	.LBE114:
 363:C:/Users/stapi/OneDrive/Desktop/GD32VW553/V1_MQTT_OK/GD32VW55X_Wifi_BLE_SDK/GD32VW55x_RELEASE_V1.0.2/MSDK/plf/src\gd32vw55x_platform.c ****     ECLIC_SetTrigIRQ(BLE_HALF_SLOT_IRQn, ECLIC_POSTIVE_EDGE_TRIGGER);
 1716              		.loc 1 363 5
 1717 00de 0146     		li	a2,0
 1718 00e0 A145     		li	a1,8
 1719              	.LBB118:
 1720              	.LBB116:
 474:..\..\..\..\plf\riscv\NMSIS\Core\Include/core_feature_eclic.h ****     ECLIC->CTRL[IRQn].INTATTR |= (uint8_t)(trig<<CLIC_INTATTR_TRIG_Pos);
 1721              		.loc 2 474 31
 1722 00e2 93F7970F 		andi	a5,a5,249
 1723 00e6 230DF418 		sb	a5,410(s0)
 1724              		.loc 2 475 5 is_stmt 1
 1725              		.loc 2 475 31 is_stmt 0
 1726 00ea 8347A419 		lbu	a5,410(s0)
 1727              	.LBE116:
 1728              	.LBE118:
 363:C:/Users/stapi/OneDrive/Desktop/GD32VW553/V1_MQTT_OK/GD32VW55X_Wifi_BLE_SDK/GD32VW55x_RELEASE_V1.0.2/MSDK/plf/src\gd32vw55x_platform.c ****     ECLIC_SetTrigIRQ(BLE_HALF_SLOT_IRQn, ECLIC_POSTIVE_EDGE_TRIGGER);
 1729              		.loc 1 363 5
 1730 00ee 1305D006 		li	a0,109
 1731              	.LBB119:
 1732              	.LBB117:
 1733              		.loc 2 475 31
 1734 00f2 93F7F70F 		andi	a5,a5,0xff
 1735 00f6 93E72700 		ori	a5,a5,2
 1736 00fa 230DF418 		sb	a5,410(s0)
 1737              	.LVL146:
 1738              	.LBE117:
 1739              	.LBE119:
 363:C:/Users/stapi/OneDrive/Desktop/GD32VW553/V1_MQTT_OK/GD32VW55X_Wifi_BLE_SDK/GD32VW55x_RELEASE_V1.0.2/MSDK/plf/src\gd32vw55x_platform.c ****     ECLIC_SetTrigIRQ(BLE_HALF_SLOT_IRQn, ECLIC_POSTIVE_EDGE_TRIGGER);
 1740              		.loc 1 363 5 is_stmt 1
 1741 00fe 97000000 		call	eclic_irq_enable
 1741      E7800000 
 1742              	.LVL147:
 364:C:/Users/stapi/OneDrive/Desktop/GD32VW553/V1_MQTT_OK/GD32VW55X_Wifi_BLE_SDK/GD32VW55x_RELEASE_V1.0.2/MSDK/plf/src\gd32vw55x_platform.c **** 
 1743              		.loc 1 364 5
 1744              	.LBB120:
 1745              	.LBB121:
 474:..\..\..\..\plf\riscv\NMSIS\Core\Include/core_feature_eclic.h ****     ECLIC->CTRL[IRQn].INTATTR |= (uint8_t)(trig<<CLIC_INTATTR_TRIG_Pos);
 1746              		.loc 2 474 5
 474:..\..\..\..\plf\riscv\NMSIS\Core\Include/core_feature_eclic.h ****     ECLIC->CTRL[IRQn].INTATTR |= (uint8_t)(trig<<CLIC_INTATTR_TRIG_Pos);
 1747              		.loc 2 474 31 is_stmt 0
 1748 0106 8347641B 		lbu	a5,438(s0)
 1749              	.LBE121:
 1750              	.LBE120:
 366:C:/Users/stapi/OneDrive/Desktop/GD32VW553/V1_MQTT_OK/GD32VW55X_Wifi_BLE_SDK/GD32VW55x_RELEASE_V1.0.2/MSDK/plf/src\gd32vw55x_platform.c ****     ECLIC_SetTrigIRQ(BLE_SLEEP_MODE_IRQn, ECLIC_POSTIVE_EDGE_TRIGGER);
 1751              		.loc 1 366 5
 1752 010a 0146     		li	a2,0
 1753 010c A145     		li	a1,8
 1754              	.LBB124:
 1755              	.LBB122:
 474:..\..\..\..\plf\riscv\NMSIS\Core\Include/core_feature_eclic.h ****     ECLIC->CTRL[IRQn].INTATTR |= (uint8_t)(trig<<CLIC_INTATTR_TRIG_Pos);
 1756              		.loc 2 474 31
 1757 010e 93F7970F 		andi	a5,a5,249
 1758 0112 230BF41A 		sb	a5,438(s0)
 1759              		.loc 2 475 5 is_stmt 1
 1760              		.loc 2 475 31 is_stmt 0
 1761 0116 8347641B 		lbu	a5,438(s0)
 1762              	.LBE122:
 1763              	.LBE124:
 366:C:/Users/stapi/OneDrive/Desktop/GD32VW553/V1_MQTT_OK/GD32VW55X_Wifi_BLE_SDK/GD32VW55x_RELEASE_V1.0.2/MSDK/plf/src\gd32vw55x_platform.c ****     ECLIC_SetTrigIRQ(BLE_SLEEP_MODE_IRQn, ECLIC_POSTIVE_EDGE_TRIGGER);
 1764              		.loc 1 366 5
 1765 011a 1305C006 		li	a0,108
 1766              	.LBB125:
 1767              	.LBB123:
 1768              		.loc 2 475 31
 1769 011e 93F7F70F 		andi	a5,a5,0xff
 1770 0122 93E72700 		ori	a5,a5,2
 1771 0126 230BF41A 		sb	a5,438(s0)
 1772              	.LVL148:
 1773              	.LBE123:
 1774              	.LBE125:
 366:C:/Users/stapi/OneDrive/Desktop/GD32VW553/V1_MQTT_OK/GD32VW55X_Wifi_BLE_SDK/GD32VW55x_RELEASE_V1.0.2/MSDK/plf/src\gd32vw55x_platform.c ****     ECLIC_SetTrigIRQ(BLE_SLEEP_MODE_IRQn, ECLIC_POSTIVE_EDGE_TRIGGER);
 1775              		.loc 1 366 5 is_stmt 1
 1776 012a 97000000 		call	eclic_irq_enable
 1776      E7800000 
 1777              	.LVL149:
 367:C:/Users/stapi/OneDrive/Desktop/GD32VW553/V1_MQTT_OK/GD32VW55X_Wifi_BLE_SDK/GD32VW55x_RELEASE_V1.0.2/MSDK/plf/src\gd32vw55x_platform.c **** 
 1778              		.loc 1 367 5
 1779              	.LBB126:
 1780              	.LBB127:
 474:..\..\..\..\plf\riscv\NMSIS\Core\Include/core_feature_eclic.h ****     ECLIC->CTRL[IRQn].INTATTR |= (uint8_t)(trig<<CLIC_INTATTR_TRIG_Pos);
 1781              		.loc 2 474 5
 474:..\..\..\..\plf\riscv\NMSIS\Core\Include/core_feature_eclic.h ****     ECLIC->CTRL[IRQn].INTATTR |= (uint8_t)(trig<<CLIC_INTATTR_TRIG_Pos);
 1782              		.loc 2 474 31 is_stmt 0
 1783 0132 8347241B 		lbu	a5,434(s0)
 1784              	.LBE127:
 1785              	.LBE126:
 369:C:/Users/stapi/OneDrive/Desktop/GD32VW553/V1_MQTT_OK/GD32VW55X_Wifi_BLE_SDK/GD32VW55x_RELEASE_V1.0.2/MSDK/plf/src\gd32vw55x_platform.c ****     ECLIC_SetTrigIRQ(BLE_ENCRYPTION_ENGINE_IRQn, ECLIC_POSTIVE_EDGE_TRIGGER);
 1786              		.loc 1 369 5
 1787 0136 0146     		li	a2,0
 1788 0138 A145     		li	a1,8
 1789              	.LBB130:
 1790              	.LBB128:
 474:..\..\..\..\plf\riscv\NMSIS\Core\Include/core_feature_eclic.h ****     ECLIC->CTRL[IRQn].INTATTR |= (uint8_t)(trig<<CLIC_INTATTR_TRIG_Pos);
 1791              		.loc 2 474 31
 1792 013a 93F7970F 		andi	a5,a5,249
 1793 013e 2309F41A 		sb	a5,434(s0)
 1794              		.loc 2 475 5 is_stmt 1
 1795              		.loc 2 475 31 is_stmt 0
 1796 0142 8347241B 		lbu	a5,434(s0)
 1797              	.LBE128:
 1798              	.LBE130:
 369:C:/Users/stapi/OneDrive/Desktop/GD32VW553/V1_MQTT_OK/GD32VW55X_Wifi_BLE_SDK/GD32VW55x_RELEASE_V1.0.2/MSDK/plf/src\gd32vw55x_platform.c ****     ECLIC_SetTrigIRQ(BLE_ENCRYPTION_ENGINE_IRQn, ECLIC_POSTIVE_EDGE_TRIGGER);
 1799              		.loc 1 369 5
 1800 0146 1305B006 		li	a0,107
 1801              	.LBB131:
 1802              	.LBB129:
 1803              		.loc 2 475 31
 1804 014a 93F7F70F 		andi	a5,a5,0xff
 1805 014e 93E72700 		ori	a5,a5,2
 1806 0152 2309F41A 		sb	a5,434(s0)
 1807              	.LVL150:
 1808              	.LBE129:
 1809              	.LBE131:
 369:C:/Users/stapi/OneDrive/Desktop/GD32VW553/V1_MQTT_OK/GD32VW55X_Wifi_BLE_SDK/GD32VW55x_RELEASE_V1.0.2/MSDK/plf/src\gd32vw55x_platform.c ****     ECLIC_SetTrigIRQ(BLE_ENCRYPTION_ENGINE_IRQn, ECLIC_POSTIVE_EDGE_TRIGGER);
 1810              		.loc 1 369 5 is_stmt 1
 1811 0156 97000000 		call	eclic_irq_enable
 1811      E7800000 
 1812              	.LVL151:
 370:C:/Users/stapi/OneDrive/Desktop/GD32VW553/V1_MQTT_OK/GD32VW55X_Wifi_BLE_SDK/GD32VW55x_RELEASE_V1.0.2/MSDK/plf/src\gd32vw55x_platform.c **** 
 1813              		.loc 1 370 5
 1814              	.LBB132:
 1815              	.LBB133:
 474:..\..\..\..\plf\riscv\NMSIS\Core\Include/core_feature_eclic.h ****     ECLIC->CTRL[IRQn].INTATTR |= (uint8_t)(trig<<CLIC_INTATTR_TRIG_Pos);
 1816              		.loc 2 474 5
 474:..\..\..\..\plf\riscv\NMSIS\Core\Include/core_feature_eclic.h ****     ECLIC->CTRL[IRQn].INTATTR |= (uint8_t)(trig<<CLIC_INTATTR_TRIG_Pos);
 1817              		.loc 2 474 31 is_stmt 0
 1818 015e 8347E41A 		lbu	a5,430(s0)
 1819              	.LBE133:
 1820              	.LBE132:
 372:C:/Users/stapi/OneDrive/Desktop/GD32VW553/V1_MQTT_OK/GD32VW55X_Wifi_BLE_SDK/GD32VW55x_RELEASE_V1.0.2/MSDK/plf/src\gd32vw55x_platform.c ****     ECLIC_SetTrigIRQ(BLE_FINE_TIMER_TARGET_IRQn, ECLIC_POSTIVE_EDGE_TRIGGER);
 1821              		.loc 1 372 5
 1822 0162 0146     		li	a2,0
 1823 0164 A145     		li	a1,8
 1824              	.LBB136:
 1825              	.LBB134:
 474:..\..\..\..\plf\riscv\NMSIS\Core\Include/core_feature_eclic.h ****     ECLIC->CTRL[IRQn].INTATTR |= (uint8_t)(trig<<CLIC_INTATTR_TRIG_Pos);
 1826              		.loc 2 474 31
 1827 0166 93F7970F 		andi	a5,a5,249
 1828 016a 2307F41A 		sb	a5,430(s0)
 1829              		.loc 2 475 5 is_stmt 1
 1830              		.loc 2 475 31 is_stmt 0
 1831 016e 8347E41A 		lbu	a5,430(s0)
 1832              	.LBE134:
 1833              	.LBE136:
 372:C:/Users/stapi/OneDrive/Desktop/GD32VW553/V1_MQTT_OK/GD32VW55X_Wifi_BLE_SDK/GD32VW55x_RELEASE_V1.0.2/MSDK/plf/src\gd32vw55x_platform.c ****     ECLIC_SetTrigIRQ(BLE_FINE_TIMER_TARGET_IRQn, ECLIC_POSTIVE_EDGE_TRIGGER);
 1834              		.loc 1 372 5
 1835 0172 13057006 		li	a0,103
 1836              	.LBB137:
 1837              	.LBB135:
 1838              		.loc 2 475 31
 1839 0176 93F7F70F 		andi	a5,a5,0xff
 1840 017a 93E72700 		ori	a5,a5,2
 1841 017e 2307F41A 		sb	a5,430(s0)
 1842              	.LVL152:
 1843              	.LBE135:
 1844              	.LBE137:
 372:C:/Users/stapi/OneDrive/Desktop/GD32VW553/V1_MQTT_OK/GD32VW55X_Wifi_BLE_SDK/GD32VW55x_RELEASE_V1.0.2/MSDK/plf/src\gd32vw55x_platform.c ****     ECLIC_SetTrigIRQ(BLE_FINE_TIMER_TARGET_IRQn, ECLIC_POSTIVE_EDGE_TRIGGER);
 1845              		.loc 1 372 5 is_stmt 1
 1846 0182 97000000 		call	eclic_irq_enable
 1846      E7800000 
 1847              	.LVL153:
 373:C:/Users/stapi/OneDrive/Desktop/GD32VW553/V1_MQTT_OK/GD32VW55X_Wifi_BLE_SDK/GD32VW55x_RELEASE_V1.0.2/MSDK/plf/src\gd32vw55x_platform.c **** 
 1848              		.loc 1 373 5
 1849              	.LBB138:
 1850              	.LBB139:
 474:..\..\..\..\plf\riscv\NMSIS\Core\Include/core_feature_eclic.h ****     ECLIC->CTRL[IRQn].INTATTR |= (uint8_t)(trig<<CLIC_INTATTR_TRIG_Pos);
 1851              		.loc 2 474 5
 474:..\..\..\..\plf\riscv\NMSIS\Core\Include/core_feature_eclic.h ****     ECLIC->CTRL[IRQn].INTATTR |= (uint8_t)(trig<<CLIC_INTATTR_TRIG_Pos);
 1852              		.loc 2 474 31 is_stmt 0
 1853 018a 8347E419 		lbu	a5,414(s0)
 1854              	.LBE139:
 1855              	.LBE138:
 375:C:/Users/stapi/OneDrive/Desktop/GD32VW553/V1_MQTT_OK/GD32VW55X_Wifi_BLE_SDK/GD32VW55x_RELEASE_V1.0.2/MSDK/plf/src\gd32vw55x_platform.c ****     ECLIC_SetTrigIRQ(BLE_STAMP_TARGET1_IRQn, ECLIC_POSTIVE_EDGE_TRIGGER);
 1856              		.loc 1 375 5
 1857 018e 0146     		li	a2,0
 1858 0190 A145     		li	a1,8
 1859              	.LBB142:
 1860              	.LBB140:
 474:..\..\..\..\plf\riscv\NMSIS\Core\Include/core_feature_eclic.h ****     ECLIC->CTRL[IRQn].INTATTR |= (uint8_t)(trig<<CLIC_INTATTR_TRIG_Pos);
 1861              		.loc 2 474 31
 1862 0192 93F7970F 		andi	a5,a5,249
 1863 0196 230FF418 		sb	a5,414(s0)
 1864              		.loc 2 475 5 is_stmt 1
 1865              		.loc 2 475 31 is_stmt 0
 1866 019a 8347E419 		lbu	a5,414(s0)
 1867              	.LBE140:
 1868              	.LBE142:
 375:C:/Users/stapi/OneDrive/Desktop/GD32VW553/V1_MQTT_OK/GD32VW55X_Wifi_BLE_SDK/GD32VW55x_RELEASE_V1.0.2/MSDK/plf/src\gd32vw55x_platform.c ****     ECLIC_SetTrigIRQ(BLE_STAMP_TARGET1_IRQn, ECLIC_POSTIVE_EDGE_TRIGGER);
 1869              		.loc 1 375 5
 1870 019e 13058006 		li	a0,104
 1871              	.LBB143:
 1872              	.LBB141:
 1873              		.loc 2 475 31
 1874 01a2 93F7F70F 		andi	a5,a5,0xff
 1875 01a6 93E72700 		ori	a5,a5,2
 1876 01aa 230FF418 		sb	a5,414(s0)
 1877              	.LVL154:
 1878              	.LBE141:
 1879              	.LBE143:
 375:C:/Users/stapi/OneDrive/Desktop/GD32VW553/V1_MQTT_OK/GD32VW55X_Wifi_BLE_SDK/GD32VW55x_RELEASE_V1.0.2/MSDK/plf/src\gd32vw55x_platform.c ****     ECLIC_SetTrigIRQ(BLE_STAMP_TARGET1_IRQn, ECLIC_POSTIVE_EDGE_TRIGGER);
 1880              		.loc 1 375 5 is_stmt 1
 1881 01ae 97000000 		call	eclic_irq_enable
 1881      E7800000 
 1882              	.LVL155:
 376:C:/Users/stapi/OneDrive/Desktop/GD32VW553/V1_MQTT_OK/GD32VW55X_Wifi_BLE_SDK/GD32VW55x_RELEASE_V1.0.2/MSDK/plf/src\gd32vw55x_platform.c **** 
 1883              		.loc 1 376 5
 1884              	.LBB144:
 1885              	.LBB145:
 474:..\..\..\..\plf\riscv\NMSIS\Core\Include/core_feature_eclic.h ****     ECLIC->CTRL[IRQn].INTATTR |= (uint8_t)(trig<<CLIC_INTATTR_TRIG_Pos);
 1886              		.loc 2 474 5
 474:..\..\..\..\plf\riscv\NMSIS\Core\Include/core_feature_eclic.h ****     ECLIC->CTRL[IRQn].INTATTR |= (uint8_t)(trig<<CLIC_INTATTR_TRIG_Pos);
 1887              		.loc 2 474 31 is_stmt 0
 1888 01b6 8347241A 		lbu	a5,418(s0)
 1889              	.LBE145:
 1890              	.LBE144:
 378:C:/Users/stapi/OneDrive/Desktop/GD32VW553/V1_MQTT_OK/GD32VW55X_Wifi_BLE_SDK/GD32VW55x_RELEASE_V1.0.2/MSDK/plf/src\gd32vw55x_platform.c ****     ECLIC_SetTrigIRQ(BLE_STAMP_TARGET2_IRQn, ECLIC_POSTIVE_EDGE_TRIGGER);
 1891              		.loc 1 378 5
 1892 01ba 0146     		li	a2,0
 1893 01bc A145     		li	a1,8
 1894              	.LBB148:
 1895              	.LBB146:
 474:..\..\..\..\plf\riscv\NMSIS\Core\Include/core_feature_eclic.h ****     ECLIC->CTRL[IRQn].INTATTR |= (uint8_t)(trig<<CLIC_INTATTR_TRIG_Pos);
 1896              		.loc 2 474 31
 1897 01be 93F7970F 		andi	a5,a5,249
 1898 01c2 2301F41A 		sb	a5,418(s0)
 1899              		.loc 2 475 5 is_stmt 1
 1900              		.loc 2 475 31 is_stmt 0
 1901 01c6 8347241A 		lbu	a5,418(s0)
 1902              	.LBE146:
 1903              	.LBE148:
 378:C:/Users/stapi/OneDrive/Desktop/GD32VW553/V1_MQTT_OK/GD32VW55X_Wifi_BLE_SDK/GD32VW55x_RELEASE_V1.0.2/MSDK/plf/src\gd32vw55x_platform.c ****     ECLIC_SetTrigIRQ(BLE_STAMP_TARGET2_IRQn, ECLIC_POSTIVE_EDGE_TRIGGER);
 1904              		.loc 1 378 5
 1905 01ca 13059006 		li	a0,105
 1906              	.LBB149:
 1907              	.LBB147:
 1908              		.loc 2 475 31
 1909 01ce 93F7F70F 		andi	a5,a5,0xff
 1910 01d2 93E72700 		ori	a5,a5,2
 1911 01d6 2301F41A 		sb	a5,418(s0)
 1912              	.LVL156:
 1913              	.LBE147:
 1914              	.LBE149:
 378:C:/Users/stapi/OneDrive/Desktop/GD32VW553/V1_MQTT_OK/GD32VW55X_Wifi_BLE_SDK/GD32VW55x_RELEASE_V1.0.2/MSDK/plf/src\gd32vw55x_platform.c ****     ECLIC_SetTrigIRQ(BLE_STAMP_TARGET2_IRQn, ECLIC_POSTIVE_EDGE_TRIGGER);
 1915              		.loc 1 378 5 is_stmt 1
 1916 01da 97000000 		call	eclic_irq_enable
 1916      E7800000 
 1917              	.LVL157:
 379:C:/Users/stapi/OneDrive/Desktop/GD32VW553/V1_MQTT_OK/GD32VW55X_Wifi_BLE_SDK/GD32VW55x_RELEASE_V1.0.2/MSDK/plf/src\gd32vw55x_platform.c **** 
 1918              		.loc 1 379 5
 1919              	.LBB150:
 1920              	.LBB151:
 474:..\..\..\..\plf\riscv\NMSIS\Core\Include/core_feature_eclic.h ****     ECLIC->CTRL[IRQn].INTATTR |= (uint8_t)(trig<<CLIC_INTATTR_TRIG_Pos);
 1921              		.loc 2 474 5
 474:..\..\..\..\plf\riscv\NMSIS\Core\Include/core_feature_eclic.h ****     ECLIC->CTRL[IRQn].INTATTR |= (uint8_t)(trig<<CLIC_INTATTR_TRIG_Pos);
 1922              		.loc 2 474 31 is_stmt 0
 1923 01e2 8347641A 		lbu	a5,422(s0)
 1924              	.LBE151:
 1925              	.LBE150:
 381:C:/Users/stapi/OneDrive/Desktop/GD32VW553/V1_MQTT_OK/GD32VW55X_Wifi_BLE_SDK/GD32VW55x_RELEASE_V1.0.2/MSDK/plf/src\gd32vw55x_platform.c ****     ECLIC_SetTrigIRQ(BLE_STAMP_TARGET3_IRQn, ECLIC_POSTIVE_EDGE_TRIGGER);
 1926              		.loc 1 381 5
 1927 01e6 0146     		li	a2,0
 1928 01e8 A145     		li	a1,8
 1929              	.LBB154:
 1930              	.LBB152:
 474:..\..\..\..\plf\riscv\NMSIS\Core\Include/core_feature_eclic.h ****     ECLIC->CTRL[IRQn].INTATTR |= (uint8_t)(trig<<CLIC_INTATTR_TRIG_Pos);
 1931              		.loc 2 474 31
 1932 01ea 93F7970F 		andi	a5,a5,249
 1933 01ee 2303F41A 		sb	a5,422(s0)
 1934              		.loc 2 475 5 is_stmt 1
 1935              		.loc 2 475 31 is_stmt 0
 1936 01f2 8347641A 		lbu	a5,422(s0)
 1937              	.LBE152:
 1938              	.LBE154:
 381:C:/Users/stapi/OneDrive/Desktop/GD32VW553/V1_MQTT_OK/GD32VW55X_Wifi_BLE_SDK/GD32VW55x_RELEASE_V1.0.2/MSDK/plf/src\gd32vw55x_platform.c ****     ECLIC_SetTrigIRQ(BLE_STAMP_TARGET3_IRQn, ECLIC_POSTIVE_EDGE_TRIGGER);
 1939              		.loc 1 381 5
 1940 01f6 1305A006 		li	a0,106
 1941              	.LBB155:
 1942              	.LBB153:
 1943              		.loc 2 475 31
 1944 01fa 93F7F70F 		andi	a5,a5,0xff
 1945 01fe 93E72700 		ori	a5,a5,2
 1946 0202 2303F41A 		sb	a5,422(s0)
 1947              	.LVL158:
 1948              	.LBE153:
 1949              	.LBE155:
 381:C:/Users/stapi/OneDrive/Desktop/GD32VW553/V1_MQTT_OK/GD32VW55X_Wifi_BLE_SDK/GD32VW55x_RELEASE_V1.0.2/MSDK/plf/src\gd32vw55x_platform.c ****     ECLIC_SetTrigIRQ(BLE_STAMP_TARGET3_IRQn, ECLIC_POSTIVE_EDGE_TRIGGER);
 1950              		.loc 1 381 5 is_stmt 1
 1951 0206 97000000 		call	eclic_irq_enable
 1951      E7800000 
 1952              	.LVL159:
 382:C:/Users/stapi/OneDrive/Desktop/GD32VW553/V1_MQTT_OK/GD32VW55X_Wifi_BLE_SDK/GD32VW55x_RELEASE_V1.0.2/MSDK/plf/src\gd32vw55x_platform.c **** 
 1953              		.loc 1 382 5
 1954              	.LBB156:
 1955              	.LBB157:
 474:..\..\..\..\plf\riscv\NMSIS\Core\Include/core_feature_eclic.h ****     ECLIC->CTRL[IRQn].INTATTR |= (uint8_t)(trig<<CLIC_INTATTR_TRIG_Pos);
 1956              		.loc 2 474 5
 474:..\..\..\..\plf\riscv\NMSIS\Core\Include/core_feature_eclic.h ****     ECLIC->CTRL[IRQn].INTATTR |= (uint8_t)(trig<<CLIC_INTATTR_TRIG_Pos);
 1957              		.loc 2 474 31 is_stmt 0
 1958 020e 8347A41A 		lbu	a5,426(s0)
 1959              	.LBE157:
 1960              	.LBE156:
 384:C:/Users/stapi/OneDrive/Desktop/GD32VW553/V1_MQTT_OK/GD32VW55X_Wifi_BLE_SDK/GD32VW55x_RELEASE_V1.0.2/MSDK/plf/src\gd32vw55x_platform.c ****     ECLIC_SetTrigIRQ(BLE_FREQ_SELECT_IRQn, ECLIC_POSTIVE_EDGE_TRIGGER);
 1961              		.loc 1 384 5
 1962 0212 0146     		li	a2,0
 1963 0214 A145     		li	a1,8
 1964              	.LBB160:
 1965              	.LBB158:
 474:..\..\..\..\plf\riscv\NMSIS\Core\Include/core_feature_eclic.h ****     ECLIC->CTRL[IRQn].INTATTR |= (uint8_t)(trig<<CLIC_INTATTR_TRIG_Pos);
 1966              		.loc 2 474 31
 1967 0216 93F7970F 		andi	a5,a5,249
 1968 021a 2305F41A 		sb	a5,426(s0)
 1969              		.loc 2 475 5 is_stmt 1
 1970              		.loc 2 475 31 is_stmt 0
 1971 021e 8347A41A 		lbu	a5,426(s0)
 1972              	.LBE158:
 1973              	.LBE160:
 384:C:/Users/stapi/OneDrive/Desktop/GD32VW553/V1_MQTT_OK/GD32VW55X_Wifi_BLE_SDK/GD32VW55x_RELEASE_V1.0.2/MSDK/plf/src\gd32vw55x_platform.c ****     ECLIC_SetTrigIRQ(BLE_FREQ_SELECT_IRQn, ECLIC_POSTIVE_EDGE_TRIGGER);
 1974              		.loc 1 384 5
 1975 0222 13050007 		li	a0,112
 1976              	.LBB161:
 1977              	.LBB159:
 1978              		.loc 2 475 31
 1979 0226 93F7F70F 		andi	a5,a5,0xff
 1980 022a 93E72700 		ori	a5,a5,2
 1981 022e 2305F41A 		sb	a5,426(s0)
 1982              	.LVL160:
 1983              	.LBE159:
 1984              	.LBE161:
 384:C:/Users/stapi/OneDrive/Desktop/GD32VW553/V1_MQTT_OK/GD32VW55X_Wifi_BLE_SDK/GD32VW55x_RELEASE_V1.0.2/MSDK/plf/src\gd32vw55x_platform.c ****     ECLIC_SetTrigIRQ(BLE_FREQ_SELECT_IRQn, ECLIC_POSTIVE_EDGE_TRIGGER);
 1985              		.loc 1 384 5 is_stmt 1
 1986 0232 97000000 		call	eclic_irq_enable
 1986      E7800000 
 1987              	.LVL161:
 385:C:/Users/stapi/OneDrive/Desktop/GD32VW553/V1_MQTT_OK/GD32VW55X_Wifi_BLE_SDK/GD32VW55x_RELEASE_V1.0.2/MSDK/plf/src\gd32vw55x_platform.c **** 
 1988              		.loc 1 385 5
 1989              	.LBB162:
 1990              	.LBB163:
 474:..\..\..\..\plf\riscv\NMSIS\Core\Include/core_feature_eclic.h ****     ECLIC->CTRL[IRQn].INTATTR |= (uint8_t)(trig<<CLIC_INTATTR_TRIG_Pos);
 1991              		.loc 2 474 5
 474:..\..\..\..\plf\riscv\NMSIS\Core\Include/core_feature_eclic.h ****     ECLIC->CTRL[IRQn].INTATTR |= (uint8_t)(trig<<CLIC_INTATTR_TRIG_Pos);
 1992              		.loc 2 474 31 is_stmt 0
 1993 023a 8347241C 		lbu	a5,450(s0)
 1994              	.LBE163:
 1995              	.LBE162:
 387:C:/Users/stapi/OneDrive/Desktop/GD32VW553/V1_MQTT_OK/GD32VW55X_Wifi_BLE_SDK/GD32VW55x_RELEASE_V1.0.2/MSDK/plf/src\gd32vw55x_platform.c ****     ECLIC_SetTrigIRQ(BLE_ERROR_IRQn, ECLIC_POSTIVE_EDGE_TRIGGER);
 1996              		.loc 1 387 5
 1997 023e 0146     		li	a2,0
 1998 0240 A145     		li	a1,8
 1999              	.LBB166:
 2000              	.LBB164:
 474:..\..\..\..\plf\riscv\NMSIS\Core\Include/core_feature_eclic.h ****     ECLIC->CTRL[IRQn].INTATTR |= (uint8_t)(trig<<CLIC_INTATTR_TRIG_Pos);
 2001              		.loc 2 474 31
 2002 0242 93F7970F 		andi	a5,a5,249
 2003 0246 2301F41C 		sb	a5,450(s0)
 2004              		.loc 2 475 5 is_stmt 1
 2005              		.loc 2 475 31 is_stmt 0
 2006 024a 8347241C 		lbu	a5,450(s0)
 2007              	.LBE164:
 2008              	.LBE166:
 387:C:/Users/stapi/OneDrive/Desktop/GD32VW553/V1_MQTT_OK/GD32VW55X_Wifi_BLE_SDK/GD32VW55x_RELEASE_V1.0.2/MSDK/plf/src\gd32vw55x_platform.c ****     ECLIC_SetTrigIRQ(BLE_ERROR_IRQn, ECLIC_POSTIVE_EDGE_TRIGGER);
 2009              		.loc 1 387 5
 2010 024e 1305F006 		li	a0,111
 2011              	.LBB167:
 2012              	.LBB165:
 2013              		.loc 2 475 31
 2014 0252 93F7F70F 		andi	a5,a5,0xff
 2015 0256 93E72700 		ori	a5,a5,2
 2016 025a 2301F41C 		sb	a5,450(s0)
 2017              	.LVL162:
 2018              	.LBE165:
 2019              	.LBE167:
 387:C:/Users/stapi/OneDrive/Desktop/GD32VW553/V1_MQTT_OK/GD32VW55X_Wifi_BLE_SDK/GD32VW55x_RELEASE_V1.0.2/MSDK/plf/src\gd32vw55x_platform.c ****     ECLIC_SetTrigIRQ(BLE_ERROR_IRQn, ECLIC_POSTIVE_EDGE_TRIGGER);
 2020              		.loc 1 387 5 is_stmt 1
 2021 025e 97000000 		call	eclic_irq_enable
 2021      E7800000 
 2022              	.LVL163:
 388:C:/Users/stapi/OneDrive/Desktop/GD32VW553/V1_MQTT_OK/GD32VW55X_Wifi_BLE_SDK/GD32VW55x_RELEASE_V1.0.2/MSDK/plf/src\gd32vw55x_platform.c **** 
 2023              		.loc 1 388 5
 2024              	.LBB168:
 2025              	.LBB169:
 474:..\..\..\..\plf\riscv\NMSIS\Core\Include/core_feature_eclic.h ****     ECLIC->CTRL[IRQn].INTATTR |= (uint8_t)(trig<<CLIC_INTATTR_TRIG_Pos);
 2026              		.loc 2 474 5
 474:..\..\..\..\plf\riscv\NMSIS\Core\Include/core_feature_eclic.h ****     ECLIC->CTRL[IRQn].INTATTR |= (uint8_t)(trig<<CLIC_INTATTR_TRIG_Pos);
 2027              		.loc 2 474 31 is_stmt 0
 2028 0266 8347E41B 		lbu	a5,446(s0)
 2029              	.LBE169:
 2030              	.LBE168:
 390:C:/Users/stapi/OneDrive/Desktop/GD32VW553/V1_MQTT_OK/GD32VW55X_Wifi_BLE_SDK/GD32VW55x_RELEASE_V1.0.2/MSDK/plf/src\gd32vw55x_platform.c ****     ECLIC_SetTrigIRQ(BLE_FIFO_ACTIVITY_IRQn, ECLIC_POSTIVE_EDGE_TRIGGER);
 2031              		.loc 1 390 5
 2032 026a 0146     		li	a2,0
 2033 026c A145     		li	a1,8
 2034              	.LBB172:
 2035              	.LBB170:
 474:..\..\..\..\plf\riscv\NMSIS\Core\Include/core_feature_eclic.h ****     ECLIC->CTRL[IRQn].INTATTR |= (uint8_t)(trig<<CLIC_INTATTR_TRIG_Pos);
 2036              		.loc 2 474 31
 2037 026e 93F7970F 		andi	a5,a5,249
 2038 0272 230FF41A 		sb	a5,446(s0)
 2039              		.loc 2 475 5 is_stmt 1
 2040              		.loc 2 475 31 is_stmt 0
 2041 0276 8347E41B 		lbu	a5,446(s0)
 2042              	.LBE170:
 2043              	.LBE172:
 390:C:/Users/stapi/OneDrive/Desktop/GD32VW553/V1_MQTT_OK/GD32VW55X_Wifi_BLE_SDK/GD32VW55x_RELEASE_V1.0.2/MSDK/plf/src\gd32vw55x_platform.c ****     ECLIC_SetTrigIRQ(BLE_FIFO_ACTIVITY_IRQn, ECLIC_POSTIVE_EDGE_TRIGGER);
 2044              		.loc 1 390 5
 2045 027a 1305E006 		li	a0,110
 2046              	.LBB173:
 2047              	.LBB171:
 2048              		.loc 2 475 31
 2049 027e 93F7F70F 		andi	a5,a5,0xff
 2050 0282 93E72700 		ori	a5,a5,2
 2051 0286 230FF41A 		sb	a5,446(s0)
 2052              	.LVL164:
 2053              	.LBE171:
 2054              	.LBE173:
 390:C:/Users/stapi/OneDrive/Desktop/GD32VW553/V1_MQTT_OK/GD32VW55X_Wifi_BLE_SDK/GD32VW55x_RELEASE_V1.0.2/MSDK/plf/src\gd32vw55x_platform.c ****     ECLIC_SetTrigIRQ(BLE_FIFO_ACTIVITY_IRQn, ECLIC_POSTIVE_EDGE_TRIGGER);
 2055              		.loc 1 390 5 is_stmt 1
 2056 028a 97000000 		call	eclic_irq_enable
 2056      E7800000 
 2057              	.LVL165:
 391:C:/Users/stapi/OneDrive/Desktop/GD32VW553/V1_MQTT_OK/GD32VW55X_Wifi_BLE_SDK/GD32VW55x_RELEASE_V1.0.2/MSDK/plf/src\gd32vw55x_platform.c **** }
 2058              		.loc 1 391 5
 2059              	.LBB174:
 2060              	.LBB175:
 474:..\..\..\..\plf\riscv\NMSIS\Core\Include/core_feature_eclic.h ****     ECLIC->CTRL[IRQn].INTATTR |= (uint8_t)(trig<<CLIC_INTATTR_TRIG_Pos);
 2061              		.loc 2 474 5
 474:..\..\..\..\plf\riscv\NMSIS\Core\Include/core_feature_eclic.h ****     ECLIC->CTRL[IRQn].INTATTR |= (uint8_t)(trig<<CLIC_INTATTR_TRIG_Pos);
 2062              		.loc 2 474 31 is_stmt 0
 2063 0292 8347A41B 		lbu	a5,442(s0)
 2064 0296 93F7970F 		andi	a5,a5,249
 2065 029a 230DF41A 		sb	a5,442(s0)
 2066              		.loc 2 475 5 is_stmt 1
 2067              		.loc 2 475 31 is_stmt 0
 2068 029e 8347A41B 		lbu	a5,442(s0)
 2069 02a2 93F7F70F 		andi	a5,a5,0xff
 2070 02a6 93E72700 		ori	a5,a5,2
 2071 02aa 230DF41A 		sb	a5,442(s0)
 2072              	.LVL166:
 2073              	.LBE175:
 2074              	.LBE174:
 2075              	.LBE113:
 2076              	.LBE112:
 2077              	.LBE177:
 2078              	.LBE191:
 889:C:/Users/stapi/OneDrive/Desktop/GD32VW553/V1_MQTT_OK/GD32VW55X_Wifi_BLE_SDK/GD32VW55x_RELEASE_V1.0.2/MSDK/plf/src\gd32vw55x_platform.c ****     systick_init();
 2079              		.loc 1 889 5 is_stmt 1
 2080 02ae 97000000 		call	systick_init
 2080      E7800000 
 2081              	.LVL167:
 890:C:/Users/stapi/OneDrive/Desktop/GD32VW553/V1_MQTT_OK/GD32VW55X_Wifi_BLE_SDK/GD32VW55x_RELEASE_V1.0.2/MSDK/plf/src\gd32vw55x_platform.c ****     platform_uart_init();
 2082              		.loc 1 890 5
 2083              	.LBB192:
 2084              	.LBB193:
 845:C:/Users/stapi/OneDrive/Desktop/GD32VW553/V1_MQTT_OK/GD32VW55X_Wifi_BLE_SDK/GD32VW55x_RELEASE_V1.0.2/MSDK/plf/src\gd32vw55x_platform.c **** 
 2085              		.loc 1 845 5
 2086 02b6 97000000 		call	uart_driver_init
 2086      E7800000 
 2087              	.LVL168:
 847:C:/Users/stapi/OneDrive/Desktop/GD32VW553/V1_MQTT_OK/GD32VW55X_Wifi_BLE_SDK/GD32VW55x_RELEASE_V1.0.2/MSDK/plf/src\gd32vw55x_platform.c **** 
 2088              		.loc 1 847 5
 2089 02be 97000000 		call	log_uart_init
 2089      E7800000 
 2090              	.LVL169:
 2091              	.LBE193:
 2092              	.LBE192:
 891:C:/Users/stapi/OneDrive/Desktop/GD32VW553/V1_MQTT_OK/GD32VW55X_Wifi_BLE_SDK/GD32VW55x_RELEASE_V1.0.2/MSDK/plf/src\gd32vw55x_platform.c **** 
 892:C:/Users/stapi/OneDrive/Desktop/GD32VW553/V1_MQTT_OK/GD32VW55X_Wifi_BLE_SDK/GD32VW55x_RELEASE_V1.0.2/MSDK/plf/src\gd32vw55x_platform.c **** #ifdef CONFIG_RF_TEST_SUPPORT
 893:C:/Users/stapi/OneDrive/Desktop/GD32VW553/V1_MQTT_OK/GD32VW55X_Wifi_BLE_SDK/GD32VW55x_RELEASE_V1.0.2/MSDK/plf/src\gd32vw55x_platform.c ****     printf("This firmware is for WiFi & BLE rf test.\r\n");
 894:C:/Users/stapi/OneDrive/Desktop/GD32VW553/V1_MQTT_OK/GD32VW55X_Wifi_BLE_SDK/GD32VW55x_RELEASE_V1.0.2/MSDK/plf/src\gd32vw55x_platform.c **** #endif
 895:C:/Users/stapi/OneDrive/Desktop/GD32VW553/V1_MQTT_OK/GD32VW55X_Wifi_BLE_SDK/GD32VW55x_RELEASE_V1.0.2/MSDK/plf/src\gd32vw55x_platform.c **** #ifdef CONFIG_SIGNALING_TEST_SUPPORT
 896:C:/Users/stapi/OneDrive/Desktop/GD32VW553/V1_MQTT_OK/GD32VW55X_Wifi_BLE_SDK/GD32VW55x_RELEASE_V1.0.2/MSDK/plf/src\gd32vw55x_platform.c ****     printf("This firmware is for WiFi signaling test.\r\n");
 897:C:/Users/stapi/OneDrive/Desktop/GD32VW553/V1_MQTT_OK/GD32VW55X_Wifi_BLE_SDK/GD32VW55x_RELEASE_V1.0.2/MSDK/plf/src\gd32vw55x_platform.c **** #endif
 898:C:/Users/stapi/OneDrive/Desktop/GD32VW553/V1_MQTT_OK/GD32VW55X_Wifi_BLE_SDK/GD32VW55x_RELEASE_V1.0.2/MSDK/plf/src\gd32vw55x_platform.c **** #ifdef CONFIG_BLE_DTM_SUPPORT
 899:C:/Users/stapi/OneDrive/Desktop/GD32VW553/V1_MQTT_OK/GD32VW55X_Wifi_BLE_SDK/GD32VW55x_RELEASE_V1.0.2/MSDK/plf/src\gd32vw55x_platform.c ****     printf("This firmware is for BLE DTM Signaling test\r\n");
 900:C:/Users/stapi/OneDrive/Desktop/GD32VW553/V1_MQTT_OK/GD32VW55X_Wifi_BLE_SDK/GD32VW55x_RELEASE_V1.0.2/MSDK/plf/src\gd32vw55x_platform.c **** #endif
 901:C:/Users/stapi/OneDrive/Desktop/GD32VW553/V1_MQTT_OK/GD32VW55X_Wifi_BLE_SDK/GD32VW55x_RELEASE_V1.0.2/MSDK/plf/src\gd32vw55x_platform.c **** 
 902:C:/Users/stapi/OneDrive/Desktop/GD32VW553/V1_MQTT_OK/GD32VW55X_Wifi_BLE_SDK/GD32VW55x_RELEASE_V1.0.2/MSDK/plf/src\gd32vw55x_platform.c ****     rcu_periph_clock_enable(RCU_PMU);
 2093              		.loc 1 902 5
 2094 02c6 1385C401 		addi	a0,s1,28
 2095 02ca 97000000 		call	rcu_periph_clock_enable
 2095      E7800000 
 2096              	.LVL170:
 903:C:/Users/stapi/OneDrive/Desktop/GD32VW553/V1_MQTT_OK/GD32VW55X_Wifi_BLE_SDK/GD32VW55x_RELEASE_V1.0.2/MSDK/plf/src\gd32vw55x_platform.c ****     rtc_32k_config();
 2097              		.loc 1 903 5
 2098              	.LBB194:
 2099              	.LBB189:
 819:C:/Users/stapi/OneDrive/Desktop/GD32VW553/V1_MQTT_OK/GD32VW55X_Wifi_BLE_SDK/GD32VW55x_RELEASE_V1.0.2/MSDK/plf/src\gd32vw55x_platform.c ****     pmu_backup_write_enable();
 2100              		.loc 1 819 5
 2101 02d2 1385C401 		addi	a0,s1,28
 2102 02d6 97000000 		call	rcu_periph_clock_enable
 2102      E7800000 
 2103              	.LVL171:
 820:C:/Users/stapi/OneDrive/Desktop/GD32VW553/V1_MQTT_OK/GD32VW55X_Wifi_BLE_SDK/GD32VW55x_RELEASE_V1.0.2/MSDK/plf/src\gd32vw55x_platform.c **** 
 2104              		.loc 1 820 5
 2105 02de 97000000 		call	pmu_backup_write_enable
 2105      E7800000 
 2106              	.LVL172:
 822:C:/Users/stapi/OneDrive/Desktop/GD32VW553/V1_MQTT_OK/GD32VW55X_Wifi_BLE_SDK/GD32VW55x_RELEASE_V1.0.2/MSDK/plf/src\gd32vw55x_platform.c ****     // /* 32K clock selection */
 2107              		.loc 1 822 5
 2108              	.LBB184:
 2109              	.LBB183:
 703:C:/Users/stapi/OneDrive/Desktop/GD32VW553/V1_MQTT_OK/GD32VW55X_Wifi_BLE_SDK/GD32VW55x_RELEASE_V1.0.2/MSDK/plf/src\gd32vw55x_platform.c ****         rcu_osci_stab_wait(RCU_IRC32K);
 2110              		.loc 1 703 9
 2111 02e6 130509D0 		addi	a0,s2,-768
 2112 02ea 97000000 		call	rcu_osci_on
 2112      E7800000 
 2113              	.LVL173:
 704:C:/Users/stapi/OneDrive/Desktop/GD32VW553/V1_MQTT_OK/GD32VW55X_Wifi_BLE_SDK/GD32VW55x_RELEASE_V1.0.2/MSDK/plf/src\gd32vw55x_platform.c ****         rcu_rtc_clock_config(RCU_RTCSRC_IRC32K);
 2114              		.loc 1 704 9
 2115 02f2 130509D0 		addi	a0,s2,-768
 2116 02f6 97000000 		call	rcu_osci_stab_wait
 2116      E7800000 
 2117              	.LVL174:
 705:C:/Users/stapi/OneDrive/Desktop/GD32VW553/V1_MQTT_OK/GD32VW55X_Wifi_BLE_SDK/GD32VW55x_RELEASE_V1.0.2/MSDK/plf/src\gd32vw55x_platform.c **** 
 2118              		.loc 1 705 9
 2119 02fe 13050020 		li	a0,512
 2120 0302 97000000 		call	rcu_rtc_clock_config
 2120      E7800000 
 2121              	.LVL175:
 707:C:/Users/stapi/OneDrive/Desktop/GD32VW553/V1_MQTT_OK/GD32VW55X_Wifi_BLE_SDK/GD32VW55x_RELEASE_V1.0.2/MSDK/plf/src\gd32vw55x_platform.c ****         prescaler_a = 0x1F;  // 0x63;
 2122              		.loc 1 707 9
 707:C:/Users/stapi/OneDrive/Desktop/GD32VW553/V1_MQTT_OK/GD32VW55X_Wifi_BLE_SDK/GD32VW55x_RELEASE_V1.0.2/MSDK/plf/src\gd32vw55x_platform.c ****         prescaler_a = 0x1F;  // 0x63;
 2123              		.loc 1 707 21 is_stmt 0
 2124 030a 37040000 		lui	s0,%hi(.LANCHOR0)
 2125 030e 13040400 		addi	s0,s0,%lo(.LANCHOR0)
 2126 0312 9307703E 		li	a5,999
 708:C:/Users/stapi/OneDrive/Desktop/GD32VW553/V1_MQTT_OK/GD32VW55X_Wifi_BLE_SDK/GD32VW55x_RELEASE_V1.0.2/MSDK/plf/src\gd32vw55x_platform.c ****     #elif defined(RTC_CLOCK_SOURCE_LXTAL)
 2127              		.loc 1 708 21
 2128 0316 B7040000 		lui	s1,%hi(.LANCHOR1)
 707:C:/Users/stapi/OneDrive/Desktop/GD32VW553/V1_MQTT_OK/GD32VW55X_Wifi_BLE_SDK/GD32VW55x_RELEASE_V1.0.2/MSDK/plf/src\gd32vw55x_platform.c ****         prescaler_a = 0x1F;  // 0x63;
 2129              		.loc 1 707 21
 2130 031a 1CC0     		sw	a5,0(s0)
 708:C:/Users/stapi/OneDrive/Desktop/GD32VW553/V1_MQTT_OK/GD32VW55X_Wifi_BLE_SDK/GD32VW55x_RELEASE_V1.0.2/MSDK/plf/src\gd32vw55x_platform.c ****     #elif defined(RTC_CLOCK_SOURCE_LXTAL)
 2131              		.loc 1 708 9 is_stmt 1
 708:C:/Users/stapi/OneDrive/Desktop/GD32VW553/V1_MQTT_OK/GD32VW55X_Wifi_BLE_SDK/GD32VW55x_RELEASE_V1.0.2/MSDK/plf/src\gd32vw55x_platform.c ****     #elif defined(RTC_CLOCK_SOURCE_LXTAL)
 2132              		.loc 1 708 21 is_stmt 0
 2133 031c 93840400 		addi	s1,s1,%lo(.LANCHOR1)
 2134 0320 FD47     		li	a5,31
 729:C:/Users/stapi/OneDrive/Desktop/GD32VW553/V1_MQTT_OK/GD32VW55X_Wifi_BLE_SDK/GD32VW55x_RELEASE_V1.0.2/MSDK/plf/src\gd32vw55x_platform.c ****     rtc_register_sync_wait();
 2135              		.loc 1 729 5
 2136 0322 1305F9C0 		addi	a0,s2,-1009
 708:C:/Users/stapi/OneDrive/Desktop/GD32VW553/V1_MQTT_OK/GD32VW55X_Wifi_BLE_SDK/GD32VW55x_RELEASE_V1.0.2/MSDK/plf/src\gd32vw55x_platform.c ****     #elif defined(RTC_CLOCK_SOURCE_LXTAL)
 2137              		.loc 1 708 21
 2138 0326 9CC0     		sw	a5,0(s1)
 729:C:/Users/stapi/OneDrive/Desktop/GD32VW553/V1_MQTT_OK/GD32VW55X_Wifi_BLE_SDK/GD32VW55x_RELEASE_V1.0.2/MSDK/plf/src\gd32vw55x_platform.c ****     rtc_register_sync_wait();
 2139              		.loc 1 729 5 is_stmt 1
 2140 0328 97000000 		call	rcu_periph_clock_enable
 2140      E7800000 
 2141              	.LVL176:
 730:C:/Users/stapi/OneDrive/Desktop/GD32VW553/V1_MQTT_OK/GD32VW55X_Wifi_BLE_SDK/GD32VW55x_RELEASE_V1.0.2/MSDK/plf/src\gd32vw55x_platform.c **** }
 2142              		.loc 1 730 5
 2143 0330 97000000 		call	rtc_register_sync_wait
 2143      E7800000 
 2144              	.LVL177:
 2145              	.LBE183:
 2146              	.LBE184:
 826:C:/Users/stapi/OneDrive/Desktop/GD32VW553/V1_MQTT_OK/GD32VW55X_Wifi_BLE_SDK/GD32VW55x_RELEASE_V1.0.2/MSDK/plf/src\gd32vw55x_platform.c ****     rtc_setup();
 2147              		.loc 1 826 5
 2148 0338 97000000 		call	rtc_deinit
 2148      E7800000 
 2149              	.LVL178:
 827:C:/Users/stapi/OneDrive/Desktop/GD32VW553/V1_MQTT_OK/GD32VW55X_Wifi_BLE_SDK/GD32VW55x_RELEASE_V1.0.2/MSDK/plf/src\gd32vw55x_platform.c **** 
 2150              		.loc 1 827 5
 2151              	.LBB185:
 2152              	.LBB186:
 785:C:/Users/stapi/OneDrive/Desktop/GD32VW553/V1_MQTT_OK/GD32VW55X_Wifi_BLE_SDK/GD32VW55x_RELEASE_V1.0.2/MSDK/plf/src\gd32vw55x_platform.c **** 
 2153              		.loc 1 785 5
 788:C:/Users/stapi/OneDrive/Desktop/GD32VW553/V1_MQTT_OK/GD32VW55X_Wifi_BLE_SDK/GD32VW55x_RELEASE_V1.0.2/MSDK/plf/src\gd32vw55x_platform.c **** 
 2154              		.loc 1 788 5
 790:C:/Users/stapi/OneDrive/Desktop/GD32VW553/V1_MQTT_OK/GD32VW55X_Wifi_BLE_SDK/GD32VW55x_RELEASE_V1.0.2/MSDK/plf/src\gd32vw55x_platform.c ****     rtc_initpara.factor_syn = prescaler_s;
 2155              		.loc 1 790 5
 790:C:/Users/stapi/OneDrive/Desktop/GD32VW553/V1_MQTT_OK/GD32VW55X_Wifi_BLE_SDK/GD32VW55x_RELEASE_V1.0.2/MSDK/plf/src\gd32vw55x_platform.c ****     rtc_initpara.factor_syn = prescaler_s;
 2156              		.loc 1 790 30 is_stmt 0
 2157 0340 9C40     		lw	a5,0(s1)
 803:C:/Users/stapi/OneDrive/Desktop/GD32VW553/V1_MQTT_OK/GD32VW55X_Wifi_BLE_SDK/GD32VW55x_RELEASE_V1.0.2/MSDK/plf/src\gd32vw55x_platform.c ****         printf("RTC time configuration failed!\r\n");
 2158              		.loc 1 803 18
 2159 0342 6800     		addi	a0,sp,12
 796:C:/Users/stapi/OneDrive/Desktop/GD32VW553/V1_MQTT_OK/GD32VW55X_Wifi_BLE_SDK/GD32VW55x_RELEASE_V1.0.2/MSDK/plf/src\gd32vw55x_platform.c ****     rtc_initpara.am_pm = RTC_AM;
 2160              		.loc 1 796 33
 2161 0344 02CE     		sw	zero,28(sp)
 790:C:/Users/stapi/OneDrive/Desktop/GD32VW553/V1_MQTT_OK/GD32VW55X_Wifi_BLE_SDK/GD32VW55x_RELEASE_V1.0.2/MSDK/plf/src\gd32vw55x_platform.c ****     rtc_initpara.factor_syn = prescaler_s;
 2162              		.loc 1 790 30
 2163 0346 231AF100 		sh	a5,20(sp)
 791:C:/Users/stapi/OneDrive/Desktop/GD32VW553/V1_MQTT_OK/GD32VW55X_Wifi_BLE_SDK/GD32VW55x_RELEASE_V1.0.2/MSDK/plf/src\gd32vw55x_platform.c ****     rtc_initpara.year = 0x20;
 2164              		.loc 1 791 5 is_stmt 1
 791:C:/Users/stapi/OneDrive/Desktop/GD32VW553/V1_MQTT_OK/GD32VW55X_Wifi_BLE_SDK/GD32VW55x_RELEASE_V1.0.2/MSDK/plf/src\gd32vw55x_platform.c ****     rtc_initpara.year = 0x20;
 2165              		.loc 1 791 29 is_stmt 0
 2166 034a 1C40     		lw	a5,0(s0)
 797:C:/Users/stapi/OneDrive/Desktop/GD32VW553/V1_MQTT_OK/GD32VW55X_Wifi_BLE_SDK/GD32VW55x_RELEASE_V1.0.2/MSDK/plf/src\gd32vw55x_platform.c ****     rtc_initpara.hour = tmp_hh;
 2167              		.loc 1 797 24
 2168 034c 02CC     		sw	zero,24(sp)
 798:C:/Users/stapi/OneDrive/Desktop/GD32VW553/V1_MQTT_OK/GD32VW55X_Wifi_BLE_SDK/GD32VW55x_RELEASE_V1.0.2/MSDK/plf/src\gd32vw55x_platform.c ****     rtc_initpara.minute = tmp_mm;
 2169              		.loc 1 798 23
 2170 034e 23180100 		sh	zero,16(sp)
 791:C:/Users/stapi/OneDrive/Desktop/GD32VW553/V1_MQTT_OK/GD32VW55X_Wifi_BLE_SDK/GD32VW55x_RELEASE_V1.0.2/MSDK/plf/src\gd32vw55x_platform.c ****     rtc_initpara.year = 0x20;
 2171              		.loc 1 791 29
 2172 0352 231BF100 		sh	a5,22(sp)
 792:C:/Users/stapi/OneDrive/Desktop/GD32VW553/V1_MQTT_OK/GD32VW55X_Wifi_BLE_SDK/GD32VW55x_RELEASE_V1.0.2/MSDK/plf/src\gd32vw55x_platform.c ****     rtc_initpara.day_of_week = RTC_MONDAY;
 2173              		.loc 1 792 5 is_stmt 1
 793:C:/Users/stapi/OneDrive/Desktop/GD32VW553/V1_MQTT_OK/GD32VW55X_Wifi_BLE_SDK/GD32VW55x_RELEASE_V1.0.2/MSDK/plf/src\gd32vw55x_platform.c ****     rtc_initpara.month = RTC_NOV;
 2174              		.loc 1 793 5
 794:C:/Users/stapi/OneDrive/Desktop/GD32VW553/V1_MQTT_OK/GD32VW55X_Wifi_BLE_SDK/GD32VW55x_RELEASE_V1.0.2/MSDK/plf/src\gd32vw55x_platform.c ****     rtc_initpara.date = 0x2;
 2175              		.loc 1 794 5
 795:C:/Users/stapi/OneDrive/Desktop/GD32VW553/V1_MQTT_OK/GD32VW55X_Wifi_BLE_SDK/GD32VW55x_RELEASE_V1.0.2/MSDK/plf/src\gd32vw55x_platform.c ****     rtc_initpara.display_format = RTC_24HOUR;
 2176              		.loc 1 795 5
 796:C:/Users/stapi/OneDrive/Desktop/GD32VW553/V1_MQTT_OK/GD32VW55X_Wifi_BLE_SDK/GD32VW55x_RELEASE_V1.0.2/MSDK/plf/src\gd32vw55x_platform.c ****     rtc_initpara.am_pm = RTC_AM;
 2177              		.loc 1 796 5
 797:C:/Users/stapi/OneDrive/Desktop/GD32VW553/V1_MQTT_OK/GD32VW55X_Wifi_BLE_SDK/GD32VW55x_RELEASE_V1.0.2/MSDK/plf/src\gd32vw55x_platform.c ****     rtc_initpara.hour = tmp_hh;
 2178              		.loc 1 797 5
 798:C:/Users/stapi/OneDrive/Desktop/GD32VW553/V1_MQTT_OK/GD32VW55X_Wifi_BLE_SDK/GD32VW55x_RELEASE_V1.0.2/MSDK/plf/src\gd32vw55x_platform.c ****     rtc_initpara.minute = tmp_mm;
 2179              		.loc 1 798 5
 799:C:/Users/stapi/OneDrive/Desktop/GD32VW553/V1_MQTT_OK/GD32VW55X_Wifi_BLE_SDK/GD32VW55x_RELEASE_V1.0.2/MSDK/plf/src\gd32vw55x_platform.c ****     rtc_initpara.second = tmp_ss;
 2180              		.loc 1 799 5
 800:C:/Users/stapi/OneDrive/Desktop/GD32VW553/V1_MQTT_OK/GD32VW55X_Wifi_BLE_SDK/GD32VW55x_RELEASE_V1.0.2/MSDK/plf/src\gd32vw55x_platform.c **** 
 2181              		.loc 1 800 5
 792:C:/Users/stapi/OneDrive/Desktop/GD32VW553/V1_MQTT_OK/GD32VW55X_Wifi_BLE_SDK/GD32VW55x_RELEASE_V1.0.2/MSDK/plf/src\gd32vw55x_platform.c ****     rtc_initpara.day_of_week = RTC_MONDAY;
 2182              		.loc 1 792 23 is_stmt 0
 2183 0356 B7170201 		li	a5,16912384
 2184 035a 93870712 		addi	a5,a5,288
 2185 035e 3EC6     		sw	a5,12(sp)
 800:C:/Users/stapi/OneDrive/Desktop/GD32VW553/V1_MQTT_OK/GD32VW55X_Wifi_BLE_SDK/GD32VW55x_RELEASE_V1.0.2/MSDK/plf/src\gd32vw55x_platform.c **** 
 2186              		.loc 1 800 25
 2187 0360 23090100 		sb	zero,18(sp)
 803:C:/Users/stapi/OneDrive/Desktop/GD32VW553/V1_MQTT_OK/GD32VW55X_Wifi_BLE_SDK/GD32VW55x_RELEASE_V1.0.2/MSDK/plf/src\gd32vw55x_platform.c ****         printf("RTC time configuration failed!\r\n");
 2188              		.loc 1 803 5 is_stmt 1
 803:C:/Users/stapi/OneDrive/Desktop/GD32VW553/V1_MQTT_OK/GD32VW55X_Wifi_BLE_SDK/GD32VW55x_RELEASE_V1.0.2/MSDK/plf/src\gd32vw55x_platform.c ****         printf("RTC time configuration failed!\r\n");
 2189              		.loc 1 803 18 is_stmt 0
 2190 0364 97000000 		call	rtc_init
 2190      E7800000 
 2191              	.LVL179:
 803:C:/Users/stapi/OneDrive/Desktop/GD32VW553/V1_MQTT_OK/GD32VW55X_Wifi_BLE_SDK/GD32VW55x_RELEASE_V1.0.2/MSDK/plf/src\gd32vw55x_platform.c ****         printf("RTC time configuration failed!\r\n");
 2192              		.loc 1 803 8
 2193 036c 5DE5     		bne	a0,zero,.L128
 804:C:/Users/stapi/OneDrive/Desktop/GD32VW553/V1_MQTT_OK/GD32VW55X_Wifi_BLE_SDK/GD32VW55x_RELEASE_V1.0.2/MSDK/plf/src\gd32vw55x_platform.c ****     } else {
 2194              		.loc 1 804 9 is_stmt 1
 2195 036e 37050000 		lui	a0,%hi(.LC0)
 2196 0372 13050500 		addi	a0,a0,%lo(.LC0)
 2197 0376 97000000 		call	puts
 2197      E7800000 
 2198              	.LVL180:
 2199              	.L129:
 2200              	.LBE186:
 2201              	.LBE185:
 830:C:/Users/stapi/OneDrive/Desktop/GD32VW553/V1_MQTT_OK/GD32VW55X_Wifi_BLE_SDK/GD32VW55x_RELEASE_V1.0.2/MSDK/plf/src\gd32vw55x_platform.c ****     /* RTC wakeup configuration */
 2202              		.loc 1 830 5
 2203 037e 13050040 		li	a0,1024
 2204 0382 97000000 		call	rtc_flag_clear
 2204      E7800000 
 2205              	.LVL181:
 832:C:/Users/stapi/OneDrive/Desktop/GD32VW553/V1_MQTT_OK/GD32VW55X_Wifi_BLE_SDK/GD32VW55x_RELEASE_V1.0.2/MSDK/plf/src\gd32vw55x_platform.c **** #if defined(RTC_CLOCK_SOURCE_IRC32K)
 2206              		.loc 1 832 5
 2207 038a 1165     		li	a0,16384
 2208 038c 97000000 		call	rtc_interrupt_enable
 2208      E7800000 
 2209              	.LVL182:
 835:C:/Users/stapi/OneDrive/Desktop/GD32VW553/V1_MQTT_OK/GD32VW55X_Wifi_BLE_SDK/GD32VW55x_RELEASE_V1.0.2/MSDK/plf/src\gd32vw55x_platform.c **** #else
 2210              		.loc 1 835 5
 2211 0394 0145     		li	a0,0
 2212 0396 97000000 		call	rtc_wakeup_clock_set
 2212      E7800000 
 2213              	.LVL183:
 2214              	.LBE189:
 2215              	.LBE194:
 904:C:/Users/stapi/OneDrive/Desktop/GD32VW553/V1_MQTT_OK/GD32VW55X_Wifi_BLE_SDK/GD32VW55x_RELEASE_V1.0.2/MSDK/plf/src\gd32vw55x_platform.c **** 
 905:C:/Users/stapi/OneDrive/Desktop/GD32VW553/V1_MQTT_OK/GD32VW55X_Wifi_BLE_SDK/GD32VW55x_RELEASE_V1.0.2/MSDK/plf/src\gd32vw55x_platform.c ****     // initialize rom
 906:C:/Users/stapi/OneDrive/Desktop/GD32VW553/V1_MQTT_OK/GD32VW55X_Wifi_BLE_SDK/GD32VW55x_RELEASE_V1.0.2/MSDK/plf/src\gd32vw55x_platform.c ****     rom_init();
 2216              		.loc 1 906 5
 2217              	.LBB195:
 2218              	.LBB196:
  70:C:/Users/stapi/OneDrive/Desktop/GD32VW553/V1_MQTT_OK/GD32VW55X_Wifi_BLE_SDK/GD32VW55x_RELEASE_V1.0.2/MSDK/plf/src\gd32vw55x_platform.c ****     rcu_periph_clock_enable(RCU_CAU);
 2219              		.loc 1 70 5 is_stmt 0
 2220 039e 0564     		li	s0,4096
 2221              	.LBE196:
 2222              	.LBE195:
 2223              		.loc 1 906 5
 2224 03a0 97000000 		call	rom_init
 2224      E7800000 
 2225              	.LVL184:
 907:C:/Users/stapi/OneDrive/Desktop/GD32VW553/V1_MQTT_OK/GD32VW55X_Wifi_BLE_SDK/GD32VW55x_RELEASE_V1.0.2/MSDK/plf/src\gd32vw55x_platform.c **** 
 908:C:/Users/stapi/OneDrive/Desktop/GD32VW553/V1_MQTT_OK/GD32VW55X_Wifi_BLE_SDK/GD32VW55x_RELEASE_V1.0.2/MSDK/plf/src\gd32vw55x_platform.c ****     // enable HardWare accelerate engine related RCU clock
 909:C:/Users/stapi/OneDrive/Desktop/GD32VW553/V1_MQTT_OK/GD32VW55X_Wifi_BLE_SDK/GD32VW55x_RELEASE_V1.0.2/MSDK/plf/src\gd32vw55x_platform.c ****     hw_crypto_engine_enable();
 2226              		.loc 1 909 5 is_stmt 1
 2227              	.LBB198:
 2228              	.LBB197:
  70:C:/Users/stapi/OneDrive/Desktop/GD32VW553/V1_MQTT_OK/GD32VW55X_Wifi_BLE_SDK/GD32VW55x_RELEASE_V1.0.2/MSDK/plf/src\gd32vw55x_platform.c ****     rcu_periph_clock_enable(RCU_CAU);
 2229              		.loc 1 70 5
 2230 03a8 130534D0 		addi	a0,s0,-765
 2231 03ac 97000000 		call	rcu_periph_clock_enable
 2231      E7800000 
 2232              	.LVL185:
  71:C:/Users/stapi/OneDrive/Desktop/GD32VW553/V1_MQTT_OK/GD32VW55X_Wifi_BLE_SDK/GD32VW55x_RELEASE_V1.0.2/MSDK/plf/src\gd32vw55x_platform.c ****     rcu_periph_clock_enable(RCU_HAU);
 2233              		.loc 1 71 5
 2234 03b4 130544D0 		addi	a0,s0,-764
 2235 03b8 97000000 		call	rcu_periph_clock_enable
 2235      E7800000 
 2236              	.LVL186:
  72:C:/Users/stapi/OneDrive/Desktop/GD32VW553/V1_MQTT_OK/GD32VW55X_Wifi_BLE_SDK/GD32VW55x_RELEASE_V1.0.2/MSDK/plf/src\gd32vw55x_platform.c **** }
 2237              		.loc 1 72 5
 2238 03c0 130554D0 		addi	a0,s0,-763
 2239 03c4 97000000 		call	rcu_periph_clock_enable
 2239      E7800000 
 2240              	.LVL187:
 2241              	.LBE197:
 2242              	.LBE198:
 910:C:/Users/stapi/OneDrive/Desktop/GD32VW553/V1_MQTT_OK/GD32VW55X_Wifi_BLE_SDK/GD32VW55x_RELEASE_V1.0.2/MSDK/plf/src\gd32vw55x_platform.c **** 
 911:C:/Users/stapi/OneDrive/Desktop/GD32VW553/V1_MQTT_OK/GD32VW55X_Wifi_BLE_SDK/GD32VW55x_RELEASE_V1.0.2/MSDK/plf/src\gd32vw55x_platform.c **** #ifdef CFG_WLAN_SUPPORT
 912:C:/Users/stapi/OneDrive/Desktop/GD32VW553/V1_MQTT_OK/GD32VW55X_Wifi_BLE_SDK/GD32VW55x_RELEASE_V1.0.2/MSDK/plf/src\gd32vw55x_platform.c **** #ifdef CONFIG_PLATFORM_FPGA
 913:C:/Users/stapi/OneDrive/Desktop/GD32VW553/V1_MQTT_OK/GD32VW55X_Wifi_BLE_SDK/GD32VW55x_RELEASE_V1.0.2/MSDK/plf/src\gd32vw55x_platform.c ****     // Before enable wifi, we need reset wifi pll to ensure wifi work on stable clock.
 914:C:/Users/stapi/OneDrive/Desktop/GD32VW553/V1_MQTT_OK/GD32VW55X_Wifi_BLE_SDK/GD32VW55x_RELEASE_V1.0.2/MSDK/plf/src\gd32vw55x_platform.c ****     wifi_pll_reset();
 915:C:/Users/stapi/OneDrive/Desktop/GD32VW553/V1_MQTT_OK/GD32VW55X_Wifi_BLE_SDK/GD32VW55x_RELEASE_V1.0.2/MSDK/plf/src\gd32vw55x_platform.c **** #endif
 916:C:/Users/stapi/OneDrive/Desktop/GD32VW553/V1_MQTT_OK/GD32VW55X_Wifi_BLE_SDK/GD32VW55x_RELEASE_V1.0.2/MSDK/plf/src\gd32vw55x_platform.c ****     wifi_led_config();
 2243              		.loc 1 916 5
 2244 03cc 97000000 		call	wifi_led_config
 2244      E7800000 
 2245              	.LVL188:
 917:C:/Users/stapi/OneDrive/Desktop/GD32VW553/V1_MQTT_OK/GD32VW55X_Wifi_BLE_SDK/GD32VW55x_RELEASE_V1.0.2/MSDK/plf/src\gd32vw55x_platform.c **** #ifdef CFG_DMA
 918:C:/Users/stapi/OneDrive/Desktop/GD32VW553/V1_MQTT_OK/GD32VW55X_Wifi_BLE_SDK/GD32VW55x_RELEASE_V1.0.2/MSDK/plf/src\gd32vw55x_platform.c ****     dma_config();
 919:C:/Users/stapi/OneDrive/Desktop/GD32VW553/V1_MQTT_OK/GD32VW55X_Wifi_BLE_SDK/GD32VW55x_RELEASE_V1.0.2/MSDK/plf/src\gd32vw55x_platform.c **** #endif
 920:C:/Users/stapi/OneDrive/Desktop/GD32VW553/V1_MQTT_OK/GD32VW55X_Wifi_BLE_SDK/GD32VW55x_RELEASE_V1.0.2/MSDK/plf/src\gd32vw55x_platform.c ****     sysctrl_init();
 2246              		.loc 1 920 5
 2247 03d4 97000000 		call	sysctrl_init
 2247      E7800000 
 2248              	.LVL189:
 921:C:/Users/stapi/OneDrive/Desktop/GD32VW553/V1_MQTT_OK/GD32VW55X_Wifi_BLE_SDK/GD32VW55x_RELEASE_V1.0.2/MSDK/plf/src\gd32vw55x_platform.c **** #endif
 922:C:/Users/stapi/OneDrive/Desktop/GD32VW553/V1_MQTT_OK/GD32VW55X_Wifi_BLE_SDK/GD32VW55x_RELEASE_V1.0.2/MSDK/plf/src\gd32vw55x_platform.c **** 
 923:C:/Users/stapi/OneDrive/Desktop/GD32VW553/V1_MQTT_OK/GD32VW55X_Wifi_BLE_SDK/GD32VW55x_RELEASE_V1.0.2/MSDK/plf/src\gd32vw55x_platform.c **** #ifdef CONFIG_FATFS_SUPPORT
 924:C:/Users/stapi/OneDrive/Desktop/GD32VW553/V1_MQTT_OK/GD32VW55X_Wifi_BLE_SDK/GD32VW55x_RELEASE_V1.0.2/MSDK/plf/src\gd32vw55x_platform.c ****     rcu_periph_clock_enable(RCU_CRC);
 925:C:/Users/stapi/OneDrive/Desktop/GD32VW553/V1_MQTT_OK/GD32VW55X_Wifi_BLE_SDK/GD32VW55x_RELEASE_V1.0.2/MSDK/plf/src\gd32vw55x_platform.c **** #endif
 926:C:/Users/stapi/OneDrive/Desktop/GD32VW553/V1_MQTT_OK/GD32VW55X_Wifi_BLE_SDK/GD32VW55x_RELEASE_V1.0.2/MSDK/plf/src\gd32vw55x_platform.c **** 
 927:C:/Users/stapi/OneDrive/Desktop/GD32VW553/V1_MQTT_OK/GD32VW55X_Wifi_BLE_SDK/GD32VW55x_RELEASE_V1.0.2/MSDK/plf/src\gd32vw55x_platform.c ****     rf_power_on();
 2249              		.loc 1 927 5
 2250 03dc 97000000 		call	rf_power_on
 2250      E7800000 
 2251              	.LVL190:
 928:C:/Users/stapi/OneDrive/Desktop/GD32VW553/V1_MQTT_OK/GD32VW55X_Wifi_BLE_SDK/GD32VW55x_RELEASE_V1.0.2/MSDK/plf/src\gd32vw55x_platform.c ****     raw_flash_init();
 2252              		.loc 1 928 5
 2253 03e4 97000000 		call	raw_flash_init
 2253      E7800000 
 2254              	.LVL191:
 929:C:/Users/stapi/OneDrive/Desktop/GD32VW553/V1_MQTT_OK/GD32VW55X_Wifi_BLE_SDK/GD32VW55x_RELEASE_V1.0.2/MSDK/plf/src\gd32vw55x_platform.c ****     if (nvds_flash_internal_init())
 2255              		.loc 1 929 5
 2256              		.loc 1 929 9 is_stmt 0
 2257 03ec 97000000 		call	nvds_flash_internal_init
 2257      E7800000 
 2258              	.LVL192:
 2259              		.loc 1 929 8
 2260 03f4 11CD     		beq	a0,zero,.L127
 930:C:/Users/stapi/OneDrive/Desktop/GD32VW553/V1_MQTT_OK/GD32VW55X_Wifi_BLE_SDK/GD32VW55x_RELEASE_V1.0.2/MSDK/plf/src\gd32vw55x_platform.c ****         dbg_print(ERR, "nvds flash init failed\r\n");
 2261              		.loc 1 930 9 is_stmt 1
 2262              		.loc 1 930 9
 2263 03f6 B7070000 		lui	a5,%hi(global_debug_level)
 2264 03fa 83C70700 		lbu	a5,%lo(global_debug_level)(a5)
 2265 03fe 89CB     		beq	a5,zero,.L127
 2266              		.loc 1 930 9 discriminator 1
 2267 0400 37050000 		lui	a0,%hi(.LC1)
 2268 0404 13050500 		addi	a0,a0,%lo(.LC1)
 2269 0408 97000000 		call	co_printf
 2269      E7800000 
 2270              	.LVL193:
 2271              		.loc 1 930 9 discriminator 1
 2272              	.L127:
 931:C:/Users/stapi/OneDrive/Desktop/GD32VW553/V1_MQTT_OK/GD32VW55X_Wifi_BLE_SDK/GD32VW55x_RELEASE_V1.0.2/MSDK/plf/src\gd32vw55x_platform.c **** }
 2273              		.loc 1 931 1 is_stmt 0
 2274 0410 0561     		addi	sp,sp,32
 2275              		.cfi_remember_state
 2276              		.cfi_def_cfa_offset 0
 2277 0412 17030000 		tail	__riscv_restore_3
 2277      67000300 
 2278              		.cfi_restore 18
 2279              		.cfi_restore 9
 2280              		.cfi_restore 8
 2281              		.cfi_restore 1
 2282              		.cfi_def_cfa_offset -16
 2283              	.L128:
 2284              		.cfi_restore_state
 2285              	.LBB199:
 2286              	.LBB190:
 2287              	.LBB188:
 2288              	.LBB187:
 806:C:/Users/stapi/OneDrive/Desktop/GD32VW553/V1_MQTT_OK/GD32VW55X_Wifi_BLE_SDK/GD32VW55x_RELEASE_V1.0.2/MSDK/plf/src\gd32vw55x_platform.c ****     }
 2289              		.loc 1 806 9 is_stmt 1
 2290 041a 6800     		addi	a0,sp,12
 2291 041c 97000000 		call	rtc_current_time_get
 2291      E7800000 
 2292              	.LVL194:
 2293 0424 A9BF     		j	.L129
 2294              	.LBE187:
 2295              	.LBE188:
 2296              	.LBE190:
 2297              	.LBE199:
 2298              		.cfi_endproc
 2299              	.LFE426:
 2301              		.globl	prescaler_s
 2302              		.globl	prescaler_a
 2303              		.globl	wifi_exist_flag
 2304              		.section	.sbss.prescaler_a,"aw",@nobits
 2305              		.align	2
 2306              		.set	.LANCHOR1,. + 0
 2309              	prescaler_a:
 2310 0000 00000000 		.zero	4
 2311              		.section	.sbss.prescaler_s,"aw",@nobits
 2312              		.align	2
 2313              		.set	.LANCHOR0,. + 0
 2316              	prescaler_s:
 2317 0000 00000000 		.zero	4
 2318              		.section	.sbss.wifi_exist_flag,"aw",@nobits
 2321              	wifi_exist_flag:
 2322 0000 00       		.zero	1
 2323              		.text
 2324              	.Letext0:
 2325              		.file 3 "c:\\users\\stapi\\onedrive\\desktop\\gd32vw553\\embeddedbuilder_v1.4.7.26843\\tools\\nucl
 2326              		.file 4 "c:\\users\\stapi\\onedrive\\desktop\\gd32vw553\\embeddedbuilder_v1.4.7.26843\\tools\\nucl
 2327              		.file 5 "..\\..\\..\\..\\plf\\riscv\\gd32vw55x/gd32vw55x.h"
 2328              		.file 6 "..\\..\\..\\..\\plf\\GD32VW55x_standard_peripheral\\Include/gd32vw55x_exti.h"
 2329              		.file 7 "..\\..\\..\\..\\plf\\GD32VW55x_standard_peripheral\\Include/gd32vw55x_rcu.h"
 2330              		.file 8 "..\\..\\..\\..\\plf\\GD32VW55x_standard_peripheral\\Include/gd32vw55x_rtc.h"
 2331              		.file 9 "..\\..\\..\\..\\plf\\GD32VW55x_standard_peripheral\\Include/gd32vw55x_usart.h"
 2332              		.file 10 "C:/Users/stapi/OneDrive/Desktop/GD32VW553/V1_MQTT_OK/GD32VW55X_Wifi_BLE_SDK/GD32VW55x_RE
 2333              		.file 11 "..\\..\\..\\..\\util\\include/dbg_print.h"
 2334              		.file 12 "..\\..\\..\\..\\plf\\GD32VW55x_standard_peripheral\\Include/gd32vw55x_eclic.h"
 2335              		.file 13 "..\\..\\..\\..\\plf\\GD32VW55x_standard_peripheral\\Include/gd32vw55x_pmu.h"
 2336              		.file 14 "..\\..\\..\\..\\plf\\src\\uart/uart.h"
 2337              		.file 15 "..\\..\\..\\..\\plf\\src\\uart/log_uart.h"
 2338              		.file 16 "..\\..\\..\\..\\plf\\src\\time/systime.h"
 2339              		.file 17 "C:/Users/stapi/OneDrive/Desktop/GD32VW553/V1_MQTT_OK/GD32VW55X_Wifi_BLE_SDK/GD32VW55x_RE
 2340              		.file 18 "..\\..\\..\\..\\macsw\\export/wifi_export.h"
 2341              		.file 19 "..\\..\\..\\..\\plf\\src\\raw_flash/raw_flash_api.h"
 2342              		.file 20 "..\\..\\..\\..\\plf\\src\\nvds/nvds_flash.h"
 2343              		.file 21 "..\\..\\..\\..\\util\\include/debug_print.h"
 2344              		.file 22 "..\\..\\..\\..\\plf\\src\\rf/hal_rf.h"
 2345              		.file 23 "..\\..\\..\\..\\plf\\GD32VW55x_standard_peripheral\\Include/gd32vw55x_gpio.h"
 2346              		.file 24 "C:/Users/stapi/OneDrive/Desktop/GD32VW553/V1_MQTT_OK/GD32VW55X_Wifi_BLE_SDK/GD32VW55x_RE
 2347              		.file 25 "..\\..\\..\\..\\plf\\GD32VW55x_standard_peripheral\\Include/gd32vw55x_crc.h"
 2348              		.file 26 "..\\..\\..\\..\\plf\\src\\trng/trng.h"
 2349              		.file 27 "<built-in>"
DEFINED SYMBOLS
                            *ABS*:0000000000000000 gd32vw55x_platform.c
C:\Users\stapi\AppData\Local\Temp\ccI1ssAu.s:12     .text.exti_line_clear:0000000000000000 exti_line_clear
C:\Users\stapi\AppData\Local\Temp\ccI1ssAu.s:16     .text.exti_line_clear:0000000000000000 .L0 
C:\Users\stapi\AppData\Local\Temp\ccI1ssAu.s:18     .text.exti_line_clear:0000000000000000 .L0 
C:\Users\stapi\AppData\Local\Temp\ccI1ssAu.s:19     .text.exti_line_clear:0000000000000008 .L0 
C:\Users\stapi\AppData\Local\Temp\ccI1ssAu.s:20     .text.exti_line_clear:0000000000000008 .L0 
C:\Users\stapi\AppData\Local\Temp\ccI1ssAu.s:21     .text.exti_line_clear:0000000000000008 .L0 
C:\Users\stapi\AppData\Local\Temp\ccI1ssAu.s:23     .text.exti_line_clear:0000000000000008 .L0 
C:\Users\stapi\AppData\Local\Temp\ccI1ssAu.s:24     .text.exti_line_clear:0000000000000008 .L0 
C:\Users\stapi\AppData\Local\Temp\ccI1ssAu.s:26     .text.exti_line_clear:000000000000000a .L0 
C:\Users\stapi\AppData\Local\Temp\ccI1ssAu.s:29     .text.exti_line_clear:0000000000000012 .L0 
C:\Users\stapi\AppData\Local\Temp\ccI1ssAu.s:30     .text.exti_line_clear:0000000000000012 .L0 
C:\Users\stapi\AppData\Local\Temp\ccI1ssAu.s:34     .text.exti_line_clear:000000000000001c .L0 
C:\Users\stapi\AppData\Local\Temp\ccI1ssAu.s:37     .text.exti_line_clear:0000000000000022 .L0 
C:\Users\stapi\AppData\Local\Temp\ccI1ssAu.s:42     .text.exti_line_clear:000000000000002c .L0 
C:\Users\stapi\AppData\Local\Temp\ccI1ssAu.s:43     .text.exti_line_clear:0000000000000034 .L0 
C:\Users\stapi\AppData\Local\Temp\ccI1ssAu.s:44     .text.exti_line_clear:0000000000000034 .L0 
C:\Users\stapi\AppData\Local\Temp\ccI1ssAu.s:45     .text.exti_line_clear:0000000000000034 .L0 
C:\Users\stapi\AppData\Local\Temp\ccI1ssAu.s:46     .text.exti_line_clear:0000000000000034 .L0 
C:\Users\stapi\AppData\Local\Temp\ccI1ssAu.s:52     .text.ble_pmu_config.part.0:0000000000000000 ble_pmu_config.part.0
C:\Users\stapi\AppData\Local\Temp\ccI1ssAu.s:55     .text.ble_pmu_config.part.0:0000000000000000 .L0 
C:\Users\stapi\AppData\Local\Temp\ccI1ssAu.s:56     .text.ble_pmu_config.part.0:0000000000000000 .L0 
C:\Users\stapi\AppData\Local\Temp\ccI1ssAu.s:57     .text.ble_pmu_config.part.0:0000000000000008 .L0 
C:\Users\stapi\AppData\Local\Temp\ccI1ssAu.s:58     .text.ble_pmu_config.part.0:0000000000000008 .L0 
C:\Users\stapi\AppData\Local\Temp\ccI1ssAu.s:59     .text.ble_pmu_config.part.0:0000000000000008 .L0 
C:\Users\stapi\AppData\Local\Temp\ccI1ssAu.s:62     .text.ble_pmu_config.part.0:0000000000000008 .L0 
C:\Users\stapi\AppData\Local\Temp\ccI1ssAu.s:63     .text.ble_pmu_config.part.0:0000000000000008 .L0 
C:\Users\stapi\AppData\Local\Temp\ccI1ssAu.s:67     .text.ble_pmu_config.part.0:0000000000000014 .L0 
C:\Users\stapi\AppData\Local\Temp\ccI1ssAu.s:70     .text.ble_pmu_config.part.0:000000000000001a .L0 
C:\Users\stapi\AppData\Local\Temp\ccI1ssAu.s:75     .text.ble_pmu_config.part.0:0000000000000026 .L0 
C:\Users\stapi\AppData\Local\Temp\ccI1ssAu.s:78     .text.ble_pmu_config.part.0:0000000000000028 .L0 
C:\Users\stapi\AppData\Local\Temp\ccI1ssAu.s:79     .text.ble_pmu_config.part.0:0000000000000028 .L0 
C:\Users\stapi\AppData\Local\Temp\ccI1ssAu.s:80     .text.ble_pmu_config.part.0:0000000000000028 .L0 
C:\Users\stapi\AppData\Local\Temp\ccI1ssAu.s:84     .text.ble_pmu_config.part.0:0000000000000034 .L0 
C:\Users\stapi\AppData\Local\Temp\ccI1ssAu.s:86     .text.ble_pmu_config.part.0:0000000000000038 .L0 
C:\Users\stapi\AppData\Local\Temp\ccI1ssAu.s:87     .text.ble_pmu_config.part.0:0000000000000040 .L0 
C:\Users\stapi\AppData\Local\Temp\ccI1ssAu.s:88     .text.ble_pmu_config.part.0:0000000000000040 .L0 
C:\Users\stapi\AppData\Local\Temp\ccI1ssAu.s:89     .text.ble_pmu_config.part.0:0000000000000040 .L0 
C:\Users\stapi\AppData\Local\Temp\ccI1ssAu.s:90     .text.ble_pmu_config.part.0:0000000000000040 .L0 
C:\Users\stapi\AppData\Local\Temp\ccI1ssAu.s:97     .text.wifi_lpds_preconfig:0000000000000000 wifi_lpds_preconfig
C:\Users\stapi\AppData\Local\Temp\ccI1ssAu.s:100    .text.wifi_lpds_preconfig:0000000000000000 .L0 
C:\Users\stapi\AppData\Local\Temp\ccI1ssAu.s:102    .text.wifi_lpds_preconfig:0000000000000000 .L0 
C:\Users\stapi\AppData\Local\Temp\ccI1ssAu.s:103    .text.wifi_lpds_preconfig:0000000000000000 .L0 
C:\Users\stapi\AppData\Local\Temp\ccI1ssAu.s:104    .text.wifi_lpds_preconfig:0000000000000000 .L0 
C:\Users\stapi\AppData\Local\Temp\ccI1ssAu.s:107    .text.wifi_lpds_preconfig:0000000000000006 .L0 
C:\Users\stapi\AppData\Local\Temp\ccI1ssAu.s:110    .text.wifi_lpds_preconfig:000000000000000a .L0 
C:\Users\stapi\AppData\Local\Temp\ccI1ssAu.s:113    .text.wifi_lpds_preconfig:0000000000000010 .L0 
C:\Users\stapi\AppData\Local\Temp\ccI1ssAu.s:114    .text.wifi_lpds_preconfig:0000000000000010 .L0 
C:\Users\stapi\AppData\Local\Temp\ccI1ssAu.s:118    .text.wifi_lpds_preconfig:0000000000000016 .L0 
C:\Users\stapi\AppData\Local\Temp\ccI1ssAu.s:119    .text.wifi_lpds_preconfig:0000000000000018 .L0 
C:\Users\stapi\AppData\Local\Temp\ccI1ssAu.s:126    .text.wifi_lpds_enter:0000000000000000 wifi_lpds_enter
C:\Users\stapi\AppData\Local\Temp\ccI1ssAu.s:129    .text.wifi_lpds_enter:0000000000000000 .L0 
C:\Users\stapi\AppData\Local\Temp\ccI1ssAu.s:130    .text.wifi_lpds_enter:0000000000000000 .L0 
C:\Users\stapi\AppData\Local\Temp\ccI1ssAu.s:131    .text.wifi_lpds_enter:0000000000000000 .L0 
C:\Users\stapi\AppData\Local\Temp\ccI1ssAu.s:132    .text.wifi_lpds_enter:0000000000000000 .L0 
C:\Users\stapi\AppData\Local\Temp\ccI1ssAu.s:137    .text.wifi_lpds_enter:000000000000000c .L0 
C:\Users\stapi\AppData\Local\Temp\ccI1ssAu.s:138    .text.wifi_lpds_enter:000000000000000e .L0 
C:\Users\stapi\AppData\Local\Temp\ccI1ssAu.s:145    .text.wifi_lpds_exit:0000000000000000 wifi_lpds_exit
C:\Users\stapi\AppData\Local\Temp\ccI1ssAu.s:148    .text.wifi_lpds_exit:0000000000000000 .L0 
C:\Users\stapi\AppData\Local\Temp\ccI1ssAu.s:149    .text.wifi_lpds_exit:0000000000000000 .L0 
C:\Users\stapi\AppData\Local\Temp\ccI1ssAu.s:150    .text.wifi_lpds_exit:0000000000000000 .L0 
C:\Users\stapi\AppData\Local\Temp\ccI1ssAu.s:151    .text.wifi_lpds_exit:0000000000000000 .L0 
C:\Users\stapi\AppData\Local\Temp\ccI1ssAu.s:154    .text.wifi_lpds_exit:0000000000000006 .L0 
C:\Users\stapi\AppData\Local\Temp\ccI1ssAu.s:156    .text.wifi_lpds_exit:000000000000000a .L0 
C:\Users\stapi\AppData\Local\Temp\ccI1ssAu.s:159    .text.wifi_lpds_exit:0000000000000010 .L0 
C:\Users\stapi\AppData\Local\Temp\ccI1ssAu.s:160    .text.wifi_lpds_exit:0000000000000010 .L0 
C:\Users\stapi\AppData\Local\Temp\ccI1ssAu.s:163    .text.wifi_lpds_exit:0000000000000012 .L0 
C:\Users\stapi\AppData\Local\Temp\ccI1ssAu.s:164    .text.wifi_lpds_exit:0000000000000012 .L0 
C:\Users\stapi\AppData\Local\Temp\ccI1ssAu.s:165    .text.wifi_lpds_exit:0000000000000012 .L0 
C:\Users\stapi\AppData\Local\Temp\ccI1ssAu.s:167    .text.wifi_lpds_exit:0000000000000014 .L0 
C:\Users\stapi\AppData\Local\Temp\ccI1ssAu.s:170    .text.wifi_lpds_exit:0000000000000018 .L0 
C:\Users\stapi\AppData\Local\Temp\ccI1ssAu.s:172    .text.wifi_lpds_exit:000000000000001c .L0 
C:\Users\stapi\AppData\Local\Temp\ccI1ssAu.s:175    .text.wifi_lpds_exit:0000000000000020 .L0 
C:\Users\stapi\AppData\Local\Temp\ccI1ssAu.s:176    .text.wifi_lpds_exit:0000000000000020 .L0 
C:\Users\stapi\AppData\Local\Temp\ccI1ssAu.s:177    .text.wifi_lpds_exit:0000000000000020 .L0 
C:\Users\stapi\AppData\Local\Temp\ccI1ssAu.s:179    .text.wifi_lpds_exit:0000000000000022 .L0 
C:\Users\stapi\AppData\Local\Temp\ccI1ssAu.s:181    .text.wifi_lpds_exit:0000000000000024 .L0 
C:\Users\stapi\AppData\Local\Temp\ccI1ssAu.s:183    .text.wifi_lpds_exit:0000000000000026 .L0 
C:\Users\stapi\AppData\Local\Temp\ccI1ssAu.s:186    .text.wifi_lpds_exit:000000000000002a .L0 
C:\Users\stapi\AppData\Local\Temp\ccI1ssAu.s:187    .text.wifi_lpds_exit:000000000000002a .L0 
C:\Users\stapi\AppData\Local\Temp\ccI1ssAu.s:188    .text.wifi_lpds_exit:000000000000002a .L0 
C:\Users\stapi\AppData\Local\Temp\ccI1ssAu.s:190    .text.wifi_lpds_exit:000000000000002e .L0 
C:\Users\stapi\AppData\Local\Temp\ccI1ssAu.s:192    .text.wifi_lpds_exit:0000000000000032 .L0 
C:\Users\stapi\AppData\Local\Temp\ccI1ssAu.s:193    .text.wifi_lpds_exit:0000000000000034 .L0 
C:\Users\stapi\AppData\Local\Temp\ccI1ssAu.s:200    .text.wifi_is_not_idle:0000000000000000 wifi_is_not_idle
C:\Users\stapi\AppData\Local\Temp\ccI1ssAu.s:203    .text.wifi_is_not_idle:0000000000000000 .L0 
C:\Users\stapi\AppData\Local\Temp\ccI1ssAu.s:204    .text.wifi_is_not_idle:0000000000000000 .L0 
C:\Users\stapi\AppData\Local\Temp\ccI1ssAu.s:205    .text.wifi_is_not_idle:0000000000000000 .L0 
C:\Users\stapi\AppData\Local\Temp\ccI1ssAu.s:206    .text.wifi_is_not_idle:0000000000000000 .L0 
C:\Users\stapi\AppData\Local\Temp\ccI1ssAu.s:209    .text.wifi_is_not_idle:0000000000000008 .L0 
C:\Users\stapi\AppData\Local\Temp\ccI1ssAu.s:212    .text.wifi_is_not_idle:0000000000000010 .L0 
C:\Users\stapi\AppData\Local\Temp\ccI1ssAu.s:214    .text.wifi_is_not_idle:0000000000000016 .L0 
C:\Users\stapi\AppData\Local\Temp\ccI1ssAu.s:221    .text.wifi_hw_is_sleep:0000000000000000 wifi_hw_is_sleep
C:\Users\stapi\AppData\Local\Temp\ccI1ssAu.s:224    .text.wifi_hw_is_sleep:0000000000000000 .L0 
C:\Users\stapi\AppData\Local\Temp\ccI1ssAu.s:225    .text.wifi_hw_is_sleep:0000000000000000 .L0 
C:\Users\stapi\AppData\Local\Temp\ccI1ssAu.s:226    .text.wifi_hw_is_sleep:0000000000000000 .L0 
C:\Users\stapi\AppData\Local\Temp\ccI1ssAu.s:227    .text.wifi_hw_is_sleep:0000000000000000 .L0 
C:\Users\stapi\AppData\Local\Temp\ccI1ssAu.s:230    .text.wifi_hw_is_sleep:0000000000000006 .L0 
C:\Users\stapi\AppData\Local\Temp\ccI1ssAu.s:232    .text.wifi_hw_is_sleep:000000000000000a .L0 
C:\Users\stapi\AppData\Local\Temp\ccI1ssAu.s:234    .text.wifi_hw_is_sleep:000000000000000c .L0 
C:\Users\stapi\AppData\Local\Temp\ccI1ssAu.s:236    .text.wifi_hw_is_sleep:000000000000000e .L0 
C:\Users\stapi\AppData\Local\Temp\ccI1ssAu.s:238    .text.wifi_hw_is_sleep:0000000000000010 .L0 
C:\Users\stapi\AppData\Local\Temp\ccI1ssAu.s:240    .text.wifi_hw_is_sleep:0000000000000012 .L0 
C:\Users\stapi\AppData\Local\Temp\ccI1ssAu.s:243    .text.wifi_hw_is_sleep:0000000000000016 .L0 
C:\Users\stapi\AppData\Local\Temp\ccI1ssAu.s:244    .text.wifi_hw_is_sleep:0000000000000018 .L0 
C:\Users\stapi\AppData\Local\Temp\ccI1ssAu.s:251    .text.deep_sleep_enter:0000000000000000 deep_sleep_enter
C:\Users\stapi\AppData\Local\Temp\ccI1ssAu.s:254    .text.deep_sleep_enter:0000000000000000 .L0 
C:\Users\stapi\AppData\Local\Temp\ccI1ssAu.s:256    .text.deep_sleep_enter:0000000000000000 .L0 
C:\Users\stapi\AppData\Local\Temp\ccI1ssAu.s:257    .text.deep_sleep_enter:0000000000000008 .L0 
C:\Users\stapi\AppData\Local\Temp\ccI1ssAu.s:258    .text.deep_sleep_enter:0000000000000008 .L0 
C:\Users\stapi\AppData\Local\Temp\ccI1ssAu.s:259    .text.deep_sleep_enter:0000000000000008 .L0 
C:\Users\stapi\AppData\Local\Temp\ccI1ssAu.s:261    .text.deep_sleep_enter:0000000000000008 .L0 
C:\Users\stapi\AppData\Local\Temp\ccI1ssAu.s:262    .text.deep_sleep_enter:0000000000000008 .L0 
C:\Users\stapi\AppData\Local\Temp\ccI1ssAu.s:264    .text.deep_sleep_enter:000000000000000a .L0 
C:\Users\stapi\AppData\Local\Temp\ccI1ssAu.s:271    .text.deep_sleep_enter:000000000000001a .L0 
C:\Users\stapi\AppData\Local\Temp\ccI1ssAu.s:277    .text.deep_sleep_enter:000000000000002a .L0 
C:\Users\stapi\AppData\Local\Temp\ccI1ssAu.s:281    .text.deep_sleep_enter:0000000000000036 .L0 
C:\Users\stapi\AppData\Local\Temp\ccI1ssAu.s:284    .text.deep_sleep_enter:000000000000003e .L0 
C:\Users\stapi\AppData\Local\Temp\ccI1ssAu.s:289    .text.deep_sleep_enter:0000000000000044 .L0 
C:\Users\stapi\AppData\Local\Temp\ccI1ssAu.s:293    .text.deep_sleep_enter:0000000000000046 .L0 
C:\Users\stapi\AppData\Local\Temp\ccI1ssAu.s:297    .text.deep_sleep_enter:0000000000000052 .L0 
C:\Users\stapi\AppData\Local\Temp\ccI1ssAu.s:302    .text.deep_sleep_enter:000000000000005a .L0 
C:\Users\stapi\AppData\Local\Temp\ccI1ssAu.s:303    .text.deep_sleep_enter:000000000000005a .L0 
C:\Users\stapi\AppData\Local\Temp\ccI1ssAu.s:307    .text.deep_sleep_enter:0000000000000066 .L0 
C:\Users\stapi\AppData\Local\Temp\ccI1ssAu.s:311    .text.deep_sleep_enter:0000000000000072 .L0 
C:\Users\stapi\AppData\Local\Temp\ccI1ssAu.s:317    .text.deep_sleep_enter:000000000000007e .L0 
C:\Users\stapi\AppData\Local\Temp\ccI1ssAu.s:319    .text.deep_sleep_enter:0000000000000080 .L0 
C:\Users\stapi\AppData\Local\Temp\ccI1ssAu.s:321    .text.deep_sleep_enter:0000000000000084 .L0 
C:\Users\stapi\AppData\Local\Temp\ccI1ssAu.s:324    .text.deep_sleep_enter:000000000000008c .L0 
C:\Users\stapi\AppData\Local\Temp\ccI1ssAu.s:325    .text.deep_sleep_enter:000000000000008c .L0 
C:\Users\stapi\AppData\Local\Temp\ccI1ssAu.s:328    .text.deep_sleep_enter:0000000000000090 .L0 
C:\Users\stapi\AppData\Local\Temp\ccI1ssAu.s:329    .text.deep_sleep_enter:0000000000000090 .L0 
C:\Users\stapi\AppData\Local\Temp\ccI1ssAu.s:330    .text.deep_sleep_enter:0000000000000090 .L0 
C:\Users\stapi\AppData\Local\Temp\ccI1ssAu.s:335    .text.deep_sleep_enter:000000000000009e .L0 
C:\Users\stapi\AppData\Local\Temp\ccI1ssAu.s:337    .text.deep_sleep_enter:00000000000000a0 .L0 
C:\Users\stapi\AppData\Local\Temp\ccI1ssAu.s:343    .text.deep_sleep_enter:00000000000000b0 .L0 
C:\Users\stapi\AppData\Local\Temp\ccI1ssAu.s:344    .text.deep_sleep_enter:00000000000000b8 .L0 
C:\Users\stapi\AppData\Local\Temp\ccI1ssAu.s:345    .text.deep_sleep_enter:00000000000000b8 .L0 
C:\Users\stapi\AppData\Local\Temp\ccI1ssAu.s:346    .text.deep_sleep_enter:00000000000000b8 .L0 
C:\Users\stapi\AppData\Local\Temp\ccI1ssAu.s:347    .text.deep_sleep_enter:00000000000000b8 .L0 
C:\Users\stapi\AppData\Local\Temp\ccI1ssAu.s:354    .text.deep_sleep_exit:0000000000000000 deep_sleep_exit
C:\Users\stapi\AppData\Local\Temp\ccI1ssAu.s:357    .text.deep_sleep_exit:0000000000000000 .L0 
C:\Users\stapi\AppData\Local\Temp\ccI1ssAu.s:358    .text.deep_sleep_exit:0000000000000000 .L0 
C:\Users\stapi\AppData\Local\Temp\ccI1ssAu.s:359    .text.deep_sleep_exit:0000000000000008 .L0 
C:\Users\stapi\AppData\Local\Temp\ccI1ssAu.s:360    .text.deep_sleep_exit:0000000000000008 .L0 
C:\Users\stapi\AppData\Local\Temp\ccI1ssAu.s:361    .text.deep_sleep_exit:0000000000000008 .L0 
C:\Users\stapi\AppData\Local\Temp\ccI1ssAu.s:364    .text.deep_sleep_exit:0000000000000008 .L0 
C:\Users\stapi\AppData\Local\Temp\ccI1ssAu.s:365    .text.deep_sleep_exit:0000000000000008 .L0 
C:/Users/stapi/OneDrive/Desktop/GD32VW553/V1_MQTT_OK/GD32VW55X_Wifi_BLE_SDK/GD32VW55x_RELEASE_V1.0.2/MSDK/plf/src\gd32vw55x_platform.c:200    .text.deep_sleep_exit:0000000000000008 .L0 
C:\Users\stapi\AppData\Local\Temp\ccI1ssAu.s:374    .text.deep_sleep_exit:000000000000000c .L0 
C:\Users\stapi\AppData\Local\Temp\ccI1ssAu.s:375    .text.deep_sleep_exit:000000000000000c .L0 
C:\Users\stapi\AppData\Local\Temp\ccI1ssAu.s:376    .text.deep_sleep_exit:000000000000000c .L0 
C:\Users\stapi\AppData\Local\Temp\ccI1ssAu.s:379    .text.deep_sleep_exit:0000000000000014 .L0 
C:\Users\stapi\AppData\Local\Temp\ccI1ssAu.s:382    .text.deep_sleep_exit:000000000000001a .L0 
C:\Users\stapi\AppData\Local\Temp\ccI1ssAu.s:387    .text.deep_sleep_exit:0000000000000022 .L0 
C:\Users\stapi\AppData\Local\Temp\ccI1ssAu.s:388    .text.deep_sleep_exit:0000000000000022 .L0 
C:/Users/stapi/OneDrive/Desktop/GD32VW553/V1_MQTT_OK/GD32VW55X_Wifi_BLE_SDK/GD32VW55x_RELEASE_V1.0.2/MSDK/plf/src\gd32vw55x_platform.c:203    .text.deep_sleep_exit:0000000000000022 .L0 
C:\Users\stapi\AppData\Local\Temp\ccI1ssAu.s:397    .text.deep_sleep_exit:0000000000000026 .L0 
C:\Users\stapi\AppData\Local\Temp\ccI1ssAu.s:398    .text.deep_sleep_exit:0000000000000026 .L0 
C:\Users\stapi\AppData\Local\Temp\ccI1ssAu.s:402    .text.deep_sleep_exit:0000000000000032 .L0 
C:\Users\stapi\AppData\Local\Temp\ccI1ssAu.s:406    .text.deep_sleep_exit:0000000000000036 .L0 
C:\Users\stapi\AppData\Local\Temp\ccI1ssAu.s:410    .text.deep_sleep_exit:0000000000000038 .L0 
C:\Users\stapi\AppData\Local\Temp\ccI1ssAu.s:415    .text.deep_sleep_exit:0000000000000040 .L0 
C:\Users\stapi\AppData\Local\Temp\ccI1ssAu.s:416    .text.deep_sleep_exit:0000000000000040 .L0 
C:\Users\stapi\AppData\Local\Temp\ccI1ssAu.s:420    .text.deep_sleep_exit:000000000000004c .L0 
C:\Users\stapi\AppData\Local\Temp\ccI1ssAu.s:424    .text.deep_sleep_exit:0000000000000058 .L0 
C:\Users\stapi\AppData\Local\Temp\ccI1ssAu.s:430    .text.deep_sleep_exit:0000000000000064 .L0 
C:\Users\stapi\AppData\Local\Temp\ccI1ssAu.s:431    .text.deep_sleep_exit:0000000000000064 .L0 
C:\Users\stapi\AppData\Local\Temp\ccI1ssAu.s:435    .text.deep_sleep_exit:0000000000000070 .L0 
C:\Users\stapi\AppData\Local\Temp\ccI1ssAu.s:437    .text.deep_sleep_exit:0000000000000072 .L0 
C:\Users\stapi\AppData\Local\Temp\ccI1ssAu.s:442    .text.deep_sleep_exit:000000000000007e .L0 
C:\Users\stapi\AppData\Local\Temp\ccI1ssAu.s:443    .text.deep_sleep_exit:0000000000000086 .L0 
C:\Users\stapi\AppData\Local\Temp\ccI1ssAu.s:444    .text.deep_sleep_exit:0000000000000086 .L0 
C:\Users\stapi\AppData\Local\Temp\ccI1ssAu.s:445    .text.deep_sleep_exit:0000000000000086 .L0 
C:\Users\stapi\AppData\Local\Temp\ccI1ssAu.s:446    .text.deep_sleep_exit:0000000000000086 .L0 
C:\Users\stapi\AppData\Local\Temp\ccI1ssAu.s:453    .text.wlan_exti_enter:0000000000000000 wlan_exti_enter
C:\Users\stapi\AppData\Local\Temp\ccI1ssAu.s:456    .text.wlan_exti_enter:0000000000000000 .L0 
C:\Users\stapi\AppData\Local\Temp\ccI1ssAu.s:457    .text.wlan_exti_enter:0000000000000000 .L0 
C:\Users\stapi\AppData\Local\Temp\ccI1ssAu.s:458    .text.wlan_exti_enter:0000000000000000 .L0 
C:\Users\stapi\AppData\Local\Temp\ccI1ssAu.s:463    .text.wlan_exti_enter:0000000000000010 .L0 
C:\Users\stapi\AppData\Local\Temp\ccI1ssAu.s:470    .text.wlan_exti_exit:0000000000000000 wlan_exti_exit
C:\Users\stapi\AppData\Local\Temp\ccI1ssAu.s:473    .text.wlan_exti_exit:0000000000000000 .L0 
C:\Users\stapi\AppData\Local\Temp\ccI1ssAu.s:474    .text.wlan_exti_exit:0000000000000000 .L0 
C:\Users\stapi\AppData\Local\Temp\ccI1ssAu.s:475    .text.wlan_exti_exit:0000000000000000 .L0 
C:\Users\stapi\AppData\Local\Temp\ccI1ssAu.s:478    .text.wlan_exti_exit:000000000000000c .L0 
C:\Users\stapi\AppData\Local\Temp\ccI1ssAu.s:485    .text.ble_exti_enter:0000000000000000 ble_exti_enter
C:\Users\stapi\AppData\Local\Temp\ccI1ssAu.s:488    .text.ble_exti_enter:0000000000000000 .L0 
C:\Users\stapi\AppData\Local\Temp\ccI1ssAu.s:489    .text.ble_exti_enter:0000000000000000 .L0 
C:\Users\stapi\AppData\Local\Temp\ccI1ssAu.s:490    .text.ble_exti_enter:0000000000000000 .L0 
C:\Users\stapi\AppData\Local\Temp\ccI1ssAu.s:495    .text.ble_exti_enter:0000000000000010 .L0 
C:\Users\stapi\AppData\Local\Temp\ccI1ssAu.s:502    .text.ble_exti_exit:0000000000000000 ble_exti_exit
C:\Users\stapi\AppData\Local\Temp\ccI1ssAu.s:505    .text.ble_exti_exit:0000000000000000 .L0 
C:\Users\stapi\AppData\Local\Temp\ccI1ssAu.s:506    .text.ble_exti_exit:0000000000000000 .L0 
C:\Users\stapi\AppData\Local\Temp\ccI1ssAu.s:507    .text.ble_exti_exit:0000000000000000 .L0 
C:\Users\stapi\AppData\Local\Temp\ccI1ssAu.s:510    .text.ble_exti_exit:000000000000000c .L0 
C:\Users\stapi\AppData\Local\Temp\ccI1ssAu.s:517    .text.ble_pmu_config:0000000000000000 ble_pmu_config
C:\Users\stapi\AppData\Local\Temp\ccI1ssAu.s:520    .text.ble_pmu_config:0000000000000000 .L0 
C:\Users\stapi\AppData\Local\Temp\ccI1ssAu.s:522    .text.ble_pmu_config:0000000000000000 .L0 
C:\Users\stapi\AppData\Local\Temp\ccI1ssAu.s:523    .text.ble_pmu_config:0000000000000008 .L0 
C:\Users\stapi\AppData\Local\Temp\ccI1ssAu.s:524    .text.ble_pmu_config:0000000000000008 .L0 
C:\Users\stapi\AppData\Local\Temp\ccI1ssAu.s:525    .text.ble_pmu_config:0000000000000008 .L0 
C:\Users\stapi\AppData\Local\Temp\ccI1ssAu.s:527    .text.ble_pmu_config:0000000000000008 .L0 
C:\Users\stapi\AppData\Local\Temp\ccI1ssAu.s:528    .text.ble_pmu_config:0000000000000008 .L0 
C:\Users\stapi\AppData\Local\Temp\ccI1ssAu.s:533    .text.ble_pmu_config:0000000000000012 .L0 
C:\Users\stapi\AppData\Local\Temp\ccI1ssAu.s:534    .text.ble_pmu_config:000000000000001a .L0 
C:\Users\stapi\AppData\Local\Temp\ccI1ssAu.s:535    .text.ble_pmu_config:000000000000001a .L0 
C:\Users\stapi\AppData\Local\Temp\ccI1ssAu.s:536    .text.ble_pmu_config:000000000000001a .L0 
C:\Users\stapi\AppData\Local\Temp\ccI1ssAu.s:537    .text.ble_pmu_config:000000000000001a .L0 
C:\Users\stapi\AppData\Local\Temp\ccI1ssAu.s:540    .text.ble_pmu_config:000000000000001a .L0 
C:\Users\stapi\AppData\Local\Temp\ccI1ssAu.s:542    .text.ble_pmu_config:000000000000001a .L0 
C:\Users\stapi\AppData\Local\Temp\ccI1ssAu.s:543    .text.ble_pmu_config:000000000000001a .L0 
C:\Users\stapi\AppData\Local\Temp\ccI1ssAu.s:548    .text.ble_pmu_config:0000000000000026 .L0 
C:\Users\stapi\AppData\Local\Temp\ccI1ssAu.s:551    .text.ble_pmu_config:000000000000002c .L0 
C:\Users\stapi\AppData\Local\Temp\ccI1ssAu.s:556    .text.ble_pmu_config:0000000000000038 .L0 
C:\Users\stapi\AppData\Local\Temp\ccI1ssAu.s:559    .text.ble_pmu_config:000000000000003a .L0 
C:\Users\stapi\AppData\Local\Temp\ccI1ssAu.s:560    .text.ble_pmu_config:000000000000003a .L0 
C:\Users\stapi\AppData\Local\Temp\ccI1ssAu.s:561    .text.ble_pmu_config:000000000000003a .L0 
C:\Users\stapi\AppData\Local\Temp\ccI1ssAu.s:565    .text.ble_pmu_config:0000000000000046 .L0 
C:\Users\stapi\AppData\Local\Temp\ccI1ssAu.s:567    .text.ble_pmu_config:000000000000004c .L0 
C:\Users\stapi\AppData\Local\Temp\ccI1ssAu.s:574    .text.ble_wait_pmu_on:0000000000000000 ble_wait_pmu_on
C:\Users\stapi\AppData\Local\Temp\ccI1ssAu.s:577    .text.ble_wait_pmu_on:0000000000000000 .L0 
C:\Users\stapi\AppData\Local\Temp\ccI1ssAu.s:579    .text.ble_wait_pmu_on:0000000000000000 .L0 
C:\Users\stapi\AppData\Local\Temp\ccI1ssAu.s:580    .text.ble_wait_pmu_on:0000000000000008 .L0 
C:\Users\stapi\AppData\Local\Temp\ccI1ssAu.s:581    .text.ble_wait_pmu_on:0000000000000008 .L0 
C:\Users\stapi\AppData\Local\Temp\ccI1ssAu.s:582    .text.ble_wait_pmu_on:0000000000000008 .L0 
C:\Users\stapi\AppData\Local\Temp\ccI1ssAu.s:583    .text.ble_wait_pmu_on:0000000000000008 .L0 
C:\Users\stapi\AppData\Local\Temp\ccI1ssAu.s:584    .text.ble_wait_pmu_on:0000000000000008 .L0 
C:\Users\stapi\AppData\Local\Temp\ccI1ssAu.s:586    .text.ble_wait_pmu_on:0000000000000008 .L0 
C:\Users\stapi\AppData\Local\Temp\ccI1ssAu.s:587    .text.ble_wait_pmu_on:0000000000000008 .L0 
C:\Users\stapi\AppData\Local\Temp\ccI1ssAu.s:589    .text.ble_wait_pmu_on:000000000000000a .L0 
C:\Users\stapi\AppData\Local\Temp\ccI1ssAu.s:592    .text.ble_wait_pmu_on:000000000000000e .L0 
C:\Users\stapi\AppData\Local\Temp\ccI1ssAu.s:593    .text.ble_wait_pmu_on:000000000000000e .L0 
C:\Users\stapi\AppData\Local\Temp\ccI1ssAu.s:596    .text.ble_wait_pmu_on:0000000000000016 .L0 
C:\Users\stapi\AppData\Local\Temp\ccI1ssAu.s:599    .text.ble_wait_pmu_on:000000000000001e .L0 
C:\Users\stapi\AppData\Local\Temp\ccI1ssAu.s:600    .text.ble_wait_pmu_on:000000000000001e .L0 
C:\Users\stapi\AppData\Local\Temp\ccI1ssAu.s:604    .text.ble_wait_pmu_on:000000000000002a .L0 
C:\Users\stapi\AppData\Local\Temp\ccI1ssAu.s:608    .text.ble_wait_pmu_on:000000000000002c .L0 
C:\Users\stapi\AppData\Local\Temp\ccI1ssAu.s:609    .text.ble_wait_pmu_on:000000000000002c .L0 
C:\Users\stapi\AppData\Local\Temp\ccI1ssAu.s:610    .text.ble_wait_pmu_on:000000000000002c .L0 
C:\Users\stapi\AppData\Local\Temp\ccI1ssAu.s:614    .text.ble_wait_pmu_on:0000000000000038 .L0 
C:\Users\stapi\AppData\Local\Temp\ccI1ssAu.s:616    .text.ble_wait_pmu_on:000000000000003c .L0 
C:\Users\stapi\AppData\Local\Temp\ccI1ssAu.s:619    .text.ble_wait_pmu_on:0000000000000044 .L0 
C:\Users\stapi\AppData\Local\Temp\ccI1ssAu.s:624    .text.ble_wait_pmu_on:0000000000000050 .L0 
C:\Users\stapi\AppData\Local\Temp\ccI1ssAu.s:625    .text.ble_wait_pmu_on:0000000000000058 .L0 
C:\Users\stapi\AppData\Local\Temp\ccI1ssAu.s:626    .text.ble_wait_pmu_on:0000000000000058 .L0 
C:\Users\stapi\AppData\Local\Temp\ccI1ssAu.s:627    .text.ble_wait_pmu_on:0000000000000058 .L0 
C:\Users\stapi\AppData\Local\Temp\ccI1ssAu.s:628    .text.ble_wait_pmu_on:0000000000000058 .L0 
C:\Users\stapi\AppData\Local\Temp\ccI1ssAu.s:629    .text.ble_wait_pmu_on:0000000000000058 .L0 
C:\Users\stapi\AppData\Local\Temp\ccI1ssAu.s:630    .text.ble_wait_pmu_on:0000000000000058 .L0 
C:\Users\stapi\AppData\Local\Temp\ccI1ssAu.s:632    .text.ble_wait_pmu_on:0000000000000058 .L0 
C:\Users\stapi\AppData\Local\Temp\ccI1ssAu.s:634    .text.ble_wait_pmu_on:0000000000000058 .L0 
C:\Users\stapi\AppData\Local\Temp\ccI1ssAu.s:635    .text.ble_wait_pmu_on:0000000000000058 .L0 
C:\Users\stapi\AppData\Local\Temp\ccI1ssAu.s:636    .text.ble_wait_pmu_on:0000000000000058 .L0 
C:\Users\stapi\AppData\Local\Temp\ccI1ssAu.s:640    .text.ble_wait_pmu_on:0000000000000064 .L0 
C:\Users\stapi\AppData\Local\Temp\ccI1ssAu.s:642    .text.ble_wait_pmu_on:000000000000006a .L0 
C:\Users\stapi\AppData\Local\Temp\ccI1ssAu.s:649    .text.ble_rcc_config:0000000000000000 ble_rcc_config
C:\Users\stapi\AppData\Local\Temp\ccI1ssAu.s:652    .text.ble_rcc_config:0000000000000000 .L0 
C:\Users\stapi\AppData\Local\Temp\ccI1ssAu.s:653    .text.ble_rcc_config:0000000000000000 .L0 
C:\Users\stapi\AppData\Local\Temp\ccI1ssAu.s:654    .text.ble_rcc_config:0000000000000008 .L0 
C:\Users\stapi\AppData\Local\Temp\ccI1ssAu.s:655    .text.ble_rcc_config:0000000000000008 .L0 
C:\Users\stapi\AppData\Local\Temp\ccI1ssAu.s:657    .text.ble_rcc_config:0000000000000008 .L0 
C:\Users\stapi\AppData\Local\Temp\ccI1ssAu.s:662    .text.ble_rcc_config:0000000000000016 .L0 
C:\Users\stapi\AppData\Local\Temp\ccI1ssAu.s:666    .text.ble_rcc_config:0000000000000022 .L0 
C:\Users\stapi\AppData\Local\Temp\ccI1ssAu.s:670    .text.ble_rcc_config:000000000000002e .L0 
C:\Users\stapi\AppData\Local\Temp\ccI1ssAu.s:671    .text.ble_rcc_config:0000000000000036 .L0 
C:\Users\stapi\AppData\Local\Temp\ccI1ssAu.s:672    .text.ble_rcc_config:0000000000000036 .L0 
C:\Users\stapi\AppData\Local\Temp\ccI1ssAu.s:673    .text.ble_rcc_config:0000000000000036 .L0 
C:\Users\stapi\AppData\Local\Temp\ccI1ssAu.s:680    .text.ble_power_status_en:0000000000000000 ble_power_status_en
C:\Users\stapi\AppData\Local\Temp\ccI1ssAu.s:683    .text.ble_power_status_en:0000000000000000 .L0 
C:\Users\stapi\AppData\Local\Temp\ccI1ssAu.s:684    .text.ble_power_status_en:0000000000000000 .L0 
C:\Users\stapi\AppData\Local\Temp\ccI1ssAu.s:685    .text.ble_power_status_en:0000000000000008 .L0 
C:\Users\stapi\AppData\Local\Temp\ccI1ssAu.s:686    .text.ble_power_status_en:0000000000000008 .L0 
C:\Users\stapi\AppData\Local\Temp\ccI1ssAu.s:688    .text.ble_power_status_en:0000000000000008 .L0 
C:\Users\stapi\AppData\Local\Temp\ccI1ssAu.s:692    .text.ble_power_status_en:0000000000000012 .L0 
C:\Users\stapi\AppData\Local\Temp\ccI1ssAu.s:696    .text.ble_power_status_en:000000000000001c .L0 
C:\Users\stapi\AppData\Local\Temp\ccI1ssAu.s:697    .text.ble_power_status_en:0000000000000024 .L0 
C:\Users\stapi\AppData\Local\Temp\ccI1ssAu.s:698    .text.ble_power_status_en:0000000000000024 .L0 
C:\Users\stapi\AppData\Local\Temp\ccI1ssAu.s:699    .text.ble_power_status_en:0000000000000024 .L0 
C:\Users\stapi\AppData\Local\Temp\ccI1ssAu.s:706    .text.ble_power_status_rise_status:0000000000000000 ble_power_status_rise_status
C:\Users\stapi\AppData\Local\Temp\ccI1ssAu.s:709    .text.ble_power_status_rise_status:0000000000000000 .L0 
C:\Users\stapi\AppData\Local\Temp\ccI1ssAu.s:710    .text.ble_power_status_rise_status:0000000000000000 .L0 
C:\Users\stapi\AppData\Local\Temp\ccI1ssAu.s:711    .text.ble_power_status_rise_status:0000000000000008 .L0 
C:\Users\stapi\AppData\Local\Temp\ccI1ssAu.s:712    .text.ble_power_status_rise_status:0000000000000008 .L0 
C:\Users\stapi\AppData\Local\Temp\ccI1ssAu.s:714    .text.ble_power_status_rise_status:0000000000000008 .L0 
C:\Users\stapi\AppData\Local\Temp\ccI1ssAu.s:715    .text.ble_power_status_rise_status:0000000000000008 .L0 
C:\Users\stapi\AppData\Local\Temp\ccI1ssAu.s:719    .text.ble_power_status_rise_status:0000000000000012 .L0 
C:\Users\stapi\AppData\Local\Temp\ccI1ssAu.s:721    .text.ble_power_status_rise_status:0000000000000014 .L0 
C:\Users\stapi\AppData\Local\Temp\ccI1ssAu.s:723    .text.ble_power_status_rise_status:0000000000000020 .L0 
C:\Users\stapi\AppData\Local\Temp\ccI1ssAu.s:724    .text.ble_power_status_rise_status:0000000000000020 .L0 
C:\Users\stapi\AppData\Local\Temp\ccI1ssAu.s:725    .text.ble_power_status_rise_status:0000000000000020 .L0 
C:\Users\stapi\AppData\Local\Temp\ccI1ssAu.s:732    .text.ble_power_status_rise_clear:0000000000000000 ble_power_status_rise_clear
C:\Users\stapi\AppData\Local\Temp\ccI1ssAu.s:735    .text.ble_power_status_rise_clear:0000000000000000 .L0 
C:\Users\stapi\AppData\Local\Temp\ccI1ssAu.s:736    .text.ble_power_status_rise_clear:0000000000000000 .L0 
C:\Users\stapi\AppData\Local\Temp\ccI1ssAu.s:737    .text.ble_power_status_rise_clear:0000000000000000 .L0 
C:\Users\stapi\AppData\Local\Temp\ccI1ssAu.s:740    .text.ble_power_status_rise_clear:000000000000000a .L0 
C:\Users\stapi\AppData\Local\Temp\ccI1ssAu.s:747    .text.ble_power_status_fall_status:0000000000000000 ble_power_status_fall_status
C:\Users\stapi\AppData\Local\Temp\ccI1ssAu.s:750    .text.ble_power_status_fall_status:0000000000000000 .L0 
C:\Users\stapi\AppData\Local\Temp\ccI1ssAu.s:751    .text.ble_power_status_fall_status:0000000000000000 .L0 
C:\Users\stapi\AppData\Local\Temp\ccI1ssAu.s:752    .text.ble_power_status_fall_status:0000000000000008 .L0 
C:\Users\stapi\AppData\Local\Temp\ccI1ssAu.s:753    .text.ble_power_status_fall_status:0000000000000008 .L0 
C:\Users\stapi\AppData\Local\Temp\ccI1ssAu.s:755    .text.ble_power_status_fall_status:0000000000000008 .L0 
C:\Users\stapi\AppData\Local\Temp\ccI1ssAu.s:756    .text.ble_power_status_fall_status:0000000000000008 .L0 
C:\Users\stapi\AppData\Local\Temp\ccI1ssAu.s:760    .text.ble_power_status_fall_status:0000000000000012 .L0 
C:\Users\stapi\AppData\Local\Temp\ccI1ssAu.s:762    .text.ble_power_status_fall_status:0000000000000014 .L0 
C:\Users\stapi\AppData\Local\Temp\ccI1ssAu.s:764    .text.ble_power_status_fall_status:0000000000000020 .L0 
C:\Users\stapi\AppData\Local\Temp\ccI1ssAu.s:765    .text.ble_power_status_fall_status:0000000000000020 .L0 
C:\Users\stapi\AppData\Local\Temp\ccI1ssAu.s:766    .text.ble_power_status_fall_status:0000000000000020 .L0 
C:\Users\stapi\AppData\Local\Temp\ccI1ssAu.s:773    .text.ble_power_status_fall_clear:0000000000000000 ble_power_status_fall_clear
C:\Users\stapi\AppData\Local\Temp\ccI1ssAu.s:776    .text.ble_power_status_fall_clear:0000000000000000 .L0 
C:\Users\stapi\AppData\Local\Temp\ccI1ssAu.s:777    .text.ble_power_status_fall_clear:0000000000000000 .L0 
C:\Users\stapi\AppData\Local\Temp\ccI1ssAu.s:778    .text.ble_power_status_fall_clear:0000000000000000 .L0 
C:\Users\stapi\AppData\Local\Temp\ccI1ssAu.s:781    .text.ble_power_status_fall_clear:000000000000000a .L0 
C:\Users\stapi\AppData\Local\Temp\ccI1ssAu.s:788    .text.ble_external_wakeup:0000000000000000 ble_external_wakeup
C:\Users\stapi\AppData\Local\Temp\ccI1ssAu.s:791    .text.ble_external_wakeup:0000000000000000 .L0 
C:\Users\stapi\AppData\Local\Temp\ccI1ssAu.s:792    .text.ble_external_wakeup:0000000000000000 .L0 
C:\Users\stapi\AppData\Local\Temp\ccI1ssAu.s:793    .text.ble_external_wakeup:0000000000000000 .L0 
C:\Users\stapi\AppData\Local\Temp\ccI1ssAu.s:795    .text.ble_external_wakeup:0000000000000008 .L0 
C:\Users\stapi\AppData\Local\Temp\ccI1ssAu.s:802    .text.ble_external_wakeup_clear:0000000000000000 ble_external_wakeup_clear
C:\Users\stapi\AppData\Local\Temp\ccI1ssAu.s:805    .text.ble_external_wakeup_clear:0000000000000000 .L0 
C:\Users\stapi\AppData\Local\Temp\ccI1ssAu.s:806    .text.ble_external_wakeup_clear:0000000000000000 .L0 
C:\Users\stapi\AppData\Local\Temp\ccI1ssAu.s:807    .text.ble_external_wakeup_clear:0000000000000000 .L0 
C:\Users\stapi\AppData\Local\Temp\ccI1ssAu.s:809    .text.ble_external_wakeup_clear:0000000000000008 .L0 
C:\Users\stapi\AppData\Local\Temp\ccI1ssAu.s:816    .text.ble_sleep_measure_clock_get:0000000000000000 ble_sleep_measure_clock_get
C:\Users\stapi\AppData\Local\Temp\ccI1ssAu.s:819    .text.ble_sleep_measure_clock_get:0000000000000000 .L0 
C:\Users\stapi\AppData\Local\Temp\ccI1ssAu.s:820    .text.ble_sleep_measure_clock_get:0000000000000000 .L0 
C:\Users\stapi\AppData\Local\Temp\ccI1ssAu.s:821    .text.ble_sleep_measure_clock_get:0000000000000000 .L0 
C:\Users\stapi\AppData\Local\Temp\ccI1ssAu.s:822    .text.ble_sleep_measure_clock_get:0000000000000000 .L0 
C:\Users\stapi\AppData\Local\Temp\ccI1ssAu.s:825    .text.ble_sleep_measure_clock_get:000000000000000a .L0 
C:\Users\stapi\AppData\Local\Temp\ccI1ssAu.s:832    .text.ble_power_on:0000000000000000 ble_power_on
C:\Users\stapi\AppData\Local\Temp\ccI1ssAu.s:835    .text.ble_power_on:0000000000000000 .L0 
C:\Users\stapi\AppData\Local\Temp\ccI1ssAu.s:836    .text.ble_power_on:0000000000000000 .L0 
C:\Users\stapi\AppData\Local\Temp\ccI1ssAu.s:837    .text.ble_power_on:0000000000000008 .L0 
C:\Users\stapi\AppData\Local\Temp\ccI1ssAu.s:838    .text.ble_power_on:0000000000000008 .L0 
C:\Users\stapi\AppData\Local\Temp\ccI1ssAu.s:843    .text.ble_power_on:0000000000000008 .L0 
C:\Users\stapi\AppData\Local\Temp\ccI1ssAu.s:844    .text.ble_power_on:0000000000000008 .L0 
C:\Users\stapi\AppData\Local\Temp\ccI1ssAu.s:849    .text.ble_power_on:0000000000000010 .L0 
C:\Users\stapi\AppData\Local\Temp\ccI1ssAu.s:852    .text.ble_power_on:0000000000000018 .L0 
C:\Users\stapi\AppData\Local\Temp\ccI1ssAu.s:855    .text.ble_power_on:0000000000000020 .L0 
C:\Users\stapi\AppData\Local\Temp\ccI1ssAu.s:856    .text.ble_power_on:0000000000000028 .L0 
C:\Users\stapi\AppData\Local\Temp\ccI1ssAu.s:857    .text.ble_power_on:0000000000000028 .L0 
C:\Users\stapi\AppData\Local\Temp\ccI1ssAu.s:858    .text.ble_power_on:0000000000000028 .L0 
C:\Users\stapi\AppData\Local\Temp\ccI1ssAu.s:865    .text.ble_power_off:0000000000000000 ble_power_off
C:\Users\stapi\AppData\Local\Temp\ccI1ssAu.s:868    .text.ble_power_off:0000000000000000 .L0 
C:\Users\stapi\AppData\Local\Temp\ccI1ssAu.s:869    .text.ble_power_off:0000000000000000 .L0 
C:\Users\stapi\AppData\Local\Temp\ccI1ssAu.s:870    .text.ble_power_off:0000000000000008 .L0 
C:\Users\stapi\AppData\Local\Temp\ccI1ssAu.s:871    .text.ble_power_off:0000000000000008 .L0 
C:\Users\stapi\AppData\Local\Temp\ccI1ssAu.s:873    .text.ble_power_off:0000000000000008 .L0 
C:\Users\stapi\AppData\Local\Temp\ccI1ssAu.s:877    .text.ble_power_off:0000000000000012 .L0 
C:\Users\stapi\AppData\Local\Temp\ccI1ssAu.s:882    .text.ble_power_off:0000000000000020 .L0 
C:\Users\stapi\AppData\Local\Temp\ccI1ssAu.s:883    .text.ble_power_off:0000000000000028 .L0 
C:\Users\stapi\AppData\Local\Temp\ccI1ssAu.s:884    .text.ble_power_off:0000000000000028 .L0 
C:\Users\stapi\AppData\Local\Temp\ccI1ssAu.s:885    .text.ble_power_off:0000000000000028 .L0 
C:\Users\stapi\AppData\Local\Temp\ccI1ssAu.s:892    .text.hw_crc32_enable:0000000000000000 hw_crc32_enable
C:\Users\stapi\AppData\Local\Temp\ccI1ssAu.s:895    .text.hw_crc32_enable:0000000000000000 .L0 
C:\Users\stapi\AppData\Local\Temp\ccI1ssAu.s:896    .text.hw_crc32_enable:0000000000000000 .L0 
C:\Users\stapi\AppData\Local\Temp\ccI1ssAu.s:897    .text.hw_crc32_enable:0000000000000008 .L0 
C:\Users\stapi\AppData\Local\Temp\ccI1ssAu.s:898    .text.hw_crc32_enable:0000000000000008 .L0 
C:\Users\stapi\AppData\Local\Temp\ccI1ssAu.s:900    .text.hw_crc32_enable:0000000000000008 .L0 
C:\Users\stapi\AppData\Local\Temp\ccI1ssAu.s:905    .text.hw_crc32_enable:0000000000000016 .L0 
C:\Users\stapi\AppData\Local\Temp\ccI1ssAu.s:908    .text.hw_crc32_enable:000000000000001e .L0 
C:\Users\stapi\AppData\Local\Temp\ccI1ssAu.s:909    .text.hw_crc32_enable:0000000000000026 .L0 
C:\Users\stapi\AppData\Local\Temp\ccI1ssAu.s:910    .text.hw_crc32_enable:0000000000000026 .L0 
C:\Users\stapi\AppData\Local\Temp\ccI1ssAu.s:911    .text.hw_crc32_enable:0000000000000026 .L0 
C:\Users\stapi\AppData\Local\Temp\ccI1ssAu.s:918    .text.hw_crc32_single:0000000000000000 hw_crc32_single
C:\Users\stapi\AppData\Local\Temp\ccI1ssAu.s:921    .text.hw_crc32_single:0000000000000000 .L0 
C:\Users\stapi\AppData\Local\Temp\ccI1ssAu.s:923    .text.hw_crc32_single:0000000000000000 .L0 
C:\Users\stapi\AppData\Local\Temp\ccI1ssAu.s:924    .text.hw_crc32_single:0000000000000000 .L0 
C:\Users\stapi\AppData\Local\Temp\ccI1ssAu.s:925    .text.hw_crc32_single:0000000000000000 .L0 
C:\Users\stapi\AppData\Local\Temp\ccI1ssAu.s:927    .text.hw_crc32_single:0000000000000008 .L0 
C:\Users\stapi\AppData\Local\Temp\ccI1ssAu.s:934    .text.hw_crc32_disable:0000000000000000 hw_crc32_disable
C:\Users\stapi\AppData\Local\Temp\ccI1ssAu.s:937    .text.hw_crc32_disable:0000000000000000 .L0 
C:\Users\stapi\AppData\Local\Temp\ccI1ssAu.s:938    .text.hw_crc32_disable:0000000000000000 .L0 
C:\Users\stapi\AppData\Local\Temp\ccI1ssAu.s:939    .text.hw_crc32_disable:0000000000000000 .L0 
C:\Users\stapi\AppData\Local\Temp\ccI1ssAu.s:943    .text.hw_crc32_disable:000000000000000e .L0 
C:\Users\stapi\AppData\Local\Temp\ccI1ssAu.s:950    .text.ble_wakelock_acquire:0000000000000000 ble_wakelock_acquire
C:\Users\stapi\AppData\Local\Temp\ccI1ssAu.s:953    .text.ble_wakelock_acquire:0000000000000000 .L0 
C:\Users\stapi\AppData\Local\Temp\ccI1ssAu.s:954    .text.ble_wakelock_acquire:0000000000000000 .L0 
C:\Users\stapi\AppData\Local\Temp\ccI1ssAu.s:955    .text.ble_wakelock_acquire:0000000000000000 .L0 
C:\Users\stapi\AppData\Local\Temp\ccI1ssAu.s:958    .text.ble_wakelock_acquire:000000000000000a .L0 
C:\Users\stapi\AppData\Local\Temp\ccI1ssAu.s:965    .text.ble_wakelock_release:0000000000000000 ble_wakelock_release
C:\Users\stapi\AppData\Local\Temp\ccI1ssAu.s:968    .text.ble_wakelock_release:0000000000000000 .L0 
C:\Users\stapi\AppData\Local\Temp\ccI1ssAu.s:969    .text.ble_wakelock_release:0000000000000000 .L0 
C:\Users\stapi\AppData\Local\Temp\ccI1ssAu.s:970    .text.ble_wakelock_release:0000000000000000 .L0 
C:\Users\stapi\AppData\Local\Temp\ccI1ssAu.s:973    .text.ble_wakelock_release:000000000000000a .L0 
C:\Users\stapi\AppData\Local\Temp\ccI1ssAu.s:980    .text.wifi_wakelock_acquire:0000000000000000 wifi_wakelock_acquire
C:\Users\stapi\AppData\Local\Temp\ccI1ssAu.s:983    .text.wifi_wakelock_acquire:0000000000000000 .L0 
C:\Users\stapi\AppData\Local\Temp\ccI1ssAu.s:984    .text.wifi_wakelock_acquire:0000000000000000 .L0 
C:\Users\stapi\AppData\Local\Temp\ccI1ssAu.s:985    .text.wifi_wakelock_acquire:0000000000000000 .L0 
C:\Users\stapi\AppData\Local\Temp\ccI1ssAu.s:988    .text.wifi_wakelock_acquire:000000000000000a .L0 
C:\Users\stapi\AppData\Local\Temp\ccI1ssAu.s:995    .text.wifi_wakelock_release:0000000000000000 wifi_wakelock_release
C:\Users\stapi\AppData\Local\Temp\ccI1ssAu.s:998    .text.wifi_wakelock_release:0000000000000000 .L0 
C:\Users\stapi\AppData\Local\Temp\ccI1ssAu.s:999    .text.wifi_wakelock_release:0000000000000000 .L0 
C:\Users\stapi\AppData\Local\Temp\ccI1ssAu.s:1000   .text.wifi_wakelock_release:0000000000000000 .L0 
C:\Users\stapi\AppData\Local\Temp\ccI1ssAu.s:1003   .text.wifi_wakelock_release:000000000000000a .L0 
C:\Users\stapi\AppData\Local\Temp\ccI1ssAu.s:1010   .text.wifi_pmu_config:0000000000000000 wifi_pmu_config
C:\Users\stapi\AppData\Local\Temp\ccI1ssAu.s:1013   .text.wifi_pmu_config:0000000000000000 .L0 
C:\Users\stapi\AppData\Local\Temp\ccI1ssAu.s:1014   .text.wifi_pmu_config:0000000000000000 .L0 
C:\Users\stapi\AppData\Local\Temp\ccI1ssAu.s:1015   .text.wifi_pmu_config:0000000000000008 .L0 
C:\Users\stapi\AppData\Local\Temp\ccI1ssAu.s:1016   .text.wifi_pmu_config:0000000000000008 .L0 
C:\Users\stapi\AppData\Local\Temp\ccI1ssAu.s:1017   .text.wifi_pmu_config:0000000000000008 .L0 
C:\Users\stapi\AppData\Local\Temp\ccI1ssAu.s:1018   .text.wifi_pmu_config:0000000000000008 .L0 
C:\Users\stapi\AppData\Local\Temp\ccI1ssAu.s:1020   .text.wifi_pmu_config:0000000000000008 .L0 
C:\Users\stapi\AppData\Local\Temp\ccI1ssAu.s:1023   .text.wifi_pmu_config:0000000000000010 .L0 
C:\Users\stapi\AppData\Local\Temp\ccI1ssAu.s:1025   .text.wifi_pmu_config:0000000000000012 .L0 
C:\Users\stapi\AppData\Local\Temp\ccI1ssAu.s:1027   .text.wifi_pmu_config:0000000000000016 .L0 
C:\Users\stapi\AppData\Local\Temp\ccI1ssAu.s:1030   .text.wifi_pmu_config:000000000000001e .L0 
C:\Users\stapi\AppData\Local\Temp\ccI1ssAu.s:1031   .text.wifi_pmu_config:000000000000001e .L0 
C:\Users\stapi\AppData\Local\Temp\ccI1ssAu.s:1033   .text.wifi_pmu_config:0000000000000020 .L0 
C:\Users\stapi\AppData\Local\Temp\ccI1ssAu.s:1036   .text.wifi_pmu_config:0000000000000022 .L0 
C:\Users\stapi\AppData\Local\Temp\ccI1ssAu.s:1037   .text.wifi_pmu_config:0000000000000022 .L0 
C:\Users\stapi\AppData\Local\Temp\ccI1ssAu.s:1041   .text.wifi_pmu_config:000000000000002c .L0 
C:\Users\stapi\AppData\Local\Temp\ccI1ssAu.s:1043   .text.wifi_pmu_config:0000000000000030 .L0 
C:\Users\stapi\AppData\Local\Temp\ccI1ssAu.s:1044   .text.wifi_pmu_config:0000000000000038 .L0 
C:\Users\stapi\AppData\Local\Temp\ccI1ssAu.s:1045   .text.wifi_pmu_config:0000000000000038 .L0 
C:\Users\stapi\AppData\Local\Temp\ccI1ssAu.s:1046   .text.wifi_pmu_config:0000000000000038 .L0 
C:\Users\stapi\AppData\Local\Temp\ccI1ssAu.s:1047   .text.wifi_pmu_config:0000000000000038 .L0 
C:\Users\stapi\AppData\Local\Temp\ccI1ssAu.s:1048   .text.wifi_pmu_config:0000000000000038 .L0 
C:\Users\stapi\AppData\Local\Temp\ccI1ssAu.s:1050   .text.wifi_pmu_config:0000000000000038 .L0 
C:\Users\stapi\AppData\Local\Temp\ccI1ssAu.s:1052   .text.wifi_pmu_config:0000000000000038 .L0 
C:\Users\stapi\AppData\Local\Temp\ccI1ssAu.s:1056   .text.wifi_pmu_config:0000000000000042 .L0 
C:\Users\stapi\AppData\Local\Temp\ccI1ssAu.s:1060   .text.wifi_pmu_config:0000000000000050 .L0 
C:\Users\stapi\AppData\Local\Temp\ccI1ssAu.s:1067   .text.wifi_rcc_config:0000000000000000 wifi_rcc_config
C:\Users\stapi\AppData\Local\Temp\ccI1ssAu.s:1070   .text.wifi_rcc_config:0000000000000000 .L0 
C:\Users\stapi\AppData\Local\Temp\ccI1ssAu.s:1071   .text.wifi_rcc_config:0000000000000000 .L0 
C:\Users\stapi\AppData\Local\Temp\ccI1ssAu.s:1072   .text.wifi_rcc_config:0000000000000008 .L0 
C:\Users\stapi\AppData\Local\Temp\ccI1ssAu.s:1073   .text.wifi_rcc_config:0000000000000008 .L0 
C:\Users\stapi\AppData\Local\Temp\ccI1ssAu.s:1074   .text.wifi_rcc_config:0000000000000008 .L0 
C:\Users\stapi\AppData\Local\Temp\ccI1ssAu.s:1076   .text.wifi_rcc_config:0000000000000008 .L0 
C:\Users\stapi\AppData\Local\Temp\ccI1ssAu.s:1081   .text.wifi_rcc_config:0000000000000016 .L0 
C:\Users\stapi\AppData\Local\Temp\ccI1ssAu.s:1085   .text.wifi_rcc_config:0000000000000022 .L0 
C:\Users\stapi\AppData\Local\Temp\ccI1ssAu.s:1089   .text.wifi_rcc_config:000000000000002e .L0 
C:\Users\stapi\AppData\Local\Temp\ccI1ssAu.s:1093   .text.wifi_rcc_config:000000000000003a .L0 
C:\Users\stapi\AppData\Local\Temp\ccI1ssAu.s:1094   .text.wifi_rcc_config:0000000000000042 .L0 
C:\Users\stapi\AppData\Local\Temp\ccI1ssAu.s:1095   .text.wifi_rcc_config:0000000000000042 .L0 
C:\Users\stapi\AppData\Local\Temp\ccI1ssAu.s:1096   .text.wifi_rcc_config:0000000000000042 .L0 
C:\Users\stapi\AppData\Local\Temp\ccI1ssAu.s:1097   .text.wifi_rcc_config:0000000000000042 .L0 
C:\Users\stapi\AppData\Local\Temp\ccI1ssAu.s:1104   .text.wifi_irq_enable:0000000000000000 wifi_irq_enable
C:\Users\stapi\AppData\Local\Temp\ccI1ssAu.s:1107   .text.wifi_irq_enable:0000000000000000 .L0 
C:\Users\stapi\AppData\Local\Temp\ccI1ssAu.s:1108   .text.wifi_irq_enable:0000000000000000 .L0 
C:\Users\stapi\AppData\Local\Temp\ccI1ssAu.s:1109   .text.wifi_irq_enable:0000000000000008 .L0 
C:\Users\stapi\AppData\Local\Temp\ccI1ssAu.s:1110   .text.wifi_irq_enable:0000000000000008 .L0 
C:\Users\stapi\AppData\Local\Temp\ccI1ssAu.s:1112   .text.wifi_irq_enable:0000000000000008 .L0 
C:\Users\stapi\AppData\Local\Temp\ccI1ssAu.s:1118   .text.wifi_irq_enable:0000000000000018 .L0 
C:\Users\stapi\AppData\Local\Temp\ccI1ssAu.s:1124   .text.wifi_irq_enable:0000000000000028 .L0 
C:\Users\stapi\AppData\Local\Temp\ccI1ssAu.s:1130   .text.wifi_irq_enable:0000000000000038 .L0 
C:\Users\stapi\AppData\Local\Temp\ccI1ssAu.s:1136   .text.wifi_irq_enable:0000000000000048 .L0 
C:\Users\stapi\AppData\Local\Temp\ccI1ssAu.s:1142   .text.wifi_irq_enable:0000000000000058 .L0 
C:\Users\stapi\AppData\Local\Temp\ccI1ssAu.s:1148   .text.wifi_irq_enable:0000000000000068 .L0 
C:\Users\stapi\AppData\Local\Temp\ccI1ssAu.s:1154   .text.wifi_irq_enable:0000000000000078 .L0 
C:\Users\stapi\AppData\Local\Temp\ccI1ssAu.s:1157   .text.wifi_irq_enable:0000000000000080 .L0 
C:\Users\stapi\AppData\Local\Temp\ccI1ssAu.s:1158   .text.wifi_irq_enable:0000000000000088 .L0 
C:\Users\stapi\AppData\Local\Temp\ccI1ssAu.s:1159   .text.wifi_irq_enable:0000000000000088 .L0 
C:\Users\stapi\AppData\Local\Temp\ccI1ssAu.s:1160   .text.wifi_irq_enable:0000000000000088 .L0 
C:\Users\stapi\AppData\Local\Temp\ccI1ssAu.s:1167   .text.wifi_irq_disable:0000000000000000 wifi_irq_disable
C:\Users\stapi\AppData\Local\Temp\ccI1ssAu.s:1170   .text.wifi_irq_disable:0000000000000000 .L0 
C:\Users\stapi\AppData\Local\Temp\ccI1ssAu.s:1171   .text.wifi_irq_disable:0000000000000000 .L0 
C:\Users\stapi\AppData\Local\Temp\ccI1ssAu.s:1172   .text.wifi_irq_disable:0000000000000008 .L0 
C:\Users\stapi\AppData\Local\Temp\ccI1ssAu.s:1173   .text.wifi_irq_disable:0000000000000008 .L0 
C:\Users\stapi\AppData\Local\Temp\ccI1ssAu.s:1175   .text.wifi_irq_disable:0000000000000008 .L0 
C:\Users\stapi\AppData\Local\Temp\ccI1ssAu.s:1178   .text.wifi_irq_disable:0000000000000010 .L0 
C:\Users\stapi\AppData\Local\Temp\ccI1ssAu.s:1182   .text.wifi_irq_disable:000000000000001c .L0 
C:\Users\stapi\AppData\Local\Temp\ccI1ssAu.s:1186   .text.wifi_irq_disable:0000000000000028 .L0 
C:\Users\stapi\AppData\Local\Temp\ccI1ssAu.s:1190   .text.wifi_irq_disable:0000000000000034 .L0 
C:\Users\stapi\AppData\Local\Temp\ccI1ssAu.s:1194   .text.wifi_irq_disable:0000000000000040 .L0 
C:\Users\stapi\AppData\Local\Temp\ccI1ssAu.s:1198   .text.wifi_irq_disable:000000000000004c .L0 
C:\Users\stapi\AppData\Local\Temp\ccI1ssAu.s:1202   .text.wifi_irq_disable:0000000000000058 .L0 
C:\Users\stapi\AppData\Local\Temp\ccI1ssAu.s:1206   .text.wifi_irq_disable:0000000000000064 .L0 
C:\Users\stapi\AppData\Local\Temp\ccI1ssAu.s:1207   .text.wifi_irq_disable:000000000000006c .L0 
C:\Users\stapi\AppData\Local\Temp\ccI1ssAu.s:1208   .text.wifi_irq_disable:000000000000006c .L0 
C:\Users\stapi\AppData\Local\Temp\ccI1ssAu.s:1209   .text.wifi_irq_disable:000000000000006c .L0 
C:\Users\stapi\AppData\Local\Temp\ccI1ssAu.s:1216   .text.wifi_power_on:0000000000000000 wifi_power_on
C:\Users\stapi\AppData\Local\Temp\ccI1ssAu.s:1219   .text.wifi_power_on:0000000000000000 .L0 
C:\Users\stapi\AppData\Local\Temp\ccI1ssAu.s:1220   .text.wifi_power_on:0000000000000000 .L0 
C:\Users\stapi\AppData\Local\Temp\ccI1ssAu.s:1221   .text.wifi_power_on:0000000000000008 .L0 
C:\Users\stapi\AppData\Local\Temp\ccI1ssAu.s:1222   .text.wifi_power_on:0000000000000008 .L0 
C:\Users\stapi\AppData\Local\Temp\ccI1ssAu.s:1224   .text.wifi_power_on:0000000000000008 .L0 
C:\Users\stapi\AppData\Local\Temp\ccI1ssAu.s:1227   .text.wifi_power_on:0000000000000010 .L0 
C:\Users\stapi\AppData\Local\Temp\ccI1ssAu.s:1230   .text.wifi_power_on:0000000000000018 .L0 
C:\Users\stapi\AppData\Local\Temp\ccI1ssAu.s:1231   .text.wifi_power_on:0000000000000018 .L0 
C:\Users\stapi\AppData\Local\Temp\ccI1ssAu.s:1233   .text.wifi_power_on:0000000000000022 .L0 
C:\Users\stapi\AppData\Local\Temp\ccI1ssAu.s:1234   .text.wifi_power_on:0000000000000022 .L0 
C:\Users\stapi\AppData\Local\Temp\ccI1ssAu.s:1235   .text.wifi_power_on:0000000000000022 .L0 
C:\Users\stapi\AppData\Local\Temp\ccI1ssAu.s:1242   .text.wifi_power_off:0000000000000000 wifi_power_off
C:\Users\stapi\AppData\Local\Temp\ccI1ssAu.s:1245   .text.wifi_power_off:0000000000000000 .L0 
C:\Users\stapi\AppData\Local\Temp\ccI1ssAu.s:1246   .text.wifi_power_off:0000000000000000 .L0 
C:\Users\stapi\AppData\Local\Temp\ccI1ssAu.s:1247   .text.wifi_power_off:0000000000000008 .L0 
C:\Users\stapi\AppData\Local\Temp\ccI1ssAu.s:1248   .text.wifi_power_off:0000000000000008 .L0 
C:\Users\stapi\AppData\Local\Temp\ccI1ssAu.s:1249   .text.wifi_power_off:0000000000000008 .L0 
C:\Users\stapi\AppData\Local\Temp\ccI1ssAu.s:1251   .text.wifi_power_off:0000000000000008 .L0 
C:\Users\stapi\AppData\Local\Temp\ccI1ssAu.s:1256   .text.wifi_power_off:0000000000000016 .L0 
C:\Users\stapi\AppData\Local\Temp\ccI1ssAu.s:1260   .text.wifi_power_off:0000000000000022 .L0 
C:\Users\stapi\AppData\Local\Temp\ccI1ssAu.s:1264   .text.wifi_power_off:000000000000002c .L0 
C:\Users\stapi\AppData\Local\Temp\ccI1ssAu.s:1265   .text.wifi_power_off:0000000000000034 .L0 
C:\Users\stapi\AppData\Local\Temp\ccI1ssAu.s:1266   .text.wifi_power_off:0000000000000034 .L0 
C:\Users\stapi\AppData\Local\Temp\ccI1ssAu.s:1267   .text.wifi_power_off:0000000000000034 .L0 
C:\Users\stapi\AppData\Local\Temp\ccI1ssAu.s:1268   .text.wifi_power_off:0000000000000034 .L0 
C:\Users\stapi\AppData\Local\Temp\ccI1ssAu.s:1275   .text.wifi_led_config:0000000000000000 wifi_led_config
C:\Users\stapi\AppData\Local\Temp\ccI1ssAu.s:1278   .text.wifi_led_config:0000000000000000 .L0 
C:\Users\stapi\AppData\Local\Temp\ccI1ssAu.s:1279   .text.wifi_led_config:0000000000000000 .L0 
C:\Users\stapi\AppData\Local\Temp\ccI1ssAu.s:1280   .text.wifi_led_config:0000000000000008 .L0 
C:\Users\stapi\AppData\Local\Temp\ccI1ssAu.s:1281   .text.wifi_led_config:0000000000000008 .L0 
C:\Users\stapi\AppData\Local\Temp\ccI1ssAu.s:1282   .text.wifi_led_config:0000000000000008 .L0 
C:\Users\stapi\AppData\Local\Temp\ccI1ssAu.s:1284   .text.wifi_led_config:0000000000000008 .L0 
C:\Users\stapi\AppData\Local\Temp\ccI1ssAu.s:1287   .text.wifi_led_config:000000000000000e .L0 
C:\Users\stapi\AppData\Local\Temp\ccI1ssAu.s:1289   .text.wifi_led_config:0000000000000012 .L0 
C:\Users\stapi\AppData\Local\Temp\ccI1ssAu.s:1292   .text.wifi_led_config:000000000000001a .L0 
C:\Users\stapi\AppData\Local\Temp\ccI1ssAu.s:1299   .text.wifi_led_config:000000000000002c .L0 
C:\Users\stapi\AppData\Local\Temp\ccI1ssAu.s:1306   .text.wifi_led_config:000000000000003e .L0 
C:\Users\stapi\AppData\Local\Temp\ccI1ssAu.s:1313   .text.wifi_led_config:0000000000000050 .L0 
C:\Users\stapi\AppData\Local\Temp\ccI1ssAu.s:1320   .text.wifi_led_config:0000000000000062 .L0 
C:\Users\stapi\AppData\Local\Temp\ccI1ssAu.s:1327   .text.wifi_led_config:0000000000000074 .L0 
C:\Users\stapi\AppData\Local\Temp\ccI1ssAu.s:1334   .text.wifi_led_config:0000000000000086 .L0 
C:\Users\stapi\AppData\Local\Temp\ccI1ssAu.s:1335   .text.wifi_led_config:000000000000008e .L0 
C:\Users\stapi\AppData\Local\Temp\ccI1ssAu.s:1336   .text.wifi_led_config:000000000000008e .L0 
C:\Users\stapi\AppData\Local\Temp\ccI1ssAu.s:1337   .text.wifi_led_config:000000000000008e .L0 
C:\Users\stapi\AppData\Local\Temp\ccI1ssAu.s:1338   .text.wifi_led_config:000000000000008e .L0 
C:\Users\stapi\AppData\Local\Temp\ccI1ssAu.s:1345   .text.rf_pmu_par_config:0000000000000000 rf_pmu_par_config
C:\Users\stapi\AppData\Local\Temp\ccI1ssAu.s:1348   .text.rf_pmu_par_config:0000000000000000 .L0 
C:\Users\stapi\AppData\Local\Temp\ccI1ssAu.s:1349   .text.rf_pmu_par_config:0000000000000000 .L0 
C:\Users\stapi\AppData\Local\Temp\ccI1ssAu.s:1350   .text.rf_pmu_par_config:0000000000000000 .L0 
C:\Users\stapi\AppData\Local\Temp\ccI1ssAu.s:1351   .text.rf_pmu_par_config:0000000000000000 .L0 
C:\Users\stapi\AppData\Local\Temp\ccI1ssAu.s:1354   .text.rf_pmu_par_config:0000000000000006 .L0 
C:\Users\stapi\AppData\Local\Temp\ccI1ssAu.s:1356   .text.rf_pmu_par_config:000000000000000a .L0 
C:\Users\stapi\AppData\Local\Temp\ccI1ssAu.s:1358   .text.rf_pmu_par_config:000000000000000c .L0 
C:\Users\stapi\AppData\Local\Temp\ccI1ssAu.s:1359   .text.rf_pmu_par_config:000000000000000e .L0 
C:\Users\stapi\AppData\Local\Temp\ccI1ssAu.s:1366   .text.rf_power_on:0000000000000000 rf_power_on
C:\Users\stapi\AppData\Local\Temp\ccI1ssAu.s:1369   .text.rf_power_on:0000000000000000 .L0 
C:\Users\stapi\AppData\Local\Temp\ccI1ssAu.s:1370   .text.rf_power_on:0000000000000000 .L0 
C:\Users\stapi\AppData\Local\Temp\ccI1ssAu.s:1371   .text.rf_power_on:0000000000000008 .L0 
C:\Users\stapi\AppData\Local\Temp\ccI1ssAu.s:1372   .text.rf_power_on:0000000000000008 .L0 
C:\Users\stapi\AppData\Local\Temp\ccI1ssAu.s:1373   .text.rf_power_on:0000000000000008 .L0 
C:\Users\stapi\AppData\Local\Temp\ccI1ssAu.s:1377   .text.rf_power_on:0000000000000008 .L0 
C:\Users\stapi\AppData\Local\Temp\ccI1ssAu.s:1378   .text.rf_power_on:0000000000000008 .L0 
C:\Users\stapi\AppData\Local\Temp\ccI1ssAu.s:1379   .text.rf_power_on:0000000000000008 .L0 
C:\Users\stapi\AppData\Local\Temp\ccI1ssAu.s:1381   .text.rf_power_on:000000000000000c .L0 
C:\Users\stapi\AppData\Local\Temp\ccI1ssAu.s:1384   .text.rf_power_on:0000000000000010 .L0 
C:\Users\stapi\AppData\Local\Temp\ccI1ssAu.s:1385   .text.rf_power_on:0000000000000010 .L0 
C:\Users\stapi\AppData\Local\Temp\ccI1ssAu.s:1386   .text.rf_power_on:0000000000000010 .L0 
C:\Users\stapi\AppData\Local\Temp\ccI1ssAu.s:1388   .text.rf_power_on:0000000000000014 .L0 
C:\Users\stapi\AppData\Local\Temp\ccI1ssAu.s:1390   .text.rf_power_on:0000000000000016 .L0 
C:\Users\stapi\AppData\Local\Temp\ccI1ssAu.s:1392   .text.rf_power_on:0000000000000018 .L0 
C:\Users\stapi\AppData\Local\Temp\ccI1ssAu.s:1397   .text.rf_power_on:0000000000000026 .L0 
C:\Users\stapi\AppData\Local\Temp\ccI1ssAu.s:1401   .text.rf_power_on:0000000000000032 .L0 
C:\Users\stapi\AppData\Local\Temp\ccI1ssAu.s:1405   .text.rf_power_on:000000000000003e .L0 
C:\Users\stapi\AppData\Local\Temp\ccI1ssAu.s:1409   .text.rf_power_on:000000000000004a .L0 
C:\Users\stapi\AppData\Local\Temp\ccI1ssAu.s:1413   .text.rf_power_on:0000000000000056 .L0 
C:\Users\stapi\AppData\Local\Temp\ccI1ssAu.s:1419   .text.rf_power_on:0000000000000062 .L0 
C:\Users\stapi\AppData\Local\Temp\ccI1ssAu.s:1420   .text.rf_power_on:0000000000000062 .L0 
C:\Users\stapi\AppData\Local\Temp\ccI1ssAu.s:1421   .text.rf_power_on:0000000000000062 .L0 
C:\Users\stapi\AppData\Local\Temp\ccI1ssAu.s:1424   .text.rf_power_on:000000000000006a .L0 
C:\Users\stapi\AppData\Local\Temp\ccI1ssAu.s:1427   .text.rf_power_on:0000000000000072 .L0 
C:\Users\stapi\AppData\Local\Temp\ccI1ssAu.s:1430   .text.rf_power_on:000000000000007a .L0 
C:\Users\stapi\AppData\Local\Temp\ccI1ssAu.s:1431   .text.rf_power_on:000000000000007a .L0 
C:\Users\stapi\AppData\Local\Temp\ccI1ssAu.s:1433   .text.rf_power_on:0000000000000084 .L0 
C:\Users\stapi\AppData\Local\Temp\ccI1ssAu.s:1434   .text.rf_power_on:0000000000000084 .L0 
C:\Users\stapi\AppData\Local\Temp\ccI1ssAu.s:1435   .text.rf_power_on:0000000000000084 .L0 
C:\Users\stapi\AppData\Local\Temp\ccI1ssAu.s:1436   .text.rf_power_on:0000000000000084 .L0 
C:\Users\stapi\AppData\Local\Temp\ccI1ssAu.s:1443   .text.rf_power_off:0000000000000000 rf_power_off
C:\Users\stapi\AppData\Local\Temp\ccI1ssAu.s:1446   .text.rf_power_off:0000000000000000 .L0 
C:\Users\stapi\AppData\Local\Temp\ccI1ssAu.s:1447   .text.rf_power_off:0000000000000000 .L0 
C:\Users\stapi\AppData\Local\Temp\ccI1ssAu.s:1448   .text.rf_power_off:0000000000000008 .L0 
C:\Users\stapi\AppData\Local\Temp\ccI1ssAu.s:1449   .text.rf_power_off:0000000000000008 .L0 
C:\Users\stapi\AppData\Local\Temp\ccI1ssAu.s:1450   .text.rf_power_off:0000000000000008 .L0 
C:\Users\stapi\AppData\Local\Temp\ccI1ssAu.s:1452   .text.rf_power_off:0000000000000008 .L0 
C:\Users\stapi\AppData\Local\Temp\ccI1ssAu.s:1457   .text.rf_power_off:0000000000000016 .L0 
C:\Users\stapi\AppData\Local\Temp\ccI1ssAu.s:1461   .text.rf_power_off:0000000000000022 .L0 
C:\Users\stapi\AppData\Local\Temp\ccI1ssAu.s:1462   .text.rf_power_off:000000000000002a .L0 
C:\Users\stapi\AppData\Local\Temp\ccI1ssAu.s:1463   .text.rf_power_off:000000000000002a .L0 
C:\Users\stapi\AppData\Local\Temp\ccI1ssAu.s:1464   .text.rf_power_off:000000000000002a .L0 
C:\Users\stapi\AppData\Local\Temp\ccI1ssAu.s:1465   .text.rf_power_off:000000000000002a .L0 
C:\Users\stapi\AppData\Local\Temp\ccI1ssAu.s:1472   .text.rtc_32k_time_get:0000000000000000 rtc_32k_time_get
C:\Users\stapi\AppData\Local\Temp\ccI1ssAu.s:1475   .text.rtc_32k_time_get:0000000000000000 .L0 
C:\Users\stapi\AppData\Local\Temp\ccI1ssAu.s:1477   .text.rtc_32k_time_get:0000000000000000 .L0 
C:\Users\stapi\AppData\Local\Temp\ccI1ssAu.s:1478   .text.rtc_32k_time_get:0000000000000008 .L0 
C:\Users\stapi\AppData\Local\Temp\ccI1ssAu.s:1479   .text.rtc_32k_time_get:0000000000000008 .L0 
C:\Users\stapi\AppData\Local\Temp\ccI1ssAu.s:1480   .text.rtc_32k_time_get:0000000000000008 .L0 
C:\Users\stapi\AppData\Local\Temp\ccI1ssAu.s:1481   .text.rtc_32k_time_get:0000000000000008 .L0 
C:\Users\stapi\AppData\Local\Temp\ccI1ssAu.s:1483   .text.rtc_32k_time_get:0000000000000008 .L0 
C:\Users\stapi\AppData\Local\Temp\ccI1ssAu.s:1484   .text.rtc_32k_time_get:0000000000000008 .L0 
C:\Users\stapi\AppData\Local\Temp\ccI1ssAu.s:1485   .text.rtc_32k_time_get:0000000000000008 .L0 
C:\Users\stapi\AppData\Local\Temp\ccI1ssAu.s:1486   .text.rtc_32k_time_get:0000000000000008 .L0 
C:\Users\stapi\AppData\Local\Temp\ccI1ssAu.s:1487   .text.rtc_32k_time_get:0000000000000008 .L0 
C:\Users\stapi\AppData\Local\Temp\ccI1ssAu.s:1488   .text.rtc_32k_time_get:000000000000000a .L0 
C:\Users\stapi\AppData\Local\Temp\ccI1ssAu.s:1490   .text.rtc_32k_time_get:000000000000000a .L0 
C:\Users\stapi\AppData\Local\Temp\ccI1ssAu.s:1492   .text.rtc_32k_time_get:000000000000000c .L0 
C:\Users\stapi\AppData\Local\Temp\ccI1ssAu.s:1494   .text.rtc_32k_time_get:000000000000000e .L0 
C:\Users\stapi\AppData\Local\Temp\ccI1ssAu.s:1498   .text.rtc_32k_time_get:0000000000000016 .L0 
C:\Users\stapi\AppData\Local\Temp\ccI1ssAu.s:1499   .text.rtc_32k_time_get:0000000000000016 .L0 
C:\Users\stapi\AppData\Local\Temp\ccI1ssAu.s:1501   .text.rtc_32k_time_get:000000000000001a .L0 
C:\Users\stapi\AppData\Local\Temp\ccI1ssAu.s:1503   .text.rtc_32k_time_get:000000000000001c .L0 
C:\Users\stapi\AppData\Local\Temp\ccI1ssAu.s:1506   .text.rtc_32k_time_get:0000000000000020 .L0 
C:\Users\stapi\AppData\Local\Temp\ccI1ssAu.s:1509   .text.rtc_32k_time_get:0000000000000028 .L0 
C:\Users\stapi\AppData\Local\Temp\ccI1ssAu.s:1510   .text.rtc_32k_time_get:0000000000000028 .L0 
C:\Users\stapi\AppData\Local\Temp\ccI1ssAu.s:1513   .text.rtc_32k_time_get:000000000000002c .L0 
C:\Users\stapi\AppData\Local\Temp\ccI1ssAu.s:1514   .text.rtc_32k_time_get:000000000000002c .L0 
C:\Users\stapi\AppData\Local\Temp\ccI1ssAu.s:1516   .text.rtc_32k_time_get:000000000000002e .L0 
C:\Users\stapi\AppData\Local\Temp\ccI1ssAu.s:1518   .text.rtc_32k_time_get:0000000000000032 .L0 
C:\Users\stapi\AppData\Local\Temp\ccI1ssAu.s:1521   .text.rtc_32k_time_get:0000000000000034 .L0 
C:\Users\stapi\AppData\Local\Temp\ccI1ssAu.s:1523   .text.rtc_32k_time_get:0000000000000038 .L0 
C:\Users\stapi\AppData\Local\Temp\ccI1ssAu.s:1525   .text.rtc_32k_time_get:000000000000003a .L0 
C:\Users\stapi\AppData\Local\Temp\ccI1ssAu.s:1526   .text.rtc_32k_time_get:000000000000003a .L0 
C:\Users\stapi\AppData\Local\Temp\ccI1ssAu.s:1530   .text.rtc_32k_time_get:0000000000000044 .L0 
C:\Users\stapi\AppData\Local\Temp\ccI1ssAu.s:1532   .text.rtc_32k_time_get:0000000000000046 .L0 
C:\Users\stapi\AppData\Local\Temp\ccI1ssAu.s:1533   .text.rtc_32k_time_get:0000000000000048 .L0 
C:\Users\stapi\AppData\Local\Temp\ccI1ssAu.s:1536   .text.rtc_32k_time_get:0000000000000050 .L0 
C:\Users\stapi\AppData\Local\Temp\ccI1ssAu.s:1537   .text.rtc_32k_time_get:0000000000000050 .L0 
C:\Users\stapi\AppData\Local\Temp\ccI1ssAu.s:1538   .text.rtc_32k_time_get:0000000000000050 .L0 
C:\Users\stapi\AppData\Local\Temp\ccI1ssAu.s:1539   .text.rtc_32k_time_get:0000000000000050 .L0 
C:\Users\stapi\AppData\Local\Temp\ccI1ssAu.s:1540   .text.rtc_32k_time_get:0000000000000050 .L0 
C:\Users\stapi\AppData\Local\Temp\ccI1ssAu.s:1554   .text.platform_init:0000000000000000 platform_init
C:\Users\stapi\AppData\Local\Temp\ccI1ssAu.s:1557   .text.platform_init:0000000000000000 .L0 
C:\Users\stapi\AppData\Local\Temp\ccI1ssAu.s:1558   .text.platform_init:0000000000000000 .L0 
C:\Users\stapi\AppData\Local\Temp\ccI1ssAu.s:1559   .text.platform_init:0000000000000008 .L0 
C:\Users\stapi\AppData\Local\Temp\ccI1ssAu.s:1560   .text.platform_init:0000000000000008 .L0 
C:\Users\stapi\AppData\Local\Temp\ccI1ssAu.s:1561   .text.platform_init:0000000000000008 .L0 
C:\Users\stapi\AppData\Local\Temp\ccI1ssAu.s:1562   .text.platform_init:0000000000000008 .L0 
C:\Users\stapi\AppData\Local\Temp\ccI1ssAu.s:1563   .text.platform_init:0000000000000008 .L0 
C:\Users\stapi\AppData\Local\Temp\ccI1ssAu.s:1567   .text.platform_init:0000000000000008 .L0 
C:\Users\stapi\AppData\Local\Temp\ccI1ssAu.s:1570   .text.platform_init:0000000000000008 .L0 
C:\Users\stapi\AppData\Local\Temp\ccI1ssAu.s:1571   .text.platform_init:0000000000000008 .L0 
C:\Users\stapi\AppData\Local\Temp\ccI1ssAu.s:1572   .text.platform_init:000000000000000a .L0 
C:\Users\stapi\AppData\Local\Temp\ccI1ssAu.s:1576   .text.platform_init:000000000000000a .L0 
C:\Users\stapi\AppData\Local\Temp\ccI1ssAu.s:1579   .text.platform_init:0000000000000012 .L0 
C:\Users\stapi\AppData\Local\Temp\ccI1ssAu.s:1584   .text.platform_init:0000000000000014 .L0 
C:\Users\stapi\AppData\Local\Temp\ccI1ssAu.s:1588   .text.platform_init:0000000000000018 .L0 
C:\Users\stapi\AppData\Local\Temp\ccI1ssAu.s:1593   .text.platform_init:0000000000000020 .L0 
C:\Users\stapi\AppData\Local\Temp\ccI1ssAu.s:1594   .text.platform_init:0000000000000020 .L0 
C:\Users\stapi\AppData\Local\Temp\ccI1ssAu.s:1595   .text.platform_init:0000000000000020 .L0 
C:\Users\stapi\AppData\Local\Temp\ccI1ssAu.s:1599   .text.platform_init:0000000000000024 .L0 
C:\Users\stapi\AppData\Local\Temp\ccI1ssAu.s:1604   .text.platform_init:0000000000000028 .L0 
C:\Users\stapi\AppData\Local\Temp\ccI1ssAu.s:1607   .text.platform_init:0000000000000030 .L0 
C:\Users\stapi\AppData\Local\Temp\ccI1ssAu.s:1608   .text.platform_init:0000000000000030 .L0 
C:\Users\stapi\AppData\Local\Temp\ccI1ssAu.s:1612   .text.platform_init:0000000000000034 .L0 
C:\Users\stapi\AppData\Local\Temp\ccI1ssAu.s:1616   .text.platform_init:0000000000000038 .L0 
C:\Users\stapi\AppData\Local\Temp\ccI1ssAu.s:1618   .text.platform_init:000000000000003a .L0 
C:\Users\stapi\AppData\Local\Temp\ccI1ssAu.s:1627   .text.platform_init:0000000000000046 .L0 
C:\Users\stapi\AppData\Local\Temp\ccI1ssAu.s:1628   .text.platform_init:0000000000000046 .L0 
C:\Users\stapi\AppData\Local\Temp\ccI1ssAu.s:1629   .text.platform_init:0000000000000046 .L0 
C:\Users\stapi\AppData\Local\Temp\ccI1ssAu.s:1639   .text.platform_init:000000000000004a .L0 
C:\Users\stapi\AppData\Local\Temp\ccI1ssAu.s:1649   .text.platform_init:000000000000004c .L0 
C:\Users\stapi\AppData\Local\Temp\ccI1ssAu.s:1652   .text.platform_init:0000000000000054 .L0 
C:\Users\stapi\AppData\Local\Temp\ccI1ssAu.s:1653   .text.platform_init:0000000000000054 .L0 
C:\Users\stapi\AppData\Local\Temp\ccI1ssAu.s:1661   .text.platform_init:0000000000000064 .L0 
C:\Users\stapi\AppData\Local\Temp\ccI1ssAu.s:1664   .text.platform_init:000000000000006c .L0 
C:\Users\stapi\AppData\Local\Temp\ccI1ssAu.s:1670   .text.platform_init:000000000000007c .L0 
C:\Users\stapi\AppData\Local\Temp\ccI1ssAu.s:1676   .text.platform_init:000000000000008a .L0 
C:\Users\stapi\AppData\Local\Temp\ccI1ssAu.s:1684   .text.platform_init:000000000000009a .L0 
C:\Users\stapi\AppData\Local\Temp\ccI1ssAu.s:1685   .text.platform_init:000000000000009a .L0 
C:\Users\stapi\AppData\Local\Temp\ccI1ssAu.s:1691   .text.platform_init:00000000000000aa .L0 
C:\Users\stapi\AppData\Local\Temp\ccI1ssAu.s:1697   .text.platform_init:00000000000000ba .L0 
C:\Users\stapi\AppData\Local\Temp\ccI1ssAu.s:1703   .text.platform_init:00000000000000ca .L0 
C:\Users\stapi\AppData\Local\Temp\ccI1ssAu.s:1711   .text.platform_init:00000000000000da .L0 
C:\Users\stapi\AppData\Local\Temp\ccI1ssAu.s:1712   .text.platform_init:00000000000000da .L0 
C:\Users\stapi\AppData\Local\Temp\ccI1ssAu.s:1713   .text.platform_init:00000000000000da .L0 
C:\Users\stapi\AppData\Local\Temp\ccI1ssAu.s:1717   .text.platform_init:00000000000000de .L0 
C:\Users\stapi\AppData\Local\Temp\ccI1ssAu.s:1722   .text.platform_init:00000000000000e2 .L0 
C:\Users\stapi\AppData\Local\Temp\ccI1ssAu.s:1725   .text.platform_init:00000000000000ea .L0 
C:\Users\stapi\AppData\Local\Temp\ccI1ssAu.s:1726   .text.platform_init:00000000000000ea .L0 
C:\Users\stapi\AppData\Local\Temp\ccI1ssAu.s:1730   .text.platform_init:00000000000000ee .L0 
C:\Users\stapi\AppData\Local\Temp\ccI1ssAu.s:1734   .text.platform_init:00000000000000f2 .L0 
C:\Users\stapi\AppData\Local\Temp\ccI1ssAu.s:1741   .text.platform_init:00000000000000fe .L0 
C:\Users\stapi\AppData\Local\Temp\ccI1ssAu.s:1746   .text.platform_init:0000000000000106 .L0 
C:\Users\stapi\AppData\Local\Temp\ccI1ssAu.s:1747   .text.platform_init:0000000000000106 .L0 
C:\Users\stapi\AppData\Local\Temp\ccI1ssAu.s:1748   .text.platform_init:0000000000000106 .L0 
C:\Users\stapi\AppData\Local\Temp\ccI1ssAu.s:1752   .text.platform_init:000000000000010a .L0 
C:\Users\stapi\AppData\Local\Temp\ccI1ssAu.s:1757   .text.platform_init:000000000000010e .L0 
C:\Users\stapi\AppData\Local\Temp\ccI1ssAu.s:1760   .text.platform_init:0000000000000116 .L0 
C:\Users\stapi\AppData\Local\Temp\ccI1ssAu.s:1761   .text.platform_init:0000000000000116 .L0 
C:\Users\stapi\AppData\Local\Temp\ccI1ssAu.s:1765   .text.platform_init:000000000000011a .L0 
C:\Users\stapi\AppData\Local\Temp\ccI1ssAu.s:1769   .text.platform_init:000000000000011e .L0 
C:\Users\stapi\AppData\Local\Temp\ccI1ssAu.s:1776   .text.platform_init:000000000000012a .L0 
C:\Users\stapi\AppData\Local\Temp\ccI1ssAu.s:1781   .text.platform_init:0000000000000132 .L0 
C:\Users\stapi\AppData\Local\Temp\ccI1ssAu.s:1782   .text.platform_init:0000000000000132 .L0 
C:\Users\stapi\AppData\Local\Temp\ccI1ssAu.s:1783   .text.platform_init:0000000000000132 .L0 
C:\Users\stapi\AppData\Local\Temp\ccI1ssAu.s:1787   .text.platform_init:0000000000000136 .L0 
C:\Users\stapi\AppData\Local\Temp\ccI1ssAu.s:1792   .text.platform_init:000000000000013a .L0 
C:\Users\stapi\AppData\Local\Temp\ccI1ssAu.s:1795   .text.platform_init:0000000000000142 .L0 
C:\Users\stapi\AppData\Local\Temp\ccI1ssAu.s:1796   .text.platform_init:0000000000000142 .L0 
C:\Users\stapi\AppData\Local\Temp\ccI1ssAu.s:1800   .text.platform_init:0000000000000146 .L0 
C:\Users\stapi\AppData\Local\Temp\ccI1ssAu.s:1804   .text.platform_init:000000000000014a .L0 
C:\Users\stapi\AppData\Local\Temp\ccI1ssAu.s:1811   .text.platform_init:0000000000000156 .L0 
C:\Users\stapi\AppData\Local\Temp\ccI1ssAu.s:1816   .text.platform_init:000000000000015e .L0 
C:\Users\stapi\AppData\Local\Temp\ccI1ssAu.s:1817   .text.platform_init:000000000000015e .L0 
C:\Users\stapi\AppData\Local\Temp\ccI1ssAu.s:1818   .text.platform_init:000000000000015e .L0 
C:\Users\stapi\AppData\Local\Temp\ccI1ssAu.s:1822   .text.platform_init:0000000000000162 .L0 
C:\Users\stapi\AppData\Local\Temp\ccI1ssAu.s:1827   .text.platform_init:0000000000000166 .L0 
C:\Users\stapi\AppData\Local\Temp\ccI1ssAu.s:1830   .text.platform_init:000000000000016e .L0 
C:\Users\stapi\AppData\Local\Temp\ccI1ssAu.s:1831   .text.platform_init:000000000000016e .L0 
C:\Users\stapi\AppData\Local\Temp\ccI1ssAu.s:1835   .text.platform_init:0000000000000172 .L0 
C:\Users\stapi\AppData\Local\Temp\ccI1ssAu.s:1839   .text.platform_init:0000000000000176 .L0 
C:\Users\stapi\AppData\Local\Temp\ccI1ssAu.s:1846   .text.platform_init:0000000000000182 .L0 
C:\Users\stapi\AppData\Local\Temp\ccI1ssAu.s:1851   .text.platform_init:000000000000018a .L0 
C:\Users\stapi\AppData\Local\Temp\ccI1ssAu.s:1852   .text.platform_init:000000000000018a .L0 
C:\Users\stapi\AppData\Local\Temp\ccI1ssAu.s:1853   .text.platform_init:000000000000018a .L0 
C:\Users\stapi\AppData\Local\Temp\ccI1ssAu.s:1857   .text.platform_init:000000000000018e .L0 
C:\Users\stapi\AppData\Local\Temp\ccI1ssAu.s:1862   .text.platform_init:0000000000000192 .L0 
C:\Users\stapi\AppData\Local\Temp\ccI1ssAu.s:1865   .text.platform_init:000000000000019a .L0 
C:\Users\stapi\AppData\Local\Temp\ccI1ssAu.s:1866   .text.platform_init:000000000000019a .L0 
C:\Users\stapi\AppData\Local\Temp\ccI1ssAu.s:1870   .text.platform_init:000000000000019e .L0 
C:\Users\stapi\AppData\Local\Temp\ccI1ssAu.s:1874   .text.platform_init:00000000000001a2 .L0 
C:\Users\stapi\AppData\Local\Temp\ccI1ssAu.s:1881   .text.platform_init:00000000000001ae .L0 
C:\Users\stapi\AppData\Local\Temp\ccI1ssAu.s:1886   .text.platform_init:00000000000001b6 .L0 
C:\Users\stapi\AppData\Local\Temp\ccI1ssAu.s:1887   .text.platform_init:00000000000001b6 .L0 
C:\Users\stapi\AppData\Local\Temp\ccI1ssAu.s:1888   .text.platform_init:00000000000001b6 .L0 
C:\Users\stapi\AppData\Local\Temp\ccI1ssAu.s:1892   .text.platform_init:00000000000001ba .L0 
C:\Users\stapi\AppData\Local\Temp\ccI1ssAu.s:1897   .text.platform_init:00000000000001be .L0 
C:\Users\stapi\AppData\Local\Temp\ccI1ssAu.s:1900   .text.platform_init:00000000000001c6 .L0 
C:\Users\stapi\AppData\Local\Temp\ccI1ssAu.s:1901   .text.platform_init:00000000000001c6 .L0 
C:\Users\stapi\AppData\Local\Temp\ccI1ssAu.s:1905   .text.platform_init:00000000000001ca .L0 
C:\Users\stapi\AppData\Local\Temp\ccI1ssAu.s:1909   .text.platform_init:00000000000001ce .L0 
C:\Users\stapi\AppData\Local\Temp\ccI1ssAu.s:1916   .text.platform_init:00000000000001da .L0 
C:\Users\stapi\AppData\Local\Temp\ccI1ssAu.s:1921   .text.platform_init:00000000000001e2 .L0 
C:\Users\stapi\AppData\Local\Temp\ccI1ssAu.s:1922   .text.platform_init:00000000000001e2 .L0 
C:\Users\stapi\AppData\Local\Temp\ccI1ssAu.s:1923   .text.platform_init:00000000000001e2 .L0 
C:\Users\stapi\AppData\Local\Temp\ccI1ssAu.s:1927   .text.platform_init:00000000000001e6 .L0 
C:\Users\stapi\AppData\Local\Temp\ccI1ssAu.s:1932   .text.platform_init:00000000000001ea .L0 
C:\Users\stapi\AppData\Local\Temp\ccI1ssAu.s:1935   .text.platform_init:00000000000001f2 .L0 
C:\Users\stapi\AppData\Local\Temp\ccI1ssAu.s:1936   .text.platform_init:00000000000001f2 .L0 
C:\Users\stapi\AppData\Local\Temp\ccI1ssAu.s:1940   .text.platform_init:00000000000001f6 .L0 
C:\Users\stapi\AppData\Local\Temp\ccI1ssAu.s:1944   .text.platform_init:00000000000001fa .L0 
C:\Users\stapi\AppData\Local\Temp\ccI1ssAu.s:1951   .text.platform_init:0000000000000206 .L0 
C:\Users\stapi\AppData\Local\Temp\ccI1ssAu.s:1956   .text.platform_init:000000000000020e .L0 
C:\Users\stapi\AppData\Local\Temp\ccI1ssAu.s:1957   .text.platform_init:000000000000020e .L0 
C:\Users\stapi\AppData\Local\Temp\ccI1ssAu.s:1958   .text.platform_init:000000000000020e .L0 
C:\Users\stapi\AppData\Local\Temp\ccI1ssAu.s:1962   .text.platform_init:0000000000000212 .L0 
C:\Users\stapi\AppData\Local\Temp\ccI1ssAu.s:1967   .text.platform_init:0000000000000216 .L0 
C:\Users\stapi\AppData\Local\Temp\ccI1ssAu.s:1970   .text.platform_init:000000000000021e .L0 
C:\Users\stapi\AppData\Local\Temp\ccI1ssAu.s:1971   .text.platform_init:000000000000021e .L0 
C:\Users\stapi\AppData\Local\Temp\ccI1ssAu.s:1975   .text.platform_init:0000000000000222 .L0 
C:\Users\stapi\AppData\Local\Temp\ccI1ssAu.s:1979   .text.platform_init:0000000000000226 .L0 
C:\Users\stapi\AppData\Local\Temp\ccI1ssAu.s:1986   .text.platform_init:0000000000000232 .L0 
C:\Users\stapi\AppData\Local\Temp\ccI1ssAu.s:1991   .text.platform_init:000000000000023a .L0 
C:\Users\stapi\AppData\Local\Temp\ccI1ssAu.s:1992   .text.platform_init:000000000000023a .L0 
C:\Users\stapi\AppData\Local\Temp\ccI1ssAu.s:1993   .text.platform_init:000000000000023a .L0 
C:\Users\stapi\AppData\Local\Temp\ccI1ssAu.s:1997   .text.platform_init:000000000000023e .L0 
C:\Users\stapi\AppData\Local\Temp\ccI1ssAu.s:2002   .text.platform_init:0000000000000242 .L0 
C:\Users\stapi\AppData\Local\Temp\ccI1ssAu.s:2005   .text.platform_init:000000000000024a .L0 
C:\Users\stapi\AppData\Local\Temp\ccI1ssAu.s:2006   .text.platform_init:000000000000024a .L0 
C:\Users\stapi\AppData\Local\Temp\ccI1ssAu.s:2010   .text.platform_init:000000000000024e .L0 
C:\Users\stapi\AppData\Local\Temp\ccI1ssAu.s:2014   .text.platform_init:0000000000000252 .L0 
C:\Users\stapi\AppData\Local\Temp\ccI1ssAu.s:2021   .text.platform_init:000000000000025e .L0 
C:\Users\stapi\AppData\Local\Temp\ccI1ssAu.s:2026   .text.platform_init:0000000000000266 .L0 
C:\Users\stapi\AppData\Local\Temp\ccI1ssAu.s:2027   .text.platform_init:0000000000000266 .L0 
C:\Users\stapi\AppData\Local\Temp\ccI1ssAu.s:2028   .text.platform_init:0000000000000266 .L0 
C:\Users\stapi\AppData\Local\Temp\ccI1ssAu.s:2032   .text.platform_init:000000000000026a .L0 
C:\Users\stapi\AppData\Local\Temp\ccI1ssAu.s:2037   .text.platform_init:000000000000026e .L0 
C:\Users\stapi\AppData\Local\Temp\ccI1ssAu.s:2040   .text.platform_init:0000000000000276 .L0 
C:\Users\stapi\AppData\Local\Temp\ccI1ssAu.s:2041   .text.platform_init:0000000000000276 .L0 
C:\Users\stapi\AppData\Local\Temp\ccI1ssAu.s:2045   .text.platform_init:000000000000027a .L0 
C:\Users\stapi\AppData\Local\Temp\ccI1ssAu.s:2049   .text.platform_init:000000000000027e .L0 
C:\Users\stapi\AppData\Local\Temp\ccI1ssAu.s:2056   .text.platform_init:000000000000028a .L0 
C:\Users\stapi\AppData\Local\Temp\ccI1ssAu.s:2061   .text.platform_init:0000000000000292 .L0 
C:\Users\stapi\AppData\Local\Temp\ccI1ssAu.s:2062   .text.platform_init:0000000000000292 .L0 
C:\Users\stapi\AppData\Local\Temp\ccI1ssAu.s:2063   .text.platform_init:0000000000000292 .L0 
C:\Users\stapi\AppData\Local\Temp\ccI1ssAu.s:2067   .text.platform_init:000000000000029e .L0 
C:\Users\stapi\AppData\Local\Temp\ccI1ssAu.s:2068   .text.platform_init:000000000000029e .L0 
C:\Users\stapi\AppData\Local\Temp\ccI1ssAu.s:2080   .text.platform_init:00000000000002ae .L0 
C:\Users\stapi\AppData\Local\Temp\ccI1ssAu.s:2085   .text.platform_init:00000000000002b6 .L0 
C:\Users\stapi\AppData\Local\Temp\ccI1ssAu.s:2086   .text.platform_init:00000000000002b6 .L0 
C:\Users\stapi\AppData\Local\Temp\ccI1ssAu.s:2089   .text.platform_init:00000000000002be .L0 
C:\Users\stapi\AppData\Local\Temp\ccI1ssAu.s:2094   .text.platform_init:00000000000002c6 .L0 
C:\Users\stapi\AppData\Local\Temp\ccI1ssAu.s:2100   .text.platform_init:00000000000002d2 .L0 
C:\Users\stapi\AppData\Local\Temp\ccI1ssAu.s:2101   .text.platform_init:00000000000002d2 .L0 
C:\Users\stapi\AppData\Local\Temp\ccI1ssAu.s:2105   .text.platform_init:00000000000002de .L0 
C:\Users\stapi\AppData\Local\Temp\ccI1ssAu.s:2110   .text.platform_init:00000000000002e6 .L0 
C:\Users\stapi\AppData\Local\Temp\ccI1ssAu.s:2111   .text.platform_init:00000000000002e6 .L0 
C:\Users\stapi\AppData\Local\Temp\ccI1ssAu.s:2115   .text.platform_init:00000000000002f2 .L0 
C:\Users\stapi\AppData\Local\Temp\ccI1ssAu.s:2119   .text.platform_init:00000000000002fe .L0 
C:\Users\stapi\AppData\Local\Temp\ccI1ssAu.s:2123   .text.platform_init:000000000000030a .L0 
C:\Users\stapi\AppData\Local\Temp\ccI1ssAu.s:2124   .text.platform_init:000000000000030a .L0 
C:\Users\stapi\AppData\Local\Temp\ccI1ssAu.s:2128   .text.platform_init:0000000000000316 .L0 
C:\Users\stapi\AppData\Local\Temp\ccI1ssAu.s:2130   .text.platform_init:000000000000031a .L0 
C:\Users\stapi\AppData\Local\Temp\ccI1ssAu.s:2132   .text.platform_init:000000000000031c .L0 
C:\Users\stapi\AppData\Local\Temp\ccI1ssAu.s:2133   .text.platform_init:000000000000031c .L0 
C:\Users\stapi\AppData\Local\Temp\ccI1ssAu.s:2136   .text.platform_init:0000000000000322 .L0 
C:\Users\stapi\AppData\Local\Temp\ccI1ssAu.s:2138   .text.platform_init:0000000000000326 .L0 
C:\Users\stapi\AppData\Local\Temp\ccI1ssAu.s:2140   .text.platform_init:0000000000000328 .L0 
C:\Users\stapi\AppData\Local\Temp\ccI1ssAu.s:2143   .text.platform_init:0000000000000330 .L0 
C:\Users\stapi\AppData\Local\Temp\ccI1ssAu.s:2148   .text.platform_init:0000000000000338 .L0 
C:\Users\stapi\AppData\Local\Temp\ccI1ssAu.s:2153   .text.platform_init:0000000000000340 .L0 
C:\Users\stapi\AppData\Local\Temp\ccI1ssAu.s:2154   .text.platform_init:0000000000000340 .L0 
C:\Users\stapi\AppData\Local\Temp\ccI1ssAu.s:2155   .text.platform_init:0000000000000340 .L0 
C:\Users\stapi\AppData\Local\Temp\ccI1ssAu.s:2156   .text.platform_init:0000000000000340 .L0 
C:\Users\stapi\AppData\Local\Temp\ccI1ssAu.s:2157   .text.platform_init:0000000000000340 .L0 
C:\Users\stapi\AppData\Local\Temp\ccI1ssAu.s:2159   .text.platform_init:0000000000000342 .L0 
C:\Users\stapi\AppData\Local\Temp\ccI1ssAu.s:2161   .text.platform_init:0000000000000344 .L0 
C:\Users\stapi\AppData\Local\Temp\ccI1ssAu.s:2163   .text.platform_init:0000000000000346 .L0 
C:\Users\stapi\AppData\Local\Temp\ccI1ssAu.s:2165   .text.platform_init:000000000000034a .L0 
C:\Users\stapi\AppData\Local\Temp\ccI1ssAu.s:2166   .text.platform_init:000000000000034a .L0 
C:\Users\stapi\AppData\Local\Temp\ccI1ssAu.s:2168   .text.platform_init:000000000000034c .L0 
C:\Users\stapi\AppData\Local\Temp\ccI1ssAu.s:2170   .text.platform_init:000000000000034e .L0 
C:\Users\stapi\AppData\Local\Temp\ccI1ssAu.s:2172   .text.platform_init:0000000000000352 .L0 
C:\Users\stapi\AppData\Local\Temp\ccI1ssAu.s:2174   .text.platform_init:0000000000000356 .L0 
C:\Users\stapi\AppData\Local\Temp\ccI1ssAu.s:2175   .text.platform_init:0000000000000356 .L0 
C:\Users\stapi\AppData\Local\Temp\ccI1ssAu.s:2176   .text.platform_init:0000000000000356 .L0 
C:\Users\stapi\AppData\Local\Temp\ccI1ssAu.s:2177   .text.platform_init:0000000000000356 .L0 
C:\Users\stapi\AppData\Local\Temp\ccI1ssAu.s:2178   .text.platform_init:0000000000000356 .L0 
C:\Users\stapi\AppData\Local\Temp\ccI1ssAu.s:2179   .text.platform_init:0000000000000356 .L0 
C:\Users\stapi\AppData\Local\Temp\ccI1ssAu.s:2180   .text.platform_init:0000000000000356 .L0 
C:\Users\stapi\AppData\Local\Temp\ccI1ssAu.s:2181   .text.platform_init:0000000000000356 .L0 
C:\Users\stapi\AppData\Local\Temp\ccI1ssAu.s:2182   .text.platform_init:0000000000000356 .L0 
C:\Users\stapi\AppData\Local\Temp\ccI1ssAu.s:2183   .text.platform_init:0000000000000356 .L0 
C:\Users\stapi\AppData\Local\Temp\ccI1ssAu.s:2187   .text.platform_init:0000000000000360 .L0 
C:\Users\stapi\AppData\Local\Temp\ccI1ssAu.s:2189   .text.platform_init:0000000000000364 .L0 
C:\Users\stapi\AppData\Local\Temp\ccI1ssAu.s:2190   .text.platform_init:0000000000000364 .L0 
C:\Users\stapi\AppData\Local\Temp\ccI1ssAu.s:2193   .text.platform_init:000000000000036c .L0 
C:\Users\stapi\AppData\Local\Temp\ccI1ssAu.s:2195   .text.platform_init:000000000000036e .L0 
C:\Users\stapi\AppData\Local\Temp\ccI1ssAu.s:2203   .text.platform_init:000000000000037e .L0 
C:\Users\stapi\AppData\Local\Temp\ccI1ssAu.s:2207   .text.platform_init:000000000000038a .L0 
C:\Users\stapi\AppData\Local\Temp\ccI1ssAu.s:2211   .text.platform_init:0000000000000394 .L0 
C:\Users\stapi\AppData\Local\Temp\ccI1ssAu.s:2219   .text.platform_init:000000000000039e .L0 
C:\Users\stapi\AppData\Local\Temp\ccI1ssAu.s:2220   .text.platform_init:000000000000039e .L0 
C:\Users\stapi\AppData\Local\Temp\ccI1ssAu.s:2224   .text.platform_init:00000000000003a0 .L0 
C:\Users\stapi\AppData\Local\Temp\ccI1ssAu.s:2229   .text.platform_init:00000000000003a8 .L0 
C:\Users\stapi\AppData\Local\Temp\ccI1ssAu.s:2230   .text.platform_init:00000000000003a8 .L0 
C:\Users\stapi\AppData\Local\Temp\ccI1ssAu.s:2234   .text.platform_init:00000000000003b4 .L0 
C:\Users\stapi\AppData\Local\Temp\ccI1ssAu.s:2238   .text.platform_init:00000000000003c0 .L0 
C:\Users\stapi\AppData\Local\Temp\ccI1ssAu.s:2244   .text.platform_init:00000000000003cc .L0 
C:\Users\stapi\AppData\Local\Temp\ccI1ssAu.s:2247   .text.platform_init:00000000000003d4 .L0 
C:\Users\stapi\AppData\Local\Temp\ccI1ssAu.s:2250   .text.platform_init:00000000000003dc .L0 
C:\Users\stapi\AppData\Local\Temp\ccI1ssAu.s:2253   .text.platform_init:00000000000003e4 .L0 
C:\Users\stapi\AppData\Local\Temp\ccI1ssAu.s:2256   .text.platform_init:00000000000003ec .L0 
C:\Users\stapi\AppData\Local\Temp\ccI1ssAu.s:2257   .text.platform_init:00000000000003ec .L0 
C:\Users\stapi\AppData\Local\Temp\ccI1ssAu.s:2260   .text.platform_init:00000000000003f4 .L0 
C:\Users\stapi\AppData\Local\Temp\ccI1ssAu.s:2262   .text.platform_init:00000000000003f6 .L0 
C:\Users\stapi\AppData\Local\Temp\ccI1ssAu.s:2263   .text.platform_init:00000000000003f6 .L0 
C:\Users\stapi\AppData\Local\Temp\ccI1ssAu.s:2267   .text.platform_init:0000000000000400 .L0 
C:\Users\stapi\AppData\Local\Temp\ccI1ssAu.s:2273   .text.platform_init:0000000000000410 .L0 
C:\Users\stapi\AppData\Local\Temp\ccI1ssAu.s:2274   .text.platform_init:0000000000000410 .L0 
C:\Users\stapi\AppData\Local\Temp\ccI1ssAu.s:2275   .text.platform_init:0000000000000412 .L0 
C:\Users\stapi\AppData\Local\Temp\ccI1ssAu.s:2276   .text.platform_init:0000000000000412 .L0 
C:\Users\stapi\AppData\Local\Temp\ccI1ssAu.s:2278   .text.platform_init:000000000000041a .L0 
C:\Users\stapi\AppData\Local\Temp\ccI1ssAu.s:2279   .text.platform_init:000000000000041a .L0 
C:\Users\stapi\AppData\Local\Temp\ccI1ssAu.s:2280   .text.platform_init:000000000000041a .L0 
C:\Users\stapi\AppData\Local\Temp\ccI1ssAu.s:2281   .text.platform_init:000000000000041a .L0 
C:\Users\stapi\AppData\Local\Temp\ccI1ssAu.s:2282   .text.platform_init:000000000000041a .L0 
C:\Users\stapi\AppData\Local\Temp\ccI1ssAu.s:2284   .text.platform_init:000000000000041a .L0 
C:\Users\stapi\AppData\Local\Temp\ccI1ssAu.s:2290   .text.platform_init:000000000000041a .L0 
C:\Users\stapi\AppData\Local\Temp\ccI1ssAu.s:2298   .text.platform_init:0000000000000426 .L0 
C:\Users\stapi\AppData\Local\Temp\ccI1ssAu.s:2316   .sbss.prescaler_s:0000000000000000 prescaler_s
C:\Users\stapi\AppData\Local\Temp\ccI1ssAu.s:2309   .sbss.prescaler_a:0000000000000000 prescaler_a
C:\Users\stapi\AppData\Local\Temp\ccI1ssAu.s:2321   .sbss.wifi_exist_flag:0000000000000000 wifi_exist_flag
C:\Users\stapi\AppData\Local\Temp\ccI1ssAu.s:2306   .sbss.prescaler_a:0000000000000000 .LANCHOR1
C:\Users\stapi\AppData\Local\Temp\ccI1ssAu.s:2313   .sbss.prescaler_s:0000000000000000 .LANCHOR0
C:\Users\stapi\AppData\Local\Temp\ccI1ssAu.s:49     .text.exti_line_clear:0000000000000034 .L0 
C:\Users\stapi\AppData\Local\Temp\ccI1ssAu.s:93     .text.ble_pmu_config.part.0:0000000000000040 .L0 
C:\Users\stapi\AppData\Local\Temp\ccI1ssAu.s:122    .text.wifi_lpds_preconfig:0000000000000018 .L0 
C:\Users\stapi\AppData\Local\Temp\ccI1ssAu.s:141    .text.wifi_lpds_enter:000000000000000e .L0 
C:\Users\stapi\AppData\Local\Temp\ccI1ssAu.s:196    .text.wifi_lpds_exit:0000000000000034 .L0 
C:\Users\stapi\AppData\Local\Temp\ccI1ssAu.s:217    .text.wifi_is_not_idle:0000000000000016 .L0 
C:\Users\stapi\AppData\Local\Temp\ccI1ssAu.s:247    .text.wifi_hw_is_sleep:0000000000000018 .L0 
C:\Users\stapi\AppData\Local\Temp\ccI1ssAu.s:350    .text.deep_sleep_enter:00000000000000b8 .L0 
C:\Users\stapi\AppData\Local\Temp\ccI1ssAu.s:449    .text.deep_sleep_exit:0000000000000086 .L0 
C:\Users\stapi\AppData\Local\Temp\ccI1ssAu.s:466    .text.wlan_exti_enter:0000000000000010 .L0 
C:\Users\stapi\AppData\Local\Temp\ccI1ssAu.s:481    .text.wlan_exti_exit:000000000000000c .L0 
C:\Users\stapi\AppData\Local\Temp\ccI1ssAu.s:498    .text.ble_exti_enter:0000000000000010 .L0 
C:\Users\stapi\AppData\Local\Temp\ccI1ssAu.s:513    .text.ble_exti_exit:000000000000000c .L0 
C:\Users\stapi\AppData\Local\Temp\ccI1ssAu.s:570    .text.ble_pmu_config:000000000000004c .L0 
C:\Users\stapi\AppData\Local\Temp\ccI1ssAu.s:645    .text.ble_wait_pmu_on:000000000000006a .L0 
C:\Users\stapi\AppData\Local\Temp\ccI1ssAu.s:676    .text.ble_rcc_config:0000000000000036 .L0 
C:\Users\stapi\AppData\Local\Temp\ccI1ssAu.s:702    .text.ble_power_status_en:0000000000000024 .L0 
C:\Users\stapi\AppData\Local\Temp\ccI1ssAu.s:728    .text.ble_power_status_rise_status:0000000000000020 .L0 
C:\Users\stapi\AppData\Local\Temp\ccI1ssAu.s:743    .text.ble_power_status_rise_clear:000000000000000a .L0 
C:\Users\stapi\AppData\Local\Temp\ccI1ssAu.s:769    .text.ble_power_status_fall_status:0000000000000020 .L0 
C:\Users\stapi\AppData\Local\Temp\ccI1ssAu.s:784    .text.ble_power_status_fall_clear:000000000000000a .L0 
C:\Users\stapi\AppData\Local\Temp\ccI1ssAu.s:798    .text.ble_external_wakeup:0000000000000008 .L0 
C:\Users\stapi\AppData\Local\Temp\ccI1ssAu.s:812    .text.ble_external_wakeup_clear:0000000000000008 .L0 
C:\Users\stapi\AppData\Local\Temp\ccI1ssAu.s:828    .text.ble_sleep_measure_clock_get:000000000000000a .L0 
C:\Users\stapi\AppData\Local\Temp\ccI1ssAu.s:861    .text.ble_power_on:0000000000000028 .L0 
C:\Users\stapi\AppData\Local\Temp\ccI1ssAu.s:888    .text.ble_power_off:0000000000000028 .L0 
C:\Users\stapi\AppData\Local\Temp\ccI1ssAu.s:914    .text.hw_crc32_enable:0000000000000026 .L0 
C:\Users\stapi\AppData\Local\Temp\ccI1ssAu.s:930    .text.hw_crc32_single:0000000000000008 .L0 
C:\Users\stapi\AppData\Local\Temp\ccI1ssAu.s:946    .text.hw_crc32_disable:000000000000000e .L0 
C:\Users\stapi\AppData\Local\Temp\ccI1ssAu.s:961    .text.ble_wakelock_acquire:000000000000000a .L0 
C:\Users\stapi\AppData\Local\Temp\ccI1ssAu.s:976    .text.ble_wakelock_release:000000000000000a .L0 
C:\Users\stapi\AppData\Local\Temp\ccI1ssAu.s:991    .text.wifi_wakelock_acquire:000000000000000a .L0 
C:\Users\stapi\AppData\Local\Temp\ccI1ssAu.s:1006   .text.wifi_wakelock_release:000000000000000a .L0 
C:\Users\stapi\AppData\Local\Temp\ccI1ssAu.s:1063   .text.wifi_pmu_config:0000000000000050 .L0 
C:\Users\stapi\AppData\Local\Temp\ccI1ssAu.s:1100   .text.wifi_rcc_config:0000000000000042 .L0 
C:\Users\stapi\AppData\Local\Temp\ccI1ssAu.s:1163   .text.wifi_irq_enable:0000000000000088 .L0 
C:\Users\stapi\AppData\Local\Temp\ccI1ssAu.s:1212   .text.wifi_irq_disable:000000000000006c .L0 
C:\Users\stapi\AppData\Local\Temp\ccI1ssAu.s:1238   .text.wifi_power_on:0000000000000022 .L0 
C:\Users\stapi\AppData\Local\Temp\ccI1ssAu.s:1271   .text.wifi_power_off:0000000000000034 .L0 
C:\Users\stapi\AppData\Local\Temp\ccI1ssAu.s:1341   .text.wifi_led_config:000000000000008e .L0 
C:\Users\stapi\AppData\Local\Temp\ccI1ssAu.s:1362   .text.rf_pmu_par_config:000000000000000e .L0 
C:\Users\stapi\AppData\Local\Temp\ccI1ssAu.s:1439   .text.rf_power_on:0000000000000084 .L0 
C:\Users\stapi\AppData\Local\Temp\ccI1ssAu.s:1468   .text.rf_power_off:000000000000002a .L0 
C:\Users\stapi\AppData\Local\Temp\ccI1ssAu.s:1543   .text.rtc_32k_time_get:0000000000000050 .L0 
C:\Users\stapi\AppData\Local\Temp\ccI1ssAu.s:2304   .text.platform_init:0000000000000426 .L0 
                     .debug_frame:0000000000000000 .L0 
C:\Users\stapi\AppData\Local\Temp\ccI1ssAu.s:40     .text.exti_line_clear:000000000000002c .L1
C:\Users\stapi\AppData\Local\Temp\ccI1ssAu.s:73     .text.ble_pmu_config.part.0:0000000000000026 .L5
C:\Users\stapi\AppData\Local\Temp\ccI1ssAu.s:76     .text.ble_pmu_config.part.0:0000000000000028 .L6
C:\Users\stapi\AppData\Local\Temp\ccI1ssAu.s:161    .text.wifi_lpds_exit:0000000000000012 .L12
C:\Users\stapi\AppData\Local\Temp\ccI1ssAu.s:173    .text.wifi_lpds_exit:0000000000000020 .L13
C:\Users\stapi\AppData\Local\Temp\ccI1ssAu.s:184    .text.wifi_lpds_exit:000000000000002a .L14
C:\Users\stapi\AppData\Local\Temp\ccI1ssAu.s:241    .text.wifi_hw_is_sleep:0000000000000016 .L21
C:\Users\stapi\AppData\Local\Temp\ccI1ssAu.s:326    .text.deep_sleep_enter:0000000000000090 .L24
C:\Users\stapi\AppData\Local\Temp\ccI1ssAu.s:384    .text.deep_sleep_exit:0000000000000022 .L29
C:\Users\stapi\AppData\Local\Temp\ccI1ssAu.s:440    .text.deep_sleep_exit:000000000000007e .L28
C:\Users\stapi\AppData\Local\Temp\ccI1ssAu.s:539    .text.ble_pmu_config:000000000000001a .L44
C:\Users\stapi\AppData\Local\Temp\ccI1ssAu.s:554    .text.ble_pmu_config:0000000000000038 .L46
C:\Users\stapi\AppData\Local\Temp\ccI1ssAu.s:557    .text.ble_pmu_config:000000000000003a .L47
C:\Users\stapi\AppData\Local\Temp\ccI1ssAu.s:531    .text.ble_pmu_config:0000000000000012 .L43
C:\Users\stapi\AppData\Local\Temp\ccI1ssAu.s:631    .text.ble_wait_pmu_on:0000000000000058 .L51
C:\Users\stapi\AppData\Local\Temp\ccI1ssAu.s:622    .text.ble_wait_pmu_on:0000000000000050 .L50
C:\Users\stapi\AppData\Local\Temp\ccI1ssAu.s:606    .text.ble_wait_pmu_on:000000000000002c .L58
C:\Users\stapi\AppData\Local\Temp\ccI1ssAu.s:1049   .text.wifi_pmu_config:0000000000000038 .L99
C:\Users\stapi\AppData\Local\Temp\ccI1ssAu.s:1034   .text.wifi_pmu_config:0000000000000022 .L98
C:\Users\stapi\AppData\Local\Temp\ccI1ssAu.s:1382   .text.rf_power_on:0000000000000010 .L115
C:\Users\stapi\AppData\Local\Temp\ccI1ssAu.s:1496   .text.rtc_32k_time_get:0000000000000016 .L122
C:\Users\stapi\AppData\Local\Temp\ccI1ssAu.s:1545   .rodata.platform_init.str1.4:0000000000000000 .LC0
C:\Users\stapi\AppData\Local\Temp\ccI1ssAu.s:1548   .rodata.platform_init.str1.4:0000000000000020 .LC1
C:\Users\stapi\AppData\Local\Temp\ccI1ssAu.s:2283   .text.platform_init:000000000000041a .L128
C:\Users\stapi\AppData\Local\Temp\ccI1ssAu.s:2272   .text.platform_init:0000000000000410 .L127
C:\Users\stapi\AppData\Local\Temp\ccI1ssAu.s:2199   .text.platform_init:000000000000037e .L129
C:\Users\stapi\AppData\Local\Temp\ccI1ssAu.s:6815   .debug_abbrev:0000000000000000 .Ldebug_abbrev0
C:\Users\stapi\AppData\Local\Temp\ccI1ssAu.s:9416   .debug_str:0000000000001617 .LASF407
C:\Users\stapi\AppData\Local\Temp\ccI1ssAu.s:9236   .debug_str:000000000000101e .LASF408
C:\Users\stapi\AppData\Local\Temp\ccI1ssAu.s:9410   .debug_str:000000000000157b .LASF409
C:\Users\stapi\AppData\Local\Temp\ccI1ssAu.s:8392   .debug_ranges:0000000000000000 .Ldebug_ranges0
C:\Users\stapi\AppData\Local\Temp\ccI1ssAu.s:8628   .debug_line:0000000000000000 .Ldebug_line0
C:\Users\stapi\AppData\Local\Temp\ccI1ssAu.s:8792   .debug_str:0000000000000435 .LASF0
C:\Users\stapi\AppData\Local\Temp\ccI1ssAu.s:9250   .debug_str:0000000000001101 .LASF3
C:\Users\stapi\AppData\Local\Temp\ccI1ssAu.s:9322   .debug_str:00000000000012f2 .LASF1
C:\Users\stapi\AppData\Local\Temp\ccI1ssAu.s:9192   .debug_str:0000000000000eee .LASF2
C:\Users\stapi\AppData\Local\Temp\ccI1ssAu.s:8856   .debug_str:00000000000005d5 .LASF4
C:\Users\stapi\AppData\Local\Temp\ccI1ssAu.s:9388   .debug_str:00000000000014d7 .LASF5
C:\Users\stapi\AppData\Local\Temp\ccI1ssAu.s:9200   .debug_str:0000000000000f28 .LASF6
C:\Users\stapi\AppData\Local\Temp\ccI1ssAu.s:9326   .debug_str:0000000000001308 .LASF7
C:\Users\stapi\AppData\Local\Temp\ccI1ssAu.s:9288   .debug_str:0000000000001202 .LASF8
C:\Users\stapi\AppData\Local\Temp\ccI1ssAu.s:9038   .debug_str:0000000000000a94 .LASF9
C:\Users\stapi\AppData\Local\Temp\ccI1ssAu.s:8942   .debug_str:0000000000000815 .LASF10
C:\Users\stapi\AppData\Local\Temp\ccI1ssAu.s:8830   .debug_str:000000000000055b .LASF11
C:\Users\stapi\AppData\Local\Temp\ccI1ssAu.s:9264   .debug_str:0000000000001168 .LASF12
C:\Users\stapi\AppData\Local\Temp\ccI1ssAu.s:9006   .debug_str:00000000000009a9 .LASF13
C:\Users\stapi\AppData\Local\Temp\ccI1ssAu.s:9140   .debug_str:0000000000000d6b .LASF14
C:\Users\stapi\AppData\Local\Temp\ccI1ssAu.s:8804   .debug_str:0000000000000496 .LASF15
C:\Users\stapi\AppData\Local\Temp\ccI1ssAu.s:9228   .debug_str:0000000000000ff0 .LASF16
C:\Users\stapi\AppData\Local\Temp\ccI1ssAu.s:8918   .debug_str:000000000000075e .LASF17
C:\Users\stapi\AppData\Local\Temp\ccI1ssAu.s:8978   .debug_str:00000000000008e5 .LASF18
C:\Users\stapi\AppData\Local\Temp\ccI1ssAu.s:8834   .debug_str:0000000000000584 .LASF111
C:\Users\stapi\AppData\Local\Temp\ccI1ssAu.s:9202   .debug_str:0000000000000f31 .LASF19
C:\Users\stapi\AppData\Local\Temp\ccI1ssAu.s:9084   .debug_str:0000000000000bee .LASF20
C:\Users\stapi\AppData\Local\Temp\ccI1ssAu.s:9396   .debug_str:0000000000001511 .LASF21
C:\Users\stapi\AppData\Local\Temp\ccI1ssAu.s:9134   .debug_str:0000000000000d43 .LASF22
C:\Users\stapi\AppData\Local\Temp\ccI1ssAu.s:8814   .debug_str:00000000000004e7 .LASF23
C:\Users\stapi\AppData\Local\Temp\ccI1ssAu.s:8926   .debug_str:0000000000000781 .LASF24
C:\Users\stapi\AppData\Local\Temp\ccI1ssAu.s:8892   .debug_str:00000000000006cd .LASF25
C:\Users\stapi\AppData\Local\Temp\ccI1ssAu.s:8670   .debug_str:00000000000000ff .LASF26
C:\Users\stapi\AppData\Local\Temp\ccI1ssAu.s:8734   .debug_str:0000000000000287 .LASF27
C:\Users\stapi\AppData\Local\Temp\ccI1ssAu.s:9014   .debug_str:00000000000009eb .LASF28
C:\Users\stapi\AppData\Local\Temp\ccI1ssAu.s:8962   .debug_str:000000000000087b .LASF29
C:\Users\stapi\AppData\Local\Temp\ccI1ssAu.s:9390   .debug_str:00000000000014ea .LASF30
C:\Users\stapi\AppData\Local\Temp\ccI1ssAu.s:9100   .debug_str:0000000000000c68 .LASF31
C:\Users\stapi\AppData\Local\Temp\ccI1ssAu.s:9218   .debug_str:0000000000000fbb .LASF32
C:\Users\stapi\AppData\Local\Temp\ccI1ssAu.s:8930   .debug_str:00000000000007ab .LASF33
C:\Users\stapi\AppData\Local\Temp\ccI1ssAu.s:9448   .debug_str:00000000000017e9 .LASF34
C:\Users\stapi\AppData\Local\Temp\ccI1ssAu.s:9068   .debug_str:0000000000000b4e .LASF35
C:\Users\stapi\AppData\Local\Temp\ccI1ssAu.s:8772   .debug_str:000000000000039b .LASF36
C:\Users\stapi\AppData\Local\Temp\ccI1ssAu.s:9300   .debug_str:000000000000125b .LASF37
C:\Users\stapi\AppData\Local\Temp\ccI1ssAu.s:8908   .debug_str:000000000000071c .LASF38
C:\Users\stapi\AppData\Local\Temp\ccI1ssAu.s:9432   .debug_str:0000000000001779 .LASF39
C:\Users\stapi\AppData\Local\Temp\ccI1ssAu.s:9106   .debug_str:0000000000000c86 .LASF40
C:\Users\stapi\AppData\Local\Temp\ccI1ssAu.s:9290   .debug_str:0000000000001214 .LASF41
C:\Users\stapi\AppData\Local\Temp\ccI1ssAu.s:9082   .debug_str:0000000000000bde .LASF42
C:\Users\stapi\AppData\Local\Temp\ccI1ssAu.s:9112   .debug_str:0000000000000cb1 .LASF43
C:\Users\stapi\AppData\Local\Temp\ccI1ssAu.s:9070   .debug_str:0000000000000b60 .LASF44
C:\Users\stapi\AppData\Local\Temp\ccI1ssAu.s:8672   .debug_str:0000000000000108 .LASF45
C:\Users\stapi\AppData\Local\Temp\ccI1ssAu.s:8722   .debug_str:000000000000023a .LASF46
C:\Users\stapi\AppData\Local\Temp\ccI1ssAu.s:9240   .debug_str:00000000000010bd .LASF47
C:\Users\stapi\AppData\Local\Temp\ccI1ssAu.s:9312   .debug_str:00000000000012aa .LASF48
C:\Users\stapi\AppData\Local\Temp\ccI1ssAu.s:9454   .debug_str:000000000000182b .LASF49
C:\Users\stapi\AppData\Local\Temp\ccI1ssAu.s:9132   .debug_str:0000000000000d36 .LASF50
C:\Users\stapi\AppData\Local\Temp\ccI1ssAu.s:9266   .debug_str:0000000000001175 .LASF51
C:\Users\stapi\AppData\Local\Temp\ccI1ssAu.s:8970   .debug_str:00000000000008b8 .LASF52
C:\Users\stapi\AppData\Local\Temp\ccI1ssAu.s:8768   .debug_str:0000000000000387 .LASF53
C:\Users\stapi\AppData\Local\Temp\ccI1ssAu.s:8922   .debug_str:0000000000000770 .LASF54
C:\Users\stapi\AppData\Local\Temp\ccI1ssAu.s:9352   .debug_str:00000000000013c1 .LASF55
C:\Users\stapi\AppData\Local\Temp\ccI1ssAu.s:9188   .debug_str:0000000000000ece .LASF56
C:\Users\stapi\AppData\Local\Temp\ccI1ssAu.s:9170   .debug_str:0000000000000e47 .LASF57
C:\Users\stapi\AppData\Local\Temp\ccI1ssAu.s:9436   .debug_str:000000000000179b .LASF58
C:\Users\stapi\AppData\Local\Temp\ccI1ssAu.s:8822   .debug_str:0000000000000527 .LASF59
C:\Users\stapi\AppData\Local\Temp\ccI1ssAu.s:9332   .debug_str:0000000000001329 .LASF60
C:\Users\stapi\AppData\Local\Temp\ccI1ssAu.s:9120   .debug_str:0000000000000ce4 .LASF61
C:\Users\stapi\AppData\Local\Temp\ccI1ssAu.s:9242   .debug_str:00000000000010c9 .LASF62
C:\Users\stapi\AppData\Local\Temp\ccI1ssAu.s:9088   .debug_str:0000000000000c09 .LASF63
C:\Users\stapi\AppData\Local\Temp\ccI1ssAu.s:8668   .debug_str:00000000000000f0 .LASF64
C:\Users\stapi\AppData\Local\Temp\ccI1ssAu.s:8870   .debug_str:0000000000000635 .LASF65
C:\Users\stapi\AppData\Local\Temp\ccI1ssAu.s:8836   .debug_str:0000000000000589 .LASF66
C:\Users\stapi\AppData\Local\Temp\ccI1ssAu.s:8748   .debug_str:00000000000002dd .LASF67
C:\Users\stapi\AppData\Local\Temp\ccI1ssAu.s:8786   .debug_str:0000000000000412 .LASF68
C:\Users\stapi\AppData\Local\Temp\ccI1ssAu.s:8932   .debug_str:00000000000007bd .LASF69
C:\Users\stapi\AppData\Local\Temp\ccI1ssAu.s:8860   .debug_str:00000000000005ed .LASF70
C:\Users\stapi\AppData\Local\Temp\ccI1ssAu.s:8988   .debug_str:0000000000000917 .LASF71
C:\Users\stapi\AppData\Local\Temp\ccI1ssAu.s:9400   .debug_str:0000000000001526 .LASF72
C:\Users\stapi\AppData\Local\Temp\ccI1ssAu.s:9016   .debug_str:00000000000009f6 .LASF73
C:\Users\stapi\AppData\Local\Temp\ccI1ssAu.s:8726   .debug_str:0000000000000251 .LASF74
C:\Users\stapi\AppData\Local\Temp\ccI1ssAu.s:9244   .debug_str:00000000000010da .LASF75
C:\Users\stapi\AppData\Local\Temp\ccI1ssAu.s:8862   .debug_str:00000000000005fb .LASF76
C:\Users\stapi\AppData\Local\Temp\ccI1ssAu.s:9310   .debug_str:0000000000001297 .LASF77
C:\Users\stapi\AppData\Local\Temp\ccI1ssAu.s:9094   .debug_str:0000000000000c38 .LASF78
C:\Users\stapi\AppData\Local\Temp\ccI1ssAu.s:8708   .debug_str:00000000000001df .LASF79
C:\Users\stapi\AppData\Local\Temp\ccI1ssAu.s:9028   .debug_str:0000000000000a4c .LASF80
C:\Users\stapi\AppData\Local\Temp\ccI1ssAu.s:9058   .debug_str:0000000000000b13 .LASF81
C:\Users\stapi\AppData\Local\Temp\ccI1ssAu.s:8638   .debug_str:000000000000003d .LASF82
C:\Users\stapi\AppData\Local\Temp\ccI1ssAu.s:8950   .debug_str:000000000000083a .LASF83
C:\Users\stapi\AppData\Local\Temp\ccI1ssAu.s:9276   .debug_str:00000000000011b2 .LASF84
C:\Users\stapi\AppData\Local\Temp\ccI1ssAu.s:9010   .debug_str:00000000000009c0 .LASF85
C:\Users\stapi\AppData\Local\Temp\ccI1ssAu.s:9018   .debug_str:0000000000000a09 .LASF86
C:\Users\stapi\AppData\Local\Temp\ccI1ssAu.s:8632   .debug_str:000000000000000d .LASF87
C:\Users\stapi\AppData\Local\Temp\ccI1ssAu.s:9154   .debug_str:0000000000000dc7 .LASF88
C:\Users\stapi\AppData\Local\Temp\ccI1ssAu.s:9090   .debug_str:0000000000000c15 .LASF89
C:\Users\stapi\AppData\Local\Temp\ccI1ssAu.s:9296   .debug_str:000000000000123b .LASF90
C:\Users\stapi\AppData\Local\Temp\ccI1ssAu.s:9334   .debug_str:0000000000001336 .LASF91
C:\Users\stapi\AppData\Local\Temp\ccI1ssAu.s:9404   .debug_str:0000000000001540 .LASF92
C:\Users\stapi\AppData\Local\Temp\ccI1ssAu.s:9356   .debug_str:00000000000013e9 .LASF93
C:\Users\stapi\AppData\Local\Temp\ccI1ssAu.s:9000   .debug_str:000000000000095f .LASF94
C:\Users\stapi\AppData\Local\Temp\ccI1ssAu.s:9142   .debug_str:0000000000000d74 .LASF95
C:\Users\stapi\AppData\Local\Temp\ccI1ssAu.s:8820   .debug_str:000000000000051d .LASF96
C:\Users\stapi\AppData\Local\Temp\ccI1ssAu.s:9268   .debug_str:0000000000001182 .LASF97
C:\Users\stapi\AppData\Local\Temp\ccI1ssAu.s:8920   .debug_str:0000000000000764 .LASF98
C:\Users\stapi\AppData\Local\Temp\ccI1ssAu.s:8886   .debug_str:00000000000006a2 .LASF99
C:\Users\stapi\AppData\Local\Temp\ccI1ssAu.s:9208   .debug_str:0000000000000f6a .LASF100
C:\Users\stapi\AppData\Local\Temp\ccI1ssAu.s:9284   .debug_str:00000000000011f3 .LASF101
C:\Users\stapi\AppData\Local\Temp\ccI1ssAu.s:9092   .debug_str:0000000000000c30 .LASF102
C:\Users\stapi\AppData\Local\Temp\ccI1ssAu.s:9104   .debug_str:0000000000000c7e .LASF103
C:\Users\stapi\AppData\Local\Temp\ccI1ssAu.s:9080   .debug_str:0000000000000bcf .LASF104
C:\Users\stapi\AppData\Local\Temp\ccI1ssAu.s:9180   .debug_str:0000000000000ea1 .LASF105
C:\Users\stapi\AppData\Local\Temp\ccI1ssAu.s:8878   .debug_str:0000000000000674 .LASF106
C:\Users\stapi\AppData\Local\Temp\ccI1ssAu.s:9182   .debug_str:0000000000000eab .LASF107
C:\Users\stapi\AppData\Local\Temp\ccI1ssAu.s:9184   .debug_str:0000000000000eb5 .LASF108
C:\Users\stapi\AppData\Local\Temp\ccI1ssAu.s:9458   .debug_str:000000000000183f .LASF109
C:\Users\stapi\AppData\Local\Temp\ccI1ssAu.s:9414   .debug_str:000000000000160d .LASF110
C:\Users\stapi\AppData\Local\Temp\ccI1ssAu.s:9274   .debug_str:00000000000011a4 .LASF112
C:\Users\stapi\AppData\Local\Temp\ccI1ssAu.s:9460   .debug_str:0000000000001844 .LASF113
C:\Users\stapi\AppData\Local\Temp\ccI1ssAu.s:9110   .debug_str:0000000000000c96 .LASF114
C:\Users\stapi\AppData\Local\Temp\ccI1ssAu.s:9214   .debug_str:0000000000000f8f .LASF115
C:\Users\stapi\AppData\Local\Temp\ccI1ssAu.s:8832   .debug_str:0000000000000572 .LASF116
C:\Users\stapi\AppData\Local\Temp\ccI1ssAu.s:9222   .debug_str:0000000000000fda .LASF117
C:\Users\stapi\AppData\Local\Temp\ccI1ssAu.s:8636   .debug_str:0000000000000037 .LASF118
C:\Users\stapi\AppData\Local\Temp\ccI1ssAu.s:8976   .debug_str:00000000000008dd .LASF119
C:\Users\stapi\AppData\Local\Temp\ccI1ssAu.s:8838   .debug_str:0000000000000596 .LASF120
C:\Users\stapi\AppData\Local\Temp\ccI1ssAu.s:8840   .debug_str:000000000000059d .LASF121
C:\Users\stapi\AppData\Local\Temp\ccI1ssAu.s:8842   .debug_str:00000000000005a4 .LASF122
C:\Users\stapi\AppData\Local\Temp\ccI1ssAu.s:8844   .debug_str:00000000000005ab .LASF123
C:\Users\stapi\AppData\Local\Temp\ccI1ssAu.s:8846   .debug_str:00000000000005b2 .LASF124
C:\Users\stapi\AppData\Local\Temp\ccI1ssAu.s:8848   .debug_str:00000000000005b9 .LASF125
C:\Users\stapi\AppData\Local\Temp\ccI1ssAu.s:8850   .debug_str:00000000000005c0 .LASF126
C:\Users\stapi\AppData\Local\Temp\ccI1ssAu.s:8852   .debug_str:00000000000005c7 .LASF127
C:\Users\stapi\AppData\Local\Temp\ccI1ssAu.s:8854   .debug_str:00000000000005ce .LASF128
C:\Users\stapi\AppData\Local\Temp\ccI1ssAu.s:8974   .debug_str:00000000000008d6 .LASF129
C:\Users\stapi\AppData\Local\Temp\ccI1ssAu.s:8640   .debug_str:000000000000004b .LASF130
C:\Users\stapi\AppData\Local\Temp\ccI1ssAu.s:8642   .debug_str:0000000000000053 .LASF131
C:\Users\stapi\AppData\Local\Temp\ccI1ssAu.s:9366   .debug_str:000000000000142f .LASF132
C:\Users\stapi\AppData\Local\Temp\ccI1ssAu.s:8646   .debug_str:0000000000000069 .LASF133
C:\Users\stapi\AppData\Local\Temp\ccI1ssAu.s:8648   .debug_str:0000000000000071 .LASF134
C:\Users\stapi\AppData\Local\Temp\ccI1ssAu.s:8650   .debug_str:0000000000000079 .LASF135
C:\Users\stapi\AppData\Local\Temp\ccI1ssAu.s:8652   .debug_str:0000000000000081 .LASF136
C:\Users\stapi\AppData\Local\Temp\ccI1ssAu.s:8654   .debug_str:0000000000000089 .LASF137
C:\Users\stapi\AppData\Local\Temp\ccI1ssAu.s:8656   .debug_str:0000000000000091 .LASF138
C:\Users\stapi\AppData\Local\Temp\ccI1ssAu.s:8696   .debug_str:00000000000001af .LASF139
C:\Users\stapi\AppData\Local\Temp\ccI1ssAu.s:8698   .debug_str:00000000000001b7 .LASF140
C:\Users\stapi\AppData\Local\Temp\ccI1ssAu.s:8700   .debug_str:00000000000001bf .LASF141
C:\Users\stapi\AppData\Local\Temp\ccI1ssAu.s:8702   .debug_str:00000000000001c7 .LASF142
C:\Users\stapi\AppData\Local\Temp\ccI1ssAu.s:8704   .debug_str:00000000000001cf .LASF143
C:\Users\stapi\AppData\Local\Temp\ccI1ssAu.s:8706   .debug_str:00000000000001d7 .LASF144
C:\Users\stapi\AppData\Local\Temp\ccI1ssAu.s:8660   .debug_str:00000000000000ac .LASF145
C:\Users\stapi\AppData\Local\Temp\ccI1ssAu.s:9122   .debug_str:0000000000000cf3 .LASF146
C:\Users\stapi\AppData\Local\Temp\ccI1ssAu.s:9316   .debug_str:00000000000012c7 .LASF147
C:\Users\stapi\AppData\Local\Temp\ccI1ssAu.s:9382   .debug_str:000000000000149e .LASF148
C:\Users\stapi\AppData\Local\Temp\ccI1ssAu.s:9378   .debug_str:000000000000147b .LASF149
C:\Users\stapi\AppData\Local\Temp\ccI1ssAu.s:8992   .debug_str:000000000000093a .LASF150
C:\Users\stapi\AppData\Local\Temp\ccI1ssAu.s:9422   .debug_str:000000000000172c .LASF151
C:\Users\stapi\AppData\Local\Temp\ccI1ssAu.s:9360   .debug_str:0000000000001407 .LASF152
C:\Users\stapi\AppData\Local\Temp\ccI1ssAu.s:8800   .debug_str:000000000000047e .LASF153
C:\Users\stapi\AppData\Local\Temp\ccI1ssAu.s:9136   .debug_str:0000000000000d4c .LASF154
C:\Users\stapi\AppData\Local\Temp\ccI1ssAu.s:9044   .debug_str:0000000000000ab9 .LASF155
C:\Users\stapi\AppData\Local\Temp\ccI1ssAu.s:9064   .debug_str:0000000000000b37 .LASF156
C:\Users\stapi\AppData\Local\Temp\ccI1ssAu.s:9232   .debug_str:0000000000001005 .LASF157
C:\Users\stapi\AppData\Local\Temp\ccI1ssAu.s:8730   .debug_str:0000000000000270 .LASF158
C:\Users\stapi\AppData\Local\Temp\ccI1ssAu.s:9220   .debug_str:0000000000000fcd .LASF159
C:\Users\stapi\AppData\Local\Temp\ccI1ssAu.s:9306   .debug_str:000000000000127c .LASF160
C:\Users\stapi\AppData\Local\Temp\ccI1ssAu.s:9292   .debug_str:0000000000001221 .LASF161
C:\Users\stapi\AppData\Local\Temp\ccI1ssAu.s:9272   .debug_str:0000000000001198 .LASF162
C:\Users\stapi\AppData\Local\Temp\ccI1ssAu.s:8784   .debug_str:0000000000000406 .LASF163
C:\Users\stapi\AppData\Local\Temp\ccI1ssAu.s:8906   .debug_str:000000000000070e .LASF164
C:\Users\stapi\AppData\Local\Temp\ccI1ssAu.s:9376   .debug_str:000000000000146d .LASF165
C:\Users\stapi\AppData\Local\Temp\ccI1ssAu.s:9150   .debug_str:0000000000000dac .LASF166
C:\Users\stapi\AppData\Local\Temp\ccI1ssAu.s:9342   .debug_str:0000000000001379 .LASF167
C:\Users\stapi\AppData\Local\Temp\ccI1ssAu.s:8802   .debug_str:000000000000048b .LASF168
C:\Users\stapi\AppData\Local\Temp\ccI1ssAu.s:9126   .debug_str:0000000000000d0c .LASF169
C:\Users\stapi\AppData\Local\Temp\ccI1ssAu.s:8812   .debug_str:00000000000004d9 .LASF170
C:\Users\stapi\AppData\Local\Temp\ccI1ssAu.s:9338   .debug_str:000000000000135e .LASF171
C:\Users\stapi\AppData\Local\Temp\ccI1ssAu.s:8994   .debug_str:0000000000000949 .LASF172
C:\Users\stapi\AppData\Local\Temp\ccI1ssAu.s:9054   .debug_str:0000000000000af2 .LASF173
C:\Users\stapi\AppData\Local\Temp\ccI1ssAu.s:9256   .debug_str:0000000000001131 .LASF174
C:\Users\stapi\AppData\Local\Temp\ccI1ssAu.s:8788   .debug_str:000000000000041a .LASF175
C:\Users\stapi\AppData\Local\Temp\ccI1ssAu.s:8724   .debug_str:0000000000000246 .LASF176
C:\Users\stapi\AppData\Local\Temp\ccI1ssAu.s:9102   .debug_str:0000000000000c73 .LASF177
C:\Users\stapi\AppData\Local\Temp\ccI1ssAu.s:9392   .debug_str:00000000000014f5 .LASF178
C:\Users\stapi\AppData\Local\Temp\ccI1ssAu.s:9440   .debug_str:00000000000017b6 .LASF179
C:\Users\stapi\AppData\Local\Temp\ccI1ssAu.s:9212   .debug_str:0000000000000f80 .LASF180
C:\Users\stapi\AppData\Local\Temp\ccI1ssAu.s:9156   .debug_str:0000000000000dde .LASF181
C:\Users\stapi\AppData\Local\Temp\ccI1ssAu.s:9048   .debug_str:0000000000000ad4 .LASF182
C:\Users\stapi\AppData\Local\Temp\ccI1ssAu.s:9050   .debug_str:0000000000000ade .LASF183
C:\Users\stapi\AppData\Local\Temp\ccI1ssAu.s:9052   .debug_str:0000000000000ae8 .LASF184
C:\Users\stapi\AppData\Local\Temp\ccI1ssAu.s:9446   .debug_str:00000000000017e1 .LASF185
C:\Users\stapi\AppData\Local\Temp\ccI1ssAu.s:9280   .debug_str:00000000000011dd .LASF186
C:\Users\stapi\AppData\Local\Temp\ccI1ssAu.s:8728   .debug_str:0000000000000264 .LASF187
C:\Users\stapi\AppData\Local\Temp\ccI1ssAu.s:8676   .debug_str:0000000000000135 .LASF188
C:\Users\stapi\AppData\Local\Temp\ccI1ssAu.s:8678   .debug_str:000000000000013f .LASF189
C:\Users\stapi\AppData\Local\Temp\ccI1ssAu.s:9372   .debug_str:0000000000001445 .LASF190
C:\Users\stapi\AppData\Local\Temp\ccI1ssAu.s:8682   .debug_str:0000000000000159 .LASF191
C:\Users\stapi\AppData\Local\Temp\ccI1ssAu.s:8690   .debug_str:000000000000018a .LASF192
C:\Users\stapi\AppData\Local\Temp\ccI1ssAu.s:8808   .debug_str:00000000000004b5 .LASF193
C:\Users\stapi\AppData\Local\Temp\ccI1ssAu.s:8718   .debug_str:000000000000021d .LASF194
C:\Users\stapi\AppData\Local\Temp\ccI1ssAu.s:9368   .debug_str:0000000000001437 .LASF195
C:\Users\stapi\AppData\Local\Temp\ccI1ssAu.s:9348   .debug_str:00000000000013a9 .LASF196
C:\Users\stapi\AppData\Local\Temp\ccI1ssAu.s:8762   .debug_str:000000000000035b .LASF197
C:\Users\stapi\AppData\Local\Temp\ccI1ssAu.s:9412   .debug_str:0000000000001604 .LASF198
C:\Users\stapi\AppData\Local\Temp\ccI1ssAu.s:9024   .debug_str:0000000000000a36 .LASF199
C:\Users\stapi\AppData\Local\Temp\ccI1ssAu.s:9026   .debug_str:0000000000000a41 .LASF200
C:\Users\stapi\AppData\Local\Temp\ccI1ssAu.s:9030   .debug_str:0000000000000a62 .LASF201
C:\Users\stapi\AppData\Local\Temp\ccI1ssAu.s:8952   .debug_str:0000000000000848 .LASF202
C:\Users\stapi\AppData\Local\Temp\ccI1ssAu.s:8770   .debug_str:0000000000000393 .LASF203
C:\Users\stapi\AppData\Local\Temp\ccI1ssAu.s:9246   .debug_str:00000000000010ed .LASF204
C:\Users\stapi\AppData\Local\Temp\ccI1ssAu.s:9362   .debug_str:0000000000001414 .LASF205
C:\Users\stapi\AppData\Local\Temp\ccI1ssAu.s:8944   .debug_str:0000000000000820 .LASF206
C:\Users\stapi\AppData\Local\Temp\ccI1ssAu.s:8946   .debug_str:0000000000000829 .LASF207
C:\Users\stapi\AppData\Local\Temp\ccI1ssAu.s:9324   .debug_str:0000000000001300 .LASF208
C:\Users\stapi\AppData\Local\Temp\ccI1ssAu.s:9032   .debug_str:0000000000000a6d .LASF209
C:\Users\stapi\AppData\Local\Temp\ccI1ssAu.s:9022   .debug_str:0000000000000a2b .LASF210
C:\Users\stapi\AppData\Local\Temp\ccI1ssAu.s:9248   .debug_str:00000000000010f7 .LASF211
C:\Users\stapi\AppData\Local\Temp\ccI1ssAu.s:8826   .debug_str:0000000000000549 .LASF212
C:\Users\stapi\AppData\Local\Temp\ccI1ssAu.s:8910   .debug_str:000000000000072e .LASF213
C:\Users\stapi\AppData\Local\Temp\ccI1ssAu.s:9020   .debug_str:0000000000000a20 .LASF214
C:\Users\stapi\AppData\Local\Temp\ccI1ssAu.s:8692   .debug_str:0000000000000192 .LASF215
C:\Users\stapi\AppData\Local\Temp\ccI1ssAu.s:8868   .debug_str:0000000000000629 .LASF216
C:\Users\stapi\AppData\Local\Temp\ccI1ssAu.s:9402   .debug_str:0000000000001539 .LASF217
C:\Users\stapi\AppData\Local\Temp\ccI1ssAu.s:8828   .debug_str:0000000000000551 .LASF218
C:\Users\stapi\AppData\Local\Temp\ccI1ssAu.s:8896   .debug_str:00000000000006db .LASF219
C:\Users\stapi\AppData\Local\Temp\ccI1ssAu.s:8742   .debug_str:00000000000002b4 .LASF220
C:\Users\stapi\AppData\Local\Temp\ccI1ssAu.s:9162   .debug_str:0000000000000e06 .LASF221
C:\Users\stapi\AppData\Local\Temp\ccI1ssAu.s:8666   .debug_str:00000000000000e2 .LASF222
C:\Users\stapi\AppData\Local\Temp\ccI1ssAu.s:9108   .debug_str:0000000000000c8f .LASF223
C:\Users\stapi\AppData\Local\Temp\ccI1ssAu.s:8884   .debug_str:000000000000069b .LASF224
C:\Users\stapi\AppData\Local\Temp\ccI1ssAu.s:9224   .debug_str:0000000000000fe0 .LASF225
C:\Users\stapi\AppData\Local\Temp\ccI1ssAu.s:9226   .debug_str:0000000000000fe8 .LASF226
C:\Users\stapi\AppData\Local\Temp\ccI1ssAu.s:9124   .debug_str:0000000000000d02 .LASF227
C:\Users\stapi\AppData\Local\Temp\ccI1ssAu.s:9042   .debug_str:0000000000000ab1 .LASF228
C:\Users\stapi\AppData\Local\Temp\ccI1ssAu.s:9302   .debug_str:000000000000126d .LASF229
C:\Users\stapi\AppData\Local\Temp\ccI1ssAu.s:8924   .debug_str:000000000000077b .LASF230
C:\Users\stapi\AppData\Local\Temp\ccI1ssAu.s:8998   .debug_str:000000000000095a .LASF231
C:\Users\stapi\AppData\Local\Temp\ccI1ssAu.s:9230   .debug_str:0000000000000ff9 .LASF232
C:\Users\stapi\AppData\Local\Temp\ccI1ssAu.s:8960   .debug_str:0000000000000876 .LASF233
C:\Users\stapi\AppData\Local\Temp\ccI1ssAu.s:9034   .debug_str:0000000000000a75 .LASF234
C:\Users\stapi\AppData\Local\Temp\ccI1ssAu.s:8958   .debug_str:000000000000086f .LASF235
C:\Users\stapi\AppData\Local\Temp\ccI1ssAu.s:8732   .debug_str:000000000000027b .LASF236
C:\Users\stapi\AppData\Local\Temp\ccI1ssAu.s:9344   .debug_str:0000000000001386 .LASF237
C:\Users\stapi\AppData\Local\Temp\ccI1ssAu.s:8898   .debug_str:00000000000006e5 .LASF238
C:\Users\stapi\AppData\Local\Temp\ccI1ssAu.s:8888   .debug_str:00000000000006ac .LASF239
C:\Users\stapi\AppData\Local\Temp\ccI1ssAu.s:9118   .debug_str:0000000000000ccf .LASF240
C:\Users\stapi\AppData\Local\Temp\ccI1ssAu.s:8714   .debug_str:0000000000000203 .LASF241
C:\Users\stapi\AppData\Local\Temp\ccI1ssAu.s:9358   .debug_str:00000000000013f8 .LASF242
C:\Users\stapi\AppData\Local\Temp\ccI1ssAu.s:8780   .debug_str:00000000000003f0 .LASF243
C:\Users\stapi\AppData\Local\Temp\ccI1ssAu.s:8876   .debug_str:0000000000000665 .LASF244
C:\Users\stapi\AppData\Local\Temp\ccI1ssAu.s:8736   .debug_str:0000000000000292 .LASF245
C:\Users\stapi\AppData\Local\Temp\ccI1ssAu.s:9234   .debug_str:0000000000001010 .LASF246
C:\Users\stapi\AppData\Local\Temp\ccI1ssAu.s:8966   .debug_str:0000000000000894 .LASF247
C:\Users\stapi\AppData\Local\Temp\ccI1ssAu.s:8864   .debug_str:000000000000060e .LASF248
C:\Users\stapi\AppData\Local\Temp\ccI1ssAu.s:8790   .debug_str:0000000000000427 .LASF249
C:\Users\stapi\AppData\Local\Temp\ccI1ssAu.s:8760   .debug_str:000000000000034c .LASF250
C:\Users\stapi\AppData\Local\Temp\ccI1ssAu.s:9210   .debug_str:0000000000000f70 .LASF251
C:\Users\stapi\AppData\Local\Temp\ccI1ssAu.s:9062   .debug_str:0000000000000b28 .LASF252
C:\Users\stapi\AppData\Local\Temp\ccI1ssAu.s:9096   .debug_str:0000000000000c4b .LASF253
C:\Users\stapi\AppData\Local\Temp\ccI1ssAu.s:9426   .debug_str:000000000000174c .LASF254
C:\Users\stapi\AppData\Local\Temp\ccI1ssAu.s:9364   .debug_str:000000000000141f .LASF255
C:\Users\stapi\AppData\Local\Temp\ccI1ssAu.s:8940   .debug_str:0000000000000805 .LASF256
C:\Users\stapi\AppData\Local\Temp\ccI1ssAu.s:8956   .debug_str:000000000000085e .LASF257
C:\Users\stapi\AppData\Local\Temp\ccI1ssAu.s:8680   .debug_str:0000000000000149 .LASF258
C:\Users\stapi\AppData\Local\Temp\ccI1ssAu.s:8990   .debug_str:000000000000092a .LASF259
C:\Users\stapi\AppData\Local\Temp\ccI1ssAu.s:9418   .debug_str:0000000000001710 .LASF260
C:\Users\stapi\AppData\Local\Temp\ccI1ssAu.s:9216   .debug_str:0000000000000faa .LASF261
C:\Users\stapi\AppData\Local\Temp\ccI1ssAu.s:8890   .debug_str:00000000000006bb .LASF262
C:\Users\stapi\AppData\Local\Temp\ccI1ssAu.s:8774   .debug_str:00000000000003ad .LASF263
C:\Users\stapi\AppData\Local\Temp\ccI1ssAu.s:9294   .debug_str:000000000000122c .LASF264
C:\Users\stapi\AppData\Local\Temp\ccI1ssAu.s:9164   .debug_str:0000000000000e11 .LASF410
C:\Users\stapi\AppData\Local\Temp\ccI1ssAu.s:8688   .debug_str:0000000000000183 .LASF265
C:\Users\stapi\AppData\Local\Temp\ccI1ssAu.s:8980   .debug_str:00000000000008ea .LASF266
C:\Users\stapi\AppData\Local\Temp\ccI1ssAu.s:8712   .debug_str:00000000000001fe .LASF267
C:\Users\stapi\AppData\Local\Temp\ccI1ssAu.s:8948   .debug_str:0000000000000832 .LASF268
C:\Users\stapi\AppData\Local\Temp\ccI1ssAu.s:8738   .debug_str:00000000000002a0 .LASF269
C:\Users\stapi\AppData\Local\Temp\ccI1ssAu.s:9370   .debug_str:000000000000143f .LASF270
C:\Users\stapi\AppData\Local\Temp\ccI1ssAu.s:9158   .debug_str:0000000000000de8 .LASF271
C:\Users\stapi\AppData\Local\Temp\ccI1ssAu.s:8720   .debug_str:0000000000000227 .LASF272
C:\Users\stapi\AppData\Local\Temp\ccI1ssAu.s:9318   .debug_str:00000000000012d2 .LASF273
C:\Users\stapi\AppData\Local\Temp\ccI1ssAu.s:8900   .debug_str:00000000000006eb .LASF274
C:\Users\stapi\AppData\Local\Temp\ccI1ssAu.s:9148   .debug_str:0000000000000da0 .LASF275
C:\Users\stapi\AppData\Local\Temp\ccI1ssAu.s:9098   .debug_str:0000000000000c5a .LASF282
C:\Users\stapi\AppData\Local\Temp\ccI1ssAu.s:1555   .text.platform_init:0000000000000000 .LFB426
C:\Users\stapi\AppData\Local\Temp\ccI1ssAu.s:2299   .text.platform_init:0000000000000426 .LFE426
C:\Users\stapi\AppData\Local\Temp\ccI1ssAu.s:1565   .text.platform_init:0000000000000008 .LBB98
C:\Users\stapi\AppData\Local\Temp\ccI1ssAu.s:1580   .text.platform_init:0000000000000014 .LBB100
C:\Users\stapi\AppData\Local\Temp\ccI1ssAu.s:7861   .debug_loc:0000000000000000 .LLST11
C:\Users\stapi\AppData\Local\Temp\ccI1ssAu.s:7869   .debug_loc:0000000000000014 .LLST12
C:\Users\stapi\AppData\Local\Temp\ccI1ssAu.s:1625   .text.platform_init:0000000000000046 .LBB108
C:\Users\stapi\AppData\Local\Temp\ccI1ssAu.s:7877   .debug_loc:0000000000000028 .LLST13
C:\Users\stapi\AppData\Local\Temp\ccI1ssAu.s:7885   .debug_loc:000000000000003c .LLST14
C:\Users\stapi\AppData\Local\Temp\ccI1ssAu.s:1682   .text.platform_init:000000000000009a .LBB112
C:\Users\stapi\AppData\Local\Temp\ccI1ssAu.s:2076   .text.platform_init:00000000000002ae .LBE112
C:\Users\stapi\AppData\Local\Temp\ccI1ssAu.s:1709   .text.platform_init:00000000000000da .LBB114
C:\Users\stapi\AppData\Local\Temp\ccI1ssAu.s:7893   .debug_loc:0000000000000050 .LLST15
C:\Users\stapi\AppData\Local\Temp\ccI1ssAu.s:7901   .debug_loc:0000000000000064 .LLST16
C:\Users\stapi\AppData\Local\Temp\ccI1ssAu.s:1744   .text.platform_init:0000000000000106 .LBB120
C:\Users\stapi\AppData\Local\Temp\ccI1ssAu.s:7910   .debug_loc:0000000000000079 .LLST17
C:\Users\stapi\AppData\Local\Temp\ccI1ssAu.s:7918   .debug_loc:000000000000008d .LLST18
C:\Users\stapi\AppData\Local\Temp\ccI1ssAu.s:1779   .text.platform_init:0000000000000132 .LBB126
C:\Users\stapi\AppData\Local\Temp\ccI1ssAu.s:7927   .debug_loc:00000000000000a2 .LLST19
C:\Users\stapi\AppData\Local\Temp\ccI1ssAu.s:7935   .debug_loc:00000000000000b6 .LLST20
C:\Users\stapi\AppData\Local\Temp\ccI1ssAu.s:1814   .text.platform_init:000000000000015e .LBB132
C:\Users\stapi\AppData\Local\Temp\ccI1ssAu.s:7944   .debug_loc:00000000000000cb .LLST21
C:\Users\stapi\AppData\Local\Temp\ccI1ssAu.s:7952   .debug_loc:00000000000000df .LLST22
C:\Users\stapi\AppData\Local\Temp\ccI1ssAu.s:1849   .text.platform_init:000000000000018a .LBB138
C:\Users\stapi\AppData\Local\Temp\ccI1ssAu.s:7961   .debug_loc:00000000000000f4 .LLST23
C:\Users\stapi\AppData\Local\Temp\ccI1ssAu.s:7969   .debug_loc:0000000000000108 .LLST24
C:\Users\stapi\AppData\Local\Temp\ccI1ssAu.s:1884   .text.platform_init:00000000000001b6 .LBB144
C:\Users\stapi\AppData\Local\Temp\ccI1ssAu.s:7978   .debug_loc:000000000000011d .LLST25
C:\Users\stapi\AppData\Local\Temp\ccI1ssAu.s:7986   .debug_loc:0000000000000131 .LLST26
C:\Users\stapi\AppData\Local\Temp\ccI1ssAu.s:1919   .text.platform_init:00000000000001e2 .LBB150
C:\Users\stapi\AppData\Local\Temp\ccI1ssAu.s:7995   .debug_loc:0000000000000146 .LLST27
C:\Users\stapi\AppData\Local\Temp\ccI1ssAu.s:8003   .debug_loc:000000000000015a .LLST28
C:\Users\stapi\AppData\Local\Temp\ccI1ssAu.s:1954   .text.platform_init:000000000000020e .LBB156
C:\Users\stapi\AppData\Local\Temp\ccI1ssAu.s:8012   .debug_loc:000000000000016f .LLST29
C:\Users\stapi\AppData\Local\Temp\ccI1ssAu.s:8020   .debug_loc:0000000000000183 .LLST30
C:\Users\stapi\AppData\Local\Temp\ccI1ssAu.s:1989   .text.platform_init:000000000000023a .LBB162
C:\Users\stapi\AppData\Local\Temp\ccI1ssAu.s:8029   .debug_loc:0000000000000198 .LLST31
C:\Users\stapi\AppData\Local\Temp\ccI1ssAu.s:8037   .debug_loc:00000000000001ac .LLST32
C:\Users\stapi\AppData\Local\Temp\ccI1ssAu.s:2024   .text.platform_init:0000000000000266 .LBB168
C:\Users\stapi\AppData\Local\Temp\ccI1ssAu.s:8046   .debug_loc:00000000000001c1 .LLST33
C:\Users\stapi\AppData\Local\Temp\ccI1ssAu.s:8054   .debug_loc:00000000000001d5 .LLST34
C:\Users\stapi\AppData\Local\Temp\ccI1ssAu.s:2059   .text.platform_init:0000000000000292 .LBB174
C:\Users\stapi\AppData\Local\Temp\ccI1ssAu.s:2074   .text.platform_init:00000000000002ae .LBE174
C:\Users\stapi\AppData\Local\Temp\ccI1ssAu.s:8063   .debug_loc:00000000000001ea .LLST35
C:\Users\stapi\AppData\Local\Temp\ccI1ssAu.s:8071   .debug_loc:00000000000001fe .LLST36
C:\Users\stapi\AppData\Local\Temp\ccI1ssAu.s:1689   .text.platform_init:00000000000000aa .LVL142
C:\Users\stapi\AppData\Local\Temp\ccI1ssAu.s:1695   .text.platform_init:00000000000000ba .LVL143
C:\Users\stapi\AppData\Local\Temp\ccI1ssAu.s:1701   .text.platform_init:00000000000000ca .LVL144
C:\Users\stapi\AppData\Local\Temp\ccI1ssAu.s:1707   .text.platform_init:00000000000000da .LVL145
C:\Users\stapi\AppData\Local\Temp\ccI1ssAu.s:1742   .text.platform_init:0000000000000106 .LVL147
C:\Users\stapi\AppData\Local\Temp\ccI1ssAu.s:1777   .text.platform_init:0000000000000132 .LVL149
C:\Users\stapi\AppData\Local\Temp\ccI1ssAu.s:1812   .text.platform_init:000000000000015e .LVL151
C:\Users\stapi\AppData\Local\Temp\ccI1ssAu.s:1847   .text.platform_init:000000000000018a .LVL153
C:\Users\stapi\AppData\Local\Temp\ccI1ssAu.s:1882   .text.platform_init:00000000000001b6 .LVL155
C:\Users\stapi\AppData\Local\Temp\ccI1ssAu.s:1917   .text.platform_init:00000000000001e2 .LVL157
C:\Users\stapi\AppData\Local\Temp\ccI1ssAu.s:1952   .text.platform_init:000000000000020e .LVL159
C:\Users\stapi\AppData\Local\Temp\ccI1ssAu.s:1987   .text.platform_init:000000000000023a .LVL161
C:\Users\stapi\AppData\Local\Temp\ccI1ssAu.s:2022   .text.platform_init:0000000000000266 .LVL163
C:\Users\stapi\AppData\Local\Temp\ccI1ssAu.s:2057   .text.platform_init:0000000000000292 .LVL165
C:\Users\stapi\AppData\Local\Temp\ccI1ssAu.s:1577   .text.platform_init:0000000000000012 .LVL134
C:\Users\stapi\AppData\Local\Temp\ccI1ssAu.s:1589   .text.platform_init:0000000000000020 .LVL135
C:\Users\stapi\AppData\Local\Temp\ccI1ssAu.s:1662   .text.platform_init:000000000000006c .LVL138
C:\Users\stapi\AppData\Local\Temp\ccI1ssAu.s:1668   .text.platform_init:000000000000007c .LVL139
C:\Users\stapi\AppData\Local\Temp\ccI1ssAu.s:1674   .text.platform_init:000000000000008a .LVL140
C:\Users\stapi\AppData\Local\Temp\ccI1ssAu.s:1680   .text.platform_init:000000000000009a .LVL141
C:\Users\stapi\AppData\Local\Temp\ccI1ssAu.s:1634   .text.platform_init:000000000000004a .LBB179
C:\Users\stapi\AppData\Local\Temp\ccI1ssAu.s:1636   .text.platform_init:000000000000004a .LBB181
C:\Users\stapi\AppData\Local\Temp\ccI1ssAu.s:2113   .text.platform_init:00000000000002f2 .LVL173
C:\Users\stapi\AppData\Local\Temp\ccI1ssAu.s:2117   .text.platform_init:00000000000002fe .LVL174
C:\Users\stapi\AppData\Local\Temp\ccI1ssAu.s:2121   .text.platform_init:000000000000030a .LVL175
C:\Users\stapi\AppData\Local\Temp\ccI1ssAu.s:2141   .text.platform_init:0000000000000330 .LVL176
C:\Users\stapi\AppData\Local\Temp\ccI1ssAu.s:2144   .text.platform_init:0000000000000338 .LVL177
C:\Users\stapi\AppData\Local\Temp\ccI1ssAu.s:2151   .text.platform_init:0000000000000340 .LBB185
C:\Users\stapi\AppData\Local\Temp\ccI1ssAu.s:2191   .text.platform_init:000000000000036c .LVL179
C:\Users\stapi\AppData\Local\Temp\ccI1ssAu.s:2198   .text.platform_init:000000000000037e .LVL180
C:\Users\stapi\AppData\Local\Temp\ccI1ssAu.s:2292   .text.platform_init:0000000000000424 .LVL194
C:\Users\stapi\AppData\Local\Temp\ccI1ssAu.s:2103   .text.platform_init:00000000000002de .LVL171
C:\Users\stapi\AppData\Local\Temp\ccI1ssAu.s:2106   .text.platform_init:00000000000002e6 .LVL172
C:\Users\stapi\AppData\Local\Temp\ccI1ssAu.s:2149   .text.platform_init:0000000000000340 .LVL178
C:\Users\stapi\AppData\Local\Temp\ccI1ssAu.s:2205   .text.platform_init:000000000000038a .LVL181
C:\Users\stapi\AppData\Local\Temp\ccI1ssAu.s:2209   .text.platform_init:0000000000000394 .LVL182
C:\Users\stapi\AppData\Local\Temp\ccI1ssAu.s:2213   .text.platform_init:000000000000039e .LVL183
C:\Users\stapi\AppData\Local\Temp\ccI1ssAu.s:2083   .text.platform_init:00000000000002b6 .LBB192
C:\Users\stapi\AppData\Local\Temp\ccI1ssAu.s:2092   .text.platform_init:00000000000002c6 .LBE192
C:\Users\stapi\AppData\Local\Temp\ccI1ssAu.s:2087   .text.platform_init:00000000000002be .LVL168
C:\Users\stapi\AppData\Local\Temp\ccI1ssAu.s:2090   .text.platform_init:00000000000002c6 .LVL169
C:\Users\stapi\AppData\Local\Temp\ccI1ssAu.s:2217   .text.platform_init:000000000000039e .LBB195
C:\Users\stapi\AppData\Local\Temp\ccI1ssAu.s:2232   .text.platform_init:00000000000003b4 .LVL185
C:\Users\stapi\AppData\Local\Temp\ccI1ssAu.s:2236   .text.platform_init:00000000000003c0 .LVL186
C:\Users\stapi\AppData\Local\Temp\ccI1ssAu.s:2240   .text.platform_init:00000000000003cc .LVL187
C:\Users\stapi\AppData\Local\Temp\ccI1ssAu.s:2081   .text.platform_init:00000000000002b6 .LVL167
C:\Users\stapi\AppData\Local\Temp\ccI1ssAu.s:2096   .text.platform_init:00000000000002d2 .LVL170
C:\Users\stapi\AppData\Local\Temp\ccI1ssAu.s:2225   .text.platform_init:00000000000003a8 .LVL184
C:\Users\stapi\AppData\Local\Temp\ccI1ssAu.s:2245   .text.platform_init:00000000000003d4 .LVL188
C:\Users\stapi\AppData\Local\Temp\ccI1ssAu.s:2248   .text.platform_init:00000000000003dc .LVL189
C:\Users\stapi\AppData\Local\Temp\ccI1ssAu.s:2251   .text.platform_init:00000000000003e4 .LVL190
C:\Users\stapi\AppData\Local\Temp\ccI1ssAu.s:2254   .text.platform_init:00000000000003ec .LVL191
C:\Users\stapi\AppData\Local\Temp\ccI1ssAu.s:2258   .text.platform_init:00000000000003f4 .LVL192
C:\Users\stapi\AppData\Local\Temp\ccI1ssAu.s:2270   .text.platform_init:0000000000000410 .LVL193
C:\Users\stapi\AppData\Local\Temp\ccI1ssAu.s:9282   .debug_str:00000000000011e6 .LASF276
C:\Users\stapi\AppData\Local\Temp\ccI1ssAu.s:9166   .debug_str:0000000000000e1a .LASF411
C:\Users\stapi\AppData\Local\Temp\ccI1ssAu.s:8938   .debug_str:00000000000007f6 .LASF277
C:\Users\stapi\AppData\Local\Temp\ccI1ssAu.s:9114   .debug_str:0000000000000cc0 .LASF341
C:\Users\stapi\AppData\Local\Temp\ccI1ssAu.s:8686   .debug_str:0000000000000176 .LASF278
C:\Users\stapi\AppData\Local\Temp\ccI1ssAu.s:9456   .debug_str:0000000000001838 .LASF279
C:\Users\stapi\AppData\Local\Temp\ccI1ssAu.s:8904   .debug_str:0000000000000707 .LASF280
C:\Users\stapi\AppData\Local\Temp\ccI1ssAu.s:9428   .debug_str:000000000000175a .LASF281
C:\Users\stapi\AppData\Local\Temp\ccI1ssAu.s:8936   .debug_str:00000000000007e5 .LASF283
C:\Users\stapi\AppData\Local\Temp\ccI1ssAu.s:1473   .text.rtc_32k_time_get:0000000000000000 .LFB421
C:\Users\stapi\AppData\Local\Temp\ccI1ssAu.s:1541   .text.rtc_32k_time_get:0000000000000050 .LFE421
C:\Users\stapi\AppData\Local\Temp\ccI1ssAu.s:8984   .debug_str:00000000000008ff .LASF284
C:\Users\stapi\AppData\Local\Temp\ccI1ssAu.s:8080   .debug_loc:0000000000000213 .LLST8
C:\Users\stapi\AppData\Local\Temp\ccI1ssAu.s:9254   .debug_str:0000000000001127 .LASF285
C:\Users\stapi\AppData\Local\Temp\ccI1ssAu.s:8091   .debug_loc:0000000000000231 .LLST9
C:\Users\stapi\AppData\Local\Temp\ccI1ssAu.s:9286   .debug_str:00000000000011f9 .LASF286
C:\Users\stapi\AppData\Local\Temp\ccI1ssAu.s:8105   .debug_loc:0000000000000252 .LLST10
C:\Users\stapi\AppData\Local\Temp\ccI1ssAu.s:9066   .debug_str:0000000000000b43 .LASF287
C:\Users\stapi\AppData\Local\Temp\ccI1ssAu.s:1495   .text.rtc_32k_time_get:0000000000000016 .LVL128
C:\Users\stapi\AppData\Local\Temp\ccI1ssAu.s:1507   .text.rtc_32k_time_get:0000000000000028 .LVL130
C:\Users\stapi\AppData\Local\Temp\ccI1ssAu.s:9186   .debug_str:0000000000000ebf .LASF288
C:\Users\stapi\AppData\Local\Temp\ccI1ssAu.s:9328   .debug_str:0000000000001313 .LASF289
C:\Users\stapi\AppData\Local\Temp\ccI1ssAu.s:1444   .text.rf_power_off:0000000000000000 .LFB419
C:\Users\stapi\AppData\Local\Temp\ccI1ssAu.s:1466   .text.rf_power_off:000000000000002a .LFE419
C:\Users\stapi\AppData\Local\Temp\ccI1ssAu.s:1455   .text.rf_power_off:0000000000000016 .LVL125
C:\Users\stapi\AppData\Local\Temp\ccI1ssAu.s:1459   .text.rf_power_off:0000000000000022 .LVL126
C:\Users\stapi\AppData\Local\Temp\ccI1ssAu.s:9298   .debug_str:000000000000124f .LASF294
C:\Users\stapi\AppData\Local\Temp\ccI1ssAu.s:1367   .text.rf_power_on:0000000000000000 .LFB418
C:\Users\stapi\AppData\Local\Temp\ccI1ssAu.s:1437   .text.rf_power_on:0000000000000084 .LFE418
C:\Users\stapi\AppData\Local\Temp\ccI1ssAu.s:1375   .text.rf_power_on:0000000000000008 .LBB56
C:\Users\stapi\AppData\Local\Temp\ccI1ssAu.s:1417   .text.rf_power_on:0000000000000062 .LBE56
C:\Users\stapi\AppData\Local\Temp\ccI1ssAu.s:1395   .text.rf_power_on:0000000000000026 .LVL116
C:\Users\stapi\AppData\Local\Temp\ccI1ssAu.s:1399   .text.rf_power_on:0000000000000032 .LVL117
C:\Users\stapi\AppData\Local\Temp\ccI1ssAu.s:1403   .text.rf_power_on:000000000000003e .LVL118
C:\Users\stapi\AppData\Local\Temp\ccI1ssAu.s:1407   .text.rf_power_on:000000000000004a .LVL119
C:\Users\stapi\AppData\Local\Temp\ccI1ssAu.s:1411   .text.rf_power_on:0000000000000056 .LVL120
C:\Users\stapi\AppData\Local\Temp\ccI1ssAu.s:1415   .text.rf_power_on:0000000000000062 .LVL121
C:\Users\stapi\AppData\Local\Temp\ccI1ssAu.s:1422   .text.rf_power_on:000000000000006a .LVL122
C:\Users\stapi\AppData\Local\Temp\ccI1ssAu.s:1425   .text.rf_power_on:0000000000000072 .LVL123
C:\Users\stapi\AppData\Local\Temp\ccI1ssAu.s:1428   .text.rf_power_on:000000000000007a .LVL124
C:\Users\stapi\AppData\Local\Temp\ccI1ssAu.s:8880   .debug_str:0000000000000679 .LASF334
C:\Users\stapi\AppData\Local\Temp\ccI1ssAu.s:1346   .text.rf_pmu_par_config:0000000000000000 .LFB417
C:\Users\stapi\AppData\Local\Temp\ccI1ssAu.s:1360   .text.rf_pmu_par_config:000000000000000e .LFE417
C:\Users\stapi\AppData\Local\Temp\ccI1ssAu.s:9138   .debug_str:0000000000000d59 .LASF290
C:\Users\stapi\AppData\Local\Temp\ccI1ssAu.s:9086   .debug_str:0000000000000bfb .LASF291
C:\Users\stapi\AppData\Local\Temp\ccI1ssAu.s:9438   .debug_str:00000000000017a6 .LASF292
C:\Users\stapi\AppData\Local\Temp\ccI1ssAu.s:1276   .text.wifi_led_config:0000000000000000 .LFB414
C:\Users\stapi\AppData\Local\Temp\ccI1ssAu.s:1339   .text.wifi_led_config:000000000000008e .LFE414
C:\Users\stapi\AppData\Local\Temp\ccI1ssAu.s:1290   .text.wifi_led_config:000000000000001a .LVL109
C:\Users\stapi\AppData\Local\Temp\ccI1ssAu.s:1297   .text.wifi_led_config:000000000000002c .LVL110
C:\Users\stapi\AppData\Local\Temp\ccI1ssAu.s:1304   .text.wifi_led_config:000000000000003e .LVL111
C:\Users\stapi\AppData\Local\Temp\ccI1ssAu.s:1311   .text.wifi_led_config:0000000000000050 .LVL112
C:\Users\stapi\AppData\Local\Temp\ccI1ssAu.s:1318   .text.wifi_led_config:0000000000000062 .LVL113
C:\Users\stapi\AppData\Local\Temp\ccI1ssAu.s:1325   .text.wifi_led_config:0000000000000074 .LVL114
C:\Users\stapi\AppData\Local\Temp\ccI1ssAu.s:1332   .text.wifi_led_config:0000000000000086 .LVL115
C:\Users\stapi\AppData\Local\Temp\ccI1ssAu.s:8746   .debug_str:00000000000002ce .LASF293
C:\Users\stapi\AppData\Local\Temp\ccI1ssAu.s:1243   .text.wifi_power_off:0000000000000000 .LFB413
C:\Users\stapi\AppData\Local\Temp\ccI1ssAu.s:1269   .text.wifi_power_off:0000000000000034 .LFE413
C:\Users\stapi\AppData\Local\Temp\ccI1ssAu.s:1254   .text.wifi_power_off:0000000000000016 .LVL106
C:\Users\stapi\AppData\Local\Temp\ccI1ssAu.s:1258   .text.wifi_power_off:0000000000000022 .LVL107
C:\Users\stapi\AppData\Local\Temp\ccI1ssAu.s:1262   .text.wifi_power_off:000000000000002c .LVL108
C:\Users\stapi\AppData\Local\Temp\ccI1ssAu.s:9260   .debug_str:0000000000001154 .LASF295
C:\Users\stapi\AppData\Local\Temp\ccI1ssAu.s:1217   .text.wifi_power_on:0000000000000000 .LFB412
C:\Users\stapi\AppData\Local\Temp\ccI1ssAu.s:1236   .text.wifi_power_on:0000000000000022 .LFE412
C:\Users\stapi\AppData\Local\Temp\ccI1ssAu.s:1225   .text.wifi_power_on:0000000000000010 .LVL104
C:\Users\stapi\AppData\Local\Temp\ccI1ssAu.s:1228   .text.wifi_power_on:0000000000000018 .LVL105
C:\Users\stapi\AppData\Local\Temp\ccI1ssAu.s:9190   .debug_str:0000000000000edd .LASF296
C:\Users\stapi\AppData\Local\Temp\ccI1ssAu.s:1168   .text.wifi_irq_disable:0000000000000000 .LFB411
C:\Users\stapi\AppData\Local\Temp\ccI1ssAu.s:1210   .text.wifi_irq_disable:000000000000006c .LFE411
C:\Users\stapi\AppData\Local\Temp\ccI1ssAu.s:1176   .text.wifi_irq_disable:0000000000000010 .LVL96
C:\Users\stapi\AppData\Local\Temp\ccI1ssAu.s:1180   .text.wifi_irq_disable:000000000000001c .LVL97
C:\Users\stapi\AppData\Local\Temp\ccI1ssAu.s:1184   .text.wifi_irq_disable:0000000000000028 .LVL98
C:\Users\stapi\AppData\Local\Temp\ccI1ssAu.s:1188   .text.wifi_irq_disable:0000000000000034 .LVL99
C:\Users\stapi\AppData\Local\Temp\ccI1ssAu.s:1192   .text.wifi_irq_disable:0000000000000040 .LVL100
C:\Users\stapi\AppData\Local\Temp\ccI1ssAu.s:1196   .text.wifi_irq_disable:000000000000004c .LVL101
C:\Users\stapi\AppData\Local\Temp\ccI1ssAu.s:1200   .text.wifi_irq_disable:0000000000000058 .LVL102
C:\Users\stapi\AppData\Local\Temp\ccI1ssAu.s:1204   .text.wifi_irq_disable:0000000000000064 .LVL103
C:\Users\stapi\AppData\Local\Temp\ccI1ssAu.s:8902   .debug_str:00000000000006f7 .LASF297
C:\Users\stapi\AppData\Local\Temp\ccI1ssAu.s:1105   .text.wifi_irq_enable:0000000000000000 .LFB410
C:\Users\stapi\AppData\Local\Temp\ccI1ssAu.s:1161   .text.wifi_irq_enable:0000000000000088 .LFE410
C:\Users\stapi\AppData\Local\Temp\ccI1ssAu.s:1116   .text.wifi_irq_enable:0000000000000018 .LVL88
C:\Users\stapi\AppData\Local\Temp\ccI1ssAu.s:1122   .text.wifi_irq_enable:0000000000000028 .LVL89
C:\Users\stapi\AppData\Local\Temp\ccI1ssAu.s:1128   .text.wifi_irq_enable:0000000000000038 .LVL90
C:\Users\stapi\AppData\Local\Temp\ccI1ssAu.s:1134   .text.wifi_irq_enable:0000000000000048 .LVL91
C:\Users\stapi\AppData\Local\Temp\ccI1ssAu.s:1140   .text.wifi_irq_enable:0000000000000058 .LVL92
C:\Users\stapi\AppData\Local\Temp\ccI1ssAu.s:1146   .text.wifi_irq_enable:0000000000000068 .LVL93
C:\Users\stapi\AppData\Local\Temp\ccI1ssAu.s:1152   .text.wifi_irq_enable:0000000000000078 .LVL94
C:\Users\stapi\AppData\Local\Temp\ccI1ssAu.s:1155   .text.wifi_irq_enable:0000000000000080 .LVL95
C:\Users\stapi\AppData\Local\Temp\ccI1ssAu.s:9046   .debug_str:0000000000000ac4 .LASF298
C:\Users\stapi\AppData\Local\Temp\ccI1ssAu.s:1068   .text.wifi_rcc_config:0000000000000000 .LFB409
C:\Users\stapi\AppData\Local\Temp\ccI1ssAu.s:1098   .text.wifi_rcc_config:0000000000000042 .LFE409
C:\Users\stapi\AppData\Local\Temp\ccI1ssAu.s:1079   .text.wifi_rcc_config:0000000000000016 .LVL84
C:\Users\stapi\AppData\Local\Temp\ccI1ssAu.s:1083   .text.wifi_rcc_config:0000000000000022 .LVL85
C:\Users\stapi\AppData\Local\Temp\ccI1ssAu.s:1087   .text.wifi_rcc_config:000000000000002e .LVL86
C:\Users\stapi\AppData\Local\Temp\ccI1ssAu.s:1091   .text.wifi_rcc_config:000000000000003a .LVL87
C:\Users\stapi\AppData\Local\Temp\ccI1ssAu.s:8882   .debug_str:000000000000068b .LASF299
C:\Users\stapi\AppData\Local\Temp\ccI1ssAu.s:1011   .text.wifi_pmu_config:0000000000000000 .LFB408
C:\Users\stapi\AppData\Local\Temp\ccI1ssAu.s:1061   .text.wifi_pmu_config:0000000000000050 .LFE408
C:\Users\stapi\AppData\Local\Temp\ccI1ssAu.s:1021   .text.wifi_pmu_config:0000000000000010 .LVL79
C:\Users\stapi\AppData\Local\Temp\ccI1ssAu.s:1028   .text.wifi_pmu_config:000000000000001e .LVL80
C:\Users\stapi\AppData\Local\Temp\ccI1ssAu.s:1039   .text.wifi_pmu_config:000000000000002c .LVL81
C:\Users\stapi\AppData\Local\Temp\ccI1ssAu.s:1054   .text.wifi_pmu_config:0000000000000042 .LVL82
C:\Users\stapi\AppData\Local\Temp\ccI1ssAu.s:1058   .text.wifi_pmu_config:000000000000004e .LVL83
C:\Users\stapi\AppData\Local\Temp\ccI1ssAu.s:8806   .debug_str:000000000000049f .LASF300
C:\Users\stapi\AppData\Local\Temp\ccI1ssAu.s:996    .text.wifi_wakelock_release:0000000000000000 .LFB407
C:\Users\stapi\AppData\Local\Temp\ccI1ssAu.s:1004   .text.wifi_wakelock_release:000000000000000a .LFE407
C:\Users\stapi\AppData\Local\Temp\ccI1ssAu.s:1002   .text.wifi_wakelock_release:000000000000000a .LVL78
C:\Users\stapi\AppData\Local\Temp\ccI1ssAu.s:8754   .debug_str:000000000000030d .LASF301
C:\Users\stapi\AppData\Local\Temp\ccI1ssAu.s:981    .text.wifi_wakelock_acquire:0000000000000000 .LFB406
C:\Users\stapi\AppData\Local\Temp\ccI1ssAu.s:989    .text.wifi_wakelock_acquire:000000000000000a .LFE406
C:\Users\stapi\AppData\Local\Temp\ccI1ssAu.s:987    .text.wifi_wakelock_acquire:000000000000000a .LVL77
C:\Users\stapi\AppData\Local\Temp\ccI1ssAu.s:9258   .debug_str:000000000000113f .LASF302
C:\Users\stapi\AppData\Local\Temp\ccI1ssAu.s:966    .text.ble_wakelock_release:0000000000000000 .LFB405
C:\Users\stapi\AppData\Local\Temp\ccI1ssAu.s:974    .text.ble_wakelock_release:000000000000000a .LFE405
C:\Users\stapi\AppData\Local\Temp\ccI1ssAu.s:972    .text.ble_wakelock_release:000000000000000a .LVL76
C:\Users\stapi\AppData\Local\Temp\ccI1ssAu.s:9204   .debug_str:0000000000000f3e .LASF303
C:\Users\stapi\AppData\Local\Temp\ccI1ssAu.s:951    .text.ble_wakelock_acquire:0000000000000000 .LFB404
C:\Users\stapi\AppData\Local\Temp\ccI1ssAu.s:959    .text.ble_wakelock_acquire:000000000000000a .LFE404
C:\Users\stapi\AppData\Local\Temp\ccI1ssAu.s:957    .text.ble_wakelock_acquire:000000000000000a .LVL75
C:\Users\stapi\AppData\Local\Temp\ccI1ssAu.s:8752   .debug_str:00000000000002fc .LASF304
C:\Users\stapi\AppData\Local\Temp\ccI1ssAu.s:935    .text.hw_crc32_disable:0000000000000000 .LFB403
C:\Users\stapi\AppData\Local\Temp\ccI1ssAu.s:944    .text.hw_crc32_disable:000000000000000e .LFE403
C:\Users\stapi\AppData\Local\Temp\ccI1ssAu.s:942    .text.hw_crc32_disable:000000000000000e .LVL74
C:\Users\stapi\AppData\Local\Temp\ccI1ssAu.s:9012   .debug_str:00000000000009db .LASF305
C:\Users\stapi\AppData\Local\Temp\ccI1ssAu.s:919    .text.hw_crc32_single:0000000000000000 .LFB402
C:\Users\stapi\AppData\Local\Temp\ccI1ssAu.s:928    .text.hw_crc32_single:0000000000000008 .LFE402
C:\Users\stapi\AppData\Local\Temp\ccI1ssAu.s:8996   .debug_str:0000000000000955 .LASF306
C:\Users\stapi\AppData\Local\Temp\ccI1ssAu.s:8179   .debug_loc:00000000000002b6 .LLST7
C:\Users\stapi\AppData\Local\Temp\ccI1ssAu.s:926    .text.hw_crc32_single:0000000000000008 .LVL73
C:\Users\stapi\AppData\Local\Temp\ccI1ssAu.s:9314   .debug_str:00000000000012b7 .LASF307
C:\Users\stapi\AppData\Local\Temp\ccI1ssAu.s:893    .text.hw_crc32_enable:0000000000000000 .LFB401
C:\Users\stapi\AppData\Local\Temp\ccI1ssAu.s:912    .text.hw_crc32_enable:0000000000000026 .LFE401
C:\Users\stapi\AppData\Local\Temp\ccI1ssAu.s:903    .text.hw_crc32_enable:0000000000000016 .LVL70
C:\Users\stapi\AppData\Local\Temp\ccI1ssAu.s:906    .text.hw_crc32_enable:000000000000001e .LVL71
C:\Users\stapi\AppData\Local\Temp\ccI1ssAu.s:9406   .debug_str:0000000000001557 .LASF308
C:\Users\stapi\AppData\Local\Temp\ccI1ssAu.s:866    .text.ble_power_off:0000000000000000 .LFB400
C:\Users\stapi\AppData\Local\Temp\ccI1ssAu.s:886    .text.ble_power_off:0000000000000028 .LFE400
C:\Users\stapi\AppData\Local\Temp\ccI1ssAu.s:875    .text.ble_power_off:0000000000000012 .LVL68
C:\Users\stapi\AppData\Local\Temp\ccI1ssAu.s:880    .text.ble_power_off:0000000000000020 .LVL69
C:\Users\stapi\AppData\Local\Temp\ccI1ssAu.s:8858   .debug_str:00000000000005e0 .LASF309
C:\Users\stapi\AppData\Local\Temp\ccI1ssAu.s:833    .text.ble_power_on:0000000000000000 .LFB399
C:\Users\stapi\AppData\Local\Temp\ccI1ssAu.s:859    .text.ble_power_on:0000000000000028 .LFE399
C:\Users\stapi\AppData\Local\Temp\ccI1ssAu.s:841    .text.ble_power_on:0000000000000008 .LBB54
C:\Users\stapi\AppData\Local\Temp\ccI1ssAu.s:847    .text.ble_power_on:0000000000000010 .LBE54
C:\Users\stapi\AppData\Local\Temp\ccI1ssAu.s:8193   .debug_loc:00000000000002d7 .LLST6
C:\Users\stapi\AppData\Local\Temp\ccI1ssAu.s:845    .text.ble_power_on:0000000000000010 .LVL65
C:\Users\stapi\AppData\Local\Temp\ccI1ssAu.s:850    .text.ble_power_on:0000000000000018 .LVL66
C:\Users\stapi\AppData\Local\Temp\ccI1ssAu.s:853    .text.ble_power_on:0000000000000020 .LVL67
C:\Users\stapi\AppData\Local\Temp\ccI1ssAu.s:8986   .debug_str:0000000000000908 .LASF310
C:\Users\stapi\AppData\Local\Temp\ccI1ssAu.s:9252   .debug_str:000000000000110b .LASF311
C:\Users\stapi\AppData\Local\Temp\ccI1ssAu.s:817    .text.ble_sleep_measure_clock_get:0000000000000000 .LFB397
C:\Users\stapi\AppData\Local\Temp\ccI1ssAu.s:826    .text.ble_sleep_measure_clock_get:000000000000000a .LFE397
C:\Users\stapi\AppData\Local\Temp\ccI1ssAu.s:824    .text.ble_sleep_measure_clock_get:000000000000000a .LVL63
C:\Users\stapi\AppData\Local\Temp\ccI1ssAu.s:9168   .debug_str:0000000000000e2d .LASF312
C:\Users\stapi\AppData\Local\Temp\ccI1ssAu.s:803    .text.ble_external_wakeup_clear:0000000000000000 .LFB396
C:\Users\stapi\AppData\Local\Temp\ccI1ssAu.s:810    .text.ble_external_wakeup_clear:0000000000000008 .LFE396
C:\Users\stapi\AppData\Local\Temp\ccI1ssAu.s:808    .text.ble_external_wakeup_clear:0000000000000008 .LVL62
C:\Users\stapi\AppData\Local\Temp\ccI1ssAu.s:9128   .debug_str:0000000000000d19 .LASF313
C:\Users\stapi\AppData\Local\Temp\ccI1ssAu.s:789    .text.ble_external_wakeup:0000000000000000 .LFB395
C:\Users\stapi\AppData\Local\Temp\ccI1ssAu.s:796    .text.ble_external_wakeup:0000000000000008 .LFE395
C:\Users\stapi\AppData\Local\Temp\ccI1ssAu.s:794    .text.ble_external_wakeup:0000000000000008 .LVL61
C:\Users\stapi\AppData\Local\Temp\ccI1ssAu.s:8928   .debug_str:000000000000078f .LASF314
C:\Users\stapi\AppData\Local\Temp\ccI1ssAu.s:774    .text.ble_power_status_fall_clear:0000000000000000 .LFB394
C:\Users\stapi\AppData\Local\Temp\ccI1ssAu.s:782    .text.ble_power_status_fall_clear:000000000000000a .LFE394
C:\Users\stapi\AppData\Local\Temp\ccI1ssAu.s:780    .text.ble_power_status_fall_clear:000000000000000a .LVL60
C:\Users\stapi\AppData\Local\Temp\ccI1ssAu.s:9354   .debug_str:00000000000013cc .LASF315
C:\Users\stapi\AppData\Local\Temp\ccI1ssAu.s:748    .text.ble_power_status_fall_status:0000000000000000 .LFB393
C:\Users\stapi\AppData\Local\Temp\ccI1ssAu.s:767    .text.ble_power_status_fall_status:0000000000000020 .LFE393
C:\Users\stapi\AppData\Local\Temp\ccI1ssAu.s:758    .text.ble_power_status_fall_status:0000000000000012 .LVL59
C:\Users\stapi\AppData\Local\Temp\ccI1ssAu.s:9076   .debug_str:0000000000000b99 .LASF316
C:\Users\stapi\AppData\Local\Temp\ccI1ssAu.s:733    .text.ble_power_status_rise_clear:0000000000000000 .LFB392
C:\Users\stapi\AppData\Local\Temp\ccI1ssAu.s:741    .text.ble_power_status_rise_clear:000000000000000a .LFE392
C:\Users\stapi\AppData\Local\Temp\ccI1ssAu.s:739    .text.ble_power_status_rise_clear:000000000000000a .LVL58
C:\Users\stapi\AppData\Local\Temp\ccI1ssAu.s:9002   .debug_str:0000000000000974 .LASF317
C:\Users\stapi\AppData\Local\Temp\ccI1ssAu.s:707    .text.ble_power_status_rise_status:0000000000000000 .LFB391
C:\Users\stapi\AppData\Local\Temp\ccI1ssAu.s:726    .text.ble_power_status_rise_status:0000000000000020 .LFE391
C:\Users\stapi\AppData\Local\Temp\ccI1ssAu.s:717    .text.ble_power_status_rise_status:0000000000000012 .LVL57
C:\Users\stapi\AppData\Local\Temp\ccI1ssAu.s:8818   .debug_str:0000000000000509 .LASF318
C:\Users\stapi\AppData\Local\Temp\ccI1ssAu.s:681    .text.ble_power_status_en:0000000000000000 .LFB390
C:\Users\stapi\AppData\Local\Temp\ccI1ssAu.s:700    .text.ble_power_status_en:0000000000000024 .LFE390
C:\Users\stapi\AppData\Local\Temp\ccI1ssAu.s:690    .text.ble_power_status_en:0000000000000012 .LVL55
C:\Users\stapi\AppData\Local\Temp\ccI1ssAu.s:694    .text.ble_power_status_en:000000000000001c .LVL56
C:\Users\stapi\AppData\Local\Temp\ccI1ssAu.s:9340   .debug_str:000000000000136a .LASF319
C:\Users\stapi\AppData\Local\Temp\ccI1ssAu.s:650    .text.ble_rcc_config:0000000000000000 .LFB389
C:\Users\stapi\AppData\Local\Temp\ccI1ssAu.s:674    .text.ble_rcc_config:0000000000000036 .LFE389
C:\Users\stapi\AppData\Local\Temp\ccI1ssAu.s:660    .text.ble_rcc_config:0000000000000016 .LVL52
C:\Users\stapi\AppData\Local\Temp\ccI1ssAu.s:664    .text.ble_rcc_config:0000000000000022 .LVL53
C:\Users\stapi\AppData\Local\Temp\ccI1ssAu.s:668    .text.ble_rcc_config:000000000000002e .LVL54
C:\Users\stapi\AppData\Local\Temp\ccI1ssAu.s:9320   .debug_str:00000000000012e2 .LASF320
C:\Users\stapi\AppData\Local\Temp\ccI1ssAu.s:575    .text.ble_wait_pmu_on:0000000000000000 .LFB388
C:\Users\stapi\AppData\Local\Temp\ccI1ssAu.s:643    .text.ble_wait_pmu_on:000000000000006a .LFE388
C:\Users\stapi\AppData\Local\Temp\ccI1ssAu.s:8716   .debug_str:0000000000000212 .LASF321
C:\Users\stapi\AppData\Local\Temp\ccI1ssAu.s:8201   .debug_loc:00000000000002eb .LLST4
C:\Users\stapi\AppData\Local\Temp\ccI1ssAu.s:9262   .debug_str:0000000000001162 .LASF322
C:\Users\stapi\AppData\Local\Temp\ccI1ssAu.s:8215   .debug_loc:000000000000030c .LLST5
C:\Users\stapi\AppData\Local\Temp\ccI1ssAu.s:597    .text.ble_wait_pmu_on:000000000000001e .LVL47
C:\Users\stapi\AppData\Local\Temp\ccI1ssAu.s:612    .text.ble_wait_pmu_on:0000000000000038 .LVL49
C:\Users\stapi\AppData\Local\Temp\ccI1ssAu.s:617    .text.ble_wait_pmu_on:0000000000000044 .LVL50
C:\Users\stapi\AppData\Local\Temp\ccI1ssAu.s:638    .text.ble_wait_pmu_on:0000000000000064 .LVL51
C:\Users\stapi\AppData\Local\Temp\ccI1ssAu.s:8916   .debug_str:000000000000074f .LASF412
C:\Users\stapi\AppData\Local\Temp\ccI1ssAu.s:8874   .debug_str:000000000000065e .LASF343
C:\Users\stapi\AppData\Local\Temp\ccI1ssAu.s:8912   .debug_str:0000000000000736 .LASF323
C:\Users\stapi\AppData\Local\Temp\ccI1ssAu.s:503    .text.ble_exti_exit:0000000000000000 .LFB386
C:\Users\stapi\AppData\Local\Temp\ccI1ssAu.s:511    .text.ble_exti_exit:000000000000000c .LFE386
C:\Users\stapi\AppData\Local\Temp\ccI1ssAu.s:509    .text.ble_exti_exit:000000000000000c .LVL38
C:\Users\stapi\AppData\Local\Temp\ccI1ssAu.s:9040   .debug_str:0000000000000aa2 .LASF324
C:\Users\stapi\AppData\Local\Temp\ccI1ssAu.s:486    .text.ble_exti_enter:0000000000000000 .LFB385
C:\Users\stapi\AppData\Local\Temp\ccI1ssAu.s:496    .text.ble_exti_enter:0000000000000010 .LFE385
C:\Users\stapi\AppData\Local\Temp\ccI1ssAu.s:494    .text.ble_exti_enter:0000000000000010 .LVL37
C:\Users\stapi\AppData\Local\Temp\ccI1ssAu.s:9194   .debug_str:0000000000000ef8 .LASF325
C:\Users\stapi\AppData\Local\Temp\ccI1ssAu.s:471    .text.wlan_exti_exit:0000000000000000 .LFB384
C:\Users\stapi\AppData\Local\Temp\ccI1ssAu.s:479    .text.wlan_exti_exit:000000000000000c .LFE384
C:\Users\stapi\AppData\Local\Temp\ccI1ssAu.s:477    .text.wlan_exti_exit:000000000000000c .LVL36
C:\Users\stapi\AppData\Local\Temp\ccI1ssAu.s:9308   .debug_str:0000000000001287 .LASF326
C:\Users\stapi\AppData\Local\Temp\ccI1ssAu.s:454    .text.wlan_exti_enter:0000000000000000 .LFB383
C:\Users\stapi\AppData\Local\Temp\ccI1ssAu.s:464    .text.wlan_exti_enter:0000000000000010 .LFE383
C:\Users\stapi\AppData\Local\Temp\ccI1ssAu.s:462    .text.wlan_exti_enter:0000000000000010 .LVL35
C:\Users\stapi\AppData\Local\Temp\ccI1ssAu.s:9350   .debug_str:00000000000013b1 .LASF327
C:\Users\stapi\AppData\Local\Temp\ccI1ssAu.s:355    .text.deep_sleep_exit:0000000000000000 .LFB382
C:\Users\stapi\AppData\Local\Temp\ccI1ssAu.s:447    .text.deep_sleep_exit:0000000000000086 .LFE382
C:\Users\stapi\AppData\Local\Temp\ccI1ssAu.s:363    .text.deep_sleep_exit:0000000000000008 .LBB48
C:\Users\stapi\AppData\Local\Temp\ccI1ssAu.s:372    .text.deep_sleep_exit:000000000000000c .LBE48
C:\Users\stapi\AppData\Local\Temp\ccI1ssAu.s:9176   .debug_str:0000000000000e84 .LASF328
C:\Users\stapi\AppData\Local\Temp\ccI1ssAu.s:386    .text.deep_sleep_exit:0000000000000022 .LBB49
C:\Users\stapi\AppData\Local\Temp\ccI1ssAu.s:395    .text.deep_sleep_exit:0000000000000026 .LBE49
C:\Users\stapi\AppData\Local\Temp\ccI1ssAu.s:403    .text.deep_sleep_exit:0000000000000036 .LBB50
C:\Users\stapi\AppData\Local\Temp\ccI1ssAu.s:418    .text.deep_sleep_exit:000000000000004c .LVL30
C:\Users\stapi\AppData\Local\Temp\ccI1ssAu.s:422    .text.deep_sleep_exit:0000000000000058 .LVL31
C:\Users\stapi\AppData\Local\Temp\ccI1ssAu.s:426    .text.deep_sleep_exit:0000000000000064 .LVL32
C:\Users\stapi\AppData\Local\Temp\ccI1ssAu.s:377    .text.deep_sleep_exit:0000000000000014 .LVL25
C:\Users\stapi\AppData\Local\Temp\ccI1ssAu.s:383    .text.deep_sleep_exit:0000000000000022 .LVL26
C:\Users\stapi\AppData\Local\Temp\ccI1ssAu.s:400    .text.deep_sleep_exit:0000000000000032 .LVL28
C:\Users\stapi\AppData\Local\Temp\ccI1ssAu.s:411    .text.deep_sleep_exit:0000000000000040 .LVL29
C:\Users\stapi\AppData\Local\Temp\ccI1ssAu.s:433    .text.deep_sleep_exit:0000000000000070 .LVL33
C:\Users\stapi\AppData\Local\Temp\ccI1ssAu.s:439    .text.deep_sleep_exit:000000000000007e .LVL34
C:\Users\stapi\AppData\Local\Temp\ccI1ssAu.s:8694   .debug_str:000000000000019e .LASF329
C:\Users\stapi\AppData\Local\Temp\ccI1ssAu.s:252    .text.deep_sleep_enter:0000000000000000 .LFB381
C:\Users\stapi\AppData\Local\Temp\ccI1ssAu.s:348    .text.deep_sleep_enter:00000000000000b8 .LFE381
C:\Users\stapi\AppData\Local\Temp\ccI1ssAu.s:9444   .debug_str:00000000000017d6 .LASF330
C:\Users\stapi\AppData\Local\Temp\ccI1ssAu.s:8227   .debug_loc:0000000000000324 .LLST2
C:\Users\stapi\AppData\Local\Temp\ccI1ssAu.s:286    .text.deep_sleep_enter:0000000000000044 .LBB44
C:\Users\stapi\AppData\Local\Temp\ccI1ssAu.s:305    .text.deep_sleep_enter:0000000000000066 .LVL18
C:\Users\stapi\AppData\Local\Temp\ccI1ssAu.s:309    .text.deep_sleep_enter:0000000000000072 .LVL19
C:\Users\stapi\AppData\Local\Temp\ccI1ssAu.s:313    .text.deep_sleep_enter:000000000000007e .LVL20
C:\Users\stapi\AppData\Local\Temp\ccI1ssAu.s:269    .text.deep_sleep_enter:000000000000001a .LVL12
C:\Users\stapi\AppData\Local\Temp\ccI1ssAu.s:275    .text.deep_sleep_enter:000000000000002a .LVL13
C:\Users\stapi\AppData\Local\Temp\ccI1ssAu.s:279    .text.deep_sleep_enter:0000000000000036 .LVL14
C:\Users\stapi\AppData\Local\Temp\ccI1ssAu.s:282    .text.deep_sleep_enter:000000000000003e .LVL15
C:\Users\stapi\AppData\Local\Temp\ccI1ssAu.s:295    .text.deep_sleep_enter:0000000000000052 .LVL16
C:\Users\stapi\AppData\Local\Temp\ccI1ssAu.s:298    .text.deep_sleep_enter:000000000000005a .LVL17
C:\Users\stapi\AppData\Local\Temp\ccI1ssAu.s:322    .text.deep_sleep_enter:000000000000008c .LVL21
C:\Users\stapi\AppData\Local\Temp\ccI1ssAu.s:333    .text.deep_sleep_enter:000000000000009e .LVL22
C:\Users\stapi\AppData\Local\Temp\ccI1ssAu.s:341    .text.deep_sleep_enter:00000000000000b0 .LVL23
C:\Users\stapi\AppData\Local\Temp\ccI1ssAu.s:8764   .debug_str:0000000000000364 .LASF413
C:\Users\stapi\AppData\Local\Temp\ccI1ssAu.s:13     .text.exti_line_clear:0000000000000000 .LFB380
C:\Users\stapi\AppData\Local\Temp\ccI1ssAu.s:47     .text.exti_line_clear:0000000000000034 .LFE380
C:\Users\stapi\AppData\Local\Temp\ccI1ssAu.s:8782   .debug_str:00000000000003fe .LASF331
C:\Users\stapi\AppData\Local\Temp\ccI1ssAu.s:8241   .debug_loc:0000000000000345 .LLST0
C:\Users\stapi\AppData\Local\Temp\ccI1ssAu.s:27     .text.exti_line_clear:0000000000000012 .LVL1
C:\Users\stapi\AppData\Local\Temp\ccI1ssAu.s:32     .text.exti_line_clear:000000000000001c .LVL2
C:\Users\stapi\AppData\Local\Temp\ccI1ssAu.s:39     .text.exti_line_clear:000000000000002c .LVL3
C:\Users\stapi\AppData\Local\Temp\ccI1ssAu.s:9380   .debug_str:000000000000148d .LASF332
C:\Users\stapi\AppData\Local\Temp\ccI1ssAu.s:222    .text.wifi_hw_is_sleep:0000000000000000 .LFB379
C:\Users\stapi\AppData\Local\Temp\ccI1ssAu.s:245    .text.wifi_hw_is_sleep:0000000000000018 .LFE379
C:\Users\stapi\AppData\Local\Temp\ccI1ssAu.s:8662   .debug_str:00000000000000bb .LASF333
C:\Users\stapi\AppData\Local\Temp\ccI1ssAu.s:201    .text.wifi_is_not_idle:0000000000000000 .LFB378
C:\Users\stapi\AppData\Local\Temp\ccI1ssAu.s:215    .text.wifi_is_not_idle:0000000000000016 .LFE378
C:\Users\stapi\AppData\Local\Temp\ccI1ssAu.s:8744   .debug_str:00000000000002bf .LASF335
C:\Users\stapi\AppData\Local\Temp\ccI1ssAu.s:146    .text.wifi_lpds_exit:0000000000000000 .LFB377
C:\Users\stapi\AppData\Local\Temp\ccI1ssAu.s:194    .text.wifi_lpds_exit:0000000000000034 .LFE377
C:\Users\stapi\AppData\Local\Temp\ccI1ssAu.s:9434   .debug_str:000000000000178b .LASF336
C:\Users\stapi\AppData\Local\Temp\ccI1ssAu.s:127    .text.wifi_lpds_enter:0000000000000000 .LFB376
C:\Users\stapi\AppData\Local\Temp\ccI1ssAu.s:139    .text.wifi_lpds_enter:000000000000000e .LFE376
C:\Users\stapi\AppData\Local\Temp\ccI1ssAu.s:9072   .debug_str:0000000000000b70 .LASF337
C:\Users\stapi\AppData\Local\Temp\ccI1ssAu.s:98     .text.wifi_lpds_preconfig:0000000000000000 .LFB375
C:\Users\stapi\AppData\Local\Temp\ccI1ssAu.s:120    .text.wifi_lpds_preconfig:0000000000000018 .LFE375
C:\Users\stapi\AppData\Local\Temp\ccI1ssAu.s:8954   .debug_str:0000000000000852 .LASF338
C:\Users\stapi\AppData\Local\Temp\ccI1ssAu.s:8252   .debug_loc:0000000000000363 .LLST1
C:\Users\stapi\AppData\Local\Temp\ccI1ssAu.s:9160   .debug_str:0000000000000ded .LASF339
C:\Users\stapi\AppData\Local\Temp\ccI1ssAu.s:9004   .debug_str:0000000000000991 .LASF340
C:\Users\stapi\AppData\Local\Temp\ccI1ssAu.s:8634   .debug_str:0000000000000024 .LASF342
C:\Users\stapi\AppData\Local\Temp\ccI1ssAu.s:9116   .debug_str:0000000000000cca .LASF344
C:\Users\stapi\AppData\Local\Temp\ccI1ssAu.s:53     .text.ble_pmu_config.part.0:0000000000000000 .LFB427
C:\Users\stapi\AppData\Local\Temp\ccI1ssAu.s:91     .text.ble_pmu_config.part.0:0000000000000040 .LFE427
C:\Users\stapi\AppData\Local\Temp\ccI1ssAu.s:65     .text.ble_pmu_config.part.0:0000000000000014 .LVL5
C:\Users\stapi\AppData\Local\Temp\ccI1ssAu.s:72     .text.ble_pmu_config.part.0:0000000000000026 .LVL6
C:\Users\stapi\AppData\Local\Temp\ccI1ssAu.s:82     .text.ble_pmu_config.part.0:0000000000000034 .LVL7
C:\Users\stapi\AppData\Local\Temp\ccI1ssAu.s:518    .text.ble_pmu_config:0000000000000000 .LFB387
C:\Users\stapi\AppData\Local\Temp\ccI1ssAu.s:568    .text.ble_pmu_config:000000000000004c .LFE387
C:\Users\stapi\AppData\Local\Temp\ccI1ssAu.s:8266   .debug_loc:0000000000000384 .LLST3
C:\Users\stapi\AppData\Local\Temp\ccI1ssAu.s:530    .text.ble_pmu_config:0000000000000012 .LVL40
C:\Users\stapi\AppData\Local\Temp\ccI1ssAu.s:546    .text.ble_pmu_config:0000000000000026 .LVL43
C:\Users\stapi\AppData\Local\Temp\ccI1ssAu.s:553    .text.ble_pmu_config:0000000000000038 .LVL44
C:\Users\stapi\AppData\Local\Temp\ccI1ssAu.s:563    .text.ble_pmu_config:0000000000000046 .LVL45
C:\Users\stapi\AppData\Local\Temp\ccI1ssAu.s:9424   .debug_str:000000000000173b .LASF345
C:\Users\stapi\AppData\Local\Temp\ccI1ssAu.s:8778   .debug_str:00000000000003d1 .LASF346
C:\Users\stapi\AppData\Local\Temp\ccI1ssAu.s:8674   .debug_str:000000000000011c .LASF347
C:\Users\stapi\AppData\Local\Temp\ccI1ssAu.s:9420   .debug_str:0000000000001720 .LASF348
C:\Users\stapi\AppData\Local\Temp\ccI1ssAu.s:8766   .debug_str:0000000000000374 .LASF349
C:\Users\stapi\AppData\Local\Temp\ccI1ssAu.s:8968   .debug_str:00000000000008a3 .LASF350
C:\Users\stapi\AppData\Local\Temp\ccI1ssAu.s:9430   .debug_str:0000000000001761 .LASF351
C:\Users\stapi\AppData\Local\Temp\ccI1ssAu.s:9450   .debug_str:00000000000017fb .LASF352
C:\Users\stapi\AppData\Local\Temp\ccI1ssAu.s:9130   .debug_str:0000000000000d2d .LASF353
C:\Users\stapi\AppData\Local\Temp\ccI1ssAu.s:8894   .debug_str:00000000000006d6 .LASF414
C:\Users\stapi\AppData\Local\Temp\ccI1ssAu.s:9008   .debug_str:00000000000009b1 .LASF415
C:\Users\stapi\AppData\Local\Temp\ccI1ssAu.s:8796   .debug_str:000000000000045a .LASF354
C:\Users\stapi\AppData\Local\Temp\ccI1ssAu.s:9036   .debug_str:0000000000000a7c .LASF355
C:\Users\stapi\AppData\Local\Temp\ccI1ssAu.s:8914   .debug_str:0000000000000744 .LASF356
C:\Users\stapi\AppData\Local\Temp\ccI1ssAu.s:9172   .debug_str:0000000000000e56 .LASF357
C:\Users\stapi\AppData\Local\Temp\ccI1ssAu.s:9178   .debug_str:0000000000000e8c .LASF358
C:\Users\stapi\AppData\Local\Temp\ccI1ssAu.s:8972   .debug_str:00000000000008c1 .LASF359
C:\Users\stapi\AppData\Local\Temp\ccI1ssAu.s:9442   .debug_str:00000000000017c5 .LASF360
C:\Users\stapi\AppData\Local\Temp\ccI1ssAu.s:8644   .debug_str:000000000000005b .LASF361
C:\Users\stapi\AppData\Local\Temp\ccI1ssAu.s:8630   .debug_str:0000000000000000 .LASF362
C:\Users\stapi\AppData\Local\Temp\ccI1ssAu.s:9330   .debug_str:0000000000001320 .LASF363
C:\Users\stapi\AppData\Local\Temp\ccI1ssAu.s:8982   .debug_str:00000000000008f2 .LASF364
C:\Users\stapi\AppData\Local\Temp\ccI1ssAu.s:8798   .debug_str:000000000000046f .LASF365
C:\Users\stapi\AppData\Local\Temp\ccI1ssAu.s:8934   .debug_str:00000000000007cc .LASF366
C:\Users\stapi\AppData\Local\Temp\ccI1ssAu.s:9198   .debug_str:0000000000000f1e .LASF367
C:\Users\stapi\AppData\Local\Temp\ccI1ssAu.s:9386   .debug_str:00000000000014be .LASF368
C:\Users\stapi\AppData\Local\Temp\ccI1ssAu.s:8872   .debug_str:0000000000000646 .LASF369
C:\Users\stapi\AppData\Local\Temp\ccI1ssAu.s:8794   .debug_str:0000000000000441 .LASF370
C:\Users\stapi\AppData\Local\Temp\ccI1ssAu.s:9152   .debug_str:0000000000000dba .LASF371
C:\Users\stapi\AppData\Local\Temp\ccI1ssAu.s:8710   .debug_str:00000000000001f2 .LASF372
C:\Users\stapi\AppData\Local\Temp\ccI1ssAu.s:9394   .debug_str:0000000000001503 .LASF373
C:\Users\stapi\AppData\Local\Temp\ccI1ssAu.s:9238   .debug_str:00000000000010a5 .LASF374
C:\Users\stapi\AppData\Local\Temp\ccI1ssAu.s:9056   .debug_str:0000000000000afd .LASF375
C:\Users\stapi\AppData\Local\Temp\ccI1ssAu.s:9060   .debug_str:0000000000000b1c .LASF376
C:\Users\stapi\AppData\Local\Temp\ccI1ssAu.s:9146   .debug_str:0000000000000d8e .LASF377
C:\Users\stapi\AppData\Local\Temp\ccI1ssAu.s:9304   .debug_str:0000000000001272 .LASF378
C:\Users\stapi\AppData\Local\Temp\ccI1ssAu.s:9408   .debug_str:0000000000001565 .LASF379
C:\Users\stapi\AppData\Local\Temp\ccI1ssAu.s:8740   .debug_str:00000000000002a7 .LASF380
C:\Users\stapi\AppData\Local\Temp\ccI1ssAu.s:9384   .debug_str:00000000000014af .LASF381
C:\Users\stapi\AppData\Local\Temp\ccI1ssAu.s:8758   .debug_str:0000000000000337 .LASF382
C:\Users\stapi\AppData\Local\Temp\ccI1ssAu.s:8824   .debug_str:0000000000000534 .LASF383
C:\Users\stapi\AppData\Local\Temp\ccI1ssAu.s:9078   .debug_str:0000000000000bb5 .LASF384
C:\Users\stapi\AppData\Local\Temp\ccI1ssAu.s:9346   .debug_str:0000000000001391 .LASF385
C:\Users\stapi\AppData\Local\Temp\ccI1ssAu.s:8658   .debug_str:0000000000000099 .LASF386
C:\Users\stapi\AppData\Local\Temp\ccI1ssAu.s:9174   .debug_str:0000000000000e65 .LASF387
C:\Users\stapi\AppData\Local\Temp\ccI1ssAu.s:9374   .debug_str:000000000000144f .LASF388
C:\Users\stapi\AppData\Local\Temp\ccI1ssAu.s:9452   .debug_str:0000000000001812 .LASF389
C:\Users\stapi\AppData\Local\Temp\ccI1ssAu.s:9206   .debug_str:0000000000000f53 .LASF390
C:\Users\stapi\AppData\Local\Temp\ccI1ssAu.s:8776   .debug_str:00000000000003bc .LASF391
C:\Users\stapi\AppData\Local\Temp\ccI1ssAu.s:8664   .debug_str:00000000000000cc .LASF392
C:\Users\stapi\AppData\Local\Temp\ccI1ssAu.s:9398   .debug_str:000000000000151c .LASF393
C:\Users\stapi\AppData\Local\Temp\ccI1ssAu.s:8810   .debug_str:00000000000004bd .LASF394
C:\Users\stapi\AppData\Local\Temp\ccI1ssAu.s:8756   .debug_str:0000000000000323 .LASF395
C:\Users\stapi\AppData\Local\Temp\ccI1ssAu.s:8866   .debug_str:000000000000061c .LASF396
C:\Users\stapi\AppData\Local\Temp\ccI1ssAu.s:8684   .debug_str:0000000000000163 .LASF397
C:\Users\stapi\AppData\Local\Temp\ccI1ssAu.s:9336   .debug_str:0000000000001349 .LASF398
C:\Users\stapi\AppData\Local\Temp\ccI1ssAu.s:8750   .debug_str:00000000000002ea .LASF399
C:\Users\stapi\AppData\Local\Temp\ccI1ssAu.s:9270   .debug_str:000000000000118d .LASF400
C:\Users\stapi\AppData\Local\Temp\ccI1ssAu.s:9144   .debug_str:0000000000000d7f .LASF401
C:\Users\stapi\AppData\Local\Temp\ccI1ssAu.s:9074   .debug_str:0000000000000b84 .LASF402
C:\Users\stapi\AppData\Local\Temp\ccI1ssAu.s:9196   .debug_str:0000000000000f07 .LASF403
C:\Users\stapi\AppData\Local\Temp\ccI1ssAu.s:8964   .debug_str:0000000000000886 .LASF404
C:\Users\stapi\AppData\Local\Temp\ccI1ssAu.s:9278   .debug_str:00000000000011c3 .LASF405
C:\Users\stapi\AppData\Local\Temp\ccI1ssAu.s:8816   .debug_str:00000000000004f9 .LASF406
C:\Users\stapi\AppData\Local\Temp\ccI1ssAu.s:1621   .text.platform_init:0000000000000046 .LVL136
C:\Users\stapi\AppData\Local\Temp\ccI1ssAu.s:1657   .text.platform_init:0000000000000064 .LVL137
C:\Users\stapi\AppData\Local\Temp\ccI1ssAu.s:1737   .text.platform_init:00000000000000fe .LVL146
C:\Users\stapi\AppData\Local\Temp\ccI1ssAu.s:1772   .text.platform_init:000000000000012a .LVL148
C:\Users\stapi\AppData\Local\Temp\ccI1ssAu.s:1807   .text.platform_init:0000000000000156 .LVL150
C:\Users\stapi\AppData\Local\Temp\ccI1ssAu.s:1842   .text.platform_init:0000000000000182 .LVL152
C:\Users\stapi\AppData\Local\Temp\ccI1ssAu.s:1877   .text.platform_init:00000000000001ae .LVL154
C:\Users\stapi\AppData\Local\Temp\ccI1ssAu.s:1912   .text.platform_init:00000000000001da .LVL156
C:\Users\stapi\AppData\Local\Temp\ccI1ssAu.s:1947   .text.platform_init:0000000000000206 .LVL158
C:\Users\stapi\AppData\Local\Temp\ccI1ssAu.s:1982   .text.platform_init:0000000000000232 .LVL160
C:\Users\stapi\AppData\Local\Temp\ccI1ssAu.s:2017   .text.platform_init:000000000000025e .LVL162
C:\Users\stapi\AppData\Local\Temp\ccI1ssAu.s:2052   .text.platform_init:000000000000028a .LVL164
C:\Users\stapi\AppData\Local\Temp\ccI1ssAu.s:2072   .text.platform_init:00000000000002ae .LVL166
C:\Users\stapi\AppData\Local\Temp\ccI1ssAu.s:1476   .text.rtc_32k_time_get:0000000000000000 .LVL127
C:\Users\stapi\AppData\Local\Temp\ccI1ssAu.s:1511   .text.rtc_32k_time_get:000000000000002c .LVL131
C:\Users\stapi\AppData\Local\Temp\ccI1ssAu.s:1519   .text.rtc_32k_time_get:0000000000000034 .LVL132
C:\Users\stapi\AppData\Local\Temp\ccI1ssAu.s:1534   .text.rtc_32k_time_get:0000000000000048 .LVL133
C:\Users\stapi\AppData\Local\Temp\ccI1ssAu.s:922    .text.hw_crc32_single:0000000000000000 .LVL72
C:\Users\stapi\AppData\Local\Temp\ccI1ssAu.s:840    .text.ble_power_on:0000000000000008 .LVL64
C:\Users\stapi\AppData\Local\Temp\ccI1ssAu.s:578    .text.ble_wait_pmu_on:0000000000000000 .LVL46
C:\Users\stapi\AppData\Local\Temp\ccI1ssAu.s:605    .text.ble_wait_pmu_on:000000000000002c .LVL48
C:\Users\stapi\AppData\Local\Temp\ccI1ssAu.s:255    .text.deep_sleep_enter:0000000000000000 .LVL10
C:\Users\stapi\AppData\Local\Temp\ccI1ssAu.s:267    .text.deep_sleep_enter:0000000000000012 .LVL11
C:\Users\stapi\AppData\Local\Temp\ccI1ssAu.s:17     .text.exti_line_clear:0000000000000000 .LVL0
C:\Users\stapi\AppData\Local\Temp\ccI1ssAu.s:101    .text.wifi_lpds_preconfig:0000000000000000 .LVL8
C:\Users\stapi\AppData\Local\Temp\ccI1ssAu.s:108    .text.wifi_lpds_preconfig:000000000000000a .LVL9
C:\Users\stapi\AppData\Local\Temp\ccI1ssAu.s:521    .text.ble_pmu_config:0000000000000000 .LVL39
C:\Users\stapi\AppData\Local\Temp\ccI1ssAu.s:538    .text.ble_pmu_config:000000000000001a .LVL41
C:\Users\stapi\AppData\Local\Temp\ccI1ssAu.s:544    .text.ble_pmu_config:000000000000001e .LVL42
C:\Users\stapi\AppData\Local\Temp\ccI1ssAu.s:2351   .debug_info:0000000000000000 .Ldebug_info0
C:\Users\stapi\AppData\Local\Temp\ccI1ssAu.s:291    .text.deep_sleep_enter:0000000000000046 .LBE44
C:\Users\stapi\AppData\Local\Temp\ccI1ssAu.s:300    .text.deep_sleep_enter:000000000000005a .LBB47
C:\Users\stapi\AppData\Local\Temp\ccI1ssAu.s:315    .text.deep_sleep_enter:000000000000007e .LBE47
C:\Users\stapi\AppData\Local\Temp\ccI1ssAu.s:408    .text.deep_sleep_exit:0000000000000038 .LBE50
C:\Users\stapi\AppData\Local\Temp\ccI1ssAu.s:413    .text.deep_sleep_exit:0000000000000040 .LBB53
C:\Users\stapi\AppData\Local\Temp\ccI1ssAu.s:428    .text.deep_sleep_exit:0000000000000064 .LBE53
C:\Users\stapi\AppData\Local\Temp\ccI1ssAu.s:1569   .text.platform_init:0000000000000008 .LBE98
C:\Users\stapi\AppData\Local\Temp\ccI1ssAu.s:1573   .text.platform_init:000000000000000a .LBB178
C:\Users\stapi\AppData\Local\Temp\ccI1ssAu.s:1633   .text.platform_init:000000000000004a .LBE178
C:\Users\stapi\AppData\Local\Temp\ccI1ssAu.s:1644   .text.platform_init:000000000000004c .LBB191
C:\Users\stapi\AppData\Local\Temp\ccI1ssAu.s:2078   .text.platform_init:00000000000002ae .LBE191
C:\Users\stapi\AppData\Local\Temp\ccI1ssAu.s:1586   .text.platform_init:0000000000000018 .LBE100
C:\Users\stapi\AppData\Local\Temp\ccI1ssAu.s:1591   .text.platform_init:0000000000000020 .LBB105
C:\Users\stapi\AppData\Local\Temp\ccI1ssAu.s:1597   .text.platform_init:0000000000000024 .LBE105
C:\Users\stapi\AppData\Local\Temp\ccI1ssAu.s:1601   .text.platform_init:0000000000000028 .LBB106
C:\Users\stapi\AppData\Local\Temp\ccI1ssAu.s:1610   .text.platform_init:0000000000000034 .LBE106
C:\Users\stapi\AppData\Local\Temp\ccI1ssAu.s:1613   .text.platform_init:0000000000000038 .LBB107
C:\Users\stapi\AppData\Local\Temp\ccI1ssAu.s:1623   .text.platform_init:0000000000000046 .LBE107
C:\Users\stapi\AppData\Local\Temp\ccI1ssAu.s:1631   .text.platform_init:000000000000004a .LBE108
C:\Users\stapi\AppData\Local\Temp\ccI1ssAu.s:1646   .text.platform_init:000000000000004c .LBB111
C:\Users\stapi\AppData\Local\Temp\ccI1ssAu.s:1659   .text.platform_init:0000000000000064 .LBE111
C:\Users\stapi\AppData\Local\Temp\ccI1ssAu.s:1715   .text.platform_init:00000000000000de .LBE114
C:\Users\stapi\AppData\Local\Temp\ccI1ssAu.s:1719   .text.platform_init:00000000000000e2 .LBB118
C:\Users\stapi\AppData\Local\Temp\ccI1ssAu.s:1728   .text.platform_init:00000000000000ee .LBE118
C:\Users\stapi\AppData\Local\Temp\ccI1ssAu.s:1731   .text.platform_init:00000000000000f2 .LBB119
C:\Users\stapi\AppData\Local\Temp\ccI1ssAu.s:1739   .text.platform_init:00000000000000fe .LBE119
C:\Users\stapi\AppData\Local\Temp\ccI1ssAu.s:1750   .text.platform_init:000000000000010a .LBE120
C:\Users\stapi\AppData\Local\Temp\ccI1ssAu.s:1754   .text.platform_init:000000000000010e .LBB124
C:\Users\stapi\AppData\Local\Temp\ccI1ssAu.s:1763   .text.platform_init:000000000000011a .LBE124
C:\Users\stapi\AppData\Local\Temp\ccI1ssAu.s:1766   .text.platform_init:000000000000011e .LBB125
C:\Users\stapi\AppData\Local\Temp\ccI1ssAu.s:1774   .text.platform_init:000000000000012a .LBE125
C:\Users\stapi\AppData\Local\Temp\ccI1ssAu.s:1785   .text.platform_init:0000000000000136 .LBE126
C:\Users\stapi\AppData\Local\Temp\ccI1ssAu.s:1789   .text.platform_init:000000000000013a .LBB130
C:\Users\stapi\AppData\Local\Temp\ccI1ssAu.s:1798   .text.platform_init:0000000000000146 .LBE130
C:\Users\stapi\AppData\Local\Temp\ccI1ssAu.s:1801   .text.platform_init:000000000000014a .LBB131
C:\Users\stapi\AppData\Local\Temp\ccI1ssAu.s:1809   .text.platform_init:0000000000000156 .LBE131
C:\Users\stapi\AppData\Local\Temp\ccI1ssAu.s:1820   .text.platform_init:0000000000000162 .LBE132
C:\Users\stapi\AppData\Local\Temp\ccI1ssAu.s:1824   .text.platform_init:0000000000000166 .LBB136
C:\Users\stapi\AppData\Local\Temp\ccI1ssAu.s:1833   .text.platform_init:0000000000000172 .LBE136
C:\Users\stapi\AppData\Local\Temp\ccI1ssAu.s:1836   .text.platform_init:0000000000000176 .LBB137
C:\Users\stapi\AppData\Local\Temp\ccI1ssAu.s:1844   .text.platform_init:0000000000000182 .LBE137
C:\Users\stapi\AppData\Local\Temp\ccI1ssAu.s:1855   .text.platform_init:000000000000018e .LBE138
C:\Users\stapi\AppData\Local\Temp\ccI1ssAu.s:1859   .text.platform_init:0000000000000192 .LBB142
C:\Users\stapi\AppData\Local\Temp\ccI1ssAu.s:1868   .text.platform_init:000000000000019e .LBE142
C:\Users\stapi\AppData\Local\Temp\ccI1ssAu.s:1871   .text.platform_init:00000000000001a2 .LBB143
C:\Users\stapi\AppData\Local\Temp\ccI1ssAu.s:1879   .text.platform_init:00000000000001ae .LBE143
C:\Users\stapi\AppData\Local\Temp\ccI1ssAu.s:1890   .text.platform_init:00000000000001ba .LBE144
C:\Users\stapi\AppData\Local\Temp\ccI1ssAu.s:1894   .text.platform_init:00000000000001be .LBB148
C:\Users\stapi\AppData\Local\Temp\ccI1ssAu.s:1903   .text.platform_init:00000000000001ca .LBE148
C:\Users\stapi\AppData\Local\Temp\ccI1ssAu.s:1906   .text.platform_init:00000000000001ce .LBB149
C:\Users\stapi\AppData\Local\Temp\ccI1ssAu.s:1914   .text.platform_init:00000000000001da .LBE149
C:\Users\stapi\AppData\Local\Temp\ccI1ssAu.s:1925   .text.platform_init:00000000000001e6 .LBE150
C:\Users\stapi\AppData\Local\Temp\ccI1ssAu.s:1929   .text.platform_init:00000000000001ea .LBB154
C:\Users\stapi\AppData\Local\Temp\ccI1ssAu.s:1938   .text.platform_init:00000000000001f6 .LBE154
C:\Users\stapi\AppData\Local\Temp\ccI1ssAu.s:1941   .text.platform_init:00000000000001fa .LBB155
C:\Users\stapi\AppData\Local\Temp\ccI1ssAu.s:1949   .text.platform_init:0000000000000206 .LBE155
C:\Users\stapi\AppData\Local\Temp\ccI1ssAu.s:1960   .text.platform_init:0000000000000212 .LBE156
C:\Users\stapi\AppData\Local\Temp\ccI1ssAu.s:1964   .text.platform_init:0000000000000216 .LBB160
C:\Users\stapi\AppData\Local\Temp\ccI1ssAu.s:1973   .text.platform_init:0000000000000222 .LBE160
C:\Users\stapi\AppData\Local\Temp\ccI1ssAu.s:1976   .text.platform_init:0000000000000226 .LBB161
C:\Users\stapi\AppData\Local\Temp\ccI1ssAu.s:1984   .text.platform_init:0000000000000232 .LBE161
C:\Users\stapi\AppData\Local\Temp\ccI1ssAu.s:1995   .text.platform_init:000000000000023e .LBE162
C:\Users\stapi\AppData\Local\Temp\ccI1ssAu.s:1999   .text.platform_init:0000000000000242 .LBB166
C:\Users\stapi\AppData\Local\Temp\ccI1ssAu.s:2008   .text.platform_init:000000000000024e .LBE166
C:\Users\stapi\AppData\Local\Temp\ccI1ssAu.s:2011   .text.platform_init:0000000000000252 .LBB167
C:\Users\stapi\AppData\Local\Temp\ccI1ssAu.s:2019   .text.platform_init:000000000000025e .LBE167
C:\Users\stapi\AppData\Local\Temp\ccI1ssAu.s:2030   .text.platform_init:000000000000026a .LBE168
C:\Users\stapi\AppData\Local\Temp\ccI1ssAu.s:2034   .text.platform_init:000000000000026e .LBB172
C:\Users\stapi\AppData\Local\Temp\ccI1ssAu.s:2043   .text.platform_init:000000000000027a .LBE172
C:\Users\stapi\AppData\Local\Temp\ccI1ssAu.s:2046   .text.platform_init:000000000000027e .LBB173
C:\Users\stapi\AppData\Local\Temp\ccI1ssAu.s:2054   .text.platform_init:000000000000028a .LBE173
C:\Users\stapi\AppData\Local\Temp\ccI1ssAu.s:1643   .text.platform_init:000000000000004c .LBE179
C:\Users\stapi\AppData\Local\Temp\ccI1ssAu.s:2098   .text.platform_init:00000000000002d2 .LBB194
C:\Users\stapi\AppData\Local\Temp\ccI1ssAu.s:2215   .text.platform_init:000000000000039e .LBE194
C:\Users\stapi\AppData\Local\Temp\ccI1ssAu.s:2285   .text.platform_init:000000000000041a .LBB199
C:\Users\stapi\AppData\Local\Temp\ccI1ssAu.s:2297   .text.platform_init:0000000000000426 .LBE199
C:\Users\stapi\AppData\Local\Temp\ccI1ssAu.s:1641   .text.platform_init:000000000000004c .LBE181
C:\Users\stapi\AppData\Local\Temp\ccI1ssAu.s:2108   .text.platform_init:00000000000002e6 .LBB184
C:\Users\stapi\AppData\Local\Temp\ccI1ssAu.s:2146   .text.platform_init:0000000000000338 .LBE184
C:\Users\stapi\AppData\Local\Temp\ccI1ssAu.s:2201   .text.platform_init:000000000000037e .LBE185
C:\Users\stapi\AppData\Local\Temp\ccI1ssAu.s:2287   .text.platform_init:000000000000041a .LBB188
C:\Users\stapi\AppData\Local\Temp\ccI1ssAu.s:2295   .text.platform_init:0000000000000426 .LBE188
C:\Users\stapi\AppData\Local\Temp\ccI1ssAu.s:2222   .text.platform_init:00000000000003a0 .LBE195
C:\Users\stapi\AppData\Local\Temp\ccI1ssAu.s:2227   .text.platform_init:00000000000003a8 .LBB198
C:\Users\stapi\AppData\Local\Temp\ccI1ssAu.s:2242   .text.platform_init:00000000000003cc .LBE198

UNDEFINED SYMBOLS
__riscv_save_1
exti_interrupt_disable
exti_flag_get
exti_interrupt_flag_clear
__riscv_restore_1
pmu_flag_get
pmu_ble_control
exti_init
rtc_flag_clear
rtc_wakeup_disable
rtc_wakeup_timer_set
rtc_wakeup_enable
rcu_periph_clock_disable
trng_close
usart_flag_get
pmu_to_deepsleepmode
rcu_system_clock_source_get
system_clock_config
rcu_periph_clock_enable
rtc_flag_get
__riscv_save_3
get_sys_local_time_us
__riscv_restore_3
__riscv_save_0
rcu_periph_reset_enable
rcu_periph_reset_disable
__riscv_restore_0
pmu_interrupt_enable
pmu_interrupt_flag_get
pmu_interrupt_flag_clear
pmu_ble_wakeup_request_enable
pmu_ble_wakeup_request_disable
rcu_clock_freq_get
crc_data_register_reset
crc_single_data_calculate
sys_wakelock_acquire
sys_wakelock_release
__riscv_save_2
pmu_wifi_power_enable
pmu_wifi_sram_control
__riscv_restore_2
systick_udelay
eclic_irq_enable
intc_init
intc_deinit
eclic_irq_disable
gpio_mode_set
gpio_output_options_set
hal_rfi_init
hal_init_rf
rtc_register_sync_wait
rtc_current_time_get
eclic_global_interrupt_disable
eclic_priority_group_set
systick_init
uart_driver_init
log_uart_init
pmu_backup_write_enable
rcu_osci_on
rcu_osci_stab_wait
rcu_rtc_clock_config
rtc_deinit
rtc_init
puts
rtc_interrupt_enable
rtc_wakeup_clock_set
rom_init
sysctrl_init
raw_flash_init
nvds_flash_internal_init
global_debug_level
co_printf
