   1              		.file	"init_rom.c"
   2              		.option nopic
   3              		.attribute arch, "rv32i2p0_m2p0_a2p0_f2p0_c2p0_b_p0p94"
   4              		.attribute unaligned_access, 0
   5              		.attribute stack_align, 16
   6              		.text
   7              	.Ltext0:
   8              		.cfi_sections	.debug_frame
   9              		.section	.text.my_time_get,"ax",@progbits
  10              		.align	1
  12              	my_time_get:
  13              	.LFB377:
  14              		.file 1 "C:/Users/stapi/OneDrive/Desktop/GD32VW553/V1_MQTT_OK/GD32VW55X_Wifi_BLE_SDK/GD32VW55x_REL
   1:C:/Users/stapi/OneDrive/Desktop/GD32VW553/V1_MQTT_OK/GD32VW55X_Wifi_BLE_SDK/GD32VW55x_RELEASE_V1.0.2/MSDK/plf/src\init_rom.c **** /*!
   2:C:/Users/stapi/OneDrive/Desktop/GD32VW553/V1_MQTT_OK/GD32VW55X_Wifi_BLE_SDK/GD32VW55x_RELEASE_V1.0.2/MSDK/plf/src\init_rom.c ****     \file    init_rom.c
   3:C:/Users/stapi/OneDrive/Desktop/GD32VW553/V1_MQTT_OK/GD32VW55X_Wifi_BLE_SDK/GD32VW55x_RELEASE_V1.0.2/MSDK/plf/src\init_rom.c ****     \brief   Rom init function for GD32VW55x SDK.
   4:C:/Users/stapi/OneDrive/Desktop/GD32VW553/V1_MQTT_OK/GD32VW55X_Wifi_BLE_SDK/GD32VW55x_RELEASE_V1.0.2/MSDK/plf/src\init_rom.c **** 
   5:C:/Users/stapi/OneDrive/Desktop/GD32VW553/V1_MQTT_OK/GD32VW55X_Wifi_BLE_SDK/GD32VW55x_RELEASE_V1.0.2/MSDK/plf/src\init_rom.c ****     \version 2023-07-20, V1.0.0, firmware for GD32VW55x
   6:C:/Users/stapi/OneDrive/Desktop/GD32VW553/V1_MQTT_OK/GD32VW55X_Wifi_BLE_SDK/GD32VW55x_RELEASE_V1.0.2/MSDK/plf/src\init_rom.c **** */
   7:C:/Users/stapi/OneDrive/Desktop/GD32VW553/V1_MQTT_OK/GD32VW55X_Wifi_BLE_SDK/GD32VW55x_RELEASE_V1.0.2/MSDK/plf/src\init_rom.c **** 
   8:C:/Users/stapi/OneDrive/Desktop/GD32VW553/V1_MQTT_OK/GD32VW55X_Wifi_BLE_SDK/GD32VW55x_RELEASE_V1.0.2/MSDK/plf/src\init_rom.c **** /*
   9:C:/Users/stapi/OneDrive/Desktop/GD32VW553/V1_MQTT_OK/GD32VW55X_Wifi_BLE_SDK/GD32VW55x_RELEASE_V1.0.2/MSDK/plf/src\init_rom.c ****     Copyright (c) 2023, GigaDevice Semiconductor Inc.
  10:C:/Users/stapi/OneDrive/Desktop/GD32VW553/V1_MQTT_OK/GD32VW55X_Wifi_BLE_SDK/GD32VW55x_RELEASE_V1.0.2/MSDK/plf/src\init_rom.c **** 
  11:C:/Users/stapi/OneDrive/Desktop/GD32VW553/V1_MQTT_OK/GD32VW55X_Wifi_BLE_SDK/GD32VW55x_RELEASE_V1.0.2/MSDK/plf/src\init_rom.c ****     Redistribution and use in source and binary forms, with or without modification,
  12:C:/Users/stapi/OneDrive/Desktop/GD32VW553/V1_MQTT_OK/GD32VW55X_Wifi_BLE_SDK/GD32VW55x_RELEASE_V1.0.2/MSDK/plf/src\init_rom.c **** are permitted provided that the following conditions are met:
  13:C:/Users/stapi/OneDrive/Desktop/GD32VW553/V1_MQTT_OK/GD32VW55X_Wifi_BLE_SDK/GD32VW55x_RELEASE_V1.0.2/MSDK/plf/src\init_rom.c **** 
  14:C:/Users/stapi/OneDrive/Desktop/GD32VW553/V1_MQTT_OK/GD32VW55X_Wifi_BLE_SDK/GD32VW55x_RELEASE_V1.0.2/MSDK/plf/src\init_rom.c ****     1. Redistributions of source code must retain the above copyright notice, this
  15:C:/Users/stapi/OneDrive/Desktop/GD32VW553/V1_MQTT_OK/GD32VW55X_Wifi_BLE_SDK/GD32VW55x_RELEASE_V1.0.2/MSDK/plf/src\init_rom.c ****        list of conditions and the following disclaimer.
  16:C:/Users/stapi/OneDrive/Desktop/GD32VW553/V1_MQTT_OK/GD32VW55X_Wifi_BLE_SDK/GD32VW55x_RELEASE_V1.0.2/MSDK/plf/src\init_rom.c ****     2. Redistributions in binary form must reproduce the above copyright notice,
  17:C:/Users/stapi/OneDrive/Desktop/GD32VW553/V1_MQTT_OK/GD32VW55X_Wifi_BLE_SDK/GD32VW55x_RELEASE_V1.0.2/MSDK/plf/src\init_rom.c ****        this list of conditions and the following disclaimer in the documentation
  18:C:/Users/stapi/OneDrive/Desktop/GD32VW553/V1_MQTT_OK/GD32VW55X_Wifi_BLE_SDK/GD32VW55x_RELEASE_V1.0.2/MSDK/plf/src\init_rom.c ****        and/or other materials provided with the distribution.
  19:C:/Users/stapi/OneDrive/Desktop/GD32VW553/V1_MQTT_OK/GD32VW55X_Wifi_BLE_SDK/GD32VW55x_RELEASE_V1.0.2/MSDK/plf/src\init_rom.c ****     3. Neither the name of the copyright holder nor the names of its contributors
  20:C:/Users/stapi/OneDrive/Desktop/GD32VW553/V1_MQTT_OK/GD32VW55X_Wifi_BLE_SDK/GD32VW55x_RELEASE_V1.0.2/MSDK/plf/src\init_rom.c ****        may be used to endorse or promote products derived from this software without
  21:C:/Users/stapi/OneDrive/Desktop/GD32VW553/V1_MQTT_OK/GD32VW55X_Wifi_BLE_SDK/GD32VW55x_RELEASE_V1.0.2/MSDK/plf/src\init_rom.c ****        specific prior written permission.
  22:C:/Users/stapi/OneDrive/Desktop/GD32VW553/V1_MQTT_OK/GD32VW55X_Wifi_BLE_SDK/GD32VW55x_RELEASE_V1.0.2/MSDK/plf/src\init_rom.c **** 
  23:C:/Users/stapi/OneDrive/Desktop/GD32VW553/V1_MQTT_OK/GD32VW55X_Wifi_BLE_SDK/GD32VW55x_RELEASE_V1.0.2/MSDK/plf/src\init_rom.c ****     THIS SOFTWARE IS PROVIDED BY THE COPYRIGHT HOLDERS AND CONTRIBUTORS "AS IS"
  24:C:/Users/stapi/OneDrive/Desktop/GD32VW553/V1_MQTT_OK/GD32VW55X_Wifi_BLE_SDK/GD32VW55x_RELEASE_V1.0.2/MSDK/plf/src\init_rom.c **** AND ANY EXPRESS OR IMPLIED WARRANTIES, INCLUDING, BUT NOT LIMITED TO, THE IMPLIED
  25:C:/Users/stapi/OneDrive/Desktop/GD32VW553/V1_MQTT_OK/GD32VW55X_Wifi_BLE_SDK/GD32VW55x_RELEASE_V1.0.2/MSDK/plf/src\init_rom.c **** WARRANTIES OF MERCHANTABILITY AND FITNESS FOR A PARTICULAR PURPOSE ARE DISCLAIMED.
  26:C:/Users/stapi/OneDrive/Desktop/GD32VW553/V1_MQTT_OK/GD32VW55X_Wifi_BLE_SDK/GD32VW55x_RELEASE_V1.0.2/MSDK/plf/src\init_rom.c **** IN NO EVENT SHALL THE COPYRIGHT HOLDER OR CONTRIBUTORS BE LIABLE FOR ANY DIRECT,
  27:C:/Users/stapi/OneDrive/Desktop/GD32VW553/V1_MQTT_OK/GD32VW55X_Wifi_BLE_SDK/GD32VW55x_RELEASE_V1.0.2/MSDK/plf/src\init_rom.c **** INDIRECT, INCIDENTAL, SPECIAL, EXEMPLARY, OR CONSEQUENTIAL DAMAGES (INCLUDING, BUT
  28:C:/Users/stapi/OneDrive/Desktop/GD32VW553/V1_MQTT_OK/GD32VW55X_Wifi_BLE_SDK/GD32VW55x_RELEASE_V1.0.2/MSDK/plf/src\init_rom.c **** NOT LIMITED TO, PROCUREMENT OF SUBSTITUTE GOODS OR SERVICES; LOSS OF USE, DATA, OR
  29:C:/Users/stapi/OneDrive/Desktop/GD32VW553/V1_MQTT_OK/GD32VW55X_Wifi_BLE_SDK/GD32VW55x_RELEASE_V1.0.2/MSDK/plf/src\init_rom.c **** PROFITS; OR BUSINESS INTERRUPTION) HOWEVER CAUSED AND ON ANY THEORY OF LIABILITY,
  30:C:/Users/stapi/OneDrive/Desktop/GD32VW553/V1_MQTT_OK/GD32VW55X_Wifi_BLE_SDK/GD32VW55x_RELEASE_V1.0.2/MSDK/plf/src\init_rom.c **** WHETHER IN CONTRACT, STRICT LIABILITY, OR TORT (INCLUDING NEGLIGENCE OR OTHERWISE)
  31:C:/Users/stapi/OneDrive/Desktop/GD32VW553/V1_MQTT_OK/GD32VW55X_Wifi_BLE_SDK/GD32VW55x_RELEASE_V1.0.2/MSDK/plf/src\init_rom.c **** ARISING IN ANY WAY OUT OF THE USE OF THIS SOFTWARE, EVEN IF ADVISED OF THE POSSIBILITY
  32:C:/Users/stapi/OneDrive/Desktop/GD32VW553/V1_MQTT_OK/GD32VW55X_Wifi_BLE_SDK/GD32VW55x_RELEASE_V1.0.2/MSDK/plf/src\init_rom.c **** OF SUCH DAMAGE.
  33:C:/Users/stapi/OneDrive/Desktop/GD32VW553/V1_MQTT_OK/GD32VW55X_Wifi_BLE_SDK/GD32VW55x_RELEASE_V1.0.2/MSDK/plf/src\init_rom.c **** */
  34:C:/Users/stapi/OneDrive/Desktop/GD32VW553/V1_MQTT_OK/GD32VW55X_Wifi_BLE_SDK/GD32VW55x_RELEASE_V1.0.2/MSDK/plf/src\init_rom.c **** 
  35:C:/Users/stapi/OneDrive/Desktop/GD32VW553/V1_MQTT_OK/GD32VW55X_Wifi_BLE_SDK/GD32VW55x_RELEASE_V1.0.2/MSDK/plf/src\init_rom.c **** #include "wrapper_os.h"
  36:C:/Users/stapi/OneDrive/Desktop/GD32VW553/V1_MQTT_OK/GD32VW55X_Wifi_BLE_SDK/GD32VW55x_RELEASE_V1.0.2/MSDK/plf/src\init_rom.c **** #include "init_rom.h"
  37:C:/Users/stapi/OneDrive/Desktop/GD32VW553/V1_MQTT_OK/GD32VW55X_Wifi_BLE_SDK/GD32VW55x_RELEASE_V1.0.2/MSDK/plf/src\init_rom.c **** #include "mbedtls/entropy_poll.h"
  38:C:/Users/stapi/OneDrive/Desktop/GD32VW553/V1_MQTT_OK/GD32VW55X_Wifi_BLE_SDK/GD32VW55x_RELEASE_V1.0.2/MSDK/plf/src\init_rom.c **** #include "mbedtls/platform_time.h"
  39:C:/Users/stapi/OneDrive/Desktop/GD32VW553/V1_MQTT_OK/GD32VW55X_Wifi_BLE_SDK/GD32VW55x_RELEASE_V1.0.2/MSDK/plf/src\init_rom.c **** #include "mbedtls/platform.h"
  40:C:/Users/stapi/OneDrive/Desktop/GD32VW553/V1_MQTT_OK/GD32VW55X_Wifi_BLE_SDK/GD32VW55x_RELEASE_V1.0.2/MSDK/plf/src\init_rom.c **** #include "trng.h"
  41:C:/Users/stapi/OneDrive/Desktop/GD32VW553/V1_MQTT_OK/GD32VW55X_Wifi_BLE_SDK/GD32VW55x_RELEASE_V1.0.2/MSDK/plf/src\init_rom.c **** 
  42:C:/Users/stapi/OneDrive/Desktop/GD32VW553/V1_MQTT_OK/GD32VW55X_Wifi_BLE_SDK/GD32VW55x_RELEASE_V1.0.2/MSDK/plf/src\init_rom.c **** #include "init_rom_symbol.c"
  43:C:/Users/stapi/OneDrive/Desktop/GD32VW553/V1_MQTT_OK/GD32VW55X_Wifi_BLE_SDK/GD32VW55x_RELEASE_V1.0.2/MSDK/plf/src\init_rom.c **** 
  44:C:/Users/stapi/OneDrive/Desktop/GD32VW553/V1_MQTT_OK/GD32VW55X_Wifi_BLE_SDK/GD32VW55x_RELEASE_V1.0.2/MSDK/plf/src\init_rom.c **** struct rom_api_t *p_rom_api = (struct rom_api_t *)ROM_API_ARRAY_BASE;
  45:C:/Users/stapi/OneDrive/Desktop/GD32VW553/V1_MQTT_OK/GD32VW55X_Wifi_BLE_SDK/GD32VW55x_RELEASE_V1.0.2/MSDK/plf/src\init_rom.c **** 
  46:C:/Users/stapi/OneDrive/Desktop/GD32VW553/V1_MQTT_OK/GD32VW55X_Wifi_BLE_SDK/GD32VW55x_RELEASE_V1.0.2/MSDK/plf/src\init_rom.c **** static mbedtls_time_t my_time_get(mbedtls_time_t *p)
  47:C:/Users/stapi/OneDrive/Desktop/GD32VW553/V1_MQTT_OK/GD32VW55X_Wifi_BLE_SDK/GD32VW55x_RELEASE_V1.0.2/MSDK/plf/src\init_rom.c **** {
  15              		.loc 1 47 1
  16              		.cfi_startproc
  17              	.LVL0:
  48:C:/Users/stapi/OneDrive/Desktop/GD32VW553/V1_MQTT_OK/GD32VW55X_Wifi_BLE_SDK/GD32VW55x_RELEASE_V1.0.2/MSDK/plf/src\init_rom.c ****     return (sys_os_now(false) * OS_MS_PER_TICK);
  18              		.loc 1 48 5
  19              		.loc 1 48 13 is_stmt 0
  20 0000 0145     		li	a0,0
  21              	.LVL1:
  22 0002 17030000 		tail	sys_os_now
  22      67000300 
  23              	.LVL2:
  24              		.cfi_endproc
  25              	.LFE377:
  27              		.section	.rodata.rom_symbol_init.str1.4,"aMS",@progbits,1
  28              		.align	2
  29              	.LC0:
  30 0000 43686970 		.string	"Chip: GD32VW55x ACut\r\n"
  30      3A204744 
  30      33325657 
  30      35357820 
  30      41437574 
  31 0017 00       		.align	2
  32              	.LC1:
  33 0018 43686970 		.string	"Chip: GD32VW55x\r\n"
  33      3A204744 
  33      33325657 
  33      3535780D 
  33      0A00
  34              		.section	.text.rom_symbol_init,"ax",@progbits
  35              		.align	1
  36              		.globl	rom_symbol_init
  38              	rom_symbol_init:
  39              	.LFB376:
  40              		.file 2 "C:/Users/stapi/OneDrive/Desktop/GD32VW553/V1_MQTT_OK/GD32VW55X_Wifi_BLE_SDK/GD32VW55x_REL
   1:C:/Users/stapi/OneDrive/Desktop/GD32VW553/V1_MQTT_OK/GD32VW55X_Wifi_BLE_SDK/GD32VW55x_RELEASE_V1.0.2/MSDK/plf/src\init_rom_symbol.c **** /*!
   2:C:/Users/stapi/OneDrive/Desktop/GD32VW553/V1_MQTT_OK/GD32VW55X_Wifi_BLE_SDK/GD32VW55x_RELEASE_V1.0.2/MSDK/plf/src\init_rom_symbol.c ****     \file    init_rom_symbol.c
   3:C:/Users/stapi/OneDrive/Desktop/GD32VW553/V1_MQTT_OK/GD32VW55X_Wifi_BLE_SDK/GD32VW55x_RELEASE_V1.0.2/MSDK/plf/src\init_rom_symbol.c ****     \brief   Rom symbol init function for GD32VW55x SDK.
   4:C:/Users/stapi/OneDrive/Desktop/GD32VW553/V1_MQTT_OK/GD32VW55X_Wifi_BLE_SDK/GD32VW55x_RELEASE_V1.0.2/MSDK/plf/src\init_rom_symbol.c **** 
   5:C:/Users/stapi/OneDrive/Desktop/GD32VW553/V1_MQTT_OK/GD32VW55X_Wifi_BLE_SDK/GD32VW55x_RELEASE_V1.0.2/MSDK/plf/src\init_rom_symbol.c ****     \version 2023-07-20, V1.0.0, firmware for GD32VW55x
   6:C:/Users/stapi/OneDrive/Desktop/GD32VW553/V1_MQTT_OK/GD32VW55X_Wifi_BLE_SDK/GD32VW55x_RELEASE_V1.0.2/MSDK/plf/src\init_rom_symbol.c **** */
   7:C:/Users/stapi/OneDrive/Desktop/GD32VW553/V1_MQTT_OK/GD32VW55X_Wifi_BLE_SDK/GD32VW55x_RELEASE_V1.0.2/MSDK/plf/src\init_rom_symbol.c **** 
   8:C:/Users/stapi/OneDrive/Desktop/GD32VW553/V1_MQTT_OK/GD32VW55X_Wifi_BLE_SDK/GD32VW55x_RELEASE_V1.0.2/MSDK/plf/src\init_rom_symbol.c **** /*
   9:C:/Users/stapi/OneDrive/Desktop/GD32VW553/V1_MQTT_OK/GD32VW55X_Wifi_BLE_SDK/GD32VW55x_RELEASE_V1.0.2/MSDK/plf/src\init_rom_symbol.c ****     Copyright (c) 2023, GigaDevice Semiconductor Inc.
  10:C:/Users/stapi/OneDrive/Desktop/GD32VW553/V1_MQTT_OK/GD32VW55X_Wifi_BLE_SDK/GD32VW55x_RELEASE_V1.0.2/MSDK/plf/src\init_rom_symbol.c **** 
  11:C:/Users/stapi/OneDrive/Desktop/GD32VW553/V1_MQTT_OK/GD32VW55X_Wifi_BLE_SDK/GD32VW55x_RELEASE_V1.0.2/MSDK/plf/src\init_rom_symbol.c ****     Redistribution and use in source and binary forms, with or without modification,
  12:C:/Users/stapi/OneDrive/Desktop/GD32VW553/V1_MQTT_OK/GD32VW55X_Wifi_BLE_SDK/GD32VW55x_RELEASE_V1.0.2/MSDK/plf/src\init_rom_symbol.c **** are permitted provided that the following conditions are met:
  13:C:/Users/stapi/OneDrive/Desktop/GD32VW553/V1_MQTT_OK/GD32VW55X_Wifi_BLE_SDK/GD32VW55x_RELEASE_V1.0.2/MSDK/plf/src\init_rom_symbol.c **** 
  14:C:/Users/stapi/OneDrive/Desktop/GD32VW553/V1_MQTT_OK/GD32VW55X_Wifi_BLE_SDK/GD32VW55x_RELEASE_V1.0.2/MSDK/plf/src\init_rom_symbol.c ****     1. Redistributions of source code must retain the above copyright notice, this
  15:C:/Users/stapi/OneDrive/Desktop/GD32VW553/V1_MQTT_OK/GD32VW55X_Wifi_BLE_SDK/GD32VW55x_RELEASE_V1.0.2/MSDK/plf/src\init_rom_symbol.c ****        list of conditions and the following disclaimer.
  16:C:/Users/stapi/OneDrive/Desktop/GD32VW553/V1_MQTT_OK/GD32VW55X_Wifi_BLE_SDK/GD32VW55x_RELEASE_V1.0.2/MSDK/plf/src\init_rom_symbol.c ****     2. Redistributions in binary form must reproduce the above copyright notice,
  17:C:/Users/stapi/OneDrive/Desktop/GD32VW553/V1_MQTT_OK/GD32VW55X_Wifi_BLE_SDK/GD32VW55x_RELEASE_V1.0.2/MSDK/plf/src\init_rom_symbol.c ****        this list of conditions and the following disclaimer in the documentation
  18:C:/Users/stapi/OneDrive/Desktop/GD32VW553/V1_MQTT_OK/GD32VW55X_Wifi_BLE_SDK/GD32VW55x_RELEASE_V1.0.2/MSDK/plf/src\init_rom_symbol.c ****        and/or other materials provided with the distribution.
  19:C:/Users/stapi/OneDrive/Desktop/GD32VW553/V1_MQTT_OK/GD32VW55X_Wifi_BLE_SDK/GD32VW55x_RELEASE_V1.0.2/MSDK/plf/src\init_rom_symbol.c ****     3. Neither the name of the copyright holder nor the names of its contributors
  20:C:/Users/stapi/OneDrive/Desktop/GD32VW553/V1_MQTT_OK/GD32VW55X_Wifi_BLE_SDK/GD32VW55x_RELEASE_V1.0.2/MSDK/plf/src\init_rom_symbol.c ****        may be used to endorse or promote products derived from this software without
  21:C:/Users/stapi/OneDrive/Desktop/GD32VW553/V1_MQTT_OK/GD32VW55X_Wifi_BLE_SDK/GD32VW55x_RELEASE_V1.0.2/MSDK/plf/src\init_rom_symbol.c ****        specific prior written permission.
  22:C:/Users/stapi/OneDrive/Desktop/GD32VW553/V1_MQTT_OK/GD32VW55X_Wifi_BLE_SDK/GD32VW55x_RELEASE_V1.0.2/MSDK/plf/src\init_rom_symbol.c **** 
  23:C:/Users/stapi/OneDrive/Desktop/GD32VW553/V1_MQTT_OK/GD32VW55X_Wifi_BLE_SDK/GD32VW55x_RELEASE_V1.0.2/MSDK/plf/src\init_rom_symbol.c ****     THIS SOFTWARE IS PROVIDED BY THE COPYRIGHT HOLDERS AND CONTRIBUTORS "AS IS"
  24:C:/Users/stapi/OneDrive/Desktop/GD32VW553/V1_MQTT_OK/GD32VW55X_Wifi_BLE_SDK/GD32VW55x_RELEASE_V1.0.2/MSDK/plf/src\init_rom_symbol.c **** AND ANY EXPRESS OR IMPLIED WARRANTIES, INCLUDING, BUT NOT LIMITED TO, THE IMPLIED
  25:C:/Users/stapi/OneDrive/Desktop/GD32VW553/V1_MQTT_OK/GD32VW55X_Wifi_BLE_SDK/GD32VW55x_RELEASE_V1.0.2/MSDK/plf/src\init_rom_symbol.c **** WARRANTIES OF MERCHANTABILITY AND FITNESS FOR A PARTICULAR PURPOSE ARE DISCLAIMED.
  26:C:/Users/stapi/OneDrive/Desktop/GD32VW553/V1_MQTT_OK/GD32VW55X_Wifi_BLE_SDK/GD32VW55x_RELEASE_V1.0.2/MSDK/plf/src\init_rom_symbol.c **** IN NO EVENT SHALL THE COPYRIGHT HOLDER OR CONTRIBUTORS BE LIABLE FOR ANY DIRECT,
  27:C:/Users/stapi/OneDrive/Desktop/GD32VW553/V1_MQTT_OK/GD32VW55X_Wifi_BLE_SDK/GD32VW55x_RELEASE_V1.0.2/MSDK/plf/src\init_rom_symbol.c **** INDIRECT, INCIDENTAL, SPECIAL, EXEMPLARY, OR CONSEQUENTIAL DAMAGES (INCLUDING, BUT
  28:C:/Users/stapi/OneDrive/Desktop/GD32VW553/V1_MQTT_OK/GD32VW55X_Wifi_BLE_SDK/GD32VW55x_RELEASE_V1.0.2/MSDK/plf/src\init_rom_symbol.c **** NOT LIMITED TO, PROCUREMENT OF SUBSTITUTE GOODS OR SERVICES; LOSS OF USE, DATA, OR
  29:C:/Users/stapi/OneDrive/Desktop/GD32VW553/V1_MQTT_OK/GD32VW55X_Wifi_BLE_SDK/GD32VW55x_RELEASE_V1.0.2/MSDK/plf/src\init_rom_symbol.c **** PROFITS; OR BUSINESS INTERRUPTION) HOWEVER CAUSED AND ON ANY THEORY OF LIABILITY,
  30:C:/Users/stapi/OneDrive/Desktop/GD32VW553/V1_MQTT_OK/GD32VW55X_Wifi_BLE_SDK/GD32VW55x_RELEASE_V1.0.2/MSDK/plf/src\init_rom_symbol.c **** WHETHER IN CONTRACT, STRICT LIABILITY, OR TORT (INCLUDING NEGLIGENCE OR OTHERWISE)
  31:C:/Users/stapi/OneDrive/Desktop/GD32VW553/V1_MQTT_OK/GD32VW55X_Wifi_BLE_SDK/GD32VW55x_RELEASE_V1.0.2/MSDK/plf/src\init_rom_symbol.c **** ARISING IN ANY WAY OUT OF THE USE OF THIS SOFTWARE, EVEN IF ADVISED OF THE POSSIBILITY
  32:C:/Users/stapi/OneDrive/Desktop/GD32VW553/V1_MQTT_OK/GD32VW55X_Wifi_BLE_SDK/GD32VW55x_RELEASE_V1.0.2/MSDK/plf/src\init_rom_symbol.c **** OF SUCH DAMAGE.
  33:C:/Users/stapi/OneDrive/Desktop/GD32VW553/V1_MQTT_OK/GD32VW55X_Wifi_BLE_SDK/GD32VW55x_RELEASE_V1.0.2/MSDK/plf/src\init_rom_symbol.c **** */
  34:C:/Users/stapi/OneDrive/Desktop/GD32VW553/V1_MQTT_OK/GD32VW55X_Wifi_BLE_SDK/GD32VW55x_RELEASE_V1.0.2/MSDK/plf/src\init_rom_symbol.c **** #define EXTERN
  35:C:/Users/stapi/OneDrive/Desktop/GD32VW553/V1_MQTT_OK/GD32VW55X_Wifi_BLE_SDK/GD32VW55x_RELEASE_V1.0.2/MSDK/plf/src\init_rom_symbol.c **** #include "rom_export_mbedtls.h"
  36:C:/Users/stapi/OneDrive/Desktop/GD32VW553/V1_MQTT_OK/GD32VW55X_Wifi_BLE_SDK/GD32VW55x_RELEASE_V1.0.2/MSDK/plf/src\init_rom_symbol.c **** #include "gd32vw55x_rcu.h"
  37:C:/Users/stapi/OneDrive/Desktop/GD32VW553/V1_MQTT_OK/GD32VW55X_Wifi_BLE_SDK/GD32VW55x_RELEASE_V1.0.2/MSDK/plf/src\init_rom_symbol.c **** #ifndef EXEC_USING_STD_PRINTF
  38:C:/Users/stapi/OneDrive/Desktop/GD32VW553/V1_MQTT_OK/GD32VW55X_Wifi_BLE_SDK/GD32VW55x_RELEASE_V1.0.2/MSDK/plf/src\init_rom_symbol.c **** #include "dbg_print.h"
  39:C:/Users/stapi/OneDrive/Desktop/GD32VW553/V1_MQTT_OK/GD32VW55X_Wifi_BLE_SDK/GD32VW55x_RELEASE_V1.0.2/MSDK/plf/src\init_rom_symbol.c **** #endif
  40:C:/Users/stapi/OneDrive/Desktop/GD32VW553/V1_MQTT_OK/GD32VW55X_Wifi_BLE_SDK/GD32VW55x_RELEASE_V1.0.2/MSDK/plf/src\init_rom_symbol.c **** #include "app_cfg.h"
  41:C:/Users/stapi/OneDrive/Desktop/GD32VW553/V1_MQTT_OK/GD32VW55X_Wifi_BLE_SDK/GD32VW55x_RELEASE_V1.0.2/MSDK/plf/src\init_rom_symbol.c **** 
  42:C:/Users/stapi/OneDrive/Desktop/GD32VW553/V1_MQTT_OK/GD32VW55X_Wifi_BLE_SDK/GD32VW55x_RELEASE_V1.0.2/MSDK/plf/src\init_rom_symbol.c **** static uint8_t ana_version_get(void)
  43:C:/Users/stapi/OneDrive/Desktop/GD32VW553/V1_MQTT_OK/GD32VW55X_Wifi_BLE_SDK/GD32VW55x_RELEASE_V1.0.2/MSDK/plf/src\init_rom_symbol.c **** {
  44:C:/Users/stapi/OneDrive/Desktop/GD32VW553/V1_MQTT_OK/GD32VW55X_Wifi_BLE_SDK/GD32VW55x_RELEASE_V1.0.2/MSDK/plf/src\init_rom_symbol.c ****     return REG32(RCU + 0x00000138U);
  45:C:/Users/stapi/OneDrive/Desktop/GD32VW553/V1_MQTT_OK/GD32VW55X_Wifi_BLE_SDK/GD32VW55x_RELEASE_V1.0.2/MSDK/plf/src\init_rom_symbol.c **** }
  46:C:/Users/stapi/OneDrive/Desktop/GD32VW553/V1_MQTT_OK/GD32VW55X_Wifi_BLE_SDK/GD32VW55x_RELEASE_V1.0.2/MSDK/plf/src\init_rom_symbol.c **** 
  47:C:/Users/stapi/OneDrive/Desktop/GD32VW553/V1_MQTT_OK/GD32VW55X_Wifi_BLE_SDK/GD32VW55x_RELEASE_V1.0.2/MSDK/plf/src\init_rom_symbol.c **** void rom_symbol_init(void)
  48:C:/Users/stapi/OneDrive/Desktop/GD32VW553/V1_MQTT_OK/GD32VW55X_Wifi_BLE_SDK/GD32VW55x_RELEASE_V1.0.2/MSDK/plf/src\init_rom_symbol.c **** {
  41              		.loc 2 48 1 is_stmt 1
  42              		.cfi_startproc
  43 0000 17030000 		call	t0,__riscv_save_12
  43      E7020300 
  44              		.cfi_offset 27, -52
  45              		.cfi_offset 26, -48
  46              		.cfi_offset 25, -44
  47              		.cfi_offset 24, -40
  48              		.cfi_offset 23, -36
  49              		.cfi_offset 22, -32
  50              		.cfi_offset 21, -28
  51              		.cfi_offset 20, -24
  52              		.cfi_offset 19, -20
  53              		.cfi_offset 18, -16
  54              		.cfi_offset 9, -12
  55              		.cfi_offset 8, -8
  56              		.cfi_offset 1, -4
  57              		.cfi_def_cfa_offset 64
  49:C:/Users/stapi/OneDrive/Desktop/GD32VW553/V1_MQTT_OK/GD32VW55X_Wifi_BLE_SDK/GD32VW55x_RELEASE_V1.0.2/MSDK/plf/src\init_rom_symbol.c **** #ifdef CONFIG_ASIC_CUT_AUTO
  50:C:/Users/stapi/OneDrive/Desktop/GD32VW553/V1_MQTT_OK/GD32VW55X_Wifi_BLE_SDK/GD32VW55x_RELEASE_V1.0.2/MSDK/plf/src\init_rom_symbol.c ****     int acut = (ana_version_get() == 0) ? 1 : 0;
  58              		.loc 2 50 5
  59              	.LBB4:
  60              	.LBB5:
  44:C:/Users/stapi/OneDrive/Desktop/GD32VW553/V1_MQTT_OK/GD32VW55X_Wifi_BLE_SDK/GD32VW55x_RELEASE_V1.0.2/MSDK/plf/src\init_rom_symbol.c **** }
  61              		.loc 2 44 5
  62 0008 37070000 		lui	a4,%hi(.LANCHOR11)
  63              	.LBE5:
  64              	.LBE4:
  48:C:/Users/stapi/OneDrive/Desktop/GD32VW553/V1_MQTT_OK/GD32VW55X_Wifi_BLE_SDK/GD32VW55x_RELEASE_V1.0.2/MSDK/plf/src\init_rom_symbol.c **** #ifdef CONFIG_ASIC_CUT_AUTO
  65              		.loc 2 48 1 is_stmt 0
  66 000c 6171     		addi	sp,sp,-432
  67              		.cfi_def_cfa_offset 496
  68 000e 13070700 		addi	a4,a4,%lo(.LANCHOR11)
  69              	.LBB7:
  70              	.LBB6:
  44:C:/Users/stapi/OneDrive/Desktop/GD32VW553/V1_MQTT_OK/GD32VW55X_Wifi_BLE_SDK/GD32VW55x_RELEASE_V1.0.2/MSDK/plf/src\init_rom_symbol.c **** }
  71              		.loc 2 44 12
  72 0012 B7470240 		li	a5,1073889280
  73 0016 83A78793 		lw	a5,-1736(a5)
  74              	.LVL3:
  75              	.LBE6:
  76              	.LBE7:
  51:C:/Users/stapi/OneDrive/Desktop/GD32VW553/V1_MQTT_OK/GD32VW55X_Wifi_BLE_SDK/GD32VW55x_RELEASE_V1.0.2/MSDK/plf/src\init_rom_symbol.c **** 
  52:C:/Users/stapi/OneDrive/Desktop/GD32VW553/V1_MQTT_OK/GD32VW55X_Wifi_BLE_SDK/GD32VW55x_RELEASE_V1.0.2/MSDK/plf/src\init_rom_symbol.c ****     if (acut) {
  77              		.loc 2 52 5 is_stmt 1
  78 001a 3AC2     		sw	a4,4(sp)
  79 001c 37070000 		lui	a4,%hi(.LANCHOR12)
  80 0020 13070700 		addi	a4,a4,%lo(.LANCHOR12)
  81 0024 3AC4     		sw	a4,8(sp)
  82 0026 37070000 		lui	a4,%hi(.LANCHOR13)
  83 002a 13070700 		addi	a4,a4,%lo(.LANCHOR13)
  84 002e 3AC6     		sw	a4,12(sp)
  85 0030 37070000 		lui	a4,%hi(.LANCHOR14)
  86 0034 13070700 		addi	a4,a4,%lo(.LANCHOR14)
  87 0038 3AC8     		sw	a4,16(sp)
  88 003a 37070000 		lui	a4,%hi(.LANCHOR15)
  89 003e 13070700 		addi	a4,a4,%lo(.LANCHOR15)
  90 0042 3ACA     		sw	a4,20(sp)
  91 0044 37070000 		lui	a4,%hi(.LANCHOR16)
  92 0048 13070700 		addi	a4,a4,%lo(.LANCHOR16)
  93 004c 3ACC     		sw	a4,24(sp)
  94 004e 37070000 		lui	a4,%hi(.LANCHOR17)
  95 0052 13070700 		addi	a4,a4,%lo(.LANCHOR17)
  96 0056 3ACE     		sw	a4,28(sp)
  97 0058 37070000 		lui	a4,%hi(.LANCHOR18)
  98 005c 13070700 		addi	a4,a4,%lo(.LANCHOR18)
  99 0060 3AD0     		sw	a4,32(sp)
 100 0062 37070000 		lui	a4,%hi(.LANCHOR19)
 101 0066 13070700 		addi	a4,a4,%lo(.LANCHOR19)
 102 006a 3AD2     		sw	a4,36(sp)
 103 006c 37070000 		lui	a4,%hi(.LANCHOR20)
 104 0070 13070700 		addi	a4,a4,%lo(.LANCHOR20)
 105 0074 3AD4     		sw	a4,40(sp)
 106 0076 37070000 		lui	a4,%hi(.LANCHOR21)
 107 007a 13070700 		addi	a4,a4,%lo(.LANCHOR21)
 108 007e 3AD6     		sw	a4,44(sp)
 109 0080 37070000 		lui	a4,%hi(.LANCHOR22)
 110 0084 13070700 		addi	a4,a4,%lo(.LANCHOR22)
 111 0088 3AD8     		sw	a4,48(sp)
 112 008a 37070000 		lui	a4,%hi(.LANCHOR23)
 113 008e 13070700 		addi	a4,a4,%lo(.LANCHOR23)
 114 0092 3ADA     		sw	a4,52(sp)
 115 0094 37070000 		lui	a4,%hi(.LANCHOR24)
 116 0098 13070700 		addi	a4,a4,%lo(.LANCHOR24)
 117 009c 3ADC     		sw	a4,56(sp)
 118 009e 37070000 		lui	a4,%hi(.LANCHOR25)
 119 00a2 13070700 		addi	a4,a4,%lo(.LANCHOR25)
 120 00a6 3ADE     		sw	a4,60(sp)
 121 00a8 37070000 		lui	a4,%hi(.LANCHOR26)
 122 00ac 13070700 		addi	a4,a4,%lo(.LANCHOR26)
 123 00b0 BAC0     		sw	a4,64(sp)
 124 00b2 37070000 		lui	a4,%hi(.LANCHOR27)
 125 00b6 13070700 		addi	a4,a4,%lo(.LANCHOR27)
 126 00ba BAC2     		sw	a4,68(sp)
 127 00bc 37070000 		lui	a4,%hi(.LANCHOR28)
 128 00c0 13070700 		addi	a4,a4,%lo(.LANCHOR28)
 129 00c4 BAC4     		sw	a4,72(sp)
 130 00c6 37070000 		lui	a4,%hi(.LANCHOR29)
 131 00ca 13070700 		addi	a4,a4,%lo(.LANCHOR29)
 132 00ce BAC6     		sw	a4,76(sp)
 133 00d0 37070000 		lui	a4,%hi(.LANCHOR30)
 134 00d4 13070700 		addi	a4,a4,%lo(.LANCHOR30)
 135 00d8 BAC8     		sw	a4,80(sp)
 136 00da 37070000 		lui	a4,%hi(.LANCHOR31)
 137 00de 13070700 		addi	a4,a4,%lo(.LANCHOR31)
 138 00e2 BACA     		sw	a4,84(sp)
 139 00e4 37070000 		lui	a4,%hi(.LANCHOR32)
 140 00e8 13070700 		addi	a4,a4,%lo(.LANCHOR32)
 141 00ec BACC     		sw	a4,88(sp)
 142 00ee 37070000 		lui	a4,%hi(.LANCHOR33)
 143 00f2 13070700 		addi	a4,a4,%lo(.LANCHOR33)
 144 00f6 BACE     		sw	a4,92(sp)
 145 00f8 37070000 		lui	a4,%hi(.LANCHOR34)
 146 00fc 13070700 		addi	a4,a4,%lo(.LANCHOR34)
 147 0100 BAD0     		sw	a4,96(sp)
 148 0102 37070000 		lui	a4,%hi(.LANCHOR35)
 149 0106 13070700 		addi	a4,a4,%lo(.LANCHOR35)
 150 010a BAD2     		sw	a4,100(sp)
 151 010c 37070000 		lui	a4,%hi(.LANCHOR36)
 152 0110 13070700 		addi	a4,a4,%lo(.LANCHOR36)
 153 0114 BAD4     		sw	a4,104(sp)
 154 0116 37070000 		lui	a4,%hi(.LANCHOR37)
 155 011a 13070700 		addi	a4,a4,%lo(.LANCHOR37)
 156 011e BAD6     		sw	a4,108(sp)
 157 0120 37070000 		lui	a4,%hi(.LANCHOR38)
 158 0124 13070700 		addi	a4,a4,%lo(.LANCHOR38)
 159 0128 BAD8     		sw	a4,112(sp)
 160 012a 37070000 		lui	a4,%hi(.LANCHOR39)
 161 012e 13070700 		addi	a4,a4,%lo(.LANCHOR39)
 162 0132 BADA     		sw	a4,116(sp)
 163 0134 37070000 		lui	a4,%hi(.LANCHOR40)
 164 0138 13070700 		addi	a4,a4,%lo(.LANCHOR40)
 165 013c BADC     		sw	a4,120(sp)
 166 013e 37070000 		lui	a4,%hi(.LANCHOR41)
 167 0142 13070700 		addi	a4,a4,%lo(.LANCHOR41)
 168 0146 BADE     		sw	a4,124(sp)
 169 0148 37070000 		lui	a4,%hi(.LANCHOR42)
 170 014c 13070700 		addi	a4,a4,%lo(.LANCHOR42)
 171 0150 3AC1     		sw	a4,128(sp)
 172 0152 37070000 		lui	a4,%hi(.LANCHOR43)
 173 0156 13070700 		addi	a4,a4,%lo(.LANCHOR43)
 174 015a 3AC3     		sw	a4,132(sp)
 175 015c 37070000 		lui	a4,%hi(.LANCHOR44)
 176 0160 13070700 		addi	a4,a4,%lo(.LANCHOR44)
 177 0164 3AC5     		sw	a4,136(sp)
 178 0166 37070000 		lui	a4,%hi(.LANCHOR45)
 179 016a 13070700 		addi	a4,a4,%lo(.LANCHOR45)
 180 016e 3AC7     		sw	a4,140(sp)
 181 0170 37070000 		lui	a4,%hi(.LANCHOR46)
 182 0174 13070700 		addi	a4,a4,%lo(.LANCHOR46)
 183 0178 3AC9     		sw	a4,144(sp)
 184 017a 37070000 		lui	a4,%hi(.LANCHOR47)
 185 017e 13070700 		addi	a4,a4,%lo(.LANCHOR47)
 186 0182 3ACB     		sw	a4,148(sp)
 187 0184 37070000 		lui	a4,%hi(.LANCHOR48)
 188 0188 13070700 		addi	a4,a4,%lo(.LANCHOR48)
 189 018c 3ACD     		sw	a4,152(sp)
 190 018e 37070000 		lui	a4,%hi(.LANCHOR49)
 191 0192 13070700 		addi	a4,a4,%lo(.LANCHOR49)
 192 0196 3ACF     		sw	a4,156(sp)
 193 0198 37070000 		lui	a4,%hi(.LANCHOR50)
 194 019c 13070700 		addi	a4,a4,%lo(.LANCHOR50)
 195 01a0 3AD1     		sw	a4,160(sp)
 196 01a2 37070000 		lui	a4,%hi(.LANCHOR51)
 197 01a6 13070700 		addi	a4,a4,%lo(.LANCHOR51)
 198 01aa 3AD3     		sw	a4,164(sp)
 199 01ac 37070000 		lui	a4,%hi(.LANCHOR52)
 200 01b0 13070700 		addi	a4,a4,%lo(.LANCHOR52)
 201 01b4 3AD5     		sw	a4,168(sp)
 202 01b6 37070000 		lui	a4,%hi(.LANCHOR53)
 203 01ba 13070700 		addi	a4,a4,%lo(.LANCHOR53)
 204 01be 3AD7     		sw	a4,172(sp)
 205 01c0 37070000 		lui	a4,%hi(.LANCHOR54)
 206 01c4 13070700 		addi	a4,a4,%lo(.LANCHOR54)
 207 01c8 3AD9     		sw	a4,176(sp)
 208 01ca 37070000 		lui	a4,%hi(.LANCHOR55)
 209 01ce 13070700 		addi	a4,a4,%lo(.LANCHOR55)
 210 01d2 3ADB     		sw	a4,180(sp)
 211 01d4 37070000 		lui	a4,%hi(.LANCHOR56)
 212 01d8 13070700 		addi	a4,a4,%lo(.LANCHOR56)
 213 01dc 3ADD     		sw	a4,184(sp)
 214 01de 37070000 		lui	a4,%hi(.LANCHOR57)
 215 01e2 13070700 		addi	a4,a4,%lo(.LANCHOR57)
 216 01e6 3ADF     		sw	a4,188(sp)
 217 01e8 37070000 		lui	a4,%hi(.LANCHOR58)
 218 01ec 13070700 		addi	a4,a4,%lo(.LANCHOR58)
 219 01f0 BAC1     		sw	a4,192(sp)
 220 01f2 37070000 		lui	a4,%hi(.LANCHOR59)
 221 01f6 13070700 		addi	a4,a4,%lo(.LANCHOR59)
 222 01fa BAC3     		sw	a4,196(sp)
 223 01fc 37070000 		lui	a4,%hi(.LANCHOR60)
 224 0200 13070700 		addi	a4,a4,%lo(.LANCHOR60)
 225 0204 BAC5     		sw	a4,200(sp)
 226 0206 37070000 		lui	a4,%hi(.LANCHOR61)
 227 020a 13070700 		addi	a4,a4,%lo(.LANCHOR61)
 228 020e BAC7     		sw	a4,204(sp)
 229 0210 37070000 		lui	a4,%hi(.LANCHOR62)
 230 0214 13070700 		addi	a4,a4,%lo(.LANCHOR62)
 231 0218 BAC9     		sw	a4,208(sp)
 232 021a 37070000 		lui	a4,%hi(.LANCHOR63)
 233 021e 13070700 		addi	a4,a4,%lo(.LANCHOR63)
 234 0222 BACB     		sw	a4,212(sp)
 235 0224 37070000 		lui	a4,%hi(.LANCHOR64)
 236 0228 13070700 		addi	a4,a4,%lo(.LANCHOR64)
 237 022c BACD     		sw	a4,216(sp)
 238 022e 37070000 		lui	a4,%hi(.LANCHOR65)
 239 0232 13070700 		addi	a4,a4,%lo(.LANCHOR65)
 240 0236 BACF     		sw	a4,220(sp)
 241 0238 37070000 		lui	a4,%hi(.LANCHOR66)
 242 023c 13070700 		addi	a4,a4,%lo(.LANCHOR66)
 243 0240 BAD1     		sw	a4,224(sp)
 244 0242 37070000 		lui	a4,%hi(.LANCHOR67)
 245 0246 13070700 		addi	a4,a4,%lo(.LANCHOR67)
 246 024a BAD3     		sw	a4,228(sp)
 247 024c 37070000 		lui	a4,%hi(.LANCHOR68)
 248 0250 13070700 		addi	a4,a4,%lo(.LANCHOR68)
 249 0254 BAD5     		sw	a4,232(sp)
 250 0256 37070000 		lui	a4,%hi(.LANCHOR69)
 251 025a 13070700 		addi	a4,a4,%lo(.LANCHOR69)
 252 025e BAD7     		sw	a4,236(sp)
 253 0260 37070000 		lui	a4,%hi(.LANCHOR70)
 254 0264 13070700 		addi	a4,a4,%lo(.LANCHOR70)
 255 0268 BAD9     		sw	a4,240(sp)
 256 026a 37070000 		lui	a4,%hi(.LANCHOR71)
 257 026e 13070700 		addi	a4,a4,%lo(.LANCHOR71)
 258 0272 BADB     		sw	a4,244(sp)
 259 0274 37070000 		lui	a4,%hi(.LANCHOR72)
 260 0278 13070700 		addi	a4,a4,%lo(.LANCHOR72)
 261 027c BADD     		sw	a4,248(sp)
 262 027e 37070000 		lui	a4,%hi(.LANCHOR73)
 263 0282 13070700 		addi	a4,a4,%lo(.LANCHOR73)
 264 0286 BADF     		sw	a4,252(sp)
 265 0288 37070000 		lui	a4,%hi(.LANCHOR74)
 266 028c 13070700 		addi	a4,a4,%lo(.LANCHOR74)
 267 0290 2320E110 		sw	a4,256(sp)
 268 0294 37070000 		lui	a4,%hi(.LANCHOR75)
 269 0298 13070700 		addi	a4,a4,%lo(.LANCHOR75)
 270 029c 2322E110 		sw	a4,260(sp)
 271 02a0 37070000 		lui	a4,%hi(.LANCHOR76)
 272 02a4 13070700 		addi	a4,a4,%lo(.LANCHOR76)
 273 02a8 2324E110 		sw	a4,264(sp)
 274 02ac 37070000 		lui	a4,%hi(.LANCHOR77)
 275 02b0 13070700 		addi	a4,a4,%lo(.LANCHOR77)
 276 02b4 2326E110 		sw	a4,268(sp)
 277 02b8 37070000 		lui	a4,%hi(.LANCHOR78)
 278 02bc 13070700 		addi	a4,a4,%lo(.LANCHOR78)
 279 02c0 2328E110 		sw	a4,272(sp)
 280 02c4 37070000 		lui	a4,%hi(.LANCHOR79)
 281 02c8 13070700 		addi	a4,a4,%lo(.LANCHOR79)
 282 02cc 232AE110 		sw	a4,276(sp)
 283 02d0 37070000 		lui	a4,%hi(.LANCHOR80)
 284 02d4 13070700 		addi	a4,a4,%lo(.LANCHOR80)
 285 02d8 232CE110 		sw	a4,280(sp)
 286 02dc 37070000 		lui	a4,%hi(.LANCHOR81)
 287 02e0 13070700 		addi	a4,a4,%lo(.LANCHOR81)
 288 02e4 232EE110 		sw	a4,284(sp)
 289 02e8 37070000 		lui	a4,%hi(.LANCHOR82)
 290 02ec 13070700 		addi	a4,a4,%lo(.LANCHOR82)
 291 02f0 2320E112 		sw	a4,288(sp)
 292 02f4 37070000 		lui	a4,%hi(.LANCHOR83)
 293 02f8 13070700 		addi	a4,a4,%lo(.LANCHOR83)
 294 02fc 2322E112 		sw	a4,292(sp)
 295 0300 37070000 		lui	a4,%hi(.LANCHOR84)
 296 0304 13070700 		addi	a4,a4,%lo(.LANCHOR84)
 297 0308 2324E112 		sw	a4,296(sp)
 298 030c 37070000 		lui	a4,%hi(.LANCHOR85)
 299 0310 13070700 		addi	a4,a4,%lo(.LANCHOR85)
 300 0314 2326E112 		sw	a4,300(sp)
 301 0318 37070000 		lui	a4,%hi(.LANCHOR86)
 302 031c 13070700 		addi	a4,a4,%lo(.LANCHOR86)
 303 0320 2328E112 		sw	a4,304(sp)
 304 0324 37070000 		lui	a4,%hi(.LANCHOR87)
 305 0328 13070700 		addi	a4,a4,%lo(.LANCHOR87)
 306 032c 232AE112 		sw	a4,308(sp)
 307 0330 37070000 		lui	a4,%hi(.LANCHOR88)
 308 0334 13070700 		addi	a4,a4,%lo(.LANCHOR88)
 309 0338 232CE112 		sw	a4,312(sp)
 310 033c 37070000 		lui	a4,%hi(.LANCHOR89)
 311 0340 13070700 		addi	a4,a4,%lo(.LANCHOR89)
 312 0344 232EE112 		sw	a4,316(sp)
 313 0348 37070000 		lui	a4,%hi(.LANCHOR90)
 314 034c 13070700 		addi	a4,a4,%lo(.LANCHOR90)
 315 0350 2320E114 		sw	a4,320(sp)
 316 0354 37070000 		lui	a4,%hi(.LANCHOR91)
 317 0358 13070700 		addi	a4,a4,%lo(.LANCHOR91)
 318 035c 2322E114 		sw	a4,324(sp)
 319 0360 37070000 		lui	a4,%hi(.LANCHOR92)
 320 0364 13070700 		addi	a4,a4,%lo(.LANCHOR92)
 321 0368 2324E114 		sw	a4,328(sp)
 322 036c 37070000 		lui	a4,%hi(.LANCHOR93)
 323 0370 13070700 		addi	a4,a4,%lo(.LANCHOR93)
 324 0374 2326E114 		sw	a4,332(sp)
 325 0378 37070000 		lui	a4,%hi(.LANCHOR94)
 326 037c 13070700 		addi	a4,a4,%lo(.LANCHOR94)
 327 0380 2328E114 		sw	a4,336(sp)
 328 0384 37070000 		lui	a4,%hi(.LANCHOR95)
 329 0388 13070700 		addi	a4,a4,%lo(.LANCHOR95)
 330 038c 232AE114 		sw	a4,340(sp)
 331 0390 37070000 		lui	a4,%hi(.LANCHOR96)
 332 0394 13070700 		addi	a4,a4,%lo(.LANCHOR96)
 333 0398 232CE114 		sw	a4,344(sp)
 334 039c 37070000 		lui	a4,%hi(.LANCHOR97)
 335 03a0 13070700 		addi	a4,a4,%lo(.LANCHOR97)
 336 03a4 232EE114 		sw	a4,348(sp)
 337 03a8 37070000 		lui	a4,%hi(.LANCHOR98)
 338 03ac 13070700 		addi	a4,a4,%lo(.LANCHOR98)
 339 03b0 2320E116 		sw	a4,352(sp)
 340 03b4 37070000 		lui	a4,%hi(.LANCHOR99)
 341 03b8 13070700 		addi	a4,a4,%lo(.LANCHOR99)
 342 03bc 2322E116 		sw	a4,356(sp)
 343 03c0 37070000 		lui	a4,%hi(.LANCHOR100)
 344 03c4 13070700 		addi	a4,a4,%lo(.LANCHOR100)
 345 03c8 2324E116 		sw	a4,360(sp)
 346 03cc 37070000 		lui	a4,%hi(.LANCHOR101)
 347 03d0 13070700 		addi	a4,a4,%lo(.LANCHOR101)
 348 03d4 2326E116 		sw	a4,364(sp)
 349 03d8 37070000 		lui	a4,%hi(.LANCHOR102)
 350 03dc 13070700 		addi	a4,a4,%lo(.LANCHOR102)
 351 03e0 2328E116 		sw	a4,368(sp)
 352 03e4 37070000 		lui	a4,%hi(.LANCHOR103)
 353 03e8 13070700 		addi	a4,a4,%lo(.LANCHOR103)
 354 03ec 232AE116 		sw	a4,372(sp)
 355 03f0 37070000 		lui	a4,%hi(.LANCHOR104)
 356 03f4 13070700 		addi	a4,a4,%lo(.LANCHOR104)
 357 03f8 232CE116 		sw	a4,376(sp)
 358 03fc 37070000 		lui	a4,%hi(.LANCHOR105)
 359 0400 13070700 		addi	a4,a4,%lo(.LANCHOR105)
 360 0404 232EE116 		sw	a4,380(sp)
 361 0408 37070000 		lui	a4,%hi(.LANCHOR106)
 362 040c 13070700 		addi	a4,a4,%lo(.LANCHOR106)
 363 0410 2320E118 		sw	a4,384(sp)
 364 0414 37070000 		lui	a4,%hi(.LANCHOR107)
 365 0418 13070700 		addi	a4,a4,%lo(.LANCHOR107)
 366 041c 2322E118 		sw	a4,388(sp)
 367 0420 37070000 		lui	a4,%hi(.LANCHOR108)
 368 0424 13070700 		addi	a4,a4,%lo(.LANCHOR108)
 369 0428 2324E118 		sw	a4,392(sp)
 370 042c 37070000 		lui	a4,%hi(.LANCHOR109)
 371 0430 13070700 		addi	a4,a4,%lo(.LANCHOR109)
 372 0434 2326E118 		sw	a4,396(sp)
 373 0438 37070000 		lui	a4,%hi(.LANCHOR110)
 374 043c 13070700 		addi	a4,a4,%lo(.LANCHOR110)
 375 0440 2328E118 		sw	a4,400(sp)
 376 0444 37070000 		lui	a4,%hi(.LANCHOR111)
 377 0448 13070700 		addi	a4,a4,%lo(.LANCHOR111)
 378 044c 232AE118 		sw	a4,404(sp)
 379 0450 37070000 		lui	a4,%hi(.LANCHOR112)
 380 0454 13070700 		addi	a4,a4,%lo(.LANCHOR112)
 381 0458 232CE118 		sw	a4,408(sp)
 382 045c 37070000 		lui	a4,%hi(.LANCHOR113)
 383 0460 13070700 		addi	a4,a4,%lo(.LANCHOR113)
 384 0464 232EE118 		sw	a4,412(sp)
 385 0468 37070000 		lui	a4,%hi(.LANCHOR114)
 386 046c 13070700 		addi	a4,a4,%lo(.LANCHOR114)
 387 0470 2320E11A 		sw	a4,416(sp)
 388 0474 37070000 		lui	a4,%hi(.LANCHOR115)
 389 0478 13070700 		addi	a4,a4,%lo(.LANCHOR115)
 390 047c 2322E11A 		sw	a4,420(sp)
 391 0480 37070000 		lui	a4,%hi(.LANCHOR116)
 392 0484 13070700 		addi	a4,a4,%lo(.LANCHOR116)
 393 0488 2324E11A 		sw	a4,424(sp)
 394 048c 37070000 		lui	a4,%hi(.LANCHOR117)
 395 0490 13070700 		addi	a4,a4,%lo(.LANCHOR117)
 396 0494 370D0000 		lui	s10,%hi(.LANCHOR0)
 397 0498 B70C0000 		lui	s9,%hi(.LANCHOR1)
 398 049c 370C0000 		lui	s8,%hi(.LANCHOR2)
 399 04a0 B70B0000 		lui	s7,%hi(.LANCHOR3)
 400 04a4 370B0000 		lui	s6,%hi(.LANCHOR4)
 401 04a8 B70A0000 		lui	s5,%hi(.LANCHOR5)
 402 04ac 370A0000 		lui	s4,%hi(.LANCHOR6)
 403 04b0 B7090000 		lui	s3,%hi(.LANCHOR7)
 404 04b4 37090000 		lui	s2,%hi(.LANCHOR8)
 405 04b8 B7040000 		lui	s1,%hi(.LANCHOR9)
 406 04bc 37040000 		lui	s0,%hi(.LANCHOR10)
 407              		.loc 2 52 8 is_stmt 0
 408 04c0 93F7F70F 		andi	a5,a5,0xff
 409 04c4 2326E11A 		sw	a4,428(sp)
 410 04c8 B70D0000 		lui	s11,%hi(global_debug_level)
 411 04cc 130D0D00 		addi	s10,s10,%lo(.LANCHOR0)
 412 04d0 938C0C00 		addi	s9,s9,%lo(.LANCHOR1)
 413 04d4 130C0C00 		addi	s8,s8,%lo(.LANCHOR2)
 414 04d8 938B0B00 		addi	s7,s7,%lo(.LANCHOR3)
 415 04dc 130B0B00 		addi	s6,s6,%lo(.LANCHOR4)
 416 04e0 938A0A00 		addi	s5,s5,%lo(.LANCHOR5)
 417 04e4 130A0A00 		addi	s4,s4,%lo(.LANCHOR6)
 418 04e8 93890900 		addi	s3,s3,%lo(.LANCHOR7)
 419 04ec 13090900 		addi	s2,s2,%lo(.LANCHOR8)
 420 04f0 93840400 		addi	s1,s1,%lo(.LANCHOR9)
 421 04f4 13040400 		addi	s0,s0,%lo(.LANCHOR10)
 422 04f8 639E0744 		bne	a5,zero,.L4
  53:C:/Users/stapi/OneDrive/Desktop/GD32VW553/V1_MQTT_OK/GD32VW55X_Wifi_BLE_SDK/GD32VW55x_RELEASE_V1.0.2/MSDK/plf/src\init_rom_symbol.c ****         mbedtls_hwpka_flag_set(0
 423              		.loc 2 53 9 is_stmt 1
 424 04fc 13053007 		li	a0,115
 425 0500 97000000 		call	mbedtls_hwpka_flag_set
 425      E7800000 
 426              	.LVL4:
  54:C:/Users/stapi/OneDrive/Desktop/GD32VW553/V1_MQTT_OK/GD32VW55X_Wifi_BLE_SDK/GD32VW55x_RELEASE_V1.0.2/MSDK/plf/src\init_rom_symbol.c **** #ifndef CONFIG_NEED_RSA_4096
  55:C:/Users/stapi/OneDrive/Desktop/GD32VW553/V1_MQTT_OK/GD32VW55X_Wifi_BLE_SDK/GD32VW55x_RELEASE_V1.0.2/MSDK/plf/src\init_rom_symbol.c ****                             | MBEDTLS_HW_EXP_MOD
  56:C:/Users/stapi/OneDrive/Desktop/GD32VW553/V1_MQTT_OK/GD32VW55X_Wifi_BLE_SDK/GD32VW55x_RELEASE_V1.0.2/MSDK/plf/src\init_rom_symbol.c ****                             | MBEDTLS_HW_RSA_PRIVATE
  57:C:/Users/stapi/OneDrive/Desktop/GD32VW553/V1_MQTT_OK/GD32VW55X_Wifi_BLE_SDK/GD32VW55x_RELEASE_V1.0.2/MSDK/plf/src\init_rom_symbol.c ****                             | MBEDTLS_HW_MPI_MUL
  58:C:/Users/stapi/OneDrive/Desktop/GD32VW553/V1_MQTT_OK/GD32VW55X_Wifi_BLE_SDK/GD32VW55x_RELEASE_V1.0.2/MSDK/plf/src\init_rom_symbol.c ****  #endif /* CONFIG_NEED_RSA_4096 */
  59:C:/Users/stapi/OneDrive/Desktop/GD32VW553/V1_MQTT_OK/GD32VW55X_Wifi_BLE_SDK/GD32VW55x_RELEASE_V1.0.2/MSDK/plf/src\init_rom_symbol.c ****                             | MBEDTLS_HW_ECP_MUL
  60:C:/Users/stapi/OneDrive/Desktop/GD32VW553/V1_MQTT_OK/GD32VW55X_Wifi_BLE_SDK/GD32VW55x_RELEASE_V1.0.2/MSDK/plf/src\init_rom_symbol.c ****                             | MBEDTLS_HW_ECP_CHECK
  61:C:/Users/stapi/OneDrive/Desktop/GD32VW553/V1_MQTT_OK/GD32VW55X_Wifi_BLE_SDK/GD32VW55x_RELEASE_V1.0.2/MSDK/plf/src\init_rom_symbol.c ****                             );
  62:C:/Users/stapi/OneDrive/Desktop/GD32VW553/V1_MQTT_OK/GD32VW55X_Wifi_BLE_SDK/GD32VW55x_RELEASE_V1.0.2/MSDK/plf/src\init_rom_symbol.c ****     } else {
  63:C:/Users/stapi/OneDrive/Desktop/GD32VW553/V1_MQTT_OK/GD32VW55X_Wifi_BLE_SDK/GD32VW55x_RELEASE_V1.0.2/MSDK/plf/src\init_rom_symbol.c ****         mbedtls_hwpka_flag_set(0
  64:C:/Users/stapi/OneDrive/Desktop/GD32VW553/V1_MQTT_OK/GD32VW55X_Wifi_BLE_SDK/GD32VW55x_RELEASE_V1.0.2/MSDK/plf/src\init_rom_symbol.c **** #ifndef CONFIG_NEED_RSA_4096
  65:C:/Users/stapi/OneDrive/Desktop/GD32VW553/V1_MQTT_OK/GD32VW55X_Wifi_BLE_SDK/GD32VW55x_RELEASE_V1.0.2/MSDK/plf/src\init_rom_symbol.c ****                             | MBEDTLS_HW_EXP_MOD
  66:C:/Users/stapi/OneDrive/Desktop/GD32VW553/V1_MQTT_OK/GD32VW55X_Wifi_BLE_SDK/GD32VW55x_RELEASE_V1.0.2/MSDK/plf/src\init_rom_symbol.c ****                             | MBEDTLS_HW_RSA_PRIVATE
  67:C:/Users/stapi/OneDrive/Desktop/GD32VW553/V1_MQTT_OK/GD32VW55X_Wifi_BLE_SDK/GD32VW55x_RELEASE_V1.0.2/MSDK/plf/src\init_rom_symbol.c ****                             | MBEDTLS_HW_MPI_MUL
  68:C:/Users/stapi/OneDrive/Desktop/GD32VW553/V1_MQTT_OK/GD32VW55X_Wifi_BLE_SDK/GD32VW55x_RELEASE_V1.0.2/MSDK/plf/src\init_rom_symbol.c **** #endif /* CONFIG_NEED_RSA_4096 */
  69:C:/Users/stapi/OneDrive/Desktop/GD32VW553/V1_MQTT_OK/GD32VW55X_Wifi_BLE_SDK/GD32VW55x_RELEASE_V1.0.2/MSDK/plf/src\init_rom_symbol.c ****                             | MBEDTLS_HW_ECDSA_SIGN
  70:C:/Users/stapi/OneDrive/Desktop/GD32VW553/V1_MQTT_OK/GD32VW55X_Wifi_BLE_SDK/GD32VW55x_RELEASE_V1.0.2/MSDK/plf/src\init_rom_symbol.c ****                             | MBEDTLS_HW_ECDSA_VERIFY
  71:C:/Users/stapi/OneDrive/Desktop/GD32VW553/V1_MQTT_OK/GD32VW55X_Wifi_BLE_SDK/GD32VW55x_RELEASE_V1.0.2/MSDK/plf/src\init_rom_symbol.c ****                             | MBEDTLS_HW_ECP_MUL
  72:C:/Users/stapi/OneDrive/Desktop/GD32VW553/V1_MQTT_OK/GD32VW55X_Wifi_BLE_SDK/GD32VW55x_RELEASE_V1.0.2/MSDK/plf/src\init_rom_symbol.c ****                             | MBEDTLS_HW_ECP_CHECK
  73:C:/Users/stapi/OneDrive/Desktop/GD32VW553/V1_MQTT_OK/GD32VW55X_Wifi_BLE_SDK/GD32VW55x_RELEASE_V1.0.2/MSDK/plf/src\init_rom_symbol.c ****                             );
  74:C:/Users/stapi/OneDrive/Desktop/GD32VW553/V1_MQTT_OK/GD32VW55X_Wifi_BLE_SDK/GD32VW55x_RELEASE_V1.0.2/MSDK/plf/src\init_rom_symbol.c ****     }
  75:C:/Users/stapi/OneDrive/Desktop/GD32VW553/V1_MQTT_OK/GD32VW55X_Wifi_BLE_SDK/GD32VW55x_RELEASE_V1.0.2/MSDK/plf/src\init_rom_symbol.c **** 
  76:C:/Users/stapi/OneDrive/Desktop/GD32VW553/V1_MQTT_OK/GD32VW55X_Wifi_BLE_SDK/GD32VW55x_RELEASE_V1.0.2/MSDK/plf/src\init_rom_symbol.c ****     if (acut) {
 427              		.loc 2 76 5
  77:C:/Users/stapi/OneDrive/Desktop/GD32VW553/V1_MQTT_OK/GD32VW55X_Wifi_BLE_SDK/GD32VW55x_RELEASE_V1.0.2/MSDK/plf/src\init_rom_symbol.c **** #ifndef EXEC_USING_STD_PRINTF
  78:C:/Users/stapi/OneDrive/Desktop/GD32VW553/V1_MQTT_OK/GD32VW55X_Wifi_BLE_SDK/GD32VW55x_RELEASE_V1.0.2/MSDK/plf/src\init_rom_symbol.c ****         dbg_print(NOTICE, "Chip: GD32VW55x ACut\r\n");
 428              		.loc 2 78 9
 429              		.loc 2 78 9
 430 0508 03C70D00 		lbu	a4,%lo(global_debug_level)(s11)
 431 050c 8947     		li	a5,2
 432 050e 63FAE700 		bleu	a4,a5,.L6
 433              		.loc 2 78 9 discriminator 1
 434 0512 37050000 		lui	a0,%hi(.LC0)
 435 0516 13050500 		addi	a0,a0,%lo(.LC0)
 436 051a 97000000 		call	co_printf
 436      E7800000 
 437              	.LVL5:
 438              	.L6:
 439              		.loc 2 78 9 discriminator 3
  79:C:/Users/stapi/OneDrive/Desktop/GD32VW553/V1_MQTT_OK/GD32VW55X_Wifi_BLE_SDK/GD32VW55x_RELEASE_V1.0.2/MSDK/plf/src\init_rom_symbol.c **** #endif
  80:C:/Users/stapi/OneDrive/Desktop/GD32VW553/V1_MQTT_OK/GD32VW55X_Wifi_BLE_SDK/GD32VW55x_RELEASE_V1.0.2/MSDK/plf/src\init_rom_symbol.c ****         ecp_supported_curves = (mbedtls_ecp_curve_info *)0x0bf73eb8;
 440              		.loc 2 80 9 discriminator 3
 441              		.loc 2 80 30 is_stmt 0 discriminator 3
 442 0522 3746F70B 		li	a2,200753152
 443 0526 930786EB 		addi	a5,a2,-328
 444 052a 2320FD00 		sw	a5,0(s10)
  81:C:/Users/stapi/OneDrive/Desktop/GD32VW553/V1_MQTT_OK/GD32VW55X_Wifi_BLE_SDK/GD32VW55x_RELEASE_V1.0.2/MSDK/plf/src\init_rom_symbol.c ****         mbedtls_ecdsa_free_fn = (void *)0x0bf715dc;
 445              		.loc 2 81 9 is_stmt 1 discriminator 3
 446              		.loc 2 81 31 is_stmt 0 discriminator 3
 447 052e B717F70B 		li	a5,200740864
 448 0532 1387C75D 		addi	a4,a5,1500
 449 0536 23A0EC00 		sw	a4,0(s9)
  82:C:/Users/stapi/OneDrive/Desktop/GD32VW553/V1_MQTT_OK/GD32VW55X_Wifi_BLE_SDK/GD32VW55x_RELEASE_V1.0.2/MSDK/plf/src\init_rom_symbol.c ****         mbedtls_ecdsa_from_keypair_fn = (void *)0x0bf7158a;
 450              		.loc 2 82 9 is_stmt 1 discriminator 3
 451              		.loc 2 82 39 is_stmt 0 discriminator 3
 452 053a 1387A758 		addi	a4,a5,1418
 453 053e 2320EC00 		sw	a4,0(s8)
  83:C:/Users/stapi/OneDrive/Desktop/GD32VW553/V1_MQTT_OK/GD32VW55X_Wifi_BLE_SDK/GD32VW55x_RELEASE_V1.0.2/MSDK/plf/src\init_rom_symbol.c ****         mbedtls_ecdsa_genkey_fn = (void *)0x0bf7154c;
 454              		.loc 2 83 9 is_stmt 1 discriminator 3
 455              		.loc 2 83 33 is_stmt 0 discriminator 3
 456 0542 1387C754 		addi	a4,a5,1356
 457 0546 23A0EB00 		sw	a4,0(s7)
  84:C:/Users/stapi/OneDrive/Desktop/GD32VW553/V1_MQTT_OK/GD32VW55X_Wifi_BLE_SDK/GD32VW55x_RELEASE_V1.0.2/MSDK/plf/src\init_rom_symbol.c ****         mbedtls_ecdsa_init_fn = (void *)0x0bf715d8;
 458              		.loc 2 84 9 is_stmt 1 discriminator 3
 459              		.loc 2 84 31 is_stmt 0 discriminator 3
 460 054a 1387875D 		addi	a4,a5,1496
 461 054e 2320EB00 		sw	a4,0(s6)
  85:C:/Users/stapi/OneDrive/Desktop/GD32VW553/V1_MQTT_OK/GD32VW55X_Wifi_BLE_SDK/GD32VW55x_RELEASE_V1.0.2/MSDK/plf/src\init_rom_symbol.c ****         mbedtls_ecdsa_read_signature_fn = (void *)0x0bf71546;
 462              		.loc 2 85 9 is_stmt 1 discriminator 3
 463              		.loc 2 85 41 is_stmt 0 discriminator 3
 464 0552 13876754 		addi	a4,a5,1350
 465 0556 23A0EA00 		sw	a4,0(s5)
  86:C:/Users/stapi/OneDrive/Desktop/GD32VW553/V1_MQTT_OK/GD32VW55X_Wifi_BLE_SDK/GD32VW55x_RELEASE_V1.0.2/MSDK/plf/src\init_rom_symbol.c ****         mbedtls_ecdsa_read_signature_restartable_fn = (void *)0x0bf714a0;
 466              		.loc 2 86 9 is_stmt 1 discriminator 3
 467              		.loc 2 86 53 is_stmt 0 discriminator 3
 468 055a 1387074A 		addi	a4,a5,1184
 469 055e 2320EA00 		sw	a4,0(s4)
  87:C:/Users/stapi/OneDrive/Desktop/GD32VW553/V1_MQTT_OK/GD32VW55X_Wifi_BLE_SDK/GD32VW55x_RELEASE_V1.0.2/MSDK/plf/src\init_rom_symbol.c ****         mbedtls_ecdsa_sign_fn = (void *)0x0bf70bca;
 470              		.loc 2 87 9 is_stmt 1 discriminator 3
 471              		.loc 2 87 31 is_stmt 0 discriminator 3
 472 0562 1387A7BC 		addi	a4,a5,-1078
 473 0566 23A0E900 		sw	a4,0(s3)
  88:C:/Users/stapi/OneDrive/Desktop/GD32VW553/V1_MQTT_OK/GD32VW55X_Wifi_BLE_SDK/GD32VW55x_RELEASE_V1.0.2/MSDK/plf/src\init_rom_symbol.c ****         mbedtls_ecdsa_sign_det_fn = (void *)0x0bf7108c;
 474              		.loc 2 88 9 is_stmt 1 discriminator 3
 475              		.loc 2 88 35 is_stmt 0 discriminator 3
 476 056a 1387C708 		addi	a4,a5,140
  89:C:/Users/stapi/OneDrive/Desktop/GD32VW553/V1_MQTT_OK/GD32VW55X_Wifi_BLE_SDK/GD32VW55x_RELEASE_V1.0.2/MSDK/plf/src\init_rom_symbol.c ****         mbedtls_ecdsa_verify_fn = (void *)0x0bf71090;
  90:C:/Users/stapi/OneDrive/Desktop/GD32VW553/V1_MQTT_OK/GD32VW55X_Wifi_BLE_SDK/GD32VW55x_RELEASE_V1.0.2/MSDK/plf/src\init_rom_symbol.c ****         mbedtls_ecdsa_write_signature_fn = (void *)0x0bf71470;
  91:C:/Users/stapi/OneDrive/Desktop/GD32VW553/V1_MQTT_OK/GD32VW55X_Wifi_BLE_SDK/GD32VW55x_RELEASE_V1.0.2/MSDK/plf/src\init_rom_symbol.c ****         mbedtls_ecdsa_write_signature_det_fn = (void *)0x0bf71480;
 477              		.loc 2 91 46 discriminator 3
 478 056e 9246     		lw	a3,4(sp)
  88:C:/Users/stapi/OneDrive/Desktop/GD32VW553/V1_MQTT_OK/GD32VW55X_Wifi_BLE_SDK/GD32VW55x_RELEASE_V1.0.2/MSDK/plf/src\init_rom_symbol.c ****         mbedtls_ecdsa_sign_det_fn = (void *)0x0bf7108c;
 479              		.loc 2 88 35 discriminator 3
 480 0570 2320E900 		sw	a4,0(s2)
  89:C:/Users/stapi/OneDrive/Desktop/GD32VW553/V1_MQTT_OK/GD32VW55X_Wifi_BLE_SDK/GD32VW55x_RELEASE_V1.0.2/MSDK/plf/src\init_rom_symbol.c ****         mbedtls_ecdsa_verify_fn = (void *)0x0bf71090;
 481              		.loc 2 89 9 is_stmt 1 discriminator 3
  89:C:/Users/stapi/OneDrive/Desktop/GD32VW553/V1_MQTT_OK/GD32VW55X_Wifi_BLE_SDK/GD32VW55x_RELEASE_V1.0.2/MSDK/plf/src\init_rom_symbol.c ****         mbedtls_ecdsa_verify_fn = (void *)0x0bf71090;
 482              		.loc 2 89 33 is_stmt 0 discriminator 3
 483 0574 13870709 		addi	a4,a5,144
 484 0578 98C0     		sw	a4,0(s1)
  90:C:/Users/stapi/OneDrive/Desktop/GD32VW553/V1_MQTT_OK/GD32VW55X_Wifi_BLE_SDK/GD32VW55x_RELEASE_V1.0.2/MSDK/plf/src\init_rom_symbol.c ****         mbedtls_ecdsa_write_signature_det_fn = (void *)0x0bf71480;
 485              		.loc 2 90 9 is_stmt 1 discriminator 3
  90:C:/Users/stapi/OneDrive/Desktop/GD32VW553/V1_MQTT_OK/GD32VW55X_Wifi_BLE_SDK/GD32VW55x_RELEASE_V1.0.2/MSDK/plf/src\init_rom_symbol.c ****         mbedtls_ecdsa_write_signature_det_fn = (void *)0x0bf71480;
 486              		.loc 2 90 42 is_stmt 0 discriminator 3
 487 057a 13870747 		addi	a4,a5,1136
 488 057e 18C0     		sw	a4,0(s0)
 489              		.loc 2 91 9 is_stmt 1 discriminator 3
 490              		.loc 2 91 46 is_stmt 0 discriminator 3
 491 0580 13870748 		addi	a4,a5,1152
 492 0584 98C2     		sw	a4,0(a3)
  92:C:/Users/stapi/OneDrive/Desktop/GD32VW553/V1_MQTT_OK/GD32VW55X_Wifi_BLE_SDK/GD32VW55x_RELEASE_V1.0.2/MSDK/plf/src\init_rom_symbol.c ****         mbedtls_ecdsa_write_signature_restartable_fn = (void *)0x0bf713aa;
 493              		.loc 2 92 9 is_stmt 1 discriminator 3
 494              		.loc 2 92 54 is_stmt 0 discriminator 3
 495 0586 2247     		lw	a4,8(sp)
  93:C:/Users/stapi/OneDrive/Desktop/GD32VW553/V1_MQTT_OK/GD32VW55X_Wifi_BLE_SDK/GD32VW55x_RELEASE_V1.0.2/MSDK/plf/src\init_rom_symbol.c ****         mbedtls_ecp_check_privkey_fn = (void *)0x0bf72c3e;
 496              		.loc 2 93 38 discriminator 3
 497 0588 B246     		lw	a3,12(sp)
  92:C:/Users/stapi/OneDrive/Desktop/GD32VW553/V1_MQTT_OK/GD32VW55X_Wifi_BLE_SDK/GD32VW55x_RELEASE_V1.0.2/MSDK/plf/src\init_rom_symbol.c ****         mbedtls_ecdsa_write_signature_restartable_fn = (void *)0x0bf713aa;
 498              		.loc 2 92 54 discriminator 3
 499 058a 9387A73A 		addi	a5,a5,938
 500 058e 1CC3     		sw	a5,0(a4)
 501              		.loc 2 93 9 is_stmt 1 discriminator 3
 502              		.loc 2 93 38 is_stmt 0 discriminator 3
 503 0590 B737F70B 		li	a5,200749056
 504 0594 1387E7C3 		addi	a4,a5,-962
 505 0598 98C2     		sw	a4,0(a3)
  94:C:/Users/stapi/OneDrive/Desktop/GD32VW553/V1_MQTT_OK/GD32VW55X_Wifi_BLE_SDK/GD32VW55x_RELEASE_V1.0.2/MSDK/plf/src\init_rom_symbol.c ****         mbedtls_ecp_check_pub_priv_fn = (void *)0x0bf73c8e;
 506              		.loc 2 94 9 is_stmt 1 discriminator 3
 507              		.loc 2 94 39 is_stmt 0 discriminator 3
 508 059a C246     		lw	a3,16(sp)
 509 059c 1307E6C8 		addi	a4,a2,-882
  95:C:/Users/stapi/OneDrive/Desktop/GD32VW553/V1_MQTT_OK/GD32VW55X_Wifi_BLE_SDK/GD32VW55x_RELEASE_V1.0.2/MSDK/plf/src\init_rom_symbol.c ****         mbedtls_ecp_check_pubkey_fn = (void *)0x0bf72f6a;
  96:C:/Users/stapi/OneDrive/Desktop/GD32VW553/V1_MQTT_OK/GD32VW55X_Wifi_BLE_SDK/GD32VW55x_RELEASE_V1.0.2/MSDK/plf/src\init_rom_symbol.c ****         mbedtls_ecp_copy_fn = (void *)0x0bf72172;
 510              		.loc 2 96 29 discriminator 3
 511 05a0 E245     		lw	a1,24(sp)
  94:C:/Users/stapi/OneDrive/Desktop/GD32VW553/V1_MQTT_OK/GD32VW55X_Wifi_BLE_SDK/GD32VW55x_RELEASE_V1.0.2/MSDK/plf/src\init_rom_symbol.c ****         mbedtls_ecp_check_pub_priv_fn = (void *)0x0bf73c8e;
 512              		.loc 2 94 39 discriminator 3
 513 05a2 98C2     		sw	a4,0(a3)
  95:C:/Users/stapi/OneDrive/Desktop/GD32VW553/V1_MQTT_OK/GD32VW55X_Wifi_BLE_SDK/GD32VW55x_RELEASE_V1.0.2/MSDK/plf/src\init_rom_symbol.c ****         mbedtls_ecp_check_pubkey_fn = (void *)0x0bf72f6a;
 514              		.loc 2 95 9 is_stmt 1 discriminator 3
  95:C:/Users/stapi/OneDrive/Desktop/GD32VW553/V1_MQTT_OK/GD32VW55X_Wifi_BLE_SDK/GD32VW55x_RELEASE_V1.0.2/MSDK/plf/src\init_rom_symbol.c ****         mbedtls_ecp_check_pubkey_fn = (void *)0x0bf72f6a;
 515              		.loc 2 95 37 is_stmt 0 discriminator 3
 516 05a4 D246     		lw	a3,20(sp)
 517 05a6 1387A7F6 		addi	a4,a5,-150
 518 05aa 98C2     		sw	a4,0(a3)
 519              		.loc 2 96 9 is_stmt 1 discriminator 3
 520              		.loc 2 96 29 is_stmt 0 discriminator 3
 521 05ac 3727F70B 		li	a4,200744960
 522 05b0 93062717 		addi	a3,a4,370
 523 05b4 94C1     		sw	a3,0(a1)
  97:C:/Users/stapi/OneDrive/Desktop/GD32VW553/V1_MQTT_OK/GD32VW55X_Wifi_BLE_SDK/GD32VW55x_RELEASE_V1.0.2/MSDK/plf/src\init_rom_symbol.c ****         mbedtls_ecp_curve_info_from_grp_id_fn = (void *)0x0bf71f7e;
 524              		.loc 2 97 9 is_stmt 1 discriminator 3
 525              		.loc 2 97 47 is_stmt 0 discriminator 3
 526 05b6 F245     		lw	a1,28(sp)
 527 05b8 9306E7F7 		addi	a3,a4,-130
 528 05bc 94C1     		sw	a3,0(a1)
  98:C:/Users/stapi/OneDrive/Desktop/GD32VW553/V1_MQTT_OK/GD32VW55X_Wifi_BLE_SDK/GD32VW55x_RELEASE_V1.0.2/MSDK/plf/src\init_rom_symbol.c ****         mbedtls_ecp_curve_info_from_name_fn = (void *)0x0bf71fda;
 529              		.loc 2 98 9 is_stmt 1 discriminator 3
 530              		.loc 2 98 45 is_stmt 0 discriminator 3
 531 05be 8255     		lw	a1,32(sp)
 532 05c0 9306A7FD 		addi	a3,a4,-38
 533 05c4 94C1     		sw	a3,0(a1)
  99:C:/Users/stapi/OneDrive/Desktop/GD32VW553/V1_MQTT_OK/GD32VW55X_Wifi_BLE_SDK/GD32VW55x_RELEASE_V1.0.2/MSDK/plf/src\init_rom_symbol.c ****         mbedtls_ecp_curve_info_from_tls_id_fn = (void *)0x0bf71faa;
 534              		.loc 2 99 9 is_stmt 1 discriminator 3
 535              		.loc 2 99 47 is_stmt 0 discriminator 3
 536 05c6 9255     		lw	a1,36(sp)
 537 05c8 9306A7FA 		addi	a3,a4,-86
 538 05cc 94C1     		sw	a3,0(a1)
 100:C:/Users/stapi/OneDrive/Desktop/GD32VW553/V1_MQTT_OK/GD32VW55X_Wifi_BLE_SDK/GD32VW55x_RELEASE_V1.0.2/MSDK/plf/src\init_rom_symbol.c ****         mbedtls_ecp_curve_list_fn = (void *)0x0bf71f0a;
 539              		.loc 2 100 9 is_stmt 1 discriminator 3
 540              		.loc 2 100 35 is_stmt 0 discriminator 3
 541 05ce A255     		lw	a1,40(sp)
 542 05d0 9306A7F0 		addi	a3,a4,-246
 543 05d4 94C1     		sw	a3,0(a1)
 101:C:/Users/stapi/OneDrive/Desktop/GD32VW553/V1_MQTT_OK/GD32VW55X_Wifi_BLE_SDK/GD32VW55x_RELEASE_V1.0.2/MSDK/plf/src\init_rom_symbol.c ****         mbedtls_ecp_gen_key_fn = (void *)0x0bf73c48;
 544              		.loc 2 101 9 is_stmt 1 discriminator 3
 545              		.loc 2 101 32 is_stmt 0 discriminator 3
 546 05d6 B255     		lw	a1,44(sp)
 547 05d8 930686C4 		addi	a3,a2,-952
 548 05dc 94C1     		sw	a3,0(a1)
 102:C:/Users/stapi/OneDrive/Desktop/GD32VW553/V1_MQTT_OK/GD32VW55X_Wifi_BLE_SDK/GD32VW55x_RELEASE_V1.0.2/MSDK/plf/src\init_rom_symbol.c ****         mbedtls_ecp_gen_keypair_fn = (void *)0x0bf73c38;
 549              		.loc 2 102 9 is_stmt 1 discriminator 3
 550              		.loc 2 102 36 is_stmt 0 discriminator 3
 551 05de C255     		lw	a1,48(sp)
 552 05e0 930686C3 		addi	a3,a2,-968
 553 05e4 94C1     		sw	a3,0(a1)
 103:C:/Users/stapi/OneDrive/Desktop/GD32VW553/V1_MQTT_OK/GD32VW55X_Wifi_BLE_SDK/GD32VW55x_RELEASE_V1.0.2/MSDK/plf/src\init_rom_symbol.c ****         mbedtls_ecp_gen_keypair_base_fn = (void *)0x0bf73bdc;
 554              		.loc 2 103 9 is_stmt 1 discriminator 3
 555              		.loc 2 103 41 is_stmt 0 discriminator 3
 556 05e6 D255     		lw	a1,52(sp)
 557 05e8 9306C6BD 		addi	a3,a2,-1060
 558 05ec 94C1     		sw	a3,0(a1)
 104:C:/Users/stapi/OneDrive/Desktop/GD32VW553/V1_MQTT_OK/GD32VW55X_Wifi_BLE_SDK/GD32VW55x_RELEASE_V1.0.2/MSDK/plf/src\init_rom_symbol.c ****         mbedtls_ecp_gen_privkey_fn = (void *)0x0bf72cbc;
 559              		.loc 2 104 9 is_stmt 1 discriminator 3
 560              		.loc 2 104 36 is_stmt 0 discriminator 3
 561 05ee E255     		lw	a1,56(sp)
 562 05f0 9386C7CB 		addi	a3,a5,-836
 563 05f4 94C1     		sw	a3,0(a1)
 105:C:/Users/stapi/OneDrive/Desktop/GD32VW553/V1_MQTT_OK/GD32VW55X_Wifi_BLE_SDK/GD32VW55x_RELEASE_V1.0.2/MSDK/plf/src\init_rom_symbol.c ****         mbedtls_ecp_group_copy_fn = (void *)0x0bf721b0;
 564              		.loc 2 105 9 is_stmt 1 discriminator 3
 565              		.loc 2 105 35 is_stmt 0 discriminator 3
 566 05f6 F255     		lw	a1,60(sp)
 567 05f8 9306071B 		addi	a3,a4,432
 568 05fc 94C1     		sw	a3,0(a1)
 106:C:/Users/stapi/OneDrive/Desktop/GD32VW553/V1_MQTT_OK/GD32VW55X_Wifi_BLE_SDK/GD32VW55x_RELEASE_V1.0.2/MSDK/plf/src\init_rom_symbol.c ****         mbedtls_ecp_group_free_fn = (void *)0x0bf720cc;
 569              		.loc 2 106 9 is_stmt 1 discriminator 3
 570              		.loc 2 106 35 is_stmt 0 discriminator 3
 571 05fe 8645     		lw	a1,64(sp)
 572 0600 9306C70C 		addi	a3,a4,204
 573 0604 94C1     		sw	a3,0(a1)
 107:C:/Users/stapi/OneDrive/Desktop/GD32VW553/V1_MQTT_OK/GD32VW55X_Wifi_BLE_SDK/GD32VW55x_RELEASE_V1.0.2/MSDK/plf/src\init_rom_symbol.c ****         mbedtls_ecp_group_init_fn = (void *)0x0bf72044;
 574              		.loc 2 107 9 is_stmt 1 discriminator 3
 575              		.loc 2 107 35 is_stmt 0 discriminator 3
 576 0606 9645     		lw	a1,68(sp)
 577 0608 93064704 		addi	a3,a4,68
 578 060c 94C1     		sw	a3,0(a1)
 108:C:/Users/stapi/OneDrive/Desktop/GD32VW553/V1_MQTT_OK/GD32VW55X_Wifi_BLE_SDK/GD32VW55x_RELEASE_V1.0.2/MSDK/plf/src\init_rom_symbol.c ****         mbedtls_ecp_grp_id_list_fn = (void *)0x0bf71f32;
 579              		.loc 2 108 9 is_stmt 1 discriminator 3
 580              		.loc 2 108 36 is_stmt 0 discriminator 3
 581 060e A645     		lw	a1,72(sp)
 582 0610 930627F3 		addi	a3,a4,-206
 583 0614 94C1     		sw	a3,0(a1)
 109:C:/Users/stapi/OneDrive/Desktop/GD32VW553/V1_MQTT_OK/GD32VW55X_Wifi_BLE_SDK/GD32VW55x_RELEASE_V1.0.2/MSDK/plf/src\init_rom_symbol.c ****         mbedtls_ecp_is_zero_fn = (void *)0x0bf728e4;
 584              		.loc 2 109 9 is_stmt 1 discriminator 3
 585              		.loc 2 109 32 is_stmt 0 discriminator 3
 586 0616 B645     		lw	a1,76(sp)
 587 0618 9386478E 		addi	a3,a5,-1820
 588 061c 94C1     		sw	a3,0(a1)
 110:C:/Users/stapi/OneDrive/Desktop/GD32VW553/V1_MQTT_OK/GD32VW55X_Wifi_BLE_SDK/GD32VW55x_RELEASE_V1.0.2/MSDK/plf/src\init_rom_symbol.c ****         mbedtls_ecp_keypair_free_fn = (void *)0x0bf7214c;
 589              		.loc 2 110 9 is_stmt 1 discriminator 3
 590              		.loc 2 110 37 is_stmt 0 discriminator 3
 591 061e C645     		lw	a1,80(sp)
 592 0620 9306C714 		addi	a3,a4,332
 593 0624 94C1     		sw	a3,0(a1)
 111:C:/Users/stapi/OneDrive/Desktop/GD32VW553/V1_MQTT_OK/GD32VW55X_Wifi_BLE_SDK/GD32VW55x_RELEASE_V1.0.2/MSDK/plf/src\init_rom_symbol.c ****         mbedtls_ecp_keypair_init_fn = (void *)0x0bf720a2;
 594              		.loc 2 111 9 is_stmt 1 discriminator 3
 595              		.loc 2 111 37 is_stmt 0 discriminator 3
 596 0626 D645     		lw	a1,84(sp)
 597 0628 9306270A 		addi	a3,a4,162
 598 062c 94C1     		sw	a3,0(a1)
 112:C:/Users/stapi/OneDrive/Desktop/GD32VW553/V1_MQTT_OK/GD32VW55X_Wifi_BLE_SDK/GD32VW55x_RELEASE_V1.0.2/MSDK/plf/src\init_rom_symbol.c ****         mbedtls_ecp_mul_fn = (void *)0x0bf73bd6;
 599              		.loc 2 112 9 is_stmt 1 discriminator 3
 600              		.loc 2 112 28 is_stmt 0 discriminator 3
 601 062e E645     		lw	a1,88(sp)
 602 0630 930666BD 		addi	a3,a2,-1066
 603 0634 94C1     		sw	a3,0(a1)
 113:C:/Users/stapi/OneDrive/Desktop/GD32VW553/V1_MQTT_OK/GD32VW55X_Wifi_BLE_SDK/GD32VW55x_RELEASE_V1.0.2/MSDK/plf/src\init_rom_symbol.c ****         mbedtls_ecp_mul_restartable_fn = (void *)0x0bf73220;
 604              		.loc 2 113 9 is_stmt 1 discriminator 3
 605              		.loc 2 113 40 is_stmt 0 discriminator 3
 606 0636 F645     		lw	a1,92(sp)
 607 0638 93860722 		addi	a3,a5,544
 608 063c 94C1     		sw	a3,0(a1)
 114:C:/Users/stapi/OneDrive/Desktop/GD32VW553/V1_MQTT_OK/GD32VW55X_Wifi_BLE_SDK/GD32VW55x_RELEASE_V1.0.2/MSDK/plf/src\init_rom_symbol.c ****         mbedtls_ecp_muladd_fn = (void *)0x0bf73e98;
 609              		.loc 2 114 9 is_stmt 1 discriminator 3
 610              		.loc 2 114 31 is_stmt 0 discriminator 3
 611 063e 8655     		lw	a1,96(sp)
 612 0640 930686E9 		addi	a3,a2,-360
 613 0644 94C1     		sw	a3,0(a1)
 115:C:/Users/stapi/OneDrive/Desktop/GD32VW553/V1_MQTT_OK/GD32VW55X_Wifi_BLE_SDK/GD32VW55x_RELEASE_V1.0.2/MSDK/plf/src\init_rom_symbol.c ****         mbedtls_ecp_muladd_restartable_fn = (void *)0x0bf73e7c;
 614              		.loc 2 115 9 is_stmt 1 discriminator 3
 615              		.loc 2 115 43 is_stmt 0 discriminator 3
 616 0646 9655     		lw	a1,100(sp)
 617 0648 9306C6E7 		addi	a3,a2,-388
 618 064c 94C1     		sw	a3,0(a1)
 116:C:/Users/stapi/OneDrive/Desktop/GD32VW553/V1_MQTT_OK/GD32VW55X_Wifi_BLE_SDK/GD32VW55x_RELEASE_V1.0.2/MSDK/plf/src\init_rom_symbol.c ****         mbedtls_ecp_point_cmp_fn = (void *)0x0bf728fa;
 619              		.loc 2 116 9 is_stmt 1 discriminator 3
 620              		.loc 2 116 34 is_stmt 0 discriminator 3
 621 064e A655     		lw	a1,104(sp)
 622 0650 9386A78F 		addi	a3,a5,-1798
 623 0654 94C1     		sw	a3,0(a1)
 117:C:/Users/stapi/OneDrive/Desktop/GD32VW553/V1_MQTT_OK/GD32VW55X_Wifi_BLE_SDK/GD32VW55x_RELEASE_V1.0.2/MSDK/plf/src\init_rom_symbol.c ****         mbedtls_ecp_point_free_fn = (void *)0x0bf720c4;
 624              		.loc 2 117 9 is_stmt 1 discriminator 3
 625              		.loc 2 117 35 is_stmt 0 discriminator 3
 626 0656 B655     		lw	a1,108(sp)
 627 0658 9306470C 		addi	a3,a4,196
 628 065c 94C1     		sw	a3,0(a1)
 118:C:/Users/stapi/OneDrive/Desktop/GD32VW553/V1_MQTT_OK/GD32VW55X_Wifi_BLE_SDK/GD32VW55x_RELEASE_V1.0.2/MSDK/plf/src\init_rom_symbol.c ****         mbedtls_ecp_point_init_fn = (void *)0x0bf72022;
 629              		.loc 2 118 9 is_stmt 1 discriminator 3
 630              		.loc 2 118 35 is_stmt 0 discriminator 3
 631 065e C655     		lw	a1,112(sp)
 632 0660 93062702 		addi	a3,a4,34
 119:C:/Users/stapi/OneDrive/Desktop/GD32VW553/V1_MQTT_OK/GD32VW55X_Wifi_BLE_SDK/GD32VW55x_RELEASE_V1.0.2/MSDK/plf/src\init_rom_symbol.c ****         mbedtls_ecp_point_read_binary_fn = (void *)0x0bf72a54;
 120:C:/Users/stapi/OneDrive/Desktop/GD32VW553/V1_MQTT_OK/GD32VW55X_Wifi_BLE_SDK/GD32VW55x_RELEASE_V1.0.2/MSDK/plf/src\init_rom_symbol.c ****         mbedtls_ecp_point_read_string_fn = (void *)0x0bf72942;
 121:C:/Users/stapi/OneDrive/Desktop/GD32VW553/V1_MQTT_OK/GD32VW55X_Wifi_BLE_SDK/GD32VW55x_RELEASE_V1.0.2/MSDK/plf/src\init_rom_symbol.c ****         mbedtls_ecp_point_write_binary_fn = (void *)0x0bf72986;
 122:C:/Users/stapi/OneDrive/Desktop/GD32VW553/V1_MQTT_OK/GD32VW55X_Wifi_BLE_SDK/GD32VW55x_RELEASE_V1.0.2/MSDK/plf/src\init_rom_symbol.c ****         mbedtls_ecp_set_zero_fn = (void *)0x0bf721b6;
 633              		.loc 2 122 33 discriminator 3
 634 0664 1307671B 		addi	a4,a4,438
 118:C:/Users/stapi/OneDrive/Desktop/GD32VW553/V1_MQTT_OK/GD32VW55X_Wifi_BLE_SDK/GD32VW55x_RELEASE_V1.0.2/MSDK/plf/src\init_rom_symbol.c ****         mbedtls_ecp_point_init_fn = (void *)0x0bf72022;
 635              		.loc 2 118 35 discriminator 3
 636 0668 94C1     		sw	a3,0(a1)
 119:C:/Users/stapi/OneDrive/Desktop/GD32VW553/V1_MQTT_OK/GD32VW55X_Wifi_BLE_SDK/GD32VW55x_RELEASE_V1.0.2/MSDK/plf/src\init_rom_symbol.c ****         mbedtls_ecp_point_read_binary_fn = (void *)0x0bf72a54;
 637              		.loc 2 119 9 is_stmt 1 discriminator 3
 119:C:/Users/stapi/OneDrive/Desktop/GD32VW553/V1_MQTT_OK/GD32VW55X_Wifi_BLE_SDK/GD32VW55x_RELEASE_V1.0.2/MSDK/plf/src\init_rom_symbol.c ****         mbedtls_ecp_point_read_binary_fn = (void *)0x0bf72a54;
 638              		.loc 2 119 42 is_stmt 0 discriminator 3
 639 066a D655     		lw	a1,116(sp)
 640 066c 938647A5 		addi	a3,a5,-1452
 641 0670 94C1     		sw	a3,0(a1)
 120:C:/Users/stapi/OneDrive/Desktop/GD32VW553/V1_MQTT_OK/GD32VW55X_Wifi_BLE_SDK/GD32VW55x_RELEASE_V1.0.2/MSDK/plf/src\init_rom_symbol.c ****         mbedtls_ecp_point_write_binary_fn = (void *)0x0bf72986;
 642              		.loc 2 120 9 is_stmt 1 discriminator 3
 120:C:/Users/stapi/OneDrive/Desktop/GD32VW553/V1_MQTT_OK/GD32VW55X_Wifi_BLE_SDK/GD32VW55x_RELEASE_V1.0.2/MSDK/plf/src\init_rom_symbol.c ****         mbedtls_ecp_point_write_binary_fn = (void *)0x0bf72986;
 643              		.loc 2 120 42 is_stmt 0 discriminator 3
 644 0672 E655     		lw	a1,120(sp)
 645 0674 93862794 		addi	a3,a5,-1726
 646 0678 94C1     		sw	a3,0(a1)
 121:C:/Users/stapi/OneDrive/Desktop/GD32VW553/V1_MQTT_OK/GD32VW55X_Wifi_BLE_SDK/GD32VW55x_RELEASE_V1.0.2/MSDK/plf/src\init_rom_symbol.c ****         mbedtls_ecp_set_zero_fn = (void *)0x0bf721b6;
 647              		.loc 2 121 9 is_stmt 1 discriminator 3
 121:C:/Users/stapi/OneDrive/Desktop/GD32VW553/V1_MQTT_OK/GD32VW55X_Wifi_BLE_SDK/GD32VW55x_RELEASE_V1.0.2/MSDK/plf/src\init_rom_symbol.c ****         mbedtls_ecp_set_zero_fn = (void *)0x0bf721b6;
 648              		.loc 2 121 43 is_stmt 0 discriminator 3
 649 067a F655     		lw	a1,124(sp)
 650 067c 93866798 		addi	a3,a5,-1658
 651 0680 94C1     		sw	a3,0(a1)
 652              		.loc 2 122 9 is_stmt 1 discriminator 3
 653              		.loc 2 122 33 is_stmt 0 discriminator 3
 654 0682 8A46     		lw	a3,128(sp)
 123:C:/Users/stapi/OneDrive/Desktop/GD32VW553/V1_MQTT_OK/GD32VW55X_Wifi_BLE_SDK/GD32VW55x_RELEASE_V1.0.2/MSDK/plf/src\init_rom_symbol.c ****         mbedtls_ecp_tls_read_group_fn = (void *)0x0bf72bc4;
 124:C:/Users/stapi/OneDrive/Desktop/GD32VW553/V1_MQTT_OK/GD32VW55X_Wifi_BLE_SDK/GD32VW55x_RELEASE_V1.0.2/MSDK/plf/src\init_rom_symbol.c ****         mbedtls_ecp_tls_read_group_id_fn = (void *)0x0bf72b5c;
 125:C:/Users/stapi/OneDrive/Desktop/GD32VW553/V1_MQTT_OK/GD32VW55X_Wifi_BLE_SDK/GD32VW55x_RELEASE_V1.0.2/MSDK/plf/src\init_rom_symbol.c ****         mbedtls_ecp_tls_read_point_fn = (void *)0x0bf72af2;
 126:C:/Users/stapi/OneDrive/Desktop/GD32VW553/V1_MQTT_OK/GD32VW55X_Wifi_BLE_SDK/GD32VW55x_RELEASE_V1.0.2/MSDK/plf/src\init_rom_symbol.c ****         mbedtls_ecp_tls_write_group_fn = (void *)0x0bf72be4;
 127:C:/Users/stapi/OneDrive/Desktop/GD32VW553/V1_MQTT_OK/GD32VW55X_Wifi_BLE_SDK/GD32VW55x_RELEASE_V1.0.2/MSDK/plf/src\init_rom_symbol.c ****         mbedtls_ecp_tls_write_point_fn = (void *)0x0bf72b26;
 128:C:/Users/stapi/OneDrive/Desktop/GD32VW553/V1_MQTT_OK/GD32VW55X_Wifi_BLE_SDK/GD32VW55x_RELEASE_V1.0.2/MSDK/plf/src\init_rom_symbol.c ****         mbedtls_internal_md5_process_fn = (void *)0x0bf76912;
 129:C:/Users/stapi/OneDrive/Desktop/GD32VW553/V1_MQTT_OK/GD32VW55X_Wifi_BLE_SDK/GD32VW55x_RELEASE_V1.0.2/MSDK/plf/src\init_rom_symbol.c ****         mbedtls_internal_sha256_process_fn = (void *)0x0bf7674e;
 655              		.loc 2 129 44 discriminator 3
 656 0684 FA45     		lw	a1,156(sp)
 122:C:/Users/stapi/OneDrive/Desktop/GD32VW553/V1_MQTT_OK/GD32VW55X_Wifi_BLE_SDK/GD32VW55x_RELEASE_V1.0.2/MSDK/plf/src\init_rom_symbol.c ****         mbedtls_ecp_tls_read_group_fn = (void *)0x0bf72bc4;
 657              		.loc 2 122 33 discriminator 3
 658 0686 98C2     		sw	a4,0(a3)
 123:C:/Users/stapi/OneDrive/Desktop/GD32VW553/V1_MQTT_OK/GD32VW55X_Wifi_BLE_SDK/GD32VW55x_RELEASE_V1.0.2/MSDK/plf/src\init_rom_symbol.c ****         mbedtls_ecp_tls_read_group_fn = (void *)0x0bf72bc4;
 659              		.loc 2 123 9 is_stmt 1 discriminator 3
 123:C:/Users/stapi/OneDrive/Desktop/GD32VW553/V1_MQTT_OK/GD32VW55X_Wifi_BLE_SDK/GD32VW55x_RELEASE_V1.0.2/MSDK/plf/src\init_rom_symbol.c ****         mbedtls_ecp_tls_read_group_fn = (void *)0x0bf72bc4;
 660              		.loc 2 123 39 is_stmt 0 discriminator 3
 661 0688 9A46     		lw	a3,132(sp)
 662 068a 138747BC 		addi	a4,a5,-1084
 663 068e 98C2     		sw	a4,0(a3)
 124:C:/Users/stapi/OneDrive/Desktop/GD32VW553/V1_MQTT_OK/GD32VW55X_Wifi_BLE_SDK/GD32VW55x_RELEASE_V1.0.2/MSDK/plf/src\init_rom_symbol.c ****         mbedtls_ecp_tls_read_point_fn = (void *)0x0bf72af2;
 664              		.loc 2 124 9 is_stmt 1 discriminator 3
 124:C:/Users/stapi/OneDrive/Desktop/GD32VW553/V1_MQTT_OK/GD32VW55X_Wifi_BLE_SDK/GD32VW55x_RELEASE_V1.0.2/MSDK/plf/src\init_rom_symbol.c ****         mbedtls_ecp_tls_read_point_fn = (void *)0x0bf72af2;
 665              		.loc 2 124 42 is_stmt 0 discriminator 3
 666 0690 AA46     		lw	a3,136(sp)
 667 0692 1387C7B5 		addi	a4,a5,-1188
 668 0696 98C2     		sw	a4,0(a3)
 125:C:/Users/stapi/OneDrive/Desktop/GD32VW553/V1_MQTT_OK/GD32VW55X_Wifi_BLE_SDK/GD32VW55x_RELEASE_V1.0.2/MSDK/plf/src\init_rom_symbol.c ****         mbedtls_ecp_tls_write_group_fn = (void *)0x0bf72be4;
 669              		.loc 2 125 9 is_stmt 1 discriminator 3
 125:C:/Users/stapi/OneDrive/Desktop/GD32VW553/V1_MQTT_OK/GD32VW55X_Wifi_BLE_SDK/GD32VW55x_RELEASE_V1.0.2/MSDK/plf/src\init_rom_symbol.c ****         mbedtls_ecp_tls_write_group_fn = (void *)0x0bf72be4;
 670              		.loc 2 125 39 is_stmt 0 discriminator 3
 671 0698 BA46     		lw	a3,140(sp)
 672 069a 138727AF 		addi	a4,a5,-1294
 673 069e 98C2     		sw	a4,0(a3)
 126:C:/Users/stapi/OneDrive/Desktop/GD32VW553/V1_MQTT_OK/GD32VW55X_Wifi_BLE_SDK/GD32VW55x_RELEASE_V1.0.2/MSDK/plf/src\init_rom_symbol.c ****         mbedtls_ecp_tls_write_point_fn = (void *)0x0bf72b26;
 674              		.loc 2 126 9 is_stmt 1 discriminator 3
 126:C:/Users/stapi/OneDrive/Desktop/GD32VW553/V1_MQTT_OK/GD32VW55X_Wifi_BLE_SDK/GD32VW55x_RELEASE_V1.0.2/MSDK/plf/src\init_rom_symbol.c ****         mbedtls_ecp_tls_write_point_fn = (void *)0x0bf72b26;
 675              		.loc 2 126 40 is_stmt 0 discriminator 3
 676 06a0 CA46     		lw	a3,144(sp)
 677 06a2 138747BE 		addi	a4,a5,-1052
 127:C:/Users/stapi/OneDrive/Desktop/GD32VW553/V1_MQTT_OK/GD32VW55X_Wifi_BLE_SDK/GD32VW55x_RELEASE_V1.0.2/MSDK/plf/src\init_rom_symbol.c ****         mbedtls_internal_md5_process_fn = (void *)0x0bf76912;
 678              		.loc 2 127 40 discriminator 3
 679 06a6 938767B2 		addi	a5,a5,-1242
 126:C:/Users/stapi/OneDrive/Desktop/GD32VW553/V1_MQTT_OK/GD32VW55X_Wifi_BLE_SDK/GD32VW55x_RELEASE_V1.0.2/MSDK/plf/src\init_rom_symbol.c ****         mbedtls_ecp_tls_write_point_fn = (void *)0x0bf72b26;
 680              		.loc 2 126 40 discriminator 3
 681 06aa 98C2     		sw	a4,0(a3)
 127:C:/Users/stapi/OneDrive/Desktop/GD32VW553/V1_MQTT_OK/GD32VW55X_Wifi_BLE_SDK/GD32VW55x_RELEASE_V1.0.2/MSDK/plf/src\init_rom_symbol.c ****         mbedtls_internal_md5_process_fn = (void *)0x0bf76912;
 682              		.loc 2 127 9 is_stmt 1 discriminator 3
 127:C:/Users/stapi/OneDrive/Desktop/GD32VW553/V1_MQTT_OK/GD32VW55X_Wifi_BLE_SDK/GD32VW55x_RELEASE_V1.0.2/MSDK/plf/src\init_rom_symbol.c ****         mbedtls_internal_md5_process_fn = (void *)0x0bf76912;
 683              		.loc 2 127 40 is_stmt 0 discriminator 3
 684 06ac 5A47     		lw	a4,148(sp)
 128:C:/Users/stapi/OneDrive/Desktop/GD32VW553/V1_MQTT_OK/GD32VW55X_Wifi_BLE_SDK/GD32VW55x_RELEASE_V1.0.2/MSDK/plf/src\init_rom_symbol.c ****         mbedtls_internal_sha256_process_fn = (void *)0x0bf7674e;
 685              		.loc 2 128 41 discriminator 3
 686 06ae EA46     		lw	a3,152(sp)
 127:C:/Users/stapi/OneDrive/Desktop/GD32VW553/V1_MQTT_OK/GD32VW55X_Wifi_BLE_SDK/GD32VW55x_RELEASE_V1.0.2/MSDK/plf/src\init_rom_symbol.c ****         mbedtls_internal_md5_process_fn = (void *)0x0bf76912;
 687              		.loc 2 127 40 discriminator 3
 688 06b0 1CC3     		sw	a5,0(a4)
 128:C:/Users/stapi/OneDrive/Desktop/GD32VW553/V1_MQTT_OK/GD32VW55X_Wifi_BLE_SDK/GD32VW55x_RELEASE_V1.0.2/MSDK/plf/src\init_rom_symbol.c ****         mbedtls_internal_sha256_process_fn = (void *)0x0bf7674e;
 689              		.loc 2 128 9 is_stmt 1 discriminator 3
 128:C:/Users/stapi/OneDrive/Desktop/GD32VW553/V1_MQTT_OK/GD32VW55X_Wifi_BLE_SDK/GD32VW55x_RELEASE_V1.0.2/MSDK/plf/src\init_rom_symbol.c ****         mbedtls_internal_sha256_process_fn = (void *)0x0bf7674e;
 690              		.loc 2 128 41 is_stmt 0 discriminator 3
 691 06b2 3777F70B 		li	a4,200765440
 692 06b6 93072791 		addi	a5,a4,-1774
 693 06ba 9CC2     		sw	a5,0(a3)
 694              		.loc 2 129 9 is_stmt 1 discriminator 3
 695              		.loc 2 129 44 is_stmt 0 discriminator 3
 696 06bc B767F70B 		li	a5,200761344
 697 06c0 9386E774 		addi	a3,a5,1870
 698 06c4 94C1     		sw	a3,0(a1)
 130:C:/Users/stapi/OneDrive/Desktop/GD32VW553/V1_MQTT_OK/GD32VW55X_Wifi_BLE_SDK/GD32VW55x_RELEASE_V1.0.2/MSDK/plf/src\init_rom_symbol.c ****         mbedtls_md5_fn = (void *)0x0bf7778e;
 699              		.loc 2 130 9 is_stmt 1 discriminator 3
 700              		.loc 2 130 24 is_stmt 0 discriminator 3
 701 06c6 8A55     		lw	a1,160(sp)
 702 06c8 9306E778 		addi	a3,a4,1934
 703 06cc 94C1     		sw	a3,0(a1)
 131:C:/Users/stapi/OneDrive/Desktop/GD32VW553/V1_MQTT_OK/GD32VW55X_Wifi_BLE_SDK/GD32VW55x_RELEASE_V1.0.2/MSDK/plf/src\init_rom_symbol.c ****         mbedtls_md5_clone_fn = (void *)0x0bf768a4;
 704              		.loc 2 131 9 is_stmt 1 discriminator 3
 705              		.loc 2 131 30 is_stmt 0 discriminator 3
 706 06ce 9A55     		lw	a1,164(sp)
 707 06d0 9306478A 		addi	a3,a4,-1884
 708 06d4 94C1     		sw	a3,0(a1)
 132:C:/Users/stapi/OneDrive/Desktop/GD32VW553/V1_MQTT_OK/GD32VW55X_Wifi_BLE_SDK/GD32VW55x_RELEASE_V1.0.2/MSDK/plf/src\init_rom_symbol.c ****         mbedtls_md5_finish_fn = (void *)0x0bf77758;
 709              		.loc 2 132 9 is_stmt 1 discriminator 3
 710              		.loc 2 132 31 is_stmt 0 discriminator 3
 711 06d6 AA55     		lw	a1,168(sp)
 712 06d8 93068775 		addi	a3,a4,1880
 713 06dc 94C1     		sw	a3,0(a1)
 133:C:/Users/stapi/OneDrive/Desktop/GD32VW553/V1_MQTT_OK/GD32VW55X_Wifi_BLE_SDK/GD32VW55x_RELEASE_V1.0.2/MSDK/plf/src\init_rom_symbol.c ****         mbedtls_md5_finish_ret_fn = (void *)0x0bf7765a;
 714              		.loc 2 133 9 is_stmt 1 discriminator 3
 715              		.loc 2 133 35 is_stmt 0 discriminator 3
 716 06de BA55     		lw	a1,172(sp)
 717 06e0 9306A765 		addi	a3,a4,1626
 718 06e4 94C1     		sw	a3,0(a1)
 134:C:/Users/stapi/OneDrive/Desktop/GD32VW553/V1_MQTT_OK/GD32VW55X_Wifi_BLE_SDK/GD32VW55x_RELEASE_V1.0.2/MSDK/plf/src\init_rom_symbol.c ****         mbedtls_md5_free_fn = (void *)0x0bf76898;
 719              		.loc 2 134 9 is_stmt 1 discriminator 3
 720              		.loc 2 134 29 is_stmt 0 discriminator 3
 721 06e6 CA55     		lw	a1,176(sp)
 722 06e8 93068789 		addi	a3,a4,-1896
 135:C:/Users/stapi/OneDrive/Desktop/GD32VW553/V1_MQTT_OK/GD32VW55X_Wifi_BLE_SDK/GD32VW55x_RELEASE_V1.0.2/MSDK/plf/src\init_rom_symbol.c ****         mbedtls_md5_init_fn = (void *)0x0bf7688e;
 136:C:/Users/stapi/OneDrive/Desktop/GD32VW553/V1_MQTT_OK/GD32VW55X_Wifi_BLE_SDK/GD32VW55x_RELEASE_V1.0.2/MSDK/plf/src\init_rom_symbol.c ****         mbedtls_md5_process_fn = (void *)0x0bf77644;
 137:C:/Users/stapi/OneDrive/Desktop/GD32VW553/V1_MQTT_OK/GD32VW55X_Wifi_BLE_SDK/GD32VW55x_RELEASE_V1.0.2/MSDK/plf/src\init_rom_symbol.c ****         mbedtls_md5_ret_fn = (void *)0x0bf7775c;
 138:C:/Users/stapi/OneDrive/Desktop/GD32VW553/V1_MQTT_OK/GD32VW55X_Wifi_BLE_SDK/GD32VW55x_RELEASE_V1.0.2/MSDK/plf/src\init_rom_symbol.c ****         mbedtls_md5_starts_fn = (void *)0x0bf768e0;
 139:C:/Users/stapi/OneDrive/Desktop/GD32VW553/V1_MQTT_OK/GD32VW55X_Wifi_BLE_SDK/GD32VW55x_RELEASE_V1.0.2/MSDK/plf/src\init_rom_symbol.c ****         mbedtls_md5_starts_ret_fn = (void *)0x0bf768ac;
 140:C:/Users/stapi/OneDrive/Desktop/GD32VW553/V1_MQTT_OK/GD32VW55X_Wifi_BLE_SDK/GD32VW55x_RELEASE_V1.0.2/MSDK/plf/src\init_rom_symbol.c ****         mbedtls_md5_update_fn = (void *)0x0bf77652;
 141:C:/Users/stapi/OneDrive/Desktop/GD32VW553/V1_MQTT_OK/GD32VW55X_Wifi_BLE_SDK/GD32VW55x_RELEASE_V1.0.2/MSDK/plf/src\init_rom_symbol.c ****         mbedtls_md5_update_ret_fn = (void *)0x0bf77648;
 142:C:/Users/stapi/OneDrive/Desktop/GD32VW553/V1_MQTT_OK/GD32VW55X_Wifi_BLE_SDK/GD32VW55x_RELEASE_V1.0.2/MSDK/plf/src\init_rom_symbol.c ****         mbedtls_mpi_div_int_fn = (void *)0x0bf6f20a;
 723              		.loc 2 142 32 discriminator 3
 724 06ec 4E45     		lw	a0,208(sp)
 134:C:/Users/stapi/OneDrive/Desktop/GD32VW553/V1_MQTT_OK/GD32VW55X_Wifi_BLE_SDK/GD32VW55x_RELEASE_V1.0.2/MSDK/plf/src\init_rom_symbol.c ****         mbedtls_md5_free_fn = (void *)0x0bf76898;
 725              		.loc 2 134 29 discriminator 3
 726 06ee 94C1     		sw	a3,0(a1)
 135:C:/Users/stapi/OneDrive/Desktop/GD32VW553/V1_MQTT_OK/GD32VW55X_Wifi_BLE_SDK/GD32VW55x_RELEASE_V1.0.2/MSDK/plf/src\init_rom_symbol.c ****         mbedtls_md5_init_fn = (void *)0x0bf7688e;
 727              		.loc 2 135 9 is_stmt 1 discriminator 3
 135:C:/Users/stapi/OneDrive/Desktop/GD32VW553/V1_MQTT_OK/GD32VW55X_Wifi_BLE_SDK/GD32VW55x_RELEASE_V1.0.2/MSDK/plf/src\init_rom_symbol.c ****         mbedtls_md5_init_fn = (void *)0x0bf7688e;
 728              		.loc 2 135 29 is_stmt 0 discriminator 3
 729 06f0 DA55     		lw	a1,180(sp)
 730 06f2 9306E788 		addi	a3,a4,-1906
 143:C:/Users/stapi/OneDrive/Desktop/GD32VW553/V1_MQTT_OK/GD32VW55X_Wifi_BLE_SDK/GD32VW55x_RELEASE_V1.0.2/MSDK/plf/src\init_rom_symbol.c ****         mbedtls_mpi_div_mpi_fn = (void *)0x0bf6ed1e;
 144:C:/Users/stapi/OneDrive/Desktop/GD32VW553/V1_MQTT_OK/GD32VW55X_Wifi_BLE_SDK/GD32VW55x_RELEASE_V1.0.2/MSDK/plf/src\init_rom_symbol.c ****         mbedtls_mpi_exp_mod_fn = (void *)0x0bf6fb5c;
 731              		.loc 2 144 32 discriminator 3
 732 06f6 6E44     		lw	s0,216(sp)
 135:C:/Users/stapi/OneDrive/Desktop/GD32VW553/V1_MQTT_OK/GD32VW55X_Wifi_BLE_SDK/GD32VW55x_RELEASE_V1.0.2/MSDK/plf/src\init_rom_symbol.c ****         mbedtls_md5_init_fn = (void *)0x0bf7688e;
 733              		.loc 2 135 29 discriminator 3
 734 06f8 94C1     		sw	a3,0(a1)
 136:C:/Users/stapi/OneDrive/Desktop/GD32VW553/V1_MQTT_OK/GD32VW55X_Wifi_BLE_SDK/GD32VW55x_RELEASE_V1.0.2/MSDK/plf/src\init_rom_symbol.c ****         mbedtls_md5_ret_fn = (void *)0x0bf7775c;
 735              		.loc 2 136 9 is_stmt 1 discriminator 3
 136:C:/Users/stapi/OneDrive/Desktop/GD32VW553/V1_MQTT_OK/GD32VW55X_Wifi_BLE_SDK/GD32VW55x_RELEASE_V1.0.2/MSDK/plf/src\init_rom_symbol.c ****         mbedtls_md5_ret_fn = (void *)0x0bf7775c;
 736              		.loc 2 136 32 is_stmt 0 discriminator 3
 737 06fa EA55     		lw	a1,184(sp)
 738 06fc 93064764 		addi	a3,a4,1604
 739 0700 94C1     		sw	a3,0(a1)
 137:C:/Users/stapi/OneDrive/Desktop/GD32VW553/V1_MQTT_OK/GD32VW55X_Wifi_BLE_SDK/GD32VW55x_RELEASE_V1.0.2/MSDK/plf/src\init_rom_symbol.c ****         mbedtls_md5_starts_fn = (void *)0x0bf768e0;
 740              		.loc 2 137 9 is_stmt 1 discriminator 3
 137:C:/Users/stapi/OneDrive/Desktop/GD32VW553/V1_MQTT_OK/GD32VW55X_Wifi_BLE_SDK/GD32VW55x_RELEASE_V1.0.2/MSDK/plf/src\init_rom_symbol.c ****         mbedtls_md5_starts_fn = (void *)0x0bf768e0;
 741              		.loc 2 137 28 is_stmt 0 discriminator 3
 742 0702 FA55     		lw	a1,188(sp)
 743 0704 9306C775 		addi	a3,a4,1884
 744 0708 94C1     		sw	a3,0(a1)
 138:C:/Users/stapi/OneDrive/Desktop/GD32VW553/V1_MQTT_OK/GD32VW55X_Wifi_BLE_SDK/GD32VW55x_RELEASE_V1.0.2/MSDK/plf/src\init_rom_symbol.c ****         mbedtls_md5_starts_ret_fn = (void *)0x0bf768ac;
 745              		.loc 2 138 9 is_stmt 1 discriminator 3
 138:C:/Users/stapi/OneDrive/Desktop/GD32VW553/V1_MQTT_OK/GD32VW55X_Wifi_BLE_SDK/GD32VW55x_RELEASE_V1.0.2/MSDK/plf/src\init_rom_symbol.c ****         mbedtls_md5_starts_ret_fn = (void *)0x0bf768ac;
 746              		.loc 2 138 31 is_stmt 0 discriminator 3
 747 070a 8E45     		lw	a1,192(sp)
 748 070c 9306078E 		addi	a3,a4,-1824
 749 0710 94C1     		sw	a3,0(a1)
 139:C:/Users/stapi/OneDrive/Desktop/GD32VW553/V1_MQTT_OK/GD32VW55X_Wifi_BLE_SDK/GD32VW55x_RELEASE_V1.0.2/MSDK/plf/src\init_rom_symbol.c ****         mbedtls_md5_update_fn = (void *)0x0bf77652;
 750              		.loc 2 139 9 is_stmt 1 discriminator 3
 139:C:/Users/stapi/OneDrive/Desktop/GD32VW553/V1_MQTT_OK/GD32VW55X_Wifi_BLE_SDK/GD32VW55x_RELEASE_V1.0.2/MSDK/plf/src\init_rom_symbol.c ****         mbedtls_md5_update_fn = (void *)0x0bf77652;
 751              		.loc 2 139 35 is_stmt 0 discriminator 3
 752 0712 9E45     		lw	a1,196(sp)
 753 0714 9306C78A 		addi	a3,a4,-1876
 754 0718 94C1     		sw	a3,0(a1)
 140:C:/Users/stapi/OneDrive/Desktop/GD32VW553/V1_MQTT_OK/GD32VW55X_Wifi_BLE_SDK/GD32VW55x_RELEASE_V1.0.2/MSDK/plf/src\init_rom_symbol.c ****         mbedtls_md5_update_ret_fn = (void *)0x0bf77648;
 755              		.loc 2 140 9 is_stmt 1 discriminator 3
 140:C:/Users/stapi/OneDrive/Desktop/GD32VW553/V1_MQTT_OK/GD32VW55X_Wifi_BLE_SDK/GD32VW55x_RELEASE_V1.0.2/MSDK/plf/src\init_rom_symbol.c ****         mbedtls_md5_update_ret_fn = (void *)0x0bf77648;
 756              		.loc 2 140 31 is_stmt 0 discriminator 3
 757 071a AE45     		lw	a1,200(sp)
 758 071c 93062765 		addi	a3,a4,1618
 759 0720 94C1     		sw	a3,0(a1)
 141:C:/Users/stapi/OneDrive/Desktop/GD32VW553/V1_MQTT_OK/GD32VW55X_Wifi_BLE_SDK/GD32VW55x_RELEASE_V1.0.2/MSDK/plf/src\init_rom_symbol.c ****         mbedtls_mpi_div_int_fn = (void *)0x0bf6f20a;
 760              		.loc 2 141 9 is_stmt 1 discriminator 3
 141:C:/Users/stapi/OneDrive/Desktop/GD32VW553/V1_MQTT_OK/GD32VW55X_Wifi_BLE_SDK/GD32VW55x_RELEASE_V1.0.2/MSDK/plf/src\init_rom_symbol.c ****         mbedtls_mpi_div_int_fn = (void *)0x0bf6f20a;
 761              		.loc 2 141 35 is_stmt 0 discriminator 3
 762 0722 BE45     		lw	a1,204(sp)
 763 0724 93068764 		addi	a3,a4,1608
 764 0728 94C1     		sw	a3,0(a1)
 142:C:/Users/stapi/OneDrive/Desktop/GD32VW553/V1_MQTT_OK/GD32VW55X_Wifi_BLE_SDK/GD32VW55x_RELEASE_V1.0.2/MSDK/plf/src\init_rom_symbol.c ****         mbedtls_mpi_div_mpi_fn = (void *)0x0bf6ed1e;
 765              		.loc 2 142 9 is_stmt 1 discriminator 3
 142:C:/Users/stapi/OneDrive/Desktop/GD32VW553/V1_MQTT_OK/GD32VW55X_Wifi_BLE_SDK/GD32VW55x_RELEASE_V1.0.2/MSDK/plf/src\init_rom_symbol.c ****         mbedtls_mpi_div_mpi_fn = (void *)0x0bf6ed1e;
 766              		.loc 2 142 32 is_stmt 0 discriminator 3
 767 072a B7F6F60B 		li	a3,200732672
 768 072e 9385A620 		addi	a1,a3,522
 769 0732 0CC1     		sw	a1,0(a0)
 143:C:/Users/stapi/OneDrive/Desktop/GD32VW553/V1_MQTT_OK/GD32VW55X_Wifi_BLE_SDK/GD32VW55x_RELEASE_V1.0.2/MSDK/plf/src\init_rom_symbol.c ****         mbedtls_mpi_exp_mod_fn = (void *)0x0bf6fb5c;
 770              		.loc 2 143 9 is_stmt 1 discriminator 3
 143:C:/Users/stapi/OneDrive/Desktop/GD32VW553/V1_MQTT_OK/GD32VW55X_Wifi_BLE_SDK/GD32VW55x_RELEASE_V1.0.2/MSDK/plf/src\init_rom_symbol.c ****         mbedtls_mpi_exp_mod_fn = (void *)0x0bf6fb5c;
 771              		.loc 2 143 32 is_stmt 0 discriminator 3
 772 0734 5E45     		lw	a0,212(sp)
 773 0736 9385E6D1 		addi	a1,a3,-738
 774 073a 0CC1     		sw	a1,0(a0)
 775              		.loc 2 144 9 is_stmt 1 discriminator 3
 776              		.loc 2 144 32 is_stmt 0 discriminator 3
 777 073c B705F70B 		li	a1,200736768
 778 0740 1385C5B5 		addi	a0,a1,-1188
 779 0744 08C0     		sw	a0,0(s0)
 145:C:/Users/stapi/OneDrive/Desktop/GD32VW553/V1_MQTT_OK/GD32VW55X_Wifi_BLE_SDK/GD32VW55x_RELEASE_V1.0.2/MSDK/plf/src\init_rom_symbol.c ****         mbedtls_mpi_exp_mod_sw_fn = (void *)0x0bf6f54c;
 780              		.loc 2 145 9 is_stmt 1 discriminator 3
 781              		.loc 2 145 35 is_stmt 0 discriminator 3
 782 0746 7E44     		lw	s0,220(sp)
 783 0748 1385C654 		addi	a0,a3,1356
 784 074c 08C0     		sw	a0,0(s0)
 146:C:/Users/stapi/OneDrive/Desktop/GD32VW553/V1_MQTT_OK/GD32VW55X_Wifi_BLE_SDK/GD32VW55x_RELEASE_V1.0.2/MSDK/plf/src\init_rom_symbol.c ****         mbedtls_mpi_fill_random_fn = (void *)0x0bf6fee4;
 785              		.loc 2 146 9 is_stmt 1 discriminator 3
 786              		.loc 2 146 36 is_stmt 0 discriminator 3
 787 074e 0E54     		lw	s0,224(sp)
 788 0750 138545EE 		addi	a0,a1,-284
 789 0754 08C0     		sw	a0,0(s0)
 147:C:/Users/stapi/OneDrive/Desktop/GD32VW553/V1_MQTT_OK/GD32VW55X_Wifi_BLE_SDK/GD32VW55x_RELEASE_V1.0.2/MSDK/plf/src\init_rom_symbol.c ****         mbedtls_mpi_gcd_fn = (void *)0x0bf6fcec;
 790              		.loc 2 147 9 is_stmt 1 discriminator 3
 791              		.loc 2 147 28 is_stmt 0 discriminator 3
 792 0756 1E54     		lw	s0,228(sp)
 793 0758 1385C5CE 		addi	a0,a1,-788
 794 075c 08C0     		sw	a0,0(s0)
 148:C:/Users/stapi/OneDrive/Desktop/GD32VW553/V1_MQTT_OK/GD32VW55X_Wifi_BLE_SDK/GD32VW55x_RELEASE_V1.0.2/MSDK/plf/src\init_rom_symbol.c ****         mbedtls_mpi_gen_prime_fn = (void *)0x0bf705e2;
 795              		.loc 2 148 9 is_stmt 1 discriminator 3
 796              		.loc 2 148 34 is_stmt 0 discriminator 3
 797 075e 2E54     		lw	s0,232(sp)
 798 0760 1385255E 		addi	a0,a1,1506
 799 0764 08C0     		sw	a0,0(s0)
 149:C:/Users/stapi/OneDrive/Desktop/GD32VW553/V1_MQTT_OK/GD32VW55X_Wifi_BLE_SDK/GD32VW55x_RELEASE_V1.0.2/MSDK/plf/src\init_rom_symbol.c ****         mbedtls_mpi_inv_mod_fn = (void *)0x0bf70212;
 800              		.loc 2 149 9 is_stmt 1 discriminator 3
 801              		.loc 2 149 32 is_stmt 0 discriminator 3
 802 0766 3E54     		lw	s0,236(sp)
 803 0768 13852521 		addi	a0,a1,530
 804 076c 08C0     		sw	a0,0(s0)
 150:C:/Users/stapi/OneDrive/Desktop/GD32VW553/V1_MQTT_OK/GD32VW55X_Wifi_BLE_SDK/GD32VW55x_RELEASE_V1.0.2/MSDK/plf/src\init_rom_symbol.c ****         mbedtls_mpi_is_prime_fn = (void *)0x0bf705d6;
 805              		.loc 2 150 9 is_stmt 1 discriminator 3
 806              		.loc 2 150 33 is_stmt 0 discriminator 3
 807 076e 4E54     		lw	s0,240(sp)
 808 0770 1385655D 		addi	a0,a1,1494
 151:C:/Users/stapi/OneDrive/Desktop/GD32VW553/V1_MQTT_OK/GD32VW55X_Wifi_BLE_SDK/GD32VW55x_RELEASE_V1.0.2/MSDK/plf/src\init_rom_symbol.c ****         mbedtls_mpi_is_prime_ext_fn = (void *)0x0bf70534;
 809              		.loc 2 151 37 discriminator 3
 810 0774 93854553 		addi	a1,a1,1332
 150:C:/Users/stapi/OneDrive/Desktop/GD32VW553/V1_MQTT_OK/GD32VW55X_Wifi_BLE_SDK/GD32VW55x_RELEASE_V1.0.2/MSDK/plf/src\init_rom_symbol.c ****         mbedtls_mpi_is_prime_fn = (void *)0x0bf705d6;
 811              		.loc 2 150 33 discriminator 3
 812 0778 08C0     		sw	a0,0(s0)
 813              		.loc 2 151 9 is_stmt 1 discriminator 3
 814              		.loc 2 151 37 is_stmt 0 discriminator 3
 815 077a 5E55     		lw	a0,244(sp)
 816 077c 0CC1     		sw	a1,0(a0)
 152:C:/Users/stapi/OneDrive/Desktop/GD32VW553/V1_MQTT_OK/GD32VW55X_Wifi_BLE_SDK/GD32VW55x_RELEASE_V1.0.2/MSDK/plf/src\init_rom_symbol.c ****         mbedtls_mpi_mod_int_fn = (void *)0x0bf6f2d0;
 817              		.loc 2 152 9 is_stmt 1 discriminator 3
 818              		.loc 2 152 32 is_stmt 0 discriminator 3
 819 077e 6E55     		lw	a0,248(sp)
 820 0780 9385062D 		addi	a1,a3,720
 821 0784 0CC1     		sw	a1,0(a0)
 153:C:/Users/stapi/OneDrive/Desktop/GD32VW553/V1_MQTT_OK/GD32VW55X_Wifi_BLE_SDK/GD32VW55x_RELEASE_V1.0.2/MSDK/plf/src\init_rom_symbol.c ****         mbedtls_mpi_mod_mpi_fn = (void *)0x0bf6f234;
 822              		.loc 2 153 9 is_stmt 1 discriminator 3
 823              		.loc 2 153 32 is_stmt 0 discriminator 3
 824 0786 7E55     		lw	a0,252(sp)
 825 0788 93854623 		addi	a1,a3,564
 826 078c 0CC1     		sw	a1,0(a0)
 154:C:/Users/stapi/OneDrive/Desktop/GD32VW553/V1_MQTT_OK/GD32VW55X_Wifi_BLE_SDK/GD32VW55x_RELEASE_V1.0.2/MSDK/plf/src\init_rom_symbol.c ****         mbedtls_mpi_mul_int_fn = (void *)0x0bf6ed04;
 827              		.loc 2 154 9 is_stmt 1 discriminator 3
 828              		.loc 2 154 32 is_stmt 0 discriminator 3
 829 078e 03250110 		lw	a0,256(sp)
 830 0792 938546D0 		addi	a1,a3,-764
 831 0796 0CC1     		sw	a1,0(a0)
 155:C:/Users/stapi/OneDrive/Desktop/GD32VW553/V1_MQTT_OK/GD32VW55X_Wifi_BLE_SDK/GD32VW55x_RELEASE_V1.0.2/MSDK/plf/src\init_rom_symbol.c ****         mbedtls_mpi_mul_mpi_fn = (void *)0x0bf6ead6;
 832              		.loc 2 155 9 is_stmt 1 discriminator 3
 833              		.loc 2 155 32 is_stmt 0 discriminator 3
 834 0798 03254110 		lw	a0,260(sp)
 835 079c 938566AD 		addi	a1,a3,-1322
 836 07a0 0CC1     		sw	a1,0(a0)
 156:C:/Users/stapi/OneDrive/Desktop/GD32VW553/V1_MQTT_OK/GD32VW55X_Wifi_BLE_SDK/GD32VW55x_RELEASE_V1.0.2/MSDK/plf/src\init_rom_symbol.c ****         mbedtls_mpi_read_string_fn = (void *)0x0bf6eaec;
 837              		.loc 2 156 9 is_stmt 1 discriminator 3
 838              		.loc 2 156 36 is_stmt 0 discriminator 3
 839 07a2 03258110 		lw	a0,264(sp)
 840 07a6 9385C6AE 		addi	a1,a3,-1300
 157:C:/Users/stapi/OneDrive/Desktop/GD32VW553/V1_MQTT_OK/GD32VW55X_Wifi_BLE_SDK/GD32VW55x_RELEASE_V1.0.2/MSDK/plf/src\init_rom_symbol.c ****         mbedtls_mpi_write_string_fn = (void *)0x0bf6f304;
 841              		.loc 2 157 37 discriminator 3
 842 07aa 93864630 		addi	a3,a3,772
 156:C:/Users/stapi/OneDrive/Desktop/GD32VW553/V1_MQTT_OK/GD32VW55X_Wifi_BLE_SDK/GD32VW55x_RELEASE_V1.0.2/MSDK/plf/src\init_rom_symbol.c ****         mbedtls_mpi_read_string_fn = (void *)0x0bf6eaec;
 843              		.loc 2 156 36 discriminator 3
 844 07ae 0CC1     		sw	a1,0(a0)
 845              		.loc 2 157 9 is_stmt 1 discriminator 3
 846              		.loc 2 157 37 is_stmt 0 discriminator 3
 847 07b0 8325C110 		lw	a1,268(sp)
 158:C:/Users/stapi/OneDrive/Desktop/GD32VW553/V1_MQTT_OK/GD32VW55X_Wifi_BLE_SDK/GD32VW55x_RELEASE_V1.0.2/MSDK/plf/src\init_rom_symbol.c ****         mbedtls_rsa_check_privkey_fn = (void *)0x0bf74972;
 848              		.loc 2 158 38 discriminator 3
 849 07b4 03250111 		lw	a0,272(sp)
 157:C:/Users/stapi/OneDrive/Desktop/GD32VW553/V1_MQTT_OK/GD32VW55X_Wifi_BLE_SDK/GD32VW55x_RELEASE_V1.0.2/MSDK/plf/src\init_rom_symbol.c ****         mbedtls_mpi_write_string_fn = (void *)0x0bf6f304;
 850              		.loc 2 157 37 discriminator 3
 851 07b8 94C1     		sw	a3,0(a1)
 852              		.loc 2 158 9 is_stmt 1 discriminator 3
 853              		.loc 2 158 38 is_stmt 0 discriminator 3
 854 07ba B756F70B 		li	a3,200757248
 855 07be 93852697 		addi	a1,a3,-1678
 856 07c2 0CC1     		sw	a1,0(a0)
 159:C:/Users/stapi/OneDrive/Desktop/GD32VW553/V1_MQTT_OK/GD32VW55X_Wifi_BLE_SDK/GD32VW55x_RELEASE_V1.0.2/MSDK/plf/src\init_rom_symbol.c ****         mbedtls_rsa_check_pub_priv_fn = (void *)0x0bf74c08;
 857              		.loc 2 159 9 is_stmt 1 discriminator 3
 858              		.loc 2 159 39 is_stmt 0 discriminator 3
 859 07c4 03254111 		lw	a0,276(sp)
 860 07c8 938586C0 		addi	a1,a3,-1016
 861 07cc 0CC1     		sw	a1,0(a0)
 160:C:/Users/stapi/OneDrive/Desktop/GD32VW553/V1_MQTT_OK/GD32VW55X_Wifi_BLE_SDK/GD32VW55x_RELEASE_V1.0.2/MSDK/plf/src\init_rom_symbol.c ****         mbedtls_rsa_check_pubkey_fn = (void *)0x0bf74910;
 862              		.loc 2 160 9 is_stmt 1 discriminator 3
 863              		.loc 2 160 37 is_stmt 0 discriminator 3
 864 07ce 03258111 		lw	a0,280(sp)
 865 07d2 93850691 		addi	a1,a3,-1776
 866 07d6 0CC1     		sw	a1,0(a0)
 161:C:/Users/stapi/OneDrive/Desktop/GD32VW553/V1_MQTT_OK/GD32VW55X_Wifi_BLE_SDK/GD32VW55x_RELEASE_V1.0.2/MSDK/plf/src\init_rom_symbol.c ****         mbedtls_rsa_complete_fn = (void *)0x0bf74490;
 867              		.loc 2 161 9 is_stmt 1 discriminator 3
 868              		.loc 2 161 33 is_stmt 0 discriminator 3
 869 07d8 0325C111 		lw	a0,284(sp)
 870 07dc 93050649 		addi	a1,a2,1168
 871 07e0 0CC1     		sw	a1,0(a0)
 162:C:/Users/stapi/OneDrive/Desktop/GD32VW553/V1_MQTT_OK/GD32VW55X_Wifi_BLE_SDK/GD32VW55x_RELEASE_V1.0.2/MSDK/plf/src\init_rom_symbol.c ****         mbedtls_rsa_copy_fn = (void *)0x0bf76132;
 872              		.loc 2 162 9 is_stmt 1 discriminator 3
 873              		.loc 2 162 29 is_stmt 0 discriminator 3
 874 07e2 03250112 		lw	a0,288(sp)
 875 07e6 93852713 		addi	a1,a5,306
 876 07ea 0CC1     		sw	a1,0(a0)
 163:C:/Users/stapi/OneDrive/Desktop/GD32VW553/V1_MQTT_OK/GD32VW55X_Wifi_BLE_SDK/GD32VW55x_RELEASE_V1.0.2/MSDK/plf/src\init_rom_symbol.c ****         mbedtls_rsa_export_fn = (void *)0x0bf74728;
 877              		.loc 2 163 9 is_stmt 1 discriminator 3
 878              		.loc 2 163 31 is_stmt 0 discriminator 3
 879 07ec 03254112 		lw	a0,292(sp)
 880 07f0 93058672 		addi	a1,a2,1832
 881 07f4 0CC1     		sw	a1,0(a0)
 164:C:/Users/stapi/OneDrive/Desktop/GD32VW553/V1_MQTT_OK/GD32VW55X_Wifi_BLE_SDK/GD32VW55x_RELEASE_V1.0.2/MSDK/plf/src\init_rom_symbol.c ****         mbedtls_rsa_export_crt_fn = (void *)0x0bf7482a;
 882              		.loc 2 164 9 is_stmt 1 discriminator 3
 883              		.loc 2 164 35 is_stmt 0 discriminator 3
 884 07f6 03258112 		lw	a0,296(sp)
 885 07fa 9385A682 		addi	a1,a3,-2006
 886 07fe 0CC1     		sw	a1,0(a0)
 165:C:/Users/stapi/OneDrive/Desktop/GD32VW553/V1_MQTT_OK/GD32VW55X_Wifi_BLE_SDK/GD32VW55x_RELEASE_V1.0.2/MSDK/plf/src\init_rom_symbol.c ****         mbedtls_rsa_export_raw_fn = (void *)0x0bf745f0;
 887              		.loc 2 165 9 is_stmt 1 discriminator 3
 888              		.loc 2 165 35 is_stmt 0 discriminator 3
 889 0800 0325C112 		lw	a0,300(sp)
 890 0804 9305065F 		addi	a1,a2,1520
 891 0808 0CC1     		sw	a1,0(a0)
 166:C:/Users/stapi/OneDrive/Desktop/GD32VW553/V1_MQTT_OK/GD32VW55X_Wifi_BLE_SDK/GD32VW55x_RELEASE_V1.0.2/MSDK/plf/src\init_rom_symbol.c ****         mbedtls_rsa_free_fn = (void *)0x0bf7623c;
 892              		.loc 2 166 9 is_stmt 1 discriminator 3
 893              		.loc 2 166 29 is_stmt 0 discriminator 3
 894 080a 03250113 		lw	a0,304(sp)
 895 080e 9385C723 		addi	a1,a5,572
 896 0812 0CC1     		sw	a1,0(a0)
 167:C:/Users/stapi/OneDrive/Desktop/GD32VW553/V1_MQTT_OK/GD32VW55X_Wifi_BLE_SDK/GD32VW55x_RELEASE_V1.0.2/MSDK/plf/src\init_rom_symbol.c ****         mbedtls_rsa_gen_key_fn = (void *)0x0bf749e2;
 897              		.loc 2 167 9 is_stmt 1 discriminator 3
 898              		.loc 2 167 32 is_stmt 0 discriminator 3
 899 0814 03254113 		lw	a0,308(sp)
 900 0818 9385269E 		addi	a1,a3,-1566
 901 081c 0CC1     		sw	a1,0(a0)
 168:C:/Users/stapi/OneDrive/Desktop/GD32VW553/V1_MQTT_OK/GD32VW55X_Wifi_BLE_SDK/GD32VW55x_RELEASE_V1.0.2/MSDK/plf/src\init_rom_symbol.c ****         mbedtls_rsa_get_len_fn = (void *)0x0bf7490c;
 902              		.loc 2 168 9 is_stmt 1 discriminator 3
 903              		.loc 2 168 32 is_stmt 0 discriminator 3
 904 081e 03258113 		lw	a0,312(sp)
 905 0822 9385C690 		addi	a1,a3,-1780
 906 0826 0CC1     		sw	a1,0(a0)
 169:C:/Users/stapi/OneDrive/Desktop/GD32VW553/V1_MQTT_OK/GD32VW55X_Wifi_BLE_SDK/GD32VW55x_RELEASE_V1.0.2/MSDK/plf/src\init_rom_symbol.c ****         mbedtls_rsa_import_fn = (void *)0x0bf74364;
 907              		.loc 2 169 9 is_stmt 1 discriminator 3
 908              		.loc 2 169 31 is_stmt 0 discriminator 3
 909 0828 0325C113 		lw	a0,316(sp)
 910 082c 93054636 		addi	a1,a2,868
 170:C:/Users/stapi/OneDrive/Desktop/GD32VW553/V1_MQTT_OK/GD32VW55X_Wifi_BLE_SDK/GD32VW55x_RELEASE_V1.0.2/MSDK/plf/src\init_rom_symbol.c ****         mbedtls_rsa_import_raw_fn = (void *)0x0bf743f6;
 911              		.loc 2 170 35 discriminator 3
 912 0830 1306663F 		addi	a2,a2,1014
 169:C:/Users/stapi/OneDrive/Desktop/GD32VW553/V1_MQTT_OK/GD32VW55X_Wifi_BLE_SDK/GD32VW55x_RELEASE_V1.0.2/MSDK/plf/src\init_rom_symbol.c ****         mbedtls_rsa_import_fn = (void *)0x0bf74364;
 913              		.loc 2 169 31 discriminator 3
 914 0834 0CC1     		sw	a1,0(a0)
 915              		.loc 2 170 9 is_stmt 1 discriminator 3
 916              		.loc 2 170 35 is_stmt 0 discriminator 3
 917 0836 83250114 		lw	a1,320(sp)
 918 083a 90C1     		sw	a2,0(a1)
 171:C:/Users/stapi/OneDrive/Desktop/GD32VW553/V1_MQTT_OK/GD32VW55X_Wifi_BLE_SDK/GD32VW55x_RELEASE_V1.0.2/MSDK/plf/src\init_rom_symbol.c ****         mbedtls_rsa_init_fn = (void *)0x0bf748d4;
 919              		.loc 2 171 9 is_stmt 1 discriminator 3
 920              		.loc 2 171 29 is_stmt 0 discriminator 3
 921 083c 83254114 		lw	a1,324(sp)
 922 0840 1386468D 		addi	a2,a3,-1836
 923 0844 90C1     		sw	a2,0(a1)
 172:C:/Users/stapi/OneDrive/Desktop/GD32VW553/V1_MQTT_OK/GD32VW55X_Wifi_BLE_SDK/GD32VW55x_RELEASE_V1.0.2/MSDK/plf/src\init_rom_symbol.c ****         mbedtls_rsa_pkcs1_decrypt_fn = (void *)0x0bf75a32;
 924              		.loc 2 172 9 is_stmt 1 discriminator 3
 925              		.loc 2 172 38 is_stmt 0 discriminator 3
 926 0846 83258114 		lw	a1,328(sp)
 927 084a 138627A3 		addi	a2,a5,-1486
 928 084e 90C1     		sw	a2,0(a1)
 173:C:/Users/stapi/OneDrive/Desktop/GD32VW553/V1_MQTT_OK/GD32VW55X_Wifi_BLE_SDK/GD32VW55x_RELEASE_V1.0.2/MSDK/plf/src\init_rom_symbol.c ****         mbedtls_rsa_pkcs1_encrypt_fn = (void *)0x0bf75574;
 929              		.loc 2 173 9 is_stmt 1 discriminator 3
 930              		.loc 2 173 38 is_stmt 0 discriminator 3
 931 0850 8325C114 		lw	a1,332(sp)
 932 0854 13864657 		addi	a2,a3,1396
 933 0858 90C1     		sw	a2,0(a1)
 174:C:/Users/stapi/OneDrive/Desktop/GD32VW553/V1_MQTT_OK/GD32VW55X_Wifi_BLE_SDK/GD32VW55x_RELEASE_V1.0.2/MSDK/plf/src\init_rom_symbol.c ****         mbedtls_rsa_pkcs1_sign_fn = (void *)0x0bf75d64;
 934              		.loc 2 174 9 is_stmt 1 discriminator 3
 935              		.loc 2 174 35 is_stmt 0 discriminator 3
 936 085a 83250115 		lw	a1,336(sp)
 937 085e 138647D6 		addi	a2,a5,-668
 938 0862 90C1     		sw	a2,0(a1)
 175:C:/Users/stapi/OneDrive/Desktop/GD32VW553/V1_MQTT_OK/GD32VW55X_Wifi_BLE_SDK/GD32VW55x_RELEASE_V1.0.2/MSDK/plf/src\init_rom_symbol.c ****         mbedtls_rsa_pkcs1_verify_fn = (void *)0x0bf760d4;
 939              		.loc 2 175 9 is_stmt 1 discriminator 3
 940              		.loc 2 175 37 is_stmt 0 discriminator 3
 941 0864 83254115 		lw	a1,340(sp)
 942 0868 1386470D 		addi	a2,a5,212
 943 086c 90C1     		sw	a2,0(a1)
 176:C:/Users/stapi/OneDrive/Desktop/GD32VW553/V1_MQTT_OK/GD32VW55X_Wifi_BLE_SDK/GD32VW55x_RELEASE_V1.0.2/MSDK/plf/src\init_rom_symbol.c ****         mbedtls_rsa_private_fn = (void *)0x0bf752ce;
 944              		.loc 2 176 9 is_stmt 1 discriminator 3
 945              		.loc 2 176 32 is_stmt 0 discriminator 3
 946 086e 83258115 		lw	a1,344(sp)
 947 0872 1386E62C 		addi	a2,a3,718
 948 0876 90C1     		sw	a2,0(a1)
 177:C:/Users/stapi/OneDrive/Desktop/GD32VW553/V1_MQTT_OK/GD32VW55X_Wifi_BLE_SDK/GD32VW55x_RELEASE_V1.0.2/MSDK/plf/src\init_rom_symbol.c ****         mbedtls_rsa_private_sw_fn = (void *)0x0bf74da8;
 949              		.loc 2 177 9 is_stmt 1 discriminator 3
 950              		.loc 2 177 35 is_stmt 0 discriminator 3
 951 0878 8325C115 		lw	a1,348(sp)
 952 087c 138686DA 		addi	a2,a3,-600
 953 0880 90C1     		sw	a2,0(a1)
 178:C:/Users/stapi/OneDrive/Desktop/GD32VW553/V1_MQTT_OK/GD32VW55X_Wifi_BLE_SDK/GD32VW55x_RELEASE_V1.0.2/MSDK/plf/src\init_rom_symbol.c ****         mbedtls_rsa_public_fn = (void *)0x0bf74c50;
 954              		.loc 2 178 9 is_stmt 1 discriminator 3
 955              		.loc 2 178 31 is_stmt 0 discriminator 3
 956 0882 83250116 		lw	a1,352(sp)
 957 0886 138606C5 		addi	a2,a3,-944
 958 088a 90C1     		sw	a2,0(a1)
 179:C:/Users/stapi/OneDrive/Desktop/GD32VW553/V1_MQTT_OK/GD32VW55X_Wifi_BLE_SDK/GD32VW55x_RELEASE_V1.0.2/MSDK/plf/src\init_rom_symbol.c ****         mbedtls_rsa_rsaes_oaep_decrypt_fn = (void *)0x0bf755a8;
 959              		.loc 2 179 9 is_stmt 1 discriminator 3
 960              		.loc 2 179 43 is_stmt 0 discriminator 3
 961 088c 83254116 		lw	a1,356(sp)
 962 0890 1386865A 		addi	a2,a3,1448
 963 0894 90C1     		sw	a2,0(a1)
 180:C:/Users/stapi/OneDrive/Desktop/GD32VW553/V1_MQTT_OK/GD32VW55X_Wifi_BLE_SDK/GD32VW55x_RELEASE_V1.0.2/MSDK/plf/src\init_rom_symbol.c ****         mbedtls_rsa_rsaes_oaep_encrypt_fn = (void *)0x0bf752e2;
 964              		.loc 2 180 9 is_stmt 1 discriminator 3
 965              		.loc 2 180 43 is_stmt 0 discriminator 3
 966 0896 83258116 		lw	a1,360(sp)
 967 089a 1386262E 		addi	a2,a3,738
 968 089e 90C1     		sw	a2,0(a1)
 181:C:/Users/stapi/OneDrive/Desktop/GD32VW553/V1_MQTT_OK/GD32VW55X_Wifi_BLE_SDK/GD32VW55x_RELEASE_V1.0.2/MSDK/plf/src\init_rom_symbol.c ****         mbedtls_rsa_rsaes_pkcs1_v15_decrypt_fn = (void *)0x0bf757da;
 969              		.loc 2 181 9 is_stmt 1 discriminator 3
 970              		.loc 2 181 48 is_stmt 0 discriminator 3
 971 08a0 8325C116 		lw	a1,364(sp)
 972 08a4 1386A67D 		addi	a2,a3,2010
 973 08a8 90C1     		sw	a2,0(a1)
 182:C:/Users/stapi/OneDrive/Desktop/GD32VW553/V1_MQTT_OK/GD32VW55X_Wifi_BLE_SDK/GD32VW55x_RELEASE_V1.0.2/MSDK/plf/src\init_rom_symbol.c ****         mbedtls_rsa_rsaes_pkcs1_v15_encrypt_fn = (void *)0x0bf75448;
 974              		.loc 2 182 9 is_stmt 1 discriminator 3
 975              		.loc 2 182 48 is_stmt 0 discriminator 3
 976 08aa 83250117 		lw	a1,368(sp)
 977 08ae 13868644 		addi	a2,a3,1096
 183:C:/Users/stapi/OneDrive/Desktop/GD32VW553/V1_MQTT_OK/GD32VW55X_Wifi_BLE_SDK/GD32VW55x_RELEASE_V1.0.2/MSDK/plf/src\init_rom_symbol.c ****         mbedtls_rsa_rsassa_pkcs1_v15_sign_fn = (void *)0x0bf75c56;
 184:C:/Users/stapi/OneDrive/Desktop/GD32VW553/V1_MQTT_OK/GD32VW55X_Wifi_BLE_SDK/GD32VW55x_RELEASE_V1.0.2/MSDK/plf/src\init_rom_symbol.c ****         mbedtls_rsa_rsassa_pkcs1_v15_verify_fn = (void *)0x0bf75fca;
 185:C:/Users/stapi/OneDrive/Desktop/GD32VW553/V1_MQTT_OK/GD32VW55X_Wifi_BLE_SDK/GD32VW55x_RELEASE_V1.0.2/MSDK/plf/src\init_rom_symbol.c ****         mbedtls_rsa_rsassa_pss_sign_fn = (void *)0x0bf75a6c;
 186:C:/Users/stapi/OneDrive/Desktop/GD32VW553/V1_MQTT_OK/GD32VW55X_Wifi_BLE_SDK/GD32VW55x_RELEASE_V1.0.2/MSDK/plf/src\init_rom_symbol.c ****         mbedtls_rsa_rsassa_pss_verify_fn = (void *)0x0bf75faa;
 187:C:/Users/stapi/OneDrive/Desktop/GD32VW553/V1_MQTT_OK/GD32VW55X_Wifi_BLE_SDK/GD32VW55x_RELEASE_V1.0.2/MSDK/plf/src\init_rom_symbol.c ****         mbedtls_rsa_rsassa_pss_verify_ext_fn = (void *)0x0bf75d82;
 188:C:/Users/stapi/OneDrive/Desktop/GD32VW553/V1_MQTT_OK/GD32VW55X_Wifi_BLE_SDK/GD32VW55x_RELEASE_V1.0.2/MSDK/plf/src\init_rom_symbol.c ****         mbedtls_rsa_set_padding_fn = (void *)0x0bf74902;
 978              		.loc 2 188 36 discriminator 3
 979 08b2 93862690 		addi	a3,a3,-1790
 182:C:/Users/stapi/OneDrive/Desktop/GD32VW553/V1_MQTT_OK/GD32VW55X_Wifi_BLE_SDK/GD32VW55x_RELEASE_V1.0.2/MSDK/plf/src\init_rom_symbol.c ****         mbedtls_rsa_rsaes_pkcs1_v15_encrypt_fn = (void *)0x0bf75448;
 980              		.loc 2 182 48 discriminator 3
 981 08b6 90C1     		sw	a2,0(a1)
 183:C:/Users/stapi/OneDrive/Desktop/GD32VW553/V1_MQTT_OK/GD32VW55X_Wifi_BLE_SDK/GD32VW55x_RELEASE_V1.0.2/MSDK/plf/src\init_rom_symbol.c ****         mbedtls_rsa_rsassa_pkcs1_v15_sign_fn = (void *)0x0bf75c56;
 982              		.loc 2 183 9 is_stmt 1 discriminator 3
 183:C:/Users/stapi/OneDrive/Desktop/GD32VW553/V1_MQTT_OK/GD32VW55X_Wifi_BLE_SDK/GD32VW55x_RELEASE_V1.0.2/MSDK/plf/src\init_rom_symbol.c ****         mbedtls_rsa_rsassa_pkcs1_v15_sign_fn = (void *)0x0bf75c56;
 983              		.loc 2 183 46 is_stmt 0 discriminator 3
 984 08b8 83254117 		lw	a1,372(sp)
 985 08bc 138667C5 		addi	a2,a5,-938
 986 08c0 90C1     		sw	a2,0(a1)
 184:C:/Users/stapi/OneDrive/Desktop/GD32VW553/V1_MQTT_OK/GD32VW55X_Wifi_BLE_SDK/GD32VW55x_RELEASE_V1.0.2/MSDK/plf/src\init_rom_symbol.c ****         mbedtls_rsa_rsassa_pss_sign_fn = (void *)0x0bf75a6c;
 987              		.loc 2 184 9 is_stmt 1 discriminator 3
 184:C:/Users/stapi/OneDrive/Desktop/GD32VW553/V1_MQTT_OK/GD32VW55X_Wifi_BLE_SDK/GD32VW55x_RELEASE_V1.0.2/MSDK/plf/src\init_rom_symbol.c ****         mbedtls_rsa_rsassa_pss_sign_fn = (void *)0x0bf75a6c;
 988              		.loc 2 184 48 is_stmt 0 discriminator 3
 989 08c2 83258117 		lw	a1,376(sp)
 990 08c6 1386A7FC 		addi	a2,a5,-54
 991 08ca 90C1     		sw	a2,0(a1)
 185:C:/Users/stapi/OneDrive/Desktop/GD32VW553/V1_MQTT_OK/GD32VW55X_Wifi_BLE_SDK/GD32VW55x_RELEASE_V1.0.2/MSDK/plf/src\init_rom_symbol.c ****         mbedtls_rsa_rsassa_pss_verify_fn = (void *)0x0bf75faa;
 992              		.loc 2 185 9 is_stmt 1 discriminator 3
 185:C:/Users/stapi/OneDrive/Desktop/GD32VW553/V1_MQTT_OK/GD32VW55X_Wifi_BLE_SDK/GD32VW55x_RELEASE_V1.0.2/MSDK/plf/src\init_rom_symbol.c ****         mbedtls_rsa_rsassa_pss_verify_fn = (void *)0x0bf75faa;
 993              		.loc 2 185 40 is_stmt 0 discriminator 3
 994 08cc 8325C117 		lw	a1,380(sp)
 995 08d0 1386C7A6 		addi	a2,a5,-1428
 996 08d4 90C1     		sw	a2,0(a1)
 186:C:/Users/stapi/OneDrive/Desktop/GD32VW553/V1_MQTT_OK/GD32VW55X_Wifi_BLE_SDK/GD32VW55x_RELEASE_V1.0.2/MSDK/plf/src\init_rom_symbol.c ****         mbedtls_rsa_rsassa_pss_verify_ext_fn = (void *)0x0bf75d82;
 997              		.loc 2 186 9 is_stmt 1 discriminator 3
 186:C:/Users/stapi/OneDrive/Desktop/GD32VW553/V1_MQTT_OK/GD32VW55X_Wifi_BLE_SDK/GD32VW55x_RELEASE_V1.0.2/MSDK/plf/src\init_rom_symbol.c ****         mbedtls_rsa_rsassa_pss_verify_ext_fn = (void *)0x0bf75d82;
 998              		.loc 2 186 42 is_stmt 0 discriminator 3
 999 08d6 83250118 		lw	a1,384(sp)
 1000 08da 1386A7FA 		addi	a2,a5,-86
 1001 08de 90C1     		sw	a2,0(a1)
 187:C:/Users/stapi/OneDrive/Desktop/GD32VW553/V1_MQTT_OK/GD32VW55X_Wifi_BLE_SDK/GD32VW55x_RELEASE_V1.0.2/MSDK/plf/src\init_rom_symbol.c ****         mbedtls_rsa_set_padding_fn = (void *)0x0bf74902;
 1002              		.loc 2 187 9 is_stmt 1 discriminator 3
 187:C:/Users/stapi/OneDrive/Desktop/GD32VW553/V1_MQTT_OK/GD32VW55X_Wifi_BLE_SDK/GD32VW55x_RELEASE_V1.0.2/MSDK/plf/src\init_rom_symbol.c ****         mbedtls_rsa_set_padding_fn = (void *)0x0bf74902;
 1003              		.loc 2 187 46 is_stmt 0 discriminator 3
 1004 08e0 83254118 		lw	a1,388(sp)
 1005 08e4 138627D8 		addi	a2,a5,-638
 1006 08e8 90C1     		sw	a2,0(a1)
 1007              		.loc 2 188 9 is_stmt 1 discriminator 3
 1008              		.loc 2 188 36 is_stmt 0 discriminator 3
 1009 08ea 03268118 		lw	a2,392(sp)
 1010 08ee 14C2     		sw	a3,0(a2)
 189:C:/Users/stapi/OneDrive/Desktop/GD32VW553/V1_MQTT_OK/GD32VW55X_Wifi_BLE_SDK/GD32VW55x_RELEASE_V1.0.2/MSDK/plf/src\init_rom_symbol.c ****         mbedtls_sha256_clone_fn = (void *)0x0bf767b0;
 1011              		.loc 2 189 9 is_stmt 1 discriminator 3
 1012              		.loc 2 189 33 is_stmt 0 discriminator 3
 1013 08f0 0326C118 		lw	a2,396(sp)
 1014 08f4 9386077B 		addi	a3,a5,1968
 1015 08f8 14C2     		sw	a3,0(a2)
 190:C:/Users/stapi/OneDrive/Desktop/GD32VW553/V1_MQTT_OK/GD32VW55X_Wifi_BLE_SDK/GD32VW55x_RELEASE_V1.0.2/MSDK/plf/src\init_rom_symbol.c ****         mbedtls_sha256_finish_fn = (void *)0x0bf7686a;
 1016              		.loc 2 190 9 is_stmt 1 discriminator 3
 1017              		.loc 2 190 34 is_stmt 0 discriminator 3
 1018 08fa 03260119 		lw	a2,400(sp)
 1019 08fe 9306A786 		addi	a3,a4,-1942
 1020 0902 14C2     		sw	a3,0(a2)
 191:C:/Users/stapi/OneDrive/Desktop/GD32VW553/V1_MQTT_OK/GD32VW55X_Wifi_BLE_SDK/GD32VW55x_RELEASE_V1.0.2/MSDK/plf/src\init_rom_symbol.c ****         mbedtls_sha256_finish_ret_fn = (void *)0x0bf76842;
 1021              		.loc 2 191 9 is_stmt 1 discriminator 3
 1022              		.loc 2 191 38 is_stmt 0 discriminator 3
 1023 0904 03264119 		lw	a2,404(sp)
 1024 0908 93062784 		addi	a3,a4,-1982
 192:C:/Users/stapi/OneDrive/Desktop/GD32VW553/V1_MQTT_OK/GD32VW55X_Wifi_BLE_SDK/GD32VW55x_RELEASE_V1.0.2/MSDK/plf/src\init_rom_symbol.c ****         mbedtls_sha256_free_fn = (void *)0x0bf7679e;
 193:C:/Users/stapi/OneDrive/Desktop/GD32VW553/V1_MQTT_OK/GD32VW55X_Wifi_BLE_SDK/GD32VW55x_RELEASE_V1.0.2/MSDK/plf/src\init_rom_symbol.c ****         mbedtls_sha256_init_fn = (void *)0x0bf7679a;
 194:C:/Users/stapi/OneDrive/Desktop/GD32VW553/V1_MQTT_OK/GD32VW55X_Wifi_BLE_SDK/GD32VW55x_RELEASE_V1.0.2/MSDK/plf/src\init_rom_symbol.c ****         mbedtls_sha256_starts_fn = (void *)0x0bf767e2;
 195:C:/Users/stapi/OneDrive/Desktop/GD32VW553/V1_MQTT_OK/GD32VW55X_Wifi_BLE_SDK/GD32VW55x_RELEASE_V1.0.2/MSDK/plf/src\init_rom_symbol.c ****         mbedtls_sha256_starts_ret_fn = (void *)0x0bf767b8;
 196:C:/Users/stapi/OneDrive/Desktop/GD32VW553/V1_MQTT_OK/GD32VW55X_Wifi_BLE_SDK/GD32VW55x_RELEASE_V1.0.2/MSDK/plf/src\init_rom_symbol.c ****         mbedtls_sha256_update_fn = (void *)0x0bf76816;
 1025              		.loc 2 196 34 discriminator 3
 1026 090c 13076781 		addi	a4,a4,-2026
 191:C:/Users/stapi/OneDrive/Desktop/GD32VW553/V1_MQTT_OK/GD32VW55X_Wifi_BLE_SDK/GD32VW55x_RELEASE_V1.0.2/MSDK/plf/src\init_rom_symbol.c ****         mbedtls_sha256_finish_ret_fn = (void *)0x0bf76842;
 1027              		.loc 2 191 38 discriminator 3
 1028 0910 14C2     		sw	a3,0(a2)
 192:C:/Users/stapi/OneDrive/Desktop/GD32VW553/V1_MQTT_OK/GD32VW55X_Wifi_BLE_SDK/GD32VW55x_RELEASE_V1.0.2/MSDK/plf/src\init_rom_symbol.c ****         mbedtls_sha256_free_fn = (void *)0x0bf7679e;
 1029              		.loc 2 192 9 is_stmt 1 discriminator 3
 192:C:/Users/stapi/OneDrive/Desktop/GD32VW553/V1_MQTT_OK/GD32VW55X_Wifi_BLE_SDK/GD32VW55x_RELEASE_V1.0.2/MSDK/plf/src\init_rom_symbol.c ****         mbedtls_sha256_free_fn = (void *)0x0bf7679e;
 1030              		.loc 2 192 32 is_stmt 0 discriminator 3
 1031 0912 03268119 		lw	a2,408(sp)
 1032 0916 9386E779 		addi	a3,a5,1950
 1033 091a 14C2     		sw	a3,0(a2)
 193:C:/Users/stapi/OneDrive/Desktop/GD32VW553/V1_MQTT_OK/GD32VW55X_Wifi_BLE_SDK/GD32VW55x_RELEASE_V1.0.2/MSDK/plf/src\init_rom_symbol.c ****         mbedtls_sha256_starts_fn = (void *)0x0bf767e2;
 1034              		.loc 2 193 9 is_stmt 1 discriminator 3
 193:C:/Users/stapi/OneDrive/Desktop/GD32VW553/V1_MQTT_OK/GD32VW55X_Wifi_BLE_SDK/GD32VW55x_RELEASE_V1.0.2/MSDK/plf/src\init_rom_symbol.c ****         mbedtls_sha256_starts_fn = (void *)0x0bf767e2;
 1035              		.loc 2 193 32 is_stmt 0 discriminator 3
 1036 091c 0326C119 		lw	a2,412(sp)
 1037 0920 9386A779 		addi	a3,a5,1946
 1038 0924 14C2     		sw	a3,0(a2)
 194:C:/Users/stapi/OneDrive/Desktop/GD32VW553/V1_MQTT_OK/GD32VW55X_Wifi_BLE_SDK/GD32VW55x_RELEASE_V1.0.2/MSDK/plf/src\init_rom_symbol.c ****         mbedtls_sha256_starts_ret_fn = (void *)0x0bf767b8;
 1039              		.loc 2 194 9 is_stmt 1 discriminator 3
 194:C:/Users/stapi/OneDrive/Desktop/GD32VW553/V1_MQTT_OK/GD32VW55X_Wifi_BLE_SDK/GD32VW55x_RELEASE_V1.0.2/MSDK/plf/src\init_rom_symbol.c ****         mbedtls_sha256_starts_ret_fn = (void *)0x0bf767b8;
 1040              		.loc 2 194 34 is_stmt 0 discriminator 3
 1041 0926 0326011A 		lw	a2,416(sp)
 1042 092a 9386277E 		addi	a3,a5,2018
 1043 092e 14C2     		sw	a3,0(a2)
 195:C:/Users/stapi/OneDrive/Desktop/GD32VW553/V1_MQTT_OK/GD32VW55X_Wifi_BLE_SDK/GD32VW55x_RELEASE_V1.0.2/MSDK/plf/src\init_rom_symbol.c ****         mbedtls_sha256_update_fn = (void *)0x0bf76816;
 1044              		.loc 2 195 9 is_stmt 1 discriminator 3
 195:C:/Users/stapi/OneDrive/Desktop/GD32VW553/V1_MQTT_OK/GD32VW55X_Wifi_BLE_SDK/GD32VW55x_RELEASE_V1.0.2/MSDK/plf/src\init_rom_symbol.c ****         mbedtls_sha256_update_fn = (void *)0x0bf76816;
 1045              		.loc 2 195 38 is_stmt 0 discriminator 3
 1046 0930 0326411A 		lw	a2,420(sp)
 1047 0934 9386877B 		addi	a3,a5,1976
 197:C:/Users/stapi/OneDrive/Desktop/GD32VW553/V1_MQTT_OK/GD32VW55X_Wifi_BLE_SDK/GD32VW55x_RELEASE_V1.0.2/MSDK/plf/src\init_rom_symbol.c ****         mbedtls_sha256_update_ret_fn = (void *)0x0bf767e6;
 1048              		.loc 2 197 38 discriminator 3
 1049 0938 9387677E 		addi	a5,a5,2022
 195:C:/Users/stapi/OneDrive/Desktop/GD32VW553/V1_MQTT_OK/GD32VW55X_Wifi_BLE_SDK/GD32VW55x_RELEASE_V1.0.2/MSDK/plf/src\init_rom_symbol.c ****         mbedtls_sha256_update_fn = (void *)0x0bf76816;
 1050              		.loc 2 195 38 discriminator 3
 1051 093c 14C2     		sw	a3,0(a2)
 196:C:/Users/stapi/OneDrive/Desktop/GD32VW553/V1_MQTT_OK/GD32VW55X_Wifi_BLE_SDK/GD32VW55x_RELEASE_V1.0.2/MSDK/plf/src\init_rom_symbol.c ****         mbedtls_sha256_update_ret_fn = (void *)0x0bf767e6;
 1052              		.loc 2 196 9 is_stmt 1 discriminator 3
 196:C:/Users/stapi/OneDrive/Desktop/GD32VW553/V1_MQTT_OK/GD32VW55X_Wifi_BLE_SDK/GD32VW55x_RELEASE_V1.0.2/MSDK/plf/src\init_rom_symbol.c ****         mbedtls_sha256_update_ret_fn = (void *)0x0bf767e6;
 1053              		.loc 2 196 34 is_stmt 0 discriminator 3
 1054 093e 8326811A 		lw	a3,424(sp)
 1055 0942 98C2     		sw	a4,0(a3)
 1056              		.loc 2 197 9 is_stmt 1 discriminator 3
 1057              	.L11:
 198:C:/Users/stapi/OneDrive/Desktop/GD32VW553/V1_MQTT_OK/GD32VW55X_Wifi_BLE_SDK/GD32VW55x_RELEASE_V1.0.2/MSDK/plf/src\init_rom_symbol.c ****     } else {
 199:C:/Users/stapi/OneDrive/Desktop/GD32VW553/V1_MQTT_OK/GD32VW55X_Wifi_BLE_SDK/GD32VW55x_RELEASE_V1.0.2/MSDK/plf/src\init_rom_symbol.c **** #ifndef EXEC_USING_STD_PRINTF
 200:C:/Users/stapi/OneDrive/Desktop/GD32VW553/V1_MQTT_OK/GD32VW55X_Wifi_BLE_SDK/GD32VW55x_RELEASE_V1.0.2/MSDK/plf/src\init_rom_symbol.c ****         dbg_print(NOTICE, "Chip: GD32VW55x\r\n");
 201:C:/Users/stapi/OneDrive/Desktop/GD32VW553/V1_MQTT_OK/GD32VW55X_Wifi_BLE_SDK/GD32VW55x_RELEASE_V1.0.2/MSDK/plf/src\init_rom_symbol.c **** #endif
 202:C:/Users/stapi/OneDrive/Desktop/GD32VW553/V1_MQTT_OK/GD32VW55X_Wifi_BLE_SDK/GD32VW55x_RELEASE_V1.0.2/MSDK/plf/src\init_rom_symbol.c ****         ecp_supported_curves = (mbedtls_ecp_curve_info *)0x0bf73a7c;
 203:C:/Users/stapi/OneDrive/Desktop/GD32VW553/V1_MQTT_OK/GD32VW55X_Wifi_BLE_SDK/GD32VW55x_RELEASE_V1.0.2/MSDK/plf/src\init_rom_symbol.c ****         mbedtls_ecdsa_free_fn = (void *)0x0bf71390;
 204:C:/Users/stapi/OneDrive/Desktop/GD32VW553/V1_MQTT_OK/GD32VW55X_Wifi_BLE_SDK/GD32VW55x_RELEASE_V1.0.2/MSDK/plf/src\init_rom_symbol.c ****         mbedtls_ecdsa_from_keypair_fn = (void *)0x0bf7133e;
 205:C:/Users/stapi/OneDrive/Desktop/GD32VW553/V1_MQTT_OK/GD32VW55X_Wifi_BLE_SDK/GD32VW55x_RELEASE_V1.0.2/MSDK/plf/src\init_rom_symbol.c ****         mbedtls_ecdsa_genkey_fn = (void *)0x0bf71300;
 206:C:/Users/stapi/OneDrive/Desktop/GD32VW553/V1_MQTT_OK/GD32VW55X_Wifi_BLE_SDK/GD32VW55x_RELEASE_V1.0.2/MSDK/plf/src\init_rom_symbol.c ****         mbedtls_ecdsa_init_fn = (void *)0x0bf7138c;
 207:C:/Users/stapi/OneDrive/Desktop/GD32VW553/V1_MQTT_OK/GD32VW55X_Wifi_BLE_SDK/GD32VW55x_RELEASE_V1.0.2/MSDK/plf/src\init_rom_symbol.c ****         mbedtls_ecdsa_read_signature_fn = (void *)0x0bf712fa;
 208:C:/Users/stapi/OneDrive/Desktop/GD32VW553/V1_MQTT_OK/GD32VW55X_Wifi_BLE_SDK/GD32VW55x_RELEASE_V1.0.2/MSDK/plf/src\init_rom_symbol.c ****         mbedtls_ecdsa_read_signature_restartable_fn = (void *)0x0bf71254;
 209:C:/Users/stapi/OneDrive/Desktop/GD32VW553/V1_MQTT_OK/GD32VW55X_Wifi_BLE_SDK/GD32VW55x_RELEASE_V1.0.2/MSDK/plf/src\init_rom_symbol.c ****         mbedtls_ecdsa_sign_fn = (void *)0x0bf70b6e;
 210:C:/Users/stapi/OneDrive/Desktop/GD32VW553/V1_MQTT_OK/GD32VW55X_Wifi_BLE_SDK/GD32VW55x_RELEASE_V1.0.2/MSDK/plf/src\init_rom_symbol.c ****         mbedtls_ecdsa_sign_det_fn = (void *)0x0bf70f2e;
 211:C:/Users/stapi/OneDrive/Desktop/GD32VW553/V1_MQTT_OK/GD32VW55X_Wifi_BLE_SDK/GD32VW55x_RELEASE_V1.0.2/MSDK/plf/src\init_rom_symbol.c ****         mbedtls_ecdsa_verify_fn = (void *)0x0bf70f32;
 212:C:/Users/stapi/OneDrive/Desktop/GD32VW553/V1_MQTT_OK/GD32VW55X_Wifi_BLE_SDK/GD32VW55x_RELEASE_V1.0.2/MSDK/plf/src\init_rom_symbol.c ****         mbedtls_ecdsa_write_signature_fn = (void *)0x0bf71224;
 213:C:/Users/stapi/OneDrive/Desktop/GD32VW553/V1_MQTT_OK/GD32VW55X_Wifi_BLE_SDK/GD32VW55x_RELEASE_V1.0.2/MSDK/plf/src\init_rom_symbol.c ****         mbedtls_ecdsa_write_signature_det_fn = (void *)0x0bf71234;
 214:C:/Users/stapi/OneDrive/Desktop/GD32VW553/V1_MQTT_OK/GD32VW55X_Wifi_BLE_SDK/GD32VW55x_RELEASE_V1.0.2/MSDK/plf/src\init_rom_symbol.c ****         mbedtls_ecdsa_write_signature_restartable_fn = (void *)0x0bf7115e;
 215:C:/Users/stapi/OneDrive/Desktop/GD32VW553/V1_MQTT_OK/GD32VW55X_Wifi_BLE_SDK/GD32VW55x_RELEASE_V1.0.2/MSDK/plf/src\init_rom_symbol.c ****         mbedtls_ecp_check_privkey_fn = (void *)0x0bf72a0e;
 216:C:/Users/stapi/OneDrive/Desktop/GD32VW553/V1_MQTT_OK/GD32VW55X_Wifi_BLE_SDK/GD32VW55x_RELEASE_V1.0.2/MSDK/plf/src\init_rom_symbol.c ****         mbedtls_ecp_check_pub_priv_fn = (void *)0x0bf73848;
 217:C:/Users/stapi/OneDrive/Desktop/GD32VW553/V1_MQTT_OK/GD32VW55X_Wifi_BLE_SDK/GD32VW55x_RELEASE_V1.0.2/MSDK/plf/src\init_rom_symbol.c ****         mbedtls_ecp_check_pubkey_fn = (void *)0x0bf72c78;
 218:C:/Users/stapi/OneDrive/Desktop/GD32VW553/V1_MQTT_OK/GD32VW55X_Wifi_BLE_SDK/GD32VW55x_RELEASE_V1.0.2/MSDK/plf/src\init_rom_symbol.c ****         mbedtls_ecp_copy_fn = (void *)0x0bf71f42;
 219:C:/Users/stapi/OneDrive/Desktop/GD32VW553/V1_MQTT_OK/GD32VW55X_Wifi_BLE_SDK/GD32VW55x_RELEASE_V1.0.2/MSDK/plf/src\init_rom_symbol.c ****         mbedtls_ecp_curve_info_from_grp_id_fn = (void *)0x0bf71d4e;
 220:C:/Users/stapi/OneDrive/Desktop/GD32VW553/V1_MQTT_OK/GD32VW55X_Wifi_BLE_SDK/GD32VW55x_RELEASE_V1.0.2/MSDK/plf/src\init_rom_symbol.c ****         mbedtls_ecp_curve_info_from_name_fn = (void *)0x0bf71daa;
 221:C:/Users/stapi/OneDrive/Desktop/GD32VW553/V1_MQTT_OK/GD32VW55X_Wifi_BLE_SDK/GD32VW55x_RELEASE_V1.0.2/MSDK/plf/src\init_rom_symbol.c ****         mbedtls_ecp_curve_info_from_tls_id_fn = (void *)0x0bf71d7a;
 222:C:/Users/stapi/OneDrive/Desktop/GD32VW553/V1_MQTT_OK/GD32VW55X_Wifi_BLE_SDK/GD32VW55x_RELEASE_V1.0.2/MSDK/plf/src\init_rom_symbol.c ****         mbedtls_ecp_curve_list_fn = (void *)0x0bf71cda;
 223:C:/Users/stapi/OneDrive/Desktop/GD32VW553/V1_MQTT_OK/GD32VW55X_Wifi_BLE_SDK/GD32VW55x_RELEASE_V1.0.2/MSDK/plf/src\init_rom_symbol.c ****         mbedtls_ecp_gen_key_fn = (void *)0x0bf73802;
 224:C:/Users/stapi/OneDrive/Desktop/GD32VW553/V1_MQTT_OK/GD32VW55X_Wifi_BLE_SDK/GD32VW55x_RELEASE_V1.0.2/MSDK/plf/src\init_rom_symbol.c ****         mbedtls_ecp_gen_keypair_fn = (void *)0x0bf737f2;
 225:C:/Users/stapi/OneDrive/Desktop/GD32VW553/V1_MQTT_OK/GD32VW55X_Wifi_BLE_SDK/GD32VW55x_RELEASE_V1.0.2/MSDK/plf/src\init_rom_symbol.c ****         mbedtls_ecp_gen_keypair_base_fn = (void *)0x0bf73796;
 226:C:/Users/stapi/OneDrive/Desktop/GD32VW553/V1_MQTT_OK/GD32VW55X_Wifi_BLE_SDK/GD32VW55x_RELEASE_V1.0.2/MSDK/plf/src\init_rom_symbol.c ****         mbedtls_ecp_gen_privkey_fn = (void *)0x0bf72a8c;
 227:C:/Users/stapi/OneDrive/Desktop/GD32VW553/V1_MQTT_OK/GD32VW55X_Wifi_BLE_SDK/GD32VW55x_RELEASE_V1.0.2/MSDK/plf/src\init_rom_symbol.c ****         mbedtls_ecp_group_copy_fn = (void *)0x0bf71f80;
 228:C:/Users/stapi/OneDrive/Desktop/GD32VW553/V1_MQTT_OK/GD32VW55X_Wifi_BLE_SDK/GD32VW55x_RELEASE_V1.0.2/MSDK/plf/src\init_rom_symbol.c ****         mbedtls_ecp_group_free_fn = (void *)0x0bf71e9c;
 229:C:/Users/stapi/OneDrive/Desktop/GD32VW553/V1_MQTT_OK/GD32VW55X_Wifi_BLE_SDK/GD32VW55x_RELEASE_V1.0.2/MSDK/plf/src\init_rom_symbol.c ****         mbedtls_ecp_group_init_fn = (void *)0x0bf71e14;
 230:C:/Users/stapi/OneDrive/Desktop/GD32VW553/V1_MQTT_OK/GD32VW55X_Wifi_BLE_SDK/GD32VW55x_RELEASE_V1.0.2/MSDK/plf/src\init_rom_symbol.c ****         mbedtls_ecp_grp_id_list_fn = (void *)0x0bf71d02;
 231:C:/Users/stapi/OneDrive/Desktop/GD32VW553/V1_MQTT_OK/GD32VW55X_Wifi_BLE_SDK/GD32VW55x_RELEASE_V1.0.2/MSDK/plf/src\init_rom_symbol.c ****         mbedtls_ecp_is_zero_fn = (void *)0x0bf726b4;
 232:C:/Users/stapi/OneDrive/Desktop/GD32VW553/V1_MQTT_OK/GD32VW55X_Wifi_BLE_SDK/GD32VW55x_RELEASE_V1.0.2/MSDK/plf/src\init_rom_symbol.c ****         mbedtls_ecp_keypair_free_fn = (void *)0x0bf71f1c;
 233:C:/Users/stapi/OneDrive/Desktop/GD32VW553/V1_MQTT_OK/GD32VW55X_Wifi_BLE_SDK/GD32VW55x_RELEASE_V1.0.2/MSDK/plf/src\init_rom_symbol.c ****         mbedtls_ecp_keypair_init_fn = (void *)0x0bf71e72;
 234:C:/Users/stapi/OneDrive/Desktop/GD32VW553/V1_MQTT_OK/GD32VW55X_Wifi_BLE_SDK/GD32VW55x_RELEASE_V1.0.2/MSDK/plf/src\init_rom_symbol.c ****         mbedtls_ecp_mul_fn = (void *)0x0bf73790;
 235:C:/Users/stapi/OneDrive/Desktop/GD32VW553/V1_MQTT_OK/GD32VW55X_Wifi_BLE_SDK/GD32VW55x_RELEASE_V1.0.2/MSDK/plf/src\init_rom_symbol.c ****         mbedtls_ecp_mul_restartable_fn = (void *)0x0bf72ebc;
 236:C:/Users/stapi/OneDrive/Desktop/GD32VW553/V1_MQTT_OK/GD32VW55X_Wifi_BLE_SDK/GD32VW55x_RELEASE_V1.0.2/MSDK/plf/src\init_rom_symbol.c ****         mbedtls_ecp_muladd_fn = (void *)0x0bf73a52;
 237:C:/Users/stapi/OneDrive/Desktop/GD32VW553/V1_MQTT_OK/GD32VW55X_Wifi_BLE_SDK/GD32VW55x_RELEASE_V1.0.2/MSDK/plf/src\init_rom_symbol.c ****         mbedtls_ecp_muladd_restartable_fn = (void *)0x0bf73a36;
 238:C:/Users/stapi/OneDrive/Desktop/GD32VW553/V1_MQTT_OK/GD32VW55X_Wifi_BLE_SDK/GD32VW55x_RELEASE_V1.0.2/MSDK/plf/src\init_rom_symbol.c ****         mbedtls_ecp_point_cmp_fn = (void *)0x0bf726ca;
 239:C:/Users/stapi/OneDrive/Desktop/GD32VW553/V1_MQTT_OK/GD32VW55X_Wifi_BLE_SDK/GD32VW55x_RELEASE_V1.0.2/MSDK/plf/src\init_rom_symbol.c ****         mbedtls_ecp_point_free_fn = (void *)0x0bf71e94;
 240:C:/Users/stapi/OneDrive/Desktop/GD32VW553/V1_MQTT_OK/GD32VW55X_Wifi_BLE_SDK/GD32VW55x_RELEASE_V1.0.2/MSDK/plf/src\init_rom_symbol.c ****         mbedtls_ecp_point_init_fn = (void *)0x0bf71df2;
 241:C:/Users/stapi/OneDrive/Desktop/GD32VW553/V1_MQTT_OK/GD32VW55X_Wifi_BLE_SDK/GD32VW55x_RELEASE_V1.0.2/MSDK/plf/src\init_rom_symbol.c ****         mbedtls_ecp_point_read_binary_fn = (void *)0x0bf72824;
 242:C:/Users/stapi/OneDrive/Desktop/GD32VW553/V1_MQTT_OK/GD32VW55X_Wifi_BLE_SDK/GD32VW55x_RELEASE_V1.0.2/MSDK/plf/src\init_rom_symbol.c ****         mbedtls_ecp_point_read_string_fn = (void *)0x0bf72712;
 243:C:/Users/stapi/OneDrive/Desktop/GD32VW553/V1_MQTT_OK/GD32VW55X_Wifi_BLE_SDK/GD32VW55x_RELEASE_V1.0.2/MSDK/plf/src\init_rom_symbol.c ****         mbedtls_ecp_point_write_binary_fn = (void *)0x0bf72756;
 244:C:/Users/stapi/OneDrive/Desktop/GD32VW553/V1_MQTT_OK/GD32VW55X_Wifi_BLE_SDK/GD32VW55x_RELEASE_V1.0.2/MSDK/plf/src\init_rom_symbol.c ****         mbedtls_ecp_set_zero_fn = (void *)0x0bf71f86;
 245:C:/Users/stapi/OneDrive/Desktop/GD32VW553/V1_MQTT_OK/GD32VW55X_Wifi_BLE_SDK/GD32VW55x_RELEASE_V1.0.2/MSDK/plf/src\init_rom_symbol.c ****         mbedtls_ecp_tls_read_group_fn = (void *)0x0bf72994;
 246:C:/Users/stapi/OneDrive/Desktop/GD32VW553/V1_MQTT_OK/GD32VW55X_Wifi_BLE_SDK/GD32VW55x_RELEASE_V1.0.2/MSDK/plf/src\init_rom_symbol.c ****         mbedtls_ecp_tls_read_group_id_fn = (void *)0x0bf7292c;
 247:C:/Users/stapi/OneDrive/Desktop/GD32VW553/V1_MQTT_OK/GD32VW55X_Wifi_BLE_SDK/GD32VW55x_RELEASE_V1.0.2/MSDK/plf/src\init_rom_symbol.c ****         mbedtls_ecp_tls_read_point_fn = (void *)0x0bf728c2;
 248:C:/Users/stapi/OneDrive/Desktop/GD32VW553/V1_MQTT_OK/GD32VW55X_Wifi_BLE_SDK/GD32VW55x_RELEASE_V1.0.2/MSDK/plf/src\init_rom_symbol.c ****         mbedtls_ecp_tls_write_group_fn = (void *)0x0bf729b4;
 249:C:/Users/stapi/OneDrive/Desktop/GD32VW553/V1_MQTT_OK/GD32VW55X_Wifi_BLE_SDK/GD32VW55x_RELEASE_V1.0.2/MSDK/plf/src\init_rom_symbol.c ****         mbedtls_ecp_tls_write_point_fn = (void *)0x0bf728f6;
 250:C:/Users/stapi/OneDrive/Desktop/GD32VW553/V1_MQTT_OK/GD32VW55X_Wifi_BLE_SDK/GD32VW55x_RELEASE_V1.0.2/MSDK/plf/src\init_rom_symbol.c ****         mbedtls_internal_md5_process_fn = (void *)0x0bf764d6;
 251:C:/Users/stapi/OneDrive/Desktop/GD32VW553/V1_MQTT_OK/GD32VW55X_Wifi_BLE_SDK/GD32VW55x_RELEASE_V1.0.2/MSDK/plf/src\init_rom_symbol.c ****         mbedtls_internal_sha256_process_fn = (void *)0x0bf76312;
 252:C:/Users/stapi/OneDrive/Desktop/GD32VW553/V1_MQTT_OK/GD32VW55X_Wifi_BLE_SDK/GD32VW55x_RELEASE_V1.0.2/MSDK/plf/src\init_rom_symbol.c ****         mbedtls_md5_fn = (void *)0x0bf77352;
 253:C:/Users/stapi/OneDrive/Desktop/GD32VW553/V1_MQTT_OK/GD32VW55X_Wifi_BLE_SDK/GD32VW55x_RELEASE_V1.0.2/MSDK/plf/src\init_rom_symbol.c ****         mbedtls_md5_clone_fn = (void *)0x0bf76468;
 254:C:/Users/stapi/OneDrive/Desktop/GD32VW553/V1_MQTT_OK/GD32VW55X_Wifi_BLE_SDK/GD32VW55x_RELEASE_V1.0.2/MSDK/plf/src\init_rom_symbol.c ****         mbedtls_md5_finish_fn = (void *)0x0bf7731c;
 255:C:/Users/stapi/OneDrive/Desktop/GD32VW553/V1_MQTT_OK/GD32VW55X_Wifi_BLE_SDK/GD32VW55x_RELEASE_V1.0.2/MSDK/plf/src\init_rom_symbol.c ****         mbedtls_md5_finish_ret_fn = (void *)0x0bf7721e;
 256:C:/Users/stapi/OneDrive/Desktop/GD32VW553/V1_MQTT_OK/GD32VW55X_Wifi_BLE_SDK/GD32VW55x_RELEASE_V1.0.2/MSDK/plf/src\init_rom_symbol.c ****         mbedtls_md5_free_fn = (void *)0x0bf7645c;
 257:C:/Users/stapi/OneDrive/Desktop/GD32VW553/V1_MQTT_OK/GD32VW55X_Wifi_BLE_SDK/GD32VW55x_RELEASE_V1.0.2/MSDK/plf/src\init_rom_symbol.c ****         mbedtls_md5_init_fn = (void *)0x0bf76452;
 258:C:/Users/stapi/OneDrive/Desktop/GD32VW553/V1_MQTT_OK/GD32VW55X_Wifi_BLE_SDK/GD32VW55x_RELEASE_V1.0.2/MSDK/plf/src\init_rom_symbol.c ****         mbedtls_md5_process_fn = (void *)0x0bf77208;
 259:C:/Users/stapi/OneDrive/Desktop/GD32VW553/V1_MQTT_OK/GD32VW55X_Wifi_BLE_SDK/GD32VW55x_RELEASE_V1.0.2/MSDK/plf/src\init_rom_symbol.c ****         mbedtls_md5_ret_fn = (void *)0x0bf77320;
 260:C:/Users/stapi/OneDrive/Desktop/GD32VW553/V1_MQTT_OK/GD32VW55X_Wifi_BLE_SDK/GD32VW55x_RELEASE_V1.0.2/MSDK/plf/src\init_rom_symbol.c ****         mbedtls_md5_starts_fn = (void *)0x0bf764a4;
 261:C:/Users/stapi/OneDrive/Desktop/GD32VW553/V1_MQTT_OK/GD32VW55X_Wifi_BLE_SDK/GD32VW55x_RELEASE_V1.0.2/MSDK/plf/src\init_rom_symbol.c ****         mbedtls_md5_starts_ret_fn = (void *)0x0bf76470;
 262:C:/Users/stapi/OneDrive/Desktop/GD32VW553/V1_MQTT_OK/GD32VW55X_Wifi_BLE_SDK/GD32VW55x_RELEASE_V1.0.2/MSDK/plf/src\init_rom_symbol.c ****         mbedtls_md5_update_fn = (void *)0x0bf77216;
 263:C:/Users/stapi/OneDrive/Desktop/GD32VW553/V1_MQTT_OK/GD32VW55X_Wifi_BLE_SDK/GD32VW55x_RELEASE_V1.0.2/MSDK/plf/src\init_rom_symbol.c ****         mbedtls_md5_update_ret_fn = (void *)0x0bf7720c;
 264:C:/Users/stapi/OneDrive/Desktop/GD32VW553/V1_MQTT_OK/GD32VW55X_Wifi_BLE_SDK/GD32VW55x_RELEASE_V1.0.2/MSDK/plf/src\init_rom_symbol.c ****         mbedtls_mpi_div_int_fn = (void *)0x0bf6f1c6;
 265:C:/Users/stapi/OneDrive/Desktop/GD32VW553/V1_MQTT_OK/GD32VW55X_Wifi_BLE_SDK/GD32VW55x_RELEASE_V1.0.2/MSDK/plf/src\init_rom_symbol.c ****         mbedtls_mpi_div_mpi_fn = (void *)0x0bf6ecda;
 266:C:/Users/stapi/OneDrive/Desktop/GD32VW553/V1_MQTT_OK/GD32VW55X_Wifi_BLE_SDK/GD32VW55x_RELEASE_V1.0.2/MSDK/plf/src\init_rom_symbol.c ****         mbedtls_mpi_exp_mod_fn = (void *)0x0bf6fb18;
 267:C:/Users/stapi/OneDrive/Desktop/GD32VW553/V1_MQTT_OK/GD32VW55X_Wifi_BLE_SDK/GD32VW55x_RELEASE_V1.0.2/MSDK/plf/src\init_rom_symbol.c ****         mbedtls_mpi_exp_mod_sw_fn = (void *)0x0bf6f508;
 268:C:/Users/stapi/OneDrive/Desktop/GD32VW553/V1_MQTT_OK/GD32VW55X_Wifi_BLE_SDK/GD32VW55x_RELEASE_V1.0.2/MSDK/plf/src\init_rom_symbol.c ****         mbedtls_mpi_fill_random_fn = (void *)0x0bf6fe86;
 269:C:/Users/stapi/OneDrive/Desktop/GD32VW553/V1_MQTT_OK/GD32VW55X_Wifi_BLE_SDK/GD32VW55x_RELEASE_V1.0.2/MSDK/plf/src\init_rom_symbol.c ****         mbedtls_mpi_gcd_fn = (void *)0x0bf6fc8e;
 270:C:/Users/stapi/OneDrive/Desktop/GD32VW553/V1_MQTT_OK/GD32VW55X_Wifi_BLE_SDK/GD32VW55x_RELEASE_V1.0.2/MSDK/plf/src\init_rom_symbol.c ****         mbedtls_mpi_gen_prime_fn = (void *)0x0bf70584;
 271:C:/Users/stapi/OneDrive/Desktop/GD32VW553/V1_MQTT_OK/GD32VW55X_Wifi_BLE_SDK/GD32VW55x_RELEASE_V1.0.2/MSDK/plf/src\init_rom_symbol.c ****         mbedtls_mpi_inv_mod_fn = (void *)0x0bf701b4;
 272:C:/Users/stapi/OneDrive/Desktop/GD32VW553/V1_MQTT_OK/GD32VW55X_Wifi_BLE_SDK/GD32VW55x_RELEASE_V1.0.2/MSDK/plf/src\init_rom_symbol.c ****         mbedtls_mpi_is_prime_fn = (void *)0x0bf70578   ;
 273:C:/Users/stapi/OneDrive/Desktop/GD32VW553/V1_MQTT_OK/GD32VW55X_Wifi_BLE_SDK/GD32VW55x_RELEASE_V1.0.2/MSDK/plf/src\init_rom_symbol.c ****         mbedtls_mpi_is_prime_ext_fn = (void *)0x0bf704d6;
 274:C:/Users/stapi/OneDrive/Desktop/GD32VW553/V1_MQTT_OK/GD32VW55X_Wifi_BLE_SDK/GD32VW55x_RELEASE_V1.0.2/MSDK/plf/src\init_rom_symbol.c ****         mbedtls_mpi_mod_int_fn = (void *)0x0bf6f28c;
 275:C:/Users/stapi/OneDrive/Desktop/GD32VW553/V1_MQTT_OK/GD32VW55X_Wifi_BLE_SDK/GD32VW55x_RELEASE_V1.0.2/MSDK/plf/src\init_rom_symbol.c ****         mbedtls_mpi_mod_mpi_fn = (void *)0x0bf6f1f0;
 276:C:/Users/stapi/OneDrive/Desktop/GD32VW553/V1_MQTT_OK/GD32VW55X_Wifi_BLE_SDK/GD32VW55x_RELEASE_V1.0.2/MSDK/plf/src\init_rom_symbol.c ****         mbedtls_mpi_mul_int_fn = (void *)0x0bf6ecc0;
 277:C:/Users/stapi/OneDrive/Desktop/GD32VW553/V1_MQTT_OK/GD32VW55X_Wifi_BLE_SDK/GD32VW55x_RELEASE_V1.0.2/MSDK/plf/src\init_rom_symbol.c ****         mbedtls_mpi_mul_mpi_fn = (void *)0x0bf6ea92;
 278:C:/Users/stapi/OneDrive/Desktop/GD32VW553/V1_MQTT_OK/GD32VW55X_Wifi_BLE_SDK/GD32VW55x_RELEASE_V1.0.2/MSDK/plf/src\init_rom_symbol.c ****         mbedtls_mpi_read_string_fn = (void *)0x0bf6eaa8;
 279:C:/Users/stapi/OneDrive/Desktop/GD32VW553/V1_MQTT_OK/GD32VW55X_Wifi_BLE_SDK/GD32VW55x_RELEASE_V1.0.2/MSDK/plf/src\init_rom_symbol.c ****         mbedtls_mpi_write_string_fn = (void *)0x0bf6f2c0;
 280:C:/Users/stapi/OneDrive/Desktop/GD32VW553/V1_MQTT_OK/GD32VW55X_Wifi_BLE_SDK/GD32VW55x_RELEASE_V1.0.2/MSDK/plf/src\init_rom_symbol.c ****         mbedtls_rsa_check_privkey_fn = (void *)0x0bf74536;
 281:C:/Users/stapi/OneDrive/Desktop/GD32VW553/V1_MQTT_OK/GD32VW55X_Wifi_BLE_SDK/GD32VW55x_RELEASE_V1.0.2/MSDK/plf/src\init_rom_symbol.c ****         mbedtls_rsa_check_pub_priv_fn = (void *)0x0bf747cc;
 282:C:/Users/stapi/OneDrive/Desktop/GD32VW553/V1_MQTT_OK/GD32VW55X_Wifi_BLE_SDK/GD32VW55x_RELEASE_V1.0.2/MSDK/plf/src\init_rom_symbol.c ****         mbedtls_rsa_check_pubkey_fn = (void *)0x0bf744d4;
 283:C:/Users/stapi/OneDrive/Desktop/GD32VW553/V1_MQTT_OK/GD32VW55X_Wifi_BLE_SDK/GD32VW55x_RELEASE_V1.0.2/MSDK/plf/src\init_rom_symbol.c ****         mbedtls_rsa_complete_fn = (void *)0x0bf74054;
 284:C:/Users/stapi/OneDrive/Desktop/GD32VW553/V1_MQTT_OK/GD32VW55X_Wifi_BLE_SDK/GD32VW55x_RELEASE_V1.0.2/MSDK/plf/src\init_rom_symbol.c ****         mbedtls_rsa_copy_fn = (void *)0x0bf75cf6;
 285:C:/Users/stapi/OneDrive/Desktop/GD32VW553/V1_MQTT_OK/GD32VW55X_Wifi_BLE_SDK/GD32VW55x_RELEASE_V1.0.2/MSDK/plf/src\init_rom_symbol.c ****         mbedtls_rsa_export_fn = (void *)0x0bf742ec;
 286:C:/Users/stapi/OneDrive/Desktop/GD32VW553/V1_MQTT_OK/GD32VW55X_Wifi_BLE_SDK/GD32VW55x_RELEASE_V1.0.2/MSDK/plf/src\init_rom_symbol.c ****         mbedtls_rsa_export_crt_fn = (void *)0x0bf743ee;
 287:C:/Users/stapi/OneDrive/Desktop/GD32VW553/V1_MQTT_OK/GD32VW55X_Wifi_BLE_SDK/GD32VW55x_RELEASE_V1.0.2/MSDK/plf/src\init_rom_symbol.c ****         mbedtls_rsa_export_raw_fn = (void *)0x0bf741b4;
 288:C:/Users/stapi/OneDrive/Desktop/GD32VW553/V1_MQTT_OK/GD32VW55X_Wifi_BLE_SDK/GD32VW55x_RELEASE_V1.0.2/MSDK/plf/src\init_rom_symbol.c ****         mbedtls_rsa_free_fn = (void *)0x0bf75e00;
 289:C:/Users/stapi/OneDrive/Desktop/GD32VW553/V1_MQTT_OK/GD32VW55X_Wifi_BLE_SDK/GD32VW55x_RELEASE_V1.0.2/MSDK/plf/src\init_rom_symbol.c ****         mbedtls_rsa_gen_key_fn = (void *)0x0bf745a6;
 290:C:/Users/stapi/OneDrive/Desktop/GD32VW553/V1_MQTT_OK/GD32VW55X_Wifi_BLE_SDK/GD32VW55x_RELEASE_V1.0.2/MSDK/plf/src\init_rom_symbol.c ****         mbedtls_rsa_get_len_fn = (void *)0x0bf744d0;
 291:C:/Users/stapi/OneDrive/Desktop/GD32VW553/V1_MQTT_OK/GD32VW55X_Wifi_BLE_SDK/GD32VW55x_RELEASE_V1.0.2/MSDK/plf/src\init_rom_symbol.c ****         mbedtls_rsa_import_fn = (void *)0x0bf73f28;
 292:C:/Users/stapi/OneDrive/Desktop/GD32VW553/V1_MQTT_OK/GD32VW55X_Wifi_BLE_SDK/GD32VW55x_RELEASE_V1.0.2/MSDK/plf/src\init_rom_symbol.c ****         mbedtls_rsa_import_raw_fn = (void *)0x0bf73fba;
 293:C:/Users/stapi/OneDrive/Desktop/GD32VW553/V1_MQTT_OK/GD32VW55X_Wifi_BLE_SDK/GD32VW55x_RELEASE_V1.0.2/MSDK/plf/src\init_rom_symbol.c ****         mbedtls_rsa_init_fn = (void *)0x0bf74498;
 294:C:/Users/stapi/OneDrive/Desktop/GD32VW553/V1_MQTT_OK/GD32VW55X_Wifi_BLE_SDK/GD32VW55x_RELEASE_V1.0.2/MSDK/plf/src\init_rom_symbol.c ****         mbedtls_rsa_pkcs1_decrypt_fn = (void *)0x0bf755f6;
 295:C:/Users/stapi/OneDrive/Desktop/GD32VW553/V1_MQTT_OK/GD32VW55X_Wifi_BLE_SDK/GD32VW55x_RELEASE_V1.0.2/MSDK/plf/src\init_rom_symbol.c ****         mbedtls_rsa_pkcs1_encrypt_fn = (void *)0x0bf75138;
 296:C:/Users/stapi/OneDrive/Desktop/GD32VW553/V1_MQTT_OK/GD32VW55X_Wifi_BLE_SDK/GD32VW55x_RELEASE_V1.0.2/MSDK/plf/src\init_rom_symbol.c ****         mbedtls_rsa_pkcs1_sign_fn = (void *)0x0bf75928;
 297:C:/Users/stapi/OneDrive/Desktop/GD32VW553/V1_MQTT_OK/GD32VW55X_Wifi_BLE_SDK/GD32VW55x_RELEASE_V1.0.2/MSDK/plf/src\init_rom_symbol.c ****         mbedtls_rsa_pkcs1_verify_fn = (void *)0x0bf75c98;
 298:C:/Users/stapi/OneDrive/Desktop/GD32VW553/V1_MQTT_OK/GD32VW55X_Wifi_BLE_SDK/GD32VW55x_RELEASE_V1.0.2/MSDK/plf/src\init_rom_symbol.c ****         mbedtls_rsa_private_fn = (void *)0x0bf74e92;
 299:C:/Users/stapi/OneDrive/Desktop/GD32VW553/V1_MQTT_OK/GD32VW55X_Wifi_BLE_SDK/GD32VW55x_RELEASE_V1.0.2/MSDK/plf/src\init_rom_symbol.c ****         mbedtls_rsa_private_sw_fn = (void *)0x0bf7496c;
 300:C:/Users/stapi/OneDrive/Desktop/GD32VW553/V1_MQTT_OK/GD32VW55X_Wifi_BLE_SDK/GD32VW55x_RELEASE_V1.0.2/MSDK/plf/src\init_rom_symbol.c ****         mbedtls_rsa_public_fn = (void *)0x0bf74814;
 301:C:/Users/stapi/OneDrive/Desktop/GD32VW553/V1_MQTT_OK/GD32VW55X_Wifi_BLE_SDK/GD32VW55x_RELEASE_V1.0.2/MSDK/plf/src\init_rom_symbol.c ****         mbedtls_rsa_rsaes_oaep_decrypt_fn = (void *)0x0bf7516c;
 302:C:/Users/stapi/OneDrive/Desktop/GD32VW553/V1_MQTT_OK/GD32VW55X_Wifi_BLE_SDK/GD32VW55x_RELEASE_V1.0.2/MSDK/plf/src\init_rom_symbol.c ****         mbedtls_rsa_rsaes_oaep_encrypt_fn = (void *)0x0bf74ea6;
 303:C:/Users/stapi/OneDrive/Desktop/GD32VW553/V1_MQTT_OK/GD32VW55X_Wifi_BLE_SDK/GD32VW55x_RELEASE_V1.0.2/MSDK/plf/src\init_rom_symbol.c ****         mbedtls_rsa_rsaes_pkcs1_v15_decrypt_fn = (void *)0x0bf7539e;
 304:C:/Users/stapi/OneDrive/Desktop/GD32VW553/V1_MQTT_OK/GD32VW55X_Wifi_BLE_SDK/GD32VW55x_RELEASE_V1.0.2/MSDK/plf/src\init_rom_symbol.c ****         mbedtls_rsa_rsaes_pkcs1_v15_encrypt_fn = (void *)0x0bf7500c;
 305:C:/Users/stapi/OneDrive/Desktop/GD32VW553/V1_MQTT_OK/GD32VW55X_Wifi_BLE_SDK/GD32VW55x_RELEASE_V1.0.2/MSDK/plf/src\init_rom_symbol.c ****         mbedtls_rsa_rsassa_pkcs1_v15_sign_fn = (void *)0x0bf7581a;
 306:C:/Users/stapi/OneDrive/Desktop/GD32VW553/V1_MQTT_OK/GD32VW55X_Wifi_BLE_SDK/GD32VW55x_RELEASE_V1.0.2/MSDK/plf/src\init_rom_symbol.c ****         mbedtls_rsa_rsassa_pkcs1_v15_verify_fn = (void *)0x0bf75b8e;
 307:C:/Users/stapi/OneDrive/Desktop/GD32VW553/V1_MQTT_OK/GD32VW55X_Wifi_BLE_SDK/GD32VW55x_RELEASE_V1.0.2/MSDK/plf/src\init_rom_symbol.c ****         mbedtls_rsa_rsassa_pss_sign_fn = (void *)0x0bf75630;
 308:C:/Users/stapi/OneDrive/Desktop/GD32VW553/V1_MQTT_OK/GD32VW55X_Wifi_BLE_SDK/GD32VW55x_RELEASE_V1.0.2/MSDK/plf/src\init_rom_symbol.c ****         mbedtls_rsa_rsassa_pss_verify_fn = (void *)0x0bf75b6e;
 309:C:/Users/stapi/OneDrive/Desktop/GD32VW553/V1_MQTT_OK/GD32VW55X_Wifi_BLE_SDK/GD32VW55x_RELEASE_V1.0.2/MSDK/plf/src\init_rom_symbol.c ****         mbedtls_rsa_rsassa_pss_verify_ext_fn = (void *)0x0bf75946;
 310:C:/Users/stapi/OneDrive/Desktop/GD32VW553/V1_MQTT_OK/GD32VW55X_Wifi_BLE_SDK/GD32VW55x_RELEASE_V1.0.2/MSDK/plf/src\init_rom_symbol.c ****         mbedtls_rsa_set_padding_fn = (void *)0x0bf744c6;
 311:C:/Users/stapi/OneDrive/Desktop/GD32VW553/V1_MQTT_OK/GD32VW55X_Wifi_BLE_SDK/GD32VW55x_RELEASE_V1.0.2/MSDK/plf/src\init_rom_symbol.c ****         mbedtls_sha256_clone_fn = (void *)0x0bf76374;
 312:C:/Users/stapi/OneDrive/Desktop/GD32VW553/V1_MQTT_OK/GD32VW55X_Wifi_BLE_SDK/GD32VW55x_RELEASE_V1.0.2/MSDK/plf/src\init_rom_symbol.c ****         mbedtls_sha256_finish_fn = (void *)0x0bf7642e;
 313:C:/Users/stapi/OneDrive/Desktop/GD32VW553/V1_MQTT_OK/GD32VW55X_Wifi_BLE_SDK/GD32VW55x_RELEASE_V1.0.2/MSDK/plf/src\init_rom_symbol.c ****         mbedtls_sha256_finish_ret_fn = (void *)0x0bf76406;
 314:C:/Users/stapi/OneDrive/Desktop/GD32VW553/V1_MQTT_OK/GD32VW55X_Wifi_BLE_SDK/GD32VW55x_RELEASE_V1.0.2/MSDK/plf/src\init_rom_symbol.c ****         mbedtls_sha256_free_fn = (void *)0x0bf76362;
 315:C:/Users/stapi/OneDrive/Desktop/GD32VW553/V1_MQTT_OK/GD32VW55X_Wifi_BLE_SDK/GD32VW55x_RELEASE_V1.0.2/MSDK/plf/src\init_rom_symbol.c ****         mbedtls_sha256_init_fn = (void *)0x0bf7635e;
 316:C:/Users/stapi/OneDrive/Desktop/GD32VW553/V1_MQTT_OK/GD32VW55X_Wifi_BLE_SDK/GD32VW55x_RELEASE_V1.0.2/MSDK/plf/src\init_rom_symbol.c ****         mbedtls_sha256_starts_fn = (void *)0x0bf763a6;
 317:C:/Users/stapi/OneDrive/Desktop/GD32VW553/V1_MQTT_OK/GD32VW55X_Wifi_BLE_SDK/GD32VW55x_RELEASE_V1.0.2/MSDK/plf/src\init_rom_symbol.c ****         mbedtls_sha256_starts_ret_fn = (void *)0x0bf7637c;
 318:C:/Users/stapi/OneDrive/Desktop/GD32VW553/V1_MQTT_OK/GD32VW55X_Wifi_BLE_SDK/GD32VW55x_RELEASE_V1.0.2/MSDK/plf/src\init_rom_symbol.c ****         mbedtls_sha256_update_fn = (void *)0x0bf763da;
 319:C:/Users/stapi/OneDrive/Desktop/GD32VW553/V1_MQTT_OK/GD32VW55X_Wifi_BLE_SDK/GD32VW55x_RELEASE_V1.0.2/MSDK/plf/src\init_rom_symbol.c ****         mbedtls_sha256_update_ret_fn = (void *)0x0bf763aa;
 1058              		.loc 2 319 38 is_stmt 0 discriminator 3
 1059 0944 0327C11A 		lw	a4,428(sp)
 1060 0948 1CC3     		sw	a5,0(a4)
 320:C:/Users/stapi/OneDrive/Desktop/GD32VW553/V1_MQTT_OK/GD32VW55X_Wifi_BLE_SDK/GD32VW55x_RELEASE_V1.0.2/MSDK/plf/src\init_rom_symbol.c ****     }
 321:C:/Users/stapi/OneDrive/Desktop/GD32VW553/V1_MQTT_OK/GD32VW55X_Wifi_BLE_SDK/GD32VW55x_RELEASE_V1.0.2/MSDK/plf/src\init_rom_symbol.c **** #else
 322:C:/Users/stapi/OneDrive/Desktop/GD32VW553/V1_MQTT_OK/GD32VW55X_Wifi_BLE_SDK/GD32VW55x_RELEASE_V1.0.2/MSDK/plf/src\init_rom_symbol.c ****     mbedtls_hwpka_flag_set(0
 323:C:/Users/stapi/OneDrive/Desktop/GD32VW553/V1_MQTT_OK/GD32VW55X_Wifi_BLE_SDK/GD32VW55x_RELEASE_V1.0.2/MSDK/plf/src\init_rom_symbol.c ****                         | MBEDTLS_HW_EXP_MOD
 324:C:/Users/stapi/OneDrive/Desktop/GD32VW553/V1_MQTT_OK/GD32VW55X_Wifi_BLE_SDK/GD32VW55x_RELEASE_V1.0.2/MSDK/plf/src\init_rom_symbol.c ****                         | MBEDTLS_HW_RSA_PRIVATE
 325:C:/Users/stapi/OneDrive/Desktop/GD32VW553/V1_MQTT_OK/GD32VW55X_Wifi_BLE_SDK/GD32VW55x_RELEASE_V1.0.2/MSDK/plf/src\init_rom_symbol.c ****                         | MBEDTLS_HW_ECDSA_SIGN
 326:C:/Users/stapi/OneDrive/Desktop/GD32VW553/V1_MQTT_OK/GD32VW55X_Wifi_BLE_SDK/GD32VW55x_RELEASE_V1.0.2/MSDK/plf/src\init_rom_symbol.c ****                         | MBEDTLS_HW_ECDSA_VERIFY
 327:C:/Users/stapi/OneDrive/Desktop/GD32VW553/V1_MQTT_OK/GD32VW55X_Wifi_BLE_SDK/GD32VW55x_RELEASE_V1.0.2/MSDK/plf/src\init_rom_symbol.c ****                         | MBEDTLS_HW_ECP_MUL
 328:C:/Users/stapi/OneDrive/Desktop/GD32VW553/V1_MQTT_OK/GD32VW55X_Wifi_BLE_SDK/GD32VW55x_RELEASE_V1.0.2/MSDK/plf/src\init_rom_symbol.c ****                         | MBEDTLS_HW_ECP_CHECK
 329:C:/Users/stapi/OneDrive/Desktop/GD32VW553/V1_MQTT_OK/GD32VW55X_Wifi_BLE_SDK/GD32VW55x_RELEASE_V1.0.2/MSDK/plf/src\init_rom_symbol.c ****                         | MBEDTLS_HW_MPI_MUL);
 330:C:/Users/stapi/OneDrive/Desktop/GD32VW553/V1_MQTT_OK/GD32VW55X_Wifi_BLE_SDK/GD32VW55x_RELEASE_V1.0.2/MSDK/plf/src\init_rom_symbol.c **** #endif /* CONFIG_ASIC_CUT_AUTO */
 331:C:/Users/stapi/OneDrive/Desktop/GD32VW553/V1_MQTT_OK/GD32VW55X_Wifi_BLE_SDK/GD32VW55x_RELEASE_V1.0.2/MSDK/plf/src\init_rom_symbol.c **** }
 1061              		.loc 2 331 1 discriminator 3
 1062 094a 5D61     		addi	sp,sp,432
 1063              		.cfi_remember_state
 1064              		.cfi_def_cfa_offset 0
 1065 094c 17030000 		tail	__riscv_restore_12
 1065      67000300 
 1066              		.cfi_restore 27
 1067              		.cfi_restore 26
 1068              		.cfi_restore 25
 1069              		.cfi_restore 24
 1070              		.cfi_restore 23
 1071              		.cfi_restore 22
 1072              		.cfi_restore 21
 1073              		.cfi_restore 20
 1074              		.cfi_restore 19
 1075              		.cfi_restore 18
 1076              		.cfi_restore 9
 1077              		.cfi_restore 8
 1078              		.cfi_restore 1
 1079              		.cfi_def_cfa_offset -64
 1080              	.LVL6:
 1081              	.L4:
 1082              		.cfi_restore_state
  63:C:/Users/stapi/OneDrive/Desktop/GD32VW553/V1_MQTT_OK/GD32VW55X_Wifi_BLE_SDK/GD32VW55x_RELEASE_V1.0.2/MSDK/plf/src\init_rom_symbol.c **** #ifndef CONFIG_NEED_RSA_4096
 1083              		.loc 2 63 9 is_stmt 1
 1084 0954 1305F007 		li	a0,127
 1085 0958 97000000 		call	mbedtls_hwpka_flag_set
 1085      E7800000 
 1086              	.LVL7:
  76:C:/Users/stapi/OneDrive/Desktop/GD32VW553/V1_MQTT_OK/GD32VW55X_Wifi_BLE_SDK/GD32VW55x_RELEASE_V1.0.2/MSDK/plf/src\init_rom_symbol.c **** #ifndef EXEC_USING_STD_PRINTF
 1087              		.loc 2 76 5
 200:C:/Users/stapi/OneDrive/Desktop/GD32VW553/V1_MQTT_OK/GD32VW55X_Wifi_BLE_SDK/GD32VW55x_RELEASE_V1.0.2/MSDK/plf/src\init_rom_symbol.c **** #endif
 1088              		.loc 2 200 9
 200:C:/Users/stapi/OneDrive/Desktop/GD32VW553/V1_MQTT_OK/GD32VW55X_Wifi_BLE_SDK/GD32VW55x_RELEASE_V1.0.2/MSDK/plf/src\init_rom_symbol.c **** #endif
 1089              		.loc 2 200 9
 1090 0960 03C70D00 		lbu	a4,%lo(global_debug_level)(s11)
 1091 0964 8947     		li	a5,2
 1092 0966 63FAE700 		bleu	a4,a5,.L8
 200:C:/Users/stapi/OneDrive/Desktop/GD32VW553/V1_MQTT_OK/GD32VW55X_Wifi_BLE_SDK/GD32VW55x_RELEASE_V1.0.2/MSDK/plf/src\init_rom_symbol.c **** #endif
 1093              		.loc 2 200 9 discriminator 1
 1094 096a 37050000 		lui	a0,%hi(.LC1)
 1095 096e 13050500 		addi	a0,a0,%lo(.LC1)
 1096 0972 97000000 		call	co_printf
 1096      E7800000 
 1097              	.LVL8:
 1098              	.L8:
 200:C:/Users/stapi/OneDrive/Desktop/GD32VW553/V1_MQTT_OK/GD32VW55X_Wifi_BLE_SDK/GD32VW55x_RELEASE_V1.0.2/MSDK/plf/src\init_rom_symbol.c **** #endif
 1099              		.loc 2 200 9 discriminator 3
 202:C:/Users/stapi/OneDrive/Desktop/GD32VW553/V1_MQTT_OK/GD32VW55X_Wifi_BLE_SDK/GD32VW55x_RELEASE_V1.0.2/MSDK/plf/src\init_rom_symbol.c ****         mbedtls_ecdsa_free_fn = (void *)0x0bf71390;
 1100              		.loc 2 202 9 discriminator 3
 202:C:/Users/stapi/OneDrive/Desktop/GD32VW553/V1_MQTT_OK/GD32VW55X_Wifi_BLE_SDK/GD32VW55x_RELEASE_V1.0.2/MSDK/plf/src\init_rom_symbol.c ****         mbedtls_ecdsa_free_fn = (void *)0x0bf71390;
 1101              		.loc 2 202 30 is_stmt 0 discriminator 3
 1102 097a 3747F70B 		li	a4,200753152
 1103 097e 9307C7A7 		addi	a5,a4,-1412
 1104 0982 2320FD00 		sw	a5,0(s10)
 203:C:/Users/stapi/OneDrive/Desktop/GD32VW553/V1_MQTT_OK/GD32VW55X_Wifi_BLE_SDK/GD32VW55x_RELEASE_V1.0.2/MSDK/plf/src\init_rom_symbol.c ****         mbedtls_ecdsa_from_keypair_fn = (void *)0x0bf7133e;
 1105              		.loc 2 203 9 is_stmt 1 discriminator 3
 203:C:/Users/stapi/OneDrive/Desktop/GD32VW553/V1_MQTT_OK/GD32VW55X_Wifi_BLE_SDK/GD32VW55x_RELEASE_V1.0.2/MSDK/plf/src\init_rom_symbol.c ****         mbedtls_ecdsa_from_keypair_fn = (void *)0x0bf7133e;
 1106              		.loc 2 203 31 is_stmt 0 discriminator 3
 1107 0986 B717F70B 		li	a5,200740864
 1108 098a 93860739 		addi	a3,a5,912
 1109 098e 23A0DC00 		sw	a3,0(s9)
 204:C:/Users/stapi/OneDrive/Desktop/GD32VW553/V1_MQTT_OK/GD32VW55X_Wifi_BLE_SDK/GD32VW55x_RELEASE_V1.0.2/MSDK/plf/src\init_rom_symbol.c ****         mbedtls_ecdsa_genkey_fn = (void *)0x0bf71300;
 1110              		.loc 2 204 9 is_stmt 1 discriminator 3
 204:C:/Users/stapi/OneDrive/Desktop/GD32VW553/V1_MQTT_OK/GD32VW55X_Wifi_BLE_SDK/GD32VW55x_RELEASE_V1.0.2/MSDK/plf/src\init_rom_symbol.c ****         mbedtls_ecdsa_genkey_fn = (void *)0x0bf71300;
 1111              		.loc 2 204 39 is_stmt 0 discriminator 3
 1112 0992 9386E733 		addi	a3,a5,830
 1113 0996 2320DC00 		sw	a3,0(s8)
 205:C:/Users/stapi/OneDrive/Desktop/GD32VW553/V1_MQTT_OK/GD32VW55X_Wifi_BLE_SDK/GD32VW55x_RELEASE_V1.0.2/MSDK/plf/src\init_rom_symbol.c ****         mbedtls_ecdsa_init_fn = (void *)0x0bf7138c;
 1114              		.loc 2 205 9 is_stmt 1 discriminator 3
 205:C:/Users/stapi/OneDrive/Desktop/GD32VW553/V1_MQTT_OK/GD32VW55X_Wifi_BLE_SDK/GD32VW55x_RELEASE_V1.0.2/MSDK/plf/src\init_rom_symbol.c ****         mbedtls_ecdsa_init_fn = (void *)0x0bf7138c;
 1115              		.loc 2 205 33 is_stmt 0 discriminator 3
 1116 099a 93860730 		addi	a3,a5,768
 1117 099e 23A0DB00 		sw	a3,0(s7)
 206:C:/Users/stapi/OneDrive/Desktop/GD32VW553/V1_MQTT_OK/GD32VW55X_Wifi_BLE_SDK/GD32VW55x_RELEASE_V1.0.2/MSDK/plf/src\init_rom_symbol.c ****         mbedtls_ecdsa_read_signature_fn = (void *)0x0bf712fa;
 1118              		.loc 2 206 9 is_stmt 1 discriminator 3
 206:C:/Users/stapi/OneDrive/Desktop/GD32VW553/V1_MQTT_OK/GD32VW55X_Wifi_BLE_SDK/GD32VW55x_RELEASE_V1.0.2/MSDK/plf/src\init_rom_symbol.c ****         mbedtls_ecdsa_read_signature_fn = (void *)0x0bf712fa;
 1119              		.loc 2 206 31 is_stmt 0 discriminator 3
 1120 09a2 9386C738 		addi	a3,a5,908
 1121 09a6 2320DB00 		sw	a3,0(s6)
 207:C:/Users/stapi/OneDrive/Desktop/GD32VW553/V1_MQTT_OK/GD32VW55X_Wifi_BLE_SDK/GD32VW55x_RELEASE_V1.0.2/MSDK/plf/src\init_rom_symbol.c ****         mbedtls_ecdsa_read_signature_restartable_fn = (void *)0x0bf71254;
 1122              		.loc 2 207 9 is_stmt 1 discriminator 3
 207:C:/Users/stapi/OneDrive/Desktop/GD32VW553/V1_MQTT_OK/GD32VW55X_Wifi_BLE_SDK/GD32VW55x_RELEASE_V1.0.2/MSDK/plf/src\init_rom_symbol.c ****         mbedtls_ecdsa_read_signature_restartable_fn = (void *)0x0bf71254;
 1123              		.loc 2 207 41 is_stmt 0 discriminator 3
 1124 09aa 9386A72F 		addi	a3,a5,762
 1125 09ae 23A0DA00 		sw	a3,0(s5)
 208:C:/Users/stapi/OneDrive/Desktop/GD32VW553/V1_MQTT_OK/GD32VW55X_Wifi_BLE_SDK/GD32VW55x_RELEASE_V1.0.2/MSDK/plf/src\init_rom_symbol.c ****         mbedtls_ecdsa_sign_fn = (void *)0x0bf70b6e;
 1126              		.loc 2 208 9 is_stmt 1 discriminator 3
 208:C:/Users/stapi/OneDrive/Desktop/GD32VW553/V1_MQTT_OK/GD32VW55X_Wifi_BLE_SDK/GD32VW55x_RELEASE_V1.0.2/MSDK/plf/src\init_rom_symbol.c ****         mbedtls_ecdsa_sign_fn = (void *)0x0bf70b6e;
 1127              		.loc 2 208 53 is_stmt 0 discriminator 3
 1128 09b2 93864725 		addi	a3,a5,596
 1129 09b6 2320DA00 		sw	a3,0(s4)
 209:C:/Users/stapi/OneDrive/Desktop/GD32VW553/V1_MQTT_OK/GD32VW55X_Wifi_BLE_SDK/GD32VW55x_RELEASE_V1.0.2/MSDK/plf/src\init_rom_symbol.c ****         mbedtls_ecdsa_sign_det_fn = (void *)0x0bf70f2e;
 1130              		.loc 2 209 9 is_stmt 1 discriminator 3
 209:C:/Users/stapi/OneDrive/Desktop/GD32VW553/V1_MQTT_OK/GD32VW55X_Wifi_BLE_SDK/GD32VW55x_RELEASE_V1.0.2/MSDK/plf/src\init_rom_symbol.c ****         mbedtls_ecdsa_sign_det_fn = (void *)0x0bf70f2e;
 1131              		.loc 2 209 31 is_stmt 0 discriminator 3
 1132 09ba 9386E7B6 		addi	a3,a5,-1170
 1133 09be 23A0D900 		sw	a3,0(s3)
 210:C:/Users/stapi/OneDrive/Desktop/GD32VW553/V1_MQTT_OK/GD32VW55X_Wifi_BLE_SDK/GD32VW55x_RELEASE_V1.0.2/MSDK/plf/src\init_rom_symbol.c ****         mbedtls_ecdsa_verify_fn = (void *)0x0bf70f32;
 1134              		.loc 2 210 9 is_stmt 1 discriminator 3
 210:C:/Users/stapi/OneDrive/Desktop/GD32VW553/V1_MQTT_OK/GD32VW55X_Wifi_BLE_SDK/GD32VW55x_RELEASE_V1.0.2/MSDK/plf/src\init_rom_symbol.c ****         mbedtls_ecdsa_verify_fn = (void *)0x0bf70f32;
 1135              		.loc 2 210 35 is_stmt 0 discriminator 3
 1136 09c2 9386E7F2 		addi	a3,a5,-210
 213:C:/Users/stapi/OneDrive/Desktop/GD32VW553/V1_MQTT_OK/GD32VW55X_Wifi_BLE_SDK/GD32VW55x_RELEASE_V1.0.2/MSDK/plf/src\init_rom_symbol.c ****         mbedtls_ecdsa_write_signature_restartable_fn = (void *)0x0bf7115e;
 1137              		.loc 2 213 46 discriminator 3
 1138 09c6 1246     		lw	a2,4(sp)
 210:C:/Users/stapi/OneDrive/Desktop/GD32VW553/V1_MQTT_OK/GD32VW55X_Wifi_BLE_SDK/GD32VW55x_RELEASE_V1.0.2/MSDK/plf/src\init_rom_symbol.c ****         mbedtls_ecdsa_verify_fn = (void *)0x0bf70f32;
 1139              		.loc 2 210 35 discriminator 3
 1140 09c8 2320D900 		sw	a3,0(s2)
 211:C:/Users/stapi/OneDrive/Desktop/GD32VW553/V1_MQTT_OK/GD32VW55X_Wifi_BLE_SDK/GD32VW55x_RELEASE_V1.0.2/MSDK/plf/src\init_rom_symbol.c ****         mbedtls_ecdsa_write_signature_fn = (void *)0x0bf71224;
 1141              		.loc 2 211 9 is_stmt 1 discriminator 3
 211:C:/Users/stapi/OneDrive/Desktop/GD32VW553/V1_MQTT_OK/GD32VW55X_Wifi_BLE_SDK/GD32VW55x_RELEASE_V1.0.2/MSDK/plf/src\init_rom_symbol.c ****         mbedtls_ecdsa_write_signature_fn = (void *)0x0bf71224;
 1142              		.loc 2 211 33 is_stmt 0 discriminator 3
 1143 09cc 938627F3 		addi	a3,a5,-206
 1144 09d0 94C0     		sw	a3,0(s1)
 212:C:/Users/stapi/OneDrive/Desktop/GD32VW553/V1_MQTT_OK/GD32VW55X_Wifi_BLE_SDK/GD32VW55x_RELEASE_V1.0.2/MSDK/plf/src\init_rom_symbol.c ****         mbedtls_ecdsa_write_signature_det_fn = (void *)0x0bf71234;
 1145              		.loc 2 212 9 is_stmt 1 discriminator 3
 212:C:/Users/stapi/OneDrive/Desktop/GD32VW553/V1_MQTT_OK/GD32VW55X_Wifi_BLE_SDK/GD32VW55x_RELEASE_V1.0.2/MSDK/plf/src\init_rom_symbol.c ****         mbedtls_ecdsa_write_signature_det_fn = (void *)0x0bf71234;
 1146              		.loc 2 212 42 is_stmt 0 discriminator 3
 1147 09d2 93864722 		addi	a3,a5,548
 1148 09d6 14C0     		sw	a3,0(s0)
 213:C:/Users/stapi/OneDrive/Desktop/GD32VW553/V1_MQTT_OK/GD32VW55X_Wifi_BLE_SDK/GD32VW55x_RELEASE_V1.0.2/MSDK/plf/src\init_rom_symbol.c ****         mbedtls_ecdsa_write_signature_restartable_fn = (void *)0x0bf7115e;
 1149              		.loc 2 213 9 is_stmt 1 discriminator 3
 213:C:/Users/stapi/OneDrive/Desktop/GD32VW553/V1_MQTT_OK/GD32VW55X_Wifi_BLE_SDK/GD32VW55x_RELEASE_V1.0.2/MSDK/plf/src\init_rom_symbol.c ****         mbedtls_ecdsa_write_signature_restartable_fn = (void *)0x0bf7115e;
 1150              		.loc 2 213 46 is_stmt 0 discriminator 3
 1151 09d8 93864723 		addi	a3,a5,564
 1152 09dc 14C2     		sw	a3,0(a2)
 214:C:/Users/stapi/OneDrive/Desktop/GD32VW553/V1_MQTT_OK/GD32VW55X_Wifi_BLE_SDK/GD32VW55x_RELEASE_V1.0.2/MSDK/plf/src\init_rom_symbol.c ****         mbedtls_ecp_check_privkey_fn = (void *)0x0bf72a0e;
 1153              		.loc 2 214 9 is_stmt 1 discriminator 3
 214:C:/Users/stapi/OneDrive/Desktop/GD32VW553/V1_MQTT_OK/GD32VW55X_Wifi_BLE_SDK/GD32VW55x_RELEASE_V1.0.2/MSDK/plf/src\init_rom_symbol.c ****         mbedtls_ecp_check_privkey_fn = (void *)0x0bf72a0e;
 1154              		.loc 2 214 54 is_stmt 0 discriminator 3
 1155 09de A246     		lw	a3,8(sp)
 215:C:/Users/stapi/OneDrive/Desktop/GD32VW553/V1_MQTT_OK/GD32VW55X_Wifi_BLE_SDK/GD32VW55x_RELEASE_V1.0.2/MSDK/plf/src\init_rom_symbol.c ****         mbedtls_ecp_check_pub_priv_fn = (void *)0x0bf73848;
 1156              		.loc 2 215 38 discriminator 3
 1157 09e0 3246     		lw	a2,12(sp)
 214:C:/Users/stapi/OneDrive/Desktop/GD32VW553/V1_MQTT_OK/GD32VW55X_Wifi_BLE_SDK/GD32VW55x_RELEASE_V1.0.2/MSDK/plf/src\init_rom_symbol.c ****         mbedtls_ecp_check_privkey_fn = (void *)0x0bf72a0e;
 1158              		.loc 2 214 54 discriminator 3
 1159 09e2 9387E715 		addi	a5,a5,350
 1160 09e6 9CC2     		sw	a5,0(a3)
 215:C:/Users/stapi/OneDrive/Desktop/GD32VW553/V1_MQTT_OK/GD32VW55X_Wifi_BLE_SDK/GD32VW55x_RELEASE_V1.0.2/MSDK/plf/src\init_rom_symbol.c ****         mbedtls_ecp_check_pub_priv_fn = (void *)0x0bf73848;
 1161              		.loc 2 215 9 is_stmt 1 discriminator 3
 215:C:/Users/stapi/OneDrive/Desktop/GD32VW553/V1_MQTT_OK/GD32VW55X_Wifi_BLE_SDK/GD32VW55x_RELEASE_V1.0.2/MSDK/plf/src\init_rom_symbol.c ****         mbedtls_ecp_check_pub_priv_fn = (void *)0x0bf73848;
 1162              		.loc 2 215 38 is_stmt 0 discriminator 3
 1163 09e8 B736F70B 		li	a3,200749056
 1164 09ec 9387E6A0 		addi	a5,a3,-1522
 1165 09f0 1CC2     		sw	a5,0(a2)
 216:C:/Users/stapi/OneDrive/Desktop/GD32VW553/V1_MQTT_OK/GD32VW55X_Wifi_BLE_SDK/GD32VW55x_RELEASE_V1.0.2/MSDK/plf/src\init_rom_symbol.c ****         mbedtls_ecp_check_pubkey_fn = (void *)0x0bf72c78;
 1166              		.loc 2 216 9 is_stmt 1 discriminator 3
 216:C:/Users/stapi/OneDrive/Desktop/GD32VW553/V1_MQTT_OK/GD32VW55X_Wifi_BLE_SDK/GD32VW55x_RELEASE_V1.0.2/MSDK/plf/src\init_rom_symbol.c ****         mbedtls_ecp_check_pubkey_fn = (void *)0x0bf72c78;
 1167              		.loc 2 216 39 is_stmt 0 discriminator 3
 1168 09f2 4246     		lw	a2,16(sp)
 1169 09f4 93078784 		addi	a5,a4,-1976
 218:C:/Users/stapi/OneDrive/Desktop/GD32VW553/V1_MQTT_OK/GD32VW55X_Wifi_BLE_SDK/GD32VW55x_RELEASE_V1.0.2/MSDK/plf/src\init_rom_symbol.c ****         mbedtls_ecp_curve_info_from_grp_id_fn = (void *)0x0bf71d4e;
 1170              		.loc 2 218 29 discriminator 3
 1171 09f8 E245     		lw	a1,24(sp)
 216:C:/Users/stapi/OneDrive/Desktop/GD32VW553/V1_MQTT_OK/GD32VW55X_Wifi_BLE_SDK/GD32VW55x_RELEASE_V1.0.2/MSDK/plf/src\init_rom_symbol.c ****         mbedtls_ecp_check_pubkey_fn = (void *)0x0bf72c78;
 1172              		.loc 2 216 39 discriminator 3
 1173 09fa 1CC2     		sw	a5,0(a2)
 217:C:/Users/stapi/OneDrive/Desktop/GD32VW553/V1_MQTT_OK/GD32VW55X_Wifi_BLE_SDK/GD32VW55x_RELEASE_V1.0.2/MSDK/plf/src\init_rom_symbol.c ****         mbedtls_ecp_copy_fn = (void *)0x0bf71f42;
 1174              		.loc 2 217 9 is_stmt 1 discriminator 3
 217:C:/Users/stapi/OneDrive/Desktop/GD32VW553/V1_MQTT_OK/GD32VW55X_Wifi_BLE_SDK/GD32VW55x_RELEASE_V1.0.2/MSDK/plf/src\init_rom_symbol.c ****         mbedtls_ecp_copy_fn = (void *)0x0bf71f42;
 1175              		.loc 2 217 37 is_stmt 0 discriminator 3
 1176 09fc 5246     		lw	a2,20(sp)
 1177 09fe 938786C7 		addi	a5,a3,-904
 1178 0a02 1CC2     		sw	a5,0(a2)
 218:C:/Users/stapi/OneDrive/Desktop/GD32VW553/V1_MQTT_OK/GD32VW55X_Wifi_BLE_SDK/GD32VW55x_RELEASE_V1.0.2/MSDK/plf/src\init_rom_symbol.c ****         mbedtls_ecp_curve_info_from_grp_id_fn = (void *)0x0bf71d4e;
 1179              		.loc 2 218 9 is_stmt 1 discriminator 3
 218:C:/Users/stapi/OneDrive/Desktop/GD32VW553/V1_MQTT_OK/GD32VW55X_Wifi_BLE_SDK/GD32VW55x_RELEASE_V1.0.2/MSDK/plf/src\init_rom_symbol.c ****         mbedtls_ecp_curve_info_from_grp_id_fn = (void *)0x0bf71d4e;
 1180              		.loc 2 218 29 is_stmt 0 discriminator 3
 1181 0a04 B727F70B 		li	a5,200744960
 1182 0a08 138627F4 		addi	a2,a5,-190
 1183 0a0c 90C1     		sw	a2,0(a1)
 219:C:/Users/stapi/OneDrive/Desktop/GD32VW553/V1_MQTT_OK/GD32VW55X_Wifi_BLE_SDK/GD32VW55x_RELEASE_V1.0.2/MSDK/plf/src\init_rom_symbol.c ****         mbedtls_ecp_curve_info_from_name_fn = (void *)0x0bf71daa;
 1184              		.loc 2 219 9 is_stmt 1 discriminator 3
 219:C:/Users/stapi/OneDrive/Desktop/GD32VW553/V1_MQTT_OK/GD32VW55X_Wifi_BLE_SDK/GD32VW55x_RELEASE_V1.0.2/MSDK/plf/src\init_rom_symbol.c ****         mbedtls_ecp_curve_info_from_name_fn = (void *)0x0bf71daa;
 1185              		.loc 2 219 47 is_stmt 0 discriminator 3
 1186 0a0e F245     		lw	a1,28(sp)
 1187 0a10 1386E7D4 		addi	a2,a5,-690
 1188 0a14 90C1     		sw	a2,0(a1)
 220:C:/Users/stapi/OneDrive/Desktop/GD32VW553/V1_MQTT_OK/GD32VW55X_Wifi_BLE_SDK/GD32VW55x_RELEASE_V1.0.2/MSDK/plf/src\init_rom_symbol.c ****         mbedtls_ecp_curve_info_from_tls_id_fn = (void *)0x0bf71d7a;
 1189              		.loc 2 220 9 is_stmt 1 discriminator 3
 220:C:/Users/stapi/OneDrive/Desktop/GD32VW553/V1_MQTT_OK/GD32VW55X_Wifi_BLE_SDK/GD32VW55x_RELEASE_V1.0.2/MSDK/plf/src\init_rom_symbol.c ****         mbedtls_ecp_curve_info_from_tls_id_fn = (void *)0x0bf71d7a;
 1190              		.loc 2 220 45 is_stmt 0 discriminator 3
 1191 0a16 8255     		lw	a1,32(sp)
 1192 0a18 1386A7DA 		addi	a2,a5,-598
 1193 0a1c 90C1     		sw	a2,0(a1)
 221:C:/Users/stapi/OneDrive/Desktop/GD32VW553/V1_MQTT_OK/GD32VW55X_Wifi_BLE_SDK/GD32VW55x_RELEASE_V1.0.2/MSDK/plf/src\init_rom_symbol.c ****         mbedtls_ecp_curve_list_fn = (void *)0x0bf71cda;
 1194              		.loc 2 221 9 is_stmt 1 discriminator 3
 221:C:/Users/stapi/OneDrive/Desktop/GD32VW553/V1_MQTT_OK/GD32VW55X_Wifi_BLE_SDK/GD32VW55x_RELEASE_V1.0.2/MSDK/plf/src\init_rom_symbol.c ****         mbedtls_ecp_curve_list_fn = (void *)0x0bf71cda;
 1195              		.loc 2 221 47 is_stmt 0 discriminator 3
 1196 0a1e 9255     		lw	a1,36(sp)
 1197 0a20 1386A7D7 		addi	a2,a5,-646
 1198 0a24 90C1     		sw	a2,0(a1)
 222:C:/Users/stapi/OneDrive/Desktop/GD32VW553/V1_MQTT_OK/GD32VW55X_Wifi_BLE_SDK/GD32VW55x_RELEASE_V1.0.2/MSDK/plf/src\init_rom_symbol.c ****         mbedtls_ecp_gen_key_fn = (void *)0x0bf73802;
 1199              		.loc 2 222 9 is_stmt 1 discriminator 3
 222:C:/Users/stapi/OneDrive/Desktop/GD32VW553/V1_MQTT_OK/GD32VW55X_Wifi_BLE_SDK/GD32VW55x_RELEASE_V1.0.2/MSDK/plf/src\init_rom_symbol.c ****         mbedtls_ecp_gen_key_fn = (void *)0x0bf73802;
 1200              		.loc 2 222 35 is_stmt 0 discriminator 3
 1201 0a26 A255     		lw	a1,40(sp)
 1202 0a28 1386A7CD 		addi	a2,a5,-806
 1203 0a2c 90C1     		sw	a2,0(a1)
 223:C:/Users/stapi/OneDrive/Desktop/GD32VW553/V1_MQTT_OK/GD32VW55X_Wifi_BLE_SDK/GD32VW55x_RELEASE_V1.0.2/MSDK/plf/src\init_rom_symbol.c ****         mbedtls_ecp_gen_keypair_fn = (void *)0x0bf737f2;
 1204              		.loc 2 223 9 is_stmt 1 discriminator 3
 223:C:/Users/stapi/OneDrive/Desktop/GD32VW553/V1_MQTT_OK/GD32VW55X_Wifi_BLE_SDK/GD32VW55x_RELEASE_V1.0.2/MSDK/plf/src\init_rom_symbol.c ****         mbedtls_ecp_gen_keypair_fn = (void *)0x0bf737f2;
 1205              		.loc 2 223 32 is_stmt 0 discriminator 3
 1206 0a2e B255     		lw	a1,44(sp)
 1207 0a30 13062780 		addi	a2,a4,-2046
 1208 0a34 90C1     		sw	a2,0(a1)
 224:C:/Users/stapi/OneDrive/Desktop/GD32VW553/V1_MQTT_OK/GD32VW55X_Wifi_BLE_SDK/GD32VW55x_RELEASE_V1.0.2/MSDK/plf/src\init_rom_symbol.c ****         mbedtls_ecp_gen_keypair_base_fn = (void *)0x0bf73796;
 1209              		.loc 2 224 9 is_stmt 1 discriminator 3
 224:C:/Users/stapi/OneDrive/Desktop/GD32VW553/V1_MQTT_OK/GD32VW55X_Wifi_BLE_SDK/GD32VW55x_RELEASE_V1.0.2/MSDK/plf/src\init_rom_symbol.c ****         mbedtls_ecp_gen_keypair_base_fn = (void *)0x0bf73796;
 1210              		.loc 2 224 36 is_stmt 0 discriminator 3
 1211 0a36 C255     		lw	a1,48(sp)
 1212 0a38 1386267F 		addi	a2,a3,2034
 1213 0a3c 90C1     		sw	a2,0(a1)
 225:C:/Users/stapi/OneDrive/Desktop/GD32VW553/V1_MQTT_OK/GD32VW55X_Wifi_BLE_SDK/GD32VW55x_RELEASE_V1.0.2/MSDK/plf/src\init_rom_symbol.c ****         mbedtls_ecp_gen_privkey_fn = (void *)0x0bf72a8c;
 1214              		.loc 2 225 9 is_stmt 1 discriminator 3
 225:C:/Users/stapi/OneDrive/Desktop/GD32VW553/V1_MQTT_OK/GD32VW55X_Wifi_BLE_SDK/GD32VW55x_RELEASE_V1.0.2/MSDK/plf/src\init_rom_symbol.c ****         mbedtls_ecp_gen_privkey_fn = (void *)0x0bf72a8c;
 1215              		.loc 2 225 41 is_stmt 0 discriminator 3
 1216 0a3e D255     		lw	a1,52(sp)
 1217 0a40 13866679 		addi	a2,a3,1942
 1218 0a44 90C1     		sw	a2,0(a1)
 226:C:/Users/stapi/OneDrive/Desktop/GD32VW553/V1_MQTT_OK/GD32VW55X_Wifi_BLE_SDK/GD32VW55x_RELEASE_V1.0.2/MSDK/plf/src\init_rom_symbol.c ****         mbedtls_ecp_group_copy_fn = (void *)0x0bf71f80;
 1219              		.loc 2 226 9 is_stmt 1 discriminator 3
 226:C:/Users/stapi/OneDrive/Desktop/GD32VW553/V1_MQTT_OK/GD32VW55X_Wifi_BLE_SDK/GD32VW55x_RELEASE_V1.0.2/MSDK/plf/src\init_rom_symbol.c ****         mbedtls_ecp_group_copy_fn = (void *)0x0bf71f80;
 1220              		.loc 2 226 36 is_stmt 0 discriminator 3
 1221 0a46 E255     		lw	a1,56(sp)
 1222 0a48 1386C6A8 		addi	a2,a3,-1396
 1223 0a4c 90C1     		sw	a2,0(a1)
 227:C:/Users/stapi/OneDrive/Desktop/GD32VW553/V1_MQTT_OK/GD32VW55X_Wifi_BLE_SDK/GD32VW55x_RELEASE_V1.0.2/MSDK/plf/src\init_rom_symbol.c ****         mbedtls_ecp_group_free_fn = (void *)0x0bf71e9c;
 1224              		.loc 2 227 9 is_stmt 1 discriminator 3
 227:C:/Users/stapi/OneDrive/Desktop/GD32VW553/V1_MQTT_OK/GD32VW55X_Wifi_BLE_SDK/GD32VW55x_RELEASE_V1.0.2/MSDK/plf/src\init_rom_symbol.c ****         mbedtls_ecp_group_free_fn = (void *)0x0bf71e9c;
 1225              		.loc 2 227 35 is_stmt 0 discriminator 3
 1226 0a4e F255     		lw	a1,60(sp)
 1227 0a50 138607F8 		addi	a2,a5,-128
 1228 0a54 90C1     		sw	a2,0(a1)
 228:C:/Users/stapi/OneDrive/Desktop/GD32VW553/V1_MQTT_OK/GD32VW55X_Wifi_BLE_SDK/GD32VW55x_RELEASE_V1.0.2/MSDK/plf/src\init_rom_symbol.c ****         mbedtls_ecp_group_init_fn = (void *)0x0bf71e14;
 1229              		.loc 2 228 9 is_stmt 1 discriminator 3
 228:C:/Users/stapi/OneDrive/Desktop/GD32VW553/V1_MQTT_OK/GD32VW55X_Wifi_BLE_SDK/GD32VW55x_RELEASE_V1.0.2/MSDK/plf/src\init_rom_symbol.c ****         mbedtls_ecp_group_init_fn = (void *)0x0bf71e14;
 1230              		.loc 2 228 35 is_stmt 0 discriminator 3
 1231 0a56 8645     		lw	a1,64(sp)
 1232 0a58 1386C7E9 		addi	a2,a5,-356
 1233 0a5c 90C1     		sw	a2,0(a1)
 229:C:/Users/stapi/OneDrive/Desktop/GD32VW553/V1_MQTT_OK/GD32VW55X_Wifi_BLE_SDK/GD32VW55x_RELEASE_V1.0.2/MSDK/plf/src\init_rom_symbol.c ****         mbedtls_ecp_grp_id_list_fn = (void *)0x0bf71d02;
 1234              		.loc 2 229 9 is_stmt 1 discriminator 3
 229:C:/Users/stapi/OneDrive/Desktop/GD32VW553/V1_MQTT_OK/GD32VW55X_Wifi_BLE_SDK/GD32VW55x_RELEASE_V1.0.2/MSDK/plf/src\init_rom_symbol.c ****         mbedtls_ecp_grp_id_list_fn = (void *)0x0bf71d02;
 1235              		.loc 2 229 35 is_stmt 0 discriminator 3
 1236 0a5e 9645     		lw	a1,68(sp)
 1237 0a60 138647E1 		addi	a2,a5,-492
 1238 0a64 90C1     		sw	a2,0(a1)
 230:C:/Users/stapi/OneDrive/Desktop/GD32VW553/V1_MQTT_OK/GD32VW55X_Wifi_BLE_SDK/GD32VW55x_RELEASE_V1.0.2/MSDK/plf/src\init_rom_symbol.c ****         mbedtls_ecp_is_zero_fn = (void *)0x0bf726b4;
 1239              		.loc 2 230 9 is_stmt 1 discriminator 3
 230:C:/Users/stapi/OneDrive/Desktop/GD32VW553/V1_MQTT_OK/GD32VW55X_Wifi_BLE_SDK/GD32VW55x_RELEASE_V1.0.2/MSDK/plf/src\init_rom_symbol.c ****         mbedtls_ecp_is_zero_fn = (void *)0x0bf726b4;
 1240              		.loc 2 230 36 is_stmt 0 discriminator 3
 1241 0a66 A645     		lw	a1,72(sp)
 1242 0a68 138627D0 		addi	a2,a5,-766
 1243 0a6c 90C1     		sw	a2,0(a1)
 231:C:/Users/stapi/OneDrive/Desktop/GD32VW553/V1_MQTT_OK/GD32VW55X_Wifi_BLE_SDK/GD32VW55x_RELEASE_V1.0.2/MSDK/plf/src\init_rom_symbol.c ****         mbedtls_ecp_keypair_free_fn = (void *)0x0bf71f1c;
 1244              		.loc 2 231 9 is_stmt 1 discriminator 3
 231:C:/Users/stapi/OneDrive/Desktop/GD32VW553/V1_MQTT_OK/GD32VW55X_Wifi_BLE_SDK/GD32VW55x_RELEASE_V1.0.2/MSDK/plf/src\init_rom_symbol.c ****         mbedtls_ecp_keypair_free_fn = (void *)0x0bf71f1c;
 1245              		.loc 2 231 32 is_stmt 0 discriminator 3
 1246 0a6e B645     		lw	a1,76(sp)
 1247 0a70 1386476B 		addi	a2,a5,1716
 1248 0a74 90C1     		sw	a2,0(a1)
 232:C:/Users/stapi/OneDrive/Desktop/GD32VW553/V1_MQTT_OK/GD32VW55X_Wifi_BLE_SDK/GD32VW55x_RELEASE_V1.0.2/MSDK/plf/src\init_rom_symbol.c ****         mbedtls_ecp_keypair_init_fn = (void *)0x0bf71e72;
 1249              		.loc 2 232 9 is_stmt 1 discriminator 3
 232:C:/Users/stapi/OneDrive/Desktop/GD32VW553/V1_MQTT_OK/GD32VW55X_Wifi_BLE_SDK/GD32VW55x_RELEASE_V1.0.2/MSDK/plf/src\init_rom_symbol.c ****         mbedtls_ecp_keypair_init_fn = (void *)0x0bf71e72;
 1250              		.loc 2 232 37 is_stmt 0 discriminator 3
 1251 0a76 C645     		lw	a1,80(sp)
 1252 0a78 1386C7F1 		addi	a2,a5,-228
 1253 0a7c 90C1     		sw	a2,0(a1)
 233:C:/Users/stapi/OneDrive/Desktop/GD32VW553/V1_MQTT_OK/GD32VW55X_Wifi_BLE_SDK/GD32VW55x_RELEASE_V1.0.2/MSDK/plf/src\init_rom_symbol.c ****         mbedtls_ecp_mul_fn = (void *)0x0bf73790;
 1254              		.loc 2 233 9 is_stmt 1 discriminator 3
 233:C:/Users/stapi/OneDrive/Desktop/GD32VW553/V1_MQTT_OK/GD32VW55X_Wifi_BLE_SDK/GD32VW55x_RELEASE_V1.0.2/MSDK/plf/src\init_rom_symbol.c ****         mbedtls_ecp_mul_fn = (void *)0x0bf73790;
 1255              		.loc 2 233 37 is_stmt 0 discriminator 3
 1256 0a7e D645     		lw	a1,84(sp)
 1257 0a80 138627E7 		addi	a2,a5,-398
 1258 0a84 90C1     		sw	a2,0(a1)
 234:C:/Users/stapi/OneDrive/Desktop/GD32VW553/V1_MQTT_OK/GD32VW55X_Wifi_BLE_SDK/GD32VW55x_RELEASE_V1.0.2/MSDK/plf/src\init_rom_symbol.c ****         mbedtls_ecp_mul_restartable_fn = (void *)0x0bf72ebc;
 1259              		.loc 2 234 9 is_stmt 1 discriminator 3
 234:C:/Users/stapi/OneDrive/Desktop/GD32VW553/V1_MQTT_OK/GD32VW55X_Wifi_BLE_SDK/GD32VW55x_RELEASE_V1.0.2/MSDK/plf/src\init_rom_symbol.c ****         mbedtls_ecp_mul_restartable_fn = (void *)0x0bf72ebc;
 1260              		.loc 2 234 28 is_stmt 0 discriminator 3
 1261 0a86 E645     		lw	a1,88(sp)
 1262 0a88 13860679 		addi	a2,a3,1936
 1263 0a8c 90C1     		sw	a2,0(a1)
 235:C:/Users/stapi/OneDrive/Desktop/GD32VW553/V1_MQTT_OK/GD32VW55X_Wifi_BLE_SDK/GD32VW55x_RELEASE_V1.0.2/MSDK/plf/src\init_rom_symbol.c ****         mbedtls_ecp_muladd_fn = (void *)0x0bf73a52;
 1264              		.loc 2 235 9 is_stmt 1 discriminator 3
 235:C:/Users/stapi/OneDrive/Desktop/GD32VW553/V1_MQTT_OK/GD32VW55X_Wifi_BLE_SDK/GD32VW55x_RELEASE_V1.0.2/MSDK/plf/src\init_rom_symbol.c ****         mbedtls_ecp_muladd_fn = (void *)0x0bf73a52;
 1265              		.loc 2 235 40 is_stmt 0 discriminator 3
 1266 0a8e F645     		lw	a1,92(sp)
 1267 0a90 1386C6EB 		addi	a2,a3,-324
 1268 0a94 90C1     		sw	a2,0(a1)
 236:C:/Users/stapi/OneDrive/Desktop/GD32VW553/V1_MQTT_OK/GD32VW55X_Wifi_BLE_SDK/GD32VW55x_RELEASE_V1.0.2/MSDK/plf/src\init_rom_symbol.c ****         mbedtls_ecp_muladd_restartable_fn = (void *)0x0bf73a36;
 1269              		.loc 2 236 9 is_stmt 1 discriminator 3
 236:C:/Users/stapi/OneDrive/Desktop/GD32VW553/V1_MQTT_OK/GD32VW55X_Wifi_BLE_SDK/GD32VW55x_RELEASE_V1.0.2/MSDK/plf/src\init_rom_symbol.c ****         mbedtls_ecp_muladd_restartable_fn = (void *)0x0bf73a36;
 1270              		.loc 2 236 31 is_stmt 0 discriminator 3
 1271 0a96 8655     		lw	a1,96(sp)
 1272 0a98 130627A5 		addi	a2,a4,-1454
 1273 0a9c 90C1     		sw	a2,0(a1)
 237:C:/Users/stapi/OneDrive/Desktop/GD32VW553/V1_MQTT_OK/GD32VW55X_Wifi_BLE_SDK/GD32VW55x_RELEASE_V1.0.2/MSDK/plf/src\init_rom_symbol.c ****         mbedtls_ecp_point_cmp_fn = (void *)0x0bf726ca;
 1274              		.loc 2 237 9 is_stmt 1 discriminator 3
 237:C:/Users/stapi/OneDrive/Desktop/GD32VW553/V1_MQTT_OK/GD32VW55X_Wifi_BLE_SDK/GD32VW55x_RELEASE_V1.0.2/MSDK/plf/src\init_rom_symbol.c ****         mbedtls_ecp_point_cmp_fn = (void *)0x0bf726ca;
 1275              		.loc 2 237 43 is_stmt 0 discriminator 3
 1276 0a9e 9655     		lw	a1,100(sp)
 1277 0aa0 130667A3 		addi	a2,a4,-1482
 1278 0aa4 90C1     		sw	a2,0(a1)
 238:C:/Users/stapi/OneDrive/Desktop/GD32VW553/V1_MQTT_OK/GD32VW55X_Wifi_BLE_SDK/GD32VW55x_RELEASE_V1.0.2/MSDK/plf/src\init_rom_symbol.c ****         mbedtls_ecp_point_free_fn = (void *)0x0bf71e94;
 1279              		.loc 2 238 9 is_stmt 1 discriminator 3
 238:C:/Users/stapi/OneDrive/Desktop/GD32VW553/V1_MQTT_OK/GD32VW55X_Wifi_BLE_SDK/GD32VW55x_RELEASE_V1.0.2/MSDK/plf/src\init_rom_symbol.c ****         mbedtls_ecp_point_free_fn = (void *)0x0bf71e94;
 1280              		.loc 2 238 34 is_stmt 0 discriminator 3
 1281 0aa6 A655     		lw	a1,104(sp)
 1282 0aa8 1386A76C 		addi	a2,a5,1738
 1283 0aac 90C1     		sw	a2,0(a1)
 239:C:/Users/stapi/OneDrive/Desktop/GD32VW553/V1_MQTT_OK/GD32VW55X_Wifi_BLE_SDK/GD32VW55x_RELEASE_V1.0.2/MSDK/plf/src\init_rom_symbol.c ****         mbedtls_ecp_point_init_fn = (void *)0x0bf71df2;
 1284              		.loc 2 239 9 is_stmt 1 discriminator 3
 239:C:/Users/stapi/OneDrive/Desktop/GD32VW553/V1_MQTT_OK/GD32VW55X_Wifi_BLE_SDK/GD32VW55x_RELEASE_V1.0.2/MSDK/plf/src\init_rom_symbol.c ****         mbedtls_ecp_point_init_fn = (void *)0x0bf71df2;
 1285              		.loc 2 239 35 is_stmt 0 discriminator 3
 1286 0aae B655     		lw	a1,108(sp)
 1287 0ab0 138647E9 		addi	a2,a5,-364
 1288 0ab4 90C1     		sw	a2,0(a1)
 240:C:/Users/stapi/OneDrive/Desktop/GD32VW553/V1_MQTT_OK/GD32VW55X_Wifi_BLE_SDK/GD32VW55x_RELEASE_V1.0.2/MSDK/plf/src\init_rom_symbol.c ****         mbedtls_ecp_point_read_binary_fn = (void *)0x0bf72824;
 1289              		.loc 2 240 9 is_stmt 1 discriminator 3
 240:C:/Users/stapi/OneDrive/Desktop/GD32VW553/V1_MQTT_OK/GD32VW55X_Wifi_BLE_SDK/GD32VW55x_RELEASE_V1.0.2/MSDK/plf/src\init_rom_symbol.c ****         mbedtls_ecp_point_read_binary_fn = (void *)0x0bf72824;
 1290              		.loc 2 240 35 is_stmt 0 discriminator 3
 1291 0ab6 C655     		lw	a1,112(sp)
 1292 0ab8 138627DF 		addi	a2,a5,-526
 1293 0abc 90C1     		sw	a2,0(a1)
 241:C:/Users/stapi/OneDrive/Desktop/GD32VW553/V1_MQTT_OK/GD32VW55X_Wifi_BLE_SDK/GD32VW55x_RELEASE_V1.0.2/MSDK/plf/src\init_rom_symbol.c ****         mbedtls_ecp_point_read_string_fn = (void *)0x0bf72712;
 1294              		.loc 2 241 9 is_stmt 1 discriminator 3
 241:C:/Users/stapi/OneDrive/Desktop/GD32VW553/V1_MQTT_OK/GD32VW55X_Wifi_BLE_SDK/GD32VW55x_RELEASE_V1.0.2/MSDK/plf/src\init_rom_symbol.c ****         mbedtls_ecp_point_read_string_fn = (void *)0x0bf72712;
 1295              		.loc 2 241 42 is_stmt 0 discriminator 3
 1296 0abe D655     		lw	a1,116(sp)
 1297 0ac0 13864682 		addi	a2,a3,-2012
 1298 0ac4 90C1     		sw	a2,0(a1)
 242:C:/Users/stapi/OneDrive/Desktop/GD32VW553/V1_MQTT_OK/GD32VW55X_Wifi_BLE_SDK/GD32VW55x_RELEASE_V1.0.2/MSDK/plf/src\init_rom_symbol.c ****         mbedtls_ecp_point_write_binary_fn = (void *)0x0bf72756;
 1299              		.loc 2 242 9 is_stmt 1 discriminator 3
 242:C:/Users/stapi/OneDrive/Desktop/GD32VW553/V1_MQTT_OK/GD32VW55X_Wifi_BLE_SDK/GD32VW55x_RELEASE_V1.0.2/MSDK/plf/src\init_rom_symbol.c ****         mbedtls_ecp_point_write_binary_fn = (void *)0x0bf72756;
 1300              		.loc 2 242 42 is_stmt 0 discriminator 3
 1301 0ac6 E655     		lw	a1,120(sp)
 1302 0ac8 13862771 		addi	a2,a5,1810
 1303 0acc 90C1     		sw	a2,0(a1)
 243:C:/Users/stapi/OneDrive/Desktop/GD32VW553/V1_MQTT_OK/GD32VW55X_Wifi_BLE_SDK/GD32VW55x_RELEASE_V1.0.2/MSDK/plf/src\init_rom_symbol.c ****         mbedtls_ecp_set_zero_fn = (void *)0x0bf71f86;
 1304              		.loc 2 243 9 is_stmt 1 discriminator 3
 243:C:/Users/stapi/OneDrive/Desktop/GD32VW553/V1_MQTT_OK/GD32VW55X_Wifi_BLE_SDK/GD32VW55x_RELEASE_V1.0.2/MSDK/plf/src\init_rom_symbol.c ****         mbedtls_ecp_set_zero_fn = (void *)0x0bf71f86;
 1305              		.loc 2 243 43 is_stmt 0 discriminator 3
 1306 0ace F655     		lw	a1,124(sp)
 1307 0ad0 13866775 		addi	a2,a5,1878
 244:C:/Users/stapi/OneDrive/Desktop/GD32VW553/V1_MQTT_OK/GD32VW55X_Wifi_BLE_SDK/GD32VW55x_RELEASE_V1.0.2/MSDK/plf/src\init_rom_symbol.c ****         mbedtls_ecp_tls_read_group_fn = (void *)0x0bf72994;
 1308              		.loc 2 244 33 discriminator 3
 1309 0ad4 938767F8 		addi	a5,a5,-122
 243:C:/Users/stapi/OneDrive/Desktop/GD32VW553/V1_MQTT_OK/GD32VW55X_Wifi_BLE_SDK/GD32VW55x_RELEASE_V1.0.2/MSDK/plf/src\init_rom_symbol.c ****         mbedtls_ecp_set_zero_fn = (void *)0x0bf71f86;
 1310              		.loc 2 243 43 discriminator 3
 1311 0ad8 90C1     		sw	a2,0(a1)
 244:C:/Users/stapi/OneDrive/Desktop/GD32VW553/V1_MQTT_OK/GD32VW55X_Wifi_BLE_SDK/GD32VW55x_RELEASE_V1.0.2/MSDK/plf/src\init_rom_symbol.c ****         mbedtls_ecp_tls_read_group_fn = (void *)0x0bf72994;
 1312              		.loc 2 244 9 is_stmt 1 discriminator 3
 244:C:/Users/stapi/OneDrive/Desktop/GD32VW553/V1_MQTT_OK/GD32VW55X_Wifi_BLE_SDK/GD32VW55x_RELEASE_V1.0.2/MSDK/plf/src\init_rom_symbol.c ****         mbedtls_ecp_tls_read_group_fn = (void *)0x0bf72994;
 1313              		.loc 2 244 33 is_stmt 0 discriminator 3
 1314 0ada 0A46     		lw	a2,128(sp)
 252:C:/Users/stapi/OneDrive/Desktop/GD32VW553/V1_MQTT_OK/GD32VW55X_Wifi_BLE_SDK/GD32VW55x_RELEASE_V1.0.2/MSDK/plf/src\init_rom_symbol.c ****         mbedtls_md5_clone_fn = (void *)0x0bf76468;
 1315              		.loc 2 252 24 discriminator 3
 1316 0adc 8A55     		lw	a1,160(sp)
 244:C:/Users/stapi/OneDrive/Desktop/GD32VW553/V1_MQTT_OK/GD32VW55X_Wifi_BLE_SDK/GD32VW55x_RELEASE_V1.0.2/MSDK/plf/src\init_rom_symbol.c ****         mbedtls_ecp_tls_read_group_fn = (void *)0x0bf72994;
 1317              		.loc 2 244 33 discriminator 3
 1318 0ade 1CC2     		sw	a5,0(a2)
 245:C:/Users/stapi/OneDrive/Desktop/GD32VW553/V1_MQTT_OK/GD32VW55X_Wifi_BLE_SDK/GD32VW55x_RELEASE_V1.0.2/MSDK/plf/src\init_rom_symbol.c ****         mbedtls_ecp_tls_read_group_id_fn = (void *)0x0bf7292c;
 1319              		.loc 2 245 9 is_stmt 1 discriminator 3
 245:C:/Users/stapi/OneDrive/Desktop/GD32VW553/V1_MQTT_OK/GD32VW55X_Wifi_BLE_SDK/GD32VW55x_RELEASE_V1.0.2/MSDK/plf/src\init_rom_symbol.c ****         mbedtls_ecp_tls_read_group_id_fn = (void *)0x0bf7292c;
 1320              		.loc 2 245 39 is_stmt 0 discriminator 3
 1321 0ae0 1A46     		lw	a2,132(sp)
 1322 0ae2 93874699 		addi	a5,a3,-1644
 1323 0ae6 1CC2     		sw	a5,0(a2)
 246:C:/Users/stapi/OneDrive/Desktop/GD32VW553/V1_MQTT_OK/GD32VW55X_Wifi_BLE_SDK/GD32VW55x_RELEASE_V1.0.2/MSDK/plf/src\init_rom_symbol.c ****         mbedtls_ecp_tls_read_point_fn = (void *)0x0bf728c2;
 1324              		.loc 2 246 9 is_stmt 1 discriminator 3
 246:C:/Users/stapi/OneDrive/Desktop/GD32VW553/V1_MQTT_OK/GD32VW55X_Wifi_BLE_SDK/GD32VW55x_RELEASE_V1.0.2/MSDK/plf/src\init_rom_symbol.c ****         mbedtls_ecp_tls_read_point_fn = (void *)0x0bf728c2;
 1325              		.loc 2 246 42 is_stmt 0 discriminator 3
 1326 0ae8 2A46     		lw	a2,136(sp)
 1327 0aea 9387C692 		addi	a5,a3,-1748
 1328 0aee 1CC2     		sw	a5,0(a2)
 247:C:/Users/stapi/OneDrive/Desktop/GD32VW553/V1_MQTT_OK/GD32VW55X_Wifi_BLE_SDK/GD32VW55x_RELEASE_V1.0.2/MSDK/plf/src\init_rom_symbol.c ****         mbedtls_ecp_tls_write_group_fn = (void *)0x0bf729b4;
 1329              		.loc 2 247 9 is_stmt 1 discriminator 3
 247:C:/Users/stapi/OneDrive/Desktop/GD32VW553/V1_MQTT_OK/GD32VW55X_Wifi_BLE_SDK/GD32VW55x_RELEASE_V1.0.2/MSDK/plf/src\init_rom_symbol.c ****         mbedtls_ecp_tls_write_group_fn = (void *)0x0bf729b4;
 1330              		.loc 2 247 39 is_stmt 0 discriminator 3
 1331 0af0 3A46     		lw	a2,140(sp)
 1332 0af2 9387268C 		addi	a5,a3,-1854
 1333 0af6 1CC2     		sw	a5,0(a2)
 248:C:/Users/stapi/OneDrive/Desktop/GD32VW553/V1_MQTT_OK/GD32VW55X_Wifi_BLE_SDK/GD32VW55x_RELEASE_V1.0.2/MSDK/plf/src\init_rom_symbol.c ****         mbedtls_ecp_tls_write_point_fn = (void *)0x0bf728f6;
 1334              		.loc 2 248 9 is_stmt 1 discriminator 3
 248:C:/Users/stapi/OneDrive/Desktop/GD32VW553/V1_MQTT_OK/GD32VW55X_Wifi_BLE_SDK/GD32VW55x_RELEASE_V1.0.2/MSDK/plf/src\init_rom_symbol.c ****         mbedtls_ecp_tls_write_point_fn = (void *)0x0bf728f6;
 1335              		.loc 2 248 40 is_stmt 0 discriminator 3
 1336 0af8 4A46     		lw	a2,144(sp)
 1337 0afa 9387469B 		addi	a5,a3,-1612
 249:C:/Users/stapi/OneDrive/Desktop/GD32VW553/V1_MQTT_OK/GD32VW55X_Wifi_BLE_SDK/GD32VW55x_RELEASE_V1.0.2/MSDK/plf/src\init_rom_symbol.c ****         mbedtls_internal_md5_process_fn = (void *)0x0bf764d6;
 1338              		.loc 2 249 40 discriminator 3
 1339 0afe 9386668F 		addi	a3,a3,-1802
 248:C:/Users/stapi/OneDrive/Desktop/GD32VW553/V1_MQTT_OK/GD32VW55X_Wifi_BLE_SDK/GD32VW55x_RELEASE_V1.0.2/MSDK/plf/src\init_rom_symbol.c ****         mbedtls_ecp_tls_write_point_fn = (void *)0x0bf728f6;
 1340              		.loc 2 248 40 discriminator 3
 1341 0b02 1CC2     		sw	a5,0(a2)
 249:C:/Users/stapi/OneDrive/Desktop/GD32VW553/V1_MQTT_OK/GD32VW55X_Wifi_BLE_SDK/GD32VW55x_RELEASE_V1.0.2/MSDK/plf/src\init_rom_symbol.c ****         mbedtls_internal_md5_process_fn = (void *)0x0bf764d6;
 1342              		.loc 2 249 9 is_stmt 1 discriminator 3
 249:C:/Users/stapi/OneDrive/Desktop/GD32VW553/V1_MQTT_OK/GD32VW55X_Wifi_BLE_SDK/GD32VW55x_RELEASE_V1.0.2/MSDK/plf/src\init_rom_symbol.c ****         mbedtls_internal_md5_process_fn = (void *)0x0bf764d6;
 1343              		.loc 2 249 40 is_stmt 0 discriminator 3
 1344 0b04 DA47     		lw	a5,148(sp)
 250:C:/Users/stapi/OneDrive/Desktop/GD32VW553/V1_MQTT_OK/GD32VW55X_Wifi_BLE_SDK/GD32VW55x_RELEASE_V1.0.2/MSDK/plf/src\init_rom_symbol.c ****         mbedtls_internal_sha256_process_fn = (void *)0x0bf76312;
 1345              		.loc 2 250 41 discriminator 3
 1346 0b06 6A46     		lw	a2,152(sp)
 249:C:/Users/stapi/OneDrive/Desktop/GD32VW553/V1_MQTT_OK/GD32VW55X_Wifi_BLE_SDK/GD32VW55x_RELEASE_V1.0.2/MSDK/plf/src\init_rom_symbol.c ****         mbedtls_internal_md5_process_fn = (void *)0x0bf764d6;
 1347              		.loc 2 249 40 discriminator 3
 1348 0b08 94C3     		sw	a3,0(a5)
 250:C:/Users/stapi/OneDrive/Desktop/GD32VW553/V1_MQTT_OK/GD32VW55X_Wifi_BLE_SDK/GD32VW55x_RELEASE_V1.0.2/MSDK/plf/src\init_rom_symbol.c ****         mbedtls_internal_sha256_process_fn = (void *)0x0bf76312;
 1349              		.loc 2 250 9 is_stmt 1 discriminator 3
 250:C:/Users/stapi/OneDrive/Desktop/GD32VW553/V1_MQTT_OK/GD32VW55X_Wifi_BLE_SDK/GD32VW55x_RELEASE_V1.0.2/MSDK/plf/src\init_rom_symbol.c ****         mbedtls_internal_sha256_process_fn = (void *)0x0bf76312;
 1350              		.loc 2 250 41 is_stmt 0 discriminator 3
 1351 0b0a B767F70B 		li	a5,200761344
 1352 0b0e 9386674D 		addi	a3,a5,1238
 1353 0b12 14C2     		sw	a3,0(a2)
 251:C:/Users/stapi/OneDrive/Desktop/GD32VW553/V1_MQTT_OK/GD32VW55X_Wifi_BLE_SDK/GD32VW55x_RELEASE_V1.0.2/MSDK/plf/src\init_rom_symbol.c ****         mbedtls_md5_fn = (void *)0x0bf77352;
 1354              		.loc 2 251 9 is_stmt 1 discriminator 3
 251:C:/Users/stapi/OneDrive/Desktop/GD32VW553/V1_MQTT_OK/GD32VW55X_Wifi_BLE_SDK/GD32VW55x_RELEASE_V1.0.2/MSDK/plf/src\init_rom_symbol.c ****         mbedtls_md5_fn = (void *)0x0bf77352;
 1355              		.loc 2 251 44 is_stmt 0 discriminator 3
 1356 0b14 7A46     		lw	a2,156(sp)
 1357 0b16 93862731 		addi	a3,a5,786
 1358 0b1a 14C2     		sw	a3,0(a2)
 252:C:/Users/stapi/OneDrive/Desktop/GD32VW553/V1_MQTT_OK/GD32VW55X_Wifi_BLE_SDK/GD32VW55x_RELEASE_V1.0.2/MSDK/plf/src\init_rom_symbol.c ****         mbedtls_md5_clone_fn = (void *)0x0bf76468;
 1359              		.loc 2 252 9 is_stmt 1 discriminator 3
 252:C:/Users/stapi/OneDrive/Desktop/GD32VW553/V1_MQTT_OK/GD32VW55X_Wifi_BLE_SDK/GD32VW55x_RELEASE_V1.0.2/MSDK/plf/src\init_rom_symbol.c ****         mbedtls_md5_clone_fn = (void *)0x0bf76468;
 1360              		.loc 2 252 24 is_stmt 0 discriminator 3
 1361 0b1c B776F70B 		li	a3,200765440
 1362 0b20 13862635 		addi	a2,a3,850
 1363 0b24 90C1     		sw	a2,0(a1)
 253:C:/Users/stapi/OneDrive/Desktop/GD32VW553/V1_MQTT_OK/GD32VW55X_Wifi_BLE_SDK/GD32VW55x_RELEASE_V1.0.2/MSDK/plf/src\init_rom_symbol.c ****         mbedtls_md5_finish_fn = (void *)0x0bf7731c;
 1364              		.loc 2 253 9 is_stmt 1 discriminator 3
 253:C:/Users/stapi/OneDrive/Desktop/GD32VW553/V1_MQTT_OK/GD32VW55X_Wifi_BLE_SDK/GD32VW55x_RELEASE_V1.0.2/MSDK/plf/src\init_rom_symbol.c ****         mbedtls_md5_finish_fn = (void *)0x0bf7731c;
 1365              		.loc 2 253 30 is_stmt 0 discriminator 3
 1366 0b26 9A55     		lw	a1,164(sp)
 1367 0b28 13868746 		addi	a2,a5,1128
 1368 0b2c 90C1     		sw	a2,0(a1)
 254:C:/Users/stapi/OneDrive/Desktop/GD32VW553/V1_MQTT_OK/GD32VW55X_Wifi_BLE_SDK/GD32VW55x_RELEASE_V1.0.2/MSDK/plf/src\init_rom_symbol.c ****         mbedtls_md5_finish_ret_fn = (void *)0x0bf7721e;
 1369              		.loc 2 254 9 is_stmt 1 discriminator 3
 254:C:/Users/stapi/OneDrive/Desktop/GD32VW553/V1_MQTT_OK/GD32VW55X_Wifi_BLE_SDK/GD32VW55x_RELEASE_V1.0.2/MSDK/plf/src\init_rom_symbol.c ****         mbedtls_md5_finish_ret_fn = (void *)0x0bf7721e;
 1370              		.loc 2 254 31 is_stmt 0 discriminator 3
 1371 0b2e AA55     		lw	a1,168(sp)
 1372 0b30 1386C631 		addi	a2,a3,796
 1373 0b34 90C1     		sw	a2,0(a1)
 255:C:/Users/stapi/OneDrive/Desktop/GD32VW553/V1_MQTT_OK/GD32VW55X_Wifi_BLE_SDK/GD32VW55x_RELEASE_V1.0.2/MSDK/plf/src\init_rom_symbol.c ****         mbedtls_md5_free_fn = (void *)0x0bf7645c;
 1374              		.loc 2 255 9 is_stmt 1 discriminator 3
 255:C:/Users/stapi/OneDrive/Desktop/GD32VW553/V1_MQTT_OK/GD32VW55X_Wifi_BLE_SDK/GD32VW55x_RELEASE_V1.0.2/MSDK/plf/src\init_rom_symbol.c ****         mbedtls_md5_free_fn = (void *)0x0bf7645c;
 1375              		.loc 2 255 35 is_stmt 0 discriminator 3
 1376 0b36 BA55     		lw	a1,172(sp)
 1377 0b38 1386E621 		addi	a2,a3,542
 1378 0b3c 90C1     		sw	a2,0(a1)
 256:C:/Users/stapi/OneDrive/Desktop/GD32VW553/V1_MQTT_OK/GD32VW55X_Wifi_BLE_SDK/GD32VW55x_RELEASE_V1.0.2/MSDK/plf/src\init_rom_symbol.c ****         mbedtls_md5_init_fn = (void *)0x0bf76452;
 1379              		.loc 2 256 9 is_stmt 1 discriminator 3
 256:C:/Users/stapi/OneDrive/Desktop/GD32VW553/V1_MQTT_OK/GD32VW55X_Wifi_BLE_SDK/GD32VW55x_RELEASE_V1.0.2/MSDK/plf/src\init_rom_symbol.c ****         mbedtls_md5_init_fn = (void *)0x0bf76452;
 1380              		.loc 2 256 29 is_stmt 0 discriminator 3
 1381 0b3e CA55     		lw	a1,176(sp)
 1382 0b40 1386C745 		addi	a2,a5,1116
 266:C:/Users/stapi/OneDrive/Desktop/GD32VW553/V1_MQTT_OK/GD32VW55X_Wifi_BLE_SDK/GD32VW55x_RELEASE_V1.0.2/MSDK/plf/src\init_rom_symbol.c ****         mbedtls_mpi_exp_mod_sw_fn = (void *)0x0bf6f508;
 1383              		.loc 2 266 32 discriminator 3
 1384 0b44 6E45     		lw	a0,216(sp)
 256:C:/Users/stapi/OneDrive/Desktop/GD32VW553/V1_MQTT_OK/GD32VW55X_Wifi_BLE_SDK/GD32VW55x_RELEASE_V1.0.2/MSDK/plf/src\init_rom_symbol.c ****         mbedtls_md5_init_fn = (void *)0x0bf76452;
 1385              		.loc 2 256 29 discriminator 3
 1386 0b46 90C1     		sw	a2,0(a1)
 257:C:/Users/stapi/OneDrive/Desktop/GD32VW553/V1_MQTT_OK/GD32VW55X_Wifi_BLE_SDK/GD32VW55x_RELEASE_V1.0.2/MSDK/plf/src\init_rom_symbol.c ****         mbedtls_md5_process_fn = (void *)0x0bf77208;
 1387              		.loc 2 257 9 is_stmt 1 discriminator 3
 257:C:/Users/stapi/OneDrive/Desktop/GD32VW553/V1_MQTT_OK/GD32VW55X_Wifi_BLE_SDK/GD32VW55x_RELEASE_V1.0.2/MSDK/plf/src\init_rom_symbol.c ****         mbedtls_md5_process_fn = (void *)0x0bf77208;
 1388              		.loc 2 257 29 is_stmt 0 discriminator 3
 1389 0b48 DA55     		lw	a1,180(sp)
 1390 0b4a 13862745 		addi	a2,a5,1106
 1391 0b4e 90C1     		sw	a2,0(a1)
 258:C:/Users/stapi/OneDrive/Desktop/GD32VW553/V1_MQTT_OK/GD32VW55X_Wifi_BLE_SDK/GD32VW55x_RELEASE_V1.0.2/MSDK/plf/src\init_rom_symbol.c ****         mbedtls_md5_ret_fn = (void *)0x0bf77320;
 1392              		.loc 2 258 9 is_stmt 1 discriminator 3
 258:C:/Users/stapi/OneDrive/Desktop/GD32VW553/V1_MQTT_OK/GD32VW55X_Wifi_BLE_SDK/GD32VW55x_RELEASE_V1.0.2/MSDK/plf/src\init_rom_symbol.c ****         mbedtls_md5_ret_fn = (void *)0x0bf77320;
 1393              		.loc 2 258 32 is_stmt 0 discriminator 3
 1394 0b50 EA55     		lw	a1,184(sp)
 1395 0b52 13868620 		addi	a2,a3,520
 1396 0b56 90C1     		sw	a2,0(a1)
 259:C:/Users/stapi/OneDrive/Desktop/GD32VW553/V1_MQTT_OK/GD32VW55X_Wifi_BLE_SDK/GD32VW55x_RELEASE_V1.0.2/MSDK/plf/src\init_rom_symbol.c ****         mbedtls_md5_starts_fn = (void *)0x0bf764a4;
 1397              		.loc 2 259 9 is_stmt 1 discriminator 3
 259:C:/Users/stapi/OneDrive/Desktop/GD32VW553/V1_MQTT_OK/GD32VW55X_Wifi_BLE_SDK/GD32VW55x_RELEASE_V1.0.2/MSDK/plf/src\init_rom_symbol.c ****         mbedtls_md5_starts_fn = (void *)0x0bf764a4;
 1398              		.loc 2 259 28 is_stmt 0 discriminator 3
 1399 0b58 FA55     		lw	a1,188(sp)
 1400 0b5a 13860632 		addi	a2,a3,800
 1401 0b5e 90C1     		sw	a2,0(a1)
 260:C:/Users/stapi/OneDrive/Desktop/GD32VW553/V1_MQTT_OK/GD32VW55X_Wifi_BLE_SDK/GD32VW55x_RELEASE_V1.0.2/MSDK/plf/src\init_rom_symbol.c ****         mbedtls_md5_starts_ret_fn = (void *)0x0bf76470;
 1402              		.loc 2 260 9 is_stmt 1 discriminator 3
 260:C:/Users/stapi/OneDrive/Desktop/GD32VW553/V1_MQTT_OK/GD32VW55X_Wifi_BLE_SDK/GD32VW55x_RELEASE_V1.0.2/MSDK/plf/src\init_rom_symbol.c ****         mbedtls_md5_starts_ret_fn = (void *)0x0bf76470;
 1403              		.loc 2 260 31 is_stmt 0 discriminator 3
 1404 0b60 8E45     		lw	a1,192(sp)
 1405 0b62 1386474A 		addi	a2,a5,1188
 1406 0b66 90C1     		sw	a2,0(a1)
 261:C:/Users/stapi/OneDrive/Desktop/GD32VW553/V1_MQTT_OK/GD32VW55X_Wifi_BLE_SDK/GD32VW55x_RELEASE_V1.0.2/MSDK/plf/src\init_rom_symbol.c ****         mbedtls_md5_update_fn = (void *)0x0bf77216;
 1407              		.loc 2 261 9 is_stmt 1 discriminator 3
 261:C:/Users/stapi/OneDrive/Desktop/GD32VW553/V1_MQTT_OK/GD32VW55X_Wifi_BLE_SDK/GD32VW55x_RELEASE_V1.0.2/MSDK/plf/src\init_rom_symbol.c ****         mbedtls_md5_update_fn = (void *)0x0bf77216;
 1408              		.loc 2 261 35 is_stmt 0 discriminator 3
 1409 0b68 9E45     		lw	a1,196(sp)
 1410 0b6a 13860747 		addi	a2,a5,1136
 1411 0b6e 90C1     		sw	a2,0(a1)
 262:C:/Users/stapi/OneDrive/Desktop/GD32VW553/V1_MQTT_OK/GD32VW55X_Wifi_BLE_SDK/GD32VW55x_RELEASE_V1.0.2/MSDK/plf/src\init_rom_symbol.c ****         mbedtls_md5_update_ret_fn = (void *)0x0bf7720c;
 1412              		.loc 2 262 9 is_stmt 1 discriminator 3
 262:C:/Users/stapi/OneDrive/Desktop/GD32VW553/V1_MQTT_OK/GD32VW55X_Wifi_BLE_SDK/GD32VW55x_RELEASE_V1.0.2/MSDK/plf/src\init_rom_symbol.c ****         mbedtls_md5_update_ret_fn = (void *)0x0bf7720c;
 1413              		.loc 2 262 31 is_stmt 0 discriminator 3
 1414 0b70 AE45     		lw	a1,200(sp)
 1415 0b72 13866621 		addi	a2,a3,534
 263:C:/Users/stapi/OneDrive/Desktop/GD32VW553/V1_MQTT_OK/GD32VW55X_Wifi_BLE_SDK/GD32VW55x_RELEASE_V1.0.2/MSDK/plf/src\init_rom_symbol.c ****         mbedtls_mpi_div_int_fn = (void *)0x0bf6f1c6;
 1416              		.loc 2 263 35 discriminator 3
 1417 0b76 9386C620 		addi	a3,a3,524
 262:C:/Users/stapi/OneDrive/Desktop/GD32VW553/V1_MQTT_OK/GD32VW55X_Wifi_BLE_SDK/GD32VW55x_RELEASE_V1.0.2/MSDK/plf/src\init_rom_symbol.c ****         mbedtls_md5_update_ret_fn = (void *)0x0bf7720c;
 1418              		.loc 2 262 31 discriminator 3
 1419 0b7a 90C1     		sw	a2,0(a1)
 263:C:/Users/stapi/OneDrive/Desktop/GD32VW553/V1_MQTT_OK/GD32VW55X_Wifi_BLE_SDK/GD32VW55x_RELEASE_V1.0.2/MSDK/plf/src\init_rom_symbol.c ****         mbedtls_mpi_div_int_fn = (void *)0x0bf6f1c6;
 1420              		.loc 2 263 9 is_stmt 1 discriminator 3
 263:C:/Users/stapi/OneDrive/Desktop/GD32VW553/V1_MQTT_OK/GD32VW55X_Wifi_BLE_SDK/GD32VW55x_RELEASE_V1.0.2/MSDK/plf/src\init_rom_symbol.c ****         mbedtls_mpi_div_int_fn = (void *)0x0bf6f1c6;
 1421              		.loc 2 263 35 is_stmt 0 discriminator 3
 1422 0b7c 3E46     		lw	a2,204(sp)
 264:C:/Users/stapi/OneDrive/Desktop/GD32VW553/V1_MQTT_OK/GD32VW55X_Wifi_BLE_SDK/GD32VW55x_RELEASE_V1.0.2/MSDK/plf/src\init_rom_symbol.c ****         mbedtls_mpi_div_mpi_fn = (void *)0x0bf6ecda;
 1423              		.loc 2 264 32 discriminator 3
 1424 0b7e CE45     		lw	a1,208(sp)
 263:C:/Users/stapi/OneDrive/Desktop/GD32VW553/V1_MQTT_OK/GD32VW55X_Wifi_BLE_SDK/GD32VW55x_RELEASE_V1.0.2/MSDK/plf/src\init_rom_symbol.c ****         mbedtls_mpi_div_int_fn = (void *)0x0bf6f1c6;
 1425              		.loc 2 263 35 discriminator 3
 1426 0b80 14C2     		sw	a3,0(a2)
 264:C:/Users/stapi/OneDrive/Desktop/GD32VW553/V1_MQTT_OK/GD32VW55X_Wifi_BLE_SDK/GD32VW55x_RELEASE_V1.0.2/MSDK/plf/src\init_rom_symbol.c ****         mbedtls_mpi_div_mpi_fn = (void *)0x0bf6ecda;
 1427              		.loc 2 264 9 is_stmt 1 discriminator 3
 264:C:/Users/stapi/OneDrive/Desktop/GD32VW553/V1_MQTT_OK/GD32VW55X_Wifi_BLE_SDK/GD32VW55x_RELEASE_V1.0.2/MSDK/plf/src\init_rom_symbol.c ****         mbedtls_mpi_div_mpi_fn = (void *)0x0bf6ecda;
 1428              		.loc 2 264 32 is_stmt 0 discriminator 3
 1429 0b82 B7F6F60B 		li	a3,200732672
 1430 0b86 1386661C 		addi	a2,a3,454
 1431 0b8a 90C1     		sw	a2,0(a1)
 265:C:/Users/stapi/OneDrive/Desktop/GD32VW553/V1_MQTT_OK/GD32VW55X_Wifi_BLE_SDK/GD32VW55x_RELEASE_V1.0.2/MSDK/plf/src\init_rom_symbol.c ****         mbedtls_mpi_exp_mod_fn = (void *)0x0bf6fb18;
 1432              		.loc 2 265 9 is_stmt 1 discriminator 3
 265:C:/Users/stapi/OneDrive/Desktop/GD32VW553/V1_MQTT_OK/GD32VW55X_Wifi_BLE_SDK/GD32VW55x_RELEASE_V1.0.2/MSDK/plf/src\init_rom_symbol.c ****         mbedtls_mpi_exp_mod_fn = (void *)0x0bf6fb18;
 1433              		.loc 2 265 32 is_stmt 0 discriminator 3
 1434 0b8c DE45     		lw	a1,212(sp)
 1435 0b8e 1386A6CD 		addi	a2,a3,-806
 1436 0b92 90C1     		sw	a2,0(a1)
 266:C:/Users/stapi/OneDrive/Desktop/GD32VW553/V1_MQTT_OK/GD32VW55X_Wifi_BLE_SDK/GD32VW55x_RELEASE_V1.0.2/MSDK/plf/src\init_rom_symbol.c ****         mbedtls_mpi_exp_mod_sw_fn = (void *)0x0bf6f508;
 1437              		.loc 2 266 9 is_stmt 1 discriminator 3
 266:C:/Users/stapi/OneDrive/Desktop/GD32VW553/V1_MQTT_OK/GD32VW55X_Wifi_BLE_SDK/GD32VW55x_RELEASE_V1.0.2/MSDK/plf/src\init_rom_symbol.c ****         mbedtls_mpi_exp_mod_sw_fn = (void *)0x0bf6f508;
 1438              		.loc 2 266 32 is_stmt 0 discriminator 3
 1439 0b94 3706F70B 		li	a2,200736768
 1440 0b98 930586B1 		addi	a1,a2,-1256
 1441 0b9c 0CC1     		sw	a1,0(a0)
 267:C:/Users/stapi/OneDrive/Desktop/GD32VW553/V1_MQTT_OK/GD32VW55X_Wifi_BLE_SDK/GD32VW55x_RELEASE_V1.0.2/MSDK/plf/src\init_rom_symbol.c ****         mbedtls_mpi_fill_random_fn = (void *)0x0bf6fe86;
 1442              		.loc 2 267 9 is_stmt 1 discriminator 3
 267:C:/Users/stapi/OneDrive/Desktop/GD32VW553/V1_MQTT_OK/GD32VW55X_Wifi_BLE_SDK/GD32VW55x_RELEASE_V1.0.2/MSDK/plf/src\init_rom_symbol.c ****         mbedtls_mpi_fill_random_fn = (void *)0x0bf6fe86;
 1443              		.loc 2 267 35 is_stmt 0 discriminator 3
 1444 0b9e 7E45     		lw	a0,220(sp)
 1445 0ba0 93858650 		addi	a1,a3,1288
 1446 0ba4 0CC1     		sw	a1,0(a0)
 268:C:/Users/stapi/OneDrive/Desktop/GD32VW553/V1_MQTT_OK/GD32VW55X_Wifi_BLE_SDK/GD32VW55x_RELEASE_V1.0.2/MSDK/plf/src\init_rom_symbol.c ****         mbedtls_mpi_gcd_fn = (void *)0x0bf6fc8e;
 1447              		.loc 2 268 9 is_stmt 1 discriminator 3
 268:C:/Users/stapi/OneDrive/Desktop/GD32VW553/V1_MQTT_OK/GD32VW55X_Wifi_BLE_SDK/GD32VW55x_RELEASE_V1.0.2/MSDK/plf/src\init_rom_symbol.c ****         mbedtls_mpi_gcd_fn = (void *)0x0bf6fc8e;
 1448              		.loc 2 268 36 is_stmt 0 discriminator 3
 1449 0ba6 0E55     		lw	a0,224(sp)
 1450 0ba8 930566E8 		addi	a1,a2,-378
 1451 0bac 0CC1     		sw	a1,0(a0)
 269:C:/Users/stapi/OneDrive/Desktop/GD32VW553/V1_MQTT_OK/GD32VW55X_Wifi_BLE_SDK/GD32VW55x_RELEASE_V1.0.2/MSDK/plf/src\init_rom_symbol.c ****         mbedtls_mpi_gen_prime_fn = (void *)0x0bf70584;
 1452              		.loc 2 269 9 is_stmt 1 discriminator 3
 269:C:/Users/stapi/OneDrive/Desktop/GD32VW553/V1_MQTT_OK/GD32VW55X_Wifi_BLE_SDK/GD32VW55x_RELEASE_V1.0.2/MSDK/plf/src\init_rom_symbol.c ****         mbedtls_mpi_gen_prime_fn = (void *)0x0bf70584;
 1453              		.loc 2 269 28 is_stmt 0 discriminator 3
 1454 0bae 1E55     		lw	a0,228(sp)
 1455 0bb0 9305E6C8 		addi	a1,a2,-882
 1456 0bb4 0CC1     		sw	a1,0(a0)
 270:C:/Users/stapi/OneDrive/Desktop/GD32VW553/V1_MQTT_OK/GD32VW55X_Wifi_BLE_SDK/GD32VW55x_RELEASE_V1.0.2/MSDK/plf/src\init_rom_symbol.c ****         mbedtls_mpi_inv_mod_fn = (void *)0x0bf701b4;
 1457              		.loc 2 270 9 is_stmt 1 discriminator 3
 270:C:/Users/stapi/OneDrive/Desktop/GD32VW553/V1_MQTT_OK/GD32VW55X_Wifi_BLE_SDK/GD32VW55x_RELEASE_V1.0.2/MSDK/plf/src\init_rom_symbol.c ****         mbedtls_mpi_inv_mod_fn = (void *)0x0bf701b4;
 1458              		.loc 2 270 34 is_stmt 0 discriminator 3
 1459 0bb6 2E55     		lw	a0,232(sp)
 1460 0bb8 93054658 		addi	a1,a2,1412
 1461 0bbc 0CC1     		sw	a1,0(a0)
 271:C:/Users/stapi/OneDrive/Desktop/GD32VW553/V1_MQTT_OK/GD32VW55X_Wifi_BLE_SDK/GD32VW55x_RELEASE_V1.0.2/MSDK/plf/src\init_rom_symbol.c ****         mbedtls_mpi_is_prime_fn = (void *)0x0bf70578   ;
 1462              		.loc 2 271 9 is_stmt 1 discriminator 3
 271:C:/Users/stapi/OneDrive/Desktop/GD32VW553/V1_MQTT_OK/GD32VW55X_Wifi_BLE_SDK/GD32VW55x_RELEASE_V1.0.2/MSDK/plf/src\init_rom_symbol.c ****         mbedtls_mpi_is_prime_fn = (void *)0x0bf70578   ;
 1463              		.loc 2 271 32 is_stmt 0 discriminator 3
 1464 0bbe 3E55     		lw	a0,236(sp)
 1465 0bc0 9305461B 		addi	a1,a2,436
 1466 0bc4 0CC1     		sw	a1,0(a0)
 272:C:/Users/stapi/OneDrive/Desktop/GD32VW553/V1_MQTT_OK/GD32VW55X_Wifi_BLE_SDK/GD32VW55x_RELEASE_V1.0.2/MSDK/plf/src\init_rom_symbol.c ****         mbedtls_mpi_is_prime_ext_fn = (void *)0x0bf704d6;
 1467              		.loc 2 272 9 is_stmt 1 discriminator 3
 272:C:/Users/stapi/OneDrive/Desktop/GD32VW553/V1_MQTT_OK/GD32VW55X_Wifi_BLE_SDK/GD32VW55x_RELEASE_V1.0.2/MSDK/plf/src\init_rom_symbol.c ****         mbedtls_mpi_is_prime_ext_fn = (void *)0x0bf704d6;
 1468              		.loc 2 272 33 is_stmt 0 discriminator 3
 1469 0bc6 4E55     		lw	a0,240(sp)
 1470 0bc8 93058657 		addi	a1,a2,1400
 273:C:/Users/stapi/OneDrive/Desktop/GD32VW553/V1_MQTT_OK/GD32VW55X_Wifi_BLE_SDK/GD32VW55x_RELEASE_V1.0.2/MSDK/plf/src\init_rom_symbol.c ****         mbedtls_mpi_mod_int_fn = (void *)0x0bf6f28c;
 1471              		.loc 2 273 37 discriminator 3
 1472 0bcc 1306664D 		addi	a2,a2,1238
 272:C:/Users/stapi/OneDrive/Desktop/GD32VW553/V1_MQTT_OK/GD32VW55X_Wifi_BLE_SDK/GD32VW55x_RELEASE_V1.0.2/MSDK/plf/src\init_rom_symbol.c ****         mbedtls_mpi_is_prime_ext_fn = (void *)0x0bf704d6;
 1473              		.loc 2 272 33 discriminator 3
 1474 0bd0 0CC1     		sw	a1,0(a0)
 273:C:/Users/stapi/OneDrive/Desktop/GD32VW553/V1_MQTT_OK/GD32VW55X_Wifi_BLE_SDK/GD32VW55x_RELEASE_V1.0.2/MSDK/plf/src\init_rom_symbol.c ****         mbedtls_mpi_mod_int_fn = (void *)0x0bf6f28c;
 1475              		.loc 2 273 9 is_stmt 1 discriminator 3
 273:C:/Users/stapi/OneDrive/Desktop/GD32VW553/V1_MQTT_OK/GD32VW55X_Wifi_BLE_SDK/GD32VW55x_RELEASE_V1.0.2/MSDK/plf/src\init_rom_symbol.c ****         mbedtls_mpi_mod_int_fn = (void *)0x0bf6f28c;
 1476              		.loc 2 273 37 is_stmt 0 discriminator 3
 1477 0bd2 DE55     		lw	a1,244(sp)
 1478 0bd4 90C1     		sw	a2,0(a1)
 274:C:/Users/stapi/OneDrive/Desktop/GD32VW553/V1_MQTT_OK/GD32VW55X_Wifi_BLE_SDK/GD32VW55x_RELEASE_V1.0.2/MSDK/plf/src\init_rom_symbol.c ****         mbedtls_mpi_mod_mpi_fn = (void *)0x0bf6f1f0;
 1479              		.loc 2 274 9 is_stmt 1 discriminator 3
 274:C:/Users/stapi/OneDrive/Desktop/GD32VW553/V1_MQTT_OK/GD32VW55X_Wifi_BLE_SDK/GD32VW55x_RELEASE_V1.0.2/MSDK/plf/src\init_rom_symbol.c ****         mbedtls_mpi_mod_mpi_fn = (void *)0x0bf6f1f0;
 1480              		.loc 2 274 32 is_stmt 0 discriminator 3
 1481 0bd6 EE55     		lw	a1,248(sp)
 1482 0bd8 1386C628 		addi	a2,a3,652
 1483 0bdc 90C1     		sw	a2,0(a1)
 275:C:/Users/stapi/OneDrive/Desktop/GD32VW553/V1_MQTT_OK/GD32VW55X_Wifi_BLE_SDK/GD32VW55x_RELEASE_V1.0.2/MSDK/plf/src\init_rom_symbol.c ****         mbedtls_mpi_mul_int_fn = (void *)0x0bf6ecc0;
 1484              		.loc 2 275 9 is_stmt 1 discriminator 3
 275:C:/Users/stapi/OneDrive/Desktop/GD32VW553/V1_MQTT_OK/GD32VW55X_Wifi_BLE_SDK/GD32VW55x_RELEASE_V1.0.2/MSDK/plf/src\init_rom_symbol.c ****         mbedtls_mpi_mul_int_fn = (void *)0x0bf6ecc0;
 1485              		.loc 2 275 32 is_stmt 0 discriminator 3
 1486 0bde FE55     		lw	a1,252(sp)
 1487 0be0 1386061F 		addi	a2,a3,496
 1488 0be4 90C1     		sw	a2,0(a1)
 276:C:/Users/stapi/OneDrive/Desktop/GD32VW553/V1_MQTT_OK/GD32VW55X_Wifi_BLE_SDK/GD32VW55x_RELEASE_V1.0.2/MSDK/plf/src\init_rom_symbol.c ****         mbedtls_mpi_mul_mpi_fn = (void *)0x0bf6ea92;
 1489              		.loc 2 276 9 is_stmt 1 discriminator 3
 276:C:/Users/stapi/OneDrive/Desktop/GD32VW553/V1_MQTT_OK/GD32VW55X_Wifi_BLE_SDK/GD32VW55x_RELEASE_V1.0.2/MSDK/plf/src\init_rom_symbol.c ****         mbedtls_mpi_mul_mpi_fn = (void *)0x0bf6ea92;
 1490              		.loc 2 276 32 is_stmt 0 discriminator 3
 1491 0be6 83250110 		lw	a1,256(sp)
 1492 0bea 138606CC 		addi	a2,a3,-832
 1493 0bee 90C1     		sw	a2,0(a1)
 277:C:/Users/stapi/OneDrive/Desktop/GD32VW553/V1_MQTT_OK/GD32VW55X_Wifi_BLE_SDK/GD32VW55x_RELEASE_V1.0.2/MSDK/plf/src\init_rom_symbol.c ****         mbedtls_mpi_read_string_fn = (void *)0x0bf6eaa8;
 1494              		.loc 2 277 9 is_stmt 1 discriminator 3
 277:C:/Users/stapi/OneDrive/Desktop/GD32VW553/V1_MQTT_OK/GD32VW55X_Wifi_BLE_SDK/GD32VW55x_RELEASE_V1.0.2/MSDK/plf/src\init_rom_symbol.c ****         mbedtls_mpi_read_string_fn = (void *)0x0bf6eaa8;
 1495              		.loc 2 277 32 is_stmt 0 discriminator 3
 1496 0bf0 83254110 		lw	a1,260(sp)
 1497 0bf4 138626A9 		addi	a2,a3,-1390
 1498 0bf8 90C1     		sw	a2,0(a1)
 278:C:/Users/stapi/OneDrive/Desktop/GD32VW553/V1_MQTT_OK/GD32VW55X_Wifi_BLE_SDK/GD32VW55x_RELEASE_V1.0.2/MSDK/plf/src\init_rom_symbol.c ****         mbedtls_mpi_write_string_fn = (void *)0x0bf6f2c0;
 1499              		.loc 2 278 9 is_stmt 1 discriminator 3
 278:C:/Users/stapi/OneDrive/Desktop/GD32VW553/V1_MQTT_OK/GD32VW55X_Wifi_BLE_SDK/GD32VW55x_RELEASE_V1.0.2/MSDK/plf/src\init_rom_symbol.c ****         mbedtls_mpi_write_string_fn = (void *)0x0bf6f2c0;
 1500              		.loc 2 278 36 is_stmt 0 discriminator 3
 1501 0bfa 83258110 		lw	a1,264(sp)
 1502 0bfe 138686AA 		addi	a2,a3,-1368
 279:C:/Users/stapi/OneDrive/Desktop/GD32VW553/V1_MQTT_OK/GD32VW55X_Wifi_BLE_SDK/GD32VW55x_RELEASE_V1.0.2/MSDK/plf/src\init_rom_symbol.c ****         mbedtls_rsa_check_privkey_fn = (void *)0x0bf74536;
 1503              		.loc 2 279 37 discriminator 3
 1504 0c02 9386062C 		addi	a3,a3,704
 278:C:/Users/stapi/OneDrive/Desktop/GD32VW553/V1_MQTT_OK/GD32VW55X_Wifi_BLE_SDK/GD32VW55x_RELEASE_V1.0.2/MSDK/plf/src\init_rom_symbol.c ****         mbedtls_mpi_write_string_fn = (void *)0x0bf6f2c0;
 1505              		.loc 2 278 36 discriminator 3
 1506 0c06 90C1     		sw	a2,0(a1)
 279:C:/Users/stapi/OneDrive/Desktop/GD32VW553/V1_MQTT_OK/GD32VW55X_Wifi_BLE_SDK/GD32VW55x_RELEASE_V1.0.2/MSDK/plf/src\init_rom_symbol.c ****         mbedtls_rsa_check_privkey_fn = (void *)0x0bf74536;
 1507              		.loc 2 279 9 is_stmt 1 discriminator 3
 279:C:/Users/stapi/OneDrive/Desktop/GD32VW553/V1_MQTT_OK/GD32VW55X_Wifi_BLE_SDK/GD32VW55x_RELEASE_V1.0.2/MSDK/plf/src\init_rom_symbol.c ****         mbedtls_rsa_check_privkey_fn = (void *)0x0bf74536;
 1508              		.loc 2 279 37 is_stmt 0 discriminator 3
 1509 0c08 0326C110 		lw	a2,268(sp)
 1510 0c0c 14C2     		sw	a3,0(a2)
 280:C:/Users/stapi/OneDrive/Desktop/GD32VW553/V1_MQTT_OK/GD32VW55X_Wifi_BLE_SDK/GD32VW55x_RELEASE_V1.0.2/MSDK/plf/src\init_rom_symbol.c ****         mbedtls_rsa_check_pub_priv_fn = (void *)0x0bf747cc;
 1511              		.loc 2 280 9 is_stmt 1 discriminator 3
 280:C:/Users/stapi/OneDrive/Desktop/GD32VW553/V1_MQTT_OK/GD32VW55X_Wifi_BLE_SDK/GD32VW55x_RELEASE_V1.0.2/MSDK/plf/src\init_rom_symbol.c ****         mbedtls_rsa_check_pub_priv_fn = (void *)0x0bf747cc;
 1512              		.loc 2 280 38 is_stmt 0 discriminator 3
 1513 0c0e 03260111 		lw	a2,272(sp)
 1514 0c12 93066753 		addi	a3,a4,1334
 1515 0c16 14C2     		sw	a3,0(a2)
 281:C:/Users/stapi/OneDrive/Desktop/GD32VW553/V1_MQTT_OK/GD32VW55X_Wifi_BLE_SDK/GD32VW55x_RELEASE_V1.0.2/MSDK/plf/src\init_rom_symbol.c ****         mbedtls_rsa_check_pubkey_fn = (void *)0x0bf744d4;
 1516              		.loc 2 281 9 is_stmt 1 discriminator 3
 281:C:/Users/stapi/OneDrive/Desktop/GD32VW553/V1_MQTT_OK/GD32VW55X_Wifi_BLE_SDK/GD32VW55x_RELEASE_V1.0.2/MSDK/plf/src\init_rom_symbol.c ****         mbedtls_rsa_check_pubkey_fn = (void *)0x0bf744d4;
 1517              		.loc 2 281 39 is_stmt 0 discriminator 3
 1518 0c18 03264111 		lw	a2,276(sp)
 1519 0c1c 9306C77C 		addi	a3,a4,1996
 1520 0c20 14C2     		sw	a3,0(a2)
 282:C:/Users/stapi/OneDrive/Desktop/GD32VW553/V1_MQTT_OK/GD32VW55X_Wifi_BLE_SDK/GD32VW55x_RELEASE_V1.0.2/MSDK/plf/src\init_rom_symbol.c ****         mbedtls_rsa_complete_fn = (void *)0x0bf74054;
 1521              		.loc 2 282 9 is_stmt 1 discriminator 3
 282:C:/Users/stapi/OneDrive/Desktop/GD32VW553/V1_MQTT_OK/GD32VW55X_Wifi_BLE_SDK/GD32VW55x_RELEASE_V1.0.2/MSDK/plf/src\init_rom_symbol.c ****         mbedtls_rsa_complete_fn = (void *)0x0bf74054;
 1522              		.loc 2 282 37 is_stmt 0 discriminator 3
 1523 0c22 03268111 		lw	a2,280(sp)
 1524 0c26 9306474D 		addi	a3,a4,1236
 1525 0c2a 14C2     		sw	a3,0(a2)
 283:C:/Users/stapi/OneDrive/Desktop/GD32VW553/V1_MQTT_OK/GD32VW55X_Wifi_BLE_SDK/GD32VW55x_RELEASE_V1.0.2/MSDK/plf/src\init_rom_symbol.c ****         mbedtls_rsa_copy_fn = (void *)0x0bf75cf6;
 1526              		.loc 2 283 9 is_stmt 1 discriminator 3
 283:C:/Users/stapi/OneDrive/Desktop/GD32VW553/V1_MQTT_OK/GD32VW55X_Wifi_BLE_SDK/GD32VW55x_RELEASE_V1.0.2/MSDK/plf/src\init_rom_symbol.c ****         mbedtls_rsa_copy_fn = (void *)0x0bf75cf6;
 1527              		.loc 2 283 33 is_stmt 0 discriminator 3
 1528 0c2c 0326C111 		lw	a2,284(sp)
 1529 0c30 93064705 		addi	a3,a4,84
 1530 0c34 14C2     		sw	a3,0(a2)
 284:C:/Users/stapi/OneDrive/Desktop/GD32VW553/V1_MQTT_OK/GD32VW55X_Wifi_BLE_SDK/GD32VW55x_RELEASE_V1.0.2/MSDK/plf/src\init_rom_symbol.c ****         mbedtls_rsa_export_fn = (void *)0x0bf742ec;
 1531              		.loc 2 284 9 is_stmt 1 discriminator 3
 284:C:/Users/stapi/OneDrive/Desktop/GD32VW553/V1_MQTT_OK/GD32VW55X_Wifi_BLE_SDK/GD32VW55x_RELEASE_V1.0.2/MSDK/plf/src\init_rom_symbol.c ****         mbedtls_rsa_export_fn = (void *)0x0bf742ec;
 1532              		.loc 2 284 29 is_stmt 0 discriminator 3
 1533 0c36 03260112 		lw	a2,288(sp)
 1534 0c3a 938667CF 		addi	a3,a5,-778
 1535 0c3e 14C2     		sw	a3,0(a2)
 285:C:/Users/stapi/OneDrive/Desktop/GD32VW553/V1_MQTT_OK/GD32VW55X_Wifi_BLE_SDK/GD32VW55x_RELEASE_V1.0.2/MSDK/plf/src\init_rom_symbol.c ****         mbedtls_rsa_export_crt_fn = (void *)0x0bf743ee;
 1536              		.loc 2 285 9 is_stmt 1 discriminator 3
 285:C:/Users/stapi/OneDrive/Desktop/GD32VW553/V1_MQTT_OK/GD32VW55X_Wifi_BLE_SDK/GD32VW55x_RELEASE_V1.0.2/MSDK/plf/src\init_rom_symbol.c ****         mbedtls_rsa_export_crt_fn = (void *)0x0bf743ee;
 1537              		.loc 2 285 31 is_stmt 0 discriminator 3
 1538 0c40 03264112 		lw	a2,292(sp)
 1539 0c44 9306C72E 		addi	a3,a4,748
 1540 0c48 14C2     		sw	a3,0(a2)
 286:C:/Users/stapi/OneDrive/Desktop/GD32VW553/V1_MQTT_OK/GD32VW55X_Wifi_BLE_SDK/GD32VW55x_RELEASE_V1.0.2/MSDK/plf/src\init_rom_symbol.c ****         mbedtls_rsa_export_raw_fn = (void *)0x0bf741b4;
 1541              		.loc 2 286 9 is_stmt 1 discriminator 3
 286:C:/Users/stapi/OneDrive/Desktop/GD32VW553/V1_MQTT_OK/GD32VW55X_Wifi_BLE_SDK/GD32VW55x_RELEASE_V1.0.2/MSDK/plf/src\init_rom_symbol.c ****         mbedtls_rsa_export_raw_fn = (void *)0x0bf741b4;
 1542              		.loc 2 286 35 is_stmt 0 discriminator 3
 1543 0c4a 03268112 		lw	a2,296(sp)
 1544 0c4e 9306E73E 		addi	a3,a4,1006
 1545 0c52 14C2     		sw	a3,0(a2)
 287:C:/Users/stapi/OneDrive/Desktop/GD32VW553/V1_MQTT_OK/GD32VW55X_Wifi_BLE_SDK/GD32VW55x_RELEASE_V1.0.2/MSDK/plf/src\init_rom_symbol.c ****         mbedtls_rsa_free_fn = (void *)0x0bf75e00;
 1546              		.loc 2 287 9 is_stmt 1 discriminator 3
 287:C:/Users/stapi/OneDrive/Desktop/GD32VW553/V1_MQTT_OK/GD32VW55X_Wifi_BLE_SDK/GD32VW55x_RELEASE_V1.0.2/MSDK/plf/src\init_rom_symbol.c ****         mbedtls_rsa_free_fn = (void *)0x0bf75e00;
 1547              		.loc 2 287 35 is_stmt 0 discriminator 3
 1548 0c54 0326C112 		lw	a2,300(sp)
 1549 0c58 9306471B 		addi	a3,a4,436
 1550 0c5c 14C2     		sw	a3,0(a2)
 288:C:/Users/stapi/OneDrive/Desktop/GD32VW553/V1_MQTT_OK/GD32VW55X_Wifi_BLE_SDK/GD32VW55x_RELEASE_V1.0.2/MSDK/plf/src\init_rom_symbol.c ****         mbedtls_rsa_gen_key_fn = (void *)0x0bf745a6;
 1551              		.loc 2 288 9 is_stmt 1 discriminator 3
 288:C:/Users/stapi/OneDrive/Desktop/GD32VW553/V1_MQTT_OK/GD32VW55X_Wifi_BLE_SDK/GD32VW55x_RELEASE_V1.0.2/MSDK/plf/src\init_rom_symbol.c ****         mbedtls_rsa_gen_key_fn = (void *)0x0bf745a6;
 1552              		.loc 2 288 29 is_stmt 0 discriminator 3
 1553 0c5e 03260113 		lw	a2,304(sp)
 1554 0c62 938607E0 		addi	a3,a5,-512
 294:C:/Users/stapi/OneDrive/Desktop/GD32VW553/V1_MQTT_OK/GD32VW55X_Wifi_BLE_SDK/GD32VW55x_RELEASE_V1.0.2/MSDK/plf/src\init_rom_symbol.c ****         mbedtls_rsa_pkcs1_encrypt_fn = (void *)0x0bf75138;
 1555              		.loc 2 294 38 discriminator 3
 1556 0c66 83258114 		lw	a1,328(sp)
 288:C:/Users/stapi/OneDrive/Desktop/GD32VW553/V1_MQTT_OK/GD32VW55X_Wifi_BLE_SDK/GD32VW55x_RELEASE_V1.0.2/MSDK/plf/src\init_rom_symbol.c ****         mbedtls_rsa_gen_key_fn = (void *)0x0bf745a6;
 1557              		.loc 2 288 29 discriminator 3
 1558 0c6a 14C2     		sw	a3,0(a2)
 289:C:/Users/stapi/OneDrive/Desktop/GD32VW553/V1_MQTT_OK/GD32VW55X_Wifi_BLE_SDK/GD32VW55x_RELEASE_V1.0.2/MSDK/plf/src\init_rom_symbol.c ****         mbedtls_rsa_get_len_fn = (void *)0x0bf744d0;
 1559              		.loc 2 289 9 is_stmt 1 discriminator 3
 289:C:/Users/stapi/OneDrive/Desktop/GD32VW553/V1_MQTT_OK/GD32VW55X_Wifi_BLE_SDK/GD32VW55x_RELEASE_V1.0.2/MSDK/plf/src\init_rom_symbol.c ****         mbedtls_rsa_get_len_fn = (void *)0x0bf744d0;
 1560              		.loc 2 289 32 is_stmt 0 discriminator 3
 1561 0c6c 03264113 		lw	a2,308(sp)
 1562 0c70 9306675A 		addi	a3,a4,1446
 1563 0c74 14C2     		sw	a3,0(a2)
 290:C:/Users/stapi/OneDrive/Desktop/GD32VW553/V1_MQTT_OK/GD32VW55X_Wifi_BLE_SDK/GD32VW55x_RELEASE_V1.0.2/MSDK/plf/src\init_rom_symbol.c ****         mbedtls_rsa_import_fn = (void *)0x0bf73f28;
 1564              		.loc 2 290 9 is_stmt 1 discriminator 3
 290:C:/Users/stapi/OneDrive/Desktop/GD32VW553/V1_MQTT_OK/GD32VW55X_Wifi_BLE_SDK/GD32VW55x_RELEASE_V1.0.2/MSDK/plf/src\init_rom_symbol.c ****         mbedtls_rsa_import_fn = (void *)0x0bf73f28;
 1565              		.loc 2 290 32 is_stmt 0 discriminator 3
 1566 0c76 03268113 		lw	a2,312(sp)
 1567 0c7a 9306074D 		addi	a3,a4,1232
 1568 0c7e 14C2     		sw	a3,0(a2)
 291:C:/Users/stapi/OneDrive/Desktop/GD32VW553/V1_MQTT_OK/GD32VW55X_Wifi_BLE_SDK/GD32VW55x_RELEASE_V1.0.2/MSDK/plf/src\init_rom_symbol.c ****         mbedtls_rsa_import_raw_fn = (void *)0x0bf73fba;
 1569              		.loc 2 291 9 is_stmt 1 discriminator 3
 291:C:/Users/stapi/OneDrive/Desktop/GD32VW553/V1_MQTT_OK/GD32VW55X_Wifi_BLE_SDK/GD32VW55x_RELEASE_V1.0.2/MSDK/plf/src\init_rom_symbol.c ****         mbedtls_rsa_import_raw_fn = (void *)0x0bf73fba;
 1570              		.loc 2 291 31 is_stmt 0 discriminator 3
 1571 0c80 0326C113 		lw	a2,316(sp)
 1572 0c84 930687F2 		addi	a3,a4,-216
 1573 0c88 14C2     		sw	a3,0(a2)
 292:C:/Users/stapi/OneDrive/Desktop/GD32VW553/V1_MQTT_OK/GD32VW55X_Wifi_BLE_SDK/GD32VW55x_RELEASE_V1.0.2/MSDK/plf/src\init_rom_symbol.c ****         mbedtls_rsa_init_fn = (void *)0x0bf74498;
 1574              		.loc 2 292 9 is_stmt 1 discriminator 3
 292:C:/Users/stapi/OneDrive/Desktop/GD32VW553/V1_MQTT_OK/GD32VW55X_Wifi_BLE_SDK/GD32VW55x_RELEASE_V1.0.2/MSDK/plf/src\init_rom_symbol.c ****         mbedtls_rsa_init_fn = (void *)0x0bf74498;
 1575              		.loc 2 292 35 is_stmt 0 discriminator 3
 1576 0c8a 03260114 		lw	a2,320(sp)
 1577 0c8e 9306A7FB 		addi	a3,a4,-70
 1578 0c92 14C2     		sw	a3,0(a2)
 293:C:/Users/stapi/OneDrive/Desktop/GD32VW553/V1_MQTT_OK/GD32VW55X_Wifi_BLE_SDK/GD32VW55x_RELEASE_V1.0.2/MSDK/plf/src\init_rom_symbol.c ****         mbedtls_rsa_pkcs1_decrypt_fn = (void *)0x0bf755f6;
 1579              		.loc 2 293 9 is_stmt 1 discriminator 3
 293:C:/Users/stapi/OneDrive/Desktop/GD32VW553/V1_MQTT_OK/GD32VW55X_Wifi_BLE_SDK/GD32VW55x_RELEASE_V1.0.2/MSDK/plf/src\init_rom_symbol.c ****         mbedtls_rsa_pkcs1_decrypt_fn = (void *)0x0bf755f6;
 1580              		.loc 2 293 29 is_stmt 0 discriminator 3
 1581 0c94 03264114 		lw	a2,324(sp)
 1582 0c98 93068749 		addi	a3,a4,1176
 310:C:/Users/stapi/OneDrive/Desktop/GD32VW553/V1_MQTT_OK/GD32VW55X_Wifi_BLE_SDK/GD32VW55x_RELEASE_V1.0.2/MSDK/plf/src\init_rom_symbol.c ****         mbedtls_sha256_clone_fn = (void *)0x0bf76374;
 1583              		.loc 2 310 36 discriminator 3
 1584 0c9c 1307674C 		addi	a4,a4,1222
 293:C:/Users/stapi/OneDrive/Desktop/GD32VW553/V1_MQTT_OK/GD32VW55X_Wifi_BLE_SDK/GD32VW55x_RELEASE_V1.0.2/MSDK/plf/src\init_rom_symbol.c ****         mbedtls_rsa_pkcs1_decrypt_fn = (void *)0x0bf755f6;
 1585              		.loc 2 293 29 discriminator 3
 1586 0ca0 14C2     		sw	a3,0(a2)
 294:C:/Users/stapi/OneDrive/Desktop/GD32VW553/V1_MQTT_OK/GD32VW55X_Wifi_BLE_SDK/GD32VW55x_RELEASE_V1.0.2/MSDK/plf/src\init_rom_symbol.c ****         mbedtls_rsa_pkcs1_encrypt_fn = (void *)0x0bf75138;
 1587              		.loc 2 294 9 is_stmt 1 discriminator 3
 294:C:/Users/stapi/OneDrive/Desktop/GD32VW553/V1_MQTT_OK/GD32VW55X_Wifi_BLE_SDK/GD32VW55x_RELEASE_V1.0.2/MSDK/plf/src\init_rom_symbol.c ****         mbedtls_rsa_pkcs1_encrypt_fn = (void *)0x0bf75138;
 1588              		.loc 2 294 38 is_stmt 0 discriminator 3
 1589 0ca2 B756F70B 		li	a3,200757248
 1590 0ca6 1386665F 		addi	a2,a3,1526
 1591 0caa 90C1     		sw	a2,0(a1)
 295:C:/Users/stapi/OneDrive/Desktop/GD32VW553/V1_MQTT_OK/GD32VW55X_Wifi_BLE_SDK/GD32VW55x_RELEASE_V1.0.2/MSDK/plf/src\init_rom_symbol.c ****         mbedtls_rsa_pkcs1_sign_fn = (void *)0x0bf75928;
 1592              		.loc 2 295 9 is_stmt 1 discriminator 3
 295:C:/Users/stapi/OneDrive/Desktop/GD32VW553/V1_MQTT_OK/GD32VW55X_Wifi_BLE_SDK/GD32VW55x_RELEASE_V1.0.2/MSDK/plf/src\init_rom_symbol.c ****         mbedtls_rsa_pkcs1_sign_fn = (void *)0x0bf75928;
 1593              		.loc 2 295 38 is_stmt 0 discriminator 3
 1594 0cac 8325C114 		lw	a1,332(sp)
 1595 0cb0 13868613 		addi	a2,a3,312
 1596 0cb4 90C1     		sw	a2,0(a1)
 296:C:/Users/stapi/OneDrive/Desktop/GD32VW553/V1_MQTT_OK/GD32VW55X_Wifi_BLE_SDK/GD32VW55x_RELEASE_V1.0.2/MSDK/plf/src\init_rom_symbol.c ****         mbedtls_rsa_pkcs1_verify_fn = (void *)0x0bf75c98;
 1597              		.loc 2 296 9 is_stmt 1 discriminator 3
 296:C:/Users/stapi/OneDrive/Desktop/GD32VW553/V1_MQTT_OK/GD32VW55X_Wifi_BLE_SDK/GD32VW55x_RELEASE_V1.0.2/MSDK/plf/src\init_rom_symbol.c ****         mbedtls_rsa_pkcs1_verify_fn = (void *)0x0bf75c98;
 1598              		.loc 2 296 35 is_stmt 0 discriminator 3
 1599 0cb6 83250115 		lw	a1,336(sp)
 1600 0cba 13868792 		addi	a2,a5,-1752
 1601 0cbe 90C1     		sw	a2,0(a1)
 297:C:/Users/stapi/OneDrive/Desktop/GD32VW553/V1_MQTT_OK/GD32VW55X_Wifi_BLE_SDK/GD32VW55x_RELEASE_V1.0.2/MSDK/plf/src\init_rom_symbol.c ****         mbedtls_rsa_private_fn = (void *)0x0bf74e92;
 1602              		.loc 2 297 9 is_stmt 1 discriminator 3
 297:C:/Users/stapi/OneDrive/Desktop/GD32VW553/V1_MQTT_OK/GD32VW55X_Wifi_BLE_SDK/GD32VW55x_RELEASE_V1.0.2/MSDK/plf/src\init_rom_symbol.c ****         mbedtls_rsa_private_fn = (void *)0x0bf74e92;
 1603              		.loc 2 297 37 is_stmt 0 discriminator 3
 1604 0cc0 83254115 		lw	a1,340(sp)
 1605 0cc4 138687C9 		addi	a2,a5,-872
 1606 0cc8 90C1     		sw	a2,0(a1)
 298:C:/Users/stapi/OneDrive/Desktop/GD32VW553/V1_MQTT_OK/GD32VW55X_Wifi_BLE_SDK/GD32VW55x_RELEASE_V1.0.2/MSDK/plf/src\init_rom_symbol.c ****         mbedtls_rsa_private_sw_fn = (void *)0x0bf7496c;
 1607              		.loc 2 298 9 is_stmt 1 discriminator 3
 298:C:/Users/stapi/OneDrive/Desktop/GD32VW553/V1_MQTT_OK/GD32VW55X_Wifi_BLE_SDK/GD32VW55x_RELEASE_V1.0.2/MSDK/plf/src\init_rom_symbol.c ****         mbedtls_rsa_private_sw_fn = (void *)0x0bf7496c;
 1608              		.loc 2 298 32 is_stmt 0 discriminator 3
 1609 0cca 83258115 		lw	a1,344(sp)
 1610 0cce 138626E9 		addi	a2,a3,-366
 1611 0cd2 90C1     		sw	a2,0(a1)
 299:C:/Users/stapi/OneDrive/Desktop/GD32VW553/V1_MQTT_OK/GD32VW55X_Wifi_BLE_SDK/GD32VW55x_RELEASE_V1.0.2/MSDK/plf/src\init_rom_symbol.c ****         mbedtls_rsa_public_fn = (void *)0x0bf74814;
 1612              		.loc 2 299 9 is_stmt 1 discriminator 3
 299:C:/Users/stapi/OneDrive/Desktop/GD32VW553/V1_MQTT_OK/GD32VW55X_Wifi_BLE_SDK/GD32VW55x_RELEASE_V1.0.2/MSDK/plf/src\init_rom_symbol.c ****         mbedtls_rsa_public_fn = (void *)0x0bf74814;
 1613              		.loc 2 299 35 is_stmt 0 discriminator 3
 1614 0cd4 8325C115 		lw	a1,348(sp)
 1615 0cd8 1386C696 		addi	a2,a3,-1684
 1616 0cdc 90C1     		sw	a2,0(a1)
 300:C:/Users/stapi/OneDrive/Desktop/GD32VW553/V1_MQTT_OK/GD32VW55X_Wifi_BLE_SDK/GD32VW55x_RELEASE_V1.0.2/MSDK/plf/src\init_rom_symbol.c ****         mbedtls_rsa_rsaes_oaep_decrypt_fn = (void *)0x0bf7516c;
 1617              		.loc 2 300 9 is_stmt 1 discriminator 3
 300:C:/Users/stapi/OneDrive/Desktop/GD32VW553/V1_MQTT_OK/GD32VW55X_Wifi_BLE_SDK/GD32VW55x_RELEASE_V1.0.2/MSDK/plf/src\init_rom_symbol.c ****         mbedtls_rsa_rsaes_oaep_decrypt_fn = (void *)0x0bf7516c;
 1618              		.loc 2 300 31 is_stmt 0 discriminator 3
 1619 0cde 83250116 		lw	a1,352(sp)
 1620 0ce2 13864681 		addi	a2,a3,-2028
 1621 0ce6 90C1     		sw	a2,0(a1)
 301:C:/Users/stapi/OneDrive/Desktop/GD32VW553/V1_MQTT_OK/GD32VW55X_Wifi_BLE_SDK/GD32VW55x_RELEASE_V1.0.2/MSDK/plf/src\init_rom_symbol.c ****         mbedtls_rsa_rsaes_oaep_encrypt_fn = (void *)0x0bf74ea6;
 1622              		.loc 2 301 9 is_stmt 1 discriminator 3
 301:C:/Users/stapi/OneDrive/Desktop/GD32VW553/V1_MQTT_OK/GD32VW55X_Wifi_BLE_SDK/GD32VW55x_RELEASE_V1.0.2/MSDK/plf/src\init_rom_symbol.c ****         mbedtls_rsa_rsaes_oaep_encrypt_fn = (void *)0x0bf74ea6;
 1623              		.loc 2 301 43 is_stmt 0 discriminator 3
 1624 0ce8 83254116 		lw	a1,356(sp)
 1625 0cec 1386C616 		addi	a2,a3,364
 1626 0cf0 90C1     		sw	a2,0(a1)
 302:C:/Users/stapi/OneDrive/Desktop/GD32VW553/V1_MQTT_OK/GD32VW55X_Wifi_BLE_SDK/GD32VW55x_RELEASE_V1.0.2/MSDK/plf/src\init_rom_symbol.c ****         mbedtls_rsa_rsaes_pkcs1_v15_decrypt_fn = (void *)0x0bf7539e;
 1627              		.loc 2 302 9 is_stmt 1 discriminator 3
 302:C:/Users/stapi/OneDrive/Desktop/GD32VW553/V1_MQTT_OK/GD32VW55X_Wifi_BLE_SDK/GD32VW55x_RELEASE_V1.0.2/MSDK/plf/src\init_rom_symbol.c ****         mbedtls_rsa_rsaes_pkcs1_v15_decrypt_fn = (void *)0x0bf7539e;
 1628              		.loc 2 302 43 is_stmt 0 discriminator 3
 1629 0cf2 83258116 		lw	a1,360(sp)
 1630 0cf6 138666EA 		addi	a2,a3,-346
 1631 0cfa 90C1     		sw	a2,0(a1)
 303:C:/Users/stapi/OneDrive/Desktop/GD32VW553/V1_MQTT_OK/GD32VW55X_Wifi_BLE_SDK/GD32VW55x_RELEASE_V1.0.2/MSDK/plf/src\init_rom_symbol.c ****         mbedtls_rsa_rsaes_pkcs1_v15_encrypt_fn = (void *)0x0bf7500c;
 1632              		.loc 2 303 9 is_stmt 1 discriminator 3
 303:C:/Users/stapi/OneDrive/Desktop/GD32VW553/V1_MQTT_OK/GD32VW55X_Wifi_BLE_SDK/GD32VW55x_RELEASE_V1.0.2/MSDK/plf/src\init_rom_symbol.c ****         mbedtls_rsa_rsaes_pkcs1_v15_encrypt_fn = (void *)0x0bf7500c;
 1633              		.loc 2 303 48 is_stmt 0 discriminator 3
 1634 0cfc 8325C116 		lw	a1,364(sp)
 1635 0d00 1386E639 		addi	a2,a3,926
 1636 0d04 90C1     		sw	a2,0(a1)
 304:C:/Users/stapi/OneDrive/Desktop/GD32VW553/V1_MQTT_OK/GD32VW55X_Wifi_BLE_SDK/GD32VW55x_RELEASE_V1.0.2/MSDK/plf/src\init_rom_symbol.c ****         mbedtls_rsa_rsassa_pkcs1_v15_sign_fn = (void *)0x0bf7581a;
 1637              		.loc 2 304 9 is_stmt 1 discriminator 3
 304:C:/Users/stapi/OneDrive/Desktop/GD32VW553/V1_MQTT_OK/GD32VW55X_Wifi_BLE_SDK/GD32VW55x_RELEASE_V1.0.2/MSDK/plf/src\init_rom_symbol.c ****         mbedtls_rsa_rsassa_pkcs1_v15_sign_fn = (void *)0x0bf7581a;
 1638              		.loc 2 304 48 is_stmt 0 discriminator 3
 1639 0d06 83250117 		lw	a1,368(sp)
 1640 0d0a 1386C600 		addi	a2,a3,12
 307:C:/Users/stapi/OneDrive/Desktop/GD32VW553/V1_MQTT_OK/GD32VW55X_Wifi_BLE_SDK/GD32VW55x_RELEASE_V1.0.2/MSDK/plf/src\init_rom_symbol.c ****         mbedtls_rsa_rsassa_pss_verify_fn = (void *)0x0bf75b6e;
 1641              		.loc 2 307 40 discriminator 3
 1642 0d0e 93860663 		addi	a3,a3,1584
 304:C:/Users/stapi/OneDrive/Desktop/GD32VW553/V1_MQTT_OK/GD32VW55X_Wifi_BLE_SDK/GD32VW55x_RELEASE_V1.0.2/MSDK/plf/src\init_rom_symbol.c ****         mbedtls_rsa_rsassa_pkcs1_v15_sign_fn = (void *)0x0bf7581a;
 1643              		.loc 2 304 48 discriminator 3
 1644 0d12 90C1     		sw	a2,0(a1)
 305:C:/Users/stapi/OneDrive/Desktop/GD32VW553/V1_MQTT_OK/GD32VW55X_Wifi_BLE_SDK/GD32VW55x_RELEASE_V1.0.2/MSDK/plf/src\init_rom_symbol.c ****         mbedtls_rsa_rsassa_pkcs1_v15_verify_fn = (void *)0x0bf75b8e;
 1645              		.loc 2 305 9 is_stmt 1 discriminator 3
 305:C:/Users/stapi/OneDrive/Desktop/GD32VW553/V1_MQTT_OK/GD32VW55X_Wifi_BLE_SDK/GD32VW55x_RELEASE_V1.0.2/MSDK/plf/src\init_rom_symbol.c ****         mbedtls_rsa_rsassa_pkcs1_v15_verify_fn = (void *)0x0bf75b8e;
 1646              		.loc 2 305 46 is_stmt 0 discriminator 3
 1647 0d14 83254117 		lw	a1,372(sp)
 1648 0d18 1386A781 		addi	a2,a5,-2022
 1649 0d1c 90C1     		sw	a2,0(a1)
 306:C:/Users/stapi/OneDrive/Desktop/GD32VW553/V1_MQTT_OK/GD32VW55X_Wifi_BLE_SDK/GD32VW55x_RELEASE_V1.0.2/MSDK/plf/src\init_rom_symbol.c ****         mbedtls_rsa_rsassa_pss_sign_fn = (void *)0x0bf75630;
 1650              		.loc 2 306 9 is_stmt 1 discriminator 3
 306:C:/Users/stapi/OneDrive/Desktop/GD32VW553/V1_MQTT_OK/GD32VW55X_Wifi_BLE_SDK/GD32VW55x_RELEASE_V1.0.2/MSDK/plf/src\init_rom_symbol.c ****         mbedtls_rsa_rsassa_pss_sign_fn = (void *)0x0bf75630;
 1651              		.loc 2 306 48 is_stmt 0 discriminator 3
 1652 0d1e 83258117 		lw	a1,376(sp)
 1653 0d22 1386E7B8 		addi	a2,a5,-1138
 1654 0d26 90C1     		sw	a2,0(a1)
 307:C:/Users/stapi/OneDrive/Desktop/GD32VW553/V1_MQTT_OK/GD32VW55X_Wifi_BLE_SDK/GD32VW55x_RELEASE_V1.0.2/MSDK/plf/src\init_rom_symbol.c ****         mbedtls_rsa_rsassa_pss_verify_fn = (void *)0x0bf75b6e;
 1655              		.loc 2 307 9 is_stmt 1 discriminator 3
 307:C:/Users/stapi/OneDrive/Desktop/GD32VW553/V1_MQTT_OK/GD32VW55X_Wifi_BLE_SDK/GD32VW55x_RELEASE_V1.0.2/MSDK/plf/src\init_rom_symbol.c ****         mbedtls_rsa_rsassa_pss_verify_fn = (void *)0x0bf75b6e;
 1656              		.loc 2 307 40 is_stmt 0 discriminator 3
 1657 0d28 0326C117 		lw	a2,380(sp)
 1658 0d2c 14C2     		sw	a3,0(a2)
 308:C:/Users/stapi/OneDrive/Desktop/GD32VW553/V1_MQTT_OK/GD32VW55X_Wifi_BLE_SDK/GD32VW55x_RELEASE_V1.0.2/MSDK/plf/src\init_rom_symbol.c ****         mbedtls_rsa_rsassa_pss_verify_ext_fn = (void *)0x0bf75946;
 1659              		.loc 2 308 9 is_stmt 1 discriminator 3
 308:C:/Users/stapi/OneDrive/Desktop/GD32VW553/V1_MQTT_OK/GD32VW55X_Wifi_BLE_SDK/GD32VW55x_RELEASE_V1.0.2/MSDK/plf/src\init_rom_symbol.c ****         mbedtls_rsa_rsassa_pss_verify_ext_fn = (void *)0x0bf75946;
 1660              		.loc 2 308 42 is_stmt 0 discriminator 3
 1661 0d2e 03260118 		lw	a2,384(sp)
 1662 0d32 9386E7B6 		addi	a3,a5,-1170
 1663 0d36 14C2     		sw	a3,0(a2)
 309:C:/Users/stapi/OneDrive/Desktop/GD32VW553/V1_MQTT_OK/GD32VW55X_Wifi_BLE_SDK/GD32VW55x_RELEASE_V1.0.2/MSDK/plf/src\init_rom_symbol.c ****         mbedtls_rsa_set_padding_fn = (void *)0x0bf744c6;
 1664              		.loc 2 309 9 is_stmt 1 discriminator 3
 309:C:/Users/stapi/OneDrive/Desktop/GD32VW553/V1_MQTT_OK/GD32VW55X_Wifi_BLE_SDK/GD32VW55x_RELEASE_V1.0.2/MSDK/plf/src\init_rom_symbol.c ****         mbedtls_rsa_set_padding_fn = (void *)0x0bf744c6;
 1665              		.loc 2 309 46 is_stmt 0 discriminator 3
 1666 0d38 03264118 		lw	a2,388(sp)
 1667 0d3c 93866794 		addi	a3,a5,-1722
 1668 0d40 14C2     		sw	a3,0(a2)
 310:C:/Users/stapi/OneDrive/Desktop/GD32VW553/V1_MQTT_OK/GD32VW55X_Wifi_BLE_SDK/GD32VW55x_RELEASE_V1.0.2/MSDK/plf/src\init_rom_symbol.c ****         mbedtls_sha256_clone_fn = (void *)0x0bf76374;
 1669              		.loc 2 310 9 is_stmt 1 discriminator 3
 310:C:/Users/stapi/OneDrive/Desktop/GD32VW553/V1_MQTT_OK/GD32VW55X_Wifi_BLE_SDK/GD32VW55x_RELEASE_V1.0.2/MSDK/plf/src\init_rom_symbol.c ****         mbedtls_sha256_clone_fn = (void *)0x0bf76374;
 1670              		.loc 2 310 36 is_stmt 0 discriminator 3
 1671 0d42 83268118 		lw	a3,392(sp)
 1672 0d46 98C2     		sw	a4,0(a3)
 311:C:/Users/stapi/OneDrive/Desktop/GD32VW553/V1_MQTT_OK/GD32VW55X_Wifi_BLE_SDK/GD32VW55x_RELEASE_V1.0.2/MSDK/plf/src\init_rom_symbol.c ****         mbedtls_sha256_finish_fn = (void *)0x0bf7642e;
 1673              		.loc 2 311 9 is_stmt 1 discriminator 3
 311:C:/Users/stapi/OneDrive/Desktop/GD32VW553/V1_MQTT_OK/GD32VW55X_Wifi_BLE_SDK/GD32VW55x_RELEASE_V1.0.2/MSDK/plf/src\init_rom_symbol.c ****         mbedtls_sha256_finish_fn = (void *)0x0bf7642e;
 1674              		.loc 2 311 33 is_stmt 0 discriminator 3
 1675 0d48 8326C118 		lw	a3,396(sp)
 1676 0d4c 13874737 		addi	a4,a5,884
 1677 0d50 98C2     		sw	a4,0(a3)
 312:C:/Users/stapi/OneDrive/Desktop/GD32VW553/V1_MQTT_OK/GD32VW55X_Wifi_BLE_SDK/GD32VW55x_RELEASE_V1.0.2/MSDK/plf/src\init_rom_symbol.c ****         mbedtls_sha256_finish_ret_fn = (void *)0x0bf76406;
 1678              		.loc 2 312 9 is_stmt 1 discriminator 3
 312:C:/Users/stapi/OneDrive/Desktop/GD32VW553/V1_MQTT_OK/GD32VW55X_Wifi_BLE_SDK/GD32VW55x_RELEASE_V1.0.2/MSDK/plf/src\init_rom_symbol.c ****         mbedtls_sha256_finish_ret_fn = (void *)0x0bf76406;
 1679              		.loc 2 312 34 is_stmt 0 discriminator 3
 1680 0d52 83260119 		lw	a3,400(sp)
 1681 0d56 1387E742 		addi	a4,a5,1070
 1682 0d5a 98C2     		sw	a4,0(a3)
 313:C:/Users/stapi/OneDrive/Desktop/GD32VW553/V1_MQTT_OK/GD32VW55X_Wifi_BLE_SDK/GD32VW55x_RELEASE_V1.0.2/MSDK/plf/src\init_rom_symbol.c ****         mbedtls_sha256_free_fn = (void *)0x0bf76362;
 1683              		.loc 2 313 9 is_stmt 1 discriminator 3
 313:C:/Users/stapi/OneDrive/Desktop/GD32VW553/V1_MQTT_OK/GD32VW55X_Wifi_BLE_SDK/GD32VW55x_RELEASE_V1.0.2/MSDK/plf/src\init_rom_symbol.c ****         mbedtls_sha256_free_fn = (void *)0x0bf76362;
 1684              		.loc 2 313 38 is_stmt 0 discriminator 3
 1685 0d5c 83264119 		lw	a3,404(sp)
 1686 0d60 13876740 		addi	a4,a5,1030
 1687 0d64 98C2     		sw	a4,0(a3)
 314:C:/Users/stapi/OneDrive/Desktop/GD32VW553/V1_MQTT_OK/GD32VW55X_Wifi_BLE_SDK/GD32VW55x_RELEASE_V1.0.2/MSDK/plf/src\init_rom_symbol.c ****         mbedtls_sha256_init_fn = (void *)0x0bf7635e;
 1688              		.loc 2 314 9 is_stmt 1 discriminator 3
 314:C:/Users/stapi/OneDrive/Desktop/GD32VW553/V1_MQTT_OK/GD32VW55X_Wifi_BLE_SDK/GD32VW55x_RELEASE_V1.0.2/MSDK/plf/src\init_rom_symbol.c ****         mbedtls_sha256_init_fn = (void *)0x0bf7635e;
 1689              		.loc 2 314 32 is_stmt 0 discriminator 3
 1690 0d66 83268119 		lw	a3,408(sp)
 1691 0d6a 13872736 		addi	a4,a5,866
 1692 0d6e 98C2     		sw	a4,0(a3)
 315:C:/Users/stapi/OneDrive/Desktop/GD32VW553/V1_MQTT_OK/GD32VW55X_Wifi_BLE_SDK/GD32VW55x_RELEASE_V1.0.2/MSDK/plf/src\init_rom_symbol.c ****         mbedtls_sha256_starts_fn = (void *)0x0bf763a6;
 1693              		.loc 2 315 9 is_stmt 1 discriminator 3
 315:C:/Users/stapi/OneDrive/Desktop/GD32VW553/V1_MQTT_OK/GD32VW55X_Wifi_BLE_SDK/GD32VW55x_RELEASE_V1.0.2/MSDK/plf/src\init_rom_symbol.c ****         mbedtls_sha256_starts_fn = (void *)0x0bf763a6;
 1694              		.loc 2 315 32 is_stmt 0 discriminator 3
 1695 0d70 8326C119 		lw	a3,412(sp)
 1696 0d74 1387E735 		addi	a4,a5,862
 1697 0d78 98C2     		sw	a4,0(a3)
 316:C:/Users/stapi/OneDrive/Desktop/GD32VW553/V1_MQTT_OK/GD32VW55X_Wifi_BLE_SDK/GD32VW55x_RELEASE_V1.0.2/MSDK/plf/src\init_rom_symbol.c ****         mbedtls_sha256_starts_ret_fn = (void *)0x0bf7637c;
 1698              		.loc 2 316 9 is_stmt 1 discriminator 3
 316:C:/Users/stapi/OneDrive/Desktop/GD32VW553/V1_MQTT_OK/GD32VW55X_Wifi_BLE_SDK/GD32VW55x_RELEASE_V1.0.2/MSDK/plf/src\init_rom_symbol.c ****         mbedtls_sha256_starts_ret_fn = (void *)0x0bf7637c;
 1699              		.loc 2 316 34 is_stmt 0 discriminator 3
 1700 0d7a 8326011A 		lw	a3,416(sp)
 1701 0d7e 1387673A 		addi	a4,a5,934
 1702 0d82 98C2     		sw	a4,0(a3)
 317:C:/Users/stapi/OneDrive/Desktop/GD32VW553/V1_MQTT_OK/GD32VW55X_Wifi_BLE_SDK/GD32VW55x_RELEASE_V1.0.2/MSDK/plf/src\init_rom_symbol.c ****         mbedtls_sha256_update_fn = (void *)0x0bf763da;
 1703              		.loc 2 317 9 is_stmt 1 discriminator 3
 317:C:/Users/stapi/OneDrive/Desktop/GD32VW553/V1_MQTT_OK/GD32VW55X_Wifi_BLE_SDK/GD32VW55x_RELEASE_V1.0.2/MSDK/plf/src\init_rom_symbol.c ****         mbedtls_sha256_update_fn = (void *)0x0bf763da;
 1704              		.loc 2 317 38 is_stmt 0 discriminator 3
 1705 0d84 8326411A 		lw	a3,420(sp)
 1706 0d88 1387C737 		addi	a4,a5,892
 1707 0d8c 98C2     		sw	a4,0(a3)
 318:C:/Users/stapi/OneDrive/Desktop/GD32VW553/V1_MQTT_OK/GD32VW55X_Wifi_BLE_SDK/GD32VW55x_RELEASE_V1.0.2/MSDK/plf/src\init_rom_symbol.c ****         mbedtls_sha256_update_ret_fn = (void *)0x0bf763aa;
 1708              		.loc 2 318 9 is_stmt 1 discriminator 3
 318:C:/Users/stapi/OneDrive/Desktop/GD32VW553/V1_MQTT_OK/GD32VW55X_Wifi_BLE_SDK/GD32VW55x_RELEASE_V1.0.2/MSDK/plf/src\init_rom_symbol.c ****         mbedtls_sha256_update_ret_fn = (void *)0x0bf763aa;
 1709              		.loc 2 318 34 is_stmt 0 discriminator 3
 1710 0d8e 8326811A 		lw	a3,424(sp)
 1711 0d92 1387A73D 		addi	a4,a5,986
 319:C:/Users/stapi/OneDrive/Desktop/GD32VW553/V1_MQTT_OK/GD32VW55X_Wifi_BLE_SDK/GD32VW55x_RELEASE_V1.0.2/MSDK/plf/src\init_rom_symbol.c ****     }
 1712              		.loc 2 319 38 discriminator 3
 1713 0d96 9387A73A 		addi	a5,a5,938
 318:C:/Users/stapi/OneDrive/Desktop/GD32VW553/V1_MQTT_OK/GD32VW55X_Wifi_BLE_SDK/GD32VW55x_RELEASE_V1.0.2/MSDK/plf/src\init_rom_symbol.c ****         mbedtls_sha256_update_ret_fn = (void *)0x0bf763aa;
 1714              		.loc 2 318 34 discriminator 3
 1715 0d9a 98C2     		sw	a4,0(a3)
 319:C:/Users/stapi/OneDrive/Desktop/GD32VW553/V1_MQTT_OK/GD32VW55X_Wifi_BLE_SDK/GD32VW55x_RELEASE_V1.0.2/MSDK/plf/src\init_rom_symbol.c ****     }
 1716              		.loc 2 319 9 is_stmt 1 discriminator 3
 1717 0d9c 65B6     		j	.L11
 1718              		.cfi_endproc
 1719              	.LFE376:
 1721              		.section	.text.rom_init,"ax",@progbits
 1722              		.align	1
 1723              		.globl	rom_init
 1725              	rom_init:
 1726              	.LFB379:
  49:C:/Users/stapi/OneDrive/Desktop/GD32VW553/V1_MQTT_OK/GD32VW55X_Wifi_BLE_SDK/GD32VW55x_RELEASE_V1.0.2/MSDK/plf/src\init_rom.c **** }
  50:C:/Users/stapi/OneDrive/Desktop/GD32VW553/V1_MQTT_OK/GD32VW55X_Wifi_BLE_SDK/GD32VW55x_RELEASE_V1.0.2/MSDK/plf/src\init_rom.c **** 
  51:C:/Users/stapi/OneDrive/Desktop/GD32VW553/V1_MQTT_OK/GD32VW55X_Wifi_BLE_SDK/GD32VW55x_RELEASE_V1.0.2/MSDK/plf/src\init_rom.c **** static void mebdtls_platform_init(void)
  52:C:/Users/stapi/OneDrive/Desktop/GD32VW553/V1_MQTT_OK/GD32VW55X_Wifi_BLE_SDK/GD32VW55x_RELEASE_V1.0.2/MSDK/plf/src\init_rom.c **** {
  53:C:/Users/stapi/OneDrive/Desktop/GD32VW553/V1_MQTT_OK/GD32VW55X_Wifi_BLE_SDK/GD32VW55x_RELEASE_V1.0.2/MSDK/plf/src\init_rom.c ****     /* Reconfig function pointers for MbedTLS */
  54:C:/Users/stapi/OneDrive/Desktop/GD32VW553/V1_MQTT_OK/GD32VW55X_Wifi_BLE_SDK/GD32VW55x_RELEASE_V1.0.2/MSDK/plf/src\init_rom.c ****     mbedtls_platform_set_calloc_free((void *(*)(size_t,  size_t))sys_calloc, sys_mfree);
  55:C:/Users/stapi/OneDrive/Desktop/GD32VW553/V1_MQTT_OK/GD32VW55X_Wifi_BLE_SDK/GD32VW55x_RELEASE_V1.0.2/MSDK/plf/src\init_rom.c ****     mbedtls_platform_set_snprintf(snprintf);
  56:C:/Users/stapi/OneDrive/Desktop/GD32VW553/V1_MQTT_OK/GD32VW55X_Wifi_BLE_SDK/GD32VW55x_RELEASE_V1.0.2/MSDK/plf/src\init_rom.c ****     mbedtls_platform_set_printf(printf);
  57:C:/Users/stapi/OneDrive/Desktop/GD32VW553/V1_MQTT_OK/GD32VW55X_Wifi_BLE_SDK/GD32VW55x_RELEASE_V1.0.2/MSDK/plf/src\init_rom.c ****     mbedtls_platform_set_time(my_time_get);
  58:C:/Users/stapi/OneDrive/Desktop/GD32VW553/V1_MQTT_OK/GD32VW55X_Wifi_BLE_SDK/GD32VW55x_RELEASE_V1.0.2/MSDK/plf/src\init_rom.c ****     mbedtls_platform_set_hardware_poll(gd_hardware_poll);
  59:C:/Users/stapi/OneDrive/Desktop/GD32VW553/V1_MQTT_OK/GD32VW55X_Wifi_BLE_SDK/GD32VW55x_RELEASE_V1.0.2/MSDK/plf/src\init_rom.c **** 
  60:C:/Users/stapi/OneDrive/Desktop/GD32VW553/V1_MQTT_OK/GD32VW55X_Wifi_BLE_SDK/GD32VW55x_RELEASE_V1.0.2/MSDK/plf/src\init_rom.c ****     /* Others */
  61:C:/Users/stapi/OneDrive/Desktop/GD32VW553/V1_MQTT_OK/GD32VW55X_Wifi_BLE_SDK/GD32VW55x_RELEASE_V1.0.2/MSDK/plf/src\init_rom.c ****     mbedtls_ecp_curve_val_init();
  62:C:/Users/stapi/OneDrive/Desktop/GD32VW553/V1_MQTT_OK/GD32VW55X_Wifi_BLE_SDK/GD32VW55x_RELEASE_V1.0.2/MSDK/plf/src\init_rom.c **** }
  63:C:/Users/stapi/OneDrive/Desktop/GD32VW553/V1_MQTT_OK/GD32VW55X_Wifi_BLE_SDK/GD32VW55x_RELEASE_V1.0.2/MSDK/plf/src\init_rom.c **** 
  64:C:/Users/stapi/OneDrive/Desktop/GD32VW553/V1_MQTT_OK/GD32VW55X_Wifi_BLE_SDK/GD32VW55x_RELEASE_V1.0.2/MSDK/plf/src\init_rom.c **** /*!
  65:C:/Users/stapi/OneDrive/Desktop/GD32VW553/V1_MQTT_OK/GD32VW55X_Wifi_BLE_SDK/GD32VW55x_RELEASE_V1.0.2/MSDK/plf/src\init_rom.c ****     \brief      initialize rom
  66:C:/Users/stapi/OneDrive/Desktop/GD32VW553/V1_MQTT_OK/GD32VW55X_Wifi_BLE_SDK/GD32VW55x_RELEASE_V1.0.2/MSDK/plf/src\init_rom.c ****     \param[in]  none
  67:C:/Users/stapi/OneDrive/Desktop/GD32VW553/V1_MQTT_OK/GD32VW55X_Wifi_BLE_SDK/GD32VW55x_RELEASE_V1.0.2/MSDK/plf/src\init_rom.c ****     \param[out] none
  68:C:/Users/stapi/OneDrive/Desktop/GD32VW553/V1_MQTT_OK/GD32VW55X_Wifi_BLE_SDK/GD32VW55x_RELEASE_V1.0.2/MSDK/plf/src\init_rom.c ****     \retval     none
  69:C:/Users/stapi/OneDrive/Desktop/GD32VW553/V1_MQTT_OK/GD32VW55X_Wifi_BLE_SDK/GD32VW55x_RELEASE_V1.0.2/MSDK/plf/src\init_rom.c **** */
  70:C:/Users/stapi/OneDrive/Desktop/GD32VW553/V1_MQTT_OK/GD32VW55X_Wifi_BLE_SDK/GD32VW55x_RELEASE_V1.0.2/MSDK/plf/src\init_rom.c **** void rom_init(void)
  71:C:/Users/stapi/OneDrive/Desktop/GD32VW553/V1_MQTT_OK/GD32VW55X_Wifi_BLE_SDK/GD32VW55x_RELEASE_V1.0.2/MSDK/plf/src\init_rom.c **** {
 1727              		.loc 1 71 1
 1728              		.cfi_startproc
 1729 0000 17030000 		call	t0,__riscv_save_0
 1729      E7020300 
 1730              		.cfi_offset 1, -4
 1731              		.cfi_def_cfa_offset 16
  72:C:/Users/stapi/OneDrive/Desktop/GD32VW553/V1_MQTT_OK/GD32VW55X_Wifi_BLE_SDK/GD32VW55x_RELEASE_V1.0.2/MSDK/plf/src\init_rom.c ****     trng_close(1);
 1732              		.loc 1 72 5
 1733 0008 0545     		li	a0,1
 1734 000a 97000000 		call	trng_close
 1734      E7800000 
 1735              	.LVL9:
  73:C:/Users/stapi/OneDrive/Desktop/GD32VW553/V1_MQTT_OK/GD32VW55X_Wifi_BLE_SDK/GD32VW55x_RELEASE_V1.0.2/MSDK/plf/src\init_rom.c ****     rom_symbol_init();
 1736              		.loc 1 73 5
 1737 0012 97000000 		call	rom_symbol_init
 1737      E7800000 
 1738              	.LVL10:
  74:C:/Users/stapi/OneDrive/Desktop/GD32VW553/V1_MQTT_OK/GD32VW55X_Wifi_BLE_SDK/GD32VW55x_RELEASE_V1.0.2/MSDK/plf/src\init_rom.c ****     mebdtls_platform_init();
 1739              		.loc 1 74 5
 1740              	.LBB10:
 1741              	.LBB11:
  54:C:/Users/stapi/OneDrive/Desktop/GD32VW553/V1_MQTT_OK/GD32VW55X_Wifi_BLE_SDK/GD32VW55x_RELEASE_V1.0.2/MSDK/plf/src\init_rom.c ****     mbedtls_platform_set_snprintf(snprintf);
 1742              		.loc 1 54 5
 1743 001a B7050000 		lui	a1,%hi(sys_mfree)
 1744 001e 37050000 		lui	a0,%hi(sys_calloc)
 1745 0022 93850500 		addi	a1,a1,%lo(sys_mfree)
 1746 0026 13050500 		addi	a0,a0,%lo(sys_calloc)
 1747 002a 97000000 		call	mbedtls_platform_set_calloc_free
 1747      E7800000 
 1748              	.LVL11:
  55:C:/Users/stapi/OneDrive/Desktop/GD32VW553/V1_MQTT_OK/GD32VW55X_Wifi_BLE_SDK/GD32VW55x_RELEASE_V1.0.2/MSDK/plf/src\init_rom.c ****     mbedtls_platform_set_printf(printf);
 1749              		.loc 1 55 5
 1750 0032 37050000 		lui	a0,%hi(snprintf)
 1751 0036 13050500 		addi	a0,a0,%lo(snprintf)
 1752 003a 97000000 		call	mbedtls_platform_set_snprintf
 1752      E7800000 
 1753              	.LVL12:
  56:C:/Users/stapi/OneDrive/Desktop/GD32VW553/V1_MQTT_OK/GD32VW55X_Wifi_BLE_SDK/GD32VW55x_RELEASE_V1.0.2/MSDK/plf/src\init_rom.c ****     mbedtls_platform_set_time(my_time_get);
 1754              		.loc 1 56 5
 1755 0042 37050000 		lui	a0,%hi(printf)
 1756 0046 13050500 		addi	a0,a0,%lo(printf)
 1757 004a 97000000 		call	mbedtls_platform_set_printf
 1757      E7800000 
 1758              	.LVL13:
  57:C:/Users/stapi/OneDrive/Desktop/GD32VW553/V1_MQTT_OK/GD32VW55X_Wifi_BLE_SDK/GD32VW55x_RELEASE_V1.0.2/MSDK/plf/src\init_rom.c ****     mbedtls_platform_set_hardware_poll(gd_hardware_poll);
 1759              		.loc 1 57 5
 1760 0052 37050000 		lui	a0,%hi(my_time_get)
 1761 0056 13050500 		addi	a0,a0,%lo(my_time_get)
 1762 005a 97000000 		call	mbedtls_platform_set_time
 1762      E7800000 
 1763              	.LVL14:
  58:C:/Users/stapi/OneDrive/Desktop/GD32VW553/V1_MQTT_OK/GD32VW55X_Wifi_BLE_SDK/GD32VW55x_RELEASE_V1.0.2/MSDK/plf/src\init_rom.c **** 
 1764              		.loc 1 58 5
 1765 0062 37050000 		lui	a0,%hi(gd_hardware_poll)
 1766 0066 13050500 		addi	a0,a0,%lo(gd_hardware_poll)
 1767 006a 97000000 		call	mbedtls_platform_set_hardware_poll
 1767      E7800000 
 1768              	.LVL15:
  61:C:/Users/stapi/OneDrive/Desktop/GD32VW553/V1_MQTT_OK/GD32VW55X_Wifi_BLE_SDK/GD32VW55x_RELEASE_V1.0.2/MSDK/plf/src\init_rom.c **** }
 1769              		.loc 1 61 5
 1770 0072 97000000 		call	mbedtls_ecp_curve_val_init
 1770      E7800000 
 1771              	.LVL16:
 1772              	.LBE11:
 1773              	.LBE10:
  75:C:/Users/stapi/OneDrive/Desktop/GD32VW553/V1_MQTT_OK/GD32VW55X_Wifi_BLE_SDK/GD32VW55x_RELEASE_V1.0.2/MSDK/plf/src\init_rom.c **** }
 1774              		.loc 1 75 1 is_stmt 0
 1775 007a 17030000 		tail	__riscv_restore_0
 1775      67000300 
 1776              		.cfi_restore 1
 1777              		.cfi_def_cfa_offset 0
 1778              		.cfi_endproc
 1779              	.LFE379:
 1781              		.globl	p_rom_api
 1782              		.globl	mbedtls_sha256_update_ret_fn
 1783              		.globl	mbedtls_sha256_update_fn
 1784              		.globl	mbedtls_sha256_starts_ret_fn
 1785              		.globl	mbedtls_sha256_starts_fn
 1786              		.globl	mbedtls_sha256_init_fn
 1787              		.globl	mbedtls_sha256_free_fn
 1788              		.globl	mbedtls_sha256_finish_ret_fn
 1789              		.globl	mbedtls_sha256_finish_fn
 1790              		.globl	mbedtls_sha256_clone_fn
 1791              		.globl	mbedtls_rsa_set_padding_fn
 1792              		.globl	mbedtls_rsa_rsassa_pss_verify_ext_fn
 1793              		.globl	mbedtls_rsa_rsassa_pss_verify_fn
 1794              		.globl	mbedtls_rsa_rsassa_pss_sign_fn
 1795              		.globl	mbedtls_rsa_rsassa_pkcs1_v15_verify_fn
 1796              		.globl	mbedtls_rsa_rsassa_pkcs1_v15_sign_fn
 1797              		.globl	mbedtls_rsa_rsaes_pkcs1_v15_encrypt_fn
 1798              		.globl	mbedtls_rsa_rsaes_pkcs1_v15_decrypt_fn
 1799              		.globl	mbedtls_rsa_rsaes_oaep_encrypt_fn
 1800              		.globl	mbedtls_rsa_rsaes_oaep_decrypt_fn
 1801              		.globl	mbedtls_rsa_public_fn
 1802              		.globl	mbedtls_rsa_private_sw_fn
 1803              		.globl	mbedtls_rsa_private_fn
 1804              		.globl	mbedtls_rsa_pkcs1_verify_fn
 1805              		.globl	mbedtls_rsa_pkcs1_sign_fn
 1806              		.globl	mbedtls_rsa_pkcs1_encrypt_fn
 1807              		.globl	mbedtls_rsa_pkcs1_decrypt_fn
 1808              		.globl	mbedtls_rsa_init_fn
 1809              		.globl	mbedtls_rsa_import_raw_fn
 1810              		.globl	mbedtls_rsa_import_fn
 1811              		.globl	mbedtls_rsa_get_len_fn
 1812              		.globl	mbedtls_rsa_gen_key_fn
 1813              		.globl	mbedtls_rsa_free_fn
 1814              		.globl	mbedtls_rsa_export_raw_fn
 1815              		.globl	mbedtls_rsa_export_crt_fn
 1816              		.globl	mbedtls_rsa_export_fn
 1817              		.globl	mbedtls_rsa_copy_fn
 1818              		.globl	mbedtls_rsa_complete_fn
 1819              		.globl	mbedtls_rsa_check_pubkey_fn
 1820              		.globl	mbedtls_rsa_check_pub_priv_fn
 1821              		.globl	mbedtls_rsa_check_privkey_fn
 1822              		.globl	mbedtls_mpi_write_string_fn
 1823              		.globl	mbedtls_mpi_read_string_fn
 1824              		.globl	mbedtls_mpi_mul_mpi_fn
 1825              		.globl	mbedtls_mpi_mul_int_fn
 1826              		.globl	mbedtls_mpi_mod_mpi_fn
 1827              		.globl	mbedtls_mpi_mod_int_fn
 1828              		.globl	mbedtls_mpi_is_prime_ext_fn
 1829              		.globl	mbedtls_mpi_is_prime_fn
 1830              		.globl	mbedtls_mpi_inv_mod_fn
 1831              		.globl	mbedtls_mpi_gen_prime_fn
 1832              		.globl	mbedtls_mpi_gcd_fn
 1833              		.globl	mbedtls_mpi_fill_random_fn
 1834              		.globl	mbedtls_mpi_exp_mod_sw_fn
 1835              		.globl	mbedtls_mpi_exp_mod_fn
 1836              		.globl	mbedtls_mpi_div_mpi_fn
 1837              		.globl	mbedtls_mpi_div_int_fn
 1838              		.globl	mbedtls_md5_update_ret_fn
 1839              		.globl	mbedtls_md5_update_fn
 1840              		.globl	mbedtls_md5_starts_ret_fn
 1841              		.globl	mbedtls_md5_starts_fn
 1842              		.globl	mbedtls_md5_ret_fn
 1843              		.globl	mbedtls_md5_process_fn
 1844              		.globl	mbedtls_md5_init_fn
 1845              		.globl	mbedtls_md5_free_fn
 1846              		.globl	mbedtls_md5_finish_ret_fn
 1847              		.globl	mbedtls_md5_finish_fn
 1848              		.globl	mbedtls_md5_clone_fn
 1849              		.globl	mbedtls_md5_fn
 1850              		.globl	mbedtls_internal_sha256_process_fn
 1851              		.globl	mbedtls_internal_md5_process_fn
 1852              		.globl	mbedtls_ecp_tls_write_point_fn
 1853              		.globl	mbedtls_ecp_tls_write_group_fn
 1854              		.globl	mbedtls_ecp_tls_read_point_fn
 1855              		.globl	mbedtls_ecp_tls_read_group_id_fn
 1856              		.globl	mbedtls_ecp_tls_read_group_fn
 1857              		.globl	mbedtls_ecp_set_zero_fn
 1858              		.globl	mbedtls_ecp_point_write_binary_fn
 1859              		.globl	mbedtls_ecp_point_read_string_fn
 1860              		.globl	mbedtls_ecp_point_read_binary_fn
 1861              		.globl	mbedtls_ecp_point_init_fn
 1862              		.globl	mbedtls_ecp_point_free_fn
 1863              		.globl	mbedtls_ecp_point_cmp_fn
 1864              		.globl	mbedtls_ecp_muladd_restartable_fn
 1865              		.globl	mbedtls_ecp_muladd_fn
 1866              		.globl	mbedtls_ecp_mul_restartable_fn
 1867              		.globl	mbedtls_ecp_mul_fn
 1868              		.globl	mbedtls_ecp_keypair_init_fn
 1869              		.globl	mbedtls_ecp_keypair_free_fn
 1870              		.globl	mbedtls_ecp_is_zero_fn
 1871              		.globl	mbedtls_ecp_grp_id_list_fn
 1872              		.globl	mbedtls_ecp_group_init_fn
 1873              		.globl	mbedtls_ecp_group_free_fn
 1874              		.globl	mbedtls_ecp_group_copy_fn
 1875              		.globl	mbedtls_ecp_gen_privkey_fn
 1876              		.globl	mbedtls_ecp_gen_keypair_base_fn
 1877              		.globl	mbedtls_ecp_gen_keypair_fn
 1878              		.globl	mbedtls_ecp_gen_key_fn
 1879              		.globl	mbedtls_ecp_curve_list_fn
 1880              		.globl	mbedtls_ecp_curve_info_from_tls_id_fn
 1881              		.globl	mbedtls_ecp_curve_info_from_name_fn
 1882              		.globl	mbedtls_ecp_curve_info_from_grp_id_fn
 1883              		.globl	mbedtls_ecp_copy_fn
 1884              		.globl	mbedtls_ecp_check_pubkey_fn
 1885              		.globl	mbedtls_ecp_check_pub_priv_fn
 1886              		.globl	mbedtls_ecp_check_privkey_fn
 1887              		.globl	mbedtls_ecdsa_write_signature_restartable_fn
 1888              		.globl	mbedtls_ecdsa_write_signature_det_fn
 1889              		.globl	mbedtls_ecdsa_write_signature_fn
 1890              		.globl	mbedtls_ecdsa_verify_fn
 1891              		.globl	mbedtls_ecdsa_sign_det_fn
 1892              		.globl	mbedtls_ecdsa_sign_fn
 1893              		.globl	mbedtls_ecdsa_read_signature_restartable_fn
 1894              		.globl	mbedtls_ecdsa_read_signature_fn
 1895              		.globl	mbedtls_ecdsa_init_fn
 1896              		.globl	mbedtls_ecdsa_genkey_fn
 1897              		.globl	mbedtls_ecdsa_from_keypair_fn
 1898              		.globl	mbedtls_ecdsa_free_fn
 1899              		.globl	ecp_supported_curves
 1900              		.section	.sbss.ecp_supported_curves,"aw",@nobits
 1901              		.align	2
 1902              		.set	.LANCHOR0,. + 0
 1905              	ecp_supported_curves:
 1906 0000 00000000 		.zero	4
 1907              		.section	.sbss.mbedtls_ecdsa_free_fn,"aw",@nobits
 1908              		.align	2
 1909              		.set	.LANCHOR1,. + 0
 1912              	mbedtls_ecdsa_free_fn:
 1913 0000 00000000 		.zero	4
 1914              		.section	.sbss.mbedtls_ecdsa_from_keypair_fn,"aw",@nobits
 1915              		.align	2
 1916              		.set	.LANCHOR2,. + 0
 1919              	mbedtls_ecdsa_from_keypair_fn:
 1920 0000 00000000 		.zero	4
 1921              		.section	.sbss.mbedtls_ecdsa_genkey_fn,"aw",@nobits
 1922              		.align	2
 1923              		.set	.LANCHOR3,. + 0
 1926              	mbedtls_ecdsa_genkey_fn:
 1927 0000 00000000 		.zero	4
 1928              		.section	.sbss.mbedtls_ecdsa_init_fn,"aw",@nobits
 1929              		.align	2
 1930              		.set	.LANCHOR4,. + 0
 1933              	mbedtls_ecdsa_init_fn:
 1934 0000 00000000 		.zero	4
 1935              		.section	.sbss.mbedtls_ecdsa_read_signature_fn,"aw",@nobits
 1936              		.align	2
 1937              		.set	.LANCHOR5,. + 0
 1940              	mbedtls_ecdsa_read_signature_fn:
 1941 0000 00000000 		.zero	4
 1942              		.section	.sbss.mbedtls_ecdsa_read_signature_restartable_fn,"aw",@nobits
 1943              		.align	2
 1944              		.set	.LANCHOR6,. + 0
 1947              	mbedtls_ecdsa_read_signature_restartable_fn:
 1948 0000 00000000 		.zero	4
 1949              		.section	.sbss.mbedtls_ecdsa_sign_det_fn,"aw",@nobits
 1950              		.align	2
 1951              		.set	.LANCHOR8,. + 0
 1954              	mbedtls_ecdsa_sign_det_fn:
 1955 0000 00000000 		.zero	4
 1956              		.section	.sbss.mbedtls_ecdsa_sign_fn,"aw",@nobits
 1957              		.align	2
 1958              		.set	.LANCHOR7,. + 0
 1961              	mbedtls_ecdsa_sign_fn:
 1962 0000 00000000 		.zero	4
 1963              		.section	.sbss.mbedtls_ecdsa_verify_fn,"aw",@nobits
 1964              		.align	2
 1965              		.set	.LANCHOR9,. + 0
 1968              	mbedtls_ecdsa_verify_fn:
 1969 0000 00000000 		.zero	4
 1970              		.section	.sbss.mbedtls_ecdsa_write_signature_det_fn,"aw",@nobits
 1971              		.align	2
 1972              		.set	.LANCHOR11,. + 0
 1975              	mbedtls_ecdsa_write_signature_det_fn:
 1976 0000 00000000 		.zero	4
 1977              		.section	.sbss.mbedtls_ecdsa_write_signature_fn,"aw",@nobits
 1978              		.align	2
 1979              		.set	.LANCHOR10,. + 0
 1982              	mbedtls_ecdsa_write_signature_fn:
 1983 0000 00000000 		.zero	4
 1984              		.section	.sbss.mbedtls_ecdsa_write_signature_restartable_fn,"aw",@nobits
 1985              		.align	2
 1986              		.set	.LANCHOR12,. + 0
 1989              	mbedtls_ecdsa_write_signature_restartable_fn:
 1990 0000 00000000 		.zero	4
 1991              		.section	.sbss.mbedtls_ecp_check_privkey_fn,"aw",@nobits
 1992              		.align	2
 1993              		.set	.LANCHOR13,. + 0
 1996              	mbedtls_ecp_check_privkey_fn:
 1997 0000 00000000 		.zero	4
 1998              		.section	.sbss.mbedtls_ecp_check_pub_priv_fn,"aw",@nobits
 1999              		.align	2
 2000              		.set	.LANCHOR14,. + 0
 2003              	mbedtls_ecp_check_pub_priv_fn:
 2004 0000 00000000 		.zero	4
 2005              		.section	.sbss.mbedtls_ecp_check_pubkey_fn,"aw",@nobits
 2006              		.align	2
 2007              		.set	.LANCHOR15,. + 0
 2010              	mbedtls_ecp_check_pubkey_fn:
 2011 0000 00000000 		.zero	4
 2012              		.section	.sbss.mbedtls_ecp_copy_fn,"aw",@nobits
 2013              		.align	2
 2014              		.set	.LANCHOR16,. + 0
 2017              	mbedtls_ecp_copy_fn:
 2018 0000 00000000 		.zero	4
 2019              		.section	.sbss.mbedtls_ecp_curve_info_from_grp_id_fn,"aw",@nobits
 2020              		.align	2
 2021              		.set	.LANCHOR17,. + 0
 2024              	mbedtls_ecp_curve_info_from_grp_id_fn:
 2025 0000 00000000 		.zero	4
 2026              		.section	.sbss.mbedtls_ecp_curve_info_from_name_fn,"aw",@nobits
 2027              		.align	2
 2028              		.set	.LANCHOR18,. + 0
 2031              	mbedtls_ecp_curve_info_from_name_fn:
 2032 0000 00000000 		.zero	4
 2033              		.section	.sbss.mbedtls_ecp_curve_info_from_tls_id_fn,"aw",@nobits
 2034              		.align	2
 2035              		.set	.LANCHOR19,. + 0
 2038              	mbedtls_ecp_curve_info_from_tls_id_fn:
 2039 0000 00000000 		.zero	4
 2040              		.section	.sbss.mbedtls_ecp_curve_list_fn,"aw",@nobits
 2041              		.align	2
 2042              		.set	.LANCHOR20,. + 0
 2045              	mbedtls_ecp_curve_list_fn:
 2046 0000 00000000 		.zero	4
 2047              		.section	.sbss.mbedtls_ecp_gen_key_fn,"aw",@nobits
 2048              		.align	2
 2049              		.set	.LANCHOR21,. + 0
 2052              	mbedtls_ecp_gen_key_fn:
 2053 0000 00000000 		.zero	4
 2054              		.section	.sbss.mbedtls_ecp_gen_keypair_base_fn,"aw",@nobits
 2055              		.align	2
 2056              		.set	.LANCHOR23,. + 0
 2059              	mbedtls_ecp_gen_keypair_base_fn:
 2060 0000 00000000 		.zero	4
 2061              		.section	.sbss.mbedtls_ecp_gen_keypair_fn,"aw",@nobits
 2062              		.align	2
 2063              		.set	.LANCHOR22,. + 0
 2066              	mbedtls_ecp_gen_keypair_fn:
 2067 0000 00000000 		.zero	4
 2068              		.section	.sbss.mbedtls_ecp_gen_privkey_fn,"aw",@nobits
 2069              		.align	2
 2070              		.set	.LANCHOR24,. + 0
 2073              	mbedtls_ecp_gen_privkey_fn:
 2074 0000 00000000 		.zero	4
 2075              		.section	.sbss.mbedtls_ecp_group_copy_fn,"aw",@nobits
 2076              		.align	2
 2077              		.set	.LANCHOR25,. + 0
 2080              	mbedtls_ecp_group_copy_fn:
 2081 0000 00000000 		.zero	4
 2082              		.section	.sbss.mbedtls_ecp_group_free_fn,"aw",@nobits
 2083              		.align	2
 2084              		.set	.LANCHOR26,. + 0
 2087              	mbedtls_ecp_group_free_fn:
 2088 0000 00000000 		.zero	4
 2089              		.section	.sbss.mbedtls_ecp_group_init_fn,"aw",@nobits
 2090              		.align	2
 2091              		.set	.LANCHOR27,. + 0
 2094              	mbedtls_ecp_group_init_fn:
 2095 0000 00000000 		.zero	4
 2096              		.section	.sbss.mbedtls_ecp_grp_id_list_fn,"aw",@nobits
 2097              		.align	2
 2098              		.set	.LANCHOR28,. + 0
 2101              	mbedtls_ecp_grp_id_list_fn:
 2102 0000 00000000 		.zero	4
 2103              		.section	.sbss.mbedtls_ecp_is_zero_fn,"aw",@nobits
 2104              		.align	2
 2105              		.set	.LANCHOR29,. + 0
 2108              	mbedtls_ecp_is_zero_fn:
 2109 0000 00000000 		.zero	4
 2110              		.section	.sbss.mbedtls_ecp_keypair_free_fn,"aw",@nobits
 2111              		.align	2
 2112              		.set	.LANCHOR30,. + 0
 2115              	mbedtls_ecp_keypair_free_fn:
 2116 0000 00000000 		.zero	4
 2117              		.section	.sbss.mbedtls_ecp_keypair_init_fn,"aw",@nobits
 2118              		.align	2
 2119              		.set	.LANCHOR31,. + 0
 2122              	mbedtls_ecp_keypair_init_fn:
 2123 0000 00000000 		.zero	4
 2124              		.section	.sbss.mbedtls_ecp_mul_fn,"aw",@nobits
 2125              		.align	2
 2126              		.set	.LANCHOR32,. + 0
 2129              	mbedtls_ecp_mul_fn:
 2130 0000 00000000 		.zero	4
 2131              		.section	.sbss.mbedtls_ecp_mul_restartable_fn,"aw",@nobits
 2132              		.align	2
 2133              		.set	.LANCHOR33,. + 0
 2136              	mbedtls_ecp_mul_restartable_fn:
 2137 0000 00000000 		.zero	4
 2138              		.section	.sbss.mbedtls_ecp_muladd_fn,"aw",@nobits
 2139              		.align	2
 2140              		.set	.LANCHOR34,. + 0
 2143              	mbedtls_ecp_muladd_fn:
 2144 0000 00000000 		.zero	4
 2145              		.section	.sbss.mbedtls_ecp_muladd_restartable_fn,"aw",@nobits
 2146              		.align	2
 2147              		.set	.LANCHOR35,. + 0
 2150              	mbedtls_ecp_muladd_restartable_fn:
 2151 0000 00000000 		.zero	4
 2152              		.section	.sbss.mbedtls_ecp_point_cmp_fn,"aw",@nobits
 2153              		.align	2
 2154              		.set	.LANCHOR36,. + 0
 2157              	mbedtls_ecp_point_cmp_fn:
 2158 0000 00000000 		.zero	4
 2159              		.section	.sbss.mbedtls_ecp_point_free_fn,"aw",@nobits
 2160              		.align	2
 2161              		.set	.LANCHOR37,. + 0
 2164              	mbedtls_ecp_point_free_fn:
 2165 0000 00000000 		.zero	4
 2166              		.section	.sbss.mbedtls_ecp_point_init_fn,"aw",@nobits
 2167              		.align	2
 2168              		.set	.LANCHOR38,. + 0
 2171              	mbedtls_ecp_point_init_fn:
 2172 0000 00000000 		.zero	4
 2173              		.section	.sbss.mbedtls_ecp_point_read_binary_fn,"aw",@nobits
 2174              		.align	2
 2175              		.set	.LANCHOR39,. + 0
 2178              	mbedtls_ecp_point_read_binary_fn:
 2179 0000 00000000 		.zero	4
 2180              		.section	.sbss.mbedtls_ecp_point_read_string_fn,"aw",@nobits
 2181              		.align	2
 2182              		.set	.LANCHOR40,. + 0
 2185              	mbedtls_ecp_point_read_string_fn:
 2186 0000 00000000 		.zero	4
 2187              		.section	.sbss.mbedtls_ecp_point_write_binary_fn,"aw",@nobits
 2188              		.align	2
 2189              		.set	.LANCHOR41,. + 0
 2192              	mbedtls_ecp_point_write_binary_fn:
 2193 0000 00000000 		.zero	4
 2194              		.section	.sbss.mbedtls_ecp_set_zero_fn,"aw",@nobits
 2195              		.align	2
 2196              		.set	.LANCHOR42,. + 0
 2199              	mbedtls_ecp_set_zero_fn:
 2200 0000 00000000 		.zero	4
 2201              		.section	.sbss.mbedtls_ecp_tls_read_group_fn,"aw",@nobits
 2202              		.align	2
 2203              		.set	.LANCHOR43,. + 0
 2206              	mbedtls_ecp_tls_read_group_fn:
 2207 0000 00000000 		.zero	4
 2208              		.section	.sbss.mbedtls_ecp_tls_read_group_id_fn,"aw",@nobits
 2209              		.align	2
 2210              		.set	.LANCHOR44,. + 0
 2213              	mbedtls_ecp_tls_read_group_id_fn:
 2214 0000 00000000 		.zero	4
 2215              		.section	.sbss.mbedtls_ecp_tls_read_point_fn,"aw",@nobits
 2216              		.align	2
 2217              		.set	.LANCHOR45,. + 0
 2220              	mbedtls_ecp_tls_read_point_fn:
 2221 0000 00000000 		.zero	4
 2222              		.section	.sbss.mbedtls_ecp_tls_write_group_fn,"aw",@nobits
 2223              		.align	2
 2224              		.set	.LANCHOR46,. + 0
 2227              	mbedtls_ecp_tls_write_group_fn:
 2228 0000 00000000 		.zero	4
 2229              		.section	.sbss.mbedtls_ecp_tls_write_point_fn,"aw",@nobits
 2230              		.align	2
 2231              		.set	.LANCHOR47,. + 0
 2234              	mbedtls_ecp_tls_write_point_fn:
 2235 0000 00000000 		.zero	4
 2236              		.section	.sbss.mbedtls_internal_md5_process_fn,"aw",@nobits
 2237              		.align	2
 2238              		.set	.LANCHOR48,. + 0
 2241              	mbedtls_internal_md5_process_fn:
 2242 0000 00000000 		.zero	4
 2243              		.section	.sbss.mbedtls_internal_sha256_process_fn,"aw",@nobits
 2244              		.align	2
 2245              		.set	.LANCHOR49,. + 0
 2248              	mbedtls_internal_sha256_process_fn:
 2249 0000 00000000 		.zero	4
 2250              		.section	.sbss.mbedtls_md5_clone_fn,"aw",@nobits
 2251              		.align	2
 2252              		.set	.LANCHOR51,. + 0
 2255              	mbedtls_md5_clone_fn:
 2256 0000 00000000 		.zero	4
 2257              		.section	.sbss.mbedtls_md5_finish_fn,"aw",@nobits
 2258              		.align	2
 2259              		.set	.LANCHOR52,. + 0
 2262              	mbedtls_md5_finish_fn:
 2263 0000 00000000 		.zero	4
 2264              		.section	.sbss.mbedtls_md5_finish_ret_fn,"aw",@nobits
 2265              		.align	2
 2266              		.set	.LANCHOR53,. + 0
 2269              	mbedtls_md5_finish_ret_fn:
 2270 0000 00000000 		.zero	4
 2271              		.section	.sbss.mbedtls_md5_fn,"aw",@nobits
 2272              		.align	2
 2273              		.set	.LANCHOR50,. + 0
 2276              	mbedtls_md5_fn:
 2277 0000 00000000 		.zero	4
 2278              		.section	.sbss.mbedtls_md5_free_fn,"aw",@nobits
 2279              		.align	2
 2280              		.set	.LANCHOR54,. + 0
 2283              	mbedtls_md5_free_fn:
 2284 0000 00000000 		.zero	4
 2285              		.section	.sbss.mbedtls_md5_init_fn,"aw",@nobits
 2286              		.align	2
 2287              		.set	.LANCHOR55,. + 0
 2290              	mbedtls_md5_init_fn:
 2291 0000 00000000 		.zero	4
 2292              		.section	.sbss.mbedtls_md5_process_fn,"aw",@nobits
 2293              		.align	2
 2294              		.set	.LANCHOR56,. + 0
 2297              	mbedtls_md5_process_fn:
 2298 0000 00000000 		.zero	4
 2299              		.section	.sbss.mbedtls_md5_ret_fn,"aw",@nobits
 2300              		.align	2
 2301              		.set	.LANCHOR57,. + 0
 2304              	mbedtls_md5_ret_fn:
 2305 0000 00000000 		.zero	4
 2306              		.section	.sbss.mbedtls_md5_starts_fn,"aw",@nobits
 2307              		.align	2
 2308              		.set	.LANCHOR58,. + 0
 2311              	mbedtls_md5_starts_fn:
 2312 0000 00000000 		.zero	4
 2313              		.section	.sbss.mbedtls_md5_starts_ret_fn,"aw",@nobits
 2314              		.align	2
 2315              		.set	.LANCHOR59,. + 0
 2318              	mbedtls_md5_starts_ret_fn:
 2319 0000 00000000 		.zero	4
 2320              		.section	.sbss.mbedtls_md5_update_fn,"aw",@nobits
 2321              		.align	2
 2322              		.set	.LANCHOR60,. + 0
 2325              	mbedtls_md5_update_fn:
 2326 0000 00000000 		.zero	4
 2327              		.section	.sbss.mbedtls_md5_update_ret_fn,"aw",@nobits
 2328              		.align	2
 2329              		.set	.LANCHOR61,. + 0
 2332              	mbedtls_md5_update_ret_fn:
 2333 0000 00000000 		.zero	4
 2334              		.section	.sbss.mbedtls_mpi_div_int_fn,"aw",@nobits
 2335              		.align	2
 2336              		.set	.LANCHOR62,. + 0
 2339              	mbedtls_mpi_div_int_fn:
 2340 0000 00000000 		.zero	4
 2341              		.section	.sbss.mbedtls_mpi_div_mpi_fn,"aw",@nobits
 2342              		.align	2
 2343              		.set	.LANCHOR63,. + 0
 2346              	mbedtls_mpi_div_mpi_fn:
 2347 0000 00000000 		.zero	4
 2348              		.section	.sbss.mbedtls_mpi_exp_mod_fn,"aw",@nobits
 2349              		.align	2
 2350              		.set	.LANCHOR64,. + 0
 2353              	mbedtls_mpi_exp_mod_fn:
 2354 0000 00000000 		.zero	4
 2355              		.section	.sbss.mbedtls_mpi_exp_mod_sw_fn,"aw",@nobits
 2356              		.align	2
 2357              		.set	.LANCHOR65,. + 0
 2360              	mbedtls_mpi_exp_mod_sw_fn:
 2361 0000 00000000 		.zero	4
 2362              		.section	.sbss.mbedtls_mpi_fill_random_fn,"aw",@nobits
 2363              		.align	2
 2364              		.set	.LANCHOR66,. + 0
 2367              	mbedtls_mpi_fill_random_fn:
 2368 0000 00000000 		.zero	4
 2369              		.section	.sbss.mbedtls_mpi_gcd_fn,"aw",@nobits
 2370              		.align	2
 2371              		.set	.LANCHOR67,. + 0
 2374              	mbedtls_mpi_gcd_fn:
 2375 0000 00000000 		.zero	4
 2376              		.section	.sbss.mbedtls_mpi_gen_prime_fn,"aw",@nobits
 2377              		.align	2
 2378              		.set	.LANCHOR68,. + 0
 2381              	mbedtls_mpi_gen_prime_fn:
 2382 0000 00000000 		.zero	4
 2383              		.section	.sbss.mbedtls_mpi_inv_mod_fn,"aw",@nobits
 2384              		.align	2
 2385              		.set	.LANCHOR69,. + 0
 2388              	mbedtls_mpi_inv_mod_fn:
 2389 0000 00000000 		.zero	4
 2390              		.section	.sbss.mbedtls_mpi_is_prime_ext_fn,"aw",@nobits
 2391              		.align	2
 2392              		.set	.LANCHOR71,. + 0
