   1              		.file	"log_uart.c"
   2              		.option nopic
   3              		.attribute arch, "rv32i2p0_m2p0_a2p0_f2p0_c2p0_b_p0p94"
   4              		.attribute unaligned_access, 0
   5              		.attribute stack_align, 16
   6              		.text
   7              	.Ltext0:
   8              		.cfi_sections	.debug_frame
   9              		.section	.text._write,"ax",@progbits
  10              		.align	1
  11              		.globl	_write
  13              	_write:
  14              	.LFB365:
  15              		.file 1 "C:/Users/stapi/OneDrive/Desktop/GD32VW553/V1_MQTT_OK/GD32VW55X_Wifi_BLE_SDK/GD32VW55x_REL
   1:C:/Users/stapi/OneDrive/Desktop/GD32VW553/V1_MQTT_OK/GD32VW55X_Wifi_BLE_SDK/GD32VW55x_RELEASE_V1.0.2/MSDK/plf/src/uart\log_uart.c **** /*!
   2:C:/Users/stapi/OneDrive/Desktop/GD32VW553/V1_MQTT_OK/GD32VW55X_Wifi_BLE_SDK/GD32VW55x_RELEASE_V1.0.2/MSDK/plf/src/uart\log_uart.c ****     \file    log_uart.c
   3:C:/Users/stapi/OneDrive/Desktop/GD32VW553/V1_MQTT_OK/GD32VW55X_Wifi_BLE_SDK/GD32VW55x_RELEASE_V1.0.2/MSDK/plf/src/uart\log_uart.c ****     \brief   LOG UART for GD32VW55x SDK.
   4:C:/Users/stapi/OneDrive/Desktop/GD32VW553/V1_MQTT_OK/GD32VW55X_Wifi_BLE_SDK/GD32VW55x_RELEASE_V1.0.2/MSDK/plf/src/uart\log_uart.c **** 
   5:C:/Users/stapi/OneDrive/Desktop/GD32VW553/V1_MQTT_OK/GD32VW55X_Wifi_BLE_SDK/GD32VW55x_RELEASE_V1.0.2/MSDK/plf/src/uart\log_uart.c ****     \version 2023-07-20, V1.0.0, firmware for GD32VW55x
   6:C:/Users/stapi/OneDrive/Desktop/GD32VW553/V1_MQTT_OK/GD32VW55X_Wifi_BLE_SDK/GD32VW55x_RELEASE_V1.0.2/MSDK/plf/src/uart\log_uart.c **** */
   7:C:/Users/stapi/OneDrive/Desktop/GD32VW553/V1_MQTT_OK/GD32VW55X_Wifi_BLE_SDK/GD32VW55x_RELEASE_V1.0.2/MSDK/plf/src/uart\log_uart.c **** 
   8:C:/Users/stapi/OneDrive/Desktop/GD32VW553/V1_MQTT_OK/GD32VW55X_Wifi_BLE_SDK/GD32VW55x_RELEASE_V1.0.2/MSDK/plf/src/uart\log_uart.c **** /*
   9:C:/Users/stapi/OneDrive/Desktop/GD32VW553/V1_MQTT_OK/GD32VW55X_Wifi_BLE_SDK/GD32VW55x_RELEASE_V1.0.2/MSDK/plf/src/uart\log_uart.c ****     Copyright (c) 2023, GigaDevice Semiconductor Inc.
  10:C:/Users/stapi/OneDrive/Desktop/GD32VW553/V1_MQTT_OK/GD32VW55X_Wifi_BLE_SDK/GD32VW55x_RELEASE_V1.0.2/MSDK/plf/src/uart\log_uart.c **** 
  11:C:/Users/stapi/OneDrive/Desktop/GD32VW553/V1_MQTT_OK/GD32VW55X_Wifi_BLE_SDK/GD32VW55x_RELEASE_V1.0.2/MSDK/plf/src/uart\log_uart.c ****     Redistribution and use in source and binary forms, with or without modification,
  12:C:/Users/stapi/OneDrive/Desktop/GD32VW553/V1_MQTT_OK/GD32VW55X_Wifi_BLE_SDK/GD32VW55x_RELEASE_V1.0.2/MSDK/plf/src/uart\log_uart.c **** are permitted provided that the following conditions are met:
  13:C:/Users/stapi/OneDrive/Desktop/GD32VW553/V1_MQTT_OK/GD32VW55X_Wifi_BLE_SDK/GD32VW55x_RELEASE_V1.0.2/MSDK/plf/src/uart\log_uart.c **** 
  14:C:/Users/stapi/OneDrive/Desktop/GD32VW553/V1_MQTT_OK/GD32VW55X_Wifi_BLE_SDK/GD32VW55x_RELEASE_V1.0.2/MSDK/plf/src/uart\log_uart.c ****     1. Redistributions of source code must retain the above copyright notice, this
  15:C:/Users/stapi/OneDrive/Desktop/GD32VW553/V1_MQTT_OK/GD32VW55X_Wifi_BLE_SDK/GD32VW55x_RELEASE_V1.0.2/MSDK/plf/src/uart\log_uart.c ****        list of conditions and the following disclaimer.
  16:C:/Users/stapi/OneDrive/Desktop/GD32VW553/V1_MQTT_OK/GD32VW55X_Wifi_BLE_SDK/GD32VW55x_RELEASE_V1.0.2/MSDK/plf/src/uart\log_uart.c ****     2. Redistributions in binary form must reproduce the above copyright notice,
  17:C:/Users/stapi/OneDrive/Desktop/GD32VW553/V1_MQTT_OK/GD32VW55X_Wifi_BLE_SDK/GD32VW55x_RELEASE_V1.0.2/MSDK/plf/src/uart\log_uart.c ****        this list of conditions and the following disclaimer in the documentation
  18:C:/Users/stapi/OneDrive/Desktop/GD32VW553/V1_MQTT_OK/GD32VW55X_Wifi_BLE_SDK/GD32VW55x_RELEASE_V1.0.2/MSDK/plf/src/uart\log_uart.c ****        and/or other materials provided with the distribution.
  19:C:/Users/stapi/OneDrive/Desktop/GD32VW553/V1_MQTT_OK/GD32VW55X_Wifi_BLE_SDK/GD32VW55x_RELEASE_V1.0.2/MSDK/plf/src/uart\log_uart.c ****     3. Neither the name of the copyright holder nor the names of its contributors
  20:C:/Users/stapi/OneDrive/Desktop/GD32VW553/V1_MQTT_OK/GD32VW55X_Wifi_BLE_SDK/GD32VW55x_RELEASE_V1.0.2/MSDK/plf/src/uart\log_uart.c ****        may be used to endorse or promote products derived from this software without
  21:C:/Users/stapi/OneDrive/Desktop/GD32VW553/V1_MQTT_OK/GD32VW55X_Wifi_BLE_SDK/GD32VW55x_RELEASE_V1.0.2/MSDK/plf/src/uart\log_uart.c ****        specific prior written permission.
  22:C:/Users/stapi/OneDrive/Desktop/GD32VW553/V1_MQTT_OK/GD32VW55X_Wifi_BLE_SDK/GD32VW55x_RELEASE_V1.0.2/MSDK/plf/src/uart\log_uart.c **** 
  23:C:/Users/stapi/OneDrive/Desktop/GD32VW553/V1_MQTT_OK/GD32VW55X_Wifi_BLE_SDK/GD32VW55x_RELEASE_V1.0.2/MSDK/plf/src/uart\log_uart.c ****     THIS SOFTWARE IS PROVIDED BY THE COPYRIGHT HOLDERS AND CONTRIBUTORS "AS IS"
  24:C:/Users/stapi/OneDrive/Desktop/GD32VW553/V1_MQTT_OK/GD32VW55X_Wifi_BLE_SDK/GD32VW55x_RELEASE_V1.0.2/MSDK/plf/src/uart\log_uart.c **** AND ANY EXPRESS OR IMPLIED WARRANTIES, INCLUDING, BUT NOT LIMITED TO, THE IMPLIED
  25:C:/Users/stapi/OneDrive/Desktop/GD32VW553/V1_MQTT_OK/GD32VW55X_Wifi_BLE_SDK/GD32VW55x_RELEASE_V1.0.2/MSDK/plf/src/uart\log_uart.c **** WARRANTIES OF MERCHANTABILITY AND FITNESS FOR A PARTICULAR PURPOSE ARE DISCLAIMED.
  26:C:/Users/stapi/OneDrive/Desktop/GD32VW553/V1_MQTT_OK/GD32VW55X_Wifi_BLE_SDK/GD32VW55x_RELEASE_V1.0.2/MSDK/plf/src/uart\log_uart.c **** IN NO EVENT SHALL THE COPYRIGHT HOLDER OR CONTRIBUTORS BE LIABLE FOR ANY DIRECT,
  27:C:/Users/stapi/OneDrive/Desktop/GD32VW553/V1_MQTT_OK/GD32VW55X_Wifi_BLE_SDK/GD32VW55x_RELEASE_V1.0.2/MSDK/plf/src/uart\log_uart.c **** INDIRECT, INCIDENTAL, SPECIAL, EXEMPLARY, OR CONSEQUENTIAL DAMAGES (INCLUDING, BUT
  28:C:/Users/stapi/OneDrive/Desktop/GD32VW553/V1_MQTT_OK/GD32VW55X_Wifi_BLE_SDK/GD32VW55x_RELEASE_V1.0.2/MSDK/plf/src/uart\log_uart.c **** NOT LIMITED TO, PROCUREMENT OF SUBSTITUTE GOODS OR SERVICES; LOSS OF USE, DATA, OR
  29:C:/Users/stapi/OneDrive/Desktop/GD32VW553/V1_MQTT_OK/GD32VW55X_Wifi_BLE_SDK/GD32VW55x_RELEASE_V1.0.2/MSDK/plf/src/uart\log_uart.c **** PROFITS; OR BUSINESS INTERRUPTION) HOWEVER CAUSED AND ON ANY THEORY OF LIABILITY,
  30:C:/Users/stapi/OneDrive/Desktop/GD32VW553/V1_MQTT_OK/GD32VW55X_Wifi_BLE_SDK/GD32VW55x_RELEASE_V1.0.2/MSDK/plf/src/uart\log_uart.c **** WHETHER IN CONTRACT, STRICT LIABILITY, OR TORT (INCLUDING NEGLIGENCE OR OTHERWISE)
  31:C:/Users/stapi/OneDrive/Desktop/GD32VW553/V1_MQTT_OK/GD32VW55X_Wifi_BLE_SDK/GD32VW55x_RELEASE_V1.0.2/MSDK/plf/src/uart\log_uart.c **** ARISING IN ANY WAY OUT OF THE USE OF THIS SOFTWARE, EVEN IF ADVISED OF THE POSSIBILITY
  32:C:/Users/stapi/OneDrive/Desktop/GD32VW553/V1_MQTT_OK/GD32VW55X_Wifi_BLE_SDK/GD32VW55x_RELEASE_V1.0.2/MSDK/plf/src/uart\log_uart.c **** OF SUCH DAMAGE.
  33:C:/Users/stapi/OneDrive/Desktop/GD32VW553/V1_MQTT_OK/GD32VW55X_Wifi_BLE_SDK/GD32VW55x_RELEASE_V1.0.2/MSDK/plf/src/uart\log_uart.c **** */
  34:C:/Users/stapi/OneDrive/Desktop/GD32VW553/V1_MQTT_OK/GD32VW55X_Wifi_BLE_SDK/GD32VW55x_RELEASE_V1.0.2/MSDK/plf/src/uart\log_uart.c **** 
  35:C:/Users/stapi/OneDrive/Desktop/GD32VW553/V1_MQTT_OK/GD32VW55X_Wifi_BLE_SDK/GD32VW55x_RELEASE_V1.0.2/MSDK/plf/src/uart\log_uart.c **** #include <ctype.h>
  36:C:/Users/stapi/OneDrive/Desktop/GD32VW553/V1_MQTT_OK/GD32VW55X_Wifi_BLE_SDK/GD32VW55x_RELEASE_V1.0.2/MSDK/plf/src/uart\log_uart.c **** #include "gd32vw55x.h"
  37:C:/Users/stapi/OneDrive/Desktop/GD32VW553/V1_MQTT_OK/GD32VW55X_Wifi_BLE_SDK/GD32VW55x_RELEASE_V1.0.2/MSDK/plf/src/uart\log_uart.c **** #include <stdio.h>
  38:C:/Users/stapi/OneDrive/Desktop/GD32VW553/V1_MQTT_OK/GD32VW55X_Wifi_BLE_SDK/GD32VW55x_RELEASE_V1.0.2/MSDK/plf/src/uart\log_uart.c **** #include "log_uart.h"
  39:C:/Users/stapi/OneDrive/Desktop/GD32VW553/V1_MQTT_OK/GD32VW55X_Wifi_BLE_SDK/GD32VW55x_RELEASE_V1.0.2/MSDK/plf/src/uart\log_uart.c **** 
  40:C:/Users/stapi/OneDrive/Desktop/GD32VW553/V1_MQTT_OK/GD32VW55X_Wifi_BLE_SDK/GD32VW55x_RELEASE_V1.0.2/MSDK/plf/src/uart\log_uart.c **** #ifdef LOG_UART
  41:C:/Users/stapi/OneDrive/Desktop/GD32VW553/V1_MQTT_OK/GD32VW55X_Wifi_BLE_SDK/GD32VW55x_RELEASE_V1.0.2/MSDK/plf/src/uart\log_uart.c **** #if defined(__ARMCC_VERSION)
  42:C:/Users/stapi/OneDrive/Desktop/GD32VW553/V1_MQTT_OK/GD32VW55X_Wifi_BLE_SDK/GD32VW55x_RELEASE_V1.0.2/MSDK/plf/src/uart\log_uart.c **** /* retarget the C library printf function to the USART */
  43:C:/Users/stapi/OneDrive/Desktop/GD32VW553/V1_MQTT_OK/GD32VW55X_Wifi_BLE_SDK/GD32VW55x_RELEASE_V1.0.2/MSDK/plf/src/uart\log_uart.c **** int fputc(int ch, FILE *f)
  44:C:/Users/stapi/OneDrive/Desktop/GD32VW553/V1_MQTT_OK/GD32VW55X_Wifi_BLE_SDK/GD32VW55x_RELEASE_V1.0.2/MSDK/plf/src/uart\log_uart.c **** {
  45:C:/Users/stapi/OneDrive/Desktop/GD32VW553/V1_MQTT_OK/GD32VW55X_Wifi_BLE_SDK/GD32VW55x_RELEASE_V1.0.2/MSDK/plf/src/uart\log_uart.c ****     while (RESET == usart_flag_get(LOG_UART, USART_FLAG_TBE));
  46:C:/Users/stapi/OneDrive/Desktop/GD32VW553/V1_MQTT_OK/GD32VW55X_Wifi_BLE_SDK/GD32VW55x_RELEASE_V1.0.2/MSDK/plf/src/uart\log_uart.c ****     usart_data_transmit(LOG_UART, (uint8_t)ch);
  47:C:/Users/stapi/OneDrive/Desktop/GD32VW553/V1_MQTT_OK/GD32VW55X_Wifi_BLE_SDK/GD32VW55x_RELEASE_V1.0.2/MSDK/plf/src/uart\log_uart.c ****     return ch;
  48:C:/Users/stapi/OneDrive/Desktop/GD32VW553/V1_MQTT_OK/GD32VW55X_Wifi_BLE_SDK/GD32VW55x_RELEASE_V1.0.2/MSDK/plf/src/uart\log_uart.c **** }
  49:C:/Users/stapi/OneDrive/Desktop/GD32VW553/V1_MQTT_OK/GD32VW55X_Wifi_BLE_SDK/GD32VW55x_RELEASE_V1.0.2/MSDK/plf/src/uart\log_uart.c **** #elif defined(__ICCARM__)
  50:C:/Users/stapi/OneDrive/Desktop/GD32VW553/V1_MQTT_OK/GD32VW55X_Wifi_BLE_SDK/GD32VW55x_RELEASE_V1.0.2/MSDK/plf/src/uart\log_uart.c **** int putchar(int ch)
  51:C:/Users/stapi/OneDrive/Desktop/GD32VW553/V1_MQTT_OK/GD32VW55X_Wifi_BLE_SDK/GD32VW55x_RELEASE_V1.0.2/MSDK/plf/src/uart\log_uart.c **** {
  52:C:/Users/stapi/OneDrive/Desktop/GD32VW553/V1_MQTT_OK/GD32VW55X_Wifi_BLE_SDK/GD32VW55x_RELEASE_V1.0.2/MSDK/plf/src/uart\log_uart.c ****     /* Send byte to USART */
  53:C:/Users/stapi/OneDrive/Desktop/GD32VW553/V1_MQTT_OK/GD32VW55X_Wifi_BLE_SDK/GD32VW55x_RELEASE_V1.0.2/MSDK/plf/src/uart\log_uart.c ****     while (RESET == usart_flag_get(LOG_UART, USART_FLAG_TBE));
  54:C:/Users/stapi/OneDrive/Desktop/GD32VW553/V1_MQTT_OK/GD32VW55X_Wifi_BLE_SDK/GD32VW55x_RELEASE_V1.0.2/MSDK/plf/src/uart\log_uart.c ****     usart_data_transmit(LOG_UART, (uint8_t)ch);
  55:C:/Users/stapi/OneDrive/Desktop/GD32VW553/V1_MQTT_OK/GD32VW55X_Wifi_BLE_SDK/GD32VW55x_RELEASE_V1.0.2/MSDK/plf/src/uart\log_uart.c ****     /* Return character written */
  56:C:/Users/stapi/OneDrive/Desktop/GD32VW553/V1_MQTT_OK/GD32VW55X_Wifi_BLE_SDK/GD32VW55x_RELEASE_V1.0.2/MSDK/plf/src/uart\log_uart.c ****     return ch;
  57:C:/Users/stapi/OneDrive/Desktop/GD32VW553/V1_MQTT_OK/GD32VW55X_Wifi_BLE_SDK/GD32VW55x_RELEASE_V1.0.2/MSDK/plf/src/uart\log_uart.c **** }
  58:C:/Users/stapi/OneDrive/Desktop/GD32VW553/V1_MQTT_OK/GD32VW55X_Wifi_BLE_SDK/GD32VW55x_RELEASE_V1.0.2/MSDK/plf/src/uart\log_uart.c **** #elif defined(__GNUC__)
  59:C:/Users/stapi/OneDrive/Desktop/GD32VW553/V1_MQTT_OK/GD32VW55X_Wifi_BLE_SDK/GD32VW55x_RELEASE_V1.0.2/MSDK/plf/src/uart\log_uart.c **** int _write(int fd, char *str, int len)
  60:C:/Users/stapi/OneDrive/Desktop/GD32VW553/V1_MQTT_OK/GD32VW55X_Wifi_BLE_SDK/GD32VW55x_RELEASE_V1.0.2/MSDK/plf/src/uart\log_uart.c **** {
  16              		.loc 1 60 1
  17              		.cfi_startproc
  18              	.LVL0:
  19 0000 17030000 		call	t0,__riscv_save_4
  19      E7020300 
  20              		.cfi_offset 19, -20
  21              		.cfi_offset 18, -16
  22              		.cfi_offset 9, -12
  23              		.cfi_offset 8, -8
  24              		.cfi_offset 1, -4
  25              		.cfi_def_cfa_offset 32
  61:C:/Users/stapi/OneDrive/Desktop/GD32VW553/V1_MQTT_OK/GD32VW55X_Wifi_BLE_SDK/GD32VW55x_RELEASE_V1.0.2/MSDK/plf/src/uart\log_uart.c ****     (void)fd;
  26              		.loc 1 61 5
  62:C:/Users/stapi/OneDrive/Desktop/GD32VW553/V1_MQTT_OK/GD32VW55X_Wifi_BLE_SDK/GD32VW55x_RELEASE_V1.0.2/MSDK/plf/src/uart\log_uart.c ****     int32_t i = 0;
  27              		.loc 1 62 5
  28              	.LVL1:
  63:C:/Users/stapi/OneDrive/Desktop/GD32VW553/V1_MQTT_OK/GD32VW55X_Wifi_BLE_SDK/GD32VW55x_RELEASE_V1.0.2/MSDK/plf/src/uart\log_uart.c **** 
  64:C:/Users/stapi/OneDrive/Desktop/GD32VW553/V1_MQTT_OK/GD32VW55X_Wifi_BLE_SDK/GD32VW55x_RELEASE_V1.0.2/MSDK/plf/src/uart\log_uart.c ****     /* Send string and return the number of characters written */
  65:C:/Users/stapi/OneDrive/Desktop/GD32VW553/V1_MQTT_OK/GD32VW55X_Wifi_BLE_SDK/GD32VW55x_RELEASE_V1.0.2/MSDK/plf/src/uart\log_uart.c ****     while (i != len) {
  29              		.loc 1 65 5
  66:C:/Users/stapi/OneDrive/Desktop/GD32VW553/V1_MQTT_OK/GD32VW55X_Wifi_BLE_SDK/GD32VW55x_RELEASE_V1.0.2/MSDK/plf/src/uart\log_uart.c ****         while (RESET == usart_flag_get(LOG_UART, USART_FLAG_TBE));
  30              		.loc 1 66 25 is_stmt 0
  31 0008 37490040 		li	s2,1073758208
  60:C:/Users/stapi/OneDrive/Desktop/GD32VW553/V1_MQTT_OK/GD32VW55X_Wifi_BLE_SDK/GD32VW55x_RELEASE_V1.0.2/MSDK/plf/src/uart\log_uart.c ****     (void)fd;
  32              		.loc 1 60 1
  33 000c 2E84     		mv	s0,a1
  34 000e B284     		mv	s1,a2
  35 0010 B389C500 		add	s3,a1,a2
  36              		.loc 1 66 25
  37 0014 13090940 		addi	s2,s2,1024
  38              	.LVL2:
  39              	.L2:
  65:C:/Users/stapi/OneDrive/Desktop/GD32VW553/V1_MQTT_OK/GD32VW55X_Wifi_BLE_SDK/GD32VW55x_RELEASE_V1.0.2/MSDK/plf/src/uart\log_uart.c ****         while (RESET == usart_flag_get(LOG_UART, USART_FLAG_TBE));
  40              		.loc 1 65 11 is_stmt 1
  41 0018 63133403 		bne	s0,s3,.L3
  67:C:/Users/stapi/OneDrive/Desktop/GD32VW553/V1_MQTT_OK/GD32VW55X_Wifi_BLE_SDK/GD32VW55x_RELEASE_V1.0.2/MSDK/plf/src/uart\log_uart.c ****         usart_data_transmit(LOG_UART, *str);
  68:C:/Users/stapi/OneDrive/Desktop/GD32VW553/V1_MQTT_OK/GD32VW55X_Wifi_BLE_SDK/GD32VW55x_RELEASE_V1.0.2/MSDK/plf/src/uart\log_uart.c ****         str++;
  69:C:/Users/stapi/OneDrive/Desktop/GD32VW553/V1_MQTT_OK/GD32VW55X_Wifi_BLE_SDK/GD32VW55x_RELEASE_V1.0.2/MSDK/plf/src/uart\log_uart.c ****         i++;
  70:C:/Users/stapi/OneDrive/Desktop/GD32VW553/V1_MQTT_OK/GD32VW55X_Wifi_BLE_SDK/GD32VW55x_RELEASE_V1.0.2/MSDK/plf/src/uart\log_uart.c ****     }
  71:C:/Users/stapi/OneDrive/Desktop/GD32VW553/V1_MQTT_OK/GD32VW55X_Wifi_BLE_SDK/GD32VW55x_RELEASE_V1.0.2/MSDK/plf/src/uart\log_uart.c **** 
  72:C:/Users/stapi/OneDrive/Desktop/GD32VW553/V1_MQTT_OK/GD32VW55X_Wifi_BLE_SDK/GD32VW55x_RELEASE_V1.0.2/MSDK/plf/src/uart\log_uart.c ****     while (RESET == usart_flag_get(LOG_UART, USART_FLAG_TC));
  42              		.loc 1 72 21 is_stmt 0
  43 001c 37440040 		li	s0,1073758208
  44              	.LVL3:
  45 0020 13040440 		addi	s0,s0,1024
  46              	.L4:
  47              		.loc 1 72 61 is_stmt 1 discriminator 1
  48              		.loc 1 72 11 discriminator 1
  49              		.loc 1 72 21 is_stmt 0 discriminator 1
  50 0024 93056070 		li	a1,1798
  51 0028 2285     		mv	a0,s0
  52 002a 97000000 		call	usart_flag_get
  52      E7800000 
  53              	.LVL4:
  54              		.loc 1 72 11 discriminator 1
  55 0032 6DD9     		beq	a0,zero,.L4
  73:C:/Users/stapi/OneDrive/Desktop/GD32VW553/V1_MQTT_OK/GD32VW55X_Wifi_BLE_SDK/GD32VW55x_RELEASE_V1.0.2/MSDK/plf/src/uart\log_uart.c **** 
  74:C:/Users/stapi/OneDrive/Desktop/GD32VW553/V1_MQTT_OK/GD32VW55X_Wifi_BLE_SDK/GD32VW55x_RELEASE_V1.0.2/MSDK/plf/src/uart\log_uart.c ****     return i;
  56              		.loc 1 74 5 is_stmt 1
  75:C:/Users/stapi/OneDrive/Desktop/GD32VW553/V1_MQTT_OK/GD32VW55X_Wifi_BLE_SDK/GD32VW55x_RELEASE_V1.0.2/MSDK/plf/src/uart\log_uart.c **** }
  57              		.loc 1 75 1 is_stmt 0
  58 0034 2685     		mv	a0,s1
  59 0036 17030000 		tail	__riscv_restore_4
  59      67000300 
  60              		.cfi_remember_state
  61              		.cfi_restore 19
  62              		.cfi_restore 18
  63              		.cfi_restore 9
  64              		.cfi_restore 8
  65              		.cfi_restore 1
  66              		.cfi_def_cfa_offset 0
  67              	.LVL5:
  68              	.L3:
  69              		.cfi_restore_state
  66:C:/Users/stapi/OneDrive/Desktop/GD32VW553/V1_MQTT_OK/GD32VW55X_Wifi_BLE_SDK/GD32VW55x_RELEASE_V1.0.2/MSDK/plf/src/uart\log_uart.c ****         usart_data_transmit(LOG_UART, *str);
  70              		.loc 1 66 66 is_stmt 1 discriminator 1
  66:C:/Users/stapi/OneDrive/Desktop/GD32VW553/V1_MQTT_OK/GD32VW55X_Wifi_BLE_SDK/GD32VW55x_RELEASE_V1.0.2/MSDK/plf/src/uart\log_uart.c ****         usart_data_transmit(LOG_UART, *str);
  71              		.loc 1 66 15 discriminator 1
  66:C:/Users/stapi/OneDrive/Desktop/GD32VW553/V1_MQTT_OK/GD32VW55X_Wifi_BLE_SDK/GD32VW55x_RELEASE_V1.0.2/MSDK/plf/src/uart\log_uart.c ****         usart_data_transmit(LOG_UART, *str);
  72              		.loc 1 66 25 is_stmt 0 discriminator 1
  73 003e 93057070 		li	a1,1799
  74 0042 4A85     		mv	a0,s2
  75 0044 97000000 		call	usart_flag_get
  75      E7800000 
  76              	.LVL6:
  66:C:/Users/stapi/OneDrive/Desktop/GD32VW553/V1_MQTT_OK/GD32VW55X_Wifi_BLE_SDK/GD32VW55x_RELEASE_V1.0.2/MSDK/plf/src/uart\log_uart.c ****         usart_data_transmit(LOG_UART, *str);
  77              		.loc 1 66 15 discriminator 1
  78 004c 6DD9     		beq	a0,zero,.L3
  67:C:/Users/stapi/OneDrive/Desktop/GD32VW553/V1_MQTT_OK/GD32VW55X_Wifi_BLE_SDK/GD32VW55x_RELEASE_V1.0.2/MSDK/plf/src/uart\log_uart.c ****         str++;
  79              		.loc 1 67 9 is_stmt 1
  80 004e 4A85     		mv	a0,s2
  81 0050 83050400 		lb	a1,0(s0)
  68:C:/Users/stapi/OneDrive/Desktop/GD32VW553/V1_MQTT_OK/GD32VW55X_Wifi_BLE_SDK/GD32VW55x_RELEASE_V1.0.2/MSDK/plf/src/uart\log_uart.c ****         i++;
  82              		.loc 1 68 12 is_stmt 0
  83 0054 0504     		addi	s0,s0,1
  84              	.LVL7:
  67:C:/Users/stapi/OneDrive/Desktop/GD32VW553/V1_MQTT_OK/GD32VW55X_Wifi_BLE_SDK/GD32VW55x_RELEASE_V1.0.2/MSDK/plf/src/uart\log_uart.c ****         str++;
  85              		.loc 1 67 9
  86 0056 B3C50508 		zext.h	a1,a1
  87 005a 97000000 		call	usart_data_transmit
  87      E7800000 
  88              	.LVL8:
  68:C:/Users/stapi/OneDrive/Desktop/GD32VW553/V1_MQTT_OK/GD32VW55X_Wifi_BLE_SDK/GD32VW55x_RELEASE_V1.0.2/MSDK/plf/src/uart\log_uart.c ****         i++;
  89              		.loc 1 68 9 is_stmt 1
  69:C:/Users/stapi/OneDrive/Desktop/GD32VW553/V1_MQTT_OK/GD32VW55X_Wifi_BLE_SDK/GD32VW55x_RELEASE_V1.0.2/MSDK/plf/src/uart\log_uart.c ****     }
  90              		.loc 1 69 9
  91 0062 5DBF     		j	.L2
  92              		.cfi_endproc
  93              	.LFE365:
  95              		.section	.text.log_uart_init,"ax",@progbits
  96              		.align	1
  97              		.globl	log_uart_init
  99              	log_uart_init:
 100              	.LFB366:
  76:C:/Users/stapi/OneDrive/Desktop/GD32VW553/V1_MQTT_OK/GD32VW55X_Wifi_BLE_SDK/GD32VW55x_RELEASE_V1.0.2/MSDK/plf/src/uart\log_uart.c **** #endif
  77:C:/Users/stapi/OneDrive/Desktop/GD32VW553/V1_MQTT_OK/GD32VW55X_Wifi_BLE_SDK/GD32VW55x_RELEASE_V1.0.2/MSDK/plf/src/uart\log_uart.c **** 
  78:C:/Users/stapi/OneDrive/Desktop/GD32VW553/V1_MQTT_OK/GD32VW55X_Wifi_BLE_SDK/GD32VW55x_RELEASE_V1.0.2/MSDK/plf/src/uart\log_uart.c **** void log_uart_init(void)
  79:C:/Users/stapi/OneDrive/Desktop/GD32VW553/V1_MQTT_OK/GD32VW55X_Wifi_BLE_SDK/GD32VW55x_RELEASE_V1.0.2/MSDK/plf/src/uart\log_uart.c **** {
 101              		.loc 1 79 1
 102              		.cfi_startproc
  80:C:/Users/stapi/OneDrive/Desktop/GD32VW553/V1_MQTT_OK/GD32VW55X_Wifi_BLE_SDK/GD32VW55x_RELEASE_V1.0.2/MSDK/plf/src/uart\log_uart.c ****     uart_config(LOG_UART, DEFAULT_LOG_BAUDRATE, false, false, false);
 103              		.loc 1 80 5
 104 0000 F165     		li	a1,114688
 105 0002 37450040 		li	a0,1073758208
 106 0006 0147     		li	a4,0
 107 0008 8146     		li	a3,0
 108 000a 0146     		li	a2,0
 109 000c 93850520 		addi	a1,a1,512
 110 0010 13050540 		addi	a0,a0,1024
 111 0014 17030000 		tail	uart_config
 111      67000300 
 112              	.LVL9:
 113              		.cfi_endproc
 114              	.LFE366:
 116              		.section	.text.log_uart_putc_noint,"ax",@progbits
 117              		.align	1
 118              		.globl	log_uart_putc_noint
 120              	log_uart_putc_noint:
 121              	.LFB367:
  81:C:/Users/stapi/OneDrive/Desktop/GD32VW553/V1_MQTT_OK/GD32VW55X_Wifi_BLE_SDK/GD32VW55x_RELEASE_V1.0.2/MSDK/plf/src/uart\log_uart.c **** }
  82:C:/Users/stapi/OneDrive/Desktop/GD32VW553/V1_MQTT_OK/GD32VW55X_Wifi_BLE_SDK/GD32VW55x_RELEASE_V1.0.2/MSDK/plf/src/uart\log_uart.c **** 
  83:C:/Users/stapi/OneDrive/Desktop/GD32VW553/V1_MQTT_OK/GD32VW55X_Wifi_BLE_SDK/GD32VW55x_RELEASE_V1.0.2/MSDK/plf/src/uart\log_uart.c **** void log_uart_putc_noint(uint8_t c)
  84:C:/Users/stapi/OneDrive/Desktop/GD32VW553/V1_MQTT_OK/GD32VW55X_Wifi_BLE_SDK/GD32VW55x_RELEASE_V1.0.2/MSDK/plf/src/uart\log_uart.c **** {
 122              		.loc 1 84 1
 123              		.cfi_startproc
 124              	.LVL10:
 125 0000 17030000 		call	t0,__riscv_save_3
 125      E7020300 
 126              		.cfi_offset 18, -16
 127              		.cfi_offset 9, -12
 128              		.cfi_offset 8, -8
 129              		.cfi_offset 1, -4
 130              		.cfi_def_cfa_offset 16
  85:C:/Users/stapi/OneDrive/Desktop/GD32VW553/V1_MQTT_OK/GD32VW55X_Wifi_BLE_SDK/GD32VW55x_RELEASE_V1.0.2/MSDK/plf/src/uart\log_uart.c ****     while (RESET == usart_flag_get(LOG_UART, USART_FLAG_TBE));
 131              		.loc 1 85 5
 132              		.loc 1 85 21 is_stmt 0
 133 0008 B7440040 		li	s1,1073758208
  84:C:/Users/stapi/OneDrive/Desktop/GD32VW553/V1_MQTT_OK/GD32VW55X_Wifi_BLE_SDK/GD32VW55x_RELEASE_V1.0.2/MSDK/plf/src/uart\log_uart.c ****     while (RESET == usart_flag_get(LOG_UART, USART_FLAG_TBE));
 134              		.loc 1 84 1
 135 000c 2A84     		mv	s0,a0
 136              		.loc 1 85 21
 137 000e 13890440 		addi	s2,s1,1024
 138              	.LVL11:
 139              	.L14:
 140              		.loc 1 85 62 is_stmt 1 discriminator 1
 141              		.loc 1 85 11 discriminator 1
 142              		.loc 1 85 21 is_stmt 0 discriminator 1
 143 0012 93057070 		li	a1,1799
 144 0016 4A85     		mv	a0,s2
 145 0018 97000000 		call	usart_flag_get
 145      E7800000 
 146              	.LVL12:
 147              		.loc 1 85 11 discriminator 1
 148 0020 6DD9     		beq	a0,zero,.L14
  86:C:/Users/stapi/OneDrive/Desktop/GD32VW553/V1_MQTT_OK/GD32VW55X_Wifi_BLE_SDK/GD32VW55x_RELEASE_V1.0.2/MSDK/plf/src/uart\log_uart.c ****     usart_data_transmit(LOG_UART, (uint8_t)c);
 149              		.loc 1 86 5 is_stmt 1
 150 0022 A285     		mv	a1,s0
 151 0024 13850440 		addi	a0,s1,1024
 152 0028 97000000 		call	usart_data_transmit
 152      E7800000 
 153              	.LVL13:
  87:C:/Users/stapi/OneDrive/Desktop/GD32VW553/V1_MQTT_OK/GD32VW55X_Wifi_BLE_SDK/GD32VW55x_RELEASE_V1.0.2/MSDK/plf/src/uart\log_uart.c **** }
 154              		.loc 1 87 1 is_stmt 0
 155 0030 17030000 		tail	__riscv_restore_3
 155      67000300 
 156              		.cfi_restore 18
 157              		.cfi_restore 9
 158              		.cfi_restore 8
 159              		.cfi_restore 1
 160              		.cfi_def_cfa_offset 0
 161              		.cfi_endproc
 162              	.LFE367:
 164              		.section	.text.log_uart_put_data,"ax",@progbits
 165              		.align	1
 166              		.globl	log_uart_put_data
 168              	log_uart_put_data:
 169              	.LFB368:
  88:C:/Users/stapi/OneDrive/Desktop/GD32VW553/V1_MQTT_OK/GD32VW55X_Wifi_BLE_SDK/GD32VW55x_RELEASE_V1.0.2/MSDK/plf/src/uart\log_uart.c **** 
  89:C:/Users/stapi/OneDrive/Desktop/GD32VW553/V1_MQTT_OK/GD32VW55X_Wifi_BLE_SDK/GD32VW55x_RELEASE_V1.0.2/MSDK/plf/src/uart\log_uart.c **** void log_uart_put_data(const uint8_t *d, int size)
  90:C:/Users/stapi/OneDrive/Desktop/GD32VW553/V1_MQTT_OK/GD32VW55X_Wifi_BLE_SDK/GD32VW55x_RELEASE_V1.0.2/MSDK/plf/src/uart\log_uart.c **** {
 170              		.loc 1 90 1 is_stmt 1
 171              		.cfi_startproc
 172              	.LVL14:
  91:C:/Users/stapi/OneDrive/Desktop/GD32VW553/V1_MQTT_OK/GD32VW55X_Wifi_BLE_SDK/GD32VW55x_RELEASE_V1.0.2/MSDK/plf/src/uart\log_uart.c ****     uart_put_data(LOG_UART, d, size);
 173              		.loc 1 91 5
  90:C:/Users/stapi/OneDrive/Desktop/GD32VW553/V1_MQTT_OK/GD32VW55X_Wifi_BLE_SDK/GD32VW55x_RELEASE_V1.0.2/MSDK/plf/src/uart\log_uart.c ****     uart_put_data(LOG_UART, d, size);
 174              		.loc 1 90 1 is_stmt 0
 175 0000 2E86     		mv	a2,a1
 176              		.loc 1 91 5
 177 0002 AA85     		mv	a1,a0
 178              	.LVL15:
 179 0004 37450040 		li	a0,1073758208
 180              	.LVL16:
 181 0008 13050540 		addi	a0,a0,1024
 182 000c 17030000 		tail	uart_put_data
 182      67000300 
 183              	.LVL17:
 184              		.cfi_endproc
 185              	.LFE368:
 187              		.section	.text.log_uart_getc,"ax",@progbits
 188              		.align	1
 189              		.globl	log_uart_getc
 191              	log_uart_getc:
 192              	.LFB369:
  92:C:/Users/stapi/OneDrive/Desktop/GD32VW553/V1_MQTT_OK/GD32VW55X_Wifi_BLE_SDK/GD32VW55x_RELEASE_V1.0.2/MSDK/plf/src/uart\log_uart.c **** }
  93:C:/Users/stapi/OneDrive/Desktop/GD32VW553/V1_MQTT_OK/GD32VW55X_Wifi_BLE_SDK/GD32VW55x_RELEASE_V1.0.2/MSDK/plf/src/uart\log_uart.c **** 
  94:C:/Users/stapi/OneDrive/Desktop/GD32VW553/V1_MQTT_OK/GD32VW55X_Wifi_BLE_SDK/GD32VW55x_RELEASE_V1.0.2/MSDK/plf/src/uart\log_uart.c **** char log_uart_getc(void)
  95:C:/Users/stapi/OneDrive/Desktop/GD32VW553/V1_MQTT_OK/GD32VW55X_Wifi_BLE_SDK/GD32VW55x_RELEASE_V1.0.2/MSDK/plf/src/uart\log_uart.c **** {
 193              		.loc 1 95 1 is_stmt 1
 194              		.cfi_startproc
 195 0000 17030000 		call	t0,__riscv_save_2
 195      E7020300 
 196              		.cfi_offset 9, -12
 197              		.cfi_offset 8, -8
 198              		.cfi_offset 1, -4
 199              		.cfi_def_cfa_offset 16
  96:C:/Users/stapi/OneDrive/Desktop/GD32VW553/V1_MQTT_OK/GD32VW55X_Wifi_BLE_SDK/GD32VW55x_RELEASE_V1.0.2/MSDK/plf/src/uart\log_uart.c ****     char ch;
  97:C:/Users/stapi/OneDrive/Desktop/GD32VW553/V1_MQTT_OK/GD32VW55X_Wifi_BLE_SDK/GD32VW55x_RELEASE_V1.0.2/MSDK/plf/src/uart\log_uart.c ****     while (1) {
  98:C:/Users/stapi/OneDrive/Desktop/GD32VW553/V1_MQTT_OK/GD32VW55X_Wifi_BLE_SDK/GD32VW55x_RELEASE_V1.0.2/MSDK/plf/src/uart\log_uart.c ****         if (RESET != usart_flag_get(LOG_UART, USART_FLAG_ORERR)) {
 200              		.loc 1 98 22 is_stmt 0
 201 0008 B7440040 		li	s1,1073758208
 202 000c 13840440 		addi	s0,s1,1024
 203              	.L22:
  96:C:/Users/stapi/OneDrive/Desktop/GD32VW553/V1_MQTT_OK/GD32VW55X_Wifi_BLE_SDK/GD32VW55x_RELEASE_V1.0.2/MSDK/plf/src/uart\log_uart.c ****     char ch;
 204              		.loc 1 96 5 is_stmt 1
  97:C:/Users/stapi/OneDrive/Desktop/GD32VW553/V1_MQTT_OK/GD32VW55X_Wifi_BLE_SDK/GD32VW55x_RELEASE_V1.0.2/MSDK/plf/src/uart\log_uart.c ****         if (RESET != usart_flag_get(LOG_UART, USART_FLAG_ORERR)) {
 205              		.loc 1 97 5
 206              		.loc 1 98 9
 207              		.loc 1 98 22 is_stmt 0
 208 0010 93053070 		li	a1,1795
 209 0014 2285     		mv	a0,s0
 210 0016 97000000 		call	usart_flag_get
 210      E7800000 
 211              	.LVL18:
 212              		.loc 1 98 12
 213 001e 01C9     		beq	a0,zero,.L21
  99:C:/Users/stapi/OneDrive/Desktop/GD32VW553/V1_MQTT_OK/GD32VW55X_Wifi_BLE_SDK/GD32VW55x_RELEASE_V1.0.2/MSDK/plf/src/uart\log_uart.c ****             usart_flag_clear(LOG_UART, USART_FLAG_ORERR);
 214              		.loc 1 99 13 is_stmt 1
 215 0020 93053070 		li	a1,1795
 216 0024 2285     		mv	a0,s0
 217 0026 97000000 		call	usart_flag_clear
 217      E7800000 
 218              	.LVL19:
 219              	.L21:
 100:C:/Users/stapi/OneDrive/Desktop/GD32VW553/V1_MQTT_OK/GD32VW55X_Wifi_BLE_SDK/GD32VW55x_RELEASE_V1.0.2/MSDK/plf/src/uart\log_uart.c ****         }
 101:C:/Users/stapi/OneDrive/Desktop/GD32VW553/V1_MQTT_OK/GD32VW55X_Wifi_BLE_SDK/GD32VW55x_RELEASE_V1.0.2/MSDK/plf/src/uart\log_uart.c **** 
 102:C:/Users/stapi/OneDrive/Desktop/GD32VW553/V1_MQTT_OK/GD32VW55X_Wifi_BLE_SDK/GD32VW55x_RELEASE_V1.0.2/MSDK/plf/src/uart\log_uart.c ****         if ((RESET != usart_flag_get(LOG_UART, USART_FLAG_RBNE))) {
 220              		.loc 1 102 9
 221              		.loc 1 102 23 is_stmt 0
 222 002e 93055070 		li	a1,1797
 223 0032 2285     		mv	a0,s0
 224 0034 97000000 		call	usart_flag_get
 224      E7800000 
 225              	.LVL20:
 226              		.loc 1 102 12
 227 003c 71D9     		beq	a0,zero,.L22
 103:C:/Users/stapi/OneDrive/Desktop/GD32VW553/V1_MQTT_OK/GD32VW55X_Wifi_BLE_SDK/GD32VW55x_RELEASE_V1.0.2/MSDK/plf/src/uart\log_uart.c ****             ch = (char)usart_data_receive(LOG_UART);
 228              		.loc 1 103 13 is_stmt 1
 229              		.loc 1 103 24 is_stmt 0
 230 003e 13850440 		addi	a0,s1,1024
 231 0042 97000000 		call	usart_data_receive
 231      E7800000 
 232              	.LVL21:
 104:C:/Users/stapi/OneDrive/Desktop/GD32VW553/V1_MQTT_OK/GD32VW55X_Wifi_BLE_SDK/GD32VW55x_RELEASE_V1.0.2/MSDK/plf/src/uart\log_uart.c ****             return ch;
 233              		.loc 1 104 13 is_stmt 1
 105:C:/Users/stapi/OneDrive/Desktop/GD32VW553/V1_MQTT_OK/GD32VW55X_Wifi_BLE_SDK/GD32VW55x_RELEASE_V1.0.2/MSDK/plf/src/uart\log_uart.c ****         }
 106:C:/Users/stapi/OneDrive/Desktop/GD32VW553/V1_MQTT_OK/GD32VW55X_Wifi_BLE_SDK/GD32VW55x_RELEASE_V1.0.2/MSDK/plf/src/uart\log_uart.c ****     }
 107:C:/Users/stapi/OneDrive/Desktop/GD32VW553/V1_MQTT_OK/GD32VW55X_Wifi_BLE_SDK/GD32VW55x_RELEASE_V1.0.2/MSDK/plf/src/uart\log_uart.c **** }
 234              		.loc 1 107 1 is_stmt 0
 235 004a 13154560 		sext.b	a0,a0
 236 004e 17030000 		tail	__riscv_restore_2
 236      67000300 
 237              		.cfi_restore 9
 238              		.cfi_restore 8
 239              		.cfi_restore 1
 240              		.cfi_def_cfa_offset 0
 241              		.cfi_endproc
 242              	.LFE369:
 244              		.text
 245              	.Letext0:
 246              		.file 2 "c:\\users\\stapi\\onedrive\\desktop\\gd32vw553\\embeddedbuilder_v1.4.7.26843\\tools\\nucl
 247              		.file 3 "c:\\users\\stapi\\onedrive\\desktop\\gd32vw553\\embeddedbuilder_v1.4.7.26843\\tools\\nucl
 248              		.file 4 "..\\..\\..\\..\\plf\\riscv\\gd32vw55x/gd32vw55x.h"
 249              		.file 5 "..\\..\\..\\..\\plf\\GD32VW55x_standard_peripheral\\Include/gd32vw55x_usart.h"
 250              		.file 6 "C:/Users/stapi/OneDrive/Desktop/GD32VW553/V1_MQTT_OK/GD32VW55X_Wifi_BLE_SDK/GD32VW55x_REL
DEFINED SYMBOLS
                            *ABS*:0000000000000000 log_uart.c
C:\Users\stapi\AppData\Local\Temp\ccqwYZ6T.s:13     .text._write:0000000000000000 _write
C:\Users\stapi\AppData\Local\Temp\ccqwYZ6T.s:17     .text._write:0000000000000000 .L0 
C:\Users\stapi\AppData\Local\Temp\ccqwYZ6T.s:19     .text._write:0000000000000000 .L0 
C:\Users\stapi\AppData\Local\Temp\ccqwYZ6T.s:20     .text._write:0000000000000008 .L0 
C:\Users\stapi\AppData\Local\Temp\ccqwYZ6T.s:21     .text._write:0000000000000008 .L0 
C:\Users\stapi\AppData\Local\Temp\ccqwYZ6T.s:22     .text._write:0000000000000008 .L0 
C:\Users\stapi\AppData\Local\Temp\ccqwYZ6T.s:23     .text._write:0000000000000008 .L0 
C:\Users\stapi\AppData\Local\Temp\ccqwYZ6T.s:24     .text._write:0000000000000008 .L0 
C:\Users\stapi\AppData\Local\Temp\ccqwYZ6T.s:25     .text._write:0000000000000008 .L0 
C:\Users\stapi\AppData\Local\Temp\ccqwYZ6T.s:27     .text._write:0000000000000008 .L0 
C:\Users\stapi\AppData\Local\Temp\ccqwYZ6T.s:29     .text._write:0000000000000008 .L0 
C:\Users\stapi\AppData\Local\Temp\ccqwYZ6T.s:30     .text._write:0000000000000008 .L0 
C:\Users\stapi\AppData\Local\Temp\ccqwYZ6T.s:31     .text._write:0000000000000008 .L0 
C:\Users\stapi\AppData\Local\Temp\ccqwYZ6T.s:33     .text._write:000000000000000c .L0 
C:\Users\stapi\AppData\Local\Temp\ccqwYZ6T.s:37     .text._write:0000000000000014 .L0 
C:\Users\stapi\AppData\Local\Temp\ccqwYZ6T.s:41     .text._write:0000000000000018 .L0 
C:\Users\stapi\AppData\Local\Temp\ccqwYZ6T.s:43     .text._write:000000000000001c .L0 
C:\Users\stapi\AppData\Local\Temp\ccqwYZ6T.s:48     .text._write:0000000000000024 .L0 
C:\Users\stapi\AppData\Local\Temp\ccqwYZ6T.s:49     .text._write:0000000000000024 .L0 
C:\Users\stapi\AppData\Local\Temp\ccqwYZ6T.s:50     .text._write:0000000000000024 .L0 
C:\Users\stapi\AppData\Local\Temp\ccqwYZ6T.s:55     .text._write:0000000000000032 .L0 
C:\Users\stapi\AppData\Local\Temp\ccqwYZ6T.s:57     .text._write:0000000000000034 .L0 
C:\Users\stapi\AppData\Local\Temp\ccqwYZ6T.s:58     .text._write:0000000000000034 .L0 
C:\Users\stapi\AppData\Local\Temp\ccqwYZ6T.s:60     .text._write:000000000000003e .L0 
C:\Users\stapi\AppData\Local\Temp\ccqwYZ6T.s:61     .text._write:000000000000003e .L0 
C:\Users\stapi\AppData\Local\Temp\ccqwYZ6T.s:62     .text._write:000000000000003e .L0 
C:\Users\stapi\AppData\Local\Temp\ccqwYZ6T.s:63     .text._write:000000000000003e .L0 
C:\Users\stapi\AppData\Local\Temp\ccqwYZ6T.s:64     .text._write:000000000000003e .L0 
C:\Users\stapi\AppData\Local\Temp\ccqwYZ6T.s:65     .text._write:000000000000003e .L0 
C:\Users\stapi\AppData\Local\Temp\ccqwYZ6T.s:66     .text._write:000000000000003e .L0 
C:\Users\stapi\AppData\Local\Temp\ccqwYZ6T.s:69     .text._write:000000000000003e .L0 
C:\Users\stapi\AppData\Local\Temp\ccqwYZ6T.s:71     .text._write:000000000000003e .L0 
C:\Users\stapi\AppData\Local\Temp\ccqwYZ6T.s:72     .text._write:000000000000003e .L0 
C:\Users\stapi\AppData\Local\Temp\ccqwYZ6T.s:73     .text._write:000000000000003e .L0 
C:\Users\stapi\AppData\Local\Temp\ccqwYZ6T.s:78     .text._write:000000000000004c .L0 
C:\Users\stapi\AppData\Local\Temp\ccqwYZ6T.s:80     .text._write:000000000000004e .L0 
C:\Users\stapi\AppData\Local\Temp\ccqwYZ6T.s:83     .text._write:0000000000000054 .L0 
C:\Users\stapi\AppData\Local\Temp\ccqwYZ6T.s:86     .text._write:0000000000000056 .L0 
C:\Users\stapi\AppData\Local\Temp\ccqwYZ6T.s:90     .text._write:0000000000000062 .L0 
C:\Users\stapi\AppData\Local\Temp\ccqwYZ6T.s:91     .text._write:0000000000000062 .L0 
C:\Users\stapi\AppData\Local\Temp\ccqwYZ6T.s:92     .text._write:0000000000000064 .L0 
C:\Users\stapi\AppData\Local\Temp\ccqwYZ6T.s:99     .text.log_uart_init:0000000000000000 log_uart_init
C:\Users\stapi\AppData\Local\Temp\ccqwYZ6T.s:102    .text.log_uart_init:0000000000000000 .L0 
C:\Users\stapi\AppData\Local\Temp\ccqwYZ6T.s:103    .text.log_uart_init:0000000000000000 .L0 
C:\Users\stapi\AppData\Local\Temp\ccqwYZ6T.s:104    .text.log_uart_init:0000000000000000 .L0 
C:\Users\stapi\AppData\Local\Temp\ccqwYZ6T.s:113    .text.log_uart_init:000000000000001c .L0 
C:\Users\stapi\AppData\Local\Temp\ccqwYZ6T.s:120    .text.log_uart_putc_noint:0000000000000000 log_uart_putc_noint
C:\Users\stapi\AppData\Local\Temp\ccqwYZ6T.s:123    .text.log_uart_putc_noint:0000000000000000 .L0 
C:\Users\stapi\AppData\Local\Temp\ccqwYZ6T.s:125    .text.log_uart_putc_noint:0000000000000000 .L0 
C:\Users\stapi\AppData\Local\Temp\ccqwYZ6T.s:126    .text.log_uart_putc_noint:0000000000000008 .L0 
C:\Users\stapi\AppData\Local\Temp\ccqwYZ6T.s:127    .text.log_uart_putc_noint:0000000000000008 .L0 
C:\Users\stapi\AppData\Local\Temp\ccqwYZ6T.s:128    .text.log_uart_putc_noint:0000000000000008 .L0 
C:\Users\stapi\AppData\Local\Temp\ccqwYZ6T.s:129    .text.log_uart_putc_noint:0000000000000008 .L0 
C:\Users\stapi\AppData\Local\Temp\ccqwYZ6T.s:130    .text.log_uart_putc_noint:0000000000000008 .L0 
C:\Users\stapi\AppData\Local\Temp\ccqwYZ6T.s:132    .text.log_uart_putc_noint:0000000000000008 .L0 
C:\Users\stapi\AppData\Local\Temp\ccqwYZ6T.s:133    .text.log_uart_putc_noint:0000000000000008 .L0 
C:\Users\stapi\AppData\Local\Temp\ccqwYZ6T.s:135    .text.log_uart_putc_noint:000000000000000c .L0 
C:\Users\stapi\AppData\Local\Temp\ccqwYZ6T.s:137    .text.log_uart_putc_noint:000000000000000e .L0 
C:\Users\stapi\AppData\Local\Temp\ccqwYZ6T.s:141    .text.log_uart_putc_noint:0000000000000012 .L0 
C:\Users\stapi\AppData\Local\Temp\ccqwYZ6T.s:142    .text.log_uart_putc_noint:0000000000000012 .L0 
C:\Users\stapi\AppData\Local\Temp\ccqwYZ6T.s:143    .text.log_uart_putc_noint:0000000000000012 .L0 
C:\Users\stapi\AppData\Local\Temp\ccqwYZ6T.s:148    .text.log_uart_putc_noint:0000000000000020 .L0 
C:\Users\stapi\AppData\Local\Temp\ccqwYZ6T.s:150    .text.log_uart_putc_noint:0000000000000022 .L0 
C:\Users\stapi\AppData\Local\Temp\ccqwYZ6T.s:155    .text.log_uart_putc_noint:0000000000000030 .L0 
C:\Users\stapi\AppData\Local\Temp\ccqwYZ6T.s:156    .text.log_uart_putc_noint:0000000000000038 .L0 
C:\Users\stapi\AppData\Local\Temp\ccqwYZ6T.s:157    .text.log_uart_putc_noint:0000000000000038 .L0 
C:\Users\stapi\AppData\Local\Temp\ccqwYZ6T.s:158    .text.log_uart_putc_noint:0000000000000038 .L0 
C:\Users\stapi\AppData\Local\Temp\ccqwYZ6T.s:159    .text.log_uart_putc_noint:0000000000000038 .L0 
C:\Users\stapi\AppData\Local\Temp\ccqwYZ6T.s:160    .text.log_uart_putc_noint:0000000000000038 .L0 
C:\Users\stapi\AppData\Local\Temp\ccqwYZ6T.s:161    .text.log_uart_putc_noint:0000000000000038 .L0 
C:\Users\stapi\AppData\Local\Temp\ccqwYZ6T.s:168    .text.log_uart_put_data:0000000000000000 log_uart_put_data
C:\Users\stapi\AppData\Local\Temp\ccqwYZ6T.s:171    .text.log_uart_put_data:0000000000000000 .L0 
C:\Users\stapi\AppData\Local\Temp\ccqwYZ6T.s:173    .text.log_uart_put_data:0000000000000000 .L0 
C:\Users\stapi\AppData\Local\Temp\ccqwYZ6T.s:174    .text.log_uart_put_data:0000000000000000 .L0 
C:\Users\stapi\AppData\Local\Temp\ccqwYZ6T.s:175    .text.log_uart_put_data:0000000000000000 .L0 
C:\Users\stapi\AppData\Local\Temp\ccqwYZ6T.s:177    .text.log_uart_put_data:0000000000000002 .L0 
C:\Users\stapi\AppData\Local\Temp\ccqwYZ6T.s:184    .text.log_uart_put_data:0000000000000014 .L0 
C:\Users\stapi\AppData\Local\Temp\ccqwYZ6T.s:191    .text.log_uart_getc:0000000000000000 log_uart_getc
C:\Users\stapi\AppData\Local\Temp\ccqwYZ6T.s:194    .text.log_uart_getc:0000000000000000 .L0 
C:\Users\stapi\AppData\Local\Temp\ccqwYZ6T.s:195    .text.log_uart_getc:0000000000000000 .L0 
C:\Users\stapi\AppData\Local\Temp\ccqwYZ6T.s:196    .text.log_uart_getc:0000000000000008 .L0 
C:\Users\stapi\AppData\Local\Temp\ccqwYZ6T.s:197    .text.log_uart_getc:0000000000000008 .L0 
C:\Users\stapi\AppData\Local\Temp\ccqwYZ6T.s:198    .text.log_uart_getc:0000000000000008 .L0 
C:\Users\stapi\AppData\Local\Temp\ccqwYZ6T.s:199    .text.log_uart_getc:0000000000000008 .L0 
C:\Users\stapi\AppData\Local\Temp\ccqwYZ6T.s:201    .text.log_uart_getc:0000000000000008 .L0 
C:\Users\stapi\AppData\Local\Temp\ccqwYZ6T.s:205    .text.log_uart_getc:0000000000000010 .L0 
C:\Users\stapi\AppData\Local\Temp\ccqwYZ6T.s:206    .text.log_uart_getc:0000000000000010 .L0 
C:\Users\stapi\AppData\Local\Temp\ccqwYZ6T.s:207    .text.log_uart_getc:0000000000000010 .L0 
C:\Users\stapi\AppData\Local\Temp\ccqwYZ6T.s:208    .text.log_uart_getc:0000000000000010 .L0 
C:\Users\stapi\AppData\Local\Temp\ccqwYZ6T.s:213    .text.log_uart_getc:000000000000001e .L0 
C:\Users\stapi\AppData\Local\Temp\ccqwYZ6T.s:215    .text.log_uart_getc:0000000000000020 .L0 
C:\Users\stapi\AppData\Local\Temp\ccqwYZ6T.s:221    .text.log_uart_getc:000000000000002e .L0 
C:\Users\stapi\AppData\Local\Temp\ccqwYZ6T.s:222    .text.log_uart_getc:000000000000002e .L0 
C:\Users\stapi\AppData\Local\Temp\ccqwYZ6T.s:227    .text.log_uart_getc:000000000000003c .L0 
C:\Users\stapi\AppData\Local\Temp\ccqwYZ6T.s:229    .text.log_uart_getc:000000000000003e .L0 
C:\Users\stapi\AppData\Local\Temp\ccqwYZ6T.s:230    .text.log_uart_getc:000000000000003e .L0 
C:\Users\stapi\AppData\Local\Temp\ccqwYZ6T.s:234    .text.log_uart_getc:000000000000004a .L0 
C:\Users\stapi\AppData\Local\Temp\ccqwYZ6T.s:235    .text.log_uart_getc:000000000000004a .L0 
C:\Users\stapi\AppData\Local\Temp\ccqwYZ6T.s:237    .text.log_uart_getc:0000000000000056 .L0 
C:\Users\stapi\AppData\Local\Temp\ccqwYZ6T.s:238    .text.log_uart_getc:0000000000000056 .L0 
C:\Users\stapi\AppData\Local\Temp\ccqwYZ6T.s:239    .text.log_uart_getc:0000000000000056 .L0 
C:\Users\stapi\AppData\Local\Temp\ccqwYZ6T.s:240    .text.log_uart_getc:0000000000000056 .L0 
C:\Users\stapi\AppData\Local\Temp\ccqwYZ6T.s:241    .text.log_uart_getc:0000000000000056 .L0 
C:\Users\stapi\AppData\Local\Temp\ccqwYZ6T.s:95     .text._write:0000000000000064 .L0 
C:\Users\stapi\AppData\Local\Temp\ccqwYZ6T.s:116    .text.log_uart_init:000000000000001c .L0 
C:\Users\stapi\AppData\Local\Temp\ccqwYZ6T.s:164    .text.log_uart_putc_noint:0000000000000038 .L0 
C:\Users\stapi\AppData\Local\Temp\ccqwYZ6T.s:187    .text.log_uart_put_data:0000000000000014 .L0 
C:\Users\stapi\AppData\Local\Temp\ccqwYZ6T.s:244    .text.log_uart_getc:0000000000000056 .L0 
                     .debug_frame:0000000000000000 .L0 
C:\Users\stapi\AppData\Local\Temp\ccqwYZ6T.s:68     .text._write:000000000000003e .L3
C:\Users\stapi\AppData\Local\Temp\ccqwYZ6T.s:46     .text._write:0000000000000024 .L4
C:\Users\stapi\AppData\Local\Temp\ccqwYZ6T.s:39     .text._write:0000000000000018 .L2
C:\Users\stapi\AppData\Local\Temp\ccqwYZ6T.s:139    .text.log_uart_putc_noint:0000000000000012 .L14
C:\Users\stapi\AppData\Local\Temp\ccqwYZ6T.s:219    .text.log_uart_getc:000000000000002e .L21
C:\Users\stapi\AppData\Local\Temp\ccqwYZ6T.s:203    .text.log_uart_getc:0000000000000010 .L22
C:\Users\stapi\AppData\Local\Temp\ccqwYZ6T.s:796    .debug_abbrev:0000000000000000 .Ldebug_abbrev0
C:\Users\stapi\AppData\Local\Temp\ccqwYZ6T.s:1281   .debug_str:0000000000000120 .LASF53
C:\Users\stapi\AppData\Local\Temp\ccqwYZ6T.s:1259   .debug_str:0000000000000010 .LASF54
C:\Users\stapi\AppData\Local\Temp\ccqwYZ6T.s:1341   .debug_str:00000000000003b7 .LASF55
C:\Users\stapi\AppData\Local\Temp\ccqwYZ6T.s:1241   .debug_ranges:0000000000000000 .Ldebug_ranges0
C:\Users\stapi\AppData\Local\Temp\ccqwYZ6T.s:1255   .debug_line:0000000000000000 .Ldebug_line0
C:\Users\stapi\AppData\Local\Temp\ccqwYZ6T.s:1297   .debug_str:0000000000000275 .LASF0
C:\Users\stapi\AppData\Local\Temp\ccqwYZ6T.s:1291   .debug_str:000000000000024e .LASF4
C:\Users\stapi\AppData\Local\Temp\ccqwYZ6T.s:1295   .debug_str:0000000000000267 .LASF1
C:\Users\stapi\AppData\Local\Temp\ccqwYZ6T.s:1267   .debug_str:00000000000000ba .LASF2
C:\Users\stapi\AppData\Local\Temp\ccqwYZ6T.s:1309   .debug_str:00000000000002cb .LASF3
C:\Users\stapi\AppData\Local\Temp\ccqwYZ6T.s:1351   .debug_str:000000000000046f .LASF5
C:\Users\stapi\AppData\Local\Temp\ccqwYZ6T.s:1285   .debug_str:0000000000000227 .LASF6
C:\Users\stapi\AppData\Local\Temp\ccqwYZ6T.s:1343   .debug_str:0000000000000440 .LASF7
C:\Users\stapi\AppData\Local\Temp\ccqwYZ6T.s:1333   .debug_str:0000000000000376 .LASF8
C:\Users\stapi\AppData\Local\Temp\ccqwYZ6T.s:1283   .debug_str:0000000000000219 .LASF9
C:\Users\stapi\AppData\Local\Temp\ccqwYZ6T.s:1299   .debug_str:0000000000000281 .LASF10
C:\Users\stapi\AppData\Local\Temp\ccqwYZ6T.s:1303   .debug_str:00000000000002a1 .LASF11
C:\Users\stapi\AppData\Local\Temp\ccqwYZ6T.s:1311   .debug_str:00000000000002de .LASF12
C:\Users\stapi\AppData\Local\Temp\ccqwYZ6T.s:1273   .debug_str:00000000000000e5 .LASF13
C:\Users\stapi\AppData\Local\Temp\ccqwYZ6T.s:1315   .debug_str:00000000000002f2 .LASF14
C:\Users\stapi\AppData\Local\Temp\ccqwYZ6T.s:1301   .debug_str:0000000000000298 .LASF15
C:\Users\stapi\AppData\Local\Temp\ccqwYZ6T.s:1353   .debug_str:0000000000000479 .LASF16
C:\Users\stapi\AppData\Local\Temp\ccqwYZ6T.s:1365   .debug_str:00000000000004ca .LASF17
C:\Users\stapi\AppData\Local\Temp\ccqwYZ6T.s:1313   .debug_str:00000000000002e3 .LASF18
C:\Users\stapi\AppData\Local\Temp\ccqwYZ6T.s:1325   .debug_str:0000000000000333 .LASF19
C:\Users\stapi\AppData\Local\Temp\ccqwYZ6T.s:1335   .debug_str:0000000000000388 .LASF20
C:\Users\stapi\AppData\Local\Temp\ccqwYZ6T.s:1307   .debug_str:00000000000002bd .LASF21
C:\Users\stapi\AppData\Local\Temp\ccqwYZ6T.s:1349   .debug_str:0000000000000461 .LASF22
C:\Users\stapi\AppData\Local\Temp\ccqwYZ6T.s:1305   .debug_str:00000000000002ae .LASF23
C:\Users\stapi\AppData\Local\Temp\ccqwYZ6T.s:1357   .debug_str:000000000000048d .LASF24
C:\Users\stapi\AppData\Local\Temp\ccqwYZ6T.s:1289   .debug_str:0000000000000240 .LASF25
C:\Users\stapi\AppData\Local\Temp\ccqwYZ6T.s:1319   .debug_str:000000000000030a .LASF26
C:\Users\stapi\AppData\Local\Temp\ccqwYZ6T.s:1287   .debug_str:0000000000000230 .LASF27
C:\Users\stapi\AppData\Local\Temp\ccqwYZ6T.s:1339   .debug_str:00000000000003a8 .LASF28
C:\Users\stapi\AppData\Local\Temp\ccqwYZ6T.s:1361   .debug_str:00000000000004a9 .LASF29
C:\Users\stapi\AppData\Local\Temp\ccqwYZ6T.s:1359   .debug_str:000000000000049b .LASF30
C:\Users\stapi\AppData\Local\Temp\ccqwYZ6T.s:1257   .debug_str:0000000000000000 .LASF31
C:\Users\stapi\AppData\Local\Temp\ccqwYZ6T.s:1367   .debug_str:00000000000004d9 .LASF32
C:\Users\stapi\AppData\Local\Temp\ccqwYZ6T.s:1337   .debug_str:0000000000000397 .LASF33
C:\Users\stapi\AppData\Local\Temp\ccqwYZ6T.s:1329   .debug_str:0000000000000355 .LASF34
C:\Users\stapi\AppData\Local\Temp\ccqwYZ6T.s:1317   .debug_str:00000000000002fa .LASF35
C:\Users\stapi\AppData\Local\Temp\ccqwYZ6T.s:1275   .debug_str:00000000000000ed .LASF36
C:\Users\stapi\AppData\Local\Temp\ccqwYZ6T.s:1331   .debug_str:0000000000000365 .LASF37
C:\Users\stapi\AppData\Local\Temp\ccqwYZ6T.s:1261   .debug_str:0000000000000092 .LASF38
C:\Users\stapi\AppData\Local\Temp\ccqwYZ6T.s:1265   .debug_str:00000000000000ab .LASF39
C:\Users\stapi\AppData\Local\Temp\ccqwYZ6T.s:1293   .debug_str:0000000000000258 .LASF40
C:\Users\stapi\AppData\Local\Temp\ccqwYZ6T.s:1271   .debug_str:00000000000000d7 .LASF45
C:\Users\stapi\AppData\Local\Temp\ccqwYZ6T.s:192    .text.log_uart_getc:0000000000000000 .LFB369
C:\Users\stapi\AppData\Local\Temp\ccqwYZ6T.s:242    .text.log_uart_getc:0000000000000056 .LFE369
C:\Users\stapi\AppData\Local\Temp\ccqwYZ6T.s:211    .text.log_uart_getc:000000000000001e .LVL18
C:\Users\stapi\AppData\Local\Temp\ccqwYZ6T.s:218    .text.log_uart_getc:000000000000002e .LVL19
C:\Users\stapi\AppData\Local\Temp\ccqwYZ6T.s:225    .text.log_uart_getc:000000000000003c .LVL20
C:\Users\stapi\AppData\Local\Temp\ccqwYZ6T.s:232    .text.log_uart_getc:000000000000004a .LVL21
C:\Users\stapi\AppData\Local\Temp\ccqwYZ6T.s:1363   .debug_str:00000000000004b8 .LASF42
C:\Users\stapi\AppData\Local\Temp\ccqwYZ6T.s:169    .text.log_uart_put_data:0000000000000000 .LFB368
C:\Users\stapi\AppData\Local\Temp\ccqwYZ6T.s:185    .text.log_uart_put_data:0000000000000014 .LFE368
C:\Users\stapi\AppData\Local\Temp\ccqwYZ6T.s:1120   .debug_loc:0000000000000000 .LLST4
C:\Users\stapi\AppData\Local\Temp\ccqwYZ6T.s:1345   .debug_str:000000000000044b .LASF41
C:\Users\stapi\AppData\Local\Temp\ccqwYZ6T.s:1138   .debug_loc:000000000000002c .LLST5
C:\Users\stapi\AppData\Local\Temp\ccqwYZ6T.s:183    .text.log_uart_put_data:0000000000000014 .LVL17
C:\Users\stapi\AppData\Local\Temp\ccqwYZ6T.s:1279   .debug_str:000000000000010c .LASF43
C:\Users\stapi\AppData\Local\Temp\ccqwYZ6T.s:121    .text.log_uart_putc_noint:0000000000000000 .LFB367
C:\Users\stapi\AppData\Local\Temp\ccqwYZ6T.s:162    .text.log_uart_putc_noint:0000000000000038 .LFE367
C:\Users\stapi\AppData\Local\Temp\ccqwYZ6T.s:1156   .debug_loc:0000000000000058 .LLST3
C:\Users\stapi\AppData\Local\Temp\ccqwYZ6T.s:146    .text.log_uart_putc_noint:0000000000000020 .LVL12
C:\Users\stapi\AppData\Local\Temp\ccqwYZ6T.s:153    .text.log_uart_putc_noint:0000000000000030 .LVL13
C:\Users\stapi\AppData\Local\Temp\ccqwYZ6T.s:1355   .debug_str:000000000000047f .LASF44
C:\Users\stapi\AppData\Local\Temp\ccqwYZ6T.s:100    .text.log_uart_init:0000000000000000 .LFB366
C:\Users\stapi\AppData\Local\Temp\ccqwYZ6T.s:114    .text.log_uart_init:000000000000001c .LFE366
C:\Users\stapi\AppData\Local\Temp\ccqwYZ6T.s:112    .text.log_uart_init:000000000000001c .LVL9
C:\Users\stapi\AppData\Local\Temp\ccqwYZ6T.s:1263   .debug_str:00000000000000a4 .LASF46
C:\Users\stapi\AppData\Local\Temp\ccqwYZ6T.s:14     .text._write:0000000000000000 .LFB365
C:\Users\stapi\AppData\Local\Temp\ccqwYZ6T.s:93     .text._write:0000000000000064 .LFE365
C:\Users\stapi\AppData\Local\Temp\ccqwYZ6T.s:1170   .debug_loc:0000000000000079 .LLST0
C:\Users\stapi\AppData\Local\Temp\ccqwYZ6T.s:1184   .debug_loc:000000000000009a .LLST1
C:\Users\stapi\AppData\Local\Temp\ccqwYZ6T.s:1209   .debug_loc:00000000000000db .LLST2
C:\Users\stapi\AppData\Local\Temp\ccqwYZ6T.s:53     .text._write:0000000000000032 .LVL4
C:\Users\stapi\AppData\Local\Temp\ccqwYZ6T.s:76     .text._write:000000000000004c .LVL6
C:\Users\stapi\AppData\Local\Temp\ccqwYZ6T.s:88     .text._write:0000000000000062 .LVL8
C:\Users\stapi\AppData\Local\Temp\ccqwYZ6T.s:1277   .debug_str:00000000000000fd .LASF47
C:\Users\stapi\AppData\Local\Temp\ccqwYZ6T.s:1347   .debug_str:0000000000000450 .LASF48
C:\Users\stapi\AppData\Local\Temp\ccqwYZ6T.s:1269   .debug_str:00000000000000c4 .LASF49
C:\Users\stapi\AppData\Local\Temp\ccqwYZ6T.s:1321   .debug_str:0000000000000319 .LASF50
C:\Users\stapi\AppData\Local\Temp\ccqwYZ6T.s:1327   .debug_str:0000000000000341 .LASF51
C:\Users\stapi\AppData\Local\Temp\ccqwYZ6T.s:1323   .debug_str:0000000000000327 .LASF52
C:\Users\stapi\AppData\Local\Temp\ccqwYZ6T.s:172    .text.log_uart_put_data:0000000000000000 .LVL14
C:\Users\stapi\AppData\Local\Temp\ccqwYZ6T.s:180    .text.log_uart_put_data:0000000000000008 .LVL16
C:\Users\stapi\AppData\Local\Temp\ccqwYZ6T.s:178    .text.log_uart_put_data:0000000000000004 .LVL15
C:\Users\stapi\AppData\Local\Temp\ccqwYZ6T.s:124    .text.log_uart_putc_noint:0000000000000000 .LVL10
C:\Users\stapi\AppData\Local\Temp\ccqwYZ6T.s:138    .text.log_uart_putc_noint:0000000000000012 .LVL11
C:\Users\stapi\AppData\Local\Temp\ccqwYZ6T.s:18     .text._write:0000000000000000 .LVL0
C:\Users\stapi\AppData\Local\Temp\ccqwYZ6T.s:38     .text._write:0000000000000018 .LVL2
C:\Users\stapi\AppData\Local\Temp\ccqwYZ6T.s:44     .text._write:0000000000000020 .LVL3
C:\Users\stapi\AppData\Local\Temp\ccqwYZ6T.s:67     .text._write:000000000000003e .LVL5
C:\Users\stapi\AppData\Local\Temp\ccqwYZ6T.s:84     .text._write:0000000000000056 .LVL7
C:\Users\stapi\AppData\Local\Temp\ccqwYZ6T.s:252    .debug_info:0000000000000000 .Ldebug_info0

UNDEFINED SYMBOLS
__riscv_save_4
usart_flag_get
__riscv_restore_4
usart_data_transmit
uart_config
__riscv_save_3
__riscv_restore_3
uart_put_data
__riscv_save_2
usart_flag_clear
usart_data_receive
__riscv_restore_2
