   1              		.file	"systime.c"
   2              		.option nopic
   3              		.attribute arch, "rv32i2p0_m2p0_a2p0_f2p0_c2p0_b_p0p94"
   4              		.attribute unaligned_access, 0
   5              		.attribute stack_align, 16
   6              		.text
   7              	.Ltext0:
   8              		.cfi_sections	.debug_frame
   9              		.section	.text.systick_init,"ax",@progbits
  10              		.align	1
  11              		.globl	systick_init
  13              	systick_init:
  14              	.LFB365:
  15              		.file 1 "C:/Users/stapi/OneDrive/Desktop/GD32VW553/V1_MQTT_OK/GD32VW55X_Wifi_BLE_SDK/GD32VW55x_REL
   1:C:/Users/stapi/OneDrive/Desktop/GD32VW553/V1_MQTT_OK/GD32VW55X_Wifi_BLE_SDK/GD32VW55x_RELEASE_V1.0.2/MSDK/plf/src/time\systime.c **** /*!
   2:C:/Users/stapi/OneDrive/Desktop/GD32VW553/V1_MQTT_OK/GD32VW55X_Wifi_BLE_SDK/GD32VW55x_RELEASE_V1.0.2/MSDK/plf/src/time\systime.c ****     \file    systime.c
   3:C:/Users/stapi/OneDrive/Desktop/GD32VW553/V1_MQTT_OK/GD32VW55X_Wifi_BLE_SDK/GD32VW55x_RELEASE_V1.0.2/MSDK/plf/src/time\systime.c ****     \brief   Provide time related function specific for GD32VW55x SDK.
   4:C:/Users/stapi/OneDrive/Desktop/GD32VW553/V1_MQTT_OK/GD32VW55X_Wifi_BLE_SDK/GD32VW55x_RELEASE_V1.0.2/MSDK/plf/src/time\systime.c **** 
   5:C:/Users/stapi/OneDrive/Desktop/GD32VW553/V1_MQTT_OK/GD32VW55X_Wifi_BLE_SDK/GD32VW55x_RELEASE_V1.0.2/MSDK/plf/src/time\systime.c ****     \version 2023-07-20, V1.0.0, firmware for GD32VW55x
   6:C:/Users/stapi/OneDrive/Desktop/GD32VW553/V1_MQTT_OK/GD32VW55X_Wifi_BLE_SDK/GD32VW55x_RELEASE_V1.0.2/MSDK/plf/src/time\systime.c **** */
   7:C:/Users/stapi/OneDrive/Desktop/GD32VW553/V1_MQTT_OK/GD32VW55X_Wifi_BLE_SDK/GD32VW55x_RELEASE_V1.0.2/MSDK/plf/src/time\systime.c **** 
   8:C:/Users/stapi/OneDrive/Desktop/GD32VW553/V1_MQTT_OK/GD32VW55X_Wifi_BLE_SDK/GD32VW55x_RELEASE_V1.0.2/MSDK/plf/src/time\systime.c **** /*
   9:C:/Users/stapi/OneDrive/Desktop/GD32VW553/V1_MQTT_OK/GD32VW55X_Wifi_BLE_SDK/GD32VW55x_RELEASE_V1.0.2/MSDK/plf/src/time\systime.c ****     Copyright (c) 2023, GigaDevice Semiconductor Inc.
  10:C:/Users/stapi/OneDrive/Desktop/GD32VW553/V1_MQTT_OK/GD32VW55X_Wifi_BLE_SDK/GD32VW55x_RELEASE_V1.0.2/MSDK/plf/src/time\systime.c **** 
  11:C:/Users/stapi/OneDrive/Desktop/GD32VW553/V1_MQTT_OK/GD32VW55X_Wifi_BLE_SDK/GD32VW55x_RELEASE_V1.0.2/MSDK/plf/src/time\systime.c ****     Redistribution and use in source and binary forms, with or without modification,
  12:C:/Users/stapi/OneDrive/Desktop/GD32VW553/V1_MQTT_OK/GD32VW55X_Wifi_BLE_SDK/GD32VW55x_RELEASE_V1.0.2/MSDK/plf/src/time\systime.c **** are permitted provided that the following conditions are met:
  13:C:/Users/stapi/OneDrive/Desktop/GD32VW553/V1_MQTT_OK/GD32VW55X_Wifi_BLE_SDK/GD32VW55x_RELEASE_V1.0.2/MSDK/plf/src/time\systime.c **** 
  14:C:/Users/stapi/OneDrive/Desktop/GD32VW553/V1_MQTT_OK/GD32VW55X_Wifi_BLE_SDK/GD32VW55x_RELEASE_V1.0.2/MSDK/plf/src/time\systime.c ****     1. Redistributions of source code must retain the above copyright notice, this
  15:C:/Users/stapi/OneDrive/Desktop/GD32VW553/V1_MQTT_OK/GD32VW55X_Wifi_BLE_SDK/GD32VW55x_RELEASE_V1.0.2/MSDK/plf/src/time\systime.c ****        list of conditions and the following disclaimer.
  16:C:/Users/stapi/OneDrive/Desktop/GD32VW553/V1_MQTT_OK/GD32VW55X_Wifi_BLE_SDK/GD32VW55x_RELEASE_V1.0.2/MSDK/plf/src/time\systime.c ****     2. Redistributions in binary form must reproduce the above copyright notice,
  17:C:/Users/stapi/OneDrive/Desktop/GD32VW553/V1_MQTT_OK/GD32VW55X_Wifi_BLE_SDK/GD32VW55x_RELEASE_V1.0.2/MSDK/plf/src/time\systime.c ****        this list of conditions and the following disclaimer in the documentation
  18:C:/Users/stapi/OneDrive/Desktop/GD32VW553/V1_MQTT_OK/GD32VW55X_Wifi_BLE_SDK/GD32VW55x_RELEASE_V1.0.2/MSDK/plf/src/time\systime.c ****        and/or other materials provided with the distribution.
  19:C:/Users/stapi/OneDrive/Desktop/GD32VW553/V1_MQTT_OK/GD32VW55X_Wifi_BLE_SDK/GD32VW55x_RELEASE_V1.0.2/MSDK/plf/src/time\systime.c ****     3. Neither the name of the copyright holder nor the names of its contributors
  20:C:/Users/stapi/OneDrive/Desktop/GD32VW553/V1_MQTT_OK/GD32VW55X_Wifi_BLE_SDK/GD32VW55x_RELEASE_V1.0.2/MSDK/plf/src/time\systime.c ****        may be used to endorse or promote products derived from this software without
  21:C:/Users/stapi/OneDrive/Desktop/GD32VW553/V1_MQTT_OK/GD32VW55X_Wifi_BLE_SDK/GD32VW55x_RELEASE_V1.0.2/MSDK/plf/src/time\systime.c ****        specific prior written permission.
  22:C:/Users/stapi/OneDrive/Desktop/GD32VW553/V1_MQTT_OK/GD32VW55X_Wifi_BLE_SDK/GD32VW55x_RELEASE_V1.0.2/MSDK/plf/src/time\systime.c **** 
  23:C:/Users/stapi/OneDrive/Desktop/GD32VW553/V1_MQTT_OK/GD32VW55X_Wifi_BLE_SDK/GD32VW55x_RELEASE_V1.0.2/MSDK/plf/src/time\systime.c ****     THIS SOFTWARE IS PROVIDED BY THE COPYRIGHT HOLDERS AND CONTRIBUTORS "AS IS"
  24:C:/Users/stapi/OneDrive/Desktop/GD32VW553/V1_MQTT_OK/GD32VW55X_Wifi_BLE_SDK/GD32VW55x_RELEASE_V1.0.2/MSDK/plf/src/time\systime.c **** AND ANY EXPRESS OR IMPLIED WARRANTIES, INCLUDING, BUT NOT LIMITED TO, THE IMPLIED
  25:C:/Users/stapi/OneDrive/Desktop/GD32VW553/V1_MQTT_OK/GD32VW55X_Wifi_BLE_SDK/GD32VW55x_RELEASE_V1.0.2/MSDK/plf/src/time\systime.c **** WARRANTIES OF MERCHANTABILITY AND FITNESS FOR A PARTICULAR PURPOSE ARE DISCLAIMED.
  26:C:/Users/stapi/OneDrive/Desktop/GD32VW553/V1_MQTT_OK/GD32VW55X_Wifi_BLE_SDK/GD32VW55x_RELEASE_V1.0.2/MSDK/plf/src/time\systime.c **** IN NO EVENT SHALL THE COPYRIGHT HOLDER OR CONTRIBUTORS BE LIABLE FOR ANY DIRECT,
  27:C:/Users/stapi/OneDrive/Desktop/GD32VW553/V1_MQTT_OK/GD32VW55X_Wifi_BLE_SDK/GD32VW55x_RELEASE_V1.0.2/MSDK/plf/src/time\systime.c **** INDIRECT, INCIDENTAL, SPECIAL, EXEMPLARY, OR CONSEQUENTIAL DAMAGES (INCLUDING, BUT
  28:C:/Users/stapi/OneDrive/Desktop/GD32VW553/V1_MQTT_OK/GD32VW55X_Wifi_BLE_SDK/GD32VW55x_RELEASE_V1.0.2/MSDK/plf/src/time\systime.c **** NOT LIMITED TO, PROCUREMENT OF SUBSTITUTE GOODS OR SERVICES; LOSS OF USE, DATA, OR
  29:C:/Users/stapi/OneDrive/Desktop/GD32VW553/V1_MQTT_OK/GD32VW55X_Wifi_BLE_SDK/GD32VW55x_RELEASE_V1.0.2/MSDK/plf/src/time\systime.c **** PROFITS; OR BUSINESS INTERRUPTION) HOWEVER CAUSED AND ON ANY THEORY OF LIABILITY,
  30:C:/Users/stapi/OneDrive/Desktop/GD32VW553/V1_MQTT_OK/GD32VW55X_Wifi_BLE_SDK/GD32VW55x_RELEASE_V1.0.2/MSDK/plf/src/time\systime.c **** WHETHER IN CONTRACT, STRICT LIABILITY, OR TORT (INCLUDING NEGLIGENCE OR OTHERWISE)
  31:C:/Users/stapi/OneDrive/Desktop/GD32VW553/V1_MQTT_OK/GD32VW55X_Wifi_BLE_SDK/GD32VW55x_RELEASE_V1.0.2/MSDK/plf/src/time\systime.c **** ARISING IN ANY WAY OUT OF THE USE OF THIS SOFTWARE, EVEN IF ADVISED OF THE POSSIBILITY
  32:C:/Users/stapi/OneDrive/Desktop/GD32VW553/V1_MQTT_OK/GD32VW55X_Wifi_BLE_SDK/GD32VW55x_RELEASE_V1.0.2/MSDK/plf/src/time\systime.c **** OF SUCH DAMAGE.
  33:C:/Users/stapi/OneDrive/Desktop/GD32VW553/V1_MQTT_OK/GD32VW55X_Wifi_BLE_SDK/GD32VW55x_RELEASE_V1.0.2/MSDK/plf/src/time\systime.c **** */
  34:C:/Users/stapi/OneDrive/Desktop/GD32VW553/V1_MQTT_OK/GD32VW55X_Wifi_BLE_SDK/GD32VW55x_RELEASE_V1.0.2/MSDK/plf/src/time\systime.c **** 
  35:C:/Users/stapi/OneDrive/Desktop/GD32VW553/V1_MQTT_OK/GD32VW55X_Wifi_BLE_SDK/GD32VW55x_RELEASE_V1.0.2/MSDK/plf/src/time\systime.c **** #include "systime.h"
  36:C:/Users/stapi/OneDrive/Desktop/GD32VW553/V1_MQTT_OK/GD32VW55X_Wifi_BLE_SDK/GD32VW55x_RELEASE_V1.0.2/MSDK/plf/src/time\systime.c **** #include "gd32vw55x.h"
  37:C:/Users/stapi/OneDrive/Desktop/GD32VW553/V1_MQTT_OK/GD32VW55X_Wifi_BLE_SDK/GD32VW55x_RELEASE_V1.0.2/MSDK/plf/src/time\systime.c **** 
  38:C:/Users/stapi/OneDrive/Desktop/GD32VW553/V1_MQTT_OK/GD32VW55X_Wifi_BLE_SDK/GD32VW55x_RELEASE_V1.0.2/MSDK/plf/src/time\systime.c **** // Number of seconds elapsed since EPOCH when firmware has been initialized
  39:C:/Users/stapi/OneDrive/Desktop/GD32VW553/V1_MQTT_OK/GD32VW55X_Wifi_BLE_SDK/GD32VW55x_RELEASE_V1.0.2/MSDK/plf/src/time\systime.c **** static uint32_t epoch_sec;
  40:C:/Users/stapi/OneDrive/Desktop/GD32VW553/V1_MQTT_OK/GD32VW55X_Wifi_BLE_SDK/GD32VW55x_RELEASE_V1.0.2/MSDK/plf/src/time\systime.c **** // Number of microseconds (modulo 1 sec) elapsed since EPOCH at firmware initialization
  41:C:/Users/stapi/OneDrive/Desktop/GD32VW553/V1_MQTT_OK/GD32VW55X_Wifi_BLE_SDK/GD32VW55x_RELEASE_V1.0.2/MSDK/plf/src/time\systime.c **** static uint32_t epoch_usec;
  42:C:/Users/stapi/OneDrive/Desktop/GD32VW553/V1_MQTT_OK/GD32VW55X_Wifi_BLE_SDK/GD32VW55x_RELEASE_V1.0.2/MSDK/plf/src/time\systime.c **** 
  43:C:/Users/stapi/OneDrive/Desktop/GD32VW553/V1_MQTT_OK/GD32VW55X_Wifi_BLE_SDK/GD32VW55x_RELEASE_V1.0.2/MSDK/plf/src/time\systime.c **** uint32_t clock_us_factor;
  44:C:/Users/stapi/OneDrive/Desktop/GD32VW553/V1_MQTT_OK/GD32VW55X_Wifi_BLE_SDK/GD32VW55x_RELEASE_V1.0.2/MSDK/plf/src/time\systime.c **** 
  45:C:/Users/stapi/OneDrive/Desktop/GD32VW553/V1_MQTT_OK/GD32VW55X_Wifi_BLE_SDK/GD32VW55x_RELEASE_V1.0.2/MSDK/plf/src/time\systime.c **** void systick_init(void)
  46:C:/Users/stapi/OneDrive/Desktop/GD32VW553/V1_MQTT_OK/GD32VW55X_Wifi_BLE_SDK/GD32VW55x_RELEASE_V1.0.2/MSDK/plf/src/time\systime.c **** {
  16              		.loc 1 46 1
  17              		.cfi_startproc
  47:C:/Users/stapi/OneDrive/Desktop/GD32VW553/V1_MQTT_OK/GD32VW55X_Wifi_BLE_SDK/GD32VW55x_RELEASE_V1.0.2/MSDK/plf/src/time\systime.c ****     clock_us_factor = SystemCoreClock / 1000000;
  18              		.loc 1 47 5
  19              		.loc 1 47 39 is_stmt 0
  20 0000 B7070000 		lui	a5,%hi(SystemCoreClock)
  21 0004 83A70700 		lw	a5,%lo(SystemCoreClock)(a5)
  22 0008 37470F00 		li	a4,999424
  23 000c 13070724 		addi	a4,a4,576
  24 0010 B3D7E702 		divu	a5,a5,a4
  25              		.loc 1 47 21
  26 0014 37070000 		lui	a4,%hi(.LANCHOR0)
  27 0018 2320F700 		sw	a5,%lo(.LANCHOR0)(a4)
  48:C:/Users/stapi/OneDrive/Desktop/GD32VW553/V1_MQTT_OK/GD32VW55X_Wifi_BLE_SDK/GD32VW55x_RELEASE_V1.0.2/MSDK/plf/src/time\systime.c **** }
  28              		.loc 1 48 1
  29 001c 8280     		ret
  30              		.cfi_endproc
  31              	.LFE365:
  33              		.section	.text.time_init,"ax",@progbits
  34              		.align	1
  35              		.globl	time_init
  37              	time_init:
  38              	.LFB366:
  49:C:/Users/stapi/OneDrive/Desktop/GD32VW553/V1_MQTT_OK/GD32VW55X_Wifi_BLE_SDK/GD32VW55x_RELEASE_V1.0.2/MSDK/plf/src/time\systime.c **** 
  50:C:/Users/stapi/OneDrive/Desktop/GD32VW553/V1_MQTT_OK/GD32VW55X_Wifi_BLE_SDK/GD32VW55x_RELEASE_V1.0.2/MSDK/plf/src/time\systime.c **** void time_init(uint32_t sec, uint32_t usec)
  51:C:/Users/stapi/OneDrive/Desktop/GD32VW553/V1_MQTT_OK/GD32VW55X_Wifi_BLE_SDK/GD32VW55x_RELEASE_V1.0.2/MSDK/plf/src/time\systime.c **** {
  39              		.loc 1 51 1 is_stmt 1
  40              		.cfi_startproc
  41              	.LVL0:
  52:C:/Users/stapi/OneDrive/Desktop/GD32VW553/V1_MQTT_OK/GD32VW55X_Wifi_BLE_SDK/GD32VW55x_RELEASE_V1.0.2/MSDK/plf/src/time\systime.c ****     epoch_sec = sec;
  42              		.loc 1 52 5
  43              		.loc 1 52 15 is_stmt 0
  44 0000 B7070000 		lui	a5,%hi(.LANCHOR1)
  45 0004 23A0A700 		sw	a0,%lo(.LANCHOR1)(a5)
  53:C:/Users/stapi/OneDrive/Desktop/GD32VW553/V1_MQTT_OK/GD32VW55X_Wifi_BLE_SDK/GD32VW55x_RELEASE_V1.0.2/MSDK/plf/src/time\systime.c ****     epoch_usec = usec;
  46              		.loc 1 53 5 is_stmt 1
  47              		.loc 1 53 16 is_stmt 0
  48 0008 B7070000 		lui	a5,%hi(.LANCHOR2)
  49 000c 23A0B700 		sw	a1,%lo(.LANCHOR2)(a5)
  54:C:/Users/stapi/OneDrive/Desktop/GD32VW553/V1_MQTT_OK/GD32VW55X_Wifi_BLE_SDK/GD32VW55x_RELEASE_V1.0.2/MSDK/plf/src/time\systime.c **** }
  50              		.loc 1 54 1
  51 0010 8280     		ret
  52              		.cfi_endproc
  53              	.LFE366:
  55              		.globl	__udivdi3
  56              		.section	.text.get_sys_local_time_us,"ax",@progbits
  57              		.align	1
  58              		.globl	get_sys_local_time_us
  60              	get_sys_local_time_us:
  61              	.LFB367:
  55:C:/Users/stapi/OneDrive/Desktop/GD32VW553/V1_MQTT_OK/GD32VW55X_Wifi_BLE_SDK/GD32VW55x_RELEASE_V1.0.2/MSDK/plf/src/time\systime.c **** 
  56:C:/Users/stapi/OneDrive/Desktop/GD32VW553/V1_MQTT_OK/GD32VW55X_Wifi_BLE_SDK/GD32VW55x_RELEASE_V1.0.2/MSDK/plf/src/time\systime.c **** /**
  57:C:/Users/stapi/OneDrive/Desktop/GD32VW553/V1_MQTT_OK/GD32VW55X_Wifi_BLE_SDK/GD32VW55x_RELEASE_V1.0.2/MSDK/plf/src/time\systime.c ****  ****************************************************************************************
  58:C:/Users/stapi/OneDrive/Desktop/GD32VW553/V1_MQTT_OK/GD32VW55X_Wifi_BLE_SDK/GD32VW55x_RELEASE_V1.0.2/MSDK/plf/src/time\systime.c ****  * @brief Read monotonic counter
  59:C:/Users/stapi/OneDrive/Desktop/GD32VW553/V1_MQTT_OK/GD32VW55X_Wifi_BLE_SDK/GD32VW55x_RELEASE_V1.0.2/MSDK/plf/src/time\systime.c ****  *
  60:C:/Users/stapi/OneDrive/Desktop/GD32VW553/V1_MQTT_OK/GD32VW55X_Wifi_BLE_SDK/GD32VW55x_RELEASE_V1.0.2/MSDK/plf/src/time\systime.c ****  * Read msb twice to detect if counter wrap while reading it.
  61:C:/Users/stapi/OneDrive/Desktop/GD32VW553/V1_MQTT_OK/GD32VW55X_Wifi_BLE_SDK/GD32VW55x_RELEASE_V1.0.2/MSDK/plf/src/time\systime.c ****  *
  62:C:/Users/stapi/OneDrive/Desktop/GD32VW553/V1_MQTT_OK/GD32VW55X_Wifi_BLE_SDK/GD32VW55x_RELEASE_V1.0.2/MSDK/plf/src/time\systime.c ****  * @msb Updated with msb part of the counter (16bits only)
  63:C:/Users/stapi/OneDrive/Desktop/GD32VW553/V1_MQTT_OK/GD32VW55X_Wifi_BLE_SDK/GD32VW55x_RELEASE_V1.0.2/MSDK/plf/src/time\systime.c ****  * @lsb Updated with lsb part of the counter (32bits)
  64:C:/Users/stapi/OneDrive/Desktop/GD32VW553/V1_MQTT_OK/GD32VW55X_Wifi_BLE_SDK/GD32VW55x_RELEASE_V1.0.2/MSDK/plf/src/time\systime.c ****  *
  65:C:/Users/stapi/OneDrive/Desktop/GD32VW553/V1_MQTT_OK/GD32VW55X_Wifi_BLE_SDK/GD32VW55x_RELEASE_V1.0.2/MSDK/plf/src/time\systime.c ****  * @return 64 bit us
  66:C:/Users/stapi/OneDrive/Desktop/GD32VW553/V1_MQTT_OK/GD32VW55X_Wifi_BLE_SDK/GD32VW55x_RELEASE_V1.0.2/MSDK/plf/src/time\systime.c ****  ****************************************************************************************
  67:C:/Users/stapi/OneDrive/Desktop/GD32VW553/V1_MQTT_OK/GD32VW55X_Wifi_BLE_SDK/GD32VW55x_RELEASE_V1.0.2/MSDK/plf/src/time\systime.c ****  */
  68:C:/Users/stapi/OneDrive/Desktop/GD32VW553/V1_MQTT_OK/GD32VW55X_Wifi_BLE_SDK/GD32VW55x_RELEASE_V1.0.2/MSDK/plf/src/time\systime.c **** uint64_t get_sys_local_time_us(void)
  69:C:/Users/stapi/OneDrive/Desktop/GD32VW553/V1_MQTT_OK/GD32VW55X_Wifi_BLE_SDK/GD32VW55x_RELEASE_V1.0.2/MSDK/plf/src/time\systime.c **** {
  62              		.loc 1 69 1 is_stmt 1
  63              		.cfi_startproc
  70:C:/Users/stapi/OneDrive/Desktop/GD32VW553/V1_MQTT_OK/GD32VW55X_Wifi_BLE_SDK/GD32VW55x_RELEASE_V1.0.2/MSDK/plf/src/time\systime.c ****     // for GD32VW55X we use riscv mtime
  71:C:/Users/stapi/OneDrive/Desktop/GD32VW553/V1_MQTT_OK/GD32VW55X_Wifi_BLE_SDK/GD32VW55x_RELEASE_V1.0.2/MSDK/plf/src/time\systime.c ****     /* get current timer value */
  72:C:/Users/stapi/OneDrive/Desktop/GD32VW553/V1_MQTT_OK/GD32VW55X_Wifi_BLE_SDK/GD32VW55x_RELEASE_V1.0.2/MSDK/plf/src/time\systime.c ****     uint64_t tmp = SysTimer_GetLoadValue();
  64              		.loc 1 72 5
  65              	.LBB10:
  66              	.LBB11:
  67              		.file 2 "..\\..\\..\\..\\plf\\riscv\\NMSIS\\Core\\Include/core_feature_timer.h"
   1:..\..\..\..\plf\riscv\NMSIS\Core\Include/core_feature_timer.h **** /*
   2:..\..\..\..\plf\riscv\NMSIS\Core\Include/core_feature_timer.h ****  * Copyright (c) 2019 Nuclei Limited. All rights reserved.
   3:..\..\..\..\plf\riscv\NMSIS\Core\Include/core_feature_timer.h ****  *
   4:..\..\..\..\plf\riscv\NMSIS\Core\Include/core_feature_timer.h ****  * SPDX-License-Identifier: Apache-2.0
   5:..\..\..\..\plf\riscv\NMSIS\Core\Include/core_feature_timer.h ****  *
   6:..\..\..\..\plf\riscv\NMSIS\Core\Include/core_feature_timer.h ****  * Licensed under the Apache License, Version 2.0 (the License); you may
   7:..\..\..\..\plf\riscv\NMSIS\Core\Include/core_feature_timer.h ****  * not use this file except in compliance with the License.
   8:..\..\..\..\plf\riscv\NMSIS\Core\Include/core_feature_timer.h ****  * You may obtain a copy of the License at
   9:..\..\..\..\plf\riscv\NMSIS\Core\Include/core_feature_timer.h ****  *
  10:..\..\..\..\plf\riscv\NMSIS\Core\Include/core_feature_timer.h ****  * www.apache.org/licenses/LICENSE-2.0
  11:..\..\..\..\plf\riscv\NMSIS\Core\Include/core_feature_timer.h ****  *
  12:..\..\..\..\plf\riscv\NMSIS\Core\Include/core_feature_timer.h ****  * Unless required by applicable law or agreed to in writing, software
  13:..\..\..\..\plf\riscv\NMSIS\Core\Include/core_feature_timer.h ****  * distributed under the License is distributed on an AS IS BASIS, WITHOUT
  14:..\..\..\..\plf\riscv\NMSIS\Core\Include/core_feature_timer.h ****  * WARRANTIES OR CONDITIONS OF ANY KIND, either express or implied.
  15:..\..\..\..\plf\riscv\NMSIS\Core\Include/core_feature_timer.h ****  * See the License for the specific language governing permissions and
  16:..\..\..\..\plf\riscv\NMSIS\Core\Include/core_feature_timer.h ****  * limitations under the License.
  17:..\..\..\..\plf\riscv\NMSIS\Core\Include/core_feature_timer.h ****  */
  18:..\..\..\..\plf\riscv\NMSIS\Core\Include/core_feature_timer.h **** #ifndef __CORE_FEATURE_TIMER_H__
  19:..\..\..\..\plf\riscv\NMSIS\Core\Include/core_feature_timer.h **** #define __CORE_FEATURE_TIMER_H__
  20:..\..\..\..\plf\riscv\NMSIS\Core\Include/core_feature_timer.h **** /*!
  21:..\..\..\..\plf\riscv\NMSIS\Core\Include/core_feature_timer.h ****  * @file     core_feature_timer.h
  22:..\..\..\..\plf\riscv\NMSIS\Core\Include/core_feature_timer.h ****  * @brief    System Timer feature API header file for Nuclei N/NX Core
  23:..\..\..\..\plf\riscv\NMSIS\Core\Include/core_feature_timer.h ****  */
  24:..\..\..\..\plf\riscv\NMSIS\Core\Include/core_feature_timer.h **** /*
  25:..\..\..\..\plf\riscv\NMSIS\Core\Include/core_feature_timer.h ****  * System Timer Feature Configuration Macro:
  26:..\..\..\..\plf\riscv\NMSIS\Core\Include/core_feature_timer.h ****  * 1. __SYSTIMER_PRESENT:  Define whether Private System Timer is present or not.
  27:..\..\..\..\plf\riscv\NMSIS\Core\Include/core_feature_timer.h ****  *   * 0: Not present
  28:..\..\..\..\plf\riscv\NMSIS\Core\Include/core_feature_timer.h ****  *   * 1: Present
  29:..\..\..\..\plf\riscv\NMSIS\Core\Include/core_feature_timer.h ****  * 2. __SYSTIMER_BASEADDR:  Define the base address of the System Timer.
  30:..\..\..\..\plf\riscv\NMSIS\Core\Include/core_feature_timer.h ****  */
  31:..\..\..\..\plf\riscv\NMSIS\Core\Include/core_feature_timer.h **** #ifdef __cplusplus
  32:..\..\..\..\plf\riscv\NMSIS\Core\Include/core_feature_timer.h ****  extern "C" {
  33:..\..\..\..\plf\riscv\NMSIS\Core\Include/core_feature_timer.h **** #endif
  34:..\..\..\..\plf\riscv\NMSIS\Core\Include/core_feature_timer.h **** 
  35:..\..\..\..\plf\riscv\NMSIS\Core\Include/core_feature_timer.h **** #include "core_feature_base.h"
  36:..\..\..\..\plf\riscv\NMSIS\Core\Include/core_feature_timer.h **** 
  37:..\..\..\..\plf\riscv\NMSIS\Core\Include/core_feature_timer.h **** #if defined(__SYSTIMER_PRESENT) && (__SYSTIMER_PRESENT == 1)
  38:..\..\..\..\plf\riscv\NMSIS\Core\Include/core_feature_timer.h **** /**
  39:..\..\..\..\plf\riscv\NMSIS\Core\Include/core_feature_timer.h ****  * \defgroup NMSIS_Core_SysTimer_Registers     Register Define and Type Definitions Of System Timer
  40:..\..\..\..\plf\riscv\NMSIS\Core\Include/core_feature_timer.h ****  * \ingroup NMSIS_Core_Registers
  41:..\..\..\..\plf\riscv\NMSIS\Core\Include/core_feature_timer.h ****  * \brief   Type definitions and defines for system timer registers.
  42:..\..\..\..\plf\riscv\NMSIS\Core\Include/core_feature_timer.h ****  *
  43:..\..\..\..\plf\riscv\NMSIS\Core\Include/core_feature_timer.h ****  * @{
  44:..\..\..\..\plf\riscv\NMSIS\Core\Include/core_feature_timer.h ****  */
  45:..\..\..\..\plf\riscv\NMSIS\Core\Include/core_feature_timer.h **** /**
  46:..\..\..\..\plf\riscv\NMSIS\Core\Include/core_feature_timer.h ****  * \brief  Structure type to access the System Timer (SysTimer).
  47:..\..\..\..\plf\riscv\NMSIS\Core\Include/core_feature_timer.h ****  * \details
  48:..\..\..\..\plf\riscv\NMSIS\Core\Include/core_feature_timer.h ****  * Structure definition to access the system timer(SysTimer).
  49:..\..\..\..\plf\riscv\NMSIS\Core\Include/core_feature_timer.h ****  * \remarks
  50:..\..\..\..\plf\riscv\NMSIS\Core\Include/core_feature_timer.h ****  * - MSFTRST register is introduced in Nuclei N Core version 1.3(\ref __NUCLEI_N_REV >= 0x0103)
  51:..\..\..\..\plf\riscv\NMSIS\Core\Include/core_feature_timer.h ****  * - MSTOP register is renamed to MTIMECTL register in Nuclei N Core version 1.4(\ref __NUCLEI_N_RE
  52:..\..\..\..\plf\riscv\NMSIS\Core\Include/core_feature_timer.h ****  * - CMPCLREN and CLKSRC bit in MTIMECTL register is introduced in Nuclei N Core version 1.4(\ref _
  53:..\..\..\..\plf\riscv\NMSIS\Core\Include/core_feature_timer.h ****  */
  54:..\..\..\..\plf\riscv\NMSIS\Core\Include/core_feature_timer.h **** typedef struct {
  55:..\..\..\..\plf\riscv\NMSIS\Core\Include/core_feature_timer.h ****     __IOM uint64_t MTIMER;                  /*!< Offset: 0x000 (R/W)  System Timer current value 64
  56:..\..\..\..\plf\riscv\NMSIS\Core\Include/core_feature_timer.h ****     union {
  57:..\..\..\..\plf\riscv\NMSIS\Core\Include/core_feature_timer.h ****         __IOM uint64_t MTIMERCMP_64;        /*!< Offset: 0x008 (R/W)  System Timer compare Value 64
  58:..\..\..\..\plf\riscv\NMSIS\Core\Include/core_feature_timer.h ****         struct {
  59:..\..\..\..\plf\riscv\NMSIS\Core\Include/core_feature_timer.h ****             __IOM uint32_t MTIMERCMP_lo;    /*!< Offset: 0x008 (R/W)  System Timer compare Value lo
  60:..\..\..\..\plf\riscv\NMSIS\Core\Include/core_feature_timer.h ****             __IOM uint32_t MTIMERCMP_hi;    /*!< Offset: 0x00C (R/W)  System Timer compare Value hi
  61:..\..\..\..\plf\riscv\NMSIS\Core\Include/core_feature_timer.h ****         } MTIMERCMP_32;
  62:..\..\..\..\plf\riscv\NMSIS\Core\Include/core_feature_timer.h ****     } MTIMERCMP;
  63:..\..\..\..\plf\riscv\NMSIS\Core\Include/core_feature_timer.h ****     __IOM uint32_t RESERVED0[0x3F8];        /*!< Offset: 0x010 - 0xFEC Reserved */
  64:..\..\..\..\plf\riscv\NMSIS\Core\Include/core_feature_timer.h ****     __IOM uint32_t MSFTRST;                 /*!< Offset: 0xFF0 (R/W)  System Timer Software Core Re
  65:..\..\..\..\plf\riscv\NMSIS\Core\Include/core_feature_timer.h ****     __IOM uint32_t RESERVED1;               /*!< Offset: 0xFF4 Reserved */
  66:..\..\..\..\plf\riscv\NMSIS\Core\Include/core_feature_timer.h ****     __IOM uint32_t MTIMECTL;                /*!< Offset: 0xFF8 (R/W)  System Timer Control Register
  67:..\..\..\..\plf\riscv\NMSIS\Core\Include/core_feature_timer.h ****     __IOM uint32_t MSIP;                    /*!< Offset: 0xFFC (R/W)  System Timer SW interrupt Reg
  68:..\..\..\..\plf\riscv\NMSIS\Core\Include/core_feature_timer.h **** } SysTimer_Type;
  69:..\..\..\..\plf\riscv\NMSIS\Core\Include/core_feature_timer.h **** 
  70:..\..\..\..\plf\riscv\NMSIS\Core\Include/core_feature_timer.h **** /* Timer Control / Status Register Definitions */
  71:..\..\..\..\plf\riscv\NMSIS\Core\Include/core_feature_timer.h **** #define SysTimer_MTIMECTL_TIMESTOP_Pos      0U                                          /*!< SysTic
  72:..\..\..\..\plf\riscv\NMSIS\Core\Include/core_feature_timer.h **** #define SysTimer_MTIMECTL_TIMESTOP_Msk      (1UL << SysTimer_MTIMECTL_TIMESTOP_Pos)     /*!< SysTic
  73:..\..\..\..\plf\riscv\NMSIS\Core\Include/core_feature_timer.h **** #define SysTimer_MTIMECTL_CMPCLREN_Pos      1U                                          /*!< SysTic
  74:..\..\..\..\plf\riscv\NMSIS\Core\Include/core_feature_timer.h **** #define SysTimer_MTIMECTL_CMPCLREN_Msk      (1UL << SysTimer_MTIMECTL_CMPCLREN_Pos)     /*!< SysTic
  75:..\..\..\..\plf\riscv\NMSIS\Core\Include/core_feature_timer.h **** #define SysTimer_MTIMECTL_CLKSRC_Pos        2U                                          /*!< SysTic
  76:..\..\..\..\plf\riscv\NMSIS\Core\Include/core_feature_timer.h **** #define SysTimer_MTIMECTL_CLKSRC_Msk        (1UL << SysTimer_MTIMECTL_CLKSRC_Pos)       /*!< SysTic
  77:..\..\..\..\plf\riscv\NMSIS\Core\Include/core_feature_timer.h **** 
  78:..\..\..\..\plf\riscv\NMSIS\Core\Include/core_feature_timer.h **** #define SysTimer_MSIP_MSIP_Pos              0U                                          /*!< SysTic
  79:..\..\..\..\plf\riscv\NMSIS\Core\Include/core_feature_timer.h **** #define SysTimer_MSIP_MSIP_Msk              (1UL << SysTimer_MSIP_MSIP_Pos)             /*!< SysTic
  80:..\..\..\..\plf\riscv\NMSIS\Core\Include/core_feature_timer.h **** 
  81:..\..\..\..\plf\riscv\NMSIS\Core\Include/core_feature_timer.h **** #define SysTimer_MTIMER_Msk                 (0xFFFFFFFFFFFFFFFFULL)                     /*!< SysTic
  82:..\..\..\..\plf\riscv\NMSIS\Core\Include/core_feature_timer.h **** #define SysTimer_MTIMERCMP_Msk              (0xFFFFFFFFFFFFFFFFULL)                     /*!< SysTic
  83:..\..\..\..\plf\riscv\NMSIS\Core\Include/core_feature_timer.h **** #define SysTimer_MTIMECTL_Msk               (0xFFFFFFFFUL)                              /*!< SysTic
  84:..\..\..\..\plf\riscv\NMSIS\Core\Include/core_feature_timer.h **** #define SysTimer_MSIP_Msk                   (0xFFFFFFFFUL)                              /*!< SysTic
  85:..\..\..\..\plf\riscv\NMSIS\Core\Include/core_feature_timer.h **** #define SysTimer_MSFTRST_Msk                (0xFFFFFFFFUL)                              /*!< SysTic
  86:..\..\..\..\plf\riscv\NMSIS\Core\Include/core_feature_timer.h **** 
  87:..\..\..\..\plf\riscv\NMSIS\Core\Include/core_feature_timer.h **** #define SysTimer_MSFRST_KEY                 (0x80000A5FUL)                              /*!< SysTic
  88:..\..\..\..\plf\riscv\NMSIS\Core\Include/core_feature_timer.h **** 
  89:..\..\..\..\plf\riscv\NMSIS\Core\Include/core_feature_timer.h **** #ifndef __SYSTIMER_BASEADDR
  90:..\..\..\..\plf\riscv\NMSIS\Core\Include/core_feature_timer.h **** /* Base address of SYSTIMER(__SYSTIMER_BASEADDR) should be defined in <Device.h> */
  91:..\..\..\..\plf\riscv\NMSIS\Core\Include/core_feature_timer.h **** #error "__SYSTIMER_BASEADDR is not defined, please check!"
  92:..\..\..\..\plf\riscv\NMSIS\Core\Include/core_feature_timer.h **** #endif
  93:..\..\..\..\plf\riscv\NMSIS\Core\Include/core_feature_timer.h **** /* System Timer Memory mapping of Device  */
  94:..\..\..\..\plf\riscv\NMSIS\Core\Include/core_feature_timer.h **** #define SysTimer_BASE                       __SYSTIMER_BASEADDR                         /*!< SysTic
  95:..\..\..\..\plf\riscv\NMSIS\Core\Include/core_feature_timer.h **** #define SysTimer                            ((SysTimer_Type *) SysTimer_BASE)           /*!< SysTic
  96:..\..\..\..\plf\riscv\NMSIS\Core\Include/core_feature_timer.h **** /** @} */ /* end of group NMSIS_Core_SysTimer_Registers */
  97:..\..\..\..\plf\riscv\NMSIS\Core\Include/core_feature_timer.h **** 
  98:..\..\..\..\plf\riscv\NMSIS\Core\Include/core_feature_timer.h **** /* ##################################    SysTimer function  #######################################
  99:..\..\..\..\plf\riscv\NMSIS\Core\Include/core_feature_timer.h **** /**
 100:..\..\..\..\plf\riscv\NMSIS\Core\Include/core_feature_timer.h ****  * \defgroup NMSIS_Core_SysTimer SysTimer Functions
 101:..\..\..\..\plf\riscv\NMSIS\Core\Include/core_feature_timer.h ****  * \brief    Functions that configure the Core System Timer.
 102:..\..\..\..\plf\riscv\NMSIS\Core\Include/core_feature_timer.h ****  * @{
 103:..\..\..\..\plf\riscv\NMSIS\Core\Include/core_feature_timer.h ****  */
 104:..\..\..\..\plf\riscv\NMSIS\Core\Include/core_feature_timer.h **** /**
 105:..\..\..\..\plf\riscv\NMSIS\Core\Include/core_feature_timer.h ****  * \brief  Set system timer load value
 106:..\..\..\..\plf\riscv\NMSIS\Core\Include/core_feature_timer.h ****  * \details
 107:..\..\..\..\plf\riscv\NMSIS\Core\Include/core_feature_timer.h ****  * This function set the system timer load value in MTIMER register.
 108:..\..\..\..\plf\riscv\NMSIS\Core\Include/core_feature_timer.h ****  * \param [in]  value   value to set system timer MTIMER register.
 109:..\..\..\..\plf\riscv\NMSIS\Core\Include/core_feature_timer.h ****  * \remarks
 110:..\..\..\..\plf\riscv\NMSIS\Core\Include/core_feature_timer.h ****  * - Load value is 64bits wide.
 111:..\..\..\..\plf\riscv\NMSIS\Core\Include/core_feature_timer.h ****  * - \ref SysTimer_GetLoadValue
 112:..\..\..\..\plf\riscv\NMSIS\Core\Include/core_feature_timer.h ****  */
 113:..\..\..\..\plf\riscv\NMSIS\Core\Include/core_feature_timer.h **** __STATIC_FORCEINLINE void SysTimer_SetLoadValue(uint64_t value)
 114:..\..\..\..\plf\riscv\NMSIS\Core\Include/core_feature_timer.h **** {
 115:..\..\..\..\plf\riscv\NMSIS\Core\Include/core_feature_timer.h ****     SysTimer->MTIMER = value;
 116:..\..\..\..\plf\riscv\NMSIS\Core\Include/core_feature_timer.h **** }
 117:..\..\..\..\plf\riscv\NMSIS\Core\Include/core_feature_timer.h **** 
 118:..\..\..\..\plf\riscv\NMSIS\Core\Include/core_feature_timer.h **** /**
 119:..\..\..\..\plf\riscv\NMSIS\Core\Include/core_feature_timer.h ****  * \brief  Get system timer load value
 120:..\..\..\..\plf\riscv\NMSIS\Core\Include/core_feature_timer.h ****  * \details
 121:..\..\..\..\plf\riscv\NMSIS\Core\Include/core_feature_timer.h ****  * This function get the system timer current value in MTIMER register.
 122:..\..\..\..\plf\riscv\NMSIS\Core\Include/core_feature_timer.h ****  * \return  current value(64bit) of system timer MTIMER register.
 123:..\..\..\..\plf\riscv\NMSIS\Core\Include/core_feature_timer.h ****  * \remarks
 124:..\..\..\..\plf\riscv\NMSIS\Core\Include/core_feature_timer.h ****  * - Load value is 64bits wide.
 125:..\..\..\..\plf\riscv\NMSIS\Core\Include/core_feature_timer.h ****  * - \ref SysTimer_SetLoadValue
 126:..\..\..\..\plf\riscv\NMSIS\Core\Include/core_feature_timer.h ****  */
 127:..\..\..\..\plf\riscv\NMSIS\Core\Include/core_feature_timer.h **** __STATIC_FORCEINLINE uint64_t SysTimer_GetLoadValue(void)
 128:..\..\..\..\plf\riscv\NMSIS\Core\Include/core_feature_timer.h **** {
 129:..\..\..\..\plf\riscv\NMSIS\Core\Include/core_feature_timer.h ****     return SysTimer->MTIMER;
  68              		.loc 2 129 5
  69              		.loc 2 129 20 is_stmt 0
  70 0000 B70700D1 		li	a5,-788529152
  71 0004 8843     		lw	a0,0(a5)
  72 0006 CC43     		lw	a1,4(a5)
  73              	.LVL1:
  74              	.LBE11:
  75              	.LBE10:
  73:C:/Users/stapi/OneDrive/Desktop/GD32VW553/V1_MQTT_OK/GD32VW55X_Wifi_BLE_SDK/GD32VW55x_RELEASE_V1.0.2/MSDK/plf/src/time\systime.c **** 
  74:C:/Users/stapi/OneDrive/Desktop/GD32VW553/V1_MQTT_OK/GD32VW55X_Wifi_BLE_SDK/GD32VW55x_RELEASE_V1.0.2/MSDK/plf/src/time\systime.c ****     return (uint64_t)(tmp / clock_us_factor);
  76              		.loc 1 74 5 is_stmt 1
  77              		.loc 1 74 12 is_stmt 0
  78 0008 B7070000 		lui	a5,%hi(.LANCHOR0)
  79 000c 03A60700 		lw	a2,%lo(.LANCHOR0)(a5)
  80 0010 8146     		li	a3,0
  81 0012 17030000 		tail	__udivdi3
  81      67000300 
  82              	.LVL2:
  83              		.cfi_endproc
  84              	.LFE367:
  86              		.section	.text.get_time,"ax",@progbits
  87              		.align	1
  88              		.globl	get_time
  90              	get_time:
  91              	.LFB368:
  75:C:/Users/stapi/OneDrive/Desktop/GD32VW553/V1_MQTT_OK/GD32VW55X_Wifi_BLE_SDK/GD32VW55x_RELEASE_V1.0.2/MSDK/plf/src/time\systime.c **** }
  76:C:/Users/stapi/OneDrive/Desktop/GD32VW553/V1_MQTT_OK/GD32VW55X_Wifi_BLE_SDK/GD32VW55x_RELEASE_V1.0.2/MSDK/plf/src/time\systime.c **** 
  77:C:/Users/stapi/OneDrive/Desktop/GD32VW553/V1_MQTT_OK/GD32VW55X_Wifi_BLE_SDK/GD32VW55x_RELEASE_V1.0.2/MSDK/plf/src/time\systime.c **** int get_time(enum time_origin_t origin, uint32_t *sec, uint32_t *usec)
  78:C:/Users/stapi/OneDrive/Desktop/GD32VW553/V1_MQTT_OK/GD32VW55X_Wifi_BLE_SDK/GD32VW55x_RELEASE_V1.0.2/MSDK/plf/src/time\systime.c **** {
  92              		.loc 1 78 1 is_stmt 1
  93              		.cfi_startproc
  94              	.LVL3:
  95 0000 17030000 		call	t0,__riscv_save_4
  95      E7020300 
  96              		.cfi_offset 19, -20
  97              		.cfi_offset 18, -16
  98              		.cfi_offset 9, -12
  99              		.cfi_offset 8, -8
 100              		.cfi_offset 1, -4
 101              		.cfi_def_cfa_offset 32
  79:C:/Users/stapi/OneDrive/Desktop/GD32VW553/V1_MQTT_OK/GD32VW55X_Wifi_BLE_SDK/GD32VW55x_RELEASE_V1.0.2/MSDK/plf/src/time\systime.c ****     uint32_t msb, lsb, _sec, _usec, tmp, fact;
 102              		.loc 1 79 5
  80:C:/Users/stapi/OneDrive/Desktop/GD32VW553/V1_MQTT_OK/GD32VW55X_Wifi_BLE_SDK/GD32VW55x_RELEASE_V1.0.2/MSDK/plf/src/time\systime.c ****     uint64_t ts;
 103              		.loc 1 80 5
  81:C:/Users/stapi/OneDrive/Desktop/GD32VW553/V1_MQTT_OK/GD32VW55X_Wifi_BLE_SDK/GD32VW55x_RELEASE_V1.0.2/MSDK/plf/src/time\systime.c **** 
  82:C:/Users/stapi/OneDrive/Desktop/GD32VW553/V1_MQTT_OK/GD32VW55X_Wifi_BLE_SDK/GD32VW55x_RELEASE_V1.0.2/MSDK/plf/src/time\systime.c ****     if (origin > SINCE_EPOCH)
 104              		.loc 1 82 5
 105              		.loc 1 82 8 is_stmt 0
 106 0008 8549     		li	s3,1
 107 000a 63E5A908 		bgtu	a0,s3,.L10
 108 000e 2A84     		mv	s0,a0
 109 0010 2E89     		mv	s2,a1
 110 0012 B284     		mv	s1,a2
  83:C:/Users/stapi/OneDrive/Desktop/GD32VW553/V1_MQTT_OK/GD32VW55X_Wifi_BLE_SDK/GD32VW55x_RELEASE_V1.0.2/MSDK/plf/src/time\systime.c ****         return -1;
  84:C:/Users/stapi/OneDrive/Desktop/GD32VW553/V1_MQTT_OK/GD32VW55X_Wifi_BLE_SDK/GD32VW55x_RELEASE_V1.0.2/MSDK/plf/src/time\systime.c **** 
  85:C:/Users/stapi/OneDrive/Desktop/GD32VW553/V1_MQTT_OK/GD32VW55X_Wifi_BLE_SDK/GD32VW55x_RELEASE_V1.0.2/MSDK/plf/src/time\systime.c ****     ts = get_sys_local_time_us();
 111              		.loc 1 85 5 is_stmt 1
 112              		.loc 1 85 10 is_stmt 0
 113 0014 97000000 		call	get_sys_local_time_us
 113      E7800000 
 114              	.LVL4:
  86:C:/Users/stapi/OneDrive/Desktop/GD32VW553/V1_MQTT_OK/GD32VW55X_Wifi_BLE_SDK/GD32VW55x_RELEASE_V1.0.2/MSDK/plf/src/time\systime.c ****     msb = (ts >> 32) & 0xffffffff;
 115              		.loc 1 86 5 is_stmt 1
  87:C:/Users/stapi/OneDrive/Desktop/GD32VW553/V1_MQTT_OK/GD32VW55X_Wifi_BLE_SDK/GD32VW55x_RELEASE_V1.0.2/MSDK/plf/src/time\systime.c ****     lsb = ts & 0xffffffff;
 116              		.loc 1 87 5
  88:C:/Users/stapi/OneDrive/Desktop/GD32VW553/V1_MQTT_OK/GD32VW55X_Wifi_BLE_SDK/GD32VW55x_RELEASE_V1.0.2/MSDK/plf/src/time\systime.c **** 
  89:C:/Users/stapi/OneDrive/Desktop/GD32VW553/V1_MQTT_OK/GD32VW55X_Wifi_BLE_SDK/GD32VW55x_RELEASE_V1.0.2/MSDK/plf/src/time\systime.c ****     /* Replace uint64_t / 1000000 (uint48_t in practice)
  90:C:/Users/stapi/OneDrive/Desktop/GD32VW553/V1_MQTT_OK/GD32VW55X_Wifi_BLE_SDK/GD32VW55x_RELEASE_V1.0.2/MSDK/plf/src/time\systime.c ****        by 3 ~fmul (mul + shift).
  91:C:/Users/stapi/OneDrive/Desktop/GD32VW553/V1_MQTT_OK/GD32VW55X_Wifi_BLE_SDK/GD32VW55x_RELEASE_V1.0.2/MSDK/plf/src/time\systime.c ****        Yes this is more complicated but also 20 times faster on cpu without div
  92:C:/Users/stapi/OneDrive/Desktop/GD32VW553/V1_MQTT_OK/GD32VW55X_Wifi_BLE_SDK/GD32VW55x_RELEASE_V1.0.2/MSDK/plf/src/time\systime.c ****        instruction.
  93:C:/Users/stapi/OneDrive/Desktop/GD32VW553/V1_MQTT_OK/GD32VW55X_Wifi_BLE_SDK/GD32VW55x_RELEASE_V1.0.2/MSDK/plf/src/time\systime.c ****        48bits time value is divided in 4 parts 0xAABBCCCCDDDD
  94:C:/Users/stapi/OneDrive/Desktop/GD32VW553/V1_MQTT_OK/GD32VW55X_Wifi_BLE_SDK/GD32VW55x_RELEASE_V1.0.2/MSDK/plf/src/time\systime.c ****        First two parts (A ,B) are only 8bits to allow more bits in the factor
  95:C:/Users/stapi/OneDrive/Desktop/GD32VW553/V1_MQTT_OK/GD32VW55X_Wifi_BLE_SDK/GD32VW55x_RELEASE_V1.0.2/MSDK/plf/src/time\systime.c ****        (merging this two parts with a 16 bits factor doesn't provide enough precision).
  96:C:/Users/stapi/OneDrive/Desktop/GD32VW553/V1_MQTT_OK/GD32VW55X_Wifi_BLE_SDK/GD32VW55x_RELEASE_V1.0.2/MSDK/plf/src/time\systime.c ****        For the third part (C) a factor on 16bits is enough so part is also 16bits.
  97:C:/Users/stapi/OneDrive/Desktop/GD32VW553/V1_MQTT_OK/GD32VW55X_Wifi_BLE_SDK/GD32VW55x_RELEASE_V1.0.2/MSDK/plf/src/time\systime.c ****        Fourth part (D) is always < 1000000 so no need to divide it.
  98:C:/Users/stapi/OneDrive/Desktop/GD32VW553/V1_MQTT_OK/GD32VW55X_Wifi_BLE_SDK/GD32VW55x_RELEASE_V1.0.2/MSDK/plf/src/time\systime.c ****        factor = 0x8637bd = 1 / 1000000 in Q43 = ((1<<43) / 1000000) (truncated on 24bits)
  99:C:/Users/stapi/OneDrive/Desktop/GD32VW553/V1_MQTT_OK/GD32VW55X_Wifi_BLE_SDK/GD32VW55x_RELEASE_V1.0.2/MSDK/plf/src/time\systime.c ****      */
 100:C:/Users/stapi/OneDrive/Desktop/GD32VW553/V1_MQTT_OK/GD32VW55X_Wifi_BLE_SDK/GD32VW55x_RELEASE_V1.0.2/MSDK/plf/src/time\systime.c ****     fact = 0x8637bd;
 117              		.loc 1 100 5
 101:C:/Users/stapi/OneDrive/Desktop/GD32VW553/V1_MQTT_OK/GD32VW55X_Wifi_BLE_SDK/GD32VW55x_RELEASE_V1.0.2/MSDK/plf/src/time\systime.c ****     tmp = (msb >> 8) * fact;
 118              		.loc 1 101 5
 102:C:/Users/stapi/OneDrive/Desktop/GD32VW553/V1_MQTT_OK/GD32VW55X_Wifi_BLE_SDK/GD32VW55x_RELEASE_V1.0.2/MSDK/plf/src/time\systime.c ****     _sec = (tmp >> 3);
 119              		.loc 1 102 5
 101:C:/Users/stapi/OneDrive/Desktop/GD32VW553/V1_MQTT_OK/GD32VW55X_Wifi_BLE_SDK/GD32VW55x_RELEASE_V1.0.2/MSDK/plf/src/time\systime.c ****     tmp = (msb >> 8) * fact;
 120              		.loc 1 101 9 is_stmt 0
 121 001c B7378600 		li	a5,8794112
 122 0020 9386D77B 		addi	a3,a5,1981
 101:C:/Users/stapi/OneDrive/Desktop/GD32VW553/V1_MQTT_OK/GD32VW55X_Wifi_BLE_SDK/GD32VW55x_RELEASE_V1.0.2/MSDK/plf/src/time\systime.c ****     tmp = (msb >> 8) * fact;
 123              		.loc 1 101 16
 124 0024 13D78500 		srli	a4,a1,8
 103:C:/Users/stapi/OneDrive/Desktop/GD32VW553/V1_MQTT_OK/GD32VW55X_Wifi_BLE_SDK/GD32VW55x_RELEASE_V1.0.2/MSDK/plf/src/time\systime.c ****     tmp = (msb & 0xff) * fact;
 125              		.loc 1 103 16
 126 0028 93F7F50F 		andi	a5,a1,255
 101:C:/Users/stapi/OneDrive/Desktop/GD32VW553/V1_MQTT_OK/GD32VW55X_Wifi_BLE_SDK/GD32VW55x_RELEASE_V1.0.2/MSDK/plf/src/time\systime.c ****     tmp = (msb >> 8) * fact;
 127              		.loc 1 101 9
 128 002c 3307D702 		mul	a4,a4,a3
 129              		.loc 1 103 9
 130 0030 B387D702 		mul	a5,a5,a3
 102:C:/Users/stapi/OneDrive/Desktop/GD32VW553/V1_MQTT_OK/GD32VW55X_Wifi_BLE_SDK/GD32VW55x_RELEASE_V1.0.2/MSDK/plf/src/time\systime.c ****     _sec = (tmp >> 3);
 131              		.loc 1 102 10
 132 0034 0D83     		srli	a4,a4,3
 133              	.LVL5:
 134              		.loc 1 103 5 is_stmt 1
 104:C:/Users/stapi/OneDrive/Desktop/GD32VW553/V1_MQTT_OK/GD32VW55X_Wifi_BLE_SDK/GD32VW55x_RELEASE_V1.0.2/MSDK/plf/src/time\systime.c ****     _sec += (tmp >> 11);
 135              		.loc 1 104 5
 105:C:/Users/stapi/OneDrive/Desktop/GD32VW553/V1_MQTT_OK/GD32VW55X_Wifi_BLE_SDK/GD32VW55x_RELEASE_V1.0.2/MSDK/plf/src/time\systime.c ****     fact >>= 8;
 106:C:/Users/stapi/OneDrive/Desktop/GD32VW553/V1_MQTT_OK/GD32VW55X_Wifi_BLE_SDK/GD32VW55x_RELEASE_V1.0.2/MSDK/plf/src/time\systime.c ****     tmp = (lsb >> 16) * fact;
 136              		.loc 1 106 9 is_stmt 0
 137 0036 A166     		li	a3,32768
 138 0038 93867663 		addi	a3,a3,1591
 104:C:/Users/stapi/OneDrive/Desktop/GD32VW553/V1_MQTT_OK/GD32VW55X_Wifi_BLE_SDK/GD32VW55x_RELEASE_V1.0.2/MSDK/plf/src/time\systime.c ****     _sec += (tmp >> 11);
 139              		.loc 1 104 18
 140 003c AD83     		srli	a5,a5,11
 104:C:/Users/stapi/OneDrive/Desktop/GD32VW553/V1_MQTT_OK/GD32VW55X_Wifi_BLE_SDK/GD32VW55x_RELEASE_V1.0.2/MSDK/plf/src/time\systime.c ****     _sec += (tmp >> 11);
 141              		.loc 1 104 10
 142 003e 3E97     		add	a4,a5,a4
 143              	.LVL6:
 105:C:/Users/stapi/OneDrive/Desktop/GD32VW553/V1_MQTT_OK/GD32VW55X_Wifi_BLE_SDK/GD32VW55x_RELEASE_V1.0.2/MSDK/plf/src/time\systime.c ****     fact >>= 8;
 144              		.loc 1 105 5 is_stmt 1
 145              		.loc 1 106 5
 107:C:/Users/stapi/OneDrive/Desktop/GD32VW553/V1_MQTT_OK/GD32VW55X_Wifi_BLE_SDK/GD32VW55x_RELEASE_V1.0.2/MSDK/plf/src/time\systime.c ****     _sec += (tmp >> 19);
 146              		.loc 1 107 5
 106:C:/Users/stapi/OneDrive/Desktop/GD32VW553/V1_MQTT_OK/GD32VW55X_Wifi_BLE_SDK/GD32VW55x_RELEASE_V1.0.2/MSDK/plf/src/time\systime.c ****     _sec += (tmp >> 19);
 147              		.loc 1 106 16 is_stmt 0
 148 0040 93570501 		srli	a5,a0,16
 106:C:/Users/stapi/OneDrive/Desktop/GD32VW553/V1_MQTT_OK/GD32VW55X_Wifi_BLE_SDK/GD32VW55x_RELEASE_V1.0.2/MSDK/plf/src/time\systime.c ****     _sec += (tmp >> 19);
 149              		.loc 1 106 9
 150 0044 B387D702 		mul	a5,a5,a3
 108:C:/Users/stapi/OneDrive/Desktop/GD32VW553/V1_MQTT_OK/GD32VW55X_Wifi_BLE_SDK/GD32VW55x_RELEASE_V1.0.2/MSDK/plf/src/time\systime.c ****     _usec = lsb - (_sec * 1000000);
 151              		.loc 1 108 11
 152 0048 B7460F00 		li	a3,999424
 153 004c 93860624 		addi	a3,a3,576
 107:C:/Users/stapi/OneDrive/Desktop/GD32VW553/V1_MQTT_OK/GD32VW55X_Wifi_BLE_SDK/GD32VW55x_RELEASE_V1.0.2/MSDK/plf/src/time\systime.c ****     _sec += (tmp >> 19);
 154              		.loc 1 107 18
 155 0050 CD83     		srli	a5,a5,19
 107:C:/Users/stapi/OneDrive/Desktop/GD32VW553/V1_MQTT_OK/GD32VW55X_Wifi_BLE_SDK/GD32VW55x_RELEASE_V1.0.2/MSDK/plf/src/time\systime.c ****     _sec += (tmp >> 19);
 156              		.loc 1 107 10
 157 0052 BA97     		add	a5,a5,a4
 158              	.LVL7:
 159              		.loc 1 108 5 is_stmt 1
 160              		.loc 1 108 11 is_stmt 0
 161 0054 2A87     		mv	a4,a0
 162 0056 7F97D7C6 		msubr32	a4, a5, a3
 163              	.LVL8:
 109:C:/Users/stapi/OneDrive/Desktop/GD32VW553/V1_MQTT_OK/GD32VW55X_Wifi_BLE_SDK/GD32VW55x_RELEASE_V1.0.2/MSDK/plf/src/time\systime.c **** 
 110:C:/Users/stapi/OneDrive/Desktop/GD32VW553/V1_MQTT_OK/GD32VW55X_Wifi_BLE_SDK/GD32VW55x_RELEASE_V1.0.2/MSDK/plf/src/time\systime.c ****     if (origin == SINCE_EPOCH)
 164              		.loc 1 110 5 is_stmt 1
 165              		.loc 1 110 8 is_stmt 0
 166 005a 631C3401 		bne	s0,s3,.L7
 111:C:/Users/stapi/OneDrive/Desktop/GD32VW553/V1_MQTT_OK/GD32VW55X_Wifi_BLE_SDK/GD32VW55x_RELEASE_V1.0.2/MSDK/plf/src/time\systime.c ****     {
 112:C:/Users/stapi/OneDrive/Desktop/GD32VW553/V1_MQTT_OK/GD32VW55X_Wifi_BLE_SDK/GD32VW55x_RELEASE_V1.0.2/MSDK/plf/src/time\systime.c ****         _sec += epoch_sec;
 167              		.loc 1 112 9 is_stmt 1
 168              		.loc 1 112 14 is_stmt 0
 169 005e B7060000 		lui	a3,%hi(.LANCHOR1)
 170 0062 83A60600 		lw	a3,%lo(.LANCHOR1)(a3)
 171 0066 B697     		add	a5,a5,a3
 172              	.LVL9:
 113:C:/Users/stapi/OneDrive/Desktop/GD32VW553/V1_MQTT_OK/GD32VW55X_Wifi_BLE_SDK/GD32VW55x_RELEASE_V1.0.2/MSDK/plf/src/time\systime.c ****         _usec += epoch_usec;
 173              		.loc 1 113 9 is_stmt 1
 174              		.loc 1 113 15 is_stmt 0
 175 0068 B7060000 		lui	a3,%hi(.LANCHOR2)
 176 006c 83A60600 		lw	a3,%lo(.LANCHOR2)(a3)
 177 0070 3697     		add	a4,a4,a3
 178              	.LVL10:
 179              	.L7:
 114:C:/Users/stapi/OneDrive/Desktop/GD32VW553/V1_MQTT_OK/GD32VW55X_Wifi_BLE_SDK/GD32VW55x_RELEASE_V1.0.2/MSDK/plf/src/time\systime.c **** 
 115:C:/Users/stapi/OneDrive/Desktop/GD32VW553/V1_MQTT_OK/GD32VW55X_Wifi_BLE_SDK/GD32VW55x_RELEASE_V1.0.2/MSDK/plf/src/time\systime.c ****     }
 116:C:/Users/stapi/OneDrive/Desktop/GD32VW553/V1_MQTT_OK/GD32VW55X_Wifi_BLE_SDK/GD32VW55x_RELEASE_V1.0.2/MSDK/plf/src/time\systime.c **** 
 117:C:/Users/stapi/OneDrive/Desktop/GD32VW553/V1_MQTT_OK/GD32VW55X_Wifi_BLE_SDK/GD32VW55x_RELEASE_V1.0.2/MSDK/plf/src/time\systime.c ****     /* Previous computation ensure that loop won't run more than 2 times */
 118:C:/Users/stapi/OneDrive/Desktop/GD32VW553/V1_MQTT_OK/GD32VW55X_Wifi_BLE_SDK/GD32VW55x_RELEASE_V1.0.2/MSDK/plf/src/time\systime.c ****     while (_usec > 1000000)
 180              		.loc 1 118 11
 181 0072 B7460F00 		li	a3,999424
 182 0076 93860624 		addi	a3,a3,576
 183              	.L8:
 184              		.loc 1 118 11 is_stmt 1
 185 007a 63EAE600 		bgtu	a4,a3,.L9
 119:C:/Users/stapi/OneDrive/Desktop/GD32VW553/V1_MQTT_OK/GD32VW55X_Wifi_BLE_SDK/GD32VW55x_RELEASE_V1.0.2/MSDK/plf/src/time\systime.c ****     {
 120:C:/Users/stapi/OneDrive/Desktop/GD32VW553/V1_MQTT_OK/GD32VW55X_Wifi_BLE_SDK/GD32VW55x_RELEASE_V1.0.2/MSDK/plf/src/time\systime.c ****         _usec -= 1000000;
 121:C:/Users/stapi/OneDrive/Desktop/GD32VW553/V1_MQTT_OK/GD32VW55X_Wifi_BLE_SDK/GD32VW55x_RELEASE_V1.0.2/MSDK/plf/src/time\systime.c ****         _sec ++;
 122:C:/Users/stapi/OneDrive/Desktop/GD32VW553/V1_MQTT_OK/GD32VW55X_Wifi_BLE_SDK/GD32VW55x_RELEASE_V1.0.2/MSDK/plf/src/time\systime.c ****     }
 123:C:/Users/stapi/OneDrive/Desktop/GD32VW553/V1_MQTT_OK/GD32VW55X_Wifi_BLE_SDK/GD32VW55x_RELEASE_V1.0.2/MSDK/plf/src/time\systime.c **** 
 124:C:/Users/stapi/OneDrive/Desktop/GD32VW553/V1_MQTT_OK/GD32VW55X_Wifi_BLE_SDK/GD32VW55x_RELEASE_V1.0.2/MSDK/plf/src/time\systime.c ****     *sec = _sec;
 186              		.loc 1 124 5
 187              		.loc 1 124 10 is_stmt 0
 188 007e 2320F900 		sw	a5,0(s2)
 125:C:/Users/stapi/OneDrive/Desktop/GD32VW553/V1_MQTT_OK/GD32VW55X_Wifi_BLE_SDK/GD32VW55x_RELEASE_V1.0.2/MSDK/plf/src/time\systime.c ****     *usec = _usec;
 189              		.loc 1 125 5 is_stmt 1
 190              		.loc 1 125 11 is_stmt 0
 191 0082 98C0     		sw	a4,0(s1)
 126:C:/Users/stapi/OneDrive/Desktop/GD32VW553/V1_MQTT_OK/GD32VW55X_Wifi_BLE_SDK/GD32VW55x_RELEASE_V1.0.2/MSDK/plf/src/time\systime.c ****     return 0;
 192              		.loc 1 126 5 is_stmt 1
 193              		.loc 1 126 12 is_stmt 0
 194 0084 0145     		li	a0,0
 195              	.LVL11:
 196              	.L5:
 127:C:/Users/stapi/OneDrive/Desktop/GD32VW553/V1_MQTT_OK/GD32VW55X_Wifi_BLE_SDK/GD32VW55x_RELEASE_V1.0.2/MSDK/plf/src/time\systime.c **** }
 197              		.loc 1 127 1
 198 0086 17030000 		tail	__riscv_restore_4
 198      67000300 
 199              		.cfi_remember_state
 200              		.cfi_restore 19
 201              		.cfi_restore 18
 202              		.cfi_restore 9
 203              		.cfi_restore 8
 204              		.cfi_restore 1
 205              		.cfi_def_cfa_offset 0
 206              	.LVL12:
 207              	.L9:
 208              		.cfi_restore_state
 120:C:/Users/stapi/OneDrive/Desktop/GD32VW553/V1_MQTT_OK/GD32VW55X_Wifi_BLE_SDK/GD32VW55x_RELEASE_V1.0.2/MSDK/plf/src/time\systime.c ****         _sec ++;
 209              		.loc 1 120 9 is_stmt 1
 120:C:/Users/stapi/OneDrive/Desktop/GD32VW553/V1_MQTT_OK/GD32VW55X_Wifi_BLE_SDK/GD32VW55x_RELEASE_V1.0.2/MSDK/plf/src/time\systime.c ****         _sec ++;
 210              		.loc 1 120 15 is_stmt 0
 211 008e 158F     		sub	a4,a4,a3
 212              	.LVL13:
 121:C:/Users/stapi/OneDrive/Desktop/GD32VW553/V1_MQTT_OK/GD32VW55X_Wifi_BLE_SDK/GD32VW55x_RELEASE_V1.0.2/MSDK/plf/src/time\systime.c ****     }
 213              		.loc 1 121 9 is_stmt 1
 121:C:/Users/stapi/OneDrive/Desktop/GD32VW553/V1_MQTT_OK/GD32VW55X_Wifi_BLE_SDK/GD32VW55x_RELEASE_V1.0.2/MSDK/plf/src/time\systime.c ****     }
 214              		.loc 1 121 14 is_stmt 0
 215 0090 8507     		addi	a5,a5,1
 216              	.LVL14:
 217 0092 E5B7     		j	.L8
 218              	.LVL15:
 219              	.L10:
  83:C:/Users/stapi/OneDrive/Desktop/GD32VW553/V1_MQTT_OK/GD32VW55X_Wifi_BLE_SDK/GD32VW55x_RELEASE_V1.0.2/MSDK/plf/src/time\systime.c **** 
 220              		.loc 1 83 16
 221 0094 7D55     		li	a0,-1
 222              	.LVL16:
 223 0096 C5BF     		j	.L5
 224              		.cfi_endproc
 225              	.LFE368:
 227              		.section	.text.get_time_us,"ax",@progbits
 228              		.align	1
 229              		.globl	get_time_us
 231              	get_time_us:
 232              	.LFB369:
 128:C:/Users/stapi/OneDrive/Desktop/GD32VW553/V1_MQTT_OK/GD32VW55X_Wifi_BLE_SDK/GD32VW55x_RELEASE_V1.0.2/MSDK/plf/src/time\systime.c **** 
 129:C:/Users/stapi/OneDrive/Desktop/GD32VW553/V1_MQTT_OK/GD32VW55X_Wifi_BLE_SDK/GD32VW55x_RELEASE_V1.0.2/MSDK/plf/src/time\systime.c **** int get_time_us(enum time_origin_t origin, uint64_t *usec)
 130:C:/Users/stapi/OneDrive/Desktop/GD32VW553/V1_MQTT_OK/GD32VW55X_Wifi_BLE_SDK/GD32VW55x_RELEASE_V1.0.2/MSDK/plf/src/time\systime.c **** {
 233              		.loc 1 130 1 is_stmt 1
 234              		.cfi_startproc
 235              	.LVL17:
 236 0000 17030000 		call	t0,__riscv_save_3
 236      E7020300 
 237              		.cfi_offset 18, -16
 238              		.cfi_offset 9, -12
 239              		.cfi_offset 8, -8
 240              		.cfi_offset 1, -4
 241              		.cfi_def_cfa_offset 16
 131:C:/Users/stapi/OneDrive/Desktop/GD32VW553/V1_MQTT_OK/GD32VW55X_Wifi_BLE_SDK/GD32VW55x_RELEASE_V1.0.2/MSDK/plf/src/time\systime.c ****     uint64_t val;
 242              		.loc 1 131 5
 132:C:/Users/stapi/OneDrive/Desktop/GD32VW553/V1_MQTT_OK/GD32VW55X_Wifi_BLE_SDK/GD32VW55x_RELEASE_V1.0.2/MSDK/plf/src/time\systime.c **** 
 133:C:/Users/stapi/OneDrive/Desktop/GD32VW553/V1_MQTT_OK/GD32VW55X_Wifi_BLE_SDK/GD32VW55x_RELEASE_V1.0.2/MSDK/plf/src/time\systime.c ****     if (origin > SINCE_EPOCH)
 243              		.loc 1 133 5
 244              		.loc 1 133 8 is_stmt 0
 245 0008 0549     		li	s2,1
 246 000a 6368A904 		bgtu	a0,s2,.L15
 247 000e AA84     		mv	s1,a0
 248 0010 2E84     		mv	s0,a1
 134:C:/Users/stapi/OneDrive/Desktop/GD32VW553/V1_MQTT_OK/GD32VW55X_Wifi_BLE_SDK/GD32VW55x_RELEASE_V1.0.2/MSDK/plf/src/time\systime.c ****         return -1;
 135:C:/Users/stapi/OneDrive/Desktop/GD32VW553/V1_MQTT_OK/GD32VW55X_Wifi_BLE_SDK/GD32VW55x_RELEASE_V1.0.2/MSDK/plf/src/time\systime.c **** 
 136:C:/Users/stapi/OneDrive/Desktop/GD32VW553/V1_MQTT_OK/GD32VW55X_Wifi_BLE_SDK/GD32VW55x_RELEASE_V1.0.2/MSDK/plf/src/time\systime.c ****     val = get_sys_local_time_us();
 249              		.loc 1 136 5 is_stmt 1
 250              		.loc 1 136 11 is_stmt 0
 251 0012 97000000 		call	get_sys_local_time_us
 251      E7800000 
 252              	.LVL18:
 137:C:/Users/stapi/OneDrive/Desktop/GD32VW553/V1_MQTT_OK/GD32VW55X_Wifi_BLE_SDK/GD32VW55x_RELEASE_V1.0.2/MSDK/plf/src/time\systime.c **** 
 138:C:/Users/stapi/OneDrive/Desktop/GD32VW553/V1_MQTT_OK/GD32VW55X_Wifi_BLE_SDK/GD32VW55x_RELEASE_V1.0.2/MSDK/plf/src/time\systime.c ****     if (origin == SINCE_EPOCH)
 253              		.loc 1 138 5 is_stmt 1
 254              		.loc 1 138 8 is_stmt 0
 255 001a 63992403 		bne	s1,s2,.L14
 139:C:/Users/stapi/OneDrive/Desktop/GD32VW553/V1_MQTT_OK/GD32VW55X_Wifi_BLE_SDK/GD32VW55x_RELEASE_V1.0.2/MSDK/plf/src/time\systime.c ****     {
 140:C:/Users/stapi/OneDrive/Desktop/GD32VW553/V1_MQTT_OK/GD32VW55X_Wifi_BLE_SDK/GD32VW55x_RELEASE_V1.0.2/MSDK/plf/src/time\systime.c ****         val += (uint64_t)epoch_usec;
 256              		.loc 1 140 9 is_stmt 1
 257              	.LVL19:
 141:C:/Users/stapi/OneDrive/Desktop/GD32VW553/V1_MQTT_OK/GD32VW55X_Wifi_BLE_SDK/GD32VW55x_RELEASE_V1.0.2/MSDK/plf/src/time\systime.c ****         val += (uint64_t)(epoch_sec * 1000000);
 258              		.loc 1 141 9
 259              		.loc 1 141 37 is_stmt 0
 260 001e B7070000 		lui	a5,%hi(.LANCHOR1)
 261 0022 03A70700 		lw	a4,%lo(.LANCHOR1)(a5)
 262 0026 B7470F00 		li	a5,999424
 263 002a 93870724 		addi	a5,a5,576
 264 002e 3307F702 		mul	a4,a4,a5
 140:C:/Users/stapi/OneDrive/Desktop/GD32VW553/V1_MQTT_OK/GD32VW55X_Wifi_BLE_SDK/GD32VW55x_RELEASE_V1.0.2/MSDK/plf/src/time\systime.c ****         val += (uint64_t)(epoch_sec * 1000000);
 265              		.loc 1 140 16
 266 0032 B7070000 		lui	a5,%hi(.LANCHOR2)
 267 0036 83A70700 		lw	a5,%lo(.LANCHOR2)(a5)
 268              		.loc 1 141 13
 269 003a BA97     		add	a5,a4,a5
 270 003c 33B7E700 		sltu	a4,a5,a4
 271 0040 AA97     		add	a5,a0,a5
 272 0042 B3B6A700 		sltu	a3,a5,a0
 273 0046 BA95     		add	a1,a1,a4
 274              	.LVL20:
 275 0048 3E85     		mv	a0,a5
 276 004a B695     		add	a1,a3,a1
 277              	.LVL21:
 278              	.L14:
 142:C:/Users/stapi/OneDrive/Desktop/GD32VW553/V1_MQTT_OK/GD32VW55X_Wifi_BLE_SDK/GD32VW55x_RELEASE_V1.0.2/MSDK/plf/src/time\systime.c ****     }
 143:C:/Users/stapi/OneDrive/Desktop/GD32VW553/V1_MQTT_OK/GD32VW55X_Wifi_BLE_SDK/GD32VW55x_RELEASE_V1.0.2/MSDK/plf/src/time\systime.c **** 
 144:C:/Users/stapi/OneDrive/Desktop/GD32VW553/V1_MQTT_OK/GD32VW55X_Wifi_BLE_SDK/GD32VW55x_RELEASE_V1.0.2/MSDK/plf/src/time\systime.c ****     *usec = val;
 279              		.loc 1 144 5 is_stmt 1
 280              		.loc 1 144 11 is_stmt 0
 281 004c 08C0     		sw	a0,0(s0)
 282 004e 4CC0     		sw	a1,4(s0)
 145:C:/Users/stapi/OneDrive/Desktop/GD32VW553/V1_MQTT_OK/GD32VW55X_Wifi_BLE_SDK/GD32VW55x_RELEASE_V1.0.2/MSDK/plf/src/time\systime.c ****     return 0;
 283              		.loc 1 145 5 is_stmt 1
 284              		.loc 1 145 12 is_stmt 0
 285 0050 0145     		li	a0,0
 286              	.LVL22:
 287              	.L12:
 146:C:/Users/stapi/OneDrive/Desktop/GD32VW553/V1_MQTT_OK/GD32VW55X_Wifi_BLE_SDK/GD32VW55x_RELEASE_V1.0.2/MSDK/plf/src/time\systime.c **** }
 288              		.loc 1 146 1
 289 0052 17030000 		tail	__riscv_restore_3
 289      67000300 
 290              		.cfi_remember_state
 291              		.cfi_restore 18
 292              		.cfi_restore 9
 293              		.cfi_restore 8
 294              		.cfi_restore 1
 295              		.cfi_def_cfa_offset 0
 296              	.LVL23:
 297              	.L15:
 298              		.cfi_restore_state
 134:C:/Users/stapi/OneDrive/Desktop/GD32VW553/V1_MQTT_OK/GD32VW55X_Wifi_BLE_SDK/GD32VW55x_RELEASE_V1.0.2/MSDK/plf/src/time\systime.c **** 
 299              		.loc 1 134 16
 300 005a 7D55     		li	a0,-1
 301              	.LVL24:
 302 005c DDBF     		j	.L12
 303              		.cfi_endproc
 304              	.LFE369:
 306              		.section	.text.systick_udelay,"ax",@progbits
 307              		.align	1
 308              		.globl	systick_udelay
 310              	systick_udelay:
 311              	.LFB370:
 147:C:/Users/stapi/OneDrive/Desktop/GD32VW553/V1_MQTT_OK/GD32VW55X_Wifi_BLE_SDK/GD32VW55x_RELEASE_V1.0.2/MSDK/plf/src/time\systime.c **** 
 148:C:/Users/stapi/OneDrive/Desktop/GD32VW553/V1_MQTT_OK/GD32VW55X_Wifi_BLE_SDK/GD32VW55x_RELEASE_V1.0.2/MSDK/plf/src/time\systime.c **** /**
 149:C:/Users/stapi/OneDrive/Desktop/GD32VW553/V1_MQTT_OK/GD32VW55X_Wifi_BLE_SDK/GD32VW55x_RELEASE_V1.0.2/MSDK/plf/src/time\systime.c ****  ****************************************************************************************
 150:C:/Users/stapi/OneDrive/Desktop/GD32VW553/V1_MQTT_OK/GD32VW55X_Wifi_BLE_SDK/GD32VW55x_RELEASE_V1.0.2/MSDK/plf/src/time\systime.c ****  * @brief delay a time in microseconds
 151:C:/Users/stapi/OneDrive/Desktop/GD32VW553/V1_MQTT_OK/GD32VW55X_Wifi_BLE_SDK/GD32VW55x_RELEASE_V1.0.2/MSDK/plf/src/time\systime.c ****  *
 152:C:/Users/stapi/OneDrive/Desktop/GD32VW553/V1_MQTT_OK/GD32VW55X_Wifi_BLE_SDK/GD32VW55x_RELEASE_V1.0.2/MSDK/plf/src/time\systime.c ****  * @param[in]  nus: count in microseconds
 153:C:/Users/stapi/OneDrive/Desktop/GD32VW553/V1_MQTT_OK/GD32VW55X_Wifi_BLE_SDK/GD32VW55x_RELEASE_V1.0.2/MSDK/plf/src/time\systime.c ****  ****************************************************************************************
 154:C:/Users/stapi/OneDrive/Desktop/GD32VW553/V1_MQTT_OK/GD32VW55X_Wifi_BLE_SDK/GD32VW55x_RELEASE_V1.0.2/MSDK/plf/src/time\systime.c ****  */
 155:C:/Users/stapi/OneDrive/Desktop/GD32VW553/V1_MQTT_OK/GD32VW55X_Wifi_BLE_SDK/GD32VW55x_RELEASE_V1.0.2/MSDK/plf/src/time\systime.c **** void systick_udelay(uint32_t nus)
 156:C:/Users/stapi/OneDrive/Desktop/GD32VW553/V1_MQTT_OK/GD32VW55X_Wifi_BLE_SDK/GD32VW55x_RELEASE_V1.0.2/MSDK/plf/src/time\systime.c **** {
 312              		.loc 1 156 1 is_stmt 1
 313              		.cfi_startproc
 314              	.LVL25:
 157:C:/Users/stapi/OneDrive/Desktop/GD32VW553/V1_MQTT_OK/GD32VW55X_Wifi_BLE_SDK/GD32VW55x_RELEASE_V1.0.2/MSDK/plf/src/time\systime.c ****     uint64_t start_mtime, delta_mtime;
 315              		.loc 1 157 5
 158:C:/Users/stapi/OneDrive/Desktop/GD32VW553/V1_MQTT_OK/GD32VW55X_Wifi_BLE_SDK/GD32VW55x_RELEASE_V1.0.2/MSDK/plf/src/time\systime.c ****     uint64_t tmp = SysTimer_GetLoadValue(); /* get current timer value */
 316              		.loc 1 158 5
 317              	.LBB12:
 318              	.LBB13:
 319              		.loc 2 129 5
 320              		.loc 2 129 20 is_stmt 0
 321 0000 B70700D1 		li	a5,-788529152
 322 0004 9843     		lw	a4,0(a5)
 323 0006 DC43     		lw	a5,4(a5)
 324              	.LVL26:
 325              	.LBE13:
 326              	.LBE12:
 327              	.LBB14:
 328              	.LBB15:
 329 0008 370600D1 		li	a2,-788529152
 330              	.LBE15:
 331              	.LBE14:
 159:C:/Users/stapi/OneDrive/Desktop/GD32VW553/V1_MQTT_OK/GD32VW55X_Wifi_BLE_SDK/GD32VW55x_RELEASE_V1.0.2/MSDK/plf/src/time\systime.c **** 
 160:C:/Users/stapi/OneDrive/Desktop/GD32VW553/V1_MQTT_OK/GD32VW55X_Wifi_BLE_SDK/GD32VW55x_RELEASE_V1.0.2/MSDK/plf/src/time\systime.c ****     do {
 161:C:/Users/stapi/OneDrive/Desktop/GD32VW553/V1_MQTT_OK/GD32VW55X_Wifi_BLE_SDK/GD32VW55x_RELEASE_V1.0.2/MSDK/plf/src/time\systime.c ****         start_mtime = SysTimer_GetLoadValue();
 162:C:/Users/stapi/OneDrive/Desktop/GD32VW553/V1_MQTT_OK/GD32VW55X_Wifi_BLE_SDK/GD32VW55x_RELEASE_V1.0.2/MSDK/plf/src/time\systime.c ****     } while (start_mtime == tmp);
 332              		.loc 1 162 5
 333 000c BA85     		mv	a1,a4
 334 000e BE86     		mv	a3,a5
 335              	.LVL27:
 336              	.L18:
 160:C:/Users/stapi/OneDrive/Desktop/GD32VW553/V1_MQTT_OK/GD32VW55X_Wifi_BLE_SDK/GD32VW55x_RELEASE_V1.0.2/MSDK/plf/src/time\systime.c ****         start_mtime = SysTimer_GetLoadValue();
 337              		.loc 1 160 5 is_stmt 1 discriminator 1
 161:C:/Users/stapi/OneDrive/Desktop/GD32VW553/V1_MQTT_OK/GD32VW55X_Wifi_BLE_SDK/GD32VW55x_RELEASE_V1.0.2/MSDK/plf/src/time\systime.c ****     } while (start_mtime == tmp);
 338              		.loc 1 161 9 discriminator 1
 339              	.LBB17:
 340              	.LBB16:
 341              		.loc 2 129 5 discriminator 1
 342              		.loc 2 129 20 is_stmt 0 discriminator 1
 343 0010 1842     		lw	a4,0(a2)
 344 0012 5C42     		lw	a5,4(a2)
 345              	.LVL28:
 346              	.LBE16:
 347              	.LBE17:
 348              		.loc 1 162 13 is_stmt 1 discriminator 1
 349              		.loc 1 162 5 is_stmt 0 discriminator 1
 350 0014 6394E500 		bne	a1,a4,.L22
 351 0018 E38CF6FE 		beq	a3,a5,.L18
 352              	.L22:
 163:C:/Users/stapi/OneDrive/Desktop/GD32VW553/V1_MQTT_OK/GD32VW55X_Wifi_BLE_SDK/GD32VW55x_RELEASE_V1.0.2/MSDK/plf/src/time\systime.c **** 
 164:C:/Users/stapi/OneDrive/Desktop/GD32VW553/V1_MQTT_OK/GD32VW55X_Wifi_BLE_SDK/GD32VW55x_RELEASE_V1.0.2/MSDK/plf/src/time\systime.c ****     tmp = clock_us_factor * nus;
 353              		.loc 1 164 5 is_stmt 1
 354              		.loc 1 164 27 is_stmt 0
 355 001c B7060000 		lui	a3,%hi(.LANCHOR0)
 356 0020 83A60600 		lw	a3,%lo(.LANCHOR0)(a3)
 357              		.loc 1 164 9
 358 0024 8148     		li	a7,0
 359              	.LBB18:
 360              	.LBB19:
 361              		.loc 2 129 20
 362 0026 370800D1 		li	a6,-788529152
 363              	.LBE19:
 364              	.LBE18:
 365              		.loc 1 164 27
 366 002a 3305D502 		mul	a0,a0,a3
 367              	.LVL29:
 368              	.L20:
 165:C:/Users/stapi/OneDrive/Desktop/GD32VW553/V1_MQTT_OK/GD32VW55X_Wifi_BLE_SDK/GD32VW55x_RELEASE_V1.0.2/MSDK/plf/src/time\systime.c **** 
 166:C:/Users/stapi/OneDrive/Desktop/GD32VW553/V1_MQTT_OK/GD32VW55X_Wifi_BLE_SDK/GD32VW55x_RELEASE_V1.0.2/MSDK/plf/src/time\systime.c ****     /* continue counting until the delay time is reached */
 167:C:/Users/stapi/OneDrive/Desktop/GD32VW553/V1_MQTT_OK/GD32VW55X_Wifi_BLE_SDK/GD32VW55x_RELEASE_V1.0.2/MSDK/plf/src/time\systime.c ****     do {
 369              		.loc 1 167 5 is_stmt 1 discriminator 1
 168:C:/Users/stapi/OneDrive/Desktop/GD32VW553/V1_MQTT_OK/GD32VW55X_Wifi_BLE_SDK/GD32VW55x_RELEASE_V1.0.2/MSDK/plf/src/time\systime.c ****         delta_mtime = SysTimer_GetLoadValue() - start_mtime;
 370              		.loc 1 168 9 discriminator 1
 371              	.LBB21:
 372              	.LBB20:
 373              		.loc 2 129 5 discriminator 1
 374              		.loc 2 129 20 is_stmt 0 discriminator 1
 375 002e 03260800 		lw	a2,0(a6)
 376 0032 83264800 		lw	a3,4(a6)
 377              	.LVL30:
 378              	.LBE20:
 379              	.LBE21:
 169:C:/Users/stapi/OneDrive/Desktop/GD32VW553/V1_MQTT_OK/GD32VW55X_Wifi_BLE_SDK/GD32VW55x_RELEASE_V1.0.2/MSDK/plf/src/time\systime.c ****     } while (delta_mtime < tmp);
 380              		.loc 1 169 13 is_stmt 1 discriminator 1
 168:C:/Users/stapi/OneDrive/Desktop/GD32VW553/V1_MQTT_OK/GD32VW55X_Wifi_BLE_SDK/GD32VW55x_RELEASE_V1.0.2/MSDK/plf/src/time\systime.c ****         delta_mtime = SysTimer_GetLoadValue() - start_mtime;
 381              		.loc 1 168 21 is_stmt 0 discriminator 1
 382 0036 B305E640 		sub	a1,a2,a4
 383 003a 3333B600 		sgtu	t1,a1,a2
 384 003e 9D8E     		sub	a3,a3,a5
 385 0040 B3866640 		sub	a3,a3,t1
 386              		.loc 1 169 5 discriminator 1
 387 0044 6394D800 		bne	a7,a3,.L17
 388 0048 E3E3A5FE 		bgtu	a0,a1,.L20
 389              	.L17:
 170:C:/Users/stapi/OneDrive/Desktop/GD32VW553/V1_MQTT_OK/GD32VW55X_Wifi_BLE_SDK/GD32VW55x_RELEASE_V1.0.2/MSDK/plf/src/time\systime.c **** }
 390              		.loc 1 170 1
 391 004c 8280     		ret
 392              		.cfi_endproc
 393              	.LFE370:
 395              		.globl	clock_us_factor
 396              		.section	.sbss.clock_us_factor,"aw",@nobits
 397              		.align	2
 398              		.set	.LANCHOR0,. + 0
 401              	clock_us_factor:
 402 0000 00000000 		.zero	4
 403              		.section	.sbss.epoch_sec,"aw",@nobits
 404              		.align	2
 405              		.set	.LANCHOR1,. + 0
 408              	epoch_sec:
 409 0000 00000000 		.zero	4
 410              		.section	.sbss.epoch_usec,"aw",@nobits
 411              		.align	2
 412              		.set	.LANCHOR2,. + 0
 415              	epoch_usec:
 416 0000 00000000 		.zero	4
 417              		.text
 418              	.Letext0:
 419              		.file 3 "c:\\users\\stapi\\onedrive\\desktop\\gd32vw553\\embeddedbuilder_v1.4.7.26843\\tools\\nucl
 420              		.file 4 "c:\\users\\stapi\\onedrive\\desktop\\gd32vw553\\embeddedbuilder_v1.4.7.26843\\tools\\nucl
 421              		.file 5 "C:/Users/stapi/OneDrive/Desktop/GD32VW553/V1_MQTT_OK/GD32VW55X_Wifi_BLE_SDK/GD32VW55x_REL
 422              		.file 6 "..\\..\\..\\..\\plf\\riscv\\gd32vw55x/system_gd32vw55x.h"