   1              		.file	"uart.c"
   2              		.option nopic
   3              		.attribute arch, "rv32i2p0_m2p0_a2p0_f2p0_c2p0_b_p0p94"
   4              		.attribute unaligned_access, 0
   5              		.attribute stack_align, 16
   6              		.text
   7              	.Ltext0:
   8              		.cfi_sections	.debug_frame
   9              		.section	.text.uart_driver_init,"ax",@progbits
  10              		.align	1
  11              		.globl	uart_driver_init
  13              	uart_driver_init:
  14              	.LFB365:
  15              		.file 1 "C:/Users/stapi/OneDrive/Desktop/GD32VW553/GD32VW55X_Wifi_BLE_SDK/GD32VW55x_RELEASE_V1.0.2
   1:C:/Users/stapi/OneDrive/Desktop/GD32VW553/GD32VW55X_Wifi_BLE_SDK/GD32VW55x_RELEASE_V1.0.2/MSDK/plf/src/uart\uart.c **** /*!
   2:C:/Users/stapi/OneDrive/Desktop/GD32VW553/GD32VW55X_Wifi_BLE_SDK/GD32VW55x_RELEASE_V1.0.2/MSDK/plf/src/uart\uart.c ****     \file    uart.c
   3:C:/Users/stapi/OneDrive/Desktop/GD32VW553/GD32VW55X_Wifi_BLE_SDK/GD32VW55x_RELEASE_V1.0.2/MSDK/plf/src/uart\uart.c ****     \brief   UART BSP for GD32VW55x SDK.
   4:C:/Users/stapi/OneDrive/Desktop/GD32VW553/GD32VW55X_Wifi_BLE_SDK/GD32VW55x_RELEASE_V1.0.2/MSDK/plf/src/uart\uart.c **** 
   5:C:/Users/stapi/OneDrive/Desktop/GD32VW553/GD32VW55X_Wifi_BLE_SDK/GD32VW55x_RELEASE_V1.0.2/MSDK/plf/src/uart\uart.c ****     \version 2023-07-20, V1.0.0, firmware for GD32VW55x
   6:C:/Users/stapi/OneDrive/Desktop/GD32VW553/GD32VW55X_Wifi_BLE_SDK/GD32VW55x_RELEASE_V1.0.2/MSDK/plf/src/uart\uart.c **** */
   7:C:/Users/stapi/OneDrive/Desktop/GD32VW553/GD32VW55X_Wifi_BLE_SDK/GD32VW55x_RELEASE_V1.0.2/MSDK/plf/src/uart\uart.c **** 
   8:C:/Users/stapi/OneDrive/Desktop/GD32VW553/GD32VW55X_Wifi_BLE_SDK/GD32VW55x_RELEASE_V1.0.2/MSDK/plf/src/uart\uart.c **** /*
   9:C:/Users/stapi/OneDrive/Desktop/GD32VW553/GD32VW55X_Wifi_BLE_SDK/GD32VW55x_RELEASE_V1.0.2/MSDK/plf/src/uart\uart.c ****     Copyright (c) 2023, GigaDevice Semiconductor Inc.
  10:C:/Users/stapi/OneDrive/Desktop/GD32VW553/GD32VW55X_Wifi_BLE_SDK/GD32VW55x_RELEASE_V1.0.2/MSDK/plf/src/uart\uart.c **** 
  11:C:/Users/stapi/OneDrive/Desktop/GD32VW553/GD32VW55X_Wifi_BLE_SDK/GD32VW55x_RELEASE_V1.0.2/MSDK/plf/src/uart\uart.c ****     Redistribution and use in source and binary forms, with or without modification,
  12:C:/Users/stapi/OneDrive/Desktop/GD32VW553/GD32VW55X_Wifi_BLE_SDK/GD32VW55x_RELEASE_V1.0.2/MSDK/plf/src/uart\uart.c **** are permitted provided that the following conditions are met:
  13:C:/Users/stapi/OneDrive/Desktop/GD32VW553/GD32VW55X_Wifi_BLE_SDK/GD32VW55x_RELEASE_V1.0.2/MSDK/plf/src/uart\uart.c **** 
  14:C:/Users/stapi/OneDrive/Desktop/GD32VW553/GD32VW55X_Wifi_BLE_SDK/GD32VW55x_RELEASE_V1.0.2/MSDK/plf/src/uart\uart.c ****     1. Redistributions of source code must retain the above copyright notice, this
  15:C:/Users/stapi/OneDrive/Desktop/GD32VW553/GD32VW55X_Wifi_BLE_SDK/GD32VW55x_RELEASE_V1.0.2/MSDK/plf/src/uart\uart.c ****        list of conditions and the following disclaimer.
  16:C:/Users/stapi/OneDrive/Desktop/GD32VW553/GD32VW55X_Wifi_BLE_SDK/GD32VW55x_RELEASE_V1.0.2/MSDK/plf/src/uart\uart.c ****     2. Redistributions in binary form must reproduce the above copyright notice,
  17:C:/Users/stapi/OneDrive/Desktop/GD32VW553/GD32VW55X_Wifi_BLE_SDK/GD32VW55x_RELEASE_V1.0.2/MSDK/plf/src/uart\uart.c ****        this list of conditions and the following disclaimer in the documentation
  18:C:/Users/stapi/OneDrive/Desktop/GD32VW553/GD32VW55X_Wifi_BLE_SDK/GD32VW55x_RELEASE_V1.0.2/MSDK/plf/src/uart\uart.c ****        and/or other materials provided with the distribution.
  19:C:/Users/stapi/OneDrive/Desktop/GD32VW553/GD32VW55X_Wifi_BLE_SDK/GD32VW55x_RELEASE_V1.0.2/MSDK/plf/src/uart\uart.c ****     3. Neither the name of the copyright holder nor the names of its contributors
  20:C:/Users/stapi/OneDrive/Desktop/GD32VW553/GD32VW55X_Wifi_BLE_SDK/GD32VW55x_RELEASE_V1.0.2/MSDK/plf/src/uart\uart.c ****        may be used to endorse or promote products derived from this software without
  21:C:/Users/stapi/OneDrive/Desktop/GD32VW553/GD32VW55X_Wifi_BLE_SDK/GD32VW55x_RELEASE_V1.0.2/MSDK/plf/src/uart\uart.c ****        specific prior written permission.
  22:C:/Users/stapi/OneDrive/Desktop/GD32VW553/GD32VW55X_Wifi_BLE_SDK/GD32VW55x_RELEASE_V1.0.2/MSDK/plf/src/uart\uart.c **** 
  23:C:/Users/stapi/OneDrive/Desktop/GD32VW553/GD32VW55X_Wifi_BLE_SDK/GD32VW55x_RELEASE_V1.0.2/MSDK/plf/src/uart\uart.c ****     THIS SOFTWARE IS PROVIDED BY THE COPYRIGHT HOLDERS AND CONTRIBUTORS "AS IS"
  24:C:/Users/stapi/OneDrive/Desktop/GD32VW553/GD32VW55X_Wifi_BLE_SDK/GD32VW55x_RELEASE_V1.0.2/MSDK/plf/src/uart\uart.c **** AND ANY EXPRESS OR IMPLIED WARRANTIES, INCLUDING, BUT NOT LIMITED TO, THE IMPLIED
  25:C:/Users/stapi/OneDrive/Desktop/GD32VW553/GD32VW55X_Wifi_BLE_SDK/GD32VW55x_RELEASE_V1.0.2/MSDK/plf/src/uart\uart.c **** WARRANTIES OF MERCHANTABILITY AND FITNESS FOR A PARTICULAR PURPOSE ARE DISCLAIMED.
  26:C:/Users/stapi/OneDrive/Desktop/GD32VW553/GD32VW55X_Wifi_BLE_SDK/GD32VW55x_RELEASE_V1.0.2/MSDK/plf/src/uart\uart.c **** IN NO EVENT SHALL THE COPYRIGHT HOLDER OR CONTRIBUTORS BE LIABLE FOR ANY DIRECT,
  27:C:/Users/stapi/OneDrive/Desktop/GD32VW553/GD32VW55X_Wifi_BLE_SDK/GD32VW55x_RELEASE_V1.0.2/MSDK/plf/src/uart\uart.c **** INDIRECT, INCIDENTAL, SPECIAL, EXEMPLARY, OR CONSEQUENTIAL DAMAGES (INCLUDING, BUT
  28:C:/Users/stapi/OneDrive/Desktop/GD32VW553/GD32VW55X_Wifi_BLE_SDK/GD32VW55x_RELEASE_V1.0.2/MSDK/plf/src/uart\uart.c **** NOT LIMITED TO, PROCUREMENT OF SUBSTITUTE GOODS OR SERVICES; LOSS OF USE, DATA, OR
  29:C:/Users/stapi/OneDrive/Desktop/GD32VW553/GD32VW55X_Wifi_BLE_SDK/GD32VW55x_RELEASE_V1.0.2/MSDK/plf/src/uart\uart.c **** PROFITS; OR BUSINESS INTERRUPTION) HOWEVER CAUSED AND ON ANY THEORY OF LIABILITY,
  30:C:/Users/stapi/OneDrive/Desktop/GD32VW553/GD32VW55X_Wifi_BLE_SDK/GD32VW55x_RELEASE_V1.0.2/MSDK/plf/src/uart\uart.c **** WHETHER IN CONTRACT, STRICT LIABILITY, OR TORT (INCLUDING NEGLIGENCE OR OTHERWISE)
  31:C:/Users/stapi/OneDrive/Desktop/GD32VW553/GD32VW55X_Wifi_BLE_SDK/GD32VW55x_RELEASE_V1.0.2/MSDK/plf/src/uart\uart.c **** ARISING IN ANY WAY OUT OF THE USE OF THIS SOFTWARE, EVEN IF ADVISED OF THE POSSIBILITY
  32:C:/Users/stapi/OneDrive/Desktop/GD32VW553/GD32VW55X_Wifi_BLE_SDK/GD32VW55x_RELEASE_V1.0.2/MSDK/plf/src/uart\uart.c **** OF SUCH DAMAGE.
  33:C:/Users/stapi/OneDrive/Desktop/GD32VW553/GD32VW55X_Wifi_BLE_SDK/GD32VW55x_RELEASE_V1.0.2/MSDK/plf/src/uart\uart.c **** */
  34:C:/Users/stapi/OneDrive/Desktop/GD32VW553/GD32VW55X_Wifi_BLE_SDK/GD32VW55x_RELEASE_V1.0.2/MSDK/plf/src/uart\uart.c **** 
  35:C:/Users/stapi/OneDrive/Desktop/GD32VW553/GD32VW55X_Wifi_BLE_SDK/GD32VW55x_RELEASE_V1.0.2/MSDK/plf/src/uart\uart.c **** #include <ctype.h>
  36:C:/Users/stapi/OneDrive/Desktop/GD32VW553/GD32VW55X_Wifi_BLE_SDK/GD32VW55x_RELEASE_V1.0.2/MSDK/plf/src/uart\uart.c **** #include "gd32vw55x.h"
  37:C:/Users/stapi/OneDrive/Desktop/GD32VW553/GD32VW55X_Wifi_BLE_SDK/GD32VW55x_RELEASE_V1.0.2/MSDK/plf/src/uart\uart.c **** #include <stdio.h>
  38:C:/Users/stapi/OneDrive/Desktop/GD32VW553/GD32VW55X_Wifi_BLE_SDK/GD32VW55x_RELEASE_V1.0.2/MSDK/plf/src/uart\uart.c **** #include "uart.h"
  39:C:/Users/stapi/OneDrive/Desktop/GD32VW553/GD32VW55X_Wifi_BLE_SDK/GD32VW55x_RELEASE_V1.0.2/MSDK/plf/src/uart\uart.c **** #include "wrapper_os.h"
  40:C:/Users/stapi/OneDrive/Desktop/GD32VW553/GD32VW55X_Wifi_BLE_SDK/GD32VW55x_RELEASE_V1.0.2/MSDK/plf/src/uart\uart.c **** #include "wakelock.h"
  41:C:/Users/stapi/OneDrive/Desktop/GD32VW553/GD32VW55X_Wifi_BLE_SDK/GD32VW55x_RELEASE_V1.0.2/MSDK/plf/src/uart\uart.c **** #ifdef TUYAOS_SUPPORT
  42:C:/Users/stapi/OneDrive/Desktop/GD32VW553/GD32VW55X_Wifi_BLE_SDK/GD32VW55x_RELEASE_V1.0.2/MSDK/plf/src/uart\uart.c **** #include "tkl_uart.h"
  43:C:/Users/stapi/OneDrive/Desktop/GD32VW553/GD32VW55X_Wifi_BLE_SDK/GD32VW55x_RELEASE_V1.0.2/MSDK/plf/src/uart\uart.c **** #endif
  44:C:/Users/stapi/OneDrive/Desktop/GD32VW553/GD32VW55X_Wifi_BLE_SDK/GD32VW55x_RELEASE_V1.0.2/MSDK/plf/src/uart\uart.c **** 
  45:C:/Users/stapi/OneDrive/Desktop/GD32VW553/GD32VW55X_Wifi_BLE_SDK/GD32VW55x_RELEASE_V1.0.2/MSDK/plf/src/uart\uart.c **** struct uart_driver
  46:C:/Users/stapi/OneDrive/Desktop/GD32VW553/GD32VW55X_Wifi_BLE_SDK/GD32VW55x_RELEASE_V1.0.2/MSDK/plf/src/uart\uart.c **** {
  47:C:/Users/stapi/OneDrive/Desktop/GD32VW553/GD32VW55X_Wifi_BLE_SDK/GD32VW55x_RELEASE_V1.0.2/MSDK/plf/src/uart\uart.c ****     uart_cb_item_t uart_cbs[MAX_UART_NUM];
  48:C:/Users/stapi/OneDrive/Desktop/GD32VW553/GD32VW55X_Wifi_BLE_SDK/GD32VW55x_RELEASE_V1.0.2/MSDK/plf/src/uart\uart.c **** };
  49:C:/Users/stapi/OneDrive/Desktop/GD32VW553/GD32VW55X_Wifi_BLE_SDK/GD32VW55x_RELEASE_V1.0.2/MSDK/plf/src/uart\uart.c **** 
  50:C:/Users/stapi/OneDrive/Desktop/GD32VW553/GD32VW55X_Wifi_BLE_SDK/GD32VW55x_RELEASE_V1.0.2/MSDK/plf/src/uart\uart.c **** static struct uart_driver uart_mgr;
  51:C:/Users/stapi/OneDrive/Desktop/GD32VW553/GD32VW55X_Wifi_BLE_SDK/GD32VW55x_RELEASE_V1.0.2/MSDK/plf/src/uart\uart.c **** 
  52:C:/Users/stapi/OneDrive/Desktop/GD32VW553/GD32VW55X_Wifi_BLE_SDK/GD32VW55x_RELEASE_V1.0.2/MSDK/plf/src/uart\uart.c **** void uart_driver_init(void)
  53:C:/Users/stapi/OneDrive/Desktop/GD32VW553/GD32VW55X_Wifi_BLE_SDK/GD32VW55x_RELEASE_V1.0.2/MSDK/plf/src/uart\uart.c **** {
  16              		.loc 1 53 1
  17              		.cfi_startproc
  54:C:/Users/stapi/OneDrive/Desktop/GD32VW553/GD32VW55X_Wifi_BLE_SDK/GD32VW55x_RELEASE_V1.0.2/MSDK/plf/src/uart\uart.c ****     memset(&uart_mgr, 0, sizeof(struct uart_driver));
  18              		.loc 1 54 5
  19 0000 37050000 		lui	a0,%hi(.LANCHOR0)
  20 0004 6146     		li	a2,24
  21 0006 8145     		li	a1,0
  22 0008 13050500 		addi	a0,a0,%lo(.LANCHOR0)
  23 000c 17030000 		tail	memset
  23      67000300 
  24              	.LVL0:
  25              		.cfi_endproc
  26              	.LFE365:
  28              		.section	.text.uart_irq_callback_register,"ax",@progbits
  29              		.align	1
  30              		.globl	uart_irq_callback_register
  32              	uart_irq_callback_register:
  33              	.LFB366:
  55:C:/Users/stapi/OneDrive/Desktop/GD32VW553/GD32VW55X_Wifi_BLE_SDK/GD32VW55x_RELEASE_V1.0.2/MSDK/plf/src/uart\uart.c **** }
  56:C:/Users/stapi/OneDrive/Desktop/GD32VW553/GD32VW55X_Wifi_BLE_SDK/GD32VW55x_RELEASE_V1.0.2/MSDK/plf/src/uart\uart.c **** 
  57:C:/Users/stapi/OneDrive/Desktop/GD32VW553/GD32VW55X_Wifi_BLE_SDK/GD32VW55x_RELEASE_V1.0.2/MSDK/plf/src/uart\uart.c **** bool uart_irq_callback_register(uint32_t uart_port, uart_rx_irq_hdl_t callback)
  58:C:/Users/stapi/OneDrive/Desktop/GD32VW553/GD32VW55X_Wifi_BLE_SDK/GD32VW55x_RELEASE_V1.0.2/MSDK/plf/src/uart\uart.c **** {
  34              		.loc 1 58 1
  35              		.cfi_startproc
  36              	.LVL1:
  59:C:/Users/stapi/OneDrive/Desktop/GD32VW553/GD32VW55X_Wifi_BLE_SDK/GD32VW55x_RELEASE_V1.0.2/MSDK/plf/src/uart\uart.c ****     uint8_t i;
  37              		.loc 1 59 5
  60:C:/Users/stapi/OneDrive/Desktop/GD32VW553/GD32VW55X_Wifi_BLE_SDK/GD32VW55x_RELEASE_V1.0.2/MSDK/plf/src/uart\uart.c **** 
  61:C:/Users/stapi/OneDrive/Desktop/GD32VW553/GD32VW55X_Wifi_BLE_SDK/GD32VW55x_RELEASE_V1.0.2/MSDK/plf/src/uart\uart.c ****     for (i = 0; i < MAX_UART_NUM; i++) {
  38              		.loc 1 61 5
  39              		.loc 1 61 17
  40 0000 37070000 		lui	a4,%hi(.LANCHOR0)
  41 0004 93060700 		addi	a3,a4,%lo(.LANCHOR0)
  58:C:/Users/stapi/OneDrive/Desktop/GD32VW553/GD32VW55X_Wifi_BLE_SDK/GD32VW55x_RELEASE_V1.0.2/MSDK/plf/src/uart\uart.c ****     uint8_t i;
  42              		.loc 1 58 1 is_stmt 0
  43 0008 8147     		li	a5,0
  44 000a 13070700 		addi	a4,a4,%lo(.LANCHOR0)
  45              		.loc 1 61 5
  46 000e 0D48     		li	a6,3
  47              	.LVL2:
  48              	.L6:
  62:C:/Users/stapi/OneDrive/Desktop/GD32VW553/GD32VW55X_Wifi_BLE_SDK/GD32VW55x_RELEASE_V1.0.2/MSDK/plf/src/uart\uart.c ****         // uart port already register callback
  63:C:/Users/stapi/OneDrive/Desktop/GD32VW553/GD32VW55X_Wifi_BLE_SDK/GD32VW55x_RELEASE_V1.0.2/MSDK/plf/src/uart\uart.c ****         if (uart_mgr.uart_cbs[i].uart_port == uart_port) {
  49              		.loc 1 63 9 is_stmt 1
  50              		.loc 1 63 33 is_stmt 0
  51 0010 9042     		lw	a2,0(a3)
  52              		.loc 1 63 12
  53 0012 630DA600 		beq	a2,a0,.L7
  64:C:/Users/stapi/OneDrive/Desktop/GD32VW553/GD32VW55X_Wifi_BLE_SDK/GD32VW55x_RELEASE_V1.0.2/MSDK/plf/src/uart\uart.c ****             return false;
  65:C:/Users/stapi/OneDrive/Desktop/GD32VW553/GD32VW55X_Wifi_BLE_SDK/GD32VW55x_RELEASE_V1.0.2/MSDK/plf/src/uart\uart.c ****         } else if (uart_mgr.uart_cbs[i].uart_port == 0) {
  54              		.loc 1 65 16 is_stmt 1
  55              		.loc 1 65 19 is_stmt 0
  56 0016 19E6     		bne	a2,zero,.L5
  66:C:/Users/stapi/OneDrive/Desktop/GD32VW553/GD32VW55X_Wifi_BLE_SDK/GD32VW55x_RELEASE_V1.0.2/MSDK/plf/src/uart\uart.c ****             uart_mgr.uart_cbs[i].callback = callback;
  57              		.loc 1 66 13 is_stmt 1
  58              		.loc 1 66 43 is_stmt 0
  59 0018 B3E7E720 		sh3add	a5,a5,a4
  60              	.LVL3:
  67:C:/Users/stapi/OneDrive/Desktop/GD32VW553/GD32VW55X_Wifi_BLE_SDK/GD32VW55x_RELEASE_V1.0.2/MSDK/plf/src/uart\uart.c ****             uart_mgr.uart_cbs[i].uart_port = uart_port;
  61              		.loc 1 67 44
  62 001c 88C3     		sw	a0,0(a5)
  66:C:/Users/stapi/OneDrive/Desktop/GD32VW553/GD32VW55X_Wifi_BLE_SDK/GD32VW55x_RELEASE_V1.0.2/MSDK/plf/src/uart\uart.c ****             uart_mgr.uart_cbs[i].callback = callback;
  63              		.loc 1 66 43
  64 001e CCC3     		sw	a1,4(a5)
  65              		.loc 1 67 13 is_stmt 1
  68:C:/Users/stapi/OneDrive/Desktop/GD32VW553/GD32VW55X_Wifi_BLE_SDK/GD32VW55x_RELEASE_V1.0.2/MSDK/plf/src/uart\uart.c ****             return true;
  66              		.loc 1 68 13
  67              		.loc 1 68 20 is_stmt 0
  68 0020 0545     		li	a0,1
  69              	.LVL4:
  70 0022 8280     		ret
  71              	.LVL5:
  72              	.L5:
  61:C:/Users/stapi/OneDrive/Desktop/GD32VW553/GD32VW55X_Wifi_BLE_SDK/GD32VW55x_RELEASE_V1.0.2/MSDK/plf/src/uart\uart.c ****         // uart port already register callback
  73              		.loc 1 61 35 is_stmt 1 discriminator 2
  61:C:/Users/stapi/OneDrive/Desktop/GD32VW553/GD32VW55X_Wifi_BLE_SDK/GD32VW55x_RELEASE_V1.0.2/MSDK/plf/src/uart\uart.c ****         // uart port already register callback
  74              		.loc 1 61 17 discriminator 2
  61:C:/Users/stapi/OneDrive/Desktop/GD32VW553/GD32VW55X_Wifi_BLE_SDK/GD32VW55x_RELEASE_V1.0.2/MSDK/plf/src/uart\uart.c ****         // uart port already register callback
  75              		.loc 1 61 5 is_stmt 0 discriminator 2
  76 0024 8507     		addi	a5,a5,1
  77              	.LVL6:
  78 0026 A106     		addi	a3,a3,8
  79 0028 E39407FF 		bne	a5,a6,.L6
  80              	.L7:
  64:C:/Users/stapi/OneDrive/Desktop/GD32VW553/GD32VW55X_Wifi_BLE_SDK/GD32VW55x_RELEASE_V1.0.2/MSDK/plf/src/uart\uart.c ****         } else if (uart_mgr.uart_cbs[i].uart_port == 0) {
  81              		.loc 1 64 20
  82 002c 0145     		li	a0,0
  83              	.LVL7:
  69:C:/Users/stapi/OneDrive/Desktop/GD32VW553/GD32VW55X_Wifi_BLE_SDK/GD32VW55x_RELEASE_V1.0.2/MSDK/plf/src/uart\uart.c ****         }
  70:C:/Users/stapi/OneDrive/Desktop/GD32VW553/GD32VW55X_Wifi_BLE_SDK/GD32VW55x_RELEASE_V1.0.2/MSDK/plf/src/uart\uart.c ****     }
  71:C:/Users/stapi/OneDrive/Desktop/GD32VW553/GD32VW55X_Wifi_BLE_SDK/GD32VW55x_RELEASE_V1.0.2/MSDK/plf/src/uart\uart.c **** 
  72:C:/Users/stapi/OneDrive/Desktop/GD32VW553/GD32VW55X_Wifi_BLE_SDK/GD32VW55x_RELEASE_V1.0.2/MSDK/plf/src/uart\uart.c ****     return false;
  73:C:/Users/stapi/OneDrive/Desktop/GD32VW553/GD32VW55X_Wifi_BLE_SDK/GD32VW55x_RELEASE_V1.0.2/MSDK/plf/src/uart\uart.c **** }
  84              		.loc 1 73 1
  85 002e 8280     		ret
  86              		.cfi_endproc
  87              	.LFE366:
  89              		.section	.text.uart_irq_callback_unregister,"ax",@progbits
  90              		.align	1
  91              		.globl	uart_irq_callback_unregister
  93              	uart_irq_callback_unregister:
  94              	.LFB367:
  74:C:/Users/stapi/OneDrive/Desktop/GD32VW553/GD32VW55X_Wifi_BLE_SDK/GD32VW55x_RELEASE_V1.0.2/MSDK/plf/src/uart\uart.c **** 
  75:C:/Users/stapi/OneDrive/Desktop/GD32VW553/GD32VW55X_Wifi_BLE_SDK/GD32VW55x_RELEASE_V1.0.2/MSDK/plf/src/uart\uart.c **** bool uart_irq_callback_unregister(uint32_t uart_port)
  76:C:/Users/stapi/OneDrive/Desktop/GD32VW553/GD32VW55X_Wifi_BLE_SDK/GD32VW55x_RELEASE_V1.0.2/MSDK/plf/src/uart\uart.c **** {
  95              		.loc 1 76 1 is_stmt 1
  96              		.cfi_startproc
  97              	.LVL8:
  77:C:/Users/stapi/OneDrive/Desktop/GD32VW553/GD32VW55X_Wifi_BLE_SDK/GD32VW55x_RELEASE_V1.0.2/MSDK/plf/src/uart\uart.c ****     uint8_t i;
  98              		.loc 1 77 5
  78:C:/Users/stapi/OneDrive/Desktop/GD32VW553/GD32VW55X_Wifi_BLE_SDK/GD32VW55x_RELEASE_V1.0.2/MSDK/plf/src/uart\uart.c **** 
  79:C:/Users/stapi/OneDrive/Desktop/GD32VW553/GD32VW55X_Wifi_BLE_SDK/GD32VW55x_RELEASE_V1.0.2/MSDK/plf/src/uart\uart.c ****     for (i = 0; i < MAX_UART_NUM; i++) {
  99              		.loc 1 79 5
 100              		.loc 1 79 17
  80:C:/Users/stapi/OneDrive/Desktop/GD32VW553/GD32VW55X_Wifi_BLE_SDK/GD32VW55x_RELEASE_V1.0.2/MSDK/plf/src/uart\uart.c ****         if (uart_mgr.uart_cbs[i].uart_port == uart_port) {
 101              		.loc 1 80 9
 102              		.loc 1 80 33 is_stmt 0
 103 0000 B7070000 		lui	a5,%hi(.LANCHOR0)
 104              		.loc 1 80 12
 105 0004 03A60700 		lw	a2,%lo(.LANCHOR0)(a5)
  76:C:/Users/stapi/OneDrive/Desktop/GD32VW553/GD32VW55X_Wifi_BLE_SDK/GD32VW55x_RELEASE_V1.0.2/MSDK/plf/src/uart\uart.c ****     uint8_t i;
 106              		.loc 1 76 1
 107 0008 AA86     		mv	a3,a0
 108 000a 13870700 		addi	a4,a5,%lo(.LANCHOR0)
 109              		.loc 1 80 12
 110 000e 6302C502 		beq	a0,a2,.L12
  79:C:/Users/stapi/OneDrive/Desktop/GD32VW553/GD32VW55X_Wifi_BLE_SDK/GD32VW55x_RELEASE_V1.0.2/MSDK/plf/src/uart\uart.c ****         if (uart_mgr.uart_cbs[i].uart_port == uart_port) {
 111              		.loc 1 79 35 is_stmt 1
 112              	.LVL9:
  79:C:/Users/stapi/OneDrive/Desktop/GD32VW553/GD32VW55X_Wifi_BLE_SDK/GD32VW55x_RELEASE_V1.0.2/MSDK/plf/src/uart\uart.c ****         if (uart_mgr.uart_cbs[i].uart_port == uart_port) {
 113              		.loc 1 79 17
 114              		.loc 1 80 9
 115              		.loc 1 80 12 is_stmt 0
 116 0012 1C47     		lw	a5,8(a4)
 117 0014 6301F502 		beq	a0,a5,.L13
  79:C:/Users/stapi/OneDrive/Desktop/GD32VW553/GD32VW55X_Wifi_BLE_SDK/GD32VW55x_RELEASE_V1.0.2/MSDK/plf/src/uart\uart.c ****         if (uart_mgr.uart_cbs[i].uart_port == uart_port) {
 118              		.loc 1 79 35 is_stmt 1
 119              	.LVL10:
  79:C:/Users/stapi/OneDrive/Desktop/GD32VW553/GD32VW55X_Wifi_BLE_SDK/GD32VW55x_RELEASE_V1.0.2/MSDK/plf/src/uart\uart.c ****         if (uart_mgr.uart_cbs[i].uart_port == uart_port) {
 120              		.loc 1 79 17
 121              		.loc 1 80 9
 122              		.loc 1 80 12 is_stmt 0
 123 0018 1C4B     		lw	a5,16(a4)
  81:C:/Users/stapi/OneDrive/Desktop/GD32VW553/GD32VW55X_Wifi_BLE_SDK/GD32VW55x_RELEASE_V1.0.2/MSDK/plf/src/uart\uart.c ****             uart_mgr.uart_cbs[i].callback = NULL;
  82:C:/Users/stapi/OneDrive/Desktop/GD32VW553/GD32VW55X_Wifi_BLE_SDK/GD32VW55x_RELEASE_V1.0.2/MSDK/plf/src/uart\uart.c ****             uart_mgr.uart_cbs[i].uart_port = 0;
  83:C:/Users/stapi/OneDrive/Desktop/GD32VW553/GD32VW55X_Wifi_BLE_SDK/GD32VW55x_RELEASE_V1.0.2/MSDK/plf/src/uart\uart.c ****             return true;
  84:C:/Users/stapi/OneDrive/Desktop/GD32VW553/GD32VW55X_Wifi_BLE_SDK/GD32VW55x_RELEASE_V1.0.2/MSDK/plf/src/uart\uart.c ****         }
  85:C:/Users/stapi/OneDrive/Desktop/GD32VW553/GD32VW55X_Wifi_BLE_SDK/GD32VW55x_RELEASE_V1.0.2/MSDK/plf/src/uart\uart.c ****     }
  86:C:/Users/stapi/OneDrive/Desktop/GD32VW553/GD32VW55X_Wifi_BLE_SDK/GD32VW55x_RELEASE_V1.0.2/MSDK/plf/src/uart\uart.c **** 
  87:C:/Users/stapi/OneDrive/Desktop/GD32VW553/GD32VW55X_Wifi_BLE_SDK/GD32VW55x_RELEASE_V1.0.2/MSDK/plf/src/uart\uart.c ****     return false;
 124              		.loc 1 87 12
 125 001a 0145     		li	a0,0
 126              	.LVL11:
  80:C:/Users/stapi/OneDrive/Desktop/GD32VW553/GD32VW55X_Wifi_BLE_SDK/GD32VW55x_RELEASE_V1.0.2/MSDK/plf/src/uart\uart.c ****             uart_mgr.uart_cbs[i].callback = NULL;
 127              		.loc 1 80 12
 128 001c 639AF600 		bne	a3,a5,.L11
  80:C:/Users/stapi/OneDrive/Desktop/GD32VW553/GD32VW55X_Wifi_BLE_SDK/GD32VW55x_RELEASE_V1.0.2/MSDK/plf/src/uart\uart.c ****             uart_mgr.uart_cbs[i].callback = NULL;
 129              		.loc 1 80 33
 130 0020 8947     		li	a5,2
 131              	.LVL12:
 132              	.L10:
  81:C:/Users/stapi/OneDrive/Desktop/GD32VW553/GD32VW55X_Wifi_BLE_SDK/GD32VW55x_RELEASE_V1.0.2/MSDK/plf/src/uart\uart.c ****             uart_mgr.uart_cbs[i].callback = NULL;
 133              		.loc 1 81 13 is_stmt 1
  81:C:/Users/stapi/OneDrive/Desktop/GD32VW553/GD32VW55X_Wifi_BLE_SDK/GD32VW55x_RELEASE_V1.0.2/MSDK/plf/src/uart\uart.c ****             uart_mgr.uart_cbs[i].callback = NULL;
 134              		.loc 1 81 43 is_stmt 0
 135 0022 B3E7E720 		sh3add	a5,a5,a4
  83:C:/Users/stapi/OneDrive/Desktop/GD32VW553/GD32VW55X_Wifi_BLE_SDK/GD32VW55x_RELEASE_V1.0.2/MSDK/plf/src/uart\uart.c ****         }
 136              		.loc 1 83 20
 137 0026 0545     		li	a0,1
  81:C:/Users/stapi/OneDrive/Desktop/GD32VW553/GD32VW55X_Wifi_BLE_SDK/GD32VW55x_RELEASE_V1.0.2/MSDK/plf/src/uart\uart.c ****             uart_mgr.uart_cbs[i].callback = NULL;
 138              		.loc 1 81 43
 139 0028 23A20700 		sw	zero,4(a5)
  82:C:/Users/stapi/OneDrive/Desktop/GD32VW553/GD32VW55X_Wifi_BLE_SDK/GD32VW55x_RELEASE_V1.0.2/MSDK/plf/src/uart\uart.c ****             return true;
 140              		.loc 1 82 13 is_stmt 1
  82:C:/Users/stapi/OneDrive/Desktop/GD32VW553/GD32VW55X_Wifi_BLE_SDK/GD32VW55x_RELEASE_V1.0.2/MSDK/plf/src/uart\uart.c ****             return true;
 141              		.loc 1 82 44 is_stmt 0
 142 002c 23A00700 		sw	zero,0(a5)
  83:C:/Users/stapi/OneDrive/Desktop/GD32VW553/GD32VW55X_Wifi_BLE_SDK/GD32VW55x_RELEASE_V1.0.2/MSDK/plf/src/uart\uart.c ****         }
 143              		.loc 1 83 13 is_stmt 1
 144              	.L11:
  88:C:/Users/stapi/OneDrive/Desktop/GD32VW553/GD32VW55X_Wifi_BLE_SDK/GD32VW55x_RELEASE_V1.0.2/MSDK/plf/src/uart\uart.c **** }
 145              		.loc 1 88 1 is_stmt 0
 146 0030 8280     		ret
 147              	.LVL13:
 148              	.L12:
  80:C:/Users/stapi/OneDrive/Desktop/GD32VW553/GD32VW55X_Wifi_BLE_SDK/GD32VW55x_RELEASE_V1.0.2/MSDK/plf/src/uart\uart.c ****             uart_mgr.uart_cbs[i].callback = NULL;
 149              		.loc 1 80 33
 150 0032 8147     		li	a5,0
 151 0034 FDB7     		j	.L10
 152              	.LVL14:
 153              	.L13:
 154 0036 8547     		li	a5,1
 155 0038 EDB7     		j	.L10
 156              		.cfi_endproc
 157              	.LFE367:
 159              		.section	.text.uart_dma_single_mode_config,"ax",@progbits
 160              		.align	1
 161              		.globl	uart_dma_single_mode_config
 163              	uart_dma_single_mode_config:
 164              	.LFB368:
  89:C:/Users/stapi/OneDrive/Desktop/GD32VW553/GD32VW55X_Wifi_BLE_SDK/GD32VW55x_RELEASE_V1.0.2/MSDK/plf/src/uart\uart.c **** void uart_dma_single_mode_config(uint32_t uart, uint32_t direction)
  90:C:/Users/stapi/OneDrive/Desktop/GD32VW553/GD32VW55X_Wifi_BLE_SDK/GD32VW55x_RELEASE_V1.0.2/MSDK/plf/src/uart\uart.c **** {
 165              		.loc 1 90 1 is_stmt 1
 166              		.cfi_startproc
 167              	.LVL15:
 168 0000 17030000 		call	t0,__riscv_save_2
 168      E7020300 
 169              		.cfi_offset 9, -12
 170              		.cfi_offset 8, -8
 171              		.cfi_offset 1, -4
 172              		.cfi_def_cfa_offset 16
  91:C:/Users/stapi/OneDrive/Desktop/GD32VW553/GD32VW55X_Wifi_BLE_SDK/GD32VW55x_RELEASE_V1.0.2/MSDK/plf/src/uart\uart.c ****     dma_single_data_parameter_struct dma_init_struct;
 173              		.loc 1 91 5
  92:C:/Users/stapi/OneDrive/Desktop/GD32VW553/GD32VW55X_Wifi_BLE_SDK/GD32VW55x_RELEASE_V1.0.2/MSDK/plf/src/uart\uart.c ****     dma_channel_enum dma_chnlx = DMA_CH0;
 174              		.loc 1 92 5
 175              	.LVL16:
  93:C:/Users/stapi/OneDrive/Desktop/GD32VW553/GD32VW55X_Wifi_BLE_SDK/GD32VW55x_RELEASE_V1.0.2/MSDK/plf/src/uart\uart.c **** 
  94:C:/Users/stapi/OneDrive/Desktop/GD32VW553/GD32VW55X_Wifi_BLE_SDK/GD32VW55x_RELEASE_V1.0.2/MSDK/plf/src/uart\uart.c ****     dma_single_data_para_struct_init(&dma_init_struct);
 176              		.loc 1 94 5
  90:C:/Users/stapi/OneDrive/Desktop/GD32VW553/GD32VW55X_Wifi_BLE_SDK/GD32VW55x_RELEASE_V1.0.2/MSDK/plf/src/uart\uart.c ****     dma_single_data_parameter_struct dma_init_struct;
 177              		.loc 1 90 1 is_stmt 0
 178 0008 7971     		addi	sp,sp,-48
 179              		.cfi_def_cfa_offset 64
  90:C:/Users/stapi/OneDrive/Desktop/GD32VW553/GD32VW55X_Wifi_BLE_SDK/GD32VW55x_RELEASE_V1.0.2/MSDK/plf/src/uart\uart.c ****     dma_single_data_parameter_struct dma_init_struct;
 180              		.loc 1 90 1
 181 000a AA84     		mv	s1,a0
 182              		.loc 1 94 5
 183 000c 6800     		addi	a0,sp,12
 184              	.LVL17:
  90:C:/Users/stapi/OneDrive/Desktop/GD32VW553/GD32VW55X_Wifi_BLE_SDK/GD32VW55x_RELEASE_V1.0.2/MSDK/plf/src/uart\uart.c ****     dma_single_data_parameter_struct dma_init_struct;
 185              		.loc 1 90 1
 186 000e 2E84     		mv	s0,a1
 187              		.loc 1 94 5
 188 0010 97000000 		call	dma_single_data_para_struct_init
 188      E7800000 
 189              	.LVL18:
  95:C:/Users/stapi/OneDrive/Desktop/GD32VW553/GD32VW55X_Wifi_BLE_SDK/GD32VW55x_RELEASE_V1.0.2/MSDK/plf/src/uart\uart.c ****     dma_init_struct.direction = direction;
 190              		.loc 1 95 5 is_stmt 1
  96:C:/Users/stapi/OneDrive/Desktop/GD32VW553/GD32VW55X_Wifi_BLE_SDK/GD32VW55x_RELEASE_V1.0.2/MSDK/plf/src/uart\uart.c ****     dma_init_struct.memory_inc = DMA_MEMORY_INCREASE_ENABLE;
  97:C:/Users/stapi/OneDrive/Desktop/GD32VW553/GD32VW55X_Wifi_BLE_SDK/GD32VW55x_RELEASE_V1.0.2/MSDK/plf/src/uart\uart.c ****     dma_init_struct.periph_memory_width = DMA_PERIPH_WIDTH_8BIT;
  98:C:/Users/stapi/OneDrive/Desktop/GD32VW553/GD32VW55X_Wifi_BLE_SDK/GD32VW55x_RELEASE_V1.0.2/MSDK/plf/src/uart\uart.c ****     dma_init_struct.periph_inc = DMA_PERIPH_INCREASE_DISABLE;
 191              		.loc 1 98 32 is_stmt 0
 192 0018 8547     		li	a5,1
 193 001a 3EC8     		sw	a5,16(sp)
  99:C:/Users/stapi/OneDrive/Desktop/GD32VW553/GD32VW55X_Wifi_BLE_SDK/GD32VW55x_RELEASE_V1.0.2/MSDK/plf/src/uart\uart.c ****     dma_init_struct.priority = DMA_PRIORITY_ULTRA_HIGH;
 194              		.loc 1 99 30
 195 001c B7070300 		li	a5,196608
 196 0020 3ED6     		sw	a5,44(sp)
  95:C:/Users/stapi/OneDrive/Desktop/GD32VW553/GD32VW55X_Wifi_BLE_SDK/GD32VW55x_RELEASE_V1.0.2/MSDK/plf/src/uart\uart.c ****     dma_init_struct.direction = direction;
 197              		.loc 1 95 31
 198 0022 22D2     		sw	s0,36(sp)
  96:C:/Users/stapi/OneDrive/Desktop/GD32VW553/GD32VW55X_Wifi_BLE_SDK/GD32VW55x_RELEASE_V1.0.2/MSDK/plf/src/uart\uart.c ****     dma_init_struct.memory_inc = DMA_MEMORY_INCREASE_ENABLE;
 199              		.loc 1 96 5 is_stmt 1
  96:C:/Users/stapi/OneDrive/Desktop/GD32VW553/GD32VW55X_Wifi_BLE_SDK/GD32VW55x_RELEASE_V1.0.2/MSDK/plf/src/uart\uart.c ****     dma_init_struct.memory_inc = DMA_MEMORY_INCREASE_ENABLE;
 200              		.loc 1 96 32 is_stmt 0
 201 0024 02CC     		sw	zero,24(sp)
  97:C:/Users/stapi/OneDrive/Desktop/GD32VW553/GD32VW55X_Wifi_BLE_SDK/GD32VW55x_RELEASE_V1.0.2/MSDK/plf/src/uart\uart.c ****     dma_init_struct.periph_inc = DMA_PERIPH_INCREASE_DISABLE;
 202              		.loc 1 97 5 is_stmt 1
  97:C:/Users/stapi/OneDrive/Desktop/GD32VW553/GD32VW55X_Wifi_BLE_SDK/GD32VW55x_RELEASE_V1.0.2/MSDK/plf/src/uart\uart.c ****     dma_init_struct.periph_inc = DMA_PERIPH_INCREASE_DISABLE;
 203              		.loc 1 97 41 is_stmt 0
 204 0026 02CE     		sw	zero,28(sp)
  98:C:/Users/stapi/OneDrive/Desktop/GD32VW553/GD32VW55X_Wifi_BLE_SDK/GD32VW55x_RELEASE_V1.0.2/MSDK/plf/src/uart\uart.c ****     dma_init_struct.priority = DMA_PRIORITY_ULTRA_HIGH;
 205              		.loc 1 98 5 is_stmt 1
 206              		.loc 1 99 5
 100:C:/Users/stapi/OneDrive/Desktop/GD32VW553/GD32VW55X_Wifi_BLE_SDK/GD32VW55x_RELEASE_V1.0.2/MSDK/plf/src/uart\uart.c **** 
 101:C:/Users/stapi/OneDrive/Desktop/GD32VW553/GD32VW55X_Wifi_BLE_SDK/GD32VW55x_RELEASE_V1.0.2/MSDK/plf/src/uart\uart.c ****     if (direction == DMA_MEMORY_TO_PERIPH) {
 207              		.loc 1 101 5
 208              		.loc 1 101 8 is_stmt 0
 209 0028 93070004 		li	a5,64
 210 002c 6310F408 		bne	s0,a5,.L16
 102:C:/Users/stapi/OneDrive/Desktop/GD32VW553/GD32VW55X_Wifi_BLE_SDK/GD32VW55x_RELEASE_V1.0.2/MSDK/plf/src/uart\uart.c ****         dma_init_struct.periph_addr = (uint32_t)&USART_TDATA(uart);
 211              		.loc 1 102 9 is_stmt 1
 212              		.loc 1 102 39 is_stmt 0
 213 0030 93878402 		addi	a5,s1,40
 214              		.loc 1 102 37
 215 0034 3EC6     		sw	a5,12(sp)
 103:C:/Users/stapi/OneDrive/Desktop/GD32VW553/GD32VW55X_Wifi_BLE_SDK/GD32VW55x_RELEASE_V1.0.2/MSDK/plf/src/uart\uart.c ****     } else if (direction == DMA_PERIPH_TO_MEMORY) {
 104:C:/Users/stapi/OneDrive/Desktop/GD32VW553/GD32VW55X_Wifi_BLE_SDK/GD32VW55x_RELEASE_V1.0.2/MSDK/plf/src/uart\uart.c ****         dma_init_struct.periph_addr = (uint32_t)&USART_RDATA(uart);
 105:C:/Users/stapi/OneDrive/Desktop/GD32VW553/GD32VW55X_Wifi_BLE_SDK/GD32VW55x_RELEASE_V1.0.2/MSDK/plf/src/uart\uart.c ****     } else {
 106:C:/Users/stapi/OneDrive/Desktop/GD32VW553/GD32VW55X_Wifi_BLE_SDK/GD32VW55x_RELEASE_V1.0.2/MSDK/plf/src/uart\uart.c ****         return;
 107:C:/Users/stapi/OneDrive/Desktop/GD32VW553/GD32VW55X_Wifi_BLE_SDK/GD32VW55x_RELEASE_V1.0.2/MSDK/plf/src/uart\uart.c ****     }
 108:C:/Users/stapi/OneDrive/Desktop/GD32VW553/GD32VW55X_Wifi_BLE_SDK/GD32VW55x_RELEASE_V1.0.2/MSDK/plf/src/uart\uart.c **** 
 109:C:/Users/stapi/OneDrive/Desktop/GD32VW553/GD32VW55X_Wifi_BLE_SDK/GD32VW55x_RELEASE_V1.0.2/MSDK/plf/src/uart\uart.c ****     switch (uart) {
 216              		.loc 1 109 5 is_stmt 1
 217 0036 B7570040 		li	a5,1073762304
 218 003a 93870780 		addi	a5,a5,-2048
 110:C:/Users/stapi/OneDrive/Desktop/GD32VW553/GD32VW55X_Wifi_BLE_SDK/GD32VW55x_RELEASE_V1.0.2/MSDK/plf/src/uart\uart.c ****     case USART0:
 111:C:/Users/stapi/OneDrive/Desktop/GD32VW553/GD32VW55X_Wifi_BLE_SDK/GD32VW55x_RELEASE_V1.0.2/MSDK/plf/src/uart\uart.c ****         if (direction == DMA_MEMORY_TO_PERIPH) {
 112:C:/Users/stapi/OneDrive/Desktop/GD32VW553/GD32VW55X_Wifi_BLE_SDK/GD32VW55x_RELEASE_V1.0.2/MSDK/plf/src/uart\uart.c ****             dma_chnlx = DMA_CH7;
 219              		.loc 1 112 23 is_stmt 0
 220 003e 1D44     		li	s0,7
 221              	.LVL19:
 109:C:/Users/stapi/OneDrive/Desktop/GD32VW553/GD32VW55X_Wifi_BLE_SDK/GD32VW55x_RELEASE_V1.0.2/MSDK/plf/src/uart\uart.c ****     case USART0:
 222              		.loc 1 109 5
 223 0040 638FF400 		beq	s1,a5,.L17
 224 0044 B7170140 		li	a5,1073811456
 113:C:/Users/stapi/OneDrive/Desktop/GD32VW553/GD32VW55X_Wifi_BLE_SDK/GD32VW55x_RELEASE_V1.0.2/MSDK/plf/src/uart\uart.c ****         } else if (direction == DMA_PERIPH_TO_MEMORY) {
 114:C:/Users/stapi/OneDrive/Desktop/GD32VW553/GD32VW55X_Wifi_BLE_SDK/GD32VW55x_RELEASE_V1.0.2/MSDK/plf/src/uart\uart.c ****             dma_chnlx = DMA_CH2;
 115:C:/Users/stapi/OneDrive/Desktop/GD32VW553/GD32VW55X_Wifi_BLE_SDK/GD32VW55x_RELEASE_V1.0.2/MSDK/plf/src/uart\uart.c ****         }
 116:C:/Users/stapi/OneDrive/Desktop/GD32VW553/GD32VW55X_Wifi_BLE_SDK/GD32VW55x_RELEASE_V1.0.2/MSDK/plf/src/uart\uart.c ****         break;
 117:C:/Users/stapi/OneDrive/Desktop/GD32VW553/GD32VW55X_Wifi_BLE_SDK/GD32VW55x_RELEASE_V1.0.2/MSDK/plf/src/uart\uart.c **** 
 118:C:/Users/stapi/OneDrive/Desktop/GD32VW553/GD32VW55X_Wifi_BLE_SDK/GD32VW55x_RELEASE_V1.0.2/MSDK/plf/src/uart\uart.c ****     case UART1:
 119:C:/Users/stapi/OneDrive/Desktop/GD32VW553/GD32VW55X_Wifi_BLE_SDK/GD32VW55x_RELEASE_V1.0.2/MSDK/plf/src/uart\uart.c ****         if (direction == DMA_MEMORY_TO_PERIPH) {
 120:C:/Users/stapi/OneDrive/Desktop/GD32VW553/GD32VW55X_Wifi_BLE_SDK/GD32VW55x_RELEASE_V1.0.2/MSDK/plf/src/uart\uart.c ****             dma_chnlx = DMA_CH1;
 121:C:/Users/stapi/OneDrive/Desktop/GD32VW553/GD32VW55X_Wifi_BLE_SDK/GD32VW55x_RELEASE_V1.0.2/MSDK/plf/src/uart\uart.c ****         } else if (direction == DMA_PERIPH_TO_MEMORY) {
 122:C:/Users/stapi/OneDrive/Desktop/GD32VW553/GD32VW55X_Wifi_BLE_SDK/GD32VW55x_RELEASE_V1.0.2/MSDK/plf/src/uart\uart.c ****             dma_chnlx = DMA_CH0;
 123:C:/Users/stapi/OneDrive/Desktop/GD32VW553/GD32VW55X_Wifi_BLE_SDK/GD32VW55x_RELEASE_V1.0.2/MSDK/plf/src/uart\uart.c ****         }
 124:C:/Users/stapi/OneDrive/Desktop/GD32VW553/GD32VW55X_Wifi_BLE_SDK/GD32VW55x_RELEASE_V1.0.2/MSDK/plf/src/uart\uart.c ****         break;
 125:C:/Users/stapi/OneDrive/Desktop/GD32VW553/GD32VW55X_Wifi_BLE_SDK/GD32VW55x_RELEASE_V1.0.2/MSDK/plf/src/uart\uart.c **** 
 126:C:/Users/stapi/OneDrive/Desktop/GD32VW553/GD32VW55X_Wifi_BLE_SDK/GD32VW55x_RELEASE_V1.0.2/MSDK/plf/src/uart\uart.c ****     case UART2:
 127:C:/Users/stapi/OneDrive/Desktop/GD32VW553/GD32VW55X_Wifi_BLE_SDK/GD32VW55x_RELEASE_V1.0.2/MSDK/plf/src/uart\uart.c ****         if (direction == DMA_MEMORY_TO_PERIPH) {
 128:C:/Users/stapi/OneDrive/Desktop/GD32VW553/GD32VW55X_Wifi_BLE_SDK/GD32VW55x_RELEASE_V1.0.2/MSDK/plf/src/uart\uart.c ****             dma_chnlx = DMA_CH6;
 225              		.loc 1 128 23
 226 0048 1944     		li	s0,6
 109:C:/Users/stapi/OneDrive/Desktop/GD32VW553/GD32VW55X_Wifi_BLE_SDK/GD32VW55x_RELEASE_V1.0.2/MSDK/plf/src/uart\uart.c ****     case USART0:
 227              		.loc 1 109 5
 228 004a 638AF400 		beq	s1,a5,.L17
 229 004e B7470040 		li	a5,1073758208
 230 0052 93870740 		addi	a5,a5,1024
 231 0056 0544     		li	s0,1
 232              	.L27:
 233 0058 6383F400 		beq	s1,a5,.L17
  92:C:/Users/stapi/OneDrive/Desktop/GD32VW553/GD32VW55X_Wifi_BLE_SDK/GD32VW55x_RELEASE_V1.0.2/MSDK/plf/src/uart\uart.c **** 
 234              		.loc 1 92 22
 235 005c 0144     		li	s0,0
 236              	.L17:
 237              	.LVL20:
 129:C:/Users/stapi/OneDrive/Desktop/GD32VW553/GD32VW55X_Wifi_BLE_SDK/GD32VW55x_RELEASE_V1.0.2/MSDK/plf/src/uart\uart.c ****         } else if (direction == DMA_PERIPH_TO_MEMORY) {
 130:C:/Users/stapi/OneDrive/Desktop/GD32VW553/GD32VW55X_Wifi_BLE_SDK/GD32VW55x_RELEASE_V1.0.2/MSDK/plf/src/uart\uart.c ****             dma_chnlx = DMA_CH5;
 131:C:/Users/stapi/OneDrive/Desktop/GD32VW553/GD32VW55X_Wifi_BLE_SDK/GD32VW55x_RELEASE_V1.0.2/MSDK/plf/src/uart\uart.c ****         }
 132:C:/Users/stapi/OneDrive/Desktop/GD32VW553/GD32VW55X_Wifi_BLE_SDK/GD32VW55x_RELEASE_V1.0.2/MSDK/plf/src/uart\uart.c ****         break;
 133:C:/Users/stapi/OneDrive/Desktop/GD32VW553/GD32VW55X_Wifi_BLE_SDK/GD32VW55x_RELEASE_V1.0.2/MSDK/plf/src/uart\uart.c **** 
 134:C:/Users/stapi/OneDrive/Desktop/GD32VW553/GD32VW55X_Wifi_BLE_SDK/GD32VW55x_RELEASE_V1.0.2/MSDK/plf/src/uart\uart.c ****     default:
 135:C:/Users/stapi/OneDrive/Desktop/GD32VW553/GD32VW55X_Wifi_BLE_SDK/GD32VW55x_RELEASE_V1.0.2/MSDK/plf/src/uart\uart.c ****         break;
 136:C:/Users/stapi/OneDrive/Desktop/GD32VW553/GD32VW55X_Wifi_BLE_SDK/GD32VW55x_RELEASE_V1.0.2/MSDK/plf/src/uart\uart.c ****     }
 137:C:/Users/stapi/OneDrive/Desktop/GD32VW553/GD32VW55X_Wifi_BLE_SDK/GD32VW55x_RELEASE_V1.0.2/MSDK/plf/src/uart\uart.c **** 
 138:C:/Users/stapi/OneDrive/Desktop/GD32VW553/GD32VW55X_Wifi_BLE_SDK/GD32VW55x_RELEASE_V1.0.2/MSDK/plf/src/uart\uart.c ****     dma_deinit(dma_chnlx);
 238              		.loc 1 138 5 is_stmt 1 discriminator 1
 239 005e 2285     		mv	a0,s0
 240 0060 97000000 		call	dma_deinit
 240      E7800000 
 241              	.LVL21:
 139:C:/Users/stapi/OneDrive/Desktop/GD32VW553/GD32VW55X_Wifi_BLE_SDK/GD32VW55x_RELEASE_V1.0.2/MSDK/plf/src/uart\uart.c ****     dma_single_data_mode_init(dma_chnlx, &dma_init_struct);
 242              		.loc 1 139 5 discriminator 1
 243 0068 6C00     		addi	a1,sp,12
 244 006a 2285     		mv	a0,s0
 245 006c 97000000 		call	dma_single_data_mode_init
 245      E7800000 
 246              	.LVL22:
 140:C:/Users/stapi/OneDrive/Desktop/GD32VW553/GD32VW55X_Wifi_BLE_SDK/GD32VW55x_RELEASE_V1.0.2/MSDK/plf/src/uart\uart.c **** 
 141:C:/Users/stapi/OneDrive/Desktop/GD32VW553/GD32VW55X_Wifi_BLE_SDK/GD32VW55x_RELEASE_V1.0.2/MSDK/plf/src/uart\uart.c ****     dma_circulation_disable(dma_chnlx);
 247              		.loc 1 141 5 discriminator 1
 248 0074 2285     		mv	a0,s0
 249 0076 97000000 		call	dma_circulation_disable
 249      E7800000 
 250              	.LVL23:
 142:C:/Users/stapi/OneDrive/Desktop/GD32VW553/GD32VW55X_Wifi_BLE_SDK/GD32VW55x_RELEASE_V1.0.2/MSDK/plf/src/uart\uart.c ****     dma_channel_subperipheral_select(dma_chnlx, DMA_SUBPERI4);
 251              		.loc 1 142 5 discriminator 1
 252 007e 9145     		li	a1,4
 253 0080 2285     		mv	a0,s0
 254 0082 97000000 		call	dma_channel_subperipheral_select
 254      E7800000 
 255              	.LVL24:
 143:C:/Users/stapi/OneDrive/Desktop/GD32VW553/GD32VW55X_Wifi_BLE_SDK/GD32VW55x_RELEASE_V1.0.2/MSDK/plf/src/uart\uart.c ****     dma_flow_controller_config(dma_chnlx, DMA_FLOW_CONTROLLER_DMA);
 256              		.loc 1 143 5 discriminator 1
 257 008a 8145     		li	a1,0
 258 008c 2285     		mv	a0,s0
 259 008e 97000000 		call	dma_flow_controller_config
 259      E7800000 
 260              	.LVL25:
 144:C:/Users/stapi/OneDrive/Desktop/GD32VW553/GD32VW55X_Wifi_BLE_SDK/GD32VW55x_RELEASE_V1.0.2/MSDK/plf/src/uart\uart.c **** 
 145:C:/Users/stapi/OneDrive/Desktop/GD32VW553/GD32VW55X_Wifi_BLE_SDK/GD32VW55x_RELEASE_V1.0.2/MSDK/plf/src/uart\uart.c ****     dma_interrupt_enable(dma_chnlx, DMA_INT_FTF);
 261              		.loc 1 145 5 discriminator 1
 262 0096 C145     		li	a1,16
 263 0098 2285     		mv	a0,s0
 264 009a 97000000 		call	dma_interrupt_enable
 264      E7800000 
 265              	.LVL26:
 266              	.L15:
 146:C:/Users/stapi/OneDrive/Desktop/GD32VW553/GD32VW55X_Wifi_BLE_SDK/GD32VW55x_RELEASE_V1.0.2/MSDK/plf/src/uart\uart.c **** }
 267              		.loc 1 146 1 is_stmt 0
 268 00a2 4561     		addi	sp,sp,48
 269              		.cfi_remember_state
 270              		.cfi_def_cfa_offset 0
 271 00a4 17030000 		tail	__riscv_restore_2
 271      67000300 
 272              		.cfi_restore 9
 273              		.cfi_restore 8
 274              		.cfi_restore 1
 275              		.cfi_def_cfa_offset -16
 276              	.LVL27:
 277              	.L16:
 278              		.cfi_restore_state
 103:C:/Users/stapi/OneDrive/Desktop/GD32VW553/GD32VW55X_Wifi_BLE_SDK/GD32VW55x_RELEASE_V1.0.2/MSDK/plf/src/uart\uart.c ****         dma_init_struct.periph_addr = (uint32_t)&USART_RDATA(uart);
 279              		.loc 1 103 12 is_stmt 1
 103:C:/Users/stapi/OneDrive/Desktop/GD32VW553/GD32VW55X_Wifi_BLE_SDK/GD32VW55x_RELEASE_V1.0.2/MSDK/plf/src/uart\uart.c ****         dma_init_struct.periph_addr = (uint32_t)&USART_RDATA(uart);
 280              		.loc 1 103 15 is_stmt 0
 281 00ac 7DF8     		bne	s0,zero,.L15
 104:C:/Users/stapi/OneDrive/Desktop/GD32VW553/GD32VW55X_Wifi_BLE_SDK/GD32VW55x_RELEASE_V1.0.2/MSDK/plf/src/uart\uart.c ****     } else {
 282              		.loc 1 104 9 is_stmt 1
 104:C:/Users/stapi/OneDrive/Desktop/GD32VW553/GD32VW55X_Wifi_BLE_SDK/GD32VW55x_RELEASE_V1.0.2/MSDK/plf/src/uart\uart.c ****     } else {
 283              		.loc 1 104 39 is_stmt 0
 284 00ae 93874402 		addi	a5,s1,36
 104:C:/Users/stapi/OneDrive/Desktop/GD32VW553/GD32VW55X_Wifi_BLE_SDK/GD32VW55x_RELEASE_V1.0.2/MSDK/plf/src/uart\uart.c ****     } else {
 285              		.loc 1 104 37
 286 00b2 3EC6     		sw	a5,12(sp)
 109:C:/Users/stapi/OneDrive/Desktop/GD32VW553/GD32VW55X_Wifi_BLE_SDK/GD32VW55x_RELEASE_V1.0.2/MSDK/plf/src/uart\uart.c ****     case USART0:
 287              		.loc 1 109 5 is_stmt 1
 288 00b4 B7570040 		li	a5,1073762304
 289 00b8 93870780 		addi	a5,a5,-2048
 114:C:/Users/stapi/OneDrive/Desktop/GD32VW553/GD32VW55X_Wifi_BLE_SDK/GD32VW55x_RELEASE_V1.0.2/MSDK/plf/src/uart\uart.c ****         }
 290              		.loc 1 114 23 is_stmt 0
 291 00bc 0944     		li	s0,2
 292              	.LVL28:
 109:C:/Users/stapi/OneDrive/Desktop/GD32VW553/GD32VW55X_Wifi_BLE_SDK/GD32VW55x_RELEASE_V1.0.2/MSDK/plf/src/uart\uart.c ****     case USART0:
 293              		.loc 1 109 5
 294 00be E380F4FA 		beq	s1,a5,.L17
 295 00c2 B7170140 		li	a5,1073811456
 130:C:/Users/stapi/OneDrive/Desktop/GD32VW553/GD32VW55X_Wifi_BLE_SDK/GD32VW55x_RELEASE_V1.0.2/MSDK/plf/src/uart\uart.c ****         }
 296              		.loc 1 130 23
 297 00c6 1544     		li	s0,5
 298 00c8 41BF     		j	.L27
 299              		.cfi_endproc
 300              	.LFE368:
 302              		.section	.text.uart_config,"ax",@progbits
 303              		.align	1
 304              		.globl	uart_config
 306              	uart_config:
 307              	.LFB369:
 147:C:/Users/stapi/OneDrive/Desktop/GD32VW553/GD32VW55X_Wifi_BLE_SDK/GD32VW55x_RELEASE_V1.0.2/MSDK/plf/src/uart\uart.c **** 
 148:C:/Users/stapi/OneDrive/Desktop/GD32VW553/GD32VW55X_Wifi_BLE_SDK/GD32VW55x_RELEASE_V1.0.2/MSDK/plf/src/uart\uart.c **** /*!
 149:C:/Users/stapi/OneDrive/Desktop/GD32VW553/GD32VW55X_Wifi_BLE_SDK/GD32VW55x_RELEASE_V1.0.2/MSDK/plf/src/uart\uart.c ****     \brief      configure usart
 150:C:/Users/stapi/OneDrive/Desktop/GD32VW553/GD32VW55X_Wifi_BLE_SDK/GD32VW55x_RELEASE_V1.0.2/MSDK/plf/src/uart\uart.c ****     \param[in]  usart_periph: USARTx(x=0,1)
 151:C:/Users/stapi/OneDrive/Desktop/GD32VW553/GD32VW55X_Wifi_BLE_SDK/GD32VW55x_RELEASE_V1.0.2/MSDK/plf/src/uart\uart.c ****     \param[out] none
 152:C:/Users/stapi/OneDrive/Desktop/GD32VW553/GD32VW55X_Wifi_BLE_SDK/GD32VW55x_RELEASE_V1.0.2/MSDK/plf/src/uart\uart.c ****     \retval     none
 153:C:/Users/stapi/OneDrive/Desktop/GD32VW553/GD32VW55X_Wifi_BLE_SDK/GD32VW55x_RELEASE_V1.0.2/MSDK/plf/src/uart\uart.c **** */
 154:C:/Users/stapi/OneDrive/Desktop/GD32VW553/GD32VW55X_Wifi_BLE_SDK/GD32VW55x_RELEASE_V1.0.2/MSDK/plf/src/uart\uart.c **** void uart_config(uint32_t usart_periph, uint32_t baudrate, bool flow_cntl, bool dma_rx, bool dma_tx
 155:C:/Users/stapi/OneDrive/Desktop/GD32VW553/GD32VW55X_Wifi_BLE_SDK/GD32VW55x_RELEASE_V1.0.2/MSDK/plf/src/uart\uart.c **** {
 308              		.loc 1 155 1 is_stmt 1
 309              		.cfi_startproc
 310              	.LVL29:
 311 0000 17030000 		call	t0,__riscv_save_6
 311      E7020300 
 312              		.cfi_offset 21, -28
 313              		.cfi_offset 20, -24
 314              		.cfi_offset 19, -20
 315              		.cfi_offset 18, -16
 316              		.cfi_offset 9, -12
 317              		.cfi_offset 8, -8
 318              		.cfi_offset 1, -4
 319              		.cfi_def_cfa_offset 32
 156:C:/Users/stapi/OneDrive/Desktop/GD32VW553/GD32VW55X_Wifi_BLE_SDK/GD32VW55x_RELEASE_V1.0.2/MSDK/plf/src/uart\uart.c ****     rcu_periph_clock_enable(RCU_GPIOA);
 320              		.loc 1 156 5
 321 0008 0569     		li	s2,4096
 155:C:/Users/stapi/OneDrive/Desktop/GD32VW553/GD32VW55X_Wifi_BLE_SDK/GD32VW55x_RELEASE_V1.0.2/MSDK/plf/src/uart\uart.c ****     rcu_periph_clock_enable(RCU_GPIOA);
 322              		.loc 1 155 1 is_stmt 0
 323 000a 2A84     		mv	s0,a0
 324              		.loc 1 156 5
 325 000c 130509C0 		addi	a0,s2,-1024
 326              	.LVL30:
 155:C:/Users/stapi/OneDrive/Desktop/GD32VW553/GD32VW55X_Wifi_BLE_SDK/GD32VW55x_RELEASE_V1.0.2/MSDK/plf/src/uart\uart.c ****     rcu_periph_clock_enable(RCU_GPIOA);
 327              		.loc 1 155 1
 328 0010 AE8A     		mv	s5,a1
 329 0012 B284     		mv	s1,a2
 330 0014 368A     		mv	s4,a3
 331 0016 BA89     		mv	s3,a4
 332              		.loc 1 156 5
 333 0018 97000000 		call	rcu_periph_clock_enable
 333      E7800000 
 334              	.LVL31:
 157:C:/Users/stapi/OneDrive/Desktop/GD32VW553/GD32VW55X_Wifi_BLE_SDK/GD32VW55x_RELEASE_V1.0.2/MSDK/plf/src/uart\uart.c ****     rcu_periph_clock_enable(RCU_GPIOB);
 335              		.loc 1 157 5 is_stmt 1
 336 0020 130519C0 		addi	a0,s2,-1023
 337 0024 97000000 		call	rcu_periph_clock_enable
 337      E7800000 
 338              	.LVL32:
 158:C:/Users/stapi/OneDrive/Desktop/GD32VW553/GD32VW55X_Wifi_BLE_SDK/GD32VW55x_RELEASE_V1.0.2/MSDK/plf/src/uart\uart.c **** 
 159:C:/Users/stapi/OneDrive/Desktop/GD32VW553/GD32VW55X_Wifi_BLE_SDK/GD32VW55x_RELEASE_V1.0.2/MSDK/plf/src/uart\uart.c ****     if (usart_periph == USART0) {
 339              		.loc 1 159 5
 340              		.loc 1 159 8 is_stmt 0
 341 002c B7570040 		li	a5,1073762304
 342 0030 93870780 		addi	a5,a5,-2048
 343 0034 631BF41C 		bne	s0,a5,.L29
 160:C:/Users/stapi/OneDrive/Desktop/GD32VW553/GD32VW55X_Wifi_BLE_SDK/GD32VW55x_RELEASE_V1.0.2/MSDK/plf/src/uart\uart.c ****         rcu_periph_clock_enable(RCU_USART0);
 344              		.loc 1 160 9 is_stmt 1
 345 0038 13052901 		addi	a0,s2,18
 346 003c 97000000 		call	rcu_periph_clock_enable
 346      E7800000 
 347              	.LVL33:
 161:C:/Users/stapi/OneDrive/Desktop/GD32VW553/GD32VW55X_Wifi_BLE_SDK/GD32VW55x_RELEASE_V1.0.2/MSDK/plf/src/uart\uart.c **** 
 162:C:/Users/stapi/OneDrive/Desktop/GD32VW553/GD32VW55X_Wifi_BLE_SDK/GD32VW55x_RELEASE_V1.0.2/MSDK/plf/src/uart\uart.c ****         gpio_af_set(USART0_TX_GPIO, USART0_TX_AF_NUM, USART0_TX_PIN);
 348              		.loc 1 162 9
 349 0044 0546     		li	a2,1
 350 0046 8145     		li	a1,0
 351 0048 37050240 		li	a0,1073872896
 352 004c 97000000 		call	gpio_af_set
 352      E7800000 
 353              	.LVL34:
 163:C:/Users/stapi/OneDrive/Desktop/GD32VW553/GD32VW55X_Wifi_BLE_SDK/GD32VW55x_RELEASE_V1.0.2/MSDK/plf/src/uart\uart.c ****         gpio_af_set(USART0_RX_GPIO, USART0_RX_AF_NUM, USART0_RX_PIN);
 354              		.loc 1 163 9
 355 0054 0946     		li	a2,2
 356 0056 8145     		li	a1,0
 357 0058 37050240 		li	a0,1073872896
 358 005c 97000000 		call	gpio_af_set
 358      E7800000 
 359              	.LVL35:
 164:C:/Users/stapi/OneDrive/Desktop/GD32VW553/GD32VW55X_Wifi_BLE_SDK/GD32VW55x_RELEASE_V1.0.2/MSDK/plf/src/uart\uart.c ****         gpio_mode_set(USART0_TX_GPIO, GPIO_MODE_AF, GPIO_PUPD_PULLUP, USART0_TX_PIN);
 360              		.loc 1 164 9
 361 0064 8546     		li	a3,1
 362 0066 0546     		li	a2,1
 363 0068 8945     		li	a1,2
 364 006a 37050240 		li	a0,1073872896
 365 006e 97000000 		call	gpio_mode_set
 365      E7800000 
 366              	.LVL36:
 165:C:/Users/stapi/OneDrive/Desktop/GD32VW553/GD32VW55X_Wifi_BLE_SDK/GD32VW55x_RELEASE_V1.0.2/MSDK/plf/src/uart\uart.c ****         gpio_output_options_set(USART0_TX_GPIO, GPIO_OTYPE_PP, GPIO_OSPEED_25MHZ, USART0_TX_PIN);
 367              		.loc 1 165 9
 368 0076 8546     		li	a3,1
 369 0078 0946     		li	a2,2
 370 007a 8145     		li	a1,0
 371 007c 37050240 		li	a0,1073872896
 372 0080 97000000 		call	gpio_output_options_set
 372      E7800000 
 373              	.LVL37:
 166:C:/Users/stapi/OneDrive/Desktop/GD32VW553/GD32VW55X_Wifi_BLE_SDK/GD32VW55x_RELEASE_V1.0.2/MSDK/plf/src/uart\uart.c ****         gpio_mode_set(USART0_RX_GPIO, GPIO_MODE_AF, GPIO_PUPD_PULLUP, USART0_RX_PIN);
 374              		.loc 1 166 9
 375 0088 8946     		li	a3,2
 376 008a 0546     		li	a2,1
 377 008c 8945     		li	a1,2
 378 008e 37050240 		li	a0,1073872896
 379 0092 97000000 		call	gpio_mode_set
 379      E7800000 
 380              	.LVL38:
 167:C:/Users/stapi/OneDrive/Desktop/GD32VW553/GD32VW55X_Wifi_BLE_SDK/GD32VW55x_RELEASE_V1.0.2/MSDK/plf/src/uart\uart.c ****         gpio_output_options_set(USART0_RX_GPIO, GPIO_OTYPE_PP, GPIO_OSPEED_25MHZ, USART0_RX_PIN);
 381              		.loc 1 167 9
 382 009a 8946     		li	a3,2
 383 009c 0946     		li	a2,2
 384 009e 8145     		li	a1,0
 385 00a0 37050240 		li	a0,1073872896
 386 00a4 97000000 		call	gpio_output_options_set
 386      E7800000 
 387              	.LVL39:
 168:C:/Users/stapi/OneDrive/Desktop/GD32VW553/GD32VW55X_Wifi_BLE_SDK/GD32VW55x_RELEASE_V1.0.2/MSDK/plf/src/uart\uart.c **** 
 169:C:/Users/stapi/OneDrive/Desktop/GD32VW553/GD32VW55X_Wifi_BLE_SDK/GD32VW55x_RELEASE_V1.0.2/MSDK/plf/src/uart\uart.c **** #ifdef CONFIG_PLATFORM_ASIC
 170:C:/Users/stapi/OneDrive/Desktop/GD32VW553/GD32VW55X_Wifi_BLE_SDK/GD32VW55x_RELEASE_V1.0.2/MSDK/plf/src/uart\uart.c ****         /* configure cts/rts */
 171:C:/Users/stapi/OneDrive/Desktop/GD32VW553/GD32VW55X_Wifi_BLE_SDK/GD32VW55x_RELEASE_V1.0.2/MSDK/plf/src/uart\uart.c ****         if (flow_cntl) {
 388              		.loc 1 171 9
 389              		.loc 1 171 12 is_stmt 0
 390 00ac ADC4     		beq	s1,zero,.L31
 172:C:/Users/stapi/OneDrive/Desktop/GD32VW553/GD32VW55X_Wifi_BLE_SDK/GD32VW55x_RELEASE_V1.0.2/MSDK/plf/src/uart\uart.c ****             gpio_af_set(USART0_CTS_GPIO, USART0_CTS_AF_NUM, USART0_CTS_PIN);
 391              		.loc 1 172 13 is_stmt 1
 392 00ae 1146     		li	a2,4
 393 00b0 8145     		li	a1,0
 394 00b2 37050240 		li	a0,1073872896
 395 00b6 97000000 		call	gpio_af_set
 395      E7800000 
 396              	.LVL40:
 173:C:/Users/stapi/OneDrive/Desktop/GD32VW553/GD32VW55X_Wifi_BLE_SDK/GD32VW55x_RELEASE_V1.0.2/MSDK/plf/src/uart\uart.c ****             gpio_af_set(USART0_RTS_GPIO, USART0_RTS_AF_NUM, USART0_RTS_PIN);
 397              		.loc 1 173 13
 398 00be 2146     		li	a2,8
 399 00c0 8145     		li	a1,0
 400 00c2 37050240 		li	a0,1073872896
 401 00c6 97000000 		call	gpio_af_set
 401      E7800000 
 402              	.LVL41:
 174:C:/Users/stapi/OneDrive/Desktop/GD32VW553/GD32VW55X_Wifi_BLE_SDK/GD32VW55x_RELEASE_V1.0.2/MSDK/plf/src/uart\uart.c ****             gpio_mode_set(USART0_CTS_GPIO, GPIO_MODE_INPUT, GPIO_PUPD_NONE, USART0_CTS_PIN);
 403              		.loc 1 174 13
 404 00ce 9146     		li	a3,4
 405 00d0 0146     		li	a2,0
 406 00d2 8145     		li	a1,0
 407 00d4 37050240 		li	a0,1073872896
 408 00d8 97000000 		call	gpio_mode_set
 408      E7800000 
 409              	.LVL42:
 175:C:/Users/stapi/OneDrive/Desktop/GD32VW553/GD32VW55X_Wifi_BLE_SDK/GD32VW55x_RELEASE_V1.0.2/MSDK/plf/src/uart\uart.c ****             gpio_output_options_set(USART0_CTS_GPIO, GPIO_OTYPE_PP, GPIO_OSPEED_25MHZ, USART0_CTS_P
 410              		.loc 1 175 13
 411 00e0 9146     		li	a3,4
 412 00e2 0946     		li	a2,2
 413 00e4 8145     		li	a1,0
 414 00e6 37050240 		li	a0,1073872896
 415 00ea 97000000 		call	gpio_output_options_set
 415      E7800000 
 416              	.LVL43:
 176:C:/Users/stapi/OneDrive/Desktop/GD32VW553/GD32VW55X_Wifi_BLE_SDK/GD32VW55x_RELEASE_V1.0.2/MSDK/plf/src/uart\uart.c ****             gpio_mode_set(USART0_RTS_GPIO, GPIO_MODE_AF, GPIO_PUPD_PULLUP, USART0_RTS_PIN);
 417              		.loc 1 176 13
 418 00f2 A146     		li	a3,8
 419 00f4 0546     		li	a2,1
 420 00f6 8945     		li	a1,2
 421 00f8 37050240 		li	a0,1073872896
 422 00fc 97000000 		call	gpio_mode_set
 422      E7800000 
 423              	.LVL44:
 177:C:/Users/stapi/OneDrive/Desktop/GD32VW553/GD32VW55X_Wifi_BLE_SDK/GD32VW55x_RELEASE_V1.0.2/MSDK/plf/src/uart\uart.c ****             gpio_output_options_set(USART0_RTS_GPIO, GPIO_OTYPE_PP, GPIO_OSPEED_25MHZ, USART0_RTS_P
 424              		.loc 1 177 13
 425 0104 A146     		li	a3,8
 426              	.L53:
 178:C:/Users/stapi/OneDrive/Desktop/GD32VW553/GD32VW55X_Wifi_BLE_SDK/GD32VW55x_RELEASE_V1.0.2/MSDK/plf/src/uart\uart.c ****         }
 179:C:/Users/stapi/OneDrive/Desktop/GD32VW553/GD32VW55X_Wifi_BLE_SDK/GD32VW55x_RELEASE_V1.0.2/MSDK/plf/src/uart\uart.c **** #endif
 180:C:/Users/stapi/OneDrive/Desktop/GD32VW553/GD32VW55X_Wifi_BLE_SDK/GD32VW55x_RELEASE_V1.0.2/MSDK/plf/src/uart\uart.c ****     }
 181:C:/Users/stapi/OneDrive/Desktop/GD32VW553/GD32VW55X_Wifi_BLE_SDK/GD32VW55x_RELEASE_V1.0.2/MSDK/plf/src/uart\uart.c ****     else if (usart_periph == UART1) {
 182:C:/Users/stapi/OneDrive/Desktop/GD32VW553/GD32VW55X_Wifi_BLE_SDK/GD32VW55x_RELEASE_V1.0.2/MSDK/plf/src/uart\uart.c ****         rcu_periph_clock_enable(RCU_UART1);
 183:C:/Users/stapi/OneDrive/Desktop/GD32VW553/GD32VW55X_Wifi_BLE_SDK/GD32VW55x_RELEASE_V1.0.2/MSDK/plf/src/uart\uart.c **** 
 184:C:/Users/stapi/OneDrive/Desktop/GD32VW553/GD32VW55X_Wifi_BLE_SDK/GD32VW55x_RELEASE_V1.0.2/MSDK/plf/src/uart\uart.c ****         gpio_af_set(UART1_TX_GPIO, UART1_TX_AF_NUM, UART1_TX_PIN);
 185:C:/Users/stapi/OneDrive/Desktop/GD32VW553/GD32VW55X_Wifi_BLE_SDK/GD32VW55x_RELEASE_V1.0.2/MSDK/plf/src/uart\uart.c ****         gpio_af_set(UART1_RX_GPIO, UART1_RX_AF_NUM, UART1_RX_PIN);
 186:C:/Users/stapi/OneDrive/Desktop/GD32VW553/GD32VW55X_Wifi_BLE_SDK/GD32VW55x_RELEASE_V1.0.2/MSDK/plf/src/uart\uart.c ****         gpio_mode_set(UART1_TX_GPIO, GPIO_MODE_AF, GPIO_PUPD_NONE, UART1_TX_PIN);
 187:C:/Users/stapi/OneDrive/Desktop/GD32VW553/GD32VW55X_Wifi_BLE_SDK/GD32VW55x_RELEASE_V1.0.2/MSDK/plf/src/uart\uart.c ****         gpio_output_options_set(UART1_TX_GPIO, GPIO_OTYPE_PP, GPIO_OSPEED_25MHZ, UART1_TX_PIN);
 188:C:/Users/stapi/OneDrive/Desktop/GD32VW553/GD32VW55X_Wifi_BLE_SDK/GD32VW55x_RELEASE_V1.0.2/MSDK/plf/src/uart\uart.c ****         gpio_mode_set(UART1_RX_GPIO, GPIO_MODE_AF, GPIO_PUPD_NONE, UART1_RX_PIN);
 189:C:/Users/stapi/OneDrive/Desktop/GD32VW553/GD32VW55X_Wifi_BLE_SDK/GD32VW55x_RELEASE_V1.0.2/MSDK/plf/src/uart\uart.c ****         gpio_output_options_set(UART1_RX_GPIO, GPIO_OTYPE_PP, GPIO_OSPEED_25MHZ, UART1_RX_PIN);
 190:C:/Users/stapi/OneDrive/Desktop/GD32VW553/GD32VW55X_Wifi_BLE_SDK/GD32VW55x_RELEASE_V1.0.2/MSDK/plf/src/uart\uart.c **** 
 191:C:/Users/stapi/OneDrive/Desktop/GD32VW553/GD32VW55X_Wifi_BLE_SDK/GD32VW55x_RELEASE_V1.0.2/MSDK/plf/src/uart\uart.c **** #ifdef CONFIG_PLATFORM_ASIC
 192:C:/Users/stapi/OneDrive/Desktop/GD32VW553/GD32VW55X_Wifi_BLE_SDK/GD32VW55x_RELEASE_V1.0.2/MSDK/plf/src/uart\uart.c ****         if (flow_cntl) {
 193:C:/Users/stapi/OneDrive/Desktop/GD32VW553/GD32VW55X_Wifi_BLE_SDK/GD32VW55x_RELEASE_V1.0.2/MSDK/plf/src/uart\uart.c ****             /* configure cts/rts */
 194:C:/Users/stapi/OneDrive/Desktop/GD32VW553/GD32VW55X_Wifi_BLE_SDK/GD32VW55x_RELEASE_V1.0.2/MSDK/plf/src/uart\uart.c ****             gpio_af_set(UART1_CTS_GPIO, UART1_CTS_AF_NUM, UART1_CTS_PIN);
 195:C:/Users/stapi/OneDrive/Desktop/GD32VW553/GD32VW55X_Wifi_BLE_SDK/GD32VW55x_RELEASE_V1.0.2/MSDK/plf/src/uart\uart.c ****             gpio_af_set(UART1_RTS_GPIO, UART1_RTS_AF_NUM, UART1_RTS_PIN);
 196:C:/Users/stapi/OneDrive/Desktop/GD32VW553/GD32VW55X_Wifi_BLE_SDK/GD32VW55x_RELEASE_V1.0.2/MSDK/plf/src/uart\uart.c ****             gpio_mode_set(UART1_CTS_GPIO, GPIO_MODE_INPUT, GPIO_PUPD_NONE, UART1_CTS_PIN);
 197:C:/Users/stapi/OneDrive/Desktop/GD32VW553/GD32VW55X_Wifi_BLE_SDK/GD32VW55x_RELEASE_V1.0.2/MSDK/plf/src/uart\uart.c ****             gpio_output_options_set(UART1_CTS_GPIO, GPIO_OTYPE_PP, GPIO_OSPEED_25MHZ, UART1_CTS_PIN
 198:C:/Users/stapi/OneDrive/Desktop/GD32VW553/GD32VW55X_Wifi_BLE_SDK/GD32VW55x_RELEASE_V1.0.2/MSDK/plf/src/uart\uart.c ****             gpio_mode_set(UART1_RTS_GPIO, GPIO_MODE_AF, GPIO_PUPD_NONE, UART1_RTS_PIN);
 199:C:/Users/stapi/OneDrive/Desktop/GD32VW553/GD32VW55X_Wifi_BLE_SDK/GD32VW55x_RELEASE_V1.0.2/MSDK/plf/src/uart\uart.c ****             gpio_output_options_set(UART1_RTS_GPIO, GPIO_OTYPE_PP, GPIO_OSPEED_25MHZ, UART1_RTS_PIN
 427              		.loc 1 199 13 is_stmt 0
 428 0106 0946     		li	a2,2
 429 0108 8145     		li	a1,0
 430 010a 37050240 		li	a0,1073872896
 431              	.L51:
 200:C:/Users/stapi/OneDrive/Desktop/GD32VW553/GD32VW55X_Wifi_BLE_SDK/GD32VW55x_RELEASE_V1.0.2/MSDK/plf/src/uart\uart.c ****         }
 201:C:/Users/stapi/OneDrive/Desktop/GD32VW553/GD32VW55X_Wifi_BLE_SDK/GD32VW55x_RELEASE_V1.0.2/MSDK/plf/src/uart\uart.c **** #endif
 202:C:/Users/stapi/OneDrive/Desktop/GD32VW553/GD32VW55X_Wifi_BLE_SDK/GD32VW55x_RELEASE_V1.0.2/MSDK/plf/src/uart\uart.c ****     } else if (usart_periph == UART2) {
 203:C:/Users/stapi/OneDrive/Desktop/GD32VW553/GD32VW55X_Wifi_BLE_SDK/GD32VW55x_RELEASE_V1.0.2/MSDK/plf/src/uart\uart.c ****         rcu_periph_clock_enable(RCU_UART2);
 204:C:/Users/stapi/OneDrive/Desktop/GD32VW553/GD32VW55X_Wifi_BLE_SDK/GD32VW55x_RELEASE_V1.0.2/MSDK/plf/src/uart\uart.c **** 
 205:C:/Users/stapi/OneDrive/Desktop/GD32VW553/GD32VW55X_Wifi_BLE_SDK/GD32VW55x_RELEASE_V1.0.2/MSDK/plf/src/uart\uart.c ****         gpio_af_set(UART2_TX_GPIO, UART2_TX_AF_NUM, UART2_TX_PIN);
 206:C:/Users/stapi/OneDrive/Desktop/GD32VW553/GD32VW55X_Wifi_BLE_SDK/GD32VW55x_RELEASE_V1.0.2/MSDK/plf/src/uart\uart.c ****         gpio_af_set(UART2_RX_GPIO, UART2_RX_AF_NUM, UART2_RX_PIN);
 207:C:/Users/stapi/OneDrive/Desktop/GD32VW553/GD32VW55X_Wifi_BLE_SDK/GD32VW55x_RELEASE_V1.0.2/MSDK/plf/src/uart\uart.c ****         gpio_mode_set(UART2_TX_GPIO, GPIO_MODE_AF, GPIO_PUPD_NONE, UART2_TX_PIN);
 208:C:/Users/stapi/OneDrive/Desktop/GD32VW553/GD32VW55X_Wifi_BLE_SDK/GD32VW55x_RELEASE_V1.0.2/MSDK/plf/src/uart\uart.c ****         gpio_output_options_set(UART2_TX_GPIO, GPIO_OTYPE_PP, GPIO_OSPEED_25MHZ, UART2_TX_PIN);
 209:C:/Users/stapi/OneDrive/Desktop/GD32VW553/GD32VW55X_Wifi_BLE_SDK/GD32VW55x_RELEASE_V1.0.2/MSDK/plf/src/uart\uart.c ****         gpio_mode_set(UART2_RX_GPIO, GPIO_MODE_AF, GPIO_PUPD_NONE, UART2_RX_PIN);
 210:C:/Users/stapi/OneDrive/Desktop/GD32VW553/GD32VW55X_Wifi_BLE_SDK/GD32VW55x_RELEASE_V1.0.2/MSDK/plf/src/uart\uart.c ****         gpio_output_options_set(UART2_RX_GPIO, GPIO_OTYPE_PP, GPIO_OSPEED_25MHZ, UART2_RX_PIN);
 211:C:/Users/stapi/OneDrive/Desktop/GD32VW553/GD32VW55X_Wifi_BLE_SDK/GD32VW55x_RELEASE_V1.0.2/MSDK/plf/src/uart\uart.c **** 
 212:C:/Users/stapi/OneDrive/Desktop/GD32VW553/GD32VW55X_Wifi_BLE_SDK/GD32VW55x_RELEASE_V1.0.2/MSDK/plf/src/uart\uart.c ****         if (flow_cntl) {
 213:C:/Users/stapi/OneDrive/Desktop/GD32VW553/GD32VW55X_Wifi_BLE_SDK/GD32VW55x_RELEASE_V1.0.2/MSDK/plf/src/uart\uart.c ****             /* configure cts/rts */
 214:C:/Users/stapi/OneDrive/Desktop/GD32VW553/GD32VW55X_Wifi_BLE_SDK/GD32VW55x_RELEASE_V1.0.2/MSDK/plf/src/uart\uart.c ****             gpio_af_set(UART2_CTS_GPIO, UART2_CTS_AF_NUM, UART2_CTS_PIN);
 215:C:/Users/stapi/OneDrive/Desktop/GD32VW553/GD32VW55X_Wifi_BLE_SDK/GD32VW55x_RELEASE_V1.0.2/MSDK/plf/src/uart\uart.c ****             gpio_af_set(UART2_RTS_GPIO, UART2_RTS_AF_NUM, UART2_RTS_PIN);
 216:C:/Users/stapi/OneDrive/Desktop/GD32VW553/GD32VW55X_Wifi_BLE_SDK/GD32VW55x_RELEASE_V1.0.2/MSDK/plf/src/uart\uart.c ****             gpio_mode_set(UART2_CTS_GPIO, GPIO_MODE_INPUT, GPIO_PUPD_NONE, UART2_CTS_PIN);
 217:C:/Users/stapi/OneDrive/Desktop/GD32VW553/GD32VW55X_Wifi_BLE_SDK/GD32VW55x_RELEASE_V1.0.2/MSDK/plf/src/uart\uart.c ****             gpio_output_options_set(UART2_CTS_GPIO, GPIO_OTYPE_PP, GPIO_OSPEED_25MHZ, UART2_CTS_PIN
 218:C:/Users/stapi/OneDrive/Desktop/GD32VW553/GD32VW55X_Wifi_BLE_SDK/GD32VW55x_RELEASE_V1.0.2/MSDK/plf/src/uart\uart.c ****             gpio_mode_set(UART2_RTS_GPIO, GPIO_MODE_AF, GPIO_PUPD_NONE, UART2_RTS_PIN);
 219:C:/Users/stapi/OneDrive/Desktop/GD32VW553/GD32VW55X_Wifi_BLE_SDK/GD32VW55x_RELEASE_V1.0.2/MSDK/plf/src/uart\uart.c ****             gpio_output_options_set(UART2_RTS_GPIO, GPIO_OTYPE_PP, GPIO_OSPEED_25MHZ, UART2_RTS_PIN
 432              		.loc 1 219 13
 433 010e 97000000 		call	gpio_output_options_set
 433      E7800000 
 434              	.LVL45:
 435              	.L31:
 220:C:/Users/stapi/OneDrive/Desktop/GD32VW553/GD32VW55X_Wifi_BLE_SDK/GD32VW55x_RELEASE_V1.0.2/MSDK/plf/src/uart\uart.c ****         }
 221:C:/Users/stapi/OneDrive/Desktop/GD32VW553/GD32VW55X_Wifi_BLE_SDK/GD32VW55x_RELEASE_V1.0.2/MSDK/plf/src/uart\uart.c ****     }
 222:C:/Users/stapi/OneDrive/Desktop/GD32VW553/GD32VW55X_Wifi_BLE_SDK/GD32VW55x_RELEASE_V1.0.2/MSDK/plf/src/uart\uart.c **** 
 223:C:/Users/stapi/OneDrive/Desktop/GD32VW553/GD32VW55X_Wifi_BLE_SDK/GD32VW55x_RELEASE_V1.0.2/MSDK/plf/src/uart\uart.c ****     /* close printf buffer */
 224:C:/Users/stapi/OneDrive/Desktop/GD32VW553/GD32VW55X_Wifi_BLE_SDK/GD32VW55x_RELEASE_V1.0.2/MSDK/plf/src/uart\uart.c ****     setvbuf(stdout, NULL, _IONBF, 0);
 436              		.loc 1 224 5 is_stmt 1
 437              		.loc 1 224 13 is_stmt 0
 438 0116 B7070000 		lui	a5,%hi(_impure_ptr)
 439 011a 83A70700 		lw	a5,%lo(_impure_ptr)(a5)
 440              		.loc 1 224 5
 441 011e 8146     		li	a3,0
 442 0120 0946     		li	a2,2
 443 0122 8847     		lw	a0,8(a5)
 444 0124 8145     		li	a1,0
 445 0126 97000000 		call	setvbuf
 445      E7800000 
 446              	.LVL46:
 225:C:/Users/stapi/OneDrive/Desktop/GD32VW553/GD32VW55X_Wifi_BLE_SDK/GD32VW55x_RELEASE_V1.0.2/MSDK/plf/src/uart\uart.c **** 
 226:C:/Users/stapi/OneDrive/Desktop/GD32VW553/GD32VW55X_Wifi_BLE_SDK/GD32VW55x_RELEASE_V1.0.2/MSDK/plf/src/uart\uart.c ****     usart_deinit(usart_periph);
 447              		.loc 1 226 5 is_stmt 1
 448 012e 2285     		mv	a0,s0
 449 0130 97000000 		call	usart_deinit
 449      E7800000 
 450              	.LVL47:
 227:C:/Users/stapi/OneDrive/Desktop/GD32VW553/GD32VW55X_Wifi_BLE_SDK/GD32VW55x_RELEASE_V1.0.2/MSDK/plf/src/uart\uart.c ****     usart_baudrate_set(usart_periph, baudrate);
 451              		.loc 1 227 5
 452 0138 D685     		mv	a1,s5
 453 013a 2285     		mv	a0,s0
 454 013c 97000000 		call	usart_baudrate_set
 454      E7800000 
 455              	.LVL48:
 228:C:/Users/stapi/OneDrive/Desktop/GD32VW553/GD32VW55X_Wifi_BLE_SDK/GD32VW55x_RELEASE_V1.0.2/MSDK/plf/src/uart\uart.c ****     usart_receive_config(usart_periph, USART_RECEIVE_ENABLE);
 456              		.loc 1 228 5
 457 0144 9145     		li	a1,4
 458 0146 2285     		mv	a0,s0
 459 0148 97000000 		call	usart_receive_config
 459      E7800000 
 460              	.LVL49:
 229:C:/Users/stapi/OneDrive/Desktop/GD32VW553/GD32VW55X_Wifi_BLE_SDK/GD32VW55x_RELEASE_V1.0.2/MSDK/plf/src/uart\uart.c ****     usart_transmit_config(usart_periph, USART_TRANSMIT_ENABLE);
 461              		.loc 1 229 5
 462 0150 A145     		li	a1,8
 463 0152 2285     		mv	a0,s0
 464 0154 97000000 		call	usart_transmit_config
 464      E7800000 
 465              	.LVL50:
 230:C:/Users/stapi/OneDrive/Desktop/GD32VW553/GD32VW55X_Wifi_BLE_SDK/GD32VW55x_RELEASE_V1.0.2/MSDK/plf/src/uart\uart.c ****     usart_interrupt_enable(usart_periph, USART_INT_RBNE);
 466              		.loc 1 230 5
 467 015c 2285     		mv	a0,s0
 468 015e 9545     		li	a1,5
 469 0160 97000000 		call	usart_interrupt_enable
 469      E7800000 
 470              	.LVL51:
 231:C:/Users/stapi/OneDrive/Desktop/GD32VW553/GD32VW55X_Wifi_BLE_SDK/GD32VW55x_RELEASE_V1.0.2/MSDK/plf/src/uart\uart.c ****     usart_receive_fifo_enable(usart_periph);
 471              		.loc 1 231 5
 472 0168 2285     		mv	a0,s0
 473 016a 97000000 		call	usart_receive_fifo_enable
 473      E7800000 
 474              	.LVL52:
 232:C:/Users/stapi/OneDrive/Desktop/GD32VW553/GD32VW55X_Wifi_BLE_SDK/GD32VW55x_RELEASE_V1.0.2/MSDK/plf/src/uart\uart.c **** 
 233:C:/Users/stapi/OneDrive/Desktop/GD32VW553/GD32VW55X_Wifi_BLE_SDK/GD32VW55x_RELEASE_V1.0.2/MSDK/plf/src/uart\uart.c ****     if (flow_cntl) {
 475              		.loc 1 233 5
 476              		.loc 1 233 8 is_stmt 0
 477 0172 63890426 		beq	s1,zero,.L34
 234:C:/Users/stapi/OneDrive/Desktop/GD32VW553/GD32VW55X_Wifi_BLE_SDK/GD32VW55x_RELEASE_V1.0.2/MSDK/plf/src/uart\uart.c ****         usart_hardware_flow_rts_config(usart_periph, USART_RTS_ENABLE);
 478              		.loc 1 234 9 is_stmt 1
 479 0176 93050010 		li	a1,256
 480 017a 2285     		mv	a0,s0
 481 017c 97000000 		call	usart_hardware_flow_rts_config
 481      E7800000 
 482              	.LVL53:
 235:C:/Users/stapi/OneDrive/Desktop/GD32VW553/GD32VW55X_Wifi_BLE_SDK/GD32VW55x_RELEASE_V1.0.2/MSDK/plf/src/uart\uart.c ****         usart_hardware_flow_cts_config(usart_periph, USART_CTS_ENABLE);
 483              		.loc 1 235 9
 484 0184 93050020 		li	a1,512
 485              	.L52:
 236:C:/Users/stapi/OneDrive/Desktop/GD32VW553/GD32VW55X_Wifi_BLE_SDK/GD32VW55x_RELEASE_V1.0.2/MSDK/plf/src/uart\uart.c ****     } else {
 237:C:/Users/stapi/OneDrive/Desktop/GD32VW553/GD32VW55X_Wifi_BLE_SDK/GD32VW55x_RELEASE_V1.0.2/MSDK/plf/src/uart\uart.c ****         usart_hardware_flow_rts_config(usart_periph, USART_RTS_DISABLE);
 238:C:/Users/stapi/OneDrive/Desktop/GD32VW553/GD32VW55X_Wifi_BLE_SDK/GD32VW55x_RELEASE_V1.0.2/MSDK/plf/src/uart\uart.c ****         usart_hardware_flow_cts_config(usart_periph, USART_CTS_DISABLE);
 486              		.loc 1 238 9 is_stmt 0
 487 0188 2285     		mv	a0,s0
 488 018a 97000000 		call	usart_hardware_flow_cts_config
 488      E7800000 
 489              	.LVL54:
 239:C:/Users/stapi/OneDrive/Desktop/GD32VW553/GD32VW55X_Wifi_BLE_SDK/GD32VW55x_RELEASE_V1.0.2/MSDK/plf/src/uart\uart.c ****     }
 240:C:/Users/stapi/OneDrive/Desktop/GD32VW553/GD32VW55X_Wifi_BLE_SDK/GD32VW55x_RELEASE_V1.0.2/MSDK/plf/src/uart\uart.c **** 
 241:C:/Users/stapi/OneDrive/Desktop/GD32VW553/GD32VW55X_Wifi_BLE_SDK/GD32VW55x_RELEASE_V1.0.2/MSDK/plf/src/uart\uart.c ****     if (dma_rx) {
 490              		.loc 1 241 5 is_stmt 1
 491              		.loc 1 241 8 is_stmt 0
 492 0192 630C0A02 		beq	s4,zero,.L36
 242:C:/Users/stapi/OneDrive/Desktop/GD32VW553/GD32VW55X_Wifi_BLE_SDK/GD32VW55x_RELEASE_V1.0.2/MSDK/plf/src/uart\uart.c ****         usart_interrupt_disable(usart_periph, USART_INT_RBNE);
 493              		.loc 1 242 9 is_stmt 1
 494 0196 9545     		li	a1,5
 495 0198 2285     		mv	a0,s0
 496 019a 97000000 		call	usart_interrupt_disable
 496      E7800000 
 497              	.LVL55:
 243:C:/Users/stapi/OneDrive/Desktop/GD32VW553/GD32VW55X_Wifi_BLE_SDK/GD32VW55x_RELEASE_V1.0.2/MSDK/plf/src/uart\uart.c ****         rcu_periph_clock_enable(RCU_DMA);
 498              		.loc 1 243 9
 499 01a2 0565     		li	a0,4096
 500 01a4 130555C1 		addi	a0,a0,-1003
 501 01a8 97000000 		call	rcu_periph_clock_enable
 501      E7800000 
 502              	.LVL56:
 244:C:/Users/stapi/OneDrive/Desktop/GD32VW553/GD32VW55X_Wifi_BLE_SDK/GD32VW55x_RELEASE_V1.0.2/MSDK/plf/src/uart\uart.c ****         uart_dma_single_mode_config(usart_periph, DMA_PERIPH_TO_MEMORY);
 503              		.loc 1 244 9
 504 01b0 8145     		li	a1,0
 505 01b2 2285     		mv	a0,s0
 506 01b4 97000000 		call	uart_dma_single_mode_config
 506      E7800000 
 507              	.LVL57:
 245:C:/Users/stapi/OneDrive/Desktop/GD32VW553/GD32VW55X_Wifi_BLE_SDK/GD32VW55x_RELEASE_V1.0.2/MSDK/plf/src/uart\uart.c ****         usart_dma_receive_config(usart_periph, USART_RECEIVE_DMA_ENABLE);
 508              		.loc 1 245 9
 509 01bc 93050004 		li	a1,64
 510 01c0 2285     		mv	a0,s0
 511 01c2 97000000 		call	usart_dma_receive_config
 511      E7800000 
 512              	.LVL58:
 513              	.L36:
 246:C:/Users/stapi/OneDrive/Desktop/GD32VW553/GD32VW55X_Wifi_BLE_SDK/GD32VW55x_RELEASE_V1.0.2/MSDK/plf/src/uart\uart.c ****     }
 247:C:/Users/stapi/OneDrive/Desktop/GD32VW553/GD32VW55X_Wifi_BLE_SDK/GD32VW55x_RELEASE_V1.0.2/MSDK/plf/src/uart\uart.c **** 
 248:C:/Users/stapi/OneDrive/Desktop/GD32VW553/GD32VW55X_Wifi_BLE_SDK/GD32VW55x_RELEASE_V1.0.2/MSDK/plf/src/uart\uart.c ****     if (dma_tx) {
 514              		.loc 1 248 5
 515              		.loc 1 248 8 is_stmt 0
 516 01ca 63870902 		beq	s3,zero,.L37
 249:C:/Users/stapi/OneDrive/Desktop/GD32VW553/GD32VW55X_Wifi_BLE_SDK/GD32VW55x_RELEASE_V1.0.2/MSDK/plf/src/uart\uart.c ****         rcu_periph_clock_enable(RCU_DMA);
 517              		.loc 1 249 9 is_stmt 1
 518 01ce 0565     		li	a0,4096
 519 01d0 130555C1 		addi	a0,a0,-1003
 520 01d4 97000000 		call	rcu_periph_clock_enable
 520      E7800000 
 521              	.LVL59:
 250:C:/Users/stapi/OneDrive/Desktop/GD32VW553/GD32VW55X_Wifi_BLE_SDK/GD32VW55x_RELEASE_V1.0.2/MSDK/plf/src/uart\uart.c ****         uart_dma_single_mode_config(usart_periph, DMA_MEMORY_TO_PERIPH);
 522              		.loc 1 250 9
 523 01dc 93050004 		li	a1,64
 524 01e0 2285     		mv	a0,s0
 525 01e2 97000000 		call	uart_dma_single_mode_config
 525      E7800000 
 526              	.LVL60:
 251:C:/Users/stapi/OneDrive/Desktop/GD32VW553/GD32VW55X_Wifi_BLE_SDK/GD32VW55x_RELEASE_V1.0.2/MSDK/plf/src/uart\uart.c ****         usart_dma_transmit_config(usart_periph, USART_TRANSMIT_DMA_ENABLE);
 527              		.loc 1 251 9
 528 01ea 93050008 		li	a1,128
 529 01ee 2285     		mv	a0,s0
 530 01f0 97000000 		call	usart_dma_transmit_config
 530      E7800000 
 531              	.LVL61:
 532              	.L37:
 252:C:/Users/stapi/OneDrive/Desktop/GD32VW553/GD32VW55X_Wifi_BLE_SDK/GD32VW55x_RELEASE_V1.0.2/MSDK/plf/src/uart\uart.c ****     }
 253:C:/Users/stapi/OneDrive/Desktop/GD32VW553/GD32VW55X_Wifi_BLE_SDK/GD32VW55x_RELEASE_V1.0.2/MSDK/plf/src/uart\uart.c **** 
 254:C:/Users/stapi/OneDrive/Desktop/GD32VW553/GD32VW55X_Wifi_BLE_SDK/GD32VW55x_RELEASE_V1.0.2/MSDK/plf/src/uart\uart.c ****     usart_enable(usart_periph);
 533              		.loc 1 254 5
 534 01f8 2285     		mv	a0,s0
 535 01fa 97000000 		call	usart_enable
 535      E7800000 
 536              	.LVL62:
 255:C:/Users/stapi/OneDrive/Desktop/GD32VW553/GD32VW55X_Wifi_BLE_SDK/GD32VW55x_RELEASE_V1.0.2/MSDK/plf/src/uart\uart.c **** }
 537              		.loc 1 255 1 is_stmt 0
 538 0202 17030000 		tail	__riscv_restore_6
 538      67000300 
 539              		.cfi_remember_state
 540              		.cfi_restore 21
 541              		.cfi_restore 20
 542              		.cfi_restore 19
 543              		.cfi_restore 18
 544              		.cfi_restore 9
 545              		.cfi_restore 8
 546              		.cfi_restore 1
 547              		.cfi_def_cfa_offset 0
 548              	.L29:
 549              		.cfi_restore_state
 181:C:/Users/stapi/OneDrive/Desktop/GD32VW553/GD32VW55X_Wifi_BLE_SDK/GD32VW55x_RELEASE_V1.0.2/MSDK/plf/src/uart\uart.c ****         rcu_periph_clock_enable(RCU_UART1);
 550              		.loc 1 181 10 is_stmt 1
 181:C:/Users/stapi/OneDrive/Desktop/GD32VW553/GD32VW55X_Wifi_BLE_SDK/GD32VW55x_RELEASE_V1.0.2/MSDK/plf/src/uart\uart.c ****         rcu_periph_clock_enable(RCU_UART1);
 551              		.loc 1 181 13 is_stmt 0
 552 020a B7470040 		li	a5,1073758208
 553 020e 93870740 		addi	a5,a5,1024
 554 0212 6310F40E 		bne	s0,a5,.L32
 182:C:/Users/stapi/OneDrive/Desktop/GD32VW553/GD32VW55X_Wifi_BLE_SDK/GD32VW55x_RELEASE_V1.0.2/MSDK/plf/src/uart\uart.c **** 
 555              		.loc 1 182 9 is_stmt 1
 556 0216 13051901 		addi	a0,s2,17
 557 021a 97000000 		call	rcu_periph_clock_enable
 557      E7800000 
 558              	.LVL63:
 184:C:/Users/stapi/OneDrive/Desktop/GD32VW553/GD32VW55X_Wifi_BLE_SDK/GD32VW55x_RELEASE_V1.0.2/MSDK/plf/src/uart\uart.c ****         gpio_af_set(UART1_RX_GPIO, UART1_RX_AF_NUM, UART1_RX_PIN);
 559              		.loc 1 184 9
 560 0222 37090240 		li	s2,1073872896
 561 0226 2166     		li	a2,32768
 562 0228 9D45     		li	a1,7
 563 022a 13050940 		addi	a0,s2,1024
 564 022e 97000000 		call	gpio_af_set
 564      E7800000 
 565              	.LVL64:
 185:C:/Users/stapi/OneDrive/Desktop/GD32VW553/GD32VW55X_Wifi_BLE_SDK/GD32VW55x_RELEASE_V1.0.2/MSDK/plf/src/uart\uart.c ****         gpio_mode_set(UART1_TX_GPIO, GPIO_MODE_AF, GPIO_PUPD_NONE, UART1_TX_PIN);
 566              		.loc 1 185 9
 567 0236 13060010 		li	a2,256
 568 023a 8D45     		li	a1,3
 569 023c 37050240 		li	a0,1073872896
 570 0240 97000000 		call	gpio_af_set
 570      E7800000 
 571              	.LVL65:
 186:C:/Users/stapi/OneDrive/Desktop/GD32VW553/GD32VW55X_Wifi_BLE_SDK/GD32VW55x_RELEASE_V1.0.2/MSDK/plf/src/uart\uart.c ****         gpio_output_options_set(UART1_TX_GPIO, GPIO_OTYPE_PP, GPIO_OSPEED_25MHZ, UART1_TX_PIN);
 572              		.loc 1 186 9
 573 0248 A166     		li	a3,32768
 574 024a 0146     		li	a2,0
 575 024c 8945     		li	a1,2
 576 024e 13050940 		addi	a0,s2,1024
 577 0252 97000000 		call	gpio_mode_set
 577      E7800000 
 578              	.LVL66:
 187:C:/Users/stapi/OneDrive/Desktop/GD32VW553/GD32VW55X_Wifi_BLE_SDK/GD32VW55x_RELEASE_V1.0.2/MSDK/plf/src/uart\uart.c ****         gpio_mode_set(UART1_RX_GPIO, GPIO_MODE_AF, GPIO_PUPD_NONE, UART1_RX_PIN);
 579              		.loc 1 187 9
 580 025a A166     		li	a3,32768
 581 025c 0946     		li	a2,2
 582 025e 8145     		li	a1,0
 583 0260 13050940 		addi	a0,s2,1024
 584 0264 97000000 		call	gpio_output_options_set
 584      E7800000 
 585              	.LVL67:
 188:C:/Users/stapi/OneDrive/Desktop/GD32VW553/GD32VW55X_Wifi_BLE_SDK/GD32VW55x_RELEASE_V1.0.2/MSDK/plf/src/uart\uart.c ****         gpio_output_options_set(UART1_RX_GPIO, GPIO_OTYPE_PP, GPIO_OSPEED_25MHZ, UART1_RX_PIN);
 586              		.loc 1 188 9
 587 026c 93060010 		li	a3,256
 588 0270 0146     		li	a2,0
 589 0272 8945     		li	a1,2
 590 0274 37050240 		li	a0,1073872896
 591 0278 97000000 		call	gpio_mode_set
 591      E7800000 
 592              	.LVL68:
 189:C:/Users/stapi/OneDrive/Desktop/GD32VW553/GD32VW55X_Wifi_BLE_SDK/GD32VW55x_RELEASE_V1.0.2/MSDK/plf/src/uart\uart.c **** 
 593              		.loc 1 189 9
 594 0280 93060010 		li	a3,256
 595 0284 0946     		li	a2,2
 596 0286 8145     		li	a1,0
 597 0288 37050240 		li	a0,1073872896
 598 028c 97000000 		call	gpio_output_options_set
 598      E7800000 
 599              	.LVL69:
 192:C:/Users/stapi/OneDrive/Desktop/GD32VW553/GD32VW55X_Wifi_BLE_SDK/GD32VW55x_RELEASE_V1.0.2/MSDK/plf/src/uart\uart.c ****             /* configure cts/rts */
 600              		.loc 1 192 9
 192:C:/Users/stapi/OneDrive/Desktop/GD32VW553/GD32VW55X_Wifi_BLE_SDK/GD32VW55x_RELEASE_V1.0.2/MSDK/plf/src/uart\uart.c ****             /* configure cts/rts */
 601              		.loc 1 192 12 is_stmt 0
 602 0294 E38104E8 		beq	s1,zero,.L31
 194:C:/Users/stapi/OneDrive/Desktop/GD32VW553/GD32VW55X_Wifi_BLE_SDK/GD32VW55x_RELEASE_V1.0.2/MSDK/plf/src/uart\uart.c ****             gpio_af_set(UART1_RTS_GPIO, UART1_RTS_AF_NUM, UART1_RTS_PIN);
 603              		.loc 1 194 13 is_stmt 1
 604 0298 0546     		li	a2,1
 605 029a 9D45     		li	a1,7
 606 029c 37050240 		li	a0,1073872896
 607 02a0 97000000 		call	gpio_af_set
 607      E7800000 
 608              	.LVL70:
 195:C:/Users/stapi/OneDrive/Desktop/GD32VW553/GD32VW55X_Wifi_BLE_SDK/GD32VW55x_RELEASE_V1.0.2/MSDK/plf/src/uart\uart.c ****             gpio_mode_set(UART1_CTS_GPIO, GPIO_MODE_INPUT, GPIO_PUPD_NONE, UART1_CTS_PIN);
 609              		.loc 1 195 13
 610 02a8 0946     		li	a2,2
 611 02aa 9D45     		li	a1,7
 612 02ac 37050240 		li	a0,1073872896
 613 02b0 97000000 		call	gpio_af_set
 613      E7800000 
 614              	.LVL71:
 196:C:/Users/stapi/OneDrive/Desktop/GD32VW553/GD32VW55X_Wifi_BLE_SDK/GD32VW55x_RELEASE_V1.0.2/MSDK/plf/src/uart\uart.c ****             gpio_output_options_set(UART1_CTS_GPIO, GPIO_OTYPE_PP, GPIO_OSPEED_25MHZ, UART1_CTS_PIN
 615              		.loc 1 196 13
 616 02b8 8546     		li	a3,1
 617 02ba 0146     		li	a2,0
 618 02bc 8145     		li	a1,0
 619 02be 37050240 		li	a0,1073872896
 620 02c2 97000000 		call	gpio_mode_set
 620      E7800000 
 621              	.LVL72:
 197:C:/Users/stapi/OneDrive/Desktop/GD32VW553/GD32VW55X_Wifi_BLE_SDK/GD32VW55x_RELEASE_V1.0.2/MSDK/plf/src/uart\uart.c ****             gpio_mode_set(UART1_RTS_GPIO, GPIO_MODE_AF, GPIO_PUPD_NONE, UART1_RTS_PIN);
 622              		.loc 1 197 13
 623 02ca 8546     		li	a3,1
 624 02cc 0946     		li	a2,2
 625 02ce 8145     		li	a1,0
 626 02d0 37050240 		li	a0,1073872896
 627 02d4 97000000 		call	gpio_output_options_set
 627      E7800000 
 628              	.LVL73:
 198:C:/Users/stapi/OneDrive/Desktop/GD32VW553/GD32VW55X_Wifi_BLE_SDK/GD32VW55x_RELEASE_V1.0.2/MSDK/plf/src/uart\uart.c ****             gpio_output_options_set(UART1_RTS_GPIO, GPIO_OTYPE_PP, GPIO_OSPEED_25MHZ, UART1_RTS_PIN
 629              		.loc 1 198 13
 630 02dc 8946     		li	a3,2
 631 02de 0146     		li	a2,0
 632 02e0 8945     		li	a1,2
 633 02e2 37050240 		li	a0,1073872896
 634 02e6 97000000 		call	gpio_mode_set
 634      E7800000 
 635              	.LVL74:
 199:C:/Users/stapi/OneDrive/Desktop/GD32VW553/GD32VW55X_Wifi_BLE_SDK/GD32VW55x_RELEASE_V1.0.2/MSDK/plf/src/uart\uart.c ****         }
 636              		.loc 1 199 13
 637 02ee 8946     		li	a3,2
 638 02f0 19BD     		j	.L53
 639              	.L32:
 202:C:/Users/stapi/OneDrive/Desktop/GD32VW553/GD32VW55X_Wifi_BLE_SDK/GD32VW55x_RELEASE_V1.0.2/MSDK/plf/src/uart\uart.c ****         rcu_periph_clock_enable(RCU_UART2);
 640              		.loc 1 202 12
 202:C:/Users/stapi/OneDrive/Desktop/GD32VW553/GD32VW55X_Wifi_BLE_SDK/GD32VW55x_RELEASE_V1.0.2/MSDK/plf/src/uart\uart.c ****         rcu_periph_clock_enable(RCU_UART2);
 641              		.loc 1 202 15 is_stmt 0
 642 02f2 B7170140 		li	a5,1073811456
 643 02f6 E310F4E2 		bne	s0,a5,.L31
 203:C:/Users/stapi/OneDrive/Desktop/GD32VW553/GD32VW55X_Wifi_BLE_SDK/GD32VW55x_RELEASE_V1.0.2/MSDK/plf/src/uart\uart.c **** 
 644              		.loc 1 203 9 is_stmt 1
 645 02fa 13054910 		addi	a0,s2,260
 646 02fe 97000000 		call	rcu_periph_clock_enable
 646      E7800000 
 647              	.LVL75:
 205:C:/Users/stapi/OneDrive/Desktop/GD32VW553/GD32VW55X_Wifi_BLE_SDK/GD32VW55x_RELEASE_V1.0.2/MSDK/plf/src/uart\uart.c ****         gpio_af_set(UART2_RX_GPIO, UART2_RX_AF_NUM, UART2_RX_PIN);
 648              		.loc 1 205 9
 649 0306 13060004 		li	a2,64
 650 030a A945     		li	a1,10
 651 030c 37050240 		li	a0,1073872896
 652 0310 97000000 		call	gpio_af_set
 652      E7800000 
 653              	.LVL76:
 206:C:/Users/stapi/OneDrive/Desktop/GD32VW553/GD32VW55X_Wifi_BLE_SDK/GD32VW55x_RELEASE_V1.0.2/MSDK/plf/src/uart\uart.c ****         gpio_mode_set(UART2_TX_GPIO, GPIO_MODE_AF, GPIO_PUPD_NONE, UART2_TX_PIN);
 654              		.loc 1 206 9
 655 0318 13060008 		li	a2,128
 656 031c A145     		li	a1,8
 657 031e 37050240 		li	a0,1073872896
 658 0322 97000000 		call	gpio_af_set
 658      E7800000 
 659              	.LVL77:
 207:C:/Users/stapi/OneDrive/Desktop/GD32VW553/GD32VW55X_Wifi_BLE_SDK/GD32VW55x_RELEASE_V1.0.2/MSDK/plf/src/uart\uart.c ****         gpio_output_options_set(UART2_TX_GPIO, GPIO_OTYPE_PP, GPIO_OSPEED_25MHZ, UART2_TX_PIN);
 660              		.loc 1 207 9
 661 032a 93060004 		li	a3,64
 662 032e 0146     		li	a2,0
 663 0330 8945     		li	a1,2
 664 0332 37050240 		li	a0,1073872896
 665 0336 97000000 		call	gpio_mode_set
 665      E7800000 
 666              	.LVL78:
 208:C:/Users/stapi/OneDrive/Desktop/GD32VW553/GD32VW55X_Wifi_BLE_SDK/GD32VW55x_RELEASE_V1.0.2/MSDK/plf/src/uart\uart.c ****         gpio_mode_set(UART2_RX_GPIO, GPIO_MODE_AF, GPIO_PUPD_NONE, UART2_RX_PIN);
 667              		.loc 1 208 9
 668 033e 93060004 		li	a3,64
 669 0342 0946     		li	a2,2
 670 0344 8145     		li	a1,0
 671 0346 37050240 		li	a0,1073872896
 672 034a 97000000 		call	gpio_output_options_set
 672      E7800000 
 673              	.LVL79:
 209:C:/Users/stapi/OneDrive/Desktop/GD32VW553/GD32VW55X_Wifi_BLE_SDK/GD32VW55x_RELEASE_V1.0.2/MSDK/plf/src/uart\uart.c ****         gpio_output_options_set(UART2_RX_GPIO, GPIO_OTYPE_PP, GPIO_OSPEED_25MHZ, UART2_RX_PIN);
 674              		.loc 1 209 9
 675 0352 93060008 		li	a3,128
 676 0356 0146     		li	a2,0
 677 0358 8945     		li	a1,2
 678 035a 37050240 		li	a0,1073872896
 679 035e 97000000 		call	gpio_mode_set
 679      E7800000 
 680              	.LVL80:
 210:C:/Users/stapi/OneDrive/Desktop/GD32VW553/GD32VW55X_Wifi_BLE_SDK/GD32VW55x_RELEASE_V1.0.2/MSDK/plf/src/uart\uart.c **** 
 681              		.loc 1 210 9
 682 0366 93060008 		li	a3,128
 683 036a 0946     		li	a2,2
 684 036c 8145     		li	a1,0
 685 036e 37050240 		li	a0,1073872896
 686 0372 97000000 		call	gpio_output_options_set
 686      E7800000 
 687              	.LVL81:
 212:C:/Users/stapi/OneDrive/Desktop/GD32VW553/GD32VW55X_Wifi_BLE_SDK/GD32VW55x_RELEASE_V1.0.2/MSDK/plf/src/uart\uart.c ****             /* configure cts/rts */
 688              		.loc 1 212 9
 212:C:/Users/stapi/OneDrive/Desktop/GD32VW553/GD32VW55X_Wifi_BLE_SDK/GD32VW55x_RELEASE_V1.0.2/MSDK/plf/src/uart\uart.c ****             /* configure cts/rts */
 689              		.loc 1 212 12 is_stmt 0
 690 037a E38E04D8 		beq	s1,zero,.L31
 214:C:/Users/stapi/OneDrive/Desktop/GD32VW553/GD32VW55X_Wifi_BLE_SDK/GD32VW55x_RELEASE_V1.0.2/MSDK/plf/src/uart\uart.c ****             gpio_af_set(UART2_RTS_GPIO, UART2_RTS_AF_NUM, UART2_RTS_PIN);
 691              		.loc 1 214 13 is_stmt 1
 692 037e 37090240 		li	s2,1073872896
 693 0382 0546     		li	a2,1
 694 0384 A945     		li	a1,10
 695 0386 13050940 		addi	a0,s2,1024
 696 038a 97000000 		call	gpio_af_set
 696      E7800000 
 697              	.LVL82:
 215:C:/Users/stapi/OneDrive/Desktop/GD32VW553/GD32VW55X_Wifi_BLE_SDK/GD32VW55x_RELEASE_V1.0.2/MSDK/plf/src/uart\uart.c ****             gpio_mode_set(UART2_CTS_GPIO, GPIO_MODE_INPUT, GPIO_PUPD_NONE, UART2_CTS_PIN);
 698              		.loc 1 215 13
 699 0392 0946     		li	a2,2
 700 0394 A945     		li	a1,10
 701 0396 13050940 		addi	a0,s2,1024
 702 039a 97000000 		call	gpio_af_set
 702      E7800000 
 703              	.LVL83:
 216:C:/Users/stapi/OneDrive/Desktop/GD32VW553/GD32VW55X_Wifi_BLE_SDK/GD32VW55x_RELEASE_V1.0.2/MSDK/plf/src/uart\uart.c ****             gpio_output_options_set(UART2_CTS_GPIO, GPIO_OTYPE_PP, GPIO_OSPEED_25MHZ, UART2_CTS_PIN
 704              		.loc 1 216 13
 705 03a2 8546     		li	a3,1
 706 03a4 0146     		li	a2,0
 707 03a6 8145     		li	a1,0
 708 03a8 13050940 		addi	a0,s2,1024
 709 03ac 97000000 		call	gpio_mode_set
 709      E7800000 
 710              	.LVL84:
 217:C:/Users/stapi/OneDrive/Desktop/GD32VW553/GD32VW55X_Wifi_BLE_SDK/GD32VW55x_RELEASE_V1.0.2/MSDK/plf/src/uart\uart.c ****             gpio_mode_set(UART2_RTS_GPIO, GPIO_MODE_AF, GPIO_PUPD_NONE, UART2_RTS_PIN);
 711              		.loc 1 217 13
 712 03b4 8546     		li	a3,1
 713 03b6 0946     		li	a2,2
 714 03b8 8145     		li	a1,0
 715 03ba 13050940 		addi	a0,s2,1024
 716 03be 97000000 		call	gpio_output_options_set
 716      E7800000 
 717              	.LVL85:
 218:C:/Users/stapi/OneDrive/Desktop/GD32VW553/GD32VW55X_Wifi_BLE_SDK/GD32VW55x_RELEASE_V1.0.2/MSDK/plf/src/uart\uart.c ****             gpio_output_options_set(UART2_RTS_GPIO, GPIO_OTYPE_PP, GPIO_OSPEED_25MHZ, UART2_RTS_PIN
 718              		.loc 1 218 13
 719 03c6 8946     		li	a3,2
 720 03c8 0146     		li	a2,0
 721 03ca 8945     		li	a1,2
 722 03cc 13050940 		addi	a0,s2,1024
 723 03d0 97000000 		call	gpio_mode_set
 723      E7800000 
 724              	.LVL86:
 219:C:/Users/stapi/OneDrive/Desktop/GD32VW553/GD32VW55X_Wifi_BLE_SDK/GD32VW55x_RELEASE_V1.0.2/MSDK/plf/src/uart\uart.c ****         }
 725              		.loc 1 219 13
 726 03d8 8946     		li	a3,2
 727 03da 0946     		li	a2,2
 728 03dc 8145     		li	a1,0
 729 03de 13050940 		addi	a0,s2,1024
 730 03e2 35B3     		j	.L51
 731              	.L34:
 237:C:/Users/stapi/OneDrive/Desktop/GD32VW553/GD32VW55X_Wifi_BLE_SDK/GD32VW55x_RELEASE_V1.0.2/MSDK/plf/src/uart\uart.c ****         usart_hardware_flow_cts_config(usart_periph, USART_CTS_DISABLE);
 732              		.loc 1 237 9
 733 03e4 8145     		li	a1,0
 734 03e6 2285     		mv	a0,s0
 735 03e8 97000000 		call	usart_hardware_flow_rts_config
 735      E7800000 
 736              	.LVL87:
 238:C:/Users/stapi/OneDrive/Desktop/GD32VW553/GD32VW55X_Wifi_BLE_SDK/GD32VW55x_RELEASE_V1.0.2/MSDK/plf/src/uart\uart.c ****     }
 737              		.loc 1 238 9
 738 03f0 8145     		li	a1,0
 739 03f2 59BB     		j	.L52
 740              		.cfi_endproc
 741              	.LFE369:
 743              		.section	.text.uart_put_data,"ax",@progbits
 744              		.align	1
 745              		.globl	uart_put_data
 747              	uart_put_data:
 748              	.LFB370:
 256:C:/Users/stapi/OneDrive/Desktop/GD32VW553/GD32VW55X_Wifi_BLE_SDK/GD32VW55x_RELEASE_V1.0.2/MSDK/plf/src/uart\uart.c **** 
 257:C:/Users/stapi/OneDrive/Desktop/GD32VW553/GD32VW55X_Wifi_BLE_SDK/GD32VW55x_RELEASE_V1.0.2/MSDK/plf/src/uart\uart.c **** void uart_put_data(uint32_t usart_periph, const uint8_t *d, int size)
 258:C:/Users/stapi/OneDrive/Desktop/GD32VW553/GD32VW55X_Wifi_BLE_SDK/GD32VW55x_RELEASE_V1.0.2/MSDK/plf/src/uart\uart.c **** {
 749              		.loc 1 258 1
 750              		.cfi_startproc
 751              	.LVL88:
 259:C:/Users/stapi/OneDrive/Desktop/GD32VW553/GD32VW55X_Wifi_BLE_SDK/GD32VW55x_RELEASE_V1.0.2/MSDK/plf/src/uart\uart.c ****     if (size == 0) {
 752              		.loc 1 259 5
 753              		.loc 1 259 8 is_stmt 0
 754 0000 1DCE     		beq	a2,zero,.L65
 258:C:/Users/stapi/OneDrive/Desktop/GD32VW553/GD32VW55X_Wifi_BLE_SDK/GD32VW55x_RELEASE_V1.0.2/MSDK/plf/src/uart\uart.c ****     if (size == 0) {
 755              		.loc 1 258 1
 756 0002 17030000 		call	t0,__riscv_save_3
 756      E7020300 
 757              		.cfi_offset 18, -16
 758              		.cfi_offset 9, -12
 759              		.cfi_offset 8, -8
 760              		.cfi_offset 1, -4
 761              		.cfi_def_cfa_offset 16
 762 000a 2A89     		mv	s2,a0
 763 000c 2E84     		mv	s0,a1
 260:C:/Users/stapi/OneDrive/Desktop/GD32VW553/GD32VW55X_Wifi_BLE_SDK/GD32VW55x_RELEASE_V1.0.2/MSDK/plf/src/uart\uart.c ****         return;
 261:C:/Users/stapi/OneDrive/Desktop/GD32VW553/GD32VW55X_Wifi_BLE_SDK/GD32VW55x_RELEASE_V1.0.2/MSDK/plf/src/uart\uart.c ****     }
 262:C:/Users/stapi/OneDrive/Desktop/GD32VW553/GD32VW55X_Wifi_BLE_SDK/GD32VW55x_RELEASE_V1.0.2/MSDK/plf/src/uart\uart.c **** 
 263:C:/Users/stapi/OneDrive/Desktop/GD32VW553/GD32VW55X_Wifi_BLE_SDK/GD32VW55x_RELEASE_V1.0.2/MSDK/plf/src/uart\uart.c ****     while (1) {
 264:C:/Users/stapi/OneDrive/Desktop/GD32VW553/GD32VW55X_Wifi_BLE_SDK/GD32VW55x_RELEASE_V1.0.2/MSDK/plf/src/uart\uart.c ****         while (RESET == usart_flag_get(usart_periph, USART_FLAG_TBE));
 265:C:/Users/stapi/OneDrive/Desktop/GD32VW553/GD32VW55X_Wifi_BLE_SDK/GD32VW55x_RELEASE_V1.0.2/MSDK/plf/src/uart\uart.c ****         usart_data_transmit(usart_periph, *d++);
 266:C:/Users/stapi/OneDrive/Desktop/GD32VW553/GD32VW55X_Wifi_BLE_SDK/GD32VW55x_RELEASE_V1.0.2/MSDK/plf/src/uart\uart.c ****         size--;
 267:C:/Users/stapi/OneDrive/Desktop/GD32VW553/GD32VW55X_Wifi_BLE_SDK/GD32VW55x_RELEASE_V1.0.2/MSDK/plf/src/uart\uart.c ****         if (size == 0) {
 764              		.loc 1 267 12
 765 000e B384C500 		add	s1,a1,a2
 766              	.LVL89:
 767              	.L56:
 264:C:/Users/stapi/OneDrive/Desktop/GD32VW553/GD32VW55X_Wifi_BLE_SDK/GD32VW55x_RELEASE_V1.0.2/MSDK/plf/src/uart\uart.c ****         usart_data_transmit(usart_periph, *d++);
 768              		.loc 1 264 70 is_stmt 1 discriminator 1
 264:C:/Users/stapi/OneDrive/Desktop/GD32VW553/GD32VW55X_Wifi_BLE_SDK/GD32VW55x_RELEASE_V1.0.2/MSDK/plf/src/uart\uart.c ****         usart_data_transmit(usart_periph, *d++);
 769              		.loc 1 264 15 discriminator 1
 264:C:/Users/stapi/OneDrive/Desktop/GD32VW553/GD32VW55X_Wifi_BLE_SDK/GD32VW55x_RELEASE_V1.0.2/MSDK/plf/src/uart\uart.c ****         usart_data_transmit(usart_periph, *d++);
 770              		.loc 1 264 25 is_stmt 0 discriminator 1
 771 0012 93057070 		li	a1,1799
 772 0016 4A85     		mv	a0,s2
 773 0018 97000000 		call	usart_flag_get
 773      E7800000 
 774              	.LVL90:
 264:C:/Users/stapi/OneDrive/Desktop/GD32VW553/GD32VW55X_Wifi_BLE_SDK/GD32VW55x_RELEASE_V1.0.2/MSDK/plf/src/uart\uart.c ****         usart_data_transmit(usart_periph, *d++);
 775              		.loc 1 264 15 discriminator 1
 776 0020 6DD9     		beq	a0,zero,.L56
 265:C:/Users/stapi/OneDrive/Desktop/GD32VW553/GD32VW55X_Wifi_BLE_SDK/GD32VW55x_RELEASE_V1.0.2/MSDK/plf/src/uart\uart.c ****         size--;
 777              		.loc 1 265 9 is_stmt 1
 778 0022 83450400 		lbu	a1,0(s0)
 265:C:/Users/stapi/OneDrive/Desktop/GD32VW553/GD32VW55X_Wifi_BLE_SDK/GD32VW55x_RELEASE_V1.0.2/MSDK/plf/src/uart\uart.c ****         size--;
 779              		.loc 1 265 45 is_stmt 0
 780 0026 0504     		addi	s0,s0,1
 781              	.LVL91:
 265:C:/Users/stapi/OneDrive/Desktop/GD32VW553/GD32VW55X_Wifi_BLE_SDK/GD32VW55x_RELEASE_V1.0.2/MSDK/plf/src/uart\uart.c ****         size--;
 782              		.loc 1 265 9
 783 0028 4A85     		mv	a0,s2
 784 002a 97000000 		call	usart_data_transmit
 784      E7800000 
 785              	.LVL92:
 266:C:/Users/stapi/OneDrive/Desktop/GD32VW553/GD32VW55X_Wifi_BLE_SDK/GD32VW55x_RELEASE_V1.0.2/MSDK/plf/src/uart\uart.c ****         if (size == 0) {
 786              		.loc 1 266 9 is_stmt 1
 787              		.loc 1 267 9
 788              		.loc 1 267 12 is_stmt 0
 789 0032 E31094FE 		bne	s0,s1,.L56
 268:C:/Users/stapi/OneDrive/Desktop/GD32VW553/GD32VW55X_Wifi_BLE_SDK/GD32VW55x_RELEASE_V1.0.2/MSDK/plf/src/uart\uart.c ****             return;
 269:C:/Users/stapi/OneDrive/Desktop/GD32VW553/GD32VW55X_Wifi_BLE_SDK/GD32VW55x_RELEASE_V1.0.2/MSDK/plf/src/uart\uart.c ****         }
 270:C:/Users/stapi/OneDrive/Desktop/GD32VW553/GD32VW55X_Wifi_BLE_SDK/GD32VW55x_RELEASE_V1.0.2/MSDK/plf/src/uart\uart.c ****     }
 271:C:/Users/stapi/OneDrive/Desktop/GD32VW553/GD32VW55X_Wifi_BLE_SDK/GD32VW55x_RELEASE_V1.0.2/MSDK/plf/src/uart\uart.c **** }
 790              		.loc 1 271 1
 791 0036 17030000 		tail	__riscv_restore_3
 791      67000300 
 792              		.cfi_restore 18
 793              		.cfi_restore 9
 794              		.cfi_restore 8
 795              		.cfi_restore 1
 796              		.cfi_def_cfa_offset 0
 797              	.LVL93:
 798              	.L65:
 799 003e 8280     		ret
 800              		.cfi_endproc
 801              	.LFE370:
 803              		.section	.text.uart_putc_noint,"ax",@progbits
 804              		.align	1
 805              		.globl	uart_putc_noint
 807              	uart_putc_noint:
 808              	.LFB371:
 272:C:/Users/stapi/OneDrive/Desktop/GD32VW553/GD32VW55X_Wifi_BLE_SDK/GD32VW55x_RELEASE_V1.0.2/MSDK/plf/src/uart\uart.c **** 
 273:C:/Users/stapi/OneDrive/Desktop/GD32VW553/GD32VW55X_Wifi_BLE_SDK/GD32VW55x_RELEASE_V1.0.2/MSDK/plf/src/uart\uart.c **** void uart_putc_noint(uint32_t usart_periph, uint8_t c)
 274:C:/Users/stapi/OneDrive/Desktop/GD32VW553/GD32VW55X_Wifi_BLE_SDK/GD32VW55x_RELEASE_V1.0.2/MSDK/plf/src/uart\uart.c **** {
 809              		.loc 1 274 1 is_stmt 1
 810              		.cfi_startproc
 811              	.LVL94:
 812 0000 17030000 		call	t0,__riscv_save_2
 812      E7020300 
 813              		.cfi_offset 9, -12
 814              		.cfi_offset 8, -8
 815              		.cfi_offset 1, -4
 816              		.cfi_def_cfa_offset 16
 817 0008 2A84     		mv	s0,a0
 818 000a AE84     		mv	s1,a1
 275:C:/Users/stapi/OneDrive/Desktop/GD32VW553/GD32VW55X_Wifi_BLE_SDK/GD32VW55x_RELEASE_V1.0.2/MSDK/plf/src/uart\uart.c ****     while (RESET == usart_flag_get(usart_periph, USART_FLAG_TBE));
 819              		.loc 1 275 5
 820              	.LVL95:
 821              	.L69:
 822              		.loc 1 275 66 discriminator 1
 823              		.loc 1 275 11 discriminator 1
 824              		.loc 1 275 21 is_stmt 0 discriminator 1
 825 000c 93057070 		li	a1,1799
 826 0010 2285     		mv	a0,s0
 827 0012 97000000 		call	usart_flag_get
 827      E7800000 
 828              	.LVL96:
 829              		.loc 1 275 11 discriminator 1
 830 001a 6DD9     		beq	a0,zero,.L69
 276:C:/Users/stapi/OneDrive/Desktop/GD32VW553/GD32VW55X_Wifi_BLE_SDK/GD32VW55x_RELEASE_V1.0.2/MSDK/plf/src/uart\uart.c ****     usart_data_transmit(usart_periph, (uint8_t)c);
 831              		.loc 1 276 5 is_stmt 1
 832 001c A685     		mv	a1,s1
 833 001e 2285     		mv	a0,s0
 834 0020 97000000 		call	usart_data_transmit
 834      E7800000 
 835              	.LVL97:
 277:C:/Users/stapi/OneDrive/Desktop/GD32VW553/GD32VW55X_Wifi_BLE_SDK/GD32VW55x_RELEASE_V1.0.2/MSDK/plf/src/uart\uart.c **** }
 836              		.loc 1 277 1 is_stmt 0
 837 0028 17030000 		tail	__riscv_restore_2
 837      67000300 
 838              		.cfi_restore 9
 839              		.cfi_restore 8
 840              		.cfi_restore 1
 841              		.cfi_def_cfa_offset 0
 842              		.cfi_endproc
 843              	.LFE371:
 845              		.section	.text.uart_getc,"ax",@progbits
 846              		.align	1
 847              		.globl	uart_getc
 849              	uart_getc:
 850              	.LFB372:
 278:C:/Users/stapi/OneDrive/Desktop/GD32VW553/GD32VW55X_Wifi_BLE_SDK/GD32VW55x_RELEASE_V1.0.2/MSDK/plf/src/uart\uart.c **** 
 279:C:/Users/stapi/OneDrive/Desktop/GD32VW553/GD32VW55X_Wifi_BLE_SDK/GD32VW55x_RELEASE_V1.0.2/MSDK/plf/src/uart\uart.c **** char uart_getc(uint32_t uart_id)
 280:C:/Users/stapi/OneDrive/Desktop/GD32VW553/GD32VW55X_Wifi_BLE_SDK/GD32VW55x_RELEASE_V1.0.2/MSDK/plf/src/uart\uart.c **** {
 851              		.loc 1 280 1 is_stmt 1
 852              		.cfi_startproc
 853              	.LVL98:
 854 0000 17030000 		call	t0,__riscv_save_2
 854      E7020300 
 855              		.cfi_offset 9, -12
 856              		.cfi_offset 8, -8
 857              		.cfi_offset 1, -4
 858              		.cfi_def_cfa_offset 16
 281:C:/Users/stapi/OneDrive/Desktop/GD32VW553/GD32VW55X_Wifi_BLE_SDK/GD32VW55x_RELEASE_V1.0.2/MSDK/plf/src/uart\uart.c ****     uint8_t rx_char = '\0';
 859              		.loc 1 281 5
 860              	.LVL99:
 282:C:/Users/stapi/OneDrive/Desktop/GD32VW553/GD32VW55X_Wifi_BLE_SDK/GD32VW55x_RELEASE_V1.0.2/MSDK/plf/src/uart\uart.c **** 
 283:C:/Users/stapi/OneDrive/Desktop/GD32VW553/GD32VW55X_Wifi_BLE_SDK/GD32VW55x_RELEASE_V1.0.2/MSDK/plf/src/uart\uart.c ****     if ((RESET != usart_interrupt_flag_get(uart_id, USART_INT_FLAG_RBNE)) &&
 861              		.loc 1 283 5
 862              		.loc 1 283 19 is_stmt 0
 863 0008 B7050507 		li	a1,117768192
 864 000c 9505     		addi	a1,a1,5
 280:C:/Users/stapi/OneDrive/Desktop/GD32VW553/GD32VW55X_Wifi_BLE_SDK/GD32VW55x_RELEASE_V1.0.2/MSDK/plf/src/uart\uart.c ****     uint8_t rx_char = '\0';
 865              		.loc 1 280 1
 866 000e 2A84     		mv	s0,a0
 867              		.loc 1 283 19
 868 0010 97000000 		call	usart_interrupt_flag_get
 868      E7800000 
 869              	.LVL100:
 870              		.loc 1 283 8
 871 0018 01E9     		bne	a0,zero,.L74
 872              	.L76:
 281:C:/Users/stapi/OneDrive/Desktop/GD32VW553/GD32VW55X_Wifi_BLE_SDK/GD32VW55x_RELEASE_V1.0.2/MSDK/plf/src/uart\uart.c ****     uint8_t rx_char = '\0';
 873              		.loc 1 281 13
 874 001a 8144     		li	s1,0
 875              	.LVL101:
 876              	.L75:
 284:C:/Users/stapi/OneDrive/Desktop/GD32VW553/GD32VW55X_Wifi_BLE_SDK/GD32VW55x_RELEASE_V1.0.2/MSDK/plf/src/uart\uart.c ****         (RESET != usart_flag_get(uart_id, USART_FLAG_RBNE))) {
 285:C:/Users/stapi/OneDrive/Desktop/GD32VW553/GD32VW55X_Wifi_BLE_SDK/GD32VW55x_RELEASE_V1.0.2/MSDK/plf/src/uart\uart.c ****         rx_char = (char)usart_data_receive(uart_id);
 286:C:/Users/stapi/OneDrive/Desktop/GD32VW553/GD32VW55X_Wifi_BLE_SDK/GD32VW55x_RELEASE_V1.0.2/MSDK/plf/src/uart\uart.c ****         if (RESET != usart_flag_get(uart_id, USART_FLAG_ORERR)) {
 287:C:/Users/stapi/OneDrive/Desktop/GD32VW553/GD32VW55X_Wifi_BLE_SDK/GD32VW55x_RELEASE_V1.0.2/MSDK/plf/src/uart\uart.c ****             usart_flag_clear(uart_id, USART_FLAG_ORERR);
 288:C:/Users/stapi/OneDrive/Desktop/GD32VW553/GD32VW55X_Wifi_BLE_SDK/GD32VW55x_RELEASE_V1.0.2/MSDK/plf/src/uart\uart.c ****         }
 289:C:/Users/stapi/OneDrive/Desktop/GD32VW553/GD32VW55X_Wifi_BLE_SDK/GD32VW55x_RELEASE_V1.0.2/MSDK/plf/src/uart\uart.c ****     }
 290:C:/Users/stapi/OneDrive/Desktop/GD32VW553/GD32VW55X_Wifi_BLE_SDK/GD32VW55x_RELEASE_V1.0.2/MSDK/plf/src/uart\uart.c ****     return (char)rx_char;
 877              		.loc 1 290 5 is_stmt 1
 291:C:/Users/stapi/OneDrive/Desktop/GD32VW553/GD32VW55X_Wifi_BLE_SDK/GD32VW55x_RELEASE_V1.0.2/MSDK/plf/src/uart\uart.c **** }
 878              		.loc 1 291 1 is_stmt 0
 879 001c 13954460 		sext.b	a0,s1
 880 0020 17030000 		tail	__riscv_restore_2
 880      67000300 
 881              		.cfi_remember_state
 882              		.cfi_restore 9
 883              		.cfi_restore 8
 884              		.cfi_restore 1
 885              		.cfi_def_cfa_offset 0
 886              	.LVL102:
 887              	.L74:
 888              		.cfi_restore_state
 284:C:/Users/stapi/OneDrive/Desktop/GD32VW553/GD32VW55X_Wifi_BLE_SDK/GD32VW55x_RELEASE_V1.0.2/MSDK/plf/src/uart\uart.c ****         (RESET != usart_flag_get(uart_id, USART_FLAG_RBNE))) {
 889              		.loc 1 284 19 discriminator 1
 890 0028 93055070 		li	a1,1797
 891 002c 2285     		mv	a0,s0
 892 002e 97000000 		call	usart_flag_get
 892      E7800000 
 893              	.LVL103:
 283:C:/Users/stapi/OneDrive/Desktop/GD32VW553/GD32VW55X_Wifi_BLE_SDK/GD32VW55x_RELEASE_V1.0.2/MSDK/plf/src/uart\uart.c ****         (RESET != usart_flag_get(uart_id, USART_FLAG_RBNE))) {
 894              		.loc 1 283 75 discriminator 1
 895 0036 75D1     		beq	a0,zero,.L76
 285:C:/Users/stapi/OneDrive/Desktop/GD32VW553/GD32VW55X_Wifi_BLE_SDK/GD32VW55x_RELEASE_V1.0.2/MSDK/plf/src/uart\uart.c ****         if (RESET != usart_flag_get(uart_id, USART_FLAG_ORERR)) {
 896              		.loc 1 285 9 is_stmt 1
 285:C:/Users/stapi/OneDrive/Desktop/GD32VW553/GD32VW55X_Wifi_BLE_SDK/GD32VW55x_RELEASE_V1.0.2/MSDK/plf/src/uart\uart.c ****         if (RESET != usart_flag_get(uart_id, USART_FLAG_ORERR)) {
 897              		.loc 1 285 25 is_stmt 0
 898 0038 2285     		mv	a0,s0
 899 003a 97000000 		call	usart_data_receive
 899      E7800000 
 900              	.LVL104:
 285:C:/Users/stapi/OneDrive/Desktop/GD32VW553/GD32VW55X_Wifi_BLE_SDK/GD32VW55x_RELEASE_V1.0.2/MSDK/plf/src/uart\uart.c ****         if (RESET != usart_flag_get(uart_id, USART_FLAG_ORERR)) {
 901              		.loc 1 285 17
 902 0042 9374F50F 		andi	s1,a0,0xff
 903              	.LVL105:
 286:C:/Users/stapi/OneDrive/Desktop/GD32VW553/GD32VW55X_Wifi_BLE_SDK/GD32VW55x_RELEASE_V1.0.2/MSDK/plf/src/uart\uart.c ****             usart_flag_clear(uart_id, USART_FLAG_ORERR);
 904              		.loc 1 286 9 is_stmt 1
 286:C:/Users/stapi/OneDrive/Desktop/GD32VW553/GD32VW55X_Wifi_BLE_SDK/GD32VW55x_RELEASE_V1.0.2/MSDK/plf/src/uart\uart.c ****             usart_flag_clear(uart_id, USART_FLAG_ORERR);
 905              		.loc 1 286 22 is_stmt 0
 906 0046 93053070 		li	a1,1795
 907 004a 2285     		mv	a0,s0
 908 004c 97000000 		call	usart_flag_get
 908      E7800000 
 909              	.LVL106:
 286:C:/Users/stapi/OneDrive/Desktop/GD32VW553/GD32VW55X_Wifi_BLE_SDK/GD32VW55x_RELEASE_V1.0.2/MSDK/plf/src/uart\uart.c ****             usart_flag_clear(uart_id, USART_FLAG_ORERR);
 910              		.loc 1 286 12
 911 0054 61D5     		beq	a0,zero,.L75
 287:C:/Users/stapi/OneDrive/Desktop/GD32VW553/GD32VW55X_Wifi_BLE_SDK/GD32VW55x_RELEASE_V1.0.2/MSDK/plf/src/uart\uart.c ****         }
 912              		.loc 1 287 13 is_stmt 1
 913 0056 93053070 		li	a1,1795
 914 005a 2285     		mv	a0,s0
 915 005c 97000000 		call	usart_flag_clear
 915      E7800000 
 916              	.LVL107:
 917 0064 65BF     		j	.L75
 918              		.cfi_endproc
 919              	.LFE372:
 921              		.section	.text.uart_irq_hdl,"ax",@progbits
 922              		.align	1
 923              		.globl	uart_irq_hdl
 925              	uart_irq_hdl:
 926              	.LFB373:
 292:C:/Users/stapi/OneDrive/Desktop/GD32VW553/GD32VW55X_Wifi_BLE_SDK/GD32VW55x_RELEASE_V1.0.2/MSDK/plf/src/uart\uart.c **** 
 293:C:/Users/stapi/OneDrive/Desktop/GD32VW553/GD32VW55X_Wifi_BLE_SDK/GD32VW55x_RELEASE_V1.0.2/MSDK/plf/src/uart\uart.c **** void uart_irq_hdl(uint32_t uart)
 294:C:/Users/stapi/OneDrive/Desktop/GD32VW553/GD32VW55X_Wifi_BLE_SDK/GD32VW55x_RELEASE_V1.0.2/MSDK/plf/src/uart\uart.c **** {
 927              		.loc 1 294 1
 928              		.cfi_startproc
 929              	.LVL108:
 930 0000 17030000 		call	t0,__riscv_save_1
 930      E7020300 
 931              		.cfi_offset 8, -8
 932              		.cfi_offset 1, -4
 933              		.cfi_def_cfa_offset 16
 295:C:/Users/stapi/OneDrive/Desktop/GD32VW553/GD32VW55X_Wifi_BLE_SDK/GD32VW55x_RELEASE_V1.0.2/MSDK/plf/src/uart\uart.c **** #ifdef TUYAOS_SUPPORT
 296:C:/Users/stapi/OneDrive/Desktop/GD32VW553/GD32VW55X_Wifi_BLE_SDK/GD32VW55x_RELEASE_V1.0.2/MSDK/plf/src/uart\uart.c ****     tuya_uart_irq_hdl(uart);
 297:C:/Users/stapi/OneDrive/Desktop/GD32VW553/GD32VW55X_Wifi_BLE_SDK/GD32VW55x_RELEASE_V1.0.2/MSDK/plf/src/uart\uart.c **** #else
 298:C:/Users/stapi/OneDrive/Desktop/GD32VW553/GD32VW55X_Wifi_BLE_SDK/GD32VW55x_RELEASE_V1.0.2/MSDK/plf/src/uart\uart.c ****     uint8_t i;
 934              		.loc 1 298 5
 299:C:/Users/stapi/OneDrive/Desktop/GD32VW553/GD32VW55X_Wifi_BLE_SDK/GD32VW55x_RELEASE_V1.0.2/MSDK/plf/src/uart\uart.c **** 
 300:C:/Users/stapi/OneDrive/Desktop/GD32VW553/GD32VW55X_Wifi_BLE_SDK/GD32VW55x_RELEASE_V1.0.2/MSDK/plf/src/uart\uart.c ****     for (i = 0; i < MAX_UART_NUM; i++) {
 935              		.loc 1 300 5
 936              	.LVL109:
 937              		.loc 1 300 17
 301:C:/Users/stapi/OneDrive/Desktop/GD32VW553/GD32VW55X_Wifi_BLE_SDK/GD32VW55x_RELEASE_V1.0.2/MSDK/plf/src/uart\uart.c ****         if (uart_mgr.uart_cbs[i].uart_port == uart) {
 938              		.loc 1 301 9
 939              		.loc 1 301 33 is_stmt 0
 940 0008 B7070000 		lui	a5,%hi(.LANCHOR0)
 941 000c 93860700 		addi	a3,a5,%lo(.LANCHOR0)
 942              		.loc 1 301 12
 943 0010 9042     		lw	a2,0(a3)
 294:C:/Users/stapi/OneDrive/Desktop/GD32VW553/GD32VW55X_Wifi_BLE_SDK/GD32VW55x_RELEASE_V1.0.2/MSDK/plf/src/uart\uart.c **** #ifdef TUYAOS_SUPPORT
 944              		.loc 1 294 1
 945 0012 2A84     		mv	s0,a0
 946 0014 13870700 		addi	a4,a5,%lo(.LANCHOR0)
 947              		.loc 1 301 12
 948 0018 630AC504 		beq	a0,a2,.L90
 300:C:/Users/stapi/OneDrive/Desktop/GD32VW553/GD32VW55X_Wifi_BLE_SDK/GD32VW55x_RELEASE_V1.0.2/MSDK/plf/src/uart\uart.c ****         if (uart_mgr.uart_cbs[i].uart_port == uart) {
 949              		.loc 1 300 35 is_stmt 1
 950              	.LVL110:
 300:C:/Users/stapi/OneDrive/Desktop/GD32VW553/GD32VW55X_Wifi_BLE_SDK/GD32VW55x_RELEASE_V1.0.2/MSDK/plf/src/uart\uart.c ****         if (uart_mgr.uart_cbs[i].uart_port == uart) {
 951              		.loc 1 300 17
 952              		.loc 1 301 9
 953              		.loc 1 301 12 is_stmt 0
 954 001c 9C46     		lw	a5,8(a3)
 955 001e 6301F506 		beq	a0,a5,.L91
 300:C:/Users/stapi/OneDrive/Desktop/GD32VW553/GD32VW55X_Wifi_BLE_SDK/GD32VW55x_RELEASE_V1.0.2/MSDK/plf/src/uart\uart.c ****         if (uart_mgr.uart_cbs[i].uart_port == uart) {
 956              		.loc 1 300 35 is_stmt 1
 957              	.LVL111:
 300:C:/Users/stapi/OneDrive/Desktop/GD32VW553/GD32VW55X_Wifi_BLE_SDK/GD32VW55x_RELEASE_V1.0.2/MSDK/plf/src/uart\uart.c ****         if (uart_mgr.uart_cbs[i].uart_port == uart) {
 958              		.loc 1 300 17
 959              		.loc 1 301 9
 960              		.loc 1 301 12 is_stmt 0
 961 0022 9C4A     		lw	a5,16(a3)
 962 0024 6300F506 		beq	a0,a5,.L92
 300:C:/Users/stapi/OneDrive/Desktop/GD32VW553/GD32VW55X_Wifi_BLE_SDK/GD32VW55x_RELEASE_V1.0.2/MSDK/plf/src/uart\uart.c ****         if (uart_mgr.uart_cbs[i].uart_port == uart) {
 963              		.loc 1 300 35 is_stmt 1
 964              	.LVL112:
 300:C:/Users/stapi/OneDrive/Desktop/GD32VW553/GD32VW55X_Wifi_BLE_SDK/GD32VW55x_RELEASE_V1.0.2/MSDK/plf/src/uart\uart.c ****         if (uart_mgr.uart_cbs[i].uart_port == uart) {
 965              		.loc 1 300 17
 302:C:/Users/stapi/OneDrive/Desktop/GD32VW553/GD32VW55X_Wifi_BLE_SDK/GD32VW55x_RELEASE_V1.0.2/MSDK/plf/src/uart\uart.c ****             uart_mgr.uart_cbs[i].callback(uart);
 303:C:/Users/stapi/OneDrive/Desktop/GD32VW553/GD32VW55X_Wifi_BLE_SDK/GD32VW55x_RELEASE_V1.0.2/MSDK/plf/src/uart\uart.c ****             return;
 304:C:/Users/stapi/OneDrive/Desktop/GD32VW553/GD32VW55X_Wifi_BLE_SDK/GD32VW55x_RELEASE_V1.0.2/MSDK/plf/src/uart\uart.c ****         }
 305:C:/Users/stapi/OneDrive/Desktop/GD32VW553/GD32VW55X_Wifi_BLE_SDK/GD32VW55x_RELEASE_V1.0.2/MSDK/plf/src/uart\uart.c ****     }
 306:C:/Users/stapi/OneDrive/Desktop/GD32VW553/GD32VW55X_Wifi_BLE_SDK/GD32VW55x_RELEASE_V1.0.2/MSDK/plf/src/uart\uart.c **** 
 307:C:/Users/stapi/OneDrive/Desktop/GD32VW553/GD32VW55X_Wifi_BLE_SDK/GD32VW55x_RELEASE_V1.0.2/MSDK/plf/src/uart\uart.c ****     usart_interrupt_disable(uart, USART_INT_RBNE);
 966              		.loc 1 307 5
 967 0028 9545     		li	a1,5
 968 002a 97000000 		call	usart_interrupt_disable
 968      E7800000 
 969              	.LVL113:
 970              	.L86:
 308:C:/Users/stapi/OneDrive/Desktop/GD32VW553/GD32VW55X_Wifi_BLE_SDK/GD32VW55x_RELEASE_V1.0.2/MSDK/plf/src/uart\uart.c ****     while (1) {
 971              		.loc 1 308 5
 309:C:/Users/stapi/OneDrive/Desktop/GD32VW553/GD32VW55X_Wifi_BLE_SDK/GD32VW55x_RELEASE_V1.0.2/MSDK/plf/src/uart\uart.c ****         // We should have chance to check overflow error
 310:C:/Users/stapi/OneDrive/Desktop/GD32VW553/GD32VW55X_Wifi_BLE_SDK/GD32VW55x_RELEASE_V1.0.2/MSDK/plf/src/uart\uart.c ****         // Otherwise it may cause dead loop handle rx interrupt
 311:C:/Users/stapi/OneDrive/Desktop/GD32VW553/GD32VW55X_Wifi_BLE_SDK/GD32VW55x_RELEASE_V1.0.2/MSDK/plf/src/uart\uart.c ****         if (RESET != usart_flag_get(uart, USART_FLAG_ORERR)) {
 972              		.loc 1 311 9
 973              		.loc 1 311 22 is_stmt 0
 974 0032 93053070 		li	a1,1795
 975 0036 2285     		mv	a0,s0
 976 0038 97000000 		call	usart_flag_get
 976      E7800000 
 977              	.LVL114:
 978              		.loc 1 311 12
 979 0040 01C9     		beq	a0,zero,.L88
 312:C:/Users/stapi/OneDrive/Desktop/GD32VW553/GD32VW55X_Wifi_BLE_SDK/GD32VW55x_RELEASE_V1.0.2/MSDK/plf/src/uart\uart.c ****             usart_flag_clear(uart, USART_FLAG_ORERR);
 980              		.loc 1 312 13 is_stmt 1
 981 0042 93053070 		li	a1,1795
 982 0046 2285     		mv	a0,s0
 983 0048 97000000 		call	usart_flag_clear
 983      E7800000 
 984              	.LVL115:
 985              	.L88:
 313:C:/Users/stapi/OneDrive/Desktop/GD32VW553/GD32VW55X_Wifi_BLE_SDK/GD32VW55x_RELEASE_V1.0.2/MSDK/plf/src/uart\uart.c ****         }
 314:C:/Users/stapi/OneDrive/Desktop/GD32VW553/GD32VW55X_Wifi_BLE_SDK/GD32VW55x_RELEASE_V1.0.2/MSDK/plf/src/uart\uart.c **** 
 315:C:/Users/stapi/OneDrive/Desktop/GD32VW553/GD32VW55X_Wifi_BLE_SDK/GD32VW55x_RELEASE_V1.0.2/MSDK/plf/src/uart\uart.c ****         if ((RESET != usart_flag_get(uart, USART_FLAG_RBNE))) {
 986              		.loc 1 315 9
 987              		.loc 1 315 23 is_stmt 0
 988 0050 93055070 		li	a1,1797
 989 0054 2285     		mv	a0,s0
 990 0056 97000000 		call	usart_flag_get
 990      E7800000 
 991              	.LVL116:
 992              		.loc 1 315 12
 993 005e 0DC5     		beq	a0,zero,.L89
 316:C:/Users/stapi/OneDrive/Desktop/GD32VW553/GD32VW55X_Wifi_BLE_SDK/GD32VW55x_RELEASE_V1.0.2/MSDK/plf/src/uart\uart.c ****             usart_data_receive(uart);
 994              		.loc 1 316 13 is_stmt 1
 995 0060 2285     		mv	a0,s0
 996 0062 97000000 		call	usart_data_receive
 996      E7800000 
 997              	.LVL117:
 308:C:/Users/stapi/OneDrive/Desktop/GD32VW553/GD32VW55X_Wifi_BLE_SDK/GD32VW55x_RELEASE_V1.0.2/MSDK/plf/src/uart\uart.c ****         // We should have chance to check overflow error
 998              		.loc 1 308 11
 311:C:/Users/stapi/OneDrive/Desktop/GD32VW553/GD32VW55X_Wifi_BLE_SDK/GD32VW55x_RELEASE_V1.0.2/MSDK/plf/src/uart\uart.c ****             usart_flag_clear(uart, USART_FLAG_ORERR);
 999              		.loc 1 311 12 is_stmt 0
 1000 006a E1B7     		j	.L86
 1001              	.LVL118:
 1002              	.L90:
 301:C:/Users/stapi/OneDrive/Desktop/GD32VW553/GD32VW55X_Wifi_BLE_SDK/GD32VW55x_RELEASE_V1.0.2/MSDK/plf/src/uart\uart.c ****             uart_mgr.uart_cbs[i].callback(uart);
 1003              		.loc 1 301 33
 1004 006c 8147     		li	a5,0
 1005              	.LVL119:
 1006              	.L85:
 302:C:/Users/stapi/OneDrive/Desktop/GD32VW553/GD32VW55X_Wifi_BLE_SDK/GD32VW55x_RELEASE_V1.0.2/MSDK/plf/src/uart\uart.c ****             return;
 1007              		.loc 1 302 13 is_stmt 1
 302:C:/Users/stapi/OneDrive/Desktop/GD32VW553/GD32VW55X_Wifi_BLE_SDK/GD32VW55x_RELEASE_V1.0.2/MSDK/plf/src/uart\uart.c ****             return;
 1008              		.loc 1 302 33 is_stmt 0
 1009 006e B3E7E720 		sh3add	a5,a5,a4
 302:C:/Users/stapi/OneDrive/Desktop/GD32VW553/GD32VW55X_Wifi_BLE_SDK/GD32VW55x_RELEASE_V1.0.2/MSDK/plf/src/uart\uart.c ****             return;
 1010              		.loc 1 302 13
 1011 0072 DC43     		lw	a5,4(a5)
 1012 0074 2285     		mv	a0,s0
 1013 0076 8297     		jalr	a5
 1014              	.LVL120:
 303:C:/Users/stapi/OneDrive/Desktop/GD32VW553/GD32VW55X_Wifi_BLE_SDK/GD32VW55x_RELEASE_V1.0.2/MSDK/plf/src/uart\uart.c ****         }
 1015              		.loc 1 303 13 is_stmt 1
 1016              	.L84:
 317:C:/Users/stapi/OneDrive/Desktop/GD32VW553/GD32VW55X_Wifi_BLE_SDK/GD32VW55x_RELEASE_V1.0.2/MSDK/plf/src/uart\uart.c ****         } else {
 318:C:/Users/stapi/OneDrive/Desktop/GD32VW553/GD32VW55X_Wifi_BLE_SDK/GD32VW55x_RELEASE_V1.0.2/MSDK/plf/src/uart\uart.c ****             break;
 319:C:/Users/stapi/OneDrive/Desktop/GD32VW553/GD32VW55X_Wifi_BLE_SDK/GD32VW55x_RELEASE_V1.0.2/MSDK/plf/src/uart\uart.c ****         }
 320:C:/Users/stapi/OneDrive/Desktop/GD32VW553/GD32VW55X_Wifi_BLE_SDK/GD32VW55x_RELEASE_V1.0.2/MSDK/plf/src/uart\uart.c ****     }
 321:C:/Users/stapi/OneDrive/Desktop/GD32VW553/GD32VW55X_Wifi_BLE_SDK/GD32VW55x_RELEASE_V1.0.2/MSDK/plf/src/uart\uart.c **** 
 322:C:/Users/stapi/OneDrive/Desktop/GD32VW553/GD32VW55X_Wifi_BLE_SDK/GD32VW55x_RELEASE_V1.0.2/MSDK/plf/src/uart\uart.c ****     usart_interrupt_enable(uart, USART_INT_RBNE);
 323:C:/Users/stapi/OneDrive/Desktop/GD32VW553/GD32VW55X_Wifi_BLE_SDK/GD32VW55x_RELEASE_V1.0.2/MSDK/plf/src/uart\uart.c **** #endif
 324:C:/Users/stapi/OneDrive/Desktop/GD32VW553/GD32VW55X_Wifi_BLE_SDK/GD32VW55x_RELEASE_V1.0.2/MSDK/plf/src/uart\uart.c **** }
 1017              		.loc 1 324 1 is_stmt 0
 1018 0078 17030000 		tail	__riscv_restore_1
 1018      67000300 
 1019              		.cfi_remember_state
 1020              		.cfi_restore 8
 1021              		.cfi_restore 1
 1022              		.cfi_def_cfa_offset 0
 1023              	.LVL121:
 1024              	.L91:
 1025              		.cfi_restore_state
 301:C:/Users/stapi/OneDrive/Desktop/GD32VW553/GD32VW55X_Wifi_BLE_SDK/GD32VW55x_RELEASE_V1.0.2/MSDK/plf/src/uart\uart.c ****             uart_mgr.uart_cbs[i].callback(uart);
 1026              		.loc 1 301 33
 1027 0080 8547     		li	a5,1
 1028 0082 F5B7     		j	.L85
 1029              	.LVL122:
 1030              	.L92:
 1031 0084 8947     		li	a5,2
 1032 0086 E5B7     		j	.L85
 1033              	.LVL123:
 1034              	.L89:
 322:C:/Users/stapi/OneDrive/Desktop/GD32VW553/GD32VW55X_Wifi_BLE_SDK/GD32VW55x_RELEASE_V1.0.2/MSDK/plf/src/uart\uart.c **** #endif
 1035              		.loc 1 322 5 is_stmt 1
 1036 0088 9545     		li	a1,5
 1037 008a 2285     		mv	a0,s0
 1038 008c 97000000 		call	usart_interrupt_enable
 1038      E7800000 
 1039              	.LVL124:
 1040 0094 D5B7     		j	.L84
 1041              		.cfi_endproc
 1042              	.LFE373:
 1044              		.section	.text.uart_tx_idle_wait,"ax",@progbits
 1045              		.align	1
 1046              		.globl	uart_tx_idle_wait
 1048              	uart_tx_idle_wait:
 1049              	.LFB374:
 325:C:/Users/stapi/OneDrive/Desktop/GD32VW553/GD32VW55X_Wifi_BLE_SDK/GD32VW55x_RELEASE_V1.0.2/MSDK/plf/src/uart\uart.c **** 
 326:C:/Users/stapi/OneDrive/Desktop/GD32VW553/GD32VW55X_Wifi_BLE_SDK/GD32VW55x_RELEASE_V1.0.2/MSDK/plf/src/uart\uart.c **** void uart_tx_idle_wait(uint32_t usart_periph)
 327:C:/Users/stapi/OneDrive/Desktop/GD32VW553/GD32VW55X_Wifi_BLE_SDK/GD32VW55x_RELEASE_V1.0.2/MSDK/plf/src/uart\uart.c **** {
 1050              		.loc 1 327 1
 1051              		.cfi_startproc
 1052              	.LVL125:
 1053 0000 17030000 		call	t0,__riscv_save_1
 1053      E7020300 
 1054              		.cfi_offset 8, -8
 1055              		.cfi_offset 1, -4
 1056              		.cfi_def_cfa_offset 16
 1057 0008 2A84     		mv	s0,a0
 328:C:/Users/stapi/OneDrive/Desktop/GD32VW553/GD32VW55X_Wifi_BLE_SDK/GD32VW55x_RELEASE_V1.0.2/MSDK/plf/src/uart\uart.c ****     while (RESET == usart_flag_get(usart_periph, USART_FLAG_TC));
 1058              		.loc 1 328 5
 1059              	.LVL126:
 1060              	.L98:
 1061              		.loc 1 328 65 discriminator 1
 1062              		.loc 1 328 11 discriminator 1
 1063              		.loc 1 328 21 is_stmt 0 discriminator 1
 1064 000a 93056070 		li	a1,1798
 1065 000e 2285     		mv	a0,s0
 1066 0010 97000000 		call	usart_flag_get
 1066      E7800000 
 1067              	.LVL127:
 1068              		.loc 1 328 11 discriminator 1
 1069 0018 6DD9     		beq	a0,zero,.L98
 329:C:/Users/stapi/OneDrive/Desktop/GD32VW553/GD32VW55X_Wifi_BLE_SDK/GD32VW55x_RELEASE_V1.0.2/MSDK/plf/src/uart\uart.c **** }
 1070              		.loc 1 329 1
 1071 001a 17030000 		tail	__riscv_restore_1
 1071      67000300 
 1072              		.cfi_restore 8
 1073              		.cfi_restore 1
 1074              		.cfi_def_cfa_offset 0
 1075              		.cfi_endproc
 1076              	.LFE374:
 1078              		.section	.text.uart_getc_with_timeout,"ax",@progbits
 1079              		.align	1
 1080              		.globl	uart_getc_with_timeout
 1082              	uart_getc_with_timeout:
 1083              	.LFB375:
 330:C:/Users/stapi/OneDrive/Desktop/GD32VW553/GD32VW55X_Wifi_BLE_SDK/GD32VW55x_RELEASE_V1.0.2/MSDK/plf/src/uart\uart.c **** 
 331:C:/Users/stapi/OneDrive/Desktop/GD32VW553/GD32VW55X_Wifi_BLE_SDK/GD32VW55x_RELEASE_V1.0.2/MSDK/plf/src/uart\uart.c **** int uart_getc_with_timeout(uint32_t usart_periph, char *ch, int timeout)
 332:C:/Users/stapi/OneDrive/Desktop/GD32VW553/GD32VW55X_Wifi_BLE_SDK/GD32VW55x_RELEASE_V1.0.2/MSDK/plf/src/uart\uart.c **** {
 1084              		.loc 1 332 1 is_stmt 1
 1085              		.cfi_startproc
 1086              	.LVL128:
 1087 0000 17030000 		call	t0,__riscv_save_3
 1087      E7020300 
 1088              		.cfi_offset 18, -16
 1089              		.cfi_offset 9, -12
 1090              		.cfi_offset 8, -8
 1091              		.cfi_offset 1, -4
 1092              		.cfi_def_cfa_offset 16
 1093 0008 AA84     		mv	s1,a0
 1094 000a 2E89     		mv	s2,a1
 1095 000c 3284     		mv	s0,a2
 333:C:/Users/stapi/OneDrive/Desktop/GD32VW553/GD32VW55X_Wifi_BLE_SDK/GD32VW55x_RELEASE_V1.0.2/MSDK/plf/src/uart\uart.c ****     while (timeout -- > 0) {
 1096              		.loc 1 333 5
 1097              	.LVL129:
 1098              	.L103:
 1099              		.loc 1 333 11
 1100 000e 63448000 		bgt	s0,zero,.L105
 334:C:/Users/stapi/OneDrive/Desktop/GD32VW553/GD32VW55X_Wifi_BLE_SDK/GD32VW55x_RELEASE_V1.0.2/MSDK/plf/src/uart\uart.c ****         if (RESET != usart_flag_get(usart_periph, USART_FLAG_RBNE)) {
 335:C:/Users/stapi/OneDrive/Desktop/GD32VW553/GD32VW55X_Wifi_BLE_SDK/GD32VW55x_RELEASE_V1.0.2/MSDK/plf/src/uart\uart.c ****             *ch = (char)usart_data_receive(usart_periph);
 336:C:/Users/stapi/OneDrive/Desktop/GD32VW553/GD32VW55X_Wifi_BLE_SDK/GD32VW55x_RELEASE_V1.0.2/MSDK/plf/src/uart\uart.c ****             return 0;
 337:C:/Users/stapi/OneDrive/Desktop/GD32VW553/GD32VW55X_Wifi_BLE_SDK/GD32VW55x_RELEASE_V1.0.2/MSDK/plf/src/uart\uart.c ****         }
 338:C:/Users/stapi/OneDrive/Desktop/GD32VW553/GD32VW55X_Wifi_BLE_SDK/GD32VW55x_RELEASE_V1.0.2/MSDK/plf/src/uart\uart.c ****     }
 339:C:/Users/stapi/OneDrive/Desktop/GD32VW553/GD32VW55X_Wifi_BLE_SDK/GD32VW55x_RELEASE_V1.0.2/MSDK/plf/src/uart\uart.c ****     return 1;
 1101              		.loc 1 339 12 is_stmt 0
 1102 0012 0545     		li	a0,1
 1103 0014 15A0     		j	.L102
 1104              	.L105:
 334:C:/Users/stapi/OneDrive/Desktop/GD32VW553/GD32VW55X_Wifi_BLE_SDK/GD32VW55x_RELEASE_V1.0.2/MSDK/plf/src/uart\uart.c ****         if (RESET != usart_flag_get(usart_periph, USART_FLAG_RBNE)) {
 1105              		.loc 1 334 9 is_stmt 1
 334:C:/Users/stapi/OneDrive/Desktop/GD32VW553/GD32VW55X_Wifi_BLE_SDK/GD32VW55x_RELEASE_V1.0.2/MSDK/plf/src/uart\uart.c ****         if (RESET != usart_flag_get(usart_periph, USART_FLAG_RBNE)) {
 1106              		.loc 1 334 22 is_stmt 0
 1107 0016 93055070 		li	a1,1797
 1108 001a 2685     		mv	a0,s1
 1109 001c 97000000 		call	usart_flag_get
 1109      E7800000 
 1110              	.LVL130:
 334:C:/Users/stapi/OneDrive/Desktop/GD32VW553/GD32VW55X_Wifi_BLE_SDK/GD32VW55x_RELEASE_V1.0.2/MSDK/plf/src/uart\uart.c ****         if (RESET != usart_flag_get(usart_periph, USART_FLAG_RBNE)) {
 1111              		.loc 1 334 12
 1112 0024 7D14     		addi	s0,s0,-1
 1113              	.LVL131:
 1114 0026 65D5     		beq	a0,zero,.L103
 335:C:/Users/stapi/OneDrive/Desktop/GD32VW553/GD32VW55X_Wifi_BLE_SDK/GD32VW55x_RELEASE_V1.0.2/MSDK/plf/src/uart\uart.c ****             return 0;
 1115              		.loc 1 335 13 is_stmt 1
 335:C:/Users/stapi/OneDrive/Desktop/GD32VW553/GD32VW55X_Wifi_BLE_SDK/GD32VW55x_RELEASE_V1.0.2/MSDK/plf/src/uart\uart.c ****             return 0;
 1116              		.loc 1 335 25 is_stmt 0
 1117 0028 2685     		mv	a0,s1
 1118 002a 97000000 		call	usart_data_receive
 1118      E7800000 
 1119              	.LVL132:
 335:C:/Users/stapi/OneDrive/Desktop/GD32VW553/GD32VW55X_Wifi_BLE_SDK/GD32VW55x_RELEASE_V1.0.2/MSDK/plf/src/uart\uart.c ****             return 0;
 1120              		.loc 1 335 19
 1121 0032 2300A900 		sb	a0,0(s2)
 336:C:/Users/stapi/OneDrive/Desktop/GD32VW553/GD32VW55X_Wifi_BLE_SDK/GD32VW55x_RELEASE_V1.0.2/MSDK/plf/src/uart\uart.c ****         }
 1122              		.loc 1 336 13 is_stmt 1
 336:C:/Users/stapi/OneDrive/Desktop/GD32VW553/GD32VW55X_Wifi_BLE_SDK/GD32VW55x_RELEASE_V1.0.2/MSDK/plf/src/uart\uart.c ****         }
 1123              		.loc 1 336 20 is_stmt 0
 1124 0036 0145     		li	a0,0
 1125              	.LVL133:
 1126              	.L102:
 340:C:/Users/stapi/OneDrive/Desktop/GD32VW553/GD32VW55X_Wifi_BLE_SDK/GD32VW55x_RELEASE_V1.0.2/MSDK/plf/src/uart\uart.c **** }
 1127              		.loc 1 340 1
 1128 0038 17030000 		tail	__riscv_restore_3
 1128      67000300 
 1129              		.cfi_restore 18
 1130              		.cfi_restore 9
 1131              		.cfi_restore 8
 1132              		.cfi_restore 1
 1133              		.cfi_def_cfa_offset 0
 1134              		.cfi_endproc
 1135              	.LFE375:
 1137              		.section	.text.uart_rx_flush,"ax",@progbits
 1138              		.align	1
 1139              		.globl	uart_rx_flush
 1141              	uart_rx_flush:
 1142              	.LFB376:
 341:C:/Users/stapi/OneDrive/Desktop/GD32VW553/GD32VW55X_Wifi_BLE_SDK/GD32VW55x_RELEASE_V1.0.2/MSDK/plf/src/uart\uart.c **** 
 342:C:/Users/stapi/OneDrive/Desktop/GD32VW553/GD32VW55X_Wifi_BLE_SDK/GD32VW55x_RELEASE_V1.0.2/MSDK/plf/src/uart\uart.c **** void uart_rx_flush(uint32_t usart_periph)
 343:C:/Users/stapi/OneDrive/Desktop/GD32VW553/GD32VW55X_Wifi_BLE_SDK/GD32VW55x_RELEASE_V1.0.2/MSDK/plf/src/uart\uart.c **** {
 1143              		.loc 1 343 1 is_stmt 1
 1144              		.cfi_startproc
 1145              	.LVL134:
 1146 0000 17030000 		call	t0,__riscv_save_1
 1146      E7020300 
 1147              		.cfi_offset 8, -8
 1148              		.cfi_offset 1, -4
 1149              		.cfi_def_cfa_offset 16
 1150 0008 2A84     		mv	s0,a0
 344:C:/Users/stapi/OneDrive/Desktop/GD32VW553/GD32VW55X_Wifi_BLE_SDK/GD32VW55x_RELEASE_V1.0.2/MSDK/plf/src/uart\uart.c ****     while (RESET != usart_flag_get(usart_periph, USART_FLAG_RBNE)) {
 1151              		.loc 1 344 5
 1152              	.LVL135:
 1153              	.L110:
 1154              		.loc 1 344 11
 1155              		.loc 1 344 21 is_stmt 0
 1156 000a 93055070 		li	a1,1797
 1157 000e 2285     		mv	a0,s0
 1158 0010 97000000 		call	usart_flag_get
 1158      E7800000 
 1159              	.LVL136:
 1160              		.loc 1 344 11
 1161 0018 09E5     		bne	a0,zero,.L111
 345:C:/Users/stapi/OneDrive/Desktop/GD32VW553/GD32VW55X_Wifi_BLE_SDK/GD32VW55x_RELEASE_V1.0.2/MSDK/plf/src/uart\uart.c ****         usart_data_receive(usart_periph);
 346:C:/Users/stapi/OneDrive/Desktop/GD32VW553/GD32VW55X_Wifi_BLE_SDK/GD32VW55x_RELEASE_V1.0.2/MSDK/plf/src/uart\uart.c ****     }
 347:C:/Users/stapi/OneDrive/Desktop/GD32VW553/GD32VW55X_Wifi_BLE_SDK/GD32VW55x_RELEASE_V1.0.2/MSDK/plf/src/uart\uart.c **** }
 1162              		.loc 1 347 1
 1163 001a 17030000 		tail	__riscv_restore_1
 1163      67000300 
 1164              		.cfi_remember_state
 1165              		.cfi_restore 8
 1166              		.cfi_restore 1
 1167              		.cfi_def_cfa_offset 0
 1168              	.L111:
 1169              		.cfi_restore_state
 345:C:/Users/stapi/OneDrive/Desktop/GD32VW553/GD32VW55X_Wifi_BLE_SDK/GD32VW55x_RELEASE_V1.0.2/MSDK/plf/src/uart\uart.c ****         usart_data_receive(usart_periph);
 1170              		.loc 1 345 9 is_stmt 1
 1171 0022 2285     		mv	a0,s0
 1172 0024 97000000 		call	usart_data_receive
 1172      E7800000 
 1173              	.LVL137:
 1174 002c F9BF     		j	.L110
 1175              		.cfi_endproc
 1176              	.LFE376:
 1178              		.section	.bss.uart_mgr,"aw",@nobits
 1179              		.align	2
 1180              		.set	.LANCHOR0,. + 0
 1183              	uart_mgr:
 1184 0000 00000000 		.zero	24
 1184      00000000 
 1184      00000000 
 1184      00000000 
 1184      00000000 
 1185              		.text
 1186              	.Letext0:
 1187              		.file 2 "c:\\users\\stapi\\onedrive\\desktop\\gd32vw553\\embeddedbuilder_v1.4.7.26843\\tools\\nucl
 1188              		.file 3 "c:\\users\\stapi\\onedrive\\desktop\\gd32vw553\\embeddedbuilder_v1.4.7.26843\\tools\\nucl
 1189              		.file 4 "c:\\users\\stapi\\onedrive\\desktop\\gd32vw553\\embeddedbuilder_v1.4.7.26843\\tools\\nucl
 1190              		.file 5 "c:\\users\\stapi\\onedrive\\desktop\\gd32vw553\\embeddedbuilder_v1.4.7.26843\\tools\\nucl
 1191              		.file 6 "c:\\users\\stapi\\onedrive\\desktop\\gd32vw553\\embeddedbuilder_v1.4.7.26843\\tools\\nucl
 1192              		.file 7 "c:\\users\\stapi\\onedrive\\desktop\\gd32vw553\\embeddedbuilder_v1.4.7.26843\\tools\\nucl
 1193              		.file 8 "..\\..\\..\\..\\plf\\riscv\\gd32vw55x/gd32vw55x.h"
 1194              		.file 9 "..\\..\\..\\..\\plf\\GD32VW55x_standard_peripheral\\Include/gd32vw55x_dma.h"
 1195              		.file 10 "..\\..\\..\\..\\plf\\GD32VW55x_standard_peripheral\\Include/gd32vw55x_rcu.h"
 1196              		.file 11 "..\\..\\..\\..\\plf\\GD32VW55x_standard_peripheral\\Include/gd32vw55x_usart.h"
 1197              		.file 12 "C:/Users/stapi/OneDrive/Desktop/GD32VW553/GD32VW55X_Wifi_BLE_SDK/GD32VW55x_RELEASE_V1.0.
 1198              		.file 13 "..\\..\\..\\..\\plf\\GD32VW55x_standard_peripheral\\Include/gd32vw55x_gpio.h"
 1199              		.file 14 "c:\\users\\stapi\\onedrive\\desktop\\gd32vw553\\embeddedbuilder_v1.4.7.26843\\tools\\nuc
 1200              		.file 15 "<built-in>"
DEFINED SYMBOLS
                            *ABS*:0000000000000000 uart.c
C:\Users\stapi\AppData\Local\Temp\ccuG8hVZ.s:13     .text.uart_driver_init:0000000000000000 uart_driver_init
C:\Users\stapi\AppData\Local\Temp\ccuG8hVZ.s:17     .text.uart_driver_init:0000000000000000 .L0 
C:\Users\stapi\AppData\Local\Temp\ccuG8hVZ.s:18     .text.uart_driver_init:0000000000000000 .L0 
C:\Users\stapi\AppData\Local\Temp\ccuG8hVZ.s:19     .text.uart_driver_init:0000000000000000 .L0 
C:\Users\stapi\AppData\Local\Temp\ccuG8hVZ.s:25     .text.uart_driver_init:0000000000000014 .L0 
C:\Users\stapi\AppData\Local\Temp\ccuG8hVZ.s:32     .text.uart_irq_callback_register:0000000000000000 uart_irq_callback_register
C:\Users\stapi\AppData\Local\Temp\ccuG8hVZ.s:35     .text.uart_irq_callback_register:0000000000000000 .L0 
C:\Users\stapi\AppData\Local\Temp\ccuG8hVZ.s:37     .text.uart_irq_callback_register:0000000000000000 .L0 
C:\Users\stapi\AppData\Local\Temp\ccuG8hVZ.s:38     .text.uart_irq_callback_register:0000000000000000 .L0 
C:\Users\stapi\AppData\Local\Temp\ccuG8hVZ.s:39     .text.uart_irq_callback_register:0000000000000000 .L0 
C:\Users\stapi\AppData\Local\Temp\ccuG8hVZ.s:40     .text.uart_irq_callback_register:0000000000000000 .L0 
C:\Users\stapi\AppData\Local\Temp\ccuG8hVZ.s:43     .text.uart_irq_callback_register:0000000000000008 .L0 
C:\Users\stapi\AppData\Local\Temp\ccuG8hVZ.s:46     .text.uart_irq_callback_register:000000000000000e .L0 
C:\Users\stapi\AppData\Local\Temp\ccuG8hVZ.s:50     .text.uart_irq_callback_register:0000000000000010 .L0 
C:\Users\stapi\AppData\Local\Temp\ccuG8hVZ.s:51     .text.uart_irq_callback_register:0000000000000010 .L0 
C:\Users\stapi\AppData\Local\Temp\ccuG8hVZ.s:53     .text.uart_irq_callback_register:0000000000000012 .L0 
C:\Users\stapi\AppData\Local\Temp\ccuG8hVZ.s:55     .text.uart_irq_callback_register:0000000000000016 .L0 
C:\Users\stapi\AppData\Local\Temp\ccuG8hVZ.s:56     .text.uart_irq_callback_register:0000000000000016 .L0 
C:\Users\stapi\AppData\Local\Temp\ccuG8hVZ.s:58     .text.uart_irq_callback_register:0000000000000018 .L0 
C:\Users\stapi\AppData\Local\Temp\ccuG8hVZ.s:59     .text.uart_irq_callback_register:0000000000000018 .L0 
C:\Users\stapi\AppData\Local\Temp\ccuG8hVZ.s:62     .text.uart_irq_callback_register:000000000000001c .L0 
C:\Users\stapi\AppData\Local\Temp\ccuG8hVZ.s:64     .text.uart_irq_callback_register:000000000000001e .L0 
C:\Users\stapi\AppData\Local\Temp\ccuG8hVZ.s:66     .text.uart_irq_callback_register:0000000000000020 .L0 
C:\Users\stapi\AppData\Local\Temp\ccuG8hVZ.s:67     .text.uart_irq_callback_register:0000000000000020 .L0 
C:\Users\stapi\AppData\Local\Temp\ccuG8hVZ.s:68     .text.uart_irq_callback_register:0000000000000020 .L0 
C:\Users\stapi\AppData\Local\Temp\ccuG8hVZ.s:74     .text.uart_irq_callback_register:0000000000000024 .L0 
C:\Users\stapi\AppData\Local\Temp\ccuG8hVZ.s:75     .text.uart_irq_callback_register:0000000000000024 .L0 
C:\Users\stapi\AppData\Local\Temp\ccuG8hVZ.s:76     .text.uart_irq_callback_register:0000000000000024 .L0 
C:\Users\stapi\AppData\Local\Temp\ccuG8hVZ.s:82     .text.uart_irq_callback_register:000000000000002c .L0 
C:\Users\stapi\AppData\Local\Temp\ccuG8hVZ.s:85     .text.uart_irq_callback_register:000000000000002e .L0 
C:\Users\stapi\AppData\Local\Temp\ccuG8hVZ.s:86     .text.uart_irq_callback_register:0000000000000030 .L0 
C:\Users\stapi\AppData\Local\Temp\ccuG8hVZ.s:93     .text.uart_irq_callback_unregister:0000000000000000 uart_irq_callback_unregister
C:\Users\stapi\AppData\Local\Temp\ccuG8hVZ.s:96     .text.uart_irq_callback_unregister:0000000000000000 .L0 
C:\Users\stapi\AppData\Local\Temp\ccuG8hVZ.s:98     .text.uart_irq_callback_unregister:0000000000000000 .L0 
C:\Users\stapi\AppData\Local\Temp\ccuG8hVZ.s:99     .text.uart_irq_callback_unregister:0000000000000000 .L0 
C:\Users\stapi\AppData\Local\Temp\ccuG8hVZ.s:100    .text.uart_irq_callback_unregister:0000000000000000 .L0 
C:\Users\stapi\AppData\Local\Temp\ccuG8hVZ.s:101    .text.uart_irq_callback_unregister:0000000000000000 .L0 
C:\Users\stapi\AppData\Local\Temp\ccuG8hVZ.s:102    .text.uart_irq_callback_unregister:0000000000000000 .L0 
C:\Users\stapi\AppData\Local\Temp\ccuG8hVZ.s:103    .text.uart_irq_callback_unregister:0000000000000000 .L0 
C:\Users\stapi\AppData\Local\Temp\ccuG8hVZ.s:105    .text.uart_irq_callback_unregister:0000000000000004 .L0 
C:\Users\stapi\AppData\Local\Temp\ccuG8hVZ.s:107    .text.uart_irq_callback_unregister:0000000000000008 .L0 
C:\Users\stapi\AppData\Local\Temp\ccuG8hVZ.s:110    .text.uart_irq_callback_unregister:000000000000000e .L0 
C:\Users\stapi\AppData\Local\Temp\ccuG8hVZ.s:113    .text.uart_irq_callback_unregister:0000000000000012 .L0 
C:\Users\stapi\AppData\Local\Temp\ccuG8hVZ.s:114    .text.uart_irq_callback_unregister:0000000000000012 .L0 
C:\Users\stapi\AppData\Local\Temp\ccuG8hVZ.s:115    .text.uart_irq_callback_unregister:0000000000000012 .L0 
C:\Users\stapi\AppData\Local\Temp\ccuG8hVZ.s:116    .text.uart_irq_callback_unregister:0000000000000012 .L0 
C:\Users\stapi\AppData\Local\Temp\ccuG8hVZ.s:120    .text.uart_irq_callback_unregister:0000000000000018 .L0 
C:\Users\stapi\AppData\Local\Temp\ccuG8hVZ.s:121    .text.uart_irq_callback_unregister:0000000000000018 .L0 
C:\Users\stapi\AppData\Local\Temp\ccuG8hVZ.s:122    .text.uart_irq_callback_unregister:0000000000000018 .L0 
C:\Users\stapi\AppData\Local\Temp\ccuG8hVZ.s:123    .text.uart_irq_callback_unregister:0000000000000018 .L0 
C:\Users\stapi\AppData\Local\Temp\ccuG8hVZ.s:125    .text.uart_irq_callback_unregister:000000000000001a .L0 
C:\Users\stapi\AppData\Local\Temp\ccuG8hVZ.s:128    .text.uart_irq_callback_unregister:000000000000001c .L0 
C:\Users\stapi\AppData\Local\Temp\ccuG8hVZ.s:130    .text.uart_irq_callback_unregister:0000000000000020 .L0 
C:\Users\stapi\AppData\Local\Temp\ccuG8hVZ.s:134    .text.uart_irq_callback_unregister:0000000000000022 .L0 
C:\Users\stapi\AppData\Local\Temp\ccuG8hVZ.s:135    .text.uart_irq_callback_unregister:0000000000000022 .L0 
C:\Users\stapi\AppData\Local\Temp\ccuG8hVZ.s:137    .text.uart_irq_callback_unregister:0000000000000026 .L0 
C:\Users\stapi\AppData\Local\Temp\ccuG8hVZ.s:139    .text.uart_irq_callback_unregister:0000000000000028 .L0 
C:\Users\stapi\AppData\Local\Temp\ccuG8hVZ.s:141    .text.uart_irq_callback_unregister:000000000000002c .L0 
C:\Users\stapi\AppData\Local\Temp\ccuG8hVZ.s:142    .text.uart_irq_callback_unregister:000000000000002c .L0 
C:\Users\stapi\AppData\Local\Temp\ccuG8hVZ.s:145    .text.uart_irq_callback_unregister:0000000000000030 .L0 
C:\Users\stapi\AppData\Local\Temp\ccuG8hVZ.s:146    .text.uart_irq_callback_unregister:0000000000000030 .L0 
C:\Users\stapi\AppData\Local\Temp\ccuG8hVZ.s:150    .text.uart_irq_callback_unregister:0000000000000032 .L0 
C:\Users\stapi\AppData\Local\Temp\ccuG8hVZ.s:156    .text.uart_irq_callback_unregister:000000000000003a .L0 
C:\Users\stapi\AppData\Local\Temp\ccuG8hVZ.s:163    .text.uart_dma_single_mode_config:0000000000000000 uart_dma_single_mode_config
C:\Users\stapi\AppData\Local\Temp\ccuG8hVZ.s:166    .text.uart_dma_single_mode_config:0000000000000000 .L0 
C:\Users\stapi\AppData\Local\Temp\ccuG8hVZ.s:168    .text.uart_dma_single_mode_config:0000000000000000 .L0 
C:\Users\stapi\AppData\Local\Temp\ccuG8hVZ.s:169    .text.uart_dma_single_mode_config:0000000000000008 .L0 
C:\Users\stapi\AppData\Local\Temp\ccuG8hVZ.s:170    .text.uart_dma_single_mode_config:0000000000000008 .L0 
C:\Users\stapi\AppData\Local\Temp\ccuG8hVZ.s:171    .text.uart_dma_single_mode_config:0000000000000008 .L0 
C:\Users\stapi\AppData\Local\Temp\ccuG8hVZ.s:172    .text.uart_dma_single_mode_config:0000000000000008 .L0 
C:\Users\stapi\AppData\Local\Temp\ccuG8hVZ.s:174    .text.uart_dma_single_mode_config:0000000000000008 .L0 
C:\Users\stapi\AppData\Local\Temp\ccuG8hVZ.s:176    .text.uart_dma_single_mode_config:0000000000000008 .L0 
C:\Users\stapi\AppData\Local\Temp\ccuG8hVZ.s:177    .text.uart_dma_single_mode_config:0000000000000008 .L0 
C:\Users\stapi\AppData\Local\Temp\ccuG8hVZ.s:178    .text.uart_dma_single_mode_config:0000000000000008 .L0 
C:\Users\stapi\AppData\Local\Temp\ccuG8hVZ.s:179    .text.uart_dma_single_mode_config:000000000000000a .L0 
C:\Users\stapi\AppData\Local\Temp\ccuG8hVZ.s:181    .text.uart_dma_single_mode_config:000000000000000a .L0 
C:\Users\stapi\AppData\Local\Temp\ccuG8hVZ.s:183    .text.uart_dma_single_mode_config:000000000000000c .L0 
C:\Users\stapi\AppData\Local\Temp\ccuG8hVZ.s:186    .text.uart_dma_single_mode_config:000000000000000e .L0 
C:\Users\stapi\AppData\Local\Temp\ccuG8hVZ.s:188    .text.uart_dma_single_mode_config:0000000000000010 .L0 
C:\Users\stapi\AppData\Local\Temp\ccuG8hVZ.s:191    .text.uart_dma_single_mode_config:0000000000000018 .L0 
C:\Users\stapi\AppData\Local\Temp\ccuG8hVZ.s:192    .text.uart_dma_single_mode_config:0000000000000018 .L0 
C:\Users\stapi\AppData\Local\Temp\ccuG8hVZ.s:195    .text.uart_dma_single_mode_config:000000000000001c .L0 
C:\Users\stapi\AppData\Local\Temp\ccuG8hVZ.s:198    .text.uart_dma_single_mode_config:0000000000000022 .L0 
C:\Users\stapi\AppData\Local\Temp\ccuG8hVZ.s:200    .text.uart_dma_single_mode_config:0000000000000024 .L0 
C:\Users\stapi\AppData\Local\Temp\ccuG8hVZ.s:201    .text.uart_dma_single_mode_config:0000000000000024 .L0 
C:\Users\stapi\AppData\Local\Temp\ccuG8hVZ.s:203    .text.uart_dma_single_mode_config:0000000000000026 .L0 
C:\Users\stapi\AppData\Local\Temp\ccuG8hVZ.s:204    .text.uart_dma_single_mode_config:0000000000000026 .L0 
C:\Users\stapi\AppData\Local\Temp\ccuG8hVZ.s:206    .text.uart_dma_single_mode_config:0000000000000028 .L0 
C:\Users\stapi\AppData\Local\Temp\ccuG8hVZ.s:207    .text.uart_dma_single_mode_config:0000000000000028 .L0 
C:\Users\stapi\AppData\Local\Temp\ccuG8hVZ.s:208    .text.uart_dma_single_mode_config:0000000000000028 .L0 
C:\Users\stapi\AppData\Local\Temp\ccuG8hVZ.s:209    .text.uart_dma_single_mode_config:0000000000000028 .L0 
C:\Users\stapi\AppData\Local\Temp\ccuG8hVZ.s:212    .text.uart_dma_single_mode_config:0000000000000030 .L0 
C:\Users\stapi\AppData\Local\Temp\ccuG8hVZ.s:213    .text.uart_dma_single_mode_config:0000000000000030 .L0 
C:\Users\stapi\AppData\Local\Temp\ccuG8hVZ.s:215    .text.uart_dma_single_mode_config:0000000000000034 .L0 
C:\Users\stapi\AppData\Local\Temp\ccuG8hVZ.s:217    .text.uart_dma_single_mode_config:0000000000000036 .L0 
C:\Users\stapi\AppData\Local\Temp\ccuG8hVZ.s:220    .text.uart_dma_single_mode_config:000000000000003e .L0 
C:\Users\stapi\AppData\Local\Temp\ccuG8hVZ.s:223    .text.uart_dma_single_mode_config:0000000000000040 .L0 
C:\Users\stapi\AppData\Local\Temp\ccuG8hVZ.s:226    .text.uart_dma_single_mode_config:0000000000000048 .L0 
C:\Users\stapi\AppData\Local\Temp\ccuG8hVZ.s:228    .text.uart_dma_single_mode_config:000000000000004a .L0 
C:\Users\stapi\AppData\Local\Temp\ccuG8hVZ.s:235    .text.uart_dma_single_mode_config:000000000000005c .L0 
C:\Users\stapi\AppData\Local\Temp\ccuG8hVZ.s:239    .text.uart_dma_single_mode_config:000000000000005e .L0 
C:\Users\stapi\AppData\Local\Temp\ccuG8hVZ.s:243    .text.uart_dma_single_mode_config:0000000000000068 .L0 
C:\Users\stapi\AppData\Local\Temp\ccuG8hVZ.s:248    .text.uart_dma_single_mode_config:0000000000000074 .L0 
C:\Users\stapi\AppData\Local\Temp\ccuG8hVZ.s:252    .text.uart_dma_single_mode_config:000000000000007e .L0 
C:\Users\stapi\AppData\Local\Temp\ccuG8hVZ.s:257    .text.uart_dma_single_mode_config:000000000000008a .L0 
C:\Users\stapi\AppData\Local\Temp\ccuG8hVZ.s:262    .text.uart_dma_single_mode_config:0000000000000096 .L0 
C:\Users\stapi\AppData\Local\Temp\ccuG8hVZ.s:268    .text.uart_dma_single_mode_config:00000000000000a2 .L0 
C:\Users\stapi\AppData\Local\Temp\ccuG8hVZ.s:269    .text.uart_dma_single_mode_config:00000000000000a4 .L0 
C:\Users\stapi\AppData\Local\Temp\ccuG8hVZ.s:270    .text.uart_dma_single_mode_config:00000000000000a4 .L0 
C:\Users\stapi\AppData\Local\Temp\ccuG8hVZ.s:272    .text.uart_dma_single_mode_config:00000000000000ac .L0 
C:\Users\stapi\AppData\Local\Temp\ccuG8hVZ.s:273    .text.uart_dma_single_mode_config:00000000000000ac .L0 
C:\Users\stapi\AppData\Local\Temp\ccuG8hVZ.s:274    .text.uart_dma_single_mode_config:00000000000000ac .L0 
C:\Users\stapi\AppData\Local\Temp\ccuG8hVZ.s:275    .text.uart_dma_single_mode_config:00000000000000ac .L0 
C:\Users\stapi\AppData\Local\Temp\ccuG8hVZ.s:278    .text.uart_dma_single_mode_config:00000000000000ac .L0 
C:\Users\stapi\AppData\Local\Temp\ccuG8hVZ.s:280    .text.uart_dma_single_mode_config:00000000000000ac .L0 
C:\Users\stapi\AppData\Local\Temp\ccuG8hVZ.s:281    .text.uart_dma_single_mode_config:00000000000000ac .L0 
C:\Users\stapi\AppData\Local\Temp\ccuG8hVZ.s:283    .text.uart_dma_single_mode_config:00000000000000ae .L0 
C:\Users\stapi\AppData\Local\Temp\ccuG8hVZ.s:284    .text.uart_dma_single_mode_config:00000000000000ae .L0 
C:\Users\stapi\AppData\Local\Temp\ccuG8hVZ.s:286    .text.uart_dma_single_mode_config:00000000000000b2 .L0 
C:\Users\stapi\AppData\Local\Temp\ccuG8hVZ.s:288    .text.uart_dma_single_mode_config:00000000000000b4 .L0 
C:\Users\stapi\AppData\Local\Temp\ccuG8hVZ.s:291    .text.uart_dma_single_mode_config:00000000000000bc .L0 
C:\Users\stapi\AppData\Local\Temp\ccuG8hVZ.s:294    .text.uart_dma_single_mode_config:00000000000000be .L0 
C:\Users\stapi\AppData\Local\Temp\ccuG8hVZ.s:297    .text.uart_dma_single_mode_config:00000000000000c6 .L0 
C:\Users\stapi\AppData\Local\Temp\ccuG8hVZ.s:299    .text.uart_dma_single_mode_config:00000000000000ca .L0 
C:\Users\stapi\AppData\Local\Temp\ccuG8hVZ.s:306    .text.uart_config:0000000000000000 uart_config
C:\Users\stapi\AppData\Local\Temp\ccuG8hVZ.s:309    .text.uart_config:0000000000000000 .L0 
C:\Users\stapi\AppData\Local\Temp\ccuG8hVZ.s:311    .text.uart_config:0000000000000000 .L0 
C:\Users\stapi\AppData\Local\Temp\ccuG8hVZ.s:312    .text.uart_config:0000000000000008 .L0 
C:\Users\stapi\AppData\Local\Temp\ccuG8hVZ.s:313    .text.uart_config:0000000000000008 .L0 
C:\Users\stapi\AppData\Local\Temp\ccuG8hVZ.s:314    .text.uart_config:0000000000000008 .L0 
C:\Users\stapi\AppData\Local\Temp\ccuG8hVZ.s:315    .text.uart_config:0000000000000008 .L0 
C:\Users\stapi\AppData\Local\Temp\ccuG8hVZ.s:316    .text.uart_config:0000000000000008 .L0 
C:\Users\stapi\AppData\Local\Temp\ccuG8hVZ.s:317    .text.uart_config:0000000000000008 .L0 
C:\Users\stapi\AppData\Local\Temp\ccuG8hVZ.s:318    .text.uart_config:0000000000000008 .L0 
C:\Users\stapi\AppData\Local\Temp\ccuG8hVZ.s:319    .text.uart_config:0000000000000008 .L0 
C:\Users\stapi\AppData\Local\Temp\ccuG8hVZ.s:321    .text.uart_config:0000000000000008 .L0 
C:\Users\stapi\AppData\Local\Temp\ccuG8hVZ.s:323    .text.uart_config:000000000000000a .L0 
C:\Users\stapi\AppData\Local\Temp\ccuG8hVZ.s:325    .text.uart_config:000000000000000c .L0 
C:\Users\stapi\AppData\Local\Temp\ccuG8hVZ.s:328    .text.uart_config:0000000000000010 .L0 
C:\Users\stapi\AppData\Local\Temp\ccuG8hVZ.s:333    .text.uart_config:0000000000000018 .L0 
C:\Users\stapi\AppData\Local\Temp\ccuG8hVZ.s:336    .text.uart_config:0000000000000020 .L0 
C:\Users\stapi\AppData\Local\Temp\ccuG8hVZ.s:340    .text.uart_config:000000000000002c .L0 
C:\Users\stapi\AppData\Local\Temp\ccuG8hVZ.s:341    .text.uart_config:000000000000002c .L0 
C:\Users\stapi\AppData\Local\Temp\ccuG8hVZ.s:345    .text.uart_config:0000000000000038 .L0 
C:\Users\stapi\AppData\Local\Temp\ccuG8hVZ.s:349    .text.uart_config:0000000000000044 .L0 
C:\Users\stapi\AppData\Local\Temp\ccuG8hVZ.s:355    .text.uart_config:0000000000000054 .L0 
C:\Users\stapi\AppData\Local\Temp\ccuG8hVZ.s:361    .text.uart_config:0000000000000064 .L0 
C:\Users\stapi\AppData\Local\Temp\ccuG8hVZ.s:368    .text.uart_config:0000000000000076 .L0 
C:\Users\stapi\AppData\Local\Temp\ccuG8hVZ.s:375    .text.uart_config:0000000000000088 .L0 
C:\Users\stapi\AppData\Local\Temp\ccuG8hVZ.s:382    .text.uart_config:000000000000009a .L0 
C:\Users\stapi\AppData\Local\Temp\ccuG8hVZ.s:389    .text.uart_config:00000000000000ac .L0 
C:\Users\stapi\AppData\Local\Temp\ccuG8hVZ.s:390    .text.uart_config:00000000000000ac .L0 
C:\Users\stapi\AppData\Local\Temp\ccuG8hVZ.s:392    .text.uart_config:00000000000000ae .L0 
C:\Users\stapi\AppData\Local\Temp\ccuG8hVZ.s:398    .text.uart_config:00000000000000be .L0 
C:\Users\stapi\AppData\Local\Temp\ccuG8hVZ.s:404    .text.uart_config:00000000000000ce .L0 
C:\Users\stapi\AppData\Local\Temp\ccuG8hVZ.s:411    .text.uart_config:00000000000000e0 .L0 
C:\Users\stapi\AppData\Local\Temp\ccuG8hVZ.s:418    .text.uart_config:00000000000000f2 .L0 
C:\Users\stapi\AppData\Local\Temp\ccuG8hVZ.s:425    .text.uart_config:0000000000000104 .L0 
C:\Users\stapi\AppData\Local\Temp\ccuG8hVZ.s:428    .text.uart_config:0000000000000106 .L0 
C:\Users\stapi\AppData\Local\Temp\ccuG8hVZ.s:433    .text.uart_config:000000000000010e .L0 
C:\Users\stapi\AppData\Local\Temp\ccuG8hVZ.s:437    .text.uart_config:0000000000000116 .L0 
C:\Users\stapi\AppData\Local\Temp\ccuG8hVZ.s:438    .text.uart_config:0000000000000116 .L0 
C:\Users\stapi\AppData\Local\Temp\ccuG8hVZ.s:441    .text.uart_config:000000000000011e .L0 
C:\Users\stapi\AppData\Local\Temp\ccuG8hVZ.s:448    .text.uart_config:000000000000012e .L0 
C:\Users\stapi\AppData\Local\Temp\ccuG8hVZ.s:452    .text.uart_config:0000000000000138 .L0 
C:\Users\stapi\AppData\Local\Temp\ccuG8hVZ.s:457    .text.uart_config:0000000000000144 .L0 
C:\Users\stapi\AppData\Local\Temp\ccuG8hVZ.s:462    .text.uart_config:0000000000000150 .L0 
C:\Users\stapi\AppData\Local\Temp\ccuG8hVZ.s:467    .text.uart_config:000000000000015c .L0 
C:\Users\stapi\AppData\Local\Temp\ccuG8hVZ.s:472    .text.uart_config:0000000000000168 .L0 
C:\Users\stapi\AppData\Local\Temp\ccuG8hVZ.s:476    .text.uart_config:0000000000000172 .L0 
C:\Users\stapi\AppData\Local\Temp\ccuG8hVZ.s:477    .text.uart_config:0000000000000172 .L0 
C:\Users\stapi\AppData\Local\Temp\ccuG8hVZ.s:479    .text.uart_config:0000000000000176 .L0 
C:\Users\stapi\AppData\Local\Temp\ccuG8hVZ.s:484    .text.uart_config:0000000000000184 .L0 
C:\Users\stapi\AppData\Local\Temp\ccuG8hVZ.s:487    .text.uart_config:0000000000000188 .L0 
C:\Users\stapi\AppData\Local\Temp\ccuG8hVZ.s:491    .text.uart_config:0000000000000192 .L0 
C:\Users\stapi\AppData\Local\Temp\ccuG8hVZ.s:492    .text.uart_config:0000000000000192 .L0 
C:\Users\stapi\AppData\Local\Temp\ccuG8hVZ.s:494    .text.uart_config:0000000000000196 .L0 
C:\Users\stapi\AppData\Local\Temp\ccuG8hVZ.s:499    .text.uart_config:00000000000001a2 .L0 
C:\Users\stapi\AppData\Local\Temp\ccuG8hVZ.s:504    .text.uart_config:00000000000001b0 .L0 
C:\Users\stapi\AppData\Local\Temp\ccuG8hVZ.s:509    .text.uart_config:00000000000001bc .L0 
C:\Users\stapi\AppData\Local\Temp\ccuG8hVZ.s:515    .text.uart_config:00000000000001ca .L0 
C:\Users\stapi\AppData\Local\Temp\ccuG8hVZ.s:516    .text.uart_config:00000000000001ca .L0 
C:\Users\stapi\AppData\Local\Temp\ccuG8hVZ.s:518    .text.uart_config:00000000000001ce .L0 
C:\Users\stapi\AppData\Local\Temp\ccuG8hVZ.s:523    .text.uart_config:00000000000001dc .L0 
C:\Users\stapi\AppData\Local\Temp\ccuG8hVZ.s:528    .text.uart_config:00000000000001ea .L0 
C:\Users\stapi\AppData\Local\Temp\ccuG8hVZ.s:534    .text.uart_config:00000000000001f8 .L0 
C:\Users\stapi\AppData\Local\Temp\ccuG8hVZ.s:538    .text.uart_config:0000000000000202 .L0 
C:\Users\stapi\AppData\Local\Temp\ccuG8hVZ.s:539    .text.uart_config:000000000000020a .L0 
C:\Users\stapi\AppData\Local\Temp\ccuG8hVZ.s:540    .text.uart_config:000000000000020a .L0 
C:\Users\stapi\AppData\Local\Temp\ccuG8hVZ.s:541    .text.uart_config:000000000000020a .L0 
C:\Users\stapi\AppData\Local\Temp\ccuG8hVZ.s:542    .text.uart_config:000000000000020a .L0 
C:\Users\stapi\AppData\Local\Temp\ccuG8hVZ.s:543    .text.uart_config:000000000000020a .L0 
C:\Users\stapi\AppData\Local\Temp\ccuG8hVZ.s:544    .text.uart_config:000000000000020a .L0 
C:\Users\stapi\AppData\Local\Temp\ccuG8hVZ.s:545    .text.uart_config:000000000000020a .L0 
C:\Users\stapi\AppData\Local\Temp\ccuG8hVZ.s:546    .text.uart_config:000000000000020a .L0 
C:\Users\stapi\AppData\Local\Temp\ccuG8hVZ.s:547    .text.uart_config:000000000000020a .L0 
C:\Users\stapi\AppData\Local\Temp\ccuG8hVZ.s:549    .text.uart_config:000000000000020a .L0 
C:\Users\stapi\AppData\Local\Temp\ccuG8hVZ.s:551    .text.uart_config:000000000000020a .L0 
C:\Users\stapi\AppData\Local\Temp\ccuG8hVZ.s:552    .text.uart_config:000000000000020a .L0 
C:\Users\stapi\AppData\Local\Temp\ccuG8hVZ.s:556    .text.uart_config:0000000000000216 .L0 
C:\Users\stapi\AppData\Local\Temp\ccuG8hVZ.s:560    .text.uart_config:0000000000000222 .L0 
C:\Users\stapi\AppData\Local\Temp\ccuG8hVZ.s:567    .text.uart_config:0000000000000236 .L0 
C:\Users\stapi\AppData\Local\Temp\ccuG8hVZ.s:573    .text.uart_config:0000000000000248 .L0 
C:\Users\stapi\AppData\Local\Temp\ccuG8hVZ.s:580    .text.uart_config:000000000000025a .L0 
C:\Users\stapi\AppData\Local\Temp\ccuG8hVZ.s:587    .text.uart_config:000000000000026c .L0 
C:\Users\stapi\AppData\Local\Temp\ccuG8hVZ.s:594    .text.uart_config:0000000000000280 .L0 
C:\Users\stapi\AppData\Local\Temp\ccuG8hVZ.s:601    .text.uart_config:0000000000000294 .L0 
C:\Users\stapi\AppData\Local\Temp\ccuG8hVZ.s:602    .text.uart_config:0000000000000294 .L0 
C:\Users\stapi\AppData\Local\Temp\ccuG8hVZ.s:604    .text.uart_config:0000000000000298 .L0 
C:\Users\stapi\AppData\Local\Temp\ccuG8hVZ.s:610    .text.uart_config:00000000000002a8 .L0 
C:\Users\stapi\AppData\Local\Temp\ccuG8hVZ.s:616    .text.uart_config:00000000000002b8 .L0 
C:\Users\stapi\AppData\Local\Temp\ccuG8hVZ.s:623    .text.uart_config:00000000000002ca .L0 
C:\Users\stapi\AppData\Local\Temp\ccuG8hVZ.s:630    .text.uart_config:00000000000002dc .L0 
C:\Users\stapi\AppData\Local\Temp\ccuG8hVZ.s:637    .text.uart_config:00000000000002ee .L0 
C:\Users\stapi\AppData\Local\Temp\ccuG8hVZ.s:641    .text.uart_config:00000000000002f2 .L0 
C:\Users\stapi\AppData\Local\Temp\ccuG8hVZ.s:642    .text.uart_config:00000000000002f2 .L0 
C:\Users\stapi\AppData\Local\Temp\ccuG8hVZ.s:645    .text.uart_config:00000000000002fa .L0 
C:\Users\stapi\AppData\Local\Temp\ccuG8hVZ.s:649    .text.uart_config:0000000000000306 .L0 
C:\Users\stapi\AppData\Local\Temp\ccuG8hVZ.s:655    .text.uart_config:0000000000000318 .L0 
C:\Users\stapi\AppData\Local\Temp\ccuG8hVZ.s:661    .text.uart_config:000000000000032a .L0 
C:\Users\stapi\AppData\Local\Temp\ccuG8hVZ.s:668    .text.uart_config:000000000000033e .L0 
C:\Users\stapi\AppData\Local\Temp\ccuG8hVZ.s:675    .text.uart_config:0000000000000352 .L0 
C:\Users\stapi\AppData\Local\Temp\ccuG8hVZ.s:682    .text.uart_config:0000000000000366 .L0 
C:\Users\stapi\AppData\Local\Temp\ccuG8hVZ.s:689    .text.uart_config:000000000000037a .L0 
C:\Users\stapi\AppData\Local\Temp\ccuG8hVZ.s:690    .text.uart_config:000000000000037a .L0 
C:\Users\stapi\AppData\Local\Temp\ccuG8hVZ.s:692    .text.uart_config:000000000000037e .L0 
C:\Users\stapi\AppData\Local\Temp\ccuG8hVZ.s:699    .text.uart_config:0000000000000392 .L0 
C:\Users\stapi\AppData\Local\Temp\ccuG8hVZ.s:705    .text.uart_config:00000000000003a2 .L0 
C:\Users\stapi\AppData\Local\Temp\ccuG8hVZ.s:712    .text.uart_config:00000000000003b4 .L0 
C:\Users\stapi\AppData\Local\Temp\ccuG8hVZ.s:719    .text.uart_config:00000000000003c6 .L0 
C:\Users\stapi\AppData\Local\Temp\ccuG8hVZ.s:726    .text.uart_config:00000000000003d8 .L0 
C:\Users\stapi\AppData\Local\Temp\ccuG8hVZ.s:733    .text.uart_config:00000000000003e4 .L0 
C:\Users\stapi\AppData\Local\Temp\ccuG8hVZ.s:738    .text.uart_config:00000000000003f0 .L0 
C:\Users\stapi\AppData\Local\Temp\ccuG8hVZ.s:740    .text.uart_config:00000000000003f4 .L0 
C:\Users\stapi\AppData\Local\Temp\ccuG8hVZ.s:747    .text.uart_put_data:0000000000000000 uart_put_data
C:\Users\stapi\AppData\Local\Temp\ccuG8hVZ.s:750    .text.uart_put_data:0000000000000000 .L0 
C:\Users\stapi\AppData\Local\Temp\ccuG8hVZ.s:752    .text.uart_put_data:0000000000000000 .L0 
C:\Users\stapi\AppData\Local\Temp\ccuG8hVZ.s:753    .text.uart_put_data:0000000000000000 .L0 
C:\Users\stapi\AppData\Local\Temp\ccuG8hVZ.s:754    .text.uart_put_data:0000000000000000 .L0 
C:\Users\stapi\AppData\Local\Temp\ccuG8hVZ.s:756    .text.uart_put_data:0000000000000002 .L0 
C:\Users\stapi\AppData\Local\Temp\ccuG8hVZ.s:757    .text.uart_put_data:000000000000000a .L0 
C:\Users\stapi\AppData\Local\Temp\ccuG8hVZ.s:758    .text.uart_put_data:000000000000000a .L0 
C:\Users\stapi\AppData\Local\Temp\ccuG8hVZ.s:759    .text.uart_put_data:000000000000000a .L0 
C:\Users\stapi\AppData\Local\Temp\ccuG8hVZ.s:760    .text.uart_put_data:000000000000000a .L0 
C:\Users\stapi\AppData\Local\Temp\ccuG8hVZ.s:761    .text.uart_put_data:000000000000000a .L0 
C:\Users\stapi\AppData\Local\Temp\ccuG8hVZ.s:765    .text.uart_put_data:000000000000000e .L0 
C:\Users\stapi\AppData\Local\Temp\ccuG8hVZ.s:769    .text.uart_put_data:0000000000000012 .L0 
C:\Users\stapi\AppData\Local\Temp\ccuG8hVZ.s:770    .text.uart_put_data:0000000000000012 .L0 
C:\Users\stapi\AppData\Local\Temp\ccuG8hVZ.s:771    .text.uart_put_data:0000000000000012 .L0 
C:\Users\stapi\AppData\Local\Temp\ccuG8hVZ.s:776    .text.uart_put_data:0000000000000020 .L0 
C:\Users\stapi\AppData\Local\Temp\ccuG8hVZ.s:778    .text.uart_put_data:0000000000000022 .L0 
C:\Users\stapi\AppData\Local\Temp\ccuG8hVZ.s:780    .text.uart_put_data:0000000000000026 .L0 
C:\Users\stapi\AppData\Local\Temp\ccuG8hVZ.s:783    .text.uart_put_data:0000000000000028 .L0 
C:\Users\stapi\AppData\Local\Temp\ccuG8hVZ.s:787    .text.uart_put_data:0000000000000032 .L0 
C:\Users\stapi\AppData\Local\Temp\ccuG8hVZ.s:788    .text.uart_put_data:0000000000000032 .L0 
C:\Users\stapi\AppData\Local\Temp\ccuG8hVZ.s:789    .text.uart_put_data:0000000000000032 .L0 
C:\Users\stapi\AppData\Local\Temp\ccuG8hVZ.s:791    .text.uart_put_data:0000000000000036 .L0 
C:\Users\stapi\AppData\Local\Temp\ccuG8hVZ.s:792    .text.uart_put_data:000000000000003e .L0 
C:\Users\stapi\AppData\Local\Temp\ccuG8hVZ.s:793    .text.uart_put_data:000000000000003e .L0 
C:\Users\stapi\AppData\Local\Temp\ccuG8hVZ.s:794    .text.uart_put_data:000000000000003e .L0 
C:\Users\stapi\AppData\Local\Temp\ccuG8hVZ.s:795    .text.uart_put_data:000000000000003e .L0 
C:\Users\stapi\AppData\Local\Temp\ccuG8hVZ.s:796    .text.uart_put_data:000000000000003e .L0 
C:\Users\stapi\AppData\Local\Temp\ccuG8hVZ.s:800    .text.uart_put_data:0000000000000040 .L0 
C:\Users\stapi\AppData\Local\Temp\ccuG8hVZ.s:807    .text.uart_putc_noint:0000000000000000 uart_putc_noint
C:\Users\stapi\AppData\Local\Temp\ccuG8hVZ.s:810    .text.uart_putc_noint:0000000000000000 .L0 
C:\Users\stapi\AppData\Local\Temp\ccuG8hVZ.s:812    .text.uart_putc_noint:0000000000000000 .L0 
C:\Users\stapi\AppData\Local\Temp\ccuG8hVZ.s:813    .text.uart_putc_noint:0000000000000008 .L0 
C:\Users\stapi\AppData\Local\Temp\ccuG8hVZ.s:814    .text.uart_putc_noint:0000000000000008 .L0 
C:\Users\stapi\AppData\Local\Temp\ccuG8hVZ.s:815    .text.uart_putc_noint:0000000000000008 .L0 
C:\Users\stapi\AppData\Local\Temp\ccuG8hVZ.s:816    .text.uart_putc_noint:0000000000000008 .L0 
C:\Users\stapi\AppData\Local\Temp\ccuG8hVZ.s:822    .text.uart_putc_noint:000000000000000c .L0 
C:\Users\stapi\AppData\Local\Temp\ccuG8hVZ.s:823    .text.uart_putc_noint:000000000000000c .L0 
C:\Users\stapi\AppData\Local\Temp\ccuG8hVZ.s:824    .text.uart_putc_noint:000000000000000c .L0 
C:\Users\stapi\AppData\Local\Temp\ccuG8hVZ.s:825    .text.uart_putc_noint:000000000000000c .L0 
C:\Users\stapi\AppData\Local\Temp\ccuG8hVZ.s:830    .text.uart_putc_noint:000000000000001a .L0 
C:\Users\stapi\AppData\Local\Temp\ccuG8hVZ.s:832    .text.uart_putc_noint:000000000000001c .L0 
C:\Users\stapi\AppData\Local\Temp\ccuG8hVZ.s:837    .text.uart_putc_noint:0000000000000028 .L0 
C:\Users\stapi\AppData\Local\Temp\ccuG8hVZ.s:838    .text.uart_putc_noint:0000000000000030 .L0 
C:\Users\stapi\AppData\Local\Temp\ccuG8hVZ.s:839    .text.uart_putc_noint:0000000000000030 .L0 
C:\Users\stapi\AppData\Local\Temp\ccuG8hVZ.s:840    .text.uart_putc_noint:0000000000000030 .L0 
C:\Users\stapi\AppData\Local\Temp\ccuG8hVZ.s:841    .text.uart_putc_noint:0000000000000030 .L0 
C:\Users\stapi\AppData\Local\Temp\ccuG8hVZ.s:842    .text.uart_putc_noint:0000000000000030 .L0 
C:\Users\stapi\AppData\Local\Temp\ccuG8hVZ.s:849    .text.uart_getc:0000000000000000 uart_getc
C:\Users\stapi\AppData\Local\Temp\ccuG8hVZ.s:852    .text.uart_getc:0000000000000000 .L0 
C:\Users\stapi\AppData\Local\Temp\ccuG8hVZ.s:854    .text.uart_getc:0000000000000000 .L0 
C:\Users\stapi\AppData\Local\Temp\ccuG8hVZ.s:855    .text.uart_getc:0000000000000008 .L0 
C:\Users\stapi\AppData\Local\Temp\ccuG8hVZ.s:856    .text.uart_getc:0000000000000008 .L0 
C:\Users\stapi\AppData\Local\Temp\ccuG8hVZ.s:857    .text.uart_getc:0000000000000008 .L0 
C:\Users\stapi\AppData\Local\Temp\ccuG8hVZ.s:858    .text.uart_getc:0000000000000008 .L0 
C:\Users\stapi\AppData\Local\Temp\ccuG8hVZ.s:861    .text.uart_getc:0000000000000008 .L0 
C:\Users\stapi\AppData\Local\Temp\ccuG8hVZ.s:862    .text.uart_getc:0000000000000008 .L0 
C:\Users\stapi\AppData\Local\Temp\ccuG8hVZ.s:863    .text.uart_getc:0000000000000008 .L0 
C:\Users\stapi\AppData\Local\Temp\ccuG8hVZ.s:866    .text.uart_getc:000000000000000e .L0 
C:\Users\stapi\AppData\Local\Temp\ccuG8hVZ.s:868    .text.uart_getc:0000000000000010 .L0 
C:\Users\stapi\AppData\Local\Temp\ccuG8hVZ.s:871    .text.uart_getc:0000000000000018 .L0 
C:\Users\stapi\AppData\Local\Temp\ccuG8hVZ.s:874    .text.uart_getc:000000000000001a .L0 
C:\Users\stapi\AppData\Local\Temp\ccuG8hVZ.s:878    .text.uart_getc:000000000000001c .L0 
C:\Users\stapi\AppData\Local\Temp\ccuG8hVZ.s:879    .text.uart_getc:000000000000001c .L0 
C:\Users\stapi\AppData\Local\Temp\ccuG8hVZ.s:881    .text.uart_getc:0000000000000028 .L0 
C:\Users\stapi\AppData\Local\Temp\ccuG8hVZ.s:882    .text.uart_getc:0000000000000028 .L0 
C:\Users\stapi\AppData\Local\Temp\ccuG8hVZ.s:883    .text.uart_getc:0000000000000028 .L0 
C:\Users\stapi\AppData\Local\Temp\ccuG8hVZ.s:884    .text.uart_getc:0000000000000028 .L0 
C:\Users\stapi\AppData\Local\Temp\ccuG8hVZ.s:885    .text.uart_getc:0000000000000028 .L0 
C:\Users\stapi\AppData\Local\Temp\ccuG8hVZ.s:888    .text.uart_getc:0000000000000028 .L0 
C:\Users\stapi\AppData\Local\Temp\ccuG8hVZ.s:890    .text.uart_getc:0000000000000028 .L0 
C:\Users\stapi\AppData\Local\Temp\ccuG8hVZ.s:895    .text.uart_getc:0000000000000036 .L0 
C:\Users\stapi\AppData\Local\Temp\ccuG8hVZ.s:897    .text.uart_getc:0000000000000038 .L0 
C:\Users\stapi\AppData\Local\Temp\ccuG8hVZ.s:898    .text.uart_getc:0000000000000038 .L0 
C:\Users\stapi\AppData\Local\Temp\ccuG8hVZ.s:902    .text.uart_getc:0000000000000042 .L0 
C:\Users\stapi\AppData\Local\Temp\ccuG8hVZ.s:905    .text.uart_getc:0000000000000046 .L0 
C:\Users\stapi\AppData\Local\Temp\ccuG8hVZ.s:906    .text.uart_getc:0000000000000046 .L0 
C:\Users\stapi\AppData\Local\Temp\ccuG8hVZ.s:911    .text.uart_getc:0000000000000054 .L0 
C:\Users\stapi\AppData\Local\Temp\ccuG8hVZ.s:913    .text.uart_getc:0000000000000056 .L0 
C:\Users\stapi\AppData\Local\Temp\ccuG8hVZ.s:918    .text.uart_getc:0000000000000066 .L0 
C:\Users\stapi\AppData\Local\Temp\ccuG8hVZ.s:925    .text.uart_irq_hdl:0000000000000000 uart_irq_hdl
C:\Users\stapi\AppData\Local\Temp\ccuG8hVZ.s:928    .text.uart_irq_hdl:0000000000000000 .L0 
C:\Users\stapi\AppData\Local\Temp\ccuG8hVZ.s:930    .text.uart_irq_hdl:0000000000000000 .L0 
C:\Users\stapi\AppData\Local\Temp\ccuG8hVZ.s:931    .text.uart_irq_hdl:0000000000000008 .L0 
C:\Users\stapi\AppData\Local\Temp\ccuG8hVZ.s:932    .text.uart_irq_hdl:0000000000000008 .L0 
C:\Users\stapi\AppData\Local\Temp\ccuG8hVZ.s:933    .text.uart_irq_hdl:0000000000000008 .L0 
C:\Users\stapi\AppData\Local\Temp\ccuG8hVZ.s:935    .text.uart_irq_hdl:0000000000000008 .L0 
C:\Users\stapi\AppData\Local\Temp\ccuG8hVZ.s:937    .text.uart_irq_hdl:0000000000000008 .L0 
C:\Users\stapi\AppData\Local\Temp\ccuG8hVZ.s:938    .text.uart_irq_hdl:0000000000000008 .L0 
C:\Users\stapi\AppData\Local\Temp\ccuG8hVZ.s:939    .text.uart_irq_hdl:0000000000000008 .L0 
C:\Users\stapi\AppData\Local\Temp\ccuG8hVZ.s:940    .text.uart_irq_hdl:0000000000000008 .L0 
C:\Users\stapi\AppData\Local\Temp\ccuG8hVZ.s:943    .text.uart_irq_hdl:0000000000000010 .L0 
C:\Users\stapi\AppData\Local\Temp\ccuG8hVZ.s:945    .text.uart_irq_hdl:0000000000000012 .L0 
C:\Users\stapi\AppData\Local\Temp\ccuG8hVZ.s:948    .text.uart_irq_hdl:0000000000000018 .L0 
C:\Users\stapi\AppData\Local\Temp\ccuG8hVZ.s:951    .text.uart_irq_hdl:000000000000001c .L0 
C:\Users\stapi\AppData\Local\Temp\ccuG8hVZ.s:952    .text.uart_irq_hdl:000000000000001c .L0 
C:\Users\stapi\AppData\Local\Temp\ccuG8hVZ.s:953    .text.uart_irq_hdl:000000000000001c .L0 
C:\Users\stapi\AppData\Local\Temp\ccuG8hVZ.s:954    .text.uart_irq_hdl:000000000000001c .L0 
C:\Users\stapi\AppData\Local\Temp\ccuG8hVZ.s:958    .text.uart_irq_hdl:0000000000000022 .L0 
C:\Users\stapi\AppData\Local\Temp\ccuG8hVZ.s:959    .text.uart_irq_hdl:0000000000000022 .L0 
C:\Users\stapi\AppData\Local\Temp\ccuG8hVZ.s:960    .text.uart_irq_hdl:0000000000000022 .L0 
C:\Users\stapi\AppData\Local\Temp\ccuG8hVZ.s:961    .text.uart_irq_hdl:0000000000000022 .L0 
C:\Users\stapi\AppData\Local\Temp\ccuG8hVZ.s:965    .text.uart_irq_hdl:0000000000000028 .L0 
C:\Users\stapi\AppData\Local\Temp\ccuG8hVZ.s:966    .text.uart_irq_hdl:0000000000000028 .L0 
C:\Users\stapi\AppData\Local\Temp\ccuG8hVZ.s:967    .text.uart_irq_hdl:0000000000000028 .L0 
C:\Users\stapi\AppData\Local\Temp\ccuG8hVZ.s:972    .text.uart_irq_hdl:0000000000000032 .L0 
C:\Users\stapi\AppData\Local\Temp\ccuG8hVZ.s:973    .text.uart_irq_hdl:0000000000000032 .L0 
C:\Users\stapi\AppData\Local\Temp\ccuG8hVZ.s:974    .text.uart_irq_hdl:0000000000000032 .L0 
C:\Users\stapi\AppData\Local\Temp\ccuG8hVZ.s:979    .text.uart_irq_hdl:0000000000000040 .L0 
C:\Users\stapi\AppData\Local\Temp\ccuG8hVZ.s:981    .text.uart_irq_hdl:0000000000000042 .L0 
C:\Users\stapi\AppData\Local\Temp\ccuG8hVZ.s:987    .text.uart_irq_hdl:0000000000000050 .L0 
C:\Users\stapi\AppData\Local\Temp\ccuG8hVZ.s:988    .text.uart_irq_hdl:0000000000000050 .L0 
C:\Users\stapi\AppData\Local\Temp\ccuG8hVZ.s:993    .text.uart_irq_hdl:000000000000005e .L0 
C:\Users\stapi\AppData\Local\Temp\ccuG8hVZ.s:995    .text.uart_irq_hdl:0000000000000060 .L0 
C:\Users\stapi\AppData\Local\Temp\ccuG8hVZ.s:999    .text.uart_irq_hdl:000000000000006a .L0 
C:\Users\stapi\AppData\Local\Temp\ccuG8hVZ.s:1000   .text.uart_irq_hdl:000000000000006a .L0 
C:\Users\stapi\AppData\Local\Temp\ccuG8hVZ.s:1004   .text.uart_irq_hdl:000000000000006c .L0 
C:\Users\stapi\AppData\Local\Temp\ccuG8hVZ.s:1008   .text.uart_irq_hdl:000000000000006e .L0 
C:\Users\stapi\AppData\Local\Temp\ccuG8hVZ.s:1009   .text.uart_irq_hdl:000000000000006e .L0 
C:\Users\stapi\AppData\Local\Temp\ccuG8hVZ.s:1011   .text.uart_irq_hdl:0000000000000072 .L0 
C:\Users\stapi\AppData\Local\Temp\ccuG8hVZ.s:1017   .text.uart_irq_hdl:0000000000000078 .L0 
C:\Users\stapi\AppData\Local\Temp\ccuG8hVZ.s:1018   .text.uart_irq_hdl:0000000000000078 .L0 
C:\Users\stapi\AppData\Local\Temp\ccuG8hVZ.s:1019   .text.uart_irq_hdl:0000000000000080 .L0 
C:\Users\stapi\AppData\Local\Temp\ccuG8hVZ.s:1020   .text.uart_irq_hdl:0000000000000080 .L0 
C:\Users\stapi\AppData\Local\Temp\ccuG8hVZ.s:1021   .text.uart_irq_hdl:0000000000000080 .L0 
C:\Users\stapi\AppData\Local\Temp\ccuG8hVZ.s:1022   .text.uart_irq_hdl:0000000000000080 .L0 
C:\Users\stapi\AppData\Local\Temp\ccuG8hVZ.s:1025   .text.uart_irq_hdl:0000000000000080 .L0 
C:\Users\stapi\AppData\Local\Temp\ccuG8hVZ.s:1027   .text.uart_irq_hdl:0000000000000080 .L0 
C:\Users\stapi\AppData\Local\Temp\ccuG8hVZ.s:1036   .text.uart_irq_hdl:0000000000000088 .L0 
C:\Users\stapi\AppData\Local\Temp\ccuG8hVZ.s:1041   .text.uart_irq_hdl:0000000000000096 .L0 
C:\Users\stapi\AppData\Local\Temp\ccuG8hVZ.s:1048   .text.uart_tx_idle_wait:0000000000000000 uart_tx_idle_wait
C:\Users\stapi\AppData\Local\Temp\ccuG8hVZ.s:1051   .text.uart_tx_idle_wait:0000000000000000 .L0 
C:\Users\stapi\AppData\Local\Temp\ccuG8hVZ.s:1053   .text.uart_tx_idle_wait:0000000000000000 .L0 
C:\Users\stapi\AppData\Local\Temp\ccuG8hVZ.s:1054   .text.uart_tx_idle_wait:0000000000000008 .L0 
C:\Users\stapi\AppData\Local\Temp\ccuG8hVZ.s:1055   .text.uart_tx_idle_wait:0000000000000008 .L0 
C:\Users\stapi\AppData\Local\Temp\ccuG8hVZ.s:1056   .text.uart_tx_idle_wait:0000000000000008 .L0 
C:\Users\stapi\AppData\Local\Temp\ccuG8hVZ.s:1061   .text.uart_tx_idle_wait:000000000000000a .L0 
C:\Users\stapi\AppData\Local\Temp\ccuG8hVZ.s:1062   .text.uart_tx_idle_wait:000000000000000a .L0 
C:\Users\stapi\AppData\Local\Temp\ccuG8hVZ.s:1063   .text.uart_tx_idle_wait:000000000000000a .L0 
C:\Users\stapi\AppData\Local\Temp\ccuG8hVZ.s:1064   .text.uart_tx_idle_wait:000000000000000a .L0 
C:\Users\stapi\AppData\Local\Temp\ccuG8hVZ.s:1069   .text.uart_tx_idle_wait:0000000000000018 .L0 
C:\Users\stapi\AppData\Local\Temp\ccuG8hVZ.s:1071   .text.uart_tx_idle_wait:000000000000001a .L0 
C:\Users\stapi\AppData\Local\Temp\ccuG8hVZ.s:1072   .text.uart_tx_idle_wait:0000000000000022 .L0 
C:\Users\stapi\AppData\Local\Temp\ccuG8hVZ.s:1073   .text.uart_tx_idle_wait:0000000000000022 .L0 
C:\Users\stapi\AppData\Local\Temp\ccuG8hVZ.s:1074   .text.uart_tx_idle_wait:0000000000000022 .L0 
C:\Users\stapi\AppData\Local\Temp\ccuG8hVZ.s:1075   .text.uart_tx_idle_wait:0000000000000022 .L0 
C:\Users\stapi\AppData\Local\Temp\ccuG8hVZ.s:1082   .text.uart_getc_with_timeout:0000000000000000 uart_getc_with_timeout
C:\Users\stapi\AppData\Local\Temp\ccuG8hVZ.s:1085   .text.uart_getc_with_timeout:0000000000000000 .L0 
C:\Users\stapi\AppData\Local\Temp\ccuG8hVZ.s:1087   .text.uart_getc_with_timeout:0000000000000000 .L0 
C:\Users\stapi\AppData\Local\Temp\ccuG8hVZ.s:1088   .text.uart_getc_with_timeout:0000000000000008 .L0 
C:\Users\stapi\AppData\Local\Temp\ccuG8hVZ.s:1089   .text.uart_getc_with_timeout:0000000000000008 .L0 
C:\Users\stapi\AppData\Local\Temp\ccuG8hVZ.s:1090   .text.uart_getc_with_timeout:0000000000000008 .L0 
C:\Users\stapi\AppData\Local\Temp\ccuG8hVZ.s:1091   .text.uart_getc_with_timeout:0000000000000008 .L0 
C:\Users\stapi\AppData\Local\Temp\ccuG8hVZ.s:1092   .text.uart_getc_with_timeout:0000000000000008 .L0 
C:\Users\stapi\AppData\Local\Temp\ccuG8hVZ.s:1099   .text.uart_getc_with_timeout:000000000000000e .L0 
C:\Users\stapi\AppData\Local\Temp\ccuG8hVZ.s:1100   .text.uart_getc_with_timeout:000000000000000e .L0 
C:\Users\stapi\AppData\Local\Temp\ccuG8hVZ.s:1102   .text.uart_getc_with_timeout:0000000000000012 .L0 
C:\Users\stapi\AppData\Local\Temp\ccuG8hVZ.s:1106   .text.uart_getc_with_timeout:0000000000000016 .L0 
C:\Users\stapi\AppData\Local\Temp\ccuG8hVZ.s:1107   .text.uart_getc_with_timeout:0000000000000016 .L0 
C:\Users\stapi\AppData\Local\Temp\ccuG8hVZ.s:1112   .text.uart_getc_with_timeout:0000000000000024 .L0 
C:\Users\stapi\AppData\Local\Temp\ccuG8hVZ.s:1116   .text.uart_getc_with_timeout:0000000000000028 .L0 
C:\Users\stapi\AppData\Local\Temp\ccuG8hVZ.s:1117   .text.uart_getc_with_timeout:0000000000000028 .L0 
C:\Users\stapi\AppData\Local\Temp\ccuG8hVZ.s:1121   .text.uart_getc_with_timeout:0000000000000032 .L0 
C:\Users\stapi\AppData\Local\Temp\ccuG8hVZ.s:1123   .text.uart_getc_with_timeout:0000000000000036 .L0 
C:\Users\stapi\AppData\Local\Temp\ccuG8hVZ.s:1124   .text.uart_getc_with_timeout:0000000000000036 .L0 
C:\Users\stapi\AppData\Local\Temp\ccuG8hVZ.s:1128   .text.uart_getc_with_timeout:0000000000000038 .L0 
C:\Users\stapi\AppData\Local\Temp\ccuG8hVZ.s:1129   .text.uart_getc_with_timeout:0000000000000040 .L0 
C:\Users\stapi\AppData\Local\Temp\ccuG8hVZ.s:1130   .text.uart_getc_with_timeout:0000000000000040 .L0 
C:\Users\stapi\AppData\Local\Temp\ccuG8hVZ.s:1131   .text.uart_getc_with_timeout:0000000000000040 .L0 
C:\Users\stapi\AppData\Local\Temp\ccuG8hVZ.s:1132   .text.uart_getc_with_timeout:0000000000000040 .L0 
C:\Users\stapi\AppData\Local\Temp\ccuG8hVZ.s:1133   .text.uart_getc_with_timeout:0000000000000040 .L0 
C:\Users\stapi\AppData\Local\Temp\ccuG8hVZ.s:1134   .text.uart_getc_with_timeout:0000000000000040 .L0 
C:\Users\stapi\AppData\Local\Temp\ccuG8hVZ.s:1141   .text.uart_rx_flush:0000000000000000 uart_rx_flush
C:\Users\stapi\AppData\Local\Temp\ccuG8hVZ.s:1144   .text.uart_rx_flush:0000000000000000 .L0 
C:\Users\stapi\AppData\Local\Temp\ccuG8hVZ.s:1146   .text.uart_rx_flush:0000000000000000 .L0 
C:\Users\stapi\AppData\Local\Temp\ccuG8hVZ.s:1147   .text.uart_rx_flush:0000000000000008 .L0 
C:\Users\stapi\AppData\Local\Temp\ccuG8hVZ.s:1148   .text.uart_rx_flush:0000000000000008 .L0 
C:\Users\stapi\AppData\Local\Temp\ccuG8hVZ.s:1149   .text.uart_rx_flush:0000000000000008 .L0 
C:\Users\stapi\AppData\Local\Temp\ccuG8hVZ.s:1154   .text.uart_rx_flush:000000000000000a .L0 
C:\Users\stapi\AppData\Local\Temp\ccuG8hVZ.s:1155   .text.uart_rx_flush:000000000000000a .L0 
C:\Users\stapi\AppData\Local\Temp\ccuG8hVZ.s:1156   .text.uart_rx_flush:000000000000000a .L0 
C:\Users\stapi\AppData\Local\Temp\ccuG8hVZ.s:1161   .text.uart_rx_flush:0000000000000018 .L0 
C:\Users\stapi\AppData\Local\Temp\ccuG8hVZ.s:1163   .text.uart_rx_flush:000000000000001a .L0 
C:\Users\stapi\AppData\Local\Temp\ccuG8hVZ.s:1164   .text.uart_rx_flush:0000000000000022 .L0 
C:\Users\stapi\AppData\Local\Temp\ccuG8hVZ.s:1165   .text.uart_rx_flush:0000000000000022 .L0 
C:\Users\stapi\AppData\Local\Temp\ccuG8hVZ.s:1166   .text.uart_rx_flush:0000000000000022 .L0 
C:\Users\stapi\AppData\Local\Temp\ccuG8hVZ.s:1167   .text.uart_rx_flush:0000000000000022 .L0 
C:\Users\stapi\AppData\Local\Temp\ccuG8hVZ.s:1169   .text.uart_rx_flush:0000000000000022 .L0 
C:\Users\stapi\AppData\Local\Temp\ccuG8hVZ.s:1171   .text.uart_rx_flush:0000000000000022 .L0 
C:\Users\stapi\AppData\Local\Temp\ccuG8hVZ.s:1175   .text.uart_rx_flush:000000000000002e .L0 
C:\Users\stapi\AppData\Local\Temp\ccuG8hVZ.s:1180   .bss.uart_mgr:0000000000000000 .LANCHOR0
C:\Users\stapi\AppData\Local\Temp\ccuG8hVZ.s:1183   .bss.uart_mgr:0000000000000000 uart_mgr
C:\Users\stapi\AppData\Local\Temp\ccuG8hVZ.s:28     .text.uart_driver_init:0000000000000014 .L0 
C:\Users\stapi\AppData\Local\Temp\ccuG8hVZ.s:89     .text.uart_irq_callback_register:0000000000000030 .L0 
C:\Users\stapi\AppData\Local\Temp\ccuG8hVZ.s:159    .text.uart_irq_callback_unregister:000000000000003a .L0 
C:\Users\stapi\AppData\Local\Temp\ccuG8hVZ.s:302    .text.uart_dma_single_mode_config:00000000000000ca .L0 
C:\Users\stapi\AppData\Local\Temp\ccuG8hVZ.s:743    .text.uart_config:00000000000003f4 .L0 
C:\Users\stapi\AppData\Local\Temp\ccuG8hVZ.s:803    .text.uart_put_data:0000000000000040 .L0 
C:\Users\stapi\AppData\Local\Temp\ccuG8hVZ.s:845    .text.uart_putc_noint:0000000000000030 .L0 
C:\Users\stapi\AppData\Local\Temp\ccuG8hVZ.s:921    .text.uart_getc:0000000000000066 .L0 
C:\Users\stapi\AppData\Local\Temp\ccuG8hVZ.s:1044   .text.uart_irq_hdl:0000000000000096 .L0 
C:\Users\stapi\AppData\Local\Temp\ccuG8hVZ.s:1078   .text.uart_tx_idle_wait:0000000000000022 .L0 
C:\Users\stapi\AppData\Local\Temp\ccuG8hVZ.s:1137   .text.uart_getc_with_timeout:0000000000000040 .L0 
C:\Users\stapi\AppData\Local\Temp\ccuG8hVZ.s:1178   .text.uart_rx_flush:000000000000002e .L0 
                     .debug_frame:0000000000000000 .L0 
C:\Users\stapi\AppData\Local\Temp\ccuG8hVZ.s:80     .text.uart_irq_callback_register:000000000000002c .L7
C:\Users\stapi\AppData\Local\Temp\ccuG8hVZ.s:72     .text.uart_irq_callback_register:0000000000000024 .L5
C:\Users\stapi\AppData\Local\Temp\ccuG8hVZ.s:48     .text.uart_irq_callback_register:0000000000000010 .L6
C:\Users\stapi\AppData\Local\Temp\ccuG8hVZ.s:148    .text.uart_irq_callback_unregister:0000000000000032 .L12
C:\Users\stapi\AppData\Local\Temp\ccuG8hVZ.s:153    .text.uart_irq_callback_unregister:0000000000000036 .L13
C:\Users\stapi\AppData\Local\Temp\ccuG8hVZ.s:144    .text.uart_irq_callback_unregister:0000000000000030 .L11
C:\Users\stapi\AppData\Local\Temp\ccuG8hVZ.s:132    .text.uart_irq_callback_unregister:0000000000000022 .L10
C:\Users\stapi\AppData\Local\Temp\ccuG8hVZ.s:277    .text.uart_dma_single_mode_config:00000000000000ac .L16
C:\Users\stapi\AppData\Local\Temp\ccuG8hVZ.s:236    .text.uart_dma_single_mode_config:000000000000005e .L17
C:\Users\stapi\AppData\Local\Temp\ccuG8hVZ.s:266    .text.uart_dma_single_mode_config:00000000000000a2 .L15
C:\Users\stapi\AppData\Local\Temp\ccuG8hVZ.s:232    .text.uart_dma_single_mode_config:0000000000000058 .L27
C:\Users\stapi\AppData\Local\Temp\ccuG8hVZ.s:548    .text.uart_config:000000000000020a .L29
C:\Users\stapi\AppData\Local\Temp\ccuG8hVZ.s:435    .text.uart_config:0000000000000116 .L31
C:\Users\stapi\AppData\Local\Temp\ccuG8hVZ.s:731    .text.uart_config:00000000000003e4 .L34
C:\Users\stapi\AppData\Local\Temp\ccuG8hVZ.s:513    .text.uart_config:00000000000001ca .L36
C:\Users\stapi\AppData\Local\Temp\ccuG8hVZ.s:532    .text.uart_config:00000000000001f8 .L37
C:\Users\stapi\AppData\Local\Temp\ccuG8hVZ.s:639    .text.uart_config:00000000000002f2 .L32
C:\Users\stapi\AppData\Local\Temp\ccuG8hVZ.s:426    .text.uart_config:0000000000000106 .L53
C:\Users\stapi\AppData\Local\Temp\ccuG8hVZ.s:431    .text.uart_config:000000000000010e .L51
C:\Users\stapi\AppData\Local\Temp\ccuG8hVZ.s:485    .text.uart_config:0000000000000188 .L52
C:\Users\stapi\AppData\Local\Temp\ccuG8hVZ.s:798    .text.uart_put_data:000000000000003e .L65
C:\Users\stapi\AppData\Local\Temp\ccuG8hVZ.s:767    .text.uart_put_data:0000000000000012 .L56
C:\Users\stapi\AppData\Local\Temp\ccuG8hVZ.s:821    .text.uart_putc_noint:000000000000000c .L69
C:\Users\stapi\AppData\Local\Temp\ccuG8hVZ.s:887    .text.uart_getc:0000000000000028 .L74
C:\Users\stapi\AppData\Local\Temp\ccuG8hVZ.s:872    .text.uart_getc:000000000000001a .L76
C:\Users\stapi\AppData\Local\Temp\ccuG8hVZ.s:876    .text.uart_getc:000000000000001c .L75
C:\Users\stapi\AppData\Local\Temp\ccuG8hVZ.s:1002   .text.uart_irq_hdl:000000000000006c .L90
C:\Users\stapi\AppData\Local\Temp\ccuG8hVZ.s:1024   .text.uart_irq_hdl:0000000000000080 .L91
C:\Users\stapi\AppData\Local\Temp\ccuG8hVZ.s:1030   .text.uart_irq_hdl:0000000000000084 .L92
C:\Users\stapi\AppData\Local\Temp\ccuG8hVZ.s:985    .text.uart_irq_hdl:0000000000000050 .L88
C:\Users\stapi\AppData\Local\Temp\ccuG8hVZ.s:1034   .text.uart_irq_hdl:0000000000000088 .L89
C:\Users\stapi\AppData\Local\Temp\ccuG8hVZ.s:970    .text.uart_irq_hdl:0000000000000032 .L86
C:\Users\stapi\AppData\Local\Temp\ccuG8hVZ.s:1006   .text.uart_irq_hdl:000000000000006e .L85
C:\Users\stapi\AppData\Local\Temp\ccuG8hVZ.s:1016   .text.uart_irq_hdl:0000000000000078 .L84
C:\Users\stapi\AppData\Local\Temp\ccuG8hVZ.s:1060   .text.uart_tx_idle_wait:000000000000000a .L98
C:\Users\stapi\AppData\Local\Temp\ccuG8hVZ.s:1104   .text.uart_getc_with_timeout:0000000000000016 .L105
C:\Users\stapi\AppData\Local\Temp\ccuG8hVZ.s:1126   .text.uart_getc_with_timeout:0000000000000038 .L102
C:\Users\stapi\AppData\Local\Temp\ccuG8hVZ.s:1098   .text.uart_getc_with_timeout:000000000000000e .L103
C:\Users\stapi\AppData\Local\Temp\ccuG8hVZ.s:1168   .text.uart_rx_flush:0000000000000022 .L111
C:\Users\stapi\AppData\Local\Temp\ccuG8hVZ.s:1153   .text.uart_rx_flush:000000000000000a .L110
C:\Users\stapi\AppData\Local\Temp\ccuG8hVZ.s:5013   .debug_abbrev:0000000000000000 .Ldebug_abbrev0
C:\Users\stapi\AppData\Local\Temp\ccuG8hVZ.s:6662   .debug_str:0000000000000632 .LASF300
C:\Users\stapi\AppData\Local\Temp\ccuG8hVZ.s:6510   .debug_str:000000000000020f .LASF301
C:\Users\stapi\AppData\Local\Temp\ccuG8hVZ.s:6768   .debug_str:00000000000009c8 .LASF302
C:\Users\stapi\AppData\Local\Temp\ccuG8hVZ.s:6386   .debug_ranges:0000000000000000 .Ldebug_ranges0
C:\Users\stapi\AppData\Local\Temp\ccuG8hVZ.s:6414   .debug_line:0000000000000000 .Ldebug_line0
C:\Users\stapi\AppData\Local\Temp\ccuG8hVZ.s:6552   .debug_str:000000000000037b .LASF0
C:\Users\stapi\AppData\Local\Temp\ccuG8hVZ.s:6504   .debug_str:00000000000001f1 .LASF5
C:\Users\stapi\AppData\Local\Temp\ccuG8hVZ.s:6562   .debug_str:00000000000003c8 .LASF1
C:\Users\stapi\AppData\Local\Temp\ccuG8hVZ.s:6928   .debug_str:0000000000000e1b .LASF2
C:\Users\stapi\AppData\Local\Temp\ccuG8hVZ.s:6992   .debug_str:0000000000000f7a .LASF3
C:\Users\stapi\AppData\Local\Temp\ccuG8hVZ.s:6514   .debug_str:0000000000000290 .LASF4
C:\Users\stapi\AppData\Local\Temp\ccuG8hVZ.s:6706   .debug_str:0000000000000821 .LASF6
C:\Users\stapi\AppData\Local\Temp\ccuG8hVZ.s:6652   .debug_str:00000000000005f7 .LASF7
C:\Users\stapi\AppData\Local\Temp\ccuG8hVZ.s:6710   .debug_str:0000000000000837 .LASF8
C:\Users\stapi\AppData\Local\Temp\ccuG8hVZ.s:6856   .debug_str:0000000000000c41 .LASF9
C:\Users\stapi\AppData\Local\Temp\ccuG8hVZ.s:6764   .debug_str:00000000000009b3 .LASF10
C:\Users\stapi\AppData\Local\Temp\ccuG8hVZ.s:6578   .debug_str:0000000000000444 .LASF11
C:\Users\stapi\AppData\Local\Temp\ccuG8hVZ.s:6910   .debug_str:0000000000000dad .LASF12
C:\Users\stapi\AppData\Local\Temp\ccuG8hVZ.s:6988   .debug_str:0000000000000f6e .LASF13
C:\Users\stapi\AppData\Local\Temp\ccuG8hVZ.s:6830   .debug_str:0000000000000bad .LASF14
C:\Users\stapi\AppData\Local\Temp\ccuG8hVZ.s:6418   .debug_str:000000000000000f .LASF15
C:\Users\stapi\AppData\Local\Temp\ccuG8hVZ.s:6500   .debug_str:00000000000001dd .LASF16
C:\Users\stapi\AppData\Local\Temp\ccuG8hVZ.s:6832   .debug_str:0000000000000bb5 .LASF17
C:\Users\stapi\AppData\Local\Temp\ccuG8hVZ.s:6808   .debug_str:0000000000000b16 .LASF18
C:\Users\stapi\AppData\Local\Temp\ccuG8hVZ.s:6424   .debug_str:0000000000000031 .LASF19
C:\Users\stapi\AppData\Local\Temp\ccuG8hVZ.s:6900   .debug_str:0000000000000d68 .LASF20
C:\Users\stapi\AppData\Local\Temp\ccuG8hVZ.s:6972   .debug_str:0000000000000f16 .LASF21
C:\Users\stapi\AppData\Local\Temp\ccuG8hVZ.s:6682   .debug_str:000000000000078c .LASF22
C:\Users\stapi\AppData\Local\Temp\ccuG8hVZ.s:6892   .debug_str:0000000000000d3c .LASF23
C:\Users\stapi\AppData\Local\Temp\ccuG8hVZ.s:6694   .debug_str:00000000000007e6 .LASF28
C:\Users\stapi\AppData\Local\Temp\ccuG8hVZ.s:6916   .debug_str:0000000000000dda .LASF24
C:\Users\stapi\AppData\Local\Temp\ccuG8hVZ.s:6696   .debug_str:00000000000007ee .LASF25
C:\Users\stapi\AppData\Local\Temp\ccuG8hVZ.s:6752   .debug_str:0000000000000958 .LASF26
C:\Users\stapi\AppData\Local\Temp\ccuG8hVZ.s:6630   .debug_str:0000000000000594 .LASF27
C:\Users\stapi\AppData\Local\Temp\ccuG8hVZ.s:6454   .debug_str:00000000000000ca .LASF29
C:\Users\stapi\AppData\Local\Temp\ccuG8hVZ.s:6460   .debug_str:00000000000000e6 .LASF30
C:\Users\stapi\AppData\Local\Temp\ccuG8hVZ.s:7018   .debug_str:000000000000106b .LASF31
C:\Users\stapi\AppData\Local\Temp\ccuG8hVZ.s:6994   .debug_str:0000000000000f8d .LASF32
C:\Users\stapi\AppData\Local\Temp\ccuG8hVZ.s:6780   .debug_str:0000000000000a81 .LASF33
C:\Users\stapi\AppData\Local\Temp\ccuG8hVZ.s:6536   .debug_str:0000000000000318 .LASF34
C:\Users\stapi\AppData\Local\Temp\ccuG8hVZ.s:6948   .debug_str:0000000000000ea1 .LASF35
C:\Users\stapi\AppData\Local\Temp\ccuG8hVZ.s:6814   .debug_str:0000000000000b3e .LASF36
C:\Users\stapi\AppData\Local\Temp\ccuG8hVZ.s:6820   .debug_str:0000000000000b70 .LASF37
C:\Users\stapi\AppData\Local\Temp\ccuG8hVZ.s:7010   .debug_str:0000000000001027 .LASF38
C:\Users\stapi\AppData\Local\Temp\ccuG8hVZ.s:6508   .debug_str:0000000000000201 .LASF39
C:\Users\stapi\AppData\Local\Temp\ccuG8hVZ.s:7008   .debug_str:000000000000101f .LASF40
C:\Users\stapi\AppData\Local\Temp\ccuG8hVZ.s:6864   .debug_str:0000000000000c82 .LASF41
C:\Users\stapi\AppData\Local\Temp\ccuG8hVZ.s:6940   .debug_str:0000000000000e6c .LASF42
C:\Users\stapi\AppData\Local\Temp\ccuG8hVZ.s:6966   .debug_str:0000000000000eff .LASF43
C:\Users\stapi\AppData\Local\Temp\ccuG8hVZ.s:6802   .debug_str:0000000000000afc .LASF44
C:\Users\stapi\AppData\Local\Temp\ccuG8hVZ.s:6960   .debug_str:0000000000000eeb .LASF45
C:\Users\stapi\AppData\Local\Temp\ccuG8hVZ.s:6584   .debug_str:000000000000045f .LASF46
C:\Users\stapi\AppData\Local\Temp\ccuG8hVZ.s:6964   .debug_str:0000000000000ef8 .LASF47
C:\Users\stapi\AppData\Local\Temp\ccuG8hVZ.s:6880   .debug_str:0000000000000cef .LASF48
C:\Users\stapi\AppData\Local\Temp\ccuG8hVZ.s:6524   .debug_str:00000000000002ca .LASF49
C:\Users\stapi\AppData\Local\Temp\ccuG8hVZ.s:6654   .debug_str:0000000000000609 .LASF50
C:\Users\stapi\AppData\Local\Temp\ccuG8hVZ.s:6800   .debug_str:0000000000000af5 .LASF51
C:\Users\stapi\AppData\Local\Temp\ccuG8hVZ.s:6506   .debug_str:00000000000001fb .LASF52
C:\Users\stapi\AppData\Local\Temp\ccuG8hVZ.s:6956   .debug_str:0000000000000edd .LASF53
C:\Users\stapi\AppData\Local\Temp\ccuG8hVZ.s:6628   .debug_str:000000000000058c .LASF54
C:\Users\stapi\AppData\Local\Temp\ccuG8hVZ.s:6436   .debug_str:0000000000000077 .LASF55
C:\Users\stapi\AppData\Local\Temp\ccuG8hVZ.s:6442   .debug_str:0000000000000092 .LASF56
C:\Users\stapi\AppData\Local\Temp\ccuG8hVZ.s:6826   .debug_str:0000000000000b88 .LASF57
C:\Users\stapi\AppData\Local\Temp\ccuG8hVZ.s:6586   .debug_str:0000000000000464 .LASF58
C:\Users\stapi\AppData\Local\Temp\ccuG8hVZ.s:6786   .debug_str:0000000000000aaa .LASF59
C:\Users\stapi\AppData\Local\Temp\ccuG8hVZ.s:6458   .debug_str:00000000000000e0 .LASF60
C:\Users\stapi\AppData\Local\Temp\ccuG8hVZ.s:6876   .debug_str:0000000000000cdd .LASF61
C:\Users\stapi\AppData\Local\Temp\ccuG8hVZ.s:6636   .debug_str:00000000000005b0 .LASF62
C:\Users\stapi\AppData\Local\Temp\ccuG8hVZ.s:6918   .debug_str:0000000000000de0 .LASF63
C:\Users\stapi\AppData\Local\Temp\ccuG8hVZ.s:6480   .debug_str:0000000000000156 .LASF64
C:\Users\stapi\AppData\Local\Temp\ccuG8hVZ.s:6792   .debug_str:0000000000000ac6 .LASF65
C:\Users\stapi\AppData\Local\Temp\ccuG8hVZ.s:6658   .debug_str:000000000000061c .LASF66
C:\Users\stapi\AppData\Local\Temp\ccuG8hVZ.s:6570   .debug_str:000000000000040b .LASF67
C:\Users\stapi\AppData\Local\Temp\ccuG8hVZ.s:6684   .debug_str:000000000000079e .LASF68
C:\Users\stapi\AppData\Local\Temp\ccuG8hVZ.s:6602   .debug_str:00000000000004bc .LASF69
C:\Users\stapi\AppData\Local\Temp\ccuG8hVZ.s:6874   .debug_str:0000000000000cd5 .LASF70
C:\Users\stapi\AppData\Local\Temp\ccuG8hVZ.s:6788   .debug_str:0000000000000ab0 .LASF71
C:\Users\stapi\AppData\Local\Temp\ccuG8hVZ.s:6958   .debug_str:0000000000000ee6 .LASF72
C:\Users\stapi\AppData\Local\Temp\ccuG8hVZ.s:6708   .debug_str:000000000000082c .LASF73
C:\Users\stapi\AppData\Local\Temp\ccuG8hVZ.s:6564   .debug_str:00000000000003d6 .LASF74
C:\Users\stapi\AppData\Local\Temp\ccuG8hVZ.s:6970   .debug_str:0000000000000f0e .LASF75
C:\Users\stapi\AppData\Local\Temp\ccuG8hVZ.s:6656   .debug_str:0000000000000611 .LASF76
C:\Users\stapi\AppData\Local\Temp\ccuG8hVZ.s:6700   .debug_str:0000000000000802 .LASF77
C:\Users\stapi\AppData\Local\Temp\ccuG8hVZ.s:6982   .debug_str:0000000000000f46 .LASF78
C:\Users\stapi\AppData\Local\Temp\ccuG8hVZ.s:6520   .debug_str:00000000000002b2 .LASF79
C:\Users\stapi\AppData\Local\Temp\ccuG8hVZ.s:6650   .debug_str:00000000000005f2 .LASF80
C:\Users\stapi\AppData\Local\Temp\ccuG8hVZ.s:6744   .debug_str:0000000000000932 .LASF81
C:\Users\stapi\AppData\Local\Temp\ccuG8hVZ.s:6446   .debug_str:00000000000000a6 .LASF82
C:\Users\stapi\AppData\Local\Temp\ccuG8hVZ.s:6638   .debug_str:00000000000005b8 .LASF83
C:\Users\stapi\AppData\Local\Temp\ccuG8hVZ.s:6782   .debug_str:0000000000000a8b .LASF84
C:\Users\stapi\AppData\Local\Temp\ccuG8hVZ.s:6702   .debug_str:000000000000080c .LASF85
C:\Users\stapi\AppData\Local\Temp\ccuG8hVZ.s:6632   .debug_str:0000000000000599 .LASF86
C:\Users\stapi\AppData\Local\Temp\ccuG8hVZ.s:6730   .debug_str:00000000000008be .LASF87
C:\Users\stapi\AppData\Local\Temp\ccuG8hVZ.s:6428   .debug_str:000000000000004e .LASF88
C:\Users\stapi\AppData\Local\Temp\ccuG8hVZ.s:6894   .debug_str:0000000000000d45 .LASF89
C:\Users\stapi\AppData\Local\Temp\ccuG8hVZ.s:6750   .debug_str:0000000000000952 .LASF90
C:\Users\stapi\AppData\Local\Temp\ccuG8hVZ.s:6720   .debug_str:0000000000000871 .LASF91
C:\Users\stapi\AppData\Local\Temp\ccuG8hVZ.s:6746   .debug_str:000000000000093c .LASF92
C:\Users\stapi\AppData\Local\Temp\ccuG8hVZ.s:6870   .debug_str:0000000000000cb3 .LASF93
C:\Users\stapi\AppData\Local\Temp\ccuG8hVZ.s:6824   .debug_str:0000000000000b82 .LASF94
C:\Users\stapi\AppData\Local\Temp\ccuG8hVZ.s:6486   .debug_str:0000000000000179 .LASF95
C:\Users\stapi\AppData\Local\Temp\ccuG8hVZ.s:6990   .debug_str:0000000000000f75 .LASF96
C:\Users\stapi\AppData\Local\Temp\ccuG8hVZ.s:6548   .debug_str:000000000000035f .LASF97
C:\Users\stapi\AppData\Local\Temp\ccuG8hVZ.s:6884   .debug_str:0000000000000d08 .LASF98
C:\Users\stapi\AppData\Local\Temp\ccuG8hVZ.s:6444   .debug_str:0000000000000099 .LASF99
C:\Users\stapi\AppData\Local\Temp\ccuG8hVZ.s:6528   .debug_str:00000000000002e1 .LASF100
C:\Users\stapi\AppData\Local\Temp\ccuG8hVZ.s:6740   .debug_str:0000000000000904 .LASF101
C:\Users\stapi\AppData\Local\Temp\ccuG8hVZ.s:6796   .debug_str:0000000000000ad7 .LASF102
C:\Users\stapi\AppData\Local\Temp\ccuG8hVZ.s:6906   .debug_str:0000000000000d99 .LASF103
C:\Users\stapi\AppData\Local\Temp\ccuG8hVZ.s:6926   .debug_str:0000000000000e0e .LASF104
C:\Users\stapi\AppData\Local\Temp\ccuG8hVZ.s:6834   .debug_str:0000000000000bbc .LASF105
C:\Users\stapi\AppData\Local\Temp\ccuG8hVZ.s:6790   .debug_str:0000000000000ab8 .LASF106
C:\Users\stapi\AppData\Local\Temp\ccuG8hVZ.s:6468   .debug_str:0000000000000110 .LASF107
C:\Users\stapi\AppData\Local\Temp\ccuG8hVZ.s:6688   .debug_str:00000000000007bc .LASF108
C:\Users\stapi\AppData\Local\Temp\ccuG8hVZ.s:7020   .debug_str:0000000000001074 .LASF109
C:\Users\stapi\AppData\Local\Temp\ccuG8hVZ.s:6512   .debug_str:0000000000000282 .LASF110
C:\Users\stapi\AppData\Local\Temp\ccuG8hVZ.s:6890   .debug_str:0000000000000d2d .LASF111
C:\Users\stapi\AppData\Local\Temp\ccuG8hVZ.s:7000   .debug_str:0000000000000fbc .LASF112
C:\Users\stapi\AppData\Local\Temp\ccuG8hVZ.s:6778   .debug_str:0000000000000a72 .LASF113
C:\Users\stapi\AppData\Local\Temp\ccuG8hVZ.s:6456   .debug_str:00000000000000cf .LASF114
C:\Users\stapi\AppData\Local\Temp\ccuG8hVZ.s:6772   .debug_str:0000000000000a54 .LASF115
C:\Users\stapi\AppData\Local\Temp\ccuG8hVZ.s:6968   .debug_str:0000000000000f07 .LASF116
C:\Users\stapi\AppData\Local\Temp\ccuG8hVZ.s:6736   .debug_str:00000000000008e8 .LASF117
C:\Users\stapi\AppData\Local\Temp\ccuG8hVZ.s:6452   .debug_str:00000000000000c2 .LASF118
C:\Users\stapi\AppData\Local\Temp\ccuG8hVZ.s:6422   .debug_str:0000000000000026 .LASF303
C:\Users\stapi\AppData\Local\Temp\ccuG8hVZ.s:6518   .debug_str:00000000000002a6 .LASF304
C:\Users\stapi\AppData\Local\Temp\ccuG8hVZ.s:6554   .debug_str:0000000000000387 .LASF119
C:\Users\stapi\AppData\Local\Temp\ccuG8hVZ.s:6974   .debug_str:0000000000000f1e .LASF120
C:\Users\stapi\AppData\Local\Temp\ccuG8hVZ.s:6898   .debug_str:0000000000000d62 .LASF121
C:\Users\stapi\AppData\Local\Temp\ccuG8hVZ.s:6664   .debug_str:000000000000072b .LASF122
C:\Users\stapi\AppData\Local\Temp\ccuG8hVZ.s:6666   .debug_str:0000000000000733 .LASF123
C:\Users\stapi\AppData\Local\Temp\ccuG8hVZ.s:6668   .debug_str:000000000000073b .LASF124
C:\Users\stapi\AppData\Local\Temp\ccuG8hVZ.s:6670   .debug_str:0000000000000743 .LASF125
C:\Users\stapi\AppData\Local\Temp\ccuG8hVZ.s:6672   .debug_str:000000000000074b .LASF126
C:\Users\stapi\AppData\Local\Temp\ccuG8hVZ.s:6674   .debug_str:0000000000000753 .LASF127
C:\Users\stapi\AppData\Local\Temp\ccuG8hVZ.s:6676   .debug_str:000000000000075b .LASF128
C:\Users\stapi\AppData\Local\Temp\ccuG8hVZ.s:6678   .debug_str:0000000000000763 .LASF129
C:\Users\stapi\AppData\Local\Temp\ccuG8hVZ.s:6866   .debug_str:0000000000000c8e .LASF130
C:\Users\stapi\AppData\Local\Temp\ccuG8hVZ.s:6836   .debug_str:0000000000000bca .LASF131
C:\Users\stapi\AppData\Local\Temp\ccuG8hVZ.s:6838   .debug_str:0000000000000bd7 .LASF132
C:\Users\stapi\AppData\Local\Temp\ccuG8hVZ.s:6840   .debug_str:0000000000000be4 .LASF133
C:\Users\stapi\AppData\Local\Temp\ccuG8hVZ.s:6842   .debug_str:0000000000000bf1 .LASF134
C:\Users\stapi\AppData\Local\Temp\ccuG8hVZ.s:6844   .debug_str:0000000000000bfe .LASF135
C:\Users\stapi\AppData\Local\Temp\ccuG8hVZ.s:6846   .debug_str:0000000000000c0b .LASF136
C:\Users\stapi\AppData\Local\Temp\ccuG8hVZ.s:6848   .debug_str:0000000000000c18 .LASF137
C:\Users\stapi\AppData\Local\Temp\ccuG8hVZ.s:6850   .debug_str:0000000000000c25 .LASF138
C:\Users\stapi\AppData\Local\Temp\ccuG8hVZ.s:6560   .debug_str:00000000000003bc .LASF139
C:\Users\stapi\AppData\Local\Temp\ccuG8hVZ.s:6648   .debug_str:00000000000005e7 .LASF140
C:\Users\stapi\AppData\Local\Temp\ccuG8hVZ.s:6438   .debug_str:000000000000007d .LASF141
C:\Users\stapi\AppData\Local\Temp\ccuG8hVZ.s:7022   .debug_str:0000000000001081 .LASF142
C:\Users\stapi\AppData\Local\Temp\ccuG8hVZ.s:6932   .debug_str:0000000000000e2e .LASF143
C:\Users\stapi\AppData\Local\Temp\ccuG8hVZ.s:6624   .debug_str:000000000000056c .LASF144
C:\Users\stapi\AppData\Local\Temp\ccuG8hVZ.s:6482   .debug_str:000000000000015c .LASF145
C:\Users\stapi\AppData\Local\Temp\ccuG8hVZ.s:6920   .debug_str:0000000000000de6 .LASF146
C:\Users\stapi\AppData\Local\Temp\ccuG8hVZ.s:6930   .debug_str:0000000000000e25 .LASF147
C:\Users\stapi\AppData\Local\Temp\ccuG8hVZ.s:7002   .debug_str:0000000000000fcd .LASF148
C:\Users\stapi\AppData\Local\Temp\ccuG8hVZ.s:6714   .debug_str:0000000000000853 .LASF149
C:\Users\stapi\AppData\Local\Temp\ccuG8hVZ.s:6716   .debug_str:000000000000085d .LASF150
C:\Users\stapi\AppData\Local\Temp\ccuG8hVZ.s:6718   .debug_str:0000000000000867 .LASF151
C:\Users\stapi\AppData\Local\Temp\ccuG8hVZ.s:6766   .debug_str:00000000000009c0 .LASF152
C:\Users\stapi\AppData\Local\Temp\ccuG8hVZ.s:6878   .debug_str:0000000000000ce6 .LASF153
C:\Users\stapi\AppData\Local\Temp\ccuG8hVZ.s:6698   .debug_str:00000000000007f6 .LASF154
C:\Users\stapi\AppData\Local\Temp\ccuG8hVZ.s:6592   .debug_str:0000000000000486 .LASF155
C:\Users\stapi\AppData\Local\Temp\ccuG8hVZ.s:6594   .debug_str:0000000000000490 .LASF156
C:\Users\stapi\AppData\Local\Temp\ccuG8hVZ.s:6596   .debug_str:000000000000049a .LASF157
C:\Users\stapi\AppData\Local\Temp\ccuG8hVZ.s:6598   .debug_str:00000000000004a4 .LASF158
C:\Users\stapi\AppData\Local\Temp\ccuG8hVZ.s:6794   .debug_str:0000000000000acf .LASF159
C:\Users\stapi\AppData\Local\Temp\ccuG8hVZ.s:6530   .debug_str:00000000000002f0 .LASF160
C:\Users\stapi\AppData\Local\Temp\ccuG8hVZ.s:6568   .debug_str:0000000000000401 .LASF161
C:\Users\stapi\AppData\Local\Temp\ccuG8hVZ.s:6804   .debug_str:0000000000000b04 .LASF162
C:\Users\stapi\AppData\Local\Temp\ccuG8hVZ.s:6432   .debug_str:000000000000005e .LASF163
C:\Users\stapi\AppData\Local\Temp\ccuG8hVZ.s:6590   .debug_str:000000000000047d .LASF164
C:\Users\stapi\AppData\Local\Temp\ccuG8hVZ.s:6646   .debug_str:00000000000005de .LASF165
C:\Users\stapi\AppData\Local\Temp\ccuG8hVZ.s:6464   .debug_str:00000000000000fa .LASF166
C:\Users\stapi\AppData\Local\Temp\ccuG8hVZ.s:6466   .debug_str:0000000000000105 .LASF167
C:\Users\stapi\AppData\Local\Temp\ccuG8hVZ.s:6470   .debug_str:000000000000011a .LASF168
C:\Users\stapi\AppData\Local\Temp\ccuG8hVZ.s:6806   .debug_str:0000000000000b0c .LASF169
C:\Users\stapi\AppData\Local\Temp\ccuG8hVZ.s:6544   .debug_str:0000000000000345 .LASF170
C:\Users\stapi\AppData\Local\Temp\ccuG8hVZ.s:6448   .debug_str:00000000000000ae .LASF171
C:\Users\stapi\AppData\Local\Temp\ccuG8hVZ.s:6474   .debug_str:0000000000000130 .LASF172
C:\Users\stapi\AppData\Local\Temp\ccuG8hVZ.s:6978   .debug_str:0000000000000f34 .LASF173
C:\Users\stapi\AppData\Local\Temp\ccuG8hVZ.s:6980   .debug_str:0000000000000f3d .LASF174
C:\Users\stapi\AppData\Local\Temp\ccuG8hVZ.s:6440   .debug_str:000000000000008a .LASF175
C:\Users\stapi\AppData\Local\Temp\ccuG8hVZ.s:6822   .debug_str:0000000000000b7a .LASF176
C:\Users\stapi\AppData\Local\Temp\ccuG8hVZ.s:6462   .debug_str:00000000000000ef .LASF177
C:\Users\stapi\AppData\Local\Temp\ccuG8hVZ.s:6450   .debug_str:00000000000000b8 .LASF178
C:\Users\stapi\AppData\Local\Temp\ccuG8hVZ.s:6862   .debug_str:0000000000000c7a .LASF179
C:\Users\stapi\AppData\Local\Temp\ccuG8hVZ.s:6476   .debug_str:000000000000013b .LASF180
C:\Users\stapi\AppData\Local\Temp\ccuG8hVZ.s:6430   .debug_str:0000000000000053 .LASF181
C:\Users\stapi\AppData\Local\Temp\ccuG8hVZ.s:6886   .debug_str:0000000000000d15 .LASF182
C:\Users\stapi\AppData\Local\Temp\ccuG8hVZ.s:6888   .debug_str:0000000000000d21 .LASF183
C:\Users\stapi\AppData\Local\Temp\ccuG8hVZ.s:7028   .debug_str:00000000000010a9 .LASF184
C:\Users\stapi\AppData\Local\Temp\ccuG8hVZ.s:6728   .debug_str:00000000000008af .LASF185
C:\Users\stapi\AppData\Local\Temp\ccuG8hVZ.s:6984   .debug_str:0000000000000f4e .LASF186
C:\Users\stapi\AppData\Local\Temp\ccuG8hVZ.s:6522   .debug_str:00000000000002bc .LASF187
C:\Users\stapi\AppData\Local\Temp\ccuG8hVZ.s:6496   .debug_str:00000000000001c1 .LASF188
C:\Users\stapi\AppData\Local\Temp\ccuG8hVZ.s:6420   .debug_str:0000000000000018 .LASF189
C:\Users\stapi\AppData\Local\Temp\ccuG8hVZ.s:6660   .debug_str:0000000000000624 .LASF190
C:\Users\stapi\AppData\Local\Temp\ccuG8hVZ.s:6908   .debug_str:0000000000000d9e .LASF191
C:\Users\stapi\AppData\Local\Temp\ccuG8hVZ.s:6762   .debug_str:00000000000009a5 .LASF192
C:\Users\stapi\AppData\Local\Temp\ccuG8hVZ.s:7026   .debug_str:000000000000109b .LASF193
C:\Users\stapi\AppData\Local\Temp\ccuG8hVZ.s:7024   .debug_str:000000000000108c .LASF194
C:\Users\stapi\AppData\Local\Temp\ccuG8hVZ.s:6924   .debug_str:0000000000000dfe .LASF195
C:\Users\stapi\AppData\Local\Temp\ccuG8hVZ.s:6550   .debug_str:000000000000036c .LASF196
C:\Users\stapi\AppData\Local\Temp\ccuG8hVZ.s:6946   .debug_str:0000000000000e92 .LASF197
C:\Users\stapi\AppData\Local\Temp\ccuG8hVZ.s:6770   .debug_str:0000000000000a46 .LASF198
C:\Users\stapi\AppData\Local\Temp\ccuG8hVZ.s:6748   .debug_str:0000000000000942 .LASF199
C:\Users\stapi\AppData\Local\Temp\ccuG8hVZ.s:6612   .debug_str:0000000000000513 .LASF200
C:\Users\stapi\AppData\Local\Temp\ccuG8hVZ.s:6986   .debug_str:0000000000000f5d .LASF201
C:\Users\stapi\AppData\Local\Temp\ccuG8hVZ.s:6574   .debug_str:0000000000000424 .LASF202
C:\Users\stapi\AppData\Local\Temp\ccuG8hVZ.s:6556   .debug_str:000000000000038f .LASF203
C:\Users\stapi\AppData\Local\Temp\ccuG8hVZ.s:6576   .debug_str:0000000000000434 .LASF204
C:\Users\stapi\AppData\Local\Temp\ccuG8hVZ.s:6692   .debug_str:00000000000007d5 .LASF205
C:\Users\stapi\AppData\Local\Temp\ccuG8hVZ.s:6566   .debug_str:00000000000003ef .LASF206
C:\Users\stapi\AppData\Local\Temp\ccuG8hVZ.s:6758   .debug_str:0000000000000975 .LASF207
C:\Users\stapi\AppData\Local\Temp\ccuG8hVZ.s:6756   .debug_str:0000000000000966 .LASF208
C:\Users\stapi\AppData\Local\Temp\ccuG8hVZ.s:6912   .debug_str:0000000000000db4 .LASF209
C:\Users\stapi\AppData\Local\Temp\ccuG8hVZ.s:6546   .debug_str:000000000000034d .LASF210
C:\Users\stapi\AppData\Local\Temp\ccuG8hVZ.s:6812   .debug_str:0000000000000b2c .LASF211
C:\Users\stapi\AppData\Local\Temp\ccuG8hVZ.s:6868   .debug_str:0000000000000c9f .LASF212
C:\Users\stapi\AppData\Local\Temp\ccuG8hVZ.s:6618   .debug_str:0000000000000538 .LASF213
C:\Users\stapi\AppData\Local\Temp\ccuG8hVZ.s:6572   .debug_str:0000000000000412 .LASF214
C:\Users\stapi\AppData\Local\Temp\ccuG8hVZ.s:7012   .debug_str:0000000000001032 .LASF215
C:\Users\stapi\AppData\Local\Temp\ccuG8hVZ.s:6872   .debug_str:0000000000000cbb .LASF216
C:\Users\stapi\AppData\Local\Temp\ccuG8hVZ.s:6914   .debug_str:0000000000000dc6 .LASF217
C:\Users\stapi\AppData\Local\Temp\ccuG8hVZ.s:6882   .debug_str:0000000000000cf5 .LASF218
C:\Users\stapi\AppData\Local\Temp\ccuG8hVZ.s:6626   .debug_str:000000000000057a .LASF219
C:\Users\stapi\AppData\Local\Temp\ccuG8hVZ.s:6738   .debug_str:00000000000008f1 .LASF220
C:\Users\stapi\AppData\Local\Temp\ccuG8hVZ.s:6996   .debug_str:0000000000000f97 .LASF221
C:\Users\stapi\AppData\Local\Temp\ccuG8hVZ.s:7004   .debug_str:0000000000000fee .LASF222
C:\Users\stapi\AppData\Local\Temp\ccuG8hVZ.s:6818   .debug_str:0000000000000b58 .LASF223
C:\Users\stapi\AppData\Local\Temp\ccuG8hVZ.s:6478   .debug_str:0000000000000143 .LASF224
C:\Users\stapi\AppData\Local\Temp\ccuG8hVZ.s:6722   .debug_str:0000000000000878 .LASF225
C:\Users\stapi\AppData\Local\Temp\ccuG8hVZ.s:6998   .debug_str:0000000000000faf .LASF226
C:\Users\stapi\AppData\Local\Temp\ccuG8hVZ.s:6634   .debug_str:00000000000005a3 .LASF227
C:\Users\stapi\AppData\Local\Temp\ccuG8hVZ.s:6416   .debug_str:0000000000000000 .LASF228
C:\Users\stapi\AppData\Local\Temp\ccuG8hVZ.s:6502   .debug_str:00000000000001e3 .LASF229
C:\Users\stapi\AppData\Local\Temp\ccuG8hVZ.s:6498   .debug_str:00000000000001d0 .LASF230
C:\Users\stapi\AppData\Local\Temp\ccuG8hVZ.s:6580   .debug_str:0000000000000449 .LASF231
C:\Users\stapi\AppData\Local\Temp\ccuG8hVZ.s:6610   .debug_str:0000000000000504 .LASF232
C:\Users\stapi\AppData\Local\Temp\ccuG8hVZ.s:6726   .debug_str:00000000000008a1 .LASF233
C:\Users\stapi\AppData\Local\Temp\ccuG8hVZ.s:6492   .debug_str:00000000000001ab .LASF234
C:\Users\stapi\AppData\Local\Temp\ccuG8hVZ.s:6600   .debug_str:00000000000004ae .LASF235
C:\Users\stapi\AppData\Local\Temp\ccuG8hVZ.s:6810   .debug_str:0000000000000b1e .LASF236
C:\Users\stapi\AppData\Local\Temp\ccuG8hVZ.s:6950   .debug_str:0000000000000eab .LASF237
C:\Users\stapi\AppData\Local\Temp\ccuG8hVZ.s:6488   .debug_str:000000000000017f .LASF238
C:\Users\stapi\AppData\Local\Temp\ccuG8hVZ.s:6774   .debug_str:0000000000000a5d .LASF239
C:\Users\stapi\AppData\Local\Temp\ccuG8hVZ.s:6542   .debug_str:000000000000033b .LASF240
C:\Users\stapi\AppData\Local\Temp\ccuG8hVZ.s:6494   .debug_str:00000000000001b8 .LASF241
C:\Users\stapi\AppData\Local\Temp\ccuG8hVZ.s:6644   .debug_str:00000000000005cf .LASF242
C:\Users\stapi\AppData\Local\Temp\ccuG8hVZ.s:6704   .debug_str:0000000000000815 .LASF243
C:\Users\stapi\AppData\Local\Temp\ccuG8hVZ.s:6532   .debug_str:00000000000002f8 .LASF244
C:\Users\stapi\AppData\Local\Temp\ccuG8hVZ.s:6622   .debug_str:0000000000000563 .LASF251
C:\Users\stapi\AppData\Local\Temp\ccuG8hVZ.s:6944   .debug_str:0000000000000e84 .LASF247
C:\Users\stapi\AppData\Local\Temp\ccuG8hVZ.s:1142   .text.uart_rx_flush:0000000000000000 .LFB376
C:\Users\stapi\AppData\Local\Temp\ccuG8hVZ.s:1176   .text.uart_rx_flush:000000000000002e .LFE376
C:\Users\stapi\AppData\Local\Temp\ccuG8hVZ.s:6976   .debug_str:0000000000000f27 .LASF245
C:\Users\stapi\AppData\Local\Temp\ccuG8hVZ.s:5886   .debug_loc:0000000000000000 .LLST25
C:\Users\stapi\AppData\Local\Temp\ccuG8hVZ.s:1159   .text.uart_rx_flush:0000000000000018 .LVL136
C:\Users\stapi\AppData\Local\Temp\ccuG8hVZ.s:1173   .text.uart_rx_flush:000000000000002c .LVL137
C:\Users\stapi\AppData\Local\Temp\ccuG8hVZ.s:6534   .debug_str:0000000000000301 .LASF252
C:\Users\stapi\AppData\Local\Temp\ccuG8hVZ.s:1083   .text.uart_getc_with_timeout:0000000000000000 .LFB375
C:\Users\stapi\AppData\Local\Temp\ccuG8hVZ.s:1135   .text.uart_getc_with_timeout:0000000000000040 .LFE375
C:\Users\stapi\AppData\Local\Temp\ccuG8hVZ.s:5897   .debug_loc:000000000000001e .LLST22
C:\Users\stapi\AppData\Local\Temp\ccuG8hVZ.s:5908   .debug_loc:000000000000003c .LLST23
C:\Users\stapi\AppData\Local\Temp\ccuG8hVZ.s:6754   .debug_str:000000000000095e .LASF246
C:\Users\stapi\AppData\Local\Temp\ccuG8hVZ.s:5919   .debug_loc:000000000000005a .LLST24
C:\Users\stapi\AppData\Local\Temp\ccuG8hVZ.s:1110   .text.uart_getc_with_timeout:0000000000000024 .LVL130
C:\Users\stapi\AppData\Local\Temp\ccuG8hVZ.s:1119   .text.uart_getc_with_timeout:0000000000000032 .LVL132
C:\Users\stapi\AppData\Local\Temp\ccuG8hVZ.s:6588   .debug_str:000000000000046b .LASF248
C:\Users\stapi\AppData\Local\Temp\ccuG8hVZ.s:1049   .text.uart_tx_idle_wait:0000000000000000 .LFB374
C:\Users\stapi\AppData\Local\Temp\ccuG8hVZ.s:1076   .text.uart_tx_idle_wait:0000000000000022 .LFE374
C:\Users\stapi\AppData\Local\Temp\ccuG8hVZ.s:5936   .debug_loc:0000000000000085 .LLST21
C:\Users\stapi\AppData\Local\Temp\ccuG8hVZ.s:1067   .text.uart_tx_idle_wait:0000000000000018 .LVL127
C:\Users\stapi\AppData\Local\Temp\ccuG8hVZ.s:6516   .debug_str:0000000000000299 .LASF249
C:\Users\stapi\AppData\Local\Temp\ccuG8hVZ.s:926    .text.uart_irq_hdl:0000000000000000 .LFB373
C:\Users\stapi\AppData\Local\Temp\ccuG8hVZ.s:1042   .text.uart_irq_hdl:0000000000000096 .LFE373
C:\Users\stapi\AppData\Local\Temp\ccuG8hVZ.s:6936   .debug_str:0000000000000e57 .LASF250
C:\Users\stapi\AppData\Local\Temp\ccuG8hVZ.s:5947   .debug_loc:00000000000000a3 .LLST19
C:\Users\stapi\AppData\Local\Temp\ccuG8hVZ.s:5958   .debug_loc:00000000000000c1 .LLST20
C:\Users\stapi\AppData\Local\Temp\ccuG8hVZ.s:969    .text.uart_irq_hdl:0000000000000032 .LVL113
C:\Users\stapi\AppData\Local\Temp\ccuG8hVZ.s:977    .text.uart_irq_hdl:0000000000000040 .LVL114
C:\Users\stapi\AppData\Local\Temp\ccuG8hVZ.s:984    .text.uart_irq_hdl:0000000000000050 .LVL115
C:\Users\stapi\AppData\Local\Temp\ccuG8hVZ.s:991    .text.uart_irq_hdl:000000000000005e .LVL116
C:\Users\stapi\AppData\Local\Temp\ccuG8hVZ.s:997    .text.uart_irq_hdl:000000000000006a .LVL117
C:\Users\stapi\AppData\Local\Temp\ccuG8hVZ.s:1014   .text.uart_irq_hdl:0000000000000078 .LVL120
C:\Users\stapi\AppData\Local\Temp\ccuG8hVZ.s:1039   .text.uart_irq_hdl:0000000000000094 .LVL124
C:\Users\stapi\AppData\Local\Temp\ccuG8hVZ.s:6854   .debug_str:0000000000000c37 .LASF253
C:\Users\stapi\AppData\Local\Temp\ccuG8hVZ.s:850    .text.uart_getc:0000000000000000 .LFB372
C:\Users\stapi\AppData\Local\Temp\ccuG8hVZ.s:919    .text.uart_getc:0000000000000066 .LFE372
C:\Users\stapi\AppData\Local\Temp\ccuG8hVZ.s:6962   .debug_str:0000000000000ef0 .LASF254
C:\Users\stapi\AppData\Local\Temp\ccuG8hVZ.s:6001   .debug_loc:0000000000000129 .LLST17
C:\Users\stapi\AppData\Local\Temp\ccuG8hVZ.s:6640   .debug_str:00000000000005c0 .LASF255
C:\Users\stapi\AppData\Local\Temp\ccuG8hVZ.s:6012   .debug_loc:0000000000000147 .LLST18
C:\Users\stapi\AppData\Local\Temp\ccuG8hVZ.s:869    .text.uart_getc:0000000000000018 .LVL100
C:\Users\stapi\AppData\Local\Temp\ccuG8hVZ.s:893    .text.uart_getc:0000000000000036 .LVL103
C:\Users\stapi\AppData\Local\Temp\ccuG8hVZ.s:900    .text.uart_getc:0000000000000042 .LVL104
C:\Users\stapi\AppData\Local\Temp\ccuG8hVZ.s:909    .text.uart_getc:0000000000000054 .LVL106
C:\Users\stapi\AppData\Local\Temp\ccuG8hVZ.s:916    .text.uart_getc:0000000000000064 .LVL107
C:\Users\stapi\AppData\Local\Temp\ccuG8hVZ.s:6938   .debug_str:0000000000000e5c .LASF256
C:\Users\stapi\AppData\Local\Temp\ccuG8hVZ.s:808    .text.uart_putc_noint:0000000000000000 .LFB371
C:\Users\stapi\AppData\Local\Temp\ccuG8hVZ.s:843    .text.uart_putc_noint:0000000000000030 .LFE371
C:\Users\stapi\AppData\Local\Temp\ccuG8hVZ.s:6033   .debug_loc:000000000000017d .LLST15
C:\Users\stapi\AppData\Local\Temp\ccuG8hVZ.s:6044   .debug_loc:000000000000019b .LLST16
C:\Users\stapi\AppData\Local\Temp\ccuG8hVZ.s:828    .text.uart_putc_noint:000000000000001a .LVL96
C:\Users\stapi\AppData\Local\Temp\ccuG8hVZ.s:835    .text.uart_putc_noint:0000000000000028 .LVL97
C:\Users\stapi\AppData\Local\Temp\ccuG8hVZ.s:6616   .debug_str:000000000000052a .LASF257
C:\Users\stapi\AppData\Local\Temp\ccuG8hVZ.s:748    .text.uart_put_data:0000000000000000 .LFB370
C:\Users\stapi\AppData\Local\Temp\ccuG8hVZ.s:801    .text.uart_put_data:0000000000000040 .LFE370
C:\Users\stapi\AppData\Local\Temp\ccuG8hVZ.s:6058   .debug_loc:00000000000001bc .LLST12
C:\Users\stapi\AppData\Local\Temp\ccuG8hVZ.s:6073   .debug_loc:00000000000001e5 .LLST13
C:\Users\stapi\AppData\Local\Temp\ccuG8hVZ.s:6852   .debug_str:0000000000000c32 .LASF258
C:\Users\stapi\AppData\Local\Temp\ccuG8hVZ.s:6088   .debug_loc:000000000000020e .LLST14
C:\Users\stapi\AppData\Local\Temp\ccuG8hVZ.s:774    .text.uart_put_data:0000000000000020 .LVL90
C:\Users\stapi\AppData\Local\Temp\ccuG8hVZ.s:785    .text.uart_put_data:0000000000000032 .LVL92
C:\Users\stapi\AppData\Local\Temp\ccuG8hVZ.s:6904   .debug_str:0000000000000d8d .LASF259
C:\Users\stapi\AppData\Local\Temp\ccuG8hVZ.s:307    .text.uart_config:0000000000000000 .LFB369
C:\Users\stapi\AppData\Local\Temp\ccuG8hVZ.s:741    .text.uart_config:00000000000003f4 .LFE369
C:\Users\stapi\AppData\Local\Temp\ccuG8hVZ.s:6143   .debug_loc:000000000000026d .LLST7
C:\Users\stapi\AppData\Local\Temp\ccuG8hVZ.s:6954   .debug_str:0000000000000ed4 .LASF260
C:\Users\stapi\AppData\Local\Temp\ccuG8hVZ.s:6154   .debug_loc:000000000000028b .LLST8
C:\Users\stapi\AppData\Local\Temp\ccuG8hVZ.s:6734   .debug_str:00000000000008de .LASF261
C:\Users\stapi\AppData\Local\Temp\ccuG8hVZ.s:6165   .debug_loc:00000000000002a9 .LLST9
C:\Users\stapi\AppData\Local\Temp\ccuG8hVZ.s:6614   .debug_str:0000000000000523 .LASF262
C:\Users\stapi\AppData\Local\Temp\ccuG8hVZ.s:6179   .debug_loc:00000000000002ca .LLST10
C:\Users\stapi\AppData\Local\Temp\ccuG8hVZ.s:6642   .debug_str:00000000000005c8 .LASF263
C:\Users\stapi\AppData\Local\Temp\ccuG8hVZ.s:6193   .debug_loc:00000000000002eb .LLST11
C:\Users\stapi\AppData\Local\Temp\ccuG8hVZ.s:334    .text.uart_config:0000000000000020 .LVL31
C:\Users\stapi\AppData\Local\Temp\ccuG8hVZ.s:338    .text.uart_config:000000000000002c .LVL32
C:\Users\stapi\AppData\Local\Temp\ccuG8hVZ.s:347    .text.uart_config:0000000000000044 .LVL33
C:\Users\stapi\AppData\Local\Temp\ccuG8hVZ.s:353    .text.uart_config:0000000000000054 .LVL34
C:\Users\stapi\AppData\Local\Temp\ccuG8hVZ.s:359    .text.uart_config:0000000000000064 .LVL35
C:\Users\stapi\AppData\Local\Temp\ccuG8hVZ.s:366    .text.uart_config:0000000000000076 .LVL36
C:\Users\stapi\AppData\Local\Temp\ccuG8hVZ.s:373    .text.uart_config:0000000000000088 .LVL37
C:\Users\stapi\AppData\Local\Temp\ccuG8hVZ.s:380    .text.uart_config:000000000000009a .LVL38
C:\Users\stapi\AppData\Local\Temp\ccuG8hVZ.s:387    .text.uart_config:00000000000000ac .LVL39
C:\Users\stapi\AppData\Local\Temp\ccuG8hVZ.s:396    .text.uart_config:00000000000000be .LVL40
C:\Users\stapi\AppData\Local\Temp\ccuG8hVZ.s:402    .text.uart_config:00000000000000ce .LVL41
C:\Users\stapi\AppData\Local\Temp\ccuG8hVZ.s:409    .text.uart_config:00000000000000e0 .LVL42
C:\Users\stapi\AppData\Local\Temp\ccuG8hVZ.s:416    .text.uart_config:00000000000000f2 .LVL43
C:\Users\stapi\AppData\Local\Temp\ccuG8hVZ.s:423    .text.uart_config:0000000000000104 .LVL44
C:\Users\stapi\AppData\Local\Temp\ccuG8hVZ.s:434    .text.uart_config:0000000000000116 .LVL45
C:\Users\stapi\AppData\Local\Temp\ccuG8hVZ.s:446    .text.uart_config:000000000000012e .LVL46
C:\Users\stapi\AppData\Local\Temp\ccuG8hVZ.s:450    .text.uart_config:0000000000000138 .LVL47
C:\Users\stapi\AppData\Local\Temp\ccuG8hVZ.s:455    .text.uart_config:0000000000000144 .LVL48
C:\Users\stapi\AppData\Local\Temp\ccuG8hVZ.s:460    .text.uart_config:0000000000000150 .LVL49
C:\Users\stapi\AppData\Local\Temp\ccuG8hVZ.s:465    .text.uart_config:000000000000015c .LVL50
C:\Users\stapi\AppData\Local\Temp\ccuG8hVZ.s:470    .text.uart_config:0000000000000168 .LVL51
C:\Users\stapi\AppData\Local\Temp\ccuG8hVZ.s:474    .text.uart_config:0000000000000172 .LVL52
C:\Users\stapi\AppData\Local\Temp\ccuG8hVZ.s:482    .text.uart_config:0000000000000184 .LVL53
C:\Users\stapi\AppData\Local\Temp\ccuG8hVZ.s:489    .text.uart_config:0000000000000192 .LVL54
C:\Users\stapi\AppData\Local\Temp\ccuG8hVZ.s:497    .text.uart_config:00000000000001a2 .LVL55
C:\Users\stapi\AppData\Local\Temp\ccuG8hVZ.s:502    .text.uart_config:00000000000001b0 .LVL56
C:\Users\stapi\AppData\Local\Temp\ccuG8hVZ.s:507    .text.uart_config:00000000000001bc .LVL57
C:\Users\stapi\AppData\Local\Temp\ccuG8hVZ.s:512    .text.uart_config:00000000000001ca .LVL58
C:\Users\stapi\AppData\Local\Temp\ccuG8hVZ.s:521    .text.uart_config:00000000000001dc .LVL59
C:\Users\stapi\AppData\Local\Temp\ccuG8hVZ.s:526    .text.uart_config:00000000000001ea .LVL60
C:\Users\stapi\AppData\Local\Temp\ccuG8hVZ.s:531    .text.uart_config:00000000000001f8 .LVL61
C:\Users\stapi\AppData\Local\Temp\ccuG8hVZ.s:536    .text.uart_config:0000000000000202 .LVL62
C:\Users\stapi\AppData\Local\Temp\ccuG8hVZ.s:558    .text.uart_config:0000000000000222 .LVL63
C:\Users\stapi\AppData\Local\Temp\ccuG8hVZ.s:565    .text.uart_config:0000000000000236 .LVL64
C:\Users\stapi\AppData\Local\Temp\ccuG8hVZ.s:571    .text.uart_config:0000000000000248 .LVL65
C:\Users\stapi\AppData\Local\Temp\ccuG8hVZ.s:578    .text.uart_config:000000000000025a .LVL66
C:\Users\stapi\AppData\Local\Temp\ccuG8hVZ.s:585    .text.uart_config:000000000000026c .LVL67
C:\Users\stapi\AppData\Local\Temp\ccuG8hVZ.s:592    .text.uart_config:0000000000000280 .LVL68
C:\Users\stapi\AppData\Local\Temp\ccuG8hVZ.s:599    .text.uart_config:0000000000000294 .LVL69
C:\Users\stapi\AppData\Local\Temp\ccuG8hVZ.s:608    .text.uart_config:00000000000002a8 .LVL70
C:\Users\stapi\AppData\Local\Temp\ccuG8hVZ.s:614    .text.uart_config:00000000000002b8 .LVL71
C:\Users\stapi\AppData\Local\Temp\ccuG8hVZ.s:621    .text.uart_config:00000000000002ca .LVL72
C:\Users\stapi\AppData\Local\Temp\ccuG8hVZ.s:628    .text.uart_config:00000000000002dc .LVL73
C:\Users\stapi\AppData\Local\Temp\ccuG8hVZ.s:635    .text.uart_config:00000000000002ee .LVL74
C:\Users\stapi\AppData\Local\Temp\ccuG8hVZ.s:647    .text.uart_config:0000000000000306 .LVL75
C:\Users\stapi\AppData\Local\Temp\ccuG8hVZ.s:653    .text.uart_config:0000000000000318 .LVL76
C:\Users\stapi\AppData\Local\Temp\ccuG8hVZ.s:659    .text.uart_config:000000000000032a .LVL77
C:\Users\stapi\AppData\Local\Temp\ccuG8hVZ.s:666    .text.uart_config:000000000000033e .LVL78
C:\Users\stapi\AppData\Local\Temp\ccuG8hVZ.s:673    .text.uart_config:0000000000000352 .LVL79
C:\Users\stapi\AppData\Local\Temp\ccuG8hVZ.s:680    .text.uart_config:0000000000000366 .LVL80
C:\Users\stapi\AppData\Local\Temp\ccuG8hVZ.s:687    .text.uart_config:000000000000037a .LVL81
C:\Users\stapi\AppData\Local\Temp\ccuG8hVZ.s:697    .text.uart_config:0000000000000392 .LVL82
C:\Users\stapi\AppData\Local\Temp\ccuG8hVZ.s:703    .text.uart_config:00000000000003a2 .LVL83
C:\Users\stapi\AppData\Local\Temp\ccuG8hVZ.s:710    .text.uart_config:00000000000003b4 .LVL84
C:\Users\stapi\AppData\Local\Temp\ccuG8hVZ.s:717    .text.uart_config:00000000000003c6 .LVL85
C:\Users\stapi\AppData\Local\Temp\ccuG8hVZ.s:724    .text.uart_config:00000000000003d8 .LVL86
C:\Users\stapi\AppData\Local\Temp\ccuG8hVZ.s:736    .text.uart_config:00000000000003f0 .LVL87
C:\Users\stapi\AppData\Local\Temp\ccuG8hVZ.s:6538   .debug_str:0000000000000321 .LASF264
C:\Users\stapi\AppData\Local\Temp\ccuG8hVZ.s:6724   .debug_str:0000000000000885 .LASF265
C:\Users\stapi\AppData\Local\Temp\ccuG8hVZ.s:164    .text.uart_dma_single_mode_config:0000000000000000 .LFB368
C:\Users\stapi\AppData\Local\Temp\ccuG8hVZ.s:300    .text.uart_dma_single_mode_config:00000000000000ca .LFE368
C:\Users\stapi\AppData\Local\Temp\ccuG8hVZ.s:6207   .debug_loc:000000000000030c .LLST4
C:\Users\stapi\AppData\Local\Temp\ccuG8hVZ.s:6218   .debug_loc:000000000000032a .LLST5
C:\Users\stapi\AppData\Local\Temp\ccuG8hVZ.s:6816   .debug_str:0000000000000b48 .LASF266
C:\Users\stapi\AppData\Local\Temp\ccuG8hVZ.s:6860   .debug_str:0000000000000c70 .LASF267
C:\Users\stapi\AppData\Local\Temp\ccuG8hVZ.s:6250   .debug_loc:0000000000000379 .LLST6
C:\Users\stapi\AppData\Local\Temp\ccuG8hVZ.s:189    .text.uart_dma_single_mode_config:0000000000000018 .LVL18
C:\Users\stapi\AppData\Local\Temp\ccuG8hVZ.s:241    .text.uart_dma_single_mode_config:0000000000000068 .LVL21
C:\Users\stapi\AppData\Local\Temp\ccuG8hVZ.s:246    .text.uart_dma_single_mode_config:0000000000000074 .LVL22
C:\Users\stapi\AppData\Local\Temp\ccuG8hVZ.s:250    .text.uart_dma_single_mode_config:000000000000007e .LVL23
C:\Users\stapi\AppData\Local\Temp\ccuG8hVZ.s:255    .text.uart_dma_single_mode_config:000000000000008a .LVL24
C:\Users\stapi\AppData\Local\Temp\ccuG8hVZ.s:260    .text.uart_dma_single_mode_config:0000000000000096 .LVL25
C:\Users\stapi\AppData\Local\Temp\ccuG8hVZ.s:265    .text.uart_dma_single_mode_config:00000000000000a2 .LVL26
C:\Users\stapi\AppData\Local\Temp\ccuG8hVZ.s:6558   .debug_str:000000000000039f .LASF268
C:\Users\stapi\AppData\Local\Temp\ccuG8hVZ.s:94     .text.uart_irq_callback_unregister:0000000000000000 .LFB367
C:\Users\stapi\AppData\Local\Temp\ccuG8hVZ.s:157    .text.uart_irq_callback_unregister:000000000000003a .LFE367
C:\Users\stapi\AppData\Local\Temp\ccuG8hVZ.s:6267   .debug_loc:00000000000003a4 .LLST2
C:\Users\stapi\AppData\Local\Temp\ccuG8hVZ.s:6282   .debug_loc:00000000000003cd .LLST3
C:\Users\stapi\AppData\Local\Temp\ccuG8hVZ.s:6606   .debug_str:00000000000004dc .LASF269
C:\Users\stapi\AppData\Local\Temp\ccuG8hVZ.s:33     .text.uart_irq_callback_register:0000000000000000 .LFB366
C:\Users\stapi\AppData\Local\Temp\ccuG8hVZ.s:87     .text.uart_irq_callback_register:0000000000000030 .LFE366
C:\Users\stapi\AppData\Local\Temp\ccuG8hVZ.s:6310   .debug_loc:0000000000000411 .LLST0
C:\Users\stapi\AppData\Local\Temp\ccuG8hVZ.s:6333   .debug_loc:0000000000000449 .LLST1
C:\Users\stapi\AppData\Local\Temp\ccuG8hVZ.s:6922   .debug_str:0000000000000ded .LASF270
C:\Users\stapi\AppData\Local\Temp\ccuG8hVZ.s:14     .text.uart_driver_init:0000000000000000 .LFB365
C:\Users\stapi\AppData\Local\Temp\ccuG8hVZ.s:26     .text.uart_driver_init:0000000000000014 .LFE365
C:\Users\stapi\AppData\Local\Temp\ccuG8hVZ.s:24     .text.uart_driver_init:0000000000000014 .LVL0
C:\Users\stapi\AppData\Local\Temp\ccuG8hVZ.s:6942   .debug_str:0000000000000e75 .LASF271
C:\Users\stapi\AppData\Local\Temp\ccuG8hVZ.s:6798   .debug_str:0000000000000ae2 .LASF272
C:\Users\stapi\AppData\Local\Temp\ccuG8hVZ.s:6858   .debug_str:0000000000000c58 .LASF273
C:\Users\stapi\AppData\Local\Temp\ccuG8hVZ.s:6434   .debug_str:0000000000000066 .LASF274
C:\Users\stapi\AppData\Local\Temp\ccuG8hVZ.s:6686   .debug_str:00000000000007a5 .LASF275
C:\Users\stapi\AppData\Local\Temp\ccuG8hVZ.s:7014   .debug_str:0000000000001046 .LASF276
C:\Users\stapi\AppData\Local\Temp\ccuG8hVZ.s:6540   .debug_str:0000000000000327 .LASF277
C:\Users\stapi\AppData\Local\Temp\ccuG8hVZ.s:7006   .debug_str:0000000000001007 .LASF278
C:\Users\stapi\AppData\Local\Temp\ccuG8hVZ.s:7016   .debug_str:000000000000105f .LASF279
C:\Users\stapi\AppData\Local\Temp\ccuG8hVZ.s:6712   .debug_str:0000000000000845 .LASF280
C:\Users\stapi\AppData\Local\Temp\ccuG8hVZ.s:6620   .debug_str:000000000000054b .LASF281
C:\Users\stapi\AppData\Local\Temp\ccuG8hVZ.s:6776   .debug_str:0000000000000a6a .LASF282
C:\Users\stapi\AppData\Local\Temp\ccuG8hVZ.s:6690   .debug_str:00000000000007c8 .LASF283
C:\Users\stapi\AppData\Local\Temp\ccuG8hVZ.s:6484   .debug_str:0000000000000166 .LASF284
C:\Users\stapi\AppData\Local\Temp\ccuG8hVZ.s:6426   .debug_str:0000000000000039 .LASF285
C:\Users\stapi\AppData\Local\Temp\ccuG8hVZ.s:6896   .debug_str:0000000000000d4c .LASF286
C:\Users\stapi\AppData\Local\Temp\ccuG8hVZ.s:6784   .debug_str:0000000000000a90 .LASF287
C:\Users\stapi\AppData\Local\Temp\ccuG8hVZ.s:6742   .debug_str:0000000000000913 .LASF288
C:\Users\stapi\AppData\Local\Temp\ccuG8hVZ.s:6828   .debug_str:0000000000000b8e .LASF289
C:\Users\stapi\AppData\Local\Temp\ccuG8hVZ.s:6604   .debug_str:00000000000004c3 .LASF290
C:\Users\stapi\AppData\Local\Temp\ccuG8hVZ.s:6490   .debug_str:0000000000000191 .LASF291
C:\Users\stapi\AppData\Local\Temp\ccuG8hVZ.s:6608   .debug_str:00000000000004f7 .LASF292
C:\Users\stapi\AppData\Local\Temp\ccuG8hVZ.s:6760   .debug_str:0000000000000984 .LASF293
C:\Users\stapi\AppData\Local\Temp\ccuG8hVZ.s:6472   .debug_str:0000000000000125 .LASF294
C:\Users\stapi\AppData\Local\Temp\ccuG8hVZ.s:6902   .debug_str:0000000000000d73 .LASF295
C:\Users\stapi\AppData\Local\Temp\ccuG8hVZ.s:6732   .debug_str:00000000000008c6 .LASF296
C:\Users\stapi\AppData\Local\Temp\ccuG8hVZ.s:6680   .debug_str:000000000000076b .LASF297
C:\Users\stapi\AppData\Local\Temp\ccuG8hVZ.s:6952   .debug_str:0000000000000eb9 .LASF298
C:\Users\stapi\AppData\Local\Temp\ccuG8hVZ.s:6934   .debug_str:0000000000000e42 .LASF299
C:\Users\stapi\AppData\Local\Temp\ccuG8hVZ.s:6582   .debug_str:0000000000000458 .LASF305
C:\Users\stapi\AppData\Local\Temp\ccuG8hVZ.s:6526   .debug_str:00000000000002d0 .LASF306
C:\Users\stapi\AppData\Local\Temp\ccuG8hVZ.s:1145   .text.uart_rx_flush:0000000000000000 .LVL134
C:\Users\stapi\AppData\Local\Temp\ccuG8hVZ.s:1152   .text.uart_rx_flush:000000000000000a .LVL135
C:\Users\stapi\AppData\Local\Temp\ccuG8hVZ.s:1086   .text.uart_getc_with_timeout:0000000000000000 .LVL128
C:\Users\stapi\AppData\Local\Temp\ccuG8hVZ.s:1097   .text.uart_getc_with_timeout:000000000000000e .LVL129
C:\Users\stapi\AppData\Local\Temp\ccuG8hVZ.s:1113   .text.uart_getc_with_timeout:0000000000000026 .LVL131
C:\Users\stapi\AppData\Local\Temp\ccuG8hVZ.s:1125   .text.uart_getc_with_timeout:0000000000000038 .LVL133
C:\Users\stapi\AppData\Local\Temp\ccuG8hVZ.s:1052   .text.uart_tx_idle_wait:0000000000000000 .LVL125
C:\Users\stapi\AppData\Local\Temp\ccuG8hVZ.s:1059   .text.uart_tx_idle_wait:000000000000000a .LVL126
C:\Users\stapi\AppData\Local\Temp\ccuG8hVZ.s:929    .text.uart_irq_hdl:0000000000000000 .LVL108
C:\Users\stapi\AppData\Local\Temp\ccuG8hVZ.s:936    .text.uart_irq_hdl:0000000000000008 .LVL109
C:\Users\stapi\AppData\Local\Temp\ccuG8hVZ.s:950    .text.uart_irq_hdl:000000000000001c .LVL110
C:\Users\stapi\AppData\Local\Temp\ccuG8hVZ.s:957    .text.uart_irq_hdl:0000000000000022 .LVL111
C:\Users\stapi\AppData\Local\Temp\ccuG8hVZ.s:964    .text.uart_irq_hdl:0000000000000028 .LVL112
C:\Users\stapi\AppData\Local\Temp\ccuG8hVZ.s:1001   .text.uart_irq_hdl:000000000000006c .LVL118
C:\Users\stapi\AppData\Local\Temp\ccuG8hVZ.s:1005   .text.uart_irq_hdl:000000000000006e .LVL119
C:\Users\stapi\AppData\Local\Temp\ccuG8hVZ.s:1023   .text.uart_irq_hdl:0000000000000080 .LVL121
C:\Users\stapi\AppData\Local\Temp\ccuG8hVZ.s:1029   .text.uart_irq_hdl:0000000000000084 .LVL122
C:\Users\stapi\AppData\Local\Temp\ccuG8hVZ.s:1033   .text.uart_irq_hdl:0000000000000088 .LVL123
C:\Users\stapi\AppData\Local\Temp\ccuG8hVZ.s:853    .text.uart_getc:0000000000000000 .LVL98
C:\Users\stapi\AppData\Local\Temp\ccuG8hVZ.s:860    .text.uart_getc:0000000000000008 .LVL99
C:\Users\stapi\AppData\Local\Temp\ccuG8hVZ.s:875    .text.uart_getc:000000000000001c .LVL101
C:\Users\stapi\AppData\Local\Temp\ccuG8hVZ.s:886    .text.uart_getc:0000000000000028 .LVL102
C:\Users\stapi\AppData\Local\Temp\ccuG8hVZ.s:903    .text.uart_getc:0000000000000046 .LVL105
C:\Users\stapi\AppData\Local\Temp\ccuG8hVZ.s:811    .text.uart_putc_noint:0000000000000000 .LVL94
C:\Users\stapi\AppData\Local\Temp\ccuG8hVZ.s:820    .text.uart_putc_noint:000000000000000c .LVL95
C:\Users\stapi\AppData\Local\Temp\ccuG8hVZ.s:751    .text.uart_put_data:0000000000000000 .LVL88
C:\Users\stapi\AppData\Local\Temp\ccuG8hVZ.s:766    .text.uart_put_data:0000000000000012 .LVL89
C:\Users\stapi\AppData\Local\Temp\ccuG8hVZ.s:797    .text.uart_put_data:000000000000003e .LVL93
C:\Users\stapi\AppData\Local\Temp\ccuG8hVZ.s:781    .text.uart_put_data:0000000000000028 .LVL91
C:\Users\stapi\AppData\Local\Temp\ccuG8hVZ.s:310    .text.uart_config:0000000000000000 .LVL29
C:\Users\stapi\AppData\Local\Temp\ccuG8hVZ.s:326    .text.uart_config:0000000000000010 .LVL30
C:\Users\stapi\AppData\Local\Temp\ccuG8hVZ.s:167    .text.uart_dma_single_mode_config:0000000000000000 .LVL15
C:\Users\stapi\AppData\Local\Temp\ccuG8hVZ.s:184    .text.uart_dma_single_mode_config:000000000000000e .LVL17
C:\Users\stapi\AppData\Local\Temp\ccuG8hVZ.s:221    .text.uart_dma_single_mode_config:0000000000000040 .LVL19
C:\Users\stapi\AppData\Local\Temp\ccuG8hVZ.s:276    .text.uart_dma_single_mode_config:00000000000000ac .LVL27
C:\Users\stapi\AppData\Local\Temp\ccuG8hVZ.s:292    .text.uart_dma_single_mode_config:00000000000000be .LVL28
C:\Users\stapi\AppData\Local\Temp\ccuG8hVZ.s:175    .text.uart_dma_single_mode_config:0000000000000008 .LVL16
C:\Users\stapi\AppData\Local\Temp\ccuG8hVZ.s:237    .text.uart_dma_single_mode_config:000000000000005e .LVL20
C:\Users\stapi\AppData\Local\Temp\ccuG8hVZ.s:97     .text.uart_irq_callback_unregister:0000000000000000 .LVL8
C:\Users\stapi\AppData\Local\Temp\ccuG8hVZ.s:126    .text.uart_irq_callback_unregister:000000000000001c .LVL11
C:\Users\stapi\AppData\Local\Temp\ccuG8hVZ.s:147    .text.uart_irq_callback_unregister:0000000000000032 .LVL13
C:\Users\stapi\AppData\Local\Temp\ccuG8hVZ.s:112    .text.uart_irq_callback_unregister:0000000000000012 .LVL9
C:\Users\stapi\AppData\Local\Temp\ccuG8hVZ.s:119    .text.uart_irq_callback_unregister:0000000000000018 .LVL10
C:\Users\stapi\AppData\Local\Temp\ccuG8hVZ.s:131    .text.uart_irq_callback_unregister:0000000000000022 .LVL12
C:\Users\stapi\AppData\Local\Temp\ccuG8hVZ.s:152    .text.uart_irq_callback_unregister:0000000000000036 .LVL14
C:\Users\stapi\AppData\Local\Temp\ccuG8hVZ.s:36     .text.uart_irq_callback_register:0000000000000000 .LVL1
C:\Users\stapi\AppData\Local\Temp\ccuG8hVZ.s:69     .text.uart_irq_callback_register:0000000000000022 .LVL4
C:\Users\stapi\AppData\Local\Temp\ccuG8hVZ.s:71     .text.uart_irq_callback_register:0000000000000024 .LVL5
C:\Users\stapi\AppData\Local\Temp\ccuG8hVZ.s:83     .text.uart_irq_callback_register:000000000000002e .LVL7
C:\Users\stapi\AppData\Local\Temp\ccuG8hVZ.s:47     .text.uart_irq_callback_register:0000000000000010 .LVL2
C:\Users\stapi\AppData\Local\Temp\ccuG8hVZ.s:60     .text.uart_irq_callback_register:000000000000001c .LVL3
C:\Users\stapi\AppData\Local\Temp\ccuG8hVZ.s:77     .text.uart_irq_callback_register:0000000000000026 .LVL6
C:\Users\stapi\AppData\Local\Temp\ccuG8hVZ.s:1202   .debug_info:0000000000000000 .Ldebug_info0

UNDEFINED SYMBOLS
memset
__riscv_save_2
dma_single_data_para_struct_init
dma_deinit
dma_single_data_mode_init
dma_circulation_disable
dma_channel_subperipheral_select
dma_flow_controller_config
dma_interrupt_enable
__riscv_restore_2
__riscv_save_6
rcu_periph_clock_enable
gpio_af_set
gpio_mode_set
gpio_output_options_set
_impure_ptr
setvbuf
usart_deinit
usart_baudrate_set
usart_receive_config
usart_transmit_config
usart_interrupt_enable
usart_receive_fifo_enable
usart_hardware_flow_rts_config
usart_hardware_flow_cts_config
usart_interrupt_disable
usart_dma_receive_config
usart_dma_transmit_config
usart_enable
__riscv_restore_6
__riscv_save_3
usart_flag_get
usart_data_transmit
__riscv_restore_3
usart_interrupt_flag_get
usart_data_receive
usart_flag_clear
__riscv_save_1
__riscv_restore_1
