   1              		.file	"ble_init.c"
   2              		.option nopic
   3              		.attribute arch, "rv32i2p0_m2p0_a2p0_f2p0_c2p0_b_p0p94"
   4              		.attribute unaligned_access, 0
   5              		.attribute stack_align, 16
   6              		.text
   7              	.Ltext0:
   8              		.cfi_sections	.debug_frame
   9              		.section	.text.ble_flash_erase_handler,"ax",@progbits
  10              		.align	1
  11              		.globl	ble_flash_erase_handler
  13              	ble_flash_erase_handler:
  14              	.LFB7:
  15              		.file 1 "C:/Users/stapi/OneDrive/Desktop/GD32VW553/GD32VW55X_Wifi_BLE_SDK/GD32VW55x_RELEASE_V1.0.2
   1:C:/Users/stapi/OneDrive/Desktop/GD32VW553/GD32VW55X_Wifi_BLE_SDK/GD32VW55x_RELEASE_V1.0.2/MSDK/ble/app\ble_init.c **** /*!
   2:C:/Users/stapi/OneDrive/Desktop/GD32VW553/GD32VW55X_Wifi_BLE_SDK/GD32VW55x_RELEASE_V1.0.2/MSDK/ble/app\ble_init.c ****     \file    ble_init.c
   3:C:/Users/stapi/OneDrive/Desktop/GD32VW553/GD32VW55X_Wifi_BLE_SDK/GD32VW55x_RELEASE_V1.0.2/MSDK/ble/app\ble_init.c ****     \brief   Implementation of the BLE initialization.
   4:C:/Users/stapi/OneDrive/Desktop/GD32VW553/GD32VW55X_Wifi_BLE_SDK/GD32VW55x_RELEASE_V1.0.2/MSDK/ble/app\ble_init.c **** 
   5:C:/Users/stapi/OneDrive/Desktop/GD32VW553/GD32VW55X_Wifi_BLE_SDK/GD32VW55x_RELEASE_V1.0.2/MSDK/ble/app\ble_init.c ****     \version 2023-07-20, V1.0.0, firmware for GD32VW55x
   6:C:/Users/stapi/OneDrive/Desktop/GD32VW553/GD32VW55X_Wifi_BLE_SDK/GD32VW55x_RELEASE_V1.0.2/MSDK/ble/app\ble_init.c **** */
   7:C:/Users/stapi/OneDrive/Desktop/GD32VW553/GD32VW55X_Wifi_BLE_SDK/GD32VW55x_RELEASE_V1.0.2/MSDK/ble/app\ble_init.c **** 
   8:C:/Users/stapi/OneDrive/Desktop/GD32VW553/GD32VW55X_Wifi_BLE_SDK/GD32VW55x_RELEASE_V1.0.2/MSDK/ble/app\ble_init.c **** /*
   9:C:/Users/stapi/OneDrive/Desktop/GD32VW553/GD32VW55X_Wifi_BLE_SDK/GD32VW55x_RELEASE_V1.0.2/MSDK/ble/app\ble_init.c ****     Copyright (c) 2023, GigaDevice Semiconductor Inc.
  10:C:/Users/stapi/OneDrive/Desktop/GD32VW553/GD32VW55X_Wifi_BLE_SDK/GD32VW55x_RELEASE_V1.0.2/MSDK/ble/app\ble_init.c **** 
  11:C:/Users/stapi/OneDrive/Desktop/GD32VW553/GD32VW55X_Wifi_BLE_SDK/GD32VW55x_RELEASE_V1.0.2/MSDK/ble/app\ble_init.c ****     Redistribution and use in source and binary forms, with or without modification,
  12:C:/Users/stapi/OneDrive/Desktop/GD32VW553/GD32VW55X_Wifi_BLE_SDK/GD32VW55x_RELEASE_V1.0.2/MSDK/ble/app\ble_init.c **** are permitted provided that the following conditions are met:
  13:C:/Users/stapi/OneDrive/Desktop/GD32VW553/GD32VW55X_Wifi_BLE_SDK/GD32VW55x_RELEASE_V1.0.2/MSDK/ble/app\ble_init.c **** 
  14:C:/Users/stapi/OneDrive/Desktop/GD32VW553/GD32VW55X_Wifi_BLE_SDK/GD32VW55x_RELEASE_V1.0.2/MSDK/ble/app\ble_init.c ****     1. Redistributions of source code must retain the above copyright notice, this
  15:C:/Users/stapi/OneDrive/Desktop/GD32VW553/GD32VW55X_Wifi_BLE_SDK/GD32VW55x_RELEASE_V1.0.2/MSDK/ble/app\ble_init.c ****        list of conditions and the following disclaimer.
  16:C:/Users/stapi/OneDrive/Desktop/GD32VW553/GD32VW55X_Wifi_BLE_SDK/GD32VW55x_RELEASE_V1.0.2/MSDK/ble/app\ble_init.c ****     2. Redistributions in binary form must reproduce the above copyright notice,
  17:C:/Users/stapi/OneDrive/Desktop/GD32VW553/GD32VW55X_Wifi_BLE_SDK/GD32VW55x_RELEASE_V1.0.2/MSDK/ble/app\ble_init.c ****        this list of conditions and the following disclaimer in the documentation
  18:C:/Users/stapi/OneDrive/Desktop/GD32VW553/GD32VW55X_Wifi_BLE_SDK/GD32VW55x_RELEASE_V1.0.2/MSDK/ble/app\ble_init.c ****        and/or other materials provided with the distribution.
  19:C:/Users/stapi/OneDrive/Desktop/GD32VW553/GD32VW55X_Wifi_BLE_SDK/GD32VW55x_RELEASE_V1.0.2/MSDK/ble/app\ble_init.c ****     3. Neither the name of the copyright holder nor the names of its contributors
  20:C:/Users/stapi/OneDrive/Desktop/GD32VW553/GD32VW55X_Wifi_BLE_SDK/GD32VW55x_RELEASE_V1.0.2/MSDK/ble/app\ble_init.c ****        may be used to endorse or promote products derived from this software without
  21:C:/Users/stapi/OneDrive/Desktop/GD32VW553/GD32VW55X_Wifi_BLE_SDK/GD32VW55x_RELEASE_V1.0.2/MSDK/ble/app\ble_init.c ****        specific prior written permission.
  22:C:/Users/stapi/OneDrive/Desktop/GD32VW553/GD32VW55X_Wifi_BLE_SDK/GD32VW55x_RELEASE_V1.0.2/MSDK/ble/app\ble_init.c **** 
  23:C:/Users/stapi/OneDrive/Desktop/GD32VW553/GD32VW55X_Wifi_BLE_SDK/GD32VW55x_RELEASE_V1.0.2/MSDK/ble/app\ble_init.c ****     THIS SOFTWARE IS PROVIDED BY THE COPYRIGHT HOLDERS AND CONTRIBUTORS "AS IS"
  24:C:/Users/stapi/OneDrive/Desktop/GD32VW553/GD32VW55X_Wifi_BLE_SDK/GD32VW55x_RELEASE_V1.0.2/MSDK/ble/app\ble_init.c **** AND ANY EXPRESS OR IMPLIED WARRANTIES, INCLUDING, BUT NOT LIMITED TO, THE IMPLIED
  25:C:/Users/stapi/OneDrive/Desktop/GD32VW553/GD32VW55X_Wifi_BLE_SDK/GD32VW55x_RELEASE_V1.0.2/MSDK/ble/app\ble_init.c **** WARRANTIES OF MERCHANTABILITY AND FITNESS FOR A PARTICULAR PURPOSE ARE DISCLAIMED.
  26:C:/Users/stapi/OneDrive/Desktop/GD32VW553/GD32VW55X_Wifi_BLE_SDK/GD32VW55x_RELEASE_V1.0.2/MSDK/ble/app\ble_init.c **** IN NO EVENT SHALL THE COPYRIGHT HOLDER OR CONTRIBUTORS BE LIABLE FOR ANY DIRECT,
  27:C:/Users/stapi/OneDrive/Desktop/GD32VW553/GD32VW55X_Wifi_BLE_SDK/GD32VW55x_RELEASE_V1.0.2/MSDK/ble/app\ble_init.c **** INDIRECT, INCIDENTAL, SPECIAL, EXEMPLARY, OR CONSEQUENTIAL DAMAGES (INCLUDING, BUT
  28:C:/Users/stapi/OneDrive/Desktop/GD32VW553/GD32VW55X_Wifi_BLE_SDK/GD32VW55x_RELEASE_V1.0.2/MSDK/ble/app\ble_init.c **** NOT LIMITED TO, PROCUREMENT OF SUBSTITUTE GOODS OR SERVICES; LOSS OF USE, DATA, OR
  29:C:/Users/stapi/OneDrive/Desktop/GD32VW553/GD32VW55X_Wifi_BLE_SDK/GD32VW55x_RELEASE_V1.0.2/MSDK/ble/app\ble_init.c **** PROFITS; OR BUSINESS INTERRUPTION) HOWEVER CAUSED AND ON ANY THEORY OF LIABILITY,
  30:C:/Users/stapi/OneDrive/Desktop/GD32VW553/GD32VW55X_Wifi_BLE_SDK/GD32VW55x_RELEASE_V1.0.2/MSDK/ble/app\ble_init.c **** WHETHER IN CONTRACT, STRICT LIABILITY, OR TORT (INCLUDING NEGLIGENCE OR OTHERWISE)
  31:C:/Users/stapi/OneDrive/Desktop/GD32VW553/GD32VW55X_Wifi_BLE_SDK/GD32VW55x_RELEASE_V1.0.2/MSDK/ble/app\ble_init.c **** ARISING IN ANY WAY OUT OF THE USE OF THIS SOFTWARE, EVEN IF ADVISED OF THE POSSIBILITY
  32:C:/Users/stapi/OneDrive/Desktop/GD32VW553/GD32VW55X_Wifi_BLE_SDK/GD32VW55x_RELEASE_V1.0.2/MSDK/ble/app\ble_init.c **** OF SUCH DAMAGE.
  33:C:/Users/stapi/OneDrive/Desktop/GD32VW553/GD32VW55X_Wifi_BLE_SDK/GD32VW55x_RELEASE_V1.0.2/MSDK/ble/app\ble_init.c **** */
  34:C:/Users/stapi/OneDrive/Desktop/GD32VW553/GD32VW55X_Wifi_BLE_SDK/GD32VW55x_RELEASE_V1.0.2/MSDK/ble/app\ble_init.c **** 
  35:C:/Users/stapi/OneDrive/Desktop/GD32VW553/GD32VW55X_Wifi_BLE_SDK/GD32VW55x_RELEASE_V1.0.2/MSDK/ble/app\ble_init.c **** #include <stdbool.h>
  36:C:/Users/stapi/OneDrive/Desktop/GD32VW553/GD32VW55X_Wifi_BLE_SDK/GD32VW55x_RELEASE_V1.0.2/MSDK/ble/app\ble_init.c **** #include "app_cfg.h"
  37:C:/Users/stapi/OneDrive/Desktop/GD32VW553/GD32VW55X_Wifi_BLE_SDK/GD32VW55x_RELEASE_V1.0.2/MSDK/ble/app\ble_init.c **** #include "ble_app_config.h"
  38:C:/Users/stapi/OneDrive/Desktop/GD32VW553/GD32VW55X_Wifi_BLE_SDK/GD32VW55x_RELEASE_V1.0.2/MSDK/ble/app\ble_init.c **** #include "ble_profile_config.h"
  39:C:/Users/stapi/OneDrive/Desktop/GD32VW553/GD32VW55X_Wifi_BLE_SDK/GD32VW55x_RELEASE_V1.0.2/MSDK/ble/app\ble_init.c **** 
  40:C:/Users/stapi/OneDrive/Desktop/GD32VW553/GD32VW55X_Wifi_BLE_SDK/GD32VW55x_RELEASE_V1.0.2/MSDK/ble/app\ble_init.c **** #include "ble_init.h"
  41:C:/Users/stapi/OneDrive/Desktop/GD32VW553/GD32VW55X_Wifi_BLE_SDK/GD32VW55x_RELEASE_V1.0.2/MSDK/ble/app\ble_init.c **** #include "ble_export.h"
  42:C:/Users/stapi/OneDrive/Desktop/GD32VW553/GD32VW55X_Wifi_BLE_SDK/GD32VW55x_RELEASE_V1.0.2/MSDK/ble/app\ble_init.c **** 
  43:C:/Users/stapi/OneDrive/Desktop/GD32VW553/GD32VW55X_Wifi_BLE_SDK/GD32VW55x_RELEASE_V1.0.2/MSDK/ble/app\ble_init.c **** #include "ble_adapter.h"
  44:C:/Users/stapi/OneDrive/Desktop/GD32VW553/GD32VW55X_Wifi_BLE_SDK/GD32VW55x_RELEASE_V1.0.2/MSDK/ble/app\ble_init.c **** #include "ble_adv.h"
  45:C:/Users/stapi/OneDrive/Desktop/GD32VW553/GD32VW55X_Wifi_BLE_SDK/GD32VW55x_RELEASE_V1.0.2/MSDK/ble/app\ble_init.c **** #include "ble_scan.h"
  46:C:/Users/stapi/OneDrive/Desktop/GD32VW553/GD32VW55X_Wifi_BLE_SDK/GD32VW55x_RELEASE_V1.0.2/MSDK/ble/app\ble_init.c **** #include "ble_conn.h"
  47:C:/Users/stapi/OneDrive/Desktop/GD32VW553/GD32VW55X_Wifi_BLE_SDK/GD32VW55x_RELEASE_V1.0.2/MSDK/ble/app\ble_init.c **** #include "ble_l2cap_coc.h"
  48:C:/Users/stapi/OneDrive/Desktop/GD32VW553/GD32VW55X_Wifi_BLE_SDK/GD32VW55x_RELEASE_V1.0.2/MSDK/ble/app\ble_init.c **** #include "ble_sec.h"
  49:C:/Users/stapi/OneDrive/Desktop/GD32VW553/GD32VW55X_Wifi_BLE_SDK/GD32VW55x_RELEASE_V1.0.2/MSDK/ble/app\ble_init.c **** 
  50:C:/Users/stapi/OneDrive/Desktop/GD32VW553/GD32VW55X_Wifi_BLE_SDK/GD32VW55x_RELEASE_V1.0.2/MSDK/ble/app\ble_init.c **** #include "app_adapter_mgr.h"
  51:C:/Users/stapi/OneDrive/Desktop/GD32VW553/GD32VW55X_Wifi_BLE_SDK/GD32VW55x_RELEASE_V1.0.2/MSDK/ble/app\ble_init.c **** #include "ble_storage.h"
  52:C:/Users/stapi/OneDrive/Desktop/GD32VW553/GD32VW55X_Wifi_BLE_SDK/GD32VW55x_RELEASE_V1.0.2/MSDK/ble/app\ble_init.c **** #include "wrapper_os.h"
  53:C:/Users/stapi/OneDrive/Desktop/GD32VW553/GD32VW55X_Wifi_BLE_SDK/GD32VW55x_RELEASE_V1.0.2/MSDK/ble/app\ble_init.c **** #include "ble_gatts.h"
  54:C:/Users/stapi/OneDrive/Desktop/GD32VW553/GD32VW55X_Wifi_BLE_SDK/GD32VW55x_RELEASE_V1.0.2/MSDK/ble/app\ble_init.c **** #if (BLE_APP_GATT_CLIENT_SUPPORT)
  55:C:/Users/stapi/OneDrive/Desktop/GD32VW553/GD32VW55X_Wifi_BLE_SDK/GD32VW55x_RELEASE_V1.0.2/MSDK/ble/app\ble_init.c **** #include "ble_gattc.h"
  56:C:/Users/stapi/OneDrive/Desktop/GD32VW553/GD32VW55X_Wifi_BLE_SDK/GD32VW55x_RELEASE_V1.0.2/MSDK/ble/app\ble_init.c **** #if (BLE_APP_GATTC_CO_ITF_SUPPORT)
  57:C:/Users/stapi/OneDrive/Desktop/GD32VW553/GD32VW55X_Wifi_BLE_SDK/GD32VW55x_RELEASE_V1.0.2/MSDK/ble/app\ble_init.c **** #include "ble_gattc_co.h"
  58:C:/Users/stapi/OneDrive/Desktop/GD32VW553/GD32VW55X_Wifi_BLE_SDK/GD32VW55x_RELEASE_V1.0.2/MSDK/ble/app\ble_init.c **** #endif
  59:C:/Users/stapi/OneDrive/Desktop/GD32VW553/GD32VW55X_Wifi_BLE_SDK/GD32VW55x_RELEASE_V1.0.2/MSDK/ble/app\ble_init.c **** #endif
  60:C:/Users/stapi/OneDrive/Desktop/GD32VW553/GD32VW55X_Wifi_BLE_SDK/GD32VW55x_RELEASE_V1.0.2/MSDK/ble/app\ble_init.c **** #include "app_cmd.h"
  61:C:/Users/stapi/OneDrive/Desktop/GD32VW553/GD32VW55X_Wifi_BLE_SDK/GD32VW55x_RELEASE_V1.0.2/MSDK/ble/app\ble_init.c **** #include "app_adv_mgr.h"
  62:C:/Users/stapi/OneDrive/Desktop/GD32VW553/GD32VW55X_Wifi_BLE_SDK/GD32VW55x_RELEASE_V1.0.2/MSDK/ble/app\ble_init.c **** #include "app_scan_mgr.h"
  63:C:/Users/stapi/OneDrive/Desktop/GD32VW553/GD32VW55X_Wifi_BLE_SDK/GD32VW55x_RELEASE_V1.0.2/MSDK/ble/app\ble_init.c **** #include "app_list_mgr.h"
  64:C:/Users/stapi/OneDrive/Desktop/GD32VW553/GD32VW55X_Wifi_BLE_SDK/GD32VW55x_RELEASE_V1.0.2/MSDK/ble/app\ble_init.c **** #include "app_sec_mgr.h"
  65:C:/Users/stapi/OneDrive/Desktop/GD32VW553/GD32VW55X_Wifi_BLE_SDK/GD32VW55x_RELEASE_V1.0.2/MSDK/ble/app\ble_init.c **** #include "app_dev_mgr.h"
  66:C:/Users/stapi/OneDrive/Desktop/GD32VW553/GD32VW55X_Wifi_BLE_SDK/GD32VW55x_RELEASE_V1.0.2/MSDK/ble/app\ble_init.c **** #include "app_conn_mgr.h"
  67:C:/Users/stapi/OneDrive/Desktop/GD32VW553/GD32VW55X_Wifi_BLE_SDK/GD32VW55x_RELEASE_V1.0.2/MSDK/ble/app\ble_init.c **** #include "app_per_sync_mgr.h"
  68:C:/Users/stapi/OneDrive/Desktop/GD32VW553/GD32VW55X_Wifi_BLE_SDK/GD32VW55x_RELEASE_V1.0.2/MSDK/ble/app\ble_init.c **** #include "app_iso_mgr.h"
  69:C:/Users/stapi/OneDrive/Desktop/GD32VW553/GD32VW55X_Wifi_BLE_SDK/GD32VW55x_RELEASE_V1.0.2/MSDK/ble/app\ble_init.c **** #include "app_l2cap.h"
  70:C:/Users/stapi/OneDrive/Desktop/GD32VW553/GD32VW55X_Wifi_BLE_SDK/GD32VW55x_RELEASE_V1.0.2/MSDK/ble/app\ble_init.c **** #include "app_http_proxy_server.h"
  71:C:/Users/stapi/OneDrive/Desktop/GD32VW553/GD32VW55X_Wifi_BLE_SDK/GD32VW55x_RELEASE_V1.0.2/MSDK/ble/app\ble_init.c **** #include "app_http_proxy_client.h"
  72:C:/Users/stapi/OneDrive/Desktop/GD32VW553/GD32VW55X_Wifi_BLE_SDK/GD32VW55x_RELEASE_V1.0.2/MSDK/ble/app\ble_init.c **** #include "app_prox_rpt.h"
  73:C:/Users/stapi/OneDrive/Desktop/GD32VW553/GD32VW55X_Wifi_BLE_SDK/GD32VW55x_RELEASE_V1.0.2/MSDK/ble/app\ble_init.c **** #include "app_prox_monitor.h"
  74:C:/Users/stapi/OneDrive/Desktop/GD32VW553/GD32VW55X_Wifi_BLE_SDK/GD32VW55x_RELEASE_V1.0.2/MSDK/ble/app\ble_init.c **** #include "app_diss.h"
  75:C:/Users/stapi/OneDrive/Desktop/GD32VW553/GD32VW55X_Wifi_BLE_SDK/GD32VW55x_RELEASE_V1.0.2/MSDK/ble/app\ble_init.c **** #include "app_bass.h"
  76:C:/Users/stapi/OneDrive/Desktop/GD32VW553/GD32VW55X_Wifi_BLE_SDK/GD32VW55x_RELEASE_V1.0.2/MSDK/ble/app\ble_init.c **** #include "app_cscss.h"
  77:C:/Users/stapi/OneDrive/Desktop/GD32VW553/GD32VW55X_Wifi_BLE_SDK/GD32VW55x_RELEASE_V1.0.2/MSDK/ble/app\ble_init.c **** #include "app_blue_courier_link.h"
  78:C:/Users/stapi/OneDrive/Desktop/GD32VW553/GD32VW55X_Wifi_BLE_SDK/GD32VW55x_RELEASE_V1.0.2/MSDK/ble/app\ble_init.c **** #include "app_datatrans_srv.h"
  79:C:/Users/stapi/OneDrive/Desktop/GD32VW553/GD32VW55X_Wifi_BLE_SDK/GD32VW55x_RELEASE_V1.0.2/MSDK/ble/app\ble_init.c **** 
  80:C:/Users/stapi/OneDrive/Desktop/GD32VW553/GD32VW55X_Wifi_BLE_SDK/GD32VW55x_RELEASE_V1.0.2/MSDK/ble/app\ble_init.c **** #include "raw_flash_api.h"
  81:C:/Users/stapi/OneDrive/Desktop/GD32VW553/GD32VW55X_Wifi_BLE_SDK/GD32VW55x_RELEASE_V1.0.2/MSDK/ble/app\ble_init.c **** #include "gd32vw55x_platform.h"
  82:C:/Users/stapi/OneDrive/Desktop/GD32VW553/GD32VW55X_Wifi_BLE_SDK/GD32VW55x_RELEASE_V1.0.2/MSDK/ble/app\ble_init.c **** #include "dbg_print.h"
  83:C:/Users/stapi/OneDrive/Desktop/GD32VW553/GD32VW55X_Wifi_BLE_SDK/GD32VW55x_RELEASE_V1.0.2/MSDK/ble/app\ble_init.c **** #ifdef CFG_VIRTUAL_HCI_MODE
  84:C:/Users/stapi/OneDrive/Desktop/GD32VW553/GD32VW55X_Wifi_BLE_SDK/GD32VW55x_RELEASE_V1.0.2/MSDK/ble/app\ble_init.c **** #include "app_virtual_hci.h"
  85:C:/Users/stapi/OneDrive/Desktop/GD32VW553/GD32VW55X_Wifi_BLE_SDK/GD32VW55x_RELEASE_V1.0.2/MSDK/ble/app\ble_init.c **** #endif
  86:C:/Users/stapi/OneDrive/Desktop/GD32VW553/GD32VW55X_Wifi_BLE_SDK/GD32VW55x_RELEASE_V1.0.2/MSDK/ble/app\ble_init.c **** 
  87:C:/Users/stapi/OneDrive/Desktop/GD32VW553/GD32VW55X_Wifi_BLE_SDK/GD32VW55x_RELEASE_V1.0.2/MSDK/ble/app\ble_init.c **** #ifdef TUYAOS_SUPPORT
  88:C:/Users/stapi/OneDrive/Desktop/GD32VW553/GD32VW55X_Wifi_BLE_SDK/GD32VW55x_RELEASE_V1.0.2/MSDK/ble/app\ble_init.c **** #ifdef CFG_VIRTUAL_HCI_MODE
  89:C:/Users/stapi/OneDrive/Desktop/GD32VW553/GD32VW55X_Wifi_BLE_SDK/GD32VW55x_RELEASE_V1.0.2/MSDK/ble/app\ble_init.c **** extern void tkl_virtual_hci_init(void);
  90:C:/Users/stapi/OneDrive/Desktop/GD32VW553/GD32VW55X_Wifi_BLE_SDK/GD32VW55x_RELEASE_V1.0.2/MSDK/ble/app\ble_init.c **** #else
  91:C:/Users/stapi/OneDrive/Desktop/GD32VW553/GD32VW55X_Wifi_BLE_SDK/GD32VW55x_RELEASE_V1.0.2/MSDK/ble/app\ble_init.c **** extern void tuya_adp_init(uint8_t role);
  92:C:/Users/stapi/OneDrive/Desktop/GD32VW553/GD32VW55X_Wifi_BLE_SDK/GD32VW55x_RELEASE_V1.0.2/MSDK/ble/app\ble_init.c **** #endif
  93:C:/Users/stapi/OneDrive/Desktop/GD32VW553/GD32VW55X_Wifi_BLE_SDK/GD32VW55x_RELEASE_V1.0.2/MSDK/ble/app\ble_init.c **** #endif
  94:C:/Users/stapi/OneDrive/Desktop/GD32VW553/GD32VW55X_Wifi_BLE_SDK/GD32VW55x_RELEASE_V1.0.2/MSDK/ble/app\ble_init.c **** 
  95:C:/Users/stapi/OneDrive/Desktop/GD32VW553/GD32VW55X_Wifi_BLE_SDK/GD32VW55x_RELEASE_V1.0.2/MSDK/ble/app\ble_init.c **** #ifdef CFG_COEX
  96:C:/Users/stapi/OneDrive/Desktop/GD32VW553/GD32VW55X_Wifi_BLE_SDK/GD32VW55x_RELEASE_V1.0.2/MSDK/ble/app\ble_init.c **** typedef void (*coex_ble_evt_notify)(uint32_t evt_start, uint32_t evt_window, uint32_t iso_evt);
  97:C:/Users/stapi/OneDrive/Desktop/GD32VW553/GD32VW55X_Wifi_BLE_SDK/GD32VW55x_RELEASE_V1.0.2/MSDK/ble/app\ble_init.c **** extern void ble_coex_evt_notify_register(coex_ble_evt_notify func);
  98:C:/Users/stapi/OneDrive/Desktop/GD32VW553/GD32VW55X_Wifi_BLE_SDK/GD32VW55x_RELEASE_V1.0.2/MSDK/ble/app\ble_init.c **** extern void coex_ble_event_notify(uint32_t event_start, uint32_t event_window, uint32_t iso_event);
  99:C:/Users/stapi/OneDrive/Desktop/GD32VW553/GD32VW55X_Wifi_BLE_SDK/GD32VW55x_RELEASE_V1.0.2/MSDK/ble/app\ble_init.c **** #endif
 100:C:/Users/stapi/OneDrive/Desktop/GD32VW553/GD32VW55X_Wifi_BLE_SDK/GD32VW55x_RELEASE_V1.0.2/MSDK/ble/app\ble_init.c **** 
 101:C:/Users/stapi/OneDrive/Desktop/GD32VW553/GD32VW55X_Wifi_BLE_SDK/GD32VW55x_RELEASE_V1.0.2/MSDK/ble/app\ble_init.c **** /* Definitions of the different BLE task priorities */
 102:C:/Users/stapi/OneDrive/Desktop/GD32VW553/GD32VW55X_Wifi_BLE_SDK/GD32VW55x_RELEASE_V1.0.2/MSDK/ble/app\ble_init.c **** enum
 103:C:/Users/stapi/OneDrive/Desktop/GD32VW553/GD32VW55X_Wifi_BLE_SDK/GD32VW55x_RELEASE_V1.0.2/MSDK/ble/app\ble_init.c **** {
 104:C:/Users/stapi/OneDrive/Desktop/GD32VW553/GD32VW55X_Wifi_BLE_SDK/GD32VW55x_RELEASE_V1.0.2/MSDK/ble/app\ble_init.c ****     BLE_STACK_TASK_PRIORITY = OS_TASK_PRIORITY(2),      /*!< Priority of the BLE stack task */
 105:C:/Users/stapi/OneDrive/Desktop/GD32VW553/GD32VW55X_Wifi_BLE_SDK/GD32VW55x_RELEASE_V1.0.2/MSDK/ble/app\ble_init.c ****     BLE_APP_TASK_PRIORITY   = OS_TASK_PRIORITY(1),      /*!< Priority of the BLE APP task */
 106:C:/Users/stapi/OneDrive/Desktop/GD32VW553/GD32VW55X_Wifi_BLE_SDK/GD32VW55x_RELEASE_V1.0.2/MSDK/ble/app\ble_init.c **** };
 107:C:/Users/stapi/OneDrive/Desktop/GD32VW553/GD32VW55X_Wifi_BLE_SDK/GD32VW55x_RELEASE_V1.0.2/MSDK/ble/app\ble_init.c **** 
 108:C:/Users/stapi/OneDrive/Desktop/GD32VW553/GD32VW55X_Wifi_BLE_SDK/GD32VW55x_RELEASE_V1.0.2/MSDK/ble/app\ble_init.c **** /* Definitions of the different BLE task stack size requirements */
 109:C:/Users/stapi/OneDrive/Desktop/GD32VW553/GD32VW55X_Wifi_BLE_SDK/GD32VW55x_RELEASE_V1.0.2/MSDK/ble/app\ble_init.c **** enum
 110:C:/Users/stapi/OneDrive/Desktop/GD32VW553/GD32VW55X_Wifi_BLE_SDK/GD32VW55x_RELEASE_V1.0.2/MSDK/ble/app\ble_init.c **** {
 111:C:/Users/stapi/OneDrive/Desktop/GD32VW553/GD32VW55X_Wifi_BLE_SDK/GD32VW55x_RELEASE_V1.0.2/MSDK/ble/app\ble_init.c ****     BLE_STACK_TASK_STACK_SIZE = 768,        /*!< BLE stack task stack size */
 112:C:/Users/stapi/OneDrive/Desktop/GD32VW553/GD32VW55X_Wifi_BLE_SDK/GD32VW55x_RELEASE_V1.0.2/MSDK/ble/app\ble_init.c ****     BLE_APP_TASK_STACK_SIZE   = 512,        /*!< BLE APP task stack size */
 113:C:/Users/stapi/OneDrive/Desktop/GD32VW553/GD32VW55X_Wifi_BLE_SDK/GD32VW55x_RELEASE_V1.0.2/MSDK/ble/app\ble_init.c **** };
 114:C:/Users/stapi/OneDrive/Desktop/GD32VW553/GD32VW55X_Wifi_BLE_SDK/GD32VW55x_RELEASE_V1.0.2/MSDK/ble/app\ble_init.c **** 
 115:C:/Users/stapi/OneDrive/Desktop/GD32VW553/GD32VW55X_Wifi_BLE_SDK/GD32VW55x_RELEASE_V1.0.2/MSDK/ble/app\ble_init.c **** /* BLE sleep mode when flash erase need to execute */
 116:C:/Users/stapi/OneDrive/Desktop/GD32VW553/GD32VW55X_Wifi_BLE_SDK/GD32VW55x_RELEASE_V1.0.2/MSDK/ble/app\ble_init.c **** uint8_t flash_erase_sleep_mode = 0;
 117:C:/Users/stapi/OneDrive/Desktop/GD32VW553/GD32VW55X_Wifi_BLE_SDK/GD32VW55x_RELEASE_V1.0.2/MSDK/ble/app\ble_init.c **** 
 118:C:/Users/stapi/OneDrive/Desktop/GD32VW553/GD32VW55X_Wifi_BLE_SDK/GD32VW55x_RELEASE_V1.0.2/MSDK/ble/app\ble_init.c **** /* Semaphore signaled when all BLE tasks are ready */
 119:C:/Users/stapi/OneDrive/Desktop/GD32VW553/GD32VW55X_Wifi_BLE_SDK/GD32VW55x_RELEASE_V1.0.2/MSDK/ble/app\ble_init.c **** static os_sema_t ble_ready_sem;
 120:C:/Users/stapi/OneDrive/Desktop/GD32VW553/GD32VW55X_Wifi_BLE_SDK/GD32VW55x_RELEASE_V1.0.2/MSDK/ble/app\ble_init.c **** 
 121:C:/Users/stapi/OneDrive/Desktop/GD32VW553/GD32VW55X_Wifi_BLE_SDK/GD32VW55x_RELEASE_V1.0.2/MSDK/ble/app\ble_init.c **** /*!
 122:C:/Users/stapi/OneDrive/Desktop/GD32VW553/GD32VW55X_Wifi_BLE_SDK/GD32VW55x_RELEASE_V1.0.2/MSDK/ble/app\ble_init.c ****     \brief      Function to notify other modules that BLE is in ready state
 123:C:/Users/stapi/OneDrive/Desktop/GD32VW553/GD32VW55X_Wifi_BLE_SDK/GD32VW55x_RELEASE_V1.0.2/MSDK/ble/app\ble_init.c ****     \param[in]  none
 124:C:/Users/stapi/OneDrive/Desktop/GD32VW553/GD32VW55X_Wifi_BLE_SDK/GD32VW55x_RELEASE_V1.0.2/MSDK/ble/app\ble_init.c ****     \param[out] none
 125:C:/Users/stapi/OneDrive/Desktop/GD32VW553/GD32VW55X_Wifi_BLE_SDK/GD32VW55x_RELEASE_V1.0.2/MSDK/ble/app\ble_init.c ****     \retval     none
 126:C:/Users/stapi/OneDrive/Desktop/GD32VW553/GD32VW55X_Wifi_BLE_SDK/GD32VW55x_RELEASE_V1.0.2/MSDK/ble/app\ble_init.c **** */
 127:C:/Users/stapi/OneDrive/Desktop/GD32VW553/GD32VW55X_Wifi_BLE_SDK/GD32VW55x_RELEASE_V1.0.2/MSDK/ble/app\ble_init.c **** void ble_task_ready(void)
 128:C:/Users/stapi/OneDrive/Desktop/GD32VW553/GD32VW55X_Wifi_BLE_SDK/GD32VW55x_RELEASE_V1.0.2/MSDK/ble/app\ble_init.c **** {
 129:C:/Users/stapi/OneDrive/Desktop/GD32VW553/GD32VW55X_Wifi_BLE_SDK/GD32VW55x_RELEASE_V1.0.2/MSDK/ble/app\ble_init.c ****     sys_sema_up(&ble_ready_sem);
 130:C:/Users/stapi/OneDrive/Desktop/GD32VW553/GD32VW55X_Wifi_BLE_SDK/GD32VW55x_RELEASE_V1.0.2/MSDK/ble/app\ble_init.c **** }
 131:C:/Users/stapi/OneDrive/Desktop/GD32VW553/GD32VW55X_Wifi_BLE_SDK/GD32VW55x_RELEASE_V1.0.2/MSDK/ble/app\ble_init.c **** 
 132:C:/Users/stapi/OneDrive/Desktop/GD32VW553/GD32VW55X_Wifi_BLE_SDK/GD32VW55x_RELEASE_V1.0.2/MSDK/ble/app\ble_init.c **** /*!
 133:C:/Users/stapi/OneDrive/Desktop/GD32VW553/GD32VW55X_Wifi_BLE_SDK/GD32VW55x_RELEASE_V1.0.2/MSDK/ble/app\ble_init.c ****     \brief      Function for other modules to wait BLE into ready state
 134:C:/Users/stapi/OneDrive/Desktop/GD32VW553/GD32VW55X_Wifi_BLE_SDK/GD32VW55x_RELEASE_V1.0.2/MSDK/ble/app\ble_init.c ****     \param[in]  none
 135:C:/Users/stapi/OneDrive/Desktop/GD32VW553/GD32VW55X_Wifi_BLE_SDK/GD32VW55x_RELEASE_V1.0.2/MSDK/ble/app\ble_init.c ****     \param[out] none
 136:C:/Users/stapi/OneDrive/Desktop/GD32VW553/GD32VW55X_Wifi_BLE_SDK/GD32VW55x_RELEASE_V1.0.2/MSDK/ble/app\ble_init.c ****     \retval     int: 0 if successfully enter wait state, otherwise -1
 137:C:/Users/stapi/OneDrive/Desktop/GD32VW553/GD32VW55X_Wifi_BLE_SDK/GD32VW55x_RELEASE_V1.0.2/MSDK/ble/app\ble_init.c **** */
 138:C:/Users/stapi/OneDrive/Desktop/GD32VW553/GD32VW55X_Wifi_BLE_SDK/GD32VW55x_RELEASE_V1.0.2/MSDK/ble/app\ble_init.c **** int ble_wait_ready(void)
 139:C:/Users/stapi/OneDrive/Desktop/GD32VW553/GD32VW55X_Wifi_BLE_SDK/GD32VW55x_RELEASE_V1.0.2/MSDK/ble/app\ble_init.c **** {
 140:C:/Users/stapi/OneDrive/Desktop/GD32VW553/GD32VW55X_Wifi_BLE_SDK/GD32VW55x_RELEASE_V1.0.2/MSDK/ble/app\ble_init.c ****     if (ble_ready_sem == NULL)
 141:C:/Users/stapi/OneDrive/Desktop/GD32VW553/GD32VW55X_Wifi_BLE_SDK/GD32VW55x_RELEASE_V1.0.2/MSDK/ble/app\ble_init.c ****         return -1;
 142:C:/Users/stapi/OneDrive/Desktop/GD32VW553/GD32VW55X_Wifi_BLE_SDK/GD32VW55x_RELEASE_V1.0.2/MSDK/ble/app\ble_init.c **** 
 143:C:/Users/stapi/OneDrive/Desktop/GD32VW553/GD32VW55X_Wifi_BLE_SDK/GD32VW55x_RELEASE_V1.0.2/MSDK/ble/app\ble_init.c ****     if (sys_sema_down(&ble_ready_sem, 0))
 144:C:/Users/stapi/OneDrive/Desktop/GD32VW553/GD32VW55X_Wifi_BLE_SDK/GD32VW55x_RELEASE_V1.0.2/MSDK/ble/app\ble_init.c ****         return -1;
 145:C:/Users/stapi/OneDrive/Desktop/GD32VW553/GD32VW55X_Wifi_BLE_SDK/GD32VW55x_RELEASE_V1.0.2/MSDK/ble/app\ble_init.c **** 
 146:C:/Users/stapi/OneDrive/Desktop/GD32VW553/GD32VW55X_Wifi_BLE_SDK/GD32VW55x_RELEASE_V1.0.2/MSDK/ble/app\ble_init.c ****     // always re-signal the semaphore in case it is called by several tasks.
 147:C:/Users/stapi/OneDrive/Desktop/GD32VW553/GD32VW55X_Wifi_BLE_SDK/GD32VW55x_RELEASE_V1.0.2/MSDK/ble/app\ble_init.c ****     sys_sema_up(&ble_ready_sem);
 148:C:/Users/stapi/OneDrive/Desktop/GD32VW553/GD32VW55X_Wifi_BLE_SDK/GD32VW55x_RELEASE_V1.0.2/MSDK/ble/app\ble_init.c ****     return 0;
 149:C:/Users/stapi/OneDrive/Desktop/GD32VW553/GD32VW55X_Wifi_BLE_SDK/GD32VW55x_RELEASE_V1.0.2/MSDK/ble/app\ble_init.c **** }
 150:C:/Users/stapi/OneDrive/Desktop/GD32VW553/GD32VW55X_Wifi_BLE_SDK/GD32VW55x_RELEASE_V1.0.2/MSDK/ble/app\ble_init.c **** 
 151:C:/Users/stapi/OneDrive/Desktop/GD32VW553/GD32VW55X_Wifi_BLE_SDK/GD32VW55x_RELEASE_V1.0.2/MSDK/ble/app\ble_init.c **** /*!
 152:C:/Users/stapi/OneDrive/Desktop/GD32VW553/GD32VW55X_Wifi_BLE_SDK/GD32VW55x_RELEASE_V1.0.2/MSDK/ble/app\ble_init.c ****     \brief      Function to handle before/after flash erase execute
 153:C:/Users/stapi/OneDrive/Desktop/GD32VW553/GD32VW55X_Wifi_BLE_SDK/GD32VW55x_RELEASE_V1.0.2/MSDK/ble/app\ble_init.c ****     \param[in]  type: erase handle type
 154:C:/Users/stapi/OneDrive/Desktop/GD32VW553/GD32VW55X_Wifi_BLE_SDK/GD32VW55x_RELEASE_V1.0.2/MSDK/ble/app\ble_init.c ****     \param[out] none
 155:C:/Users/stapi/OneDrive/Desktop/GD32VW553/GD32VW55X_Wifi_BLE_SDK/GD32VW55x_RELEASE_V1.0.2/MSDK/ble/app\ble_init.c ****     \retval     none
 156:C:/Users/stapi/OneDrive/Desktop/GD32VW553/GD32VW55X_Wifi_BLE_SDK/GD32VW55x_RELEASE_V1.0.2/MSDK/ble/app\ble_init.c **** */
 157:C:/Users/stapi/OneDrive/Desktop/GD32VW553/GD32VW55X_Wifi_BLE_SDK/GD32VW55x_RELEASE_V1.0.2/MSDK/ble/app\ble_init.c **** void ble_flash_erase_handler(raw_erase_type_t type)
 158:C:/Users/stapi/OneDrive/Desktop/GD32VW553/GD32VW55X_Wifi_BLE_SDK/GD32VW55x_RELEASE_V1.0.2/MSDK/ble/app\ble_init.c **** {
  16              		.loc 1 158 1
  17              		.cfi_startproc
  18              	.LVL0:
  19 0000 17030000 		call	t0,__riscv_save_0
  19      E7020300 
  20              		.cfi_offset 1, -4
  21              		.cfi_def_cfa_offset 16
 159:C:/Users/stapi/OneDrive/Desktop/GD32VW553/GD32VW55X_Wifi_BLE_SDK/GD32VW55x_RELEASE_V1.0.2/MSDK/ble/app\ble_init.c ****     if (type == RAW_FLASH_ERASE_BLE_PRE_HANDLE) {
  22              		.loc 1 159 5
  23              		.loc 1 159 8 is_stmt 0
  24 0008 0DED     		bne	a0,zero,.L2
 160:C:/Users/stapi/OneDrive/Desktop/GD32VW553/GD32VW55X_Wifi_BLE_SDK/GD32VW55x_RELEASE_V1.0.2/MSDK/ble/app\ble_init.c ****         flash_erase_sleep_mode = ble_sleep_mode_get();
  25              		.loc 1 160 9 is_stmt 1
  26              		.loc 1 160 34 is_stmt 0
  27 000a 97000000 		call	ble_sleep_mode_get
  27      E7800000 
  28              	.LVL1:
  29              		.loc 1 160 32
  30 0012 B7070000 		lui	a5,%hi(.LANCHOR0)
  31 0016 2380A700 		sb	a0,%lo(.LANCHOR0)(a5)
 161:C:/Users/stapi/OneDrive/Desktop/GD32VW553/GD32VW55X_Wifi_BLE_SDK/GD32VW55x_RELEASE_V1.0.2/MSDK/ble/app\ble_init.c ****         if (flash_erase_sleep_mode != 0) {
  32              		.loc 1 161 9 is_stmt 1
  33              		.loc 1 161 12 is_stmt 0
  34 001a 05C1     		beq	a0,zero,.L1
  35              	.LVL2:
  36              	.LBB4:
  37              	.LBB5:
 162:C:/Users/stapi/OneDrive/Desktop/GD32VW553/GD32VW55X_Wifi_BLE_SDK/GD32VW55x_RELEASE_V1.0.2/MSDK/ble/app\ble_init.c ****             ble_sleep_mode_set(0);
  38              		.loc 1 162 13 is_stmt 1
  39 001c 0145     		li	a0,0
  40 001e 97000000 		call	ble_sleep_mode_set
  40      E7800000 
  41              	.LVL3:
 163:C:/Users/stapi/OneDrive/Desktop/GD32VW553/GD32VW55X_Wifi_BLE_SDK/GD32VW55x_RELEASE_V1.0.2/MSDK/ble/app\ble_init.c ****             ble_stack_task_resume(false);
  42              		.loc 1 163 13
  43 0026 0145     		li	a0,0
  44 0028 97000000 		call	ble_stack_task_resume
  44      E7800000 
  45              	.LVL4:
 164:C:/Users/stapi/OneDrive/Desktop/GD32VW553/GD32VW55X_Wifi_BLE_SDK/GD32VW55x_RELEASE_V1.0.2/MSDK/ble/app\ble_init.c ****             // wait ble pmu on, timeout 10ms
 165:C:/Users/stapi/OneDrive/Desktop/GD32VW553/GD32VW55X_Wifi_BLE_SDK/GD32VW55x_RELEASE_V1.0.2/MSDK/ble/app\ble_init.c ****             ble_wait_pmu_on(10);
  46              		.loc 1 165 13
  47 0030 2945     		li	a0,10
  48 0032 97000000 		call	ble_wait_pmu_on
  48      E7800000 
  49              	.LVL5:
 166:C:/Users/stapi/OneDrive/Desktop/GD32VW553/GD32VW55X_Wifi_BLE_SDK/GD32VW55x_RELEASE_V1.0.2/MSDK/ble/app\ble_init.c ****         }
 167:C:/Users/stapi/OneDrive/Desktop/GD32VW553/GD32VW55X_Wifi_BLE_SDK/GD32VW55x_RELEASE_V1.0.2/MSDK/ble/app\ble_init.c ****     } else if (type == RAW_FLASH_ERASE_BLE_AFTER_HANDLE) {
 168:C:/Users/stapi/OneDrive/Desktop/GD32VW553/GD32VW55X_Wifi_BLE_SDK/GD32VW55x_RELEASE_V1.0.2/MSDK/ble/app\ble_init.c ****         if (flash_erase_sleep_mode != 0) {
 169:C:/Users/stapi/OneDrive/Desktop/GD32VW553/GD32VW55X_Wifi_BLE_SDK/GD32VW55x_RELEASE_V1.0.2/MSDK/ble/app\ble_init.c ****             ble_sleep_mode_set(flash_erase_sleep_mode);
 170:C:/Users/stapi/OneDrive/Desktop/GD32VW553/GD32VW55X_Wifi_BLE_SDK/GD32VW55x_RELEASE_V1.0.2/MSDK/ble/app\ble_init.c ****         }
 171:C:/Users/stapi/OneDrive/Desktop/GD32VW553/GD32VW55X_Wifi_BLE_SDK/GD32VW55x_RELEASE_V1.0.2/MSDK/ble/app\ble_init.c ****     }
 172:C:/Users/stapi/OneDrive/Desktop/GD32VW553/GD32VW55X_Wifi_BLE_SDK/GD32VW55x_RELEASE_V1.0.2/MSDK/ble/app\ble_init.c **** 
 173:C:/Users/stapi/OneDrive/Desktop/GD32VW553/GD32VW55X_Wifi_BLE_SDK/GD32VW55x_RELEASE_V1.0.2/MSDK/ble/app\ble_init.c ****     return;
  50              		.loc 1 173 5
  51              	.L1:
  52              	.LBE5:
  53              	.LBE4:
 174:C:/Users/stapi/OneDrive/Desktop/GD32VW553/GD32VW55X_Wifi_BLE_SDK/GD32VW55x_RELEASE_V1.0.2/MSDK/ble/app\ble_init.c **** }
  54              		.loc 1 174 1 is_stmt 0
  55 003a 17030000 		tail	__riscv_restore_0
  55      67000300 
  56              		.cfi_remember_state
  57              		.cfi_restore 1
  58              		.cfi_def_cfa_offset 0
  59              	.LVL6:
  60              	.L2:
  61              		.cfi_restore_state
 167:C:/Users/stapi/OneDrive/Desktop/GD32VW553/GD32VW55X_Wifi_BLE_SDK/GD32VW55x_RELEASE_V1.0.2/MSDK/ble/app\ble_init.c ****         if (flash_erase_sleep_mode != 0) {
  62              		.loc 1 167 12 is_stmt 1
 167:C:/Users/stapi/OneDrive/Desktop/GD32VW553/GD32VW55X_Wifi_BLE_SDK/GD32VW55x_RELEASE_V1.0.2/MSDK/ble/app\ble_init.c ****         if (flash_erase_sleep_mode != 0) {
  63              		.loc 1 167 15 is_stmt 0
  64 0042 8547     		li	a5,1
  65 0044 E31BF5FE 		bne	a0,a5,.L1
 168:C:/Users/stapi/OneDrive/Desktop/GD32VW553/GD32VW55X_Wifi_BLE_SDK/GD32VW55x_RELEASE_V1.0.2/MSDK/ble/app\ble_init.c ****             ble_sleep_mode_set(flash_erase_sleep_mode);
  66              		.loc 1 168 9 is_stmt 1
 168:C:/Users/stapi/OneDrive/Desktop/GD32VW553/GD32VW55X_Wifi_BLE_SDK/GD32VW55x_RELEASE_V1.0.2/MSDK/ble/app\ble_init.c ****             ble_sleep_mode_set(flash_erase_sleep_mode);
  67              		.loc 1 168 36 is_stmt 0
  68 0048 B7070000 		lui	a5,%hi(.LANCHOR0)
  69 004c 03C50700 		lbu	a0,%lo(.LANCHOR0)(a5)
  70              	.LVL7:
 168:C:/Users/stapi/OneDrive/Desktop/GD32VW553/GD32VW55X_Wifi_BLE_SDK/GD32VW55x_RELEASE_V1.0.2/MSDK/ble/app\ble_init.c ****             ble_sleep_mode_set(flash_erase_sleep_mode);
  71              		.loc 1 168 12
  72 0050 6DD5     		beq	a0,zero,.L1
 169:C:/Users/stapi/OneDrive/Desktop/GD32VW553/GD32VW55X_Wifi_BLE_SDK/GD32VW55x_RELEASE_V1.0.2/MSDK/ble/app\ble_init.c ****         }
  73              		.loc 1 169 13 is_stmt 1
  74 0052 97000000 		call	ble_sleep_mode_set
  74      E7800000 
  75              	.LVL8:
 173:C:/Users/stapi/OneDrive/Desktop/GD32VW553/GD32VW55X_Wifi_BLE_SDK/GD32VW55x_RELEASE_V1.0.2/MSDK/ble/app\ble_init.c **** }
  76              		.loc 1 173 5
  77 005a C5B7     		j	.L1
  78              		.cfi_endproc
  79              	.LFE7:
  81              		.section	.text.ble_task_ready,"ax",@progbits
  82              		.align	1
  83              		.globl	ble_task_ready
  85              	ble_task_ready:
  86              	.LFB5:
 128:C:/Users/stapi/OneDrive/Desktop/GD32VW553/GD32VW55X_Wifi_BLE_SDK/GD32VW55x_RELEASE_V1.0.2/MSDK/ble/app\ble_init.c ****     sys_sema_up(&ble_ready_sem);
  87              		.loc 1 128 1
  88              		.cfi_startproc
 129:C:/Users/stapi/OneDrive/Desktop/GD32VW553/GD32VW55X_Wifi_BLE_SDK/GD32VW55x_RELEASE_V1.0.2/MSDK/ble/app\ble_init.c **** }
  89              		.loc 1 129 5
  90 0000 37050000 		lui	a0,%hi(.LANCHOR1)
  91 0004 13050500 		addi	a0,a0,%lo(.LANCHOR1)
  92 0008 17030000 		tail	sys_sema_up
  92      67000300 
  93              	.LVL9:
  94              		.cfi_endproc
  95              	.LFE5:
  97              		.section	.text.ble_wait_ready,"ax",@progbits
  98              		.align	1
  99              		.globl	ble_wait_ready
 101              	ble_wait_ready:
 102              	.LFB6:
 139:C:/Users/stapi/OneDrive/Desktop/GD32VW553/GD32VW55X_Wifi_BLE_SDK/GD32VW55x_RELEASE_V1.0.2/MSDK/ble/app\ble_init.c ****     if (ble_ready_sem == NULL)
 103              		.loc 1 139 1
 104              		.cfi_startproc
 105 0000 17030000 		call	t0,__riscv_save_2
 105      E7020300 
 106              		.cfi_offset 9, -12
 107              		.cfi_offset 8, -8
 108              		.cfi_offset 1, -4
 109              		.cfi_def_cfa_offset 16
 140:C:/Users/stapi/OneDrive/Desktop/GD32VW553/GD32VW55X_Wifi_BLE_SDK/GD32VW55x_RELEASE_V1.0.2/MSDK/ble/app\ble_init.c ****         return -1;
 110              		.loc 1 140 5
 140:C:/Users/stapi/OneDrive/Desktop/GD32VW553/GD32VW55X_Wifi_BLE_SDK/GD32VW55x_RELEASE_V1.0.2/MSDK/ble/app\ble_init.c ****         return -1;
 111              		.loc 1 140 23 is_stmt 0
 112 0008 B7040000 		lui	s1,%hi(.LANCHOR1)
 140:C:/Users/stapi/OneDrive/Desktop/GD32VW553/GD32VW55X_Wifi_BLE_SDK/GD32VW55x_RELEASE_V1.0.2/MSDK/ble/app\ble_init.c ****         return -1;
 113              		.loc 1 140 8
 114 000c 83A70400 		lw	a5,%lo(.LANCHOR1)(s1)
 115 0010 99E7     		bne	a5,zero,.L13
 116              	.L15:
 141:C:/Users/stapi/OneDrive/Desktop/GD32VW553/GD32VW55X_Wifi_BLE_SDK/GD32VW55x_RELEASE_V1.0.2/MSDK/ble/app\ble_init.c **** 
 117              		.loc 1 141 16
 118 0012 7D54     		li	s0,-1
 119              	.L12:
 149:C:/Users/stapi/OneDrive/Desktop/GD32VW553/GD32VW55X_Wifi_BLE_SDK/GD32VW55x_RELEASE_V1.0.2/MSDK/ble/app\ble_init.c **** 
 120              		.loc 1 149 1
 121 0014 2285     		mv	a0,s0
 122 0016 17030000 		tail	__riscv_restore_2
 122      67000300 
 123              		.cfi_remember_state
 124              		.cfi_restore 9
 125              		.cfi_restore 8
 126              		.cfi_restore 1
 127              		.cfi_def_cfa_offset 0
 128              	.L13:
 129              		.cfi_restore_state
 143:C:/Users/stapi/OneDrive/Desktop/GD32VW553/GD32VW55X_Wifi_BLE_SDK/GD32VW55x_RELEASE_V1.0.2/MSDK/ble/app\ble_init.c ****         return -1;
 130              		.loc 1 143 5 is_stmt 1
 143:C:/Users/stapi/OneDrive/Desktop/GD32VW553/GD32VW55X_Wifi_BLE_SDK/GD32VW55x_RELEASE_V1.0.2/MSDK/ble/app\ble_init.c ****         return -1;
 131              		.loc 1 143 9 is_stmt 0
 132 001e 8145     		li	a1,0
 133 0020 13850400 		addi	a0,s1,%lo(.LANCHOR1)
 134 0024 97000000 		call	sys_sema_down
 134      E7800000 
 135              	.LVL10:
 136 002c 2A84     		mv	s0,a0
 143:C:/Users/stapi/OneDrive/Desktop/GD32VW553/GD32VW55X_Wifi_BLE_SDK/GD32VW55x_RELEASE_V1.0.2/MSDK/ble/app\ble_init.c ****         return -1;
 137              		.loc 1 143 8
 138 002e 75F1     		bne	a0,zero,.L15
 147:C:/Users/stapi/OneDrive/Desktop/GD32VW553/GD32VW55X_Wifi_BLE_SDK/GD32VW55x_RELEASE_V1.0.2/MSDK/ble/app\ble_init.c ****     return 0;
 139              		.loc 1 147 5 is_stmt 1
 140 0030 13850400 		addi	a0,s1,%lo(.LANCHOR1)
 141 0034 97000000 		call	sys_sema_up
 141      E7800000 
 142              	.LVL11:
 148:C:/Users/stapi/OneDrive/Desktop/GD32VW553/GD32VW55X_Wifi_BLE_SDK/GD32VW55x_RELEASE_V1.0.2/MSDK/ble/app\ble_init.c **** }
 143              		.loc 1 148 5
 148:C:/Users/stapi/OneDrive/Desktop/GD32VW553/GD32VW55X_Wifi_BLE_SDK/GD32VW55x_RELEASE_V1.0.2/MSDK/ble/app\ble_init.c **** }
 144              		.loc 1 148 12 is_stmt 0
 145 003c E1BF     		j	.L12
 146              		.cfi_endproc
 147              	.LFE6:
 149              		.section	.rodata.ble_module_init.str1.4,"aMS",@progbits,1
 150              		.align	2
 151              	.LC1:
 152 0000 61646170 		.string	"adapter init fail! check and restart again or reload image if necessary\r\n"
 152      74657220 
 152      696E6974 
 152      20666169 
 152      6C212063 
 153              		.section	.text.ble_module_init,"ax",@progbits
 154              		.align	1
 155              		.globl	ble_module_init
 157              	ble_module_init:
 158              	.LFB10:
 175:C:/Users/stapi/OneDrive/Desktop/GD32VW553/GD32VW55X_Wifi_BLE_SDK/GD32VW55x_RELEASE_V1.0.2/MSDK/ble/app\ble_init.c **** 
 176:C:/Users/stapi/OneDrive/Desktop/GD32VW553/GD32VW55X_Wifi_BLE_SDK/GD32VW55x_RELEASE_V1.0.2/MSDK/ble/app\ble_init.c **** /*!
 177:C:/Users/stapi/OneDrive/Desktop/GD32VW553/GD32VW55X_Wifi_BLE_SDK/GD32VW55x_RELEASE_V1.0.2/MSDK/ble/app\ble_init.c ****     \brief      Init BLE stack task and BLE APP task
 178:C:/Users/stapi/OneDrive/Desktop/GD32VW553/GD32VW55X_Wifi_BLE_SDK/GD32VW55x_RELEASE_V1.0.2/MSDK/ble/app\ble_init.c ****     \param[in]  none
 179:C:/Users/stapi/OneDrive/Desktop/GD32VW553/GD32VW55X_Wifi_BLE_SDK/GD32VW55x_RELEASE_V1.0.2/MSDK/ble/app\ble_init.c ****     \param[out] none
 180:C:/Users/stapi/OneDrive/Desktop/GD32VW553/GD32VW55X_Wifi_BLE_SDK/GD32VW55x_RELEASE_V1.0.2/MSDK/ble/app\ble_init.c ****     \retval     none
 181:C:/Users/stapi/OneDrive/Desktop/GD32VW553/GD32VW55X_Wifi_BLE_SDK/GD32VW55x_RELEASE_V1.0.2/MSDK/ble/app\ble_init.c **** */
 182:C:/Users/stapi/OneDrive/Desktop/GD32VW553/GD32VW55X_Wifi_BLE_SDK/GD32VW55x_RELEASE_V1.0.2/MSDK/ble/app\ble_init.c **** static void ble_task_init(void)
 183:C:/Users/stapi/OneDrive/Desktop/GD32VW553/GD32VW55X_Wifi_BLE_SDK/GD32VW55x_RELEASE_V1.0.2/MSDK/ble/app\ble_init.c **** {
 184:C:/Users/stapi/OneDrive/Desktop/GD32VW553/GD32VW55X_Wifi_BLE_SDK/GD32VW55x_RELEASE_V1.0.2/MSDK/ble/app\ble_init.c ****     ble_stack_task_init(BLE_STACK_TASK_STACK_SIZE, BLE_STACK_TASK_PRIORITY);
 185:C:/Users/stapi/OneDrive/Desktop/GD32VW553/GD32VW55X_Wifi_BLE_SDK/GD32VW55x_RELEASE_V1.0.2/MSDK/ble/app\ble_init.c **** 
 186:C:/Users/stapi/OneDrive/Desktop/GD32VW553/GD32VW55X_Wifi_BLE_SDK/GD32VW55x_RELEASE_V1.0.2/MSDK/ble/app\ble_init.c **** #if (BLE_APP_SUPPORT)
 187:C:/Users/stapi/OneDrive/Desktop/GD32VW553/GD32VW55X_Wifi_BLE_SDK/GD32VW55x_RELEASE_V1.0.2/MSDK/ble/app\ble_init.c ****     ble_app_task_init(BLE_APP_TASK_STACK_SIZE, BLE_APP_TASK_PRIORITY);
 188:C:/Users/stapi/OneDrive/Desktop/GD32VW553/GD32VW55X_Wifi_BLE_SDK/GD32VW55x_RELEASE_V1.0.2/MSDK/ble/app\ble_init.c **** #endif
 189:C:/Users/stapi/OneDrive/Desktop/GD32VW553/GD32VW55X_Wifi_BLE_SDK/GD32VW55x_RELEASE_V1.0.2/MSDK/ble/app\ble_init.c **** 
 190:C:/Users/stapi/OneDrive/Desktop/GD32VW553/GD32VW55X_Wifi_BLE_SDK/GD32VW55x_RELEASE_V1.0.2/MSDK/ble/app\ble_init.c ****     sys_sema_init_ext(&ble_ready_sem, 1, 0);
 191:C:/Users/stapi/OneDrive/Desktop/GD32VW553/GD32VW55X_Wifi_BLE_SDK/GD32VW55x_RELEASE_V1.0.2/MSDK/ble/app\ble_init.c **** }
 192:C:/Users/stapi/OneDrive/Desktop/GD32VW553/GD32VW55X_Wifi_BLE_SDK/GD32VW55x_RELEASE_V1.0.2/MSDK/ble/app\ble_init.c **** 
 193:C:/Users/stapi/OneDrive/Desktop/GD32VW553/GD32VW55X_Wifi_BLE_SDK/GD32VW55x_RELEASE_V1.0.2/MSDK/ble/app\ble_init.c **** /*!
 194:C:/Users/stapi/OneDrive/Desktop/GD32VW553/GD32VW55X_Wifi_BLE_SDK/GD32VW55x_RELEASE_V1.0.2/MSDK/ble/app\ble_init.c ****     \brief      Deinit BLE stack task and BLE APP task
 195:C:/Users/stapi/OneDrive/Desktop/GD32VW553/GD32VW55X_Wifi_BLE_SDK/GD32VW55x_RELEASE_V1.0.2/MSDK/ble/app\ble_init.c ****     \param[in]  none
 196:C:/Users/stapi/OneDrive/Desktop/GD32VW553/GD32VW55X_Wifi_BLE_SDK/GD32VW55x_RELEASE_V1.0.2/MSDK/ble/app\ble_init.c ****     \param[out] none
 197:C:/Users/stapi/OneDrive/Desktop/GD32VW553/GD32VW55X_Wifi_BLE_SDK/GD32VW55x_RELEASE_V1.0.2/MSDK/ble/app\ble_init.c ****     \retval     none
 198:C:/Users/stapi/OneDrive/Desktop/GD32VW553/GD32VW55X_Wifi_BLE_SDK/GD32VW55x_RELEASE_V1.0.2/MSDK/ble/app\ble_init.c **** */
 199:C:/Users/stapi/OneDrive/Desktop/GD32VW553/GD32VW55X_Wifi_BLE_SDK/GD32VW55x_RELEASE_V1.0.2/MSDK/ble/app\ble_init.c **** static void ble_task_deinit(void)
 200:C:/Users/stapi/OneDrive/Desktop/GD32VW553/GD32VW55X_Wifi_BLE_SDK/GD32VW55x_RELEASE_V1.0.2/MSDK/ble/app\ble_init.c **** {
 201:C:/Users/stapi/OneDrive/Desktop/GD32VW553/GD32VW55X_Wifi_BLE_SDK/GD32VW55x_RELEASE_V1.0.2/MSDK/ble/app\ble_init.c ****     sys_sema_free(&ble_ready_sem);
 202:C:/Users/stapi/OneDrive/Desktop/GD32VW553/GD32VW55X_Wifi_BLE_SDK/GD32VW55x_RELEASE_V1.0.2/MSDK/ble/app\ble_init.c **** 
 203:C:/Users/stapi/OneDrive/Desktop/GD32VW553/GD32VW55X_Wifi_BLE_SDK/GD32VW55x_RELEASE_V1.0.2/MSDK/ble/app\ble_init.c ****     ble_stack_task_deinit();
 204:C:/Users/stapi/OneDrive/Desktop/GD32VW553/GD32VW55X_Wifi_BLE_SDK/GD32VW55x_RELEASE_V1.0.2/MSDK/ble/app\ble_init.c **** 
 205:C:/Users/stapi/OneDrive/Desktop/GD32VW553/GD32VW55X_Wifi_BLE_SDK/GD32VW55x_RELEASE_V1.0.2/MSDK/ble/app\ble_init.c **** #if (BLE_APP_SUPPORT)
 206:C:/Users/stapi/OneDrive/Desktop/GD32VW553/GD32VW55X_Wifi_BLE_SDK/GD32VW55x_RELEASE_V1.0.2/MSDK/ble/app\ble_init.c ****     ble_app_task_deinit();
 207:C:/Users/stapi/OneDrive/Desktop/GD32VW553/GD32VW55X_Wifi_BLE_SDK/GD32VW55x_RELEASE_V1.0.2/MSDK/ble/app\ble_init.c **** #endif
 208:C:/Users/stapi/OneDrive/Desktop/GD32VW553/GD32VW55X_Wifi_BLE_SDK/GD32VW55x_RELEASE_V1.0.2/MSDK/ble/app\ble_init.c **** }
 209:C:/Users/stapi/OneDrive/Desktop/GD32VW553/GD32VW55X_Wifi_BLE_SDK/GD32VW55x_RELEASE_V1.0.2/MSDK/ble/app\ble_init.c **** 
 210:C:/Users/stapi/OneDrive/Desktop/GD32VW553/GD32VW55X_Wifi_BLE_SDK/GD32VW55x_RELEASE_V1.0.2/MSDK/ble/app\ble_init.c **** #if (BLE_APP_SUPPORT)
 211:C:/Users/stapi/OneDrive/Desktop/GD32VW553/GD32VW55X_Wifi_BLE_SDK/GD32VW55x_RELEASE_V1.0.2/MSDK/ble/app\ble_init.c **** /*!
 212:C:/Users/stapi/OneDrive/Desktop/GD32VW553/GD32VW55X_Wifi_BLE_SDK/GD32VW55x_RELEASE_V1.0.2/MSDK/ble/app\ble_init.c ****     \brief      Init BLE component modules needed
 213:C:/Users/stapi/OneDrive/Desktop/GD32VW553/GD32VW55X_Wifi_BLE_SDK/GD32VW55x_RELEASE_V1.0.2/MSDK/ble/app\ble_init.c ****     \param[in]  none
 214:C:/Users/stapi/OneDrive/Desktop/GD32VW553/GD32VW55X_Wifi_BLE_SDK/GD32VW55x_RELEASE_V1.0.2/MSDK/ble/app\ble_init.c ****     \param[out] none
 215:C:/Users/stapi/OneDrive/Desktop/GD32VW553/GD32VW55X_Wifi_BLE_SDK/GD32VW55x_RELEASE_V1.0.2/MSDK/ble/app\ble_init.c ****     \retval     none
 216:C:/Users/stapi/OneDrive/Desktop/GD32VW553/GD32VW55X_Wifi_BLE_SDK/GD32VW55x_RELEASE_V1.0.2/MSDK/ble/app\ble_init.c **** */
 217:C:/Users/stapi/OneDrive/Desktop/GD32VW553/GD32VW55X_Wifi_BLE_SDK/GD32VW55x_RELEASE_V1.0.2/MSDK/ble/app\ble_init.c **** void ble_module_init(void)
 218:C:/Users/stapi/OneDrive/Desktop/GD32VW553/GD32VW55X_Wifi_BLE_SDK/GD32VW55x_RELEASE_V1.0.2/MSDK/ble/app\ble_init.c **** {
 159              		.loc 1 218 1 is_stmt 1
 160              		.cfi_startproc
 161 0000 17030000 		call	t0,__riscv_save_0
 161      E7020300 
 162              		.cfi_offset 1, -4
 163              		.cfi_def_cfa_offset 16
 219:C:/Users/stapi/OneDrive/Desktop/GD32VW553/GD32VW55X_Wifi_BLE_SDK/GD32VW55x_RELEASE_V1.0.2/MSDK/ble/app\ble_init.c ****     ble_storage_init();
 164              		.loc 1 219 5
 165 0008 97000000 		call	ble_storage_init
 165      E7800000 
 166              	.LVL12:
 220:C:/Users/stapi/OneDrive/Desktop/GD32VW553/GD32VW55X_Wifi_BLE_SDK/GD32VW55x_RELEASE_V1.0.2/MSDK/ble/app\ble_init.c **** 
 221:C:/Users/stapi/OneDrive/Desktop/GD32VW553/GD32VW55X_Wifi_BLE_SDK/GD32VW55x_RELEASE_V1.0.2/MSDK/ble/app\ble_init.c ****     if (ble_adp_init() != BLE_ERR_NO_ERROR) {
 167              		.loc 1 221 5
 168              		.loc 1 221 9 is_stmt 0
 169 0010 97000000 		call	ble_adp_init
 169      E7800000 
 170              	.LVL13:
 171              		.loc 1 221 8
 172 0018 05C5     		beq	a0,zero,.L18
 222:C:/Users/stapi/OneDrive/Desktop/GD32VW553/GD32VW55X_Wifi_BLE_SDK/GD32VW55x_RELEASE_V1.0.2/MSDK/ble/app\ble_init.c ****         dbg_print(NOTICE, "adapter init fail! check and restart again or reload image if necessary\
 173              		.loc 1 222 9 is_stmt 1
 174              		.loc 1 222 9
 175 001a B7070000 		lui	a5,%hi(global_debug_level)
 176 001e 03C70700 		lbu	a4,%lo(global_debug_level)(a5)
 177 0022 8947     		li	a5,2
 178 0024 63FAE700 		bleu	a4,a5,.L17
 179              		.loc 1 222 9 discriminator 1
 180 0028 37050000 		lui	a0,%hi(.LC1)
 181 002c 13050500 		addi	a0,a0,%lo(.LC1)
 182 0030 97000000 		call	co_printf
 182      E7800000 
 183              	.LVL14:
 184              	.L17:
 223:C:/Users/stapi/OneDrive/Desktop/GD32VW553/GD32VW55X_Wifi_BLE_SDK/GD32VW55x_RELEASE_V1.0.2/MSDK/ble/app\ble_init.c ****         return;
 224:C:/Users/stapi/OneDrive/Desktop/GD32VW553/GD32VW55X_Wifi_BLE_SDK/GD32VW55x_RELEASE_V1.0.2/MSDK/ble/app\ble_init.c ****     }
 225:C:/Users/stapi/OneDrive/Desktop/GD32VW553/GD32VW55X_Wifi_BLE_SDK/GD32VW55x_RELEASE_V1.0.2/MSDK/ble/app\ble_init.c **** 
 226:C:/Users/stapi/OneDrive/Desktop/GD32VW553/GD32VW55X_Wifi_BLE_SDK/GD32VW55x_RELEASE_V1.0.2/MSDK/ble/app\ble_init.c **** #if (BLE_CFG_ROLE & (BLE_CFG_ROLE_BROADCASTER | BLE_CFG_ROLE_PERIPHERAL))
 227:C:/Users/stapi/OneDrive/Desktop/GD32VW553/GD32VW55X_Wifi_BLE_SDK/GD32VW55x_RELEASE_V1.0.2/MSDK/ble/app\ble_init.c ****     ble_adv_init();
 228:C:/Users/stapi/OneDrive/Desktop/GD32VW553/GD32VW55X_Wifi_BLE_SDK/GD32VW55x_RELEASE_V1.0.2/MSDK/ble/app\ble_init.c **** #endif
 229:C:/Users/stapi/OneDrive/Desktop/GD32VW553/GD32VW55X_Wifi_BLE_SDK/GD32VW55x_RELEASE_V1.0.2/MSDK/ble/app\ble_init.c **** 
 230:C:/Users/stapi/OneDrive/Desktop/GD32VW553/GD32VW55X_Wifi_BLE_SDK/GD32VW55x_RELEASE_V1.0.2/MSDK/ble/app\ble_init.c **** #if (BLE_CFG_ROLE & (BLE_CFG_ROLE_OBSERVER | BLE_CFG_ROLE_CENTRAL))
 231:C:/Users/stapi/OneDrive/Desktop/GD32VW553/GD32VW55X_Wifi_BLE_SDK/GD32VW55x_RELEASE_V1.0.2/MSDK/ble/app\ble_init.c ****     ble_scan_init(BLE_GAP_LOCAL_ADDR_STATIC);
 232:C:/Users/stapi/OneDrive/Desktop/GD32VW553/GD32VW55X_Wifi_BLE_SDK/GD32VW55x_RELEASE_V1.0.2/MSDK/ble/app\ble_init.c **** #endif
 233:C:/Users/stapi/OneDrive/Desktop/GD32VW553/GD32VW55X_Wifi_BLE_SDK/GD32VW55x_RELEASE_V1.0.2/MSDK/ble/app\ble_init.c **** 
 234:C:/Users/stapi/OneDrive/Desktop/GD32VW553/GD32VW55X_Wifi_BLE_SDK/GD32VW55x_RELEASE_V1.0.2/MSDK/ble/app\ble_init.c **** #if (BLE_CFG_ROLE & (BLE_CFG_ROLE_PERIPHERAL | BLE_CFG_ROLE_CENTRAL))
 235:C:/Users/stapi/OneDrive/Desktop/GD32VW553/GD32VW55X_Wifi_BLE_SDK/GD32VW55x_RELEASE_V1.0.2/MSDK/ble/app\ble_init.c ****     ble_sec_init();
 236:C:/Users/stapi/OneDrive/Desktop/GD32VW553/GD32VW55X_Wifi_BLE_SDK/GD32VW55x_RELEASE_V1.0.2/MSDK/ble/app\ble_init.c ****     ble_l2cap_init();
 237:C:/Users/stapi/OneDrive/Desktop/GD32VW553/GD32VW55X_Wifi_BLE_SDK/GD32VW55x_RELEASE_V1.0.2/MSDK/ble/app\ble_init.c ****     ble_conn_init();
 238:C:/Users/stapi/OneDrive/Desktop/GD32VW553/GD32VW55X_Wifi_BLE_SDK/GD32VW55x_RELEASE_V1.0.2/MSDK/ble/app\ble_init.c **** #endif
 239:C:/Users/stapi/OneDrive/Desktop/GD32VW553/GD32VW55X_Wifi_BLE_SDK/GD32VW55x_RELEASE_V1.0.2/MSDK/ble/app\ble_init.c **** 
 240:C:/Users/stapi/OneDrive/Desktop/GD32VW553/GD32VW55X_Wifi_BLE_SDK/GD32VW55x_RELEASE_V1.0.2/MSDK/ble/app\ble_init.c **** #if (BLE_CFG_ROLE & (BLE_CFG_ROLE_PERIPHERAL | BLE_CFG_ROLE_CENTRAL))
 241:C:/Users/stapi/OneDrive/Desktop/GD32VW553/GD32VW55X_Wifi_BLE_SDK/GD32VW55x_RELEASE_V1.0.2/MSDK/ble/app\ble_init.c ****     ble_gatts_init();
 242:C:/Users/stapi/OneDrive/Desktop/GD32VW553/GD32VW55X_Wifi_BLE_SDK/GD32VW55x_RELEASE_V1.0.2/MSDK/ble/app\ble_init.c **** #if (BLE_APP_GATT_CLIENT_SUPPORT)
 243:C:/Users/stapi/OneDrive/Desktop/GD32VW553/GD32VW55X_Wifi_BLE_SDK/GD32VW55x_RELEASE_V1.0.2/MSDK/ble/app\ble_init.c ****     ble_gattc_init();
 244:C:/Users/stapi/OneDrive/Desktop/GD32VW553/GD32VW55X_Wifi_BLE_SDK/GD32VW55x_RELEASE_V1.0.2/MSDK/ble/app\ble_init.c **** #if (BLE_APP_GATTC_CO_ITF_SUPPORT)
 245:C:/Users/stapi/OneDrive/Desktop/GD32VW553/GD32VW55X_Wifi_BLE_SDK/GD32VW55x_RELEASE_V1.0.2/MSDK/ble/app\ble_init.c ****     ble_gattc_co_init();
 246:C:/Users/stapi/OneDrive/Desktop/GD32VW553/GD32VW55X_Wifi_BLE_SDK/GD32VW55x_RELEASE_V1.0.2/MSDK/ble/app\ble_init.c **** #endif
 247:C:/Users/stapi/OneDrive/Desktop/GD32VW553/GD32VW55X_Wifi_BLE_SDK/GD32VW55x_RELEASE_V1.0.2/MSDK/ble/app\ble_init.c **** #endif
 248:C:/Users/stapi/OneDrive/Desktop/GD32VW553/GD32VW55X_Wifi_BLE_SDK/GD32VW55x_RELEASE_V1.0.2/MSDK/ble/app\ble_init.c **** #endif
 249:C:/Users/stapi/OneDrive/Desktop/GD32VW553/GD32VW55X_Wifi_BLE_SDK/GD32VW55x_RELEASE_V1.0.2/MSDK/ble/app\ble_init.c **** 
 250:C:/Users/stapi/OneDrive/Desktop/GD32VW553/GD32VW55X_Wifi_BLE_SDK/GD32VW55x_RELEASE_V1.0.2/MSDK/ble/app\ble_init.c **** }
 185              		.loc 1 250 1 is_stmt 0
 186 0038 17030000 		tail	__riscv_restore_0
 186      67000300 
 187              		.cfi_remember_state
 188              		.cfi_restore 1
 189              		.cfi_def_cfa_offset 0
 190              	.L18:
 191              		.cfi_restore_state
 192              	.LBB8:
 193              	.LBB9:
 227:C:/Users/stapi/OneDrive/Desktop/GD32VW553/GD32VW55X_Wifi_BLE_SDK/GD32VW55x_RELEASE_V1.0.2/MSDK/ble/app\ble_init.c **** #endif
 194              		.loc 1 227 5 is_stmt 1
 195 0040 97000000 		call	ble_adv_init
 195      E7800000 
 196              	.LVL15:
 231:C:/Users/stapi/OneDrive/Desktop/GD32VW553/GD32VW55X_Wifi_BLE_SDK/GD32VW55x_RELEASE_V1.0.2/MSDK/ble/app\ble_init.c **** #endif
 197              		.loc 1 231 5
 198 0048 0145     		li	a0,0
 199 004a 97000000 		call	ble_scan_init
 199      E7800000 
 200              	.LVL16:
 235:C:/Users/stapi/OneDrive/Desktop/GD32VW553/GD32VW55X_Wifi_BLE_SDK/GD32VW55x_RELEASE_V1.0.2/MSDK/ble/app\ble_init.c ****     ble_l2cap_init();
 201              		.loc 1 235 5
 202 0052 97000000 		call	ble_sec_init
 202      E7800000 
 203              	.LVL17:
 236:C:/Users/stapi/OneDrive/Desktop/GD32VW553/GD32VW55X_Wifi_BLE_SDK/GD32VW55x_RELEASE_V1.0.2/MSDK/ble/app\ble_init.c ****     ble_conn_init();
 204              		.loc 1 236 5
 205 005a 97000000 		call	ble_l2cap_init
 205      E7800000 
 206              	.LVL18:
 237:C:/Users/stapi/OneDrive/Desktop/GD32VW553/GD32VW55X_Wifi_BLE_SDK/GD32VW55x_RELEASE_V1.0.2/MSDK/ble/app\ble_init.c **** #endif
 207              		.loc 1 237 5
 208 0062 97000000 		call	ble_conn_init
 208      E7800000 
 209              	.LVL19:
 241:C:/Users/stapi/OneDrive/Desktop/GD32VW553/GD32VW55X_Wifi_BLE_SDK/GD32VW55x_RELEASE_V1.0.2/MSDK/ble/app\ble_init.c **** #if (BLE_APP_GATT_CLIENT_SUPPORT)
 210              		.loc 1 241 5
 211 006a 97000000 		call	ble_gatts_init
 211      E7800000 
 212              	.LVL20:
 243:C:/Users/stapi/OneDrive/Desktop/GD32VW553/GD32VW55X_Wifi_BLE_SDK/GD32VW55x_RELEASE_V1.0.2/MSDK/ble/app\ble_init.c **** #if (BLE_APP_GATTC_CO_ITF_SUPPORT)
 213              		.loc 1 243 5
 214 0072 97000000 		call	ble_gattc_init
 214      E7800000 
 215              	.LVL21:
 216 007a 7DBF     		j	.L17
 217              	.LBE9:
 218              	.LBE8:
 219              		.cfi_endproc
 220              	.LFE10:
 222              		.section	.text.ble_profile_init,"ax",@progbits
 223              		.align	1
 224              		.globl	ble_profile_init
 226              	ble_profile_init:
 227              	.LFB11:
 251:C:/Users/stapi/OneDrive/Desktop/GD32VW553/GD32VW55X_Wifi_BLE_SDK/GD32VW55x_RELEASE_V1.0.2/MSDK/ble/app\ble_init.c **** 
 252:C:/Users/stapi/OneDrive/Desktop/GD32VW553/GD32VW55X_Wifi_BLE_SDK/GD32VW55x_RELEASE_V1.0.2/MSDK/ble/app\ble_init.c **** /*!
 253:C:/Users/stapi/OneDrive/Desktop/GD32VW553/GD32VW55X_Wifi_BLE_SDK/GD32VW55x_RELEASE_V1.0.2/MSDK/ble/app\ble_init.c ****     \brief      Init BLE profiles needed
 254:C:/Users/stapi/OneDrive/Desktop/GD32VW553/GD32VW55X_Wifi_BLE_SDK/GD32VW55x_RELEASE_V1.0.2/MSDK/ble/app\ble_init.c ****     \param[in]  none
 255:C:/Users/stapi/OneDrive/Desktop/GD32VW553/GD32VW55X_Wifi_BLE_SDK/GD32VW55x_RELEASE_V1.0.2/MSDK/ble/app\ble_init.c ****     \param[out] none
 256:C:/Users/stapi/OneDrive/Desktop/GD32VW553/GD32VW55X_Wifi_BLE_SDK/GD32VW55x_RELEASE_V1.0.2/MSDK/ble/app\ble_init.c ****     \retval     none
 257:C:/Users/stapi/OneDrive/Desktop/GD32VW553/GD32VW55X_Wifi_BLE_SDK/GD32VW55x_RELEASE_V1.0.2/MSDK/ble/app\ble_init.c **** */
 258:C:/Users/stapi/OneDrive/Desktop/GD32VW553/GD32VW55X_Wifi_BLE_SDK/GD32VW55x_RELEASE_V1.0.2/MSDK/ble/app\ble_init.c **** void ble_profile_init(void)
 259:C:/Users/stapi/OneDrive/Desktop/GD32VW553/GD32VW55X_Wifi_BLE_SDK/GD32VW55x_RELEASE_V1.0.2/MSDK/ble/app\ble_init.c **** {
 228              		.loc 1 259 1
 229              		.cfi_startproc
 230 0000 17030000 		call	t0,__riscv_save_0
 230      E7020300 
 231              		.cfi_offset 1, -4
 232              		.cfi_def_cfa_offset 16
 260:C:/Users/stapi/OneDrive/Desktop/GD32VW553/GD32VW55X_Wifi_BLE_SDK/GD32VW55x_RELEASE_V1.0.2/MSDK/ble/app\ble_init.c **** #if BLE_PROFILE_DIS_SERVER
 261:C:/Users/stapi/OneDrive/Desktop/GD32VW553/GD32VW55X_Wifi_BLE_SDK/GD32VW55x_RELEASE_V1.0.2/MSDK/ble/app\ble_init.c ****     ble_app_diss_init();
 233              		.loc 1 261 5
 234 0008 97000000 		call	ble_app_diss_init
 234      E7800000 
 235              	.LVL22:
 262:C:/Users/stapi/OneDrive/Desktop/GD32VW553/GD32VW55X_Wifi_BLE_SDK/GD32VW55x_RELEASE_V1.0.2/MSDK/ble/app\ble_init.c **** #endif
 263:C:/Users/stapi/OneDrive/Desktop/GD32VW553/GD32VW55X_Wifi_BLE_SDK/GD32VW55x_RELEASE_V1.0.2/MSDK/ble/app\ble_init.c **** 
 264:C:/Users/stapi/OneDrive/Desktop/GD32VW553/GD32VW55X_Wifi_BLE_SDK/GD32VW55x_RELEASE_V1.0.2/MSDK/ble/app\ble_init.c **** #if BLE_PROFILE_SAMPLE_SERVER
 265:C:/Users/stapi/OneDrive/Desktop/GD32VW553/GD32VW55X_Wifi_BLE_SDK/GD32VW55x_RELEASE_V1.0.2/MSDK/ble/app\ble_init.c ****     ble_sample_srv_init();
 266:C:/Users/stapi/OneDrive/Desktop/GD32VW553/GD32VW55X_Wifi_BLE_SDK/GD32VW55x_RELEASE_V1.0.2/MSDK/ble/app\ble_init.c **** #endif
 267:C:/Users/stapi/OneDrive/Desktop/GD32VW553/GD32VW55X_Wifi_BLE_SDK/GD32VW55x_RELEASE_V1.0.2/MSDK/ble/app\ble_init.c **** 
 268:C:/Users/stapi/OneDrive/Desktop/GD32VW553/GD32VW55X_Wifi_BLE_SDK/GD32VW55x_RELEASE_V1.0.2/MSDK/ble/app\ble_init.c **** #if BLE_PROFILE_SAMPLE_CLIENT
 269:C:/Users/stapi/OneDrive/Desktop/GD32VW553/GD32VW55X_Wifi_BLE_SDK/GD32VW55x_RELEASE_V1.0.2/MSDK/ble/app\ble_init.c ****     ble_sample_cli_init();
 270:C:/Users/stapi/OneDrive/Desktop/GD32VW553/GD32VW55X_Wifi_BLE_SDK/GD32VW55x_RELEASE_V1.0.2/MSDK/ble/app\ble_init.c **** #endif
 271:C:/Users/stapi/OneDrive/Desktop/GD32VW553/GD32VW55X_Wifi_BLE_SDK/GD32VW55x_RELEASE_V1.0.2/MSDK/ble/app\ble_init.c **** 
 272:C:/Users/stapi/OneDrive/Desktop/GD32VW553/GD32VW55X_Wifi_BLE_SDK/GD32VW55x_RELEASE_V1.0.2/MSDK/ble/app\ble_init.c **** #if BLE_PROFILE_HPS_SERVER
 273:C:/Users/stapi/OneDrive/Desktop/GD32VW553/GD32VW55X_Wifi_BLE_SDK/GD32VW55x_RELEASE_V1.0.2/MSDK/ble/app\ble_init.c ****     app_hpss_init();
 274:C:/Users/stapi/OneDrive/Desktop/GD32VW553/GD32VW55X_Wifi_BLE_SDK/GD32VW55x_RELEASE_V1.0.2/MSDK/ble/app\ble_init.c **** #endif
 275:C:/Users/stapi/OneDrive/Desktop/GD32VW553/GD32VW55X_Wifi_BLE_SDK/GD32VW55x_RELEASE_V1.0.2/MSDK/ble/app\ble_init.c **** 
 276:C:/Users/stapi/OneDrive/Desktop/GD32VW553/GD32VW55X_Wifi_BLE_SDK/GD32VW55x_RELEASE_V1.0.2/MSDK/ble/app\ble_init.c **** #if BLE_PROFILE_HPS_CLIENT
 277:C:/Users/stapi/OneDrive/Desktop/GD32VW553/GD32VW55X_Wifi_BLE_SDK/GD32VW55x_RELEASE_V1.0.2/MSDK/ble/app\ble_init.c ****     app_hpsc_init();
 278:C:/Users/stapi/OneDrive/Desktop/GD32VW553/GD32VW55X_Wifi_BLE_SDK/GD32VW55x_RELEASE_V1.0.2/MSDK/ble/app\ble_init.c **** #endif
 279:C:/Users/stapi/OneDrive/Desktop/GD32VW553/GD32VW55X_Wifi_BLE_SDK/GD32VW55x_RELEASE_V1.0.2/MSDK/ble/app\ble_init.c **** 
 280:C:/Users/stapi/OneDrive/Desktop/GD32VW553/GD32VW55X_Wifi_BLE_SDK/GD32VW55x_RELEASE_V1.0.2/MSDK/ble/app\ble_init.c **** #if BLE_PROFILE_PROX_SERVER
 281:C:/Users/stapi/OneDrive/Desktop/GD32VW553/GD32VW55X_Wifi_BLE_SDK/GD32VW55x_RELEASE_V1.0.2/MSDK/ble/app\ble_init.c ****     app_prox_rpt_init();
 282:C:/Users/stapi/OneDrive/Desktop/GD32VW553/GD32VW55X_Wifi_BLE_SDK/GD32VW55x_RELEASE_V1.0.2/MSDK/ble/app\ble_init.c **** #endif
 283:C:/Users/stapi/OneDrive/Desktop/GD32VW553/GD32VW55X_Wifi_BLE_SDK/GD32VW55x_RELEASE_V1.0.2/MSDK/ble/app\ble_init.c **** 
 284:C:/Users/stapi/OneDrive/Desktop/GD32VW553/GD32VW55X_Wifi_BLE_SDK/GD32VW55x_RELEASE_V1.0.2/MSDK/ble/app\ble_init.c **** #if BLE_PROFILE_PROX_CLIENT
 285:C:/Users/stapi/OneDrive/Desktop/GD32VW553/GD32VW55X_Wifi_BLE_SDK/GD32VW55x_RELEASE_V1.0.2/MSDK/ble/app\ble_init.c ****     app_proxm_init();
 286:C:/Users/stapi/OneDrive/Desktop/GD32VW553/GD32VW55X_Wifi_BLE_SDK/GD32VW55x_RELEASE_V1.0.2/MSDK/ble/app\ble_init.c **** #endif
 287:C:/Users/stapi/OneDrive/Desktop/GD32VW553/GD32VW55X_Wifi_BLE_SDK/GD32VW55x_RELEASE_V1.0.2/MSDK/ble/app\ble_init.c **** 
 288:C:/Users/stapi/OneDrive/Desktop/GD32VW553/GD32VW55X_Wifi_BLE_SDK/GD32VW55x_RELEASE_V1.0.2/MSDK/ble/app\ble_init.c **** #if BLE_PROFILE_THROUGHPUT_SERVER
 289:C:/Users/stapi/OneDrive/Desktop/GD32VW553/GD32VW55X_Wifi_BLE_SDK/GD32VW55x_RELEASE_V1.0.2/MSDK/ble/app\ble_init.c ****     ble_throughput_srv_init();
 290:C:/Users/stapi/OneDrive/Desktop/GD32VW553/GD32VW55X_Wifi_BLE_SDK/GD32VW55x_RELEASE_V1.0.2/MSDK/ble/app\ble_init.c **** #endif
 291:C:/Users/stapi/OneDrive/Desktop/GD32VW553/GD32VW55X_Wifi_BLE_SDK/GD32VW55x_RELEASE_V1.0.2/MSDK/ble/app\ble_init.c **** 
 292:C:/Users/stapi/OneDrive/Desktop/GD32VW553/GD32VW55X_Wifi_BLE_SDK/GD32VW55x_RELEASE_V1.0.2/MSDK/ble/app\ble_init.c **** #if BLE_PROFILE_THROUGHPUT_CLIENT
 293:C:/Users/stapi/OneDrive/Desktop/GD32VW553/GD32VW55X_Wifi_BLE_SDK/GD32VW55x_RELEASE_V1.0.2/MSDK/ble/app\ble_init.c ****     ble_throughput_cli_init();
 294:C:/Users/stapi/OneDrive/Desktop/GD32VW553/GD32VW55X_Wifi_BLE_SDK/GD32VW55x_RELEASE_V1.0.2/MSDK/ble/app\ble_init.c **** #endif
 295:C:/Users/stapi/OneDrive/Desktop/GD32VW553/GD32VW55X_Wifi_BLE_SDK/GD32VW55x_RELEASE_V1.0.2/MSDK/ble/app\ble_init.c **** 
 296:C:/Users/stapi/OneDrive/Desktop/GD32VW553/GD32VW55X_Wifi_BLE_SDK/GD32VW55x_RELEASE_V1.0.2/MSDK/ble/app\ble_init.c **** #if BLE_PROFILE_BAS_SERVER
 297:C:/Users/stapi/OneDrive/Desktop/GD32VW553/GD32VW55X_Wifi_BLE_SDK/GD32VW55x_RELEASE_V1.0.2/MSDK/ble/app\ble_init.c ****     ble_app_bass_init();
 298:C:/Users/stapi/OneDrive/Desktop/GD32VW553/GD32VW55X_Wifi_BLE_SDK/GD32VW55x_RELEASE_V1.0.2/MSDK/ble/app\ble_init.c **** #endif
 299:C:/Users/stapi/OneDrive/Desktop/GD32VW553/GD32VW55X_Wifi_BLE_SDK/GD32VW55x_RELEASE_V1.0.2/MSDK/ble/app\ble_init.c **** 
 300:C:/Users/stapi/OneDrive/Desktop/GD32VW553/GD32VW55X_Wifi_BLE_SDK/GD32VW55x_RELEASE_V1.0.2/MSDK/ble/app\ble_init.c **** #if BLE_PROFILE_CSCS_SERVER
 301:C:/Users/stapi/OneDrive/Desktop/GD32VW553/GD32VW55X_Wifi_BLE_SDK/GD32VW55x_RELEASE_V1.0.2/MSDK/ble/app\ble_init.c ****     ble_app_cscss_init();
 302:C:/Users/stapi/OneDrive/Desktop/GD32VW553/GD32VW55X_Wifi_BLE_SDK/GD32VW55x_RELEASE_V1.0.2/MSDK/ble/app\ble_init.c **** #endif
 303:C:/Users/stapi/OneDrive/Desktop/GD32VW553/GD32VW55X_Wifi_BLE_SDK/GD32VW55x_RELEASE_V1.0.2/MSDK/ble/app\ble_init.c **** 
 304:C:/Users/stapi/OneDrive/Desktop/GD32VW553/GD32VW55X_Wifi_BLE_SDK/GD32VW55x_RELEASE_V1.0.2/MSDK/ble/app\ble_init.c **** #if BLE_PROFILE_BLUE_COURIER_SERVER
 305:C:/Users/stapi/OneDrive/Desktop/GD32VW553/GD32VW55X_Wifi_BLE_SDK/GD32VW55x_RELEASE_V1.0.2/MSDK/ble/app\ble_init.c ****     app_blue_courier_init();
 236              		.loc 1 305 5
 237 0010 97000000 		call	app_blue_courier_init
 237      E7800000 
 238              	.LVL23:
 306:C:/Users/stapi/OneDrive/Desktop/GD32VW553/GD32VW55X_Wifi_BLE_SDK/GD32VW55x_RELEASE_V1.0.2/MSDK/ble/app\ble_init.c **** #endif
 307:C:/Users/stapi/OneDrive/Desktop/GD32VW553/GD32VW55X_Wifi_BLE_SDK/GD32VW55x_RELEASE_V1.0.2/MSDK/ble/app\ble_init.c **** }
 239              		.loc 1 307 1 is_stmt 0
 240 0018 17030000 		tail	__riscv_restore_0
 240      67000300 
 241              		.cfi_restore 1
 242              		.cfi_def_cfa_offset 0
 243              		.cfi_endproc
 244              	.LFE11:
 246              		.section	.text.ble_profile_deinit,"ax",@progbits
 247              		.align	1
 248              		.globl	ble_profile_deinit
 250              	ble_profile_deinit:
 251              	.LFB12:
 308:C:/Users/stapi/OneDrive/Desktop/GD32VW553/GD32VW55X_Wifi_BLE_SDK/GD32VW55x_RELEASE_V1.0.2/MSDK/ble/app\ble_init.c **** 
 309:C:/Users/stapi/OneDrive/Desktop/GD32VW553/GD32VW55X_Wifi_BLE_SDK/GD32VW55x_RELEASE_V1.0.2/MSDK/ble/app\ble_init.c **** /*!
 310:C:/Users/stapi/OneDrive/Desktop/GD32VW553/GD32VW55X_Wifi_BLE_SDK/GD32VW55x_RELEASE_V1.0.2/MSDK/ble/app\ble_init.c ****     \brief      Deinit BLE profiles
 311:C:/Users/stapi/OneDrive/Desktop/GD32VW553/GD32VW55X_Wifi_BLE_SDK/GD32VW55x_RELEASE_V1.0.2/MSDK/ble/app\ble_init.c ****     \param[in]  none
 312:C:/Users/stapi/OneDrive/Desktop/GD32VW553/GD32VW55X_Wifi_BLE_SDK/GD32VW55x_RELEASE_V1.0.2/MSDK/ble/app\ble_init.c ****     \param[out] none
 313:C:/Users/stapi/OneDrive/Desktop/GD32VW553/GD32VW55X_Wifi_BLE_SDK/GD32VW55x_RELEASE_V1.0.2/MSDK/ble/app\ble_init.c ****     \retval     none
 314:C:/Users/stapi/OneDrive/Desktop/GD32VW553/GD32VW55X_Wifi_BLE_SDK/GD32VW55x_RELEASE_V1.0.2/MSDK/ble/app\ble_init.c **** */
 315:C:/Users/stapi/OneDrive/Desktop/GD32VW553/GD32VW55X_Wifi_BLE_SDK/GD32VW55x_RELEASE_V1.0.2/MSDK/ble/app\ble_init.c **** void ble_profile_deinit(void)
 316:C:/Users/stapi/OneDrive/Desktop/GD32VW553/GD32VW55X_Wifi_BLE_SDK/GD32VW55x_RELEASE_V1.0.2/MSDK/ble/app\ble_init.c **** {
 252              		.loc 1 316 1 is_stmt 1
 253              		.cfi_startproc
 254 0000 17030000 		call	t0,__riscv_save_0
 254      E7020300 
 255              		.cfi_offset 1, -4
 256              		.cfi_def_cfa_offset 16
 317:C:/Users/stapi/OneDrive/Desktop/GD32VW553/GD32VW55X_Wifi_BLE_SDK/GD32VW55x_RELEASE_V1.0.2/MSDK/ble/app\ble_init.c **** #if BLE_PROFILE_DIS_SERVER
 318:C:/Users/stapi/OneDrive/Desktop/GD32VW553/GD32VW55X_Wifi_BLE_SDK/GD32VW55x_RELEASE_V1.0.2/MSDK/ble/app\ble_init.c ****     ble_app_diss_deinit();
 257              		.loc 1 318 5
 258 0008 97000000 		call	ble_app_diss_deinit
 258      E7800000 
 259              	.LVL24:
 319:C:/Users/stapi/OneDrive/Desktop/GD32VW553/GD32VW55X_Wifi_BLE_SDK/GD32VW55x_RELEASE_V1.0.2/MSDK/ble/app\ble_init.c **** #endif
 320:C:/Users/stapi/OneDrive/Desktop/GD32VW553/GD32VW55X_Wifi_BLE_SDK/GD32VW55x_RELEASE_V1.0.2/MSDK/ble/app\ble_init.c **** 
 321:C:/Users/stapi/OneDrive/Desktop/GD32VW553/GD32VW55X_Wifi_BLE_SDK/GD32VW55x_RELEASE_V1.0.2/MSDK/ble/app\ble_init.c **** #if BLE_PROFILE_SAMPLE_SERVER
 322:C:/Users/stapi/OneDrive/Desktop/GD32VW553/GD32VW55X_Wifi_BLE_SDK/GD32VW55x_RELEASE_V1.0.2/MSDK/ble/app\ble_init.c ****     ble_sample_srv_deinit();
 323:C:/Users/stapi/OneDrive/Desktop/GD32VW553/GD32VW55X_Wifi_BLE_SDK/GD32VW55x_RELEASE_V1.0.2/MSDK/ble/app\ble_init.c **** #endif
 324:C:/Users/stapi/OneDrive/Desktop/GD32VW553/GD32VW55X_Wifi_BLE_SDK/GD32VW55x_RELEASE_V1.0.2/MSDK/ble/app\ble_init.c **** 
 325:C:/Users/stapi/OneDrive/Desktop/GD32VW553/GD32VW55X_Wifi_BLE_SDK/GD32VW55x_RELEASE_V1.0.2/MSDK/ble/app\ble_init.c **** #if BLE_PROFILE_SAMPLE_CLIENT
 326:C:/Users/stapi/OneDrive/Desktop/GD32VW553/GD32VW55X_Wifi_BLE_SDK/GD32VW55x_RELEASE_V1.0.2/MSDK/ble/app\ble_init.c ****     ble_sample_cli_deinit();
 327:C:/Users/stapi/OneDrive/Desktop/GD32VW553/GD32VW55X_Wifi_BLE_SDK/GD32VW55x_RELEASE_V1.0.2/MSDK/ble/app\ble_init.c **** #endif
 328:C:/Users/stapi/OneDrive/Desktop/GD32VW553/GD32VW55X_Wifi_BLE_SDK/GD32VW55x_RELEASE_V1.0.2/MSDK/ble/app\ble_init.c **** 
 329:C:/Users/stapi/OneDrive/Desktop/GD32VW553/GD32VW55X_Wifi_BLE_SDK/GD32VW55x_RELEASE_V1.0.2/MSDK/ble/app\ble_init.c **** #if BLE_PROFILE_THROUGHPUT_SERVER
 330:C:/Users/stapi/OneDrive/Desktop/GD32VW553/GD32VW55X_Wifi_BLE_SDK/GD32VW55x_RELEASE_V1.0.2/MSDK/ble/app\ble_init.c ****     ble_throughput_srv_deinit();
 331:C:/Users/stapi/OneDrive/Desktop/GD32VW553/GD32VW55X_Wifi_BLE_SDK/GD32VW55x_RELEASE_V1.0.2/MSDK/ble/app\ble_init.c **** #endif
 332:C:/Users/stapi/OneDrive/Desktop/GD32VW553/GD32VW55X_Wifi_BLE_SDK/GD32VW55x_RELEASE_V1.0.2/MSDK/ble/app\ble_init.c **** 
 333:C:/Users/stapi/OneDrive/Desktop/GD32VW553/GD32VW55X_Wifi_BLE_SDK/GD32VW55x_RELEASE_V1.0.2/MSDK/ble/app\ble_init.c **** #if BLE_PROFILE_THROUGHPUT_CLIENT
 334:C:/Users/stapi/OneDrive/Desktop/GD32VW553/GD32VW55X_Wifi_BLE_SDK/GD32VW55x_RELEASE_V1.0.2/MSDK/ble/app\ble_init.c ****     ble_throughput_cli_deinit();
 335:C:/Users/stapi/OneDrive/Desktop/GD32VW553/GD32VW55X_Wifi_BLE_SDK/GD32VW55x_RELEASE_V1.0.2/MSDK/ble/app\ble_init.c **** #endif
 336:C:/Users/stapi/OneDrive/Desktop/GD32VW553/GD32VW55X_Wifi_BLE_SDK/GD32VW55x_RELEASE_V1.0.2/MSDK/ble/app\ble_init.c **** 
 337:C:/Users/stapi/OneDrive/Desktop/GD32VW553/GD32VW55X_Wifi_BLE_SDK/GD32VW55x_RELEASE_V1.0.2/MSDK/ble/app\ble_init.c **** #if BLE_PROFILE_BAS_SERVER
 338:C:/Users/stapi/OneDrive/Desktop/GD32VW553/GD32VW55X_Wifi_BLE_SDK/GD32VW55x_RELEASE_V1.0.2/MSDK/ble/app\ble_init.c ****     ble_app_bass_deinit();
 339:C:/Users/stapi/OneDrive/Desktop/GD32VW553/GD32VW55X_Wifi_BLE_SDK/GD32VW55x_RELEASE_V1.0.2/MSDK/ble/app\ble_init.c **** #endif
 340:C:/Users/stapi/OneDrive/Desktop/GD32VW553/GD32VW55X_Wifi_BLE_SDK/GD32VW55x_RELEASE_V1.0.2/MSDK/ble/app\ble_init.c **** 
 341:C:/Users/stapi/OneDrive/Desktop/GD32VW553/GD32VW55X_Wifi_BLE_SDK/GD32VW55x_RELEASE_V1.0.2/MSDK/ble/app\ble_init.c **** #if BLE_PROFILE_CSCS_SERVER
 342:C:/Users/stapi/OneDrive/Desktop/GD32VW553/GD32VW55X_Wifi_BLE_SDK/GD32VW55x_RELEASE_V1.0.2/MSDK/ble/app\ble_init.c ****     ble_app_cscss_deinit();
 343:C:/Users/stapi/OneDrive/Desktop/GD32VW553/GD32VW55X_Wifi_BLE_SDK/GD32VW55x_RELEASE_V1.0.2/MSDK/ble/app\ble_init.c **** #endif
 344:C:/Users/stapi/OneDrive/Desktop/GD32VW553/GD32VW55X_Wifi_BLE_SDK/GD32VW55x_RELEASE_V1.0.2/MSDK/ble/app\ble_init.c **** 
 345:C:/Users/stapi/OneDrive/Desktop/GD32VW553/GD32VW55X_Wifi_BLE_SDK/GD32VW55x_RELEASE_V1.0.2/MSDK/ble/app\ble_init.c **** #if BLE_PROFILE_BLUE_COURIER_SERVER
 346:C:/Users/stapi/OneDrive/Desktop/GD32VW553/GD32VW55X_Wifi_BLE_SDK/GD32VW55x_RELEASE_V1.0.2/MSDK/ble/app\ble_init.c ****     app_blue_courier_deinit();
 260              		.loc 1 346 5
 261 0010 97000000 		call	app_blue_courier_deinit
 261      E7800000 
 262              	.LVL25:
 347:C:/Users/stapi/OneDrive/Desktop/GD32VW553/GD32VW55X_Wifi_BLE_SDK/GD32VW55x_RELEASE_V1.0.2/MSDK/ble/app\ble_init.c **** #endif
 348:C:/Users/stapi/OneDrive/Desktop/GD32VW553/GD32VW55X_Wifi_BLE_SDK/GD32VW55x_RELEASE_V1.0.2/MSDK/ble/app\ble_init.c **** }
 263              		.loc 1 348 1 is_stmt 0
 264 0018 17030000 		tail	__riscv_restore_0
 264      67000300 
 265              		.cfi_restore 1
 266              		.cfi_def_cfa_offset 0
 267              		.cfi_endproc
 268              	.LFE12:
 270              		.section	.text.ble_app_init,"ax",@progbits
 271              		.align	1
 272              		.globl	ble_app_init
 274              	ble_app_init:
 275              	.LFB13:
 349:C:/Users/stapi/OneDrive/Desktop/GD32VW553/GD32VW55X_Wifi_BLE_SDK/GD32VW55x_RELEASE_V1.0.2/MSDK/ble/app\ble_init.c **** 
 350:C:/Users/stapi/OneDrive/Desktop/GD32VW553/GD32VW55X_Wifi_BLE_SDK/GD32VW55x_RELEASE_V1.0.2/MSDK/ble/app\ble_init.c **** /*!
 351:C:/Users/stapi/OneDrive/Desktop/GD32VW553/GD32VW55X_Wifi_BLE_SDK/GD32VW55x_RELEASE_V1.0.2/MSDK/ble/app\ble_init.c ****     \brief      Init BLE application modules needed
 352:C:/Users/stapi/OneDrive/Desktop/GD32VW553/GD32VW55X_Wifi_BLE_SDK/GD32VW55x_RELEASE_V1.0.2/MSDK/ble/app\ble_init.c ****     \param[in]  none
 353:C:/Users/stapi/OneDrive/Desktop/GD32VW553/GD32VW55X_Wifi_BLE_SDK/GD32VW55x_RELEASE_V1.0.2/MSDK/ble/app\ble_init.c ****     \param[out] none
 354:C:/Users/stapi/OneDrive/Desktop/GD32VW553/GD32VW55X_Wifi_BLE_SDK/GD32VW55x_RELEASE_V1.0.2/MSDK/ble/app\ble_init.c ****     \retval     none
 355:C:/Users/stapi/OneDrive/Desktop/GD32VW553/GD32VW55X_Wifi_BLE_SDK/GD32VW55x_RELEASE_V1.0.2/MSDK/ble/app\ble_init.c **** */
 356:C:/Users/stapi/OneDrive/Desktop/GD32VW553/GD32VW55X_Wifi_BLE_SDK/GD32VW55x_RELEASE_V1.0.2/MSDK/ble/app\ble_init.c **** void ble_app_init(void)
 357:C:/Users/stapi/OneDrive/Desktop/GD32VW553/GD32VW55X_Wifi_BLE_SDK/GD32VW55x_RELEASE_V1.0.2/MSDK/ble/app\ble_init.c **** {
 276              		.loc 1 357 1 is_stmt 1
 277              		.cfi_startproc
 278 0000 17030000 		call	t0,__riscv_save_0
 278      E7020300 
 279              		.cfi_offset 1, -4
 280              		.cfi_def_cfa_offset 16
 358:C:/Users/stapi/OneDrive/Desktop/GD32VW553/GD32VW55X_Wifi_BLE_SDK/GD32VW55x_RELEASE_V1.0.2/MSDK/ble/app\ble_init.c ****     app_adapter_init();
 281              		.loc 1 358 5
 282 0008 97000000 		call	app_adapter_init
 282      E7800000 
 283              	.LVL26:
 359:C:/Users/stapi/OneDrive/Desktop/GD32VW553/GD32VW55X_Wifi_BLE_SDK/GD32VW55x_RELEASE_V1.0.2/MSDK/ble/app\ble_init.c **** 
 360:C:/Users/stapi/OneDrive/Desktop/GD32VW553/GD32VW55X_Wifi_BLE_SDK/GD32VW55x_RELEASE_V1.0.2/MSDK/ble/app\ble_init.c **** #if (BLE_CFG_ROLE & (BLE_CFG_ROLE_BROADCASTER | BLE_CFG_ROLE_PERIPHERAL))
 361:C:/Users/stapi/OneDrive/Desktop/GD32VW553/GD32VW55X_Wifi_BLE_SDK/GD32VW55x_RELEASE_V1.0.2/MSDK/ble/app\ble_init.c ****     app_adv_mgr_init();
 284              		.loc 1 361 5
 285 0010 97000000 		call	app_adv_mgr_init
 285      E7800000 
 286              	.LVL27:
 362:C:/Users/stapi/OneDrive/Desktop/GD32VW553/GD32VW55X_Wifi_BLE_SDK/GD32VW55x_RELEASE_V1.0.2/MSDK/ble/app\ble_init.c **** #endif
 363:C:/Users/stapi/OneDrive/Desktop/GD32VW553/GD32VW55X_Wifi_BLE_SDK/GD32VW55x_RELEASE_V1.0.2/MSDK/ble/app\ble_init.c **** 
 364:C:/Users/stapi/OneDrive/Desktop/GD32VW553/GD32VW55X_Wifi_BLE_SDK/GD32VW55x_RELEASE_V1.0.2/MSDK/ble/app\ble_init.c **** #if (BLE_CFG_ROLE & (BLE_CFG_ROLE_OBSERVER | BLE_CFG_ROLE_CENTRAL))
 365:C:/Users/stapi/OneDrive/Desktop/GD32VW553/GD32VW55X_Wifi_BLE_SDK/GD32VW55x_RELEASE_V1.0.2/MSDK/ble/app\ble_init.c ****     app_scan_mgr_init();
 287              		.loc 1 365 5
 288 0018 97000000 		call	app_scan_mgr_init
 288      E7800000 
 289              	.LVL28:
 366:C:/Users/stapi/OneDrive/Desktop/GD32VW553/GD32VW55X_Wifi_BLE_SDK/GD32VW55x_RELEASE_V1.0.2/MSDK/ble/app\ble_init.c **** #endif
 367:C:/Users/stapi/OneDrive/Desktop/GD32VW553/GD32VW55X_Wifi_BLE_SDK/GD32VW55x_RELEASE_V1.0.2/MSDK/ble/app\ble_init.c **** 
 368:C:/Users/stapi/OneDrive/Desktop/GD32VW553/GD32VW55X_Wifi_BLE_SDK/GD32VW55x_RELEASE_V1.0.2/MSDK/ble/app\ble_init.c ****     app_l2cap_mgr_init();
 290              		.loc 1 368 5
 291 0020 97000000 		call	app_l2cap_mgr_init
 291      E7800000 
 292              	.LVL29:
 369:C:/Users/stapi/OneDrive/Desktop/GD32VW553/GD32VW55X_Wifi_BLE_SDK/GD32VW55x_RELEASE_V1.0.2/MSDK/ble/app\ble_init.c **** 
 370:C:/Users/stapi/OneDrive/Desktop/GD32VW553/GD32VW55X_Wifi_BLE_SDK/GD32VW55x_RELEASE_V1.0.2/MSDK/ble/app\ble_init.c ****     app_dm_init();
 293              		.loc 1 370 5
 294 0028 97000000 		call	app_dm_init
 294      E7800000 
 295              	.LVL30:
 371:C:/Users/stapi/OneDrive/Desktop/GD32VW553/GD32VW55X_Wifi_BLE_SDK/GD32VW55x_RELEASE_V1.0.2/MSDK/ble/app\ble_init.c **** 
 372:C:/Users/stapi/OneDrive/Desktop/GD32VW553/GD32VW55X_Wifi_BLE_SDK/GD32VW55x_RELEASE_V1.0.2/MSDK/ble/app\ble_init.c **** #if (BLE_CFG_ROLE & (BLE_CFG_ROLE_PERIPHERAL | BLE_CFG_ROLE_CENTRAL))
 373:C:/Users/stapi/OneDrive/Desktop/GD32VW553/GD32VW55X_Wifi_BLE_SDK/GD32VW55x_RELEASE_V1.0.2/MSDK/ble/app\ble_init.c ****     app_conn_mgr_init();
 296              		.loc 1 373 5
 297 0030 97000000 		call	app_conn_mgr_init
 297      E7800000 
 298              	.LVL31:
 374:C:/Users/stapi/OneDrive/Desktop/GD32VW553/GD32VW55X_Wifi_BLE_SDK/GD32VW55x_RELEASE_V1.0.2/MSDK/ble/app\ble_init.c ****     app_sec_mgr_init();
 299              		.loc 1 374 5
 300 0038 97000000 		call	app_sec_mgr_init
 300      E7800000 
 301              	.LVL32:
 375:C:/Users/stapi/OneDrive/Desktop/GD32VW553/GD32VW55X_Wifi_BLE_SDK/GD32VW55x_RELEASE_V1.0.2/MSDK/ble/app\ble_init.c **** #endif
 376:C:/Users/stapi/OneDrive/Desktop/GD32VW553/GD32VW55X_Wifi_BLE_SDK/GD32VW55x_RELEASE_V1.0.2/MSDK/ble/app\ble_init.c **** 
 377:C:/Users/stapi/OneDrive/Desktop/GD32VW553/GD32VW55X_Wifi_BLE_SDK/GD32VW55x_RELEASE_V1.0.2/MSDK/ble/app\ble_init.c **** #if (BLE_APP_PER_ADV_SUPPORT)
 378:C:/Users/stapi/OneDrive/Desktop/GD32VW553/GD32VW55X_Wifi_BLE_SDK/GD32VW55x_RELEASE_V1.0.2/MSDK/ble/app\ble_init.c ****     app_per_sync_mgr_init();
 302              		.loc 1 378 5
 303 0040 97000000 		call	app_per_sync_mgr_init
 303      E7800000 
 304              	.LVL33:
 379:C:/Users/stapi/OneDrive/Desktop/GD32VW553/GD32VW55X_Wifi_BLE_SDK/GD32VW55x_RELEASE_V1.0.2/MSDK/ble/app\ble_init.c **** #endif
 380:C:/Users/stapi/OneDrive/Desktop/GD32VW553/GD32VW55X_Wifi_BLE_SDK/GD32VW55x_RELEASE_V1.0.2/MSDK/ble/app\ble_init.c **** 
 381:C:/Users/stapi/OneDrive/Desktop/GD32VW553/GD32VW55X_Wifi_BLE_SDK/GD32VW55x_RELEASE_V1.0.2/MSDK/ble/app\ble_init.c ****     app_list_mgr_init();
 305              		.loc 1 381 5
 306 0048 97000000 		call	app_list_mgr_init
 306      E7800000 
 307              	.LVL34:
 382:C:/Users/stapi/OneDrive/Desktop/GD32VW553/GD32VW55X_Wifi_BLE_SDK/GD32VW55x_RELEASE_V1.0.2/MSDK/ble/app\ble_init.c **** 
 383:C:/Users/stapi/OneDrive/Desktop/GD32VW553/GD32VW55X_Wifi_BLE_SDK/GD32VW55x_RELEASE_V1.0.2/MSDK/ble/app\ble_init.c **** #if (BLE_APP_BIS_SUPPORT || BLE_APP_CIS_SUPPORT)
 384:C:/Users/stapi/OneDrive/Desktop/GD32VW553/GD32VW55X_Wifi_BLE_SDK/GD32VW55x_RELEASE_V1.0.2/MSDK/ble/app\ble_init.c ****     app_iso_mgr_init();
 308              		.loc 1 384 5
 309 0050 97000000 		call	app_iso_mgr_init
 309      E7800000 
 310              	.LVL35:
 385:C:/Users/stapi/OneDrive/Desktop/GD32VW553/GD32VW55X_Wifi_BLE_SDK/GD32VW55x_RELEASE_V1.0.2/MSDK/ble/app\ble_init.c **** #endif // (BLE_APP_BIS_SUPPORT || BLE_APP_CIS_SUPPORT)
 386:C:/Users/stapi/OneDrive/Desktop/GD32VW553/GD32VW55X_Wifi_BLE_SDK/GD32VW55x_RELEASE_V1.0.2/MSDK/ble/app\ble_init.c **** 
 387:C:/Users/stapi/OneDrive/Desktop/GD32VW553/GD32VW55X_Wifi_BLE_SDK/GD32VW55x_RELEASE_V1.0.2/MSDK/ble/app\ble_init.c ****     ble_profile_init();
 311              		.loc 1 387 5
 312 0058 97000000 		call	ble_profile_init
 312      E7800000 
 313              	.LVL36:
 388:C:/Users/stapi/OneDrive/Desktop/GD32VW553/GD32VW55X_Wifi_BLE_SDK/GD32VW55x_RELEASE_V1.0.2/MSDK/ble/app\ble_init.c **** 
 389:C:/Users/stapi/OneDrive/Desktop/GD32VW553/GD32VW55X_Wifi_BLE_SDK/GD32VW55x_RELEASE_V1.0.2/MSDK/ble/app\ble_init.c **** #if FEAT_SUPPORT_BLE_DATATRANS
 390:C:/Users/stapi/OneDrive/Desktop/GD32VW553/GD32VW55X_Wifi_BLE_SDK/GD32VW55x_RELEASE_V1.0.2/MSDK/ble/app\ble_init.c ****     app_datatrans_srv_init();
 391:C:/Users/stapi/OneDrive/Desktop/GD32VW553/GD32VW55X_Wifi_BLE_SDK/GD32VW55x_RELEASE_V1.0.2/MSDK/ble/app\ble_init.c **** #endif
 392:C:/Users/stapi/OneDrive/Desktop/GD32VW553/GD32VW55X_Wifi_BLE_SDK/GD32VW55x_RELEASE_V1.0.2/MSDK/ble/app\ble_init.c **** }
 314              		.loc 1 392 1 is_stmt 0
 315 0060 17030000 		tail	__riscv_restore_0
 315      67000300 
 316              		.cfi_restore 1
 317              		.cfi_def_cfa_offset 0
 318              		.cfi_endproc
 319              	.LFE13:
 321              		.section	.text.ble_app_deinit,"ax",@progbits
 322              		.align	1
 323              		.globl	ble_app_deinit
 325              	ble_app_deinit:
 326              	.LFB14:
 393:C:/Users/stapi/OneDrive/Desktop/GD32VW553/GD32VW55X_Wifi_BLE_SDK/GD32VW55x_RELEASE_V1.0.2/MSDK/ble/app\ble_init.c **** 
 394:C:/Users/stapi/OneDrive/Desktop/GD32VW553/GD32VW55X_Wifi_BLE_SDK/GD32VW55x_RELEASE_V1.0.2/MSDK/ble/app\ble_init.c **** /*!
 395:C:/Users/stapi/OneDrive/Desktop/GD32VW553/GD32VW55X_Wifi_BLE_SDK/GD32VW55x_RELEASE_V1.0.2/MSDK/ble/app\ble_init.c ****     \brief      Deinit BLE application modules
 396:C:/Users/stapi/OneDrive/Desktop/GD32VW553/GD32VW55X_Wifi_BLE_SDK/GD32VW55x_RELEASE_V1.0.2/MSDK/ble/app\ble_init.c ****     \param[in]  none
 397:C:/Users/stapi/OneDrive/Desktop/GD32VW553/GD32VW55X_Wifi_BLE_SDK/GD32VW55x_RELEASE_V1.0.2/MSDK/ble/app\ble_init.c ****     \param[out] none
 398:C:/Users/stapi/OneDrive/Desktop/GD32VW553/GD32VW55X_Wifi_BLE_SDK/GD32VW55x_RELEASE_V1.0.2/MSDK/ble/app\ble_init.c ****     \retval     none
 399:C:/Users/stapi/OneDrive/Desktop/GD32VW553/GD32VW55X_Wifi_BLE_SDK/GD32VW55x_RELEASE_V1.0.2/MSDK/ble/app\ble_init.c **** */
 400:C:/Users/stapi/OneDrive/Desktop/GD32VW553/GD32VW55X_Wifi_BLE_SDK/GD32VW55x_RELEASE_V1.0.2/MSDK/ble/app\ble_init.c **** void ble_app_deinit(void)
 401:C:/Users/stapi/OneDrive/Desktop/GD32VW553/GD32VW55X_Wifi_BLE_SDK/GD32VW55x_RELEASE_V1.0.2/MSDK/ble/app\ble_init.c **** {
 327              		.loc 1 401 1 is_stmt 1
 328              		.cfi_startproc
 329 0000 17030000 		call	t0,__riscv_save_0
 329      E7020300 
 330              		.cfi_offset 1, -4
 331              		.cfi_def_cfa_offset 16
 402:C:/Users/stapi/OneDrive/Desktop/GD32VW553/GD32VW55X_Wifi_BLE_SDK/GD32VW55x_RELEASE_V1.0.2/MSDK/ble/app\ble_init.c ****     app_adapter_deinit();
 332              		.loc 1 402 5
 333 0008 97000000 		call	app_adapter_deinit
 333      E7800000 
 334              	.LVL37:
 403:C:/Users/stapi/OneDrive/Desktop/GD32VW553/GD32VW55X_Wifi_BLE_SDK/GD32VW55x_RELEASE_V1.0.2/MSDK/ble/app\ble_init.c **** 
 404:C:/Users/stapi/OneDrive/Desktop/GD32VW553/GD32VW55X_Wifi_BLE_SDK/GD32VW55x_RELEASE_V1.0.2/MSDK/ble/app\ble_init.c **** #if (BLE_CFG_ROLE & (BLE_CFG_ROLE_BROADCASTER | BLE_CFG_ROLE_PERIPHERAL))
 405:C:/Users/stapi/OneDrive/Desktop/GD32VW553/GD32VW55X_Wifi_BLE_SDK/GD32VW55x_RELEASE_V1.0.2/MSDK/ble/app\ble_init.c ****     app_adv_mgr_deinit();
 335              		.loc 1 405 5
 336 0010 97000000 		call	app_adv_mgr_deinit
 336      E7800000 
 337              	.LVL38:
 406:C:/Users/stapi/OneDrive/Desktop/GD32VW553/GD32VW55X_Wifi_BLE_SDK/GD32VW55x_RELEASE_V1.0.2/MSDK/ble/app\ble_init.c **** #endif
 407:C:/Users/stapi/OneDrive/Desktop/GD32VW553/GD32VW55X_Wifi_BLE_SDK/GD32VW55x_RELEASE_V1.0.2/MSDK/ble/app\ble_init.c **** 
 408:C:/Users/stapi/OneDrive/Desktop/GD32VW553/GD32VW55X_Wifi_BLE_SDK/GD32VW55x_RELEASE_V1.0.2/MSDK/ble/app\ble_init.c **** #if (BLE_CFG_ROLE & (BLE_CFG_ROLE_OBSERVER | BLE_CFG_ROLE_CENTRAL))
 409:C:/Users/stapi/OneDrive/Desktop/GD32VW553/GD32VW55X_Wifi_BLE_SDK/GD32VW55x_RELEASE_V1.0.2/MSDK/ble/app\ble_init.c ****     app_scan_mgr_deinit();
 338              		.loc 1 409 5
 339 0018 97000000 		call	app_scan_mgr_deinit
 339      E7800000 
 340              	.LVL39:
 410:C:/Users/stapi/OneDrive/Desktop/GD32VW553/GD32VW55X_Wifi_BLE_SDK/GD32VW55x_RELEASE_V1.0.2/MSDK/ble/app\ble_init.c **** #endif
 411:C:/Users/stapi/OneDrive/Desktop/GD32VW553/GD32VW55X_Wifi_BLE_SDK/GD32VW55x_RELEASE_V1.0.2/MSDK/ble/app\ble_init.c **** 
 412:C:/Users/stapi/OneDrive/Desktop/GD32VW553/GD32VW55X_Wifi_BLE_SDK/GD32VW55x_RELEASE_V1.0.2/MSDK/ble/app\ble_init.c ****     app_l2cap_mgr_deinit();
 341              		.loc 1 412 5
 342 0020 97000000 		call	app_l2cap_mgr_deinit
 342      E7800000 
 343              	.LVL40:
 413:C:/Users/stapi/OneDrive/Desktop/GD32VW553/GD32VW55X_Wifi_BLE_SDK/GD32VW55x_RELEASE_V1.0.2/MSDK/ble/app\ble_init.c **** 
 414:C:/Users/stapi/OneDrive/Desktop/GD32VW553/GD32VW55X_Wifi_BLE_SDK/GD32VW55x_RELEASE_V1.0.2/MSDK/ble/app\ble_init.c ****     app_dm_deinit();
 344              		.loc 1 414 5
 345 0028 97000000 		call	app_dm_deinit
 345      E7800000 
 346              	.LVL41:
 415:C:/Users/stapi/OneDrive/Desktop/GD32VW553/GD32VW55X_Wifi_BLE_SDK/GD32VW55x_RELEASE_V1.0.2/MSDK/ble/app\ble_init.c **** 
 416:C:/Users/stapi/OneDrive/Desktop/GD32VW553/GD32VW55X_Wifi_BLE_SDK/GD32VW55x_RELEASE_V1.0.2/MSDK/ble/app\ble_init.c **** #if (BLE_CFG_ROLE & (BLE_CFG_ROLE_PERIPHERAL | BLE_CFG_ROLE_CENTRAL))
 417:C:/Users/stapi/OneDrive/Desktop/GD32VW553/GD32VW55X_Wifi_BLE_SDK/GD32VW55x_RELEASE_V1.0.2/MSDK/ble/app\ble_init.c ****     app_conn_mgr_deinit();
 347              		.loc 1 417 5
 348 0030 97000000 		call	app_conn_mgr_deinit
 348      E7800000 
 349              	.LVL42:
 418:C:/Users/stapi/OneDrive/Desktop/GD32VW553/GD32VW55X_Wifi_BLE_SDK/GD32VW55x_RELEASE_V1.0.2/MSDK/ble/app\ble_init.c ****     app_sec_mgr_deinit();
 350              		.loc 1 418 5
 351 0038 97000000 		call	app_sec_mgr_deinit
 351      E7800000 
 352              	.LVL43:
 419:C:/Users/stapi/OneDrive/Desktop/GD32VW553/GD32VW55X_Wifi_BLE_SDK/GD32VW55x_RELEASE_V1.0.2/MSDK/ble/app\ble_init.c **** #endif
 420:C:/Users/stapi/OneDrive/Desktop/GD32VW553/GD32VW55X_Wifi_BLE_SDK/GD32VW55x_RELEASE_V1.0.2/MSDK/ble/app\ble_init.c **** 
 421:C:/Users/stapi/OneDrive/Desktop/GD32VW553/GD32VW55X_Wifi_BLE_SDK/GD32VW55x_RELEASE_V1.0.2/MSDK/ble/app\ble_init.c **** #if (BLE_APP_PER_ADV_SUPPORT)
 422:C:/Users/stapi/OneDrive/Desktop/GD32VW553/GD32VW55X_Wifi_BLE_SDK/GD32VW55x_RELEASE_V1.0.2/MSDK/ble/app\ble_init.c ****     app_per_sync_mgr_deinit();
 353              		.loc 1 422 5
 354 0040 97000000 		call	app_per_sync_mgr_deinit
 354      E7800000 
 355              	.LVL44:
 423:C:/Users/stapi/OneDrive/Desktop/GD32VW553/GD32VW55X_Wifi_BLE_SDK/GD32VW55x_RELEASE_V1.0.2/MSDK/ble/app\ble_init.c **** #endif
 424:C:/Users/stapi/OneDrive/Desktop/GD32VW553/GD32VW55X_Wifi_BLE_SDK/GD32VW55x_RELEASE_V1.0.2/MSDK/ble/app\ble_init.c **** 
 425:C:/Users/stapi/OneDrive/Desktop/GD32VW553/GD32VW55X_Wifi_BLE_SDK/GD32VW55x_RELEASE_V1.0.2/MSDK/ble/app\ble_init.c ****     app_list_mgr_deinit();
 356              		.loc 1 425 5
 357 0048 97000000 		call	app_list_mgr_deinit
 357      E7800000 
 358              	.LVL45:
 426:C:/Users/stapi/OneDrive/Desktop/GD32VW553/GD32VW55X_Wifi_BLE_SDK/GD32VW55x_RELEASE_V1.0.2/MSDK/ble/app\ble_init.c **** 
 427:C:/Users/stapi/OneDrive/Desktop/GD32VW553/GD32VW55X_Wifi_BLE_SDK/GD32VW55x_RELEASE_V1.0.2/MSDK/ble/app\ble_init.c **** #if (BLE_APP_BIS_SUPPORT || BLE_APP_CIS_SUPPORT)
 428:C:/Users/stapi/OneDrive/Desktop/GD32VW553/GD32VW55X_Wifi_BLE_SDK/GD32VW55x_RELEASE_V1.0.2/MSDK/ble/app\ble_init.c ****     app_iso_mgr_deinit();
 359              		.loc 1 428 5
 360 0050 97000000 		call	app_iso_mgr_deinit
 360      E7800000 
 361              	.LVL46:
 429:C:/Users/stapi/OneDrive/Desktop/GD32VW553/GD32VW55X_Wifi_BLE_SDK/GD32VW55x_RELEASE_V1.0.2/MSDK/ble/app\ble_init.c **** #endif // (BLE_APP_BIS_SUPPORT || BLE_APP_CIS_SUPPORT)
 430:C:/Users/stapi/OneDrive/Desktop/GD32VW553/GD32VW55X_Wifi_BLE_SDK/GD32VW55x_RELEASE_V1.0.2/MSDK/ble/app\ble_init.c **** 
 431:C:/Users/stapi/OneDrive/Desktop/GD32VW553/GD32VW55X_Wifi_BLE_SDK/GD32VW55x_RELEASE_V1.0.2/MSDK/ble/app\ble_init.c ****     ble_profile_deinit();
 362              		.loc 1 431 5
 363 0058 97000000 		call	ble_profile_deinit
 363      E7800000 
 364              	.LVL47:
 432:C:/Users/stapi/OneDrive/Desktop/GD32VW553/GD32VW55X_Wifi_BLE_SDK/GD32VW55x_RELEASE_V1.0.2/MSDK/ble/app\ble_init.c **** 
 433:C:/Users/stapi/OneDrive/Desktop/GD32VW553/GD32VW55X_Wifi_BLE_SDK/GD32VW55x_RELEASE_V1.0.2/MSDK/ble/app\ble_init.c **** #if FEAT_SUPPORT_BLE_DATATRANS
 434:C:/Users/stapi/OneDrive/Desktop/GD32VW553/GD32VW55X_Wifi_BLE_SDK/GD32VW55x_RELEASE_V1.0.2/MSDK/ble/app\ble_init.c ****     app_datatrans_srv_deinit();
 435:C:/Users/stapi/OneDrive/Desktop/GD32VW553/GD32VW55X_Wifi_BLE_SDK/GD32VW55x_RELEASE_V1.0.2/MSDK/ble/app\ble_init.c **** #endif
 436:C:/Users/stapi/OneDrive/Desktop/GD32VW553/GD32VW55X_Wifi_BLE_SDK/GD32VW55x_RELEASE_V1.0.2/MSDK/ble/app\ble_init.c **** }
 365              		.loc 1 436 1 is_stmt 0
 366 0060 17030000 		tail	__riscv_restore_0
 366      67000300 
 367              		.cfi_restore 1
 368              		.cfi_def_cfa_offset 0
 369              		.cfi_endproc
 370              	.LFE14:
 372              		.section	.rodata.ble_init.str1.4,"aMS",@progbits,1
 373              		.align	2
 374              	.LC2:
 375 0000 626C6520 		.string	"ble stack init fail status 0x%x"
 375      73746163 
 375      6B20696E 
 375      69742066 
 375      61696C20 
 376              		.section	.text.ble_init,"ax",@progbits
 377              		.align	1
 378              		.globl	ble_init
 380              	ble_init:
 381              	.LFB15:
 437:C:/Users/stapi/OneDrive/Desktop/GD32VW553/GD32VW55X_Wifi_BLE_SDK/GD32VW55x_RELEASE_V1.0.2/MSDK/ble/app\ble_init.c **** 
 438:C:/Users/stapi/OneDrive/Desktop/GD32VW553/GD32VW55X_Wifi_BLE_SDK/GD32VW55x_RELEASE_V1.0.2/MSDK/ble/app\ble_init.c **** #endif // (BLE_APP_SUPPORT)
 439:C:/Users/stapi/OneDrive/Desktop/GD32VW553/GD32VW55X_Wifi_BLE_SDK/GD32VW55x_RELEASE_V1.0.2/MSDK/ble/app\ble_init.c **** 
 440:C:/Users/stapi/OneDrive/Desktop/GD32VW553/GD32VW55X_Wifi_BLE_SDK/GD32VW55x_RELEASE_V1.0.2/MSDK/ble/app\ble_init.c **** /*!
 441:C:/Users/stapi/OneDrive/Desktop/GD32VW553/GD32VW55X_Wifi_BLE_SDK/GD32VW55x_RELEASE_V1.0.2/MSDK/ble/app\ble_init.c ****     \brief      Initialization of the BLE module
 442:C:/Users/stapi/OneDrive/Desktop/GD32VW553/GD32VW55X_Wifi_BLE_SDK/GD32VW55x_RELEASE_V1.0.2/MSDK/ble/app\ble_init.c ****     \details    This function allocates all the resources needed by the different BLE sub-modules
 443:C:/Users/stapi/OneDrive/Desktop/GD32VW553/GD32VW55X_Wifi_BLE_SDK/GD32VW55x_RELEASE_V1.0.2/MSDK/ble/app\ble_init.c ****                 This function initialize the command processing
 444:C:/Users/stapi/OneDrive/Desktop/GD32VW553/GD32VW55X_Wifi_BLE_SDK/GD32VW55x_RELEASE_V1.0.2/MSDK/ble/app\ble_init.c ****                 This function will use the wrapper_os API to create tasks, semaphores, etc
 445:C:/Users/stapi/OneDrive/Desktop/GD32VW553/GD32VW55X_Wifi_BLE_SDK/GD32VW55x_RELEASE_V1.0.2/MSDK/ble/app\ble_init.c ****     \param[in]  all:  true to init all modules, false to only init BLE CLI if needed.
 446:C:/Users/stapi/OneDrive/Desktop/GD32VW553/GD32VW55X_Wifi_BLE_SDK/GD32VW55x_RELEASE_V1.0.2/MSDK/ble/app\ble_init.c ****     \param[out] none
 447:C:/Users/stapi/OneDrive/Desktop/GD32VW553/GD32VW55X_Wifi_BLE_SDK/GD32VW55x_RELEASE_V1.0.2/MSDK/ble/app\ble_init.c ****     \retval     none
 448:C:/Users/stapi/OneDrive/Desktop/GD32VW553/GD32VW55X_Wifi_BLE_SDK/GD32VW55x_RELEASE_V1.0.2/MSDK/ble/app\ble_init.c **** */
 449:C:/Users/stapi/OneDrive/Desktop/GD32VW553/GD32VW55X_Wifi_BLE_SDK/GD32VW55x_RELEASE_V1.0.2/MSDK/ble/app\ble_init.c **** void ble_init(bool all)
 450:C:/Users/stapi/OneDrive/Desktop/GD32VW553/GD32VW55X_Wifi_BLE_SDK/GD32VW55x_RELEASE_V1.0.2/MSDK/ble/app\ble_init.c **** {
 382              		.loc 1 450 1 is_stmt 1
 383              		.cfi_startproc
 384              	.LVL48:
 385 0000 17030000 		call	t0,__riscv_save_1
 385      E7020300 
 386              		.cfi_offset 8, -8
 387              		.cfi_offset 1, -4
 388              		.cfi_def_cfa_offset 16
 451:C:/Users/stapi/OneDrive/Desktop/GD32VW553/GD32VW55X_Wifi_BLE_SDK/GD32VW55x_RELEASE_V1.0.2/MSDK/ble/app\ble_init.c ****     ble_status_t ret;
 389              		.loc 1 451 5
 452:C:/Users/stapi/OneDrive/Desktop/GD32VW553/GD32VW55X_Wifi_BLE_SDK/GD32VW55x_RELEASE_V1.0.2/MSDK/ble/app\ble_init.c **** 
 453:C:/Users/stapi/OneDrive/Desktop/GD32VW553/GD32VW55X_Wifi_BLE_SDK/GD32VW55x_RELEASE_V1.0.2/MSDK/ble/app\ble_init.c ****     ble_os_api_t os_interface = {
 390              		.loc 1 453 5
 450:C:/Users/stapi/OneDrive/Desktop/GD32VW553/GD32VW55X_Wifi_BLE_SDK/GD32VW55x_RELEASE_V1.0.2/MSDK/ble/app\ble_init.c ****     ble_status_t ret;
 391              		.loc 1 450 1 is_stmt 0
 392 0008 5D71     		addi	sp,sp,-80
 393              		.cfi_def_cfa_offset 96
 394              		.loc 1 453 18
 395 000a B7050000 		lui	a1,%hi(.LANCHOR2)
 450:C:/Users/stapi/OneDrive/Desktop/GD32VW553/GD32VW55X_Wifi_BLE_SDK/GD32VW55x_RELEASE_V1.0.2/MSDK/ble/app\ble_init.c ****     ble_status_t ret;
 396              		.loc 1 450 1
 397 000e 2A84     		mv	s0,a0
 398              		.loc 1 453 18
 399 0010 13068004 		li	a2,72
 400 0014 93850500 		addi	a1,a1,%lo(.LANCHOR2)
 401 0018 2800     		addi	a0,sp,8
 402              	.LVL49:
 403 001a 97000000 		call	memcpy
 403      E7800000 
 404              	.LVL50:
 454:C:/Users/stapi/OneDrive/Desktop/GD32VW553/GD32VW55X_Wifi_BLE_SDK/GD32VW55x_RELEASE_V1.0.2/MSDK/ble/app\ble_init.c ****       .os_malloc = sys_malloc,
 455:C:/Users/stapi/OneDrive/Desktop/GD32VW553/GD32VW55X_Wifi_BLE_SDK/GD32VW55x_RELEASE_V1.0.2/MSDK/ble/app\ble_init.c ****       .os_calloc = sys_calloc,
 456:C:/Users/stapi/OneDrive/Desktop/GD32VW553/GD32VW55X_Wifi_BLE_SDK/GD32VW55x_RELEASE_V1.0.2/MSDK/ble/app\ble_init.c ****       .os_mfree = sys_mfree,
 457:C:/Users/stapi/OneDrive/Desktop/GD32VW553/GD32VW55X_Wifi_BLE_SDK/GD32VW55x_RELEASE_V1.0.2/MSDK/ble/app\ble_init.c ****       .os_memset = sys_memset,
 458:C:/Users/stapi/OneDrive/Desktop/GD32VW553/GD32VW55X_Wifi_BLE_SDK/GD32VW55x_RELEASE_V1.0.2/MSDK/ble/app\ble_init.c ****       .os_memcpy = sys_memcpy,
 459:C:/Users/stapi/OneDrive/Desktop/GD32VW553/GD32VW55X_Wifi_BLE_SDK/GD32VW55x_RELEASE_V1.0.2/MSDK/ble/app\ble_init.c ****       .os_memcmp = sys_memcmp,
 460:C:/Users/stapi/OneDrive/Desktop/GD32VW553/GD32VW55X_Wifi_BLE_SDK/GD32VW55x_RELEASE_V1.0.2/MSDK/ble/app\ble_init.c ****       .os_task_create = sys_task_create,
 461:C:/Users/stapi/OneDrive/Desktop/GD32VW553/GD32VW55X_Wifi_BLE_SDK/GD32VW55x_RELEASE_V1.0.2/MSDK/ble/app\ble_init.c ****       .os_task_init_notification = sys_task_init_notification,
 462:C:/Users/stapi/OneDrive/Desktop/GD32VW553/GD32VW55X_Wifi_BLE_SDK/GD32VW55x_RELEASE_V1.0.2/MSDK/ble/app\ble_init.c ****       .os_task_wait_notification = sys_task_wait_notification,
 463:C:/Users/stapi/OneDrive/Desktop/GD32VW553/GD32VW55X_Wifi_BLE_SDK/GD32VW55x_RELEASE_V1.0.2/MSDK/ble/app\ble_init.c ****       .os_task_notify = sys_task_notify,
 464:C:/Users/stapi/OneDrive/Desktop/GD32VW553/GD32VW55X_Wifi_BLE_SDK/GD32VW55x_RELEASE_V1.0.2/MSDK/ble/app\ble_init.c ****       .os_task_delete = sys_task_delete,
 465:C:/Users/stapi/OneDrive/Desktop/GD32VW553/GD32VW55X_Wifi_BLE_SDK/GD32VW55x_RELEASE_V1.0.2/MSDK/ble/app\ble_init.c ****       .os_ms_sleep = sys_ms_sleep,
 466:C:/Users/stapi/OneDrive/Desktop/GD32VW553/GD32VW55X_Wifi_BLE_SDK/GD32VW55x_RELEASE_V1.0.2/MSDK/ble/app\ble_init.c ****       .os_current_task_handle_get = sys_current_task_handle_get,
 467:C:/Users/stapi/OneDrive/Desktop/GD32VW553/GD32VW55X_Wifi_BLE_SDK/GD32VW55x_RELEASE_V1.0.2/MSDK/ble/app\ble_init.c ****       .os_queue_init = sys_queue_init,
 468:C:/Users/stapi/OneDrive/Desktop/GD32VW553/GD32VW55X_Wifi_BLE_SDK/GD32VW55x_RELEASE_V1.0.2/MSDK/ble/app\ble_init.c ****       .os_queue_free = sys_queue_free,
 469:C:/Users/stapi/OneDrive/Desktop/GD32VW553/GD32VW55X_Wifi_BLE_SDK/GD32VW55x_RELEASE_V1.0.2/MSDK/ble/app\ble_init.c ****       .os_queue_write = sys_queue_write,
 470:C:/Users/stapi/OneDrive/Desktop/GD32VW553/GD32VW55X_Wifi_BLE_SDK/GD32VW55x_RELEASE_V1.0.2/MSDK/ble/app\ble_init.c ****       .os_queue_read = sys_queue_read,
 471:C:/Users/stapi/OneDrive/Desktop/GD32VW553/GD32VW55X_Wifi_BLE_SDK/GD32VW55x_RELEASE_V1.0.2/MSDK/ble/app\ble_init.c ****       .os_random_bytes_get = sys_random_bytes_get,
 472:C:/Users/stapi/OneDrive/Desktop/GD32VW553/GD32VW55X_Wifi_BLE_SDK/GD32VW55x_RELEASE_V1.0.2/MSDK/ble/app\ble_init.c ****     };
 473:C:/Users/stapi/OneDrive/Desktop/GD32VW553/GD32VW55X_Wifi_BLE_SDK/GD32VW55x_RELEASE_V1.0.2/MSDK/ble/app\ble_init.c **** 
 474:C:/Users/stapi/OneDrive/Desktop/GD32VW553/GD32VW55X_Wifi_BLE_SDK/GD32VW55x_RELEASE_V1.0.2/MSDK/ble/app\ble_init.c **** #if (BLE_APP_CMD_SUPPORT && !defined(CFG_MATTER))
 475:C:/Users/stapi/OneDrive/Desktop/GD32VW553/GD32VW55X_Wifi_BLE_SDK/GD32VW55x_RELEASE_V1.0.2/MSDK/ble/app\ble_init.c ****     ble_cli_init();
 405              		.loc 1 475 5 is_stmt 1
 406 0022 97000000 		call	ble_cli_init
 406      E7800000 
 407              	.LVL51:
 476:C:/Users/stapi/OneDrive/Desktop/GD32VW553/GD32VW55X_Wifi_BLE_SDK/GD32VW55x_RELEASE_V1.0.2/MSDK/ble/app\ble_init.c **** #endif  // (BLE_APP_CMD_SUPPORT && !defined(CFG_MATTER))
 477:C:/Users/stapi/OneDrive/Desktop/GD32VW553/GD32VW55X_Wifi_BLE_SDK/GD32VW55x_RELEASE_V1.0.2/MSDK/ble/app\ble_init.c **** 
 478:C:/Users/stapi/OneDrive/Desktop/GD32VW553/GD32VW55X_Wifi_BLE_SDK/GD32VW55x_RELEASE_V1.0.2/MSDK/ble/app\ble_init.c ****     if (all == false)
 408              		.loc 1 478 5
 409              		.loc 1 478 8 is_stmt 0
 410 002a 59CC     		beq	s0,zero,.L29
 479:C:/Users/stapi/OneDrive/Desktop/GD32VW553/GD32VW55X_Wifi_BLE_SDK/GD32VW55x_RELEASE_V1.0.2/MSDK/ble/app\ble_init.c ****         return;
 480:C:/Users/stapi/OneDrive/Desktop/GD32VW553/GD32VW55X_Wifi_BLE_SDK/GD32VW55x_RELEASE_V1.0.2/MSDK/ble/app\ble_init.c **** 
 481:C:/Users/stapi/OneDrive/Desktop/GD32VW553/GD32VW55X_Wifi_BLE_SDK/GD32VW55x_RELEASE_V1.0.2/MSDK/ble/app\ble_init.c **** #ifndef TUYAOS_SUPPORT
 482:C:/Users/stapi/OneDrive/Desktop/GD32VW553/GD32VW55X_Wifi_BLE_SDK/GD32VW55x_RELEASE_V1.0.2/MSDK/ble/app\ble_init.c ****     ble_power_on();
 411              		.loc 1 482 5 is_stmt 1
 412 002c 97000000 		call	ble_power_on
 412      E7800000 
 413              	.LVL52:
 483:C:/Users/stapi/OneDrive/Desktop/GD32VW553/GD32VW55X_Wifi_BLE_SDK/GD32VW55x_RELEASE_V1.0.2/MSDK/ble/app\ble_init.c **** 
 484:C:/Users/stapi/OneDrive/Desktop/GD32VW553/GD32VW55X_Wifi_BLE_SDK/GD32VW55x_RELEASE_V1.0.2/MSDK/ble/app\ble_init.c **** #ifdef CFG_VIRTUAL_HCI_MODE
 485:C:/Users/stapi/OneDrive/Desktop/GD32VW553/GD32VW55X_Wifi_BLE_SDK/GD32VW55x_RELEASE_V1.0.2/MSDK/ble/app\ble_init.c ****     app_virtual_hci_init();
 486:C:/Users/stapi/OneDrive/Desktop/GD32VW553/GD32VW55X_Wifi_BLE_SDK/GD32VW55x_RELEASE_V1.0.2/MSDK/ble/app\ble_init.c **** #endif
 487:C:/Users/stapi/OneDrive/Desktop/GD32VW553/GD32VW55X_Wifi_BLE_SDK/GD32VW55x_RELEASE_V1.0.2/MSDK/ble/app\ble_init.c **** 
 488:C:/Users/stapi/OneDrive/Desktop/GD32VW553/GD32VW55X_Wifi_BLE_SDK/GD32VW55x_RELEASE_V1.0.2/MSDK/ble/app\ble_init.c ****     ret = ble_stack_init(0, &os_interface);
 414              		.loc 1 488 5
 415              		.loc 1 488 11 is_stmt 0
 416 0034 2C00     		addi	a1,sp,8
 417 0036 0145     		li	a0,0
 418 0038 97000000 		call	ble_stack_init
 418      E7800000 
 419              	.LVL53:
 420 0040 AA85     		mv	a1,a0
 421              	.LVL54:
 489:C:/Users/stapi/OneDrive/Desktop/GD32VW553/GD32VW55X_Wifi_BLE_SDK/GD32VW55x_RELEASE_V1.0.2/MSDK/ble/app\ble_init.c ****     if (ret != BLE_ERR_NO_ERROR) {
 422              		.loc 1 489 5 is_stmt 1
 423              		.loc 1 489 8 is_stmt 0
 424 0042 11CD     		beq	a0,zero,.L32
 490:C:/Users/stapi/OneDrive/Desktop/GD32VW553/GD32VW55X_Wifi_BLE_SDK/GD32VW55x_RELEASE_V1.0.2/MSDK/ble/app\ble_init.c ****         dbg_print(ERR, "ble stack init fail status 0x%x", ret);
 425              		.loc 1 490 9 is_stmt 1
 426              		.loc 1 490 9
 427 0044 B7070000 		lui	a5,%hi(global_debug_level)
 428 0048 83C70700 		lbu	a5,%lo(global_debug_level)(a5)
 429 004c 89CB     		beq	a5,zero,.L32
 430              		.loc 1 490 9 discriminator 1
 431 004e 37050000 		lui	a0,%hi(.LC2)
 432              	.LVL55:
 433 0052 13050500 		addi	a0,a0,%lo(.LC2)
 434 0056 97000000 		call	co_printf
 434      E7800000 
 435              	.LVL56:
 436              	.L32:
 437              		.loc 1 490 9 discriminator 3
 491:C:/Users/stapi/OneDrive/Desktop/GD32VW553/GD32VW55X_Wifi_BLE_SDK/GD32VW55x_RELEASE_V1.0.2/MSDK/ble/app\ble_init.c ****     }
 492:C:/Users/stapi/OneDrive/Desktop/GD32VW553/GD32VW55X_Wifi_BLE_SDK/GD32VW55x_RELEASE_V1.0.2/MSDK/ble/app\ble_init.c **** 
 493:C:/Users/stapi/OneDrive/Desktop/GD32VW553/GD32VW55X_Wifi_BLE_SDK/GD32VW55x_RELEASE_V1.0.2/MSDK/ble/app\ble_init.c ****     ble_task_init();
 438              		.loc 1 493 5 discriminator 3
 439              	.LBB12:
 440              	.LBB13:
 184:C:/Users/stapi/OneDrive/Desktop/GD32VW553/GD32VW55X_Wifi_BLE_SDK/GD32VW55x_RELEASE_V1.0.2/MSDK/ble/app\ble_init.c **** 
 441              		.loc 1 184 5 discriminator 3
 442 005e C945     		li	a1,18
 443 0060 13050030 		li	a0,768
 444 0064 97000000 		call	ble_stack_task_init
 444      E7800000 
 445              	.LVL57:
 187:C:/Users/stapi/OneDrive/Desktop/GD32VW553/GD32VW55X_Wifi_BLE_SDK/GD32VW55x_RELEASE_V1.0.2/MSDK/ble/app\ble_init.c **** #endif
 446              		.loc 1 187 5 discriminator 3
 447 006c C545     		li	a1,17
 448 006e 13050020 		li	a0,512
 449 0072 97000000 		call	ble_app_task_init
 449      E7800000 
 450              	.LVL58:
 190:C:/Users/stapi/OneDrive/Desktop/GD32VW553/GD32VW55X_Wifi_BLE_SDK/GD32VW55x_RELEASE_V1.0.2/MSDK/ble/app\ble_init.c **** }
 451              		.loc 1 190 5 discriminator 3
 452 007a 37050000 		lui	a0,%hi(.LANCHOR1)
 453 007e 0146     		li	a2,0
 454 0080 8545     		li	a1,1
 455 0082 13050500 		addi	a0,a0,%lo(.LANCHOR1)
 456 0086 97000000 		call	sys_sema_init_ext
 456      E7800000 
 457              	.LVL59:
 458              	.LBE13:
 459              	.LBE12:
 494:C:/Users/stapi/OneDrive/Desktop/GD32VW553/GD32VW55X_Wifi_BLE_SDK/GD32VW55x_RELEASE_V1.0.2/MSDK/ble/app\ble_init.c **** 
 495:C:/Users/stapi/OneDrive/Desktop/GD32VW553/GD32VW55X_Wifi_BLE_SDK/GD32VW55x_RELEASE_V1.0.2/MSDK/ble/app\ble_init.c **** #ifdef CFG_VIRTUAL_HCI_MODE
 496:C:/Users/stapi/OneDrive/Desktop/GD32VW553/GD32VW55X_Wifi_BLE_SDK/GD32VW55x_RELEASE_V1.0.2/MSDK/ble/app\ble_init.c ****     app_virtual_hci_enable();
 497:C:/Users/stapi/OneDrive/Desktop/GD32VW553/GD32VW55X_Wifi_BLE_SDK/GD32VW55x_RELEASE_V1.0.2/MSDK/ble/app\ble_init.c **** #endif
 498:C:/Users/stapi/OneDrive/Desktop/GD32VW553/GD32VW55X_Wifi_BLE_SDK/GD32VW55x_RELEASE_V1.0.2/MSDK/ble/app\ble_init.c **** 
 499:C:/Users/stapi/OneDrive/Desktop/GD32VW553/GD32VW55X_Wifi_BLE_SDK/GD32VW55x_RELEASE_V1.0.2/MSDK/ble/app\ble_init.c **** #if (BLE_APP_SUPPORT)
 500:C:/Users/stapi/OneDrive/Desktop/GD32VW553/GD32VW55X_Wifi_BLE_SDK/GD32VW55x_RELEASE_V1.0.2/MSDK/ble/app\ble_init.c ****     ble_module_init();
 460              		.loc 1 500 5 discriminator 3
 461 008e 97000000 		call	ble_module_init
 461      E7800000 
 462              	.LVL60:
 501:C:/Users/stapi/OneDrive/Desktop/GD32VW553/GD32VW55X_Wifi_BLE_SDK/GD32VW55x_RELEASE_V1.0.2/MSDK/ble/app\ble_init.c **** 
 502:C:/Users/stapi/OneDrive/Desktop/GD32VW553/GD32VW55X_Wifi_BLE_SDK/GD32VW55x_RELEASE_V1.0.2/MSDK/ble/app\ble_init.c ****     ble_app_init();
 463              		.loc 1 502 5 discriminator 3
 464 0096 97000000 		call	ble_app_init
 464      E7800000 
 465              	.LVL61:
 503:C:/Users/stapi/OneDrive/Desktop/GD32VW553/GD32VW55X_Wifi_BLE_SDK/GD32VW55x_RELEASE_V1.0.2/MSDK/ble/app\ble_init.c **** #endif // (BLE_APP_SUPPORT)
 504:C:/Users/stapi/OneDrive/Desktop/GD32VW553/GD32VW55X_Wifi_BLE_SDK/GD32VW55x_RELEASE_V1.0.2/MSDK/ble/app\ble_init.c **** 
 505:C:/Users/stapi/OneDrive/Desktop/GD32VW553/GD32VW55X_Wifi_BLE_SDK/GD32VW55x_RELEASE_V1.0.2/MSDK/ble/app\ble_init.c ****     /* ble need to close deep sleep before flash erase */
 506:C:/Users/stapi/OneDrive/Desktop/GD32VW553/GD32VW55X_Wifi_BLE_SDK/GD32VW55x_RELEASE_V1.0.2/MSDK/ble/app\ble_init.c ****     raw_flash_erase_handler_register(ble_flash_erase_handler);
 466              		.loc 1 506 5 discriminator 3
 467 009e 37050000 		lui	a0,%hi(ble_flash_erase_handler)
 468 00a2 13050500 		addi	a0,a0,%lo(ble_flash_erase_handler)
 469 00a6 97000000 		call	raw_flash_erase_handler_register
 469      E7800000 
 470              	.LVL62:
 507:C:/Users/stapi/OneDrive/Desktop/GD32VW553/GD32VW55X_Wifi_BLE_SDK/GD32VW55x_RELEASE_V1.0.2/MSDK/ble/app\ble_init.c **** #else
 508:C:/Users/stapi/OneDrive/Desktop/GD32VW553/GD32VW55X_Wifi_BLE_SDK/GD32VW55x_RELEASE_V1.0.2/MSDK/ble/app\ble_init.c **** #ifdef CFG_VIRTUAL_HCI_MODE
 509:C:/Users/stapi/OneDrive/Desktop/GD32VW553/GD32VW55X_Wifi_BLE_SDK/GD32VW55x_RELEASE_V1.0.2/MSDK/ble/app\ble_init.c ****     tkl_virtual_hci_init();
 510:C:/Users/stapi/OneDrive/Desktop/GD32VW553/GD32VW55X_Wifi_BLE_SDK/GD32VW55x_RELEASE_V1.0.2/MSDK/ble/app\ble_init.c **** #else
 511:C:/Users/stapi/OneDrive/Desktop/GD32VW553/GD32VW55X_Wifi_BLE_SDK/GD32VW55x_RELEASE_V1.0.2/MSDK/ble/app\ble_init.c ****     // Workaround for tuya project
 512:C:/Users/stapi/OneDrive/Desktop/GD32VW553/GD32VW55X_Wifi_BLE_SDK/GD32VW55x_RELEASE_V1.0.2/MSDK/ble/app\ble_init.c ****     // If Tuya change the workflow, this code can be removed
 513:C:/Users/stapi/OneDrive/Desktop/GD32VW553/GD32VW55X_Wifi_BLE_SDK/GD32VW55x_RELEASE_V1.0.2/MSDK/ble/app\ble_init.c ****     tuya_adp_init(3);
 514:C:/Users/stapi/OneDrive/Desktop/GD32VW553/GD32VW55X_Wifi_BLE_SDK/GD32VW55x_RELEASE_V1.0.2/MSDK/ble/app\ble_init.c **** #endif
 515:C:/Users/stapi/OneDrive/Desktop/GD32VW553/GD32VW55X_Wifi_BLE_SDK/GD32VW55x_RELEASE_V1.0.2/MSDK/ble/app\ble_init.c **** #endif
 516:C:/Users/stapi/OneDrive/Desktop/GD32VW553/GD32VW55X_Wifi_BLE_SDK/GD32VW55x_RELEASE_V1.0.2/MSDK/ble/app\ble_init.c **** 
 517:C:/Users/stapi/OneDrive/Desktop/GD32VW553/GD32VW55X_Wifi_BLE_SDK/GD32VW55x_RELEASE_V1.0.2/MSDK/ble/app\ble_init.c **** #ifdef CFG_COEX
 518:C:/Users/stapi/OneDrive/Desktop/GD32VW553/GD32VW55X_Wifi_BLE_SDK/GD32VW55x_RELEASE_V1.0.2/MSDK/ble/app\ble_init.c ****     ble_coex_evt_notify_register(coex_ble_event_notify);
 471              		.loc 1 518 5 discriminator 3
 472 00ae 37050000 		lui	a0,%hi(coex_ble_event_notify)
 473 00b2 13050500 		addi	a0,a0,%lo(coex_ble_event_notify)
 474 00b6 97000000 		call	ble_coex_evt_notify_register
 474      E7800000 
 475              	.LVL63:
 519:C:/Users/stapi/OneDrive/Desktop/GD32VW553/GD32VW55X_Wifi_BLE_SDK/GD32VW55x_RELEASE_V1.0.2/MSDK/ble/app\ble_init.c **** #endif
 520:C:/Users/stapi/OneDrive/Desktop/GD32VW553/GD32VW55X_Wifi_BLE_SDK/GD32VW55x_RELEASE_V1.0.2/MSDK/ble/app\ble_init.c **** 
 521:C:/Users/stapi/OneDrive/Desktop/GD32VW553/GD32VW55X_Wifi_BLE_SDK/GD32VW55x_RELEASE_V1.0.2/MSDK/ble/app\ble_init.c ****     ble_work_status_set(BLE_WORK_STATUS_ENABLE);
 476              		.loc 1 521 5 discriminator 3
 477 00be 0145     		li	a0,0
 478 00c0 97000000 		call	ble_work_status_set
 478      E7800000 
 479              	.LVL64:
 480              	.L29:
 522:C:/Users/stapi/OneDrive/Desktop/GD32VW553/GD32VW55X_Wifi_BLE_SDK/GD32VW55x_RELEASE_V1.0.2/MSDK/ble/app\ble_init.c **** }
 481              		.loc 1 522 1 is_stmt 0
 482 00c8 6161     		addi	sp,sp,80
 483              		.cfi_def_cfa_offset 0
 484 00ca 17030000 		tail	__riscv_restore_1
 484      67000300 
 485              		.cfi_restore 8
 486              		.cfi_restore 1
 487              		.cfi_def_cfa_offset -16
 488              		.cfi_endproc
 489              	.LFE15:
 491              		.section	.text.ble_deinit,"ax",@progbits
 492              		.align	1
 493              		.globl	ble_deinit
 495              	ble_deinit:
 496              	.LFB16:
 523:C:/Users/stapi/OneDrive/Desktop/GD32VW553/GD32VW55X_Wifi_BLE_SDK/GD32VW55x_RELEASE_V1.0.2/MSDK/ble/app\ble_init.c **** 
 524:C:/Users/stapi/OneDrive/Desktop/GD32VW553/GD32VW55X_Wifi_BLE_SDK/GD32VW55x_RELEASE_V1.0.2/MSDK/ble/app\ble_init.c **** /*!
 525:C:/Users/stapi/OneDrive/Desktop/GD32VW553/GD32VW55X_Wifi_BLE_SDK/GD32VW55x_RELEASE_V1.0.2/MSDK/ble/app\ble_init.c ****     \brief      Deinitialization of the BLE module
 526:C:/Users/stapi/OneDrive/Desktop/GD32VW553/GD32VW55X_Wifi_BLE_SDK/GD32VW55x_RELEASE_V1.0.2/MSDK/ble/app\ble_init.c ****     \param[in]  none
 527:C:/Users/stapi/OneDrive/Desktop/GD32VW553/GD32VW55X_Wifi_BLE_SDK/GD32VW55x_RELEASE_V1.0.2/MSDK/ble/app\ble_init.c ****     \param[out] none
 528:C:/Users/stapi/OneDrive/Desktop/GD32VW553/GD32VW55X_Wifi_BLE_SDK/GD32VW55x_RELEASE_V1.0.2/MSDK/ble/app\ble_init.c ****     \retval     none
 529:C:/Users/stapi/OneDrive/Desktop/GD32VW553/GD32VW55X_Wifi_BLE_SDK/GD32VW55x_RELEASE_V1.0.2/MSDK/ble/app\ble_init.c **** */
 530:C:/Users/stapi/OneDrive/Desktop/GD32VW553/GD32VW55X_Wifi_BLE_SDK/GD32VW55x_RELEASE_V1.0.2/MSDK/ble/app\ble_init.c **** void ble_deinit(void)
 531:C:/Users/stapi/OneDrive/Desktop/GD32VW553/GD32VW55X_Wifi_BLE_SDK/GD32VW55x_RELEASE_V1.0.2/MSDK/ble/app\ble_init.c **** {
 497              		.loc 1 531 1 is_stmt 1
 498              		.cfi_startproc
 499 0000 17030000 		call	t0,__riscv_save_0
 499      E7020300 
 500              		.cfi_offset 1, -4
 501              		.cfi_def_cfa_offset 16
 532:C:/Users/stapi/OneDrive/Desktop/GD32VW553/GD32VW55X_Wifi_BLE_SDK/GD32VW55x_RELEASE_V1.0.2/MSDK/ble/app\ble_init.c ****     raw_flash_erase_handler_unregister(ble_flash_erase_handler);
 502              		.loc 1 532 5
 503 0008 37050000 		lui	a0,%hi(ble_flash_erase_handler)
 504 000c 13050500 		addi	a0,a0,%lo(ble_flash_erase_handler)
 505 0010 97000000 		call	raw_flash_erase_handler_unregister
 505      E7800000 
 506              	.LVL65:
 533:C:/Users/stapi/OneDrive/Desktop/GD32VW553/GD32VW55X_Wifi_BLE_SDK/GD32VW55x_RELEASE_V1.0.2/MSDK/ble/app\ble_init.c **** 
 534:C:/Users/stapi/OneDrive/Desktop/GD32VW553/GD32VW55X_Wifi_BLE_SDK/GD32VW55x_RELEASE_V1.0.2/MSDK/ble/app\ble_init.c **** #if (BLE_APP_SUPPORT)
 535:C:/Users/stapi/OneDrive/Desktop/GD32VW553/GD32VW55X_Wifi_BLE_SDK/GD32VW55x_RELEASE_V1.0.2/MSDK/ble/app\ble_init.c ****     ble_app_deinit();
 507              		.loc 1 535 5
 508 0018 97000000 		call	ble_app_deinit
 508      E7800000 
 509              	.LVL66:
 536:C:/Users/stapi/OneDrive/Desktop/GD32VW553/GD32VW55X_Wifi_BLE_SDK/GD32VW55x_RELEASE_V1.0.2/MSDK/ble/app\ble_init.c **** #endif // (BLE_APP_SUPPORT)
 537:C:/Users/stapi/OneDrive/Desktop/GD32VW553/GD32VW55X_Wifi_BLE_SDK/GD32VW55x_RELEASE_V1.0.2/MSDK/ble/app\ble_init.c **** 
 538:C:/Users/stapi/OneDrive/Desktop/GD32VW553/GD32VW55X_Wifi_BLE_SDK/GD32VW55x_RELEASE_V1.0.2/MSDK/ble/app\ble_init.c ****     ble_power_off();
 510              		.loc 1 538 5
 511 0020 97000000 		call	ble_power_off
 511      E7800000 
 512              	.LVL67:
 539:C:/Users/stapi/OneDrive/Desktop/GD32VW553/GD32VW55X_Wifi_BLE_SDK/GD32VW55x_RELEASE_V1.0.2/MSDK/ble/app\ble_init.c **** 
 540:C:/Users/stapi/OneDrive/Desktop/GD32VW553/GD32VW55X_Wifi_BLE_SDK/GD32VW55x_RELEASE_V1.0.2/MSDK/ble/app\ble_init.c ****     ble_task_deinit();
 513              		.loc 1 540 5
 514              	.LBB16:
 515              	.LBB17:
 201:C:/Users/stapi/OneDrive/Desktop/GD32VW553/GD32VW55X_Wifi_BLE_SDK/GD32VW55x_RELEASE_V1.0.2/MSDK/ble/app\ble_init.c **** 
 516              		.loc 1 201 5
 517 0028 37050000 		lui	a0,%hi(.LANCHOR1)
 518 002c 13050500 		addi	a0,a0,%lo(.LANCHOR1)
 519 0030 97000000 		call	sys_sema_free
 519      E7800000 
 520              	.LVL68:
 203:C:/Users/stapi/OneDrive/Desktop/GD32VW553/GD32VW55X_Wifi_BLE_SDK/GD32VW55x_RELEASE_V1.0.2/MSDK/ble/app\ble_init.c **** 
 521              		.loc 1 203 5
 522 0038 97000000 		call	ble_stack_task_deinit
 522      E7800000 
 523              	.LVL69:
 206:C:/Users/stapi/OneDrive/Desktop/GD32VW553/GD32VW55X_Wifi_BLE_SDK/GD32VW55x_RELEASE_V1.0.2/MSDK/ble/app\ble_init.c **** #endif
 524              		.loc 1 206 5
 525 0040 97000000 		call	ble_app_task_deinit
 525      E7800000 
 526              	.LVL70:
 527              	.LBE17:
 528              	.LBE16:
 541:C:/Users/stapi/OneDrive/Desktop/GD32VW553/GD32VW55X_Wifi_BLE_SDK/GD32VW55x_RELEASE_V1.0.2/MSDK/ble/app\ble_init.c **** }
 529              		.loc 1 541 1 is_stmt 0
 530 0048 17030000 		tail	__riscv_restore_0
 530      67000300 
 531              		.cfi_restore 1
 532              		.cfi_def_cfa_offset 0
 533              		.cfi_endproc
 534              	.LFE16:
 536              		.globl	flash_erase_sleep_mode
 537              		.section	.rodata
 538              		.align	2
 539              		.set	.LANCHOR2,. + 0
 540              	.LC0:
 541 0000 00000000 		.word	sys_malloc
 542 0004 00000000 		.word	sys_calloc
 543 0008 00000000 		.word	sys_mfree
 544 000c 00000000 		.word	sys_memset
 545 0010 00000000 		.word	sys_memcpy
 546 0014 00000000 		.word	sys_memcmp
 547 0018 00000000 		.word	sys_task_create
 548 001c 00000000 		.word	sys_task_init_notification
 549 0020 00000000 		.word	sys_task_wait_notification
 550 0024 00000000 		.word	sys_task_notify
 551 0028 00000000 		.word	sys_task_delete
 552 002c 00000000 		.word	sys_ms_sleep
 553 0030 00000000 		.word	sys_current_task_handle_get
 554 0034 00000000 		.word	sys_queue_init
 555 0038 00000000 		.word	sys_queue_free
 556 003c 00000000 		.word	sys_queue_write
 557 0040 00000000 		.word	sys_queue_read
 558 0044 00000000 		.word	sys_random_bytes_get
 559              		.section	.sbss.ble_ready_sem,"aw",@nobits
 560              		.align	2
 561              		.set	.LANCHOR1,. + 0
 564              	ble_ready_sem:
 565 0000 00000000 		.zero	4
 566              		.section	.sbss.flash_erase_sleep_mode,"aw",@nobits
 567              		.set	.LANCHOR0,. + 0
 570              	flash_erase_sleep_mode:
 571 0000 00       		.zero	1
 572              		.text
 573              	.Letext0:
 574              		.file 2 "c:\\users\\stapi\\onedrive\\desktop\\gd32vw553\\embeddedbuilder_v1.4.7.26843\\tools\\nucl
 575              		.file 3 "c:\\users\\stapi\\onedrive\\desktop\\gd32vw553\\embeddedbuilder_v1.4.7.26843\\tools\\nucl
 576              		.file 4 "..\\..\\..\\..\\blesw\\src\\export/ble_error.h"
 577              		.file 5 "..\\..\\..\\..\\blesw\\src\\export/ble_gap.h"
 578              		.file 6 "c:\\users\\stapi\\onedrive\\desktop\\gd32vw553\\embeddedbuilder_v1.4.7.26843\\tools\\nucl
 579              		.file 7 "..\\..\\..\\..\\blesw\\src\\export/ble_export.h"
 580              		.file 8 "..\\..\\..\\..\\rtos\\rtos_wrapper/wrapper_os.h"
 581              		.file 9 "..\\..\\..\\..\\plf\\src\\raw_flash/raw_flash_api.h"
 582              		.file 10 "..\\..\\..\\..\\util\\include/dbg_print.h"
 583              		.file 11 "..\\..\\..\\..\\plf\\src/gd32vw55x_platform.h"
 584              		.file 12 "C:/Users/stapi/OneDrive/Desktop/GD32VW553/GD32VW55X_Wifi_BLE_SDK/GD32VW55x_RELEASE_V1.0.
 585              		.file 13 "..\\..\\..\\..\\util\\include/debug_print.h"
 586              		.file 14 "C:/Users/stapi/OneDrive/Desktop/GD32VW553/GD32VW55X_Wifi_BLE_SDK/GD32VW55x_RELEASE_V1.0.
 587              		.file 15 "C:/Users/stapi/OneDrive/Desktop/GD32VW553/GD32VW55X_Wifi_BLE_SDK/GD32VW55x_RELEASE_V1.0.
 588              		.file 16 "C:/Users/stapi/OneDrive/Desktop/GD32VW553/GD32VW55X_Wifi_BLE_SDK/GD32VW55x_RELEASE_V1.0.
 589              		.file 17 "C:/Users/stapi/OneDrive/Desktop/GD32VW553/GD32VW55X_Wifi_BLE_SDK/GD32VW55x_RELEASE_V1.0.
 590              		.file 18 "C:/Users/stapi/OneDrive/Desktop/GD32VW553/GD32VW55X_Wifi_BLE_SDK/GD32VW55x_RELEASE_V1.0.
 591              		.file 19 "C:/Users/stapi/OneDrive/Desktop/GD32VW553/GD32VW55X_Wifi_BLE_SDK/GD32VW55x_RELEASE_V1.0.
 592              		.file 20 "C:/Users/stapi/OneDrive/Desktop/GD32VW553/GD32VW55X_Wifi_BLE_SDK/GD32VW55x_RELEASE_V1.0.
 593              		.file 21 "C:/Users/stapi/OneDrive/Desktop/GD32VW553/GD32VW55X_Wifi_BLE_SDK/GD32VW55x_RELEASE_V1.0.
 594              		.file 22 "C:/Users/stapi/OneDrive/Desktop/GD32VW553/GD32VW55X_Wifi_BLE_SDK/GD32VW55x_RELEASE_V1.0.
 595              		.file 23 "C:/Users/stapi/OneDrive/Desktop/GD32VW553/GD32VW55X_Wifi_BLE_SDK/GD32VW55x_RELEASE_V1.0.
 596              		.file 24 "C:/Users/stapi/OneDrive/Desktop/GD32VW553/GD32VW55X_Wifi_BLE_SDK/GD32VW55x_RELEASE_V1.0.
 597              		.file 25 "C:/Users/stapi/OneDrive/Desktop/GD32VW553/GD32VW55X_Wifi_BLE_SDK/GD32VW55x_RELEASE_V1.0.
 598              		.file 26 "..\\..\\..\\..\\blesw\\src\\export/ble_adv.h"
 599              		.file 27 "..\\..\\..\\..\\blesw\\src\\export/ble_scan.h"
 600              		.file 28 "..\\..\\..\\..\\blesw\\src\\export/ble_sec.h"
 601              		.file 29 "..\\..\\..\\..\\blesw\\src\\export/ble_l2cap_coc.h"
 602              		.file 30 "..\\..\\..\\..\\blesw\\src\\export/ble_conn.h"
 603              		.file 31 "..\\..\\..\\..\\blesw\\src\\export/ble_gatts.h"
 604              		.file 32 "..\\..\\..\\..\\blesw\\src\\export/ble_gattc.h"
 605              		.file 33 "..\\..\\..\\..\\blesw\\src\\export/ble_storage.h"
 606              		.file 34 "..\\..\\..\\..\\blesw\\src\\export/ble_adapter.h"
 607              		.file 35 "<built-in>"