   1              		.file	"iperf3_main.c"
   2              		.option nopic
   3              		.attribute arch, "rv32i2p0_m2p0_a2p0_f2p0_c2p0_b_p0p94"
   4              		.attribute unaligned_access, 0
   5              		.attribute stack_align, 16
   6              		.text
   7              	.Ltext0:
   8              		.cfi_sections	.debug_frame
   9              		.section	.rodata.iperf_test_task.str1.4,"aMS",@progbits,1
  10              		.align	2
  11              	.LC0:
  12 0000 0D0A6572 		.string	"\r\nerror - %s"
  12      726F7220 
  12      2D202573 
  12      00
  13 000d 000000   		.align	2
  14              	.LC1:
  15 0010 0D0A746F 		.string	"\r\ntoo many errors, exiting"
  15      6F206D61 
  15      6E792065 
  15      72726F72 
  15      732C2065 
  16 002b 00       		.align	2
  17              	.LC2:
  18 002c 49706572 		.string	"Iperf3 task stopped!\r\n"
  18      66332074 
  18      61736B20 
  18      73746F70 
  18      70656421 
  19              		.section	.text.iperf_test_task,"ax",@progbits
  20              		.align	1
  21              		.globl	iperf_test_task
  23              	iperf_test_task:
  24              	.LFB14:
  25              		.file 1 "C:/Users/stapi/OneDrive/Desktop/GD32VW553/GD32VW55X_Wifi_BLE_SDK/GD32VW55x_RELEASE_V1.0.2
   1:C:/Users/stapi/OneDrive/Desktop/GD32VW553/GD32VW55X_Wifi_BLE_SDK/GD32VW55x_RELEASE_V1.0.2/MSDK/app\iperf3_main.c **** /*
   2:C:/Users/stapi/OneDrive/Desktop/GD32VW553/GD32VW55X_Wifi_BLE_SDK/GD32VW55x_RELEASE_V1.0.2/MSDK/app\iperf3_main.c ****  * iperf, Copyright (c) 2014, 2015, The Regents of the University of
   3:C:/Users/stapi/OneDrive/Desktop/GD32VW553/GD32VW55X_Wifi_BLE_SDK/GD32VW55x_RELEASE_V1.0.2/MSDK/app\iperf3_main.c ****  * California, through Lawrence Berkeley National Laboratory (subject
   4:C:/Users/stapi/OneDrive/Desktop/GD32VW553/GD32VW55X_Wifi_BLE_SDK/GD32VW55x_RELEASE_V1.0.2/MSDK/app\iperf3_main.c ****  * to receipt of any required approvals from the U.S. Dept. of
   5:C:/Users/stapi/OneDrive/Desktop/GD32VW553/GD32VW55X_Wifi_BLE_SDK/GD32VW55x_RELEASE_V1.0.2/MSDK/app\iperf3_main.c ****  * Energy).  All rights reserved.
   6:C:/Users/stapi/OneDrive/Desktop/GD32VW553/GD32VW55X_Wifi_BLE_SDK/GD32VW55x_RELEASE_V1.0.2/MSDK/app\iperf3_main.c ****  *
   7:C:/Users/stapi/OneDrive/Desktop/GD32VW553/GD32VW55X_Wifi_BLE_SDK/GD32VW55x_RELEASE_V1.0.2/MSDK/app\iperf3_main.c ****  * If you have questions about your rights to use or distribute this
   8:C:/Users/stapi/OneDrive/Desktop/GD32VW553/GD32VW55X_Wifi_BLE_SDK/GD32VW55x_RELEASE_V1.0.2/MSDK/app\iperf3_main.c ****  * software, please contact Berkeley Lab's Technology Transfer
   9:C:/Users/stapi/OneDrive/Desktop/GD32VW553/GD32VW55X_Wifi_BLE_SDK/GD32VW55x_RELEASE_V1.0.2/MSDK/app\iperf3_main.c ****  * Department at TTD@lbl.gov.
  10:C:/Users/stapi/OneDrive/Desktop/GD32VW553/GD32VW55X_Wifi_BLE_SDK/GD32VW55x_RELEASE_V1.0.2/MSDK/app\iperf3_main.c ****  *
  11:C:/Users/stapi/OneDrive/Desktop/GD32VW553/GD32VW55X_Wifi_BLE_SDK/GD32VW55x_RELEASE_V1.0.2/MSDK/app\iperf3_main.c ****  * NOTICE.  This software is owned by the U.S. Department of Energy.
  12:C:/Users/stapi/OneDrive/Desktop/GD32VW553/GD32VW55X_Wifi_BLE_SDK/GD32VW55x_RELEASE_V1.0.2/MSDK/app\iperf3_main.c ****  * As such, the U.S. Government has been granted for itself and others
  13:C:/Users/stapi/OneDrive/Desktop/GD32VW553/GD32VW55X_Wifi_BLE_SDK/GD32VW55x_RELEASE_V1.0.2/MSDK/app\iperf3_main.c ****  * acting on its behalf a paid-up, nonexclusive, irrevocable,
  14:C:/Users/stapi/OneDrive/Desktop/GD32VW553/GD32VW55X_Wifi_BLE_SDK/GD32VW55x_RELEASE_V1.0.2/MSDK/app\iperf3_main.c ****  * worldwide license in the Software to reproduce, prepare derivative
  15:C:/Users/stapi/OneDrive/Desktop/GD32VW553/GD32VW55X_Wifi_BLE_SDK/GD32VW55x_RELEASE_V1.0.2/MSDK/app\iperf3_main.c ****  * works, and perform publicly and display publicly.  Beginning five
  16:C:/Users/stapi/OneDrive/Desktop/GD32VW553/GD32VW55X_Wifi_BLE_SDK/GD32VW55x_RELEASE_V1.0.2/MSDK/app\iperf3_main.c ****  * (5) years after the date permission to assert copyright is obtained
  17:C:/Users/stapi/OneDrive/Desktop/GD32VW553/GD32VW55X_Wifi_BLE_SDK/GD32VW55x_RELEASE_V1.0.2/MSDK/app\iperf3_main.c ****  * from the U.S. Department of Energy, and subject to any subsequent
  18:C:/Users/stapi/OneDrive/Desktop/GD32VW553/GD32VW55X_Wifi_BLE_SDK/GD32VW55x_RELEASE_V1.0.2/MSDK/app\iperf3_main.c ****  * five (5) year renewals, the U.S. Government is granted for itself
  19:C:/Users/stapi/OneDrive/Desktop/GD32VW553/GD32VW55X_Wifi_BLE_SDK/GD32VW55x_RELEASE_V1.0.2/MSDK/app\iperf3_main.c ****  * and others acting on its behalf a paid-up, nonexclusive,
  20:C:/Users/stapi/OneDrive/Desktop/GD32VW553/GD32VW55X_Wifi_BLE_SDK/GD32VW55x_RELEASE_V1.0.2/MSDK/app\iperf3_main.c ****  * irrevocable, worldwide license in the Software to reproduce,
  21:C:/Users/stapi/OneDrive/Desktop/GD32VW553/GD32VW55X_Wifi_BLE_SDK/GD32VW55x_RELEASE_V1.0.2/MSDK/app\iperf3_main.c ****  * prepare derivative works, distribute copies to the public, perform
  22:C:/Users/stapi/OneDrive/Desktop/GD32VW553/GD32VW55X_Wifi_BLE_SDK/GD32VW55x_RELEASE_V1.0.2/MSDK/app\iperf3_main.c ****  * publicly and display publicly, and to permit others to do so.
  23:C:/Users/stapi/OneDrive/Desktop/GD32VW553/GD32VW55X_Wifi_BLE_SDK/GD32VW55x_RELEASE_V1.0.2/MSDK/app\iperf3_main.c ****  *
  24:C:/Users/stapi/OneDrive/Desktop/GD32VW553/GD32VW55X_Wifi_BLE_SDK/GD32VW55x_RELEASE_V1.0.2/MSDK/app\iperf3_main.c ****  * This code is distributed under a BSD style license, see the LICENSE
  25:C:/Users/stapi/OneDrive/Desktop/GD32VW553/GD32VW55X_Wifi_BLE_SDK/GD32VW55x_RELEASE_V1.0.2/MSDK/app\iperf3_main.c ****  * file for complete information.
  26:C:/Users/stapi/OneDrive/Desktop/GD32VW553/GD32VW55X_Wifi_BLE_SDK/GD32VW55x_RELEASE_V1.0.2/MSDK/app\iperf3_main.c ****  */
  27:C:/Users/stapi/OneDrive/Desktop/GD32VW553/GD32VW55X_Wifi_BLE_SDK/GD32VW55x_RELEASE_V1.0.2/MSDK/app\iperf3_main.c **** 
  28:C:/Users/stapi/OneDrive/Desktop/GD32VW553/GD32VW55X_Wifi_BLE_SDK/GD32VW55x_RELEASE_V1.0.2/MSDK/app\iperf3_main.c **** /*!
  29:C:/Users/stapi/OneDrive/Desktop/GD32VW553/GD32VW55X_Wifi_BLE_SDK/GD32VW55x_RELEASE_V1.0.2/MSDK/app\iperf3_main.c ****     \file    iperf3_main.c
  30:C:/Users/stapi/OneDrive/Desktop/GD32VW553/GD32VW55X_Wifi_BLE_SDK/GD32VW55x_RELEASE_V1.0.2/MSDK/app\iperf3_main.c ****     \brief   Main function for iperf3.
  31:C:/Users/stapi/OneDrive/Desktop/GD32VW553/GD32VW55X_Wifi_BLE_SDK/GD32VW55x_RELEASE_V1.0.2/MSDK/app\iperf3_main.c **** 
  32:C:/Users/stapi/OneDrive/Desktop/GD32VW553/GD32VW55X_Wifi_BLE_SDK/GD32VW55x_RELEASE_V1.0.2/MSDK/app\iperf3_main.c ****     \version 2023-07-20, V1.0.0, firmware for GD32VW55x
  33:C:/Users/stapi/OneDrive/Desktop/GD32VW553/GD32VW55X_Wifi_BLE_SDK/GD32VW55x_RELEASE_V1.0.2/MSDK/app\iperf3_main.c **** */
  34:C:/Users/stapi/OneDrive/Desktop/GD32VW553/GD32VW55X_Wifi_BLE_SDK/GD32VW55x_RELEASE_V1.0.2/MSDK/app\iperf3_main.c **** 
  35:C:/Users/stapi/OneDrive/Desktop/GD32VW553/GD32VW55X_Wifi_BLE_SDK/GD32VW55x_RELEASE_V1.0.2/MSDK/app\iperf3_main.c **** /*
  36:C:/Users/stapi/OneDrive/Desktop/GD32VW553/GD32VW55X_Wifi_BLE_SDK/GD32VW55x_RELEASE_V1.0.2/MSDK/app\iperf3_main.c ****     Copyright (c) 2023, GigaDevice Semiconductor Inc.
  37:C:/Users/stapi/OneDrive/Desktop/GD32VW553/GD32VW55X_Wifi_BLE_SDK/GD32VW55x_RELEASE_V1.0.2/MSDK/app\iperf3_main.c **** 
  38:C:/Users/stapi/OneDrive/Desktop/GD32VW553/GD32VW55X_Wifi_BLE_SDK/GD32VW55x_RELEASE_V1.0.2/MSDK/app\iperf3_main.c ****     Redistribution and use in source and binary forms, with or without modification,
  39:C:/Users/stapi/OneDrive/Desktop/GD32VW553/GD32VW55X_Wifi_BLE_SDK/GD32VW55x_RELEASE_V1.0.2/MSDK/app\iperf3_main.c **** are permitted provided that the following conditions are met:
  40:C:/Users/stapi/OneDrive/Desktop/GD32VW553/GD32VW55X_Wifi_BLE_SDK/GD32VW55x_RELEASE_V1.0.2/MSDK/app\iperf3_main.c **** 
  41:C:/Users/stapi/OneDrive/Desktop/GD32VW553/GD32VW55X_Wifi_BLE_SDK/GD32VW55x_RELEASE_V1.0.2/MSDK/app\iperf3_main.c ****     1. Redistributions of source code must retain the above copyright notice, this
  42:C:/Users/stapi/OneDrive/Desktop/GD32VW553/GD32VW55X_Wifi_BLE_SDK/GD32VW55x_RELEASE_V1.0.2/MSDK/app\iperf3_main.c ****        list of conditions and the following disclaimer.
  43:C:/Users/stapi/OneDrive/Desktop/GD32VW553/GD32VW55X_Wifi_BLE_SDK/GD32VW55x_RELEASE_V1.0.2/MSDK/app\iperf3_main.c ****     2. Redistributions in binary form must reproduce the above copyright notice,
  44:C:/Users/stapi/OneDrive/Desktop/GD32VW553/GD32VW55X_Wifi_BLE_SDK/GD32VW55x_RELEASE_V1.0.2/MSDK/app\iperf3_main.c ****        this list of conditions and the following disclaimer in the documentation
  45:C:/Users/stapi/OneDrive/Desktop/GD32VW553/GD32VW55X_Wifi_BLE_SDK/GD32VW55x_RELEASE_V1.0.2/MSDK/app\iperf3_main.c ****        and/or other materials provided with the distribution.
  46:C:/Users/stapi/OneDrive/Desktop/GD32VW553/GD32VW55X_Wifi_BLE_SDK/GD32VW55x_RELEASE_V1.0.2/MSDK/app\iperf3_main.c ****     3. Neither the name of the copyright holder nor the names of its contributors
  47:C:/Users/stapi/OneDrive/Desktop/GD32VW553/GD32VW55X_Wifi_BLE_SDK/GD32VW55x_RELEASE_V1.0.2/MSDK/app\iperf3_main.c ****        may be used to endorse or promote products derived from this software without
  48:C:/Users/stapi/OneDrive/Desktop/GD32VW553/GD32VW55X_Wifi_BLE_SDK/GD32VW55x_RELEASE_V1.0.2/MSDK/app\iperf3_main.c ****        specific prior written permission.
  49:C:/Users/stapi/OneDrive/Desktop/GD32VW553/GD32VW55X_Wifi_BLE_SDK/GD32VW55x_RELEASE_V1.0.2/MSDK/app\iperf3_main.c **** 
  50:C:/Users/stapi/OneDrive/Desktop/GD32VW553/GD32VW55X_Wifi_BLE_SDK/GD32VW55x_RELEASE_V1.0.2/MSDK/app\iperf3_main.c ****     THIS SOFTWARE IS PROVIDED BY THE COPYRIGHT HOLDERS AND CONTRIBUTORS "AS IS"
  51:C:/Users/stapi/OneDrive/Desktop/GD32VW553/GD32VW55X_Wifi_BLE_SDK/GD32VW55x_RELEASE_V1.0.2/MSDK/app\iperf3_main.c **** AND ANY EXPRESS OR IMPLIED WARRANTIES, INCLUDING, BUT NOT LIMITED TO, THE IMPLIED
  52:C:/Users/stapi/OneDrive/Desktop/GD32VW553/GD32VW55X_Wifi_BLE_SDK/GD32VW55x_RELEASE_V1.0.2/MSDK/app\iperf3_main.c **** WARRANTIES OF MERCHANTABILITY AND FITNESS FOR A PARTICULAR PURPOSE ARE DISCLAIMED.
  53:C:/Users/stapi/OneDrive/Desktop/GD32VW553/GD32VW55X_Wifi_BLE_SDK/GD32VW55x_RELEASE_V1.0.2/MSDK/app\iperf3_main.c **** IN NO EVENT SHALL THE COPYRIGHT HOLDER OR CONTRIBUTORS BE LIABLE FOR ANY DIRECT,
  54:C:/Users/stapi/OneDrive/Desktop/GD32VW553/GD32VW55X_Wifi_BLE_SDK/GD32VW55x_RELEASE_V1.0.2/MSDK/app\iperf3_main.c **** INDIRECT, INCIDENTAL, SPECIAL, EXEMPLARY, OR CONSEQUENTIAL DAMAGES (INCLUDING, BUT
  55:C:/Users/stapi/OneDrive/Desktop/GD32VW553/GD32VW55X_Wifi_BLE_SDK/GD32VW55x_RELEASE_V1.0.2/MSDK/app\iperf3_main.c **** NOT LIMITED TO, PROCUREMENT OF SUBSTITUTE GOODS OR SERVICES; LOSS OF USE, DATA, OR
  56:C:/Users/stapi/OneDrive/Desktop/GD32VW553/GD32VW55X_Wifi_BLE_SDK/GD32VW55x_RELEASE_V1.0.2/MSDK/app\iperf3_main.c **** PROFITS; OR BUSINESS INTERRUPTION) HOWEVER CAUSED AND ON ANY THEORY OF LIABILITY,
  57:C:/Users/stapi/OneDrive/Desktop/GD32VW553/GD32VW55X_Wifi_BLE_SDK/GD32VW55x_RELEASE_V1.0.2/MSDK/app\iperf3_main.c **** WHETHER IN CONTRACT, STRICT LIABILITY, OR TORT (INCLUDING NEGLIGENCE OR OTHERWISE)
  58:C:/Users/stapi/OneDrive/Desktop/GD32VW553/GD32VW55X_Wifi_BLE_SDK/GD32VW55x_RELEASE_V1.0.2/MSDK/app\iperf3_main.c **** ARISING IN ANY WAY OUT OF THE USE OF THIS SOFTWARE, EVEN IF ADVISED OF THE POSSIBILITY
  59:C:/Users/stapi/OneDrive/Desktop/GD32VW553/GD32VW55X_Wifi_BLE_SDK/GD32VW55x_RELEASE_V1.0.2/MSDK/app\iperf3_main.c **** OF SUCH DAMAGE.
  60:C:/Users/stapi/OneDrive/Desktop/GD32VW553/GD32VW55X_Wifi_BLE_SDK/GD32VW55x_RELEASE_V1.0.2/MSDK/app\iperf3_main.c **** */
  61:C:/Users/stapi/OneDrive/Desktop/GD32VW553/GD32VW55X_Wifi_BLE_SDK/GD32VW55x_RELEASE_V1.0.2/MSDK/app\iperf3_main.c **** 
  62:C:/Users/stapi/OneDrive/Desktop/GD32VW553/GD32VW55X_Wifi_BLE_SDK/GD32VW55x_RELEASE_V1.0.2/MSDK/app\iperf3_main.c **** #include <string.h>
  63:C:/Users/stapi/OneDrive/Desktop/GD32VW553/GD32VW55X_Wifi_BLE_SDK/GD32VW55x_RELEASE_V1.0.2/MSDK/app\iperf3_main.c **** #include "app_cfg.h"
  64:C:/Users/stapi/OneDrive/Desktop/GD32VW553/GD32VW55X_Wifi_BLE_SDK/GD32VW55x_RELEASE_V1.0.2/MSDK/app\iperf3_main.c **** 
  65:C:/Users/stapi/OneDrive/Desktop/GD32VW553/GD32VW55X_Wifi_BLE_SDK/GD32VW55x_RELEASE_V1.0.2/MSDK/app\iperf3_main.c **** #ifdef CONFIG_IPERF3_TEST
  66:C:/Users/stapi/OneDrive/Desktop/GD32VW553/GD32VW55X_Wifi_BLE_SDK/GD32VW55x_RELEASE_V1.0.2/MSDK/app\iperf3_main.c **** #include "wrapper_os.h"
  67:C:/Users/stapi/OneDrive/Desktop/GD32VW553/GD32VW55X_Wifi_BLE_SDK/GD32VW55x_RELEASE_V1.0.2/MSDK/app\iperf3_main.c **** #include "dbg_print.h"
  68:C:/Users/stapi/OneDrive/Desktop/GD32VW553/GD32VW55X_Wifi_BLE_SDK/GD32VW55x_RELEASE_V1.0.2/MSDK/app\iperf3_main.c **** #include "cmd_shell.h"
  69:C:/Users/stapi/OneDrive/Desktop/GD32VW553/GD32VW55X_Wifi_BLE_SDK/GD32VW55x_RELEASE_V1.0.2/MSDK/app\iperf3_main.c **** #include <lwip/sockets.h>
  70:C:/Users/stapi/OneDrive/Desktop/GD32VW553/GD32VW55X_Wifi_BLE_SDK/GD32VW55x_RELEASE_V1.0.2/MSDK/app\iperf3_main.c **** 
  71:C:/Users/stapi/OneDrive/Desktop/GD32VW553/GD32VW55X_Wifi_BLE_SDK/GD32VW55x_RELEASE_V1.0.2/MSDK/app\iperf3_main.c **** #include "iperf_queue.h"
  72:C:/Users/stapi/OneDrive/Desktop/GD32VW553/GD32VW55X_Wifi_BLE_SDK/GD32VW55x_RELEASE_V1.0.2/MSDK/app\iperf3_main.c **** #include "iperf_timer.h"
  73:C:/Users/stapi/OneDrive/Desktop/GD32VW553/GD32VW55X_Wifi_BLE_SDK/GD32VW55x_RELEASE_V1.0.2/MSDK/app\iperf3_main.c **** #include "iperf.h"
  74:C:/Users/stapi/OneDrive/Desktop/GD32VW553/GD32VW55X_Wifi_BLE_SDK/GD32VW55x_RELEASE_V1.0.2/MSDK/app\iperf3_main.c **** #include "iperf_api.h"
  75:C:/Users/stapi/OneDrive/Desktop/GD32VW553/GD32VW55X_Wifi_BLE_SDK/GD32VW55x_RELEASE_V1.0.2/MSDK/app\iperf3_main.c **** 
  76:C:/Users/stapi/OneDrive/Desktop/GD32VW553/GD32VW55X_Wifi_BLE_SDK/GD32VW55x_RELEASE_V1.0.2/MSDK/app\iperf3_main.c **** #undef iperf_err
  77:C:/Users/stapi/OneDrive/Desktop/GD32VW553/GD32VW55X_Wifi_BLE_SDK/GD32VW55x_RELEASE_V1.0.2/MSDK/app\iperf3_main.c **** #define iperf_err(a, fmt, arg...)       \
  78:C:/Users/stapi/OneDrive/Desktop/GD32VW553/GD32VW55X_Wifi_BLE_SDK/GD32VW55x_RELEASE_V1.0.2/MSDK/app\iperf3_main.c ****         do {                            \
  79:C:/Users/stapi/OneDrive/Desktop/GD32VW553/GD32VW55X_Wifi_BLE_SDK/GD32VW55x_RELEASE_V1.0.2/MSDK/app\iperf3_main.c ****             app_print("\r\n"fmt, ##arg);   \
  80:C:/Users/stapi/OneDrive/Desktop/GD32VW553/GD32VW55X_Wifi_BLE_SDK/GD32VW55x_RELEASE_V1.0.2/MSDK/app\iperf3_main.c ****         } while(0);
  81:C:/Users/stapi/OneDrive/Desktop/GD32VW553/GD32VW55X_Wifi_BLE_SDK/GD32VW55x_RELEASE_V1.0.2/MSDK/app\iperf3_main.c **** 
  82:C:/Users/stapi/OneDrive/Desktop/GD32VW553/GD32VW55X_Wifi_BLE_SDK/GD32VW55x_RELEASE_V1.0.2/MSDK/app\iperf3_main.c **** unsigned char iperf_terminate;
  83:C:/Users/stapi/OneDrive/Desktop/GD32VW553/GD32VW55X_Wifi_BLE_SDK/GD32VW55x_RELEASE_V1.0.2/MSDK/app\iperf3_main.c **** unsigned char iperf_task_num = 0;
  84:C:/Users/stapi/OneDrive/Desktop/GD32VW553/GD32VW55X_Wifi_BLE_SDK/GD32VW55x_RELEASE_V1.0.2/MSDK/app\iperf3_main.c **** 
  85:C:/Users/stapi/OneDrive/Desktop/GD32VW553/GD32VW55X_Wifi_BLE_SDK/GD32VW55x_RELEASE_V1.0.2/MSDK/app\iperf3_main.c **** os_task_t *iperf_task_tcb_ptr[IPERF_TASK_MAX] = {NULL};
  86:C:/Users/stapi/OneDrive/Desktop/GD32VW553/GD32VW55X_Wifi_BLE_SDK/GD32VW55x_RELEASE_V1.0.2/MSDK/app\iperf3_main.c **** void cmd_iperf3(int argc, char **argv);
  87:C:/Users/stapi/OneDrive/Desktop/GD32VW553/GD32VW55X_Wifi_BLE_SDK/GD32VW55x_RELEASE_V1.0.2/MSDK/app\iperf3_main.c **** 
  88:C:/Users/stapi/OneDrive/Desktop/GD32VW553/GD32VW55X_Wifi_BLE_SDK/GD32VW55x_RELEASE_V1.0.2/MSDK/app\iperf3_main.c **** extern void gnu_getopt_reset(void);
  89:C:/Users/stapi/OneDrive/Desktop/GD32VW553/GD32VW55X_Wifi_BLE_SDK/GD32VW55x_RELEASE_V1.0.2/MSDK/app\iperf3_main.c **** 
  90:C:/Users/stapi/OneDrive/Desktop/GD32VW553/GD32VW55X_Wifi_BLE_SDK/GD32VW55x_RELEASE_V1.0.2/MSDK/app\iperf3_main.c **** /**************************************************************************/
  91:C:/Users/stapi/OneDrive/Desktop/GD32VW553/GD32VW55X_Wifi_BLE_SDK/GD32VW55x_RELEASE_V1.0.2/MSDK/app\iperf3_main.c **** static int iperf_run(struct iperf_test *test)
  92:C:/Users/stapi/OneDrive/Desktop/GD32VW553/GD32VW55X_Wifi_BLE_SDK/GD32VW55x_RELEASE_V1.0.2/MSDK/app\iperf3_main.c **** {
  93:C:/Users/stapi/OneDrive/Desktop/GD32VW553/GD32VW55X_Wifi_BLE_SDK/GD32VW55x_RELEASE_V1.0.2/MSDK/app\iperf3_main.c ****     int consecutive_errors;
  94:C:/Users/stapi/OneDrive/Desktop/GD32VW553/GD32VW55X_Wifi_BLE_SDK/GD32VW55x_RELEASE_V1.0.2/MSDK/app\iperf3_main.c **** 
  95:C:/Users/stapi/OneDrive/Desktop/GD32VW553/GD32VW55X_Wifi_BLE_SDK/GD32VW55x_RELEASE_V1.0.2/MSDK/app\iperf3_main.c ****     switch (test->role) {
  96:C:/Users/stapi/OneDrive/Desktop/GD32VW553/GD32VW55X_Wifi_BLE_SDK/GD32VW55x_RELEASE_V1.0.2/MSDK/app\iperf3_main.c ****     case 's':
  97:C:/Users/stapi/OneDrive/Desktop/GD32VW553/GD32VW55X_Wifi_BLE_SDK/GD32VW55x_RELEASE_V1.0.2/MSDK/app\iperf3_main.c ****         if (test->daemon) {
  98:C:/Users/stapi/OneDrive/Desktop/GD32VW553/GD32VW55X_Wifi_BLE_SDK/GD32VW55x_RELEASE_V1.0.2/MSDK/app\iperf3_main.c ****             int rc = 0; //daemon(0, 0);
  99:C:/Users/stapi/OneDrive/Desktop/GD32VW553/GD32VW55X_Wifi_BLE_SDK/GD32VW55x_RELEASE_V1.0.2/MSDK/app\iperf3_main.c ****             if (rc < 0) {
 100:C:/Users/stapi/OneDrive/Desktop/GD32VW553/GD32VW55X_Wifi_BLE_SDK/GD32VW55x_RELEASE_V1.0.2/MSDK/app\iperf3_main.c ****                 i_errno = 133; //IEDAEMON;
 101:C:/Users/stapi/OneDrive/Desktop/GD32VW553/GD32VW55X_Wifi_BLE_SDK/GD32VW55x_RELEASE_V1.0.2/MSDK/app\iperf3_main.c ****                 iperf_err(test, "error - %s", iperf_strerror(i_errno));
 102:C:/Users/stapi/OneDrive/Desktop/GD32VW553/GD32VW55X_Wifi_BLE_SDK/GD32VW55x_RELEASE_V1.0.2/MSDK/app\iperf3_main.c ****                 return (-1);
 103:C:/Users/stapi/OneDrive/Desktop/GD32VW553/GD32VW55X_Wifi_BLE_SDK/GD32VW55x_RELEASE_V1.0.2/MSDK/app\iperf3_main.c ****             }
 104:C:/Users/stapi/OneDrive/Desktop/GD32VW553/GD32VW55X_Wifi_BLE_SDK/GD32VW55x_RELEASE_V1.0.2/MSDK/app\iperf3_main.c ****         }
 105:C:/Users/stapi/OneDrive/Desktop/GD32VW553/GD32VW55X_Wifi_BLE_SDK/GD32VW55x_RELEASE_V1.0.2/MSDK/app\iperf3_main.c ****         consecutive_errors = 0;
 106:C:/Users/stapi/OneDrive/Desktop/GD32VW553/GD32VW55X_Wifi_BLE_SDK/GD32VW55x_RELEASE_V1.0.2/MSDK/app\iperf3_main.c **** 
 107:C:/Users/stapi/OneDrive/Desktop/GD32VW553/GD32VW55X_Wifi_BLE_SDK/GD32VW55x_RELEASE_V1.0.2/MSDK/app\iperf3_main.c ****         for (;;) {
 108:C:/Users/stapi/OneDrive/Desktop/GD32VW553/GD32VW55X_Wifi_BLE_SDK/GD32VW55x_RELEASE_V1.0.2/MSDK/app\iperf3_main.c ****             if (iperf_terminate) {
 109:C:/Users/stapi/OneDrive/Desktop/GD32VW553/GD32VW55X_Wifi_BLE_SDK/GD32VW55x_RELEASE_V1.0.2/MSDK/app\iperf3_main.c ****                 break;
 110:C:/Users/stapi/OneDrive/Desktop/GD32VW553/GD32VW55X_Wifi_BLE_SDK/GD32VW55x_RELEASE_V1.0.2/MSDK/app\iperf3_main.c ****             }
 111:C:/Users/stapi/OneDrive/Desktop/GD32VW553/GD32VW55X_Wifi_BLE_SDK/GD32VW55x_RELEASE_V1.0.2/MSDK/app\iperf3_main.c ****             if (iperf_run_server(test) < 0) {
 112:C:/Users/stapi/OneDrive/Desktop/GD32VW553/GD32VW55X_Wifi_BLE_SDK/GD32VW55x_RELEASE_V1.0.2/MSDK/app\iperf3_main.c ****                 iperf_err(test, "error - %s", iperf_strerror(i_errno));
 113:C:/Users/stapi/OneDrive/Desktop/GD32VW553/GD32VW55X_Wifi_BLE_SDK/GD32VW55x_RELEASE_V1.0.2/MSDK/app\iperf3_main.c ****                 ++consecutive_errors;
 114:C:/Users/stapi/OneDrive/Desktop/GD32VW553/GD32VW55X_Wifi_BLE_SDK/GD32VW55x_RELEASE_V1.0.2/MSDK/app\iperf3_main.c ****                 if (consecutive_errors >= 5) {
 115:C:/Users/stapi/OneDrive/Desktop/GD32VW553/GD32VW55X_Wifi_BLE_SDK/GD32VW55x_RELEASE_V1.0.2/MSDK/app\iperf3_main.c ****                     iperf_err(test, "too many errors, exiting");
 116:C:/Users/stapi/OneDrive/Desktop/GD32VW553/GD32VW55X_Wifi_BLE_SDK/GD32VW55x_RELEASE_V1.0.2/MSDK/app\iperf3_main.c ****                     return (-1);
 117:C:/Users/stapi/OneDrive/Desktop/GD32VW553/GD32VW55X_Wifi_BLE_SDK/GD32VW55x_RELEASE_V1.0.2/MSDK/app\iperf3_main.c ****                 }
 118:C:/Users/stapi/OneDrive/Desktop/GD32VW553/GD32VW55X_Wifi_BLE_SDK/GD32VW55x_RELEASE_V1.0.2/MSDK/app\iperf3_main.c ****             } else {
 119:C:/Users/stapi/OneDrive/Desktop/GD32VW553/GD32VW55X_Wifi_BLE_SDK/GD32VW55x_RELEASE_V1.0.2/MSDK/app\iperf3_main.c ****                 consecutive_errors = 0;
 120:C:/Users/stapi/OneDrive/Desktop/GD32VW553/GD32VW55X_Wifi_BLE_SDK/GD32VW55x_RELEASE_V1.0.2/MSDK/app\iperf3_main.c ****             }
 121:C:/Users/stapi/OneDrive/Desktop/GD32VW553/GD32VW55X_Wifi_BLE_SDK/GD32VW55x_RELEASE_V1.0.2/MSDK/app\iperf3_main.c ****             iperf_reset_test(test);
 122:C:/Users/stapi/OneDrive/Desktop/GD32VW553/GD32VW55X_Wifi_BLE_SDK/GD32VW55x_RELEASE_V1.0.2/MSDK/app\iperf3_main.c ****             if (iperf_get_test_one_off(test))
 123:C:/Users/stapi/OneDrive/Desktop/GD32VW553/GD32VW55X_Wifi_BLE_SDK/GD32VW55x_RELEASE_V1.0.2/MSDK/app\iperf3_main.c ****                 break;
 124:C:/Users/stapi/OneDrive/Desktop/GD32VW553/GD32VW55X_Wifi_BLE_SDK/GD32VW55x_RELEASE_V1.0.2/MSDK/app\iperf3_main.c ****         }
 125:C:/Users/stapi/OneDrive/Desktop/GD32VW553/GD32VW55X_Wifi_BLE_SDK/GD32VW55x_RELEASE_V1.0.2/MSDK/app\iperf3_main.c **** 
 126:C:/Users/stapi/OneDrive/Desktop/GD32VW553/GD32VW55X_Wifi_BLE_SDK/GD32VW55x_RELEASE_V1.0.2/MSDK/app\iperf3_main.c ****         break;
 127:C:/Users/stapi/OneDrive/Desktop/GD32VW553/GD32VW55X_Wifi_BLE_SDK/GD32VW55x_RELEASE_V1.0.2/MSDK/app\iperf3_main.c ****     case 'c':
 128:C:/Users/stapi/OneDrive/Desktop/GD32VW553/GD32VW55X_Wifi_BLE_SDK/GD32VW55x_RELEASE_V1.0.2/MSDK/app\iperf3_main.c ****         if (iperf_run_client(test) < 0) {
 129:C:/Users/stapi/OneDrive/Desktop/GD32VW553/GD32VW55X_Wifi_BLE_SDK/GD32VW55x_RELEASE_V1.0.2/MSDK/app\iperf3_main.c ****             iperf_err(test, "error - %s", iperf_strerror(i_errno));
 130:C:/Users/stapi/OneDrive/Desktop/GD32VW553/GD32VW55X_Wifi_BLE_SDK/GD32VW55x_RELEASE_V1.0.2/MSDK/app\iperf3_main.c ****             return (-1);
 131:C:/Users/stapi/OneDrive/Desktop/GD32VW553/GD32VW55X_Wifi_BLE_SDK/GD32VW55x_RELEASE_V1.0.2/MSDK/app\iperf3_main.c ****         }
 132:C:/Users/stapi/OneDrive/Desktop/GD32VW553/GD32VW55X_Wifi_BLE_SDK/GD32VW55x_RELEASE_V1.0.2/MSDK/app\iperf3_main.c ****         break;
 133:C:/Users/stapi/OneDrive/Desktop/GD32VW553/GD32VW55X_Wifi_BLE_SDK/GD32VW55x_RELEASE_V1.0.2/MSDK/app\iperf3_main.c ****     default:
 134:C:/Users/stapi/OneDrive/Desktop/GD32VW553/GD32VW55X_Wifi_BLE_SDK/GD32VW55x_RELEASE_V1.0.2/MSDK/app\iperf3_main.c ****         usage();
 135:C:/Users/stapi/OneDrive/Desktop/GD32VW553/GD32VW55X_Wifi_BLE_SDK/GD32VW55x_RELEASE_V1.0.2/MSDK/app\iperf3_main.c ****         break;
 136:C:/Users/stapi/OneDrive/Desktop/GD32VW553/GD32VW55X_Wifi_BLE_SDK/GD32VW55x_RELEASE_V1.0.2/MSDK/app\iperf3_main.c ****     }
 137:C:/Users/stapi/OneDrive/Desktop/GD32VW553/GD32VW55X_Wifi_BLE_SDK/GD32VW55x_RELEASE_V1.0.2/MSDK/app\iperf3_main.c **** 
 138:C:/Users/stapi/OneDrive/Desktop/GD32VW553/GD32VW55X_Wifi_BLE_SDK/GD32VW55x_RELEASE_V1.0.2/MSDK/app\iperf3_main.c ****     return 0;
 139:C:/Users/stapi/OneDrive/Desktop/GD32VW553/GD32VW55X_Wifi_BLE_SDK/GD32VW55x_RELEASE_V1.0.2/MSDK/app\iperf3_main.c **** }
 140:C:/Users/stapi/OneDrive/Desktop/GD32VW553/GD32VW55X_Wifi_BLE_SDK/GD32VW55x_RELEASE_V1.0.2/MSDK/app\iperf3_main.c **** 
 141:C:/Users/stapi/OneDrive/Desktop/GD32VW553/GD32VW55X_Wifi_BLE_SDK/GD32VW55x_RELEASE_V1.0.2/MSDK/app\iperf3_main.c **** void iperf_test_task(void *param)
 142:C:/Users/stapi/OneDrive/Desktop/GD32VW553/GD32VW55X_Wifi_BLE_SDK/GD32VW55x_RELEASE_V1.0.2/MSDK/app\iperf3_main.c **** {
  26              		.loc 1 142 1
  27              		.cfi_startproc
  28              	.LVL0:
  29 0000 17030000 		call	t0,__riscv_save_7
  29      E7020300 
  30              		.cfi_offset 22, -32
  31              		.cfi_offset 21, -28
  32              		.cfi_offset 20, -24
  33              		.cfi_offset 19, -20
  34              		.cfi_offset 18, -16
  35              		.cfi_offset 9, -12
  36              		.cfi_offset 8, -8
  37              		.cfi_offset 1, -4
  38              		.cfi_def_cfa_offset 32
 143:C:/Users/stapi/OneDrive/Desktop/GD32VW553/GD32VW55X_Wifi_BLE_SDK/GD32VW55x_RELEASE_V1.0.2/MSDK/app\iperf3_main.c ****     struct iperf_test *test = (struct iperf_test *)param;
  39              		.loc 1 143 5
  40              	.LVL1:
 144:C:/Users/stapi/OneDrive/Desktop/GD32VW553/GD32VW55X_Wifi_BLE_SDK/GD32VW55x_RELEASE_V1.0.2/MSDK/app\iperf3_main.c ****     unsigned int tcb_index = test->task_tcb_index;
  41              		.loc 1 144 5
  42              	.LBB4:
  43              	.LBB5:
  95:C:/Users/stapi/OneDrive/Desktop/GD32VW553/GD32VW55X_Wifi_BLE_SDK/GD32VW55x_RELEASE_V1.0.2/MSDK/app\iperf3_main.c ****     case 's':
  44              		.loc 1 95 5 is_stmt 0
  45 0008 13073006 		li	a4,99
  46              	.LBE5:
  47              	.LBE4:
 142:C:/Users/stapi/OneDrive/Desktop/GD32VW553/GD32VW55X_Wifi_BLE_SDK/GD32VW55x_RELEASE_V1.0.2/MSDK/app\iperf3_main.c ****     struct iperf_test *test = (struct iperf_test *)param;
  48              		.loc 1 142 1
  49 000c 2A84     		mv	s0,a0
  50              		.loc 1 144 18
  51 000e 03090500 		lb	s2,0(a0)
  52              	.LVL2:
 145:C:/Users/stapi/OneDrive/Desktop/GD32VW553/GD32VW55X_Wifi_BLE_SDK/GD32VW55x_RELEASE_V1.0.2/MSDK/app\iperf3_main.c **** 
 146:C:/Users/stapi/OneDrive/Desktop/GD32VW553/GD32VW55X_Wifi_BLE_SDK/GD32VW55x_RELEASE_V1.0.2/MSDK/app\iperf3_main.c ****     SYS_SR_ALLOC();
  53              		.loc 1 146 19 is_stmt 1
 147:C:/Users/stapi/OneDrive/Desktop/GD32VW553/GD32VW55X_Wifi_BLE_SDK/GD32VW55x_RELEASE_V1.0.2/MSDK/app\iperf3_main.c **** 
 148:C:/Users/stapi/OneDrive/Desktop/GD32VW553/GD32VW55X_Wifi_BLE_SDK/GD32VW55x_RELEASE_V1.0.2/MSDK/app\iperf3_main.c ****     if (iperf_run(test) < 0) {
  54              		.loc 1 148 5
  55              	.LBB9:
  56              	.LBB6:
  93:C:/Users/stapi/OneDrive/Desktop/GD32VW553/GD32VW55X_Wifi_BLE_SDK/GD32VW55x_RELEASE_V1.0.2/MSDK/app\iperf3_main.c **** 
  57              		.loc 1 93 5
  95:C:/Users/stapi/OneDrive/Desktop/GD32VW553/GD32VW55X_Wifi_BLE_SDK/GD32VW55x_RELEASE_V1.0.2/MSDK/app\iperf3_main.c ****     case 's':
  58              		.loc 1 95 5
  95:C:/Users/stapi/OneDrive/Desktop/GD32VW553/GD32VW55X_Wifi_BLE_SDK/GD32VW55x_RELEASE_V1.0.2/MSDK/app\iperf3_main.c ****     case 's':
  59              		.loc 1 95 17 is_stmt 0
  60 0012 83071500 		lb	a5,1(a0)
  95:C:/Users/stapi/OneDrive/Desktop/GD32VW553/GD32VW55X_Wifi_BLE_SDK/GD32VW55x_RELEASE_V1.0.2/MSDK/app\iperf3_main.c ****     case 's':
  61              		.loc 1 95 5
  62 0016 638DE70E 		beq	a5,a4,.L2
  63 001a 13073007 		li	a4,115
  64 001e 6391E712 		bne	a5,a4,.L3
  65 0022 8144     		li	s1,0
 108:C:/Users/stapi/OneDrive/Desktop/GD32VW553/GD32VW55X_Wifi_BLE_SDK/GD32VW55x_RELEASE_V1.0.2/MSDK/app\iperf3_main.c ****                 break;
  66              		.loc 1 108 17
  67 0024 B7090000 		lui	s3,%hi(.LANCHOR0)
 112:C:/Users/stapi/OneDrive/Desktop/GD32VW553/GD32VW55X_Wifi_BLE_SDK/GD32VW55x_RELEASE_V1.0.2/MSDK/app\iperf3_main.c ****                 ++consecutive_errors;
  68              		.loc 1 112 17
  69 0028 370A0000 		lui	s4,%hi(i_errno)
  70 002c B70A0000 		lui	s5,%hi(.LC0)
 114:C:/Users/stapi/OneDrive/Desktop/GD32VW553/GD32VW55X_Wifi_BLE_SDK/GD32VW55x_RELEASE_V1.0.2/MSDK/app\iperf3_main.c ****                     iperf_err(test, "too many errors, exiting");
  71              		.loc 1 114 20
  72 0030 114B     		li	s6,4
  73              	.LVL3:
  74              	.L9:
 107:C:/Users/stapi/OneDrive/Desktop/GD32VW553/GD32VW55X_Wifi_BLE_SDK/GD32VW55x_RELEASE_V1.0.2/MSDK/app\iperf3_main.c ****             if (iperf_terminate) {
  75              		.loc 1 107 9 is_stmt 1
 108:C:/Users/stapi/OneDrive/Desktop/GD32VW553/GD32VW55X_Wifi_BLE_SDK/GD32VW55x_RELEASE_V1.0.2/MSDK/app\iperf3_main.c ****                 break;
  76              		.loc 1 108 13
 108:C:/Users/stapi/OneDrive/Desktop/GD32VW553/GD32VW55X_Wifi_BLE_SDK/GD32VW55x_RELEASE_V1.0.2/MSDK/app\iperf3_main.c ****                 break;
  77              		.loc 1 108 16 is_stmt 0
  78 0032 83C70900 		lbu	a5,%lo(.LANCHOR0)(s3)
  79 0036 B5EF     		bne	a5,zero,.L5
 111:C:/Users/stapi/OneDrive/Desktop/GD32VW553/GD32VW55X_Wifi_BLE_SDK/GD32VW55x_RELEASE_V1.0.2/MSDK/app\iperf3_main.c ****                 iperf_err(test, "error - %s", iperf_strerror(i_errno));
  80              		.loc 1 111 13 is_stmt 1
 111:C:/Users/stapi/OneDrive/Desktop/GD32VW553/GD32VW55X_Wifi_BLE_SDK/GD32VW55x_RELEASE_V1.0.2/MSDK/app\iperf3_main.c ****                 iperf_err(test, "error - %s", iperf_strerror(i_errno));
  81              		.loc 1 111 17 is_stmt 0
  82 0038 2285     		mv	a0,s0
  83 003a 97000000 		call	iperf_run_server
  83      E7800000 
  84              	.LVL4:
 111:C:/Users/stapi/OneDrive/Desktop/GD32VW553/GD32VW55X_Wifi_BLE_SDK/GD32VW55x_RELEASE_V1.0.2/MSDK/app\iperf3_main.c ****                 iperf_err(test, "error - %s", iperf_strerror(i_errno));
  85              		.loc 1 111 16
  86 0042 635C0504 		bge	a0,zero,.L10
 112:C:/Users/stapi/OneDrive/Desktop/GD32VW553/GD32VW55X_Wifi_BLE_SDK/GD32VW55x_RELEASE_V1.0.2/MSDK/app\iperf3_main.c ****                 ++consecutive_errors;
  87              		.loc 1 112 17 is_stmt 1
 112:C:/Users/stapi/OneDrive/Desktop/GD32VW553/GD32VW55X_Wifi_BLE_SDK/GD32VW55x_RELEASE_V1.0.2/MSDK/app\iperf3_main.c ****                 ++consecutive_errors;
  88              		.loc 1 112 17
  89 0046 03250A00 		lw	a0,%lo(i_errno)(s4)
 113:C:/Users/stapi/OneDrive/Desktop/GD32VW553/GD32VW55X_Wifi_BLE_SDK/GD32VW55x_RELEASE_V1.0.2/MSDK/app\iperf3_main.c ****                 if (consecutive_errors >= 5) {
  90              		.loc 1 113 17 is_stmt 0
  91 004a 8504     		addi	s1,s1,1
  92              	.LVL5:
 112:C:/Users/stapi/OneDrive/Desktop/GD32VW553/GD32VW55X_Wifi_BLE_SDK/GD32VW55x_RELEASE_V1.0.2/MSDK/app\iperf3_main.c ****                 ++consecutive_errors;
  93              		.loc 1 112 17
  94 004c 97000000 		call	iperf_strerror
  94      E7800000 
  95              	.LVL6:
  96 0054 AA85     		mv	a1,a0
  97 0056 13850A00 		addi	a0,s5,%lo(.LC0)
  98 005a 97000000 		call	co_printf
  98      E7800000 
  99              	.LVL7:
 112:C:/Users/stapi/OneDrive/Desktop/GD32VW553/GD32VW55X_Wifi_BLE_SDK/GD32VW55x_RELEASE_V1.0.2/MSDK/app\iperf3_main.c ****                 ++consecutive_errors;
 100              		.loc 1 112 17 is_stmt 1
 112:C:/Users/stapi/OneDrive/Desktop/GD32VW553/GD32VW55X_Wifi_BLE_SDK/GD32VW55x_RELEASE_V1.0.2/MSDK/app\iperf3_main.c ****                 ++consecutive_errors;
 101              		.loc 1 112 71
 113:C:/Users/stapi/OneDrive/Desktop/GD32VW553/GD32VW55X_Wifi_BLE_SDK/GD32VW55x_RELEASE_V1.0.2/MSDK/app\iperf3_main.c ****                 if (consecutive_errors >= 5) {
 102              		.loc 1 113 17
 114:C:/Users/stapi/OneDrive/Desktop/GD32VW553/GD32VW55X_Wifi_BLE_SDK/GD32VW55x_RELEASE_V1.0.2/MSDK/app\iperf3_main.c ****                     iperf_err(test, "too many errors, exiting");
 103              		.loc 1 114 17
 114:C:/Users/stapi/OneDrive/Desktop/GD32VW553/GD32VW55X_Wifi_BLE_SDK/GD32VW55x_RELEASE_V1.0.2/MSDK/app\iperf3_main.c ****                     iperf_err(test, "too many errors, exiting");
 104              		.loc 1 114 20 is_stmt 0
 105 0062 635D9B02 		ble	s1,s6,.L6
 115:C:/Users/stapi/OneDrive/Desktop/GD32VW553/GD32VW55X_Wifi_BLE_SDK/GD32VW55x_RELEASE_V1.0.2/MSDK/app\iperf3_main.c ****                     return (-1);
 106              		.loc 1 115 21 is_stmt 1
 115:C:/Users/stapi/OneDrive/Desktop/GD32VW553/GD32VW55X_Wifi_BLE_SDK/GD32VW55x_RELEASE_V1.0.2/MSDK/app\iperf3_main.c ****                     return (-1);
 107              		.loc 1 115 21
 108 0066 37050000 		lui	a0,%hi(.LC1)
 109 006a 13050500 		addi	a0,a0,%lo(.LC1)
 110 006e 97000000 		call	co_printf
 110      E7800000 
 111              	.LVL8:
 115:C:/Users/stapi/OneDrive/Desktop/GD32VW553/GD32VW55X_Wifi_BLE_SDK/GD32VW55x_RELEASE_V1.0.2/MSDK/app\iperf3_main.c ****                     return (-1);
 112              		.loc 1 115 21
 115:C:/Users/stapi/OneDrive/Desktop/GD32VW553/GD32VW55X_Wifi_BLE_SDK/GD32VW55x_RELEASE_V1.0.2/MSDK/app\iperf3_main.c ****                     return (-1);
 113              		.loc 1 115 64
 116:C:/Users/stapi/OneDrive/Desktop/GD32VW553/GD32VW55X_Wifi_BLE_SDK/GD32VW55x_RELEASE_V1.0.2/MSDK/app\iperf3_main.c ****                 }
 114              		.loc 1 116 21
 115              	.L7:
 116              	.LBE6:
 117              	.LBE9:
 149:C:/Users/stapi/OneDrive/Desktop/GD32VW553/GD32VW55X_Wifi_BLE_SDK/GD32VW55x_RELEASE_V1.0.2/MSDK/app\iperf3_main.c ****         iperf_err(test, "error - %s", iperf_strerror(i_errno));
 118              		.loc 1 149 9
 119              		.loc 1 149 9
 120 0076 B7070000 		lui	a5,%hi(i_errno)
 121 007a 03A50700 		lw	a0,%lo(i_errno)(a5)
 122 007e 97000000 		call	iperf_strerror
 122      E7800000 
 123              	.LVL9:
 124 0086 AA85     		mv	a1,a0
 125 0088 37050000 		lui	a0,%hi(.LC0)
 126 008c 13050500 		addi	a0,a0,%lo(.LC0)
 127 0090 97000000 		call	co_printf
 127      E7800000 
 128              	.LVL10:
 129 0098 29A8     		j	.L5
 130              	.LVL11:
 131              	.L10:
 132              	.LBB10:
 133              	.LBB7:
 119:C:/Users/stapi/OneDrive/Desktop/GD32VW553/GD32VW55X_Wifi_BLE_SDK/GD32VW55x_RELEASE_V1.0.2/MSDK/app\iperf3_main.c ****             }
 134              		.loc 1 119 36 is_stmt 0
 135 009a 8144     		li	s1,0
 136              	.LVL12:
 137              	.L6:
 121:C:/Users/stapi/OneDrive/Desktop/GD32VW553/GD32VW55X_Wifi_BLE_SDK/GD32VW55x_RELEASE_V1.0.2/MSDK/app\iperf3_main.c ****             if (iperf_get_test_one_off(test))
 138              		.loc 1 121 13 is_stmt 1
 139 009c 2285     		mv	a0,s0
 140 009e 97000000 		call	iperf_reset_test
 140      E7800000 
 141              	.LVL13:
 122:C:/Users/stapi/OneDrive/Desktop/GD32VW553/GD32VW55X_Wifi_BLE_SDK/GD32VW55x_RELEASE_V1.0.2/MSDK/app\iperf3_main.c ****                 break;
 142              		.loc 1 122 13
 122:C:/Users/stapi/OneDrive/Desktop/GD32VW553/GD32VW55X_Wifi_BLE_SDK/GD32VW55x_RELEASE_V1.0.2/MSDK/app\iperf3_main.c ****                 break;
 143              		.loc 1 122 17 is_stmt 0
 144 00a6 2285     		mv	a0,s0
 145 00a8 97000000 		call	iperf_get_test_one_off
 145      E7800000 
 146              	.LVL14:
 122:C:/Users/stapi/OneDrive/Desktop/GD32VW553/GD32VW55X_Wifi_BLE_SDK/GD32VW55x_RELEASE_V1.0.2/MSDK/app\iperf3_main.c ****                 break;
 147              		.loc 1 122 16
 148 00b0 49D1     		beq	a0,zero,.L9
 149              	.LVL15:
 150              	.L5:
 151              	.LBE7:
 152              	.LBE10:
 153              		.loc 1 149 9 is_stmt 1 discriminator 1
 154              		.loc 1 149 63 discriminator 1
 150:C:/Users/stapi/OneDrive/Desktop/GD32VW553/GD32VW55X_Wifi_BLE_SDK/GD32VW55x_RELEASE_V1.0.2/MSDK/app\iperf3_main.c ****         // iperf_free_test(test);
 151:C:/Users/stapi/OneDrive/Desktop/GD32VW553/GD32VW55X_Wifi_BLE_SDK/GD32VW55x_RELEASE_V1.0.2/MSDK/app\iperf3_main.c ****         // return;
 152:C:/Users/stapi/OneDrive/Desktop/GD32VW553/GD32VW55X_Wifi_BLE_SDK/GD32VW55x_RELEASE_V1.0.2/MSDK/app\iperf3_main.c ****     }
 153:C:/Users/stapi/OneDrive/Desktop/GD32VW553/GD32VW55X_Wifi_BLE_SDK/GD32VW55x_RELEASE_V1.0.2/MSDK/app\iperf3_main.c **** 
 154:C:/Users/stapi/OneDrive/Desktop/GD32VW553/GD32VW55X_Wifi_BLE_SDK/GD32VW55x_RELEASE_V1.0.2/MSDK/app\iperf3_main.c ****     iperf_free_test(test);
 155              		.loc 1 154 5 discriminator 1
 156 00b2 2285     		mv	a0,s0
 157 00b4 97000000 		call	iperf_free_test
 157      E7800000 
 158              	.LVL16:
 155:C:/Users/stapi/OneDrive/Desktop/GD32VW553/GD32VW55X_Wifi_BLE_SDK/GD32VW55x_RELEASE_V1.0.2/MSDK/app\iperf3_main.c **** 
 156:C:/Users/stapi/OneDrive/Desktop/GD32VW553/GD32VW55X_Wifi_BLE_SDK/GD32VW55x_RELEASE_V1.0.2/MSDK/app\iperf3_main.c ****     //app_print("\r\niperf3 task: used stack = %d, free stack = %d\r\n",
 157:C:/Users/stapi/OneDrive/Desktop/GD32VW553/GD32VW55X_Wifi_BLE_SDK/GD32VW55x_RELEASE_V1.0.2/MSDK/app\iperf3_main.c ****     //            (IPERF3_STACK_SIZE - sys_stack_free_get(NULL)), sys_stack_free_get(NULL));
 158:C:/Users/stapi/OneDrive/Desktop/GD32VW553/GD32VW55X_Wifi_BLE_SDK/GD32VW55x_RELEASE_V1.0.2/MSDK/app\iperf3_main.c **** 
 159:C:/Users/stapi/OneDrive/Desktop/GD32VW553/GD32VW55X_Wifi_BLE_SDK/GD32VW55x_RELEASE_V1.0.2/MSDK/app\iperf3_main.c ****     app_print("Iperf3 task stopped!\r\n");
 159              		.loc 1 159 5 discriminator 1
 160 00bc 37050000 		lui	a0,%hi(.LC2)
 161 00c0 13050500 		addi	a0,a0,%lo(.LC2)
 162 00c4 97000000 		call	co_printf
 162      E7800000 
 163              	.LVL17:
 160:C:/Users/stapi/OneDrive/Desktop/GD32VW553/GD32VW55X_Wifi_BLE_SDK/GD32VW55x_RELEASE_V1.0.2/MSDK/app\iperf3_main.c **** 
 161:C:/Users/stapi/OneDrive/Desktop/GD32VW553/GD32VW55X_Wifi_BLE_SDK/GD32VW55x_RELEASE_V1.0.2/MSDK/app\iperf3_main.c ****     sys_enter_critical();
 164              		.loc 1 161 5 discriminator 1
 165 00cc 97000000 		call	sys_enter_critical
 165      E7800000 
 166              	.LVL18:
 162:C:/Users/stapi/OneDrive/Desktop/GD32VW553/GD32VW55X_Wifi_BLE_SDK/GD32VW55x_RELEASE_V1.0.2/MSDK/app\iperf3_main.c ****     iperf_task_tcb_ptr[tcb_index] = NULL;
 167              		.loc 1 162 5 discriminator 1
 168              		.loc 1 162 35 is_stmt 0 discriminator 1
 169 00d4 B7070000 		lui	a5,%hi(.LANCHOR1)
 170 00d8 93870700 		addi	a5,a5,%lo(.LANCHOR1)
 171 00dc 3349F920 		sh2add	s2,s2,a5
 172              	.LVL19:
 163:C:/Users/stapi/OneDrive/Desktop/GD32VW553/GD32VW55X_Wifi_BLE_SDK/GD32VW55x_RELEASE_V1.0.2/MSDK/app\iperf3_main.c ****     iperf_task_num--;
 173              		.loc 1 163 19 discriminator 1
 174 00e0 B7070000 		lui	a5,%hi(.LANCHOR2)
 175 00e4 93870700 		addi	a5,a5,%lo(.LANCHOR2)
 176 00e8 03C70700 		lbu	a4,0(a5)
 162:C:/Users/stapi/OneDrive/Desktop/GD32VW553/GD32VW55X_Wifi_BLE_SDK/GD32VW55x_RELEASE_V1.0.2/MSDK/app\iperf3_main.c ****     iperf_task_tcb_ptr[tcb_index] = NULL;
 177              		.loc 1 162 35 discriminator 1
 178 00ec 23200900 		sw	zero,0(s2)
 179              		.loc 1 163 5 is_stmt 1 discriminator 1
 180              		.loc 1 163 19 is_stmt 0 discriminator 1
 181 00f0 7D17     		addi	a4,a4,-1
 182 00f2 2380E700 		sb	a4,0(a5)
 164:C:/Users/stapi/OneDrive/Desktop/GD32VW553/GD32VW55X_Wifi_BLE_SDK/GD32VW55x_RELEASE_V1.0.2/MSDK/app\iperf3_main.c ****     sys_exit_critical();
 183              		.loc 1 164 5 is_stmt 1 discriminator 1
 184 00f6 97000000 		call	sys_exit_critical
 184      E7800000 
 185              	.LVL20:
 165:C:/Users/stapi/OneDrive/Desktop/GD32VW553/GD32VW55X_Wifi_BLE_SDK/GD32VW55x_RELEASE_V1.0.2/MSDK/app\iperf3_main.c **** 
 166:C:/Users/stapi/OneDrive/Desktop/GD32VW553/GD32VW55X_Wifi_BLE_SDK/GD32VW55x_RELEASE_V1.0.2/MSDK/app\iperf3_main.c ****     sys_task_delete(NULL);
 186              		.loc 1 166 5 discriminator 1
 187 00fe 0145     		li	a0,0
 188 0100 97000000 		call	sys_task_delete
 188      E7800000 
 189              	.LVL21:
 167:C:/Users/stapi/OneDrive/Desktop/GD32VW553/GD32VW55X_Wifi_BLE_SDK/GD32VW55x_RELEASE_V1.0.2/MSDK/app\iperf3_main.c **** }
 190              		.loc 1 167 1 is_stmt 0 discriminator 1
 191 0108 17030000 		tail	__riscv_restore_7
 191      67000300 
 192              		.cfi_remember_state
 193              		.cfi_restore 22
 194              		.cfi_restore 21
 195              		.cfi_restore 20
 196              		.cfi_restore 19
 197              		.cfi_restore 18
 198              		.cfi_restore 9
 199              		.cfi_restore 8
 200              		.cfi_restore 1
 201              		.cfi_def_cfa_offset 0
 202              	.LVL22:
 203              	.L2:
 204              		.cfi_restore_state
 205              	.LBB11:
 206              	.LBB8:
 128:C:/Users/stapi/OneDrive/Desktop/GD32VW553/GD32VW55X_Wifi_BLE_SDK/GD32VW55x_RELEASE_V1.0.2/MSDK/app\iperf3_main.c ****             iperf_err(test, "error - %s", iperf_strerror(i_errno));
 207              		.loc 1 128 9 is_stmt 1
 128:C:/Users/stapi/OneDrive/Desktop/GD32VW553/GD32VW55X_Wifi_BLE_SDK/GD32VW55x_RELEASE_V1.0.2/MSDK/app\iperf3_main.c ****             iperf_err(test, "error - %s", iperf_strerror(i_errno));
 208              		.loc 1 128 13 is_stmt 0
 209 0110 97000000 		call	iperf_run_client
 209      E7800000 
 210              	.LVL23:
 128:C:/Users/stapi/OneDrive/Desktop/GD32VW553/GD32VW55X_Wifi_BLE_SDK/GD32VW55x_RELEASE_V1.0.2/MSDK/app\iperf3_main.c ****             iperf_err(test, "error - %s", iperf_strerror(i_errno));
 211              		.loc 1 128 12
 212 0118 E35D05F8 		bge	a0,zero,.L5
 129:C:/Users/stapi/OneDrive/Desktop/GD32VW553/GD32VW55X_Wifi_BLE_SDK/GD32VW55x_RELEASE_V1.0.2/MSDK/app\iperf3_main.c ****             return (-1);
 213              		.loc 1 129 13 is_stmt 1
 129:C:/Users/stapi/OneDrive/Desktop/GD32VW553/GD32VW55X_Wifi_BLE_SDK/GD32VW55x_RELEASE_V1.0.2/MSDK/app\iperf3_main.c ****             return (-1);
 214              		.loc 1 129 13
 215 011c B7070000 		lui	a5,%hi(i_errno)
 216 0120 03A50700 		lw	a0,%lo(i_errno)(a5)
 217 0124 97000000 		call	iperf_strerror
 217      E7800000 
 218              	.LVL24:
 219 012c AA85     		mv	a1,a0
 220 012e 37050000 		lui	a0,%hi(.LC0)
 221 0132 13050500 		addi	a0,a0,%lo(.LC0)
 222 0136 97000000 		call	co_printf
 222      E7800000 
 223              	.LVL25:
 129:C:/Users/stapi/OneDrive/Desktop/GD32VW553/GD32VW55X_Wifi_BLE_SDK/GD32VW55x_RELEASE_V1.0.2/MSDK/app\iperf3_main.c ****             return (-1);
 224              		.loc 1 129 13
 129:C:/Users/stapi/OneDrive/Desktop/GD32VW553/GD32VW55X_Wifi_BLE_SDK/GD32VW55x_RELEASE_V1.0.2/MSDK/app\iperf3_main.c ****             return (-1);
 225              		.loc 1 129 67
 130:C:/Users/stapi/OneDrive/Desktop/GD32VW553/GD32VW55X_Wifi_BLE_SDK/GD32VW55x_RELEASE_V1.0.2/MSDK/app\iperf3_main.c ****         }
 226              		.loc 1 130 13
 227 013e 25BF     		j	.L7
 228              	.LVL26:
 229              	.L3:
 134:C:/Users/stapi/OneDrive/Desktop/GD32VW553/GD32VW55X_Wifi_BLE_SDK/GD32VW55x_RELEASE_V1.0.2/MSDK/app\iperf3_main.c ****         break;
 230              		.loc 1 134 9
 231 0140 97000000 		call	usage
 231      E7800000 
 232              	.LVL27:
 135:C:/Users/stapi/OneDrive/Desktop/GD32VW553/GD32VW55X_Wifi_BLE_SDK/GD32VW55x_RELEASE_V1.0.2/MSDK/app\iperf3_main.c ****     }
 233              		.loc 1 135 9
 234 0148 ADB7     		j	.L5
 235              	.LBE8:
 236              	.LBE11:
 237              		.cfi_endproc
 238              	.LFE14:
 240              		.section	.rodata.iperf3_main.str1.4,"aMS",@progbits,1
 241              		.align	2
 242              	.LC3:
 243 0000 0D0A6372 		.string	"\r\ncreate new test error - %s"
 243      65617465 
 243      206E6577 
 243      20746573 
 243      74206572 
 244 001d 000000   		.align	2
 245              	.LC4:
 246 0020 0D0A7061 		.string	"\r\nparameter error - %s"
 246      72616D65 
 246      74657220 
 246      6572726F 
 246      72202D20 
 247 0037 00       		.align	2
 248              	.LC5:
 249 0038 0D0A0D45 		.string	"\r\n\rERROR: can not find available iperf3 task tcb."
 249      52524F52 
 249      3A206361 
 249      6E206E6F 
 249      74206669 
 250 006a 0000     		.align	2
 251              	.LC6:
 252 006c 69706572 		.string	"iperf3"
 252      663300
 253 0073 00       		.align	2
 254              	.LC7:
 255 0074 0D0A0D45 		.string	"\r\n\rERROR: create iperf3 task failed."
 255      52524F52 
 255      3A206372 
 255      65617465 
 255      20697065 
 256              		.section	.text.iperf3_main,"ax",@progbits
 257              		.align	1
 258              		.globl	iperf3_main
 260              	iperf3_main:
 261              	.LFB15:
 168:C:/Users/stapi/OneDrive/Desktop/GD32VW553/GD32VW55X_Wifi_BLE_SDK/GD32VW55x_RELEASE_V1.0.2/MSDK/app\iperf3_main.c **** 
 169:C:/Users/stapi/OneDrive/Desktop/GD32VW553/GD32VW55X_Wifi_BLE_SDK/GD32VW55x_RELEASE_V1.0.2/MSDK/app\iperf3_main.c **** /**************************************************************************/
 170:C:/Users/stapi/OneDrive/Desktop/GD32VW553/GD32VW55X_Wifi_BLE_SDK/GD32VW55x_RELEASE_V1.0.2/MSDK/app\iperf3_main.c **** int iperf3_main(int argc, char **argv)
 171:C:/Users/stapi/OneDrive/Desktop/GD32VW553/GD32VW55X_Wifi_BLE_SDK/GD32VW55x_RELEASE_V1.0.2/MSDK/app\iperf3_main.c **** {
 262              		.loc 1 171 1
 263              		.cfi_startproc
 264              	.LVL28:
 265 0000 17030000 		call	t0,__riscv_save_5
 265      E7020300 
 266              		.cfi_offset 20, -24
 267              		.cfi_offset 19, -20
 268              		.cfi_offset 18, -16
 269              		.cfi_offset 9, -12
 270              		.cfi_offset 8, -8
 271              		.cfi_offset 1, -4
 272              		.cfi_def_cfa_offset 32
 172:C:/Users/stapi/OneDrive/Desktop/GD32VW553/GD32VW55X_Wifi_BLE_SDK/GD32VW55x_RELEASE_V1.0.2/MSDK/app\iperf3_main.c ****     struct iperf_test *test;
 273              		.loc 1 172 5
 173:C:/Users/stapi/OneDrive/Desktop/GD32VW553/GD32VW55X_Wifi_BLE_SDK/GD32VW55x_RELEASE_V1.0.2/MSDK/app\iperf3_main.c ****     unsigned int i;
 274              		.loc 1 173 5
 174:C:/Users/stapi/OneDrive/Desktop/GD32VW553/GD32VW55X_Wifi_BLE_SDK/GD32VW55x_RELEASE_V1.0.2/MSDK/app\iperf3_main.c ****     unsigned int task_priority;
 275              		.loc 1 174 5
 175:C:/Users/stapi/OneDrive/Desktop/GD32VW553/GD32VW55X_Wifi_BLE_SDK/GD32VW55x_RELEASE_V1.0.2/MSDK/app\iperf3_main.c ****     void *handle;
 276              		.loc 1 175 5
 176:C:/Users/stapi/OneDrive/Desktop/GD32VW553/GD32VW55X_Wifi_BLE_SDK/GD32VW55x_RELEASE_V1.0.2/MSDK/app\iperf3_main.c ****     SYS_SR_ALLOC();
 277              		.loc 1 176 19
 177:C:/Users/stapi/OneDrive/Desktop/GD32VW553/GD32VW55X_Wifi_BLE_SDK/GD32VW55x_RELEASE_V1.0.2/MSDK/app\iperf3_main.c **** 
 178:C:/Users/stapi/OneDrive/Desktop/GD32VW553/GD32VW55X_Wifi_BLE_SDK/GD32VW55x_RELEASE_V1.0.2/MSDK/app\iperf3_main.c ****     iperf_terminate = 0;
 278              		.loc 1 178 5
 171:C:/Users/stapi/OneDrive/Desktop/GD32VW553/GD32VW55X_Wifi_BLE_SDK/GD32VW55x_RELEASE_V1.0.2/MSDK/app\iperf3_main.c ****     struct iperf_test *test;
 279              		.loc 1 171 1 is_stmt 0
 280 0008 4111     		addi	sp,sp,-16
 281              		.cfi_def_cfa_offset 48
 282              		.loc 1 178 21
 283 000a B7070000 		lui	a5,%hi(.LANCHOR0)
 171:C:/Users/stapi/OneDrive/Desktop/GD32VW553/GD32VW55X_Wifi_BLE_SDK/GD32VW55x_RELEASE_V1.0.2/MSDK/app\iperf3_main.c ****     struct iperf_test *test;
 284              		.loc 1 171 1
 285 000e AA84     		mv	s1,a0
 286 0010 2E89     		mv	s2,a1
 287              		.loc 1 178 21
 288 0012 23800700 		sb	zero,%lo(.LANCHOR0)(a5)
 179:C:/Users/stapi/OneDrive/Desktop/GD32VW553/GD32VW55X_Wifi_BLE_SDK/GD32VW55x_RELEASE_V1.0.2/MSDK/app\iperf3_main.c ****     test = iperf_new_test();
 289              		.loc 1 179 5 is_stmt 1
 290              		.loc 1 179 12 is_stmt 0
 291 0016 97000000 		call	iperf_new_test
 291      E7800000 
 292              	.LVL29:
 180:C:/Users/stapi/OneDrive/Desktop/GD32VW553/GD32VW55X_Wifi_BLE_SDK/GD32VW55x_RELEASE_V1.0.2/MSDK/app\iperf3_main.c ****     if (!test) {
 293              		.loc 1 180 5 is_stmt 1
 294              		.loc 1 180 8 is_stmt 0
 295 001e 05E9     		bne	a0,zero,.L13
 181:C:/Users/stapi/OneDrive/Desktop/GD32VW553/GD32VW55X_Wifi_BLE_SDK/GD32VW55x_RELEASE_V1.0.2/MSDK/app\iperf3_main.c ****         iperf_err(NULL, "create new test error - %s", iperf_strerror(i_errno));
 296              		.loc 1 181 9 is_stmt 1
 297              		.loc 1 181 9
 298 0020 B7070000 		lui	a5,%hi(i_errno)
 299 0024 03A50700 		lw	a0,%lo(i_errno)(a5)
 300              	.LVL30:
 301 0028 97000000 		call	iperf_strerror
 301      E7800000 
 302              	.LVL31:
 303 0030 AA85     		mv	a1,a0
 304 0032 37050000 		lui	a0,%hi(.LC3)
 305 0036 13050500 		addi	a0,a0,%lo(.LC3)
 306 003a 97000000 		call	co_printf
 306      E7800000 
 307              	.LVL32:
 308              		.loc 1 181 9
 309              		.loc 1 181 79
 182:C:/Users/stapi/OneDrive/Desktop/GD32VW553/GD32VW55X_Wifi_BLE_SDK/GD32VW55x_RELEASE_V1.0.2/MSDK/app\iperf3_main.c ****         return (-1);
 310              		.loc 1 182 9
 311              	.L22:
 183:C:/Users/stapi/OneDrive/Desktop/GD32VW553/GD32VW55X_Wifi_BLE_SDK/GD32VW55x_RELEASE_V1.0.2/MSDK/app\iperf3_main.c ****     }
 184:C:/Users/stapi/OneDrive/Desktop/GD32VW553/GD32VW55X_Wifi_BLE_SDK/GD32VW55x_RELEASE_V1.0.2/MSDK/app\iperf3_main.c **** 
 185:C:/Users/stapi/OneDrive/Desktop/GD32VW553/GD32VW55X_Wifi_BLE_SDK/GD32VW55x_RELEASE_V1.0.2/MSDK/app\iperf3_main.c ****     iperf_defaults(test);    /* sets defaults */
 186:C:/Users/stapi/OneDrive/Desktop/GD32VW553/GD32VW55X_Wifi_BLE_SDK/GD32VW55x_RELEASE_V1.0.2/MSDK/app\iperf3_main.c **** 
 187:C:/Users/stapi/OneDrive/Desktop/GD32VW553/GD32VW55X_Wifi_BLE_SDK/GD32VW55x_RELEASE_V1.0.2/MSDK/app\iperf3_main.c ****     if (iperf_parse_arguments(test, argc, argv) < 0) {
 188:C:/Users/stapi/OneDrive/Desktop/GD32VW553/GD32VW55X_Wifi_BLE_SDK/GD32VW55x_RELEASE_V1.0.2/MSDK/app\iperf3_main.c ****         iperf_err(test, "parameter error - %s", iperf_strerror(i_errno));
 189:C:/Users/stapi/OneDrive/Desktop/GD32VW553/GD32VW55X_Wifi_BLE_SDK/GD32VW55x_RELEASE_V1.0.2/MSDK/app\iperf3_main.c ****         //usage_long();
 190:C:/Users/stapi/OneDrive/Desktop/GD32VW553/GD32VW55X_Wifi_BLE_SDK/GD32VW55x_RELEASE_V1.0.2/MSDK/app\iperf3_main.c ****         usage();
 191:C:/Users/stapi/OneDrive/Desktop/GD32VW553/GD32VW55X_Wifi_BLE_SDK/GD32VW55x_RELEASE_V1.0.2/MSDK/app\iperf3_main.c ****         gnu_getopt_reset();
 192:C:/Users/stapi/OneDrive/Desktop/GD32VW553/GD32VW55X_Wifi_BLE_SDK/GD32VW55x_RELEASE_V1.0.2/MSDK/app\iperf3_main.c ****         iperf_free_test(test);
 193:C:/Users/stapi/OneDrive/Desktop/GD32VW553/GD32VW55X_Wifi_BLE_SDK/GD32VW55x_RELEASE_V1.0.2/MSDK/app\iperf3_main.c ****         return (-1);
 194:C:/Users/stapi/OneDrive/Desktop/GD32VW553/GD32VW55X_Wifi_BLE_SDK/GD32VW55x_RELEASE_V1.0.2/MSDK/app\iperf3_main.c ****     }
 195:C:/Users/stapi/OneDrive/Desktop/GD32VW553/GD32VW55X_Wifi_BLE_SDK/GD32VW55x_RELEASE_V1.0.2/MSDK/app\iperf3_main.c **** 
 196:C:/Users/stapi/OneDrive/Desktop/GD32VW553/GD32VW55X_Wifi_BLE_SDK/GD32VW55x_RELEASE_V1.0.2/MSDK/app\iperf3_main.c ****     gnu_getopt_reset();
 197:C:/Users/stapi/OneDrive/Desktop/GD32VW553/GD32VW55X_Wifi_BLE_SDK/GD32VW55x_RELEASE_V1.0.2/MSDK/app\iperf3_main.c **** 
 198:C:/Users/stapi/OneDrive/Desktop/GD32VW553/GD32VW55X_Wifi_BLE_SDK/GD32VW55x_RELEASE_V1.0.2/MSDK/app\iperf3_main.c ****     if (((test->role == 'c') || (test->role == 's')) && (iperf_task_num < IPERF_TASK_MAX)) {
 199:C:/Users/stapi/OneDrive/Desktop/GD32VW553/GD32VW55X_Wifi_BLE_SDK/GD32VW55x_RELEASE_V1.0.2/MSDK/app\iperf3_main.c **** 
 200:C:/Users/stapi/OneDrive/Desktop/GD32VW553/GD32VW55X_Wifi_BLE_SDK/GD32VW55x_RELEASE_V1.0.2/MSDK/app\iperf3_main.c ****         for ( i = 0; i < IPERF_TASK_MAX; i++) {
 201:C:/Users/stapi/OneDrive/Desktop/GD32VW553/GD32VW55X_Wifi_BLE_SDK/GD32VW55x_RELEASE_V1.0.2/MSDK/app\iperf3_main.c ****             if (iperf_task_tcb_ptr[i] == NULL) {
 202:C:/Users/stapi/OneDrive/Desktop/GD32VW553/GD32VW55X_Wifi_BLE_SDK/GD32VW55x_RELEASE_V1.0.2/MSDK/app\iperf3_main.c ****                 test->task_tcb_index = i;
 203:C:/Users/stapi/OneDrive/Desktop/GD32VW553/GD32VW55X_Wifi_BLE_SDK/GD32VW55x_RELEASE_V1.0.2/MSDK/app\iperf3_main.c ****                 break;
 204:C:/Users/stapi/OneDrive/Desktop/GD32VW553/GD32VW55X_Wifi_BLE_SDK/GD32VW55x_RELEASE_V1.0.2/MSDK/app\iperf3_main.c ****             }
 205:C:/Users/stapi/OneDrive/Desktop/GD32VW553/GD32VW55X_Wifi_BLE_SDK/GD32VW55x_RELEASE_V1.0.2/MSDK/app\iperf3_main.c ****         }
 206:C:/Users/stapi/OneDrive/Desktop/GD32VW553/GD32VW55X_Wifi_BLE_SDK/GD32VW55x_RELEASE_V1.0.2/MSDK/app\iperf3_main.c **** 
 207:C:/Users/stapi/OneDrive/Desktop/GD32VW553/GD32VW55X_Wifi_BLE_SDK/GD32VW55x_RELEASE_V1.0.2/MSDK/app\iperf3_main.c ****         if (i == IPERF_TASK_MAX) {
 208:C:/Users/stapi/OneDrive/Desktop/GD32VW553/GD32VW55X_Wifi_BLE_SDK/GD32VW55x_RELEASE_V1.0.2/MSDK/app\iperf3_main.c ****             app_print( "\r\n\rERROR: can not find available iperf3 task tcb.");
 209:C:/Users/stapi/OneDrive/Desktop/GD32VW553/GD32VW55X_Wifi_BLE_SDK/GD32VW55x_RELEASE_V1.0.2/MSDK/app\iperf3_main.c ****             iperf_free_test(test);
 210:C:/Users/stapi/OneDrive/Desktop/GD32VW553/GD32VW55X_Wifi_BLE_SDK/GD32VW55x_RELEASE_V1.0.2/MSDK/app\iperf3_main.c ****             return (-1);
 211:C:/Users/stapi/OneDrive/Desktop/GD32VW553/GD32VW55X_Wifi_BLE_SDK/GD32VW55x_RELEASE_V1.0.2/MSDK/app\iperf3_main.c ****         }
 212:C:/Users/stapi/OneDrive/Desktop/GD32VW553/GD32VW55X_Wifi_BLE_SDK/GD32VW55x_RELEASE_V1.0.2/MSDK/app\iperf3_main.c **** 
 213:C:/Users/stapi/OneDrive/Desktop/GD32VW553/GD32VW55X_Wifi_BLE_SDK/GD32VW55x_RELEASE_V1.0.2/MSDK/app\iperf3_main.c ****         task_priority = IPERF3_TASK_PRIO;
 214:C:/Users/stapi/OneDrive/Desktop/GD32VW553/GD32VW55X_Wifi_BLE_SDK/GD32VW55x_RELEASE_V1.0.2/MSDK/app\iperf3_main.c **** 
 215:C:/Users/stapi/OneDrive/Desktop/GD32VW553/GD32VW55X_Wifi_BLE_SDK/GD32VW55x_RELEASE_V1.0.2/MSDK/app\iperf3_main.c **** #if 0
 216:C:/Users/stapi/OneDrive/Desktop/GD32VW553/GD32VW55X_Wifi_BLE_SDK/GD32VW55x_RELEASE_V1.0.2/MSDK/app\iperf3_main.c ****         if (test->role == 'c') {
 217:C:/Users/stapi/OneDrive/Desktop/GD32VW553/GD32VW55X_Wifi_BLE_SDK/GD32VW55x_RELEASE_V1.0.2/MSDK/app\iperf3_main.c ****             // app_print( "\r\n\rtask priority, tos = %d", test->settings->tos);
 218:C:/Users/stapi/OneDrive/Desktop/GD32VW553/GD32VW55X_Wifi_BLE_SDK/GD32VW55x_RELEASE_V1.0.2/MSDK/app\iperf3_main.c ****             if (test->settings->tos == 0xe0) {
 219:C:/Users/stapi/OneDrive/Desktop/GD32VW553/GD32VW55X_Wifi_BLE_SDK/GD32VW55x_RELEASE_V1.0.2/MSDK/app\iperf3_main.c ****                 task_priority = IPERF3_TASK_PRIO;
 220:C:/Users/stapi/OneDrive/Desktop/GD32VW553/GD32VW55X_Wifi_BLE_SDK/GD32VW55x_RELEASE_V1.0.2/MSDK/app\iperf3_main.c ****             } else if (test->settings->tos == 0xa0) {
 221:C:/Users/stapi/OneDrive/Desktop/GD32VW553/GD32VW55X_Wifi_BLE_SDK/GD32VW55x_RELEASE_V1.0.2/MSDK/app\iperf3_main.c ****                 task_priority = IPERF3_TASK_PRIO + TASK_PRIO_LOWER(1);
 222:C:/Users/stapi/OneDrive/Desktop/GD32VW553/GD32VW55X_Wifi_BLE_SDK/GD32VW55x_RELEASE_V1.0.2/MSDK/app\iperf3_main.c ****             } else if (test->settings->tos == 0x20) {
 223:C:/Users/stapi/OneDrive/Desktop/GD32VW553/GD32VW55X_Wifi_BLE_SDK/GD32VW55x_RELEASE_V1.0.2/MSDK/app\iperf3_main.c ****                 task_priority = IPERF3_TASK_PRIO + TASK_PRIO_LOWER(2);
 224:C:/Users/stapi/OneDrive/Desktop/GD32VW553/GD32VW55X_Wifi_BLE_SDK/GD32VW55x_RELEASE_V1.0.2/MSDK/app\iperf3_main.c ****             }
 225:C:/Users/stapi/OneDrive/Desktop/GD32VW553/GD32VW55X_Wifi_BLE_SDK/GD32VW55x_RELEASE_V1.0.2/MSDK/app\iperf3_main.c ****         }
 226:C:/Users/stapi/OneDrive/Desktop/GD32VW553/GD32VW55X_Wifi_BLE_SDK/GD32VW55x_RELEASE_V1.0.2/MSDK/app\iperf3_main.c **** #endif
 227:C:/Users/stapi/OneDrive/Desktop/GD32VW553/GD32VW55X_Wifi_BLE_SDK/GD32VW55x_RELEASE_V1.0.2/MSDK/app\iperf3_main.c **** 
 228:C:/Users/stapi/OneDrive/Desktop/GD32VW553/GD32VW55X_Wifi_BLE_SDK/GD32VW55x_RELEASE_V1.0.2/MSDK/app\iperf3_main.c ****         handle = sys_task_create_dynamic((const uint8_t *)"iperf3",
 229:C:/Users/stapi/OneDrive/Desktop/GD32VW553/GD32VW55X_Wifi_BLE_SDK/GD32VW55x_RELEASE_V1.0.2/MSDK/app\iperf3_main.c ****                 IPERF3_STACK_SIZE, task_priority,
 230:C:/Users/stapi/OneDrive/Desktop/GD32VW553/GD32VW55X_Wifi_BLE_SDK/GD32VW55x_RELEASE_V1.0.2/MSDK/app\iperf3_main.c ****                 (task_func_t)iperf_test_task, test);
 231:C:/Users/stapi/OneDrive/Desktop/GD32VW553/GD32VW55X_Wifi_BLE_SDK/GD32VW55x_RELEASE_V1.0.2/MSDK/app\iperf3_main.c ****         if (handle == NULL) {
 232:C:/Users/stapi/OneDrive/Desktop/GD32VW553/GD32VW55X_Wifi_BLE_SDK/GD32VW55x_RELEASE_V1.0.2/MSDK/app\iperf3_main.c ****             app_print( "\r\n\rERROR: create iperf3 task failed.");
 233:C:/Users/stapi/OneDrive/Desktop/GD32VW553/GD32VW55X_Wifi_BLE_SDK/GD32VW55x_RELEASE_V1.0.2/MSDK/app\iperf3_main.c ****             iperf_free_test(test);
 234:C:/Users/stapi/OneDrive/Desktop/GD32VW553/GD32VW55X_Wifi_BLE_SDK/GD32VW55x_RELEASE_V1.0.2/MSDK/app\iperf3_main.c ****             return (-1);
 312              		.loc 1 234 13
 313              		.loc 1 234 20 is_stmt 0
 314 0042 7D55     		li	a0,-1
 315              	.L12:
 235:C:/Users/stapi/OneDrive/Desktop/GD32VW553/GD32VW55X_Wifi_BLE_SDK/GD32VW55x_RELEASE_V1.0.2/MSDK/app\iperf3_main.c ****         } else {
 236:C:/Users/stapi/OneDrive/Desktop/GD32VW553/GD32VW55X_Wifi_BLE_SDK/GD32VW55x_RELEASE_V1.0.2/MSDK/app\iperf3_main.c ****             sys_enter_critical();
 237:C:/Users/stapi/OneDrive/Desktop/GD32VW553/GD32VW55X_Wifi_BLE_SDK/GD32VW55x_RELEASE_V1.0.2/MSDK/app\iperf3_main.c ****             iperf_task_tcb_ptr[i] = handle;
 238:C:/Users/stapi/OneDrive/Desktop/GD32VW553/GD32VW55X_Wifi_BLE_SDK/GD32VW55x_RELEASE_V1.0.2/MSDK/app\iperf3_main.c ****             iperf_task_num++;
 239:C:/Users/stapi/OneDrive/Desktop/GD32VW553/GD32VW55X_Wifi_BLE_SDK/GD32VW55x_RELEASE_V1.0.2/MSDK/app\iperf3_main.c ****             sys_exit_critical();
 240:C:/Users/stapi/OneDrive/Desktop/GD32VW553/GD32VW55X_Wifi_BLE_SDK/GD32VW55x_RELEASE_V1.0.2/MSDK/app\iperf3_main.c ****             return 0;
 241:C:/Users/stapi/OneDrive/Desktop/GD32VW553/GD32VW55X_Wifi_BLE_SDK/GD32VW55x_RELEASE_V1.0.2/MSDK/app\iperf3_main.c ****         }
 242:C:/Users/stapi/OneDrive/Desktop/GD32VW553/GD32VW55X_Wifi_BLE_SDK/GD32VW55x_RELEASE_V1.0.2/MSDK/app\iperf3_main.c **** 
 243:C:/Users/stapi/OneDrive/Desktop/GD32VW553/GD32VW55X_Wifi_BLE_SDK/GD32VW55x_RELEASE_V1.0.2/MSDK/app\iperf3_main.c ****     } else {
 244:C:/Users/stapi/OneDrive/Desktop/GD32VW553/GD32VW55X_Wifi_BLE_SDK/GD32VW55x_RELEASE_V1.0.2/MSDK/app\iperf3_main.c ****         iperf_free_test(test);
 245:C:/Users/stapi/OneDrive/Desktop/GD32VW553/GD32VW55X_Wifi_BLE_SDK/GD32VW55x_RELEASE_V1.0.2/MSDK/app\iperf3_main.c ****         return 0;
 246:C:/Users/stapi/OneDrive/Desktop/GD32VW553/GD32VW55X_Wifi_BLE_SDK/GD32VW55x_RELEASE_V1.0.2/MSDK/app\iperf3_main.c ****     }
 247:C:/Users/stapi/OneDrive/Desktop/GD32VW553/GD32VW55X_Wifi_BLE_SDK/GD32VW55x_RELEASE_V1.0.2/MSDK/app\iperf3_main.c **** }
 316              		.loc 1 247 1
 317 0044 4101     		addi	sp,sp,16
 318              		.cfi_remember_state
 319              		.cfi_def_cfa_offset 0
 320 0046 17030000 		tail	__riscv_restore_5
 320      67000300 
 321              		.cfi_restore 20
 322              		.cfi_restore 19
 323              		.cfi_restore 18
 324              		.cfi_restore 9
 325              		.cfi_restore 8
 326              		.cfi_restore 1
 327              		.cfi_def_cfa_offset -32
 328              	.LVL33:
 329              	.L13:
 330              		.cfi_restore_state
 331 004e 2A84     		mv	s0,a0
 185:C:/Users/stapi/OneDrive/Desktop/GD32VW553/GD32VW55X_Wifi_BLE_SDK/GD32VW55x_RELEASE_V1.0.2/MSDK/app\iperf3_main.c **** 
 332              		.loc 1 185 5 is_stmt 1
 333 0050 97000000 		call	iperf_defaults
 333      E7800000 
 334              	.LVL34:
 187:C:/Users/stapi/OneDrive/Desktop/GD32VW553/GD32VW55X_Wifi_BLE_SDK/GD32VW55x_RELEASE_V1.0.2/MSDK/app\iperf3_main.c ****         iperf_err(test, "parameter error - %s", iperf_strerror(i_errno));
 335              		.loc 1 187 5
 187:C:/Users/stapi/OneDrive/Desktop/GD32VW553/GD32VW55X_Wifi_BLE_SDK/GD32VW55x_RELEASE_V1.0.2/MSDK/app\iperf3_main.c ****         iperf_err(test, "parameter error - %s", iperf_strerror(i_errno));
 336              		.loc 1 187 9 is_stmt 0
 337 0058 4A86     		mv	a2,s2
 338 005a A685     		mv	a1,s1
 339 005c 2285     		mv	a0,s0
 340 005e 97000000 		call	iperf_parse_arguments
 340      E7800000 
 341              	.LVL35:
 187:C:/Users/stapi/OneDrive/Desktop/GD32VW553/GD32VW55X_Wifi_BLE_SDK/GD32VW55x_RELEASE_V1.0.2/MSDK/app\iperf3_main.c ****         iperf_err(test, "parameter error - %s", iperf_strerror(i_errno));
 342              		.loc 1 187 8
 343 0066 63510504 		bge	a0,zero,.L15
 188:C:/Users/stapi/OneDrive/Desktop/GD32VW553/GD32VW55X_Wifi_BLE_SDK/GD32VW55x_RELEASE_V1.0.2/MSDK/app\iperf3_main.c ****         //usage_long();
 344              		.loc 1 188 9 is_stmt 1
 188:C:/Users/stapi/OneDrive/Desktop/GD32VW553/GD32VW55X_Wifi_BLE_SDK/GD32VW55x_RELEASE_V1.0.2/MSDK/app\iperf3_main.c ****         //usage_long();
 345              		.loc 1 188 9
 346 006a B7070000 		lui	a5,%hi(i_errno)
 347 006e 03A50700 		lw	a0,%lo(i_errno)(a5)
 348 0072 97000000 		call	iperf_strerror
 348      E7800000 
 349              	.LVL36:
 350 007a AA85     		mv	a1,a0
 351 007c 37050000 		lui	a0,%hi(.LC4)
 352 0080 13050500 		addi	a0,a0,%lo(.LC4)
 353 0084 97000000 		call	co_printf
 353      E7800000 
 354              	.LVL37:
 188:C:/Users/stapi/OneDrive/Desktop/GD32VW553/GD32VW55X_Wifi_BLE_SDK/GD32VW55x_RELEASE_V1.0.2/MSDK/app\iperf3_main.c ****         //usage_long();
 355              		.loc 1 188 9
 188:C:/Users/stapi/OneDrive/Desktop/GD32VW553/GD32VW55X_Wifi_BLE_SDK/GD32VW55x_RELEASE_V1.0.2/MSDK/app\iperf3_main.c ****         //usage_long();
 356              		.loc 1 188 73
 190:C:/Users/stapi/OneDrive/Desktop/GD32VW553/GD32VW55X_Wifi_BLE_SDK/GD32VW55x_RELEASE_V1.0.2/MSDK/app\iperf3_main.c ****         gnu_getopt_reset();
 357              		.loc 1 190 9
 358 008c 97000000 		call	usage
 358      E7800000 
 359              	.LVL38:
 191:C:/Users/stapi/OneDrive/Desktop/GD32VW553/GD32VW55X_Wifi_BLE_SDK/GD32VW55x_RELEASE_V1.0.2/MSDK/app\iperf3_main.c ****         iperf_free_test(test);
 360              		.loc 1 191 9
 361 0094 97000000 		call	gnu_getopt_reset
 361      E7800000 
 362              	.LVL39:
 192:C:/Users/stapi/OneDrive/Desktop/GD32VW553/GD32VW55X_Wifi_BLE_SDK/GD32VW55x_RELEASE_V1.0.2/MSDK/app\iperf3_main.c ****         return (-1);
 363              		.loc 1 192 9
 364              	.L25:
 233:C:/Users/stapi/OneDrive/Desktop/GD32VW553/GD32VW55X_Wifi_BLE_SDK/GD32VW55x_RELEASE_V1.0.2/MSDK/app\iperf3_main.c ****             return (-1);
 365              		.loc 1 233 13
 366 009c 2285     		mv	a0,s0
 367 009e 97000000 		call	iperf_free_test
 367      E7800000 
 368              	.LVL40:
 369 00a6 71BF     		j	.L22
 370              	.LVL41:
 371              	.L15:
 196:C:/Users/stapi/OneDrive/Desktop/GD32VW553/GD32VW55X_Wifi_BLE_SDK/GD32VW55x_RELEASE_V1.0.2/MSDK/app\iperf3_main.c **** 
 372              		.loc 1 196 5
 373 00a8 97000000 		call	gnu_getopt_reset
 373      E7800000 
 374              	.LVL42:
 198:C:/Users/stapi/OneDrive/Desktop/GD32VW553/GD32VW55X_Wifi_BLE_SDK/GD32VW55x_RELEASE_V1.0.2/MSDK/app\iperf3_main.c **** 
 375              		.loc 1 198 5
 198:C:/Users/stapi/OneDrive/Desktop/GD32VW553/GD32VW55X_Wifi_BLE_SDK/GD32VW55x_RELEASE_V1.0.2/MSDK/app\iperf3_main.c **** 
 376              		.loc 1 198 8 is_stmt 0
 377 00b0 83071400 		lb	a5,1(s0)
 378 00b4 13073006 		li	a4,99
 379 00b8 BD9B     		andi	a5,a5,-17
 380 00ba 6393E70A 		bne	a5,a4,.L16
 198:C:/Users/stapi/OneDrive/Desktop/GD32VW553/GD32VW55X_Wifi_BLE_SDK/GD32VW55x_RELEASE_V1.0.2/MSDK/app\iperf3_main.c **** 
 381              		.loc 1 198 73 discriminator 3
 382 00be B7040000 		lui	s1,%hi(.LANCHOR2)
 383              	.LVL43:
 198:C:/Users/stapi/OneDrive/Desktop/GD32VW553/GD32VW55X_Wifi_BLE_SDK/GD32VW55x_RELEASE_V1.0.2/MSDK/app\iperf3_main.c **** 
 384              		.loc 1 198 54 discriminator 3
 385 00c2 03C70400 		lbu	a4,%lo(.LANCHOR2)(s1)
 386 00c6 8547     		li	a5,1
 387 00c8 93840400 		addi	s1,s1,%lo(.LANCHOR2)
 388 00cc 63EAE708 		bgtu	a4,a5,.L16
 389              	.LVL44:
 200:C:/Users/stapi/OneDrive/Desktop/GD32VW553/GD32VW55X_Wifi_BLE_SDK/GD32VW55x_RELEASE_V1.0.2/MSDK/app\iperf3_main.c ****             if (iperf_task_tcb_ptr[i] == NULL) {
 390              		.loc 1 200 22 is_stmt 1
 201:C:/Users/stapi/OneDrive/Desktop/GD32VW553/GD32VW55X_Wifi_BLE_SDK/GD32VW55x_RELEASE_V1.0.2/MSDK/app\iperf3_main.c ****                 test->task_tcb_index = i;
 391              		.loc 1 201 13
 201:C:/Users/stapi/OneDrive/Desktop/GD32VW553/GD32VW55X_Wifi_BLE_SDK/GD32VW55x_RELEASE_V1.0.2/MSDK/app\iperf3_main.c ****                 test->task_tcb_index = i;
 392              		.loc 1 201 35 is_stmt 0
 393 00d0 37090000 		lui	s2,%hi(.LANCHOR1)
 394              	.LVL45:
 395 00d4 13070900 		addi	a4,s2,%lo(.LANCHOR1)
 201:C:/Users/stapi/OneDrive/Desktop/GD32VW553/GD32VW55X_Wifi_BLE_SDK/GD32VW55x_RELEASE_V1.0.2/MSDK/app\iperf3_main.c ****                 test->task_tcb_index = i;
 396              		.loc 1 201 16
 397 00d8 1443     		lw	a3,0(a4)
 398 00da 130A0900 		addi	s4,s2,%lo(.LANCHOR1)
 399 00de B1CA     		beq	a3,zero,.L17
 200:C:/Users/stapi/OneDrive/Desktop/GD32VW553/GD32VW55X_Wifi_BLE_SDK/GD32VW55x_RELEASE_V1.0.2/MSDK/app\iperf3_main.c ****             if (iperf_task_tcb_ptr[i] == NULL) {
 400              		.loc 1 200 42 is_stmt 1
 401              	.LVL46:
 200:C:/Users/stapi/OneDrive/Desktop/GD32VW553/GD32VW55X_Wifi_BLE_SDK/GD32VW55x_RELEASE_V1.0.2/MSDK/app\iperf3_main.c ****             if (iperf_task_tcb_ptr[i] == NULL) {
 402              		.loc 1 200 22
 201:C:/Users/stapi/OneDrive/Desktop/GD32VW553/GD32VW55X_Wifi_BLE_SDK/GD32VW55x_RELEASE_V1.0.2/MSDK/app\iperf3_main.c ****                 test->task_tcb_index = i;
 403              		.loc 1 201 13
 201:C:/Users/stapi/OneDrive/Desktop/GD32VW553/GD32VW55X_Wifi_BLE_SDK/GD32VW55x_RELEASE_V1.0.2/MSDK/app\iperf3_main.c ****                 test->task_tcb_index = i;
 404              		.loc 1 201 16 is_stmt 0
 405 00e0 5843     		lw	a4,4(a4)
 406 00e2 11CB     		beq	a4,zero,.L18
 200:C:/Users/stapi/OneDrive/Desktop/GD32VW553/GD32VW55X_Wifi_BLE_SDK/GD32VW55x_RELEASE_V1.0.2/MSDK/app\iperf3_main.c ****             if (iperf_task_tcb_ptr[i] == NULL) {
 407              		.loc 1 200 42 is_stmt 1
 408              	.LVL47:
 200:C:/Users/stapi/OneDrive/Desktop/GD32VW553/GD32VW55X_Wifi_BLE_SDK/GD32VW55x_RELEASE_V1.0.2/MSDK/app\iperf3_main.c ****             if (iperf_task_tcb_ptr[i] == NULL) {
 409              		.loc 1 200 22
 207:C:/Users/stapi/OneDrive/Desktop/GD32VW553/GD32VW55X_Wifi_BLE_SDK/GD32VW55x_RELEASE_V1.0.2/MSDK/app\iperf3_main.c ****             app_print( "\r\n\rERROR: can not find available iperf3 task tcb.");
 410              		.loc 1 207 9
 208:C:/Users/stapi/OneDrive/Desktop/GD32VW553/GD32VW55X_Wifi_BLE_SDK/GD32VW55x_RELEASE_V1.0.2/MSDK/app\iperf3_main.c ****             iperf_free_test(test);
 411              		.loc 1 208 13
 412 00e4 37050000 		lui	a0,%hi(.LC5)
 413 00e8 13050500 		addi	a0,a0,%lo(.LC5)
 414              	.LVL48:
 415              	.L24:
 232:C:/Users/stapi/OneDrive/Desktop/GD32VW553/GD32VW55X_Wifi_BLE_SDK/GD32VW55x_RELEASE_V1.0.2/MSDK/app\iperf3_main.c ****             iperf_free_test(test);
 416              		.loc 1 232 13 is_stmt 0
 417 00ec 97000000 		call	co_printf
 417      E7800000 
 418              	.LVL49:
 419 00f4 65B7     		j	.L25
 420              	.LVL50:
 421              	.L18:
 202:C:/Users/stapi/OneDrive/Desktop/GD32VW553/GD32VW55X_Wifi_BLE_SDK/GD32VW55x_RELEASE_V1.0.2/MSDK/app\iperf3_main.c ****                 break;
 422              		.loc 1 202 17 is_stmt 1
 202:C:/Users/stapi/OneDrive/Desktop/GD32VW553/GD32VW55X_Wifi_BLE_SDK/GD32VW55x_RELEASE_V1.0.2/MSDK/app\iperf3_main.c ****                 break;
 423              		.loc 1 202 38 is_stmt 0
 424 00f6 2300F400 		sb	a5,0(s0)
 203:C:/Users/stapi/OneDrive/Desktop/GD32VW553/GD32VW55X_Wifi_BLE_SDK/GD32VW55x_RELEASE_V1.0.2/MSDK/app\iperf3_main.c ****             }
 425              		.loc 1 203 17 is_stmt 1
 207:C:/Users/stapi/OneDrive/Desktop/GD32VW553/GD32VW55X_Wifi_BLE_SDK/GD32VW55x_RELEASE_V1.0.2/MSDK/app\iperf3_main.c ****             app_print( "\r\n\rERROR: can not find available iperf3 task tcb.");
 426              		.loc 1 207 9
 200:C:/Users/stapi/OneDrive/Desktop/GD32VW553/GD32VW55X_Wifi_BLE_SDK/GD32VW55x_RELEASE_V1.0.2/MSDK/app\iperf3_main.c ****             if (iperf_task_tcb_ptr[i] == NULL) {
 427              		.loc 1 200 43 is_stmt 0
 428 00fa 0549     		li	s2,1
 429              	.LVL51:
 430              	.L19:
 213:C:/Users/stapi/OneDrive/Desktop/GD32VW553/GD32VW55X_Wifi_BLE_SDK/GD32VW55x_RELEASE_V1.0.2/MSDK/app\iperf3_main.c **** 
 431              		.loc 1 213 9 is_stmt 1
 228:C:/Users/stapi/OneDrive/Desktop/GD32VW553/GD32VW55X_Wifi_BLE_SDK/GD32VW55x_RELEASE_V1.0.2/MSDK/app\iperf3_main.c ****                 IPERF3_STACK_SIZE, task_priority,
 432              		.loc 1 228 9
 228:C:/Users/stapi/OneDrive/Desktop/GD32VW553/GD32VW55X_Wifi_BLE_SDK/GD32VW55x_RELEASE_V1.0.2/MSDK/app\iperf3_main.c ****                 IPERF3_STACK_SIZE, task_priority,
 433              		.loc 1 228 18 is_stmt 0
 434 00fc B7080000 		lui	a7,%hi(iperf_test_task)
 435 0100 B7050000 		lui	a1,%hi(.LC6)
 436 0104 22C0     		sw	s0,0(sp)
 437 0106 93880800 		addi	a7,a7,%lo(iperf_test_task)
 438 010a 4948     		li	a6,18
 439 010c 8147     		li	a5,0
 440 010e 0147     		li	a4,0
 441 0110 93060020 		li	a3,512
 442 0114 0146     		li	a2,0
 443 0116 93850500 		addi	a1,a1,%lo(.LC6)
 444 011a 0145     		li	a0,0
 445 011c 97000000 		call	sys_task_create
 445      E7800000 
 446              	.LVL52:
 447 0124 AA89     		mv	s3,a0
 448              	.LVL53:
 231:C:/Users/stapi/OneDrive/Desktop/GD32VW553/GD32VW55X_Wifi_BLE_SDK/GD32VW55x_RELEASE_V1.0.2/MSDK/app\iperf3_main.c ****             app_print( "\r\n\rERROR: create iperf3 task failed.");
 449              		.loc 1 231 9 is_stmt 1
 231:C:/Users/stapi/OneDrive/Desktop/GD32VW553/GD32VW55X_Wifi_BLE_SDK/GD32VW55x_RELEASE_V1.0.2/MSDK/app\iperf3_main.c ****             app_print( "\r\n\rERROR: create iperf3 task failed.");
 450              		.loc 1 231 12 is_stmt 0
 451 0126 11E9     		bne	a0,zero,.L20
 232:C:/Users/stapi/OneDrive/Desktop/GD32VW553/GD32VW55X_Wifi_BLE_SDK/GD32VW55x_RELEASE_V1.0.2/MSDK/app\iperf3_main.c ****             iperf_free_test(test);
 452              		.loc 1 232 13 is_stmt 1
 453 0128 37050000 		lui	a0,%hi(.LC7)
 454              	.LVL54:
 455 012c 13050500 		addi	a0,a0,%lo(.LC7)
 456 0130 75BF     		j	.L24
 457              	.LVL55:
 458              	.L17:
 202:C:/Users/stapi/OneDrive/Desktop/GD32VW553/GD32VW55X_Wifi_BLE_SDK/GD32VW55x_RELEASE_V1.0.2/MSDK/app\iperf3_main.c ****                 break;
 459              		.loc 1 202 17
 202:C:/Users/stapi/OneDrive/Desktop/GD32VW553/GD32VW55X_Wifi_BLE_SDK/GD32VW55x_RELEASE_V1.0.2/MSDK/app\iperf3_main.c ****                 break;
 460              		.loc 1 202 38 is_stmt 0
 461 0132 23000400 		sb	zero,0(s0)
 203:C:/Users/stapi/OneDrive/Desktop/GD32VW553/GD32VW55X_Wifi_BLE_SDK/GD32VW55x_RELEASE_V1.0.2/MSDK/app\iperf3_main.c ****             }
 462              		.loc 1 203 17 is_stmt 1
 207:C:/Users/stapi/OneDrive/Desktop/GD32VW553/GD32VW55X_Wifi_BLE_SDK/GD32VW55x_RELEASE_V1.0.2/MSDK/app\iperf3_main.c ****             app_print( "\r\n\rERROR: can not find available iperf3 task tcb.");
 463              		.loc 1 207 9
 200:C:/Users/stapi/OneDrive/Desktop/GD32VW553/GD32VW55X_Wifi_BLE_SDK/GD32VW55x_RELEASE_V1.0.2/MSDK/app\iperf3_main.c ****             if (iperf_task_tcb_ptr[i] == NULL) {
 464              		.loc 1 200 17 is_stmt 0
 465 0136 0149     		li	s2,0
 466 0138 D1B7     		j	.L19
 467              	.LVL56:
 468              	.L20:
 236:C:/Users/stapi/OneDrive/Desktop/GD32VW553/GD32VW55X_Wifi_BLE_SDK/GD32VW55x_RELEASE_V1.0.2/MSDK/app\iperf3_main.c ****             iperf_task_tcb_ptr[i] = handle;
 469              		.loc 1 236 13 is_stmt 1
 470 013a 97000000 		call	sys_enter_critical
 470      E7800000 
 471              	.LVL57:
 237:C:/Users/stapi/OneDrive/Desktop/GD32VW553/GD32VW55X_Wifi_BLE_SDK/GD32VW55x_RELEASE_V1.0.2/MSDK/app\iperf3_main.c ****             iperf_task_num++;
 472              		.loc 1 237 13
 238:C:/Users/stapi/OneDrive/Desktop/GD32VW553/GD32VW55X_Wifi_BLE_SDK/GD32VW55x_RELEASE_V1.0.2/MSDK/app\iperf3_main.c ****             sys_exit_critical();
 473              		.loc 1 238 27 is_stmt 0
 474 0142 83C70400 		lbu	a5,0(s1)
 237:C:/Users/stapi/OneDrive/Desktop/GD32VW553/GD32VW55X_Wifi_BLE_SDK/GD32VW55x_RELEASE_V1.0.2/MSDK/app\iperf3_main.c ****             iperf_task_num++;
 475              		.loc 1 237 35
 476 0146 33494921 		sh2add	s2,s2,s4
 477 014a 23203901 		sw	s3,0(s2)
 238:C:/Users/stapi/OneDrive/Desktop/GD32VW553/GD32VW55X_Wifi_BLE_SDK/GD32VW55x_RELEASE_V1.0.2/MSDK/app\iperf3_main.c ****             sys_exit_critical();
 478              		.loc 1 238 13 is_stmt 1
 238:C:/Users/stapi/OneDrive/Desktop/GD32VW553/GD32VW55X_Wifi_BLE_SDK/GD32VW55x_RELEASE_V1.0.2/MSDK/app\iperf3_main.c ****             sys_exit_critical();
 479              		.loc 1 238 27 is_stmt 0
 480 014e 8507     		addi	a5,a5,1
 481 0150 2380F400 		sb	a5,0(s1)
 239:C:/Users/stapi/OneDrive/Desktop/GD32VW553/GD32VW55X_Wifi_BLE_SDK/GD32VW55x_RELEASE_V1.0.2/MSDK/app\iperf3_main.c ****             return 0;
 482              		.loc 1 239 13 is_stmt 1
 483 0154 97000000 		call	sys_exit_critical
 483      E7800000 
 484              	.LVL58:
 240:C:/Users/stapi/OneDrive/Desktop/GD32VW553/GD32VW55X_Wifi_BLE_SDK/GD32VW55x_RELEASE_V1.0.2/MSDK/app\iperf3_main.c ****         }
 485              		.loc 1 240 13
 486              	.L23:
 245:C:/Users/stapi/OneDrive/Desktop/GD32VW553/GD32VW55X_Wifi_BLE_SDK/GD32VW55x_RELEASE_V1.0.2/MSDK/app\iperf3_main.c ****     }
 487              		.loc 1 245 9
 245:C:/Users/stapi/OneDrive/Desktop/GD32VW553/GD32VW55X_Wifi_BLE_SDK/GD32VW55x_RELEASE_V1.0.2/MSDK/app\iperf3_main.c ****     }
 488              		.loc 1 245 16 is_stmt 0
 489 015c 0145     		li	a0,0
 490 015e DDB5     		j	.L12
 491              	.LVL59:
 492              	.L16:
 244:C:/Users/stapi/OneDrive/Desktop/GD32VW553/GD32VW55X_Wifi_BLE_SDK/GD32VW55x_RELEASE_V1.0.2/MSDK/app\iperf3_main.c ****         return 0;
 493              		.loc 1 244 9 is_stmt 1
 494 0160 2285     		mv	a0,s0
 495 0162 97000000 		call	iperf_free_test
 495      E7800000 
 496              	.LVL60:
 497 016a CDBF     		j	.L23
 498              		.cfi_endproc
 499              	.LFE15:
 501              		.section	.rodata.cmd_iperf3.str1.4,"aMS",@progbits,1
 502              		.align	2
 503              	.LC8:
 504 0000 2D7300   		.string	"-s"
 505 0003 00       		.align	2
 506              	.LC9:
 507 0004 0D0A4970 		.string	"\r\nIperf3: start iperf3 server!\r\n"
 507      65726633 
 507      3A207374 
 507      61727420 
 507      69706572 
 508 0025 000000   		.align	2
 509              	.LC10:
 510 0028 2D6300   		.string	"-c"
 511 002b 00       		.align	2
 512              	.LC11:
 513 002c 0D0A4970 		.string	"\r\nIperf3: start iperf3 client!\r\n"
 513      65726633 
 513      3A207374 
 513      61727420 
 513      69706572 
 514 004d 000000   		.align	2
 515              	.LC12:
 516 0050 2D6800   		.string	"-h"
 517 0053 00       		.align	2
 518              	.LC13:
 519 0054 73746F70 		.string	"stop"
 519      00
 520 0059 000000   		.align	2
 521              	.LC14:
 522 005c 0D0A4970 		.string	"\r\nIperf3: command format error!\r\n"
 522      65726633 
 522      3A20636F 
 522      6D6D616E 
 522      6420666F 
 523 007e 0000     		.align	2
 524              	.LC15:
 525 0080 0D557361 		.string	"\rUsage:\r\n"
 525      67653A0D 
 525      0A00
 526 008a 0000     		.align	2
 527              	.LC16:
 528 008c 20202020 		.string	"    iperf3 <-s|-c hostip|stop|-h> [options]\r\n"
 528      69706572 
 528      6633203C 
 528      2D737C2D 
 528      6320686F 
 529 00ba 0000     		.align	2
 530              	.LC17:
 531 00bc 0D536572 		.string	"\rServer or Client:\r\n"
 531      76657220 
 531      6F722043 
 531      6C69656E 
 531      743A0D0A 
 532 00d1 000000   		.align	2
 533              	.LC18:
 534 00d4 20202020 		.string	"    -i #         seconds between periodic bandwidth reports\r\n"
 534      2D692023 
 534      20202020 
 534      20202020 
 534      20736563 
 535 0112 0000     		.align	2
 536              	.LC19:
 537 0114 20202020 		.string	"    -p #         server port to listen on/connect to\r\n"
 537      2D702023 
 537      20202020 
 537      20202020 
 537      20736572 
 538 014b 00       		.align	2
 539              	.LC20:
 540 014c 0D536572 		.string	"\rServer specific:\r\n"
 540      76657220 
 540      73706563 
 540      69666963 
 540      3A0D0A00 
 541              		.align	2
 542              	.LC21:
 543 0160 20202020 		.string	"    -s           run in server mode\r\n"
 543      2D732020 
 543      20202020 
 543      20202020 
 543      2072756E 
 544 0186 0000     		.align	2
 545              	.LC22:
 546 0188 0D436C69 		.string	"\rClient specific:\r\n"
 546      656E7420 
 546      73706563 
 546      69666963 
 546      3A0D0A00 
 547              		.align	2
 548              	.LC23:
 549 019c 20202020 		.string	"    -c <host>    run in client mode, connecting to <host>\r\n"
 549      2D63203C 
 549      686F7374 
 549      3E202020 
 549      2072756E 
 550              		.align	2
 551              	.LC24:
 552 01d8 20202020 		.string	"    -u           use UDP rather than TCP\r\n"
 552      2D752020 
 552      20202020 
 552      20202020 
 552      20757365 
 553 0203 00       		.align	2
 554              	.LC25:
 555 0204 20202020 		.string	"    -b #[KMG][/#] target bandwidth in bits/sec (0 for unlimited)\r\n"
 555      2D622023 
 555      5B4B4D47 
 555      5D5B2F23 
 555      5D207461 
 556 0247 00       		.align	2
 557              	.LC26:
 558 0248 20202020 		.string	"                 (default 1 Mbit/sec for UDP, unlimited for TCP)\r\n"
 558      20202020 
 558      20202020 
 558      20202020 
 558      20286465 
 559 028b 00       		.align	2
 560              	.LC27:
 561 028c 20202020 		.string	"                 (optional slash and packet count for burst mode)\r\n"
 561      20202020 
 561      20202020 
 561      20202020 
 561      20286F70 
 562              		.align	2
 563              	.LC28:
 564 02d0 20202020 		.string	"    -t #         time in seconds to transmit for (default 10 secs)\r\n"
 564      2D742023 
 564      20202020 
 564      20202020 
 564      2074696D 
 565 0315 000000   		.align	2
 566              	.LC29:
 567 0318 20202020 		.string	"    -l #[KMG]    length of buffer to read or write\r\n"
 567      2D6C2023 
 567      5B4B4D47 
 567      5D202020 
 567      206C656E 
 568 034d 000000   		.align	2
 569              	.LC30:
 570 0350 20202020 		.string	"    -S #         set the IP 'type of service'\r\n"
 570      2D532023 
 570      20202020 
 570      20202020 
 570      20736574 
 571              		.section	.text.cmd_iperf3,"ax",@progbits
 572              		.align	1
 573              		.globl	cmd_iperf3
 575              	cmd_iperf3:
 576              	.LFB16:
 248:C:/Users/stapi/OneDrive/Desktop/GD32VW553/GD32VW55X_Wifi_BLE_SDK/GD32VW55x_RELEASE_V1.0.2/MSDK/app\iperf3_main.c **** 
 249:C:/Users/stapi/OneDrive/Desktop/GD32VW553/GD32VW55X_Wifi_BLE_SDK/GD32VW55x_RELEASE_V1.0.2/MSDK/app\iperf3_main.c **** void cmd_iperf3(int argc, char **argv)
 250:C:/Users/stapi/OneDrive/Desktop/GD32VW553/GD32VW55X_Wifi_BLE_SDK/GD32VW55x_RELEASE_V1.0.2/MSDK/app\iperf3_main.c **** {
 577              		.loc 1 250 1
 578              		.cfi_startproc
 579              	.LVL61:
 580 0000 17030000 		call	t0,__riscv_save_4
 580      E7020300 
 581              		.cfi_offset 19, -20
 582              		.cfi_offset 18, -16
 583              		.cfi_offset 9, -12
 584              		.cfi_offset 8, -8
 585              		.cfi_offset 1, -4
 586              		.cfi_def_cfa_offset 32
 251:C:/Users/stapi/OneDrive/Desktop/GD32VW553/GD32VW55X_Wifi_BLE_SDK/GD32VW55x_RELEASE_V1.0.2/MSDK/app\iperf3_main.c ****     if (argc >= 2) {
 587              		.loc 1 251 5
 588              		.loc 1 251 8 is_stmt 0
 589 0008 8549     		li	s3,1
 590 000a 63DAA908 		ble	a0,s3,.L27
 252:C:/Users/stapi/OneDrive/Desktop/GD32VW553/GD32VW55X_Wifi_BLE_SDK/GD32VW55x_RELEASE_V1.0.2/MSDK/app\iperf3_main.c ****         if (strcmp(argv[1], "-s") == 0) {
 591              		.loc 1 252 13
 592 000e 03A94500 		lw	s2,4(a1)
 593 0012 AE84     		mv	s1,a1
 594              		.loc 1 252 9 is_stmt 1
 595              		.loc 1 252 13 is_stmt 0
 596 0014 B7050000 		lui	a1,%hi(.LC8)
 597              	.LVL62:
 598 0018 2A84     		mv	s0,a0
 599 001a 93850500 		addi	a1,a1,%lo(.LC8)
 600 001e 4A85     		mv	a0,s2
 601              	.LVL63:
 602 0020 97000000 		call	strcmp
 602      E7800000 
 603              	.LVL64:
 604              		.loc 1 252 12
 605 0028 1DE1     		bne	a0,zero,.L28
 253:C:/Users/stapi/OneDrive/Desktop/GD32VW553/GD32VW55X_Wifi_BLE_SDK/GD32VW55x_RELEASE_V1.0.2/MSDK/app\iperf3_main.c ****             app_print("\r\nIperf3: start iperf3 server!\r\n");
 606              		.loc 1 253 13 is_stmt 1
 607 002a 37050000 		lui	a0,%hi(.LC9)
 608 002e 13050500 		addi	a0,a0,%lo(.LC9)
 609              	.L37:
 254:C:/Users/stapi/OneDrive/Desktop/GD32VW553/GD32VW55X_Wifi_BLE_SDK/GD32VW55x_RELEASE_V1.0.2/MSDK/app\iperf3_main.c ****         } else if (strcmp(argv[1], "-c") == 0) {
 255:C:/Users/stapi/OneDrive/Desktop/GD32VW553/GD32VW55X_Wifi_BLE_SDK/GD32VW55x_RELEASE_V1.0.2/MSDK/app\iperf3_main.c ****             app_print("\r\nIperf3: start iperf3 client!\r\n");
 610              		.loc 1 255 13 is_stmt 0
 611 0032 97000000 		call	co_printf
 611      E7800000 
 612              	.LVL65:
 256:C:/Users/stapi/OneDrive/Desktop/GD32VW553/GD32VW55X_Wifi_BLE_SDK/GD32VW55x_RELEASE_V1.0.2/MSDK/app\iperf3_main.c ****         } else if (strcmp(argv[1], "-h") == 0) {
 257:C:/Users/stapi/OneDrive/Desktop/GD32VW553/GD32VW55X_Wifi_BLE_SDK/GD32VW55x_RELEASE_V1.0.2/MSDK/app\iperf3_main.c ****             goto Usage;
 258:C:/Users/stapi/OneDrive/Desktop/GD32VW553/GD32VW55X_Wifi_BLE_SDK/GD32VW55x_RELEASE_V1.0.2/MSDK/app\iperf3_main.c ****         } else if (strcmp(argv[1], "stop") == 0) {
 259:C:/Users/stapi/OneDrive/Desktop/GD32VW553/GD32VW55X_Wifi_BLE_SDK/GD32VW55x_RELEASE_V1.0.2/MSDK/app\iperf3_main.c ****             iperf_terminate = 1;
 260:C:/Users/stapi/OneDrive/Desktop/GD32VW553/GD32VW55X_Wifi_BLE_SDK/GD32VW55x_RELEASE_V1.0.2/MSDK/app\iperf3_main.c ****             return;
 261:C:/Users/stapi/OneDrive/Desktop/GD32VW553/GD32VW55X_Wifi_BLE_SDK/GD32VW55x_RELEASE_V1.0.2/MSDK/app\iperf3_main.c ****         } else {
 262:C:/Users/stapi/OneDrive/Desktop/GD32VW553/GD32VW55X_Wifi_BLE_SDK/GD32VW55x_RELEASE_V1.0.2/MSDK/app\iperf3_main.c ****             goto Exit;
 263:C:/Users/stapi/OneDrive/Desktop/GD32VW553/GD32VW55X_Wifi_BLE_SDK/GD32VW55x_RELEASE_V1.0.2/MSDK/app\iperf3_main.c ****         }
 264:C:/Users/stapi/OneDrive/Desktop/GD32VW553/GD32VW55X_Wifi_BLE_SDK/GD32VW55x_RELEASE_V1.0.2/MSDK/app\iperf3_main.c ****     } else {
 265:C:/Users/stapi/OneDrive/Desktop/GD32VW553/GD32VW55X_Wifi_BLE_SDK/GD32VW55x_RELEASE_V1.0.2/MSDK/app\iperf3_main.c ****         goto Exit;
 266:C:/Users/stapi/OneDrive/Desktop/GD32VW553/GD32VW55X_Wifi_BLE_SDK/GD32VW55x_RELEASE_V1.0.2/MSDK/app\iperf3_main.c ****     }
 267:C:/Users/stapi/OneDrive/Desktop/GD32VW553/GD32VW55X_Wifi_BLE_SDK/GD32VW55x_RELEASE_V1.0.2/MSDK/app\iperf3_main.c **** 
 268:C:/Users/stapi/OneDrive/Desktop/GD32VW553/GD32VW55X_Wifi_BLE_SDK/GD32VW55x_RELEASE_V1.0.2/MSDK/app\iperf3_main.c ****     iperf3_main(argc, argv);
 613              		.loc 1 268 5 is_stmt 1
 614 003a A685     		mv	a1,s1
 615 003c 2285     		mv	a0,s0
 616 003e 97000000 		call	iperf3_main
 616      E7800000 
 617              	.LVL66:
 269:C:/Users/stapi/OneDrive/Desktop/GD32VW553/GD32VW55X_Wifi_BLE_SDK/GD32VW55x_RELEASE_V1.0.2/MSDK/app\iperf3_main.c **** 
 270:C:/Users/stapi/OneDrive/Desktop/GD32VW553/GD32VW55X_Wifi_BLE_SDK/GD32VW55x_RELEASE_V1.0.2/MSDK/app\iperf3_main.c ****     return;
 618              		.loc 1 270 5
 619              	.L26:
 271:C:/Users/stapi/OneDrive/Desktop/GD32VW553/GD32VW55X_Wifi_BLE_SDK/GD32VW55x_RELEASE_V1.0.2/MSDK/app\iperf3_main.c **** Exit:
 272:C:/Users/stapi/OneDrive/Desktop/GD32VW553/GD32VW55X_Wifi_BLE_SDK/GD32VW55x_RELEASE_V1.0.2/MSDK/app\iperf3_main.c ****     app_print("\r\nIperf3: command format error!\r\n");
 273:C:/Users/stapi/OneDrive/Desktop/GD32VW553/GD32VW55X_Wifi_BLE_SDK/GD32VW55x_RELEASE_V1.0.2/MSDK/app\iperf3_main.c **** Usage:
 274:C:/Users/stapi/OneDrive/Desktop/GD32VW553/GD32VW55X_Wifi_BLE_SDK/GD32VW55x_RELEASE_V1.0.2/MSDK/app\iperf3_main.c ****     app_print("\rUsage:\r\n");
 275:C:/Users/stapi/OneDrive/Desktop/GD32VW553/GD32VW55X_Wifi_BLE_SDK/GD32VW55x_RELEASE_V1.0.2/MSDK/app\iperf3_main.c ****     app_print("    iperf3 <-s|-c hostip|stop|-h> [options]\r\n");
 276:C:/Users/stapi/OneDrive/Desktop/GD32VW553/GD32VW55X_Wifi_BLE_SDK/GD32VW55x_RELEASE_V1.0.2/MSDK/app\iperf3_main.c ****     app_print("\rServer or Client:\r\n");
 277:C:/Users/stapi/OneDrive/Desktop/GD32VW553/GD32VW55X_Wifi_BLE_SDK/GD32VW55x_RELEASE_V1.0.2/MSDK/app\iperf3_main.c ****     app_print("    -i #         seconds between periodic bandwidth reports\r\n");
 278:C:/Users/stapi/OneDrive/Desktop/GD32VW553/GD32VW55X_Wifi_BLE_SDK/GD32VW55x_RELEASE_V1.0.2/MSDK/app\iperf3_main.c ****     app_print("    -p #         server port to listen on/connect to\r\n");
 279:C:/Users/stapi/OneDrive/Desktop/GD32VW553/GD32VW55X_Wifi_BLE_SDK/GD32VW55x_RELEASE_V1.0.2/MSDK/app\iperf3_main.c ****     app_print("\rServer specific:\r\n");
 280:C:/Users/stapi/OneDrive/Desktop/GD32VW553/GD32VW55X_Wifi_BLE_SDK/GD32VW55x_RELEASE_V1.0.2/MSDK/app\iperf3_main.c ****     app_print("    -s           run in server mode\r\n");
 281:C:/Users/stapi/OneDrive/Desktop/GD32VW553/GD32VW55X_Wifi_BLE_SDK/GD32VW55x_RELEASE_V1.0.2/MSDK/app\iperf3_main.c ****     app_print("\rClient specific:\r\n");
 282:C:/Users/stapi/OneDrive/Desktop/GD32VW553/GD32VW55X_Wifi_BLE_SDK/GD32VW55x_RELEASE_V1.0.2/MSDK/app\iperf3_main.c ****     app_print("    -c <host>    run in client mode, connecting to <host>\r\n");
 283:C:/Users/stapi/OneDrive/Desktop/GD32VW553/GD32VW55X_Wifi_BLE_SDK/GD32VW55x_RELEASE_V1.0.2/MSDK/app\iperf3_main.c ****     app_print("    -u           use UDP rather than TCP\r\n");
 284:C:/Users/stapi/OneDrive/Desktop/GD32VW553/GD32VW55X_Wifi_BLE_SDK/GD32VW55x_RELEASE_V1.0.2/MSDK/app\iperf3_main.c ****     app_print("    -b #[KMG][/#] target bandwidth in bits/sec (0 for unlimited)\r\n");
 285:C:/Users/stapi/OneDrive/Desktop/GD32VW553/GD32VW55X_Wifi_BLE_SDK/GD32VW55x_RELEASE_V1.0.2/MSDK/app\iperf3_main.c ****     app_print("                 (default 1 Mbit/sec for UDP, unlimited for TCP)\r\n");
 286:C:/Users/stapi/OneDrive/Desktop/GD32VW553/GD32VW55X_Wifi_BLE_SDK/GD32VW55x_RELEASE_V1.0.2/MSDK/app\iperf3_main.c ****     app_print("                 (optional slash and packet count for burst mode)\r\n");
 287:C:/Users/stapi/OneDrive/Desktop/GD32VW553/GD32VW55X_Wifi_BLE_SDK/GD32VW55x_RELEASE_V1.0.2/MSDK/app\iperf3_main.c ****     app_print("    -t #         time in seconds to transmit for (default 10 secs)\r\n");
 288:C:/Users/stapi/OneDrive/Desktop/GD32VW553/GD32VW55X_Wifi_BLE_SDK/GD32VW55x_RELEASE_V1.0.2/MSDK/app\iperf3_main.c ****     app_print("    -l #[KMG]    length of buffer to read or write\r\n");
 289:C:/Users/stapi/OneDrive/Desktop/GD32VW553/GD32VW55X_Wifi_BLE_SDK/GD32VW55x_RELEASE_V1.0.2/MSDK/app\iperf3_main.c ****     app_print("    -S #         set the IP 'type of service'\r\n");
 290:C:/Users/stapi/OneDrive/Desktop/GD32VW553/GD32VW55X_Wifi_BLE_SDK/GD32VW55x_RELEASE_V1.0.2/MSDK/app\iperf3_main.c **** }
 620              		.loc 1 290 1 is_stmt 0
 621 0046 17030000 		tail	__riscv_restore_4
 621      67000300 
 622              		.cfi_remember_state
 623              		.cfi_restore 19
 624              		.cfi_restore 18
 625              		.cfi_restore 9
 626              		.cfi_restore 8
 627              		.cfi_restore 1
 628              		.cfi_def_cfa_offset 0
 629              	.LVL67:
 630              	.L28:
 631              		.cfi_restore_state
 254:C:/Users/stapi/OneDrive/Desktop/GD32VW553/GD32VW55X_Wifi_BLE_SDK/GD32VW55x_RELEASE_V1.0.2/MSDK/app\iperf3_main.c ****             app_print("\r\nIperf3: start iperf3 client!\r\n");
 632              		.loc 1 254 16 is_stmt 1
 254:C:/Users/stapi/OneDrive/Desktop/GD32VW553/GD32VW55X_Wifi_BLE_SDK/GD32VW55x_RELEASE_V1.0.2/MSDK/app\iperf3_main.c ****             app_print("\r\nIperf3: start iperf3 client!\r\n");
 633              		.loc 1 254 20 is_stmt 0
 634 004e B7050000 		lui	a1,%hi(.LC10)
 635 0052 93850500 		addi	a1,a1,%lo(.LC10)
 636 0056 4A85     		mv	a0,s2
 637 0058 97000000 		call	strcmp
 637      E7800000 
 638              	.LVL68:
 254:C:/Users/stapi/OneDrive/Desktop/GD32VW553/GD32VW55X_Wifi_BLE_SDK/GD32VW55x_RELEASE_V1.0.2/MSDK/app\iperf3_main.c ****             app_print("\r\nIperf3: start iperf3 client!\r\n");
 639              		.loc 1 254 19
 640 0060 11E5     		bne	a0,zero,.L30
 255:C:/Users/stapi/OneDrive/Desktop/GD32VW553/GD32VW55X_Wifi_BLE_SDK/GD32VW55x_RELEASE_V1.0.2/MSDK/app\iperf3_main.c ****         } else if (strcmp(argv[1], "-h") == 0) {
 641              		.loc 1 255 13 is_stmt 1
 642 0062 37050000 		lui	a0,%hi(.LC11)
 643 0066 13050500 		addi	a0,a0,%lo(.LC11)
 644 006a E1B7     		j	.L37
 645              	.L30:
 256:C:/Users/stapi/OneDrive/Desktop/GD32VW553/GD32VW55X_Wifi_BLE_SDK/GD32VW55x_RELEASE_V1.0.2/MSDK/app\iperf3_main.c ****             goto Usage;
 646              		.loc 1 256 16
 256:C:/Users/stapi/OneDrive/Desktop/GD32VW553/GD32VW55X_Wifi_BLE_SDK/GD32VW55x_RELEASE_V1.0.2/MSDK/app\iperf3_main.c ****             goto Usage;
 647              		.loc 1 256 20 is_stmt 0
 648 006c B7050000 		lui	a1,%hi(.LC12)
 649 0070 93850500 		addi	a1,a1,%lo(.LC12)
 650 0074 4A85     		mv	a0,s2
 651 0076 97000000 		call	strcmp
 651      E7800000 
 652              	.LVL69:
 256:C:/Users/stapi/OneDrive/Desktop/GD32VW553/GD32VW55X_Wifi_BLE_SDK/GD32VW55x_RELEASE_V1.0.2/MSDK/app\iperf3_main.c ****             goto Usage;
 653              		.loc 1 256 19
 654 007e 05C9     		beq	a0,zero,.L31
 258:C:/Users/stapi/OneDrive/Desktop/GD32VW553/GD32VW55X_Wifi_BLE_SDK/GD32VW55x_RELEASE_V1.0.2/MSDK/app\iperf3_main.c ****             iperf_terminate = 1;
 655              		.loc 1 258 16 is_stmt 1
 258:C:/Users/stapi/OneDrive/Desktop/GD32VW553/GD32VW55X_Wifi_BLE_SDK/GD32VW55x_RELEASE_V1.0.2/MSDK/app\iperf3_main.c ****             iperf_terminate = 1;
 656              		.loc 1 258 20 is_stmt 0
 657 0080 B7050000 		lui	a1,%hi(.LC13)
 658 0084 93850500 		addi	a1,a1,%lo(.LC13)
 659 0088 4A85     		mv	a0,s2
 660 008a 97000000 		call	strcmp
 660      E7800000 
 661              	.LVL70:
 258:C:/Users/stapi/OneDrive/Desktop/GD32VW553/GD32VW55X_Wifi_BLE_SDK/GD32VW55x_RELEASE_V1.0.2/MSDK/app\iperf3_main.c ****             iperf_terminate = 1;
 662              		.loc 1 258 19
 663 0092 11E5     		bne	a0,zero,.L27
 259:C:/Users/stapi/OneDrive/Desktop/GD32VW553/GD32VW55X_Wifi_BLE_SDK/GD32VW55x_RELEASE_V1.0.2/MSDK/app\iperf3_main.c ****             return;
 664              		.loc 1 259 13 is_stmt 1
 259:C:/Users/stapi/OneDrive/Desktop/GD32VW553/GD32VW55X_Wifi_BLE_SDK/GD32VW55x_RELEASE_V1.0.2/MSDK/app\iperf3_main.c ****             return;
 665              		.loc 1 259 29 is_stmt 0
 666 0094 B7070000 		lui	a5,%hi(.LANCHOR0)
 667 0098 23803701 		sb	s3,%lo(.LANCHOR0)(a5)
 260:C:/Users/stapi/OneDrive/Desktop/GD32VW553/GD32VW55X_Wifi_BLE_SDK/GD32VW55x_RELEASE_V1.0.2/MSDK/app\iperf3_main.c ****         } else {
 668              		.loc 1 260 13 is_stmt 1
 669 009c 6DB7     		j	.L26
 670              	.LVL71:
 671              	.L27:
 272:C:/Users/stapi/OneDrive/Desktop/GD32VW553/GD32VW55X_Wifi_BLE_SDK/GD32VW55x_RELEASE_V1.0.2/MSDK/app\iperf3_main.c **** Usage:
 672              		.loc 1 272 5
 673 009e 37050000 		lui	a0,%hi(.LC14)
 674 00a2 13050500 		addi	a0,a0,%lo(.LC14)
 675 00a6 97000000 		call	co_printf
 675      E7800000 
 676              	.LVL72:
 677              	.L31:
 274:C:/Users/stapi/OneDrive/Desktop/GD32VW553/GD32VW55X_Wifi_BLE_SDK/GD32VW55x_RELEASE_V1.0.2/MSDK/app\iperf3_main.c ****     app_print("    iperf3 <-s|-c hostip|stop|-h> [options]\r\n");
 678              		.loc 1 274 5
 679 00ae 37050000 		lui	a0,%hi(.LC15)
 680 00b2 13050500 		addi	a0,a0,%lo(.LC15)
 681 00b6 97000000 		call	co_printf
 681      E7800000 
 682              	.LVL73:
 275:C:/Users/stapi/OneDrive/Desktop/GD32VW553/GD32VW55X_Wifi_BLE_SDK/GD32VW55x_RELEASE_V1.0.2/MSDK/app\iperf3_main.c ****     app_print("\rServer or Client:\r\n");
 683              		.loc 1 275 5
 684 00be 37050000 		lui	a0,%hi(.LC16)
 685 00c2 13050500 		addi	a0,a0,%lo(.LC16)
 686 00c6 97000000 		call	co_printf
 686      E7800000 
 687              	.LVL74:
 276:C:/Users/stapi/OneDrive/Desktop/GD32VW553/GD32VW55X_Wifi_BLE_SDK/GD32VW55x_RELEASE_V1.0.2/MSDK/app\iperf3_main.c ****     app_print("    -i #         seconds between periodic bandwidth reports\r\n");
 688              		.loc 1 276 5
 689 00ce 37050000 		lui	a0,%hi(.LC17)
 690 00d2 13050500 		addi	a0,a0,%lo(.LC17)
 691 00d6 97000000 		call	co_printf
 691      E7800000 
 692              	.LVL75:
 277:C:/Users/stapi/OneDrive/Desktop/GD32VW553/GD32VW55X_Wifi_BLE_SDK/GD32VW55x_RELEASE_V1.0.2/MSDK/app\iperf3_main.c ****     app_print("    -p #         server port to listen on/connect to\r\n");
 693              		.loc 1 277 5
 694 00de 37050000 		lui	a0,%hi(.LC18)
 695 00e2 13050500 		addi	a0,a0,%lo(.LC18)
 696 00e6 97000000 		call	co_printf
 696      E7800000 
 697              	.LVL76:
 278:C:/Users/stapi/OneDrive/Desktop/GD32VW553/GD32VW55X_Wifi_BLE_SDK/GD32VW55x_RELEASE_V1.0.2/MSDK/app\iperf3_main.c ****     app_print("\rServer specific:\r\n");
 698              		.loc 1 278 5
 699 00ee 37050000 		lui	a0,%hi(.LC19)
 700 00f2 13050500 		addi	a0,a0,%lo(.LC19)
 701 00f6 97000000 		call	co_printf
 701      E7800000 
 702              	.LVL77:
 279:C:/Users/stapi/OneDrive/Desktop/GD32VW553/GD32VW55X_Wifi_BLE_SDK/GD32VW55x_RELEASE_V1.0.2/MSDK/app\iperf3_main.c ****     app_print("    -s           run in server mode\r\n");
 703              		.loc 1 279 5
 704 00fe 37050000 		lui	a0,%hi(.LC20)
 705 0102 13050500 		addi	a0,a0,%lo(.LC20)
 706 0106 97000000 		call	co_printf
 706      E7800000 
 707              	.LVL78:
 280:C:/Users/stapi/OneDrive/Desktop/GD32VW553/GD32VW55X_Wifi_BLE_SDK/GD32VW55x_RELEASE_V1.0.2/MSDK/app\iperf3_main.c ****     app_print("\rClient specific:\r\n");
 708              		.loc 1 280 5
 709 010e 37050000 		lui	a0,%hi(.LC21)
 710 0112 13050500 		addi	a0,a0,%lo(.LC21)
 711 0116 97000000 		call	co_printf
 711      E7800000 
 712              	.LVL79:
 281:C:/Users/stapi/OneDrive/Desktop/GD32VW553/GD32VW55X_Wifi_BLE_SDK/GD32VW55x_RELEASE_V1.0.2/MSDK/app\iperf3_main.c ****     app_print("    -c <host>    run in client mode, connecting to <host>\r\n");
 713              		.loc 1 281 5
 714 011e 37050000 		lui	a0,%hi(.LC22)
 715 0122 13050500 		addi	a0,a0,%lo(.LC22)
 716 0126 97000000 		call	co_printf
 716      E7800000 
 717              	.LVL80:
 282:C:/Users/stapi/OneDrive/Desktop/GD32VW553/GD32VW55X_Wifi_BLE_SDK/GD32VW55x_RELEASE_V1.0.2/MSDK/app\iperf3_main.c ****     app_print("    -u           use UDP rather than TCP\r\n");
 718              		.loc 1 282 5
 719 012e 37050000 		lui	a0,%hi(.LC23)
 720 0132 13050500 		addi	a0,a0,%lo(.LC23)
 721 0136 97000000 		call	co_printf
 721      E7800000 
 722              	.LVL81:
 283:C:/Users/stapi/OneDrive/Desktop/GD32VW553/GD32VW55X_Wifi_BLE_SDK/GD32VW55x_RELEASE_V1.0.2/MSDK/app\iperf3_main.c ****     app_print("    -b #[KMG][/#] target bandwidth in bits/sec (0 for unlimited)\r\n");
 723              		.loc 1 283 5
 724 013e 37050000 		lui	a0,%hi(.LC24)
 725 0142 13050500 		addi	a0,a0,%lo(.LC24)
 726 0146 97000000 		call	co_printf
 726      E7800000 
 727              	.LVL82:
 284:C:/Users/stapi/OneDrive/Desktop/GD32VW553/GD32VW55X_Wifi_BLE_SDK/GD32VW55x_RELEASE_V1.0.2/MSDK/app\iperf3_main.c ****     app_print("                 (default 1 Mbit/sec for UDP, unlimited for TCP)\r\n");
 728              		.loc 1 284 5
 729 014e 37050000 		lui	a0,%hi(.LC25)
 730 0152 13050500 		addi	a0,a0,%lo(.LC25)
 731 0156 97000000 		call	co_printf
 731      E7800000 
 732              	.LVL83:
 285:C:/Users/stapi/OneDrive/Desktop/GD32VW553/GD32VW55X_Wifi_BLE_SDK/GD32VW55x_RELEASE_V1.0.2/MSDK/app\iperf3_main.c ****     app_print("                 (optional slash and packet count for burst mode)\r\n");
 733              		.loc 1 285 5
 734 015e 37050000 		lui	a0,%hi(.LC26)
 735 0162 13050500 		addi	a0,a0,%lo(.LC26)
 736 0166 97000000 		call	co_printf
 736      E7800000 
 737              	.LVL84:
 286:C:/Users/stapi/OneDrive/Desktop/GD32VW553/GD32VW55X_Wifi_BLE_SDK/GD32VW55x_RELEASE_V1.0.2/MSDK/app\iperf3_main.c ****     app_print("    -t #         time in seconds to transmit for (default 10 secs)\r\n");
 738              		.loc 1 286 5
 739 016e 37050000 		lui	a0,%hi(.LC27)
 740 0172 13050500 		addi	a0,a0,%lo(.LC27)
 741 0176 97000000 		call	co_printf
 741      E7800000 
 742              	.LVL85:
 287:C:/Users/stapi/OneDrive/Desktop/GD32VW553/GD32VW55X_Wifi_BLE_SDK/GD32VW55x_RELEASE_V1.0.2/MSDK/app\iperf3_main.c ****     app_print("    -l #[KMG]    length of buffer to read or write\r\n");
 743              		.loc 1 287 5
 744 017e 37050000 		lui	a0,%hi(.LC28)
 745 0182 13050500 		addi	a0,a0,%lo(.LC28)
 746 0186 97000000 		call	co_printf
 746      E7800000 
 747              	.LVL86:
 288:C:/Users/stapi/OneDrive/Desktop/GD32VW553/GD32VW55X_Wifi_BLE_SDK/GD32VW55x_RELEASE_V1.0.2/MSDK/app\iperf3_main.c ****     app_print("    -S #         set the IP 'type of service'\r\n");
 748              		.loc 1 288 5
 749 018e 37050000 		lui	a0,%hi(.LC29)
 750 0192 13050500 		addi	a0,a0,%lo(.LC29)
 751 0196 97000000 		call	co_printf
 751      E7800000 
 752              	.LVL87:
 289:C:/Users/stapi/OneDrive/Desktop/GD32VW553/GD32VW55X_Wifi_BLE_SDK/GD32VW55x_RELEASE_V1.0.2/MSDK/app\iperf3_main.c **** }
 753              		.loc 1 289 5
 754 019e 37050000 		lui	a0,%hi(.LC30)
 755 01a2 13050500 		addi	a0,a0,%lo(.LC30)
 756 01a6 97000000 		call	co_printf
 756      E7800000 
 757              	.LVL88:
 758 01ae 61BD     		j	.L26
 759              		.cfi_endproc
 760              	.LFE16:
 762              		.globl	iperf_task_tcb_ptr
 763              		.globl	iperf_task_num
 764              		.globl	iperf_terminate
 765              		.section	.sbss.iperf_task_num,"aw",@nobits
 766              		.set	.LANCHOR2,. + 0
 769              	iperf_task_num:
 770 0000 00       		.zero	1
 771              		.section	.sbss.iperf_task_tcb_ptr,"aw",@nobits
 772              		.align	2
 773              		.set	.LANCHOR1,. + 0
 776              	iperf_task_tcb_ptr:
 777 0000 00000000 		.zero	8
 777      00000000 
 778              		.section	.sbss.iperf_terminate,"aw",@nobits
 779              		.set	.LANCHOR0,. + 0
 782              	iperf_terminate:
 783 0000 00       		.zero	1
 784              		.text
 785              	.Letext0:
 786              		.file 2 "c:\\users\\stapi\\onedrive\\desktop\\gd32vw553\\embeddedbuilder_v1.4.7.26843\\tools\\nucl
 787              		.file 3 "c:\\users\\stapi\\onedrive\\desktop\\gd32vw553\\embeddedbuilder_v1.4.7.26843\\tools\\nucl
 788              		.file 4 "..\\..\\..\\..\\rtos\\rtos_wrapper/wrapper_os.h"
 789              		.file 5 "C:/Users/stapi/OneDrive/Desktop/GD32VW553/GD32VW55X_Wifi_BLE_SDK/GD32VW55x_RELEASE_V1.0.2
 790              		.file 6 "..\\..\\..\\..\\lwip\\lwip-2.1.2\\src\\include/lwip/arch.h"
 791              		.file 7 "..\\..\\..\\..\\lwip\\lwip-2.1.2\\src\\include/lwip/memp.h"
 792              		.file 8 "..\\..\\..\\..\\lwip\\lwip-2.1.2\\src\\include/lwip/sockets.h"
 793              		.file 9 "..\\..\\..\\..\\lwip\\iperf3/iperf_timer.h"
 794              		.file 10 "..\\..\\..\\..\\lwip\\iperf3/iperf.h"
 795              		.file 11 "..\\..\\..\\..\\lwip\\iperf3/iperf_api.h"
 796              		.file 12 "c:\\users\\stapi\\onedrive\\desktop\\gd32vw553\\embeddedbuilder_v1.4.7.26843\\tools\\nuc
 797              		.file 13 "..\\..\\..\\..\\util\\include/debug_print.h"
 798              		.file 14 "..\\..\\..\\..\\lwip\\lwip-2.1.2\\src\\include/lwip/netif.h"
DEFINED SYMBOLS
                            *ABS*:0000000000000000 iperf3_main.c
C:\Users\stapi\AppData\Local\Temp\ccvK0uVp.s:23     .text.iperf_test_task:0000000000000000 iperf_test_task
C:\Users\stapi\AppData\Local\Temp\ccvK0uVp.s:27     .text.iperf_test_task:0000000000000000 .L0 
C:\Users\stapi\AppData\Local\Temp\ccvK0uVp.s:29     .text.iperf_test_task:0000000000000000 .L0 
C:\Users\stapi\AppData\Local\Temp\ccvK0uVp.s:30     .text.iperf_test_task:0000000000000008 .L0 
C:\Users\stapi\AppData\Local\Temp\ccvK0uVp.s:31     .text.iperf_test_task:0000000000000008 .L0 
C:\Users\stapi\AppData\Local\Temp\ccvK0uVp.s:32     .text.iperf_test_task:0000000000000008 .L0 
C:\Users\stapi\AppData\Local\Temp\ccvK0uVp.s:33     .text.iperf_test_task:0000000000000008 .L0 
C:\Users\stapi\AppData\Local\Temp\ccvK0uVp.s:34     .text.iperf_test_task:0000000000000008 .L0 
C:\Users\stapi\AppData\Local\Temp\ccvK0uVp.s:35     .text.iperf_test_task:0000000000000008 .L0 
C:\Users\stapi\AppData\Local\Temp\ccvK0uVp.s:36     .text.iperf_test_task:0000000000000008 .L0 
C:\Users\stapi\AppData\Local\Temp\ccvK0uVp.s:37     .text.iperf_test_task:0000000000000008 .L0 
C:\Users\stapi\AppData\Local\Temp\ccvK0uVp.s:38     .text.iperf_test_task:0000000000000008 .L0 
C:\Users\stapi\AppData\Local\Temp\ccvK0uVp.s:41     .text.iperf_test_task:0000000000000008 .L0 
C:\Users\stapi\AppData\Local\Temp\ccvK0uVp.s:44     .text.iperf_test_task:0000000000000008 .L0 
C:\Users\stapi\AppData\Local\Temp\ccvK0uVp.s:45     .text.iperf_test_task:0000000000000008 .L0 
C:\Users\stapi\AppData\Local\Temp\ccvK0uVp.s:49     .text.iperf_test_task:000000000000000c .L0 
C:\Users\stapi\AppData\Local\Temp\ccvK0uVp.s:51     .text.iperf_test_task:000000000000000e .L0 
C:\Users\stapi\AppData\Local\Temp\ccvK0uVp.s:54     .text.iperf_test_task:0000000000000012 .L0 
C:\Users\stapi\AppData\Local\Temp\ccvK0uVp.s:57     .text.iperf_test_task:0000000000000012 .L0 
C:\Users\stapi\AppData\Local\Temp\ccvK0uVp.s:58     .text.iperf_test_task:0000000000000012 .L0 
C:\Users\stapi\AppData\Local\Temp\ccvK0uVp.s:59     .text.iperf_test_task:0000000000000012 .L0 
C:\Users\stapi\AppData\Local\Temp\ccvK0uVp.s:60     .text.iperf_test_task:0000000000000012 .L0 
C:\Users\stapi\AppData\Local\Temp\ccvK0uVp.s:62     .text.iperf_test_task:0000000000000016 .L0 
C:\Users\stapi\AppData\Local\Temp\ccvK0uVp.s:67     .text.iperf_test_task:0000000000000024 .L0 
C:\Users\stapi\AppData\Local\Temp\ccvK0uVp.s:69     .text.iperf_test_task:0000000000000028 .L0 
C:\Users\stapi\AppData\Local\Temp\ccvK0uVp.s:72     .text.iperf_test_task:0000000000000030 .L0 
C:\Users\stapi\AppData\Local\Temp\ccvK0uVp.s:76     .text.iperf_test_task:0000000000000032 .L0 
C:\Users\stapi\AppData\Local\Temp\ccvK0uVp.s:77     .text.iperf_test_task:0000000000000032 .L0 
C:\Users\stapi\AppData\Local\Temp\ccvK0uVp.s:78     .text.iperf_test_task:0000000000000032 .L0 
C:\Users\stapi\AppData\Local\Temp\ccvK0uVp.s:81     .text.iperf_test_task:0000000000000038 .L0 
C:\Users\stapi\AppData\Local\Temp\ccvK0uVp.s:82     .text.iperf_test_task:0000000000000038 .L0 
C:\Users\stapi\AppData\Local\Temp\ccvK0uVp.s:86     .text.iperf_test_task:0000000000000042 .L0 
C:\Users\stapi\AppData\Local\Temp\ccvK0uVp.s:88     .text.iperf_test_task:0000000000000046 .L0 
C:\Users\stapi\AppData\Local\Temp\ccvK0uVp.s:89     .text.iperf_test_task:0000000000000046 .L0 
C:\Users\stapi\AppData\Local\Temp\ccvK0uVp.s:91     .text.iperf_test_task:000000000000004a .L0 
C:\Users\stapi\AppData\Local\Temp\ccvK0uVp.s:94     .text.iperf_test_task:000000000000004c .L0 
C:\Users\stapi\AppData\Local\Temp\ccvK0uVp.s:101    .text.iperf_test_task:0000000000000062 .L0 
C:\Users\stapi\AppData\Local\Temp\ccvK0uVp.s:102    .text.iperf_test_task:0000000000000062 .L0 
C:\Users\stapi\AppData\Local\Temp\ccvK0uVp.s:103    .text.iperf_test_task:0000000000000062 .L0 
C:\Users\stapi\AppData\Local\Temp\ccvK0uVp.s:104    .text.iperf_test_task:0000000000000062 .L0 
C:\Users\stapi\AppData\Local\Temp\ccvK0uVp.s:105    .text.iperf_test_task:0000000000000062 .L0 
C:\Users\stapi\AppData\Local\Temp\ccvK0uVp.s:107    .text.iperf_test_task:0000000000000066 .L0 
C:\Users\stapi\AppData\Local\Temp\ccvK0uVp.s:108    .text.iperf_test_task:0000000000000066 .L0 
C:\Users\stapi\AppData\Local\Temp\ccvK0uVp.s:113    .text.iperf_test_task:0000000000000076 .L0 
C:\Users\stapi\AppData\Local\Temp\ccvK0uVp.s:114    .text.iperf_test_task:0000000000000076 .L0 
C:\Users\stapi\AppData\Local\Temp\ccvK0uVp.s:118    .text.iperf_test_task:0000000000000076 .L0 
C:\Users\stapi\AppData\Local\Temp\ccvK0uVp.s:119    .text.iperf_test_task:0000000000000076 .L0 
C:\Users\stapi\AppData\Local\Temp\ccvK0uVp.s:120    .text.iperf_test_task:0000000000000076 .L0 
C:\Users\stapi\AppData\Local\Temp\ccvK0uVp.s:135    .text.iperf_test_task:000000000000009a .L0 
C:\Users\stapi\AppData\Local\Temp\ccvK0uVp.s:139    .text.iperf_test_task:000000000000009c .L0 
C:\Users\stapi\AppData\Local\Temp\ccvK0uVp.s:143    .text.iperf_test_task:00000000000000a6 .L0 
C:\Users\stapi\AppData\Local\Temp\ccvK0uVp.s:144    .text.iperf_test_task:00000000000000a6 .L0 
C:\Users\stapi\AppData\Local\Temp\ccvK0uVp.s:148    .text.iperf_test_task:00000000000000b0 .L0 
C:\Users\stapi\AppData\Local\Temp\ccvK0uVp.s:154    .text.iperf_test_task:00000000000000b2 .L0 
C:\Users\stapi\AppData\Local\Temp\ccvK0uVp.s:155    .text.iperf_test_task:00000000000000b2 .L0 
C:\Users\stapi\AppData\Local\Temp\ccvK0uVp.s:156    .text.iperf_test_task:00000000000000b2 .L0 
C:\Users\stapi\AppData\Local\Temp\ccvK0uVp.s:160    .text.iperf_test_task:00000000000000bc .L0 
C:\Users\stapi\AppData\Local\Temp\ccvK0uVp.s:165    .text.iperf_test_task:00000000000000cc .L0 
C:\Users\stapi\AppData\Local\Temp\ccvK0uVp.s:168    .text.iperf_test_task:00000000000000d4 .L0 
C:\Users\stapi\AppData\Local\Temp\ccvK0uVp.s:169    .text.iperf_test_task:00000000000000d4 .L0 
C:\Users\stapi\AppData\Local\Temp\ccvK0uVp.s:174    .text.iperf_test_task:00000000000000e0 .L0 
C:\Users\stapi\AppData\Local\Temp\ccvK0uVp.s:178    .text.iperf_test_task:00000000000000ec .L0 
C:\Users\stapi\AppData\Local\Temp\ccvK0uVp.s:180    .text.iperf_test_task:00000000000000f0 .L0 
C:\Users\stapi\AppData\Local\Temp\ccvK0uVp.s:181    .text.iperf_test_task:00000000000000f0 .L0 
C:\Users\stapi\AppData\Local\Temp\ccvK0uVp.s:184    .text.iperf_test_task:00000000000000f6 .L0 
C:\Users\stapi\AppData\Local\Temp\ccvK0uVp.s:187    .text.iperf_test_task:00000000000000fe .L0 
C:\Users\stapi\AppData\Local\Temp\ccvK0uVp.s:191    .text.iperf_test_task:0000000000000108 .L0 
C:\Users\stapi\AppData\Local\Temp\ccvK0uVp.s:192    .text.iperf_test_task:0000000000000110 .L0 
C:\Users\stapi\AppData\Local\Temp\ccvK0uVp.s:193    .text.iperf_test_task:0000000000000110 .L0 
C:\Users\stapi\AppData\Local\Temp\ccvK0uVp.s:194    .text.iperf_test_task:0000000000000110 .L0 
C:\Users\stapi\AppData\Local\Temp\ccvK0uVp.s:195    .text.iperf_test_task:0000000000000110 .L0 
C:\Users\stapi\AppData\Local\Temp\ccvK0uVp.s:196    .text.iperf_test_task:0000000000000110 .L0 
C:\Users\stapi\AppData\Local\Temp\ccvK0uVp.s:197    .text.iperf_test_task:0000000000000110 .L0 
C:\Users\stapi\AppData\Local\Temp\ccvK0uVp.s:198    .text.iperf_test_task:0000000000000110 .L0 
C:\Users\stapi\AppData\Local\Temp\ccvK0uVp.s:199    .text.iperf_test_task:0000000000000110 .L0 
C:\Users\stapi\AppData\Local\Temp\ccvK0uVp.s:200    .text.iperf_test_task:0000000000000110 .L0 
C:\Users\stapi\AppData\Local\Temp\ccvK0uVp.s:201    .text.iperf_test_task:0000000000000110 .L0 
C:\Users\stapi\AppData\Local\Temp\ccvK0uVp.s:204    .text.iperf_test_task:0000000000000110 .L0 
C:\Users\stapi\AppData\Local\Temp\ccvK0uVp.s:208    .text.iperf_test_task:0000000000000110 .L0 
C:\Users\stapi\AppData\Local\Temp\ccvK0uVp.s:209    .text.iperf_test_task:0000000000000110 .L0 
C:\Users\stapi\AppData\Local\Temp\ccvK0uVp.s:212    .text.iperf_test_task:0000000000000118 .L0 
C:\Users\stapi\AppData\Local\Temp\ccvK0uVp.s:214    .text.iperf_test_task:000000000000011c .L0 
C:\Users\stapi\AppData\Local\Temp\ccvK0uVp.s:215    .text.iperf_test_task:000000000000011c .L0 
C:\Users\stapi\AppData\Local\Temp\ccvK0uVp.s:225    .text.iperf_test_task:000000000000013e .L0 
C:\Users\stapi\AppData\Local\Temp\ccvK0uVp.s:226    .text.iperf_test_task:000000000000013e .L0 
C:\Users\stapi\AppData\Local\Temp\ccvK0uVp.s:227    .text.iperf_test_task:000000000000013e .L0 
C:\Users\stapi\AppData\Local\Temp\ccvK0uVp.s:231    .text.iperf_test_task:0000000000000140 .L0 
C:\Users\stapi\AppData\Local\Temp\ccvK0uVp.s:234    .text.iperf_test_task:0000000000000148 .L0 
C:\Users\stapi\AppData\Local\Temp\ccvK0uVp.s:237    .text.iperf_test_task:000000000000014a .L0 
C:\Users\stapi\AppData\Local\Temp\ccvK0uVp.s:260    .text.iperf3_main:0000000000000000 iperf3_main
C:\Users\stapi\AppData\Local\Temp\ccvK0uVp.s:263    .text.iperf3_main:0000000000000000 .L0 
C:\Users\stapi\AppData\Local\Temp\ccvK0uVp.s:265    .text.iperf3_main:0000000000000000 .L0 
C:\Users\stapi\AppData\Local\Temp\ccvK0uVp.s:266    .text.iperf3_main:0000000000000008 .L0 
C:\Users\stapi\AppData\Local\Temp\ccvK0uVp.s:267    .text.iperf3_main:0000000000000008 .L0 
C:\Users\stapi\AppData\Local\Temp\ccvK0uVp.s:268    .text.iperf3_main:0000000000000008 .L0 
C:\Users\stapi\AppData\Local\Temp\ccvK0uVp.s:269    .text.iperf3_main:0000000000000008 .L0 
C:\Users\stapi\AppData\Local\Temp\ccvK0uVp.s:270    .text.iperf3_main:0000000000000008 .L0 
C:\Users\stapi\AppData\Local\Temp\ccvK0uVp.s:271    .text.iperf3_main:0000000000000008 .L0 
C:\Users\stapi\AppData\Local\Temp\ccvK0uVp.s:272    .text.iperf3_main:0000000000000008 .L0 
C:\Users\stapi\AppData\Local\Temp\ccvK0uVp.s:274    .text.iperf3_main:0000000000000008 .L0 
C:\Users\stapi\AppData\Local\Temp\ccvK0uVp.s:275    .text.iperf3_main:0000000000000008 .L0 
C:\Users\stapi\AppData\Local\Temp\ccvK0uVp.s:276    .text.iperf3_main:0000000000000008 .L0 
C:\Users\stapi\AppData\Local\Temp\ccvK0uVp.s:277    .text.iperf3_main:0000000000000008 .L0 
C:\Users\stapi\AppData\Local\Temp\ccvK0uVp.s:278    .text.iperf3_main:0000000000000008 .L0 
C:\Users\stapi\AppData\Local\Temp\ccvK0uVp.s:279    .text.iperf3_main:0000000000000008 .L0 
C:\Users\stapi\AppData\Local\Temp\ccvK0uVp.s:280    .text.iperf3_main:0000000000000008 .L0 
C:\Users\stapi\AppData\Local\Temp\ccvK0uVp.s:281    .text.iperf3_main:000000000000000a .L0 
C:\Users\stapi\AppData\Local\Temp\ccvK0uVp.s:283    .text.iperf3_main:000000000000000a .L0 
C:\Users\stapi\AppData\Local\Temp\ccvK0uVp.s:285    .text.iperf3_main:000000000000000e .L0 
C:\Users\stapi\AppData\Local\Temp\ccvK0uVp.s:288    .text.iperf3_main:0000000000000012 .L0 
C:\Users\stapi\AppData\Local\Temp\ccvK0uVp.s:290    .text.iperf3_main:0000000000000016 .L0 
C:\Users\stapi\AppData\Local\Temp\ccvK0uVp.s:291    .text.iperf3_main:0000000000000016 .L0 
C:\Users\stapi\AppData\Local\Temp\ccvK0uVp.s:294    .text.iperf3_main:000000000000001e .L0 
C:\Users\stapi\AppData\Local\Temp\ccvK0uVp.s:295    .text.iperf3_main:000000000000001e .L0 
C:\Users\stapi\AppData\Local\Temp\ccvK0uVp.s:297    .text.iperf3_main:0000000000000020 .L0 
C:\Users\stapi\AppData\Local\Temp\ccvK0uVp.s:298    .text.iperf3_main:0000000000000020 .L0 
C:\Users\stapi\AppData\Local\Temp\ccvK0uVp.s:309    .text.iperf3_main:0000000000000042 .L0 
C:\Users\stapi\AppData\Local\Temp\ccvK0uVp.s:310    .text.iperf3_main:0000000000000042 .L0 
C:\Users\stapi\AppData\Local\Temp\ccvK0uVp.s:312    .text.iperf3_main:0000000000000042 .L0 
C:\Users\stapi\AppData\Local\Temp\ccvK0uVp.s:313    .text.iperf3_main:0000000000000042 .L0 
C:\Users\stapi\AppData\Local\Temp\ccvK0uVp.s:314    .text.iperf3_main:0000000000000042 .L0 
C:\Users\stapi\AppData\Local\Temp\ccvK0uVp.s:317    .text.iperf3_main:0000000000000044 .L0 
C:\Users\stapi\AppData\Local\Temp\ccvK0uVp.s:318    .text.iperf3_main:0000000000000046 .L0 
C:\Users\stapi\AppData\Local\Temp\ccvK0uVp.s:319    .text.iperf3_main:0000000000000046 .L0 
C:\Users\stapi\AppData\Local\Temp\ccvK0uVp.s:321    .text.iperf3_main:000000000000004e .L0 
C:\Users\stapi\AppData\Local\Temp\ccvK0uVp.s:322    .text.iperf3_main:000000000000004e .L0 
C:\Users\stapi\AppData\Local\Temp\ccvK0uVp.s:323    .text.iperf3_main:000000000000004e .L0 
C:\Users\stapi\AppData\Local\Temp\ccvK0uVp.s:324    .text.iperf3_main:000000000000004e .L0 
C:\Users\stapi\AppData\Local\Temp\ccvK0uVp.s:325    .text.iperf3_main:000000000000004e .L0 
C:\Users\stapi\AppData\Local\Temp\ccvK0uVp.s:326    .text.iperf3_main:000000000000004e .L0 
C:\Users\stapi\AppData\Local\Temp\ccvK0uVp.s:327    .text.iperf3_main:000000000000004e .L0 
C:\Users\stapi\AppData\Local\Temp\ccvK0uVp.s:330    .text.iperf3_main:000000000000004e .L0 
C:\Users\stapi\AppData\Local\Temp\ccvK0uVp.s:333    .text.iperf3_main:0000000000000050 .L0 
C:\Users\stapi\AppData\Local\Temp\ccvK0uVp.s:336    .text.iperf3_main:0000000000000058 .L0 
C:\Users\stapi\AppData\Local\Temp\ccvK0uVp.s:337    .text.iperf3_main:0000000000000058 .L0 
C:\Users\stapi\AppData\Local\Temp\ccvK0uVp.s:343    .text.iperf3_main:0000000000000066 .L0 
C:\Users\stapi\AppData\Local\Temp\ccvK0uVp.s:345    .text.iperf3_main:000000000000006a .L0 
C:\Users\stapi\AppData\Local\Temp\ccvK0uVp.s:346    .text.iperf3_main:000000000000006a .L0 
C:\Users\stapi\AppData\Local\Temp\ccvK0uVp.s:356    .text.iperf3_main:000000000000008c .L0 
C:\Users\stapi\AppData\Local\Temp\ccvK0uVp.s:357    .text.iperf3_main:000000000000008c .L0 
C:\Users\stapi\AppData\Local\Temp\ccvK0uVp.s:358    .text.iperf3_main:000000000000008c .L0 
C:\Users\stapi\AppData\Local\Temp\ccvK0uVp.s:361    .text.iperf3_main:0000000000000094 .L0 
C:\Users\stapi\AppData\Local\Temp\ccvK0uVp.s:365    .text.iperf3_main:000000000000009c .L0 
C:\Users\stapi\AppData\Local\Temp\ccvK0uVp.s:366    .text.iperf3_main:000000000000009c .L0 
C:\Users\stapi\AppData\Local\Temp\ccvK0uVp.s:373    .text.iperf3_main:00000000000000a8 .L0 
C:\Users\stapi\AppData\Local\Temp\ccvK0uVp.s:376    .text.iperf3_main:00000000000000b0 .L0 
C:\Users\stapi\AppData\Local\Temp\ccvK0uVp.s:377    .text.iperf3_main:00000000000000b0 .L0 
C:\Users\stapi\AppData\Local\Temp\ccvK0uVp.s:382    .text.iperf3_main:00000000000000be .L0 
C:\Users\stapi\AppData\Local\Temp\ccvK0uVp.s:385    .text.iperf3_main:00000000000000c2 .L0 
C:\Users\stapi\AppData\Local\Temp\ccvK0uVp.s:391    .text.iperf3_main:00000000000000d0 .L0 
C:\Users\stapi\AppData\Local\Temp\ccvK0uVp.s:392    .text.iperf3_main:00000000000000d0 .L0 
C:\Users\stapi\AppData\Local\Temp\ccvK0uVp.s:393    .text.iperf3_main:00000000000000d0 .L0 
C:\Users\stapi\AppData\Local\Temp\ccvK0uVp.s:397    .text.iperf3_main:00000000000000d8 .L0 
C:\Users\stapi\AppData\Local\Temp\ccvK0uVp.s:402    .text.iperf3_main:00000000000000e0 .L0 
C:\Users\stapi\AppData\Local\Temp\ccvK0uVp.s:403    .text.iperf3_main:00000000000000e0 .L0 
C:\Users\stapi\AppData\Local\Temp\ccvK0uVp.s:404    .text.iperf3_main:00000000000000e0 .L0 
C:\Users\stapi\AppData\Local\Temp\ccvK0uVp.s:405    .text.iperf3_main:00000000000000e0 .L0 
C:\Users\stapi\AppData\Local\Temp\ccvK0uVp.s:409    .text.iperf3_main:00000000000000e4 .L0 
C:\Users\stapi\AppData\Local\Temp\ccvK0uVp.s:410    .text.iperf3_main:00000000000000e4 .L0 
C:\Users\stapi\AppData\Local\Temp\ccvK0uVp.s:411    .text.iperf3_main:00000000000000e4 .L0 
C:\Users\stapi\AppData\Local\Temp\ccvK0uVp.s:412    .text.iperf3_main:00000000000000e4 .L0 
C:\Users\stapi\AppData\Local\Temp\ccvK0uVp.s:417    .text.iperf3_main:00000000000000ec .L0 
C:\Users\stapi\AppData\Local\Temp\ccvK0uVp.s:423    .text.iperf3_main:00000000000000f6 .L0 
C:\Users\stapi\AppData\Local\Temp\ccvK0uVp.s:424    .text.iperf3_main:00000000000000f6 .L0 
C:\Users\stapi\AppData\Local\Temp\ccvK0uVp.s:426    .text.iperf3_main:00000000000000fa .L0 
C:\Users\stapi\AppData\Local\Temp\ccvK0uVp.s:427    .text.iperf3_main:00000000000000fa .L0 
C:\Users\stapi\AppData\Local\Temp\ccvK0uVp.s:428    .text.iperf3_main:00000000000000fa .L0 
C:\Users\stapi\AppData\Local\Temp\ccvK0uVp.s:432    .text.iperf3_main:00000000000000fc .L0 
C:\Users\stapi\AppData\Local\Temp\ccvK0uVp.s:433    .text.iperf3_main:00000000000000fc .L0 
C:\Users\stapi\AppData\Local\Temp\ccvK0uVp.s:434    .text.iperf3_main:00000000000000fc .L0 
C:\Users\stapi\AppData\Local\Temp\ccvK0uVp.s:450    .text.iperf3_main:0000000000000126 .L0 
C:\Users\stapi\AppData\Local\Temp\ccvK0uVp.s:451    .text.iperf3_main:0000000000000126 .L0 
C:\Users\stapi\AppData\Local\Temp\ccvK0uVp.s:453    .text.iperf3_main:0000000000000128 .L0 
C:\Users\stapi\AppData\Local\Temp\ccvK0uVp.s:460    .text.iperf3_main:0000000000000132 .L0 
C:\Users\stapi\AppData\Local\Temp\ccvK0uVp.s:461    .text.iperf3_main:0000000000000132 .L0 
C:\Users\stapi\AppData\Local\Temp\ccvK0uVp.s:463    .text.iperf3_main:0000000000000136 .L0 
C:\Users\stapi\AppData\Local\Temp\ccvK0uVp.s:464    .text.iperf3_main:0000000000000136 .L0 
C:\Users\stapi\AppData\Local\Temp\ccvK0uVp.s:465    .text.iperf3_main:0000000000000136 .L0 
C:\Users\stapi\AppData\Local\Temp\ccvK0uVp.s:470    .text.iperf3_main:000000000000013a .L0 
C:\Users\stapi\AppData\Local\Temp\ccvK0uVp.s:473    .text.iperf3_main:0000000000000142 .L0 
C:\Users\stapi\AppData\Local\Temp\ccvK0uVp.s:474    .text.iperf3_main:0000000000000142 .L0 
C:\Users\stapi\AppData\Local\Temp\ccvK0uVp.s:476    .text.iperf3_main:0000000000000146 .L0 
C:\Users\stapi\AppData\Local\Temp\ccvK0uVp.s:479    .text.iperf3_main:000000000000014e .L0 
C:\Users\stapi\AppData\Local\Temp\ccvK0uVp.s:480    .text.iperf3_main:000000000000014e .L0 
C:\Users\stapi\AppData\Local\Temp\ccvK0uVp.s:483    .text.iperf3_main:0000000000000154 .L0 
C:\Users\stapi\AppData\Local\Temp\ccvK0uVp.s:487    .text.iperf3_main:000000000000015c .L0 
C:\Users\stapi\AppData\Local\Temp\ccvK0uVp.s:488    .text.iperf3_main:000000000000015c .L0 
C:\Users\stapi\AppData\Local\Temp\ccvK0uVp.s:489    .text.iperf3_main:000000000000015c .L0 
C:\Users\stapi\AppData\Local\Temp\ccvK0uVp.s:494    .text.iperf3_main:0000000000000160 .L0 
C:\Users\stapi\AppData\Local\Temp\ccvK0uVp.s:498    .text.iperf3_main:000000000000016c .L0 
C:\Users\stapi\AppData\Local\Temp\ccvK0uVp.s:575    .text.cmd_iperf3:0000000000000000 cmd_iperf3
C:\Users\stapi\AppData\Local\Temp\ccvK0uVp.s:578    .text.cmd_iperf3:0000000000000000 .L0 
C:\Users\stapi\AppData\Local\Temp\ccvK0uVp.s:580    .text.cmd_iperf3:0000000000000000 .L0 
C:\Users\stapi\AppData\Local\Temp\ccvK0uVp.s:581    .text.cmd_iperf3:0000000000000008 .L0 
C:\Users\stapi\AppData\Local\Temp\ccvK0uVp.s:582    .text.cmd_iperf3:0000000000000008 .L0 
C:\Users\stapi\AppData\Local\Temp\ccvK0uVp.s:583    .text.cmd_iperf3:0000000000000008 .L0 
C:\Users\stapi\AppData\Local\Temp\ccvK0uVp.s:584    .text.cmd_iperf3:0000000000000008 .L0 
C:\Users\stapi\AppData\Local\Temp\ccvK0uVp.s:585    .text.cmd_iperf3:0000000000000008 .L0 
C:\Users\stapi\AppData\Local\Temp\ccvK0uVp.s:586    .text.cmd_iperf3:0000000000000008 .L0 
C:\Users\stapi\AppData\Local\Temp\ccvK0uVp.s:588    .text.cmd_iperf3:0000000000000008 .L0 
C:\Users\stapi\AppData\Local\Temp\ccvK0uVp.s:589    .text.cmd_iperf3:0000000000000008 .L0 
C:\Users\stapi\AppData\Local\Temp\ccvK0uVp.s:592    .text.cmd_iperf3:000000000000000e .L0 
C:\Users\stapi\AppData\Local\Temp\ccvK0uVp.s:595    .text.cmd_iperf3:0000000000000014 .L0 
C:\Users\stapi\AppData\Local\Temp\ccvK0uVp.s:596    .text.cmd_iperf3:0000000000000014 .L0 
C:\Users\stapi\AppData\Local\Temp\ccvK0uVp.s:605    .text.cmd_iperf3:0000000000000028 .L0 
C:\Users\stapi\AppData\Local\Temp\ccvK0uVp.s:607    .text.cmd_iperf3:000000000000002a .L0 
C:\Users\stapi\AppData\Local\Temp\ccvK0uVp.s:611    .text.cmd_iperf3:0000000000000032 .L0 
C:\Users\stapi\AppData\Local\Temp\ccvK0uVp.s:614    .text.cmd_iperf3:000000000000003a .L0 
C:\Users\stapi\AppData\Local\Temp\ccvK0uVp.s:620    .text.cmd_iperf3:0000000000000046 .L0 
C:\Users\stapi\AppData\Local\Temp\ccvK0uVp.s:621    .text.cmd_iperf3:0000000000000046 .L0 
C:\Users\stapi\AppData\Local\Temp\ccvK0uVp.s:622    .text.cmd_iperf3:000000000000004e .L0 
C:\Users\stapi\AppData\Local\Temp\ccvK0uVp.s:623    .text.cmd_iperf3:000000000000004e .L0 
C:\Users\stapi\AppData\Local\Temp\ccvK0uVp.s:624    .text.cmd_iperf3:000000000000004e .L0 
C:\Users\stapi\AppData\Local\Temp\ccvK0uVp.s:625    .text.cmd_iperf3:000000000000004e .L0 
C:\Users\stapi\AppData\Local\Temp\ccvK0uVp.s:626    .text.cmd_iperf3:000000000000004e .L0 
C:\Users\stapi\AppData\Local\Temp\ccvK0uVp.s:627    .text.cmd_iperf3:000000000000004e .L0 
C:\Users\stapi\AppData\Local\Temp\ccvK0uVp.s:628    .text.cmd_iperf3:000000000000004e .L0 
C:\Users\stapi\AppData\Local\Temp\ccvK0uVp.s:631    .text.cmd_iperf3:000000000000004e .L0 
C:\Users\stapi\AppData\Local\Temp\ccvK0uVp.s:633    .text.cmd_iperf3:000000000000004e .L0 
C:\Users\stapi\AppData\Local\Temp\ccvK0uVp.s:634    .text.cmd_iperf3:000000000000004e .L0 
C:\Users\stapi\AppData\Local\Temp\ccvK0uVp.s:640    .text.cmd_iperf3:0000000000000060 .L0 
C:\Users\stapi\AppData\Local\Temp\ccvK0uVp.s:642    .text.cmd_iperf3:0000000000000062 .L0 
C:\Users\stapi\AppData\Local\Temp\ccvK0uVp.s:647    .text.cmd_iperf3:000000000000006c .L0 
C:\Users\stapi\AppData\Local\Temp\ccvK0uVp.s:648    .text.cmd_iperf3:000000000000006c .L0 
C:\Users\stapi\AppData\Local\Temp\ccvK0uVp.s:654    .text.cmd_iperf3:000000000000007e .L0 
C:\Users\stapi\AppData\Local\Temp\ccvK0uVp.s:656    .text.cmd_iperf3:0000000000000080 .L0 
C:\Users\stapi\AppData\Local\Temp\ccvK0uVp.s:657    .text.cmd_iperf3:0000000000000080 .L0 
C:\Users\stapi\AppData\Local\Temp\ccvK0uVp.s:663    .text.cmd_iperf3:0000000000000092 .L0 
C:\Users\stapi\AppData\Local\Temp\ccvK0uVp.s:665    .text.cmd_iperf3:0000000000000094 .L0 
C:\Users\stapi\AppData\Local\Temp\ccvK0uVp.s:666    .text.cmd_iperf3:0000000000000094 .L0 
C:\Users\stapi\AppData\Local\Temp\ccvK0uVp.s:669    .text.cmd_iperf3:000000000000009c .L0 
C:\Users\stapi\AppData\Local\Temp\ccvK0uVp.s:673    .text.cmd_iperf3:000000000000009e .L0 
C:\Users\stapi\AppData\Local\Temp\ccvK0uVp.s:679    .text.cmd_iperf3:00000000000000ae .L0 
C:\Users\stapi\AppData\Local\Temp\ccvK0uVp.s:684    .text.cmd_iperf3:00000000000000be .L0 
C:\Users\stapi\AppData\Local\Temp\ccvK0uVp.s:689    .text.cmd_iperf3:00000000000000ce .L0 
C:\Users\stapi\AppData\Local\Temp\ccvK0uVp.s:694    .text.cmd_iperf3:00000000000000de .L0 
C:\Users\stapi\AppData\Local\Temp\ccvK0uVp.s:699    .text.cmd_iperf3:00000000000000ee .L0 
C:\Users\stapi\AppData\Local\Temp\ccvK0uVp.s:704    .text.cmd_iperf3:00000000000000fe .L0 
C:\Users\stapi\AppData\Local\Temp\ccvK0uVp.s:709    .text.cmd_iperf3:000000000000010e .L0 
C:\Users\stapi\AppData\Local\Temp\ccvK0uVp.s:714    .text.cmd_iperf3:000000000000011e .L0 
C:\Users\stapi\AppData\Local\Temp\ccvK0uVp.s:719    .text.cmd_iperf3:000000000000012e .L0 
C:\Users\stapi\AppData\Local\Temp\ccvK0uVp.s:724    .text.cmd_iperf3:000000000000013e .L0 
C:\Users\stapi\AppData\Local\Temp\ccvK0uVp.s:729    .text.cmd_iperf3:000000000000014e .L0 
C:\Users\stapi\AppData\Local\Temp\ccvK0uVp.s:734    .text.cmd_iperf3:000000000000015e .L0 
C:\Users\stapi\AppData\Local\Temp\ccvK0uVp.s:739    .text.cmd_iperf3:000000000000016e .L0 
C:\Users\stapi\AppData\Local\Temp\ccvK0uVp.s:744    .text.cmd_iperf3:000000000000017e .L0 
C:\Users\stapi\AppData\Local\Temp\ccvK0uVp.s:749    .text.cmd_iperf3:000000000000018e .L0 
C:\Users\stapi\AppData\Local\Temp\ccvK0uVp.s:754    .text.cmd_iperf3:000000000000019e .L0 
C:\Users\stapi\AppData\Local\Temp\ccvK0uVp.s:759    .text.cmd_iperf3:00000000000001b0 .L0 
C:\Users\stapi\AppData\Local\Temp\ccvK0uVp.s:776    .sbss.iperf_task_tcb_ptr:0000000000000000 iperf_task_tcb_ptr
C:\Users\stapi\AppData\Local\Temp\ccvK0uVp.s:769    .sbss.iperf_task_num:0000000000000000 iperf_task_num
C:\Users\stapi\AppData\Local\Temp\ccvK0uVp.s:782    .sbss.iperf_terminate:0000000000000000 iperf_terminate
C:\Users\stapi\AppData\Local\Temp\ccvK0uVp.s:766    .sbss.iperf_task_num:0000000000000000 .LANCHOR2
C:\Users\stapi\AppData\Local\Temp\ccvK0uVp.s:773    .sbss.iperf_task_tcb_ptr:0000000000000000 .LANCHOR1
C:\Users\stapi\AppData\Local\Temp\ccvK0uVp.s:779    .sbss.iperf_terminate:0000000000000000 .LANCHOR0
C:\Users\stapi\AppData\Local\Temp\ccvK0uVp.s:240    .text.iperf_test_task:000000000000014a .L0 
C:\Users\stapi\AppData\Local\Temp\ccvK0uVp.s:501    .text.iperf3_main:000000000000016c .L0 
C:\Users\stapi\AppData\Local\Temp\ccvK0uVp.s:765    .text.cmd_iperf3:00000000000001b0 .L0 
                     .debug_frame:0000000000000000 .L0 
C:\Users\stapi\AppData\Local\Temp\ccvK0uVp.s:11     .rodata.iperf_test_task.str1.4:0000000000000000 .LC0
C:\Users\stapi\AppData\Local\Temp\ccvK0uVp.s:14     .rodata.iperf_test_task.str1.4:0000000000000010 .LC1
C:\Users\stapi\AppData\Local\Temp\ccvK0uVp.s:17     .rodata.iperf_test_task.str1.4:000000000000002c .LC2
C:\Users\stapi\AppData\Local\Temp\ccvK0uVp.s:203    .text.iperf_test_task:0000000000000110 .L2
C:\Users\stapi\AppData\Local\Temp\ccvK0uVp.s:229    .text.iperf_test_task:0000000000000140 .L3
C:\Users\stapi\AppData\Local\Temp\ccvK0uVp.s:150    .text.iperf_test_task:00000000000000b2 .L5
C:\Users\stapi\AppData\Local\Temp\ccvK0uVp.s:131    .text.iperf_test_task:000000000000009a .L10
C:\Users\stapi\AppData\Local\Temp\ccvK0uVp.s:137    .text.iperf_test_task:000000000000009c .L6
C:\Users\stapi\AppData\Local\Temp\ccvK0uVp.s:74     .text.iperf_test_task:0000000000000032 .L9
C:\Users\stapi\AppData\Local\Temp\ccvK0uVp.s:115    .text.iperf_test_task:0000000000000076 .L7
C:\Users\stapi\AppData\Local\Temp\ccvK0uVp.s:242    .rodata.iperf3_main.str1.4:0000000000000000 .LC3
C:\Users\stapi\AppData\Local\Temp\ccvK0uVp.s:245    .rodata.iperf3_main.str1.4:0000000000000020 .LC4
C:\Users\stapi\AppData\Local\Temp\ccvK0uVp.s:248    .rodata.iperf3_main.str1.4:0000000000000038 .LC5
C:\Users\stapi\AppData\Local\Temp\ccvK0uVp.s:251    .rodata.iperf3_main.str1.4:000000000000006c .LC6
C:\Users\stapi\AppData\Local\Temp\ccvK0uVp.s:254    .rodata.iperf3_main.str1.4:0000000000000074 .LC7
C:\Users\stapi\AppData\Local\Temp\ccvK0uVp.s:329    .text.iperf3_main:000000000000004e .L13
C:\Users\stapi\AppData\Local\Temp\ccvK0uVp.s:371    .text.iperf3_main:00000000000000a8 .L15
C:\Users\stapi\AppData\Local\Temp\ccvK0uVp.s:311    .text.iperf3_main:0000000000000042 .L22
C:\Users\stapi\AppData\Local\Temp\ccvK0uVp.s:492    .text.iperf3_main:0000000000000160 .L16
C:\Users\stapi\AppData\Local\Temp\ccvK0uVp.s:458    .text.iperf3_main:0000000000000132 .L17
C:\Users\stapi\AppData\Local\Temp\ccvK0uVp.s:421    .text.iperf3_main:00000000000000f6 .L18
C:\Users\stapi\AppData\Local\Temp\ccvK0uVp.s:364    .text.iperf3_main:000000000000009c .L25
C:\Users\stapi\AppData\Local\Temp\ccvK0uVp.s:468    .text.iperf3_main:000000000000013a .L20
C:\Users\stapi\AppData\Local\Temp\ccvK0uVp.s:415    .text.iperf3_main:00000000000000ec .L24
C:\Users\stapi\AppData\Local\Temp\ccvK0uVp.s:430    .text.iperf3_main:00000000000000fc .L19
C:\Users\stapi\AppData\Local\Temp\ccvK0uVp.s:315    .text.iperf3_main:0000000000000044 .L12
C:\Users\stapi\AppData\Local\Temp\ccvK0uVp.s:486    .text.iperf3_main:000000000000015c .L23
C:\Users\stapi\AppData\Local\Temp\ccvK0uVp.s:503    .rodata.cmd_iperf3.str1.4:0000000000000000 .LC8
C:\Users\stapi\AppData\Local\Temp\ccvK0uVp.s:506    .rodata.cmd_iperf3.str1.4:0000000000000004 .LC9
C:\Users\stapi\AppData\Local\Temp\ccvK0uVp.s:509    .rodata.cmd_iperf3.str1.4:0000000000000028 .LC10
C:\Users\stapi\AppData\Local\Temp\ccvK0uVp.s:512    .rodata.cmd_iperf3.str1.4:000000000000002c .LC11
C:\Users\stapi\AppData\Local\Temp\ccvK0uVp.s:515    .rodata.cmd_iperf3.str1.4:0000000000000050 .LC12
C:\Users\stapi\AppData\Local\Temp\ccvK0uVp.s:518    .rodata.cmd_iperf3.str1.4:0000000000000054 .LC13
C:\Users\stapi\AppData\Local\Temp\ccvK0uVp.s:521    .rodata.cmd_iperf3.str1.4:000000000000005c .LC14
C:\Users\stapi\AppData\Local\Temp\ccvK0uVp.s:524    .rodata.cmd_iperf3.str1.4:0000000000000080 .LC15
C:\Users\stapi\AppData\Local\Temp\ccvK0uVp.s:527    .rodata.cmd_iperf3.str1.4:000000000000008c .LC16
C:\Users\stapi\AppData\Local\Temp\ccvK0uVp.s:530    .rodata.cmd_iperf3.str1.4:00000000000000bc .LC17
C:\Users\stapi\AppData\Local\Temp\ccvK0uVp.s:533    .rodata.cmd_iperf3.str1.4:00000000000000d4 .LC18
C:\Users\stapi\AppData\Local\Temp\ccvK0uVp.s:536    .rodata.cmd_iperf3.str1.4:0000000000000114 .LC19
C:\Users\stapi\AppData\Local\Temp\ccvK0uVp.s:539    .rodata.cmd_iperf3.str1.4:000000000000014c .LC20
C:\Users\stapi\AppData\Local\Temp\ccvK0uVp.s:542    .rodata.cmd_iperf3.str1.4:0000000000000160 .LC21
C:\Users\stapi\AppData\Local\Temp\ccvK0uVp.s:545    .rodata.cmd_iperf3.str1.4:0000000000000188 .LC22
C:\Users\stapi\AppData\Local\Temp\ccvK0uVp.s:548    .rodata.cmd_iperf3.str1.4:000000000000019c .LC23
C:\Users\stapi\AppData\Local\Temp\ccvK0uVp.s:551    .rodata.cmd_iperf3.str1.4:00000000000001d8 .LC24
C:\Users\stapi\AppData\Local\Temp\ccvK0uVp.s:554    .rodata.cmd_iperf3.str1.4:0000000000000204 .LC25
C:\Users\stapi\AppData\Local\Temp\ccvK0uVp.s:557    .rodata.cmd_iperf3.str1.4:0000000000000248 .LC26
C:\Users\stapi\AppData\Local\Temp\ccvK0uVp.s:560    .rodata.cmd_iperf3.str1.4:000000000000028c .LC27
C:\Users\stapi\AppData\Local\Temp\ccvK0uVp.s:563    .rodata.cmd_iperf3.str1.4:00000000000002d0 .LC28
C:\Users\stapi\AppData\Local\Temp\ccvK0uVp.s:566    .rodata.cmd_iperf3.str1.4:0000000000000318 .LC29
C:\Users\stapi\AppData\Local\Temp\ccvK0uVp.s:569    .rodata.cmd_iperf3.str1.4:0000000000000350 .LC30
C:\Users\stapi\AppData\Local\Temp\ccvK0uVp.s:671    .text.cmd_iperf3:000000000000009e .L27
C:\Users\stapi\AppData\Local\Temp\ccvK0uVp.s:630    .text.cmd_iperf3:000000000000004e .L28
C:\Users\stapi\AppData\Local\Temp\ccvK0uVp.s:645    .text.cmd_iperf3:000000000000006c .L30
C:\Users\stapi\AppData\Local\Temp\ccvK0uVp.s:609    .text.cmd_iperf3:0000000000000032 .L37
C:\Users\stapi\AppData\Local\Temp\ccvK0uVp.s:677    .text.cmd_iperf3:00000000000000ae .L31
C:\Users\stapi\AppData\Local\Temp\ccvK0uVp.s:619    .text.cmd_iperf3:0000000000000046 .L26
C:\Users\stapi\AppData\Local\Temp\ccvK0uVp.s:3373   .debug_abbrev:0000000000000000 .Ldebug_abbrev0
C:\Users\stapi\AppData\Local\Temp\ccvK0uVp.s:4629   .debug_str:00000000000005d8 .LASF244
C:\Users\stapi\AppData\Local\Temp\ccvK0uVp.s:4451   .debug_str:0000000000000107 .LASF245
C:\Users\stapi\AppData\Local\Temp\ccvK0uVp.s:4705   .debug_str:000000000000088b .LASF246
C:\Users\stapi\AppData\Local\Temp\ccvK0uVp.s:4393   .debug_ranges:0000000000000000 .Ldebug_ranges0
C:\Users\stapi\AppData\Local\Temp\ccvK0uVp.s:4413   .debug_line:0000000000000000 .Ldebug_line0
C:\Users\stapi\AppData\Local\Temp\ccvK0uVp.s:4697   .debug_str:0000000000000858 .LASF0
C:\Users\stapi\AppData\Local\Temp\ccvK0uVp.s:4515   .debug_str:0000000000000318 .LASF1
C:\Users\stapi\AppData\Local\Temp\ccvK0uVp.s:4461   .debug_str:00000000000001b0 .LASF6
C:\Users\stapi\AppData\Local\Temp\ccvK0uVp.s:4523   .debug_str:0000000000000344 .LASF2
C:\Users\stapi\AppData\Local\Temp\ccvK0uVp.s:4819   .debug_str:0000000000000bb7 .LASF3
C:\Users\stapi\AppData\Local\Temp\ccvK0uVp.s:4875   .debug_str:0000000000000cf4 .LASF4
C:\Users\stapi\AppData\Local\Temp\ccvK0uVp.s:4479   .debug_str:0000000000000229 .LASF5
C:\Users\stapi\AppData\Local\Temp\ccvK0uVp.s:4663   .debug_str:000000000000078d .LASF7
C:\Users\stapi\AppData\Local\Temp\ccvK0uVp.s:4615   .debug_str:0000000000000581 .LASF8
C:\Users\stapi\AppData\Local\Temp\ccvK0uVp.s:4849   .debug_str:0000000000000c6c .LASF9
C:\Users\stapi\AppData\Local\Temp\ccvK0uVp.s:4669   .debug_str:00000000000007a9 .LASF10
C:\Users\stapi\AppData\Local\Temp\ccvK0uVp.s:4611   .debug_str:000000000000056c .LASF11
C:\Users\stapi\AppData\Local\Temp\ccvK0uVp.s:4741   .debug_str:00000000000009d2 .LASF12
C:\Users\stapi\AppData\Local\Temp\ccvK0uVp.s:4543   .debug_str:00000000000003cf .LASF13
C:\Users\stapi\AppData\Local\Temp\ccvK0uVp.s:4517   .debug_str:0000000000000324 .LASF14
C:\Users\stapi\AppData\Local\Temp\ccvK0uVp.s:4859   .debug_str:0000000000000ca5 .LASF15
C:\Users\stapi\AppData\Local\Temp\ccvK0uVp.s:4891   .debug_str:0000000000000d69 .LASF16
C:\Users\stapi\AppData\Local\Temp\ccvK0uVp.s:4821   .debug_str:0000000000000bc1 .LASF17
C:\Users\stapi\AppData\Local\Temp\ccvK0uVp.s:4649   .debug_str:0000000000000742 .LASF18
C:\Users\stapi\AppData\Local\Temp\ccvK0uVp.s:4541   .debug_str:00000000000003c3 .LASF19
C:\Users\stapi\AppData\Local\Temp\ccvK0uVp.s:4747   .debug_str:0000000000000a02 .LASF20
C:\Users\stapi\AppData\Local\Temp\ccvK0uVp.s:4721   .debug_str:0000000000000942 .LASF21
C:\Users\stapi\AppData\Local\Temp\ccvK0uVp.s:4653   .debug_str:0000000000000751 .LASF22
C:\Users\stapi\AppData\Local\Temp\ccvK0uVp.s:4507   .debug_str:00000000000002d9 .LASF23
C:\Users\stapi\AppData\Local\Temp\ccvK0uVp.s:4617   .debug_str:0000000000000593 .LASF24
C:\Users\stapi\AppData\Local\Temp\ccvK0uVp.s:4505   .debug_str:00000000000002ca .LASF25
C:\Users\stapi\AppData\Local\Temp\ccvK0uVp.s:4773   .debug_str:0000000000000aca .LASF26
C:\Users\stapi\AppData\Local\Temp\ccvK0uVp.s:4643   .debug_str:0000000000000726 .LASF27
C:\Users\stapi\AppData\Local\Temp\ccvK0uVp.s:4575   .debug_str:000000000000048b .LASF28
C:\Users\stapi\AppData\Local\Temp\ccvK0uVp.s:4637   .debug_str:00000000000006f6 .LASF29
C:\Users\stapi\AppData\Local\Temp\ccvK0uVp.s:4885   .debug_str:0000000000000d53 .LASF30
C:\Users\stapi\AppData\Local\Temp\ccvK0uVp.s:4789   .debug_str:0000000000000b12 .LASF31
C:\Users\stapi\AppData\Local\Temp\ccvK0uVp.s:4547   .debug_str:00000000000003e5 .LASF32
C:\Users\stapi\AppData\Local\Temp\ccvK0uVp.s:4743   .debug_str:00000000000009e9 .LASF33
C:\Users\stapi\AppData\Local\Temp\ccvK0uVp.s:4423   .debug_str:0000000000000036 .LASF34
C:\Users\stapi\AppData\Local\Temp\ccvK0uVp.s:4905   .debug_str:0000000000000dab .LASF35
C:\Users\stapi\AppData\Local\Temp\ccvK0uVp.s:4749   .debug_str:0000000000000a0f .LASF36
C:\Users\stapi\AppData\Local\Temp\ccvK0uVp.s:4433   .debug_str:0000000000000089 .LASF37
C:\Users\stapi\AppData\Local\Temp\ccvK0uVp.s:4735   .debug_str:000000000000099f .LASF38
C:\Users\stapi\AppData\Local\Temp\ccvK0uVp.s:4739   .debug_str:00000000000009c3 .LASF39
C:\Users\stapi\AppData\Local\Temp\ccvK0uVp.s:4535   .debug_str:000000000000039b .LASF40
C:\Users\stapi\AppData\Local\Temp\ccvK0uVp.s:4587   .debug_str:00000000000004e3 .LASF41
C:\Users\stapi\AppData\Local\Temp\ccvK0uVp.s:4583   .debug_str:00000000000004c9 .LASF42
C:\Users\stapi\AppData\Local\Temp\ccvK0uVp.s:4755   .debug_str:0000000000000a37 .LASF43
C:\Users\stapi\AppData\Local\Temp\ccvK0uVp.s:4853   .debug_str:0000000000000c86 .LASF44
C:\Users\stapi\AppData\Local\Temp\ccvK0uVp.s:4431   .debug_str:0000000000000078 .LASF45
C:\Users\stapi\AppData\Local\Temp\ccvK0uVp.s:4771   .debug_str:0000000000000abf .LASF46
C:\Users\stapi\AppData\Local\Temp\ccvK0uVp.s:4807   .debug_str:0000000000000b60 .LASF47
C:\Users\stapi\AppData\Local\Temp\ccvK0uVp.s:4513   .debug_str:0000000000000309 .LASF48
C:\Users\stapi\AppData\Local\Temp\ccvK0uVp.s:4779   .debug_str:0000000000000aee .LASF49
C:\Users\stapi\AppData\Local\Temp\ccvK0uVp.s:4445   .debug_str:00000000000000cd .LASF247
C:\Users\stapi\AppData\Local\Temp\ccvK0uVp.s:4839   .debug_str:0000000000000c26 .LASF50
C:\Users\stapi\AppData\Local\Temp\ccvK0uVp.s:4679   .debug_str:00000000000007e6 .LASF51
C:\Users\stapi\AppData\Local\Temp\ccvK0uVp.s:4765   .debug_str:0000000000000a91 .LASF52
C:\Users\stapi\AppData\Local\Temp\ccvK0uVp.s:4745   .debug_str:00000000000009f6 .LASF53
C:\Users\stapi\AppData\Local\Temp\ccvK0uVp.s:4817   .debug_str:0000000000000ba6 .LASF58
C:\Users\stapi\AppData\Local\Temp\ccvK0uVp.s:4675   .debug_str:00000000000007cb .LASF54
C:\Users\stapi\AppData\Local\Temp\ccvK0uVp.s:4457   .debug_str:0000000000000197 .LASF55
C:\Users\stapi\AppData\Local\Temp\ccvK0uVp.s:4795   .debug_str:0000000000000b2c .LASF56
C:\Users\stapi\AppData\Local\Temp\ccvK0uVp.s:4797   .debug_str:0000000000000b35 .LASF57
C:\Users\stapi\AppData\Local\Temp\ccvK0uVp.s:4845   .debug_str:0000000000000c5e .LASF59
C:\Users\stapi\AppData\Local\Temp\ccvK0uVp.s:4691   .debug_str:0000000000000841 .LASF60
C:\Users\stapi\AppData\Local\Temp\ccvK0uVp.s:4553   .debug_str:000000000000041b .LASF61
C:\Users\stapi\AppData\Local\Temp\ccvK0uVp.s:4909   .debug_str:0000000000000dc4 .LASF62
C:\Users\stapi\AppData\Local\Temp\ccvK0uVp.s:4591   .debug_str:00000000000004ff .LASF63
C:\Users\stapi\AppData\Local\Temp\ccvK0uVp.s:4499   .debug_str:00000000000002a0 .LASF64
C:\Users\stapi\AppData\Local\Temp\ccvK0uVp.s:4713   .debug_str:0000000000000929 .LASF65
C:\Users\stapi\AppData\Local\Temp\ccvK0uVp.s:4419   .debug_str:000000000000001c .LASF66
C:\Users\stapi\AppData\Local\Temp\ccvK0uVp.s:4873   .debug_str:0000000000000ce9 .LASF67
C:\Users\stapi\AppData\Local\Temp\ccvK0uVp.s:4889   .debug_str:0000000000000d5d .LASF68
C:\Users\stapi\AppData\Local\Temp\ccvK0uVp.s:4687   .debug_str:000000000000082c .LASF69
C:\Users\stapi\AppData\Local\Temp\ccvK0uVp.s:4603   .debug_str:000000000000053d .LASF70
C:\Users\stapi\AppData\Local\Temp\ccvK0uVp.s:4783   .debug_str:0000000000000b01 .LASF71
C:\Users\stapi\AppData\Local\Temp\ccvK0uVp.s:4907   .debug_str:0000000000000dbf .LASF72
C:\Users\stapi\AppData\Local\Temp\ccvK0uVp.s:4901   .debug_str:0000000000000da1 .LASF73
C:\Users\stapi\AppData\Local\Temp\ccvK0uVp.s:4899   .debug_str:0000000000000d9c .LASF74
C:\Users\stapi\AppData\Local\Temp\ccvK0uVp.s:4879   .debug_str:0000000000000d24 .LASF75
C:\Users\stapi\AppData\Local\Temp\ccvK0uVp.s:4435   .debug_str:0000000000000098 .LASF76
C:\Users\stapi\AppData\Local\Temp\ccvK0uVp.s:4565   .debug_str:000000000000045a .LASF77
C:\Users\stapi\AppData\Local\Temp\ccvK0uVp.s:4571   .debug_str:0000000000000479 .LASF78
C:\Users\stapi\AppData\Local\Temp\ccvK0uVp.s:4763   .debug_str:0000000000000a7a .LASF79
C:\Users\stapi\AppData\Local\Temp\ccvK0uVp.s:4815   .debug_str:0000000000000b94 .LASF80
C:\Users\stapi\AppData\Local\Temp\ccvK0uVp.s:4911   .debug_str:0000000000000dcb .LASF81
C:\Users\stapi\AppData\Local\Temp\ccvK0uVp.s:4619   .debug_str:00000000000005a2 .LASF82
C:\Users\stapi\AppData\Local\Temp\ccvK0uVp.s:4463   .debug_str:00000000000001ba .LASF83
C:\Users\stapi\AppData\Local\Temp\ccvK0uVp.s:4537   .debug_str:00000000000003a7 .LASF84
C:\Users\stapi\AppData\Local\Temp\ccvK0uVp.s:4757   .debug_str:0000000000000a4c .LASF85
C:\Users\stapi\AppData\Local\Temp\ccvK0uVp.s:4699   .debug_str:0000000000000865 .LASF86
C:\Users\stapi\AppData\Local\Temp\ccvK0uVp.s:4829   .debug_str:0000000000000be8 .LASF87
C:\Users\stapi\AppData\Local\Temp\ccvK0uVp.s:4785   .debug_str:0000000000000b06 .LASF88
C:\Users\stapi\AppData\Local\Temp\ccvK0uVp.s:4477   .debug_str:0000000000000216 .LASF89
C:\Users\stapi\AppData\Local\Temp\ccvK0uVp.s:4723   .debug_str:0000000000000957 .LASF90
C:\Users\stapi\AppData\Local\Temp\ccvK0uVp.s:4777   .debug_str:0000000000000ae6 .LASF91
C:\Users\stapi\AppData\Local\Temp\ccvK0uVp.s:4857   .debug_str:0000000000000c9d .LASF92
C:\Users\stapi\AppData\Local\Temp\ccvK0uVp.s:4497   .debug_str:000000000000028f .LASF93
C:\Users\stapi\AppData\Local\Temp\ccvK0uVp.s:4529   .debug_str:0000000000000372 .LASF94
C:\Users\stapi\AppData\Local\Temp\ccvK0uVp.s:4573   .debug_str:0000000000000482 .LASF95
C:\Users\stapi\AppData\Local\Temp\ccvK0uVp.s:4729   .debug_str:0000000000000971 .LASF96
C:\Users\stapi\AppData\Local\Temp\ccvK0uVp.s:4673   .debug_str:00000000000007bf .LASF97
C:\Users\stapi\AppData\Local\Temp\ccvK0uVp.s:4693   .debug_str:0000000000000849 .LASF98
C:\Users\stapi\AppData\Local\Temp\ccvK0uVp.s:4581   .debug_str:00000000000004be .LASF99
C:\Users\stapi\AppData\Local\Temp\ccvK0uVp.s:4801   .debug_str:0000000000000b48 .LASF100
C:\Users\stapi\AppData\Local\Temp\ccvK0uVp.s:4681   .debug_str:0000000000000808 .LASF101
C:\Users\stapi\AppData\Local\Temp\ccvK0uVp.s:4677   .debug_str:00000000000007d2 .LASF102
C:\Users\stapi\AppData\Local\Temp\ccvK0uVp.s:4689   .debug_str:0000000000000832 .LASF103
C:\Users\stapi\AppData\Local\Temp\ccvK0uVp.s:4725   .debug_str:0000000000000961 .LASF104
C:\Users\stapi\AppData\Local\Temp\ccvK0uVp.s:4877   .debug_str:0000000000000d07 .LASF105
C:\Users\stapi\AppData\Local\Temp\ccvK0uVp.s:4731   .debug_str:000000000000097f .LASF106
C:\Users\stapi\AppData\Local\Temp\ccvK0uVp.s:4883   .debug_str:0000000000000d39 .LASF107
C:\Users\stapi\AppData\Local\Temp\ccvK0uVp.s:4813   .debug_str:0000000000000b85 .LASF108
C:\Users\stapi\AppData\Local\Temp\ccvK0uVp.s:4579   .debug_str:00000000000004a6 .LASF109
C:\Users\stapi\AppData\Local\Temp\ccvK0uVp.s:4683   .debug_str:0000000000000811 .LASF110
C:\Users\stapi\AppData\Local\Temp\ccvK0uVp.s:4843   .debug_str:0000000000000c4f .LASF111
C:\Users\stapi\AppData\Local\Temp\ccvK0uVp.s:4561   .debug_str:000000000000043a .LASF112
C:\Users\stapi\AppData\Local\Temp\ccvK0uVp.s:4639   .debug_str:000000000000070b .LASF113
C:\Users\stapi\AppData\Local\Temp\ccvK0uVp.s:4563   .debug_str:0000000000000449 .LASF114
C:\Users\stapi\AppData\Local\Temp\ccvK0uVp.s:4509   .debug_str:00000000000002ea .LASF115
C:\Users\stapi\AppData\Local\Temp\ccvK0uVp.s:4871   .debug_str:0000000000000cde .LASF116
C:\Users\stapi\AppData\Local\Temp\ccvK0uVp.s:4823   .debug_str:0000000000000bca .LASF117
C:\Users\stapi\AppData\Local\Temp\ccvK0uVp.s:4545   .debug_str:00000000000003d4 .LASF118
C:\Users\stapi\AppData\Local\Temp\ccvK0uVp.s:4903   .debug_str:0000000000000da6 .LASF119
C:\Users\stapi\AppData\Local\Temp\ccvK0uVp.s:4861   .debug_str:0000000000000cae .LASF120
C:\Users\stapi\AppData\Local\Temp\ccvK0uVp.s:4493   .debug_str:0000000000000276 .LASF121
C:\Users\stapi\AppData\Local\Temp\ccvK0uVp.s:4881   .debug_str:0000000000000d2a .LASF122
C:\Users\stapi\AppData\Local\Temp\ccvK0uVp.s:4489   .debug_str:0000000000000265 .LASF123
C:\Users\stapi\AppData\Local\Temp\ccvK0uVp.s:4593   .debug_str:0000000000000507 .LASF124
C:\Users\stapi\AppData\Local\Temp\ccvK0uVp.s:4555   .debug_str:0000000000000423 .LASF125
C:\Users\stapi\AppData\Local\Temp\ccvK0uVp.s:4707   .debug_str:0000000000000909 .LASF126
C:\Users\stapi\AppData\Local\Temp\ccvK0uVp.s:4539   .debug_str:00000000000003bd .LASF127
C:\Users\stapi\AppData\Local\Temp\ccvK0uVp.s:4855   .debug_str:0000000000000c96 .LASF128
C:\Users\stapi\AppData\Local\Temp\ccvK0uVp.s:4641   .debug_str:000000000000071a .LASF129
C:\Users\stapi\AppData\Local\Temp\ccvK0uVp.s:4631   .debug_str:00000000000006d1 .LASF130
C:\Users\stapi\AppData\Local\Temp\ccvK0uVp.s:4627   .debug_str:00000000000005cf .LASF131
C:\Users\stapi\AppData\Local\Temp\ccvK0uVp.s:4597   .debug_str:0000000000000517 .LASF132
C:\Users\stapi\AppData\Local\Temp\ccvK0uVp.s:4487   .debug_str:0000000000000260 .LASF133
C:\Users\stapi\AppData\Local\Temp\ccvK0uVp.s:4559   .debug_str:000000000000042f .LASF134
C:\Users\stapi\AppData\Local\Temp\ccvK0uVp.s:4471   .debug_str:00000000000001ef .LASF135
C:\Users\stapi\AppData\Local\Temp\ccvK0uVp.s:4847   .debug_str:0000000000000c65 .LASF136
C:\Users\stapi\AppData\Local\Temp\ccvK0uVp.s:4447   .debug_str:00000000000000f3 .LASF137
C:\Users\stapi\AppData\Local\Temp\ccvK0uVp.s:4465   .debug_str:00000000000001cc .LASF138
C:\Users\stapi\AppData\Local\Temp\ccvK0uVp.s:4595   .debug_str:000000000000050c .LASF139
C:\Users\stapi\AppData\Local\Temp\ccvK0uVp.s:4703   .debug_str:000000000000087f .LASF140
C:\Users\stapi\AppData\Local\Temp\ccvK0uVp.s:4443   .debug_str:00000000000000c3 .LASF141
C:\Users\stapi\AppData\Local\Temp\ccvK0uVp.s:4585   .debug_str:00000000000004dc .LASF142
C:\Users\stapi\AppData\Local\Temp\ccvK0uVp.s:4737   .debug_str:00000000000009ae .LASF143
C:\Users\stapi\AppData\Local\Temp\ccvK0uVp.s:4865   .debug_str:0000000000000cc4 .LASF144
C:\Users\stapi\AppData\Local\Temp\ccvK0uVp.s:4623   .debug_str:00000000000005ba .LASF145
C:\Users\stapi\AppData\Local\Temp\ccvK0uVp.s:4427   .debug_str:0000000000000056 .LASF146
C:\Users\stapi\AppData\Local\Temp\ccvK0uVp.s:4633   .debug_str:00000000000006de .LASF147
C:\Users\stapi\AppData\Local\Temp\ccvK0uVp.s:4775   .debug_str:0000000000000ae1 .LASF148
C:\Users\stapi\AppData\Local\Temp\ccvK0uVp.s:4887   .debug_str:0000000000000d58 .LASF149
C:\Users\stapi\AppData\Local\Temp\ccvK0uVp.s:4751   .debug_str:0000000000000a1c .LASF150
C:\Users\stapi\AppData\Local\Temp\ccvK0uVp.s:4511   .debug_str:00000000000002fe .LASF151
C:\Users\stapi\AppData\Local\Temp\ccvK0uVp.s:4569   .debug_str:000000000000046a .LASF152
C:\Users\stapi\AppData\Local\Temp\ccvK0uVp.s:4415   .debug_str:0000000000000000 .LASF153
C:\Users\stapi\AppData\Local\Temp\ccvK0uVp.s:4701   .debug_str:0000000000000878 .LASF154
C:\Users\stapi\AppData\Local\Temp\ccvK0uVp.s:4429   .debug_str:0000000000000061 .LASF155
C:\Users\stapi\AppData\Local\Temp\ccvK0uVp.s:4667   .debug_str:00000000000007a0 .LASF156
C:\Users\stapi\AppData\Local\Temp\ccvK0uVp.s:4441   .debug_str:00000000000000bd .LASF157
C:\Users\stapi\AppData\Local\Temp\ccvK0uVp.s:4503   .debug_str:00000000000002ba .LASF158
C:\Users\stapi\AppData\Local\Temp\ccvK0uVp.s:4913   .debug_str:0000000000000ddf .LASF159
C:\Users\stapi\AppData\Local\Temp\ccvK0uVp.s:4613   .debug_str:0000000000000577 .LASF160
C:\Users\stapi\AppData\Local\Temp\ccvK0uVp.s:4791   .debug_str:0000000000000b18 .LASF161
C:\Users\stapi\AppData\Local\Temp\ccvK0uVp.s:4715   .debug_str:0000000000000933 .LASF162
C:\Users\stapi\AppData\Local\Temp\ccvK0uVp.s:4521   .debug_str:000000000000033b .LASF163
C:\Users\stapi\AppData\Local\Temp\ccvK0uVp.s:4869   .debug_str:0000000000000cd8 .LASF164
C:\Users\stapi\AppData\Local\Temp\ccvK0uVp.s:4439   .debug_str:00000000000000ae .LASF165
C:\Users\stapi\AppData\Local\Temp\ccvK0uVp.s:4455   .debug_str:0000000000000188 .LASF166
C:\Users\stapi\AppData\Local\Temp\ccvK0uVp.s:4831   .debug_str:0000000000000bf5 .LASF167
C:\Users\stapi\AppData\Local\Temp\ccvK0uVp.s:4805   .debug_str:0000000000000b57 .LASF168
C:\Users\stapi\AppData\Local\Temp\ccvK0uVp.s:4421   .debug_str:0000000000000028 .LASF169
C:\Users\stapi\AppData\Local\Temp\ccvK0uVp.s:4867   .debug_str:0000000000000cd1 .LASF170
C:\Users\stapi\AppData\Local\Temp\ccvK0uVp.s:4607   .debug_str:0000000000000558 .LASF171
C:\Users\stapi\AppData\Local\Temp\ccvK0uVp.s:4437   .debug_str:00000000000000a5 .LASF172
C:\Users\stapi\AppData\Local\Temp\ccvK0uVp.s:4793   .debug_str:0000000000000b24 .LASF173
C:\Users\stapi\AppData\Local\Temp\ccvK0uVp.s:4665   .debug_str:0000000000000798 .LASF174
C:\Users\stapi\AppData\Local\Temp\ccvK0uVp.s:4695   .debug_str:000000000000084f .LASF175
C:\Users\stapi\AppData\Local\Temp\ccvK0uVp.s:4769   .debug_str:0000000000000ab9 .LASF176
C:\Users\stapi\AppData\Local\Temp\ccvK0uVp.s:4551   .debug_str:0000000000000408 .LASF177
C:\Users\stapi\AppData\Local\Temp\ccvK0uVp.s:4799   .debug_str:0000000000000b3e .LASF178
C:\Users\stapi\AppData\Local\Temp\ccvK0uVp.s:4863   .debug_str:0000000000000cbd .LASF179
C:\Users\stapi\AppData\Local\Temp\ccvK0uVp.s:4491   .debug_str:000000000000026d .LASF180
C:\Users\stapi\AppData\Local\Temp\ccvK0uVp.s:4501   .debug_str:00000000000002b0 .LASF181
C:\Users\stapi\AppData\Local\Temp\ccvK0uVp.s:4897   .debug_str:0000000000000d93 .LASF182
C:\Users\stapi\AppData\Local\Temp\ccvK0uVp.s:4525   .debug_str:0000000000000352 .LASF183
C:\Users\stapi\AppData\Local\Temp\ccvK0uVp.s:4495   .debug_str:000000000000027d .LASF184
C:\Users\stapi\AppData\Local\Temp\ccvK0uVp.s:4519   .debug_str:000000000000032c .LASF185
C:\Users\stapi\AppData\Local\Temp\ccvK0uVp.s:4485   .debug_str:000000000000024e .LASF186
C:\Users\stapi\AppData\Local\Temp\ccvK0uVp.s:4659   .debug_str:000000000000077d .LASF187
C:\Users\stapi\AppData\Local\Temp\ccvK0uVp.s:4557   .debug_str:0000000000000429 .LASF188
C:\Users\stapi\AppData\Local\Temp\ccvK0uVp.s:4719   .debug_str:000000000000093d .LASF189
C:\Users\stapi\AppData\Local\Temp\ccvK0uVp.s:4657   .debug_str:0000000000000771 .LASF190
C:\Users\stapi\AppData\Local\Temp\ccvK0uVp.s:4711   .debug_str:000000000000091a .LASF191
C:\Users\stapi\AppData\Local\Temp\ccvK0uVp.s:4577   .debug_str:000000000000049d .LASF192
C:\Users\stapi\AppData\Local\Temp\ccvK0uVp.s:4469   .debug_str:00000000000001df .LASF193
C:\Users\stapi\AppData\Local\Temp\ccvK0uVp.s:4609   .debug_str:0000000000000560 .LASF194
C:\Users\stapi\AppData\Local\Temp\ccvK0uVp.s:4467   .debug_str:00000000000001d3 .LASF195
C:\Users\stapi\AppData\Local\Temp\ccvK0uVp.s:4709   .debug_str:0000000000000913 .LASF196
C:\Users\stapi\AppData\Local\Temp\ccvK0uVp.s:4833   .debug_str:0000000000000bfe .LASF197
C:\Users\stapi\AppData\Local\Temp\ccvK0uVp.s:4625   .debug_str:00000000000005c1 .LASF198
C:\Users\stapi\AppData\Local\Temp\ccvK0uVp.s:4685   .debug_str:000000000000081e .LASF199
C:\Users\stapi\AppData\Local\Temp\ccvK0uVp.s:4449   .debug_str:00000000000000fc .LASF200
C:\Users\stapi\AppData\Local\Temp\ccvK0uVp.s:4599   .debug_str:0000000000000524 .LASF201
C:\Users\stapi\AppData\Local\Temp\ccvK0uVp.s:4803   .debug_str:0000000000000b52 .LASF202
C:\Users\stapi\AppData\Local\Temp\ccvK0uVp.s:4841   .debug_str:0000000000000c48 .LASF203
C:\Users\stapi\AppData\Local\Temp\ccvK0uVp.s:4767   .debug_str:0000000000000ab2 .LASF204
C:\Users\stapi\AppData\Local\Temp\ccvK0uVp.s:4671   .debug_str:00000000000007b7 .LASF205
C:\Users\stapi\AppData\Local\Temp\ccvK0uVp.s:4661   .debug_str:0000000000000788 .LASF206
C:\Users\stapi\AppData\Local\Temp\ccvK0uVp.s:4727   .debug_str:000000000000096c .LASF207
C:\Users\stapi\AppData\Local\Temp\ccvK0uVp.s:4787   .debug_str:0000000000000b0d .LASF208
C:\Users\stapi\AppData\Local\Temp\ccvK0uVp.s:4809   .debug_str:0000000000000b6a .LASF209
C:\Users\stapi\AppData\Local\Temp\ccvK0uVp.s:4601   .debug_str:0000000000000533 .LASF210
C:\Users\stapi\AppData\Local\Temp\ccvK0uVp.s:4475   .debug_str:000000000000020c .LASF211
C:\Users\stapi\AppData\Local\Temp\ccvK0uVp.s:4759   .debug_str:0000000000000a68 .LASF212
C:\Users\stapi\AppData\Local\Temp\ccvK0uVp.s:4453   .debug_str:0000000000000178 .LASF213
C:\Users\stapi\AppData\Local\Temp\ccvK0uVp.s:4459   .debug_str:00000000000001a1 .LASF214
C:\Users\stapi\AppData\Local\Temp\ccvK0uVp.s:4753   .debug_str:0000000000000a24 .LASF215
C:\Users\stapi\AppData\Local\Temp\ccvK0uVp.s:4483   .debug_str:0000000000000243 .LASF222
C:\Users\stapi\AppData\Local\Temp\ccvK0uVp.s:576    .text.cmd_iperf3:0000000000000000 .LFB16
C:\Users\stapi\AppData\Local\Temp\ccvK0uVp.s:760    .text.cmd_iperf3:00000000000001b0 .LFE16
C:\Users\stapi\AppData\Local\Temp\ccvK0uVp.s:4645   .debug_str:0000000000000737 .LASF216
C:\Users\stapi\AppData\Local\Temp\ccvK0uVp.s:4082   .debug_loc:0000000000000000 .LLST11
C:\Users\stapi\AppData\Local\Temp\ccvK0uVp.s:4651   .debug_str:000000000000074c .LASF217
C:\Users\stapi\AppData\Local\Temp\ccvK0uVp.s:4111   .debug_loc:0000000000000045 .LLST12
C:\Users\stapi\AppData\Local\Temp\ccvK0uVp.s:4647   .debug_str:000000000000073c .LASF218
C:\Users\stapi\AppData\Local\Temp\ccvK0uVp.s:4717   .debug_str:0000000000000938 .LASF219
C:\Users\stapi\AppData\Local\Temp\ccvK0uVp.s:603    .text.cmd_iperf3:0000000000000028 .LVL64
C:\Users\stapi\AppData\Local\Temp\ccvK0uVp.s:612    .text.cmd_iperf3:000000000000003a .LVL65
C:\Users\stapi\AppData\Local\Temp\ccvK0uVp.s:617    .text.cmd_iperf3:0000000000000046 .LVL66
C:\Users\stapi\AppData\Local\Temp\ccvK0uVp.s:638    .text.cmd_iperf3:0000000000000060 .LVL68
C:\Users\stapi\AppData\Local\Temp\ccvK0uVp.s:652    .text.cmd_iperf3:000000000000007e .LVL69
C:\Users\stapi\AppData\Local\Temp\ccvK0uVp.s:661    .text.cmd_iperf3:0000000000000092 .LVL70
C:\Users\stapi\AppData\Local\Temp\ccvK0uVp.s:676    .text.cmd_iperf3:00000000000000ae .LVL72
C:\Users\stapi\AppData\Local\Temp\ccvK0uVp.s:682    .text.cmd_iperf3:00000000000000be .LVL73
C:\Users\stapi\AppData\Local\Temp\ccvK0uVp.s:687    .text.cmd_iperf3:00000000000000ce .LVL74
C:\Users\stapi\AppData\Local\Temp\ccvK0uVp.s:692    .text.cmd_iperf3:00000000000000de .LVL75
C:\Users\stapi\AppData\Local\Temp\ccvK0uVp.s:697    .text.cmd_iperf3:00000000000000ee .LVL76
C:\Users\stapi\AppData\Local\Temp\ccvK0uVp.s:702    .text.cmd_iperf3:00000000000000fe .LVL77
C:\Users\stapi\AppData\Local\Temp\ccvK0uVp.s:707    .text.cmd_iperf3:000000000000010e .LVL78
C:\Users\stapi\AppData\Local\Temp\ccvK0uVp.s:712    .text.cmd_iperf3:000000000000011e .LVL79
C:\Users\stapi\AppData\Local\Temp\ccvK0uVp.s:717    .text.cmd_iperf3:000000000000012e .LVL80
C:\Users\stapi\AppData\Local\Temp\ccvK0uVp.s:722    .text.cmd_iperf3:000000000000013e .LVL81
C:\Users\stapi\AppData\Local\Temp\ccvK0uVp.s:727    .text.cmd_iperf3:000000000000014e .LVL82
C:\Users\stapi\AppData\Local\Temp\ccvK0uVp.s:732    .text.cmd_iperf3:000000000000015e .LVL83
C:\Users\stapi\AppData\Local\Temp\ccvK0uVp.s:737    .text.cmd_iperf3:000000000000016e .LVL84
C:\Users\stapi\AppData\Local\Temp\ccvK0uVp.s:742    .text.cmd_iperf3:000000000000017e .LVL85
C:\Users\stapi\AppData\Local\Temp\ccvK0uVp.s:747    .text.cmd_iperf3:000000000000018e .LVL86
C:\Users\stapi\AppData\Local\Temp\ccvK0uVp.s:752    .text.cmd_iperf3:000000000000019e .LVL87
C:\Users\stapi\AppData\Local\Temp\ccvK0uVp.s:757    .text.cmd_iperf3:00000000000001ae .LVL88
C:\Users\stapi\AppData\Local\Temp\ccvK0uVp.s:4635   .debug_str:00000000000006ea .LASF248
C:\Users\stapi\AppData\Local\Temp\ccvK0uVp.s:261    .text.iperf3_main:0000000000000000 .LFB15
C:\Users\stapi\AppData\Local\Temp\ccvK0uVp.s:499    .text.iperf3_main:000000000000016c .LFE15
C:\Users\stapi\AppData\Local\Temp\ccvK0uVp.s:4140   .debug_loc:000000000000008a .LLST5
C:\Users\stapi\AppData\Local\Temp\ccvK0uVp.s:4180   .debug_loc:00000000000000e8 .LLST6
C:\Users\stapi\AppData\Local\Temp\ccvK0uVp.s:4224   .debug_loc:0000000000000151 .LLST7
C:\Users\stapi\AppData\Local\Temp\ccvK0uVp.s:4239   .debug_loc:000000000000017a .LLST8
C:\Users\stapi\AppData\Local\Temp\ccvK0uVp.s:4835   .debug_str:0000000000000c08 .LASF220
C:\Users\stapi\AppData\Local\Temp\ccvK0uVp.s:4267   .debug_loc:00000000000001be .LLST9
C:\Users\stapi\AppData\Local\Temp\ccvK0uVp.s:4733   .debug_str:0000000000000998 .LASF221
C:\Users\stapi\AppData\Local\Temp\ccvK0uVp.s:4280   .debug_loc:00000000000001de .LLST10
C:\Users\stapi\AppData\Local\Temp\ccvK0uVp.s:292    .text.iperf3_main:000000000000001e .LVL29
C:\Users\stapi\AppData\Local\Temp\ccvK0uVp.s:302    .text.iperf3_main:0000000000000030 .LVL31
C:\Users\stapi\AppData\Local\Temp\ccvK0uVp.s:307    .text.iperf3_main:0000000000000042 .LVL32
C:\Users\stapi\AppData\Local\Temp\ccvK0uVp.s:334    .text.iperf3_main:0000000000000058 .LVL34
C:\Users\stapi\AppData\Local\Temp\ccvK0uVp.s:341    .text.iperf3_main:0000000000000066 .LVL35
C:\Users\stapi\AppData\Local\Temp\ccvK0uVp.s:349    .text.iperf3_main:000000000000007a .LVL36
C:\Users\stapi\AppData\Local\Temp\ccvK0uVp.s:354    .text.iperf3_main:000000000000008c .LVL37
C:\Users\stapi\AppData\Local\Temp\ccvK0uVp.s:359    .text.iperf3_main:0000000000000094 .LVL38
C:\Users\stapi\AppData\Local\Temp\ccvK0uVp.s:362    .text.iperf3_main:000000000000009c .LVL39
C:\Users\stapi\AppData\Local\Temp\ccvK0uVp.s:368    .text.iperf3_main:00000000000000a6 .LVL40
C:\Users\stapi\AppData\Local\Temp\ccvK0uVp.s:374    .text.iperf3_main:00000000000000b0 .LVL42
C:\Users\stapi\AppData\Local\Temp\ccvK0uVp.s:418    .text.iperf3_main:00000000000000f4 .LVL49
C:\Users\stapi\AppData\Local\Temp\ccvK0uVp.s:446    .text.iperf3_main:0000000000000124 .LVL52
C:\Users\stapi\AppData\Local\Temp\ccvK0uVp.s:471    .text.iperf3_main:0000000000000142 .LVL57
C:\Users\stapi\AppData\Local\Temp\ccvK0uVp.s:484    .text.iperf3_main:000000000000015c .LVL58
C:\Users\stapi\AppData\Local\Temp\ccvK0uVp.s:496    .text.iperf3_main:000000000000016a .LVL60
C:\Users\stapi\AppData\Local\Temp\ccvK0uVp.s:4655   .debug_str:0000000000000761 .LASF223
C:\Users\stapi\AppData\Local\Temp\ccvK0uVp.s:24     .text.iperf_test_task:0000000000000000 .LFB14
C:\Users\stapi\AppData\Local\Temp\ccvK0uVp.s:238    .text.iperf_test_task:000000000000014a .LFE14
C:\Users\stapi\AppData\Local\Temp\ccvK0uVp.s:4621   .debug_str:00000000000005b4 .LASF224
C:\Users\stapi\AppData\Local\Temp\ccvK0uVp.s:4299   .debug_loc:0000000000000212 .LLST0
C:\Users\stapi\AppData\Local\Temp\ccvK0uVp.s:4310   .debug_loc:0000000000000230 .LLST1
C:\Users\stapi\AppData\Local\Temp\ccvK0uVp.s:4761   .debug_str:0000000000000a70 .LASF225
C:\Users\stapi\AppData\Local\Temp\ccvK0uVp.s:4321   .debug_loc:000000000000024e .LLST2
C:\Users\stapi\AppData\Local\Temp\ccvK0uVp.s:42     .text.iperf_test_task:0000000000000008 .LBB4
C:\Users\stapi\AppData\Local\Temp\ccvK0uVp.s:4332   .debug_loc:000000000000026c .LLST3
C:\Users\stapi\AppData\Local\Temp\ccvK0uVp.s:4355   .debug_loc:00000000000002ab .LLST4
C:\Users\stapi\AppData\Local\Temp\ccvK0uVp.s:84     .text.iperf_test_task:0000000000000042 .LVL4
C:\Users\stapi\AppData\Local\Temp\ccvK0uVp.s:95     .text.iperf_test_task:0000000000000054 .LVL6
C:\Users\stapi\AppData\Local\Temp\ccvK0uVp.s:99     .text.iperf_test_task:0000000000000062 .LVL7
C:\Users\stapi\AppData\Local\Temp\ccvK0uVp.s:111    .text.iperf_test_task:0000000000000076 .LVL8
C:\Users\stapi\AppData\Local\Temp\ccvK0uVp.s:141    .text.iperf_test_task:00000000000000a6 .LVL13
C:\Users\stapi\AppData\Local\Temp\ccvK0uVp.s:146    .text.iperf_test_task:00000000000000b0 .LVL14
C:\Users\stapi\AppData\Local\Temp\ccvK0uVp.s:210    .text.iperf_test_task:0000000000000118 .LVL23
C:\Users\stapi\AppData\Local\Temp\ccvK0uVp.s:218    .text.iperf_test_task:000000000000012c .LVL24
C:\Users\stapi\AppData\Local\Temp\ccvK0uVp.s:223    .text.iperf_test_task:000000000000013e .LVL25
C:\Users\stapi\AppData\Local\Temp\ccvK0uVp.s:232    .text.iperf_test_task:0000000000000148 .LVL27
C:\Users\stapi\AppData\Local\Temp\ccvK0uVp.s:123    .text.iperf_test_task:0000000000000086 .LVL9
C:\Users\stapi\AppData\Local\Temp\ccvK0uVp.s:128    .text.iperf_test_task:0000000000000098 .LVL10
C:\Users\stapi\AppData\Local\Temp\ccvK0uVp.s:158    .text.iperf_test_task:00000000000000bc .LVL16
C:\Users\stapi\AppData\Local\Temp\ccvK0uVp.s:163    .text.iperf_test_task:00000000000000cc .LVL17
C:\Users\stapi\AppData\Local\Temp\ccvK0uVp.s:166    .text.iperf_test_task:00000000000000d4 .LVL18
C:\Users\stapi\AppData\Local\Temp\ccvK0uVp.s:185    .text.iperf_test_task:00000000000000fe .LVL20
C:\Users\stapi\AppData\Local\Temp\ccvK0uVp.s:189    .text.iperf_test_task:0000000000000108 .LVL21
C:\Users\stapi\AppData\Local\Temp\ccvK0uVp.s:4531   .debug_str:0000000000000381 .LASF249
C:\Users\stapi\AppData\Local\Temp\ccvK0uVp.s:4425   .debug_str:0000000000000043 .LASF226
C:\Users\stapi\AppData\Local\Temp\ccvK0uVp.s:4567   .debug_str:0000000000000463 .LASF227
C:\Users\stapi\AppData\Local\Temp\ccvK0uVp.s:4781   .debug_str:0000000000000af7 .LASF228
C:\Users\stapi\AppData\Local\Temp\ccvK0uVp.s:4893   .debug_str:0000000000000d71 .LASF229
C:\Users\stapi\AppData\Local\Temp\ccvK0uVp.s:4589   .debug_str:00000000000004f0 .LASF230
C:\Users\stapi\AppData\Local\Temp\ccvK0uVp.s:4825   .debug_str:0000000000000bd3 .LASF231
C:\Users\stapi\AppData\Local\Temp\ccvK0uVp.s:4549   .debug_str:00000000000003f2 .LASF232
C:\Users\stapi\AppData\Local\Temp\ccvK0uVp.s:4827   .debug_str:0000000000000be2 .LASF233
C:\Users\stapi\AppData\Local\Temp\ccvK0uVp.s:4481   .debug_str:0000000000000232 .LASF234
C:\Users\stapi\AppData\Local\Temp\ccvK0uVp.s:4533   .debug_str:000000000000038b .LASF235
C:\Users\stapi\AppData\Local\Temp\ccvK0uVp.s:4851   .debug_str:0000000000000c76 .LASF236
C:\Users\stapi\AppData\Local\Temp\ccvK0uVp.s:4895   .debug_str:0000000000000d80 .LASF237
C:\Users\stapi\AppData\Local\Temp\ccvK0uVp.s:4605   .debug_str:0000000000000546 .LASF238
C:\Users\stapi\AppData\Local\Temp\ccvK0uVp.s:4811   .debug_str:0000000000000b74 .LASF239
C:\Users\stapi\AppData\Local\Temp\ccvK0uVp.s:4527   .debug_str:0000000000000361 .LASF240
C:\Users\stapi\AppData\Local\Temp\ccvK0uVp.s:4417   .debug_str:0000000000000005 .LASF241
C:\Users\stapi\AppData\Local\Temp\ccvK0uVp.s:4473   .debug_str:00000000000001fb .LASF242
C:\Users\stapi\AppData\Local\Temp\ccvK0uVp.s:4837   .debug_str:0000000000000c16 .LASF243
C:\Users\stapi\AppData\Local\Temp\ccvK0uVp.s:579    .text.cmd_iperf3:0000000000000000 .LVL61
C:\Users\stapi\AppData\Local\Temp\ccvK0uVp.s:601    .text.cmd_iperf3:0000000000000020 .LVL63
C:\Users\stapi\AppData\Local\Temp\ccvK0uVp.s:629    .text.cmd_iperf3:000000000000004e .LVL67
C:\Users\stapi\AppData\Local\Temp\ccvK0uVp.s:670    .text.cmd_iperf3:000000000000009e .LVL71
C:\Users\stapi\AppData\Local\Temp\ccvK0uVp.s:597    .text.cmd_iperf3:0000000000000018 .LVL62
C:\Users\stapi\AppData\Local\Temp\ccvK0uVp.s:264    .text.iperf3_main:0000000000000000 .LVL28
C:\Users\stapi\AppData\Local\Temp\ccvK0uVp.s:328    .text.iperf3_main:000000000000004e .LVL33
C:\Users\stapi\AppData\Local\Temp\ccvK0uVp.s:370    .text.iperf3_main:00000000000000a8 .LVL41
C:\Users\stapi\AppData\Local\Temp\ccvK0uVp.s:383    .text.iperf3_main:00000000000000c2 .LVL43
C:\Users\stapi\AppData\Local\Temp\ccvK0uVp.s:394    .text.iperf3_main:00000000000000d4 .LVL45
C:\Users\stapi\AppData\Local\Temp\ccvK0uVp.s:491    .text.iperf3_main:0000000000000160 .LVL59
C:\Users\stapi\AppData\Local\Temp\ccvK0uVp.s:300    .text.iperf3_main:0000000000000028 .LVL30
C:\Users\stapi\AppData\Local\Temp\ccvK0uVp.s:389    .text.iperf3_main:00000000000000d0 .LVL44
C:\Users\stapi\AppData\Local\Temp\ccvK0uVp.s:401    .text.iperf3_main:00000000000000e0 .LVL46
C:\Users\stapi\AppData\Local\Temp\ccvK0uVp.s:408    .text.iperf3_main:00000000000000e4 .LVL47
C:\Users\stapi\AppData\Local\Temp\ccvK0uVp.s:414    .text.iperf3_main:00000000000000ec .LVL48
C:\Users\stapi\AppData\Local\Temp\ccvK0uVp.s:420    .text.iperf3_main:00000000000000f6 .LVL50
C:\Users\stapi\AppData\Local\Temp\ccvK0uVp.s:429    .text.iperf3_main:00000000000000fc .LVL51
C:\Users\stapi\AppData\Local\Temp\ccvK0uVp.s:457    .text.iperf3_main:0000000000000132 .LVL55
C:\Users\stapi\AppData\Local\Temp\ccvK0uVp.s:467    .text.iperf3_main:000000000000013a .LVL56
C:\Users\stapi\AppData\Local\Temp\ccvK0uVp.s:448    .text.iperf3_main:0000000000000126 .LVL53
C:\Users\stapi\AppData\Local\Temp\ccvK0uVp.s:454    .text.iperf3_main:000000000000012c .LVL54
C:\Users\stapi\AppData\Local\Temp\ccvK0uVp.s:28     .text.iperf_test_task:0000000000000000 .LVL0
C:\Users\stapi\AppData\Local\Temp\ccvK0uVp.s:73     .text.iperf_test_task:0000000000000032 .LVL3
C:\Users\stapi\AppData\Local\Temp\ccvK0uVp.s:40     .text.iperf_test_task:0000000000000008 .LVL1
C:\Users\stapi\AppData\Local\Temp\ccvK0uVp.s:52     .text.iperf_test_task:0000000000000012 .LVL2
C:\Users\stapi\AppData\Local\Temp\ccvK0uVp.s:172    .text.iperf_test_task:00000000000000e0 .LVL19
C:\Users\stapi\AppData\Local\Temp\ccvK0uVp.s:202    .text.iperf_test_task:0000000000000110 .LVL22
C:\Users\stapi\AppData\Local\Temp\ccvK0uVp.s:130    .text.iperf_test_task:000000000000009a .LVL11
C:\Users\stapi\AppData\Local\Temp\ccvK0uVp.s:149    .text.iperf_test_task:00000000000000b2 .LVL15
C:\Users\stapi\AppData\Local\Temp\ccvK0uVp.s:228    .text.iperf_test_task:0000000000000140 .LVL26
C:\Users\stapi\AppData\Local\Temp\ccvK0uVp.s:92     .text.iperf_test_task:000000000000004c .LVL5
C:\Users\stapi\AppData\Local\Temp\ccvK0uVp.s:800    .debug_info:0000000000000000 .Ldebug_info0
C:\Users\stapi\AppData\Local\Temp\ccvK0uVp.s:47     .text.iperf_test_task:000000000000000c .LBE4
C:\Users\stapi\AppData\Local\Temp\ccvK0uVp.s:55     .text.iperf_test_task:0000000000000012 .LBB9
C:\Users\stapi\AppData\Local\Temp\ccvK0uVp.s:117    .text.iperf_test_task:0000000000000076 .LBE9
C:\Users\stapi\AppData\Local\Temp\ccvK0uVp.s:132    .text.iperf_test_task:000000000000009a .LBB10
C:\Users\stapi\AppData\Local\Temp\ccvK0uVp.s:152    .text.iperf_test_task:00000000000000b2 .LBE10
C:\Users\stapi\AppData\Local\Temp\ccvK0uVp.s:205    .text.iperf_test_task:0000000000000110 .LBB11
C:\Users\stapi\AppData\Local\Temp\ccvK0uVp.s:236    .text.iperf_test_task:000000000000014a .LBE11

UNDEFINED SYMBOLS
__riscv_save_7
i_errno
iperf_run_server
iperf_strerror
co_printf
iperf_reset_test
iperf_get_test_one_off
iperf_free_test
sys_enter_critical
sys_exit_critical
sys_task_delete
__riscv_restore_7
iperf_run_client
usage
__riscv_save_5
iperf_new_test
__riscv_restore_5
iperf_defaults
iperf_parse_arguments
gnu_getopt_reset
sys_task_create
__riscv_save_4
strcmp
__riscv_restore_4
