   1              		.file	"iperf3_main.c"
   2              		.option nopic
   3              		.attribute arch, "rv32i2p0_m2p0_a2p0_f2p0_c2p0_b_p0p94"
   4              		.attribute unaligned_access, 0
   5              		.attribute stack_align, 16
   6              		.text
   7              	.Ltext0:
   8              		.cfi_sections	.debug_frame
   9              		.section	.rodata.iperf_test_task.str1.4,"aMS",@progbits,1
  10              		.align	2
  11              	.LC0:
  12 0000 0D0A6572 		.string	"\r\nerror - %s"
  12      726F7220 
  12      2D202573 
  12      00
  13 000d 000000   		.align	2
  14              	.LC1:
  15 0010 0D0A746F 		.string	"\r\ntoo many errors, exiting"
  15      6F206D61 
  15      6E792065 
  15      72726F72 
  15      732C2065 
  16 002b 00       		.align	2
  17              	.LC2:
  18 002c 49706572 		.string	"Iperf3 task stopped!\r\n"
  18      66332074 
  18      61736B20 
  18      73746F70 
  18      70656421 
  19              		.section	.text.iperf_test_task,"ax",@progbits
  20              		.align	1
  21              		.globl	iperf_test_task
  23              	iperf_test_task:
  24              	.LFB14:
  25              		.file 1 "C:/Users/stapi/OneDrive/Desktop/GD32VW553/GD32VW55X_Wifi_BLE_SDK/GD32VW55x_RELEASE_V1.0.2
   1:C:/Users/stapi/OneDrive/Desktop/GD32VW553/GD32VW55X_Wifi_BLE_SDK/GD32VW55x_RELEASE_V1.0.2/MSDK/app\iperf3_main.c **** /*
   2:C:/Users/stapi/OneDrive/Desktop/GD32VW553/GD32VW55X_Wifi_BLE_SDK/GD32VW55x_RELEASE_V1.0.2/MSDK/app\iperf3_main.c ****  * iperf, Copyright (c) 2014, 2015, The Regents of the University of
   3:C:/Users/stapi/OneDrive/Desktop/GD32VW553/GD32VW55X_Wifi_BLE_SDK/GD32VW55x_RELEASE_V1.0.2/MSDK/app\iperf3_main.c ****  * California, through Lawrence Berkeley National Laboratory (subject
   4:C:/Users/stapi/OneDrive/Desktop/GD32VW553/GD32VW55X_Wifi_BLE_SDK/GD32VW55x_RELEASE_V1.0.2/MSDK/app\iperf3_main.c ****  * to receipt of any required approvals from the U.S. Dept. of
   5:C:/Users/stapi/OneDrive/Desktop/GD32VW553/GD32VW55X_Wifi_BLE_SDK/GD32VW55x_RELEASE_V1.0.2/MSDK/app\iperf3_main.c ****  * Energy).  All rights reserved.
   6:C:/Users/stapi/OneDrive/Desktop/GD32VW553/GD32VW55X_Wifi_BLE_SDK/GD32VW55x_RELEASE_V1.0.2/MSDK/app\iperf3_main.c ****  *
   7:C:/Users/stapi/OneDrive/Desktop/GD32VW553/GD32VW55X_Wifi_BLE_SDK/GD32VW55x_RELEASE_V1.0.2/MSDK/app\iperf3_main.c ****  * If you have questions about your rights to use or distribute this
   8:C:/Users/stapi/OneDrive/Desktop/GD32VW553/GD32VW55X_Wifi_BLE_SDK/GD32VW55x_RELEASE_V1.0.2/MSDK/app\iperf3_main.c ****  * software, please contact Berkeley Lab's Technology Transfer
   9:C:/Users/stapi/OneDrive/Desktop/GD32VW553/GD32VW55X_Wifi_BLE_SDK/GD32VW55x_RELEASE_V1.0.2/MSDK/app\iperf3_main.c ****  * Department at TTD@lbl.gov.
  10:C:/Users/stapi/OneDrive/Desktop/GD32VW553/GD32VW55X_Wifi_BLE_SDK/GD32VW55x_RELEASE_V1.0.2/MSDK/app\iperf3_main.c ****  *
  11:C:/Users/stapi/OneDrive/Desktop/GD32VW553/GD32VW55X_Wifi_BLE_SDK/GD32VW55x_RELEASE_V1.0.2/MSDK/app\iperf3_main.c ****  * NOTICE.  This software is owned by the U.S. Department of Energy.
  12:C:/Users/stapi/OneDrive/Desktop/GD32VW553/GD32VW55X_Wifi_BLE_SDK/GD32VW55x_RELEASE_V1.0.2/MSDK/app\iperf3_main.c ****  * As such, the U.S. Government has been granted for itself and others
  13:C:/Users/stapi/OneDrive/Desktop/GD32VW553/GD32VW55X_Wifi_BLE_SDK/GD32VW55x_RELEASE_V1.0.2/MSDK/app\iperf3_main.c ****  * acting on its behalf a paid-up, nonexclusive, irrevocable,
  14:C:/Users/stapi/OneDrive/Desktop/GD32VW553/GD32VW55X_Wifi_BLE_SDK/GD32VW55x_RELEASE_V1.0.2/MSDK/app\iperf3_main.c ****  * worldwide license in the Software to reproduce, prepare derivative
  15:C:/Users/stapi/OneDrive/Desktop/GD32VW553/GD32VW55X_Wifi_BLE_SDK/GD32VW55x_RELEASE_V1.0.2/MSDK/app\iperf3_main.c ****  * works, and perform publicly and display publicly.  Beginning five
  16:C:/Users/stapi/OneDrive/Desktop/GD32VW553/GD32VW55X_Wifi_BLE_SDK/GD32VW55x_RELEASE_V1.0.2/MSDK/app\iperf3_main.c ****  * (5) years after the date permission to assert copyright is obtained
  17:C:/Users/stapi/OneDrive/Desktop/GD32VW553/GD32VW55X_Wifi_BLE_SDK/GD32VW55x_RELEASE_V1.0.2/MSDK/app\iperf3_main.c ****  * from the U.S. Department of Energy, and subject to any subsequent
  18:C:/Users/stapi/OneDrive/Desktop/GD32VW553/GD32VW55X_Wifi_BLE_SDK/GD32VW55x_RELEASE_V1.0.2/MSDK/app\iperf3_main.c ****  * five (5) year renewals, the U.S. Government is granted for itself
  19:C:/Users/stapi/OneDrive/Desktop/GD32VW553/GD32VW55X_Wifi_BLE_SDK/GD32VW55x_RELEASE_V1.0.2/MSDK/app\iperf3_main.c ****  * and others acting on its behalf a paid-up, nonexclusive,
  20:C:/Users/stapi/OneDrive/Desktop/GD32VW553/GD32VW55X_Wifi_BLE_SDK/GD32VW55x_RELEASE_V1.0.2/MSDK/app\iperf3_main.c ****  * irrevocable, worldwide license in the Software to reproduce,
  21:C:/Users/stapi/OneDrive/Desktop/GD32VW553/GD32VW55X_Wifi_BLE_SDK/GD32VW55x_RELEASE_V1.0.2/MSDK/app\iperf3_main.c ****  * prepare derivative works, distribute copies to the public, perform
  22:C:/Users/stapi/OneDrive/Desktop/GD32VW553/GD32VW55X_Wifi_BLE_SDK/GD32VW55x_RELEASE_V1.0.2/MSDK/app\iperf3_main.c ****  * publicly and display publicly, and to permit others to do so.
  23:C:/Users/stapi/OneDrive/Desktop/GD32VW553/GD32VW55X_Wifi_BLE_SDK/GD32VW55x_RELEASE_V1.0.2/MSDK/app\iperf3_main.c ****  *
  24:C:/Users/stapi/OneDrive/Desktop/GD32VW553/GD32VW55X_Wifi_BLE_SDK/GD32VW55x_RELEASE_V1.0.2/MSDK/app\iperf3_main.c ****  * This code is distributed under a BSD style license, see the LICENSE
  25:C:/Users/stapi/OneDrive/Desktop/GD32VW553/GD32VW55X_Wifi_BLE_SDK/GD32VW55x_RELEASE_V1.0.2/MSDK/app\iperf3_main.c ****  * file for complete information.
  26:C:/Users/stapi/OneDrive/Desktop/GD32VW553/GD32VW55X_Wifi_BLE_SDK/GD32VW55x_RELEASE_V1.0.2/MSDK/app\iperf3_main.c ****  */
  27:C:/Users/stapi/OneDrive/Desktop/GD32VW553/GD32VW55X_Wifi_BLE_SDK/GD32VW55x_RELEASE_V1.0.2/MSDK/app\iperf3_main.c **** 
  28:C:/Users/stapi/OneDrive/Desktop/GD32VW553/GD32VW55X_Wifi_BLE_SDK/GD32VW55x_RELEASE_V1.0.2/MSDK/app\iperf3_main.c **** /*!
  29:C:/Users/stapi/OneDrive/Desktop/GD32VW553/GD32VW55X_Wifi_BLE_SDK/GD32VW55x_RELEASE_V1.0.2/MSDK/app\iperf3_main.c ****     \file    iperf3_main.c
  30:C:/Users/stapi/OneDrive/Desktop/GD32VW553/GD32VW55X_Wifi_BLE_SDK/GD32VW55x_RELEASE_V1.0.2/MSDK/app\iperf3_main.c ****     \brief   Main function for iperf3.
  31:C:/Users/stapi/OneDrive/Desktop/GD32VW553/GD32VW55X_Wifi_BLE_SDK/GD32VW55x_RELEASE_V1.0.2/MSDK/app\iperf3_main.c **** 
  32:C:/Users/stapi/OneDrive/Desktop/GD32VW553/GD32VW55X_Wifi_BLE_SDK/GD32VW55x_RELEASE_V1.0.2/MSDK/app\iperf3_main.c ****     \version 2023-07-20, V1.0.0, firmware for GD32VW55x
  33:C:/Users/stapi/OneDrive/Desktop/GD32VW553/GD32VW55X_Wifi_BLE_SDK/GD32VW55x_RELEASE_V1.0.2/MSDK/app\iperf3_main.c **** */
  34:C:/Users/stapi/OneDrive/Desktop/GD32VW553/GD32VW55X_Wifi_BLE_SDK/GD32VW55x_RELEASE_V1.0.2/MSDK/app\iperf3_main.c **** 
  35:C:/Users/stapi/OneDrive/Desktop/GD32VW553/GD32VW55X_Wifi_BLE_SDK/GD32VW55x_RELEASE_V1.0.2/MSDK/app\iperf3_main.c **** /*
  36:C:/Users/stapi/OneDrive/Desktop/GD32VW553/GD32VW55X_Wifi_BLE_SDK/GD32VW55x_RELEASE_V1.0.2/MSDK/app\iperf3_main.c ****     Copyright (c) 2023, GigaDevice Semiconductor Inc.
  37:C:/Users/stapi/OneDrive/Desktop/GD32VW553/GD32VW55X_Wifi_BLE_SDK/GD32VW55x_RELEASE_V1.0.2/MSDK/app\iperf3_main.c **** 
  38:C:/Users/stapi/OneDrive/Desktop/GD32VW553/GD32VW55X_Wifi_BLE_SDK/GD32VW55x_RELEASE_V1.0.2/MSDK/app\iperf3_main.c ****     Redistribution and use in source and binary forms, with or without modification,
  39:C:/Users/stapi/OneDrive/Desktop/GD32VW553/GD32VW55X_Wifi_BLE_SDK/GD32VW55x_RELEASE_V1.0.2/MSDK/app\iperf3_main.c **** are permitted provided that the following conditions are met:
  40:C:/Users/stapi/OneDrive/Desktop/GD32VW553/GD32VW55X_Wifi_BLE_SDK/GD32VW55x_RELEASE_V1.0.2/MSDK/app\iperf3_main.c **** 
  41:C:/Users/stapi/OneDrive/Desktop/GD32VW553/GD32VW55X_Wifi_BLE_SDK/GD32VW55x_RELEASE_V1.0.2/MSDK/app\iperf3_main.c ****     1. Redistributions of source code must retain the above copyright notice, this
  42:C:/Users/stapi/OneDrive/Desktop/GD32VW553/GD32VW55X_Wifi_BLE_SDK/GD32VW55x_RELEASE_V1.0.2/MSDK/app\iperf3_main.c ****        list of conditions and the following disclaimer.
  43:C:/Users/stapi/OneDrive/Desktop/GD32VW553/GD32VW55X_Wifi_BLE_SDK/GD32VW55x_RELEASE_V1.0.2/MSDK/app\iperf3_main.c ****     2. Redistributions in binary form must reproduce the above copyright notice,
  44:C:/Users/stapi/OneDrive/Desktop/GD32VW553/GD32VW55X_Wifi_BLE_SDK/GD32VW55x_RELEASE_V1.0.2/MSDK/app\iperf3_main.c ****        this list of conditions and the following disclaimer in the documentation
  45:C:/Users/stapi/OneDrive/Desktop/GD32VW553/GD32VW55X_Wifi_BLE_SDK/GD32VW55x_RELEASE_V1.0.2/MSDK/app\iperf3_main.c ****        and/or other materials provided with the distribution.
  46:C:/Users/stapi/OneDrive/Desktop/GD32VW553/GD32VW55X_Wifi_BLE_SDK/GD32VW55x_RELEASE_V1.0.2/MSDK/app\iperf3_main.c ****     3. Neither the name of the copyright holder nor the names of its contributors
  47:C:/Users/stapi/OneDrive/Desktop/GD32VW553/GD32VW55X_Wifi_BLE_SDK/GD32VW55x_RELEASE_V1.0.2/MSDK/app\iperf3_main.c ****        may be used to endorse or promote products derived from this software without
  48:C:/Users/stapi/OneDrive/Desktop/GD32VW553/GD32VW55X_Wifi_BLE_SDK/GD32VW55x_RELEASE_V1.0.2/MSDK/app\iperf3_main.c ****        specific prior written permission.
  49:C:/Users/stapi/OneDrive/Desktop/GD32VW553/GD32VW55X_Wifi_BLE_SDK/GD32VW55x_RELEASE_V1.0.2/MSDK/app\iperf3_main.c **** 
  50:C:/Users/stapi/OneDrive/Desktop/GD32VW553/GD32VW55X_Wifi_BLE_SDK/GD32VW55x_RELEASE_V1.0.2/MSDK/app\iperf3_main.c ****     THIS SOFTWARE IS PROVIDED BY THE COPYRIGHT HOLDERS AND CONTRIBUTORS "AS IS"
  51:C:/Users/stapi/OneDrive/Desktop/GD32VW553/GD32VW55X_Wifi_BLE_SDK/GD32VW55x_RELEASE_V1.0.2/MSDK/app\iperf3_main.c **** AND ANY EXPRESS OR IMPLIED WARRANTIES, INCLUDING, BUT NOT LIMITED TO, THE IMPLIED
  52:C:/Users/stapi/OneDrive/Desktop/GD32VW553/GD32VW55X_Wifi_BLE_SDK/GD32VW55x_RELEASE_V1.0.2/MSDK/app\iperf3_main.c **** WARRANTIES OF MERCHANTABILITY AND FITNESS FOR A PARTICULAR PURPOSE ARE DISCLAIMED.
  53:C:/Users/stapi/OneDrive/Desktop/GD32VW553/GD32VW55X_Wifi_BLE_SDK/GD32VW55x_RELEASE_V1.0.2/MSDK/app\iperf3_main.c **** IN NO EVENT SHALL THE COPYRIGHT HOLDER OR CONTRIBUTORS BE LIABLE FOR ANY DIRECT,
  54:C:/Users/stapi/OneDrive/Desktop/GD32VW553/GD32VW55X_Wifi_BLE_SDK/GD32VW55x_RELEASE_V1.0.2/MSDK/app\iperf3_main.c **** INDIRECT, INCIDENTAL, SPECIAL, EXEMPLARY, OR CONSEQUENTIAL DAMAGES (INCLUDING, BUT
  55:C:/Users/stapi/OneDrive/Desktop/GD32VW553/GD32VW55X_Wifi_BLE_SDK/GD32VW55x_RELEASE_V1.0.2/MSDK/app\iperf3_main.c **** NOT LIMITED TO, PROCUREMENT OF SUBSTITUTE GOODS OR SERVICES; LOSS OF USE, DATA, OR
  56:C:/Users/stapi/OneDrive/Desktop/GD32VW553/GD32VW55X_Wifi_BLE_SDK/GD32VW55x_RELEASE_V1.0.2/MSDK/app\iperf3_main.c **** PROFITS; OR BUSINESS INTERRUPTION) HOWEVER CAUSED AND ON ANY THEORY OF LIABILITY,
  57:C:/Users/stapi/OneDrive/Desktop/GD32VW553/GD32VW55X_Wifi_BLE_SDK/GD32VW55x_RELEASE_V1.0.2/MSDK/app\iperf3_main.c **** WHETHER IN CONTRACT, STRICT LIABILITY, OR TORT (INCLUDING NEGLIGENCE OR OTHERWISE)
  58:C:/Users/stapi/OneDrive/Desktop/GD32VW553/GD32VW55X_Wifi_BLE_SDK/GD32VW55x_RELEASE_V1.0.2/MSDK/app\iperf3_main.c **** ARISING IN ANY WAY OUT OF THE USE OF THIS SOFTWARE, EVEN IF ADVISED OF THE POSSIBILITY
  59:C:/Users/stapi/OneDrive/Desktop/GD32VW553/GD32VW55X_Wifi_BLE_SDK/GD32VW55x_RELEASE_V1.0.2/MSDK/app\iperf3_main.c **** OF SUCH DAMAGE.
  60:C:/Users/stapi/OneDrive/Desktop/GD32VW553/GD32VW55X_Wifi_BLE_SDK/GD32VW55x_RELEASE_V1.0.2/MSDK/app\iperf3_main.c **** */
  61:C:/Users/stapi/OneDrive/Desktop/GD32VW553/GD32VW55X_Wifi_BLE_SDK/GD32VW55x_RELEASE_V1.0.2/MSDK/app\iperf3_main.c **** 
  62:C:/Users/stapi/OneDrive/Desktop/GD32VW553/GD32VW55X_Wifi_BLE_SDK/GD32VW55x_RELEASE_V1.0.2/MSDK/app\iperf3_main.c **** #include <string.h>
  63:C:/Users/stapi/OneDrive/Desktop/GD32VW553/GD32VW55X_Wifi_BLE_SDK/GD32VW55x_RELEASE_V1.0.2/MSDK/app\iperf3_main.c **** #include "app_cfg.h"
  64:C:/Users/stapi/OneDrive/Desktop/GD32VW553/GD32VW55X_Wifi_BLE_SDK/GD32VW55x_RELEASE_V1.0.2/MSDK/app\iperf3_main.c **** 
  65:C:/Users/stapi/OneDrive/Desktop/GD32VW553/GD32VW55X_Wifi_BLE_SDK/GD32VW55x_RELEASE_V1.0.2/MSDK/app\iperf3_main.c **** #ifdef CONFIG_IPERF3_TEST
  66:C:/Users/stapi/OneDrive/Desktop/GD32VW553/GD32VW55X_Wifi_BLE_SDK/GD32VW55x_RELEASE_V1.0.2/MSDK/app\iperf3_main.c **** #include "wrapper_os.h"
  67:C:/Users/stapi/OneDrive/Desktop/GD32VW553/GD32VW55X_Wifi_BLE_SDK/GD32VW55x_RELEASE_V1.0.2/MSDK/app\iperf3_main.c **** #include "dbg_print.h"
  68:C:/Users/stapi/OneDrive/Desktop/GD32VW553/GD32VW55X_Wifi_BLE_SDK/GD32VW55x_RELEASE_V1.0.2/MSDK/app\iperf3_main.c **** #include "cmd_shell.h"
  69:C:/Users/stapi/OneDrive/Desktop/GD32VW553/GD32VW55X_Wifi_BLE_SDK/GD32VW55x_RELEASE_V1.0.2/MSDK/app\iperf3_main.c **** #include <lwip/sockets.h>
  70:C:/Users/stapi/OneDrive/Desktop/GD32VW553/GD32VW55X_Wifi_BLE_SDK/GD32VW55x_RELEASE_V1.0.2/MSDK/app\iperf3_main.c **** 
  71:C:/Users/stapi/OneDrive/Desktop/GD32VW553/GD32VW55X_Wifi_BLE_SDK/GD32VW55x_RELEASE_V1.0.2/MSDK/app\iperf3_main.c **** #include "iperf_queue.h"
  72:C:/Users/stapi/OneDrive/Desktop/GD32VW553/GD32VW55X_Wifi_BLE_SDK/GD32VW55x_RELEASE_V1.0.2/MSDK/app\iperf3_main.c **** #include "iperf_timer.h"
  73:C:/Users/stapi/OneDrive/Desktop/GD32VW553/GD32VW55X_Wifi_BLE_SDK/GD32VW55x_RELEASE_V1.0.2/MSDK/app\iperf3_main.c **** #include "iperf.h"
  74:C:/Users/stapi/OneDrive/Desktop/GD32VW553/GD32VW55X_Wifi_BLE_SDK/GD32VW55x_RELEASE_V1.0.2/MSDK/app\iperf3_main.c **** #include "iperf_api.h"
  75:C:/Users/stapi/OneDrive/Desktop/GD32VW553/GD32VW55X_Wifi_BLE_SDK/GD32VW55x_RELEASE_V1.0.2/MSDK/app\iperf3_main.c **** 
  76:C:/Users/stapi/OneDrive/Desktop/GD32VW553/GD32VW55X_Wifi_BLE_SDK/GD32VW55x_RELEASE_V1.0.2/MSDK/app\iperf3_main.c **** #undef iperf_err
  77:C:/Users/stapi/OneDrive/Desktop/GD32VW553/GD32VW55X_Wifi_BLE_SDK/GD32VW55x_RELEASE_V1.0.2/MSDK/app\iperf3_main.c **** #define iperf_err(a, fmt, arg...)       \
  78:C:/Users/stapi/OneDrive/Desktop/GD32VW553/GD32VW55X_Wifi_BLE_SDK/GD32VW55x_RELEASE_V1.0.2/MSDK/app\iperf3_main.c ****         do {                            \
  79:C:/Users/stapi/OneDrive/Desktop/GD32VW553/GD32VW55X_Wifi_BLE_SDK/GD32VW55x_RELEASE_V1.0.2/MSDK/app\iperf3_main.c ****             app_print("\r\n"fmt, ##arg);   \
  80:C:/Users/stapi/OneDrive/Desktop/GD32VW553/GD32VW55X_Wifi_BLE_SDK/GD32VW55x_RELEASE_V1.0.2/MSDK/app\iperf3_main.c ****         } while(0);
  81:C:/Users/stapi/OneDrive/Desktop/GD32VW553/GD32VW55X_Wifi_BLE_SDK/GD32VW55x_RELEASE_V1.0.2/MSDK/app\iperf3_main.c **** 
  82:C:/Users/stapi/OneDrive/Desktop/GD32VW553/GD32VW55X_Wifi_BLE_SDK/GD32VW55x_RELEASE_V1.0.2/MSDK/app\iperf3_main.c **** unsigned char iperf_terminate;
  83:C:/Users/stapi/OneDrive/Desktop/GD32VW553/GD32VW55X_Wifi_BLE_SDK/GD32VW55x_RELEASE_V1.0.2/MSDK/app\iperf3_main.c **** unsigned char iperf_task_num = 0;
  84:C:/Users/stapi/OneDrive/Desktop/GD32VW553/GD32VW55X_Wifi_BLE_SDK/GD32VW55x_RELEASE_V1.0.2/MSDK/app\iperf3_main.c **** 
  85:C:/Users/stapi/OneDrive/Desktop/GD32VW553/GD32VW55X_Wifi_BLE_SDK/GD32VW55x_RELEASE_V1.0.2/MSDK/app\iperf3_main.c **** os_task_t *iperf_task_tcb_ptr[IPERF_TASK_MAX] = {NULL};
  86:C:/Users/stapi/OneDrive/Desktop/GD32VW553/GD32VW55X_Wifi_BLE_SDK/GD32VW55x_RELEASE_V1.0.2/MSDK/app\iperf3_main.c **** void cmd_iperf3(int argc, char **argv);
  87:C:/Users/stapi/OneDrive/Desktop/GD32VW553/GD32VW55X_Wifi_BLE_SDK/GD32VW55x_RELEASE_V1.0.2/MSDK/app\iperf3_main.c **** 
  88:C:/Users/stapi/OneDrive/Desktop/GD32VW553/GD32VW55X_Wifi_BLE_SDK/GD32VW55x_RELEASE_V1.0.2/MSDK/app\iperf3_main.c **** extern void gnu_getopt_reset(void);
  89:C:/Users/stapi/OneDrive/Desktop/GD32VW553/GD32VW55X_Wifi_BLE_SDK/GD32VW55x_RELEASE_V1.0.2/MSDK/app\iperf3_main.c **** 
  90:C:/Users/stapi/OneDrive/Desktop/GD32VW553/GD32VW55X_Wifi_BLE_SDK/GD32VW55x_RELEASE_V1.0.2/MSDK/app\iperf3_main.c **** /**************************************************************************/
  91:C:/Users/stapi/OneDrive/Desktop/GD32VW553/GD32VW55X_Wifi_BLE_SDK/GD32VW55x_RELEASE_V1.0.2/MSDK/app\iperf3_main.c **** static int iperf_run(struct iperf_test *test)
  92:C:/Users/stapi/OneDrive/Desktop/GD32VW553/GD32VW55X_Wifi_BLE_SDK/GD32VW55x_RELEASE_V1.0.2/MSDK/app\iperf3_main.c **** {
  93:C:/Users/stapi/OneDrive/Desktop/GD32VW553/GD32VW55X_Wifi_BLE_SDK/GD32VW55x_RELEASE_V1.0.2/MSDK/app\iperf3_main.c ****     int consecutive_errors;
  94:C:/Users/stapi/OneDrive/Desktop/GD32VW553/GD32VW55X_Wifi_BLE_SDK/GD32VW55x_RELEASE_V1.0.2/MSDK/app\iperf3_main.c **** 
  95:C:/Users/stapi/OneDrive/Desktop/GD32VW553/GD32VW55X_Wifi_BLE_SDK/GD32VW55x_RELEASE_V1.0.2/MSDK/app\iperf3_main.c ****     switch (test->role) {
  96:C:/Users/stapi/OneDrive/Desktop/GD32VW553/GD32VW55X_Wifi_BLE_SDK/GD32VW55x_RELEASE_V1.0.2/MSDK/app\iperf3_main.c ****     case 's':
  97:C:/Users/stapi/OneDrive/Desktop/GD32VW553/GD32VW55X_Wifi_BLE_SDK/GD32VW55x_RELEASE_V1.0.2/MSDK/app\iperf3_main.c ****         if (test->daemon) {
  98:C:/Users/stapi/OneDrive/Desktop/GD32VW553/GD32VW55X_Wifi_BLE_SDK/GD32VW55x_RELEASE_V1.0.2/MSDK/app\iperf3_main.c ****             int rc = 0; //daemon(0, 0);
  99:C:/Users/stapi/OneDrive/Desktop/GD32VW553/GD32VW55X_Wifi_BLE_SDK/GD32VW55x_RELEASE_V1.0.2/MSDK/app\iperf3_main.c ****             if (rc < 0) {
 100:C:/Users/stapi/OneDrive/Desktop/GD32VW553/GD32VW55X_Wifi_BLE_SDK/GD32VW55x_RELEASE_V1.0.2/MSDK/app\iperf3_main.c ****                 i_errno = 133; //IEDAEMON;
 101:C:/Users/stapi/OneDrive/Desktop/GD32VW553/GD32VW55X_Wifi_BLE_SDK/GD32VW55x_RELEASE_V1.0.2/MSDK/app\iperf3_main.c ****                 iperf_err(test, "error - %s", iperf_strerror(i_errno));
 102:C:/Users/stapi/OneDrive/Desktop/GD32VW553/GD32VW55X_Wifi_BLE_SDK/GD32VW55x_RELEASE_V1.0.2/MSDK/app\iperf3_main.c ****                 return (-1);
 103:C:/Users/stapi/OneDrive/Desktop/GD32VW553/GD32VW55X_Wifi_BLE_SDK/GD32VW55x_RELEASE_V1.0.2/MSDK/app\iperf3_main.c ****             }
 104:C:/Users/stapi/OneDrive/Desktop/GD32VW553/GD32VW55X_Wifi_BLE_SDK/GD32VW55x_RELEASE_V1.0.2/MSDK/app\iperf3_main.c ****         }
 105:C:/Users/stapi/OneDrive/Desktop/GD32VW553/GD32VW55X_Wifi_BLE_SDK/GD32VW55x_RELEASE_V1.0.2/MSDK/app\iperf3_main.c ****         consecutive_errors = 0;
 106:C:/Users/stapi/OneDrive/Desktop/GD32VW553/GD32VW55X_Wifi_BLE_SDK/GD32VW55x_RELEASE_V1.0.2/MSDK/app\iperf3_main.c **** 
 107:C:/Users/stapi/OneDrive/Desktop/GD32VW553/GD32VW55X_Wifi_BLE_SDK/GD32VW55x_RELEASE_V1.0.2/MSDK/app\iperf3_main.c ****         for (;;) {
 108:C:/Users/stapi/OneDrive/Desktop/GD32VW553/GD32VW55X_Wifi_BLE_SDK/GD32VW55x_RELEASE_V1.0.2/MSDK/app\iperf3_main.c ****             if (iperf_terminate) {
 109:C:/Users/stapi/OneDrive/Desktop/GD32VW553/GD32VW55X_Wifi_BLE_SDK/GD32VW55x_RELEASE_V1.0.2/MSDK/app\iperf3_main.c ****                 break;
 110:C:/Users/stapi/OneDrive/Desktop/GD32VW553/GD32VW55X_Wifi_BLE_SDK/GD32VW55x_RELEASE_V1.0.2/MSDK/app\iperf3_main.c ****             }
 111:C:/Users/stapi/OneDrive/Desktop/GD32VW553/GD32VW55X_Wifi_BLE_SDK/GD32VW55x_RELEASE_V1.0.2/MSDK/app\iperf3_main.c ****             if (iperf_run_server(test) < 0) {
 112:C:/Users/stapi/OneDrive/Desktop/GD32VW553/GD32VW55X_Wifi_BLE_SDK/GD32VW55x_RELEASE_V1.0.2/MSDK/app\iperf3_main.c ****                 iperf_err(test, "error - %s", iperf_strerror(i_errno));
 113:C:/Users/stapi/OneDrive/Desktop/GD32VW553/GD32VW55X_Wifi_BLE_SDK/GD32VW55x_RELEASE_V1.0.2/MSDK/app\iperf3_main.c ****                 ++consecutive_errors;
 114:C:/Users/stapi/OneDrive/Desktop/GD32VW553/GD32VW55X_Wifi_BLE_SDK/GD32VW55x_RELEASE_V1.0.2/MSDK/app\iperf3_main.c ****                 if (consecutive_errors >= 5) {
 115:C:/Users/stapi/OneDrive/Desktop/GD32VW553/GD32VW55X_Wifi_BLE_SDK/GD32VW55x_RELEASE_V1.0.2/MSDK/app\iperf3_main.c ****                     iperf_err(test, "too many errors, exiting");
 116:C:/Users/stapi/OneDrive/Desktop/GD32VW553/GD32VW55X_Wifi_BLE_SDK/GD32VW55x_RELEASE_V1.0.2/MSDK/app\iperf3_main.c ****                     return (-1);
 117:C:/Users/stapi/OneDrive/Desktop/GD32VW553/GD32VW55X_Wifi_BLE_SDK/GD32VW55x_RELEASE_V1.0.2/MSDK/app\iperf3_main.c ****                 }
 118:C:/Users/stapi/OneDrive/Desktop/GD32VW553/GD32VW55X_Wifi_BLE_SDK/GD32VW55x_RELEASE_V1.0.2/MSDK/app\iperf3_main.c ****             } else {
 119:C:/Users/stapi/OneDrive/Desktop/GD32VW553/GD32VW55X_Wifi_BLE_SDK/GD32VW55x_RELEASE_V1.0.2/MSDK/app\iperf3_main.c ****                 consecutive_errors = 0;
 120:C:/Users/stapi/OneDrive/Desktop/GD32VW553/GD32VW55X_Wifi_BLE_SDK/GD32VW55x_RELEASE_V1.0.2/MSDK/app\iperf3_main.c ****             }
 121:C:/Users/stapi/OneDrive/Desktop/GD32VW553/GD32VW55X_Wifi_BLE_SDK/GD32VW55x_RELEASE_V1.0.2/MSDK/app\iperf3_main.c ****             iperf_reset_test(test);
 122:C:/Users/stapi/OneDrive/Desktop/GD32VW553/GD32VW55X_Wifi_BLE_SDK/GD32VW55x_RELEASE_V1.0.2/MSDK/app\iperf3_main.c ****             if (iperf_get_test_one_off(test))
 123:C:/Users/stapi/OneDrive/Desktop/GD32VW553/GD32VW55X_Wifi_BLE_SDK/GD32VW55x_RELEASE_V1.0.2/MSDK/app\iperf3_main.c ****                 break;
 124:C:/Users/stapi/OneDrive/Desktop/GD32VW553/GD32VW55X_Wifi_BLE_SDK/GD32VW55x_RELEASE_V1.0.2/MSDK/app\iperf3_main.c ****         }
 125:C:/Users/stapi/OneDrive/Desktop/GD32VW553/GD32VW55X_Wifi_BLE_SDK/GD32VW55x_RELEASE_V1.0.2/MSDK/app\iperf3_main.c **** 
 126:C:/Users/stapi/OneDrive/Desktop/GD32VW553/GD32VW55X_Wifi_BLE_SDK/GD32VW55x_RELEASE_V1.0.2/MSDK/app\iperf3_main.c ****         break;
 127:C:/Users/stapi/OneDrive/Desktop/GD32VW553/GD32VW55X_Wifi_BLE_SDK/GD32VW55x_RELEASE_V1.0.2/MSDK/app\iperf3_main.c ****     case 'c':
 128:C:/Users/stapi/OneDrive/Desktop/GD32VW553/GD32VW55X_Wifi_BLE_SDK/GD32VW55x_RELEASE_V1.0.2/MSDK/app\iperf3_main.c ****         if (iperf_run_client(test) < 0) {
 129:C:/Users/stapi/OneDrive/Desktop/GD32VW553/GD32VW55X_Wifi_BLE_SDK/GD32VW55x_RELEASE_V1.0.2/MSDK/app\iperf3_main.c ****             iperf_err(test, "error - %s", iperf_strerror(i_errno));
 130:C:/Users/stapi/OneDrive/Desktop/GD32VW553/GD32VW55X_Wifi_BLE_SDK/GD32VW55x_RELEASE_V1.0.2/MSDK/app\iperf3_main.c ****             return (-1);
 131:C:/Users/stapi/OneDrive/Desktop/GD32VW553/GD32VW55X_Wifi_BLE_SDK/GD32VW55x_RELEASE_V1.0.2/MSDK/app\iperf3_main.c ****         }
 132:C:/Users/stapi/OneDrive/Desktop/GD32VW553/GD32VW55X_Wifi_BLE_SDK/GD32VW55x_RELEASE_V1.0.2/MSDK/app\iperf3_main.c ****         break;
 133:C:/Users/stapi/OneDrive/Desktop/GD32VW553/GD32VW55X_Wifi_BLE_SDK/GD32VW55x_RELEASE_V1.0.2/MSDK/app\iperf3_main.c ****     default:
 134:C:/Users/stapi/OneDrive/Desktop/GD32VW553/GD32VW55X_Wifi_BLE_SDK/GD32VW55x_RELEASE_V1.0.2/MSDK/app\iperf3_main.c ****         usage();
 135:C:/Users/stapi/OneDrive/Desktop/GD32VW553/GD32VW55X_Wifi_BLE_SDK/GD32VW55x_RELEASE_V1.0.2/MSDK/app\iperf3_main.c ****         break;
 136:C:/Users/stapi/OneDrive/Desktop/GD32VW553/GD32VW55X_Wifi_BLE_SDK/GD32VW55x_RELEASE_V1.0.2/MSDK/app\iperf3_main.c ****     }
 137:C:/Users/stapi/OneDrive/Desktop/GD32VW553/GD32VW55X_Wifi_BLE_SDK/GD32VW55x_RELEASE_V1.0.2/MSDK/app\iperf3_main.c **** 
 138:C:/Users/stapi/OneDrive/Desktop/GD32VW553/GD32VW55X_Wifi_BLE_SDK/GD32VW55x_RELEASE_V1.0.2/MSDK/app\iperf3_main.c ****     return 0;
 139:C:/Users/stapi/OneDrive/Desktop/GD32VW553/GD32VW55X_Wifi_BLE_SDK/GD32VW55x_RELEASE_V1.0.2/MSDK/app\iperf3_main.c **** }
 140:C:/Users/stapi/OneDrive/Desktop/GD32VW553/GD32VW55X_Wifi_BLE_SDK/GD32VW55x_RELEASE_V1.0.2/MSDK/app\iperf3_main.c **** 
 141:C:/Users/stapi/OneDrive/Desktop/GD32VW553/GD32VW55X_Wifi_BLE_SDK/GD32VW55x_RELEASE_V1.0.2/MSDK/app\iperf3_main.c **** void iperf_test_task(void *param)
 142:C:/Users/stapi/OneDrive/Desktop/GD32VW553/GD32VW55X_Wifi_BLE_SDK/GD32VW55x_RELEASE_V1.0.2/MSDK/app\iperf3_main.c **** {
  26              		.loc 1 142 1
  27              		.cfi_startproc
  28              	.LVL0:
  29 0000 17030000 		call	t0,__riscv_save_7
  29      E7020300 
  30              		.cfi_offset 22, -32
  31              		.cfi_offset 21, -28
  32              		.cfi_offset 20, -24
  33              		.cfi_offset 19, -20
  34              		.cfi_offset 18, -16
  35              		.cfi_offset 9, -12
  36              		.cfi_offset 8, -8
  37              		.cfi_offset 1, -4
  38              		.cfi_def_cfa_offset 32
 143:C:/Users/stapi/OneDrive/Desktop/GD32VW553/GD32VW55X_Wifi_BLE_SDK/GD32VW55x_RELEASE_V1.0.2/MSDK/app\iperf3_main.c ****     struct iperf_test *test = (struct iperf_test *)param;
  39              		.loc 1 143 5
  40              	.LVL1:
 144:C:/Users/stapi/OneDrive/Desktop/GD32VW553/GD32VW55X_Wifi_BLE_SDK/GD32VW55x_RELEASE_V1.0.2/MSDK/app\iperf3_main.c ****     unsigned int tcb_index = test->task_tcb_index;
  41              		.loc 1 144 5
  42              	.LBB4:
  43              	.LBB5:
  95:C:/Users/stapi/OneDrive/Desktop/GD32VW553/GD32VW55X_Wifi_BLE_SDK/GD32VW55x_RELEASE_V1.0.2/MSDK/app\iperf3_main.c ****     case 's':
  44              		.loc 1 95 5 is_stmt 0
  45 0008 13073006 		li	a4,99
  46              	.LBE5:
  47              	.LBE4:
 142:C:/Users/stapi/OneDrive/Desktop/GD32VW553/GD32VW55X_Wifi_BLE_SDK/GD32VW55x_RELEASE_V1.0.2/MSDK/app\iperf3_main.c ****     struct iperf_test *test = (struct iperf_test *)param;
  48              		.loc 1 142 1
  49 000c 2A84     		mv	s0,a0
  50              		.loc 1 144 18
  51 000e 03090500 		lb	s2,0(a0)
  52              	.LVL2:
 145:C:/Users/stapi/OneDrive/Desktop/GD32VW553/GD32VW55X_Wifi_BLE_SDK/GD32VW55x_RELEASE_V1.0.2/MSDK/app\iperf3_main.c **** 
 146:C:/Users/stapi/OneDrive/Desktop/GD32VW553/GD32VW55X_Wifi_BLE_SDK/GD32VW55x_RELEASE_V1.0.2/MSDK/app\iperf3_main.c ****     SYS_SR_ALLOC();
  53              		.loc 1 146 19 is_stmt 1
 147:C:/Users/stapi/OneDrive/Desktop/GD32VW553/GD32VW55X_Wifi_BLE_SDK/GD32VW55x_RELEASE_V1.0.2/MSDK/app\iperf3_main.c **** 
 148:C:/Users/stapi/OneDrive/Desktop/GD32VW553/GD32VW55X_Wifi_BLE_SDK/GD32VW55x_RELEASE_V1.0.2/MSDK/app\iperf3_main.c ****     if (iperf_run(test) < 0) {
  54              		.loc 1 148 5
  55              	.LBB9:
  56              	.LBB6:
  93:C:/Users/stapi/OneDrive/Desktop/GD32VW553/GD32VW55X_Wifi_BLE_SDK/GD32VW55x_RELEASE_V1.0.2/MSDK/app\iperf3_main.c **** 
  57              		.loc 1 93 5
  95:C:/Users/stapi/OneDrive/Desktop/GD32VW553/GD32VW55X_Wifi_BLE_SDK/GD32VW55x_RELEASE_V1.0.2/MSDK/app\iperf3_main.c ****     case 's':
  58              		.loc 1 95 5
  95:C:/Users/stapi/OneDrive/Desktop/GD32VW553/GD32VW55X_Wifi_BLE_SDK/GD32VW55x_RELEASE_V1.0.2/MSDK/app\iperf3_main.c ****     case 's':
  59              		.loc 1 95 17 is_stmt 0
  60 0012 83071500 		lb	a5,1(a0)
  95:C:/Users/stapi/OneDrive/Desktop/GD32VW553/GD32VW55X_Wifi_BLE_SDK/GD32VW55x_RELEASE_V1.0.2/MSDK/app\iperf3_main.c ****     case 's':
  61              		.loc 1 95 5
  62 0016 638DE70E 		beq	a5,a4,.L2
  63 001a 13073007 		li	a4,115
  64 001e 6391E712 		bne	a5,a4,.L3
  65 0022 8144     		li	s1,0
 108:C:/Users/stapi/OneDrive/Desktop/GD32VW553/GD32VW55X_Wifi_BLE_SDK/GD32VW55x_RELEASE_V1.0.2/MSDK/app\iperf3_main.c ****                 break;
  66              		.loc 1 108 17
  67 0024 B7090000 		lui	s3,%hi(.LANCHOR0)
 112:C:/Users/stapi/OneDrive/Desktop/GD32VW553/GD32VW55X_Wifi_BLE_SDK/GD32VW55x_RELEASE_V1.0.2/MSDK/app\iperf3_main.c ****                 ++consecutive_errors;
  68              		.loc 1 112 17
  69 0028 370A0000 		lui	s4,%hi(i_errno)
  70 002c B70A0000 		lui	s5,%hi(.LC0)
 114:C:/Users/stapi/OneDrive/Desktop/GD32VW553/GD32VW55X_Wifi_BLE_SDK/GD32VW55x_RELEASE_V1.0.2/MSDK/app\iperf3_main.c ****                     iperf_err(test, "too many errors, exiting");
  71              		.loc 1 114 20
  72 0030 114B     		li	s6,4
  73              	.LVL3:
  74              	.L9:
 107:C:/Users/stapi/OneDrive/Desktop/GD32VW553/GD32VW55X_Wifi_BLE_SDK/GD32VW55x_RELEASE_V1.0.2/MSDK/app\iperf3_main.c ****             if (iperf_terminate) {
  75              		.loc 1 107 9 is_stmt 1
 108:C:/Users/stapi/OneDrive/Desktop/GD32VW553/GD32VW55X_Wifi_BLE_SDK/GD32VW55x_RELEASE_V1.0.2/MSDK/app\iperf3_main.c ****                 break;
  76              		.loc 1 108 13
 108:C:/Users/stapi/OneDrive/Desktop/GD32VW553/GD32VW55X_Wifi_BLE_SDK/GD32VW55x_RELEASE_V1.0.2/MSDK/app\iperf3_main.c ****                 break;
  77              		.loc 1 108 16 is_stmt 0
  78 0032 83C70900 		lbu	a5,%lo(.LANCHOR0)(s3)
  79 0036 B5EF     		bne	a5,zero,.L5
 111:C:/Users/stapi/OneDrive/Desktop/GD32VW553/GD32VW55X_Wifi_BLE_SDK/GD32VW55x_RELEASE_V1.0.2/MSDK/app\iperf3_main.c ****                 iperf_err(test, "error - %s", iperf_strerror(i_errno));
  80              		.loc 1 111 13 is_stmt 1
 111:C:/Users/stapi/OneDrive/Desktop/GD32VW553/GD32VW55X_Wifi_BLE_SDK/GD32VW55x_RELEASE_V1.0.2/MSDK/app\iperf3_main.c ****                 iperf_err(test, "error - %s", iperf_strerror(i_errno));
  81              		.loc 1 111 17 is_stmt 0
  82 0038 2285     		mv	a0,s0
  83 003a 97000000 		call	iperf_run_server
  83      E7800000 
  84              	.LVL4:
 111:C:/Users/stapi/OneDrive/Desktop/GD32VW553/GD32VW55X_Wifi_BLE_SDK/GD32VW55x_RELEASE_V1.0.2/MSDK/app\iperf3_main.c ****                 iperf_err(test, "error - %s", iperf_strerror(i_errno));
  85              		.loc 1 111 16
  86 0042 635C0504 		bge	a0,zero,.L10
 112:C:/Users/stapi/OneDrive/Desktop/GD32VW553/GD32VW55X_Wifi_BLE_SDK/GD32VW55x_RELEASE_V1.0.2/MSDK/app\iperf3_main.c ****                 ++consecutive_errors;
  87              		.loc 1 112 17 is_stmt 1
 112:C:/Users/stapi/OneDrive/Desktop/GD32VW553/GD32VW55X_Wifi_BLE_SDK/GD32VW55x_RELEASE_V1.0.2/MSDK/app\iperf3_main.c ****                 ++consecutive_errors;
  88              		.loc 1 112 17
  89 0046 03250A00 		lw	a0,%lo(i_errno)(s4)
 113:C:/Users/stapi/OneDrive/Desktop/GD32VW553/GD32VW55X_Wifi_BLE_SDK/GD32VW55x_RELEASE_V1.0.2/MSDK/app\iperf3_main.c ****                 if (consecutive_errors >= 5) {
  90              		.loc 1 113 17 is_stmt 0
  91 004a 8504     		addi	s1,s1,1
  92              	.LVL5:
 112:C:/Users/stapi/OneDrive/Desktop/GD32VW553/GD32VW55X_Wifi_BLE_SDK/GD32VW55x_RELEASE_V1.0.2/MSDK/app\iperf3_main.c ****                 ++consecutive_errors;
  93              		.loc 1 112 17
  94 004c 97000000 		call	iperf_strerror
  94      E7800000 
  95              	.LVL6:
  96 0054 AA85     		mv	a1,a0
  97 0056 13850A00 		addi	a0,s5,%lo(.LC0)
  98 005a 97000000 		call	co_printf
  98      E7800000 
  99              	.LVL7:
 112:C:/Users/stapi/OneDrive/Desktop/GD32VW553/GD32VW55X_Wifi_BLE_SDK/GD32VW55x_RELEASE_V1.0.2/MSDK/app\iperf3_main.c ****                 ++consecutive_errors;
 100              		.loc 1 112 17 is_stmt 1
 112:C:/Users/stapi/OneDrive/Desktop/GD32VW553/GD32VW55X_Wifi_BLE_SDK/GD32VW55x_RELEASE_V1.0.2/MSDK/app\iperf3_main.c ****                 ++consecutive_errors;
 101              		.loc 1 112 71
 113:C:/Users/stapi/OneDrive/Desktop/GD32VW553/GD32VW55X_Wifi_BLE_SDK/GD32VW55x_RELEASE_V1.0.2/MSDK/app\iperf3_main.c ****                 if (consecutive_errors >= 5) {
 102              		.loc 1 113 17
 114:C:/Users/stapi/OneDrive/Desktop/GD32VW553/GD32VW55X_Wifi_BLE_SDK/GD32VW55x_RELEASE_V1.0.2/MSDK/app\iperf3_main.c ****                     iperf_err(test, "too many errors, exiting");
 103              		.loc 1 114 17
 114:C:/Users/stapi/OneDrive/Desktop/GD32VW553/GD32VW55X_Wifi_BLE_SDK/GD32VW55x_RELEASE_V1.0.2/MSDK/app\iperf3_main.c ****                     iperf_err(test, "too many errors, exiting");
 104              		.loc 1 114 20 is_stmt 0
 105 0062 635D9B02 		ble	s1,s6,.L6
 115:C:/Users/stapi/OneDrive/Desktop/GD32VW553/GD32VW55X_Wifi_BLE_SDK/GD32VW55x_RELEASE_V1.0.2/MSDK/app\iperf3_main.c ****                     return (-1);
 106              		.loc 1 115 21 is_stmt 1
 115:C:/Users/stapi/OneDrive/Desktop/GD32VW553/GD32VW55X_Wifi_BLE_SDK/GD32VW55x_RELEASE_V1.0.2/MSDK/app\iperf3_main.c ****                     return (-1);
 107              		.loc 1 115 21
 108 0066 37050000 		lui	a0,%hi(.LC1)
 109 006a 13050500 		addi	a0,a0,%lo(.LC1)
 110 006e 97000000 		call	co_printf
 110      E7800000 
 111              	.LVL8:
 115:C:/Users/stapi/OneDrive/Desktop/GD32VW553/GD32VW55X_Wifi_BLE_SDK/GD32VW55x_RELEASE_V1.0.2/MSDK/app\iperf3_main.c ****                     return (-1);
 112              		.loc 1 115 21
 115:C:/Users/stapi/OneDrive/Desktop/GD32VW553/GD32VW55X_Wifi_BLE_SDK/GD32VW55x_RELEASE_V1.0.2/MSDK/app\iperf3_main.c ****                     return (-1);
 113              		.loc 1 115 64
 116:C:/Users/stapi/OneDrive/Desktop/GD32VW553/GD32VW55X_Wifi_BLE_SDK/GD32VW55x_RELEASE_V1.0.2/MSDK/app\iperf3_main.c ****                 }
 114              		.loc 1 116 21
 115              	.L7:
 116              	.LBE6:
 117              	.LBE9:
 149:C:/Users/stapi/OneDrive/Desktop/GD32VW553/GD32VW55X_Wifi_BLE_SDK/GD32VW55x_RELEASE_V1.0.2/MSDK/app\iperf3_main.c ****         iperf_err(test, "error - %s", iperf_strerror(i_errno));
 118              		.loc 1 149 9
 119              		.loc 1 149 9
 120 0076 B7070000 		lui	a5,%hi(i_errno)
 121 007a 03A50700 		lw	a0,%lo(i_errno)(a5)
 122 007e 97000000 		call	iperf_strerror
 122      E7800000 
 123              	.LVL9:
 124 0086 AA85     		mv	a1,a0
 125 0088 37050000 		lui	a0,%hi(.LC0)
 126 008c 13050500 		addi	a0,a0,%lo(.LC0)
 127 0090 97000000 		call	co_printf
 127      E7800000 
 128              	.LVL10:
 129 0098 29A8     		j	.L5
 130              	.LVL11:
 131              	.L10:
 132              	.LBB10:
 133              	.LBB7:
 119:C:/Users/stapi/OneDrive/Desktop/GD32VW553/GD32VW55X_Wifi_BLE_SDK/GD32VW55x_RELEASE_V1.0.2/MSDK/app\iperf3_main.c ****             }
 134              		.loc 1 119 36 is_stmt 0
 135 009a 8144     		li	s1,0
 136              	.LVL12:
 137              	.L6:
 121:C:/Users/stapi/OneDrive/Desktop/GD32VW553/GD32VW55X_Wifi_BLE_SDK/GD32VW55x_RELEASE_V1.0.2/MSDK/app\iperf3_main.c ****             if (iperf_get_test_one_off(test))
 138              		.loc 1 121 13 is_stmt 1
 139 009c 2285     		mv	a0,s0
 140 009e 97000000 		call	iperf_reset_test
 140      E7800000 
 141              	.LVL13:
 122:C:/Users/stapi/OneDrive/Desktop/GD32VW553/GD32VW55X_Wifi_BLE_SDK/GD32VW55x_RELEASE_V1.0.2/MSDK/app\iperf3_main.c ****                 break;
 142              		.loc 1 122 13
 122:C:/Users/stapi/OneDrive/Desktop/GD32VW553/GD32VW55X_Wifi_BLE_SDK/GD32VW55x_RELEASE_V1.0.2/MSDK/app\iperf3_main.c ****                 break;
 143              		.loc 1 122 17 is_stmt 0
 144 00a6 2285     		mv	a0,s0
 145 00a8 97000000 		call	iperf_get_test_one_off
 145      E7800000 
 146              	.LVL14:
 122:C:/Users/stapi/OneDrive/Desktop/GD32VW553/GD32VW55X_Wifi_BLE_SDK/GD32VW55x_RELEASE_V1.0.2/MSDK/app\iperf3_main.c ****                 break;
 147              		.loc 1 122 16
 148 00b0 49D1     		beq	a0,zero,.L9
 149              	.LVL15:
 150              	.L5:
 151              	.LBE7:
 152              	.LBE10:
 153              		.loc 1 149 9 is_stmt 1 discriminator 1
 154              		.loc 1 149 63 discriminator 1
 150:C:/Users/stapi/OneDrive/Desktop/GD32VW553/GD32VW55X_Wifi_BLE_SDK/GD32VW55x_RELEASE_V1.0.2/MSDK/app\iperf3_main.c ****         // iperf_free_test(test);
 151:C:/Users/stapi/OneDrive/Desktop/GD32VW553/GD32VW55X_Wifi_BLE_SDK/GD32VW55x_RELEASE_V1.0.2/MSDK/app\iperf3_main.c ****         // return;
 152:C:/Users/stapi/OneDrive/Desktop/GD32VW553/GD32VW55X_Wifi_BLE_SDK/GD32VW55x_RELEASE_V1.0.2/MSDK/app\iperf3_main.c ****     }
 153:C:/Users/stapi/OneDrive/Desktop/GD32VW553/GD32VW55X_Wifi_BLE_SDK/GD32VW55x_RELEASE_V1.0.2/MSDK/app\iperf3_main.c **** 
 154:C:/Users/stapi/OneDrive/Desktop/GD32VW553/GD32VW55X_Wifi_BLE_SDK/GD32VW55x_RELEASE_V1.0.2/MSDK/app\iperf3_main.c ****     iperf_free_test(test);
 155              		.loc 1 154 5 discriminator 1
 156 00b2 2285     		mv	a0,s0
 157 00b4 97000000 		call	iperf_free_test
 157      E7800000 
 158              	.LVL16:
 155:C:/Users/stapi/OneDrive/Desktop/GD32VW553/GD32VW55X_Wifi_BLE_SDK/GD32VW55x_RELEASE_V1.0.2/MSDK/app\iperf3_main.c **** 
 156:C:/Users/stapi/OneDrive/Desktop/GD32VW553/GD32VW55X_Wifi_BLE_SDK/GD32VW55x_RELEASE_V1.0.2/MSDK/app\iperf3_main.c ****     //app_print("\r\niperf3 task: used stack = %d, free stack = %d\r\n",
 157:C:/Users/stapi/OneDrive/Desktop/GD32VW553/GD32VW55X_Wifi_BLE_SDK/GD32VW55x_RELEASE_V1.0.2/MSDK/app\iperf3_main.c ****     //            (IPERF3_STACK_SIZE - sys_stack_free_get(NULL)), sys_stack_free_get(NULL));
 158:C:/Users/stapi/OneDrive/Desktop/GD32VW553/GD32VW55X_Wifi_BLE_SDK/GD32VW55x_RELEASE_V1.0.2/MSDK/app\iperf3_main.c **** 
 159:C:/Users/stapi/OneDrive/Desktop/GD32VW553/GD32VW55X_Wifi_BLE_SDK/GD32VW55x_RELEASE_V1.0.2/MSDK/app\iperf3_main.c ****     app_print("Iperf3 task stopped!\r\n");
 159              		.loc 1 159 5 discriminator 1
 160 00bc 37050000 		lui	a0,%hi(.LC2)
 161 00c0 13050500 		addi	a0,a0,%lo(.LC2)
 162 00c4 97000000 		call	co_printf
 162      E7800000 
 163              	.LVL17:
 160:C:/Users/stapi/OneDrive/Desktop/GD32VW553/GD32VW55X_Wifi_BLE_SDK/GD32VW55x_RELEASE_V1.0.2/MSDK/app\iperf3_main.c **** 
 161:C:/Users/stapi/OneDrive/Desktop/GD32VW553/GD32VW55X_Wifi_BLE_SDK/GD32VW55x_RELEASE_V1.0.2/MSDK/app\iperf3_main.c ****     sys_enter_critical();
 164              		.loc 1 161 5 discriminator 1
 165 00cc 97000000 		call	sys_enter_critical
 165      E7800000 
 166              	.LVL18:
 162:C:/Users/stapi/OneDrive/Desktop/GD32VW553/GD32VW55X_Wifi_BLE_SDK/GD32VW55x_RELEASE_V1.0.2/MSDK/app\iperf3_main.c ****     iperf_task_tcb_ptr[tcb_index] = NULL;
 167              		.loc 1 162 5 discriminator 1
 168              		.loc 1 162 35 is_stmt 0 discriminator 1
 169 00d4 B7070000 		lui	a5,%hi(.LANCHOR1)
 170 00d8 93870700 		addi	a5,a5,%lo(.LANCHOR1)
 171 00dc 3349F920 		sh2add	s2,s2,a5
 172              	.LVL19:
 163:C:/Users/stapi/OneDrive/Desktop/GD32VW553/GD32VW55X_Wifi_BLE_SDK/GD32VW55x_RELEASE_V1.0.2/MSDK/app\iperf3_main.c ****     iperf_task_num--;
 173              		.loc 1 163 19 discriminator 1
 174 00e0 B7070000 		lui	a5,%hi(.LANCHOR2)
 175 00e4 93870700 		addi	a5,a5,%lo(.LANCHOR2)
 176 00e8 03C70700 		lbu	a4,0(a5)
 162:C:/Users/stapi/OneDrive/Desktop/GD32VW553/GD32VW55X_Wifi_BLE_SDK/GD32VW55x_RELEASE_V1.0.2/MSDK/app\iperf3_main.c ****     iperf_task_tcb_ptr[tcb_index] = NULL;
 177              		.loc 1 162 35 discriminator 1
 178 00ec 23200900 		sw	zero,0(s2)
 179              		.loc 1 163 5 is_stmt 1 discriminator 1
 180              		.loc 1 163 19 is_stmt 0 discriminator 1
 181 00f0 7D17     		addi	a4,a4,-1
 182 00f2 2380E700 		sb	a4,0(a5)
 164:C:/Users/stapi/OneDrive/Desktop/GD32VW553/GD32VW55X_Wifi_BLE_SDK/GD32VW55x_RELEASE_V1.0.2/MSDK/app\iperf3_main.c ****     sys_exit_critical();
 183              		.loc 1 164 5 is_stmt 1 discriminator 1
 184 00f6 97000000 		call	sys_exit_critical
 184      E7800000 
 185              	.LVL20:
 165:C:/Users/stapi/OneDrive/Desktop/GD32VW553/GD32VW55X_Wifi_BLE_SDK/GD32VW55x_RELEASE_V1.0.2/MSDK/app\iperf3_main.c **** 
 166:C:/Users/stapi/OneDrive/Desktop/GD32VW553/GD32VW55X_Wifi_BLE_SDK/GD32VW55x_RELEASE_V1.0.2/MSDK/app\iperf3_main.c ****     sys_task_delete(NULL);
 186              		.loc 1 166 5 discriminator 1
 187 00fe 0145     		li	a0,0
 188 0100 97000000 		call	sys_task_delete
 188      E7800000 
 189              	.LVL21:
 167:C:/Users/stapi/OneDrive/Desktop/GD32VW553/GD32VW55X_Wifi_BLE_SDK/GD32VW55x_RELEASE_V1.0.2/MSDK/app\iperf3_main.c **** }
 190              		.loc 1 167 1 is_stmt 0 discriminator 1
 191 0108 17030000 		tail	__riscv_restore_7
 191      67000300 
 192              		.cfi_remember_state
 193              		.cfi_restore 22
 194              		.cfi_restore 21
 195              		.cfi_restore 20
 196              		.cfi_restore 19
 197              		.cfi_restore 18
 198              		.cfi_restore 9
 199              		.cfi_restore 8
 200              		.cfi_restore 1
 201              		.cfi_def_cfa_offset 0
 202              	.LVL22:
 203              	.L2:
 204              		.cfi_restore_state
 205              	.LBB11:
 206              	.LBB8:
 128:C:/Users/stapi/OneDrive/Desktop/GD32VW553/GD32VW55X_Wifi_BLE_SDK/GD32VW55x_RELEASE_V1.0.2/MSDK/app\iperf3_main.c ****             iperf_err(test, "error - %s", iperf_strerror(i_errno));
 207              		.loc 1 128 9 is_stmt 1
 128:C:/Users/stapi/OneDrive/Desktop/GD32VW553/GD32VW55X_Wifi_BLE_SDK/GD32VW55x_RELEASE_V1.0.2/MSDK/app\iperf3_main.c ****             iperf_err(test, "error - %s", iperf_strerror(i_errno));
 208              		.loc 1 128 13 is_stmt 0
 209 0110 97000000 		call	iperf_run_client
 209      E7800000 
 210              	.LVL23:
 128:C:/Users/stapi/OneDrive/Desktop/GD32VW553/GD32VW55X_Wifi_BLE_SDK/GD32VW55x_RELEASE_V1.0.2/MSDK/app\iperf3_main.c ****             iperf_err(test, "error - %s", iperf_strerror(i_errno));
 211              		.loc 1 128 12
 212 0118 E35D05F8 		bge	a0,zero,.L5
 129:C:/Users/stapi/OneDrive/Desktop/GD32VW553/GD32VW55X_Wifi_BLE_SDK/GD32VW55x_RELEASE_V1.0.2/MSDK/app\iperf3_main.c ****             return (-1);
 213              		.loc 1 129 13 is_stmt 1
 129:C:/Users/stapi/OneDrive/Desktop/GD32VW553/GD32VW55X_Wifi_BLE_SDK/GD32VW55x_RELEASE_V1.0.2/MSDK/app\iperf3_main.c ****             return (-1);
 214              		.loc 1 129 13
 215 011c B7070000 		lui	a5,%hi(i_errno)
 216 0120 03A50700 		lw	a0,%lo(i_errno)(a5)
 217 0124 97000000 		call	iperf_strerror
 217      E7800000 
 218              	.LVL24:
 219 012c AA85     		mv	a1,a0
 220 012e 37050000 		lui	a0,%hi(.LC0)
 221 0132 13050500 		addi	a0,a0,%lo(.LC0)
 222 0136 97000000 		call	co_printf
 222      E7800000 
 223              	.LVL25:
 129:C:/Users/stapi/OneDrive/Desktop/GD32VW553/GD32VW55X_Wifi_BLE_SDK/GD32VW55x_RELEASE_V1.0.2/MSDK/app\iperf3_main.c ****             return (-1);
 224              		.loc 1 129 13
 129:C:/Users/stapi/OneDrive/Desktop/GD32VW553/GD32VW55X_Wifi_BLE_SDK/GD32VW55x_RELEASE_V1.0.2/MSDK/app\iperf3_main.c ****             return (-1);
 225              		.loc 1 129 67
 130:C:/Users/stapi/OneDrive/Desktop/GD32VW553/GD32VW55X_Wifi_BLE_SDK/GD32VW55x_RELEASE_V1.0.2/MSDK/app\iperf3_main.c ****         }
 226              		.loc 1 130 13
 227 013e 25BF     		j	.L7
 228              	.LVL26:
 229              	.L3:
 134:C:/Users/stapi/OneDrive/Desktop/GD32VW553/GD32VW55X_Wifi_BLE_SDK/GD32VW55x_RELEASE_V1.0.2/MSDK/app\iperf3_main.c ****         break;
 230              		.loc 1 134 9
 231 0140 97000000 		call	usage
 231      E7800000 
 232              	.LVL27:
 135:C:/Users/stapi/OneDrive/Desktop/GD32VW553/GD32VW55X_Wifi_BLE_SDK/GD32VW55x_RELEASE_V1.0.2/MSDK/app\iperf3_main.c ****     }
 233              		.loc 1 135 9
 234 0148 ADB7     		j	.L5
 235              	.LBE8:
 236              	.LBE11:
 237              		.cfi_endproc
 238              	.LFE14:
 240              		.section	.rodata.iperf3_main.str1.4,"aMS",@progbits,1
 241              		.align	2
 242              	.LC3:
 243 0000 0D0A6372 		.string	"\r\ncreate new test error - %s"
 243      65617465 
 243      206E6577 
 243      20746573 
 243      74206572 
 244 001d 000000   		.align	2
 245              	.LC4:
 246 0020 0D0A7061 		.string	"\r\nparameter error - %s"
 246      72616D65 
 246      74657220 
 246      6572726F 
 246      72202D20 
 247 0037 00       		.align	2
 248              	.LC5:
 249 0038 0D0A0D45 		.string	"\r\n\rERROR: can not find available iperf3 task tcb."
 249      52524F52 
 249      3A206361 
 249      6E206E6F 
 249      74206669 
 250 006a 0000     		.align	2
 251              	.LC6:
 252 006c 69706572 		.string	"iperf3"
 252      663300
 253 0073 00       		.align	2
 254              	.LC7:
 255 0074 0D0A0D45 		.string	"\r\n\rERROR: create iperf3 task failed."
 255      52524F52 
 255      3A206372 
 255      65617465 
 255      20697065 
 256              		.section	.text.iperf3_main,"ax",@progbits
 257              		.align	1
 258              		.globl	iperf3_main
 260              	iperf3_main:
 261              	.LFB15:
 168:C:/Users/stapi/OneDrive/Desktop/GD32VW553/GD32VW55X_Wifi_BLE_SDK/GD32VW55x_RELEASE_V1.0.2/MSDK/app\iperf3_main.c **** 
 169:C:/Users/stapi/OneDrive/Desktop/GD32VW553/GD32VW55X_Wifi_BLE_SDK/GD32VW55x_RELEASE_V1.0.2/MSDK/app\iperf3_main.c **** /**************************************************************************/
 170:C:/Users/stapi/OneDrive/Desktop/GD32VW553/GD32VW55X_Wifi_BLE_SDK/GD32VW55x_RELEASE_V1.0.2/MSDK/app\iperf3_main.c **** int iperf3_main(int argc, char **argv)
 171:C:/Users/stapi/OneDrive/Desktop/GD32VW553/GD32VW55X_Wifi_BLE_SDK/GD32VW55x_RELEASE_V1.0.2/MSDK/app\iperf3_main.c **** {
 262              		.loc 1 171 1
 263              		.cfi_startproc
 264              	.LVL28:
 265 0000 17030000 		call	t0,__riscv_save_5
 265      E7020300 
 266              		.cfi_offset 20, -24
 267              		.cfi_offset 19, -20
 268              		.cfi_offset 18, -16
 269              		.cfi_offset 9, -12
 270              		.cfi_offset 8, -8
 271              		.cfi_offset 1, -4
 272              		.cfi_def_cfa_offset 32
 172:C:/Users/stapi/OneDrive/Desktop/GD32VW553/GD32VW55X_Wifi_BLE_SDK/GD32VW55x_RELEASE_V1.0.2/MSDK/app\iperf3_main.c ****     struct iperf_test *test;
 273              		.loc 1 172 5
 173:C:/Users/stapi/OneDrive/Desktop/GD32VW553/GD32VW55X_Wifi_BLE_SDK/GD32VW55x_RELEASE_V1.0.2/MSDK/app\iperf3_main.c ****     unsigned int i;
 274              		.loc 1 173 5
 174:C:/Users/stapi/OneDrive/Desktop/GD32VW553/GD32VW55X_Wifi_BLE_SDK/GD32VW55x_RELEASE_V1.0.2/MSDK/app\iperf3_main.c ****     unsigned int task_priority;
 275              		.loc 1 174 5
 175:C:/Users/stapi/OneDrive/Desktop/GD32VW553/GD32VW55X_Wifi_BLE_SDK/GD32VW55x_RELEASE_V1.0.2/MSDK/app\iperf3_main.c ****     void *handle;
 276              		.loc 1 175 5
 176:C:/Users/stapi/OneDrive/Desktop/GD32VW553/GD32VW55X_Wifi_BLE_SDK/GD32VW55x_RELEASE_V1.0.2/MSDK/app\iperf3_main.c ****     SYS_SR_ALLOC();
 277              		.loc 1 176 19
 177:C:/Users/stapi/OneDrive/Desktop/GD32VW553/GD32VW55X_Wifi_BLE_SDK/GD32VW55x_RELEASE_V1.0.2/MSDK/app\iperf3_main.c **** 
 178:C:/Users/stapi/OneDrive/Desktop/GD32VW553/GD32VW55X_Wifi_BLE_SDK/GD32VW55x_RELEASE_V1.0.2/MSDK/app\iperf3_main.c ****     iperf_terminate = 0;
 278              		.loc 1 178 5
 171:C:/Users/stapi/OneDrive/Desktop/GD32VW553/GD32VW55X_Wifi_BLE_SDK/GD32VW55x_RELEASE_V1.0.2/MSDK/app\iperf3_main.c ****     struct iperf_test *test;
 279              		.loc 1 171 1 is_stmt 0
 280 0008 4111     		addi	sp,sp,-16
 281              		.cfi_def_cfa_offset 48
 282              		.loc 1 178 21
 283 000a B7070000 		lui	a5,%hi(.LANCHOR0)
 171:C:/Users/stapi/OneDrive/Desktop/GD32VW553/GD32VW55X_Wifi_BLE_SDK/GD32VW55x_RELEASE_V1.0.2/MSDK/app\iperf3_main.c ****     struct iperf_test *test;
 284              		.loc 1 171 1
 285 000e AA84     		mv	s1,a0
 286 0010 2E89     		mv	s2,a1
 287              		.loc 1 178 21
 288 0012 23800700 		sb	zero,%lo(.LANCHOR0)(a5)
 179:C:/Users/stapi/OneDrive/Desktop/GD32VW553/GD32VW55X_Wifi_BLE_SDK/GD32VW55x_RELEASE_V1.0.2/MSDK/app\iperf3_main.c ****     test = iperf_new_test();
 289              		.loc 1 179 5 is_stmt 1
 290              		.loc 1 179 12 is_stmt 0
 291 0016 97000000 		call	iperf_new_test
 291      E7800000 
 292              	.LVL29:
 180:C:/Users/stapi/OneDrive/Desktop/GD32VW553/GD32VW55X_Wifi_BLE_SDK/GD32VW55x_RELEASE_V1.0.2/MSDK/app\iperf3_main.c ****     if (!test) {
 293              		.loc 1 180 5 is_stmt 1
 294              		.loc 1 180 8 is_stmt 0
 295 001e 05E9     		bne	a0,zero,.L13
 181:C:/Users/stapi/OneDrive/Desktop/GD32VW553/GD32VW55X_Wifi_BLE_SDK/GD32VW55x_RELEASE_V1.0.2/MSDK/app\iperf3_main.c ****         iperf_err(NULL, "create new test error - %s", iperf_strerror(i_errno));
 296              		.loc 1 181 9 is_stmt 1
 297              		.loc 1 181 9
 298 0020 B7070000 		lui	a5,%hi(i_errno)
 299 0024 03A50700 		lw	a0,%lo(i_errno)(a5)
 300              	.LVL30:
 301 0028 97000000 		call	iperf_strerror
 301      E7800000 
 302              	.LVL31:
 303 0030 AA85     		mv	a1,a0
 304 0032 37050000 		lui	a0,%hi(.LC3)
 305 0036 13050500 		addi	a0,a0,%lo(.LC3)
 306 003a 97000000 		call	co_printf
 306      E7800000 
 307              	.LVL32:
 308              		.loc 1 181 9
 309              		.loc 1 181 79
 182:C:/Users/stapi/OneDrive/Desktop/GD32VW553/GD32VW55X_Wifi_BLE_SDK/GD32VW55x_RELEASE_V1.0.2/MSDK/app\iperf3_main.c ****         return (-1);
 310              		.loc 1 182 9
 311              	.L22:
 183:C:/Users/stapi/OneDrive/Desktop/GD32VW553/GD32VW55X_Wifi_BLE_SDK/GD32VW55x_RELEASE_V1.0.2/MSDK/app\iperf3_main.c ****     }
 184:C:/Users/stapi/OneDrive/Desktop/GD32VW553/GD32VW55X_Wifi_BLE_SDK/GD32VW55x_RELEASE_V1.0.2/MSDK/app\iperf3_main.c **** 
 185:C:/Users/stapi/OneDrive/Desktop/GD32VW553/GD32VW55X_Wifi_BLE_SDK/GD32VW55x_RELEASE_V1.0.2/MSDK/app\iperf3_main.c ****     iperf_defaults(test);    /* sets defaults */
 186:C:/Users/stapi/OneDrive/Desktop/GD32VW553/GD32VW55X_Wifi_BLE_SDK/GD32VW55x_RELEASE_V1.0.2/MSDK/app\iperf3_main.c **** 
 187:C:/Users/stapi/OneDrive/Desktop/GD32VW553/GD32VW55X_Wifi_BLE_SDK/GD32VW55x_RELEASE_V1.0.2/MSDK/app\iperf3_main.c ****     if (iperf_parse_arguments(test, argc, argv) < 0) {
 188:C:/Users/stapi/OneDrive/Desktop/GD32VW553/GD32VW55X_Wifi_BLE_SDK/GD32VW55x_RELEASE_V1.0.2/MSDK/app\iperf3_main.c ****         iperf_err(test, "parameter error - %s", iperf_strerror(i_errno));
 189:C:/Users/stapi/OneDrive/Desktop/GD32VW553/GD32VW55X_Wifi_BLE_SDK/GD32VW55x_RELEASE_V1.0.2/MSDK/app\iperf3_main.c ****         //usage_long();
 190:C:/Users/stapi/OneDrive/Desktop/GD32VW553/GD32VW55X_Wifi_BLE_SDK/GD32VW55x_RELEASE_V1.0.2/MSDK/app\iperf3_main.c ****         usage();
 191:C:/Users/stapi/OneDrive/Desktop/GD32VW553/GD32VW55X_Wifi_BLE_SDK/GD32VW55x_RELEASE_V1.0.2/MSDK/app\iperf3_main.c ****         gnu_getopt_reset();
 192:C:/Users/stapi/OneDrive/Desktop/GD32VW553/GD32VW55X_Wifi_BLE_SDK/GD32VW55x_RELEASE_V1.0.2/MSDK/app\iperf3_main.c ****         iperf_free_test(test);
 193:C:/Users/stapi/OneDrive/Desktop/GD32VW553/GD32VW55X_Wifi_BLE_SDK/GD32VW55x_RELEASE_V1.0.2/MSDK/app\iperf3_main.c ****         return (-1);
 194:C:/Users/stapi/OneDrive/Desktop/GD32VW553/GD32VW55X_Wifi_BLE_SDK/GD32VW55x_RELEASE_V1.0.2/MSDK/app\iperf3_main.c ****     }
 195:C:/Users/stapi/OneDrive/Desktop/GD32VW553/GD32VW55X_Wifi_BLE_SDK/GD32VW55x_RELEASE_V1.0.2/MSDK/app\iperf3_main.c **** 
 196:C:/Users/stapi/OneDrive/Desktop/GD32VW553/GD32VW55X_Wifi_BLE_SDK/GD32VW55x_RELEASE_V1.0.2/MSDK/app\iperf3_main.c ****     gnu_getopt_reset();
 197:C:/Users/stapi/OneDrive/Desktop/GD32VW553/GD32VW55X_Wifi_BLE_SDK/GD32VW55x_RELEASE_V1.0.2/MSDK/app\iperf3_main.c **** 
 198:C:/Users/stapi/OneDrive/Desktop/GD32VW553/GD32VW55X_Wifi_BLE_SDK/GD32VW55x_RELEASE_V1.0.2/MSDK/app\iperf3_main.c ****     if (((test->role == 'c') || (test->role == 's')) && (iperf_task_num < IPERF_TASK_MAX)) {
 199:C:/Users/stapi/OneDrive/Desktop/GD32VW553/GD32VW55X_Wifi_BLE_SDK/GD32VW55x_RELEASE_V1.0.2/MSDK/app\iperf3_main.c **** 
 200:C:/Users/stapi/OneDrive/Desktop/GD32VW553/GD32VW55X_Wifi_BLE_SDK/GD32VW55x_RELEASE_V1.0.2/MSDK/app\iperf3_main.c ****         for ( i = 0; i < IPERF_TASK_MAX; i++) {
 201:C:/Users/stapi/OneDrive/Desktop/GD32VW553/GD32VW55X_Wifi_BLE_SDK/GD32VW55x_RELEASE_V1.0.2/MSDK/app\iperf3_main.c ****             if (iperf_task_tcb_ptr[i] == NULL) {
 202:C:/Users/stapi/OneDrive/Desktop/GD32VW553/GD32VW55X_Wifi_BLE_SDK/GD32VW55x_RELEASE_V1.0.2/MSDK/app\iperf3_main.c ****                 test->task_tcb_index = i;
 203:C:/Users/stapi/OneDrive/Desktop/GD32VW553/GD32VW55X_Wifi_BLE_SDK/GD32VW55x_RELEASE_V1.0.2/MSDK/app\iperf3_main.c ****                 break;
 204:C:/Users/stapi/OneDrive/Desktop/GD32VW553/GD32VW55X_Wifi_BLE_SDK/GD32VW55x_RELEASE_V1.0.2/MSDK/app\iperf3_main.c ****             }
 205:C:/Users/stapi/OneDrive/Desktop/GD32VW553/GD32VW55X_Wifi_BLE_SDK/GD32VW55x_RELEASE_V1.0.2/MSDK/app\iperf3_main.c ****         }
 206:C:/Users/stapi/OneDrive/Desktop/GD32VW553/GD32VW55X_Wifi_BLE_SDK/GD32VW55x_RELEASE_V1.0.2/MSDK/app\iperf3_main.c **** 
 207:C:/Users/stapi/OneDrive/Desktop/GD32VW553/GD32VW55X_Wifi_BLE_SDK/GD32VW55x_RELEASE_V1.0.2/MSDK/app\iperf3_main.c ****         if (i == IPERF_TASK_MAX) {
 208:C:/Users/stapi/OneDrive/Desktop/GD32VW553/GD32VW55X_Wifi_BLE_SDK/GD32VW55x_RELEASE_V1.0.2/MSDK/app\iperf3_main.c ****             app_print( "\r\n\rERROR: can not find available iperf3 task tcb.");
 209:C:/Users/stapi/OneDrive/Desktop/GD32VW553/GD32VW55X_Wifi_BLE_SDK/GD32VW55x_RELEASE_V1.0.2/MSDK/app\iperf3_main.c ****             iperf_free_test(test);
 210:C:/Users/stapi/OneDrive/Desktop/GD32VW553/GD32VW55X_Wifi_BLE_SDK/GD32VW55x_RELEASE_V1.0.2/MSDK/app\iperf3_main.c ****             return (-1);
 211:C:/Users/stapi/OneDrive/Desktop/GD32VW553/GD32VW55X_Wifi_BLE_SDK/GD32VW55x_RELEASE_V1.0.2/MSDK/app\iperf3_main.c ****         }
 212:C:/Users/stapi/OneDrive/Desktop/GD32VW553/GD32VW55X_Wifi_BLE_SDK/GD32VW55x_RELEASE_V1.0.2/MSDK/app\iperf3_main.c **** 
 213:C:/Users/stapi/OneDrive/Desktop/GD32VW553/GD32VW55X_Wifi_BLE_SDK/GD32VW55x_RELEASE_V1.0.2/MSDK/app\iperf3_main.c ****         task_priority = IPERF3_TASK_PRIO;
 214:C:/Users/stapi/OneDrive/Desktop/GD32VW553/GD32VW55X_Wifi_BLE_SDK/GD32VW55x_RELEASE_V1.0.2/MSDK/app\iperf3_main.c **** 
 215:C:/Users/stapi/OneDrive/Desktop/GD32VW553/GD32VW55X_Wifi_BLE_SDK/GD32VW55x_RELEASE_V1.0.2/MSDK/app\iperf3_main.c **** #if 0
 216:C:/Users/stapi/OneDrive/Desktop/GD32VW553/GD32VW55X_Wifi_BLE_SDK/GD32VW55x_RELEASE_V1.0.2/MSDK/app\iperf3_main.c ****         if (test->role == 'c') {
 217:C:/Users/stapi/OneDrive/Desktop/GD32VW553/GD32VW55X_Wifi_BLE_SDK/GD32VW55x_RELEASE_V1.0.2/MSDK/app\iperf3_main.c ****             // app_print( "\r\n\rtask priority, tos = %d", test->settings->tos);
 218:C:/Users/stapi/OneDrive/Desktop/GD32VW553/GD32VW55X_Wifi_BLE_SDK/GD32VW55x_RELEASE_V1.0.2/MSDK/app\iperf3_main.c ****             if (test->settings->tos == 0xe0) {
 219:C:/Users/stapi/OneDrive/Desktop/GD32VW553/GD32VW55X_Wifi_BLE_SDK/GD32VW55x_RELEASE_V1.0.2/MSDK/app\iperf3_main.c ****                 task_priority = IPERF3_TASK_PRIO;
 220:C:/Users/stapi/OneDrive/Desktop/GD32VW553/GD32VW55X_Wifi_BLE_SDK/GD32VW55x_RELEASE_V1.0.2/MSDK/app\iperf3_main.c ****             } else if (test->settings->tos == 0xa0) {
 221:C:/Users/stapi/OneDrive/Desktop/GD32VW553/GD32VW55X_Wifi_BLE_SDK/GD32VW55x_RELEASE_V1.0.2/MSDK/app\iperf3_main.c ****                 task_priority = IPERF3_TASK_PRIO + TASK_PRIO_LOWER(1);
 222:C:/Users/stapi/OneDrive/Desktop/GD32VW553/GD32VW55X_Wifi_BLE_SDK/GD32VW55x_RELEASE_V1.0.2/MSDK/app\iperf3_main.c ****             } else if (test->settings->tos == 0x20) {
 223:C:/Users/stapi/OneDrive/Desktop/GD32VW553/GD32VW55X_Wifi_BLE_SDK/GD32VW55x_RELEASE_V1.0.2/MSDK/app\iperf3_main.c ****                 task_priority = IPERF3_TASK_PRIO + TASK_PRIO_LOWER(2);
 224:C:/Users/stapi/OneDrive/Desktop/GD32VW553/GD32VW55X_Wifi_BLE_SDK/GD32VW55x_RELEASE_V1.0.2/MSDK/app\iperf3_main.c ****             }
 225:C:/Users/stapi/OneDrive/Desktop/GD32VW553/GD32VW55X_Wifi_BLE_SDK/GD32VW55x_RELEASE_V1.0.2/MSDK/app\iperf3_main.c ****         }
 226:C:/Users/stapi/OneDrive/Desktop/GD32VW553/GD32VW55X_Wifi_BLE_SDK/GD32VW55x_RELEASE_V1.0.2/MSDK/app\iperf3_main.c **** #endif
 227:C:/Users/stapi/OneDrive/Desktop/GD32VW553/GD32VW55X_Wifi_BLE_SDK/GD32VW55x_RELEASE_V1.0.2/MSDK/app\iperf3_main.c **** 
 228:C:/Users/stapi/OneDrive/Desktop/GD32VW553/GD32VW55X_Wifi_BLE_SDK/GD32VW55x_RELEASE_V1.0.2/MSDK/app\iperf3_main.c ****         handle = sys_task_create_dynamic((const uint8_t *)"iperf3",
 229:C:/Users/stapi/OneDrive/Desktop/GD32VW553/GD32VW55X_Wifi_BLE_SDK/GD32VW55x_RELEASE_V1.0.2/MSDK/app\iperf3_main.c ****                 IPERF3_STACK_SIZE, task_priority,
 230:C:/Users/stapi/OneDrive/Desktop/GD32VW553/GD32VW55X_Wifi_BLE_SDK/GD32VW55x_RELEASE_V1.0.2/MSDK/app\iperf3_main.c ****                 (task_func_t)iperf_test_task, test);
 231:C:/Users/stapi/OneDrive/Desktop/GD32VW553/GD32VW55X_Wifi_BLE_SDK/GD32VW55x_RELEASE_V1.0.2/MSDK/app\iperf3_main.c ****         if (handle == NULL) {
 232:C:/Users/stapi/OneDrive/Desktop/GD32VW553/GD32VW55X_Wifi_BLE_SDK/GD32VW55x_RELEASE_V1.0.2/MSDK/app\iperf3_main.c ****             app_print( "\r\n\rERROR: create iperf3 task failed.");
 233:C:/Users/stapi/OneDrive/Desktop/GD32VW553/GD32VW55X_Wifi_BLE_SDK/GD32VW55x_RELEASE_V1.0.2/MSDK/app\iperf3_main.c ****             iperf_free_test(test);
 234:C:/Users/stapi/OneDrive/Desktop/GD32VW553/GD32VW55X_Wifi_BLE_SDK/GD32VW55x_RELEASE_V1.0.2/MSDK/app\iperf3_main.c ****             return (-1);
 312              		.loc 1 234 13
 313              		.loc 1 234 20 is_stmt 0
 314 0042 7D55     		li	a0,-1
 315              	.L12:
 235:C:/Users/stapi/OneDrive/Desktop/GD32VW553/GD32VW55X_Wifi_BLE_SDK/GD32VW55x_RELEASE_V1.0.2/MSDK/app\iperf3_main.c ****         } else {
 236:C:/Users/stapi/OneDrive/Desktop/GD32VW553/GD32VW55X_Wifi_BLE_SDK/GD32VW55x_RELEASE_V1.0.2/MSDK/app\iperf3_main.c ****             sys_enter_critical();
 237:C:/Users/stapi/OneDrive/Desktop/GD32VW553/GD32VW55X_Wifi_BLE_SDK/GD32VW55x_RELEASE_V1.0.2/MSDK/app\iperf3_main.c ****             iperf_task_tcb_ptr[i] = handle;
 238:C:/Users/stapi/OneDrive/Desktop/GD32VW553/GD32VW55X_Wifi_BLE_SDK/GD32VW55x_RELEASE_V1.0.2/MSDK/app\iperf3_main.c ****             iperf_task_num++;
 239:C:/Users/stapi/OneDrive/Desktop/GD32VW553/GD32VW55X_Wifi_BLE_SDK/GD32VW55x_RELEASE_V1.0.2/MSDK/app\iperf3_main.c ****             sys_exit_critical();
 240:C:/Users/stapi/OneDrive/Desktop/GD32VW553/GD32VW55X_Wifi_BLE_SDK/GD32VW55x_RELEASE_V1.0.2/MSDK/app\iperf3_main.c ****             return 0;
 241:C:/Users/stapi/OneDrive/Desktop/GD32VW553/GD32VW55X_Wifi_BLE_SDK/GD32VW55x_RELEASE_V1.0.2/MSDK/app\iperf3_main.c ****         }
 242:C:/Users/stapi/OneDrive/Desktop/GD32VW553/GD32VW55X_Wifi_BLE_SDK/GD32VW55x_RELEASE_V1.0.2/MSDK/app\iperf3_main.c **** 
 243:C:/Users/stapi/OneDrive/Desktop/GD32VW553/GD32VW55X_Wifi_BLE_SDK/GD32VW55x_RELEASE_V1.0.2/MSDK/app\iperf3_main.c ****     } else {
 244:C:/Users/stapi/OneDrive/Desktop/GD32VW553/GD32VW55X_Wifi_BLE_SDK/GD32VW55x_RELEASE_V1.0.2/MSDK/app\iperf3_main.c ****         iperf_free_test(test);
 245:C:/Users/stapi/OneDrive/Desktop/GD32VW553/GD32VW55X_Wifi_BLE_SDK/GD32VW55x_RELEASE_V1.0.2/MSDK/app\iperf3_main.c ****         return 0;
 246:C:/Users/stapi/OneDrive/Desktop/GD32VW553/GD32VW55X_Wifi_BLE_SDK/GD32VW55x_RELEASE_V1.0.2/MSDK/app\iperf3_main.c ****     }
 247:C:/Users/stapi/OneDrive/Desktop/GD32VW553/GD32VW55X_Wifi_BLE_SDK/GD32VW55x_RELEASE_V1.0.2/MSDK/app\iperf3_main.c **** }
 316              		.loc 1 247 1
 317 0044 4101     		addi	sp,sp,16
 318              		.cfi_remember_state
 319              		.cfi_def_cfa_offset 0
 320 0046 17030000 		tail	__riscv_restore_5
 320      67000300 
 321              		.cfi_restore 20
 322              		.cfi_restore 19
 323              		.cfi_restore 18
 324              		.cfi_restore 9
 325              		.cfi_restore 8
 326              		.cfi_restore 1
 327              		.cfi_def_cfa_offset -32
 328              	.LVL33:
 329              	.L13:
 330              		.cfi_restore_state
 331 004e 2A84     		mv	s0,a0
 185:C:/Users/stapi/OneDrive/Desktop/GD32VW553/GD32VW55X_Wifi_BLE_SDK/GD32VW55x_RELEASE_V1.0.2/MSDK/app\iperf3_main.c **** 
 332              		.loc 1 185 5 is_stmt 1
 333 0050 97000000 		call	iperf_defaults
 333      E7800000 
 334              	.LVL34:
 187:C:/Users/stapi/OneDrive/Desktop/GD32VW553/GD32VW55X_Wifi_BLE_SDK/GD32VW55x_RELEASE_V1.0.2/MSDK/app\iperf3_main.c ****         iperf_err(test, "parameter error - %s", iperf_strerror(i_errno));
 335              		.loc 1 187 5
 187:C:/Users/stapi/OneDrive/Desktop/GD32VW553/GD32VW55X_Wifi_BLE_SDK/GD32VW55x_RELEASE_V1.0.2/MSDK/app\iperf3_main.c ****         iperf_err(test, "parameter error - %s", iperf_strerror(i_errno));
 336              		.loc 1 187 9 is_stmt 0
 337 0058 4A86     		mv	a2,s2
 338 005a A685     		mv	a1,s1
 339 005c 2285     		mv	a0,s0
 340 005e 97000000 		call	iperf_parse_arguments
 340      E7800000 
 341              	.LVL35:
 187:C:/Users/stapi/OneDrive/Desktop/GD32VW553/GD32VW55X_Wifi_BLE_SDK/GD32VW55x_RELEASE_V1.0.2/MSDK/app\iperf3_main.c ****         iperf_err(test, "parameter error - %s", iperf_strerror(i_errno));
 342              		.loc 1 187 8
 343 0066 63510504 		bge	a0,zero,.L15
 188:C:/Users/stapi/OneDrive/Desktop/GD32VW553/GD32VW55X_Wifi_BLE_SDK/GD32VW55x_RELEASE_V1.0.2/MSDK/app\iperf3_main.c ****         //usage_long();
 344              		.loc 1 188 9 is_stmt 1
 188:C:/Users/stapi/OneDrive/Desktop/GD32VW553/GD32VW55X_Wifi_BLE_SDK/GD32VW55x_RELEASE_V1.0.2/MSDK/app\iperf3_main.c ****         //usage_long();
 345              		.loc 1 188 9
 346 006a B7070000 		lui	a5,%hi(i_errno)
 347 006e 03A50700 		lw	a0,%lo(i_errno)(a5)
 348 0072 97000000 		call	iperf_strerror
 348      E7800000 
 349              	.LVL36:
 350 007a AA85     		mv	a1,a0
 351 007c 37050000 		lui	a0,%hi(.LC4)
 352 0080 13050500 		addi	a0,a0,%lo(.LC4)
 353 0084 97000000 		call	co_printf
 353      E7800000 
 354              	.LVL37:
 188:C:/Users/stapi/OneDrive/Desktop/GD32VW553/GD32VW55X_Wifi_BLE_SDK/GD32VW55x_RELEASE_V1.0.2/MSDK/app\iperf3_main.c ****         //usage_long();
 355              		.loc 1 188 9
 188:C:/Users/stapi/OneDrive/Desktop/GD32VW553/GD32VW55X_Wifi_BLE_SDK/GD32VW55x_RELEASE_V1.0.2/MSDK/app\iperf3_main.c ****         //usage_long();
 356              		.loc 1 188 73
 190:C:/Users/stapi/OneDrive/Desktop/GD32VW553/GD32VW55X_Wifi_BLE_SDK/GD32VW55x_RELEASE_V1.0.2/MSDK/app\iperf3_main.c ****         gnu_getopt_reset();
 357              		.loc 1 190 9
 358 008c 97000000 		call	usage
 358      E7800000 
 359              	.LVL38:
 191:C:/Users/stapi/OneDrive/Desktop/GD32VW553/GD32VW55X_Wifi_BLE_SDK/GD32VW55x_RELEASE_V1.0.2/MSDK/app\iperf3_main.c ****         iperf_free_test(test);
 360              		.loc 1 191 9
 361 0094 97000000 		call	gnu_getopt_reset
 361      E7800000 
 362              	.LVL39:
 192:C:/Users/stapi/OneDrive/Desktop/GD32VW553/GD32VW55X_Wifi_BLE_SDK/GD32VW55x_RELEASE_V1.0.2/MSDK/app\iperf3_main.c ****         return (-1);
 363              		.loc 1 192 9
 364              	.L25:
 233:C:/Users/stapi/OneDrive/Desktop/GD32VW553/GD32VW55X_Wifi_BLE_SDK/GD32VW55x_RELEASE_V1.0.2/MSDK/app\iperf3_main.c ****             return (-1);
 365              		.loc 1 233 13
 366 009c 2285     		mv	a0,s0
 367 009e 97000000 		call	iperf_free_test
 367      E7800000 
 368              	.LVL40:
 369 00a6 71BF     		j	.L22
 370              	.LVL41:
 371              	.L15:
 196:C:/Users/stapi/OneDrive/Desktop/GD32VW553/GD32VW55X_Wifi_BLE_SDK/GD32VW55x_RELEASE_V1.0.2/MSDK/app\iperf3_main.c **** 
 372              		.loc 1 196 5
 373 00a8 97000000 		call	gnu_getopt_reset
 373      E7800000 
 374              	.LVL42:
 198:C:/Users/stapi/OneDrive/Desktop/GD32VW553/GD32VW55X_Wifi_BLE_SDK/GD32VW55x_RELEASE_V1.0.2/MSDK/app\iperf3_main.c **** 
 375              		.loc 1 198 5
 198:C:/Users/stapi/OneDrive/Desktop/GD32VW553/GD32VW55X_Wifi_BLE_SDK/GD32VW55x_RELEASE_V1.0.2/MSDK/app\iperf3_main.c **** 
 376              		.loc 1 198 8 is_stmt 0
 377 00b0 83071400 		lb	a5,1(s0)
 378 00b4 13073006 		li	a4,99
 379 00b8 BD9B     		andi	a5,a5,-17
 380 00ba 6393E70A 		bne	a5,a4,.L16
 198:C:/Users/stapi/OneDrive/Desktop/GD32VW553/GD32VW55X_Wifi_BLE_SDK/GD32VW55x_RELEASE_V1.0.2/MSDK/app\iperf3_main.c **** 
 381              		.loc 1 198 73 discriminator 3
 382 00be B7040000 		lui	s1,%hi(.LANCHOR2)
 383              	.LVL43:
 198:C:/Users/stapi/OneDrive/Desktop/GD32VW553/GD32VW55X_Wifi_BLE_SDK/GD32VW55x_RELEASE_V1.0.2/MSDK/app\iperf3_main.c **** 
 384              		.loc 1 198 54 discriminator 3
 385 00c2 03C70400 		lbu	a4,%lo(.LANCHOR2)(s1)
 386 00c6 8547     		li	a5,1
 387 00c8 93840400 		addi	s1,s1,%lo(.LANCHOR2)
 388 00cc 63EAE708 		bgtu	a4,a5,.L16
 389              	.LVL44:
 200:C:/Users/stapi/OneDrive/Desktop/GD32VW553/GD32VW55X_Wifi_BLE_SDK/GD32VW55x_RELEASE_V1.0.2/MSDK/app\iperf3_main.c ****             if (iperf_task_tcb_ptr[i] == NULL) {
 390              		.loc 1 200 22 is_stmt 1
 201:C:/Users/stapi/OneDrive/Desktop/GD32VW553/GD32VW55X_Wifi_BLE_SDK/GD32VW55x_RELEASE_V1.0.2/MSDK/app\iperf3_main.c ****                 test->task_tcb_index = i;
 391              		.loc 1 201 13
 201:C:/Users/stapi/OneDrive/Desktop/GD32VW553/GD32VW55X_Wifi_BLE_SDK/GD32VW55x_RELEASE_V1.0.2/MSDK/app\iperf3_main.c ****                 test->task_tcb_index = i;
 392              		.loc 1 201 35 is_stmt 0
 393 00d0 37090000 		lui	s2,%hi(.LANCHOR1)
 394              	.LVL45:
 395 00d4 13070900 		addi	a4,s2,%lo(.LANCHOR1)
 201:C:/Users/stapi/OneDrive/Desktop/GD32VW553/GD32VW55X_Wifi_BLE_SDK/GD32VW55x_RELEASE_V1.0.2/MSDK/app\iperf3_main.c ****                 test->task_tcb_index = i;
 396              		.loc 1 201 16
 397 00d8 1443     		lw	a3,0(a4)
 398 00da 130A0900 		addi	s4,s2,%lo(.LANCHOR1)
 399 00de B1CA     		beq	a3,zero,.L17
 200:C:/Users/stapi/OneDrive/Desktop/GD32VW553/GD32VW55X_Wifi_BLE_SDK/GD32VW55x_RELEASE_V1.0.2/MSDK/app\iperf3_main.c ****             if (iperf_task_tcb_ptr[i] == NULL) {
 400              		.loc 1 200 42 is_stmt 1
 401              	.LVL46:
 200:C:/Users/stapi/OneDrive/Desktop/GD32VW553/GD32VW55X_Wifi_BLE_SDK/GD32VW55x_RELEASE_V1.0.2/MSDK/app\iperf3_main.c ****             if (iperf_task_tcb_ptr[i] == NULL) {
 402              		.loc 1 200 22
 201:C:/Users/stapi/OneDrive/Desktop/GD32VW553/GD32VW55X_Wifi_BLE_SDK/GD32VW55x_RELEASE_V1.0.2/MSDK/app\iperf3_main.c ****                 test->task_tcb_index = i;
 403              		.loc 1 201 13
 201:C:/Users/stapi/OneDrive/Desktop/GD32VW553/GD32VW55X_Wifi_BLE_SDK/GD32VW55x_RELEASE_V1.0.2/MSDK/app\iperf3_main.c ****                 test->task_tcb_index = i;
 404              		.loc 1 201 16 is_stmt 0
 405 00e0 5843     		lw	a4,4(a4)
 406 00e2 11CB     		beq	a4,zero,.L18
 200:C:/Users/stapi/OneDrive/Desktop/GD32VW553/GD32VW55X_Wifi_BLE_SDK/GD32VW55x_RELEASE_V1.0.2/MSDK/app\iperf3_main.c ****             if (iperf_task_tcb_ptr[i] == NULL) {
 407              		.loc 1 200 42 is_stmt 1
 408              	.LVL47:
 200:C:/Users/stapi/OneDrive/Desktop/GD32VW553/GD32VW55X_Wifi_BLE_SDK/GD32VW55x_RELEASE_V1.0.2/MSDK/app\iperf3_main.c ****             if (iperf_task_tcb_ptr[i] == NULL) {
 409              		.loc 1 200 22
 207:C:/Users/stapi/OneDrive/Desktop/GD32VW553/GD32VW55X_Wifi_BLE_SDK/GD32VW55x_RELEASE_V1.0.2/MSDK/app\iperf3_main.c ****             app_print( "\r\n\rERROR: can not find available iperf3 task tcb.");
 410              		.loc 1 207 9
 208:C:/Users/stapi/OneDrive/Desktop/GD32VW553/GD32VW55X_Wifi_BLE_SDK/GD32VW55x_RELEASE_V1.0.2/MSDK/app\iperf3_main.c ****             iperf_free_test(test);
 411              		.loc 1 208 13
 412 00e4 37050000 		lui	a0,%hi(.LC5)
 413 00e8 13050500 		addi	a0,a0,%lo(.LC5)
 414              	.LVL48:
 415              	.L24:
 232:C:/Users/stapi/OneDrive/Desktop/GD32VW553/GD32VW55X_Wifi_BLE_SDK/GD32VW55x_RELEASE_V1.0.2/MSDK/app\iperf3_main.c ****             iperf_free_test(test);
 416              		.loc 1 232 13 is_stmt 0
 417 00ec 97000000 		call	co_printf
 417      E7800000 
 418              	.LVL49:
 419 00f4 65B7     		j	.L25
 420              	.LVL50:
 421              	.L18:
 202:C:/Users/stapi/OneDrive/Desktop/GD32VW553/GD32VW55X_Wifi_BLE_SDK/GD32VW55x_RELEASE_V1.0.2/MSDK/app\iperf3_main.c ****                 break;
 422              		.loc 1 202 17 is_stmt 1
 202:C:/Users/stapi/OneDrive/Desktop/GD32VW553/GD32VW55X_Wifi_BLE_SDK/GD32VW55x_RELEASE_V1.0.2/MSDK/app\iperf3_main.c ****                 break;
 423              		.loc 1 202 38 is_stmt 0
 424 00f6 2300F400 		sb	a5,0(s0)
 203:C:/Users/stapi/OneDrive/Desktop/GD32VW553/GD32VW55X_Wifi_BLE_SDK/GD32VW55x_RELEASE_V1.0.2/MSDK/app\iperf3_main.c ****             }
 425              		.loc 1 203 17 is_stmt 1
 207:C:/Users/stapi/OneDrive/Desktop/GD32VW553/GD32VW55X_Wifi_BLE_SDK/GD32VW55x_RELEASE_V1.0.2/MSDK/app\iperf3_main.c ****             app_print( "\r\n\rERROR: can not find available iperf3 task tcb.");
 426              		.loc 1 207 9
 200:C:/Users/stapi/OneDrive/Desktop/GD32VW553/GD32VW55X_Wifi_BLE_SDK/GD32VW55x_RELEASE_V1.0.2/MSDK/app\iperf3_main.c ****             if (iperf_task_tcb_ptr[i] == NULL) {
 427              		.loc 1 200 43 is_stmt 0
 428 00fa 0549     		li	s2,1
 429              	.LVL51:
 430              	.L19:
 213:C:/Users/stapi/OneDrive/Desktop/GD32VW553/GD32VW55X_Wifi_BLE_SDK/GD32VW55x_RELEASE_V1.0.2/MSDK/app\iperf3_main.c **** 
 431              		.loc 1 213 9 is_stmt 1
 228:C:/Users/stapi/OneDrive/Desktop/GD32VW553/GD32VW55X_Wifi_BLE_SDK/GD32VW55x_RELEASE_V1.0.2/MSDK/app\iperf3_main.c ****                 IPERF3_STACK_SIZE, task_priority,
 432              		.loc 1 228 9
 228:C:/Users/stapi/OneDrive/Desktop/GD32VW553/GD32VW55X_Wifi_BLE_SDK/GD32VW55x_RELEASE_V1.0.2/MSDK/app\iperf3_main.c ****                 IPERF3_STACK_SIZE, task_priority,
 433              		.loc 1 228 18 is_stmt 0
 434 00fc B7080000 		lui	a7,%hi(iperf_test_task)
 435 0100 B7050000 		lui	a1,%hi(.LC6)
 436 0104 22C0     		sw	s0,0(sp)
 437 0106 93880800 		addi	a7,a7,%lo(iperf_test_task)
 438 010a 4948     		li	a6,18
 439 010c 8147     		li	a5,0
 440 010e 0147     		li	a4,0
 441 0110 93060020 		li	a3,512
 442 0114 0146     		li	a2,0
 443 0116 93850500 		addi	a1,a1,%lo(.LC6)
 444 011a 0145     		li	a0,0
 445 011c 97000000 		call	sys_task_create
 445      E7800000 
 446              	.LVL52:
 447 0124 AA89     		mv	s3,a0
 448              	.LVL53:
 231:C:/Users/stapi/OneDrive/Desktop/GD32VW553/GD32VW55X_Wifi_BLE_SDK/GD32VW55x_RELEASE_V1.0.2/MSDK/app\iperf3_main.c ****             app_print( "\r\n\rERROR: create iperf3 task failed.");
 449              		.loc 1 231 9 is_stmt 1
 231:C:/Users/stapi/OneDrive/Desktop/GD32VW553/GD32VW55X_Wifi_BLE_SDK/GD32VW55x_RELEASE_V1.0.2/MSDK/app\iperf3_main.c ****             app_print( "\r\n\rERROR: create iperf3 task failed.");
 450              		.loc 1 231 12 is_stmt 0
 451 0126 11E9     		bne	a0,zero,.L20
 232:C:/Users/stapi/OneDrive/Desktop/GD32VW553/GD32VW55X_Wifi_BLE_SDK/GD32VW55x_RELEASE_V1.0.2/MSDK/app\iperf3_main.c ****             iperf_free_test(test);
 452              		.loc 1 232 13 is_stmt 1
 453 0128 37050000 		lui	a0,%hi(.LC7)
 454              	.LVL54:
 455 012c 13050500 		addi	a0,a0,%lo(.LC7)
 456 0130 75BF     		j	.L24
 457              	.LVL55:
 458              	.L17:
 202:C:/Users/stapi/OneDrive/Desktop/GD32VW553/GD32VW55X_Wifi_BLE_SDK/GD32VW55x_RELEASE_V1.0.2/MSDK/app\iperf3_main.c ****                 break;
 459              		.loc 1 202 17
 202:C:/Users/stapi/OneDrive/Desktop/GD32VW553/GD32VW55X_Wifi_BLE_SDK/GD32VW55x_RELEASE_V1.0.2/MSDK/app\iperf3_main.c ****                 break;
 460              		.loc 1 202 38 is_stmt 0
 461 0132 23000400 		sb	zero,0(s0)
 203:C:/Users/stapi/OneDrive/Desktop/GD32VW553/GD32VW55X_Wifi_BLE_SDK/GD32VW55x_RELEASE_V1.0.2/MSDK/app\iperf3_main.c ****             }
 462              		.loc 1 203 17 is_stmt 1
 207:C:/Users/stapi/OneDrive/Desktop/GD32VW553/GD32VW55X_Wifi_BLE_SDK/GD32VW55x_RELEASE_V1.0.2/MSDK/app\iperf3_main.c ****             app_print( "\r\n\rERROR: can not find available iperf3 task tcb.");
 463              		.loc 1 207 9
 200:C:/Users/stapi/OneDrive/Desktop/GD32VW553/GD32VW55X_Wifi_BLE_SDK/GD32VW55x_RELEASE_V1.0.2/MSDK/app\iperf3_main.c ****             if (iperf_task_tcb_ptr[i] == NULL) {
 464              		.loc 1 200 17 is_stmt 0
 465 0136 0149     		li	s2,0
 466 0138 D1B7     		j	.L19
 467              	.LVL56:
 468              	.L20:
 236:C:/Users/stapi/OneDrive/Desktop/GD32VW553/GD32VW55X_Wifi_BLE_SDK/GD32VW55x_RELEASE_V1.0.2/MSDK/app\iperf3_main.c ****             iperf_task_tcb_ptr[i] = handle;
 469              		.loc 1 236 13 is_stmt 1
 470 013a 97000000 		call	sys_enter_critical
 470      E7800000 
 471              	.LVL57:
 237:C:/Users/stapi/OneDrive/Desktop/GD32VW553/GD32VW55X_Wifi_BLE_SDK/GD32VW55x_RELEASE_V1.0.2/MSDK/app\iperf3_main.c ****             iperf_task_num++;
 472              		.loc 1 237 13
 238:C:/Users/stapi/OneDrive/Desktop/GD32VW553/GD32VW55X_Wifi_BLE_SDK/GD32VW55x_RELEASE_V1.0.2/MSDK/app\iperf3_main.c ****             sys_exit_critical();
 473              		.loc 1 238 27 is_stmt 0
 474 0142 83C70400 		lbu	a5,0(s1)
 237:C:/Users/stapi/OneDrive/Desktop/GD32VW553/GD32VW55X_Wifi_BLE_SDK/GD32VW55x_RELEASE_V1.0.2/MSDK/app\iperf3_main.c ****             iperf_task_num++;
 475              		.loc 1 237 35
 476 0146 33494921 		sh2add	s2,s2,s4
 477 014a 23203901 		sw	s3,0(s2)
 238:C:/Users/stapi/OneDrive/Desktop/GD32VW553/GD32VW55X_Wifi_BLE_SDK/GD32VW55x_RELEASE_V1.0.2/MSDK/app\iperf3_main.c ****             sys_exit_critical();
 478              		.loc 1 238 13 is_stmt 1
 238:C:/Users/stapi/OneDrive/Desktop/GD32VW553/GD32VW55X_Wifi_BLE_SDK/GD32VW55x_RELEASE_V1.0.2/MSDK/app\iperf3_main.c ****             sys_exit_critical();
 479              		.loc 1 238 27 is_stmt 0
 480 014e 8507     		addi	a5,a5,1
 481 0150 2380F400 		sb	a5,0(s1)
 239:C:/Users/stapi/OneDrive/Desktop/GD32VW553/GD32VW55X_Wifi_BLE_SDK/GD32VW55x_RELEASE_V1.0.2/MSDK/app\iperf3_main.c ****             return 0;
 482              		.loc 1 239 13 is_stmt 1
 483 0154 97000000 		call	sys_exit_critical
 483      E7800000 
 484              	.LVL58:
 240:C:/Users/stapi/OneDrive/Desktop/GD32VW553/GD32VW55X_Wifi_BLE_SDK/GD32VW55x_RELEASE_V1.0.2/MSDK/app\iperf3_main.c ****         }
 485              		.loc 1 240 13
 486              	.L23:
 245:C:/Users/stapi/OneDrive/Desktop/GD32VW553/GD32VW55X_Wifi_BLE_SDK/GD32VW55x_RELEASE_V1.0.2/MSDK/app\iperf3_main.c ****     }
 487              		.loc 1 245 9
 245:C:/Users/stapi/OneDrive/Desktop/GD32VW553/GD32VW55X_Wifi_BLE_SDK/GD32VW55x_RELEASE_V1.0.2/MSDK/app\iperf3_main.c ****     }
 488              		.loc 1 245 16 is_stmt 0
 489 015c 0145     		li	a0,0
 490 015e DDB5     		j	.L12
 491              	.LVL59:
 492              	.L16:
 244:C:/Users/stapi/OneDrive/Desktop/GD32VW553/GD32VW55X_Wifi_BLE_SDK/GD32VW55x_RELEASE_V1.0.2/MSDK/app\iperf3_main.c ****         return 0;
 493              		.loc 1 244 9 is_stmt 1
 494 0160 2285     		mv	a0,s0
 495 0162 97000000 		call	iperf_free_test
 495      E7800000 
 496              	.LVL60:
 497 016a CDBF     		j	.L23
 498              		.cfi_endproc
 499              	.LFE15:
 501              		.section	.rodata.cmd_iperf3.str1.4,"aMS",@progbits,1
 502              		.align	2
 503              	.LC8:
 504 0000 2D7300   		.string	"-s"
 505 0003 00       		.align	2
 506              	.LC9:
 507 0004 0D0A4970 		.string	"\r\nIperf3: start iperf3 server!\r\n"
 507      65726633 
 507      3A207374 
 507      61727420 
 507      69706572 
 508 0025 000000   		.align	2
 509              	.LC10:
 510 0028 2D6300   		.string	"-c"
 511 002b 00       		.align	2
 512              	.LC11:
 513 002c 0D0A4970 		.string	"\r\nIperf3: start iperf3 client!\r\n"
 513      65726633 
 513      3A207374 
 513      61727420 
 513      69706572 
 514 004d 000000   		.align	2
 515              	.LC12:
 516 0050 2D6800   		.string	"-h"
 517 0053 00       		.align	2
 518              	.LC13:
 519 0054 73746F70 		.string	"stop"
 519      00
 520 0059 000000   		.align	2
 521              	.LC14:
 522 005c 0D0A4970 		.string	"\r\nIperf3: command format error!\r\n"
 522      65726633 
 522      3A20636F 
 522      6D6D616E 
 522      6420666F 
 523 007e 0000     		.align	2
 524              	.LC15:
 525 0080 0D557361 		.string	"\rUsage:\r\n"
 525      67653A0D 
 525      0A00
 526 008a 0000     		.align	2
 527              	.LC16:
 528 008c 20202020 		.string	"    iperf3 <-s|-c hostip|stop|-h> [options]\r\n"
 528      69706572 
 528      6633203C 
 528      2D737C2D 
 528      6320686F 
 529 00ba 0000     		.align	2
 530              	.LC17:
 531 00bc 0D536572 		.string	"\rServer or Client:\r\n"
 531      76657220 
 531      6F722043 
 531      6C69656E 
 531      743A0D0A 
 532 00d1 000000   		.align	2
 533              	.LC18:
 534 00d4 20202020 		.string	"    -i #         seconds between periodic bandwidth reports\r\n"
 534      2D692023 
 534      20202020 
 534      20202020 
 534      20736563 
 535 0112 0000     		.align	2
 536              	.LC19:
 537 0114 20202020 		.string	"    -p #         server port to listen on/connect to\r\n"
 537      2D702023 
 537      20202020 
 537      20202020 
 537      20736572 
 538 014b 00       		.align	2
 539              	.LC20:
 540 014c 0D536572 		.string	"\rServer specific:\r\n"
 540      76657220 
 540      73706563 
 540      69666963 
 540      3A0D0A00 
 541              		.align	2
 542              	.LC21:
 543 0160 20202020 		.string	"    -s           run in server mode\r\n"
 543      2D732020 
 543      20202020 
 543      20202020 
 543      2072756E 
 544 0186 0000     		.align	2
 545              	.LC22:
 546 0188 0D436C69 		.string	"\rClient specific:\r\n"
 546      656E7420 
 546      73706563 
 546      69666963 
 546      3A0D0A00 
 547              		.align	2
 548              	.LC23:
 549 019c 20202020 		.string	"    -c <host>    run in client mode, connecting to <host>\r\n"
 549      2D63203C 
 549      686F7374 
 549      3E202020 
 549      2072756E 
 550              		.align	2
 551              	.LC24:
 552 01d8 20202020 		.string	"    -u           use UDP rather than TCP\r\n"
 552      2D752020 
 552      20202020 
 552      20202020 
 552      20757365 
 553 0203 00       		.align	2
 554              	.LC25:
 555 0204 20202020 		.string	"    -b #[KMG][/#] target bandwidth in bits/sec (0 for unlimited)\r\n"
 555      2D622023 
 555      5B4B4D47 
 555      5D5B2F23 
 555      5D207461 
 556 0247 00       		.align	2
 557              	.LC26:
 558 0248 20202020 		.string	"                 (default 1 Mbit/sec for UDP, unlimited for TCP)\r\n"
 558      20202020 
 558      20202020 
 558      20202020 
 558      20286465 
 559 028b 00       		.align	2
 560              	.LC27:
 561 028c 20202020 		.string	"                 (optional slash and packet count for burst mode)\r\n"
 561      20202020 
 561      20202020 
 561      20202020 
 561      20286F70 
 562              		.align	2
 563              	.LC28:
 564 02d0 20202020 		.string	"    -t #         time in seconds to transmit for (default 10 secs)\r\n"
 564      2D742023 
 564      20202020 
 564      20202020 
 564      2074696D 
 565 0315 000000   		.align	2
 566              	.LC29:
 567 0318 20202020 		.string	"    -l #[KMG]    length of buffer to read or write\r\n"
 567      2D6C2023 
 567      5B4B4D47 
 567      5D202020 
 567      206C656E 
 568 034d 000000   		.align	2
 569              	.LC30:
 570 0350 20202020 		.string	"    -S #         set the IP 'type of service'\r\n"
 570      2D532023 
 570      20202020 
 570      20202020 
 570      20736574 
 571              		.section	.text.cmd_iperf3,"ax",@progbits
 572              		.align	1
 573              		.globl	cmd_iperf3
 575              	cmd_iperf3:
 576              	.LFB16:
 248:C:/Users/stapi/OneDrive/Desktop/GD32VW553/GD32VW55X_Wifi_BLE_SDK/GD32VW55x_RELEASE_V1.0.2/MSDK/app\iperf3_main.c **** 
 249:C:/Users/stapi/OneDrive/Desktop/GD32VW553/GD32VW55X_Wifi_BLE_SDK/GD32VW55x_RELEASE_V1.0.2/MSDK/app\iperf3_main.c **** void cmd_iperf3(int argc, char **argv)
 250:C:/Users/stapi/OneDrive/Desktop/GD32VW553/GD32VW55X_Wifi_BLE_SDK/GD32VW55x_RELEASE_V1.0.2/MSDK/app\iperf3_main.c **** {
 577              		.loc 1 250 1
 578              		.cfi_startproc
 579              	.LVL61:
 580 0000 17030000 		call	t0,__riscv_save_4
 580      E7020300 
 581              		.cfi_offset 19, -20
 582              		.cfi_offset 18, -16
 583              		.cfi_offset 9, -12
 584              		.cfi_offset 8, -8
 585              		.cfi_offset 1, -4
 586              		.cfi_def_cfa_offset 32
 251:C:/Users/stapi/OneDrive/Desktop/GD32VW553/GD32VW55X_Wifi_BLE_SDK/GD32VW55x_RELEASE_V1.0.2/MSDK/app\iperf3_main.c ****     if (argc >= 2) {
 587              		.loc 1 251 5
 588              		.loc 1 251 8 is_stmt 0
 589 0008 8549     		li	s3,1
 590 000a 63DAA908 		ble	a0,s3,.L27
 252:C:/Users/stapi/OneDrive/Desktop/GD32VW553/GD32VW55X_Wifi_BLE_SDK/GD32VW55x_RELEASE_V1.0.2/MSDK/app\iperf3_main.c ****         if (strcmp(argv[1], "-s") == 0) {
 591              		.loc 1 252 13
 592 000e 03A94500 		lw	s2,4(a1)
 593 0012 AE84     		mv	s1,a1
 594              		.loc 1 252 9 is_stmt 1
 595              		.loc 1 252 13 is_stmt 0
 596 0014 B7050000 		lui	a1,%hi(.LC8)
 597              	.LVL62:
 598 0018 2A84     		mv	s0,a0
 599 001a 93850500 		addi	a1,a1,%lo(.LC8)
 600 001e 4A85     		mv	a0,s2
 601              	.LVL63:
 602 0020 97000000 		call	strcmp
 602      E7800000 
 603              	.LVL64:
 604              		.loc 1 252 12
 605 0028 1DE1     		bne	a0,zero,.L28
 253:C:/Users/stapi/OneDrive/Desktop/GD32VW553/GD32VW55X_Wifi_BLE_SDK/GD32VW55x_RELEASE_V1.0.2/MSDK/app\iperf3_main.c ****             app_print("\r\nIperf3: start iperf3 server!\r\n");
 606              		.loc 1 253 13 is_stmt 1
 607 002a 37050000 		lui	a0,%hi(.LC9)
 608 002e 13050500 		addi	a0,a0,%lo(.LC9)
 609              	.L37:
 254:C:/Users/stapi/OneDrive/Desktop/GD32VW553/GD32VW55X_Wifi_BLE_SDK/GD32VW55x_RELEASE_V1.0.2/MSDK/app\iperf3_main.c ****         } else if (strcmp(argv[1], "-c") == 0) {
 255:C:/Users/stapi/OneDrive/Desktop/GD32VW553/GD32VW55X_Wifi_BLE_SDK/GD32VW55x_RELEASE_V1.0.2/MSDK/app\iperf3_main.c ****             app_print("\r\nIperf3: start iperf3 client!\r\n");
 610              		.loc 1 255 13 is_stmt 0
 611 0032 97000000 		call	co_printf
 611      E7800000 
 612              	.LVL65:
 256:C:/Users/stapi/OneDrive/Desktop/GD32VW553/GD32VW55X_Wifi_BLE_SDK/GD32VW55x_RELEASE_V1.0.2/MSDK/app\iperf3_main.c ****         } else if (strcmp(argv[1], "-h") == 0) {
 257:C:/Users/stapi/OneDrive/Desktop/GD32VW553/GD32VW55X_Wifi_BLE_SDK/GD32VW55x_RELEASE_V1.0.2/MSDK/app\iperf3_main.c ****             goto Usage;
 258:C:/Users/stapi/OneDrive/Desktop/GD32VW553/GD32VW55X_Wifi_BLE_SDK/GD32VW55x_RELEASE_V1.0.2/MSDK/app\iperf3_main.c ****         } else if (strcmp(argv[1], "stop") == 0) {
 259:C:/Users/stapi/OneDrive/Desktop/GD32VW553/GD32VW55X_Wifi_BLE_SDK/GD32VW55x_RELEASE_V1.0.2/MSDK/app\iperf3_main.c ****             iperf_terminate = 1;
 260:C:/Users/stapi/OneDrive/Desktop/GD32VW553/GD32VW55X_Wifi_BLE_SDK/GD32VW55x_RELEASE_V1.0.2/MSDK/app\iperf3_main.c ****             return;
 261:C:/Users/stapi/OneDrive/Desktop/GD32VW553/GD32VW55X_Wifi_BLE_SDK/GD32VW55x_RELEASE_V1.0.2/MSDK/app\iperf3_main.c ****         } else {
 262:C:/Users/stapi/OneDrive/Desktop/GD32VW553/GD32VW55X_Wifi_BLE_SDK/GD32VW55x_RELEASE_V1.0.2/MSDK/app\iperf3_main.c ****             goto Exit;
 263:C:/Users/stapi/OneDrive/Desktop/GD32VW553/GD32VW55X_Wifi_BLE_SDK/GD32VW55x_RELEASE_V1.0.2/MSDK/app\iperf3_main.c ****         }
 264:C:/Users/stapi/OneDrive/Desktop/GD32VW553/GD32VW55X_Wifi_BLE_SDK/GD32VW55x_RELEASE_V1.0.2/MSDK/app\iperf3_main.c ****     } else {
 265:C:/Users/stapi/OneDrive/Desktop/GD32VW553/GD32VW55X_Wifi_BLE_SDK/GD32VW55x_RELEASE_V1.0.2/MSDK/app\iperf3_main.c ****         goto Exit;
 266:C:/Users/stapi/OneDrive/Desktop/GD32VW553/GD32VW55X_Wifi_BLE_SDK/GD32VW55x_RELEASE_V1.0.2/MSDK/app\iperf3_main.c ****     }
 267:C:/Users/stapi/OneDrive/Desktop/GD32VW553/GD32VW55X_Wifi_BLE_SDK/GD32VW55x_RELEASE_V1.0.2/MSDK/app\iperf3_main.c **** 
 268:C:/Users/stapi/OneDrive/Desktop/GD32VW553/GD32VW55X_Wifi_BLE_SDK/GD32VW55x_RELEASE_V1.0.2/MSDK/app\iperf3_main.c ****     iperf3_main(argc, argv);
 613              		.loc 1 268 5 is_stmt 1
 614 003a A685     		mv	a1,s1
 615 003c 2285     		mv	a0,s0
 616 003e 97000000 		call	iperf3_main
 616      E7800000 
 617              	.LVL66:
 269:C:/Users/stapi/OneDrive/Desktop/GD32VW553/GD32VW55X_Wifi_BLE_SDK/GD32VW55x_RELEASE_V1.0.2/MSDK/app\iperf3_main.c **** 
 270:C:/Users/stapi/OneDrive/Desktop/GD32VW553/GD32VW55X_Wifi_BLE_SDK/GD32VW55x_RELEASE_V1.0.2/MSDK/app\iperf3_main.c ****     return;
 618              		.loc 1 270 5
 619              	.L26:
 271:C:/Users/stapi/OneDrive/Desktop/GD32VW553/GD32VW55X_Wifi_BLE_SDK/GD32VW55x_RELEASE_V1.0.2/MSDK/app\iperf3_main.c **** Exit:
 272:C:/Users/stapi/OneDrive/Desktop/GD32VW553/GD32VW55X_Wifi_BLE_SDK/GD32VW55x_RELEASE_V1.0.2/MSDK/app\iperf3_main.c ****     app_print("\r\nIperf3: command format error!\r\n");
 273:C:/Users/stapi/OneDrive/Desktop/GD32VW553/GD32VW55X_Wifi_BLE_SDK/GD32VW55x_RELEASE_V1.0.2/MSDK/app\iperf3_main.c **** Usage:
 274:C:/Users/stapi/OneDrive/Desktop/GD32VW553/GD32VW55X_Wifi_BLE_SDK/GD32VW55x_RELEASE_V1.0.2/MSDK/app\iperf3_main.c ****     app_print("\rUsage:\r\n");
 275:C:/Users/stapi/OneDrive/Desktop/GD32VW553/GD32VW55X_Wifi_BLE_SDK/GD32VW55x_RELEASE_V1.0.2/MSDK/app\iperf3_main.c ****     app_print("    iperf3 <-s|-c hostip|stop|-h> [options]\r\n");
 276:C:/Users/stapi/OneDrive/Desktop/GD32VW553/GD32VW55X_Wifi_BLE_SDK/GD32VW55x_RELEASE_V1.0.2/MSDK/app\iperf3_main.c ****     app_print("\rServer or Client:\r\n");
 277:C:/Users/stapi/OneDrive/Desktop/GD32VW553/GD32VW55X_Wifi_BLE_SDK/GD32VW55x_RELEASE_V1.0.2/MSDK/app\iperf3_main.c ****     app_print("    -i #         seconds between periodic bandwidth reports\r\n");
 278:C:/Users/stapi/OneDrive/Desktop/GD32VW553/GD32VW55X_Wifi_BLE_SDK/GD32VW55x_RELEASE_V1.0.2/MSDK/app\iperf3_main.c ****     app_print("    -p #         server port to listen on/connect to\r\n");
 279:C:/Users/stapi/OneDrive/Desktop/GD32VW553/GD32VW55X_Wifi_BLE_SDK/GD32VW55x_RELEASE_V1.0.2/MSDK/app\iperf3_main.c ****     app_print("\rServer specific:\r\n");
 280:C:/Users/stapi/OneDrive/Desktop/GD32VW553/GD32VW55X_Wifi_BLE_SDK/GD32VW55x_RELEASE_V1.0.2/MSDK/app\iperf3_main.c ****     app_print("    -s           run in server mode\r\n");
 281:C:/Users/stapi/OneDrive/Desktop/GD32VW553/GD32VW55X_Wifi_BLE_SDK/GD32VW55x_RELEASE_V1.0.2/MSDK/app\iperf3_main.c ****     app_print("\rClient specific:\r\n");
 282:C:/Users/stapi/OneDrive/Desktop/GD32VW553/GD32VW55X_Wifi_BLE_SDK/GD32VW55x_RELEASE_V1.0.2/MSDK/app\iperf3_main.c ****     app_print("    -c <host>    run in client mode, connecting to <host>\r\n");
 283:C:/Users/stapi/OneDrive/Desktop/GD32VW553/GD32VW55X_Wifi_BLE_SDK/GD32VW55x_RELEASE_V1.0.2/MSDK/app\iperf3_main.c ****     app_print("    -u           use UDP rather than TCP\r\n");
 284:C:/Users/stapi/OneDrive/Desktop/GD32VW553/GD32VW55X_Wifi_BLE_SDK/GD32VW55x_RELEASE_V1.0.2/MSDK/app\iperf3_main.c ****     app_print("    -b #[KMG][/#] target bandwidth in bits/sec (0 for unlimited)\r\n");
 285:C:/Users/stapi/OneDrive/Desktop/GD32VW553/GD32VW55X_Wifi_BLE_SDK/GD32VW55x_RELEASE_V1.0.2/MSDK/app\iperf3_main.c ****     app_print("                 (default 1 Mbit/sec for UDP, unlimited for TCP)\r\n");
 286:C:/Users/stapi/OneDrive/Desktop/GD32VW553/GD32VW55X_Wifi_BLE_SDK/GD32VW55x_RELEASE_V1.0.2/MSDK/app\iperf3_main.c ****     app_print("                 (optional slash and packet count for burst mode)\r\n");
 287:C:/Users/stapi/OneDrive/Desktop/GD32VW553/GD32VW55X_Wifi_BLE_SDK/GD32VW55x_RELEASE_V1.0.2/MSDK/app\iperf3_main.c ****     app_print("    -t #         time in seconds to transmit for (default 10 secs)\r\n");
 288:C:/Users/stapi/OneDrive/Desktop/GD32VW553/GD32VW55X_Wifi_BLE_SDK/GD32VW55x_RELEASE_V1.0.2/MSDK/app\iperf3_main.c ****     app_print("    -l #[KMG]    length of buffer to read or write\r\n");
 289:C:/Users/stapi/OneDrive/Desktop/GD32VW553/GD32VW55X_Wifi_BLE_SDK/GD32VW55x_RELEASE_V1.0.2/MSDK/app\iperf3_main.c ****     app_print("    -S #         set the IP 'type of service'\r\n");
 290:C:/Users/stapi/OneDrive/Desktop/GD32VW553/GD32VW55X_Wifi_BLE_SDK/GD32VW55x_RELEASE_V1.0.2/MSDK/app\iperf3_main.c **** }
 620              		.loc 1 290 1 is_stmt 0
 621 0046 17030000 		tail	__riscv_restore_4
 621      67000300 
 622              		.cfi_remember_state
 623              		.cfi_restore 19
 624              		.cfi_restore 18
 625              		.cfi_restore 9
 626              		.cfi_restore 8
 627              		.cfi_restore 1
 628              		.cfi_def_cfa_offset 0
 629              	.LVL67:
 630              	.L28:
 631              		.cfi_restore_state
 254:C:/Users/stapi/OneDrive/Desktop/GD32VW553/GD32VW55X_Wifi_BLE_SDK/GD32VW55x_RELEASE_V1.0.2/MSDK/app\iperf3_main.c ****             app_print("\r\nIperf3: start iperf3 client!\r\n");
 632              		.loc 1 254 16 is_stmt 1
 254:C:/Users/stapi/OneDrive/Desktop/GD32VW553/GD32VW55X_Wifi_BLE_SDK/GD32VW55x_RELEASE_V1.0.2/MSDK/app\iperf3_main.c ****             app_print("\r\nIperf3: start iperf3 client!\r\n");
 633              		.loc 1 254 20 is_stmt 0
 634 004e B7050000 		lui	a1,%hi(.LC10)
 635 0052 93850500 		addi	a1,a1,%lo(.LC10)
 636 0056 4A85     		mv	a0,s2
 637 0058 97000000 		call	strcmp
 637      E7800000 
 638              	.LVL68:
 254:C:/Users/stapi/OneDrive/Desktop/GD32VW553/GD32VW55X_Wifi_BLE_SDK/GD32VW55x_RELEASE_V1.0.2/MSDK/app\iperf3_main.c ****             app_print("\r\nIperf3: start iperf3 client!\r\n");
 639              		.loc 1 254 19
 640 0060 11E5     		bne	a0,zero,.L30
 255:C:/Users/stapi/OneDrive/Desktop/GD32VW553/GD32VW55X_Wifi_BLE_SDK/GD32VW55x_RELEASE_V1.0.2/MSDK/app\iperf3_main.c ****         } else if (strcmp(argv[1], "-h") == 0) {
 641              		.loc 1 255 13 is_stmt 1
 642 0062 37050000 		lui	a0,%hi(.LC11)
 643 0066 13050500 		addi	a0,a0,%lo(.LC11)
 644 006a E1B7     		j	.L37
 645              	.L30:
 256:C:/Users/stapi/OneDrive/Desktop/GD32VW553/GD32VW55X_Wifi_BLE_SDK/GD32VW55x_RELEASE_V1.0.2/MSDK/app\iperf3_main.c ****             goto Usage;
 646              		.loc 1 256 16
 256:C:/Users/stapi/OneDrive/Desktop/GD32VW553/GD32VW55X_Wifi_BLE_SDK/GD32VW55x_RELEASE_V1.0.2/MSDK/app\iperf3_main.c ****             goto Usage;
 647              		.loc 1 256 20 is_stmt 0
 648 006c B7050000 		lui	a1,%hi(.LC12)
 649 0070 93850500 		addi	a1,a1,%lo(.LC12)
 650 0074 4A85     		mv	a0,s2
 651 0076 97000000 		call	strcmp
 651      E7800000 
 652              	.LVL69:
 256:C:/Users/stapi/OneDrive/Desktop/GD32VW553/GD32VW55X_Wifi_BLE_SDK/GD32VW55x_RELEASE_V1.0.2/MSDK/app\iperf3_main.c ****             goto Usage;
 653              		.loc 1 256 19
 654 007e 05C9     		beq	a0,zero,.L31
 258:C:/Users/stapi/OneDrive/Desktop/GD32VW553/GD32VW55X_Wifi_BLE_SDK/GD32VW55x_RELEASE_V1.0.2/MSDK/app\iperf3_main.c ****             iperf_terminate = 1;
 655              		.loc 1 258 16 is_stmt 1
 258:C:/Users/stapi/OneDrive/Desktop/GD32VW553/GD32VW55X_Wifi_BLE_SDK/GD32VW55x_RELEASE_V1.0.2/MSDK/app\iperf3_main.c ****             iperf_terminate = 1;
 656              		.loc 1 258 20 is_stmt 0
 657 0080 B7050000 		lui	a1,%hi(.LC13)
 658 0084 93850500 		addi	a1,a1,%lo(.LC13)
 659 0088 4A85     		mv	a0,s2
 660 008a 97000000 		call	strcmp
 660      E7800000 
 661              	.LVL70:
 258:C:/Users/stapi/OneDrive/Desktop/GD32VW553/GD32VW55X_Wifi_BLE_SDK/GD32VW55x_RELEASE_V1.0.2/MSDK/app\iperf3_main.c ****             iperf_terminate = 1;
 662              		.loc 1 258 19
 663 0092 11E5     		bne	a0,zero,.L27
 259:C:/Users/stapi/OneDrive/Desktop/GD32VW553/GD32VW55X_Wifi_BLE_SDK/GD32VW55x_RELEASE_V1.0.2/MSDK/app\iperf3_main.c ****             return;
 664              		.loc 1 259 13 is_stmt 1
 259:C:/Users/stapi/OneDrive/Desktop/GD32VW553/GD32VW55X_Wifi_BLE_SDK/GD32VW55x_RELEASE_V1.0.2/MSDK/app\iperf3_main.c ****             return;
 665              		.loc 1 259 29 is_stmt 0
 666 0094 B7070000 		lui	a5,%hi(.LANCHOR0)
 667 0098 23803701 		sb	s3,%lo(.LANCHOR0)(a5)
 260:C:/Users/stapi/OneDrive/Desktop/GD32VW553/GD32VW55X_Wifi_BLE_SDK/GD32VW55x_RELEASE_V1.0.2/MSDK/app\iperf3_main.c ****         } else {
 668              		.loc 1 260 13 is_stmt 1
 669 009c 6DB7     		j	.L26
 670              	.LVL71:
 671              	.L27:
 272:C:/Users/stapi/OneDrive/Desktop/GD32VW553/GD32VW55X_Wifi_BLE_SDK/GD32VW55x_RELEASE_V1.0.2/MSDK/app\iperf3_main.c **** Usage:
 672              		.loc 1 272 5
 673 009e 37050000 		lui	a0,%hi(.LC14)
 674 00a2 13050500 		addi	a0,a0,%lo(.LC14)
 675 00a6 97000000 		call	co_printf
 675      E7800000 
 676              	.LVL72:
 677              	.L31:
 274:C:/Users/stapi/OneDrive/Desktop/GD32VW553/GD32VW55X_Wifi_BLE_SDK/GD32VW55x_RELEASE_V1.0.2/MSDK/app\iperf3_main.c ****     app_print("    iperf3 <-s|-c hostip|stop|-h> [options]\r\n");
 678              		.loc 1 274 5
 679 00ae 37050000 		lui	a0,%hi(.LC15)
 680 00b2 13050500 		addi	a0,a0,%lo(.LC15)
 681 00b6 97000000 		call	co_printf
 681      E7800000 
 682              	.LVL73:
 275:C:/Users/stapi/OneDrive/Desktop/GD32VW553/GD32VW55X_Wifi_BLE_SDK/GD32VW55x_RELEASE_V1.0.2/MSDK/app\iperf3_main.c ****     app_print("\rServer or Client:\r\n");
 683              		.loc 1 275 5
 684 00be 37050000 		lui	a0,%hi(.LC16)
 685 00c2 13050500 		addi	a0,a0,%lo(.LC16)
 686 00c6 97000000 		call	co_printf
 686      E7800000 
 687              	.LVL74:
 276:C:/Users/stapi/OneDrive/Desktop/GD32VW553/GD32VW55X_Wifi_BLE_SDK/GD32VW55x_RELEASE_V1.0.2/MSDK/app\iperf3_main.c ****     app_print("    -i #         seconds between periodic bandwidth reports\r\n");
 688              		.loc 1 276 5
 689 00ce 37050000 		lui	a0,%hi(.LC17)
 690 00d2 13050500 		addi	a0,a0,%lo(.LC17)
 691 00d6 97000000 		call	co_printf
 691      E7800000 
 692              	.LVL75:
 277:C:/Users/stapi/OneDrive/Desktop/GD32VW553/GD32VW55X_Wifi_BLE_SDK/GD32VW55x_RELEASE_V1.0.2/MSDK/app\iperf3_main.c ****     app_print("    -p #         server port to listen on/connect to\r\n");
 693              		.loc 1 277 5
 694 00de 37050000 		lui	a0,%hi(.LC18)
 695 00e2 13050500 		addi	a0,a0,%lo(.LC18)
 696 00e6 97000000 		call	co_printf
 696      E7800000 
 697              	.LVL76:
 278:C:/Users/stapi/OneDrive/Desktop/GD32VW553/GD32VW55X_Wifi_BLE_SDK/GD32VW55x_RELEASE_V1.0.2/MSDK/app\iperf3_main.c ****     app_print("\rServer specific:\r\n");
 698              		.loc 1 278 5
 699 00ee 37050000 		lui	a0,%hi(.LC19)
 700 00f2 13050500 		addi	a0,a0,%lo(.LC19)
 701 00f6 97000000 		call	co_printf
 701      E7800000 
 702              	.LVL77:
 279:C:/Users/stapi/OneDrive/Desktop/GD32VW553/GD32VW55X_Wifi_BLE_SDK/GD32VW55x_RELEASE_V1.0.2/MSDK/app\iperf3_main.c ****     app_print("    -s           run in server mode\r\n");
 703              		.loc 1 279 5
 704 00fe 37050000 		lui	a0,%hi(.LC20)
 705 0102 13050500 		addi	a0,a0,%lo(.LC20)
 706 0106 97000000 		call	co_printf
 706      E7800000 
 707              	.LVL78:
 280:C:/Users/stapi/OneDrive/Desktop/GD32VW553/GD32VW55X_Wifi_BLE_SDK/GD32VW55x_RELEASE_V1.0.2/MSDK/app\iperf3_main.c ****     app_print("\rClient specific:\r\n");
 708              		.loc 1 280 5
 709 010e 37050000 		lui	a0,%hi(.LC21)
 710 0112 13050500 		addi	a0,a0,%lo(.LC21)
 711 0116 97000000 		call	co_printf
 711      E7800000 
 712              	.LVL79:
 281:C:/Users/stapi/OneDrive/Desktop/GD32VW553/GD32VW55X_Wifi_BLE_SDK/GD32VW55x_RELEASE_V1.0.2/MSDK/app\iperf3_main.c ****     app_print("    -c <host>    run in client mode, connecting to <host>\r\n");
 713              		.loc 1 281 5
 714 011e 37050000 		lui	a0,%hi(.LC22)
 715 0122 13050500 		addi	a0,a0,%lo(.LC22)
 716 0126 97000000 		call	co_printf
 716      E7800000 
 717              	.LVL80:
 282:C:/Users/stapi/OneDrive/Desktop/GD32VW553/GD32VW55X_Wifi_BLE_SDK/GD32VW55x_RELEASE_V1.0.2/MSDK/app\iperf3_main.c ****     app_print("    -u           use UDP rather than TCP\r\n");
 718              		.loc 1 282 5
 719 012e 37050000 		lui	a0,%hi(.LC23)
 720 0132 13050500 		addi	a0,a0,%lo(.LC23)
 721 0136 97000000 		call	co_printf
 721      E7800000 
 722              	.LVL81:
 283:C:/Users/stapi/OneDrive/Desktop/GD32VW553/GD32VW55X_Wifi_BLE_SDK/GD32VW55x_RELEASE_V1.0.2/MSDK/app\iperf3_main.c ****     app_print("    -b #[KMG][/#] target bandwidth in bits/sec (0 for unlimited)\r\n");
 723              		.loc 1 283 5
 724 013e 37050000 		lui	a0,%hi(.LC24)
 725 0142 13050500 		addi	a0,a0,%lo(.LC24)
 726 0146 97000000 		call	co_printf
 726      E7800000 
 727              	.LVL82:
 284:C:/Users/stapi/OneDrive/Desktop/GD32VW553/GD32VW55X_Wifi_BLE_SDK/GD32VW55x_RELEASE_V1.0.2/MSDK/app\iperf3_main.c ****     app_print("                 (default 1 Mbit/sec for UDP, unlimited for TCP)\r\n");
 728              		.loc 1 284 5
 729 014e 37050000 		lui	a0,%hi(.LC25)
 730 0152 13050500 		addi	a0,a0,%lo(.LC25)
 731 0156 97000000 		call	co_printf
 731      E7800000 
 732              	.LVL83:
 285:C:/Users/stapi/OneDrive/Desktop/GD32VW553/GD32VW55X_Wifi_BLE_SDK/GD32VW55x_RELEASE_V1.0.2/MSDK/app\iperf3_main.c ****     app_print("                 (optional slash and packet count for burst mode)\r\n");
 733              		.loc 1 285 5
 734 015e 37050000 		lui	a0,%hi(.LC26)
 735 0162 13050500 		addi	a0,a0,%lo(.LC26)
 736 0166 97000000 		call	co_printf
 736      E7800000 
 737              	.LVL84:
 286:C:/Users/stapi/OneDrive/Desktop/GD32VW553/GD32VW55X_Wifi_BLE_SDK/GD32VW55x_RELEASE_V1.0.2/MSDK/app\iperf3_main.c ****     app_print("    -t #         time in seconds to transmit for (default 10 secs)\r\n");
 738              		.loc 1 286 5
 739 016e 37050000 		lui	a0,%hi(.LC27)
 740 0172 13050500 		addi	a0,a0,%lo(.LC27)
 741 0176 97000000 		call	co_printf
 741      E7800000 
 742              	.LVL85:
 287:C:/Users/stapi/OneDrive/Desktop/GD32VW553/GD32VW55X_Wifi_BLE_SDK/GD32VW55x_RELEASE_V1.0.2/MSDK/app\iperf3_main.c ****     app_print("    -l #[KMG]    length of buffer to read or write\r\n");
 743              		.loc 1 287 5
 744 017e 37050000 		lui	a0,%hi(.LC28)
 745 0182 13050500 		addi	a0,a0,%lo(.LC28)
 746 0186 97000000 		call	co_printf
 746      E7800000 
 747              	.LVL86:
 288:C:/Users/stapi/OneDrive/Desktop/GD32VW553/GD32VW55X_Wifi_BLE_SDK/GD32VW55x_RELEASE_V1.0.2/MSDK/app\iperf3_main.c ****     app_print("    -S #         set the IP 'type of service'\r\n");
 748              		.loc 1 288 5
 749 018e 37050000 		lui	a0,%hi(.LC29)
 750 0192 13050500 		addi	a0,a0,%lo(.LC29)
 751 0196 97000000 		call	co_printf
 751      E7800000 
 752              	.LVL87:
 289:C:/Users/stapi/OneDrive/Desktop/GD32VW553/GD32VW55X_Wifi_BLE_SDK/GD32VW55x_RELEASE_V1.0.2/MSDK/app\iperf3_main.c **** }
 753              		.loc 1 289 5
 754 019e 37050000 		lui	a0,%hi(.LC30)
 755 01a2 13050500 		addi	a0,a0,%lo(.LC30)
 756 01a6 97000000 		call	co_printf
 756      E7800000 
 757              	.LVL88:
 758 01ae 61BD     		j	.L26
 759              		.cfi_endproc
 760              	.LFE16:
 762              		.globl	iperf_task_tcb_ptr
 763              		.globl	iperf_task_num
 764              		.globl	iperf_terminate
 765              		.section	.sbss.iperf_task_num,"aw",@nobits
 766              		.set	.LANCHOR2,. + 0
 769              	iperf_task_num:
 770 0000 00       		.zero	1
 771              		.section	.sbss.iperf_task_tcb_ptr,"aw",@nobits
 772              		.align	2
 773              		.set	.LANCHOR1,. + 0
 776              	iperf_task_tcb_ptr:
 777 0000 00000000 		.zero	8
 777      00000000 
 778              		.section	.sbss.iperf_terminate,"aw",@nobits
 779              		.set	.LANCHOR0,. + 0
 782              	iperf_terminate:
 783 0000 00       		.zero	1
 784              		.text
 785              	.Letext0:
 786              		.file 2 "c:\\users\\stapi\\onedrive\\desktop\\gd32vw553\\embeddedbuilder_v1.4.7.26843\\tools\\nucl
 787              		.file 3 "c:\\users\\stapi\\onedrive\\desktop\\gd32vw553\\embeddedbuilder_v1.4.7.26843\\tools\\nucl
 788              		.file 4 "..\\..\\..\\..\\rtos\\rtos_wrapper/wrapper_os.h"
 789              		.file 5 "C:/Users/stapi/OneDrive/Desktop/GD32VW553/GD32VW55X_Wifi_BLE_SDK/GD32VW55x_RELEASE_V1.0.2
 790              		.file 6 "..\\..\\..\\..\\lwip\\lwip-2.1.2\\src\\include/lwip/arch.h"
 791              		.file 7 "..\\..\\..\\..\\lwip\\lwip-2.1.2\\src\\include/lwip/memp.h"
 792              		.file 8 "..\\..\\..\\..\\lwip\\lwip-2.1.2\\src\\include/lwip/sockets.h"
 793              		.file 9 "..\\..\\..\\..\\lwip\\iperf3/iperf_timer.h"
 794              		.file 10 "..\\..\\..\\..\\lwip\\iperf3/iperf.h"
 795              		.file 11 "..\\..\\..\\..\\lwip\\iperf3/iperf_api.h"
 796              		.file 12 "c:\\users\\stapi\\onedrive\\desktop\\gd32vw553\\embeddedbuilder_v1.4.7.26843\\tools\\nuc
 797              		.file 13 "..\\..\\..\\..\\util\\include/debug_print.h"
 798              		.file 14 "..\\..\\..\\..\\lwip\\lwip-2.1.2\\src\\include/lwip/netif.h"