   1              		.file	"iperf.c"
   2              		.option nopic
   3              		.attribute arch, "rv32i2p0_m2p0_a2p0_f2p0_c2p0_b_p0p94"
   4              		.attribute unaligned_access, 0
   5              		.attribute stack_align, 16
   6              		.text
   7              	.Ltext0:
   8              		.cfi_sections	.debug_frame
   9              		.section	.rodata.iperf_main.str1.4,"aMS",@progbits,1
  10              		.align	2
  11              	.LC0:
  12 0000 69706572 		.string	"iperf: create stream [%d]\r\n"
  12      663A2063 
  12      72656174 
  12      65207374 
  12      7265616D 
  13              		.align	2
  14              	.LC1:
  15 001c 49504552 		.string	"IPERF: Failed to alloc iperf buffer\r\n"
  15      463A2046 
  15      61696C65 
  15      6420746F 
  15      20616C6C 
  16 0042 0000     		.align	2
  17              	.LC2:
  18 0044 49504552 		.string	"IPERF: Failed to start UDP client\r\n"
  18      463A2046 
  18      61696C65 
  18      6420746F 
  18      20737461 
  19              		.align	2
  20              	.LC3:
  21 0068 49504552 		.string	"IPERF: Failed to start TCP client\r\n"
  21      463A2046 
  21      61696C65 
  21      6420746F 
  21      20737461 
  22              		.align	2
  23              	.LC4:
  24 008c 49504552 		.string	"IPERF : Failed to start UDP server\r\n"
  24      46203A20 
  24      4661696C 
  24      65642074 
  24      6F207374 
  25 00b1 000000   		.align	2
  26              	.LC5:
  27 00b4 49504552 		.string	"IPERF: Failed to start TCP server\r\n"
  27      463A2046 
  27      61696C65 
  27      6420746F 
  27      20737461 
  28              		.section	.text.iperf_main,"ax",@progbits
  29              		.align	1
  31              	iperf_main:
  32              	.LFB15:
  33              		.file 1 "C:/Users/stapi/OneDrive/Desktop/GD32VW553/GD32VW55X_Wifi_BLE_SDK/GD32VW55x_RELEASE_V1.0.2
   1:C:/Users/stapi/OneDrive/Desktop/GD32VW553/GD32VW55X_Wifi_BLE_SDK/GD32VW55x_RELEASE_V1.0.2/MSDK/app\iperf.c **** /*!
   2:C:/Users/stapi/OneDrive/Desktop/GD32VW553/GD32VW55X_Wifi_BLE_SDK/GD32VW55x_RELEASE_V1.0.2/MSDK/app\iperf.c ****     \file    iperf.c
   3:C:/Users/stapi/OneDrive/Desktop/GD32VW553/GD32VW55X_Wifi_BLE_SDK/GD32VW55x_RELEASE_V1.0.2/MSDK/app\iperf.c ****     \brief   iperf test for GD32VW55x SDK
   4:C:/Users/stapi/OneDrive/Desktop/GD32VW553/GD32VW55X_Wifi_BLE_SDK/GD32VW55x_RELEASE_V1.0.2/MSDK/app\iperf.c **** 
   5:C:/Users/stapi/OneDrive/Desktop/GD32VW553/GD32VW55X_Wifi_BLE_SDK/GD32VW55x_RELEASE_V1.0.2/MSDK/app\iperf.c ****     \version 2023-5-20, V1.0.0, firmware for GD32VW55x
   6:C:/Users/stapi/OneDrive/Desktop/GD32VW553/GD32VW55X_Wifi_BLE_SDK/GD32VW55x_RELEASE_V1.0.2/MSDK/app\iperf.c **** */
   7:C:/Users/stapi/OneDrive/Desktop/GD32VW553/GD32VW55X_Wifi_BLE_SDK/GD32VW55x_RELEASE_V1.0.2/MSDK/app\iperf.c **** 
   8:C:/Users/stapi/OneDrive/Desktop/GD32VW553/GD32VW55X_Wifi_BLE_SDK/GD32VW55x_RELEASE_V1.0.2/MSDK/app\iperf.c **** /*
   9:C:/Users/stapi/OneDrive/Desktop/GD32VW553/GD32VW55X_Wifi_BLE_SDK/GD32VW55x_RELEASE_V1.0.2/MSDK/app\iperf.c ****     Copyright (c) 2023, GigaDevice Semiconductor Inc.
  10:C:/Users/stapi/OneDrive/Desktop/GD32VW553/GD32VW55X_Wifi_BLE_SDK/GD32VW55x_RELEASE_V1.0.2/MSDK/app\iperf.c **** 
  11:C:/Users/stapi/OneDrive/Desktop/GD32VW553/GD32VW55X_Wifi_BLE_SDK/GD32VW55x_RELEASE_V1.0.2/MSDK/app\iperf.c ****     Redistribution and use in source and binary forms, with or without modification,
  12:C:/Users/stapi/OneDrive/Desktop/GD32VW553/GD32VW55X_Wifi_BLE_SDK/GD32VW55x_RELEASE_V1.0.2/MSDK/app\iperf.c **** are permitted provided that the following conditions are met:
  13:C:/Users/stapi/OneDrive/Desktop/GD32VW553/GD32VW55X_Wifi_BLE_SDK/GD32VW55x_RELEASE_V1.0.2/MSDK/app\iperf.c **** 
  14:C:/Users/stapi/OneDrive/Desktop/GD32VW553/GD32VW55X_Wifi_BLE_SDK/GD32VW55x_RELEASE_V1.0.2/MSDK/app\iperf.c ****     1. Redistributions of source code must retain the above copyright notice, this
  15:C:/Users/stapi/OneDrive/Desktop/GD32VW553/GD32VW55X_Wifi_BLE_SDK/GD32VW55x_RELEASE_V1.0.2/MSDK/app\iperf.c ****        list of conditions and the following disclaimer.
  16:C:/Users/stapi/OneDrive/Desktop/GD32VW553/GD32VW55X_Wifi_BLE_SDK/GD32VW55x_RELEASE_V1.0.2/MSDK/app\iperf.c ****     2. Redistributions in binary form must reproduce the above copyright notice,
  17:C:/Users/stapi/OneDrive/Desktop/GD32VW553/GD32VW55X_Wifi_BLE_SDK/GD32VW55x_RELEASE_V1.0.2/MSDK/app\iperf.c ****        this list of conditions and the following disclaimer in the documentation
  18:C:/Users/stapi/OneDrive/Desktop/GD32VW553/GD32VW55X_Wifi_BLE_SDK/GD32VW55x_RELEASE_V1.0.2/MSDK/app\iperf.c ****        and/or other materials provided with the distribution.
  19:C:/Users/stapi/OneDrive/Desktop/GD32VW553/GD32VW55X_Wifi_BLE_SDK/GD32VW55x_RELEASE_V1.0.2/MSDK/app\iperf.c ****     3. Neither the name of the copyright holder nor the names of its contributors
  20:C:/Users/stapi/OneDrive/Desktop/GD32VW553/GD32VW55X_Wifi_BLE_SDK/GD32VW55x_RELEASE_V1.0.2/MSDK/app\iperf.c ****        may be used to endorse or promote products derived from this software without
  21:C:/Users/stapi/OneDrive/Desktop/GD32VW553/GD32VW55X_Wifi_BLE_SDK/GD32VW55x_RELEASE_V1.0.2/MSDK/app\iperf.c ****        specific prior written permission.
  22:C:/Users/stapi/OneDrive/Desktop/GD32VW553/GD32VW55X_Wifi_BLE_SDK/GD32VW55x_RELEASE_V1.0.2/MSDK/app\iperf.c **** 
  23:C:/Users/stapi/OneDrive/Desktop/GD32VW553/GD32VW55X_Wifi_BLE_SDK/GD32VW55x_RELEASE_V1.0.2/MSDK/app\iperf.c ****     THIS SOFTWARE IS PROVIDED BY THE COPYRIGHT HOLDERS AND CONTRIBUTORS "AS IS"
  24:C:/Users/stapi/OneDrive/Desktop/GD32VW553/GD32VW55X_Wifi_BLE_SDK/GD32VW55x_RELEASE_V1.0.2/MSDK/app\iperf.c **** AND ANY EXPRESS OR IMPLIED WARRANTIES, INCLUDING, BUT NOT LIMITED TO, THE IMPLIED
  25:C:/Users/stapi/OneDrive/Desktop/GD32VW553/GD32VW55X_Wifi_BLE_SDK/GD32VW55x_RELEASE_V1.0.2/MSDK/app\iperf.c **** WARRANTIES OF MERCHANTABILITY AND FITNESS FOR A PARTICULAR PURPOSE ARE DISCLAIMED.
  26:C:/Users/stapi/OneDrive/Desktop/GD32VW553/GD32VW55X_Wifi_BLE_SDK/GD32VW55x_RELEASE_V1.0.2/MSDK/app\iperf.c **** IN NO EVENT SHALL THE COPYRIGHT HOLDER OR CONTRIBUTORS BE LIABLE FOR ANY DIRECT,
  27:C:/Users/stapi/OneDrive/Desktop/GD32VW553/GD32VW55X_Wifi_BLE_SDK/GD32VW55x_RELEASE_V1.0.2/MSDK/app\iperf.c **** INDIRECT, INCIDENTAL, SPECIAL, EXEMPLARY, OR CONSEQUENTIAL DAMAGES (INCLUDING, BUT
  28:C:/Users/stapi/OneDrive/Desktop/GD32VW553/GD32VW55X_Wifi_BLE_SDK/GD32VW55x_RELEASE_V1.0.2/MSDK/app\iperf.c **** NOT LIMITED TO, PROCUREMENT OF SUBSTITUTE GOODS OR SERVICES; LOSS OF USE, DATA, OR
  29:C:/Users/stapi/OneDrive/Desktop/GD32VW553/GD32VW55X_Wifi_BLE_SDK/GD32VW55x_RELEASE_V1.0.2/MSDK/app\iperf.c **** PROFITS; OR BUSINESS INTERRUPTION) HOWEVER CAUSED AND ON ANY THEORY OF LIABILITY,
  30:C:/Users/stapi/OneDrive/Desktop/GD32VW553/GD32VW55X_Wifi_BLE_SDK/GD32VW55x_RELEASE_V1.0.2/MSDK/app\iperf.c **** WHETHER IN CONTRACT, STRICT LIABILITY, OR TORT (INCLUDING NEGLIGENCE OR OTHERWISE)
  31:C:/Users/stapi/OneDrive/Desktop/GD32VW553/GD32VW55X_Wifi_BLE_SDK/GD32VW55x_RELEASE_V1.0.2/MSDK/app\iperf.c **** ARISING IN ANY WAY OUT OF THE USE OF THIS SOFTWARE, EVEN IF ADVISED OF THE POSSIBILITY
  32:C:/Users/stapi/OneDrive/Desktop/GD32VW553/GD32VW55X_Wifi_BLE_SDK/GD32VW55x_RELEASE_V1.0.2/MSDK/app\iperf.c **** OF SUCH DAMAGE.
  33:C:/Users/stapi/OneDrive/Desktop/GD32VW553/GD32VW55X_Wifi_BLE_SDK/GD32VW55x_RELEASE_V1.0.2/MSDK/app\iperf.c **** */
  34:C:/Users/stapi/OneDrive/Desktop/GD32VW553/GD32VW55X_Wifi_BLE_SDK/GD32VW55x_RELEASE_V1.0.2/MSDK/app\iperf.c **** 
  35:C:/Users/stapi/OneDrive/Desktop/GD32VW553/GD32VW55X_Wifi_BLE_SDK/GD32VW55x_RELEASE_V1.0.2/MSDK/app\iperf.c **** /*
  36:C:/Users/stapi/OneDrive/Desktop/GD32VW553/GD32VW55X_Wifi_BLE_SDK/GD32VW55x_RELEASE_V1.0.2/MSDK/app\iperf.c ****  * INCLUDE FILES
  37:C:/Users/stapi/OneDrive/Desktop/GD32VW553/GD32VW55X_Wifi_BLE_SDK/GD32VW55x_RELEASE_V1.0.2/MSDK/app\iperf.c ****  ****************************************************************************************
  38:C:/Users/stapi/OneDrive/Desktop/GD32VW553/GD32VW55X_Wifi_BLE_SDK/GD32VW55x_RELEASE_V1.0.2/MSDK/app\iperf.c ****  */
  39:C:/Users/stapi/OneDrive/Desktop/GD32VW553/GD32VW55X_Wifi_BLE_SDK/GD32VW55x_RELEASE_V1.0.2/MSDK/app\iperf.c **** 
  40:C:/Users/stapi/OneDrive/Desktop/GD32VW553/GD32VW55X_Wifi_BLE_SDK/GD32VW55x_RELEASE_V1.0.2/MSDK/app\iperf.c **** #include "net_iperf.h"
  41:C:/Users/stapi/OneDrive/Desktop/GD32VW553/GD32VW55X_Wifi_BLE_SDK/GD32VW55x_RELEASE_V1.0.2/MSDK/app\iperf.c **** #include "net_iperf_al.h"
  42:C:/Users/stapi/OneDrive/Desktop/GD32VW553/GD32VW55X_Wifi_BLE_SDK/GD32VW55x_RELEASE_V1.0.2/MSDK/app\iperf.c **** #include "dbg_print.h"
  43:C:/Users/stapi/OneDrive/Desktop/GD32VW553/GD32VW55X_Wifi_BLE_SDK/GD32VW55x_RELEASE_V1.0.2/MSDK/app\iperf.c **** #include "cmd_shell.h"
  44:C:/Users/stapi/OneDrive/Desktop/GD32VW553/GD32VW55X_Wifi_BLE_SDK/GD32VW55x_RELEASE_V1.0.2/MSDK/app\iperf.c **** #include "tcpip.h"
  45:C:/Users/stapi/OneDrive/Desktop/GD32VW553/GD32VW55X_Wifi_BLE_SDK/GD32VW55x_RELEASE_V1.0.2/MSDK/app\iperf.c **** 
  46:C:/Users/stapi/OneDrive/Desktop/GD32VW553/GD32VW55X_Wifi_BLE_SDK/GD32VW55x_RELEASE_V1.0.2/MSDK/app\iperf.c **** #ifdef CONFIG_IPERF_TEST
  47:C:/Users/stapi/OneDrive/Desktop/GD32VW553/GD32VW55X_Wifi_BLE_SDK/GD32VW55x_RELEASE_V1.0.2/MSDK/app\iperf.c **** /*
  48:C:/Users/stapi/OneDrive/Desktop/GD32VW553/GD32VW55X_Wifi_BLE_SDK/GD32VW55x_RELEASE_V1.0.2/MSDK/app\iperf.c ****  * DEFINITIONS
  49:C:/Users/stapi/OneDrive/Desktop/GD32VW553/GD32VW55X_Wifi_BLE_SDK/GD32VW55x_RELEASE_V1.0.2/MSDK/app\iperf.c ****  ****************************************************************************************
  50:C:/Users/stapi/OneDrive/Desktop/GD32VW553/GD32VW55X_Wifi_BLE_SDK/GD32VW55x_RELEASE_V1.0.2/MSDK/app\iperf.c ****  */
  51:C:/Users/stapi/OneDrive/Desktop/GD32VW553/GD32VW55X_Wifi_BLE_SDK/GD32VW55x_RELEASE_V1.0.2/MSDK/app\iperf.c **** /// Default Port
  52:C:/Users/stapi/OneDrive/Desktop/GD32VW553/GD32VW55X_Wifi_BLE_SDK/GD32VW55x_RELEASE_V1.0.2/MSDK/app\iperf.c **** #define IPERF_DEFAULT_PORT              5001
  53:C:/Users/stapi/OneDrive/Desktop/GD32VW553/GD32VW55X_Wifi_BLE_SDK/GD32VW55x_RELEASE_V1.0.2/MSDK/app\iperf.c **** /// Default test duration (in 0.1 seconds)
  54:C:/Users/stapi/OneDrive/Desktop/GD32VW553/GD32VW55X_Wifi_BLE_SDK/GD32VW55x_RELEASE_V1.0.2/MSDK/app\iperf.c **** #define IPERF_DEFAULT_TIME_AMOUNT       10
  55:C:/Users/stapi/OneDrive/Desktop/GD32VW553/GD32VW55X_Wifi_BLE_SDK/GD32VW55x_RELEASE_V1.0.2/MSDK/app\iperf.c **** /// Default buffer length (in bytes)
  56:C:/Users/stapi/OneDrive/Desktop/GD32VW553/GD32VW55X_Wifi_BLE_SDK/GD32VW55x_RELEASE_V1.0.2/MSDK/app\iperf.c **** #define IPERF_DEFAULT_BUFFER_LEN        8 * 1024
  57:C:/Users/stapi/OneDrive/Desktop/GD32VW553/GD32VW55X_Wifi_BLE_SDK/GD32VW55x_RELEASE_V1.0.2/MSDK/app\iperf.c **** 
  58:C:/Users/stapi/OneDrive/Desktop/GD32VW553/GD32VW55X_Wifi_BLE_SDK/GD32VW55x_RELEASE_V1.0.2/MSDK/app\iperf.c **** /*
  59:C:/Users/stapi/OneDrive/Desktop/GD32VW553/GD32VW55X_Wifi_BLE_SDK/GD32VW55x_RELEASE_V1.0.2/MSDK/app\iperf.c ****  * GLOBAL VARIABLES
  60:C:/Users/stapi/OneDrive/Desktop/GD32VW553/GD32VW55X_Wifi_BLE_SDK/GD32VW55x_RELEASE_V1.0.2/MSDK/app\iperf.c ****  ****************************************************************************************
  61:C:/Users/stapi/OneDrive/Desktop/GD32VW553/GD32VW55X_Wifi_BLE_SDK/GD32VW55x_RELEASE_V1.0.2/MSDK/app\iperf.c ****  */
  62:C:/Users/stapi/OneDrive/Desktop/GD32VW553/GD32VW55X_Wifi_BLE_SDK/GD32VW55x_RELEASE_V1.0.2/MSDK/app\iperf.c **** 
  63:C:/Users/stapi/OneDrive/Desktop/GD32VW553/GD32VW55X_Wifi_BLE_SDK/GD32VW55x_RELEASE_V1.0.2/MSDK/app\iperf.c **** /// Unit of measurement of data
  64:C:/Users/stapi/OneDrive/Desktop/GD32VW553/GD32VW55X_Wifi_BLE_SDK/GD32VW55x_RELEASE_V1.0.2/MSDK/app\iperf.c **** enum data_type
  65:C:/Users/stapi/OneDrive/Desktop/GD32VW553/GD32VW55X_Wifi_BLE_SDK/GD32VW55x_RELEASE_V1.0.2/MSDK/app\iperf.c **** {
  66:C:/Users/stapi/OneDrive/Desktop/GD32VW553/GD32VW55X_Wifi_BLE_SDK/GD32VW55x_RELEASE_V1.0.2/MSDK/app\iperf.c ****     CONV_UNIT,
  67:C:/Users/stapi/OneDrive/Desktop/GD32VW553/GD32VW55X_Wifi_BLE_SDK/GD32VW55x_RELEASE_V1.0.2/MSDK/app\iperf.c ****     CONV_KILO,
  68:C:/Users/stapi/OneDrive/Desktop/GD32VW553/GD32VW55X_Wifi_BLE_SDK/GD32VW55x_RELEASE_V1.0.2/MSDK/app\iperf.c ****     CONV_MEGA,
  69:C:/Users/stapi/OneDrive/Desktop/GD32VW553/GD32VW55X_Wifi_BLE_SDK/GD32VW55x_RELEASE_V1.0.2/MSDK/app\iperf.c ****     CONV_GIGA,
  70:C:/Users/stapi/OneDrive/Desktop/GD32VW553/GD32VW55X_Wifi_BLE_SDK/GD32VW55x_RELEASE_V1.0.2/MSDK/app\iperf.c **** };
  71:C:/Users/stapi/OneDrive/Desktop/GD32VW553/GD32VW55X_Wifi_BLE_SDK/GD32VW55x_RELEASE_V1.0.2/MSDK/app\iperf.c **** 
  72:C:/Users/stapi/OneDrive/Desktop/GD32VW553/GD32VW55X_Wifi_BLE_SDK/GD32VW55x_RELEASE_V1.0.2/MSDK/app\iperf.c **** /// Unit of measurements for bytes
  73:C:/Users/stapi/OneDrive/Desktop/GD32VW553/GD32VW55X_Wifi_BLE_SDK/GD32VW55x_RELEASE_V1.0.2/MSDK/app\iperf.c **** const char *net_iperf_byte_lbl[] =
  74:C:/Users/stapi/OneDrive/Desktop/GD32VW553/GD32VW55X_Wifi_BLE_SDK/GD32VW55x_RELEASE_V1.0.2/MSDK/app\iperf.c **** {
  75:C:/Users/stapi/OneDrive/Desktop/GD32VW553/GD32VW55X_Wifi_BLE_SDK/GD32VW55x_RELEASE_V1.0.2/MSDK/app\iperf.c ****     [CONV_UNIT] = "Byte",
  76:C:/Users/stapi/OneDrive/Desktop/GD32VW553/GD32VW55X_Wifi_BLE_SDK/GD32VW55x_RELEASE_V1.0.2/MSDK/app\iperf.c ****     [CONV_KILO] = "KByte",
  77:C:/Users/stapi/OneDrive/Desktop/GD32VW553/GD32VW55X_Wifi_BLE_SDK/GD32VW55x_RELEASE_V1.0.2/MSDK/app\iperf.c ****     [CONV_MEGA] = "MByte",
  78:C:/Users/stapi/OneDrive/Desktop/GD32VW553/GD32VW55X_Wifi_BLE_SDK/GD32VW55x_RELEASE_V1.0.2/MSDK/app\iperf.c ****     [CONV_GIGA] = "GByte",
  79:C:/Users/stapi/OneDrive/Desktop/GD32VW553/GD32VW55X_Wifi_BLE_SDK/GD32VW55x_RELEASE_V1.0.2/MSDK/app\iperf.c **** };
  80:C:/Users/stapi/OneDrive/Desktop/GD32VW553/GD32VW55X_Wifi_BLE_SDK/GD32VW55x_RELEASE_V1.0.2/MSDK/app\iperf.c **** 
  81:C:/Users/stapi/OneDrive/Desktop/GD32VW553/GD32VW55X_Wifi_BLE_SDK/GD32VW55x_RELEASE_V1.0.2/MSDK/app\iperf.c **** /// Unit of measurements for bit
  82:C:/Users/stapi/OneDrive/Desktop/GD32VW553/GD32VW55X_Wifi_BLE_SDK/GD32VW55x_RELEASE_V1.0.2/MSDK/app\iperf.c **** const char *net_iperf_bit_lbl[] =
  83:C:/Users/stapi/OneDrive/Desktop/GD32VW553/GD32VW55X_Wifi_BLE_SDK/GD32VW55x_RELEASE_V1.0.2/MSDK/app\iperf.c **** {
  84:C:/Users/stapi/OneDrive/Desktop/GD32VW553/GD32VW55X_Wifi_BLE_SDK/GD32VW55x_RELEASE_V1.0.2/MSDK/app\iperf.c ****     [CONV_UNIT] = "bit",
  85:C:/Users/stapi/OneDrive/Desktop/GD32VW553/GD32VW55X_Wifi_BLE_SDK/GD32VW55x_RELEASE_V1.0.2/MSDK/app\iperf.c ****     [CONV_KILO] = "Kbits",
  86:C:/Users/stapi/OneDrive/Desktop/GD32VW553/GD32VW55X_Wifi_BLE_SDK/GD32VW55x_RELEASE_V1.0.2/MSDK/app\iperf.c ****     [CONV_MEGA] = "Mbits",
  87:C:/Users/stapi/OneDrive/Desktop/GD32VW553/GD32VW55X_Wifi_BLE_SDK/GD32VW55x_RELEASE_V1.0.2/MSDK/app\iperf.c ****     [CONV_GIGA] = "Gbits",
  88:C:/Users/stapi/OneDrive/Desktop/GD32VW553/GD32VW55X_Wifi_BLE_SDK/GD32VW55x_RELEASE_V1.0.2/MSDK/app\iperf.c **** };
  89:C:/Users/stapi/OneDrive/Desktop/GD32VW553/GD32VW55X_Wifi_BLE_SDK/GD32VW55x_RELEASE_V1.0.2/MSDK/app\iperf.c **** 
  90:C:/Users/stapi/OneDrive/Desktop/GD32VW553/GD32VW55X_Wifi_BLE_SDK/GD32VW55x_RELEASE_V1.0.2/MSDK/app\iperf.c **** #if 0
  91:C:/Users/stapi/OneDrive/Desktop/GD32VW553/GD32VW55X_Wifi_BLE_SDK/GD32VW55x_RELEASE_V1.0.2/MSDK/app\iperf.c **** /// Long version of iperf helf
  92:C:/Users/stapi/OneDrive/Desktop/GD32VW553/GD32VW55X_Wifi_BLE_SDK/GD32VW55x_RELEASE_V1.0.2/MSDK/app\iperf.c **** const char iperf_long_help[] =
  93:C:/Users/stapi/OneDrive/Desktop/GD32VW553/GD32VW55X_Wifi_BLE_SDK/GD32VW55x_RELEASE_V1.0.2/MSDK/app\iperf.c ****     "\
  94:C:/Users/stapi/OneDrive/Desktop/GD32VW553/GD32VW55X_Wifi_BLE_SDK/GD32VW55x_RELEASE_V1.0.2/MSDK/app\iperf.c **** Client/Server:\n\
  95:C:/Users/stapi/OneDrive/Desktop/GD32VW553/GD32VW55X_Wifi_BLE_SDK/GD32VW55x_RELEASE_V1.0.2/MSDK/app\iperf.c ****   -i, --interval  #        seconds between periodic bandwidth reports\n\
  96:C:/Users/stapi/OneDrive/Desktop/GD32VW553/GD32VW55X_Wifi_BLE_SDK/GD32VW55x_RELEASE_V1.0.2/MSDK/app\iperf.c ****   -l, --len       #[KM]    length of buffer to read or write (default 8 KB)\n\
  97:C:/Users/stapi/OneDrive/Desktop/GD32VW553/GD32VW55X_Wifi_BLE_SDK/GD32VW55x_RELEASE_V1.0.2/MSDK/app\iperf.c ****   -p, --port      #        server port to listen on/connect to\n\
  98:C:/Users/stapi/OneDrive/Desktop/GD32VW553/GD32VW55X_Wifi_BLE_SDK/GD32VW55x_RELEASE_V1.0.2/MSDK/app\iperf.c ****   -u, --udp                use UDP rather than TCP\n\n\
  99:C:/Users/stapi/OneDrive/Desktop/GD32VW553/GD32VW55X_Wifi_BLE_SDK/GD32VW55x_RELEASE_V1.0.2/MSDK/app\iperf.c **** Client specific:\n\
 100:C:/Users/stapi/OneDrive/Desktop/GD32VW553/GD32VW55X_Wifi_BLE_SDK/GD32VW55x_RELEASE_V1.0.2/MSDK/app\iperf.c ****   -b, --bandwidth #[KM]    for UDP, bandwidth to send at in bits/sec\n\
 101:C:/Users/stapi/OneDrive/Desktop/GD32VW553/GD32VW55X_Wifi_BLE_SDK/GD32VW55x_RELEASE_V1.0.2/MSDK/app\iperf.c ****                          (default 1 Mbit/sec, implies -u)\n\
 102:C:/Users/stapi/OneDrive/Desktop/GD32VW553/GD32VW55X_Wifi_BLE_SDK/GD32VW55x_RELEASE_V1.0.2/MSDK/app\iperf.c ****   -c, --client    <host>   run in client mode, connecting to <host>\n\
 103:C:/Users/stapi/OneDrive/Desktop/GD32VW553/GD32VW55X_Wifi_BLE_SDK/GD32VW55x_RELEASE_V1.0.2/MSDK/app\iperf.c ****   -t, --time      #        time in seconds to transmit for (default 10 secs)\n\
 104:C:/Users/stapi/OneDrive/Desktop/GD32VW553/GD32VW55X_Wifi_BLE_SDK/GD32VW55x_RELEASE_V1.0.2/MSDK/app\iperf.c ****   -S              #        type-of-service for outgoing packets.\n\
 105:C:/Users/stapi/OneDrive/Desktop/GD32VW553/GD32VW55X_Wifi_BLE_SDK/GD32VW55x_RELEASE_V1.0.2/MSDK/app\iperf.c ****                            You may specify the value in hex with a '0x' prefix, in octal with a '0'
 106:C:/Users/stapi/OneDrive/Desktop/GD32VW553/GD32VW55X_Wifi_BLE_SDK/GD32VW55x_RELEASE_V1.0.2/MSDK/app\iperf.c ****   -T              #        time-to-live for outgoing multicast packets\n\
 107:C:/Users/stapi/OneDrive/Desktop/GD32VW553/GD32VW55X_Wifi_BLE_SDK/GD32VW55x_RELEASE_V1.0.2/MSDK/app\iperf.c ****   -w              #[KM]    TCP window size (ignored for now)\n\
 108:C:/Users/stapi/OneDrive/Desktop/GD32VW553/GD32VW55X_Wifi_BLE_SDK/GD32VW55x_RELEASE_V1.0.2/MSDK/app\iperf.c **** Server specific:\n\
 109:C:/Users/stapi/OneDrive/Desktop/GD32VW553/GD32VW55X_Wifi_BLE_SDK/GD32VW55x_RELEASE_V1.0.2/MSDK/app\iperf.c ****   -s, --server             run in server mode";
 110:C:/Users/stapi/OneDrive/Desktop/GD32VW553/GD32VW55X_Wifi_BLE_SDK/GD32VW55x_RELEASE_V1.0.2/MSDK/app\iperf.c **** #endif
 111:C:/Users/stapi/OneDrive/Desktop/GD32VW553/GD32VW55X_Wifi_BLE_SDK/GD32VW55x_RELEASE_V1.0.2/MSDK/app\iperf.c **** 
 112:C:/Users/stapi/OneDrive/Desktop/GD32VW553/GD32VW55X_Wifi_BLE_SDK/GD32VW55x_RELEASE_V1.0.2/MSDK/app\iperf.c **** /// Table of iperf streams
 113:C:/Users/stapi/OneDrive/Desktop/GD32VW553/GD32VW55X_Wifi_BLE_SDK/GD32VW55x_RELEASE_V1.0.2/MSDK/app\iperf.c **** struct net_iperf_stream streams[IPERF_MAX_STREAMS] = {0};
 114:C:/Users/stapi/OneDrive/Desktop/GD32VW553/GD32VW55X_Wifi_BLE_SDK/GD32VW55x_RELEASE_V1.0.2/MSDK/app\iperf.c **** 
 115:C:/Users/stapi/OneDrive/Desktop/GD32VW553/GD32VW55X_Wifi_BLE_SDK/GD32VW55x_RELEASE_V1.0.2/MSDK/app\iperf.c **** /*
 116:C:/Users/stapi/OneDrive/Desktop/GD32VW553/GD32VW55X_Wifi_BLE_SDK/GD32VW55x_RELEASE_V1.0.2/MSDK/app\iperf.c ****  * FUNCTIONS
 117:C:/Users/stapi/OneDrive/Desktop/GD32VW553/GD32VW55X_Wifi_BLE_SDK/GD32VW55x_RELEASE_V1.0.2/MSDK/app\iperf.c ****  ****************************************************************************************
 118:C:/Users/stapi/OneDrive/Desktop/GD32VW553/GD32VW55X_Wifi_BLE_SDK/GD32VW55x_RELEASE_V1.0.2/MSDK/app\iperf.c ****  */
 119:C:/Users/stapi/OneDrive/Desktop/GD32VW553/GD32VW55X_Wifi_BLE_SDK/GD32VW55x_RELEASE_V1.0.2/MSDK/app\iperf.c **** /**
 120:C:/Users/stapi/OneDrive/Desktop/GD32VW553/GD32VW55X_Wifi_BLE_SDK/GD32VW55x_RELEASE_V1.0.2/MSDK/app\iperf.c ****  ****************************************************************************************
 121:C:/Users/stapi/OneDrive/Desktop/GD32VW553/GD32VW55X_Wifi_BLE_SDK/GD32VW55x_RELEASE_V1.0.2/MSDK/app\iperf.c ****  * @brief IPERF task implementation.
 122:C:/Users/stapi/OneDrive/Desktop/GD32VW553/GD32VW55X_Wifi_BLE_SDK/GD32VW55x_RELEASE_V1.0.2/MSDK/app\iperf.c ****  ****************************************************************************************
 123:C:/Users/stapi/OneDrive/Desktop/GD32VW553/GD32VW55X_Wifi_BLE_SDK/GD32VW55x_RELEASE_V1.0.2/MSDK/app\iperf.c ****  */
 124:C:/Users/stapi/OneDrive/Desktop/GD32VW553/GD32VW55X_Wifi_BLE_SDK/GD32VW55x_RELEASE_V1.0.2/MSDK/app\iperf.c **** static void iperf_main(void *param)
 125:C:/Users/stapi/OneDrive/Desktop/GD32VW553/GD32VW55X_Wifi_BLE_SDK/GD32VW55x_RELEASE_V1.0.2/MSDK/app\iperf.c **** {
  34              		.loc 1 125 1
  35              		.cfi_startproc
  36              	.LVL0:
  37 0000 17030000 		call	t0,__riscv_save_1
  37      E7020300 
  38              		.cfi_offset 8, -8
  39              		.cfi_offset 1, -4
  40              		.cfi_def_cfa_offset 16
 126:C:/Users/stapi/OneDrive/Desktop/GD32VW553/GD32VW55X_Wifi_BLE_SDK/GD32VW55x_RELEASE_V1.0.2/MSDK/app\iperf.c ****     struct net_iperf_stream *iperf_stream = param;
  41              		.loc 1 126 5
  42              	.LVL1:
 127:C:/Users/stapi/OneDrive/Desktop/GD32VW553/GD32VW55X_Wifi_BLE_SDK/GD32VW55x_RELEASE_V1.0.2/MSDK/app\iperf.c ****     struct iperf_settings_t *iperf_settings = &(iperf_stream->iperf_settings);
  43              		.loc 1 127 5
 128:C:/Users/stapi/OneDrive/Desktop/GD32VW553/GD32VW55X_Wifi_BLE_SDK/GD32VW55x_RELEASE_V1.0.2/MSDK/app\iperf.c **** 
 129:C:/Users/stapi/OneDrive/Desktop/GD32VW553/GD32VW55X_Wifi_BLE_SDK/GD32VW55x_RELEASE_V1.0.2/MSDK/app\iperf.c ****     iperf_stream->active = true;
  44              		.loc 1 129 5
 130:C:/Users/stapi/OneDrive/Desktop/GD32VW553/GD32VW55X_Wifi_BLE_SDK/GD32VW55x_RELEASE_V1.0.2/MSDK/app\iperf.c ****     app_print("iperf: create stream [%d]\r\n", iperf_stream->id);
  45              		.loc 1 130 5 is_stmt 0
  46 0008 0C41     		lw	a1,0(a0)
 129:C:/Users/stapi/OneDrive/Desktop/GD32VW553/GD32VW55X_Wifi_BLE_SDK/GD32VW55x_RELEASE_V1.0.2/MSDK/app\iperf.c ****     app_print("iperf: create stream [%d]\r\n", iperf_stream->id);
  47              		.loc 1 129 26
  48 000a 8547     		li	a5,1
 125:C:/Users/stapi/OneDrive/Desktop/GD32VW553/GD32VW55X_Wifi_BLE_SDK/GD32VW55x_RELEASE_V1.0.2/MSDK/app\iperf.c ****     struct net_iperf_stream *iperf_stream = param;
  49              		.loc 1 125 1
  50 000c 2A84     		mv	s0,a0
 129:C:/Users/stapi/OneDrive/Desktop/GD32VW553/GD32VW55X_Wifi_BLE_SDK/GD32VW55x_RELEASE_V1.0.2/MSDK/app\iperf.c ****     app_print("iperf: create stream [%d]\r\n", iperf_stream->id);
  51              		.loc 1 129 26
  52 000e 2302F500 		sb	a5,4(a0)
  53              		.loc 1 130 5 is_stmt 1
  54 0012 37050000 		lui	a0,%hi(.LC0)
  55              	.LVL2:
  56 0016 13050500 		addi	a0,a0,%lo(.LC0)
  57 001a 97000000 		call	co_printf
  57      E7800000 
  58              	.LVL3:
 131:C:/Users/stapi/OneDrive/Desktop/GD32VW553/GD32VW55X_Wifi_BLE_SDK/GD32VW55x_RELEASE_V1.0.2/MSDK/app\iperf.c **** 
 132:C:/Users/stapi/OneDrive/Desktop/GD32VW553/GD32VW55X_Wifi_BLE_SDK/GD32VW55x_RELEASE_V1.0.2/MSDK/app\iperf.c ****     if (net_iperf_buf_init(iperf_stream))
  59              		.loc 1 132 5
  60              		.loc 1 132 9 is_stmt 0
  61 0022 2285     		mv	a0,s0
  62 0024 97000000 		call	net_iperf_buf_init
  62      E7800000 
  63              	.LVL4:
  64              		.loc 1 132 8
  65 002c 2DC1     		beq	a0,zero,.L2
 133:C:/Users/stapi/OneDrive/Desktop/GD32VW553/GD32VW55X_Wifi_BLE_SDK/GD32VW55x_RELEASE_V1.0.2/MSDK/app\iperf.c ****     {
 134:C:/Users/stapi/OneDrive/Desktop/GD32VW553/GD32VW55X_Wifi_BLE_SDK/GD32VW55x_RELEASE_V1.0.2/MSDK/app\iperf.c ****         app_print("IPERF: Failed to alloc iperf buffer\r\n");
  66              		.loc 1 134 9 is_stmt 1
  67 002e 37050000 		lui	a0,%hi(.LC1)
  68 0032 13050500 		addi	a0,a0,%lo(.LC1)
  69              	.L19:
 135:C:/Users/stapi/OneDrive/Desktop/GD32VW553/GD32VW55X_Wifi_BLE_SDK/GD32VW55x_RELEASE_V1.0.2/MSDK/app\iperf.c ****         goto end;
 136:C:/Users/stapi/OneDrive/Desktop/GD32VW553/GD32VW55X_Wifi_BLE_SDK/GD32VW55x_RELEASE_V1.0.2/MSDK/app\iperf.c ****     }
 137:C:/Users/stapi/OneDrive/Desktop/GD32VW553/GD32VW55X_Wifi_BLE_SDK/GD32VW55x_RELEASE_V1.0.2/MSDK/app\iperf.c **** 
 138:C:/Users/stapi/OneDrive/Desktop/GD32VW553/GD32VW55X_Wifi_BLE_SDK/GD32VW55x_RELEASE_V1.0.2/MSDK/app\iperf.c ****     if (!iperf_settings->flags.is_server)
 139:C:/Users/stapi/OneDrive/Desktop/GD32VW553/GD32VW55X_Wifi_BLE_SDK/GD32VW55x_RELEASE_V1.0.2/MSDK/app\iperf.c ****     {
 140:C:/Users/stapi/OneDrive/Desktop/GD32VW553/GD32VW55X_Wifi_BLE_SDK/GD32VW55x_RELEASE_V1.0.2/MSDK/app\iperf.c ****         if (iperf_settings->flags.is_udp)
 141:C:/Users/stapi/OneDrive/Desktop/GD32VW553/GD32VW55X_Wifi_BLE_SDK/GD32VW55x_RELEASE_V1.0.2/MSDK/app\iperf.c ****         {
 142:C:/Users/stapi/OneDrive/Desktop/GD32VW553/GD32VW55X_Wifi_BLE_SDK/GD32VW55x_RELEASE_V1.0.2/MSDK/app\iperf.c ****             // UDP Client
 143:C:/Users/stapi/OneDrive/Desktop/GD32VW553/GD32VW55X_Wifi_BLE_SDK/GD32VW55x_RELEASE_V1.0.2/MSDK/app\iperf.c ****             if (net_iperf_udp_client_run(iperf_stream))
 144:C:/Users/stapi/OneDrive/Desktop/GD32VW553/GD32VW55X_Wifi_BLE_SDK/GD32VW55x_RELEASE_V1.0.2/MSDK/app\iperf.c ****             {
 145:C:/Users/stapi/OneDrive/Desktop/GD32VW553/GD32VW55X_Wifi_BLE_SDK/GD32VW55x_RELEASE_V1.0.2/MSDK/app\iperf.c ****                 app_print("IPERF: Failed to start UDP client\r\n");
 146:C:/Users/stapi/OneDrive/Desktop/GD32VW553/GD32VW55X_Wifi_BLE_SDK/GD32VW55x_RELEASE_V1.0.2/MSDK/app\iperf.c ****                 goto end;
 147:C:/Users/stapi/OneDrive/Desktop/GD32VW553/GD32VW55X_Wifi_BLE_SDK/GD32VW55x_RELEASE_V1.0.2/MSDK/app\iperf.c ****             }
 148:C:/Users/stapi/OneDrive/Desktop/GD32VW553/GD32VW55X_Wifi_BLE_SDK/GD32VW55x_RELEASE_V1.0.2/MSDK/app\iperf.c ****         }
 149:C:/Users/stapi/OneDrive/Desktop/GD32VW553/GD32VW55X_Wifi_BLE_SDK/GD32VW55x_RELEASE_V1.0.2/MSDK/app\iperf.c ****         else
 150:C:/Users/stapi/OneDrive/Desktop/GD32VW553/GD32VW55X_Wifi_BLE_SDK/GD32VW55x_RELEASE_V1.0.2/MSDK/app\iperf.c ****         {
 151:C:/Users/stapi/OneDrive/Desktop/GD32VW553/GD32VW55X_Wifi_BLE_SDK/GD32VW55x_RELEASE_V1.0.2/MSDK/app\iperf.c ****             // TCP Client
 152:C:/Users/stapi/OneDrive/Desktop/GD32VW553/GD32VW55X_Wifi_BLE_SDK/GD32VW55x_RELEASE_V1.0.2/MSDK/app\iperf.c ****             if (net_iperf_tcp_client_run(iperf_stream))
 153:C:/Users/stapi/OneDrive/Desktop/GD32VW553/GD32VW55X_Wifi_BLE_SDK/GD32VW55x_RELEASE_V1.0.2/MSDK/app\iperf.c ****             {
 154:C:/Users/stapi/OneDrive/Desktop/GD32VW553/GD32VW55X_Wifi_BLE_SDK/GD32VW55x_RELEASE_V1.0.2/MSDK/app\iperf.c ****                 app_print("IPERF: Failed to start TCP client\r\n");
 155:C:/Users/stapi/OneDrive/Desktop/GD32VW553/GD32VW55X_Wifi_BLE_SDK/GD32VW55x_RELEASE_V1.0.2/MSDK/app\iperf.c ****                 goto end;
 156:C:/Users/stapi/OneDrive/Desktop/GD32VW553/GD32VW55X_Wifi_BLE_SDK/GD32VW55x_RELEASE_V1.0.2/MSDK/app\iperf.c ****             }
 157:C:/Users/stapi/OneDrive/Desktop/GD32VW553/GD32VW55X_Wifi_BLE_SDK/GD32VW55x_RELEASE_V1.0.2/MSDK/app\iperf.c ****         }
 158:C:/Users/stapi/OneDrive/Desktop/GD32VW553/GD32VW55X_Wifi_BLE_SDK/GD32VW55x_RELEASE_V1.0.2/MSDK/app\iperf.c ****     }
 159:C:/Users/stapi/OneDrive/Desktop/GD32VW553/GD32VW55X_Wifi_BLE_SDK/GD32VW55x_RELEASE_V1.0.2/MSDK/app\iperf.c ****     else
 160:C:/Users/stapi/OneDrive/Desktop/GD32VW553/GD32VW55X_Wifi_BLE_SDK/GD32VW55x_RELEASE_V1.0.2/MSDK/app\iperf.c ****     {
 161:C:/Users/stapi/OneDrive/Desktop/GD32VW553/GD32VW55X_Wifi_BLE_SDK/GD32VW55x_RELEASE_V1.0.2/MSDK/app\iperf.c ****         if (iperf_settings->flags.is_udp)
 162:C:/Users/stapi/OneDrive/Desktop/GD32VW553/GD32VW55X_Wifi_BLE_SDK/GD32VW55x_RELEASE_V1.0.2/MSDK/app\iperf.c ****         {
 163:C:/Users/stapi/OneDrive/Desktop/GD32VW553/GD32VW55X_Wifi_BLE_SDK/GD32VW55x_RELEASE_V1.0.2/MSDK/app\iperf.c ****             // UDP Server
 164:C:/Users/stapi/OneDrive/Desktop/GD32VW553/GD32VW55X_Wifi_BLE_SDK/GD32VW55x_RELEASE_V1.0.2/MSDK/app\iperf.c ****             if (net_iperf_udp_server_run(iperf_stream))
 165:C:/Users/stapi/OneDrive/Desktop/GD32VW553/GD32VW55X_Wifi_BLE_SDK/GD32VW55x_RELEASE_V1.0.2/MSDK/app\iperf.c ****             {
 166:C:/Users/stapi/OneDrive/Desktop/GD32VW553/GD32VW55X_Wifi_BLE_SDK/GD32VW55x_RELEASE_V1.0.2/MSDK/app\iperf.c ****                 app_print("IPERF : Failed to start UDP server\r\n");
 167:C:/Users/stapi/OneDrive/Desktop/GD32VW553/GD32VW55X_Wifi_BLE_SDK/GD32VW55x_RELEASE_V1.0.2/MSDK/app\iperf.c ****                 goto end;
 168:C:/Users/stapi/OneDrive/Desktop/GD32VW553/GD32VW55X_Wifi_BLE_SDK/GD32VW55x_RELEASE_V1.0.2/MSDK/app\iperf.c ****             }
 169:C:/Users/stapi/OneDrive/Desktop/GD32VW553/GD32VW55X_Wifi_BLE_SDK/GD32VW55x_RELEASE_V1.0.2/MSDK/app\iperf.c ****         }
 170:C:/Users/stapi/OneDrive/Desktop/GD32VW553/GD32VW55X_Wifi_BLE_SDK/GD32VW55x_RELEASE_V1.0.2/MSDK/app\iperf.c ****         else
 171:C:/Users/stapi/OneDrive/Desktop/GD32VW553/GD32VW55X_Wifi_BLE_SDK/GD32VW55x_RELEASE_V1.0.2/MSDK/app\iperf.c ****         {
 172:C:/Users/stapi/OneDrive/Desktop/GD32VW553/GD32VW55X_Wifi_BLE_SDK/GD32VW55x_RELEASE_V1.0.2/MSDK/app\iperf.c ****             // TCP Server
 173:C:/Users/stapi/OneDrive/Desktop/GD32VW553/GD32VW55X_Wifi_BLE_SDK/GD32VW55x_RELEASE_V1.0.2/MSDK/app\iperf.c ****             if (net_iperf_tcp_server_run(iperf_stream))
 174:C:/Users/stapi/OneDrive/Desktop/GD32VW553/GD32VW55X_Wifi_BLE_SDK/GD32VW55x_RELEASE_V1.0.2/MSDK/app\iperf.c ****             {
 175:C:/Users/stapi/OneDrive/Desktop/GD32VW553/GD32VW55X_Wifi_BLE_SDK/GD32VW55x_RELEASE_V1.0.2/MSDK/app\iperf.c ****                 app_print("IPERF: Failed to start TCP server\r\n");
  70              		.loc 1 175 17 is_stmt 0
  71 0036 97000000 		call	co_printf
  71      E7800000 
  72              	.LVL5:
 176:C:/Users/stapi/OneDrive/Desktop/GD32VW553/GD32VW55X_Wifi_BLE_SDK/GD32VW55x_RELEASE_V1.0.2/MSDK/app\iperf.c ****                 goto end;
  73              		.loc 1 176 17 is_stmt 1
  74              	.L3:
 177:C:/Users/stapi/OneDrive/Desktop/GD32VW553/GD32VW55X_Wifi_BLE_SDK/GD32VW55x_RELEASE_V1.0.2/MSDK/app\iperf.c ****             }
 178:C:/Users/stapi/OneDrive/Desktop/GD32VW553/GD32VW55X_Wifi_BLE_SDK/GD32VW55x_RELEASE_V1.0.2/MSDK/app\iperf.c ****         }
 179:C:/Users/stapi/OneDrive/Desktop/GD32VW553/GD32VW55X_Wifi_BLE_SDK/GD32VW55x_RELEASE_V1.0.2/MSDK/app\iperf.c ****     }
 180:C:/Users/stapi/OneDrive/Desktop/GD32VW553/GD32VW55X_Wifi_BLE_SDK/GD32VW55x_RELEASE_V1.0.2/MSDK/app\iperf.c **** 
 181:C:/Users/stapi/OneDrive/Desktop/GD32VW553/GD32VW55X_Wifi_BLE_SDK/GD32VW55x_RELEASE_V1.0.2/MSDK/app\iperf.c ****   end:
 182:C:/Users/stapi/OneDrive/Desktop/GD32VW553/GD32VW55X_Wifi_BLE_SDK/GD32VW55x_RELEASE_V1.0.2/MSDK/app\iperf.c ****     // Delete objects
 183:C:/Users/stapi/OneDrive/Desktop/GD32VW553/GD32VW55X_Wifi_BLE_SDK/GD32VW55x_RELEASE_V1.0.2/MSDK/app\iperf.c ****     sys_sema_free(&iperf_stream->to_semaphore);
  75              		.loc 1 183 5
  76 003e 1305C404 		addi	a0,s0,76
  77 0042 97000000 		call	sys_sema_free
  77      E7800000 
  78              	.LVL6:
 184:C:/Users/stapi/OneDrive/Desktop/GD32VW553/GD32VW55X_Wifi_BLE_SDK/GD32VW55x_RELEASE_V1.0.2/MSDK/app\iperf.c ****     sys_sema_free(&iperf_stream->iperf_task_semaphore);
  79              		.loc 1 184 5
  80 004a 13054404 		addi	a0,s0,68
  81 004e 97000000 		call	sys_sema_free
  81      E7800000 
  82              	.LVL7:
 185:C:/Users/stapi/OneDrive/Desktop/GD32VW553/GD32VW55X_Wifi_BLE_SDK/GD32VW55x_RELEASE_V1.0.2/MSDK/app\iperf.c ****     sys_sema_free(&iperf_stream->send_buf_semaphore);
  83              		.loc 1 185 5
  84 0056 13058404 		addi	a0,s0,72
  85 005a 97000000 		call	sys_sema_free
  85      E7800000 
  86              	.LVL8:
 186:C:/Users/stapi/OneDrive/Desktop/GD32VW553/GD32VW55X_Wifi_BLE_SDK/GD32VW55x_RELEASE_V1.0.2/MSDK/app\iperf.c ****     sys_mutex_free(&iperf_stream->iperf_mutex);
  87              		.loc 1 186 5
  88 0062 13050405 		addi	a0,s0,80
  89 0066 97000000 		call	sys_mutex_free
  89      E7800000 
  90              	.LVL9:
 187:C:/Users/stapi/OneDrive/Desktop/GD32VW553/GD32VW55X_Wifi_BLE_SDK/GD32VW55x_RELEASE_V1.0.2/MSDK/app\iperf.c ****     iperf_stream->active = false;
  91              		.loc 1 187 5
 188:C:/Users/stapi/OneDrive/Desktop/GD32VW553/GD32VW55X_Wifi_BLE_SDK/GD32VW55x_RELEASE_V1.0.2/MSDK/app\iperf.c ****     net_iperf_buf_deinit(iperf_stream);
  92              		.loc 1 188 5 is_stmt 0
  93 006e 2285     		mv	a0,s0
 187:C:/Users/stapi/OneDrive/Desktop/GD32VW553/GD32VW55X_Wifi_BLE_SDK/GD32VW55x_RELEASE_V1.0.2/MSDK/app\iperf.c ****     iperf_stream->active = false;
  94              		.loc 1 187 26
  95 0070 23020400 		sb	zero,4(s0)
  96              		.loc 1 188 5 is_stmt 1
  97 0074 97000000 		call	net_iperf_buf_deinit
  97      E7800000 
  98              	.LVL10:
 189:C:/Users/stapi/OneDrive/Desktop/GD32VW553/GD32VW55X_Wifi_BLE_SDK/GD32VW55x_RELEASE_V1.0.2/MSDK/app\iperf.c ****     sys_task_delete(NULL);
  99              		.loc 1 189 5
 100 007c 0145     		li	a0,0
 101 007e 97000000 		call	sys_task_delete
 101      E7800000 
 102              	.LVL11:
 190:C:/Users/stapi/OneDrive/Desktop/GD32VW553/GD32VW55X_Wifi_BLE_SDK/GD32VW55x_RELEASE_V1.0.2/MSDK/app\iperf.c **** }
 103              		.loc 1 190 1 is_stmt 0
 104 0086 17030000 		tail	__riscv_restore_1
 104      67000300 
 105              		.cfi_remember_state
 106              		.cfi_restore 8
 107              		.cfi_restore 1
 108              		.cfi_def_cfa_offset 0
 109              	.L2:
 110              		.cfi_restore_state
 138:C:/Users/stapi/OneDrive/Desktop/GD32VW553/GD32VW55X_Wifi_BLE_SDK/GD32VW55x_RELEASE_V1.0.2/MSDK/app\iperf.c ****     {
 111              		.loc 1 138 5 is_stmt 1
 140:C:/Users/stapi/OneDrive/Desktop/GD32VW553/GD32VW55X_Wifi_BLE_SDK/GD32VW55x_RELEASE_V1.0.2/MSDK/app\iperf.c ****         {
 112              		.loc 1 140 13 is_stmt 0
 113 008e 83478403 		lbu	a5,56(s0)
 138:C:/Users/stapi/OneDrive/Desktop/GD32VW553/GD32VW55X_Wifi_BLE_SDK/GD32VW55x_RELEASE_V1.0.2/MSDK/app\iperf.c ****     {
 114              		.loc 1 138 31
 115 0092 185C     		lw	a4,56(s0)
 143:C:/Users/stapi/OneDrive/Desktop/GD32VW553/GD32VW55X_Wifi_BLE_SDK/GD32VW55x_RELEASE_V1.0.2/MSDK/app\iperf.c ****             {
 116              		.loc 1 143 17
 117 0094 2285     		mv	a0,s0
 140:C:/Users/stapi/OneDrive/Desktop/GD32VW553/GD32VW55X_Wifi_BLE_SDK/GD32VW55x_RELEASE_V1.0.2/MSDK/app\iperf.c ****         {
 118              		.loc 1 140 13
 119 0096 898B     		andi	a5,a5,2
 138:C:/Users/stapi/OneDrive/Desktop/GD32VW553/GD32VW55X_Wifi_BLE_SDK/GD32VW55x_RELEASE_V1.0.2/MSDK/app\iperf.c ****     {
 120              		.loc 1 138 8
 121 0098 13574748 		bexti	a4,a4,4
 122 009c 15E7     		bne	a4,zero,.L4
 140:C:/Users/stapi/OneDrive/Desktop/GD32VW553/GD32VW55X_Wifi_BLE_SDK/GD32VW55x_RELEASE_V1.0.2/MSDK/app\iperf.c ****         {
 123              		.loc 1 140 9 is_stmt 1
 140:C:/Users/stapi/OneDrive/Desktop/GD32VW553/GD32VW55X_Wifi_BLE_SDK/GD32VW55x_RELEASE_V1.0.2/MSDK/app\iperf.c ****         {
 124              		.loc 1 140 12 is_stmt 0
 125 009e 99CB     		beq	a5,zero,.L5
 143:C:/Users/stapi/OneDrive/Desktop/GD32VW553/GD32VW55X_Wifi_BLE_SDK/GD32VW55x_RELEASE_V1.0.2/MSDK/app\iperf.c ****             {
 126              		.loc 1 143 13 is_stmt 1
 143:C:/Users/stapi/OneDrive/Desktop/GD32VW553/GD32VW55X_Wifi_BLE_SDK/GD32VW55x_RELEASE_V1.0.2/MSDK/app\iperf.c ****             {
 127              		.loc 1 143 17 is_stmt 0
 128 00a0 97000000 		call	net_iperf_udp_client_run
 128      E7800000 
 129              	.LVL12:
 143:C:/Users/stapi/OneDrive/Desktop/GD32VW553/GD32VW55X_Wifi_BLE_SDK/GD32VW55x_RELEASE_V1.0.2/MSDK/app\iperf.c ****             {
 130              		.loc 1 143 16
 131 00a8 59D9     		beq	a0,zero,.L3
 145:C:/Users/stapi/OneDrive/Desktop/GD32VW553/GD32VW55X_Wifi_BLE_SDK/GD32VW55x_RELEASE_V1.0.2/MSDK/app\iperf.c ****                 goto end;
 132              		.loc 1 145 17 is_stmt 1
 133 00aa 37050000 		lui	a0,%hi(.LC2)
 134 00ae 13050500 		addi	a0,a0,%lo(.LC2)
 135 00b2 51B7     		j	.L19
 136              	.L5:
 152:C:/Users/stapi/OneDrive/Desktop/GD32VW553/GD32VW55X_Wifi_BLE_SDK/GD32VW55x_RELEASE_V1.0.2/MSDK/app\iperf.c ****             {
 137              		.loc 1 152 13
 152:C:/Users/stapi/OneDrive/Desktop/GD32VW553/GD32VW55X_Wifi_BLE_SDK/GD32VW55x_RELEASE_V1.0.2/MSDK/app\iperf.c ****             {
 138              		.loc 1 152 17 is_stmt 0
 139 00b4 97000000 		call	net_iperf_tcp_client_run
 139      E7800000 
 140              	.LVL13:
 152:C:/Users/stapi/OneDrive/Desktop/GD32VW553/GD32VW55X_Wifi_BLE_SDK/GD32VW55x_RELEASE_V1.0.2/MSDK/app\iperf.c ****             {
 141              		.loc 1 152 16
 142 00bc 49D1     		beq	a0,zero,.L3
 154:C:/Users/stapi/OneDrive/Desktop/GD32VW553/GD32VW55X_Wifi_BLE_SDK/GD32VW55x_RELEASE_V1.0.2/MSDK/app\iperf.c ****                 goto end;
 143              		.loc 1 154 17 is_stmt 1
 144 00be 37050000 		lui	a0,%hi(.LC3)
 145 00c2 13050500 		addi	a0,a0,%lo(.LC3)
 146 00c6 85BF     		j	.L19
 147              	.L4:
 161:C:/Users/stapi/OneDrive/Desktop/GD32VW553/GD32VW55X_Wifi_BLE_SDK/GD32VW55x_RELEASE_V1.0.2/MSDK/app\iperf.c ****         {
 148              		.loc 1 161 9
 161:C:/Users/stapi/OneDrive/Desktop/GD32VW553/GD32VW55X_Wifi_BLE_SDK/GD32VW55x_RELEASE_V1.0.2/MSDK/app\iperf.c ****         {
 149              		.loc 1 161 12 is_stmt 0
 150 00c8 99CB     		beq	a5,zero,.L8
 164:C:/Users/stapi/OneDrive/Desktop/GD32VW553/GD32VW55X_Wifi_BLE_SDK/GD32VW55x_RELEASE_V1.0.2/MSDK/app\iperf.c ****             {
 151              		.loc 1 164 13 is_stmt 1
 164:C:/Users/stapi/OneDrive/Desktop/GD32VW553/GD32VW55X_Wifi_BLE_SDK/GD32VW55x_RELEASE_V1.0.2/MSDK/app\iperf.c ****             {
 152              		.loc 1 164 17 is_stmt 0
 153 00ca 97000000 		call	net_iperf_udp_server_run
 153      E7800000 
 154              	.LVL14:
 164:C:/Users/stapi/OneDrive/Desktop/GD32VW553/GD32VW55X_Wifi_BLE_SDK/GD32VW55x_RELEASE_V1.0.2/MSDK/app\iperf.c ****             {
 155              		.loc 1 164 16
 156 00d2 35D5     		beq	a0,zero,.L3
 166:C:/Users/stapi/OneDrive/Desktop/GD32VW553/GD32VW55X_Wifi_BLE_SDK/GD32VW55x_RELEASE_V1.0.2/MSDK/app\iperf.c ****                 goto end;
 157              		.loc 1 166 17 is_stmt 1
 158 00d4 37050000 		lui	a0,%hi(.LC4)
 159 00d8 13050500 		addi	a0,a0,%lo(.LC4)
 160 00dc A9BF     		j	.L19
 161              	.L8:
 173:C:/Users/stapi/OneDrive/Desktop/GD32VW553/GD32VW55X_Wifi_BLE_SDK/GD32VW55x_RELEASE_V1.0.2/MSDK/app\iperf.c ****             {
 162              		.loc 1 173 13
 173:C:/Users/stapi/OneDrive/Desktop/GD32VW553/GD32VW55X_Wifi_BLE_SDK/GD32VW55x_RELEASE_V1.0.2/MSDK/app\iperf.c ****             {
 163              		.loc 1 173 17 is_stmt 0
 164 00de 97000000 		call	net_iperf_tcp_server_run
 164      E7800000 
 165              	.LVL15:
 173:C:/Users/stapi/OneDrive/Desktop/GD32VW553/GD32VW55X_Wifi_BLE_SDK/GD32VW55x_RELEASE_V1.0.2/MSDK/app\iperf.c ****             {
 166              		.loc 1 173 16
 167 00e6 21DD     		beq	a0,zero,.L3
 175:C:/Users/stapi/OneDrive/Desktop/GD32VW553/GD32VW55X_Wifi_BLE_SDK/GD32VW55x_RELEASE_V1.0.2/MSDK/app\iperf.c ****                 goto end;
 168              		.loc 1 175 17 is_stmt 1
 169 00e8 37050000 		lui	a0,%hi(.LC5)
 170 00ec 13050500 		addi	a0,a0,%lo(.LC5)
 171 00f0 99B7     		j	.L19
 172              		.cfi_endproc
 173              	.LFE15:
 175              		.section	.rodata.iperf_snprintf.constprop.0.str1.4,"aMS",@progbits,1
 176              		.align	2
 177              	.LC13:
 178 0000 25642E25 		.string	"%d.%02d %s"
 178      30326420 
 178      257300
 179 000b 00       		.align	2
 180              	.LC17:
 181 000c 25642E25 		.string	"%d.%d %s"
 181      64202573 
 181      00
 182 0015 000000   		.align	2
 183              	.LC19:
 184 0018 25346420 		.string	"%4d %s"
 184      257300
 185              		.section	.text.iperf_snprintf.constprop.0,"ax",@progbits
 186              		.align	1
 188              	iperf_snprintf.constprop.0:
 189              	.LFB26:
 191:C:/Users/stapi/OneDrive/Desktop/GD32VW553/GD32VW55X_Wifi_BLE_SDK/GD32VW55x_RELEASE_V1.0.2/MSDK/app\iperf.c **** 
 192:C:/Users/stapi/OneDrive/Desktop/GD32VW553/GD32VW55X_Wifi_BLE_SDK/GD32VW55x_RELEASE_V1.0.2/MSDK/app\iperf.c **** 
 193:C:/Users/stapi/OneDrive/Desktop/GD32VW553/GD32VW55X_Wifi_BLE_SDK/GD32VW55x_RELEASE_V1.0.2/MSDK/app\iperf.c **** /**
 194:C:/Users/stapi/OneDrive/Desktop/GD32VW553/GD32VW55X_Wifi_BLE_SDK/GD32VW55x_RELEASE_V1.0.2/MSDK/app\iperf.c ****  ****************************************************************************************
 195:C:/Users/stapi/OneDrive/Desktop/GD32VW553/GD32VW55X_Wifi_BLE_SDK/GD32VW55x_RELEASE_V1.0.2/MSDK/app\iperf.c ****  * @brief Search the stream id of a free iperf stream
 196:C:/Users/stapi/OneDrive/Desktop/GD32VW553/GD32VW55X_Wifi_BLE_SDK/GD32VW55x_RELEASE_V1.0.2/MSDK/app\iperf.c ****  * Return the first free stream id in the table.
 197:C:/Users/stapi/OneDrive/Desktop/GD32VW553/GD32VW55X_Wifi_BLE_SDK/GD32VW55x_RELEASE_V1.0.2/MSDK/app\iperf.c ****  *
 198:C:/Users/stapi/OneDrive/Desktop/GD32VW553/GD32VW55X_Wifi_BLE_SDK/GD32VW55x_RELEASE_V1.0.2/MSDK/app\iperf.c ****  * @return iperf stream id, -1 if error
 199:C:/Users/stapi/OneDrive/Desktop/GD32VW553/GD32VW55X_Wifi_BLE_SDK/GD32VW55x_RELEASE_V1.0.2/MSDK/app\iperf.c ****  ****************************************************************************************
 200:C:/Users/stapi/OneDrive/Desktop/GD32VW553/GD32VW55X_Wifi_BLE_SDK/GD32VW55x_RELEASE_V1.0.2/MSDK/app\iperf.c ****  **/
 201:C:/Users/stapi/OneDrive/Desktop/GD32VW553/GD32VW55X_Wifi_BLE_SDK/GD32VW55x_RELEASE_V1.0.2/MSDK/app\iperf.c **** static int iperf_find_free_stream_id(void)
 202:C:/Users/stapi/OneDrive/Desktop/GD32VW553/GD32VW55X_Wifi_BLE_SDK/GD32VW55x_RELEASE_V1.0.2/MSDK/app\iperf.c **** {
 203:C:/Users/stapi/OneDrive/Desktop/GD32VW553/GD32VW55X_Wifi_BLE_SDK/GD32VW55x_RELEASE_V1.0.2/MSDK/app\iperf.c ****     int stream_id;
 204:C:/Users/stapi/OneDrive/Desktop/GD32VW553/GD32VW55X_Wifi_BLE_SDK/GD32VW55x_RELEASE_V1.0.2/MSDK/app\iperf.c ****     for (stream_id = 0; stream_id < IPERF_MAX_STREAMS; stream_id++)
 205:C:/Users/stapi/OneDrive/Desktop/GD32VW553/GD32VW55X_Wifi_BLE_SDK/GD32VW55x_RELEASE_V1.0.2/MSDK/app\iperf.c ****     {
 206:C:/Users/stapi/OneDrive/Desktop/GD32VW553/GD32VW55X_Wifi_BLE_SDK/GD32VW55x_RELEASE_V1.0.2/MSDK/app\iperf.c ****         if (streams[stream_id].active == false)
 207:C:/Users/stapi/OneDrive/Desktop/GD32VW553/GD32VW55X_Wifi_BLE_SDK/GD32VW55x_RELEASE_V1.0.2/MSDK/app\iperf.c ****         {
 208:C:/Users/stapi/OneDrive/Desktop/GD32VW553/GD32VW55X_Wifi_BLE_SDK/GD32VW55x_RELEASE_V1.0.2/MSDK/app\iperf.c ****             return stream_id;
 209:C:/Users/stapi/OneDrive/Desktop/GD32VW553/GD32VW55X_Wifi_BLE_SDK/GD32VW55x_RELEASE_V1.0.2/MSDK/app\iperf.c ****         }
 210:C:/Users/stapi/OneDrive/Desktop/GD32VW553/GD32VW55X_Wifi_BLE_SDK/GD32VW55x_RELEASE_V1.0.2/MSDK/app\iperf.c ****     }
 211:C:/Users/stapi/OneDrive/Desktop/GD32VW553/GD32VW55X_Wifi_BLE_SDK/GD32VW55x_RELEASE_V1.0.2/MSDK/app\iperf.c ****     return -1;
 212:C:/Users/stapi/OneDrive/Desktop/GD32VW553/GD32VW55X_Wifi_BLE_SDK/GD32VW55x_RELEASE_V1.0.2/MSDK/app\iperf.c **** }
 213:C:/Users/stapi/OneDrive/Desktop/GD32VW553/GD32VW55X_Wifi_BLE_SDK/GD32VW55x_RELEASE_V1.0.2/MSDK/app\iperf.c **** 
 214:C:/Users/stapi/OneDrive/Desktop/GD32VW553/GD32VW55X_Wifi_BLE_SDK/GD32VW55x_RELEASE_V1.0.2/MSDK/app\iperf.c **** /**
 215:C:/Users/stapi/OneDrive/Desktop/GD32VW553/GD32VW55X_Wifi_BLE_SDK/GD32VW55x_RELEASE_V1.0.2/MSDK/app\iperf.c ****  ****************************************************************************************
 216:C:/Users/stapi/OneDrive/Desktop/GD32VW553/GD32VW55X_Wifi_BLE_SDK/GD32VW55x_RELEASE_V1.0.2/MSDK/app\iperf.c ****  * @brief Convert a float value into string according to the specified format
 217:C:/Users/stapi/OneDrive/Desktop/GD32VW553/GD32VW55X_Wifi_BLE_SDK/GD32VW55x_RELEASE_V1.0.2/MSDK/app\iperf.c ****  *
 218:C:/Users/stapi/OneDrive/Desktop/GD32VW553/GD32VW55X_Wifi_BLE_SDK/GD32VW55x_RELEASE_V1.0.2/MSDK/app\iperf.c ****  * For example:
 219:C:/Users/stapi/OneDrive/Desktop/GD32VW553/GD32VW55X_Wifi_BLE_SDK/GD32VW55x_RELEASE_V1.0.2/MSDK/app\iperf.c ****  * - amount = 12000 format = 'K' => out_str = "11.72 KByte"
 220:C:/Users/stapi/OneDrive/Desktop/GD32VW553/GD32VW55X_Wifi_BLE_SDK/GD32VW55x_RELEASE_V1.0.2/MSDK/app\iperf.c ****  * - amount = 12000 format = 'k' => out_str = "96 Kbits"
 221:C:/Users/stapi/OneDrive/Desktop/GD32VW553/GD32VW55X_Wifi_BLE_SDK/GD32VW55x_RELEASE_V1.0.2/MSDK/app\iperf.c ****  *
 222:C:/Users/stapi/OneDrive/Desktop/GD32VW553/GD32VW55X_Wifi_BLE_SDK/GD32VW55x_RELEASE_V1.0.2/MSDK/app\iperf.c ****  * @param[out] out_str              Pointer to the string buffer to write
 223:C:/Users/stapi/OneDrive/Desktop/GD32VW553/GD32VW55X_Wifi_BLE_SDK/GD32VW55x_RELEASE_V1.0.2/MSDK/app\iperf.c ****  * @param[in] len                   Length of out_str buffer
 224:C:/Users/stapi/OneDrive/Desktop/GD32VW553/GD32VW55X_Wifi_BLE_SDK/GD32VW55x_RELEASE_V1.0.2/MSDK/app\iperf.c ****  * @param[in] amount                Float value to convert in string based on the format
 225:C:/Users/stapi/OneDrive/Desktop/GD32VW553/GD32VW55X_Wifi_BLE_SDK/GD32VW55x_RELEASE_V1.0.2/MSDK/app\iperf.c ****  * @param[in] format                Format to use for converting amount to string
 226:C:/Users/stapi/OneDrive/Desktop/GD32VW553/GD32VW55X_Wifi_BLE_SDK/GD32VW55x_RELEASE_V1.0.2/MSDK/app\iperf.c ****  ****************************************************************************************
 227:C:/Users/stapi/OneDrive/Desktop/GD32VW553/GD32VW55X_Wifi_BLE_SDK/GD32VW55x_RELEASE_V1.0.2/MSDK/app\iperf.c ****  **/
 228:C:/Users/stapi/OneDrive/Desktop/GD32VW553/GD32VW55X_Wifi_BLE_SDK/GD32VW55x_RELEASE_V1.0.2/MSDK/app\iperf.c **** static void iperf_snprintf(char *out_str, uint32_t len, float amount, char format)
 190              		.loc 1 228 13
 191              		.cfi_startproc
 192              	.LVL16:
 193 0000 17030000 		call	t0,__riscv_save_0
 193      E7020300 
 194              		.cfi_offset 1, -4
 195              		.cfi_def_cfa_offset 16
 196              	.LVL17:
 229:C:/Users/stapi/OneDrive/Desktop/GD32VW553/GD32VW55X_Wifi_BLE_SDK/GD32VW55x_RELEASE_V1.0.2/MSDK/app\iperf.c **** {
 230:C:/Users/stapi/OneDrive/Desktop/GD32VW553/GD32VW55X_Wifi_BLE_SDK/GD32VW55x_RELEASE_V1.0.2/MSDK/app\iperf.c ****     uint8_t conv = CONV_UNIT;
 197              		.loc 1 230 5
 231:C:/Users/stapi/OneDrive/Desktop/GD32VW553/GD32VW55X_Wifi_BLE_SDK/GD32VW55x_RELEASE_V1.0.2/MSDK/app\iperf.c ****     const char *suffix;
 198              		.loc 1 231 5
 232:C:/Users/stapi/OneDrive/Desktop/GD32VW553/GD32VW55X_Wifi_BLE_SDK/GD32VW55x_RELEASE_V1.0.2/MSDK/app\iperf.c ****     int int_amount, dec_amount;
 199              		.loc 1 232 5
 233:C:/Users/stapi/OneDrive/Desktop/GD32VW553/GD32VW55X_Wifi_BLE_SDK/GD32VW55x_RELEASE_V1.0.2/MSDK/app\iperf.c ****     bool is_bit_value = false;
 200              		.loc 1 233 5
 234:C:/Users/stapi/OneDrive/Desktop/GD32VW553/GD32VW55X_Wifi_BLE_SDK/GD32VW55x_RELEASE_V1.0.2/MSDK/app\iperf.c ****     float round;
 201              		.loc 1 234 5
 235:C:/Users/stapi/OneDrive/Desktop/GD32VW553/GD32VW55X_Wifi_BLE_SDK/GD32VW55x_RELEASE_V1.0.2/MSDK/app\iperf.c **** 
 236:C:/Users/stapi/OneDrive/Desktop/GD32VW553/GD32VW55X_Wifi_BLE_SDK/GD32VW55x_RELEASE_V1.0.2/MSDK/app\iperf.c ****     switch (format)
 202              		.loc 1 236 5
 203 0008 9307D004 		li	a5,77
 204 000c 63CBB704 		bgt	a1,a5,.L21
 205 0010 93070004 		li	a5,64
 206 0014 63D8B706 		ble	a1,a5,.L22
 207 0018 9385F5FB 		addi	a1,a1,-65
 208              	.LVL18:
 209 001c 93F5F50F 		andi	a1,a1,0xff
 210 0020 B147     		li	a5,12
 211 0022 63E1B706 		bgtu	a1,a5,.L22
 212 0026 B7070000 		lui	a5,%hi(.L24)
 213 002a 93870700 		addi	a5,a5,%lo(.L24)
 214 002e B3C5F520 		sh2add	a1,a1,a5
 215 0032 9C41     		lw	a5,0(a1)
 216 0034 8287     		jr	a5
 217              		.section	.rodata.iperf_snprintf.constprop.0,"a",@progbits
 218              		.align	2
 219              		.align	2
 220              	.L24:
 221 0000 00000000 		.word	.L46
 222 0004 00000000 		.word	.L27
 223 0008 00000000 		.word	.L22
 224 000c 00000000 		.word	.L22
 225 0010 00000000 		.word	.L22
 226 0014 00000000 		.word	.L22
 227 0018 00000000 		.word	.L26
 228 001c 00000000 		.word	.L22
 229 0020 00000000 		.word	.L22
 230 0024 00000000 		.word	.L22
 231 0028 00000000 		.word	.L25
 232 002c 00000000 		.word	.L22
 233 0030 00000000 		.word	.L47
 234              		.section	.text.iperf_snprintf.constprop.0
 235              	.L25:
 236 0036 8546     		li	a3,1
 237              	.LVL19:
 238              	.L23:
 237:C:/Users/stapi/OneDrive/Desktop/GD32VW553/GD32VW55X_Wifi_BLE_SDK/GD32VW55x_RELEASE_V1.0.2/MSDK/app\iperf.c ****     {
 238:C:/Users/stapi/OneDrive/Desktop/GD32VW553/GD32VW55X_Wifi_BLE_SDK/GD32VW55x_RELEASE_V1.0.2/MSDK/app\iperf.c ****         case 'b':
 239:C:/Users/stapi/OneDrive/Desktop/GD32VW553/GD32VW55X_Wifi_BLE_SDK/GD32VW55x_RELEASE_V1.0.2/MSDK/app\iperf.c ****             is_bit_value = true;
 240:C:/Users/stapi/OneDrive/Desktop/GD32VW553/GD32VW55X_Wifi_BLE_SDK/GD32VW55x_RELEASE_V1.0.2/MSDK/app\iperf.c ****         case 'B':
 241:C:/Users/stapi/OneDrive/Desktop/GD32VW553/GD32VW55X_Wifi_BLE_SDK/GD32VW55x_RELEASE_V1.0.2/MSDK/app\iperf.c ****             conv = CONV_UNIT;
 242:C:/Users/stapi/OneDrive/Desktop/GD32VW553/GD32VW55X_Wifi_BLE_SDK/GD32VW55x_RELEASE_V1.0.2/MSDK/app\iperf.c ****             break;
 243:C:/Users/stapi/OneDrive/Desktop/GD32VW553/GD32VW55X_Wifi_BLE_SDK/GD32VW55x_RELEASE_V1.0.2/MSDK/app\iperf.c ****         case 'k':
 244:C:/Users/stapi/OneDrive/Desktop/GD32VW553/GD32VW55X_Wifi_BLE_SDK/GD32VW55x_RELEASE_V1.0.2/MSDK/app\iperf.c ****             is_bit_value = true;
 245:C:/Users/stapi/OneDrive/Desktop/GD32VW553/GD32VW55X_Wifi_BLE_SDK/GD32VW55x_RELEASE_V1.0.2/MSDK/app\iperf.c ****         case 'K':
 246:C:/Users/stapi/OneDrive/Desktop/GD32VW553/GD32VW55X_Wifi_BLE_SDK/GD32VW55x_RELEASE_V1.0.2/MSDK/app\iperf.c ****             conv = CONV_KILO;
 247:C:/Users/stapi/OneDrive/Desktop/GD32VW553/GD32VW55X_Wifi_BLE_SDK/GD32VW55x_RELEASE_V1.0.2/MSDK/app\iperf.c ****             break;
 248:C:/Users/stapi/OneDrive/Desktop/GD32VW553/GD32VW55X_Wifi_BLE_SDK/GD32VW55x_RELEASE_V1.0.2/MSDK/app\iperf.c ****         case 'm':
 249:C:/Users/stapi/OneDrive/Desktop/GD32VW553/GD32VW55X_Wifi_BLE_SDK/GD32VW55x_RELEASE_V1.0.2/MSDK/app\iperf.c ****             is_bit_value = true;
 250:C:/Users/stapi/OneDrive/Desktop/GD32VW553/GD32VW55X_Wifi_BLE_SDK/GD32VW55x_RELEASE_V1.0.2/MSDK/app\iperf.c ****         case 'M':
 251:C:/Users/stapi/OneDrive/Desktop/GD32VW553/GD32VW55X_Wifi_BLE_SDK/GD32VW55x_RELEASE_V1.0.2/MSDK/app\iperf.c ****             conv = CONV_MEGA;
 252:C:/Users/stapi/OneDrive/Desktop/GD32VW553/GD32VW55X_Wifi_BLE_SDK/GD32VW55x_RELEASE_V1.0.2/MSDK/app\iperf.c ****             break;
 253:C:/Users/stapi/OneDrive/Desktop/GD32VW553/GD32VW55X_Wifi_BLE_SDK/GD32VW55x_RELEASE_V1.0.2/MSDK/app\iperf.c ****         case 'g':
 254:C:/Users/stapi/OneDrive/Desktop/GD32VW553/GD32VW55X_Wifi_BLE_SDK/GD32VW55x_RELEASE_V1.0.2/MSDK/app\iperf.c ****             is_bit_value = true;
 255:C:/Users/stapi/OneDrive/Desktop/GD32VW553/GD32VW55X_Wifi_BLE_SDK/GD32VW55x_RELEASE_V1.0.2/MSDK/app\iperf.c ****         case 'G':
 256:C:/Users/stapi/OneDrive/Desktop/GD32VW553/GD32VW55X_Wifi_BLE_SDK/GD32VW55x_RELEASE_V1.0.2/MSDK/app\iperf.c ****             conv = CONV_GIGA;
 257:C:/Users/stapi/OneDrive/Desktop/GD32VW553/GD32VW55X_Wifi_BLE_SDK/GD32VW55x_RELEASE_V1.0.2/MSDK/app\iperf.c ****             break;
 258:C:/Users/stapi/OneDrive/Desktop/GD32VW553/GD32VW55X_Wifi_BLE_SDK/GD32VW55x_RELEASE_V1.0.2/MSDK/app\iperf.c **** 
 259:C:/Users/stapi/OneDrive/Desktop/GD32VW553/GD32VW55X_Wifi_BLE_SDK/GD32VW55x_RELEASE_V1.0.2/MSDK/app\iperf.c ****         default:
 260:C:/Users/stapi/OneDrive/Desktop/GD32VW553/GD32VW55X_Wifi_BLE_SDK/GD32VW55x_RELEASE_V1.0.2/MSDK/app\iperf.c ****         case 'a':
 261:C:/Users/stapi/OneDrive/Desktop/GD32VW553/GD32VW55X_Wifi_BLE_SDK/GD32VW55x_RELEASE_V1.0.2/MSDK/app\iperf.c ****             is_bit_value = true;
 262:C:/Users/stapi/OneDrive/Desktop/GD32VW553/GD32VW55X_Wifi_BLE_SDK/GD32VW55x_RELEASE_V1.0.2/MSDK/app\iperf.c ****             for (float tmp_amount = amount * 8;
 263:C:/Users/stapi/OneDrive/Desktop/GD32VW553/GD32VW55X_Wifi_BLE_SDK/GD32VW55x_RELEASE_V1.0.2/MSDK/app\iperf.c ****                  tmp_amount >= 1000.0 && conv <= CONV_GIGA;
 264:C:/Users/stapi/OneDrive/Desktop/GD32VW553/GD32VW55X_Wifi_BLE_SDK/GD32VW55x_RELEASE_V1.0.2/MSDK/app\iperf.c ****                  conv++)
 265:C:/Users/stapi/OneDrive/Desktop/GD32VW553/GD32VW55X_Wifi_BLE_SDK/GD32VW55x_RELEASE_V1.0.2/MSDK/app\iperf.c ****             {
 266:C:/Users/stapi/OneDrive/Desktop/GD32VW553/GD32VW55X_Wifi_BLE_SDK/GD32VW55x_RELEASE_V1.0.2/MSDK/app\iperf.c ****                 tmp_amount /= 1000.0;
 267:C:/Users/stapi/OneDrive/Desktop/GD32VW553/GD32VW55X_Wifi_BLE_SDK/GD32VW55x_RELEASE_V1.0.2/MSDK/app\iperf.c ****             }
 268:C:/Users/stapi/OneDrive/Desktop/GD32VW553/GD32VW55X_Wifi_BLE_SDK/GD32VW55x_RELEASE_V1.0.2/MSDK/app\iperf.c ****             break;
 269:C:/Users/stapi/OneDrive/Desktop/GD32VW553/GD32VW55X_Wifi_BLE_SDK/GD32VW55x_RELEASE_V1.0.2/MSDK/app\iperf.c ****         case 'A':
 270:C:/Users/stapi/OneDrive/Desktop/GD32VW553/GD32VW55X_Wifi_BLE_SDK/GD32VW55x_RELEASE_V1.0.2/MSDK/app\iperf.c ****             for (float tmp_amount = amount;
 271:C:/Users/stapi/OneDrive/Desktop/GD32VW553/GD32VW55X_Wifi_BLE_SDK/GD32VW55x_RELEASE_V1.0.2/MSDK/app\iperf.c ****                  tmp_amount >= 1024.0 && conv <= CONV_GIGA;
 272:C:/Users/stapi/OneDrive/Desktop/GD32VW553/GD32VW55X_Wifi_BLE_SDK/GD32VW55x_RELEASE_V1.0.2/MSDK/app\iperf.c ****                  conv++)
 273:C:/Users/stapi/OneDrive/Desktop/GD32VW553/GD32VW55X_Wifi_BLE_SDK/GD32VW55x_RELEASE_V1.0.2/MSDK/app\iperf.c ****             {
 274:C:/Users/stapi/OneDrive/Desktop/GD32VW553/GD32VW55X_Wifi_BLE_SDK/GD32VW55x_RELEASE_V1.0.2/MSDK/app\iperf.c ****                 tmp_amount /= 1024.0;
 275:C:/Users/stapi/OneDrive/Desktop/GD32VW553/GD32VW55X_Wifi_BLE_SDK/GD32VW55x_RELEASE_V1.0.2/MSDK/app\iperf.c ****             }
 276:C:/Users/stapi/OneDrive/Desktop/GD32VW553/GD32VW55X_Wifi_BLE_SDK/GD32VW55x_RELEASE_V1.0.2/MSDK/app\iperf.c ****             break;
 277:C:/Users/stapi/OneDrive/Desktop/GD32VW553/GD32VW55X_Wifi_BLE_SDK/GD32VW55x_RELEASE_V1.0.2/MSDK/app\iperf.c ****     }
 278:C:/Users/stapi/OneDrive/Desktop/GD32VW553/GD32VW55X_Wifi_BLE_SDK/GD32VW55x_RELEASE_V1.0.2/MSDK/app\iperf.c **** 
 279:C:/Users/stapi/OneDrive/Desktop/GD32VW553/GD32VW55X_Wifi_BLE_SDK/GD32VW55x_RELEASE_V1.0.2/MSDK/app\iperf.c ****     if (is_bit_value)
 280:C:/Users/stapi/OneDrive/Desktop/GD32VW553/GD32VW55X_Wifi_BLE_SDK/GD32VW55x_RELEASE_V1.0.2/MSDK/app\iperf.c ****     {
 281:C:/Users/stapi/OneDrive/Desktop/GD32VW553/GD32VW55X_Wifi_BLE_SDK/GD32VW55x_RELEASE_V1.0.2/MSDK/app\iperf.c ****         amount *= 8;
 282:C:/Users/stapi/OneDrive/Desktop/GD32VW553/GD32VW55X_Wifi_BLE_SDK/GD32VW55x_RELEASE_V1.0.2/MSDK/app\iperf.c ****         suffix = net_iperf_bit_lbl[conv];
 283:C:/Users/stapi/OneDrive/Desktop/GD32VW553/GD32VW55X_Wifi_BLE_SDK/GD32VW55x_RELEASE_V1.0.2/MSDK/app\iperf.c ****         while (conv-- > 0)
 284:C:/Users/stapi/OneDrive/Desktop/GD32VW553/GD32VW55X_Wifi_BLE_SDK/GD32VW55x_RELEASE_V1.0.2/MSDK/app\iperf.c ****             amount /= 1000;
 285:C:/Users/stapi/OneDrive/Desktop/GD32VW553/GD32VW55X_Wifi_BLE_SDK/GD32VW55x_RELEASE_V1.0.2/MSDK/app\iperf.c ****     }
 286:C:/Users/stapi/OneDrive/Desktop/GD32VW553/GD32VW55X_Wifi_BLE_SDK/GD32VW55x_RELEASE_V1.0.2/MSDK/app\iperf.c ****     else
 287:C:/Users/stapi/OneDrive/Desktop/GD32VW553/GD32VW55X_Wifi_BLE_SDK/GD32VW55x_RELEASE_V1.0.2/MSDK/app\iperf.c ****     {
 288:C:/Users/stapi/OneDrive/Desktop/GD32VW553/GD32VW55X_Wifi_BLE_SDK/GD32VW55x_RELEASE_V1.0.2/MSDK/app\iperf.c ****         suffix = net_iperf_byte_lbl[conv];
 239              		.loc 1 288 9
 240              		.loc 1 288 16 is_stmt 0
 241 0038 B7070000 		lui	a5,%hi(.LANCHOR1)
 242 003c 93870700 		addi	a5,a5,%lo(.LANCHOR1)
 289:C:/Users/stapi/OneDrive/Desktop/GD32VW553/GD32VW55X_Wifi_BLE_SDK/GD32VW55x_RELEASE_V1.0.2/MSDK/app\iperf.c ****         while (conv-- > 0)
 290:C:/Users/stapi/OneDrive/Desktop/GD32VW553/GD32VW55X_Wifi_BLE_SDK/GD32VW55x_RELEASE_V1.0.2/MSDK/app\iperf.c ****             amount /= 1024;
 243              		.loc 1 290 20
 244 0040 37060000 		lui	a2,%hi(.LC8)
 288:C:/Users/stapi/OneDrive/Desktop/GD32VW553/GD32VW55X_Wifi_BLE_SDK/GD32VW55x_RELEASE_V1.0.2/MSDK/app\iperf.c ****         while (conv-- > 0)
 245              		.loc 1 288 16
 246 0044 B3C7F620 		sh2add	a5,a3,a5
 247              		.loc 1 290 20
 248 0048 87270600 		flw	fa5,%lo(.LC8)(a2)
 288:C:/Users/stapi/OneDrive/Desktop/GD32VW553/GD32VW55X_Wifi_BLE_SDK/GD32VW55x_RELEASE_V1.0.2/MSDK/app\iperf.c ****         while (conv-- > 0)
 249              		.loc 1 288 16
 250 004c 9C43     		lw	a5,0(a5)
 251              	.LVL20:
 289:C:/Users/stapi/OneDrive/Desktop/GD32VW553/GD32VW55X_Wifi_BLE_SDK/GD32VW55x_RELEASE_V1.0.2/MSDK/app\iperf.c ****         while (conv-- > 0)
 252              		.loc 1 289 9 is_stmt 1
 289:C:/Users/stapi/OneDrive/Desktop/GD32VW553/GD32VW55X_Wifi_BLE_SDK/GD32VW55x_RELEASE_V1.0.2/MSDK/app\iperf.c ****         while (conv-- > 0)
 253              		.loc 1 289 15 is_stmt 0
 254 004e 1307F00F 		li	a4,255
 255              	.L39:
 256              	.LVL21:
 289:C:/Users/stapi/OneDrive/Desktop/GD32VW553/GD32VW55X_Wifi_BLE_SDK/GD32VW55x_RELEASE_V1.0.2/MSDK/app\iperf.c ****         while (conv-- > 0)
 257              		.loc 1 289 15 is_stmt 1
 289:C:/Users/stapi/OneDrive/Desktop/GD32VW553/GD32VW55X_Wifi_BLE_SDK/GD32VW55x_RELEASE_V1.0.2/MSDK/app\iperf.c ****         while (conv-- > 0)
 258              		.loc 1 289 20 is_stmt 0
 259 0052 FD16     		addi	a3,a3,-1
 260              	.LVL22:
 261 0054 93F6F60F 		andi	a3,a3,0xff
 262              	.LVL23:
 289:C:/Users/stapi/OneDrive/Desktop/GD32VW553/GD32VW55X_Wifi_BLE_SDK/GD32VW55x_RELEASE_V1.0.2/MSDK/app\iperf.c ****         while (conv-- > 0)
 263              		.loc 1 289 15
 264 0058 638FE606 		beq	a3,a4,.L38
 265              		.loc 1 290 13 is_stmt 1
 266              		.loc 1 290 20 is_stmt 0
 267 005c 5375F510 		fmul.s	fa0,fa0,fa5
 268              	.LVL24:
 269 0060 CDBF     		j	.L39
 270              	.LVL25:
 271              	.L21:
 236:C:/Users/stapi/OneDrive/Desktop/GD32VW553/GD32VW55X_Wifi_BLE_SDK/GD32VW55x_RELEASE_V1.0.2/MSDK/app\iperf.c ****     {
 272              		.loc 1 236 5
 273 0062 9307B006 		li	a5,107
 274 0066 8546     		li	a3,1
 275 0068 638FF502 		beq	a1,a5,.L29
 276 006c 63C1B70C 		bgt	a1,a5,.L30
 277 0070 93072006 		li	a5,98
 241:C:/Users/stapi/OneDrive/Desktop/GD32VW553/GD32VW55X_Wifi_BLE_SDK/GD32VW55x_RELEASE_V1.0.2/MSDK/app\iperf.c ****             break;
 278              		.loc 1 241 18
 279 0074 8146     		li	a3,0
 236:C:/Users/stapi/OneDrive/Desktop/GD32VW553/GD32VW55X_Wifi_BLE_SDK/GD32VW55x_RELEASE_V1.0.2/MSDK/app\iperf.c ****     {
 280              		.loc 1 236 5
 281 0076 6388F502 		beq	a1,a5,.L29
 282 007a 93077006 		li	a5,103
 256:C:/Users/stapi/OneDrive/Desktop/GD32VW553/GD32VW55X_Wifi_BLE_SDK/GD32VW55x_RELEASE_V1.0.2/MSDK/app\iperf.c ****             break;
 283              		.loc 1 256 18
 284 007e 8D46     		li	a3,3
 285              	.L60:
 236:C:/Users/stapi/OneDrive/Desktop/GD32VW553/GD32VW55X_Wifi_BLE_SDK/GD32VW55x_RELEASE_V1.0.2/MSDK/app\iperf.c ****     {
 286              		.loc 1 236 5
 287 0080 6383F502 		beq	a1,a5,.L29
 288              	.LVL26:
 289              	.L22:
 261:C:/Users/stapi/OneDrive/Desktop/GD32VW553/GD32VW55X_Wifi_BLE_SDK/GD32VW55x_RELEASE_V1.0.2/MSDK/app\iperf.c ****             for (float tmp_amount = amount * 8;
 290              		.loc 1 261 13 is_stmt 1
 262:C:/Users/stapi/OneDrive/Desktop/GD32VW553/GD32VW55X_Wifi_BLE_SDK/GD32VW55x_RELEASE_V1.0.2/MSDK/app\iperf.c ****                  tmp_amount >= 1000.0 && conv <= CONV_GIGA;
 291              		.loc 1 262 13
 292              	.LBB4:
 262:C:/Users/stapi/OneDrive/Desktop/GD32VW553/GD32VW55X_Wifi_BLE_SDK/GD32VW55x_RELEASE_V1.0.2/MSDK/app\iperf.c ****                  tmp_amount >= 1000.0 && conv <= CONV_GIGA;
 293              		.loc 1 262 18
 262:C:/Users/stapi/OneDrive/Desktop/GD32VW553/GD32VW55X_Wifi_BLE_SDK/GD32VW55x_RELEASE_V1.0.2/MSDK/app\iperf.c ****                  tmp_amount >= 1000.0 && conv <= CONV_GIGA;
 294              		.loc 1 262 24 is_stmt 0
 295 0084 B7070000 		lui	a5,%hi(.LC6)
 296 0088 87A70700 		flw	fa5,%lo(.LC6)(a5)
 262:C:/Users/stapi/OneDrive/Desktop/GD32VW553/GD32VW55X_Wifi_BLE_SDK/GD32VW55x_RELEASE_V1.0.2/MSDK/app\iperf.c ****                  tmp_amount >= 1000.0 && conv <= CONV_GIGA;
 297              		.loc 1 262 13
 298 008c B7070000 		lui	a5,%hi(.LC7)
 299 0090 07A70700 		flw	fa4,%lo(.LC7)(a5)
 262:C:/Users/stapi/OneDrive/Desktop/GD32VW553/GD32VW55X_Wifi_BLE_SDK/GD32VW55x_RELEASE_V1.0.2/MSDK/app\iperf.c ****                  tmp_amount >= 1000.0 && conv <= CONV_GIGA;
 300              		.loc 1 262 24
 301 0094 D377F510 		fmul.s	fa5,fa0,fa5
 302              	.LVL27:
 303              	.LBE4:
 230:C:/Users/stapi/OneDrive/Desktop/GD32VW553/GD32VW55X_Wifi_BLE_SDK/GD32VW55x_RELEASE_V1.0.2/MSDK/app\iperf.c ****     const char *suffix;
 304              		.loc 1 230 13
 305 0098 8146     		li	a3,0
 306              	.LBB5:
 263:C:/Users/stapi/OneDrive/Desktop/GD32VW553/GD32VW55X_Wifi_BLE_SDK/GD32VW55x_RELEASE_V1.0.2/MSDK/app\iperf.c ****                  conv++)
 307              		.loc 1 263 39
 308 009a 9147     		li	a5,4
 309              	.LVL28:
 310              	.L31:
 263:C:/Users/stapi/OneDrive/Desktop/GD32VW553/GD32VW55X_Wifi_BLE_SDK/GD32VW55x_RELEASE_V1.0.2/MSDK/app\iperf.c ****                  conv++)
 311              		.loc 1 263 18 is_stmt 1
 262:C:/Users/stapi/OneDrive/Desktop/GD32VW553/GD32VW55X_Wifi_BLE_SDK/GD32VW55x_RELEASE_V1.0.2/MSDK/app\iperf.c ****                  tmp_amount >= 1000.0 && conv <= CONV_GIGA;
 312              		.loc 1 262 13 is_stmt 0
 313 009c 5307F7A0 		fge.s	a4,fa5,fa4
 314 00a0 19C3     		beq	a4,zero,.L29
 263:C:/Users/stapi/OneDrive/Desktop/GD32VW553/GD32VW55X_Wifi_BLE_SDK/GD32VW55x_RELEASE_V1.0.2/MSDK/app\iperf.c ****                  conv++)
 315              		.loc 1 263 39
 316 00a2 639CF608 		bne	a3,a5,.L33
 317              	.LVL29:
 318              	.L29:
 319              	.LBE5:
 281:C:/Users/stapi/OneDrive/Desktop/GD32VW553/GD32VW55X_Wifi_BLE_SDK/GD32VW55x_RELEASE_V1.0.2/MSDK/app\iperf.c ****         suffix = net_iperf_bit_lbl[conv];
 320              		.loc 1 281 9 is_stmt 1
 281:C:/Users/stapi/OneDrive/Desktop/GD32VW553/GD32VW55X_Wifi_BLE_SDK/GD32VW55x_RELEASE_V1.0.2/MSDK/app\iperf.c ****         suffix = net_iperf_bit_lbl[conv];
 321              		.loc 1 281 16 is_stmt 0
 322 00a6 B7070000 		lui	a5,%hi(.LC6)
 323 00aa 87A70700 		flw	fa5,%lo(.LC6)(a5)
 282:C:/Users/stapi/OneDrive/Desktop/GD32VW553/GD32VW55X_Wifi_BLE_SDK/GD32VW55x_RELEASE_V1.0.2/MSDK/app\iperf.c ****         while (conv-- > 0)
 324              		.loc 1 282 16
 325 00ae B7070000 		lui	a5,%hi(.LANCHOR0)
 326 00b2 93870700 		addi	a5,a5,%lo(.LANCHOR0)
 284:C:/Users/stapi/OneDrive/Desktop/GD32VW553/GD32VW55X_Wifi_BLE_SDK/GD32VW55x_RELEASE_V1.0.2/MSDK/app\iperf.c ****     }
 327              		.loc 1 284 20
 328 00b6 37060000 		lui	a2,%hi(.LC7)
 281:C:/Users/stapi/OneDrive/Desktop/GD32VW553/GD32VW55X_Wifi_BLE_SDK/GD32VW55x_RELEASE_V1.0.2/MSDK/app\iperf.c ****         suffix = net_iperf_bit_lbl[conv];
 329              		.loc 1 281 16
 330 00ba 5375F510 		fmul.s	fa0,fa0,fa5
 331              	.LVL30:
 282:C:/Users/stapi/OneDrive/Desktop/GD32VW553/GD32VW55X_Wifi_BLE_SDK/GD32VW55x_RELEASE_V1.0.2/MSDK/app\iperf.c ****         while (conv-- > 0)
 332              		.loc 1 282 9 is_stmt 1
 282:C:/Users/stapi/OneDrive/Desktop/GD32VW553/GD32VW55X_Wifi_BLE_SDK/GD32VW55x_RELEASE_V1.0.2/MSDK/app\iperf.c ****         while (conv-- > 0)
 333              		.loc 1 282 16 is_stmt 0
 334 00be B3C7F620 		sh2add	a5,a3,a5
 284:C:/Users/stapi/OneDrive/Desktop/GD32VW553/GD32VW55X_Wifi_BLE_SDK/GD32VW55x_RELEASE_V1.0.2/MSDK/app\iperf.c ****     }
 335              		.loc 1 284 20
 336 00c2 87270600 		flw	fa5,%lo(.LC7)(a2)
 282:C:/Users/stapi/OneDrive/Desktop/GD32VW553/GD32VW55X_Wifi_BLE_SDK/GD32VW55x_RELEASE_V1.0.2/MSDK/app\iperf.c ****         while (conv-- > 0)
 337              		.loc 1 282 16
 338 00c6 9C43     		lw	a5,0(a5)
 339              	.LVL31:
 283:C:/Users/stapi/OneDrive/Desktop/GD32VW553/GD32VW55X_Wifi_BLE_SDK/GD32VW55x_RELEASE_V1.0.2/MSDK/app\iperf.c ****             amount /= 1000;
 340              		.loc 1 283 9 is_stmt 1
 283:C:/Users/stapi/OneDrive/Desktop/GD32VW553/GD32VW55X_Wifi_BLE_SDK/GD32VW55x_RELEASE_V1.0.2/MSDK/app\iperf.c ****             amount /= 1000;
 341              		.loc 1 283 15 is_stmt 0
 342 00c8 1307F00F 		li	a4,255
 343              	.L36:
 344              	.LVL32:
 283:C:/Users/stapi/OneDrive/Desktop/GD32VW553/GD32VW55X_Wifi_BLE_SDK/GD32VW55x_RELEASE_V1.0.2/MSDK/app\iperf.c ****             amount /= 1000;
 345              		.loc 1 283 15 is_stmt 1
 283:C:/Users/stapi/OneDrive/Desktop/GD32VW553/GD32VW55X_Wifi_BLE_SDK/GD32VW55x_RELEASE_V1.0.2/MSDK/app\iperf.c ****             amount /= 1000;
 346              		.loc 1 283 20 is_stmt 0
 347 00cc FD16     		addi	a3,a3,-1
 348              	.LVL33:
 349 00ce 93F6F60F 		andi	a3,a3,0xff
 350              	.LVL34:
 283:C:/Users/stapi/OneDrive/Desktop/GD32VW553/GD32VW55X_Wifi_BLE_SDK/GD32VW55x_RELEASE_V1.0.2/MSDK/app\iperf.c ****             amount /= 1000;
 351              		.loc 1 283 15
 352 00d2 6393E60A 		bne	a3,a4,.L37
 353              	.L38:
 291:C:/Users/stapi/OneDrive/Desktop/GD32VW553/GD32VW55X_Wifi_BLE_SDK/GD32VW55x_RELEASE_V1.0.2/MSDK/app\iperf.c ****     }
 292:C:/Users/stapi/OneDrive/Desktop/GD32VW553/GD32VW55X_Wifi_BLE_SDK/GD32VW55x_RELEASE_V1.0.2/MSDK/app\iperf.c **** 
 293:C:/Users/stapi/OneDrive/Desktop/GD32VW553/GD32VW55X_Wifi_BLE_SDK/GD32VW55x_RELEASE_V1.0.2/MSDK/app\iperf.c ****     int_amount = (int32_t)amount;
 354              		.loc 1 293 5 is_stmt 1
 355              	.LVL35:
 294:C:/Users/stapi/OneDrive/Desktop/GD32VW553/GD32VW55X_Wifi_BLE_SDK/GD32VW55x_RELEASE_V1.0.2/MSDK/app\iperf.c ****     if (amount < (float)9.995)
 356              		.loc 1 294 5
 357              		.loc 1 294 8 is_stmt 0
 358 00d6 37070000 		lui	a4,%hi(.LC10)
 359 00da 87270700 		flw	fa5,%lo(.LC10)(a4)
 360 00de 5317F5A0 		flt.s	a4,fa0,fa5
 361 00e2 55C3     		beq	a4,zero,.L56
 295:C:/Users/stapi/OneDrive/Desktop/GD32VW553/GD32VW55X_Wifi_BLE_SDK/GD32VW55x_RELEASE_V1.0.2/MSDK/app\iperf.c ****     {
 296:C:/Users/stapi/OneDrive/Desktop/GD32VW553/GD32VW55X_Wifi_BLE_SDK/GD32VW55x_RELEASE_V1.0.2/MSDK/app\iperf.c ****         round = (float)0.005;
 362              		.loc 1 296 9 is_stmt 1
 363              	.LVL36:
 297:C:/Users/stapi/OneDrive/Desktop/GD32VW553/GD32VW55X_Wifi_BLE_SDK/GD32VW55x_RELEASE_V1.0.2/MSDK/app\iperf.c ****         amount += round;
 364              		.loc 1 297 9
 365              		.loc 1 297 16 is_stmt 0
 366 00e4 37070000 		lui	a4,%hi(.LC11)
 367 00e8 87270700 		flw	fa5,%lo(.LC11)(a4)
 298:C:/Users/stapi/OneDrive/Desktop/GD32VW553/GD32VW55X_Wifi_BLE_SDK/GD32VW55x_RELEASE_V1.0.2/MSDK/app\iperf.c ****         int_amount = (int32_t)amount;
 299:C:/Users/stapi/OneDrive/Desktop/GD32VW553/GD32VW55X_Wifi_BLE_SDK/GD32VW55x_RELEASE_V1.0.2/MSDK/app\iperf.c ****         dec_amount = (amount * 100) - (int_amount * 100);
 368              		.loc 1 299 30
 369 00ec 37070000 		lui	a4,%hi(.LC12)
 300:C:/Users/stapi/OneDrive/Desktop/GD32VW553/GD32VW55X_Wifi_BLE_SDK/GD32VW55x_RELEASE_V1.0.2/MSDK/app\iperf.c ****         dbg_snprintf((char *)out_str, len, "%d.%02d %s", int_amount, dec_amount, suffix);
 370              		.loc 1 300 9
 371 00f0 37060000 		lui	a2,%hi(.LC13)
 297:C:/Users/stapi/OneDrive/Desktop/GD32VW553/GD32VW55X_Wifi_BLE_SDK/GD32VW55x_RELEASE_V1.0.2/MSDK/app\iperf.c ****         amount += round;
 372              		.loc 1 297 16
 373 00f4 5375F500 		fadd.s	fa0,fa0,fa5
 374              	.LVL37:
 298:C:/Users/stapi/OneDrive/Desktop/GD32VW553/GD32VW55X_Wifi_BLE_SDK/GD32VW55x_RELEASE_V1.0.2/MSDK/app\iperf.c ****         int_amount = (int32_t)amount;
 375              		.loc 1 298 9 is_stmt 1
 299:C:/Users/stapi/OneDrive/Desktop/GD32VW553/GD32VW55X_Wifi_BLE_SDK/GD32VW55x_RELEASE_V1.0.2/MSDK/app\iperf.c ****         dbg_snprintf((char *)out_str, len, "%d.%02d %s", int_amount, dec_amount, suffix);
 376              		.loc 1 299 30 is_stmt 0
 377 00f8 87270700 		flw	fa5,%lo(.LC12)(a4)
 299:C:/Users/stapi/OneDrive/Desktop/GD32VW553/GD32VW55X_Wifi_BLE_SDK/GD32VW55x_RELEASE_V1.0.2/MSDK/app\iperf.c ****         dbg_snprintf((char *)out_str, len, "%d.%02d %s", int_amount, dec_amount, suffix);
 378              		.loc 1 299 51
 379 00fc 13074006 		li	a4,100
 380              		.loc 1 300 9
 381 0100 13060600 		addi	a2,a2,%lo(.LC13)
 298:C:/Users/stapi/OneDrive/Desktop/GD32VW553/GD32VW55X_Wifi_BLE_SDK/GD32VW55x_RELEASE_V1.0.2/MSDK/app\iperf.c ****         int_amount = (int32_t)amount;
 382              		.loc 1 298 20
 383 0104 D31605C0 		fcvt.w.s a3,fa0,rtz
 384              	.LVL38:
 299:C:/Users/stapi/OneDrive/Desktop/GD32VW553/GD32VW55X_Wifi_BLE_SDK/GD32VW55x_RELEASE_V1.0.2/MSDK/app\iperf.c ****         dbg_snprintf((char *)out_str, len, "%d.%02d %s", int_amount, dec_amount, suffix);
 385              		.loc 1 299 9 is_stmt 1
 386              		.loc 1 300 9
 299:C:/Users/stapi/OneDrive/Desktop/GD32VW553/GD32VW55X_Wifi_BLE_SDK/GD32VW55x_RELEASE_V1.0.2/MSDK/app\iperf.c ****         dbg_snprintf((char *)out_str, len, "%d.%02d %s", int_amount, dec_amount, suffix);
 387              		.loc 1 299 30 is_stmt 0
 388 0108 5375F510 		fmul.s	fa0,fa0,fa5
 389              	.LVL39:
 299:C:/Users/stapi/OneDrive/Desktop/GD32VW553/GD32VW55X_Wifi_BLE_SDK/GD32VW55x_RELEASE_V1.0.2/MSDK/app\iperf.c ****         dbg_snprintf((char *)out_str, len, "%d.%02d %s", int_amount, dec_amount, suffix);
 390              		.loc 1 299 51
 391 010c 3387E602 		mul	a4,a3,a4
 299:C:/Users/stapi/OneDrive/Desktop/GD32VW553/GD32VW55X_Wifi_BLE_SDK/GD32VW55x_RELEASE_V1.0.2/MSDK/app\iperf.c ****         dbg_snprintf((char *)out_str, len, "%d.%02d %s", int_amount, dec_amount, suffix);
 392              		.loc 1 299 37
 393 0110 D37707D0 		fcvt.s.w	fa5,a4
 394 0114 5375F508 		fsub.s	fa0,fa0,fa5
 395              		.loc 1 300 9
 396 0118 531705C0 		fcvt.w.s a4,fa0,rtz
 397              	.LVL40:
 398              	.L61:
 301:C:/Users/stapi/OneDrive/Desktop/GD32VW553/GD32VW55X_Wifi_BLE_SDK/GD32VW55x_RELEASE_V1.0.2/MSDK/app\iperf.c ****     }
 302:C:/Users/stapi/OneDrive/Desktop/GD32VW553/GD32VW55X_Wifi_BLE_SDK/GD32VW55x_RELEASE_V1.0.2/MSDK/app\iperf.c ****     else if (amount < (float)99.95)
 303:C:/Users/stapi/OneDrive/Desktop/GD32VW553/GD32VW55X_Wifi_BLE_SDK/GD32VW55x_RELEASE_V1.0.2/MSDK/app\iperf.c ****     {
 304:C:/Users/stapi/OneDrive/Desktop/GD32VW553/GD32VW55X_Wifi_BLE_SDK/GD32VW55x_RELEASE_V1.0.2/MSDK/app\iperf.c ****         round = (float)0.05;
 305:C:/Users/stapi/OneDrive/Desktop/GD32VW553/GD32VW55X_Wifi_BLE_SDK/GD32VW55x_RELEASE_V1.0.2/MSDK/app\iperf.c ****         amount += round;
 306:C:/Users/stapi/OneDrive/Desktop/GD32VW553/GD32VW55X_Wifi_BLE_SDK/GD32VW55x_RELEASE_V1.0.2/MSDK/app\iperf.c ****         int_amount = (int32_t)amount;
 307:C:/Users/stapi/OneDrive/Desktop/GD32VW553/GD32VW55X_Wifi_BLE_SDK/GD32VW55x_RELEASE_V1.0.2/MSDK/app\iperf.c ****         dec_amount = (amount * 10) - (int_amount * 10);
 308:C:/Users/stapi/OneDrive/Desktop/GD32VW553/GD32VW55X_Wifi_BLE_SDK/GD32VW55x_RELEASE_V1.0.2/MSDK/app\iperf.c ****         dbg_snprintf((char *)out_str, len, "%d.%d %s", int_amount, dec_amount, suffix);
 399              		.loc 1 308 9
 400 011c AD45     		li	a1,11
 401 011e 97000000 		call	dbg_snprintf
 401      E7800000 
 402              	.LVL41:
 403              	.L20:
 309:C:/Users/stapi/OneDrive/Desktop/GD32VW553/GD32VW55X_Wifi_BLE_SDK/GD32VW55x_RELEASE_V1.0.2/MSDK/app\iperf.c ****     }
 310:C:/Users/stapi/OneDrive/Desktop/GD32VW553/GD32VW55X_Wifi_BLE_SDK/GD32VW55x_RELEASE_V1.0.2/MSDK/app\iperf.c ****     else
 311:C:/Users/stapi/OneDrive/Desktop/GD32VW553/GD32VW55X_Wifi_BLE_SDK/GD32VW55x_RELEASE_V1.0.2/MSDK/app\iperf.c ****     {
 312:C:/Users/stapi/OneDrive/Desktop/GD32VW553/GD32VW55X_Wifi_BLE_SDK/GD32VW55x_RELEASE_V1.0.2/MSDK/app\iperf.c ****         round = (float)0.5;
 313:C:/Users/stapi/OneDrive/Desktop/GD32VW553/GD32VW55X_Wifi_BLE_SDK/GD32VW55x_RELEASE_V1.0.2/MSDK/app\iperf.c ****         amount += round;
 314:C:/Users/stapi/OneDrive/Desktop/GD32VW553/GD32VW55X_Wifi_BLE_SDK/GD32VW55x_RELEASE_V1.0.2/MSDK/app\iperf.c ****         int_amount = (int32_t)amount;
 315:C:/Users/stapi/OneDrive/Desktop/GD32VW553/GD32VW55X_Wifi_BLE_SDK/GD32VW55x_RELEASE_V1.0.2/MSDK/app\iperf.c ****         dbg_snprintf((char *)out_str, len, "%4d %s", int_amount, suffix);
 316:C:/Users/stapi/OneDrive/Desktop/GD32VW553/GD32VW55X_Wifi_BLE_SDK/GD32VW55x_RELEASE_V1.0.2/MSDK/app\iperf.c ****     }
 317:C:/Users/stapi/OneDrive/Desktop/GD32VW553/GD32VW55X_Wifi_BLE_SDK/GD32VW55x_RELEASE_V1.0.2/MSDK/app\iperf.c **** }
 404              		.loc 1 317 1
 405 0126 17030000 		tail	__riscv_restore_0
 405      67000300 
 406              		.cfi_remember_state
 407              		.cfi_restore 1
 408              		.cfi_def_cfa_offset 0
 409              	.LVL42:
 410              	.L30:
 411              		.cfi_restore_state
 236:C:/Users/stapi/OneDrive/Desktop/GD32VW553/GD32VW55X_Wifi_BLE_SDK/GD32VW55x_RELEASE_V1.0.2/MSDK/app\iperf.c ****     {
 412              		.loc 1 236 5
 413 012e 9307D006 		li	a5,109
 251:C:/Users/stapi/OneDrive/Desktop/GD32VW553/GD32VW55X_Wifi_BLE_SDK/GD32VW55x_RELEASE_V1.0.2/MSDK/app\iperf.c ****             break;
 414              		.loc 1 251 18
 415 0132 8946     		li	a3,2
 416 0134 B1B7     		j	.L60
 417              	.LVL43:
 418              	.L26:
 256:C:/Users/stapi/OneDrive/Desktop/GD32VW553/GD32VW55X_Wifi_BLE_SDK/GD32VW55x_RELEASE_V1.0.2/MSDK/app\iperf.c ****             break;
 419              		.loc 1 256 13 is_stmt 1
 257:C:/Users/stapi/OneDrive/Desktop/GD32VW553/GD32VW55X_Wifi_BLE_SDK/GD32VW55x_RELEASE_V1.0.2/MSDK/app\iperf.c **** 
 420              		.loc 1 257 13
 279:C:/Users/stapi/OneDrive/Desktop/GD32VW553/GD32VW55X_Wifi_BLE_SDK/GD32VW55x_RELEASE_V1.0.2/MSDK/app\iperf.c ****     {
 421              		.loc 1 279 5
 256:C:/Users/stapi/OneDrive/Desktop/GD32VW553/GD32VW55X_Wifi_BLE_SDK/GD32VW55x_RELEASE_V1.0.2/MSDK/app\iperf.c ****             break;
 422              		.loc 1 256 18 is_stmt 0
 423 0136 8D46     		li	a3,3
 424 0138 01B7     		j	.L23
 425              	.LVL44:
 426              	.L33:
 427              	.LBB6:
 266:C:/Users/stapi/OneDrive/Desktop/GD32VW553/GD32VW55X_Wifi_BLE_SDK/GD32VW55x_RELEASE_V1.0.2/MSDK/app\iperf.c ****             }
 428              		.loc 1 266 17 is_stmt 1
 264:C:/Users/stapi/OneDrive/Desktop/GD32VW553/GD32VW55X_Wifi_BLE_SDK/GD32VW55x_RELEASE_V1.0.2/MSDK/app\iperf.c ****             {
 429              		.loc 1 264 22 is_stmt 0
 430 013a 8506     		addi	a3,a3,1
 431              	.LVL45:
 266:C:/Users/stapi/OneDrive/Desktop/GD32VW553/GD32VW55X_Wifi_BLE_SDK/GD32VW55x_RELEASE_V1.0.2/MSDK/app\iperf.c ****             }
 432              		.loc 1 266 28
 433 013c D3F7E718 		fdiv.s	fa5,fa5,fa4
 434              	.LVL46:
 264:C:/Users/stapi/OneDrive/Desktop/GD32VW553/GD32VW55X_Wifi_BLE_SDK/GD32VW55x_RELEASE_V1.0.2/MSDK/app\iperf.c ****             {
 435              		.loc 1 264 18 is_stmt 1
 264:C:/Users/stapi/OneDrive/Desktop/GD32VW553/GD32VW55X_Wifi_BLE_SDK/GD32VW55x_RELEASE_V1.0.2/MSDK/app\iperf.c ****             {
 436              		.loc 1 264 22 is_stmt 0
 437 0140 93F6F60F 		andi	a3,a3,0xff
 438              	.LVL47:
 439 0144 A1BF     		j	.L31
 440              	.LVL48:
 441              	.L35:
 442              	.LBE6:
 443              	.LBB7:
 274:C:/Users/stapi/OneDrive/Desktop/GD32VW553/GD32VW55X_Wifi_BLE_SDK/GD32VW55x_RELEASE_V1.0.2/MSDK/app\iperf.c ****             }
 444              		.loc 1 274 17 is_stmt 1
 274:C:/Users/stapi/OneDrive/Desktop/GD32VW553/GD32VW55X_Wifi_BLE_SDK/GD32VW55x_RELEASE_V1.0.2/MSDK/app\iperf.c ****             }
 445              		.loc 1 274 28 is_stmt 0
 446 0146 D3F7D710 		fmul.s	fa5,fa5,fa3
 447              	.LVL49:
 272:C:/Users/stapi/OneDrive/Desktop/GD32VW553/GD32VW55X_Wifi_BLE_SDK/GD32VW55x_RELEASE_V1.0.2/MSDK/app\iperf.c ****             {
 448              		.loc 1 272 18 is_stmt 1
 272:C:/Users/stapi/OneDrive/Desktop/GD32VW553/GD32VW55X_Wifi_BLE_SDK/GD32VW55x_RELEASE_V1.0.2/MSDK/app\iperf.c ****             {
 449              		.loc 1 272 22 is_stmt 0
 450 014a 8506     		addi	a3,a3,1
 451              	.LVL50:
 452 014c 93F6F60F 		andi	a3,a3,0xff
 453              	.LVL51:
 454              	.L28:
 271:C:/Users/stapi/OneDrive/Desktop/GD32VW553/GD32VW55X_Wifi_BLE_SDK/GD32VW55x_RELEASE_V1.0.2/MSDK/app\iperf.c ****                  conv++)
 455              		.loc 1 271 18 is_stmt 1
 270:C:/Users/stapi/OneDrive/Desktop/GD32VW553/GD32VW55X_Wifi_BLE_SDK/GD32VW55x_RELEASE_V1.0.2/MSDK/app\iperf.c ****                  tmp_amount >= 1024.0 && conv <= CONV_GIGA;
 456              		.loc 1 270 13 is_stmt 0
 457 0150 5307F7A0 		fge.s	a4,fa5,fa4
 458 0154 E30207EE 		beq	a4,zero,.L23
 271:C:/Users/stapi/OneDrive/Desktop/GD32VW553/GD32VW55X_Wifi_BLE_SDK/GD32VW55x_RELEASE_V1.0.2/MSDK/app\iperf.c ****                  conv++)
 459              		.loc 1 271 39
 460 0158 E397F6FE 		bne	a3,a5,.L35
 461 015c F1BD     		j	.L23
 462              	.LVL52:
 463              	.L46:
 270:C:/Users/stapi/OneDrive/Desktop/GD32VW553/GD32VW55X_Wifi_BLE_SDK/GD32VW55x_RELEASE_V1.0.2/MSDK/app\iperf.c ****                  tmp_amount >= 1024.0 && conv <= CONV_GIGA;
 464              		.loc 1 270 13
 465 015e B7070000 		lui	a5,%hi(.LC9)
 274:C:/Users/stapi/OneDrive/Desktop/GD32VW553/GD32VW55X_Wifi_BLE_SDK/GD32VW55x_RELEASE_V1.0.2/MSDK/app\iperf.c ****             }
 466              		.loc 1 274 28
 467 0162 37070000 		lui	a4,%hi(.LC8)
 270:C:/Users/stapi/OneDrive/Desktop/GD32VW553/GD32VW55X_Wifi_BLE_SDK/GD32VW55x_RELEASE_V1.0.2/MSDK/app\iperf.c ****                  tmp_amount >= 1024.0 && conv <= CONV_GIGA;
 468              		.loc 1 270 13
 469 0166 07A70700 		flw	fa4,%lo(.LC9)(a5)
 470              	.LBE7:
 236:C:/Users/stapi/OneDrive/Desktop/GD32VW553/GD32VW55X_Wifi_BLE_SDK/GD32VW55x_RELEASE_V1.0.2/MSDK/app\iperf.c ****     {
 471              		.loc 1 236 5
 472 016a D307A520 		fmv.s	fa5,fa0
 473              	.LBB8:
 274:C:/Users/stapi/OneDrive/Desktop/GD32VW553/GD32VW55X_Wifi_BLE_SDK/GD32VW55x_RELEASE_V1.0.2/MSDK/app\iperf.c ****             }
 474              		.loc 1 274 28
 475 016e 87260700 		flw	fa3,%lo(.LC8)(a4)
 476              	.LBE8:
 236:C:/Users/stapi/OneDrive/Desktop/GD32VW553/GD32VW55X_Wifi_BLE_SDK/GD32VW55x_RELEASE_V1.0.2/MSDK/app\iperf.c ****     {
 477              		.loc 1 236 5
 478 0172 8146     		li	a3,0
 479              	.LBB9:
 271:C:/Users/stapi/OneDrive/Desktop/GD32VW553/GD32VW55X_Wifi_BLE_SDK/GD32VW55x_RELEASE_V1.0.2/MSDK/app\iperf.c ****                  conv++)
 480              		.loc 1 271 39
 481 0174 9147     		li	a5,4
 482 0176 E9BF     		j	.L28
 483              	.LVL53:
 484              	.L37:
 485              	.LBE9:
 284:C:/Users/stapi/OneDrive/Desktop/GD32VW553/GD32VW55X_Wifi_BLE_SDK/GD32VW55x_RELEASE_V1.0.2/MSDK/app\iperf.c ****     }
 486              		.loc 1 284 13 is_stmt 1
 284:C:/Users/stapi/OneDrive/Desktop/GD32VW553/GD32VW55X_Wifi_BLE_SDK/GD32VW55x_RELEASE_V1.0.2/MSDK/app\iperf.c ****     }
 487              		.loc 1 284 20 is_stmt 0
 488 0178 5375F518 		fdiv.s	fa0,fa0,fa5
 489              	.LVL54:
 490 017c 81BF     		j	.L36
 491              	.LVL55:
 492              	.L27:
 241:C:/Users/stapi/OneDrive/Desktop/GD32VW553/GD32VW55X_Wifi_BLE_SDK/GD32VW55x_RELEASE_V1.0.2/MSDK/app\iperf.c ****             break;
 493              		.loc 1 241 18
 494 017e 8146     		li	a3,0
 495 0180 65BD     		j	.L23
 496              	.L47:
 251:C:/Users/stapi/OneDrive/Desktop/GD32VW553/GD32VW55X_Wifi_BLE_SDK/GD32VW55x_RELEASE_V1.0.2/MSDK/app\iperf.c ****             break;
 497              		.loc 1 251 18
 498 0182 8946     		li	a3,2
 499 0184 55BD     		j	.L23
 500              	.LVL56:
 501              	.L56:
 302:C:/Users/stapi/OneDrive/Desktop/GD32VW553/GD32VW55X_Wifi_BLE_SDK/GD32VW55x_RELEASE_V1.0.2/MSDK/app\iperf.c ****     {
 502              		.loc 1 302 10 is_stmt 1
 302:C:/Users/stapi/OneDrive/Desktop/GD32VW553/GD32VW55X_Wifi_BLE_SDK/GD32VW55x_RELEASE_V1.0.2/MSDK/app\iperf.c ****     {
 503              		.loc 1 302 13 is_stmt 0
 504 0186 37070000 		lui	a4,%hi(.LC14)
 505 018a 87270700 		flw	fa5,%lo(.LC14)(a4)
 506 018e 5317F5A0 		flt.s	a4,fa0,fa5
 507 0192 0DCF     		beq	a4,zero,.L57
 304:C:/Users/stapi/OneDrive/Desktop/GD32VW553/GD32VW55X_Wifi_BLE_SDK/GD32VW55x_RELEASE_V1.0.2/MSDK/app\iperf.c ****         amount += round;
 508              		.loc 1 304 9 is_stmt 1
 509              	.LVL57:
 305:C:/Users/stapi/OneDrive/Desktop/GD32VW553/GD32VW55X_Wifi_BLE_SDK/GD32VW55x_RELEASE_V1.0.2/MSDK/app\iperf.c ****         int_amount = (int32_t)amount;
 510              		.loc 1 305 9
 305:C:/Users/stapi/OneDrive/Desktop/GD32VW553/GD32VW55X_Wifi_BLE_SDK/GD32VW55x_RELEASE_V1.0.2/MSDK/app\iperf.c ****         int_amount = (int32_t)amount;
 511              		.loc 1 305 16 is_stmt 0
 512 0194 37070000 		lui	a4,%hi(.LC15)
 513 0198 87270700 		flw	fa5,%lo(.LC15)(a4)
 307:C:/Users/stapi/OneDrive/Desktop/GD32VW553/GD32VW55X_Wifi_BLE_SDK/GD32VW55x_RELEASE_V1.0.2/MSDK/app\iperf.c ****         dbg_snprintf((char *)out_str, len, "%d.%d %s", int_amount, dec_amount, suffix);
 514              		.loc 1 307 30
 515 019c 37070000 		lui	a4,%hi(.LC16)
 308:C:/Users/stapi/OneDrive/Desktop/GD32VW553/GD32VW55X_Wifi_BLE_SDK/GD32VW55x_RELEASE_V1.0.2/MSDK/app\iperf.c ****     }
 516              		.loc 1 308 9
 517 01a0 37060000 		lui	a2,%hi(.LC17)
 305:C:/Users/stapi/OneDrive/Desktop/GD32VW553/GD32VW55X_Wifi_BLE_SDK/GD32VW55x_RELEASE_V1.0.2/MSDK/app\iperf.c ****         int_amount = (int32_t)amount;
 518              		.loc 1 305 16
 519 01a4 5375F500 		fadd.s	fa0,fa0,fa5
 520              	.LVL58:
 306:C:/Users/stapi/OneDrive/Desktop/GD32VW553/GD32VW55X_Wifi_BLE_SDK/GD32VW55x_RELEASE_V1.0.2/MSDK/app\iperf.c ****         dec_amount = (amount * 10) - (int_amount * 10);
 521              		.loc 1 306 9 is_stmt 1
 307:C:/Users/stapi/OneDrive/Desktop/GD32VW553/GD32VW55X_Wifi_BLE_SDK/GD32VW55x_RELEASE_V1.0.2/MSDK/app\iperf.c ****         dbg_snprintf((char *)out_str, len, "%d.%d %s", int_amount, dec_amount, suffix);
 522              		.loc 1 307 30 is_stmt 0
 523 01a8 87270700 		flw	fa5,%lo(.LC16)(a4)
 307:C:/Users/stapi/OneDrive/Desktop/GD32VW553/GD32VW55X_Wifi_BLE_SDK/GD32VW55x_RELEASE_V1.0.2/MSDK/app\iperf.c ****         dbg_snprintf((char *)out_str, len, "%d.%d %s", int_amount, dec_amount, suffix);
 524              		.loc 1 307 50
 525 01ac 2947     		li	a4,10
 308:C:/Users/stapi/OneDrive/Desktop/GD32VW553/GD32VW55X_Wifi_BLE_SDK/GD32VW55x_RELEASE_V1.0.2/MSDK/app\iperf.c ****     }
 526              		.loc 1 308 9
 527 01ae 13060600 		addi	a2,a2,%lo(.LC17)
 306:C:/Users/stapi/OneDrive/Desktop/GD32VW553/GD32VW55X_Wifi_BLE_SDK/GD32VW55x_RELEASE_V1.0.2/MSDK/app\iperf.c ****         dec_amount = (amount * 10) - (int_amount * 10);
 528              		.loc 1 306 20
 529 01b2 D31605C0 		fcvt.w.s a3,fa0,rtz
 530              	.LVL59:
 307:C:/Users/stapi/OneDrive/Desktop/GD32VW553/GD32VW55X_Wifi_BLE_SDK/GD32VW55x_RELEASE_V1.0.2/MSDK/app\iperf.c ****         dbg_snprintf((char *)out_str, len, "%d.%d %s", int_amount, dec_amount, suffix);
 531              		.loc 1 307 9 is_stmt 1
 308:C:/Users/stapi/OneDrive/Desktop/GD32VW553/GD32VW55X_Wifi_BLE_SDK/GD32VW55x_RELEASE_V1.0.2/MSDK/app\iperf.c ****     }
 532              		.loc 1 308 9
 307:C:/Users/stapi/OneDrive/Desktop/GD32VW553/GD32VW55X_Wifi_BLE_SDK/GD32VW55x_RELEASE_V1.0.2/MSDK/app\iperf.c ****         dbg_snprintf((char *)out_str, len, "%d.%d %s", int_amount, dec_amount, suffix);
 533              		.loc 1 307 30 is_stmt 0
 534 01b6 5375F510 		fmul.s	fa0,fa0,fa5
 535              	.LVL60:
 307:C:/Users/stapi/OneDrive/Desktop/GD32VW553/GD32VW55X_Wifi_BLE_SDK/GD32VW55x_RELEASE_V1.0.2/MSDK/app\iperf.c ****         dbg_snprintf((char *)out_str, len, "%d.%d %s", int_amount, dec_amount, suffix);
 536              		.loc 1 307 50
 537 01ba 3387E602 		mul	a4,a3,a4
 307:C:/Users/stapi/OneDrive/Desktop/GD32VW553/GD32VW55X_Wifi_BLE_SDK/GD32VW55x_RELEASE_V1.0.2/MSDK/app\iperf.c ****         dbg_snprintf((char *)out_str, len, "%d.%d %s", int_amount, dec_amount, suffix);
 538              		.loc 1 307 36
 539 01be D37707D0 		fcvt.s.w	fa5,a4
 540 01c2 5375F508 		fsub.s	fa0,fa0,fa5
 308:C:/Users/stapi/OneDrive/Desktop/GD32VW553/GD32VW55X_Wifi_BLE_SDK/GD32VW55x_RELEASE_V1.0.2/MSDK/app\iperf.c ****     }
 541              		.loc 1 308 9
 542 01c6 531705C0 		fcvt.w.s a4,fa0,rtz
 543              	.LVL61:
 544 01ca 89BF     		j	.L61
 545              	.LVL62:
 546              	.L57:
 312:C:/Users/stapi/OneDrive/Desktop/GD32VW553/GD32VW55X_Wifi_BLE_SDK/GD32VW55x_RELEASE_V1.0.2/MSDK/app\iperf.c ****         amount += round;
 547              		.loc 1 312 9 is_stmt 1
 313:C:/Users/stapi/OneDrive/Desktop/GD32VW553/GD32VW55X_Wifi_BLE_SDK/GD32VW55x_RELEASE_V1.0.2/MSDK/app\iperf.c ****         int_amount = (int32_t)amount;
 548              		.loc 1 313 9
 314:C:/Users/stapi/OneDrive/Desktop/GD32VW553/GD32VW55X_Wifi_BLE_SDK/GD32VW55x_RELEASE_V1.0.2/MSDK/app\iperf.c ****         dbg_snprintf((char *)out_str, len, "%4d %s", int_amount, suffix);
 549              		.loc 1 314 9
 315:C:/Users/stapi/OneDrive/Desktop/GD32VW553/GD32VW55X_Wifi_BLE_SDK/GD32VW55x_RELEASE_V1.0.2/MSDK/app\iperf.c ****     }
 550              		.loc 1 315 9
 313:C:/Users/stapi/OneDrive/Desktop/GD32VW553/GD32VW55X_Wifi_BLE_SDK/GD32VW55x_RELEASE_V1.0.2/MSDK/app\iperf.c ****         int_amount = (int32_t)amount;
 551              		.loc 1 313 16 is_stmt 0
 552 01cc 37070000 		lui	a4,%hi(.LC18)
 553 01d0 87270700 		flw	fa5,%lo(.LC18)(a4)
 315:C:/Users/stapi/OneDrive/Desktop/GD32VW553/GD32VW55X_Wifi_BLE_SDK/GD32VW55x_RELEASE_V1.0.2/MSDK/app\iperf.c ****     }
 554              		.loc 1 315 9
 555 01d4 37060000 		lui	a2,%hi(.LC19)
 556 01d8 3E87     		mv	a4,a5
 313:C:/Users/stapi/OneDrive/Desktop/GD32VW553/GD32VW55X_Wifi_BLE_SDK/GD32VW55x_RELEASE_V1.0.2/MSDK/app\iperf.c ****         int_amount = (int32_t)amount;
 557              		.loc 1 313 16
 558 01da 5375F500 		fadd.s	fa0,fa0,fa5
 559              	.LVL63:
 315:C:/Users/stapi/OneDrive/Desktop/GD32VW553/GD32VW55X_Wifi_BLE_SDK/GD32VW55x_RELEASE_V1.0.2/MSDK/app\iperf.c ****     }
 560              		.loc 1 315 9
 561 01de 13060600 		addi	a2,a2,%lo(.LC19)
 562 01e2 AD45     		li	a1,11
 563 01e4 D31605C0 		fcvt.w.s a3,fa0,rtz
 564              	.LVL64:
 565 01e8 97000000 		call	dbg_snprintf
 565      E7800000 
 566              	.LVL65:
 567              		.loc 1 317 1
 568 01f0 1DBF     		j	.L20
 569              		.cfi_endproc
 570              	.LFE26:
 572              		.section	.text.iperf_settings_init,"ax",@progbits
 573              		.align	1
 574              		.globl	iperf_settings_init
 576              	iperf_settings_init:
 577              	.LFB18:
 318:C:/Users/stapi/OneDrive/Desktop/GD32VW553/GD32VW55X_Wifi_BLE_SDK/GD32VW55x_RELEASE_V1.0.2/MSDK/app\iperf.c **** 
 319:C:/Users/stapi/OneDrive/Desktop/GD32VW553/GD32VW55X_Wifi_BLE_SDK/GD32VW55x_RELEASE_V1.0.2/MSDK/app\iperf.c **** void iperf_settings_init(struct iperf_settings_t *iperf_settings)
 320:C:/Users/stapi/OneDrive/Desktop/GD32VW553/GD32VW55X_Wifi_BLE_SDK/GD32VW55x_RELEASE_V1.0.2/MSDK/app\iperf.c **** {
 578              		.loc 1 320 1 is_stmt 1
 579              		.cfi_startproc
 580              	.LVL66:
 581 0000 17030000 		call	t0,__riscv_save_1
 581      E7020300 
 582              		.cfi_offset 8, -8
 583              		.cfi_offset 1, -4
 584              		.cfi_def_cfa_offset 16
 321:C:/Users/stapi/OneDrive/Desktop/GD32VW553/GD32VW55X_Wifi_BLE_SDK/GD32VW55x_RELEASE_V1.0.2/MSDK/app\iperf.c ****     sys_memset(iperf_settings, 0, sizeof(*iperf_settings));
 585              		.loc 1 321 5
 586 0008 13068003 		li	a2,56
 587 000c 8145     		li	a1,0
 320:C:/Users/stapi/OneDrive/Desktop/GD32VW553/GD32VW55X_Wifi_BLE_SDK/GD32VW55x_RELEASE_V1.0.2/MSDK/app\iperf.c ****     sys_memset(iperf_settings, 0, sizeof(*iperf_settings));
 588              		.loc 1 320 1 is_stmt 0
 589 000e 2A84     		mv	s0,a0
 590              		.loc 1 321 5
 591 0010 97000000 		call	sys_memset
 591      E7800000 
 592              	.LVL67:
 322:C:/Users/stapi/OneDrive/Desktop/GD32VW553/GD32VW55X_Wifi_BLE_SDK/GD32VW55x_RELEASE_V1.0.2/MSDK/app\iperf.c **** 
 323:C:/Users/stapi/OneDrive/Desktop/GD32VW553/GD32VW55X_Wifi_BLE_SDK/GD32VW55x_RELEASE_V1.0.2/MSDK/app\iperf.c ****     // option, defaults
 324:C:/Users/stapi/OneDrive/Desktop/GD32VW553/GD32VW55X_Wifi_BLE_SDK/GD32VW55x_RELEASE_V1.0.2/MSDK/app\iperf.c ****     iperf_settings->flags.is_time_mode  = true;
 593              		.loc 1 324 5 is_stmt 1
 325:C:/Users/stapi/OneDrive/Desktop/GD32VW553/GD32VW55X_Wifi_BLE_SDK/GD32VW55x_RELEASE_V1.0.2/MSDK/app\iperf.c ****     iperf_settings->flags.is_server     = 0; // -s or -c
 594              		.loc 1 325 5
 326:C:/Users/stapi/OneDrive/Desktop/GD32VW553/GD32VW55X_Wifi_BLE_SDK/GD32VW55x_RELEASE_V1.0.2/MSDK/app\iperf.c ****     iperf_settings->buf_len             = IPERF_DEFAULT_BUFFER_LEN; // -l
 595              		.loc 1 326 5
 596              		.loc 1 326 41 is_stmt 0
 597 0018 8967     		li	a5,8192
 598 001a 5CC0     		sw	a5,4(s0)
 327:C:/Users/stapi/OneDrive/Desktop/GD32VW553/GD32VW55X_Wifi_BLE_SDK/GD32VW55x_RELEASE_V1.0.2/MSDK/app\iperf.c ****     iperf_settings->port                = IPERF_DEFAULT_PORT;     // -p,  ttcp port
 599              		.loc 1 327 5 is_stmt 1
 600              		.loc 1 327 41 is_stmt 0
 601 001c 8567     		li	a5,4096
 602 001e 93879738 		addi	a5,a5,905
 603 0022 2318F400 		sh	a5,16(s0)
 328:C:/Users/stapi/OneDrive/Desktop/GD32VW553/GD32VW55X_Wifi_BLE_SDK/GD32VW55x_RELEASE_V1.0.2/MSDK/app\iperf.c ****     iperf_settings->amount              = IPERF_DEFAULT_TIME_AMOUNT; // -t
 604              		.loc 1 328 5 is_stmt 1
 605              		.loc 1 328 41 is_stmt 0
 606 0026 8147     		li	a5,0
 607 0028 5CD0     		sw	a5,36(s0)
 329:C:/Users/stapi/OneDrive/Desktop/GD32VW553/GD32VW55X_Wifi_BLE_SDK/GD32VW55x_RELEASE_V1.0.2/MSDK/app\iperf.c ****     iperf_settings->interval.sec        = 1;
 608              		.loc 1 329 5 is_stmt 1
 609              		.loc 1 329 41 is_stmt 0
 610 002a 8547     		li	a5,1
 611 002c 1CD4     		sw	a5,40(s0)
 330:C:/Users/stapi/OneDrive/Desktop/GD32VW553/GD32VW55X_Wifi_BLE_SDK/GD32VW55x_RELEASE_V1.0.2/MSDK/app\iperf.c ****     iperf_settings->flags.show_int_stats = true;
 612              		.loc 1 330 5 is_stmt 1
 324:C:/Users/stapi/OneDrive/Desktop/GD32VW553/GD32VW55X_Wifi_BLE_SDK/GD32VW55x_RELEASE_V1.0.2/MSDK/app\iperf.c ****     iperf_settings->flags.is_server     = 0; // -s or -c
 613              		.loc 1 324 41 is_stmt 0
 614 002e 83470403 		lbu	a5,48(s0)
 328:C:/Users/stapi/OneDrive/Desktop/GD32VW553/GD32VW55X_Wifi_BLE_SDK/GD32VW55x_RELEASE_V1.0.2/MSDK/app\iperf.c ****     iperf_settings->interval.sec        = 1;
 615              		.loc 1 328 41
 616 0032 2947     		li	a4,10
 617 0034 18D0     		sw	a4,32(s0)
 324:C:/Users/stapi/OneDrive/Desktop/GD32VW553/GD32VW55X_Wifi_BLE_SDK/GD32VW55x_RELEASE_V1.0.2/MSDK/app\iperf.c ****     iperf_settings->flags.is_server     = 0; // -s or -c
 618              		.loc 1 324 41
 619 0036 93F7B7FA 		andi	a5,a5,-85
 620 003a 93E74704 		ori	a5,a5,68
 621 003e 2308F402 		sb	a5,48(s0)
 331:C:/Users/stapi/OneDrive/Desktop/GD32VW553/GD32VW55X_Wifi_BLE_SDK/GD32VW55x_RELEASE_V1.0.2/MSDK/app\iperf.c ****     iperf_settings->format              = 'a';
 622              		.loc 1 331 5 is_stmt 1
 623              		.loc 1 331 41 is_stmt 0
 624 0042 93071006 		li	a5,97
 625 0046 2306F400 		sb	a5,12(s0)
 332:C:/Users/stapi/OneDrive/Desktop/GD32VW553/GD32VW55X_Wifi_BLE_SDK/GD32VW55x_RELEASE_V1.0.2/MSDK/app\iperf.c ****     iperf_settings->ttl                 = 255;
 626              		.loc 1 332 5 is_stmt 1
 627              		.loc 1 332 41 is_stmt 0
 628 004a 9307F00F 		li	a5,255
 629 004e 231AF400 		sh	a5,20(s0)
 333:C:/Users/stapi/OneDrive/Desktop/GD32VW553/GD32VW55X_Wifi_BLE_SDK/GD32VW55x_RELEASE_V1.0.2/MSDK/app\iperf.c **** }
 630              		.loc 1 333 1
 631 0052 17030000 		tail	__riscv_restore_1
 631      67000300 
 632              		.cfi_restore 8
 633              		.cfi_restore 1
 634              		.cfi_def_cfa_offset 0
 635              		.cfi_endproc
 636              	.LFE18:
 638              		.section	.text.iperf_init_stats,"ax",@progbits
 639              		.align	1
 640              		.globl	iperf_init_stats
 642              	iperf_init_stats:
 643              	.LFB20:
 334:C:/Users/stapi/OneDrive/Desktop/GD32VW553/GD32VW55X_Wifi_BLE_SDK/GD32VW55x_RELEASE_V1.0.2/MSDK/app\iperf.c **** 
 335:C:/Users/stapi/OneDrive/Desktop/GD32VW553/GD32VW55X_Wifi_BLE_SDK/GD32VW55x_RELEASE_V1.0.2/MSDK/app\iperf.c **** static void iperf_dump_settings(struct iperf_settings_t *settings)
 336:C:/Users/stapi/OneDrive/Desktop/GD32VW553/GD32VW55X_Wifi_BLE_SDK/GD32VW55x_RELEASE_V1.0.2/MSDK/app\iperf.c **** {
 337:C:/Users/stapi/OneDrive/Desktop/GD32VW553/GD32VW55X_Wifi_BLE_SDK/GD32VW55x_RELEASE_V1.0.2/MSDK/app\iperf.c **** #ifdef CONFIG_IPV6_SUPPORT
 338:C:/Users/stapi/OneDrive/Desktop/GD32VW553/GD32VW55X_Wifi_BLE_SDK/GD32VW55x_RELEASE_V1.0.2/MSDK/app\iperf.c ****     app_print("host_ip    : %s\r\n", ipaddr_ntoa(&settings->host_ip));
 339:C:/Users/stapi/OneDrive/Desktop/GD32VW553/GD32VW55X_Wifi_BLE_SDK/GD32VW55x_RELEASE_V1.0.2/MSDK/app\iperf.c **** #else
 340:C:/Users/stapi/OneDrive/Desktop/GD32VW553/GD32VW55X_Wifi_BLE_SDK/GD32VW55x_RELEASE_V1.0.2/MSDK/app\iperf.c ****     app_print("host_ip    : %08x\r\n", settings->host_ip);
 341:C:/Users/stapi/OneDrive/Desktop/GD32VW553/GD32VW55X_Wifi_BLE_SDK/GD32VW55x_RELEASE_V1.0.2/MSDK/app\iperf.c **** #endif
 342:C:/Users/stapi/OneDrive/Desktop/GD32VW553/GD32VW55X_Wifi_BLE_SDK/GD32VW55x_RELEASE_V1.0.2/MSDK/app\iperf.c ****     app_print("buf_len    : %u\r\n", settings->buf_len);
 343:C:/Users/stapi/OneDrive/Desktop/GD32VW553/GD32VW55X_Wifi_BLE_SDK/GD32VW55x_RELEASE_V1.0.2/MSDK/app\iperf.c ****     app_print("test_mode  : %u\r\n", settings->test_mode);
 344:C:/Users/stapi/OneDrive/Desktop/GD32VW553/GD32VW55X_Wifi_BLE_SDK/GD32VW55x_RELEASE_V1.0.2/MSDK/app\iperf.c ****     app_print("format     : %c\r\n", settings->format);
 345:C:/Users/stapi/OneDrive/Desktop/GD32VW553/GD32VW55X_Wifi_BLE_SDK/GD32VW55x_RELEASE_V1.0.2/MSDK/app\iperf.c ****     app_print("listen_port: %u\r\n", settings->listen_port);
 346:C:/Users/stapi/OneDrive/Desktop/GD32VW553/GD32VW55X_Wifi_BLE_SDK/GD32VW55x_RELEASE_V1.0.2/MSDK/app\iperf.c ****     app_print("port       : %u\r\n", settings->port);
 347:C:/Users/stapi/OneDrive/Desktop/GD32VW553/GD32VW55X_Wifi_BLE_SDK/GD32VW55x_RELEASE_V1.0.2/MSDK/app\iperf.c ****     app_print("tos        : %u\r\n", settings->tos);
 348:C:/Users/stapi/OneDrive/Desktop/GD32VW553/GD32VW55X_Wifi_BLE_SDK/GD32VW55x_RELEASE_V1.0.2/MSDK/app\iperf.c ****     app_print("udp rate   : %u\r\n", (uint32_t)settings->udprate);
 349:C:/Users/stapi/OneDrive/Desktop/GD32VW553/GD32VW55X_Wifi_BLE_SDK/GD32VW55x_RELEASE_V1.0.2/MSDK/app\iperf.c ****     app_print("amount     : %u\r\n", (uint32_t)settings->amount);
 350:C:/Users/stapi/OneDrive/Desktop/GD32VW553/GD32VW55X_Wifi_BLE_SDK/GD32VW55x_RELEASE_V1.0.2/MSDK/app\iperf.c ****     app_print("interval   : %u.%06u\r\n", settings->interval.sec, settings->interval.usec);
 351:C:/Users/stapi/OneDrive/Desktop/GD32VW553/GD32VW55X_Wifi_BLE_SDK/GD32VW55x_RELEASE_V1.0.2/MSDK/app\iperf.c ****     app_print("flags      : %x\r\n", *(uint8_t *)(&settings->flags));
 352:C:/Users/stapi/OneDrive/Desktop/GD32VW553/GD32VW55X_Wifi_BLE_SDK/GD32VW55x_RELEASE_V1.0.2/MSDK/app\iperf.c ****     app_print("             B[6-0]:int_stats|is_peer|is_server|bw_set|time_mode|is_udp|buflen_set\r
 353:C:/Users/stapi/OneDrive/Desktop/GD32VW553/GD32VW55X_Wifi_BLE_SDK/GD32VW55x_RELEASE_V1.0.2/MSDK/app\iperf.c **** }
 354:C:/Users/stapi/OneDrive/Desktop/GD32VW553/GD32VW55X_Wifi_BLE_SDK/GD32VW55x_RELEASE_V1.0.2/MSDK/app\iperf.c **** 
 355:C:/Users/stapi/OneDrive/Desktop/GD32VW553/GD32VW55X_Wifi_BLE_SDK/GD32VW55x_RELEASE_V1.0.2/MSDK/app\iperf.c **** void iperf_init_stats(struct net_iperf_stream *stream)
 356:C:/Users/stapi/OneDrive/Desktop/GD32VW553/GD32VW55X_Wifi_BLE_SDK/GD32VW55x_RELEASE_V1.0.2/MSDK/app\iperf.c **** {
 644              		.loc 1 356 1 is_stmt 1
 645              		.cfi_startproc
 646              	.LVL68:
 647 0000 17030000 		call	t0,__riscv_save_1
 647      E7020300 
 648              		.cfi_offset 8, -8
 649              		.cfi_offset 1, -4
 650              		.cfi_def_cfa_offset 16
 357:C:/Users/stapi/OneDrive/Desktop/GD32VW553/GD32VW55X_Wifi_BLE_SDK/GD32VW55x_RELEASE_V1.0.2/MSDK/app\iperf.c ****     struct iperf_report *report = &stream->report;
 651              		.loc 1 357 5
 652              	.LVL69:
 358:C:/Users/stapi/OneDrive/Desktop/GD32VW553/GD32VW55X_Wifi_BLE_SDK/GD32VW55x_RELEASE_V1.0.2/MSDK/app\iperf.c ****     struct iperf_settings_t *settings = &stream->iperf_settings;
 653              		.loc 1 358 5
 359:C:/Users/stapi/OneDrive/Desktop/GD32VW553/GD32VW55X_Wifi_BLE_SDK/GD32VW55x_RELEASE_V1.0.2/MSDK/app\iperf.c **** 
 360:C:/Users/stapi/OneDrive/Desktop/GD32VW553/GD32VW55X_Wifi_BLE_SDK/GD32VW55x_RELEASE_V1.0.2/MSDK/app\iperf.c ****     sys_memset(&report->stats, 0, sizeof(report->stats));
 654              		.loc 1 360 5
 356:C:/Users/stapi/OneDrive/Desktop/GD32VW553/GD32VW55X_Wifi_BLE_SDK/GD32VW55x_RELEASE_V1.0.2/MSDK/app\iperf.c ****     struct iperf_report *report = &stream->report;
 655              		.loc 1 356 1 is_stmt 0
 656 0008 2A84     		mv	s0,a0
 657              		.loc 1 360 5
 658 000a 6146     		li	a2,24
 659 000c 8145     		li	a1,0
 660 000e 13050506 		addi	a0,a0,96
 661              	.LVL70:
 662 0012 97000000 		call	sys_memset
 662      E7800000 
 663              	.LVL71:
 361:C:/Users/stapi/OneDrive/Desktop/GD32VW553/GD32VW55X_Wifi_BLE_SDK/GD32VW55x_RELEASE_V1.0.2/MSDK/app\iperf.c ****     sys_memset(&report->last_stats, 0, sizeof(report->last_stats));
 664              		.loc 1 361 5 is_stmt 1
 665 001a 6146     		li	a2,24
 666 001c 8145     		li	a1,0
 667 001e 13058407 		addi	a0,s0,120
 668 0022 97000000 		call	sys_memset
 668      E7800000 
 669              	.LVL72:
 362:C:/Users/stapi/OneDrive/Desktop/GD32VW553/GD32VW55X_Wifi_BLE_SDK/GD32VW55x_RELEASE_V1.0.2/MSDK/app\iperf.c **** 
 363:C:/Users/stapi/OneDrive/Desktop/GD32VW553/GD32VW55X_Wifi_BLE_SDK/GD32VW55x_RELEASE_V1.0.2/MSDK/app\iperf.c ****     iperf_current_time(&report->start_time);
 670              		.loc 1 363 5
 671 002a 1306C409 		addi	a2,s0,156
 672 002e 93058409 		addi	a1,s0,152
 673 0032 0145     		li	a0,0
 674 0034 97000000 		call	get_time
 674      E7800000 
 675              	.LVL73:
 676              		.loc 1 363 44
 364:C:/Users/stapi/OneDrive/Desktop/GD32VW553/GD32VW55X_Wifi_BLE_SDK/GD32VW55x_RELEASE_V1.0.2/MSDK/app\iperf.c ****     if (settings->flags.show_int_stats)
 677              		.loc 1 364 5
 678              		.loc 1 364 9 is_stmt 0
 679 003c 83478403 		lbu	a5,56(s0)
 680              		.loc 1 364 8
 681 0040 13F70704 		andi	a4,a5,64
 682 0044 0DCB     		beq	a4,zero,.L65
 365:C:/Users/stapi/OneDrive/Desktop/GD32VW553/GD32VW55X_Wifi_BLE_SDK/GD32VW55x_RELEASE_V1.0.2/MSDK/app\iperf.c ****     {
 366:C:/Users/stapi/OneDrive/Desktop/GD32VW553/GD32VW55X_Wifi_BLE_SDK/GD32VW55x_RELEASE_V1.0.2/MSDK/app\iperf.c ****         iperf_timeradd(&report->start_time, &settings->interval,
 683              		.loc 1 366 9 is_stmt 1
 684 0046 13070408 		addi	a4,s0,128
 685 004a 1058     		lw	a2,48(s0)
 686 004c 144F     		lw	a3,24(a4)
 687 004e B296     		add	a3,a3,a2
 688 0050 34C3     		sw	a3,64(a4)
 689              		.loc 1 366 9
 690 0052 5058     		lw	a2,52(s0)
 691 0054 544F     		lw	a3,28(a4)
 692 0056 B296     		add	a3,a3,a2
 693 0058 74C3     		sw	a3,68(a4)
 694              		.loc 1 366 9
 695 005a 37470F00 		li	a4,999424
 696 005e 13070724 		addi	a4,a4,576
 697              	.L66:
 698              		.loc 1 366 9 discriminator 1
 699 0062 8326440C 		lw	a3,196(s0)
 700 0066 6366D704 		bgtu	a3,a4,.L67
 367:C:/Users/stapi/OneDrive/Desktop/GD32VW553/GD32VW55X_Wifi_BLE_SDK/GD32VW55x_RELEASE_V1.0.2/MSDK/app\iperf.c ****                        &report->interval_target);
 701              		.loc 1 367 49
 368:C:/Users/stapi/OneDrive/Desktop/GD32VW553/GD32VW55X_Wifi_BLE_SDK/GD32VW55x_RELEASE_V1.0.2/MSDK/app\iperf.c ****         report->last_interval = report->start_time;
 702              		.loc 1 368 9
 703              		.loc 1 368 31 is_stmt 0
 704 006a 13070408 		addi	a4,s0,128
 705 006e 144F     		lw	a3,24(a4)
 706 0070 14DF     		sw	a3,56(a4)
 707 0072 544F     		lw	a3,28(a4)
 708 0074 54DF     		sw	a3,60(a4)
 709              	.L65:
 369:C:/Users/stapi/OneDrive/Desktop/GD32VW553/GD32VW55X_Wifi_BLE_SDK/GD32VW55x_RELEASE_V1.0.2/MSDK/app\iperf.c ****     }
 370:C:/Users/stapi/OneDrive/Desktop/GD32VW553/GD32VW55X_Wifi_BLE_SDK/GD32VW55x_RELEASE_V1.0.2/MSDK/app\iperf.c **** 
 371:C:/Users/stapi/OneDrive/Desktop/GD32VW553/GD32VW55X_Wifi_BLE_SDK/GD32VW55x_RELEASE_V1.0.2/MSDK/app\iperf.c ****     if (!settings->flags.is_server && settings->flags.is_time_mode)
 710              		.loc 1 371 5 is_stmt 1
 711              		.loc 1 371 25 is_stmt 0
 712 0076 185C     		lw	a4,56(s0)
 713              		.loc 1 371 8
 714 0078 13574748 		bexti	a4,a4,4
 715 007c 1DE7     		bne	a4,zero,.L64
 716              		.loc 1 371 36 discriminator 1
 717 007e 918B     		andi	a5,a5,4
 718 0080 8DC7     		beq	a5,zero,.L64
 719              	.LBB10:
 372:C:/Users/stapi/OneDrive/Desktop/GD32VW553/GD32VW55X_Wifi_BLE_SDK/GD32VW55x_RELEASE_V1.0.2/MSDK/app\iperf.c ****     {
 373:C:/Users/stapi/OneDrive/Desktop/GD32VW553/GD32VW55X_Wifi_BLE_SDK/GD32VW55x_RELEASE_V1.0.2/MSDK/app\iperf.c ****         struct iperf_time duration;
 720              		.loc 1 373 9 is_stmt 1
 374:C:/Users/stapi/OneDrive/Desktop/GD32VW553/GD32VW55X_Wifi_BLE_SDK/GD32VW55x_RELEASE_V1.0.2/MSDK/app\iperf.c ****         duration.sec = (uint32_t)settings->amount;// / 10;
 721              		.loc 1 374 9
 722              	.LVL74:
 375:C:/Users/stapi/OneDrive/Desktop/GD32VW553/GD32VW55X_Wifi_BLE_SDK/GD32VW55x_RELEASE_V1.0.2/MSDK/app\iperf.c ****         duration.usec = 100000;//(uint32_t)100000 * (settings->amount - (duration.sec * 10));
 723              		.loc 1 375 9
 376:C:/Users/stapi/OneDrive/Desktop/GD32VW553/GD32VW55X_Wifi_BLE_SDK/GD32VW55x_RELEASE_V1.0.2/MSDK/app\iperf.c ****         iperf_timeradd(&report->start_time, &duration, &report->end_time);
 724              		.loc 1 376 9
 725 0082 93070408 		addi	a5,s0,128
 726 0086 1854     		lw	a4,40(s0)
 727 0088 944F     		lw	a3,24(a5)
 728 008a 3697     		add	a4,a4,a3
 729 008c 98D3     		sw	a4,32(a5)
 730              		.loc 1 376 9
 731 008e D84F     		lw	a4,28(a5)
 732 0090 E166     		li	a3,98304
 733 0092 9386066A 		addi	a3,a3,1696
 734 0096 3697     		add	a4,a4,a3
 735 0098 D8D3     		sw	a4,36(a5)
 736              		.loc 1 376 9
 737 009a B7470F00 		li	a5,999424
 738 009e 93870724 		addi	a5,a5,576
 739              	.L70:
 740              		.loc 1 376 9 discriminator 1
 741 00a2 0327440A 		lw	a4,164(s0)
 742 00a6 63EFE700 		bgtu	a4,a5,.L71
 743              	.LVL75:
 744              	.L64:
 745              	.LBE10:
 377:C:/Users/stapi/OneDrive/Desktop/GD32VW553/GD32VW55X_Wifi_BLE_SDK/GD32VW55x_RELEASE_V1.0.2/MSDK/app\iperf.c ****     }
 378:C:/Users/stapi/OneDrive/Desktop/GD32VW553/GD32VW55X_Wifi_BLE_SDK/GD32VW55x_RELEASE_V1.0.2/MSDK/app\iperf.c **** }
 746              		.loc 1 378 1 is_stmt 0
 747 00aa 17030000 		tail	__riscv_restore_1
 747      67000300 
 748              		.cfi_remember_state
 749              		.cfi_restore 8
 750              		.cfi_restore 1
 751              		.cfi_def_cfa_offset 0
 752              	.L67:
 753              		.cfi_restore_state
 366:C:/Users/stapi/OneDrive/Desktop/GD32VW553/GD32VW55X_Wifi_BLE_SDK/GD32VW55x_RELEASE_V1.0.2/MSDK/app\iperf.c ****                        &report->interval_target);
 754              		.loc 1 366 9 is_stmt 1 discriminator 3
 755 00b2 998E     		sub	a3,a3,a4
 756 00b4 2322D40C 		sw	a3,196(s0)
 366:C:/Users/stapi/OneDrive/Desktop/GD32VW553/GD32VW55X_Wifi_BLE_SDK/GD32VW55x_RELEASE_V1.0.2/MSDK/app\iperf.c ****                        &report->interval_target);
 757              		.loc 1 366 9 discriminator 3
 758 00b8 8326040C 		lw	a3,192(s0)
 759 00bc 8506     		addi	a3,a3,1
 760 00be 2320D40C 		sw	a3,192(s0)
 761 00c2 45B7     		j	.L66
 762              	.LVL76:
 763              	.L71:
 764              	.LBB11:
 376:C:/Users/stapi/OneDrive/Desktop/GD32VW553/GD32VW55X_Wifi_BLE_SDK/GD32VW55x_RELEASE_V1.0.2/MSDK/app\iperf.c ****         iperf_timeradd(&report->start_time, &duration, &report->end_time);
 765              		.loc 1 376 9 discriminator 3
 766 00c4 1D8F     		sub	a4,a4,a5
 767 00c6 2322E40A 		sw	a4,164(s0)
 376:C:/Users/stapi/OneDrive/Desktop/GD32VW553/GD32VW55X_Wifi_BLE_SDK/GD32VW55x_RELEASE_V1.0.2/MSDK/app\iperf.c ****         iperf_timeradd(&report->start_time, &duration, &report->end_time);
 768              		.loc 1 376 9 discriminator 3
 769 00ca 0327040A 		lw	a4,160(s0)
 770 00ce 0507     		addi	a4,a4,1
 771 00d0 2320E40A 		sw	a4,160(s0)
 772 00d4 F9B7     		j	.L70
 773              	.LBE11:
 774              		.cfi_endproc
 775              	.LFE20:
 777              		.globl	__floatundisf
 778              		.section	.rodata.iperf_print_stats.str1.4,"aMS",@progbits,1
 779              		.align	2
 780              	.LC21:
 781 0000 5B204944 		.string	"[ ID]  Interval      Transfer     Bandwidth       Jitter   Lost/Total Datagrams\n"
 781      5D202049 
 781      6E746572 
 781      76616C20 
 781      20202020 
 782 0051 000000   		.align	2
 783              	.LC22:
 784 0054 5B253364 		.string	"[%3d] %2d.%01d-%2d.%01d sec  %s  %s/sec  %d.%03d ms   %d/%d (%d.%1d%%)\n"
 784      5D202532 
 784      642E2530 
 784      31642D25 
 784      32642E25 
 785              		.align	2
 786              	.LC23:
 787 009c 5B204944 		.string	"[ ID] Interval       Transfer     Bandwidth\n"
 787      5D20496E 
 787      74657276 
 787      616C2020 
 787      20202020 
 788 00c9 000000   		.align	2
 789              	.LC24:
 790 00cc 5B253364 		.string	"[%3d] %2d.%1d-%2d.%1d sec  %s  %s/sec\n"
 790      5D202532 
 790      642E2531 
 790      642D2532 
 790      642E2531 
 791              		.section	.text.iperf_print_stats,"ax",@progbits
 792              		.align	1
 793              		.globl	iperf_print_stats
 795              	iperf_print_stats:
 796              	.LFB22:
 379:C:/Users/stapi/OneDrive/Desktop/GD32VW553/GD32VW55X_Wifi_BLE_SDK/GD32VW55x_RELEASE_V1.0.2/MSDK/app\iperf.c **** 
 380:C:/Users/stapi/OneDrive/Desktop/GD32VW553/GD32VW55X_Wifi_BLE_SDK/GD32VW55x_RELEASE_V1.0.2/MSDK/app\iperf.c **** void iperf_print_interv_stats(struct net_iperf_stream *stream)
 381:C:/Users/stapi/OneDrive/Desktop/GD32VW553/GD32VW55X_Wifi_BLE_SDK/GD32VW55x_RELEASE_V1.0.2/MSDK/app\iperf.c **** {
 382:C:/Users/stapi/OneDrive/Desktop/GD32VW553/GD32VW55X_Wifi_BLE_SDK/GD32VW55x_RELEASE_V1.0.2/MSDK/app\iperf.c ****     struct iperf_settings_t *settings = &stream->iperf_settings;
 383:C:/Users/stapi/OneDrive/Desktop/GD32VW553/GD32VW55X_Wifi_BLE_SDK/GD32VW55x_RELEASE_V1.0.2/MSDK/app\iperf.c ****     struct iperf_report *report = &stream->report;
 384:C:/Users/stapi/OneDrive/Desktop/GD32VW553/GD32VW55X_Wifi_BLE_SDK/GD32VW55x_RELEASE_V1.0.2/MSDK/app\iperf.c ****     struct iperf_stats interval_stats;
 385:C:/Users/stapi/OneDrive/Desktop/GD32VW553/GD32VW55X_Wifi_BLE_SDK/GD32VW55x_RELEASE_V1.0.2/MSDK/app\iperf.c **** 
 386:C:/Users/stapi/OneDrive/Desktop/GD32VW553/GD32VW55X_Wifi_BLE_SDK/GD32VW55x_RELEASE_V1.0.2/MSDK/app\iperf.c ****     if (!settings->flags.show_int_stats ||
 387:C:/Users/stapi/OneDrive/Desktop/GD32VW553/GD32VW55X_Wifi_BLE_SDK/GD32VW55x_RELEASE_V1.0.2/MSDK/app\iperf.c ****         iperf_timerafter(&report->interval_target, &report->packet_time))
 388:C:/Users/stapi/OneDrive/Desktop/GD32VW553/GD32VW55X_Wifi_BLE_SDK/GD32VW55x_RELEASE_V1.0.2/MSDK/app\iperf.c ****         return;
 389:C:/Users/stapi/OneDrive/Desktop/GD32VW553/GD32VW55X_Wifi_BLE_SDK/GD32VW55x_RELEASE_V1.0.2/MSDK/app\iperf.c **** 
 390:C:/Users/stapi/OneDrive/Desktop/GD32VW553/GD32VW55X_Wifi_BLE_SDK/GD32VW55x_RELEASE_V1.0.2/MSDK/app\iperf.c ****     interval_stats.bytes = report->stats.bytes - report->last_stats.bytes;
 391:C:/Users/stapi/OneDrive/Desktop/GD32VW553/GD32VW55X_Wifi_BLE_SDK/GD32VW55x_RELEASE_V1.0.2/MSDK/app\iperf.c ****     if (settings->flags.is_udp && settings->flags.is_server)
 392:C:/Users/stapi/OneDrive/Desktop/GD32VW553/GD32VW55X_Wifi_BLE_SDK/GD32VW55x_RELEASE_V1.0.2/MSDK/app\iperf.c ****     {
 393:C:/Users/stapi/OneDrive/Desktop/GD32VW553/GD32VW55X_Wifi_BLE_SDK/GD32VW55x_RELEASE_V1.0.2/MSDK/app\iperf.c ****         interval_stats.nb_datagrams = report->stats.nb_datagrams -
 394:C:/Users/stapi/OneDrive/Desktop/GD32VW553/GD32VW55X_Wifi_BLE_SDK/GD32VW55x_RELEASE_V1.0.2/MSDK/app\iperf.c ****                                       report->last_stats.nb_datagrams;
 395:C:/Users/stapi/OneDrive/Desktop/GD32VW553/GD32VW55X_Wifi_BLE_SDK/GD32VW55x_RELEASE_V1.0.2/MSDK/app\iperf.c ****         interval_stats.nb_error = report->stats.nb_error - report->last_stats.nb_error;
 396:C:/Users/stapi/OneDrive/Desktop/GD32VW553/GD32VW55X_Wifi_BLE_SDK/GD32VW55x_RELEASE_V1.0.2/MSDK/app\iperf.c ****         interval_stats.nb_out_of_orded = report->stats.nb_out_of_orded -
 397:C:/Users/stapi/OneDrive/Desktop/GD32VW553/GD32VW55X_Wifi_BLE_SDK/GD32VW55x_RELEASE_V1.0.2/MSDK/app\iperf.c ****                                          report->last_stats.nb_out_of_orded;
 398:C:/Users/stapi/OneDrive/Desktop/GD32VW553/GD32VW55X_Wifi_BLE_SDK/GD32VW55x_RELEASE_V1.0.2/MSDK/app\iperf.c ****         if (interval_stats.nb_error > interval_stats.nb_out_of_orded)
 399:C:/Users/stapi/OneDrive/Desktop/GD32VW553/GD32VW55X_Wifi_BLE_SDK/GD32VW55x_RELEASE_V1.0.2/MSDK/app\iperf.c ****             interval_stats.nb_error -= interval_stats.nb_out_of_orded;
 400:C:/Users/stapi/OneDrive/Desktop/GD32VW553/GD32VW55X_Wifi_BLE_SDK/GD32VW55x_RELEASE_V1.0.2/MSDK/app\iperf.c ****         interval_stats.jitter_us = report->stats.jitter_us;
 401:C:/Users/stapi/OneDrive/Desktop/GD32VW553/GD32VW55X_Wifi_BLE_SDK/GD32VW55x_RELEASE_V1.0.2/MSDK/app\iperf.c ****     }
 402:C:/Users/stapi/OneDrive/Desktop/GD32VW553/GD32VW55X_Wifi_BLE_SDK/GD32VW55x_RELEASE_V1.0.2/MSDK/app\iperf.c ****     iperf_print_stats(stream, &report->last_interval, &report->packet_time,
 403:C:/Users/stapi/OneDrive/Desktop/GD32VW553/GD32VW55X_Wifi_BLE_SDK/GD32VW55x_RELEASE_V1.0.2/MSDK/app\iperf.c ****                             &interval_stats);
 404:C:/Users/stapi/OneDrive/Desktop/GD32VW553/GD32VW55X_Wifi_BLE_SDK/GD32VW55x_RELEASE_V1.0.2/MSDK/app\iperf.c **** 
 405:C:/Users/stapi/OneDrive/Desktop/GD32VW553/GD32VW55X_Wifi_BLE_SDK/GD32VW55x_RELEASE_V1.0.2/MSDK/app\iperf.c ****     report->last_stats = report->stats;
 406:C:/Users/stapi/OneDrive/Desktop/GD32VW553/GD32VW55X_Wifi_BLE_SDK/GD32VW55x_RELEASE_V1.0.2/MSDK/app\iperf.c ****     report->last_interval = report->packet_time;
 407:C:/Users/stapi/OneDrive/Desktop/GD32VW553/GD32VW55X_Wifi_BLE_SDK/GD32VW55x_RELEASE_V1.0.2/MSDK/app\iperf.c ****     iperf_timeradd(&report->interval_target, &settings->interval,
 408:C:/Users/stapi/OneDrive/Desktop/GD32VW553/GD32VW55X_Wifi_BLE_SDK/GD32VW55x_RELEASE_V1.0.2/MSDK/app\iperf.c ****                    &report->interval_target);
 409:C:/Users/stapi/OneDrive/Desktop/GD32VW553/GD32VW55X_Wifi_BLE_SDK/GD32VW55x_RELEASE_V1.0.2/MSDK/app\iperf.c **** }
 410:C:/Users/stapi/OneDrive/Desktop/GD32VW553/GD32VW55X_Wifi_BLE_SDK/GD32VW55x_RELEASE_V1.0.2/MSDK/app\iperf.c **** 
 411:C:/Users/stapi/OneDrive/Desktop/GD32VW553/GD32VW55X_Wifi_BLE_SDK/GD32VW55x_RELEASE_V1.0.2/MSDK/app\iperf.c **** 
 412:C:/Users/stapi/OneDrive/Desktop/GD32VW553/GD32VW55X_Wifi_BLE_SDK/GD32VW55x_RELEASE_V1.0.2/MSDK/app\iperf.c **** void iperf_print_stats(const struct net_iperf_stream *stream,
 413:C:/Users/stapi/OneDrive/Desktop/GD32VW553/GD32VW55X_Wifi_BLE_SDK/GD32VW55x_RELEASE_V1.0.2/MSDK/app\iperf.c ****                              struct iperf_time *start_time,
 414:C:/Users/stapi/OneDrive/Desktop/GD32VW553/GD32VW55X_Wifi_BLE_SDK/GD32VW55x_RELEASE_V1.0.2/MSDK/app\iperf.c ****                              struct iperf_time *end_time,
 415:C:/Users/stapi/OneDrive/Desktop/GD32VW553/GD32VW55X_Wifi_BLE_SDK/GD32VW55x_RELEASE_V1.0.2/MSDK/app\iperf.c ****                              const struct iperf_stats *stats)
 416:C:/Users/stapi/OneDrive/Desktop/GD32VW553/GD32VW55X_Wifi_BLE_SDK/GD32VW55x_RELEASE_V1.0.2/MSDK/app\iperf.c **** {
 797              		.loc 1 416 1
 798              		.cfi_startproc
 799              	.LVL77:
 800 0000 17030000 		call	t0,__riscv_save_9
 800      E7020300 
 801              		.cfi_offset 24, -40
 802              		.cfi_offset 23, -36
 803              		.cfi_offset 22, -32
 804              		.cfi_offset 21, -28
 805              		.cfi_offset 20, -24
 806              		.cfi_offset 19, -20
 807              		.cfi_offset 18, -16
 808              		.cfi_offset 9, -12
 809              		.cfi_offset 8, -8
 810              		.cfi_offset 1, -4
 811              		.cfi_def_cfa_offset 48
 417:C:/Users/stapi/OneDrive/Desktop/GD32VW553/GD32VW55X_Wifi_BLE_SDK/GD32VW55x_RELEASE_V1.0.2/MSDK/app\iperf.c ****     const struct iperf_settings_t *iperf_settings = &stream->iperf_settings;
 812              		.loc 1 417 5
 813              	.LBB12:
 418:C:/Users/stapi/OneDrive/Desktop/GD32VW553/GD32VW55X_Wifi_BLE_SDK/GD32VW55x_RELEASE_V1.0.2/MSDK/app\iperf.c ****     const struct iperf_report *report = &stream->report;
 419:C:/Users/stapi/OneDrive/Desktop/GD32VW553/GD32VW55X_Wifi_BLE_SDK/GD32VW55x_RELEASE_V1.0.2/MSDK/app\iperf.c ****     struct iperf_time duration_time;
 420:C:/Users/stapi/OneDrive/Desktop/GD32VW553/GD32VW55X_Wifi_BLE_SDK/GD32VW55x_RELEASE_V1.0.2/MSDK/app\iperf.c ****     char data[11], bw[11];
 421:C:/Users/stapi/OneDrive/Desktop/GD32VW553/GD32VW55X_Wifi_BLE_SDK/GD32VW55x_RELEASE_V1.0.2/MSDK/app\iperf.c ****     /* uint32_t int_amount, dec_amount; */
 422:C:/Users/stapi/OneDrive/Desktop/GD32VW553/GD32VW55X_Wifi_BLE_SDK/GD32VW55x_RELEASE_V1.0.2/MSDK/app\iperf.c ****     /* float start_time_flt, end_time_flt; */
 423:C:/Users/stapi/OneDrive/Desktop/GD32VW553/GD32VW55X_Wifi_BLE_SDK/GD32VW55x_RELEASE_V1.0.2/MSDK/app\iperf.c ****     uint64_t duration_usec;
 424:C:/Users/stapi/OneDrive/Desktop/GD32VW553/GD32VW55X_Wifi_BLE_SDK/GD32VW55x_RELEASE_V1.0.2/MSDK/app\iperf.c ****     uint32_t start_sec, end_sec;
 425:C:/Users/stapi/OneDrive/Desktop/GD32VW553/GD32VW55X_Wifi_BLE_SDK/GD32VW55x_RELEASE_V1.0.2/MSDK/app\iperf.c ****     int start_ds, end_ds;
 426:C:/Users/stapi/OneDrive/Desktop/GD32VW553/GD32VW55X_Wifi_BLE_SDK/GD32VW55x_RELEASE_V1.0.2/MSDK/app\iperf.c **** 
 427:C:/Users/stapi/OneDrive/Desktop/GD32VW553/GD32VW55X_Wifi_BLE_SDK/GD32VW55x_RELEASE_V1.0.2/MSDK/app\iperf.c ****     iperf_timersub(end_time, start_time, &duration_time);
 814              		.loc 1 427 5 is_stmt 0
 815 0008 832A0600 		lw	s5,0(a2)
 816              	.LBE12:
 416:C:/Users/stapi/OneDrive/Desktop/GD32VW553/GD32VW55X_Wifi_BLE_SDK/GD32VW55x_RELEASE_V1.0.2/MSDK/app\iperf.c ****     const struct iperf_settings_t *iperf_settings = &stream->iperf_settings;
 817              		.loc 1 416 1
 818 000c 368A     		mv	s4,a3
 819              	.LBB13:
 820              		.loc 1 427 5
 821 000e 5442     		lw	a3,4(a2)
 822              	.LVL78:
 823 0010 D041     		lw	a2,4(a1)
 824              	.LVL79:
 825 0012 83A90500 		lw	s3,0(a1)
 826              	.LBE13:
 416:C:/Users/stapi/OneDrive/Desktop/GD32VW553/GD32VW55X_Wifi_BLE_SDK/GD32VW55x_RELEASE_V1.0.2/MSDK/app\iperf.c ****     const struct iperf_settings_t *iperf_settings = &stream->iperf_settings;
 827              		.loc 1 416 1
 828 0016 5D71     		addi	sp,sp,-80
 829              		.cfi_def_cfa_offset 128
 830 0018 AA84     		mv	s1,a0
 831              	.LVL80:
 418:C:/Users/stapi/OneDrive/Desktop/GD32VW553/GD32VW55X_Wifi_BLE_SDK/GD32VW55x_RELEASE_V1.0.2/MSDK/app\iperf.c ****     const struct iperf_report *report = &stream->report;
 832              		.loc 1 418 5 is_stmt 1
 419:C:/Users/stapi/OneDrive/Desktop/GD32VW553/GD32VW55X_Wifi_BLE_SDK/GD32VW55x_RELEASE_V1.0.2/MSDK/app\iperf.c ****     char data[11], bw[11];
 833              		.loc 1 419 5
 420:C:/Users/stapi/OneDrive/Desktop/GD32VW553/GD32VW55X_Wifi_BLE_SDK/GD32VW55x_RELEASE_V1.0.2/MSDK/app\iperf.c ****     /* uint32_t int_amount, dec_amount; */
 834              		.loc 1 420 5
 423:C:/Users/stapi/OneDrive/Desktop/GD32VW553/GD32VW55X_Wifi_BLE_SDK/GD32VW55x_RELEASE_V1.0.2/MSDK/app\iperf.c ****     uint32_t start_sec, end_sec;
 835              		.loc 1 423 5
 424:C:/Users/stapi/OneDrive/Desktop/GD32VW553/GD32VW55X_Wifi_BLE_SDK/GD32VW55x_RELEASE_V1.0.2/MSDK/app\iperf.c ****     int start_ds, end_ds;
 836              		.loc 1 424 5
 425:C:/Users/stapi/OneDrive/Desktop/GD32VW553/GD32VW55X_Wifi_BLE_SDK/GD32VW55x_RELEASE_V1.0.2/MSDK/app\iperf.c **** 
 837              		.loc 1 425 5
 838              		.loc 1 427 5
 839              	.LBB14:
 840              		.loc 1 427 5
 841              		.loc 1 427 5
 842              	.LBE14:
 416:C:/Users/stapi/OneDrive/Desktop/GD32VW553/GD32VW55X_Wifi_BLE_SDK/GD32VW55x_RELEASE_V1.0.2/MSDK/app\iperf.c ****     const struct iperf_settings_t *iperf_settings = &stream->iperf_settings;
 843              		.loc 1 416 1 is_stmt 0
 844 001a A2E6     		fsw	fs0,76(sp)
 845              		.cfi_offset 40, -52
 846              	.LBB15:
 847              		.loc 1 427 5
 848 001c 3385C640 		sub	a0,a3,a2
 849              	.LVL81:
 850 0020 B3873A41 		sub	a5,s5,s3
 851              	.LVL82:
 852              		.loc 1 427 5 is_stmt 1
 853              		.loc 1 427 5
 854              		.loc 1 427 5
 855 0024 63580500 		bge	a0,zero,.L80
 856              		.loc 1 427 5 discriminator 1
 857 0028 37470F00 		li	a4,999424
 858 002c 13070724 		addi	a4,a4,576
 859 0030 FD17     		addi	a5,a5,-1
 860              	.LVL83:
 861              		.loc 1 427 5 discriminator 1
 862 0032 3A95     		add	a0,a0,a4
 863              	.LVL84:
 864              	.L80:
 865              	.LBE15:
 866              		.loc 1 427 5 discriminator 3
 428:C:/Users/stapi/OneDrive/Desktop/GD32VW553/GD32VW55X_Wifi_BLE_SDK/GD32VW55x_RELEASE_V1.0.2/MSDK/app\iperf.c ****     duration_usec = iperf_timerusec(&duration_time);
 867              		.loc 1 428 5 discriminator 3
 868              		.loc 1 428 21 is_stmt 0 discriminator 3
 869 0034 37470F00 		li	a4,999424
 870 0038 13070724 		addi	a4,a4,576
 871 003c 7F97E7F0 		mulr64	a4, a5, a4
 872              		.loc 1 428 19 discriminator 3
 873 0040 B30BA700 		add	s7,a4,a0
 874 0044 33BCEB00 		sltu	s8,s7,a4
 429:C:/Users/stapi/OneDrive/Desktop/GD32VW553/GD32VW55X_Wifi_BLE_SDK/GD32VW55x_RELEASE_V1.0.2/MSDK/app\iperf.c **** 
 430:C:/Users/stapi/OneDrive/Desktop/GD32VW553/GD32VW55X_Wifi_BLE_SDK/GD32VW55x_RELEASE_V1.0.2/MSDK/app\iperf.c ****     // Convert in local time (i.e using report->start_time as reference) and in sec.ds
 431:C:/Users/stapi/OneDrive/Desktop/GD32VW553/GD32VW55X_Wifi_BLE_SDK/GD32VW55x_RELEASE_V1.0.2/MSDK/app\iperf.c ****     // format
 432:C:/Users/stapi/OneDrive/Desktop/GD32VW553/GD32VW55X_Wifi_BLE_SDK/GD32VW55x_RELEASE_V1.0.2/MSDK/app\iperf.c ****     start_sec = start_time->sec - report->start_time.sec;
 433:C:/Users/stapi/OneDrive/Desktop/GD32VW553/GD32VW55X_Wifi_BLE_SDK/GD32VW55x_RELEASE_V1.0.2/MSDK/app\iperf.c ****     start_ds = start_time->usec - report->start_time.usec + 50000;
 875              		.loc 1 433 53 discriminator 3
 876 0048 03A7C409 		lw	a4,156(s1)
 432:C:/Users/stapi/OneDrive/Desktop/GD32VW553/GD32VW55X_Wifi_BLE_SDK/GD32VW55x_RELEASE_V1.0.2/MSDK/app\iperf.c ****     start_ds = start_time->usec - report->start_time.usec + 50000;
 877              		.loc 1 432 53 discriminator 3
 878 004c 83A58409 		lw	a1,152(s1)
 879              	.LVL85:
 428:C:/Users/stapi/OneDrive/Desktop/GD32VW553/GD32VW55X_Wifi_BLE_SDK/GD32VW55x_RELEASE_V1.0.2/MSDK/app\iperf.c ****     duration_usec = iperf_timerusec(&duration_time);
 880              		.loc 1 428 19 discriminator 3
 881 0050 3E9C     		add	s8,s8,a5
 882              	.LVL86:
 432:C:/Users/stapi/OneDrive/Desktop/GD32VW553/GD32VW55X_Wifi_BLE_SDK/GD32VW55x_RELEASE_V1.0.2/MSDK/app\iperf.c ****     start_ds = start_time->usec - report->start_time.usec + 50000;
 883              		.loc 1 432 5 is_stmt 1 discriminator 3
 884              		.loc 1 433 59 is_stmt 0 discriminator 3
 885 0052 B167     		li	a5,49152
 886              	.LVL87:
 887              		.loc 1 433 33 discriminator 3
 888 0054 198E     		sub	a2,a2,a4
 889              	.LVL88:
 890              		.loc 1 433 59 discriminator 3
 891 0056 93870735 		addi	a5,a5,848
 892 005a B297     		add	a5,a2,a5
 432:C:/Users/stapi/OneDrive/Desktop/GD32VW553/GD32VW55X_Wifi_BLE_SDK/GD32VW55x_RELEASE_V1.0.2/MSDK/app\iperf.c ****     start_ds = start_time->usec - report->start_time.usec + 50000;
 893              		.loc 1 432 15 discriminator 3
 894 005c B389B940 		sub	s3,s3,a1
 895              	.LVL89:
 896              		.loc 1 433 5 is_stmt 1 discriminator 3
 434:C:/Users/stapi/OneDrive/Desktop/GD32VW553/GD32VW55X_Wifi_BLE_SDK/GD32VW55x_RELEASE_V1.0.2/MSDK/app\iperf.c ****     if (start_ds < 0)
 897              		.loc 1 434 5 discriminator 3
 898              		.loc 1 434 8 is_stmt 0 discriminator 3
 899 0060 63D80700 		bge	a5,zero,.L81
 435:C:/Users/stapi/OneDrive/Desktop/GD32VW553/GD32VW55X_Wifi_BLE_SDK/GD32VW55x_RELEASE_V1.0.2/MSDK/app\iperf.c ****     {
 436:C:/Users/stapi/OneDrive/Desktop/GD32VW553/GD32VW55X_Wifi_BLE_SDK/GD32VW55x_RELEASE_V1.0.2/MSDK/app\iperf.c ****         start_sec--;
 900              		.loc 1 436 9 is_stmt 1
 437:C:/Users/stapi/OneDrive/Desktop/GD32VW553/GD32VW55X_Wifi_BLE_SDK/GD32VW55x_RELEASE_V1.0.2/MSDK/app\iperf.c ****         start_ds += 1000000;
 901              		.loc 1 437 18 is_stmt 0
 902 0064 B7071000 		li	a5,1048576
 903              	.LVL90:
 904 0068 93870759 		addi	a5,a5,1424
 436:C:/Users/stapi/OneDrive/Desktop/GD32VW553/GD32VW55X_Wifi_BLE_SDK/GD32VW55x_RELEASE_V1.0.2/MSDK/app\iperf.c ****         start_ds += 1000000;
 905              		.loc 1 436 18
 906 006c FD19     		addi	s3,s3,-1
 907              	.LVL91:
 908              		.loc 1 437 9 is_stmt 1
 909              		.loc 1 437 18 is_stmt 0
 910 006e B297     		add	a5,a2,a5
 911              	.LVL92:
 912              	.L81:
 438:C:/Users/stapi/OneDrive/Desktop/GD32VW553/GD32VW55X_Wifi_BLE_SDK/GD32VW55x_RELEASE_V1.0.2/MSDK/app\iperf.c ****     }
 439:C:/Users/stapi/OneDrive/Desktop/GD32VW553/GD32VW55X_Wifi_BLE_SDK/GD32VW55x_RELEASE_V1.0.2/MSDK/app\iperf.c ****     start_ds = start_ds / 100000;
 913              		.loc 1 439 5 is_stmt 1
 914              		.loc 1 439 14 is_stmt 0
 915 0070 6169     		li	s2,98304
 916 0072 1309096A 		addi	s2,s2,1696
 917 0076 33C92703 		div	s2,a5,s2
 918              	.LVL93:
 440:C:/Users/stapi/OneDrive/Desktop/GD32VW553/GD32VW55X_Wifi_BLE_SDK/GD32VW55x_RELEASE_V1.0.2/MSDK/app\iperf.c **** 
 441:C:/Users/stapi/OneDrive/Desktop/GD32VW553/GD32VW55X_Wifi_BLE_SDK/GD32VW55x_RELEASE_V1.0.2/MSDK/app\iperf.c ****     end_sec = end_time->sec - report->start_time.sec;
 919              		.loc 1 441 5 is_stmt 1
 442:C:/Users/stapi/OneDrive/Desktop/GD32VW553/GD32VW55X_Wifi_BLE_SDK/GD32VW55x_RELEASE_V1.0.2/MSDK/app\iperf.c ****     end_ds = end_time->usec - report->start_time.usec + 50000;
 920              		.loc 1 442 55 is_stmt 0
 921 007a B167     		li	a5,49152
 922              		.loc 1 442 29
 923 007c 3387E640 		sub	a4,a3,a4
 924              		.loc 1 442 55
 925 0080 93870735 		addi	a5,a5,848
 926 0084 BA97     		add	a5,a4,a5
 441:C:/Users/stapi/OneDrive/Desktop/GD32VW553/GD32VW55X_Wifi_BLE_SDK/GD32VW55x_RELEASE_V1.0.2/MSDK/app\iperf.c ****     end_ds = end_time->usec - report->start_time.usec + 50000;
 927              		.loc 1 441 13
 928 0086 B38ABA40 		sub	s5,s5,a1
 929              	.LVL94:
 930              		.loc 1 442 5 is_stmt 1
 443:C:/Users/stapi/OneDrive/Desktop/GD32VW553/GD32VW55X_Wifi_BLE_SDK/GD32VW55x_RELEASE_V1.0.2/MSDK/app\iperf.c ****     if (end_ds < 0)
 931              		.loc 1 443 5
 932              		.loc 1 443 8 is_stmt 0
 933 008a 63D80700 		bge	a5,zero,.L82
 444:C:/Users/stapi/OneDrive/Desktop/GD32VW553/GD32VW55X_Wifi_BLE_SDK/GD32VW55x_RELEASE_V1.0.2/MSDK/app\iperf.c ****     {
 445:C:/Users/stapi/OneDrive/Desktop/GD32VW553/GD32VW55X_Wifi_BLE_SDK/GD32VW55x_RELEASE_V1.0.2/MSDK/app\iperf.c ****         end_sec--;
 934              		.loc 1 445 9 is_stmt 1
 446:C:/Users/stapi/OneDrive/Desktop/GD32VW553/GD32VW55X_Wifi_BLE_SDK/GD32VW55x_RELEASE_V1.0.2/MSDK/app\iperf.c ****         end_ds += 1000000;
 935              		.loc 1 446 16 is_stmt 0
 936 008e B7071000 		li	a5,1048576
 937              	.LVL95:
 938 0092 93870759 		addi	a5,a5,1424
 445:C:/Users/stapi/OneDrive/Desktop/GD32VW553/GD32VW55X_Wifi_BLE_SDK/GD32VW55x_RELEASE_V1.0.2/MSDK/app\iperf.c ****         end_ds += 1000000;
 939              		.loc 1 445 16
 940 0096 FD1A     		addi	s5,s5,-1
 941              	.LVL96:
 942              		.loc 1 446 9 is_stmt 1
 943              		.loc 1 446 16 is_stmt 0
 944 0098 BA97     		add	a5,a4,a5
 945              	.LVL97:
 946              	.L82:
 447:C:/Users/stapi/OneDrive/Desktop/GD32VW553/GD32VW55X_Wifi_BLE_SDK/GD32VW55x_RELEASE_V1.0.2/MSDK/app\iperf.c ****     }
 448:C:/Users/stapi/OneDrive/Desktop/GD32VW553/GD32VW55X_Wifi_BLE_SDK/GD32VW55x_RELEASE_V1.0.2/MSDK/app\iperf.c ****     end_ds = end_ds / 100000;
 947              		.loc 1 448 5 is_stmt 1
 449:C:/Users/stapi/OneDrive/Desktop/GD32VW553/GD32VW55X_Wifi_BLE_SDK/GD32VW55x_RELEASE_V1.0.2/MSDK/app\iperf.c **** 
 450:C:/Users/stapi/OneDrive/Desktop/GD32VW553/GD32VW55X_Wifi_BLE_SDK/GD32VW55x_RELEASE_V1.0.2/MSDK/app\iperf.c ****     iperf_snprintf(data, sizeof(data), (float)stats->bytes,
 948              		.loc 1 450 5 is_stmt 0
 949 009a 03250A00 		lw	a0,0(s4)
 950              	.LVL98:
 951 009e 83254A00 		lw	a1,4(s4)
 451:C:/Users/stapi/OneDrive/Desktop/GD32VW553/GD32VW55X_Wifi_BLE_SDK/GD32VW55x_RELEASE_V1.0.2/MSDK/app\iperf.c ****                          iperf_settings->format - 'a' + 'A');
 952              		.loc 1 451 55
 953 00a2 03CB4401 		lbu	s6,20(s1)
 448:C:/Users/stapi/OneDrive/Desktop/GD32VW553/GD32VW55X_Wifi_BLE_SDK/GD32VW55x_RELEASE_V1.0.2/MSDK/app\iperf.c **** 
 954              		.loc 1 448 12
 955 00a6 6164     		li	s0,98304
 956 00a8 1304046A 		addi	s0,s0,1696
 957              		.loc 1 451 55
 958 00ac 011B     		addi	s6,s6,-32
 450:C:/Users/stapi/OneDrive/Desktop/GD32VW553/GD32VW55X_Wifi_BLE_SDK/GD32VW55x_RELEASE_V1.0.2/MSDK/app\iperf.c ****                          iperf_settings->format - 'a' + 'A');
 959              		.loc 1 450 5
 960 00ae 131B4B60 		sext.b	s6,s6
 448:C:/Users/stapi/OneDrive/Desktop/GD32VW553/GD32VW55X_Wifi_BLE_SDK/GD32VW55x_RELEASE_V1.0.2/MSDK/app\iperf.c **** 
 961              		.loc 1 448 12
 962 00b2 33C48702 		div	s0,a5,s0
 963              	.LVL99:
 450:C:/Users/stapi/OneDrive/Desktop/GD32VW553/GD32VW55X_Wifi_BLE_SDK/GD32VW55x_RELEASE_V1.0.2/MSDK/app\iperf.c ****                          iperf_settings->format - 'a' + 'A');
 964              		.loc 1 450 5 is_stmt 1
 965 00b6 97000000 		call	__floatundisf
 965      E7800000 
 966              	.LVL100:
 967 00be DA85     		mv	a1,s6
 968 00c0 2810     		addi	a0,sp,40
 969 00c2 97000000 		call	iperf_snprintf.constprop.0
 969      E7800000 
 970              	.LVL101:
 452:C:/Users/stapi/OneDrive/Desktop/GD32VW553/GD32VW55X_Wifi_BLE_SDK/GD32VW55x_RELEASE_V1.0.2/MSDK/app\iperf.c ****     iperf_snprintf(bw, sizeof(bw), 1000000 * (float)stats->bytes / duration_usec,
 971              		.loc 1 452 5
 972              		.loc 1 452 46 is_stmt 0
 973 00ca 03250A00 		lw	a0,0(s4)
 974 00ce 83254A00 		lw	a1,4(s4)
 975              		.loc 1 452 5
 976 00d2 038B4401 		lb	s6,20(s1)
 977              		.loc 1 452 46
 978 00d6 97000000 		call	__floatundisf
 978      E7800000 
 979              	.LVL102:
 980              		.loc 1 452 44
 981 00de B7070000 		lui	a5,%hi(.LC20)
 982 00e2 07A40700 		flw	fs0,%lo(.LC20)(a5)
 983              		.loc 1 452 5
 984 00e6 5E85     		mv	a0,s7
 985 00e8 E285     		mv	a1,s8
 986              		.loc 1 452 44
 987 00ea 53748510 		fmul.s	fs0,fa0,fs0
 988              		.loc 1 452 5
 989 00ee 97000000 		call	__floatundisf
 989      E7800000 
 990              	.LVL103:
 991 00f6 DA85     		mv	a1,s6
 992 00f8 4818     		addi	a0,sp,52
 993 00fa 5375A418 		fdiv.s	fa0,fs0,fa0
 994 00fe 97000000 		call	iperf_snprintf.constprop.0
 994      E7800000 
 995              	.LVL104:
 453:C:/Users/stapi/OneDrive/Desktop/GD32VW553/GD32VW55X_Wifi_BLE_SDK/GD32VW55x_RELEASE_V1.0.2/MSDK/app\iperf.c ****                          iperf_settings->format);
 454:C:/Users/stapi/OneDrive/Desktop/GD32VW553/GD32VW55X_Wifi_BLE_SDK/GD32VW55x_RELEASE_V1.0.2/MSDK/app\iperf.c **** 
 455:C:/Users/stapi/OneDrive/Desktop/GD32VW553/GD32VW55X_Wifi_BLE_SDK/GD32VW55x_RELEASE_V1.0.2/MSDK/app\iperf.c ****     if (stream->iperf_settings.flags.is_udp && iperf_settings->flags.is_server)
 996              		.loc 1 455 5 is_stmt 1
 997              		.loc 1 455 45 is_stmt 0
 998 0106 83C68403 		lbu	a3,56(s1)
 999 010a 4946     		li	a2,18
 1000 010c BC5C     		lw	a5,120(s1)
 1001 010e C98A     		andi	a3,a3,18
 1002 0110 F85C     		lw	a4,124(s1)
 1003 0112 639EC60A 		bne	a3,a2,.L83
 1004              	.LBB16:
 456:C:/Users/stapi/OneDrive/Desktop/GD32VW553/GD32VW55X_Wifi_BLE_SDK/GD32VW55x_RELEASE_V1.0.2/MSDK/app\iperf.c ****     {
 457:C:/Users/stapi/OneDrive/Desktop/GD32VW553/GD32VW55X_Wifi_BLE_SDK/GD32VW55x_RELEASE_V1.0.2/MSDK/app\iperf.c ****         uint32_t jitter_sec = stats->jitter_us / 1000;
 1005              		.loc 1 457 9 is_stmt 1
 1006              		.loc 1 457 18 is_stmt 0
 1007 0116 032B4A01 		lw	s6,20(s4)
 458:C:/Users/stapi/OneDrive/Desktop/GD32VW553/GD32VW55X_Wifi_BLE_SDK/GD32VW55x_RELEASE_V1.0.2/MSDK/app\iperf.c ****         float lost_percent;
 459:C:/Users/stapi/OneDrive/Desktop/GD32VW553/GD32VW55X_Wifi_BLE_SDK/GD32VW55x_RELEASE_V1.0.2/MSDK/app\iperf.c ****         uint32_t lost_percent_int, lost_percent_dec;
 460:C:/Users/stapi/OneDrive/Desktop/GD32VW553/GD32VW55X_Wifi_BLE_SDK/GD32VW55x_RELEASE_V1.0.2/MSDK/app\iperf.c **** 
 461:C:/Users/stapi/OneDrive/Desktop/GD32VW553/GD32VW55X_Wifi_BLE_SDK/GD32VW55x_RELEASE_V1.0.2/MSDK/app\iperf.c ****         lost_percent = (100 * stats->nb_error) / (float)stats->nb_datagrams;
 1008              		.loc 1 461 29
 1009 011a 0326CA00 		lw	a2,12(s4)
 457:C:/Users/stapi/OneDrive/Desktop/GD32VW553/GD32VW55X_Wifi_BLE_SDK/GD32VW55x_RELEASE_V1.0.2/MSDK/app\iperf.c ****         float lost_percent;
 1010              		.loc 1 457 18
 1011 011e 9306803E 		li	a3,1000
 1012 0122 335BDB02 		divu	s6,s6,a3
 1013              	.LVL105:
 458:C:/Users/stapi/OneDrive/Desktop/GD32VW553/GD32VW55X_Wifi_BLE_SDK/GD32VW55x_RELEASE_V1.0.2/MSDK/app\iperf.c ****         float lost_percent;
 1014              		.loc 1 458 9 is_stmt 1
 459:C:/Users/stapi/OneDrive/Desktop/GD32VW553/GD32VW55X_Wifi_BLE_SDK/GD32VW55x_RELEASE_V1.0.2/MSDK/app\iperf.c **** 
 1015              		.loc 1 459 9
 1016              		.loc 1 461 9
 1017              		.loc 1 461 29 is_stmt 0
 1018 0126 93064006 		li	a3,100
 462:C:/Users/stapi/OneDrive/Desktop/GD32VW553/GD32VW55X_Wifi_BLE_SDK/GD32VW55x_RELEASE_V1.0.2/MSDK/app\iperf.c ****         lost_percent += (float)0.05;
 463:C:/Users/stapi/OneDrive/Desktop/GD32VW553/GD32VW55X_Wifi_BLE_SDK/GD32VW55x_RELEASE_V1.0.2/MSDK/app\iperf.c ****         lost_percent_int = (uint32_t)lost_percent;
 464:C:/Users/stapi/OneDrive/Desktop/GD32VW553/GD32VW55X_Wifi_BLE_SDK/GD32VW55x_RELEASE_V1.0.2/MSDK/app\iperf.c ****         lost_percent_dec = (uint32_t)(lost_percent * 10 - lost_percent_int * 10);
 465:C:/Users/stapi/OneDrive/Desktop/GD32VW553/GD32VW55X_Wifi_BLE_SDK/GD32VW55x_RELEASE_V1.0.2/MSDK/app\iperf.c **** 
 466:C:/Users/stapi/OneDrive/Desktop/GD32VW553/GD32VW55X_Wifi_BLE_SDK/GD32VW55x_RELEASE_V1.0.2/MSDK/app\iperf.c ****         if (!stream->report.last_stats.bytes)
 1019              		.loc 1 466 12
 1020 012a D98F     		or	a5,a5,a4
 461:C:/Users/stapi/OneDrive/Desktop/GD32VW553/GD32VW55X_Wifi_BLE_SDK/GD32VW55x_RELEASE_V1.0.2/MSDK/app\iperf.c ****         lost_percent += (float)0.05;
 1021              		.loc 1 461 29
 1022 012c B386C602 		mul	a3,a3,a2
 461:C:/Users/stapi/OneDrive/Desktop/GD32VW553/GD32VW55X_Wifi_BLE_SDK/GD32VW55x_RELEASE_V1.0.2/MSDK/app\iperf.c ****         lost_percent += (float)0.05;
 1023              		.loc 1 461 48
 1024 0130 D3F716D0 		fcvt.s.wu	fa5,a3
 461:C:/Users/stapi/OneDrive/Desktop/GD32VW553/GD32VW55X_Wifi_BLE_SDK/GD32VW55x_RELEASE_V1.0.2/MSDK/app\iperf.c ****         lost_percent += (float)0.05;
 1025              		.loc 1 461 50
 1026 0134 83268A00 		lw	a3,8(s4)
 1027 0138 53F716D0 		fcvt.s.wu	fa4,a3
 462:C:/Users/stapi/OneDrive/Desktop/GD32VW553/GD32VW55X_Wifi_BLE_SDK/GD32VW55x_RELEASE_V1.0.2/MSDK/app\iperf.c ****         lost_percent += (float)0.05;
 1028              		.loc 1 462 22
 1029 013c B7060000 		lui	a3,%hi(.LC15)
 461:C:/Users/stapi/OneDrive/Desktop/GD32VW553/GD32VW55X_Wifi_BLE_SDK/GD32VW55x_RELEASE_V1.0.2/MSDK/app\iperf.c ****         lost_percent += (float)0.05;
 1030              		.loc 1 461 22
 1031 0140 D3F7E718 		fdiv.s	fa5,fa5,fa4
 1032              	.LVL106:
 462:C:/Users/stapi/OneDrive/Desktop/GD32VW553/GD32VW55X_Wifi_BLE_SDK/GD32VW55x_RELEASE_V1.0.2/MSDK/app\iperf.c ****         lost_percent += (float)0.05;
 1033              		.loc 1 462 9 is_stmt 1
 462:C:/Users/stapi/OneDrive/Desktop/GD32VW553/GD32VW55X_Wifi_BLE_SDK/GD32VW55x_RELEASE_V1.0.2/MSDK/app\iperf.c ****         lost_percent += (float)0.05;
 1034              		.loc 1 462 22 is_stmt 0
 1035 0144 07A70600 		flw	fa4,%lo(.LC15)(a3)
 464:C:/Users/stapi/OneDrive/Desktop/GD32VW553/GD32VW55X_Wifi_BLE_SDK/GD32VW55x_RELEASE_V1.0.2/MSDK/app\iperf.c **** 
 1036              		.loc 1 464 52
 1037 0148 B7060000 		lui	a3,%hi(.LC16)
 462:C:/Users/stapi/OneDrive/Desktop/GD32VW553/GD32VW55X_Wifi_BLE_SDK/GD32VW55x_RELEASE_V1.0.2/MSDK/app\iperf.c ****         lost_percent += (float)0.05;
 1038              		.loc 1 462 22
 1039 014c D3F7E700 		fadd.s	fa5,fa5,fa4
 1040              	.LVL107:
 463:C:/Users/stapi/OneDrive/Desktop/GD32VW553/GD32VW55X_Wifi_BLE_SDK/GD32VW55x_RELEASE_V1.0.2/MSDK/app\iperf.c ****         lost_percent_dec = (uint32_t)(lost_percent * 10 - lost_percent_int * 10);
 1041              		.loc 1 463 9 is_stmt 1
 464:C:/Users/stapi/OneDrive/Desktop/GD32VW553/GD32VW55X_Wifi_BLE_SDK/GD32VW55x_RELEASE_V1.0.2/MSDK/app\iperf.c **** 
 1042              		.loc 1 464 52 is_stmt 0
 1043 0150 07A70600 		flw	fa4,%lo(.LC16)(a3)
 464:C:/Users/stapi/OneDrive/Desktop/GD32VW553/GD32VW55X_Wifi_BLE_SDK/GD32VW55x_RELEASE_V1.0.2/MSDK/app\iperf.c **** 
 1044              		.loc 1 464 76
 1045 0154 A946     		li	a3,10
 463:C:/Users/stapi/OneDrive/Desktop/GD32VW553/GD32VW55X_Wifi_BLE_SDK/GD32VW55x_RELEASE_V1.0.2/MSDK/app\iperf.c ****         lost_percent_dec = (uint32_t)(lost_percent * 10 - lost_percent_int * 10);
 1046              		.loc 1 463 26
 1047 0156 D39B17C0 		fcvt.wu.s s7,fa5,rtz
 1048              	.LVL108:
 464:C:/Users/stapi/OneDrive/Desktop/GD32VW553/GD32VW55X_Wifi_BLE_SDK/GD32VW55x_RELEASE_V1.0.2/MSDK/app\iperf.c **** 
 1049              		.loc 1 464 9 is_stmt 1
 464:C:/Users/stapi/OneDrive/Desktop/GD32VW553/GD32VW55X_Wifi_BLE_SDK/GD32VW55x_RELEASE_V1.0.2/MSDK/app\iperf.c **** 
 1050              		.loc 1 464 52 is_stmt 0
 1051 015a D3F7E710 		fmul.s	fa5,fa5,fa4
 1052              	.LVL109:
 464:C:/Users/stapi/OneDrive/Desktop/GD32VW553/GD32VW55X_Wifi_BLE_SDK/GD32VW55x_RELEASE_V1.0.2/MSDK/app\iperf.c **** 
 1053              		.loc 1 464 76
 1054 015e B386DB02 		mul	a3,s7,a3
 464:C:/Users/stapi/OneDrive/Desktop/GD32VW553/GD32VW55X_Wifi_BLE_SDK/GD32VW55x_RELEASE_V1.0.2/MSDK/app\iperf.c **** 
 1055              		.loc 1 464 57
 1056 0162 53F716D0 		fcvt.s.wu	fa4,a3
 1057 0166 D3F7E708 		fsub.s	fa5,fa5,fa4
 464:C:/Users/stapi/OneDrive/Desktop/GD32VW553/GD32VW55X_Wifi_BLE_SDK/GD32VW55x_RELEASE_V1.0.2/MSDK/app\iperf.c **** 
 1058              		.loc 1 464 26
 1059 016a 539C17C0 		fcvt.wu.s s8,fa5,rtz
 1060              	.LVL110:
 1061              		.loc 1 466 9 is_stmt 1
 1062              		.loc 1 466 12 is_stmt 0
 1063 016e 89EB     		bne	a5,zero,.L84
 467:C:/Users/stapi/OneDrive/Desktop/GD32VW553/GD32VW55X_Wifi_BLE_SDK/GD32VW55x_RELEASE_V1.0.2/MSDK/app\iperf.c ****             app_print("[ ID]  Interval      Transfer     Bandwidth       Jitter   Lost/Total Datagr
 1064              		.loc 1 467 13 is_stmt 1
 1065 0170 37050000 		lui	a0,%hi(.LC21)
 1066 0174 13050500 		addi	a0,a0,%lo(.LC21)
 1067 0178 97000000 		call	co_printf
 1067      E7800000 
 1068              	.LVL111:
 1069              	.L84:
 468:C:/Users/stapi/OneDrive/Desktop/GD32VW553/GD32VW55X_Wifi_BLE_SDK/GD32VW55x_RELEASE_V1.0.2/MSDK/app\iperf.c **** 
 469:C:/Users/stapi/OneDrive/Desktop/GD32VW553/GD32VW55X_Wifi_BLE_SDK/GD32VW55x_RELEASE_V1.0.2/MSDK/app\iperf.c ****         app_print("[%3d] %2d.%01d-%2d.%01d sec  %s  %s/sec  %d.%03d ms   %d/%d (%d.%1d%%)\n",
 1070              		.loc 1 469 9
 1071 0180 83278A00 		lw	a5,8(s4)
 1072 0184 1307803E 		li	a4,1000
 1073 0188 8C40     		lw	a1,0(s1)
 1074 018a 3EC6     		sw	a5,12(sp)
 1075 018c 8327CA00 		lw	a5,12(s4)
 1076 0190 37050000 		lui	a0,%hi(.LC22)
 1077 0194 62CA     		sw	s8,20(sp)
 1078 0196 3EC4     		sw	a5,8(sp)
 1079 0198 83274A01 		lw	a5,20(s4)
 1080 019c 5EC8     		sw	s7,16(sp)
 1081 019e 5AC0     		sw	s6,0(sp)
 1082 01a0 FF17EBC6 		msubr32	a5, s6, a4
 1083 01a4 93084103 		addi	a7,sp,52
 1084 01a8 3EC2     		sw	a5,4(sp)
 1085 01aa 13088102 		addi	a6,sp,40
 1086 01ae A287     		mv	a5,s0
 1087 01b0 5687     		mv	a4,s5
 1088 01b2 CA86     		mv	a3,s2
 1089 01b4 4E86     		mv	a2,s3
 1090 01b6 13050500 		addi	a0,a0,%lo(.LC22)
 1091 01ba 97000000 		call	co_printf
 1091      E7800000 
 1092              	.LVL112:
 1093              	.L79:
 1094              	.LBE16:
 470:C:/Users/stapi/OneDrive/Desktop/GD32VW553/GD32VW55X_Wifi_BLE_SDK/GD32VW55x_RELEASE_V1.0.2/MSDK/app\iperf.c ****                     stream->id, start_sec, start_ds, end_sec, end_ds, data, bw,
 471:C:/Users/stapi/OneDrive/Desktop/GD32VW553/GD32VW55X_Wifi_BLE_SDK/GD32VW55x_RELEASE_V1.0.2/MSDK/app\iperf.c ****                     jitter_sec, stats->jitter_us - (jitter_sec * 1000), stats->nb_error,
 472:C:/Users/stapi/OneDrive/Desktop/GD32VW553/GD32VW55X_Wifi_BLE_SDK/GD32VW55x_RELEASE_V1.0.2/MSDK/app\iperf.c ****                     stats->nb_datagrams, lost_percent_int, lost_percent_dec);
 473:C:/Users/stapi/OneDrive/Desktop/GD32VW553/GD32VW55X_Wifi_BLE_SDK/GD32VW55x_RELEASE_V1.0.2/MSDK/app\iperf.c ****     }
 474:C:/Users/stapi/OneDrive/Desktop/GD32VW553/GD32VW55X_Wifi_BLE_SDK/GD32VW55x_RELEASE_V1.0.2/MSDK/app\iperf.c ****     else
 475:C:/Users/stapi/OneDrive/Desktop/GD32VW553/GD32VW55X_Wifi_BLE_SDK/GD32VW55x_RELEASE_V1.0.2/MSDK/app\iperf.c ****     {
 476:C:/Users/stapi/OneDrive/Desktop/GD32VW553/GD32VW55X_Wifi_BLE_SDK/GD32VW55x_RELEASE_V1.0.2/MSDK/app\iperf.c ****         if (!stream->report.last_stats.bytes)
 477:C:/Users/stapi/OneDrive/Desktop/GD32VW553/GD32VW55X_Wifi_BLE_SDK/GD32VW55x_RELEASE_V1.0.2/MSDK/app\iperf.c ****             app_print("[ ID] Interval       Transfer     Bandwidth\n");
 478:C:/Users/stapi/OneDrive/Desktop/GD32VW553/GD32VW55X_Wifi_BLE_SDK/GD32VW55x_RELEASE_V1.0.2/MSDK/app\iperf.c **** 
 479:C:/Users/stapi/OneDrive/Desktop/GD32VW553/GD32VW55X_Wifi_BLE_SDK/GD32VW55x_RELEASE_V1.0.2/MSDK/app\iperf.c ****         app_print("[%3d] %2d.%1d-%2d.%1d sec  %s  %s/sec\n",
 480:C:/Users/stapi/OneDrive/Desktop/GD32VW553/GD32VW55X_Wifi_BLE_SDK/GD32VW55x_RELEASE_V1.0.2/MSDK/app\iperf.c ****                     stream->id, start_sec, start_ds, end_sec, end_ds, data, bw);
 481:C:/Users/stapi/OneDrive/Desktop/GD32VW553/GD32VW55X_Wifi_BLE_SDK/GD32VW55x_RELEASE_V1.0.2/MSDK/app\iperf.c ****     }
 482:C:/Users/stapi/OneDrive/Desktop/GD32VW553/GD32VW55X_Wifi_BLE_SDK/GD32VW55x_RELEASE_V1.0.2/MSDK/app\iperf.c **** }
 1095              		.loc 1 482 1 is_stmt 0
 1096 01c2 3664     		flw	fs0,76(sp)
 1097              		.cfi_remember_state
 1098              		.cfi_restore 40
 1099 01c4 6161     		addi	sp,sp,80
 1100              		.cfi_def_cfa_offset 0
 1101 01c6 17030000 		tail	__riscv_restore_9
 1101      67000300 
 1102              		.cfi_restore 24
 1103              		.cfi_restore 23
 1104              		.cfi_restore 22
 1105              		.cfi_restore 21
 1106              		.cfi_restore 20
 1107              		.cfi_restore 19
 1108              		.cfi_restore 18
 1109              		.cfi_restore 9
 1110              		.cfi_restore 8
 1111              		.cfi_restore 1
 1112              		.cfi_def_cfa_offset -48
 1113              	.LVL113:
 1114              	.L83:
 1115              		.cfi_restore_state
 476:C:/Users/stapi/OneDrive/Desktop/GD32VW553/GD32VW55X_Wifi_BLE_SDK/GD32VW55x_RELEASE_V1.0.2/MSDK/app\iperf.c ****             app_print("[ ID] Interval       Transfer     Bandwidth\n");
 1116              		.loc 1 476 9 is_stmt 1
 476:C:/Users/stapi/OneDrive/Desktop/GD32VW553/GD32VW55X_Wifi_BLE_SDK/GD32VW55x_RELEASE_V1.0.2/MSDK/app\iperf.c ****             app_print("[ ID] Interval       Transfer     Bandwidth\n");
 1117              		.loc 1 476 12 is_stmt 0
 1118 01ce D98F     		or	a5,a5,a4
 1119 01d0 89EB     		bne	a5,zero,.L86
 477:C:/Users/stapi/OneDrive/Desktop/GD32VW553/GD32VW55X_Wifi_BLE_SDK/GD32VW55x_RELEASE_V1.0.2/MSDK/app\iperf.c **** 
 1120              		.loc 1 477 13 is_stmt 1
 1121 01d2 37050000 		lui	a0,%hi(.LC23)
 1122 01d6 13050500 		addi	a0,a0,%lo(.LC23)
 1123 01da 97000000 		call	co_printf
 1123      E7800000 
 1124              	.LVL114:
 1125              	.L86:
 479:C:/Users/stapi/OneDrive/Desktop/GD32VW553/GD32VW55X_Wifi_BLE_SDK/GD32VW55x_RELEASE_V1.0.2/MSDK/app\iperf.c ****                     stream->id, start_sec, start_ds, end_sec, end_ds, data, bw);
 1126              		.loc 1 479 9
 1127 01e2 8C40     		lw	a1,0(s1)
 1128 01e4 37050000 		lui	a0,%hi(.LC24)
 1129 01e8 93084103 		addi	a7,sp,52
 1130 01ec 13088102 		addi	a6,sp,40
 1131 01f0 A287     		mv	a5,s0
 1132 01f2 5687     		mv	a4,s5
 1133 01f4 CA86     		mv	a3,s2
 1134 01f6 4E86     		mv	a2,s3
 1135 01f8 13050500 		addi	a0,a0,%lo(.LC24)
 1136 01fc 97000000 		call	co_printf
 1136      E7800000 
 1137              	.LVL115:
 1138              		.loc 1 482 1 is_stmt 0
 1139 0204 7DBF     		j	.L79
 1140              		.cfi_endproc
 1141              	.LFE22:
 1143              		.section	.text.iperf_print_interv_stats,"ax",@progbits
 1144              		.align	1
 1145              		.globl	iperf_print_interv_stats
 1147              	iperf_print_interv_stats:
 1148              	.LFB21:
 381:C:/Users/stapi/OneDrive/Desktop/GD32VW553/GD32VW55X_Wifi_BLE_SDK/GD32VW55x_RELEASE_V1.0.2/MSDK/app\iperf.c ****     struct iperf_settings_t *settings = &stream->iperf_settings;
 1149              		.loc 1 381 1 is_stmt 1
 1150              		.cfi_startproc
 1151              	.LVL116:
 382:C:/Users/stapi/OneDrive/Desktop/GD32VW553/GD32VW55X_Wifi_BLE_SDK/GD32VW55x_RELEASE_V1.0.2/MSDK/app\iperf.c ****     struct iperf_report *report = &stream->report;
 1152              		.loc 1 382 5
 383:C:/Users/stapi/OneDrive/Desktop/GD32VW553/GD32VW55X_Wifi_BLE_SDK/GD32VW55x_RELEASE_V1.0.2/MSDK/app\iperf.c ****     struct iperf_stats interval_stats;
 1153              		.loc 1 383 5
 384:C:/Users/stapi/OneDrive/Desktop/GD32VW553/GD32VW55X_Wifi_BLE_SDK/GD32VW55x_RELEASE_V1.0.2/MSDK/app\iperf.c **** 
 1154              		.loc 1 384 5
 386:C:/Users/stapi/OneDrive/Desktop/GD32VW553/GD32VW55X_Wifi_BLE_SDK/GD32VW55x_RELEASE_V1.0.2/MSDK/app\iperf.c ****         iperf_timerafter(&report->interval_target, &report->packet_time))
 1155              		.loc 1 386 5
 386:C:/Users/stapi/OneDrive/Desktop/GD32VW553/GD32VW55X_Wifi_BLE_SDK/GD32VW55x_RELEASE_V1.0.2/MSDK/app\iperf.c ****         iperf_timerafter(&report->interval_target, &report->packet_time))
 1156              		.loc 1 386 25 is_stmt 0
 1157 0000 185D     		lw	a4,56(a0)
 386:C:/Users/stapi/OneDrive/Desktop/GD32VW553/GD32VW55X_Wifi_BLE_SDK/GD32VW55x_RELEASE_V1.0.2/MSDK/app\iperf.c ****         iperf_timerafter(&report->interval_target, &report->packet_time))
 1158              		.loc 1 386 8
 1159 0002 93576748 		bexti	a5,a4,6
 1160 0006 F5C3     		beq	a5,zero,.L99
 381:C:/Users/stapi/OneDrive/Desktop/GD32VW553/GD32VW55X_Wifi_BLE_SDK/GD32VW55x_RELEASE_V1.0.2/MSDK/app\iperf.c ****     struct iperf_settings_t *settings = &stream->iperf_settings;
 1161              		.loc 1 381 1 discriminator 1
 1162 0008 17030000 		call	t0,__riscv_save_1
 1162      E7020300 
 1163              		.cfi_offset 8, -8
 1164              		.cfi_offset 1, -4
 1165              		.cfi_def_cfa_offset 16
 387:C:/Users/stapi/OneDrive/Desktop/GD32VW553/GD32VW55X_Wifi_BLE_SDK/GD32VW55x_RELEASE_V1.0.2/MSDK/app\iperf.c ****         return;
 1166              		.loc 1 387 9 discriminator 1
 1167 0010 83260509 		lw	a3,144(a0)
 1168 0014 8327050C 		lw	a5,192(a0)
 381:C:/Users/stapi/OneDrive/Desktop/GD32VW553/GD32VW55X_Wifi_BLE_SDK/GD32VW55x_RELEASE_V1.0.2/MSDK/app\iperf.c ****     struct iperf_settings_t *settings = &stream->iperf_settings;
 1169              		.loc 1 381 1 discriminator 1
 1170 0018 0111     		addi	sp,sp,-32
 1171              		.cfi_def_cfa_offset 48
 1172 001a 2A84     		mv	s0,a0
 386:C:/Users/stapi/OneDrive/Desktop/GD32VW553/GD32VW55X_Wifi_BLE_SDK/GD32VW55x_RELEASE_V1.0.2/MSDK/app\iperf.c ****         iperf_timerafter(&report->interval_target, &report->packet_time))
 1173              		.loc 1 386 41 discriminator 1
 1174 001c 63E9F60A 		bltu	a3,a5,.L88
 387:C:/Users/stapi/OneDrive/Desktop/GD32VW553/GD32VW55X_Wifi_BLE_SDK/GD32VW55x_RELEASE_V1.0.2/MSDK/app\iperf.c ****         return;
 1175              		.loc 1 387 9
 1176 0020 6398F600 		bne	a3,a5,.L90
 387:C:/Users/stapi/OneDrive/Desktop/GD32VW553/GD32VW55X_Wifi_BLE_SDK/GD32VW55x_RELEASE_V1.0.2/MSDK/app\iperf.c ****         return;
 1177              		.loc 1 387 9 discriminator 1
 1178 0024 83264509 		lw	a3,148(a0)
 1179 0028 8327450C 		lw	a5,196(a0)
 1180 002c 63E1F60A 		bltu	a3,a5,.L88
 1181              	.L90:
 390:C:/Users/stapi/OneDrive/Desktop/GD32VW553/GD32VW55X_Wifi_BLE_SDK/GD32VW55x_RELEASE_V1.0.2/MSDK/app\iperf.c ****     if (settings->flags.is_udp && settings->flags.is_server)
 1182              		.loc 1 390 5 is_stmt 1
 390:C:/Users/stapi/OneDrive/Desktop/GD32VW553/GD32VW55X_Wifi_BLE_SDK/GD32VW55x_RELEASE_V1.0.2/MSDK/app\iperf.c ****     if (settings->flags.is_udp && settings->flags.is_server)
 1183              		.loc 1 390 48 is_stmt 0
 1184 0030 3050     		lw	a2,96(s0)
 1185 0032 345C     		lw	a3,120(s0)
 1186 0034 7C50     		lw	a5,100(s0)
 1187 0036 6C5C     		lw	a1,124(s0)
 1188 0038 B306D640 		sub	a3,a2,a3
 1189 003c 3336D600 		sgtu	a2,a3,a2
 1190 0040 8D8F     		sub	a5,a5,a1
 1191 0042 918F     		sub	a5,a5,a2
 390:C:/Users/stapi/OneDrive/Desktop/GD32VW553/GD32VW55X_Wifi_BLE_SDK/GD32VW55x_RELEASE_V1.0.2/MSDK/app\iperf.c ****     if (settings->flags.is_udp && settings->flags.is_server)
 1192              		.loc 1 390 26
 1193 0044 3EC6     		sw	a5,12(sp)
 391:C:/Users/stapi/OneDrive/Desktop/GD32VW553/GD32VW55X_Wifi_BLE_SDK/GD32VW55x_RELEASE_V1.0.2/MSDK/app\iperf.c ****     {
 1194              		.loc 1 391 5 is_stmt 1
 390:C:/Users/stapi/OneDrive/Desktop/GD32VW553/GD32VW55X_Wifi_BLE_SDK/GD32VW55x_RELEASE_V1.0.2/MSDK/app\iperf.c ****     if (settings->flags.is_udp && settings->flags.is_server)
 1195              		.loc 1 390 26 is_stmt 0
 1196 0046 36C4     		sw	a3,8(sp)
 391:C:/Users/stapi/OneDrive/Desktop/GD32VW553/GD32VW55X_Wifi_BLE_SDK/GD32VW55x_RELEASE_V1.0.2/MSDK/app\iperf.c ****     {
 1197              		.loc 1 391 32
 1198 0048 498B     		andi	a4,a4,18
 391:C:/Users/stapi/OneDrive/Desktop/GD32VW553/GD32VW55X_Wifi_BLE_SDK/GD32VW55x_RELEASE_V1.0.2/MSDK/app\iperf.c ****     {
 1199              		.loc 1 391 8
 1200 004a C947     		li	a5,18
 1201 004c 6318F702 		bne	a4,a5,.L91
 393:C:/Users/stapi/OneDrive/Desktop/GD32VW553/GD32VW55X_Wifi_BLE_SDK/GD32VW55x_RELEASE_V1.0.2/MSDK/app\iperf.c ****                                       report->last_stats.nb_datagrams;
 1202              		.loc 1 393 9 is_stmt 1
 393:C:/Users/stapi/OneDrive/Desktop/GD32VW553/GD32VW55X_Wifi_BLE_SDK/GD32VW55x_RELEASE_V1.0.2/MSDK/app\iperf.c ****                                       report->last_stats.nb_datagrams;
 1203              		.loc 1 393 66 is_stmt 0
 1204 0050 13070408 		addi	a4,s0,128
 1205 0054 1443     		lw	a3,0(a4)
 1206 0056 3C54     		lw	a5,104(s0)
 1207 0058 958F     		sub	a5,a5,a3
 393:C:/Users/stapi/OneDrive/Desktop/GD32VW553/GD32VW55X_Wifi_BLE_SDK/GD32VW55x_RELEASE_V1.0.2/MSDK/app\iperf.c ****                                       report->last_stats.nb_datagrams;
 1208              		.loc 1 393 37
 1209 005a 3EC8     		sw	a5,16(sp)
 395:C:/Users/stapi/OneDrive/Desktop/GD32VW553/GD32VW55X_Wifi_BLE_SDK/GD32VW55x_RELEASE_V1.0.2/MSDK/app\iperf.c ****         interval_stats.nb_out_of_orded = report->stats.nb_out_of_orded -
 1210              		.loc 1 395 9 is_stmt 1
 395:C:/Users/stapi/OneDrive/Desktop/GD32VW553/GD32VW55X_Wifi_BLE_SDK/GD32VW55x_RELEASE_V1.0.2/MSDK/app\iperf.c ****         interval_stats.nb_out_of_orded = report->stats.nb_out_of_orded -
 1211              		.loc 1 395 58 is_stmt 0
 1212 005c 5443     		lw	a3,4(a4)
 1213 005e 7C54     		lw	a5,108(s0)
 397:C:/Users/stapi/OneDrive/Desktop/GD32VW553/GD32VW55X_Wifi_BLE_SDK/GD32VW55x_RELEASE_V1.0.2/MSDK/app\iperf.c ****         if (interval_stats.nb_error > interval_stats.nb_out_of_orded)
 1214              		.loc 1 397 60
 1215 0060 1847     		lw	a4,8(a4)
 395:C:/Users/stapi/OneDrive/Desktop/GD32VW553/GD32VW55X_Wifi_BLE_SDK/GD32VW55x_RELEASE_V1.0.2/MSDK/app\iperf.c ****         interval_stats.nb_out_of_orded = report->stats.nb_out_of_orded -
 1216              		.loc 1 395 58
 1217 0062 958F     		sub	a5,a5,a3
 396:C:/Users/stapi/OneDrive/Desktop/GD32VW553/GD32VW55X_Wifi_BLE_SDK/GD32VW55x_RELEASE_V1.0.2/MSDK/app\iperf.c ****                                          report->last_stats.nb_out_of_orded;
 1218              		.loc 1 396 55
 1219 0064 3458     		lw	a3,112(s0)
 395:C:/Users/stapi/OneDrive/Desktop/GD32VW553/GD32VW55X_Wifi_BLE_SDK/GD32VW55x_RELEASE_V1.0.2/MSDK/app\iperf.c ****         interval_stats.nb_out_of_orded = report->stats.nb_out_of_orded -
 1220              		.loc 1 395 33
 1221 0066 3ECA     		sw	a5,20(sp)
 396:C:/Users/stapi/OneDrive/Desktop/GD32VW553/GD32VW55X_Wifi_BLE_SDK/GD32VW55x_RELEASE_V1.0.2/MSDK/app\iperf.c ****                                          report->last_stats.nb_out_of_orded;
 1222              		.loc 1 396 9 is_stmt 1
 396:C:/Users/stapi/OneDrive/Desktop/GD32VW553/GD32VW55X_Wifi_BLE_SDK/GD32VW55x_RELEASE_V1.0.2/MSDK/app\iperf.c ****                                          report->last_stats.nb_out_of_orded;
 1223              		.loc 1 396 72 is_stmt 0
 1224 0068 3386E640 		sub	a2,a3,a4
 396:C:/Users/stapi/OneDrive/Desktop/GD32VW553/GD32VW55X_Wifi_BLE_SDK/GD32VW55x_RELEASE_V1.0.2/MSDK/app\iperf.c ****                                          report->last_stats.nb_out_of_orded;
 1225              		.loc 1 396 40
 1226 006c 32CC     		sw	a2,24(sp)
 398:C:/Users/stapi/OneDrive/Desktop/GD32VW553/GD32VW55X_Wifi_BLE_SDK/GD32VW55x_RELEASE_V1.0.2/MSDK/app\iperf.c ****             interval_stats.nb_error -= interval_stats.nb_out_of_orded;
 1227              		.loc 1 398 9 is_stmt 1
 398:C:/Users/stapi/OneDrive/Desktop/GD32VW553/GD32VW55X_Wifi_BLE_SDK/GD32VW55x_RELEASE_V1.0.2/MSDK/app\iperf.c ****             interval_stats.nb_error -= interval_stats.nb_out_of_orded;
 1228              		.loc 1 398 12 is_stmt 0
 1229 006e 6375F600 		bleu	a5,a2,.L92
 399:C:/Users/stapi/OneDrive/Desktop/GD32VW553/GD32VW55X_Wifi_BLE_SDK/GD32VW55x_RELEASE_V1.0.2/MSDK/app\iperf.c ****         interval_stats.jitter_us = report->stats.jitter_us;
 1230              		.loc 1 399 13 is_stmt 1
 399:C:/Users/stapi/OneDrive/Desktop/GD32VW553/GD32VW55X_Wifi_BLE_SDK/GD32VW55x_RELEASE_V1.0.2/MSDK/app\iperf.c ****         interval_stats.jitter_us = report->stats.jitter_us;
 1231              		.loc 1 399 37 is_stmt 0
 1232 0072 958F     		sub	a5,a5,a3
 1233 0074 BA97     		add	a5,a5,a4
 1234 0076 3ECA     		sw	a5,20(sp)
 1235              	.L92:
 400:C:/Users/stapi/OneDrive/Desktop/GD32VW553/GD32VW55X_Wifi_BLE_SDK/GD32VW55x_RELEASE_V1.0.2/MSDK/app\iperf.c ****     }
 1236              		.loc 1 400 9 is_stmt 1
 400:C:/Users/stapi/OneDrive/Desktop/GD32VW553/GD32VW55X_Wifi_BLE_SDK/GD32VW55x_RELEASE_V1.0.2/MSDK/app\iperf.c ****     }
 1237              		.loc 1 400 34 is_stmt 0
 1238 0078 7C58     		lw	a5,116(s0)
 1239 007a 3ECE     		sw	a5,28(sp)
 1240              	.LVL117:
 1241              	.L91:
 402:C:/Users/stapi/OneDrive/Desktop/GD32VW553/GD32VW55X_Wifi_BLE_SDK/GD32VW55x_RELEASE_V1.0.2/MSDK/app\iperf.c ****                             &interval_stats);
 1242              		.loc 1 402 5 is_stmt 1
 1243 007c 3400     		addi	a3,sp,8
 1244 007e 13060409 		addi	a2,s0,144
 1245 0082 9305840B 		addi	a1,s0,184
 1246 0086 2285     		mv	a0,s0
 1247 0088 97000000 		call	iperf_print_stats
 1247      E7800000 
 1248              	.LVL118:
 405:C:/Users/stapi/OneDrive/Desktop/GD32VW553/GD32VW55X_Wifi_BLE_SDK/GD32VW55x_RELEASE_V1.0.2/MSDK/app\iperf.c ****     report->last_interval = report->packet_time;
 1249              		.loc 1 405 5
 405:C:/Users/stapi/OneDrive/Desktop/GD32VW553/GD32VW55X_Wifi_BLE_SDK/GD32VW55x_RELEASE_V1.0.2/MSDK/app\iperf.c ****     report->last_interval = report->packet_time;
 1250              		.loc 1 405 24 is_stmt 0
 1251 0090 6146     		li	a2,24
 1252 0092 93050406 		addi	a1,s0,96
 1253 0096 13058407 		addi	a0,s0,120
 1254 009a 97000000 		call	memcpy
 1254      E7800000 
 1255              	.LVL119:
 406:C:/Users/stapi/OneDrive/Desktop/GD32VW553/GD32VW55X_Wifi_BLE_SDK/GD32VW55x_RELEASE_V1.0.2/MSDK/app\iperf.c ****     iperf_timeradd(&report->interval_target, &settings->interval,
 1256              		.loc 1 406 5 is_stmt 1
 406:C:/Users/stapi/OneDrive/Desktop/GD32VW553/GD32VW55X_Wifi_BLE_SDK/GD32VW55x_RELEASE_V1.0.2/MSDK/app\iperf.c ****     iperf_timeradd(&report->interval_target, &settings->interval,
 1257              		.loc 1 406 27 is_stmt 0
 1258 00a2 93070408 		addi	a5,s0,128
 1259 00a6 984B     		lw	a4,16(a5)
 407:C:/Users/stapi/OneDrive/Desktop/GD32VW553/GD32VW55X_Wifi_BLE_SDK/GD32VW55x_RELEASE_V1.0.2/MSDK/app\iperf.c ****                    &report->interval_target);
 1260              		.loc 1 407 5
 1261 00a8 1458     		lw	a3,48(s0)
 406:C:/Users/stapi/OneDrive/Desktop/GD32VW553/GD32VW55X_Wifi_BLE_SDK/GD32VW55x_RELEASE_V1.0.2/MSDK/app\iperf.c ****     iperf_timeradd(&report->interval_target, &settings->interval,
 1262              		.loc 1 406 27
 1263 00aa 98DF     		sw	a4,56(a5)
 1264 00ac D84B     		lw	a4,20(a5)
 1265 00ae D8DF     		sw	a4,60(a5)
 407:C:/Users/stapi/OneDrive/Desktop/GD32VW553/GD32VW55X_Wifi_BLE_SDK/GD32VW55x_RELEASE_V1.0.2/MSDK/app\iperf.c ****                    &report->interval_target);
 1266              		.loc 1 407 5 is_stmt 1
 1267 00b0 B843     		lw	a4,64(a5)
 1268 00b2 3697     		add	a4,a4,a3
 1269 00b4 B8C3     		sw	a4,64(a5)
 407:C:/Users/stapi/OneDrive/Desktop/GD32VW553/GD32VW55X_Wifi_BLE_SDK/GD32VW55x_RELEASE_V1.0.2/MSDK/app\iperf.c ****                    &report->interval_target);
 1270              		.loc 1 407 5
 1271 00b6 5458     		lw	a3,52(s0)
 1272 00b8 F843     		lw	a4,68(a5)
 1273 00ba 3697     		add	a4,a4,a3
 1274 00bc F8C3     		sw	a4,68(a5)
 407:C:/Users/stapi/OneDrive/Desktop/GD32VW553/GD32VW55X_Wifi_BLE_SDK/GD32VW55x_RELEASE_V1.0.2/MSDK/app\iperf.c ****                    &report->interval_target);
 1275              		.loc 1 407 5
 1276 00be B7470F00 		li	a5,999424
 1277 00c2 93870724 		addi	a5,a5,576
 1278              	.L93:
 407:C:/Users/stapi/OneDrive/Desktop/GD32VW553/GD32VW55X_Wifi_BLE_SDK/GD32VW55x_RELEASE_V1.0.2/MSDK/app\iperf.c ****                    &report->interval_target);
 1279              		.loc 1 407 5 discriminator 1
 1280 00c6 0327440C 		lw	a4,196(s0)
 1281 00ca 63E7E700 		bgtu	a4,a5,.L94
 1282              	.L88:
 409:C:/Users/stapi/OneDrive/Desktop/GD32VW553/GD32VW55X_Wifi_BLE_SDK/GD32VW55x_RELEASE_V1.0.2/MSDK/app\iperf.c **** 
 1283              		.loc 1 409 1 is_stmt 0
 1284 00ce 0561     		addi	sp,sp,32
 1285              		.cfi_remember_state
 1286              		.cfi_def_cfa_offset 0
 1287 00d0 17030000 		tail	__riscv_restore_1
 1287      67000300 
 1288              		.cfi_restore 8
 1289              		.cfi_restore 1
 1290              		.cfi_def_cfa_offset -16
 1291              	.L94:
 1292              		.cfi_restore_state
 407:C:/Users/stapi/OneDrive/Desktop/GD32VW553/GD32VW55X_Wifi_BLE_SDK/GD32VW55x_RELEASE_V1.0.2/MSDK/app\iperf.c ****                    &report->interval_target);
 1293              		.loc 1 407 5 is_stmt 1 discriminator 3
 1294 00d8 1D8F     		sub	a4,a4,a5
 1295 00da 2322E40C 		sw	a4,196(s0)
 407:C:/Users/stapi/OneDrive/Desktop/GD32VW553/GD32VW55X_Wifi_BLE_SDK/GD32VW55x_RELEASE_V1.0.2/MSDK/app\iperf.c ****                    &report->interval_target);
 1296              		.loc 1 407 5 discriminator 3
 1297 00de 0327040C 		lw	a4,192(s0)
 1298 00e2 0507     		addi	a4,a4,1
 1299 00e4 2320E40C 		sw	a4,192(s0)
 1300 00e8 F9BF     		j	.L93
 1301              	.LVL120:
 1302              	.L99:
 1303              		.cfi_def_cfa_offset 0
 1304              		.cfi_restore 1
 1305              		.cfi_restore 8
 1306 00ea 8280     		ret
 1307              		.cfi_endproc
 1308              	.LFE21:
 1310              		.section	.rodata.iperf_stop_all.str1.4,"aMS",@progbits,1
 1311              		.align	2
 1312              	.LC25:
 1313 0000 69706572 		.string	"iperf: delete stream [%d]\r\n"
 1313      663A2064 
 1313      656C6574 
 1313      65207374 
 1313      7265616D 
 1314              		.section	.text.iperf_stop_all,"ax",@progbits
 1315              		.align	1
 1316              		.globl	iperf_stop_all
 1318              	iperf_stop_all:
 1319              	.LFB23:
 483:C:/Users/stapi/OneDrive/Desktop/GD32VW553/GD32VW55X_Wifi_BLE_SDK/GD32VW55x_RELEASE_V1.0.2/MSDK/app\iperf.c **** 
 484:C:/Users/stapi/OneDrive/Desktop/GD32VW553/GD32VW55X_Wifi_BLE_SDK/GD32VW55x_RELEASE_V1.0.2/MSDK/app\iperf.c **** void iperf_stop_all(void)
 485:C:/Users/stapi/OneDrive/Desktop/GD32VW553/GD32VW55X_Wifi_BLE_SDK/GD32VW55x_RELEASE_V1.0.2/MSDK/app\iperf.c **** {
 1320              		.loc 1 485 1
 1321              		.cfi_startproc
 1322 0000 17030000 		call	t0,__riscv_save_5
 1322      E7020300 
 1323              		.cfi_offset 20, -24
 1324              		.cfi_offset 19, -20
 1325              		.cfi_offset 18, -16
 1326              		.cfi_offset 9, -12
 1327              		.cfi_offset 8, -8
 1328              		.cfi_offset 1, -4
 1329              		.cfi_def_cfa_offset 32
 486:C:/Users/stapi/OneDrive/Desktop/GD32VW553/GD32VW55X_Wifi_BLE_SDK/GD32VW55x_RELEASE_V1.0.2/MSDK/app\iperf.c ****     int stream_id;
 1330              		.loc 1 486 5
 487:C:/Users/stapi/OneDrive/Desktop/GD32VW553/GD32VW55X_Wifi_BLE_SDK/GD32VW55x_RELEASE_V1.0.2/MSDK/app\iperf.c ****     struct net_iperf_stream *iperf_stream = NULL;
 1331              		.loc 1 487 5
 1332              	.LVL121:
 488:C:/Users/stapi/OneDrive/Desktop/GD32VW553/GD32VW55X_Wifi_BLE_SDK/GD32VW55x_RELEASE_V1.0.2/MSDK/app\iperf.c ****     const struct iperf_settings_t *iperf_settings;
 1333              		.loc 1 488 5
 489:C:/Users/stapi/OneDrive/Desktop/GD32VW553/GD32VW55X_Wifi_BLE_SDK/GD32VW55x_RELEASE_V1.0.2/MSDK/app\iperf.c **** 
 490:C:/Users/stapi/OneDrive/Desktop/GD32VW553/GD32VW55X_Wifi_BLE_SDK/GD32VW55x_RELEASE_V1.0.2/MSDK/app\iperf.c ****     // Search iperf stream
 491:C:/Users/stapi/OneDrive/Desktop/GD32VW553/GD32VW55X_Wifi_BLE_SDK/GD32VW55x_RELEASE_V1.0.2/MSDK/app\iperf.c ****     for (stream_id = 0; stream_id < IPERF_MAX_STREAMS; stream_id++)
 1334              		.loc 1 491 5
 1335              		.loc 1 491 25
 1336 0008 37040000 		lui	s0,%hi(.LANCHOR2)
 1337 000c 13040400 		addi	s0,s0,%lo(.LANCHOR2)
 1338              		.loc 1 491 20 is_stmt 0
 1339 0010 8144     		li	s1,0
 492:C:/Users/stapi/OneDrive/Desktop/GD32VW553/GD32VW55X_Wifi_BLE_SDK/GD32VW55x_RELEASE_V1.0.2/MSDK/app\iperf.c ****     {
 493:C:/Users/stapi/OneDrive/Desktop/GD32VW553/GD32VW55X_Wifi_BLE_SDK/GD32VW55x_RELEASE_V1.0.2/MSDK/app\iperf.c ****         iperf_stream = &streams[stream_id];
 494:C:/Users/stapi/OneDrive/Desktop/GD32VW553/GD32VW55X_Wifi_BLE_SDK/GD32VW55x_RELEASE_V1.0.2/MSDK/app\iperf.c ****         if (iperf_stream->active != true)
 495:C:/Users/stapi/OneDrive/Desktop/GD32VW553/GD32VW55X_Wifi_BLE_SDK/GD32VW55x_RELEASE_V1.0.2/MSDK/app\iperf.c ****             continue;
 496:C:/Users/stapi/OneDrive/Desktop/GD32VW553/GD32VW55X_Wifi_BLE_SDK/GD32VW55x_RELEASE_V1.0.2/MSDK/app\iperf.c **** 
 497:C:/Users/stapi/OneDrive/Desktop/GD32VW553/GD32VW55X_Wifi_BLE_SDK/GD32VW55x_RELEASE_V1.0.2/MSDK/app\iperf.c ****         iperf_settings = &iperf_stream->iperf_settings;
 498:C:/Users/stapi/OneDrive/Desktop/GD32VW553/GD32VW55X_Wifi_BLE_SDK/GD32VW55x_RELEASE_V1.0.2/MSDK/app\iperf.c ****         iperf_stream->active = false;
 499:C:/Users/stapi/OneDrive/Desktop/GD32VW553/GD32VW55X_Wifi_BLE_SDK/GD32VW55x_RELEASE_V1.0.2/MSDK/app\iperf.c ****         if (iperf_settings->flags.is_udp) {
 500:C:/Users/stapi/OneDrive/Desktop/GD32VW553/GD32VW55X_Wifi_BLE_SDK/GD32VW55x_RELEASE_V1.0.2/MSDK/app\iperf.c ****             sys_sema_up(&iperf_stream->iperf_task_semaphore);
 501:C:/Users/stapi/OneDrive/Desktop/GD32VW553/GD32VW55X_Wifi_BLE_SDK/GD32VW55x_RELEASE_V1.0.2/MSDK/app\iperf.c ****         } else {
 502:C:/Users/stapi/OneDrive/Desktop/GD32VW553/GD32VW55X_Wifi_BLE_SDK/GD32VW55x_RELEASE_V1.0.2/MSDK/app\iperf.c ****             LOCK_TCPIP_CORE();
 503:C:/Users/stapi/OneDrive/Desktop/GD32VW553/GD32VW55X_Wifi_BLE_SDK/GD32VW55x_RELEASE_V1.0.2/MSDK/app\iperf.c ****             net_iperf_tcp_close(iperf_stream);
 504:C:/Users/stapi/OneDrive/Desktop/GD32VW553/GD32VW55X_Wifi_BLE_SDK/GD32VW55x_RELEASE_V1.0.2/MSDK/app\iperf.c ****             UNLOCK_TCPIP_CORE();
 505:C:/Users/stapi/OneDrive/Desktop/GD32VW553/GD32VW55X_Wifi_BLE_SDK/GD32VW55x_RELEASE_V1.0.2/MSDK/app\iperf.c ****         }
 506:C:/Users/stapi/OneDrive/Desktop/GD32VW553/GD32VW55X_Wifi_BLE_SDK/GD32VW55x_RELEASE_V1.0.2/MSDK/app\iperf.c ****         net_iperf_buf_deinit(iperf_stream);
 507:C:/Users/stapi/OneDrive/Desktop/GD32VW553/GD32VW55X_Wifi_BLE_SDK/GD32VW55x_RELEASE_V1.0.2/MSDK/app\iperf.c ****         app_print("iperf: delete stream [%d]\r\n", stream_id);
 1340              		.loc 1 507 9
 1341 0012 370A0000 		lui	s4,%hi(.LC25)
 502:C:/Users/stapi/OneDrive/Desktop/GD32VW553/GD32VW55X_Wifi_BLE_SDK/GD32VW55x_RELEASE_V1.0.2/MSDK/app\iperf.c ****             net_iperf_tcp_close(iperf_stream);
 1342              		.loc 1 502 13
 1343 0016 37090000 		lui	s2,%hi(lock_tcpip_core)
 1344 001a 8549     		li	s3,1
 1345              	.LVL122:
 1346              	.L106:
 493:C:/Users/stapi/OneDrive/Desktop/GD32VW553/GD32VW55X_Wifi_BLE_SDK/GD32VW55x_RELEASE_V1.0.2/MSDK/app\iperf.c ****         if (iperf_stream->active != true)
 1347              		.loc 1 493 9 is_stmt 1
 494:C:/Users/stapi/OneDrive/Desktop/GD32VW553/GD32VW55X_Wifi_BLE_SDK/GD32VW55x_RELEASE_V1.0.2/MSDK/app\iperf.c ****             continue;
 1348              		.loc 1 494 9
 494:C:/Users/stapi/OneDrive/Desktop/GD32VW553/GD32VW55X_Wifi_BLE_SDK/GD32VW55x_RELEASE_V1.0.2/MSDK/app\iperf.c ****             continue;
 1349              		.loc 1 494 12 is_stmt 0
 1350 001c 83474400 		lbu	a5,4(s0)
 1351 0020 8DCB     		beq	a5,zero,.L103
 497:C:/Users/stapi/OneDrive/Desktop/GD32VW553/GD32VW55X_Wifi_BLE_SDK/GD32VW55x_RELEASE_V1.0.2/MSDK/app\iperf.c ****         iperf_stream->active = false;
 1352              		.loc 1 497 9 is_stmt 1
 1353              	.LVL123:
 498:C:/Users/stapi/OneDrive/Desktop/GD32VW553/GD32VW55X_Wifi_BLE_SDK/GD32VW55x_RELEASE_V1.0.2/MSDK/app\iperf.c ****         if (iperf_settings->flags.is_udp) {
 1354              		.loc 1 498 9
 499:C:/Users/stapi/OneDrive/Desktop/GD32VW553/GD32VW55X_Wifi_BLE_SDK/GD32VW55x_RELEASE_V1.0.2/MSDK/app\iperf.c ****             sys_sema_up(&iperf_stream->iperf_task_semaphore);
 1355              		.loc 1 499 13 is_stmt 0
 1356 0022 83478403 		lbu	a5,56(s0)
 498:C:/Users/stapi/OneDrive/Desktop/GD32VW553/GD32VW55X_Wifi_BLE_SDK/GD32VW55x_RELEASE_V1.0.2/MSDK/app\iperf.c ****         if (iperf_settings->flags.is_udp) {
 1357              		.loc 1 498 30
 1358 0026 23020400 		sb	zero,4(s0)
 499:C:/Users/stapi/OneDrive/Desktop/GD32VW553/GD32VW55X_Wifi_BLE_SDK/GD32VW55x_RELEASE_V1.0.2/MSDK/app\iperf.c ****             sys_sema_up(&iperf_stream->iperf_task_semaphore);
 1359              		.loc 1 499 9 is_stmt 1
 499:C:/Users/stapi/OneDrive/Desktop/GD32VW553/GD32VW55X_Wifi_BLE_SDK/GD32VW55x_RELEASE_V1.0.2/MSDK/app\iperf.c ****             sys_sema_up(&iperf_stream->iperf_task_semaphore);
 1360              		.loc 1 499 12 is_stmt 0
 1361 002a 898B     		andi	a5,a5,2
 1362 002c 8DCF     		beq	a5,zero,.L104
 500:C:/Users/stapi/OneDrive/Desktop/GD32VW553/GD32VW55X_Wifi_BLE_SDK/GD32VW55x_RELEASE_V1.0.2/MSDK/app\iperf.c ****         } else {
 1363              		.loc 1 500 13 is_stmt 1
 1364 002e 13054404 		addi	a0,s0,68
 1365 0032 97000000 		call	sys_sema_up
 1365      E7800000 
 1366              	.LVL124:
 1367              	.L105:
 506:C:/Users/stapi/OneDrive/Desktop/GD32VW553/GD32VW55X_Wifi_BLE_SDK/GD32VW55x_RELEASE_V1.0.2/MSDK/app\iperf.c ****         app_print("iperf: delete stream [%d]\r\n", stream_id);
 1368              		.loc 1 506 9
 1369 003a 2285     		mv	a0,s0
 1370 003c 97000000 		call	net_iperf_buf_deinit
 1370      E7800000 
 1371              	.LVL125:
 1372              		.loc 1 507 9
 1373 0044 A685     		mv	a1,s1
 1374 0046 13050A00 		addi	a0,s4,%lo(.LC25)
 1375 004a 97000000 		call	co_printf
 1375      E7800000 
 1376              	.LVL126:
 1377              	.L103:
 491:C:/Users/stapi/OneDrive/Desktop/GD32VW553/GD32VW55X_Wifi_BLE_SDK/GD32VW55x_RELEASE_V1.0.2/MSDK/app\iperf.c ****     {
 1378              		.loc 1 491 56 discriminator 2
 491:C:/Users/stapi/OneDrive/Desktop/GD32VW553/GD32VW55X_Wifi_BLE_SDK/GD32VW55x_RELEASE_V1.0.2/MSDK/app\iperf.c ****     {
 1379              		.loc 1 491 25 discriminator 2
 491:C:/Users/stapi/OneDrive/Desktop/GD32VW553/GD32VW55X_Wifi_BLE_SDK/GD32VW55x_RELEASE_V1.0.2/MSDK/app\iperf.c ****     {
 1380              		.loc 1 491 5 is_stmt 0 discriminator 2
 1381 0052 1304040D 		addi	s0,s0,208
 1382 0056 63963401 		bne	s1,s3,.L107
 508:C:/Users/stapi/OneDrive/Desktop/GD32VW553/GD32VW55X_Wifi_BLE_SDK/GD32VW55x_RELEASE_V1.0.2/MSDK/app\iperf.c ****     }
 509:C:/Users/stapi/OneDrive/Desktop/GD32VW553/GD32VW55X_Wifi_BLE_SDK/GD32VW55x_RELEASE_V1.0.2/MSDK/app\iperf.c **** }
 1383              		.loc 1 509 1
 1384 005a 17030000 		tail	__riscv_restore_5
 1384      67000300 
 1385              		.cfi_remember_state
 1386              		.cfi_restore 20
 1387              		.cfi_restore 19
 1388              		.cfi_restore 18
 1389              		.cfi_restore 9
 1390              		.cfi_restore 8
 1391              		.cfi_restore 1
 1392              		.cfi_def_cfa_offset 0
 1393              	.L107:
 1394              		.cfi_restore_state
 1395 0062 8544     		li	s1,1
 1396              	.LVL127:
 1397 0064 65BF     		j	.L106
 1398              	.LVL128:
 1399              	.L104:
 502:C:/Users/stapi/OneDrive/Desktop/GD32VW553/GD32VW55X_Wifi_BLE_SDK/GD32VW55x_RELEASE_V1.0.2/MSDK/app\iperf.c ****             net_iperf_tcp_close(iperf_stream);
 1400              		.loc 1 502 13 is_stmt 1
 1401 0066 13050900 		addi	a0,s2,%lo(lock_tcpip_core)
 1402 006a 97000000 		call	sys_mutex_get
 1402      E7800000 
 1403              	.LVL129:
 503:C:/Users/stapi/OneDrive/Desktop/GD32VW553/GD32VW55X_Wifi_BLE_SDK/GD32VW55x_RELEASE_V1.0.2/MSDK/app\iperf.c ****             UNLOCK_TCPIP_CORE();
 1404              		.loc 1 503 13
 1405 0072 2285     		mv	a0,s0
 1406 0074 97000000 		call	net_iperf_tcp_close
 1406      E7800000 
 1407              	.LVL130:
 504:C:/Users/stapi/OneDrive/Desktop/GD32VW553/GD32VW55X_Wifi_BLE_SDK/GD32VW55x_RELEASE_V1.0.2/MSDK/app\iperf.c ****         }
 1408              		.loc 1 504 13
 1409 007c 13050900 		addi	a0,s2,%lo(lock_tcpip_core)
 1410 0080 97000000 		call	sys_mutex_put
 1410      E7800000 
 1411              	.LVL131:
 1412 0088 4DBF     		j	.L105
 1413              		.cfi_endproc
 1414              	.LFE23:
 1416              		.section	.rodata.iperf_start.str1.4,"aMS",@progbits,1
 1417              		.align	2
 1418              	.LC26:
 1419 0000 436F756C 		.string	"Couldn't find free stream"
 1419      646E2774 
 1419      2066696E 
 1419      64206672 
 1419      65652073 
 1420 001a 0000     		.align	2
 1421              	.LC27:
 1422 001c 69706572 		.string	"iperf"
 1422      6600
 1423              		.section	.text.iperf_start,"ax",@progbits
 1424              		.align	1
 1425              		.globl	iperf_start
 1427              	iperf_start:
 1428              	.LFB24:
 510:C:/Users/stapi/OneDrive/Desktop/GD32VW553/GD32VW55X_Wifi_BLE_SDK/GD32VW55x_RELEASE_V1.0.2/MSDK/app\iperf.c **** 
 511:C:/Users/stapi/OneDrive/Desktop/GD32VW553/GD32VW55X_Wifi_BLE_SDK/GD32VW55x_RELEASE_V1.0.2/MSDK/app\iperf.c **** os_task_t iperf_start(struct iperf_settings_t *iperf_settings)
 512:C:/Users/stapi/OneDrive/Desktop/GD32VW553/GD32VW55X_Wifi_BLE_SDK/GD32VW55x_RELEASE_V1.0.2/MSDK/app\iperf.c **** {
 1429              		.loc 1 512 1
 1430              		.cfi_startproc
 1431              	.LVL132:
 1432 0000 17030000 		call	t0,__riscv_save_6
 1432      E7020300 
 1433              		.cfi_offset 21, -28
 1434              		.cfi_offset 20, -24
 1435              		.cfi_offset 19, -20
 1436              		.cfi_offset 18, -16
 1437              		.cfi_offset 9, -12
 1438              		.cfi_offset 8, -8
 1439              		.cfi_offset 1, -4
 1440              		.cfi_def_cfa_offset 32
 513:C:/Users/stapi/OneDrive/Desktop/GD32VW553/GD32VW55X_Wifi_BLE_SDK/GD32VW55x_RELEASE_V1.0.2/MSDK/app\iperf.c ****     struct net_iperf_stream *iperf_stream = NULL;
 1441              		.loc 1 513 5
 1442              	.LVL133:
 514:C:/Users/stapi/OneDrive/Desktop/GD32VW553/GD32VW55X_Wifi_BLE_SDK/GD32VW55x_RELEASE_V1.0.2/MSDK/app\iperf.c ****     int stream_id = iperf_find_free_stream_id();
 1443              		.loc 1 514 5
 1444              	.LBB19:
 1445              	.LBB20:
 203:C:/Users/stapi/OneDrive/Desktop/GD32VW553/GD32VW55X_Wifi_BLE_SDK/GD32VW55x_RELEASE_V1.0.2/MSDK/app\iperf.c ****     for (stream_id = 0; stream_id < IPERF_MAX_STREAMS; stream_id++)
 1446              		.loc 1 203 5
 204:C:/Users/stapi/OneDrive/Desktop/GD32VW553/GD32VW55X_Wifi_BLE_SDK/GD32VW55x_RELEASE_V1.0.2/MSDK/app\iperf.c ****     {
 1447              		.loc 1 204 5
 204:C:/Users/stapi/OneDrive/Desktop/GD32VW553/GD32VW55X_Wifi_BLE_SDK/GD32VW55x_RELEASE_V1.0.2/MSDK/app\iperf.c ****     {
 1448              		.loc 1 204 25
 206:C:/Users/stapi/OneDrive/Desktop/GD32VW553/GD32VW55X_Wifi_BLE_SDK/GD32VW55x_RELEASE_V1.0.2/MSDK/app\iperf.c ****         {
 1449              		.loc 1 206 9
 206:C:/Users/stapi/OneDrive/Desktop/GD32VW553/GD32VW55X_Wifi_BLE_SDK/GD32VW55x_RELEASE_V1.0.2/MSDK/app\iperf.c ****         {
 1450              		.loc 1 206 31 is_stmt 0
 1451 0008 37040000 		lui	s0,%hi(.LANCHOR2)
 1452 000c 93070400 		addi	a5,s0,%lo(.LANCHOR2)
 206:C:/Users/stapi/OneDrive/Desktop/GD32VW553/GD32VW55X_Wifi_BLE_SDK/GD32VW55x_RELEASE_V1.0.2/MSDK/app\iperf.c ****         {
 1453              		.loc 1 206 12
 1454 0010 03C74700 		lbu	a4,4(a5)
 1455              	.LBE20:
 1456              	.LBE19:
 512:C:/Users/stapi/OneDrive/Desktop/GD32VW553/GD32VW55X_Wifi_BLE_SDK/GD32VW55x_RELEASE_V1.0.2/MSDK/app\iperf.c ****     struct net_iperf_stream *iperf_stream = NULL;
 1457              		.loc 1 512 1
 1458 0014 4111     		addi	sp,sp,-16
 1459              		.cfi_def_cfa_offset 48
 512:C:/Users/stapi/OneDrive/Desktop/GD32VW553/GD32VW55X_Wifi_BLE_SDK/GD32VW55x_RELEASE_V1.0.2/MSDK/app\iperf.c ****     struct net_iperf_stream *iperf_stream = NULL;
 1460              		.loc 1 512 1
 1461 0016 2A89     		mv	s2,a0
 1462 0018 13040400 		addi	s0,s0,%lo(.LANCHOR2)
 1463              	.LBB24:
 1464              	.LBB21:
 206:C:/Users/stapi/OneDrive/Desktop/GD32VW553/GD32VW55X_Wifi_BLE_SDK/GD32VW55x_RELEASE_V1.0.2/MSDK/app\iperf.c ****         {
 1465              		.loc 1 206 12
 1466 001c 1DC3     		beq	a4,zero,.L117
 204:C:/Users/stapi/OneDrive/Desktop/GD32VW553/GD32VW55X_Wifi_BLE_SDK/GD32VW55x_RELEASE_V1.0.2/MSDK/app\iperf.c ****     {
 1467              		.loc 1 204 56 is_stmt 1
 1468              	.LVL134:
 204:C:/Users/stapi/OneDrive/Desktop/GD32VW553/GD32VW55X_Wifi_BLE_SDK/GD32VW55x_RELEASE_V1.0.2/MSDK/app\iperf.c ****     {
 1469              		.loc 1 204 25
 206:C:/Users/stapi/OneDrive/Desktop/GD32VW553/GD32VW55X_Wifi_BLE_SDK/GD32VW55x_RELEASE_V1.0.2/MSDK/app\iperf.c ****         {
 1470              		.loc 1 206 9
 206:C:/Users/stapi/OneDrive/Desktop/GD32VW553/GD32VW55X_Wifi_BLE_SDK/GD32VW55x_RELEASE_V1.0.2/MSDK/app\iperf.c ****         {
 1471              		.loc 1 206 12 is_stmt 0
 1472 001e 83C7470D 		lbu	a5,212(a5)
 1473 0022 63810710 		beq	a5,zero,.L118
 204:C:/Users/stapi/OneDrive/Desktop/GD32VW553/GD32VW55X_Wifi_BLE_SDK/GD32VW55x_RELEASE_V1.0.2/MSDK/app\iperf.c ****     {
 1474              		.loc 1 204 56 is_stmt 1
 1475              	.LVL135:
 204:C:/Users/stapi/OneDrive/Desktop/GD32VW553/GD32VW55X_Wifi_BLE_SDK/GD32VW55x_RELEASE_V1.0.2/MSDK/app\iperf.c ****     {
 1476              		.loc 1 204 25
 1477              	.LBE21:
 1478              	.LBE24:
 515:C:/Users/stapi/OneDrive/Desktop/GD32VW553/GD32VW55X_Wifi_BLE_SDK/GD32VW55x_RELEASE_V1.0.2/MSDK/app\iperf.c **** 
 516:C:/Users/stapi/OneDrive/Desktop/GD32VW553/GD32VW55X_Wifi_BLE_SDK/GD32VW55x_RELEASE_V1.0.2/MSDK/app\iperf.c ****     // iperf_dump_settings(iperf_settings);
 517:C:/Users/stapi/OneDrive/Desktop/GD32VW553/GD32VW55X_Wifi_BLE_SDK/GD32VW55x_RELEASE_V1.0.2/MSDK/app\iperf.c **** 
 518:C:/Users/stapi/OneDrive/Desktop/GD32VW553/GD32VW55X_Wifi_BLE_SDK/GD32VW55x_RELEASE_V1.0.2/MSDK/app\iperf.c ****     if (stream_id == -1)
 1479              		.loc 1 518 5
 519:C:/Users/stapi/OneDrive/Desktop/GD32VW553/GD32VW55X_Wifi_BLE_SDK/GD32VW55x_RELEASE_V1.0.2/MSDK/app\iperf.c ****     {
 520:C:/Users/stapi/OneDrive/Desktop/GD32VW553/GD32VW55X_Wifi_BLE_SDK/GD32VW55x_RELEASE_V1.0.2/MSDK/app\iperf.c ****         app_print("Couldn't find free stream");
 1480              		.loc 1 520 9
 1481 0026 37050000 		lui	a0,%hi(.LC26)
 1482              	.LVL136:
 1483 002a 13050500 		addi	a0,a0,%lo(.LC26)
 1484 002e 97000000 		call	co_printf
 1484      E7800000 
 1485              	.LVL137:
 521:C:/Users/stapi/OneDrive/Desktop/GD32VW553/GD32VW55X_Wifi_BLE_SDK/GD32VW55x_RELEASE_V1.0.2/MSDK/app\iperf.c ****         return NULL;
 1486              		.loc 1 521 9
 1487              	.L121:
 522:C:/Users/stapi/OneDrive/Desktop/GD32VW553/GD32VW55X_Wifi_BLE_SDK/GD32VW55x_RELEASE_V1.0.2/MSDK/app\iperf.c ****     }
 523:C:/Users/stapi/OneDrive/Desktop/GD32VW553/GD32VW55X_Wifi_BLE_SDK/GD32VW55x_RELEASE_V1.0.2/MSDK/app\iperf.c ****     iperf_stream = &streams[stream_id];
 524:C:/Users/stapi/OneDrive/Desktop/GD32VW553/GD32VW55X_Wifi_BLE_SDK/GD32VW55x_RELEASE_V1.0.2/MSDK/app\iperf.c **** 
 525:C:/Users/stapi/OneDrive/Desktop/GD32VW553/GD32VW55X_Wifi_BLE_SDK/GD32VW55x_RELEASE_V1.0.2/MSDK/app\iperf.c ****     sys_memset(iperf_stream, 0, sizeof(struct net_iperf_stream));
 526:C:/Users/stapi/OneDrive/Desktop/GD32VW553/GD32VW55X_Wifi_BLE_SDK/GD32VW55x_RELEASE_V1.0.2/MSDK/app\iperf.c **** 
 527:C:/Users/stapi/OneDrive/Desktop/GD32VW553/GD32VW55X_Wifi_BLE_SDK/GD32VW55x_RELEASE_V1.0.2/MSDK/app\iperf.c ****     iperf_stream->id = stream_id;
 528:C:/Users/stapi/OneDrive/Desktop/GD32VW553/GD32VW55X_Wifi_BLE_SDK/GD32VW55x_RELEASE_V1.0.2/MSDK/app\iperf.c ****     iperf_stream->iperf_settings = *iperf_settings;
 529:C:/Users/stapi/OneDrive/Desktop/GD32VW553/GD32VW55X_Wifi_BLE_SDK/GD32VW55x_RELEASE_V1.0.2/MSDK/app\iperf.c **** 
 530:C:/Users/stapi/OneDrive/Desktop/GD32VW553/GD32VW55X_Wifi_BLE_SDK/GD32VW55x_RELEASE_V1.0.2/MSDK/app\iperf.c ****     if (sys_sema_init_ext(&iperf_stream->iperf_task_semaphore, 1, 0))
 531:C:/Users/stapi/OneDrive/Desktop/GD32VW553/GD32VW55X_Wifi_BLE_SDK/GD32VW55x_RELEASE_V1.0.2/MSDK/app\iperf.c ****         goto end;
 532:C:/Users/stapi/OneDrive/Desktop/GD32VW553/GD32VW55X_Wifi_BLE_SDK/GD32VW55x_RELEASE_V1.0.2/MSDK/app\iperf.c **** 
 533:C:/Users/stapi/OneDrive/Desktop/GD32VW553/GD32VW55X_Wifi_BLE_SDK/GD32VW55x_RELEASE_V1.0.2/MSDK/app\iperf.c ****     if (sys_sema_init_ext(&iperf_stream->send_buf_semaphore, IPERF_SEND_BUF_CNT,
 534:C:/Users/stapi/OneDrive/Desktop/GD32VW553/GD32VW55X_Wifi_BLE_SDK/GD32VW55x_RELEASE_V1.0.2/MSDK/app\iperf.c ****                               IPERF_SEND_BUF_CNT))
 535:C:/Users/stapi/OneDrive/Desktop/GD32VW553/GD32VW55X_Wifi_BLE_SDK/GD32VW55x_RELEASE_V1.0.2/MSDK/app\iperf.c ****         goto err_sem_net;
 536:C:/Users/stapi/OneDrive/Desktop/GD32VW553/GD32VW55X_Wifi_BLE_SDK/GD32VW55x_RELEASE_V1.0.2/MSDK/app\iperf.c **** 
 537:C:/Users/stapi/OneDrive/Desktop/GD32VW553/GD32VW55X_Wifi_BLE_SDK/GD32VW55x_RELEASE_V1.0.2/MSDK/app\iperf.c ****     if (sys_sema_init_ext(&iperf_stream->to_semaphore, 1, 0))
 538:C:/Users/stapi/OneDrive/Desktop/GD32VW553/GD32VW55X_Wifi_BLE_SDK/GD32VW55x_RELEASE_V1.0.2/MSDK/app\iperf.c ****         goto err_sem_to;
 539:C:/Users/stapi/OneDrive/Desktop/GD32VW553/GD32VW55X_Wifi_BLE_SDK/GD32VW55x_RELEASE_V1.0.2/MSDK/app\iperf.c **** 
 540:C:/Users/stapi/OneDrive/Desktop/GD32VW553/GD32VW55X_Wifi_BLE_SDK/GD32VW55x_RELEASE_V1.0.2/MSDK/app\iperf.c ****     sys_mutex_new(&iperf_stream->iperf_mutex);
 541:C:/Users/stapi/OneDrive/Desktop/GD32VW553/GD32VW55X_Wifi_BLE_SDK/GD32VW55x_RELEASE_V1.0.2/MSDK/app\iperf.c **** 
 542:C:/Users/stapi/OneDrive/Desktop/GD32VW553/GD32VW55X_Wifi_BLE_SDK/GD32VW55x_RELEASE_V1.0.2/MSDK/app\iperf.c ****     if (!(iperf_stream->iperf_handle = sys_task_create_dynamic((uint8_t *)"iperf", IPERF_STACK_SIZE
 543:C:/Users/stapi/OneDrive/Desktop/GD32VW553/GD32VW55X_Wifi_BLE_SDK/GD32VW55x_RELEASE_V1.0.2/MSDK/app\iperf.c ****                                     IPERF_TASK_PRIO, iperf_main, iperf_stream)))
 544:C:/Users/stapi/OneDrive/Desktop/GD32VW553/GD32VW55X_Wifi_BLE_SDK/GD32VW55x_RELEASE_V1.0.2/MSDK/app\iperf.c ****         goto err_task_create;
 545:C:/Users/stapi/OneDrive/Desktop/GD32VW553/GD32VW55X_Wifi_BLE_SDK/GD32VW55x_RELEASE_V1.0.2/MSDK/app\iperf.c **** 
 546:C:/Users/stapi/OneDrive/Desktop/GD32VW553/GD32VW55X_Wifi_BLE_SDK/GD32VW55x_RELEASE_V1.0.2/MSDK/app\iperf.c ****     return iperf_stream->iperf_handle;
 547:C:/Users/stapi/OneDrive/Desktop/GD32VW553/GD32VW55X_Wifi_BLE_SDK/GD32VW55x_RELEASE_V1.0.2/MSDK/app\iperf.c **** 
 548:C:/Users/stapi/OneDrive/Desktop/GD32VW553/GD32VW55X_Wifi_BLE_SDK/GD32VW55x_RELEASE_V1.0.2/MSDK/app\iperf.c ****   err_task_create:
 549:C:/Users/stapi/OneDrive/Desktop/GD32VW553/GD32VW55X_Wifi_BLE_SDK/GD32VW55x_RELEASE_V1.0.2/MSDK/app\iperf.c ****     sys_mutex_free(&iperf_stream->iperf_mutex);
 550:C:/Users/stapi/OneDrive/Desktop/GD32VW553/GD32VW55X_Wifi_BLE_SDK/GD32VW55x_RELEASE_V1.0.2/MSDK/app\iperf.c **** //  err_mutex:
 551:C:/Users/stapi/OneDrive/Desktop/GD32VW553/GD32VW55X_Wifi_BLE_SDK/GD32VW55x_RELEASE_V1.0.2/MSDK/app\iperf.c ****     sys_sema_free(&iperf_stream->to_semaphore);
 552:C:/Users/stapi/OneDrive/Desktop/GD32VW553/GD32VW55X_Wifi_BLE_SDK/GD32VW55x_RELEASE_V1.0.2/MSDK/app\iperf.c ****   err_sem_to:
 553:C:/Users/stapi/OneDrive/Desktop/GD32VW553/GD32VW55X_Wifi_BLE_SDK/GD32VW55x_RELEASE_V1.0.2/MSDK/app\iperf.c ****     sys_sema_free(&iperf_stream->send_buf_semaphore);
 554:C:/Users/stapi/OneDrive/Desktop/GD32VW553/GD32VW55X_Wifi_BLE_SDK/GD32VW55x_RELEASE_V1.0.2/MSDK/app\iperf.c ****   err_sem_net:
 555:C:/Users/stapi/OneDrive/Desktop/GD32VW553/GD32VW55X_Wifi_BLE_SDK/GD32VW55x_RELEASE_V1.0.2/MSDK/app\iperf.c ****     sys_sema_free(&iperf_stream->iperf_task_semaphore);
 556:C:/Users/stapi/OneDrive/Desktop/GD32VW553/GD32VW55X_Wifi_BLE_SDK/GD32VW55x_RELEASE_V1.0.2/MSDK/app\iperf.c ****   end:
 557:C:/Users/stapi/OneDrive/Desktop/GD32VW553/GD32VW55X_Wifi_BLE_SDK/GD32VW55x_RELEASE_V1.0.2/MSDK/app\iperf.c ****     return NULL;
 1488              		.loc 1 557 12 is_stmt 0
 1489 0036 0145     		li	a0,0
 1490              	.L112:
 558:C:/Users/stapi/OneDrive/Desktop/GD32VW553/GD32VW55X_Wifi_BLE_SDK/GD32VW55x_RELEASE_V1.0.2/MSDK/app\iperf.c **** }
 1491              		.loc 1 558 1
 1492 0038 4101     		addi	sp,sp,16
 1493              		.cfi_remember_state
 1494              		.cfi_def_cfa_offset 0
 1495 003a 17030000 		tail	__riscv_restore_6
 1495      67000300 
 1496              		.cfi_restore 21
 1497              		.cfi_restore 20
 1498              		.cfi_restore 19
 1499              		.cfi_restore 18
 1500              		.cfi_restore 9
 1501              		.cfi_restore 8
 1502              		.cfi_restore 1
 1503              		.cfi_def_cfa_offset -32
 1504              	.LVL138:
 1505              	.L117:
 1506              		.cfi_restore_state
 1507              	.LBB25:
 1508              	.LBB22:
 204:C:/Users/stapi/OneDrive/Desktop/GD32VW553/GD32VW55X_Wifi_BLE_SDK/GD32VW55x_RELEASE_V1.0.2/MSDK/app\iperf.c ****     {
 1509              		.loc 1 204 20
 1510 0042 8149     		li	s3,0
 1511              	.LVL139:
 1512              	.L113:
 1513              	.LBE22:
 1514              	.LBE25:
 523:C:/Users/stapi/OneDrive/Desktop/GD32VW553/GD32VW55X_Wifi_BLE_SDK/GD32VW55x_RELEASE_V1.0.2/MSDK/app\iperf.c **** 
 1515              		.loc 1 523 5 is_stmt 1
 1516 0044 9304000D 		li	s1,208
 1517 0048 B3849902 		mul	s1,s3,s1
 525:C:/Users/stapi/OneDrive/Desktop/GD32VW553/GD32VW55X_Wifi_BLE_SDK/GD32VW55x_RELEASE_V1.0.2/MSDK/app\iperf.c **** 
 1518              		.loc 1 525 5 is_stmt 0
 1519 004c 1306000D 		li	a2,208
 1520 0050 8145     		li	a1,0
 523:C:/Users/stapi/OneDrive/Desktop/GD32VW553/GD32VW55X_Wifi_BLE_SDK/GD32VW55x_RELEASE_V1.0.2/MSDK/app\iperf.c **** 
 1521              		.loc 1 523 18
 1522 0052 330A9400 		add	s4,s0,s1
 1523              	.LVL140:
 525:C:/Users/stapi/OneDrive/Desktop/GD32VW553/GD32VW55X_Wifi_BLE_SDK/GD32VW55x_RELEASE_V1.0.2/MSDK/app\iperf.c **** 
 1524              		.loc 1 525 5 is_stmt 1
 1525 0056 5285     		mv	a0,s4
 1526              	.LVL141:
 1527 0058 97000000 		call	sys_memset
 1527      E7800000 
 1528              	.LVL142:
 527:C:/Users/stapi/OneDrive/Desktop/GD32VW553/GD32VW55X_Wifi_BLE_SDK/GD32VW55x_RELEASE_V1.0.2/MSDK/app\iperf.c ****     iperf_stream->iperf_settings = *iperf_settings;
 1529              		.loc 1 527 5
 528:C:/Users/stapi/OneDrive/Desktop/GD32VW553/GD32VW55X_Wifi_BLE_SDK/GD32VW55x_RELEASE_V1.0.2/MSDK/app\iperf.c **** 
 1530              		.loc 1 528 34 is_stmt 0
 1531 0060 CA85     		mv	a1,s2
 1532 0062 13068003 		li	a2,56
 527:C:/Users/stapi/OneDrive/Desktop/GD32VW553/GD32VW55X_Wifi_BLE_SDK/GD32VW55x_RELEASE_V1.0.2/MSDK/app\iperf.c ****     iperf_stream->iperf_settings = *iperf_settings;
 1533              		.loc 1 527 22
 1534 0066 23203A01 		sw	s3,0(s4)
 528:C:/Users/stapi/OneDrive/Desktop/GD32VW553/GD32VW55X_Wifi_BLE_SDK/GD32VW55x_RELEASE_V1.0.2/MSDK/app\iperf.c **** 
 1535              		.loc 1 528 5 is_stmt 1
 528:C:/Users/stapi/OneDrive/Desktop/GD32VW553/GD32VW55X_Wifi_BLE_SDK/GD32VW55x_RELEASE_V1.0.2/MSDK/app\iperf.c **** 
 1536              		.loc 1 528 34 is_stmt 0
 1537 006a 13058A00 		addi	a0,s4,8
 530:C:/Users/stapi/OneDrive/Desktop/GD32VW553/GD32VW55X_Wifi_BLE_SDK/GD32VW55x_RELEASE_V1.0.2/MSDK/app\iperf.c ****         goto end;
 1538              		.loc 1 530 9
 1539 006e 13894404 		addi	s2,s1,68
 1540              	.LVL143:
 528:C:/Users/stapi/OneDrive/Desktop/GD32VW553/GD32VW55X_Wifi_BLE_SDK/GD32VW55x_RELEASE_V1.0.2/MSDK/app\iperf.c **** 
 1541              		.loc 1 528 34
 1542 0072 97000000 		call	memcpy
 1542      E7800000 
 1543              	.LVL144:
 530:C:/Users/stapi/OneDrive/Desktop/GD32VW553/GD32VW55X_Wifi_BLE_SDK/GD32VW55x_RELEASE_V1.0.2/MSDK/app\iperf.c ****         goto end;
 1544              		.loc 1 530 5 is_stmt 1
 530:C:/Users/stapi/OneDrive/Desktop/GD32VW553/GD32VW55X_Wifi_BLE_SDK/GD32VW55x_RELEASE_V1.0.2/MSDK/app\iperf.c ****         goto end;
 1545              		.loc 1 530 9 is_stmt 0
 1546 007a 2299     		add	s2,s0,s2
 1547 007c 0146     		li	a2,0
 1548 007e 8545     		li	a1,1
 1549 0080 4A85     		mv	a0,s2
 1550 0082 97000000 		call	sys_sema_init_ext
 1550      E7800000 
 1551              	.LVL145:
 1552 008a AA87     		mv	a5,a0
 557:C:/Users/stapi/OneDrive/Desktop/GD32VW553/GD32VW55X_Wifi_BLE_SDK/GD32VW55x_RELEASE_V1.0.2/MSDK/app\iperf.c **** }
 1553              		.loc 1 557 12
 1554 008c 0145     		li	a0,0
 530:C:/Users/stapi/OneDrive/Desktop/GD32VW553/GD32VW55X_Wifi_BLE_SDK/GD32VW55x_RELEASE_V1.0.2/MSDK/app\iperf.c ****         goto end;
 1555              		.loc 1 530 8
 1556 008e CDF7     		bne	a5,zero,.L112
 533:C:/Users/stapi/OneDrive/Desktop/GD32VW553/GD32VW55X_Wifi_BLE_SDK/GD32VW55x_RELEASE_V1.0.2/MSDK/app\iperf.c ****                               IPERF_SEND_BUF_CNT))
 1557              		.loc 1 533 5 is_stmt 1
 533:C:/Users/stapi/OneDrive/Desktop/GD32VW553/GD32VW55X_Wifi_BLE_SDK/GD32VW55x_RELEASE_V1.0.2/MSDK/app\iperf.c ****                               IPERF_SEND_BUF_CNT))
 1558              		.loc 1 533 9 is_stmt 0
 1559 0090 93898404 		addi	s3,s1,72
 1560 0094 A299     		add	s3,s0,s3
 1561 0096 2146     		li	a2,8
 1562 0098 A145     		li	a1,8
 1563 009a 4E85     		mv	a0,s3
 1564 009c 97000000 		call	sys_sema_init_ext
 1564      E7800000 
 1565              	.LVL146:
 533:C:/Users/stapi/OneDrive/Desktop/GD32VW553/GD32VW55X_Wifi_BLE_SDK/GD32VW55x_RELEASE_V1.0.2/MSDK/app\iperf.c ****                               IPERF_SEND_BUF_CNT))
 1566              		.loc 1 533 8
 1567 00a4 35E9     		bne	a0,zero,.L115
 537:C:/Users/stapi/OneDrive/Desktop/GD32VW553/GD32VW55X_Wifi_BLE_SDK/GD32VW55x_RELEASE_V1.0.2/MSDK/app\iperf.c ****         goto err_sem_to;
 1568              		.loc 1 537 5 is_stmt 1
 537:C:/Users/stapi/OneDrive/Desktop/GD32VW553/GD32VW55X_Wifi_BLE_SDK/GD32VW55x_RELEASE_V1.0.2/MSDK/app\iperf.c ****         goto err_sem_to;
 1569              		.loc 1 537 9 is_stmt 0
 1570 00a6 938AC404 		addi	s5,s1,76
 1571 00aa A29A     		add	s5,s0,s5
 1572 00ac 0146     		li	a2,0
 1573 00ae 8545     		li	a1,1
 1574 00b0 5685     		mv	a0,s5
 1575 00b2 97000000 		call	sys_sema_init_ext
 1575      E7800000 
 1576              	.LVL147:
 537:C:/Users/stapi/OneDrive/Desktop/GD32VW553/GD32VW55X_Wifi_BLE_SDK/GD32VW55x_RELEASE_V1.0.2/MSDK/app\iperf.c ****         goto err_sem_to;
 1577              		.loc 1 537 8
 1578 00ba 31E9     		bne	a0,zero,.L116
 540:C:/Users/stapi/OneDrive/Desktop/GD32VW553/GD32VW55X_Wifi_BLE_SDK/GD32VW55x_RELEASE_V1.0.2/MSDK/app\iperf.c **** 
 1579              		.loc 1 540 5 is_stmt 1
 1580 00bc 93840405 		addi	s1,s1,80
 1581 00c0 2694     		add	s0,s0,s1
 1582 00c2 2285     		mv	a0,s0
 1583 00c4 97000000 		call	sys_mutex_init
 1583      E7800000 
 1584              	.LVL148:
 542:C:/Users/stapi/OneDrive/Desktop/GD32VW553/GD32VW55X_Wifi_BLE_SDK/GD32VW55x_RELEASE_V1.0.2/MSDK/app\iperf.c ****                                     IPERF_TASK_PRIO, iperf_main, iperf_stream)))
 1585              		.loc 1 542 5
 542:C:/Users/stapi/OneDrive/Desktop/GD32VW553/GD32VW55X_Wifi_BLE_SDK/GD32VW55x_RELEASE_V1.0.2/MSDK/app\iperf.c ****                                     IPERF_TASK_PRIO, iperf_main, iperf_stream)))
 1586              		.loc 1 542 40 is_stmt 0
 1587 00cc B7080000 		lui	a7,%hi(iperf_main)
 1588 00d0 B7050000 		lui	a1,%hi(.LC27)
 1589 00d4 52C0     		sw	s4,0(sp)
 1590 00d6 93880800 		addi	a7,a7,%lo(iperf_main)
 1591 00da 4948     		li	a6,18
 1592 00dc 8147     		li	a5,0
 1593 00de 0147     		li	a4,0
 1594 00e0 93060020 		li	a3,512
 1595 00e4 0146     		li	a2,0
 1596 00e6 93850500 		addi	a1,a1,%lo(.LC27)
 1597 00ea 0145     		li	a0,0
 1598 00ec 97000000 		call	sys_task_create
 1598      E7800000 
 1599              	.LVL149:
 542:C:/Users/stapi/OneDrive/Desktop/GD32VW553/GD32VW55X_Wifi_BLE_SDK/GD32VW55x_RELEASE_V1.0.2/MSDK/app\iperf.c ****                                     IPERF_TASK_PRIO, iperf_main, iperf_stream)))
 1600              		.loc 1 542 38
 1601 00f4 2320AA04 		sw	a0,64(s4)
 542:C:/Users/stapi/OneDrive/Desktop/GD32VW553/GD32VW55X_Wifi_BLE_SDK/GD32VW55x_RELEASE_V1.0.2/MSDK/app\iperf.c ****                                     IPERF_TASK_PRIO, iperf_main, iperf_stream)))
 1602              		.loc 1 542 8
 1603 00f8 21F1     		bne	a0,zero,.L112
 544:C:/Users/stapi/OneDrive/Desktop/GD32VW553/GD32VW55X_Wifi_BLE_SDK/GD32VW55x_RELEASE_V1.0.2/MSDK/app\iperf.c **** 
 1604              		.loc 1 544 9 is_stmt 1
 1605              	.LDL1:
 549:C:/Users/stapi/OneDrive/Desktop/GD32VW553/GD32VW55X_Wifi_BLE_SDK/GD32VW55x_RELEASE_V1.0.2/MSDK/app\iperf.c **** //  err_mutex:
 1606              		.loc 1 549 5
 1607 00fa 2285     		mv	a0,s0
 1608 00fc 97000000 		call	sys_mutex_free
 1608      E7800000 
 1609              	.LVL150:
 551:C:/Users/stapi/OneDrive/Desktop/GD32VW553/GD32VW55X_Wifi_BLE_SDK/GD32VW55x_RELEASE_V1.0.2/MSDK/app\iperf.c ****   err_sem_to:
 1610              		.loc 1 551 5
 1611 0104 5685     		mv	a0,s5
 1612 0106 97000000 		call	sys_sema_free
 1612      E7800000 
 1613              	.LVL151:
 1614              	.L116:
 553:C:/Users/stapi/OneDrive/Desktop/GD32VW553/GD32VW55X_Wifi_BLE_SDK/GD32VW55x_RELEASE_V1.0.2/MSDK/app\iperf.c ****   err_sem_net:
 1615              		.loc 1 553 5
 1616 010e 4E85     		mv	a0,s3
 1617 0110 97000000 		call	sys_sema_free
 1617      E7800000 
 1618              	.LVL152:
 1619              	.L115:
 555:C:/Users/stapi/OneDrive/Desktop/GD32VW553/GD32VW55X_Wifi_BLE_SDK/GD32VW55x_RELEASE_V1.0.2/MSDK/app\iperf.c ****   end:
 1620              		.loc 1 555 5
 1621 0118 4A85     		mv	a0,s2
 1622 011a 97000000 		call	sys_sema_free
 1622      E7800000 
 1623              	.LVL153:
 1624 0122 11BF     		j	.L121
 1625              	.LVL154:
 1626              	.L118:
 1627              	.LBB26:
 1628              	.LBB23:
 204:C:/Users/stapi/OneDrive/Desktop/GD32VW553/GD32VW55X_Wifi_BLE_SDK/GD32VW55x_RELEASE_V1.0.2/MSDK/app\iperf.c ****     {
 1629              		.loc 1 204 65 is_stmt 0
 1630 0124 8549     		li	s3,1
 1631 0126 39BF     		j	.L113
 1632              	.LBE23:
 1633              	.LBE26:
 1634              		.cfi_endproc
 1635              	.LFE24:
 1637              		.section	.rodata.cmd_iperf.str1.4,"aMS",@progbits,1
 1638              		.align	2
 1639              	.LC28:
 1640 0000 2D7300   		.string	"-s"
 1641 0003 00       		.align	2
 1642              	.LC29:
 1643 0004 0D0A6970 		.string	"\r\niperf: start server!\r\n"
 1643      6572663A 
 1643      20737461 
 1643      72742073 
 1643      65727665 
 1644 001d 000000   		.align	2
 1645              	.LC30:
 1646 0020 2D6300   		.string	"-c"
 1647 0023 00       		.align	2
 1648              	.LC31:
 1649 0024 0D0A6970 		.string	"\r\niperf: start client!\r\n"
 1649      6572663A 
 1649      20737461 
 1649      72742063 
 1649      6C69656E 
 1650 003d 000000   		.align	2
 1651              	.LC32:
 1652 0040 73746F70 		.string	"stop"
 1652      00
 1653 0045 000000   		.align	2
 1654              	.LC33:
 1655 0048 2D6900   		.string	"-i"
 1656 004b 00       		.align	2
 1657              	.LC34:
 1658 004c 55445020 		.string	"UDP WARNNING: Report interval is larger than 3600 seconds. Use 3600 seconds instead.\r\n"
 1658      5741524E 
 1658      4E494E47 
 1658      3A205265 
 1658      706F7274 
 1659 00a3 00       		.align	2
 1660              	.LC35:
 1661 00a4 2D6C00   		.string	"-l"
 1662 00a7 00       		.align	2
 1663              	.LC36:
 1664 00a8 55445020 		.string	"UDP WARNNING: To save memory, the buffer size is preferably less than 5K. Use 5K instead.
 1664      5741524E 
 1664      4E494E47 
 1664      3A20546F 
 1664      20736176 
 1665              		.align	2
 1666              	.LC37:
 1667 0104 55445020 		.string	"UDP WARNNING: buffer length must be greater than or equal to %d in UDP\n"
 1667      5741524E 
 1667      4E494E47 
 1667      3A206275 
 1667      66666572 
 1668              		.align	2
 1669              	.LC38:
 1670 014c 2D7000   		.string	"-p"
 1671 014f 00       		.align	2
 1672              	.LC39:
 1673 0150 2D6200   		.string	"-b"
 1674 0153 00       		.align	2
 1675              	.LC40:
 1676 0154 2D6E00   		.string	"-n"
 1677 0157 00       		.align	2
 1678              	.LC41:
 1679 0158 2D7400   		.string	"-t"
 1680 015b 00       		.align	2
 1681              	.LC42:
 1682 015c 2D7500   		.string	"-u"
 1683 015f 00       		.align	2
 1684              	.LC43:
 1685 0160 2D5300   		.string	"-S"
 1686 0163 00       		.align	2
 1687              	.LC44:
 1688 0164 69706572 		.string	"iperf: invalid tos\r\n"
 1688      663A2069 
 1688      6E76616C 
 1688      69642074 
 1688      6F730D0A 
 1689 0179 000000   		.align	2
 1690              	.LC45:
 1691 017c 42452071 		.string	"BE queue, tos 0x%x tid %d\r\n"
 1691      75657565 
 1691      2C20746F 
 1691      73203078 
 1691      25782074 
 1692              		.align	2
 1693              	.LC46:
 1694 0198 424B2071 		.string	"BK queue, tos 0x%x tid %d\r\n"
 1694      75657565 
 1694      2C20746F 
 1694      73203078 
 1694      25782074 
 1695              		.align	2
 1696              	.LC47:
 1697 01b4 56492071 		.string	"VI queue, tos 0x%x tid %d\r\n"
 1697      75657565 
 1697      2C20746F 
 1697      73203078 
 1697      25782074 
 1698              		.align	2
 1699              	.LC48:
 1700 01d0 564F2071 		.string	"VO queue, tos 0x%x tid %d\r\n"
 1700      75657565 
 1700      2C20746F 
 1700      73203078 
 1700      25782074 
 1701              		.align	2
 1702              	.LC49:
 1703 01ec 556E6B6F 		.string	"Unkonwn tos. Please enter 0, 0x20, 0x40, 0x60, 0x80, 0xa0, 0xc0 or 0xe0.\r\n"
 1703      6E776E20 
 1703      746F732E 
 1703      20506C65 
 1703      61736520 
 1704 0237 00       		.align	2
 1705              	.LC50:
 1706 0238 0D0A4970 		.string	"\r\nIperf: command format error!\r\n"
 1706      6572663A 
 1706      20636F6D 
 1706      6D616E64 
 1706      20666F72 
 1707 0259 000000   		.align	2
 1708              	.LC51:
 1709 025c 0D557361 		.string	"\rUsage:\r\n"
 1709      67653A0D 
 1709      0A00
 1710 0266 0000     		.align	2
 1711              	.LC52:
 1712 0268 20202020 		.string	"    iperf <-s|-c hostip|stop|-h> [options]\r\n"
 1712      69706572 
 1712      66203C2D 
 1712      737C2D63 
 1712      20686F73 
 1713 0295 000000   		.align	2
 1714              	.LC53:
 1715 0298 0D436C69 		.string	"\rClient/Server:\r\n"
 1715      656E742F 
 1715      53657276 
 1715      65723A0D 
 1715      0A00
 1716 02aa 0000     		.align	2
 1717              	.LC54:
 1718 02ac 20202020 		.string	"    -u #      use UDP rather than TCP\r\n"
 1718      2D752023 
 1718      20202020 
 1718      20207573 
 1718      65205544 
 1719              		.align	2
 1720              	.LC55:
 1721 02d4 20202020 		.string	"    -i #      seconds between periodic bandwidth reports\r\n"
 1721      2D692023 
 1721      20202020 
 1721      20207365 
 1721      636F6E64 
 1722 030f 00       		.align	2
 1723              	.LC56:
 1724 0310 20202020 		.string	"    -l #      length of buffer to read or write (default 1460 Bytes)\r\n"
 1724      2D6C2023 
 1724      20202020 
 1724      20206C65 
 1724      6E677468 
 1725 0357 00       		.align	2
 1726              	.LC57:
 1727 0358 20202020 		.string	"    -p #      server port to listen on/connect to (default 5001)\r\n"
 1727      2D702023 
 1727      20202020 
 1727      20207365 
 1727      72766572 
 1728 039b 00       		.align	2
 1729              	.LC58:
 1730 039c 0D536572 		.string	"\rServer specific:\r\n"
 1730      76657220 
 1730      73706563 
 1730      69666963 
 1730      3A0D0A00 
 1731              		.align	2
 1732              	.LC59:
 1733 03b0 20202020 		.string	"    -s        run in server mode\r\n"
 1733      2D732020 
 1733      20202020 
 1733      20207275 
 1733      6E20696E 
 1734 03d3 00       		.align	2
 1735              	.LC60:
 1736 03d4 0D436C69 		.string	"\rClient specific:\r\n"
 1736      656E7420 
 1736      73706563 
 1736      69666963 
 1736      3A0D0A00 
 1737              		.align	2
 1738              	.LC61:
 1739 03e8 20202020 		.string	"    -b #      bandwidth to send at in bits/sec (default 1 Mbit/sec, implies -u)\r\n"
 1739      2D622023 
 1739      20202020 
 1739      20206261 
 1739      6E647769 
 1740 043a 0000     		.align	2
 1741              	.LC62:
 1742 043c 20202020 		.string	"    -S #      set the IP 'type of service'\r\n"
 1742      2D532023 
 1742      20202020 
 1742      20207365 
 1742      74207468 
 1743 0469 000000   		.align	2
 1744              	.LC63:
 1745 046c 20202020 		.string	"    -c <host> run in client mode, connecting to <host>\r\n"
 1745      2D63203C 
 1745      686F7374 
 1745      3E207275 
 1745      6E20696E 
 1746 04a5 000000   		.align	2
 1747              	.LC64:
 1748 04a8 20202020 		.string	"    -t #      time in seconds to transmit for (default 10 secs)\r\n"
 1748      2D742023 
 1748      20202020 
 1748      20207469 
 1748      6D652069 
 1749              		.section	.text.cmd_iperf,"ax",@progbits
 1750              		.align	1
 1751              		.globl	cmd_iperf
 1753              	cmd_iperf:
 1754              	.LFB25:
 559:C:/Users/stapi/OneDrive/Desktop/GD32VW553/GD32VW55X_Wifi_BLE_SDK/GD32VW55x_RELEASE_V1.0.2/MSDK/app\iperf.c **** 
 560:C:/Users/stapi/OneDrive/Desktop/GD32VW553/GD32VW55X_Wifi_BLE_SDK/GD32VW55x_RELEASE_V1.0.2/MSDK/app\iperf.c **** void cmd_iperf(int argc, char **argv)
 561:C:/Users/stapi/OneDrive/Desktop/GD32VW553/GD32VW55X_Wifi_BLE_SDK/GD32VW55x_RELEASE_V1.0.2/MSDK/app\iperf.c **** {
 1755              		.loc 1 561 1 is_stmt 1
 1756              		.cfi_startproc
 1757              	.LVL155:
 1758 0000 17030000 		call	t0,__riscv_save_9
 1758      E7020300 
 1759              		.cfi_offset 24, -40
 1760              		.cfi_offset 23, -36
 1761              		.cfi_offset 22, -32
 1762              		.cfi_offset 21, -28
 1763              		.cfi_offset 20, -24
 1764              		.cfi_offset 19, -20
 1765              		.cfi_offset 18, -16
 1766              		.cfi_offset 9, -12
 1767              		.cfi_offset 8, -8
 1768              		.cfi_offset 1, -4
 1769              		.cfi_def_cfa_offset 48
 562:C:/Users/stapi/OneDrive/Desktop/GD32VW553/GD32VW55X_Wifi_BLE_SDK/GD32VW55x_RELEASE_V1.0.2/MSDK/app\iperf.c ****     struct iperf_settings_t iperf_settings;
 1770              		.loc 1 562 5
 563:C:/Users/stapi/OneDrive/Desktop/GD32VW553/GD32VW55X_Wifi_BLE_SDK/GD32VW55x_RELEASE_V1.0.2/MSDK/app\iperf.c ****     bool client_server_set = false;
 1771              		.loc 1 563 5
 1772              	.LVL156:
 564:C:/Users/stapi/OneDrive/Desktop/GD32VW553/GD32VW55X_Wifi_BLE_SDK/GD32VW55x_RELEASE_V1.0.2/MSDK/app\iperf.c ****     int arg_cnt = 1;
 1773              		.loc 1 564 5
 565:C:/Users/stapi/OneDrive/Desktop/GD32VW553/GD32VW55X_Wifi_BLE_SDK/GD32VW55x_RELEASE_V1.0.2/MSDK/app\iperf.c ****     char *endptr = NULL;
 1774              		.loc 1 565 5
 561:C:/Users/stapi/OneDrive/Desktop/GD32VW553/GD32VW55X_Wifi_BLE_SDK/GD32VW55x_RELEASE_V1.0.2/MSDK/app\iperf.c ****     struct iperf_settings_t iperf_settings;
 1775              		.loc 1 561 1 is_stmt 0
 1776 0008 3971     		addi	sp,sp,-64
 1777              		.cfi_def_cfa_offset 112
 1778              		.loc 1 565 11
 1779 000a 02C2     		sw	zero,4(sp)
 566:C:/Users/stapi/OneDrive/Desktop/GD32VW553/GD32VW55X_Wifi_BLE_SDK/GD32VW55x_RELEASE_V1.0.2/MSDK/app\iperf.c **** 
 567:C:/Users/stapi/OneDrive/Desktop/GD32VW553/GD32VW55X_Wifi_BLE_SDK/GD32VW55x_RELEASE_V1.0.2/MSDK/app\iperf.c ****     if (argc <= 1) {
 1780              		.loc 1 567 5 is_stmt 1
 1781              		.loc 1 567 8 is_stmt 0
 1782 000c 8547     		li	a5,1
 1783 000e 63DDA734 		ble	a0,a5,.L123
 1784 0012 AE89     		mv	s3,a1
 568:C:/Users/stapi/OneDrive/Desktop/GD32VW553/GD32VW55X_Wifi_BLE_SDK/GD32VW55x_RELEASE_V1.0.2/MSDK/app\iperf.c ****         goto Usage;
 569:C:/Users/stapi/OneDrive/Desktop/GD32VW553/GD32VW55X_Wifi_BLE_SDK/GD32VW55x_RELEASE_V1.0.2/MSDK/app\iperf.c ****     }
 570:C:/Users/stapi/OneDrive/Desktop/GD32VW553/GD32VW55X_Wifi_BLE_SDK/GD32VW55x_RELEASE_V1.0.2/MSDK/app\iperf.c **** 
 571:C:/Users/stapi/OneDrive/Desktop/GD32VW553/GD32VW55X_Wifi_BLE_SDK/GD32VW55x_RELEASE_V1.0.2/MSDK/app\iperf.c ****     iperf_settings_init(&iperf_settings);
 1785              		.loc 1 571 5 is_stmt 1
 1786 0014 AA84     		mv	s1,a0
 1787 0016 2800     		addi	a0,sp,8
 1788              	.LVL157:
 1789 0018 97000000 		call	iperf_settings_init
 1789      E7800000 
 1790              	.LVL158:
 572:C:/Users/stapi/OneDrive/Desktop/GD32VW553/GD32VW55X_Wifi_BLE_SDK/GD32VW55x_RELEASE_V1.0.2/MSDK/app\iperf.c **** 
 573:C:/Users/stapi/OneDrive/Desktop/GD32VW553/GD32VW55X_Wifi_BLE_SDK/GD32VW55x_RELEASE_V1.0.2/MSDK/app\iperf.c ****     /* Parse main option */
 574:C:/Users/stapi/OneDrive/Desktop/GD32VW553/GD32VW55X_Wifi_BLE_SDK/GD32VW55x_RELEASE_V1.0.2/MSDK/app\iperf.c ****     if (arg_cnt == 1) {
 1791              		.loc 1 574 5
 575:C:/Users/stapi/OneDrive/Desktop/GD32VW553/GD32VW55X_Wifi_BLE_SDK/GD32VW55x_RELEASE_V1.0.2/MSDK/app\iperf.c ****         if (strncmp(argv[1], "-s", 2) == 0) {
 1792              		.loc 1 575 9
 1793              		.loc 1 575 13 is_stmt 0
 1794 0020 03A44900 		lw	s0,4(s3)
 1795 0024 B7050000 		lui	a1,%hi(.LC28)
 1796 0028 0946     		li	a2,2
 1797 002a 93850500 		addi	a1,a1,%lo(.LC28)
 1798 002e 2285     		mv	a0,s0
 1799 0030 97000000 		call	strncmp
 1799      E7800000 
 1800              	.LVL159:
 1801              		.loc 1 575 12
 1802 0038 39E1     		bne	a0,zero,.L124
 576:C:/Users/stapi/OneDrive/Desktop/GD32VW553/GD32VW55X_Wifi_BLE_SDK/GD32VW55x_RELEASE_V1.0.2/MSDK/app\iperf.c ****             if (client_server_set) {
 1803              		.loc 1 576 13 is_stmt 1
 577:C:/Users/stapi/OneDrive/Desktop/GD32VW553/GD32VW55X_Wifi_BLE_SDK/GD32VW55x_RELEASE_V1.0.2/MSDK/app\iperf.c ****                 goto Exit;
 578:C:/Users/stapi/OneDrive/Desktop/GD32VW553/GD32VW55X_Wifi_BLE_SDK/GD32VW55x_RELEASE_V1.0.2/MSDK/app\iperf.c ****             }
 579:C:/Users/stapi/OneDrive/Desktop/GD32VW553/GD32VW55X_Wifi_BLE_SDK/GD32VW55x_RELEASE_V1.0.2/MSDK/app\iperf.c ****             app_print("\r\niperf: start server!\r\n");
 1804              		.loc 1 579 13
 1805 003a 37050000 		lui	a0,%hi(.LC29)
 1806 003e 13050500 		addi	a0,a0,%lo(.LC29)
 1807 0042 97000000 		call	co_printf
 1807      E7800000 
 1808              	.LVL160:
 580:C:/Users/stapi/OneDrive/Desktop/GD32VW553/GD32VW55X_Wifi_BLE_SDK/GD32VW55x_RELEASE_V1.0.2/MSDK/app\iperf.c ****             iperf_settings.flags.is_server = 1;
 1809              		.loc 1 580 13
 1810              		.loc 1 580 44 is_stmt 0
 1811 004a 83478103 		lbu	a5,56(sp)
 581:C:/Users/stapi/OneDrive/Desktop/GD32VW553/GD32VW55X_Wifi_BLE_SDK/GD32VW55x_RELEASE_V1.0.2/MSDK/app\iperf.c ****             client_server_set = true;
 582:C:/Users/stapi/OneDrive/Desktop/GD32VW553/GD32VW55X_Wifi_BLE_SDK/GD32VW55x_RELEASE_V1.0.2/MSDK/app\iperf.c ****             arg_cnt += 1;
 1812              		.loc 1 582 21
 1813 004e 0944     		li	s0,2
 580:C:/Users/stapi/OneDrive/Desktop/GD32VW553/GD32VW55X_Wifi_BLE_SDK/GD32VW55x_RELEASE_V1.0.2/MSDK/app\iperf.c ****             iperf_settings.flags.is_server = 1;
 1814              		.loc 1 580 44
 1815 0050 93E70701 		ori	a5,a5,16
 1816 0054 230CF102 		sb	a5,56(sp)
 581:C:/Users/stapi/OneDrive/Desktop/GD32VW553/GD32VW55X_Wifi_BLE_SDK/GD32VW55x_RELEASE_V1.0.2/MSDK/app\iperf.c ****             client_server_set = true;
 1817              		.loc 1 581 13 is_stmt 1
 1818              	.LVL161:
 1819              		.loc 1 582 13
 1820              	.L128:
 1821              	.LBB27:
 583:C:/Users/stapi/OneDrive/Desktop/GD32VW553/GD32VW55X_Wifi_BLE_SDK/GD32VW55x_RELEASE_V1.0.2/MSDK/app\iperf.c ****         } else if (strncmp(argv[1], "-c", 2) == 0) {
 584:C:/Users/stapi/OneDrive/Desktop/GD32VW553/GD32VW55X_Wifi_BLE_SDK/GD32VW55x_RELEASE_V1.0.2/MSDK/app\iperf.c ****             app_print("\r\niperf: start client!\r\n");
 585:C:/Users/stapi/OneDrive/Desktop/GD32VW553/GD32VW55X_Wifi_BLE_SDK/GD32VW55x_RELEASE_V1.0.2/MSDK/app\iperf.c ****             if (client_server_set)
 586:C:/Users/stapi/OneDrive/Desktop/GD32VW553/GD32VW55X_Wifi_BLE_SDK/GD32VW55x_RELEASE_V1.0.2/MSDK/app\iperf.c ****                 goto Exit;
 587:C:/Users/stapi/OneDrive/Desktop/GD32VW553/GD32VW55X_Wifi_BLE_SDK/GD32VW55x_RELEASE_V1.0.2/MSDK/app\iperf.c **** 
 588:C:/Users/stapi/OneDrive/Desktop/GD32VW553/GD32VW55X_Wifi_BLE_SDK/GD32VW55x_RELEASE_V1.0.2/MSDK/app\iperf.c ****             iperf_settings.flags.is_server = 0;
 589:C:/Users/stapi/OneDrive/Desktop/GD32VW553/GD32VW55X_Wifi_BLE_SDK/GD32VW55x_RELEASE_V1.0.2/MSDK/app\iperf.c ****             client_server_set = true;
 590:C:/Users/stapi/OneDrive/Desktop/GD32VW553/GD32VW55X_Wifi_BLE_SDK/GD32VW55x_RELEASE_V1.0.2/MSDK/app\iperf.c **** 
 591:C:/Users/stapi/OneDrive/Desktop/GD32VW553/GD32VW55X_Wifi_BLE_SDK/GD32VW55x_RELEASE_V1.0.2/MSDK/app\iperf.c ****             if (argc >= 3) {
 592:C:/Users/stapi/OneDrive/Desktop/GD32VW553/GD32VW55X_Wifi_BLE_SDK/GD32VW55x_RELEASE_V1.0.2/MSDK/app\iperf.c **** #ifdef CONFIG_IPV6_SUPPORT
 593:C:/Users/stapi/OneDrive/Desktop/GD32VW553/GD32VW55X_Wifi_BLE_SDK/GD32VW55x_RELEASE_V1.0.2/MSDK/app\iperf.c ****                 if (!ipaddr_aton(argv[2], &iperf_settings.host_ip))
 594:C:/Users/stapi/OneDrive/Desktop/GD32VW553/GD32VW55X_Wifi_BLE_SDK/GD32VW55x_RELEASE_V1.0.2/MSDK/app\iperf.c ****                     goto Exit;
 595:C:/Users/stapi/OneDrive/Desktop/GD32VW553/GD32VW55X_Wifi_BLE_SDK/GD32VW55x_RELEASE_V1.0.2/MSDK/app\iperf.c **** #else
 596:C:/Users/stapi/OneDrive/Desktop/GD32VW553/GD32VW55X_Wifi_BLE_SDK/GD32VW55x_RELEASE_V1.0.2/MSDK/app\iperf.c ****                 cli_parse_ip4(argv[2], &iperf_settings.host_ip, NULL);
 597:C:/Users/stapi/OneDrive/Desktop/GD32VW553/GD32VW55X_Wifi_BLE_SDK/GD32VW55x_RELEASE_V1.0.2/MSDK/app\iperf.c **** #endif
 598:C:/Users/stapi/OneDrive/Desktop/GD32VW553/GD32VW55X_Wifi_BLE_SDK/GD32VW55x_RELEASE_V1.0.2/MSDK/app\iperf.c ****             } else
 599:C:/Users/stapi/OneDrive/Desktop/GD32VW553/GD32VW55X_Wifi_BLE_SDK/GD32VW55x_RELEASE_V1.0.2/MSDK/app\iperf.c ****                 goto Exit;
 600:C:/Users/stapi/OneDrive/Desktop/GD32VW553/GD32VW55X_Wifi_BLE_SDK/GD32VW55x_RELEASE_V1.0.2/MSDK/app\iperf.c **** 
 601:C:/Users/stapi/OneDrive/Desktop/GD32VW553/GD32VW55X_Wifi_BLE_SDK/GD32VW55x_RELEASE_V1.0.2/MSDK/app\iperf.c ****             arg_cnt += 2;
 602:C:/Users/stapi/OneDrive/Desktop/GD32VW553/GD32VW55X_Wifi_BLE_SDK/GD32VW55x_RELEASE_V1.0.2/MSDK/app\iperf.c ****         } else if (strncmp(argv[1], "stop", 4) == 0) {
 603:C:/Users/stapi/OneDrive/Desktop/GD32VW553/GD32VW55X_Wifi_BLE_SDK/GD32VW55x_RELEASE_V1.0.2/MSDK/app\iperf.c ****             iperf_stop_all();
 604:C:/Users/stapi/OneDrive/Desktop/GD32VW553/GD32VW55X_Wifi_BLE_SDK/GD32VW55x_RELEASE_V1.0.2/MSDK/app\iperf.c ****             return;
 605:C:/Users/stapi/OneDrive/Desktop/GD32VW553/GD32VW55X_Wifi_BLE_SDK/GD32VW55x_RELEASE_V1.0.2/MSDK/app\iperf.c ****         } else {
 606:C:/Users/stapi/OneDrive/Desktop/GD32VW553/GD32VW55X_Wifi_BLE_SDK/GD32VW55x_RELEASE_V1.0.2/MSDK/app\iperf.c ****             goto Exit;
 607:C:/Users/stapi/OneDrive/Desktop/GD32VW553/GD32VW55X_Wifi_BLE_SDK/GD32VW55x_RELEASE_V1.0.2/MSDK/app\iperf.c ****         }
 608:C:/Users/stapi/OneDrive/Desktop/GD32VW553/GD32VW55X_Wifi_BLE_SDK/GD32VW55x_RELEASE_V1.0.2/MSDK/app\iperf.c ****     }
 609:C:/Users/stapi/OneDrive/Desktop/GD32VW553/GD32VW55X_Wifi_BLE_SDK/GD32VW55x_RELEASE_V1.0.2/MSDK/app\iperf.c **** 
 610:C:/Users/stapi/OneDrive/Desktop/GD32VW553/GD32VW55X_Wifi_BLE_SDK/GD32VW55x_RELEASE_V1.0.2/MSDK/app\iperf.c ****     /* Parse other options */
 611:C:/Users/stapi/OneDrive/Desktop/GD32VW553/GD32VW55X_Wifi_BLE_SDK/GD32VW55x_RELEASE_V1.0.2/MSDK/app\iperf.c ****     while (arg_cnt < argc) {
 612:C:/Users/stapi/OneDrive/Desktop/GD32VW553/GD32VW55X_Wifi_BLE_SDK/GD32VW55x_RELEASE_V1.0.2/MSDK/app\iperf.c ****         /* Client/Server */
 613:C:/Users/stapi/OneDrive/Desktop/GD32VW553/GD32VW55X_Wifi_BLE_SDK/GD32VW55x_RELEASE_V1.0.2/MSDK/app\iperf.c ****         if (strncmp(argv[arg_cnt], "-i", 2) == 0) {
 614:C:/Users/stapi/OneDrive/Desktop/GD32VW553/GD32VW55X_Wifi_BLE_SDK/GD32VW55x_RELEASE_V1.0.2/MSDK/app\iperf.c ****             uint32_t intvl = 0;
 615:C:/Users/stapi/OneDrive/Desktop/GD32VW553/GD32VW55X_Wifi_BLE_SDK/GD32VW55x_RELEASE_V1.0.2/MSDK/app\iperf.c ****             if (argc <= (arg_cnt + 1))
 616:C:/Users/stapi/OneDrive/Desktop/GD32VW553/GD32VW55X_Wifi_BLE_SDK/GD32VW55x_RELEASE_V1.0.2/MSDK/app\iperf.c ****                 goto Exit;
 617:C:/Users/stapi/OneDrive/Desktop/GD32VW553/GD32VW55X_Wifi_BLE_SDK/GD32VW55x_RELEASE_V1.0.2/MSDK/app\iperf.c ****             intvl = (uint32_t)atoi(argv[arg_cnt + 1]);
 618:C:/Users/stapi/OneDrive/Desktop/GD32VW553/GD32VW55X_Wifi_BLE_SDK/GD32VW55x_RELEASE_V1.0.2/MSDK/app\iperf.c ****             if (intvl > 3600 * OS_TICK_RATE_HZ) {
 619:C:/Users/stapi/OneDrive/Desktop/GD32VW553/GD32VW55X_Wifi_BLE_SDK/GD32VW55x_RELEASE_V1.0.2/MSDK/app\iperf.c ****                 app_print("UDP WARNNING: Report interval is larger than 3600 seconds. Use 3600 seco
 620:C:/Users/stapi/OneDrive/Desktop/GD32VW553/GD32VW55X_Wifi_BLE_SDK/GD32VW55x_RELEASE_V1.0.2/MSDK/app\iperf.c ****                 intvl = 3600 * OS_TICK_RATE_HZ;
 621:C:/Users/stapi/OneDrive/Desktop/GD32VW553/GD32VW55X_Wifi_BLE_SDK/GD32VW55x_RELEASE_V1.0.2/MSDK/app\iperf.c ****             }
 622:C:/Users/stapi/OneDrive/Desktop/GD32VW553/GD32VW55X_Wifi_BLE_SDK/GD32VW55x_RELEASE_V1.0.2/MSDK/app\iperf.c ****             iperf_settings.interval.sec = intvl;
 623:C:/Users/stapi/OneDrive/Desktop/GD32VW553/GD32VW55X_Wifi_BLE_SDK/GD32VW55x_RELEASE_V1.0.2/MSDK/app\iperf.c ****             iperf_settings.interval.usec = 0;
 624:C:/Users/stapi/OneDrive/Desktop/GD32VW553/GD32VW55X_Wifi_BLE_SDK/GD32VW55x_RELEASE_V1.0.2/MSDK/app\iperf.c ****             iperf_settings.flags.show_int_stats = true;
 625:C:/Users/stapi/OneDrive/Desktop/GD32VW553/GD32VW55X_Wifi_BLE_SDK/GD32VW55x_RELEASE_V1.0.2/MSDK/app\iperf.c ****             arg_cnt += 2;
 626:C:/Users/stapi/OneDrive/Desktop/GD32VW553/GD32VW55X_Wifi_BLE_SDK/GD32VW55x_RELEASE_V1.0.2/MSDK/app\iperf.c ****         } else if (strncmp(argv[arg_cnt], "-l", 2) == 0) {
 627:C:/Users/stapi/OneDrive/Desktop/GD32VW553/GD32VW55X_Wifi_BLE_SDK/GD32VW55x_RELEASE_V1.0.2/MSDK/app\iperf.c ****             uint32_t len = 0;
 628:C:/Users/stapi/OneDrive/Desktop/GD32VW553/GD32VW55X_Wifi_BLE_SDK/GD32VW55x_RELEASE_V1.0.2/MSDK/app\iperf.c ****             uint32_t udp_min_size = sizeof(struct iperf_UDP_datagram);
 629:C:/Users/stapi/OneDrive/Desktop/GD32VW553/GD32VW55X_Wifi_BLE_SDK/GD32VW55x_RELEASE_V1.0.2/MSDK/app\iperf.c ****             if (argc <= (arg_cnt + 1))
 630:C:/Users/stapi/OneDrive/Desktop/GD32VW553/GD32VW55X_Wifi_BLE_SDK/GD32VW55x_RELEASE_V1.0.2/MSDK/app\iperf.c ****                 goto Exit;
 631:C:/Users/stapi/OneDrive/Desktop/GD32VW553/GD32VW55X_Wifi_BLE_SDK/GD32VW55x_RELEASE_V1.0.2/MSDK/app\iperf.c ****             len = (uint32_t)atoi(argv[arg_cnt + 1]);
 632:C:/Users/stapi/OneDrive/Desktop/GD32VW553/GD32VW55X_Wifi_BLE_SDK/GD32VW55x_RELEASE_V1.0.2/MSDK/app\iperf.c ****             if (len > 5000) {
 1822              		.loc 1 632 16 is_stmt 0
 1823 0058 056A     		li	s4,4096
 1824              	.LBE27:
 1825              	.LBB28:
 618:C:/Users/stapi/OneDrive/Desktop/GD32VW553/GD32VW55X_Wifi_BLE_SDK/GD32VW55x_RELEASE_V1.0.2/MSDK/app\iperf.c ****                 app_print("UDP WARNNING: Report interval is larger than 3600 seconds. Use 3600 seco
 1826              		.loc 1 618 16
 1827 005a B7FA3600 		li	s5,3600384
 1828              	.LBE28:
 613:C:/Users/stapi/OneDrive/Desktop/GD32VW553/GD32VW55X_Wifi_BLE_SDK/GD32VW55x_RELEASE_V1.0.2/MSDK/app\iperf.c ****             uint32_t intvl = 0;
 1829              		.loc 1 613 13
 1830 005e 370B0000 		lui	s6,%hi(.LC33)
 626:C:/Users/stapi/OneDrive/Desktop/GD32VW553/GD32VW55X_Wifi_BLE_SDK/GD32VW55x_RELEASE_V1.0.2/MSDK/app\iperf.c ****             uint32_t len = 0;
 1831              		.loc 1 626 20
 1832 0062 B70B0000 		lui	s7,%hi(.LC35)
 1833              	.LBB29:
 1834              		.loc 1 632 16
 1835 0066 130A8A38 		addi	s4,s4,904
 1836              	.LBE29:
 1837              	.LBB30:
 618:C:/Users/stapi/OneDrive/Desktop/GD32VW553/GD32VW55X_Wifi_BLE_SDK/GD32VW55x_RELEASE_V1.0.2/MSDK/app\iperf.c ****                 app_print("UDP WARNNING: Report interval is larger than 3600 seconds. Use 3600 seco
 1838              		.loc 1 618 16
 1839 006a 938A0AE8 		addi	s5,s5,-384
 1840              	.L125:
 1841              	.LVL162:
 1842              	.LBE30:
 611:C:/Users/stapi/OneDrive/Desktop/GD32VW553/GD32VW55X_Wifi_BLE_SDK/GD32VW55x_RELEASE_V1.0.2/MSDK/app\iperf.c ****         /* Client/Server */
 1843              		.loc 1 611 11 is_stmt 1
 1844 006e 63429408 		blt	s0,s1,.L156
 633:C:/Users/stapi/OneDrive/Desktop/GD32VW553/GD32VW55X_Wifi_BLE_SDK/GD32VW55x_RELEASE_V1.0.2/MSDK/app\iperf.c ****                 app_print("UDP WARNNING: To save memory, the buffer size is preferably less than 5K
 634:C:/Users/stapi/OneDrive/Desktop/GD32VW553/GD32VW55X_Wifi_BLE_SDK/GD32VW55x_RELEASE_V1.0.2/MSDK/app\iperf.c ****                 len = 5000;
 635:C:/Users/stapi/OneDrive/Desktop/GD32VW553/GD32VW55X_Wifi_BLE_SDK/GD32VW55x_RELEASE_V1.0.2/MSDK/app\iperf.c ****             }
 636:C:/Users/stapi/OneDrive/Desktop/GD32VW553/GD32VW55X_Wifi_BLE_SDK/GD32VW55x_RELEASE_V1.0.2/MSDK/app\iperf.c ****             if (len > 0) {
 637:C:/Users/stapi/OneDrive/Desktop/GD32VW553/GD32VW55X_Wifi_BLE_SDK/GD32VW55x_RELEASE_V1.0.2/MSDK/app\iperf.c ****                 iperf_settings.buf_len = len;
 638:C:/Users/stapi/OneDrive/Desktop/GD32VW553/GD32VW55X_Wifi_BLE_SDK/GD32VW55x_RELEASE_V1.0.2/MSDK/app\iperf.c ****                 iperf_settings.flags.is_buf_len_set = true;
 639:C:/Users/stapi/OneDrive/Desktop/GD32VW553/GD32VW55X_Wifi_BLE_SDK/GD32VW55x_RELEASE_V1.0.2/MSDK/app\iperf.c ****                 if (iperf_settings.flags.is_udp &&
 640:C:/Users/stapi/OneDrive/Desktop/GD32VW553/GD32VW55X_Wifi_BLE_SDK/GD32VW55x_RELEASE_V1.0.2/MSDK/app\iperf.c ****                     (iperf_settings.buf_len < udp_min_size)) {
 641:C:/Users/stapi/OneDrive/Desktop/GD32VW553/GD32VW55X_Wifi_BLE_SDK/GD32VW55x_RELEASE_V1.0.2/MSDK/app\iperf.c ****                     iperf_settings.buf_len = udp_min_size;
 642:C:/Users/stapi/OneDrive/Desktop/GD32VW553/GD32VW55X_Wifi_BLE_SDK/GD32VW55x_RELEASE_V1.0.2/MSDK/app\iperf.c ****                     app_print("UDP WARNNING: buffer length must be greater than or "
 643:C:/Users/stapi/OneDrive/Desktop/GD32VW553/GD32VW55X_Wifi_BLE_SDK/GD32VW55x_RELEASE_V1.0.2/MSDK/app\iperf.c ****                                 "equal to %d in UDP\n", udp_min_size);
 644:C:/Users/stapi/OneDrive/Desktop/GD32VW553/GD32VW55X_Wifi_BLE_SDK/GD32VW55x_RELEASE_V1.0.2/MSDK/app\iperf.c ****                 }
 645:C:/Users/stapi/OneDrive/Desktop/GD32VW553/GD32VW55X_Wifi_BLE_SDK/GD32VW55x_RELEASE_V1.0.2/MSDK/app\iperf.c ****             }
 646:C:/Users/stapi/OneDrive/Desktop/GD32VW553/GD32VW55X_Wifi_BLE_SDK/GD32VW55x_RELEASE_V1.0.2/MSDK/app\iperf.c ****             arg_cnt += 2;
 647:C:/Users/stapi/OneDrive/Desktop/GD32VW553/GD32VW55X_Wifi_BLE_SDK/GD32VW55x_RELEASE_V1.0.2/MSDK/app\iperf.c ****         } else if (strncmp(argv[arg_cnt], "-p", 2) == 0) {
 648:C:/Users/stapi/OneDrive/Desktop/GD32VW553/GD32VW55X_Wifi_BLE_SDK/GD32VW55x_RELEASE_V1.0.2/MSDK/app\iperf.c ****             if (argc <= (arg_cnt + 1))
 649:C:/Users/stapi/OneDrive/Desktop/GD32VW553/GD32VW55X_Wifi_BLE_SDK/GD32VW55x_RELEASE_V1.0.2/MSDK/app\iperf.c ****                 goto Exit;
 650:C:/Users/stapi/OneDrive/Desktop/GD32VW553/GD32VW55X_Wifi_BLE_SDK/GD32VW55x_RELEASE_V1.0.2/MSDK/app\iperf.c ****             iperf_settings.port = (uint16_t)atoi(argv[arg_cnt + 1]);
 651:C:/Users/stapi/OneDrive/Desktop/GD32VW553/GD32VW55X_Wifi_BLE_SDK/GD32VW55x_RELEASE_V1.0.2/MSDK/app\iperf.c ****             arg_cnt += 2;
 652:C:/Users/stapi/OneDrive/Desktop/GD32VW553/GD32VW55X_Wifi_BLE_SDK/GD32VW55x_RELEASE_V1.0.2/MSDK/app\iperf.c ****         /* Client Only */
 653:C:/Users/stapi/OneDrive/Desktop/GD32VW553/GD32VW55X_Wifi_BLE_SDK/GD32VW55x_RELEASE_V1.0.2/MSDK/app\iperf.c ****         } else if (strncmp(argv[arg_cnt], "-b", 2) == 0) {
 654:C:/Users/stapi/OneDrive/Desktop/GD32VW553/GD32VW55X_Wifi_BLE_SDK/GD32VW55x_RELEASE_V1.0.2/MSDK/app\iperf.c ****             if (argc <= (arg_cnt + 1))
 655:C:/Users/stapi/OneDrive/Desktop/GD32VW553/GD32VW55X_Wifi_BLE_SDK/GD32VW55x_RELEASE_V1.0.2/MSDK/app\iperf.c ****                 goto Exit;
 656:C:/Users/stapi/OneDrive/Desktop/GD32VW553/GD32VW55X_Wifi_BLE_SDK/GD32VW55x_RELEASE_V1.0.2/MSDK/app\iperf.c ****             if (iperf_settings.flags.is_server) {
 657:C:/Users/stapi/OneDrive/Desktop/GD32VW553/GD32VW55X_Wifi_BLE_SDK/GD32VW55x_RELEASE_V1.0.2/MSDK/app\iperf.c ****                 goto Exit;
 658:C:/Users/stapi/OneDrive/Desktop/GD32VW553/GD32VW55X_Wifi_BLE_SDK/GD32VW55x_RELEASE_V1.0.2/MSDK/app\iperf.c ****             } else {
 659:C:/Users/stapi/OneDrive/Desktop/GD32VW553/GD32VW55X_Wifi_BLE_SDK/GD32VW55x_RELEASE_V1.0.2/MSDK/app\iperf.c ****                 iperf_settings.udprate = byte_atoi(argv[arg_cnt + 1]);
 660:C:/Users/stapi/OneDrive/Desktop/GD32VW553/GD32VW55X_Wifi_BLE_SDK/GD32VW55x_RELEASE_V1.0.2/MSDK/app\iperf.c ****                 iperf_settings.flags.is_udp = true;
 661:C:/Users/stapi/OneDrive/Desktop/GD32VW553/GD32VW55X_Wifi_BLE_SDK/GD32VW55x_RELEASE_V1.0.2/MSDK/app\iperf.c ****                 iperf_settings.flags.is_bw_set = true;
 662:C:/Users/stapi/OneDrive/Desktop/GD32VW553/GD32VW55X_Wifi_BLE_SDK/GD32VW55x_RELEASE_V1.0.2/MSDK/app\iperf.c ****                 // if -l has already been processed, is_buf_len_set is true so don't
 663:C:/Users/stapi/OneDrive/Desktop/GD32VW553/GD32VW55X_Wifi_BLE_SDK/GD32VW55x_RELEASE_V1.0.2/MSDK/app\iperf.c ****                 // overwrite that value.
 664:C:/Users/stapi/OneDrive/Desktop/GD32VW553/GD32VW55X_Wifi_BLE_SDK/GD32VW55x_RELEASE_V1.0.2/MSDK/app\iperf.c ****                 if (!iperf_settings.flags.is_buf_len_set)
 665:C:/Users/stapi/OneDrive/Desktop/GD32VW553/GD32VW55X_Wifi_BLE_SDK/GD32VW55x_RELEASE_V1.0.2/MSDK/app\iperf.c ****                     iperf_settings.buf_len = IPERF_DEFAULT_UDPBUFLEN;
 666:C:/Users/stapi/OneDrive/Desktop/GD32VW553/GD32VW55X_Wifi_BLE_SDK/GD32VW55x_RELEASE_V1.0.2/MSDK/app\iperf.c ****             }
 667:C:/Users/stapi/OneDrive/Desktop/GD32VW553/GD32VW55X_Wifi_BLE_SDK/GD32VW55x_RELEASE_V1.0.2/MSDK/app\iperf.c ****             arg_cnt += 2;
 668:C:/Users/stapi/OneDrive/Desktop/GD32VW553/GD32VW55X_Wifi_BLE_SDK/GD32VW55x_RELEASE_V1.0.2/MSDK/app\iperf.c ****         } else if (strncmp(argv[arg_cnt], "-n", 2) == 0) {
 669:C:/Users/stapi/OneDrive/Desktop/GD32VW553/GD32VW55X_Wifi_BLE_SDK/GD32VW55x_RELEASE_V1.0.2/MSDK/app\iperf.c ****             if (argc <= (arg_cnt + 1))
 670:C:/Users/stapi/OneDrive/Desktop/GD32VW553/GD32VW55X_Wifi_BLE_SDK/GD32VW55x_RELEASE_V1.0.2/MSDK/app\iperf.c ****                 goto Exit;
 671:C:/Users/stapi/OneDrive/Desktop/GD32VW553/GD32VW55X_Wifi_BLE_SDK/GD32VW55x_RELEASE_V1.0.2/MSDK/app\iperf.c ****             if (iperf_settings.flags.is_server) {
 672:C:/Users/stapi/OneDrive/Desktop/GD32VW553/GD32VW55X_Wifi_BLE_SDK/GD32VW55x_RELEASE_V1.0.2/MSDK/app\iperf.c ****                 goto Exit;
 673:C:/Users/stapi/OneDrive/Desktop/GD32VW553/GD32VW55X_Wifi_BLE_SDK/GD32VW55x_RELEASE_V1.0.2/MSDK/app\iperf.c ****             } else {
 674:C:/Users/stapi/OneDrive/Desktop/GD32VW553/GD32VW55X_Wifi_BLE_SDK/GD32VW55x_RELEASE_V1.0.2/MSDK/app\iperf.c ****                 iperf_settings.flags.is_time_mode = false;
 675:C:/Users/stapi/OneDrive/Desktop/GD32VW553/GD32VW55X_Wifi_BLE_SDK/GD32VW55x_RELEASE_V1.0.2/MSDK/app\iperf.c ****                 iperf_settings.amount = byte_atoi(argv[arg_cnt + 1]);
 676:C:/Users/stapi/OneDrive/Desktop/GD32VW553/GD32VW55X_Wifi_BLE_SDK/GD32VW55x_RELEASE_V1.0.2/MSDK/app\iperf.c ****             }
 677:C:/Users/stapi/OneDrive/Desktop/GD32VW553/GD32VW55X_Wifi_BLE_SDK/GD32VW55x_RELEASE_V1.0.2/MSDK/app\iperf.c ****             arg_cnt += 2;
 678:C:/Users/stapi/OneDrive/Desktop/GD32VW553/GD32VW55X_Wifi_BLE_SDK/GD32VW55x_RELEASE_V1.0.2/MSDK/app\iperf.c ****         } else if (strncmp(argv[arg_cnt], "-t", 2) == 0) {
 679:C:/Users/stapi/OneDrive/Desktop/GD32VW553/GD32VW55X_Wifi_BLE_SDK/GD32VW55x_RELEASE_V1.0.2/MSDK/app\iperf.c ****             if (argc <= (arg_cnt + 1))
 680:C:/Users/stapi/OneDrive/Desktop/GD32VW553/GD32VW55X_Wifi_BLE_SDK/GD32VW55x_RELEASE_V1.0.2/MSDK/app\iperf.c ****                 goto Exit;
 681:C:/Users/stapi/OneDrive/Desktop/GD32VW553/GD32VW55X_Wifi_BLE_SDK/GD32VW55x_RELEASE_V1.0.2/MSDK/app\iperf.c ****             if (iperf_settings.flags.is_server) {
 682:C:/Users/stapi/OneDrive/Desktop/GD32VW553/GD32VW55X_Wifi_BLE_SDK/GD32VW55x_RELEASE_V1.0.2/MSDK/app\iperf.c ****                 goto Exit;
 683:C:/Users/stapi/OneDrive/Desktop/GD32VW553/GD32VW55X_Wifi_BLE_SDK/GD32VW55x_RELEASE_V1.0.2/MSDK/app\iperf.c ****             } else {
 684:C:/Users/stapi/OneDrive/Desktop/GD32VW553/GD32VW55X_Wifi_BLE_SDK/GD32VW55x_RELEASE_V1.0.2/MSDK/app\iperf.c ****                 iperf_settings.flags.is_time_mode = true;
 685:C:/Users/stapi/OneDrive/Desktop/GD32VW553/GD32VW55X_Wifi_BLE_SDK/GD32VW55x_RELEASE_V1.0.2/MSDK/app\iperf.c ****                 iperf_settings.amount = (uint32_t)atoi(argv[arg_cnt + 1]);
 686:C:/Users/stapi/OneDrive/Desktop/GD32VW553/GD32VW55X_Wifi_BLE_SDK/GD32VW55x_RELEASE_V1.0.2/MSDK/app\iperf.c ****             }
 687:C:/Users/stapi/OneDrive/Desktop/GD32VW553/GD32VW55X_Wifi_BLE_SDK/GD32VW55x_RELEASE_V1.0.2/MSDK/app\iperf.c ****             arg_cnt += 2;
 688:C:/Users/stapi/OneDrive/Desktop/GD32VW553/GD32VW55X_Wifi_BLE_SDK/GD32VW55x_RELEASE_V1.0.2/MSDK/app\iperf.c ****         } else if (strncmp(argv[arg_cnt], "-u", 2) == 0){
 689:C:/Users/stapi/OneDrive/Desktop/GD32VW553/GD32VW55X_Wifi_BLE_SDK/GD32VW55x_RELEASE_V1.0.2/MSDK/app\iperf.c ****             // if -b has already been processed, UDP rate will be non-zero, so don't
 690:C:/Users/stapi/OneDrive/Desktop/GD32VW553/GD32VW55X_Wifi_BLE_SDK/GD32VW55x_RELEASE_V1.0.2/MSDK/app\iperf.c ****             // overwrite that value
 691:C:/Users/stapi/OneDrive/Desktop/GD32VW553/GD32VW55X_Wifi_BLE_SDK/GD32VW55x_RELEASE_V1.0.2/MSDK/app\iperf.c ****             if (!iperf_settings.flags.is_udp)
 692:C:/Users/stapi/OneDrive/Desktop/GD32VW553/GD32VW55X_Wifi_BLE_SDK/GD32VW55x_RELEASE_V1.0.2/MSDK/app\iperf.c ****             {
 693:C:/Users/stapi/OneDrive/Desktop/GD32VW553/GD32VW55X_Wifi_BLE_SDK/GD32VW55x_RELEASE_V1.0.2/MSDK/app\iperf.c ****                 iperf_settings.flags.is_udp = true;
 694:C:/Users/stapi/OneDrive/Desktop/GD32VW553/GD32VW55X_Wifi_BLE_SDK/GD32VW55x_RELEASE_V1.0.2/MSDK/app\iperf.c ****                 iperf_settings.udprate = IPERF_DEFAULT_UDPRATE;
 695:C:/Users/stapi/OneDrive/Desktop/GD32VW553/GD32VW55X_Wifi_BLE_SDK/GD32VW55x_RELEASE_V1.0.2/MSDK/app\iperf.c ****             }
 696:C:/Users/stapi/OneDrive/Desktop/GD32VW553/GD32VW55X_Wifi_BLE_SDK/GD32VW55x_RELEASE_V1.0.2/MSDK/app\iperf.c **** 
 697:C:/Users/stapi/OneDrive/Desktop/GD32VW553/GD32VW55X_Wifi_BLE_SDK/GD32VW55x_RELEASE_V1.0.2/MSDK/app\iperf.c ****             // if -l has already been processed, is_buf_len_set is true, so don't
 698:C:/Users/stapi/OneDrive/Desktop/GD32VW553/GD32VW55X_Wifi_BLE_SDK/GD32VW55x_RELEASE_V1.0.2/MSDK/app\iperf.c ****             // overwrite that value.
 699:C:/Users/stapi/OneDrive/Desktop/GD32VW553/GD32VW55X_Wifi_BLE_SDK/GD32VW55x_RELEASE_V1.0.2/MSDK/app\iperf.c ****             if (!iperf_settings.flags.is_buf_len_set)
 700:C:/Users/stapi/OneDrive/Desktop/GD32VW553/GD32VW55X_Wifi_BLE_SDK/GD32VW55x_RELEASE_V1.0.2/MSDK/app\iperf.c ****             {
 701:C:/Users/stapi/OneDrive/Desktop/GD32VW553/GD32VW55X_Wifi_BLE_SDK/GD32VW55x_RELEASE_V1.0.2/MSDK/app\iperf.c ****                 iperf_settings.buf_len = IPERF_DEFAULT_UDPBUFLEN;
 702:C:/Users/stapi/OneDrive/Desktop/GD32VW553/GD32VW55X_Wifi_BLE_SDK/GD32VW55x_RELEASE_V1.0.2/MSDK/app\iperf.c ****             }
 703:C:/Users/stapi/OneDrive/Desktop/GD32VW553/GD32VW55X_Wifi_BLE_SDK/GD32VW55x_RELEASE_V1.0.2/MSDK/app\iperf.c ****             arg_cnt += 1;/* ignore -u option */
 704:C:/Users/stapi/OneDrive/Desktop/GD32VW553/GD32VW55X_Wifi_BLE_SDK/GD32VW55x_RELEASE_V1.0.2/MSDK/app\iperf.c ****         } else if (strncmp(argv[arg_cnt], "-S", 2) == 0){
 705:C:/Users/stapi/OneDrive/Desktop/GD32VW553/GD32VW55X_Wifi_BLE_SDK/GD32VW55x_RELEASE_V1.0.2/MSDK/app\iperf.c ****             if (argc <= (arg_cnt + 1))
 706:C:/Users/stapi/OneDrive/Desktop/GD32VW553/GD32VW55X_Wifi_BLE_SDK/GD32VW55x_RELEASE_V1.0.2/MSDK/app\iperf.c ****                 goto Exit;
 707:C:/Users/stapi/OneDrive/Desktop/GD32VW553/GD32VW55X_Wifi_BLE_SDK/GD32VW55x_RELEASE_V1.0.2/MSDK/app\iperf.c ****             if (iperf_settings.flags.is_server) {
 708:C:/Users/stapi/OneDrive/Desktop/GD32VW553/GD32VW55X_Wifi_BLE_SDK/GD32VW55x_RELEASE_V1.0.2/MSDK/app\iperf.c ****                 goto Exit;
 709:C:/Users/stapi/OneDrive/Desktop/GD32VW553/GD32VW55X_Wifi_BLE_SDK/GD32VW55x_RELEASE_V1.0.2/MSDK/app\iperf.c ****             } else {
 710:C:/Users/stapi/OneDrive/Desktop/GD32VW553/GD32VW55X_Wifi_BLE_SDK/GD32VW55x_RELEASE_V1.0.2/MSDK/app\iperf.c ****                 // the zero base allows the user to specify
 711:C:/Users/stapi/OneDrive/Desktop/GD32VW553/GD32VW55X_Wifi_BLE_SDK/GD32VW55x_RELEASE_V1.0.2/MSDK/app\iperf.c ****                 // hexadecimals: "0x#"
 712:C:/Users/stapi/OneDrive/Desktop/GD32VW553/GD32VW55X_Wifi_BLE_SDK/GD32VW55x_RELEASE_V1.0.2/MSDK/app\iperf.c ****                 // octals: "0#"
 713:C:/Users/stapi/OneDrive/Desktop/GD32VW553/GD32VW55X_Wifi_BLE_SDK/GD32VW55x_RELEASE_V1.0.2/MSDK/app\iperf.c ****                 // decimal numbers: "#"
 714:C:/Users/stapi/OneDrive/Desktop/GD32VW553/GD32VW55X_Wifi_BLE_SDK/GD32VW55x_RELEASE_V1.0.2/MSDK/app\iperf.c ****                 iperf_settings.tos = (uint8_t)strtoul(argv[arg_cnt + 1], &endptr, 0);
 715:C:/Users/stapi/OneDrive/Desktop/GD32VW553/GD32VW55X_Wifi_BLE_SDK/GD32VW55x_RELEASE_V1.0.2/MSDK/app\iperf.c ****                 if (*endptr != '\0') {
 716:C:/Users/stapi/OneDrive/Desktop/GD32VW553/GD32VW55X_Wifi_BLE_SDK/GD32VW55x_RELEASE_V1.0.2/MSDK/app\iperf.c ****                     app_print("iperf: invalid tos\r\n");
 717:C:/Users/stapi/OneDrive/Desktop/GD32VW553/GD32VW55X_Wifi_BLE_SDK/GD32VW55x_RELEASE_V1.0.2/MSDK/app\iperf.c ****                     goto Exit;
 718:C:/Users/stapi/OneDrive/Desktop/GD32VW553/GD32VW55X_Wifi_BLE_SDK/GD32VW55x_RELEASE_V1.0.2/MSDK/app\iperf.c ****                 }
 719:C:/Users/stapi/OneDrive/Desktop/GD32VW553/GD32VW55X_Wifi_BLE_SDK/GD32VW55x_RELEASE_V1.0.2/MSDK/app\iperf.c ****                 switch(iperf_settings.tos) {
 720:C:/Users/stapi/OneDrive/Desktop/GD32VW553/GD32VW55X_Wifi_BLE_SDK/GD32VW55x_RELEASE_V1.0.2/MSDK/app\iperf.c ****                     case 0x0:
 721:C:/Users/stapi/OneDrive/Desktop/GD32VW553/GD32VW55X_Wifi_BLE_SDK/GD32VW55x_RELEASE_V1.0.2/MSDK/app\iperf.c ****                     case 0x60:
 722:C:/Users/stapi/OneDrive/Desktop/GD32VW553/GD32VW55X_Wifi_BLE_SDK/GD32VW55x_RELEASE_V1.0.2/MSDK/app\iperf.c ****                         app_print("BE queue, tos 0x%x tid %d\r\n", iperf_settings.tos, (iperf_setti
 723:C:/Users/stapi/OneDrive/Desktop/GD32VW553/GD32VW55X_Wifi_BLE_SDK/GD32VW55x_RELEASE_V1.0.2/MSDK/app\iperf.c ****                         break;
 724:C:/Users/stapi/OneDrive/Desktop/GD32VW553/GD32VW55X_Wifi_BLE_SDK/GD32VW55x_RELEASE_V1.0.2/MSDK/app\iperf.c ****                     case 0x20:
 725:C:/Users/stapi/OneDrive/Desktop/GD32VW553/GD32VW55X_Wifi_BLE_SDK/GD32VW55x_RELEASE_V1.0.2/MSDK/app\iperf.c ****                     case 0x40:
 726:C:/Users/stapi/OneDrive/Desktop/GD32VW553/GD32VW55X_Wifi_BLE_SDK/GD32VW55x_RELEASE_V1.0.2/MSDK/app\iperf.c ****                         app_print("BK queue, tos 0x%x tid %d\r\n", iperf_settings.tos, (iperf_setti
 727:C:/Users/stapi/OneDrive/Desktop/GD32VW553/GD32VW55X_Wifi_BLE_SDK/GD32VW55x_RELEASE_V1.0.2/MSDK/app\iperf.c ****                         break;
 728:C:/Users/stapi/OneDrive/Desktop/GD32VW553/GD32VW55X_Wifi_BLE_SDK/GD32VW55x_RELEASE_V1.0.2/MSDK/app\iperf.c ****                     case 0x80:
 729:C:/Users/stapi/OneDrive/Desktop/GD32VW553/GD32VW55X_Wifi_BLE_SDK/GD32VW55x_RELEASE_V1.0.2/MSDK/app\iperf.c ****                     case 0xa0:
 730:C:/Users/stapi/OneDrive/Desktop/GD32VW553/GD32VW55X_Wifi_BLE_SDK/GD32VW55x_RELEASE_V1.0.2/MSDK/app\iperf.c ****                         app_print("VI queue, tos 0x%x tid %d\r\n", iperf_settings.tos, (iperf_setti
 731:C:/Users/stapi/OneDrive/Desktop/GD32VW553/GD32VW55X_Wifi_BLE_SDK/GD32VW55x_RELEASE_V1.0.2/MSDK/app\iperf.c ****                         break;
 732:C:/Users/stapi/OneDrive/Desktop/GD32VW553/GD32VW55X_Wifi_BLE_SDK/GD32VW55x_RELEASE_V1.0.2/MSDK/app\iperf.c ****                     case 0xc0:
 733:C:/Users/stapi/OneDrive/Desktop/GD32VW553/GD32VW55X_Wifi_BLE_SDK/GD32VW55x_RELEASE_V1.0.2/MSDK/app\iperf.c ****                     case 0xe0:
 734:C:/Users/stapi/OneDrive/Desktop/GD32VW553/GD32VW55X_Wifi_BLE_SDK/GD32VW55x_RELEASE_V1.0.2/MSDK/app\iperf.c ****                         app_print("VO queue, tos 0x%x tid %d\r\n", iperf_settings.tos, (iperf_setti
 735:C:/Users/stapi/OneDrive/Desktop/GD32VW553/GD32VW55X_Wifi_BLE_SDK/GD32VW55x_RELEASE_V1.0.2/MSDK/app\iperf.c ****                         break;
 736:C:/Users/stapi/OneDrive/Desktop/GD32VW553/GD32VW55X_Wifi_BLE_SDK/GD32VW55x_RELEASE_V1.0.2/MSDK/app\iperf.c ****                     default:
 737:C:/Users/stapi/OneDrive/Desktop/GD32VW553/GD32VW55X_Wifi_BLE_SDK/GD32VW55x_RELEASE_V1.0.2/MSDK/app\iperf.c ****                         app_print("Unkonwn tos. Please enter 0, 0x20, 0x40, 0x60, 0x80, 0xa0, 0xc0 
 738:C:/Users/stapi/OneDrive/Desktop/GD32VW553/GD32VW55X_Wifi_BLE_SDK/GD32VW55x_RELEASE_V1.0.2/MSDK/app\iperf.c ****                         break;
 739:C:/Users/stapi/OneDrive/Desktop/GD32VW553/GD32VW55X_Wifi_BLE_SDK/GD32VW55x_RELEASE_V1.0.2/MSDK/app\iperf.c ****                 }
 740:C:/Users/stapi/OneDrive/Desktop/GD32VW553/GD32VW55X_Wifi_BLE_SDK/GD32VW55x_RELEASE_V1.0.2/MSDK/app\iperf.c ****             }
 741:C:/Users/stapi/OneDrive/Desktop/GD32VW553/GD32VW55X_Wifi_BLE_SDK/GD32VW55x_RELEASE_V1.0.2/MSDK/app\iperf.c ****             arg_cnt += 2;
 742:C:/Users/stapi/OneDrive/Desktop/GD32VW553/GD32VW55X_Wifi_BLE_SDK/GD32VW55x_RELEASE_V1.0.2/MSDK/app\iperf.c **** #if 0
 743:C:/Users/stapi/OneDrive/Desktop/GD32VW553/GD32VW55X_Wifi_BLE_SDK/GD32VW55x_RELEASE_V1.0.2/MSDK/app\iperf.c ****         } else if (strncmp(argv[arg_cnt], "-T", 2) == 0) {
 744:C:/Users/stapi/OneDrive/Desktop/GD32VW553/GD32VW55X_Wifi_BLE_SDK/GD32VW55x_RELEASE_V1.0.2/MSDK/app\iperf.c ****             if (argc <= (arg_cnt + 1))
 745:C:/Users/stapi/OneDrive/Desktop/GD32VW553/GD32VW55X_Wifi_BLE_SDK/GD32VW55x_RELEASE_V1.0.2/MSDK/app\iperf.c ****                 goto Usage;
 746:C:/Users/stapi/OneDrive/Desktop/GD32VW553/GD32VW55X_Wifi_BLE_SDK/GD32VW55x_RELEASE_V1.0.2/MSDK/app\iperf.c ****             iperf_settings.ttl = (uint32_t)atoi(argv[arg_cnt + 1]);
 747:C:/Users/stapi/OneDrive/Desktop/GD32VW553/GD32VW55X_Wifi_BLE_SDK/GD32VW55x_RELEASE_V1.0.2/MSDK/app\iperf.c ****             arg_cnt += 2;
 748:C:/Users/stapi/OneDrive/Desktop/GD32VW553/GD32VW55X_Wifi_BLE_SDK/GD32VW55x_RELEASE_V1.0.2/MSDK/app\iperf.c ****         } else if (strncmp(argv[arg_cnt], "-f", 2) == 0) {
 749:C:/Users/stapi/OneDrive/Desktop/GD32VW553/GD32VW55X_Wifi_BLE_SDK/GD32VW55x_RELEASE_V1.0.2/MSDK/app\iperf.c ****             if (argc <= (arg_cnt + 1))
 750:C:/Users/stapi/OneDrive/Desktop/GD32VW553/GD32VW55X_Wifi_BLE_SDK/GD32VW55x_RELEASE_V1.0.2/MSDK/app\iperf.c ****                 goto Usage;
 751:C:/Users/stapi/OneDrive/Desktop/GD32VW553/GD32VW55X_Wifi_BLE_SDK/GD32VW55x_RELEASE_V1.0.2/MSDK/app\iperf.c ****             iperf_settings.format = *(argv[arg_cnt + 1]);
 752:C:/Users/stapi/OneDrive/Desktop/GD32VW553/GD32VW55X_Wifi_BLE_SDK/GD32VW55x_RELEASE_V1.0.2/MSDK/app\iperf.c ****             arg_cnt += 2;
 753:C:/Users/stapi/OneDrive/Desktop/GD32VW553/GD32VW55X_Wifi_BLE_SDK/GD32VW55x_RELEASE_V1.0.2/MSDK/app\iperf.c ****         } else if (strncmp(argv[arg_cnt], "-X", 2) == 0) {
 754:C:/Users/stapi/OneDrive/Desktop/GD32VW553/GD32VW55X_Wifi_BLE_SDK/GD32VW55x_RELEASE_V1.0.2/MSDK/app\iperf.c ****             iperf_settings.flags.is_peer_ver = true;
 755:C:/Users/stapi/OneDrive/Desktop/GD32VW553/GD32VW55X_Wifi_BLE_SDK/GD32VW55x_RELEASE_V1.0.2/MSDK/app\iperf.c ****             arg_cnt += 1;
 756:C:/Users/stapi/OneDrive/Desktop/GD32VW553/GD32VW55X_Wifi_BLE_SDK/GD32VW55x_RELEASE_V1.0.2/MSDK/app\iperf.c **** #endif
 757:C:/Users/stapi/OneDrive/Desktop/GD32VW553/GD32VW55X_Wifi_BLE_SDK/GD32VW55x_RELEASE_V1.0.2/MSDK/app\iperf.c ****         } else {
 758:C:/Users/stapi/OneDrive/Desktop/GD32VW553/GD32VW55X_Wifi_BLE_SDK/GD32VW55x_RELEASE_V1.0.2/MSDK/app\iperf.c ****             goto Exit;
 759:C:/Users/stapi/OneDrive/Desktop/GD32VW553/GD32VW55X_Wifi_BLE_SDK/GD32VW55x_RELEASE_V1.0.2/MSDK/app\iperf.c ****         }
 760:C:/Users/stapi/OneDrive/Desktop/GD32VW553/GD32VW55X_Wifi_BLE_SDK/GD32VW55x_RELEASE_V1.0.2/MSDK/app\iperf.c ****     }
 761:C:/Users/stapi/OneDrive/Desktop/GD32VW553/GD32VW55X_Wifi_BLE_SDK/GD32VW55x_RELEASE_V1.0.2/MSDK/app\iperf.c **** 
 762:C:/Users/stapi/OneDrive/Desktop/GD32VW553/GD32VW55X_Wifi_BLE_SDK/GD32VW55x_RELEASE_V1.0.2/MSDK/app\iperf.c ****     if (!client_server_set)
 1845              		.loc 1 762 5
 763:C:/Users/stapi/OneDrive/Desktop/GD32VW553/GD32VW55X_Wifi_BLE_SDK/GD32VW55x_RELEASE_V1.0.2/MSDK/app\iperf.c ****         goto Exit;
 764:C:/Users/stapi/OneDrive/Desktop/GD32VW553/GD32VW55X_Wifi_BLE_SDK/GD32VW55x_RELEASE_V1.0.2/MSDK/app\iperf.c **** 
 765:C:/Users/stapi/OneDrive/Desktop/GD32VW553/GD32VW55X_Wifi_BLE_SDK/GD32VW55x_RELEASE_V1.0.2/MSDK/app\iperf.c ****     iperf_start(&iperf_settings);
 1846              		.loc 1 765 5
 1847 0072 2800     		addi	a0,sp,8
 1848 0074 97000000 		call	iperf_start
 1848      E7800000 
 1849              	.LVL163:
 766:C:/Users/stapi/OneDrive/Desktop/GD32VW553/GD32VW55X_Wifi_BLE_SDK/GD32VW55x_RELEASE_V1.0.2/MSDK/app\iperf.c **** 
 767:C:/Users/stapi/OneDrive/Desktop/GD32VW553/GD32VW55X_Wifi_BLE_SDK/GD32VW55x_RELEASE_V1.0.2/MSDK/app\iperf.c ****     return;
 1850              		.loc 1 767 5
 1851 007c B5A0     		j	.L122
 1852              	.LVL164:
 1853              	.L124:
 583:C:/Users/stapi/OneDrive/Desktop/GD32VW553/GD32VW55X_Wifi_BLE_SDK/GD32VW55x_RELEASE_V1.0.2/MSDK/app\iperf.c ****             app_print("\r\niperf: start client!\r\n");
 1854              		.loc 1 583 16
 583:C:/Users/stapi/OneDrive/Desktop/GD32VW553/GD32VW55X_Wifi_BLE_SDK/GD32VW55x_RELEASE_V1.0.2/MSDK/app\iperf.c ****             app_print("\r\niperf: start client!\r\n");
 1855              		.loc 1 583 20 is_stmt 0
 1856 007e B7050000 		lui	a1,%hi(.LC30)
 1857 0082 0946     		li	a2,2
 1858 0084 93850500 		addi	a1,a1,%lo(.LC30)
 1859 0088 2285     		mv	a0,s0
 1860 008a 97000000 		call	strncmp
 1860      E7800000 
 1861              	.LVL165:
 583:C:/Users/stapi/OneDrive/Desktop/GD32VW553/GD32VW55X_Wifi_BLE_SDK/GD32VW55x_RELEASE_V1.0.2/MSDK/app\iperf.c ****             app_print("\r\niperf: start client!\r\n");
 1862              		.loc 1 583 19
 1863 0092 1DE9     		bne	a0,zero,.L126
 584:C:/Users/stapi/OneDrive/Desktop/GD32VW553/GD32VW55X_Wifi_BLE_SDK/GD32VW55x_RELEASE_V1.0.2/MSDK/app\iperf.c ****             if (client_server_set)
 1864              		.loc 1 584 13 is_stmt 1
 1865 0094 37050000 		lui	a0,%hi(.LC31)
 1866 0098 13050500 		addi	a0,a0,%lo(.LC31)
 1867 009c 97000000 		call	co_printf
 1867      E7800000 
 1868              	.LVL166:
 585:C:/Users/stapi/OneDrive/Desktop/GD32VW553/GD32VW55X_Wifi_BLE_SDK/GD32VW55x_RELEASE_V1.0.2/MSDK/app\iperf.c ****                 goto Exit;
 1869              		.loc 1 585 13
 588:C:/Users/stapi/OneDrive/Desktop/GD32VW553/GD32VW55X_Wifi_BLE_SDK/GD32VW55x_RELEASE_V1.0.2/MSDK/app\iperf.c ****             client_server_set = true;
 1870              		.loc 1 588 13
 588:C:/Users/stapi/OneDrive/Desktop/GD32VW553/GD32VW55X_Wifi_BLE_SDK/GD32VW55x_RELEASE_V1.0.2/MSDK/app\iperf.c ****             client_server_set = true;
 1871              		.loc 1 588 44 is_stmt 0
 1872 00a4 83478103 		lbu	a5,56(sp)
 1873 00a8 BD9B     		andi	a5,a5,-17
 1874 00aa 230CF102 		sb	a5,56(sp)
 589:C:/Users/stapi/OneDrive/Desktop/GD32VW553/GD32VW55X_Wifi_BLE_SDK/GD32VW55x_RELEASE_V1.0.2/MSDK/app\iperf.c **** 
 1875              		.loc 1 589 13 is_stmt 1
 1876              	.LVL167:
 591:C:/Users/stapi/OneDrive/Desktop/GD32VW553/GD32VW55X_Wifi_BLE_SDK/GD32VW55x_RELEASE_V1.0.2/MSDK/app\iperf.c **** #ifdef CONFIG_IPV6_SUPPORT
 1877              		.loc 1 591 13
 591:C:/Users/stapi/OneDrive/Desktop/GD32VW553/GD32VW55X_Wifi_BLE_SDK/GD32VW55x_RELEASE_V1.0.2/MSDK/app\iperf.c **** #ifdef CONFIG_IPV6_SUPPORT
 1878              		.loc 1 591 16 is_stmt 0
 1879 00ae 8947     		li	a5,2
 1880 00b0 6384F42A 		beq	s1,a5,.L147
 596:C:/Users/stapi/OneDrive/Desktop/GD32VW553/GD32VW55X_Wifi_BLE_SDK/GD32VW55x_RELEASE_V1.0.2/MSDK/app\iperf.c **** #endif
 1881              		.loc 1 596 17 is_stmt 1
 1882 00b4 03A58900 		lw	a0,8(s3)
 1883 00b8 0146     		li	a2,0
 1884 00ba 2C00     		addi	a1,sp,8
 1885 00bc 97000000 		call	cli_parse_ip4
 1885      E7800000 
 1886              	.LVL168:
 601:C:/Users/stapi/OneDrive/Desktop/GD32VW553/GD32VW55X_Wifi_BLE_SDK/GD32VW55x_RELEASE_V1.0.2/MSDK/app\iperf.c ****         } else if (strncmp(argv[1], "stop", 4) == 0) {
 1887              		.loc 1 601 13
 601:C:/Users/stapi/OneDrive/Desktop/GD32VW553/GD32VW55X_Wifi_BLE_SDK/GD32VW55x_RELEASE_V1.0.2/MSDK/app\iperf.c ****         } else if (strncmp(argv[1], "stop", 4) == 0) {
 1888              		.loc 1 601 21 is_stmt 0
 1889 00c4 0D44     		li	s0,3
 1890 00c6 49BF     		j	.L128
 1891              	.LVL169:
 1892              	.L126:
 602:C:/Users/stapi/OneDrive/Desktop/GD32VW553/GD32VW55X_Wifi_BLE_SDK/GD32VW55x_RELEASE_V1.0.2/MSDK/app\iperf.c ****             iperf_stop_all();
 1893              		.loc 1 602 16 is_stmt 1
 602:C:/Users/stapi/OneDrive/Desktop/GD32VW553/GD32VW55X_Wifi_BLE_SDK/GD32VW55x_RELEASE_V1.0.2/MSDK/app\iperf.c ****             iperf_stop_all();
 1894              		.loc 1 602 20 is_stmt 0
 1895 00c8 B7050000 		lui	a1,%hi(.LC32)
 1896 00cc 1146     		li	a2,4
 1897 00ce 93850500 		addi	a1,a1,%lo(.LC32)
 1898 00d2 2285     		mv	a0,s0
 1899 00d4 97000000 		call	strncmp
 1899      E7800000 
 1900              	.LVL170:
 602:C:/Users/stapi/OneDrive/Desktop/GD32VW553/GD32VW55X_Wifi_BLE_SDK/GD32VW55x_RELEASE_V1.0.2/MSDK/app\iperf.c ****             iperf_stop_all();
 1901              		.loc 1 602 19
 1902 00dc 631E0526 		bne	a0,zero,.L147
 603:C:/Users/stapi/OneDrive/Desktop/GD32VW553/GD32VW55X_Wifi_BLE_SDK/GD32VW55x_RELEASE_V1.0.2/MSDK/app\iperf.c ****             return;
 1903              		.loc 1 603 13 is_stmt 1
 1904 00e0 97000000 		call	iperf_stop_all
 1904      E7800000 
 1905              	.LVL171:
 604:C:/Users/stapi/OneDrive/Desktop/GD32VW553/GD32VW55X_Wifi_BLE_SDK/GD32VW55x_RELEASE_V1.0.2/MSDK/app\iperf.c ****         } else {
 1906              		.loc 1 604 13
 1907              	.L122:
 768:C:/Users/stapi/OneDrive/Desktop/GD32VW553/GD32VW55X_Wifi_BLE_SDK/GD32VW55x_RELEASE_V1.0.2/MSDK/app\iperf.c **** 
 769:C:/Users/stapi/OneDrive/Desktop/GD32VW553/GD32VW55X_Wifi_BLE_SDK/GD32VW55x_RELEASE_V1.0.2/MSDK/app\iperf.c **** Exit:
 770:C:/Users/stapi/OneDrive/Desktop/GD32VW553/GD32VW55X_Wifi_BLE_SDK/GD32VW55x_RELEASE_V1.0.2/MSDK/app\iperf.c ****     app_print("\r\nIperf: command format error!\r\n");
 771:C:/Users/stapi/OneDrive/Desktop/GD32VW553/GD32VW55X_Wifi_BLE_SDK/GD32VW55x_RELEASE_V1.0.2/MSDK/app\iperf.c **** Usage:
 772:C:/Users/stapi/OneDrive/Desktop/GD32VW553/GD32VW55X_Wifi_BLE_SDK/GD32VW55x_RELEASE_V1.0.2/MSDK/app\iperf.c ****     app_print("\rUsage:\r\n");
 773:C:/Users/stapi/OneDrive/Desktop/GD32VW553/GD32VW55X_Wifi_BLE_SDK/GD32VW55x_RELEASE_V1.0.2/MSDK/app\iperf.c ****     app_print("    iperf <-s|-c hostip|stop|-h> [options]\r\n");
 774:C:/Users/stapi/OneDrive/Desktop/GD32VW553/GD32VW55X_Wifi_BLE_SDK/GD32VW55x_RELEASE_V1.0.2/MSDK/app\iperf.c ****     app_print("\rClient/Server:\r\n");
 775:C:/Users/stapi/OneDrive/Desktop/GD32VW553/GD32VW55X_Wifi_BLE_SDK/GD32VW55x_RELEASE_V1.0.2/MSDK/app\iperf.c ****     app_print("    -u #      use UDP rather than TCP\r\n");
 776:C:/Users/stapi/OneDrive/Desktop/GD32VW553/GD32VW55X_Wifi_BLE_SDK/GD32VW55x_RELEASE_V1.0.2/MSDK/app\iperf.c ****     app_print("    -i #      seconds between periodic bandwidth reports\r\n");
 777:C:/Users/stapi/OneDrive/Desktop/GD32VW553/GD32VW55X_Wifi_BLE_SDK/GD32VW55x_RELEASE_V1.0.2/MSDK/app\iperf.c ****     app_print("    -l #      length of buffer to read or write (default 1460 Bytes)\r\n");
 778:C:/Users/stapi/OneDrive/Desktop/GD32VW553/GD32VW55X_Wifi_BLE_SDK/GD32VW55x_RELEASE_V1.0.2/MSDK/app\iperf.c ****     app_print("    -p #      server port to listen on/connect to (default 5001)\r\n");
 779:C:/Users/stapi/OneDrive/Desktop/GD32VW553/GD32VW55X_Wifi_BLE_SDK/GD32VW55x_RELEASE_V1.0.2/MSDK/app\iperf.c ****     app_print("\rServer specific:\r\n");
 780:C:/Users/stapi/OneDrive/Desktop/GD32VW553/GD32VW55X_Wifi_BLE_SDK/GD32VW55x_RELEASE_V1.0.2/MSDK/app\iperf.c ****     app_print("    -s        run in server mode\r\n");
 781:C:/Users/stapi/OneDrive/Desktop/GD32VW553/GD32VW55X_Wifi_BLE_SDK/GD32VW55x_RELEASE_V1.0.2/MSDK/app\iperf.c ****     app_print("\rClient specific:\r\n");
 782:C:/Users/stapi/OneDrive/Desktop/GD32VW553/GD32VW55X_Wifi_BLE_SDK/GD32VW55x_RELEASE_V1.0.2/MSDK/app\iperf.c ****     app_print("    -b #      bandwidth to send at in bits/sec (default 1 Mbit/sec, implies -u)\r\n"
 783:C:/Users/stapi/OneDrive/Desktop/GD32VW553/GD32VW55X_Wifi_BLE_SDK/GD32VW55x_RELEASE_V1.0.2/MSDK/app\iperf.c ****     app_print("    -S #      set the IP 'type of service'\r\n");
 784:C:/Users/stapi/OneDrive/Desktop/GD32VW553/GD32VW55X_Wifi_BLE_SDK/GD32VW55x_RELEASE_V1.0.2/MSDK/app\iperf.c ****     app_print("    -c <host> run in client mode, connecting to <host>\r\n");
 785:C:/Users/stapi/OneDrive/Desktop/GD32VW553/GD32VW55X_Wifi_BLE_SDK/GD32VW55x_RELEASE_V1.0.2/MSDK/app\iperf.c ****     app_print("    -t #      time in seconds to transmit for (default 10 secs)\r\n");
 786:C:/Users/stapi/OneDrive/Desktop/GD32VW553/GD32VW55X_Wifi_BLE_SDK/GD32VW55x_RELEASE_V1.0.2/MSDK/app\iperf.c **** }
 1908              		.loc 1 786 1 is_stmt 0
 1909 00e8 2161     		addi	sp,sp,64
 1910              		.cfi_remember_state
 1911              		.cfi_def_cfa_offset 0
 1912 00ea 17030000 		tail	__riscv_restore_9
 1912      67000300 
 1913              		.cfi_restore 24
 1914              		.cfi_restore 23
 1915              		.cfi_restore 22
 1916              		.cfi_restore 21
 1917              		.cfi_restore 20
 1918              		.cfi_restore 19
 1919              		.cfi_restore 18
 1920              		.cfi_restore 9
 1921              		.cfi_restore 8
 1922              		.cfi_restore 1
 1923              		.cfi_def_cfa_offset -48
 1924              	.LVL172:
 1925              	.L156:
 1926              		.cfi_restore_state
 613:C:/Users/stapi/OneDrive/Desktop/GD32VW553/GD32VW55X_Wifi_BLE_SDK/GD32VW55x_RELEASE_V1.0.2/MSDK/app\iperf.c ****             uint32_t intvl = 0;
 1927              		.loc 1 613 9 is_stmt 1
 613:C:/Users/stapi/OneDrive/Desktop/GD32VW553/GD32VW55X_Wifi_BLE_SDK/GD32VW55x_RELEASE_V1.0.2/MSDK/app\iperf.c ****             uint32_t intvl = 0;
 1928              		.loc 1 613 13 is_stmt 0
 1929 00f2 33493421 		sh2add	s2,s0,s3
 1930 00f6 032C0900 		lw	s8,0(s2)
 1931 00fa 0946     		li	a2,2
 1932 00fc 93050B00 		addi	a1,s6,%lo(.LC33)
 1933 0100 6285     		mv	a0,s8
 1934 0102 97000000 		call	strncmp
 1934      E7800000 
 1935              	.LVL173:
 613:C:/Users/stapi/OneDrive/Desktop/GD32VW553/GD32VW55X_Wifi_BLE_SDK/GD32VW55x_RELEASE_V1.0.2/MSDK/app\iperf.c ****             uint32_t intvl = 0;
 1936              		.loc 1 613 12
 1937 010a 21E1     		bne	a0,zero,.L130
 1938              	.LBB31:
 614:C:/Users/stapi/OneDrive/Desktop/GD32VW553/GD32VW55X_Wifi_BLE_SDK/GD32VW55x_RELEASE_V1.0.2/MSDK/app\iperf.c ****             if (argc <= (arg_cnt + 1))
 1939              		.loc 1 614 13 is_stmt 1
 1940              	.LVL174:
 615:C:/Users/stapi/OneDrive/Desktop/GD32VW553/GD32VW55X_Wifi_BLE_SDK/GD32VW55x_RELEASE_V1.0.2/MSDK/app\iperf.c ****                 goto Exit;
 1941              		.loc 1 615 13
 615:C:/Users/stapi/OneDrive/Desktop/GD32VW553/GD32VW55X_Wifi_BLE_SDK/GD32VW55x_RELEASE_V1.0.2/MSDK/app\iperf.c ****                 goto Exit;
 1942              		.loc 1 615 34 is_stmt 0
 1943 010c 93071400 		addi	a5,s0,1
 615:C:/Users/stapi/OneDrive/Desktop/GD32VW553/GD32VW55X_Wifi_BLE_SDK/GD32VW55x_RELEASE_V1.0.2/MSDK/app\iperf.c ****                 goto Exit;
 1944              		.loc 1 615 16
 1945 0110 63D49724 		bge	a5,s1,.L147
 617:C:/Users/stapi/OneDrive/Desktop/GD32VW553/GD32VW55X_Wifi_BLE_SDK/GD32VW55x_RELEASE_V1.0.2/MSDK/app\iperf.c ****             if (intvl > 3600 * OS_TICK_RATE_HZ) {
 1946              		.loc 1 617 13 is_stmt 1
 617:C:/Users/stapi/OneDrive/Desktop/GD32VW553/GD32VW55X_Wifi_BLE_SDK/GD32VW55x_RELEASE_V1.0.2/MSDK/app\iperf.c ****             if (intvl > 3600 * OS_TICK_RATE_HZ) {
 1947              		.loc 1 617 31 is_stmt 0
 1948 0114 03254900 		lw	a0,4(s2)
 1949 0118 97000000 		call	atoi
 1949      E7800000 
 1950              	.LVL175:
 618:C:/Users/stapi/OneDrive/Desktop/GD32VW553/GD32VW55X_Wifi_BLE_SDK/GD32VW55x_RELEASE_V1.0.2/MSDK/app\iperf.c ****                 app_print("UDP WARNNING: Report interval is larger than 3600 seconds. Use 3600 seco
 1951              		.loc 1 618 13 is_stmt 1
 618:C:/Users/stapi/OneDrive/Desktop/GD32VW553/GD32VW55X_Wifi_BLE_SDK/GD32VW55x_RELEASE_V1.0.2/MSDK/app\iperf.c ****                 app_print("UDP WARNNING: Report interval is larger than 3600 seconds. Use 3600 seco
 1952              		.loc 1 618 16 is_stmt 0
 1953 0120 63FBAA00 		bleu	a0,s5,.L131
 619:C:/Users/stapi/OneDrive/Desktop/GD32VW553/GD32VW55X_Wifi_BLE_SDK/GD32VW55x_RELEASE_V1.0.2/MSDK/app\iperf.c ****                 intvl = 3600 * OS_TICK_RATE_HZ;
 1954              		.loc 1 619 17 is_stmt 1
 1955 0124 37050000 		lui	a0,%hi(.LC34)
 1956              	.LVL176:
 1957 0128 13050500 		addi	a0,a0,%lo(.LC34)
 1958 012c 97000000 		call	co_printf
 1958      E7800000 
 1959              	.LVL177:
 620:C:/Users/stapi/OneDrive/Desktop/GD32VW553/GD32VW55X_Wifi_BLE_SDK/GD32VW55x_RELEASE_V1.0.2/MSDK/app\iperf.c ****             }
 1960              		.loc 1 620 17
 620:C:/Users/stapi/OneDrive/Desktop/GD32VW553/GD32VW55X_Wifi_BLE_SDK/GD32VW55x_RELEASE_V1.0.2/MSDK/app\iperf.c ****             }
 1961              		.loc 1 620 23 is_stmt 0
 1962 0134 5685     		mv	a0,s5
 1963              	.LVL178:
 1964              	.L131:
 622:C:/Users/stapi/OneDrive/Desktop/GD32VW553/GD32VW55X_Wifi_BLE_SDK/GD32VW55x_RELEASE_V1.0.2/MSDK/app\iperf.c ****             iperf_settings.interval.usec = 0;
 1965              		.loc 1 622 13 is_stmt 1
 624:C:/Users/stapi/OneDrive/Desktop/GD32VW553/GD32VW55X_Wifi_BLE_SDK/GD32VW55x_RELEASE_V1.0.2/MSDK/app\iperf.c ****             arg_cnt += 2;
 1966              		.loc 1 624 49 is_stmt 0
 1967 0136 83478103 		lbu	a5,56(sp)
 622:C:/Users/stapi/OneDrive/Desktop/GD32VW553/GD32VW55X_Wifi_BLE_SDK/GD32VW55x_RELEASE_V1.0.2/MSDK/app\iperf.c ****             iperf_settings.interval.usec = 0;
 1968              		.loc 1 622 41
 1969 013a 2AD8     		sw	a0,48(sp)
 623:C:/Users/stapi/OneDrive/Desktop/GD32VW553/GD32VW55X_Wifi_BLE_SDK/GD32VW55x_RELEASE_V1.0.2/MSDK/app\iperf.c ****             iperf_settings.flags.show_int_stats = true;
 1970              		.loc 1 623 13 is_stmt 1
 623:C:/Users/stapi/OneDrive/Desktop/GD32VW553/GD32VW55X_Wifi_BLE_SDK/GD32VW55x_RELEASE_V1.0.2/MSDK/app\iperf.c ****             iperf_settings.flags.show_int_stats = true;
 1971              		.loc 1 623 42 is_stmt 0
 1972 013c 02DA     		sw	zero,52(sp)
 624:C:/Users/stapi/OneDrive/Desktop/GD32VW553/GD32VW55X_Wifi_BLE_SDK/GD32VW55x_RELEASE_V1.0.2/MSDK/app\iperf.c ****             arg_cnt += 2;
 1973              		.loc 1 624 13 is_stmt 1
 624:C:/Users/stapi/OneDrive/Desktop/GD32VW553/GD32VW55X_Wifi_BLE_SDK/GD32VW55x_RELEASE_V1.0.2/MSDK/app\iperf.c ****             arg_cnt += 2;
 1974              		.loc 1 624 49 is_stmt 0
 1975 013e 93E70704 		ori	a5,a5,64
 1976 0142 230CF102 		sb	a5,56(sp)
 625:C:/Users/stapi/OneDrive/Desktop/GD32VW553/GD32VW55X_Wifi_BLE_SDK/GD32VW55x_RELEASE_V1.0.2/MSDK/app\iperf.c ****         } else if (strncmp(argv[arg_cnt], "-l", 2) == 0) {
 1977              		.loc 1 625 13 is_stmt 1
 1978              	.LVL179:
 1979              	.L155:
 1980              	.LBE31:
 741:C:/Users/stapi/OneDrive/Desktop/GD32VW553/GD32VW55X_Wifi_BLE_SDK/GD32VW55x_RELEASE_V1.0.2/MSDK/app\iperf.c **** #if 0
 1981              		.loc 1 741 13
 741:C:/Users/stapi/OneDrive/Desktop/GD32VW553/GD32VW55X_Wifi_BLE_SDK/GD32VW55x_RELEASE_V1.0.2/MSDK/app\iperf.c **** #if 0
 1982              		.loc 1 741 21 is_stmt 0
 1983 0146 0904     		addi	s0,s0,2
 1984              	.LVL180:
 1985 0148 1DB7     		j	.L125
 1986              	.L130:
 626:C:/Users/stapi/OneDrive/Desktop/GD32VW553/GD32VW55X_Wifi_BLE_SDK/GD32VW55x_RELEASE_V1.0.2/MSDK/app\iperf.c ****             uint32_t len = 0;
 1987              		.loc 1 626 16 is_stmt 1
 626:C:/Users/stapi/OneDrive/Desktop/GD32VW553/GD32VW55X_Wifi_BLE_SDK/GD32VW55x_RELEASE_V1.0.2/MSDK/app\iperf.c ****             uint32_t len = 0;
 1988              		.loc 1 626 20 is_stmt 0
 1989 014a 0946     		li	a2,2
 1990 014c 93850B00 		addi	a1,s7,%lo(.LC35)
 1991 0150 6285     		mv	a0,s8
 1992 0152 97000000 		call	strncmp
 1992      E7800000 
 1993              	.LVL181:
 626:C:/Users/stapi/OneDrive/Desktop/GD32VW553/GD32VW55X_Wifi_BLE_SDK/GD32VW55x_RELEASE_V1.0.2/MSDK/app\iperf.c ****             uint32_t len = 0;
 1994              		.loc 1 626 19
 1995 015a 25E1     		bne	a0,zero,.L133
 1996              	.LBB32:
 627:C:/Users/stapi/OneDrive/Desktop/GD32VW553/GD32VW55X_Wifi_BLE_SDK/GD32VW55x_RELEASE_V1.0.2/MSDK/app\iperf.c ****             uint32_t udp_min_size = sizeof(struct iperf_UDP_datagram);
 1997              		.loc 1 627 13 is_stmt 1
 1998              	.LVL182:
 628:C:/Users/stapi/OneDrive/Desktop/GD32VW553/GD32VW55X_Wifi_BLE_SDK/GD32VW55x_RELEASE_V1.0.2/MSDK/app\iperf.c ****             if (argc <= (arg_cnt + 1))
 1999              		.loc 1 628 13
 629:C:/Users/stapi/OneDrive/Desktop/GD32VW553/GD32VW55X_Wifi_BLE_SDK/GD32VW55x_RELEASE_V1.0.2/MSDK/app\iperf.c ****                 goto Exit;
 2000              		.loc 1 629 13
 629:C:/Users/stapi/OneDrive/Desktop/GD32VW553/GD32VW55X_Wifi_BLE_SDK/GD32VW55x_RELEASE_V1.0.2/MSDK/app\iperf.c ****                 goto Exit;
 2001              		.loc 1 629 34 is_stmt 0
 2002 015c 93071400 		addi	a5,s0,1
 629:C:/Users/stapi/OneDrive/Desktop/GD32VW553/GD32VW55X_Wifi_BLE_SDK/GD32VW55x_RELEASE_V1.0.2/MSDK/app\iperf.c ****                 goto Exit;
 2003              		.loc 1 629 16
 2004 0160 63DC971E 		bge	a5,s1,.L147
 631:C:/Users/stapi/OneDrive/Desktop/GD32VW553/GD32VW55X_Wifi_BLE_SDK/GD32VW55x_RELEASE_V1.0.2/MSDK/app\iperf.c ****             if (len > 5000) {
 2005              		.loc 1 631 13 is_stmt 1
 631:C:/Users/stapi/OneDrive/Desktop/GD32VW553/GD32VW55X_Wifi_BLE_SDK/GD32VW55x_RELEASE_V1.0.2/MSDK/app\iperf.c ****             if (len > 5000) {
 2006              		.loc 1 631 29 is_stmt 0
 2007 0164 03254900 		lw	a0,4(s2)
 2008 0168 97000000 		call	atoi
 2008      E7800000 
 2009              	.LVL183:
 632:C:/Users/stapi/OneDrive/Desktop/GD32VW553/GD32VW55X_Wifi_BLE_SDK/GD32VW55x_RELEASE_V1.0.2/MSDK/app\iperf.c ****                 app_print("UDP WARNNING: To save memory, the buffer size is preferably less than 5K
 2010              		.loc 1 632 13 is_stmt 1
 632:C:/Users/stapi/OneDrive/Desktop/GD32VW553/GD32VW55X_Wifi_BLE_SDK/GD32VW55x_RELEASE_V1.0.2/MSDK/app\iperf.c ****                 app_print("UDP WARNNING: To save memory, the buffer size is preferably less than 5K
 2011              		.loc 1 632 16 is_stmt 0
 2012 0170 6373AA04 		bleu	a0,s4,.L134
 633:C:/Users/stapi/OneDrive/Desktop/GD32VW553/GD32VW55X_Wifi_BLE_SDK/GD32VW55x_RELEASE_V1.0.2/MSDK/app\iperf.c ****                 len = 5000;
 2013              		.loc 1 633 17 is_stmt 1
 2014 0174 37050000 		lui	a0,%hi(.LC36)
 2015              	.LVL184:
 2016 0178 13050500 		addi	a0,a0,%lo(.LC36)
 2017 017c 97000000 		call	co_printf
 2017      E7800000 
 2018              	.LVL185:
 634:C:/Users/stapi/OneDrive/Desktop/GD32VW553/GD32VW55X_Wifi_BLE_SDK/GD32VW55x_RELEASE_V1.0.2/MSDK/app\iperf.c ****             }
 2019              		.loc 1 634 17
 636:C:/Users/stapi/OneDrive/Desktop/GD32VW553/GD32VW55X_Wifi_BLE_SDK/GD32VW55x_RELEASE_V1.0.2/MSDK/app\iperf.c ****                 iperf_settings.buf_len = len;
 2020              		.loc 1 636 13
 634:C:/Users/stapi/OneDrive/Desktop/GD32VW553/GD32VW55X_Wifi_BLE_SDK/GD32VW55x_RELEASE_V1.0.2/MSDK/app\iperf.c ****             }
 2021              		.loc 1 634 21 is_stmt 0
 2022 0184 5285     		mv	a0,s4
 2023              	.LVL186:
 2024              	.L135:
 637:C:/Users/stapi/OneDrive/Desktop/GD32VW553/GD32VW55X_Wifi_BLE_SDK/GD32VW55x_RELEASE_V1.0.2/MSDK/app\iperf.c ****                 iperf_settings.flags.is_buf_len_set = true;
 2025              		.loc 1 637 17 is_stmt 1
 638:C:/Users/stapi/OneDrive/Desktop/GD32VW553/GD32VW55X_Wifi_BLE_SDK/GD32VW55x_RELEASE_V1.0.2/MSDK/app\iperf.c ****                 if (iperf_settings.flags.is_udp &&
 2026              		.loc 1 638 53 is_stmt 0
 2027 0186 83478103 		lbu	a5,56(sp)
 637:C:/Users/stapi/OneDrive/Desktop/GD32VW553/GD32VW55X_Wifi_BLE_SDK/GD32VW55x_RELEASE_V1.0.2/MSDK/app\iperf.c ****                 iperf_settings.flags.is_buf_len_set = true;
 2028              		.loc 1 637 40
 2029 018a 2AC6     		sw	a0,12(sp)
 638:C:/Users/stapi/OneDrive/Desktop/GD32VW553/GD32VW55X_Wifi_BLE_SDK/GD32VW55x_RELEASE_V1.0.2/MSDK/app\iperf.c ****                 if (iperf_settings.flags.is_udp &&
 2030              		.loc 1 638 17 is_stmt 1
 638:C:/Users/stapi/OneDrive/Desktop/GD32VW553/GD32VW55X_Wifi_BLE_SDK/GD32VW55x_RELEASE_V1.0.2/MSDK/app\iperf.c ****                 if (iperf_settings.flags.is_udp &&
 2031              		.loc 1 638 53 is_stmt 0
 2032 018c 93E71700 		ori	a5,a5,1
 2033 0190 230CF102 		sb	a5,56(sp)
 639:C:/Users/stapi/OneDrive/Desktop/GD32VW553/GD32VW55X_Wifi_BLE_SDK/GD32VW55x_RELEASE_V1.0.2/MSDK/app\iperf.c ****                     (iperf_settings.buf_len < udp_min_size)) {
 2034              		.loc 1 639 17 is_stmt 1
 639:C:/Users/stapi/OneDrive/Desktop/GD32VW553/GD32VW55X_Wifi_BLE_SDK/GD32VW55x_RELEASE_V1.0.2/MSDK/app\iperf.c ****                     (iperf_settings.buf_len < udp_min_size)) {
 2035              		.loc 1 639 20 is_stmt 0
 2036 0194 898B     		andi	a5,a5,2
 2037 0196 C5DB     		beq	a5,zero,.L155
 639:C:/Users/stapi/OneDrive/Desktop/GD32VW553/GD32VW55X_Wifi_BLE_SDK/GD32VW55x_RELEASE_V1.0.2/MSDK/app\iperf.c ****                     (iperf_settings.buf_len < udp_min_size)) {
 2038              		.loc 1 639 49 discriminator 1
 2039 0198 AD47     		li	a5,11
 2040 019a E3E6A7FA 		bgtu	a0,a5,.L155
 641:C:/Users/stapi/OneDrive/Desktop/GD32VW553/GD32VW55X_Wifi_BLE_SDK/GD32VW55x_RELEASE_V1.0.2/MSDK/app\iperf.c ****                     app_print("UDP WARNNING: buffer length must be greater than or "
 2041              		.loc 1 641 21 is_stmt 1
 642:C:/Users/stapi/OneDrive/Desktop/GD32VW553/GD32VW55X_Wifi_BLE_SDK/GD32VW55x_RELEASE_V1.0.2/MSDK/app\iperf.c ****                                 "equal to %d in UDP\n", udp_min_size);
 2042              		.loc 1 642 21 is_stmt 0
 2043 019e 37050000 		lui	a0,%hi(.LC37)
 641:C:/Users/stapi/OneDrive/Desktop/GD32VW553/GD32VW55X_Wifi_BLE_SDK/GD32VW55x_RELEASE_V1.0.2/MSDK/app\iperf.c ****                     app_print("UDP WARNNING: buffer length must be greater than or "
 2044              		.loc 1 641 44
 2045 01a2 B147     		li	a5,12
 642:C:/Users/stapi/OneDrive/Desktop/GD32VW553/GD32VW55X_Wifi_BLE_SDK/GD32VW55x_RELEASE_V1.0.2/MSDK/app\iperf.c ****                                 "equal to %d in UDP\n", udp_min_size);
 2046              		.loc 1 642 21
 2047 01a4 B145     		li	a1,12
 2048 01a6 13050500 		addi	a0,a0,%lo(.LC37)
 641:C:/Users/stapi/OneDrive/Desktop/GD32VW553/GD32VW55X_Wifi_BLE_SDK/GD32VW55x_RELEASE_V1.0.2/MSDK/app\iperf.c ****                     app_print("UDP WARNNING: buffer length must be greater than or "
 2049              		.loc 1 641 44
 2050 01aa 3EC6     		sw	a5,12(sp)
 642:C:/Users/stapi/OneDrive/Desktop/GD32VW553/GD32VW55X_Wifi_BLE_SDK/GD32VW55x_RELEASE_V1.0.2/MSDK/app\iperf.c ****                                 "equal to %d in UDP\n", udp_min_size);
 2051              		.loc 1 642 21 is_stmt 1
 2052 01ac 97000000 		call	co_printf
 2052      E7800000 
 2053              	.LVL187:
 646:C:/Users/stapi/OneDrive/Desktop/GD32VW553/GD32VW55X_Wifi_BLE_SDK/GD32VW55x_RELEASE_V1.0.2/MSDK/app\iperf.c ****         } else if (strncmp(argv[arg_cnt], "-p", 2) == 0) {
 2054              		.loc 1 646 13
 2055 01b4 49BF     		j	.L155
 2056              	.LVL188:
 2057              	.L134:
 636:C:/Users/stapi/OneDrive/Desktop/GD32VW553/GD32VW55X_Wifi_BLE_SDK/GD32VW55x_RELEASE_V1.0.2/MSDK/app\iperf.c ****                 iperf_settings.buf_len = len;
 2058              		.loc 1 636 13
 636:C:/Users/stapi/OneDrive/Desktop/GD32VW553/GD32VW55X_Wifi_BLE_SDK/GD32VW55x_RELEASE_V1.0.2/MSDK/app\iperf.c ****                 iperf_settings.buf_len = len;
 2059              		.loc 1 636 16 is_stmt 0
 2060 01b6 41D9     		beq	a0,zero,.L155
 2061 01b8 F9B7     		j	.L135
 2062              	.LVL189:
 2063              	.L133:
 2064              	.LBE32:
 647:C:/Users/stapi/OneDrive/Desktop/GD32VW553/GD32VW55X_Wifi_BLE_SDK/GD32VW55x_RELEASE_V1.0.2/MSDK/app\iperf.c ****             if (argc <= (arg_cnt + 1))
 2065              		.loc 1 647 16 is_stmt 1
 647:C:/Users/stapi/OneDrive/Desktop/GD32VW553/GD32VW55X_Wifi_BLE_SDK/GD32VW55x_RELEASE_V1.0.2/MSDK/app\iperf.c ****             if (argc <= (arg_cnt + 1))
 2066              		.loc 1 647 20 is_stmt 0
 2067 01ba B7050000 		lui	a1,%hi(.LC38)
 2068 01be 0946     		li	a2,2
 2069 01c0 93850500 		addi	a1,a1,%lo(.LC38)
 2070 01c4 6285     		mv	a0,s8
 2071 01c6 97000000 		call	strncmp
 2071      E7800000 
 2072              	.LVL190:
 647:C:/Users/stapi/OneDrive/Desktop/GD32VW553/GD32VW55X_Wifi_BLE_SDK/GD32VW55x_RELEASE_V1.0.2/MSDK/app\iperf.c ****             if (argc <= (arg_cnt + 1))
 2073              		.loc 1 647 19
 2074 01ce 11ED     		bne	a0,zero,.L138
 648:C:/Users/stapi/OneDrive/Desktop/GD32VW553/GD32VW55X_Wifi_BLE_SDK/GD32VW55x_RELEASE_V1.0.2/MSDK/app\iperf.c ****                 goto Exit;
 2075              		.loc 1 648 13 is_stmt 1
 648:C:/Users/stapi/OneDrive/Desktop/GD32VW553/GD32VW55X_Wifi_BLE_SDK/GD32VW55x_RELEASE_V1.0.2/MSDK/app\iperf.c ****                 goto Exit;
 2076              		.loc 1 648 34 is_stmt 0
 2077 01d0 93071400 		addi	a5,s0,1
 648:C:/Users/stapi/OneDrive/Desktop/GD32VW553/GD32VW55X_Wifi_BLE_SDK/GD32VW55x_RELEASE_V1.0.2/MSDK/app\iperf.c ****                 goto Exit;
 2078              		.loc 1 648 16
 2079 01d4 63D29718 		bge	a5,s1,.L147
 650:C:/Users/stapi/OneDrive/Desktop/GD32VW553/GD32VW55X_Wifi_BLE_SDK/GD32VW55x_RELEASE_V1.0.2/MSDK/app\iperf.c ****             arg_cnt += 2;
 2080              		.loc 1 650 13 is_stmt 1
 650:C:/Users/stapi/OneDrive/Desktop/GD32VW553/GD32VW55X_Wifi_BLE_SDK/GD32VW55x_RELEASE_V1.0.2/MSDK/app\iperf.c ****             arg_cnt += 2;
 2081              		.loc 1 650 45 is_stmt 0
 2082 01d8 03254900 		lw	a0,4(s2)
 2083 01dc 97000000 		call	atoi
 2083      E7800000 
 2084              	.LVL191:
 650:C:/Users/stapi/OneDrive/Desktop/GD32VW553/GD32VW55X_Wifi_BLE_SDK/GD32VW55x_RELEASE_V1.0.2/MSDK/app\iperf.c ****             arg_cnt += 2;
 2085              		.loc 1 650 35
 2086 01e4 231CA100 		sh	a0,24(sp)
 651:C:/Users/stapi/OneDrive/Desktop/GD32VW553/GD32VW55X_Wifi_BLE_SDK/GD32VW55x_RELEASE_V1.0.2/MSDK/app\iperf.c ****         /* Client Only */
 2087              		.loc 1 651 13 is_stmt 1
 2088 01e8 B9BF     		j	.L155
 2089              	.L138:
 653:C:/Users/stapi/OneDrive/Desktop/GD32VW553/GD32VW55X_Wifi_BLE_SDK/GD32VW55x_RELEASE_V1.0.2/MSDK/app\iperf.c ****             if (argc <= (arg_cnt + 1))
 2090              		.loc 1 653 16
 653:C:/Users/stapi/OneDrive/Desktop/GD32VW553/GD32VW55X_Wifi_BLE_SDK/GD32VW55x_RELEASE_V1.0.2/MSDK/app\iperf.c ****             if (argc <= (arg_cnt + 1))
 2091              		.loc 1 653 20 is_stmt 0
 2092 01ea B7050000 		lui	a1,%hi(.LC39)
 2093 01ee 0946     		li	a2,2
 2094 01f0 93850500 		addi	a1,a1,%lo(.LC39)
 2095 01f4 6285     		mv	a0,s8
 2096 01f6 97000000 		call	strncmp
 2096      E7800000 
 2097              	.LVL192:
 653:C:/Users/stapi/OneDrive/Desktop/GD32VW553/GD32VW55X_Wifi_BLE_SDK/GD32VW55x_RELEASE_V1.0.2/MSDK/app\iperf.c ****             if (argc <= (arg_cnt + 1))
 2098              		.loc 1 653 19
 2099 01fe 1DED     		bne	a0,zero,.L139
 654:C:/Users/stapi/OneDrive/Desktop/GD32VW553/GD32VW55X_Wifi_BLE_SDK/GD32VW55x_RELEASE_V1.0.2/MSDK/app\iperf.c ****                 goto Exit;
 2100              		.loc 1 654 13 is_stmt 1
 654:C:/Users/stapi/OneDrive/Desktop/GD32VW553/GD32VW55X_Wifi_BLE_SDK/GD32VW55x_RELEASE_V1.0.2/MSDK/app\iperf.c ****                 goto Exit;
 2101              		.loc 1 654 34 is_stmt 0
 2102 0200 93071400 		addi	a5,s0,1
 654:C:/Users/stapi/OneDrive/Desktop/GD32VW553/GD32VW55X_Wifi_BLE_SDK/GD32VW55x_RELEASE_V1.0.2/MSDK/app\iperf.c ****                 goto Exit;
 2103              		.loc 1 654 16
 2104 0204 63DA9714 		bge	a5,s1,.L147
 656:C:/Users/stapi/OneDrive/Desktop/GD32VW553/GD32VW55X_Wifi_BLE_SDK/GD32VW55x_RELEASE_V1.0.2/MSDK/app\iperf.c ****                 goto Exit;
 2105              		.loc 1 656 13 is_stmt 1
 656:C:/Users/stapi/OneDrive/Desktop/GD32VW553/GD32VW55X_Wifi_BLE_SDK/GD32VW55x_RELEASE_V1.0.2/MSDK/app\iperf.c ****                 goto Exit;
 2106              		.loc 1 656 17 is_stmt 0
 2107 0208 83478103 		lbu	a5,56(sp)
 656:C:/Users/stapi/OneDrive/Desktop/GD32VW553/GD32VW55X_Wifi_BLE_SDK/GD32VW55x_RELEASE_V1.0.2/MSDK/app\iperf.c ****                 goto Exit;
 2108              		.loc 1 656 16
 2109 020c C18B     		andi	a5,a5,16
 2110 020e 63950714 		bne	a5,zero,.L147
 659:C:/Users/stapi/OneDrive/Desktop/GD32VW553/GD32VW55X_Wifi_BLE_SDK/GD32VW55x_RELEASE_V1.0.2/MSDK/app\iperf.c ****                 iperf_settings.flags.is_udp = true;
 2111              		.loc 1 659 17 is_stmt 1
 659:C:/Users/stapi/OneDrive/Desktop/GD32VW553/GD32VW55X_Wifi_BLE_SDK/GD32VW55x_RELEASE_V1.0.2/MSDK/app\iperf.c ****                 iperf_settings.flags.is_udp = true;
 2112              		.loc 1 659 42 is_stmt 0
 2113 0212 03254900 		lw	a0,4(s2)
 2114 0216 97000000 		call	byte_atoi
 2114      E7800000 
 2115              	.LVL193:
 660:C:/Users/stapi/OneDrive/Desktop/GD32VW553/GD32VW55X_Wifi_BLE_SDK/GD32VW55x_RELEASE_V1.0.2/MSDK/app\iperf.c ****                 iperf_settings.flags.is_bw_set = true;
 2116              		.loc 1 660 45
 2117 021e 83478103 		lbu	a5,56(sp)
 659:C:/Users/stapi/OneDrive/Desktop/GD32VW553/GD32VW55X_Wifi_BLE_SDK/GD32VW55x_RELEASE_V1.0.2/MSDK/app\iperf.c ****                 iperf_settings.flags.is_udp = true;
 2118              		.loc 1 659 42
 2119 0222 2AD0     		sw	a0,32(sp)
 2120 0224 02D2     		sw	zero,36(sp)
 660:C:/Users/stapi/OneDrive/Desktop/GD32VW553/GD32VW55X_Wifi_BLE_SDK/GD32VW55x_RELEASE_V1.0.2/MSDK/app\iperf.c ****                 iperf_settings.flags.is_bw_set = true;
 2121              		.loc 1 660 17 is_stmt 1
 661:C:/Users/stapi/OneDrive/Desktop/GD32VW553/GD32VW55X_Wifi_BLE_SDK/GD32VW55x_RELEASE_V1.0.2/MSDK/app\iperf.c ****                 // if -l has already been processed, is_buf_len_set is true so don't
 2122              		.loc 1 661 17
 660:C:/Users/stapi/OneDrive/Desktop/GD32VW553/GD32VW55X_Wifi_BLE_SDK/GD32VW55x_RELEASE_V1.0.2/MSDK/app\iperf.c ****                 iperf_settings.flags.is_bw_set = true;
 2123              		.loc 1 660 45 is_stmt 0
 2124 0226 93E7A700 		ori	a5,a5,10
 2125 022a 230CF102 		sb	a5,56(sp)
 664:C:/Users/stapi/OneDrive/Desktop/GD32VW553/GD32VW55X_Wifi_BLE_SDK/GD32VW55x_RELEASE_V1.0.2/MSDK/app\iperf.c ****                     iperf_settings.buf_len = IPERF_DEFAULT_UDPBUFLEN;
 2126              		.loc 1 664 17 is_stmt 1
 664:C:/Users/stapi/OneDrive/Desktop/GD32VW553/GD32VW55X_Wifi_BLE_SDK/GD32VW55x_RELEASE_V1.0.2/MSDK/app\iperf.c ****                     iperf_settings.buf_len = IPERF_DEFAULT_UDPBUFLEN;
 2127              		.loc 1 664 20 is_stmt 0
 2128 022e E257     		lw	a5,56(sp)
 2129 0230 858B     		andi	a5,a5,1
 2130 0232 91FB     		bne	a5,zero,.L155
 665:C:/Users/stapi/OneDrive/Desktop/GD32VW553/GD32VW55X_Wifi_BLE_SDK/GD32VW55x_RELEASE_V1.0.2/MSDK/app\iperf.c ****             }
 2131              		.loc 1 665 21 is_stmt 1
 665:C:/Users/stapi/OneDrive/Desktop/GD32VW553/GD32VW55X_Wifi_BLE_SDK/GD32VW55x_RELEASE_V1.0.2/MSDK/app\iperf.c ****             }
 2132              		.loc 1 665 44 is_stmt 0
 2133 0234 9307005C 		li	a5,1472
 2134 0238 3EC6     		sw	a5,12(sp)
 667:C:/Users/stapi/OneDrive/Desktop/GD32VW553/GD32VW55X_Wifi_BLE_SDK/GD32VW55x_RELEASE_V1.0.2/MSDK/app\iperf.c ****         } else if (strncmp(argv[arg_cnt], "-n", 2) == 0) {
 2135              		.loc 1 667 13 is_stmt 1
 2136 023a 31B7     		j	.L155
 2137              	.L139:
 668:C:/Users/stapi/OneDrive/Desktop/GD32VW553/GD32VW55X_Wifi_BLE_SDK/GD32VW55x_RELEASE_V1.0.2/MSDK/app\iperf.c ****             if (argc <= (arg_cnt + 1))
 2138              		.loc 1 668 16
 668:C:/Users/stapi/OneDrive/Desktop/GD32VW553/GD32VW55X_Wifi_BLE_SDK/GD32VW55x_RELEASE_V1.0.2/MSDK/app\iperf.c ****             if (argc <= (arg_cnt + 1))
 2139              		.loc 1 668 20 is_stmt 0
 2140 023c B7050000 		lui	a1,%hi(.LC40)
 2141 0240 0946     		li	a2,2
 2142 0242 93850500 		addi	a1,a1,%lo(.LC40)
 2143 0246 6285     		mv	a0,s8
 2144 0248 97000000 		call	strncmp
 2144      E7800000 
 2145              	.LVL194:
 668:C:/Users/stapi/OneDrive/Desktop/GD32VW553/GD32VW55X_Wifi_BLE_SDK/GD32VW55x_RELEASE_V1.0.2/MSDK/app\iperf.c ****             if (argc <= (arg_cnt + 1))
 2146              		.loc 1 668 19
 2147 0250 15E5     		bne	a0,zero,.L141
 669:C:/Users/stapi/OneDrive/Desktop/GD32VW553/GD32VW55X_Wifi_BLE_SDK/GD32VW55x_RELEASE_V1.0.2/MSDK/app\iperf.c ****                 goto Exit;
 2148              		.loc 1 669 13 is_stmt 1
 669:C:/Users/stapi/OneDrive/Desktop/GD32VW553/GD32VW55X_Wifi_BLE_SDK/GD32VW55x_RELEASE_V1.0.2/MSDK/app\iperf.c ****                 goto Exit;
 2149              		.loc 1 669 34 is_stmt 0
 2150 0252 93071400 		addi	a5,s0,1
 669:C:/Users/stapi/OneDrive/Desktop/GD32VW553/GD32VW55X_Wifi_BLE_SDK/GD32VW55x_RELEASE_V1.0.2/MSDK/app\iperf.c ****                 goto Exit;
 2151              		.loc 1 669 16
 2152 0256 63D19710 		bge	a5,s1,.L147
 671:C:/Users/stapi/OneDrive/Desktop/GD32VW553/GD32VW55X_Wifi_BLE_SDK/GD32VW55x_RELEASE_V1.0.2/MSDK/app\iperf.c ****                 goto Exit;
 2153              		.loc 1 671 13 is_stmt 1
 671:C:/Users/stapi/OneDrive/Desktop/GD32VW553/GD32VW55X_Wifi_BLE_SDK/GD32VW55x_RELEASE_V1.0.2/MSDK/app\iperf.c ****                 goto Exit;
 2154              		.loc 1 671 17 is_stmt 0
 2155 025a 83478103 		lbu	a5,56(sp)
 671:C:/Users/stapi/OneDrive/Desktop/GD32VW553/GD32VW55X_Wifi_BLE_SDK/GD32VW55x_RELEASE_V1.0.2/MSDK/app\iperf.c ****                 goto Exit;
 2156              		.loc 1 671 16
 2157 025e 13F70701 		andi	a4,a5,16
 2158 0262 7DEB     		bne	a4,zero,.L147
 674:C:/Users/stapi/OneDrive/Desktop/GD32VW553/GD32VW55X_Wifi_BLE_SDK/GD32VW55x_RELEASE_V1.0.2/MSDK/app\iperf.c ****                 iperf_settings.amount = byte_atoi(argv[arg_cnt + 1]);
 2159              		.loc 1 674 17 is_stmt 1
 675:C:/Users/stapi/OneDrive/Desktop/GD32VW553/GD32VW55X_Wifi_BLE_SDK/GD32VW55x_RELEASE_V1.0.2/MSDK/app\iperf.c ****             }
 2160              		.loc 1 675 41 is_stmt 0
 2161 0264 03254900 		lw	a0,4(s2)
 674:C:/Users/stapi/OneDrive/Desktop/GD32VW553/GD32VW55X_Wifi_BLE_SDK/GD32VW55x_RELEASE_V1.0.2/MSDK/app\iperf.c ****                 iperf_settings.amount = byte_atoi(argv[arg_cnt + 1]);
 2162              		.loc 1 674 51
 2163 0268 ED9B     		andi	a5,a5,-5
 2164 026a 230CF102 		sb	a5,56(sp)
 675:C:/Users/stapi/OneDrive/Desktop/GD32VW553/GD32VW55X_Wifi_BLE_SDK/GD32VW55x_RELEASE_V1.0.2/MSDK/app\iperf.c ****             }
 2165              		.loc 1 675 17 is_stmt 1
 675:C:/Users/stapi/OneDrive/Desktop/GD32VW553/GD32VW55X_Wifi_BLE_SDK/GD32VW55x_RELEASE_V1.0.2/MSDK/app\iperf.c ****             }
 2166              		.loc 1 675 41 is_stmt 0
 2167 026e 97000000 		call	byte_atoi
 2167      E7800000 
 2168              	.LVL195:
 2169              	.L166:
 685:C:/Users/stapi/OneDrive/Desktop/GD32VW553/GD32VW55X_Wifi_BLE_SDK/GD32VW55x_RELEASE_V1.0.2/MSDK/app\iperf.c ****             }
 2170              		.loc 1 685 41
 2171 0276 2AD4     		sw	a0,40(sp)
 2172 0278 02D6     		sw	zero,44(sp)
 687:C:/Users/stapi/OneDrive/Desktop/GD32VW553/GD32VW55X_Wifi_BLE_SDK/GD32VW55x_RELEASE_V1.0.2/MSDK/app\iperf.c ****         } else if (strncmp(argv[arg_cnt], "-u", 2) == 0){
 2173              		.loc 1 687 13 is_stmt 1
 2174 027a F1B5     		j	.L155
 2175              	.L141:
 678:C:/Users/stapi/OneDrive/Desktop/GD32VW553/GD32VW55X_Wifi_BLE_SDK/GD32VW55x_RELEASE_V1.0.2/MSDK/app\iperf.c ****             if (argc <= (arg_cnt + 1))
 2176              		.loc 1 678 16
 678:C:/Users/stapi/OneDrive/Desktop/GD32VW553/GD32VW55X_Wifi_BLE_SDK/GD32VW55x_RELEASE_V1.0.2/MSDK/app\iperf.c ****             if (argc <= (arg_cnt + 1))
 2177              		.loc 1 678 20 is_stmt 0
 2178 027c B7050000 		lui	a1,%hi(.LC41)
 2179 0280 0946     		li	a2,2
 2180 0282 93850500 		addi	a1,a1,%lo(.LC41)
 2181 0286 6285     		mv	a0,s8
 2182 0288 97000000 		call	strncmp
 2182      E7800000 
 2183              	.LVL196:
 678:C:/Users/stapi/OneDrive/Desktop/GD32VW553/GD32VW55X_Wifi_BLE_SDK/GD32VW55x_RELEASE_V1.0.2/MSDK/app\iperf.c ****             if (argc <= (arg_cnt + 1))
 2184              		.loc 1 678 19
 2185 0290 0DE5     		bne	a0,zero,.L142
 679:C:/Users/stapi/OneDrive/Desktop/GD32VW553/GD32VW55X_Wifi_BLE_SDK/GD32VW55x_RELEASE_V1.0.2/MSDK/app\iperf.c ****                 goto Exit;
 2186              		.loc 1 679 13 is_stmt 1
 679:C:/Users/stapi/OneDrive/Desktop/GD32VW553/GD32VW55X_Wifi_BLE_SDK/GD32VW55x_RELEASE_V1.0.2/MSDK/app\iperf.c ****                 goto Exit;
 2187              		.loc 1 679 34 is_stmt 0
 2188 0292 93071400 		addi	a5,s0,1
 679:C:/Users/stapi/OneDrive/Desktop/GD32VW553/GD32VW55X_Wifi_BLE_SDK/GD32VW55x_RELEASE_V1.0.2/MSDK/app\iperf.c ****                 goto Exit;
 2189              		.loc 1 679 16
 2190 0296 63D1970C 		bge	a5,s1,.L147
 681:C:/Users/stapi/OneDrive/Desktop/GD32VW553/GD32VW55X_Wifi_BLE_SDK/GD32VW55x_RELEASE_V1.0.2/MSDK/app\iperf.c ****                 goto Exit;
 2191              		.loc 1 681 13 is_stmt 1
 681:C:/Users/stapi/OneDrive/Desktop/GD32VW553/GD32VW55X_Wifi_BLE_SDK/GD32VW55x_RELEASE_V1.0.2/MSDK/app\iperf.c ****                 goto Exit;
 2192              		.loc 1 681 17 is_stmt 0
 2193 029a 83478103 		lbu	a5,56(sp)
 681:C:/Users/stapi/OneDrive/Desktop/GD32VW553/GD32VW55X_Wifi_BLE_SDK/GD32VW55x_RELEASE_V1.0.2/MSDK/app\iperf.c ****                 goto Exit;
 2194              		.loc 1 681 16
 2195 029e 13F70701 		andi	a4,a5,16
 2196 02a2 5DEB     		bne	a4,zero,.L147
 684:C:/Users/stapi/OneDrive/Desktop/GD32VW553/GD32VW55X_Wifi_BLE_SDK/GD32VW55x_RELEASE_V1.0.2/MSDK/app\iperf.c ****                 iperf_settings.amount = (uint32_t)atoi(argv[arg_cnt + 1]);
 2197              		.loc 1 684 17 is_stmt 1
 685:C:/Users/stapi/OneDrive/Desktop/GD32VW553/GD32VW55X_Wifi_BLE_SDK/GD32VW55x_RELEASE_V1.0.2/MSDK/app\iperf.c ****             }
 2198              		.loc 1 685 51 is_stmt 0
 2199 02a4 03254900 		lw	a0,4(s2)
 684:C:/Users/stapi/OneDrive/Desktop/GD32VW553/GD32VW55X_Wifi_BLE_SDK/GD32VW55x_RELEASE_V1.0.2/MSDK/app\iperf.c ****                 iperf_settings.amount = (uint32_t)atoi(argv[arg_cnt + 1]);
 2200              		.loc 1 684 51
 2201 02a8 93E74700 		ori	a5,a5,4
 2202 02ac 230CF102 		sb	a5,56(sp)
 685:C:/Users/stapi/OneDrive/Desktop/GD32VW553/GD32VW55X_Wifi_BLE_SDK/GD32VW55x_RELEASE_V1.0.2/MSDK/app\iperf.c ****             }
 2203              		.loc 1 685 17 is_stmt 1
 685:C:/Users/stapi/OneDrive/Desktop/GD32VW553/GD32VW55X_Wifi_BLE_SDK/GD32VW55x_RELEASE_V1.0.2/MSDK/app\iperf.c ****             }
 2204              		.loc 1 685 51 is_stmt 0
 2205 02b0 97000000 		call	atoi
 2205      E7800000 
 2206              	.LVL197:
 2207 02b8 7DBF     		j	.L166
 2208              	.L142:
 688:C:/Users/stapi/OneDrive/Desktop/GD32VW553/GD32VW55X_Wifi_BLE_SDK/GD32VW55x_RELEASE_V1.0.2/MSDK/app\iperf.c ****             // if -b has already been processed, UDP rate will be non-zero, so don't
 2209              		.loc 1 688 16 is_stmt 1
 688:C:/Users/stapi/OneDrive/Desktop/GD32VW553/GD32VW55X_Wifi_BLE_SDK/GD32VW55x_RELEASE_V1.0.2/MSDK/app\iperf.c ****             // if -b has already been processed, UDP rate will be non-zero, so don't
 2210              		.loc 1 688 20 is_stmt 0
 2211 02ba B7050000 		lui	a1,%hi(.LC42)
 2212 02be 0946     		li	a2,2
 2213 02c0 93850500 		addi	a1,a1,%lo(.LC42)
 2214 02c4 6285     		mv	a0,s8
 2215 02c6 97000000 		call	strncmp
 2215      E7800000 
 2216              	.LVL198:
 688:C:/Users/stapi/OneDrive/Desktop/GD32VW553/GD32VW55X_Wifi_BLE_SDK/GD32VW55x_RELEASE_V1.0.2/MSDK/app\iperf.c ****             // if -b has already been processed, UDP rate will be non-zero, so don't
 2217              		.loc 1 688 19
 2218 02ce 05E9     		bne	a0,zero,.L143
 691:C:/Users/stapi/OneDrive/Desktop/GD32VW553/GD32VW55X_Wifi_BLE_SDK/GD32VW55x_RELEASE_V1.0.2/MSDK/app\iperf.c ****             {
 2219              		.loc 1 691 13 is_stmt 1
 691:C:/Users/stapi/OneDrive/Desktop/GD32VW553/GD32VW55X_Wifi_BLE_SDK/GD32VW55x_RELEASE_V1.0.2/MSDK/app\iperf.c ****             {
 2220              		.loc 1 691 16 is_stmt 0
 2221 02d0 E257     		lw	a5,56(sp)
 2222 02d2 93D71748 		bexti	a5,a5,1
 2223 02d6 81EF     		bne	a5,zero,.L144
 693:C:/Users/stapi/OneDrive/Desktop/GD32VW553/GD32VW55X_Wifi_BLE_SDK/GD32VW55x_RELEASE_V1.0.2/MSDK/app\iperf.c ****                 iperf_settings.udprate = IPERF_DEFAULT_UDPRATE;
 2224              		.loc 1 693 17 is_stmt 1
 693:C:/Users/stapi/OneDrive/Desktop/GD32VW553/GD32VW55X_Wifi_BLE_SDK/GD32VW55x_RELEASE_V1.0.2/MSDK/app\iperf.c ****                 iperf_settings.udprate = IPERF_DEFAULT_UDPRATE;
 2225              		.loc 1 693 45 is_stmt 0
 2226 02d8 83478103 		lbu	a5,56(sp)
 694:C:/Users/stapi/OneDrive/Desktop/GD32VW553/GD32VW55X_Wifi_BLE_SDK/GD32VW55x_RELEASE_V1.0.2/MSDK/app\iperf.c ****             }
 2227              		.loc 1 694 40
 2228 02dc 37071000 		li	a4,1048576
 2229 02e0 3AD0     		sw	a4,32(sp)
 693:C:/Users/stapi/OneDrive/Desktop/GD32VW553/GD32VW55X_Wifi_BLE_SDK/GD32VW55x_RELEASE_V1.0.2/MSDK/app\iperf.c ****                 iperf_settings.udprate = IPERF_DEFAULT_UDPRATE;
 2230              		.loc 1 693 45
 2231 02e2 93E72700 		ori	a5,a5,2
 2232 02e6 230CF102 		sb	a5,56(sp)
 694:C:/Users/stapi/OneDrive/Desktop/GD32VW553/GD32VW55X_Wifi_BLE_SDK/GD32VW55x_RELEASE_V1.0.2/MSDK/app\iperf.c ****             }
 2233              		.loc 1 694 17 is_stmt 1
 694:C:/Users/stapi/OneDrive/Desktop/GD32VW553/GD32VW55X_Wifi_BLE_SDK/GD32VW55x_RELEASE_V1.0.2/MSDK/app\iperf.c ****             }
 2234              		.loc 1 694 40 is_stmt 0
 2235 02ea 8147     		li	a5,0
 2236 02ec 3ED2     		sw	a5,36(sp)
 2237              	.L144:
 699:C:/Users/stapi/OneDrive/Desktop/GD32VW553/GD32VW55X_Wifi_BLE_SDK/GD32VW55x_RELEASE_V1.0.2/MSDK/app\iperf.c ****             {
 2238              		.loc 1 699 13 is_stmt 1
 699:C:/Users/stapi/OneDrive/Desktop/GD32VW553/GD32VW55X_Wifi_BLE_SDK/GD32VW55x_RELEASE_V1.0.2/MSDK/app\iperf.c ****             {
 2239              		.loc 1 699 16 is_stmt 0
 2240 02ee E257     		lw	a5,56(sp)
 2241 02f0 858B     		andi	a5,a5,1
 2242 02f2 81E7     		bne	a5,zero,.L145
 701:C:/Users/stapi/OneDrive/Desktop/GD32VW553/GD32VW55X_Wifi_BLE_SDK/GD32VW55x_RELEASE_V1.0.2/MSDK/app\iperf.c ****             }
 2243              		.loc 1 701 17 is_stmt 1
 701:C:/Users/stapi/OneDrive/Desktop/GD32VW553/GD32VW55X_Wifi_BLE_SDK/GD32VW55x_RELEASE_V1.0.2/MSDK/app\iperf.c ****             }
 2244              		.loc 1 701 40 is_stmt 0
 2245 02f4 9307005C 		li	a5,1472
 2246 02f8 3EC6     		sw	a5,12(sp)
 2247              	.L145:
 703:C:/Users/stapi/OneDrive/Desktop/GD32VW553/GD32VW55X_Wifi_BLE_SDK/GD32VW55x_RELEASE_V1.0.2/MSDK/app\iperf.c ****         } else if (strncmp(argv[arg_cnt], "-S", 2) == 0){
 2248              		.loc 1 703 13 is_stmt 1
 703:C:/Users/stapi/OneDrive/Desktop/GD32VW553/GD32VW55X_Wifi_BLE_SDK/GD32VW55x_RELEASE_V1.0.2/MSDK/app\iperf.c ****         } else if (strncmp(argv[arg_cnt], "-S", 2) == 0){
 2249              		.loc 1 703 21 is_stmt 0
 2250 02fa 0504     		addi	s0,s0,1
 2251              	.LVL199:
 2252 02fc 8DBB     		j	.L125
 2253              	.L143:
 704:C:/Users/stapi/OneDrive/Desktop/GD32VW553/GD32VW55X_Wifi_BLE_SDK/GD32VW55x_RELEASE_V1.0.2/MSDK/app\iperf.c ****             if (argc <= (arg_cnt + 1))
 2254              		.loc 1 704 16 is_stmt 1
 704:C:/Users/stapi/OneDrive/Desktop/GD32VW553/GD32VW55X_Wifi_BLE_SDK/GD32VW55x_RELEASE_V1.0.2/MSDK/app\iperf.c ****             if (argc <= (arg_cnt + 1))
 2255              		.loc 1 704 20 is_stmt 0
 2256 02fe B7050000 		lui	a1,%hi(.LC43)
 2257 0302 0946     		li	a2,2
 2258 0304 93850500 		addi	a1,a1,%lo(.LC43)
 2259 0308 6285     		mv	a0,s8
 2260 030a 97000000 		call	strncmp
 2260      E7800000 
 2261              	.LVL200:
 704:C:/Users/stapi/OneDrive/Desktop/GD32VW553/GD32VW55X_Wifi_BLE_SDK/GD32VW55x_RELEASE_V1.0.2/MSDK/app\iperf.c ****             if (argc <= (arg_cnt + 1))
 2262              		.loc 1 704 19
 2263 0312 39E1     		bne	a0,zero,.L147
 705:C:/Users/stapi/OneDrive/Desktop/GD32VW553/GD32VW55X_Wifi_BLE_SDK/GD32VW55x_RELEASE_V1.0.2/MSDK/app\iperf.c ****                 goto Exit;
 2264              		.loc 1 705 13 is_stmt 1
 705:C:/Users/stapi/OneDrive/Desktop/GD32VW553/GD32VW55X_Wifi_BLE_SDK/GD32VW55x_RELEASE_V1.0.2/MSDK/app\iperf.c ****                 goto Exit;
 2265              		.loc 1 705 34 is_stmt 0
 2266 0314 93071400 		addi	a5,s0,1
 705:C:/Users/stapi/OneDrive/Desktop/GD32VW553/GD32VW55X_Wifi_BLE_SDK/GD32VW55x_RELEASE_V1.0.2/MSDK/app\iperf.c ****                 goto Exit;
 2267              		.loc 1 705 16
 2268 0318 63D09704 		bge	a5,s1,.L147
 707:C:/Users/stapi/OneDrive/Desktop/GD32VW553/GD32VW55X_Wifi_BLE_SDK/GD32VW55x_RELEASE_V1.0.2/MSDK/app\iperf.c ****                 goto Exit;
 2269              		.loc 1 707 13 is_stmt 1
 707:C:/Users/stapi/OneDrive/Desktop/GD32VW553/GD32VW55X_Wifi_BLE_SDK/GD32VW55x_RELEASE_V1.0.2/MSDK/app\iperf.c ****                 goto Exit;
 2270              		.loc 1 707 17 is_stmt 0
 2271 031c 83478103 		lbu	a5,56(sp)
 707:C:/Users/stapi/OneDrive/Desktop/GD32VW553/GD32VW55X_Wifi_BLE_SDK/GD32VW55x_RELEASE_V1.0.2/MSDK/app\iperf.c ****                 goto Exit;
 2272              		.loc 1 707 16
 2273 0320 C18B     		andi	a5,a5,16
 2274 0322 9DEB     		bne	a5,zero,.L147
 714:C:/Users/stapi/OneDrive/Desktop/GD32VW553/GD32VW55X_Wifi_BLE_SDK/GD32VW55x_RELEASE_V1.0.2/MSDK/app\iperf.c ****                 if (*endptr != '\0') {
 2275              		.loc 1 714 17 is_stmt 1
 714:C:/Users/stapi/OneDrive/Desktop/GD32VW553/GD32VW55X_Wifi_BLE_SDK/GD32VW55x_RELEASE_V1.0.2/MSDK/app\iperf.c ****                 if (*endptr != '\0') {
 2276              		.loc 1 714 47 is_stmt 0
 2277 0324 03254900 		lw	a0,4(s2)
 2278 0328 0146     		li	a2,0
 2279 032a 4C00     		addi	a1,sp,4
 2280 032c 97000000 		call	strtoul
 2280      E7800000 
 2281              	.LVL201:
 715:C:/Users/stapi/OneDrive/Desktop/GD32VW553/GD32VW55X_Wifi_BLE_SDK/GD32VW55x_RELEASE_V1.0.2/MSDK/app\iperf.c ****                     app_print("iperf: invalid tos\r\n");
 2282              		.loc 1 715 20
 2283 0334 1247     		lw	a4,4(sp)
 714:C:/Users/stapi/OneDrive/Desktop/GD32VW553/GD32VW55X_Wifi_BLE_SDK/GD32VW55x_RELEASE_V1.0.2/MSDK/app\iperf.c ****                 if (*endptr != '\0') {
 2284              		.loc 1 714 38
 2285 0336 9377F50F 		andi	a5,a0,0xff
 714:C:/Users/stapi/OneDrive/Desktop/GD32VW553/GD32VW55X_Wifi_BLE_SDK/GD32VW55x_RELEASE_V1.0.2/MSDK/app\iperf.c ****                 if (*endptr != '\0') {
 2286              		.loc 1 714 36
 2287 033a 231DF100 		sh	a5,26(sp)
 715:C:/Users/stapi/OneDrive/Desktop/GD32VW553/GD32VW55X_Wifi_BLE_SDK/GD32VW55x_RELEASE_V1.0.2/MSDK/app\iperf.c ****                     app_print("iperf: invalid tos\r\n");
 2288              		.loc 1 715 17 is_stmt 1
 714:C:/Users/stapi/OneDrive/Desktop/GD32VW553/GD32VW55X_Wifi_BLE_SDK/GD32VW55x_RELEASE_V1.0.2/MSDK/app\iperf.c ****                 if (*endptr != '\0') {
 2289              		.loc 1 714 38 is_stmt 0
 2290 033e 3E86     		mv	a2,a5
 715:C:/Users/stapi/OneDrive/Desktop/GD32VW553/GD32VW55X_Wifi_BLE_SDK/GD32VW55x_RELEASE_V1.0.2/MSDK/app\iperf.c ****                     app_print("iperf: invalid tos\r\n");
 2291              		.loc 1 715 20
 2292 0340 03070700 		lb	a4,0(a4)
 2293 0344 63030710 		beq	a4,zero,.L146
 716:C:/Users/stapi/OneDrive/Desktop/GD32VW553/GD32VW55X_Wifi_BLE_SDK/GD32VW55x_RELEASE_V1.0.2/MSDK/app\iperf.c ****                     goto Exit;
 2294              		.loc 1 716 21 is_stmt 1
 2295 0348 37050000 		lui	a0,%hi(.LC44)
 2296 034c 13050500 		addi	a0,a0,%lo(.LC44)
 2297 0350 97000000 		call	co_printf
 2297      E7800000 
 2298              	.LVL202:
 717:C:/Users/stapi/OneDrive/Desktop/GD32VW553/GD32VW55X_Wifi_BLE_SDK/GD32VW55x_RELEASE_V1.0.2/MSDK/app\iperf.c ****                 }
 2299              		.loc 1 717 21
 2300              	.L147:
 770:C:/Users/stapi/OneDrive/Desktop/GD32VW553/GD32VW55X_Wifi_BLE_SDK/GD32VW55x_RELEASE_V1.0.2/MSDK/app\iperf.c **** Usage:
 2301              		.loc 1 770 5
 2302 0358 37050000 		lui	a0,%hi(.LC50)
 2303 035c 13050500 		addi	a0,a0,%lo(.LC50)
 2304 0360 97000000 		call	co_printf
 2304      E7800000 
 2305              	.LVL203:
 2306              	.L123:
 772:C:/Users/stapi/OneDrive/Desktop/GD32VW553/GD32VW55X_Wifi_BLE_SDK/GD32VW55x_RELEASE_V1.0.2/MSDK/app\iperf.c ****     app_print("    iperf <-s|-c hostip|stop|-h> [options]\r\n");
 2307              		.loc 1 772 5
 2308 0368 37050000 		lui	a0,%hi(.LC51)
 2309 036c 13050500 		addi	a0,a0,%lo(.LC51)
 2310 0370 97000000 		call	co_printf
 2310      E7800000 
 2311              	.LVL204:
 773:C:/Users/stapi/OneDrive/Desktop/GD32VW553/GD32VW55X_Wifi_BLE_SDK/GD32VW55x_RELEASE_V1.0.2/MSDK/app\iperf.c ****     app_print("\rClient/Server:\r\n");
 2312              		.loc 1 773 5
 2313 0378 37050000 		lui	a0,%hi(.LC52)
 2314 037c 13050500 		addi	a0,a0,%lo(.LC52)
 2315 0380 97000000 		call	co_printf
 2315      E7800000 
 2316              	.LVL205:
 774:C:/Users/stapi/OneDrive/Desktop/GD32VW553/GD32VW55X_Wifi_BLE_SDK/GD32VW55x_RELEASE_V1.0.2/MSDK/app\iperf.c ****     app_print("    -u #      use UDP rather than TCP\r\n");
 2317              		.loc 1 774 5
 2318 0388 37050000 		lui	a0,%hi(.LC53)
 2319 038c 13050500 		addi	a0,a0,%lo(.LC53)
 2320 0390 97000000 		call	co_printf
 2320      E7800000 
 2321              	.LVL206:
 775:C:/Users/stapi/OneDrive/Desktop/GD32VW553/GD32VW55X_Wifi_BLE_SDK/GD32VW55x_RELEASE_V1.0.2/MSDK/app\iperf.c ****     app_print("    -i #      seconds between periodic bandwidth reports\r\n");
 2322              		.loc 1 775 5
 2323 0398 37050000 		lui	a0,%hi(.LC54)
 2324 039c 13050500 		addi	a0,a0,%lo(.LC54)
 2325 03a0 97000000 		call	co_printf
 2325      E7800000 
 2326              	.LVL207:
 776:C:/Users/stapi/OneDrive/Desktop/GD32VW553/GD32VW55X_Wifi_BLE_SDK/GD32VW55x_RELEASE_V1.0.2/MSDK/app\iperf.c ****     app_print("    -l #      length of buffer to read or write (default 1460 Bytes)\r\n");
 2327              		.loc 1 776 5
 2328 03a8 37050000 		lui	a0,%hi(.LC55)
 2329 03ac 13050500 		addi	a0,a0,%lo(.LC55)
 2330 03b0 97000000 		call	co_printf
 2330      E7800000 
 2331              	.LVL208:
 777:C:/Users/stapi/OneDrive/Desktop/GD32VW553/GD32VW55X_Wifi_BLE_SDK/GD32VW55x_RELEASE_V1.0.2/MSDK/app\iperf.c ****     app_print("    -p #      server port to listen on/connect to (default 5001)\r\n");
 2332              		.loc 1 777 5
 2333 03b8 37050000 		lui	a0,%hi(.LC56)
 2334 03bc 13050500 		addi	a0,a0,%lo(.LC56)
 2335 03c0 97000000 		call	co_printf
 2335      E7800000 
 2336              	.LVL209:
 778:C:/Users/stapi/OneDrive/Desktop/GD32VW553/GD32VW55X_Wifi_BLE_SDK/GD32VW55x_RELEASE_V1.0.2/MSDK/app\iperf.c ****     app_print("\rServer specific:\r\n");
 2337              		.loc 1 778 5
 2338 03c8 37050000 		lui	a0,%hi(.LC57)
 2339 03cc 13050500 		addi	a0,a0,%lo(.LC57)
 2340 03d0 97000000 		call	co_printf
 2340      E7800000 
 2341              	.LVL210:
 779:C:/Users/stapi/OneDrive/Desktop/GD32VW553/GD32VW55X_Wifi_BLE_SDK/GD32VW55x_RELEASE_V1.0.2/MSDK/app\iperf.c ****     app_print("    -s        run in server mode\r\n");
 2342              		.loc 1 779 5
 2343 03d8 37050000 		lui	a0,%hi(.LC58)
 2344 03dc 13050500 		addi	a0,a0,%lo(.LC58)
 2345 03e0 97000000 		call	co_printf
 2345      E7800000 
 2346              	.LVL211:
 780:C:/Users/stapi/OneDrive/Desktop/GD32VW553/GD32VW55X_Wifi_BLE_SDK/GD32VW55x_RELEASE_V1.0.2/MSDK/app\iperf.c ****     app_print("\rClient specific:\r\n");
 2347              		.loc 1 780 5
 2348 03e8 37050000 		lui	a0,%hi(.LC59)
 2349 03ec 13050500 		addi	a0,a0,%lo(.LC59)
 2350 03f0 97000000 		call	co_printf
 2350      E7800000 
 2351              	.LVL212:
 781:C:/Users/stapi/OneDrive/Desktop/GD32VW553/GD32VW55X_Wifi_BLE_SDK/GD32VW55x_RELEASE_V1.0.2/MSDK/app\iperf.c ****     app_print("    -b #      bandwidth to send at in bits/sec (default 1 Mbit/sec, implies -u)\r\n"
 2352              		.loc 1 781 5
 2353 03f8 37050000 		lui	a0,%hi(.LC60)
 2354 03fc 13050500 		addi	a0,a0,%lo(.LC60)
 2355 0400 97000000 		call	co_printf
 2355      E7800000 
 2356              	.LVL213:
 782:C:/Users/stapi/OneDrive/Desktop/GD32VW553/GD32VW55X_Wifi_BLE_SDK/GD32VW55x_RELEASE_V1.0.2/MSDK/app\iperf.c ****     app_print("    -S #      set the IP 'type of service'\r\n");
 2357              		.loc 1 782 5
 2358 0408 37050000 		lui	a0,%hi(.LC61)
 2359 040c 13050500 		addi	a0,a0,%lo(.LC61)
 2360 0410 97000000 		call	co_printf
 2360      E7800000 
 2361              	.LVL214:
 783:C:/Users/stapi/OneDrive/Desktop/GD32VW553/GD32VW55X_Wifi_BLE_SDK/GD32VW55x_RELEASE_V1.0.2/MSDK/app\iperf.c ****     app_print("    -c <host> run in client mode, connecting to <host>\r\n");
 2362              		.loc 1 783 5
 2363 0418 37050000 		lui	a0,%hi(.LC62)
 2364 041c 13050500 		addi	a0,a0,%lo(.LC62)
 2365 0420 97000000 		call	co_printf
 2365      E7800000 
 2366              	.LVL215:
 784:C:/Users/stapi/OneDrive/Desktop/GD32VW553/GD32VW55X_Wifi_BLE_SDK/GD32VW55x_RELEASE_V1.0.2/MSDK/app\iperf.c ****     app_print("    -t #      time in seconds to transmit for (default 10 secs)\r\n");
 2367              		.loc 1 784 5
 2368 0428 37050000 		lui	a0,%hi(.LC63)
 2369 042c 13050500 		addi	a0,a0,%lo(.LC63)
 2370 0430 97000000 		call	co_printf
 2370      E7800000 
 2371              	.LVL216:
 785:C:/Users/stapi/OneDrive/Desktop/GD32VW553/GD32VW55X_Wifi_BLE_SDK/GD32VW55x_RELEASE_V1.0.2/MSDK/app\iperf.c **** }
 2372              		.loc 1 785 5
 2373 0438 37050000 		lui	a0,%hi(.LC64)
 2374 043c 13050500 		addi	a0,a0,%lo(.LC64)
 2375 0440 97000000 		call	co_printf
 2375      E7800000 
 2376              	.LVL217:
 2377 0448 45B1     		j	.L122
 2378              	.LVL218:
 2379              	.L146:
 719:C:/Users/stapi/OneDrive/Desktop/GD32VW553/GD32VW55X_Wifi_BLE_SDK/GD32VW55x_RELEASE_V1.0.2/MSDK/app\iperf.c ****                     case 0x0:
 2380              		.loc 1 719 17
 2381 044a 13070008 		li	a4,128
 719:C:/Users/stapi/OneDrive/Desktop/GD32VW553/GD32VW55X_Wifi_BLE_SDK/GD32VW55x_RELEASE_V1.0.2/MSDK/app\iperf.c ****                     case 0x0:
 2382              		.loc 1 719 38 is_stmt 0
 2383 044e 9375F50F 		andi	a1,a0,255
 719:C:/Users/stapi/OneDrive/Desktop/GD32VW553/GD32VW55X_Wifi_BLE_SDK/GD32VW55x_RELEASE_V1.0.2/MSDK/app\iperf.c ****                     case 0x0:
 2384              		.loc 1 719 17
 2385 0452 6380E706 		beq	a5,a4,.L148
 2386 0456 6364F704 		bgtu	a5,a4,.L149
 2387 045a 13070004 		li	a4,64
 2388 045e 6380E706 		beq	a5,a4,.L150
 2389 0462 6360F702 		bgtu	a5,a4,.L151
 2390 0466 95C3     		beq	a5,zero,.L152
 2391 0468 13070002 		li	a4,32
 2392 046c 6389E704 		beq	a5,a4,.L150
 2393              	.L153:
 737:C:/Users/stapi/OneDrive/Desktop/GD32VW553/GD32VW55X_Wifi_BLE_SDK/GD32VW55x_RELEASE_V1.0.2/MSDK/app\iperf.c ****                         break;
 2394              		.loc 1 737 25 is_stmt 1
 2395 0470 37050000 		lui	a0,%hi(.LC49)
 2396 0474 13050500 		addi	a0,a0,%lo(.LC49)
 2397 0478 97000000 		call	co_printf
 2397      E7800000 
 2398              	.LVL219:
 738:C:/Users/stapi/OneDrive/Desktop/GD32VW553/GD32VW55X_Wifi_BLE_SDK/GD32VW55x_RELEASE_V1.0.2/MSDK/app\iperf.c ****                 }
 2399              		.loc 1 738 25
 2400 0480 D9B1     		j	.L155
 2401              	.L151:
 719:C:/Users/stapi/OneDrive/Desktop/GD32VW553/GD32VW55X_Wifi_BLE_SDK/GD32VW55x_RELEASE_V1.0.2/MSDK/app\iperf.c ****                     case 0x0:
 2402              		.loc 1 719 17 is_stmt 0
 2403 0482 13070006 		li	a4,96
 2404 0486 E395E7FE 		bne	a5,a4,.L153
 2405              	.L152:
 722:C:/Users/stapi/OneDrive/Desktop/GD32VW553/GD32VW55X_Wifi_BLE_SDK/GD32VW55x_RELEASE_V1.0.2/MSDK/app\iperf.c ****                         break;
 2406              		.loc 1 722 25 is_stmt 1
 2407 048a 37050000 		lui	a0,%hi(.LC45)
 2408 048e 1582     		srli	a2,a2,5
 2409 0490 13050500 		addi	a0,a0,%lo(.LC45)
 2410              	.L165:
 726:C:/Users/stapi/OneDrive/Desktop/GD32VW553/GD32VW55X_Wifi_BLE_SDK/GD32VW55x_RELEASE_V1.0.2/MSDK/app\iperf.c ****                         break;
 2411              		.loc 1 726 25 is_stmt 0
 2412 0494 97000000 		call	co_printf
 2412      E7800000 
 2413              	.LVL220:
 727:C:/Users/stapi/OneDrive/Desktop/GD32VW553/GD32VW55X_Wifi_BLE_SDK/GD32VW55x_RELEASE_V1.0.2/MSDK/app\iperf.c ****                     case 0x80:
 2414              		.loc 1 727 25 is_stmt 1
 2415 049c 6DB1     		j	.L155
 2416              	.L149:
 719:C:/Users/stapi/OneDrive/Desktop/GD32VW553/GD32VW55X_Wifi_BLE_SDK/GD32VW55x_RELEASE_V1.0.2/MSDK/app\iperf.c ****                     case 0x0:
 2417              		.loc 1 719 17 is_stmt 0
 2418 049e 13F7F70D 		andi	a4,a5,223
 2419 04a2 9306000C 		li	a3,192
 2420 04a6 6302D702 		beq	a4,a3,.L154
 2421 04aa 1307000A 		li	a4,160
 2422 04ae E391E7FC 		bne	a5,a4,.L153
 2423              	.L148:
 730:C:/Users/stapi/OneDrive/Desktop/GD32VW553/GD32VW55X_Wifi_BLE_SDK/GD32VW55x_RELEASE_V1.0.2/MSDK/app\iperf.c ****                         break;
 2424              		.loc 1 730 25 is_stmt 1
 2425 04b2 37050000 		lui	a0,%hi(.LC47)
 2426 04b6 1582     		srli	a2,a2,5
 2427 04b8 13050500 		addi	a0,a0,%lo(.LC47)
 2428 04bc E1BF     		j	.L165
 2429              	.L150:
 726:C:/Users/stapi/OneDrive/Desktop/GD32VW553/GD32VW55X_Wifi_BLE_SDK/GD32VW55x_RELEASE_V1.0.2/MSDK/app\iperf.c ****                         break;
 2430              		.loc 1 726 25
 2431 04be 37050000 		lui	a0,%hi(.LC46)
 2432 04c2 1582     		srli	a2,a2,5
 2433 04c4 13050500 		addi	a0,a0,%lo(.LC46)
 2434 04c8 F1B7     		j	.L165
 2435              	.L154:
 734:C:/Users/stapi/OneDrive/Desktop/GD32VW553/GD32VW55X_Wifi_BLE_SDK/GD32VW55x_RELEASE_V1.0.2/MSDK/app\iperf.c ****                         break;
 2436              		.loc 1 734 25
 2437 04ca 37050000 		lui	a0,%hi(.LC48)
 2438 04ce 13D65700 		srli	a2,a5,5
 2439 04d2 13050500 		addi	a0,a0,%lo(.LC48)
 2440 04d6 7DBF     		j	.L165
 2441              		.cfi_endproc
 2442              	.LFE25:
 2444              		.globl	streams
 2445              		.globl	net_iperf_bit_lbl
 2446              		.section	.rodata.str1.4,"aMS",@progbits,1
 2447              		.align	2
 2448              	.LC65:
 2449 0000 62697400 		.string	"bit"
 2450              		.align	2
 2451              	.LC66:
 2452 0004 4B626974 		.string	"Kbits"
 2452      7300
 2453 000a 0000     		.align	2
 2454              	.LC67:
 2455 000c 4D626974 		.string	"Mbits"
 2455      7300
 2456 0012 0000     		.align	2
 2457              	.LC68:
 2458 0014 47626974 		.string	"Gbits"
 2458      7300
 2459              		.globl	net_iperf_byte_lbl
 2460 001a 0000     		.align	2
 2461              	.LC69:
 2462 001c 42797465 		.string	"Byte"
 2462      00
 2463 0021 000000   		.align	2
 2464              	.LC70:
 2465 0024 4B427974 		.string	"KByte"
 2465      6500
 2466 002a 0000     		.align	2
 2467              	.LC71:
 2468 002c 4D427974 		.string	"MByte"
 2468      6500
 2469 0032 0000     		.align	2
 2470              	.LC72:
 2471 0034 47427974 		.string	"GByte"
 2471      6500
 2472              		.section	.srodata.cst4,"aM",@progbits,4
 2473              		.align	2
 2474              	.LC6:
 2475 0000 00000041 		.word	1090519040
 2476              		.align	2
 2477              	.LC7:
 2478 0004 00007A44 		.word	1148846080
 2479              		.align	2
 2480              	.LC8:
 2481 0008 0000803A 		.word	981467136
 2482              		.align	2
 2483              	.LC9:
 2484 000c 00008044 		.word	1149239296
 2485              		.align	2
 2486              	.LC10:
 2487 0010 85EB1F41 		.word	1092610949
 2488              		.align	2
 2489              	.LC11:
 2490 0014 0AD7A33B 		.word	1000593162
 2491              		.align	2
 2492              	.LC12:
 2493 0018 0000C842 		.word	1120403456
 2494              		.align	2
 2495              	.LC14:
 2496 001c 66E6C742 		.word	1120396902
 2497              		.align	2
 2498              	.LC15:
 2499 0020 CDCC4C3D 		.word	1028443341
 2500              		.align	2
 2501              	.LC16:
 2502 0024 00002041 		.word	1092616192
 2503              		.align	2
 2504              	.LC18:
 2505 0028 0000003F 		.word	1056964608
 2506              		.align	2
 2507              	.LC20:
 2508 002c 00247449 		.word	1232348160
 2509              		.section	.bss.streams,"aw",@nobits
 2510              		.align	3
 2511              		.set	.LANCHOR2,. + 0
 2514              	streams:
 2515 0000 00000000 		.zero	416
 2515      00000000 
 2515      00000000 
 2515      00000000 
 2515      00000000 
 2516              		.section	.data.net_iperf_bit_lbl,"aw"
 2517              		.align	2
 2518              		.set	.LANCHOR0,. + 0
 2521              	net_iperf_bit_lbl:
 2522 0000 00000000 		.word	.LC65
 2523 0004 00000000 		.word	.LC66
 2524 0008 00000000 		.word	.LC67
 2525 000c 00000000 		.word	.LC68
 2526              		.section	.data.net_iperf_byte_lbl,"aw"
 2527              		.align	2
 2528              		.set	.LANCHOR1,. + 0
 2531              	net_iperf_byte_lbl:
 2532 0000 00000000 		.word	.LC69
 2533 0004 00000000 		.word	.LC70
 2534 0008 00000000 		.word	.LC71
 2535 000c 00000000 		.word	.LC72
 2536              		.text
 2537              	.Letext0:
 2538              		.file 2 "c:\\users\\stapi\\onedrive\\desktop\\gd32vw553\\embeddedbuilder_v1.4.7.26843\\tools\\nucl
 2539              		.file 3 "c:\\users\\stapi\\onedrive\\desktop\\gd32vw553\\embeddedbuilder_v1.4.7.26843\\tools\\nucl
 2540              		.file 4 "..\\..\\..\\..\\lwip\\lwip-2.1.2\\src\\include/lwip/arch.h"
 2541              		.file 5 "..\\..\\..\\..\\lwip\\lwip-2.1.2\\src\\include/lwip/ip4_addr.h"
 2542              		.file 6 "..\\..\\..\\..\\lwip\\lwip-2.1.2\\src\\include/lwip/ip_addr.h"
 2543              		.file 7 "..\\..\\..\\..\\rtos\\rtos_wrapper/wrapper_os.h"
 2544              		.file 8 "..\\..\\..\\..\\lwip\\lwip-2.1.2\\src\\include/lwip/netif.h"
 2545              		.file 9 "..\\..\\..\\..\\plf\\src\\time/systime.h"
 2546              		.file 10 "..\\..\\..\\..\\lwip\\iperf/net_iperf.h"
 2547              		.file 11 "..\\..\\..\\..\\lwip\\lwip-2.1.2\\src\\include/lwip/memp.h"
 2548              		.file 12 "C:/Users/stapi/OneDrive/Desktop/GD32VW553/GD32VW55X_Wifi_BLE_SDK/GD32VW55x_RELEASE_V1.0.
 2549              		.file 13 "..\\..\\..\\..\\lwip\\lwip-2.1.2\\port/arch/sys_arch.h"
 2550              		.file 14 "..\\..\\..\\..\\lwip\\lwip-2.1.2\\src\\include\\lwip/tcpip.h"
 2551              		.file 15 "c:\\users\\stapi\\onedrive\\desktop\\gd32vw553\\embeddedbuilder_v1.4.7.26843\\tools\\nuc
 2552              		.file 16 "..\\..\\..\\..\\util\\include/debug_print.h"
 2553              		.file 17 "c:\\users\\stapi\\onedrive\\desktop\\gd32vw553\\embeddedbuilder_v1.4.7.26843\\tools\\nuc
 2554              		.file 18 "..\\..\\..\\..\\util\\include/util.h"
 2555              		.file 19 "..\\..\\..\\..\\lwip\\iperf/net_iperf_al.h"
 2556              		.file 20 "<built-in>"
DEFINED SYMBOLS
                            *ABS*:0000000000000000 iperf.c
C:\Users\stapi\AppData\Local\Temp\ccjI6QBi.s:31     .text.iperf_main:0000000000000000 iperf_main
C:\Users\stapi\AppData\Local\Temp\ccjI6QBi.s:35     .text.iperf_main:0000000000000000 .L0 
C:\Users\stapi\AppData\Local\Temp\ccjI6QBi.s:37     .text.iperf_main:0000000000000000 .L0 
C:\Users\stapi\AppData\Local\Temp\ccjI6QBi.s:38     .text.iperf_main:0000000000000008 .L0 
C:\Users\stapi\AppData\Local\Temp\ccjI6QBi.s:39     .text.iperf_main:0000000000000008 .L0 
C:\Users\stapi\AppData\Local\Temp\ccjI6QBi.s:40     .text.iperf_main:0000000000000008 .L0 
C:\Users\stapi\AppData\Local\Temp\ccjI6QBi.s:43     .text.iperf_main:0000000000000008 .L0 
C:\Users\stapi\AppData\Local\Temp\ccjI6QBi.s:44     .text.iperf_main:0000000000000008 .L0 
C:\Users\stapi\AppData\Local\Temp\ccjI6QBi.s:45     .text.iperf_main:0000000000000008 .L0 
C:\Users\stapi\AppData\Local\Temp\ccjI6QBi.s:46     .text.iperf_main:0000000000000008 .L0 
C:\Users\stapi\AppData\Local\Temp\ccjI6QBi.s:48     .text.iperf_main:000000000000000a .L0 
C:\Users\stapi\AppData\Local\Temp\ccjI6QBi.s:50     .text.iperf_main:000000000000000c .L0 
C:\Users\stapi\AppData\Local\Temp\ccjI6QBi.s:52     .text.iperf_main:000000000000000e .L0 
C:\Users\stapi\AppData\Local\Temp\ccjI6QBi.s:54     .text.iperf_main:0000000000000012 .L0 
C:\Users\stapi\AppData\Local\Temp\ccjI6QBi.s:60     .text.iperf_main:0000000000000022 .L0 
C:\Users\stapi\AppData\Local\Temp\ccjI6QBi.s:61     .text.iperf_main:0000000000000022 .L0 
C:\Users\stapi\AppData\Local\Temp\ccjI6QBi.s:65     .text.iperf_main:000000000000002c .L0 
C:\Users\stapi\AppData\Local\Temp\ccjI6QBi.s:67     .text.iperf_main:000000000000002e .L0 
C:\Users\stapi\AppData\Local\Temp\ccjI6QBi.s:71     .text.iperf_main:0000000000000036 .L0 
C:\Users\stapi\AppData\Local\Temp\ccjI6QBi.s:75     .text.iperf_main:000000000000003e .L0 
C:\Users\stapi\AppData\Local\Temp\ccjI6QBi.s:76     .text.iperf_main:000000000000003e .L0 
C:\Users\stapi\AppData\Local\Temp\ccjI6QBi.s:80     .text.iperf_main:000000000000004a .L0 
C:\Users\stapi\AppData\Local\Temp\ccjI6QBi.s:84     .text.iperf_main:0000000000000056 .L0 
C:\Users\stapi\AppData\Local\Temp\ccjI6QBi.s:88     .text.iperf_main:0000000000000062 .L0 
C:\Users\stapi\AppData\Local\Temp\ccjI6QBi.s:92     .text.iperf_main:000000000000006e .L0 
C:\Users\stapi\AppData\Local\Temp\ccjI6QBi.s:93     .text.iperf_main:000000000000006e .L0 
C:\Users\stapi\AppData\Local\Temp\ccjI6QBi.s:95     .text.iperf_main:0000000000000070 .L0 
C:\Users\stapi\AppData\Local\Temp\ccjI6QBi.s:97     .text.iperf_main:0000000000000074 .L0 
C:\Users\stapi\AppData\Local\Temp\ccjI6QBi.s:100    .text.iperf_main:000000000000007c .L0 
C:\Users\stapi\AppData\Local\Temp\ccjI6QBi.s:104    .text.iperf_main:0000000000000086 .L0 
C:\Users\stapi\AppData\Local\Temp\ccjI6QBi.s:105    .text.iperf_main:000000000000008e .L0 
C:\Users\stapi\AppData\Local\Temp\ccjI6QBi.s:106    .text.iperf_main:000000000000008e .L0 
C:\Users\stapi\AppData\Local\Temp\ccjI6QBi.s:107    .text.iperf_main:000000000000008e .L0 
C:\Users\stapi\AppData\Local\Temp\ccjI6QBi.s:108    .text.iperf_main:000000000000008e .L0 
C:\Users\stapi\AppData\Local\Temp\ccjI6QBi.s:110    .text.iperf_main:000000000000008e .L0 
C:\Users\stapi\AppData\Local\Temp\ccjI6QBi.s:112    .text.iperf_main:000000000000008e .L0 
C:\Users\stapi\AppData\Local\Temp\ccjI6QBi.s:113    .text.iperf_main:000000000000008e .L0 
C:\Users\stapi\AppData\Local\Temp\ccjI6QBi.s:115    .text.iperf_main:0000000000000092 .L0 
C:\Users\stapi\AppData\Local\Temp\ccjI6QBi.s:117    .text.iperf_main:0000000000000094 .L0 
C:\Users\stapi\AppData\Local\Temp\ccjI6QBi.s:119    .text.iperf_main:0000000000000096 .L0 
C:\Users\stapi\AppData\Local\Temp\ccjI6QBi.s:121    .text.iperf_main:0000000000000098 .L0 
C:\Users\stapi\AppData\Local\Temp\ccjI6QBi.s:124    .text.iperf_main:000000000000009e .L0 
C:\Users\stapi\AppData\Local\Temp\ccjI6QBi.s:125    .text.iperf_main:000000000000009e .L0 
C:\Users\stapi\AppData\Local\Temp\ccjI6QBi.s:127    .text.iperf_main:00000000000000a0 .L0 
C:\Users\stapi\AppData\Local\Temp\ccjI6QBi.s:128    .text.iperf_main:00000000000000a0 .L0 
C:\Users\stapi\AppData\Local\Temp\ccjI6QBi.s:131    .text.iperf_main:00000000000000a8 .L0 
C:\Users\stapi\AppData\Local\Temp\ccjI6QBi.s:133    .text.iperf_main:00000000000000aa .L0 
C:\Users\stapi\AppData\Local\Temp\ccjI6QBi.s:138    .text.iperf_main:00000000000000b4 .L0 
C:\Users\stapi\AppData\Local\Temp\ccjI6QBi.s:139    .text.iperf_main:00000000000000b4 .L0 
C:\Users\stapi\AppData\Local\Temp\ccjI6QBi.s:142    .text.iperf_main:00000000000000bc .L0 
C:\Users\stapi\AppData\Local\Temp\ccjI6QBi.s:144    .text.iperf_main:00000000000000be .L0 
C:\Users\stapi\AppData\Local\Temp\ccjI6QBi.s:149    .text.iperf_main:00000000000000c8 .L0 
C:\Users\stapi\AppData\Local\Temp\ccjI6QBi.s:150    .text.iperf_main:00000000000000c8 .L0 
C:\Users\stapi\AppData\Local\Temp\ccjI6QBi.s:152    .text.iperf_main:00000000000000ca .L0 
C:\Users\stapi\AppData\Local\Temp\ccjI6QBi.s:153    .text.iperf_main:00000000000000ca .L0 
C:\Users\stapi\AppData\Local\Temp\ccjI6QBi.s:156    .text.iperf_main:00000000000000d2 .L0 
C:\Users\stapi\AppData\Local\Temp\ccjI6QBi.s:158    .text.iperf_main:00000000000000d4 .L0 
C:\Users\stapi\AppData\Local\Temp\ccjI6QBi.s:163    .text.iperf_main:00000000000000de .L0 
C:\Users\stapi\AppData\Local\Temp\ccjI6QBi.s:164    .text.iperf_main:00000000000000de .L0 
C:\Users\stapi\AppData\Local\Temp\ccjI6QBi.s:167    .text.iperf_main:00000000000000e6 .L0 
C:\Users\stapi\AppData\Local\Temp\ccjI6QBi.s:169    .text.iperf_main:00000000000000e8 .L0 
C:\Users\stapi\AppData\Local\Temp\ccjI6QBi.s:172    .text.iperf_main:00000000000000f2 .L0 
C:\Users\stapi\AppData\Local\Temp\ccjI6QBi.s:188    .text.iperf_snprintf.constprop.0:0000000000000000 iperf_snprintf.constprop.0
C:\Users\stapi\AppData\Local\Temp\ccjI6QBi.s:191    .text.iperf_snprintf.constprop.0:0000000000000000 .L0 
C:\Users\stapi\AppData\Local\Temp\ccjI6QBi.s:193    .text.iperf_snprintf.constprop.0:0000000000000000 .L0 
C:\Users\stapi\AppData\Local\Temp\ccjI6QBi.s:194    .text.iperf_snprintf.constprop.0:0000000000000008 .L0 
C:\Users\stapi\AppData\Local\Temp\ccjI6QBi.s:195    .text.iperf_snprintf.constprop.0:0000000000000008 .L0 
C:\Users\stapi\AppData\Local\Temp\ccjI6QBi.s:198    .text.iperf_snprintf.constprop.0:0000000000000008 .L0 
C:\Users\stapi\AppData\Local\Temp\ccjI6QBi.s:199    .text.iperf_snprintf.constprop.0:0000000000000008 .L0 
C:\Users\stapi\AppData\Local\Temp\ccjI6QBi.s:200    .text.iperf_snprintf.constprop.0:0000000000000008 .L0 
C:\Users\stapi\AppData\Local\Temp\ccjI6QBi.s:201    .text.iperf_snprintf.constprop.0:0000000000000008 .L0 
C:\Users\stapi\AppData\Local\Temp\ccjI6QBi.s:202    .text.iperf_snprintf.constprop.0:0000000000000008 .L0 
C:\Users\stapi\AppData\Local\Temp\ccjI6QBi.s:203    .text.iperf_snprintf.constprop.0:0000000000000008 .L0 
C:\Users\stapi\AppData\Local\Temp\ccjI6QBi.s:240    .text.iperf_snprintf.constprop.0:0000000000000038 .L0 
C:\Users\stapi\AppData\Local\Temp\ccjI6QBi.s:241    .text.iperf_snprintf.constprop.0:0000000000000038 .L0 
C:\Users\stapi\AppData\Local\Temp\ccjI6QBi.s:244    .text.iperf_snprintf.constprop.0:0000000000000040 .L0 
C:\Users\stapi\AppData\Local\Temp\ccjI6QBi.s:246    .text.iperf_snprintf.constprop.0:0000000000000044 .L0 
C:\Users\stapi\AppData\Local\Temp\ccjI6QBi.s:248    .text.iperf_snprintf.constprop.0:0000000000000048 .L0 
C:\Users\stapi\AppData\Local\Temp\ccjI6QBi.s:250    .text.iperf_snprintf.constprop.0:000000000000004c .L0 
C:\Users\stapi\AppData\Local\Temp\ccjI6QBi.s:253    .text.iperf_snprintf.constprop.0:000000000000004e .L0 
C:\Users\stapi\AppData\Local\Temp\ccjI6QBi.s:254    .text.iperf_snprintf.constprop.0:000000000000004e .L0 
C:\Users\stapi\AppData\Local\Temp\ccjI6QBi.s:258    .text.iperf_snprintf.constprop.0:0000000000000052 .L0 
C:\Users\stapi\AppData\Local\Temp\ccjI6QBi.s:259    .text.iperf_snprintf.constprop.0:0000000000000052 .L0 
C:\Users\stapi\AppData\Local\Temp\ccjI6QBi.s:264    .text.iperf_snprintf.constprop.0:0000000000000058 .L0 
C:\Users\stapi\AppData\Local\Temp\ccjI6QBi.s:266    .text.iperf_snprintf.constprop.0:000000000000005c .L0 
C:\Users\stapi\AppData\Local\Temp\ccjI6QBi.s:267    .text.iperf_snprintf.constprop.0:000000000000005c .L0 
C:\Users\stapi\AppData\Local\Temp\ccjI6QBi.s:273    .text.iperf_snprintf.constprop.0:0000000000000062 .L0 
C:\Users\stapi\AppData\Local\Temp\ccjI6QBi.s:279    .text.iperf_snprintf.constprop.0:0000000000000074 .L0 
C:\Users\stapi\AppData\Local\Temp\ccjI6QBi.s:281    .text.iperf_snprintf.constprop.0:0000000000000076 .L0 
C:\Users\stapi\AppData\Local\Temp\ccjI6QBi.s:284    .text.iperf_snprintf.constprop.0:000000000000007e .L0 
C:\Users\stapi\AppData\Local\Temp\ccjI6QBi.s:287    .text.iperf_snprintf.constprop.0:0000000000000080 .L0 
C:\Users\stapi\AppData\Local\Temp\ccjI6QBi.s:291    .text.iperf_snprintf.constprop.0:0000000000000084 .L0 
C:\Users\stapi\AppData\Local\Temp\ccjI6QBi.s:293    .text.iperf_snprintf.constprop.0:0000000000000084 .L0 
C:\Users\stapi\AppData\Local\Temp\ccjI6QBi.s:294    .text.iperf_snprintf.constprop.0:0000000000000084 .L0 
C:\Users\stapi\AppData\Local\Temp\ccjI6QBi.s:295    .text.iperf_snprintf.constprop.0:0000000000000084 .L0 
C:\Users\stapi\AppData\Local\Temp\ccjI6QBi.s:298    .text.iperf_snprintf.constprop.0:000000000000008c .L0 
C:\Users\stapi\AppData\Local\Temp\ccjI6QBi.s:301    .text.iperf_snprintf.constprop.0:0000000000000094 .L0 
C:\Users\stapi\AppData\Local\Temp\ccjI6QBi.s:305    .text.iperf_snprintf.constprop.0:0000000000000098 .L0 
C:\Users\stapi\AppData\Local\Temp\ccjI6QBi.s:308    .text.iperf_snprintf.constprop.0:000000000000009a .L0 
C:\Users\stapi\AppData\Local\Temp\ccjI6QBi.s:312    .text.iperf_snprintf.constprop.0:000000000000009c .L0 
C:\Users\stapi\AppData\Local\Temp\ccjI6QBi.s:313    .text.iperf_snprintf.constprop.0:000000000000009c .L0 
C:\Users\stapi\AppData\Local\Temp\ccjI6QBi.s:316    .text.iperf_snprintf.constprop.0:00000000000000a2 .L0 
C:\Users\stapi\AppData\Local\Temp\ccjI6QBi.s:321    .text.iperf_snprintf.constprop.0:00000000000000a6 .L0 
C:\Users\stapi\AppData\Local\Temp\ccjI6QBi.s:322    .text.iperf_snprintf.constprop.0:00000000000000a6 .L0 
C:\Users\stapi\AppData\Local\Temp\ccjI6QBi.s:325    .text.iperf_snprintf.constprop.0:00000000000000ae .L0 
C:\Users\stapi\AppData\Local\Temp\ccjI6QBi.s:328    .text.iperf_snprintf.constprop.0:00000000000000b6 .L0 
C:\Users\stapi\AppData\Local\Temp\ccjI6QBi.s:330    .text.iperf_snprintf.constprop.0:00000000000000ba .L0 
C:\Users\stapi\AppData\Local\Temp\ccjI6QBi.s:333    .text.iperf_snprintf.constprop.0:00000000000000be .L0 
C:\Users\stapi\AppData\Local\Temp\ccjI6QBi.s:334    .text.iperf_snprintf.constprop.0:00000000000000be .L0 
C:\Users\stapi\AppData\Local\Temp\ccjI6QBi.s:336    .text.iperf_snprintf.constprop.0:00000000000000c2 .L0 
C:\Users\stapi\AppData\Local\Temp\ccjI6QBi.s:338    .text.iperf_snprintf.constprop.0:00000000000000c6 .L0 
C:\Users\stapi\AppData\Local\Temp\ccjI6QBi.s:341    .text.iperf_snprintf.constprop.0:00000000000000c8 .L0 
C:\Users\stapi\AppData\Local\Temp\ccjI6QBi.s:342    .text.iperf_snprintf.constprop.0:00000000000000c8 .L0 
C:\Users\stapi\AppData\Local\Temp\ccjI6QBi.s:346    .text.iperf_snprintf.constprop.0:00000000000000cc .L0 
C:\Users\stapi\AppData\Local\Temp\ccjI6QBi.s:347    .text.iperf_snprintf.constprop.0:00000000000000cc .L0 
C:\Users\stapi\AppData\Local\Temp\ccjI6QBi.s:352    .text.iperf_snprintf.constprop.0:00000000000000d2 .L0 
C:\Users\stapi\AppData\Local\Temp\ccjI6QBi.s:356    .text.iperf_snprintf.constprop.0:00000000000000d6 .L0 
C:\Users\stapi\AppData\Local\Temp\ccjI6QBi.s:357    .text.iperf_snprintf.constprop.0:00000000000000d6 .L0 
C:\Users\stapi\AppData\Local\Temp\ccjI6QBi.s:358    .text.iperf_snprintf.constprop.0:00000000000000d6 .L0 
C:\Users\stapi\AppData\Local\Temp\ccjI6QBi.s:364    .text.iperf_snprintf.constprop.0:00000000000000e4 .L0 
C:\Users\stapi\AppData\Local\Temp\ccjI6QBi.s:365    .text.iperf_snprintf.constprop.0:00000000000000e4 .L0 
C:\Users\stapi\AppData\Local\Temp\ccjI6QBi.s:366    .text.iperf_snprintf.constprop.0:00000000000000e4 .L0 
C:\Users\stapi\AppData\Local\Temp\ccjI6QBi.s:369    .text.iperf_snprintf.constprop.0:00000000000000ec .L0 
C:\Users\stapi\AppData\Local\Temp\ccjI6QBi.s:371    .text.iperf_snprintf.constprop.0:00000000000000f0 .L0 
C:\Users\stapi\AppData\Local\Temp\ccjI6QBi.s:373    .text.iperf_snprintf.constprop.0:00000000000000f4 .L0 
C:\Users\stapi\AppData\Local\Temp\ccjI6QBi.s:376    .text.iperf_snprintf.constprop.0:00000000000000f8 .L0 
C:\Users\stapi\AppData\Local\Temp\ccjI6QBi.s:377    .text.iperf_snprintf.constprop.0:00000000000000f8 .L0 
C:\Users\stapi\AppData\Local\Temp\ccjI6QBi.s:379    .text.iperf_snprintf.constprop.0:00000000000000fc .L0 
C:\Users\stapi\AppData\Local\Temp\ccjI6QBi.s:381    .text.iperf_snprintf.constprop.0:0000000000000100 .L0 
C:\Users\stapi\AppData\Local\Temp\ccjI6QBi.s:383    .text.iperf_snprintf.constprop.0:0000000000000104 .L0 
C:\Users\stapi\AppData\Local\Temp\ccjI6QBi.s:386    .text.iperf_snprintf.constprop.0:0000000000000108 .L0 
C:\Users\stapi\AppData\Local\Temp\ccjI6QBi.s:387    .text.iperf_snprintf.constprop.0:0000000000000108 .L0 
C:\Users\stapi\AppData\Local\Temp\ccjI6QBi.s:388    .text.iperf_snprintf.constprop.0:0000000000000108 .L0 
C:\Users\stapi\AppData\Local\Temp\ccjI6QBi.s:391    .text.iperf_snprintf.constprop.0:000000000000010c .L0 
C:\Users\stapi\AppData\Local\Temp\ccjI6QBi.s:393    .text.iperf_snprintf.constprop.0:0000000000000110 .L0 
C:\Users\stapi\AppData\Local\Temp\ccjI6QBi.s:396    .text.iperf_snprintf.constprop.0:0000000000000118 .L0 
C:\Users\stapi\AppData\Local\Temp\ccjI6QBi.s:400    .text.iperf_snprintf.constprop.0:000000000000011c .L0 
C:\Users\stapi\AppData\Local\Temp\ccjI6QBi.s:405    .text.iperf_snprintf.constprop.0:0000000000000126 .L0 
C:\Users\stapi\AppData\Local\Temp\ccjI6QBi.s:406    .text.iperf_snprintf.constprop.0:000000000000012e .L0 
C:\Users\stapi\AppData\Local\Temp\ccjI6QBi.s:407    .text.iperf_snprintf.constprop.0:000000000000012e .L0 
C:\Users\stapi\AppData\Local\Temp\ccjI6QBi.s:408    .text.iperf_snprintf.constprop.0:000000000000012e .L0 
C:\Users\stapi\AppData\Local\Temp\ccjI6QBi.s:411    .text.iperf_snprintf.constprop.0:000000000000012e .L0 
C:\Users\stapi\AppData\Local\Temp\ccjI6QBi.s:413    .text.iperf_snprintf.constprop.0:000000000000012e .L0 
C:\Users\stapi\AppData\Local\Temp\ccjI6QBi.s:415    .text.iperf_snprintf.constprop.0:0000000000000132 .L0 
C:\Users\stapi\AppData\Local\Temp\ccjI6QBi.s:420    .text.iperf_snprintf.constprop.0:0000000000000136 .L0 
C:\Users\stapi\AppData\Local\Temp\ccjI6QBi.s:421    .text.iperf_snprintf.constprop.0:0000000000000136 .L0 
C:\Users\stapi\AppData\Local\Temp\ccjI6QBi.s:422    .text.iperf_snprintf.constprop.0:0000000000000136 .L0 
C:\Users\stapi\AppData\Local\Temp\ccjI6QBi.s:423    .text.iperf_snprintf.constprop.0:0000000000000136 .L0 
C:\Users\stapi\AppData\Local\Temp\ccjI6QBi.s:429    .text.iperf_snprintf.constprop.0:000000000000013a .L0 
C:\Users\stapi\AppData\Local\Temp\ccjI6QBi.s:430    .text.iperf_snprintf.constprop.0:000000000000013a .L0 
C:\Users\stapi\AppData\Local\Temp\ccjI6QBi.s:433    .text.iperf_snprintf.constprop.0:000000000000013c .L0 
C:\Users\stapi\AppData\Local\Temp\ccjI6QBi.s:436    .text.iperf_snprintf.constprop.0:0000000000000140 .L0 
C:\Users\stapi\AppData\Local\Temp\ccjI6QBi.s:437    .text.iperf_snprintf.constprop.0:0000000000000140 .L0 
C:\Users\stapi\AppData\Local\Temp\ccjI6QBi.s:445    .text.iperf_snprintf.constprop.0:0000000000000146 .L0 
C:\Users\stapi\AppData\Local\Temp\ccjI6QBi.s:446    .text.iperf_snprintf.constprop.0:0000000000000146 .L0 
C:\Users\stapi\AppData\Local\Temp\ccjI6QBi.s:449    .text.iperf_snprintf.constprop.0:000000000000014a .L0 
C:\Users\stapi\AppData\Local\Temp\ccjI6QBi.s:450    .text.iperf_snprintf.constprop.0:000000000000014a .L0 
C:\Users\stapi\AppData\Local\Temp\ccjI6QBi.s:456    .text.iperf_snprintf.constprop.0:0000000000000150 .L0 
C:\Users\stapi\AppData\Local\Temp\ccjI6QBi.s:457    .text.iperf_snprintf.constprop.0:0000000000000150 .L0 
C:\Users\stapi\AppData\Local\Temp\ccjI6QBi.s:460    .text.iperf_snprintf.constprop.0:0000000000000158 .L0 
C:\Users\stapi\AppData\Local\Temp\ccjI6QBi.s:465    .text.iperf_snprintf.constprop.0:000000000000015e .L0 
C:\Users\stapi\AppData\Local\Temp\ccjI6QBi.s:467    .text.iperf_snprintf.constprop.0:0000000000000162 .L0 
C:\Users\stapi\AppData\Local\Temp\ccjI6QBi.s:469    .text.iperf_snprintf.constprop.0:0000000000000166 .L0 
C:\Users\stapi\AppData\Local\Temp\ccjI6QBi.s:472    .text.iperf_snprintf.constprop.0:000000000000016a .L0 
C:\Users\stapi\AppData\Local\Temp\ccjI6QBi.s:475    .text.iperf_snprintf.constprop.0:000000000000016e .L0 
C:\Users\stapi\AppData\Local\Temp\ccjI6QBi.s:478    .text.iperf_snprintf.constprop.0:0000000000000172 .L0 
C:\Users\stapi\AppData\Local\Temp\ccjI6QBi.s:481    .text.iperf_snprintf.constprop.0:0000000000000174 .L0 
C:\Users\stapi\AppData\Local\Temp\ccjI6QBi.s:487    .text.iperf_snprintf.constprop.0:0000000000000178 .L0 
C:\Users\stapi\AppData\Local\Temp\ccjI6QBi.s:488    .text.iperf_snprintf.constprop.0:0000000000000178 .L0 
C:\Users\stapi\AppData\Local\Temp\ccjI6QBi.s:494    .text.iperf_snprintf.constprop.0:000000000000017e .L0 
C:\Users\stapi\AppData\Local\Temp\ccjI6QBi.s:498    .text.iperf_snprintf.constprop.0:0000000000000182 .L0 
C:\Users\stapi\AppData\Local\Temp\ccjI6QBi.s:503    .text.iperf_snprintf.constprop.0:0000000000000186 .L0 
C:\Users\stapi\AppData\Local\Temp\ccjI6QBi.s:504    .text.iperf_snprintf.constprop.0:0000000000000186 .L0 
C:\Users\stapi\AppData\Local\Temp\ccjI6QBi.s:510    .text.iperf_snprintf.constprop.0:0000000000000194 .L0 
C:\Users\stapi\AppData\Local\Temp\ccjI6QBi.s:511    .text.iperf_snprintf.constprop.0:0000000000000194 .L0 
C:\Users\stapi\AppData\Local\Temp\ccjI6QBi.s:512    .text.iperf_snprintf.constprop.0:0000000000000194 .L0 
C:\Users\stapi\AppData\Local\Temp\ccjI6QBi.s:515    .text.iperf_snprintf.constprop.0:000000000000019c .L0 
C:\Users\stapi\AppData\Local\Temp\ccjI6QBi.s:517    .text.iperf_snprintf.constprop.0:00000000000001a0 .L0 
C:\Users\stapi\AppData\Local\Temp\ccjI6QBi.s:519    .text.iperf_snprintf.constprop.0:00000000000001a4 .L0 
C:\Users\stapi\AppData\Local\Temp\ccjI6QBi.s:522    .text.iperf_snprintf.constprop.0:00000000000001a8 .L0 
C:\Users\stapi\AppData\Local\Temp\ccjI6QBi.s:523    .text.iperf_snprintf.constprop.0:00000000000001a8 .L0 
C:\Users\stapi\AppData\Local\Temp\ccjI6QBi.s:525    .text.iperf_snprintf.constprop.0:00000000000001ac .L0 
C:\Users\stapi\AppData\Local\Temp\ccjI6QBi.s:527    .text.iperf_snprintf.constprop.0:00000000000001ae .L0 
C:\Users\stapi\AppData\Local\Temp\ccjI6QBi.s:529    .text.iperf_snprintf.constprop.0:00000000000001b2 .L0 
C:\Users\stapi\AppData\Local\Temp\ccjI6QBi.s:532    .text.iperf_snprintf.constprop.0:00000000000001b6 .L0 
C:\Users\stapi\AppData\Local\Temp\ccjI6QBi.s:533    .text.iperf_snprintf.constprop.0:00000000000001b6 .L0 
C:\Users\stapi\AppData\Local\Temp\ccjI6QBi.s:534    .text.iperf_snprintf.constprop.0:00000000000001b6 .L0 
C:\Users\stapi\AppData\Local\Temp\ccjI6QBi.s:537    .text.iperf_snprintf.constprop.0:00000000000001ba .L0 
C:\Users\stapi\AppData\Local\Temp\ccjI6QBi.s:539    .text.iperf_snprintf.constprop.0:00000000000001be .L0 
C:\Users\stapi\AppData\Local\Temp\ccjI6QBi.s:542    .text.iperf_snprintf.constprop.0:00000000000001c6 .L0 
C:\Users\stapi\AppData\Local\Temp\ccjI6QBi.s:548    .text.iperf_snprintf.constprop.0:00000000000001cc .L0 
C:\Users\stapi\AppData\Local\Temp\ccjI6QBi.s:549    .text.iperf_snprintf.constprop.0:00000000000001cc .L0 
C:\Users\stapi\AppData\Local\Temp\ccjI6QBi.s:550    .text.iperf_snprintf.constprop.0:00000000000001cc .L0 
C:\Users\stapi\AppData\Local\Temp\ccjI6QBi.s:551    .text.iperf_snprintf.constprop.0:00000000000001cc .L0 
C:\Users\stapi\AppData\Local\Temp\ccjI6QBi.s:552    .text.iperf_snprintf.constprop.0:00000000000001cc .L0 
C:\Users\stapi\AppData\Local\Temp\ccjI6QBi.s:555    .text.iperf_snprintf.constprop.0:00000000000001d4 .L0 
C:\Users\stapi\AppData\Local\Temp\ccjI6QBi.s:558    .text.iperf_snprintf.constprop.0:00000000000001da .L0 
C:\Users\stapi\AppData\Local\Temp\ccjI6QBi.s:561    .text.iperf_snprintf.constprop.0:00000000000001de .L0 
C:\Users\stapi\AppData\Local\Temp\ccjI6QBi.s:568    .text.iperf_snprintf.constprop.0:00000000000001f0 .L0 
C:\Users\stapi\AppData\Local\Temp\ccjI6QBi.s:569    .text.iperf_snprintf.constprop.0:00000000000001f2 .L0 
C:\Users\stapi\AppData\Local\Temp\ccjI6QBi.s:576    .text.iperf_settings_init:0000000000000000 iperf_settings_init
C:\Users\stapi\AppData\Local\Temp\ccjI6QBi.s:579    .text.iperf_settings_init:0000000000000000 .L0 
C:\Users\stapi\AppData\Local\Temp\ccjI6QBi.s:581    .text.iperf_settings_init:0000000000000000 .L0 
C:\Users\stapi\AppData\Local\Temp\ccjI6QBi.s:582    .text.iperf_settings_init:0000000000000008 .L0 
C:\Users\stapi\AppData\Local\Temp\ccjI6QBi.s:583    .text.iperf_settings_init:0000000000000008 .L0 
C:\Users\stapi\AppData\Local\Temp\ccjI6QBi.s:584    .text.iperf_settings_init:0000000000000008 .L0 
C:\Users\stapi\AppData\Local\Temp\ccjI6QBi.s:586    .text.iperf_settings_init:0000000000000008 .L0 
C:\Users\stapi\AppData\Local\Temp\ccjI6QBi.s:589    .text.iperf_settings_init:000000000000000e .L0 
C:\Users\stapi\AppData\Local\Temp\ccjI6QBi.s:591    .text.iperf_settings_init:0000000000000010 .L0 
C:\Users\stapi\AppData\Local\Temp\ccjI6QBi.s:594    .text.iperf_settings_init:0000000000000018 .L0 
C:\Users\stapi\AppData\Local\Temp\ccjI6QBi.s:595    .text.iperf_settings_init:0000000000000018 .L0 
C:\Users\stapi\AppData\Local\Temp\ccjI6QBi.s:596    .text.iperf_settings_init:0000000000000018 .L0 
C:\Users\stapi\AppData\Local\Temp\ccjI6QBi.s:597    .text.iperf_settings_init:0000000000000018 .L0 
C:\Users\stapi\AppData\Local\Temp\ccjI6QBi.s:600    .text.iperf_settings_init:000000000000001c .L0 
C:\Users\stapi\AppData\Local\Temp\ccjI6QBi.s:601    .text.iperf_settings_init:000000000000001c .L0 
C:\Users\stapi\AppData\Local\Temp\ccjI6QBi.s:605    .text.iperf_settings_init:0000000000000026 .L0 
C:\Users\stapi\AppData\Local\Temp\ccjI6QBi.s:606    .text.iperf_settings_init:0000000000000026 .L0 
C:\Users\stapi\AppData\Local\Temp\ccjI6QBi.s:609    .text.iperf_settings_init:000000000000002a .L0 
C:\Users\stapi\AppData\Local\Temp\ccjI6QBi.s:610    .text.iperf_settings_init:000000000000002a .L0 
C:\Users\stapi\AppData\Local\Temp\ccjI6QBi.s:613    .text.iperf_settings_init:000000000000002e .L0 
C:\Users\stapi\AppData\Local\Temp\ccjI6QBi.s:614    .text.iperf_settings_init:000000000000002e .L0 
C:\Users\stapi\AppData\Local\Temp\ccjI6QBi.s:616    .text.iperf_settings_init:0000000000000032 .L0 
C:\Users\stapi\AppData\Local\Temp\ccjI6QBi.s:619    .text.iperf_settings_init:0000000000000036 .L0 
C:\Users\stapi\AppData\Local\Temp\ccjI6QBi.s:623    .text.iperf_settings_init:0000000000000042 .L0 
C:\Users\stapi\AppData\Local\Temp\ccjI6QBi.s:624    .text.iperf_settings_init:0000000000000042 .L0 
C:\Users\stapi\AppData\Local\Temp\ccjI6QBi.s:627    .text.iperf_settings_init:000000000000004a .L0 
C:\Users\stapi\AppData\Local\Temp\ccjI6QBi.s:628    .text.iperf_settings_init:000000000000004a .L0 
C:\Users\stapi\AppData\Local\Temp\ccjI6QBi.s:631    .text.iperf_settings_init:0000000000000052 .L0 
C:\Users\stapi\AppData\Local\Temp\ccjI6QBi.s:632    .text.iperf_settings_init:000000000000005a .L0 
C:\Users\stapi\AppData\Local\Temp\ccjI6QBi.s:633    .text.iperf_settings_init:000000000000005a .L0 
C:\Users\stapi\AppData\Local\Temp\ccjI6QBi.s:634    .text.iperf_settings_init:000000000000005a .L0 
C:\Users\stapi\AppData\Local\Temp\ccjI6QBi.s:635    .text.iperf_settings_init:000000000000005a .L0 
C:\Users\stapi\AppData\Local\Temp\ccjI6QBi.s:642    .text.iperf_init_stats:0000000000000000 iperf_init_stats
C:\Users\stapi\AppData\Local\Temp\ccjI6QBi.s:645    .text.iperf_init_stats:0000000000000000 .L0 
C:\Users\stapi\AppData\Local\Temp\ccjI6QBi.s:647    .text.iperf_init_stats:0000000000000000 .L0 
C:\Users\stapi\AppData\Local\Temp\ccjI6QBi.s:648    .text.iperf_init_stats:0000000000000008 .L0 
C:\Users\stapi\AppData\Local\Temp\ccjI6QBi.s:649    .text.iperf_init_stats:0000000000000008 .L0 
C:\Users\stapi\AppData\Local\Temp\ccjI6QBi.s:650    .text.iperf_init_stats:0000000000000008 .L0 
C:\Users\stapi\AppData\Local\Temp\ccjI6QBi.s:653    .text.iperf_init_stats:0000000000000008 .L0 
C:\Users\stapi\AppData\Local\Temp\ccjI6QBi.s:654    .text.iperf_init_stats:0000000000000008 .L0 
C:\Users\stapi\AppData\Local\Temp\ccjI6QBi.s:655    .text.iperf_init_stats:0000000000000008 .L0 
C:\Users\stapi\AppData\Local\Temp\ccjI6QBi.s:656    .text.iperf_init_stats:0000000000000008 .L0 
C:\Users\stapi\AppData\Local\Temp\ccjI6QBi.s:658    .text.iperf_init_stats:000000000000000a .L0 
C:\Users\stapi\AppData\Local\Temp\ccjI6QBi.s:665    .text.iperf_init_stats:000000000000001a .L0 
C:\Users\stapi\AppData\Local\Temp\ccjI6QBi.s:671    .text.iperf_init_stats:000000000000002a .L0 
C:\Users\stapi\AppData\Local\Temp\ccjI6QBi.s:677    .text.iperf_init_stats:000000000000003c .L0 
C:\Users\stapi\AppData\Local\Temp\ccjI6QBi.s:678    .text.iperf_init_stats:000000000000003c .L0 
C:\Users\stapi\AppData\Local\Temp\ccjI6QBi.s:679    .text.iperf_init_stats:000000000000003c .L0 
C:\Users\stapi\AppData\Local\Temp\ccjI6QBi.s:681    .text.iperf_init_stats:0000000000000040 .L0 
C:\Users\stapi\AppData\Local\Temp\ccjI6QBi.s:684    .text.iperf_init_stats:0000000000000046 .L0 
C:\Users\stapi\AppData\Local\Temp\ccjI6QBi.s:690    .text.iperf_init_stats:0000000000000052 .L0 
C:\Users\stapi\AppData\Local\Temp\ccjI6QBi.s:695    .text.iperf_init_stats:000000000000005a .L0 
C:\Users\stapi\AppData\Local\Temp\ccjI6QBi.s:699    .text.iperf_init_stats:0000000000000062 .L0 
C:\Users\stapi\AppData\Local\Temp\ccjI6QBi.s:702    .text.iperf_init_stats:000000000000006a .L0 
C:\Users\stapi\AppData\Local\Temp\ccjI6QBi.s:703    .text.iperf_init_stats:000000000000006a .L0 
C:\Users\stapi\AppData\Local\Temp\ccjI6QBi.s:704    .text.iperf_init_stats:000000000000006a .L0 
C:\Users\stapi\AppData\Local\Temp\ccjI6QBi.s:711    .text.iperf_init_stats:0000000000000076 .L0 
C:\Users\stapi\AppData\Local\Temp\ccjI6QBi.s:712    .text.iperf_init_stats:0000000000000076 .L0 
C:\Users\stapi\AppData\Local\Temp\ccjI6QBi.s:714    .text.iperf_init_stats:0000000000000078 .L0 
C:\Users\stapi\AppData\Local\Temp\ccjI6QBi.s:717    .text.iperf_init_stats:000000000000007e .L0 
C:\Users\stapi\AppData\Local\Temp\ccjI6QBi.s:721    .text.iperf_init_stats:0000000000000082 .L0 
C:\Users\stapi\AppData\Local\Temp\ccjI6QBi.s:723    .text.iperf_init_stats:0000000000000082 .L0 
C:\Users\stapi\AppData\Local\Temp\ccjI6QBi.s:724    .text.iperf_init_stats:0000000000000082 .L0 
C:\Users\stapi\AppData\Local\Temp\ccjI6QBi.s:725    .text.iperf_init_stats:0000000000000082 .L0 
C:\Users\stapi\AppData\Local\Temp\ccjI6QBi.s:731    .text.iperf_init_stats:000000000000008e .L0 
C:\Users\stapi\AppData\Local\Temp\ccjI6QBi.s:737    .text.iperf_init_stats:000000000000009a .L0 
C:\Users\stapi\AppData\Local\Temp\ccjI6QBi.s:741    .text.iperf_init_stats:00000000000000a2 .L0 
C:\Users\stapi\AppData\Local\Temp\ccjI6QBi.s:747    .text.iperf_init_stats:00000000000000aa .L0 
C:\Users\stapi\AppData\Local\Temp\ccjI6QBi.s:748    .text.iperf_init_stats:00000000000000b2 .L0 
C:\Users\stapi\AppData\Local\Temp\ccjI6QBi.s:749    .text.iperf_init_stats:00000000000000b2 .L0 
C:\Users\stapi\AppData\Local\Temp\ccjI6QBi.s:750    .text.iperf_init_stats:00000000000000b2 .L0 
C:\Users\stapi\AppData\Local\Temp\ccjI6QBi.s:751    .text.iperf_init_stats:00000000000000b2 .L0 
C:\Users\stapi\AppData\Local\Temp\ccjI6QBi.s:753    .text.iperf_init_stats:00000000000000b2 .L0 
C:\Users\stapi\AppData\Local\Temp\ccjI6QBi.s:755    .text.iperf_init_stats:00000000000000b2 .L0 
C:\Users\stapi\AppData\Local\Temp\ccjI6QBi.s:758    .text.iperf_init_stats:00000000000000b8 .L0 
C:\Users\stapi\AppData\Local\Temp\ccjI6QBi.s:766    .text.iperf_init_stats:00000000000000c4 .L0 
C:\Users\stapi\AppData\Local\Temp\ccjI6QBi.s:769    .text.iperf_init_stats:00000000000000ca .L0 
C:\Users\stapi\AppData\Local\Temp\ccjI6QBi.s:774    .text.iperf_init_stats:00000000000000d6 .L0 
C:\Users\stapi\AppData\Local\Temp\ccjI6QBi.s:795    .text.iperf_print_stats:0000000000000000 iperf_print_stats
C:\Users\stapi\AppData\Local\Temp\ccjI6QBi.s:798    .text.iperf_print_stats:0000000000000000 .L0 
C:\Users\stapi\AppData\Local\Temp\ccjI6QBi.s:800    .text.iperf_print_stats:0000000000000000 .L0 
C:\Users\stapi\AppData\Local\Temp\ccjI6QBi.s:801    .text.iperf_print_stats:0000000000000008 .L0 
C:\Users\stapi\AppData\Local\Temp\ccjI6QBi.s:802    .text.iperf_print_stats:0000000000000008 .L0 
C:\Users\stapi\AppData\Local\Temp\ccjI6QBi.s:803    .text.iperf_print_stats:0000000000000008 .L0 
C:\Users\stapi\AppData\Local\Temp\ccjI6QBi.s:804    .text.iperf_print_stats:0000000000000008 .L0 
C:\Users\stapi\AppData\Local\Temp\ccjI6QBi.s:805    .text.iperf_print_stats:0000000000000008 .L0 
C:\Users\stapi\AppData\Local\Temp\ccjI6QBi.s:806    .text.iperf_print_stats:0000000000000008 .L0 
C:\Users\stapi\AppData\Local\Temp\ccjI6QBi.s:807    .text.iperf_print_stats:0000000000000008 .L0 
C:\Users\stapi\AppData\Local\Temp\ccjI6QBi.s:808    .text.iperf_print_stats:0000000000000008 .L0 
C:\Users\stapi\AppData\Local\Temp\ccjI6QBi.s:809    .text.iperf_print_stats:0000000000000008 .L0 
C:\Users\stapi\AppData\Local\Temp\ccjI6QBi.s:810    .text.iperf_print_stats:0000000000000008 .L0 
C:\Users\stapi\AppData\Local\Temp\ccjI6QBi.s:811    .text.iperf_print_stats:0000000000000008 .L0 
C:\Users\stapi\AppData\Local\Temp\ccjI6QBi.s:814    .text.iperf_print_stats:0000000000000008 .L0 
C:\Users\stapi\AppData\Local\Temp\ccjI6QBi.s:815    .text.iperf_print_stats:0000000000000008 .L0 
C:\Users\stapi\AppData\Local\Temp\ccjI6QBi.s:818    .text.iperf_print_stats:000000000000000c .L0 
C:\Users\stapi\AppData\Local\Temp\ccjI6QBi.s:821    .text.iperf_print_stats:000000000000000e .L0 
C:\Users\stapi\AppData\Local\Temp\ccjI6QBi.s:828    .text.iperf_print_stats:0000000000000016 .L0 
C:\Users\stapi\AppData\Local\Temp\ccjI6QBi.s:829    .text.iperf_print_stats:0000000000000018 .L0 
C:\Users\stapi\AppData\Local\Temp\ccjI6QBi.s:833    .text.iperf_print_stats:000000000000001a .L0 
C:\Users\stapi\AppData\Local\Temp\ccjI6QBi.s:834    .text.iperf_print_stats:000000000000001a .L0 
C:\Users\stapi\AppData\Local\Temp\ccjI6QBi.s:835    .text.iperf_print_stats:000000000000001a .L0 
C:\Users\stapi\AppData\Local\Temp\ccjI6QBi.s:836    .text.iperf_print_stats:000000000000001a .L0 
C:\Users\stapi\AppData\Local\Temp\ccjI6QBi.s:837    .text.iperf_print_stats:000000000000001a .L0 
C:\Users\stapi\AppData\Local\Temp\ccjI6QBi.s:838    .text.iperf_print_stats:000000000000001a .L0 
C:\Users\stapi\AppData\Local\Temp\ccjI6QBi.s:840    .text.iperf_print_stats:000000000000001a .L0 
C:\Users\stapi\AppData\Local\Temp\ccjI6QBi.s:841    .text.iperf_print_stats:000000000000001a .L0 
C:\Users\stapi\AppData\Local\Temp\ccjI6QBi.s:843    .text.iperf_print_stats:000000000000001a .L0 
C:\Users\stapi\AppData\Local\Temp\ccjI6QBi.s:844    .text.iperf_print_stats:000000000000001a .L0 
C:\Users\stapi\AppData\Local\Temp\ccjI6QBi.s:845    .text.iperf_print_stats:000000000000001c .L0 
C:\Users\stapi\AppData\Local\Temp\ccjI6QBi.s:848    .text.iperf_print_stats:000000000000001c .L0 
C:\Users\stapi\AppData\Local\Temp\ccjI6QBi.s:853    .text.iperf_print_stats:0000000000000024 .L0 
C:\Users\stapi\AppData\Local\Temp\ccjI6QBi.s:854    .text.iperf_print_stats:0000000000000024 .L0 
C:\Users\stapi\AppData\Local\Temp\ccjI6QBi.s:855    .text.iperf_print_stats:0000000000000024 .L0 
C:\Users\stapi\AppData\Local\Temp\ccjI6QBi.s:857    .text.iperf_print_stats:0000000000000028 .L0 
C:\Users\stapi\AppData\Local\Temp\ccjI6QBi.s:862    .text.iperf_print_stats:0000000000000032 .L0 
C:\Users\stapi\AppData\Local\Temp\ccjI6QBi.s:867    .text.iperf_print_stats:0000000000000034 .L0 
C:\Users\stapi\AppData\Local\Temp\ccjI6QBi.s:868    .text.iperf_print_stats:0000000000000034 .L0 
C:\Users\stapi\AppData\Local\Temp\ccjI6QBi.s:869    .text.iperf_print_stats:0000000000000034 .L0 
C:\Users\stapi\AppData\Local\Temp\ccjI6QBi.s:873    .text.iperf_print_stats:0000000000000040 .L0 
C:\Users\stapi\AppData\Local\Temp\ccjI6QBi.s:876    .text.iperf_print_stats:0000000000000048 .L0 
C:\Users\stapi\AppData\Local\Temp\ccjI6QBi.s:878    .text.iperf_print_stats:000000000000004c .L0 
C:\Users\stapi\AppData\Local\Temp\ccjI6QBi.s:881    .text.iperf_print_stats:0000000000000050 .L0 
C:\Users\stapi\AppData\Local\Temp\ccjI6QBi.s:884    .text.iperf_print_stats:0000000000000052 .L0 
C:\Users\stapi\AppData\Local\Temp\ccjI6QBi.s:885    .text.iperf_print_stats:0000000000000052 .L0 
C:\Users\stapi\AppData\Local\Temp\ccjI6QBi.s:888    .text.iperf_print_stats:0000000000000054 .L0 
C:\Users\stapi\AppData\Local\Temp\ccjI6QBi.s:891    .text.iperf_print_stats:0000000000000056 .L0 
C:\Users\stapi\AppData\Local\Temp\ccjI6QBi.s:894    .text.iperf_print_stats:000000000000005c .L0 
C:\Users\stapi\AppData\Local\Temp\ccjI6QBi.s:897    .text.iperf_print_stats:0000000000000060 .L0 
C:\Users\stapi\AppData\Local\Temp\ccjI6QBi.s:898    .text.iperf_print_stats:0000000000000060 .L0 
C:\Users\stapi\AppData\Local\Temp\ccjI6QBi.s:899    .text.iperf_print_stats:0000000000000060 .L0 
C:\Users\stapi\AppData\Local\Temp\ccjI6QBi.s:901    .text.iperf_print_stats:0000000000000064 .L0 
C:\Users\stapi\AppData\Local\Temp\ccjI6QBi.s:902    .text.iperf_print_stats:0000000000000064 .L0 
C:\Users\stapi\AppData\Local\Temp\ccjI6QBi.s:906    .text.iperf_print_stats:000000000000006c .L0 
C:\Users\stapi\AppData\Local\Temp\ccjI6QBi.s:909    .text.iperf_print_stats:000000000000006e .L0 
C:\Users\stapi\AppData\Local\Temp\ccjI6QBi.s:910    .text.iperf_print_stats:000000000000006e .L0 
C:\Users\stapi\AppData\Local\Temp\ccjI6QBi.s:914    .text.iperf_print_stats:0000000000000070 .L0 
C:\Users\stapi\AppData\Local\Temp\ccjI6QBi.s:915    .text.iperf_print_stats:0000000000000070 .L0 
C:\Users\stapi\AppData\Local\Temp\ccjI6QBi.s:920    .text.iperf_print_stats:000000000000007a .L0 
C:\Users\stapi\AppData\Local\Temp\ccjI6QBi.s:921    .text.iperf_print_stats:000000000000007a .L0 
C:\Users\stapi\AppData\Local\Temp\ccjI6QBi.s:923    .text.iperf_print_stats:000000000000007c .L0 
C:\Users\stapi\AppData\Local\Temp\ccjI6QBi.s:925    .text.iperf_print_stats:0000000000000080 .L0 
C:\Users\stapi\AppData\Local\Temp\ccjI6QBi.s:928    .text.iperf_print_stats:0000000000000086 .L0 
C:\Users\stapi\AppData\Local\Temp\ccjI6QBi.s:931    .text.iperf_print_stats:000000000000008a .L0 
C:\Users\stapi\AppData\Local\Temp\ccjI6QBi.s:932    .text.iperf_print_stats:000000000000008a .L0 
C:\Users\stapi\AppData\Local\Temp\ccjI6QBi.s:933    .text.iperf_print_stats:000000000000008a .L0 
C:\Users\stapi\AppData\Local\Temp\ccjI6QBi.s:935    .text.iperf_print_stats:000000000000008e .L0 
C:\Users\stapi\AppData\Local\Temp\ccjI6QBi.s:936    .text.iperf_print_stats:000000000000008e .L0 
C:\Users\stapi\AppData\Local\Temp\ccjI6QBi.s:940    .text.iperf_print_stats:0000000000000096 .L0 
C:\Users\stapi\AppData\Local\Temp\ccjI6QBi.s:943    .text.iperf_print_stats:0000000000000098 .L0 
C:\Users\stapi\AppData\Local\Temp\ccjI6QBi.s:944    .text.iperf_print_stats:0000000000000098 .L0 
C:\Users\stapi\AppData\Local\Temp\ccjI6QBi.s:948    .text.iperf_print_stats:000000000000009a .L0 
C:\Users\stapi\AppData\Local\Temp\ccjI6QBi.s:949    .text.iperf_print_stats:000000000000009a .L0 
C:\Users\stapi\AppData\Local\Temp\ccjI6QBi.s:953    .text.iperf_print_stats:00000000000000a2 .L0 
C:\Users\stapi\AppData\Local\Temp\ccjI6QBi.s:955    .text.iperf_print_stats:00000000000000a6 .L0 
C:\Users\stapi\AppData\Local\Temp\ccjI6QBi.s:958    .text.iperf_print_stats:00000000000000ac .L0 
C:\Users\stapi\AppData\Local\Temp\ccjI6QBi.s:960    .text.iperf_print_stats:00000000000000ae .L0 
C:\Users\stapi\AppData\Local\Temp\ccjI6QBi.s:962    .text.iperf_print_stats:00000000000000b2 .L0 
C:\Users\stapi\AppData\Local\Temp\ccjI6QBi.s:965    .text.iperf_print_stats:00000000000000b6 .L0 
C:\Users\stapi\AppData\Local\Temp\ccjI6QBi.s:972    .text.iperf_print_stats:00000000000000ca .L0 
C:\Users\stapi\AppData\Local\Temp\ccjI6QBi.s:973    .text.iperf_print_stats:00000000000000ca .L0 
C:\Users\stapi\AppData\Local\Temp\ccjI6QBi.s:976    .text.iperf_print_stats:00000000000000d2 .L0 
C:\Users\stapi\AppData\Local\Temp\ccjI6QBi.s:978    .text.iperf_print_stats:00000000000000d6 .L0 
C:\Users\stapi\AppData\Local\Temp\ccjI6QBi.s:981    .text.iperf_print_stats:00000000000000de .L0 
C:\Users\stapi\AppData\Local\Temp\ccjI6QBi.s:984    .text.iperf_print_stats:00000000000000e6 .L0 
C:\Users\stapi\AppData\Local\Temp\ccjI6QBi.s:987    .text.iperf_print_stats:00000000000000ea .L0 
C:\Users\stapi\AppData\Local\Temp\ccjI6QBi.s:989    .text.iperf_print_stats:00000000000000ee .L0 
C:\Users\stapi\AppData\Local\Temp\ccjI6QBi.s:997    .text.iperf_print_stats:0000000000000106 .L0 
C:\Users\stapi\AppData\Local\Temp\ccjI6QBi.s:998    .text.iperf_print_stats:0000000000000106 .L0 
C:\Users\stapi\AppData\Local\Temp\ccjI6QBi.s:1006   .text.iperf_print_stats:0000000000000116 .L0 
C:\Users\stapi\AppData\Local\Temp\ccjI6QBi.s:1007   .text.iperf_print_stats:0000000000000116 .L0 
C:\Users\stapi\AppData\Local\Temp\ccjI6QBi.s:1009   .text.iperf_print_stats:000000000000011a .L0 
C:\Users\stapi\AppData\Local\Temp\ccjI6QBi.s:1011   .text.iperf_print_stats:000000000000011e .L0 
C:\Users\stapi\AppData\Local\Temp\ccjI6QBi.s:1015   .text.iperf_print_stats:0000000000000126 .L0 
C:\Users\stapi\AppData\Local\Temp\ccjI6QBi.s:1016   .text.iperf_print_stats:0000000000000126 .L0 
C:\Users\stapi\AppData\Local\Temp\ccjI6QBi.s:1017   .text.iperf_print_stats:0000000000000126 .L0 
C:\Users\stapi\AppData\Local\Temp\ccjI6QBi.s:1018   .text.iperf_print_stats:0000000000000126 .L0 
C:\Users\stapi\AppData\Local\Temp\ccjI6QBi.s:1020   .text.iperf_print_stats:000000000000012a .L0 
C:\Users\stapi\AppData\Local\Temp\ccjI6QBi.s:1022   .text.iperf_print_stats:000000000000012c .L0 
C:\Users\stapi\AppData\Local\Temp\ccjI6QBi.s:1024   .text.iperf_print_stats:0000000000000130 .L0 
C:\Users\stapi\AppData\Local\Temp\ccjI6QBi.s:1026   .text.iperf_print_stats:0000000000000134 .L0 
C:\Users\stapi\AppData\Local\Temp\ccjI6QBi.s:1029   .text.iperf_print_stats:000000000000013c .L0 
C:\Users\stapi\AppData\Local\Temp\ccjI6QBi.s:1031   .text.iperf_print_stats:0000000000000140 .L0 
C:\Users\stapi\AppData\Local\Temp\ccjI6QBi.s:1034   .text.iperf_print_stats:0000000000000144 .L0 
C:\Users\stapi\AppData\Local\Temp\ccjI6QBi.s:1035   .text.iperf_print_stats:0000000000000144 .L0 
C:\Users\stapi\AppData\Local\Temp\ccjI6QBi.s:1037   .text.iperf_print_stats:0000000000000148 .L0 
C:\Users\stapi\AppData\Local\Temp\ccjI6QBi.s:1039   .text.iperf_print_stats:000000000000014c .L0 
C:\Users\stapi\AppData\Local\Temp\ccjI6QBi.s:1042   .text.iperf_print_stats:0000000000000150 .L0 
C:\Users\stapi\AppData\Local\Temp\ccjI6QBi.s:1043   .text.iperf_print_stats:0000000000000150 .L0 
C:\Users\stapi\AppData\Local\Temp\ccjI6QBi.s:1045   .text.iperf_print_stats:0000000000000154 .L0 
C:\Users\stapi\AppData\Local\Temp\ccjI6QBi.s:1047   .text.iperf_print_stats:0000000000000156 .L0 
C:\Users\stapi\AppData\Local\Temp\ccjI6QBi.s:1050   .text.iperf_print_stats:000000000000015a .L0 
C:\Users\stapi\AppData\Local\Temp\ccjI6QBi.s:1051   .text.iperf_print_stats:000000000000015a .L0 
C:\Users\stapi\AppData\Local\Temp\ccjI6QBi.s:1054   .text.iperf_print_stats:000000000000015e .L0 
C:\Users\stapi\AppData\Local\Temp\ccjI6QBi.s:1056   .text.iperf_print_stats:0000000000000162 .L0 
C:\Users\stapi\AppData\Local\Temp\ccjI6QBi.s:1059   .text.iperf_print_stats:000000000000016a .L0 
C:\Users\stapi\AppData\Local\Temp\ccjI6QBi.s:1062   .text.iperf_print_stats:000000000000016e .L0 
C:\Users\stapi\AppData\Local\Temp\ccjI6QBi.s:1063   .text.iperf_print_stats:000000000000016e .L0 
C:\Users\stapi\AppData\Local\Temp\ccjI6QBi.s:1065   .text.iperf_print_stats:0000000000000170 .L0 
C:\Users\stapi\AppData\Local\Temp\ccjI6QBi.s:1071   .text.iperf_print_stats:0000000000000180 .L0 
C:\Users\stapi\AppData\Local\Temp\ccjI6QBi.s:1096   .text.iperf_print_stats:00000000000001c2 .L0 
C:\Users\stapi\AppData\Local\Temp\ccjI6QBi.s:1097   .text.iperf_print_stats:00000000000001c4 .L0 
C:\Users\stapi\AppData\Local\Temp\ccjI6QBi.s:1098   .text.iperf_print_stats:00000000000001c4 .L0 
C:\Users\stapi\AppData\Local\Temp\ccjI6QBi.s:1100   .text.iperf_print_stats:00000000000001c6 .L0 
C:\Users\stapi\AppData\Local\Temp\ccjI6QBi.s:1102   .text.iperf_print_stats:00000000000001ce .L0 
C:\Users\stapi\AppData\Local\Temp\ccjI6QBi.s:1103   .text.iperf_print_stats:00000000000001ce .L0 
C:\Users\stapi\AppData\Local\Temp\ccjI6QBi.s:1104   .text.iperf_print_stats:00000000000001ce .L0 
C:\Users\stapi\AppData\Local\Temp\ccjI6QBi.s:1105   .text.iperf_print_stats:00000000000001ce .L0 
C:\Users\stapi\AppData\Local\Temp\ccjI6QBi.s:1106   .text.iperf_print_stats:00000000000001ce .L0 
C:\Users\stapi\AppData\Local\Temp\ccjI6QBi.s:1107   .text.iperf_print_stats:00000000000001ce .L0 
C:\Users\stapi\AppData\Local\Temp\ccjI6QBi.s:1108   .text.iperf_print_stats:00000000000001ce .L0 
C:\Users\stapi\AppData\Local\Temp\ccjI6QBi.s:1109   .text.iperf_print_stats:00000000000001ce .L0 
C:\Users\stapi\AppData\Local\Temp\ccjI6QBi.s:1110   .text.iperf_print_stats:00000000000001ce .L0 
C:\Users\stapi\AppData\Local\Temp\ccjI6QBi.s:1111   .text.iperf_print_stats:00000000000001ce .L0 
C:\Users\stapi\AppData\Local\Temp\ccjI6QBi.s:1112   .text.iperf_print_stats:00000000000001ce .L0 
C:\Users\stapi\AppData\Local\Temp\ccjI6QBi.s:1115   .text.iperf_print_stats:00000000000001ce .L0 
C:\Users\stapi\AppData\Local\Temp\ccjI6QBi.s:1117   .text.iperf_print_stats:00000000000001ce .L0 
C:\Users\stapi\AppData\Local\Temp\ccjI6QBi.s:1118   .text.iperf_print_stats:00000000000001ce .L0 
C:\Users\stapi\AppData\Local\Temp\ccjI6QBi.s:1121   .text.iperf_print_stats:00000000000001d2 .L0 
C:\Users\stapi\AppData\Local\Temp\ccjI6QBi.s:1127   .text.iperf_print_stats:00000000000001e2 .L0 
C:\Users\stapi\AppData\Local\Temp\ccjI6QBi.s:1139   .text.iperf_print_stats:0000000000000204 .L0 
C:\Users\stapi\AppData\Local\Temp\ccjI6QBi.s:1140   .text.iperf_print_stats:0000000000000206 .L0 
C:\Users\stapi\AppData\Local\Temp\ccjI6QBi.s:1147   .text.iperf_print_interv_stats:0000000000000000 iperf_print_interv_stats
C:\Users\stapi\AppData\Local\Temp\ccjI6QBi.s:1150   .text.iperf_print_interv_stats:0000000000000000 .L0 
C:\Users\stapi\AppData\Local\Temp\ccjI6QBi.s:1152   .text.iperf_print_interv_stats:0000000000000000 .L0 
C:\Users\stapi\AppData\Local\Temp\ccjI6QBi.s:1153   .text.iperf_print_interv_stats:0000000000000000 .L0 
C:\Users\stapi\AppData\Local\Temp\ccjI6QBi.s:1154   .text.iperf_print_interv_stats:0000000000000000 .L0 
C:\Users\stapi\AppData\Local\Temp\ccjI6QBi.s:1155   .text.iperf_print_interv_stats:0000000000000000 .L0 
C:\Users\stapi\AppData\Local\Temp\ccjI6QBi.s:1156   .text.iperf_print_interv_stats:0000000000000000 .L0 
C:\Users\stapi\AppData\Local\Temp\ccjI6QBi.s:1157   .text.iperf_print_interv_stats:0000000000000000 .L0 
C:\Users\stapi\AppData\Local\Temp\ccjI6QBi.s:1159   .text.iperf_print_interv_stats:0000000000000002 .L0 
C:\Users\stapi\AppData\Local\Temp\ccjI6QBi.s:1162   .text.iperf_print_interv_stats:0000000000000008 .L0 
C:\Users\stapi\AppData\Local\Temp\ccjI6QBi.s:1163   .text.iperf_print_interv_stats:0000000000000010 .L0 
C:\Users\stapi\AppData\Local\Temp\ccjI6QBi.s:1164   .text.iperf_print_interv_stats:0000000000000010 .L0 
C:\Users\stapi\AppData\Local\Temp\ccjI6QBi.s:1165   .text.iperf_print_interv_stats:0000000000000010 .L0 
C:\Users\stapi\AppData\Local\Temp\ccjI6QBi.s:1167   .text.iperf_print_interv_stats:0000000000000010 .L0 
C:\Users\stapi\AppData\Local\Temp\ccjI6QBi.s:1170   .text.iperf_print_interv_stats:0000000000000018 .L0 
C:\Users\stapi\AppData\Local\Temp\ccjI6QBi.s:1171   .text.iperf_print_interv_stats:000000000000001a .L0 
C:\Users\stapi\AppData\Local\Temp\ccjI6QBi.s:1174   .text.iperf_print_interv_stats:000000000000001c .L0 
C:\Users\stapi\AppData\Local\Temp\ccjI6QBi.s:1176   .text.iperf_print_interv_stats:0000000000000020 .L0 
C:\Users\stapi\AppData\Local\Temp\ccjI6QBi.s:1178   .text.iperf_print_interv_stats:0000000000000024 .L0 
C:\Users\stapi\AppData\Local\Temp\ccjI6QBi.s:1183   .text.iperf_print_interv_stats:0000000000000030 .L0 
C:\Users\stapi\AppData\Local\Temp\ccjI6QBi.s:1184   .text.iperf_print_interv_stats:0000000000000030 .L0 
C:\Users\stapi\AppData\Local\Temp\ccjI6QBi.s:1193   .text.iperf_print_interv_stats:0000000000000044 .L0 
C:\Users\stapi\AppData\Local\Temp\ccjI6QBi.s:1195   .text.iperf_print_interv_stats:0000000000000046 .L0 
C:\Users\stapi\AppData\Local\Temp\ccjI6QBi.s:1196   .text.iperf_print_interv_stats:0000000000000046 .L0 
C:\Users\stapi\AppData\Local\Temp\ccjI6QBi.s:1198   .text.iperf_print_interv_stats:0000000000000048 .L0 
C:\Users\stapi\AppData\Local\Temp\ccjI6QBi.s:1200   .text.iperf_print_interv_stats:000000000000004a .L0 
C:\Users\stapi\AppData\Local\Temp\ccjI6QBi.s:1203   .text.iperf_print_interv_stats:0000000000000050 .L0 
C:\Users\stapi\AppData\Local\Temp\ccjI6QBi.s:1204   .text.iperf_print_interv_stats:0000000000000050 .L0 
C:\Users\stapi\AppData\Local\Temp\ccjI6QBi.s:1209   .text.iperf_print_interv_stats:000000000000005a .L0 
C:\Users\stapi\AppData\Local\Temp\ccjI6QBi.s:1211   .text.iperf_print_interv_stats:000000000000005c .L0 
C:\Users\stapi\AppData\Local\Temp\ccjI6QBi.s:1212   .text.iperf_print_interv_stats:000000000000005c .L0 
C:\Users\stapi\AppData\Local\Temp\ccjI6QBi.s:1215   .text.iperf_print_interv_stats:0000000000000060 .L0 
C:\Users\stapi\AppData\Local\Temp\ccjI6QBi.s:1217   .text.iperf_print_interv_stats:0000000000000062 .L0 
C:\Users\stapi\AppData\Local\Temp\ccjI6QBi.s:1219   .text.iperf_print_interv_stats:0000000000000064 .L0 
C:\Users\stapi\AppData\Local\Temp\ccjI6QBi.s:1221   .text.iperf_print_interv_stats:0000000000000066 .L0 
C:\Users\stapi\AppData\Local\Temp\ccjI6QBi.s:1223   .text.iperf_print_interv_stats:0000000000000068 .L0 
C:\Users\stapi\AppData\Local\Temp\ccjI6QBi.s:1224   .text.iperf_print_interv_stats:0000000000000068 .L0 
C:\Users\stapi\AppData\Local\Temp\ccjI6QBi.s:1226   .text.iperf_print_interv_stats:000000000000006c .L0 
C:\Users\stapi\AppData\Local\Temp\ccjI6QBi.s:1228   .text.iperf_print_interv_stats:000000000000006e .L0 
C:\Users\stapi\AppData\Local\Temp\ccjI6QBi.s:1229   .text.iperf_print_interv_stats:000000000000006e .L0 
C:\Users\stapi\AppData\Local\Temp\ccjI6QBi.s:1231   .text.iperf_print_interv_stats:0000000000000072 .L0 
C:\Users\stapi\AppData\Local\Temp\ccjI6QBi.s:1232   .text.iperf_print_interv_stats:0000000000000072 .L0 
C:\Users\stapi\AppData\Local\Temp\ccjI6QBi.s:1237   .text.iperf_print_interv_stats:0000000000000078 .L0 
C:\Users\stapi\AppData\Local\Temp\ccjI6QBi.s:1238   .text.iperf_print_interv_stats:0000000000000078 .L0 
C:\Users\stapi\AppData\Local\Temp\ccjI6QBi.s:1243   .text.iperf_print_interv_stats:000000000000007c .L0 
C:\Users\stapi\AppData\Local\Temp\ccjI6QBi.s:1250   .text.iperf_print_interv_stats:0000000000000090 .L0 
C:\Users\stapi\AppData\Local\Temp\ccjI6QBi.s:1251   .text.iperf_print_interv_stats:0000000000000090 .L0 
C:\Users\stapi\AppData\Local\Temp\ccjI6QBi.s:1257   .text.iperf_print_interv_stats:00000000000000a2 .L0 
C:\Users\stapi\AppData\Local\Temp\ccjI6QBi.s:1258   .text.iperf_print_interv_stats:00000000000000a2 .L0 
C:\Users\stapi\AppData\Local\Temp\ccjI6QBi.s:1261   .text.iperf_print_interv_stats:00000000000000a8 .L0 
C:\Users\stapi\AppData\Local\Temp\ccjI6QBi.s:1263   .text.iperf_print_interv_stats:00000000000000aa .L0 
C:\Users\stapi\AppData\Local\Temp\ccjI6QBi.s:1267   .text.iperf_print_interv_stats:00000000000000b0 .L0 
C:\Users\stapi\AppData\Local\Temp\ccjI6QBi.s:1271   .text.iperf_print_interv_stats:00000000000000b6 .L0 
C:\Users\stapi\AppData\Local\Temp\ccjI6QBi.s:1276   .text.iperf_print_interv_stats:00000000000000be .L0 
C:\Users\stapi\AppData\Local\Temp\ccjI6QBi.s:1280   .text.iperf_print_interv_stats:00000000000000c6 .L0 
C:\Users\stapi\AppData\Local\Temp\ccjI6QBi.s:1284   .text.iperf_print_interv_stats:00000000000000ce .L0 
C:\Users\stapi\AppData\Local\Temp\ccjI6QBi.s:1285   .text.iperf_print_interv_stats:00000000000000d0 .L0 
C:\Users\stapi\AppData\Local\Temp\ccjI6QBi.s:1286   .text.iperf_print_interv_stats:00000000000000d0 .L0 
C:\Users\stapi\AppData\Local\Temp\ccjI6QBi.s:1288   .text.iperf_print_interv_stats:00000000000000d8 .L0 
C:\Users\stapi\AppData\Local\Temp\ccjI6QBi.s:1289   .text.iperf_print_interv_stats:00000000000000d8 .L0 
C:\Users\stapi\AppData\Local\Temp\ccjI6QBi.s:1290   .text.iperf_print_interv_stats:00000000000000d8 .L0 
C:\Users\stapi\AppData\Local\Temp\ccjI6QBi.s:1292   .text.iperf_print_interv_stats:00000000000000d8 .L0 
C:\Users\stapi\AppData\Local\Temp\ccjI6QBi.s:1294   .text.iperf_print_interv_stats:00000000000000d8 .L0 
C:\Users\stapi\AppData\Local\Temp\ccjI6QBi.s:1297   .text.iperf_print_interv_stats:00000000000000de .L0 
C:\Users\stapi\AppData\Local\Temp\ccjI6QBi.s:1303   .text.iperf_print_interv_stats:00000000000000ea .L0 
C:\Users\stapi\AppData\Local\Temp\ccjI6QBi.s:1304   .text.iperf_print_interv_stats:00000000000000ea .L0 
C:\Users\stapi\AppData\Local\Temp\ccjI6QBi.s:1305   .text.iperf_print_interv_stats:00000000000000ea .L0 
C:\Users\stapi\AppData\Local\Temp\ccjI6QBi.s:1307   .text.iperf_print_interv_stats:00000000000000ec .L0 
C:\Users\stapi\AppData\Local\Temp\ccjI6QBi.s:1318   .text.iperf_stop_all:0000000000000000 iperf_stop_all
C:\Users\stapi\AppData\Local\Temp\ccjI6QBi.s:1321   .text.iperf_stop_all:0000000000000000 .L0 
C:\Users\stapi\AppData\Local\Temp\ccjI6QBi.s:1322   .text.iperf_stop_all:0000000000000000 .L0 
C:\Users\stapi\AppData\Local\Temp\ccjI6QBi.s:1323   .text.iperf_stop_all:0000000000000008 .L0 
C:\Users\stapi\AppData\Local\Temp\ccjI6QBi.s:1324   .text.iperf_stop_all:0000000000000008 .L0 
C:\Users\stapi\AppData\Local\Temp\ccjI6QBi.s:1325   .text.iperf_stop_all:0000000000000008 .L0 
C:\Users\stapi\AppData\Local\Temp\ccjI6QBi.s:1326   .text.iperf_stop_all:0000000000000008 .L0 
C:\Users\stapi\AppData\Local\Temp\ccjI6QBi.s:1327   .text.iperf_stop_all:0000000000000008 .L0 
C:\Users\stapi\AppData\Local\Temp\ccjI6QBi.s:1328   .text.iperf_stop_all:0000000000000008 .L0 
C:\Users\stapi\AppData\Local\Temp\ccjI6QBi.s:1329   .text.iperf_stop_all:0000000000000008 .L0 
C:\Users\stapi\AppData\Local\Temp\ccjI6QBi.s:1331   .text.iperf_stop_all:0000000000000008 .L0 
C:\Users\stapi\AppData\Local\Temp\ccjI6QBi.s:1333   .text.iperf_stop_all:0000000000000008 .L0 
C:\Users\stapi\AppData\Local\Temp\ccjI6QBi.s:1334   .text.iperf_stop_all:0000000000000008 .L0 
C:\Users\stapi\AppData\Local\Temp\ccjI6QBi.s:1335   .text.iperf_stop_all:0000000000000008 .L0 
C:\Users\stapi\AppData\Local\Temp\ccjI6QBi.s:1336   .text.iperf_stop_all:0000000000000008 .L0 
C:\Users\stapi\AppData\Local\Temp\ccjI6QBi.s:1339   .text.iperf_stop_all:0000000000000010 .L0 
C:\Users\stapi\AppData\Local\Temp\ccjI6QBi.s:1341   .text.iperf_stop_all:0000000000000012 .L0 
C:\Users\stapi\AppData\Local\Temp\ccjI6QBi.s:1343   .text.iperf_stop_all:0000000000000016 .L0 
C:\Users\stapi\AppData\Local\Temp\ccjI6QBi.s:1348   .text.iperf_stop_all:000000000000001c .L0 
C:\Users\stapi\AppData\Local\Temp\ccjI6QBi.s:1349   .text.iperf_stop_all:000000000000001c .L0 
C:\Users\stapi\AppData\Local\Temp\ccjI6QBi.s:1350   .text.iperf_stop_all:000000000000001c .L0 
C:\Users\stapi\AppData\Local\Temp\ccjI6QBi.s:1354   .text.iperf_stop_all:0000000000000022 .L0 
C:\Users\stapi\AppData\Local\Temp\ccjI6QBi.s:1355   .text.iperf_stop_all:0000000000000022 .L0 
C:\Users\stapi\AppData\Local\Temp\ccjI6QBi.s:1356   .text.iperf_stop_all:0000000000000022 .L0 
C:\Users\stapi\AppData\Local\Temp\ccjI6QBi.s:1358   .text.iperf_stop_all:0000000000000026 .L0 
C:\Users\stapi\AppData\Local\Temp\ccjI6QBi.s:1360   .text.iperf_stop_all:000000000000002a .L0 
C:\Users\stapi\AppData\Local\Temp\ccjI6QBi.s:1361   .text.iperf_stop_all:000000000000002a .L0 
C:\Users\stapi\AppData\Local\Temp\ccjI6QBi.s:1364   .text.iperf_stop_all:000000000000002e .L0 
C:\Users\stapi\AppData\Local\Temp\ccjI6QBi.s:1369   .text.iperf_stop_all:000000000000003a .L0 
C:\Users\stapi\AppData\Local\Temp\ccjI6QBi.s:1373   .text.iperf_stop_all:0000000000000044 .L0 
C:\Users\stapi\AppData\Local\Temp\ccjI6QBi.s:1379   .text.iperf_stop_all:0000000000000052 .L0 
C:\Users\stapi\AppData\Local\Temp\ccjI6QBi.s:1380   .text.iperf_stop_all:0000000000000052 .L0 
C:\Users\stapi\AppData\Local\Temp\ccjI6QBi.s:1381   .text.iperf_stop_all:0000000000000052 .L0 
C:\Users\stapi\AppData\Local\Temp\ccjI6QBi.s:1384   .text.iperf_stop_all:000000000000005a .L0 
C:\Users\stapi\AppData\Local\Temp\ccjI6QBi.s:1385   .text.iperf_stop_all:0000000000000062 .L0 
C:\Users\stapi\AppData\Local\Temp\ccjI6QBi.s:1386   .text.iperf_stop_all:0000000000000062 .L0 
C:\Users\stapi\AppData\Local\Temp\ccjI6QBi.s:1387   .text.iperf_stop_all:0000000000000062 .L0 
C:\Users\stapi\AppData\Local\Temp\ccjI6QBi.s:1388   .text.iperf_stop_all:0000000000000062 .L0 
C:\Users\stapi\AppData\Local\Temp\ccjI6QBi.s:1389   .text.iperf_stop_all:0000000000000062 .L0 
C:\Users\stapi\AppData\Local\Temp\ccjI6QBi.s:1390   .text.iperf_stop_all:0000000000000062 .L0 
C:\Users\stapi\AppData\Local\Temp\ccjI6QBi.s:1391   .text.iperf_stop_all:0000000000000062 .L0 
C:\Users\stapi\AppData\Local\Temp\ccjI6QBi.s:1392   .text.iperf_stop_all:0000000000000062 .L0 
C:\Users\stapi\AppData\Local\Temp\ccjI6QBi.s:1394   .text.iperf_stop_all:0000000000000062 .L0 
C:\Users\stapi\AppData\Local\Temp\ccjI6QBi.s:1401   .text.iperf_stop_all:0000000000000066 .L0 
C:\Users\stapi\AppData\Local\Temp\ccjI6QBi.s:1405   .text.iperf_stop_all:0000000000000072 .L0 
C:\Users\stapi\AppData\Local\Temp\ccjI6QBi.s:1409   .text.iperf_stop_all:000000000000007c .L0 
C:\Users\stapi\AppData\Local\Temp\ccjI6QBi.s:1413   .text.iperf_stop_all:000000000000008a .L0 
C:\Users\stapi\AppData\Local\Temp\ccjI6QBi.s:1427   .text.iperf_start:0000000000000000 iperf_start
C:\Users\stapi\AppData\Local\Temp\ccjI6QBi.s:1430   .text.iperf_start:0000000000000000 .L0 
C:\Users\stapi\AppData\Local\Temp\ccjI6QBi.s:1432   .text.iperf_start:0000000000000000 .L0 
C:\Users\stapi\AppData\Local\Temp\ccjI6QBi.s:1433   .text.iperf_start:0000000000000008 .L0 
C:\Users\stapi\AppData\Local\Temp\ccjI6QBi.s:1434   .text.iperf_start:0000000000000008 .L0 
C:\Users\stapi\AppData\Local\Temp\ccjI6QBi.s:1435   .text.iperf_start:0000000000000008 .L0 
C:\Users\stapi\AppData\Local\Temp\ccjI6QBi.s:1436   .text.iperf_start:0000000000000008 .L0 
C:\Users\stapi\AppData\Local\Temp\ccjI6QBi.s:1437   .text.iperf_start:0000000000000008 .L0 
C:\Users\stapi\AppData\Local\Temp\ccjI6QBi.s:1438   .text.iperf_start:0000000000000008 .L0 
C:\Users\stapi\AppData\Local\Temp\ccjI6QBi.s:1439   .text.iperf_start:0000000000000008 .L0 
C:\Users\stapi\AppData\Local\Temp\ccjI6QBi.s:1440   .text.iperf_start:0000000000000008 .L0 
C:\Users\stapi\AppData\Local\Temp\ccjI6QBi.s:1443   .text.iperf_start:0000000000000008 .L0 
C:\Users\stapi\AppData\Local\Temp\ccjI6QBi.s:1446   .text.iperf_start:0000000000000008 .L0 
C:\Users\stapi\AppData\Local\Temp\ccjI6QBi.s:1447   .text.iperf_start:0000000000000008 .L0 
C:\Users\stapi\AppData\Local\Temp\ccjI6QBi.s:1448   .text.iperf_start:0000000000000008 .L0 
C:\Users\stapi\AppData\Local\Temp\ccjI6QBi.s:1449   .text.iperf_start:0000000000000008 .L0 
C:\Users\stapi\AppData\Local\Temp\ccjI6QBi.s:1450   .text.iperf_start:0000000000000008 .L0 
C:\Users\stapi\AppData\Local\Temp\ccjI6QBi.s:1451   .text.iperf_start:0000000000000008 .L0 
C:\Users\stapi\AppData\Local\Temp\ccjI6QBi.s:1454   .text.iperf_start:0000000000000010 .L0 
C:\Users\stapi\AppData\Local\Temp\ccjI6QBi.s:1458   .text.iperf_start:0000000000000014 .L0 
C:\Users\stapi\AppData\Local\Temp\ccjI6QBi.s:1459   .text.iperf_start:0000000000000016 .L0 
C:\Users\stapi\AppData\Local\Temp\ccjI6QBi.s:1461   .text.iperf_start:0000000000000016 .L0 
C:\Users\stapi\AppData\Local\Temp\ccjI6QBi.s:1466   .text.iperf_start:000000000000001c .L0 
C:\Users\stapi\AppData\Local\Temp\ccjI6QBi.s:1469   .text.iperf_start:000000000000001e .L0 
C:\Users\stapi\AppData\Local\Temp\ccjI6QBi.s:1470   .text.iperf_start:000000000000001e .L0 
C:\Users\stapi\AppData\Local\Temp\ccjI6QBi.s:1471   .text.iperf_start:000000000000001e .L0 
C:\Users\stapi\AppData\Local\Temp\ccjI6QBi.s:1472   .text.iperf_start:000000000000001e .L0 
C:\Users\stapi\AppData\Local\Temp\ccjI6QBi.s:1476   .text.iperf_start:0000000000000026 .L0 
C:\Users\stapi\AppData\Local\Temp\ccjI6QBi.s:1479   .text.iperf_start:0000000000000026 .L0 
C:\Users\stapi\AppData\Local\Temp\ccjI6QBi.s:1480   .text.iperf_start:0000000000000026 .L0 
C:\Users\stapi\AppData\Local\Temp\ccjI6QBi.s:1481   .text.iperf_start:0000000000000026 .L0 
C:\Users\stapi\AppData\Local\Temp\ccjI6QBi.s:1488   .text.iperf_start:0000000000000036 .L0 
C:\Users\stapi\AppData\Local\Temp\ccjI6QBi.s:1489   .text.iperf_start:0000000000000036 .L0 
C:\Users\stapi\AppData\Local\Temp\ccjI6QBi.s:1492   .text.iperf_start:0000000000000038 .L0 
C:\Users\stapi\AppData\Local\Temp\ccjI6QBi.s:1493   .text.iperf_start:000000000000003a .L0 
C:\Users\stapi\AppData\Local\Temp\ccjI6QBi.s:1494   .text.iperf_start:000000000000003a .L0 
C:\Users\stapi\AppData\Local\Temp\ccjI6QBi.s:1496   .text.iperf_start:0000000000000042 .L0 
C:\Users\stapi\AppData\Local\Temp\ccjI6QBi.s:1497   .text.iperf_start:0000000000000042 .L0 
C:\Users\stapi\AppData\Local\Temp\ccjI6QBi.s:1498   .text.iperf_start:0000000000000042 .L0 
C:\Users\stapi\AppData\Local\Temp\ccjI6QBi.s:1499   .text.iperf_start:0000000000000042 .L0 
C:\Users\stapi\AppData\Local\Temp\ccjI6QBi.s:1500   .text.iperf_start:0000000000000042 .L0 
C:\Users\stapi\AppData\Local\Temp\ccjI6QBi.s:1501   .text.iperf_start:0000000000000042 .L0 
C:\Users\stapi\AppData\Local\Temp\ccjI6QBi.s:1502   .text.iperf_start:0000000000000042 .L0 
C:\Users\stapi\AppData\Local\Temp\ccjI6QBi.s:1503   .text.iperf_start:0000000000000042 .L0 
C:\Users\stapi\AppData\Local\Temp\ccjI6QBi.s:1506   .text.iperf_start:0000000000000042 .L0 
C:\Users\stapi\AppData\Local\Temp\ccjI6QBi.s:1510   .text.iperf_start:0000000000000042 .L0 
C:\Users\stapi\AppData\Local\Temp\ccjI6QBi.s:1516   .text.iperf_start:0000000000000044 .L0 
C:\Users\stapi\AppData\Local\Temp\ccjI6QBi.s:1519   .text.iperf_start:000000000000004c .L0 
C:\Users\stapi\AppData\Local\Temp\ccjI6QBi.s:1522   .text.iperf_start:0000000000000052 .L0 
C:\Users\stapi\AppData\Local\Temp\ccjI6QBi.s:1525   .text.iperf_start:0000000000000056 .L0 
C:\Users\stapi\AppData\Local\Temp\ccjI6QBi.s:1530   .text.iperf_start:0000000000000060 .L0 
C:\Users\stapi\AppData\Local\Temp\ccjI6QBi.s:1531   .text.iperf_start:0000000000000060 .L0 
C:\Users\stapi\AppData\Local\Temp\ccjI6QBi.s:1534   .text.iperf_start:0000000000000066 .L0 
C:\Users\stapi\AppData\Local\Temp\ccjI6QBi.s:1536   .text.iperf_start:000000000000006a .L0 
C:\Users\stapi\AppData\Local\Temp\ccjI6QBi.s:1537   .text.iperf_start:000000000000006a .L0 
C:\Users\stapi\AppData\Local\Temp\ccjI6QBi.s:1539   .text.iperf_start:000000000000006e .L0 
C:\Users\stapi\AppData\Local\Temp\ccjI6QBi.s:1542   .text.iperf_start:0000000000000072 .L0 
C:\Users\stapi\AppData\Local\Temp\ccjI6QBi.s:1545   .text.iperf_start:000000000000007a .L0 
C:\Users\stapi\AppData\Local\Temp\ccjI6QBi.s:1546   .text.iperf_start:000000000000007a .L0 
C:\Users\stapi\AppData\Local\Temp\ccjI6QBi.s:1554   .text.iperf_start:000000000000008c .L0 
C:\Users\stapi\AppData\Local\Temp\ccjI6QBi.s:1556   .text.iperf_start:000000000000008e .L0 
C:\Users\stapi\AppData\Local\Temp\ccjI6QBi.s:1558   .text.iperf_start:0000000000000090 .L0 
C:\Users\stapi\AppData\Local\Temp\ccjI6QBi.s:1559   .text.iperf_start:0000000000000090 .L0 
C:\Users\stapi\AppData\Local\Temp\ccjI6QBi.s:1567   .text.iperf_start:00000000000000a4 .L0 
C:\Users\stapi\AppData\Local\Temp\ccjI6QBi.s:1569   .text.iperf_start:00000000000000a6 .L0 
C:\Users\stapi\AppData\Local\Temp\ccjI6QBi.s:1570   .text.iperf_start:00000000000000a6 .L0 
C:\Users\stapi\AppData\Local\Temp\ccjI6QBi.s:1578   .text.iperf_start:00000000000000ba .L0 
C:\Users\stapi\AppData\Local\Temp\ccjI6QBi.s:1580   .text.iperf_start:00000000000000bc .L0 
C:\Users\stapi\AppData\Local\Temp\ccjI6QBi.s:1586   .text.iperf_start:00000000000000cc .L0 
C:\Users\stapi\AppData\Local\Temp\ccjI6QBi.s:1587   .text.iperf_start:00000000000000cc .L0 
C:\Users\stapi\AppData\Local\Temp\ccjI6QBi.s:1601   .text.iperf_start:00000000000000f4 .L0 
C:\Users\stapi\AppData\Local\Temp\ccjI6QBi.s:1603   .text.iperf_start:00000000000000f8 .L0 
C:\Users\stapi\AppData\Local\Temp\ccjI6QBi.s:1606   .text.iperf_start:00000000000000fa .L0 
C:\Users\stapi\AppData\Local\Temp\ccjI6QBi.s:1607   .text.iperf_start:00000000000000fa .L0 
C:\Users\stapi\AppData\Local\Temp\ccjI6QBi.s:1611   .text.iperf_start:0000000000000104 .L0 
C:\Users\stapi\AppData\Local\Temp\ccjI6QBi.s:1616   .text.iperf_start:000000000000010e .L0 
C:\Users\stapi\AppData\Local\Temp\ccjI6QBi.s:1621   .text.iperf_start:0000000000000118 .L0 
C:\Users\stapi\AppData\Local\Temp\ccjI6QBi.s:1630   .text.iperf_start:0000000000000124 .L0 
C:\Users\stapi\AppData\Local\Temp\ccjI6QBi.s:1634   .text.iperf_start:0000000000000128 .L0 
C:\Users\stapi\AppData\Local\Temp\ccjI6QBi.s:1753   .text.cmd_iperf:0000000000000000 cmd_iperf
C:\Users\stapi\AppData\Local\Temp\ccjI6QBi.s:1756   .text.cmd_iperf:0000000000000000 .L0 
C:\Users\stapi\AppData\Local\Temp\ccjI6QBi.s:1758   .text.cmd_iperf:0000000000000000 .L0 
C:\Users\stapi\AppData\Local\Temp\ccjI6QBi.s:1759   .text.cmd_iperf:0000000000000008 .L0 
C:\Users\stapi\AppData\Local\Temp\ccjI6QBi.s:1760   .text.cmd_iperf:0000000000000008 .L0 
C:\Users\stapi\AppData\Local\Temp\ccjI6QBi.s:1761   .text.cmd_iperf:0000000000000008 .L0 
C:\Users\stapi\AppData\Local\Temp\ccjI6QBi.s:1762   .text.cmd_iperf:0000000000000008 .L0 
C:\Users\stapi\AppData\Local\Temp\ccjI6QBi.s:1763   .text.cmd_iperf:0000000000000008 .L0 
C:\Users\stapi\AppData\Local\Temp\ccjI6QBi.s:1764   .text.cmd_iperf:0000000000000008 .L0 
C:\Users\stapi\AppData\Local\Temp\ccjI6QBi.s:1765   .text.cmd_iperf:0000000000000008 .L0 
C:\Users\stapi\AppData\Local\Temp\ccjI6QBi.s:1766   .text.cmd_iperf:0000000000000008 .L0 
C:\Users\stapi\AppData\Local\Temp\ccjI6QBi.s:1767   .text.cmd_iperf:0000000000000008 .L0 
C:\Users\stapi\AppData\Local\Temp\ccjI6QBi.s:1768   .text.cmd_iperf:0000000000000008 .L0 
C:\Users\stapi\AppData\Local\Temp\ccjI6QBi.s:1769   .text.cmd_iperf:0000000000000008 .L0 
C:\Users\stapi\AppData\Local\Temp\ccjI6QBi.s:1771   .text.cmd_iperf:0000000000000008 .L0 
C:\Users\stapi\AppData\Local\Temp\ccjI6QBi.s:1773   .text.cmd_iperf:0000000000000008 .L0 
C:\Users\stapi\AppData\Local\Temp\ccjI6QBi.s:1774   .text.cmd_iperf:0000000000000008 .L0 
C:\Users\stapi\AppData\Local\Temp\ccjI6QBi.s:1775   .text.cmd_iperf:0000000000000008 .L0 
C:\Users\stapi\AppData\Local\Temp\ccjI6QBi.s:1776   .text.cmd_iperf:0000000000000008 .L0 
C:\Users\stapi\AppData\Local\Temp\ccjI6QBi.s:1777   .text.cmd_iperf:000000000000000a .L0 
C:\Users\stapi\AppData\Local\Temp\ccjI6QBi.s:1779   .text.cmd_iperf:000000000000000a .L0 
C:\Users\stapi\AppData\Local\Temp\ccjI6QBi.s:1781   .text.cmd_iperf:000000000000000c .L0 
C:\Users\stapi\AppData\Local\Temp\ccjI6QBi.s:1782   .text.cmd_iperf:000000000000000c .L0 
C:\Users\stapi\AppData\Local\Temp\ccjI6QBi.s:1786   .text.cmd_iperf:0000000000000014 .L0 
C:\Users\stapi\AppData\Local\Temp\ccjI6QBi.s:1792   .text.cmd_iperf:0000000000000020 .L0 
C:\Users\stapi\AppData\Local\Temp\ccjI6QBi.s:1793   .text.cmd_iperf:0000000000000020 .L0 
C:\Users\stapi\AppData\Local\Temp\ccjI6QBi.s:1794   .text.cmd_iperf:0000000000000020 .L0 
C:\Users\stapi\AppData\Local\Temp\ccjI6QBi.s:1802   .text.cmd_iperf:0000000000000038 .L0 
C:\Users\stapi\AppData\Local\Temp\ccjI6QBi.s:1804   .text.cmd_iperf:000000000000003a .L0 
C:\Users\stapi\AppData\Local\Temp\ccjI6QBi.s:1805   .text.cmd_iperf:000000000000003a .L0 
C:\Users\stapi\AppData\Local\Temp\ccjI6QBi.s:1810   .text.cmd_iperf:000000000000004a .L0 
C:\Users\stapi\AppData\Local\Temp\ccjI6QBi.s:1811   .text.cmd_iperf:000000000000004a .L0 
C:\Users\stapi\AppData\Local\Temp\ccjI6QBi.s:1813   .text.cmd_iperf:000000000000004e .L0 
C:\Users\stapi\AppData\Local\Temp\ccjI6QBi.s:1815   .text.cmd_iperf:0000000000000050 .L0 
C:\Users\stapi\AppData\Local\Temp\ccjI6QBi.s:1819   .text.cmd_iperf:0000000000000058 .L0 
C:\Users\stapi\AppData\Local\Temp\ccjI6QBi.s:1822   .text.cmd_iperf:0000000000000058 .L0 
C:\Users\stapi\AppData\Local\Temp\ccjI6QBi.s:1823   .text.cmd_iperf:0000000000000058 .L0 
C:\Users\stapi\AppData\Local\Temp\ccjI6QBi.s:1827   .text.cmd_iperf:000000000000005a .L0 
C:\Users\stapi\AppData\Local\Temp\ccjI6QBi.s:1830   .text.cmd_iperf:000000000000005e .L0 
C:\Users\stapi\AppData\Local\Temp\ccjI6QBi.s:1832   .text.cmd_iperf:0000000000000062 .L0 
C:\Users\stapi\AppData\Local\Temp\ccjI6QBi.s:1835   .text.cmd_iperf:0000000000000066 .L0 
C:\Users\stapi\AppData\Local\Temp\ccjI6QBi.s:1839   .text.cmd_iperf:000000000000006a .L0 
C:\Users\stapi\AppData\Local\Temp\ccjI6QBi.s:1844   .text.cmd_iperf:000000000000006e .L0 
C:\Users\stapi\AppData\Local\Temp\ccjI6QBi.s:1846   .text.cmd_iperf:0000000000000072 .L0 
C:\Users\stapi\AppData\Local\Temp\ccjI6QBi.s:1847   .text.cmd_iperf:0000000000000072 .L0 
C:\Users\stapi\AppData\Local\Temp\ccjI6QBi.s:1851   .text.cmd_iperf:000000000000007c .L0 
C:\Users\stapi\AppData\Local\Temp\ccjI6QBi.s:1855   .text.cmd_iperf:000000000000007e .L0 
C:\Users\stapi\AppData\Local\Temp\ccjI6QBi.s:1856   .text.cmd_iperf:000000000000007e .L0 
C:\Users\stapi\AppData\Local\Temp\ccjI6QBi.s:1863   .text.cmd_iperf:0000000000000092 .L0 
C:\Users\stapi\AppData\Local\Temp\ccjI6QBi.s:1865   .text.cmd_iperf:0000000000000094 .L0 
C:\Users\stapi\AppData\Local\Temp\ccjI6QBi.s:1870   .text.cmd_iperf:00000000000000a4 .L0 
C:\Users\stapi\AppData\Local\Temp\ccjI6QBi.s:1871   .text.cmd_iperf:00000000000000a4 .L0 
C:\Users\stapi\AppData\Local\Temp\ccjI6QBi.s:1872   .text.cmd_iperf:00000000000000a4 .L0 
C:\Users\stapi\AppData\Local\Temp\ccjI6QBi.s:1877   .text.cmd_iperf:00000000000000ae .L0 
C:\Users\stapi\AppData\Local\Temp\ccjI6QBi.s:1878   .text.cmd_iperf:00000000000000ae .L0 
C:\Users\stapi\AppData\Local\Temp\ccjI6QBi.s:1879   .text.cmd_iperf:00000000000000ae .L0 
C:\Users\stapi\AppData\Local\Temp\ccjI6QBi.s:1882   .text.cmd_iperf:00000000000000b4 .L0 
C:\Users\stapi\AppData\Local\Temp\ccjI6QBi.s:1888   .text.cmd_iperf:00000000000000c4 .L0 
C:\Users\stapi\AppData\Local\Temp\ccjI6QBi.s:1889   .text.cmd_iperf:00000000000000c4 .L0 
C:\Users\stapi\AppData\Local\Temp\ccjI6QBi.s:1894   .text.cmd_iperf:00000000000000c8 .L0 
C:\Users\stapi\AppData\Local\Temp\ccjI6QBi.s:1895   .text.cmd_iperf:00000000000000c8 .L0 
C:\Users\stapi\AppData\Local\Temp\ccjI6QBi.s:1902   .text.cmd_iperf:00000000000000dc .L0 
C:\Users\stapi\AppData\Local\Temp\ccjI6QBi.s:1904   .text.cmd_iperf:00000000000000e0 .L0 
C:\Users\stapi\AppData\Local\Temp\ccjI6QBi.s:1908   .text.cmd_iperf:00000000000000e8 .L0 
C:\Users\stapi\AppData\Local\Temp\ccjI6QBi.s:1909   .text.cmd_iperf:00000000000000e8 .L0 
C:\Users\stapi\AppData\Local\Temp\ccjI6QBi.s:1910   .text.cmd_iperf:00000000000000ea .L0 
C:\Users\stapi\AppData\Local\Temp\ccjI6QBi.s:1911   .text.cmd_iperf:00000000000000ea .L0 
C:\Users\stapi\AppData\Local\Temp\ccjI6QBi.s:1913   .text.cmd_iperf:00000000000000f2 .L0 
C:\Users\stapi\AppData\Local\Temp\ccjI6QBi.s:1914   .text.cmd_iperf:00000000000000f2 .L0 
C:\Users\stapi\AppData\Local\Temp\ccjI6QBi.s:1915   .text.cmd_iperf:00000000000000f2 .L0 
C:\Users\stapi\AppData\Local\Temp\ccjI6QBi.s:1916   .text.cmd_iperf:00000000000000f2 .L0 
C:\Users\stapi\AppData\Local\Temp\ccjI6QBi.s:1917   .text.cmd_iperf:00000000000000f2 .L0 
C:\Users\stapi\AppData\Local\Temp\ccjI6QBi.s:1918   .text.cmd_iperf:00000000000000f2 .L0 
C:\Users\stapi\AppData\Local\Temp\ccjI6QBi.s:1919   .text.cmd_iperf:00000000000000f2 .L0 
C:\Users\stapi\AppData\Local\Temp\ccjI6QBi.s:1920   .text.cmd_iperf:00000000000000f2 .L0 
C:\Users\stapi\AppData\Local\Temp\ccjI6QBi.s:1921   .text.cmd_iperf:00000000000000f2 .L0 
C:\Users\stapi\AppData\Local\Temp\ccjI6QBi.s:1922   .text.cmd_iperf:00000000000000f2 .L0 
C:\Users\stapi\AppData\Local\Temp\ccjI6QBi.s:1923   .text.cmd_iperf:00000000000000f2 .L0 
C:\Users\stapi\AppData\Local\Temp\ccjI6QBi.s:1926   .text.cmd_iperf:00000000000000f2 .L0 
C:\Users\stapi\AppData\Local\Temp\ccjI6QBi.s:1928   .text.cmd_iperf:00000000000000f2 .L0 
C:\Users\stapi\AppData\Local\Temp\ccjI6QBi.s:1929   .text.cmd_iperf:00000000000000f2 .L0 
C:\Users\stapi\AppData\Local\Temp\ccjI6QBi.s:1937   .text.cmd_iperf:000000000000010a .L0 
C:\Users\stapi\AppData\Local\Temp\ccjI6QBi.s:1941   .text.cmd_iperf:000000000000010c .L0 
C:\Users\stapi\AppData\Local\Temp\ccjI6QBi.s:1942   .text.cmd_iperf:000000000000010c .L0 
C:\Users\stapi\AppData\Local\Temp\ccjI6QBi.s:1943   .text.cmd_iperf:000000000000010c .L0 
C:\Users\stapi\AppData\Local\Temp\ccjI6QBi.s:1945   .text.cmd_iperf:0000000000000110 .L0 
C:\Users\stapi\AppData\Local\Temp\ccjI6QBi.s:1947   .text.cmd_iperf:0000000000000114 .L0 
C:\Users\stapi\AppData\Local\Temp\ccjI6QBi.s:1948   .text.cmd_iperf:0000000000000114 .L0 
C:\Users\stapi\AppData\Local\Temp\ccjI6QBi.s:1952   .text.cmd_iperf:0000000000000120 .L0 
C:\Users\stapi\AppData\Local\Temp\ccjI6QBi.s:1953   .text.cmd_iperf:0000000000000120 .L0 
C:\Users\stapi\AppData\Local\Temp\ccjI6QBi.s:1955   .text.cmd_iperf:0000000000000124 .L0 
C:\Users\stapi\AppData\Local\Temp\ccjI6QBi.s:1961   .text.cmd_iperf:0000000000000134 .L0 
C:\Users\stapi\AppData\Local\Temp\ccjI6QBi.s:1962   .text.cmd_iperf:0000000000000134 .L0 
C:\Users\stapi\AppData\Local\Temp\ccjI6QBi.s:1966   .text.cmd_iperf:0000000000000136 .L0 
C:\Users\stapi\AppData\Local\Temp\ccjI6QBi.s:1967   .text.cmd_iperf:0000000000000136 .L0 
C:\Users\stapi\AppData\Local\Temp\ccjI6QBi.s:1969   .text.cmd_iperf:000000000000013a .L0 
C:\Users\stapi\AppData\Local\Temp\ccjI6QBi.s:1971   .text.cmd_iperf:000000000000013c .L0 
C:\Users\stapi\AppData\Local\Temp\ccjI6QBi.s:1972   .text.cmd_iperf:000000000000013c .L0 
C:\Users\stapi\AppData\Local\Temp\ccjI6QBi.s:1974   .text.cmd_iperf:000000000000013e .L0 
C:\Users\stapi\AppData\Local\Temp\ccjI6QBi.s:1975   .text.cmd_iperf:000000000000013e .L0 
C:\Users\stapi\AppData\Local\Temp\ccjI6QBi.s:1981   .text.cmd_iperf:0000000000000146 .L0 
C:\Users\stapi\AppData\Local\Temp\ccjI6QBi.s:1982   .text.cmd_iperf:0000000000000146 .L0 
C:\Users\stapi\AppData\Local\Temp\ccjI6QBi.s:1983   .text.cmd_iperf:0000000000000146 .L0 
C:\Users\stapi\AppData\Local\Temp\ccjI6QBi.s:1988   .text.cmd_iperf:000000000000014a .L0 
C:\Users\stapi\AppData\Local\Temp\ccjI6QBi.s:1989   .text.cmd_iperf:000000000000014a .L0 
C:\Users\stapi\AppData\Local\Temp\ccjI6QBi.s:1995   .text.cmd_iperf:000000000000015a .L0 
C:\Users\stapi\AppData\Local\Temp\ccjI6QBi.s:1999   .text.cmd_iperf:000000000000015c .L0 
C:\Users\stapi\AppData\Local\Temp\ccjI6QBi.s:2000   .text.cmd_iperf:000000000000015c .L0 
C:\Users\stapi\AppData\Local\Temp\ccjI6QBi.s:2001   .text.cmd_iperf:000000000000015c .L0 
C:\Users\stapi\AppData\Local\Temp\ccjI6QBi.s:2002   .text.cmd_iperf:000000000000015c .L0 
C:\Users\stapi\AppData\Local\Temp\ccjI6QBi.s:2004   .text.cmd_iperf:0000000000000160 .L0 
C:\Users\stapi\AppData\Local\Temp\ccjI6QBi.s:2006   .text.cmd_iperf:0000000000000164 .L0 
C:\Users\stapi\AppData\Local\Temp\ccjI6QBi.s:2007   .text.cmd_iperf:0000000000000164 .L0 
C:\Users\stapi\AppData\Local\Temp\ccjI6QBi.s:2011   .text.cmd_iperf:0000000000000170 .L0 
C:\Users\stapi\AppData\Local\Temp\ccjI6QBi.s:2012   .text.cmd_iperf:0000000000000170 .L0 
C:\Users\stapi\AppData\Local\Temp\ccjI6QBi.s:2014   .text.cmd_iperf:0000000000000174 .L0 
C:\Users\stapi\AppData\Local\Temp\ccjI6QBi.s:2020   .text.cmd_iperf:0000000000000184 .L0 
C:\Users\stapi\AppData\Local\Temp\ccjI6QBi.s:2021   .text.cmd_iperf:0000000000000184 .L0 
C:\Users\stapi\AppData\Local\Temp\ccjI6QBi.s:2022   .text.cmd_iperf:0000000000000184 .L0 
C:\Users\stapi\AppData\Local\Temp\ccjI6QBi.s:2026   .text.cmd_iperf:0000000000000186 .L0 
C:\Users\stapi\AppData\Local\Temp\ccjI6QBi.s:2027   .text.cmd_iperf:0000000000000186 .L0 
C:\Users\stapi\AppData\Local\Temp\ccjI6QBi.s:2029   .text.cmd_iperf:000000000000018a .L0 
C:\Users\stapi\AppData\Local\Temp\ccjI6QBi.s:2031   .text.cmd_iperf:000000000000018c .L0 
C:\Users\stapi\AppData\Local\Temp\ccjI6QBi.s:2032   .text.cmd_iperf:000000000000018c .L0 
C:\Users\stapi\AppData\Local\Temp\ccjI6QBi.s:2035   .text.cmd_iperf:0000000000000194 .L0 
C:\Users\stapi\AppData\Local\Temp\ccjI6QBi.s:2036   .text.cmd_iperf:0000000000000194 .L0 
C:\Users\stapi\AppData\Local\Temp\ccjI6QBi.s:2039   .text.cmd_iperf:0000000000000198 .L0 
C:\Users\stapi\AppData\Local\Temp\ccjI6QBi.s:2042   .text.cmd_iperf:000000000000019e .L0 
C:\Users\stapi\AppData\Local\Temp\ccjI6QBi.s:2043   .text.cmd_iperf:000000000000019e .L0 
C:\Users\stapi\AppData\Local\Temp\ccjI6QBi.s:2045   .text.cmd_iperf:00000000000001a2 .L0 
C:\Users\stapi\AppData\Local\Temp\ccjI6QBi.s:2047   .text.cmd_iperf:00000000000001a4 .L0 
C:\Users\stapi\AppData\Local\Temp\ccjI6QBi.s:2050   .text.cmd_iperf:00000000000001aa .L0 
C:\Users\stapi\AppData\Local\Temp\ccjI6QBi.s:2052   .text.cmd_iperf:00000000000001ac .L0 
C:\Users\stapi\AppData\Local\Temp\ccjI6QBi.s:2055   .text.cmd_iperf:00000000000001b4 .L0 
C:\Users\stapi\AppData\Local\Temp\ccjI6QBi.s:2059   .text.cmd_iperf:00000000000001b6 .L0 
C:\Users\stapi\AppData\Local\Temp\ccjI6QBi.s:2060   .text.cmd_iperf:00000000000001b6 .L0 
C:\Users\stapi\AppData\Local\Temp\ccjI6QBi.s:2066   .text.cmd_iperf:00000000000001ba .L0 
C:\Users\stapi\AppData\Local\Temp\ccjI6QBi.s:2067   .text.cmd_iperf:00000000000001ba .L0 
C:\Users\stapi\AppData\Local\Temp\ccjI6QBi.s:2074   .text.cmd_iperf:00000000000001ce .L0 
C:\Users\stapi\AppData\Local\Temp\ccjI6QBi.s:2076   .text.cmd_iperf:00000000000001d0 .L0 
C:\Users\stapi\AppData\Local\Temp\ccjI6QBi.s:2077   .text.cmd_iperf:00000000000001d0 .L0 
C:\Users\stapi\AppData\Local\Temp\ccjI6QBi.s:2079   .text.cmd_iperf:00000000000001d4 .L0 
C:\Users\stapi\AppData\Local\Temp\ccjI6QBi.s:2081   .text.cmd_iperf:00000000000001d8 .L0 
C:\Users\stapi\AppData\Local\Temp\ccjI6QBi.s:2082   .text.cmd_iperf:00000000000001d8 .L0 
C:\Users\stapi\AppData\Local\Temp\ccjI6QBi.s:2086   .text.cmd_iperf:00000000000001e4 .L0 
C:\Users\stapi\AppData\Local\Temp\ccjI6QBi.s:2088   .text.cmd_iperf:00000000000001e8 .L0 
C:\Users\stapi\AppData\Local\Temp\ccjI6QBi.s:2091   .text.cmd_iperf:00000000000001ea .L0 
C:\Users\stapi\AppData\Local\Temp\ccjI6QBi.s:2092   .text.cmd_iperf:00000000000001ea .L0 
C:\Users\stapi\AppData\Local\Temp\ccjI6QBi.s:2099   .text.cmd_iperf:00000000000001fe .L0 
C:\Users\stapi\AppData\Local\Temp\ccjI6QBi.s:2101   .text.cmd_iperf:0000000000000200 .L0 
C:\Users\stapi\AppData\Local\Temp\ccjI6QBi.s:2102   .text.cmd_iperf:0000000000000200 .L0 
C:\Users\stapi\AppData\Local\Temp\ccjI6QBi.s:2104   .text.cmd_iperf:0000000000000204 .L0 
C:\Users\stapi\AppData\Local\Temp\ccjI6QBi.s:2106   .text.cmd_iperf:0000000000000208 .L0 
C:\Users\stapi\AppData\Local\Temp\ccjI6QBi.s:2107   .text.cmd_iperf:0000000000000208 .L0 
C:\Users\stapi\AppData\Local\Temp\ccjI6QBi.s:2109   .text.cmd_iperf:000000000000020c .L0 
C:\Users\stapi\AppData\Local\Temp\ccjI6QBi.s:2112   .text.cmd_iperf:0000000000000212 .L0 
C:\Users\stapi\AppData\Local\Temp\ccjI6QBi.s:2113   .text.cmd_iperf:0000000000000212 .L0 
C:\Users\stapi\AppData\Local\Temp\ccjI6QBi.s:2117   .text.cmd_iperf:000000000000021e .L0 
C:\Users\stapi\AppData\Local\Temp\ccjI6QBi.s:2119   .text.cmd_iperf:0000000000000222 .L0 
C:\Users\stapi\AppData\Local\Temp\ccjI6QBi.s:2122   .text.cmd_iperf:0000000000000226 .L0 
C:\Users\stapi\AppData\Local\Temp\ccjI6QBi.s:2123   .text.cmd_iperf:0000000000000226 .L0 
C:\Users\stapi\AppData\Local\Temp\ccjI6QBi.s:2124   .text.cmd_iperf:0000000000000226 .L0 
C:\Users\stapi\AppData\Local\Temp\ccjI6QBi.s:2127   .text.cmd_iperf:000000000000022e .L0 
C:\Users\stapi\AppData\Local\Temp\ccjI6QBi.s:2128   .text.cmd_iperf:000000000000022e .L0 
C:\Users\stapi\AppData\Local\Temp\ccjI6QBi.s:2132   .text.cmd_iperf:0000000000000234 .L0 
C:\Users\stapi\AppData\Local\Temp\ccjI6QBi.s:2133   .text.cmd_iperf:0000000000000234 .L0 
C:\Users\stapi\AppData\Local\Temp\ccjI6QBi.s:2136   .text.cmd_iperf:000000000000023a .L0 
C:\Users\stapi\AppData\Local\Temp\ccjI6QBi.s:2139   .text.cmd_iperf:000000000000023c .L0 
C:\Users\stapi\AppData\Local\Temp\ccjI6QBi.s:2140   .text.cmd_iperf:000000000000023c .L0 
C:\Users\stapi\AppData\Local\Temp\ccjI6QBi.s:2147   .text.cmd_iperf:0000000000000250 .L0 
C:\Users\stapi\AppData\Local\Temp\ccjI6QBi.s:2149   .text.cmd_iperf:0000000000000252 .L0 
C:\Users\stapi\AppData\Local\Temp\ccjI6QBi.s:2150   .text.cmd_iperf:0000000000000252 .L0 
C:\Users\stapi\AppData\Local\Temp\ccjI6QBi.s:2152   .text.cmd_iperf:0000000000000256 .L0 
C:\Users\stapi\AppData\Local\Temp\ccjI6QBi.s:2154   .text.cmd_iperf:000000000000025a .L0 
C:\Users\stapi\AppData\Local\Temp\ccjI6QBi.s:2155   .text.cmd_iperf:000000000000025a .L0 
C:\Users\stapi\AppData\Local\Temp\ccjI6QBi.s:2157   .text.cmd_iperf:000000000000025e .L0 
C:\Users\stapi\AppData\Local\Temp\ccjI6QBi.s:2160   .text.cmd_iperf:0000000000000264 .L0 
C:\Users\stapi\AppData\Local\Temp\ccjI6QBi.s:2161   .text.cmd_iperf:0000000000000264 .L0 
C:\Users\stapi\AppData\Local\Temp\ccjI6QBi.s:2163   .text.cmd_iperf:0000000000000268 .L0 
C:\Users\stapi\AppData\Local\Temp\ccjI6QBi.s:2166   .text.cmd_iperf:000000000000026e .L0 
C:\Users\stapi\AppData\Local\Temp\ccjI6QBi.s:2167   .text.cmd_iperf:000000000000026e .L0 
C:\Users\stapi\AppData\Local\Temp\ccjI6QBi.s:2171   .text.cmd_iperf:0000000000000276 .L0 
C:\Users\stapi\AppData\Local\Temp\ccjI6QBi.s:2174   .text.cmd_iperf:000000000000027a .L0 
C:\Users\stapi\AppData\Local\Temp\ccjI6QBi.s:2177   .text.cmd_iperf:000000000000027c .L0 
C:\Users\stapi\AppData\Local\Temp\ccjI6QBi.s:2178   .text.cmd_iperf:000000000000027c .L0 
C:\Users\stapi\AppData\Local\Temp\ccjI6QBi.s:2185   .text.cmd_iperf:0000000000000290 .L0 
C:\Users\stapi\AppData\Local\Temp\ccjI6QBi.s:2187   .text.cmd_iperf:0000000000000292 .L0 
C:\Users\stapi\AppData\Local\Temp\ccjI6QBi.s:2188   .text.cmd_iperf:0000000000000292 .L0 
C:\Users\stapi\AppData\Local\Temp\ccjI6QBi.s:2190   .text.cmd_iperf:0000000000000296 .L0 
C:\Users\stapi\AppData\Local\Temp\ccjI6QBi.s:2192   .text.cmd_iperf:000000000000029a .L0 
C:\Users\stapi\AppData\Local\Temp\ccjI6QBi.s:2193   .text.cmd_iperf:000000000000029a .L0 
C:\Users\stapi\AppData\Local\Temp\ccjI6QBi.s:2195   .text.cmd_iperf:000000000000029e .L0 
C:\Users\stapi\AppData\Local\Temp\ccjI6QBi.s:2198   .text.cmd_iperf:00000000000002a4 .L0 
C:\Users\stapi\AppData\Local\Temp\ccjI6QBi.s:2199   .text.cmd_iperf:00000000000002a4 .L0 
C:\Users\stapi\AppData\Local\Temp\ccjI6QBi.s:2201   .text.cmd_iperf:00000000000002a8 .L0 
C:\Users\stapi\AppData\Local\Temp\ccjI6QBi.s:2204   .text.cmd_iperf:00000000000002b0 .L0 
C:\Users\stapi\AppData\Local\Temp\ccjI6QBi.s:2205   .text.cmd_iperf:00000000000002b0 .L0 
C:\Users\stapi\AppData\Local\Temp\ccjI6QBi.s:2210   .text.cmd_iperf:00000000000002ba .L0 
C:\Users\stapi\AppData\Local\Temp\ccjI6QBi.s:2211   .text.cmd_iperf:00000000000002ba .L0 
C:\Users\stapi\AppData\Local\Temp\ccjI6QBi.s:2218   .text.cmd_iperf:00000000000002ce .L0 
C:\Users\stapi\AppData\Local\Temp\ccjI6QBi.s:2220   .text.cmd_iperf:00000000000002d0 .L0 
C:\Users\stapi\AppData\Local\Temp\ccjI6QBi.s:2221   .text.cmd_iperf:00000000000002d0 .L0 
C:\Users\stapi\AppData\Local\Temp\ccjI6QBi.s:2225   .text.cmd_iperf:00000000000002d8 .L0 
C:\Users\stapi\AppData\Local\Temp\ccjI6QBi.s:2226   .text.cmd_iperf:00000000000002d8 .L0 
C:\Users\stapi\AppData\Local\Temp\ccjI6QBi.s:2228   .text.cmd_iperf:00000000000002dc .L0 
C:\Users\stapi\AppData\Local\Temp\ccjI6QBi.s:2231   .text.cmd_iperf:00000000000002e2 .L0 
C:\Users\stapi\AppData\Local\Temp\ccjI6QBi.s:2234   .text.cmd_iperf:00000000000002ea .L0 
C:\Users\stapi\AppData\Local\Temp\ccjI6QBi.s:2235   .text.cmd_iperf:00000000000002ea .L0 
C:\Users\stapi\AppData\Local\Temp\ccjI6QBi.s:2239   .text.cmd_iperf:00000000000002ee .L0 
C:\Users\stapi\AppData\Local\Temp\ccjI6QBi.s:2240   .text.cmd_iperf:00000000000002ee .L0 
C:\Users\stapi\AppData\Local\Temp\ccjI6QBi.s:2244   .text.cmd_iperf:00000000000002f4 .L0 
C:\Users\stapi\AppData\Local\Temp\ccjI6QBi.s:2245   .text.cmd_iperf:00000000000002f4 .L0 
C:\Users\stapi\AppData\Local\Temp\ccjI6QBi.s:2249   .text.cmd_iperf:00000000000002fa .L0 
C:\Users\stapi\AppData\Local\Temp\ccjI6QBi.s:2250   .text.cmd_iperf:00000000000002fa .L0 
C:\Users\stapi\AppData\Local\Temp\ccjI6QBi.s:2255   .text.cmd_iperf:00000000000002fe .L0 
C:\Users\stapi\AppData\Local\Temp\ccjI6QBi.s:2256   .text.cmd_iperf:00000000000002fe .L0 
C:\Users\stapi\AppData\Local\Temp\ccjI6QBi.s:2263   .text.cmd_iperf:0000000000000312 .L0 
C:\Users\stapi\AppData\Local\Temp\ccjI6QBi.s:2265   .text.cmd_iperf:0000000000000314 .L0 
C:\Users\stapi\AppData\Local\Temp\ccjI6QBi.s:2266   .text.cmd_iperf:0000000000000314 .L0 
C:\Users\stapi\AppData\Local\Temp\ccjI6QBi.s:2268   .text.cmd_iperf:0000000000000318 .L0 
C:\Users\stapi\AppData\Local\Temp\ccjI6QBi.s:2270   .text.cmd_iperf:000000000000031c .L0 
C:\Users\stapi\AppData\Local\Temp\ccjI6QBi.s:2271   .text.cmd_iperf:000000000000031c .L0 
C:\Users\stapi\AppData\Local\Temp\ccjI6QBi.s:2273   .text.cmd_iperf:0000000000000320 .L0 
C:\Users\stapi\AppData\Local\Temp\ccjI6QBi.s:2276   .text.cmd_iperf:0000000000000324 .L0 
C:\Users\stapi\AppData\Local\Temp\ccjI6QBi.s:2277   .text.cmd_iperf:0000000000000324 .L0 
C:\Users\stapi\AppData\Local\Temp\ccjI6QBi.s:2283   .text.cmd_iperf:0000000000000334 .L0 
C:\Users\stapi\AppData\Local\Temp\ccjI6QBi.s:2285   .text.cmd_iperf:0000000000000336 .L0 
C:\Users\stapi\AppData\Local\Temp\ccjI6QBi.s:2287   .text.cmd_iperf:000000000000033a .L0 
C:\Users\stapi\AppData\Local\Temp\ccjI6QBi.s:2289   .text.cmd_iperf:000000000000033e .L0 
C:\Users\stapi\AppData\Local\Temp\ccjI6QBi.s:2290   .text.cmd_iperf:000000000000033e .L0 
C:\Users\stapi\AppData\Local\Temp\ccjI6QBi.s:2292   .text.cmd_iperf:0000000000000340 .L0 
C:\Users\stapi\AppData\Local\Temp\ccjI6QBi.s:2295   .text.cmd_iperf:0000000000000348 .L0 
C:\Users\stapi\AppData\Local\Temp\ccjI6QBi.s:2301   .text.cmd_iperf:0000000000000358 .L0 
C:\Users\stapi\AppData\Local\Temp\ccjI6QBi.s:2302   .text.cmd_iperf:0000000000000358 .L0 
C:\Users\stapi\AppData\Local\Temp\ccjI6QBi.s:2308   .text.cmd_iperf:0000000000000368 .L0 
C:\Users\stapi\AppData\Local\Temp\ccjI6QBi.s:2313   .text.cmd_iperf:0000000000000378 .L0 
C:\Users\stapi\AppData\Local\Temp\ccjI6QBi.s:2318   .text.cmd_iperf:0000000000000388 .L0 
C:\Users\stapi\AppData\Local\Temp\ccjI6QBi.s:2323   .text.cmd_iperf:0000000000000398 .L0 
C:\Users\stapi\AppData\Local\Temp\ccjI6QBi.s:2328   .text.cmd_iperf:00000000000003a8 .L0 
C:\Users\stapi\AppData\Local\Temp\ccjI6QBi.s:2333   .text.cmd_iperf:00000000000003b8 .L0 
C:\Users\stapi\AppData\Local\Temp\ccjI6QBi.s:2338   .text.cmd_iperf:00000000000003c8 .L0 
C:\Users\stapi\AppData\Local\Temp\ccjI6QBi.s:2343   .text.cmd_iperf:00000000000003d8 .L0 
C:\Users\stapi\AppData\Local\Temp\ccjI6QBi.s:2348   .text.cmd_iperf:00000000000003e8 .L0 
C:\Users\stapi\AppData\Local\Temp\ccjI6QBi.s:2353   .text.cmd_iperf:00000000000003f8 .L0 
C:\Users\stapi\AppData\Local\Temp\ccjI6QBi.s:2358   .text.cmd_iperf:0000000000000408 .L0 
C:\Users\stapi\AppData\Local\Temp\ccjI6QBi.s:2363   .text.cmd_iperf:0000000000000418 .L0 
C:\Users\stapi\AppData\Local\Temp\ccjI6QBi.s:2368   .text.cmd_iperf:0000000000000428 .L0 
C:\Users\stapi\AppData\Local\Temp\ccjI6QBi.s:2373   .text.cmd_iperf:0000000000000438 .L0 
C:\Users\stapi\AppData\Local\Temp\ccjI6QBi.s:2381   .text.cmd_iperf:000000000000044a .L0 
C:\Users\stapi\AppData\Local\Temp\ccjI6QBi.s:2383   .text.cmd_iperf:000000000000044e .L0 
C:\Users\stapi\AppData\Local\Temp\ccjI6QBi.s:2385   .text.cmd_iperf:0000000000000452 .L0 
C:\Users\stapi\AppData\Local\Temp\ccjI6QBi.s:2395   .text.cmd_iperf:0000000000000470 .L0 
C:\Users\stapi\AppData\Local\Temp\ccjI6QBi.s:2400   .text.cmd_iperf:0000000000000480 .L0 
C:\Users\stapi\AppData\Local\Temp\ccjI6QBi.s:2403   .text.cmd_iperf:0000000000000482 .L0 
C:\Users\stapi\AppData\Local\Temp\ccjI6QBi.s:2407   .text.cmd_iperf:000000000000048a .L0 
C:\Users\stapi\AppData\Local\Temp\ccjI6QBi.s:2412   .text.cmd_iperf:0000000000000494 .L0 
C:\Users\stapi\AppData\Local\Temp\ccjI6QBi.s:2415   .text.cmd_iperf:000000000000049c .L0 
C:\Users\stapi\AppData\Local\Temp\ccjI6QBi.s:2418   .text.cmd_iperf:000000000000049e .L0 
C:\Users\stapi\AppData\Local\Temp\ccjI6QBi.s:2425   .text.cmd_iperf:00000000000004b2 .L0 
C:\Users\stapi\AppData\Local\Temp\ccjI6QBi.s:2431   .text.cmd_iperf:00000000000004be .L0 
C:\Users\stapi\AppData\Local\Temp\ccjI6QBi.s:2437   .text.cmd_iperf:00000000000004ca .L0 
C:\Users\stapi\AppData\Local\Temp\ccjI6QBi.s:2441   .text.cmd_iperf:00000000000004d8 .L0 
C:\Users\stapi\AppData\Local\Temp\ccjI6QBi.s:2514   .bss.streams:0000000000000000 streams
C:\Users\stapi\AppData\Local\Temp\ccjI6QBi.s:2521   .data.net_iperf_bit_lbl:0000000000000000 net_iperf_bit_lbl
C:\Users\stapi\AppData\Local\Temp\ccjI6QBi.s:2531   .data.net_iperf_byte_lbl:0000000000000000 net_iperf_byte_lbl
C:\Users\stapi\AppData\Local\Temp\ccjI6QBi.s:2511   .bss.streams:0000000000000000 .LANCHOR2
C:\Users\stapi\AppData\Local\Temp\ccjI6QBi.s:2518   .data.net_iperf_bit_lbl:0000000000000000 .LANCHOR0
C:\Users\stapi\AppData\Local\Temp\ccjI6QBi.s:2528   .data.net_iperf_byte_lbl:0000000000000000 .LANCHOR1
C:\Users\stapi\AppData\Local\Temp\ccjI6QBi.s:175    .text.iperf_main:00000000000000f2 .L0 
C:\Users\stapi\AppData\Local\Temp\ccjI6QBi.s:572    .text.iperf_snprintf.constprop.0:00000000000001f2 .L0 
C:\Users\stapi\AppData\Local\Temp\ccjI6QBi.s:638    .text.iperf_settings_init:000000000000005a .L0 
C:\Users\stapi\AppData\Local\Temp\ccjI6QBi.s:778    .text.iperf_init_stats:00000000000000d6 .L0 
C:\Users\stapi\AppData\Local\Temp\ccjI6QBi.s:1143   .text.iperf_print_stats:0000000000000206 .L0 
C:\Users\stapi\AppData\Local\Temp\ccjI6QBi.s:1310   .text.iperf_print_interv_stats:00000000000000ec .L0 
C:\Users\stapi\AppData\Local\Temp\ccjI6QBi.s:1416   .text.iperf_stop_all:000000000000008a .L0 
C:\Users\stapi\AppData\Local\Temp\ccjI6QBi.s:1637   .text.iperf_start:0000000000000128 .L0 
C:\Users\stapi\AppData\Local\Temp\ccjI6QBi.s:2446   .text.cmd_iperf:00000000000004d8 .L0 
                     .debug_frame:0000000000000000 .L0 
C:\Users\stapi\AppData\Local\Temp\ccjI6QBi.s:11     .rodata.iperf_main.str1.4:0000000000000000 .LC0
C:\Users\stapi\AppData\Local\Temp\ccjI6QBi.s:14     .rodata.iperf_main.str1.4:000000000000001c .LC1
C:\Users\stapi\AppData\Local\Temp\ccjI6QBi.s:17     .rodata.iperf_main.str1.4:0000000000000044 .LC2
C:\Users\stapi\AppData\Local\Temp\ccjI6QBi.s:20     .rodata.iperf_main.str1.4:0000000000000068 .LC3
C:\Users\stapi\AppData\Local\Temp\ccjI6QBi.s:23     .rodata.iperf_main.str1.4:000000000000008c .LC4
C:\Users\stapi\AppData\Local\Temp\ccjI6QBi.s:26     .rodata.iperf_main.str1.4:00000000000000b4 .LC5
C:\Users\stapi\AppData\Local\Temp\ccjI6QBi.s:109    .text.iperf_main:000000000000008e .L2
C:\Users\stapi\AppData\Local\Temp\ccjI6QBi.s:147    .text.iperf_main:00000000000000c8 .L4
C:\Users\stapi\AppData\Local\Temp\ccjI6QBi.s:136    .text.iperf_main:00000000000000b4 .L5
C:\Users\stapi\AppData\Local\Temp\ccjI6QBi.s:74     .text.iperf_main:000000000000003e .L3
C:\Users\stapi\AppData\Local\Temp\ccjI6QBi.s:69     .text.iperf_main:0000000000000036 .L19
C:\Users\stapi\AppData\Local\Temp\ccjI6QBi.s:161    .text.iperf_main:00000000000000de .L8
C:\Users\stapi\AppData\Local\Temp\ccjI6QBi.s:220    .rodata.iperf_snprintf.constprop.0:0000000000000000 .L24
C:\Users\stapi\AppData\Local\Temp\ccjI6QBi.s:2480   .srodata.cst4:0000000000000008 .LC8
C:\Users\stapi\AppData\Local\Temp\ccjI6QBi.s:2474   .srodata.cst4:0000000000000000 .LC6
C:\Users\stapi\AppData\Local\Temp\ccjI6QBi.s:2477   .srodata.cst4:0000000000000004 .LC7
C:\Users\stapi\AppData\Local\Temp\ccjI6QBi.s:2486   .srodata.cst4:0000000000000010 .LC10
C:\Users\stapi\AppData\Local\Temp\ccjI6QBi.s:2489   .srodata.cst4:0000000000000014 .LC11
C:\Users\stapi\AppData\Local\Temp\ccjI6QBi.s:2492   .srodata.cst4:0000000000000018 .LC12
C:\Users\stapi\AppData\Local\Temp\ccjI6QBi.s:177    .rodata.iperf_snprintf.constprop.0.str1.4:0000000000000000 .LC13
C:\Users\stapi\AppData\Local\Temp\ccjI6QBi.s:2483   .srodata.cst4:000000000000000c .LC9
C:\Users\stapi\AppData\Local\Temp\ccjI6QBi.s:2495   .srodata.cst4:000000000000001c .LC14
C:\Users\stapi\AppData\Local\Temp\ccjI6QBi.s:2498   .srodata.cst4:0000000000000020 .LC15
C:\Users\stapi\AppData\Local\Temp\ccjI6QBi.s:2501   .srodata.cst4:0000000000000024 .LC16
C:\Users\stapi\AppData\Local\Temp\ccjI6QBi.s:180    .rodata.iperf_snprintf.constprop.0.str1.4:000000000000000c .LC17
C:\Users\stapi\AppData\Local\Temp\ccjI6QBi.s:2504   .srodata.cst4:0000000000000028 .LC18
C:\Users\stapi\AppData\Local\Temp\ccjI6QBi.s:183    .rodata.iperf_snprintf.constprop.0.str1.4:0000000000000018 .LC19
C:\Users\stapi\AppData\Local\Temp\ccjI6QBi.s:271    .text.iperf_snprintf.constprop.0:0000000000000062 .L21
C:\Users\stapi\AppData\Local\Temp\ccjI6QBi.s:289    .text.iperf_snprintf.constprop.0:0000000000000084 .L22
C:\Users\stapi\AppData\Local\Temp\ccjI6QBi.s:353    .text.iperf_snprintf.constprop.0:00000000000000d6 .L38
C:\Users\stapi\AppData\Local\Temp\ccjI6QBi.s:255    .text.iperf_snprintf.constprop.0:0000000000000052 .L39
C:\Users\stapi\AppData\Local\Temp\ccjI6QBi.s:318    .text.iperf_snprintf.constprop.0:00000000000000a6 .L29
C:\Users\stapi\AppData\Local\Temp\ccjI6QBi.s:410    .text.iperf_snprintf.constprop.0:000000000000012e .L30
C:\Users\stapi\AppData\Local\Temp\ccjI6QBi.s:426    .text.iperf_snprintf.constprop.0:000000000000013a .L33
C:\Users\stapi\AppData\Local\Temp\ccjI6QBi.s:484    .text.iperf_snprintf.constprop.0:0000000000000178 .L37
C:\Users\stapi\AppData\Local\Temp\ccjI6QBi.s:501    .text.iperf_snprintf.constprop.0:0000000000000186 .L56
C:\Users\stapi\AppData\Local\Temp\ccjI6QBi.s:285    .text.iperf_snprintf.constprop.0:0000000000000080 .L60
C:\Users\stapi\AppData\Local\Temp\ccjI6QBi.s:238    .text.iperf_snprintf.constprop.0:0000000000000038 .L23
C:\Users\stapi\AppData\Local\Temp\ccjI6QBi.s:310    .text.iperf_snprintf.constprop.0:000000000000009c .L31
C:\Users\stapi\AppData\Local\Temp\ccjI6QBi.s:441    .text.iperf_snprintf.constprop.0:0000000000000146 .L35
C:\Users\stapi\AppData\Local\Temp\ccjI6QBi.s:454    .text.iperf_snprintf.constprop.0:0000000000000150 .L28
C:\Users\stapi\AppData\Local\Temp\ccjI6QBi.s:343    .text.iperf_snprintf.constprop.0:00000000000000cc .L36
C:\Users\stapi\AppData\Local\Temp\ccjI6QBi.s:546    .text.iperf_snprintf.constprop.0:00000000000001cc .L57
C:\Users\stapi\AppData\Local\Temp\ccjI6QBi.s:398    .text.iperf_snprintf.constprop.0:000000000000011c .L61
C:\Users\stapi\AppData\Local\Temp\ccjI6QBi.s:403    .text.iperf_snprintf.constprop.0:0000000000000126 .L20
C:\Users\stapi\AppData\Local\Temp\ccjI6QBi.s:463    .text.iperf_snprintf.constprop.0:000000000000015e .L46
C:\Users\stapi\AppData\Local\Temp\ccjI6QBi.s:492    .text.iperf_snprintf.constprop.0:000000000000017e .L27
C:\Users\stapi\AppData\Local\Temp\ccjI6QBi.s:418    .text.iperf_snprintf.constprop.0:0000000000000136 .L26
C:\Users\stapi\AppData\Local\Temp\ccjI6QBi.s:235    .text.iperf_snprintf.constprop.0:0000000000000036 .L25
C:\Users\stapi\AppData\Local\Temp\ccjI6QBi.s:496    .text.iperf_snprintf.constprop.0:0000000000000182 .L47
C:\Users\stapi\AppData\Local\Temp\ccjI6QBi.s:709    .text.iperf_init_stats:0000000000000076 .L65
C:\Users\stapi\AppData\Local\Temp\ccjI6QBi.s:752    .text.iperf_init_stats:00000000000000b2 .L67
C:\Users\stapi\AppData\Local\Temp\ccjI6QBi.s:744    .text.iperf_init_stats:00000000000000aa .L64
C:\Users\stapi\AppData\Local\Temp\ccjI6QBi.s:763    .text.iperf_init_stats:00000000000000c4 .L71
C:\Users\stapi\AppData\Local\Temp\ccjI6QBi.s:697    .text.iperf_init_stats:0000000000000062 .L66
C:\Users\stapi\AppData\Local\Temp\ccjI6QBi.s:739    .text.iperf_init_stats:00000000000000a2 .L70
C:\Users\stapi\AppData\Local\Temp\ccjI6QBi.s:2507   .srodata.cst4:000000000000002c .LC20
C:\Users\stapi\AppData\Local\Temp\ccjI6QBi.s:780    .rodata.iperf_print_stats.str1.4:0000000000000000 .LC21
C:\Users\stapi\AppData\Local\Temp\ccjI6QBi.s:783    .rodata.iperf_print_stats.str1.4:0000000000000054 .LC22
C:\Users\stapi\AppData\Local\Temp\ccjI6QBi.s:786    .rodata.iperf_print_stats.str1.4:000000000000009c .LC23
C:\Users\stapi\AppData\Local\Temp\ccjI6QBi.s:789    .rodata.iperf_print_stats.str1.4:00000000000000cc .LC24
C:\Users\stapi\AppData\Local\Temp\ccjI6QBi.s:864    .text.iperf_print_stats:0000000000000034 .L80
C:\Users\stapi\AppData\Local\Temp\ccjI6QBi.s:912    .text.iperf_print_stats:0000000000000070 .L81
C:\Users\stapi\AppData\Local\Temp\ccjI6QBi.s:946    .text.iperf_print_stats:000000000000009a .L82
C:\Users\stapi\AppData\Local\Temp\ccjI6QBi.s:1114   .text.iperf_print_stats:00000000000001ce .L83
C:\Users\stapi\AppData\Local\Temp\ccjI6QBi.s:1069   .text.iperf_print_stats:0000000000000180 .L84
C:\Users\stapi\AppData\Local\Temp\ccjI6QBi.s:1125   .text.iperf_print_stats:00000000000001e2 .L86
C:\Users\stapi\AppData\Local\Temp\ccjI6QBi.s:1093   .text.iperf_print_stats:00000000000001c2 .L79
C:\Users\stapi\AppData\Local\Temp\ccjI6QBi.s:1302   .text.iperf_print_interv_stats:00000000000000ea .L99
C:\Users\stapi\AppData\Local\Temp\ccjI6QBi.s:1282   .text.iperf_print_interv_stats:00000000000000ce .L88
C:\Users\stapi\AppData\Local\Temp\ccjI6QBi.s:1181   .text.iperf_print_interv_stats:0000000000000030 .L90
C:\Users\stapi\AppData\Local\Temp\ccjI6QBi.s:1241   .text.iperf_print_interv_stats:000000000000007c .L91
C:\Users\stapi\AppData\Local\Temp\ccjI6QBi.s:1235   .text.iperf_print_interv_stats:0000000000000078 .L92
C:\Users\stapi\AppData\Local\Temp\ccjI6QBi.s:1291   .text.iperf_print_interv_stats:00000000000000d8 .L94
C:\Users\stapi\AppData\Local\Temp\ccjI6QBi.s:1278   .text.iperf_print_interv_stats:00000000000000c6 .L93
C:\Users\stapi\AppData\Local\Temp\ccjI6QBi.s:1312   .rodata.iperf_stop_all.str1.4:0000000000000000 .LC25
C:\Users\stapi\AppData\Local\Temp\ccjI6QBi.s:1377   .text.iperf_stop_all:0000000000000052 .L103
C:\Users\stapi\AppData\Local\Temp\ccjI6QBi.s:1399   .text.iperf_stop_all:0000000000000066 .L104
C:\Users\stapi\AppData\Local\Temp\ccjI6QBi.s:1393   .text.iperf_stop_all:0000000000000062 .L107
C:\Users\stapi\AppData\Local\Temp\ccjI6QBi.s:1346   .text.iperf_stop_all:000000000000001c .L106
C:\Users\stapi\AppData\Local\Temp\ccjI6QBi.s:1367   .text.iperf_stop_all:000000000000003a .L105
C:\Users\stapi\AppData\Local\Temp\ccjI6QBi.s:1418   .rodata.iperf_start.str1.4:0000000000000000 .LC26
C:\Users\stapi\AppData\Local\Temp\ccjI6QBi.s:1421   .rodata.iperf_start.str1.4:000000000000001c .LC27
C:\Users\stapi\AppData\Local\Temp\ccjI6QBi.s:1505   .text.iperf_start:0000000000000042 .L117
C:\Users\stapi\AppData\Local\Temp\ccjI6QBi.s:1626   .text.iperf_start:0000000000000124 .L118
C:\Users\stapi\AppData\Local\Temp\ccjI6QBi.s:1490   .text.iperf_start:0000000000000038 .L112
C:\Users\stapi\AppData\Local\Temp\ccjI6QBi.s:1619   .text.iperf_start:0000000000000118 .L115
C:\Users\stapi\AppData\Local\Temp\ccjI6QBi.s:1614   .text.iperf_start:000000000000010e .L116
C:\Users\stapi\AppData\Local\Temp\ccjI6QBi.s:1487   .text.iperf_start:0000000000000036 .L121
C:\Users\stapi\AppData\Local\Temp\ccjI6QBi.s:1512   .text.iperf_start:0000000000000044 .L113
C:\Users\stapi\AppData\Local\Temp\ccjI6QBi.s:1639   .rodata.cmd_iperf.str1.4:0000000000000000 .LC28
C:\Users\stapi\AppData\Local\Temp\ccjI6QBi.s:1642   .rodata.cmd_iperf.str1.4:0000000000000004 .LC29
C:\Users\stapi\AppData\Local\Temp\ccjI6QBi.s:1654   .rodata.cmd_iperf.str1.4:0000000000000048 .LC33
C:\Users\stapi\AppData\Local\Temp\ccjI6QBi.s:1660   .rodata.cmd_iperf.str1.4:00000000000000a4 .LC35
C:\Users\stapi\AppData\Local\Temp\ccjI6QBi.s:1645   .rodata.cmd_iperf.str1.4:0000000000000020 .LC30
C:\Users\stapi\AppData\Local\Temp\ccjI6QBi.s:1648   .rodata.cmd_iperf.str1.4:0000000000000024 .LC31
C:\Users\stapi\AppData\Local\Temp\ccjI6QBi.s:1651   .rodata.cmd_iperf.str1.4:0000000000000040 .LC32
C:\Users\stapi\AppData\Local\Temp\ccjI6QBi.s:1657   .rodata.cmd_iperf.str1.4:000000000000004c .LC34
C:\Users\stapi\AppData\Local\Temp\ccjI6QBi.s:1663   .rodata.cmd_iperf.str1.4:00000000000000a8 .LC36
C:\Users\stapi\AppData\Local\Temp\ccjI6QBi.s:1666   .rodata.cmd_iperf.str1.4:0000000000000104 .LC37
C:\Users\stapi\AppData\Local\Temp\ccjI6QBi.s:1669   .rodata.cmd_iperf.str1.4:000000000000014c .LC38
C:\Users\stapi\AppData\Local\Temp\ccjI6QBi.s:1672   .rodata.cmd_iperf.str1.4:0000000000000150 .LC39
C:\Users\stapi\AppData\Local\Temp\ccjI6QBi.s:1675   .rodata.cmd_iperf.str1.4:0000000000000154 .LC40
C:\Users\stapi\AppData\Local\Temp\ccjI6QBi.s:1678   .rodata.cmd_iperf.str1.4:0000000000000158 .LC41
C:\Users\stapi\AppData\Local\Temp\ccjI6QBi.s:1681   .rodata.cmd_iperf.str1.4:000000000000015c .LC42
C:\Users\stapi\AppData\Local\Temp\ccjI6QBi.s:1684   .rodata.cmd_iperf.str1.4:0000000000000160 .LC43
C:\Users\stapi\AppData\Local\Temp\ccjI6QBi.s:1687   .rodata.cmd_iperf.str1.4:0000000000000164 .LC44
C:\Users\stapi\AppData\Local\Temp\ccjI6QBi.s:1705   .rodata.cmd_iperf.str1.4:0000000000000238 .LC50
C:\Users\stapi\AppData\Local\Temp\ccjI6QBi.s:1708   .rodata.cmd_iperf.str1.4:000000000000025c .LC51
C:\Users\stapi\AppData\Local\Temp\ccjI6QBi.s:1711   .rodata.cmd_iperf.str1.4:0000000000000268 .LC52
C:\Users\stapi\AppData\Local\Temp\ccjI6QBi.s:1714   .rodata.cmd_iperf.str1.4:0000000000000298 .LC53
C:\Users\stapi\AppData\Local\Temp\ccjI6QBi.s:1717   .rodata.cmd_iperf.str1.4:00000000000002ac .LC54
C:\Users\stapi\AppData\Local\Temp\ccjI6QBi.s:1720   .rodata.cmd_iperf.str1.4:00000000000002d4 .LC55
C:\Users\stapi\AppData\Local\Temp\ccjI6QBi.s:1723   .rodata.cmd_iperf.str1.4:0000000000000310 .LC56
C:\Users\stapi\AppData\Local\Temp\ccjI6QBi.s:1726   .rodata.cmd_iperf.str1.4:0000000000000358 .LC57
C:\Users\stapi\AppData\Local\Temp\ccjI6QBi.s:1729   .rodata.cmd_iperf.str1.4:000000000000039c .LC58
C:\Users\stapi\AppData\Local\Temp\ccjI6QBi.s:1732   .rodata.cmd_iperf.str1.4:00000000000003b0 .LC59
C:\Users\stapi\AppData\Local\Temp\ccjI6QBi.s:1735   .rodata.cmd_iperf.str1.4:00000000000003d4 .LC60
C:\Users\stapi\AppData\Local\Temp\ccjI6QBi.s:1738   .rodata.cmd_iperf.str1.4:00000000000003e8 .LC61
C:\Users\stapi\AppData\Local\Temp\ccjI6QBi.s:1741   .rodata.cmd_iperf.str1.4:000000000000043c .LC62
C:\Users\stapi\AppData\Local\Temp\ccjI6QBi.s:1744   .rodata.cmd_iperf.str1.4:000000000000046c .LC63
C:\Users\stapi\AppData\Local\Temp\ccjI6QBi.s:1747   .rodata.cmd_iperf.str1.4:00000000000004a8 .LC64
C:\Users\stapi\AppData\Local\Temp\ccjI6QBi.s:1702   .rodata.cmd_iperf.str1.4:00000000000001ec .LC49
C:\Users\stapi\AppData\Local\Temp\ccjI6QBi.s:1690   .rodata.cmd_iperf.str1.4:000000000000017c .LC45
C:\Users\stapi\AppData\Local\Temp\ccjI6QBi.s:1696   .rodata.cmd_iperf.str1.4:00000000000001b4 .LC47
C:\Users\stapi\AppData\Local\Temp\ccjI6QBi.s:1693   .rodata.cmd_iperf.str1.4:0000000000000198 .LC46
C:\Users\stapi\AppData\Local\Temp\ccjI6QBi.s:1699   .rodata.cmd_iperf.str1.4:00000000000001d0 .LC48
C:\Users\stapi\AppData\Local\Temp\ccjI6QBi.s:2306   .text.cmd_iperf:0000000000000368 .L123
C:\Users\stapi\AppData\Local\Temp\ccjI6QBi.s:1853   .text.cmd_iperf:000000000000007e .L124
C:\Users\stapi\AppData\Local\Temp\ccjI6QBi.s:1925   .text.cmd_iperf:00000000000000f2 .L156
C:\Users\stapi\AppData\Local\Temp\ccjI6QBi.s:1907   .text.cmd_iperf:00000000000000e8 .L122
C:\Users\stapi\AppData\Local\Temp\ccjI6QBi.s:1892   .text.cmd_iperf:00000000000000c8 .L126
C:\Users\stapi\AppData\Local\Temp\ccjI6QBi.s:2300   .text.cmd_iperf:0000000000000358 .L147
C:\Users\stapi\AppData\Local\Temp\ccjI6QBi.s:1820   .text.cmd_iperf:0000000000000058 .L128
C:\Users\stapi\AppData\Local\Temp\ccjI6QBi.s:1986   .text.cmd_iperf:000000000000014a .L130
C:\Users\stapi\AppData\Local\Temp\ccjI6QBi.s:1964   .text.cmd_iperf:0000000000000136 .L131
C:\Users\stapi\AppData\Local\Temp\ccjI6QBi.s:1840   .text.cmd_iperf:000000000000006e .L125
C:\Users\stapi\AppData\Local\Temp\ccjI6QBi.s:2063   .text.cmd_iperf:00000000000001ba .L133
C:\Users\stapi\AppData\Local\Temp\ccjI6QBi.s:2057   .text.cmd_iperf:00000000000001b6 .L134
C:\Users\stapi\AppData\Local\Temp\ccjI6QBi.s:1979   .text.cmd_iperf:0000000000000146 .L155
C:\Users\stapi\AppData\Local\Temp\ccjI6QBi.s:2024   .text.cmd_iperf:0000000000000186 .L135
C:\Users\stapi\AppData\Local\Temp\ccjI6QBi.s:2089   .text.cmd_iperf:00000000000001ea .L138
C:\Users\stapi\AppData\Local\Temp\ccjI6QBi.s:2137   .text.cmd_iperf:000000000000023c .L139
C:\Users\stapi\AppData\Local\Temp\ccjI6QBi.s:2175   .text.cmd_iperf:000000000000027c .L141
C:\Users\stapi\AppData\Local\Temp\ccjI6QBi.s:2208   .text.cmd_iperf:00000000000002ba .L142
C:\Users\stapi\AppData\Local\Temp\ccjI6QBi.s:2169   .text.cmd_iperf:0000000000000276 .L166
C:\Users\stapi\AppData\Local\Temp\ccjI6QBi.s:2253   .text.cmd_iperf:00000000000002fe .L143
C:\Users\stapi\AppData\Local\Temp\ccjI6QBi.s:2237   .text.cmd_iperf:00000000000002ee .L144
C:\Users\stapi\AppData\Local\Temp\ccjI6QBi.s:2247   .text.cmd_iperf:00000000000002fa .L145
C:\Users\stapi\AppData\Local\Temp\ccjI6QBi.s:2379   .text.cmd_iperf:000000000000044a .L146
C:\Users\stapi\AppData\Local\Temp\ccjI6QBi.s:2423   .text.cmd_iperf:00000000000004b2 .L148
C:\Users\stapi\AppData\Local\Temp\ccjI6QBi.s:2416   .text.cmd_iperf:000000000000049e .L149
C:\Users\stapi\AppData\Local\Temp\ccjI6QBi.s:2429   .text.cmd_iperf:00000000000004be .L150
C:\Users\stapi\AppData\Local\Temp\ccjI6QBi.s:2401   .text.cmd_iperf:0000000000000482 .L151
C:\Users\stapi\AppData\Local\Temp\ccjI6QBi.s:2405   .text.cmd_iperf:000000000000048a .L152
C:\Users\stapi\AppData\Local\Temp\ccjI6QBi.s:2393   .text.cmd_iperf:0000000000000470 .L153
C:\Users\stapi\AppData\Local\Temp\ccjI6QBi.s:2435   .text.cmd_iperf:00000000000004ca .L154
C:\Users\stapi\AppData\Local\Temp\ccjI6QBi.s:2410   .text.cmd_iperf:0000000000000494 .L165
C:\Users\stapi\AppData\Local\Temp\ccjI6QBi.s:2448   .rodata.str1.4:0000000000000000 .LC65
C:\Users\stapi\AppData\Local\Temp\ccjI6QBi.s:2451   .rodata.str1.4:0000000000000004 .LC66
C:\Users\stapi\AppData\Local\Temp\ccjI6QBi.s:2454   .rodata.str1.4:000000000000000c .LC67
C:\Users\stapi\AppData\Local\Temp\ccjI6QBi.s:2457   .rodata.str1.4:0000000000000014 .LC68
C:\Users\stapi\AppData\Local\Temp\ccjI6QBi.s:2461   .rodata.str1.4:000000000000001c .LC69
C:\Users\stapi\AppData\Local\Temp\ccjI6QBi.s:2464   .rodata.str1.4:0000000000000024 .LC70
C:\Users\stapi\AppData\Local\Temp\ccjI6QBi.s:2467   .rodata.str1.4:000000000000002c .LC71
C:\Users\stapi\AppData\Local\Temp\ccjI6QBi.s:2470   .rodata.str1.4:0000000000000034 .LC72
C:\Users\stapi\AppData\Local\Temp\ccjI6QBi.s:5561   .debug_abbrev:0000000000000000 .Ldebug_abbrev0
C:\Users\stapi\AppData\Local\Temp\ccjI6QBi.s:8122   .debug_str:0000000000000a8c .LASF196
C:\Users\stapi\AppData\Local\Temp\ccjI6QBi.s:7850   .debug_str:00000000000002eb .LASF197
C:\Users\stapi\AppData\Local\Temp\ccjI6QBi.s:7914   .debug_str:00000000000004e3 .LASF198
C:\Users\stapi\AppData\Local\Temp\ccjI6QBi.s:7654   .debug_ranges:0000000000000000 .Ldebug_ranges0
C:\Users\stapi\AppData\Local\Temp\ccjI6QBi.s:7734   .debug_line:0000000000000000 .Ldebug_line0
C:\Users\stapi\AppData\Local\Temp\ccjI6QBi.s:7820   .debug_str:0000000000000212 .LASF0
C:\Users\stapi\AppData\Local\Temp\ccjI6QBi.s:7774   .debug_str:00000000000000f3 .LASF1
C:\Users\stapi\AppData\Local\Temp\ccjI6QBi.s:8096   .debug_str:00000000000009e4 .LASF2
C:\Users\stapi\AppData\Local\Temp\ccjI6QBi.s:8026   .debug_str:000000000000082c .LASF5
C:\Users\stapi\AppData\Local\Temp\ccjI6QBi.s:8062   .debug_str:000000000000090e .LASF3
C:\Users\stapi\AppData\Local\Temp\ccjI6QBi.s:7994   .debug_str:000000000000076a .LASF4
C:\Users\stapi\AppData\Local\Temp\ccjI6QBi.s:7846   .debug_str:00000000000002d0 .LASF6
C:\Users\stapi\AppData\Local\Temp\ccjI6QBi.s:8098   .debug_str:00000000000009f0 .LASF7
C:\Users\stapi\AppData\Local\Temp\ccjI6QBi.s:7780   .debug_str:000000000000011e .LASF8
C:\Users\stapi\AppData\Local\Temp\ccjI6QBi.s:8002   .debug_str:000000000000078f .LASF9
C:\Users\stapi\AppData\Local\Temp\ccjI6QBi.s:8064   .debug_str:000000000000091c .LASF10
C:\Users\stapi\AppData\Local\Temp\ccjI6QBi.s:8054   .debug_str:00000000000008e5 .LASF11
C:\Users\stapi\AppData\Local\Temp\ccjI6QBi.s:7924   .debug_str:00000000000005a4 .LASF12
C:\Users\stapi\AppData\Local\Temp\ccjI6QBi.s:7880   .debug_str:0000000000000423 .LASF13
C:\Users\stapi\AppData\Local\Temp\ccjI6QBi.s:7834   .debug_str:0000000000000269 .LASF14
C:\Users\stapi\AppData\Local\Temp\ccjI6QBi.s:7910   .debug_str:00000000000004ce .LASF15
C:\Users\stapi\AppData\Local\Temp\ccjI6QBi.s:7972   .debug_str:00000000000006f2 .LASF16
C:\Users\stapi\AppData\Local\Temp\ccjI6QBi.s:8056   .debug_str:00000000000008f7 .LASF17
C:\Users\stapi\AppData\Local\Temp\ccjI6QBi.s:7812   .debug_str:00000000000001d9 .LASF18
C:\Users\stapi\AppData\Local\Temp\ccjI6QBi.s:8018   .debug_str:00000000000007fa .LASF19
C:\Users\stapi\AppData\Local\Temp\ccjI6QBi.s:7900   .debug_str:000000000000049d .LASF20
C:\Users\stapi\AppData\Local\Temp\ccjI6QBi.s:7782   .debug_str:0000000000000128 .LASF21
C:\Users\stapi\AppData\Local\Temp\ccjI6QBi.s:7990   .debug_str:000000000000075a .LASF22
C:\Users\stapi\AppData\Local\Temp\ccjI6QBi.s:8022   .debug_str:0000000000000817 .LASF57
C:\Users\stapi\AppData\Local\Temp\ccjI6QBi.s:8078   .debug_str:0000000000000973 .LASF59
C:\Users\stapi\AppData\Local\Temp\ccjI6QBi.s:7998   .debug_str:000000000000077a .LASF23
C:\Users\stapi\AppData\Local\Temp\ccjI6QBi.s:8120   .debug_str:0000000000000a82 .LASF24
C:\Users\stapi\AppData\Local\Temp\ccjI6QBi.s:8044   .debug_str:000000000000089b .LASF25
C:\Users\stapi\AppData\Local\Temp\ccjI6QBi.s:8016   .debug_str:00000000000007ed .LASF26
C:\Users\stapi\AppData\Local\Temp\ccjI6QBi.s:7934   .debug_str:00000000000005dd .LASF27
C:\Users\stapi\AppData\Local\Temp\ccjI6QBi.s:7748   .debug_str:0000000000000055 .LASF28
C:\Users\stapi\AppData\Local\Temp\ccjI6QBi.s:8068   .debug_str:0000000000000933 .LASF29
C:\Users\stapi\AppData\Local\Temp\ccjI6QBi.s:7962   .debug_str:00000000000006ae .LASF30
C:\Users\stapi\AppData\Local\Temp\ccjI6QBi.s:7954   .debug_str:0000000000000676 .LASF31
C:\Users\stapi\AppData\Local\Temp\ccjI6QBi.s:8036   .debug_str:0000000000000870 .LASF32
C:\Users\stapi\AppData\Local\Temp\ccjI6QBi.s:7922   .debug_str:0000000000000598 .LASF33
C:\Users\stapi\AppData\Local\Temp\ccjI6QBi.s:7814   .debug_str:00000000000001e2 .LASF34
C:\Users\stapi\AppData\Local\Temp\ccjI6QBi.s:7818   .debug_str:00000000000001ff .LASF35
C:\Users\stapi\AppData\Local\Temp\ccjI6QBi.s:7856   .debug_str:0000000000000370 .LASF36
C:\Users\stapi\AppData\Local\Temp\ccjI6QBi.s:7816   .debug_str:00000000000001ef .LASF37
C:\Users\stapi\AppData\Local\Temp\ccjI6QBi.s:8006   .debug_str:00000000000007a1 .LASF38
C:\Users\stapi\AppData\Local\Temp\ccjI6QBi.s:8126   .debug_str:0000000000000b90 .LASF39
C:\Users\stapi\AppData\Local\Temp\ccjI6QBi.s:7896   .debug_str:0000000000000486 .LASF40
C:\Users\stapi\AppData\Local\Temp\ccjI6QBi.s:7800   .debug_str:000000000000018a .LASF41
C:\Users\stapi\AppData\Local\Temp\ccjI6QBi.s:7882   .debug_str:000000000000042e .LASF42
C:\Users\stapi\AppData\Local\Temp\ccjI6QBi.s:7860   .debug_str:0000000000000392 .LASF49
C:\Users\stapi\AppData\Local\Temp\ccjI6QBi.s:8094   .debug_str:00000000000009c2 .LASF43
C:\Users\stapi\AppData\Local\Temp\ccjI6QBi.s:7762   .debug_str:00000000000000a7 .LASF44
C:\Users\stapi\AppData\Local\Temp\ccjI6QBi.s:7970   .debug_str:00000000000006d1 .LASF45
C:\Users\stapi\AppData\Local\Temp\ccjI6QBi.s:8032   .debug_str:0000000000000858 .LASF46
C:\Users\stapi\AppData\Local\Temp\ccjI6QBi.s:7986   .debug_str:0000000000000747 .LASF47
C:\Users\stapi\AppData\Local\Temp\ccjI6QBi.s:7786   .debug_str:0000000000000135 .LASF48
C:\Users\stapi\AppData\Local\Temp\ccjI6QBi.s:8118   .debug_str:0000000000000a74 .LASF50
C:\Users\stapi\AppData\Local\Temp\ccjI6QBi.s:8124   .debug_str:0000000000000b85 .LASF51
C:\Users\stapi\AppData\Local\Temp\ccjI6QBi.s:7894   .debug_str:000000000000047a .LASF52
C:\Users\stapi\AppData\Local\Temp\ccjI6QBi.s:7872   .debug_str:00000000000003f0 .LASF53
C:\Users\stapi\AppData\Local\Temp\ccjI6QBi.s:7874   .debug_str:0000000000000400 .LASF54
C:\Users\stapi\AppData\Local\Temp\ccjI6QBi.s:8014   .debug_str:00000000000007d9 .LASF55
C:\Users\stapi\AppData\Local\Temp\ccjI6QBi.s:7802   .debug_str:0000000000000199 .LASF56
C:\Users\stapi\AppData\Local\Temp\ccjI6QBi.s:7744   .debug_str:000000000000003c .LASF58
C:\Users\stapi\AppData\Local\Temp\ccjI6QBi.s:8106   .debug_str:0000000000000a1b .LASF60
C:\Users\stapi\AppData\Local\Temp\ccjI6QBi.s:7750   .debug_str:0000000000000069 .LASF61
C:\Users\stapi\AppData\Local\Temp\ccjI6QBi.s:7888   .debug_str:000000000000044f .LASF62
C:\Users\stapi\AppData\Local\Temp\ccjI6QBi.s:8076   .debug_str:000000000000096c .LASF63
C:\Users\stapi\AppData\Local\Temp\ccjI6QBi.s:7912   .debug_str:00000000000004d6 .LASF64
C:\Users\stapi\AppData\Local\Temp\ccjI6QBi.s:8088   .debug_str:00000000000009a4 .LASF65
C:\Users\stapi\AppData\Local\Temp\ccjI6QBi.s:7976   .debug_str:0000000000000706 .LASF66
C:\Users\stapi\AppData\Local\Temp\ccjI6QBi.s:8100   .debug_str:0000000000000a03 .LASF67
C:\Users\stapi\AppData\Local\Temp\ccjI6QBi.s:8074   .debug_str:000000000000095d .LASF68
C:\Users\stapi\AppData\Local\Temp\ccjI6QBi.s:7868   .debug_str:00000000000003d9 .LASF69
C:\Users\stapi\AppData\Local\Temp\ccjI6QBi.s:8112   .debug_str:0000000000000a4a .LASF70
C:\Users\stapi\AppData\Local\Temp\ccjI6QBi.s:7822   .debug_str:0000000000000218 .LASF71
C:\Users\stapi\AppData\Local\Temp\ccjI6QBi.s:8040   .debug_str:000000000000088d .LASF72
C:\Users\stapi\AppData\Local\Temp\ccjI6QBi.s:8060   .debug_str:0000000000000904 .LASF73
C:\Users\stapi\AppData\Local\Temp\ccjI6QBi.s:7752   .debug_str:0000000000000075 .LASF74
C:\Users\stapi\AppData\Local\Temp\ccjI6QBi.s:7810   .debug_str:00000000000001cd .LASF75
C:\Users\stapi\AppData\Local\Temp\ccjI6QBi.s:8058   .debug_str:00000000000008ff .LASF76
C:\Users\stapi\AppData\Local\Temp\ccjI6QBi.s:7792   .debug_str:0000000000000157 .LASF77
C:\Users\stapi\AppData\Local\Temp\ccjI6QBi.s:7764   .debug_str:00000000000000c9 .LASF78
C:\Users\stapi\AppData\Local\Temp\ccjI6QBi.s:7740   .debug_str:0000000000000023 .LASF79
C:\Users\stapi\AppData\Local\Temp\ccjI6QBi.s:7766   .debug_str:00000000000000d0 .LASF80
C:\Users\stapi\AppData\Local\Temp\ccjI6QBi.s:8132   .debug_str:0000000000000bb3 .LASF81
C:\Users\stapi\AppData\Local\Temp\ccjI6QBi.s:7878   .debug_str:000000000000041d .LASF82
C:\Users\stapi\AppData\Local\Temp\ccjI6QBi.s:7852   .debug_str:0000000000000356 .LASF83
C:\Users\stapi\AppData\Local\Temp\ccjI6QBi.s:8004   .debug_str:0000000000000798 .LASF84
C:\Users\stapi\AppData\Local\Temp\ccjI6QBi.s:7848   .debug_str:00000000000002db .LASF85
C:\Users\stapi\AppData\Local\Temp\ccjI6QBi.s:7920   .debug_str:000000000000058e .LASF86
C:\Users\stapi\AppData\Local\Temp\ccjI6QBi.s:7858   .debug_str:0000000000000385 .LASF87
C:\Users\stapi\AppData\Local\Temp\ccjI6QBi.s:7932   .debug_str:00000000000005d3 .LASF88
C:\Users\stapi\AppData\Local\Temp\ccjI6QBi.s:8084   .debug_str:000000000000098f .LASF89
C:\Users\stapi\AppData\Local\Temp\ccjI6QBi.s:7974   .debug_str:00000000000006fb .LASF90
C:\Users\stapi\AppData\Local\Temp\ccjI6QBi.s:8116   .debug_str:0000000000000a68 .LASF91
C:\Users\stapi\AppData\Local\Temp\ccjI6QBi.s:7948   .debug_str:0000000000000638 .LASF92
C:\Users\stapi\AppData\Local\Temp\ccjI6QBi.s:8008   .debug_str:00000000000007b2 .LASF93
C:\Users\stapi\AppData\Local\Temp\ccjI6QBi.s:8130   .debug_str:0000000000000ba9 .LASF94
C:\Users\stapi\AppData\Local\Temp\ccjI6QBi.s:7844   .debug_str:00000000000002c3 .LASF95
C:\Users\stapi\AppData\Local\Temp\ccjI6QBi.s:7788   .debug_str:000000000000013f .LASF96
C:\Users\stapi\AppData\Local\Temp\ccjI6QBi.s:7978   .debug_str:0000000000000710 .LASF97
C:\Users\stapi\AppData\Local\Temp\ccjI6QBi.s:8010   .debug_str:00000000000007bb .LASF98
C:\Users\stapi\AppData\Local\Temp\ccjI6QBi.s:7808   .debug_str:00000000000001c6 .LASF99
C:\Users\stapi\AppData\Local\Temp\ccjI6QBi.s:8080   .debug_str:0000000000000978 .LASF100
C:\Users\stapi\AppData\Local\Temp\ccjI6QBi.s:8012   .debug_str:00000000000007cc .LASF101
C:\Users\stapi\AppData\Local\Temp\ccjI6QBi.s:7982   .debug_str:0000000000000727 .LASF102
C:\Users\stapi\AppData\Local\Temp\ccjI6QBi.s:7890   .debug_str:000000000000045e .LASF103
C:\Users\stapi\AppData\Local\Temp\ccjI6QBi.s:8114   .debug_str:0000000000000a5b .LASF104
C:\Users\stapi\AppData\Local\Temp\ccjI6QBi.s:7824   .debug_str:0000000000000220 .LASF105
C:\Users\stapi\AppData\Local\Temp\ccjI6QBi.s:7936   .debug_str:00000000000005ea .LASF106
C:\Users\stapi\AppData\Local\Temp\ccjI6QBi.s:7768   .debug_str:00000000000000d6 .LASF118
C:\Users\stapi\AppData\Local\Temp\ccjI6QBi.s:7926   .debug_str:00000000000005b2 .LASF107
C:\Users\stapi\AppData\Local\Temp\ccjI6QBi.s:7832   .debug_str:0000000000000254 .LASF108
C:\Users\stapi\AppData\Local\Temp\ccjI6QBi.s:7960   .debug_str:000000000000069e .LASF109
C:\Users\stapi\AppData\Local\Temp\ccjI6QBi.s:8108   .debug_str:0000000000000a20 .LASF110
C:\Users\stapi\AppData\Local\Temp\ccjI6QBi.s:7840   .debug_str:00000000000002a4 .LASF111
C:\Users\stapi\AppData\Local\Temp\ccjI6QBi.s:8052   .debug_str:00000000000008d6 .LASF112
C:\Users\stapi\AppData\Local\Temp\ccjI6QBi.s:7736   .debug_str:0000000000000000 .LASF113
C:\Users\stapi\AppData\Local\Temp\ccjI6QBi.s:8030   .debug_str:0000000000000847 .LASF114
C:\Users\stapi\AppData\Local\Temp\ccjI6QBi.s:7838   .debug_str:0000000000000292 .LASF115
C:\Users\stapi\AppData\Local\Temp\ccjI6QBi.s:7944   .debug_str:0000000000000618 .LASF116
C:\Users\stapi\AppData\Local\Temp\ccjI6QBi.s:7902   .debug_str:00000000000004a2 .LASF117
C:\Users\stapi\AppData\Local\Temp\ccjI6QBi.s:7842   .debug_str:00000000000002b3 .LASF119
C:\Users\stapi\AppData\Local\Temp\ccjI6QBi.s:7956   .debug_str:0000000000000685 .LASF120
C:\Users\stapi\AppData\Local\Temp\ccjI6QBi.s:7826   .debug_str:000000000000022c .LASF121
C:\Users\stapi\AppData\Local\Temp\ccjI6QBi.s:7992   .debug_str:0000000000000760 .LASF122
C:\Users\stapi\AppData\Local\Temp\ccjI6QBi.s:8090   .debug_str:00000000000009ae .LASF123
C:\Users\stapi\AppData\Local\Temp\ccjI6QBi.s:7862   .debug_str:00000000000003b8 .LASF124
C:\Users\stapi\AppData\Local\Temp\ccjI6QBi.s:7938   .debug_str:00000000000005f1 .LASF125
C:\Users\stapi\AppData\Local\Temp\ccjI6QBi.s:7836   .debug_str:0000000000000280 .LASF126
C:\Users\stapi\AppData\Local\Temp\ccjI6QBi.s:8092   .debug_str:00000000000009b8 .LASF141
C:\Users\stapi\AppData\Local\Temp\ccjI6QBi.s:1754   .text.cmd_iperf:0000000000000000 .LFB25
C:\Users\stapi\AppData\Local\Temp\ccjI6QBi.s:2442   .text.cmd_iperf:00000000000004d8 .LFE25
C:\Users\stapi\AppData\Local\Temp\ccjI6QBi.s:7964   .debug_str:00000000000006bd .LASF127
C:\Users\stapi\AppData\Local\Temp\ccjI6QBi.s:6433   .debug_loc:0000000000000000 .LLST44
C:\Users\stapi\AppData\Local\Temp\ccjI6QBi.s:7968   .debug_str:00000000000006cc .LASF128
C:\Users\stapi\AppData\Local\Temp\ccjI6QBi.s:6466   .debug_loc:0000000000000050 .LLST45
C:\Users\stapi\AppData\Local\Temp\ccjI6QBi.s:8072   .debug_str:000000000000094b .LASF129
C:\Users\stapi\AppData\Local\Temp\ccjI6QBi.s:6499   .debug_loc:00000000000000a0 .LLST46
C:\Users\stapi\AppData\Local\Temp\ccjI6QBi.s:7772   .debug_str:00000000000000eb .LASF130
C:\Users\stapi\AppData\Local\Temp\ccjI6QBi.s:6537   .debug_loc:00000000000000fc .LLST47
C:\Users\stapi\AppData\Local\Temp\ccjI6QBi.s:7784   .debug_str:000000000000012e .LASF131
C:\Users\stapi\AppData\Local\Temp\ccjI6QBi.s:8042   .debug_str:0000000000000895 .LASF132
C:\Users\stapi\AppData\Local\Temp\ccjI6QBi.s:8134   .debug_str:0000000000000bbf .LASF133
C:\Users\stapi\AppData\Local\Temp\ccjI6QBi.s:7996   .debug_str:0000000000000774 .LASF134
C:\Users\stapi\AppData\Local\Temp\ccjI6QBi.s:6572   .debug_loc:0000000000000155 .LLST50
C:\Users\stapi\AppData\Local\Temp\ccjI6QBi.s:1950   .text.cmd_iperf:0000000000000120 .LVL175
C:\Users\stapi\AppData\Local\Temp\ccjI6QBi.s:1959   .text.cmd_iperf:0000000000000134 .LVL177
C:\Users\stapi\AppData\Local\Temp\ccjI6QBi.s:6594   .debug_loc:000000000000018f .LLST48
C:\Users\stapi\AppData\Local\Temp\ccjI6QBi.s:7898   .debug_str:0000000000000490 .LASF135
C:\Users\stapi\AppData\Local\Temp\ccjI6QBi.s:6616   .debug_loc:00000000000001c7 .LLST49
C:\Users\stapi\AppData\Local\Temp\ccjI6QBi.s:2009   .text.cmd_iperf:0000000000000170 .LVL183
C:\Users\stapi\AppData\Local\Temp\ccjI6QBi.s:2018   .text.cmd_iperf:0000000000000184 .LVL185
C:\Users\stapi\AppData\Local\Temp\ccjI6QBi.s:2053   .text.cmd_iperf:00000000000001b4 .LVL187
C:\Users\stapi\AppData\Local\Temp\ccjI6QBi.s:1790   .text.cmd_iperf:0000000000000020 .LVL158
C:\Users\stapi\AppData\Local\Temp\ccjI6QBi.s:1800   .text.cmd_iperf:0000000000000038 .LVL159
C:\Users\stapi\AppData\Local\Temp\ccjI6QBi.s:1808   .text.cmd_iperf:000000000000004a .LVL160
C:\Users\stapi\AppData\Local\Temp\ccjI6QBi.s:1849   .text.cmd_iperf:000000000000007c .LVL163
C:\Users\stapi\AppData\Local\Temp\ccjI6QBi.s:1861   .text.cmd_iperf:0000000000000092 .LVL165
C:\Users\stapi\AppData\Local\Temp\ccjI6QBi.s:1868   .text.cmd_iperf:00000000000000a4 .LVL166
C:\Users\stapi\AppData\Local\Temp\ccjI6QBi.s:1886   .text.cmd_iperf:00000000000000c4 .LVL168
C:\Users\stapi\AppData\Local\Temp\ccjI6QBi.s:1900   .text.cmd_iperf:00000000000000dc .LVL170
C:\Users\stapi\AppData\Local\Temp\ccjI6QBi.s:1905   .text.cmd_iperf:00000000000000e8 .LVL171
C:\Users\stapi\AppData\Local\Temp\ccjI6QBi.s:1935   .text.cmd_iperf:000000000000010a .LVL173
C:\Users\stapi\AppData\Local\Temp\ccjI6QBi.s:1993   .text.cmd_iperf:000000000000015a .LVL181
C:\Users\stapi\AppData\Local\Temp\ccjI6QBi.s:2072   .text.cmd_iperf:00000000000001ce .LVL190
C:\Users\stapi\AppData\Local\Temp\ccjI6QBi.s:2084   .text.cmd_iperf:00000000000001e4 .LVL191
C:\Users\stapi\AppData\Local\Temp\ccjI6QBi.s:2097   .text.cmd_iperf:00000000000001fe .LVL192
C:\Users\stapi\AppData\Local\Temp\ccjI6QBi.s:2115   .text.cmd_iperf:000000000000021e .LVL193
C:\Users\stapi\AppData\Local\Temp\ccjI6QBi.s:2145   .text.cmd_iperf:0000000000000250 .LVL194
C:\Users\stapi\AppData\Local\Temp\ccjI6QBi.s:2168   .text.cmd_iperf:0000000000000276 .LVL195
C:\Users\stapi\AppData\Local\Temp\ccjI6QBi.s:2183   .text.cmd_iperf:0000000000000290 .LVL196
C:\Users\stapi\AppData\Local\Temp\ccjI6QBi.s:2206   .text.cmd_iperf:00000000000002b8 .LVL197
C:\Users\stapi\AppData\Local\Temp\ccjI6QBi.s:2216   .text.cmd_iperf:00000000000002ce .LVL198
C:\Users\stapi\AppData\Local\Temp\ccjI6QBi.s:2261   .text.cmd_iperf:0000000000000312 .LVL200
C:\Users\stapi\AppData\Local\Temp\ccjI6QBi.s:2281   .text.cmd_iperf:0000000000000334 .LVL201
C:\Users\stapi\AppData\Local\Temp\ccjI6QBi.s:2298   .text.cmd_iperf:0000000000000358 .LVL202
C:\Users\stapi\AppData\Local\Temp\ccjI6QBi.s:2305   .text.cmd_iperf:0000000000000368 .LVL203
C:\Users\stapi\AppData\Local\Temp\ccjI6QBi.s:2311   .text.cmd_iperf:0000000000000378 .LVL204
C:\Users\stapi\AppData\Local\Temp\ccjI6QBi.s:2316   .text.cmd_iperf:0000000000000388 .LVL205
C:\Users\stapi\AppData\Local\Temp\ccjI6QBi.s:2321   .text.cmd_iperf:0000000000000398 .LVL206
C:\Users\stapi\AppData\Local\Temp\ccjI6QBi.s:2326   .text.cmd_iperf:00000000000003a8 .LVL207
C:\Users\stapi\AppData\Local\Temp\ccjI6QBi.s:2331   .text.cmd_iperf:00000000000003b8 .LVL208
C:\Users\stapi\AppData\Local\Temp\ccjI6QBi.s:2336   .text.cmd_iperf:00000000000003c8 .LVL209
C:\Users\stapi\AppData\Local\Temp\ccjI6QBi.s:2341   .text.cmd_iperf:00000000000003d8 .LVL210
C:\Users\stapi\AppData\Local\Temp\ccjI6QBi.s:2346   .text.cmd_iperf:00000000000003e8 .LVL211
C:\Users\stapi\AppData\Local\Temp\ccjI6QBi.s:2351   .text.cmd_iperf:00000000000003f8 .LVL212
C:\Users\stapi\AppData\Local\Temp\ccjI6QBi.s:2356   .text.cmd_iperf:0000000000000408 .LVL213
C:\Users\stapi\AppData\Local\Temp\ccjI6QBi.s:2361   .text.cmd_iperf:0000000000000418 .LVL214
C:\Users\stapi\AppData\Local\Temp\ccjI6QBi.s:2366   .text.cmd_iperf:0000000000000428 .LVL215
C:\Users\stapi\AppData\Local\Temp\ccjI6QBi.s:2371   .text.cmd_iperf:0000000000000438 .LVL216
C:\Users\stapi\AppData\Local\Temp\ccjI6QBi.s:2376   .text.cmd_iperf:0000000000000448 .LVL217
C:\Users\stapi\AppData\Local\Temp\ccjI6QBi.s:2398   .text.cmd_iperf:0000000000000480 .LVL219
C:\Users\stapi\AppData\Local\Temp\ccjI6QBi.s:2413   .text.cmd_iperf:000000000000049c .LVL220
C:\Users\stapi\AppData\Local\Temp\ccjI6QBi.s:8066   .debug_str:0000000000000927 .LASF199
C:\Users\stapi\AppData\Local\Temp\ccjI6QBi.s:1428   .text.iperf_start:0000000000000000 .LFB24
C:\Users\stapi\AppData\Local\Temp\ccjI6QBi.s:1635   .text.iperf_start:0000000000000128 .LFE24
C:\Users\stapi\AppData\Local\Temp\ccjI6QBi.s:6624   .debug_loc:00000000000001db .LLST40
C:\Users\stapi\AppData\Local\Temp\ccjI6QBi.s:8048   .debug_str:00000000000008c1 .LASF136
C:\Users\stapi\AppData\Local\Temp\ccjI6QBi.s:6665   .debug_loc:0000000000000241 .LLST41
C:\Users\stapi\AppData\Local\Temp\ccjI6QBi.s:7966   .debug_str:00000000000006c2 .LASF137
C:\Users\stapi\AppData\Local\Temp\ccjI6QBi.s:6687   .debug_loc:0000000000000278 .LLST42
C:\Users\stapi\AppData\Local\Temp\ccjI6QBi.s:7738   .debug_str:0000000000000017 .LASF138
C:\Users\stapi\AppData\Local\Temp\ccjI6QBi.s:8142   .debug_str:0000000000000bfa .LASF139
C:\Users\stapi\AppData\Local\Temp\ccjI6QBi.s:7778   .debug_str:000000000000010e .LASF140
C:\Users\stapi\AppData\Local\Temp\ccjI6QBi.s:1605   .text.iperf_start:00000000000000fa .LDL1
C:\Users\stapi\AppData\Local\Temp\ccjI6QBi.s:1444   .text.iperf_start:0000000000000008 .LBB19
C:\Users\stapi\AppData\Local\Temp\ccjI6QBi.s:6696   .debug_loc:000000000000028d .LLST43
C:\Users\stapi\AppData\Local\Temp\ccjI6QBi.s:1485   .text.iperf_start:0000000000000036 .LVL137
C:\Users\stapi\AppData\Local\Temp\ccjI6QBi.s:1528   .text.iperf_start:0000000000000060 .LVL142
C:\Users\stapi\AppData\Local\Temp\ccjI6QBi.s:1543   .text.iperf_start:000000000000007a .LVL144
C:\Users\stapi\AppData\Local\Temp\ccjI6QBi.s:1551   .text.iperf_start:000000000000008a .LVL145
C:\Users\stapi\AppData\Local\Temp\ccjI6QBi.s:1565   .text.iperf_start:00000000000000a4 .LVL146
C:\Users\stapi\AppData\Local\Temp\ccjI6QBi.s:1576   .text.iperf_start:00000000000000ba .LVL147
C:\Users\stapi\AppData\Local\Temp\ccjI6QBi.s:1584   .text.iperf_start:00000000000000cc .LVL148
C:\Users\stapi\AppData\Local\Temp\ccjI6QBi.s:1599   .text.iperf_start:00000000000000f4 .LVL149
C:\Users\stapi\AppData\Local\Temp\ccjI6QBi.s:1609   .text.iperf_start:0000000000000104 .LVL150
C:\Users\stapi\AppData\Local\Temp\ccjI6QBi.s:1613   .text.iperf_start:000000000000010e .LVL151
C:\Users\stapi\AppData\Local\Temp\ccjI6QBi.s:1618   .text.iperf_start:0000000000000118 .LVL152
C:\Users\stapi\AppData\Local\Temp\ccjI6QBi.s:1623   .text.iperf_start:0000000000000122 .LVL153
C:\Users\stapi\AppData\Local\Temp\ccjI6QBi.s:7754   .debug_str:000000000000007c .LASF142
C:\Users\stapi\AppData\Local\Temp\ccjI6QBi.s:1319   .text.iperf_stop_all:0000000000000000 .LFB23
C:\Users\stapi\AppData\Local\Temp\ccjI6QBi.s:1414   .text.iperf_stop_all:000000000000008a .LFE23
C:\Users\stapi\AppData\Local\Temp\ccjI6QBi.s:6719   .debug_loc:00000000000002c5 .LLST37
C:\Users\stapi\AppData\Local\Temp\ccjI6QBi.s:6741   .debug_loc:00000000000002fc .LLST38
C:\Users\stapi\AppData\Local\Temp\ccjI6QBi.s:6773   .debug_loc:000000000000033c .LLST39
C:\Users\stapi\AppData\Local\Temp\ccjI6QBi.s:1366   .text.iperf_stop_all:000000000000003a .LVL124
C:\Users\stapi\AppData\Local\Temp\ccjI6QBi.s:1371   .text.iperf_stop_all:0000000000000044 .LVL125
C:\Users\stapi\AppData\Local\Temp\ccjI6QBi.s:1376   .text.iperf_stop_all:0000000000000052 .LVL126
C:\Users\stapi\AppData\Local\Temp\ccjI6QBi.s:1403   .text.iperf_stop_all:0000000000000072 .LVL129
C:\Users\stapi\AppData\Local\Temp\ccjI6QBi.s:1407   .text.iperf_stop_all:000000000000007c .LVL130
C:\Users\stapi\AppData\Local\Temp\ccjI6QBi.s:1411   .text.iperf_stop_all:0000000000000088 .LVL131
C:\Users\stapi\AppData\Local\Temp\ccjI6QBi.s:7886   .debug_str:000000000000043d .LASF143
C:\Users\stapi\AppData\Local\Temp\ccjI6QBi.s:796    .text.iperf_print_stats:0000000000000000 .LFB22
C:\Users\stapi\AppData\Local\Temp\ccjI6QBi.s:1141   .text.iperf_print_stats:0000000000000206 .LFE22
C:\Users\stapi\AppData\Local\Temp\ccjI6QBi.s:8144   .debug_str:0000000000000c05 .LASF144
C:\Users\stapi\AppData\Local\Temp\ccjI6QBi.s:6800   .debug_loc:0000000000000370 .LLST19
C:\Users\stapi\AppData\Local\Temp\ccjI6QBi.s:6811   .debug_loc:000000000000038e .LLST20
C:\Users\stapi\AppData\Local\Temp\ccjI6QBi.s:6825   .debug_loc:00000000000003af .LLST21
C:\Users\stapi\AppData\Local\Temp\ccjI6QBi.s:6839   .debug_loc:00000000000003d0 .LLST22
C:\Users\stapi\AppData\Local\Temp\ccjI6QBi.s:6850   .debug_loc:00000000000003ee .LLST23
C:\Users\stapi\AppData\Local\Temp\ccjI6QBi.s:6865   .debug_loc:0000000000000410 .LLST24
C:\Users\stapi\AppData\Local\Temp\ccjI6QBi.s:7746   .debug_str:0000000000000047 .LASF145
C:\Users\stapi\AppData\Local\Temp\ccjI6QBi.s:6880   .debug_loc:0000000000000434 .LLST25
C:\Users\stapi\AppData\Local\Temp\ccjI6QBi.s:7904   .debug_str:00000000000004ae .LASF146
C:\Users\stapi\AppData\Local\Temp\ccjI6QBi.s:8034   .debug_str:0000000000000862 .LASF147
C:\Users\stapi\AppData\Local\Temp\ccjI6QBi.s:6918   .debug_loc:000000000000047b .LLST26
C:\Users\stapi\AppData\Local\Temp\ccjI6QBi.s:8136   .debug_str:0000000000000bc4 .LASF148
C:\Users\stapi\AppData\Local\Temp\ccjI6QBi.s:7988   .debug_str:0000000000000752 .LASF149
C:\Users\stapi\AppData\Local\Temp\ccjI6QBi.s:7794   .debug_str:000000000000015f .LASF150
C:\Users\stapi\AppData\Local\Temp\ccjI6QBi.s:6939   .debug_loc:00000000000004a3 .LLST27
C:\Users\stapi\AppData\Local\Temp\ccjI6QBi.s:7930   .debug_str:00000000000005cc .LASF151
C:\Users\stapi\AppData\Local\Temp\ccjI6QBi.s:6960   .debug_loc:00000000000004db .LLST28
C:\Users\stapi\AppData\Local\Temp\ccjI6QBi.s:6981   .debug_loc:0000000000000513 .LLST29
C:\Users\stapi\AppData\Local\Temp\ccjI6QBi.s:1004   .text.iperf_print_stats:0000000000000116 .LBB16
C:\Users\stapi\AppData\Local\Temp\ccjI6QBi.s:1094   .text.iperf_print_stats:00000000000001c2 .LBE16
C:\Users\stapi\AppData\Local\Temp\ccjI6QBi.s:8070   .debug_str:0000000000000940 .LASF152
C:\Users\stapi\AppData\Local\Temp\ccjI6QBi.s:7010   .debug_loc:000000000000054a .LLST30
C:\Users\stapi\AppData\Local\Temp\ccjI6QBi.s:7854   .debug_str:0000000000000363 .LASF153
C:\Users\stapi\AppData\Local\Temp\ccjI6QBi.s:7017   .debug_loc:000000000000055d .LLST31
C:\Users\stapi\AppData\Local\Temp\ccjI6QBi.s:7870   .debug_str:00000000000003df .LASF154
C:\Users\stapi\AppData\Local\Temp\ccjI6QBi.s:7051   .debug_loc:0000000000000595 .LLST32
C:\Users\stapi\AppData\Local\Temp\ccjI6QBi.s:8028   .debug_str:0000000000000836 .LASF155
C:\Users\stapi\AppData\Local\Temp\ccjI6QBi.s:7058   .debug_loc:00000000000005a8 .LLST33
C:\Users\stapi\AppData\Local\Temp\ccjI6QBi.s:1068   .text.iperf_print_stats:0000000000000180 .LVL111
C:\Users\stapi\AppData\Local\Temp\ccjI6QBi.s:1092   .text.iperf_print_stats:00000000000001c2 .LVL112
C:\Users\stapi\AppData\Local\Temp\ccjI6QBi.s:966    .text.iperf_print_stats:00000000000000be .LVL100
C:\Users\stapi\AppData\Local\Temp\ccjI6QBi.s:970    .text.iperf_print_stats:00000000000000ca .LVL101
C:\Users\stapi\AppData\Local\Temp\ccjI6QBi.s:979    .text.iperf_print_stats:00000000000000de .LVL102
C:\Users\stapi\AppData\Local\Temp\ccjI6QBi.s:990    .text.iperf_print_stats:00000000000000f6 .LVL103
C:\Users\stapi\AppData\Local\Temp\ccjI6QBi.s:995    .text.iperf_print_stats:0000000000000106 .LVL104
C:\Users\stapi\AppData\Local\Temp\ccjI6QBi.s:1124   .text.iperf_print_stats:00000000000001e2 .LVL114
C:\Users\stapi\AppData\Local\Temp\ccjI6QBi.s:1137   .text.iperf_print_stats:0000000000000204 .LVL115
C:\Users\stapi\AppData\Local\Temp\ccjI6QBi.s:8110   .debug_str:0000000000000a31 .LASF156
C:\Users\stapi\AppData\Local\Temp\ccjI6QBi.s:1148   .text.iperf_print_interv_stats:0000000000000000 .LFB21
C:\Users\stapi\AppData\Local\Temp\ccjI6QBi.s:1308   .text.iperf_print_interv_stats:00000000000000ec .LFE21
C:\Users\stapi\AppData\Local\Temp\ccjI6QBi.s:7065   .debug_loc:00000000000005bb .LLST34
C:\Users\stapi\AppData\Local\Temp\ccjI6QBi.s:7892   .debug_str:0000000000000471 .LASF157
C:\Users\stapi\AppData\Local\Temp\ccjI6QBi.s:7080   .debug_loc:00000000000005e4 .LLST35
C:\Users\stapi\AppData\Local\Temp\ccjI6QBi.s:7101   .debug_loc:0000000000000613 .LLST36
C:\Users\stapi\AppData\Local\Temp\ccjI6QBi.s:8086   .debug_str:0000000000000995 .LASF158
C:\Users\stapi\AppData\Local\Temp\ccjI6QBi.s:1248   .text.iperf_print_interv_stats:0000000000000090 .LVL118
C:\Users\stapi\AppData\Local\Temp\ccjI6QBi.s:1255   .text.iperf_print_interv_stats:00000000000000a2 .LVL119
C:\Users\stapi\AppData\Local\Temp\ccjI6QBi.s:7798   .debug_str:0000000000000179 .LASF159
C:\Users\stapi\AppData\Local\Temp\ccjI6QBi.s:643    .text.iperf_init_stats:0000000000000000 .LFB20
C:\Users\stapi\AppData\Local\Temp\ccjI6QBi.s:775    .text.iperf_init_stats:00000000000000d6 .LFE20
C:\Users\stapi\AppData\Local\Temp\ccjI6QBi.s:7122   .debug_loc:0000000000000645 .LLST15
C:\Users\stapi\AppData\Local\Temp\ccjI6QBi.s:7133   .debug_loc:0000000000000663 .LLST16
C:\Users\stapi\AppData\Local\Temp\ccjI6QBi.s:7148   .debug_loc:0000000000000687 .LLST17
C:\Users\stapi\AppData\Local\Temp\ccjI6QBi.s:7828   .debug_str:0000000000000236 .LASF160
C:\Users\stapi\AppData\Local\Temp\ccjI6QBi.s:7163   .debug_loc:00000000000006a9 .LLST18
C:\Users\stapi\AppData\Local\Temp\ccjI6QBi.s:663    .text.iperf_init_stats:000000000000001a .LVL71
C:\Users\stapi\AppData\Local\Temp\ccjI6QBi.s:669    .text.iperf_init_stats:000000000000002a .LVL72
C:\Users\stapi\AppData\Local\Temp\ccjI6QBi.s:675    .text.iperf_init_stats:000000000000003c .LVL73
C:\Users\stapi\AppData\Local\Temp\ccjI6QBi.s:8020   .debug_str:0000000000000803 .LASF161
C:\Users\stapi\AppData\Local\Temp\ccjI6QBi.s:577    .text.iperf_settings_init:0000000000000000 .LFB18
C:\Users\stapi\AppData\Local\Temp\ccjI6QBi.s:636    .text.iperf_settings_init:000000000000005a .LFE18
C:\Users\stapi\AppData\Local\Temp\ccjI6QBi.s:7190   .debug_loc:00000000000006dd .LLST14
C:\Users\stapi\AppData\Local\Temp\ccjI6QBi.s:592    .text.iperf_settings_init:0000000000000018 .LVL67
C:\Users\stapi\AppData\Local\Temp\ccjI6QBi.s:7756   .debug_str:000000000000008b .LASF200
C:\Users\stapi\AppData\Local\Temp\ccjI6QBi.s:8082   .debug_str:0000000000000987 .LASF162
C:\Users\stapi\AppData\Local\Temp\ccjI6QBi.s:7760   .debug_str:00000000000000a2 .LASF163
C:\Users\stapi\AppData\Local\Temp\ccjI6QBi.s:7980   .debug_str:0000000000000720 .LASF164
C:\Users\stapi\AppData\Local\Temp\ccjI6QBi.s:7984   .debug_str:000000000000073c .LASF165
C:\Users\stapi\AppData\Local\Temp\ccjI6QBi.s:7876   .debug_str:0000000000000412 .LASF166
C:\Users\stapi\AppData\Local\Temp\ccjI6QBi.s:7928   .debug_str:00000000000005bf .LASF167
C:\Users\stapi\AppData\Local\Temp\ccjI6QBi.s:7884   .debug_str:0000000000000437 .LASF168
C:\Users\stapi\AppData\Local\Temp\ccjI6QBi.s:7804   .debug_str:00000000000001ac .LASF169
C:\Users\stapi\AppData\Local\Temp\ccjI6QBi.s:7952   .debug_str:000000000000065c .LASF201
C:\Users\stapi\AppData\Local\Temp\ccjI6QBi.s:7946   .debug_str:000000000000062d .LASF202
C:\Users\stapi\AppData\Local\Temp\ccjI6QBi.s:32     .text.iperf_main:0000000000000000 .LFB15
C:\Users\stapi\AppData\Local\Temp\ccjI6QBi.s:173    .text.iperf_main:00000000000000f2 .LFE15
C:\Users\stapi\AppData\Local\Temp\ccjI6QBi.s:7940   .debug_str:0000000000000604 .LASF170
C:\Users\stapi\AppData\Local\Temp\ccjI6QBi.s:7201   .debug_loc:00000000000006fb .LLST0
C:\Users\stapi\AppData\Local\Temp\ccjI6QBi.s:7212   .debug_loc:0000000000000719 .LLST1
C:\Users\stapi\AppData\Local\Temp\ccjI6QBi.s:7223   .debug_loc:0000000000000737 .LLST2
C:\Users\stapi\AppData\Local\Temp\ccjI6QBi.s:58     .text.iperf_main:0000000000000022 .LVL3
C:\Users\stapi\AppData\Local\Temp\ccjI6QBi.s:63     .text.iperf_main:000000000000002c .LVL4
C:\Users\stapi\AppData\Local\Temp\ccjI6QBi.s:72     .text.iperf_main:000000000000003e .LVL5
C:\Users\stapi\AppData\Local\Temp\ccjI6QBi.s:78     .text.iperf_main:000000000000004a .LVL6
C:\Users\stapi\AppData\Local\Temp\ccjI6QBi.s:82     .text.iperf_main:0000000000000056 .LVL7
C:\Users\stapi\AppData\Local\Temp\ccjI6QBi.s:86     .text.iperf_main:0000000000000062 .LVL8
C:\Users\stapi\AppData\Local\Temp\ccjI6QBi.s:90     .text.iperf_main:000000000000006e .LVL9
C:\Users\stapi\AppData\Local\Temp\ccjI6QBi.s:98     .text.iperf_main:000000000000007c .LVL10
C:\Users\stapi\AppData\Local\Temp\ccjI6QBi.s:102    .text.iperf_main:0000000000000086 .LVL11
C:\Users\stapi\AppData\Local\Temp\ccjI6QBi.s:129    .text.iperf_main:00000000000000a8 .LVL12
C:\Users\stapi\AppData\Local\Temp\ccjI6QBi.s:140    .text.iperf_main:00000000000000bc .LVL13
C:\Users\stapi\AppData\Local\Temp\ccjI6QBi.s:154    .text.iperf_main:00000000000000d2 .LVL14
C:\Users\stapi\AppData\Local\Temp\ccjI6QBi.s:165    .text.iperf_main:00000000000000e6 .LVL15
C:\Users\stapi\AppData\Local\Temp\ccjI6QBi.s:189    .text.iperf_snprintf.constprop.0:0000000000000000 .LFB26
C:\Users\stapi\AppData\Local\Temp\ccjI6QBi.s:570    .text.iperf_snprintf.constprop.0:00000000000001f2 .LFE26
C:\Users\stapi\AppData\Local\Temp\ccjI6QBi.s:7238   .debug_loc:0000000000000759 .LLST3
C:\Users\stapi\AppData\Local\Temp\ccjI6QBi.s:7263   .debug_loc:0000000000000793 .LLST4
C:\Users\stapi\AppData\Local\Temp\ccjI6QBi.s:7298   .debug_loc:00000000000007e1 .LLST5
C:\Users\stapi\AppData\Local\Temp\ccjI6QBi.s:7334   .debug_loc:0000000000000834 .LLST6
C:\Users\stapi\AppData\Local\Temp\ccjI6QBi.s:7411   .debug_loc:00000000000008fd .LLST7
C:\Users\stapi\AppData\Local\Temp\ccjI6QBi.s:7430   .debug_loc:0000000000000931 .LLST8
C:\Users\stapi\AppData\Local\Temp\ccjI6QBi.s:7483   .debug_loc:0000000000000998 .LLST9
C:\Users\stapi\AppData\Local\Temp\ccjI6QBi.s:7545   .debug_loc:00000000000009fd .LLST10
C:\Users\stapi\AppData\Local\Temp\ccjI6QBi.s:7583   .debug_loc:0000000000000a59 .LLST11
C:\Users\stapi\AppData\Local\Temp\ccjI6QBi.s:7604   .debug_loc:0000000000000a91 .LLST12
C:\Users\stapi\AppData\Local\Temp\ccjI6QBi.s:7617   .debug_loc:0000000000000ab1 .LLST13
C:\Users\stapi\AppData\Local\Temp\ccjI6QBi.s:402    .text.iperf_snprintf.constprop.0:0000000000000126 .LVL41
C:\Users\stapi\AppData\Local\Temp\ccjI6QBi.s:566    .text.iperf_snprintf.constprop.0:00000000000001f0 .LVL65
C:\Users\stapi\AppData\Local\Temp\ccjI6QBi.s:8104   .debug_str:0000000000000a16 .LASF171
C:\Users\stapi\AppData\Local\Temp\ccjI6QBi.s:8000   .debug_str:0000000000000785 .LASF172
C:\Users\stapi\AppData\Local\Temp\ccjI6QBi.s:7758   .debug_str:000000000000009a .LASF173
C:\Users\stapi\AppData\Local\Temp\ccjI6QBi.s:8038   .debug_str:000000000000087f .LASF174
C:\Users\stapi\AppData\Local\Temp\ccjI6QBi.s:7790   .debug_str:000000000000014d .LASF175
C:\Users\stapi\AppData\Local\Temp\ccjI6QBi.s:8050   .debug_str:00000000000008ce .LASF176
C:\Users\stapi\AppData\Local\Temp\ccjI6QBi.s:7906   .debug_str:00000000000004b3 .LASF177
C:\Users\stapi\AppData\Local\Temp\ccjI6QBi.s:8102   .debug_str:0000000000000a0f .LASF203
C:\Users\stapi\AppData\Local\Temp\ccjI6QBi.s:7796   .debug_str:0000000000000168 .LASF204
C:\Users\stapi\AppData\Local\Temp\ccjI6QBi.s:8146   .debug_str:0000000000000c0c .LASF178
C:\Users\stapi\AppData\Local\Temp\ccjI6QBi.s:7958   .debug_str:000000000000068f .LASF179
C:\Users\stapi\AppData\Local\Temp\ccjI6QBi.s:7742   .debug_str:000000000000002c .LASF180
C:\Users\stapi\AppData\Local\Temp\ccjI6QBi.s:7806   .debug_str:00000000000001b7 .LASF181
C:\Users\stapi\AppData\Local\Temp\ccjI6QBi.s:7776   .debug_str:0000000000000100 .LASF182
C:\Users\stapi\AppData\Local\Temp\ccjI6QBi.s:8024   .debug_str:0000000000000820 .LASF183
C:\Users\stapi\AppData\Local\Temp\ccjI6QBi.s:7830   .debug_str:000000000000023f .LASF184
C:\Users\stapi\AppData\Local\Temp\ccjI6QBi.s:7866   .debug_str:00000000000003cb .LASF185
C:\Users\stapi\AppData\Local\Temp\ccjI6QBi.s:7918   .debug_str:000000000000057a .LASF186
C:\Users\stapi\AppData\Local\Temp\ccjI6QBi.s:8128   .debug_str:0000000000000b9b .LASF187
C:\Users\stapi\AppData\Local\Temp\ccjI6QBi.s:7942   .debug_str:000000000000060a .LASF205
C:\Users\stapi\AppData\Local\Temp\ccjI6QBi.s:7864   .debug_str:00000000000003c2 .LASF188
C:\Users\stapi\AppData\Local\Temp\ccjI6QBi.s:8140   .debug_str:0000000000000be7 .LASF189
C:\Users\stapi\AppData\Local\Temp\ccjI6QBi.s:7908   .debug_str:00000000000004be .LASF190
C:\Users\stapi\AppData\Local\Temp\ccjI6QBi.s:7916   .debug_str:0000000000000561 .LASF191
C:\Users\stapi\AppData\Local\Temp\ccjI6QBi.s:8138   .debug_str:0000000000000bce .LASF192
C:\Users\stapi\AppData\Local\Temp\ccjI6QBi.s:7950   .debug_str:0000000000000643 .LASF193
C:\Users\stapi\AppData\Local\Temp\ccjI6QBi.s:8046   .debug_str:00000000000008a8 .LASF194
C:\Users\stapi\AppData\Local\Temp\ccjI6QBi.s:7770   .debug_str:00000000000000de .LASF195
C:\Users\stapi\AppData\Local\Temp\ccjI6QBi.s:1757   .text.cmd_iperf:0000000000000000 .LVL155
C:\Users\stapi\AppData\Local\Temp\ccjI6QBi.s:1788   .text.cmd_iperf:0000000000000018 .LVL157
C:\Users\stapi\AppData\Local\Temp\ccjI6QBi.s:1924   .text.cmd_iperf:00000000000000f2 .LVL172
C:\Users\stapi\AppData\Local\Temp\ccjI6QBi.s:2378   .text.cmd_iperf:000000000000044a .LVL218
C:\Users\stapi\AppData\Local\Temp\ccjI6QBi.s:1772   .text.cmd_iperf:0000000000000008 .LVL156
C:\Users\stapi\AppData\Local\Temp\ccjI6QBi.s:1818   .text.cmd_iperf:0000000000000058 .LVL161
C:\Users\stapi\AppData\Local\Temp\ccjI6QBi.s:1852   .text.cmd_iperf:000000000000007e .LVL164
C:\Users\stapi\AppData\Local\Temp\ccjI6QBi.s:1876   .text.cmd_iperf:00000000000000ae .LVL167
C:\Users\stapi\AppData\Local\Temp\ccjI6QBi.s:1891   .text.cmd_iperf:00000000000000c8 .LVL169
C:\Users\stapi\AppData\Local\Temp\ccjI6QBi.s:1841   .text.cmd_iperf:000000000000006e .LVL162
C:\Users\stapi\AppData\Local\Temp\ccjI6QBi.s:1940   .text.cmd_iperf:000000000000010c .LVL174
C:\Users\stapi\AppData\Local\Temp\ccjI6QBi.s:1956   .text.cmd_iperf:0000000000000128 .LVL176
C:\Users\stapi\AppData\Local\Temp\ccjI6QBi.s:1963   .text.cmd_iperf:0000000000000136 .LVL178
C:\Users\stapi\AppData\Local\Temp\ccjI6QBi.s:1978   .text.cmd_iperf:0000000000000146 .LVL179
C:\Users\stapi\AppData\Local\Temp\ccjI6QBi.s:1998   .text.cmd_iperf:000000000000015c .LVL182
C:\Users\stapi\AppData\Local\Temp\ccjI6QBi.s:2015   .text.cmd_iperf:0000000000000178 .LVL184
C:\Users\stapi\AppData\Local\Temp\ccjI6QBi.s:2023   .text.cmd_iperf:0000000000000186 .LVL186
C:\Users\stapi\AppData\Local\Temp\ccjI6QBi.s:2056   .text.cmd_iperf:00000000000001b6 .LVL188
C:\Users\stapi\AppData\Local\Temp\ccjI6QBi.s:2062   .text.cmd_iperf:00000000000001ba .LVL189
C:\Users\stapi\AppData\Local\Temp\ccjI6QBi.s:1431   .text.iperf_start:0000000000000000 .LVL132
C:\Users\stapi\AppData\Local\Temp\ccjI6QBi.s:1482   .text.iperf_start:000000000000002a .LVL136
C:\Users\stapi\AppData\Local\Temp\ccjI6QBi.s:1504   .text.iperf_start:0000000000000042 .LVL138
C:\Users\stapi\AppData\Local\Temp\ccjI6QBi.s:1526   .text.iperf_start:0000000000000058 .LVL141
C:\Users\stapi\AppData\Local\Temp\ccjI6QBi.s:1540   .text.iperf_start:0000000000000072 .LVL143
C:\Users\stapi\AppData\Local\Temp\ccjI6QBi.s:1625   .text.iperf_start:0000000000000124 .LVL154
C:\Users\stapi\AppData\Local\Temp\ccjI6QBi.s:1442   .text.iperf_start:0000000000000008 .LVL133
C:\Users\stapi\AppData\Local\Temp\ccjI6QBi.s:1523   .text.iperf_start:0000000000000056 .LVL140
C:\Users\stapi\AppData\Local\Temp\ccjI6QBi.s:1475   .text.iperf_start:0000000000000026 .LVL135
C:\Users\stapi\AppData\Local\Temp\ccjI6QBi.s:1468   .text.iperf_start:000000000000001e .LVL134
C:\Users\stapi\AppData\Local\Temp\ccjI6QBi.s:1511   .text.iperf_start:0000000000000044 .LVL139
C:\Users\stapi\AppData\Local\Temp\ccjI6QBi.s:1332   .text.iperf_stop_all:0000000000000008 .LVL121
C:\Users\stapi\AppData\Local\Temp\ccjI6QBi.s:1345   .text.iperf_stop_all:000000000000001c .LVL122
C:\Users\stapi\AppData\Local\Temp\ccjI6QBi.s:1396   .text.iperf_stop_all:0000000000000064 .LVL127
C:\Users\stapi\AppData\Local\Temp\ccjI6QBi.s:1398   .text.iperf_stop_all:0000000000000066 .LVL128
C:\Users\stapi\AppData\Local\Temp\ccjI6QBi.s:1353   .text.iperf_stop_all:0000000000000022 .LVL123
C:\Users\stapi\AppData\Local\Temp\ccjI6QBi.s:799    .text.iperf_print_stats:0000000000000000 .LVL77
C:\Users\stapi\AppData\Local\Temp\ccjI6QBi.s:849    .text.iperf_print_stats:0000000000000020 .LVL81
C:\Users\stapi\AppData\Local\Temp\ccjI6QBi.s:879    .text.iperf_print_stats:0000000000000050 .LVL85
C:\Users\stapi\AppData\Local\Temp\ccjI6QBi.s:824    .text.iperf_print_stats:0000000000000012 .LVL79
C:\Users\stapi\AppData\Local\Temp\ccjI6QBi.s:822    .text.iperf_print_stats:0000000000000010 .LVL78
C:\Users\stapi\AppData\Local\Temp\ccjI6QBi.s:831    .text.iperf_print_stats:000000000000001a .LVL80
C:\Users\stapi\AppData\Local\Temp\ccjI6QBi.s:851    .text.iperf_print_stats:0000000000000024 .LVL82
C:\Users\stapi\AppData\Local\Temp\ccjI6QBi.s:860    .text.iperf_print_stats:0000000000000032 .LVL83
C:\Users\stapi\AppData\Local\Temp\ccjI6QBi.s:863    .text.iperf_print_stats:0000000000000034 .LVL84
C:\Users\stapi\AppData\Local\Temp\ccjI6QBi.s:886    .text.iperf_print_stats:0000000000000054 .LVL87
C:\Users\stapi\AppData\Local\Temp\ccjI6QBi.s:950    .text.iperf_print_stats:000000000000009e .LVL98
C:\Users\stapi\AppData\Local\Temp\ccjI6QBi.s:882    .text.iperf_print_stats:0000000000000052 .LVL86
C:\Users\stapi\AppData\Local\Temp\ccjI6QBi.s:1048   .text.iperf_print_stats:000000000000015a .LVL108
C:\Users\stapi\AppData\Local\Temp\ccjI6QBi.s:1113   .text.iperf_print_stats:00000000000001ce .LVL113
C:\Users\stapi\AppData\Local\Temp\ccjI6QBi.s:895    .text.iperf_print_stats:0000000000000060 .LVL89
C:\Users\stapi\AppData\Local\Temp\ccjI6QBi.s:903    .text.iperf_print_stats:0000000000000068 .LVL90
C:\Users\stapi\AppData\Local\Temp\ccjI6QBi.s:911    .text.iperf_print_stats:0000000000000070 .LVL92
C:\Users\stapi\AppData\Local\Temp\ccjI6QBi.s:918    .text.iperf_print_stats:000000000000007a .LVL93
C:\Users\stapi\AppData\Local\Temp\ccjI6QBi.s:929    .text.iperf_print_stats:000000000000008a .LVL94
C:\Users\stapi\AppData\Local\Temp\ccjI6QBi.s:937    .text.iperf_print_stats:0000000000000092 .LVL95
C:\Users\stapi\AppData\Local\Temp\ccjI6QBi.s:945    .text.iperf_print_stats:000000000000009a .LVL97
C:\Users\stapi\AppData\Local\Temp\ccjI6QBi.s:963    .text.iperf_print_stats:00000000000000b6 .LVL99
C:\Users\stapi\AppData\Local\Temp\ccjI6QBi.s:889    .text.iperf_print_stats:0000000000000056 .LVL88
C:\Users\stapi\AppData\Local\Temp\ccjI6QBi.s:1013   .text.iperf_print_stats:0000000000000126 .LVL105
C:\Users\stapi\AppData\Local\Temp\ccjI6QBi.s:1032   .text.iperf_print_stats:0000000000000144 .LVL106
C:\Users\stapi\AppData\Local\Temp\ccjI6QBi.s:1052   .text.iperf_print_stats:000000000000015e .LVL109
C:\Users\stapi\AppData\Local\Temp\ccjI6QBi.s:1060   .text.iperf_print_stats:000000000000016e .LVL110
C:\Users\stapi\AppData\Local\Temp\ccjI6QBi.s:1151   .text.iperf_print_interv_stats:0000000000000000 .LVL116
C:\Users\stapi\AppData\Local\Temp\ccjI6QBi.s:1240   .text.iperf_print_interv_stats:000000000000007c .LVL117
C:\Users\stapi\AppData\Local\Temp\ccjI6QBi.s:1301   .text.iperf_print_interv_stats:00000000000000ea .LVL120
C:\Users\stapi\AppData\Local\Temp\ccjI6QBi.s:646    .text.iperf_init_stats:0000000000000000 .LVL68
C:\Users\stapi\AppData\Local\Temp\ccjI6QBi.s:661    .text.iperf_init_stats:0000000000000012 .LVL70
C:\Users\stapi\AppData\Local\Temp\ccjI6QBi.s:652    .text.iperf_init_stats:0000000000000008 .LVL69
C:\Users\stapi\AppData\Local\Temp\ccjI6QBi.s:722    .text.iperf_init_stats:0000000000000082 .LVL74
C:\Users\stapi\AppData\Local\Temp\ccjI6QBi.s:743    .text.iperf_init_stats:00000000000000aa .LVL75
C:\Users\stapi\AppData\Local\Temp\ccjI6QBi.s:762    .text.iperf_init_stats:00000000000000c4 .LVL76
C:\Users\stapi\AppData\Local\Temp\ccjI6QBi.s:580    .text.iperf_settings_init:0000000000000000 .LVL66
C:\Users\stapi\AppData\Local\Temp\ccjI6QBi.s:36     .text.iperf_main:0000000000000000 .LVL0
C:\Users\stapi\AppData\Local\Temp\ccjI6QBi.s:55     .text.iperf_main:0000000000000016 .LVL2
C:\Users\stapi\AppData\Local\Temp\ccjI6QBi.s:42     .text.iperf_main:0000000000000008 .LVL1
C:\Users\stapi\AppData\Local\Temp\ccjI6QBi.s:192    .text.iperf_snprintf.constprop.0:0000000000000000 .LVL16
C:\Users\stapi\AppData\Local\Temp\ccjI6QBi.s:409    .text.iperf_snprintf.constprop.0:000000000000012e .LVL42
C:\Users\stapi\AppData\Local\Temp\ccjI6QBi.s:268    .text.iperf_snprintf.constprop.0:0000000000000060 .LVL24
C:\Users\stapi\AppData\Local\Temp\ccjI6QBi.s:389    .text.iperf_snprintf.constprop.0:000000000000010c .LVL39
C:\Users\stapi\AppData\Local\Temp\ccjI6QBi.s:535    .text.iperf_snprintf.constprop.0:00000000000001ba .LVL60
C:\Users\stapi\AppData\Local\Temp\ccjI6QBi.s:545    .text.iperf_snprintf.constprop.0:00000000000001cc .LVL62
C:\Users\stapi\AppData\Local\Temp\ccjI6QBi.s:559    .text.iperf_snprintf.constprop.0:00000000000001de .LVL63
C:\Users\stapi\AppData\Local\Temp\ccjI6QBi.s:208    .text.iperf_snprintf.constprop.0:000000000000001c .LVL18
C:\Users\stapi\AppData\Local\Temp\ccjI6QBi.s:270    .text.iperf_snprintf.constprop.0:0000000000000062 .LVL25
C:\Users\stapi\AppData\Local\Temp\ccjI6QBi.s:288    .text.iperf_snprintf.constprop.0:0000000000000084 .LVL26
C:\Users\stapi\AppData\Local\Temp\ccjI6QBi.s:417    .text.iperf_snprintf.constprop.0:0000000000000136 .LVL43
C:\Users\stapi\AppData\Local\Temp\ccjI6QBi.s:196    .text.iperf_snprintf.constprop.0:0000000000000008 .LVL17
C:\Users\stapi\AppData\Local\Temp\ccjI6QBi.s:237    .text.iperf_snprintf.constprop.0:0000000000000038 .LVL19
C:\Users\stapi\AppData\Local\Temp\ccjI6QBi.s:256    .text.iperf_snprintf.constprop.0:0000000000000052 .LVL21
C:\Users\stapi\AppData\Local\Temp\ccjI6QBi.s:260    .text.iperf_snprintf.constprop.0:0000000000000054 .LVL22
C:\Users\stapi\AppData\Local\Temp\ccjI6QBi.s:262    .text.iperf_snprintf.constprop.0:0000000000000058 .LVL23
C:\Users\stapi\AppData\Local\Temp\ccjI6QBi.s:309    .text.iperf_snprintf.constprop.0:000000000000009c .LVL28
C:\Users\stapi\AppData\Local\Temp\ccjI6QBi.s:317    .text.iperf_snprintf.constprop.0:00000000000000a6 .LVL29
C:\Users\stapi\AppData\Local\Temp\ccjI6QBi.s:344    .text.iperf_snprintf.constprop.0:00000000000000cc .LVL32
C:\Users\stapi\AppData\Local\Temp\ccjI6QBi.s:348    .text.iperf_snprintf.constprop.0:00000000000000ce .LVL33
C:\Users\stapi\AppData\Local\Temp\ccjI6QBi.s:350    .text.iperf_snprintf.constprop.0:00000000000000d2 .LVL34
C:\Users\stapi\AppData\Local\Temp\ccjI6QBi.s:384    .text.iperf_snprintf.constprop.0:0000000000000108 .LVL38
C:\Users\stapi\AppData\Local\Temp\ccjI6QBi.s:425    .text.iperf_snprintf.constprop.0:000000000000013a .LVL44
C:\Users\stapi\AppData\Local\Temp\ccjI6QBi.s:431    .text.iperf_snprintf.constprop.0:000000000000013c .LVL45
C:\Users\stapi\AppData\Local\Temp\ccjI6QBi.s:438    .text.iperf_snprintf.constprop.0:0000000000000144 .LVL47
C:\Users\stapi\AppData\Local\Temp\ccjI6QBi.s:451    .text.iperf_snprintf.constprop.0:000000000000014c .LVL50
C:\Users\stapi\AppData\Local\Temp\ccjI6QBi.s:453    .text.iperf_snprintf.constprop.0:0000000000000150 .LVL51
C:\Users\stapi\AppData\Local\Temp\ccjI6QBi.s:462    .text.iperf_snprintf.constprop.0:000000000000015e .LVL52
C:\Users\stapi\AppData\Local\Temp\ccjI6QBi.s:483    .text.iperf_snprintf.constprop.0:0000000000000178 .LVL53
C:\Users\stapi\AppData\Local\Temp\ccjI6QBi.s:491    .text.iperf_snprintf.constprop.0:000000000000017e .LVL55
C:\Users\stapi\AppData\Local\Temp\ccjI6QBi.s:500    .text.iperf_snprintf.constprop.0:0000000000000186 .LVL56
C:\Users\stapi\AppData\Local\Temp\ccjI6QBi.s:530    .text.iperf_snprintf.constprop.0:00000000000001b6 .LVL59
C:\Users\stapi\AppData\Local\Temp\ccjI6QBi.s:564    .text.iperf_snprintf.constprop.0:00000000000001e8 .LVL64
C:\Users\stapi\AppData\Local\Temp\ccjI6QBi.s:251    .text.iperf_snprintf.constprop.0:000000000000004e .LVL20
C:\Users\stapi\AppData\Local\Temp\ccjI6QBi.s:339    .text.iperf_snprintf.constprop.0:00000000000000c8 .LVL31
C:\Users\stapi\AppData\Local\Temp\ccjI6QBi.s:355    .text.iperf_snprintf.constprop.0:00000000000000d6 .LVL35
C:\Users\stapi\AppData\Local\Temp\ccjI6QBi.s:374    .text.iperf_snprintf.constprop.0:00000000000000f8 .LVL37
C:\Users\stapi\AppData\Local\Temp\ccjI6QBi.s:520    .text.iperf_snprintf.constprop.0:00000000000001a8 .LVL58
C:\Users\stapi\AppData\Local\Temp\ccjI6QBi.s:397    .text.iperf_snprintf.constprop.0:000000000000011c .LVL40
C:\Users\stapi\AppData\Local\Temp\ccjI6QBi.s:543    .text.iperf_snprintf.constprop.0:00000000000001ca .LVL61
C:\Users\stapi\AppData\Local\Temp\ccjI6QBi.s:440    .text.iperf_snprintf.constprop.0:0000000000000146 .LVL48
C:\Users\stapi\AppData\Local\Temp\ccjI6QBi.s:363    .text.iperf_snprintf.constprop.0:00000000000000e4 .LVL36
C:\Users\stapi\AppData\Local\Temp\ccjI6QBi.s:509    .text.iperf_snprintf.constprop.0:0000000000000194 .LVL57
C:\Users\stapi\AppData\Local\Temp\ccjI6QBi.s:302    .text.iperf_snprintf.constprop.0:0000000000000098 .LVL27
C:\Users\stapi\AppData\Local\Temp\ccjI6QBi.s:2558   .debug_info:0000000000000000 .Ldebug_info0
C:\Users\stapi\AppData\Local\Temp\ccjI6QBi.s:292    .text.iperf_snprintf.constprop.0:0000000000000084 .LBB4
C:\Users\stapi\AppData\Local\Temp\ccjI6QBi.s:303    .text.iperf_snprintf.constprop.0:0000000000000098 .LBE4
C:\Users\stapi\AppData\Local\Temp\ccjI6QBi.s:306    .text.iperf_snprintf.constprop.0:000000000000009a .LBB5
C:\Users\stapi\AppData\Local\Temp\ccjI6QBi.s:319    .text.iperf_snprintf.constprop.0:00000000000000a6 .LBE5
C:\Users\stapi\AppData\Local\Temp\ccjI6QBi.s:427    .text.iperf_snprintf.constprop.0:000000000000013a .LBB6
C:\Users\stapi\AppData\Local\Temp\ccjI6QBi.s:442    .text.iperf_snprintf.constprop.0:0000000000000146 .LBE6
C:\Users\stapi\AppData\Local\Temp\ccjI6QBi.s:443    .text.iperf_snprintf.constprop.0:0000000000000146 .LBB7
C:\Users\stapi\AppData\Local\Temp\ccjI6QBi.s:470    .text.iperf_snprintf.constprop.0:000000000000016a .LBE7
C:\Users\stapi\AppData\Local\Temp\ccjI6QBi.s:473    .text.iperf_snprintf.constprop.0:000000000000016e .LBB8
C:\Users\stapi\AppData\Local\Temp\ccjI6QBi.s:476    .text.iperf_snprintf.constprop.0:0000000000000172 .LBE8
C:\Users\stapi\AppData\Local\Temp\ccjI6QBi.s:479    .text.iperf_snprintf.constprop.0:0000000000000174 .LBB9
C:\Users\stapi\AppData\Local\Temp\ccjI6QBi.s:485    .text.iperf_snprintf.constprop.0:0000000000000178 .LBE9
C:\Users\stapi\AppData\Local\Temp\ccjI6QBi.s:719    .text.iperf_init_stats:0000000000000082 .LBB10
C:\Users\stapi\AppData\Local\Temp\ccjI6QBi.s:745    .text.iperf_init_stats:00000000000000aa .LBE10
C:\Users\stapi\AppData\Local\Temp\ccjI6QBi.s:764    .text.iperf_init_stats:00000000000000c4 .LBB11
C:\Users\stapi\AppData\Local\Temp\ccjI6QBi.s:773    .text.iperf_init_stats:00000000000000d6 .LBE11
C:\Users\stapi\AppData\Local\Temp\ccjI6QBi.s:813    .text.iperf_print_stats:0000000000000008 .LBB12
C:\Users\stapi\AppData\Local\Temp\ccjI6QBi.s:816    .text.iperf_print_stats:000000000000000c .LBE12
C:\Users\stapi\AppData\Local\Temp\ccjI6QBi.s:819    .text.iperf_print_stats:000000000000000e .LBB13
C:\Users\stapi\AppData\Local\Temp\ccjI6QBi.s:826    .text.iperf_print_stats:0000000000000016 .LBE13
C:\Users\stapi\AppData\Local\Temp\ccjI6QBi.s:839    .text.iperf_print_stats:000000000000001a .LBB14
C:\Users\stapi\AppData\Local\Temp\ccjI6QBi.s:842    .text.iperf_print_stats:000000000000001a .LBE14
C:\Users\stapi\AppData\Local\Temp\ccjI6QBi.s:846    .text.iperf_print_stats:000000000000001c .LBB15
C:\Users\stapi\AppData\Local\Temp\ccjI6QBi.s:865    .text.iperf_print_stats:0000000000000034 .LBE15
C:\Users\stapi\AppData\Local\Temp\ccjI6QBi.s:1456   .text.iperf_start:0000000000000014 .LBE19
C:\Users\stapi\AppData\Local\Temp\ccjI6QBi.s:1463   .text.iperf_start:000000000000001c .LBB24
C:\Users\stapi\AppData\Local\Temp\ccjI6QBi.s:1478   .text.iperf_start:0000000000000026 .LBE24
C:\Users\stapi\AppData\Local\Temp\ccjI6QBi.s:1507   .text.iperf_start:0000000000000042 .LBB25
C:\Users\stapi\AppData\Local\Temp\ccjI6QBi.s:1514   .text.iperf_start:0000000000000044 .LBE25
C:\Users\stapi\AppData\Local\Temp\ccjI6QBi.s:1627   .text.iperf_start:0000000000000124 .LBB26
C:\Users\stapi\AppData\Local\Temp\ccjI6QBi.s:1633   .text.iperf_start:0000000000000128 .LBE26
C:\Users\stapi\AppData\Local\Temp\ccjI6QBi.s:1821   .text.cmd_iperf:0000000000000058 .LBB27
C:\Users\stapi\AppData\Local\Temp\ccjI6QBi.s:1824   .text.cmd_iperf:000000000000005a .LBE27
C:\Users\stapi\AppData\Local\Temp\ccjI6QBi.s:1833   .text.cmd_iperf:0000000000000066 .LBB29
C:\Users\stapi\AppData\Local\Temp\ccjI6QBi.s:1836   .text.cmd_iperf:000000000000006a .LBE29
C:\Users\stapi\AppData\Local\Temp\ccjI6QBi.s:1996   .text.cmd_iperf:000000000000015c .LBB32
C:\Users\stapi\AppData\Local\Temp\ccjI6QBi.s:2064   .text.cmd_iperf:00000000000001ba .LBE32
C:\Users\stapi\AppData\Local\Temp\ccjI6QBi.s:1825   .text.cmd_iperf:000000000000005a .LBB28
C:\Users\stapi\AppData\Local\Temp\ccjI6QBi.s:1828   .text.cmd_iperf:000000000000005e .LBE28
C:\Users\stapi\AppData\Local\Temp\ccjI6QBi.s:1837   .text.cmd_iperf:000000000000006a .LBB30
C:\Users\stapi\AppData\Local\Temp\ccjI6QBi.s:1842   .text.cmd_iperf:000000000000006e .LBE30
C:\Users\stapi\AppData\Local\Temp\ccjI6QBi.s:1938   .text.cmd_iperf:000000000000010c .LBB31
C:\Users\stapi\AppData\Local\Temp\ccjI6QBi.s:1980   .text.cmd_iperf:0000000000000146 .LBE31

UNDEFINED SYMBOLS
__riscv_save_1
co_printf
net_iperf_buf_init
sys_sema_free
sys_mutex_free
net_iperf_buf_deinit
sys_task_delete
__riscv_restore_1
net_iperf_udp_client_run
net_iperf_tcp_client_run
net_iperf_udp_server_run
net_iperf_tcp_server_run
__riscv_save_0
dbg_snprintf
__riscv_restore_0
sys_memset
get_time
__floatundisf
__riscv_save_9
__riscv_restore_9
memcpy
__riscv_save_5
lock_tcpip_core
sys_sema_up
__riscv_restore_5
sys_mutex_get
net_iperf_tcp_close
sys_mutex_put
__riscv_save_6
__riscv_restore_6
sys_sema_init_ext
sys_mutex_init
sys_task_create
strncmp
cli_parse_ip4
atoi
byte_atoi
strtoul
