   1              		.file	"main.c"
   2              		.option nopic
   3              		.attribute arch, "rv32i2p0_m2p0_a2p0_f2p0_c2p0_b_p0p94"
   4              		.attribute unaligned_access, 0
   5              		.attribute stack_align, 16
   6              		.section	.rodata.str1.4,"aMS",@progbits,1
   7              		.align	2
   8              	.LC0:
   9 0000 6D717474 		.string	"mqtt"
   9      00
  10 0005 000000   		.align	2
  11              	.LC1:
  12 0008 636F6E6E 		.string	"connect"
  12      65637400 
  13              		.align	2
  14              	.LC2:
  15 0010 62726F6B 		.string	"broker.emqx.io"
  15      65722E65 
  15      6D71782E 
  15      696F00
  16 001f 00       		.align	2
  17              	.LC3:
  18 0020 31383833 		.string	"1883"
  18      00
  19 0025 000000   		.align	2
  20              	.LC4:
  21 0028 3000     		.string	"0"
  22 002a 0000     		.align	2
  23              	.LC6:
  24 002c 7075626C 		.string	"publish"
  24      69736800 
  25              		.align	2
  26              	.LC7:
  27 0034 74657374 		.string	"test/topic"
  27      2F746F70 
  27      696300
  28 003f 00       		.align	2
  29              	.LC8:
  30 0040 48656C6C 		.string	"Hello, MQTT!"
  30      6F2C204D 
  30      51545421 
  30      00
  31 004d 000000   		.align	2
  32              	.LC10:
  33 0050 73756273 		.string	"subscribe"
  33      63726962 
  33      6500
  34 005a 0000     		.align	2
  35              	.LC11:
  36 005c 3100     		.string	"1"
  37              		.text
  38              	.Ltext0:
  39              		.cfi_sections	.debug_frame
  40              		.section	.rodata.main.str1.4,"aMS",@progbits,1
  41              		.align	2
  42              	.LC13:
  43 0000 4661696C 		.string	"Failed to initialize Wi-Fi management. Halting...\n"
  43      65642074 
  43      6F20696E 
  43      69746961 
  43      6C697A65 
  44 0033 00       		.align	2
  45              	.LC14:
  46 0034 41747465 		.string	"Attempting to connect to Wi-Fi...\n"
  46      6D707469 
  46      6E672074 
  46      6F20636F 
  46      6E6E6563 
  47 0057 00       		.align	2
  48              	.LC15:
  49 0058 4D406221 		.string	"M@b!lz12.*"
  49      6C7A3132 
  49      2E2A00
  50 0063 00       		.align	2
  51              	.LC16:
  52 0064 4D6F6269 		.string	"Mobiliz NaRGE_Guest"
  52      6C697A20 
  52      4E615247 
  52      455F4775 
  52      65737400 
  53              		.align	2
  54              	.LC17:
  55 0078 57692D46 		.string	"Wi-Fi connected successfully.\n"
  55      6920636F 
  55      6E6E6563 
  55      74656420 
  55      73756363 
  56 0097 00       		.align	2
  57              	.LC21:
  58 0098 57692D46 		.string	"Wi-Fi connection failed. Retrying...\n"
  58      6920636F 
  58      6E6E6563 
  58      74696F6E 
  58      20666169 
  59 00be 0000     		.align	2
  60              	.LC22:
  61 00c0 57692D46 		.string	"Wi-Fi connection failed after maximum retries.\n"
  61      6920636F 
  61      6E6E6563 
  61      74696F6E 
  61      20666169 
  62              		.align	2
  63              	.LC23:
  64 00f0 4661696C 		.string	"Failed to connect to Wi-Fi. Halting...\n"
  64      65642074 
  64      6F20636F 
  64      6E6E6563 
  64      7420746F 
  65              		.section	.text.startup.main,"ax",@progbits
  66              		.align	1
  67              		.globl	main
  69              	main:
  70              	.LFB22:
  71              		.file 1 "C:/Users/stapi/OneDrive/Desktop/GD32VW553/V1_MQTT_OK/GD32VW55X_Wifi_BLE_SDK/GD32VW55x_REL
   1:C:/Users/stapi/OneDrive/Desktop/GD32VW553/V1_MQTT_OK/GD32VW55X_Wifi_BLE_SDK/GD32VW55x_RELEASE_V1.0.2/MSDK/app\main.c **** #include <stdint.h>
   2:C:/Users/stapi/OneDrive/Desktop/GD32VW553/V1_MQTT_OK/GD32VW55X_Wifi_BLE_SDK/GD32VW55x_RELEASE_V1.0.2/MSDK/app\main.c **** #include "gd32vw55x_platform.h"
   3:C:/Users/stapi/OneDrive/Desktop/GD32VW553/V1_MQTT_OK/GD32VW55X_Wifi_BLE_SDK/GD32VW55x_RELEASE_V1.0.2/MSDK/app\main.c **** #include "wrapper_os.h"
   4:C:/Users/stapi/OneDrive/Desktop/GD32VW553/V1_MQTT_OK/GD32VW55X_Wifi_BLE_SDK/GD32VW55x_RELEASE_V1.0.2/MSDK/app\main.c **** #include "wifi_export.h"
   5:C:/Users/stapi/OneDrive/Desktop/GD32VW553/V1_MQTT_OK/GD32VW55X_Wifi_BLE_SDK/GD32VW55x_RELEASE_V1.0.2/MSDK/app\main.c **** #include "mqtt_cmd.h"  // Include mqtt_cmd for MQTT functionality
   6:C:/Users/stapi/OneDrive/Desktop/GD32VW553/V1_MQTT_OK/GD32VW55X_Wifi_BLE_SDK/GD32VW55x_RELEASE_V1.0.2/MSDK/app\main.c **** #include "wifi_management.h"
   7:C:/Users/stapi/OneDrive/Desktop/GD32VW553/V1_MQTT_OK/GD32VW55X_Wifi_BLE_SDK/GD32VW55x_RELEASE_V1.0.2/MSDK/app\main.c **** 
   8:C:/Users/stapi/OneDrive/Desktop/GD32VW553/V1_MQTT_OK/GD32VW55X_Wifi_BLE_SDK/GD32VW55x_RELEASE_V1.0.2/MSDK/app\main.c **** // Wi-Fi credentials
   9:C:/Users/stapi/OneDrive/Desktop/GD32VW553/V1_MQTT_OK/GD32VW55X_Wifi_BLE_SDK/GD32VW55x_RELEASE_V1.0.2/MSDK/app\main.c **** #define WIFI_SSID "Mobiliz NaRGE_Guest"
  10:C:/Users/stapi/OneDrive/Desktop/GD32VW553/V1_MQTT_OK/GD32VW55X_Wifi_BLE_SDK/GD32VW55x_RELEASE_V1.0.2/MSDK/app\main.c **** #define WIFI_PASSWORD "M@b!lz12.*"
  11:C:/Users/stapi/OneDrive/Desktop/GD32VW553/V1_MQTT_OK/GD32VW55X_Wifi_BLE_SDK/GD32VW55x_RELEASE_V1.0.2/MSDK/app\main.c **** 
  12:C:/Users/stapi/OneDrive/Desktop/GD32VW553/V1_MQTT_OK/GD32VW55X_Wifi_BLE_SDK/GD32VW55x_RELEASE_V1.0.2/MSDK/app\main.c **** // Retry configuration
  13:C:/Users/stapi/OneDrive/Desktop/GD32VW553/V1_MQTT_OK/GD32VW55X_Wifi_BLE_SDK/GD32VW55x_RELEASE_V1.0.2/MSDK/app\main.c **** #define WIFI_RETRY_LIMIT 5
  14:C:/Users/stapi/OneDrive/Desktop/GD32VW553/V1_MQTT_OK/GD32VW55X_Wifi_BLE_SDK/GD32VW55x_RELEASE_V1.0.2/MSDK/app\main.c **** #define WIFI_RETRY_INTERVAL 2000 // in milliseconds
  15:C:/Users/stapi/OneDrive/Desktop/GD32VW553/V1_MQTT_OK/GD32VW55X_Wifi_BLE_SDK/GD32VW55x_RELEASE_V1.0.2/MSDK/app\main.c **** 
  16:C:/Users/stapi/OneDrive/Desktop/GD32VW553/V1_MQTT_OK/GD32VW55X_Wifi_BLE_SDK/GD32VW55x_RELEASE_V1.0.2/MSDK/app\main.c **** /**
  17:C:/Users/stapi/OneDrive/Desktop/GD32VW553/V1_MQTT_OK/GD32VW55X_Wifi_BLE_SDK/GD32VW55x_RELEASE_V1.0.2/MSDK/app\main.c ****  * @brief Connect to Wi-Fi with retries
  18:C:/Users/stapi/OneDrive/Desktop/GD32VW553/V1_MQTT_OK/GD32VW55X_Wifi_BLE_SDK/GD32VW55x_RELEASE_V1.0.2/MSDK/app\main.c ****  *
  19:C:/Users/stapi/OneDrive/Desktop/GD32VW553/V1_MQTT_OK/GD32VW55X_Wifi_BLE_SDK/GD32VW55x_RELEASE_V1.0.2/MSDK/app\main.c ****  * @return int 0 if connected successfully, -1 otherwise
  20:C:/Users/stapi/OneDrive/Desktop/GD32VW553/V1_MQTT_OK/GD32VW55X_Wifi_BLE_SDK/GD32VW55x_RELEASE_V1.0.2/MSDK/app\main.c ****  */
  21:C:/Users/stapi/OneDrive/Desktop/GD32VW553/V1_MQTT_OK/GD32VW55X_Wifi_BLE_SDK/GD32VW55x_RELEASE_V1.0.2/MSDK/app\main.c **** static int wifi_connect_with_retry(void) {
  22:C:/Users/stapi/OneDrive/Desktop/GD32VW553/V1_MQTT_OK/GD32VW55X_Wifi_BLE_SDK/GD32VW55x_RELEASE_V1.0.2/MSDK/app\main.c ****     int retry_count = 0;
  23:C:/Users/stapi/OneDrive/Desktop/GD32VW553/V1_MQTT_OK/GD32VW55X_Wifi_BLE_SDK/GD32VW55x_RELEASE_V1.0.2/MSDK/app\main.c ****     int status;
  24:C:/Users/stapi/OneDrive/Desktop/GD32VW553/V1_MQTT_OK/GD32VW55X_Wifi_BLE_SDK/GD32VW55x_RELEASE_V1.0.2/MSDK/app\main.c **** 
  25:C:/Users/stapi/OneDrive/Desktop/GD32VW553/V1_MQTT_OK/GD32VW55X_Wifi_BLE_SDK/GD32VW55x_RELEASE_V1.0.2/MSDK/app\main.c ****     while (retry_count < WIFI_RETRY_LIMIT || WIFI_RETRY_LIMIT == 0) {
  26:C:/Users/stapi/OneDrive/Desktop/GD32VW553/V1_MQTT_OK/GD32VW55X_Wifi_BLE_SDK/GD32VW55x_RELEASE_V1.0.2/MSDK/app\main.c ****         app_print("Attempting to connect to Wi-Fi...\n");
  27:C:/Users/stapi/OneDrive/Desktop/GD32VW553/V1_MQTT_OK/GD32VW55X_Wifi_BLE_SDK/GD32VW55x_RELEASE_V1.0.2/MSDK/app\main.c ****         status = wifi_management_connect(WIFI_SSID, WIFI_PASSWORD, 1); // Blocked connect
  28:C:/Users/stapi/OneDrive/Desktop/GD32VW553/V1_MQTT_OK/GD32VW55X_Wifi_BLE_SDK/GD32VW55x_RELEASE_V1.0.2/MSDK/app\main.c ****         if (status == 0) {
  29:C:/Users/stapi/OneDrive/Desktop/GD32VW553/V1_MQTT_OK/GD32VW55X_Wifi_BLE_SDK/GD32VW55x_RELEASE_V1.0.2/MSDK/app\main.c ****             app_print("Wi-Fi connected successfully.\n");
  30:C:/Users/stapi/OneDrive/Desktop/GD32VW553/V1_MQTT_OK/GD32VW55X_Wifi_BLE_SDK/GD32VW55x_RELEASE_V1.0.2/MSDK/app\main.c ****             return 0;
  31:C:/Users/stapi/OneDrive/Desktop/GD32VW553/V1_MQTT_OK/GD32VW55X_Wifi_BLE_SDK/GD32VW55x_RELEASE_V1.0.2/MSDK/app\main.c ****         }
  32:C:/Users/stapi/OneDrive/Desktop/GD32VW553/V1_MQTT_OK/GD32VW55X_Wifi_BLE_SDK/GD32VW55x_RELEASE_V1.0.2/MSDK/app\main.c **** 
  33:C:/Users/stapi/OneDrive/Desktop/GD32VW553/V1_MQTT_OK/GD32VW55X_Wifi_BLE_SDK/GD32VW55x_RELEASE_V1.0.2/MSDK/app\main.c ****         app_print("Wi-Fi connection failed. Retrying...\n");
  34:C:/Users/stapi/OneDrive/Desktop/GD32VW553/V1_MQTT_OK/GD32VW55X_Wifi_BLE_SDK/GD32VW55x_RELEASE_V1.0.2/MSDK/app\main.c ****         sys_ms_sleep(WIFI_RETRY_INTERVAL);
  35:C:/Users/stapi/OneDrive/Desktop/GD32VW553/V1_MQTT_OK/GD32VW55X_Wifi_BLE_SDK/GD32VW55x_RELEASE_V1.0.2/MSDK/app\main.c ****         retry_count++;
  36:C:/Users/stapi/OneDrive/Desktop/GD32VW553/V1_MQTT_OK/GD32VW55X_Wifi_BLE_SDK/GD32VW55x_RELEASE_V1.0.2/MSDK/app\main.c ****     }
  37:C:/Users/stapi/OneDrive/Desktop/GD32VW553/V1_MQTT_OK/GD32VW55X_Wifi_BLE_SDK/GD32VW55x_RELEASE_V1.0.2/MSDK/app\main.c **** 
  38:C:/Users/stapi/OneDrive/Desktop/GD32VW553/V1_MQTT_OK/GD32VW55X_Wifi_BLE_SDK/GD32VW55x_RELEASE_V1.0.2/MSDK/app\main.c ****     app_print("Wi-Fi connection failed after maximum retries.\n");
  39:C:/Users/stapi/OneDrive/Desktop/GD32VW553/V1_MQTT_OK/GD32VW55X_Wifi_BLE_SDK/GD32VW55x_RELEASE_V1.0.2/MSDK/app\main.c ****     return -1;
  40:C:/Users/stapi/OneDrive/Desktop/GD32VW553/V1_MQTT_OK/GD32VW55X_Wifi_BLE_SDK/GD32VW55x_RELEASE_V1.0.2/MSDK/app\main.c **** }
  41:C:/Users/stapi/OneDrive/Desktop/GD32VW553/V1_MQTT_OK/GD32VW55X_Wifi_BLE_SDK/GD32VW55x_RELEASE_V1.0.2/MSDK/app\main.c **** 
  42:C:/Users/stapi/OneDrive/Desktop/GD32VW553/V1_MQTT_OK/GD32VW55X_Wifi_BLE_SDK/GD32VW55x_RELEASE_V1.0.2/MSDK/app\main.c **** int main(void) {
  72              		.loc 1 42 16
  73              		.cfi_startproc
  74 0000 17030000 		call	t0,__riscv_save_5
  74      E7020300 
  75              		.cfi_offset 20, -24
  76              		.cfi_offset 19, -20
  77              		.cfi_offset 18, -16
  78              		.cfi_offset 9, -12
  79              		.cfi_offset 8, -8
  80              		.cfi_offset 1, -4
  81              		.cfi_def_cfa_offset 32
  43:C:/Users/stapi/OneDrive/Desktop/GD32VW553/V1_MQTT_OK/GD32VW55X_Wifi_BLE_SDK/GD32VW55x_RELEASE_V1.0.2/MSDK/app\main.c ****     // Initialize the platform
  44:C:/Users/stapi/OneDrive/Desktop/GD32VW553/V1_MQTT_OK/GD32VW55X_Wifi_BLE_SDK/GD32VW55x_RELEASE_V1.0.2/MSDK/app\main.c ****     platform_init();
  82              		.loc 1 44 5
  42:C:/Users/stapi/OneDrive/Desktop/GD32VW553/V1_MQTT_OK/GD32VW55X_Wifi_BLE_SDK/GD32VW55x_RELEASE_V1.0.2/MSDK/app\main.c ****     // Initialize the platform
  83              		.loc 1 42 16 is_stmt 0
  84 0008 3971     		addi	sp,sp,-64
  85              		.cfi_def_cfa_offset 96
  86              		.loc 1 44 5
  87 000a 97000000 		call	platform_init
  87      E7800000 
  88              	.LVL0:
  45:C:/Users/stapi/OneDrive/Desktop/GD32VW553/V1_MQTT_OK/GD32VW55X_Wifi_BLE_SDK/GD32VW55x_RELEASE_V1.0.2/MSDK/app\main.c **** 
  46:C:/Users/stapi/OneDrive/Desktop/GD32VW553/V1_MQTT_OK/GD32VW55X_Wifi_BLE_SDK/GD32VW55x_RELEASE_V1.0.2/MSDK/app\main.c ****     // Initialize Wi-Fi management
  47:C:/Users/stapi/OneDrive/Desktop/GD32VW553/V1_MQTT_OK/GD32VW55X_Wifi_BLE_SDK/GD32VW55x_RELEASE_V1.0.2/MSDK/app\main.c ****     if (wifi_management_init() != 0) {
  89              		.loc 1 47 5 is_stmt 1
  90              		.loc 1 47 9 is_stmt 0
  91 0012 97000000 		call	wifi_management_init
  91      E7800000 
  92              	.LVL1:
  93              		.loc 1 47 8
  94 001a 5DE9     		bne	a0,zero,.L9
  95 001c 1544     		li	s0,5
  96              	.LBB4:
  97              	.LBB5:
  26:C:/Users/stapi/OneDrive/Desktop/GD32VW553/V1_MQTT_OK/GD32VW55X_Wifi_BLE_SDK/GD32VW55x_RELEASE_V1.0.2/MSDK/app\main.c ****         status = wifi_management_connect(WIFI_SSID, WIFI_PASSWORD, 1); // Blocked connect
  98              		.loc 1 26 9
  99 001e 37090000 		lui	s2,%hi(.LC14)
  27:C:/Users/stapi/OneDrive/Desktop/GD32VW553/V1_MQTT_OK/GD32VW55X_Wifi_BLE_SDK/GD32VW55x_RELEASE_V1.0.2/MSDK/app\main.c ****         if (status == 0) {
 100              		.loc 1 27 18
 101 0022 B7090000 		lui	s3,%hi(.LC15)
 102 0026 370A0000 		lui	s4,%hi(.LC16)
  33:C:/Users/stapi/OneDrive/Desktop/GD32VW553/V1_MQTT_OK/GD32VW55X_Wifi_BLE_SDK/GD32VW55x_RELEASE_V1.0.2/MSDK/app\main.c ****         sys_ms_sleep(WIFI_RETRY_INTERVAL);
 103              		.loc 1 33 9
 104 002a B7040000 		lui	s1,%hi(.LC21)
 105              	.L2:
 106              	.LVL2:
  26:C:/Users/stapi/OneDrive/Desktop/GD32VW553/V1_MQTT_OK/GD32VW55X_Wifi_BLE_SDK/GD32VW55x_RELEASE_V1.0.2/MSDK/app\main.c ****         status = wifi_management_connect(WIFI_SSID, WIFI_PASSWORD, 1); // Blocked connect
 107              		.loc 1 26 9 is_stmt 1
 108 002e 13050900 		addi	a0,s2,%lo(.LC14)
 109 0032 97000000 		call	co_printf
 109      E7800000 
 110              	.LVL3:
  27:C:/Users/stapi/OneDrive/Desktop/GD32VW553/V1_MQTT_OK/GD32VW55X_Wifi_BLE_SDK/GD32VW55x_RELEASE_V1.0.2/MSDK/app\main.c ****         if (status == 0) {
 111              		.loc 1 27 9
  27:C:/Users/stapi/OneDrive/Desktop/GD32VW553/V1_MQTT_OK/GD32VW55X_Wifi_BLE_SDK/GD32VW55x_RELEASE_V1.0.2/MSDK/app\main.c ****         if (status == 0) {
 112              		.loc 1 27 18 is_stmt 0
 113 003a 0546     		li	a2,1
 114 003c 93850900 		addi	a1,s3,%lo(.LC15)
 115 0040 13050A00 		addi	a0,s4,%lo(.LC16)
 116 0044 97000000 		call	wifi_management_connect
 116      E7800000 
 117              	.LVL4:
  28:C:/Users/stapi/OneDrive/Desktop/GD32VW553/V1_MQTT_OK/GD32VW55X_Wifi_BLE_SDK/GD32VW55x_RELEASE_V1.0.2/MSDK/app\main.c ****             app_print("Wi-Fi connected successfully.\n");
 118              		.loc 1 28 9 is_stmt 1
  28:C:/Users/stapi/OneDrive/Desktop/GD32VW553/V1_MQTT_OK/GD32VW55X_Wifi_BLE_SDK/GD32VW55x_RELEASE_V1.0.2/MSDK/app\main.c ****             app_print("Wi-Fi connected successfully.\n");
 119              		.loc 1 28 12 is_stmt 0
 120 004c 45E1     		bne	a0,zero,.L4
  29:C:/Users/stapi/OneDrive/Desktop/GD32VW553/V1_MQTT_OK/GD32VW55X_Wifi_BLE_SDK/GD32VW55x_RELEASE_V1.0.2/MSDK/app\main.c ****             return 0;
 121              		.loc 1 29 13 is_stmt 1
 122 004e 37050000 		lui	a0,%hi(.LC17)
 123              	.LVL5:
 124 0052 13050500 		addi	a0,a0,%lo(.LC17)
 125 0056 97000000 		call	co_printf
 125      E7800000 
 126              	.LVL6:
  30:C:/Users/stapi/OneDrive/Desktop/GD32VW553/V1_MQTT_OK/GD32VW55X_Wifi_BLE_SDK/GD32VW55x_RELEASE_V1.0.2/MSDK/app\main.c ****         }
 127              		.loc 1 30 13
 128              	.LBE5:
 129              	.LBE4:
  48:C:/Users/stapi/OneDrive/Desktop/GD32VW553/V1_MQTT_OK/GD32VW55X_Wifi_BLE_SDK/GD32VW55x_RELEASE_V1.0.2/MSDK/app\main.c ****         app_print("Failed to initialize Wi-Fi management. Halting...\n");
  49:C:/Users/stapi/OneDrive/Desktop/GD32VW553/V1_MQTT_OK/GD32VW55X_Wifi_BLE_SDK/GD32VW55x_RELEASE_V1.0.2/MSDK/app\main.c ****         return -1;
  50:C:/Users/stapi/OneDrive/Desktop/GD32VW553/V1_MQTT_OK/GD32VW55X_Wifi_BLE_SDK/GD32VW55x_RELEASE_V1.0.2/MSDK/app\main.c ****     }
  51:C:/Users/stapi/OneDrive/Desktop/GD32VW553/V1_MQTT_OK/GD32VW55X_Wifi_BLE_SDK/GD32VW55x_RELEASE_V1.0.2/MSDK/app\main.c **** 
  52:C:/Users/stapi/OneDrive/Desktop/GD32VW553/V1_MQTT_OK/GD32VW55X_Wifi_BLE_SDK/GD32VW55x_RELEASE_V1.0.2/MSDK/app\main.c ****     // Connect to Wi-Fi with retry mechanism
  53:C:/Users/stapi/OneDrive/Desktop/GD32VW553/V1_MQTT_OK/GD32VW55X_Wifi_BLE_SDK/GD32VW55x_RELEASE_V1.0.2/MSDK/app\main.c ****     if (wifi_connect_with_retry() != 0) {
  54:C:/Users/stapi/OneDrive/Desktop/GD32VW553/V1_MQTT_OK/GD32VW55X_Wifi_BLE_SDK/GD32VW55x_RELEASE_V1.0.2/MSDK/app\main.c ****         app_print("Failed to connect to Wi-Fi. Halting...\n");
  55:C:/Users/stapi/OneDrive/Desktop/GD32VW553/V1_MQTT_OK/GD32VW55X_Wifi_BLE_SDK/GD32VW55x_RELEASE_V1.0.2/MSDK/app\main.c ****         return -1;
  56:C:/Users/stapi/OneDrive/Desktop/GD32VW553/V1_MQTT_OK/GD32VW55X_Wifi_BLE_SDK/GD32VW55x_RELEASE_V1.0.2/MSDK/app\main.c ****     }
  57:C:/Users/stapi/OneDrive/Desktop/GD32VW553/V1_MQTT_OK/GD32VW55X_Wifi_BLE_SDK/GD32VW55x_RELEASE_V1.0.2/MSDK/app\main.c **** 
  58:C:/Users/stapi/OneDrive/Desktop/GD32VW553/V1_MQTT_OK/GD32VW55X_Wifi_BLE_SDK/GD32VW55x_RELEASE_V1.0.2/MSDK/app\main.c ****     // Start the OS
  59:C:/Users/stapi/OneDrive/Desktop/GD32VW553/V1_MQTT_OK/GD32VW55X_Wifi_BLE_SDK/GD32VW55x_RELEASE_V1.0.2/MSDK/app\main.c ****     sys_os_start();
 130              		.loc 1 59 5
 131 005e 97000000 		call	sys_os_start
 131      E7800000 
 132              	.LVL7:
  60:C:/Users/stapi/OneDrive/Desktop/GD32VW553/V1_MQTT_OK/GD32VW55X_Wifi_BLE_SDK/GD32VW55x_RELEASE_V1.0.2/MSDK/app\main.c **** 
  61:C:/Users/stapi/OneDrive/Desktop/GD32VW553/V1_MQTT_OK/GD32VW55X_Wifi_BLE_SDK/GD32VW55x_RELEASE_V1.0.2/MSDK/app\main.c ****     // Use mqtt_cmd to connect to the MQTT server
  62:C:/Users/stapi/OneDrive/Desktop/GD32VW553/V1_MQTT_OK/GD32VW55X_Wifi_BLE_SDK/GD32VW55x_RELEASE_V1.0.2/MSDK/app\main.c ****     char *mqtt_connect_args[] = {
 133              		.loc 1 62 5
 134              		.loc 1 62 11 is_stmt 0
 135 0066 B7050000 		lui	a1,%hi(.LANCHOR0)
 136 006a 13840500 		addi	s0,a1,%lo(.LANCHOR0)
 137 006e 5146     		li	a2,20
 138 0070 93850500 		addi	a1,a1,%lo(.LANCHOR0)
 139 0074 0A85     		mv	a0,sp
 140 0076 97000000 		call	memcpy
 140      E7800000 
 141              	.LVL8:
  63:C:/Users/stapi/OneDrive/Desktop/GD32VW553/V1_MQTT_OK/GD32VW55X_Wifi_BLE_SDK/GD32VW55x_RELEASE_V1.0.2/MSDK/app\main.c ****         "mqtt",
  64:C:/Users/stapi/OneDrive/Desktop/GD32VW553/V1_MQTT_OK/GD32VW55X_Wifi_BLE_SDK/GD32VW55x_RELEASE_V1.0.2/MSDK/app\main.c ****         "connect",
  65:C:/Users/stapi/OneDrive/Desktop/GD32VW553/V1_MQTT_OK/GD32VW55X_Wifi_BLE_SDK/GD32VW55x_RELEASE_V1.0.2/MSDK/app\main.c ****         "broker.emqx.io",  // Replace with your MQTT server IP
  66:C:/Users/stapi/OneDrive/Desktop/GD32VW553/V1_MQTT_OK/GD32VW55X_Wifi_BLE_SDK/GD32VW55x_RELEASE_V1.0.2/MSDK/app\main.c ****         "1883",         // Port
  67:C:/Users/stapi/OneDrive/Desktop/GD32VW553/V1_MQTT_OK/GD32VW55X_Wifi_BLE_SDK/GD32VW55x_RELEASE_V1.0.2/MSDK/app\main.c ****         "0",            // No encryption
  68:C:/Users/stapi/OneDrive/Desktop/GD32VW553/V1_MQTT_OK/GD32VW55X_Wifi_BLE_SDK/GD32VW55x_RELEASE_V1.0.2/MSDK/app\main.c ****         //"username",     // Optional username
  69:C:/Users/stapi/OneDrive/Desktop/GD32VW553/V1_MQTT_OK/GD32VW55X_Wifi_BLE_SDK/GD32VW55x_RELEASE_V1.0.2/MSDK/app\main.c ****         //"password"      // Optional password
  70:C:/Users/stapi/OneDrive/Desktop/GD32VW553/V1_MQTT_OK/GD32VW55X_Wifi_BLE_SDK/GD32VW55x_RELEASE_V1.0.2/MSDK/app\main.c ****     };
  71:C:/Users/stapi/OneDrive/Desktop/GD32VW553/V1_MQTT_OK/GD32VW55X_Wifi_BLE_SDK/GD32VW55x_RELEASE_V1.0.2/MSDK/app\main.c ****     cmd_mqtt(7, mqtt_connect_args);
 142              		.loc 1 71 5 is_stmt 1
 143 007e 8A85     		mv	a1,sp
 144 0080 1D45     		li	a0,7
 145 0082 97000000 		call	cmd_mqtt
 145      E7800000 
 146              	.LVL9:
  72:C:/Users/stapi/OneDrive/Desktop/GD32VW553/V1_MQTT_OK/GD32VW55X_Wifi_BLE_SDK/GD32VW55x_RELEASE_V1.0.2/MSDK/app\main.c **** 
  73:C:/Users/stapi/OneDrive/Desktop/GD32VW553/V1_MQTT_OK/GD32VW55X_Wifi_BLE_SDK/GD32VW55x_RELEASE_V1.0.2/MSDK/app\main.c ****     // Publish a test message
  74:C:/Users/stapi/OneDrive/Desktop/GD32VW553/V1_MQTT_OK/GD32VW55X_Wifi_BLE_SDK/GD32VW55x_RELEASE_V1.0.2/MSDK/app\main.c ****     char *mqtt_publish_args[] = {
 147              		.loc 1 74 5
 148              		.loc 1 74 11 is_stmt 0
 149 008a 6146     		li	a2,24
 150 008c 93054401 		addi	a1,s0,20
 151 0090 2810     		addi	a0,sp,40
 152 0092 97000000 		call	memcpy
 152      E7800000 
 153              	.LVL10:
  75:C:/Users/stapi/OneDrive/Desktop/GD32VW553/V1_MQTT_OK/GD32VW55X_Wifi_BLE_SDK/GD32VW55x_RELEASE_V1.0.2/MSDK/app\main.c ****         "mqtt",
  76:C:/Users/stapi/OneDrive/Desktop/GD32VW553/V1_MQTT_OK/GD32VW55X_Wifi_BLE_SDK/GD32VW55x_RELEASE_V1.0.2/MSDK/app\main.c ****         "publish",
  77:C:/Users/stapi/OneDrive/Desktop/GD32VW553/V1_MQTT_OK/GD32VW55X_Wifi_BLE_SDK/GD32VW55x_RELEASE_V1.0.2/MSDK/app\main.c ****         "test/topic",    // Topic
  78:C:/Users/stapi/OneDrive/Desktop/GD32VW553/V1_MQTT_OK/GD32VW55X_Wifi_BLE_SDK/GD32VW55x_RELEASE_V1.0.2/MSDK/app\main.c ****         "Hello, MQTT!",  // Message
  79:C:/Users/stapi/OneDrive/Desktop/GD32VW553/V1_MQTT_OK/GD32VW55X_Wifi_BLE_SDK/GD32VW55x_RELEASE_V1.0.2/MSDK/app\main.c ****         "0",             // QoS 0
  80:C:/Users/stapi/OneDrive/Desktop/GD32VW553/V1_MQTT_OK/GD32VW55X_Wifi_BLE_SDK/GD32VW55x_RELEASE_V1.0.2/MSDK/app\main.c ****         "0"              // Retain flag
  81:C:/Users/stapi/OneDrive/Desktop/GD32VW553/V1_MQTT_OK/GD32VW55X_Wifi_BLE_SDK/GD32VW55x_RELEASE_V1.0.2/MSDK/app\main.c ****     };
  82:C:/Users/stapi/OneDrive/Desktop/GD32VW553/V1_MQTT_OK/GD32VW55X_Wifi_BLE_SDK/GD32VW55x_RELEASE_V1.0.2/MSDK/app\main.c ****     cmd_mqtt(6, mqtt_publish_args);
 154              		.loc 1 82 5 is_stmt 1
 155 009a 2C10     		addi	a1,sp,40
 156 009c 1945     		li	a0,6
 157 009e 97000000 		call	cmd_mqtt
 157      E7800000 
 158              	.LVL11:
  83:C:/Users/stapi/OneDrive/Desktop/GD32VW553/V1_MQTT_OK/GD32VW55X_Wifi_BLE_SDK/GD32VW55x_RELEASE_V1.0.2/MSDK/app\main.c **** 
  84:C:/Users/stapi/OneDrive/Desktop/GD32VW553/V1_MQTT_OK/GD32VW55X_Wifi_BLE_SDK/GD32VW55x_RELEASE_V1.0.2/MSDK/app\main.c ****     // Subscribe to a topic
  85:C:/Users/stapi/OneDrive/Desktop/GD32VW553/V1_MQTT_OK/GD32VW55X_Wifi_BLE_SDK/GD32VW55x_RELEASE_V1.0.2/MSDK/app\main.c ****     char *mqtt_subscribe_args[] = {
 159              		.loc 1 85 5
 160              		.loc 1 85 11 is_stmt 0
 161 00a6 9305C402 		addi	a1,s0,44
 162 00aa 5146     		li	a2,20
 163 00ac 4808     		addi	a0,sp,20
 164 00ae 97000000 		call	memcpy
 164      E7800000 
 165              	.LVL12:
  86:C:/Users/stapi/OneDrive/Desktop/GD32VW553/V1_MQTT_OK/GD32VW55X_Wifi_BLE_SDK/GD32VW55x_RELEASE_V1.0.2/MSDK/app\main.c ****         "mqtt",
  87:C:/Users/stapi/OneDrive/Desktop/GD32VW553/V1_MQTT_OK/GD32VW55X_Wifi_BLE_SDK/GD32VW55x_RELEASE_V1.0.2/MSDK/app\main.c ****         "subscribe",
  88:C:/Users/stapi/OneDrive/Desktop/GD32VW553/V1_MQTT_OK/GD32VW55X_Wifi_BLE_SDK/GD32VW55x_RELEASE_V1.0.2/MSDK/app\main.c ****         "test/topic",    // Topic
  89:C:/Users/stapi/OneDrive/Desktop/GD32VW553/V1_MQTT_OK/GD32VW55X_Wifi_BLE_SDK/GD32VW55x_RELEASE_V1.0.2/MSDK/app\main.c ****         "0",             // QoS 0
  90:C:/Users/stapi/OneDrive/Desktop/GD32VW553/V1_MQTT_OK/GD32VW55X_Wifi_BLE_SDK/GD32VW55x_RELEASE_V1.0.2/MSDK/app\main.c ****         "1"              // Subscribe (1 to subscribe, 0 to unsubscribe)
  91:C:/Users/stapi/OneDrive/Desktop/GD32VW553/V1_MQTT_OK/GD32VW55X_Wifi_BLE_SDK/GD32VW55x_RELEASE_V1.0.2/MSDK/app\main.c ****     };
  92:C:/Users/stapi/OneDrive/Desktop/GD32VW553/V1_MQTT_OK/GD32VW55X_Wifi_BLE_SDK/GD32VW55x_RELEASE_V1.0.2/MSDK/app\main.c ****     cmd_mqtt(5, mqtt_subscribe_args);
 166              		.loc 1 92 5 is_stmt 1
 167 00b6 4C08     		addi	a1,sp,20
 168 00b8 1545     		li	a0,5
 169 00ba 97000000 		call	cmd_mqtt
 169      E7800000 
 170              	.LVL13:
 171              	.L5:
  93:C:/Users/stapi/OneDrive/Desktop/GD32VW553/V1_MQTT_OK/GD32VW55X_Wifi_BLE_SDK/GD32VW55x_RELEASE_V1.0.2/MSDK/app\main.c **** 
  94:C:/Users/stapi/OneDrive/Desktop/GD32VW553/V1_MQTT_OK/GD32VW55X_Wifi_BLE_SDK/GD32VW55x_RELEASE_V1.0.2/MSDK/app\main.c ****     // Main task loop
  95:C:/Users/stapi/OneDrive/Desktop/GD32VW553/V1_MQTT_OK/GD32VW55X_Wifi_BLE_SDK/GD32VW55x_RELEASE_V1.0.2/MSDK/app\main.c ****     for (;;) {
 172              		.loc 1 95 5 discriminator 1
  96:C:/Users/stapi/OneDrive/Desktop/GD32VW553/V1_MQTT_OK/GD32VW55X_Wifi_BLE_SDK/GD32VW55x_RELEASE_V1.0.2/MSDK/app\main.c ****         // Handle periodic tasks, e.g., checking for MQTT events
  97:C:/Users/stapi/OneDrive/Desktop/GD32VW553/V1_MQTT_OK/GD32VW55X_Wifi_BLE_SDK/GD32VW55x_RELEASE_V1.0.2/MSDK/app\main.c ****         sys_ms_sleep(1000); // Simulate periodic processing
 173              		.loc 1 97 9 discriminator 1
 174 00c2 1305803E 		li	a0,1000
 175 00c6 97000000 		call	sys_ms_sleep
 175      E7800000 
 176              	.LVL14:
  95:C:/Users/stapi/OneDrive/Desktop/GD32VW553/V1_MQTT_OK/GD32VW55X_Wifi_BLE_SDK/GD32VW55x_RELEASE_V1.0.2/MSDK/app\main.c ****         // Handle periodic tasks, e.g., checking for MQTT events
 177              		.loc 1 95 11 discriminator 1
 178 00ce D5BF     		j	.L5
 179              	.L9:
  48:C:/Users/stapi/OneDrive/Desktop/GD32VW553/V1_MQTT_OK/GD32VW55X_Wifi_BLE_SDK/GD32VW55x_RELEASE_V1.0.2/MSDK/app\main.c ****         return -1;
 180              		.loc 1 48 9
 181 00d0 37050000 		lui	a0,%hi(.LC13)
 182 00d4 13050500 		addi	a0,a0,%lo(.LC13)
 183              	.L11:
  54:C:/Users/stapi/OneDrive/Desktop/GD32VW553/V1_MQTT_OK/GD32VW55X_Wifi_BLE_SDK/GD32VW55x_RELEASE_V1.0.2/MSDK/app\main.c ****         return -1;
 184              		.loc 1 54 9 is_stmt 0
 185 00d8 97000000 		call	co_printf
 185      E7800000 
 186              	.LVL15:
  55:C:/Users/stapi/OneDrive/Desktop/GD32VW553/V1_MQTT_OK/GD32VW55X_Wifi_BLE_SDK/GD32VW55x_RELEASE_V1.0.2/MSDK/app\main.c ****     }
 187              		.loc 1 55 9 is_stmt 1
  98:C:/Users/stapi/OneDrive/Desktop/GD32VW553/V1_MQTT_OK/GD32VW55X_Wifi_BLE_SDK/GD32VW55x_RELEASE_V1.0.2/MSDK/app\main.c ****     }
  99:C:/Users/stapi/OneDrive/Desktop/GD32VW553/V1_MQTT_OK/GD32VW55X_Wifi_BLE_SDK/GD32VW55x_RELEASE_V1.0.2/MSDK/app\main.c **** 
 100:C:/Users/stapi/OneDrive/Desktop/GD32VW553/V1_MQTT_OK/GD32VW55X_Wifi_BLE_SDK/GD32VW55x_RELEASE_V1.0.2/MSDK/app\main.c ****     return 0;
 101:C:/Users/stapi/OneDrive/Desktop/GD32VW553/V1_MQTT_OK/GD32VW55X_Wifi_BLE_SDK/GD32VW55x_RELEASE_V1.0.2/MSDK/app\main.c **** }
 188              		.loc 1 101 1 is_stmt 0
 189 00e0 7D55     		li	a0,-1
 190 00e2 2161     		addi	sp,sp,64
 191              		.cfi_remember_state
 192              		.cfi_def_cfa_offset 0
 193 00e4 17030000 		tail	__riscv_restore_5
 193      67000300 
 194              		.cfi_restore 20
 195              		.cfi_restore 19
 196              		.cfi_restore 18
 197              		.cfi_restore 9
 198              		.cfi_restore 8
 199              		.cfi_restore 1
 200              		.cfi_def_cfa_offset -32
 201              	.LVL16:
 202              	.L4:
 203              		.cfi_restore_state
 204              	.LBB7:
 205              	.LBB6:
  33:C:/Users/stapi/OneDrive/Desktop/GD32VW553/V1_MQTT_OK/GD32VW55X_Wifi_BLE_SDK/GD32VW55x_RELEASE_V1.0.2/MSDK/app\main.c ****         sys_ms_sleep(WIFI_RETRY_INTERVAL);
 206              		.loc 1 33 9 is_stmt 1
 207 00ec 13850400 		addi	a0,s1,%lo(.LC21)
 208              	.LVL17:
 209 00f0 97000000 		call	co_printf
 209      E7800000 
 210              	.LVL18:
  34:C:/Users/stapi/OneDrive/Desktop/GD32VW553/V1_MQTT_OK/GD32VW55X_Wifi_BLE_SDK/GD32VW55x_RELEASE_V1.0.2/MSDK/app\main.c ****         retry_count++;
 211              		.loc 1 34 9
 212 00f8 1305007D 		li	a0,2000
  25:C:/Users/stapi/OneDrive/Desktop/GD32VW553/V1_MQTT_OK/GD32VW55X_Wifi_BLE_SDK/GD32VW55x_RELEASE_V1.0.2/MSDK/app\main.c ****         app_print("Attempting to connect to Wi-Fi...\n");
 213              		.loc 1 25 11 is_stmt 0
 214 00fc 7D14     		addi	s0,s0,-1
 215              	.LVL19:
  34:C:/Users/stapi/OneDrive/Desktop/GD32VW553/V1_MQTT_OK/GD32VW55X_Wifi_BLE_SDK/GD32VW55x_RELEASE_V1.0.2/MSDK/app\main.c ****         retry_count++;
 216              		.loc 1 34 9
 217 00fe 97000000 		call	sys_ms_sleep
 217      E7800000 
 218              	.LVL20:
  35:C:/Users/stapi/OneDrive/Desktop/GD32VW553/V1_MQTT_OK/GD32VW55X_Wifi_BLE_SDK/GD32VW55x_RELEASE_V1.0.2/MSDK/app\main.c ****     }
 219              		.loc 1 35 9 is_stmt 1
  25:C:/Users/stapi/OneDrive/Desktop/GD32VW553/V1_MQTT_OK/GD32VW55X_Wifi_BLE_SDK/GD32VW55x_RELEASE_V1.0.2/MSDK/app\main.c ****         app_print("Attempting to connect to Wi-Fi...\n");
 220              		.loc 1 25 11
 221 0106 05F4     		bne	s0,zero,.L2
  38:C:/Users/stapi/OneDrive/Desktop/GD32VW553/V1_MQTT_OK/GD32VW55X_Wifi_BLE_SDK/GD32VW55x_RELEASE_V1.0.2/MSDK/app\main.c ****     return -1;
 222              		.loc 1 38 5
 223 0108 37050000 		lui	a0,%hi(.LC22)
 224 010c 13050500 		addi	a0,a0,%lo(.LC22)
 225 0110 97000000 		call	co_printf
 225      E7800000 
 226              	.LVL21:
  39:C:/Users/stapi/OneDrive/Desktop/GD32VW553/V1_MQTT_OK/GD32VW55X_Wifi_BLE_SDK/GD32VW55x_RELEASE_V1.0.2/MSDK/app\main.c **** }
 227              		.loc 1 39 5
 228              	.LBE6:
 229              	.LBE7:
  54:C:/Users/stapi/OneDrive/Desktop/GD32VW553/V1_MQTT_OK/GD32VW55X_Wifi_BLE_SDK/GD32VW55x_RELEASE_V1.0.2/MSDK/app\main.c ****         return -1;
 230              		.loc 1 54 9
 231 0118 37050000 		lui	a0,%hi(.LC23)
 232 011c 13050500 		addi	a0,a0,%lo(.LC23)
 233 0120 65BF     		j	.L11
 234              		.cfi_endproc
 235              	.LFE22:
 237              		.section	.rodata
 238              		.align	2
 239              		.set	.LANCHOR0,. + 0
 240              	.LC18:
 241 0000 00000000 		.word	.LC0
 242 0004 00000000 		.word	.LC1
 243 0008 00000000 		.word	.LC2
 244 000c 00000000 		.word	.LC3
 245 0010 00000000 		.word	.LC4
 246              	.LC19:
 247 0014 00000000 		.word	.LC0
 248 0018 00000000 		.word	.LC6
 249 001c 00000000 		.word	.LC7
 250 0020 00000000 		.word	.LC8
 251 0024 00000000 		.word	.LC4
 252 0028 00000000 		.word	.LC4
 253              	.LC20:
 254 002c 00000000 		.word	.LC0
 255 0030 00000000 		.word	.LC10
 256 0034 00000000 		.word	.LC7
 257 0038 00000000 		.word	.LC4
 258 003c 00000000 		.word	.LC11
 259              		.text
 260              	.Letext0:
 261              		.file 2 "..\\..\\..\\..\\util\\include/debug_print.h"
 262              		.file 3 "..\\..\\..\\..\\wifi_manager/wifi_management.h"
 263              		.file 4 "..\\..\\..\\..\\macsw\\import/rtos_import.h"
 264              		.file 5 "..\\..\\..\\..\\plf\\src/gd32vw55x_platform.h"
 265              		.file 6 "..\\..\\..\\..\\rtos\\rtos_wrapper/wrapper_os.h"
 266              		.file 7 "..\\..\\..\\..\\app\\mqtt_app/mqtt_cmd.h"
 267              		.file 8 "<built-in>"
DEFINED SYMBOLS
                            *ABS*:0000000000000000 main.c
C:\Users\stapi\AppData\Local\Temp\ccx8OjWg.s:69     .text.startup.main:0000000000000000 main
C:\Users\stapi\AppData\Local\Temp\ccx8OjWg.s:73     .text.startup.main:0000000000000000 .L0 
C:\Users\stapi\AppData\Local\Temp\ccx8OjWg.s:74     .text.startup.main:0000000000000000 .L0 
C:\Users\stapi\AppData\Local\Temp\ccx8OjWg.s:75     .text.startup.main:0000000000000008 .L0 
C:\Users\stapi\AppData\Local\Temp\ccx8OjWg.s:76     .text.startup.main:0000000000000008 .L0 
C:\Users\stapi\AppData\Local\Temp\ccx8OjWg.s:77     .text.startup.main:0000000000000008 .L0 
C:\Users\stapi\AppData\Local\Temp\ccx8OjWg.s:78     .text.startup.main:0000000000000008 .L0 
C:\Users\stapi\AppData\Local\Temp\ccx8OjWg.s:79     .text.startup.main:0000000000000008 .L0 
C:\Users\stapi\AppData\Local\Temp\ccx8OjWg.s:80     .text.startup.main:0000000000000008 .L0 
C:\Users\stapi\AppData\Local\Temp\ccx8OjWg.s:81     .text.startup.main:0000000000000008 .L0 
C:\Users\stapi\AppData\Local\Temp\ccx8OjWg.s:83     .text.startup.main:0000000000000008 .L0 
C:\Users\stapi\AppData\Local\Temp\ccx8OjWg.s:84     .text.startup.main:0000000000000008 .L0 
C:\Users\stapi\AppData\Local\Temp\ccx8OjWg.s:85     .text.startup.main:000000000000000a .L0 
C:\Users\stapi\AppData\Local\Temp\ccx8OjWg.s:87     .text.startup.main:000000000000000a .L0 
C:\Users\stapi\AppData\Local\Temp\ccx8OjWg.s:90     .text.startup.main:0000000000000012 .L0 
C:\Users\stapi\AppData\Local\Temp\ccx8OjWg.s:91     .text.startup.main:0000000000000012 .L0 
C:\Users\stapi\AppData\Local\Temp\ccx8OjWg.s:94     .text.startup.main:000000000000001a .L0 
C:\Users\stapi\AppData\Local\Temp\ccx8OjWg.s:99     .text.startup.main:000000000000001e .L0 
C:\Users\stapi\AppData\Local\Temp\ccx8OjWg.s:101    .text.startup.main:0000000000000022 .L0 
C:\Users\stapi\AppData\Local\Temp\ccx8OjWg.s:104    .text.startup.main:000000000000002a .L0 
C:\Users\stapi\AppData\Local\Temp\ccx8OjWg.s:108    .text.startup.main:000000000000002e .L0 
C:\Users\stapi\AppData\Local\Temp\ccx8OjWg.s:112    .text.startup.main:000000000000003a .L0 
C:\Users\stapi\AppData\Local\Temp\ccx8OjWg.s:113    .text.startup.main:000000000000003a .L0 
C:\Users\stapi\AppData\Local\Temp\ccx8OjWg.s:119    .text.startup.main:000000000000004c .L0 
C:\Users\stapi\AppData\Local\Temp\ccx8OjWg.s:120    .text.startup.main:000000000000004c .L0 
C:\Users\stapi\AppData\Local\Temp\ccx8OjWg.s:122    .text.startup.main:000000000000004e .L0 
C:\Users\stapi\AppData\Local\Temp\ccx8OjWg.s:130    .text.startup.main:000000000000005e .L0 
C:\Users\stapi\AppData\Local\Temp\ccx8OjWg.s:131    .text.startup.main:000000000000005e .L0 
C:\Users\stapi\AppData\Local\Temp\ccx8OjWg.s:134    .text.startup.main:0000000000000066 .L0 
C:\Users\stapi\AppData\Local\Temp\ccx8OjWg.s:135    .text.startup.main:0000000000000066 .L0 
C:\Users\stapi\AppData\Local\Temp\ccx8OjWg.s:143    .text.startup.main:000000000000007e .L0 
C:\Users\stapi\AppData\Local\Temp\ccx8OjWg.s:148    .text.startup.main:000000000000008a .L0 
C:\Users\stapi\AppData\Local\Temp\ccx8OjWg.s:149    .text.startup.main:000000000000008a .L0 
C:\Users\stapi\AppData\Local\Temp\ccx8OjWg.s:155    .text.startup.main:000000000000009a .L0 
C:\Users\stapi\AppData\Local\Temp\ccx8OjWg.s:160    .text.startup.main:00000000000000a6 .L0 
C:\Users\stapi\AppData\Local\Temp\ccx8OjWg.s:161    .text.startup.main:00000000000000a6 .L0 
C:\Users\stapi\AppData\Local\Temp\ccx8OjWg.s:167    .text.startup.main:00000000000000b6 .L0 
C:\Users\stapi\AppData\Local\Temp\ccx8OjWg.s:173    .text.startup.main:00000000000000c2 .L0 
C:\Users\stapi\AppData\Local\Temp\ccx8OjWg.s:174    .text.startup.main:00000000000000c2 .L0 
C:\Users\stapi\AppData\Local\Temp\ccx8OjWg.s:178    .text.startup.main:00000000000000ce .L0 
C:\Users\stapi\AppData\Local\Temp\ccx8OjWg.s:181    .text.startup.main:00000000000000d0 .L0 
C:\Users\stapi\AppData\Local\Temp\ccx8OjWg.s:185    .text.startup.main:00000000000000d8 .L0 
C:\Users\stapi\AppData\Local\Temp\ccx8OjWg.s:188    .text.startup.main:00000000000000e0 .L0 
C:\Users\stapi\AppData\Local\Temp\ccx8OjWg.s:189    .text.startup.main:00000000000000e0 .L0 
C:\Users\stapi\AppData\Local\Temp\ccx8OjWg.s:191    .text.startup.main:00000000000000e4 .L0 
C:\Users\stapi\AppData\Local\Temp\ccx8OjWg.s:192    .text.startup.main:00000000000000e4 .L0 
C:\Users\stapi\AppData\Local\Temp\ccx8OjWg.s:194    .text.startup.main:00000000000000ec .L0 
C:\Users\stapi\AppData\Local\Temp\ccx8OjWg.s:195    .text.startup.main:00000000000000ec .L0 
C:\Users\stapi\AppData\Local\Temp\ccx8OjWg.s:196    .text.startup.main:00000000000000ec .L0 
C:\Users\stapi\AppData\Local\Temp\ccx8OjWg.s:197    .text.startup.main:00000000000000ec .L0 
C:\Users\stapi\AppData\Local\Temp\ccx8OjWg.s:198    .text.startup.main:00000000000000ec .L0 
C:\Users\stapi\AppData\Local\Temp\ccx8OjWg.s:199    .text.startup.main:00000000000000ec .L0 
C:\Users\stapi\AppData\Local\Temp\ccx8OjWg.s:200    .text.startup.main:00000000000000ec .L0 
C:\Users\stapi\AppData\Local\Temp\ccx8OjWg.s:203    .text.startup.main:00000000000000ec .L0 
C:\Users\stapi\AppData\Local\Temp\ccx8OjWg.s:207    .text.startup.main:00000000000000ec .L0 
C:\Users\stapi\AppData\Local\Temp\ccx8OjWg.s:212    .text.startup.main:00000000000000f8 .L0 
C:\Users\stapi\AppData\Local\Temp\ccx8OjWg.s:214    .text.startup.main:00000000000000fc .L0 
C:\Users\stapi\AppData\Local\Temp\ccx8OjWg.s:217    .text.startup.main:00000000000000fe .L0 
C:\Users\stapi\AppData\Local\Temp\ccx8OjWg.s:220    .text.startup.main:0000000000000106 .L0 
C:\Users\stapi\AppData\Local\Temp\ccx8OjWg.s:221    .text.startup.main:0000000000000106 .L0 
C:\Users\stapi\AppData\Local\Temp\ccx8OjWg.s:223    .text.startup.main:0000000000000108 .L0 
C:\Users\stapi\AppData\Local\Temp\ccx8OjWg.s:230    .text.startup.main:0000000000000118 .L0 
C:\Users\stapi\AppData\Local\Temp\ccx8OjWg.s:231    .text.startup.main:0000000000000118 .L0 
C:\Users\stapi\AppData\Local\Temp\ccx8OjWg.s:234    .text.startup.main:0000000000000122 .L0 
C:\Users\stapi\AppData\Local\Temp\ccx8OjWg.s:239    .rodata:0000000000000000 .LANCHOR0
C:\Users\stapi\AppData\Local\Temp\ccx8OjWg.s:237    .text.startup.main:0000000000000122 .L0 
                     .debug_frame:0000000000000000 .L0 
C:\Users\stapi\AppData\Local\Temp\ccx8OjWg.s:45     .rodata.main.str1.4:0000000000000034 .LC14
C:\Users\stapi\AppData\Local\Temp\ccx8OjWg.s:48     .rodata.main.str1.4:0000000000000058 .LC15
C:\Users\stapi\AppData\Local\Temp\ccx8OjWg.s:51     .rodata.main.str1.4:0000000000000064 .LC16
C:\Users\stapi\AppData\Local\Temp\ccx8OjWg.s:57     .rodata.main.str1.4:0000000000000098 .LC21
C:\Users\stapi\AppData\Local\Temp\ccx8OjWg.s:54     .rodata.main.str1.4:0000000000000078 .LC17
C:\Users\stapi\AppData\Local\Temp\ccx8OjWg.s:42     .rodata.main.str1.4:0000000000000000 .LC13
C:\Users\stapi\AppData\Local\Temp\ccx8OjWg.s:60     .rodata.main.str1.4:00000000000000c0 .LC22
C:\Users\stapi\AppData\Local\Temp\ccx8OjWg.s:63     .rodata.main.str1.4:00000000000000f0 .LC23
C:\Users\stapi\AppData\Local\Temp\ccx8OjWg.s:179    .text.startup.main:00000000000000d0 .L9
C:\Users\stapi\AppData\Local\Temp\ccx8OjWg.s:202    .text.startup.main:00000000000000ec .L4
C:\Users\stapi\AppData\Local\Temp\ccx8OjWg.s:171    .text.startup.main:00000000000000c2 .L5
C:\Users\stapi\AppData\Local\Temp\ccx8OjWg.s:105    .text.startup.main:000000000000002e .L2
C:\Users\stapi\AppData\Local\Temp\ccx8OjWg.s:183    .text.startup.main:00000000000000d8 .L11
C:\Users\stapi\AppData\Local\Temp\ccx8OjWg.s:8      .rodata.str1.4:0000000000000000 .LC0
C:\Users\stapi\AppData\Local\Temp\ccx8OjWg.s:11     .rodata.str1.4:0000000000000008 .LC1
C:\Users\stapi\AppData\Local\Temp\ccx8OjWg.s:14     .rodata.str1.4:0000000000000010 .LC2
C:\Users\stapi\AppData\Local\Temp\ccx8OjWg.s:17     .rodata.str1.4:0000000000000020 .LC3
C:\Users\stapi\AppData\Local\Temp\ccx8OjWg.s:20     .rodata.str1.4:0000000000000028 .LC4
C:\Users\stapi\AppData\Local\Temp\ccx8OjWg.s:23     .rodata.str1.4:000000000000002c .LC6
C:\Users\stapi\AppData\Local\Temp\ccx8OjWg.s:26     .rodata.str1.4:0000000000000034 .LC7
C:\Users\stapi\AppData\Local\Temp\ccx8OjWg.s:29     .rodata.str1.4:0000000000000040 .LC8
C:\Users\stapi\AppData\Local\Temp\ccx8OjWg.s:32     .rodata.str1.4:0000000000000050 .LC10
C:\Users\stapi\AppData\Local\Temp\ccx8OjWg.s:35     .rodata.str1.4:000000000000005c .LC11
C:\Users\stapi\AppData\Local\Temp\ccx8OjWg.s:687    .debug_abbrev:0000000000000000 .Ldebug_abbrev0
C:\Users\stapi\AppData\Local\Temp\ccx8OjWg.s:1056   .debug_str:00000000000000ad .LASF23
C:\Users\stapi\AppData\Local\Temp\ccx8OjWg.s:1080   .debug_str:00000000000002a4 .LASF24
C:\Users\stapi\AppData\Local\Temp\ccx8OjWg.s:1072   .debug_str:00000000000001fc .LASF25
C:\Users\stapi\AppData\Local\Temp\ccx8OjWg.s:1020   .debug_ranges:0000000000000000 .Ldebug_ranges0
C:\Users\stapi\AppData\Local\Temp\ccx8OjWg.s:1032   .debug_line:0000000000000000 .Ldebug_line0
C:\Users\stapi\AppData\Local\Temp\ccx8OjWg.s:1086   .debug_str:0000000000000336 .LASF0
C:\Users\stapi\AppData\Local\Temp\ccx8OjWg.s:1044   .debug_str:0000000000000047 .LASF1
C:\Users\stapi\AppData\Local\Temp\ccx8OjWg.s:1078   .debug_str:000000000000029a .LASF2
C:\Users\stapi\AppData\Local\Temp\ccx8OjWg.s:1048   .debug_str:0000000000000067 .LASF3
C:\Users\stapi\AppData\Local\Temp\ccx8OjWg.s:1082   .debug_str:0000000000000319 .LASF4
C:\Users\stapi\AppData\Local\Temp\ccx8OjWg.s:1046   .debug_str:0000000000000055 .LASF5
C:\Users\stapi\AppData\Local\Temp\ccx8OjWg.s:1074   .debug_str:0000000000000285 .LASF6
C:\Users\stapi\AppData\Local\Temp\ccx8OjWg.s:1042   .debug_str:0000000000000030 .LASF7
C:\Users\stapi\AppData\Local\Temp\ccx8OjWg.s:1062   .debug_str:00000000000001b8 .LASF8
C:\Users\stapi\AppData\Local\Temp\ccx8OjWg.s:1088   .debug_str:0000000000000342 .LASF9
C:\Users\stapi\AppData\Local\Temp\ccx8OjWg.s:1066   .debug_str:00000000000001dd .LASF10
C:\Users\stapi\AppData\Local\Temp\ccx8OjWg.s:1058   .debug_str:00000000000001a6 .LASF26
C:\Users\stapi\AppData\Local\Temp\ccx8OjWg.s:70     .text.startup.main:0000000000000000 .LFB22
C:\Users\stapi\AppData\Local\Temp\ccx8OjWg.s:235    .text.startup.main:0000000000000122 .LFE22
C:\Users\stapi\AppData\Local\Temp\ccx8OjWg.s:1034   .debug_str:0000000000000000 .LASF11
C:\Users\stapi\AppData\Local\Temp\ccx8OjWg.s:1054   .debug_str:000000000000009b .LASF12
C:\Users\stapi\AppData\Local\Temp\ccx8OjWg.s:1084   .debug_str:0000000000000322 .LASF13
C:\Users\stapi\AppData\Local\Temp\ccx8OjWg.s:96     .text.startup.main:000000000000001e .LBB4
C:\Users\stapi\AppData\Local\Temp\ccx8OjWg.s:969    .debug_loc:0000000000000000 .LLST0
C:\Users\stapi\AppData\Local\Temp\ccx8OjWg.s:996    .debug_loc:0000000000000035 .LLST1
C:\Users\stapi\AppData\Local\Temp\ccx8OjWg.s:110    .text.startup.main:000000000000003a .LVL3
C:\Users\stapi\AppData\Local\Temp\ccx8OjWg.s:117    .text.startup.main:000000000000004c .LVL4
C:\Users\stapi\AppData\Local\Temp\ccx8OjWg.s:126    .text.startup.main:000000000000005e .LVL6
C:\Users\stapi\AppData\Local\Temp\ccx8OjWg.s:210    .text.startup.main:00000000000000f8 .LVL18
C:\Users\stapi\AppData\Local\Temp\ccx8OjWg.s:218    .text.startup.main:0000000000000106 .LVL20
C:\Users\stapi\AppData\Local\Temp\ccx8OjWg.s:226    .text.startup.main:0000000000000118 .LVL21
C:\Users\stapi\AppData\Local\Temp\ccx8OjWg.s:88     .text.startup.main:0000000000000012 .LVL0
C:\Users\stapi\AppData\Local\Temp\ccx8OjWg.s:92     .text.startup.main:000000000000001a .LVL1
C:\Users\stapi\AppData\Local\Temp\ccx8OjWg.s:132    .text.startup.main:0000000000000066 .LVL7
C:\Users\stapi\AppData\Local\Temp\ccx8OjWg.s:141    .text.startup.main:000000000000007e .LVL8
C:\Users\stapi\AppData\Local\Temp\ccx8OjWg.s:146    .text.startup.main:000000000000008a .LVL9
C:\Users\stapi\AppData\Local\Temp\ccx8OjWg.s:153    .text.startup.main:000000000000009a .LVL10
C:\Users\stapi\AppData\Local\Temp\ccx8OjWg.s:158    .text.startup.main:00000000000000a6 .LVL11
C:\Users\stapi\AppData\Local\Temp\ccx8OjWg.s:165    .text.startup.main:00000000000000b6 .LVL12
C:\Users\stapi\AppData\Local\Temp\ccx8OjWg.s:170    .text.startup.main:00000000000000c2 .LVL13
C:\Users\stapi\AppData\Local\Temp\ccx8OjWg.s:176    .text.startup.main:00000000000000ce .LVL14
C:\Users\stapi\AppData\Local\Temp\ccx8OjWg.s:186    .text.startup.main:00000000000000e0 .LVL15
C:\Users\stapi\AppData\Local\Temp\ccx8OjWg.s:1092   .debug_str:0000000000000356 .LASF27
C:\Users\stapi\AppData\Local\Temp\ccx8OjWg.s:1050   .debug_str:000000000000007a .LASF14
C:\Users\stapi\AppData\Local\Temp\ccx8OjWg.s:1038   .debug_str:000000000000001c .LASF15
C:\Users\stapi\AppData\Local\Temp\ccx8OjWg.s:1036   .debug_str:0000000000000012 .LASF16
C:\Users\stapi\AppData\Local\Temp\ccx8OjWg.s:1064   .debug_str:00000000000001c5 .LASF17
C:\Users\stapi\AppData\Local\Temp\ccx8OjWg.s:1060   .debug_str:00000000000001ab .LASF18
C:\Users\stapi\AppData\Local\Temp\ccx8OjWg.s:1090   .debug_str:0000000000000348 .LASF19
C:\Users\stapi\AppData\Local\Temp\ccx8OjWg.s:1052   .debug_str:0000000000000086 .LASF20
C:\Users\stapi\AppData\Local\Temp\ccx8OjWg.s:1040   .debug_str:0000000000000023 .LASF21
C:\Users\stapi\AppData\Local\Temp\ccx8OjWg.s:1076   .debug_str:0000000000000293 .LASF28
C:\Users\stapi\AppData\Local\Temp\ccx8OjWg.s:1068   .debug_str:00000000000001e2 .LASF29
C:\Users\stapi\AppData\Local\Temp\ccx8OjWg.s:1070   .debug_str:00000000000001f3 .LASF22
C:\Users\stapi\AppData\Local\Temp\ccx8OjWg.s:106    .text.startup.main:000000000000002e .LVL2
C:\Users\stapi\AppData\Local\Temp\ccx8OjWg.s:201    .text.startup.main:00000000000000ec .LVL16
C:\Users\stapi\AppData\Local\Temp\ccx8OjWg.s:215    .text.startup.main:00000000000000fe .LVL19
C:\Users\stapi\AppData\Local\Temp\ccx8OjWg.s:123    .text.startup.main:0000000000000052 .LVL5
C:\Users\stapi\AppData\Local\Temp\ccx8OjWg.s:208    .text.startup.main:00000000000000f0 .LVL17
C:\Users\stapi\AppData\Local\Temp\ccx8OjWg.s:269    .debug_info:0000000000000000 .Ldebug_info0
C:\Users\stapi\AppData\Local\Temp\ccx8OjWg.s:129    .text.startup.main:000000000000005e .LBE4
C:\Users\stapi\AppData\Local\Temp\ccx8OjWg.s:204    .text.startup.main:00000000000000ec .LBB7
C:\Users\stapi\AppData\Local\Temp\ccx8OjWg.s:229    .text.startup.main:0000000000000118 .LBE7

UNDEFINED SYMBOLS
__riscv_save_5
platform_init
wifi_management_init
co_printf
wifi_management_connect
sys_os_start
memcpy
cmd_mqtt
sys_ms_sleep
__riscv_restore_5
