   1              		.file	"ping.c"
   2              		.option nopic
   3              		.attribute arch, "rv32i2p0_m2p0_a2p0_f2p0_c2p0_b_p0p94"
   4              		.attribute unaligned_access, 0
   5              		.attribute stack_align, 16
   6              		.text
   7              	.Ltext0:
   8              		.cfi_sections	.debug_frame
   9              		.section	.rodata.ping.str1.4,"aMS",@progbits,1
  10              		.align	2
  11              	.LC0:
  12 0000 70696E67 		.string	"ping recv: allocate buffer failed.\n\r"
  12      20726563 
  12      763A2061 
  12      6C6C6F63 
  12      61746520 
  13 0025 000000   		.align	2
  14              	.LC1:
  15 0028 70696E67 		.string	"ping: create socket failled\n\r"
  15      3A206372 
  15      65617465 
  15      20736F63 
  15      6B657420 
  16 0046 0000     		.align	2
  17              	.LC2:
  18 0048 5B70696E 		.string	"[ping_test] PING %s %d bytes of data\n\r"
  18      675F7465 
  18      73745D20 
  18      50494E47 
  18      20257320 
  19 006f 00       		.align	2
  20              	.LC3:
  21 0070 433A2F55 		.string	"C:/Users/stapi/OneDrive/Desktop/GD32VW553/GD32VW55X_Wifi_BLE_SDK/GD32VW55x_RELEASE_V1.0.2
  21      73657273 
  21      2F737461 
  21      70692F4F 
  21      6E654472 
  22 00da 0000     		.align	2
  23              	.LC4:
  24 00dc 70696E67 		.string	"ping_size is too big\n\r"
  24      5F73697A 
  24      65206973 
  24      20746F6F 
  24      20626967 
  25 00f3 00       		.align	2
  26              	.LC5:
  27 00f4 41737365 		.string	"Assertion \"%s\" failed at line %d in %s\n"
  27      7274696F 
  27      6E202225 
  27      73222066 
  27      61696C65 
  28              		.align	2
  29              	.LC6:
  30 011c 5B70696E 		.string	"[ping_test] %d bytes from %s: icmp_seq=%d time=%d ms\n\r"
  30      675F7465 
  30      73745D20 
  30      25642062 
  30      79746573 
  31 0153 00       		.align	2
  32              	.LC7:
  33 0154 5B70696E 		.string	"[ping_test] %d packets transmitted, %d received, %d%% packet loss\n\r"
  33      675F7465 
  33      73745D20 
  33      25642070 
  33      61636B65 
  34              		.align	2
  35              	.LC8:
  36 0198 5B70696E 		.string	"[ping_test] delay: min %u ms, max %u ms, avg %u ms\n\r"
  36      675F7465 
  36      73745D20 
  36      64656C61 
  36      793A206D 
  37 01cd 000000   		.align	2
  38              	.LC9:
  39 01d0 5B70696E 		.string	"[ping_test] timeout\n\r"
  39      675F7465 
  39      73745D20 
  39      74696D65 
  39      6F75740A 
  40              		.section	.text.ping,"ax",@progbits
  41              		.align	1
  42              		.globl	ping
  44              	ping:
  45              	.LFB8:
  46              		.file 1 "C:/Users/stapi/OneDrive/Desktop/GD32VW553/GD32VW55X_Wifi_BLE_SDK/GD32VW55x_RELEASE_V1.0.2
   1:C:/Users/stapi/OneDrive/Desktop/GD32VW553/GD32VW55X_Wifi_BLE_SDK/GD32VW55x_RELEASE_V1.0.2/MSDK/app\ping.c **** /*!
   2:C:/Users/stapi/OneDrive/Desktop/GD32VW553/GD32VW55X_Wifi_BLE_SDK/GD32VW55x_RELEASE_V1.0.2/MSDK/app\ping.c ****     \file    ping.c
   3:C:/Users/stapi/OneDrive/Desktop/GD32VW553/GD32VW55X_Wifi_BLE_SDK/GD32VW55x_RELEASE_V1.0.2/MSDK/app\ping.c ****     \brief   Implementation of ping .
   4:C:/Users/stapi/OneDrive/Desktop/GD32VW553/GD32VW55X_Wifi_BLE_SDK/GD32VW55x_RELEASE_V1.0.2/MSDK/app\ping.c **** 
   5:C:/Users/stapi/OneDrive/Desktop/GD32VW553/GD32VW55X_Wifi_BLE_SDK/GD32VW55x_RELEASE_V1.0.2/MSDK/app\ping.c ****     \version 2023-07-20, V1.0.0, firmware for GD32VW55x
   6:C:/Users/stapi/OneDrive/Desktop/GD32VW553/GD32VW55X_Wifi_BLE_SDK/GD32VW55x_RELEASE_V1.0.2/MSDK/app\ping.c **** */
   7:C:/Users/stapi/OneDrive/Desktop/GD32VW553/GD32VW55X_Wifi_BLE_SDK/GD32VW55x_RELEASE_V1.0.2/MSDK/app\ping.c **** 
   8:C:/Users/stapi/OneDrive/Desktop/GD32VW553/GD32VW55X_Wifi_BLE_SDK/GD32VW55x_RELEASE_V1.0.2/MSDK/app\ping.c **** /*
   9:C:/Users/stapi/OneDrive/Desktop/GD32VW553/GD32VW55X_Wifi_BLE_SDK/GD32VW55x_RELEASE_V1.0.2/MSDK/app\ping.c ****     Copyright (c) 2023, GigaDevice Semiconductor Inc.
  10:C:/Users/stapi/OneDrive/Desktop/GD32VW553/GD32VW55X_Wifi_BLE_SDK/GD32VW55x_RELEASE_V1.0.2/MSDK/app\ping.c **** 
  11:C:/Users/stapi/OneDrive/Desktop/GD32VW553/GD32VW55X_Wifi_BLE_SDK/GD32VW55x_RELEASE_V1.0.2/MSDK/app\ping.c ****     Redistribution and use in source and binary forms, with or without modification,
  12:C:/Users/stapi/OneDrive/Desktop/GD32VW553/GD32VW55X_Wifi_BLE_SDK/GD32VW55x_RELEASE_V1.0.2/MSDK/app\ping.c **** are permitted provided that the following conditions are met:
  13:C:/Users/stapi/OneDrive/Desktop/GD32VW553/GD32VW55X_Wifi_BLE_SDK/GD32VW55x_RELEASE_V1.0.2/MSDK/app\ping.c **** 
  14:C:/Users/stapi/OneDrive/Desktop/GD32VW553/GD32VW55X_Wifi_BLE_SDK/GD32VW55x_RELEASE_V1.0.2/MSDK/app\ping.c ****     1. Redistributions of source code must retain the above copyright notice, this
  15:C:/Users/stapi/OneDrive/Desktop/GD32VW553/GD32VW55X_Wifi_BLE_SDK/GD32VW55x_RELEASE_V1.0.2/MSDK/app\ping.c ****        list of conditions and the following disclaimer.
  16:C:/Users/stapi/OneDrive/Desktop/GD32VW553/GD32VW55X_Wifi_BLE_SDK/GD32VW55x_RELEASE_V1.0.2/MSDK/app\ping.c ****     2. Redistributions in binary form must reproduce the above copyright notice,
  17:C:/Users/stapi/OneDrive/Desktop/GD32VW553/GD32VW55X_Wifi_BLE_SDK/GD32VW55x_RELEASE_V1.0.2/MSDK/app\ping.c ****        this list of conditions and the following disclaimer in the documentation
  18:C:/Users/stapi/OneDrive/Desktop/GD32VW553/GD32VW55X_Wifi_BLE_SDK/GD32VW55x_RELEASE_V1.0.2/MSDK/app\ping.c ****        and/or other materials provided with the distribution.
  19:C:/Users/stapi/OneDrive/Desktop/GD32VW553/GD32VW55X_Wifi_BLE_SDK/GD32VW55x_RELEASE_V1.0.2/MSDK/app\ping.c ****     3. Neither the name of the copyright holder nor the names of its contributors
  20:C:/Users/stapi/OneDrive/Desktop/GD32VW553/GD32VW55X_Wifi_BLE_SDK/GD32VW55x_RELEASE_V1.0.2/MSDK/app\ping.c ****        may be used to endorse or promote products derived from this software without
  21:C:/Users/stapi/OneDrive/Desktop/GD32VW553/GD32VW55X_Wifi_BLE_SDK/GD32VW55x_RELEASE_V1.0.2/MSDK/app\ping.c ****        specific prior written permission.
  22:C:/Users/stapi/OneDrive/Desktop/GD32VW553/GD32VW55X_Wifi_BLE_SDK/GD32VW55x_RELEASE_V1.0.2/MSDK/app\ping.c **** 
  23:C:/Users/stapi/OneDrive/Desktop/GD32VW553/GD32VW55X_Wifi_BLE_SDK/GD32VW55x_RELEASE_V1.0.2/MSDK/app\ping.c ****     THIS SOFTWARE IS PROVIDED BY THE COPYRIGHT HOLDERS AND CONTRIBUTORS "AS IS"
  24:C:/Users/stapi/OneDrive/Desktop/GD32VW553/GD32VW55X_Wifi_BLE_SDK/GD32VW55x_RELEASE_V1.0.2/MSDK/app\ping.c **** AND ANY EXPRESS OR IMPLIED WARRANTIES, INCLUDING, BUT NOT LIMITED TO, THE IMPLIED
  25:C:/Users/stapi/OneDrive/Desktop/GD32VW553/GD32VW55X_Wifi_BLE_SDK/GD32VW55x_RELEASE_V1.0.2/MSDK/app\ping.c **** WARRANTIES OF MERCHANTABILITY AND FITNESS FOR A PARTICULAR PURPOSE ARE DISCLAIMED.
  26:C:/Users/stapi/OneDrive/Desktop/GD32VW553/GD32VW55X_Wifi_BLE_SDK/GD32VW55x_RELEASE_V1.0.2/MSDK/app\ping.c **** IN NO EVENT SHALL THE COPYRIGHT HOLDER OR CONTRIBUTORS BE LIABLE FOR ANY DIRECT,
  27:C:/Users/stapi/OneDrive/Desktop/GD32VW553/GD32VW55X_Wifi_BLE_SDK/GD32VW55x_RELEASE_V1.0.2/MSDK/app\ping.c **** INDIRECT, INCIDENTAL, SPECIAL, EXEMPLARY, OR CONSEQUENTIAL DAMAGES (INCLUDING, BUT
  28:C:/Users/stapi/OneDrive/Desktop/GD32VW553/GD32VW55X_Wifi_BLE_SDK/GD32VW55x_RELEASE_V1.0.2/MSDK/app\ping.c **** NOT LIMITED TO, PROCUREMENT OF SUBSTITUTE GOODS OR SERVICES; LOSS OF USE, DATA, OR
  29:C:/Users/stapi/OneDrive/Desktop/GD32VW553/GD32VW55X_Wifi_BLE_SDK/GD32VW55x_RELEASE_V1.0.2/MSDK/app\ping.c **** PROFITS; OR BUSINESS INTERRUPTION) HOWEVER CAUSED AND ON ANY THEORY OF LIABILITY,
  30:C:/Users/stapi/OneDrive/Desktop/GD32VW553/GD32VW55X_Wifi_BLE_SDK/GD32VW55x_RELEASE_V1.0.2/MSDK/app\ping.c **** WHETHER IN CONTRACT, STRICT LIABILITY, OR TORT (INCLUDING NEGLIGENCE OR OTHERWISE)
  31:C:/Users/stapi/OneDrive/Desktop/GD32VW553/GD32VW55X_Wifi_BLE_SDK/GD32VW55x_RELEASE_V1.0.2/MSDK/app\ping.c **** ARISING IN ANY WAY OUT OF THE USE OF THIS SOFTWARE, EVEN IF ADVISED OF THE POSSIBILITY
  32:C:/Users/stapi/OneDrive/Desktop/GD32VW553/GD32VW55X_Wifi_BLE_SDK/GD32VW55x_RELEASE_V1.0.2/MSDK/app\ping.c **** OF SUCH DAMAGE.
  33:C:/Users/stapi/OneDrive/Desktop/GD32VW553/GD32VW55X_Wifi_BLE_SDK/GD32VW55x_RELEASE_V1.0.2/MSDK/app\ping.c **** */
  34:C:/Users/stapi/OneDrive/Desktop/GD32VW553/GD32VW55X_Wifi_BLE_SDK/GD32VW55x_RELEASE_V1.0.2/MSDK/app\ping.c **** 
  35:C:/Users/stapi/OneDrive/Desktop/GD32VW553/GD32VW55X_Wifi_BLE_SDK/GD32VW55x_RELEASE_V1.0.2/MSDK/app\ping.c **** #include "app_cfg.h"
  36:C:/Users/stapi/OneDrive/Desktop/GD32VW553/GD32VW55X_Wifi_BLE_SDK/GD32VW55x_RELEASE_V1.0.2/MSDK/app\ping.c **** #include "lwip/opt.h"
  37:C:/Users/stapi/OneDrive/Desktop/GD32VW553/GD32VW55X_Wifi_BLE_SDK/GD32VW55x_RELEASE_V1.0.2/MSDK/app\ping.c **** #if LWIP_PING
  38:C:/Users/stapi/OneDrive/Desktop/GD32VW553/GD32VW55X_Wifi_BLE_SDK/GD32VW55x_RELEASE_V1.0.2/MSDK/app\ping.c **** #include "lwip/mem.h"
  39:C:/Users/stapi/OneDrive/Desktop/GD32VW553/GD32VW55X_Wifi_BLE_SDK/GD32VW55x_RELEASE_V1.0.2/MSDK/app\ping.c **** #include "lwip/icmp.h"
  40:C:/Users/stapi/OneDrive/Desktop/GD32VW553/GD32VW55X_Wifi_BLE_SDK/GD32VW55x_RELEASE_V1.0.2/MSDK/app\ping.c **** #include "lwip/netif.h"
  41:C:/Users/stapi/OneDrive/Desktop/GD32VW553/GD32VW55X_Wifi_BLE_SDK/GD32VW55x_RELEASE_V1.0.2/MSDK/app\ping.c **** #include "lwip/sys.h"
  42:C:/Users/stapi/OneDrive/Desktop/GD32VW553/GD32VW55X_Wifi_BLE_SDK/GD32VW55x_RELEASE_V1.0.2/MSDK/app\ping.c **** #include "lwip/sockets.h"
  43:C:/Users/stapi/OneDrive/Desktop/GD32VW553/GD32VW55X_Wifi_BLE_SDK/GD32VW55x_RELEASE_V1.0.2/MSDK/app\ping.c **** #include "lwip/inet.h"
  44:C:/Users/stapi/OneDrive/Desktop/GD32VW553/GD32VW55X_Wifi_BLE_SDK/GD32VW55x_RELEASE_V1.0.2/MSDK/app\ping.c **** #include "lwip/inet_chksum.h"
  45:C:/Users/stapi/OneDrive/Desktop/GD32VW553/GD32VW55X_Wifi_BLE_SDK/GD32VW55x_RELEASE_V1.0.2/MSDK/app\ping.c **** #include "lwip/ip.h"
  46:C:/Users/stapi/OneDrive/Desktop/GD32VW553/GD32VW55X_Wifi_BLE_SDK/GD32VW55x_RELEASE_V1.0.2/MSDK/app\ping.c **** #include "lwip/debug.h"
  47:C:/Users/stapi/OneDrive/Desktop/GD32VW553/GD32VW55X_Wifi_BLE_SDK/GD32VW55x_RELEASE_V1.0.2/MSDK/app\ping.c **** #include "ping.h"
  48:C:/Users/stapi/OneDrive/Desktop/GD32VW553/GD32VW55X_Wifi_BLE_SDK/GD32VW55x_RELEASE_V1.0.2/MSDK/app\ping.c **** #include "dbg_print.h"
  49:C:/Users/stapi/OneDrive/Desktop/GD32VW553/GD32VW55X_Wifi_BLE_SDK/GD32VW55x_RELEASE_V1.0.2/MSDK/app\ping.c **** 
  50:C:/Users/stapi/OneDrive/Desktop/GD32VW553/GD32VW55X_Wifi_BLE_SDK/GD32VW55x_RELEASE_V1.0.2/MSDK/app\ping.c **** #ifdef CONFIG_ATCMD
  51:C:/Users/stapi/OneDrive/Desktop/GD32VW553/GD32VW55X_Wifi_BLE_SDK/GD32VW55x_RELEASE_V1.0.2/MSDK/app\ping.c **** #include "cmd_shell.h"
  52:C:/Users/stapi/OneDrive/Desktop/GD32VW553/GD32VW55X_Wifi_BLE_SDK/GD32VW55x_RELEASE_V1.0.2/MSDK/app\ping.c **** #include "atcmd.h"
  53:C:/Users/stapi/OneDrive/Desktop/GD32VW553/GD32VW55X_Wifi_BLE_SDK/GD32VW55x_RELEASE_V1.0.2/MSDK/app\ping.c **** #endif
  54:C:/Users/stapi/OneDrive/Desktop/GD32VW553/GD32VW55X_Wifi_BLE_SDK/GD32VW55x_RELEASE_V1.0.2/MSDK/app\ping.c **** 
  55:C:/Users/stapi/OneDrive/Desktop/GD32VW553/GD32VW55X_Wifi_BLE_SDK/GD32VW55x_RELEASE_V1.0.2/MSDK/app\ping.c **** /** ping receive timeout - in milliseconds */
  56:C:/Users/stapi/OneDrive/Desktop/GD32VW553/GD32VW55X_Wifi_BLE_SDK/GD32VW55x_RELEASE_V1.0.2/MSDK/app\ping.c **** #define PING_RCV_TIMEO  2000
  57:C:/Users/stapi/OneDrive/Desktop/GD32VW553/GD32VW55X_Wifi_BLE_SDK/GD32VW55x_RELEASE_V1.0.2/MSDK/app\ping.c **** /** ping delay - in milliseconds */
  58:C:/Users/stapi/OneDrive/Desktop/GD32VW553/GD32VW55X_Wifi_BLE_SDK/GD32VW55x_RELEASE_V1.0.2/MSDK/app\ping.c **** #define PING_DELAY      10 //100
  59:C:/Users/stapi/OneDrive/Desktop/GD32VW553/GD32VW55X_Wifi_BLE_SDK/GD32VW55x_RELEASE_V1.0.2/MSDK/app\ping.c **** 
  60:C:/Users/stapi/OneDrive/Desktop/GD32VW553/GD32VW55X_Wifi_BLE_SDK/GD32VW55x_RELEASE_V1.0.2/MSDK/app\ping.c **** #define BUF_SIZE        1500
  61:C:/Users/stapi/OneDrive/Desktop/GD32VW553/GD32VW55X_Wifi_BLE_SDK/GD32VW55x_RELEASE_V1.0.2/MSDK/app\ping.c **** 
  62:C:/Users/stapi/OneDrive/Desktop/GD32VW553/GD32VW55X_Wifi_BLE_SDK/GD32VW55x_RELEASE_V1.0.2/MSDK/app\ping.c **** /** ping identifier - must fit on a u16_t */
  63:C:/Users/stapi/OneDrive/Desktop/GD32VW553/GD32VW55X_Wifi_BLE_SDK/GD32VW55x_RELEASE_V1.0.2/MSDK/app\ping.c **** #ifndef PING_ID
  64:C:/Users/stapi/OneDrive/Desktop/GD32VW553/GD32VW55X_Wifi_BLE_SDK/GD32VW55x_RELEASE_V1.0.2/MSDK/app\ping.c **** #define PING_ID         0xAFAF
  65:C:/Users/stapi/OneDrive/Desktop/GD32VW553/GD32VW55X_Wifi_BLE_SDK/GD32VW55x_RELEASE_V1.0.2/MSDK/app\ping.c **** #endif
  66:C:/Users/stapi/OneDrive/Desktop/GD32VW553/GD32VW55X_Wifi_BLE_SDK/GD32VW55x_RELEASE_V1.0.2/MSDK/app\ping.c **** 
  67:C:/Users/stapi/OneDrive/Desktop/GD32VW553/GD32VW55X_Wifi_BLE_SDK/GD32VW55x_RELEASE_V1.0.2/MSDK/app\ping.c **** /** ping additional data size to include in the packet */
  68:C:/Users/stapi/OneDrive/Desktop/GD32VW553/GD32VW55X_Wifi_BLE_SDK/GD32VW55x_RELEASE_V1.0.2/MSDK/app\ping.c **** #ifndef PING_DATA_SIZE
  69:C:/Users/stapi/OneDrive/Desktop/GD32VW553/GD32VW55X_Wifi_BLE_SDK/GD32VW55x_RELEASE_V1.0.2/MSDK/app\ping.c **** #define PING_DATA_SIZE  32
  70:C:/Users/stapi/OneDrive/Desktop/GD32VW553/GD32VW55X_Wifi_BLE_SDK/GD32VW55x_RELEASE_V1.0.2/MSDK/app\ping.c **** #endif
  71:C:/Users/stapi/OneDrive/Desktop/GD32VW553/GD32VW55X_Wifi_BLE_SDK/GD32VW55x_RELEASE_V1.0.2/MSDK/app\ping.c **** 
  72:C:/Users/stapi/OneDrive/Desktop/GD32VW553/GD32VW55X_Wifi_BLE_SDK/GD32VW55x_RELEASE_V1.0.2/MSDK/app\ping.c **** struct _ip_addr {
  73:C:/Users/stapi/OneDrive/Desktop/GD32VW553/GD32VW55X_Wifi_BLE_SDK/GD32VW55x_RELEASE_V1.0.2/MSDK/app\ping.c ****     uint8_t addr0, addr1, addr2, addr3;
  74:C:/Users/stapi/OneDrive/Desktop/GD32VW553/GD32VW55X_Wifi_BLE_SDK/GD32VW55x_RELEASE_V1.0.2/MSDK/app\ping.c **** };
  75:C:/Users/stapi/OneDrive/Desktop/GD32VW553/GD32VW55X_Wifi_BLE_SDK/GD32VW55x_RELEASE_V1.0.2/MSDK/app\ping.c **** 
  76:C:/Users/stapi/OneDrive/Desktop/GD32VW553/GD32VW55X_Wifi_BLE_SDK/GD32VW55x_RELEASE_V1.0.2/MSDK/app\ping.c **** static uint8_t ping_terminate;
  77:C:/Users/stapi/OneDrive/Desktop/GD32VW553/GD32VW55X_Wifi_BLE_SDK/GD32VW55x_RELEASE_V1.0.2/MSDK/app\ping.c **** static os_task_t ping_task_hdl = NULL;
  78:C:/Users/stapi/OneDrive/Desktop/GD32VW553/GD32VW55X_Wifi_BLE_SDK/GD32VW55x_RELEASE_V1.0.2/MSDK/app\ping.c **** 
  79:C:/Users/stapi/OneDrive/Desktop/GD32VW553/GD32VW55X_Wifi_BLE_SDK/GD32VW55x_RELEASE_V1.0.2/MSDK/app\ping.c **** static uint32_t my_time_get()
  80:C:/Users/stapi/OneDrive/Desktop/GD32VW553/GD32VW55X_Wifi_BLE_SDK/GD32VW55x_RELEASE_V1.0.2/MSDK/app\ping.c **** {
  81:C:/Users/stapi/OneDrive/Desktop/GD32VW553/GD32VW55X_Wifi_BLE_SDK/GD32VW55x_RELEASE_V1.0.2/MSDK/app\ping.c ****     return (sys_os_now(false) * OS_MS_PER_TICK);
  82:C:/Users/stapi/OneDrive/Desktop/GD32VW553/GD32VW55X_Wifi_BLE_SDK/GD32VW55x_RELEASE_V1.0.2/MSDK/app\ping.c **** }
  83:C:/Users/stapi/OneDrive/Desktop/GD32VW553/GD32VW55X_Wifi_BLE_SDK/GD32VW55x_RELEASE_V1.0.2/MSDK/app\ping.c **** 
  84:C:/Users/stapi/OneDrive/Desktop/GD32VW553/GD32VW55X_Wifi_BLE_SDK/GD32VW55x_RELEASE_V1.0.2/MSDK/app\ping.c **** /** Prepare a echo ICMP request */
  85:C:/Users/stapi/OneDrive/Desktop/GD32VW553/GD32VW55X_Wifi_BLE_SDK/GD32VW55x_RELEASE_V1.0.2/MSDK/app\ping.c **** static void ping_prepare_echo(struct ping_info_t *ping_info, struct icmp_echo_hdr *iecho, uint16_t 
  86:C:/Users/stapi/OneDrive/Desktop/GD32VW553/GD32VW55X_Wifi_BLE_SDK/GD32VW55x_RELEASE_V1.0.2/MSDK/app\ping.c **** {
  87:C:/Users/stapi/OneDrive/Desktop/GD32VW553/GD32VW55X_Wifi_BLE_SDK/GD32VW55x_RELEASE_V1.0.2/MSDK/app\ping.c ****     size_t i;
  88:C:/Users/stapi/OneDrive/Desktop/GD32VW553/GD32VW55X_Wifi_BLE_SDK/GD32VW55x_RELEASE_V1.0.2/MSDK/app\ping.c ****     size_t data_len = len - sizeof(struct icmp_echo_hdr);
  89:C:/Users/stapi/OneDrive/Desktop/GD32VW553/GD32VW55X_Wifi_BLE_SDK/GD32VW55x_RELEASE_V1.0.2/MSDK/app\ping.c **** 
  90:C:/Users/stapi/OneDrive/Desktop/GD32VW553/GD32VW55X_Wifi_BLE_SDK/GD32VW55x_RELEASE_V1.0.2/MSDK/app\ping.c **** #if LWIP_IPV6
  91:C:/Users/stapi/OneDrive/Desktop/GD32VW553/GD32VW55X_Wifi_BLE_SDK/GD32VW55x_RELEASE_V1.0.2/MSDK/app\ping.c ****     if (ping_info->ip_type == IPADDR_TYPE_V6)
  92:C:/Users/stapi/OneDrive/Desktop/GD32VW553/GD32VW55X_Wifi_BLE_SDK/GD32VW55x_RELEASE_V1.0.2/MSDK/app\ping.c ****         ICMPH_TYPE_SET(iecho, ICMP6_TYPE_EREQ);
  93:C:/Users/stapi/OneDrive/Desktop/GD32VW553/GD32VW55X_Wifi_BLE_SDK/GD32VW55x_RELEASE_V1.0.2/MSDK/app\ping.c ****     else
  94:C:/Users/stapi/OneDrive/Desktop/GD32VW553/GD32VW55X_Wifi_BLE_SDK/GD32VW55x_RELEASE_V1.0.2/MSDK/app\ping.c **** #endif
  95:C:/Users/stapi/OneDrive/Desktop/GD32VW553/GD32VW55X_Wifi_BLE_SDK/GD32VW55x_RELEASE_V1.0.2/MSDK/app\ping.c ****         ICMPH_TYPE_SET(iecho, ICMP_ECHO);
  96:C:/Users/stapi/OneDrive/Desktop/GD32VW553/GD32VW55X_Wifi_BLE_SDK/GD32VW55x_RELEASE_V1.0.2/MSDK/app\ping.c **** 
  97:C:/Users/stapi/OneDrive/Desktop/GD32VW553/GD32VW55X_Wifi_BLE_SDK/GD32VW55x_RELEASE_V1.0.2/MSDK/app\ping.c ****     ICMPH_CODE_SET(iecho, 0);
  98:C:/Users/stapi/OneDrive/Desktop/GD32VW553/GD32VW55X_Wifi_BLE_SDK/GD32VW55x_RELEASE_V1.0.2/MSDK/app\ping.c ****     iecho->chksum = 0;
  99:C:/Users/stapi/OneDrive/Desktop/GD32VW553/GD32VW55X_Wifi_BLE_SDK/GD32VW55x_RELEASE_V1.0.2/MSDK/app\ping.c ****     iecho->id     = PING_ID;
 100:C:/Users/stapi/OneDrive/Desktop/GD32VW553/GD32VW55X_Wifi_BLE_SDK/GD32VW55x_RELEASE_V1.0.2/MSDK/app\ping.c ****     iecho->seqno  = htons(++ping_info->ping_seq_num);
 101:C:/Users/stapi/OneDrive/Desktop/GD32VW553/GD32VW55X_Wifi_BLE_SDK/GD32VW55x_RELEASE_V1.0.2/MSDK/app\ping.c **** 
 102:C:/Users/stapi/OneDrive/Desktop/GD32VW553/GD32VW55X_Wifi_BLE_SDK/GD32VW55x_RELEASE_V1.0.2/MSDK/app\ping.c ****     /* fill the additional data buffer with some data */
 103:C:/Users/stapi/OneDrive/Desktop/GD32VW553/GD32VW55X_Wifi_BLE_SDK/GD32VW55x_RELEASE_V1.0.2/MSDK/app\ping.c ****     for(i = 0; i < data_len; i++) {
 104:C:/Users/stapi/OneDrive/Desktop/GD32VW553/GD32VW55X_Wifi_BLE_SDK/GD32VW55x_RELEASE_V1.0.2/MSDK/app\ping.c ****         ((char*)iecho)[sizeof(struct icmp_echo_hdr) + i] = (char)i;
 105:C:/Users/stapi/OneDrive/Desktop/GD32VW553/GD32VW55X_Wifi_BLE_SDK/GD32VW55x_RELEASE_V1.0.2/MSDK/app\ping.c ****     }
 106:C:/Users/stapi/OneDrive/Desktop/GD32VW553/GD32VW55X_Wifi_BLE_SDK/GD32VW55x_RELEASE_V1.0.2/MSDK/app\ping.c **** 
 107:C:/Users/stapi/OneDrive/Desktop/GD32VW553/GD32VW55X_Wifi_BLE_SDK/GD32VW55x_RELEASE_V1.0.2/MSDK/app\ping.c **** #if LWIP_IPV6
 108:C:/Users/stapi/OneDrive/Desktop/GD32VW553/GD32VW55X_Wifi_BLE_SDK/GD32VW55x_RELEASE_V1.0.2/MSDK/app\ping.c ****     if (ping_info->ip_type != IPADDR_TYPE_V6)
 109:C:/Users/stapi/OneDrive/Desktop/GD32VW553/GD32VW55X_Wifi_BLE_SDK/GD32VW55x_RELEASE_V1.0.2/MSDK/app\ping.c **** #endif
 110:C:/Users/stapi/OneDrive/Desktop/GD32VW553/GD32VW55X_Wifi_BLE_SDK/GD32VW55x_RELEASE_V1.0.2/MSDK/app\ping.c ****         iecho->chksum = inet_chksum(iecho, len);
 111:C:/Users/stapi/OneDrive/Desktop/GD32VW553/GD32VW55X_Wifi_BLE_SDK/GD32VW55x_RELEASE_V1.0.2/MSDK/app\ping.c **** }
 112:C:/Users/stapi/OneDrive/Desktop/GD32VW553/GD32VW55X_Wifi_BLE_SDK/GD32VW55x_RELEASE_V1.0.2/MSDK/app\ping.c **** 
 113:C:/Users/stapi/OneDrive/Desktop/GD32VW553/GD32VW55X_Wifi_BLE_SDK/GD32VW55x_RELEASE_V1.0.2/MSDK/app\ping.c **** /* Ping using the socket ip */
 114:C:/Users/stapi/OneDrive/Desktop/GD32VW553/GD32VW55X_Wifi_BLE_SDK/GD32VW55x_RELEASE_V1.0.2/MSDK/app\ping.c **** static err_t ping_send(struct ping_info_t *ping_info, int s, ip_addr_t *addr, size_t size)
 115:C:/Users/stapi/OneDrive/Desktop/GD32VW553/GD32VW55X_Wifi_BLE_SDK/GD32VW55x_RELEASE_V1.0.2/MSDK/app\ping.c **** {
 116:C:/Users/stapi/OneDrive/Desktop/GD32VW553/GD32VW55X_Wifi_BLE_SDK/GD32VW55x_RELEASE_V1.0.2/MSDK/app\ping.c ****     int err;
 117:C:/Users/stapi/OneDrive/Desktop/GD32VW553/GD32VW55X_Wifi_BLE_SDK/GD32VW55x_RELEASE_V1.0.2/MSDK/app\ping.c ****     struct icmp_echo_hdr *iecho;
 118:C:/Users/stapi/OneDrive/Desktop/GD32VW553/GD32VW55X_Wifi_BLE_SDK/GD32VW55x_RELEASE_V1.0.2/MSDK/app\ping.c ****     struct sockaddr_in to;
 119:C:/Users/stapi/OneDrive/Desktop/GD32VW553/GD32VW55X_Wifi_BLE_SDK/GD32VW55x_RELEASE_V1.0.2/MSDK/app\ping.c **** #if LWIP_IPV6
 120:C:/Users/stapi/OneDrive/Desktop/GD32VW553/GD32VW55X_Wifi_BLE_SDK/GD32VW55x_RELEASE_V1.0.2/MSDK/app\ping.c ****     struct sockaddr_in6 *to_ipv6;
 121:C:/Users/stapi/OneDrive/Desktop/GD32VW553/GD32VW55X_Wifi_BLE_SDK/GD32VW55x_RELEASE_V1.0.2/MSDK/app\ping.c ****     struct sockaddr_storage sock_st;
 122:C:/Users/stapi/OneDrive/Desktop/GD32VW553/GD32VW55X_Wifi_BLE_SDK/GD32VW55x_RELEASE_V1.0.2/MSDK/app\ping.c **** #endif
 123:C:/Users/stapi/OneDrive/Desktop/GD32VW553/GD32VW55X_Wifi_BLE_SDK/GD32VW55x_RELEASE_V1.0.2/MSDK/app\ping.c ****     size_t ping_size;
 124:C:/Users/stapi/OneDrive/Desktop/GD32VW553/GD32VW55X_Wifi_BLE_SDK/GD32VW55x_RELEASE_V1.0.2/MSDK/app\ping.c **** 
 125:C:/Users/stapi/OneDrive/Desktop/GD32VW553/GD32VW55X_Wifi_BLE_SDK/GD32VW55x_RELEASE_V1.0.2/MSDK/app\ping.c ****     if (size == 0) {
 126:C:/Users/stapi/OneDrive/Desktop/GD32VW553/GD32VW55X_Wifi_BLE_SDK/GD32VW55x_RELEASE_V1.0.2/MSDK/app\ping.c ****         ping_size = sizeof(struct icmp_echo_hdr) + PING_DATA_SIZE;
 127:C:/Users/stapi/OneDrive/Desktop/GD32VW553/GD32VW55X_Wifi_BLE_SDK/GD32VW55x_RELEASE_V1.0.2/MSDK/app\ping.c ****     } else {
 128:C:/Users/stapi/OneDrive/Desktop/GD32VW553/GD32VW55X_Wifi_BLE_SDK/GD32VW55x_RELEASE_V1.0.2/MSDK/app\ping.c ****         ping_size = sizeof(struct icmp_echo_hdr) + size;
 129:C:/Users/stapi/OneDrive/Desktop/GD32VW553/GD32VW55X_Wifi_BLE_SDK/GD32VW55x_RELEASE_V1.0.2/MSDK/app\ping.c ****     }
 130:C:/Users/stapi/OneDrive/Desktop/GD32VW553/GD32VW55X_Wifi_BLE_SDK/GD32VW55x_RELEASE_V1.0.2/MSDK/app\ping.c **** 
 131:C:/Users/stapi/OneDrive/Desktop/GD32VW553/GD32VW55X_Wifi_BLE_SDK/GD32VW55x_RELEASE_V1.0.2/MSDK/app\ping.c ****     LWIP_ASSERT("ping_size is too big\n\r", ping_size <= 0xffff);
 132:C:/Users/stapi/OneDrive/Desktop/GD32VW553/GD32VW55X_Wifi_BLE_SDK/GD32VW55x_RELEASE_V1.0.2/MSDK/app\ping.c **** 
 133:C:/Users/stapi/OneDrive/Desktop/GD32VW553/GD32VW55X_Wifi_BLE_SDK/GD32VW55x_RELEASE_V1.0.2/MSDK/app\ping.c ****     iecho = (struct icmp_echo_hdr *)sys_malloc(ping_size);
 134:C:/Users/stapi/OneDrive/Desktop/GD32VW553/GD32VW55X_Wifi_BLE_SDK/GD32VW55x_RELEASE_V1.0.2/MSDK/app\ping.c ****     if (iecho == NULL) {
 135:C:/Users/stapi/OneDrive/Desktop/GD32VW553/GD32VW55X_Wifi_BLE_SDK/GD32VW55x_RELEASE_V1.0.2/MSDK/app\ping.c ****         return ERR_MEM;
 136:C:/Users/stapi/OneDrive/Desktop/GD32VW553/GD32VW55X_Wifi_BLE_SDK/GD32VW55x_RELEASE_V1.0.2/MSDK/app\ping.c ****     }
 137:C:/Users/stapi/OneDrive/Desktop/GD32VW553/GD32VW55X_Wifi_BLE_SDK/GD32VW55x_RELEASE_V1.0.2/MSDK/app\ping.c **** 
 138:C:/Users/stapi/OneDrive/Desktop/GD32VW553/GD32VW55X_Wifi_BLE_SDK/GD32VW55x_RELEASE_V1.0.2/MSDK/app\ping.c ****     ping_prepare_echo(ping_info, iecho, (u16_t)ping_size);
 139:C:/Users/stapi/OneDrive/Desktop/GD32VW553/GD32VW55X_Wifi_BLE_SDK/GD32VW55x_RELEASE_V1.0.2/MSDK/app\ping.c **** 
 140:C:/Users/stapi/OneDrive/Desktop/GD32VW553/GD32VW55X_Wifi_BLE_SDK/GD32VW55x_RELEASE_V1.0.2/MSDK/app\ping.c **** #if LWIP_IPV6
 141:C:/Users/stapi/OneDrive/Desktop/GD32VW553/GD32VW55X_Wifi_BLE_SDK/GD32VW55x_RELEASE_V1.0.2/MSDK/app\ping.c ****     if (ping_info->ip_type == IPADDR_TYPE_V6) {
 142:C:/Users/stapi/OneDrive/Desktop/GD32VW553/GD32VW55X_Wifi_BLE_SDK/GD32VW55x_RELEASE_V1.0.2/MSDK/app\ping.c ****         memset(&sock_st, 0, sizeof(struct sockaddr_storage));
 143:C:/Users/stapi/OneDrive/Desktop/GD32VW553/GD32VW55X_Wifi_BLE_SDK/GD32VW55x_RELEASE_V1.0.2/MSDK/app\ping.c ****         to_ipv6 = (struct sockaddr_in6 *)&sock_st;
 144:C:/Users/stapi/OneDrive/Desktop/GD32VW553/GD32VW55X_Wifi_BLE_SDK/GD32VW55x_RELEASE_V1.0.2/MSDK/app\ping.c ****         to_ipv6->sin6_family = AF_INET6;
 145:C:/Users/stapi/OneDrive/Desktop/GD32VW553/GD32VW55X_Wifi_BLE_SDK/GD32VW55x_RELEASE_V1.0.2/MSDK/app\ping.c ****         inet6_addr_from_ip6addr(&to_ipv6->sin6_addr, &addr->u_addr.ip6);
 146:C:/Users/stapi/OneDrive/Desktop/GD32VW553/GD32VW55X_Wifi_BLE_SDK/GD32VW55x_RELEASE_V1.0.2/MSDK/app\ping.c ****         err = lwip_sendto(s, iecho, ping_size, 0, (struct sockaddr*)&sock_st, sizeof(struct sockadd
 147:C:/Users/stapi/OneDrive/Desktop/GD32VW553/GD32VW55X_Wifi_BLE_SDK/GD32VW55x_RELEASE_V1.0.2/MSDK/app\ping.c ****     } else {
 148:C:/Users/stapi/OneDrive/Desktop/GD32VW553/GD32VW55X_Wifi_BLE_SDK/GD32VW55x_RELEASE_V1.0.2/MSDK/app\ping.c ****         to.sin_len = sizeof(to);
 149:C:/Users/stapi/OneDrive/Desktop/GD32VW553/GD32VW55X_Wifi_BLE_SDK/GD32VW55x_RELEASE_V1.0.2/MSDK/app\ping.c ****         to.sin_family = AF_INET;
 150:C:/Users/stapi/OneDrive/Desktop/GD32VW553/GD32VW55X_Wifi_BLE_SDK/GD32VW55x_RELEASE_V1.0.2/MSDK/app\ping.c ****         to.sin_addr.s_addr = addr->u_addr.ip4.addr;
 151:C:/Users/stapi/OneDrive/Desktop/GD32VW553/GD32VW55X_Wifi_BLE_SDK/GD32VW55x_RELEASE_V1.0.2/MSDK/app\ping.c ****         err = lwip_sendto(s, iecho, ping_size, 0, (struct sockaddr*)&to, sizeof(to));
 152:C:/Users/stapi/OneDrive/Desktop/GD32VW553/GD32VW55X_Wifi_BLE_SDK/GD32VW55x_RELEASE_V1.0.2/MSDK/app\ping.c ****     }
 153:C:/Users/stapi/OneDrive/Desktop/GD32VW553/GD32VW55X_Wifi_BLE_SDK/GD32VW55x_RELEASE_V1.0.2/MSDK/app\ping.c **** #else
 154:C:/Users/stapi/OneDrive/Desktop/GD32VW553/GD32VW55X_Wifi_BLE_SDK/GD32VW55x_RELEASE_V1.0.2/MSDK/app\ping.c ****     to.sin_len = sizeof(to);
 155:C:/Users/stapi/OneDrive/Desktop/GD32VW553/GD32VW55X_Wifi_BLE_SDK/GD32VW55x_RELEASE_V1.0.2/MSDK/app\ping.c ****     to.sin_family = AF_INET;
 156:C:/Users/stapi/OneDrive/Desktop/GD32VW553/GD32VW55X_Wifi_BLE_SDK/GD32VW55x_RELEASE_V1.0.2/MSDK/app\ping.c ****     to.sin_addr.s_addr = addr->addr;
 157:C:/Users/stapi/OneDrive/Desktop/GD32VW553/GD32VW55X_Wifi_BLE_SDK/GD32VW55x_RELEASE_V1.0.2/MSDK/app\ping.c ****     err = lwip_sendto(s, iecho, ping_size, 0, (struct sockaddr*)&to, sizeof(to));
 158:C:/Users/stapi/OneDrive/Desktop/GD32VW553/GD32VW55X_Wifi_BLE_SDK/GD32VW55x_RELEASE_V1.0.2/MSDK/app\ping.c **** #endif
 159:C:/Users/stapi/OneDrive/Desktop/GD32VW553/GD32VW55X_Wifi_BLE_SDK/GD32VW55x_RELEASE_V1.0.2/MSDK/app\ping.c **** 
 160:C:/Users/stapi/OneDrive/Desktop/GD32VW553/GD32VW55X_Wifi_BLE_SDK/GD32VW55x_RELEASE_V1.0.2/MSDK/app\ping.c ****     sys_mfree(iecho);
 161:C:/Users/stapi/OneDrive/Desktop/GD32VW553/GD32VW55X_Wifi_BLE_SDK/GD32VW55x_RELEASE_V1.0.2/MSDK/app\ping.c **** 
 162:C:/Users/stapi/OneDrive/Desktop/GD32VW553/GD32VW55X_Wifi_BLE_SDK/GD32VW55x_RELEASE_V1.0.2/MSDK/app\ping.c ****     return (err ? ERR_OK : ERR_VAL);
 163:C:/Users/stapi/OneDrive/Desktop/GD32VW553/GD32VW55X_Wifi_BLE_SDK/GD32VW55x_RELEASE_V1.0.2/MSDK/app\ping.c **** }
 164:C:/Users/stapi/OneDrive/Desktop/GD32VW553/GD32VW55X_Wifi_BLE_SDK/GD32VW55x_RELEASE_V1.0.2/MSDK/app\ping.c **** 
 165:C:/Users/stapi/OneDrive/Desktop/GD32VW553/GD32VW55X_Wifi_BLE_SDK/GD32VW55x_RELEASE_V1.0.2/MSDK/app\ping.c **** static void ping_recv(struct ping_info_t *ping_info, int s)
 166:C:/Users/stapi/OneDrive/Desktop/GD32VW553/GD32VW55X_Wifi_BLE_SDK/GD32VW55x_RELEASE_V1.0.2/MSDK/app\ping.c **** {
 167:C:/Users/stapi/OneDrive/Desktop/GD32VW553/GD32VW55X_Wifi_BLE_SDK/GD32VW55x_RELEASE_V1.0.2/MSDK/app\ping.c ****     uint32_t reply_time;
 168:C:/Users/stapi/OneDrive/Desktop/GD32VW553/GD32VW55X_Wifi_BLE_SDK/GD32VW55x_RELEASE_V1.0.2/MSDK/app\ping.c ****     int len;
 169:C:/Users/stapi/OneDrive/Desktop/GD32VW553/GD32VW55X_Wifi_BLE_SDK/GD32VW55x_RELEASE_V1.0.2/MSDK/app\ping.c ****     struct sockaddr *from;
 170:C:/Users/stapi/OneDrive/Desktop/GD32VW553/GD32VW55X_Wifi_BLE_SDK/GD32VW55x_RELEASE_V1.0.2/MSDK/app\ping.c ****     struct sockaddr_in from_ip4;
 171:C:/Users/stapi/OneDrive/Desktop/GD32VW553/GD32VW55X_Wifi_BLE_SDK/GD32VW55x_RELEASE_V1.0.2/MSDK/app\ping.c **** #if LWIP_IPV6
 172:C:/Users/stapi/OneDrive/Desktop/GD32VW553/GD32VW55X_Wifi_BLE_SDK/GD32VW55x_RELEASE_V1.0.2/MSDK/app\ping.c ****     struct sockaddr_in6 *from_ip6;
 173:C:/Users/stapi/OneDrive/Desktop/GD32VW553/GD32VW55X_Wifi_BLE_SDK/GD32VW55x_RELEASE_V1.0.2/MSDK/app\ping.c ****     struct sockaddr_storage sock_st;
 174:C:/Users/stapi/OneDrive/Desktop/GD32VW553/GD32VW55X_Wifi_BLE_SDK/GD32VW55x_RELEASE_V1.0.2/MSDK/app\ping.c **** #endif
 175:C:/Users/stapi/OneDrive/Desktop/GD32VW553/GD32VW55X_Wifi_BLE_SDK/GD32VW55x_RELEASE_V1.0.2/MSDK/app\ping.c ****     struct ip_hdr *iphdr;
 176:C:/Users/stapi/OneDrive/Desktop/GD32VW553/GD32VW55X_Wifi_BLE_SDK/GD32VW55x_RELEASE_V1.0.2/MSDK/app\ping.c ****     struct icmp_echo_hdr *iecho;
 177:C:/Users/stapi/OneDrive/Desktop/GD32VW553/GD32VW55X_Wifi_BLE_SDK/GD32VW55x_RELEASE_V1.0.2/MSDK/app\ping.c ****     uint32_t ip_hdr_len;
 178:C:/Users/stapi/OneDrive/Desktop/GD32VW553/GD32VW55X_Wifi_BLE_SDK/GD32VW55x_RELEASE_V1.0.2/MSDK/app\ping.c ****     uint32_t fromlen;
 179:C:/Users/stapi/OneDrive/Desktop/GD32VW553/GD32VW55X_Wifi_BLE_SDK/GD32VW55x_RELEASE_V1.0.2/MSDK/app\ping.c ****     uint32_t delay;
 180:C:/Users/stapi/OneDrive/Desktop/GD32VW553/GD32VW55X_Wifi_BLE_SDK/GD32VW55x_RELEASE_V1.0.2/MSDK/app\ping.c ****     //struct _ip_addr *addr;
 181:C:/Users/stapi/OneDrive/Desktop/GD32VW553/GD32VW55X_Wifi_BLE_SDK/GD32VW55x_RELEASE_V1.0.2/MSDK/app\ping.c ****     //static uint32_t ping_recv_count = 0;
 182:C:/Users/stapi/OneDrive/Desktop/GD32VW553/GD32VW55X_Wifi_BLE_SDK/GD32VW55x_RELEASE_V1.0.2/MSDK/app\ping.c ****     uint32_t start_time = 0;
 183:C:/Users/stapi/OneDrive/Desktop/GD32VW553/GD32VW55X_Wifi_BLE_SDK/GD32VW55x_RELEASE_V1.0.2/MSDK/app\ping.c ****     uint32_t recv_size;
 184:C:/Users/stapi/OneDrive/Desktop/GD32VW553/GD32VW55X_Wifi_BLE_SDK/GD32VW55x_RELEASE_V1.0.2/MSDK/app\ping.c **** 
 185:C:/Users/stapi/OneDrive/Desktop/GD32VW553/GD32VW55X_Wifi_BLE_SDK/GD32VW55x_RELEASE_V1.0.2/MSDK/app\ping.c **** #if LWIP_IPV6
 186:C:/Users/stapi/OneDrive/Desktop/GD32VW553/GD32VW55X_Wifi_BLE_SDK/GD32VW55x_RELEASE_V1.0.2/MSDK/app\ping.c ****     if (ping_info->ip_type == IPADDR_TYPE_V6) {
 187:C:/Users/stapi/OneDrive/Desktop/GD32VW553/GD32VW55X_Wifi_BLE_SDK/GD32VW55x_RELEASE_V1.0.2/MSDK/app\ping.c ****         ip_hdr_len = sizeof(struct ip6_hdr);
 188:C:/Users/stapi/OneDrive/Desktop/GD32VW553/GD32VW55X_Wifi_BLE_SDK/GD32VW55x_RELEASE_V1.0.2/MSDK/app\ping.c ****         memset(&sock_st, 0, sizeof(struct sockaddr_storage));
 189:C:/Users/stapi/OneDrive/Desktop/GD32VW553/GD32VW55X_Wifi_BLE_SDK/GD32VW55x_RELEASE_V1.0.2/MSDK/app\ping.c ****         from_ip6 = (struct sockaddr_in6 *)&sock_st;
 190:C:/Users/stapi/OneDrive/Desktop/GD32VW553/GD32VW55X_Wifi_BLE_SDK/GD32VW55x_RELEASE_V1.0.2/MSDK/app\ping.c ****         from = (struct sockaddr*)&sock_st;
 191:C:/Users/stapi/OneDrive/Desktop/GD32VW553/GD32VW55X_Wifi_BLE_SDK/GD32VW55x_RELEASE_V1.0.2/MSDK/app\ping.c ****         fromlen = sizeof(struct sockaddr_storage);
 192:C:/Users/stapi/OneDrive/Desktop/GD32VW553/GD32VW55X_Wifi_BLE_SDK/GD32VW55x_RELEASE_V1.0.2/MSDK/app\ping.c ****     } else
 193:C:/Users/stapi/OneDrive/Desktop/GD32VW553/GD32VW55X_Wifi_BLE_SDK/GD32VW55x_RELEASE_V1.0.2/MSDK/app\ping.c **** #endif
 194:C:/Users/stapi/OneDrive/Desktop/GD32VW553/GD32VW55X_Wifi_BLE_SDK/GD32VW55x_RELEASE_V1.0.2/MSDK/app\ping.c ****     {
 195:C:/Users/stapi/OneDrive/Desktop/GD32VW553/GD32VW55X_Wifi_BLE_SDK/GD32VW55x_RELEASE_V1.0.2/MSDK/app\ping.c ****         ip_hdr_len = sizeof(struct ip_hdr);
 196:C:/Users/stapi/OneDrive/Desktop/GD32VW553/GD32VW55X_Wifi_BLE_SDK/GD32VW55x_RELEASE_V1.0.2/MSDK/app\ping.c ****         from = (struct sockaddr*)&from_ip4;
 197:C:/Users/stapi/OneDrive/Desktop/GD32VW553/GD32VW55X_Wifi_BLE_SDK/GD32VW55x_RELEASE_V1.0.2/MSDK/app\ping.c ****         fromlen = sizeof(struct sockaddr);
 198:C:/Users/stapi/OneDrive/Desktop/GD32VW553/GD32VW55X_Wifi_BLE_SDK/GD32VW55x_RELEASE_V1.0.2/MSDK/app\ping.c ****     }
 199:C:/Users/stapi/OneDrive/Desktop/GD32VW553/GD32VW55X_Wifi_BLE_SDK/GD32VW55x_RELEASE_V1.0.2/MSDK/app\ping.c **** 
 200:C:/Users/stapi/OneDrive/Desktop/GD32VW553/GD32VW55X_Wifi_BLE_SDK/GD32VW55x_RELEASE_V1.0.2/MSDK/app\ping.c ****     if ((ping_info->ping_size + sizeof(struct icmp_echo_hdr) + ip_hdr_len) > BUF_SIZE)
 201:C:/Users/stapi/OneDrive/Desktop/GD32VW553/GD32VW55X_Wifi_BLE_SDK/GD32VW55x_RELEASE_V1.0.2/MSDK/app\ping.c ****         recv_size = (ping_info->ping_size + sizeof(struct icmp_echo_hdr) + ip_hdr_len);
 202:C:/Users/stapi/OneDrive/Desktop/GD32VW553/GD32VW55X_Wifi_BLE_SDK/GD32VW55x_RELEASE_V1.0.2/MSDK/app\ping.c ****     else
 203:C:/Users/stapi/OneDrive/Desktop/GD32VW553/GD32VW55X_Wifi_BLE_SDK/GD32VW55x_RELEASE_V1.0.2/MSDK/app\ping.c ****         recv_size = BUF_SIZE;
 204:C:/Users/stapi/OneDrive/Desktop/GD32VW553/GD32VW55X_Wifi_BLE_SDK/GD32VW55x_RELEASE_V1.0.2/MSDK/app\ping.c ****     start_time = my_time_get();
 205:C:/Users/stapi/OneDrive/Desktop/GD32VW553/GD32VW55X_Wifi_BLE_SDK/GD32VW55x_RELEASE_V1.0.2/MSDK/app\ping.c **** 
 206:C:/Users/stapi/OneDrive/Desktop/GD32VW553/GD32VW55X_Wifi_BLE_SDK/GD32VW55x_RELEASE_V1.0.2/MSDK/app\ping.c ****     while ((len = lwip_recvfrom(s, ping_info->reply_buf, recv_size, 0, from, (socklen_t*)&fromlen))
 207:C:/Users/stapi/OneDrive/Desktop/GD32VW553/GD32VW55X_Wifi_BLE_SDK/GD32VW55x_RELEASE_V1.0.2/MSDK/app\ping.c ****         if (len >= (ip_hdr_len + sizeof(struct icmp_echo_hdr))) {
 208:C:/Users/stapi/OneDrive/Desktop/GD32VW553/GD32VW55X_Wifi_BLE_SDK/GD32VW55x_RELEASE_V1.0.2/MSDK/app\ping.c ****             //addr = (struct _ip_addr *)&(from.sin_addr);
 209:C:/Users/stapi/OneDrive/Desktop/GD32VW553/GD32VW55X_Wifi_BLE_SDK/GD32VW55x_RELEASE_V1.0.2/MSDK/app\ping.c ****             //app_print("@@@ping: recv %d.%d.%d.%d, len = %d, count = %d\n",
 210:C:/Users/stapi/OneDrive/Desktop/GD32VW553/GD32VW55X_Wifi_BLE_SDK/GD32VW55x_RELEASE_V1.0.2/MSDK/app\ping.c ****             //             addr->addr0, addr->addr1, addr->addr2, addr->addr3, len, ++ping_recv_cou
 211:C:/Users/stapi/OneDrive/Desktop/GD32VW553/GD32VW55X_Wifi_BLE_SDK/GD32VW55x_RELEASE_V1.0.2/MSDK/app\ping.c ****             reply_time = my_time_get();
 212:C:/Users/stapi/OneDrive/Desktop/GD32VW553/GD32VW55X_Wifi_BLE_SDK/GD32VW55x_RELEASE_V1.0.2/MSDK/app\ping.c ****             delay = reply_time - ping_info->ping_time;
 213:C:/Users/stapi/OneDrive/Desktop/GD32VW553/GD32VW55X_Wifi_BLE_SDK/GD32VW55x_RELEASE_V1.0.2/MSDK/app\ping.c **** 
 214:C:/Users/stapi/OneDrive/Desktop/GD32VW553/GD32VW55X_Wifi_BLE_SDK/GD32VW55x_RELEASE_V1.0.2/MSDK/app\ping.c **** #if LWIP_IPV6
 215:C:/Users/stapi/OneDrive/Desktop/GD32VW553/GD32VW55X_Wifi_BLE_SDK/GD32VW55x_RELEASE_V1.0.2/MSDK/app\ping.c ****             if (ping_info->ip_type == IPADDR_TYPE_V6) {
 216:C:/Users/stapi/OneDrive/Desktop/GD32VW553/GD32VW55X_Wifi_BLE_SDK/GD32VW55x_RELEASE_V1.0.2/MSDK/app\ping.c ****                 iecho = (struct icmp_echo_hdr *)(ping_info->reply_buf+IP6_HLEN);
 217:C:/Users/stapi/OneDrive/Desktop/GD32VW553/GD32VW55X_Wifi_BLE_SDK/GD32VW55x_RELEASE_V1.0.2/MSDK/app\ping.c ****             } else
 218:C:/Users/stapi/OneDrive/Desktop/GD32VW553/GD32VW55X_Wifi_BLE_SDK/GD32VW55x_RELEASE_V1.0.2/MSDK/app\ping.c **** #endif
 219:C:/Users/stapi/OneDrive/Desktop/GD32VW553/GD32VW55X_Wifi_BLE_SDK/GD32VW55x_RELEASE_V1.0.2/MSDK/app\ping.c ****             {
 220:C:/Users/stapi/OneDrive/Desktop/GD32VW553/GD32VW55X_Wifi_BLE_SDK/GD32VW55x_RELEASE_V1.0.2/MSDK/app\ping.c ****                 iphdr = (struct ip_hdr *)ping_info->reply_buf;
 221:C:/Users/stapi/OneDrive/Desktop/GD32VW553/GD32VW55X_Wifi_BLE_SDK/GD32VW55x_RELEASE_V1.0.2/MSDK/app\ping.c ****                 iecho = (struct icmp_echo_hdr *)(ping_info->reply_buf+(IPH_HL(iphdr) * 4));
 222:C:/Users/stapi/OneDrive/Desktop/GD32VW553/GD32VW55X_Wifi_BLE_SDK/GD32VW55x_RELEASE_V1.0.2/MSDK/app\ping.c ****             }
 223:C:/Users/stapi/OneDrive/Desktop/GD32VW553/GD32VW55X_Wifi_BLE_SDK/GD32VW55x_RELEASE_V1.0.2/MSDK/app\ping.c **** 
 224:C:/Users/stapi/OneDrive/Desktop/GD32VW553/GD32VW55X_Wifi_BLE_SDK/GD32VW55x_RELEASE_V1.0.2/MSDK/app\ping.c ****             if ((iecho->id == PING_ID) && (iecho->seqno == htons(ping_info->ping_seq_num))) {
 225:C:/Users/stapi/OneDrive/Desktop/GD32VW553/GD32VW55X_Wifi_BLE_SDK/GD32VW55x_RELEASE_V1.0.2/MSDK/app\ping.c **** #ifdef CONFIG_ATCMD
 226:C:/Users/stapi/OneDrive/Desktop/GD32VW553/GD32VW55X_Wifi_BLE_SDK/GD32VW55x_RELEASE_V1.0.2/MSDK/app\ping.c ****                 //if (cmd_mode_type_get() == CMD_MODE_TYPE_AT)
 227:C:/Users/stapi/OneDrive/Desktop/GD32VW553/GD32VW55X_Wifi_BLE_SDK/GD32VW55x_RELEASE_V1.0.2/MSDK/app\ping.c ****                 ping_info->ping_res_len += co_snprintf((ping_info->ping_res + ping_info->ping_res_l
 228:C:/Users/stapi/OneDrive/Desktop/GD32VW553/GD32VW55X_Wifi_BLE_SDK/GD32VW55x_RELEASE_V1.0.2/MSDK/app\ping.c ****                                                         (sizeof(ping_info->ping_res) - ping_info->p
 229:C:/Users/stapi/OneDrive/Desktop/GD32VW553/GD32VW55X_Wifi_BLE_SDK/GD32VW55x_RELEASE_V1.0.2/MSDK/app\ping.c ****                                                         "+%d\r\n", delay);
 230:C:/Users/stapi/OneDrive/Desktop/GD32VW553/GD32VW55X_Wifi_BLE_SDK/GD32VW55x_RELEASE_V1.0.2/MSDK/app\ping.c ****                 //else
 231:C:/Users/stapi/OneDrive/Desktop/GD32VW553/GD32VW55X_Wifi_BLE_SDK/GD32VW55x_RELEASE_V1.0.2/MSDK/app\ping.c **** #endif
 232:C:/Users/stapi/OneDrive/Desktop/GD32VW553/GD32VW55X_Wifi_BLE_SDK/GD32VW55x_RELEASE_V1.0.2/MSDK/app\ping.c ****                 {
 233:C:/Users/stapi/OneDrive/Desktop/GD32VW553/GD32VW55X_Wifi_BLE_SDK/GD32VW55x_RELEASE_V1.0.2/MSDK/app\ping.c **** #if LWIP_IPV6
 234:C:/Users/stapi/OneDrive/Desktop/GD32VW553/GD32VW55X_Wifi_BLE_SDK/GD32VW55x_RELEASE_V1.0.2/MSDK/app\ping.c ****                     if (ping_info->ip_type == IPADDR_TYPE_V6) {
 235:C:/Users/stapi/OneDrive/Desktop/GD32VW553/GD32VW55X_Wifi_BLE_SDK/GD32VW55x_RELEASE_V1.0.2/MSDK/app\ping.c ****                         app_print("[ping_test] %d bytes from %s: icmp_seq=%d time=%d ms\n\r",
 236:C:/Users/stapi/OneDrive/Desktop/GD32VW553/GD32VW55X_Wifi_BLE_SDK/GD32VW55x_RELEASE_V1.0.2/MSDK/app\ping.c ****                             len - sizeof(struct ip6_hdr) - sizeof(struct icmp_echo_hdr), inet6_ntoa
 237:C:/Users/stapi/OneDrive/Desktop/GD32VW553/GD32VW55X_Wifi_BLE_SDK/GD32VW55x_RELEASE_V1.0.2/MSDK/app\ping.c ****                             htons(iecho->seqno), delay);
 238:C:/Users/stapi/OneDrive/Desktop/GD32VW553/GD32VW55X_Wifi_BLE_SDK/GD32VW55x_RELEASE_V1.0.2/MSDK/app\ping.c ****                     } else
 239:C:/Users/stapi/OneDrive/Desktop/GD32VW553/GD32VW55X_Wifi_BLE_SDK/GD32VW55x_RELEASE_V1.0.2/MSDK/app\ping.c **** #endif
 240:C:/Users/stapi/OneDrive/Desktop/GD32VW553/GD32VW55X_Wifi_BLE_SDK/GD32VW55x_RELEASE_V1.0.2/MSDK/app\ping.c ****                     {
 241:C:/Users/stapi/OneDrive/Desktop/GD32VW553/GD32VW55X_Wifi_BLE_SDK/GD32VW55x_RELEASE_V1.0.2/MSDK/app\ping.c ****                         app_print("[ping_test] %d bytes from %s: icmp_seq=%d time=%d ms\n\r",
 242:C:/Users/stapi/OneDrive/Desktop/GD32VW553/GD32VW55X_Wifi_BLE_SDK/GD32VW55x_RELEASE_V1.0.2/MSDK/app\ping.c ****                             len - sizeof(struct ip_hdr) - sizeof(struct icmp_echo_hdr), inet_ntoa(f
 243:C:/Users/stapi/OneDrive/Desktop/GD32VW553/GD32VW55X_Wifi_BLE_SDK/GD32VW55x_RELEASE_V1.0.2/MSDK/app\ping.c ****                             htons(iecho->seqno), delay);
 244:C:/Users/stapi/OneDrive/Desktop/GD32VW553/GD32VW55X_Wifi_BLE_SDK/GD32VW55x_RELEASE_V1.0.2/MSDK/app\ping.c ****                     }
 245:C:/Users/stapi/OneDrive/Desktop/GD32VW553/GD32VW55X_Wifi_BLE_SDK/GD32VW55x_RELEASE_V1.0.2/MSDK/app\ping.c ****                 }
 246:C:/Users/stapi/OneDrive/Desktop/GD32VW553/GD32VW55X_Wifi_BLE_SDK/GD32VW55x_RELEASE_V1.0.2/MSDK/app\ping.c ****                 ping_info->ping_recv_count++;
 247:C:/Users/stapi/OneDrive/Desktop/GD32VW553/GD32VW55X_Wifi_BLE_SDK/GD32VW55x_RELEASE_V1.0.2/MSDK/app\ping.c ****                 if (delay > ping_info->ping_max_delay) ping_info->ping_max_delay = delay;
 248:C:/Users/stapi/OneDrive/Desktop/GD32VW553/GD32VW55X_Wifi_BLE_SDK/GD32VW55x_RELEASE_V1.0.2/MSDK/app\ping.c ****                 if (delay < ping_info->ping_min_delay) ping_info->ping_min_delay = delay;
 249:C:/Users/stapi/OneDrive/Desktop/GD32VW553/GD32VW55X_Wifi_BLE_SDK/GD32VW55x_RELEASE_V1.0.2/MSDK/app\ping.c ****                 ping_info->ping_avg_delay += delay;
 250:C:/Users/stapi/OneDrive/Desktop/GD32VW553/GD32VW55X_Wifi_BLE_SDK/GD32VW55x_RELEASE_V1.0.2/MSDK/app\ping.c ****                 return;
 251:C:/Users/stapi/OneDrive/Desktop/GD32VW553/GD32VW55X_Wifi_BLE_SDK/GD32VW55x_RELEASE_V1.0.2/MSDK/app\ping.c ****             } else {
 252:C:/Users/stapi/OneDrive/Desktop/GD32VW553/GD32VW55X_Wifi_BLE_SDK/GD32VW55x_RELEASE_V1.0.2/MSDK/app\ping.c ****                 if (my_time_get() - start_time > PING_RCV_TIMEO) {
 253:C:/Users/stapi/OneDrive/Desktop/GD32VW553/GD32VW55X_Wifi_BLE_SDK/GD32VW55x_RELEASE_V1.0.2/MSDK/app\ping.c ****                     // app_print("my_time_get() %d\n\r", my_time_get());
 254:C:/Users/stapi/OneDrive/Desktop/GD32VW553/GD32VW55X_Wifi_BLE_SDK/GD32VW55x_RELEASE_V1.0.2/MSDK/app\ping.c **** 
 255:C:/Users/stapi/OneDrive/Desktop/GD32VW553/GD32VW55X_Wifi_BLE_SDK/GD32VW55x_RELEASE_V1.0.2/MSDK/app\ping.c ****                     len = -1;
 256:C:/Users/stapi/OneDrive/Desktop/GD32VW553/GD32VW55X_Wifi_BLE_SDK/GD32VW55x_RELEASE_V1.0.2/MSDK/app\ping.c ****                     break;
 257:C:/Users/stapi/OneDrive/Desktop/GD32VW553/GD32VW55X_Wifi_BLE_SDK/GD32VW55x_RELEASE_V1.0.2/MSDK/app\ping.c ****                 }
 258:C:/Users/stapi/OneDrive/Desktop/GD32VW553/GD32VW55X_Wifi_BLE_SDK/GD32VW55x_RELEASE_V1.0.2/MSDK/app\ping.c ****             }
 259:C:/Users/stapi/OneDrive/Desktop/GD32VW553/GD32VW55X_Wifi_BLE_SDK/GD32VW55x_RELEASE_V1.0.2/MSDK/app\ping.c **** 
 260:C:/Users/stapi/OneDrive/Desktop/GD32VW553/GD32VW55X_Wifi_BLE_SDK/GD32VW55x_RELEASE_V1.0.2/MSDK/app\ping.c ****             if ((iecho->id == PING_ID) && (iecho->type == ICMP_ER)) {
 261:C:/Users/stapi/OneDrive/Desktop/GD32VW553/GD32VW55X_Wifi_BLE_SDK/GD32VW55x_RELEASE_V1.0.2/MSDK/app\ping.c **** /*
 262:C:/Users/stapi/OneDrive/Desktop/GD32VW553/GD32VW55X_Wifi_BLE_SDK/GD32VW55x_RELEASE_V1.0.2/MSDK/app\ping.c ****                 int i;
 263:C:/Users/stapi/OneDrive/Desktop/GD32VW553/GD32VW55X_Wifi_BLE_SDK/GD32VW55x_RELEASE_V1.0.2/MSDK/app\ping.c ****                 app_print("\n\rping: drop");
 264:C:/Users/stapi/OneDrive/Desktop/GD32VW553/GD32VW55X_Wifi_BLE_SDK/GD32VW55x_RELEASE_V1.0.2/MSDK/app\ping.c ****                 app_print("------------------------------------------- \n");
 265:C:/Users/stapi/OneDrive/Desktop/GD32VW553/GD32VW55X_Wifi_BLE_SDK/GD32VW55x_RELEASE_V1.0.2/MSDK/app\ping.c ****                 for (i = 0; i < len; i = i + 1) {
 266:C:/Users/stapi/OneDrive/Desktop/GD32VW553/GD32VW55X_Wifi_BLE_SDK/GD32VW55x_RELEASE_V1.0.2/MSDK/app\ping.c ****                     app_print("%02x:", *(ping_info->reply_buf + i));
 267:C:/Users/stapi/OneDrive/Desktop/GD32VW553/GD32VW55X_Wifi_BLE_SDK/GD32VW55x_RELEASE_V1.0.2/MSDK/app\ping.c ****                     if (i%16 == 15)
 268:C:/Users/stapi/OneDrive/Desktop/GD32VW553/GD32VW55X_Wifi_BLE_SDK/GD32VW55x_RELEASE_V1.0.2/MSDK/app\ping.c ****                         app_print("\n");
 269:C:/Users/stapi/OneDrive/Desktop/GD32VW553/GD32VW55X_Wifi_BLE_SDK/GD32VW55x_RELEASE_V1.0.2/MSDK/app\ping.c ****                 }
 270:C:/Users/stapi/OneDrive/Desktop/GD32VW553/GD32VW55X_Wifi_BLE_SDK/GD32VW55x_RELEASE_V1.0.2/MSDK/app\ping.c ****                 app_print("\n");
 271:C:/Users/stapi/OneDrive/Desktop/GD32VW553/GD32VW55X_Wifi_BLE_SDK/GD32VW55x_RELEASE_V1.0.2/MSDK/app\ping.c ****                 app_print("------------------------------------------- \n");
 272:C:/Users/stapi/OneDrive/Desktop/GD32VW553/GD32VW55X_Wifi_BLE_SDK/GD32VW55x_RELEASE_V1.0.2/MSDK/app\ping.c **** */
 273:C:/Users/stapi/OneDrive/Desktop/GD32VW553/GD32VW55X_Wifi_BLE_SDK/GD32VW55x_RELEASE_V1.0.2/MSDK/app\ping.c ****             }
 274:C:/Users/stapi/OneDrive/Desktop/GD32VW553/GD32VW55X_Wifi_BLE_SDK/GD32VW55x_RELEASE_V1.0.2/MSDK/app\ping.c ****         }
 275:C:/Users/stapi/OneDrive/Desktop/GD32VW553/GD32VW55X_Wifi_BLE_SDK/GD32VW55x_RELEASE_V1.0.2/MSDK/app\ping.c ****     }
 276:C:/Users/stapi/OneDrive/Desktop/GD32VW553/GD32VW55X_Wifi_BLE_SDK/GD32VW55x_RELEASE_V1.0.2/MSDK/app\ping.c **** 
 277:C:/Users/stapi/OneDrive/Desktop/GD32VW553/GD32VW55X_Wifi_BLE_SDK/GD32VW55x_RELEASE_V1.0.2/MSDK/app\ping.c ****     if (len <= 0) {
 278:C:/Users/stapi/OneDrive/Desktop/GD32VW553/GD32VW55X_Wifi_BLE_SDK/GD32VW55x_RELEASE_V1.0.2/MSDK/app\ping.c **** #ifdef CONFIG_ATCMD
 279:C:/Users/stapi/OneDrive/Desktop/GD32VW553/GD32VW55X_Wifi_BLE_SDK/GD32VW55x_RELEASE_V1.0.2/MSDK/app\ping.c ****     //if (cmd_mode_type_get() == CMD_MODE_TYPE_AT)
 280:C:/Users/stapi/OneDrive/Desktop/GD32VW553/GD32VW55X_Wifi_BLE_SDK/GD32VW55x_RELEASE_V1.0.2/MSDK/app\ping.c ****     ping_info->ping_res_len += co_snprintf((ping_info->ping_res + ping_info->ping_res_len),
 281:C:/Users/stapi/OneDrive/Desktop/GD32VW553/GD32VW55X_Wifi_BLE_SDK/GD32VW55x_RELEASE_V1.0.2/MSDK/app\ping.c ****                                             (sizeof(ping_info->ping_res) - ping_info->ping_res_len)
 282:C:/Users/stapi/OneDrive/Desktop/GD32VW553/GD32VW55X_Wifi_BLE_SDK/GD32VW55x_RELEASE_V1.0.2/MSDK/app\ping.c ****                                             "+timeout\r\n");
 283:C:/Users/stapi/OneDrive/Desktop/GD32VW553/GD32VW55X_Wifi_BLE_SDK/GD32VW55x_RELEASE_V1.0.2/MSDK/app\ping.c ****     //else
 284:C:/Users/stapi/OneDrive/Desktop/GD32VW553/GD32VW55X_Wifi_BLE_SDK/GD32VW55x_RELEASE_V1.0.2/MSDK/app\ping.c **** #endif
 285:C:/Users/stapi/OneDrive/Desktop/GD32VW553/GD32VW55X_Wifi_BLE_SDK/GD32VW55x_RELEASE_V1.0.2/MSDK/app\ping.c ****         app_print("[ping_test] timeout\n\r");
 286:C:/Users/stapi/OneDrive/Desktop/GD32VW553/GD32VW55X_Wifi_BLE_SDK/GD32VW55x_RELEASE_V1.0.2/MSDK/app\ping.c ****     }
 287:C:/Users/stapi/OneDrive/Desktop/GD32VW553/GD32VW55X_Wifi_BLE_SDK/GD32VW55x_RELEASE_V1.0.2/MSDK/app\ping.c **** }
 288:C:/Users/stapi/OneDrive/Desktop/GD32VW553/GD32VW55X_Wifi_BLE_SDK/GD32VW55x_RELEASE_V1.0.2/MSDK/app\ping.c **** 
 289:C:/Users/stapi/OneDrive/Desktop/GD32VW553/GD32VW55X_Wifi_BLE_SDK/GD32VW55x_RELEASE_V1.0.2/MSDK/app\ping.c **** err_t ping(struct ping_info_t *ping_info)
 290:C:/Users/stapi/OneDrive/Desktop/GD32VW553/GD32VW55X_Wifi_BLE_SDK/GD32VW55x_RELEASE_V1.0.2/MSDK/app\ping.c **** {
  47              		.loc 1 290 1
  48              		.cfi_startproc
  49              	.LVL0:
  50 0000 17030000 		call	t0,__riscv_save_12
  50      E7020300 
  51              		.cfi_offset 27, -52
  52              		.cfi_offset 26, -48
  53              		.cfi_offset 25, -44
  54              		.cfi_offset 24, -40
  55              		.cfi_offset 23, -36
  56              		.cfi_offset 22, -32
  57              		.cfi_offset 21, -28
  58              		.cfi_offset 20, -24
  59              		.cfi_offset 19, -20
  60              		.cfi_offset 18, -16
  61              		.cfi_offset 9, -12
  62              		.cfi_offset 8, -8
  63              		.cfi_offset 1, -4
  64              		.cfi_def_cfa_offset 64
 291:C:/Users/stapi/OneDrive/Desktop/GD32VW553/GD32VW55X_Wifi_BLE_SDK/GD32VW55x_RELEASE_V1.0.2/MSDK/app\ping.c ****     int s;
  65              		.loc 1 291 5
 292:C:/Users/stapi/OneDrive/Desktop/GD32VW553/GD32VW55X_Wifi_BLE_SDK/GD32VW55x_RELEASE_V1.0.2/MSDK/app\ping.c ****     int timeout = PING_RCV_TIMEO;
  66              		.loc 1 292 5
 290:C:/Users/stapi/OneDrive/Desktop/GD32VW553/GD32VW55X_Wifi_BLE_SDK/GD32VW55x_RELEASE_V1.0.2/MSDK/app\ping.c ****     int s;
  67              		.loc 1 290 1 is_stmt 0
  68 0008 3971     		addi	sp,sp,-64
  69              		.cfi_def_cfa_offset 128
  70              		.loc 1 292 9
  71 000a 9307007D 		li	a5,2000
  72 000e 3ED2     		sw	a5,36(sp)
 293:C:/Users/stapi/OneDrive/Desktop/GD32VW553/GD32VW55X_Wifi_BLE_SDK/GD32VW55x_RELEASE_V1.0.2/MSDK/app\ping.c ****     ip_addr_t ping_target;
  73              		.loc 1 293 5 is_stmt 1
 294:C:/Users/stapi/OneDrive/Desktop/GD32VW553/GD32VW55X_Wifi_BLE_SDK/GD32VW55x_RELEASE_V1.0.2/MSDK/app\ping.c ****     uint32_t send_count;
  74              		.loc 1 294 5
 295:C:/Users/stapi/OneDrive/Desktop/GD32VW553/GD32VW55X_Wifi_BLE_SDK/GD32VW55x_RELEASE_V1.0.2/MSDK/app\ping.c ****     char *target = ping_info->ping_ip;
  75              		.loc 1 295 5
  76              	.LVL1:
 296:C:/Users/stapi/OneDrive/Desktop/GD32VW553/GD32VW55X_Wifi_BLE_SDK/GD32VW55x_RELEASE_V1.0.2/MSDK/app\ping.c ****     uint32_t count = ping_info->ping_cnt;
  77              		.loc 1 296 5
  78              		.loc 1 296 14 is_stmt 0
  79 0010 1C49     		lw	a5,16(a0)
 297:C:/Users/stapi/OneDrive/Desktop/GD32VW553/GD32VW55X_Wifi_BLE_SDK/GD32VW55x_RELEASE_V1.0.2/MSDK/app\ping.c ****     size_t size = ping_info->ping_size;
 298:C:/Users/stapi/OneDrive/Desktop/GD32VW553/GD32VW55X_Wifi_BLE_SDK/GD32VW55x_RELEASE_V1.0.2/MSDK/app\ping.c ****     uint32_t interval = ping_info->ping_interval;
 299:C:/Users/stapi/OneDrive/Desktop/GD32VW553/GD32VW55X_Wifi_BLE_SDK/GD32VW55x_RELEASE_V1.0.2/MSDK/app\ping.c ****     //static uint32_t ping_send_count = 0;
 300:C:/Users/stapi/OneDrive/Desktop/GD32VW553/GD32VW55X_Wifi_BLE_SDK/GD32VW55x_RELEASE_V1.0.2/MSDK/app\ping.c ****     //uint16_t size_random; //add for random size ping test
 301:C:/Users/stapi/OneDrive/Desktop/GD32VW553/GD32VW55X_Wifi_BLE_SDK/GD32VW55x_RELEASE_V1.0.2/MSDK/app\ping.c ****     uint32_t recv_size;
 302:C:/Users/stapi/OneDrive/Desktop/GD32VW553/GD32VW55X_Wifi_BLE_SDK/GD32VW55x_RELEASE_V1.0.2/MSDK/app\ping.c ****     uint32_t ip_hdr_len;
 303:C:/Users/stapi/OneDrive/Desktop/GD32VW553/GD32VW55X_Wifi_BLE_SDK/GD32VW55x_RELEASE_V1.0.2/MSDK/app\ping.c **** 
 304:C:/Users/stapi/OneDrive/Desktop/GD32VW553/GD32VW55X_Wifi_BLE_SDK/GD32VW55x_RELEASE_V1.0.2/MSDK/app\ping.c ****     ping_info->ping_seq_num = 0;
  80              		.loc 1 304 29
  81 0012 232E0500 		sw	zero,28(a0)
 305:C:/Users/stapi/OneDrive/Desktop/GD32VW553/GD32VW55X_Wifi_BLE_SDK/GD32VW55x_RELEASE_V1.0.2/MSDK/app\ping.c ****     ping_info->ping_max_delay = 0;
 306:C:/Users/stapi/OneDrive/Desktop/GD32VW553/GD32VW55X_Wifi_BLE_SDK/GD32VW55x_RELEASE_V1.0.2/MSDK/app\ping.c ****     ping_info->ping_min_delay = (u16_t)-1;
 307:C:/Users/stapi/OneDrive/Desktop/GD32VW553/GD32VW55X_Wifi_BLE_SDK/GD32VW55x_RELEASE_V1.0.2/MSDK/app\ping.c ****     ping_info->ping_avg_delay = 0;
  82              		.loc 1 307 31
  83 0016 23220502 		sw	zero,36(a0)
 296:C:/Users/stapi/OneDrive/Desktop/GD32VW553/GD32VW55X_Wifi_BLE_SDK/GD32VW55x_RELEASE_V1.0.2/MSDK/app\ping.c ****     size_t size = ping_info->ping_size;
  84              		.loc 1 296 14
  85 001a 3EC0     		sw	a5,0(sp)
  86              	.LVL2:
 297:C:/Users/stapi/OneDrive/Desktop/GD32VW553/GD32VW55X_Wifi_BLE_SDK/GD32VW55x_RELEASE_V1.0.2/MSDK/app\ping.c ****     size_t size = ping_info->ping_size;
  87              		.loc 1 297 5 is_stmt 1
 298:C:/Users/stapi/OneDrive/Desktop/GD32VW553/GD32VW55X_Wifi_BLE_SDK/GD32VW55x_RELEASE_V1.0.2/MSDK/app\ping.c ****     //static uint32_t ping_send_count = 0;
  88              		.loc 1 298 14 is_stmt 0
  89 001c 1C4D     		lw	a5,24(a0)
  90              	.LVL3:
 308:C:/Users/stapi/OneDrive/Desktop/GD32VW553/GD32VW55X_Wifi_BLE_SDK/GD32VW55x_RELEASE_V1.0.2/MSDK/app\ping.c ****     ping_info->ping_recv_count = 0;
  91              		.loc 1 308 32
  92 001e 23260502 		sw	zero,44(a0)
 309:C:/Users/stapi/OneDrive/Desktop/GD32VW553/GD32VW55X_Wifi_BLE_SDK/GD32VW55x_RELEASE_V1.0.2/MSDK/app\ping.c ****     send_count = 0;
 310:C:/Users/stapi/OneDrive/Desktop/GD32VW553/GD32VW55X_Wifi_BLE_SDK/GD32VW55x_RELEASE_V1.0.2/MSDK/app\ping.c **** 
 311:C:/Users/stapi/OneDrive/Desktop/GD32VW553/GD32VW55X_Wifi_BLE_SDK/GD32VW55x_RELEASE_V1.0.2/MSDK/app\ping.c **** #if LWIP_IPV6
 312:C:/Users/stapi/OneDrive/Desktop/GD32VW553/GD32VW55X_Wifi_BLE_SDK/GD32VW55x_RELEASE_V1.0.2/MSDK/app\ping.c ****     ping_target.type = 0;
 313:C:/Users/stapi/OneDrive/Desktop/GD32VW553/GD32VW55X_Wifi_BLE_SDK/GD32VW55x_RELEASE_V1.0.2/MSDK/app\ping.c ****     if (ping_info->ip_type == IPADDR_TYPE_V6) {
 314:C:/Users/stapi/OneDrive/Desktop/GD32VW553/GD32VW55X_Wifi_BLE_SDK/GD32VW55x_RELEASE_V1.0.2/MSDK/app\ping.c ****         if (inet6_aton(target, &ping_target.u_addr.ip6) == 0)
 315:C:/Users/stapi/OneDrive/Desktop/GD32VW553/GD32VW55X_Wifi_BLE_SDK/GD32VW55x_RELEASE_V1.0.2/MSDK/app\ping.c ****             return ERR_VAL;
 316:C:/Users/stapi/OneDrive/Desktop/GD32VW553/GD32VW55X_Wifi_BLE_SDK/GD32VW55x_RELEASE_V1.0.2/MSDK/app\ping.c ****         ping_target.type = IPADDR_TYPE_V6;
 317:C:/Users/stapi/OneDrive/Desktop/GD32VW553/GD32VW55X_Wifi_BLE_SDK/GD32VW55x_RELEASE_V1.0.2/MSDK/app\ping.c ****         ip_hdr_len = sizeof(struct ip6_hdr);
 318:C:/Users/stapi/OneDrive/Desktop/GD32VW553/GD32VW55X_Wifi_BLE_SDK/GD32VW55x_RELEASE_V1.0.2/MSDK/app\ping.c ****     } else
 319:C:/Users/stapi/OneDrive/Desktop/GD32VW553/GD32VW55X_Wifi_BLE_SDK/GD32VW55x_RELEASE_V1.0.2/MSDK/app\ping.c **** #endif
 320:C:/Users/stapi/OneDrive/Desktop/GD32VW553/GD32VW55X_Wifi_BLE_SDK/GD32VW55x_RELEASE_V1.0.2/MSDK/app\ping.c ****     {
 321:C:/Users/stapi/OneDrive/Desktop/GD32VW553/GD32VW55X_Wifi_BLE_SDK/GD32VW55x_RELEASE_V1.0.2/MSDK/app\ping.c ****         if (inet_aton(target, &ping_target) == 0)
  93              		.loc 1 321 13
  94 0022 2C10     		addi	a1,sp,40
 298:C:/Users/stapi/OneDrive/Desktop/GD32VW553/GD32VW55X_Wifi_BLE_SDK/GD32VW55x_RELEASE_V1.0.2/MSDK/app\ping.c ****     //static uint32_t ping_send_count = 0;
  95              		.loc 1 298 14
  96 0024 3EC2     		sw	a5,4(sp)
 306:C:/Users/stapi/OneDrive/Desktop/GD32VW553/GD32VW55X_Wifi_BLE_SDK/GD32VW55x_RELEASE_V1.0.2/MSDK/app\ping.c ****     ping_info->ping_avg_delay = 0;
  97              		.loc 1 306 31
  98 0026 FD57     		li	a5,-1
  99 0028 2310F502 		sh	a5,32(a0)
 297:C:/Users/stapi/OneDrive/Desktop/GD32VW553/GD32VW55X_Wifi_BLE_SDK/GD32VW55x_RELEASE_V1.0.2/MSDK/app\ping.c ****     uint32_t interval = ping_info->ping_interval;
 100              		.loc 1 297 12
 101 002c 03294501 		lw	s2,20(a0)
 102              	.LVL4:
 298:C:/Users/stapi/OneDrive/Desktop/GD32VW553/GD32VW55X_Wifi_BLE_SDK/GD32VW55x_RELEASE_V1.0.2/MSDK/app\ping.c ****     //static uint32_t ping_send_count = 0;
 103              		.loc 1 298 5 is_stmt 1
 301:C:/Users/stapi/OneDrive/Desktop/GD32VW553/GD32VW55X_Wifi_BLE_SDK/GD32VW55x_RELEASE_V1.0.2/MSDK/app\ping.c ****     uint32_t ip_hdr_len;
 104              		.loc 1 301 5
 302:C:/Users/stapi/OneDrive/Desktop/GD32VW553/GD32VW55X_Wifi_BLE_SDK/GD32VW55x_RELEASE_V1.0.2/MSDK/app\ping.c **** 
 105              		.loc 1 302 5
 304:C:/Users/stapi/OneDrive/Desktop/GD32VW553/GD32VW55X_Wifi_BLE_SDK/GD32VW55x_RELEASE_V1.0.2/MSDK/app\ping.c ****     ping_info->ping_max_delay = 0;
 106              		.loc 1 304 5
 305:C:/Users/stapi/OneDrive/Desktop/GD32VW553/GD32VW55X_Wifi_BLE_SDK/GD32VW55x_RELEASE_V1.0.2/MSDK/app\ping.c ****     ping_info->ping_min_delay = (u16_t)-1;
 107              		.loc 1 305 5
 306:C:/Users/stapi/OneDrive/Desktop/GD32VW553/GD32VW55X_Wifi_BLE_SDK/GD32VW55x_RELEASE_V1.0.2/MSDK/app\ping.c ****     ping_info->ping_avg_delay = 0;
 108              		.loc 1 306 5
 307:C:/Users/stapi/OneDrive/Desktop/GD32VW553/GD32VW55X_Wifi_BLE_SDK/GD32VW55x_RELEASE_V1.0.2/MSDK/app\ping.c ****     ping_info->ping_recv_count = 0;
 109              		.loc 1 307 5
 308:C:/Users/stapi/OneDrive/Desktop/GD32VW553/GD32VW55X_Wifi_BLE_SDK/GD32VW55x_RELEASE_V1.0.2/MSDK/app\ping.c ****     send_count = 0;
 110              		.loc 1 308 5
 309:C:/Users/stapi/OneDrive/Desktop/GD32VW553/GD32VW55X_Wifi_BLE_SDK/GD32VW55x_RELEASE_V1.0.2/MSDK/app\ping.c **** 
 111              		.loc 1 309 5
 112              		.loc 1 321 9
 290:C:/Users/stapi/OneDrive/Desktop/GD32VW553/GD32VW55X_Wifi_BLE_SDK/GD32VW55x_RELEASE_V1.0.2/MSDK/app\ping.c ****     int s;
 113              		.loc 1 290 1 is_stmt 0
 114 0030 AA8B     		mv	s7,a0
 115              		.loc 1 321 13
 116 0032 97000000 		call	ip4addr_aton
 116      E7800000 
 117              	.LVL5:
 118              		.loc 1 321 12
 119 003a 630B0534 		beq	a0,zero,.L24
 322:C:/Users/stapi/OneDrive/Desktop/GD32VW553/GD32VW55X_Wifi_BLE_SDK/GD32VW55x_RELEASE_V1.0.2/MSDK/app\ping.c ****             return ERR_VAL;
 323:C:/Users/stapi/OneDrive/Desktop/GD32VW553/GD32VW55X_Wifi_BLE_SDK/GD32VW55x_RELEASE_V1.0.2/MSDK/app\ping.c ****         ip_hdr_len = sizeof(struct ip_hdr);
 120              		.loc 1 323 9 is_stmt 1
 121              	.LVL6:
 324:C:/Users/stapi/OneDrive/Desktop/GD32VW553/GD32VW55X_Wifi_BLE_SDK/GD32VW55x_RELEASE_V1.0.2/MSDK/app\ping.c ****         //addr = (struct _ip_addr*)&ping_target;
 325:C:/Users/stapi/OneDrive/Desktop/GD32VW553/GD32VW55X_Wifi_BLE_SDK/GD32VW55x_RELEASE_V1.0.2/MSDK/app\ping.c ****     }
 326:C:/Users/stapi/OneDrive/Desktop/GD32VW553/GD32VW55X_Wifi_BLE_SDK/GD32VW55x_RELEASE_V1.0.2/MSDK/app\ping.c **** 
 327:C:/Users/stapi/OneDrive/Desktop/GD32VW553/GD32VW55X_Wifi_BLE_SDK/GD32VW55x_RELEASE_V1.0.2/MSDK/app\ping.c **** 
 328:C:/Users/stapi/OneDrive/Desktop/GD32VW553/GD32VW55X_Wifi_BLE_SDK/GD32VW55x_RELEASE_V1.0.2/MSDK/app\ping.c ****     if ((ping_info->ping_size + sizeof(struct icmp_echo_hdr)+ ip_hdr_len) > BUF_SIZE)
 122              		.loc 1 328 5
 329:C:/Users/stapi/OneDrive/Desktop/GD32VW553/GD32VW55X_Wifi_BLE_SDK/GD32VW55x_RELEASE_V1.0.2/MSDK/app\ping.c ****         recv_size = (ping_info->ping_size + sizeof(struct icmp_echo_hdr)+ ip_hdr_len);
 330:C:/Users/stapi/OneDrive/Desktop/GD32VW553/GD32VW55X_Wifi_BLE_SDK/GD32VW55x_RELEASE_V1.0.2/MSDK/app\ping.c ****     else
 331:C:/Users/stapi/OneDrive/Desktop/GD32VW553/GD32VW55X_Wifi_BLE_SDK/GD32VW55x_RELEASE_V1.0.2/MSDK/app\ping.c ****         recv_size = BUF_SIZE;
 332:C:/Users/stapi/OneDrive/Desktop/GD32VW553/GD32VW55X_Wifi_BLE_SDK/GD32VW55x_RELEASE_V1.0.2/MSDK/app\ping.c ****     ping_info->reply_buf = sys_malloc(recv_size);
 123              		.loc 1 332 5
 328:C:/Users/stapi/OneDrive/Desktop/GD32VW553/GD32VW55X_Wifi_BLE_SDK/GD32VW55x_RELEASE_V1.0.2/MSDK/app\ping.c ****         recv_size = (ping_info->ping_size + sizeof(struct icmp_echo_hdr)+ ip_hdr_len);
 124              		.loc 1 328 61 is_stmt 0
 125 003e 83A74B01 		lw	a5,20(s7)
 126              		.loc 1 332 28
 127 0042 1305C05D 		li	a0,1500
 328:C:/Users/stapi/OneDrive/Desktop/GD32VW553/GD32VW55X_Wifi_BLE_SDK/GD32VW55x_RELEASE_V1.0.2/MSDK/app\ping.c ****         recv_size = (ping_info->ping_size + sizeof(struct icmp_echo_hdr)+ ip_hdr_len);
 128              		.loc 1 328 61
 129 0046 F107     		addi	a5,a5,28
 130              		.loc 1 332 28
 131 0048 33F5A70A 		maxu	a0,a5,a0
 132              	.LVL7:
 133 004c 97000000 		call	sys_malloc
 133      E7800000 
 134              	.LVL8:
 135              		.loc 1 332 26
 136 0054 23A8AB02 		sw	a0,48(s7)
 333:C:/Users/stapi/OneDrive/Desktop/GD32VW553/GD32VW55X_Wifi_BLE_SDK/GD32VW55x_RELEASE_V1.0.2/MSDK/app\ping.c ****     if (NULL == ping_info->reply_buf){
 137              		.loc 1 333 5 is_stmt 1
 138              		.loc 1 333 8 is_stmt 0
 139 0058 19ED     		bne	a0,zero,.L3
 334:C:/Users/stapi/OneDrive/Desktop/GD32VW553/GD32VW55X_Wifi_BLE_SDK/GD32VW55x_RELEASE_V1.0.2/MSDK/app\ping.c ****         app_print("ping recv: allocate buffer failed.\n\r");
 140              		.loc 1 334 9 is_stmt 1
 141 005a 37050000 		lui	a0,%hi(.LC0)
 142 005e 13050500 		addi	a0,a0,%lo(.LC0)
 143 0062 97000000 		call	co_printf
 143      E7800000 
 144              	.LVL9:
 335:C:/Users/stapi/OneDrive/Desktop/GD32VW553/GD32VW55X_Wifi_BLE_SDK/GD32VW55x_RELEASE_V1.0.2/MSDK/app\ping.c ****         return ERR_MEM;
 145              		.loc 1 335 9
 146              	.L35:
 336:C:/Users/stapi/OneDrive/Desktop/GD32VW553/GD32VW55X_Wifi_BLE_SDK/GD32VW55x_RELEASE_V1.0.2/MSDK/app\ping.c ****     }
 337:C:/Users/stapi/OneDrive/Desktop/GD32VW553/GD32VW55X_Wifi_BLE_SDK/GD32VW55x_RELEASE_V1.0.2/MSDK/app\ping.c **** 
 338:C:/Users/stapi/OneDrive/Desktop/GD32VW553/GD32VW55X_Wifi_BLE_SDK/GD32VW55x_RELEASE_V1.0.2/MSDK/app\ping.c **** #if LWIP_IPV6
 339:C:/Users/stapi/OneDrive/Desktop/GD32VW553/GD32VW55X_Wifi_BLE_SDK/GD32VW55x_RELEASE_V1.0.2/MSDK/app\ping.c ****     if (ping_info->ip_type == IPADDR_TYPE_V6) {
 340:C:/Users/stapi/OneDrive/Desktop/GD32VW553/GD32VW55X_Wifi_BLE_SDK/GD32VW55x_RELEASE_V1.0.2/MSDK/app\ping.c ****         s = lwip_socket(AF_INET6, SOCK_RAW, IPPROTO_ICMPV6);
 341:C:/Users/stapi/OneDrive/Desktop/GD32VW553/GD32VW55X_Wifi_BLE_SDK/GD32VW55x_RELEASE_V1.0.2/MSDK/app\ping.c ****     } else
 342:C:/Users/stapi/OneDrive/Desktop/GD32VW553/GD32VW55X_Wifi_BLE_SDK/GD32VW55x_RELEASE_V1.0.2/MSDK/app\ping.c **** #endif
 343:C:/Users/stapi/OneDrive/Desktop/GD32VW553/GD32VW55X_Wifi_BLE_SDK/GD32VW55x_RELEASE_V1.0.2/MSDK/app\ping.c ****     {
 344:C:/Users/stapi/OneDrive/Desktop/GD32VW553/GD32VW55X_Wifi_BLE_SDK/GD32VW55x_RELEASE_V1.0.2/MSDK/app\ping.c ****         s = lwip_socket(AF_INET, SOCK_RAW, IP_PROTO_ICMP);
 345:C:/Users/stapi/OneDrive/Desktop/GD32VW553/GD32VW55X_Wifi_BLE_SDK/GD32VW55x_RELEASE_V1.0.2/MSDK/app\ping.c ****     }
 346:C:/Users/stapi/OneDrive/Desktop/GD32VW553/GD32VW55X_Wifi_BLE_SDK/GD32VW55x_RELEASE_V1.0.2/MSDK/app\ping.c ****     if (s < 0) {
 347:C:/Users/stapi/OneDrive/Desktop/GD32VW553/GD32VW55X_Wifi_BLE_SDK/GD32VW55x_RELEASE_V1.0.2/MSDK/app\ping.c ****         app_print("ping: create socket failled\n\r");
 348:C:/Users/stapi/OneDrive/Desktop/GD32VW553/GD32VW55X_Wifi_BLE_SDK/GD32VW55x_RELEASE_V1.0.2/MSDK/app\ping.c ****         sys_mfree(ping_info->reply_buf);
 349:C:/Users/stapi/OneDrive/Desktop/GD32VW553/GD32VW55X_Wifi_BLE_SDK/GD32VW55x_RELEASE_V1.0.2/MSDK/app\ping.c ****         return ERR_MEM;
 147              		.loc 1 349 9
 148              		.loc 1 349 16 is_stmt 0
 149 006a 7D55     		li	a0,-1
 150              	.LVL10:
 151              	.L33:
 350:C:/Users/stapi/OneDrive/Desktop/GD32VW553/GD32VW55X_Wifi_BLE_SDK/GD32VW55x_RELEASE_V1.0.2/MSDK/app\ping.c ****     }
 351:C:/Users/stapi/OneDrive/Desktop/GD32VW553/GD32VW55X_Wifi_BLE_SDK/GD32VW55x_RELEASE_V1.0.2/MSDK/app\ping.c **** 
 352:C:/Users/stapi/OneDrive/Desktop/GD32VW553/GD32VW55X_Wifi_BLE_SDK/GD32VW55x_RELEASE_V1.0.2/MSDK/app\ping.c ****     lwip_setsockopt(s, SOL_SOCKET, SO_RCVTIMEO, &timeout, sizeof(timeout));
 353:C:/Users/stapi/OneDrive/Desktop/GD32VW553/GD32VW55X_Wifi_BLE_SDK/GD32VW55x_RELEASE_V1.0.2/MSDK/app\ping.c **** 
 354:C:/Users/stapi/OneDrive/Desktop/GD32VW553/GD32VW55X_Wifi_BLE_SDK/GD32VW55x_RELEASE_V1.0.2/MSDK/app\ping.c **** #ifdef CONFIG_ATCMD
 355:C:/Users/stapi/OneDrive/Desktop/GD32VW553/GD32VW55X_Wifi_BLE_SDK/GD32VW55x_RELEASE_V1.0.2/MSDK/app\ping.c ****     //if (cmd_mode_type_get() != CMD_MODE_TYPE_AT)
 356:C:/Users/stapi/OneDrive/Desktop/GD32VW553/GD32VW55X_Wifi_BLE_SDK/GD32VW55x_RELEASE_V1.0.2/MSDK/app\ping.c **** #endif
 357:C:/Users/stapi/OneDrive/Desktop/GD32VW553/GD32VW55X_Wifi_BLE_SDK/GD32VW55x_RELEASE_V1.0.2/MSDK/app\ping.c ****     {
 358:C:/Users/stapi/OneDrive/Desktop/GD32VW553/GD32VW55X_Wifi_BLE_SDK/GD32VW55x_RELEASE_V1.0.2/MSDK/app\ping.c **** #if LWIP_IPV6
 359:C:/Users/stapi/OneDrive/Desktop/GD32VW553/GD32VW55X_Wifi_BLE_SDK/GD32VW55x_RELEASE_V1.0.2/MSDK/app\ping.c ****         if (ping_info->ip_type == IPADDR_TYPE_V6)
 360:C:/Users/stapi/OneDrive/Desktop/GD32VW553/GD32VW55X_Wifi_BLE_SDK/GD32VW55x_RELEASE_V1.0.2/MSDK/app\ping.c ****             app_print("[ping_test] PING %s %d bytes of data\n\r",
 361:C:/Users/stapi/OneDrive/Desktop/GD32VW553/GD32VW55X_Wifi_BLE_SDK/GD32VW55x_RELEASE_V1.0.2/MSDK/app\ping.c ****                 inet6_ntoa(ping_target), size);
 362:C:/Users/stapi/OneDrive/Desktop/GD32VW553/GD32VW55X_Wifi_BLE_SDK/GD32VW55x_RELEASE_V1.0.2/MSDK/app\ping.c ****         else
 363:C:/Users/stapi/OneDrive/Desktop/GD32VW553/GD32VW55X_Wifi_BLE_SDK/GD32VW55x_RELEASE_V1.0.2/MSDK/app\ping.c **** #endif
 364:C:/Users/stapi/OneDrive/Desktop/GD32VW553/GD32VW55X_Wifi_BLE_SDK/GD32VW55x_RELEASE_V1.0.2/MSDK/app\ping.c ****             app_print("[ping_test] PING %s %d bytes of data\n\r",
 365:C:/Users/stapi/OneDrive/Desktop/GD32VW553/GD32VW55X_Wifi_BLE_SDK/GD32VW55x_RELEASE_V1.0.2/MSDK/app\ping.c ****                 inet_ntoa(ping_target), size);
 366:C:/Users/stapi/OneDrive/Desktop/GD32VW553/GD32VW55X_Wifi_BLE_SDK/GD32VW55x_RELEASE_V1.0.2/MSDK/app\ping.c ****     }
 367:C:/Users/stapi/OneDrive/Desktop/GD32VW553/GD32VW55X_Wifi_BLE_SDK/GD32VW55x_RELEASE_V1.0.2/MSDK/app\ping.c ****     while (1) {
 368:C:/Users/stapi/OneDrive/Desktop/GD32VW553/GD32VW55X_Wifi_BLE_SDK/GD32VW55x_RELEASE_V1.0.2/MSDK/app\ping.c ****         //add for random size ping test
 369:C:/Users/stapi/OneDrive/Desktop/GD32VW553/GD32VW55X_Wifi_BLE_SDK/GD32VW55x_RELEASE_V1.0.2/MSDK/app\ping.c ****         //size_random = 32 + rand()%(1460-32+1);
 370:C:/Users/stapi/OneDrive/Desktop/GD32VW553/GD32VW55X_Wifi_BLE_SDK/GD32VW55x_RELEASE_V1.0.2/MSDK/app\ping.c ****         if (ping_terminate) {
 371:C:/Users/stapi/OneDrive/Desktop/GD32VW553/GD32VW55X_Wifi_BLE_SDK/GD32VW55x_RELEASE_V1.0.2/MSDK/app\ping.c ****             break;
 372:C:/Users/stapi/OneDrive/Desktop/GD32VW553/GD32VW55X_Wifi_BLE_SDK/GD32VW55x_RELEASE_V1.0.2/MSDK/app\ping.c ****         }
 373:C:/Users/stapi/OneDrive/Desktop/GD32VW553/GD32VW55X_Wifi_BLE_SDK/GD32VW55x_RELEASE_V1.0.2/MSDK/app\ping.c **** 
 374:C:/Users/stapi/OneDrive/Desktop/GD32VW553/GD32VW55X_Wifi_BLE_SDK/GD32VW55x_RELEASE_V1.0.2/MSDK/app\ping.c ****         //if (ping_send(s, &ping_target, size_random) == ERR_OK)
 375:C:/Users/stapi/OneDrive/Desktop/GD32VW553/GD32VW55X_Wifi_BLE_SDK/GD32VW55x_RELEASE_V1.0.2/MSDK/app\ping.c ****         if (ping_send(ping_info, s, &ping_target, size) == ERR_OK) {
 376:C:/Users/stapi/OneDrive/Desktop/GD32VW553/GD32VW55X_Wifi_BLE_SDK/GD32VW55x_RELEASE_V1.0.2/MSDK/app\ping.c ****             //app_print("@@@ping: send %d.%d.%d.%d, size = %d, count = %d\n",
 377:C:/Users/stapi/OneDrive/Desktop/GD32VW553/GD32VW55X_Wifi_BLE_SDK/GD32VW55x_RELEASE_V1.0.2/MSDK/app\ping.c ****             //            addr->addr0, addr->addr1, addr->addr2, addr->addr3, size, ++ping_send_cou
 378:C:/Users/stapi/OneDrive/Desktop/GD32VW553/GD32VW55X_Wifi_BLE_SDK/GD32VW55x_RELEASE_V1.0.2/MSDK/app\ping.c ****             ping_info->ping_time = my_time_get();
 379:C:/Users/stapi/OneDrive/Desktop/GD32VW553/GD32VW55X_Wifi_BLE_SDK/GD32VW55x_RELEASE_V1.0.2/MSDK/app\ping.c ****             ping_recv(ping_info, s);
 380:C:/Users/stapi/OneDrive/Desktop/GD32VW553/GD32VW55X_Wifi_BLE_SDK/GD32VW55x_RELEASE_V1.0.2/MSDK/app\ping.c **** 
 381:C:/Users/stapi/OneDrive/Desktop/GD32VW553/GD32VW55X_Wifi_BLE_SDK/GD32VW55x_RELEASE_V1.0.2/MSDK/app\ping.c ****         }
 382:C:/Users/stapi/OneDrive/Desktop/GD32VW553/GD32VW55X_Wifi_BLE_SDK/GD32VW55x_RELEASE_V1.0.2/MSDK/app\ping.c **** 
 383:C:/Users/stapi/OneDrive/Desktop/GD32VW553/GD32VW55X_Wifi_BLE_SDK/GD32VW55x_RELEASE_V1.0.2/MSDK/app\ping.c ****         send_count ++;
 384:C:/Users/stapi/OneDrive/Desktop/GD32VW553/GD32VW55X_Wifi_BLE_SDK/GD32VW55x_RELEASE_V1.0.2/MSDK/app\ping.c ****         if (send_count >= count) break; /* send ping times reached, stop */
 385:C:/Users/stapi/OneDrive/Desktop/GD32VW553/GD32VW55X_Wifi_BLE_SDK/GD32VW55x_RELEASE_V1.0.2/MSDK/app\ping.c **** 
 386:C:/Users/stapi/OneDrive/Desktop/GD32VW553/GD32VW55X_Wifi_BLE_SDK/GD32VW55x_RELEASE_V1.0.2/MSDK/app\ping.c ****         sys_ms_sleep(interval); /* take a delay */
 387:C:/Users/stapi/OneDrive/Desktop/GD32VW553/GD32VW55X_Wifi_BLE_SDK/GD32VW55x_RELEASE_V1.0.2/MSDK/app\ping.c ****     }
 388:C:/Users/stapi/OneDrive/Desktop/GD32VW553/GD32VW55X_Wifi_BLE_SDK/GD32VW55x_RELEASE_V1.0.2/MSDK/app\ping.c **** #ifdef CONFIG_ATCMD
 389:C:/Users/stapi/OneDrive/Desktop/GD32VW553/GD32VW55X_Wifi_BLE_SDK/GD32VW55x_RELEASE_V1.0.2/MSDK/app\ping.c ****     //if (cmd_mode_type_get() != CMD_MODE_TYPE_AT)
 390:C:/Users/stapi/OneDrive/Desktop/GD32VW553/GD32VW55X_Wifi_BLE_SDK/GD32VW55x_RELEASE_V1.0.2/MSDK/app\ping.c **** #endif
 391:C:/Users/stapi/OneDrive/Desktop/GD32VW553/GD32VW55X_Wifi_BLE_SDK/GD32VW55x_RELEASE_V1.0.2/MSDK/app\ping.c ****     {
 392:C:/Users/stapi/OneDrive/Desktop/GD32VW553/GD32VW55X_Wifi_BLE_SDK/GD32VW55x_RELEASE_V1.0.2/MSDK/app\ping.c ****         app_print("[ping_test] %d packets transmitted, %d received, %d%% packet loss\n\r",
 393:C:/Users/stapi/OneDrive/Desktop/GD32VW553/GD32VW55X_Wifi_BLE_SDK/GD32VW55x_RELEASE_V1.0.2/MSDK/app\ping.c ****             send_count, ping_info->ping_recv_count, (send_count-ping_info->ping_recv_count) * 100 /
 394:C:/Users/stapi/OneDrive/Desktop/GD32VW553/GD32VW55X_Wifi_BLE_SDK/GD32VW55x_RELEASE_V1.0.2/MSDK/app\ping.c **** 
 395:C:/Users/stapi/OneDrive/Desktop/GD32VW553/GD32VW55X_Wifi_BLE_SDK/GD32VW55x_RELEASE_V1.0.2/MSDK/app\ping.c ****         if (ping_info->ping_recv_count != 0) {
 396:C:/Users/stapi/OneDrive/Desktop/GD32VW553/GD32VW55X_Wifi_BLE_SDK/GD32VW55x_RELEASE_V1.0.2/MSDK/app\ping.c ****             app_print("[ping_test] delay: min %u ms, max %u ms, avg %u ms\n\r",
 397:C:/Users/stapi/OneDrive/Desktop/GD32VW553/GD32VW55X_Wifi_BLE_SDK/GD32VW55x_RELEASE_V1.0.2/MSDK/app\ping.c ****                 ping_info->ping_min_delay, ping_info->ping_max_delay, ping_info->ping_avg_delay / p
 398:C:/Users/stapi/OneDrive/Desktop/GD32VW553/GD32VW55X_Wifi_BLE_SDK/GD32VW55x_RELEASE_V1.0.2/MSDK/app\ping.c ****         }
 399:C:/Users/stapi/OneDrive/Desktop/GD32VW553/GD32VW55X_Wifi_BLE_SDK/GD32VW55x_RELEASE_V1.0.2/MSDK/app\ping.c ****     }
 400:C:/Users/stapi/OneDrive/Desktop/GD32VW553/GD32VW55X_Wifi_BLE_SDK/GD32VW55x_RELEASE_V1.0.2/MSDK/app\ping.c ****     lwip_close(s);
 401:C:/Users/stapi/OneDrive/Desktop/GD32VW553/GD32VW55X_Wifi_BLE_SDK/GD32VW55x_RELEASE_V1.0.2/MSDK/app\ping.c **** 
 402:C:/Users/stapi/OneDrive/Desktop/GD32VW553/GD32VW55X_Wifi_BLE_SDK/GD32VW55x_RELEASE_V1.0.2/MSDK/app\ping.c ****     sys_mfree(ping_info->reply_buf);
 403:C:/Users/stapi/OneDrive/Desktop/GD32VW553/GD32VW55X_Wifi_BLE_SDK/GD32VW55x_RELEASE_V1.0.2/MSDK/app\ping.c **** 
 404:C:/Users/stapi/OneDrive/Desktop/GD32VW553/GD32VW55X_Wifi_BLE_SDK/GD32VW55x_RELEASE_V1.0.2/MSDK/app\ping.c ****     return ERR_OK;
 405:C:/Users/stapi/OneDrive/Desktop/GD32VW553/GD32VW55X_Wifi_BLE_SDK/GD32VW55x_RELEASE_V1.0.2/MSDK/app\ping.c **** }
 152              		.loc 1 405 1
 153 006c 2161     		addi	sp,sp,64
 154              		.cfi_remember_state
 155              		.cfi_def_cfa_offset 0
 156              	.LVL11:
 157 006e 17030000 		tail	__riscv_restore_12
 157      67000300 
 158              		.cfi_restore 27
 159              		.cfi_restore 26
 160              		.cfi_restore 25
 161              		.cfi_restore 24
 162              		.cfi_restore 23
 163              		.cfi_restore 22
 164              		.cfi_restore 21
 165              		.cfi_restore 20
 166              		.cfi_restore 19
 167              		.cfi_restore 18
 168              		.cfi_restore 9
 169              		.cfi_restore 8
 170              		.cfi_restore 1
 171              		.cfi_def_cfa_offset -64
 172              	.LVL12:
 173              	.L3:
 174              		.cfi_restore_state
 344:C:/Users/stapi/OneDrive/Desktop/GD32VW553/GD32VW55X_Wifi_BLE_SDK/GD32VW55x_RELEASE_V1.0.2/MSDK/app\ping.c ****     }
 175              		.loc 1 344 9 is_stmt 1
 344:C:/Users/stapi/OneDrive/Desktop/GD32VW553/GD32VW55X_Wifi_BLE_SDK/GD32VW55x_RELEASE_V1.0.2/MSDK/app\ping.c ****     }
 176              		.loc 1 344 13 is_stmt 0
 177 0076 0546     		li	a2,1
 178 0078 8D45     		li	a1,3
 179 007a 0945     		li	a0,2
 180 007c 97000000 		call	lwip_socket
 180      E7800000 
 181              	.LVL13:
 182 0084 AA84     		mv	s1,a0
 183              	.LVL14:
 346:C:/Users/stapi/OneDrive/Desktop/GD32VW553/GD32VW55X_Wifi_BLE_SDK/GD32VW55x_RELEASE_V1.0.2/MSDK/app\ping.c ****         app_print("ping: create socket failled\n\r");
 184              		.loc 1 346 5 is_stmt 1
 346:C:/Users/stapi/OneDrive/Desktop/GD32VW553/GD32VW55X_Wifi_BLE_SDK/GD32VW55x_RELEASE_V1.0.2/MSDK/app\ping.c ****         app_print("ping: create socket failled\n\r");
 185              		.loc 1 346 8 is_stmt 0
 186 0086 63510502 		bge	a0,zero,.L4
 347:C:/Users/stapi/OneDrive/Desktop/GD32VW553/GD32VW55X_Wifi_BLE_SDK/GD32VW55x_RELEASE_V1.0.2/MSDK/app\ping.c ****         sys_mfree(ping_info->reply_buf);
 187              		.loc 1 347 9 is_stmt 1
 188 008a 37050000 		lui	a0,%hi(.LC1)
 189 008e 13050500 		addi	a0,a0,%lo(.LC1)
 190 0092 97000000 		call	co_printf
 190      E7800000 
 191              	.LVL15:
 348:C:/Users/stapi/OneDrive/Desktop/GD32VW553/GD32VW55X_Wifi_BLE_SDK/GD32VW55x_RELEASE_V1.0.2/MSDK/app\ping.c ****         return ERR_MEM;
 192              		.loc 1 348 9
 193 009a 03A50B03 		lw	a0,48(s7)
 194 009e 97000000 		call	sys_mfree
 194      E7800000 
 195              	.LVL16:
 196 00a6 D1B7     		j	.L35
 197              	.L4:
 352:C:/Users/stapi/OneDrive/Desktop/GD32VW553/GD32VW55X_Wifi_BLE_SDK/GD32VW55x_RELEASE_V1.0.2/MSDK/app\ping.c **** 
 198              		.loc 1 352 5
 199 00a8 8565     		li	a1,4096
 200 00aa 13866500 		addi	a2,a1,6
 201 00ae 1147     		li	a4,4
 202 00b0 5410     		addi	a3,sp,36
 203 00b2 FD15     		addi	a1,a1,-1
 204 00b4 97000000 		call	lwip_setsockopt
 204      E7800000 
 205              	.LVL17:
 364:C:/Users/stapi/OneDrive/Desktop/GD32VW553/GD32VW55X_Wifi_BLE_SDK/GD32VW55x_RELEASE_V1.0.2/MSDK/app\ping.c ****                 inet_ntoa(ping_target), size);
 206              		.loc 1 364 13
 207 00bc 2810     		addi	a0,sp,40
 208 00be 97000000 		call	ip4addr_ntoa
 208      E7800000 
 209              	.LVL18:
 210 00c6 AA85     		mv	a1,a0
 211 00c8 37050000 		lui	a0,%hi(.LC2)
 212 00cc 4A86     		mv	a2,s2
 213 00ce 13050500 		addi	a0,a0,%lo(.LC2)
 214 00d2 97000000 		call	co_printf
 214      E7800000 
 215              	.LVL19:
 216              	.LBB16:
 217              	.LBB17:
 128:C:/Users/stapi/OneDrive/Desktop/GD32VW553/GD32VW55X_Wifi_BLE_SDK/GD32VW55x_RELEASE_V1.0.2/MSDK/app\ping.c ****     }
 218              		.loc 1 128 19 is_stmt 0
 219 00da 93078900 		addi	a5,s2,8
 220 00de 93098002 		li	s3,40
 221 00e2 63030900 		beq	s2,zero,.L6
 222 00e6 BE89     		mv	s3,a5
 223              	.L6:
 138:C:/Users/stapi/OneDrive/Desktop/GD32VW553/GD32VW55X_Wifi_BLE_SDK/GD32VW55x_RELEASE_V1.0.2/MSDK/app\ping.c **** 
 224              		.loc 1 138 5
 225 00e8 B3C70908 		zext.h	a5,s3
 125:C:/Users/stapi/OneDrive/Desktop/GD32VW553/GD32VW55X_Wifi_BLE_SDK/GD32VW55x_RELEASE_V1.0.2/MSDK/app\ping.c ****         ping_size = sizeof(struct icmp_echo_hdr) + PING_DATA_SIZE;
 226              		.loc 1 125 8
 227 00ec 417C     		li	s8,-65536
 138:C:/Users/stapi/OneDrive/Desktop/GD32VW553/GD32VW55X_Wifi_BLE_SDK/GD32VW55x_RELEASE_V1.0.2/MSDK/app\ping.c **** 
 228              		.loc 1 138 5
 229 00ee 3EC4     		sw	a5,8(sp)
 230              	.LBB18:
 231              	.LBB19:
  88:C:/Users/stapi/OneDrive/Desktop/GD32VW553/GD32VW55X_Wifi_BLE_SDK/GD32VW55x_RELEASE_V1.0.2/MSDK/app\ping.c **** 
 232              		.loc 1 88 12
 233 00f0 938789FF 		addi	a5,s3,-8
 234 00f4 3EC6     		sw	a5,12(sp)
 235              	.LBE19:
 236              	.LBE18:
 237              	.LBE17:
 238              	.LBE16:
 239              	.LBB28:
 240              	.LBB29:
 224:C:/Users/stapi/OneDrive/Desktop/GD32VW553/GD32VW55X_Wifi_BLE_SDK/GD32VW55x_RELEASE_V1.0.2/MSDK/app\ping.c **** #ifdef CONFIG_ATCMD
 241              		.loc 1 224 16
 242 00f6 2D6B     		li	s6,45056
 243              	.LBE29:
 244              	.LBE28:
 245              	.LBB42:
 246              	.LBB24:
 125:C:/Users/stapi/OneDrive/Desktop/GD32VW553/GD32VW55X_Wifi_BLE_SDK/GD32VW55x_RELEASE_V1.0.2/MSDK/app\ping.c ****         ping_size = sizeof(struct icmp_echo_hdr) + PING_DATA_SIZE;
 247              		.loc 1 125 8
 248 00f8 93078C00 		addi	a5,s8,8
 249              	.LBE24:
 250              	.LBE42:
 309:C:/Users/stapi/OneDrive/Desktop/GD32VW553/GD32VW55X_Wifi_BLE_SDK/GD32VW55x_RELEASE_V1.0.2/MSDK/app\ping.c **** 
 251              		.loc 1 309 16
 252 00fc 0144     		li	s0,0
 253              	.LBB43:
 254              	.LBB25:
 125:C:/Users/stapi/OneDrive/Desktop/GD32VW553/GD32VW55X_Wifi_BLE_SDK/GD32VW55x_RELEASE_V1.0.2/MSDK/app\ping.c ****         ping_size = sizeof(struct icmp_echo_hdr) + PING_DATA_SIZE;
 255              		.loc 1 125 8
 256 00fe 3E99     		add	s2,s2,a5
 257              	.LVL20:
 258              	.LBE25:
 259              	.LBE43:
 260              	.LBB44:
 261              	.LBB38:
 224:C:/Users/stapi/OneDrive/Desktop/GD32VW553/GD32VW55X_Wifi_BLE_SDK/GD32VW55x_RELEASE_V1.0.2/MSDK/app\ping.c **** #ifdef CONFIG_ATCMD
 262              		.loc 1 224 16
 263 0100 130BFBFA 		addi	s6,s6,-81
 264              	.LVL21:
 265              	.L22:
 266              	.LBE38:
 267              	.LBE44:
 367:C:/Users/stapi/OneDrive/Desktop/GD32VW553/GD32VW55X_Wifi_BLE_SDK/GD32VW55x_RELEASE_V1.0.2/MSDK/app\ping.c ****         //add for random size ping test
 268              		.loc 1 367 5 is_stmt 1
 370:C:/Users/stapi/OneDrive/Desktop/GD32VW553/GD32VW55X_Wifi_BLE_SDK/GD32VW55x_RELEASE_V1.0.2/MSDK/app\ping.c ****             break;
 269              		.loc 1 370 9
 370:C:/Users/stapi/OneDrive/Desktop/GD32VW553/GD32VW55X_Wifi_BLE_SDK/GD32VW55x_RELEASE_V1.0.2/MSDK/app\ping.c ****             break;
 270              		.loc 1 370 12 is_stmt 0
 271 0104 B7070000 		lui	a5,%hi(.LANCHOR0)
 272 0108 83C70700 		lbu	a5,%lo(.LANCHOR0)(a5)
 273 010c 639F0720 		bne	a5,zero,.L7
 375:C:/Users/stapi/OneDrive/Desktop/GD32VW553/GD32VW55X_Wifi_BLE_SDK/GD32VW55x_RELEASE_V1.0.2/MSDK/app\ping.c ****             //app_print("@@@ping: send %d.%d.%d.%d, size = %d, count = %d\n",
 274              		.loc 1 375 9 is_stmt 1
 275              	.LVL22:
 276              	.LBB45:
 277              	.LBB26:
 116:C:/Users/stapi/OneDrive/Desktop/GD32VW553/GD32VW55X_Wifi_BLE_SDK/GD32VW55x_RELEASE_V1.0.2/MSDK/app\ping.c ****     struct icmp_echo_hdr *iecho;
 278              		.loc 1 116 5
 117:C:/Users/stapi/OneDrive/Desktop/GD32VW553/GD32VW55X_Wifi_BLE_SDK/GD32VW55x_RELEASE_V1.0.2/MSDK/app\ping.c ****     struct sockaddr_in to;
 279              		.loc 1 117 5
 118:C:/Users/stapi/OneDrive/Desktop/GD32VW553/GD32VW55X_Wifi_BLE_SDK/GD32VW55x_RELEASE_V1.0.2/MSDK/app\ping.c **** #if LWIP_IPV6
 280              		.loc 1 118 5
 123:C:/Users/stapi/OneDrive/Desktop/GD32VW553/GD32VW55X_Wifi_BLE_SDK/GD32VW55x_RELEASE_V1.0.2/MSDK/app\ping.c **** 
 281              		.loc 1 123 5
 125:C:/Users/stapi/OneDrive/Desktop/GD32VW553/GD32VW55X_Wifi_BLE_SDK/GD32VW55x_RELEASE_V1.0.2/MSDK/app\ping.c ****         ping_size = sizeof(struct icmp_echo_hdr) + PING_DATA_SIZE;
 282              		.loc 1 125 5
 125:C:/Users/stapi/OneDrive/Desktop/GD32VW553/GD32VW55X_Wifi_BLE_SDK/GD32VW55x_RELEASE_V1.0.2/MSDK/app\ping.c ****         ping_size = sizeof(struct icmp_echo_hdr) + PING_DATA_SIZE;
 283              		.loc 1 125 8 is_stmt 0
 284 0110 63758903 		bgeu	s2,s8,.L8
 128:C:/Users/stapi/OneDrive/Desktop/GD32VW553/GD32VW55X_Wifi_BLE_SDK/GD32VW55x_RELEASE_V1.0.2/MSDK/app\ping.c ****     }
 285              		.loc 1 128 9 is_stmt 1
 286              	.LVL23:
 131:C:/Users/stapi/OneDrive/Desktop/GD32VW553/GD32VW55X_Wifi_BLE_SDK/GD32VW55x_RELEASE_V1.0.2/MSDK/app\ping.c **** 
 287              		.loc 1 131 5
 131:C:/Users/stapi/OneDrive/Desktop/GD32VW553/GD32VW55X_Wifi_BLE_SDK/GD32VW55x_RELEASE_V1.0.2/MSDK/app\ping.c **** 
 288              		.loc 1 131 5
 131:C:/Users/stapi/OneDrive/Desktop/GD32VW553/GD32VW55X_Wifi_BLE_SDK/GD32VW55x_RELEASE_V1.0.2/MSDK/app\ping.c **** 
 289              		.loc 1 131 5
 131:C:/Users/stapi/OneDrive/Desktop/GD32VW553/GD32VW55X_Wifi_BLE_SDK/GD32VW55x_RELEASE_V1.0.2/MSDK/app\ping.c **** 
 290              		.loc 1 131 5
 291 0114 B7060000 		lui	a3,%hi(.LC3)
 292 0118 B7050000 		lui	a1,%hi(.LC4)
 293 011c 37050000 		lui	a0,%hi(.LC5)
 294 0120 93860600 		addi	a3,a3,%lo(.LC3)
 295 0124 13063008 		li	a2,131
 296 0128 93850500 		addi	a1,a1,%lo(.LC4)
 297 012c 13050500 		addi	a0,a0,%lo(.LC5)
 298 0130 97000000 		call	printf
 298      E7800000 
 299              	.LVL24:
 300              	.L9:
 131:C:/Users/stapi/OneDrive/Desktop/GD32VW553/GD32VW55X_Wifi_BLE_SDK/GD32VW55x_RELEASE_V1.0.2/MSDK/app\ping.c **** 
 301              		.loc 1 131 5
 131:C:/Users/stapi/OneDrive/Desktop/GD32VW553/GD32VW55X_Wifi_BLE_SDK/GD32VW55x_RELEASE_V1.0.2/MSDK/app\ping.c **** 
 302              		.loc 1 131 5
 131:C:/Users/stapi/OneDrive/Desktop/GD32VW553/GD32VW55X_Wifi_BLE_SDK/GD32VW55x_RELEASE_V1.0.2/MSDK/app\ping.c **** 
 303              		.loc 1 131 5
 304 0138 01A0     		j	.L9
 305              	.LVL25:
 306              	.L8:
 131:C:/Users/stapi/OneDrive/Desktop/GD32VW553/GD32VW55X_Wifi_BLE_SDK/GD32VW55x_RELEASE_V1.0.2/MSDK/app\ping.c **** 
 307              		.loc 1 131 5
 131:C:/Users/stapi/OneDrive/Desktop/GD32VW553/GD32VW55X_Wifi_BLE_SDK/GD32VW55x_RELEASE_V1.0.2/MSDK/app\ping.c **** 
 308              		.loc 1 131 5
 133:C:/Users/stapi/OneDrive/Desktop/GD32VW553/GD32VW55X_Wifi_BLE_SDK/GD32VW55x_RELEASE_V1.0.2/MSDK/app\ping.c ****     if (iecho == NULL) {
 309              		.loc 1 133 5
 133:C:/Users/stapi/OneDrive/Desktop/GD32VW553/GD32VW55X_Wifi_BLE_SDK/GD32VW55x_RELEASE_V1.0.2/MSDK/app\ping.c ****     if (iecho == NULL) {
 310              		.loc 1 133 37 is_stmt 0
 311 013a 4E85     		mv	a0,s3
 312 013c 97000000 		call	sys_malloc
 312      E7800000 
 313              	.LVL26:
 314 0144 2A8A     		mv	s4,a0
 315              	.LVL27:
 134:C:/Users/stapi/OneDrive/Desktop/GD32VW553/GD32VW55X_Wifi_BLE_SDK/GD32VW55x_RELEASE_V1.0.2/MSDK/app\ping.c ****         return ERR_MEM;
 316              		.loc 1 134 5 is_stmt 1
 134:C:/Users/stapi/OneDrive/Desktop/GD32VW553/GD32VW55X_Wifi_BLE_SDK/GD32VW55x_RELEASE_V1.0.2/MSDK/app\ping.c ****         return ERR_MEM;
 317              		.loc 1 134 8 is_stmt 0
 318 0146 6300051A 		beq	a0,zero,.L11
 138:C:/Users/stapi/OneDrive/Desktop/GD32VW553/GD32VW55X_Wifi_BLE_SDK/GD32VW55x_RELEASE_V1.0.2/MSDK/app\ping.c **** 
 319              		.loc 1 138 5 is_stmt 1
 320              	.LVL28:
 321              	.LBB22:
 322              	.LBB20:
  87:C:/Users/stapi/OneDrive/Desktop/GD32VW553/GD32VW55X_Wifi_BLE_SDK/GD32VW55x_RELEASE_V1.0.2/MSDK/app\ping.c ****     size_t data_len = len - sizeof(struct icmp_echo_hdr);
 323              		.loc 1 87 5
  88:C:/Users/stapi/OneDrive/Desktop/GD32VW553/GD32VW55X_Wifi_BLE_SDK/GD32VW55x_RELEASE_V1.0.2/MSDK/app\ping.c **** 
 324              		.loc 1 88 5
  95:C:/Users/stapi/OneDrive/Desktop/GD32VW553/GD32VW55X_Wifi_BLE_SDK/GD32VW55x_RELEASE_V1.0.2/MSDK/app\ping.c **** 
 325              		.loc 1 95 9
 326 014a A147     		li	a5,8
 327 014c 2300F500 		sb	a5,0(a0)
  97:C:/Users/stapi/OneDrive/Desktop/GD32VW553/GD32VW55X_Wifi_BLE_SDK/GD32VW55x_RELEASE_V1.0.2/MSDK/app\ping.c ****     iecho->chksum = 0;
 328              		.loc 1 97 5
 329 0150 A3000500 		sb	zero,1(a0)
  98:C:/Users/stapi/OneDrive/Desktop/GD32VW553/GD32VW55X_Wifi_BLE_SDK/GD32VW55x_RELEASE_V1.0.2/MSDK/app\ping.c ****     iecho->id     = PING_ID;
 330              		.loc 1 98 5
  99:C:/Users/stapi/OneDrive/Desktop/GD32VW553/GD32VW55X_Wifi_BLE_SDK/GD32VW55x_RELEASE_V1.0.2/MSDK/app\ping.c ****     iecho->seqno  = htons(++ping_info->ping_seq_num);
 331              		.loc 1 99 19 is_stmt 0
 332 0154 9307F0FA 		li	a5,-81
 333 0158 2302F500 		sb	a5,4(a0)
 334 015c A302F500 		sb	a5,5(a0)
  98:C:/Users/stapi/OneDrive/Desktop/GD32VW553/GD32VW55X_Wifi_BLE_SDK/GD32VW55x_RELEASE_V1.0.2/MSDK/app\ping.c ****     iecho->id     = PING_ID;
 335              		.loc 1 98 19
 336 0160 23010500 		sb	zero,2(a0)
 337 0164 A3010500 		sb	zero,3(a0)
  99:C:/Users/stapi/OneDrive/Desktop/GD32VW553/GD32VW55X_Wifi_BLE_SDK/GD32VW55x_RELEASE_V1.0.2/MSDK/app\ping.c ****     iecho->seqno  = htons(++ping_info->ping_seq_num);
 338              		.loc 1 99 5 is_stmt 1
 100:C:/Users/stapi/OneDrive/Desktop/GD32VW553/GD32VW55X_Wifi_BLE_SDK/GD32VW55x_RELEASE_V1.0.2/MSDK/app\ping.c **** 
 339              		.loc 1 100 5
 100:C:/Users/stapi/OneDrive/Desktop/GD32VW553/GD32VW55X_Wifi_BLE_SDK/GD32VW55x_RELEASE_V1.0.2/MSDK/app\ping.c **** 
 340              		.loc 1 100 21 is_stmt 0
 341 0168 03D5CB01 		lhu	a0,28(s7)
 342              	.LVL29:
 343 016c 0505     		addi	a0,a0,1
 344 016e 33450508 		zext.h	a0,a0
 100:C:/Users/stapi/OneDrive/Desktop/GD32VW553/GD32VW55X_Wifi_BLE_SDK/GD32VW55x_RELEASE_V1.0.2/MSDK/app\ping.c **** 
 345              		.loc 1 100 19
 346 0172 239EAB00 		sh	a0,28(s7)
 100:C:/Users/stapi/OneDrive/Desktop/GD32VW553/GD32VW55X_Wifi_BLE_SDK/GD32VW55x_RELEASE_V1.0.2/MSDK/app\ping.c **** 
 347              		.loc 1 100 21
 348 0176 97000000 		call	lwip_htons
 348      E7800000 
 349              	.LVL30:
 100:C:/Users/stapi/OneDrive/Desktop/GD32VW553/GD32VW55X_Wifi_BLE_SDK/GD32VW55x_RELEASE_V1.0.2/MSDK/app\ping.c **** 
 350              		.loc 1 100 19
 351 017e 2303AA00 		sb	a0,6(s4)
 352 0182 2181     		srli	a0,a0,8
 353 0184 A303AA00 		sb	a0,7(s4)
 103:C:/Users/stapi/OneDrive/Desktop/GD32VW553/GD32VW55X_Wifi_BLE_SDK/GD32VW55x_RELEASE_V1.0.2/MSDK/app\ping.c ****         ((char*)iecho)[sizeof(struct icmp_echo_hdr) + i] = (char)i;
 354              		.loc 1 103 5 is_stmt 1
 355              	.LVL31:
 103:C:/Users/stapi/OneDrive/Desktop/GD32VW553/GD32VW55X_Wifi_BLE_SDK/GD32VW55x_RELEASE_V1.0.2/MSDK/app\ping.c ****         ((char*)iecho)[sizeof(struct icmp_echo_hdr) + i] = (char)i;
 356              		.loc 1 103 11 is_stmt 0
 357 0188 8147     		li	a5,0
 358              	.LVL32:
 359              	.L12:
 103:C:/Users/stapi/OneDrive/Desktop/GD32VW553/GD32VW55X_Wifi_BLE_SDK/GD32VW55x_RELEASE_V1.0.2/MSDK/app\ping.c ****         ((char*)iecho)[sizeof(struct icmp_echo_hdr) + i] = (char)i;
 360              		.loc 1 103 16 is_stmt 1
 103:C:/Users/stapi/OneDrive/Desktop/GD32VW553/GD32VW55X_Wifi_BLE_SDK/GD32VW55x_RELEASE_V1.0.2/MSDK/app\ping.c ****         ((char*)iecho)[sizeof(struct icmp_echo_hdr) + i] = (char)i;
 361              		.loc 1 103 5 is_stmt 0
 362 018a 3247     		lw	a4,12(sp)
 363 018c 63E7E716 		bgtu	a4,a5,.L13
 110:C:/Users/stapi/OneDrive/Desktop/GD32VW553/GD32VW55X_Wifi_BLE_SDK/GD32VW55x_RELEASE_V1.0.2/MSDK/app\ping.c **** }
 364              		.loc 1 110 9 is_stmt 1
 110:C:/Users/stapi/OneDrive/Desktop/GD32VW553/GD32VW55X_Wifi_BLE_SDK/GD32VW55x_RELEASE_V1.0.2/MSDK/app\ping.c **** }
 365              		.loc 1 110 25 is_stmt 0
 366 0190 A245     		lw	a1,8(sp)
 367 0192 5285     		mv	a0,s4
 368 0194 97000000 		call	inet_chksum
 368      E7800000 
 369              	.LVL33:
 110:C:/Users/stapi/OneDrive/Desktop/GD32VW553/GD32VW55X_Wifi_BLE_SDK/GD32VW55x_RELEASE_V1.0.2/MSDK/app\ping.c **** }
 370              		.loc 1 110 23
 371 019c 2301AA00 		sb	a0,2(s4)
 372 01a0 2181     		srli	a0,a0,8
 373 01a2 A301AA00 		sb	a0,3(s4)
 374              	.LVL34:
 375              	.LBE20:
 376              	.LBE22:
 154:C:/Users/stapi/OneDrive/Desktop/GD32VW553/GD32VW55X_Wifi_BLE_SDK/GD32VW55x_RELEASE_V1.0.2/MSDK/app\ping.c ****     to.sin_family = AF_INET;
 377              		.loc 1 154 5 is_stmt 1
 155:C:/Users/stapi/OneDrive/Desktop/GD32VW553/GD32VW55X_Wifi_BLE_SDK/GD32VW55x_RELEASE_V1.0.2/MSDK/app\ping.c ****     to.sin_addr.s_addr = addr->addr;
 378              		.loc 1 155 5
 154:C:/Users/stapi/OneDrive/Desktop/GD32VW553/GD32VW55X_Wifi_BLE_SDK/GD32VW55x_RELEASE_V1.0.2/MSDK/app\ping.c ****     to.sin_family = AF_INET;
 379              		.loc 1 154 16 is_stmt 0
 380 01a6 93070021 		li	a5,528
 381 01aa 2318F102 		sh	a5,48(sp)
 156:C:/Users/stapi/OneDrive/Desktop/GD32VW553/GD32VW55X_Wifi_BLE_SDK/GD32VW55x_RELEASE_V1.0.2/MSDK/app\ping.c ****     err = lwip_sendto(s, iecho, ping_size, 0, (struct sockaddr*)&to, sizeof(to));
 382              		.loc 1 156 5 is_stmt 1
 156:C:/Users/stapi/OneDrive/Desktop/GD32VW553/GD32VW55X_Wifi_BLE_SDK/GD32VW55x_RELEASE_V1.0.2/MSDK/app\ping.c ****     err = lwip_sendto(s, iecho, ping_size, 0, (struct sockaddr*)&to, sizeof(to));
 383              		.loc 1 156 24 is_stmt 0
 384 01ae A257     		lw	a5,40(sp)
 157:C:/Users/stapi/OneDrive/Desktop/GD32VW553/GD32VW55X_Wifi_BLE_SDK/GD32VW55x_RELEASE_V1.0.2/MSDK/app\ping.c **** #endif
 385              		.loc 1 157 11
 386 01b0 1818     		addi	a4,sp,48
 387 01b2 8146     		li	a3,0
 156:C:/Users/stapi/OneDrive/Desktop/GD32VW553/GD32VW55X_Wifi_BLE_SDK/GD32VW55x_RELEASE_V1.0.2/MSDK/app\ping.c ****     err = lwip_sendto(s, iecho, ping_size, 0, (struct sockaddr*)&to, sizeof(to));
 388              		.loc 1 156 24
 389 01b4 3EDA     		sw	a5,52(sp)
 157:C:/Users/stapi/OneDrive/Desktop/GD32VW553/GD32VW55X_Wifi_BLE_SDK/GD32VW55x_RELEASE_V1.0.2/MSDK/app\ping.c **** #endif
 390              		.loc 1 157 5 is_stmt 1
 157:C:/Users/stapi/OneDrive/Desktop/GD32VW553/GD32VW55X_Wifi_BLE_SDK/GD32VW55x_RELEASE_V1.0.2/MSDK/app\ping.c **** #endif
 391              		.loc 1 157 11 is_stmt 0
 392 01b6 4E86     		mv	a2,s3
 393 01b8 C147     		li	a5,16
 394 01ba D285     		mv	a1,s4
 395 01bc 2685     		mv	a0,s1
 396 01be 97000000 		call	lwip_sendto
 396      E7800000 
 397              	.LVL35:
 398 01c6 AA8A     		mv	s5,a0
 399              	.LVL36:
 160:C:/Users/stapi/OneDrive/Desktop/GD32VW553/GD32VW55X_Wifi_BLE_SDK/GD32VW55x_RELEASE_V1.0.2/MSDK/app\ping.c **** 
 400              		.loc 1 160 5 is_stmt 1
 401 01c8 5285     		mv	a0,s4
 402              	.LVL37:
 403 01ca 97000000 		call	sys_mfree
 403      E7800000 
 404              	.LVL38:
 162:C:/Users/stapi/OneDrive/Desktop/GD32VW553/GD32VW55X_Wifi_BLE_SDK/GD32VW55x_RELEASE_V1.0.2/MSDK/app\ping.c **** }
 405              		.loc 1 162 5
 162:C:/Users/stapi/OneDrive/Desktop/GD32VW553/GD32VW55X_Wifi_BLE_SDK/GD32VW55x_RELEASE_V1.0.2/MSDK/app\ping.c **** }
 406              		.loc 1 162 26 is_stmt 0
 407 01d2 638A0A10 		beq	s5,zero,.L11
 408              	.LVL39:
 409              	.LBE26:
 410              	.LBE45:
 378:C:/Users/stapi/OneDrive/Desktop/GD32VW553/GD32VW55X_Wifi_BLE_SDK/GD32VW55x_RELEASE_V1.0.2/MSDK/app\ping.c ****             ping_recv(ping_info, s);
 411              		.loc 1 378 13 is_stmt 1
 412              	.LBB46:
 413              	.LBB47:
  81:C:/Users/stapi/OneDrive/Desktop/GD32VW553/GD32VW55X_Wifi_BLE_SDK/GD32VW55x_RELEASE_V1.0.2/MSDK/app\ping.c **** }
 414              		.loc 1 81 5
  81:C:/Users/stapi/OneDrive/Desktop/GD32VW553/GD32VW55X_Wifi_BLE_SDK/GD32VW55x_RELEASE_V1.0.2/MSDK/app\ping.c **** }
 415              		.loc 1 81 13 is_stmt 0
 416 01d6 0145     		li	a0,0
 417 01d8 97000000 		call	sys_os_now
 417      E7800000 
 418              	.LVL40:
 419              	.LBE47:
 420              	.LBE46:
 421              	.LBB48:
 422              	.LBB39:
 200:C:/Users/stapi/OneDrive/Desktop/GD32VW553/GD32VW55X_Wifi_BLE_SDK/GD32VW55x_RELEASE_V1.0.2/MSDK/app\ping.c ****         recv_size = (ping_info->ping_size + sizeof(struct icmp_echo_hdr) + ip_hdr_len);
 423              		.loc 1 200 62
 424 01e0 83AA4B01 		lw	s5,20(s7)
 197:C:/Users/stapi/OneDrive/Desktop/GD32VW553/GD32VW55X_Wifi_BLE_SDK/GD32VW55x_RELEASE_V1.0.2/MSDK/app\ping.c ****     }
 425              		.loc 1 197 17
 426 01e4 C147     		li	a5,16
 427              	.LBE39:
 428              	.LBE48:
 378:C:/Users/stapi/OneDrive/Desktop/GD32VW553/GD32VW55X_Wifi_BLE_SDK/GD32VW55x_RELEASE_V1.0.2/MSDK/app\ping.c ****             ping_recv(ping_info, s);
 429              		.loc 1 378 34
 430 01e6 23A4AB02 		sw	a0,40(s7)
 379:C:/Users/stapi/OneDrive/Desktop/GD32VW553/GD32VW55X_Wifi_BLE_SDK/GD32VW55x_RELEASE_V1.0.2/MSDK/app\ping.c **** 
 431              		.loc 1 379 13 is_stmt 1
 432              	.LVL41:
 433              	.LBB49:
 434              	.LBB40:
 167:C:/Users/stapi/OneDrive/Desktop/GD32VW553/GD32VW55X_Wifi_BLE_SDK/GD32VW55x_RELEASE_V1.0.2/MSDK/app\ping.c ****     int len;
 435              		.loc 1 167 5
 168:C:/Users/stapi/OneDrive/Desktop/GD32VW553/GD32VW55X_Wifi_BLE_SDK/GD32VW55x_RELEASE_V1.0.2/MSDK/app\ping.c ****     struct sockaddr *from;
 436              		.loc 1 168 5
 169:C:/Users/stapi/OneDrive/Desktop/GD32VW553/GD32VW55X_Wifi_BLE_SDK/GD32VW55x_RELEASE_V1.0.2/MSDK/app\ping.c ****     struct sockaddr_in from_ip4;
 437              		.loc 1 169 5
 170:C:/Users/stapi/OneDrive/Desktop/GD32VW553/GD32VW55X_Wifi_BLE_SDK/GD32VW55x_RELEASE_V1.0.2/MSDK/app\ping.c **** #if LWIP_IPV6
 438              		.loc 1 170 5
 175:C:/Users/stapi/OneDrive/Desktop/GD32VW553/GD32VW55X_Wifi_BLE_SDK/GD32VW55x_RELEASE_V1.0.2/MSDK/app\ping.c ****     struct icmp_echo_hdr *iecho;
 439              		.loc 1 175 5
 176:C:/Users/stapi/OneDrive/Desktop/GD32VW553/GD32VW55X_Wifi_BLE_SDK/GD32VW55x_RELEASE_V1.0.2/MSDK/app\ping.c ****     uint32_t ip_hdr_len;
 440              		.loc 1 176 5
 177:C:/Users/stapi/OneDrive/Desktop/GD32VW553/GD32VW55X_Wifi_BLE_SDK/GD32VW55x_RELEASE_V1.0.2/MSDK/app\ping.c ****     uint32_t fromlen;
 441              		.loc 1 177 5
 178:C:/Users/stapi/OneDrive/Desktop/GD32VW553/GD32VW55X_Wifi_BLE_SDK/GD32VW55x_RELEASE_V1.0.2/MSDK/app\ping.c ****     uint32_t delay;
 442              		.loc 1 178 5
 179:C:/Users/stapi/OneDrive/Desktop/GD32VW553/GD32VW55X_Wifi_BLE_SDK/GD32VW55x_RELEASE_V1.0.2/MSDK/app\ping.c ****     //struct _ip_addr *addr;
 443              		.loc 1 179 5
 182:C:/Users/stapi/OneDrive/Desktop/GD32VW553/GD32VW55X_Wifi_BLE_SDK/GD32VW55x_RELEASE_V1.0.2/MSDK/app\ping.c ****     uint32_t recv_size;
 444              		.loc 1 182 5
 183:C:/Users/stapi/OneDrive/Desktop/GD32VW553/GD32VW55X_Wifi_BLE_SDK/GD32VW55x_RELEASE_V1.0.2/MSDK/app\ping.c **** 
 445              		.loc 1 183 5
 195:C:/Users/stapi/OneDrive/Desktop/GD32VW553/GD32VW55X_Wifi_BLE_SDK/GD32VW55x_RELEASE_V1.0.2/MSDK/app\ping.c ****         from = (struct sockaddr*)&from_ip4;
 446              		.loc 1 195 9
 196:C:/Users/stapi/OneDrive/Desktop/GD32VW553/GD32VW55X_Wifi_BLE_SDK/GD32VW55x_RELEASE_V1.0.2/MSDK/app\ping.c ****         fromlen = sizeof(struct sockaddr);
 447              		.loc 1 196 9
 197:C:/Users/stapi/OneDrive/Desktop/GD32VW553/GD32VW55X_Wifi_BLE_SDK/GD32VW55x_RELEASE_V1.0.2/MSDK/app\ping.c ****     }
 448              		.loc 1 197 9
 197:C:/Users/stapi/OneDrive/Desktop/GD32VW553/GD32VW55X_Wifi_BLE_SDK/GD32VW55x_RELEASE_V1.0.2/MSDK/app\ping.c ****     }
 449              		.loc 1 197 17 is_stmt 0
 450 01ea 3ED6     		sw	a5,44(sp)
 200:C:/Users/stapi/OneDrive/Desktop/GD32VW553/GD32VW55X_Wifi_BLE_SDK/GD32VW55x_RELEASE_V1.0.2/MSDK/app\ping.c ****         recv_size = (ping_info->ping_size + sizeof(struct icmp_echo_hdr) + ip_hdr_len);
 451              		.loc 1 200 5 is_stmt 1
 200:C:/Users/stapi/OneDrive/Desktop/GD32VW553/GD32VW55X_Wifi_BLE_SDK/GD32VW55x_RELEASE_V1.0.2/MSDK/app\ping.c ****         recv_size = (ping_info->ping_size + sizeof(struct icmp_echo_hdr) + ip_hdr_len);
 452              		.loc 1 200 62 is_stmt 0
 453 01ec F10A     		addi	s5,s5,28
 454 01ee 9307C05D 		li	a5,1500
 455              	.LBB30:
 456              	.LBB31:
  81:C:/Users/stapi/OneDrive/Desktop/GD32VW553/GD32VW55X_Wifi_BLE_SDK/GD32VW55x_RELEASE_V1.0.2/MSDK/app\ping.c **** }
 457              		.loc 1 81 13
 458 01f2 0145     		li	a0,0
 459 01f4 B3FAFA0A 		maxu	s5,s5,a5
 460              	.LVL42:
 461              	.LBE31:
 462              	.LBE30:
 204:C:/Users/stapi/OneDrive/Desktop/GD32VW553/GD32VW55X_Wifi_BLE_SDK/GD32VW55x_RELEASE_V1.0.2/MSDK/app\ping.c **** 
 463              		.loc 1 204 5 is_stmt 1
 464              	.LBB33:
 465              	.LBB32:
  81:C:/Users/stapi/OneDrive/Desktop/GD32VW553/GD32VW55X_Wifi_BLE_SDK/GD32VW55x_RELEASE_V1.0.2/MSDK/app\ping.c **** }
 466              		.loc 1 81 5
  81:C:/Users/stapi/OneDrive/Desktop/GD32VW553/GD32VW55X_Wifi_BLE_SDK/GD32VW55x_RELEASE_V1.0.2/MSDK/app\ping.c **** }
 467              		.loc 1 81 13 is_stmt 0
 468 01f8 97000000 		call	sys_os_now
 468      E7800000 
 469              	.LVL43:
 470 0200 2AC8     		sw	a0,16(sp)
 471              	.LVL44:
 472              	.LBE32:
 473              	.LBE33:
 206:C:/Users/stapi/OneDrive/Desktop/GD32VW553/GD32VW55X_Wifi_BLE_SDK/GD32VW55x_RELEASE_V1.0.2/MSDK/app\ping.c ****         if (len >= (ip_hdr_len + sizeof(struct icmp_echo_hdr))) {
 474              		.loc 1 206 5 is_stmt 1
 207:C:/Users/stapi/OneDrive/Desktop/GD32VW553/GD32VW55X_Wifi_BLE_SDK/GD32VW55x_RELEASE_V1.0.2/MSDK/app\ping.c ****             //addr = (struct _ip_addr *)&(from.sin_addr);
 475              		.loc 1 207 12 is_stmt 0
 476 0202 6D4D     		li	s10,27
 252:C:/Users/stapi/OneDrive/Desktop/GD32VW553/GD32VW55X_Wifi_BLE_SDK/GD32VW55x_RELEASE_V1.0.2/MSDK/app\ping.c ****                     // app_print("my_time_get() %d\n\r", my_time_get());
 477              		.loc 1 252 20
 478 0204 930D007D 		li	s11,2000
 479              	.LVL45:
 480              	.L16:
 273:C:/Users/stapi/OneDrive/Desktop/GD32VW553/GD32VW55X_Wifi_BLE_SDK/GD32VW55x_RELEASE_V1.0.2/MSDK/app\ping.c ****         }
 481              		.loc 1 273 13 is_stmt 1
 206:C:/Users/stapi/OneDrive/Desktop/GD32VW553/GD32VW55X_Wifi_BLE_SDK/GD32VW55x_RELEASE_V1.0.2/MSDK/app\ping.c ****         if (len >= (ip_hdr_len + sizeof(struct icmp_echo_hdr))) {
 482              		.loc 1 206 11
 206:C:/Users/stapi/OneDrive/Desktop/GD32VW553/GD32VW55X_Wifi_BLE_SDK/GD32VW55x_RELEASE_V1.0.2/MSDK/app\ping.c ****         if (len >= (ip_hdr_len + sizeof(struct icmp_echo_hdr))) {
 483              		.loc 1 206 19 is_stmt 0
 484 0208 83A50B03 		lw	a1,48(s7)
 485 020c 7C10     		addi	a5,sp,44
 486 020e 1818     		addi	a4,sp,48
 487              	.LVL46:
 488 0210 8146     		li	a3,0
 489 0212 5686     		mv	a2,s5
 490 0214 2685     		mv	a0,s1
 491 0216 97000000 		call	lwip_recvfrom
 491      E7800000 
 492              	.LVL47:
 493 021e 2A8A     		mv	s4,a0
 494              	.LVL48:
 206:C:/Users/stapi/OneDrive/Desktop/GD32VW553/GD32VW55X_Wifi_BLE_SDK/GD32VW55x_RELEASE_V1.0.2/MSDK/app\ping.c ****         if (len >= (ip_hdr_len + sizeof(struct icmp_echo_hdr))) {
 495              		.loc 1 206 11
 496 0220 635CA00E 		ble	a0,zero,.L20
 207:C:/Users/stapi/OneDrive/Desktop/GD32VW553/GD32VW55X_Wifi_BLE_SDK/GD32VW55x_RELEASE_V1.0.2/MSDK/app\ping.c ****             //addr = (struct _ip_addr *)&(from.sin_addr);
 497              		.loc 1 207 9 is_stmt 1
 207:C:/Users/stapi/OneDrive/Desktop/GD32VW553/GD32VW55X_Wifi_BLE_SDK/GD32VW55x_RELEASE_V1.0.2/MSDK/app\ping.c ****             //addr = (struct _ip_addr *)&(from.sin_addr);
 498              		.loc 1 207 12 is_stmt 0
 499 0224 E3524DFF 		ble	s4,s10,.L16
 211:C:/Users/stapi/OneDrive/Desktop/GD32VW553/GD32VW55X_Wifi_BLE_SDK/GD32VW55x_RELEASE_V1.0.2/MSDK/app\ping.c ****             delay = reply_time - ping_info->ping_time;
 500              		.loc 1 211 13 is_stmt 1
 501              	.LBB34:
 502              	.LBB35:
  81:C:/Users/stapi/OneDrive/Desktop/GD32VW553/GD32VW55X_Wifi_BLE_SDK/GD32VW55x_RELEASE_V1.0.2/MSDK/app\ping.c **** }
 503              		.loc 1 81 5
  81:C:/Users/stapi/OneDrive/Desktop/GD32VW553/GD32VW55X_Wifi_BLE_SDK/GD32VW55x_RELEASE_V1.0.2/MSDK/app\ping.c **** }
 504              		.loc 1 81 13 is_stmt 0
 505 0228 0145     		li	a0,0
 506              	.LVL49:
 507 022a 97000000 		call	sys_os_now
 507      E7800000 
 508              	.LVL50:
 509              	.LBE35:
 510              	.LBE34:
 212:C:/Users/stapi/OneDrive/Desktop/GD32VW553/GD32VW55X_Wifi_BLE_SDK/GD32VW55x_RELEASE_V1.0.2/MSDK/app\ping.c **** 
 511              		.loc 1 212 13 is_stmt 1
 220:C:/Users/stapi/OneDrive/Desktop/GD32VW553/GD32VW55X_Wifi_BLE_SDK/GD32VW55x_RELEASE_V1.0.2/MSDK/app\ping.c ****                 iecho = (struct icmp_echo_hdr *)(ping_info->reply_buf+(IPH_HL(iphdr) * 4));
 512              		.loc 1 220 17
 220:C:/Users/stapi/OneDrive/Desktop/GD32VW553/GD32VW55X_Wifi_BLE_SDK/GD32VW55x_RELEASE_V1.0.2/MSDK/app\ping.c ****                 iecho = (struct icmp_echo_hdr *)(ping_info->reply_buf+(IPH_HL(iphdr) * 4));
 513              		.loc 1 220 23 is_stmt 0
 514 0232 03A70B03 		lw	a4,48(s7)
 515              	.LVL51:
 221:C:/Users/stapi/OneDrive/Desktop/GD32VW553/GD32VW55X_Wifi_BLE_SDK/GD32VW55x_RELEASE_V1.0.2/MSDK/app\ping.c ****             }
 516              		.loc 1 221 17 is_stmt 1
 221:C:/Users/stapi/OneDrive/Desktop/GD32VW553/GD32VW55X_Wifi_BLE_SDK/GD32VW55x_RELEASE_V1.0.2/MSDK/app\ping.c ****             }
 517              		.loc 1 221 72 is_stmt 0
 518 0236 83470700 		lbu	a5,0(a4)
 519 023a BD8B     		andi	a5,a5,15
 221:C:/Users/stapi/OneDrive/Desktop/GD32VW553/GD32VW55X_Wifi_BLE_SDK/GD32VW55x_RELEASE_V1.0.2/MSDK/app\ping.c ****             }
 520              		.loc 1 221 23
 521 023c B3CCE720 		sh2add	s9,a5,a4
 522              	.LVL52:
 224:C:/Users/stapi/OneDrive/Desktop/GD32VW553/GD32VW55X_Wifi_BLE_SDK/GD32VW55x_RELEASE_V1.0.2/MSDK/app\ping.c **** #ifdef CONFIG_ATCMD
 523              		.loc 1 224 13 is_stmt 1
 224:C:/Users/stapi/OneDrive/Desktop/GD32VW553/GD32VW55X_Wifi_BLE_SDK/GD32VW55x_RELEASE_V1.0.2/MSDK/app\ping.c **** #ifdef CONFIG_ATCMD
 524              		.loc 1 224 23 is_stmt 0
 525 0240 03C75C00 		lbu	a4,5(s9)
 526              	.LVL53:
 527 0244 03C64C00 		lbu	a2,4(s9)
 528 0248 2207     		slli	a4,a4,8
 224:C:/Users/stapi/OneDrive/Desktop/GD32VW553/GD32VW55X_Wifi_BLE_SDK/GD32VW55x_RELEASE_V1.0.2/MSDK/app\ping.c **** #ifdef CONFIG_ATCMD
 529              		.loc 1 224 16
 530 024a 518F     		or	a4,a4,a2
 531 024c 631D670B 		bne	a4,s6,.L17
 212:C:/Users/stapi/OneDrive/Desktop/GD32VW553/GD32VW55X_Wifi_BLE_SDK/GD32VW55x_RELEASE_V1.0.2/MSDK/app\ping.c **** 
 532              		.loc 1 212 43
 533 0250 03A68B02 		lw	a2,40(s7)
 534 0254 2ACE     		sw	a0,28(sp)
 224:C:/Users/stapi/OneDrive/Desktop/GD32VW553/GD32VW55X_Wifi_BLE_SDK/GD32VW55x_RELEASE_V1.0.2/MSDK/app\ping.c **** #ifdef CONFIG_ATCMD
 535              		.loc 1 224 60
 536 0256 03D5CB01 		lhu	a0,28(s7)
 537              	.LVL54:
 212:C:/Users/stapi/OneDrive/Desktop/GD32VW553/GD32VW55X_Wifi_BLE_SDK/GD32VW55x_RELEASE_V1.0.2/MSDK/app\ping.c **** 
 538              		.loc 1 212 43
 539 025a 32CC     		sw	a2,24(sp)
 224:C:/Users/stapi/OneDrive/Desktop/GD32VW553/GD32VW55X_Wifi_BLE_SDK/GD32VW55x_RELEASE_V1.0.2/MSDK/app\ping.c **** #ifdef CONFIG_ATCMD
 540              		.loc 1 224 49
 541 025c 03C77C00 		lbu	a4,7(s9)
 542 0260 83C56C00 		lbu	a1,6(s9)
 543 0264 2207     		slli	a4,a4,8
 544 0266 4D8F     		or	a4,a4,a1
 545 0268 3ACA     		sw	a4,20(sp)
 224:C:/Users/stapi/OneDrive/Desktop/GD32VW553/GD32VW55X_Wifi_BLE_SDK/GD32VW55x_RELEASE_V1.0.2/MSDK/app\ping.c **** #ifdef CONFIG_ATCMD
 546              		.loc 1 224 60
 547 026a 97000000 		call	lwip_htons
 547      E7800000 
 548              	.LVL55:
 224:C:/Users/stapi/OneDrive/Desktop/GD32VW553/GD32VW55X_Wifi_BLE_SDK/GD32VW55x_RELEASE_V1.0.2/MSDK/app\ping.c **** #ifdef CONFIG_ATCMD
 549              		.loc 1 224 40
 550 0272 5247     		lw	a4,20(sp)
 551 0274 6246     		lw	a2,24(sp)
 552 0276 F246     		lw	a3,28(sp)
 553 0278 6317A708 		bne	a4,a0,.L17
 241:C:/Users/stapi/OneDrive/Desktop/GD32VW553/GD32VW55X_Wifi_BLE_SDK/GD32VW55x_RELEASE_V1.0.2/MSDK/app\ping.c ****                             len - sizeof(struct ip_hdr) - sizeof(struct icmp_echo_hdr), inet_ntoa(f
 554              		.loc 1 241 25
 555 027c 4818     		addi	a0,sp,52
 212:C:/Users/stapi/OneDrive/Desktop/GD32VW553/GD32VW55X_Wifi_BLE_SDK/GD32VW55x_RELEASE_V1.0.2/MSDK/app\ping.c **** 
 556              		.loc 1 212 19
 557 027e B38AC640 		sub	s5,a3,a2
 558              	.LVL56:
 241:C:/Users/stapi/OneDrive/Desktop/GD32VW553/GD32VW55X_Wifi_BLE_SDK/GD32VW55x_RELEASE_V1.0.2/MSDK/app\ping.c ****                             len - sizeof(struct ip_hdr) - sizeof(struct icmp_echo_hdr), inet_ntoa(f
 559              		.loc 1 241 25 is_stmt 1
 560 0282 97000000 		call	ip4addr_ntoa
 560      E7800000 
 561              	.LVL57:
 562 028a 2AC8     		sw	a0,16(sp)
 563              	.LVL58:
 564 028c 83C77C00 		lbu	a5,7(s9)
 565 0290 03C56C00 		lbu	a0,6(s9)
 566 0294 A207     		slli	a5,a5,8
 567 0296 5D8D     		or	a0,a5,a0
 568 0298 97000000 		call	lwip_htons
 568      E7800000 
 569              	.LVL59:
 570 02a0 4246     		lw	a2,16(sp)
 571 02a2 AA86     		mv	a3,a0
 572 02a4 37050000 		lui	a0,%hi(.LC6)
 573 02a8 5687     		mv	a4,s5
 574 02aa 93054AFE 		addi	a1,s4,-28
 575 02ae 13050500 		addi	a0,a0,%lo(.LC6)
 576 02b2 97000000 		call	co_printf
 576      E7800000 
 577              	.LVL60:
 246:C:/Users/stapi/OneDrive/Desktop/GD32VW553/GD32VW55X_Wifi_BLE_SDK/GD32VW55x_RELEASE_V1.0.2/MSDK/app\ping.c ****                 if (delay > ping_info->ping_max_delay) ping_info->ping_max_delay = delay;
 578              		.loc 1 246 17
 246:C:/Users/stapi/OneDrive/Desktop/GD32VW553/GD32VW55X_Wifi_BLE_SDK/GD32VW55x_RELEASE_V1.0.2/MSDK/app\ping.c ****                 if (delay > ping_info->ping_max_delay) ping_info->ping_max_delay = delay;
 579              		.loc 1 246 43 is_stmt 0
 580 02ba 83A7CB02 		lw	a5,44(s7)
 581 02be 8507     		addi	a5,a5,1
 582 02c0 23A6FB02 		sw	a5,44(s7)
 247:C:/Users/stapi/OneDrive/Desktop/GD32VW553/GD32VW55X_Wifi_BLE_SDK/GD32VW55x_RELEASE_V1.0.2/MSDK/app\ping.c ****                 if (delay < ping_info->ping_min_delay) ping_info->ping_min_delay = delay;
 583              		.loc 1 247 17 is_stmt 1
 247:C:/Users/stapi/OneDrive/Desktop/GD32VW553/GD32VW55X_Wifi_BLE_SDK/GD32VW55x_RELEASE_V1.0.2/MSDK/app\ping.c ****                 if (delay < ping_info->ping_min_delay) ping_info->ping_min_delay = delay;
 584              		.loc 1 247 38 is_stmt 0
 585 02c4 83D7EB01 		lhu	a5,30(s7)
 247:C:/Users/stapi/OneDrive/Desktop/GD32VW553/GD32VW55X_Wifi_BLE_SDK/GD32VW55x_RELEASE_V1.0.2/MSDK/app\ping.c ****                 if (delay < ping_info->ping_min_delay) ping_info->ping_min_delay = delay;
 586              		.loc 1 247 20
 587 02c8 63F45701 		bleu	s5,a5,.L18
 247:C:/Users/stapi/OneDrive/Desktop/GD32VW553/GD32VW55X_Wifi_BLE_SDK/GD32VW55x_RELEASE_V1.0.2/MSDK/app\ping.c ****                 if (delay < ping_info->ping_min_delay) ping_info->ping_min_delay = delay;
 588              		.loc 1 247 56 is_stmt 1
 247:C:/Users/stapi/OneDrive/Desktop/GD32VW553/GD32VW55X_Wifi_BLE_SDK/GD32VW55x_RELEASE_V1.0.2/MSDK/app\ping.c ****                 if (delay < ping_info->ping_min_delay) ping_info->ping_min_delay = delay;
 589              		.loc 1 247 82 is_stmt 0
 590 02cc 239F5B01 		sh	s5,30(s7)
 591              	.L18:
 248:C:/Users/stapi/OneDrive/Desktop/GD32VW553/GD32VW55X_Wifi_BLE_SDK/GD32VW55x_RELEASE_V1.0.2/MSDK/app\ping.c ****                 ping_info->ping_avg_delay += delay;
 592              		.loc 1 248 17 is_stmt 1
 248:C:/Users/stapi/OneDrive/Desktop/GD32VW553/GD32VW55X_Wifi_BLE_SDK/GD32VW55x_RELEASE_V1.0.2/MSDK/app\ping.c ****                 ping_info->ping_avg_delay += delay;
 593              		.loc 1 248 38 is_stmt 0
 594 02d0 83D70B02 		lhu	a5,32(s7)
 248:C:/Users/stapi/OneDrive/Desktop/GD32VW553/GD32VW55X_Wifi_BLE_SDK/GD32VW55x_RELEASE_V1.0.2/MSDK/app\ping.c ****                 ping_info->ping_avg_delay += delay;
 595              		.loc 1 248 20
 596 02d4 63F4FA00 		bgeu	s5,a5,.L19
 248:C:/Users/stapi/OneDrive/Desktop/GD32VW553/GD32VW55X_Wifi_BLE_SDK/GD32VW55x_RELEASE_V1.0.2/MSDK/app\ping.c ****                 ping_info->ping_avg_delay += delay;
 597              		.loc 1 248 56 is_stmt 1
 248:C:/Users/stapi/OneDrive/Desktop/GD32VW553/GD32VW55X_Wifi_BLE_SDK/GD32VW55x_RELEASE_V1.0.2/MSDK/app\ping.c ****                 ping_info->ping_avg_delay += delay;
 598              		.loc 1 248 82 is_stmt 0
 599 02d8 23905B03 		sh	s5,32(s7)
 600              	.L19:
 249:C:/Users/stapi/OneDrive/Desktop/GD32VW553/GD32VW55X_Wifi_BLE_SDK/GD32VW55x_RELEASE_V1.0.2/MSDK/app\ping.c ****                 return;
 601              		.loc 1 249 17 is_stmt 1
 249:C:/Users/stapi/OneDrive/Desktop/GD32VW553/GD32VW55X_Wifi_BLE_SDK/GD32VW55x_RELEASE_V1.0.2/MSDK/app\ping.c ****                 return;
 602              		.loc 1 249 43 is_stmt 0
 603 02dc 83A74B02 		lw	a5,36(s7)
 604 02e0 D697     		add	a5,a5,s5
 605 02e2 23A2FB02 		sw	a5,36(s7)
 250:C:/Users/stapi/OneDrive/Desktop/GD32VW553/GD32VW55X_Wifi_BLE_SDK/GD32VW55x_RELEASE_V1.0.2/MSDK/app\ping.c ****             } else {
 606              		.loc 1 250 17 is_stmt 1
 607              	.LVL61:
 608              	.L11:
 609              	.LBE40:
 610              	.LBE49:
 383:C:/Users/stapi/OneDrive/Desktop/GD32VW553/GD32VW55X_Wifi_BLE_SDK/GD32VW55x_RELEASE_V1.0.2/MSDK/app\ping.c ****         if (send_count >= count) break; /* send ping times reached, stop */
 611              		.loc 1 383 9
 384:C:/Users/stapi/OneDrive/Desktop/GD32VW553/GD32VW55X_Wifi_BLE_SDK/GD32VW55x_RELEASE_V1.0.2/MSDK/app\ping.c **** 
 612              		.loc 1 384 12 is_stmt 0
 613 02e6 8247     		lw	a5,0(sp)
 383:C:/Users/stapi/OneDrive/Desktop/GD32VW553/GD32VW55X_Wifi_BLE_SDK/GD32VW55x_RELEASE_V1.0.2/MSDK/app\ping.c ****         if (send_count >= count) break; /* send ping times reached, stop */
 614              		.loc 1 383 20
 615 02e8 0504     		addi	s0,s0,1
 616              	.LVL62:
 384:C:/Users/stapi/OneDrive/Desktop/GD32VW553/GD32VW55X_Wifi_BLE_SDK/GD32VW55x_RELEASE_V1.0.2/MSDK/app\ping.c **** 
 617              		.loc 1 384 9 is_stmt 1
 384:C:/Users/stapi/OneDrive/Desktop/GD32VW553/GD32VW55X_Wifi_BLE_SDK/GD32VW55x_RELEASE_V1.0.2/MSDK/app\ping.c **** 
 618              		.loc 1 384 12 is_stmt 0
 619 02ea 6370F404 		bleu	a5,s0,.L7
 386:C:/Users/stapi/OneDrive/Desktop/GD32VW553/GD32VW55X_Wifi_BLE_SDK/GD32VW55x_RELEASE_V1.0.2/MSDK/app\ping.c ****     }
 620              		.loc 1 386 9 is_stmt 1
 621 02ee 1245     		lw	a0,4(sp)
 622 02f0 97000000 		call	sys_ms_sleep
 622      E7800000 
 623              	.LVL63:
 367:C:/Users/stapi/OneDrive/Desktop/GD32VW553/GD32VW55X_Wifi_BLE_SDK/GD32VW55x_RELEASE_V1.0.2/MSDK/app\ping.c ****         //add for random size ping test
 624              		.loc 1 367 11
 370:C:/Users/stapi/OneDrive/Desktop/GD32VW553/GD32VW55X_Wifi_BLE_SDK/GD32VW55x_RELEASE_V1.0.2/MSDK/app\ping.c ****             break;
 625              		.loc 1 370 12 is_stmt 0
 626 02f8 31B5     		j	.L22
 627              	.LVL64:
 628              	.L13:
 629              	.LBB50:
 630              	.LBB27:
 631              	.LBB23:
 632              	.LBB21:
 104:C:/Users/stapi/OneDrive/Desktop/GD32VW553/GD32VW55X_Wifi_BLE_SDK/GD32VW55x_RELEASE_V1.0.2/MSDK/app\ping.c ****     }
 633              		.loc 1 104 9 is_stmt 1
 104:C:/Users/stapi/OneDrive/Desktop/GD32VW553/GD32VW55X_Wifi_BLE_SDK/GD32VW55x_RELEASE_V1.0.2/MSDK/app\ping.c ****     }
 634              		.loc 1 104 58 is_stmt 0
 635 02fa 3307FA00 		add	a4,s4,a5
 104:C:/Users/stapi/OneDrive/Desktop/GD32VW553/GD32VW55X_Wifi_BLE_SDK/GD32VW55x_RELEASE_V1.0.2/MSDK/app\ping.c ****     }
 636              		.loc 1 104 60
 637 02fe 2304F700 		sb	a5,8(a4)
 103:C:/Users/stapi/OneDrive/Desktop/GD32VW553/GD32VW55X_Wifi_BLE_SDK/GD32VW55x_RELEASE_V1.0.2/MSDK/app\ping.c ****         ((char*)iecho)[sizeof(struct icmp_echo_hdr) + i] = (char)i;
 638              		.loc 1 103 30 is_stmt 1
 103:C:/Users/stapi/OneDrive/Desktop/GD32VW553/GD32VW55X_Wifi_BLE_SDK/GD32VW55x_RELEASE_V1.0.2/MSDK/app\ping.c ****         ((char*)iecho)[sizeof(struct icmp_echo_hdr) + i] = (char)i;
 639              		.loc 1 103 31 is_stmt 0
 640 0302 8507     		addi	a5,a5,1
 641              	.LVL65:
 642 0304 59B5     		j	.L12
 643              	.LVL66:
 644              	.L17:
 645              	.LBE21:
 646              	.LBE23:
 647              	.LBE27:
 648              	.LBE50:
 649              	.LBB51:
 650              	.LBB41:
 252:C:/Users/stapi/OneDrive/Desktop/GD32VW553/GD32VW55X_Wifi_BLE_SDK/GD32VW55x_RELEASE_V1.0.2/MSDK/app\ping.c ****                     // app_print("my_time_get() %d\n\r", my_time_get());
 651              		.loc 1 252 17 is_stmt 1
 652              	.LBB36:
 653              	.LBB37:
  81:C:/Users/stapi/OneDrive/Desktop/GD32VW553/GD32VW55X_Wifi_BLE_SDK/GD32VW55x_RELEASE_V1.0.2/MSDK/app\ping.c **** }
 654              		.loc 1 81 5
  81:C:/Users/stapi/OneDrive/Desktop/GD32VW553/GD32VW55X_Wifi_BLE_SDK/GD32VW55x_RELEASE_V1.0.2/MSDK/app\ping.c **** }
 655              		.loc 1 81 13 is_stmt 0
 656 0306 0145     		li	a0,0
 657 0308 97000000 		call	sys_os_now
 657      E7800000 
 658              	.LVL67:
 659              	.LBE37:
 660              	.LBE36:
 252:C:/Users/stapi/OneDrive/Desktop/GD32VW553/GD32VW55X_Wifi_BLE_SDK/GD32VW55x_RELEASE_V1.0.2/MSDK/app\ping.c ****                     // app_print("my_time_get() %d\n\r", my_time_get());
 661              		.loc 1 252 35
 662 0310 C247     		lw	a5,16(sp)
 663 0312 1D8D     		sub	a0,a0,a5
 252:C:/Users/stapi/OneDrive/Desktop/GD32VW553/GD32VW55X_Wifi_BLE_SDK/GD32VW55x_RELEASE_V1.0.2/MSDK/app\ping.c ****                     // app_print("my_time_get() %d\n\r", my_time_get());
 664              		.loc 1 252 20
 665 0314 E3FAADEE 		bleu	a0,s11,.L16
 666              	.LVL68:
 667              	.L20:
 277:C:/Users/stapi/OneDrive/Desktop/GD32VW553/GD32VW55X_Wifi_BLE_SDK/GD32VW55x_RELEASE_V1.0.2/MSDK/app\ping.c **** #ifdef CONFIG_ATCMD
 668              		.loc 1 277 5 is_stmt 1
 285:C:/Users/stapi/OneDrive/Desktop/GD32VW553/GD32VW55X_Wifi_BLE_SDK/GD32VW55x_RELEASE_V1.0.2/MSDK/app\ping.c ****     }
 669              		.loc 1 285 9
 670 0318 B7070000 		lui	a5,%hi(.LC9)
 671 031c 13850700 		addi	a0,a5,%lo(.LC9)
 672 0320 97000000 		call	co_printf
 672      E7800000 
 673              	.LVL69:
 674 0328 7DBF     		j	.L11
 675              	.LVL70:
 676              	.L7:
 677              	.LBE41:
 678              	.LBE51:
 392:C:/Users/stapi/OneDrive/Desktop/GD32VW553/GD32VW55X_Wifi_BLE_SDK/GD32VW55x_RELEASE_V1.0.2/MSDK/app\ping.c ****             send_count, ping_info->ping_recv_count, (send_count-ping_info->ping_recv_count) * 100 /
 679              		.loc 1 392 9
 680 032a 03A6CB02 		lw	a2,44(s7)
 681 032e 93074006 		li	a5,100
 682 0332 37050000 		lui	a0,%hi(.LC7)
 683 0336 B306C440 		sub	a3,s0,a2
 684 033a B386F602 		mul	a3,a3,a5
 685 033e A285     		mv	a1,s0
 686 0340 13050500 		addi	a0,a0,%lo(.LC7)
 687 0344 B3D68602 		divu	a3,a3,s0
 688 0348 97000000 		call	co_printf
 688      E7800000 
 689              	.LVL71:
 395:C:/Users/stapi/OneDrive/Desktop/GD32VW553/GD32VW55X_Wifi_BLE_SDK/GD32VW55x_RELEASE_V1.0.2/MSDK/app\ping.c ****             app_print("[ping_test] delay: min %u ms, max %u ms, avg %u ms\n\r",
 690              		.loc 1 395 9
 395:C:/Users/stapi/OneDrive/Desktop/GD32VW553/GD32VW55X_Wifi_BLE_SDK/GD32VW55x_RELEASE_V1.0.2/MSDK/app\ping.c ****             app_print("[ping_test] delay: min %u ms, max %u ms, avg %u ms\n\r",
 691              		.loc 1 395 22 is_stmt 0
 692 0350 83A7CB02 		lw	a5,44(s7)
 395:C:/Users/stapi/OneDrive/Desktop/GD32VW553/GD32VW55X_Wifi_BLE_SDK/GD32VW55x_RELEASE_V1.0.2/MSDK/app\ping.c ****             app_print("[ping_test] delay: min %u ms, max %u ms, avg %u ms\n\r",
 693              		.loc 1 395 12
 694 0354 8DC3     		beq	a5,zero,.L23
 396:C:/Users/stapi/OneDrive/Desktop/GD32VW553/GD32VW55X_Wifi_BLE_SDK/GD32VW55x_RELEASE_V1.0.2/MSDK/app\ping.c ****                 ping_info->ping_min_delay, ping_info->ping_max_delay, ping_info->ping_avg_delay / p
 695              		.loc 1 396 13 is_stmt 1
 696 0356 83A64B02 		lw	a3,36(s7)
 697 035a 03D6EB01 		lhu	a2,30(s7)
 698 035e 83D50B02 		lhu	a1,32(s7)
 699 0362 B3D6F602 		divu	a3,a3,a5
 700 0366 37050000 		lui	a0,%hi(.LC8)
 701 036a 13050500 		addi	a0,a0,%lo(.LC8)
 702 036e 97000000 		call	co_printf
 702      E7800000 
 703              	.LVL72:
 704              	.L23:
 400:C:/Users/stapi/OneDrive/Desktop/GD32VW553/GD32VW55X_Wifi_BLE_SDK/GD32VW55x_RELEASE_V1.0.2/MSDK/app\ping.c **** 
 705              		.loc 1 400 5
 706 0376 2685     		mv	a0,s1
 707 0378 97000000 		call	lwip_close
 707      E7800000 
 708              	.LVL73:
 402:C:/Users/stapi/OneDrive/Desktop/GD32VW553/GD32VW55X_Wifi_BLE_SDK/GD32VW55x_RELEASE_V1.0.2/MSDK/app\ping.c **** 
 709              		.loc 1 402 5
 710 0380 03A50B03 		lw	a0,48(s7)
 711 0384 97000000 		call	sys_mfree
 711      E7800000 
 712              	.LVL74:
 404:C:/Users/stapi/OneDrive/Desktop/GD32VW553/GD32VW55X_Wifi_BLE_SDK/GD32VW55x_RELEASE_V1.0.2/MSDK/app\ping.c **** }
 713              		.loc 1 404 5
 404:C:/Users/stapi/OneDrive/Desktop/GD32VW553/GD32VW55X_Wifi_BLE_SDK/GD32VW55x_RELEASE_V1.0.2/MSDK/app\ping.c **** }
 714              		.loc 1 404 12 is_stmt 0
 715 038c 0145     		li	a0,0
 716 038e F9B9     		j	.L33
 717              	.LVL75:
 718              	.L24:
 322:C:/Users/stapi/OneDrive/Desktop/GD32VW553/GD32VW55X_Wifi_BLE_SDK/GD32VW55x_RELEASE_V1.0.2/MSDK/app\ping.c ****         ip_hdr_len = sizeof(struct ip_hdr);
 719              		.loc 1 322 20
 720 0390 6955     		li	a0,-6
 721 0392 E9B9     		j	.L33
 722              		.cfi_endproc
 723              	.LFE8:
 725              		.section	.rodata.ping_task_func.str1.4,"aMS",@progbits,1
 726              		.align	2
 727              	.LC10:
 728 0000 70696E67 		.string	"ping: exit because of error!\n\r"
 728      3A206578 
 728      69742062 
 728      65636175 
 728      7365206F 
 729              		.section	.text.ping_task_func,"ax",@progbits
 730              		.align	1
 732              	ping_task_func:
 733              	.LFB9:
 406:C:/Users/stapi/OneDrive/Desktop/GD32VW553/GD32VW55X_Wifi_BLE_SDK/GD32VW55x_RELEASE_V1.0.2/MSDK/app\ping.c **** 
 407:C:/Users/stapi/OneDrive/Desktop/GD32VW553/GD32VW55X_Wifi_BLE_SDK/GD32VW55x_RELEASE_V1.0.2/MSDK/app\ping.c **** static void ping_task_func(void *param)
 408:C:/Users/stapi/OneDrive/Desktop/GD32VW553/GD32VW55X_Wifi_BLE_SDK/GD32VW55x_RELEASE_V1.0.2/MSDK/app\ping.c **** {
 734              		.loc 1 408 1 is_stmt 1
 735              		.cfi_startproc
 736              	.LVL76:
 737 0000 17030000 		call	t0,__riscv_save_1
 737      E7020300 
 738              		.cfi_offset 8, -8
 739              		.cfi_offset 1, -4
 740              		.cfi_def_cfa_offset 16
 409:C:/Users/stapi/OneDrive/Desktop/GD32VW553/GD32VW55X_Wifi_BLE_SDK/GD32VW55x_RELEASE_V1.0.2/MSDK/app\ping.c ****     err_t err;
 741              		.loc 1 409 5
 410:C:/Users/stapi/OneDrive/Desktop/GD32VW553/GD32VW55X_Wifi_BLE_SDK/GD32VW55x_RELEASE_V1.0.2/MSDK/app\ping.c ****     struct ping_info_t *ping_info = (struct ping_info_t *)param;
 742              		.loc 1 410 5
 408:C:/Users/stapi/OneDrive/Desktop/GD32VW553/GD32VW55X_Wifi_BLE_SDK/GD32VW55x_RELEASE_V1.0.2/MSDK/app\ping.c ****     err_t err;
 743              		.loc 1 408 1 is_stmt 0
 744 0008 2A84     		mv	s0,a0
 745              	.LVL77:
 411:C:/Users/stapi/OneDrive/Desktop/GD32VW553/GD32VW55X_Wifi_BLE_SDK/GD32VW55x_RELEASE_V1.0.2/MSDK/app\ping.c **** 
 412:C:/Users/stapi/OneDrive/Desktop/GD32VW553/GD32VW55X_Wifi_BLE_SDK/GD32VW55x_RELEASE_V1.0.2/MSDK/app\ping.c ****     // ping_terminate = 0;
 413:C:/Users/stapi/OneDrive/Desktop/GD32VW553/GD32VW55X_Wifi_BLE_SDK/GD32VW55x_RELEASE_V1.0.2/MSDK/app\ping.c ****     err = ping(ping_info);
 746              		.loc 1 413 5 is_stmt 1
 747              		.loc 1 413 11 is_stmt 0
 748 000a 97000000 		call	ping
 748      E7800000 
 749              	.LVL78:
 414:C:/Users/stapi/OneDrive/Desktop/GD32VW553/GD32VW55X_Wifi_BLE_SDK/GD32VW55x_RELEASE_V1.0.2/MSDK/app\ping.c ****     if (err != ERR_OK) {
 750              		.loc 1 414 5 is_stmt 1
 751              		.loc 1 414 8 is_stmt 0
 752 0012 09C9     		beq	a0,zero,.L37
 415:C:/Users/stapi/OneDrive/Desktop/GD32VW553/GD32VW55X_Wifi_BLE_SDK/GD32VW55x_RELEASE_V1.0.2/MSDK/app\ping.c ****         app_print("ping: exit because of error!\n\r");
 753              		.loc 1 415 9 is_stmt 1
 754 0014 37050000 		lui	a0,%hi(.LC10)
 755              	.LVL79:
 756 0018 13050500 		addi	a0,a0,%lo(.LC10)
 757 001c 97000000 		call	co_printf
 757      E7800000 
 758              	.LVL80:
 759              	.L37:
 416:C:/Users/stapi/OneDrive/Desktop/GD32VW553/GD32VW55X_Wifi_BLE_SDK/GD32VW55x_RELEASE_V1.0.2/MSDK/app\ping.c ****     }
 417:C:/Users/stapi/OneDrive/Desktop/GD32VW553/GD32VW55X_Wifi_BLE_SDK/GD32VW55x_RELEASE_V1.0.2/MSDK/app\ping.c **** 
 418:C:/Users/stapi/OneDrive/Desktop/GD32VW553/GD32VW55X_Wifi_BLE_SDK/GD32VW55x_RELEASE_V1.0.2/MSDK/app\ping.c ****     sys_mfree(ping_info);
 760              		.loc 1 418 5
 761 0024 2285     		mv	a0,s0
 762 0026 97000000 		call	sys_mfree
 762      E7800000 
 763              	.LVL81:
 419:C:/Users/stapi/OneDrive/Desktop/GD32VW553/GD32VW55X_Wifi_BLE_SDK/GD32VW55x_RELEASE_V1.0.2/MSDK/app\ping.c ****     ping_task_hdl = NULL;
 764              		.loc 1 419 5
 765              		.loc 1 419 19 is_stmt 0
 766 002e B7070000 		lui	a5,%hi(.LANCHOR1)
 420:C:/Users/stapi/OneDrive/Desktop/GD32VW553/GD32VW55X_Wifi_BLE_SDK/GD32VW55x_RELEASE_V1.0.2/MSDK/app\ping.c ****     sys_task_delete(NULL);
 767              		.loc 1 420 5
 768 0032 0145     		li	a0,0
 419:C:/Users/stapi/OneDrive/Desktop/GD32VW553/GD32VW55X_Wifi_BLE_SDK/GD32VW55x_RELEASE_V1.0.2/MSDK/app\ping.c ****     ping_task_hdl = NULL;
 769              		.loc 1 419 19
 770 0034 23A00700 		sw	zero,%lo(.LANCHOR1)(a5)
 771              		.loc 1 420 5 is_stmt 1
 772 0038 97000000 		call	sys_task_delete
 772      E7800000 
 773              	.LVL82:
 421:C:/Users/stapi/OneDrive/Desktop/GD32VW553/GD32VW55X_Wifi_BLE_SDK/GD32VW55x_RELEASE_V1.0.2/MSDK/app\ping.c **** }
 774              		.loc 1 421 1 is_stmt 0
 775 0040 17030000 		tail	__riscv_restore_1
 775      67000300 
 776              		.cfi_restore 8
 777              		.cfi_restore 1
 778              		.cfi_def_cfa_offset 0
 779              		.cfi_endproc
 780              	.LFE9:
 782              		.section	.rodata.cmd_ping.str1.4,"aMS",@progbits,1
 783              		.align	2
 784              	.LC11:
 785 0000 73746F70 		.string	"stop"
 785      00
 786 0005 000000   		.align	2
 787              	.LC12:
 788 0008 70696E67 		.string	"ping task has been running, return\n\r"
 788      20746173 
 788      6B206861 
 788      73206265 
 788      656E2072 
 789 002d 000000   		.align	2
 790              	.LC13:
 791 0030 70696E67 		.string	"ping: no memory for ping_info.\r\n"
 791      3A206E6F 
 791      206D656D 
 791      6F727920 
 791      666F7220 
 792 0051 000000   		.align	2
 793              	.LC14:
 794 0054 2D6E00   		.string	"-n"
 795 0057 00       		.align	2
 796              	.LC15:
 797 0058 2D6C00   		.string	"-l"
 798 005b 00       		.align	2
 799              	.LC16:
 800 005c 70696E67 		.string	"ping fail!!!\r\n"
 800      20666169 
 800      6C212121 
 800      0D0A00
 801 006b 00       		.align	2
 802              	.LC17:
 803 006c 506C6561 		.string	"Please make sure:\r\n\t\t\tping size <= (IP_REASS_MAX_PBUFS * 1480 - 8)(%d) in lwipopts.h
 803      7365206D 
 803      616B6520 
 803      73757265 
 803      3A0D0A09 
 804 00c3 00       		.align	2
 805              	.LC18:
 806 00c4 2D6900   		.string	"-i"
 807 00c7 00       		.align	2
 808              	.LC19:
 809 00c8 2D7400   		.string	"-t"
 810 00cb 00       		.align	2
 811              	.LC20:
 812 00cc 696E7661 		.string	"invalid run time \r\n"
 812      6C696420 
 812      72756E20 
 812      74696D65 
 812      200D0A00 
 813              		.align	2
 814              	.LC21:
 815 00e0 0D70696E 		.string	"\rping: ping test command format error!\r\n"
 815      673A2070 
 815      696E6720 
 815      74657374 
 815      20636F6D 
 816 0109 000000   		.align	2
 817              	.LC22:
 818 010c 0D557361 		.string	"\rUsage:\r\n"
 818      67653A0D 
 818      0A00
 819 0116 0000     		.align	2
 820              	.LC23:
 821 0118 70696E67 		.string	"ping <target_ip | stop> [-n count] [-l size] [-i interval] [-t total time]\r\n"
 821      203C7461 
 821      72676574 
 821      5F697020 
 821      7C207374 
 822 0165 000000   		.align	2
 823              	.LC24:
 824 0168 20202020 		.string	"    target_ip <ipv4_addr> or <-6 ipv6_addr>(if IPV6 support)\r\n"
 824      74617267 
 824      65745F69 
 824      70203C69 
 824      7076345F 
 825 01a7 00       		.align	2
 826              	.LC25:
 827 01a8 20202020 		.string	"    stop ping stop\r\n"
 827      73746F70 
 827      2070696E 
 827      67207374 
 827      6F700D0A 
 828 01bd 000000   		.align	2
 829              	.LC26:
 830 01c0 20202020 		.string	"    -n   number of echo request to run(default 5)\r\n"
 830      2D6E2020 
 830      206E756D 
 830      62657220 
 830      6F662065 
 831              		.align	2
 832              	.LC27:
 833 01f4 20202020 		.string	"    -l   ping size of single ping test(default 120B)\r\n"
 833      2D6C2020 
 833      2070696E 
 833      67207369 
 833      7A65206F 
 834 022b 00       		.align	2
 835              	.LC28:
 836 022c 20202020 		.string	"    -i   time interval between single echo request(unit:ms) (default 10ms)\r\n"
 836      2D692020 
 836      2074696D 
 836      6520696E 
 836      74657276 
 837 0279 000000   		.align	2
 838              	.LC29:
 839 027c 20202020 		.string	"    -t   total run time(unit:second) (default not use)\r\n"
 839      2D742020 
 839      20746F74 
 839      616C2072 
 839      756E2074 
 840 02b5 000000   		.align	2
 841              	.LC30:
 842 02b8 4E6F7465 		.string	"Note: when -t option is enabled, time interval's default value is 1000ms,and ping test nu
 842      3A207768 
 842      656E202D 
 842      74206F70 
 842      74696F6E 
 843 0327 00       		.align	2
 844              	.LC31:
 845 0328 70696E67 		.string	"ping_task"
 845      5F746173 
 845      6B00
 846 0332 0000     		.align	2
 847              	.LC32:
 848 0334 70696E67 		.string	"ping: create ping task failed.\r\n"
 848      3A206372 
 848      65617465 
 848      2070696E 
 848      67207461 
 849              		.section	.text.cmd_ping,"ax",@progbits
 850              		.align	1
 851              		.globl	cmd_ping
 853              	cmd_ping:
 854              	.LFB11:
 422:C:/Users/stapi/OneDrive/Desktop/GD32VW553/GD32VW55X_Wifi_BLE_SDK/GD32VW55x_RELEASE_V1.0.2/MSDK/app\ping.c **** 
 423:C:/Users/stapi/OneDrive/Desktop/GD32VW553/GD32VW55X_Wifi_BLE_SDK/GD32VW55x_RELEASE_V1.0.2/MSDK/app\ping.c **** static int ping_parse_arguments(struct ping_info_t *ping_info, int argc, char **argv)
 424:C:/Users/stapi/OneDrive/Desktop/GD32VW553/GD32VW55X_Wifi_BLE_SDK/GD32VW55x_RELEASE_V1.0.2/MSDK/app\ping.c **** {
 425:C:/Users/stapi/OneDrive/Desktop/GD32VW553/GD32VW55X_Wifi_BLE_SDK/GD32VW55x_RELEASE_V1.0.2/MSDK/app\ping.c ****     uint32_t arg_cnt = 1, ip_len = 0;
 426:C:/Users/stapi/OneDrive/Desktop/GD32VW553/GD32VW55X_Wifi_BLE_SDK/GD32VW55x_RELEASE_V1.0.2/MSDK/app\ping.c ****     uint32_t ping_size;
 427:C:/Users/stapi/OneDrive/Desktop/GD32VW553/GD32VW55X_Wifi_BLE_SDK/GD32VW55x_RELEASE_V1.0.2/MSDK/app\ping.c ****     uint32_t ping_time;
 428:C:/Users/stapi/OneDrive/Desktop/GD32VW553/GD32VW55X_Wifi_BLE_SDK/GD32VW55x_RELEASE_V1.0.2/MSDK/app\ping.c **** 
 429:C:/Users/stapi/OneDrive/Desktop/GD32VW553/GD32VW55X_Wifi_BLE_SDK/GD32VW55x_RELEASE_V1.0.2/MSDK/app\ping.c ****     if (argc < 2) {
 430:C:/Users/stapi/OneDrive/Desktop/GD32VW553/GD32VW55X_Wifi_BLE_SDK/GD32VW55x_RELEASE_V1.0.2/MSDK/app\ping.c ****         goto Exit;
 431:C:/Users/stapi/OneDrive/Desktop/GD32VW553/GD32VW55X_Wifi_BLE_SDK/GD32VW55x_RELEASE_V1.0.2/MSDK/app\ping.c ****     } else {
 432:C:/Users/stapi/OneDrive/Desktop/GD32VW553/GD32VW55X_Wifi_BLE_SDK/GD32VW55x_RELEASE_V1.0.2/MSDK/app\ping.c **** #if LWIP_IPV6
 433:C:/Users/stapi/OneDrive/Desktop/GD32VW553/GD32VW55X_Wifi_BLE_SDK/GD32VW55x_RELEASE_V1.0.2/MSDK/app\ping.c ****         ping_info->ip_type = 0;
 434:C:/Users/stapi/OneDrive/Desktop/GD32VW553/GD32VW55X_Wifi_BLE_SDK/GD32VW55x_RELEASE_V1.0.2/MSDK/app\ping.c ****         if (strcmp(argv[arg_cnt], "-6") == 0) {
 435:C:/Users/stapi/OneDrive/Desktop/GD32VW553/GD32VW55X_Wifi_BLE_SDK/GD32VW55x_RELEASE_V1.0.2/MSDK/app\ping.c ****             if (argc <= (arg_cnt + 1))
 436:C:/Users/stapi/OneDrive/Desktop/GD32VW553/GD32VW55X_Wifi_BLE_SDK/GD32VW55x_RELEASE_V1.0.2/MSDK/app\ping.c ****                 goto Exit;
 437:C:/Users/stapi/OneDrive/Desktop/GD32VW553/GD32VW55X_Wifi_BLE_SDK/GD32VW55x_RELEASE_V1.0.2/MSDK/app\ping.c ****             ip_len = (strlen((const char *)argv[arg_cnt + 1]) < 64)? (strlen((const char *)argv[arg
 438:C:/Users/stapi/OneDrive/Desktop/GD32VW553/GD32VW55X_Wifi_BLE_SDK/GD32VW55x_RELEASE_V1.0.2/MSDK/app\ping.c ****             memcpy(ping_info->ping_ip, (const char *)argv[arg_cnt + 1], ip_len);
 439:C:/Users/stapi/OneDrive/Desktop/GD32VW553/GD32VW55X_Wifi_BLE_SDK/GD32VW55x_RELEASE_V1.0.2/MSDK/app\ping.c ****             ping_info->ip_type = IPADDR_TYPE_V6;
 440:C:/Users/stapi/OneDrive/Desktop/GD32VW553/GD32VW55X_Wifi_BLE_SDK/GD32VW55x_RELEASE_V1.0.2/MSDK/app\ping.c ****             arg_cnt += 2;
 441:C:/Users/stapi/OneDrive/Desktop/GD32VW553/GD32VW55X_Wifi_BLE_SDK/GD32VW55x_RELEASE_V1.0.2/MSDK/app\ping.c ****         } else
 442:C:/Users/stapi/OneDrive/Desktop/GD32VW553/GD32VW55X_Wifi_BLE_SDK/GD32VW55x_RELEASE_V1.0.2/MSDK/app\ping.c **** #endif
 443:C:/Users/stapi/OneDrive/Desktop/GD32VW553/GD32VW55X_Wifi_BLE_SDK/GD32VW55x_RELEASE_V1.0.2/MSDK/app\ping.c ****         {
 444:C:/Users/stapi/OneDrive/Desktop/GD32VW553/GD32VW55X_Wifi_BLE_SDK/GD32VW55x_RELEASE_V1.0.2/MSDK/app\ping.c ****             ip_len = (strlen((const char *)argv[arg_cnt]) < 16)? (strlen((const char *)argv[arg_cnt
 445:C:/Users/stapi/OneDrive/Desktop/GD32VW553/GD32VW55X_Wifi_BLE_SDK/GD32VW55x_RELEASE_V1.0.2/MSDK/app\ping.c ****             memcpy(ping_info->ping_ip, (const char *)argv[arg_cnt], ip_len);
 446:C:/Users/stapi/OneDrive/Desktop/GD32VW553/GD32VW55X_Wifi_BLE_SDK/GD32VW55x_RELEASE_V1.0.2/MSDK/app\ping.c ****             arg_cnt ++;
 447:C:/Users/stapi/OneDrive/Desktop/GD32VW553/GD32VW55X_Wifi_BLE_SDK/GD32VW55x_RELEASE_V1.0.2/MSDK/app\ping.c ****         }
 448:C:/Users/stapi/OneDrive/Desktop/GD32VW553/GD32VW55X_Wifi_BLE_SDK/GD32VW55x_RELEASE_V1.0.2/MSDK/app\ping.c ****     }
 449:C:/Users/stapi/OneDrive/Desktop/GD32VW553/GD32VW55X_Wifi_BLE_SDK/GD32VW55x_RELEASE_V1.0.2/MSDK/app\ping.c **** 
 450:C:/Users/stapi/OneDrive/Desktop/GD32VW553/GD32VW55X_Wifi_BLE_SDK/GD32VW55x_RELEASE_V1.0.2/MSDK/app\ping.c ****     ping_info->ping_cnt = 5;
 451:C:/Users/stapi/OneDrive/Desktop/GD32VW553/GD32VW55X_Wifi_BLE_SDK/GD32VW55x_RELEASE_V1.0.2/MSDK/app\ping.c ****     ping_info->ping_size = 120;
 452:C:/Users/stapi/OneDrive/Desktop/GD32VW553/GD32VW55X_Wifi_BLE_SDK/GD32VW55x_RELEASE_V1.0.2/MSDK/app\ping.c ****     ping_info->ping_interval = 10;
 453:C:/Users/stapi/OneDrive/Desktop/GD32VW553/GD32VW55X_Wifi_BLE_SDK/GD32VW55x_RELEASE_V1.0.2/MSDK/app\ping.c **** 
 454:C:/Users/stapi/OneDrive/Desktop/GD32VW553/GD32VW55X_Wifi_BLE_SDK/GD32VW55x_RELEASE_V1.0.2/MSDK/app\ping.c ****     while (arg_cnt < argc) {
 455:C:/Users/stapi/OneDrive/Desktop/GD32VW553/GD32VW55X_Wifi_BLE_SDK/GD32VW55x_RELEASE_V1.0.2/MSDK/app\ping.c ****         if (strcmp(argv[arg_cnt], "-n") == 0) {
 456:C:/Users/stapi/OneDrive/Desktop/GD32VW553/GD32VW55X_Wifi_BLE_SDK/GD32VW55x_RELEASE_V1.0.2/MSDK/app\ping.c ****             if (argc <= (arg_cnt + 1))
 457:C:/Users/stapi/OneDrive/Desktop/GD32VW553/GD32VW55X_Wifi_BLE_SDK/GD32VW55x_RELEASE_V1.0.2/MSDK/app\ping.c ****                 goto Exit;
 458:C:/Users/stapi/OneDrive/Desktop/GD32VW553/GD32VW55X_Wifi_BLE_SDK/GD32VW55x_RELEASE_V1.0.2/MSDK/app\ping.c ****             ping_info->ping_cnt = (uint32_t)atoi(argv[arg_cnt + 1]);
 459:C:/Users/stapi/OneDrive/Desktop/GD32VW553/GD32VW55X_Wifi_BLE_SDK/GD32VW55x_RELEASE_V1.0.2/MSDK/app\ping.c ****             arg_cnt += 2;
 460:C:/Users/stapi/OneDrive/Desktop/GD32VW553/GD32VW55X_Wifi_BLE_SDK/GD32VW55x_RELEASE_V1.0.2/MSDK/app\ping.c ****         } else if (strcmp(argv[arg_cnt], "-l") == 0) {
 461:C:/Users/stapi/OneDrive/Desktop/GD32VW553/GD32VW55X_Wifi_BLE_SDK/GD32VW55x_RELEASE_V1.0.2/MSDK/app\ping.c ****             if (argc <= (arg_cnt + 1))
 462:C:/Users/stapi/OneDrive/Desktop/GD32VW553/GD32VW55X_Wifi_BLE_SDK/GD32VW55x_RELEASE_V1.0.2/MSDK/app\ping.c ****                 goto Exit;
 463:C:/Users/stapi/OneDrive/Desktop/GD32VW553/GD32VW55X_Wifi_BLE_SDK/GD32VW55x_RELEASE_V1.0.2/MSDK/app\ping.c ****             ping_size = (uint32_t)atoi(argv[arg_cnt + 1]);
 464:C:/Users/stapi/OneDrive/Desktop/GD32VW553/GD32VW55X_Wifi_BLE_SDK/GD32VW55x_RELEASE_V1.0.2/MSDK/app\ping.c ****             #if 0
 465:C:/Users/stapi/OneDrive/Desktop/GD32VW553/GD32VW55X_Wifi_BLE_SDK/GD32VW55x_RELEASE_V1.0.2/MSDK/app\ping.c ****             if ((ping_size > (MEM_SIZE - 256)) || (ping_size > (PBUF_POOL_SIZE * PBUF_POOL_BUFSIZE 
 466:C:/Users/stapi/OneDrive/Desktop/GD32VW553/GD32VW55X_Wifi_BLE_SDK/GD32VW55x_RELEASE_V1.0.2/MSDK/app\ping.c ****                 app_print("ping fail!!!\r\n");
 467:C:/Users/stapi/OneDrive/Desktop/GD32VW553/GD32VW55X_Wifi_BLE_SDK/GD32VW55x_RELEASE_V1.0.2/MSDK/app\ping.c ****                 app_print("Please make sure:\r\n"\
 468:C:/Users/stapi/OneDrive/Desktop/GD32VW553/GD32VW55X_Wifi_BLE_SDK/GD32VW55x_RELEASE_V1.0.2/MSDK/app\ping.c ****                             "\t\t\tping size <= MEM_SIZE - 256(%d) in lwipopts.h\r\n"\
 469:C:/Users/stapi/OneDrive/Desktop/GD32VW553/GD32VW55X_Wifi_BLE_SDK/GD32VW55x_RELEASE_V1.0.2/MSDK/app\ping.c ****                             "\t\t\tping size <= (PBUF_POOL_SIZE * PBUF_POOL_BUFSIZE - 512)(%d) in l
 470:C:/Users/stapi/OneDrive/Desktop/GD32VW553/GD32VW55X_Wifi_BLE_SDK/GD32VW55x_RELEASE_V1.0.2/MSDK/app\ping.c ****                             (MEM_SIZE - 256), (PBUF_POOL_SIZE * PBUF_POOL_BUFSIZE - 512));
 471:C:/Users/stapi/OneDrive/Desktop/GD32VW553/GD32VW55X_Wifi_BLE_SDK/GD32VW55x_RELEASE_V1.0.2/MSDK/app\ping.c ****                 return 0;
 472:C:/Users/stapi/OneDrive/Desktop/GD32VW553/GD32VW55X_Wifi_BLE_SDK/GD32VW55x_RELEASE_V1.0.2/MSDK/app\ping.c ****             }
 473:C:/Users/stapi/OneDrive/Desktop/GD32VW553/GD32VW55X_Wifi_BLE_SDK/GD32VW55x_RELEASE_V1.0.2/MSDK/app\ping.c ****             #else
 474:C:/Users/stapi/OneDrive/Desktop/GD32VW553/GD32VW55X_Wifi_BLE_SDK/GD32VW55x_RELEASE_V1.0.2/MSDK/app\ping.c ****             if (ping_size > (IP_REASS_MAX_PBUFS * 1480 - 8)) {
 475:C:/Users/stapi/OneDrive/Desktop/GD32VW553/GD32VW55X_Wifi_BLE_SDK/GD32VW55x_RELEASE_V1.0.2/MSDK/app\ping.c ****                 app_print("ping fail!!!\r\n");
 476:C:/Users/stapi/OneDrive/Desktop/GD32VW553/GD32VW55X_Wifi_BLE_SDK/GD32VW55x_RELEASE_V1.0.2/MSDK/app\ping.c ****                 /* 1480 = LLC_ETHER_MTU(1500) - IP Header len(20) */
 477:C:/Users/stapi/OneDrive/Desktop/GD32VW553/GD32VW55X_Wifi_BLE_SDK/GD32VW55x_RELEASE_V1.0.2/MSDK/app\ping.c ****                 app_print("Please make sure:\r\n"\
 478:C:/Users/stapi/OneDrive/Desktop/GD32VW553/GD32VW55X_Wifi_BLE_SDK/GD32VW55x_RELEASE_V1.0.2/MSDK/app\ping.c ****                             "\t\t\tping size <= (IP_REASS_MAX_PBUFS * 1480 - 8)(%d) in lwipopts.h\r
 479:C:/Users/stapi/OneDrive/Desktop/GD32VW553/GD32VW55X_Wifi_BLE_SDK/GD32VW55x_RELEASE_V1.0.2/MSDK/app\ping.c ****                             (IP_REASS_MAX_PBUFS * 1480 - 8));
 480:C:/Users/stapi/OneDrive/Desktop/GD32VW553/GD32VW55X_Wifi_BLE_SDK/GD32VW55x_RELEASE_V1.0.2/MSDK/app\ping.c ****                 return 0;
 481:C:/Users/stapi/OneDrive/Desktop/GD32VW553/GD32VW55X_Wifi_BLE_SDK/GD32VW55x_RELEASE_V1.0.2/MSDK/app\ping.c ****             }
 482:C:/Users/stapi/OneDrive/Desktop/GD32VW553/GD32VW55X_Wifi_BLE_SDK/GD32VW55x_RELEASE_V1.0.2/MSDK/app\ping.c ****             #endif
 483:C:/Users/stapi/OneDrive/Desktop/GD32VW553/GD32VW55X_Wifi_BLE_SDK/GD32VW55x_RELEASE_V1.0.2/MSDK/app\ping.c ****             ping_info->ping_size = ping_size;
 484:C:/Users/stapi/OneDrive/Desktop/GD32VW553/GD32VW55X_Wifi_BLE_SDK/GD32VW55x_RELEASE_V1.0.2/MSDK/app\ping.c ****             arg_cnt += 2;
 485:C:/Users/stapi/OneDrive/Desktop/GD32VW553/GD32VW55X_Wifi_BLE_SDK/GD32VW55x_RELEASE_V1.0.2/MSDK/app\ping.c ****         } else if (strcmp(argv[arg_cnt], "-i") == 0) {
 486:C:/Users/stapi/OneDrive/Desktop/GD32VW553/GD32VW55X_Wifi_BLE_SDK/GD32VW55x_RELEASE_V1.0.2/MSDK/app\ping.c ****             if (argc <= (arg_cnt + 1))
 487:C:/Users/stapi/OneDrive/Desktop/GD32VW553/GD32VW55X_Wifi_BLE_SDK/GD32VW55x_RELEASE_V1.0.2/MSDK/app\ping.c ****                 goto Exit;
 488:C:/Users/stapi/OneDrive/Desktop/GD32VW553/GD32VW55X_Wifi_BLE_SDK/GD32VW55x_RELEASE_V1.0.2/MSDK/app\ping.c ****             ping_info->ping_interval = (uint32_t)atoi(argv[arg_cnt + 1]);
 489:C:/Users/stapi/OneDrive/Desktop/GD32VW553/GD32VW55X_Wifi_BLE_SDK/GD32VW55x_RELEASE_V1.0.2/MSDK/app\ping.c ****             arg_cnt += 2;
 490:C:/Users/stapi/OneDrive/Desktop/GD32VW553/GD32VW55X_Wifi_BLE_SDK/GD32VW55x_RELEASE_V1.0.2/MSDK/app\ping.c ****         } else if (strcmp(argv[arg_cnt], "-t") == 0) {
 491:C:/Users/stapi/OneDrive/Desktop/GD32VW553/GD32VW55X_Wifi_BLE_SDK/GD32VW55x_RELEASE_V1.0.2/MSDK/app\ping.c ****             if (argc <= (arg_cnt + 1))
 492:C:/Users/stapi/OneDrive/Desktop/GD32VW553/GD32VW55X_Wifi_BLE_SDK/GD32VW55x_RELEASE_V1.0.2/MSDK/app\ping.c ****                 goto Exit;
 493:C:/Users/stapi/OneDrive/Desktop/GD32VW553/GD32VW55X_Wifi_BLE_SDK/GD32VW55x_RELEASE_V1.0.2/MSDK/app\ping.c ****             ping_time = (uint32_t)atoi(argv[arg_cnt + 1]);
 494:C:/Users/stapi/OneDrive/Desktop/GD32VW553/GD32VW55X_Wifi_BLE_SDK/GD32VW55x_RELEASE_V1.0.2/MSDK/app\ping.c ****             if (ping_time > 0) {
 495:C:/Users/stapi/OneDrive/Desktop/GD32VW553/GD32VW55X_Wifi_BLE_SDK/GD32VW55x_RELEASE_V1.0.2/MSDK/app\ping.c ****                 ping_info->ping_interval = 1000;
 496:C:/Users/stapi/OneDrive/Desktop/GD32VW553/GD32VW55X_Wifi_BLE_SDK/GD32VW55x_RELEASE_V1.0.2/MSDK/app\ping.c ****                 ping_info->ping_cnt = ping_time;
 497:C:/Users/stapi/OneDrive/Desktop/GD32VW553/GD32VW55X_Wifi_BLE_SDK/GD32VW55x_RELEASE_V1.0.2/MSDK/app\ping.c ****             } else {
 498:C:/Users/stapi/OneDrive/Desktop/GD32VW553/GD32VW55X_Wifi_BLE_SDK/GD32VW55x_RELEASE_V1.0.2/MSDK/app\ping.c ****                 app_print("invalid run time \r\n");
 499:C:/Users/stapi/OneDrive/Desktop/GD32VW553/GD32VW55X_Wifi_BLE_SDK/GD32VW55x_RELEASE_V1.0.2/MSDK/app\ping.c ****                 goto Usage;
 500:C:/Users/stapi/OneDrive/Desktop/GD32VW553/GD32VW55X_Wifi_BLE_SDK/GD32VW55x_RELEASE_V1.0.2/MSDK/app\ping.c ****             }
 501:C:/Users/stapi/OneDrive/Desktop/GD32VW553/GD32VW55X_Wifi_BLE_SDK/GD32VW55x_RELEASE_V1.0.2/MSDK/app\ping.c ****             arg_cnt += 2;
 502:C:/Users/stapi/OneDrive/Desktop/GD32VW553/GD32VW55X_Wifi_BLE_SDK/GD32VW55x_RELEASE_V1.0.2/MSDK/app\ping.c ****         }
 503:C:/Users/stapi/OneDrive/Desktop/GD32VW553/GD32VW55X_Wifi_BLE_SDK/GD32VW55x_RELEASE_V1.0.2/MSDK/app\ping.c ****         else {
 504:C:/Users/stapi/OneDrive/Desktop/GD32VW553/GD32VW55X_Wifi_BLE_SDK/GD32VW55x_RELEASE_V1.0.2/MSDK/app\ping.c ****             goto Exit;
 505:C:/Users/stapi/OneDrive/Desktop/GD32VW553/GD32VW55X_Wifi_BLE_SDK/GD32VW55x_RELEASE_V1.0.2/MSDK/app\ping.c ****         }
 506:C:/Users/stapi/OneDrive/Desktop/GD32VW553/GD32VW55X_Wifi_BLE_SDK/GD32VW55x_RELEASE_V1.0.2/MSDK/app\ping.c ****     }
 507:C:/Users/stapi/OneDrive/Desktop/GD32VW553/GD32VW55X_Wifi_BLE_SDK/GD32VW55x_RELEASE_V1.0.2/MSDK/app\ping.c ****     return 1;
 508:C:/Users/stapi/OneDrive/Desktop/GD32VW553/GD32VW55X_Wifi_BLE_SDK/GD32VW55x_RELEASE_V1.0.2/MSDK/app\ping.c **** 
 509:C:/Users/stapi/OneDrive/Desktop/GD32VW553/GD32VW55X_Wifi_BLE_SDK/GD32VW55x_RELEASE_V1.0.2/MSDK/app\ping.c **** Exit:
 510:C:/Users/stapi/OneDrive/Desktop/GD32VW553/GD32VW55X_Wifi_BLE_SDK/GD32VW55x_RELEASE_V1.0.2/MSDK/app\ping.c ****     app_print("\rping: ping test command format error!\r\n");
 511:C:/Users/stapi/OneDrive/Desktop/GD32VW553/GD32VW55X_Wifi_BLE_SDK/GD32VW55x_RELEASE_V1.0.2/MSDK/app\ping.c **** Usage:
 512:C:/Users/stapi/OneDrive/Desktop/GD32VW553/GD32VW55X_Wifi_BLE_SDK/GD32VW55x_RELEASE_V1.0.2/MSDK/app\ping.c ****     app_print("\rUsage:\r\n");
 513:C:/Users/stapi/OneDrive/Desktop/GD32VW553/GD32VW55X_Wifi_BLE_SDK/GD32VW55x_RELEASE_V1.0.2/MSDK/app\ping.c ****     app_print("ping <target_ip | stop> [-n count] [-l size] [-i interval] [-t total time]\r\n");
 514:C:/Users/stapi/OneDrive/Desktop/GD32VW553/GD32VW55X_Wifi_BLE_SDK/GD32VW55x_RELEASE_V1.0.2/MSDK/app\ping.c ****     app_print("    target_ip <ipv4_addr> or <-6 ipv6_addr>(if IPV6 support)\r\n");
 515:C:/Users/stapi/OneDrive/Desktop/GD32VW553/GD32VW55X_Wifi_BLE_SDK/GD32VW55x_RELEASE_V1.0.2/MSDK/app\ping.c ****     app_print("    stop ping stop\r\n");
 516:C:/Users/stapi/OneDrive/Desktop/GD32VW553/GD32VW55X_Wifi_BLE_SDK/GD32VW55x_RELEASE_V1.0.2/MSDK/app\ping.c ****     app_print("    -n   number of echo request to run(default 5)\r\n");
 517:C:/Users/stapi/OneDrive/Desktop/GD32VW553/GD32VW55X_Wifi_BLE_SDK/GD32VW55x_RELEASE_V1.0.2/MSDK/app\ping.c ****     app_print("    -l   ping size of single ping test(default 120B)\r\n");
 518:C:/Users/stapi/OneDrive/Desktop/GD32VW553/GD32VW55X_Wifi_BLE_SDK/GD32VW55x_RELEASE_V1.0.2/MSDK/app\ping.c ****     app_print("    -i   time interval between single echo request(unit:ms) (default 10ms)\r\n");
 519:C:/Users/stapi/OneDrive/Desktop/GD32VW553/GD32VW55X_Wifi_BLE_SDK/GD32VW55x_RELEASE_V1.0.2/MSDK/app\ping.c ****     app_print("    -t   total run time(unit:second) (default not use)\r\n");
 520:C:/Users/stapi/OneDrive/Desktop/GD32VW553/GD32VW55X_Wifi_BLE_SDK/GD32VW55x_RELEASE_V1.0.2/MSDK/app\ping.c ****     app_print("Note: when -t option is enabled, time interval's default value is 1000ms,"\
 521:C:/Users/stapi/OneDrive/Desktop/GD32VW553/GD32VW55X_Wifi_BLE_SDK/GD32VW55x_RELEASE_V1.0.2/MSDK/app\ping.c ****                 "and ping test number equals to time\r\n");
 522:C:/Users/stapi/OneDrive/Desktop/GD32VW553/GD32VW55X_Wifi_BLE_SDK/GD32VW55x_RELEASE_V1.0.2/MSDK/app\ping.c ****     return 0;
 523:C:/Users/stapi/OneDrive/Desktop/GD32VW553/GD32VW55X_Wifi_BLE_SDK/GD32VW55x_RELEASE_V1.0.2/MSDK/app\ping.c **** }
 524:C:/Users/stapi/OneDrive/Desktop/GD32VW553/GD32VW55X_Wifi_BLE_SDK/GD32VW55x_RELEASE_V1.0.2/MSDK/app\ping.c **** 
 525:C:/Users/stapi/OneDrive/Desktop/GD32VW553/GD32VW55X_Wifi_BLE_SDK/GD32VW55x_RELEASE_V1.0.2/MSDK/app\ping.c **** 
 526:C:/Users/stapi/OneDrive/Desktop/GD32VW553/GD32VW55X_Wifi_BLE_SDK/GD32VW55x_RELEASE_V1.0.2/MSDK/app\ping.c **** void cmd_ping(int argc, char **argv)
 527:C:/Users/stapi/OneDrive/Desktop/GD32VW553/GD32VW55X_Wifi_BLE_SDK/GD32VW55x_RELEASE_V1.0.2/MSDK/app\ping.c **** {
 855              		.loc 1 527 1 is_stmt 1
 856              		.cfi_startproc
 857              	.LVL83:
 858 0000 17030000 		call	t0,__riscv_save_12
 858      E7020300 
 859              		.cfi_offset 27, -52
 860              		.cfi_offset 26, -48
 861              		.cfi_offset 25, -44
 862              		.cfi_offset 24, -40
 863              		.cfi_offset 23, -36
 864              		.cfi_offset 22, -32
 865              		.cfi_offset 21, -28
 866              		.cfi_offset 20, -24
 867              		.cfi_offset 19, -20
 868              		.cfi_offset 18, -16
 869              		.cfi_offset 9, -12
 870              		.cfi_offset 8, -8
 871              		.cfi_offset 1, -4
 872              		.cfi_def_cfa_offset 64
 528:C:/Users/stapi/OneDrive/Desktop/GD32VW553/GD32VW55X_Wifi_BLE_SDK/GD32VW55x_RELEASE_V1.0.2/MSDK/app\ping.c **** #if LWIP_PING
 529:C:/Users/stapi/OneDrive/Desktop/GD32VW553/GD32VW55X_Wifi_BLE_SDK/GD32VW55x_RELEASE_V1.0.2/MSDK/app\ping.c ****     struct ping_info_t *ping_info;
 873              		.loc 1 529 5
 530:C:/Users/stapi/OneDrive/Desktop/GD32VW553/GD32VW55X_Wifi_BLE_SDK/GD32VW55x_RELEASE_V1.0.2/MSDK/app\ping.c **** 
 531:C:/Users/stapi/OneDrive/Desktop/GD32VW553/GD32VW55X_Wifi_BLE_SDK/GD32VW55x_RELEASE_V1.0.2/MSDK/app\ping.c ****     if (argc >= 2 && (strcmp(argv[1], "stop") == 0)) {
 874              		.loc 1 531 5
 875              		.loc 1 531 8 is_stmt 0
 876 0008 0544     		li	s0,1
 527:C:/Users/stapi/OneDrive/Desktop/GD32VW553/GD32VW55X_Wifi_BLE_SDK/GD32VW55x_RELEASE_V1.0.2/MSDK/app\ping.c **** #if LWIP_PING
 877              		.loc 1 527 1
 878 000a 0111     		addi	sp,sp,-32
 879              		.cfi_def_cfa_offset 96
 527:C:/Users/stapi/OneDrive/Desktop/GD32VW553/GD32VW55X_Wifi_BLE_SDK/GD32VW55x_RELEASE_V1.0.2/MSDK/app\ping.c **** #if LWIP_PING
 880              		.loc 1 527 1
 881 000c AA89     		mv	s3,a0
 882 000e AE84     		mv	s1,a1
 883              		.loc 1 531 8
 884 0010 6355A402 		ble	a0,s0,.L43
 885              		.loc 1 531 23 discriminator 1
 886 0014 C840     		lw	a0,4(s1)
 887              	.LVL84:
 888 0016 B7050000 		lui	a1,%hi(.LC11)
 889              	.LVL85:
 890 001a 93850500 		addi	a1,a1,%lo(.LC11)
 891 001e 97000000 		call	strcmp
 891      E7800000 
 892              	.LVL86:
 893              		.loc 1 531 19 discriminator 1
 894 0026 11E9     		bne	a0,zero,.L43
 532:C:/Users/stapi/OneDrive/Desktop/GD32VW553/GD32VW55X_Wifi_BLE_SDK/GD32VW55x_RELEASE_V1.0.2/MSDK/app\ping.c ****         ping_terminate = 1;
 895              		.loc 1 532 9 is_stmt 1
 896              		.loc 1 532 24 is_stmt 0
 897 0028 B7070000 		lui	a5,%hi(.LANCHOR0)
 898 002c 23808700 		sb	s0,%lo(.LANCHOR0)(a5)
 533:C:/Users/stapi/OneDrive/Desktop/GD32VW553/GD32VW55X_Wifi_BLE_SDK/GD32VW55x_RELEASE_V1.0.2/MSDK/app\ping.c ****         return;
 899              		.loc 1 533 9 is_stmt 1
 900              	.LVL87:
 901              	.L42:
 534:C:/Users/stapi/OneDrive/Desktop/GD32VW553/GD32VW55X_Wifi_BLE_SDK/GD32VW55x_RELEASE_V1.0.2/MSDK/app\ping.c ****     }
 535:C:/Users/stapi/OneDrive/Desktop/GD32VW553/GD32VW55X_Wifi_BLE_SDK/GD32VW55x_RELEASE_V1.0.2/MSDK/app\ping.c **** 
 536:C:/Users/stapi/OneDrive/Desktop/GD32VW553/GD32VW55X_Wifi_BLE_SDK/GD32VW55x_RELEASE_V1.0.2/MSDK/app\ping.c ****     if (ping_task_hdl != NULL) {
 537:C:/Users/stapi/OneDrive/Desktop/GD32VW553/GD32VW55X_Wifi_BLE_SDK/GD32VW55x_RELEASE_V1.0.2/MSDK/app\ping.c ****         app_print("ping task has been running, return\n\r");
 538:C:/Users/stapi/OneDrive/Desktop/GD32VW553/GD32VW55X_Wifi_BLE_SDK/GD32VW55x_RELEASE_V1.0.2/MSDK/app\ping.c ****         return;
 539:C:/Users/stapi/OneDrive/Desktop/GD32VW553/GD32VW55X_Wifi_BLE_SDK/GD32VW55x_RELEASE_V1.0.2/MSDK/app\ping.c ****     }
 540:C:/Users/stapi/OneDrive/Desktop/GD32VW553/GD32VW55X_Wifi_BLE_SDK/GD32VW55x_RELEASE_V1.0.2/MSDK/app\ping.c **** 
 541:C:/Users/stapi/OneDrive/Desktop/GD32VW553/GD32VW55X_Wifi_BLE_SDK/GD32VW55x_RELEASE_V1.0.2/MSDK/app\ping.c ****     ping_info = (struct ping_info_t *)sys_zalloc(sizeof(struct ping_info_t));
 542:C:/Users/stapi/OneDrive/Desktop/GD32VW553/GD32VW55X_Wifi_BLE_SDK/GD32VW55x_RELEASE_V1.0.2/MSDK/app\ping.c ****     if (ping_info == NULL) {
 543:C:/Users/stapi/OneDrive/Desktop/GD32VW553/GD32VW55X_Wifi_BLE_SDK/GD32VW55x_RELEASE_V1.0.2/MSDK/app\ping.c ****         app_print("ping: no memory for ping_info.\r\n");
 544:C:/Users/stapi/OneDrive/Desktop/GD32VW553/GD32VW55X_Wifi_BLE_SDK/GD32VW55x_RELEASE_V1.0.2/MSDK/app\ping.c ****         return;
 545:C:/Users/stapi/OneDrive/Desktop/GD32VW553/GD32VW55X_Wifi_BLE_SDK/GD32VW55x_RELEASE_V1.0.2/MSDK/app\ping.c ****     }
 546:C:/Users/stapi/OneDrive/Desktop/GD32VW553/GD32VW55X_Wifi_BLE_SDK/GD32VW55x_RELEASE_V1.0.2/MSDK/app\ping.c **** 
 547:C:/Users/stapi/OneDrive/Desktop/GD32VW553/GD32VW55X_Wifi_BLE_SDK/GD32VW55x_RELEASE_V1.0.2/MSDK/app\ping.c ****     if(ping_parse_arguments(ping_info, argc, argv)) {
 548:C:/Users/stapi/OneDrive/Desktop/GD32VW553/GD32VW55X_Wifi_BLE_SDK/GD32VW55x_RELEASE_V1.0.2/MSDK/app\ping.c **** 
 549:C:/Users/stapi/OneDrive/Desktop/GD32VW553/GD32VW55X_Wifi_BLE_SDK/GD32VW55x_RELEASE_V1.0.2/MSDK/app\ping.c ****         ping_task_hdl = sys_task_create_dynamic((const uint8_t *)"ping_task", PING_TASK_STACK_SIZE,
 550:C:/Users/stapi/OneDrive/Desktop/GD32VW553/GD32VW55X_Wifi_BLE_SDK/GD32VW55x_RELEASE_V1.0.2/MSDK/app\ping.c ****             (task_func_t)ping_task_func, ping_info);
 551:C:/Users/stapi/OneDrive/Desktop/GD32VW553/GD32VW55X_Wifi_BLE_SDK/GD32VW55x_RELEASE_V1.0.2/MSDK/app\ping.c ****         if (ping_task_hdl == NULL) {
 552:C:/Users/stapi/OneDrive/Desktop/GD32VW553/GD32VW55X_Wifi_BLE_SDK/GD32VW55x_RELEASE_V1.0.2/MSDK/app\ping.c ****             app_print("ping: create ping task failed.\r\n");
 553:C:/Users/stapi/OneDrive/Desktop/GD32VW553/GD32VW55X_Wifi_BLE_SDK/GD32VW55x_RELEASE_V1.0.2/MSDK/app\ping.c ****             sys_mfree(ping_info);
 554:C:/Users/stapi/OneDrive/Desktop/GD32VW553/GD32VW55X_Wifi_BLE_SDK/GD32VW55x_RELEASE_V1.0.2/MSDK/app\ping.c ****             return;
 555:C:/Users/stapi/OneDrive/Desktop/GD32VW553/GD32VW55X_Wifi_BLE_SDK/GD32VW55x_RELEASE_V1.0.2/MSDK/app\ping.c ****         }
 556:C:/Users/stapi/OneDrive/Desktop/GD32VW553/GD32VW55X_Wifi_BLE_SDK/GD32VW55x_RELEASE_V1.0.2/MSDK/app\ping.c **** 
 557:C:/Users/stapi/OneDrive/Desktop/GD32VW553/GD32VW55X_Wifi_BLE_SDK/GD32VW55x_RELEASE_V1.0.2/MSDK/app\ping.c ****         ping_terminate = 0;
 558:C:/Users/stapi/OneDrive/Desktop/GD32VW553/GD32VW55X_Wifi_BLE_SDK/GD32VW55x_RELEASE_V1.0.2/MSDK/app\ping.c ****     } else {
 559:C:/Users/stapi/OneDrive/Desktop/GD32VW553/GD32VW55X_Wifi_BLE_SDK/GD32VW55x_RELEASE_V1.0.2/MSDK/app\ping.c ****         sys_mfree(ping_info);
 560:C:/Users/stapi/OneDrive/Desktop/GD32VW553/GD32VW55X_Wifi_BLE_SDK/GD32VW55x_RELEASE_V1.0.2/MSDK/app\ping.c ****     }
 561:C:/Users/stapi/OneDrive/Desktop/GD32VW553/GD32VW55X_Wifi_BLE_SDK/GD32VW55x_RELEASE_V1.0.2/MSDK/app\ping.c **** #else
 562:C:/Users/stapi/OneDrive/Desktop/GD32VW553/GD32VW55X_Wifi_BLE_SDK/GD32VW55x_RELEASE_V1.0.2/MSDK/app\ping.c ****     app_print("\n\rLWIP_PING should be defined in lwipopts.h!\n");
 563:C:/Users/stapi/OneDrive/Desktop/GD32VW553/GD32VW55X_Wifi_BLE_SDK/GD32VW55x_RELEASE_V1.0.2/MSDK/app\ping.c **** #endif
 564:C:/Users/stapi/OneDrive/Desktop/GD32VW553/GD32VW55X_Wifi_BLE_SDK/GD32VW55x_RELEASE_V1.0.2/MSDK/app\ping.c **** }
 902              		.loc 1 564 1 is_stmt 0
 903 0030 0561     		addi	sp,sp,32
 904              		.cfi_remember_state
 905              		.cfi_def_cfa_offset 0
 906 0032 17030000 		tail	__riscv_restore_12
 906      67000300 
 907              		.cfi_restore 27
 908              		.cfi_restore 26
 909              		.cfi_restore 25
 910              		.cfi_restore 24
 911              		.cfi_restore 23
 912              		.cfi_restore 22
 913              		.cfi_restore 21
 914              		.cfi_restore 20
 915              		.cfi_restore 19
 916              		.cfi_restore 18
 917              		.cfi_restore 9
 918              		.cfi_restore 8
 919              		.cfi_restore 1
 920              		.cfi_def_cfa_offset -64
 921              	.LVL88:
 922              	.L43:
 923              		.cfi_restore_state
 536:C:/Users/stapi/OneDrive/Desktop/GD32VW553/GD32VW55X_Wifi_BLE_SDK/GD32VW55x_RELEASE_V1.0.2/MSDK/app\ping.c ****         app_print("ping task has been running, return\n\r");
 924              		.loc 1 536 5 is_stmt 1
 536:C:/Users/stapi/OneDrive/Desktop/GD32VW553/GD32VW55X_Wifi_BLE_SDK/GD32VW55x_RELEASE_V1.0.2/MSDK/app\ping.c ****         app_print("ping task has been running, return\n\r");
 925              		.loc 1 536 23 is_stmt 0
 926 003a 370A0000 		lui	s4,%hi(.LANCHOR1)
 536:C:/Users/stapi/OneDrive/Desktop/GD32VW553/GD32VW55X_Wifi_BLE_SDK/GD32VW55x_RELEASE_V1.0.2/MSDK/app\ping.c ****         app_print("ping task has been running, return\n\r");
 927              		.loc 1 536 8
 928 003e 83270A00 		lw	a5,%lo(.LANCHOR1)(s4)
 929 0042 130A0A00 		addi	s4,s4,%lo(.LANCHOR1)
 930 0046 91CB     		beq	a5,zero,.L45
 537:C:/Users/stapi/OneDrive/Desktop/GD32VW553/GD32VW55X_Wifi_BLE_SDK/GD32VW55x_RELEASE_V1.0.2/MSDK/app\ping.c ****         return;
 931              		.loc 1 537 9 is_stmt 1
 932 0048 37050000 		lui	a0,%hi(.LC12)
 933 004c 13050500 		addi	a0,a0,%lo(.LC12)
 934              	.L66:
 543:C:/Users/stapi/OneDrive/Desktop/GD32VW553/GD32VW55X_Wifi_BLE_SDK/GD32VW55x_RELEASE_V1.0.2/MSDK/app\ping.c ****         return;
 935              		.loc 1 543 9 is_stmt 0
 936 0050 97000000 		call	co_printf
 936      E7800000 
 937              	.LVL89:
 544:C:/Users/stapi/OneDrive/Desktop/GD32VW553/GD32VW55X_Wifi_BLE_SDK/GD32VW55x_RELEASE_V1.0.2/MSDK/app\ping.c ****     }
 938              		.loc 1 544 9 is_stmt 1
 939 0058 E1BF     		j	.L42
 940              	.L45:
 541:C:/Users/stapi/OneDrive/Desktop/GD32VW553/GD32VW55X_Wifi_BLE_SDK/GD32VW55x_RELEASE_V1.0.2/MSDK/app\ping.c ****     if (ping_info == NULL) {
 941              		.loc 1 541 5
 541:C:/Users/stapi/OneDrive/Desktop/GD32VW553/GD32VW55X_Wifi_BLE_SDK/GD32VW55x_RELEASE_V1.0.2/MSDK/app\ping.c ****     if (ping_info == NULL) {
 942              		.loc 1 541 39 is_stmt 0
 943 005a 8545     		li	a1,1
 944 005c 13054003 		li	a0,52
 945 0060 97000000 		call	sys_calloc
 945      E7800000 
 946              	.LVL90:
 947 0068 2A84     		mv	s0,a0
 948              	.LVL91:
 542:C:/Users/stapi/OneDrive/Desktop/GD32VW553/GD32VW55X_Wifi_BLE_SDK/GD32VW55x_RELEASE_V1.0.2/MSDK/app\ping.c ****         app_print("ping: no memory for ping_info.\r\n");
 949              		.loc 1 542 5 is_stmt 1
 542:C:/Users/stapi/OneDrive/Desktop/GD32VW553/GD32VW55X_Wifi_BLE_SDK/GD32VW55x_RELEASE_V1.0.2/MSDK/app\ping.c ****         app_print("ping: no memory for ping_info.\r\n");
 950              		.loc 1 542 8 is_stmt 0
 951 006a 11E5     		bne	a0,zero,.L46
 543:C:/Users/stapi/OneDrive/Desktop/GD32VW553/GD32VW55X_Wifi_BLE_SDK/GD32VW55x_RELEASE_V1.0.2/MSDK/app\ping.c ****         return;
 952              		.loc 1 543 9 is_stmt 1
 953 006c 37050000 		lui	a0,%hi(.LC13)
 954 0070 13050500 		addi	a0,a0,%lo(.LC13)
 955 0074 F1BF     		j	.L66
 956              	.L46:
 547:C:/Users/stapi/OneDrive/Desktop/GD32VW553/GD32VW55X_Wifi_BLE_SDK/GD32VW55x_RELEASE_V1.0.2/MSDK/app\ping.c **** 
 957              		.loc 1 547 5
 958              	.LVL92:
 959              	.LBB54:
 960              	.LBB55:
 425:C:/Users/stapi/OneDrive/Desktop/GD32VW553/GD32VW55X_Wifi_BLE_SDK/GD32VW55x_RELEASE_V1.0.2/MSDK/app\ping.c ****     uint32_t ping_size;
 961              		.loc 1 425 5
 426:C:/Users/stapi/OneDrive/Desktop/GD32VW553/GD32VW55X_Wifi_BLE_SDK/GD32VW55x_RELEASE_V1.0.2/MSDK/app\ping.c ****     uint32_t ping_time;
 962              		.loc 1 426 5
 427:C:/Users/stapi/OneDrive/Desktop/GD32VW553/GD32VW55X_Wifi_BLE_SDK/GD32VW55x_RELEASE_V1.0.2/MSDK/app\ping.c **** 
 963              		.loc 1 427 5
 429:C:/Users/stapi/OneDrive/Desktop/GD32VW553/GD32VW55X_Wifi_BLE_SDK/GD32VW55x_RELEASE_V1.0.2/MSDK/app\ping.c ****         goto Exit;
 964              		.loc 1 429 5
 429:C:/Users/stapi/OneDrive/Desktop/GD32VW553/GD32VW55X_Wifi_BLE_SDK/GD32VW55x_RELEASE_V1.0.2/MSDK/app\ping.c ****         goto Exit;
 965              		.loc 1 429 8 is_stmt 0
 966 0076 8547     		li	a5,1
 967 0078 63D03721 		ble	s3,a5,.L47
 444:C:/Users/stapi/OneDrive/Desktop/GD32VW553/GD32VW55X_Wifi_BLE_SDK/GD32VW55x_RELEASE_V1.0.2/MSDK/app\ping.c ****             memcpy(ping_info->ping_ip, (const char *)argv[arg_cnt], ip_len);
 968              		.loc 1 444 13 is_stmt 1
 444:C:/Users/stapi/OneDrive/Desktop/GD32VW553/GD32VW55X_Wifi_BLE_SDK/GD32VW55x_RELEASE_V1.0.2/MSDK/app\ping.c ****             memcpy(ping_info->ping_ip, (const char *)argv[arg_cnt], ip_len);
 969              		.loc 1 444 23 is_stmt 0
 970 007c CC40     		lw	a1,4(s1)
 971 007e 2E85     		mv	a0,a1
 972 0080 2ECE     		sw	a1,28(sp)
 973 0082 97000000 		call	strlen
 973      E7800000 
 974              	.LVL93:
 444:C:/Users/stapi/OneDrive/Desktop/GD32VW553/GD32VW55X_Wifi_BLE_SDK/GD32VW55x_RELEASE_V1.0.2/MSDK/app\ping.c ****             memcpy(ping_info->ping_ip, (const char *)argv[arg_cnt], ip_len);
 975              		.loc 1 444 108
 976 008a BD47     		li	a5,15
 977 008c F245     		lw	a1,28(sp)
 978 008e 4146     		li	a2,16
 979 0090 63E4A700 		bgtu	a0,a5,.L48
 980 0094 13061500 		addi	a2,a0,1
 981              	.L48:
 982              	.LVL94:
 445:C:/Users/stapi/OneDrive/Desktop/GD32VW553/GD32VW55X_Wifi_BLE_SDK/GD32VW55x_RELEASE_V1.0.2/MSDK/app\ping.c ****             arg_cnt ++;
 983              		.loc 1 445 13 is_stmt 1
 984 0098 2285     		mv	a0,s0
 985 009a 97000000 		call	memcpy
 985      E7800000 
 986              	.LVL95:
 446:C:/Users/stapi/OneDrive/Desktop/GD32VW553/GD32VW55X_Wifi_BLE_SDK/GD32VW55x_RELEASE_V1.0.2/MSDK/app\ping.c ****         }
 987              		.loc 1 446 13
 450:C:/Users/stapi/OneDrive/Desktop/GD32VW553/GD32VW55X_Wifi_BLE_SDK/GD32VW55x_RELEASE_V1.0.2/MSDK/app\ping.c ****     ping_info->ping_size = 120;
 988              		.loc 1 450 5
 450:C:/Users/stapi/OneDrive/Desktop/GD32VW553/GD32VW55X_Wifi_BLE_SDK/GD32VW55x_RELEASE_V1.0.2/MSDK/app\ping.c ****     ping_info->ping_size = 120;
 989              		.loc 1 450 25 is_stmt 0
 990 00a2 9547     		li	a5,5
 991 00a4 1CC8     		sw	a5,16(s0)
 451:C:/Users/stapi/OneDrive/Desktop/GD32VW553/GD32VW55X_Wifi_BLE_SDK/GD32VW55x_RELEASE_V1.0.2/MSDK/app\ping.c ****     ping_info->ping_interval = 10;
 992              		.loc 1 451 5 is_stmt 1
 451:C:/Users/stapi/OneDrive/Desktop/GD32VW553/GD32VW55X_Wifi_BLE_SDK/GD32VW55x_RELEASE_V1.0.2/MSDK/app\ping.c ****     ping_info->ping_interval = 10;
 993              		.loc 1 451 26 is_stmt 0
 994 00a6 93078007 		li	a5,120
 995 00aa 5CC8     		sw	a5,20(s0)
 452:C:/Users/stapi/OneDrive/Desktop/GD32VW553/GD32VW55X_Wifi_BLE_SDK/GD32VW55x_RELEASE_V1.0.2/MSDK/app\ping.c **** 
 996              		.loc 1 452 5 is_stmt 1
 474:C:/Users/stapi/OneDrive/Desktop/GD32VW553/GD32VW55X_Wifi_BLE_SDK/GD32VW55x_RELEASE_V1.0.2/MSDK/app\ping.c ****                 app_print("ping fail!!!\r\n");
 997              		.loc 1 474 16 is_stmt 0
 998 00ac 916A     		li	s5,16384
 452:C:/Users/stapi/OneDrive/Desktop/GD32VW553/GD32VW55X_Wifi_BLE_SDK/GD32VW55x_RELEASE_V1.0.2/MSDK/app\ping.c **** 
 999              		.loc 1 452 30
 1000 00ae A947     		li	a5,10
 1001 00b0 1CCC     		sw	a5,24(s0)
 454:C:/Users/stapi/OneDrive/Desktop/GD32VW553/GD32VW55X_Wifi_BLE_SDK/GD32VW55x_RELEASE_V1.0.2/MSDK/app\ping.c ****         if (strcmp(argv[arg_cnt], "-n") == 0) {
 1002              		.loc 1 454 5 is_stmt 1
 1003 00b2 B104     		addi	s1,s1,12
 1004              	.LVL96:
 454:C:/Users/stapi/OneDrive/Desktop/GD32VW553/GD32VW55X_Wifi_BLE_SDK/GD32VW55x_RELEASE_V1.0.2/MSDK/app\ping.c ****         if (strcmp(argv[arg_cnt], "-n") == 0) {
 1005              		.loc 1 454 11 is_stmt 0
 1006 00b4 0D49     		li	s2,3
 455:C:/Users/stapi/OneDrive/Desktop/GD32VW553/GD32VW55X_Wifi_BLE_SDK/GD32VW55x_RELEASE_V1.0.2/MSDK/app\ping.c ****             if (argc <= (arg_cnt + 1))
 1007              		.loc 1 455 13
 1008 00b6 370B0000 		lui	s6,%hi(.LC14)
 460:C:/Users/stapi/OneDrive/Desktop/GD32VW553/GD32VW55X_Wifi_BLE_SDK/GD32VW55x_RELEASE_V1.0.2/MSDK/app\ping.c ****             if (argc <= (arg_cnt + 1))
 1009              		.loc 1 460 20
 1010 00ba B70B0000 		lui	s7,%hi(.LC15)
 485:C:/Users/stapi/OneDrive/Desktop/GD32VW553/GD32VW55X_Wifi_BLE_SDK/GD32VW55x_RELEASE_V1.0.2/MSDK/app\ping.c ****             if (argc <= (arg_cnt + 1))
 1011              		.loc 1 485 20
 1012 00be 370C0000 		lui	s8,%hi(.LC18)
 490:C:/Users/stapi/OneDrive/Desktop/GD32VW553/GD32VW55X_Wifi_BLE_SDK/GD32VW55x_RELEASE_V1.0.2/MSDK/app\ping.c ****             if (argc <= (arg_cnt + 1))
 1013              		.loc 1 490 20
 1014 00c2 B70C0000 		lui	s9,%hi(.LC19)
 495:C:/Users/stapi/OneDrive/Desktop/GD32VW553/GD32VW55X_Wifi_BLE_SDK/GD32VW55x_RELEASE_V1.0.2/MSDK/app\ping.c ****                 ping_info->ping_cnt = ping_time;
 1015              		.loc 1 495 42
 1016 00c6 130D803E 		li	s10,1000
 474:C:/Users/stapi/OneDrive/Desktop/GD32VW553/GD32VW55X_Wifi_BLE_SDK/GD32VW55x_RELEASE_V1.0.2/MSDK/app\ping.c ****                 app_print("ping fail!!!\r\n");
 1017              		.loc 1 474 16
 1018 00ca 938A0AF9 		addi	s5,s5,-112
 1019              	.LVL97:
 1020              	.L49:
 454:C:/Users/stapi/OneDrive/Desktop/GD32VW553/GD32VW55X_Wifi_BLE_SDK/GD32VW55x_RELEASE_V1.0.2/MSDK/app\ping.c ****         if (strcmp(argv[arg_cnt], "-n") == 0) {
 1021              		.loc 1 454 11 is_stmt 1
 1022 00ce 9307F9FF 		addi	a5,s2,-1
 1023              	.LVL98:
 1024 00d2 63EF3703 		bgtu	s3,a5,.L58
 1025              	.LVL99:
 1026              	.LBE55:
 1027              	.LBE54:
 549:C:/Users/stapi/OneDrive/Desktop/GD32VW553/GD32VW55X_Wifi_BLE_SDK/GD32VW55x_RELEASE_V1.0.2/MSDK/app\ping.c ****             (task_func_t)ping_task_func, ping_info);
 1028              		.loc 1 549 9
 549:C:/Users/stapi/OneDrive/Desktop/GD32VW553/GD32VW55X_Wifi_BLE_SDK/GD32VW55x_RELEASE_V1.0.2/MSDK/app\ping.c ****             (task_func_t)ping_task_func, ping_info);
 1029              		.loc 1 549 25 is_stmt 0
 1030 00d6 B7080000 		lui	a7,%hi(ping_task_func)
 1031 00da B7050000 		lui	a1,%hi(.LC31)
 1032 00de 22C0     		sw	s0,0(sp)
 1033 00e0 93880800 		addi	a7,a7,%lo(ping_task_func)
 1034 00e4 4548     		li	a6,17
 1035 00e6 8147     		li	a5,0
 1036 00e8 0147     		li	a4,0
 1037 00ea 93060020 		li	a3,512
 1038 00ee 0146     		li	a2,0
 1039 00f0 93850500 		addi	a1,a1,%lo(.LC31)
 1040 00f4 0145     		li	a0,0
 1041 00f6 97000000 		call	sys_task_create
 1041      E7800000 
 1042              	.LVL100:
 549:C:/Users/stapi/OneDrive/Desktop/GD32VW553/GD32VW55X_Wifi_BLE_SDK/GD32VW55x_RELEASE_V1.0.2/MSDK/app\ping.c ****             (task_func_t)ping_task_func, ping_info);
 1043              		.loc 1 549 23
 1044 00fe 2320AA00 		sw	a0,0(s4)
 551:C:/Users/stapi/OneDrive/Desktop/GD32VW553/GD32VW55X_Wifi_BLE_SDK/GD32VW55x_RELEASE_V1.0.2/MSDK/app\ping.c ****             app_print("ping: create ping task failed.\r\n");
 1045              		.loc 1 551 9 is_stmt 1
 551:C:/Users/stapi/OneDrive/Desktop/GD32VW553/GD32VW55X_Wifi_BLE_SDK/GD32VW55x_RELEASE_V1.0.2/MSDK/app\ping.c ****             app_print("ping: create ping task failed.\r\n");
 1046              		.loc 1 551 12 is_stmt 0
 1047 0102 63100518 		bne	a0,zero,.L60
 552:C:/Users/stapi/OneDrive/Desktop/GD32VW553/GD32VW55X_Wifi_BLE_SDK/GD32VW55x_RELEASE_V1.0.2/MSDK/app\ping.c ****             sys_mfree(ping_info);
 1048              		.loc 1 552 13 is_stmt 1
 1049 0106 37050000 		lui	a0,%hi(.LC32)
 1050 010a 13050500 		addi	a0,a0,%lo(.LC32)
 1051 010e 85A2     		j	.L67
 1052              	.LVL101:
 1053              	.L58:
 1054              	.LBB58:
 1055              	.LBB56:
 455:C:/Users/stapi/OneDrive/Desktop/GD32VW553/GD32VW55X_Wifi_BLE_SDK/GD32VW55x_RELEASE_V1.0.2/MSDK/app\ping.c ****             if (argc <= (arg_cnt + 1))
 1056              		.loc 1 455 9
 455:C:/Users/stapi/OneDrive/Desktop/GD32VW553/GD32VW55X_Wifi_BLE_SDK/GD32VW55x_RELEASE_V1.0.2/MSDK/app\ping.c ****             if (argc <= (arg_cnt + 1))
 1057              		.loc 1 455 13 is_stmt 0
 1058 0110 83ADC4FF 		lw	s11,-4(s1)
 1059 0114 93050B00 		addi	a1,s6,%lo(.LC14)
 1060 0118 6E85     		mv	a0,s11
 1061 011a 97000000 		call	strcmp
 1061      E7800000 
 1062              	.LVL102:
 455:C:/Users/stapi/OneDrive/Desktop/GD32VW553/GD32VW55X_Wifi_BLE_SDK/GD32VW55x_RELEASE_V1.0.2/MSDK/app\ping.c ****             if (argc <= (arg_cnt + 1))
 1063              		.loc 1 455 12
 1064 0122 11E9     		bne	a0,zero,.L50
 456:C:/Users/stapi/OneDrive/Desktop/GD32VW553/GD32VW55X_Wifi_BLE_SDK/GD32VW55x_RELEASE_V1.0.2/MSDK/app\ping.c ****                 goto Exit;
 1065              		.loc 1 456 13 is_stmt 1
 456:C:/Users/stapi/OneDrive/Desktop/GD32VW553/GD32VW55X_Wifi_BLE_SDK/GD32VW55x_RELEASE_V1.0.2/MSDK/app\ping.c ****                 goto Exit;
 1066              		.loc 1 456 16 is_stmt 0
 1067 0124 637A3915 		bleu	s3,s2,.L47
 458:C:/Users/stapi/OneDrive/Desktop/GD32VW553/GD32VW55X_Wifi_BLE_SDK/GD32VW55x_RELEASE_V1.0.2/MSDK/app\ping.c ****             arg_cnt += 2;
 1068              		.loc 1 458 13 is_stmt 1
 458:C:/Users/stapi/OneDrive/Desktop/GD32VW553/GD32VW55X_Wifi_BLE_SDK/GD32VW55x_RELEASE_V1.0.2/MSDK/app\ping.c ****             arg_cnt += 2;
 1069              		.loc 1 458 45 is_stmt 0
 1070 0128 8840     		lw	a0,0(s1)
 1071 012a 97000000 		call	atoi
 1071      E7800000 
 1072              	.LVL103:
 1073              	.L64:
 496:C:/Users/stapi/OneDrive/Desktop/GD32VW553/GD32VW55X_Wifi_BLE_SDK/GD32VW55x_RELEASE_V1.0.2/MSDK/app\ping.c ****             } else {
 1074              		.loc 1 496 17 is_stmt 1
 496:C:/Users/stapi/OneDrive/Desktop/GD32VW553/GD32VW55X_Wifi_BLE_SDK/GD32VW55x_RELEASE_V1.0.2/MSDK/app\ping.c ****             } else {
 1075              		.loc 1 496 37 is_stmt 0
 1076 0132 08C8     		sw	a0,16(s0)
 501:C:/Users/stapi/OneDrive/Desktop/GD32VW553/GD32VW55X_Wifi_BLE_SDK/GD32VW55x_RELEASE_V1.0.2/MSDK/app\ping.c ****         }
 1077              		.loc 1 501 13 is_stmt 1
 1078              	.LVL104:
 1079 0134 91A8     		j	.L51
 1080              	.LVL105:
 1081              	.L50:
 460:C:/Users/stapi/OneDrive/Desktop/GD32VW553/GD32VW55X_Wifi_BLE_SDK/GD32VW55x_RELEASE_V1.0.2/MSDK/app\ping.c ****             if (argc <= (arg_cnt + 1))
 1082              		.loc 1 460 16
 460:C:/Users/stapi/OneDrive/Desktop/GD32VW553/GD32VW55X_Wifi_BLE_SDK/GD32VW55x_RELEASE_V1.0.2/MSDK/app\ping.c ****             if (argc <= (arg_cnt + 1))
 1083              		.loc 1 460 20 is_stmt 0
 1084 0136 93850B00 		addi	a1,s7,%lo(.LC15)
 1085 013a 6E85     		mv	a0,s11
 1086 013c 97000000 		call	strcmp
 1086      E7800000 
 1087              	.LVL106:
 460:C:/Users/stapi/OneDrive/Desktop/GD32VW553/GD32VW55X_Wifi_BLE_SDK/GD32VW55x_RELEASE_V1.0.2/MSDK/app\ping.c ****             if (argc <= (arg_cnt + 1))
 1088              		.loc 1 460 19
 1089 0144 29E5     		bne	a0,zero,.L52
 461:C:/Users/stapi/OneDrive/Desktop/GD32VW553/GD32VW55X_Wifi_BLE_SDK/GD32VW55x_RELEASE_V1.0.2/MSDK/app\ping.c ****                 goto Exit;
 1090              		.loc 1 461 13 is_stmt 1
 461:C:/Users/stapi/OneDrive/Desktop/GD32VW553/GD32VW55X_Wifi_BLE_SDK/GD32VW55x_RELEASE_V1.0.2/MSDK/app\ping.c ****                 goto Exit;
 1091              		.loc 1 461 16 is_stmt 0
 1092 0146 63793913 		bleu	s3,s2,.L47
 463:C:/Users/stapi/OneDrive/Desktop/GD32VW553/GD32VW55X_Wifi_BLE_SDK/GD32VW55x_RELEASE_V1.0.2/MSDK/app\ping.c ****             #if 0
 1093              		.loc 1 463 13 is_stmt 1
 463:C:/Users/stapi/OneDrive/Desktop/GD32VW553/GD32VW55X_Wifi_BLE_SDK/GD32VW55x_RELEASE_V1.0.2/MSDK/app\ping.c ****             #if 0
 1094              		.loc 1 463 35 is_stmt 0
 1095 014a 8840     		lw	a0,0(s1)
 1096 014c 97000000 		call	atoi
 1096      E7800000 
 1097              	.LVL107:
 474:C:/Users/stapi/OneDrive/Desktop/GD32VW553/GD32VW55X_Wifi_BLE_SDK/GD32VW55x_RELEASE_V1.0.2/MSDK/app\ping.c ****                 app_print("ping fail!!!\r\n");
 1098              		.loc 1 474 13 is_stmt 1
 474:C:/Users/stapi/OneDrive/Desktop/GD32VW553/GD32VW55X_Wifi_BLE_SDK/GD32VW55x_RELEASE_V1.0.2/MSDK/app\ping.c ****                 app_print("ping fail!!!\r\n");
 1099              		.loc 1 474 16 is_stmt 0
 1100 0154 63F9AA02 		bleu	a0,s5,.L53
 475:C:/Users/stapi/OneDrive/Desktop/GD32VW553/GD32VW55X_Wifi_BLE_SDK/GD32VW55x_RELEASE_V1.0.2/MSDK/app\ping.c ****                 /* 1480 = LLC_ETHER_MTU(1500) - IP Header len(20) */
 1101              		.loc 1 475 17 is_stmt 1
 1102 0158 37050000 		lui	a0,%hi(.LC16)
 1103              	.LVL108:
 1104 015c 13050500 		addi	a0,a0,%lo(.LC16)
 1105 0160 97000000 		call	co_printf
 1105      E7800000 
 1106              	.LVL109:
 477:C:/Users/stapi/OneDrive/Desktop/GD32VW553/GD32VW55X_Wifi_BLE_SDK/GD32VW55x_RELEASE_V1.0.2/MSDK/app\ping.c ****                             "\t\t\tping size <= (IP_REASS_MAX_PBUFS * 1480 - 8)(%d) in lwipopts.h\r
 1107              		.loc 1 477 17
 1108 0168 37050000 		lui	a0,%hi(.LC17)
 1109 016c D685     		mv	a1,s5
 1110 016e 13050500 		addi	a0,a0,%lo(.LC17)
 1111 0172 97000000 		call	co_printf
 1111      E7800000 
 1112              	.LVL110:
 480:C:/Users/stapi/OneDrive/Desktop/GD32VW553/GD32VW55X_Wifi_BLE_SDK/GD32VW55x_RELEASE_V1.0.2/MSDK/app\ping.c ****             }
 1113              		.loc 1 480 17
 1114              	.L54:
 1115              	.LBE56:
 1116              	.LBE58:
 559:C:/Users/stapi/OneDrive/Desktop/GD32VW553/GD32VW55X_Wifi_BLE_SDK/GD32VW55x_RELEASE_V1.0.2/MSDK/app\ping.c ****     }
 1117              		.loc 1 559 9
 1118 017a 2285     		mv	a0,s0
 1119 017c 97000000 		call	sys_mfree
 1119      E7800000 
 1120              	.LVL111:
 1121 0184 75B5     		j	.L42
 1122              	.LVL112:
 1123              	.L53:
 1124              	.LBB59:
 1125              	.LBB57:
 483:C:/Users/stapi/OneDrive/Desktop/GD32VW553/GD32VW55X_Wifi_BLE_SDK/GD32VW55x_RELEASE_V1.0.2/MSDK/app\ping.c ****             arg_cnt += 2;
 1126              		.loc 1 483 13
 483:C:/Users/stapi/OneDrive/Desktop/GD32VW553/GD32VW55X_Wifi_BLE_SDK/GD32VW55x_RELEASE_V1.0.2/MSDK/app\ping.c ****             arg_cnt += 2;
 1127              		.loc 1 483 34 is_stmt 0
 1128 0186 48C8     		sw	a0,20(s0)
 484:C:/Users/stapi/OneDrive/Desktop/GD32VW553/GD32VW55X_Wifi_BLE_SDK/GD32VW55x_RELEASE_V1.0.2/MSDK/app\ping.c ****         } else if (strcmp(argv[arg_cnt], "-i") == 0) {
 1129              		.loc 1 484 13 is_stmt 1
 1130              	.LVL113:
 1131              	.L51:
 1132 0188 0909     		addi	s2,s2,2
 1133 018a A104     		addi	s1,s1,8
 1134 018c 89B7     		j	.L49
 1135              	.LVL114:
 1136              	.L52:
 485:C:/Users/stapi/OneDrive/Desktop/GD32VW553/GD32VW55X_Wifi_BLE_SDK/GD32VW55x_RELEASE_V1.0.2/MSDK/app\ping.c ****             if (argc <= (arg_cnt + 1))
 1137              		.loc 1 485 16
 485:C:/Users/stapi/OneDrive/Desktop/GD32VW553/GD32VW55X_Wifi_BLE_SDK/GD32VW55x_RELEASE_V1.0.2/MSDK/app\ping.c ****             if (argc <= (arg_cnt + 1))
 1138              		.loc 1 485 20 is_stmt 0
 1139 018e 93050C00 		addi	a1,s8,%lo(.LC18)
 1140 0192 6E85     		mv	a0,s11
 1141 0194 97000000 		call	strcmp
 1141      E7800000 
 1142              	.LVL115:
 485:C:/Users/stapi/OneDrive/Desktop/GD32VW553/GD32VW55X_Wifi_BLE_SDK/GD32VW55x_RELEASE_V1.0.2/MSDK/app\ping.c ****             if (argc <= (arg_cnt + 1))
 1143              		.loc 1 485 19
 1144 019c 11E9     		bne	a0,zero,.L55
 486:C:/Users/stapi/OneDrive/Desktop/GD32VW553/GD32VW55X_Wifi_BLE_SDK/GD32VW55x_RELEASE_V1.0.2/MSDK/app\ping.c ****                 goto Exit;
 1145              		.loc 1 486 13 is_stmt 1
 486:C:/Users/stapi/OneDrive/Desktop/GD32VW553/GD32VW55X_Wifi_BLE_SDK/GD32VW55x_RELEASE_V1.0.2/MSDK/app\ping.c ****                 goto Exit;
 1146              		.loc 1 486 16 is_stmt 0
 1147 019e 637D390D 		bleu	s3,s2,.L47
 488:C:/Users/stapi/OneDrive/Desktop/GD32VW553/GD32VW55X_Wifi_BLE_SDK/GD32VW55x_RELEASE_V1.0.2/MSDK/app\ping.c ****             arg_cnt += 2;
 1148              		.loc 1 488 13 is_stmt 1
 488:C:/Users/stapi/OneDrive/Desktop/GD32VW553/GD32VW55X_Wifi_BLE_SDK/GD32VW55x_RELEASE_V1.0.2/MSDK/app\ping.c ****             arg_cnt += 2;
 1149              		.loc 1 488 50 is_stmt 0
 1150 01a2 8840     		lw	a0,0(s1)
 1151 01a4 97000000 		call	atoi
 1151      E7800000 
 1152              	.LVL116:
 488:C:/Users/stapi/OneDrive/Desktop/GD32VW553/GD32VW55X_Wifi_BLE_SDK/GD32VW55x_RELEASE_V1.0.2/MSDK/app\ping.c ****             arg_cnt += 2;
 1153              		.loc 1 488 38
 1154 01ac 08CC     		sw	a0,24(s0)
 489:C:/Users/stapi/OneDrive/Desktop/GD32VW553/GD32VW55X_Wifi_BLE_SDK/GD32VW55x_RELEASE_V1.0.2/MSDK/app\ping.c ****         } else if (strcmp(argv[arg_cnt], "-t") == 0) {
 1155              		.loc 1 489 13 is_stmt 1
 1156              	.LVL117:
 1157 01ae E9BF     		j	.L51
 1158              	.LVL118:
 1159              	.L55:
 490:C:/Users/stapi/OneDrive/Desktop/GD32VW553/GD32VW55X_Wifi_BLE_SDK/GD32VW55x_RELEASE_V1.0.2/MSDK/app\ping.c ****             if (argc <= (arg_cnt + 1))
 1160              		.loc 1 490 16
 490:C:/Users/stapi/OneDrive/Desktop/GD32VW553/GD32VW55X_Wifi_BLE_SDK/GD32VW55x_RELEASE_V1.0.2/MSDK/app\ping.c ****             if (argc <= (arg_cnt + 1))
 1161              		.loc 1 490 20 is_stmt 0
 1162 01b0 93850C00 		addi	a1,s9,%lo(.LC19)
 1163 01b4 6E85     		mv	a0,s11
 1164 01b6 97000000 		call	strcmp
 1164      E7800000 
 1165              	.LVL119:
 490:C:/Users/stapi/OneDrive/Desktop/GD32VW553/GD32VW55X_Wifi_BLE_SDK/GD32VW55x_RELEASE_V1.0.2/MSDK/app\ping.c ****             if (argc <= (arg_cnt + 1))
 1166              		.loc 1 490 19
 1167 01be 4DED     		bne	a0,zero,.L47
 491:C:/Users/stapi/OneDrive/Desktop/GD32VW553/GD32VW55X_Wifi_BLE_SDK/GD32VW55x_RELEASE_V1.0.2/MSDK/app\ping.c ****                 goto Exit;
 1168              		.loc 1 491 13 is_stmt 1
 491:C:/Users/stapi/OneDrive/Desktop/GD32VW553/GD32VW55X_Wifi_BLE_SDK/GD32VW55x_RELEASE_V1.0.2/MSDK/app\ping.c ****                 goto Exit;
 1169              		.loc 1 491 16 is_stmt 0
 1170 01c0 637C390B 		bleu	s3,s2,.L47
 493:C:/Users/stapi/OneDrive/Desktop/GD32VW553/GD32VW55X_Wifi_BLE_SDK/GD32VW55x_RELEASE_V1.0.2/MSDK/app\ping.c ****             if (ping_time > 0) {
 1171              		.loc 1 493 13 is_stmt 1
 493:C:/Users/stapi/OneDrive/Desktop/GD32VW553/GD32VW55X_Wifi_BLE_SDK/GD32VW55x_RELEASE_V1.0.2/MSDK/app\ping.c ****             if (ping_time > 0) {
 1172              		.loc 1 493 35 is_stmt 0
 1173 01c4 8840     		lw	a0,0(s1)
 1174 01c6 97000000 		call	atoi
 1174      E7800000 
 1175              	.LVL120:
 494:C:/Users/stapi/OneDrive/Desktop/GD32VW553/GD32VW55X_Wifi_BLE_SDK/GD32VW55x_RELEASE_V1.0.2/MSDK/app\ping.c ****                 ping_info->ping_interval = 1000;
 1176              		.loc 1 494 13 is_stmt 1
 494:C:/Users/stapi/OneDrive/Desktop/GD32VW553/GD32VW55X_Wifi_BLE_SDK/GD32VW55x_RELEASE_V1.0.2/MSDK/app\ping.c ****                 ping_info->ping_interval = 1000;
 1177              		.loc 1 494 16 is_stmt 0
 1178 01ce 01C5     		beq	a0,zero,.L56
 495:C:/Users/stapi/OneDrive/Desktop/GD32VW553/GD32VW55X_Wifi_BLE_SDK/GD32VW55x_RELEASE_V1.0.2/MSDK/app\ping.c ****                 ping_info->ping_cnt = ping_time;
 1179              		.loc 1 495 17 is_stmt 1
 495:C:/Users/stapi/OneDrive/Desktop/GD32VW553/GD32VW55X_Wifi_BLE_SDK/GD32VW55x_RELEASE_V1.0.2/MSDK/app\ping.c ****                 ping_info->ping_cnt = ping_time;
 1180              		.loc 1 495 42 is_stmt 0
 1181 01d0 232CA401 		sw	s10,24(s0)
 1182 01d4 B9BF     		j	.L64
 1183              	.L56:
 498:C:/Users/stapi/OneDrive/Desktop/GD32VW553/GD32VW55X_Wifi_BLE_SDK/GD32VW55x_RELEASE_V1.0.2/MSDK/app\ping.c ****                 goto Usage;
 1184              		.loc 1 498 17 is_stmt 1
 1185 01d6 37050000 		lui	a0,%hi(.LC20)
 1186              	.LVL121:
 1187 01da 13050500 		addi	a0,a0,%lo(.LC20)
 1188              	.LVL122:
 1189              	.L65:
 1190              	.L57:
 510:C:/Users/stapi/OneDrive/Desktop/GD32VW553/GD32VW55X_Wifi_BLE_SDK/GD32VW55x_RELEASE_V1.0.2/MSDK/app\ping.c **** Usage:
 1191              		.loc 1 510 5 is_stmt 0
 1192 01de 97000000 		call	co_printf
 1192      E7800000 
 1193              	.LVL123:
 512:C:/Users/stapi/OneDrive/Desktop/GD32VW553/GD32VW55X_Wifi_BLE_SDK/GD32VW55x_RELEASE_V1.0.2/MSDK/app\ping.c ****     app_print("ping <target_ip | stop> [-n count] [-l size] [-i interval] [-t total time]\r\n");
 1194              		.loc 1 512 5 is_stmt 1
 1195 01e6 37050000 		lui	a0,%hi(.LC22)
 1196 01ea 13050500 		addi	a0,a0,%lo(.LC22)
 1197 01ee 97000000 		call	co_printf
 1197      E7800000 
 1198              	.LVL124:
 513:C:/Users/stapi/OneDrive/Desktop/GD32VW553/GD32VW55X_Wifi_BLE_SDK/GD32VW55x_RELEASE_V1.0.2/MSDK/app\ping.c ****     app_print("    target_ip <ipv4_addr> or <-6 ipv6_addr>(if IPV6 support)\r\n");
 1199              		.loc 1 513 5
 1200 01f6 37050000 		lui	a0,%hi(.LC23)
 1201 01fa 13050500 		addi	a0,a0,%lo(.LC23)
 1202 01fe 97000000 		call	co_printf
 1202      E7800000 
 1203              	.LVL125:
 514:C:/Users/stapi/OneDrive/Desktop/GD32VW553/GD32VW55X_Wifi_BLE_SDK/GD32VW55x_RELEASE_V1.0.2/MSDK/app\ping.c ****     app_print("    stop ping stop\r\n");
 1204              		.loc 1 514 5
 1205 0206 37050000 		lui	a0,%hi(.LC24)
 1206 020a 13050500 		addi	a0,a0,%lo(.LC24)
 1207 020e 97000000 		call	co_printf
 1207      E7800000 
 1208              	.LVL126:
 515:C:/Users/stapi/OneDrive/Desktop/GD32VW553/GD32VW55X_Wifi_BLE_SDK/GD32VW55x_RELEASE_V1.0.2/MSDK/app\ping.c ****     app_print("    -n   number of echo request to run(default 5)\r\n");
 1209              		.loc 1 515 5
 1210 0216 37050000 		lui	a0,%hi(.LC25)
 1211 021a 13050500 		addi	a0,a0,%lo(.LC25)
 1212 021e 97000000 		call	co_printf
 1212      E7800000 
 1213              	.LVL127:
 516:C:/Users/stapi/OneDrive/Desktop/GD32VW553/GD32VW55X_Wifi_BLE_SDK/GD32VW55x_RELEASE_V1.0.2/MSDK/app\ping.c ****     app_print("    -l   ping size of single ping test(default 120B)\r\n");
 1214              		.loc 1 516 5
 1215 0226 37050000 		lui	a0,%hi(.LC26)
 1216 022a 13050500 		addi	a0,a0,%lo(.LC26)
 1217 022e 97000000 		call	co_printf
 1217      E7800000 
 1218              	.LVL128:
 517:C:/Users/stapi/OneDrive/Desktop/GD32VW553/GD32VW55X_Wifi_BLE_SDK/GD32VW55x_RELEASE_V1.0.2/MSDK/app\ping.c ****     app_print("    -i   time interval between single echo request(unit:ms) (default 10ms)\r\n");
 1219              		.loc 1 517 5
 1220 0236 37050000 		lui	a0,%hi(.LC27)
 1221 023a 13050500 		addi	a0,a0,%lo(.LC27)
 1222 023e 97000000 		call	co_printf
 1222      E7800000 
 1223              	.LVL129:
 518:C:/Users/stapi/OneDrive/Desktop/GD32VW553/GD32VW55X_Wifi_BLE_SDK/GD32VW55x_RELEASE_V1.0.2/MSDK/app\ping.c ****     app_print("    -t   total run time(unit:second) (default not use)\r\n");
 1224              		.loc 1 518 5
 1225 0246 37050000 		lui	a0,%hi(.LC28)
 1226 024a 13050500 		addi	a0,a0,%lo(.LC28)
 1227 024e 97000000 		call	co_printf
 1227      E7800000 
 1228              	.LVL130:
 519:C:/Users/stapi/OneDrive/Desktop/GD32VW553/GD32VW55X_Wifi_BLE_SDK/GD32VW55x_RELEASE_V1.0.2/MSDK/app\ping.c ****     app_print("Note: when -t option is enabled, time interval's default value is 1000ms,"\
 1229              		.loc 1 519 5
 1230 0256 37050000 		lui	a0,%hi(.LC29)
 1231 025a 13050500 		addi	a0,a0,%lo(.LC29)
 1232 025e 97000000 		call	co_printf
 1232      E7800000 
 1233              	.LVL131:
 520:C:/Users/stapi/OneDrive/Desktop/GD32VW553/GD32VW55X_Wifi_BLE_SDK/GD32VW55x_RELEASE_V1.0.2/MSDK/app\ping.c ****                 "and ping test number equals to time\r\n");
 1234              		.loc 1 520 5
 1235 0266 37050000 		lui	a0,%hi(.LC30)
 1236 026a 13050500 		addi	a0,a0,%lo(.LC30)
 1237              	.LVL132:
 1238              	.L67:
 1239 026e 97000000 		call	co_printf
 1239      E7800000 
 1240              	.LVL133:
 522:C:/Users/stapi/OneDrive/Desktop/GD32VW553/GD32VW55X_Wifi_BLE_SDK/GD32VW55x_RELEASE_V1.0.2/MSDK/app\ping.c **** }
 1241              		.loc 1 522 5
 1242 0276 11B7     		j	.L54
 1243              	.LVL134:
 1244              	.L47:
 1245              	.LDL1:
 510:C:/Users/stapi/OneDrive/Desktop/GD32VW553/GD32VW55X_Wifi_BLE_SDK/GD32VW55x_RELEASE_V1.0.2/MSDK/app\ping.c **** Usage:
 1246              		.loc 1 510 5
 1247 0278 37050000 		lui	a0,%hi(.LC21)
 1248 027c 13050500 		addi	a0,a0,%lo(.LC21)
 1249 0280 B9BF     		j	.L65
 1250              	.LVL135:
 1251              	.L60:
 1252              	.LBE57:
 1253              	.LBE59:
 557:C:/Users/stapi/OneDrive/Desktop/GD32VW553/GD32VW55X_Wifi_BLE_SDK/GD32VW55x_RELEASE_V1.0.2/MSDK/app\ping.c ****     } else {
 1254              		.loc 1 557 9
 557:C:/Users/stapi/OneDrive/Desktop/GD32VW553/GD32VW55X_Wifi_BLE_SDK/GD32VW55x_RELEASE_V1.0.2/MSDK/app\ping.c ****     } else {
 1255              		.loc 1 557 24 is_stmt 0
 1256 0282 B7070000 		lui	a5,%hi(.LANCHOR0)
 1257 0286 23800700 		sb	zero,%lo(.LANCHOR0)(a5)
 1258 028a 5DB3     		j	.L42
 1259              		.cfi_endproc
 1260              	.LFE11:
 1262              		.section	.sbss.ping_task_hdl,"aw",@nobits
 1263              		.align	2
 1264              		.set	.LANCHOR1,. + 0
 1267              	ping_task_hdl:
 1268 0000 00000000 		.zero	4
 1269              		.section	.sbss.ping_terminate,"aw",@nobits
 1270              		.set	.LANCHOR0,. + 0
 1273              	ping_terminate:
 1274 0000 00       		.zero	1
 1275              		.text
 1276              	.Letext0:
 1277              		.file 2 "c:\\users\\stapi\\onedrive\\desktop\\gd32vw553\\embeddedbuilder_v1.4.7.26843\\tools\\nucl
 1278              		.file 3 "c:\\users\\stapi\\onedrive\\desktop\\gd32vw553\\embeddedbuilder_v1.4.7.26843\\tools\\nucl
 1279              		.file 4 "c:\\users\\stapi\\onedrive\\desktop\\gd32vw553\\embeddedbuilder_v1.4.7.26843\\tools\\nucl
 1280              		.file 5 "..\\..\\..\\..\\lwip\\lwip-2.1.2\\src\\include/lwip/arch.h"
 1281              		.file 6 "..\\..\\..\\..\\lwip\\lwip-2.1.2\\src\\include/lwip/err.h"
 1282              		.file 7 "..\\..\\..\\..\\lwip\\lwip-2.1.2\\src\\include/lwip/ip4_addr.h"
 1283              		.file 8 "..\\..\\..\\..\\lwip\\lwip-2.1.2\\src\\include/lwip/ip_addr.h"
 1284              		.file 9 "..\\..\\..\\..\\lwip\\lwip-2.1.2\\src\\include/lwip/memp.h"
 1285              		.file 10 "..\\..\\..\\..\\lwip\\lwip-2.1.2\\src\\include/lwip/prot/icmp.h"
 1286              		.file 11 "..\\..\\..\\..\\rtos\\rtos_wrapper/wrapper_os.h"
 1287              		.file 12 "..\\..\\..\\..\\lwip\\lwip-2.1.2\\src\\include/lwip/inet.h"
 1288              		.file 13 "..\\..\\..\\..\\lwip\\lwip-2.1.2\\src\\include/lwip/sockets.h"
 1289              		.file 14 "..\\..\\..\\..\\lwip\\lwip-2.1.2\\src\\include/lwip/prot/ip4.h"
 1290              		.file 15 "C:/Users/stapi/OneDrive/Desktop/GD32VW553/GD32VW55X_Wifi_BLE_SDK/GD32VW55x_RELEASE_V1.0.
 1291              		.file 16 "c:\\users\\stapi\\onedrive\\desktop\\gd32vw553\\embeddedbuilder_v1.4.7.26843\\tools\\nuc
 1292              		.file 17 "c:\\users\\stapi\\onedrive\\desktop\\gd32vw553\\embeddedbuilder_v1.4.7.26843\\tools\\nuc
 1293              		.file 18 "..\\..\\..\\..\\util\\include/debug_print.h"
 1294              		.file 19 "..\\..\\..\\..\\lwip\\lwip-2.1.2\\src\\include/lwip/def.h"
 1295              		.file 20 "..\\..\\..\\..\\lwip\\lwip-2.1.2\\src\\include/lwip/inet_chksum.h"
 1296              		.file 21 "c:\\users\\stapi\\onedrive\\desktop\\gd32vw553\\embeddedbuilder_v1.4.7.26843\\tools\\nuc
 1297              		.file 22 "..\\..\\..\\..\\lwip\\lwip-2.1.2\\src\\include/lwip/netif.h"
 1298              		.file 23 "<built-in>"
DEFINED SYMBOLS
                            *ABS*:0000000000000000 ping.c
C:\Users\stapi\AppData\Local\Temp\ccXmRZoJ.s:44     .text.ping:0000000000000000 ping
C:\Users\stapi\AppData\Local\Temp\ccXmRZoJ.s:48     .text.ping:0000000000000000 .L0 
C:\Users\stapi\AppData\Local\Temp\ccXmRZoJ.s:50     .text.ping:0000000000000000 .L0 
C:\Users\stapi\AppData\Local\Temp\ccXmRZoJ.s:51     .text.ping:0000000000000008 .L0 
C:\Users\stapi\AppData\Local\Temp\ccXmRZoJ.s:52     .text.ping:0000000000000008 .L0 
C:\Users\stapi\AppData\Local\Temp\ccXmRZoJ.s:53     .text.ping:0000000000000008 .L0 
C:\Users\stapi\AppData\Local\Temp\ccXmRZoJ.s:54     .text.ping:0000000000000008 .L0 
C:\Users\stapi\AppData\Local\Temp\ccXmRZoJ.s:55     .text.ping:0000000000000008 .L0 
C:\Users\stapi\AppData\Local\Temp\ccXmRZoJ.s:56     .text.ping:0000000000000008 .L0 
C:\Users\stapi\AppData\Local\Temp\ccXmRZoJ.s:57     .text.ping:0000000000000008 .L0 
C:\Users\stapi\AppData\Local\Temp\ccXmRZoJ.s:58     .text.ping:0000000000000008 .L0 
C:\Users\stapi\AppData\Local\Temp\ccXmRZoJ.s:59     .text.ping:0000000000000008 .L0 
C:\Users\stapi\AppData\Local\Temp\ccXmRZoJ.s:60     .text.ping:0000000000000008 .L0 
C:\Users\stapi\AppData\Local\Temp\ccXmRZoJ.s:61     .text.ping:0000000000000008 .L0 
C:\Users\stapi\AppData\Local\Temp\ccXmRZoJ.s:62     .text.ping:0000000000000008 .L0 
C:\Users\stapi\AppData\Local\Temp\ccXmRZoJ.s:63     .text.ping:0000000000000008 .L0 
C:\Users\stapi\AppData\Local\Temp\ccXmRZoJ.s:64     .text.ping:0000000000000008 .L0 
C:\Users\stapi\AppData\Local\Temp\ccXmRZoJ.s:66     .text.ping:0000000000000008 .L0 
C:\Users\stapi\AppData\Local\Temp\ccXmRZoJ.s:67     .text.ping:0000000000000008 .L0 
C:\Users\stapi\AppData\Local\Temp\ccXmRZoJ.s:68     .text.ping:0000000000000008 .L0 
C:\Users\stapi\AppData\Local\Temp\ccXmRZoJ.s:69     .text.ping:000000000000000a .L0 
C:\Users\stapi\AppData\Local\Temp\ccXmRZoJ.s:71     .text.ping:000000000000000a .L0 
C:\Users\stapi\AppData\Local\Temp\ccXmRZoJ.s:74     .text.ping:0000000000000010 .L0 
C:\Users\stapi\AppData\Local\Temp\ccXmRZoJ.s:75     .text.ping:0000000000000010 .L0 
C:\Users\stapi\AppData\Local\Temp\ccXmRZoJ.s:77     .text.ping:0000000000000010 .L0 
C:\Users\stapi\AppData\Local\Temp\ccXmRZoJ.s:78     .text.ping:0000000000000010 .L0 
C:\Users\stapi\AppData\Local\Temp\ccXmRZoJ.s:79     .text.ping:0000000000000010 .L0 
C:\Users\stapi\AppData\Local\Temp\ccXmRZoJ.s:81     .text.ping:0000000000000012 .L0 
C:\Users\stapi\AppData\Local\Temp\ccXmRZoJ.s:83     .text.ping:0000000000000016 .L0 
C:\Users\stapi\AppData\Local\Temp\ccXmRZoJ.s:85     .text.ping:000000000000001a .L0 
C:\Users\stapi\AppData\Local\Temp\ccXmRZoJ.s:88     .text.ping:000000000000001c .L0 
C:\Users\stapi\AppData\Local\Temp\ccXmRZoJ.s:89     .text.ping:000000000000001c .L0 
C:\Users\stapi\AppData\Local\Temp\ccXmRZoJ.s:92     .text.ping:000000000000001e .L0 
C:\Users\stapi\AppData\Local\Temp\ccXmRZoJ.s:94     .text.ping:0000000000000022 .L0 
C:\Users\stapi\AppData\Local\Temp\ccXmRZoJ.s:96     .text.ping:0000000000000024 .L0 
C:\Users\stapi\AppData\Local\Temp\ccXmRZoJ.s:98     .text.ping:0000000000000026 .L0 
C:\Users\stapi\AppData\Local\Temp\ccXmRZoJ.s:101    .text.ping:000000000000002c .L0 
C:\Users\stapi\AppData\Local\Temp\ccXmRZoJ.s:104    .text.ping:0000000000000030 .L0 
C:\Users\stapi\AppData\Local\Temp\ccXmRZoJ.s:105    .text.ping:0000000000000030 .L0 
C:\Users\stapi\AppData\Local\Temp\ccXmRZoJ.s:106    .text.ping:0000000000000030 .L0 
C:\Users\stapi\AppData\Local\Temp\ccXmRZoJ.s:107    .text.ping:0000000000000030 .L0 
C:\Users\stapi\AppData\Local\Temp\ccXmRZoJ.s:108    .text.ping:0000000000000030 .L0 
C:\Users\stapi\AppData\Local\Temp\ccXmRZoJ.s:109    .text.ping:0000000000000030 .L0 
C:\Users\stapi\AppData\Local\Temp\ccXmRZoJ.s:110    .text.ping:0000000000000030 .L0 
C:\Users\stapi\AppData\Local\Temp\ccXmRZoJ.s:111    .text.ping:0000000000000030 .L0 
C:\Users\stapi\AppData\Local\Temp\ccXmRZoJ.s:112    .text.ping:0000000000000030 .L0 
C:\Users\stapi\AppData\Local\Temp\ccXmRZoJ.s:113    .text.ping:0000000000000030 .L0 
C:\Users\stapi\AppData\Local\Temp\ccXmRZoJ.s:114    .text.ping:0000000000000030 .L0 
C:\Users\stapi\AppData\Local\Temp\ccXmRZoJ.s:116    .text.ping:0000000000000032 .L0 
C:\Users\stapi\AppData\Local\Temp\ccXmRZoJ.s:119    .text.ping:000000000000003a .L0 
C:\Users\stapi\AppData\Local\Temp\ccXmRZoJ.s:122    .text.ping:000000000000003e .L0 
C:\Users\stapi\AppData\Local\Temp\ccXmRZoJ.s:123    .text.ping:000000000000003e .L0 
C:\Users\stapi\AppData\Local\Temp\ccXmRZoJ.s:124    .text.ping:000000000000003e .L0 
C:\Users\stapi\AppData\Local\Temp\ccXmRZoJ.s:125    .text.ping:000000000000003e .L0 
C:\Users\stapi\AppData\Local\Temp\ccXmRZoJ.s:127    .text.ping:0000000000000042 .L0 
C:\Users\stapi\AppData\Local\Temp\ccXmRZoJ.s:129    .text.ping:0000000000000046 .L0 
C:\Users\stapi\AppData\Local\Temp\ccXmRZoJ.s:131    .text.ping:0000000000000048 .L0 
C:\Users\stapi\AppData\Local\Temp\ccXmRZoJ.s:136    .text.ping:0000000000000054 .L0 
C:\Users\stapi\AppData\Local\Temp\ccXmRZoJ.s:138    .text.ping:0000000000000058 .L0 
C:\Users\stapi\AppData\Local\Temp\ccXmRZoJ.s:139    .text.ping:0000000000000058 .L0 
C:\Users\stapi\AppData\Local\Temp\ccXmRZoJ.s:141    .text.ping:000000000000005a .L0 
C:\Users\stapi\AppData\Local\Temp\ccXmRZoJ.s:147    .text.ping:000000000000006a .L0 
C:\Users\stapi\AppData\Local\Temp\ccXmRZoJ.s:148    .text.ping:000000000000006a .L0 
C:\Users\stapi\AppData\Local\Temp\ccXmRZoJ.s:149    .text.ping:000000000000006a .L0 
C:\Users\stapi\AppData\Local\Temp\ccXmRZoJ.s:153    .text.ping:000000000000006c .L0 
C:\Users\stapi\AppData\Local\Temp\ccXmRZoJ.s:154    .text.ping:000000000000006e .L0 
C:\Users\stapi\AppData\Local\Temp\ccXmRZoJ.s:155    .text.ping:000000000000006e .L0 
C:\Users\stapi\AppData\Local\Temp\ccXmRZoJ.s:158    .text.ping:0000000000000076 .L0 
C:\Users\stapi\AppData\Local\Temp\ccXmRZoJ.s:159    .text.ping:0000000000000076 .L0 
C:\Users\stapi\AppData\Local\Temp\ccXmRZoJ.s:160    .text.ping:0000000000000076 .L0 
C:\Users\stapi\AppData\Local\Temp\ccXmRZoJ.s:161    .text.ping:0000000000000076 .L0 
C:\Users\stapi\AppData\Local\Temp\ccXmRZoJ.s:162    .text.ping:0000000000000076 .L0 
C:\Users\stapi\AppData\Local\Temp\ccXmRZoJ.s:163    .text.ping:0000000000000076 .L0 
C:\Users\stapi\AppData\Local\Temp\ccXmRZoJ.s:164    .text.ping:0000000000000076 .L0 
C:\Users\stapi\AppData\Local\Temp\ccXmRZoJ.s:165    .text.ping:0000000000000076 .L0 
C:\Users\stapi\AppData\Local\Temp\ccXmRZoJ.s:166    .text.ping:0000000000000076 .L0 
C:\Users\stapi\AppData\Local\Temp\ccXmRZoJ.s:167    .text.ping:0000000000000076 .L0 
C:\Users\stapi\AppData\Local\Temp\ccXmRZoJ.s:168    .text.ping:0000000000000076 .L0 
C:\Users\stapi\AppData\Local\Temp\ccXmRZoJ.s:169    .text.ping:0000000000000076 .L0 
C:\Users\stapi\AppData\Local\Temp\ccXmRZoJ.s:170    .text.ping:0000000000000076 .L0 
C:\Users\stapi\AppData\Local\Temp\ccXmRZoJ.s:171    .text.ping:0000000000000076 .L0 
C:\Users\stapi\AppData\Local\Temp\ccXmRZoJ.s:174    .text.ping:0000000000000076 .L0 
C:\Users\stapi\AppData\Local\Temp\ccXmRZoJ.s:176    .text.ping:0000000000000076 .L0 
C:\Users\stapi\AppData\Local\Temp\ccXmRZoJ.s:177    .text.ping:0000000000000076 .L0 
C:\Users\stapi\AppData\Local\Temp\ccXmRZoJ.s:185    .text.ping:0000000000000086 .L0 
C:\Users\stapi\AppData\Local\Temp\ccXmRZoJ.s:186    .text.ping:0000000000000086 .L0 
C:\Users\stapi\AppData\Local\Temp\ccXmRZoJ.s:188    .text.ping:000000000000008a .L0 
C:\Users\stapi\AppData\Local\Temp\ccXmRZoJ.s:193    .text.ping:000000000000009a .L0 
C:\Users\stapi\AppData\Local\Temp\ccXmRZoJ.s:199    .text.ping:00000000000000a8 .L0 
C:\Users\stapi\AppData\Local\Temp\ccXmRZoJ.s:207    .text.ping:00000000000000bc .L0 
C:\Users\stapi\AppData\Local\Temp\ccXmRZoJ.s:219    .text.ping:00000000000000da .L0 
C:\Users\stapi\AppData\Local\Temp\ccXmRZoJ.s:225    .text.ping:00000000000000e8 .L0 
C:\Users\stapi\AppData\Local\Temp\ccXmRZoJ.s:227    .text.ping:00000000000000ec .L0 
C:\Users\stapi\AppData\Local\Temp\ccXmRZoJ.s:229    .text.ping:00000000000000ee .L0 
C:\Users\stapi\AppData\Local\Temp\ccXmRZoJ.s:233    .text.ping:00000000000000f0 .L0 
C:\Users\stapi\AppData\Local\Temp\ccXmRZoJ.s:242    .text.ping:00000000000000f6 .L0 
C:\Users\stapi\AppData\Local\Temp\ccXmRZoJ.s:248    .text.ping:00000000000000f8 .L0 
C:\Users\stapi\AppData\Local\Temp\ccXmRZoJ.s:252    .text.ping:00000000000000fc .L0 
C:\Users\stapi\AppData\Local\Temp\ccXmRZoJ.s:256    .text.ping:00000000000000fe .L0 
C:\Users\stapi\AppData\Local\Temp\ccXmRZoJ.s:263    .text.ping:0000000000000100 .L0 
C:\Users\stapi\AppData\Local\Temp\ccXmRZoJ.s:269    .text.ping:0000000000000104 .L0 
C:\Users\stapi\AppData\Local\Temp\ccXmRZoJ.s:270    .text.ping:0000000000000104 .L0 
C:\Users\stapi\AppData\Local\Temp\ccXmRZoJ.s:271    .text.ping:0000000000000104 .L0 
C:\Users\stapi\AppData\Local\Temp\ccXmRZoJ.s:278    .text.ping:0000000000000110 .L0 
C:\Users\stapi\AppData\Local\Temp\ccXmRZoJ.s:279    .text.ping:0000000000000110 .L0 
C:\Users\stapi\AppData\Local\Temp\ccXmRZoJ.s:280    .text.ping:0000000000000110 .L0 
C:\Users\stapi\AppData\Local\Temp\ccXmRZoJ.s:281    .text.ping:0000000000000110 .L0 
C:\Users\stapi\AppData\Local\Temp\ccXmRZoJ.s:282    .text.ping:0000000000000110 .L0 
C:\Users\stapi\AppData\Local\Temp\ccXmRZoJ.s:283    .text.ping:0000000000000110 .L0 
C:\Users\stapi\AppData\Local\Temp\ccXmRZoJ.s:284    .text.ping:0000000000000110 .L0 
C:\Users\stapi\AppData\Local\Temp\ccXmRZoJ.s:287    .text.ping:0000000000000114 .L0 
C:\Users\stapi\AppData\Local\Temp\ccXmRZoJ.s:288    .text.ping:0000000000000114 .L0 
C:\Users\stapi\AppData\Local\Temp\ccXmRZoJ.s:289    .text.ping:0000000000000114 .L0 
C:\Users\stapi\AppData\Local\Temp\ccXmRZoJ.s:290    .text.ping:0000000000000114 .L0 
C:\Users\stapi\AppData\Local\Temp\ccXmRZoJ.s:291    .text.ping:0000000000000114 .L0 
C:\Users\stapi\AppData\Local\Temp\ccXmRZoJ.s:302    .text.ping:0000000000000138 .L0 
C:\Users\stapi\AppData\Local\Temp\ccXmRZoJ.s:303    .text.ping:0000000000000138 .L0 
C:\Users\stapi\AppData\Local\Temp\ccXmRZoJ.s:304    .text.ping:0000000000000138 .L0 
C:\Users\stapi\AppData\Local\Temp\ccXmRZoJ.s:308    .text.ping:000000000000013a .L0 
C:\Users\stapi\AppData\Local\Temp\ccXmRZoJ.s:309    .text.ping:000000000000013a .L0 
C:\Users\stapi\AppData\Local\Temp\ccXmRZoJ.s:310    .text.ping:000000000000013a .L0 
C:\Users\stapi\AppData\Local\Temp\ccXmRZoJ.s:311    .text.ping:000000000000013a .L0 
C:\Users\stapi\AppData\Local\Temp\ccXmRZoJ.s:317    .text.ping:0000000000000146 .L0 
C:\Users\stapi\AppData\Local\Temp\ccXmRZoJ.s:318    .text.ping:0000000000000146 .L0 
C:\Users\stapi\AppData\Local\Temp\ccXmRZoJ.s:323    .text.ping:000000000000014a .L0 
C:\Users\stapi\AppData\Local\Temp\ccXmRZoJ.s:324    .text.ping:000000000000014a .L0 
C:\Users\stapi\AppData\Local\Temp\ccXmRZoJ.s:325    .text.ping:000000000000014a .L0 
C:\Users\stapi\AppData\Local\Temp\ccXmRZoJ.s:326    .text.ping:000000000000014a .L0 
C:\Users\stapi\AppData\Local\Temp\ccXmRZoJ.s:329    .text.ping:0000000000000150 .L0 
C:\Users\stapi\AppData\Local\Temp\ccXmRZoJ.s:331    .text.ping:0000000000000154 .L0 
C:\Users\stapi\AppData\Local\Temp\ccXmRZoJ.s:332    .text.ping:0000000000000154 .L0 
C:\Users\stapi\AppData\Local\Temp\ccXmRZoJ.s:336    .text.ping:0000000000000160 .L0 
C:\Users\stapi\AppData\Local\Temp\ccXmRZoJ.s:339    .text.ping:0000000000000168 .L0 
C:\Users\stapi\AppData\Local\Temp\ccXmRZoJ.s:340    .text.ping:0000000000000168 .L0 
C:\Users\stapi\AppData\Local\Temp\ccXmRZoJ.s:341    .text.ping:0000000000000168 .L0 
C:\Users\stapi\AppData\Local\Temp\ccXmRZoJ.s:346    .text.ping:0000000000000172 .L0 
C:\Users\stapi\AppData\Local\Temp\ccXmRZoJ.s:348    .text.ping:0000000000000176 .L0 
C:\Users\stapi\AppData\Local\Temp\ccXmRZoJ.s:351    .text.ping:000000000000017e .L0 
C:\Users\stapi\AppData\Local\Temp\ccXmRZoJ.s:356    .text.ping:0000000000000188 .L0 
C:\Users\stapi\AppData\Local\Temp\ccXmRZoJ.s:357    .text.ping:0000000000000188 .L0 
C:\Users\stapi\AppData\Local\Temp\ccXmRZoJ.s:361    .text.ping:000000000000018a .L0 
C:\Users\stapi\AppData\Local\Temp\ccXmRZoJ.s:362    .text.ping:000000000000018a .L0 
C:\Users\stapi\AppData\Local\Temp\ccXmRZoJ.s:365    .text.ping:0000000000000190 .L0 
C:\Users\stapi\AppData\Local\Temp\ccXmRZoJ.s:366    .text.ping:0000000000000190 .L0 
C:\Users\stapi\AppData\Local\Temp\ccXmRZoJ.s:371    .text.ping:000000000000019c .L0 
C:\Users\stapi\AppData\Local\Temp\ccXmRZoJ.s:378    .text.ping:00000000000001a6 .L0 
C:\Users\stapi\AppData\Local\Temp\ccXmRZoJ.s:379    .text.ping:00000000000001a6 .L0 
C:\Users\stapi\AppData\Local\Temp\ccXmRZoJ.s:380    .text.ping:00000000000001a6 .L0 
C:\Users\stapi\AppData\Local\Temp\ccXmRZoJ.s:383    .text.ping:00000000000001ae .L0 
C:\Users\stapi\AppData\Local\Temp\ccXmRZoJ.s:384    .text.ping:00000000000001ae .L0 
C:\Users\stapi\AppData\Local\Temp\ccXmRZoJ.s:386    .text.ping:00000000000001b0 .L0 
C:\Users\stapi\AppData\Local\Temp\ccXmRZoJ.s:389    .text.ping:00000000000001b4 .L0 
C:\Users\stapi\AppData\Local\Temp\ccXmRZoJ.s:391    .text.ping:00000000000001b6 .L0 
C:\Users\stapi\AppData\Local\Temp\ccXmRZoJ.s:392    .text.ping:00000000000001b6 .L0 
C:\Users\stapi\AppData\Local\Temp\ccXmRZoJ.s:401    .text.ping:00000000000001c8 .L0 
C:\Users\stapi\AppData\Local\Temp\ccXmRZoJ.s:406    .text.ping:00000000000001d2 .L0 
C:\Users\stapi\AppData\Local\Temp\ccXmRZoJ.s:407    .text.ping:00000000000001d2 .L0 
C:\Users\stapi\AppData\Local\Temp\ccXmRZoJ.s:414    .text.ping:00000000000001d6 .L0 
C:\Users\stapi\AppData\Local\Temp\ccXmRZoJ.s:415    .text.ping:00000000000001d6 .L0 
C:\Users\stapi\AppData\Local\Temp\ccXmRZoJ.s:416    .text.ping:00000000000001d6 .L0 
C:\Users\stapi\AppData\Local\Temp\ccXmRZoJ.s:424    .text.ping:00000000000001e0 .L0 
C:\Users\stapi\AppData\Local\Temp\ccXmRZoJ.s:426    .text.ping:00000000000001e4 .L0 
C:\Users\stapi\AppData\Local\Temp\ccXmRZoJ.s:430    .text.ping:00000000000001e6 .L0 
C:\Users\stapi\AppData\Local\Temp\ccXmRZoJ.s:435    .text.ping:00000000000001ea .L0 
C:\Users\stapi\AppData\Local\Temp\ccXmRZoJ.s:436    .text.ping:00000000000001ea .L0 
C:\Users\stapi\AppData\Local\Temp\ccXmRZoJ.s:437    .text.ping:00000000000001ea .L0 
C:\Users\stapi\AppData\Local\Temp\ccXmRZoJ.s:438    .text.ping:00000000000001ea .L0 
C:\Users\stapi\AppData\Local\Temp\ccXmRZoJ.s:439    .text.ping:00000000000001ea .L0 
C:\Users\stapi\AppData\Local\Temp\ccXmRZoJ.s:440    .text.ping:00000000000001ea .L0 
C:\Users\stapi\AppData\Local\Temp\ccXmRZoJ.s:441    .text.ping:00000000000001ea .L0 
C:\Users\stapi\AppData\Local\Temp\ccXmRZoJ.s:442    .text.ping:00000000000001ea .L0 
C:\Users\stapi\AppData\Local\Temp\ccXmRZoJ.s:443    .text.ping:00000000000001ea .L0 
C:\Users\stapi\AppData\Local\Temp\ccXmRZoJ.s:444    .text.ping:00000000000001ea .L0 
C:\Users\stapi\AppData\Local\Temp\ccXmRZoJ.s:445    .text.ping:00000000000001ea .L0 
C:\Users\stapi\AppData\Local\Temp\ccXmRZoJ.s:446    .text.ping:00000000000001ea .L0 
C:\Users\stapi\AppData\Local\Temp\ccXmRZoJ.s:447    .text.ping:00000000000001ea .L0 
C:\Users\stapi\AppData\Local\Temp\ccXmRZoJ.s:448    .text.ping:00000000000001ea .L0 
C:\Users\stapi\AppData\Local\Temp\ccXmRZoJ.s:449    .text.ping:00000000000001ea .L0 
C:\Users\stapi\AppData\Local\Temp\ccXmRZoJ.s:450    .text.ping:00000000000001ea .L0 
C:\Users\stapi\AppData\Local\Temp\ccXmRZoJ.s:452    .text.ping:00000000000001ec .L0 
C:\Users\stapi\AppData\Local\Temp\ccXmRZoJ.s:453    .text.ping:00000000000001ec .L0 
C:\Users\stapi\AppData\Local\Temp\ccXmRZoJ.s:458    .text.ping:00000000000001f2 .L0 
C:\Users\stapi\AppData\Local\Temp\ccXmRZoJ.s:466    .text.ping:00000000000001f8 .L0 
C:\Users\stapi\AppData\Local\Temp\ccXmRZoJ.s:467    .text.ping:00000000000001f8 .L0 
C:\Users\stapi\AppData\Local\Temp\ccXmRZoJ.s:468    .text.ping:00000000000001f8 .L0 
C:\Users\stapi\AppData\Local\Temp\ccXmRZoJ.s:475    .text.ping:0000000000000202 .L0 
C:\Users\stapi\AppData\Local\Temp\ccXmRZoJ.s:476    .text.ping:0000000000000202 .L0 
C:\Users\stapi\AppData\Local\Temp\ccXmRZoJ.s:478    .text.ping:0000000000000204 .L0 
C:\Users\stapi\AppData\Local\Temp\ccXmRZoJ.s:482    .text.ping:0000000000000208 .L0 
C:\Users\stapi\AppData\Local\Temp\ccXmRZoJ.s:483    .text.ping:0000000000000208 .L0 
C:\Users\stapi\AppData\Local\Temp\ccXmRZoJ.s:484    .text.ping:0000000000000208 .L0 
C:\Users\stapi\AppData\Local\Temp\ccXmRZoJ.s:496    .text.ping:0000000000000220 .L0 
C:\Users\stapi\AppData\Local\Temp\ccXmRZoJ.s:498    .text.ping:0000000000000224 .L0 
C:\Users\stapi\AppData\Local\Temp\ccXmRZoJ.s:499    .text.ping:0000000000000224 .L0 
C:\Users\stapi\AppData\Local\Temp\ccXmRZoJ.s:503    .text.ping:0000000000000228 .L0 
C:\Users\stapi\AppData\Local\Temp\ccXmRZoJ.s:504    .text.ping:0000000000000228 .L0 
C:\Users\stapi\AppData\Local\Temp\ccXmRZoJ.s:505    .text.ping:0000000000000228 .L0 
C:\Users\stapi\AppData\Local\Temp\ccXmRZoJ.s:512    .text.ping:0000000000000232 .L0 
C:\Users\stapi\AppData\Local\Temp\ccXmRZoJ.s:513    .text.ping:0000000000000232 .L0 
C:\Users\stapi\AppData\Local\Temp\ccXmRZoJ.s:514    .text.ping:0000000000000232 .L0 
C:\Users\stapi\AppData\Local\Temp\ccXmRZoJ.s:517    .text.ping:0000000000000236 .L0 
C:\Users\stapi\AppData\Local\Temp\ccXmRZoJ.s:518    .text.ping:0000000000000236 .L0 
C:\Users\stapi\AppData\Local\Temp\ccXmRZoJ.s:521    .text.ping:000000000000023c .L0 
C:\Users\stapi\AppData\Local\Temp\ccXmRZoJ.s:524    .text.ping:0000000000000240 .L0 
C:\Users\stapi\AppData\Local\Temp\ccXmRZoJ.s:525    .text.ping:0000000000000240 .L0 
C:\Users\stapi\AppData\Local\Temp\ccXmRZoJ.s:530    .text.ping:000000000000024a .L0 
C:\Users\stapi\AppData\Local\Temp\ccXmRZoJ.s:533    .text.ping:0000000000000250 .L0 
C:\Users\stapi\AppData\Local\Temp\ccXmRZoJ.s:536    .text.ping:0000000000000256 .L0 
C:\Users\stapi\AppData\Local\Temp\ccXmRZoJ.s:539    .text.ping:000000000000025a .L0 
C:\Users\stapi\AppData\Local\Temp\ccXmRZoJ.s:541    .text.ping:000000000000025c .L0 
C:\Users\stapi\AppData\Local\Temp\ccXmRZoJ.s:547    .text.ping:000000000000026a .L0 
C:\Users\stapi\AppData\Local\Temp\ccXmRZoJ.s:550    .text.ping:0000000000000272 .L0 
C:\Users\stapi\AppData\Local\Temp\ccXmRZoJ.s:555    .text.ping:000000000000027c .L0 
C:\Users\stapi\AppData\Local\Temp\ccXmRZoJ.s:557    .text.ping:000000000000027e .L0 
C:\Users\stapi\AppData\Local\Temp\ccXmRZoJ.s:560    .text.ping:0000000000000282 .L0 
C:\Users\stapi\AppData\Local\Temp\ccXmRZoJ.s:579    .text.ping:00000000000002ba .L0 
C:\Users\stapi\AppData\Local\Temp\ccXmRZoJ.s:580    .text.ping:00000000000002ba .L0 
C:\Users\stapi\AppData\Local\Temp\ccXmRZoJ.s:584    .text.ping:00000000000002c4 .L0 
C:\Users\stapi\AppData\Local\Temp\ccXmRZoJ.s:585    .text.ping:00000000000002c4 .L0 
C:\Users\stapi\AppData\Local\Temp\ccXmRZoJ.s:587    .text.ping:00000000000002c8 .L0 
C:\Users\stapi\AppData\Local\Temp\ccXmRZoJ.s:589    .text.ping:00000000000002cc .L0 
C:\Users\stapi\AppData\Local\Temp\ccXmRZoJ.s:590    .text.ping:00000000000002cc .L0 
C:\Users\stapi\AppData\Local\Temp\ccXmRZoJ.s:593    .text.ping:00000000000002d0 .L0 
C:\Users\stapi\AppData\Local\Temp\ccXmRZoJ.s:594    .text.ping:00000000000002d0 .L0 
C:\Users\stapi\AppData\Local\Temp\ccXmRZoJ.s:596    .text.ping:00000000000002d4 .L0 
C:\Users\stapi\AppData\Local\Temp\ccXmRZoJ.s:598    .text.ping:00000000000002d8 .L0 
C:\Users\stapi\AppData\Local\Temp\ccXmRZoJ.s:599    .text.ping:00000000000002d8 .L0 
C:\Users\stapi\AppData\Local\Temp\ccXmRZoJ.s:602    .text.ping:00000000000002dc .L0 
C:\Users\stapi\AppData\Local\Temp\ccXmRZoJ.s:603    .text.ping:00000000000002dc .L0 
C:\Users\stapi\AppData\Local\Temp\ccXmRZoJ.s:611    .text.ping:00000000000002e6 .L0 
C:\Users\stapi\AppData\Local\Temp\ccXmRZoJ.s:612    .text.ping:00000000000002e6 .L0 
C:\Users\stapi\AppData\Local\Temp\ccXmRZoJ.s:613    .text.ping:00000000000002e6 .L0 
C:\Users\stapi\AppData\Local\Temp\ccXmRZoJ.s:615    .text.ping:00000000000002e8 .L0 
C:\Users\stapi\AppData\Local\Temp\ccXmRZoJ.s:618    .text.ping:00000000000002ea .L0 
C:\Users\stapi\AppData\Local\Temp\ccXmRZoJ.s:619    .text.ping:00000000000002ea .L0 
C:\Users\stapi\AppData\Local\Temp\ccXmRZoJ.s:621    .text.ping:00000000000002ee .L0 
C:\Users\stapi\AppData\Local\Temp\ccXmRZoJ.s:625    .text.ping:00000000000002f8 .L0 
C:\Users\stapi\AppData\Local\Temp\ccXmRZoJ.s:626    .text.ping:00000000000002f8 .L0 
C:\Users\stapi\AppData\Local\Temp\ccXmRZoJ.s:634    .text.ping:00000000000002fa .L0 
C:\Users\stapi\AppData\Local\Temp\ccXmRZoJ.s:635    .text.ping:00000000000002fa .L0 
C:\Users\stapi\AppData\Local\Temp\ccXmRZoJ.s:637    .text.ping:00000000000002fe .L0 
C:\Users\stapi\AppData\Local\Temp\ccXmRZoJ.s:639    .text.ping:0000000000000302 .L0 
C:\Users\stapi\AppData\Local\Temp\ccXmRZoJ.s:640    .text.ping:0000000000000302 .L0 
C:\Users\stapi\AppData\Local\Temp\ccXmRZoJ.s:654    .text.ping:0000000000000306 .L0 
C:\Users\stapi\AppData\Local\Temp\ccXmRZoJ.s:655    .text.ping:0000000000000306 .L0 
C:\Users\stapi\AppData\Local\Temp\ccXmRZoJ.s:656    .text.ping:0000000000000306 .L0 
C:\Users\stapi\AppData\Local\Temp\ccXmRZoJ.s:662    .text.ping:0000000000000310 .L0 
C:\Users\stapi\AppData\Local\Temp\ccXmRZoJ.s:665    .text.ping:0000000000000314 .L0 
C:\Users\stapi\AppData\Local\Temp\ccXmRZoJ.s:669    .text.ping:0000000000000318 .L0 
C:\Users\stapi\AppData\Local\Temp\ccXmRZoJ.s:670    .text.ping:0000000000000318 .L0 
C:\Users\stapi\AppData\Local\Temp\ccXmRZoJ.s:680    .text.ping:000000000000032a .L0 
C:\Users\stapi\AppData\Local\Temp\ccXmRZoJ.s:691    .text.ping:0000000000000350 .L0 
C:\Users\stapi\AppData\Local\Temp\ccXmRZoJ.s:692    .text.ping:0000000000000350 .L0 
C:\Users\stapi\AppData\Local\Temp\ccXmRZoJ.s:694    .text.ping:0000000000000354 .L0 
C:\Users\stapi\AppData\Local\Temp\ccXmRZoJ.s:696    .text.ping:0000000000000356 .L0 
C:\Users\stapi\AppData\Local\Temp\ccXmRZoJ.s:706    .text.ping:0000000000000376 .L0 
C:\Users\stapi\AppData\Local\Temp\ccXmRZoJ.s:710    .text.ping:0000000000000380 .L0 
C:\Users\stapi\AppData\Local\Temp\ccXmRZoJ.s:714    .text.ping:000000000000038c .L0 
C:\Users\stapi\AppData\Local\Temp\ccXmRZoJ.s:715    .text.ping:000000000000038c .L0 
C:\Users\stapi\AppData\Local\Temp\ccXmRZoJ.s:720    .text.ping:0000000000000390 .L0 
C:\Users\stapi\AppData\Local\Temp\ccXmRZoJ.s:722    .text.ping:0000000000000394 .L0 
C:\Users\stapi\AppData\Local\Temp\ccXmRZoJ.s:732    .text.ping_task_func:0000000000000000 ping_task_func
C:\Users\stapi\AppData\Local\Temp\ccXmRZoJ.s:735    .text.ping_task_func:0000000000000000 .L0 
C:\Users\stapi\AppData\Local\Temp\ccXmRZoJ.s:737    .text.ping_task_func:0000000000000000 .L0 
C:\Users\stapi\AppData\Local\Temp\ccXmRZoJ.s:738    .text.ping_task_func:0000000000000008 .L0 
C:\Users\stapi\AppData\Local\Temp\ccXmRZoJ.s:739    .text.ping_task_func:0000000000000008 .L0 
C:\Users\stapi\AppData\Local\Temp\ccXmRZoJ.s:740    .text.ping_task_func:0000000000000008 .L0 
C:\Users\stapi\AppData\Local\Temp\ccXmRZoJ.s:742    .text.ping_task_func:0000000000000008 .L0 
C:\Users\stapi\AppData\Local\Temp\ccXmRZoJ.s:743    .text.ping_task_func:0000000000000008 .L0 
C:\Users\stapi\AppData\Local\Temp\ccXmRZoJ.s:744    .text.ping_task_func:0000000000000008 .L0 
C:\Users\stapi\AppData\Local\Temp\ccXmRZoJ.s:747    .text.ping_task_func:000000000000000a .L0 
C:\Users\stapi\AppData\Local\Temp\ccXmRZoJ.s:748    .text.ping_task_func:000000000000000a .L0 
C:\Users\stapi\AppData\Local\Temp\ccXmRZoJ.s:751    .text.ping_task_func:0000000000000012 .L0 
C:\Users\stapi\AppData\Local\Temp\ccXmRZoJ.s:752    .text.ping_task_func:0000000000000012 .L0 
C:\Users\stapi\AppData\Local\Temp\ccXmRZoJ.s:754    .text.ping_task_func:0000000000000014 .L0 
C:\Users\stapi\AppData\Local\Temp\ccXmRZoJ.s:761    .text.ping_task_func:0000000000000024 .L0 
C:\Users\stapi\AppData\Local\Temp\ccXmRZoJ.s:765    .text.ping_task_func:000000000000002e .L0 
C:\Users\stapi\AppData\Local\Temp\ccXmRZoJ.s:766    .text.ping_task_func:000000000000002e .L0 
C:\Users\stapi\AppData\Local\Temp\ccXmRZoJ.s:768    .text.ping_task_func:0000000000000032 .L0 
C:\Users\stapi\AppData\Local\Temp\ccXmRZoJ.s:770    .text.ping_task_func:0000000000000034 .L0 
C:\Users\stapi\AppData\Local\Temp\ccXmRZoJ.s:772    .text.ping_task_func:0000000000000038 .L0 
C:\Users\stapi\AppData\Local\Temp\ccXmRZoJ.s:775    .text.ping_task_func:0000000000000040 .L0 
C:\Users\stapi\AppData\Local\Temp\ccXmRZoJ.s:776    .text.ping_task_func:0000000000000048 .L0 
C:\Users\stapi\AppData\Local\Temp\ccXmRZoJ.s:777    .text.ping_task_func:0000000000000048 .L0 
C:\Users\stapi\AppData\Local\Temp\ccXmRZoJ.s:778    .text.ping_task_func:0000000000000048 .L0 
C:\Users\stapi\AppData\Local\Temp\ccXmRZoJ.s:779    .text.ping_task_func:0000000000000048 .L0 
C:\Users\stapi\AppData\Local\Temp\ccXmRZoJ.s:853    .text.cmd_ping:0000000000000000 cmd_ping
C:\Users\stapi\AppData\Local\Temp\ccXmRZoJ.s:856    .text.cmd_ping:0000000000000000 .L0 
C:\Users\stapi\AppData\Local\Temp\ccXmRZoJ.s:858    .text.cmd_ping:0000000000000000 .L0 
C:\Users\stapi\AppData\Local\Temp\ccXmRZoJ.s:859    .text.cmd_ping:0000000000000008 .L0 
C:\Users\stapi\AppData\Local\Temp\ccXmRZoJ.s:860    .text.cmd_ping:0000000000000008 .L0 
C:\Users\stapi\AppData\Local\Temp\ccXmRZoJ.s:861    .text.cmd_ping:0000000000000008 .L0 
C:\Users\stapi\AppData\Local\Temp\ccXmRZoJ.s:862    .text.cmd_ping:0000000000000008 .L0 
C:\Users\stapi\AppData\Local\Temp\ccXmRZoJ.s:863    .text.cmd_ping:0000000000000008 .L0 
C:\Users\stapi\AppData\Local\Temp\ccXmRZoJ.s:864    .text.cmd_ping:0000000000000008 .L0 
C:\Users\stapi\AppData\Local\Temp\ccXmRZoJ.s:865    .text.cmd_ping:0000000000000008 .L0 
C:\Users\stapi\AppData\Local\Temp\ccXmRZoJ.s:866    .text.cmd_ping:0000000000000008 .L0 
C:\Users\stapi\AppData\Local\Temp\ccXmRZoJ.s:867    .text.cmd_ping:0000000000000008 .L0 
C:\Users\stapi\AppData\Local\Temp\ccXmRZoJ.s:868    .text.cmd_ping:0000000000000008 .L0 
C:\Users\stapi\AppData\Local\Temp\ccXmRZoJ.s:869    .text.cmd_ping:0000000000000008 .L0 
C:\Users\stapi\AppData\Local\Temp\ccXmRZoJ.s:870    .text.cmd_ping:0000000000000008 .L0 
C:\Users\stapi\AppData\Local\Temp\ccXmRZoJ.s:871    .text.cmd_ping:0000000000000008 .L0 
C:\Users\stapi\AppData\Local\Temp\ccXmRZoJ.s:872    .text.cmd_ping:0000000000000008 .L0 
C:\Users\stapi\AppData\Local\Temp\ccXmRZoJ.s:874    .text.cmd_ping:0000000000000008 .L0 
C:\Users\stapi\AppData\Local\Temp\ccXmRZoJ.s:875    .text.cmd_ping:0000000000000008 .L0 
C:\Users\stapi\AppData\Local\Temp\ccXmRZoJ.s:876    .text.cmd_ping:0000000000000008 .L0 
C:\Users\stapi\AppData\Local\Temp\ccXmRZoJ.s:878    .text.cmd_ping:000000000000000a .L0 
C:\Users\stapi\AppData\Local\Temp\ccXmRZoJ.s:879    .text.cmd_ping:000000000000000c .L0 
C:\Users\stapi\AppData\Local\Temp\ccXmRZoJ.s:881    .text.cmd_ping:000000000000000c .L0 
C:\Users\stapi\AppData\Local\Temp\ccXmRZoJ.s:884    .text.cmd_ping:0000000000000010 .L0 
C:\Users\stapi\AppData\Local\Temp\ccXmRZoJ.s:886    .text.cmd_ping:0000000000000014 .L0 
C:\Users\stapi\AppData\Local\Temp\ccXmRZoJ.s:894    .text.cmd_ping:0000000000000026 .L0 
C:\Users\stapi\AppData\Local\Temp\ccXmRZoJ.s:896    .text.cmd_ping:0000000000000028 .L0 
C:\Users\stapi\AppData\Local\Temp\ccXmRZoJ.s:897    .text.cmd_ping:0000000000000028 .L0 
C:\Users\stapi\AppData\Local\Temp\ccXmRZoJ.s:902    .text.cmd_ping:0000000000000030 .L0 
C:\Users\stapi\AppData\Local\Temp\ccXmRZoJ.s:903    .text.cmd_ping:0000000000000030 .L0 
C:\Users\stapi\AppData\Local\Temp\ccXmRZoJ.s:904    .text.cmd_ping:0000000000000032 .L0 
C:\Users\stapi\AppData\Local\Temp\ccXmRZoJ.s:905    .text.cmd_ping:0000000000000032 .L0 
C:\Users\stapi\AppData\Local\Temp\ccXmRZoJ.s:907    .text.cmd_ping:000000000000003a .L0 
C:\Users\stapi\AppData\Local\Temp\ccXmRZoJ.s:908    .text.cmd_ping:000000000000003a .L0 
C:\Users\stapi\AppData\Local\Temp\ccXmRZoJ.s:909    .text.cmd_ping:000000000000003a .L0 
C:\Users\stapi\AppData\Local\Temp\ccXmRZoJ.s:910    .text.cmd_ping:000000000000003a .L0 
C:\Users\stapi\AppData\Local\Temp\ccXmRZoJ.s:911    .text.cmd_ping:000000000000003a .L0 
C:\Users\stapi\AppData\Local\Temp\ccXmRZoJ.s:912    .text.cmd_ping:000000000000003a .L0 
C:\Users\stapi\AppData\Local\Temp\ccXmRZoJ.s:913    .text.cmd_ping:000000000000003a .L0 
C:\Users\stapi\AppData\Local\Temp\ccXmRZoJ.s:914    .text.cmd_ping:000000000000003a .L0 
C:\Users\stapi\AppData\Local\Temp\ccXmRZoJ.s:915    .text.cmd_ping:000000000000003a .L0 
C:\Users\stapi\AppData\Local\Temp\ccXmRZoJ.s:916    .text.cmd_ping:000000000000003a .L0 
C:\Users\stapi\AppData\Local\Temp\ccXmRZoJ.s:917    .text.cmd_ping:000000000000003a .L0 
C:\Users\stapi\AppData\Local\Temp\ccXmRZoJ.s:918    .text.cmd_ping:000000000000003a .L0 
C:\Users\stapi\AppData\Local\Temp\ccXmRZoJ.s:919    .text.cmd_ping:000000000000003a .L0 
C:\Users\stapi\AppData\Local\Temp\ccXmRZoJ.s:920    .text.cmd_ping:000000000000003a .L0 
C:\Users\stapi\AppData\Local\Temp\ccXmRZoJ.s:923    .text.cmd_ping:000000000000003a .L0 
C:\Users\stapi\AppData\Local\Temp\ccXmRZoJ.s:925    .text.cmd_ping:000000000000003a .L0 
C:\Users\stapi\AppData\Local\Temp\ccXmRZoJ.s:926    .text.cmd_ping:000000000000003a .L0 
C:\Users\stapi\AppData\Local\Temp\ccXmRZoJ.s:928    .text.cmd_ping:000000000000003e .L0 
C:\Users\stapi\AppData\Local\Temp\ccXmRZoJ.s:932    .text.cmd_ping:0000000000000048 .L0 
C:\Users\stapi\AppData\Local\Temp\ccXmRZoJ.s:936    .text.cmd_ping:0000000000000050 .L0 
C:\Users\stapi\AppData\Local\Temp\ccXmRZoJ.s:939    .text.cmd_ping:0000000000000058 .L0 
C:\Users\stapi\AppData\Local\Temp\ccXmRZoJ.s:942    .text.cmd_ping:000000000000005a .L0 
C:\Users\stapi\AppData\Local\Temp\ccXmRZoJ.s:943    .text.cmd_ping:000000000000005a .L0 
C:\Users\stapi\AppData\Local\Temp\ccXmRZoJ.s:950    .text.cmd_ping:000000000000006a .L0 
C:\Users\stapi\AppData\Local\Temp\ccXmRZoJ.s:951    .text.cmd_ping:000000000000006a .L0 
C:\Users\stapi\AppData\Local\Temp\ccXmRZoJ.s:953    .text.cmd_ping:000000000000006c .L0 
C:\Users\stapi\AppData\Local\Temp\ccXmRZoJ.s:961    .text.cmd_ping:0000000000000076 .L0 
C:\Users\stapi\AppData\Local\Temp\ccXmRZoJ.s:962    .text.cmd_ping:0000000000000076 .L0 
C:\Users\stapi\AppData\Local\Temp\ccXmRZoJ.s:963    .text.cmd_ping:0000000000000076 .L0 
C:\Users\stapi\AppData\Local\Temp\ccXmRZoJ.s:964    .text.cmd_ping:0000000000000076 .L0 
C:\Users\stapi\AppData\Local\Temp\ccXmRZoJ.s:965    .text.cmd_ping:0000000000000076 .L0 
C:\Users\stapi\AppData\Local\Temp\ccXmRZoJ.s:966    .text.cmd_ping:0000000000000076 .L0 
C:\Users\stapi\AppData\Local\Temp\ccXmRZoJ.s:969    .text.cmd_ping:000000000000007c .L0 
C:\Users\stapi\AppData\Local\Temp\ccXmRZoJ.s:970    .text.cmd_ping:000000000000007c .L0 
C:\Users\stapi\AppData\Local\Temp\ccXmRZoJ.s:976    .text.cmd_ping:000000000000008a .L0 
C:\Users\stapi\AppData\Local\Temp\ccXmRZoJ.s:984    .text.cmd_ping:0000000000000098 .L0 
C:\Users\stapi\AppData\Local\Temp\ccXmRZoJ.s:988    .text.cmd_ping:00000000000000a2 .L0 
C:\Users\stapi\AppData\Local\Temp\ccXmRZoJ.s:989    .text.cmd_ping:00000000000000a2 .L0 
C:\Users\stapi\AppData\Local\Temp\ccXmRZoJ.s:990    .text.cmd_ping:00000000000000a2 .L0 
C:\Users\stapi\AppData\Local\Temp\ccXmRZoJ.s:993    .text.cmd_ping:00000000000000a6 .L0 
C:\Users\stapi\AppData\Local\Temp\ccXmRZoJ.s:994    .text.cmd_ping:00000000000000a6 .L0 
C:\Users\stapi\AppData\Local\Temp\ccXmRZoJ.s:997    .text.cmd_ping:00000000000000ac .L0 
C:\Users\stapi\AppData\Local\Temp\ccXmRZoJ.s:998    .text.cmd_ping:00000000000000ac .L0 
C:\Users\stapi\AppData\Local\Temp\ccXmRZoJ.s:1000   .text.cmd_ping:00000000000000ae .L0 
C:\Users\stapi\AppData\Local\Temp\ccXmRZoJ.s:1003   .text.cmd_ping:00000000000000b2 .L0 
C:\Users\stapi\AppData\Local\Temp\ccXmRZoJ.s:1006   .text.cmd_ping:00000000000000b4 .L0 
C:\Users\stapi\AppData\Local\Temp\ccXmRZoJ.s:1008   .text.cmd_ping:00000000000000b6 .L0 
C:\Users\stapi\AppData\Local\Temp\ccXmRZoJ.s:1010   .text.cmd_ping:00000000000000ba .L0 
C:\Users\stapi\AppData\Local\Temp\ccXmRZoJ.s:1012   .text.cmd_ping:00000000000000be .L0 
C:\Users\stapi\AppData\Local\Temp\ccXmRZoJ.s:1014   .text.cmd_ping:00000000000000c2 .L0 
C:\Users\stapi\AppData\Local\Temp\ccXmRZoJ.s:1016   .text.cmd_ping:00000000000000c6 .L0 
C:\Users\stapi\AppData\Local\Temp\ccXmRZoJ.s:1018   .text.cmd_ping:00000000000000ca .L0 
C:\Users\stapi\AppData\Local\Temp\ccXmRZoJ.s:1022   .text.cmd_ping:00000000000000ce .L0 
C:\Users\stapi\AppData\Local\Temp\ccXmRZoJ.s:1029   .text.cmd_ping:00000000000000d6 .L0 
C:\Users\stapi\AppData\Local\Temp\ccXmRZoJ.s:1030   .text.cmd_ping:00000000000000d6 .L0 
C:\Users\stapi\AppData\Local\Temp\ccXmRZoJ.s:1044   .text.cmd_ping:00000000000000fe .L0 
C:\Users\stapi\AppData\Local\Temp\ccXmRZoJ.s:1046   .text.cmd_ping:0000000000000102 .L0 
C:\Users\stapi\AppData\Local\Temp\ccXmRZoJ.s:1047   .text.cmd_ping:0000000000000102 .L0 
C:\Users\stapi\AppData\Local\Temp\ccXmRZoJ.s:1049   .text.cmd_ping:0000000000000106 .L0 
C:\Users\stapi\AppData\Local\Temp\ccXmRZoJ.s:1057   .text.cmd_ping:0000000000000110 .L0 
C:\Users\stapi\AppData\Local\Temp\ccXmRZoJ.s:1058   .text.cmd_ping:0000000000000110 .L0 
C:\Users\stapi\AppData\Local\Temp\ccXmRZoJ.s:1064   .text.cmd_ping:0000000000000122 .L0 
C:\Users\stapi\AppData\Local\Temp\ccXmRZoJ.s:1066   .text.cmd_ping:0000000000000124 .L0 
C:\Users\stapi\AppData\Local\Temp\ccXmRZoJ.s:1067   .text.cmd_ping:0000000000000124 .L0 
C:\Users\stapi\AppData\Local\Temp\ccXmRZoJ.s:1069   .text.cmd_ping:0000000000000128 .L0 
C:\Users\stapi\AppData\Local\Temp\ccXmRZoJ.s:1070   .text.cmd_ping:0000000000000128 .L0 
C:\Users\stapi\AppData\Local\Temp\ccXmRZoJ.s:1075   .text.cmd_ping:0000000000000132 .L0 
C:\Users\stapi\AppData\Local\Temp\ccXmRZoJ.s:1076   .text.cmd_ping:0000000000000132 .L0 
C:\Users\stapi\AppData\Local\Temp\ccXmRZoJ.s:1079   .text.cmd_ping:0000000000000134 .L0 
C:\Users\stapi\AppData\Local\Temp\ccXmRZoJ.s:1083   .text.cmd_ping:0000000000000136 .L0 
C:\Users\stapi\AppData\Local\Temp\ccXmRZoJ.s:1084   .text.cmd_ping:0000000000000136 .L0 
C:\Users\stapi\AppData\Local\Temp\ccXmRZoJ.s:1089   .text.cmd_ping:0000000000000144 .L0 
C:\Users\stapi\AppData\Local\Temp\ccXmRZoJ.s:1091   .text.cmd_ping:0000000000000146 .L0 
C:\Users\stapi\AppData\Local\Temp\ccXmRZoJ.s:1092   .text.cmd_ping:0000000000000146 .L0 
C:\Users\stapi\AppData\Local\Temp\ccXmRZoJ.s:1094   .text.cmd_ping:000000000000014a .L0 
C:\Users\stapi\AppData\Local\Temp\ccXmRZoJ.s:1095   .text.cmd_ping:000000000000014a .L0 
C:\Users\stapi\AppData\Local\Temp\ccXmRZoJ.s:1099   .text.cmd_ping:0000000000000154 .L0 
C:\Users\stapi\AppData\Local\Temp\ccXmRZoJ.s:1100   .text.cmd_ping:0000000000000154 .L0 
C:\Users\stapi\AppData\Local\Temp\ccXmRZoJ.s:1102   .text.cmd_ping:0000000000000158 .L0 
C:\Users\stapi\AppData\Local\Temp\ccXmRZoJ.s:1108   .text.cmd_ping:0000000000000168 .L0 
C:\Users\stapi\AppData\Local\Temp\ccXmRZoJ.s:1117   .text.cmd_ping:000000000000017a .L0 
C:\Users\stapi\AppData\Local\Temp\ccXmRZoJ.s:1118   .text.cmd_ping:000000000000017a .L0 
C:\Users\stapi\AppData\Local\Temp\ccXmRZoJ.s:1127   .text.cmd_ping:0000000000000186 .L0 
C:\Users\stapi\AppData\Local\Temp\ccXmRZoJ.s:1128   .text.cmd_ping:0000000000000186 .L0 
C:\Users\stapi\AppData\Local\Temp\ccXmRZoJ.s:1132   .text.cmd_ping:0000000000000188 .L0 
C:\Users\stapi\AppData\Local\Temp\ccXmRZoJ.s:1138   .text.cmd_ping:000000000000018e .L0 
C:\Users\stapi\AppData\Local\Temp\ccXmRZoJ.s:1139   .text.cmd_ping:000000000000018e .L0 
C:\Users\stapi\AppData\Local\Temp\ccXmRZoJ.s:1144   .text.cmd_ping:000000000000019c .L0 
C:\Users\stapi\AppData\Local\Temp\ccXmRZoJ.s:1146   .text.cmd_ping:000000000000019e .L0 
C:\Users\stapi\AppData\Local\Temp\ccXmRZoJ.s:1147   .text.cmd_ping:000000000000019e .L0 
C:\Users\stapi\AppData\Local\Temp\ccXmRZoJ.s:1149   .text.cmd_ping:00000000000001a2 .L0 
C:\Users\stapi\AppData\Local\Temp\ccXmRZoJ.s:1150   .text.cmd_ping:00000000000001a2 .L0 
C:\Users\stapi\AppData\Local\Temp\ccXmRZoJ.s:1154   .text.cmd_ping:00000000000001ac .L0 
C:\Users\stapi\AppData\Local\Temp\ccXmRZoJ.s:1157   .text.cmd_ping:00000000000001ae .L0 
C:\Users\stapi\AppData\Local\Temp\ccXmRZoJ.s:1161   .text.cmd_ping:00000000000001b0 .L0 
C:\Users\stapi\AppData\Local\Temp\ccXmRZoJ.s:1162   .text.cmd_ping:00000000000001b0 .L0 
C:\Users\stapi\AppData\Local\Temp\ccXmRZoJ.s:1167   .text.cmd_ping:00000000000001be .L0 
C:\Users\stapi\AppData\Local\Temp\ccXmRZoJ.s:1169   .text.cmd_ping:00000000000001c0 .L0 
C:\Users\stapi\AppData\Local\Temp\ccXmRZoJ.s:1170   .text.cmd_ping:00000000000001c0 .L0 
C:\Users\stapi\AppData\Local\Temp\ccXmRZoJ.s:1172   .text.cmd_ping:00000000000001c4 .L0 
C:\Users\stapi\AppData\Local\Temp\ccXmRZoJ.s:1173   .text.cmd_ping:00000000000001c4 .L0 
C:\Users\stapi\AppData\Local\Temp\ccXmRZoJ.s:1177   .text.cmd_ping:00000000000001ce .L0 
C:\Users\stapi\AppData\Local\Temp\ccXmRZoJ.s:1178   .text.cmd_ping:00000000000001ce .L0 
C:\Users\stapi\AppData\Local\Temp\ccXmRZoJ.s:1180   .text.cmd_ping:00000000000001d0 .L0 
C:\Users\stapi\AppData\Local\Temp\ccXmRZoJ.s:1181   .text.cmd_ping:00000000000001d0 .L0 
C:\Users\stapi\AppData\Local\Temp\ccXmRZoJ.s:1185   .text.cmd_ping:00000000000001d6 .L0 
C:\Users\stapi\AppData\Local\Temp\ccXmRZoJ.s:1192   .text.cmd_ping:00000000000001de .L0 
C:\Users\stapi\AppData\Local\Temp\ccXmRZoJ.s:1195   .text.cmd_ping:00000000000001e6 .L0 
C:\Users\stapi\AppData\Local\Temp\ccXmRZoJ.s:1200   .text.cmd_ping:00000000000001f6 .L0 
C:\Users\stapi\AppData\Local\Temp\ccXmRZoJ.s:1205   .text.cmd_ping:0000000000000206 .L0 
C:\Users\stapi\AppData\Local\Temp\ccXmRZoJ.s:1210   .text.cmd_ping:0000000000000216 .L0 
C:\Users\stapi\AppData\Local\Temp\ccXmRZoJ.s:1215   .text.cmd_ping:0000000000000226 .L0 
C:\Users\stapi\AppData\Local\Temp\ccXmRZoJ.s:1220   .text.cmd_ping:0000000000000236 .L0 
C:\Users\stapi\AppData\Local\Temp\ccXmRZoJ.s:1225   .text.cmd_ping:0000000000000246 .L0 
C:\Users\stapi\AppData\Local\Temp\ccXmRZoJ.s:1230   .text.cmd_ping:0000000000000256 .L0 
C:\Users\stapi\AppData\Local\Temp\ccXmRZoJ.s:1235   .text.cmd_ping:0000000000000266 .L0 
C:\Users\stapi\AppData\Local\Temp\ccXmRZoJ.s:1242   .text.cmd_ping:0000000000000276 .L0 
C:\Users\stapi\AppData\Local\Temp\ccXmRZoJ.s:1247   .text.cmd_ping:0000000000000278 .L0 
C:\Users\stapi\AppData\Local\Temp\ccXmRZoJ.s:1255   .text.cmd_ping:0000000000000282 .L0 
C:\Users\stapi\AppData\Local\Temp\ccXmRZoJ.s:1256   .text.cmd_ping:0000000000000282 .L0 
C:\Users\stapi\AppData\Local\Temp\ccXmRZoJ.s:1259   .text.cmd_ping:000000000000028c .L0 
C:\Users\stapi\AppData\Local\Temp\ccXmRZoJ.s:1264   .sbss.ping_task_hdl:0000000000000000 .LANCHOR1
C:\Users\stapi\AppData\Local\Temp\ccXmRZoJ.s:1267   .sbss.ping_task_hdl:0000000000000000 ping_task_hdl
C:\Users\stapi\AppData\Local\Temp\ccXmRZoJ.s:1270   .sbss.ping_terminate:0000000000000000 .LANCHOR0
C:\Users\stapi\AppData\Local\Temp\ccXmRZoJ.s:1273   .sbss.ping_terminate:0000000000000000 ping_terminate
C:\Users\stapi\AppData\Local\Temp\ccXmRZoJ.s:725    .text.ping:0000000000000394 .L0 
C:\Users\stapi\AppData\Local\Temp\ccXmRZoJ.s:782    .text.ping_task_func:0000000000000048 .L0 
C:\Users\stapi\AppData\Local\Temp\ccXmRZoJ.s:1262   .text.cmd_ping:000000000000028c .L0 
                     .debug_frame:0000000000000000 .L0 
C:\Users\stapi\AppData\Local\Temp\ccXmRZoJ.s:11     .rodata.ping.str1.4:0000000000000000 .LC0
C:\Users\stapi\AppData\Local\Temp\ccXmRZoJ.s:14     .rodata.ping.str1.4:0000000000000028 .LC1
C:\Users\stapi\AppData\Local\Temp\ccXmRZoJ.s:17     .rodata.ping.str1.4:0000000000000048 .LC2
C:\Users\stapi\AppData\Local\Temp\ccXmRZoJ.s:20     .rodata.ping.str1.4:0000000000000070 .LC3
C:\Users\stapi\AppData\Local\Temp\ccXmRZoJ.s:23     .rodata.ping.str1.4:00000000000000dc .LC4
C:\Users\stapi\AppData\Local\Temp\ccXmRZoJ.s:26     .rodata.ping.str1.4:00000000000000f4 .LC5
C:\Users\stapi\AppData\Local\Temp\ccXmRZoJ.s:29     .rodata.ping.str1.4:000000000000011c .LC6
C:\Users\stapi\AppData\Local\Temp\ccXmRZoJ.s:38     .rodata.ping.str1.4:00000000000001d0 .LC9
C:\Users\stapi\AppData\Local\Temp\ccXmRZoJ.s:32     .rodata.ping.str1.4:0000000000000154 .LC7
C:\Users\stapi\AppData\Local\Temp\ccXmRZoJ.s:35     .rodata.ping.str1.4:0000000000000198 .LC8
C:\Users\stapi\AppData\Local\Temp\ccXmRZoJ.s:718    .text.ping:0000000000000390 .L24
C:\Users\stapi\AppData\Local\Temp\ccXmRZoJ.s:173    .text.ping:0000000000000076 .L3
C:\Users\stapi\AppData\Local\Temp\ccXmRZoJ.s:197    .text.ping:00000000000000a8 .L4
C:\Users\stapi\AppData\Local\Temp\ccXmRZoJ.s:146    .text.ping:000000000000006a .L35
C:\Users\stapi\AppData\Local\Temp\ccXmRZoJ.s:223    .text.ping:00000000000000e8 .L6
C:\Users\stapi\AppData\Local\Temp\ccXmRZoJ.s:676    .text.ping:000000000000032a .L7
C:\Users\stapi\AppData\Local\Temp\ccXmRZoJ.s:306    .text.ping:000000000000013a .L8
C:\Users\stapi\AppData\Local\Temp\ccXmRZoJ.s:300    .text.ping:0000000000000138 .L9
C:\Users\stapi\AppData\Local\Temp\ccXmRZoJ.s:608    .text.ping:00000000000002e6 .L11
C:\Users\stapi\AppData\Local\Temp\ccXmRZoJ.s:628    .text.ping:00000000000002fa .L13
C:\Users\stapi\AppData\Local\Temp\ccXmRZoJ.s:667    .text.ping:0000000000000318 .L20
C:\Users\stapi\AppData\Local\Temp\ccXmRZoJ.s:480    .text.ping:0000000000000208 .L16
C:\Users\stapi\AppData\Local\Temp\ccXmRZoJ.s:644    .text.ping:0000000000000306 .L17
C:\Users\stapi\AppData\Local\Temp\ccXmRZoJ.s:591    .text.ping:00000000000002d0 .L18
C:\Users\stapi\AppData\Local\Temp\ccXmRZoJ.s:600    .text.ping:00000000000002dc .L19
C:\Users\stapi\AppData\Local\Temp\ccXmRZoJ.s:265    .text.ping:0000000000000104 .L22
C:\Users\stapi\AppData\Local\Temp\ccXmRZoJ.s:359    .text.ping:000000000000018a .L12
C:\Users\stapi\AppData\Local\Temp\ccXmRZoJ.s:704    .text.ping:0000000000000376 .L23
C:\Users\stapi\AppData\Local\Temp\ccXmRZoJ.s:151    .text.ping:000000000000006c .L33
C:\Users\stapi\AppData\Local\Temp\ccXmRZoJ.s:727    .rodata.ping_task_func.str1.4:0000000000000000 .LC10
C:\Users\stapi\AppData\Local\Temp\ccXmRZoJ.s:759    .text.ping_task_func:0000000000000024 .L37
C:\Users\stapi\AppData\Local\Temp\ccXmRZoJ.s:784    .rodata.cmd_ping.str1.4:0000000000000000 .LC11
C:\Users\stapi\AppData\Local\Temp\ccXmRZoJ.s:787    .rodata.cmd_ping.str1.4:0000000000000008 .LC12
C:\Users\stapi\AppData\Local\Temp\ccXmRZoJ.s:790    .rodata.cmd_ping.str1.4:0000000000000030 .LC13
C:\Users\stapi\AppData\Local\Temp\ccXmRZoJ.s:793    .rodata.cmd_ping.str1.4:0000000000000054 .LC14
C:\Users\stapi\AppData\Local\Temp\ccXmRZoJ.s:796    .rodata.cmd_ping.str1.4:0000000000000058 .LC15
C:\Users\stapi\AppData\Local\Temp\ccXmRZoJ.s:805    .rodata.cmd_ping.str1.4:00000000000000c4 .LC18
C:\Users\stapi\AppData\Local\Temp\ccXmRZoJ.s:808    .rodata.cmd_ping.str1.4:00000000000000c8 .LC19
C:\Users\stapi\AppData\Local\Temp\ccXmRZoJ.s:844    .rodata.cmd_ping.str1.4:0000000000000328 .LC31
C:\Users\stapi\AppData\Local\Temp\ccXmRZoJ.s:847    .rodata.cmd_ping.str1.4:0000000000000334 .LC32
C:\Users\stapi\AppData\Local\Temp\ccXmRZoJ.s:799    .rodata.cmd_ping.str1.4:000000000000005c .LC16
C:\Users\stapi\AppData\Local\Temp\ccXmRZoJ.s:802    .rodata.cmd_ping.str1.4:000000000000006c .LC17
C:\Users\stapi\AppData\Local\Temp\ccXmRZoJ.s:811    .rodata.cmd_ping.str1.4:00000000000000cc .LC20
C:\Users\stapi\AppData\Local\Temp\ccXmRZoJ.s:817    .rodata.cmd_ping.str1.4:000000000000010c .LC22
C:\Users\stapi\AppData\Local\Temp\ccXmRZoJ.s:820    .rodata.cmd_ping.str1.4:0000000000000118 .LC23
C:\Users\stapi\AppData\Local\Temp\ccXmRZoJ.s:823    .rodata.cmd_ping.str1.4:0000000000000168 .LC24
C:\Users\stapi\AppData\Local\Temp\ccXmRZoJ.s:826    .rodata.cmd_ping.str1.4:00000000000001a8 .LC25
C:\Users\stapi\AppData\Local\Temp\ccXmRZoJ.s:829    .rodata.cmd_ping.str1.4:00000000000001c0 .LC26
C:\Users\stapi\AppData\Local\Temp\ccXmRZoJ.s:832    .rodata.cmd_ping.str1.4:00000000000001f4 .LC27
C:\Users\stapi\AppData\Local\Temp\ccXmRZoJ.s:835    .rodata.cmd_ping.str1.4:000000000000022c .LC28
C:\Users\stapi\AppData\Local\Temp\ccXmRZoJ.s:838    .rodata.cmd_ping.str1.4:000000000000027c .LC29
C:\Users\stapi\AppData\Local\Temp\ccXmRZoJ.s:841    .rodata.cmd_ping.str1.4:00000000000002b8 .LC30
C:\Users\stapi\AppData\Local\Temp\ccXmRZoJ.s:814    .rodata.cmd_ping.str1.4:00000000000000e0 .LC21
C:\Users\stapi\AppData\Local\Temp\ccXmRZoJ.s:922    .text.cmd_ping:000000000000003a .L43
C:\Users\stapi\AppData\Local\Temp\ccXmRZoJ.s:940    .text.cmd_ping:000000000000005a .L45
C:\Users\stapi\AppData\Local\Temp\ccXmRZoJ.s:901    .text.cmd_ping:0000000000000030 .L42
C:\Users\stapi\AppData\Local\Temp\ccXmRZoJ.s:956    .text.cmd_ping:0000000000000076 .L46
C:\Users\stapi\AppData\Local\Temp\ccXmRZoJ.s:934    .text.cmd_ping:0000000000000050 .L66
C:\Users\stapi\AppData\Local\Temp\ccXmRZoJ.s:1244   .text.cmd_ping:0000000000000278 .L47
C:\Users\stapi\AppData\Local\Temp\ccXmRZoJ.s:981    .text.cmd_ping:0000000000000098 .L48
C:\Users\stapi\AppData\Local\Temp\ccXmRZoJ.s:1053   .text.cmd_ping:0000000000000110 .L58
C:\Users\stapi\AppData\Local\Temp\ccXmRZoJ.s:1251   .text.cmd_ping:0000000000000282 .L60
C:\Users\stapi\AppData\Local\Temp\ccXmRZoJ.s:1238   .text.cmd_ping:000000000000026e .L67
C:\Users\stapi\AppData\Local\Temp\ccXmRZoJ.s:1081   .text.cmd_ping:0000000000000136 .L50
C:\Users\stapi\AppData\Local\Temp\ccXmRZoJ.s:1131   .text.cmd_ping:0000000000000188 .L51
C:\Users\stapi\AppData\Local\Temp\ccXmRZoJ.s:1136   .text.cmd_ping:000000000000018e .L52
C:\Users\stapi\AppData\Local\Temp\ccXmRZoJ.s:1123   .text.cmd_ping:0000000000000186 .L53
C:\Users\stapi\AppData\Local\Temp\ccXmRZoJ.s:1020   .text.cmd_ping:00000000000000ce .L49
C:\Users\stapi\AppData\Local\Temp\ccXmRZoJ.s:1159   .text.cmd_ping:00000000000001b0 .L55
C:\Users\stapi\AppData\Local\Temp\ccXmRZoJ.s:1183   .text.cmd_ping:00000000000001d6 .L56
C:\Users\stapi\AppData\Local\Temp\ccXmRZoJ.s:1073   .text.cmd_ping:0000000000000132 .L64
C:\Users\stapi\AppData\Local\Temp\ccXmRZoJ.s:1114   .text.cmd_ping:000000000000017a .L54
C:\Users\stapi\AppData\Local\Temp\ccXmRZoJ.s:1189   .text.cmd_ping:00000000000001de .L65
C:\Users\stapi\AppData\Local\Temp\ccXmRZoJ.s:3543   .debug_abbrev:0000000000000000 .Ldebug_abbrev0
C:\Users\stapi\AppData\Local\Temp\ccXmRZoJ.s:5481   .debug_str:00000000000007f9 .LASF165
C:\Users\stapi\AppData\Local\Temp\ccXmRZoJ.s:5275   .debug_str:00000000000002cd .LASF166
C:\Users\stapi\AppData\Local\Temp\ccXmRZoJ.s:5311   .debug_str:00000000000003f1 .LASF167
C:\Users\stapi\AppData\Local\Temp\ccXmRZoJ.s:5091   .debug_ranges:0000000000000000 .Ldebug_ranges0
C:\Users\stapi\AppData\Local\Temp\ccXmRZoJ.s:5147   .debug_line:0000000000000000 .Ldebug_line0
C:\Users\stapi\AppData\Local\Temp\ccXmRZoJ.s:5359   .debug_str:0000000000000552 .LASF0
C:\Users\stapi\AppData\Local\Temp\ccXmRZoJ.s:5461   .debug_str:0000000000000795 .LASF2
C:\Users\stapi\AppData\Local\Temp\ccXmRZoJ.s:5423   .debug_str:00000000000006bd .LASF1
C:\Users\stapi\AppData\Local\Temp\ccXmRZoJ.s:5443   .debug_str:0000000000000727 .LASF3
C:\Users\stapi\AppData\Local\Temp\ccXmRZoJ.s:5389   .debug_str:0000000000000604 .LASF4
C:\Users\stapi\AppData\Local\Temp\ccXmRZoJ.s:5245   .debug_str:0000000000000219 .LASF5
C:\Users\stapi\AppData\Local\Temp\ccXmRZoJ.s:5465   .debug_str:00000000000007ab .LASF6
C:\Users\stapi\AppData\Local\Temp\ccXmRZoJ.s:5397   .debug_str:000000000000062e .LASF7
C:\Users\stapi\AppData\Local\Temp\ccXmRZoJ.s:5445   .debug_str:0000000000000735 .LASF8
C:\Users\stapi\AppData\Local\Temp\ccXmRZoJ.s:5435   .debug_str:00000000000006fa .LASF9
C:\Users\stapi\AppData\Local\Temp\ccXmRZoJ.s:5319   .debug_str:000000000000048b .LASF10
C:\Users\stapi\AppData\Local\Temp\ccXmRZoJ.s:5237   .debug_str:00000000000001e6 .LASF11
C:\Users\stapi\AppData\Local\Temp\ccXmRZoJ.s:5179   .debug_str:00000000000000b6 .LASF12
C:\Users\stapi\AppData\Local\Temp\ccXmRZoJ.s:5225   .debug_str:00000000000001a4 .LASF13
C:\Users\stapi\AppData\Local\Temp\ccXmRZoJ.s:5309   .debug_str:00000000000003e9 .LASF14
C:\Users\stapi\AppData\Local\Temp\ccXmRZoJ.s:5369   .debug_str:0000000000000597 .LASF15
C:\Users\stapi\AppData\Local\Temp\ccXmRZoJ.s:5223   .debug_str:000000000000019b .LASF16
C:\Users\stapi\AppData\Local\Temp\ccXmRZoJ.s:5267   .debug_str:00000000000002a4 .LASF17
C:\Users\stapi\AppData\Local\Temp\ccXmRZoJ.s:5301   .debug_str:00000000000003b3 .LASF18
C:\Users\stapi\AppData\Local\Temp\ccXmRZoJ.s:5329   .debug_str:00000000000004bd .LASF19
C:\Users\stapi\AppData\Local\Temp\ccXmRZoJ.s:5283   .debug_str:0000000000000358 .LASF20
C:\Users\stapi\AppData\Local\Temp\ccXmRZoJ.s:5193   .debug_str:00000000000000f9 .LASF21
C:\Users\stapi\AppData\Local\Temp\ccXmRZoJ.s:5387   .debug_str:00000000000005fe .LASF22
C:\Users\stapi\AppData\Local\Temp\ccXmRZoJ.s:5457   .debug_str:000000000000076c .LASF23
C:\Users\stapi\AppData\Local\Temp\ccXmRZoJ.s:5491   .debug_str:0000000000000916 .LASF24
C:\Users\stapi\AppData\Local\Temp\ccXmRZoJ.s:5383   .debug_str:00000000000005eb .LASF25
C:\Users\stapi\AppData\Local\Temp\ccXmRZoJ.s:5295   .debug_str:0000000000000396 .LASF26
C:\Users\stapi\AppData\Local\Temp\ccXmRZoJ.s:5475   .debug_str:00000000000007e2 .LASF27
C:\Users\stapi\AppData\Local\Temp\ccXmRZoJ.s:5411   .debug_str:0000000000000678 .LASF28
C:\Users\stapi\AppData\Local\Temp\ccXmRZoJ.s:5253   .debug_str:000000000000023e .LASF29
C:\Users\stapi\AppData\Local\Temp\ccXmRZoJ.s:5293   .debug_str:0000000000000387 .LASF30
C:\Users\stapi\AppData\Local\Temp\ccXmRZoJ.s:5171   .debug_str:0000000000000095 .LASF31
C:\Users\stapi\AppData\Local\Temp\ccXmRZoJ.s:5217   .debug_str:000000000000017a .LASF32
C:\Users\stapi\AppData\Local\Temp\ccXmRZoJ.s:5425   .debug_str:00000000000006c7 .LASF33
C:\Users\stapi\AppData\Local\Temp\ccXmRZoJ.s:5473   .debug_str:00000000000007d9 .LASF34
C:\Users\stapi\AppData\Local\Temp\ccXmRZoJ.s:5323   .debug_str:00000000000004a0 .LASF35
C:\Users\stapi\AppData\Local\Temp\ccXmRZoJ.s:5453   .debug_str:000000000000075d .LASF36
C:\Users\stapi\AppData\Local\Temp\ccXmRZoJ.s:5213   .debug_str:0000000000000165 .LASF37
C:\Users\stapi\AppData\Local\Temp\ccXmRZoJ.s:5167   .debug_str:000000000000007e .LASF38
C:\Users\stapi\AppData\Local\Temp\ccXmRZoJ.s:5175   .debug_str:00000000000000a6 .LASF39
C:\Users\stapi\AppData\Local\Temp\ccXmRZoJ.s:5187   .debug_str:00000000000000d7 .LASF40
C:\Users\stapi\AppData\Local\Temp\ccXmRZoJ.s:5415   .debug_str:0000000000000695 .LASF64
C:\Users\stapi\AppData\Local\Temp\ccXmRZoJ.s:5449   .debug_str:000000000000074d .LASF66
C:\Users\stapi\AppData\Local\Temp\ccXmRZoJ.s:5393   .debug_str:0000000000000619 .LASF41
C:\Users\stapi\AppData\Local\Temp\ccXmRZoJ.s:5479   .debug_str:00000000000007ef .LASF42
C:\Users\stapi\AppData\Local\Temp\ccXmRZoJ.s:5431   .debug_str:00000000000006e8 .LASF43
C:\Users\stapi\AppData\Local\Temp\ccXmRZoJ.s:5407   .debug_str:0000000000000661 .LASF44
C:\Users\stapi\AppData\Local\Temp\ccXmRZoJ.s:5327   .debug_str:00000000000004b0 .LASF45
C:\Users\stapi\AppData\Local\Temp\ccXmRZoJ.s:5157   .debug_str:0000000000000024 .LASF46
C:\Users\stapi\AppData\Local\Temp\ccXmRZoJ.s:5447   .debug_str:0000000000000740 .LASF47
C:\Users\stapi\AppData\Local\Temp\ccXmRZoJ.s:5353   .debug_str:0000000000000533 .LASF48
C:\Users\stapi\AppData\Local\Temp\ccXmRZoJ.s:5347   .debug_str:000000000000050f .LASF49
C:\Users\stapi\AppData\Local\Temp\ccXmRZoJ.s:5429   .debug_str:00000000000006d9 .LASF50
C:\Users\stapi\AppData\Local\Temp\ccXmRZoJ.s:5317   .debug_str:000000000000047f .LASF51
C:\Users\stapi\AppData\Local\Temp\ccXmRZoJ.s:5289   .debug_str:0000000000000370 .LASF52
C:\Users\stapi\AppData\Local\Temp\ccXmRZoJ.s:5231   .debug_str:00000000000001c5 .LASF53
C:\Users\stapi\AppData\Local\Temp\ccXmRZoJ.s:5257   .debug_str:0000000000000252 .LASF54
C:\Users\stapi\AppData\Local\Temp\ccXmRZoJ.s:5229   .debug_str:00000000000001b5 .LASF55
C:\Users\stapi\AppData\Local\Temp\ccXmRZoJ.s:5401   .debug_str:000000000000063d .LASF56
C:\Users\stapi\AppData\Local\Temp\ccXmRZoJ.s:5483   .debug_str:00000000000008f2 .LASF57
C:\Users\stapi\AppData\Local\Temp\ccXmRZoJ.s:5299   .debug_str:00000000000003a9 .LASF58
C:\Users\stapi\AppData\Local\Temp\ccXmRZoJ.s:5209   .debug_str:000000000000014e .LASF59
C:\Users\stapi\AppData\Local\Temp\ccXmRZoJ.s:5281   .debug_str:000000000000034f .LASF60
C:\Users\stapi\AppData\Local\Temp\ccXmRZoJ.s:5261   .debug_str:0000000000000270 .LASF168
C:\Users\stapi\AppData\Local\Temp\ccXmRZoJ.s:5459   .debug_str:0000000000000773 .LASF61
C:\Users\stapi\AppData\Local\Temp\ccXmRZoJ.s:5163   .debug_str:0000000000000054 .LASF62
C:\Users\stapi\AppData\Local\Temp\ccXmRZoJ.s:5367   .debug_str:0000000000000576 .LASF63
C:\Users\stapi\AppData\Local\Temp\ccXmRZoJ.s:5437   .debug_str:000000000000070c .LASF65
C:\Users\stapi\AppData\Local\Temp\ccXmRZoJ.s:5441   .debug_str:0000000000000722 .LASF67
C:\Users\stapi\AppData\Local\Temp\ccXmRZoJ.s:5285   .debug_str:000000000000035d .LASF68
C:\Users\stapi\AppData\Local\Temp\ccXmRZoJ.s:5265   .debug_str:000000000000029d .LASF69
C:\Users\stapi\AppData\Local\Temp\ccXmRZoJ.s:5219   .debug_str:0000000000000186 .LASF70
C:\Users\stapi\AppData\Local\Temp\ccXmRZoJ.s:5199   .debug_str:0000000000000114 .LASF71
C:\Users\stapi\AppData\Local\Temp\ccXmRZoJ.s:5337   .debug_str:00000000000004e4 .LASF72
C:\Users\stapi\AppData\Local\Temp\ccXmRZoJ.s:5227   .debug_str:00000000000001ab .LASF73
C:\Users\stapi\AppData\Local\Temp\ccXmRZoJ.s:5439   .debug_str:000000000000071a .LASF74
C:\Users\stapi\AppData\Local\Temp\ccXmRZoJ.s:5263   .debug_str:0000000000000296 .LASF75
C:\Users\stapi\AppData\Local\Temp\ccXmRZoJ.s:5269   .debug_str:00000000000002ab .LASF76
C:\Users\stapi\AppData\Local\Temp\ccXmRZoJ.s:5251   .debug_str:0000000000000234 .LASF77
C:\Users\stapi\AppData\Local\Temp\ccXmRZoJ.s:5419   .debug_str:00000000000006a5 .LASF78
C:\Users\stapi\AppData\Local\Temp\ccXmRZoJ.s:5233   .debug_str:00000000000001d8 .LASF79
C:\Users\stapi\AppData\Local\Temp\ccXmRZoJ.s:5243   .debug_str:000000000000020e .LASF80
C:\Users\stapi\AppData\Local\Temp\ccXmRZoJ.s:5325   .debug_str:00000000000004a7 .LASF81
C:\Users\stapi\AppData\Local\Temp\ccXmRZoJ.s:5345   .debug_str:0000000000000506 .LASF82
C:\Users\stapi\AppData\Local\Temp\ccXmRZoJ.s:5259   .debug_str:0000000000000267 .LASF83
C:\Users\stapi\AppData\Local\Temp\ccXmRZoJ.s:5173   .debug_str:000000000000009d .LASF84
C:\Users\stapi\AppData\Local\Temp\ccXmRZoJ.s:5403   .debug_str:000000000000064e .LASF85
C:\Users\stapi\AppData\Local\Temp\ccXmRZoJ.s:5463   .debug_str:00000000000007a1 .LASF86
C:\Users\stapi\AppData\Local\Temp\ccXmRZoJ.s:5165   .debug_str:0000000000000076 .LASF87
C:\Users\stapi\AppData\Local\Temp\ccXmRZoJ.s:5487   .debug_str:0000000000000907 .LASF88
C:\Users\stapi\AppData\Local\Temp\ccXmRZoJ.s:5191   .debug_str:00000000000000e9 .LASF89
C:\Users\stapi\AppData\Local\Temp\ccXmRZoJ.s:5375   .debug_str:00000000000005b8 .LASF90
C:\Users\stapi\AppData\Local\Temp\ccXmRZoJ.s:5427   .debug_str:00000000000006d2 .LASF91
C:\Users\stapi\AppData\Local\Temp\ccXmRZoJ.s:5333   .debug_str:00000000000004cf .LASF92
C:\Users\stapi\AppData\Local\Temp\ccXmRZoJ.s:5433   .debug_str:00000000000006f5 .LASF93
C:\Users\stapi\AppData\Local\Temp\ccXmRZoJ.s:5477   .debug_str:00000000000007ea .LASF94
C:\Users\stapi\AppData\Local\Temp\ccXmRZoJ.s:5249   .debug_str:000000000000022c .LASF95
C:\Users\stapi\AppData\Local\Temp\ccXmRZoJ.s:5195   .debug_str:00000000000000ff .LASF96
C:\Users\stapi\AppData\Local\Temp\ccXmRZoJ.s:5313   .debug_str:000000000000046f .LASF97
C:\Users\stapi\AppData\Local\Temp\ccXmRZoJ.s:5247   .debug_str:0000000000000224 .LASF98
C:\Users\stapi\AppData\Local\Temp\ccXmRZoJ.s:5493   .debug_str:000000000000091e .LASF99
C:\Users\stapi\AppData\Local\Temp\ccXmRZoJ.s:5405   .debug_str:0000000000000655 .LASF100
C:\Users\stapi\AppData\Local\Temp\ccXmRZoJ.s:5241   .debug_str:0000000000000206 .LASF101
C:\Users\stapi\AppData\Local\Temp\ccXmRZoJ.s:5315   .debug_str:0000000000000476 .LASF102
C:\Users\stapi\AppData\Local\Temp\ccXmRZoJ.s:5497   .debug_str:000000000000092a .LASF103
C:\Users\stapi\AppData\Local\Temp\ccXmRZoJ.s:5413   .debug_str:0000000000000687 .LASF104
C:\Users\stapi\AppData\Local\Temp\ccXmRZoJ.s:5331   .debug_str:00000000000004c2 .LASF105
C:\Users\stapi\AppData\Local\Temp\ccXmRZoJ.s:5221   .debug_str:000000000000018c .LASF106
C:\Users\stapi\AppData\Local\Temp\ccXmRZoJ.s:5335   .debug_str:00000000000004d5 .LASF107
C:\Users\stapi\AppData\Local\Temp\ccXmRZoJ.s:5467   .debug_str:00000000000007be .LASF108
C:\Users\stapi\AppData\Local\Temp\ccXmRZoJ.s:5409   .debug_str:000000000000066e .LASF109
C:\Users\stapi\AppData\Local\Temp\ccXmRZoJ.s:5197   .debug_str:0000000000000104 .LASF110
C:\Users\stapi\AppData\Local\Temp\ccXmRZoJ.s:5349   .debug_str:000000000000051e .LASF111
C:\Users\stapi\AppData\Local\Temp\ccXmRZoJ.s:5203   .debug_str:0000000000000129 .LASF112
C:\Users\stapi\AppData\Local\Temp\ccXmRZoJ.s:5287   .debug_str:0000000000000362 .LASF113
C:\Users\stapi\AppData\Local\Temp\ccXmRZoJ.s:5239   .debug_str:00000000000001fd .LASF169
C:\Users\stapi\AppData\Local\Temp\ccXmRZoJ.s:854    .text.cmd_ping:0000000000000000 .LFB11
C:\Users\stapi\AppData\Local\Temp\ccXmRZoJ.s:1260   .text.cmd_ping:000000000000028c .LFE11
C:\Users\stapi\AppData\Local\Temp\ccXmRZoJ.s:5355   .debug_str:0000000000000542 .LASF114
C:\Users\stapi\AppData\Local\Temp\ccXmRZoJ.s:4336   .debug_loc:0000000000000000 .LLST35
C:\Users\stapi\AppData\Local\Temp\ccXmRZoJ.s:5363   .debug_str:0000000000000567 .LASF115
C:\Users\stapi\AppData\Local\Temp\ccXmRZoJ.s:4347   .debug_loc:000000000000001e .LLST36
C:\Users\stapi\AppData\Local\Temp\ccXmRZoJ.s:5485   .debug_str:00000000000008fd .LASF116
C:\Users\stapi\AppData\Local\Temp\ccXmRZoJ.s:959    .text.cmd_ping:0000000000000076 .LBB54
C:\Users\stapi\AppData\Local\Temp\ccXmRZoJ.s:4382   .debug_loc:0000000000000070 .LLST37
C:\Users\stapi\AppData\Local\Temp\ccXmRZoJ.s:4423   .debug_loc:00000000000000c8 .LLST38
C:\Users\stapi\AppData\Local\Temp\ccXmRZoJ.s:4442   .debug_loc:00000000000000fc .LLST39
C:\Users\stapi\AppData\Local\Temp\ccXmRZoJ.s:4461   .debug_loc:0000000000000130 .LLST40
C:\Users\stapi\AppData\Local\Temp\ccXmRZoJ.s:4518   .debug_loc:00000000000001b4 .LLST41
C:\Users\stapi\AppData\Local\Temp\ccXmRZoJ.s:4530   .debug_loc:00000000000001d3 .LLST42
C:\Users\stapi\AppData\Local\Temp\ccXmRZoJ.s:4541   .debug_loc:00000000000001f1 .LLST43
C:\Users\stapi\AppData\Local\Temp\ccXmRZoJ.s:1245   .text.cmd_ping:0000000000000278 .LDL1
C:\Users\stapi\AppData\Local\Temp\ccXmRZoJ.s:1190   .text.cmd_ping:00000000000001de .L57
C:\Users\stapi\AppData\Local\Temp\ccXmRZoJ.s:974    .text.cmd_ping:000000000000008a .LVL93
C:\Users\stapi\AppData\Local\Temp\ccXmRZoJ.s:986    .text.cmd_ping:00000000000000a2 .LVL95
C:\Users\stapi\AppData\Local\Temp\ccXmRZoJ.s:1062   .text.cmd_ping:0000000000000122 .LVL102
C:\Users\stapi\AppData\Local\Temp\ccXmRZoJ.s:1072   .text.cmd_ping:0000000000000132 .LVL103
C:\Users\stapi\AppData\Local\Temp\ccXmRZoJ.s:1087   .text.cmd_ping:0000000000000144 .LVL106
C:\Users\stapi\AppData\Local\Temp\ccXmRZoJ.s:1097   .text.cmd_ping:0000000000000154 .LVL107
C:\Users\stapi\AppData\Local\Temp\ccXmRZoJ.s:1106   .text.cmd_ping:0000000000000168 .LVL109
C:\Users\stapi\AppData\Local\Temp\ccXmRZoJ.s:1112   .text.cmd_ping:000000000000017a .LVL110
C:\Users\stapi\AppData\Local\Temp\ccXmRZoJ.s:1142   .text.cmd_ping:000000000000019c .LVL115
C:\Users\stapi\AppData\Local\Temp\ccXmRZoJ.s:1152   .text.cmd_ping:00000000000001ac .LVL116
C:\Users\stapi\AppData\Local\Temp\ccXmRZoJ.s:1165   .text.cmd_ping:00000000000001be .LVL119
C:\Users\stapi\AppData\Local\Temp\ccXmRZoJ.s:1175   .text.cmd_ping:00000000000001ce .LVL120
C:\Users\stapi\AppData\Local\Temp\ccXmRZoJ.s:1193   .text.cmd_ping:00000000000001e6 .LVL123
C:\Users\stapi\AppData\Local\Temp\ccXmRZoJ.s:1198   .text.cmd_ping:00000000000001f6 .LVL124
C:\Users\stapi\AppData\Local\Temp\ccXmRZoJ.s:1203   .text.cmd_ping:0000000000000206 .LVL125
C:\Users\stapi\AppData\Local\Temp\ccXmRZoJ.s:1208   .text.cmd_ping:0000000000000216 .LVL126
C:\Users\stapi\AppData\Local\Temp\ccXmRZoJ.s:1213   .text.cmd_ping:0000000000000226 .LVL127
C:\Users\stapi\AppData\Local\Temp\ccXmRZoJ.s:1218   .text.cmd_ping:0000000000000236 .LVL128
C:\Users\stapi\AppData\Local\Temp\ccXmRZoJ.s:1223   .text.cmd_ping:0000000000000246 .LVL129
C:\Users\stapi\AppData\Local\Temp\ccXmRZoJ.s:1228   .text.cmd_ping:0000000000000256 .LVL130
C:\Users\stapi\AppData\Local\Temp\ccXmRZoJ.s:1233   .text.cmd_ping:0000000000000266 .LVL131
C:\Users\stapi\AppData\Local\Temp\ccXmRZoJ.s:1240   .text.cmd_ping:0000000000000276 .LVL133
C:\Users\stapi\AppData\Local\Temp\ccXmRZoJ.s:892    .text.cmd_ping:0000000000000026 .LVL86
C:\Users\stapi\AppData\Local\Temp\ccXmRZoJ.s:937    .text.cmd_ping:0000000000000058 .LVL89
C:\Users\stapi\AppData\Local\Temp\ccXmRZoJ.s:946    .text.cmd_ping:0000000000000068 .LVL90
C:\Users\stapi\AppData\Local\Temp\ccXmRZoJ.s:1042   .text.cmd_ping:00000000000000fe .LVL100
C:\Users\stapi\AppData\Local\Temp\ccXmRZoJ.s:1120   .text.cmd_ping:0000000000000184 .LVL111
C:\Users\stapi\AppData\Local\Temp\ccXmRZoJ.s:5161   .debug_str:000000000000003f .LASF139
C:\Users\stapi\AppData\Local\Temp\ccXmRZoJ.s:5177   .debug_str:00000000000000ae .LASF117
C:\Users\stapi\AppData\Local\Temp\ccXmRZoJ.s:5297   .debug_str:00000000000003a2 .LASF118
C:\Users\stapi\AppData\Local\Temp\ccXmRZoJ.s:5489   .debug_str:0000000000000911 .LASF119
C:\Users\stapi\AppData\Local\Temp\ccXmRZoJ.s:5149   .debug_str:0000000000000000 .LASF120
C:\Users\stapi\AppData\Local\Temp\ccXmRZoJ.s:5305   .debug_str:00000000000003ca .LASF170
C:\Users\stapi\AppData\Local\Temp\ccXmRZoJ.s:733    .text.ping_task_func:0000000000000000 .LFB9
C:\Users\stapi\AppData\Local\Temp\ccXmRZoJ.s:780    .text.ping_task_func:0000000000000048 .LFE9
C:\Users\stapi\AppData\Local\Temp\ccXmRZoJ.s:5343   .debug_str:0000000000000500 .LASF121
C:\Users\stapi\AppData\Local\Temp\ccXmRZoJ.s:4548   .debug_loc:0000000000000204 .LLST32
C:\Users\stapi\AppData\Local\Temp\ccXmRZoJ.s:4559   .debug_loc:0000000000000222 .LLST33
C:\Users\stapi\AppData\Local\Temp\ccXmRZoJ.s:4566   .debug_loc:0000000000000235 .LLST34
C:\Users\stapi\AppData\Local\Temp\ccXmRZoJ.s:749    .text.ping_task_func:0000000000000012 .LVL78
C:\Users\stapi\AppData\Local\Temp\ccXmRZoJ.s:758    .text.ping_task_func:0000000000000024 .LVL80
C:\Users\stapi\AppData\Local\Temp\ccXmRZoJ.s:763    .text.ping_task_func:000000000000002e .LVL81
C:\Users\stapi\AppData\Local\Temp\ccXmRZoJ.s:773    .text.ping_task_func:0000000000000040 .LVL82
C:\Users\stapi\AppData\Local\Temp\ccXmRZoJ.s:5207   .debug_str:0000000000000149 .LASF171
C:\Users\stapi\AppData\Local\Temp\ccXmRZoJ.s:45     .text.ping:0000000000000000 .LFB8
C:\Users\stapi\AppData\Local\Temp\ccXmRZoJ.s:723    .text.ping:0000000000000394 .LFE8
C:\Users\stapi\AppData\Local\Temp\ccXmRZoJ.s:4577   .debug_loc:0000000000000253 .LLST0
C:\Users\stapi\AppData\Local\Temp\ccXmRZoJ.s:4588   .debug_loc:0000000000000271 .LLST1
C:\Users\stapi\AppData\Local\Temp\ccXmRZoJ.s:5373   .debug_str:00000000000005b0 .LASF122
C:\Users\stapi\AppData\Local\Temp\ccXmRZoJ.s:5189   .debug_str:00000000000000dd .LASF123
C:\Users\stapi\AppData\Local\Temp\ccXmRZoJ.s:5155   .debug_str:0000000000000019 .LASF124
C:\Users\stapi\AppData\Local\Temp\ccXmRZoJ.s:4595   .debug_loc:0000000000000284 .LLST2
C:\Users\stapi\AppData\Local\Temp\ccXmRZoJ.s:5417   .debug_str:000000000000069e .LASF125
C:\Users\stapi\AppData\Local\Temp\ccXmRZoJ.s:4617   .debug_loc:00000000000002bb .LLST3
C:\Users\stapi\AppData\Local\Temp\ccXmRZoJ.s:5235   .debug_str:00000000000001e0 .LASF126
C:\Users\stapi\AppData\Local\Temp\ccXmRZoJ.s:4628   .debug_loc:00000000000002d9 .LLST4
C:\Users\stapi\AppData\Local\Temp\ccXmRZoJ.s:5339   .debug_str:00000000000004f0 .LASF127
C:\Users\stapi\AppData\Local\Temp\ccXmRZoJ.s:4650   .debug_loc:0000000000000310 .LLST5
C:\Users\stapi\AppData\Local\Temp\ccXmRZoJ.s:5151   .debug_str:0000000000000006 .LASF128
C:\Users\stapi\AppData\Local\Temp\ccXmRZoJ.s:4671   .debug_loc:0000000000000348 .LLST6
C:\Users\stapi\AppData\Local\Temp\ccXmRZoJ.s:5153   .debug_str:000000000000000f .LASF129
C:\Users\stapi\AppData\Local\Temp\ccXmRZoJ.s:4694   .debug_loc:0000000000000380 .LLST7
C:\Users\stapi\AppData\Local\Temp\ccXmRZoJ.s:5279   .debug_str:0000000000000344 .LASF130
C:\Users\stapi\AppData\Local\Temp\ccXmRZoJ.s:4728   .debug_loc:00000000000003b7 .LLST8
C:\Users\stapi\AppData\Local\Temp\ccXmRZoJ.s:216    .text.ping:00000000000000da .LBB16
C:\Users\stapi\AppData\Local\Temp\ccXmRZoJ.s:4741   .debug_loc:00000000000003d7 .LLST9
C:\Users\stapi\AppData\Local\Temp\ccXmRZoJ.s:4756   .debug_loc:00000000000003fd .LLST10
C:\Users\stapi\AppData\Local\Temp\ccXmRZoJ.s:4771   .debug_loc:000000000000041f .LLST11
C:\Users\stapi\AppData\Local\Temp\ccXmRZoJ.s:4782   .debug_loc:000000000000043d .LLST12
C:\Users\stapi\AppData\Local\Temp\ccXmRZoJ.s:4793   .debug_loc:000000000000045b .LLST13
C:\Users\stapi\AppData\Local\Temp\ccXmRZoJ.s:4804   .debug_loc:0000000000000479 .LLST14
C:\Users\stapi\AppData\Local\Temp\ccXmRZoJ.s:4819   .debug_loc:00000000000004a2 .LLST15
C:\Users\stapi\AppData\Local\Temp\ccXmRZoJ.s:230    .text.ping:00000000000000f0 .LBB18
C:\Users\stapi\AppData\Local\Temp\ccXmRZoJ.s:4828   .debug_loc:00000000000004b9 .LLST16
C:\Users\stapi\AppData\Local\Temp\ccXmRZoJ.s:4839   .debug_loc:00000000000004d7 .LLST17
C:\Users\stapi\AppData\Local\Temp\ccXmRZoJ.s:4854   .debug_loc:0000000000000500 .LLST18
C:\Users\stapi\AppData\Local\Temp\ccXmRZoJ.s:4865   .debug_loc:000000000000051e .LLST19
C:\Users\stapi\AppData\Local\Temp\ccXmRZoJ.s:4881   .debug_loc:0000000000000548 .LLST20
C:\Users\stapi\AppData\Local\Temp\ccXmRZoJ.s:349    .text.ping:000000000000017e .LVL30
C:\Users\stapi\AppData\Local\Temp\ccXmRZoJ.s:369    .text.ping:000000000000019c .LVL33
C:\Users\stapi\AppData\Local\Temp\ccXmRZoJ.s:299    .text.ping:0000000000000138 .LVL24
C:\Users\stapi\AppData\Local\Temp\ccXmRZoJ.s:313    .text.ping:0000000000000144 .LVL26
C:\Users\stapi\AppData\Local\Temp\ccXmRZoJ.s:397    .text.ping:00000000000001c6 .LVL35
C:\Users\stapi\AppData\Local\Temp\ccXmRZoJ.s:404    .text.ping:00000000000001d2 .LVL38
C:\Users\stapi\AppData\Local\Temp\ccXmRZoJ.s:239    .text.ping:00000000000000f6 .LBB28
C:\Users\stapi\AppData\Local\Temp\ccXmRZoJ.s:4896   .debug_loc:000000000000056a .LLST21
C:\Users\stapi\AppData\Local\Temp\ccXmRZoJ.s:4907   .debug_loc:0000000000000588 .LLST22
C:\Users\stapi\AppData\Local\Temp\ccXmRZoJ.s:4918   .debug_loc:00000000000005a6 .LLST23
C:\Users\stapi\AppData\Local\Temp\ccXmRZoJ.s:4930   .debug_loc:00000000000005c5 .LLST24
C:\Users\stapi\AppData\Local\Temp\ccXmRZoJ.s:4945   .debug_loc:00000000000005ee .LLST25
C:\Users\stapi\AppData\Local\Temp\ccXmRZoJ.s:4970   .debug_loc:0000000000000628 .LLST26
C:\Users\stapi\AppData\Local\Temp\ccXmRZoJ.s:4982   .debug_loc:0000000000000647 .LLST27
C:\Users\stapi\AppData\Local\Temp\ccXmRZoJ.s:4993   .debug_loc:0000000000000665 .LLST28
C:\Users\stapi\AppData\Local\Temp\ccXmRZoJ.s:5006   .debug_loc:0000000000000685 .LLST29
C:\Users\stapi\AppData\Local\Temp\ccXmRZoJ.s:5041   .debug_loc:00000000000006c2 .LLST30
C:\Users\stapi\AppData\Local\Temp\ccXmRZoJ.s:5063   .debug_loc:00000000000006f9 .LLST31
C:\Users\stapi\AppData\Local\Temp\ccXmRZoJ.s:455    .text.ping:00000000000001f2 .LBB30
C:\Users\stapi\AppData\Local\Temp\ccXmRZoJ.s:469    .text.ping:0000000000000200 .LVL43
C:\Users\stapi\AppData\Local\Temp\ccXmRZoJ.s:501    .text.ping:0000000000000228 .LBB34
C:\Users\stapi\AppData\Local\Temp\ccXmRZoJ.s:510    .text.ping:0000000000000232 .LBE34
C:\Users\stapi\AppData\Local\Temp\ccXmRZoJ.s:508    .text.ping:0000000000000232 .LVL50
C:\Users\stapi\AppData\Local\Temp\ccXmRZoJ.s:652    .text.ping:0000000000000306 .LBB36
C:\Users\stapi\AppData\Local\Temp\ccXmRZoJ.s:660    .text.ping:0000000000000310 .LBE36
C:\Users\stapi\AppData\Local\Temp\ccXmRZoJ.s:658    .text.ping:0000000000000310 .LVL67
C:\Users\stapi\AppData\Local\Temp\ccXmRZoJ.s:492    .text.ping:000000000000021e .LVL47
C:\Users\stapi\AppData\Local\Temp\ccXmRZoJ.s:548    .text.ping:0000000000000272 .LVL55
C:\Users\stapi\AppData\Local\Temp\ccXmRZoJ.s:561    .text.ping:000000000000028a .LVL57
C:\Users\stapi\AppData\Local\Temp\ccXmRZoJ.s:569    .text.ping:00000000000002a0 .LVL59
C:\Users\stapi\AppData\Local\Temp\ccXmRZoJ.s:577    .text.ping:00000000000002ba .LVL60
C:\Users\stapi\AppData\Local\Temp\ccXmRZoJ.s:673    .text.ping:0000000000000328 .LVL69
C:\Users\stapi\AppData\Local\Temp\ccXmRZoJ.s:412    .text.ping:00000000000001d6 .LBB46
C:\Users\stapi\AppData\Local\Temp\ccXmRZoJ.s:420    .text.ping:00000000000001e0 .LBE46
C:\Users\stapi\AppData\Local\Temp\ccXmRZoJ.s:418    .text.ping:00000000000001e0 .LVL40
C:\Users\stapi\AppData\Local\Temp\ccXmRZoJ.s:117    .text.ping:000000000000003a .LVL5
C:\Users\stapi\AppData\Local\Temp\ccXmRZoJ.s:134    .text.ping:0000000000000054 .LVL8
C:\Users\stapi\AppData\Local\Temp\ccXmRZoJ.s:144    .text.ping:000000000000006a .LVL9
C:\Users\stapi\AppData\Local\Temp\ccXmRZoJ.s:181    .text.ping:0000000000000084 .LVL13
C:\Users\stapi\AppData\Local\Temp\ccXmRZoJ.s:191    .text.ping:000000000000009a .LVL15
C:\Users\stapi\AppData\Local\Temp\ccXmRZoJ.s:195    .text.ping:00000000000000a6 .LVL16
C:\Users\stapi\AppData\Local\Temp\ccXmRZoJ.s:205    .text.ping:00000000000000bc .LVL17
C:\Users\stapi\AppData\Local\Temp\ccXmRZoJ.s:209    .text.ping:00000000000000c6 .LVL18
C:\Users\stapi\AppData\Local\Temp\ccXmRZoJ.s:215    .text.ping:00000000000000da .LVL19
C:\Users\stapi\AppData\Local\Temp\ccXmRZoJ.s:623    .text.ping:00000000000002f8 .LVL63
C:\Users\stapi\AppData\Local\Temp\ccXmRZoJ.s:689    .text.ping:0000000000000350 .LVL71
C:\Users\stapi\AppData\Local\Temp\ccXmRZoJ.s:703    .text.ping:0000000000000376 .LVL72
C:\Users\stapi\AppData\Local\Temp\ccXmRZoJ.s:708    .text.ping:0000000000000380 .LVL73
C:\Users\stapi\AppData\Local\Temp\ccXmRZoJ.s:712    .text.ping:000000000000038c .LVL74
C:\Users\stapi\AppData\Local\Temp\ccXmRZoJ.s:5273   .debug_str:00000000000002c3 .LASF141
C:\Users\stapi\AppData\Local\Temp\ccXmRZoJ.s:5201   .debug_str:000000000000011e .LASF131
C:\Users\stapi\AppData\Local\Temp\ccXmRZoJ.s:5181   .debug_str:00000000000000c3 .LASF132
C:\Users\stapi\AppData\Local\Temp\ccXmRZoJ.s:5185   .debug_str:00000000000000ce .LASF133
C:\Users\stapi\AppData\Local\Temp\ccXmRZoJ.s:5455   .debug_str:0000000000000766 .LASF134
C:\Users\stapi\AppData\Local\Temp\ccXmRZoJ.s:5183   .debug_str:00000000000000c8 .LASF135
C:\Users\stapi\AppData\Local\Temp\ccXmRZoJ.s:5211   .debug_str:000000000000015d .LASF136
C:\Users\stapi\AppData\Local\Temp\ccXmRZoJ.s:5399   .debug_str:0000000000000637 .LASF137
C:\Users\stapi\AppData\Local\Temp\ccXmRZoJ.s:5341   .debug_str:00000000000004f5 .LASF138
C:\Users\stapi\AppData\Local\Temp\ccXmRZoJ.s:5365   .debug_str:000000000000056c .LASF140
C:\Users\stapi\AppData\Local\Temp\ccXmRZoJ.s:5303   .debug_str:00000000000003b8 .LASF142
C:\Users\stapi\AppData\Local\Temp\ccXmRZoJ.s:5377   .debug_str:00000000000005c5 .LASF143
C:\Users\stapi\AppData\Local\Temp\ccXmRZoJ.s:5421   .debug_str:00000000000006b1 .LASF172
C:\Users\stapi\AppData\Local\Temp\ccXmRZoJ.s:5159   .debug_str:0000000000000038 .LASF144
C:\Users\stapi\AppData\Local\Temp\ccXmRZoJ.s:5469   .debug_str:00000000000007cd .LASF173
C:\Users\stapi\AppData\Local\Temp\ccXmRZoJ.s:5205   .debug_str:0000000000000138 .LASF174
C:\Users\stapi\AppData\Local\Temp\ccXmRZoJ.s:5495   .debug_str:0000000000000923 .LASF145
C:\Users\stapi\AppData\Local\Temp\ccXmRZoJ.s:5471   .debug_str:00000000000007d4 .LASF146
C:\Users\stapi\AppData\Local\Temp\ccXmRZoJ.s:5395   .debug_str:0000000000000624 .LASF147
C:\Users\stapi\AppData\Local\Temp\ccXmRZoJ.s:5357   .debug_str:0000000000000547 .LASF148
C:\Users\stapi\AppData\Local\Temp\ccXmRZoJ.s:5381   .debug_str:00000000000005db .LASF149
C:\Users\stapi\AppData\Local\Temp\ccXmRZoJ.s:5291   .debug_str:000000000000037d .LASF150
C:\Users\stapi\AppData\Local\Temp\ccXmRZoJ.s:5307   .debug_str:00000000000003d9 .LASF151
C:\Users\stapi\AppData\Local\Temp\ccXmRZoJ.s:5385   .debug_str:00000000000005f3 .LASF152
C:\Users\stapi\AppData\Local\Temp\ccXmRZoJ.s:5361   .debug_str:000000000000055b .LASF153
C:\Users\stapi\AppData\Local\Temp\ccXmRZoJ.s:5321   .debug_str:0000000000000499 .LASF154
C:\Users\stapi\AppData\Local\Temp\ccXmRZoJ.s:5391   .debug_str:000000000000060e .LASF155
C:\Users\stapi\AppData\Local\Temp\ccXmRZoJ.s:5271   .debug_str:00000000000002b7 .LASF156
C:\Users\stapi\AppData\Local\Temp\ccXmRZoJ.s:5451   .debug_str:0000000000000752 .LASF157
C:\Users\stapi\AppData\Local\Temp\ccXmRZoJ.s:5169   .debug_str:0000000000000087 .LASF158
C:\Users\stapi\AppData\Local\Temp\ccXmRZoJ.s:5379   .debug_str:00000000000005ce .LASF159
C:\Users\stapi\AppData\Local\Temp\ccXmRZoJ.s:5215   .debug_str:000000000000016d .LASF160
C:\Users\stapi\AppData\Local\Temp\ccXmRZoJ.s:5255   .debug_str:0000000000000246 .LASF161
C:\Users\stapi\AppData\Local\Temp\ccXmRZoJ.s:5371   .debug_str:00000000000005a0 .LASF162
C:\Users\stapi\AppData\Local\Temp\ccXmRZoJ.s:5277   .debug_str:0000000000000337 .LASF163
C:\Users\stapi\AppData\Local\Temp\ccXmRZoJ.s:5351   .debug_str:0000000000000528 .LASF164
C:\Users\stapi\AppData\Local\Temp\ccXmRZoJ.s:857    .text.cmd_ping:0000000000000000 .LVL83
C:\Users\stapi\AppData\Local\Temp\ccXmRZoJ.s:887    .text.cmd_ping:0000000000000016 .LVL84
C:\Users\stapi\AppData\Local\Temp\ccXmRZoJ.s:889    .text.cmd_ping:000000000000001a .LVL85
C:\Users\stapi\AppData\Local\Temp\ccXmRZoJ.s:900    .text.cmd_ping:0000000000000030 .LVL87
C:\Users\stapi\AppData\Local\Temp\ccXmRZoJ.s:921    .text.cmd_ping:000000000000003a .LVL88
C:\Users\stapi\AppData\Local\Temp\ccXmRZoJ.s:1004   .text.cmd_ping:00000000000000b4 .LVL96
C:\Users\stapi\AppData\Local\Temp\ccXmRZoJ.s:1019   .text.cmd_ping:00000000000000ce .LVL97
C:\Users\stapi\AppData\Local\Temp\ccXmRZoJ.s:958    .text.cmd_ping:0000000000000076 .LVL92
C:\Users\stapi\AppData\Local\Temp\ccXmRZoJ.s:1025   .text.cmd_ping:00000000000000d6 .LVL99
C:\Users\stapi\AppData\Local\Temp\ccXmRZoJ.s:1052   .text.cmd_ping:0000000000000110 .LVL101
C:\Users\stapi\AppData\Local\Temp\ccXmRZoJ.s:1122   .text.cmd_ping:0000000000000186 .LVL112
C:\Users\stapi\AppData\Local\Temp\ccXmRZoJ.s:1237   .text.cmd_ping:000000000000026e .LVL132
C:\Users\stapi\AppData\Local\Temp\ccXmRZoJ.s:1243   .text.cmd_ping:0000000000000278 .LVL134
C:\Users\stapi\AppData\Local\Temp\ccXmRZoJ.s:1250   .text.cmd_ping:0000000000000282 .LVL135
C:\Users\stapi\AppData\Local\Temp\ccXmRZoJ.s:1023   .text.cmd_ping:00000000000000d2 .LVL98
C:\Users\stapi\AppData\Local\Temp\ccXmRZoJ.s:1078   .text.cmd_ping:0000000000000134 .LVL104
C:\Users\stapi\AppData\Local\Temp\ccXmRZoJ.s:1080   .text.cmd_ping:0000000000000136 .LVL105
C:\Users\stapi\AppData\Local\Temp\ccXmRZoJ.s:1130   .text.cmd_ping:0000000000000188 .LVL113
C:\Users\stapi\AppData\Local\Temp\ccXmRZoJ.s:1135   .text.cmd_ping:000000000000018e .LVL114
C:\Users\stapi\AppData\Local\Temp\ccXmRZoJ.s:1156   .text.cmd_ping:00000000000001ae .LVL117
C:\Users\stapi\AppData\Local\Temp\ccXmRZoJ.s:1158   .text.cmd_ping:00000000000001b0 .LVL118
C:\Users\stapi\AppData\Local\Temp\ccXmRZoJ.s:1188   .text.cmd_ping:00000000000001de .LVL122
C:\Users\stapi\AppData\Local\Temp\ccXmRZoJ.s:982    .text.cmd_ping:0000000000000098 .LVL94
C:\Users\stapi\AppData\Local\Temp\ccXmRZoJ.s:1103   .text.cmd_ping:000000000000015c .LVL108
C:\Users\stapi\AppData\Local\Temp\ccXmRZoJ.s:1186   .text.cmd_ping:00000000000001da .LVL121
C:\Users\stapi\AppData\Local\Temp\ccXmRZoJ.s:736    .text.ping_task_func:0000000000000000 .LVL76
C:\Users\stapi\AppData\Local\Temp\ccXmRZoJ.s:755    .text.ping_task_func:0000000000000018 .LVL79
C:\Users\stapi\AppData\Local\Temp\ccXmRZoJ.s:745    .text.ping_task_func:000000000000000a .LVL77
C:\Users\stapi\AppData\Local\Temp\ccXmRZoJ.s:49     .text.ping:0000000000000000 .LVL0
C:\Users\stapi\AppData\Local\Temp\ccXmRZoJ.s:183    .text.ping:0000000000000086 .LVL14
C:\Users\stapi\AppData\Local\Temp\ccXmRZoJ.s:717    .text.ping:0000000000000390 .LVL75
C:\Users\stapi\AppData\Local\Temp\ccXmRZoJ.s:102    .text.ping:0000000000000030 .LVL4
C:\Users\stapi\AppData\Local\Temp\ccXmRZoJ.s:150    .text.ping:000000000000006c .LVL10
C:\Users\stapi\AppData\Local\Temp\ccXmRZoJ.s:172    .text.ping:0000000000000076 .LVL12
C:\Users\stapi\AppData\Local\Temp\ccXmRZoJ.s:264    .text.ping:0000000000000104 .LVL21
C:\Users\stapi\AppData\Local\Temp\ccXmRZoJ.s:76     .text.ping:0000000000000010 .LVL1
C:\Users\stapi\AppData\Local\Temp\ccXmRZoJ.s:86     .text.ping:000000000000001c .LVL2
C:\Users\stapi\AppData\Local\Temp\ccXmRZoJ.s:90     .text.ping:000000000000001e .LVL3
C:\Users\stapi\AppData\Local\Temp\ccXmRZoJ.s:156    .text.ping:000000000000006e .LVL11
C:\Users\stapi\AppData\Local\Temp\ccXmRZoJ.s:257    .text.ping:0000000000000100 .LVL20
C:\Users\stapi\AppData\Local\Temp\ccXmRZoJ.s:121    .text.ping:000000000000003e .LVL6
C:\Users\stapi\AppData\Local\Temp\ccXmRZoJ.s:132    .text.ping:000000000000004c .LVL7
C:\Users\stapi\AppData\Local\Temp\ccXmRZoJ.s:275    .text.ping:0000000000000110 .LVL22
C:\Users\stapi\AppData\Local\Temp\ccXmRZoJ.s:408    .text.ping:00000000000001d6 .LVL39
C:\Users\stapi\AppData\Local\Temp\ccXmRZoJ.s:627    .text.ping:00000000000002fa .LVL64
C:\Users\stapi\AppData\Local\Temp\ccXmRZoJ.s:643    .text.ping:0000000000000306 .LVL66
C:\Users\stapi\AppData\Local\Temp\ccXmRZoJ.s:399    .text.ping:00000000000001c8 .LVL36
C:\Users\stapi\AppData\Local\Temp\ccXmRZoJ.s:402    .text.ping:00000000000001ca .LVL37
C:\Users\stapi\AppData\Local\Temp\ccXmRZoJ.s:315    .text.ping:0000000000000146 .LVL27
C:\Users\stapi\AppData\Local\Temp\ccXmRZoJ.s:342    .text.ping:000000000000016c .LVL29
C:\Users\stapi\AppData\Local\Temp\ccXmRZoJ.s:286    .text.ping:0000000000000114 .LVL23
C:\Users\stapi\AppData\Local\Temp\ccXmRZoJ.s:305    .text.ping:000000000000013a .LVL25
C:\Users\stapi\AppData\Local\Temp\ccXmRZoJ.s:320    .text.ping:000000000000014a .LVL28
C:\Users\stapi\AppData\Local\Temp\ccXmRZoJ.s:374    .text.ping:00000000000001a6 .LVL34
C:\Users\stapi\AppData\Local\Temp\ccXmRZoJ.s:355    .text.ping:0000000000000188 .LVL31
C:\Users\stapi\AppData\Local\Temp\ccXmRZoJ.s:358    .text.ping:000000000000018a .LVL32
C:\Users\stapi\AppData\Local\Temp\ccXmRZoJ.s:432    .text.ping:00000000000001ea .LVL41
C:\Users\stapi\AppData\Local\Temp\ccXmRZoJ.s:607    .text.ping:00000000000002e6 .LVL61
C:\Users\stapi\AppData\Local\Temp\ccXmRZoJ.s:675    .text.ping:000000000000032a .LVL70
C:\Users\stapi\AppData\Local\Temp\ccXmRZoJ.s:537    .text.ping:000000000000025a .LVL54
C:\Users\stapi\AppData\Local\Temp\ccXmRZoJ.s:494    .text.ping:0000000000000220 .LVL48
C:\Users\stapi\AppData\Local\Temp\ccXmRZoJ.s:506    .text.ping:000000000000022a .LVL49
C:\Users\stapi\AppData\Local\Temp\ccXmRZoJ.s:666    .text.ping:0000000000000318 .LVL68
C:\Users\stapi\AppData\Local\Temp\ccXmRZoJ.s:487    .text.ping:0000000000000210 .LVL46
C:\Users\stapi\AppData\Local\Temp\ccXmRZoJ.s:515    .text.ping:0000000000000236 .LVL51
C:\Users\stapi\AppData\Local\Temp\ccXmRZoJ.s:526    .text.ping:0000000000000244 .LVL53
C:\Users\stapi\AppData\Local\Temp\ccXmRZoJ.s:522    .text.ping:0000000000000240 .LVL52
C:\Users\stapi\AppData\Local\Temp\ccXmRZoJ.s:471    .text.ping:0000000000000202 .LVL44
C:\Users\stapi\AppData\Local\Temp\ccXmRZoJ.s:479    .text.ping:0000000000000208 .LVL45
C:\Users\stapi\AppData\Local\Temp\ccXmRZoJ.s:563    .text.ping:000000000000028c .LVL58
C:\Users\stapi\AppData\Local\Temp\ccXmRZoJ.s:460    .text.ping:00000000000001f8 .LVL42
C:\Users\stapi\AppData\Local\Temp\ccXmRZoJ.s:558    .text.ping:0000000000000282 .LVL56
C:\Users\stapi\AppData\Local\Temp\ccXmRZoJ.s:1300   .debug_info:0000000000000000 .Ldebug_info0
C:\Users\stapi\AppData\Local\Temp\ccXmRZoJ.s:238    .text.ping:00000000000000f6 .LBE16
C:\Users\stapi\AppData\Local\Temp\ccXmRZoJ.s:245    .text.ping:00000000000000f8 .LBB42
C:\Users\stapi\AppData\Local\Temp\ccXmRZoJ.s:250    .text.ping:00000000000000fc .LBE42
C:\Users\stapi\AppData\Local\Temp\ccXmRZoJ.s:253    .text.ping:00000000000000fe .LBB43
C:\Users\stapi\AppData\Local\Temp\ccXmRZoJ.s:259    .text.ping:0000000000000100 .LBE43
C:\Users\stapi\AppData\Local\Temp\ccXmRZoJ.s:276    .text.ping:0000000000000110 .LBB45
C:\Users\stapi\AppData\Local\Temp\ccXmRZoJ.s:410    .text.ping:00000000000001d6 .LBE45
C:\Users\stapi\AppData\Local\Temp\ccXmRZoJ.s:629    .text.ping:00000000000002fa .LBB50
C:\Users\stapi\AppData\Local\Temp\ccXmRZoJ.s:648    .text.ping:0000000000000306 .LBE50
C:\Users\stapi\AppData\Local\Temp\ccXmRZoJ.s:236    .text.ping:00000000000000f6 .LBE18
C:\Users\stapi\AppData\Local\Temp\ccXmRZoJ.s:321    .text.ping:000000000000014a .LBB22
C:\Users\stapi\AppData\Local\Temp\ccXmRZoJ.s:376    .text.ping:00000000000001a6 .LBE22
C:\Users\stapi\AppData\Local\Temp\ccXmRZoJ.s:631    .text.ping:00000000000002fa .LBB23
C:\Users\stapi\AppData\Local\Temp\ccXmRZoJ.s:646    .text.ping:0000000000000306 .LBE23
C:\Users\stapi\AppData\Local\Temp\ccXmRZoJ.s:244    .text.ping:00000000000000f8 .LBE28
C:\Users\stapi\AppData\Local\Temp\ccXmRZoJ.s:260    .text.ping:0000000000000100 .LBB44
C:\Users\stapi\AppData\Local\Temp\ccXmRZoJ.s:267    .text.ping:0000000000000104 .LBE44
C:\Users\stapi\AppData\Local\Temp\ccXmRZoJ.s:421    .text.ping:00000000000001e0 .LBB48
C:\Users\stapi\AppData\Local\Temp\ccXmRZoJ.s:428    .text.ping:00000000000001e6 .LBE48
C:\Users\stapi\AppData\Local\Temp\ccXmRZoJ.s:433    .text.ping:00000000000001ea .LBB49
C:\Users\stapi\AppData\Local\Temp\ccXmRZoJ.s:610    .text.ping:00000000000002e6 .LBE49
C:\Users\stapi\AppData\Local\Temp\ccXmRZoJ.s:649    .text.ping:0000000000000306 .LBB51
C:\Users\stapi\AppData\Local\Temp\ccXmRZoJ.s:678    .text.ping:000000000000032a .LBE51
C:\Users\stapi\AppData\Local\Temp\ccXmRZoJ.s:462    .text.ping:00000000000001f8 .LBE30
C:\Users\stapi\AppData\Local\Temp\ccXmRZoJ.s:464    .text.ping:00000000000001f8 .LBB33
C:\Users\stapi\AppData\Local\Temp\ccXmRZoJ.s:473    .text.ping:0000000000000202 .LBE33
C:\Users\stapi\AppData\Local\Temp\ccXmRZoJ.s:1027   .text.cmd_ping:00000000000000d6 .LBE54
C:\Users\stapi\AppData\Local\Temp\ccXmRZoJ.s:1054   .text.cmd_ping:0000000000000110 .LBB58
C:\Users\stapi\AppData\Local\Temp\ccXmRZoJ.s:1116   .text.cmd_ping:000000000000017a .LBE58
C:\Users\stapi\AppData\Local\Temp\ccXmRZoJ.s:1124   .text.cmd_ping:0000000000000186 .LBB59
C:\Users\stapi\AppData\Local\Temp\ccXmRZoJ.s:1253   .text.cmd_ping:0000000000000282 .LBE59

UNDEFINED SYMBOLS
__riscv_save_12
ip4addr_aton
sys_malloc
co_printf
__riscv_restore_12
lwip_socket
sys_mfree
lwip_setsockopt
ip4addr_ntoa
printf
lwip_htons
inet_chksum
lwip_sendto
sys_os_now
lwip_recvfrom
sys_ms_sleep
lwip_close
__riscv_save_1
sys_task_delete
__riscv_restore_1
strcmp
sys_calloc
strlen
memcpy
sys_task_create
atoi
