   1              		.file	"shadow_delta.c"
   2              		.option nopic
   3              		.attribute arch, "rv32i2p0_m2p0_a2p0_f2p0_c2p0_b_p0p94"
   4              		.attribute unaligned_access, 0
   5              		.attribute stack_align, 16
   6              		.text
   7              	.Ltext0:
   8              		.cfi_sections	.debug_frame
   9              		.section	.rodata.iotx_shadow_delta_entry.str1.4,"aMS",@progbits,1
  10              		.align	2
  11              	.LC0:
  12 0000 7061796C 		.string	"payload.metadata.reported"
  12      6F61642E 
  12      6D657461 
  12      64617461 
  12      2E726570 
  13 001a 0000     		.align	2
  14              	.LC1:
  15 001c 7061796C 		.string	"payload.metadata.desired"
  15      6F61642E 
  15      6D657461 
  15      64617461 
  15      2E646573 
  16 0035 000000   		.align	2
  17              	.LC2:
  18 0038 7061796C 		.string	"payload.state.desired"
  18      6F61642E 
  18      73746174 
  18      652E6465 
  18      73697265 
  19 004e 0000     		.align	2
  20              	.LC3:
  21 0050 7061796C 		.string	"payload.state.reported"
  21      6F61642E 
  21      73746174 
  21      652E7265 
  21      706F7274 
  22 0067 00       		.align	2
  23              	.LC4:
  24 0068 5B657272 		.string	"[err] "
  24      5D2000
  25 006f 00       		.align	2
  26              	.LC5:
  27 0070 496E7661 		.string	"Invalid JSON Doc"
  27      6C696420 
  27      4A534F4E 
  27      20446F63 
  27      00
  28 0081 000000   		.align	2
  29              	.LC6:
  30 0084 0D0A00   		.string	"\r\n"
  31 0087 00       		.align	2
  32              	.LC7:
  33 0088 5B77726E 		.string	"[wrn] "
  33      5D2000
  34 008f 00       		.align	2
  35              	.LC8:
  36 0090 416C6C6F 		.string	"Allocate memory failed"
  36      63617465 
  36      206D656D 
  36      6F727920 
  36      6661696C 
  37 00a7 00       		.align	2
  38              	.LC9:
  39 00a8 74696D65 		.string	"timestamp"
  39      7374616D 
  39      7000
  40 00b2 0000     		.align	2
  41              	.LC10:
  42 00b4 4E4F5420 		.string	"NOT timestamp in JSON doc"
  42      74696D65 
  42      7374616D 
  42      7020696E 
  42      204A534F 
  43 00ce 0000     		.align	2
  44              	.LC11:
  45 00d0 55706461 		.string	"Update attribute value failed."
  45      74652061 
  45      74747269 
  45      62757465 
  45      2076616C 
  46 00ef 00       		.align	2
  47              	.LC12:
  48 00f0 22737461 		.string	"\"state\":{\"desired\":\"null\""
  48      7465223A 
  48      7B226465 
  48      73697265 
  48      64223A22 
  49 010a 0000     		.align	2
  50              	.LC13:
  51 010c 75706461 		.string	"update"
  51      746500
  52 0113 00       		.align	2
  53              	.LC14:
  54 0114 7D00     		.string	"}"
  55              		.section	.text.iotx_shadow_delta_entry,"ax",@progbits
  56              		.align	1
  57              		.globl	iotx_shadow_delta_entry
  59              	iotx_shadow_delta_entry:
  60              	.LFB24:
  61              		.file 1 "C:/Users/stapi/OneDrive/Desktop/GD32VW553/V1_MQTT_OK/GD32VW55X_Wifi_BLE_SDK/GD32VW55x_REL
   1:C:/Users/stapi/OneDrive/Desktop/GD32VW553/V1_MQTT_OK/GD32VW55X_Wifi_BLE_SDK/GD32VW55x_RELEASE_V1.0.2/MSDK/cloud/alicloud/src/services/shadow\shadow_delta.c **** /*
   2:C:/Users/stapi/OneDrive/Desktop/GD32VW553/V1_MQTT_OK/GD32VW55X_Wifi_BLE_SDK/GD32VW55x_RELEASE_V1.0.2/MSDK/cloud/alicloud/src/services/shadow\shadow_delta.c ****  * Copyright (C) 2015-2018 Alibaba Group Holding Limited
   3:C:/Users/stapi/OneDrive/Desktop/GD32VW553/V1_MQTT_OK/GD32VW55X_Wifi_BLE_SDK/GD32VW55x_RELEASE_V1.0.2/MSDK/cloud/alicloud/src/services/shadow\shadow_delta.c ****  */
   4:C:/Users/stapi/OneDrive/Desktop/GD32VW553/V1_MQTT_OK/GD32VW55X_Wifi_BLE_SDK/GD32VW55x_RELEASE_V1.0.2/MSDK/cloud/alicloud/src/services/shadow\shadow_delta.c **** 
   5:C:/Users/stapi/OneDrive/Desktop/GD32VW553/V1_MQTT_OK/GD32VW55X_Wifi_BLE_SDK/GD32VW55x_RELEASE_V1.0.2/MSDK/cloud/alicloud/src/services/shadow\shadow_delta.c **** 
   6:C:/Users/stapi/OneDrive/Desktop/GD32VW553/V1_MQTT_OK/GD32VW55X_Wifi_BLE_SDK/GD32VW55x_RELEASE_V1.0.2/MSDK/cloud/alicloud/src/services/shadow\shadow_delta.c **** 
   7:C:/Users/stapi/OneDrive/Desktop/GD32VW553/V1_MQTT_OK/GD32VW55X_Wifi_BLE_SDK/GD32VW55x_RELEASE_V1.0.2/MSDK/cloud/alicloud/src/services/shadow\shadow_delta.c **** 
   8:C:/Users/stapi/OneDrive/Desktop/GD32VW553/V1_MQTT_OK/GD32VW55X_Wifi_BLE_SDK/GD32VW55x_RELEASE_V1.0.2/MSDK/cloud/alicloud/src/services/shadow\shadow_delta.c **** 
   9:C:/Users/stapi/OneDrive/Desktop/GD32VW553/V1_MQTT_OK/GD32VW55X_Wifi_BLE_SDK/GD32VW55x_RELEASE_V1.0.2/MSDK/cloud/alicloud/src/services/shadow\shadow_delta.c **** #include "iot_import.h"
  10:C:/Users/stapi/OneDrive/Desktop/GD32VW553/V1_MQTT_OK/GD32VW55X_Wifi_BLE_SDK/GD32VW55x_RELEASE_V1.0.2/MSDK/cloud/alicloud/src/services/shadow\shadow_delta.c **** 
  11:C:/Users/stapi/OneDrive/Desktop/GD32VW553/V1_MQTT_OK/GD32VW55X_Wifi_BLE_SDK/GD32VW55x_RELEASE_V1.0.2/MSDK/cloud/alicloud/src/services/shadow\shadow_delta.c **** #include "shadow_debug.h"
  12:C:/Users/stapi/OneDrive/Desktop/GD32VW553/V1_MQTT_OK/GD32VW55X_Wifi_BLE_SDK/GD32VW55x_RELEASE_V1.0.2/MSDK/cloud/alicloud/src/services/shadow\shadow_delta.c **** #include "iotx_utils.h"
  13:C:/Users/stapi/OneDrive/Desktop/GD32VW553/V1_MQTT_OK/GD32VW55X_Wifi_BLE_SDK/GD32VW55x_RELEASE_V1.0.2/MSDK/cloud/alicloud/src/services/shadow\shadow_delta.c **** #include "utils_list.h"
  14:C:/Users/stapi/OneDrive/Desktop/GD32VW553/V1_MQTT_OK/GD32VW55X_Wifi_BLE_SDK/GD32VW55x_RELEASE_V1.0.2/MSDK/cloud/alicloud/src/services/shadow\shadow_delta.c **** #include "shadow_delta.h"
  15:C:/Users/stapi/OneDrive/Desktop/GD32VW553/V1_MQTT_OK/GD32VW55X_Wifi_BLE_SDK/GD32VW55x_RELEASE_V1.0.2/MSDK/cloud/alicloud/src/services/shadow\shadow_delta.c **** 
  16:C:/Users/stapi/OneDrive/Desktop/GD32VW553/V1_MQTT_OK/GD32VW55X_Wifi_BLE_SDK/GD32VW55x_RELEASE_V1.0.2/MSDK/cloud/alicloud/src/services/shadow\shadow_delta.c **** static int iotx_shadow_delta_response(iotx_shadow_pt pshadow)
  17:C:/Users/stapi/OneDrive/Desktop/GD32VW553/V1_MQTT_OK/GD32VW55X_Wifi_BLE_SDK/GD32VW55x_RELEASE_V1.0.2/MSDK/cloud/alicloud/src/services/shadow\shadow_delta.c **** {
  18:C:/Users/stapi/OneDrive/Desktop/GD32VW553/V1_MQTT_OK/GD32VW55X_Wifi_BLE_SDK/GD32VW55x_RELEASE_V1.0.2/MSDK/cloud/alicloud/src/services/shadow\shadow_delta.c **** #define IOTX_SHADOW_DELTA_RESPONSE_LEN     (256)
  19:C:/Users/stapi/OneDrive/Desktop/GD32VW553/V1_MQTT_OK/GD32VW55X_Wifi_BLE_SDK/GD32VW55x_RELEASE_V1.0.2/MSDK/cloud/alicloud/src/services/shadow\shadow_delta.c **** 
  20:C:/Users/stapi/OneDrive/Desktop/GD32VW553/V1_MQTT_OK/GD32VW55X_Wifi_BLE_SDK/GD32VW55x_RELEASE_V1.0.2/MSDK/cloud/alicloud/src/services/shadow\shadow_delta.c ****     int rc;
  21:C:/Users/stapi/OneDrive/Desktop/GD32VW553/V1_MQTT_OK/GD32VW55X_Wifi_BLE_SDK/GD32VW55x_RELEASE_V1.0.2/MSDK/cloud/alicloud/src/services/shadow\shadow_delta.c ****     void *buf;
  22:C:/Users/stapi/OneDrive/Desktop/GD32VW553/V1_MQTT_OK/GD32VW55X_Wifi_BLE_SDK/GD32VW55x_RELEASE_V1.0.2/MSDK/cloud/alicloud/src/services/shadow\shadow_delta.c ****     format_data_t format;
  23:C:/Users/stapi/OneDrive/Desktop/GD32VW553/V1_MQTT_OK/GD32VW55X_Wifi_BLE_SDK/GD32VW55x_RELEASE_V1.0.2/MSDK/cloud/alicloud/src/services/shadow\shadow_delta.c **** 
  24:C:/Users/stapi/OneDrive/Desktop/GD32VW553/V1_MQTT_OK/GD32VW55X_Wifi_BLE_SDK/GD32VW55x_RELEASE_V1.0.2/MSDK/cloud/alicloud/src/services/shadow\shadow_delta.c ****     buf = SHADOW_malloc(IOTX_SHADOW_DELTA_RESPONSE_LEN);
  25:C:/Users/stapi/OneDrive/Desktop/GD32VW553/V1_MQTT_OK/GD32VW55X_Wifi_BLE_SDK/GD32VW55x_RELEASE_V1.0.2/MSDK/cloud/alicloud/src/services/shadow\shadow_delta.c ****     if (NULL == buf) {
  26:C:/Users/stapi/OneDrive/Desktop/GD32VW553/V1_MQTT_OK/GD32VW55X_Wifi_BLE_SDK/GD32VW55x_RELEASE_V1.0.2/MSDK/cloud/alicloud/src/services/shadow\shadow_delta.c ****         return ERROR_NO_MEM;
  27:C:/Users/stapi/OneDrive/Desktop/GD32VW553/V1_MQTT_OK/GD32VW55X_Wifi_BLE_SDK/GD32VW55x_RELEASE_V1.0.2/MSDK/cloud/alicloud/src/services/shadow\shadow_delta.c ****     }
  28:C:/Users/stapi/OneDrive/Desktop/GD32VW553/V1_MQTT_OK/GD32VW55X_Wifi_BLE_SDK/GD32VW55x_RELEASE_V1.0.2/MSDK/cloud/alicloud/src/services/shadow\shadow_delta.c **** 
  29:C:/Users/stapi/OneDrive/Desktop/GD32VW553/V1_MQTT_OK/GD32VW55X_Wifi_BLE_SDK/GD32VW55x_RELEASE_V1.0.2/MSDK/cloud/alicloud/src/services/shadow\shadow_delta.c ****     iotx_ds_common_format_init(pshadow, &format, buf, IOTX_SHADOW_DELTA_RESPONSE_LEN, "update",
  30:C:/Users/stapi/OneDrive/Desktop/GD32VW553/V1_MQTT_OK/GD32VW55X_Wifi_BLE_SDK/GD32VW55x_RELEASE_V1.0.2/MSDK/cloud/alicloud/src/services/shadow\shadow_delta.c ****                                "\"state\":{\"desired\":\"null\"");
  31:C:/Users/stapi/OneDrive/Desktop/GD32VW553/V1_MQTT_OK/GD32VW55X_Wifi_BLE_SDK/GD32VW55x_RELEASE_V1.0.2/MSDK/cloud/alicloud/src/services/shadow\shadow_delta.c ****     iotx_ds_common_format_finalize(pshadow, &format, "}", 0);
  32:C:/Users/stapi/OneDrive/Desktop/GD32VW553/V1_MQTT_OK/GD32VW55X_Wifi_BLE_SDK/GD32VW55x_RELEASE_V1.0.2/MSDK/cloud/alicloud/src/services/shadow\shadow_delta.c **** 
  33:C:/Users/stapi/OneDrive/Desktop/GD32VW553/V1_MQTT_OK/GD32VW55X_Wifi_BLE_SDK/GD32VW55x_RELEASE_V1.0.2/MSDK/cloud/alicloud/src/services/shadow\shadow_delta.c ****     rc = iotx_ds_common_publish2update(pshadow, format.buf, format.offset);
  34:C:/Users/stapi/OneDrive/Desktop/GD32VW553/V1_MQTT_OK/GD32VW55X_Wifi_BLE_SDK/GD32VW55x_RELEASE_V1.0.2/MSDK/cloud/alicloud/src/services/shadow\shadow_delta.c **** 
  35:C:/Users/stapi/OneDrive/Desktop/GD32VW553/V1_MQTT_OK/GD32VW55X_Wifi_BLE_SDK/GD32VW55x_RELEASE_V1.0.2/MSDK/cloud/alicloud/src/services/shadow\shadow_delta.c ****     LITE_free(buf);
  36:C:/Users/stapi/OneDrive/Desktop/GD32VW553/V1_MQTT_OK/GD32VW55X_Wifi_BLE_SDK/GD32VW55x_RELEASE_V1.0.2/MSDK/cloud/alicloud/src/services/shadow\shadow_delta.c **** 
  37:C:/Users/stapi/OneDrive/Desktop/GD32VW553/V1_MQTT_OK/GD32VW55X_Wifi_BLE_SDK/GD32VW55x_RELEASE_V1.0.2/MSDK/cloud/alicloud/src/services/shadow\shadow_delta.c ****     return (rc >= 0) ? SUCCESS_RETURN : rc;
  38:C:/Users/stapi/OneDrive/Desktop/GD32VW553/V1_MQTT_OK/GD32VW55X_Wifi_BLE_SDK/GD32VW55x_RELEASE_V1.0.2/MSDK/cloud/alicloud/src/services/shadow\shadow_delta.c **** }
  39:C:/Users/stapi/OneDrive/Desktop/GD32VW553/V1_MQTT_OK/GD32VW55X_Wifi_BLE_SDK/GD32VW55x_RELEASE_V1.0.2/MSDK/cloud/alicloud/src/services/shadow\shadow_delta.c **** 
  40:C:/Users/stapi/OneDrive/Desktop/GD32VW553/V1_MQTT_OK/GD32VW55X_Wifi_BLE_SDK/GD32VW55x_RELEASE_V1.0.2/MSDK/cloud/alicloud/src/services/shadow\shadow_delta.c **** 
  41:C:/Users/stapi/OneDrive/Desktop/GD32VW553/V1_MQTT_OK/GD32VW55X_Wifi_BLE_SDK/GD32VW55x_RELEASE_V1.0.2/MSDK/cloud/alicloud/src/services/shadow\shadow_delta.c **** 
  42:C:/Users/stapi/OneDrive/Desktop/GD32VW553/V1_MQTT_OK/GD32VW55X_Wifi_BLE_SDK/GD32VW55x_RELEASE_V1.0.2/MSDK/cloud/alicloud/src/services/shadow\shadow_delta.c **** static uint32_t iotx_shadow_get_timestamp(const char *pmetadata_desired,
  43:C:/Users/stapi/OneDrive/Desktop/GD32VW553/V1_MQTT_OK/GD32VW55X_Wifi_BLE_SDK/GD32VW55x_RELEASE_V1.0.2/MSDK/cloud/alicloud/src/services/shadow\shadow_delta.c ****         size_t len_metadata_desired,
  44:C:/Users/stapi/OneDrive/Desktop/GD32VW553/V1_MQTT_OK/GD32VW55X_Wifi_BLE_SDK/GD32VW55x_RELEASE_V1.0.2/MSDK/cloud/alicloud/src/services/shadow\shadow_delta.c ****         const char *pname)
  45:C:/Users/stapi/OneDrive/Desktop/GD32VW553/V1_MQTT_OK/GD32VW55X_Wifi_BLE_SDK/GD32VW55x_RELEASE_V1.0.2/MSDK/cloud/alicloud/src/services/shadow\shadow_delta.c **** {
  46:C:/Users/stapi/OneDrive/Desktop/GD32VW553/V1_MQTT_OK/GD32VW55X_Wifi_BLE_SDK/GD32VW55x_RELEASE_V1.0.2/MSDK/cloud/alicloud/src/services/shadow\shadow_delta.c ****     const char *pdata_desired;
  47:C:/Users/stapi/OneDrive/Desktop/GD32VW553/V1_MQTT_OK/GD32VW55X_Wifi_BLE_SDK/GD32VW55x_RELEASE_V1.0.2/MSDK/cloud/alicloud/src/services/shadow\shadow_delta.c ****     const char *pdata;
  48:C:/Users/stapi/OneDrive/Desktop/GD32VW553/V1_MQTT_OK/GD32VW55X_Wifi_BLE_SDK/GD32VW55x_RELEASE_V1.0.2/MSDK/cloud/alicloud/src/services/shadow\shadow_delta.c **** 
  49:C:/Users/stapi/OneDrive/Desktop/GD32VW553/V1_MQTT_OK/GD32VW55X_Wifi_BLE_SDK/GD32VW55x_RELEASE_V1.0.2/MSDK/cloud/alicloud/src/services/shadow\shadow_delta.c ****     uint32_t ret = 0;
  50:C:/Users/stapi/OneDrive/Desktop/GD32VW553/V1_MQTT_OK/GD32VW55X_Wifi_BLE_SDK/GD32VW55x_RELEASE_V1.0.2/MSDK/cloud/alicloud/src/services/shadow\shadow_delta.c **** 
  51:C:/Users/stapi/OneDrive/Desktop/GD32VW553/V1_MQTT_OK/GD32VW55X_Wifi_BLE_SDK/GD32VW55x_RELEASE_V1.0.2/MSDK/cloud/alicloud/src/services/shadow\shadow_delta.c ****     /* attribute be matched, and then get timestamp */
  52:C:/Users/stapi/OneDrive/Desktop/GD32VW553/V1_MQTT_OK/GD32VW55X_Wifi_BLE_SDK/GD32VW55x_RELEASE_V1.0.2/MSDK/cloud/alicloud/src/services/shadow\shadow_delta.c **** 
  53:C:/Users/stapi/OneDrive/Desktop/GD32VW553/V1_MQTT_OK/GD32VW55X_Wifi_BLE_SDK/GD32VW55x_RELEASE_V1.0.2/MSDK/cloud/alicloud/src/services/shadow\shadow_delta.c ****     pdata_desired = LITE_json_value_of((char *)pname, (char *)pmetadata_desired);
  54:C:/Users/stapi/OneDrive/Desktop/GD32VW553/V1_MQTT_OK/GD32VW55X_Wifi_BLE_SDK/GD32VW55x_RELEASE_V1.0.2/MSDK/cloud/alicloud/src/services/shadow\shadow_delta.c **** 
  55:C:/Users/stapi/OneDrive/Desktop/GD32VW553/V1_MQTT_OK/GD32VW55X_Wifi_BLE_SDK/GD32VW55x_RELEASE_V1.0.2/MSDK/cloud/alicloud/src/services/shadow\shadow_delta.c ****     if (NULL != pdata_desired) {
  56:C:/Users/stapi/OneDrive/Desktop/GD32VW553/V1_MQTT_OK/GD32VW55X_Wifi_BLE_SDK/GD32VW55x_RELEASE_V1.0.2/MSDK/cloud/alicloud/src/services/shadow\shadow_delta.c ****         pdata = LITE_json_value_of((char *)"timestamp", (char *)pdata_desired);
  57:C:/Users/stapi/OneDrive/Desktop/GD32VW553/V1_MQTT_OK/GD32VW55X_Wifi_BLE_SDK/GD32VW55x_RELEASE_V1.0.2/MSDK/cloud/alicloud/src/services/shadow\shadow_delta.c ****         if (NULL != pdata) {
  58:C:/Users/stapi/OneDrive/Desktop/GD32VW553/V1_MQTT_OK/GD32VW55X_Wifi_BLE_SDK/GD32VW55x_RELEASE_V1.0.2/MSDK/cloud/alicloud/src/services/shadow\shadow_delta.c ****             ret = atoi(pdata);
  59:C:/Users/stapi/OneDrive/Desktop/GD32VW553/V1_MQTT_OK/GD32VW55X_Wifi_BLE_SDK/GD32VW55x_RELEASE_V1.0.2/MSDK/cloud/alicloud/src/services/shadow\shadow_delta.c ****             LITE_free(pdata);
  60:C:/Users/stapi/OneDrive/Desktop/GD32VW553/V1_MQTT_OK/GD32VW55X_Wifi_BLE_SDK/GD32VW55x_RELEASE_V1.0.2/MSDK/cloud/alicloud/src/services/shadow\shadow_delta.c ****             LITE_free(pdata_desired);
  61:C:/Users/stapi/OneDrive/Desktop/GD32VW553/V1_MQTT_OK/GD32VW55X_Wifi_BLE_SDK/GD32VW55x_RELEASE_V1.0.2/MSDK/cloud/alicloud/src/services/shadow\shadow_delta.c ****             return ret;
  62:C:/Users/stapi/OneDrive/Desktop/GD32VW553/V1_MQTT_OK/GD32VW55X_Wifi_BLE_SDK/GD32VW55x_RELEASE_V1.0.2/MSDK/cloud/alicloud/src/services/shadow\shadow_delta.c ****         }
  63:C:/Users/stapi/OneDrive/Desktop/GD32VW553/V1_MQTT_OK/GD32VW55X_Wifi_BLE_SDK/GD32VW55x_RELEASE_V1.0.2/MSDK/cloud/alicloud/src/services/shadow\shadow_delta.c **** 
  64:C:/Users/stapi/OneDrive/Desktop/GD32VW553/V1_MQTT_OK/GD32VW55X_Wifi_BLE_SDK/GD32VW55x_RELEASE_V1.0.2/MSDK/cloud/alicloud/src/services/shadow\shadow_delta.c ****         LITE_free(pdata_desired);
  65:C:/Users/stapi/OneDrive/Desktop/GD32VW553/V1_MQTT_OK/GD32VW55X_Wifi_BLE_SDK/GD32VW55x_RELEASE_V1.0.2/MSDK/cloud/alicloud/src/services/shadow\shadow_delta.c ****     }
  66:C:/Users/stapi/OneDrive/Desktop/GD32VW553/V1_MQTT_OK/GD32VW55X_Wifi_BLE_SDK/GD32VW55x_RELEASE_V1.0.2/MSDK/cloud/alicloud/src/services/shadow\shadow_delta.c **** 
  67:C:/Users/stapi/OneDrive/Desktop/GD32VW553/V1_MQTT_OK/GD32VW55X_Wifi_BLE_SDK/GD32VW55x_RELEASE_V1.0.2/MSDK/cloud/alicloud/src/services/shadow\shadow_delta.c ****     shadow_err("NOT timestamp in JSON doc");
  68:C:/Users/stapi/OneDrive/Desktop/GD32VW553/V1_MQTT_OK/GD32VW55X_Wifi_BLE_SDK/GD32VW55x_RELEASE_V1.0.2/MSDK/cloud/alicloud/src/services/shadow\shadow_delta.c ****     return 0;
  69:C:/Users/stapi/OneDrive/Desktop/GD32VW553/V1_MQTT_OK/GD32VW55X_Wifi_BLE_SDK/GD32VW55x_RELEASE_V1.0.2/MSDK/cloud/alicloud/src/services/shadow\shadow_delta.c **** }
  70:C:/Users/stapi/OneDrive/Desktop/GD32VW553/V1_MQTT_OK/GD32VW55X_Wifi_BLE_SDK/GD32VW55x_RELEASE_V1.0.2/MSDK/cloud/alicloud/src/services/shadow\shadow_delta.c **** 
  71:C:/Users/stapi/OneDrive/Desktop/GD32VW553/V1_MQTT_OK/GD32VW55X_Wifi_BLE_SDK/GD32VW55x_RELEASE_V1.0.2/MSDK/cloud/alicloud/src/services/shadow\shadow_delta.c **** 
  72:C:/Users/stapi/OneDrive/Desktop/GD32VW553/V1_MQTT_OK/GD32VW55X_Wifi_BLE_SDK/GD32VW55x_RELEASE_V1.0.2/MSDK/cloud/alicloud/src/services/shadow\shadow_delta.c **** static iotx_err_t iotx_shadow_delta_update_attr_value(
  73:C:/Users/stapi/OneDrive/Desktop/GD32VW553/V1_MQTT_OK/GD32VW55X_Wifi_BLE_SDK/GD32VW55x_RELEASE_V1.0.2/MSDK/cloud/alicloud/src/services/shadow\shadow_delta.c ****             iotx_shadow_attr_pt pattr,
  74:C:/Users/stapi/OneDrive/Desktop/GD32VW553/V1_MQTT_OK/GD32VW55X_Wifi_BLE_SDK/GD32VW55x_RELEASE_V1.0.2/MSDK/cloud/alicloud/src/services/shadow\shadow_delta.c ****             const char *pvalue,
  75:C:/Users/stapi/OneDrive/Desktop/GD32VW553/V1_MQTT_OK/GD32VW55X_Wifi_BLE_SDK/GD32VW55x_RELEASE_V1.0.2/MSDK/cloud/alicloud/src/services/shadow\shadow_delta.c ****             size_t value_len)
  76:C:/Users/stapi/OneDrive/Desktop/GD32VW553/V1_MQTT_OK/GD32VW55X_Wifi_BLE_SDK/GD32VW55x_RELEASE_V1.0.2/MSDK/cloud/alicloud/src/services/shadow\shadow_delta.c **** {
  77:C:/Users/stapi/OneDrive/Desktop/GD32VW553/V1_MQTT_OK/GD32VW55X_Wifi_BLE_SDK/GD32VW55x_RELEASE_V1.0.2/MSDK/cloud/alicloud/src/services/shadow\shadow_delta.c ****     return iotx_ds_common_convert_string2data(pvalue, value_len, pattr->attr_type, pattr->pattr_dat
  78:C:/Users/stapi/OneDrive/Desktop/GD32VW553/V1_MQTT_OK/GD32VW55X_Wifi_BLE_SDK/GD32VW55x_RELEASE_V1.0.2/MSDK/cloud/alicloud/src/services/shadow\shadow_delta.c **** }
  79:C:/Users/stapi/OneDrive/Desktop/GD32VW553/V1_MQTT_OK/GD32VW55X_Wifi_BLE_SDK/GD32VW55x_RELEASE_V1.0.2/MSDK/cloud/alicloud/src/services/shadow\shadow_delta.c **** 
  80:C:/Users/stapi/OneDrive/Desktop/GD32VW553/V1_MQTT_OK/GD32VW55X_Wifi_BLE_SDK/GD32VW55x_RELEASE_V1.0.2/MSDK/cloud/alicloud/src/services/shadow\shadow_delta.c **** 
  81:C:/Users/stapi/OneDrive/Desktop/GD32VW553/V1_MQTT_OK/GD32VW55X_Wifi_BLE_SDK/GD32VW55x_RELEASE_V1.0.2/MSDK/cloud/alicloud/src/services/shadow\shadow_delta.c **** static int iotx_shadow_delta_update_attr(iotx_shadow_pt pshadow,
  82:C:/Users/stapi/OneDrive/Desktop/GD32VW553/V1_MQTT_OK/GD32VW55X_Wifi_BLE_SDK/GD32VW55x_RELEASE_V1.0.2/MSDK/cloud/alicloud/src/services/shadow\shadow_delta.c ****         const char *json_doc_attr,
  83:C:/Users/stapi/OneDrive/Desktop/GD32VW553/V1_MQTT_OK/GD32VW55X_Wifi_BLE_SDK/GD32VW55x_RELEASE_V1.0.2/MSDK/cloud/alicloud/src/services/shadow\shadow_delta.c ****         uint32_t json_doc_attr_len,
  84:C:/Users/stapi/OneDrive/Desktop/GD32VW553/V1_MQTT_OK/GD32VW55X_Wifi_BLE_SDK/GD32VW55x_RELEASE_V1.0.2/MSDK/cloud/alicloud/src/services/shadow\shadow_delta.c ****         const char *json_doc_metadata,
  85:C:/Users/stapi/OneDrive/Desktop/GD32VW553/V1_MQTT_OK/GD32VW55X_Wifi_BLE_SDK/GD32VW55x_RELEASE_V1.0.2/MSDK/cloud/alicloud/src/services/shadow\shadow_delta.c ****         uint32_t json_doc_metadata_len)
  86:C:/Users/stapi/OneDrive/Desktop/GD32VW553/V1_MQTT_OK/GD32VW55X_Wifi_BLE_SDK/GD32VW55x_RELEASE_V1.0.2/MSDK/cloud/alicloud/src/services/shadow\shadow_delta.c **** {
  87:C:/Users/stapi/OneDrive/Desktop/GD32VW553/V1_MQTT_OK/GD32VW55X_Wifi_BLE_SDK/GD32VW55x_RELEASE_V1.0.2/MSDK/cloud/alicloud/src/services/shadow\shadow_delta.c ****     const char *pvalue;
  88:C:/Users/stapi/OneDrive/Desktop/GD32VW553/V1_MQTT_OK/GD32VW55X_Wifi_BLE_SDK/GD32VW55x_RELEASE_V1.0.2/MSDK/cloud/alicloud/src/services/shadow\shadow_delta.c ****     iotx_shadow_attr_pt pattr;
  89:C:/Users/stapi/OneDrive/Desktop/GD32VW553/V1_MQTT_OK/GD32VW55X_Wifi_BLE_SDK/GD32VW55x_RELEASE_V1.0.2/MSDK/cloud/alicloud/src/services/shadow\shadow_delta.c ****     list_iterator_t *iter;
  90:C:/Users/stapi/OneDrive/Desktop/GD32VW553/V1_MQTT_OK/GD32VW55X_Wifi_BLE_SDK/GD32VW55x_RELEASE_V1.0.2/MSDK/cloud/alicloud/src/services/shadow\shadow_delta.c ****     list_node_t *node;
  91:C:/Users/stapi/OneDrive/Desktop/GD32VW553/V1_MQTT_OK/GD32VW55X_Wifi_BLE_SDK/GD32VW55x_RELEASE_V1.0.2/MSDK/cloud/alicloud/src/services/shadow\shadow_delta.c ****     int need_update = 0;
  92:C:/Users/stapi/OneDrive/Desktop/GD32VW553/V1_MQTT_OK/GD32VW55X_Wifi_BLE_SDK/GD32VW55x_RELEASE_V1.0.2/MSDK/cloud/alicloud/src/services/shadow\shadow_delta.c **** 
  93:C:/Users/stapi/OneDrive/Desktop/GD32VW553/V1_MQTT_OK/GD32VW55X_Wifi_BLE_SDK/GD32VW55x_RELEASE_V1.0.2/MSDK/cloud/alicloud/src/services/shadow\shadow_delta.c ****     /* Iterate the list and check JSON document according to list_node.val.pattr_name */
  94:C:/Users/stapi/OneDrive/Desktop/GD32VW553/V1_MQTT_OK/GD32VW55X_Wifi_BLE_SDK/GD32VW55x_RELEASE_V1.0.2/MSDK/cloud/alicloud/src/services/shadow\shadow_delta.c ****     /* If the attribute be found, call the function registered by calling iotx_shadow_delta_registe
  95:C:/Users/stapi/OneDrive/Desktop/GD32VW553/V1_MQTT_OK/GD32VW55X_Wifi_BLE_SDK/GD32VW55x_RELEASE_V1.0.2/MSDK/cloud/alicloud/src/services/shadow\shadow_delta.c **** 
  96:C:/Users/stapi/OneDrive/Desktop/GD32VW553/V1_MQTT_OK/GD32VW55X_Wifi_BLE_SDK/GD32VW55x_RELEASE_V1.0.2/MSDK/cloud/alicloud/src/services/shadow\shadow_delta.c ****     HAL_MutexLock(pshadow->mutex);
  97:C:/Users/stapi/OneDrive/Desktop/GD32VW553/V1_MQTT_OK/GD32VW55X_Wifi_BLE_SDK/GD32VW55x_RELEASE_V1.0.2/MSDK/cloud/alicloud/src/services/shadow\shadow_delta.c ****     iter = list_iterator_new(pshadow->inner_data.attr_list, LIST_TAIL);
  98:C:/Users/stapi/OneDrive/Desktop/GD32VW553/V1_MQTT_OK/GD32VW55X_Wifi_BLE_SDK/GD32VW55x_RELEASE_V1.0.2/MSDK/cloud/alicloud/src/services/shadow\shadow_delta.c ****     if (NULL == iter) {
  99:C:/Users/stapi/OneDrive/Desktop/GD32VW553/V1_MQTT_OK/GD32VW55X_Wifi_BLE_SDK/GD32VW55x_RELEASE_V1.0.2/MSDK/cloud/alicloud/src/services/shadow\shadow_delta.c ****         HAL_MutexUnlock(pshadow->mutex);
 100:C:/Users/stapi/OneDrive/Desktop/GD32VW553/V1_MQTT_OK/GD32VW55X_Wifi_BLE_SDK/GD32VW55x_RELEASE_V1.0.2/MSDK/cloud/alicloud/src/services/shadow\shadow_delta.c ****         shadow_warning("Allocate memory failed");
 101:C:/Users/stapi/OneDrive/Desktop/GD32VW553/V1_MQTT_OK/GD32VW55X_Wifi_BLE_SDK/GD32VW55x_RELEASE_V1.0.2/MSDK/cloud/alicloud/src/services/shadow\shadow_delta.c ****         need_update = 0;
 102:C:/Users/stapi/OneDrive/Desktop/GD32VW553/V1_MQTT_OK/GD32VW55X_Wifi_BLE_SDK/GD32VW55x_RELEASE_V1.0.2/MSDK/cloud/alicloud/src/services/shadow\shadow_delta.c ****         return need_update;
 103:C:/Users/stapi/OneDrive/Desktop/GD32VW553/V1_MQTT_OK/GD32VW55X_Wifi_BLE_SDK/GD32VW55x_RELEASE_V1.0.2/MSDK/cloud/alicloud/src/services/shadow\shadow_delta.c ****     }
 104:C:/Users/stapi/OneDrive/Desktop/GD32VW553/V1_MQTT_OK/GD32VW55X_Wifi_BLE_SDK/GD32VW55x_RELEASE_V1.0.2/MSDK/cloud/alicloud/src/services/shadow\shadow_delta.c **** 
 105:C:/Users/stapi/OneDrive/Desktop/GD32VW553/V1_MQTT_OK/GD32VW55X_Wifi_BLE_SDK/GD32VW55x_RELEASE_V1.0.2/MSDK/cloud/alicloud/src/services/shadow\shadow_delta.c ****     while (node = list_iterator_next(iter), NULL != node) {
 106:C:/Users/stapi/OneDrive/Desktop/GD32VW553/V1_MQTT_OK/GD32VW55X_Wifi_BLE_SDK/GD32VW55x_RELEASE_V1.0.2/MSDK/cloud/alicloud/src/services/shadow\shadow_delta.c ****         pattr = (iotx_shadow_attr_pt)node->val;
 107:C:/Users/stapi/OneDrive/Desktop/GD32VW553/V1_MQTT_OK/GD32VW55X_Wifi_BLE_SDK/GD32VW55x_RELEASE_V1.0.2/MSDK/cloud/alicloud/src/services/shadow\shadow_delta.c ****         pvalue = LITE_json_value_of((char *)pattr->pattr_name, (char *)json_doc_attr);
 108:C:/Users/stapi/OneDrive/Desktop/GD32VW553/V1_MQTT_OK/GD32VW55X_Wifi_BLE_SDK/GD32VW55x_RELEASE_V1.0.2/MSDK/cloud/alicloud/src/services/shadow\shadow_delta.c **** 
 109:C:/Users/stapi/OneDrive/Desktop/GD32VW553/V1_MQTT_OK/GD32VW55X_Wifi_BLE_SDK/GD32VW55x_RELEASE_V1.0.2/MSDK/cloud/alicloud/src/services/shadow\shadow_delta.c ****         /* check if match attribute or not be matched */
 110:C:/Users/stapi/OneDrive/Desktop/GD32VW553/V1_MQTT_OK/GD32VW55X_Wifi_BLE_SDK/GD32VW55x_RELEASE_V1.0.2/MSDK/cloud/alicloud/src/services/shadow\shadow_delta.c ****         if (NULL != pvalue) { /* attribute be matched */
 111:C:/Users/stapi/OneDrive/Desktop/GD32VW553/V1_MQTT_OK/GD32VW55X_Wifi_BLE_SDK/GD32VW55x_RELEASE_V1.0.2/MSDK/cloud/alicloud/src/services/shadow\shadow_delta.c ****             /* get timestamp */
 112:C:/Users/stapi/OneDrive/Desktop/GD32VW553/V1_MQTT_OK/GD32VW55X_Wifi_BLE_SDK/GD32VW55x_RELEASE_V1.0.2/MSDK/cloud/alicloud/src/services/shadow\shadow_delta.c ****             need_update = 1;
 113:C:/Users/stapi/OneDrive/Desktop/GD32VW553/V1_MQTT_OK/GD32VW55X_Wifi_BLE_SDK/GD32VW55x_RELEASE_V1.0.2/MSDK/cloud/alicloud/src/services/shadow\shadow_delta.c ****             pattr->timestamp = iotx_shadow_get_timestamp(
 114:C:/Users/stapi/OneDrive/Desktop/GD32VW553/V1_MQTT_OK/GD32VW55X_Wifi_BLE_SDK/GD32VW55x_RELEASE_V1.0.2/MSDK/cloud/alicloud/src/services/shadow\shadow_delta.c ****                                            json_doc_metadata,
 115:C:/Users/stapi/OneDrive/Desktop/GD32VW553/V1_MQTT_OK/GD32VW55X_Wifi_BLE_SDK/GD32VW55x_RELEASE_V1.0.2/MSDK/cloud/alicloud/src/services/shadow\shadow_delta.c ****                                            json_doc_metadata_len,
 116:C:/Users/stapi/OneDrive/Desktop/GD32VW553/V1_MQTT_OK/GD32VW55X_Wifi_BLE_SDK/GD32VW55x_RELEASE_V1.0.2/MSDK/cloud/alicloud/src/services/shadow\shadow_delta.c ****                                            pattr->pattr_name);
 117:C:/Users/stapi/OneDrive/Desktop/GD32VW553/V1_MQTT_OK/GD32VW55X_Wifi_BLE_SDK/GD32VW55x_RELEASE_V1.0.2/MSDK/cloud/alicloud/src/services/shadow\shadow_delta.c **** 
 118:C:/Users/stapi/OneDrive/Desktop/GD32VW553/V1_MQTT_OK/GD32VW55X_Wifi_BLE_SDK/GD32VW55x_RELEASE_V1.0.2/MSDK/cloud/alicloud/src/services/shadow\shadow_delta.c ****             /* convert string of JSON value according to destination data type. */
 119:C:/Users/stapi/OneDrive/Desktop/GD32VW553/V1_MQTT_OK/GD32VW55X_Wifi_BLE_SDK/GD32VW55x_RELEASE_V1.0.2/MSDK/cloud/alicloud/src/services/shadow\shadow_delta.c ****             if (SUCCESS_RETURN != iotx_shadow_delta_update_attr_value(pattr, pvalue, strlen(pvalue)
 120:C:/Users/stapi/OneDrive/Desktop/GD32VW553/V1_MQTT_OK/GD32VW55X_Wifi_BLE_SDK/GD32VW55x_RELEASE_V1.0.2/MSDK/cloud/alicloud/src/services/shadow\shadow_delta.c ****                 shadow_warning("Update attribute value failed.");
 121:C:/Users/stapi/OneDrive/Desktop/GD32VW553/V1_MQTT_OK/GD32VW55X_Wifi_BLE_SDK/GD32VW55x_RELEASE_V1.0.2/MSDK/cloud/alicloud/src/services/shadow\shadow_delta.c ****             }else{
 122:C:/Users/stapi/OneDrive/Desktop/GD32VW553/V1_MQTT_OK/GD32VW55X_Wifi_BLE_SDK/GD32VW55x_RELEASE_V1.0.2/MSDK/cloud/alicloud/src/services/shadow\shadow_delta.c ****                 pattr->method_type = pshadow->inner_data.method_type;
 123:C:/Users/stapi/OneDrive/Desktop/GD32VW553/V1_MQTT_OK/GD32VW55X_Wifi_BLE_SDK/GD32VW55x_RELEASE_V1.0.2/MSDK/cloud/alicloud/src/services/shadow\shadow_delta.c ****                 pattr->flag_update = 1;
 124:C:/Users/stapi/OneDrive/Desktop/GD32VW553/V1_MQTT_OK/GD32VW55X_Wifi_BLE_SDK/GD32VW55x_RELEASE_V1.0.2/MSDK/cloud/alicloud/src/services/shadow\shadow_delta.c ****             }
 125:C:/Users/stapi/OneDrive/Desktop/GD32VW553/V1_MQTT_OK/GD32VW55X_Wifi_BLE_SDK/GD32VW55x_RELEASE_V1.0.2/MSDK/cloud/alicloud/src/services/shadow\shadow_delta.c **** 			
 126:C:/Users/stapi/OneDrive/Desktop/GD32VW553/V1_MQTT_OK/GD32VW55X_Wifi_BLE_SDK/GD32VW55x_RELEASE_V1.0.2/MSDK/cloud/alicloud/src/services/shadow\shadow_delta.c **** #if 0
 127:C:/Users/stapi/OneDrive/Desktop/GD32VW553/V1_MQTT_OK/GD32VW55X_Wifi_BLE_SDK/GD32VW55x_RELEASE_V1.0.2/MSDK/cloud/alicloud/src/services/shadow\shadow_delta.c ****             if (NULL != pattr->callback) {
 128:C:/Users/stapi/OneDrive/Desktop/GD32VW553/V1_MQTT_OK/GD32VW55X_Wifi_BLE_SDK/GD32VW55x_RELEASE_V1.0.2/MSDK/cloud/alicloud/src/services/shadow\shadow_delta.c ****                 HAL_MutexUnlock(pshadow->mutex);
 129:C:/Users/stapi/OneDrive/Desktop/GD32VW553/V1_MQTT_OK/GD32VW55X_Wifi_BLE_SDK/GD32VW55x_RELEASE_V1.0.2/MSDK/cloud/alicloud/src/services/shadow\shadow_delta.c ****                 /* call related callback function */
 130:C:/Users/stapi/OneDrive/Desktop/GD32VW553/V1_MQTT_OK/GD32VW55X_Wifi_BLE_SDK/GD32VW55x_RELEASE_V1.0.2/MSDK/cloud/alicloud/src/services/shadow\shadow_delta.c ****                 pattr->callback(pattr);
 131:C:/Users/stapi/OneDrive/Desktop/GD32VW553/V1_MQTT_OK/GD32VW55X_Wifi_BLE_SDK/GD32VW55x_RELEASE_V1.0.2/MSDK/cloud/alicloud/src/services/shadow\shadow_delta.c ****                 HAL_MutexLock(pshadow->mutex);
 132:C:/Users/stapi/OneDrive/Desktop/GD32VW553/V1_MQTT_OK/GD32VW55X_Wifi_BLE_SDK/GD32VW55x_RELEASE_V1.0.2/MSDK/cloud/alicloud/src/services/shadow\shadow_delta.c ****             }
 133:C:/Users/stapi/OneDrive/Desktop/GD32VW553/V1_MQTT_OK/GD32VW55X_Wifi_BLE_SDK/GD32VW55x_RELEASE_V1.0.2/MSDK/cloud/alicloud/src/services/shadow\shadow_delta.c **** #endif
 134:C:/Users/stapi/OneDrive/Desktop/GD32VW553/V1_MQTT_OK/GD32VW55X_Wifi_BLE_SDK/GD32VW55x_RELEASE_V1.0.2/MSDK/cloud/alicloud/src/services/shadow\shadow_delta.c ****             LITE_free(pvalue);
 135:C:/Users/stapi/OneDrive/Desktop/GD32VW553/V1_MQTT_OK/GD32VW55X_Wifi_BLE_SDK/GD32VW55x_RELEASE_V1.0.2/MSDK/cloud/alicloud/src/services/shadow\shadow_delta.c ****         }
 136:C:/Users/stapi/OneDrive/Desktop/GD32VW553/V1_MQTT_OK/GD32VW55X_Wifi_BLE_SDK/GD32VW55x_RELEASE_V1.0.2/MSDK/cloud/alicloud/src/services/shadow\shadow_delta.c ****     }
 137:C:/Users/stapi/OneDrive/Desktop/GD32VW553/V1_MQTT_OK/GD32VW55X_Wifi_BLE_SDK/GD32VW55x_RELEASE_V1.0.2/MSDK/cloud/alicloud/src/services/shadow\shadow_delta.c **** 
 138:C:/Users/stapi/OneDrive/Desktop/GD32VW553/V1_MQTT_OK/GD32VW55X_Wifi_BLE_SDK/GD32VW55x_RELEASE_V1.0.2/MSDK/cloud/alicloud/src/services/shadow\shadow_delta.c **** error:
 139:C:/Users/stapi/OneDrive/Desktop/GD32VW553/V1_MQTT_OK/GD32VW55X_Wifi_BLE_SDK/GD32VW55x_RELEASE_V1.0.2/MSDK/cloud/alicloud/src/services/shadow\shadow_delta.c ****     list_iterator_destroy(iter);
 140:C:/Users/stapi/OneDrive/Desktop/GD32VW553/V1_MQTT_OK/GD32VW55X_Wifi_BLE_SDK/GD32VW55x_RELEASE_V1.0.2/MSDK/cloud/alicloud/src/services/shadow\shadow_delta.c ****     HAL_MutexUnlock(pshadow->mutex);
 141:C:/Users/stapi/OneDrive/Desktop/GD32VW553/V1_MQTT_OK/GD32VW55X_Wifi_BLE_SDK/GD32VW55x_RELEASE_V1.0.2/MSDK/cloud/alicloud/src/services/shadow\shadow_delta.c **** 
 142:C:/Users/stapi/OneDrive/Desktop/GD32VW553/V1_MQTT_OK/GD32VW55X_Wifi_BLE_SDK/GD32VW55x_RELEASE_V1.0.2/MSDK/cloud/alicloud/src/services/shadow\shadow_delta.c ****     return need_update;
 143:C:/Users/stapi/OneDrive/Desktop/GD32VW553/V1_MQTT_OK/GD32VW55X_Wifi_BLE_SDK/GD32VW55x_RELEASE_V1.0.2/MSDK/cloud/alicloud/src/services/shadow\shadow_delta.c **** }
 144:C:/Users/stapi/OneDrive/Desktop/GD32VW553/V1_MQTT_OK/GD32VW55X_Wifi_BLE_SDK/GD32VW55x_RELEASE_V1.0.2/MSDK/cloud/alicloud/src/services/shadow\shadow_delta.c **** 
 145:C:/Users/stapi/OneDrive/Desktop/GD32VW553/V1_MQTT_OK/GD32VW55X_Wifi_BLE_SDK/GD32VW55x_RELEASE_V1.0.2/MSDK/cloud/alicloud/src/services/shadow\shadow_delta.c **** /* handle response ACK of UPDATE */
 146:C:/Users/stapi/OneDrive/Desktop/GD32VW553/V1_MQTT_OK/GD32VW55X_Wifi_BLE_SDK/GD32VW55x_RELEASE_V1.0.2/MSDK/cloud/alicloud/src/services/shadow\shadow_delta.c **** void iotx_shadow_delta_entry(
 147:C:/Users/stapi/OneDrive/Desktop/GD32VW553/V1_MQTT_OK/GD32VW55X_Wifi_BLE_SDK/GD32VW55x_RELEASE_V1.0.2/MSDK/cloud/alicloud/src/services/shadow\shadow_delta.c ****             iotx_shadow_pt pshadow,
 148:C:/Users/stapi/OneDrive/Desktop/GD32VW553/V1_MQTT_OK/GD32VW55X_Wifi_BLE_SDK/GD32VW55x_RELEASE_V1.0.2/MSDK/cloud/alicloud/src/services/shadow\shadow_delta.c ****             const char *json_doc,
 149:C:/Users/stapi/OneDrive/Desktop/GD32VW553/V1_MQTT_OK/GD32VW55X_Wifi_BLE_SDK/GD32VW55x_RELEASE_V1.0.2/MSDK/cloud/alicloud/src/services/shadow\shadow_delta.c ****             size_t json_doc_len)
 150:C:/Users/stapi/OneDrive/Desktop/GD32VW553/V1_MQTT_OK/GD32VW55X_Wifi_BLE_SDK/GD32VW55x_RELEASE_V1.0.2/MSDK/cloud/alicloud/src/services/shadow\shadow_delta.c **** {
  62              		.loc 1 150 1
  63              		.cfi_startproc
  64              	.LVL0:
  65 0000 17030000 		call	t0,__riscv_save_12
  65      E7020300 
  66              		.cfi_offset 27, -52
  67              		.cfi_offset 26, -48
  68              		.cfi_offset 25, -44
  69              		.cfi_offset 24, -40
  70              		.cfi_offset 23, -36
  71              		.cfi_offset 22, -32
  72              		.cfi_offset 21, -28
  73              		.cfi_offset 20, -24
  74              		.cfi_offset 19, -20
  75              		.cfi_offset 18, -16
  76              		.cfi_offset 9, -12
  77              		.cfi_offset 8, -8
  78              		.cfi_offset 1, -4
  79              		.cfi_def_cfa_offset 64
 151:C:/Users/stapi/OneDrive/Desktop/GD32VW553/V1_MQTT_OK/GD32VW55X_Wifi_BLE_SDK/GD32VW55x_RELEASE_V1.0.2/MSDK/cloud/alicloud/src/services/shadow\shadow_delta.c ****     const char *key_metadata;
  80              		.loc 1 151 5
 152:C:/Users/stapi/OneDrive/Desktop/GD32VW553/V1_MQTT_OK/GD32VW55X_Wifi_BLE_SDK/GD32VW55x_RELEASE_V1.0.2/MSDK/cloud/alicloud/src/services/shadow\shadow_delta.c ****     const char *pstate, *pmetadata;
  81              		.loc 1 152 5
 153:C:/Users/stapi/OneDrive/Desktop/GD32VW553/V1_MQTT_OK/GD32VW55X_Wifi_BLE_SDK/GD32VW55x_RELEASE_V1.0.2/MSDK/cloud/alicloud/src/services/shadow\shadow_delta.c ****     int ret = 0;
  82              		.loc 1 153 5
  83              	.LVL1:
 154:C:/Users/stapi/OneDrive/Desktop/GD32VW553/V1_MQTT_OK/GD32VW55X_Wifi_BLE_SDK/GD32VW55x_RELEASE_V1.0.2/MSDK/cloud/alicloud/src/services/shadow\shadow_delta.c **** 
 155:C:/Users/stapi/OneDrive/Desktop/GD32VW553/V1_MQTT_OK/GD32VW55X_Wifi_BLE_SDK/GD32VW55x_RELEASE_V1.0.2/MSDK/cloud/alicloud/src/services/shadow\shadow_delta.c ****     pstate = LITE_json_value_of((char *)"payload.state.desired", (char *)json_doc);
  84              		.loc 1 155 5
 150:C:/Users/stapi/OneDrive/Desktop/GD32VW553/V1_MQTT_OK/GD32VW55X_Wifi_BLE_SDK/GD32VW55x_RELEASE_V1.0.2/MSDK/cloud/alicloud/src/services/shadow\shadow_delta.c ****     const char *key_metadata;
  85              		.loc 1 150 1 is_stmt 0
  86 0008 2A84     		mv	s0,a0
  87              		.loc 1 155 14
  88 000a 37050000 		lui	a0,%hi(.LC2)
  89              	.LVL2:
 150:C:/Users/stapi/OneDrive/Desktop/GD32VW553/V1_MQTT_OK/GD32VW55X_Wifi_BLE_SDK/GD32VW55x_RELEASE_V1.0.2/MSDK/cloud/alicloud/src/services/shadow\shadow_delta.c ****     const char *key_metadata;
  90              		.loc 1 150 1
  91 000e 0111     		addi	sp,sp,-32
  92              		.cfi_def_cfa_offset 96
  93              		.loc 1 155 14
  94 0010 13050500 		addi	a0,a0,%lo(.LC2)
 150:C:/Users/stapi/OneDrive/Desktop/GD32VW553/V1_MQTT_OK/GD32VW55X_Wifi_BLE_SDK/GD32VW55x_RELEASE_V1.0.2/MSDK/cloud/alicloud/src/services/shadow\shadow_delta.c ****     const char *key_metadata;
  95              		.loc 1 150 1
  96 0014 2E89     		mv	s2,a1
  97              		.loc 1 155 14
  98 0016 97000000 		call	LITE_json_value_of
  98      E7800000 
  99              	.LVL3:
 156:C:/Users/stapi/OneDrive/Desktop/GD32VW553/V1_MQTT_OK/GD32VW55X_Wifi_BLE_SDK/GD32VW55x_RELEASE_V1.0.2/MSDK/cloud/alicloud/src/services/shadow\shadow_delta.c ****     if (NULL != pstate) {
 100              		.loc 1 156 5 is_stmt 1
 101              		.loc 1 156 8 is_stmt 0
 102 001e 25E5     		bne	a0,zero,.L17
 157:C:/Users/stapi/OneDrive/Desktop/GD32VW553/V1_MQTT_OK/GD32VW55X_Wifi_BLE_SDK/GD32VW55x_RELEASE_V1.0.2/MSDK/cloud/alicloud/src/services/shadow\shadow_delta.c ****         key_metadata = "payload.metadata.desired";
 158:C:/Users/stapi/OneDrive/Desktop/GD32VW553/V1_MQTT_OK/GD32VW55X_Wifi_BLE_SDK/GD32VW55x_RELEASE_V1.0.2/MSDK/cloud/alicloud/src/services/shadow\shadow_delta.c ****     } else {
 159:C:/Users/stapi/OneDrive/Desktop/GD32VW553/V1_MQTT_OK/GD32VW55X_Wifi_BLE_SDK/GD32VW55x_RELEASE_V1.0.2/MSDK/cloud/alicloud/src/services/shadow\shadow_delta.c ****         /* if have not desired key, get reported key instead. */
 160:C:/Users/stapi/OneDrive/Desktop/GD32VW553/V1_MQTT_OK/GD32VW55X_Wifi_BLE_SDK/GD32VW55x_RELEASE_V1.0.2/MSDK/cloud/alicloud/src/services/shadow\shadow_delta.c ****         key_metadata = "payload.metadata.reported";
 103              		.loc 1 160 9 is_stmt 1
 104              	.LVL4:
 161:C:/Users/stapi/OneDrive/Desktop/GD32VW553/V1_MQTT_OK/GD32VW55X_Wifi_BLE_SDK/GD32VW55x_RELEASE_V1.0.2/MSDK/cloud/alicloud/src/services/shadow\shadow_delta.c ****         pstate = LITE_json_value_of((char *)"payload.state.reported", (char *)json_doc);
 105              		.loc 1 161 9
 106              		.loc 1 161 18 is_stmt 0
 107 0020 37050000 		lui	a0,%hi(.LC3)
 108              	.LVL5:
 109 0024 CA85     		mv	a1,s2
 110 0026 13050500 		addi	a0,a0,%lo(.LC3)
 111 002a 97000000 		call	LITE_json_value_of
 111      E7800000 
 112              	.LVL6:
 113 0032 AA84     		mv	s1,a0
 114              	.LVL7:
 160:C:/Users/stapi/OneDrive/Desktop/GD32VW553/V1_MQTT_OK/GD32VW55X_Wifi_BLE_SDK/GD32VW55x_RELEASE_V1.0.2/MSDK/cloud/alicloud/src/services/shadow\shadow_delta.c ****         pstate = LITE_json_value_of((char *)"payload.state.reported", (char *)json_doc);
 115              		.loc 1 160 22
 116 0034 37050000 		lui	a0,%hi(.LC0)
 117 0038 13050500 		addi	a0,a0,%lo(.LC0)
 118              	.LVL8:
 119              	.L2:
 162:C:/Users/stapi/OneDrive/Desktop/GD32VW553/V1_MQTT_OK/GD32VW55X_Wifi_BLE_SDK/GD32VW55x_RELEASE_V1.0.2/MSDK/cloud/alicloud/src/services/shadow\shadow_delta.c ****     }
 163:C:/Users/stapi/OneDrive/Desktop/GD32VW553/V1_MQTT_OK/GD32VW55X_Wifi_BLE_SDK/GD32VW55x_RELEASE_V1.0.2/MSDK/cloud/alicloud/src/services/shadow\shadow_delta.c **** 
 164:C:/Users/stapi/OneDrive/Desktop/GD32VW553/V1_MQTT_OK/GD32VW55X_Wifi_BLE_SDK/GD32VW55x_RELEASE_V1.0.2/MSDK/cloud/alicloud/src/services/shadow\shadow_delta.c ****     pmetadata = LITE_json_value_of((char *)key_metadata, (char *)json_doc);
 120              		.loc 1 164 5 is_stmt 1
 121              		.loc 1 164 17 is_stmt 0
 122 003c CA85     		mv	a1,s2
 123 003e 97000000 		call	LITE_json_value_of
 123      E7800000 
 124              	.LVL9:
 125 0046 2A8A     		mv	s4,a0
 126              	.LVL10:
 165:C:/Users/stapi/OneDrive/Desktop/GD32VW553/V1_MQTT_OK/GD32VW55X_Wifi_BLE_SDK/GD32VW55x_RELEASE_V1.0.2/MSDK/cloud/alicloud/src/services/shadow\shadow_delta.c **** 
 166:C:/Users/stapi/OneDrive/Desktop/GD32VW553/V1_MQTT_OK/GD32VW55X_Wifi_BLE_SDK/GD32VW55x_RELEASE_V1.0.2/MSDK/cloud/alicloud/src/services/shadow\shadow_delta.c ****     if ((NULL == pstate) || (NULL == pmetadata)) {
 127              		.loc 1 166 5 is_stmt 1
 128              		.loc 1 166 8 is_stmt 0
 129 0048 91C0     		beq	s1,zero,.L3
 130              		.loc 1 166 26 discriminator 1
 131 004a 21E5     		bne	a0,zero,.L4
 132              	.L3:
 167:C:/Users/stapi/OneDrive/Desktop/GD32VW553/V1_MQTT_OK/GD32VW55X_Wifi_BLE_SDK/GD32VW55x_RELEASE_V1.0.2/MSDK/cloud/alicloud/src/services/shadow\shadow_delta.c ****         shadow_err("Invalid JSON Doc");
 133              		.loc 1 167 9 is_stmt 1
 134              		.loc 1 167 9
 135 004c 37050000 		lui	a0,%hi(.LC4)
 136              	.LVL11:
 137 0050 13050500 		addi	a0,a0,%lo(.LC4)
 138 0054 97000000 		call	HAL_Printf
 138      E7800000 
 139              	.LVL12:
 140              		.loc 1 167 9
 141 005c 37050000 		lui	a0,%hi(.LC5)
 142 0060 13050500 		addi	a0,a0,%lo(.LC5)
 143 0064 97000000 		call	HAL_Printf
 143      E7800000 
 144              	.LVL13:
 145              		.loc 1 167 9
 146 006c 37050000 		lui	a0,%hi(.LC6)
 147 0070 13050500 		addi	a0,a0,%lo(.LC6)
 148 0074 97000000 		call	HAL_Printf
 148      E7800000 
 149              	.LVL14:
 150              		.loc 1 167 9
 168:C:/Users/stapi/OneDrive/Desktop/GD32VW553/V1_MQTT_OK/GD32VW55X_Wifi_BLE_SDK/GD32VW55x_RELEASE_V1.0.2/MSDK/cloud/alicloud/src/services/shadow\shadow_delta.c ****         return;
 151              		.loc 1 168 9
 152              	.L1:
 169:C:/Users/stapi/OneDrive/Desktop/GD32VW553/V1_MQTT_OK/GD32VW55X_Wifi_BLE_SDK/GD32VW55x_RELEASE_V1.0.2/MSDK/cloud/alicloud/src/services/shadow\shadow_delta.c ****     }
 170:C:/Users/stapi/OneDrive/Desktop/GD32VW553/V1_MQTT_OK/GD32VW55X_Wifi_BLE_SDK/GD32VW55x_RELEASE_V1.0.2/MSDK/cloud/alicloud/src/services/shadow\shadow_delta.c **** 
 171:C:/Users/stapi/OneDrive/Desktop/GD32VW553/V1_MQTT_OK/GD32VW55X_Wifi_BLE_SDK/GD32VW55x_RELEASE_V1.0.2/MSDK/cloud/alicloud/src/services/shadow\shadow_delta.c ****     ret = iotx_shadow_delta_update_attr(pshadow,
 172:C:/Users/stapi/OneDrive/Desktop/GD32VW553/V1_MQTT_OK/GD32VW55X_Wifi_BLE_SDK/GD32VW55x_RELEASE_V1.0.2/MSDK/cloud/alicloud/src/services/shadow\shadow_delta.c ****                                   pstate,
 173:C:/Users/stapi/OneDrive/Desktop/GD32VW553/V1_MQTT_OK/GD32VW55X_Wifi_BLE_SDK/GD32VW55x_RELEASE_V1.0.2/MSDK/cloud/alicloud/src/services/shadow\shadow_delta.c ****                                   strlen(pstate),
 174:C:/Users/stapi/OneDrive/Desktop/GD32VW553/V1_MQTT_OK/GD32VW55X_Wifi_BLE_SDK/GD32VW55x_RELEASE_V1.0.2/MSDK/cloud/alicloud/src/services/shadow\shadow_delta.c ****                                   pmetadata,
 175:C:/Users/stapi/OneDrive/Desktop/GD32VW553/V1_MQTT_OK/GD32VW55X_Wifi_BLE_SDK/GD32VW55x_RELEASE_V1.0.2/MSDK/cloud/alicloud/src/services/shadow\shadow_delta.c ****                                   strlen(pmetadata));
 176:C:/Users/stapi/OneDrive/Desktop/GD32VW553/V1_MQTT_OK/GD32VW55X_Wifi_BLE_SDK/GD32VW55x_RELEASE_V1.0.2/MSDK/cloud/alicloud/src/services/shadow\shadow_delta.c **** 
 177:C:/Users/stapi/OneDrive/Desktop/GD32VW553/V1_MQTT_OK/GD32VW55X_Wifi_BLE_SDK/GD32VW55x_RELEASE_V1.0.2/MSDK/cloud/alicloud/src/services/shadow\shadow_delta.c ****     LITE_free(pstate);
 178:C:/Users/stapi/OneDrive/Desktop/GD32VW553/V1_MQTT_OK/GD32VW55X_Wifi_BLE_SDK/GD32VW55x_RELEASE_V1.0.2/MSDK/cloud/alicloud/src/services/shadow\shadow_delta.c ****     LITE_free(pmetadata);
 179:C:/Users/stapi/OneDrive/Desktop/GD32VW553/V1_MQTT_OK/GD32VW55X_Wifi_BLE_SDK/GD32VW55x_RELEASE_V1.0.2/MSDK/cloud/alicloud/src/services/shadow\shadow_delta.c **** 
 180:C:/Users/stapi/OneDrive/Desktop/GD32VW553/V1_MQTT_OK/GD32VW55X_Wifi_BLE_SDK/GD32VW55x_RELEASE_V1.0.2/MSDK/cloud/alicloud/src/services/shadow\shadow_delta.c ****     /* generate ACK and publish to @update topic using QOS1 */
 181:C:/Users/stapi/OneDrive/Desktop/GD32VW553/V1_MQTT_OK/GD32VW55X_Wifi_BLE_SDK/GD32VW55x_RELEASE_V1.0.2/MSDK/cloud/alicloud/src/services/shadow\shadow_delta.c ****     /* if not found related any value, do not need to response */
 182:C:/Users/stapi/OneDrive/Desktop/GD32VW553/V1_MQTT_OK/GD32VW55X_Wifi_BLE_SDK/GD32VW55x_RELEASE_V1.0.2/MSDK/cloud/alicloud/src/services/shadow\shadow_delta.c ****     if(ret != 0){
 183:C:/Users/stapi/OneDrive/Desktop/GD32VW553/V1_MQTT_OK/GD32VW55X_Wifi_BLE_SDK/GD32VW55x_RELEASE_V1.0.2/MSDK/cloud/alicloud/src/services/shadow\shadow_delta.c ****         iotx_shadow_delta_response(pshadow);
 184:C:/Users/stapi/OneDrive/Desktop/GD32VW553/V1_MQTT_OK/GD32VW55X_Wifi_BLE_SDK/GD32VW55x_RELEASE_V1.0.2/MSDK/cloud/alicloud/src/services/shadow\shadow_delta.c ****     }
 185:C:/Users/stapi/OneDrive/Desktop/GD32VW553/V1_MQTT_OK/GD32VW55X_Wifi_BLE_SDK/GD32VW55x_RELEASE_V1.0.2/MSDK/cloud/alicloud/src/services/shadow\shadow_delta.c **** }
 153              		.loc 1 185 1 is_stmt 0
 154 007c 0561     		addi	sp,sp,32
 155              		.cfi_remember_state
 156              		.cfi_def_cfa_offset 0
 157 007e 17030000 		tail	__riscv_restore_12
 157      67000300 
 158              		.cfi_restore 27
 159              		.cfi_restore 26
 160              		.cfi_restore 25
 161              		.cfi_restore 24
 162              		.cfi_restore 23
 163              		.cfi_restore 22
 164              		.cfi_restore 21
 165              		.cfi_restore 20
 166              		.cfi_restore 19
 167              		.cfi_restore 18
 168              		.cfi_restore 9
 169              		.cfi_restore 8
 170              		.cfi_restore 1
 171              		.cfi_def_cfa_offset -64
 172              	.LVL15:
 173              	.L17:
 174              		.cfi_restore_state
 175 0086 AA84     		mv	s1,a0
 157:C:/Users/stapi/OneDrive/Desktop/GD32VW553/V1_MQTT_OK/GD32VW55X_Wifi_BLE_SDK/GD32VW55x_RELEASE_V1.0.2/MSDK/cloud/alicloud/src/services/shadow\shadow_delta.c ****     } else {
 176              		.loc 1 157 22
 177 0088 37050000 		lui	a0,%hi(.LC1)
 178              	.LVL16:
 179 008c 13050500 		addi	a0,a0,%lo(.LC1)
 180 0090 75B7     		j	.L2
 181              	.LVL17:
 182              	.L4:
 171:C:/Users/stapi/OneDrive/Desktop/GD32VW553/V1_MQTT_OK/GD32VW55X_Wifi_BLE_SDK/GD32VW55x_RELEASE_V1.0.2/MSDK/cloud/alicloud/src/services/shadow\shadow_delta.c ****                                   pstate,
 183              		.loc 1 171 5 is_stmt 1
 184              	.LBB10:
 185              	.LBB11:
  87:C:/Users/stapi/OneDrive/Desktop/GD32VW553/V1_MQTT_OK/GD32VW55X_Wifi_BLE_SDK/GD32VW55x_RELEASE_V1.0.2/MSDK/cloud/alicloud/src/services/shadow\shadow_delta.c ****     iotx_shadow_attr_pt pattr;
 186              		.loc 1 87 5
  88:C:/Users/stapi/OneDrive/Desktop/GD32VW553/V1_MQTT_OK/GD32VW55X_Wifi_BLE_SDK/GD32VW55x_RELEASE_V1.0.2/MSDK/cloud/alicloud/src/services/shadow\shadow_delta.c ****     list_iterator_t *iter;
 187              		.loc 1 88 5
  89:C:/Users/stapi/OneDrive/Desktop/GD32VW553/V1_MQTT_OK/GD32VW55X_Wifi_BLE_SDK/GD32VW55x_RELEASE_V1.0.2/MSDK/cloud/alicloud/src/services/shadow\shadow_delta.c ****     list_node_t *node;
 188              		.loc 1 89 5
  90:C:/Users/stapi/OneDrive/Desktop/GD32VW553/V1_MQTT_OK/GD32VW55X_Wifi_BLE_SDK/GD32VW55x_RELEASE_V1.0.2/MSDK/cloud/alicloud/src/services/shadow\shadow_delta.c ****     int need_update = 0;
 189              		.loc 1 90 5
  91:C:/Users/stapi/OneDrive/Desktop/GD32VW553/V1_MQTT_OK/GD32VW55X_Wifi_BLE_SDK/GD32VW55x_RELEASE_V1.0.2/MSDK/cloud/alicloud/src/services/shadow\shadow_delta.c **** 
 190              		.loc 1 91 5
  96:C:/Users/stapi/OneDrive/Desktop/GD32VW553/V1_MQTT_OK/GD32VW55X_Wifi_BLE_SDK/GD32VW55x_RELEASE_V1.0.2/MSDK/cloud/alicloud/src/services/shadow\shadow_delta.c ****     iter = list_iterator_new(pshadow->inner_data.attr_list, LIST_TAIL);
 191              		.loc 1 96 5
 192 0092 4840     		lw	a0,4(s0)
 193              	.LVL18:
  91:C:/Users/stapi/OneDrive/Desktop/GD32VW553/V1_MQTT_OK/GD32VW55X_Wifi_BLE_SDK/GD32VW55x_RELEASE_V1.0.2/MSDK/cloud/alicloud/src/services/shadow\shadow_delta.c **** 
 194              		.loc 1 91 9 is_stmt 0
 195 0094 014B     		li	s6,0
  96:C:/Users/stapi/OneDrive/Desktop/GD32VW553/V1_MQTT_OK/GD32VW55X_Wifi_BLE_SDK/GD32VW55x_RELEASE_V1.0.2/MSDK/cloud/alicloud/src/services/shadow\shadow_delta.c ****     iter = list_iterator_new(pshadow->inner_data.attr_list, LIST_TAIL);
 196              		.loc 1 96 5
 197 0096 97000000 		call	HAL_MutexLock
 197      E7800000 
 198              	.LVL19:
  97:C:/Users/stapi/OneDrive/Desktop/GD32VW553/V1_MQTT_OK/GD32VW55X_Wifi_BLE_SDK/GD32VW55x_RELEASE_V1.0.2/MSDK/cloud/alicloud/src/services/shadow\shadow_delta.c ****     if (NULL == iter) {
 199              		.loc 1 97 5 is_stmt 1
  97:C:/Users/stapi/OneDrive/Desktop/GD32VW553/V1_MQTT_OK/GD32VW55X_Wifi_BLE_SDK/GD32VW55x_RELEASE_V1.0.2/MSDK/cloud/alicloud/src/services/shadow\shadow_delta.c ****     if (NULL == iter) {
 200              		.loc 1 97 12 is_stmt 0
 201 009e 0325842E 		lw	a0,744(s0)
 202 00a2 8545     		li	a1,1
 203 00a4 97000000 		call	list_iterator_new
 203      E7800000 
 204              	.LVL20:
 205 00ac AA8A     		mv	s5,a0
 206              	.LVL21:
  98:C:/Users/stapi/OneDrive/Desktop/GD32VW553/V1_MQTT_OK/GD32VW55X_Wifi_BLE_SDK/GD32VW55x_RELEASE_V1.0.2/MSDK/cloud/alicloud/src/services/shadow\shadow_delta.c ****         HAL_MutexUnlock(pshadow->mutex);
 207              		.loc 1 98 5 is_stmt 1
  98:C:/Users/stapi/OneDrive/Desktop/GD32VW553/V1_MQTT_OK/GD32VW55X_Wifi_BLE_SDK/GD32VW55x_RELEASE_V1.0.2/MSDK/cloud/alicloud/src/services/shadow\shadow_delta.c ****         HAL_MutexUnlock(pshadow->mutex);
 208              		.loc 1 98 8 is_stmt 0
 209 00ae 1DC9     		beq	a0,zero,.L34
 210              	.LBB12:
 211              	.LBB13:
  67:C:/Users/stapi/OneDrive/Desktop/GD32VW553/V1_MQTT_OK/GD32VW55X_Wifi_BLE_SDK/GD32VW55x_RELEASE_V1.0.2/MSDK/cloud/alicloud/src/services/shadow\shadow_delta.c ****     return 0;
 212              		.loc 1 67 5
 213 00b0 B70B0000 		lui	s7,%hi(.LC6)
  56:C:/Users/stapi/OneDrive/Desktop/GD32VW553/V1_MQTT_OK/GD32VW55X_Wifi_BLE_SDK/GD32VW55x_RELEASE_V1.0.2/MSDK/cloud/alicloud/src/services/shadow\shadow_delta.c ****         if (NULL != pdata) {
 214              		.loc 1 56 17
 215 00b4 370C0000 		lui	s8,%hi(.LC9)
 216              	.LBE13:
 217              	.LBE12:
 123:C:/Users/stapi/OneDrive/Desktop/GD32VW553/V1_MQTT_OK/GD32VW55X_Wifi_BLE_SDK/GD32VW55x_RELEASE_V1.0.2/MSDK/cloud/alicloud/src/services/shadow\shadow_delta.c ****             }
 218              		.loc 1 123 36
 219 00b8 854C     		li	s9,1
 120:C:/Users/stapi/OneDrive/Desktop/GD32VW553/V1_MQTT_OK/GD32VW55X_Wifi_BLE_SDK/GD32VW55x_RELEASE_V1.0.2/MSDK/cloud/alicloud/src/services/shadow\shadow_delta.c ****             }else{
 220              		.loc 1 120 17
 221 00ba 370D0000 		lui	s10,%hi(.LC7)
 222 00be B70D0000 		lui	s11,%hi(.LC11)
 223              	.LVL22:
 224              	.L8:
 105:C:/Users/stapi/OneDrive/Desktop/GD32VW553/V1_MQTT_OK/GD32VW55X_Wifi_BLE_SDK/GD32VW55x_RELEASE_V1.0.2/MSDK/cloud/alicloud/src/services/shadow\shadow_delta.c ****         pattr = (iotx_shadow_attr_pt)node->val;
 225              		.loc 1 105 11 is_stmt 1
 105:C:/Users/stapi/OneDrive/Desktop/GD32VW553/V1_MQTT_OK/GD32VW55X_Wifi_BLE_SDK/GD32VW55x_RELEASE_V1.0.2/MSDK/cloud/alicloud/src/services/shadow\shadow_delta.c ****         pattr = (iotx_shadow_attr_pt)node->val;
 226              		.loc 1 105 19 is_stmt 0
 227 00c2 5685     		mv	a0,s5
 228 00c4 97000000 		call	list_iterator_next
 228      E7800000 
 229              	.LVL23:
 105:C:/Users/stapi/OneDrive/Desktop/GD32VW553/V1_MQTT_OK/GD32VW55X_Wifi_BLE_SDK/GD32VW55x_RELEASE_V1.0.2/MSDK/cloud/alicloud/src/services/shadow\shadow_delta.c ****         pattr = (iotx_shadow_attr_pt)node->val;
 230              		.loc 1 105 11
 231 00cc 61E9     		bne	a0,zero,.L14
 232              	.L15:
 139:C:/Users/stapi/OneDrive/Desktop/GD32VW553/V1_MQTT_OK/GD32VW55X_Wifi_BLE_SDK/GD32VW55x_RELEASE_V1.0.2/MSDK/cloud/alicloud/src/services/shadow\shadow_delta.c ****     HAL_MutexUnlock(pshadow->mutex);
 233              		.loc 1 139 5 is_stmt 1
 234 00ce 5685     		mv	a0,s5
 235              	.LVL24:
 236 00d0 97000000 		call	list_iterator_destroy
 236      E7800000 
 237              	.LVL25:
 140:C:/Users/stapi/OneDrive/Desktop/GD32VW553/V1_MQTT_OK/GD32VW55X_Wifi_BLE_SDK/GD32VW55x_RELEASE_V1.0.2/MSDK/cloud/alicloud/src/services/shadow\shadow_delta.c **** 
 238              		.loc 1 140 5
 239 00d8 4840     		lw	a0,4(s0)
 240 00da 97000000 		call	HAL_MutexUnlock
 240      E7800000 
 241              	.LVL26:
 142:C:/Users/stapi/OneDrive/Desktop/GD32VW553/V1_MQTT_OK/GD32VW55X_Wifi_BLE_SDK/GD32VW55x_RELEASE_V1.0.2/MSDK/cloud/alicloud/src/services/shadow\shadow_delta.c **** }
 242              		.loc 1 142 5
 142:C:/Users/stapi/OneDrive/Desktop/GD32VW553/V1_MQTT_OK/GD32VW55X_Wifi_BLE_SDK/GD32VW55x_RELEASE_V1.0.2/MSDK/cloud/alicloud/src/services/shadow\shadow_delta.c **** }
 243              		.loc 1 142 12 is_stmt 0
 244 00e2 35A8     		j	.L7
 245              	.LVL27:
 246              	.L34:
  99:C:/Users/stapi/OneDrive/Desktop/GD32VW553/V1_MQTT_OK/GD32VW55X_Wifi_BLE_SDK/GD32VW55x_RELEASE_V1.0.2/MSDK/cloud/alicloud/src/services/shadow\shadow_delta.c ****         shadow_warning("Allocate memory failed");
 247              		.loc 1 99 9 is_stmt 1
 248 00e4 4840     		lw	a0,4(s0)
 249              	.LVL28:
 250 00e6 97000000 		call	HAL_MutexUnlock
 250      E7800000 
 251              	.LVL29:
 100:C:/Users/stapi/OneDrive/Desktop/GD32VW553/V1_MQTT_OK/GD32VW55X_Wifi_BLE_SDK/GD32VW55x_RELEASE_V1.0.2/MSDK/cloud/alicloud/src/services/shadow\shadow_delta.c ****         need_update = 0;
 252              		.loc 1 100 9
 100:C:/Users/stapi/OneDrive/Desktop/GD32VW553/V1_MQTT_OK/GD32VW55X_Wifi_BLE_SDK/GD32VW55x_RELEASE_V1.0.2/MSDK/cloud/alicloud/src/services/shadow\shadow_delta.c ****         need_update = 0;
 253              		.loc 1 100 9
 254 00ee 37050000 		lui	a0,%hi(.LC7)
 255 00f2 13050500 		addi	a0,a0,%lo(.LC7)
 256 00f6 97000000 		call	HAL_Printf
 256      E7800000 
 257              	.LVL30:
 100:C:/Users/stapi/OneDrive/Desktop/GD32VW553/V1_MQTT_OK/GD32VW55X_Wifi_BLE_SDK/GD32VW55x_RELEASE_V1.0.2/MSDK/cloud/alicloud/src/services/shadow\shadow_delta.c ****         need_update = 0;
 258              		.loc 1 100 9
 259 00fe 37050000 		lui	a0,%hi(.LC8)
 260 0102 13050500 		addi	a0,a0,%lo(.LC8)
 261 0106 97000000 		call	HAL_Printf
 261      E7800000 
 262              	.LVL31:
 100:C:/Users/stapi/OneDrive/Desktop/GD32VW553/V1_MQTT_OK/GD32VW55X_Wifi_BLE_SDK/GD32VW55x_RELEASE_V1.0.2/MSDK/cloud/alicloud/src/services/shadow\shadow_delta.c ****         need_update = 0;
 263              		.loc 1 100 9
 264 010e 37050000 		lui	a0,%hi(.LC6)
 265 0112 13050500 		addi	a0,a0,%lo(.LC6)
 266 0116 97000000 		call	HAL_Printf
 266      E7800000 
 267              	.LVL32:
 100:C:/Users/stapi/OneDrive/Desktop/GD32VW553/V1_MQTT_OK/GD32VW55X_Wifi_BLE_SDK/GD32VW55x_RELEASE_V1.0.2/MSDK/cloud/alicloud/src/services/shadow\shadow_delta.c ****         need_update = 0;
 268              		.loc 1 100 9
 101:C:/Users/stapi/OneDrive/Desktop/GD32VW553/V1_MQTT_OK/GD32VW55X_Wifi_BLE_SDK/GD32VW55x_RELEASE_V1.0.2/MSDK/cloud/alicloud/src/services/shadow\shadow_delta.c ****         return need_update;
 269              		.loc 1 101 9
 102:C:/Users/stapi/OneDrive/Desktop/GD32VW553/V1_MQTT_OK/GD32VW55X_Wifi_BLE_SDK/GD32VW55x_RELEASE_V1.0.2/MSDK/cloud/alicloud/src/services/shadow\shadow_delta.c ****     }
 270              		.loc 1 102 9
 271              	.L7:
 272              	.LBE11:
 273              	.LBE10:
 177:C:/Users/stapi/OneDrive/Desktop/GD32VW553/V1_MQTT_OK/GD32VW55X_Wifi_BLE_SDK/GD32VW55x_RELEASE_V1.0.2/MSDK/cloud/alicloud/src/services/shadow\shadow_delta.c ****     LITE_free(pmetadata);
 274              		.loc 1 177 5
 275 011e 2685     		mv	a0,s1
 276 0120 97000000 		call	LITE_free_internal
 276      E7800000 
 277              	.LVL33:
 178:C:/Users/stapi/OneDrive/Desktop/GD32VW553/V1_MQTT_OK/GD32VW55X_Wifi_BLE_SDK/GD32VW55x_RELEASE_V1.0.2/MSDK/cloud/alicloud/src/services/shadow\shadow_delta.c **** 
 278              		.loc 1 178 5
 279 0128 5285     		mv	a0,s4
 280 012a 97000000 		call	LITE_free_internal
 280      E7800000 
 281              	.LVL34:
 182:C:/Users/stapi/OneDrive/Desktop/GD32VW553/V1_MQTT_OK/GD32VW55X_Wifi_BLE_SDK/GD32VW55x_RELEASE_V1.0.2/MSDK/cloud/alicloud/src/services/shadow\shadow_delta.c ****         iotx_shadow_delta_response(pshadow);
 282              		.loc 1 182 5
 182:C:/Users/stapi/OneDrive/Desktop/GD32VW553/V1_MQTT_OK/GD32VW55X_Wifi_BLE_SDK/GD32VW55x_RELEASE_V1.0.2/MSDK/cloud/alicloud/src/services/shadow\shadow_delta.c ****         iotx_shadow_delta_response(pshadow);
 283              		.loc 1 182 7 is_stmt 0
 284 0132 E3050BF4 		beq	s6,zero,.L1
 183:C:/Users/stapi/OneDrive/Desktop/GD32VW553/V1_MQTT_OK/GD32VW55X_Wifi_BLE_SDK/GD32VW55x_RELEASE_V1.0.2/MSDK/cloud/alicloud/src/services/shadow\shadow_delta.c ****     }
 285              		.loc 1 183 9 is_stmt 1
 286              	.LVL35:
 287              	.LBB23:
 288              	.LBB24:
  20:C:/Users/stapi/OneDrive/Desktop/GD32VW553/V1_MQTT_OK/GD32VW55X_Wifi_BLE_SDK/GD32VW55x_RELEASE_V1.0.2/MSDK/cloud/alicloud/src/services/shadow\shadow_delta.c ****     void *buf;
 289              		.loc 1 20 5
  21:C:/Users/stapi/OneDrive/Desktop/GD32VW553/V1_MQTT_OK/GD32VW55X_Wifi_BLE_SDK/GD32VW55x_RELEASE_V1.0.2/MSDK/cloud/alicloud/src/services/shadow\shadow_delta.c ****     format_data_t format;
 290              		.loc 1 21 5
  22:C:/Users/stapi/OneDrive/Desktop/GD32VW553/V1_MQTT_OK/GD32VW55X_Wifi_BLE_SDK/GD32VW55x_RELEASE_V1.0.2/MSDK/cloud/alicloud/src/services/shadow\shadow_delta.c **** 
 291              		.loc 1 22 5
  24:C:/Users/stapi/OneDrive/Desktop/GD32VW553/V1_MQTT_OK/GD32VW55X_Wifi_BLE_SDK/GD32VW55x_RELEASE_V1.0.2/MSDK/cloud/alicloud/src/services/shadow\shadow_delta.c ****     if (NULL == buf) {
 292              		.loc 1 24 5
  24:C:/Users/stapi/OneDrive/Desktop/GD32VW553/V1_MQTT_OK/GD32VW55X_Wifi_BLE_SDK/GD32VW55x_RELEASE_V1.0.2/MSDK/cloud/alicloud/src/services/shadow\shadow_delta.c ****     if (NULL == buf) {
 293              		.loc 1 24 11 is_stmt 0
 294 0136 13060010 		li	a2,256
 295 013a 8145     		li	a1,0
 296 013c 0145     		li	a0,0
 297 013e 97000000 		call	LITE_malloc_internal
 297      E7800000 
 298              	.LVL36:
 299 0146 AA84     		mv	s1,a0
 300              	.LVL37:
  25:C:/Users/stapi/OneDrive/Desktop/GD32VW553/V1_MQTT_OK/GD32VW55X_Wifi_BLE_SDK/GD32VW55x_RELEASE_V1.0.2/MSDK/cloud/alicloud/src/services/shadow\shadow_delta.c ****         return ERROR_NO_MEM;
 301              		.loc 1 25 5 is_stmt 1
  25:C:/Users/stapi/OneDrive/Desktop/GD32VW553/V1_MQTT_OK/GD32VW55X_Wifi_BLE_SDK/GD32VW55x_RELEASE_V1.0.2/MSDK/cloud/alicloud/src/services/shadow\shadow_delta.c ****         return ERROR_NO_MEM;
 302              		.loc 1 25 8 is_stmt 0
 303 0148 15D9     		beq	a0,zero,.L1
  29:C:/Users/stapi/OneDrive/Desktop/GD32VW553/V1_MQTT_OK/GD32VW55X_Wifi_BLE_SDK/GD32VW55x_RELEASE_V1.0.2/MSDK/cloud/alicloud/src/services/shadow\shadow_delta.c ****                                "\"state\":{\"desired\":\"null\"");
 304              		.loc 1 29 5 is_stmt 1
 305 014a B7070000 		lui	a5,%hi(.LC12)
 306 014e 37070000 		lui	a4,%hi(.LC13)
 307 0152 93870700 		addi	a5,a5,%lo(.LC12)
 308 0156 13070700 		addi	a4,a4,%lo(.LC13)
 309 015a 2A86     		mv	a2,a0
 310 015c 0C08     		addi	a1,sp,16
 311 015e 93060010 		li	a3,256
 312 0162 2285     		mv	a0,s0
 313 0164 97000000 		call	iotx_ds_common_format_init
 313      E7800000 
 314              	.LVL38:
  31:C:/Users/stapi/OneDrive/Desktop/GD32VW553/V1_MQTT_OK/GD32VW55X_Wifi_BLE_SDK/GD32VW55x_RELEASE_V1.0.2/MSDK/cloud/alicloud/src/services/shadow\shadow_delta.c **** 
 315              		.loc 1 31 5
 316 016c 37060000 		lui	a2,%hi(.LC14)
 317 0170 8146     		li	a3,0
 318 0172 0C08     		addi	a1,sp,16
 319 0174 13060600 		addi	a2,a2,%lo(.LC14)
 320 0178 2285     		mv	a0,s0
 321 017a 97000000 		call	iotx_ds_common_format_finalize
 321      E7800000 
 322              	.LVL39:
  33:C:/Users/stapi/OneDrive/Desktop/GD32VW553/V1_MQTT_OK/GD32VW55X_Wifi_BLE_SDK/GD32VW55x_RELEASE_V1.0.2/MSDK/cloud/alicloud/src/services/shadow\shadow_delta.c **** 
 323              		.loc 1 33 5
  33:C:/Users/stapi/OneDrive/Desktop/GD32VW553/V1_MQTT_OK/GD32VW55X_Wifi_BLE_SDK/GD32VW55x_RELEASE_V1.0.2/MSDK/cloud/alicloud/src/services/shadow\shadow_delta.c **** 
 324              		.loc 1 33 10 is_stmt 0
 325 0182 6246     		lw	a2,24(sp)
 326 0184 F245     		lw	a1,28(sp)
 327 0186 2285     		mv	a0,s0
 328 0188 97000000 		call	iotx_ds_common_publish2update
 328      E7800000 
 329              	.LVL40:
  35:C:/Users/stapi/OneDrive/Desktop/GD32VW553/V1_MQTT_OK/GD32VW55X_Wifi_BLE_SDK/GD32VW55x_RELEASE_V1.0.2/MSDK/cloud/alicloud/src/services/shadow\shadow_delta.c **** 
 330              		.loc 1 35 5 is_stmt 1
 331 0190 2685     		mv	a0,s1
 332 0192 97000000 		call	LITE_free_internal
 332      E7800000 
 333              	.LVL41:
  37:C:/Users/stapi/OneDrive/Desktop/GD32VW553/V1_MQTT_OK/GD32VW55X_Wifi_BLE_SDK/GD32VW55x_RELEASE_V1.0.2/MSDK/cloud/alicloud/src/services/shadow\shadow_delta.c **** }
 334              		.loc 1 37 5
  37:C:/Users/stapi/OneDrive/Desktop/GD32VW553/V1_MQTT_OK/GD32VW55X_Wifi_BLE_SDK/GD32VW55x_RELEASE_V1.0.2/MSDK/cloud/alicloud/src/services/shadow\shadow_delta.c **** }
 335              		.loc 1 37 39 is_stmt 0
 336 019a CDB5     		j	.L1
 337              	.LVL42:
 338              	.L14:
 339              	.LBE24:
 340              	.LBE23:
 341              	.LBB25:
 342              	.LBB22:
 106:C:/Users/stapi/OneDrive/Desktop/GD32VW553/V1_MQTT_OK/GD32VW55X_Wifi_BLE_SDK/GD32VW55x_RELEASE_V1.0.2/MSDK/cloud/alicloud/src/services/shadow\shadow_delta.c ****         pvalue = LITE_json_value_of((char *)pattr->pattr_name, (char *)json_doc_attr);
 343              		.loc 1 106 9 is_stmt 1
 106:C:/Users/stapi/OneDrive/Desktop/GD32VW553/V1_MQTT_OK/GD32VW55X_Wifi_BLE_SDK/GD32VW55x_RELEASE_V1.0.2/MSDK/cloud/alicloud/src/services/shadow\shadow_delta.c ****         pvalue = LITE_json_value_of((char *)pattr->pattr_name, (char *)json_doc_attr);
 344              		.loc 1 106 15 is_stmt 0
 345 019c 03298500 		lw	s2,8(a0)
 346              	.LVL43:
 107:C:/Users/stapi/OneDrive/Desktop/GD32VW553/V1_MQTT_OK/GD32VW55X_Wifi_BLE_SDK/GD32VW55x_RELEASE_V1.0.2/MSDK/cloud/alicloud/src/services/shadow\shadow_delta.c **** 
 347              		.loc 1 107 9 is_stmt 1
 107:C:/Users/stapi/OneDrive/Desktop/GD32VW553/V1_MQTT_OK/GD32VW55X_Wifi_BLE_SDK/GD32VW55x_RELEASE_V1.0.2/MSDK/cloud/alicloud/src/services/shadow\shadow_delta.c **** 
 348              		.loc 1 107 18 is_stmt 0
 349 01a0 A685     		mv	a1,s1
 350 01a2 03254900 		lw	a0,4(s2)
 351              	.LVL44:
 352 01a6 97000000 		call	LITE_json_value_of
 352      E7800000 
 353              	.LVL45:
 354 01ae AA89     		mv	s3,a0
 355              	.LVL46:
 110:C:/Users/stapi/OneDrive/Desktop/GD32VW553/V1_MQTT_OK/GD32VW55X_Wifi_BLE_SDK/GD32VW55x_RELEASE_V1.0.2/MSDK/cloud/alicloud/src/services/shadow\shadow_delta.c ****             /* get timestamp */
 356              		.loc 1 110 9 is_stmt 1
 110:C:/Users/stapi/OneDrive/Desktop/GD32VW553/V1_MQTT_OK/GD32VW55X_Wifi_BLE_SDK/GD32VW55x_RELEASE_V1.0.2/MSDK/cloud/alicloud/src/services/shadow\shadow_delta.c ****             /* get timestamp */
 357              		.loc 1 110 12 is_stmt 0
 358 01b0 09D9     		beq	a0,zero,.L8
 112:C:/Users/stapi/OneDrive/Desktop/GD32VW553/V1_MQTT_OK/GD32VW55X_Wifi_BLE_SDK/GD32VW55x_RELEASE_V1.0.2/MSDK/cloud/alicloud/src/services/shadow\shadow_delta.c ****             pattr->timestamp = iotx_shadow_get_timestamp(
 359              		.loc 1 112 13 is_stmt 1
 360              	.LVL47:
 113:C:/Users/stapi/OneDrive/Desktop/GD32VW553/V1_MQTT_OK/GD32VW55X_Wifi_BLE_SDK/GD32VW55x_RELEASE_V1.0.2/MSDK/cloud/alicloud/src/services/shadow\shadow_delta.c ****                                            json_doc_metadata,
 361              		.loc 1 113 13
 362              	.LBB16:
 363              	.LBB14:
  46:C:/Users/stapi/OneDrive/Desktop/GD32VW553/V1_MQTT_OK/GD32VW55X_Wifi_BLE_SDK/GD32VW55x_RELEASE_V1.0.2/MSDK/cloud/alicloud/src/services/shadow\shadow_delta.c ****     const char *pdata;
 364              		.loc 1 46 5
  47:C:/Users/stapi/OneDrive/Desktop/GD32VW553/V1_MQTT_OK/GD32VW55X_Wifi_BLE_SDK/GD32VW55x_RELEASE_V1.0.2/MSDK/cloud/alicloud/src/services/shadow\shadow_delta.c **** 
 365              		.loc 1 47 5
  49:C:/Users/stapi/OneDrive/Desktop/GD32VW553/V1_MQTT_OK/GD32VW55X_Wifi_BLE_SDK/GD32VW55x_RELEASE_V1.0.2/MSDK/cloud/alicloud/src/services/shadow\shadow_delta.c **** 
 366              		.loc 1 49 5
  53:C:/Users/stapi/OneDrive/Desktop/GD32VW553/V1_MQTT_OK/GD32VW55X_Wifi_BLE_SDK/GD32VW55x_RELEASE_V1.0.2/MSDK/cloud/alicloud/src/services/shadow\shadow_delta.c **** 
 367              		.loc 1 53 5
  53:C:/Users/stapi/OneDrive/Desktop/GD32VW553/V1_MQTT_OK/GD32VW55X_Wifi_BLE_SDK/GD32VW55x_RELEASE_V1.0.2/MSDK/cloud/alicloud/src/services/shadow\shadow_delta.c **** 
 368              		.loc 1 53 21 is_stmt 0
 369 01b2 03254900 		lw	a0,4(s2)
 370              	.LVL48:
 371 01b6 D285     		mv	a1,s4
 372 01b8 97000000 		call	LITE_json_value_of
 372      E7800000 
 373              	.LVL49:
 374 01c0 2A8B     		mv	s6,a0
 375              	.LVL50:
  55:C:/Users/stapi/OneDrive/Desktop/GD32VW553/V1_MQTT_OK/GD32VW55X_Wifi_BLE_SDK/GD32VW55x_RELEASE_V1.0.2/MSDK/cloud/alicloud/src/services/shadow\shadow_delta.c ****         pdata = LITE_json_value_of((char *)"timestamp", (char *)pdata_desired);
 376              		.loc 1 55 5 is_stmt 1
  55:C:/Users/stapi/OneDrive/Desktop/GD32VW553/V1_MQTT_OK/GD32VW55X_Wifi_BLE_SDK/GD32VW55x_RELEASE_V1.0.2/MSDK/cloud/alicloud/src/services/shadow\shadow_delta.c ****         pdata = LITE_json_value_of((char *)"timestamp", (char *)pdata_desired);
 377              		.loc 1 55 8 is_stmt 0
 378 01c2 59C9     		beq	a0,zero,.L9
  56:C:/Users/stapi/OneDrive/Desktop/GD32VW553/V1_MQTT_OK/GD32VW55X_Wifi_BLE_SDK/GD32VW55x_RELEASE_V1.0.2/MSDK/cloud/alicloud/src/services/shadow\shadow_delta.c ****         if (NULL != pdata) {
 379              		.loc 1 56 9 is_stmt 1
  56:C:/Users/stapi/OneDrive/Desktop/GD32VW553/V1_MQTT_OK/GD32VW55X_Wifi_BLE_SDK/GD32VW55x_RELEASE_V1.0.2/MSDK/cloud/alicloud/src/services/shadow\shadow_delta.c ****         if (NULL != pdata) {
 380              		.loc 1 56 17 is_stmt 0
 381 01c4 AA85     		mv	a1,a0
 382 01c6 13050C00 		addi	a0,s8,%lo(.LC9)
 383              	.LVL51:
 384 01ca 97000000 		call	LITE_json_value_of
 384      E7800000 
 385              	.LVL52:
  57:C:/Users/stapi/OneDrive/Desktop/GD32VW553/V1_MQTT_OK/GD32VW55X_Wifi_BLE_SDK/GD32VW55x_RELEASE_V1.0.2/MSDK/cloud/alicloud/src/services/shadow\shadow_delta.c ****             ret = atoi(pdata);
 386              		.loc 1 57 9 is_stmt 1
  57:C:/Users/stapi/OneDrive/Desktop/GD32VW553/V1_MQTT_OK/GD32VW55X_Wifi_BLE_SDK/GD32VW55x_RELEASE_V1.0.2/MSDK/cloud/alicloud/src/services/shadow\shadow_delta.c ****             ret = atoi(pdata);
 387              		.loc 1 57 12 is_stmt 0
 388 01d2 2AC6     		sw	a0,12(sp)
 389 01d4 2DCD     		beq	a0,zero,.L10
  58:C:/Users/stapi/OneDrive/Desktop/GD32VW553/V1_MQTT_OK/GD32VW55X_Wifi_BLE_SDK/GD32VW55x_RELEASE_V1.0.2/MSDK/cloud/alicloud/src/services/shadow\shadow_delta.c ****             LITE_free(pdata);
 390              		.loc 1 58 13 is_stmt 1
  58:C:/Users/stapi/OneDrive/Desktop/GD32VW553/V1_MQTT_OK/GD32VW55X_Wifi_BLE_SDK/GD32VW55x_RELEASE_V1.0.2/MSDK/cloud/alicloud/src/services/shadow\shadow_delta.c ****             LITE_free(pdata);
 391              		.loc 1 58 19 is_stmt 0
 392 01d6 97000000 		call	atoi
 392      E7800000 
 393              	.LVL53:
  59:C:/Users/stapi/OneDrive/Desktop/GD32VW553/V1_MQTT_OK/GD32VW55X_Wifi_BLE_SDK/GD32VW55x_RELEASE_V1.0.2/MSDK/cloud/alicloud/src/services/shadow\shadow_delta.c ****             LITE_free(pdata_desired);
 394              		.loc 1 59 13
 395 01de 3247     		lw	a4,12(sp)
  58:C:/Users/stapi/OneDrive/Desktop/GD32VW553/V1_MQTT_OK/GD32VW55X_Wifi_BLE_SDK/GD32VW55x_RELEASE_V1.0.2/MSDK/cloud/alicloud/src/services/shadow\shadow_delta.c ****             LITE_free(pdata);
 396              		.loc 1 58 19
 397 01e0 2AC4     		sw	a0,8(sp)
 398              	.LVL54:
  59:C:/Users/stapi/OneDrive/Desktop/GD32VW553/V1_MQTT_OK/GD32VW55X_Wifi_BLE_SDK/GD32VW55x_RELEASE_V1.0.2/MSDK/cloud/alicloud/src/services/shadow\shadow_delta.c ****             LITE_free(pdata_desired);
 399              		.loc 1 59 13 is_stmt 1
 400 01e2 3A85     		mv	a0,a4
 401              	.LVL55:
 402 01e4 97000000 		call	LITE_free_internal
 402      E7800000 
 403              	.LVL56:
  60:C:/Users/stapi/OneDrive/Desktop/GD32VW553/V1_MQTT_OK/GD32VW55X_Wifi_BLE_SDK/GD32VW55x_RELEASE_V1.0.2/MSDK/cloud/alicloud/src/services/shadow\shadow_delta.c ****             return ret;
 404              		.loc 1 60 13
 405 01ec 5A85     		mv	a0,s6
 406 01ee 97000000 		call	LITE_free_internal
 406      E7800000 
 407              	.LVL57:
  61:C:/Users/stapi/OneDrive/Desktop/GD32VW553/V1_MQTT_OK/GD32VW55X_Wifi_BLE_SDK/GD32VW55x_RELEASE_V1.0.2/MSDK/cloud/alicloud/src/services/shadow\shadow_delta.c ****         }
 408              		.loc 1 61 13
  61:C:/Users/stapi/OneDrive/Desktop/GD32VW553/V1_MQTT_OK/GD32VW55X_Wifi_BLE_SDK/GD32VW55x_RELEASE_V1.0.2/MSDK/cloud/alicloud/src/services/shadow\shadow_delta.c ****         }
 409              		.loc 1 61 20 is_stmt 0
 410 01f6 A247     		lw	a5,8(sp)
 411              	.LVL58:
 412              	.L11:
 413              	.LBE14:
 414              	.LBE16:
 113:C:/Users/stapi/OneDrive/Desktop/GD32VW553/V1_MQTT_OK/GD32VW55X_Wifi_BLE_SDK/GD32VW55x_RELEASE_V1.0.2/MSDK/cloud/alicloud/src/services/shadow\shadow_delta.c ****                                            json_doc_metadata,
 415              		.loc 1 113 30
 416 01f8 2328F900 		sw	a5,16(s2)
 119:C:/Users/stapi/OneDrive/Desktop/GD32VW553/V1_MQTT_OK/GD32VW55X_Wifi_BLE_SDK/GD32VW55x_RELEASE_V1.0.2/MSDK/cloud/alicloud/src/services/shadow\shadow_delta.c ****                 shadow_warning("Update attribute value failed.");
 417              		.loc 1 119 13 is_stmt 1
 119:C:/Users/stapi/OneDrive/Desktop/GD32VW553/V1_MQTT_OK/GD32VW55X_Wifi_BLE_SDK/GD32VW55x_RELEASE_V1.0.2/MSDK/cloud/alicloud/src/services/shadow\shadow_delta.c ****                 shadow_warning("Update attribute value failed.");
 418              		.loc 1 119 35 is_stmt 0
 419 01fc 4E85     		mv	a0,s3
 420 01fe 97000000 		call	strlen
 420      E7800000 
 421              	.LVL59:
 422              	.LBB17:
 423              	.LBB18:
  77:C:/Users/stapi/OneDrive/Desktop/GD32VW553/V1_MQTT_OK/GD32VW55X_Wifi_BLE_SDK/GD32VW55x_RELEASE_V1.0.2/MSDK/cloud/alicloud/src/services/shadow\shadow_delta.c **** }
 424              		.loc 1 77 12
 425 0206 83268900 		lw	a3,8(s2)
 426 020a 0326C900 		lw	a2,12(s2)
 427              	.LBE18:
 428              	.LBE17:
 119:C:/Users/stapi/OneDrive/Desktop/GD32VW553/V1_MQTT_OK/GD32VW55X_Wifi_BLE_SDK/GD32VW55x_RELEASE_V1.0.2/MSDK/cloud/alicloud/src/services/shadow\shadow_delta.c ****                 shadow_warning("Update attribute value failed.");
 429              		.loc 1 119 35
 430 020e AA85     		mv	a1,a0
 431              	.LVL60:
 432              	.LBB20:
 433              	.LBB19:
  77:C:/Users/stapi/OneDrive/Desktop/GD32VW553/V1_MQTT_OK/GD32VW55X_Wifi_BLE_SDK/GD32VW55x_RELEASE_V1.0.2/MSDK/cloud/alicloud/src/services/shadow\shadow_delta.c **** }
 434              		.loc 1 77 5 is_stmt 1
  77:C:/Users/stapi/OneDrive/Desktop/GD32VW553/V1_MQTT_OK/GD32VW55X_Wifi_BLE_SDK/GD32VW55x_RELEASE_V1.0.2/MSDK/cloud/alicloud/src/services/shadow\shadow_delta.c **** }
 435              		.loc 1 77 12 is_stmt 0
 436 0210 4E85     		mv	a0,s3
 437              	.LVL61:
 438 0212 97000000 		call	iotx_ds_common_convert_string2data
 438      E7800000 
 439              	.LVL62:
 440              	.LBE19:
 441              	.LBE20:
 119:C:/Users/stapi/OneDrive/Desktop/GD32VW553/V1_MQTT_OK/GD32VW55X_Wifi_BLE_SDK/GD32VW55x_RELEASE_V1.0.2/MSDK/cloud/alicloud/src/services/shadow\shadow_delta.c ****                 shadow_warning("Update attribute value failed.");
 442              		.loc 1 119 16
 443 021a 3DC5     		beq	a0,zero,.L12
 120:C:/Users/stapi/OneDrive/Desktop/GD32VW553/V1_MQTT_OK/GD32VW55X_Wifi_BLE_SDK/GD32VW55x_RELEASE_V1.0.2/MSDK/cloud/alicloud/src/services/shadow\shadow_delta.c ****             }else{
 444              		.loc 1 120 17 is_stmt 1
 120:C:/Users/stapi/OneDrive/Desktop/GD32VW553/V1_MQTT_OK/GD32VW55X_Wifi_BLE_SDK/GD32VW55x_RELEASE_V1.0.2/MSDK/cloud/alicloud/src/services/shadow\shadow_delta.c ****             }else{
 445              		.loc 1 120 17
 446 021c 13050D00 		addi	a0,s10,%lo(.LC7)
 447 0220 97000000 		call	HAL_Printf
 447      E7800000 
 448              	.LVL63:
 120:C:/Users/stapi/OneDrive/Desktop/GD32VW553/V1_MQTT_OK/GD32VW55X_Wifi_BLE_SDK/GD32VW55x_RELEASE_V1.0.2/MSDK/cloud/alicloud/src/services/shadow\shadow_delta.c ****             }else{
 449              		.loc 1 120 17
 450 0228 13850D00 		addi	a0,s11,%lo(.LC11)
 451 022c 97000000 		call	HAL_Printf
 451      E7800000 
 452              	.LVL64:
 120:C:/Users/stapi/OneDrive/Desktop/GD32VW553/V1_MQTT_OK/GD32VW55X_Wifi_BLE_SDK/GD32VW55x_RELEASE_V1.0.2/MSDK/cloud/alicloud/src/services/shadow\shadow_delta.c ****             }else{
 453              		.loc 1 120 17
 454 0234 13850B00 		addi	a0,s7,%lo(.LC6)
 455 0238 97000000 		call	HAL_Printf
 455      E7800000 
 456              	.LVL65:
 120:C:/Users/stapi/OneDrive/Desktop/GD32VW553/V1_MQTT_OK/GD32VW55X_Wifi_BLE_SDK/GD32VW55x_RELEASE_V1.0.2/MSDK/cloud/alicloud/src/services/shadow\shadow_delta.c ****             }else{
 457              		.loc 1 120 17
 458              	.L13:
 134:C:/Users/stapi/OneDrive/Desktop/GD32VW553/V1_MQTT_OK/GD32VW55X_Wifi_BLE_SDK/GD32VW55x_RELEASE_V1.0.2/MSDK/cloud/alicloud/src/services/shadow\shadow_delta.c ****         }
 459              		.loc 1 134 13
 460 0240 4E85     		mv	a0,s3
 461 0242 97000000 		call	LITE_free_internal
 461      E7800000 
 462              	.LVL66:
 112:C:/Users/stapi/OneDrive/Desktop/GD32VW553/V1_MQTT_OK/GD32VW55X_Wifi_BLE_SDK/GD32VW55x_RELEASE_V1.0.2/MSDK/cloud/alicloud/src/services/shadow\shadow_delta.c ****             pattr->timestamp = iotx_shadow_get_timestamp(
 463              		.loc 1 112 25 is_stmt 0
 464 024a 054B     		li	s6,1
 465 024c 9DBD     		j	.L8
 466              	.LVL67:
 467              	.L10:
 468              	.LBB21:
 469              	.LBB15:
  64:C:/Users/stapi/OneDrive/Desktop/GD32VW553/V1_MQTT_OK/GD32VW55X_Wifi_BLE_SDK/GD32VW55x_RELEASE_V1.0.2/MSDK/cloud/alicloud/src/services/shadow\shadow_delta.c ****     }
 470              		.loc 1 64 9 is_stmt 1
 471 024e 5A85     		mv	a0,s6
 472              	.LVL68:
 473 0250 97000000 		call	LITE_free_internal
 473      E7800000 
 474              	.LVL69:
 475              	.L9:
  67:C:/Users/stapi/OneDrive/Desktop/GD32VW553/V1_MQTT_OK/GD32VW55X_Wifi_BLE_SDK/GD32VW55x_RELEASE_V1.0.2/MSDK/cloud/alicloud/src/services/shadow\shadow_delta.c ****     return 0;
 476              		.loc 1 67 5
  67:C:/Users/stapi/OneDrive/Desktop/GD32VW553/V1_MQTT_OK/GD32VW55X_Wifi_BLE_SDK/GD32VW55x_RELEASE_V1.0.2/MSDK/cloud/alicloud/src/services/shadow\shadow_delta.c ****     return 0;
 477              		.loc 1 67 5
 478 0258 B7070000 		lui	a5,%hi(.LC4)
 479 025c 13850700 		addi	a0,a5,%lo(.LC4)
 480 0260 97000000 		call	HAL_Printf
 480      E7800000 
 481              	.LVL70:
  67:C:/Users/stapi/OneDrive/Desktop/GD32VW553/V1_MQTT_OK/GD32VW55X_Wifi_BLE_SDK/GD32VW55x_RELEASE_V1.0.2/MSDK/cloud/alicloud/src/services/shadow\shadow_delta.c ****     return 0;
 482              		.loc 1 67 5
 483 0268 B7070000 		lui	a5,%hi(.LC10)
 484 026c 13850700 		addi	a0,a5,%lo(.LC10)
 485 0270 97000000 		call	HAL_Printf
 485      E7800000 
 486              	.LVL71:
  67:C:/Users/stapi/OneDrive/Desktop/GD32VW553/V1_MQTT_OK/GD32VW55X_Wifi_BLE_SDK/GD32VW55x_RELEASE_V1.0.2/MSDK/cloud/alicloud/src/services/shadow\shadow_delta.c ****     return 0;
 487              		.loc 1 67 5
 488 0278 13850B00 		addi	a0,s7,%lo(.LC6)
 489 027c 97000000 		call	HAL_Printf
 489      E7800000 
 490              	.LVL72:
  67:C:/Users/stapi/OneDrive/Desktop/GD32VW553/V1_MQTT_OK/GD32VW55X_Wifi_BLE_SDK/GD32VW55x_RELEASE_V1.0.2/MSDK/cloud/alicloud/src/services/shadow\shadow_delta.c ****     return 0;
 491              		.loc 1 67 5
  68:C:/Users/stapi/OneDrive/Desktop/GD32VW553/V1_MQTT_OK/GD32VW55X_Wifi_BLE_SDK/GD32VW55x_RELEASE_V1.0.2/MSDK/cloud/alicloud/src/services/shadow\shadow_delta.c **** }
 492              		.loc 1 68 5
  68:C:/Users/stapi/OneDrive/Desktop/GD32VW553/V1_MQTT_OK/GD32VW55X_Wifi_BLE_SDK/GD32VW55x_RELEASE_V1.0.2/MSDK/cloud/alicloud/src/services/shadow\shadow_delta.c **** }
 493              		.loc 1 68 12 is_stmt 0
 494 0284 8147     		li	a5,0
 495 0286 8DBF     		j	.L11
 496              	.LVL73:
 497              	.L12:
 498              	.LBE15:
 499              	.LBE21:
 122:C:/Users/stapi/OneDrive/Desktop/GD32VW553/V1_MQTT_OK/GD32VW55X_Wifi_BLE_SDK/GD32VW55x_RELEASE_V1.0.2/MSDK/cloud/alicloud/src/services/shadow\shadow_delta.c ****                 pattr->flag_update = 1;
 500              		.loc 1 122 17 is_stmt 1
 122:C:/Users/stapi/OneDrive/Desktop/GD32VW553/V1_MQTT_OK/GD32VW55X_Wifi_BLE_SDK/GD32VW55x_RELEASE_V1.0.2/MSDK/cloud/alicloud/src/services/shadow\shadow_delta.c ****                 pattr->flag_update = 1;
 501              		.loc 1 122 36 is_stmt 0
 502 0288 8327842F 		lw	a5,760(s0)
 123:C:/Users/stapi/OneDrive/Desktop/GD32VW553/V1_MQTT_OK/GD32VW55X_Wifi_BLE_SDK/GD32VW55x_RELEASE_V1.0.2/MSDK/cloud/alicloud/src/services/shadow\shadow_delta.c ****             }
 503              		.loc 1 123 36
 504 028c 230C9901 		sb	s9,24(s2)
 122:C:/Users/stapi/OneDrive/Desktop/GD32VW553/V1_MQTT_OK/GD32VW55X_Wifi_BLE_SDK/GD32VW55x_RELEASE_V1.0.2/MSDK/cloud/alicloud/src/services/shadow\shadow_delta.c ****                 pattr->flag_update = 1;
 505              		.loc 1 122 36
 506 0290 232EF900 		sw	a5,28(s2)
 123:C:/Users/stapi/OneDrive/Desktop/GD32VW553/V1_MQTT_OK/GD32VW55X_Wifi_BLE_SDK/GD32VW55x_RELEASE_V1.0.2/MSDK/cloud/alicloud/src/services/shadow\shadow_delta.c ****             }
 507              		.loc 1 123 17 is_stmt 1
 508 0294 75B7     		j	.L13
 509              	.LBE22:
 510              	.LBE25:
 511              		.cfi_endproc
 512              	.LFE24:
 514              		.text
 515              	.Letext0:
 516              		.file 2 "c:\\users\\stapi\\onedrive\\desktop\\gd32vw553\\embeddedbuilder_v1.4.7.26843\\tools\\nucl
 517              		.file 3 "c:\\users\\stapi\\onedrive\\desktop\\gd32vw553\\embeddedbuilder_v1.4.7.26843\\tools\\nucl
 518              		.file 4 "c:\\users\\stapi\\onedrive\\desktop\\gd32vw553\\embeddedbuilder_v1.4.7.26843\\tools\\nucl
 519              		.file 5 "..\\..\\..\\..\\cloud\\alicloud\\include/exports/iot_export_errno.h"
 520              		.file 6 "..\\..\\..\\..\\cloud\\alicloud\\include/exports/iot_export_shadow.h"
 521              		.file 7 "..\\..\\..\\..\\cloud\\alicloud\\src\\infra\\utils\\misc/utils_timer.h"
 522              		.file 8 "C:/Users/stapi/OneDrive/Desktop/GD32VW553/V1_MQTT_OK/GD32VW55X_Wifi_BLE_SDK/GD32VW55x_REL
 523              		.file 9 "C:/Users/stapi/OneDrive/Desktop/GD32VW553/V1_MQTT_OK/GD32VW55X_Wifi_BLE_SDK/GD32VW55x_REL
 524              		.file 10 "..\\..\\..\\..\\cloud\\alicloud\\src\\infra\\utils/iotx_utils.h"
 525              		.file 11 "c:\\users\\stapi\\onedrive\\desktop\\gd32vw553\\embeddedbuilder_v1.4.7.26843\\tools\\nuc
 526              		.file 12 "..\\..\\..\\..\\cloud\\alicloud\\include/iot_import.h"
 527              		.file 13 "c:\\users\\stapi\\onedrive\\desktop\\gd32vw553\\embeddedbuilder_v1.4.7.26843\\tools\\nuc