   1              		.file	"shadow_common.c"
   2              		.option nopic
   3              		.attribute arch, "rv32i2p0_m2p0_a2p0_f2p0_c2p0_b_p0p94"
   4              		.attribute unaligned_access, 0
   5              		.attribute stack_align, 16
   6              		.text
   7              	.Ltext0:
   8              		.cfi_sections	.debug_frame
   9              		.section	.rodata.iotx_ds_common_format_init.str1.4,"aMS",@progbits,1
  10              		.align	2
  11              	.LC0:
  12 0000 6D657468 		.string	"method"
  12      6F6400
  13 0007 00       		.align	2
  14              	.LC1:
  15 0008 7B222573 		.string	"{\"%s\":\"%s\""
  15      223A2225 
  15      732200
  16 0013 00       		.align	2
  17              	.LC2:
  18 0014 2C257300 		.string	",%s"
  19              		.section	.text.iotx_ds_common_format_init,"ax",@progbits
  20              		.align	1
  21              		.globl	iotx_ds_common_format_init
  23              	iotx_ds_common_format_init:
  24              	.LFB20:
  25              		.file 1 "C:/Users/stapi/OneDrive/Desktop/GD32VW553/V1_MQTT_OK/GD32VW55X_Wifi_BLE_SDK/GD32VW55x_REL
   1:C:/Users/stapi/OneDrive/Desktop/GD32VW553/V1_MQTT_OK/GD32VW55X_Wifi_BLE_SDK/GD32VW55x_RELEASE_V1.0.2/MSDK/cloud/alicloud/src/services/shadow\shadow_common.c **** /*
   2:C:/Users/stapi/OneDrive/Desktop/GD32VW553/V1_MQTT_OK/GD32VW55X_Wifi_BLE_SDK/GD32VW55x_RELEASE_V1.0.2/MSDK/cloud/alicloud/src/services/shadow\shadow_common.c ****  * Copyright (C) 2015-2018 Alibaba Group Holding Limited
   3:C:/Users/stapi/OneDrive/Desktop/GD32VW553/V1_MQTT_OK/GD32VW55X_Wifi_BLE_SDK/GD32VW55x_RELEASE_V1.0.2/MSDK/cloud/alicloud/src/services/shadow\shadow_common.c ****  */
   4:C:/Users/stapi/OneDrive/Desktop/GD32VW553/V1_MQTT_OK/GD32VW55X_Wifi_BLE_SDK/GD32VW55x_RELEASE_V1.0.2/MSDK/cloud/alicloud/src/services/shadow\shadow_common.c **** 
   5:C:/Users/stapi/OneDrive/Desktop/GD32VW553/V1_MQTT_OK/GD32VW55X_Wifi_BLE_SDK/GD32VW55x_RELEASE_V1.0.2/MSDK/cloud/alicloud/src/services/shadow\shadow_common.c **** 
   6:C:/Users/stapi/OneDrive/Desktop/GD32VW553/V1_MQTT_OK/GD32VW55X_Wifi_BLE_SDK/GD32VW55x_RELEASE_V1.0.2/MSDK/cloud/alicloud/src/services/shadow\shadow_common.c **** 
   7:C:/Users/stapi/OneDrive/Desktop/GD32VW553/V1_MQTT_OK/GD32VW55X_Wifi_BLE_SDK/GD32VW55x_RELEASE_V1.0.2/MSDK/cloud/alicloud/src/services/shadow\shadow_common.c **** 
   8:C:/Users/stapi/OneDrive/Desktop/GD32VW553/V1_MQTT_OK/GD32VW55X_Wifi_BLE_SDK/GD32VW55x_RELEASE_V1.0.2/MSDK/cloud/alicloud/src/services/shadow\shadow_common.c **** 
   9:C:/Users/stapi/OneDrive/Desktop/GD32VW553/V1_MQTT_OK/GD32VW55X_Wifi_BLE_SDK/GD32VW55x_RELEASE_V1.0.2/MSDK/cloud/alicloud/src/services/shadow\shadow_common.c **** #include "iot_import.h"
  10:C:/Users/stapi/OneDrive/Desktop/GD32VW553/V1_MQTT_OK/GD32VW55X_Wifi_BLE_SDK/GD32VW55x_RELEASE_V1.0.2/MSDK/cloud/alicloud/src/services/shadow\shadow_common.c **** #include "shadow_debug.h"
  11:C:/Users/stapi/OneDrive/Desktop/GD32VW553/V1_MQTT_OK/GD32VW55X_Wifi_BLE_SDK/GD32VW55x_RELEASE_V1.0.2/MSDK/cloud/alicloud/src/services/shadow\shadow_common.c **** #include "iotx_utils.h"
  12:C:/Users/stapi/OneDrive/Desktop/GD32VW553/V1_MQTT_OK/GD32VW55X_Wifi_BLE_SDK/GD32VW55x_RELEASE_V1.0.2/MSDK/cloud/alicloud/src/services/shadow\shadow_common.c **** #include "utils_timer.h"
  13:C:/Users/stapi/OneDrive/Desktop/GD32VW553/V1_MQTT_OK/GD32VW55X_Wifi_BLE_SDK/GD32VW55x_RELEASE_V1.0.2/MSDK/cloud/alicloud/src/services/shadow\shadow_common.c **** #include "utils_list.h"
  14:C:/Users/stapi/OneDrive/Desktop/GD32VW553/V1_MQTT_OK/GD32VW55X_Wifi_BLE_SDK/GD32VW55x_RELEASE_V1.0.2/MSDK/cloud/alicloud/src/services/shadow\shadow_common.c **** #include "iotx_system.h"
  15:C:/Users/stapi/OneDrive/Desktop/GD32VW553/V1_MQTT_OK/GD32VW55X_Wifi_BLE_SDK/GD32VW55x_RELEASE_V1.0.2/MSDK/cloud/alicloud/src/services/shadow\shadow_common.c **** 
  16:C:/Users/stapi/OneDrive/Desktop/GD32VW553/V1_MQTT_OK/GD32VW55X_Wifi_BLE_SDK/GD32VW55x_RELEASE_V1.0.2/MSDK/cloud/alicloud/src/services/shadow\shadow_common.c **** #include "shadow.h"
  17:C:/Users/stapi/OneDrive/Desktop/GD32VW553/V1_MQTT_OK/GD32VW55X_Wifi_BLE_SDK/GD32VW55x_RELEASE_V1.0.2/MSDK/cloud/alicloud/src/services/shadow\shadow_common.c **** #include "shadow_common.h"
  18:C:/Users/stapi/OneDrive/Desktop/GD32VW553/V1_MQTT_OK/GD32VW55X_Wifi_BLE_SDK/GD32VW55x_RELEASE_V1.0.2/MSDK/cloud/alicloud/src/services/shadow\shadow_common.c **** 
  19:C:/Users/stapi/OneDrive/Desktop/GD32VW553/V1_MQTT_OK/GD32VW55X_Wifi_BLE_SDK/GD32VW55x_RELEASE_V1.0.2/MSDK/cloud/alicloud/src/services/shadow\shadow_common.c **** /* check return code */
  20:C:/Users/stapi/OneDrive/Desktop/GD32VW553/V1_MQTT_OK/GD32VW55X_Wifi_BLE_SDK/GD32VW55x_RELEASE_V1.0.2/MSDK/cloud/alicloud/src/services/shadow\shadow_common.c **** #define CHECK_RETURN_CODE(ret_code) \
  21:C:/Users/stapi/OneDrive/Desktop/GD32VW553/V1_MQTT_OK/GD32VW55X_Wifi_BLE_SDK/GD32VW55x_RELEASE_V1.0.2/MSDK/cloud/alicloud/src/services/shadow\shadow_common.c ****     do{ \
  22:C:/Users/stapi/OneDrive/Desktop/GD32VW553/V1_MQTT_OK/GD32VW55X_Wifi_BLE_SDK/GD32VW55x_RELEASE_V1.0.2/MSDK/cloud/alicloud/src/services/shadow\shadow_common.c ****         if (ret_code < 0) { \
  23:C:/Users/stapi/OneDrive/Desktop/GD32VW553/V1_MQTT_OK/GD32VW55X_Wifi_BLE_SDK/GD32VW55x_RELEASE_V1.0.2/MSDK/cloud/alicloud/src/services/shadow\shadow_common.c ****             return ret_code; \
  24:C:/Users/stapi/OneDrive/Desktop/GD32VW553/V1_MQTT_OK/GD32VW55X_Wifi_BLE_SDK/GD32VW55x_RELEASE_V1.0.2/MSDK/cloud/alicloud/src/services/shadow\shadow_common.c ****         } \
  25:C:/Users/stapi/OneDrive/Desktop/GD32VW553/V1_MQTT_OK/GD32VW55X_Wifi_BLE_SDK/GD32VW55x_RELEASE_V1.0.2/MSDK/cloud/alicloud/src/services/shadow\shadow_common.c ****     }while(0);
  26:C:/Users/stapi/OneDrive/Desktop/GD32VW553/V1_MQTT_OK/GD32VW55X_Wifi_BLE_SDK/GD32VW55x_RELEASE_V1.0.2/MSDK/cloud/alicloud/src/services/shadow\shadow_common.c **** 
  27:C:/Users/stapi/OneDrive/Desktop/GD32VW553/V1_MQTT_OK/GD32VW55X_Wifi_BLE_SDK/GD32VW55x_RELEASE_V1.0.2/MSDK/cloud/alicloud/src/services/shadow\shadow_common.c **** 
  28:C:/Users/stapi/OneDrive/Desktop/GD32VW553/V1_MQTT_OK/GD32VW55X_Wifi_BLE_SDK/GD32VW55x_RELEASE_V1.0.2/MSDK/cloud/alicloud/src/services/shadow\shadow_common.c **** /* check return code of HAL_Snprintf */
  29:C:/Users/stapi/OneDrive/Desktop/GD32VW553/V1_MQTT_OK/GD32VW55X_Wifi_BLE_SDK/GD32VW55x_RELEASE_V1.0.2/MSDK/cloud/alicloud/src/services/shadow\shadow_common.c **** #define CHECK_SNPRINTF_RET(ret_code, buf_len) \
  30:C:/Users/stapi/OneDrive/Desktop/GD32VW553/V1_MQTT_OK/GD32VW55X_Wifi_BLE_SDK/GD32VW55x_RELEASE_V1.0.2/MSDK/cloud/alicloud/src/services/shadow\shadow_common.c ****     do{ \
  31:C:/Users/stapi/OneDrive/Desktop/GD32VW553/V1_MQTT_OK/GD32VW55X_Wifi_BLE_SDK/GD32VW55x_RELEASE_V1.0.2/MSDK/cloud/alicloud/src/services/shadow\shadow_common.c ****         if ((ret_code) < 0) { \
  32:C:/Users/stapi/OneDrive/Desktop/GD32VW553/V1_MQTT_OK/GD32VW55X_Wifi_BLE_SDK/GD32VW55x_RELEASE_V1.0.2/MSDK/cloud/alicloud/src/services/shadow\shadow_common.c ****             return FAIL_RETURN; \
  33:C:/Users/stapi/OneDrive/Desktop/GD32VW553/V1_MQTT_OK/GD32VW55X_Wifi_BLE_SDK/GD32VW55x_RELEASE_V1.0.2/MSDK/cloud/alicloud/src/services/shadow\shadow_common.c ****         } else if ((ret_code) >= (buf_len)) { \
  34:C:/Users/stapi/OneDrive/Desktop/GD32VW553/V1_MQTT_OK/GD32VW55X_Wifi_BLE_SDK/GD32VW55x_RELEASE_V1.0.2/MSDK/cloud/alicloud/src/services/shadow\shadow_common.c ****             return ERROR_NO_ENOUGH_MEM; \
  35:C:/Users/stapi/OneDrive/Desktop/GD32VW553/V1_MQTT_OK/GD32VW55X_Wifi_BLE_SDK/GD32VW55x_RELEASE_V1.0.2/MSDK/cloud/alicloud/src/services/shadow\shadow_common.c ****         } \
  36:C:/Users/stapi/OneDrive/Desktop/GD32VW553/V1_MQTT_OK/GD32VW55X_Wifi_BLE_SDK/GD32VW55x_RELEASE_V1.0.2/MSDK/cloud/alicloud/src/services/shadow\shadow_common.c ****     }while(0);
  37:C:/Users/stapi/OneDrive/Desktop/GD32VW553/V1_MQTT_OK/GD32VW55X_Wifi_BLE_SDK/GD32VW55x_RELEASE_V1.0.2/MSDK/cloud/alicloud/src/services/shadow\shadow_common.c **** 
  38:C:/Users/stapi/OneDrive/Desktop/GD32VW553/V1_MQTT_OK/GD32VW55X_Wifi_BLE_SDK/GD32VW55x_RELEASE_V1.0.2/MSDK/cloud/alicloud/src/services/shadow\shadow_common.c **** 
  39:C:/Users/stapi/OneDrive/Desktop/GD32VW553/V1_MQTT_OK/GD32VW55X_Wifi_BLE_SDK/GD32VW55x_RELEASE_V1.0.2/MSDK/cloud/alicloud/src/services/shadow\shadow_common.c **** /* return handle of format data. */
  40:C:/Users/stapi/OneDrive/Desktop/GD32VW553/V1_MQTT_OK/GD32VW55X_Wifi_BLE_SDK/GD32VW55x_RELEASE_V1.0.2/MSDK/cloud/alicloud/src/services/shadow\shadow_common.c **** iotx_err_t iotx_ds_common_format_init(iotx_shadow_pt pshadow,
  41:C:/Users/stapi/OneDrive/Desktop/GD32VW553/V1_MQTT_OK/GD32VW55X_Wifi_BLE_SDK/GD32VW55x_RELEASE_V1.0.2/MSDK/cloud/alicloud/src/services/shadow\shadow_common.c ****                                       format_data_pt pformat,
  42:C:/Users/stapi/OneDrive/Desktop/GD32VW553/V1_MQTT_OK/GD32VW55X_Wifi_BLE_SDK/GD32VW55x_RELEASE_V1.0.2/MSDK/cloud/alicloud/src/services/shadow\shadow_common.c ****                                       char *buf,
  43:C:/Users/stapi/OneDrive/Desktop/GD32VW553/V1_MQTT_OK/GD32VW55X_Wifi_BLE_SDK/GD32VW55x_RELEASE_V1.0.2/MSDK/cloud/alicloud/src/services/shadow\shadow_common.c ****                                       uint16_t size,
  44:C:/Users/stapi/OneDrive/Desktop/GD32VW553/V1_MQTT_OK/GD32VW55X_Wifi_BLE_SDK/GD32VW55x_RELEASE_V1.0.2/MSDK/cloud/alicloud/src/services/shadow\shadow_common.c ****                                       const char *method,
  45:C:/Users/stapi/OneDrive/Desktop/GD32VW553/V1_MQTT_OK/GD32VW55X_Wifi_BLE_SDK/GD32VW55x_RELEASE_V1.0.2/MSDK/cloud/alicloud/src/services/shadow\shadow_common.c ****                                       const char *head_str)
  46:C:/Users/stapi/OneDrive/Desktop/GD32VW553/V1_MQTT_OK/GD32VW55X_Wifi_BLE_SDK/GD32VW55x_RELEASE_V1.0.2/MSDK/cloud/alicloud/src/services/shadow\shadow_common.c **** {
  26              		.loc 1 46 1
  27              		.cfi_startproc
  28              	.LVL0:
  29 0000 17030000 		call	t0,__riscv_save_4
  29      E7020300 
  30              		.cfi_offset 19, -20
  31              		.cfi_offset 18, -16
  32              		.cfi_offset 9, -12
  33              		.cfi_offset 8, -8
  34              		.cfi_offset 1, -4
  35              		.cfi_def_cfa_offset 32
  47:C:/Users/stapi/OneDrive/Desktop/GD32VW553/V1_MQTT_OK/GD32VW55X_Wifi_BLE_SDK/GD32VW55x_RELEASE_V1.0.2/MSDK/cloud/alicloud/src/services/shadow\shadow_common.c ****     int ret;
  36              		.loc 1 47 5
  48:C:/Users/stapi/OneDrive/Desktop/GD32VW553/V1_MQTT_OK/GD32VW55X_Wifi_BLE_SDK/GD32VW55x_RELEASE_V1.0.2/MSDK/cloud/alicloud/src/services/shadow\shadow_common.c ****     uint32_t size_free_space;
  37              		.loc 1 48 5
  49:C:/Users/stapi/OneDrive/Desktop/GD32VW553/V1_MQTT_OK/GD32VW55X_Wifi_BLE_SDK/GD32VW55x_RELEASE_V1.0.2/MSDK/cloud/alicloud/src/services/shadow\shadow_common.c ****     memset(pformat, 0, sizeof(format_data_t));
  38              		.loc 1 49 5
  46:C:/Users/stapi/OneDrive/Desktop/GD32VW553/V1_MQTT_OK/GD32VW55X_Wifi_BLE_SDK/GD32VW55x_RELEASE_V1.0.2/MSDK/cloud/alicloud/src/services/shadow\shadow_common.c ****     int ret;
  39              		.loc 1 46 1 is_stmt 0
  40 0008 2E84     		mv	s0,a1
  41 000a 4111     		addi	sp,sp,-16
  42              		.cfi_def_cfa_offset 48
  46:C:/Users/stapi/OneDrive/Desktop/GD32VW553/V1_MQTT_OK/GD32VW55X_Wifi_BLE_SDK/GD32VW55x_RELEASE_V1.0.2/MSDK/cloud/alicloud/src/services/shadow\shadow_common.c ****     int ret;
  43              		.loc 1 46 1
  44 000c B289     		mv	s3,a2
  45              		.loc 1 49 5
  46 000e 8145     		li	a1,0
  47              	.LVL1:
  48 0010 4146     		li	a2,16
  49              	.LVL2:
  50 0012 2285     		mv	a0,s0
  51              	.LVL3:
  46:C:/Users/stapi/OneDrive/Desktop/GD32VW553/V1_MQTT_OK/GD32VW55X_Wifi_BLE_SDK/GD32VW55x_RELEASE_V1.0.2/MSDK/cloud/alicloud/src/services/shadow\shadow_common.c ****     int ret;
  52              		.loc 1 46 1
  53 0014 B684     		mv	s1,a3
  54 0016 3AC6     		sw	a4,12(sp)
  55 0018 3E89     		mv	s2,a5
  56              		.loc 1 49 5
  57 001a 97000000 		call	memset
  57      E7800000 
  58              	.LVL4:
  50:C:/Users/stapi/OneDrive/Desktop/GD32VW553/V1_MQTT_OK/GD32VW55X_Wifi_BLE_SDK/GD32VW55x_RELEASE_V1.0.2/MSDK/cloud/alicloud/src/services/shadow\shadow_common.c **** 
  51:C:/Users/stapi/OneDrive/Desktop/GD32VW553/V1_MQTT_OK/GD32VW55X_Wifi_BLE_SDK/GD32VW55x_RELEASE_V1.0.2/MSDK/cloud/alicloud/src/services/shadow\shadow_common.c ****     pformat->buf = buf;
  59              		.loc 1 51 5 is_stmt 1
  52:C:/Users/stapi/OneDrive/Desktop/GD32VW553/V1_MQTT_OK/GD32VW55X_Wifi_BLE_SDK/GD32VW55x_RELEASE_V1.0.2/MSDK/cloud/alicloud/src/services/shadow\shadow_common.c ****     pformat->buf_size = size;
  53:C:/Users/stapi/OneDrive/Desktop/GD32VW553/V1_MQTT_OK/GD32VW55X_Wifi_BLE_SDK/GD32VW55x_RELEASE_V1.0.2/MSDK/cloud/alicloud/src/services/shadow\shadow_common.c **** 
  54:C:/Users/stapi/OneDrive/Desktop/GD32VW553/V1_MQTT_OK/GD32VW55X_Wifi_BLE_SDK/GD32VW55x_RELEASE_V1.0.2/MSDK/cloud/alicloud/src/services/shadow\shadow_common.c ****     if (NULL == method) {
  60              		.loc 1 54 8 is_stmt 0
  61 0022 3247     		lw	a4,12(sp)
  51:C:/Users/stapi/OneDrive/Desktop/GD32VW553/V1_MQTT_OK/GD32VW55X_Wifi_BLE_SDK/GD32VW55x_RELEASE_V1.0.2/MSDK/cloud/alicloud/src/services/shadow\shadow_common.c ****     pformat->buf_size = size;
  62              		.loc 1 51 18
  63 0024 23263401 		sw	s3,12(s0)
  52:C:/Users/stapi/OneDrive/Desktop/GD32VW553/V1_MQTT_OK/GD32VW55X_Wifi_BLE_SDK/GD32VW55x_RELEASE_V1.0.2/MSDK/cloud/alicloud/src/services/shadow\shadow_common.c ****     pformat->buf_size = size;
  64              		.loc 1 52 5 is_stmt 1
  52:C:/Users/stapi/OneDrive/Desktop/GD32VW553/V1_MQTT_OK/GD32VW55X_Wifi_BLE_SDK/GD32VW55x_RELEASE_V1.0.2/MSDK/cloud/alicloud/src/services/shadow\shadow_common.c ****     pformat->buf_size = size;
  65              		.loc 1 52 23 is_stmt 0
  66 0028 44C0     		sw	s1,4(s0)
  67              		.loc 1 54 5 is_stmt 1
  55:C:/Users/stapi/OneDrive/Desktop/GD32VW553/V1_MQTT_OK/GD32VW55X_Wifi_BLE_SDK/GD32VW55x_RELEASE_V1.0.2/MSDK/cloud/alicloud/src/services/shadow\shadow_common.c ****         return ERROR_SHADOW_NO_METHOD;
  68              		.loc 1 55 16 is_stmt 0
  69 002a 13058082 		li	a0,-2008
  54:C:/Users/stapi/OneDrive/Desktop/GD32VW553/V1_MQTT_OK/GD32VW55X_Wifi_BLE_SDK/GD32VW55x_RELEASE_V1.0.2/MSDK/cloud/alicloud/src/services/shadow\shadow_common.c ****         return ERROR_SHADOW_NO_METHOD;
  70              		.loc 1 54 8
  71 002e 15C3     		beq	a4,zero,.L1
  56:C:/Users/stapi/OneDrive/Desktop/GD32VW553/V1_MQTT_OK/GD32VW55X_Wifi_BLE_SDK/GD32VW55x_RELEASE_V1.0.2/MSDK/cloud/alicloud/src/services/shadow\shadow_common.c ****     }
  57:C:/Users/stapi/OneDrive/Desktop/GD32VW553/V1_MQTT_OK/GD32VW55X_Wifi_BLE_SDK/GD32VW55x_RELEASE_V1.0.2/MSDK/cloud/alicloud/src/services/shadow\shadow_common.c **** 
  58:C:/Users/stapi/OneDrive/Desktop/GD32VW553/V1_MQTT_OK/GD32VW55X_Wifi_BLE_SDK/GD32VW55x_RELEASE_V1.0.2/MSDK/cloud/alicloud/src/services/shadow\shadow_common.c ****     size_free_space = pformat->buf_size;
  72              		.loc 1 58 5 is_stmt 1
  73              	.LVL5:
  59:C:/Users/stapi/OneDrive/Desktop/GD32VW553/V1_MQTT_OK/GD32VW55X_Wifi_BLE_SDK/GD32VW55x_RELEASE_V1.0.2/MSDK/cloud/alicloud/src/services/shadow\shadow_common.c **** 
  60:C:/Users/stapi/OneDrive/Desktop/GD32VW553/V1_MQTT_OK/GD32VW55X_Wifi_BLE_SDK/GD32VW55x_RELEASE_V1.0.2/MSDK/cloud/alicloud/src/services/shadow\shadow_common.c ****     ret = HAL_Snprintf(pformat->buf,
  74              		.loc 1 60 5
  75              		.loc 1 60 11 is_stmt 0
  76 0030 B7060000 		lui	a3,%hi(.LC0)
  77 0034 37060000 		lui	a2,%hi(.LC1)
  78 0038 93860600 		addi	a3,a3,%lo(.LC0)
  79 003c 13060600 		addi	a2,a2,%lo(.LC1)
  80 0040 A685     		mv	a1,s1
  81 0042 4E85     		mv	a0,s3
  82 0044 97000000 		call	HAL_Snprintf
  82      E7800000 
  83              	.LVL6:
  61:C:/Users/stapi/OneDrive/Desktop/GD32VW553/V1_MQTT_OK/GD32VW55X_Wifi_BLE_SDK/GD32VW55x_RELEASE_V1.0.2/MSDK/cloud/alicloud/src/services/shadow\shadow_common.c ****                        size_free_space,
  62:C:/Users/stapi/OneDrive/Desktop/GD32VW553/V1_MQTT_OK/GD32VW55X_Wifi_BLE_SDK/GD32VW55x_RELEASE_V1.0.2/MSDK/cloud/alicloud/src/services/shadow\shadow_common.c ****                        "{\"%s\":\"%s\"",
  63:C:/Users/stapi/OneDrive/Desktop/GD32VW553/V1_MQTT_OK/GD32VW55X_Wifi_BLE_SDK/GD32VW55x_RELEASE_V1.0.2/MSDK/cloud/alicloud/src/services/shadow\shadow_common.c ****                        "method",
  64:C:/Users/stapi/OneDrive/Desktop/GD32VW553/V1_MQTT_OK/GD32VW55X_Wifi_BLE_SDK/GD32VW55x_RELEASE_V1.0.2/MSDK/cloud/alicloud/src/services/shadow\shadow_common.c ****                        method);
  65:C:/Users/stapi/OneDrive/Desktop/GD32VW553/V1_MQTT_OK/GD32VW55X_Wifi_BLE_SDK/GD32VW55x_RELEASE_V1.0.2/MSDK/cloud/alicloud/src/services/shadow\shadow_common.c **** 
  66:C:/Users/stapi/OneDrive/Desktop/GD32VW553/V1_MQTT_OK/GD32VW55X_Wifi_BLE_SDK/GD32VW55x_RELEASE_V1.0.2/MSDK/cloud/alicloud/src/services/shadow\shadow_common.c ****     CHECK_SNPRINTF_RET(ret, size_free_space);
  84              		.loc 1 66 5 is_stmt 1
  85              		.loc 1 66 5
  86 004c 63580500 		bge	a0,zero,.L3
  87              	.LVL7:
  88              	.L6:
  89 0050 7D55     		li	a0,-1
  90              	.LVL8:
  91              	.L1:
  67:C:/Users/stapi/OneDrive/Desktop/GD32VW553/V1_MQTT_OK/GD32VW55X_Wifi_BLE_SDK/GD32VW55x_RELEASE_V1.0.2/MSDK/cloud/alicloud/src/services/shadow\shadow_common.c ****     pformat->offset = ret;
  68:C:/Users/stapi/OneDrive/Desktop/GD32VW553/V1_MQTT_OK/GD32VW55X_Wifi_BLE_SDK/GD32VW55x_RELEASE_V1.0.2/MSDK/cloud/alicloud/src/services/shadow\shadow_common.c **** 
  69:C:/Users/stapi/OneDrive/Desktop/GD32VW553/V1_MQTT_OK/GD32VW55X_Wifi_BLE_SDK/GD32VW55x_RELEASE_V1.0.2/MSDK/cloud/alicloud/src/services/shadow\shadow_common.c **** 
  70:C:/Users/stapi/OneDrive/Desktop/GD32VW553/V1_MQTT_OK/GD32VW55X_Wifi_BLE_SDK/GD32VW55x_RELEASE_V1.0.2/MSDK/cloud/alicloud/src/services/shadow\shadow_common.c ****     /* copy the JOSN head */
  71:C:/Users/stapi/OneDrive/Desktop/GD32VW553/V1_MQTT_OK/GD32VW55X_Wifi_BLE_SDK/GD32VW55x_RELEASE_V1.0.2/MSDK/cloud/alicloud/src/services/shadow\shadow_common.c ****     size_free_space = pformat->buf_size - pformat->offset;
  72:C:/Users/stapi/OneDrive/Desktop/GD32VW553/V1_MQTT_OK/GD32VW55X_Wifi_BLE_SDK/GD32VW55x_RELEASE_V1.0.2/MSDK/cloud/alicloud/src/services/shadow\shadow_common.c ****     if (NULL != head_str) {
  73:C:/Users/stapi/OneDrive/Desktop/GD32VW553/V1_MQTT_OK/GD32VW55X_Wifi_BLE_SDK/GD32VW55x_RELEASE_V1.0.2/MSDK/cloud/alicloud/src/services/shadow\shadow_common.c ****         ret = HAL_Snprintf(pformat->buf + pformat->offset,
  74:C:/Users/stapi/OneDrive/Desktop/GD32VW553/V1_MQTT_OK/GD32VW55X_Wifi_BLE_SDK/GD32VW55x_RELEASE_V1.0.2/MSDK/cloud/alicloud/src/services/shadow\shadow_common.c ****                            size_free_space,
  75:C:/Users/stapi/OneDrive/Desktop/GD32VW553/V1_MQTT_OK/GD32VW55X_Wifi_BLE_SDK/GD32VW55x_RELEASE_V1.0.2/MSDK/cloud/alicloud/src/services/shadow\shadow_common.c ****                            ",%s",
  76:C:/Users/stapi/OneDrive/Desktop/GD32VW553/V1_MQTT_OK/GD32VW55X_Wifi_BLE_SDK/GD32VW55x_RELEASE_V1.0.2/MSDK/cloud/alicloud/src/services/shadow\shadow_common.c ****                            head_str);
  77:C:/Users/stapi/OneDrive/Desktop/GD32VW553/V1_MQTT_OK/GD32VW55X_Wifi_BLE_SDK/GD32VW55x_RELEASE_V1.0.2/MSDK/cloud/alicloud/src/services/shadow\shadow_common.c ****         CHECK_SNPRINTF_RET(ret, size_free_space);
  78:C:/Users/stapi/OneDrive/Desktop/GD32VW553/V1_MQTT_OK/GD32VW55X_Wifi_BLE_SDK/GD32VW55x_RELEASE_V1.0.2/MSDK/cloud/alicloud/src/services/shadow\shadow_common.c ****         pformat->offset += ret;
  79:C:/Users/stapi/OneDrive/Desktop/GD32VW553/V1_MQTT_OK/GD32VW55X_Wifi_BLE_SDK/GD32VW55x_RELEASE_V1.0.2/MSDK/cloud/alicloud/src/services/shadow\shadow_common.c ****     }
  80:C:/Users/stapi/OneDrive/Desktop/GD32VW553/V1_MQTT_OK/GD32VW55X_Wifi_BLE_SDK/GD32VW55x_RELEASE_V1.0.2/MSDK/cloud/alicloud/src/services/shadow\shadow_common.c **** 
  81:C:/Users/stapi/OneDrive/Desktop/GD32VW553/V1_MQTT_OK/GD32VW55X_Wifi_BLE_SDK/GD32VW55x_RELEASE_V1.0.2/MSDK/cloud/alicloud/src/services/shadow\shadow_common.c ****     pformat->flag_new = IOT_TRUE;
  82:C:/Users/stapi/OneDrive/Desktop/GD32VW553/V1_MQTT_OK/GD32VW55X_Wifi_BLE_SDK/GD32VW55x_RELEASE_V1.0.2/MSDK/cloud/alicloud/src/services/shadow\shadow_common.c **** 
  83:C:/Users/stapi/OneDrive/Desktop/GD32VW553/V1_MQTT_OK/GD32VW55X_Wifi_BLE_SDK/GD32VW55x_RELEASE_V1.0.2/MSDK/cloud/alicloud/src/services/shadow\shadow_common.c ****     return SUCCESS_RETURN;
  84:C:/Users/stapi/OneDrive/Desktop/GD32VW553/V1_MQTT_OK/GD32VW55X_Wifi_BLE_SDK/GD32VW55x_RELEASE_V1.0.2/MSDK/cloud/alicloud/src/services/shadow\shadow_common.c **** }
  92              		.loc 1 84 1 is_stmt 0
  93 0052 4101     		addi	sp,sp,16
  94              		.cfi_remember_state
  95              		.cfi_def_cfa_offset 0
  96              	.LVL9:
  97 0054 17030000 		tail	__riscv_restore_4
  97      67000300 
  98              		.cfi_restore 19
  99              		.cfi_restore 18
 100              		.cfi_restore 9
 101              		.cfi_restore 8
 102              		.cfi_restore 1
 103              		.cfi_def_cfa_offset -32
 104              	.LVL10:
 105              	.L3:
 106              		.cfi_restore_state
  66:C:/Users/stapi/OneDrive/Desktop/GD32VW553/V1_MQTT_OK/GD32VW55X_Wifi_BLE_SDK/GD32VW55x_RELEASE_V1.0.2/MSDK/cloud/alicloud/src/services/shadow\shadow_common.c ****     pformat->offset = ret;
 107              		.loc 1 66 5 is_stmt 1 discriminator 2
 108 005c 63659500 		bgtu	s1,a0,.L4
 109              	.LVL11:
 110              	.L7:
  66:C:/Users/stapi/OneDrive/Desktop/GD32VW553/V1_MQTT_OK/GD32VW55X_Wifi_BLE_SDK/GD32VW55x_RELEASE_V1.0.2/MSDK/cloud/alicloud/src/services/shadow\shadow_common.c ****     pformat->offset = ret;
 111              		.loc 1 66 5 is_stmt 0
 112 0060 1305B0C0 		li	a0,-1013
 113              	.LVL12:
 114 0064 FDB7     		j	.L1
 115              	.LVL13:
 116              	.L4:
  66:C:/Users/stapi/OneDrive/Desktop/GD32VW553/V1_MQTT_OK/GD32VW55X_Wifi_BLE_SDK/GD32VW55x_RELEASE_V1.0.2/MSDK/cloud/alicloud/src/services/shadow\shadow_common.c ****     pformat->offset = ret;
 117              		.loc 1 66 5 is_stmt 1 discriminator 4
  66:C:/Users/stapi/OneDrive/Desktop/GD32VW553/V1_MQTT_OK/GD32VW55X_Wifi_BLE_SDK/GD32VW55x_RELEASE_V1.0.2/MSDK/cloud/alicloud/src/services/shadow\shadow_common.c ****     pformat->offset = ret;
 118              		.loc 1 66 45 discriminator 4
  67:C:/Users/stapi/OneDrive/Desktop/GD32VW553/V1_MQTT_OK/GD32VW55X_Wifi_BLE_SDK/GD32VW55x_RELEASE_V1.0.2/MSDK/cloud/alicloud/src/services/shadow\shadow_common.c ****     pformat->offset = ret;
 119              		.loc 1 67 5 discriminator 4
  67:C:/Users/stapi/OneDrive/Desktop/GD32VW553/V1_MQTT_OK/GD32VW55X_Wifi_BLE_SDK/GD32VW55x_RELEASE_V1.0.2/MSDK/cloud/alicloud/src/services/shadow\shadow_common.c ****     pformat->offset = ret;
 120              		.loc 1 67 21 is_stmt 0 discriminator 4
 121 0066 08C4     		sw	a0,8(s0)
  71:C:/Users/stapi/OneDrive/Desktop/GD32VW553/V1_MQTT_OK/GD32VW55X_Wifi_BLE_SDK/GD32VW55x_RELEASE_V1.0.2/MSDK/cloud/alicloud/src/services/shadow\shadow_common.c ****     if (NULL != head_str) {
 122              		.loc 1 71 5 is_stmt 1 discriminator 4
 123              	.LVL14:
  72:C:/Users/stapi/OneDrive/Desktop/GD32VW553/V1_MQTT_OK/GD32VW55X_Wifi_BLE_SDK/GD32VW55x_RELEASE_V1.0.2/MSDK/cloud/alicloud/src/services/shadow\shadow_common.c ****         ret = HAL_Snprintf(pformat->buf + pformat->offset,
 124              		.loc 1 72 5 discriminator 4
  72:C:/Users/stapi/OneDrive/Desktop/GD32VW553/V1_MQTT_OK/GD32VW55X_Wifi_BLE_SDK/GD32VW55x_RELEASE_V1.0.2/MSDK/cloud/alicloud/src/services/shadow\shadow_common.c ****         ret = HAL_Snprintf(pformat->buf + pformat->offset,
 125              		.loc 1 72 8 is_stmt 0 discriminator 4
 126 0068 63070902 		beq	s2,zero,.L5
 127              	.LVL15:
  71:C:/Users/stapi/OneDrive/Desktop/GD32VW553/V1_MQTT_OK/GD32VW55X_Wifi_BLE_SDK/GD32VW55x_RELEASE_V1.0.2/MSDK/cloud/alicloud/src/services/shadow\shadow_common.c ****     if (NULL != head_str) {
 128              		.loc 1 71 21
 129 006c 4440     		lw	s1,4(s0)
  73:C:/Users/stapi/OneDrive/Desktop/GD32VW553/V1_MQTT_OK/GD32VW55X_Wifi_BLE_SDK/GD32VW55x_RELEASE_V1.0.2/MSDK/cloud/alicloud/src/services/shadow\shadow_common.c ****                            size_free_space,
 130              		.loc 1 73 15
 131 006e 5C44     		lw	a5,12(s0)
 132 0070 37060000 		lui	a2,%hi(.LC2)
  71:C:/Users/stapi/OneDrive/Desktop/GD32VW553/V1_MQTT_OK/GD32VW55X_Wifi_BLE_SDK/GD32VW55x_RELEASE_V1.0.2/MSDK/cloud/alicloud/src/services/shadow\shadow_common.c ****     if (NULL != head_str) {
 133              		.loc 1 71 21
 134 0074 898C     		sub	s1,s1,a0
  73:C:/Users/stapi/OneDrive/Desktop/GD32VW553/V1_MQTT_OK/GD32VW55X_Wifi_BLE_SDK/GD32VW55x_RELEASE_V1.0.2/MSDK/cloud/alicloud/src/services/shadow\shadow_common.c ****                            size_free_space,
 135              		.loc 1 73 9 is_stmt 1
  73:C:/Users/stapi/OneDrive/Desktop/GD32VW553/V1_MQTT_OK/GD32VW55X_Wifi_BLE_SDK/GD32VW55x_RELEASE_V1.0.2/MSDK/cloud/alicloud/src/services/shadow\shadow_common.c ****                            size_free_space,
 136              		.loc 1 73 15 is_stmt 0
 137 0076 CA86     		mv	a3,s2
 138 0078 13060600 		addi	a2,a2,%lo(.LC2)
 139 007c A685     		mv	a1,s1
 140 007e 3E95     		add	a0,a5,a0
 141              	.LVL16:
 142 0080 97000000 		call	HAL_Snprintf
 142      E7800000 
 143              	.LVL17:
  77:C:/Users/stapi/OneDrive/Desktop/GD32VW553/V1_MQTT_OK/GD32VW55X_Wifi_BLE_SDK/GD32VW55x_RELEASE_V1.0.2/MSDK/cloud/alicloud/src/services/shadow\shadow_common.c ****         pformat->offset += ret;
 144              		.loc 1 77 9 is_stmt 1
  77:C:/Users/stapi/OneDrive/Desktop/GD32VW553/V1_MQTT_OK/GD32VW55X_Wifi_BLE_SDK/GD32VW55x_RELEASE_V1.0.2/MSDK/cloud/alicloud/src/services/shadow\shadow_common.c ****         pformat->offset += ret;
 145              		.loc 1 77 9
 146 0088 E34405FC 		blt	a0,zero,.L6
  77:C:/Users/stapi/OneDrive/Desktop/GD32VW553/V1_MQTT_OK/GD32VW55X_Wifi_BLE_SDK/GD32VW55x_RELEASE_V1.0.2/MSDK/cloud/alicloud/src/services/shadow\shadow_common.c ****         pformat->offset += ret;
 147              		.loc 1 77 9 discriminator 2
 148 008c E37A95FC 		bgeu	a0,s1,.L7
  77:C:/Users/stapi/OneDrive/Desktop/GD32VW553/V1_MQTT_OK/GD32VW55X_Wifi_BLE_SDK/GD32VW55x_RELEASE_V1.0.2/MSDK/cloud/alicloud/src/services/shadow\shadow_common.c ****         pformat->offset += ret;
 149              		.loc 1 77 9 discriminator 4
  77:C:/Users/stapi/OneDrive/Desktop/GD32VW553/V1_MQTT_OK/GD32VW55X_Wifi_BLE_SDK/GD32VW55x_RELEASE_V1.0.2/MSDK/cloud/alicloud/src/services/shadow\shadow_common.c ****         pformat->offset += ret;
 150              		.loc 1 77 49 discriminator 4
  78:C:/Users/stapi/OneDrive/Desktop/GD32VW553/V1_MQTT_OK/GD32VW55X_Wifi_BLE_SDK/GD32VW55x_RELEASE_V1.0.2/MSDK/cloud/alicloud/src/services/shadow\shadow_common.c ****     }
 151              		.loc 1 78 9 discriminator 4
  78:C:/Users/stapi/OneDrive/Desktop/GD32VW553/V1_MQTT_OK/GD32VW55X_Wifi_BLE_SDK/GD32VW55x_RELEASE_V1.0.2/MSDK/cloud/alicloud/src/services/shadow\shadow_common.c ****     }
 152              		.loc 1 78 25 is_stmt 0 discriminator 4
 153 0090 1C44     		lw	a5,8(s0)
 154 0092 3E95     		add	a0,a5,a0
 155              	.LVL18:
 156 0094 08C4     		sw	a0,8(s0)
 157              	.L5:
  81:C:/Users/stapi/OneDrive/Desktop/GD32VW553/V1_MQTT_OK/GD32VW55X_Wifi_BLE_SDK/GD32VW55x_RELEASE_V1.0.2/MSDK/cloud/alicloud/src/services/shadow\shadow_common.c **** 
 158              		.loc 1 81 5 is_stmt 1
  81:C:/Users/stapi/OneDrive/Desktop/GD32VW553/V1_MQTT_OK/GD32VW55X_Wifi_BLE_SDK/GD32VW55x_RELEASE_V1.0.2/MSDK/cloud/alicloud/src/services/shadow\shadow_common.c **** 
 159              		.loc 1 81 23 is_stmt 0
 160 0096 8547     		li	a5,1
 161 0098 1CC0     		sw	a5,0(s0)
  83:C:/Users/stapi/OneDrive/Desktop/GD32VW553/V1_MQTT_OK/GD32VW55X_Wifi_BLE_SDK/GD32VW55x_RELEASE_V1.0.2/MSDK/cloud/alicloud/src/services/shadow\shadow_common.c **** }
 162              		.loc 1 83 5 is_stmt 1
  83:C:/Users/stapi/OneDrive/Desktop/GD32VW553/V1_MQTT_OK/GD32VW55X_Wifi_BLE_SDK/GD32VW55x_RELEASE_V1.0.2/MSDK/cloud/alicloud/src/services/shadow\shadow_common.c **** }
 163              		.loc 1 83 12 is_stmt 0
 164 009a 0145     		li	a0,0
 165 009c 5DBF     		j	.L1
 166              		.cfi_endproc
 167              	.LFE20:
 169              		.section	.rodata.iotx_ds_common_convert_data2string.str1.4,"aMS",@progbits,1
 170              		.align	2
 171              	.LC3:
 172 0000 256C6900 		.string	"%li"
 173              		.align	2
 174              	.LC4:
 175 0004 22257322 		.string	"\"%s\""
 175      00
 176 0009 000000   		.align	2
 177              	.LC5:
 178 000c 226E756C 		.string	"\"null\""
 178      6C2200
 179 0013 00       		.align	2
 180              	.LC6:
 181 0014 257300   		.string	"%s"
 182 0017 00       		.align	2
 183              	.LC7:
 184 0018 5B657272 		.string	"[err] "
 184      5D2000
 185 001f 00       		.align	2
 186              	.LC8:
 187 0020 4572726F 		.string	"Error data type"
 187      72206461 
 187      74612074 
 187      79706500 
 188              		.align	2
 189              	.LC9:
 190 0030 0D0A00   		.string	"\r\n"
 191              		.section	.text.iotx_ds_common_convert_data2string,"ax",@progbits
 192              		.align	1
 193              		.globl	iotx_ds_common_convert_data2string
 195              	iotx_ds_common_convert_data2string:
 196              	.LFB23:
  85:C:/Users/stapi/OneDrive/Desktop/GD32VW553/V1_MQTT_OK/GD32VW55X_Wifi_BLE_SDK/GD32VW55x_RELEASE_V1.0.2/MSDK/cloud/alicloud/src/services/shadow\shadow_common.c **** 
  86:C:/Users/stapi/OneDrive/Desktop/GD32VW553/V1_MQTT_OK/GD32VW55X_Wifi_BLE_SDK/GD32VW55x_RELEASE_V1.0.2/MSDK/cloud/alicloud/src/services/shadow\shadow_common.c **** 
  87:C:/Users/stapi/OneDrive/Desktop/GD32VW553/V1_MQTT_OK/GD32VW55X_Wifi_BLE_SDK/GD32VW55x_RELEASE_V1.0.2/MSDK/cloud/alicloud/src/services/shadow\shadow_common.c **** iotx_err_t iotx_ds_common_format_add(iotx_shadow_pt pshadow,
  88:C:/Users/stapi/OneDrive/Desktop/GD32VW553/V1_MQTT_OK/GD32VW55X_Wifi_BLE_SDK/GD32VW55x_RELEASE_V1.0.2/MSDK/cloud/alicloud/src/services/shadow\shadow_common.c ****                                      format_data_pt pformat,
  89:C:/Users/stapi/OneDrive/Desktop/GD32VW553/V1_MQTT_OK/GD32VW55X_Wifi_BLE_SDK/GD32VW55x_RELEASE_V1.0.2/MSDK/cloud/alicloud/src/services/shadow\shadow_common.c ****                                      const char *name,
  90:C:/Users/stapi/OneDrive/Desktop/GD32VW553/V1_MQTT_OK/GD32VW55X_Wifi_BLE_SDK/GD32VW55x_RELEASE_V1.0.2/MSDK/cloud/alicloud/src/services/shadow\shadow_common.c ****                                      const void *pvalue,
  91:C:/Users/stapi/OneDrive/Desktop/GD32VW553/V1_MQTT_OK/GD32VW55X_Wifi_BLE_SDK/GD32VW55x_RELEASE_V1.0.2/MSDK/cloud/alicloud/src/services/shadow\shadow_common.c ****                                      iotx_shadow_attr_datatype_t datatype)
  92:C:/Users/stapi/OneDrive/Desktop/GD32VW553/V1_MQTT_OK/GD32VW55X_Wifi_BLE_SDK/GD32VW55x_RELEASE_V1.0.2/MSDK/cloud/alicloud/src/services/shadow\shadow_common.c **** {
  93:C:/Users/stapi/OneDrive/Desktop/GD32VW553/V1_MQTT_OK/GD32VW55X_Wifi_BLE_SDK/GD32VW55x_RELEASE_V1.0.2/MSDK/cloud/alicloud/src/services/shadow\shadow_common.c ****     int ret;
  94:C:/Users/stapi/OneDrive/Desktop/GD32VW553/V1_MQTT_OK/GD32VW55X_Wifi_BLE_SDK/GD32VW55x_RELEASE_V1.0.2/MSDK/cloud/alicloud/src/services/shadow\shadow_common.c ****     uint32_t size_free_space;
  95:C:/Users/stapi/OneDrive/Desktop/GD32VW553/V1_MQTT_OK/GD32VW55X_Wifi_BLE_SDK/GD32VW55x_RELEASE_V1.0.2/MSDK/cloud/alicloud/src/services/shadow\shadow_common.c **** 
  96:C:/Users/stapi/OneDrive/Desktop/GD32VW553/V1_MQTT_OK/GD32VW55X_Wifi_BLE_SDK/GD32VW55x_RELEASE_V1.0.2/MSDK/cloud/alicloud/src/services/shadow\shadow_common.c ****     if (pformat->flag_new) {
  97:C:/Users/stapi/OneDrive/Desktop/GD32VW553/V1_MQTT_OK/GD32VW55X_Wifi_BLE_SDK/GD32VW55x_RELEASE_V1.0.2/MSDK/cloud/alicloud/src/services/shadow\shadow_common.c ****         pformat->flag_new = IOT_FALSE;
  98:C:/Users/stapi/OneDrive/Desktop/GD32VW553/V1_MQTT_OK/GD32VW55X_Wifi_BLE_SDK/GD32VW55x_RELEASE_V1.0.2/MSDK/cloud/alicloud/src/services/shadow\shadow_common.c ****     } else {
  99:C:/Users/stapi/OneDrive/Desktop/GD32VW553/V1_MQTT_OK/GD32VW55X_Wifi_BLE_SDK/GD32VW55x_RELEASE_V1.0.2/MSDK/cloud/alicloud/src/services/shadow\shadow_common.c ****         /* Add comma char. */
 100:C:/Users/stapi/OneDrive/Desktop/GD32VW553/V1_MQTT_OK/GD32VW55X_Wifi_BLE_SDK/GD32VW55x_RELEASE_V1.0.2/MSDK/cloud/alicloud/src/services/shadow\shadow_common.c ****         size_free_space = pformat->buf_size - pformat->offset;
 101:C:/Users/stapi/OneDrive/Desktop/GD32VW553/V1_MQTT_OK/GD32VW55X_Wifi_BLE_SDK/GD32VW55x_RELEASE_V1.0.2/MSDK/cloud/alicloud/src/services/shadow\shadow_common.c ****         if (size_free_space > 1) { /* there is enough space to accommodate ',' char. */
 102:C:/Users/stapi/OneDrive/Desktop/GD32VW553/V1_MQTT_OK/GD32VW55X_Wifi_BLE_SDK/GD32VW55x_RELEASE_V1.0.2/MSDK/cloud/alicloud/src/services/shadow\shadow_common.c ****             *(pformat->buf + pformat->offset) = ',';
 103:C:/Users/stapi/OneDrive/Desktop/GD32VW553/V1_MQTT_OK/GD32VW55X_Wifi_BLE_SDK/GD32VW55x_RELEASE_V1.0.2/MSDK/cloud/alicloud/src/services/shadow\shadow_common.c ****             *(pformat->buf + pformat->offset + 1) = '\0';
 104:C:/Users/stapi/OneDrive/Desktop/GD32VW553/V1_MQTT_OK/GD32VW55X_Wifi_BLE_SDK/GD32VW55x_RELEASE_V1.0.2/MSDK/cloud/alicloud/src/services/shadow\shadow_common.c ****             ++pformat->offset;
 105:C:/Users/stapi/OneDrive/Desktop/GD32VW553/V1_MQTT_OK/GD32VW55X_Wifi_BLE_SDK/GD32VW55x_RELEASE_V1.0.2/MSDK/cloud/alicloud/src/services/shadow\shadow_common.c ****         } else {
 106:C:/Users/stapi/OneDrive/Desktop/GD32VW553/V1_MQTT_OK/GD32VW55X_Wifi_BLE_SDK/GD32VW55x_RELEASE_V1.0.2/MSDK/cloud/alicloud/src/services/shadow\shadow_common.c ****             return FAIL_RETURN;
 107:C:/Users/stapi/OneDrive/Desktop/GD32VW553/V1_MQTT_OK/GD32VW55X_Wifi_BLE_SDK/GD32VW55x_RELEASE_V1.0.2/MSDK/cloud/alicloud/src/services/shadow\shadow_common.c ****         }
 108:C:/Users/stapi/OneDrive/Desktop/GD32VW553/V1_MQTT_OK/GD32VW55X_Wifi_BLE_SDK/GD32VW55x_RELEASE_V1.0.2/MSDK/cloud/alicloud/src/services/shadow\shadow_common.c ****     }
 109:C:/Users/stapi/OneDrive/Desktop/GD32VW553/V1_MQTT_OK/GD32VW55X_Wifi_BLE_SDK/GD32VW55x_RELEASE_V1.0.2/MSDK/cloud/alicloud/src/services/shadow\shadow_common.c **** 
 110:C:/Users/stapi/OneDrive/Desktop/GD32VW553/V1_MQTT_OK/GD32VW55X_Wifi_BLE_SDK/GD32VW55x_RELEASE_V1.0.2/MSDK/cloud/alicloud/src/services/shadow\shadow_common.c ****     size_free_space = pformat->buf_size - pformat->offset;
 111:C:/Users/stapi/OneDrive/Desktop/GD32VW553/V1_MQTT_OK/GD32VW55X_Wifi_BLE_SDK/GD32VW55x_RELEASE_V1.0.2/MSDK/cloud/alicloud/src/services/shadow\shadow_common.c **** 
 112:C:/Users/stapi/OneDrive/Desktop/GD32VW553/V1_MQTT_OK/GD32VW55X_Wifi_BLE_SDK/GD32VW55x_RELEASE_V1.0.2/MSDK/cloud/alicloud/src/services/shadow\shadow_common.c ****     /* add the string: "${pattr->pattr_name}":" */
 113:C:/Users/stapi/OneDrive/Desktop/GD32VW553/V1_MQTT_OK/GD32VW55X_Wifi_BLE_SDK/GD32VW55x_RELEASE_V1.0.2/MSDK/cloud/alicloud/src/services/shadow\shadow_common.c ****     ret = HAL_Snprintf(pformat->buf + pformat->offset,
 114:C:/Users/stapi/OneDrive/Desktop/GD32VW553/V1_MQTT_OK/GD32VW55X_Wifi_BLE_SDK/GD32VW55x_RELEASE_V1.0.2/MSDK/cloud/alicloud/src/services/shadow\shadow_common.c ****                        size_free_space,
 115:C:/Users/stapi/OneDrive/Desktop/GD32VW553/V1_MQTT_OK/GD32VW55X_Wifi_BLE_SDK/GD32VW55x_RELEASE_V1.0.2/MSDK/cloud/alicloud/src/services/shadow\shadow_common.c ****                        "\"%s\":",
 116:C:/Users/stapi/OneDrive/Desktop/GD32VW553/V1_MQTT_OK/GD32VW55X_Wifi_BLE_SDK/GD32VW55x_RELEASE_V1.0.2/MSDK/cloud/alicloud/src/services/shadow\shadow_common.c ****                        name);
 117:C:/Users/stapi/OneDrive/Desktop/GD32VW553/V1_MQTT_OK/GD32VW55X_Wifi_BLE_SDK/GD32VW55x_RELEASE_V1.0.2/MSDK/cloud/alicloud/src/services/shadow\shadow_common.c **** 
 118:C:/Users/stapi/OneDrive/Desktop/GD32VW553/V1_MQTT_OK/GD32VW55X_Wifi_BLE_SDK/GD32VW55x_RELEASE_V1.0.2/MSDK/cloud/alicloud/src/services/shadow\shadow_common.c ****     CHECK_SNPRINTF_RET(ret, size_free_space);
 119:C:/Users/stapi/OneDrive/Desktop/GD32VW553/V1_MQTT_OK/GD32VW55X_Wifi_BLE_SDK/GD32VW55x_RELEASE_V1.0.2/MSDK/cloud/alicloud/src/services/shadow\shadow_common.c **** 
 120:C:/Users/stapi/OneDrive/Desktop/GD32VW553/V1_MQTT_OK/GD32VW55X_Wifi_BLE_SDK/GD32VW55x_RELEASE_V1.0.2/MSDK/cloud/alicloud/src/services/shadow\shadow_common.c ****     pformat->offset += ret;
 121:C:/Users/stapi/OneDrive/Desktop/GD32VW553/V1_MQTT_OK/GD32VW55X_Wifi_BLE_SDK/GD32VW55x_RELEASE_V1.0.2/MSDK/cloud/alicloud/src/services/shadow\shadow_common.c ****     size_free_space = pformat->buf_size - pformat->offset;
 122:C:/Users/stapi/OneDrive/Desktop/GD32VW553/V1_MQTT_OK/GD32VW55X_Wifi_BLE_SDK/GD32VW55x_RELEASE_V1.0.2/MSDK/cloud/alicloud/src/services/shadow\shadow_common.c **** 
 123:C:/Users/stapi/OneDrive/Desktop/GD32VW553/V1_MQTT_OK/GD32VW55X_Wifi_BLE_SDK/GD32VW55x_RELEASE_V1.0.2/MSDK/cloud/alicloud/src/services/shadow\shadow_common.c ****     /* convert attribute data to JSON string, and add to buffer */
 124:C:/Users/stapi/OneDrive/Desktop/GD32VW553/V1_MQTT_OK/GD32VW55X_Wifi_BLE_SDK/GD32VW55x_RELEASE_V1.0.2/MSDK/cloud/alicloud/src/services/shadow\shadow_common.c ****     ret = iotx_ds_common_convert_data2string(pformat->buf + pformat->offset,
 125:C:/Users/stapi/OneDrive/Desktop/GD32VW553/V1_MQTT_OK/GD32VW55X_Wifi_BLE_SDK/GD32VW55x_RELEASE_V1.0.2/MSDK/cloud/alicloud/src/services/shadow\shadow_common.c ****             size_free_space,
 126:C:/Users/stapi/OneDrive/Desktop/GD32VW553/V1_MQTT_OK/GD32VW55X_Wifi_BLE_SDK/GD32VW55x_RELEASE_V1.0.2/MSDK/cloud/alicloud/src/services/shadow\shadow_common.c ****             datatype,
 127:C:/Users/stapi/OneDrive/Desktop/GD32VW553/V1_MQTT_OK/GD32VW55X_Wifi_BLE_SDK/GD32VW55x_RELEASE_V1.0.2/MSDK/cloud/alicloud/src/services/shadow\shadow_common.c ****             pvalue);
 128:C:/Users/stapi/OneDrive/Desktop/GD32VW553/V1_MQTT_OK/GD32VW55X_Wifi_BLE_SDK/GD32VW55x_RELEASE_V1.0.2/MSDK/cloud/alicloud/src/services/shadow\shadow_common.c ****     if (ret < 0) {
 129:C:/Users/stapi/OneDrive/Desktop/GD32VW553/V1_MQTT_OK/GD32VW55X_Wifi_BLE_SDK/GD32VW55x_RELEASE_V1.0.2/MSDK/cloud/alicloud/src/services/shadow\shadow_common.c ****         return FAIL_RETURN;
 130:C:/Users/stapi/OneDrive/Desktop/GD32VW553/V1_MQTT_OK/GD32VW55X_Wifi_BLE_SDK/GD32VW55x_RELEASE_V1.0.2/MSDK/cloud/alicloud/src/services/shadow\shadow_common.c ****     }
 131:C:/Users/stapi/OneDrive/Desktop/GD32VW553/V1_MQTT_OK/GD32VW55X_Wifi_BLE_SDK/GD32VW55x_RELEASE_V1.0.2/MSDK/cloud/alicloud/src/services/shadow\shadow_common.c **** 
 132:C:/Users/stapi/OneDrive/Desktop/GD32VW553/V1_MQTT_OK/GD32VW55X_Wifi_BLE_SDK/GD32VW55x_RELEASE_V1.0.2/MSDK/cloud/alicloud/src/services/shadow\shadow_common.c ****     pformat->offset += ret;
 133:C:/Users/stapi/OneDrive/Desktop/GD32VW553/V1_MQTT_OK/GD32VW55X_Wifi_BLE_SDK/GD32VW55x_RELEASE_V1.0.2/MSDK/cloud/alicloud/src/services/shadow\shadow_common.c **** 
 134:C:/Users/stapi/OneDrive/Desktop/GD32VW553/V1_MQTT_OK/GD32VW55X_Wifi_BLE_SDK/GD32VW55x_RELEASE_V1.0.2/MSDK/cloud/alicloud/src/services/shadow\shadow_common.c ****     return SUCCESS_RETURN;
 135:C:/Users/stapi/OneDrive/Desktop/GD32VW553/V1_MQTT_OK/GD32VW55X_Wifi_BLE_SDK/GD32VW55x_RELEASE_V1.0.2/MSDK/cloud/alicloud/src/services/shadow\shadow_common.c **** }
 136:C:/Users/stapi/OneDrive/Desktop/GD32VW553/V1_MQTT_OK/GD32VW55X_Wifi_BLE_SDK/GD32VW55x_RELEASE_V1.0.2/MSDK/cloud/alicloud/src/services/shadow\shadow_common.c **** 
 137:C:/Users/stapi/OneDrive/Desktop/GD32VW553/V1_MQTT_OK/GD32VW55X_Wifi_BLE_SDK/GD32VW55x_RELEASE_V1.0.2/MSDK/cloud/alicloud/src/services/shadow\shadow_common.c **** 
 138:C:/Users/stapi/OneDrive/Desktop/GD32VW553/V1_MQTT_OK/GD32VW55X_Wifi_BLE_SDK/GD32VW55x_RELEASE_V1.0.2/MSDK/cloud/alicloud/src/services/shadow\shadow_common.c **** iotx_err_t iotx_ds_common_format_finalize(iotx_shadow_pt pshadow, format_data_pt pformat, const cha
 139:C:/Users/stapi/OneDrive/Desktop/GD32VW553/V1_MQTT_OK/GD32VW55X_Wifi_BLE_SDK/GD32VW55x_RELEASE_V1.0.2/MSDK/cloud/alicloud/src/services/shadow\shadow_common.c **** {
 140:C:/Users/stapi/OneDrive/Desktop/GD32VW553/V1_MQTT_OK/GD32VW55X_Wifi_BLE_SDK/GD32VW55x_RELEASE_V1.0.2/MSDK/cloud/alicloud/src/services/shadow\shadow_common.c **** #define UPDATE_JSON_STR_END         ",\"clientToken\":\"%s-%d\",\"version\":%d}"
 141:C:/Users/stapi/OneDrive/Desktop/GD32VW553/V1_MQTT_OK/GD32VW55X_Wifi_BLE_SDK/GD32VW55x_RELEASE_V1.0.2/MSDK/cloud/alicloud/src/services/shadow\shadow_common.c **** #define UPDATE_JSON_STR_END_NO_VERSION        ",\"clientToken\":\"%s-%d\"}"
 142:C:/Users/stapi/OneDrive/Desktop/GD32VW553/V1_MQTT_OK/GD32VW55X_Wifi_BLE_SDK/GD32VW55x_RELEASE_V1.0.2/MSDK/cloud/alicloud/src/services/shadow\shadow_common.c **** 
 143:C:/Users/stapi/OneDrive/Desktop/GD32VW553/V1_MQTT_OK/GD32VW55X_Wifi_BLE_SDK/GD32VW55x_RELEASE_V1.0.2/MSDK/cloud/alicloud/src/services/shadow\shadow_common.c ****     int ret;
 144:C:/Users/stapi/OneDrive/Desktop/GD32VW553/V1_MQTT_OK/GD32VW55X_Wifi_BLE_SDK/GD32VW55x_RELEASE_V1.0.2/MSDK/cloud/alicloud/src/services/shadow\shadow_common.c ****     char device_id[DEVICE_ID_LEN + 1] = {0};
 145:C:/Users/stapi/OneDrive/Desktop/GD32VW553/V1_MQTT_OK/GD32VW55X_Wifi_BLE_SDK/GD32VW55x_RELEASE_V1.0.2/MSDK/cloud/alicloud/src/services/shadow\shadow_common.c **** 
 146:C:/Users/stapi/OneDrive/Desktop/GD32VW553/V1_MQTT_OK/GD32VW55X_Wifi_BLE_SDK/GD32VW55x_RELEASE_V1.0.2/MSDK/cloud/alicloud/src/services/shadow\shadow_common.c ****     uint16_t size_free_space = pformat->buf_size - pformat->offset;
 147:C:/Users/stapi/OneDrive/Desktop/GD32VW553/V1_MQTT_OK/GD32VW55X_Wifi_BLE_SDK/GD32VW55x_RELEASE_V1.0.2/MSDK/cloud/alicloud/src/services/shadow\shadow_common.c **** 
 148:C:/Users/stapi/OneDrive/Desktop/GD32VW553/V1_MQTT_OK/GD32VW55X_Wifi_BLE_SDK/GD32VW55x_RELEASE_V1.0.2/MSDK/cloud/alicloud/src/services/shadow\shadow_common.c ****     if (NULL != tail_str) {
 149:C:/Users/stapi/OneDrive/Desktop/GD32VW553/V1_MQTT_OK/GD32VW55X_Wifi_BLE_SDK/GD32VW55x_RELEASE_V1.0.2/MSDK/cloud/alicloud/src/services/shadow\shadow_common.c ****         ret = HAL_Snprintf(pformat->buf + pformat->offset, size_free_space, "%s", tail_str);
 150:C:/Users/stapi/OneDrive/Desktop/GD32VW553/V1_MQTT_OK/GD32VW55X_Wifi_BLE_SDK/GD32VW55x_RELEASE_V1.0.2/MSDK/cloud/alicloud/src/services/shadow\shadow_common.c ****         CHECK_SNPRINTF_RET(ret, size_free_space);
 151:C:/Users/stapi/OneDrive/Desktop/GD32VW553/V1_MQTT_OK/GD32VW55X_Wifi_BLE_SDK/GD32VW55x_RELEASE_V1.0.2/MSDK/cloud/alicloud/src/services/shadow\shadow_common.c ****         pformat->offset += ret;
 152:C:/Users/stapi/OneDrive/Desktop/GD32VW553/V1_MQTT_OK/GD32VW55X_Wifi_BLE_SDK/GD32VW55x_RELEASE_V1.0.2/MSDK/cloud/alicloud/src/services/shadow\shadow_common.c ****     }
 153:C:/Users/stapi/OneDrive/Desktop/GD32VW553/V1_MQTT_OK/GD32VW55X_Wifi_BLE_SDK/GD32VW55x_RELEASE_V1.0.2/MSDK/cloud/alicloud/src/services/shadow\shadow_common.c ****     HAL_GetDeviceID(device_id);
 154:C:/Users/stapi/OneDrive/Desktop/GD32VW553/V1_MQTT_OK/GD32VW55X_Wifi_BLE_SDK/GD32VW55x_RELEASE_V1.0.2/MSDK/cloud/alicloud/src/services/shadow\shadow_common.c ****     size_free_space = pformat->buf_size - pformat->offset;
 155:C:/Users/stapi/OneDrive/Desktop/GD32VW553/V1_MQTT_OK/GD32VW55X_Wifi_BLE_SDK/GD32VW55x_RELEASE_V1.0.2/MSDK/cloud/alicloud/src/services/shadow\shadow_common.c ****     if(noversion == 0){
 156:C:/Users/stapi/OneDrive/Desktop/GD32VW553/V1_MQTT_OK/GD32VW55X_Wifi_BLE_SDK/GD32VW55x_RELEASE_V1.0.2/MSDK/cloud/alicloud/src/services/shadow\shadow_common.c ****         ret = HAL_Snprintf(pformat->buf + pformat->offset,
 157:C:/Users/stapi/OneDrive/Desktop/GD32VW553/V1_MQTT_OK/GD32VW55X_Wifi_BLE_SDK/GD32VW55x_RELEASE_V1.0.2/MSDK/cloud/alicloud/src/services/shadow\shadow_common.c ****                        size_free_space,
 158:C:/Users/stapi/OneDrive/Desktop/GD32VW553/V1_MQTT_OK/GD32VW55X_Wifi_BLE_SDK/GD32VW55x_RELEASE_V1.0.2/MSDK/cloud/alicloud/src/services/shadow\shadow_common.c ****                        UPDATE_JSON_STR_END,
 159:C:/Users/stapi/OneDrive/Desktop/GD32VW553/V1_MQTT_OK/GD32VW55X_Wifi_BLE_SDK/GD32VW55x_RELEASE_V1.0.2/MSDK/cloud/alicloud/src/services/shadow\shadow_common.c ****                        device_id,
 160:C:/Users/stapi/OneDrive/Desktop/GD32VW553/V1_MQTT_OK/GD32VW55X_Wifi_BLE_SDK/GD32VW55x_RELEASE_V1.0.2/MSDK/cloud/alicloud/src/services/shadow\shadow_common.c ****                        iotx_ds_common_get_tokennum(pshadow),
 161:C:/Users/stapi/OneDrive/Desktop/GD32VW553/V1_MQTT_OK/GD32VW55X_Wifi_BLE_SDK/GD32VW55x_RELEASE_V1.0.2/MSDK/cloud/alicloud/src/services/shadow\shadow_common.c ****                        iotx_ds_common_get_version(pshadow) + 1);
 162:C:/Users/stapi/OneDrive/Desktop/GD32VW553/V1_MQTT_OK/GD32VW55X_Wifi_BLE_SDK/GD32VW55x_RELEASE_V1.0.2/MSDK/cloud/alicloud/src/services/shadow\shadow_common.c ****     }else{
 163:C:/Users/stapi/OneDrive/Desktop/GD32VW553/V1_MQTT_OK/GD32VW55X_Wifi_BLE_SDK/GD32VW55x_RELEASE_V1.0.2/MSDK/cloud/alicloud/src/services/shadow\shadow_common.c ****         ret = HAL_Snprintf(pformat->buf + pformat->offset,
 164:C:/Users/stapi/OneDrive/Desktop/GD32VW553/V1_MQTT_OK/GD32VW55X_Wifi_BLE_SDK/GD32VW55x_RELEASE_V1.0.2/MSDK/cloud/alicloud/src/services/shadow\shadow_common.c ****                        size_free_space,
 165:C:/Users/stapi/OneDrive/Desktop/GD32VW553/V1_MQTT_OK/GD32VW55X_Wifi_BLE_SDK/GD32VW55x_RELEASE_V1.0.2/MSDK/cloud/alicloud/src/services/shadow\shadow_common.c ****                        UPDATE_JSON_STR_END_NO_VERSION,
 166:C:/Users/stapi/OneDrive/Desktop/GD32VW553/V1_MQTT_OK/GD32VW55X_Wifi_BLE_SDK/GD32VW55x_RELEASE_V1.0.2/MSDK/cloud/alicloud/src/services/shadow\shadow_common.c ****                        device_id,
 167:C:/Users/stapi/OneDrive/Desktop/GD32VW553/V1_MQTT_OK/GD32VW55X_Wifi_BLE_SDK/GD32VW55x_RELEASE_V1.0.2/MSDK/cloud/alicloud/src/services/shadow\shadow_common.c ****                        iotx_ds_common_get_tokennum(pshadow));    }
 168:C:/Users/stapi/OneDrive/Desktop/GD32VW553/V1_MQTT_OK/GD32VW55X_Wifi_BLE_SDK/GD32VW55x_RELEASE_V1.0.2/MSDK/cloud/alicloud/src/services/shadow\shadow_common.c **** 
 169:C:/Users/stapi/OneDrive/Desktop/GD32VW553/V1_MQTT_OK/GD32VW55X_Wifi_BLE_SDK/GD32VW55x_RELEASE_V1.0.2/MSDK/cloud/alicloud/src/services/shadow\shadow_common.c ****     CHECK_SNPRINTF_RET(ret, size_free_space);
 170:C:/Users/stapi/OneDrive/Desktop/GD32VW553/V1_MQTT_OK/GD32VW55X_Wifi_BLE_SDK/GD32VW55x_RELEASE_V1.0.2/MSDK/cloud/alicloud/src/services/shadow\shadow_common.c ****     pformat->offset += ret;
 171:C:/Users/stapi/OneDrive/Desktop/GD32VW553/V1_MQTT_OK/GD32VW55X_Wifi_BLE_SDK/GD32VW55x_RELEASE_V1.0.2/MSDK/cloud/alicloud/src/services/shadow\shadow_common.c **** 
 172:C:/Users/stapi/OneDrive/Desktop/GD32VW553/V1_MQTT_OK/GD32VW55X_Wifi_BLE_SDK/GD32VW55x_RELEASE_V1.0.2/MSDK/cloud/alicloud/src/services/shadow\shadow_common.c ****     return SUCCESS_RETURN;
 173:C:/Users/stapi/OneDrive/Desktop/GD32VW553/V1_MQTT_OK/GD32VW55X_Wifi_BLE_SDK/GD32VW55x_RELEASE_V1.0.2/MSDK/cloud/alicloud/src/services/shadow\shadow_common.c **** 
 174:C:/Users/stapi/OneDrive/Desktop/GD32VW553/V1_MQTT_OK/GD32VW55X_Wifi_BLE_SDK/GD32VW55x_RELEASE_V1.0.2/MSDK/cloud/alicloud/src/services/shadow\shadow_common.c **** #undef UPDATE_JSON_STR_END
 175:C:/Users/stapi/OneDrive/Desktop/GD32VW553/V1_MQTT_OK/GD32VW55X_Wifi_BLE_SDK/GD32VW55x_RELEASE_V1.0.2/MSDK/cloud/alicloud/src/services/shadow\shadow_common.c **** }
 176:C:/Users/stapi/OneDrive/Desktop/GD32VW553/V1_MQTT_OK/GD32VW55X_Wifi_BLE_SDK/GD32VW55x_RELEASE_V1.0.2/MSDK/cloud/alicloud/src/services/shadow\shadow_common.c **** 
 177:C:/Users/stapi/OneDrive/Desktop/GD32VW553/V1_MQTT_OK/GD32VW55X_Wifi_BLE_SDK/GD32VW55x_RELEASE_V1.0.2/MSDK/cloud/alicloud/src/services/shadow\shadow_common.c **** 
 178:C:/Users/stapi/OneDrive/Desktop/GD32VW553/V1_MQTT_OK/GD32VW55X_Wifi_BLE_SDK/GD32VW55x_RELEASE_V1.0.2/MSDK/cloud/alicloud/src/services/shadow\shadow_common.c **** int iotx_ds_common_convert_data2string(
 179:C:/Users/stapi/OneDrive/Desktop/GD32VW553/V1_MQTT_OK/GD32VW55X_Wifi_BLE_SDK/GD32VW55x_RELEASE_V1.0.2/MSDK/cloud/alicloud/src/services/shadow\shadow_common.c ****             char *buf,
 180:C:/Users/stapi/OneDrive/Desktop/GD32VW553/V1_MQTT_OK/GD32VW55X_Wifi_BLE_SDK/GD32VW55x_RELEASE_V1.0.2/MSDK/cloud/alicloud/src/services/shadow\shadow_common.c ****             size_t buf_len,
 181:C:/Users/stapi/OneDrive/Desktop/GD32VW553/V1_MQTT_OK/GD32VW55X_Wifi_BLE_SDK/GD32VW55x_RELEASE_V1.0.2/MSDK/cloud/alicloud/src/services/shadow\shadow_common.c ****             iotx_shadow_attr_datatype_t type,
 182:C:/Users/stapi/OneDrive/Desktop/GD32VW553/V1_MQTT_OK/GD32VW55X_Wifi_BLE_SDK/GD32VW55x_RELEASE_V1.0.2/MSDK/cloud/alicloud/src/services/shadow\shadow_common.c ****             const void *pData)
 183:C:/Users/stapi/OneDrive/Desktop/GD32VW553/V1_MQTT_OK/GD32VW55X_Wifi_BLE_SDK/GD32VW55x_RELEASE_V1.0.2/MSDK/cloud/alicloud/src/services/shadow\shadow_common.c **** {
 197              		.loc 1 183 1 is_stmt 1
 198              		.cfi_startproc
 199              	.LVL19:
 184:C:/Users/stapi/OneDrive/Desktop/GD32VW553/V1_MQTT_OK/GD32VW55X_Wifi_BLE_SDK/GD32VW55x_RELEASE_V1.0.2/MSDK/cloud/alicloud/src/services/shadow\shadow_common.c **** 
 185:C:/Users/stapi/OneDrive/Desktop/GD32VW553/V1_MQTT_OK/GD32VW55X_Wifi_BLE_SDK/GD32VW55x_RELEASE_V1.0.2/MSDK/cloud/alicloud/src/services/shadow\shadow_common.c ****     int ret = -1;
 200              		.loc 1 185 5
 186:C:/Users/stapi/OneDrive/Desktop/GD32VW553/V1_MQTT_OK/GD32VW55X_Wifi_BLE_SDK/GD32VW55x_RELEASE_V1.0.2/MSDK/cloud/alicloud/src/services/shadow\shadow_common.c **** 
 187:C:/Users/stapi/OneDrive/Desktop/GD32VW553/V1_MQTT_OK/GD32VW55X_Wifi_BLE_SDK/GD32VW55x_RELEASE_V1.0.2/MSDK/cloud/alicloud/src/services/shadow\shadow_common.c ****     if ((NULL == buf) || (buf_len == 0)
 201              		.loc 1 187 5
 202              		.loc 1 187 8 is_stmt 0
 203 0000 31CD     		beq	a0,zero,.L20
 183:C:/Users/stapi/OneDrive/Desktop/GD32VW553/V1_MQTT_OK/GD32VW55X_Wifi_BLE_SDK/GD32VW55x_RELEASE_V1.0.2/MSDK/cloud/alicloud/src/services/shadow\shadow_common.c **** 
 204              		.loc 1 183 1 discriminator 1
 205 0002 17030000 		call	t0,__riscv_save_1
 205      E7020300 
 206              		.cfi_offset 8, -8
 207              		.cfi_offset 1, -4
 208              		.cfi_def_cfa_offset 16
 209 000a 2E84     		mv	s0,a1
 188:C:/Users/stapi/OneDrive/Desktop/GD32VW553/V1_MQTT_OK/GD32VW55X_Wifi_BLE_SDK/GD32VW55x_RELEASE_V1.0.2/MSDK/cloud/alicloud/src/services/shadow\shadow_common.c ****         || ((IOTX_SHADOW_NULL != type) && (NULL == pData))) {
 189:C:/Users/stapi/OneDrive/Desktop/GD32VW553/V1_MQTT_OK/GD32VW55X_Wifi_BLE_SDK/GD32VW55x_RELEASE_V1.0.2/MSDK/cloud/alicloud/src/services/shadow\shadow_common.c ****         return ERROR_NULL_VALUE;
 210              		.loc 1 189 16 discriminator 1
 211 000c DD57     		li	a5,-9
 187:C:/Users/stapi/OneDrive/Desktop/GD32VW553/V1_MQTT_OK/GD32VW55X_Wifi_BLE_SDK/GD32VW55x_RELEASE_V1.0.2/MSDK/cloud/alicloud/src/services/shadow\shadow_common.c ****         || ((IOTX_SHADOW_NULL != type) && (NULL == pData))) {
 212              		.loc 1 187 23 discriminator 1
 213 000e 85C5     		beq	a1,zero,.L13
 188:C:/Users/stapi/OneDrive/Desktop/GD32VW553/V1_MQTT_OK/GD32VW55X_Wifi_BLE_SDK/GD32VW55x_RELEASE_V1.0.2/MSDK/cloud/alicloud/src/services/shadow\shadow_common.c ****         || ((IOTX_SHADOW_NULL != type) && (NULL == pData))) {
 214              		.loc 1 188 9
 215 0010 0DCE     		beq	a2,zero,.L15
 188:C:/Users/stapi/OneDrive/Desktop/GD32VW553/V1_MQTT_OK/GD32VW55X_Wifi_BLE_SDK/GD32VW55x_RELEASE_V1.0.2/MSDK/cloud/alicloud/src/services/shadow\shadow_common.c ****         || ((IOTX_SHADOW_NULL != type) && (NULL == pData))) {
 216              		.loc 1 188 40 discriminator 1
 217 0012 95C2     		beq	a3,zero,.L13
 190:C:/Users/stapi/OneDrive/Desktop/GD32VW553/V1_MQTT_OK/GD32VW55X_Wifi_BLE_SDK/GD32VW55x_RELEASE_V1.0.2/MSDK/cloud/alicloud/src/services/shadow\shadow_common.c ****     }
 191:C:/Users/stapi/OneDrive/Desktop/GD32VW553/V1_MQTT_OK/GD32VW55X_Wifi_BLE_SDK/GD32VW55x_RELEASE_V1.0.2/MSDK/cloud/alicloud/src/services/shadow\shadow_common.c **** 
 192:C:/Users/stapi/OneDrive/Desktop/GD32VW553/V1_MQTT_OK/GD32VW55X_Wifi_BLE_SDK/GD32VW55x_RELEASE_V1.0.2/MSDK/cloud/alicloud/src/services/shadow\shadow_common.c ****     if (IOTX_SHADOW_INT32 == type) {
 218              		.loc 1 192 5 is_stmt 1
 219              		.loc 1 192 8 is_stmt 0
 220 0014 8547     		li	a5,1
 221 0016 6316F604 		bne	a2,a5,.L16
 193:C:/Users/stapi/OneDrive/Desktop/GD32VW553/V1_MQTT_OK/GD32VW55X_Wifi_BLE_SDK/GD32VW55x_RELEASE_V1.0.2/MSDK/cloud/alicloud/src/services/shadow\shadow_common.c ****         ret = HAL_Snprintf(buf, buf_len, "%" PRIi32, *(int32_t *)(pData));
 222              		.loc 1 193 9 is_stmt 1
 223              		.loc 1 193 15 is_stmt 0
 224 001a 9442     		lw	a3,0(a3)
 225              	.LVL20:
 226 001c 37060000 		lui	a2,%hi(.LC3)
 227              	.LVL21:
 228 0020 13060600 		addi	a2,a2,%lo(.LC3)
 229              	.L30:
 194:C:/Users/stapi/OneDrive/Desktop/GD32VW553/V1_MQTT_OK/GD32VW55X_Wifi_BLE_SDK/GD32VW55x_RELEASE_V1.0.2/MSDK/cloud/alicloud/src/services/shadow\shadow_common.c ****     } else if (IOTX_SHADOW_STRING == type) {
 195:C:/Users/stapi/OneDrive/Desktop/GD32VW553/V1_MQTT_OK/GD32VW55X_Wifi_BLE_SDK/GD32VW55x_RELEASE_V1.0.2/MSDK/cloud/alicloud/src/services/shadow\shadow_common.c ****         ret = HAL_Snprintf(buf, buf_len, "\"%s\"", (char *)(pData));
 196:C:/Users/stapi/OneDrive/Desktop/GD32VW553/V1_MQTT_OK/GD32VW55X_Wifi_BLE_SDK/GD32VW55x_RELEASE_V1.0.2/MSDK/cloud/alicloud/src/services/shadow\shadow_common.c ****     } else if (IOTX_SHADOW_NULL == type) {
 197:C:/Users/stapi/OneDrive/Desktop/GD32VW553/V1_MQTT_OK/GD32VW55X_Wifi_BLE_SDK/GD32VW55x_RELEASE_V1.0.2/MSDK/cloud/alicloud/src/services/shadow\shadow_common.c ****         ret = HAL_Snprintf(buf, buf_len, "%s", "\"null\"");
 230              		.loc 1 197 15
 231 0024 97000000 		call	HAL_Snprintf
 231      E7800000 
 232              	.LVL22:
 233 002c AA87     		mv	a5,a0
 234              	.LVL23:
 198:C:/Users/stapi/OneDrive/Desktop/GD32VW553/V1_MQTT_OK/GD32VW55X_Wifi_BLE_SDK/GD32VW55x_RELEASE_V1.0.2/MSDK/cloud/alicloud/src/services/shadow\shadow_common.c ****     } else {
 199:C:/Users/stapi/OneDrive/Desktop/GD32VW553/V1_MQTT_OK/GD32VW55X_Wifi_BLE_SDK/GD32VW55x_RELEASE_V1.0.2/MSDK/cloud/alicloud/src/services/shadow\shadow_common.c ****         shadow_err("Error data type");
 200:C:/Users/stapi/OneDrive/Desktop/GD32VW553/V1_MQTT_OK/GD32VW55X_Wifi_BLE_SDK/GD32VW55x_RELEASE_V1.0.2/MSDK/cloud/alicloud/src/services/shadow\shadow_common.c ****         ret = -1;
 201:C:/Users/stapi/OneDrive/Desktop/GD32VW553/V1_MQTT_OK/GD32VW55X_Wifi_BLE_SDK/GD32VW55x_RELEASE_V1.0.2/MSDK/cloud/alicloud/src/services/shadow\shadow_common.c ****     }
 202:C:/Users/stapi/OneDrive/Desktop/GD32VW553/V1_MQTT_OK/GD32VW55X_Wifi_BLE_SDK/GD32VW55x_RELEASE_V1.0.2/MSDK/cloud/alicloud/src/services/shadow\shadow_common.c **** 
 203:C:/Users/stapi/OneDrive/Desktop/GD32VW553/V1_MQTT_OK/GD32VW55X_Wifi_BLE_SDK/GD32VW55x_RELEASE_V1.0.2/MSDK/cloud/alicloud/src/services/shadow\shadow_common.c ****     if ((ret < 0) || (ret >= buf_len)) {
 235              		.loc 1 203 5 is_stmt 1
 236              		.loc 1 203 8 is_stmt 0
 237 002e 63450506 		blt	a0,zero,.L24
 238              		.loc 1 203 19 discriminator 1
 239 0032 63738506 		bgeu	a0,s0,.L24
 240              	.LVL24:
 241              	.L13:
 204:C:/Users/stapi/OneDrive/Desktop/GD32VW553/V1_MQTT_OK/GD32VW55X_Wifi_BLE_SDK/GD32VW55x_RELEASE_V1.0.2/MSDK/cloud/alicloud/src/services/shadow\shadow_common.c ****         return -1;
 205:C:/Users/stapi/OneDrive/Desktop/GD32VW553/V1_MQTT_OK/GD32VW55X_Wifi_BLE_SDK/GD32VW55x_RELEASE_V1.0.2/MSDK/cloud/alicloud/src/services/shadow\shadow_common.c ****     }
 206:C:/Users/stapi/OneDrive/Desktop/GD32VW553/V1_MQTT_OK/GD32VW55X_Wifi_BLE_SDK/GD32VW55x_RELEASE_V1.0.2/MSDK/cloud/alicloud/src/services/shadow\shadow_common.c **** 
 207:C:/Users/stapi/OneDrive/Desktop/GD32VW553/V1_MQTT_OK/GD32VW55X_Wifi_BLE_SDK/GD32VW55x_RELEASE_V1.0.2/MSDK/cloud/alicloud/src/services/shadow\shadow_common.c ****     return ret;
 208:C:/Users/stapi/OneDrive/Desktop/GD32VW553/V1_MQTT_OK/GD32VW55X_Wifi_BLE_SDK/GD32VW55x_RELEASE_V1.0.2/MSDK/cloud/alicloud/src/services/shadow\shadow_common.c **** }
 242              		.loc 1 208 1
 243 0036 3E85     		mv	a0,a5
 244 0038 17030000 		tail	__riscv_restore_1
 244      67000300 
 245              		.cfi_remember_state
 246              		.cfi_restore 8
 247              		.cfi_restore 1
 248              		.cfi_def_cfa_offset 0
 249              	.LVL25:
 250              	.L18:
 251              		.cfi_restore_state
 195:C:/Users/stapi/OneDrive/Desktop/GD32VW553/V1_MQTT_OK/GD32VW55X_Wifi_BLE_SDK/GD32VW55x_RELEASE_V1.0.2/MSDK/cloud/alicloud/src/services/shadow\shadow_common.c ****     } else if (IOTX_SHADOW_NULL == type) {
 252              		.loc 1 195 9 is_stmt 1
 195:C:/Users/stapi/OneDrive/Desktop/GD32VW553/V1_MQTT_OK/GD32VW55X_Wifi_BLE_SDK/GD32VW55x_RELEASE_V1.0.2/MSDK/cloud/alicloud/src/services/shadow\shadow_common.c ****     } else if (IOTX_SHADOW_NULL == type) {
 253              		.loc 1 195 15 is_stmt 0
 254 0040 37060000 		lui	a2,%hi(.LC4)
 255              	.LVL26:
 256 0044 13060600 		addi	a2,a2,%lo(.LC4)
 257 0048 F1BF     		j	.L30
 258              	.LVL27:
 259              	.L15:
 194:C:/Users/stapi/OneDrive/Desktop/GD32VW553/V1_MQTT_OK/GD32VW55X_Wifi_BLE_SDK/GD32VW55x_RELEASE_V1.0.2/MSDK/cloud/alicloud/src/services/shadow\shadow_common.c ****         ret = HAL_Snprintf(buf, buf_len, "\"%s\"", (char *)(pData));
 260              		.loc 1 194 12 is_stmt 1
 197:C:/Users/stapi/OneDrive/Desktop/GD32VW553/V1_MQTT_OK/GD32VW55X_Wifi_BLE_SDK/GD32VW55x_RELEASE_V1.0.2/MSDK/cloud/alicloud/src/services/shadow\shadow_common.c ****     } else {
 261              		.loc 1 197 9
 197:C:/Users/stapi/OneDrive/Desktop/GD32VW553/V1_MQTT_OK/GD32VW55X_Wifi_BLE_SDK/GD32VW55x_RELEASE_V1.0.2/MSDK/cloud/alicloud/src/services/shadow\shadow_common.c ****     } else {
 262              		.loc 1 197 15 is_stmt 0
 263 004a B7060000 		lui	a3,%hi(.LC5)
 264              	.LVL28:
 265 004e 37060000 		lui	a2,%hi(.LC6)
 266              	.LVL29:
 267 0052 93860600 		addi	a3,a3,%lo(.LC5)
 268 0056 13060600 		addi	a2,a2,%lo(.LC6)
 269 005a E9B7     		j	.L30
 270              	.LVL30:
 271              	.L20:
 272              		.cfi_def_cfa_offset 0
 273              		.cfi_restore 1
 274              		.cfi_restore 8
 189:C:/Users/stapi/OneDrive/Desktop/GD32VW553/V1_MQTT_OK/GD32VW55X_Wifi_BLE_SDK/GD32VW55x_RELEASE_V1.0.2/MSDK/cloud/alicloud/src/services/shadow\shadow_common.c ****     }
 275              		.loc 1 189 16
 276 005c DD57     		li	a5,-9
 277              		.loc 1 208 1
 278 005e 3E85     		mv	a0,a5
 279              	.LVL31:
 280 0060 8280     		ret
 281              	.LVL32:
 282              	.L16:
 283              		.cfi_def_cfa_offset 16
 284              		.cfi_offset 1, -4
 285              		.cfi_offset 8, -8
 194:C:/Users/stapi/OneDrive/Desktop/GD32VW553/V1_MQTT_OK/GD32VW55X_Wifi_BLE_SDK/GD32VW55x_RELEASE_V1.0.2/MSDK/cloud/alicloud/src/services/shadow\shadow_common.c ****         ret = HAL_Snprintf(buf, buf_len, "\"%s\"", (char *)(pData));
 286              		.loc 1 194 12 is_stmt 1
 194:C:/Users/stapi/OneDrive/Desktop/GD32VW553/V1_MQTT_OK/GD32VW55X_Wifi_BLE_SDK/GD32VW55x_RELEASE_V1.0.2/MSDK/cloud/alicloud/src/services/shadow\shadow_common.c ****         ret = HAL_Snprintf(buf, buf_len, "\"%s\"", (char *)(pData));
 287              		.loc 1 194 15 is_stmt 0
 288 0062 8947     		li	a5,2
 289 0064 E30EF6FC 		beq	a2,a5,.L18
 199:C:/Users/stapi/OneDrive/Desktop/GD32VW553/V1_MQTT_OK/GD32VW55X_Wifi_BLE_SDK/GD32VW55x_RELEASE_V1.0.2/MSDK/cloud/alicloud/src/services/shadow\shadow_common.c ****         ret = -1;
 290              		.loc 1 199 9 is_stmt 1
 199:C:/Users/stapi/OneDrive/Desktop/GD32VW553/V1_MQTT_OK/GD32VW55X_Wifi_BLE_SDK/GD32VW55x_RELEASE_V1.0.2/MSDK/cloud/alicloud/src/services/shadow\shadow_common.c ****         ret = -1;
 291              		.loc 1 199 9
 292 0068 37050000 		lui	a0,%hi(.LC7)
 293              	.LVL33:
 294 006c 13050500 		addi	a0,a0,%lo(.LC7)
 295 0070 97000000 		call	HAL_Printf
 295      E7800000 
 296              	.LVL34:
 199:C:/Users/stapi/OneDrive/Desktop/GD32VW553/V1_MQTT_OK/GD32VW55X_Wifi_BLE_SDK/GD32VW55x_RELEASE_V1.0.2/MSDK/cloud/alicloud/src/services/shadow\shadow_common.c ****         ret = -1;
 297              		.loc 1 199 9
 298 0078 37050000 		lui	a0,%hi(.LC8)
 299 007c 13050500 		addi	a0,a0,%lo(.LC8)
 300 0080 97000000 		call	HAL_Printf
 300      E7800000 
 301              	.LVL35:
 199:C:/Users/stapi/OneDrive/Desktop/GD32VW553/V1_MQTT_OK/GD32VW55X_Wifi_BLE_SDK/GD32VW55x_RELEASE_V1.0.2/MSDK/cloud/alicloud/src/services/shadow\shadow_common.c ****         ret = -1;
 302              		.loc 1 199 9
 303 0088 37050000 		lui	a0,%hi(.LC9)
 304 008c 13050500 		addi	a0,a0,%lo(.LC9)
 305 0090 97000000 		call	HAL_Printf
 305      E7800000 
 306              	.LVL36:
 199:C:/Users/stapi/OneDrive/Desktop/GD32VW553/V1_MQTT_OK/GD32VW55X_Wifi_BLE_SDK/GD32VW55x_RELEASE_V1.0.2/MSDK/cloud/alicloud/src/services/shadow\shadow_common.c ****         ret = -1;
 307              		.loc 1 199 9
 200:C:/Users/stapi/OneDrive/Desktop/GD32VW553/V1_MQTT_OK/GD32VW55X_Wifi_BLE_SDK/GD32VW55x_RELEASE_V1.0.2/MSDK/cloud/alicloud/src/services/shadow\shadow_common.c ****     }
 308              		.loc 1 200 9
 203:C:/Users/stapi/OneDrive/Desktop/GD32VW553/V1_MQTT_OK/GD32VW55X_Wifi_BLE_SDK/GD32VW55x_RELEASE_V1.0.2/MSDK/cloud/alicloud/src/services/shadow\shadow_common.c ****         return -1;
 309              		.loc 1 203 5
 310              	.L24:
 204:C:/Users/stapi/OneDrive/Desktop/GD32VW553/V1_MQTT_OK/GD32VW55X_Wifi_BLE_SDK/GD32VW55x_RELEASE_V1.0.2/MSDK/cloud/alicloud/src/services/shadow\shadow_common.c ****     }
 311              		.loc 1 204 16 is_stmt 0
 312 0098 FD57     		li	a5,-1
 313 009a 71BF     		j	.L13
 314              		.cfi_endproc
 315              	.LFE23:
 317              		.section	.rodata.iotx_ds_common_format_add.str1.4,"aMS",@progbits,1
 318              		.align	2
 319              	.LC10:
 320 0000 22257322 		.string	"\"%s\":"
 320      3A00
 321              		.section	.text.iotx_ds_common_format_add,"ax",@progbits
 322              		.align	1
 323              		.globl	iotx_ds_common_format_add
 325              	iotx_ds_common_format_add:
 326              	.LFB21:
  92:C:/Users/stapi/OneDrive/Desktop/GD32VW553/V1_MQTT_OK/GD32VW55X_Wifi_BLE_SDK/GD32VW55x_RELEASE_V1.0.2/MSDK/cloud/alicloud/src/services/shadow\shadow_common.c ****     int ret;
 327              		.loc 1 92 1 is_stmt 1
 328              		.cfi_startproc
 329              	.LVL37:
 330 0000 17030000 		call	t0,__riscv_save_4
 330      E7020300 
 331              		.cfi_offset 19, -20
 332              		.cfi_offset 18, -16
 333              		.cfi_offset 9, -12
 334              		.cfi_offset 8, -8
 335              		.cfi_offset 1, -4
 336              		.cfi_def_cfa_offset 32
  93:C:/Users/stapi/OneDrive/Desktop/GD32VW553/V1_MQTT_OK/GD32VW55X_Wifi_BLE_SDK/GD32VW55x_RELEASE_V1.0.2/MSDK/cloud/alicloud/src/services/shadow\shadow_common.c ****     uint32_t size_free_space;
 337              		.loc 1 93 5
  94:C:/Users/stapi/OneDrive/Desktop/GD32VW553/V1_MQTT_OK/GD32VW55X_Wifi_BLE_SDK/GD32VW55x_RELEASE_V1.0.2/MSDK/cloud/alicloud/src/services/shadow\shadow_common.c **** 
 338              		.loc 1 94 5
  96:C:/Users/stapi/OneDrive/Desktop/GD32VW553/V1_MQTT_OK/GD32VW55X_Wifi_BLE_SDK/GD32VW55x_RELEASE_V1.0.2/MSDK/cloud/alicloud/src/services/shadow\shadow_common.c ****         pformat->flag_new = IOT_FALSE;
 339              		.loc 1 96 5
  96:C:/Users/stapi/OneDrive/Desktop/GD32VW553/V1_MQTT_OK/GD32VW55X_Wifi_BLE_SDK/GD32VW55x_RELEASE_V1.0.2/MSDK/cloud/alicloud/src/services/shadow\shadow_common.c ****         pformat->flag_new = IOT_FALSE;
 340              		.loc 1 96 8 is_stmt 0
 341 0008 9C41     		lw	a5,0(a1)
  92:C:/Users/stapi/OneDrive/Desktop/GD32VW553/V1_MQTT_OK/GD32VW55X_Wifi_BLE_SDK/GD32VW55x_RELEASE_V1.0.2/MSDK/cloud/alicloud/src/services/shadow\shadow_common.c ****     int ret;
 342              		.loc 1 92 1
 343 000a 2E84     		mv	s0,a1
 344 000c B689     		mv	s3,a3
 345 000e 3A89     		mv	s2,a4
  96:C:/Users/stapi/OneDrive/Desktop/GD32VW553/V1_MQTT_OK/GD32VW55X_Wifi_BLE_SDK/GD32VW55x_RELEASE_V1.0.2/MSDK/cloud/alicloud/src/services/shadow\shadow_common.c ****         pformat->flag_new = IOT_FALSE;
 346              		.loc 1 96 8
 347 0010 A9CF     		beq	a5,zero,.L32
  97:C:/Users/stapi/OneDrive/Desktop/GD32VW553/V1_MQTT_OK/GD32VW55X_Wifi_BLE_SDK/GD32VW55x_RELEASE_V1.0.2/MSDK/cloud/alicloud/src/services/shadow\shadow_common.c ****     } else {
 348              		.loc 1 97 9 is_stmt 1
  97:C:/Users/stapi/OneDrive/Desktop/GD32VW553/V1_MQTT_OK/GD32VW55X_Wifi_BLE_SDK/GD32VW55x_RELEASE_V1.0.2/MSDK/cloud/alicloud/src/services/shadow\shadow_common.c ****     } else {
 349              		.loc 1 97 27 is_stmt 0
 350 0012 23A00500 		sw	zero,0(a1)
 351              	.LVL38:
 352              	.L33:
 110:C:/Users/stapi/OneDrive/Desktop/GD32VW553/V1_MQTT_OK/GD32VW55X_Wifi_BLE_SDK/GD32VW55x_RELEASE_V1.0.2/MSDK/cloud/alicloud/src/services/shadow\shadow_common.c **** 
 353              		.loc 1 110 5 is_stmt 1
 110:C:/Users/stapi/OneDrive/Desktop/GD32VW553/V1_MQTT_OK/GD32VW55X_Wifi_BLE_SDK/GD32VW55x_RELEASE_V1.0.2/MSDK/cloud/alicloud/src/services/shadow\shadow_common.c **** 
 354              		.loc 1 110 50 is_stmt 0
 355 0016 1C44     		lw	a5,8(s0)
 110:C:/Users/stapi/OneDrive/Desktop/GD32VW553/V1_MQTT_OK/GD32VW55X_Wifi_BLE_SDK/GD32VW55x_RELEASE_V1.0.2/MSDK/cloud/alicloud/src/services/shadow\shadow_common.c **** 
 356              		.loc 1 110 21
 357 0018 4440     		lw	s1,4(s0)
 113:C:/Users/stapi/OneDrive/Desktop/GD32VW553/V1_MQTT_OK/GD32VW55X_Wifi_BLE_SDK/GD32VW55x_RELEASE_V1.0.2/MSDK/cloud/alicloud/src/services/shadow\shadow_common.c ****                        size_free_space,
 358              		.loc 1 113 11
 359 001a 4844     		lw	a0,12(s0)
 360              	.LVL39:
 361 001c B286     		mv	a3,a2
 110:C:/Users/stapi/OneDrive/Desktop/GD32VW553/V1_MQTT_OK/GD32VW55X_Wifi_BLE_SDK/GD32VW55x_RELEASE_V1.0.2/MSDK/cloud/alicloud/src/services/shadow\shadow_common.c **** 
 362              		.loc 1 110 21
 363 001e 9D8C     		sub	s1,s1,a5
 364              	.LVL40:
 113:C:/Users/stapi/OneDrive/Desktop/GD32VW553/V1_MQTT_OK/GD32VW55X_Wifi_BLE_SDK/GD32VW55x_RELEASE_V1.0.2/MSDK/cloud/alicloud/src/services/shadow\shadow_common.c ****                        size_free_space,
 365              		.loc 1 113 5 is_stmt 1
 113:C:/Users/stapi/OneDrive/Desktop/GD32VW553/V1_MQTT_OK/GD32VW55X_Wifi_BLE_SDK/GD32VW55x_RELEASE_V1.0.2/MSDK/cloud/alicloud/src/services/shadow\shadow_common.c ****                        size_free_space,
 366              		.loc 1 113 11 is_stmt 0
 367 0020 37060000 		lui	a2,%hi(.LC10)
 368              	.LVL41:
 369 0024 3E95     		add	a0,a0,a5
 370 0026 13060600 		addi	a2,a2,%lo(.LC10)
 371 002a A685     		mv	a1,s1
 372              	.LVL42:
 373 002c 97000000 		call	HAL_Snprintf
 373      E7800000 
 374              	.LVL43:
 375 0034 AA87     		mv	a5,a0
 376              	.LVL44:
 118:C:/Users/stapi/OneDrive/Desktop/GD32VW553/V1_MQTT_OK/GD32VW55X_Wifi_BLE_SDK/GD32VW55x_RELEASE_V1.0.2/MSDK/cloud/alicloud/src/services/shadow\shadow_common.c **** 
 377              		.loc 1 118 5 is_stmt 1
 118:C:/Users/stapi/OneDrive/Desktop/GD32VW553/V1_MQTT_OK/GD32VW55X_Wifi_BLE_SDK/GD32VW55x_RELEASE_V1.0.2/MSDK/cloud/alicloud/src/services/shadow\shadow_common.c **** 
 378              		.loc 1 118 5
 379 0036 63400504 		blt	a0,zero,.L36
 118:C:/Users/stapi/OneDrive/Desktop/GD32VW553/V1_MQTT_OK/GD32VW55X_Wifi_BLE_SDK/GD32VW55x_RELEASE_V1.0.2/MSDK/cloud/alicloud/src/services/shadow\shadow_common.c **** 
 380              		.loc 1 118 5 discriminator 2
 381 003a 1305B0C0 		li	a0,-1013
 382              	.LVL45:
 383 003e 63FD9702 		bgeu	a5,s1,.L31
 118:C:/Users/stapi/OneDrive/Desktop/GD32VW553/V1_MQTT_OK/GD32VW55X_Wifi_BLE_SDK/GD32VW55x_RELEASE_V1.0.2/MSDK/cloud/alicloud/src/services/shadow\shadow_common.c **** 
 384              		.loc 1 118 5 discriminator 4
 118:C:/Users/stapi/OneDrive/Desktop/GD32VW553/V1_MQTT_OK/GD32VW55X_Wifi_BLE_SDK/GD32VW55x_RELEASE_V1.0.2/MSDK/cloud/alicloud/src/services/shadow\shadow_common.c **** 
 385              		.loc 1 118 45 discriminator 4
 120:C:/Users/stapi/OneDrive/Desktop/GD32VW553/V1_MQTT_OK/GD32VW55X_Wifi_BLE_SDK/GD32VW55x_RELEASE_V1.0.2/MSDK/cloud/alicloud/src/services/shadow\shadow_common.c ****     size_free_space = pformat->buf_size - pformat->offset;
 386              		.loc 1 120 5 discriminator 4
 120:C:/Users/stapi/OneDrive/Desktop/GD32VW553/V1_MQTT_OK/GD32VW55X_Wifi_BLE_SDK/GD32VW55x_RELEASE_V1.0.2/MSDK/cloud/alicloud/src/services/shadow\shadow_common.c ****     size_free_space = pformat->buf_size - pformat->offset;
 387              		.loc 1 120 21 is_stmt 0 discriminator 4
 388 0042 0844     		lw	a0,8(s0)
 121:C:/Users/stapi/OneDrive/Desktop/GD32VW553/V1_MQTT_OK/GD32VW55X_Wifi_BLE_SDK/GD32VW55x_RELEASE_V1.0.2/MSDK/cloud/alicloud/src/services/shadow\shadow_common.c **** 
 389              		.loc 1 121 21 discriminator 4
 390 0044 4C40     		lw	a1,4(s0)
 124:C:/Users/stapi/OneDrive/Desktop/GD32VW553/V1_MQTT_OK/GD32VW55X_Wifi_BLE_SDK/GD32VW55x_RELEASE_V1.0.2/MSDK/cloud/alicloud/src/services/shadow\shadow_common.c ****             size_free_space,
 391              		.loc 1 124 11 discriminator 4
 392 0046 CE86     		mv	a3,s3
 120:C:/Users/stapi/OneDrive/Desktop/GD32VW553/V1_MQTT_OK/GD32VW55X_Wifi_BLE_SDK/GD32VW55x_RELEASE_V1.0.2/MSDK/cloud/alicloud/src/services/shadow\shadow_common.c ****     size_free_space = pformat->buf_size - pformat->offset;
 393              		.loc 1 120 21 discriminator 4
 394 0048 3E95     		add	a0,a5,a0
 124:C:/Users/stapi/OneDrive/Desktop/GD32VW553/V1_MQTT_OK/GD32VW55X_Wifi_BLE_SDK/GD32VW55x_RELEASE_V1.0.2/MSDK/cloud/alicloud/src/services/shadow\shadow_common.c ****             size_free_space,
 395              		.loc 1 124 11 discriminator 4
 396 004a 5C44     		lw	a5,12(s0)
 397              	.LVL46:
 120:C:/Users/stapi/OneDrive/Desktop/GD32VW553/V1_MQTT_OK/GD32VW55X_Wifi_BLE_SDK/GD32VW55x_RELEASE_V1.0.2/MSDK/cloud/alicloud/src/services/shadow\shadow_common.c ****     size_free_space = pformat->buf_size - pformat->offset;
 398              		.loc 1 120 21 discriminator 4
 399 004c 08C4     		sw	a0,8(s0)
 121:C:/Users/stapi/OneDrive/Desktop/GD32VW553/V1_MQTT_OK/GD32VW55X_Wifi_BLE_SDK/GD32VW55x_RELEASE_V1.0.2/MSDK/cloud/alicloud/src/services/shadow\shadow_common.c **** 
 400              		.loc 1 121 5 is_stmt 1 discriminator 4
 401              	.LVL47:
 124:C:/Users/stapi/OneDrive/Desktop/GD32VW553/V1_MQTT_OK/GD32VW55X_Wifi_BLE_SDK/GD32VW55x_RELEASE_V1.0.2/MSDK/cloud/alicloud/src/services/shadow\shadow_common.c ****             size_free_space,
 402              		.loc 1 124 5 discriminator 4
 124:C:/Users/stapi/OneDrive/Desktop/GD32VW553/V1_MQTT_OK/GD32VW55X_Wifi_BLE_SDK/GD32VW55x_RELEASE_V1.0.2/MSDK/cloud/alicloud/src/services/shadow\shadow_common.c ****             size_free_space,
 403              		.loc 1 124 11 is_stmt 0 discriminator 4
 404 004e 898D     		sub	a1,a1,a0
 405              	.LVL48:
 406 0050 4A86     		mv	a2,s2
 407 0052 3E95     		add	a0,a5,a0
 408 0054 97000000 		call	iotx_ds_common_convert_data2string
 408      E7800000 
 409              	.LVL49:
 128:C:/Users/stapi/OneDrive/Desktop/GD32VW553/V1_MQTT_OK/GD32VW55X_Wifi_BLE_SDK/GD32VW55x_RELEASE_V1.0.2/MSDK/cloud/alicloud/src/services/shadow\shadow_common.c ****         return FAIL_RETURN;
 410              		.loc 1 128 5 is_stmt 1 discriminator 4
 128:C:/Users/stapi/OneDrive/Desktop/GD32VW553/V1_MQTT_OK/GD32VW55X_Wifi_BLE_SDK/GD32VW55x_RELEASE_V1.0.2/MSDK/cloud/alicloud/src/services/shadow\shadow_common.c ****         return FAIL_RETURN;
 411              		.loc 1 128 8 is_stmt 0 discriminator 4
 412 005c 634D0500 		blt	a0,zero,.L36
 132:C:/Users/stapi/OneDrive/Desktop/GD32VW553/V1_MQTT_OK/GD32VW55X_Wifi_BLE_SDK/GD32VW55x_RELEASE_V1.0.2/MSDK/cloud/alicloud/src/services/shadow\shadow_common.c **** 
 413              		.loc 1 132 5 is_stmt 1
 132:C:/Users/stapi/OneDrive/Desktop/GD32VW553/V1_MQTT_OK/GD32VW55X_Wifi_BLE_SDK/GD32VW55x_RELEASE_V1.0.2/MSDK/cloud/alicloud/src/services/shadow\shadow_common.c **** 
 414              		.loc 1 132 21 is_stmt 0
 415 0060 1C44     		lw	a5,8(s0)
 416 0062 3E95     		add	a0,a5,a0
 417              	.LVL50:
 418 0064 08C4     		sw	a0,8(s0)
 134:C:/Users/stapi/OneDrive/Desktop/GD32VW553/V1_MQTT_OK/GD32VW55X_Wifi_BLE_SDK/GD32VW55x_RELEASE_V1.0.2/MSDK/cloud/alicloud/src/services/shadow\shadow_common.c **** }
 419              		.loc 1 134 5 is_stmt 1
 134:C:/Users/stapi/OneDrive/Desktop/GD32VW553/V1_MQTT_OK/GD32VW55X_Wifi_BLE_SDK/GD32VW55x_RELEASE_V1.0.2/MSDK/cloud/alicloud/src/services/shadow\shadow_common.c **** }
 420              		.loc 1 134 12 is_stmt 0
 421 0066 0145     		li	a0,0
 422 0068 01A8     		j	.L31
 423              	.LVL51:
 424              	.L32:
 100:C:/Users/stapi/OneDrive/Desktop/GD32VW553/V1_MQTT_OK/GD32VW55X_Wifi_BLE_SDK/GD32VW55x_RELEASE_V1.0.2/MSDK/cloud/alicloud/src/services/shadow\shadow_common.c ****         if (size_free_space > 1) { /* there is enough space to accommodate ',' char. */
 425              		.loc 1 100 54
 426 006a 9445     		lw	a3,8(a1)
 427              	.LVL52:
 100:C:/Users/stapi/OneDrive/Desktop/GD32VW553/V1_MQTT_OK/GD32VW55X_Wifi_BLE_SDK/GD32VW55x_RELEASE_V1.0.2/MSDK/cloud/alicloud/src/services/shadow\shadow_common.c ****         if (size_free_space > 1) { /* there is enough space to accommodate ',' char. */
 428              		.loc 1 100 9 is_stmt 1
 101:C:/Users/stapi/OneDrive/Desktop/GD32VW553/V1_MQTT_OK/GD32VW55X_Wifi_BLE_SDK/GD32VW55x_RELEASE_V1.0.2/MSDK/cloud/alicloud/src/services/shadow\shadow_common.c ****             *(pformat->buf + pformat->offset) = ',';
 429              		.loc 1 101 9
 100:C:/Users/stapi/OneDrive/Desktop/GD32VW553/V1_MQTT_OK/GD32VW55X_Wifi_BLE_SDK/GD32VW55x_RELEASE_V1.0.2/MSDK/cloud/alicloud/src/services/shadow\shadow_common.c ****         if (size_free_space > 1) { /* there is enough space to accommodate ',' char. */
 430              		.loc 1 100 25 is_stmt 0
 431 006c D841     		lw	a4,4(a1)
 432              	.LVL53:
 101:C:/Users/stapi/OneDrive/Desktop/GD32VW553/V1_MQTT_OK/GD32VW55X_Wifi_BLE_SDK/GD32VW55x_RELEASE_V1.0.2/MSDK/cloud/alicloud/src/services/shadow\shadow_common.c ****             *(pformat->buf + pformat->offset) = ',';
 433              		.loc 1 101 12
 434 006e 8547     		li	a5,1
 100:C:/Users/stapi/OneDrive/Desktop/GD32VW553/V1_MQTT_OK/GD32VW55X_Wifi_BLE_SDK/GD32VW55x_RELEASE_V1.0.2/MSDK/cloud/alicloud/src/services/shadow\shadow_common.c ****         if (size_free_space > 1) { /* there is enough space to accommodate ',' char. */
 435              		.loc 1 100 25
 436 0070 158F     		sub	a4,a4,a3
 101:C:/Users/stapi/OneDrive/Desktop/GD32VW553/V1_MQTT_OK/GD32VW55X_Wifi_BLE_SDK/GD32VW55x_RELEASE_V1.0.2/MSDK/cloud/alicloud/src/services/shadow\shadow_common.c ****             *(pformat->buf + pformat->offset) = ',';
 437              		.loc 1 101 12
 438 0072 63E7E700 		bgtu	a4,a5,.L34
 439              	.LVL54:
 440              	.L36:
 106:C:/Users/stapi/OneDrive/Desktop/GD32VW553/V1_MQTT_OK/GD32VW55X_Wifi_BLE_SDK/GD32VW55x_RELEASE_V1.0.2/MSDK/cloud/alicloud/src/services/shadow\shadow_common.c ****         }
 441              		.loc 1 106 20
 442 0076 7D55     		li	a0,-1
 443              	.L31:
 135:C:/Users/stapi/OneDrive/Desktop/GD32VW553/V1_MQTT_OK/GD32VW55X_Wifi_BLE_SDK/GD32VW55x_RELEASE_V1.0.2/MSDK/cloud/alicloud/src/services/shadow\shadow_common.c **** 
 444              		.loc 1 135 1
 445 0078 17030000 		tail	__riscv_restore_4
 445      67000300 
 446              		.cfi_remember_state
 447              		.cfi_restore 19
 448              		.cfi_restore 18
 449              		.cfi_restore 9
 450              		.cfi_restore 8
 451              		.cfi_restore 1
 452              		.cfi_def_cfa_offset 0
 453              	.LVL55:
 454              	.L34:
 455              		.cfi_restore_state
 102:C:/Users/stapi/OneDrive/Desktop/GD32VW553/V1_MQTT_OK/GD32VW55X_Wifi_BLE_SDK/GD32VW55x_RELEASE_V1.0.2/MSDK/cloud/alicloud/src/services/shadow\shadow_common.c ****             *(pformat->buf + pformat->offset + 1) = '\0';
 456              		.loc 1 102 13 is_stmt 1
 102:C:/Users/stapi/OneDrive/Desktop/GD32VW553/V1_MQTT_OK/GD32VW55X_Wifi_BLE_SDK/GD32VW55x_RELEASE_V1.0.2/MSDK/cloud/alicloud/src/services/shadow\shadow_common.c ****             *(pformat->buf + pformat->offset + 1) = '\0';
 457              		.loc 1 102 47 is_stmt 0
 458 0080 DC45     		lw	a5,12(a1)
 459 0082 1307C002 		li	a4,44
 460 0086 B697     		add	a5,a5,a3
 461 0088 2380E700 		sb	a4,0(a5)
 462              	.LVL56:
 103:C:/Users/stapi/OneDrive/Desktop/GD32VW553/V1_MQTT_OK/GD32VW55X_Wifi_BLE_SDK/GD32VW55x_RELEASE_V1.0.2/MSDK/cloud/alicloud/src/services/shadow\shadow_common.c ****             ++pformat->offset;
 463              		.loc 1 103 13 is_stmt 1
 103:C:/Users/stapi/OneDrive/Desktop/GD32VW553/V1_MQTT_OK/GD32VW55X_Wifi_BLE_SDK/GD32VW55x_RELEASE_V1.0.2/MSDK/cloud/alicloud/src/services/shadow\shadow_common.c ****             ++pformat->offset;
 464              		.loc 1 103 51 is_stmt 0
 465 008c 9845     		lw	a4,8(a1)
 466 008e DC45     		lw	a5,12(a1)
 467 0090 BA97     		add	a5,a5,a4
 468 0092 A3800700 		sb	zero,1(a5)
 104:C:/Users/stapi/OneDrive/Desktop/GD32VW553/V1_MQTT_OK/GD32VW55X_Wifi_BLE_SDK/GD32VW55x_RELEASE_V1.0.2/MSDK/cloud/alicloud/src/services/shadow\shadow_common.c ****         } else {
 469              		.loc 1 104 13 is_stmt 1
 470 0096 9C45     		lw	a5,8(a1)
 471 0098 8507     		addi	a5,a5,1
 472 009a 9CC5     		sw	a5,8(a1)
 473 009c ADBF     		j	.L33
 474              		.cfi_endproc
 475              	.LFE21:
 477              		.section	.rodata.iotx_ds_common_convert_string2data.str1.4,"aMS",@progbits,1
 478              		.align	2
 479              	.LC11:
 480 0000 74727565 		.string	"true"
 480      00
 481 0005 000000   		.align	2
 482              	.LC12:
 483 0008 66616C73 		.string	"false"
 483      6500
 484 000e 0000     		.align	2
 485              	.LC13:
 486 0010 6E756C6C 		.string	"null"
 486      00
 487              		.section	.text.iotx_ds_common_convert_string2data,"ax",@progbits
 488              		.align	1
 489              		.globl	iotx_ds_common_convert_string2data
 491              	iotx_ds_common_convert_string2data:
 492              	.LFB24:
 209:C:/Users/stapi/OneDrive/Desktop/GD32VW553/V1_MQTT_OK/GD32VW55X_Wifi_BLE_SDK/GD32VW55x_RELEASE_V1.0.2/MSDK/cloud/alicloud/src/services/shadow\shadow_common.c **** 
 210:C:/Users/stapi/OneDrive/Desktop/GD32VW553/V1_MQTT_OK/GD32VW55X_Wifi_BLE_SDK/GD32VW55x_RELEASE_V1.0.2/MSDK/cloud/alicloud/src/services/shadow\shadow_common.c **** 
 211:C:/Users/stapi/OneDrive/Desktop/GD32VW553/V1_MQTT_OK/GD32VW55X_Wifi_BLE_SDK/GD32VW55x_RELEASE_V1.0.2/MSDK/cloud/alicloud/src/services/shadow\shadow_common.c **** iotx_err_t iotx_ds_common_convert_string2data(
 212:C:/Users/stapi/OneDrive/Desktop/GD32VW553/V1_MQTT_OK/GD32VW55X_Wifi_BLE_SDK/GD32VW55x_RELEASE_V1.0.2/MSDK/cloud/alicloud/src/services/shadow\shadow_common.c ****             const char *buf,
 213:C:/Users/stapi/OneDrive/Desktop/GD32VW553/V1_MQTT_OK/GD32VW55X_Wifi_BLE_SDK/GD32VW55x_RELEASE_V1.0.2/MSDK/cloud/alicloud/src/services/shadow\shadow_common.c ****             size_t buf_len,
 214:C:/Users/stapi/OneDrive/Desktop/GD32VW553/V1_MQTT_OK/GD32VW55X_Wifi_BLE_SDK/GD32VW55x_RELEASE_V1.0.2/MSDK/cloud/alicloud/src/services/shadow\shadow_common.c ****             iotx_shadow_attr_datatype_t type,
 215:C:/Users/stapi/OneDrive/Desktop/GD32VW553/V1_MQTT_OK/GD32VW55X_Wifi_BLE_SDK/GD32VW55x_RELEASE_V1.0.2/MSDK/cloud/alicloud/src/services/shadow\shadow_common.c ****             void *pdata)
 216:C:/Users/stapi/OneDrive/Desktop/GD32VW553/V1_MQTT_OK/GD32VW55X_Wifi_BLE_SDK/GD32VW55x_RELEASE_V1.0.2/MSDK/cloud/alicloud/src/services/shadow\shadow_common.c **** {
 493              		.loc 1 216 1
 494              		.cfi_startproc
 495              	.LVL57:
 217:C:/Users/stapi/OneDrive/Desktop/GD32VW553/V1_MQTT_OK/GD32VW55X_Wifi_BLE_SDK/GD32VW55x_RELEASE_V1.0.2/MSDK/cloud/alicloud/src/services/shadow\shadow_common.c ****     if ((NULL == buf) || (buf_len == 0) || (NULL == pdata)) {
 496              		.loc 1 217 5
 497              		.loc 1 217 8 is_stmt 0
 498 0000 79C1     		beq	a0,zero,.L46
 216:C:/Users/stapi/OneDrive/Desktop/GD32VW553/V1_MQTT_OK/GD32VW55X_Wifi_BLE_SDK/GD32VW55x_RELEASE_V1.0.2/MSDK/cloud/alicloud/src/services/shadow\shadow_common.c ****     if ((NULL == buf) || (buf_len == 0) || (NULL == pdata)) {
 499              		.loc 1 216 1 discriminator 1
 500 0002 17030000 		call	t0,__riscv_save_3
 500      E7020300 
 501              		.cfi_offset 18, -16
 502              		.cfi_offset 9, -12
 503              		.cfi_offset 8, -8
 504              		.cfi_offset 1, -4
 505              		.cfi_def_cfa_offset 16
 506 000a AA84     		mv	s1,a0
 218:C:/Users/stapi/OneDrive/Desktop/GD32VW553/V1_MQTT_OK/GD32VW55X_Wifi_BLE_SDK/GD32VW55x_RELEASE_V1.0.2/MSDK/cloud/alicloud/src/services/shadow\shadow_common.c ****         return ERROR_NULL_VALUE;
 507              		.loc 1 218 16 discriminator 1
 508 000c 5D55     		li	a0,-9
 509              	.LVL58:
 217:C:/Users/stapi/OneDrive/Desktop/GD32VW553/V1_MQTT_OK/GD32VW55X_Wifi_BLE_SDK/GD32VW55x_RELEASE_V1.0.2/MSDK/cloud/alicloud/src/services/shadow\shadow_common.c ****     if ((NULL == buf) || (buf_len == 0) || (NULL == pdata)) {
 510              		.loc 1 217 23 discriminator 1
 511 000e 9DC1     		beq	a1,zero,.L39
 512 0010 3684     		mv	s0,a3
 217:C:/Users/stapi/OneDrive/Desktop/GD32VW553/V1_MQTT_OK/GD32VW55X_Wifi_BLE_SDK/GD32VW55x_RELEASE_V1.0.2/MSDK/cloud/alicloud/src/services/shadow\shadow_common.c ****     if ((NULL == buf) || (buf_len == 0) || (NULL == pdata)) {
 513              		.loc 1 217 41 discriminator 2
 514 0012 8DC2     		beq	a3,zero,.L39
 219:C:/Users/stapi/OneDrive/Desktop/GD32VW553/V1_MQTT_OK/GD32VW55X_Wifi_BLE_SDK/GD32VW55x_RELEASE_V1.0.2/MSDK/cloud/alicloud/src/services/shadow\shadow_common.c ****     }
 220:C:/Users/stapi/OneDrive/Desktop/GD32VW553/V1_MQTT_OK/GD32VW55X_Wifi_BLE_SDK/GD32VW55x_RELEASE_V1.0.2/MSDK/cloud/alicloud/src/services/shadow\shadow_common.c **** 
 221:C:/Users/stapi/OneDrive/Desktop/GD32VW553/V1_MQTT_OK/GD32VW55X_Wifi_BLE_SDK/GD32VW55x_RELEASE_V1.0.2/MSDK/cloud/alicloud/src/services/shadow\shadow_common.c ****     if (type == IOTX_SHADOW_INT32) {
 515              		.loc 1 221 8
 516 0014 8547     		li	a5,1
 517 0016 3289     		mv	s2,a2
 518              		.loc 1 221 5 is_stmt 1
 519              		.loc 1 221 8 is_stmt 0
 520 0018 6311F606 		bne	a2,a5,.L41
 222:C:/Users/stapi/OneDrive/Desktop/GD32VW553/V1_MQTT_OK/GD32VW55X_Wifi_BLE_SDK/GD32VW55x_RELEASE_V1.0.2/MSDK/cloud/alicloud/src/services/shadow\shadow_common.c ****         if (0 == strcmp(pdata, "true")) {
 521              		.loc 1 222 9 is_stmt 1
 522              		.loc 1 222 18 is_stmt 0
 523 001c B7050000 		lui	a1,%hi(.LC11)
 524              	.LVL59:
 525 0020 93850500 		addi	a1,a1,%lo(.LC11)
 526 0024 3685     		mv	a0,a3
 527 0026 97000000 		call	strcmp
 527      E7800000 
 528              	.LVL60:
 529              		.loc 1 222 12
 530 002e 19E5     		bne	a0,zero,.L42
 223:C:/Users/stapi/OneDrive/Desktop/GD32VW553/V1_MQTT_OK/GD32VW55X_Wifi_BLE_SDK/GD32VW55x_RELEASE_V1.0.2/MSDK/cloud/alicloud/src/services/shadow\shadow_common.c ****             *((int32_t *)pdata) = 1;
 531              		.loc 1 223 13 is_stmt 1
 532              		.loc 1 223 33 is_stmt 0
 533 0030 23202401 		sw	s2,0(s0)
 534              	.LVL61:
 535              	.L39:
 224:C:/Users/stapi/OneDrive/Desktop/GD32VW553/V1_MQTT_OK/GD32VW55X_Wifi_BLE_SDK/GD32VW55x_RELEASE_V1.0.2/MSDK/cloud/alicloud/src/services/shadow\shadow_common.c ****         } else if (0 == strcmp(pdata, "false")) {
 225:C:/Users/stapi/OneDrive/Desktop/GD32VW553/V1_MQTT_OK/GD32VW55X_Wifi_BLE_SDK/GD32VW55x_RELEASE_V1.0.2/MSDK/cloud/alicloud/src/services/shadow\shadow_common.c ****             *((int32_t *)pdata) = 0;
 226:C:/Users/stapi/OneDrive/Desktop/GD32VW553/V1_MQTT_OK/GD32VW55X_Wifi_BLE_SDK/GD32VW55x_RELEASE_V1.0.2/MSDK/cloud/alicloud/src/services/shadow\shadow_common.c ****         } else if (0 == strcmp(pdata, "null")) {
 227:C:/Users/stapi/OneDrive/Desktop/GD32VW553/V1_MQTT_OK/GD32VW55X_Wifi_BLE_SDK/GD32VW55x_RELEASE_V1.0.2/MSDK/cloud/alicloud/src/services/shadow\shadow_common.c ****             *((int32_t *)pdata) = 0;
 228:C:/Users/stapi/OneDrive/Desktop/GD32VW553/V1_MQTT_OK/GD32VW55X_Wifi_BLE_SDK/GD32VW55x_RELEASE_V1.0.2/MSDK/cloud/alicloud/src/services/shadow\shadow_common.c ****         } else {
 229:C:/Users/stapi/OneDrive/Desktop/GD32VW553/V1_MQTT_OK/GD32VW55X_Wifi_BLE_SDK/GD32VW55x_RELEASE_V1.0.2/MSDK/cloud/alicloud/src/services/shadow\shadow_common.c ****             *((int32_t *)pdata) = atoi(buf);
 230:C:/Users/stapi/OneDrive/Desktop/GD32VW553/V1_MQTT_OK/GD32VW55X_Wifi_BLE_SDK/GD32VW55x_RELEASE_V1.0.2/MSDK/cloud/alicloud/src/services/shadow\shadow_common.c ****         }
 231:C:/Users/stapi/OneDrive/Desktop/GD32VW553/V1_MQTT_OK/GD32VW55X_Wifi_BLE_SDK/GD32VW55x_RELEASE_V1.0.2/MSDK/cloud/alicloud/src/services/shadow\shadow_common.c ****     } else if (type == IOTX_SHADOW_STRING) {
 232:C:/Users/stapi/OneDrive/Desktop/GD32VW553/V1_MQTT_OK/GD32VW55X_Wifi_BLE_SDK/GD32VW55x_RELEASE_V1.0.2/MSDK/cloud/alicloud/src/services/shadow\shadow_common.c ****         memcpy(pdata, buf, buf_len);
 233:C:/Users/stapi/OneDrive/Desktop/GD32VW553/V1_MQTT_OK/GD32VW55X_Wifi_BLE_SDK/GD32VW55x_RELEASE_V1.0.2/MSDK/cloud/alicloud/src/services/shadow\shadow_common.c ****     } else {
 234:C:/Users/stapi/OneDrive/Desktop/GD32VW553/V1_MQTT_OK/GD32VW55X_Wifi_BLE_SDK/GD32VW55x_RELEASE_V1.0.2/MSDK/cloud/alicloud/src/services/shadow\shadow_common.c ****         shadow_err("Error data type");
 235:C:/Users/stapi/OneDrive/Desktop/GD32VW553/V1_MQTT_OK/GD32VW55X_Wifi_BLE_SDK/GD32VW55x_RELEASE_V1.0.2/MSDK/cloud/alicloud/src/services/shadow\shadow_common.c ****         return ERROR_SHADOW_UNDEF_TYPE;
 236:C:/Users/stapi/OneDrive/Desktop/GD32VW553/V1_MQTT_OK/GD32VW55X_Wifi_BLE_SDK/GD32VW55x_RELEASE_V1.0.2/MSDK/cloud/alicloud/src/services/shadow\shadow_common.c ****     }
 237:C:/Users/stapi/OneDrive/Desktop/GD32VW553/V1_MQTT_OK/GD32VW55X_Wifi_BLE_SDK/GD32VW55x_RELEASE_V1.0.2/MSDK/cloud/alicloud/src/services/shadow\shadow_common.c **** 
 238:C:/Users/stapi/OneDrive/Desktop/GD32VW553/V1_MQTT_OK/GD32VW55X_Wifi_BLE_SDK/GD32VW55x_RELEASE_V1.0.2/MSDK/cloud/alicloud/src/services/shadow\shadow_common.c ****     return SUCCESS_RETURN;
 239:C:/Users/stapi/OneDrive/Desktop/GD32VW553/V1_MQTT_OK/GD32VW55X_Wifi_BLE_SDK/GD32VW55x_RELEASE_V1.0.2/MSDK/cloud/alicloud/src/services/shadow\shadow_common.c **** }
 536              		.loc 1 239 1
 537 0034 17030000 		tail	__riscv_restore_3
 537      67000300 
 538              		.cfi_remember_state
 539              		.cfi_restore 18
 540              		.cfi_restore 9
 541              		.cfi_restore 8
 542              		.cfi_restore 1
 543              		.cfi_def_cfa_offset 0
 544              	.LVL62:
 545              	.L42:
 546              		.cfi_restore_state
 224:C:/Users/stapi/OneDrive/Desktop/GD32VW553/V1_MQTT_OK/GD32VW55X_Wifi_BLE_SDK/GD32VW55x_RELEASE_V1.0.2/MSDK/cloud/alicloud/src/services/shadow\shadow_common.c ****         } else if (0 == strcmp(pdata, "false")) {
 547              		.loc 1 224 16 is_stmt 1
 224:C:/Users/stapi/OneDrive/Desktop/GD32VW553/V1_MQTT_OK/GD32VW55X_Wifi_BLE_SDK/GD32VW55x_RELEASE_V1.0.2/MSDK/cloud/alicloud/src/services/shadow\shadow_common.c ****         } else if (0 == strcmp(pdata, "false")) {
 548              		.loc 1 224 25 is_stmt 0
 549 003c B7050000 		lui	a1,%hi(.LC12)
 550 0040 93850500 		addi	a1,a1,%lo(.LC12)
 551 0044 2285     		mv	a0,s0
 552 0046 97000000 		call	strcmp
 552      E7800000 
 553              	.LVL63:
 224:C:/Users/stapi/OneDrive/Desktop/GD32VW553/V1_MQTT_OK/GD32VW55X_Wifi_BLE_SDK/GD32VW55x_RELEASE_V1.0.2/MSDK/cloud/alicloud/src/services/shadow\shadow_common.c ****         } else if (0 == strcmp(pdata, "false")) {
 554              		.loc 1 224 19
 555 004e 09E5     		bne	a0,zero,.L43
 556              	.L44:
 225:C:/Users/stapi/OneDrive/Desktop/GD32VW553/V1_MQTT_OK/GD32VW55X_Wifi_BLE_SDK/GD32VW55x_RELEASE_V1.0.2/MSDK/cloud/alicloud/src/services/shadow\shadow_common.c ****         } else if (0 == strcmp(pdata, "null")) {
 557              		.loc 1 225 13 is_stmt 1
 225:C:/Users/stapi/OneDrive/Desktop/GD32VW553/V1_MQTT_OK/GD32VW55X_Wifi_BLE_SDK/GD32VW55x_RELEASE_V1.0.2/MSDK/cloud/alicloud/src/services/shadow\shadow_common.c ****         } else if (0 == strcmp(pdata, "null")) {
 558              		.loc 1 225 33 is_stmt 0
 559 0050 23200400 		sw	zero,0(s0)
 560              	.L56:
 238:C:/Users/stapi/OneDrive/Desktop/GD32VW553/V1_MQTT_OK/GD32VW55X_Wifi_BLE_SDK/GD32VW55x_RELEASE_V1.0.2/MSDK/cloud/alicloud/src/services/shadow\shadow_common.c **** }
 561              		.loc 1 238 12
 562 0054 0145     		li	a0,0
 563 0056 F9BF     		j	.L39
 564              	.L43:
 226:C:/Users/stapi/OneDrive/Desktop/GD32VW553/V1_MQTT_OK/GD32VW55X_Wifi_BLE_SDK/GD32VW55x_RELEASE_V1.0.2/MSDK/cloud/alicloud/src/services/shadow\shadow_common.c ****             *((int32_t *)pdata) = 0;
 565              		.loc 1 226 16 is_stmt 1
 226:C:/Users/stapi/OneDrive/Desktop/GD32VW553/V1_MQTT_OK/GD32VW55X_Wifi_BLE_SDK/GD32VW55x_RELEASE_V1.0.2/MSDK/cloud/alicloud/src/services/shadow\shadow_common.c ****             *((int32_t *)pdata) = 0;
 566              		.loc 1 226 25 is_stmt 0
 567 0058 B7050000 		lui	a1,%hi(.LC13)
 568 005c 93850500 		addi	a1,a1,%lo(.LC13)
 569 0060 2285     		mv	a0,s0
 570 0062 97000000 		call	strcmp
 570      E7800000 
 571              	.LVL64:
 226:C:/Users/stapi/OneDrive/Desktop/GD32VW553/V1_MQTT_OK/GD32VW55X_Wifi_BLE_SDK/GD32VW55x_RELEASE_V1.0.2/MSDK/cloud/alicloud/src/services/shadow\shadow_common.c ****             *((int32_t *)pdata) = 0;
 572              		.loc 1 226 19
 573 006a 7DD1     		beq	a0,zero,.L44
 229:C:/Users/stapi/OneDrive/Desktop/GD32VW553/V1_MQTT_OK/GD32VW55X_Wifi_BLE_SDK/GD32VW55x_RELEASE_V1.0.2/MSDK/cloud/alicloud/src/services/shadow\shadow_common.c ****         }
 574              		.loc 1 229 13 is_stmt 1
 229:C:/Users/stapi/OneDrive/Desktop/GD32VW553/V1_MQTT_OK/GD32VW55X_Wifi_BLE_SDK/GD32VW55x_RELEASE_V1.0.2/MSDK/cloud/alicloud/src/services/shadow\shadow_common.c ****         }
 575              		.loc 1 229 35 is_stmt 0
 576 006c 2685     		mv	a0,s1
 577 006e 97000000 		call	atoi
 577      E7800000 
 578              	.LVL65:
 229:C:/Users/stapi/OneDrive/Desktop/GD32VW553/V1_MQTT_OK/GD32VW55X_Wifi_BLE_SDK/GD32VW55x_RELEASE_V1.0.2/MSDK/cloud/alicloud/src/services/shadow\shadow_common.c ****         }
 579              		.loc 1 229 33
 580 0076 08C0     		sw	a0,0(s0)
 581 0078 F1BF     		j	.L56
 582              	.LVL66:
 583              	.L41:
 231:C:/Users/stapi/OneDrive/Desktop/GD32VW553/V1_MQTT_OK/GD32VW55X_Wifi_BLE_SDK/GD32VW55x_RELEASE_V1.0.2/MSDK/cloud/alicloud/src/services/shadow\shadow_common.c ****         memcpy(pdata, buf, buf_len);
 584              		.loc 1 231 12 is_stmt 1
 231:C:/Users/stapi/OneDrive/Desktop/GD32VW553/V1_MQTT_OK/GD32VW55X_Wifi_BLE_SDK/GD32VW55x_RELEASE_V1.0.2/MSDK/cloud/alicloud/src/services/shadow\shadow_common.c ****         memcpy(pdata, buf, buf_len);
 585              		.loc 1 231 15 is_stmt 0
 586 007a 8947     		li	a5,2
 587 007c 631AF600 		bne	a2,a5,.L45
 232:C:/Users/stapi/OneDrive/Desktop/GD32VW553/V1_MQTT_OK/GD32VW55X_Wifi_BLE_SDK/GD32VW55x_RELEASE_V1.0.2/MSDK/cloud/alicloud/src/services/shadow\shadow_common.c ****     } else {
 588              		.loc 1 232 9 is_stmt 1
 589 0080 2E86     		mv	a2,a1
 590              	.LVL67:
 591 0082 3685     		mv	a0,a3
 592 0084 A685     		mv	a1,s1
 593              	.LVL68:
 594 0086 97000000 		call	memcpy
 594      E7800000 
 595              	.LVL69:
 596 008e D9B7     		j	.L56
 597              	.LVL70:
 598              	.L45:
 234:C:/Users/stapi/OneDrive/Desktop/GD32VW553/V1_MQTT_OK/GD32VW55X_Wifi_BLE_SDK/GD32VW55x_RELEASE_V1.0.2/MSDK/cloud/alicloud/src/services/shadow\shadow_common.c ****         return ERROR_SHADOW_UNDEF_TYPE;
 599              		.loc 1 234 9
 234:C:/Users/stapi/OneDrive/Desktop/GD32VW553/V1_MQTT_OK/GD32VW55X_Wifi_BLE_SDK/GD32VW55x_RELEASE_V1.0.2/MSDK/cloud/alicloud/src/services/shadow\shadow_common.c ****         return ERROR_SHADOW_UNDEF_TYPE;
 600              		.loc 1 234 9
 601 0090 37050000 		lui	a0,%hi(.LC7)
 602 0094 13050500 		addi	a0,a0,%lo(.LC7)
 603 0098 97000000 		call	HAL_Printf
 603      E7800000 
 604              	.LVL71:
 234:C:/Users/stapi/OneDrive/Desktop/GD32VW553/V1_MQTT_OK/GD32VW55X_Wifi_BLE_SDK/GD32VW55x_RELEASE_V1.0.2/MSDK/cloud/alicloud/src/services/shadow\shadow_common.c ****         return ERROR_SHADOW_UNDEF_TYPE;
 605              		.loc 1 234 9
 606 00a0 37050000 		lui	a0,%hi(.LC8)
 607 00a4 13050500 		addi	a0,a0,%lo(.LC8)
 608 00a8 97000000 		call	HAL_Printf
 608      E7800000 
 609              	.LVL72:
 234:C:/Users/stapi/OneDrive/Desktop/GD32VW553/V1_MQTT_OK/GD32VW55X_Wifi_BLE_SDK/GD32VW55x_RELEASE_V1.0.2/MSDK/cloud/alicloud/src/services/shadow\shadow_common.c ****         return ERROR_SHADOW_UNDEF_TYPE;
 610              		.loc 1 234 9
 611 00b0 37050000 		lui	a0,%hi(.LC9)
 612 00b4 13050500 		addi	a0,a0,%lo(.LC9)
 613 00b8 97000000 		call	HAL_Printf
 613      E7800000 
 614              	.LVL73:
 234:C:/Users/stapi/OneDrive/Desktop/GD32VW553/V1_MQTT_OK/GD32VW55X_Wifi_BLE_SDK/GD32VW55x_RELEASE_V1.0.2/MSDK/cloud/alicloud/src/services/shadow\shadow_common.c ****         return ERROR_SHADOW_UNDEF_TYPE;
 615              		.loc 1 234 9
 235:C:/Users/stapi/OneDrive/Desktop/GD32VW553/V1_MQTT_OK/GD32VW55X_Wifi_BLE_SDK/GD32VW55x_RELEASE_V1.0.2/MSDK/cloud/alicloud/src/services/shadow\shadow_common.c ****     }
 616              		.loc 1 235 9
 235:C:/Users/stapi/OneDrive/Desktop/GD32VW553/V1_MQTT_OK/GD32VW55X_Wifi_BLE_SDK/GD32VW55x_RELEASE_V1.0.2/MSDK/cloud/alicloud/src/services/shadow\shadow_common.c ****     }
 617              		.loc 1 235 16 is_stmt 0
 618 00c0 13059082 		li	a0,-2007
 619 00c4 85BF     		j	.L39
 620              	.LVL74:
 621              	.L46:
 622              		.cfi_def_cfa_offset 0
 623              		.cfi_restore 1
 624              		.cfi_restore 8
 625              		.cfi_restore 9
 626              		.cfi_restore 18
 218:C:/Users/stapi/OneDrive/Desktop/GD32VW553/V1_MQTT_OK/GD32VW55X_Wifi_BLE_SDK/GD32VW55x_RELEASE_V1.0.2/MSDK/cloud/alicloud/src/services/shadow\shadow_common.c ****     }
 627              		.loc 1 218 16
 628 00c6 5D55     		li	a0,-9
 629              	.LVL75:
 630              		.loc 1 239 1
 631 00c8 8280     		ret
 632              		.cfi_endproc
 633              	.LFE24:
 635              		.section	.rodata.iotx_ds_common_update_time.str1.4,"aMS",@progbits,1
 636              		.align	2
 637              	.LC14:
 638 0000 5B696E66 		.string	"[inf] "
 638      5D2000
 639 0007 00       		.align	2
 640              	.LC15:
 641 0008 75706461 		.string	"update system time"
 641      74652073 
 641      79737465 
 641      6D207469 
 641      6D6500
 642 001b 00       		.align	2
 643              	.LC16:
 644 001c 75706461 		.string	"update system time failed."
 644      74652073 
 644      79737465 
 644      6D207469 
 644      6D652066 
 645              		.section	.text.iotx_ds_common_update_time,"ax",@progbits
 646              		.align	1
 647              		.globl	iotx_ds_common_update_time
 649              	iotx_ds_common_update_time:
 650              	.LFB25:
 240:C:/Users/stapi/OneDrive/Desktop/GD32VW553/V1_MQTT_OK/GD32VW55X_Wifi_BLE_SDK/GD32VW55x_RELEASE_V1.0.2/MSDK/cloud/alicloud/src/services/shadow\shadow_common.c **** 
 241:C:/Users/stapi/OneDrive/Desktop/GD32VW553/V1_MQTT_OK/GD32VW55X_Wifi_BLE_SDK/GD32VW55x_RELEASE_V1.0.2/MSDK/cloud/alicloud/src/services/shadow\shadow_common.c **** /* as the timestamp is second granularity, update maybe the same. */
 242:C:/Users/stapi/OneDrive/Desktop/GD32VW553/V1_MQTT_OK/GD32VW55X_Wifi_BLE_SDK/GD32VW55x_RELEASE_V1.0.2/MSDK/cloud/alicloud/src/services/shadow\shadow_common.c **** int iotx_ds_common_update_time(iotx_shadow_pt pshadow, uint32_t new_timestamp)
 243:C:/Users/stapi/OneDrive/Desktop/GD32VW553/V1_MQTT_OK/GD32VW55X_Wifi_BLE_SDK/GD32VW55x_RELEASE_V1.0.2/MSDK/cloud/alicloud/src/services/shadow\shadow_common.c **** {
 651              		.loc 1 243 1 is_stmt 1
 652              		.cfi_startproc
 653              	.LVL76:
 654 0000 17030000 		call	t0,__riscv_save_3
 654      E7020300 
 655              		.cfi_offset 18, -16
 656              		.cfi_offset 9, -12
 657              		.cfi_offset 8, -8
 658              		.cfi_offset 1, -4
 659              		.cfi_def_cfa_offset 16
 244:C:/Users/stapi/OneDrive/Desktop/GD32VW553/V1_MQTT_OK/GD32VW55X_Wifi_BLE_SDK/GD32VW55x_RELEASE_V1.0.2/MSDK/cloud/alicloud/src/services/shadow\shadow_common.c ****     int ret = 0;
 660              		.loc 1 244 5
 661              	.LVL77:
 245:C:/Users/stapi/OneDrive/Desktop/GD32VW553/V1_MQTT_OK/GD32VW55X_Wifi_BLE_SDK/GD32VW55x_RELEASE_V1.0.2/MSDK/cloud/alicloud/src/services/shadow\shadow_common.c **** 
 246:C:/Users/stapi/OneDrive/Desktop/GD32VW553/V1_MQTT_OK/GD32VW55X_Wifi_BLE_SDK/GD32VW55x_RELEASE_V1.0.2/MSDK/cloud/alicloud/src/services/shadow\shadow_common.c ****     HAL_MutexLock(pshadow->mutex);
 662              		.loc 1 246 5
 243:C:/Users/stapi/OneDrive/Desktop/GD32VW553/V1_MQTT_OK/GD32VW55X_Wifi_BLE_SDK/GD32VW55x_RELEASE_V1.0.2/MSDK/cloud/alicloud/src/services/shadow\shadow_common.c ****     int ret = 0;
 663              		.loc 1 243 1 is_stmt 0
 664 0008 2A84     		mv	s0,a0
 665              		.loc 1 246 5
 666 000a 4841     		lw	a0,4(a0)
 667              	.LVL78:
 243:C:/Users/stapi/OneDrive/Desktop/GD32VW553/V1_MQTT_OK/GD32VW55X_Wifi_BLE_SDK/GD32VW55x_RELEASE_V1.0.2/MSDK/cloud/alicloud/src/services/shadow\shadow_common.c ****     int ret = 0;
 668              		.loc 1 243 1
 669 000c AE84     		mv	s1,a1
 670 000e 37090000 		lui	s2,%hi(.LC9)
 671              		.loc 1 246 5
 672 0012 97000000 		call	HAL_MutexLock
 672      E7800000 
 673              	.LVL79:
 247:C:/Users/stapi/OneDrive/Desktop/GD32VW553/V1_MQTT_OK/GD32VW55X_Wifi_BLE_SDK/GD32VW55x_RELEASE_V1.0.2/MSDK/cloud/alicloud/src/services/shadow\shadow_common.c ****     pshadow->inner_data.time.base_system_time = utils_time_get_ms();
 674              		.loc 1 247 5 is_stmt 1
 675              		.loc 1 247 49 is_stmt 0
 676 001a 97000000 		call	utils_time_get_ms
 676      E7800000 
 677              	.LVL80:
 248:C:/Users/stapi/OneDrive/Desktop/GD32VW553/V1_MQTT_OK/GD32VW55X_Wifi_BLE_SDK/GD32VW55x_RELEASE_V1.0.2/MSDK/cloud/alicloud/src/services/shadow\shadow_common.c ****     if(new_timestamp >= pshadow->inner_data.time.epoch_time){
 678              		.loc 1 248 7
 679 0022 5C48     		lw	a5,20(s0)
 247:C:/Users/stapi/OneDrive/Desktop/GD32VW553/V1_MQTT_OK/GD32VW55X_Wifi_BLE_SDK/GD32VW55x_RELEASE_V1.0.2/MSDK/cloud/alicloud/src/services/shadow\shadow_common.c ****     pshadow->inner_data.time.base_system_time = utils_time_get_ms();
 680              		.loc 1 247 47
 681 0024 08C8     		sw	a0,16(s0)
 682              		.loc 1 248 5 is_stmt 1
 683 0026 37050000 		lui	a0,%hi(.LC14)
 684              		.loc 1 248 7 is_stmt 0
 685 002a 63E2F404 		bgtu	a5,s1,.L58
 249:C:/Users/stapi/OneDrive/Desktop/GD32VW553/V1_MQTT_OK/GD32VW55X_Wifi_BLE_SDK/GD32VW55x_RELEASE_V1.0.2/MSDK/cloud/alicloud/src/services/shadow\shadow_common.c ****         pshadow->inner_data.time.epoch_time = new_timestamp;
 686              		.loc 1 249 9 is_stmt 1
 687              		.loc 1 249 45 is_stmt 0
 688 002e 44C8     		sw	s1,20(s0)
 250:C:/Users/stapi/OneDrive/Desktop/GD32VW553/V1_MQTT_OK/GD32VW55X_Wifi_BLE_SDK/GD32VW55x_RELEASE_V1.0.2/MSDK/cloud/alicloud/src/services/shadow\shadow_common.c ****         ret = SUCCESS_RETURN;
 689              		.loc 1 250 9 is_stmt 1
 251:C:/Users/stapi/OneDrive/Desktop/GD32VW553/V1_MQTT_OK/GD32VW55X_Wifi_BLE_SDK/GD32VW55x_RELEASE_V1.0.2/MSDK/cloud/alicloud/src/services/shadow\shadow_common.c ****         shadow_info("update system time");
 690              		.loc 1 251 9
 691              		.loc 1 251 9
 692 0030 13050500 		addi	a0,a0,%lo(.LC14)
 693 0034 97000000 		call	HAL_Printf
 693      E7800000 
 694              	.LVL81:
 695              		.loc 1 251 9
 696 003c 37050000 		lui	a0,%hi(.LC15)
 697 0040 13050500 		addi	a0,a0,%lo(.LC15)
 698 0044 97000000 		call	HAL_Printf
 698      E7800000 
 699              	.LVL82:
 700              		.loc 1 251 9
 701 004c 13050900 		addi	a0,s2,%lo(.LC9)
 702 0050 97000000 		call	HAL_Printf
 702      E7800000 
 703              	.LVL83:
 704              		.loc 1 251 9
 250:C:/Users/stapi/OneDrive/Desktop/GD32VW553/V1_MQTT_OK/GD32VW55X_Wifi_BLE_SDK/GD32VW55x_RELEASE_V1.0.2/MSDK/cloud/alicloud/src/services/shadow\shadow_common.c ****         ret = SUCCESS_RETURN;
 705              		.loc 1 250 13 is_stmt 0
 706 0058 8144     		li	s1,0
 707              	.LVL84:
 708              	.L59:
 252:C:/Users/stapi/OneDrive/Desktop/GD32VW553/V1_MQTT_OK/GD32VW55X_Wifi_BLE_SDK/GD32VW55x_RELEASE_V1.0.2/MSDK/cloud/alicloud/src/services/shadow\shadow_common.c ****     }else{
 253:C:/Users/stapi/OneDrive/Desktop/GD32VW553/V1_MQTT_OK/GD32VW55X_Wifi_BLE_SDK/GD32VW55x_RELEASE_V1.0.2/MSDK/cloud/alicloud/src/services/shadow\shadow_common.c ****         ret = FAIL_RETURN;
 254:C:/Users/stapi/OneDrive/Desktop/GD32VW553/V1_MQTT_OK/GD32VW55X_Wifi_BLE_SDK/GD32VW55x_RELEASE_V1.0.2/MSDK/cloud/alicloud/src/services/shadow\shadow_common.c ****         shadow_info("update system time failed.");
 709              		.loc 1 254 9 is_stmt 1 discriminator 1
 255:C:/Users/stapi/OneDrive/Desktop/GD32VW553/V1_MQTT_OK/GD32VW55X_Wifi_BLE_SDK/GD32VW55x_RELEASE_V1.0.2/MSDK/cloud/alicloud/src/services/shadow\shadow_common.c ****     }
 256:C:/Users/stapi/OneDrive/Desktop/GD32VW553/V1_MQTT_OK/GD32VW55X_Wifi_BLE_SDK/GD32VW55x_RELEASE_V1.0.2/MSDK/cloud/alicloud/src/services/shadow\shadow_common.c **** 
 257:C:/Users/stapi/OneDrive/Desktop/GD32VW553/V1_MQTT_OK/GD32VW55X_Wifi_BLE_SDK/GD32VW55x_RELEASE_V1.0.2/MSDK/cloud/alicloud/src/services/shadow\shadow_common.c ****     HAL_MutexUnlock(pshadow->mutex);
 710              		.loc 1 257 5 discriminator 1
 711 005a 4840     		lw	a0,4(s0)
 712 005c 97000000 		call	HAL_MutexUnlock
 712      E7800000 
 713              	.LVL85:
 258:C:/Users/stapi/OneDrive/Desktop/GD32VW553/V1_MQTT_OK/GD32VW55X_Wifi_BLE_SDK/GD32VW55x_RELEASE_V1.0.2/MSDK/cloud/alicloud/src/services/shadow\shadow_common.c **** 
 259:C:/Users/stapi/OneDrive/Desktop/GD32VW553/V1_MQTT_OK/GD32VW55X_Wifi_BLE_SDK/GD32VW55x_RELEASE_V1.0.2/MSDK/cloud/alicloud/src/services/shadow\shadow_common.c ****     return ret;
 714              		.loc 1 259 5 discriminator 1
 260:C:/Users/stapi/OneDrive/Desktop/GD32VW553/V1_MQTT_OK/GD32VW55X_Wifi_BLE_SDK/GD32VW55x_RELEASE_V1.0.2/MSDK/cloud/alicloud/src/services/shadow\shadow_common.c **** }
 715              		.loc 1 260 1 is_stmt 0 discriminator 1
 716 0064 2685     		mv	a0,s1
 717 0066 17030000 		tail	__riscv_restore_3
 717      67000300 
 718              		.cfi_remember_state
 719              		.cfi_restore 18
 720              		.cfi_restore 9
 721              		.cfi_restore 8
 722              		.cfi_restore 1
 723              		.cfi_def_cfa_offset 0
 724              	.LVL86:
 725              	.L58:
 726              		.cfi_restore_state
 253:C:/Users/stapi/OneDrive/Desktop/GD32VW553/V1_MQTT_OK/GD32VW55X_Wifi_BLE_SDK/GD32VW55x_RELEASE_V1.0.2/MSDK/cloud/alicloud/src/services/shadow\shadow_common.c ****         shadow_info("update system time failed.");
 727              		.loc 1 253 9 is_stmt 1
 254:C:/Users/stapi/OneDrive/Desktop/GD32VW553/V1_MQTT_OK/GD32VW55X_Wifi_BLE_SDK/GD32VW55x_RELEASE_V1.0.2/MSDK/cloud/alicloud/src/services/shadow\shadow_common.c ****     }
 728              		.loc 1 254 9
 254:C:/Users/stapi/OneDrive/Desktop/GD32VW553/V1_MQTT_OK/GD32VW55X_Wifi_BLE_SDK/GD32VW55x_RELEASE_V1.0.2/MSDK/cloud/alicloud/src/services/shadow\shadow_common.c ****     }
 729              		.loc 1 254 9
 730 006e 13050500 		addi	a0,a0,%lo(.LC14)
 731 0072 97000000 		call	HAL_Printf
 731      E7800000 
 732              	.LVL87:
 254:C:/Users/stapi/OneDrive/Desktop/GD32VW553/V1_MQTT_OK/GD32VW55X_Wifi_BLE_SDK/GD32VW55x_RELEASE_V1.0.2/MSDK/cloud/alicloud/src/services/shadow\shadow_common.c ****     }
 733              		.loc 1 254 9
 734 007a 37050000 		lui	a0,%hi(.LC16)
 735 007e 13050500 		addi	a0,a0,%lo(.LC16)
 736 0082 97000000 		call	HAL_Printf
 736      E7800000 
 737              	.LVL88:
 254:C:/Users/stapi/OneDrive/Desktop/GD32VW553/V1_MQTT_OK/GD32VW55X_Wifi_BLE_SDK/GD32VW55x_RELEASE_V1.0.2/MSDK/cloud/alicloud/src/services/shadow\shadow_common.c ****     }
 738              		.loc 1 254 9
 739 008a 13050900 		addi	a0,s2,%lo(.LC9)
 740 008e 97000000 		call	HAL_Printf
 740      E7800000 
 741              	.LVL89:
 253:C:/Users/stapi/OneDrive/Desktop/GD32VW553/V1_MQTT_OK/GD32VW55X_Wifi_BLE_SDK/GD32VW55x_RELEASE_V1.0.2/MSDK/cloud/alicloud/src/services/shadow\shadow_common.c ****         shadow_info("update system time failed.");
 742              		.loc 1 253 13 is_stmt 0
 743 0096 FD54     		li	s1,-1
 744              	.LVL90:
 745 0098 C9B7     		j	.L59
 746              		.cfi_endproc
 747              	.LFE25:
 749              		.section	.text.iotx_ds_common_check_attr_existence,"ax",@progbits
 750              		.align	1
 751              		.globl	iotx_ds_common_check_attr_existence
 753              	iotx_ds_common_check_attr_existence:
 754              	.LFB26:
 261:C:/Users/stapi/OneDrive/Desktop/GD32VW553/V1_MQTT_OK/GD32VW55X_Wifi_BLE_SDK/GD32VW55x_RELEASE_V1.0.2/MSDK/cloud/alicloud/src/services/shadow\shadow_common.c **** 
 262:C:/Users/stapi/OneDrive/Desktop/GD32VW553/V1_MQTT_OK/GD32VW55X_Wifi_BLE_SDK/GD32VW55x_RELEASE_V1.0.2/MSDK/cloud/alicloud/src/services/shadow\shadow_common.c **** 
 263:C:/Users/stapi/OneDrive/Desktop/GD32VW553/V1_MQTT_OK/GD32VW55X_Wifi_BLE_SDK/GD32VW55x_RELEASE_V1.0.2/MSDK/cloud/alicloud/src/services/shadow\shadow_common.c **** int iotx_ds_common_check_attr_existence(
 264:C:/Users/stapi/OneDrive/Desktop/GD32VW553/V1_MQTT_OK/GD32VW55X_Wifi_BLE_SDK/GD32VW55x_RELEASE_V1.0.2/MSDK/cloud/alicloud/src/services/shadow\shadow_common.c ****             iotx_shadow_pt pshadow,
 265:C:/Users/stapi/OneDrive/Desktop/GD32VW553/V1_MQTT_OK/GD32VW55X_Wifi_BLE_SDK/GD32VW55x_RELEASE_V1.0.2/MSDK/cloud/alicloud/src/services/shadow\shadow_common.c ****             iotx_shadow_attr_pt pattr)
 266:C:/Users/stapi/OneDrive/Desktop/GD32VW553/V1_MQTT_OK/GD32VW55X_Wifi_BLE_SDK/GD32VW55x_RELEASE_V1.0.2/MSDK/cloud/alicloud/src/services/shadow\shadow_common.c **** {
 755              		.loc 1 266 1 is_stmt 1
 756              		.cfi_startproc
 757              	.LVL91:
 758 0000 17030000 		call	t0,__riscv_save_2
 758      E7020300 
 759              		.cfi_offset 9, -12
 760              		.cfi_offset 8, -8
 761              		.cfi_offset 1, -4
 762              		.cfi_def_cfa_offset 16
 267:C:/Users/stapi/OneDrive/Desktop/GD32VW553/V1_MQTT_OK/GD32VW55X_Wifi_BLE_SDK/GD32VW55x_RELEASE_V1.0.2/MSDK/cloud/alicloud/src/services/shadow\shadow_common.c ****     list_node_t *node;
 763              		.loc 1 267 5
 268:C:/Users/stapi/OneDrive/Desktop/GD32VW553/V1_MQTT_OK/GD32VW55X_Wifi_BLE_SDK/GD32VW55x_RELEASE_V1.0.2/MSDK/cloud/alicloud/src/services/shadow\shadow_common.c **** 
 269:C:/Users/stapi/OneDrive/Desktop/GD32VW553/V1_MQTT_OK/GD32VW55X_Wifi_BLE_SDK/GD32VW55x_RELEASE_V1.0.2/MSDK/cloud/alicloud/src/services/shadow\shadow_common.c ****     HAL_MutexLock(pshadow->mutex);
 764              		.loc 1 269 5
 266:C:/Users/stapi/OneDrive/Desktop/GD32VW553/V1_MQTT_OK/GD32VW55X_Wifi_BLE_SDK/GD32VW55x_RELEASE_V1.0.2/MSDK/cloud/alicloud/src/services/shadow\shadow_common.c ****     list_node_t *node;
 765              		.loc 1 266 1 is_stmt 0
 766 0008 2A84     		mv	s0,a0
 767              		.loc 1 269 5
 768 000a 4841     		lw	a0,4(a0)
 769              	.LVL92:
 266:C:/Users/stapi/OneDrive/Desktop/GD32VW553/V1_MQTT_OK/GD32VW55X_Wifi_BLE_SDK/GD32VW55x_RELEASE_V1.0.2/MSDK/cloud/alicloud/src/services/shadow\shadow_common.c ****     list_node_t *node;
 770              		.loc 1 266 1
 771 000c 4111     		addi	sp,sp,-16
 772              		.cfi_def_cfa_offset 32
 266:C:/Users/stapi/OneDrive/Desktop/GD32VW553/V1_MQTT_OK/GD32VW55X_Wifi_BLE_SDK/GD32VW55x_RELEASE_V1.0.2/MSDK/cloud/alicloud/src/services/shadow\shadow_common.c ****     list_node_t *node;
 773              		.loc 1 266 1
 774 000e 2EC6     		sw	a1,12(sp)
 775              		.loc 1 269 5
 776 0010 97000000 		call	HAL_MutexLock
 776      E7800000 
 777              	.LVL93:
 270:C:/Users/stapi/OneDrive/Desktop/GD32VW553/V1_MQTT_OK/GD32VW55X_Wifi_BLE_SDK/GD32VW55x_RELEASE_V1.0.2/MSDK/cloud/alicloud/src/services/shadow\shadow_common.c ****     node = list_find(pshadow->inner_data.attr_list, pattr);
 778              		.loc 1 270 5 is_stmt 1
 779              		.loc 1 270 12 is_stmt 0
 780 0018 B245     		lw	a1,12(sp)
 781 001a 0325842E 		lw	a0,744(s0)
 782 001e 97000000 		call	list_find
 782      E7800000 
 783              	.LVL94:
 784 0026 AA84     		mv	s1,a0
 785              	.LVL95:
 271:C:/Users/stapi/OneDrive/Desktop/GD32VW553/V1_MQTT_OK/GD32VW55X_Wifi_BLE_SDK/GD32VW55x_RELEASE_V1.0.2/MSDK/cloud/alicloud/src/services/shadow\shadow_common.c ****     HAL_MutexUnlock(pshadow->mutex);
 786              		.loc 1 271 5 is_stmt 1
 787 0028 4840     		lw	a0,4(s0)
 788 002a 97000000 		call	HAL_MutexUnlock
 788      E7800000 
 789              	.LVL96:
 272:C:/Users/stapi/OneDrive/Desktop/GD32VW553/V1_MQTT_OK/GD32VW55X_Wifi_BLE_SDK/GD32VW55x_RELEASE_V1.0.2/MSDK/cloud/alicloud/src/services/shadow\shadow_common.c **** 
 273:C:/Users/stapi/OneDrive/Desktop/GD32VW553/V1_MQTT_OK/GD32VW55X_Wifi_BLE_SDK/GD32VW55x_RELEASE_V1.0.2/MSDK/cloud/alicloud/src/services/shadow\shadow_common.c ****     return (NULL != node);
 790              		.loc 1 273 5
 274:C:/Users/stapi/OneDrive/Desktop/GD32VW553/V1_MQTT_OK/GD32VW55X_Wifi_BLE_SDK/GD32VW55x_RELEASE_V1.0.2/MSDK/cloud/alicloud/src/services/shadow\shadow_common.c **** }
 791              		.loc 1 274 1 is_stmt 0
 792 0032 33359000 		snez	a0,s1
 793 0036 4101     		addi	sp,sp,16
 794              		.cfi_def_cfa_offset 0
 795              	.LVL97:
 796 0038 17030000 		tail	__riscv_restore_2
 796      67000300 
 797              		.cfi_restore 9
 798              		.cfi_restore 8
 799              		.cfi_restore 1
 800              		.cfi_def_cfa_offset -16
 801              		.cfi_endproc
 802              	.LFE26:
 804              		.section	.rodata.iotx_ds_common_register_attr.str1.4,"aMS",@progbits,1
 805              		.align	2
 806              	.LC17:
 807 0000 72656769 		.string	"register attr: %s"
 807      73746572 
 807      20617474 
 807      723A2025 
 807      7300
 808 0012 0000     		.align	2
 809              	.LC18:
 810 0014 73686164 		.string	"shadow"
 810      6F7700
 811              		.section	.text.iotx_ds_common_register_attr,"ax",@progbits
 812              		.align	1
 813              		.globl	iotx_ds_common_register_attr
 815              	iotx_ds_common_register_attr:
 816              	.LFB27:
 275:C:/Users/stapi/OneDrive/Desktop/GD32VW553/V1_MQTT_OK/GD32VW55X_Wifi_BLE_SDK/GD32VW55x_RELEASE_V1.0.2/MSDK/cloud/alicloud/src/services/shadow\shadow_common.c **** 
 276:C:/Users/stapi/OneDrive/Desktop/GD32VW553/V1_MQTT_OK/GD32VW55X_Wifi_BLE_SDK/GD32VW55x_RELEASE_V1.0.2/MSDK/cloud/alicloud/src/services/shadow\shadow_common.c **** 
 277:C:/Users/stapi/OneDrive/Desktop/GD32VW553/V1_MQTT_OK/GD32VW55X_Wifi_BLE_SDK/GD32VW55x_RELEASE_V1.0.2/MSDK/cloud/alicloud/src/services/shadow\shadow_common.c **** /* register attribute to list */
 278:C:/Users/stapi/OneDrive/Desktop/GD32VW553/V1_MQTT_OK/GD32VW55X_Wifi_BLE_SDK/GD32VW55x_RELEASE_V1.0.2/MSDK/cloud/alicloud/src/services/shadow\shadow_common.c **** iotx_err_t iotx_ds_common_register_attr(
 279:C:/Users/stapi/OneDrive/Desktop/GD32VW553/V1_MQTT_OK/GD32VW55X_Wifi_BLE_SDK/GD32VW55x_RELEASE_V1.0.2/MSDK/cloud/alicloud/src/services/shadow\shadow_common.c ****             iotx_shadow_pt pshadow,
 280:C:/Users/stapi/OneDrive/Desktop/GD32VW553/V1_MQTT_OK/GD32VW55X_Wifi_BLE_SDK/GD32VW55x_RELEASE_V1.0.2/MSDK/cloud/alicloud/src/services/shadow\shadow_common.c ****             iotx_shadow_attr_pt pattr)
 281:C:/Users/stapi/OneDrive/Desktop/GD32VW553/V1_MQTT_OK/GD32VW55X_Wifi_BLE_SDK/GD32VW55x_RELEASE_V1.0.2/MSDK/cloud/alicloud/src/services/shadow\shadow_common.c **** {
 817              		.loc 1 281 1 is_stmt 1
 818              		.cfi_startproc
 819              	.LVL98:
 820 0000 17030000 		call	t0,__riscv_save_2
 820      E7020300 
 821              		.cfi_offset 9, -12
 822              		.cfi_offset 8, -8
 823              		.cfi_offset 1, -4
 824              		.cfi_def_cfa_offset 16
 282:C:/Users/stapi/OneDrive/Desktop/GD32VW553/V1_MQTT_OK/GD32VW55X_Wifi_BLE_SDK/GD32VW55x_RELEASE_V1.0.2/MSDK/cloud/alicloud/src/services/shadow\shadow_common.c ****     list_node_t *node = list_node_new(pattr);
 825              		.loc 1 282 5
 281:C:/Users/stapi/OneDrive/Desktop/GD32VW553/V1_MQTT_OK/GD32VW55X_Wifi_BLE_SDK/GD32VW55x_RELEASE_V1.0.2/MSDK/cloud/alicloud/src/services/shadow\shadow_common.c ****     list_node_t *node = list_node_new(pattr);
 826              		.loc 1 281 1 is_stmt 0
 827 0008 4111     		addi	sp,sp,-16
 828              		.cfi_def_cfa_offset 32
 281:C:/Users/stapi/OneDrive/Desktop/GD32VW553/V1_MQTT_OK/GD32VW55X_Wifi_BLE_SDK/GD32VW55x_RELEASE_V1.0.2/MSDK/cloud/alicloud/src/services/shadow\shadow_common.c ****     list_node_t *node = list_node_new(pattr);
 829              		.loc 1 281 1
 830 000a 2A84     		mv	s0,a0
 831              		.loc 1 282 25
 832 000c 2E85     		mv	a0,a1
 833              	.LVL99:
 281:C:/Users/stapi/OneDrive/Desktop/GD32VW553/V1_MQTT_OK/GD32VW55X_Wifi_BLE_SDK/GD32VW55x_RELEASE_V1.0.2/MSDK/cloud/alicloud/src/services/shadow\shadow_common.c ****     list_node_t *node = list_node_new(pattr);
 834              		.loc 1 281 1
 835 000e AE84     		mv	s1,a1
 836              		.loc 1 282 25
 837 0010 97000000 		call	list_node_new
 837      E7800000 
 838              	.LVL100:
 283:C:/Users/stapi/OneDrive/Desktop/GD32VW553/V1_MQTT_OK/GD32VW55X_Wifi_BLE_SDK/GD32VW55x_RELEASE_V1.0.2/MSDK/cloud/alicloud/src/services/shadow\shadow_common.c ****     if (NULL == node) {
 839              		.loc 1 283 5 is_stmt 1
 840              		.loc 1 283 8 is_stmt 0
 841 0018 2AC6     		sw	a0,12(sp)
 842 001a 21CD     		beq	a0,zero,.L65
 284:C:/Users/stapi/OneDrive/Desktop/GD32VW553/V1_MQTT_OK/GD32VW55X_Wifi_BLE_SDK/GD32VW55x_RELEASE_V1.0.2/MSDK/cloud/alicloud/src/services/shadow\shadow_common.c ****         return ERROR_NO_MEM;
 285:C:/Users/stapi/OneDrive/Desktop/GD32VW553/V1_MQTT_OK/GD32VW55X_Wifi_BLE_SDK/GD32VW55x_RELEASE_V1.0.2/MSDK/cloud/alicloud/src/services/shadow\shadow_common.c ****     }
 286:C:/Users/stapi/OneDrive/Desktop/GD32VW553/V1_MQTT_OK/GD32VW55X_Wifi_BLE_SDK/GD32VW55x_RELEASE_V1.0.2/MSDK/cloud/alicloud/src/services/shadow\shadow_common.c **** 
 287:C:/Users/stapi/OneDrive/Desktop/GD32VW553/V1_MQTT_OK/GD32VW55X_Wifi_BLE_SDK/GD32VW55x_RELEASE_V1.0.2/MSDK/cloud/alicloud/src/services/shadow\shadow_common.c ****     HAL_MutexLock(pshadow->mutex);
 843              		.loc 1 287 5 is_stmt 1
 844 001c 4840     		lw	a0,4(s0)
 845 001e 97000000 		call	HAL_MutexLock
 845      E7800000 
 846              	.LVL101:
 288:C:/Users/stapi/OneDrive/Desktop/GD32VW553/V1_MQTT_OK/GD32VW55X_Wifi_BLE_SDK/GD32VW55x_RELEASE_V1.0.2/MSDK/cloud/alicloud/src/services/shadow\shadow_common.c ****     list_lpush(pshadow->inner_data.attr_list, node);
 847              		.loc 1 288 5
 848 0026 B245     		lw	a1,12(sp)
 849 0028 0325842E 		lw	a0,744(s0)
 850 002c 97000000 		call	list_lpush
 850      E7800000 
 851              	.LVL102:
 289:C:/Users/stapi/OneDrive/Desktop/GD32VW553/V1_MQTT_OK/GD32VW55X_Wifi_BLE_SDK/GD32VW55x_RELEASE_V1.0.2/MSDK/cloud/alicloud/src/services/shadow\shadow_common.c ****     shadow_debug("register attr: %s", pattr->pattr_name);
 852              		.loc 1 289 5
 853 0034 DC40     		lw	a5,4(s1)
 854 0036 37070000 		lui	a4,%hi(.LC17)
 855 003a B7050000 		lui	a1,%hi(.LANCHOR0)
 856 003e 37050000 		lui	a0,%hi(.LC18)
 857 0042 13070700 		addi	a4,a4,%lo(.LC17)
 858 0046 9546     		li	a3,5
 859 0048 13061012 		li	a2,289
 860 004c 93850500 		addi	a1,a1,%lo(.LANCHOR0)
 861 0050 13050500 		addi	a0,a0,%lo(.LC18)
 862 0054 97000000 		call	LITE_syslog
 862      E7800000 
 863              	.LVL103:
 290:C:/Users/stapi/OneDrive/Desktop/GD32VW553/V1_MQTT_OK/GD32VW55X_Wifi_BLE_SDK/GD32VW55x_RELEASE_V1.0.2/MSDK/cloud/alicloud/src/services/shadow\shadow_common.c ****     HAL_MutexUnlock(pshadow->mutex);
 864              		.loc 1 290 5
 865 005c 4840     		lw	a0,4(s0)
 866 005e 97000000 		call	HAL_MutexUnlock
 866      E7800000 
 867              	.LVL104:
 291:C:/Users/stapi/OneDrive/Desktop/GD32VW553/V1_MQTT_OK/GD32VW55X_Wifi_BLE_SDK/GD32VW55x_RELEASE_V1.0.2/MSDK/cloud/alicloud/src/services/shadow\shadow_common.c **** 
 292:C:/Users/stapi/OneDrive/Desktop/GD32VW553/V1_MQTT_OK/GD32VW55X_Wifi_BLE_SDK/GD32VW55x_RELEASE_V1.0.2/MSDK/cloud/alicloud/src/services/shadow\shadow_common.c ****     return SUCCESS_RETURN;
 868              		.loc 1 292 5
 869              		.loc 1 292 12 is_stmt 0
 870 0066 0145     		li	a0,0
 871              	.L63:
 293:C:/Users/stapi/OneDrive/Desktop/GD32VW553/V1_MQTT_OK/GD32VW55X_Wifi_BLE_SDK/GD32VW55x_RELEASE_V1.0.2/MSDK/cloud/alicloud/src/services/shadow\shadow_common.c **** }
 872              		.loc 1 293 1
 873 0068 4101     		addi	sp,sp,16
 874              		.cfi_remember_state
 875              		.cfi_def_cfa_offset 0
 876 006a 17030000 		tail	__riscv_restore_2
 876      67000300 
 877              		.cfi_restore 9
 878              		.cfi_restore 8
 879              		.cfi_restore 1
 880              		.cfi_def_cfa_offset -16
 881              	.L65:
 882              		.cfi_restore_state
 284:C:/Users/stapi/OneDrive/Desktop/GD32VW553/V1_MQTT_OK/GD32VW55X_Wifi_BLE_SDK/GD32VW55x_RELEASE_V1.0.2/MSDK/cloud/alicloud/src/services/shadow\shadow_common.c ****     }
 883              		.loc 1 284 16
 884 0072 130580C0 		li	a0,-1016
 885 0076 CDBF     		j	.L63
 886              		.cfi_endproc
 887              	.LFE27:
 889              		.section	.rodata.iotx_ds_common_remove_attr.str1.4,"aMS",@progbits,1
 890              		.align	2
 891              	.LC19:
 892 0000 54727920 		.string	"Try to remove a non-existent attribute."
 892      746F2072 
 892      656D6F76 
 892      65206120 
 892      6E6F6E2D 
 893              		.section	.text.iotx_ds_common_remove_attr,"ax",@progbits
 894              		.align	1
 895              		.globl	iotx_ds_common_remove_attr
 897              	iotx_ds_common_remove_attr:
 898              	.LFB28:
 294:C:/Users/stapi/OneDrive/Desktop/GD32VW553/V1_MQTT_OK/GD32VW55X_Wifi_BLE_SDK/GD32VW55x_RELEASE_V1.0.2/MSDK/cloud/alicloud/src/services/shadow\shadow_common.c **** 
 295:C:/Users/stapi/OneDrive/Desktop/GD32VW553/V1_MQTT_OK/GD32VW55X_Wifi_BLE_SDK/GD32VW55x_RELEASE_V1.0.2/MSDK/cloud/alicloud/src/services/shadow\shadow_common.c **** 
 296:C:/Users/stapi/OneDrive/Desktop/GD32VW553/V1_MQTT_OK/GD32VW55X_Wifi_BLE_SDK/GD32VW55x_RELEASE_V1.0.2/MSDK/cloud/alicloud/src/services/shadow\shadow_common.c **** /* remove attribute to list */
 297:C:/Users/stapi/OneDrive/Desktop/GD32VW553/V1_MQTT_OK/GD32VW55X_Wifi_BLE_SDK/GD32VW55x_RELEASE_V1.0.2/MSDK/cloud/alicloud/src/services/shadow\shadow_common.c **** iotx_err_t iotx_ds_common_remove_attr(
 298:C:/Users/stapi/OneDrive/Desktop/GD32VW553/V1_MQTT_OK/GD32VW55X_Wifi_BLE_SDK/GD32VW55x_RELEASE_V1.0.2/MSDK/cloud/alicloud/src/services/shadow\shadow_common.c ****             iotx_shadow_pt pshadow,
 299:C:/Users/stapi/OneDrive/Desktop/GD32VW553/V1_MQTT_OK/GD32VW55X_Wifi_BLE_SDK/GD32VW55x_RELEASE_V1.0.2/MSDK/cloud/alicloud/src/services/shadow\shadow_common.c ****             iotx_shadow_attr_pt pattr)
 300:C:/Users/stapi/OneDrive/Desktop/GD32VW553/V1_MQTT_OK/GD32VW55X_Wifi_BLE_SDK/GD32VW55x_RELEASE_V1.0.2/MSDK/cloud/alicloud/src/services/shadow\shadow_common.c **** {
 899              		.loc 1 300 1 is_stmt 1
 900              		.cfi_startproc
 901              	.LVL105:
 902 0000 17030000 		call	t0,__riscv_save_2
 902      E7020300 
 903              		.cfi_offset 9, -12
 904              		.cfi_offset 8, -8
 905              		.cfi_offset 1, -4
 906              		.cfi_def_cfa_offset 16
 301:C:/Users/stapi/OneDrive/Desktop/GD32VW553/V1_MQTT_OK/GD32VW55X_Wifi_BLE_SDK/GD32VW55x_RELEASE_V1.0.2/MSDK/cloud/alicloud/src/services/shadow\shadow_common.c ****     iotx_err_t rc = SUCCESS_RETURN;
 907              		.loc 1 301 5
 908              	.LVL106:
 302:C:/Users/stapi/OneDrive/Desktop/GD32VW553/V1_MQTT_OK/GD32VW55X_Wifi_BLE_SDK/GD32VW55x_RELEASE_V1.0.2/MSDK/cloud/alicloud/src/services/shadow\shadow_common.c ****     list_node_t *node;
 909              		.loc 1 302 5
 303:C:/Users/stapi/OneDrive/Desktop/GD32VW553/V1_MQTT_OK/GD32VW55X_Wifi_BLE_SDK/GD32VW55x_RELEASE_V1.0.2/MSDK/cloud/alicloud/src/services/shadow\shadow_common.c **** 
 304:C:/Users/stapi/OneDrive/Desktop/GD32VW553/V1_MQTT_OK/GD32VW55X_Wifi_BLE_SDK/GD32VW55x_RELEASE_V1.0.2/MSDK/cloud/alicloud/src/services/shadow\shadow_common.c ****     HAL_MutexLock(pshadow->mutex);
 910              		.loc 1 304 5
 300:C:/Users/stapi/OneDrive/Desktop/GD32VW553/V1_MQTT_OK/GD32VW55X_Wifi_BLE_SDK/GD32VW55x_RELEASE_V1.0.2/MSDK/cloud/alicloud/src/services/shadow\shadow_common.c ****     iotx_err_t rc = SUCCESS_RETURN;
 911              		.loc 1 300 1 is_stmt 0
 912 0008 2A84     		mv	s0,a0
 913              		.loc 1 304 5
 914 000a 4841     		lw	a0,4(a0)
 915              	.LVL107:
 300:C:/Users/stapi/OneDrive/Desktop/GD32VW553/V1_MQTT_OK/GD32VW55X_Wifi_BLE_SDK/GD32VW55x_RELEASE_V1.0.2/MSDK/cloud/alicloud/src/services/shadow\shadow_common.c ****     iotx_err_t rc = SUCCESS_RETURN;
 916              		.loc 1 300 1
 917 000c 4111     		addi	sp,sp,-16
 918              		.cfi_def_cfa_offset 32
 300:C:/Users/stapi/OneDrive/Desktop/GD32VW553/V1_MQTT_OK/GD32VW55X_Wifi_BLE_SDK/GD32VW55x_RELEASE_V1.0.2/MSDK/cloud/alicloud/src/services/shadow\shadow_common.c ****     iotx_err_t rc = SUCCESS_RETURN;
 919              		.loc 1 300 1
 920 000e 2EC6     		sw	a1,12(sp)
 921              		.loc 1 304 5
 922 0010 97000000 		call	HAL_MutexLock
 922      E7800000 
 923              	.LVL108:
 305:C:/Users/stapi/OneDrive/Desktop/GD32VW553/V1_MQTT_OK/GD32VW55X_Wifi_BLE_SDK/GD32VW55x_RELEASE_V1.0.2/MSDK/cloud/alicloud/src/services/shadow\shadow_common.c ****     node = list_find(pshadow->inner_data.attr_list, pattr);
 924              		.loc 1 305 5 is_stmt 1
 925              		.loc 1 305 12 is_stmt 0
 926 0018 B245     		lw	a1,12(sp)
 927 001a 0325842E 		lw	a0,744(s0)
 928 001e 97000000 		call	list_find
 928      E7800000 
 929              	.LVL109:
 306:C:/Users/stapi/OneDrive/Desktop/GD32VW553/V1_MQTT_OK/GD32VW55X_Wifi_BLE_SDK/GD32VW55x_RELEASE_V1.0.2/MSDK/cloud/alicloud/src/services/shadow\shadow_common.c ****     if (NULL == node) {
 930              		.loc 1 306 5 is_stmt 1
 931              		.loc 1 306 8 is_stmt 0
 932 0026 31E5     		bne	a0,zero,.L68
 307:C:/Users/stapi/OneDrive/Desktop/GD32VW553/V1_MQTT_OK/GD32VW55X_Wifi_BLE_SDK/GD32VW55x_RELEASE_V1.0.2/MSDK/cloud/alicloud/src/services/shadow\shadow_common.c ****         rc = ERROR_SHADOW_NO_ATTRIBUTE;
 933              		.loc 1 307 9 is_stmt 1
 934              	.LVL110:
 308:C:/Users/stapi/OneDrive/Desktop/GD32VW553/V1_MQTT_OK/GD32VW55X_Wifi_BLE_SDK/GD32VW55x_RELEASE_V1.0.2/MSDK/cloud/alicloud/src/services/shadow\shadow_common.c ****         shadow_err("Try to remove a non-existent attribute.");
 935              		.loc 1 308 9
 936              		.loc 1 308 9
 937 0028 37050000 		lui	a0,%hi(.LC7)
 938              	.LVL111:
 939 002c 13050500 		addi	a0,a0,%lo(.LC7)
 940 0030 97000000 		call	HAL_Printf
 940      E7800000 
 941              	.LVL112:
 942              		.loc 1 308 9
 943 0038 37050000 		lui	a0,%hi(.LC19)
 944 003c 13050500 		addi	a0,a0,%lo(.LC19)
 945 0040 97000000 		call	HAL_Printf
 945      E7800000 
 946              	.LVL113:
 947              		.loc 1 308 9
 948 0048 37050000 		lui	a0,%hi(.LC9)
 949 004c 13050500 		addi	a0,a0,%lo(.LC9)
 950 0050 97000000 		call	HAL_Printf
 950      E7800000 
 951              	.LVL114:
 952              		.loc 1 308 9
 307:C:/Users/stapi/OneDrive/Desktop/GD32VW553/V1_MQTT_OK/GD32VW55X_Wifi_BLE_SDK/GD32VW55x_RELEASE_V1.0.2/MSDK/cloud/alicloud/src/services/shadow\shadow_common.c ****         rc = ERROR_SHADOW_NO_ATTRIBUTE;
 953              		.loc 1 307 12 is_stmt 0
 954 0058 9304C082 		li	s1,-2004
 955              	.LVL115:
 956              	.L69:
 309:C:/Users/stapi/OneDrive/Desktop/GD32VW553/V1_MQTT_OK/GD32VW55X_Wifi_BLE_SDK/GD32VW55x_RELEASE_V1.0.2/MSDK/cloud/alicloud/src/services/shadow\shadow_common.c ****     } else {
 310:C:/Users/stapi/OneDrive/Desktop/GD32VW553/V1_MQTT_OK/GD32VW55X_Wifi_BLE_SDK/GD32VW55x_RELEASE_V1.0.2/MSDK/cloud/alicloud/src/services/shadow\shadow_common.c ****         list_remove(pshadow->inner_data.attr_list, node);
 311:C:/Users/stapi/OneDrive/Desktop/GD32VW553/V1_MQTT_OK/GD32VW55X_Wifi_BLE_SDK/GD32VW55x_RELEASE_V1.0.2/MSDK/cloud/alicloud/src/services/shadow\shadow_common.c ****     }
 312:C:/Users/stapi/OneDrive/Desktop/GD32VW553/V1_MQTT_OK/GD32VW55X_Wifi_BLE_SDK/GD32VW55x_RELEASE_V1.0.2/MSDK/cloud/alicloud/src/services/shadow\shadow_common.c ****     HAL_MutexUnlock(pshadow->mutex);
 957              		.loc 1 312 5 is_stmt 1
 958 005c 4840     		lw	a0,4(s0)
 959 005e 97000000 		call	HAL_MutexUnlock
 959      E7800000 
 960              	.LVL116:
 313:C:/Users/stapi/OneDrive/Desktop/GD32VW553/V1_MQTT_OK/GD32VW55X_Wifi_BLE_SDK/GD32VW55x_RELEASE_V1.0.2/MSDK/cloud/alicloud/src/services/shadow\shadow_common.c **** 
 314:C:/Users/stapi/OneDrive/Desktop/GD32VW553/V1_MQTT_OK/GD32VW55X_Wifi_BLE_SDK/GD32VW55x_RELEASE_V1.0.2/MSDK/cloud/alicloud/src/services/shadow\shadow_common.c ****     return rc;
 961              		.loc 1 314 5
 315:C:/Users/stapi/OneDrive/Desktop/GD32VW553/V1_MQTT_OK/GD32VW55X_Wifi_BLE_SDK/GD32VW55x_RELEASE_V1.0.2/MSDK/cloud/alicloud/src/services/shadow\shadow_common.c **** }
 962              		.loc 1 315 1 is_stmt 0
 963 0066 2685     		mv	a0,s1
 964 0068 4101     		addi	sp,sp,16
 965              		.cfi_remember_state
 966              		.cfi_def_cfa_offset 0
 967              	.LVL117:
 968 006a 17030000 		tail	__riscv_restore_2
 968      67000300 
 969              		.cfi_restore 9
 970              		.cfi_restore 8
 971              		.cfi_restore 1
 972              		.cfi_def_cfa_offset -16
 973              	.LVL118:
 974              	.L68:
 975              		.cfi_restore_state
 976 0072 AA85     		mv	a1,a0
 310:C:/Users/stapi/OneDrive/Desktop/GD32VW553/V1_MQTT_OK/GD32VW55X_Wifi_BLE_SDK/GD32VW55x_RELEASE_V1.0.2/MSDK/cloud/alicloud/src/services/shadow\shadow_common.c ****     }
 977              		.loc 1 310 9 is_stmt 1
 978 0074 0325842E 		lw	a0,744(s0)
 979              	.LVL119:
 301:C:/Users/stapi/OneDrive/Desktop/GD32VW553/V1_MQTT_OK/GD32VW55X_Wifi_BLE_SDK/GD32VW55x_RELEASE_V1.0.2/MSDK/cloud/alicloud/src/services/shadow\shadow_common.c ****     list_node_t *node;
 980              		.loc 1 301 16 is_stmt 0
 981 0078 8144     		li	s1,0
 310:C:/Users/stapi/OneDrive/Desktop/GD32VW553/V1_MQTT_OK/GD32VW55X_Wifi_BLE_SDK/GD32VW55x_RELEASE_V1.0.2/MSDK/cloud/alicloud/src/services/shadow\shadow_common.c ****     }
 982              		.loc 1 310 9
 983 007a 97000000 		call	list_remove
 983      E7800000 
 984              	.LVL120:
 985 0082 E9BF     		j	.L69
 986              		.cfi_endproc
 987              	.LFE28:
 989              		.section	.rodata.iotx_ds_common_update_version.str1.4,"aMS",@progbits,1
 990              		.align	2
 991              	.LC20:
 992 0000 75706461 		.string	"update shadow version"
 992      74652073 
 992      6861646F 
 992      77207665 
 992      7273696F 
 993 0016 0000     		.align	2
 994              	.LC21:
 995 0018 75706461 		.string	"update shadow version failed, same version ignored."
 995      74652073 
 995      6861646F 
 995      77207665 
 995      7273696F 
 996              		.section	.text.iotx_ds_common_update_version,"ax",@progbits
 997              		.align	1
 998              		.globl	iotx_ds_common_update_version
 1000              	iotx_ds_common_update_version:
 1001              	.LFB29:
 316:C:/Users/stapi/OneDrive/Desktop/GD32VW553/V1_MQTT_OK/GD32VW55X_Wifi_BLE_SDK/GD32VW55x_RELEASE_V1.0.2/MSDK/cloud/alicloud/src/services/shadow\shadow_common.c **** 
 317:C:/Users/stapi/OneDrive/Desktop/GD32VW553/V1_MQTT_OK/GD32VW55X_Wifi_BLE_SDK/GD32VW55x_RELEASE_V1.0.2/MSDK/cloud/alicloud/src/services/shadow\shadow_common.c **** 
 318:C:/Users/stapi/OneDrive/Desktop/GD32VW553/V1_MQTT_OK/GD32VW55X_Wifi_BLE_SDK/GD32VW55x_RELEASE_V1.0.2/MSDK/cloud/alicloud/src/services/shadow\shadow_common.c **** int iotx_ds_common_update_version(iotx_shadow_pt pshadow, uint32_t version)
 319:C:/Users/stapi/OneDrive/Desktop/GD32VW553/V1_MQTT_OK/GD32VW55X_Wifi_BLE_SDK/GD32VW55x_RELEASE_V1.0.2/MSDK/cloud/alicloud/src/services/shadow\shadow_common.c **** {
 1002              		.loc 1 319 1 is_stmt 1
 1003              		.cfi_startproc
 1004              	.LVL121:
 1005 0000 17030000 		call	t0,__riscv_save_3
 1005      E7020300 
 1006              		.cfi_offset 18, -16
 1007              		.cfi_offset 9, -12
 1008              		.cfi_offset 8, -8
 1009              		.cfi_offset 1, -4
 1010              		.cfi_def_cfa_offset 16
 320:C:/Users/stapi/OneDrive/Desktop/GD32VW553/V1_MQTT_OK/GD32VW55X_Wifi_BLE_SDK/GD32VW55x_RELEASE_V1.0.2/MSDK/cloud/alicloud/src/services/shadow\shadow_common.c ****     int ret = FAIL_RETURN;
 1011              		.loc 1 320 5
 1012              	.LVL122:
 321:C:/Users/stapi/OneDrive/Desktop/GD32VW553/V1_MQTT_OK/GD32VW55X_Wifi_BLE_SDK/GD32VW55x_RELEASE_V1.0.2/MSDK/cloud/alicloud/src/services/shadow\shadow_common.c **** 
 322:C:/Users/stapi/OneDrive/Desktop/GD32VW553/V1_MQTT_OK/GD32VW55X_Wifi_BLE_SDK/GD32VW55x_RELEASE_V1.0.2/MSDK/cloud/alicloud/src/services/shadow\shadow_common.c ****     HAL_MutexLock(pshadow->mutex);
 1013              		.loc 1 322 5
 319:C:/Users/stapi/OneDrive/Desktop/GD32VW553/V1_MQTT_OK/GD32VW55X_Wifi_BLE_SDK/GD32VW55x_RELEASE_V1.0.2/MSDK/cloud/alicloud/src/services/shadow\shadow_common.c ****     int ret = FAIL_RETURN;
 1014              		.loc 1 319 1 is_stmt 0
 1015 0008 2A84     		mv	s0,a0
 1016              		.loc 1 322 5
 1017 000a 4841     		lw	a0,4(a0)
 1018              	.LVL123:
 319:C:/Users/stapi/OneDrive/Desktop/GD32VW553/V1_MQTT_OK/GD32VW55X_Wifi_BLE_SDK/GD32VW55x_RELEASE_V1.0.2/MSDK/cloud/alicloud/src/services/shadow\shadow_common.c ****     int ret = FAIL_RETURN;
 1019              		.loc 1 319 1
 1020 000c AE84     		mv	s1,a1
 1021 000e 37090000 		lui	s2,%hi(.LC9)
 1022              		.loc 1 322 5
 1023 0012 97000000 		call	HAL_MutexLock
 1023      E7800000 
 1024              	.LVL124:
 323:C:/Users/stapi/OneDrive/Desktop/GD32VW553/V1_MQTT_OK/GD32VW55X_Wifi_BLE_SDK/GD32VW55x_RELEASE_V1.0.2/MSDK/cloud/alicloud/src/services/shadow\shadow_common.c **** 
 324:C:/Users/stapi/OneDrive/Desktop/GD32VW553/V1_MQTT_OK/GD32VW55X_Wifi_BLE_SDK/GD32VW55x_RELEASE_V1.0.2/MSDK/cloud/alicloud/src/services/shadow\shadow_common.c ****     /* version number maybe overflow to zero and increase again in cloud.*/
 325:C:/Users/stapi/OneDrive/Desktop/GD32VW553/V1_MQTT_OK/GD32VW55X_Wifi_BLE_SDK/GD32VW55x_RELEASE_V1.0.2/MSDK/cloud/alicloud/src/services/shadow\shadow_common.c ****     if (pshadow->inner_data.version != version || version == 0) {
 1025              		.loc 1 325 5 is_stmt 1
 1026              		.loc 1 325 8 is_stmt 0
 1027 001a 5C44     		lw	a5,12(s0)
 1028 001c 37050000 		lui	a0,%hi(.LC14)
 1029 0020 63939700 		bne	a5,s1,.L72
 1030              		.loc 1 325 48 discriminator 1
 1031 0024 A9E3     		bne	a5,zero,.L73
 1032              	.L72:
 326:C:/Users/stapi/OneDrive/Desktop/GD32VW553/V1_MQTT_OK/GD32VW55X_Wifi_BLE_SDK/GD32VW55x_RELEASE_V1.0.2/MSDK/cloud/alicloud/src/services/shadow\shadow_common.c ****         pshadow->inner_data.version = version;
 1033              		.loc 1 326 9 is_stmt 1
 1034              		.loc 1 326 37 is_stmt 0
 1035 0026 44C4     		sw	s1,12(s0)
 327:C:/Users/stapi/OneDrive/Desktop/GD32VW553/V1_MQTT_OK/GD32VW55X_Wifi_BLE_SDK/GD32VW55x_RELEASE_V1.0.2/MSDK/cloud/alicloud/src/services/shadow\shadow_common.c ****         shadow_info("update shadow version");
 1036              		.loc 1 327 9 is_stmt 1
 1037              		.loc 1 327 9
 1038 0028 13050500 		addi	a0,a0,%lo(.LC14)
 1039 002c 97000000 		call	HAL_Printf
 1039      E7800000 
 1040              	.LVL125:
 1041              		.loc 1 327 9
 1042 0034 37050000 		lui	a0,%hi(.LC20)
 1043 0038 13050500 		addi	a0,a0,%lo(.LC20)
 1044 003c 97000000 		call	HAL_Printf
 1044      E7800000 
 1045              	.LVL126:
 1046              		.loc 1 327 9
 1047 0044 13050900 		addi	a0,s2,%lo(.LC9)
 1048 0048 97000000 		call	HAL_Printf
 1048      E7800000 
 1049              	.LVL127:
 1050              		.loc 1 327 9
 328:C:/Users/stapi/OneDrive/Desktop/GD32VW553/V1_MQTT_OK/GD32VW55X_Wifi_BLE_SDK/GD32VW55x_RELEASE_V1.0.2/MSDK/cloud/alicloud/src/services/shadow\shadow_common.c ****         ret = SUCCESS_RETURN;
 1051              		.loc 1 328 9
 1052              		.loc 1 328 13 is_stmt 0
 1053 0050 8144     		li	s1,0
 1054              	.LVL128:
 1055              	.L74:
 329:C:/Users/stapi/OneDrive/Desktop/GD32VW553/V1_MQTT_OK/GD32VW55X_Wifi_BLE_SDK/GD32VW55x_RELEASE_V1.0.2/MSDK/cloud/alicloud/src/services/shadow\shadow_common.c ****     }else{
 330:C:/Users/stapi/OneDrive/Desktop/GD32VW553/V1_MQTT_OK/GD32VW55X_Wifi_BLE_SDK/GD32VW55x_RELEASE_V1.0.2/MSDK/cloud/alicloud/src/services/shadow\shadow_common.c ****         shadow_info("update shadow version failed, same version ignored.");
 331:C:/Users/stapi/OneDrive/Desktop/GD32VW553/V1_MQTT_OK/GD32VW55X_Wifi_BLE_SDK/GD32VW55x_RELEASE_V1.0.2/MSDK/cloud/alicloud/src/services/shadow\shadow_common.c ****         ret = FAIL_RETURN;
 332:C:/Users/stapi/OneDrive/Desktop/GD32VW553/V1_MQTT_OK/GD32VW55X_Wifi_BLE_SDK/GD32VW55x_RELEASE_V1.0.2/MSDK/cloud/alicloud/src/services/shadow\shadow_common.c ****     }
 333:C:/Users/stapi/OneDrive/Desktop/GD32VW553/V1_MQTT_OK/GD32VW55X_Wifi_BLE_SDK/GD32VW55x_RELEASE_V1.0.2/MSDK/cloud/alicloud/src/services/shadow\shadow_common.c **** 
 334:C:/Users/stapi/OneDrive/Desktop/GD32VW553/V1_MQTT_OK/GD32VW55X_Wifi_BLE_SDK/GD32VW55x_RELEASE_V1.0.2/MSDK/cloud/alicloud/src/services/shadow\shadow_common.c ****     HAL_MutexUnlock(pshadow->mutex);
 1056              		.loc 1 334 5 is_stmt 1
 1057 0052 4840     		lw	a0,4(s0)
 1058 0054 97000000 		call	HAL_MutexUnlock
 1058      E7800000 
 1059              	.LVL129:
 335:C:/Users/stapi/OneDrive/Desktop/GD32VW553/V1_MQTT_OK/GD32VW55X_Wifi_BLE_SDK/GD32VW55x_RELEASE_V1.0.2/MSDK/cloud/alicloud/src/services/shadow\shadow_common.c **** 
 336:C:/Users/stapi/OneDrive/Desktop/GD32VW553/V1_MQTT_OK/GD32VW55X_Wifi_BLE_SDK/GD32VW55x_RELEASE_V1.0.2/MSDK/cloud/alicloud/src/services/shadow\shadow_common.c ****     return ret;
 1060              		.loc 1 336 5
 337:C:/Users/stapi/OneDrive/Desktop/GD32VW553/V1_MQTT_OK/GD32VW55X_Wifi_BLE_SDK/GD32VW55x_RELEASE_V1.0.2/MSDK/cloud/alicloud/src/services/shadow\shadow_common.c **** }
 1061              		.loc 1 337 1 is_stmt 0
 1062 005c 2685     		mv	a0,s1
 1063 005e 17030000 		tail	__riscv_restore_3
 1063      67000300 
 1064              		.cfi_remember_state
 1065              		.cfi_restore 18
 1066              		.cfi_restore 9
 1067              		.cfi_restore 8
 1068              		.cfi_restore 1
 1069              		.cfi_def_cfa_offset 0
 1070              	.LVL130:
 1071              	.L73:
 1072              		.cfi_restore_state
 330:C:/Users/stapi/OneDrive/Desktop/GD32VW553/V1_MQTT_OK/GD32VW55X_Wifi_BLE_SDK/GD32VW55x_RELEASE_V1.0.2/MSDK/cloud/alicloud/src/services/shadow\shadow_common.c ****         ret = FAIL_RETURN;
 1073              		.loc 1 330 9 is_stmt 1
 330:C:/Users/stapi/OneDrive/Desktop/GD32VW553/V1_MQTT_OK/GD32VW55X_Wifi_BLE_SDK/GD32VW55x_RELEASE_V1.0.2/MSDK/cloud/alicloud/src/services/shadow\shadow_common.c ****         ret = FAIL_RETURN;
 1074              		.loc 1 330 9
 1075 0066 13050500 		addi	a0,a0,%lo(.LC14)
 1076 006a 97000000 		call	HAL_Printf
 1076      E7800000 
 1077              	.LVL131:
 330:C:/Users/stapi/OneDrive/Desktop/GD32VW553/V1_MQTT_OK/GD32VW55X_Wifi_BLE_SDK/GD32VW55x_RELEASE_V1.0.2/MSDK/cloud/alicloud/src/services/shadow\shadow_common.c ****         ret = FAIL_RETURN;
 1078              		.loc 1 330 9
 1079 0072 37050000 		lui	a0,%hi(.LC21)
 1080 0076 13050500 		addi	a0,a0,%lo(.LC21)
 1081 007a 97000000 		call	HAL_Printf
 1081      E7800000 
 1082              	.LVL132:
 330:C:/Users/stapi/OneDrive/Desktop/GD32VW553/V1_MQTT_OK/GD32VW55X_Wifi_BLE_SDK/GD32VW55x_RELEASE_V1.0.2/MSDK/cloud/alicloud/src/services/shadow\shadow_common.c ****         ret = FAIL_RETURN;
 1083              		.loc 1 330 9
 1084 0082 13050900 		addi	a0,s2,%lo(.LC9)
 1085 0086 97000000 		call	HAL_Printf
 1085      E7800000 
 1086              	.LVL133:
 330:C:/Users/stapi/OneDrive/Desktop/GD32VW553/V1_MQTT_OK/GD32VW55X_Wifi_BLE_SDK/GD32VW55x_RELEASE_V1.0.2/MSDK/cloud/alicloud/src/services/shadow\shadow_common.c ****         ret = FAIL_RETURN;
 1087              		.loc 1 330 9
 331:C:/Users/stapi/OneDrive/Desktop/GD32VW553/V1_MQTT_OK/GD32VW55X_Wifi_BLE_SDK/GD32VW55x_RELEASE_V1.0.2/MSDK/cloud/alicloud/src/services/shadow\shadow_common.c ****     }
 1088              		.loc 1 331 9
 331:C:/Users/stapi/OneDrive/Desktop/GD32VW553/V1_MQTT_OK/GD32VW55X_Wifi_BLE_SDK/GD32VW55x_RELEASE_V1.0.2/MSDK/cloud/alicloud/src/services/shadow\shadow_common.c ****     }
 1089              		.loc 1 331 13 is_stmt 0
 1090 008e FD54     		li	s1,-1
 1091              	.LVL134:
 1092 0090 C9B7     		j	.L74
 1093              		.cfi_endproc
 1094              	.LFE29:
 1096              		.section	.text.iotx_ds_common_get_version,"ax",@progbits
 1097              		.align	1
 1098              		.globl	iotx_ds_common_get_version
 1100              	iotx_ds_common_get_version:
 1101              	.LFB30:
 338:C:/Users/stapi/OneDrive/Desktop/GD32VW553/V1_MQTT_OK/GD32VW55X_Wifi_BLE_SDK/GD32VW55x_RELEASE_V1.0.2/MSDK/cloud/alicloud/src/services/shadow\shadow_common.c **** 
 339:C:/Users/stapi/OneDrive/Desktop/GD32VW553/V1_MQTT_OK/GD32VW55X_Wifi_BLE_SDK/GD32VW55x_RELEASE_V1.0.2/MSDK/cloud/alicloud/src/services/shadow\shadow_common.c **** 
 340:C:/Users/stapi/OneDrive/Desktop/GD32VW553/V1_MQTT_OK/GD32VW55X_Wifi_BLE_SDK/GD32VW55x_RELEASE_V1.0.2/MSDK/cloud/alicloud/src/services/shadow\shadow_common.c **** 
 341:C:/Users/stapi/OneDrive/Desktop/GD32VW553/V1_MQTT_OK/GD32VW55X_Wifi_BLE_SDK/GD32VW55x_RELEASE_V1.0.2/MSDK/cloud/alicloud/src/services/shadow\shadow_common.c **** uint32_t iotx_ds_common_get_version(iotx_shadow_pt pshadow)
 342:C:/Users/stapi/OneDrive/Desktop/GD32VW553/V1_MQTT_OK/GD32VW55X_Wifi_BLE_SDK/GD32VW55x_RELEASE_V1.0.2/MSDK/cloud/alicloud/src/services/shadow\shadow_common.c **** {
 1102              		.loc 1 342 1 is_stmt 1
 1103              		.cfi_startproc
 1104              	.LVL135:
 1105 0000 17030000 		call	t0,__riscv_save_2
 1105      E7020300 
 1106              		.cfi_offset 9, -12
 1107              		.cfi_offset 8, -8
 1108              		.cfi_offset 1, -4
 1109              		.cfi_def_cfa_offset 16
 343:C:/Users/stapi/OneDrive/Desktop/GD32VW553/V1_MQTT_OK/GD32VW55X_Wifi_BLE_SDK/GD32VW55x_RELEASE_V1.0.2/MSDK/cloud/alicloud/src/services/shadow\shadow_common.c ****     uint32_t ver;
 1110              		.loc 1 343 5
 344:C:/Users/stapi/OneDrive/Desktop/GD32VW553/V1_MQTT_OK/GD32VW55X_Wifi_BLE_SDK/GD32VW55x_RELEASE_V1.0.2/MSDK/cloud/alicloud/src/services/shadow\shadow_common.c ****     HAL_MutexLock(pshadow->mutex);
 1111              		.loc 1 344 5
 342:C:/Users/stapi/OneDrive/Desktop/GD32VW553/V1_MQTT_OK/GD32VW55X_Wifi_BLE_SDK/GD32VW55x_RELEASE_V1.0.2/MSDK/cloud/alicloud/src/services/shadow\shadow_common.c ****     uint32_t ver;
 1112              		.loc 1 342 1 is_stmt 0
 1113 0008 2A84     		mv	s0,a0
 1114              		.loc 1 344 5
 1115 000a 4841     		lw	a0,4(a0)
 1116              	.LVL136:
 1117 000c 97000000 		call	HAL_MutexLock
 1117      E7800000 
 1118              	.LVL137:
 345:C:/Users/stapi/OneDrive/Desktop/GD32VW553/V1_MQTT_OK/GD32VW55X_Wifi_BLE_SDK/GD32VW55x_RELEASE_V1.0.2/MSDK/cloud/alicloud/src/services/shadow\shadow_common.c ****     //++pshadow->inner_data.version;
 346:C:/Users/stapi/OneDrive/Desktop/GD32VW553/V1_MQTT_OK/GD32VW55X_Wifi_BLE_SDK/GD32VW55x_RELEASE_V1.0.2/MSDK/cloud/alicloud/src/services/shadow\shadow_common.c ****     //ver = pshadow->inner_data.version + 1;
 347:C:/Users/stapi/OneDrive/Desktop/GD32VW553/V1_MQTT_OK/GD32VW55X_Wifi_BLE_SDK/GD32VW55x_RELEASE_V1.0.2/MSDK/cloud/alicloud/src/services/shadow\shadow_common.c ****     //++pshadow->inner_data.version;
 348:C:/Users/stapi/OneDrive/Desktop/GD32VW553/V1_MQTT_OK/GD32VW55X_Wifi_BLE_SDK/GD32VW55x_RELEASE_V1.0.2/MSDK/cloud/alicloud/src/services/shadow\shadow_common.c ****     ver = pshadow->inner_data.version;
 1119              		.loc 1 348 5 is_stmt 1
 349:C:/Users/stapi/OneDrive/Desktop/GD32VW553/V1_MQTT_OK/GD32VW55X_Wifi_BLE_SDK/GD32VW55x_RELEASE_V1.0.2/MSDK/cloud/alicloud/src/services/shadow\shadow_common.c ****     HAL_MutexUnlock(pshadow->mutex);
 1120              		.loc 1 349 5 is_stmt 0
 1121 0014 4840     		lw	a0,4(s0)
 348:C:/Users/stapi/OneDrive/Desktop/GD32VW553/V1_MQTT_OK/GD32VW55X_Wifi_BLE_SDK/GD32VW55x_RELEASE_V1.0.2/MSDK/cloud/alicloud/src/services/shadow\shadow_common.c ****     HAL_MutexUnlock(pshadow->mutex);
 1122              		.loc 1 348 9
 1123 0016 4444     		lw	s1,12(s0)
 1124              	.LVL138:
 1125              		.loc 1 349 5 is_stmt 1
 1126 0018 97000000 		call	HAL_MutexUnlock
 1126      E7800000 
 1127              	.LVL139:
 350:C:/Users/stapi/OneDrive/Desktop/GD32VW553/V1_MQTT_OK/GD32VW55X_Wifi_BLE_SDK/GD32VW55x_RELEASE_V1.0.2/MSDK/cloud/alicloud/src/services/shadow\shadow_common.c ****     return ver;
 1128              		.loc 1 350 5
 351:C:/Users/stapi/OneDrive/Desktop/GD32VW553/V1_MQTT_OK/GD32VW55X_Wifi_BLE_SDK/GD32VW55x_RELEASE_V1.0.2/MSDK/cloud/alicloud/src/services/shadow\shadow_common.c **** }
 1129              		.loc 1 351 1 is_stmt 0
 1130 0020 2685     		mv	a0,s1
 1131 0022 17030000 		tail	__riscv_restore_2
 1131      67000300 
 1132              		.cfi_restore 9
 1133              		.cfi_restore 8
 1134              		.cfi_restore 1
 1135              		.cfi_def_cfa_offset 0
 1136              		.cfi_endproc
 1137              	.LFE30:
 1139              		.section	.text.iotx_ds_common_get_tokennum,"ax",@progbits
 1140              		.align	1
 1141              		.globl	iotx_ds_common_get_tokennum
 1143              	iotx_ds_common_get_tokennum:
 1144              	.LFB31:
 352:C:/Users/stapi/OneDrive/Desktop/GD32VW553/V1_MQTT_OK/GD32VW55X_Wifi_BLE_SDK/GD32VW55x_RELEASE_V1.0.2/MSDK/cloud/alicloud/src/services/shadow\shadow_common.c **** 
 353:C:/Users/stapi/OneDrive/Desktop/GD32VW553/V1_MQTT_OK/GD32VW55X_Wifi_BLE_SDK/GD32VW55x_RELEASE_V1.0.2/MSDK/cloud/alicloud/src/services/shadow\shadow_common.c **** 
 354:C:/Users/stapi/OneDrive/Desktop/GD32VW553/V1_MQTT_OK/GD32VW55X_Wifi_BLE_SDK/GD32VW55x_RELEASE_V1.0.2/MSDK/cloud/alicloud/src/services/shadow\shadow_common.c **** uint32_t iotx_ds_common_get_tokennum(iotx_shadow_pt pshadow)
 355:C:/Users/stapi/OneDrive/Desktop/GD32VW553/V1_MQTT_OK/GD32VW55X_Wifi_BLE_SDK/GD32VW55x_RELEASE_V1.0.2/MSDK/cloud/alicloud/src/services/shadow\shadow_common.c **** {
 1145              		.loc 1 355 1 is_stmt 1
 1146              		.cfi_startproc
 1147              	.LVL140:
 1148 0000 17030000 		call	t0,__riscv_save_2
 1148      E7020300 
 1149              		.cfi_offset 9, -12
 1150              		.cfi_offset 8, -8
 1151              		.cfi_offset 1, -4
 1152              		.cfi_def_cfa_offset 16
 356:C:/Users/stapi/OneDrive/Desktop/GD32VW553/V1_MQTT_OK/GD32VW55X_Wifi_BLE_SDK/GD32VW55x_RELEASE_V1.0.2/MSDK/cloud/alicloud/src/services/shadow\shadow_common.c ****     uint32_t ver;
 1153              		.loc 1 356 5
 357:C:/Users/stapi/OneDrive/Desktop/GD32VW553/V1_MQTT_OK/GD32VW55X_Wifi_BLE_SDK/GD32VW55x_RELEASE_V1.0.2/MSDK/cloud/alicloud/src/services/shadow\shadow_common.c ****     HAL_MutexLock(pshadow->mutex);
 1154              		.loc 1 357 5
 355:C:/Users/stapi/OneDrive/Desktop/GD32VW553/V1_MQTT_OK/GD32VW55X_Wifi_BLE_SDK/GD32VW55x_RELEASE_V1.0.2/MSDK/cloud/alicloud/src/services/shadow\shadow_common.c ****     uint32_t ver;
 1155              		.loc 1 355 1 is_stmt 0
 1156 0008 2A84     		mv	s0,a0
 1157              		.loc 1 357 5
 1158 000a 4841     		lw	a0,4(a0)
 1159              	.LVL141:
 1160 000c 97000000 		call	HAL_MutexLock
 1160      E7800000 
 1161              	.LVL142:
 358:C:/Users/stapi/OneDrive/Desktop/GD32VW553/V1_MQTT_OK/GD32VW55X_Wifi_BLE_SDK/GD32VW55x_RELEASE_V1.0.2/MSDK/cloud/alicloud/src/services/shadow\shadow_common.c ****     ++pshadow->inner_data.token_num;
 1162              		.loc 1 358 5 is_stmt 1
 1163              		.loc 1 358 26 is_stmt 0
 1164 0014 0444     		lw	s1,8(s0)
 359:C:/Users/stapi/OneDrive/Desktop/GD32VW553/V1_MQTT_OK/GD32VW55X_Wifi_BLE_SDK/GD32VW55x_RELEASE_V1.0.2/MSDK/cloud/alicloud/src/services/shadow\shadow_common.c ****     ver = pshadow->inner_data.token_num;
 1165              		.loc 1 359 5 is_stmt 1
 1166              	.LVL143:
 360:C:/Users/stapi/OneDrive/Desktop/GD32VW553/V1_MQTT_OK/GD32VW55X_Wifi_BLE_SDK/GD32VW55x_RELEASE_V1.0.2/MSDK/cloud/alicloud/src/services/shadow\shadow_common.c ****     ++pshadow->inner_data.token_num;
 1167              		.loc 1 360 5
 361:C:/Users/stapi/OneDrive/Desktop/GD32VW553/V1_MQTT_OK/GD32VW55X_Wifi_BLE_SDK/GD32VW55x_RELEASE_V1.0.2/MSDK/cloud/alicloud/src/services/shadow\shadow_common.c ****     HAL_MutexUnlock(pshadow->mutex);
 1168              		.loc 1 361 5 is_stmt 0
 1169 0016 4840     		lw	a0,4(s0)
 360:C:/Users/stapi/OneDrive/Desktop/GD32VW553/V1_MQTT_OK/GD32VW55X_Wifi_BLE_SDK/GD32VW55x_RELEASE_V1.0.2/MSDK/cloud/alicloud/src/services/shadow\shadow_common.c ****     ++pshadow->inner_data.token_num;
 1170              		.loc 1 360 5
 1171 0018 93872400 		addi	a5,s1,2
 1172 001c 1CC4     		sw	a5,8(s0)
 1173              		.loc 1 361 5 is_stmt 1
 1174 001e 97000000 		call	HAL_MutexUnlock
 1174      E7800000 
 1175              	.LVL144:
 362:C:/Users/stapi/OneDrive/Desktop/GD32VW553/V1_MQTT_OK/GD32VW55X_Wifi_BLE_SDK/GD32VW55x_RELEASE_V1.0.2/MSDK/cloud/alicloud/src/services/shadow\shadow_common.c ****     return ver;
 1176              		.loc 1 362 5
 363:C:/Users/stapi/OneDrive/Desktop/GD32VW553/V1_MQTT_OK/GD32VW55X_Wifi_BLE_SDK/GD32VW55x_RELEASE_V1.0.2/MSDK/cloud/alicloud/src/services/shadow\shadow_common.c **** }
 1177              		.loc 1 363 1 is_stmt 0
 1178 0026 13851400 		addi	a0,s1,1
 1179              	.LVL145:
 1180 002a 17030000 		tail	__riscv_restore_2
 1180      67000300 
 1181              		.cfi_restore 9
 1182              		.cfi_restore 8
 1183              		.cfi_restore 1
 1184              		.cfi_def_cfa_offset 0
 1185              		.cfi_endproc
 1186              	.LFE31:
 1188              		.section	.rodata.iotx_ds_common_format_finalize.str1.4,"aMS",@progbits,1
 1189              		.align	2
 1190              	.LC22:
 1191 0000 2C22636C 		.string	",\"clientToken\":\"%s-%d\",\"version\":%d}"
 1191      69656E74 
 1191      546F6B65 
 1191      6E223A22 
 1191      25732D25 
 1192 0025 000000   		.align	2
 1193              	.LC23:
 1194 0028 2C22636C 		.string	",\"clientToken\":\"%s-%d\"}"
 1194      69656E74 
 1194      546F6B65 
 1194      6E223A22 
 1194      25732D25 
 1195              		.section	.text.iotx_ds_common_format_finalize,"ax",@progbits
 1196              		.align	1
 1197              		.globl	iotx_ds_common_format_finalize
 1199              	iotx_ds_common_format_finalize:
 1200              	.LFB22:
 139:C:/Users/stapi/OneDrive/Desktop/GD32VW553/V1_MQTT_OK/GD32VW55X_Wifi_BLE_SDK/GD32VW55x_RELEASE_V1.0.2/MSDK/cloud/alicloud/src/services/shadow\shadow_common.c **** #define UPDATE_JSON_STR_END         ",\"clientToken\":\"%s-%d\",\"version\":%d}"
 1201              		.loc 1 139 1 is_stmt 1
 1202              		.cfi_startproc
 1203              	.LVL146:
 1204 0000 17030000 		call	t0,__riscv_save_5
 1204      E7020300 
 1205              		.cfi_offset 20, -24
 1206              		.cfi_offset 19, -20
 1207              		.cfi_offset 18, -16
 1208              		.cfi_offset 9, -12
 1209              		.cfi_offset 8, -8
 1210              		.cfi_offset 1, -4
 1211              		.cfi_def_cfa_offset 32
 143:C:/Users/stapi/OneDrive/Desktop/GD32VW553/V1_MQTT_OK/GD32VW55X_Wifi_BLE_SDK/GD32VW55x_RELEASE_V1.0.2/MSDK/cloud/alicloud/src/services/shadow\shadow_common.c ****     char device_id[DEVICE_ID_LEN + 1] = {0};
 1212              		.loc 1 143 5
 144:C:/Users/stapi/OneDrive/Desktop/GD32VW553/V1_MQTT_OK/GD32VW55X_Wifi_BLE_SDK/GD32VW55x_RELEASE_V1.0.2/MSDK/cloud/alicloud/src/services/shadow\shadow_common.c **** 
 1213              		.loc 1 144 5
 139:C:/Users/stapi/OneDrive/Desktop/GD32VW553/V1_MQTT_OK/GD32VW55X_Wifi_BLE_SDK/GD32VW55x_RELEASE_V1.0.2/MSDK/cloud/alicloud/src/services/shadow\shadow_common.c **** #define UPDATE_JSON_STR_END         ",\"clientToken\":\"%s-%d\",\"version\":%d}"
 1214              		.loc 1 139 1 is_stmt 0
 1215 0008 1D71     		addi	sp,sp,-96
 1216              		.cfi_def_cfa_offset 128
 139:C:/Users/stapi/OneDrive/Desktop/GD32VW553/V1_MQTT_OK/GD32VW55X_Wifi_BLE_SDK/GD32VW55x_RELEASE_V1.0.2/MSDK/cloud/alicloud/src/services/shadow\shadow_common.c **** #define UPDATE_JSON_STR_END         ",\"clientToken\":\"%s-%d\",\"version\":%d}"
 1217              		.loc 1 139 1
 1218 000a 3289     		mv	s2,a2
 1219 000c AA89     		mv	s3,a0
 1220 000e 2E84     		mv	s0,a1
 144:C:/Users/stapi/OneDrive/Desktop/GD32VW553/V1_MQTT_OK/GD32VW55X_Wifi_BLE_SDK/GD32VW55x_RELEASE_V1.0.2/MSDK/cloud/alicloud/src/services/shadow\shadow_common.c **** 
 1221              		.loc 1 144 10
 1222 0010 1306D003 		li	a2,61
 1223              	.LVL147:
 1224 0014 8145     		li	a1,0
 1225              	.LVL148:
 1226 0016 0810     		addi	a0,sp,32
 1227              	.LVL149:
 139:C:/Users/stapi/OneDrive/Desktop/GD32VW553/V1_MQTT_OK/GD32VW55X_Wifi_BLE_SDK/GD32VW55x_RELEASE_V1.0.2/MSDK/cloud/alicloud/src/services/shadow\shadow_common.c **** #define UPDATE_JSON_STR_END         ",\"clientToken\":\"%s-%d\",\"version\":%d}"
 1228              		.loc 1 139 1
 1229 0018 368A     		mv	s4,a3
 144:C:/Users/stapi/OneDrive/Desktop/GD32VW553/V1_MQTT_OK/GD32VW55X_Wifi_BLE_SDK/GD32VW55x_RELEASE_V1.0.2/MSDK/cloud/alicloud/src/services/shadow\shadow_common.c **** 
 1230              		.loc 1 144 10
 1231 001a 02CE     		sw	zero,28(sp)
 1232 001c 97000000 		call	memset
 1232      E7800000 
 1233              	.LVL150:
 146:C:/Users/stapi/OneDrive/Desktop/GD32VW553/V1_MQTT_OK/GD32VW55X_Wifi_BLE_SDK/GD32VW55x_RELEASE_V1.0.2/MSDK/cloud/alicloud/src/services/shadow\shadow_common.c **** 
 1234              		.loc 1 146 5 is_stmt 1
 148:C:/Users/stapi/OneDrive/Desktop/GD32VW553/V1_MQTT_OK/GD32VW55X_Wifi_BLE_SDK/GD32VW55x_RELEASE_V1.0.2/MSDK/cloud/alicloud/src/services/shadow\shadow_common.c ****         ret = HAL_Snprintf(pformat->buf + pformat->offset, size_free_space, "%s", tail_str);
 1235              		.loc 1 148 5
 148:C:/Users/stapi/OneDrive/Desktop/GD32VW553/V1_MQTT_OK/GD32VW55X_Wifi_BLE_SDK/GD32VW55x_RELEASE_V1.0.2/MSDK/cloud/alicloud/src/services/shadow\shadow_common.c ****         ret = HAL_Snprintf(pformat->buf + pformat->offset, size_free_space, "%s", tail_str);
 1236              		.loc 1 148 8 is_stmt 0
 1237 0024 63030904 		beq	s2,zero,.L81
 146:C:/Users/stapi/OneDrive/Desktop/GD32VW553/V1_MQTT_OK/GD32VW55X_Wifi_BLE_SDK/GD32VW55x_RELEASE_V1.0.2/MSDK/cloud/alicloud/src/services/shadow\shadow_common.c **** 
 1238              		.loc 1 146 59
 1239 0028 1C44     		lw	a5,8(s0)
 149:C:/Users/stapi/OneDrive/Desktop/GD32VW553/V1_MQTT_OK/GD32VW55X_Wifi_BLE_SDK/GD32VW55x_RELEASE_V1.0.2/MSDK/cloud/alicloud/src/services/shadow\shadow_common.c ****         CHECK_SNPRINTF_RET(ret, size_free_space);
 1240              		.loc 1 149 9 is_stmt 1
 146:C:/Users/stapi/OneDrive/Desktop/GD32VW553/V1_MQTT_OK/GD32VW55X_Wifi_BLE_SDK/GD32VW55x_RELEASE_V1.0.2/MSDK/cloud/alicloud/src/services/shadow\shadow_common.c **** 
 1241              		.loc 1 146 50 is_stmt 0
 1242 002a 4440     		lw	s1,4(s0)
 149:C:/Users/stapi/OneDrive/Desktop/GD32VW553/V1_MQTT_OK/GD32VW55X_Wifi_BLE_SDK/GD32VW55x_RELEASE_V1.0.2/MSDK/cloud/alicloud/src/services/shadow\shadow_common.c ****         CHECK_SNPRINTF_RET(ret, size_free_space);
 1243              		.loc 1 149 15
 1244 002c 4844     		lw	a0,12(s0)
 1245 002e 37060000 		lui	a2,%hi(.LC6)
 146:C:/Users/stapi/OneDrive/Desktop/GD32VW553/V1_MQTT_OK/GD32VW55X_Wifi_BLE_SDK/GD32VW55x_RELEASE_V1.0.2/MSDK/cloud/alicloud/src/services/shadow\shadow_common.c **** 
 1246              		.loc 1 146 14
 1247 0032 9D8C     		sub	s1,s1,a5
 149:C:/Users/stapi/OneDrive/Desktop/GD32VW553/V1_MQTT_OK/GD32VW55X_Wifi_BLE_SDK/GD32VW55x_RELEASE_V1.0.2/MSDK/cloud/alicloud/src/services/shadow\shadow_common.c ****         CHECK_SNPRINTF_RET(ret, size_free_space);
 1248              		.loc 1 149 15
 1249 0034 B3C40408 		zext.h	s1,s1
 1250 0038 CA86     		mv	a3,s2
 1251 003a 13060600 		addi	a2,a2,%lo(.LC6)
 1252 003e A685     		mv	a1,s1
 1253 0040 3E95     		add	a0,a0,a5
 1254 0042 97000000 		call	HAL_Snprintf
 1254      E7800000 
 1255              	.LVL151:
 150:C:/Users/stapi/OneDrive/Desktop/GD32VW553/V1_MQTT_OK/GD32VW55X_Wifi_BLE_SDK/GD32VW55x_RELEASE_V1.0.2/MSDK/cloud/alicloud/src/services/shadow\shadow_common.c ****         pformat->offset += ret;
 1256              		.loc 1 150 9 is_stmt 1
 150:C:/Users/stapi/OneDrive/Desktop/GD32VW553/V1_MQTT_OK/GD32VW55X_Wifi_BLE_SDK/GD32VW55x_RELEASE_V1.0.2/MSDK/cloud/alicloud/src/services/shadow\shadow_common.c ****         pformat->offset += ret;
 1257              		.loc 1 150 9
 1258 004a 63580500 		bge	a0,zero,.L82
 1259              	.LVL152:
 1260              	.L87:
 1261 004e 7D55     		li	a0,-1
 1262              	.LVL153:
 1263              	.L80:
 175:C:/Users/stapi/OneDrive/Desktop/GD32VW553/V1_MQTT_OK/GD32VW55X_Wifi_BLE_SDK/GD32VW55x_RELEASE_V1.0.2/MSDK/cloud/alicloud/src/services/shadow\shadow_common.c **** 
 1264              		.loc 1 175 1 is_stmt 0
 1265 0050 2561     		addi	sp,sp,96
 1266              		.cfi_remember_state
 1267              		.cfi_def_cfa_offset 0
 1268 0052 17030000 		tail	__riscv_restore_5
 1268      67000300 
 1269              		.cfi_restore 20
 1270              		.cfi_restore 19
 1271              		.cfi_restore 18
 1272              		.cfi_restore 9
 1273              		.cfi_restore 8
 1274              		.cfi_restore 1
 1275              		.cfi_def_cfa_offset -32
 1276              	.LVL154:
 1277              	.L82:
 1278              		.cfi_restore_state
 150:C:/Users/stapi/OneDrive/Desktop/GD32VW553/V1_MQTT_OK/GD32VW55X_Wifi_BLE_SDK/GD32VW55x_RELEASE_V1.0.2/MSDK/cloud/alicloud/src/services/shadow\shadow_common.c ****         pformat->offset += ret;
 1279              		.loc 1 150 9 is_stmt 1 discriminator 2
 1280 005a 63459500 		bgt	s1,a0,.L84
 1281              	.LVL155:
 1282              	.L88:
 150:C:/Users/stapi/OneDrive/Desktop/GD32VW553/V1_MQTT_OK/GD32VW55X_Wifi_BLE_SDK/GD32VW55x_RELEASE_V1.0.2/MSDK/cloud/alicloud/src/services/shadow\shadow_common.c ****         pformat->offset += ret;
 1283              		.loc 1 150 9 is_stmt 0
 1284 005e 1305B0C0 		li	a0,-1013
 1285              	.LVL156:
 1286 0062 FDB7     		j	.L80
 1287              	.LVL157:
 1288              	.L84:
 150:C:/Users/stapi/OneDrive/Desktop/GD32VW553/V1_MQTT_OK/GD32VW55X_Wifi_BLE_SDK/GD32VW55x_RELEASE_V1.0.2/MSDK/cloud/alicloud/src/services/shadow\shadow_common.c ****         pformat->offset += ret;
 1289              		.loc 1 150 9 is_stmt 1 discriminator 4
 150:C:/Users/stapi/OneDrive/Desktop/GD32VW553/V1_MQTT_OK/GD32VW55X_Wifi_BLE_SDK/GD32VW55x_RELEASE_V1.0.2/MSDK/cloud/alicloud/src/services/shadow\shadow_common.c ****         pformat->offset += ret;
 1290              		.loc 1 150 49 discriminator 4
 151:C:/Users/stapi/OneDrive/Desktop/GD32VW553/V1_MQTT_OK/GD32VW55X_Wifi_BLE_SDK/GD32VW55x_RELEASE_V1.0.2/MSDK/cloud/alicloud/src/services/shadow\shadow_common.c ****     }
 1291              		.loc 1 151 9 discriminator 4
 151:C:/Users/stapi/OneDrive/Desktop/GD32VW553/V1_MQTT_OK/GD32VW55X_Wifi_BLE_SDK/GD32VW55x_RELEASE_V1.0.2/MSDK/cloud/alicloud/src/services/shadow\shadow_common.c ****     }
 1292              		.loc 1 151 25 is_stmt 0 discriminator 4
 1293 0064 1C44     		lw	a5,8(s0)
 1294 0066 3E95     		add	a0,a5,a0
 1295              	.LVL158:
 1296 0068 08C4     		sw	a0,8(s0)
 1297              	.L81:
 153:C:/Users/stapi/OneDrive/Desktop/GD32VW553/V1_MQTT_OK/GD32VW55X_Wifi_BLE_SDK/GD32VW55x_RELEASE_V1.0.2/MSDK/cloud/alicloud/src/services/shadow\shadow_common.c ****     size_free_space = pformat->buf_size - pformat->offset;
 1298              		.loc 1 153 5 is_stmt 1
 1299 006a 6808     		addi	a0,sp,28
 1300 006c 97000000 		call	HAL_GetDeviceID
 1300      E7800000 
 1301              	.LVL159:
 154:C:/Users/stapi/OneDrive/Desktop/GD32VW553/V1_MQTT_OK/GD32VW55X_Wifi_BLE_SDK/GD32VW55x_RELEASE_V1.0.2/MSDK/cloud/alicloud/src/services/shadow\shadow_common.c ****     if(noversion == 0){
 1302              		.loc 1 154 5
 154:C:/Users/stapi/OneDrive/Desktop/GD32VW553/V1_MQTT_OK/GD32VW55X_Wifi_BLE_SDK/GD32VW55x_RELEASE_V1.0.2/MSDK/cloud/alicloud/src/services/shadow\shadow_common.c ****     if(noversion == 0){
 1303              		.loc 1 154 50 is_stmt 0
 1304 0074 03298400 		lw	s2,8(s0)
 1305              	.LVL160:
 155:C:/Users/stapi/OneDrive/Desktop/GD32VW553/V1_MQTT_OK/GD32VW55X_Wifi_BLE_SDK/GD32VW55x_RELEASE_V1.0.2/MSDK/cloud/alicloud/src/services/shadow\shadow_common.c ****         ret = HAL_Snprintf(pformat->buf + pformat->offset,
 1306              		.loc 1 155 5 is_stmt 1
 154:C:/Users/stapi/OneDrive/Desktop/GD32VW553/V1_MQTT_OK/GD32VW55X_Wifi_BLE_SDK/GD32VW55x_RELEASE_V1.0.2/MSDK/cloud/alicloud/src/services/shadow\shadow_common.c ****     if(noversion == 0){
 1307              		.loc 1 154 41 is_stmt 0
 1308 0078 4440     		lw	s1,4(s0)
 1309 007a 5C44     		lw	a5,12(s0)
 156:C:/Users/stapi/OneDrive/Desktop/GD32VW553/V1_MQTT_OK/GD32VW55X_Wifi_BLE_SDK/GD32VW55x_RELEASE_V1.0.2/MSDK/cloud/alicloud/src/services/shadow\shadow_common.c ****                        size_free_space,
 1310              		.loc 1 156 15
 1311 007c 4E85     		mv	a0,s3
 154:C:/Users/stapi/OneDrive/Desktop/GD32VW553/V1_MQTT_OK/GD32VW55X_Wifi_BLE_SDK/GD32VW55x_RELEASE_V1.0.2/MSDK/cloud/alicloud/src/services/shadow\shadow_common.c ****     if(noversion == 0){
 1312              		.loc 1 154 21
 1313 007e B3842441 		sub	s1,s1,s2
 156:C:/Users/stapi/OneDrive/Desktop/GD32VW553/V1_MQTT_OK/GD32VW55X_Wifi_BLE_SDK/GD32VW55x_RELEASE_V1.0.2/MSDK/cloud/alicloud/src/services/shadow\shadow_common.c ****                        size_free_space,
 1314              		.loc 1 156 15
 1315 0082 B3C40408 		zext.h	s1,s1
 1316 0086 3E99     		add	s2,a5,s2
 1317              	.LVL161:
 155:C:/Users/stapi/OneDrive/Desktop/GD32VW553/V1_MQTT_OK/GD32VW55X_Wifi_BLE_SDK/GD32VW55x_RELEASE_V1.0.2/MSDK/cloud/alicloud/src/services/shadow\shadow_common.c ****         ret = HAL_Snprintf(pformat->buf + pformat->offset,
 1318              		.loc 1 155 7
 1319 0088 63130A04 		bne	s4,zero,.L85
 1320              	.LVL162:
 156:C:/Users/stapi/OneDrive/Desktop/GD32VW553/V1_MQTT_OK/GD32VW55X_Wifi_BLE_SDK/GD32VW55x_RELEASE_V1.0.2/MSDK/cloud/alicloud/src/services/shadow\shadow_common.c ****                        size_free_space,
 1321              		.loc 1 156 9 is_stmt 1
 156:C:/Users/stapi/OneDrive/Desktop/GD32VW553/V1_MQTT_OK/GD32VW55X_Wifi_BLE_SDK/GD32VW55x_RELEASE_V1.0.2/MSDK/cloud/alicloud/src/services/shadow\shadow_common.c ****                        size_free_space,
 1322              		.loc 1 156 15 is_stmt 0
 1323 008c 97000000 		call	iotx_ds_common_get_tokennum
 1323      E7800000 
 1324              	.LVL163:
 1325 0094 2AC6     		sw	a0,12(sp)
 161:C:/Users/stapi/OneDrive/Desktop/GD32VW553/V1_MQTT_OK/GD32VW55X_Wifi_BLE_SDK/GD32VW55x_RELEASE_V1.0.2/MSDK/cloud/alicloud/src/services/shadow\shadow_common.c ****     }else{
 1326              		.loc 1 161 24
 1327 0096 4E85     		mv	a0,s3
 1328 0098 97000000 		call	iotx_ds_common_get_version
 1328      E7800000 
 1329              	.LVL164:
 156:C:/Users/stapi/OneDrive/Desktop/GD32VW553/V1_MQTT_OK/GD32VW55X_Wifi_BLE_SDK/GD32VW55x_RELEASE_V1.0.2/MSDK/cloud/alicloud/src/services/shadow\shadow_common.c ****                        size_free_space,
 1330              		.loc 1 156 15
 1331 00a0 3247     		lw	a4,12(sp)
 1332 00a2 37060000 		lui	a2,%hi(.LC22)
 1333 00a6 93071500 		addi	a5,a0,1
 1334 00aa 7408     		addi	a3,sp,28
 1335 00ac 13060600 		addi	a2,a2,%lo(.LC22)
 1336 00b0 A685     		mv	a1,s1
 1337 00b2 4A85     		mv	a0,s2
 1338 00b4 97000000 		call	HAL_Snprintf
 1338      E7800000 
 1339              	.LVL165:
 1340              	.L86:
 169:C:/Users/stapi/OneDrive/Desktop/GD32VW553/V1_MQTT_OK/GD32VW55X_Wifi_BLE_SDK/GD32VW55x_RELEASE_V1.0.2/MSDK/cloud/alicloud/src/services/shadow\shadow_common.c ****     pformat->offset += ret;
 1341              		.loc 1 169 5 is_stmt 1
 169:C:/Users/stapi/OneDrive/Desktop/GD32VW553/V1_MQTT_OK/GD32VW55X_Wifi_BLE_SDK/GD32VW55x_RELEASE_V1.0.2/MSDK/cloud/alicloud/src/services/shadow\shadow_common.c ****     pformat->offset += ret;
 1342              		.loc 1 169 5
 1343 00bc E34905F8 		blt	a0,zero,.L87
 169:C:/Users/stapi/OneDrive/Desktop/GD32VW553/V1_MQTT_OK/GD32VW55X_Wifi_BLE_SDK/GD32VW55x_RELEASE_V1.0.2/MSDK/cloud/alicloud/src/services/shadow\shadow_common.c ****     pformat->offset += ret;
 1344              		.loc 1 169 5 discriminator 2
 1345 00c0 E35F95F8 		bge	a0,s1,.L88
 169:C:/Users/stapi/OneDrive/Desktop/GD32VW553/V1_MQTT_OK/GD32VW55X_Wifi_BLE_SDK/GD32VW55x_RELEASE_V1.0.2/MSDK/cloud/alicloud/src/services/shadow\shadow_common.c ****     pformat->offset += ret;
 1346              		.loc 1 169 5 discriminator 4
 169:C:/Users/stapi/OneDrive/Desktop/GD32VW553/V1_MQTT_OK/GD32VW55X_Wifi_BLE_SDK/GD32VW55x_RELEASE_V1.0.2/MSDK/cloud/alicloud/src/services/shadow\shadow_common.c ****     pformat->offset += ret;
 1347              		.loc 1 169 45 discriminator 4
 170:C:/Users/stapi/OneDrive/Desktop/GD32VW553/V1_MQTT_OK/GD32VW55X_Wifi_BLE_SDK/GD32VW55x_RELEASE_V1.0.2/MSDK/cloud/alicloud/src/services/shadow\shadow_common.c **** 
 1348              		.loc 1 170 5 discriminator 4
 170:C:/Users/stapi/OneDrive/Desktop/GD32VW553/V1_MQTT_OK/GD32VW55X_Wifi_BLE_SDK/GD32VW55x_RELEASE_V1.0.2/MSDK/cloud/alicloud/src/services/shadow\shadow_common.c **** 
 1349              		.loc 1 170 21 is_stmt 0 discriminator 4
 1350 00c4 1C44     		lw	a5,8(s0)
 1351 00c6 3E95     		add	a0,a5,a0
 1352              	.LVL166:
 1353 00c8 08C4     		sw	a0,8(s0)
 172:C:/Users/stapi/OneDrive/Desktop/GD32VW553/V1_MQTT_OK/GD32VW55X_Wifi_BLE_SDK/GD32VW55x_RELEASE_V1.0.2/MSDK/cloud/alicloud/src/services/shadow\shadow_common.c **** 
 1354              		.loc 1 172 5 is_stmt 1 discriminator 4
 172:C:/Users/stapi/OneDrive/Desktop/GD32VW553/V1_MQTT_OK/GD32VW55X_Wifi_BLE_SDK/GD32VW55x_RELEASE_V1.0.2/MSDK/cloud/alicloud/src/services/shadow\shadow_common.c **** 
 1355              		.loc 1 172 12 is_stmt 0 discriminator 4
 1356 00ca 0145     		li	a0,0
 1357 00cc 51B7     		j	.L80
 1358              	.LVL167:
 1359              	.L85:
 163:C:/Users/stapi/OneDrive/Desktop/GD32VW553/V1_MQTT_OK/GD32VW55X_Wifi_BLE_SDK/GD32VW55x_RELEASE_V1.0.2/MSDK/cloud/alicloud/src/services/shadow\shadow_common.c ****                        size_free_space,
 1360              		.loc 1 163 9 is_stmt 1
 163:C:/Users/stapi/OneDrive/Desktop/GD32VW553/V1_MQTT_OK/GD32VW55X_Wifi_BLE_SDK/GD32VW55x_RELEASE_V1.0.2/MSDK/cloud/alicloud/src/services/shadow\shadow_common.c ****                        size_free_space,
 1361              		.loc 1 163 15 is_stmt 0
 1362 00ce 97000000 		call	iotx_ds_common_get_tokennum
 1362      E7800000 
 1363              	.LVL168:
 1364 00d6 37060000 		lui	a2,%hi(.LC23)
 1365 00da 2A87     		mv	a4,a0
 1366 00dc 7408     		addi	a3,sp,28
 1367 00de 13060600 		addi	a2,a2,%lo(.LC23)
 1368 00e2 A685     		mv	a1,s1
 1369 00e4 4A85     		mv	a0,s2
 1370 00e6 97000000 		call	HAL_Snprintf
 1370      E7800000 
 1371              	.LVL169:
 1372 00ee F9B7     		j	.L86
 1373              		.cfi_endproc
 1374              	.LFE22:
 1376              		.section	.rodata.iotx_ds_common_generate_topic_name.str1.4,"aMS",@progbits,1
 1377              		.align	2
 1378              	.LC24:
 1379 0000 4E6F7420 		.string	"Not enough memory"
 1379      656E6F75 
 1379      6768206D 
 1379      656D6F72 
 1379      7900
 1380 0012 0000     		.align	2
 1381              	.LC25:
 1382 0014 2F736861 		.string	"/shadow/%s/%s/%s"
 1382      646F772F 
 1382      25732F25 
 1382      732F2573 
 1382      00
 1383 0025 000000   		.align	2
 1384              	.LC26:
 1385 0028 72657420 		.string	"ret < len"
 1385      3C206C65 
 1385      6E00
 1386 0032 0000     		.align	2
 1387              	.LC27:
 1388 0034 433A2F55 		.string	"C:/Users/stapi/OneDrive/Desktop/GD32VW553/V1_MQTT_OK/GD32VW55X_Wifi_BLE_SDK/GD32VW55x_REL
 1388      73657273 
 1388      2F737461 
 1388      70692F4F 
 1388      6E654472 
 1389 00d1 000000   		.align	2
 1390              	.LC28:
 1391 00d4 23232320 		.string	"### %s | %s(%d): ASSERT FAILED ###: %s is FALSE\r\n"
 1391      2573207C 
 1391      20257328 
 1391      2564293A 
 1391      20415353 
 1392              		.section	.text.iotx_ds_common_generate_topic_name,"ax",@progbits
 1393              		.align	1
 1394              		.globl	iotx_ds_common_generate_topic_name
 1396              	iotx_ds_common_generate_topic_name:
 1397              	.LFB32:
 364:C:/Users/stapi/OneDrive/Desktop/GD32VW553/V1_MQTT_OK/GD32VW55X_Wifi_BLE_SDK/GD32VW55x_RELEASE_V1.0.2/MSDK/cloud/alicloud/src/services/shadow\shadow_common.c **** 
 365:C:/Users/stapi/OneDrive/Desktop/GD32VW553/V1_MQTT_OK/GD32VW55X_Wifi_BLE_SDK/GD32VW55x_RELEASE_V1.0.2/MSDK/cloud/alicloud/src/services/shadow\shadow_common.c **** 
 366:C:/Users/stapi/OneDrive/Desktop/GD32VW553/V1_MQTT_OK/GD32VW55X_Wifi_BLE_SDK/GD32VW55x_RELEASE_V1.0.2/MSDK/cloud/alicloud/src/services/shadow\shadow_common.c **** char *iotx_ds_common_generate_topic_name(iotx_shadow_pt pshadow, const char *topic)
 367:C:/Users/stapi/OneDrive/Desktop/GD32VW553/V1_MQTT_OK/GD32VW55X_Wifi_BLE_SDK/GD32VW55x_RELEASE_V1.0.2/MSDK/cloud/alicloud/src/services/shadow\shadow_common.c **** {
 1398              		.loc 1 367 1 is_stmt 1
 1399              		.cfi_startproc
 1400              	.LVL170:
 1401 0000 17030000 		call	t0,__riscv_save_2
 1401      E7020300 
 1402              		.cfi_offset 9, -12
 1403              		.cfi_offset 8, -8
 1404              		.cfi_offset 1, -4
 1405              		.cfi_def_cfa_offset 16
 368:C:/Users/stapi/OneDrive/Desktop/GD32VW553/V1_MQTT_OK/GD32VW55X_Wifi_BLE_SDK/GD32VW55x_RELEASE_V1.0.2/MSDK/cloud/alicloud/src/services/shadow\shadow_common.c **** #define SHADOW_TOPIC_FMT      "/shadow/%s/%s/%s"
 369:C:/Users/stapi/OneDrive/Desktop/GD32VW553/V1_MQTT_OK/GD32VW55X_Wifi_BLE_SDK/GD32VW55x_RELEASE_V1.0.2/MSDK/cloud/alicloud/src/services/shadow\shadow_common.c **** #define SHADOW_TOPIC_LEN      (PRODUCT_KEY_LEN + DEVICE_NAME_LEN)
 370:C:/Users/stapi/OneDrive/Desktop/GD32VW553/V1_MQTT_OK/GD32VW55X_Wifi_BLE_SDK/GD32VW55x_RELEASE_V1.0.2/MSDK/cloud/alicloud/src/services/shadow\shadow_common.c **** 
 371:C:/Users/stapi/OneDrive/Desktop/GD32VW553/V1_MQTT_OK/GD32VW55X_Wifi_BLE_SDK/GD32VW55x_RELEASE_V1.0.2/MSDK/cloud/alicloud/src/services/shadow\shadow_common.c ****     int len, ret;
 1406              		.loc 1 371 5
 372:C:/Users/stapi/OneDrive/Desktop/GD32VW553/V1_MQTT_OK/GD32VW55X_Wifi_BLE_SDK/GD32VW55x_RELEASE_V1.0.2/MSDK/cloud/alicloud/src/services/shadow\shadow_common.c ****     char *topic_full = NULL;
 1407              		.loc 1 372 5
 1408              	.LVL171:
 373:C:/Users/stapi/OneDrive/Desktop/GD32VW553/V1_MQTT_OK/GD32VW55X_Wifi_BLE_SDK/GD32VW55x_RELEASE_V1.0.2/MSDK/cloud/alicloud/src/services/shadow\shadow_common.c ****     char product_key[PRODUCT_KEY_LEN + 1] = {0};
 1409              		.loc 1 373 5
 367:C:/Users/stapi/OneDrive/Desktop/GD32VW553/V1_MQTT_OK/GD32VW55X_Wifi_BLE_SDK/GD32VW55x_RELEASE_V1.0.2/MSDK/cloud/alicloud/src/services/shadow\shadow_common.c **** #define SHADOW_TOPIC_FMT      "/shadow/%s/%s/%s"
 1410              		.loc 1 367 1 is_stmt 0
 1411 0008 3971     		addi	sp,sp,-64
 1412              		.cfi_def_cfa_offset 80
 374:C:/Users/stapi/OneDrive/Desktop/GD32VW553/V1_MQTT_OK/GD32VW55X_Wifi_BLE_SDK/GD32VW55x_RELEASE_V1.0.2/MSDK/cloud/alicloud/src/services/shadow\shadow_common.c ****     char device_name[DEVICE_NAME_LEN + 1] = {0};
 1413              		.loc 1 374 10
 1414 000a 7546     		li	a2,29
 367:C:/Users/stapi/OneDrive/Desktop/GD32VW553/V1_MQTT_OK/GD32VW55X_Wifi_BLE_SDK/GD32VW55x_RELEASE_V1.0.2/MSDK/cloud/alicloud/src/services/shadow\shadow_common.c **** #define SHADOW_TOPIC_FMT      "/shadow/%s/%s/%s"
 1415              		.loc 1 367 1
 1416 000c AE84     		mv	s1,a1
 1417              		.loc 1 374 10
 1418 000e 0810     		addi	a0,sp,32
 1419              	.LVL172:
 1420 0010 8145     		li	a1,0
 1421              	.LVL173:
 373:C:/Users/stapi/OneDrive/Desktop/GD32VW553/V1_MQTT_OK/GD32VW55X_Wifi_BLE_SDK/GD32VW55x_RELEASE_V1.0.2/MSDK/cloud/alicloud/src/services/shadow\shadow_common.c ****     char product_key[PRODUCT_KEY_LEN + 1] = {0};
 1422              		.loc 1 373 10
 1423 0012 02C2     		sw	zero,4(sp)
 1424 0014 02C4     		sw	zero,8(sp)
 1425 0016 02C6     		sw	zero,12(sp)
 1426 0018 02C8     		sw	zero,16(sp)
 1427 001a 02CA     		sw	zero,20(sp)
 1428 001c 230C0100 		sb	zero,24(sp)
 1429              		.loc 1 374 5 is_stmt 1
 1430              		.loc 1 374 10 is_stmt 0
 1431 0020 02CE     		sw	zero,28(sp)
 1432 0022 97000000 		call	memset
 1432      E7800000 
 1433              	.LVL174:
 375:C:/Users/stapi/OneDrive/Desktop/GD32VW553/V1_MQTT_OK/GD32VW55X_Wifi_BLE_SDK/GD32VW55x_RELEASE_V1.0.2/MSDK/cloud/alicloud/src/services/shadow\shadow_common.c **** 
 376:C:/Users/stapi/OneDrive/Desktop/GD32VW553/V1_MQTT_OK/GD32VW55X_Wifi_BLE_SDK/GD32VW55x_RELEASE_V1.0.2/MSDK/cloud/alicloud/src/services/shadow\shadow_common.c ****     len = SHADOW_TOPIC_LEN + sizeof(SHADOW_TOPIC_FMT);
 1434              		.loc 1 376 5 is_stmt 1
 377:C:/Users/stapi/OneDrive/Desktop/GD32VW553/V1_MQTT_OK/GD32VW55X_Wifi_BLE_SDK/GD32VW55x_RELEASE_V1.0.2/MSDK/cloud/alicloud/src/services/shadow\shadow_common.c **** 
 378:C:/Users/stapi/OneDrive/Desktop/GD32VW553/V1_MQTT_OK/GD32VW55X_Wifi_BLE_SDK/GD32VW55x_RELEASE_V1.0.2/MSDK/cloud/alicloud/src/services/shadow\shadow_common.c ****     topic_full = SHADOW_malloc(len + 1);
 1435              		.loc 1 378 5
 1436              		.loc 1 378 18 is_stmt 0
 1437 002a 13066004 		li	a2,70
 1438 002e 8145     		li	a1,0
 1439 0030 0145     		li	a0,0
 1440 0032 97000000 		call	LITE_malloc_internal
 1440      E7800000 
 1441              	.LVL175:
 1442 003a 2A84     		mv	s0,a0
 1443              	.LVL176:
 379:C:/Users/stapi/OneDrive/Desktop/GD32VW553/V1_MQTT_OK/GD32VW55X_Wifi_BLE_SDK/GD32VW55x_RELEASE_V1.0.2/MSDK/cloud/alicloud/src/services/shadow\shadow_common.c ****     if (NULL == topic_full) {
 1444              		.loc 1 379 5 is_stmt 1
 1445              		.loc 1 379 8 is_stmt 0
 1446 003c 1DED     		bne	a0,zero,.L94
 380:C:/Users/stapi/OneDrive/Desktop/GD32VW553/V1_MQTT_OK/GD32VW55X_Wifi_BLE_SDK/GD32VW55x_RELEASE_V1.0.2/MSDK/cloud/alicloud/src/services/shadow\shadow_common.c ****         shadow_err("Not enough memory");
 1447              		.loc 1 380 9 is_stmt 1
 1448              		.loc 1 380 9
 1449 003e 37050000 		lui	a0,%hi(.LC7)
 1450 0042 13050500 		addi	a0,a0,%lo(.LC7)
 1451 0046 97000000 		call	HAL_Printf
 1451      E7800000 
 1452              	.LVL177:
 1453              		.loc 1 380 9
 1454 004e 37050000 		lui	a0,%hi(.LC24)
 1455 0052 13050500 		addi	a0,a0,%lo(.LC24)
 1456 0056 97000000 		call	HAL_Printf
 1456      E7800000 
 1457              	.LVL178:
 1458              		.loc 1 380 9
 1459 005e 37050000 		lui	a0,%hi(.LC9)
 1460 0062 13050500 		addi	a0,a0,%lo(.LC9)
 1461 0066 97000000 		call	HAL_Printf
 1461      E7800000 
 1462              	.LVL179:
 1463              		.loc 1 380 9
 381:C:/Users/stapi/OneDrive/Desktop/GD32VW553/V1_MQTT_OK/GD32VW55X_Wifi_BLE_SDK/GD32VW55x_RELEASE_V1.0.2/MSDK/cloud/alicloud/src/services/shadow\shadow_common.c ****         return NULL;
 1464              		.loc 1 381 9
 1465              	.L93:
 382:C:/Users/stapi/OneDrive/Desktop/GD32VW553/V1_MQTT_OK/GD32VW55X_Wifi_BLE_SDK/GD32VW55x_RELEASE_V1.0.2/MSDK/cloud/alicloud/src/services/shadow\shadow_common.c ****     }
 383:C:/Users/stapi/OneDrive/Desktop/GD32VW553/V1_MQTT_OK/GD32VW55X_Wifi_BLE_SDK/GD32VW55x_RELEASE_V1.0.2/MSDK/cloud/alicloud/src/services/shadow\shadow_common.c **** 
 384:C:/Users/stapi/OneDrive/Desktop/GD32VW553/V1_MQTT_OK/GD32VW55X_Wifi_BLE_SDK/GD32VW55x_RELEASE_V1.0.2/MSDK/cloud/alicloud/src/services/shadow\shadow_common.c ****     HAL_GetProductKey(product_key);
 385:C:/Users/stapi/OneDrive/Desktop/GD32VW553/V1_MQTT_OK/GD32VW55X_Wifi_BLE_SDK/GD32VW55x_RELEASE_V1.0.2/MSDK/cloud/alicloud/src/services/shadow\shadow_common.c ****     HAL_GetDeviceName(device_name);
 386:C:/Users/stapi/OneDrive/Desktop/GD32VW553/V1_MQTT_OK/GD32VW55X_Wifi_BLE_SDK/GD32VW55x_RELEASE_V1.0.2/MSDK/cloud/alicloud/src/services/shadow\shadow_common.c **** 
 387:C:/Users/stapi/OneDrive/Desktop/GD32VW553/V1_MQTT_OK/GD32VW55X_Wifi_BLE_SDK/GD32VW55x_RELEASE_V1.0.2/MSDK/cloud/alicloud/src/services/shadow\shadow_common.c ****     ret = HAL_Snprintf(topic_full,
 388:C:/Users/stapi/OneDrive/Desktop/GD32VW553/V1_MQTT_OK/GD32VW55X_Wifi_BLE_SDK/GD32VW55x_RELEASE_V1.0.2/MSDK/cloud/alicloud/src/services/shadow\shadow_common.c ****                        len,
 389:C:/Users/stapi/OneDrive/Desktop/GD32VW553/V1_MQTT_OK/GD32VW55X_Wifi_BLE_SDK/GD32VW55x_RELEASE_V1.0.2/MSDK/cloud/alicloud/src/services/shadow\shadow_common.c ****                        SHADOW_TOPIC_FMT,
 390:C:/Users/stapi/OneDrive/Desktop/GD32VW553/V1_MQTT_OK/GD32VW55X_Wifi_BLE_SDK/GD32VW55x_RELEASE_V1.0.2/MSDK/cloud/alicloud/src/services/shadow\shadow_common.c ****                        topic,
 391:C:/Users/stapi/OneDrive/Desktop/GD32VW553/V1_MQTT_OK/GD32VW55X_Wifi_BLE_SDK/GD32VW55x_RELEASE_V1.0.2/MSDK/cloud/alicloud/src/services/shadow\shadow_common.c ****                        product_key,
 392:C:/Users/stapi/OneDrive/Desktop/GD32VW553/V1_MQTT_OK/GD32VW55X_Wifi_BLE_SDK/GD32VW55x_RELEASE_V1.0.2/MSDK/cloud/alicloud/src/services/shadow\shadow_common.c ****                        device_name);
 393:C:/Users/stapi/OneDrive/Desktop/GD32VW553/V1_MQTT_OK/GD32VW55X_Wifi_BLE_SDK/GD32VW55x_RELEASE_V1.0.2/MSDK/cloud/alicloud/src/services/shadow\shadow_common.c ****     if (ret < 0) {
 394:C:/Users/stapi/OneDrive/Desktop/GD32VW553/V1_MQTT_OK/GD32VW55X_Wifi_BLE_SDK/GD32VW55x_RELEASE_V1.0.2/MSDK/cloud/alicloud/src/services/shadow\shadow_common.c ****         LITE_free(topic_full);
 395:C:/Users/stapi/OneDrive/Desktop/GD32VW553/V1_MQTT_OK/GD32VW55X_Wifi_BLE_SDK/GD32VW55x_RELEASE_V1.0.2/MSDK/cloud/alicloud/src/services/shadow\shadow_common.c ****         return NULL;
 396:C:/Users/stapi/OneDrive/Desktop/GD32VW553/V1_MQTT_OK/GD32VW55X_Wifi_BLE_SDK/GD32VW55x_RELEASE_V1.0.2/MSDK/cloud/alicloud/src/services/shadow\shadow_common.c ****     }
 397:C:/Users/stapi/OneDrive/Desktop/GD32VW553/V1_MQTT_OK/GD32VW55X_Wifi_BLE_SDK/GD32VW55x_RELEASE_V1.0.2/MSDK/cloud/alicloud/src/services/shadow\shadow_common.c **** 
 398:C:/Users/stapi/OneDrive/Desktop/GD32VW553/V1_MQTT_OK/GD32VW55X_Wifi_BLE_SDK/GD32VW55x_RELEASE_V1.0.2/MSDK/cloud/alicloud/src/services/shadow\shadow_common.c ****     LITE_ASSERT(ret < len);
 399:C:/Users/stapi/OneDrive/Desktop/GD32VW553/V1_MQTT_OK/GD32VW55X_Wifi_BLE_SDK/GD32VW55x_RELEASE_V1.0.2/MSDK/cloud/alicloud/src/services/shadow\shadow_common.c **** 
 400:C:/Users/stapi/OneDrive/Desktop/GD32VW553/V1_MQTT_OK/GD32VW55X_Wifi_BLE_SDK/GD32VW55x_RELEASE_V1.0.2/MSDK/cloud/alicloud/src/services/shadow\shadow_common.c ****     return topic_full;
 401:C:/Users/stapi/OneDrive/Desktop/GD32VW553/V1_MQTT_OK/GD32VW55X_Wifi_BLE_SDK/GD32VW55x_RELEASE_V1.0.2/MSDK/cloud/alicloud/src/services/shadow\shadow_common.c **** }
 1466              		.loc 1 401 1 is_stmt 0
 1467 006e 2285     		mv	a0,s0
 1468 0070 2161     		addi	sp,sp,64
 1469              		.cfi_remember_state
 1470              		.cfi_def_cfa_offset 0
 1471 0072 17030000 		tail	__riscv_restore_2
 1471      67000300 
 1472              		.cfi_restore 9
 1473              		.cfi_restore 8
 1474              		.cfi_restore 1
 1475              		.cfi_def_cfa_offset -16
 1476              	.LVL180:
 1477              	.L94:
 1478              		.cfi_restore_state
 384:C:/Users/stapi/OneDrive/Desktop/GD32VW553/V1_MQTT_OK/GD32VW55X_Wifi_BLE_SDK/GD32VW55x_RELEASE_V1.0.2/MSDK/cloud/alicloud/src/services/shadow\shadow_common.c ****     HAL_GetDeviceName(device_name);
 1479              		.loc 1 384 5 is_stmt 1
 1480 007a 4800     		addi	a0,sp,4
 1481 007c 97000000 		call	HAL_GetProductKey
 1481      E7800000 
 1482              	.LVL181:
 385:C:/Users/stapi/OneDrive/Desktop/GD32VW553/V1_MQTT_OK/GD32VW55X_Wifi_BLE_SDK/GD32VW55x_RELEASE_V1.0.2/MSDK/cloud/alicloud/src/services/shadow\shadow_common.c **** 
 1483              		.loc 1 385 5
 1484 0084 6808     		addi	a0,sp,28
 1485 0086 97000000 		call	HAL_GetDeviceName
 1485      E7800000 
 1486              	.LVL182:
 387:C:/Users/stapi/OneDrive/Desktop/GD32VW553/V1_MQTT_OK/GD32VW55X_Wifi_BLE_SDK/GD32VW55x_RELEASE_V1.0.2/MSDK/cloud/alicloud/src/services/shadow\shadow_common.c ****                        len,
 1487              		.loc 1 387 5
 387:C:/Users/stapi/OneDrive/Desktop/GD32VW553/V1_MQTT_OK/GD32VW55X_Wifi_BLE_SDK/GD32VW55x_RELEASE_V1.0.2/MSDK/cloud/alicloud/src/services/shadow\shadow_common.c ****                        len,
 1488              		.loc 1 387 11 is_stmt 0
 1489 008e 37060000 		lui	a2,%hi(.LC25)
 1490 0092 7C08     		addi	a5,sp,28
 1491 0094 5800     		addi	a4,sp,4
 1492 0096 A686     		mv	a3,s1
 1493 0098 13060600 		addi	a2,a2,%lo(.LC25)
 1494 009c 93055004 		li	a1,69
 1495 00a0 2285     		mv	a0,s0
 1496 00a2 97000000 		call	HAL_Snprintf
 1496      E7800000 
 1497              	.LVL183:
 393:C:/Users/stapi/OneDrive/Desktop/GD32VW553/V1_MQTT_OK/GD32VW55X_Wifi_BLE_SDK/GD32VW55x_RELEASE_V1.0.2/MSDK/cloud/alicloud/src/services/shadow\shadow_common.c ****         LITE_free(topic_full);
 1498              		.loc 1 393 5 is_stmt 1
 393:C:/Users/stapi/OneDrive/Desktop/GD32VW553/V1_MQTT_OK/GD32VW55X_Wifi_BLE_SDK/GD32VW55x_RELEASE_V1.0.2/MSDK/cloud/alicloud/src/services/shadow\shadow_common.c ****         LITE_free(topic_full);
 1499              		.loc 1 393 8 is_stmt 0
 1500 00aa 63590500 		bge	a0,zero,.L96
 394:C:/Users/stapi/OneDrive/Desktop/GD32VW553/V1_MQTT_OK/GD32VW55X_Wifi_BLE_SDK/GD32VW55x_RELEASE_V1.0.2/MSDK/cloud/alicloud/src/services/shadow\shadow_common.c ****         return NULL;
 1501              		.loc 1 394 9 is_stmt 1
 1502 00ae 2285     		mv	a0,s0
 1503              	.LVL184:
 1504 00b0 97000000 		call	LITE_free_internal
 1504      E7800000 
 1505              	.LVL185:
 395:C:/Users/stapi/OneDrive/Desktop/GD32VW553/V1_MQTT_OK/GD32VW55X_Wifi_BLE_SDK/GD32VW55x_RELEASE_V1.0.2/MSDK/cloud/alicloud/src/services/shadow\shadow_common.c ****     }
 1506              		.loc 1 395 9
 395:C:/Users/stapi/OneDrive/Desktop/GD32VW553/V1_MQTT_OK/GD32VW55X_Wifi_BLE_SDK/GD32VW55x_RELEASE_V1.0.2/MSDK/cloud/alicloud/src/services/shadow\shadow_common.c ****     }
 1507              		.loc 1 395 16 is_stmt 0
 1508 00b8 0144     		li	s0,0
 1509              	.LVL186:
 1510 00ba 55BF     		j	.L93
 1511              	.LVL187:
 1512              	.L96:
 398:C:/Users/stapi/OneDrive/Desktop/GD32VW553/V1_MQTT_OK/GD32VW55X_Wifi_BLE_SDK/GD32VW55x_RELEASE_V1.0.2/MSDK/cloud/alicloud/src/services/shadow\shadow_common.c **** 
 1513              		.loc 1 398 5 is_stmt 1
 398:C:/Users/stapi/OneDrive/Desktop/GD32VW553/V1_MQTT_OK/GD32VW55X_Wifi_BLE_SDK/GD32VW55x_RELEASE_V1.0.2/MSDK/cloud/alicloud/src/services/shadow\shadow_common.c **** 
 1514              		.loc 1 398 5
 1515 00bc 93074004 		li	a5,68
 1516 00c0 E3D7A7FA 		ble	a0,a5,.L93
 398:C:/Users/stapi/OneDrive/Desktop/GD32VW553/V1_MQTT_OK/GD32VW55X_Wifi_BLE_SDK/GD32VW55x_RELEASE_V1.0.2/MSDK/cloud/alicloud/src/services/shadow\shadow_common.c **** 
 1517              		.loc 1 398 5 discriminator 1
 1518 00c4 37070000 		lui	a4,%hi(.LC26)
 1519 00c8 37060000 		lui	a2,%hi(.LANCHOR1)
 1520 00cc B7050000 		lui	a1,%hi(.LC27)
 1521 00d0 37050000 		lui	a0,%hi(.LC28)
 1522              	.LVL188:
 1523 00d4 13070700 		addi	a4,a4,%lo(.LC26)
 1524 00d8 9306E018 		li	a3,398
 1525 00dc 13060600 		addi	a2,a2,%lo(.LANCHOR1)
 1526 00e0 93850500 		addi	a1,a1,%lo(.LC27)
 1527 00e4 13050500 		addi	a0,a0,%lo(.LC28)
 1528 00e8 97000000 		call	HAL_Printf
 1528      E7800000 
 1529              	.LVL189:
 1530 00f0 BDBF     		j	.L93
 1531              		.cfi_endproc
 1532              	.LFE32:
 1534              		.section	.rodata.iotx_ds_common_publish2update.str1.4,"aMS",@progbits,1
 1535              		.align	2
 1536              	.LC29:
 1537 0000 7075626C 		.string	"publish msg: len=%d, str=%s"
 1537      69736820 
 1537      6D73673A 
 1537      206C656E 
 1537      3D25642C 
 1538              		.align	2
 1539              	.LC30:
 1540 001c 75706461 		.string	"update"
 1540      746500
 1541              		.section	.text.iotx_ds_common_publish2update,"ax",@progbits
 1542              		.align	1
 1543              		.globl	iotx_ds_common_publish2update
 1545              	iotx_ds_common_publish2update:
 1546              	.LFB33:
 402:C:/Users/stapi/OneDrive/Desktop/GD32VW553/V1_MQTT_OK/GD32VW55X_Wifi_BLE_SDK/GD32VW55x_RELEASE_V1.0.2/MSDK/cloud/alicloud/src/services/shadow\shadow_common.c **** 
 403:C:/Users/stapi/OneDrive/Desktop/GD32VW553/V1_MQTT_OK/GD32VW55X_Wifi_BLE_SDK/GD32VW55x_RELEASE_V1.0.2/MSDK/cloud/alicloud/src/services/shadow\shadow_common.c **** 
 404:C:/Users/stapi/OneDrive/Desktop/GD32VW553/V1_MQTT_OK/GD32VW55X_Wifi_BLE_SDK/GD32VW55x_RELEASE_V1.0.2/MSDK/cloud/alicloud/src/services/shadow\shadow_common.c **** int iotx_ds_common_publish2update(iotx_shadow_pt pshadow, char *data, uint32_t data_len)
 405:C:/Users/stapi/OneDrive/Desktop/GD32VW553/V1_MQTT_OK/GD32VW55X_Wifi_BLE_SDK/GD32VW55x_RELEASE_V1.0.2/MSDK/cloud/alicloud/src/services/shadow\shadow_common.c **** {
 1547              		.loc 1 405 1
 1548              		.cfi_startproc
 1549              	.LVL190:
 1550 0000 17030000 		call	t0,__riscv_save_3
 1550      E7020300 
 1551              		.cfi_offset 18, -16
 1552              		.cfi_offset 9, -12
 1553              		.cfi_offset 8, -8
 1554              		.cfi_offset 1, -4
 1555              		.cfi_def_cfa_offset 16
 406:C:/Users/stapi/OneDrive/Desktop/GD32VW553/V1_MQTT_OK/GD32VW55X_Wifi_BLE_SDK/GD32VW55x_RELEASE_V1.0.2/MSDK/cloud/alicloud/src/services/shadow\shadow_common.c ****     iotx_mqtt_topic_info_t topic_msg;
 1556              		.loc 1 406 5
 407:C:/Users/stapi/OneDrive/Desktop/GD32VW553/V1_MQTT_OK/GD32VW55X_Wifi_BLE_SDK/GD32VW55x_RELEASE_V1.0.2/MSDK/cloud/alicloud/src/services/shadow\shadow_common.c **** 
 408:C:/Users/stapi/OneDrive/Desktop/GD32VW553/V1_MQTT_OK/GD32VW55X_Wifi_BLE_SDK/GD32VW55x_RELEASE_V1.0.2/MSDK/cloud/alicloud/src/services/shadow\shadow_common.c ****     /* check if topic name have been generated or not */
 409:C:/Users/stapi/OneDrive/Desktop/GD32VW553/V1_MQTT_OK/GD32VW55X_Wifi_BLE_SDK/GD32VW55x_RELEASE_V1.0.2/MSDK/cloud/alicloud/src/services/shadow\shadow_common.c ****     if (NULL == pshadow->inner_data.ptopic_update) {
 1557              		.loc 1 409 5
 1558              		.loc 1 409 8 is_stmt 0
 1559 0008 8327C52E 		lw	a5,748(a0)
 405:C:/Users/stapi/OneDrive/Desktop/GD32VW553/V1_MQTT_OK/GD32VW55X_Wifi_BLE_SDK/GD32VW55x_RELEASE_V1.0.2/MSDK/cloud/alicloud/src/services/shadow\shadow_common.c ****     iotx_mqtt_topic_info_t topic_msg;
 1560              		.loc 1 405 1
 1561 000c 0111     		addi	sp,sp,-32
 1562              		.cfi_def_cfa_offset 48
 405:C:/Users/stapi/OneDrive/Desktop/GD32VW553/V1_MQTT_OK/GD32VW55X_Wifi_BLE_SDK/GD32VW55x_RELEASE_V1.0.2/MSDK/cloud/alicloud/src/services/shadow\shadow_common.c ****     iotx_mqtt_topic_info_t topic_msg;
 1563              		.loc 1 405 1
 1564 000e 2A84     		mv	s0,a0
 1565 0010 AE84     		mv	s1,a1
 1566 0012 3289     		mv	s2,a2
 1567              		.loc 1 409 8
 1568 0014 A9CB     		beq	a5,zero,.L99
 1569              	.LVL191:
 1570              	.L101:
 410:C:/Users/stapi/OneDrive/Desktop/GD32VW553/V1_MQTT_OK/GD32VW55X_Wifi_BLE_SDK/GD32VW55x_RELEASE_V1.0.2/MSDK/cloud/alicloud/src/services/shadow\shadow_common.c ****         /* Have NOT update topic name, generate it. */
 411:C:/Users/stapi/OneDrive/Desktop/GD32VW553/V1_MQTT_OK/GD32VW55X_Wifi_BLE_SDK/GD32VW55x_RELEASE_V1.0.2/MSDK/cloud/alicloud/src/services/shadow\shadow_common.c ****         pshadow->inner_data.ptopic_update = iotx_ds_common_generate_topic_name(pshadow, "update");
 412:C:/Users/stapi/OneDrive/Desktop/GD32VW553/V1_MQTT_OK/GD32VW55X_Wifi_BLE_SDK/GD32VW55x_RELEASE_V1.0.2/MSDK/cloud/alicloud/src/services/shadow\shadow_common.c ****         if (NULL == pshadow->inner_data.ptopic_update) {
 413:C:/Users/stapi/OneDrive/Desktop/GD32VW553/V1_MQTT_OK/GD32VW55X_Wifi_BLE_SDK/GD32VW55x_RELEASE_V1.0.2/MSDK/cloud/alicloud/src/services/shadow\shadow_common.c ****             return FAIL_RETURN;
 414:C:/Users/stapi/OneDrive/Desktop/GD32VW553/V1_MQTT_OK/GD32VW55X_Wifi_BLE_SDK/GD32VW55x_RELEASE_V1.0.2/MSDK/cloud/alicloud/src/services/shadow\shadow_common.c ****         }
 415:C:/Users/stapi/OneDrive/Desktop/GD32VW553/V1_MQTT_OK/GD32VW55X_Wifi_BLE_SDK/GD32VW55x_RELEASE_V1.0.2/MSDK/cloud/alicloud/src/services/shadow\shadow_common.c ****     }
 416:C:/Users/stapi/OneDrive/Desktop/GD32VW553/V1_MQTT_OK/GD32VW55X_Wifi_BLE_SDK/GD32VW55x_RELEASE_V1.0.2/MSDK/cloud/alicloud/src/services/shadow\shadow_common.c **** 
 417:C:/Users/stapi/OneDrive/Desktop/GD32VW553/V1_MQTT_OK/GD32VW55X_Wifi_BLE_SDK/GD32VW55x_RELEASE_V1.0.2/MSDK/cloud/alicloud/src/services/shadow\shadow_common.c ****     shadow_debug("publish msg: len=%d, str=%s", data_len, data);
 1571              		.loc 1 417 5 is_stmt 1
 1572 0016 37070000 		lui	a4,%hi(.LC29)
 1573 001a B7050000 		lui	a1,%hi(.LANCHOR2)
 1574 001e 37050000 		lui	a0,%hi(.LC18)
 1575 0022 CA87     		mv	a5,s2
 1576 0024 1306101A 		li	a2,417
 1577 0028 93850500 		addi	a1,a1,%lo(.LANCHOR2)
 1578 002c 13050500 		addi	a0,a0,%lo(.LC18)
 1579 0030 2688     		mv	a6,s1
 1580 0032 13070700 		addi	a4,a4,%lo(.LC29)
 1581 0036 9546     		li	a3,5
 1582 0038 97000000 		call	LITE_syslog
 1582      E7800000 
 1583              	.LVL192:
 418:C:/Users/stapi/OneDrive/Desktop/GD32VW553/V1_MQTT_OK/GD32VW55X_Wifi_BLE_SDK/GD32VW55x_RELEASE_V1.0.2/MSDK/cloud/alicloud/src/services/shadow\shadow_common.c **** 
 419:C:/Users/stapi/OneDrive/Desktop/GD32VW553/V1_MQTT_OK/GD32VW55X_Wifi_BLE_SDK/GD32VW55x_RELEASE_V1.0.2/MSDK/cloud/alicloud/src/services/shadow\shadow_common.c ****     topic_msg.qos = IOTX_MQTT_QOS1;
 1584              		.loc 1 419 5
 420:C:/Users/stapi/OneDrive/Desktop/GD32VW553/V1_MQTT_OK/GD32VW55X_Wifi_BLE_SDK/GD32VW55x_RELEASE_V1.0.2/MSDK/cloud/alicloud/src/services/shadow\shadow_common.c ****     topic_msg.retain = 0;
 1585              		.loc 1 420 5
 421:C:/Users/stapi/OneDrive/Desktop/GD32VW553/V1_MQTT_OK/GD32VW55X_Wifi_BLE_SDK/GD32VW55x_RELEASE_V1.0.2/MSDK/cloud/alicloud/src/services/shadow\shadow_common.c ****     topic_msg.dup = 0;
 1586              		.loc 1 421 5
 422:C:/Users/stapi/OneDrive/Desktop/GD32VW553/V1_MQTT_OK/GD32VW55X_Wifi_BLE_SDK/GD32VW55x_RELEASE_V1.0.2/MSDK/cloud/alicloud/src/services/shadow\shadow_common.c ****     topic_msg.payload = (void *)data;
 1587              		.loc 1 422 5
 423:C:/Users/stapi/OneDrive/Desktop/GD32VW553/V1_MQTT_OK/GD32VW55X_Wifi_BLE_SDK/GD32VW55x_RELEASE_V1.0.2/MSDK/cloud/alicloud/src/services/shadow\shadow_common.c ****     topic_msg.payload_len = data_len;
 424:C:/Users/stapi/OneDrive/Desktop/GD32VW553/V1_MQTT_OK/GD32VW55X_Wifi_BLE_SDK/GD32VW55x_RELEASE_V1.0.2/MSDK/cloud/alicloud/src/services/shadow\shadow_common.c ****     topic_msg.packet_id = 0;
 425:C:/Users/stapi/OneDrive/Desktop/GD32VW553/V1_MQTT_OK/GD32VW55X_Wifi_BLE_SDK/GD32VW55x_RELEASE_V1.0.2/MSDK/cloud/alicloud/src/services/shadow\shadow_common.c **** 
 426:C:/Users/stapi/OneDrive/Desktop/GD32VW553/V1_MQTT_OK/GD32VW55X_Wifi_BLE_SDK/GD32VW55x_RELEASE_V1.0.2/MSDK/cloud/alicloud/src/services/shadow\shadow_common.c ****     return IOT_MQTT_Publish(pshadow->mqtt, pshadow->inner_data.ptopic_update, &topic_msg);
 1588              		.loc 1 426 12 is_stmt 0
 1589 0040 8325C42E 		lw	a1,748(s0)
 1590 0044 0840     		lw	a0,0(s0)
 424:C:/Users/stapi/OneDrive/Desktop/GD32VW553/V1_MQTT_OK/GD32VW55X_Wifi_BLE_SDK/GD32VW55x_RELEASE_V1.0.2/MSDK/cloud/alicloud/src/services/shadow\shadow_common.c **** 
 1591              		.loc 1 424 25
 1592 0046 C167     		li	a5,65536
 1593              		.loc 1 426 12
 1594 0048 7000     		addi	a2,sp,12
 422:C:/Users/stapi/OneDrive/Desktop/GD32VW553/V1_MQTT_OK/GD32VW55X_Wifi_BLE_SDK/GD32VW55x_RELEASE_V1.0.2/MSDK/cloud/alicloud/src/services/shadow\shadow_common.c ****     topic_msg.payload = (void *)data;
 1595              		.loc 1 422 23
 1596 004a 26CE     		sw	s1,28(sp)
 423:C:/Users/stapi/OneDrive/Desktop/GD32VW553/V1_MQTT_OK/GD32VW55X_Wifi_BLE_SDK/GD32VW55x_RELEASE_V1.0.2/MSDK/cloud/alicloud/src/services/shadow\shadow_common.c ****     topic_msg.payload_len = data_len;
 1597              		.loc 1 423 5 is_stmt 1
 423:C:/Users/stapi/OneDrive/Desktop/GD32VW553/V1_MQTT_OK/GD32VW55X_Wifi_BLE_SDK/GD32VW55x_RELEASE_V1.0.2/MSDK/cloud/alicloud/src/services/shadow\shadow_common.c ****     topic_msg.payload_len = data_len;
 1598              		.loc 1 423 27 is_stmt 0
 1599 004c 4ACA     		sw	s2,20(sp)
 424:C:/Users/stapi/OneDrive/Desktop/GD32VW553/V1_MQTT_OK/GD32VW55X_Wifi_BLE_SDK/GD32VW55x_RELEASE_V1.0.2/MSDK/cloud/alicloud/src/services/shadow\shadow_common.c **** 
 1600              		.loc 1 424 5 is_stmt 1
 424:C:/Users/stapi/OneDrive/Desktop/GD32VW553/V1_MQTT_OK/GD32VW55X_Wifi_BLE_SDK/GD32VW55x_RELEASE_V1.0.2/MSDK/cloud/alicloud/src/services/shadow\shadow_common.c **** 
 1601              		.loc 1 424 25 is_stmt 0
 1602 004e 3EC6     		sw	a5,12(sp)
 420:C:/Users/stapi/OneDrive/Desktop/GD32VW553/V1_MQTT_OK/GD32VW55X_Wifi_BLE_SDK/GD32VW55x_RELEASE_V1.0.2/MSDK/cloud/alicloud/src/services/shadow\shadow_common.c ****     topic_msg.dup = 0;
 1603              		.loc 1 420 22
 1604 0050 23080100 		sb	zero,16(sp)
 1605              		.loc 1 426 5 is_stmt 1
 1606              		.loc 1 426 12 is_stmt 0
 1607 0054 97000000 		call	IOT_MQTT_Publish
 1607      E7800000 
 1608              	.LVL193:
 1609              	.L98:
 427:C:/Users/stapi/OneDrive/Desktop/GD32VW553/V1_MQTT_OK/GD32VW55X_Wifi_BLE_SDK/GD32VW55x_RELEASE_V1.0.2/MSDK/cloud/alicloud/src/services/shadow\shadow_common.c **** }
 1610              		.loc 1 427 1
 1611 005c 0561     		addi	sp,sp,32
 1612              		.cfi_remember_state
 1613              		.cfi_def_cfa_offset 0
 1614 005e 17030000 		tail	__riscv_restore_3
 1614      67000300 
 1615              		.cfi_restore 18
 1616              		.cfi_restore 9
 1617              		.cfi_restore 8
 1618              		.cfi_restore 1
 1619              		.cfi_def_cfa_offset -16
 1620              	.LVL194:
 1621              	.L99:
 1622              		.cfi_restore_state
 411:C:/Users/stapi/OneDrive/Desktop/GD32VW553/V1_MQTT_OK/GD32VW55X_Wifi_BLE_SDK/GD32VW55x_RELEASE_V1.0.2/MSDK/cloud/alicloud/src/services/shadow\shadow_common.c ****         if (NULL == pshadow->inner_data.ptopic_update) {
 1623              		.loc 1 411 9 is_stmt 1
 411:C:/Users/stapi/OneDrive/Desktop/GD32VW553/V1_MQTT_OK/GD32VW55X_Wifi_BLE_SDK/GD32VW55x_RELEASE_V1.0.2/MSDK/cloud/alicloud/src/services/shadow\shadow_common.c ****         if (NULL == pshadow->inner_data.ptopic_update) {
 1624              		.loc 1 411 45 is_stmt 0
 1625 0066 B7050000 		lui	a1,%hi(.LC30)
 1626 006a 93850500 		addi	a1,a1,%lo(.LC30)
 1627 006e 97000000 		call	iotx_ds_common_generate_topic_name
 1627      E7800000 
 1628              	.LVL195:
 411:C:/Users/stapi/OneDrive/Desktop/GD32VW553/V1_MQTT_OK/GD32VW55X_Wifi_BLE_SDK/GD32VW55x_RELEASE_V1.0.2/MSDK/cloud/alicloud/src/services/shadow\shadow_common.c ****         if (NULL == pshadow->inner_data.ptopic_update) {
 1629              		.loc 1 411 43
 1630 0076 2326A42E 		sw	a0,748(s0)
 412:C:/Users/stapi/OneDrive/Desktop/GD32VW553/V1_MQTT_OK/GD32VW55X_Wifi_BLE_SDK/GD32VW55x_RELEASE_V1.0.2/MSDK/cloud/alicloud/src/services/shadow\shadow_common.c ****             return FAIL_RETURN;
 1631              		.loc 1 412 9 is_stmt 1
 412:C:/Users/stapi/OneDrive/Desktop/GD32VW553/V1_MQTT_OK/GD32VW55X_Wifi_BLE_SDK/GD32VW55x_RELEASE_V1.0.2/MSDK/cloud/alicloud/src/services/shadow\shadow_common.c ****             return FAIL_RETURN;
 1632              		.loc 1 412 12 is_stmt 0
 1633 007a 51FD     		bne	a0,zero,.L101
 413:C:/Users/stapi/OneDrive/Desktop/GD32VW553/V1_MQTT_OK/GD32VW55X_Wifi_BLE_SDK/GD32VW55x_RELEASE_V1.0.2/MSDK/cloud/alicloud/src/services/shadow\shadow_common.c ****         }
 1634              		.loc 1 413 20
 1635 007c 7D55     		li	a0,-1
 1636 007e F9BF     		j	.L98
 1637              		.cfi_endproc
 1638              	.LFE33:
 1640              		.section	.rodata.__FUNCTION__.0,"a"
 1641              		.align	2
 1642              		.set	.LANCHOR2,. + 0
 1645              	__FUNCTION__.0:
 1646 0000 696F7478 		.string	"iotx_ds_common_publish2update"
 1646      5F64735F 
 1646      636F6D6D 
 1646      6F6E5F70 
 1646      75626C69 
 1647              		.section	.rodata.__FUNCTION__.2,"a"
 1648              		.align	2
 1649              		.set	.LANCHOR0,. + 0
 1652              	__FUNCTION__.2:
 1653 0000 696F7478 		.string	"iotx_ds_common_register_attr"
 1653      5F64735F 
 1653      636F6D6D 
 1653      6F6E5F72 
 1653      65676973 
 1654              		.section	.rodata.__func__.1,"a"
 1655              		.align	2
 1656              		.set	.LANCHOR1,. + 0
 1659              	__func__.1:
 1660 0000 696F7478 		.string	"iotx_ds_common_generate_topic_name"
 1660      5F64735F 
 1660      636F6D6D 
 1660      6F6E5F67 
 1660      656E6572 
 1661              		.text
 1662              	.Letext0:
 1663              		.file 2 "c:\\users\\stapi\\onedrive\\desktop\\gd32vw553\\embeddedbuilder_v1.4.7.26843\\tools\\nucl
 1664              		.file 3 "c:\\users\\stapi\\onedrive\\desktop\\gd32vw553\\embeddedbuilder_v1.4.7.26843\\tools\\nucl
 1665              		.file 4 "c:\\users\\stapi\\onedrive\\desktop\\gd32vw553\\embeddedbuilder_v1.4.7.26843\\tools\\nucl
 1666              		.file 5 "..\\..\\..\\..\\cloud\\alicloud\\include/exports/iot_export_errno.h"
 1667              		.file 6 "..\\..\\..\\..\\cloud\\alicloud\\include/exports/iot_export_mqtt.h"
 1668              		.file 7 "..\\..\\..\\..\\cloud\\alicloud\\include/exports/iot_export_shadow.h"
 1669              		.file 8 "..\\..\\..\\..\\cloud\\alicloud\\src\\infra\\utils\\misc/utils_timer.h"
 1670              		.file 9 "C:/Users/stapi/OneDrive/Desktop/GD32VW553/V1_MQTT_OK/GD32VW55X_Wifi_BLE_SDK/GD32VW55x_REL
 1671              		.file 10 "C:/Users/stapi/OneDrive/Desktop/GD32VW553/V1_MQTT_OK/GD32VW55X_Wifi_BLE_SDK/GD32VW55x_RE
 1672              		.file 11 "..\\..\\..\\..\\cloud\\alicloud\\src\\infra\\log/iotx_log.h"
 1673              		.file 12 "..\\..\\..\\..\\cloud\\alicloud\\src\\infra\\utils/iotx_utils.h"
 1674              		.file 13 "..\\..\\..\\..\\cloud\\alicloud\\include/iot_import.h"
 1675              		.file 14 "..\\..\\..\\..\\cloud\\alicloud\\include/imports/iot_import_product.h"
 1676              		.file 15 "c:\\users\\stapi\\onedrive\\desktop\\gd32vw553\\embeddedbuilder_v1.4.7.26843\\tools\\nuc
 1677              		.file 16 "c:\\users\\stapi\\onedrive\\desktop\\gd32vw553\\embeddedbuilder_v1.4.7.26843\\tools\\nuc
 1678              		.file 17 "<built-in>"
DEFINED SYMBOLS
                            *ABS*:0000000000000000 shadow_common.c
C:\Users\stapi\AppData\Local\Temp\cc5Pki9b.s:23     .text.iotx_ds_common_format_init:0000000000000000 iotx_ds_common_format_init
C:\Users\stapi\AppData\Local\Temp\cc5Pki9b.s:27     .text.iotx_ds_common_format_init:0000000000000000 .L0 
C:\Users\stapi\AppData\Local\Temp\cc5Pki9b.s:29     .text.iotx_ds_common_format_init:0000000000000000 .L0 
C:\Users\stapi\AppData\Local\Temp\cc5Pki9b.s:30     .text.iotx_ds_common_format_init:0000000000000008 .L0 
C:\Users\stapi\AppData\Local\Temp\cc5Pki9b.s:31     .text.iotx_ds_common_format_init:0000000000000008 .L0 
C:\Users\stapi\AppData\Local\Temp\cc5Pki9b.s:32     .text.iotx_ds_common_format_init:0000000000000008 .L0 
C:\Users\stapi\AppData\Local\Temp\cc5Pki9b.s:33     .text.iotx_ds_common_format_init:0000000000000008 .L0 
C:\Users\stapi\AppData\Local\Temp\cc5Pki9b.s:34     .text.iotx_ds_common_format_init:0000000000000008 .L0 
C:\Users\stapi\AppData\Local\Temp\cc5Pki9b.s:35     .text.iotx_ds_common_format_init:0000000000000008 .L0 
C:\Users\stapi\AppData\Local\Temp\cc5Pki9b.s:37     .text.iotx_ds_common_format_init:0000000000000008 .L0 
C:\Users\stapi\AppData\Local\Temp\cc5Pki9b.s:38     .text.iotx_ds_common_format_init:0000000000000008 .L0 
C:\Users\stapi\AppData\Local\Temp\cc5Pki9b.s:39     .text.iotx_ds_common_format_init:0000000000000008 .L0 
C:\Users\stapi\AppData\Local\Temp\cc5Pki9b.s:40     .text.iotx_ds_common_format_init:0000000000000008 .L0 
C:\Users\stapi\AppData\Local\Temp\cc5Pki9b.s:42     .text.iotx_ds_common_format_init:000000000000000c .L0 
C:\Users\stapi\AppData\Local\Temp\cc5Pki9b.s:44     .text.iotx_ds_common_format_init:000000000000000c .L0 
C:\Users\stapi\AppData\Local\Temp\cc5Pki9b.s:46     .text.iotx_ds_common_format_init:000000000000000e .L0 
C:\Users\stapi\AppData\Local\Temp\cc5Pki9b.s:53     .text.iotx_ds_common_format_init:0000000000000014 .L0 
C:\Users\stapi\AppData\Local\Temp\cc5Pki9b.s:57     .text.iotx_ds_common_format_init:000000000000001a .L0 
C:\Users\stapi\AppData\Local\Temp\cc5Pki9b.s:60     .text.iotx_ds_common_format_init:0000000000000022 .L0 
C:\Users\stapi\AppData\Local\Temp\cc5Pki9b.s:61     .text.iotx_ds_common_format_init:0000000000000022 .L0 
C:\Users\stapi\AppData\Local\Temp\cc5Pki9b.s:63     .text.iotx_ds_common_format_init:0000000000000024 .L0 
C:\Users\stapi\AppData\Local\Temp\cc5Pki9b.s:65     .text.iotx_ds_common_format_init:0000000000000028 .L0 
C:\Users\stapi\AppData\Local\Temp\cc5Pki9b.s:66     .text.iotx_ds_common_format_init:0000000000000028 .L0 
C:\Users\stapi\AppData\Local\Temp\cc5Pki9b.s:68     .text.iotx_ds_common_format_init:000000000000002a .L0 
C:\Users\stapi\AppData\Local\Temp\cc5Pki9b.s:69     .text.iotx_ds_common_format_init:000000000000002a .L0 
C:\Users\stapi\AppData\Local\Temp\cc5Pki9b.s:71     .text.iotx_ds_common_format_init:000000000000002e .L0 
C:\Users\stapi\AppData\Local\Temp\cc5Pki9b.s:74     .text.iotx_ds_common_format_init:0000000000000030 .L0 
C:\Users\stapi\AppData\Local\Temp\cc5Pki9b.s:75     .text.iotx_ds_common_format_init:0000000000000030 .L0 
C:\Users\stapi\AppData\Local\Temp\cc5Pki9b.s:76     .text.iotx_ds_common_format_init:0000000000000030 .L0 
C:\Users\stapi\AppData\Local\Temp\cc5Pki9b.s:85     .text.iotx_ds_common_format_init:000000000000004c .L0 
C:\Users\stapi\AppData\Local\Temp\cc5Pki9b.s:86     .text.iotx_ds_common_format_init:000000000000004c .L0 
C:\Users\stapi\AppData\Local\Temp\cc5Pki9b.s:93     .text.iotx_ds_common_format_init:0000000000000052 .L0 
C:\Users\stapi\AppData\Local\Temp\cc5Pki9b.s:94     .text.iotx_ds_common_format_init:0000000000000054 .L0 
C:\Users\stapi\AppData\Local\Temp\cc5Pki9b.s:95     .text.iotx_ds_common_format_init:0000000000000054 .L0 
C:\Users\stapi\AppData\Local\Temp\cc5Pki9b.s:98     .text.iotx_ds_common_format_init:000000000000005c .L0 
C:\Users\stapi\AppData\Local\Temp\cc5Pki9b.s:99     .text.iotx_ds_common_format_init:000000000000005c .L0 
C:\Users\stapi\AppData\Local\Temp\cc5Pki9b.s:100    .text.iotx_ds_common_format_init:000000000000005c .L0 
C:\Users\stapi\AppData\Local\Temp\cc5Pki9b.s:101    .text.iotx_ds_common_format_init:000000000000005c .L0 
C:\Users\stapi\AppData\Local\Temp\cc5Pki9b.s:102    .text.iotx_ds_common_format_init:000000000000005c .L0 
C:\Users\stapi\AppData\Local\Temp\cc5Pki9b.s:103    .text.iotx_ds_common_format_init:000000000000005c .L0 
C:\Users\stapi\AppData\Local\Temp\cc5Pki9b.s:106    .text.iotx_ds_common_format_init:000000000000005c .L0 
C:\Users\stapi\AppData\Local\Temp\cc5Pki9b.s:108    .text.iotx_ds_common_format_init:000000000000005c .L0 
C:\Users\stapi\AppData\Local\Temp\cc5Pki9b.s:112    .text.iotx_ds_common_format_init:0000000000000060 .L0 
C:\Users\stapi\AppData\Local\Temp\cc5Pki9b.s:118    .text.iotx_ds_common_format_init:0000000000000066 .L0 
C:\Users\stapi\AppData\Local\Temp\cc5Pki9b.s:119    .text.iotx_ds_common_format_init:0000000000000066 .L0 
C:\Users\stapi\AppData\Local\Temp\cc5Pki9b.s:120    .text.iotx_ds_common_format_init:0000000000000066 .L0 
C:\Users\stapi\AppData\Local\Temp\cc5Pki9b.s:121    .text.iotx_ds_common_format_init:0000000000000066 .L0 
C:\Users\stapi\AppData\Local\Temp\cc5Pki9b.s:124    .text.iotx_ds_common_format_init:0000000000000068 .L0 
C:\Users\stapi\AppData\Local\Temp\cc5Pki9b.s:125    .text.iotx_ds_common_format_init:0000000000000068 .L0 
C:\Users\stapi\AppData\Local\Temp\cc5Pki9b.s:126    .text.iotx_ds_common_format_init:0000000000000068 .L0 
C:\Users\stapi\AppData\Local\Temp\cc5Pki9b.s:129    .text.iotx_ds_common_format_init:000000000000006c .L0 
C:\Users\stapi\AppData\Local\Temp\cc5Pki9b.s:131    .text.iotx_ds_common_format_init:000000000000006e .L0 
C:\Users\stapi\AppData\Local\Temp\cc5Pki9b.s:134    .text.iotx_ds_common_format_init:0000000000000074 .L0 
C:\Users\stapi\AppData\Local\Temp\cc5Pki9b.s:136    .text.iotx_ds_common_format_init:0000000000000076 .L0 
C:\Users\stapi\AppData\Local\Temp\cc5Pki9b.s:137    .text.iotx_ds_common_format_init:0000000000000076 .L0 
C:\Users\stapi\AppData\Local\Temp\cc5Pki9b.s:145    .text.iotx_ds_common_format_init:0000000000000088 .L0 
C:\Users\stapi\AppData\Local\Temp\cc5Pki9b.s:146    .text.iotx_ds_common_format_init:0000000000000088 .L0 
C:\Users\stapi\AppData\Local\Temp\cc5Pki9b.s:148    .text.iotx_ds_common_format_init:000000000000008c .L0 
C:\Users\stapi\AppData\Local\Temp\cc5Pki9b.s:150    .text.iotx_ds_common_format_init:0000000000000090 .L0 
C:\Users\stapi\AppData\Local\Temp\cc5Pki9b.s:151    .text.iotx_ds_common_format_init:0000000000000090 .L0 
C:\Users\stapi\AppData\Local\Temp\cc5Pki9b.s:152    .text.iotx_ds_common_format_init:0000000000000090 .L0 
C:\Users\stapi\AppData\Local\Temp\cc5Pki9b.s:153    .text.iotx_ds_common_format_init:0000000000000090 .L0 
C:\Users\stapi\AppData\Local\Temp\cc5Pki9b.s:159    .text.iotx_ds_common_format_init:0000000000000096 .L0 
C:\Users\stapi\AppData\Local\Temp\cc5Pki9b.s:160    .text.iotx_ds_common_format_init:0000000000000096 .L0 
C:\Users\stapi\AppData\Local\Temp\cc5Pki9b.s:163    .text.iotx_ds_common_format_init:000000000000009a .L0 
C:\Users\stapi\AppData\Local\Temp\cc5Pki9b.s:164    .text.iotx_ds_common_format_init:000000000000009a .L0 
C:\Users\stapi\AppData\Local\Temp\cc5Pki9b.s:166    .text.iotx_ds_common_format_init:000000000000009e .L0 
C:\Users\stapi\AppData\Local\Temp\cc5Pki9b.s:195    .text.iotx_ds_common_convert_data2string:0000000000000000 iotx_ds_common_convert_data2string
C:\Users\stapi\AppData\Local\Temp\cc5Pki9b.s:198    .text.iotx_ds_common_convert_data2string:0000000000000000 .L0 
C:\Users\stapi\AppData\Local\Temp\cc5Pki9b.s:200    .text.iotx_ds_common_convert_data2string:0000000000000000 .L0 
C:\Users\stapi\AppData\Local\Temp\cc5Pki9b.s:201    .text.iotx_ds_common_convert_data2string:0000000000000000 .L0 
C:\Users\stapi\AppData\Local\Temp\cc5Pki9b.s:202    .text.iotx_ds_common_convert_data2string:0000000000000000 .L0 
C:\Users\stapi\AppData\Local\Temp\cc5Pki9b.s:203    .text.iotx_ds_common_convert_data2string:0000000000000000 .L0 
C:\Users\stapi\AppData\Local\Temp\cc5Pki9b.s:205    .text.iotx_ds_common_convert_data2string:0000000000000002 .L0 
C:\Users\stapi\AppData\Local\Temp\cc5Pki9b.s:206    .text.iotx_ds_common_convert_data2string:000000000000000a .L0 
C:\Users\stapi\AppData\Local\Temp\cc5Pki9b.s:207    .text.iotx_ds_common_convert_data2string:000000000000000a .L0 
C:\Users\stapi\AppData\Local\Temp\cc5Pki9b.s:208    .text.iotx_ds_common_convert_data2string:000000000000000a .L0 
C:\Users\stapi\AppData\Local\Temp\cc5Pki9b.s:211    .text.iotx_ds_common_convert_data2string:000000000000000c .L0 
C:\Users\stapi\AppData\Local\Temp\cc5Pki9b.s:213    .text.iotx_ds_common_convert_data2string:000000000000000e .L0 
C:\Users\stapi\AppData\Local\Temp\cc5Pki9b.s:215    .text.iotx_ds_common_convert_data2string:0000000000000010 .L0 
C:\Users\stapi\AppData\Local\Temp\cc5Pki9b.s:217    .text.iotx_ds_common_convert_data2string:0000000000000012 .L0 
C:\Users\stapi\AppData\Local\Temp\cc5Pki9b.s:219    .text.iotx_ds_common_convert_data2string:0000000000000014 .L0 
C:\Users\stapi\AppData\Local\Temp\cc5Pki9b.s:220    .text.iotx_ds_common_convert_data2string:0000000000000014 .L0 
C:\Users\stapi\AppData\Local\Temp\cc5Pki9b.s:223    .text.iotx_ds_common_convert_data2string:000000000000001a .L0 
C:\Users\stapi\AppData\Local\Temp\cc5Pki9b.s:224    .text.iotx_ds_common_convert_data2string:000000000000001a .L0 
C:\Users\stapi\AppData\Local\Temp\cc5Pki9b.s:231    .text.iotx_ds_common_convert_data2string:0000000000000024 .L0 
C:\Users\stapi\AppData\Local\Temp\cc5Pki9b.s:236    .text.iotx_ds_common_convert_data2string:000000000000002e .L0 
C:\Users\stapi\AppData\Local\Temp\cc5Pki9b.s:237    .text.iotx_ds_common_convert_data2string:000000000000002e .L0 
C:\Users\stapi\AppData\Local\Temp\cc5Pki9b.s:239    .text.iotx_ds_common_convert_data2string:0000000000000032 .L0 
C:\Users\stapi\AppData\Local\Temp\cc5Pki9b.s:243    .text.iotx_ds_common_convert_data2string:0000000000000036 .L0 
C:\Users\stapi\AppData\Local\Temp\cc5Pki9b.s:245    .text.iotx_ds_common_convert_data2string:0000000000000040 .L0 
C:\Users\stapi\AppData\Local\Temp\cc5Pki9b.s:246    .text.iotx_ds_common_convert_data2string:0000000000000040 .L0 
C:\Users\stapi\AppData\Local\Temp\cc5Pki9b.s:247    .text.iotx_ds_common_convert_data2string:0000000000000040 .L0 
C:\Users\stapi\AppData\Local\Temp\cc5Pki9b.s:248    .text.iotx_ds_common_convert_data2string:0000000000000040 .L0 
C:\Users\stapi\AppData\Local\Temp\cc5Pki9b.s:251    .text.iotx_ds_common_convert_data2string:0000000000000040 .L0 
C:\Users\stapi\AppData\Local\Temp\cc5Pki9b.s:253    .text.iotx_ds_common_convert_data2string:0000000000000040 .L0 
C:\Users\stapi\AppData\Local\Temp\cc5Pki9b.s:254    .text.iotx_ds_common_convert_data2string:0000000000000040 .L0 
C:\Users\stapi\AppData\Local\Temp\cc5Pki9b.s:261    .text.iotx_ds_common_convert_data2string:000000000000004a .L0 
C:\Users\stapi\AppData\Local\Temp\cc5Pki9b.s:262    .text.iotx_ds_common_convert_data2string:000000000000004a .L0 
C:\Users\stapi\AppData\Local\Temp\cc5Pki9b.s:263    .text.iotx_ds_common_convert_data2string:000000000000004a .L0 
C:\Users\stapi\AppData\Local\Temp\cc5Pki9b.s:272    .text.iotx_ds_common_convert_data2string:000000000000005c .L0 
C:\Users\stapi\AppData\Local\Temp\cc5Pki9b.s:273    .text.iotx_ds_common_convert_data2string:000000000000005c .L0 
C:\Users\stapi\AppData\Local\Temp\cc5Pki9b.s:274    .text.iotx_ds_common_convert_data2string:000000000000005c .L0 
C:\Users\stapi\AppData\Local\Temp\cc5Pki9b.s:276    .text.iotx_ds_common_convert_data2string:000000000000005c .L0 
C:\Users\stapi\AppData\Local\Temp\cc5Pki9b.s:278    .text.iotx_ds_common_convert_data2string:000000000000005e .L0 
C:\Users\stapi\AppData\Local\Temp\cc5Pki9b.s:283    .text.iotx_ds_common_convert_data2string:0000000000000062 .L0 
C:\Users\stapi\AppData\Local\Temp\cc5Pki9b.s:284    .text.iotx_ds_common_convert_data2string:0000000000000062 .L0 
C:\Users\stapi\AppData\Local\Temp\cc5Pki9b.s:285    .text.iotx_ds_common_convert_data2string:0000000000000062 .L0 
C:\Users\stapi\AppData\Local\Temp\cc5Pki9b.s:287    .text.iotx_ds_common_convert_data2string:0000000000000062 .L0 
C:\Users\stapi\AppData\Local\Temp\cc5Pki9b.s:288    .text.iotx_ds_common_convert_data2string:0000000000000062 .L0 
C:\Users\stapi\AppData\Local\Temp\cc5Pki9b.s:291    .text.iotx_ds_common_convert_data2string:0000000000000068 .L0 
C:\Users\stapi\AppData\Local\Temp\cc5Pki9b.s:292    .text.iotx_ds_common_convert_data2string:0000000000000068 .L0 
C:\Users\stapi\AppData\Local\Temp\cc5Pki9b.s:298    .text.iotx_ds_common_convert_data2string:0000000000000078 .L0 
C:\Users\stapi\AppData\Local\Temp\cc5Pki9b.s:303    .text.iotx_ds_common_convert_data2string:0000000000000088 .L0 
C:\Users\stapi\AppData\Local\Temp\cc5Pki9b.s:308    .text.iotx_ds_common_convert_data2string:0000000000000098 .L0 
C:\Users\stapi\AppData\Local\Temp\cc5Pki9b.s:309    .text.iotx_ds_common_convert_data2string:0000000000000098 .L0 
C:\Users\stapi\AppData\Local\Temp\cc5Pki9b.s:311    .text.iotx_ds_common_convert_data2string:0000000000000098 .L0 
C:\Users\stapi\AppData\Local\Temp\cc5Pki9b.s:312    .text.iotx_ds_common_convert_data2string:0000000000000098 .L0 
C:\Users\stapi\AppData\Local\Temp\cc5Pki9b.s:314    .text.iotx_ds_common_convert_data2string:000000000000009c .L0 
C:\Users\stapi\AppData\Local\Temp\cc5Pki9b.s:325    .text.iotx_ds_common_format_add:0000000000000000 iotx_ds_common_format_add
C:\Users\stapi\AppData\Local\Temp\cc5Pki9b.s:328    .text.iotx_ds_common_format_add:0000000000000000 .L0 
C:\Users\stapi\AppData\Local\Temp\cc5Pki9b.s:330    .text.iotx_ds_common_format_add:0000000000000000 .L0 
C:\Users\stapi\AppData\Local\Temp\cc5Pki9b.s:331    .text.iotx_ds_common_format_add:0000000000000008 .L0 
C:\Users\stapi\AppData\Local\Temp\cc5Pki9b.s:332    .text.iotx_ds_common_format_add:0000000000000008 .L0 
C:\Users\stapi\AppData\Local\Temp\cc5Pki9b.s:333    .text.iotx_ds_common_format_add:0000000000000008 .L0 
C:\Users\stapi\AppData\Local\Temp\cc5Pki9b.s:334    .text.iotx_ds_common_format_add:0000000000000008 .L0 
C:\Users\stapi\AppData\Local\Temp\cc5Pki9b.s:335    .text.iotx_ds_common_format_add:0000000000000008 .L0 
C:\Users\stapi\AppData\Local\Temp\cc5Pki9b.s:336    .text.iotx_ds_common_format_add:0000000000000008 .L0 
C:\Users\stapi\AppData\Local\Temp\cc5Pki9b.s:338    .text.iotx_ds_common_format_add:0000000000000008 .L0 
C:\Users\stapi\AppData\Local\Temp\cc5Pki9b.s:339    .text.iotx_ds_common_format_add:0000000000000008 .L0 
C:\Users\stapi\AppData\Local\Temp\cc5Pki9b.s:340    .text.iotx_ds_common_format_add:0000000000000008 .L0 
C:\Users\stapi\AppData\Local\Temp\cc5Pki9b.s:341    .text.iotx_ds_common_format_add:0000000000000008 .L0 
C:\Users\stapi\AppData\Local\Temp\cc5Pki9b.s:343    .text.iotx_ds_common_format_add:000000000000000a .L0 
C:\Users\stapi\AppData\Local\Temp\cc5Pki9b.s:347    .text.iotx_ds_common_format_add:0000000000000010 .L0 
C:\Users\stapi\AppData\Local\Temp\cc5Pki9b.s:349    .text.iotx_ds_common_format_add:0000000000000012 .L0 
C:\Users\stapi\AppData\Local\Temp\cc5Pki9b.s:350    .text.iotx_ds_common_format_add:0000000000000012 .L0 
C:\Users\stapi\AppData\Local\Temp\cc5Pki9b.s:354    .text.iotx_ds_common_format_add:0000000000000016 .L0 
C:\Users\stapi\AppData\Local\Temp\cc5Pki9b.s:355    .text.iotx_ds_common_format_add:0000000000000016 .L0 
C:\Users\stapi\AppData\Local\Temp\cc5Pki9b.s:357    .text.iotx_ds_common_format_add:0000000000000018 .L0 
C:\Users\stapi\AppData\Local\Temp\cc5Pki9b.s:359    .text.iotx_ds_common_format_add:000000000000001a .L0 
C:\Users\stapi\AppData\Local\Temp\cc5Pki9b.s:363    .text.iotx_ds_common_format_add:000000000000001e .L0 
C:\Users\stapi\AppData\Local\Temp\cc5Pki9b.s:366    .text.iotx_ds_common_format_add:0000000000000020 .L0 
C:\Users\stapi\AppData\Local\Temp\cc5Pki9b.s:367    .text.iotx_ds_common_format_add:0000000000000020 .L0 
C:\Users\stapi\AppData\Local\Temp\cc5Pki9b.s:378    .text.iotx_ds_common_format_add:0000000000000036 .L0 
C:\Users\stapi\AppData\Local\Temp\cc5Pki9b.s:379    .text.iotx_ds_common_format_add:0000000000000036 .L0 
C:\Users\stapi\AppData\Local\Temp\cc5Pki9b.s:381    .text.iotx_ds_common_format_add:000000000000003a .L0 
C:\Users\stapi\AppData\Local\Temp\cc5Pki9b.s:385    .text.iotx_ds_common_format_add:0000000000000042 .L0 
C:\Users\stapi\AppData\Local\Temp\cc5Pki9b.s:386    .text.iotx_ds_common_format_add:0000000000000042 .L0 
C:\Users\stapi\AppData\Local\Temp\cc5Pki9b.s:387    .text.iotx_ds_common_format_add:0000000000000042 .L0 
C:\Users\stapi\AppData\Local\Temp\cc5Pki9b.s:388    .text.iotx_ds_common_format_add:0000000000000042 .L0 
C:\Users\stapi\AppData\Local\Temp\cc5Pki9b.s:390    .text.iotx_ds_common_format_add:0000000000000044 .L0 
C:\Users\stapi\AppData\Local\Temp\cc5Pki9b.s:392    .text.iotx_ds_common_format_add:0000000000000046 .L0 
C:\Users\stapi\AppData\Local\Temp\cc5Pki9b.s:394    .text.iotx_ds_common_format_add:0000000000000048 .L0 
C:\Users\stapi\AppData\Local\Temp\cc5Pki9b.s:396    .text.iotx_ds_common_format_add:000000000000004a .L0 
C:\Users\stapi\AppData\Local\Temp\cc5Pki9b.s:399    .text.iotx_ds_common_format_add:000000000000004c .L0 
C:\Users\stapi\AppData\Local\Temp\cc5Pki9b.s:402    .text.iotx_ds_common_format_add:000000000000004e .L0 
C:\Users\stapi\AppData\Local\Temp\cc5Pki9b.s:403    .text.iotx_ds_common_format_add:000000000000004e .L0 
C:\Users\stapi\AppData\Local\Temp\cc5Pki9b.s:404    .text.iotx_ds_common_format_add:000000000000004e .L0 
C:\Users\stapi\AppData\Local\Temp\cc5Pki9b.s:411    .text.iotx_ds_common_format_add:000000000000005c .L0 
C:\Users\stapi\AppData\Local\Temp\cc5Pki9b.s:412    .text.iotx_ds_common_format_add:000000000000005c .L0 
C:\Users\stapi\AppData\Local\Temp\cc5Pki9b.s:414    .text.iotx_ds_common_format_add:0000000000000060 .L0 
C:\Users\stapi\AppData\Local\Temp\cc5Pki9b.s:415    .text.iotx_ds_common_format_add:0000000000000060 .L0 
C:\Users\stapi\AppData\Local\Temp\cc5Pki9b.s:420    .text.iotx_ds_common_format_add:0000000000000066 .L0 
C:\Users\stapi\AppData\Local\Temp\cc5Pki9b.s:421    .text.iotx_ds_common_format_add:0000000000000066 .L0 
C:\Users\stapi\AppData\Local\Temp\cc5Pki9b.s:426    .text.iotx_ds_common_format_add:000000000000006a .L0 
C:\Users\stapi\AppData\Local\Temp\cc5Pki9b.s:429    .text.iotx_ds_common_format_add:000000000000006c .L0 
C:\Users\stapi\AppData\Local\Temp\cc5Pki9b.s:430    .text.iotx_ds_common_format_add:000000000000006c .L0 
C:\Users\stapi\AppData\Local\Temp\cc5Pki9b.s:431    .text.iotx_ds_common_format_add:000000000000006c .L0 
C:\Users\stapi\AppData\Local\Temp\cc5Pki9b.s:434    .text.iotx_ds_common_format_add:000000000000006e .L0 
C:\Users\stapi\AppData\Local\Temp\cc5Pki9b.s:436    .text.iotx_ds_common_format_add:0000000000000070 .L0 
C:\Users\stapi\AppData\Local\Temp\cc5Pki9b.s:438    .text.iotx_ds_common_format_add:0000000000000072 .L0 
C:\Users\stapi\AppData\Local\Temp\cc5Pki9b.s:442    .text.iotx_ds_common_format_add:0000000000000076 .L0 
C:\Users\stapi\AppData\Local\Temp\cc5Pki9b.s:445    .text.iotx_ds_common_format_add:0000000000000078 .L0 
C:\Users\stapi\AppData\Local\Temp\cc5Pki9b.s:446    .text.iotx_ds_common_format_add:0000000000000080 .L0 
C:\Users\stapi\AppData\Local\Temp\cc5Pki9b.s:447    .text.iotx_ds_common_format_add:0000000000000080 .L0 
C:\Users\stapi\AppData\Local\Temp\cc5Pki9b.s:448    .text.iotx_ds_common_format_add:0000000000000080 .L0 
C:\Users\stapi\AppData\Local\Temp\cc5Pki9b.s:449    .text.iotx_ds_common_format_add:0000000000000080 .L0 
C:\Users\stapi\AppData\Local\Temp\cc5Pki9b.s:450    .text.iotx_ds_common_format_add:0000000000000080 .L0 
C:\Users\stapi\AppData\Local\Temp\cc5Pki9b.s:451    .text.iotx_ds_common_format_add:0000000000000080 .L0 
C:\Users\stapi\AppData\Local\Temp\cc5Pki9b.s:452    .text.iotx_ds_common_format_add:0000000000000080 .L0 
C:\Users\stapi\AppData\Local\Temp\cc5Pki9b.s:455    .text.iotx_ds_common_format_add:0000000000000080 .L0 
C:\Users\stapi\AppData\Local\Temp\cc5Pki9b.s:457    .text.iotx_ds_common_format_add:0000000000000080 .L0 
C:\Users\stapi\AppData\Local\Temp\cc5Pki9b.s:458    .text.iotx_ds_common_format_add:0000000000000080 .L0 
C:\Users\stapi\AppData\Local\Temp\cc5Pki9b.s:464    .text.iotx_ds_common_format_add:000000000000008c .L0 
C:\Users\stapi\AppData\Local\Temp\cc5Pki9b.s:465    .text.iotx_ds_common_format_add:000000000000008c .L0 
C:\Users\stapi\AppData\Local\Temp\cc5Pki9b.s:470    .text.iotx_ds_common_format_add:0000000000000096 .L0 
C:\Users\stapi\AppData\Local\Temp\cc5Pki9b.s:474    .text.iotx_ds_common_format_add:000000000000009e .L0 
C:\Users\stapi\AppData\Local\Temp\cc5Pki9b.s:491    .text.iotx_ds_common_convert_string2data:0000000000000000 iotx_ds_common_convert_string2data
C:\Users\stapi\AppData\Local\Temp\cc5Pki9b.s:494    .text.iotx_ds_common_convert_string2data:0000000000000000 .L0 
C:\Users\stapi\AppData\Local\Temp\cc5Pki9b.s:496    .text.iotx_ds_common_convert_string2data:0000000000000000 .L0 
C:\Users\stapi\AppData\Local\Temp\cc5Pki9b.s:497    .text.iotx_ds_common_convert_string2data:0000000000000000 .L0 
C:\Users\stapi\AppData\Local\Temp\cc5Pki9b.s:498    .text.iotx_ds_common_convert_string2data:0000000000000000 .L0 
C:\Users\stapi\AppData\Local\Temp\cc5Pki9b.s:500    .text.iotx_ds_common_convert_string2data:0000000000000002 .L0 
C:\Users\stapi\AppData\Local\Temp\cc5Pki9b.s:501    .text.iotx_ds_common_convert_string2data:000000000000000a .L0 
C:\Users\stapi\AppData\Local\Temp\cc5Pki9b.s:502    .text.iotx_ds_common_convert_string2data:000000000000000a .L0 
C:\Users\stapi\AppData\Local\Temp\cc5Pki9b.s:503    .text.iotx_ds_common_convert_string2data:000000000000000a .L0 
C:\Users\stapi\AppData\Local\Temp\cc5Pki9b.s:504    .text.iotx_ds_common_convert_string2data:000000000000000a .L0 
C:\Users\stapi\AppData\Local\Temp\cc5Pki9b.s:505    .text.iotx_ds_common_convert_string2data:000000000000000a .L0 
C:\Users\stapi\AppData\Local\Temp\cc5Pki9b.s:508    .text.iotx_ds_common_convert_string2data:000000000000000c .L0 
C:\Users\stapi\AppData\Local\Temp\cc5Pki9b.s:511    .text.iotx_ds_common_convert_string2data:000000000000000e .L0 
C:\Users\stapi\AppData\Local\Temp\cc5Pki9b.s:514    .text.iotx_ds_common_convert_string2data:0000000000000012 .L0 
C:\Users\stapi\AppData\Local\Temp\cc5Pki9b.s:516    .text.iotx_ds_common_convert_string2data:0000000000000014 .L0 
C:\Users\stapi\AppData\Local\Temp\cc5Pki9b.s:519    .text.iotx_ds_common_convert_string2data:0000000000000018 .L0 
C:\Users\stapi\AppData\Local\Temp\cc5Pki9b.s:520    .text.iotx_ds_common_convert_string2data:0000000000000018 .L0 
C:\Users\stapi\AppData\Local\Temp\cc5Pki9b.s:522    .text.iotx_ds_common_convert_string2data:000000000000001c .L0 
C:\Users\stapi\AppData\Local\Temp\cc5Pki9b.s:523    .text.iotx_ds_common_convert_string2data:000000000000001c .L0 
C:\Users\stapi\AppData\Local\Temp\cc5Pki9b.s:530    .text.iotx_ds_common_convert_string2data:000000000000002e .L0 
C:\Users\stapi\AppData\Local\Temp\cc5Pki9b.s:532    .text.iotx_ds_common_convert_string2data:0000000000000030 .L0 
C:\Users\stapi\AppData\Local\Temp\cc5Pki9b.s:533    .text.iotx_ds_common_convert_string2data:0000000000000030 .L0 
C:\Users\stapi\AppData\Local\Temp\cc5Pki9b.s:537    .text.iotx_ds_common_convert_string2data:0000000000000034 .L0 
C:\Users\stapi\AppData\Local\Temp\cc5Pki9b.s:538    .text.iotx_ds_common_convert_string2data:000000000000003c .L0 
C:\Users\stapi\AppData\Local\Temp\cc5Pki9b.s:539    .text.iotx_ds_common_convert_string2data:000000000000003c .L0 
C:\Users\stapi\AppData\Local\Temp\cc5Pki9b.s:540    .text.iotx_ds_common_convert_string2data:000000000000003c .L0 
C:\Users\stapi\AppData\Local\Temp\cc5Pki9b.s:541    .text.iotx_ds_common_convert_string2data:000000000000003c .L0 
C:\Users\stapi\AppData\Local\Temp\cc5Pki9b.s:542    .text.iotx_ds_common_convert_string2data:000000000000003c .L0 
C:\Users\stapi\AppData\Local\Temp\cc5Pki9b.s:543    .text.iotx_ds_common_convert_string2data:000000000000003c .L0 
C:\Users\stapi\AppData\Local\Temp\cc5Pki9b.s:546    .text.iotx_ds_common_convert_string2data:000000000000003c .L0 
C:\Users\stapi\AppData\Local\Temp\cc5Pki9b.s:548    .text.iotx_ds_common_convert_string2data:000000000000003c .L0 
C:\Users\stapi\AppData\Local\Temp\cc5Pki9b.s:549    .text.iotx_ds_common_convert_string2data:000000000000003c .L0 
C:\Users\stapi\AppData\Local\Temp\cc5Pki9b.s:555    .text.iotx_ds_common_convert_string2data:000000000000004e .L0 
C:\Users\stapi\AppData\Local\Temp\cc5Pki9b.s:558    .text.iotx_ds_common_convert_string2data:0000000000000050 .L0 
C:\Users\stapi\AppData\Local\Temp\cc5Pki9b.s:559    .text.iotx_ds_common_convert_string2data:0000000000000050 .L0 
C:\Users\stapi\AppData\Local\Temp\cc5Pki9b.s:562    .text.iotx_ds_common_convert_string2data:0000000000000054 .L0 
C:\Users\stapi\AppData\Local\Temp\cc5Pki9b.s:566    .text.iotx_ds_common_convert_string2data:0000000000000058 .L0 
C:\Users\stapi\AppData\Local\Temp\cc5Pki9b.s:567    .text.iotx_ds_common_convert_string2data:0000000000000058 .L0 
C:\Users\stapi\AppData\Local\Temp\cc5Pki9b.s:573    .text.iotx_ds_common_convert_string2data:000000000000006a .L0 
C:\Users\stapi\AppData\Local\Temp\cc5Pki9b.s:575    .text.iotx_ds_common_convert_string2data:000000000000006c .L0 
C:\Users\stapi\AppData\Local\Temp\cc5Pki9b.s:576    .text.iotx_ds_common_convert_string2data:000000000000006c .L0 
C:\Users\stapi\AppData\Local\Temp\cc5Pki9b.s:580    .text.iotx_ds_common_convert_string2data:0000000000000076 .L0 
C:\Users\stapi\AppData\Local\Temp\cc5Pki9b.s:585    .text.iotx_ds_common_convert_string2data:000000000000007a .L0 
C:\Users\stapi\AppData\Local\Temp\cc5Pki9b.s:586    .text.iotx_ds_common_convert_string2data:000000000000007a .L0 
C:\Users\stapi\AppData\Local\Temp\cc5Pki9b.s:589    .text.iotx_ds_common_convert_string2data:0000000000000080 .L0 
C:\Users\stapi\AppData\Local\Temp\cc5Pki9b.s:600    .text.iotx_ds_common_convert_string2data:0000000000000090 .L0 
C:\Users\stapi\AppData\Local\Temp\cc5Pki9b.s:601    .text.iotx_ds_common_convert_string2data:0000000000000090 .L0 
C:\Users\stapi\AppData\Local\Temp\cc5Pki9b.s:606    .text.iotx_ds_common_convert_string2data:00000000000000a0 .L0 
C:\Users\stapi\AppData\Local\Temp\cc5Pki9b.s:611    .text.iotx_ds_common_convert_string2data:00000000000000b0 .L0 
C:\Users\stapi\AppData\Local\Temp\cc5Pki9b.s:616    .text.iotx_ds_common_convert_string2data:00000000000000c0 .L0 
C:\Users\stapi\AppData\Local\Temp\cc5Pki9b.s:617    .text.iotx_ds_common_convert_string2data:00000000000000c0 .L0 
C:\Users\stapi\AppData\Local\Temp\cc5Pki9b.s:618    .text.iotx_ds_common_convert_string2data:00000000000000c0 .L0 
C:\Users\stapi\AppData\Local\Temp\cc5Pki9b.s:622    .text.iotx_ds_common_convert_string2data:00000000000000c6 .L0 
C:\Users\stapi\AppData\Local\Temp\cc5Pki9b.s:623    .text.iotx_ds_common_convert_string2data:00000000000000c6 .L0 
C:\Users\stapi\AppData\Local\Temp\cc5Pki9b.s:624    .text.iotx_ds_common_convert_string2data:00000000000000c6 .L0 
C:\Users\stapi\AppData\Local\Temp\cc5Pki9b.s:625    .text.iotx_ds_common_convert_string2data:00000000000000c6 .L0 
C:\Users\stapi\AppData\Local\Temp\cc5Pki9b.s:626    .text.iotx_ds_common_convert_string2data:00000000000000c6 .L0 
C:\Users\stapi\AppData\Local\Temp\cc5Pki9b.s:628    .text.iotx_ds_common_convert_string2data:00000000000000c6 .L0 
C:\Users\stapi\AppData\Local\Temp\cc5Pki9b.s:631    .text.iotx_ds_common_convert_string2data:00000000000000c8 .L0 
C:\Users\stapi\AppData\Local\Temp\cc5Pki9b.s:632    .text.iotx_ds_common_convert_string2data:00000000000000ca .L0 
C:\Users\stapi\AppData\Local\Temp\cc5Pki9b.s:649    .text.iotx_ds_common_update_time:0000000000000000 iotx_ds_common_update_time
C:\Users\stapi\AppData\Local\Temp\cc5Pki9b.s:652    .text.iotx_ds_common_update_time:0000000000000000 .L0 
C:\Users\stapi\AppData\Local\Temp\cc5Pki9b.s:654    .text.iotx_ds_common_update_time:0000000000000000 .L0 
C:\Users\stapi\AppData\Local\Temp\cc5Pki9b.s:655    .text.iotx_ds_common_update_time:0000000000000008 .L0 
C:\Users\stapi\AppData\Local\Temp\cc5Pki9b.s:656    .text.iotx_ds_common_update_time:0000000000000008 .L0 
C:\Users\stapi\AppData\Local\Temp\cc5Pki9b.s:657    .text.iotx_ds_common_update_time:0000000000000008 .L0 
C:\Users\stapi\AppData\Local\Temp\cc5Pki9b.s:658    .text.iotx_ds_common_update_time:0000000000000008 .L0 
C:\Users\stapi\AppData\Local\Temp\cc5Pki9b.s:659    .text.iotx_ds_common_update_time:0000000000000008 .L0 
C:\Users\stapi\AppData\Local\Temp\cc5Pki9b.s:662    .text.iotx_ds_common_update_time:0000000000000008 .L0 
C:\Users\stapi\AppData\Local\Temp\cc5Pki9b.s:663    .text.iotx_ds_common_update_time:0000000000000008 .L0 
C:\Users\stapi\AppData\Local\Temp\cc5Pki9b.s:664    .text.iotx_ds_common_update_time:0000000000000008 .L0 
C:\Users\stapi\AppData\Local\Temp\cc5Pki9b.s:666    .text.iotx_ds_common_update_time:000000000000000a .L0 
C:\Users\stapi\AppData\Local\Temp\cc5Pki9b.s:669    .text.iotx_ds_common_update_time:000000000000000c .L0 
C:\Users\stapi\AppData\Local\Temp\cc5Pki9b.s:672    .text.iotx_ds_common_update_time:0000000000000012 .L0 
C:\Users\stapi\AppData\Local\Temp\cc5Pki9b.s:675    .text.iotx_ds_common_update_time:000000000000001a .L0 
C:\Users\stapi\AppData\Local\Temp\cc5Pki9b.s:676    .text.iotx_ds_common_update_time:000000000000001a .L0 
C:\Users\stapi\AppData\Local\Temp\cc5Pki9b.s:679    .text.iotx_ds_common_update_time:0000000000000022 .L0 
C:\Users\stapi\AppData\Local\Temp\cc5Pki9b.s:681    .text.iotx_ds_common_update_time:0000000000000024 .L0 
C:\Users\stapi\AppData\Local\Temp\cc5Pki9b.s:683    .text.iotx_ds_common_update_time:0000000000000026 .L0 
C:\Users\stapi\AppData\Local\Temp\cc5Pki9b.s:685    .text.iotx_ds_common_update_time:000000000000002a .L0 
C:\Users\stapi\AppData\Local\Temp\cc5Pki9b.s:687    .text.iotx_ds_common_update_time:000000000000002e .L0 
C:\Users\stapi\AppData\Local\Temp\cc5Pki9b.s:688    .text.iotx_ds_common_update_time:000000000000002e .L0 
C:\Users\stapi\AppData\Local\Temp\cc5Pki9b.s:690    .text.iotx_ds_common_update_time:0000000000000030 .L0 
C:\Users\stapi\AppData\Local\Temp\cc5Pki9b.s:691    .text.iotx_ds_common_update_time:0000000000000030 .L0 
C:\Users\stapi\AppData\Local\Temp\cc5Pki9b.s:692    .text.iotx_ds_common_update_time:0000000000000030 .L0 
C:\Users\stapi\AppData\Local\Temp\cc5Pki9b.s:696    .text.iotx_ds_common_update_time:000000000000003c .L0 
C:\Users\stapi\AppData\Local\Temp\cc5Pki9b.s:701    .text.iotx_ds_common_update_time:000000000000004c .L0 
C:\Users\stapi\AppData\Local\Temp\cc5Pki9b.s:705    .text.iotx_ds_common_update_time:0000000000000058 .L0 
C:\Users\stapi\AppData\Local\Temp\cc5Pki9b.s:706    .text.iotx_ds_common_update_time:0000000000000058 .L0 
C:\Users\stapi\AppData\Local\Temp\cc5Pki9b.s:710    .text.iotx_ds_common_update_time:000000000000005a .L0 
C:\Users\stapi\AppData\Local\Temp\cc5Pki9b.s:711    .text.iotx_ds_common_update_time:000000000000005a .L0 
C:\Users\stapi\AppData\Local\Temp\cc5Pki9b.s:715    .text.iotx_ds_common_update_time:0000000000000064 .L0 
C:\Users\stapi\AppData\Local\Temp\cc5Pki9b.s:716    .text.iotx_ds_common_update_time:0000000000000064 .L0 
C:\Users\stapi\AppData\Local\Temp\cc5Pki9b.s:718    .text.iotx_ds_common_update_time:000000000000006e .L0 
C:\Users\stapi\AppData\Local\Temp\cc5Pki9b.s:719    .text.iotx_ds_common_update_time:000000000000006e .L0 
C:\Users\stapi\AppData\Local\Temp\cc5Pki9b.s:720    .text.iotx_ds_common_update_time:000000000000006e .L0 
C:\Users\stapi\AppData\Local\Temp\cc5Pki9b.s:721    .text.iotx_ds_common_update_time:000000000000006e .L0 
C:\Users\stapi\AppData\Local\Temp\cc5Pki9b.s:722    .text.iotx_ds_common_update_time:000000000000006e .L0 
C:\Users\stapi\AppData\Local\Temp\cc5Pki9b.s:723    .text.iotx_ds_common_update_time:000000000000006e .L0 
C:\Users\stapi\AppData\Local\Temp\cc5Pki9b.s:726    .text.iotx_ds_common_update_time:000000000000006e .L0 
C:\Users\stapi\AppData\Local\Temp\cc5Pki9b.s:728    .text.iotx_ds_common_update_time:000000000000006e .L0 
C:\Users\stapi\AppData\Local\Temp\cc5Pki9b.s:729    .text.iotx_ds_common_update_time:000000000000006e .L0 
C:\Users\stapi\AppData\Local\Temp\cc5Pki9b.s:730    .text.iotx_ds_common_update_time:000000000000006e .L0 
C:\Users\stapi\AppData\Local\Temp\cc5Pki9b.s:734    .text.iotx_ds_common_update_time:000000000000007a .L0 
C:\Users\stapi\AppData\Local\Temp\cc5Pki9b.s:739    .text.iotx_ds_common_update_time:000000000000008a .L0 
C:\Users\stapi\AppData\Local\Temp\cc5Pki9b.s:743    .text.iotx_ds_common_update_time:0000000000000096 .L0 
C:\Users\stapi\AppData\Local\Temp\cc5Pki9b.s:746    .text.iotx_ds_common_update_time:000000000000009a .L0 
C:\Users\stapi\AppData\Local\Temp\cc5Pki9b.s:753    .text.iotx_ds_common_check_attr_existence:0000000000000000 iotx_ds_common_check_attr_existence
C:\Users\stapi\AppData\Local\Temp\cc5Pki9b.s:756    .text.iotx_ds_common_check_attr_existence:0000000000000000 .L0 
C:\Users\stapi\AppData\Local\Temp\cc5Pki9b.s:758    .text.iotx_ds_common_check_attr_existence:0000000000000000 .L0 
C:\Users\stapi\AppData\Local\Temp\cc5Pki9b.s:759    .text.iotx_ds_common_check_attr_existence:0000000000000008 .L0 
C:\Users\stapi\AppData\Local\Temp\cc5Pki9b.s:760    .text.iotx_ds_common_check_attr_existence:0000000000000008 .L0 
C:\Users\stapi\AppData\Local\Temp\cc5Pki9b.s:761    .text.iotx_ds_common_check_attr_existence:0000000000000008 .L0 
C:\Users\stapi\AppData\Local\Temp\cc5Pki9b.s:762    .text.iotx_ds_common_check_attr_existence:0000000000000008 .L0 
C:\Users\stapi\AppData\Local\Temp\cc5Pki9b.s:764    .text.iotx_ds_common_check_attr_existence:0000000000000008 .L0 
C:\Users\stapi\AppData\Local\Temp\cc5Pki9b.s:765    .text.iotx_ds_common_check_attr_existence:0000000000000008 .L0 
C:\Users\stapi\AppData\Local\Temp\cc5Pki9b.s:766    .text.iotx_ds_common_check_attr_existence:0000000000000008 .L0 
C:\Users\stapi\AppData\Local\Temp\cc5Pki9b.s:768    .text.iotx_ds_common_check_attr_existence:000000000000000a .L0 
C:\Users\stapi\AppData\Local\Temp\cc5Pki9b.s:771    .text.iotx_ds_common_check_attr_existence:000000000000000c .L0 
C:\Users\stapi\AppData\Local\Temp\cc5Pki9b.s:772    .text.iotx_ds_common_check_attr_existence:000000000000000e .L0 
C:\Users\stapi\AppData\Local\Temp\cc5Pki9b.s:774    .text.iotx_ds_common_check_attr_existence:000000000000000e .L0 
C:\Users\stapi\AppData\Local\Temp\cc5Pki9b.s:776    .text.iotx_ds_common_check_attr_existence:0000000000000010 .L0 
C:\Users\stapi\AppData\Local\Temp\cc5Pki9b.s:779    .text.iotx_ds_common_check_attr_existence:0000000000000018 .L0 
C:\Users\stapi\AppData\Local\Temp\cc5Pki9b.s:780    .text.iotx_ds_common_check_attr_existence:0000000000000018 .L0 
C:\Users\stapi\AppData\Local\Temp\cc5Pki9b.s:787    .text.iotx_ds_common_check_attr_existence:0000000000000028 .L0 
C:\Users\stapi\AppData\Local\Temp\cc5Pki9b.s:791    .text.iotx_ds_common_check_attr_existence:0000000000000032 .L0 
C:\Users\stapi\AppData\Local\Temp\cc5Pki9b.s:792    .text.iotx_ds_common_check_attr_existence:0000000000000032 .L0 
C:\Users\stapi\AppData\Local\Temp\cc5Pki9b.s:794    .text.iotx_ds_common_check_attr_existence:0000000000000038 .L0 
C:\Users\stapi\AppData\Local\Temp\cc5Pki9b.s:797    .text.iotx_ds_common_check_attr_existence:0000000000000040 .L0 
C:\Users\stapi\AppData\Local\Temp\cc5Pki9b.s:798    .text.iotx_ds_common_check_attr_existence:0000000000000040 .L0 
C:\Users\stapi\AppData\Local\Temp\cc5Pki9b.s:799    .text.iotx_ds_common_check_attr_existence:0000000000000040 .L0 
C:\Users\stapi\AppData\Local\Temp\cc5Pki9b.s:800    .text.iotx_ds_common_check_attr_existence:0000000000000040 .L0 
C:\Users\stapi\AppData\Local\Temp\cc5Pki9b.s:801    .text.iotx_ds_common_check_attr_existence:0000000000000040 .L0 
C:\Users\stapi\AppData\Local\Temp\cc5Pki9b.s:815    .text.iotx_ds_common_register_attr:0000000000000000 iotx_ds_common_register_attr
C:\Users\stapi\AppData\Local\Temp\cc5Pki9b.s:818    .text.iotx_ds_common_register_attr:0000000000000000 .L0 
C:\Users\stapi\AppData\Local\Temp\cc5Pki9b.s:820    .text.iotx_ds_common_register_attr:0000000000000000 .L0 
C:\Users\stapi\AppData\Local\Temp\cc5Pki9b.s:821    .text.iotx_ds_common_register_attr:0000000000000008 .L0 
C:\Users\stapi\AppData\Local\Temp\cc5Pki9b.s:822    .text.iotx_ds_common_register_attr:0000000000000008 .L0 
C:\Users\stapi\AppData\Local\Temp\cc5Pki9b.s:823    .text.iotx_ds_common_register_attr:0000000000000008 .L0 
C:\Users\stapi\AppData\Local\Temp\cc5Pki9b.s:824    .text.iotx_ds_common_register_attr:0000000000000008 .L0 
C:\Users\stapi\AppData\Local\Temp\cc5Pki9b.s:826    .text.iotx_ds_common_register_attr:0000000000000008 .L0 
C:\Users\stapi\AppData\Local\Temp\cc5Pki9b.s:827    .text.iotx_ds_common_register_attr:0000000000000008 .L0 
C:\Users\stapi\AppData\Local\Temp\cc5Pki9b.s:828    .text.iotx_ds_common_register_attr:000000000000000a .L0 
C:\Users\stapi\AppData\Local\Temp\cc5Pki9b.s:830    .text.iotx_ds_common_register_attr:000000000000000a .L0 
C:\Users\stapi\AppData\Local\Temp\cc5Pki9b.s:832    .text.iotx_ds_common_register_attr:000000000000000c .L0 
C:\Users\stapi\AppData\Local\Temp\cc5Pki9b.s:835    .text.iotx_ds_common_register_attr:000000000000000e .L0 
C:\Users\stapi\AppData\Local\Temp\cc5Pki9b.s:837    .text.iotx_ds_common_register_attr:0000000000000010 .L0 
C:\Users\stapi\AppData\Local\Temp\cc5Pki9b.s:840    .text.iotx_ds_common_register_attr:0000000000000018 .L0 
C:\Users\stapi\AppData\Local\Temp\cc5Pki9b.s:841    .text.iotx_ds_common_register_attr:0000000000000018 .L0 
C:\Users\stapi\AppData\Local\Temp\cc5Pki9b.s:844    .text.iotx_ds_common_register_attr:000000000000001c .L0 
C:\Users\stapi\AppData\Local\Temp\cc5Pki9b.s:848    .text.iotx_ds_common_register_attr:0000000000000026 .L0 
C:\Users\stapi\AppData\Local\Temp\cc5Pki9b.s:853    .text.iotx_ds_common_register_attr:0000000000000034 .L0 
C:\Users\stapi\AppData\Local\Temp\cc5Pki9b.s:865    .text.iotx_ds_common_register_attr:000000000000005c .L0 
C:\Users\stapi\AppData\Local\Temp\cc5Pki9b.s:869    .text.iotx_ds_common_register_attr:0000000000000066 .L0 
C:\Users\stapi\AppData\Local\Temp\cc5Pki9b.s:870    .text.iotx_ds_common_register_attr:0000000000000066 .L0 
C:\Users\stapi\AppData\Local\Temp\cc5Pki9b.s:873    .text.iotx_ds_common_register_attr:0000000000000068 .L0 
C:\Users\stapi\AppData\Local\Temp\cc5Pki9b.s:874    .text.iotx_ds_common_register_attr:000000000000006a .L0 
C:\Users\stapi\AppData\Local\Temp\cc5Pki9b.s:875    .text.iotx_ds_common_register_attr:000000000000006a .L0 
C:\Users\stapi\AppData\Local\Temp\cc5Pki9b.s:877    .text.iotx_ds_common_register_attr:0000000000000072 .L0 
C:\Users\stapi\AppData\Local\Temp\cc5Pki9b.s:878    .text.iotx_ds_common_register_attr:0000000000000072 .L0 
C:\Users\stapi\AppData\Local\Temp\cc5Pki9b.s:879    .text.iotx_ds_common_register_attr:0000000000000072 .L0 
C:\Users\stapi\AppData\Local\Temp\cc5Pki9b.s:880    .text.iotx_ds_common_register_attr:0000000000000072 .L0 
C:\Users\stapi\AppData\Local\Temp\cc5Pki9b.s:882    .text.iotx_ds_common_register_attr:0000000000000072 .L0 
C:\Users\stapi\AppData\Local\Temp\cc5Pki9b.s:884    .text.iotx_ds_common_register_attr:0000000000000072 .L0 
C:\Users\stapi\AppData\Local\Temp\cc5Pki9b.s:886    .text.iotx_ds_common_register_attr:0000000000000078 .L0 
C:\Users\stapi\AppData\Local\Temp\cc5Pki9b.s:897    .text.iotx_ds_common_remove_attr:0000000000000000 iotx_ds_common_remove_attr
C:\Users\stapi\AppData\Local\Temp\cc5Pki9b.s:900    .text.iotx_ds_common_remove_attr:0000000000000000 .L0 
C:\Users\stapi\AppData\Local\Temp\cc5Pki9b.s:902    .text.iotx_ds_common_remove_attr:0000000000000000 .L0 
C:\Users\stapi\AppData\Local\Temp\cc5Pki9b.s:903    .text.iotx_ds_common_remove_attr:0000000000000008 .L0 
C:\Users\stapi\AppData\Local\Temp\cc5Pki9b.s:904    .text.iotx_ds_common_remove_attr:0000000000000008 .L0 
C:\Users\stapi\AppData\Local\Temp\cc5Pki9b.s:905    .text.iotx_ds_common_remove_attr:0000000000000008 .L0 
C:\Users\stapi\AppData\Local\Temp\cc5Pki9b.s:906    .text.iotx_ds_common_remove_attr:0000000000000008 .L0 
C:\Users\stapi\AppData\Local\Temp\cc5Pki9b.s:909    .text.iotx_ds_common_remove_attr:0000000000000008 .L0 
C:\Users\stapi\AppData\Local\Temp\cc5Pki9b.s:910    .text.iotx_ds_common_remove_attr:0000000000000008 .L0 
C:\Users\stapi\AppData\Local\Temp\cc5Pki9b.s:911    .text.iotx_ds_common_remove_attr:0000000000000008 .L0 
C:\Users\stapi\AppData\Local\Temp\cc5Pki9b.s:912    .text.iotx_ds_common_remove_attr:0000000000000008 .L0 
C:\Users\stapi\AppData\Local\Temp\cc5Pki9b.s:914    .text.iotx_ds_common_remove_attr:000000000000000a .L0 
C:\Users\stapi\AppData\Local\Temp\cc5Pki9b.s:917    .text.iotx_ds_common_remove_attr:000000000000000c .L0 
C:\Users\stapi\AppData\Local\Temp\cc5Pki9b.s:918    .text.iotx_ds_common_remove_attr:000000000000000e .L0 
C:\Users\stapi\AppData\Local\Temp\cc5Pki9b.s:920    .text.iotx_ds_common_remove_attr:000000000000000e .L0 
C:\Users\stapi\AppData\Local\Temp\cc5Pki9b.s:922    .text.iotx_ds_common_remove_attr:0000000000000010 .L0 
C:\Users\stapi\AppData\Local\Temp\cc5Pki9b.s:925    .text.iotx_ds_common_remove_attr:0000000000000018 .L0 
C:\Users\stapi\AppData\Local\Temp\cc5Pki9b.s:926    .text.iotx_ds_common_remove_attr:0000000000000018 .L0 
C:\Users\stapi\AppData\Local\Temp\cc5Pki9b.s:931    .text.iotx_ds_common_remove_attr:0000000000000026 .L0 
C:\Users\stapi\AppData\Local\Temp\cc5Pki9b.s:932    .text.iotx_ds_common_remove_attr:0000000000000026 .L0 
C:\Users\stapi\AppData\Local\Temp\cc5Pki9b.s:935    .text.iotx_ds_common_remove_attr:0000000000000028 .L0 
C:\Users\stapi\AppData\Local\Temp\cc5Pki9b.s:936    .text.iotx_ds_common_remove_attr:0000000000000028 .L0 
C:\Users\stapi\AppData\Local\Temp\cc5Pki9b.s:937    .text.iotx_ds_common_remove_attr:0000000000000028 .L0 
C:\Users\stapi\AppData\Local\Temp\cc5Pki9b.s:943    .text.iotx_ds_common_remove_attr:0000000000000038 .L0 
C:\Users\stapi\AppData\Local\Temp\cc5Pki9b.s:948    .text.iotx_ds_common_remove_attr:0000000000000048 .L0 
C:\Users\stapi\AppData\Local\Temp\cc5Pki9b.s:953    .text.iotx_ds_common_remove_attr:0000000000000058 .L0 
C:\Users\stapi\AppData\Local\Temp\cc5Pki9b.s:954    .text.iotx_ds_common_remove_attr:0000000000000058 .L0 
C:\Users\stapi\AppData\Local\Temp\cc5Pki9b.s:958    .text.iotx_ds_common_remove_attr:000000000000005c .L0 
C:\Users\stapi\AppData\Local\Temp\cc5Pki9b.s:962    .text.iotx_ds_common_remove_attr:0000000000000066 .L0 
C:\Users\stapi\AppData\Local\Temp\cc5Pki9b.s:963    .text.iotx_ds_common_remove_attr:0000000000000066 .L0 
C:\Users\stapi\AppData\Local\Temp\cc5Pki9b.s:965    .text.iotx_ds_common_remove_attr:000000000000006a .L0 
C:\Users\stapi\AppData\Local\Temp\cc5Pki9b.s:966    .text.iotx_ds_common_remove_attr:000000000000006a .L0 
C:\Users\stapi\AppData\Local\Temp\cc5Pki9b.s:969    .text.iotx_ds_common_remove_attr:0000000000000072 .L0 
C:\Users\stapi\AppData\Local\Temp\cc5Pki9b.s:970    .text.iotx_ds_common_remove_attr:0000000000000072 .L0 
C:\Users\stapi\AppData\Local\Temp\cc5Pki9b.s:971    .text.iotx_ds_common_remove_attr:0000000000000072 .L0 
C:\Users\stapi\AppData\Local\Temp\cc5Pki9b.s:972    .text.iotx_ds_common_remove_attr:0000000000000072 .L0 
C:\Users\stapi\AppData\Local\Temp\cc5Pki9b.s:975    .text.iotx_ds_common_remove_attr:0000000000000072 .L0 
C:\Users\stapi\AppData\Local\Temp\cc5Pki9b.s:978    .text.iotx_ds_common_remove_attr:0000000000000074 .L0 
C:\Users\stapi\AppData\Local\Temp\cc5Pki9b.s:981    .text.iotx_ds_common_remove_attr:0000000000000078 .L0 
C:\Users\stapi\AppData\Local\Temp\cc5Pki9b.s:983    .text.iotx_ds_common_remove_attr:000000000000007a .L0 
C:\Users\stapi\AppData\Local\Temp\cc5Pki9b.s:986    .text.iotx_ds_common_remove_attr:0000000000000084 .L0 
C:\Users\stapi\AppData\Local\Temp\cc5Pki9b.s:1000   .text.iotx_ds_common_update_version:0000000000000000 iotx_ds_common_update_version
C:\Users\stapi\AppData\Local\Temp\cc5Pki9b.s:1003   .text.iotx_ds_common_update_version:0000000000000000 .L0 
C:\Users\stapi\AppData\Local\Temp\cc5Pki9b.s:1005   .text.iotx_ds_common_update_version:0000000000000000 .L0 
C:\Users\stapi\AppData\Local\Temp\cc5Pki9b.s:1006   .text.iotx_ds_common_update_version:0000000000000008 .L0 
C:\Users\stapi\AppData\Local\Temp\cc5Pki9b.s:1007   .text.iotx_ds_common_update_version:0000000000000008 .L0 
C:\Users\stapi\AppData\Local\Temp\cc5Pki9b.s:1008   .text.iotx_ds_common_update_version:0000000000000008 .L0 
C:\Users\stapi\AppData\Local\Temp\cc5Pki9b.s:1009   .text.iotx_ds_common_update_version:0000000000000008 .L0 
C:\Users\stapi\AppData\Local\Temp\cc5Pki9b.s:1010   .text.iotx_ds_common_update_version:0000000000000008 .L0 
C:\Users\stapi\AppData\Local\Temp\cc5Pki9b.s:1013   .text.iotx_ds_common_update_version:0000000000000008 .L0 
C:\Users\stapi\AppData\Local\Temp\cc5Pki9b.s:1014   .text.iotx_ds_common_update_version:0000000000000008 .L0 
C:\Users\stapi\AppData\Local\Temp\cc5Pki9b.s:1015   .text.iotx_ds_common_update_version:0000000000000008 .L0 
C:\Users\stapi\AppData\Local\Temp\cc5Pki9b.s:1017   .text.iotx_ds_common_update_version:000000000000000a .L0 
C:\Users\stapi\AppData\Local\Temp\cc5Pki9b.s:1020   .text.iotx_ds_common_update_version:000000000000000c .L0 
C:\Users\stapi\AppData\Local\Temp\cc5Pki9b.s:1023   .text.iotx_ds_common_update_version:0000000000000012 .L0 
C:\Users\stapi\AppData\Local\Temp\cc5Pki9b.s:1026   .text.iotx_ds_common_update_version:000000000000001a .L0 
C:\Users\stapi\AppData\Local\Temp\cc5Pki9b.s:1027   .text.iotx_ds_common_update_version:000000000000001a .L0 
C:\Users\stapi\AppData\Local\Temp\cc5Pki9b.s:1031   .text.iotx_ds_common_update_version:0000000000000024 .L0 
C:\Users\stapi\AppData\Local\Temp\cc5Pki9b.s:1034   .text.iotx_ds_common_update_version:0000000000000026 .L0 
C:\Users\stapi\AppData\Local\Temp\cc5Pki9b.s:1035   .text.iotx_ds_common_update_version:0000000000000026 .L0 
C:\Users\stapi\AppData\Local\Temp\cc5Pki9b.s:1037   .text.iotx_ds_common_update_version:0000000000000028 .L0 
C:\Users\stapi\AppData\Local\Temp\cc5Pki9b.s:1038   .text.iotx_ds_common_update_version:0000000000000028 .L0 
C:\Users\stapi\AppData\Local\Temp\cc5Pki9b.s:1042   .text.iotx_ds_common_update_version:0000000000000034 .L0 
C:\Users\stapi\AppData\Local\Temp\cc5Pki9b.s:1047   .text.iotx_ds_common_update_version:0000000000000044 .L0 
C:\Users\stapi\AppData\Local\Temp\cc5Pki9b.s:1051   .text.iotx_ds_common_update_version:0000000000000050 .L0 
C:\Users\stapi\AppData\Local\Temp\cc5Pki9b.s:1052   .text.iotx_ds_common_update_version:0000000000000050 .L0 
C:\Users\stapi\AppData\Local\Temp\cc5Pki9b.s:1053   .text.iotx_ds_common_update_version:0000000000000050 .L0 
C:\Users\stapi\AppData\Local\Temp\cc5Pki9b.s:1057   .text.iotx_ds_common_update_version:0000000000000052 .L0 
C:\Users\stapi\AppData\Local\Temp\cc5Pki9b.s:1061   .text.iotx_ds_common_update_version:000000000000005c .L0 
C:\Users\stapi\AppData\Local\Temp\cc5Pki9b.s:1062   .text.iotx_ds_common_update_version:000000000000005c .L0 
C:\Users\stapi\AppData\Local\Temp\cc5Pki9b.s:1064   .text.iotx_ds_common_update_version:0000000000000066 .L0 
C:\Users\stapi\AppData\Local\Temp\cc5Pki9b.s:1065   .text.iotx_ds_common_update_version:0000000000000066 .L0 
C:\Users\stapi\AppData\Local\Temp\cc5Pki9b.s:1066   .text.iotx_ds_common_update_version:0000000000000066 .L0 
C:\Users\stapi\AppData\Local\Temp\cc5Pki9b.s:1067   .text.iotx_ds_common_update_version:0000000000000066 .L0 
C:\Users\stapi\AppData\Local\Temp\cc5Pki9b.s:1068   .text.iotx_ds_common_update_version:0000000000000066 .L0 
C:\Users\stapi\AppData\Local\Temp\cc5Pki9b.s:1069   .text.iotx_ds_common_update_version:0000000000000066 .L0 
C:\Users\stapi\AppData\Local\Temp\cc5Pki9b.s:1072   .text.iotx_ds_common_update_version:0000000000000066 .L0 
C:\Users\stapi\AppData\Local\Temp\cc5Pki9b.s:1074   .text.iotx_ds_common_update_version:0000000000000066 .L0 
C:\Users\stapi\AppData\Local\Temp\cc5Pki9b.s:1075   .text.iotx_ds_common_update_version:0000000000000066 .L0 
C:\Users\stapi\AppData\Local\Temp\cc5Pki9b.s:1079   .text.iotx_ds_common_update_version:0000000000000072 .L0 
C:\Users\stapi\AppData\Local\Temp\cc5Pki9b.s:1084   .text.iotx_ds_common_update_version:0000000000000082 .L0 
C:\Users\stapi\AppData\Local\Temp\cc5Pki9b.s:1088   .text.iotx_ds_common_update_version:000000000000008e .L0 
C:\Users\stapi\AppData\Local\Temp\cc5Pki9b.s:1089   .text.iotx_ds_common_update_version:000000000000008e .L0 
C:\Users\stapi\AppData\Local\Temp\cc5Pki9b.s:1090   .text.iotx_ds_common_update_version:000000000000008e .L0 
C:\Users\stapi\AppData\Local\Temp\cc5Pki9b.s:1093   .text.iotx_ds_common_update_version:0000000000000092 .L0 
C:\Users\stapi\AppData\Local\Temp\cc5Pki9b.s:1100   .text.iotx_ds_common_get_version:0000000000000000 iotx_ds_common_get_version
C:\Users\stapi\AppData\Local\Temp\cc5Pki9b.s:1103   .text.iotx_ds_common_get_version:0000000000000000 .L0 
C:\Users\stapi\AppData\Local\Temp\cc5Pki9b.s:1105   .text.iotx_ds_common_get_version:0000000000000000 .L0 
C:\Users\stapi\AppData\Local\Temp\cc5Pki9b.s:1106   .text.iotx_ds_common_get_version:0000000000000008 .L0 
C:\Users\stapi\AppData\Local\Temp\cc5Pki9b.s:1107   .text.iotx_ds_common_get_version:0000000000000008 .L0 
C:\Users\stapi\AppData\Local\Temp\cc5Pki9b.s:1108   .text.iotx_ds_common_get_version:0000000000000008 .L0 
C:\Users\stapi\AppData\Local\Temp\cc5Pki9b.s:1109   .text.iotx_ds_common_get_version:0000000000000008 .L0 
C:\Users\stapi\AppData\Local\Temp\cc5Pki9b.s:1111   .text.iotx_ds_common_get_version:0000000000000008 .L0 
C:\Users\stapi\AppData\Local\Temp\cc5Pki9b.s:1112   .text.iotx_ds_common_get_version:0000000000000008 .L0 
C:\Users\stapi\AppData\Local\Temp\cc5Pki9b.s:1113   .text.iotx_ds_common_get_version:0000000000000008 .L0 
C:\Users\stapi\AppData\Local\Temp\cc5Pki9b.s:1115   .text.iotx_ds_common_get_version:000000000000000a .L0 
C:\Users\stapi\AppData\Local\Temp\cc5Pki9b.s:1120   .text.iotx_ds_common_get_version:0000000000000014 .L0 
C:\Users\stapi\AppData\Local\Temp\cc5Pki9b.s:1121   .text.iotx_ds_common_get_version:0000000000000014 .L0 
C:\Users\stapi\AppData\Local\Temp\cc5Pki9b.s:1123   .text.iotx_ds_common_get_version:0000000000000016 .L0 
C:\Users\stapi\AppData\Local\Temp\cc5Pki9b.s:1126   .text.iotx_ds_common_get_version:0000000000000018 .L0 
C:\Users\stapi\AppData\Local\Temp\cc5Pki9b.s:1129   .text.iotx_ds_common_get_version:0000000000000020 .L0 
C:\Users\stapi\AppData\Local\Temp\cc5Pki9b.s:1130   .text.iotx_ds_common_get_version:0000000000000020 .L0 
C:\Users\stapi\AppData\Local\Temp\cc5Pki9b.s:1132   .text.iotx_ds_common_get_version:000000000000002a .L0 
C:\Users\stapi\AppData\Local\Temp\cc5Pki9b.s:1133   .text.iotx_ds_common_get_version:000000000000002a .L0 
C:\Users\stapi\AppData\Local\Temp\cc5Pki9b.s:1134   .text.iotx_ds_common_get_version:000000000000002a .L0 
C:\Users\stapi\AppData\Local\Temp\cc5Pki9b.s:1135   .text.iotx_ds_common_get_version:000000000000002a .L0 
C:\Users\stapi\AppData\Local\Temp\cc5Pki9b.s:1136   .text.iotx_ds_common_get_version:000000000000002a .L0 
C:\Users\stapi\AppData\Local\Temp\cc5Pki9b.s:1143   .text.iotx_ds_common_get_tokennum:0000000000000000 iotx_ds_common_get_tokennum
C:\Users\stapi\AppData\Local\Temp\cc5Pki9b.s:1146   .text.iotx_ds_common_get_tokennum:0000000000000000 .L0 
C:\Users\stapi\AppData\Local\Temp\cc5Pki9b.s:1148   .text.iotx_ds_common_get_tokennum:0000000000000000 .L0 
C:\Users\stapi\AppData\Local\Temp\cc5Pki9b.s:1149   .text.iotx_ds_common_get_tokennum:0000000000000008 .L0 
C:\Users\stapi\AppData\Local\Temp\cc5Pki9b.s:1150   .text.iotx_ds_common_get_tokennum:0000000000000008 .L0 
C:\Users\stapi\AppData\Local\Temp\cc5Pki9b.s:1151   .text.iotx_ds_common_get_tokennum:0000000000000008 .L0 
C:\Users\stapi\AppData\Local\Temp\cc5Pki9b.s:1152   .text.iotx_ds_common_get_tokennum:0000000000000008 .L0 
C:\Users\stapi\AppData\Local\Temp\cc5Pki9b.s:1154   .text.iotx_ds_common_get_tokennum:0000000000000008 .L0 
C:\Users\stapi\AppData\Local\Temp\cc5Pki9b.s:1155   .text.iotx_ds_common_get_tokennum:0000000000000008 .L0 
C:\Users\stapi\AppData\Local\Temp\cc5Pki9b.s:1156   .text.iotx_ds_common_get_tokennum:0000000000000008 .L0 
C:\Users\stapi\AppData\Local\Temp\cc5Pki9b.s:1158   .text.iotx_ds_common_get_tokennum:000000000000000a .L0 
C:\Users\stapi\AppData\Local\Temp\cc5Pki9b.s:1163   .text.iotx_ds_common_get_tokennum:0000000000000014 .L0 
C:\Users\stapi\AppData\Local\Temp\cc5Pki9b.s:1164   .text.iotx_ds_common_get_tokennum:0000000000000014 .L0 
C:\Users\stapi\AppData\Local\Temp\cc5Pki9b.s:1167   .text.iotx_ds_common_get_tokennum:0000000000000016 .L0 
C:\Users\stapi\AppData\Local\Temp\cc5Pki9b.s:1168   .text.iotx_ds_common_get_tokennum:0000000000000016 .L0 
C:\Users\stapi\AppData\Local\Temp\cc5Pki9b.s:1169   .text.iotx_ds_common_get_tokennum:0000000000000016 .L0 
C:\Users\stapi\AppData\Local\Temp\cc5Pki9b.s:1171   .text.iotx_ds_common_get_tokennum:0000000000000018 .L0 
C:\Users\stapi\AppData\Local\Temp\cc5Pki9b.s:1174   .text.iotx_ds_common_get_tokennum:000000000000001e .L0 
C:\Users\stapi\AppData\Local\Temp\cc5Pki9b.s:1177   .text.iotx_ds_common_get_tokennum:0000000000000026 .L0 
C:\Users\stapi\AppData\Local\Temp\cc5Pki9b.s:1178   .text.iotx_ds_common_get_tokennum:0000000000000026 .L0 
C:\Users\stapi\AppData\Local\Temp\cc5Pki9b.s:1181   .text.iotx_ds_common_get_tokennum:0000000000000032 .L0 
C:\Users\stapi\AppData\Local\Temp\cc5Pki9b.s:1182   .text.iotx_ds_common_get_tokennum:0000000000000032 .L0 
C:\Users\stapi\AppData\Local\Temp\cc5Pki9b.s:1183   .text.iotx_ds_common_get_tokennum:0000000000000032 .L0 
C:\Users\stapi\AppData\Local\Temp\cc5Pki9b.s:1184   .text.iotx_ds_common_get_tokennum:0000000000000032 .L0 
C:\Users\stapi\AppData\Local\Temp\cc5Pki9b.s:1185   .text.iotx_ds_common_get_tokennum:0000000000000032 .L0 
C:\Users\stapi\AppData\Local\Temp\cc5Pki9b.s:1199   .text.iotx_ds_common_format_finalize:0000000000000000 iotx_ds_common_format_finalize
C:\Users\stapi\AppData\Local\Temp\cc5Pki9b.s:1202   .text.iotx_ds_common_format_finalize:0000000000000000 .L0 
C:\Users\stapi\AppData\Local\Temp\cc5Pki9b.s:1204   .text.iotx_ds_common_format_finalize:0000000000000000 .L0 
C:\Users\stapi\AppData\Local\Temp\cc5Pki9b.s:1205   .text.iotx_ds_common_format_finalize:0000000000000008 .L0 
C:\Users\stapi\AppData\Local\Temp\cc5Pki9b.s:1206   .text.iotx_ds_common_format_finalize:0000000000000008 .L0 
C:\Users\stapi\AppData\Local\Temp\cc5Pki9b.s:1207   .text.iotx_ds_common_format_finalize:0000000000000008 .L0 
C:\Users\stapi\AppData\Local\Temp\cc5Pki9b.s:1208   .text.iotx_ds_common_format_finalize:0000000000000008 .L0 
C:\Users\stapi\AppData\Local\Temp\cc5Pki9b.s:1209   .text.iotx_ds_common_format_finalize:0000000000000008 .L0 
C:\Users\stapi\AppData\Local\Temp\cc5Pki9b.s:1210   .text.iotx_ds_common_format_finalize:0000000000000008 .L0 
C:\Users\stapi\AppData\Local\Temp\cc5Pki9b.s:1211   .text.iotx_ds_common_format_finalize:0000000000000008 .L0 
C:\Users\stapi\AppData\Local\Temp\cc5Pki9b.s:1213   .text.iotx_ds_common_format_finalize:0000000000000008 .L0 
C:\Users\stapi\AppData\Local\Temp\cc5Pki9b.s:1214   .text.iotx_ds_common_format_finalize:0000000000000008 .L0 
C:\Users\stapi\AppData\Local\Temp\cc5Pki9b.s:1215   .text.iotx_ds_common_format_finalize:0000000000000008 .L0 
C:\Users\stapi\AppData\Local\Temp\cc5Pki9b.s:1216   .text.iotx_ds_common_format_finalize:000000000000000a .L0 
C:\Users\stapi\AppData\Local\Temp\cc5Pki9b.s:1218   .text.iotx_ds_common_format_finalize:000000000000000a .L0 
C:\Users\stapi\AppData\Local\Temp\cc5Pki9b.s:1222   .text.iotx_ds_common_format_finalize:0000000000000010 .L0 
C:\Users\stapi\AppData\Local\Temp\cc5Pki9b.s:1229   .text.iotx_ds_common_format_finalize:0000000000000018 .L0 
C:\Users\stapi\AppData\Local\Temp\cc5Pki9b.s:1231   .text.iotx_ds_common_format_finalize:000000000000001a .L0 
C:\Users\stapi\AppData\Local\Temp\cc5Pki9b.s:1235   .text.iotx_ds_common_format_finalize:0000000000000024 .L0 
C:\Users\stapi\AppData\Local\Temp\cc5Pki9b.s:1236   .text.iotx_ds_common_format_finalize:0000000000000024 .L0 
C:\Users\stapi\AppData\Local\Temp\cc5Pki9b.s:1237   .text.iotx_ds_common_format_finalize:0000000000000024 .L0 
C:\Users\stapi\AppData\Local\Temp\cc5Pki9b.s:1239   .text.iotx_ds_common_format_finalize:0000000000000028 .L0 
C:\Users\stapi\AppData\Local\Temp\cc5Pki9b.s:1241   .text.iotx_ds_common_format_finalize:000000000000002a .L0 
C:\Users\stapi\AppData\Local\Temp\cc5Pki9b.s:1242   .text.iotx_ds_common_format_finalize:000000000000002a .L0 
C:\Users\stapi\AppData\Local\Temp\cc5Pki9b.s:1244   .text.iotx_ds_common_format_finalize:000000000000002c .L0 
C:\Users\stapi\AppData\Local\Temp\cc5Pki9b.s:1247   .text.iotx_ds_common_format_finalize:0000000000000032 .L0 
C:\Users\stapi\AppData\Local\Temp\cc5Pki9b.s:1249   .text.iotx_ds_common_format_finalize:0000000000000034 .L0 
C:\Users\stapi\AppData\Local\Temp\cc5Pki9b.s:1257   .text.iotx_ds_common_format_finalize:000000000000004a .L0 
C:\Users\stapi\AppData\Local\Temp\cc5Pki9b.s:1258   .text.iotx_ds_common_format_finalize:000000000000004a .L0 
C:\Users\stapi\AppData\Local\Temp\cc5Pki9b.s:1265   .text.iotx_ds_common_format_finalize:0000000000000050 .L0 
C:\Users\stapi\AppData\Local\Temp\cc5Pki9b.s:1266   .text.iotx_ds_common_format_finalize:0000000000000052 .L0 
C:\Users\stapi\AppData\Local\Temp\cc5Pki9b.s:1267   .text.iotx_ds_common_format_finalize:0000000000000052 .L0 
C:\Users\stapi\AppData\Local\Temp\cc5Pki9b.s:1269   .text.iotx_ds_common_format_finalize:000000000000005a .L0 
C:\Users\stapi\AppData\Local\Temp\cc5Pki9b.s:1270   .text.iotx_ds_common_format_finalize:000000000000005a .L0 
C:\Users\stapi\AppData\Local\Temp\cc5Pki9b.s:1271   .text.iotx_ds_common_format_finalize:000000000000005a .L0 
C:\Users\stapi\AppData\Local\Temp\cc5Pki9b.s:1272   .text.iotx_ds_common_format_finalize:000000000000005a .L0 
C:\Users\stapi\AppData\Local\Temp\cc5Pki9b.s:1273   .text.iotx_ds_common_format_finalize:000000000000005a .L0 
C:\Users\stapi\AppData\Local\Temp\cc5Pki9b.s:1274   .text.iotx_ds_common_format_finalize:000000000000005a .L0 
C:\Users\stapi\AppData\Local\Temp\cc5Pki9b.s:1275   .text.iotx_ds_common_format_finalize:000000000000005a .L0 
C:\Users\stapi\AppData\Local\Temp\cc5Pki9b.s:1278   .text.iotx_ds_common_format_finalize:000000000000005a .L0 
C:\Users\stapi\AppData\Local\Temp\cc5Pki9b.s:1280   .text.iotx_ds_common_format_finalize:000000000000005a .L0 
C:\Users\stapi\AppData\Local\Temp\cc5Pki9b.s:1284   .text.iotx_ds_common_format_finalize:000000000000005e .L0 
C:\Users\stapi\AppData\Local\Temp\cc5Pki9b.s:1290   .text.iotx_ds_common_format_finalize:0000000000000064 .L0 
C:\Users\stapi\AppData\Local\Temp\cc5Pki9b.s:1291   .text.iotx_ds_common_format_finalize:0000000000000064 .L0 
C:\Users\stapi\AppData\Local\Temp\cc5Pki9b.s:1292   .text.iotx_ds_common_format_finalize:0000000000000064 .L0 
C:\Users\stapi\AppData\Local\Temp\cc5Pki9b.s:1293   .text.iotx_ds_common_format_finalize:0000000000000064 .L0 
C:\Users\stapi\AppData\Local\Temp\cc5Pki9b.s:1299   .text.iotx_ds_common_format_finalize:000000000000006a .L0 
C:\Users\stapi\AppData\Local\Temp\cc5Pki9b.s:1303   .text.iotx_ds_common_format_finalize:0000000000000074 .L0 
C:\Users\stapi\AppData\Local\Temp\cc5Pki9b.s:1304   .text.iotx_ds_common_format_finalize:0000000000000074 .L0 
C:\Users\stapi\AppData\Local\Temp\cc5Pki9b.s:1307   .text.iotx_ds_common_format_finalize:0000000000000078 .L0 
C:\Users\stapi\AppData\Local\Temp\cc5Pki9b.s:1308   .text.iotx_ds_common_format_finalize:0000000000000078 .L0 
C:\Users\stapi\AppData\Local\Temp\cc5Pki9b.s:1311   .text.iotx_ds_common_format_finalize:000000000000007c .L0 
C:\Users\stapi\AppData\Local\Temp\cc5Pki9b.s:1313   .text.iotx_ds_common_format_finalize:000000000000007e .L0 
C:\Users\stapi\AppData\Local\Temp\cc5Pki9b.s:1315   .text.iotx_ds_common_format_finalize:0000000000000082 .L0 
C:\Users\stapi\AppData\Local\Temp\cc5Pki9b.s:1319   .text.iotx_ds_common_format_finalize:0000000000000088 .L0 
C:\Users\stapi\AppData\Local\Temp\cc5Pki9b.s:1322   .text.iotx_ds_common_format_finalize:000000000000008c .L0 
C:\Users\stapi\AppData\Local\Temp\cc5Pki9b.s:1323   .text.iotx_ds_common_format_finalize:000000000000008c .L0 
C:\Users\stapi\AppData\Local\Temp\cc5Pki9b.s:1327   .text.iotx_ds_common_format_finalize:0000000000000096 .L0 
C:\Users\stapi\AppData\Local\Temp\cc5Pki9b.s:1331   .text.iotx_ds_common_format_finalize:00000000000000a0 .L0 
C:\Users\stapi\AppData\Local\Temp\cc5Pki9b.s:1342   .text.iotx_ds_common_format_finalize:00000000000000bc .L0 
C:\Users\stapi\AppData\Local\Temp\cc5Pki9b.s:1343   .text.iotx_ds_common_format_finalize:00000000000000bc .L0 
C:\Users\stapi\AppData\Local\Temp\cc5Pki9b.s:1345   .text.iotx_ds_common_format_finalize:00000000000000c0 .L0 
C:\Users\stapi\AppData\Local\Temp\cc5Pki9b.s:1347   .text.iotx_ds_common_format_finalize:00000000000000c4 .L0 
C:\Users\stapi\AppData\Local\Temp\cc5Pki9b.s:1348   .text.iotx_ds_common_format_finalize:00000000000000c4 .L0 
C:\Users\stapi\AppData\Local\Temp\cc5Pki9b.s:1349   .text.iotx_ds_common_format_finalize:00000000000000c4 .L0 
C:\Users\stapi\AppData\Local\Temp\cc5Pki9b.s:1350   .text.iotx_ds_common_format_finalize:00000000000000c4 .L0 
C:\Users\stapi\AppData\Local\Temp\cc5Pki9b.s:1355   .text.iotx_ds_common_format_finalize:00000000000000ca .L0 
C:\Users\stapi\AppData\Local\Temp\cc5Pki9b.s:1356   .text.iotx_ds_common_format_finalize:00000000000000ca .L0 
C:\Users\stapi\AppData\Local\Temp\cc5Pki9b.s:1361   .text.iotx_ds_common_format_finalize:00000000000000ce .L0 
C:\Users\stapi\AppData\Local\Temp\cc5Pki9b.s:1362   .text.iotx_ds_common_format_finalize:00000000000000ce .L0 
C:\Users\stapi\AppData\Local\Temp\cc5Pki9b.s:1373   .text.iotx_ds_common_format_finalize:00000000000000f0 .L0 
C:\Users\stapi\AppData\Local\Temp\cc5Pki9b.s:1396   .text.iotx_ds_common_generate_topic_name:0000000000000000 iotx_ds_common_generate_topic_name
C:\Users\stapi\AppData\Local\Temp\cc5Pki9b.s:1399   .text.iotx_ds_common_generate_topic_name:0000000000000000 .L0 
C:\Users\stapi\AppData\Local\Temp\cc5Pki9b.s:1401   .text.iotx_ds_common_generate_topic_name:0000000000000000 .L0 
C:\Users\stapi\AppData\Local\Temp\cc5Pki9b.s:1402   .text.iotx_ds_common_generate_topic_name:0000000000000008 .L0 
C:\Users\stapi\AppData\Local\Temp\cc5Pki9b.s:1403   .text.iotx_ds_common_generate_topic_name:0000000000000008 .L0 
C:\Users\stapi\AppData\Local\Temp\cc5Pki9b.s:1404   .text.iotx_ds_common_generate_topic_name:0000000000000008 .L0 
C:\Users\stapi\AppData\Local\Temp\cc5Pki9b.s:1405   .text.iotx_ds_common_generate_topic_name:0000000000000008 .L0 
C:\Users\stapi\AppData\Local\Temp\cc5Pki9b.s:1407   .text.iotx_ds_common_generate_topic_name:0000000000000008 .L0 
C:\Users\stapi\AppData\Local\Temp\cc5Pki9b.s:1409   .text.iotx_ds_common_generate_topic_name:0000000000000008 .L0 
C:\Users\stapi\AppData\Local\Temp\cc5Pki9b.s:1410   .text.iotx_ds_common_generate_topic_name:0000000000000008 .L0 
C:\Users\stapi\AppData\Local\Temp\cc5Pki9b.s:1411   .text.iotx_ds_common_generate_topic_name:0000000000000008 .L0 
C:\Users\stapi\AppData\Local\Temp\cc5Pki9b.s:1412   .text.iotx_ds_common_generate_topic_name:000000000000000a .L0 
C:\Users\stapi\AppData\Local\Temp\cc5Pki9b.s:1414   .text.iotx_ds_common_generate_topic_name:000000000000000a .L0 
C:\Users\stapi\AppData\Local\Temp\cc5Pki9b.s:1416   .text.iotx_ds_common_generate_topic_name:000000000000000c .L0 
C:\Users\stapi\AppData\Local\Temp\cc5Pki9b.s:1418   .text.iotx_ds_common_generate_topic_name:000000000000000e .L0 
C:\Users\stapi\AppData\Local\Temp\cc5Pki9b.s:1423   .text.iotx_ds_common_generate_topic_name:0000000000000012 .L0 
C:\Users\stapi\AppData\Local\Temp\cc5Pki9b.s:1430   .text.iotx_ds_common_generate_topic_name:0000000000000020 .L0 
C:\Users\stapi\AppData\Local\Temp\cc5Pki9b.s:1431   .text.iotx_ds_common_generate_topic_name:0000000000000020 .L0 
C:\Users\stapi\AppData\Local\Temp\cc5Pki9b.s:1435   .text.iotx_ds_common_generate_topic_name:000000000000002a .L0 
C:\Users\stapi\AppData\Local\Temp\cc5Pki9b.s:1436   .text.iotx_ds_common_generate_topic_name:000000000000002a .L0 
C:\Users\stapi\AppData\Local\Temp\cc5Pki9b.s:1437   .text.iotx_ds_common_generate_topic_name:000000000000002a .L0 
C:\Users\stapi\AppData\Local\Temp\cc5Pki9b.s:1445   .text.iotx_ds_common_generate_topic_name:000000000000003c .L0 
C:\Users\stapi\AppData\Local\Temp\cc5Pki9b.s:1446   .text.iotx_ds_common_generate_topic_name:000000000000003c .L0 
C:\Users\stapi\AppData\Local\Temp\cc5Pki9b.s:1448   .text.iotx_ds_common_generate_topic_name:000000000000003e .L0 
C:\Users\stapi\AppData\Local\Temp\cc5Pki9b.s:1449   .text.iotx_ds_common_generate_topic_name:000000000000003e .L0 
C:\Users\stapi\AppData\Local\Temp\cc5Pki9b.s:1454   .text.iotx_ds_common_generate_topic_name:000000000000004e .L0 
C:\Users\stapi\AppData\Local\Temp\cc5Pki9b.s:1459   .text.iotx_ds_common_generate_topic_name:000000000000005e .L0 
C:\Users\stapi\AppData\Local\Temp\cc5Pki9b.s:1464   .text.iotx_ds_common_generate_topic_name:000000000000006e .L0 
C:\Users\stapi\AppData\Local\Temp\cc5Pki9b.s:1466   .text.iotx_ds_common_generate_topic_name:000000000000006e .L0 
C:\Users\stapi\AppData\Local\Temp\cc5Pki9b.s:1467   .text.iotx_ds_common_generate_topic_name:000000000000006e .L0 
C:\Users\stapi\AppData\Local\Temp\cc5Pki9b.s:1469   .text.iotx_ds_common_generate_topic_name:0000000000000072 .L0 
C:\Users\stapi\AppData\Local\Temp\cc5Pki9b.s:1470   .text.iotx_ds_common_generate_topic_name:0000000000000072 .L0 
C:\Users\stapi\AppData\Local\Temp\cc5Pki9b.s:1472   .text.iotx_ds_common_generate_topic_name:000000000000007a .L0 
C:\Users\stapi\AppData\Local\Temp\cc5Pki9b.s:1473   .text.iotx_ds_common_generate_topic_name:000000000000007a .L0 
C:\Users\stapi\AppData\Local\Temp\cc5Pki9b.s:1474   .text.iotx_ds_common_generate_topic_name:000000000000007a .L0 
C:\Users\stapi\AppData\Local\Temp\cc5Pki9b.s:1475   .text.iotx_ds_common_generate_topic_name:000000000000007a .L0 
C:\Users\stapi\AppData\Local\Temp\cc5Pki9b.s:1478   .text.iotx_ds_common_generate_topic_name:000000000000007a .L0 
C:\Users\stapi\AppData\Local\Temp\cc5Pki9b.s:1480   .text.iotx_ds_common_generate_topic_name:000000000000007a .L0 
C:\Users\stapi\AppData\Local\Temp\cc5Pki9b.s:1484   .text.iotx_ds_common_generate_topic_name:0000000000000084 .L0 
C:\Users\stapi\AppData\Local\Temp\cc5Pki9b.s:1488   .text.iotx_ds_common_generate_topic_name:000000000000008e .L0 
C:\Users\stapi\AppData\Local\Temp\cc5Pki9b.s:1489   .text.iotx_ds_common_generate_topic_name:000000000000008e .L0 
C:\Users\stapi\AppData\Local\Temp\cc5Pki9b.s:1499   .text.iotx_ds_common_generate_topic_name:00000000000000aa .L0 
C:\Users\stapi\AppData\Local\Temp\cc5Pki9b.s:1500   .text.iotx_ds_common_generate_topic_name:00000000000000aa .L0 
C:\Users\stapi\AppData\Local\Temp\cc5Pki9b.s:1502   .text.iotx_ds_common_generate_topic_name:00000000000000ae .L0 
C:\Users\stapi\AppData\Local\Temp\cc5Pki9b.s:1507   .text.iotx_ds_common_generate_topic_name:00000000000000b8 .L0 
C:\Users\stapi\AppData\Local\Temp\cc5Pki9b.s:1508   .text.iotx_ds_common_generate_topic_name:00000000000000b8 .L0 
C:\Users\stapi\AppData\Local\Temp\cc5Pki9b.s:1514   .text.iotx_ds_common_generate_topic_name:00000000000000bc .L0 
C:\Users\stapi\AppData\Local\Temp\cc5Pki9b.s:1515   .text.iotx_ds_common_generate_topic_name:00000000000000bc .L0 
C:\Users\stapi\AppData\Local\Temp\cc5Pki9b.s:1518   .text.iotx_ds_common_generate_topic_name:00000000000000c4 .L0 
C:\Users\stapi\AppData\Local\Temp\cc5Pki9b.s:1531   .text.iotx_ds_common_generate_topic_name:00000000000000f2 .L0 
C:\Users\stapi\AppData\Local\Temp\cc5Pki9b.s:1545   .text.iotx_ds_common_publish2update:0000000000000000 iotx_ds_common_publish2update
C:\Users\stapi\AppData\Local\Temp\cc5Pki9b.s:1548   .text.iotx_ds_common_publish2update:0000000000000000 .L0 
C:\Users\stapi\AppData\Local\Temp\cc5Pki9b.s:1550   .text.iotx_ds_common_publish2update:0000000000000000 .L0 
C:\Users\stapi\AppData\Local\Temp\cc5Pki9b.s:1551   .text.iotx_ds_common_publish2update:0000000000000008 .L0 
C:\Users\stapi\AppData\Local\Temp\cc5Pki9b.s:1552   .text.iotx_ds_common_publish2update:0000000000000008 .L0 
C:\Users\stapi\AppData\Local\Temp\cc5Pki9b.s:1553   .text.iotx_ds_common_publish2update:0000000000000008 .L0 
C:\Users\stapi\AppData\Local\Temp\cc5Pki9b.s:1554   .text.iotx_ds_common_publish2update:0000000000000008 .L0 
C:\Users\stapi\AppData\Local\Temp\cc5Pki9b.s:1555   .text.iotx_ds_common_publish2update:0000000000000008 .L0 
C:\Users\stapi\AppData\Local\Temp\cc5Pki9b.s:1557   .text.iotx_ds_common_publish2update:0000000000000008 .L0 
C:\Users\stapi\AppData\Local\Temp\cc5Pki9b.s:1558   .text.iotx_ds_common_publish2update:0000000000000008 .L0 
C:\Users\stapi\AppData\Local\Temp\cc5Pki9b.s:1559   .text.iotx_ds_common_publish2update:0000000000000008 .L0 
C:\Users\stapi\AppData\Local\Temp\cc5Pki9b.s:1561   .text.iotx_ds_common_publish2update:000000000000000c .L0 
C:\Users\stapi\AppData\Local\Temp\cc5Pki9b.s:1562   .text.iotx_ds_common_publish2update:000000000000000e .L0 
C:\Users\stapi\AppData\Local\Temp\cc5Pki9b.s:1564   .text.iotx_ds_common_publish2update:000000000000000e .L0 
C:\Users\stapi\AppData\Local\Temp\cc5Pki9b.s:1568   .text.iotx_ds_common_publish2update:0000000000000014 .L0 
C:\Users\stapi\AppData\Local\Temp\cc5Pki9b.s:1572   .text.iotx_ds_common_publish2update:0000000000000016 .L0 
C:\Users\stapi\AppData\Local\Temp\cc5Pki9b.s:1585   .text.iotx_ds_common_publish2update:0000000000000040 .L0 
C:\Users\stapi\AppData\Local\Temp\cc5Pki9b.s:1586   .text.iotx_ds_common_publish2update:0000000000000040 .L0 
C:\Users\stapi\AppData\Local\Temp\cc5Pki9b.s:1587   .text.iotx_ds_common_publish2update:0000000000000040 .L0 
C:\Users\stapi\AppData\Local\Temp\cc5Pki9b.s:1588   .text.iotx_ds_common_publish2update:0000000000000040 .L0 
C:\Users\stapi\AppData\Local\Temp\cc5Pki9b.s:1589   .text.iotx_ds_common_publish2update:0000000000000040 .L0 
C:\Users\stapi\AppData\Local\Temp\cc5Pki9b.s:1592   .text.iotx_ds_common_publish2update:0000000000000046 .L0 
C:\Users\stapi\AppData\Local\Temp\cc5Pki9b.s:1594   .text.iotx_ds_common_publish2update:0000000000000048 .L0 
C:\Users\stapi\AppData\Local\Temp\cc5Pki9b.s:1596   .text.iotx_ds_common_publish2update:000000000000004a .L0 
C:\Users\stapi\AppData\Local\Temp\cc5Pki9b.s:1598   .text.iotx_ds_common_publish2update:000000000000004c .L0 
C:\Users\stapi\AppData\Local\Temp\cc5Pki9b.s:1599   .text.iotx_ds_common_publish2update:000000000000004c .L0 
C:\Users\stapi\AppData\Local\Temp\cc5Pki9b.s:1601   .text.iotx_ds_common_publish2update:000000000000004e .L0 
C:\Users\stapi\AppData\Local\Temp\cc5Pki9b.s:1602   .text.iotx_ds_common_publish2update:000000000000004e .L0 
C:\Users\stapi\AppData\Local\Temp\cc5Pki9b.s:1604   .text.iotx_ds_common_publish2update:0000000000000050 .L0 
C:\Users\stapi\AppData\Local\Temp\cc5Pki9b.s:1606   .text.iotx_ds_common_publish2update:0000000000000054 .L0 
C:\Users\stapi\AppData\Local\Temp\cc5Pki9b.s:1607   .text.iotx_ds_common_publish2update:0000000000000054 .L0 
C:\Users\stapi\AppData\Local\Temp\cc5Pki9b.s:1611   .text.iotx_ds_common_publish2update:000000000000005c .L0 
C:\Users\stapi\AppData\Local\Temp\cc5Pki9b.s:1612   .text.iotx_ds_common_publish2update:000000000000005e .L0 
C:\Users\stapi\AppData\Local\Temp\cc5Pki9b.s:1613   .text.iotx_ds_common_publish2update:000000000000005e .L0 
C:\Users\stapi\AppData\Local\Temp\cc5Pki9b.s:1615   .text.iotx_ds_common_publish2update:0000000000000066 .L0 
C:\Users\stapi\AppData\Local\Temp\cc5Pki9b.s:1616   .text.iotx_ds_common_publish2update:0000000000000066 .L0 
C:\Users\stapi\AppData\Local\Temp\cc5Pki9b.s:1617   .text.iotx_ds_common_publish2update:0000000000000066 .L0 
C:\Users\stapi\AppData\Local\Temp\cc5Pki9b.s:1618   .text.iotx_ds_common_publish2update:0000000000000066 .L0 
C:\Users\stapi\AppData\Local\Temp\cc5Pki9b.s:1619   .text.iotx_ds_common_publish2update:0000000000000066 .L0 
C:\Users\stapi\AppData\Local\Temp\cc5Pki9b.s:1622   .text.iotx_ds_common_publish2update:0000000000000066 .L0 
C:\Users\stapi\AppData\Local\Temp\cc5Pki9b.s:1624   .text.iotx_ds_common_publish2update:0000000000000066 .L0 
C:\Users\stapi\AppData\Local\Temp\cc5Pki9b.s:1625   .text.iotx_ds_common_publish2update:0000000000000066 .L0 
C:\Users\stapi\AppData\Local\Temp\cc5Pki9b.s:1630   .text.iotx_ds_common_publish2update:0000000000000076 .L0 
C:\Users\stapi\AppData\Local\Temp\cc5Pki9b.s:1632   .text.iotx_ds_common_publish2update:000000000000007a .L0 
C:\Users\stapi\AppData\Local\Temp\cc5Pki9b.s:1633   .text.iotx_ds_common_publish2update:000000000000007a .L0 
C:\Users\stapi\AppData\Local\Temp\cc5Pki9b.s:1635   .text.iotx_ds_common_publish2update:000000000000007c .L0 
C:\Users\stapi\AppData\Local\Temp\cc5Pki9b.s:1637   .text.iotx_ds_common_publish2update:0000000000000080 .L0 
C:\Users\stapi\AppData\Local\Temp\cc5Pki9b.s:1642   .rodata.__FUNCTION__.0:0000000000000000 .LANCHOR2
C:\Users\stapi\AppData\Local\Temp\cc5Pki9b.s:1645   .rodata.__FUNCTION__.0:0000000000000000 __FUNCTION__.0
C:\Users\stapi\AppData\Local\Temp\cc5Pki9b.s:1649   .rodata.__FUNCTION__.2:0000000000000000 .LANCHOR0
C:\Users\stapi\AppData\Local\Temp\cc5Pki9b.s:1652   .rodata.__FUNCTION__.2:0000000000000000 __FUNCTION__.2
C:\Users\stapi\AppData\Local\Temp\cc5Pki9b.s:1656   .rodata.__func__.1:0000000000000000 .LANCHOR1
C:\Users\stapi\AppData\Local\Temp\cc5Pki9b.s:1659   .rodata.__func__.1:0000000000000000 __func__.1
C:\Users\stapi\AppData\Local\Temp\cc5Pki9b.s:169    .text.iotx_ds_common_format_init:000000000000009e .L0 
C:\Users\stapi\AppData\Local\Temp\cc5Pki9b.s:317    .text.iotx_ds_common_convert_data2string:000000000000009c .L0 
C:\Users\stapi\AppData\Local\Temp\cc5Pki9b.s:477    .text.iotx_ds_common_format_add:000000000000009e .L0 
C:\Users\stapi\AppData\Local\Temp\cc5Pki9b.s:635    .text.iotx_ds_common_convert_string2data:00000000000000ca .L0 
C:\Users\stapi\AppData\Local\Temp\cc5Pki9b.s:749    .text.iotx_ds_common_update_time:000000000000009a .L0 
C:\Users\stapi\AppData\Local\Temp\cc5Pki9b.s:804    .text.iotx_ds_common_check_attr_existence:0000000000000040 .L0 
C:\Users\stapi\AppData\Local\Temp\cc5Pki9b.s:889    .text.iotx_ds_common_register_attr:0000000000000078 .L0 
C:\Users\stapi\AppData\Local\Temp\cc5Pki9b.s:989    .text.iotx_ds_common_remove_attr:0000000000000084 .L0 
C:\Users\stapi\AppData\Local\Temp\cc5Pki9b.s:1096   .text.iotx_ds_common_update_version:0000000000000092 .L0 
C:\Users\stapi\AppData\Local\Temp\cc5Pki9b.s:1139   .text.iotx_ds_common_get_version:000000000000002a .L0 
C:\Users\stapi\AppData\Local\Temp\cc5Pki9b.s:1188   .text.iotx_ds_common_get_tokennum:0000000000000032 .L0 
C:\Users\stapi\AppData\Local\Temp\cc5Pki9b.s:1376   .text.iotx_ds_common_format_finalize:00000000000000f0 .L0 
C:\Users\stapi\AppData\Local\Temp\cc5Pki9b.s:1534   .text.iotx_ds_common_generate_topic_name:00000000000000f2 .L0 
C:\Users\stapi\AppData\Local\Temp\cc5Pki9b.s:1640   .text.iotx_ds_common_publish2update:0000000000000080 .L0 
                     .debug_frame:0000000000000000 .L0 
C:\Users\stapi\AppData\Local\Temp\cc5Pki9b.s:11     .rodata.iotx_ds_common_format_init.str1.4:0000000000000000 .LC0
C:\Users\stapi\AppData\Local\Temp\cc5Pki9b.s:14     .rodata.iotx_ds_common_format_init.str1.4:0000000000000008 .LC1
C:\Users\stapi\AppData\Local\Temp\cc5Pki9b.s:17     .rodata.iotx_ds_common_format_init.str1.4:0000000000000014 .LC2
C:\Users\stapi\AppData\Local\Temp\cc5Pki9b.s:91     .text.iotx_ds_common_format_init:0000000000000052 .L1
C:\Users\stapi\AppData\Local\Temp\cc5Pki9b.s:105    .text.iotx_ds_common_format_init:000000000000005c .L3
C:\Users\stapi\AppData\Local\Temp\cc5Pki9b.s:116    .text.iotx_ds_common_format_init:0000000000000066 .L4
C:\Users\stapi\AppData\Local\Temp\cc5Pki9b.s:157    .text.iotx_ds_common_format_init:0000000000000096 .L5
C:\Users\stapi\AppData\Local\Temp\cc5Pki9b.s:88     .text.iotx_ds_common_format_init:0000000000000050 .L6
C:\Users\stapi\AppData\Local\Temp\cc5Pki9b.s:110    .text.iotx_ds_common_format_init:0000000000000060 .L7
C:\Users\stapi\AppData\Local\Temp\cc5Pki9b.s:171    .rodata.iotx_ds_common_convert_data2string.str1.4:0000000000000000 .LC3
C:\Users\stapi\AppData\Local\Temp\cc5Pki9b.s:174    .rodata.iotx_ds_common_convert_data2string.str1.4:0000000000000004 .LC4
C:\Users\stapi\AppData\Local\Temp\cc5Pki9b.s:177    .rodata.iotx_ds_common_convert_data2string.str1.4:000000000000000c .LC5
C:\Users\stapi\AppData\Local\Temp\cc5Pki9b.s:180    .rodata.iotx_ds_common_convert_data2string.str1.4:0000000000000014 .LC6
C:\Users\stapi\AppData\Local\Temp\cc5Pki9b.s:183    .rodata.iotx_ds_common_convert_data2string.str1.4:0000000000000018 .LC7
C:\Users\stapi\AppData\Local\Temp\cc5Pki9b.s:186    .rodata.iotx_ds_common_convert_data2string.str1.4:0000000000000020 .LC8
C:\Users\stapi\AppData\Local\Temp\cc5Pki9b.s:189    .rodata.iotx_ds_common_convert_data2string.str1.4:0000000000000030 .LC9
C:\Users\stapi\AppData\Local\Temp\cc5Pki9b.s:271    .text.iotx_ds_common_convert_data2string:000000000000005c .L20
C:\Users\stapi\AppData\Local\Temp\cc5Pki9b.s:241    .text.iotx_ds_common_convert_data2string:0000000000000036 .L13
C:\Users\stapi\AppData\Local\Temp\cc5Pki9b.s:259    .text.iotx_ds_common_convert_data2string:000000000000004a .L15
C:\Users\stapi\AppData\Local\Temp\cc5Pki9b.s:282    .text.iotx_ds_common_convert_data2string:0000000000000062 .L16
C:\Users\stapi\AppData\Local\Temp\cc5Pki9b.s:310    .text.iotx_ds_common_convert_data2string:0000000000000098 .L24
C:\Users\stapi\AppData\Local\Temp\cc5Pki9b.s:229    .text.iotx_ds_common_convert_data2string:0000000000000024 .L30
C:\Users\stapi\AppData\Local\Temp\cc5Pki9b.s:250    .text.iotx_ds_common_convert_data2string:0000000000000040 .L18
C:\Users\stapi\AppData\Local\Temp\cc5Pki9b.s:319    .rodata.iotx_ds_common_format_add.str1.4:0000000000000000 .LC10
C:\Users\stapi\AppData\Local\Temp\cc5Pki9b.s:424    .text.iotx_ds_common_format_add:000000000000006a .L32
C:\Users\stapi\AppData\Local\Temp\cc5Pki9b.s:440    .text.iotx_ds_common_format_add:0000000000000076 .L36
C:\Users\stapi\AppData\Local\Temp\cc5Pki9b.s:443    .text.iotx_ds_common_format_add:0000000000000078 .L31
C:\Users\stapi\AppData\Local\Temp\cc5Pki9b.s:454    .text.iotx_ds_common_format_add:0000000000000080 .L34
C:\Users\stapi\AppData\Local\Temp\cc5Pki9b.s:352    .text.iotx_ds_common_format_add:0000000000000016 .L33
C:\Users\stapi\AppData\Local\Temp\cc5Pki9b.s:479    .rodata.iotx_ds_common_convert_string2data.str1.4:0000000000000000 .LC11
C:\Users\stapi\AppData\Local\Temp\cc5Pki9b.s:482    .rodata.iotx_ds_common_convert_string2data.str1.4:0000000000000008 .LC12
C:\Users\stapi\AppData\Local\Temp\cc5Pki9b.s:485    .rodata.iotx_ds_common_convert_string2data.str1.4:0000000000000010 .LC13
C:\Users\stapi\AppData\Local\Temp\cc5Pki9b.s:621    .text.iotx_ds_common_convert_string2data:00000000000000c6 .L46
C:\Users\stapi\AppData\Local\Temp\cc5Pki9b.s:535    .text.iotx_ds_common_convert_string2data:0000000000000034 .L39
C:\Users\stapi\AppData\Local\Temp\cc5Pki9b.s:583    .text.iotx_ds_common_convert_string2data:000000000000007a .L41
C:\Users\stapi\AppData\Local\Temp\cc5Pki9b.s:545    .text.iotx_ds_common_convert_string2data:000000000000003c .L42
C:\Users\stapi\AppData\Local\Temp\cc5Pki9b.s:564    .text.iotx_ds_common_convert_string2data:0000000000000058 .L43
C:\Users\stapi\AppData\Local\Temp\cc5Pki9b.s:556    .text.iotx_ds_common_convert_string2data:0000000000000050 .L44
C:\Users\stapi\AppData\Local\Temp\cc5Pki9b.s:560    .text.iotx_ds_common_convert_string2data:0000000000000054 .L56
C:\Users\stapi\AppData\Local\Temp\cc5Pki9b.s:598    .text.iotx_ds_common_convert_string2data:0000000000000090 .L45
C:\Users\stapi\AppData\Local\Temp\cc5Pki9b.s:637    .rodata.iotx_ds_common_update_time.str1.4:0000000000000000 .LC14
C:\Users\stapi\AppData\Local\Temp\cc5Pki9b.s:640    .rodata.iotx_ds_common_update_time.str1.4:0000000000000008 .LC15
C:\Users\stapi\AppData\Local\Temp\cc5Pki9b.s:643    .rodata.iotx_ds_common_update_time.str1.4:000000000000001c .LC16
C:\Users\stapi\AppData\Local\Temp\cc5Pki9b.s:725    .text.iotx_ds_common_update_time:000000000000006e .L58
C:\Users\stapi\AppData\Local\Temp\cc5Pki9b.s:708    .text.iotx_ds_common_update_time:000000000000005a .L59
C:\Users\stapi\AppData\Local\Temp\cc5Pki9b.s:806    .rodata.iotx_ds_common_register_attr.str1.4:0000000000000000 .LC17
C:\Users\stapi\AppData\Local\Temp\cc5Pki9b.s:809    .rodata.iotx_ds_common_register_attr.str1.4:0000000000000014 .LC18
C:\Users\stapi\AppData\Local\Temp\cc5Pki9b.s:881    .text.iotx_ds_common_register_attr:0000000000000072 .L65
C:\Users\stapi\AppData\Local\Temp\cc5Pki9b.s:871    .text.iotx_ds_common_register_attr:0000000000000068 .L63
C:\Users\stapi\AppData\Local\Temp\cc5Pki9b.s:891    .rodata.iotx_ds_common_remove_attr.str1.4:0000000000000000 .LC19
C:\Users\stapi\AppData\Local\Temp\cc5Pki9b.s:974    .text.iotx_ds_common_remove_attr:0000000000000072 .L68
C:\Users\stapi\AppData\Local\Temp\cc5Pki9b.s:956    .text.iotx_ds_common_remove_attr:000000000000005c .L69
C:\Users\stapi\AppData\Local\Temp\cc5Pki9b.s:991    .rodata.iotx_ds_common_update_version.str1.4:0000000000000000 .LC20
C:\Users\stapi\AppData\Local\Temp\cc5Pki9b.s:994    .rodata.iotx_ds_common_update_version.str1.4:0000000000000018 .LC21
C:\Users\stapi\AppData\Local\Temp\cc5Pki9b.s:1032   .text.iotx_ds_common_update_version:0000000000000026 .L72
C:\Users\stapi\AppData\Local\Temp\cc5Pki9b.s:1071   .text.iotx_ds_common_update_version:0000000000000066 .L73
C:\Users\stapi\AppData\Local\Temp\cc5Pki9b.s:1055   .text.iotx_ds_common_update_version:0000000000000052 .L74
C:\Users\stapi\AppData\Local\Temp\cc5Pki9b.s:1190   .rodata.iotx_ds_common_format_finalize.str1.4:0000000000000000 .LC22
C:\Users\stapi\AppData\Local\Temp\cc5Pki9b.s:1193   .rodata.iotx_ds_common_format_finalize.str1.4:0000000000000028 .LC23
C:\Users\stapi\AppData\Local\Temp\cc5Pki9b.s:1297   .text.iotx_ds_common_format_finalize:000000000000006a .L81
C:\Users\stapi\AppData\Local\Temp\cc5Pki9b.s:1277   .text.iotx_ds_common_format_finalize:000000000000005a .L82
C:\Users\stapi\AppData\Local\Temp\cc5Pki9b.s:1288   .text.iotx_ds_common_format_finalize:0000000000000064 .L84
C:\Users\stapi\AppData\Local\Temp\cc5Pki9b.s:1263   .text.iotx_ds_common_format_finalize:0000000000000050 .L80
C:\Users\stapi\AppData\Local\Temp\cc5Pki9b.s:1359   .text.iotx_ds_common_format_finalize:00000000000000ce .L85
C:\Users\stapi\AppData\Local\Temp\cc5Pki9b.s:1260   .text.iotx_ds_common_format_finalize:000000000000004e .L87
C:\Users\stapi\AppData\Local\Temp\cc5Pki9b.s:1282   .text.iotx_ds_common_format_finalize:000000000000005e .L88
C:\Users\stapi\AppData\Local\Temp\cc5Pki9b.s:1340   .text.iotx_ds_common_format_finalize:00000000000000bc .L86
C:\Users\stapi\AppData\Local\Temp\cc5Pki9b.s:1378   .rodata.iotx_ds_common_generate_topic_name.str1.4:0000000000000000 .LC24
C:\Users\stapi\AppData\Local\Temp\cc5Pki9b.s:1381   .rodata.iotx_ds_common_generate_topic_name.str1.4:0000000000000014 .LC25
C:\Users\stapi\AppData\Local\Temp\cc5Pki9b.s:1384   .rodata.iotx_ds_common_generate_topic_name.str1.4:0000000000000028 .LC26
C:\Users\stapi\AppData\Local\Temp\cc5Pki9b.s:1387   .rodata.iotx_ds_common_generate_topic_name.str1.4:0000000000000034 .LC27
C:\Users\stapi\AppData\Local\Temp\cc5Pki9b.s:1390   .rodata.iotx_ds_common_generate_topic_name.str1.4:00000000000000d4 .LC28
C:\Users\stapi\AppData\Local\Temp\cc5Pki9b.s:1477   .text.iotx_ds_common_generate_topic_name:000000000000007a .L94
C:\Users\stapi\AppData\Local\Temp\cc5Pki9b.s:1512   .text.iotx_ds_common_generate_topic_name:00000000000000bc .L96
C:\Users\stapi\AppData\Local\Temp\cc5Pki9b.s:1465   .text.iotx_ds_common_generate_topic_name:000000000000006e .L93
C:\Users\stapi\AppData\Local\Temp\cc5Pki9b.s:1536   .rodata.iotx_ds_common_publish2update.str1.4:0000000000000000 .LC29
C:\Users\stapi\AppData\Local\Temp\cc5Pki9b.s:1539   .rodata.iotx_ds_common_publish2update.str1.4:000000000000001c .LC30
C:\Users\stapi\AppData\Local\Temp\cc5Pki9b.s:1621   .text.iotx_ds_common_publish2update:0000000000000066 .L99
C:\Users\stapi\AppData\Local\Temp\cc5Pki9b.s:1570   .text.iotx_ds_common_publish2update:0000000000000016 .L101
C:\Users\stapi\AppData\Local\Temp\cc5Pki9b.s:1609   .text.iotx_ds_common_publish2update:000000000000005c .L98
C:\Users\stapi\AppData\Local\Temp\cc5Pki9b.s:4793   .debug_abbrev:0000000000000000 .Ldebug_abbrev0
C:\Users\stapi\AppData\Local\Temp\cc5Pki9b.s:6689   .debug_str:0000000000000114 .LASF345
C:\Users\stapi\AppData\Local\Temp\cc5Pki9b.s:7155   .debug_str:0000000000001615 .LASF346
C:\Users\stapi\AppData\Local\Temp\cc5Pki9b.s:7089   .debug_str:00000000000012b4 .LASF347
C:\Users\stapi\AppData\Local\Temp\cc5Pki9b.s:6625   .debug_ranges:0000000000000000 .Ldebug_ranges0
C:\Users\stapi\AppData\Local\Temp\cc5Pki9b.s:6657   .debug_line:0000000000000000 .Ldebug_line0
C:\Users\stapi\AppData\Local\Temp\cc5Pki9b.s:6829   .debug_str:00000000000007ef .LASF0
C:\Users\stapi\AppData\Local\Temp\cc5Pki9b.s:6767   .debug_str:0000000000000543 .LASF3
C:\Users\stapi\AppData\Local\Temp\cc5Pki9b.s:6843   .debug_str:0000000000000878 .LASF1
C:\Users\stapi\AppData\Local\Temp\cc5Pki9b.s:7213   .debug_str:00000000000018dd .LASF2
C:\Users\stapi\AppData\Local\Temp\cc5Pki9b.s:6893   .debug_str:0000000000000ab0 .LASF4
C:\Users\stapi\AppData\Local\Temp\cc5Pki9b.s:7307   .debug_str:0000000000001cfa .LASF5
C:\Users\stapi\AppData\Local\Temp\cc5Pki9b.s:7317   .debug_str:0000000000001d67 .LASF6
C:\Users\stapi\AppData\Local\Temp\cc5Pki9b.s:6783   .debug_str:00000000000005f5 .LASF7
C:\Users\stapi\AppData\Local\Temp\cc5Pki9b.s:7021   .debug_str:000000000000103e .LASF8
C:\Users\stapi\AppData\Local\Temp\cc5Pki9b.s:6977   .debug_str:0000000000000e87 .LASF9
C:\Users\stapi\AppData\Local\Temp\cc5Pki9b.s:7023   .debug_str:0000000000001049 .LASF10
C:\Users\stapi\AppData\Local\Temp\cc5Pki9b.s:7127   .debug_str:0000000000001502 .LASF11
C:\Users\stapi\AppData\Local\Temp\cc5Pki9b.s:7063   .debug_str:00000000000011b1 .LASF12
C:\Users\stapi\AppData\Local\Temp\cc5Pki9b.s:6665   .debug_str:000000000000003e .LASF13
C:\Users\stapi\AppData\Local\Temp\cc5Pki9b.s:6877   .debug_str:0000000000000a1a .LASF14
C:\Users\stapi\AppData\Local\Temp\cc5Pki9b.s:6831   .debug_str:00000000000007fb .LASF15
C:\Users\stapi\AppData\Local\Temp\cc5Pki9b.s:7133   .debug_str:0000000000001559 .LASF16
C:\Users\stapi\AppData\Local\Temp\cc5Pki9b.s:6691   .debug_str:00000000000001fb .LASF17
C:\Users\stapi\AppData\Local\Temp\cc5Pki9b.s:7277   .debug_str:0000000000001bd2 .LASF18
C:\Users\stapi\AppData\Local\Temp\cc5Pki9b.s:6669   .debug_str:000000000000005f .LASF348
C:\Users\stapi\AppData\Local\Temp\cc5Pki9b.s:6833   .debug_str:0000000000000803 .LASF19
C:\Users\stapi\AppData\Local\Temp\cc5Pki9b.s:7041   .debug_str:00000000000010fb .LASF20
C:\Users\stapi\AppData\Local\Temp\cc5Pki9b.s:7091   .debug_str:0000000000001345 .LASF21
C:\Users\stapi\AppData\Local\Temp\cc5Pki9b.s:6923   .debug_str:0000000000000bfc .LASF22
C:\Users\stapi\AppData\Local\Temp\cc5Pki9b.s:7271   .debug_str:0000000000001b9f .LASF23
C:\Users\stapi\AppData\Local\Temp\cc5Pki9b.s:7015   .debug_str:0000000000000ff2 .LASF24
C:\Users\stapi\AppData\Local\Temp\cc5Pki9b.s:6659   .debug_str:0000000000000000 .LASF25
C:\Users\stapi\AppData\Local\Temp\cc5Pki9b.s:7167   .debug_str:000000000000170d .LASF26
C:\Users\stapi\AppData\Local\Temp\cc5Pki9b.s:7303   .debug_str:0000000000001cda .LASF27
C:\Users\stapi\AppData\Local\Temp\cc5Pki9b.s:7183   .debug_str:00000000000017c4 .LASF28
C:\Users\stapi\AppData\Local\Temp\cc5Pki9b.s:7143   .debug_str:0000000000001596 .LASF29
C:\Users\stapi\AppData\Local\Temp\cc5Pki9b.s:6889   .debug_str:0000000000000a8d .LASF30
C:\Users\stapi\AppData\Local\Temp\cc5Pki9b.s:7097   .debug_str:0000000000001387 .LASF31
C:\Users\stapi\AppData\Local\Temp\cc5Pki9b.s:7145   .debug_str:00000000000015a5 .LASF32
C:\Users\stapi\AppData\Local\Temp\cc5Pki9b.s:6973   .debug_str:0000000000000e60 .LASF33
C:\Users\stapi\AppData\Local\Temp\cc5Pki9b.s:7309   .debug_str:0000000000001d0d .LASF34
C:\Users\stapi\AppData\Local\Temp\cc5Pki9b.s:7025   .debug_str:0000000000001057 .LASF35
C:\Users\stapi\AppData\Local\Temp\cc5Pki9b.s:7117   .debug_str:000000000000147a .LASF36
C:\Users\stapi\AppData\Local\Temp\cc5Pki9b.s:6859   .debug_str:0000000000000935 .LASF37
C:\Users\stapi\AppData\Local\Temp\cc5Pki9b.s:7185   .debug_str:00000000000017d3 .LASF38
C:\Users\stapi\AppData\Local\Temp\cc5Pki9b.s:6677   .debug_str:0000000000000091 .LASF39
C:\Users\stapi\AppData\Local\Temp\cc5Pki9b.s:6777   .debug_str:0000000000000596 .LASF40
C:\Users\stapi\AppData\Local\Temp\cc5Pki9b.s:7149   .debug_str:00000000000015c7 .LASF41
C:\Users\stapi\AppData\Local\Temp\cc5Pki9b.s:6853   .debug_str:00000000000008dc .LASF42
C:\Users\stapi\AppData\Local\Temp\cc5Pki9b.s:6965   .debug_str:0000000000000e07 .LASF43
C:\Users\stapi\AppData\Local\Temp\cc5Pki9b.s:7131   .debug_str:000000000000153f .LASF44
C:\Users\stapi\AppData\Local\Temp\cc5Pki9b.s:6709   .debug_str:00000000000002bf .LASF45
C:\Users\stapi\AppData\Local\Temp\cc5Pki9b.s:7229   .debug_str:0000000000001980 .LASF46
C:\Users\stapi\AppData\Local\Temp\cc5Pki9b.s:7071   .debug_str:00000000000011ff .LASF47
C:\Users\stapi\AppData\Local\Temp\cc5Pki9b.s:6883   .debug_str:0000000000000a36 .LASF48
C:\Users\stapi\AppData\Local\Temp\cc5Pki9b.s:6795   .debug_str:0000000000000664 .LASF49
C:\Users\stapi\AppData\Local\Temp\cc5Pki9b.s:6747   .debug_str:0000000000000488 .LASF50
C:\Users\stapi\AppData\Local\Temp\cc5Pki9b.s:7115   .debug_str:0000000000001461 .LASF51
C:\Users\stapi\AppData\Local\Temp\cc5Pki9b.s:7241   .debug_str:0000000000001a21 .LASF52
C:\Users\stapi\AppData\Local\Temp\cc5Pki9b.s:7107   .debug_str:0000000000001409 .LASF53
C:\Users\stapi\AppData\Local\Temp\cc5Pki9b.s:6661   .debug_str:000000000000000f .LASF54
C:\Users\stapi\AppData\Local\Temp\cc5Pki9b.s:6723   .debug_str:000000000000036f .LASF55
C:\Users\stapi\AppData\Local\Temp\cc5Pki9b.s:6741   .debug_str:000000000000044e .LASF56
C:\Users\stapi\AppData\Local\Temp\cc5Pki9b.s:7123   .debug_str:00000000000014df .LASF57
C:\Users\stapi\AppData\Local\Temp\cc5Pki9b.s:6903   .debug_str:0000000000000b10 .LASF58
C:\Users\stapi\AppData\Local\Temp\cc5Pki9b.s:7019   .debug_str:000000000000101c .LASF59
C:\Users\stapi\AppData\Local\Temp\cc5Pki9b.s:6801   .debug_str:00000000000006b6 .LASF60
C:\Users\stapi\AppData\Local\Temp\cc5Pki9b.s:7301   .debug_str:0000000000001cbe .LASF61
C:\Users\stapi\AppData\Local\Temp\cc5Pki9b.s:7311   .debug_str:0000000000001d2f .LASF62
C:\Users\stapi\AppData\Local\Temp\cc5Pki9b.s:7211   .debug_str:00000000000018c5 .LASF63
C:\Users\stapi\AppData\Local\Temp\cc5Pki9b.s:7279   .debug_str:0000000000001bdb .LASF64
C:\Users\stapi\AppData\Local\Temp\cc5Pki9b.s:6851   .debug_str:00000000000008c3 .LASF65
C:\Users\stapi\AppData\Local\Temp\cc5Pki9b.s:6905   .debug_str:0000000000000b2e .LASF66
C:\Users\stapi\AppData\Local\Temp\cc5Pki9b.s:7081   .debug_str:000000000000126b .LASF67
C:\Users\stapi\AppData\Local\Temp\cc5Pki9b.s:7181   .debug_str:00000000000017ac .LASF68
C:\Users\stapi\AppData\Local\Temp\cc5Pki9b.s:6919   .debug_str:0000000000000bb6 .LASF69
C:\Users\stapi\AppData\Local\Temp\cc5Pki9b.s:6835   .debug_str:000000000000081a .LASF70
C:\Users\stapi\AppData\Local\Temp\cc5Pki9b.s:7153   .debug_str:00000000000015fd .LASF71
C:\Users\stapi\AppData\Local\Temp\cc5Pki9b.s:6869   .debug_str:00000000000009c5 .LASF72
C:\Users\stapi\AppData\Local\Temp\cc5Pki9b.s:6735   .debug_str:0000000000000407 .LASF73
C:\Users\stapi\AppData\Local\Temp\cc5Pki9b.s:7221   .debug_str:0000000000001916 .LASF74
C:\Users\stapi\AppData\Local\Temp\cc5Pki9b.s:6959   .debug_str:0000000000000db2 .LASF75
C:\Users\stapi\AppData\Local\Temp\cc5Pki9b.s:6955   .debug_str:0000000000000d74 .LASF76
C:\Users\stapi\AppData\Local\Temp\cc5Pki9b.s:6857   .debug_str:0000000000000915 .LASF77
C:\Users\stapi\AppData\Local\Temp\cc5Pki9b.s:7197   .debug_str:000000000000184c .LASF78
C:\Users\stapi\AppData\Local\Temp\cc5Pki9b.s:7219   .debug_str:00000000000018f7 .LASF79
C:\Users\stapi\AppData\Local\Temp\cc5Pki9b.s:7199   .debug_str:0000000000001866 .LASF80
C:\Users\stapi\AppData\Local\Temp\cc5Pki9b.s:6827   .debug_str:00000000000007d7 .LASF81
C:\Users\stapi\AppData\Local\Temp\cc5Pki9b.s:7283   .debug_str:0000000000001c14 .LASF82
C:\Users\stapi\AppData\Local\Temp\cc5Pki9b.s:7281   .debug_str:0000000000001bf7 .LASF83
C:\Users\stapi\AppData\Local\Temp\cc5Pki9b.s:7247   .debug_str:0000000000001a6e .LASF84
C:\Users\stapi\AppData\Local\Temp\cc5Pki9b.s:7295   .debug_str:0000000000001c91 .LASF85
C:\Users\stapi\AppData\Local\Temp\cc5Pki9b.s:7051   .debug_str:0000000000001137 .LASF86
C:\Users\stapi\AppData\Local\Temp\cc5Pki9b.s:7055   .debug_str:000000000000116e .LASF87
C:\Users\stapi\AppData\Local\Temp\cc5Pki9b.s:6927   .debug_str:0000000000000c29 .LASF88
C:\Users\stapi\AppData\Local\Temp\cc5Pki9b.s:6679   .debug_str:00000000000000b1 .LASF89
C:\Users\stapi\AppData\Local\Temp\cc5Pki9b.s:7237   .debug_str:00000000000019f5 .LASF90
C:\Users\stapi\AppData\Local\Temp\cc5Pki9b.s:7099   .debug_str:00000000000013a5 .LASF91
C:\Users\stapi\AppData\Local\Temp\cc5Pki9b.s:6957   .debug_str:0000000000000d92 .LASF92
C:\Users\stapi\AppData\Local\Temp\cc5Pki9b.s:6953   .debug_str:0000000000000d55 .LASF93
C:\Users\stapi\AppData\Local\Temp\cc5Pki9b.s:7035   .debug_str:00000000000010c0 .LASF94
C:\Users\stapi\AppData\Local\Temp\cc5Pki9b.s:6717   .debug_str:000000000000032c .LASF95
C:\Users\stapi\AppData\Local\Temp\cc5Pki9b.s:7287   .debug_str:0000000000001c47 .LASF96
C:\Users\stapi\AppData\Local\Temp\cc5Pki9b.s:6785   .debug_str:00000000000005fe .LASF97
C:\Users\stapi\AppData\Local\Temp\cc5Pki9b.s:7085   .debug_str:000000000000128d .LASF98
C:\Users\stapi\AppData\Local\Temp\cc5Pki9b.s:7265   .debug_str:0000000000001b5a .LASF99
C:\Users\stapi\AppData\Local\Temp\cc5Pki9b.s:6697   .debug_str:000000000000022c .LASF100
C:\Users\stapi\AppData\Local\Temp\cc5Pki9b.s:7243   .debug_str:0000000000001a3f .LASF101
C:\Users\stapi\AppData\Local\Temp\cc5Pki9b.s:7291   .debug_str:0000000000001c6d .LASF102
C:\Users\stapi\AppData\Local\Temp\cc5Pki9b.s:6667   .debug_str:0000000000000045 .LASF103
C:\Users\stapi\AppData\Local\Temp\cc5Pki9b.s:7013   .debug_str:0000000000000fda .LASF104
C:\Users\stapi\AppData\Local\Temp\cc5Pki9b.s:6799   .debug_str:0000000000000695 .LASF105
C:\Users\stapi\AppData\Local\Temp\cc5Pki9b.s:7349   .debug_str:0000000000001ec6 .LASF106
C:\Users\stapi\AppData\Local\Temp\cc5Pki9b.s:6811   .debug_str:0000000000000721 .LASF107
C:\Users\stapi\AppData\Local\Temp\cc5Pki9b.s:7113   .debug_str:000000000000143f .LASF108
C:\Users\stapi\AppData\Local\Temp\cc5Pki9b.s:7331   .debug_str:0000000000001dfb .LASF109
C:\Users\stapi\AppData\Local\Temp\cc5Pki9b.s:7323   .debug_str:0000000000001d99 .LASF110
C:\Users\stapi\AppData\Local\Temp\cc5Pki9b.s:6789   .debug_str:0000000000000625 .LASF111
C:\Users\stapi\AppData\Local\Temp\cc5Pki9b.s:7053   .debug_str:0000000000001156 .LASF112
C:\Users\stapi\AppData\Local\Temp\cc5Pki9b.s:6947   .debug_str:0000000000000d11 .LASF113
C:\Users\stapi\AppData\Local\Temp\cc5Pki9b.s:6771   .debug_str:0000000000000561 .LASF114
C:\Users\stapi\AppData\Local\Temp\cc5Pki9b.s:6873   .debug_str:00000000000009f2 .LASF115
C:\Users\stapi\AppData\Local\Temp\cc5Pki9b.s:6753   .debug_str:00000000000004d5 .LASF116
C:\Users\stapi\AppData\Local\Temp\cc5Pki9b.s:6807   .debug_str:0000000000000704 .LASF117
C:\Users\stapi\AppData\Local\Temp\cc5Pki9b.s:7269   .debug_str:0000000000001b8b .LASF118
C:\Users\stapi\AppData\Local\Temp\cc5Pki9b.s:6713   .debug_str:00000000000002fb .LASF119
C:\Users\stapi\AppData\Local\Temp\cc5Pki9b.s:6663   .debug_str:0000000000000026 .LASF120
C:\Users\stapi\AppData\Local\Temp\cc5Pki9b.s:6821   .debug_str:00000000000007a1 .LASF121
C:\Users\stapi\AppData\Local\Temp\cc5Pki9b.s:7273   .debug_str:0000000000001bb0 .LASF122
C:\Users\stapi\AppData\Local\Temp\cc5Pki9b.s:6775   .debug_str:000000000000057e .LASF123
C:\Users\stapi\AppData\Local\Temp\cc5Pki9b.s:6941   .debug_str:0000000000000ccb .LASF124
C:\Users\stapi\AppData\Local\Temp\cc5Pki9b.s:6683   .debug_str:00000000000000de .LASF125
C:\Users\stapi\AppData\Local\Temp\cc5Pki9b.s:6817   .debug_str:000000000000077a .LASF126
C:\Users\stapi\AppData\Local\Temp\cc5Pki9b.s:7225   .debug_str:000000000000194c .LASF127
C:\Users\stapi\AppData\Local\Temp\cc5Pki9b.s:6917   .debug_str:0000000000000b8e .LASF128
C:\Users\stapi\AppData\Local\Temp\cc5Pki9b.s:7261   .debug_str:0000000000001b17 .LASF129
C:\Users\stapi\AppData\Local\Temp\cc5Pki9b.s:6887   .debug_str:0000000000000a75 .LASF130
C:\Users\stapi\AppData\Local\Temp\cc5Pki9b.s:7263   .debug_str:0000000000001b3f .LASF131
C:\Users\stapi\AppData\Local\Temp\cc5Pki9b.s:6935   .debug_str:0000000000000c85 .LASF132
C:\Users\stapi\AppData\Local\Temp\cc5Pki9b.s:6855   .debug_str:00000000000008f5 .LASF133
C:\Users\stapi\AppData\Local\Temp\cc5Pki9b.s:6749   .debug_str:00000000000004a3 .LASF134
C:\Users\stapi\AppData\Local\Temp\cc5Pki9b.s:7017   .debug_str:0000000000001004 .LASF135
C:\Users\stapi\AppData\Local\Temp\cc5Pki9b.s:7103   .debug_str:00000000000013c6 .LASF136
C:\Users\stapi\AppData\Local\Temp\cc5Pki9b.s:6901   .debug_str:0000000000000af5 .LASF137
C:\Users\stapi\AppData\Local\Temp\cc5Pki9b.s:7119   .debug_str:00000000000014ab .LASF138
C:\Users\stapi\AppData\Local\Temp\cc5Pki9b.s:6865   .debug_str:000000000000098d .LASF139
C:\Users\stapi\AppData\Local\Temp\cc5Pki9b.s:7093   .debug_str:000000000000135c .LASF140
C:\Users\stapi\AppData\Local\Temp\cc5Pki9b.s:6779   .debug_str:00000000000005b8 .LASF141
C:\Users\stapi\AppData\Local\Temp\cc5Pki9b.s:6759   .debug_str:000000000000050b .LASF142
C:\Users\stapi\AppData\Local\Temp\cc5Pki9b.s:6929   .debug_str:0000000000000c4a .LASF143
C:\Users\stapi\AppData\Local\Temp\cc5Pki9b.s:6983   .debug_str:0000000000000eca .LASF144
C:\Users\stapi\AppData\Local\Temp\cc5Pki9b.s:7267   .debug_str:0000000000001b74 .LASF145
C:\Users\stapi\AppData\Local\Temp\cc5Pki9b.s:7321   .debug_str:0000000000001d82 .LASF146
C:\Users\stapi\AppData\Local\Temp\cc5Pki9b.s:7039   .debug_str:00000000000010db .LASF147
C:\Users\stapi\AppData\Local\Temp\cc5Pki9b.s:6815   .debug_str:0000000000000759 .LASF148
C:\Users\stapi\AppData\Local\Temp\cc5Pki9b.s:6937   .debug_str:0000000000000ca6 .LASF149
C:\Users\stapi\AppData\Local\Temp\cc5Pki9b.s:7159   .debug_str:00000000000016ba .LASF150
C:\Users\stapi\AppData\Local\Temp\cc5Pki9b.s:6731   .debug_str:00000000000003bb .LASF151
C:\Users\stapi\AppData\Local\Temp\cc5Pki9b.s:7315   .debug_str:0000000000001d51 .LASF152
C:\Users\stapi\AppData\Local\Temp\cc5Pki9b.s:7233   .debug_str:00000000000019b3 .LASF153
C:\Users\stapi\AppData\Local\Temp\cc5Pki9b.s:6911   .debug_str:0000000000000b5e .LASF154
C:\Users\stapi\AppData\Local\Temp\cc5Pki9b.s:6839   .debug_str:0000000000000841 .LASF155
C:\Users\stapi\AppData\Local\Temp\cc5Pki9b.s:7259   .debug_str:0000000000001af3 .LASF156
C:\Users\stapi\AppData\Local\Temp\cc5Pki9b.s:6945   .debug_str:0000000000000cf0 .LASF157
C:\Users\stapi\AppData\Local\Temp\cc5Pki9b.s:7005   .debug_str:0000000000000f77 .LASF158
C:\Users\stapi\AppData\Local\Temp\cc5Pki9b.s:7031   .debug_str:0000000000001085 .LASF159
C:\Users\stapi\AppData\Local\Temp\cc5Pki9b.s:6721   .debug_str:000000000000034d .LASF160
C:\Users\stapi\AppData\Local\Temp\cc5Pki9b.s:7235   .debug_str:00000000000019d4 .LASF161
C:\Users\stapi\AppData\Local\Temp\cc5Pki9b.s:7343   .debug_str:0000000000001e97 .LASF162
C:\Users\stapi\AppData\Local\Temp\cc5Pki9b.s:6885   .debug_str:0000000000000a52 .LASF163
C:\Users\stapi\AppData\Local\Temp\cc5Pki9b.s:6961   .debug_str:0000000000000dd1 .LASF164
C:\Users\stapi\AppData\Local\Temp\cc5Pki9b.s:6707   .debug_str:000000000000029c .LASF165
C:\Users\stapi\AppData\Local\Temp\cc5Pki9b.s:7065   .debug_str:00000000000011be .LASF166
C:\Users\stapi\AppData\Local\Temp\cc5Pki9b.s:7129   .debug_str:0000000000001519 .LASF167
C:\Users\stapi\AppData\Local\Temp\cc5Pki9b.s:7339   .debug_str:0000000000001e5e .LASF168
C:\Users\stapi\AppData\Local\Temp\cc5Pki9b.s:7179   .debug_str:0000000000001782 .LASF169
C:\Users\stapi\AppData\Local\Temp\cc5Pki9b.s:6847   .debug_str:0000000000000891 .LASF170
C:\Users\stapi\AppData\Local\Temp\cc5Pki9b.s:6925   .debug_str:0000000000000c15 .LASF171
C:\Users\stapi\AppData\Local\Temp\cc5Pki9b.s:7201   .debug_str:000000000000187b .LASF172
C:\Users\stapi\AppData\Local\Temp\cc5Pki9b.s:7003   .debug_str:0000000000000f5b .LASF173
C:\Users\stapi\AppData\Local\Temp\cc5Pki9b.s:7079   .debug_str:0000000000001248 .LASF174
C:\Users\stapi\AppData\Local\Temp\cc5Pki9b.s:6921   .debug_str:0000000000000bd6 .LASF175
C:\Users\stapi\AppData\Local\Temp\cc5Pki9b.s:7151   .debug_str:00000000000015da .LASF176
C:\Users\stapi\AppData\Local\Temp\cc5Pki9b.s:7141   .debug_str:0000000000001580 .LASF177
C:\Users\stapi\AppData\Local\Temp\cc5Pki9b.s:7231   .debug_str:000000000000199b .LASF178
C:\Users\stapi\AppData\Local\Temp\cc5Pki9b.s:6813   .debug_str:000000000000073c .LASF179
C:\Users\stapi\AppData\Local\Temp\cc5Pki9b.s:6979   .debug_str:0000000000000e99 .LASF180
C:\Users\stapi\AppData\Local\Temp\cc5Pki9b.s:7253   .debug_str:0000000000001aa8 .LASF181
C:\Users\stapi\AppData\Local\Temp\cc5Pki9b.s:6933   .debug_str:0000000000000c67 .LASF182
C:\Users\stapi\AppData\Local\Temp\cc5Pki9b.s:7353   .debug_str:0000000000001ef2 .LASF183
C:\Users\stapi\AppData\Local\Temp\cc5Pki9b.s:6867   .debug_str:00000000000009a8 .LASF184
C:\Users\stapi\AppData\Local\Temp\cc5Pki9b.s:6693   .debug_str:0000000000000203 .LASF185
C:\Users\stapi\AppData\Local\Temp\cc5Pki9b.s:6991   .debug_str:0000000000000f24 .LASF186
C:\Users\stapi\AppData\Local\Temp\cc5Pki9b.s:6861   .debug_str:000000000000095c .LASF187
C:\Users\stapi\AppData\Local\Temp\cc5Pki9b.s:6825   .debug_str:00000000000007ca .LASF188
C:\Users\stapi\AppData\Local\Temp\cc5Pki9b.s:7327   .debug_str:0000000000001db5 .LASF189
C:\Users\stapi\AppData\Local\Temp\cc5Pki9b.s:7175   .debug_str:0000000000001745 .LASF190
C:\Users\stapi\AppData\Local\Temp\cc5Pki9b.s:6733   .debug_str:00000000000003da .LASF191
C:\Users\stapi\AppData\Local\Temp\cc5Pki9b.s:7329   .debug_str:0000000000001dc9 .LASF192
C:\Users\stapi\AppData\Local\Temp\cc5Pki9b.s:7173   .debug_str:0000000000001734 .LASF193
C:\Users\stapi\AppData\Local\Temp\cc5Pki9b.s:7069   .debug_str:00000000000011ea .LASF194
C:\Users\stapi\AppData\Local\Temp\cc5Pki9b.s:7011   .debug_str:0000000000000fc9 .LASF195
C:\Users\stapi\AppData\Local\Temp\cc5Pki9b.s:6715   .debug_str:000000000000031b .LASF196
C:\Users\stapi\AppData\Local\Temp\cc5Pki9b.s:6881   .debug_str:0000000000000a26 .LASF197
C:\Users\stapi\AppData\Local\Temp\cc5Pki9b.s:7305   .debug_str:0000000000001ce9 .LASF198
C:\Users\stapi\AppData\Local\Temp\cc5Pki9b.s:7075   .debug_str:0000000000001225 .LASF199
C:\Users\stapi\AppData\Local\Temp\cc5Pki9b.s:6967   .debug_str:0000000000000e1e .LASF200
C:\Users\stapi\AppData\Local\Temp\cc5Pki9b.s:7313   .debug_str:0000000000001d46 .LASF201
C:\Users\stapi\AppData\Local\Temp\cc5Pki9b.s:7191   .debug_str:0000000000001817 .LASF202
C:\Users\stapi\AppData\Local\Temp\cc5Pki9b.s:7319   .debug_str:0000000000001d71 .LASF203
C:\Users\stapi\AppData\Local\Temp\cc5Pki9b.s:7057   .debug_str:000000000000118c .LASF204
C:\Users\stapi\AppData\Local\Temp\cc5Pki9b.s:6989   .debug_str:0000000000000f15 .LASF205
C:\Users\stapi\AppData\Local\Temp\cc5Pki9b.s:7045   .debug_str:0000000000001113 .LASF206
C:\Users\stapi\AppData\Local\Temp\cc5Pki9b.s:6975   .debug_str:0000000000000e78 .LASF207
C:\Users\stapi\AppData\Local\Temp\cc5Pki9b.s:7187   .debug_str:00000000000017f9 .LASF208
C:\Users\stapi\AppData\Local\Temp\cc5Pki9b.s:7189   .debug_str:0000000000001808 .LASF209
C:\Users\stapi\AppData\Local\Temp\cc5Pki9b.s:7257   .debug_str:0000000000001ada .LASF210
C:\Users\stapi\AppData\Local\Temp\cc5Pki9b.s:6719   .debug_str:0000000000000343 .LASF211
C:\Users\stapi\AppData\Local\Temp\cc5Pki9b.s:7029   .debug_str:000000000000107e .LASF212
C:\Users\stapi\AppData\Local\Temp\cc5Pki9b.s:6765   .debug_str:0000000000000539 .LASF213
C:\Users\stapi\AppData\Local\Temp\cc5Pki9b.s:6993   .debug_str:0000000000000f31 .LASF214
C:\Users\stapi\AppData\Local\Temp\cc5Pki9b.s:6763   .debug_str:0000000000000532 .LASF215
C:\Users\stapi\AppData\Local\Temp\cc5Pki9b.s:7001   .debug_str:0000000000000f53 .LASF216
C:\Users\stapi\AppData\Local\Temp\cc5Pki9b.s:6863   .debug_str:0000000000000976 .LASF217
C:\Users\stapi\AppData\Local\Temp\cc5Pki9b.s:7073   .debug_str:0000000000001210 .LASF218
C:\Users\stapi\AppData\Local\Temp\cc5Pki9b.s:7227   .debug_str:000000000000196a .LASF219
C:\Users\stapi\AppData\Local\Temp\cc5Pki9b.s:6703   .debug_str:0000000000000271 .LASF220
C:\Users\stapi\AppData\Local\Temp\cc5Pki9b.s:7121   .debug_str:00000000000014c8 .LASF221
C:\Users\stapi\AppData\Local\Temp\cc5Pki9b.s:7255   .debug_str:0000000000001ac9 .LASF222
C:\Users\stapi\AppData\Local\Temp\cc5Pki9b.s:6745   .debug_str:0000000000000476 .LASF223
C:\Users\stapi\AppData\Local\Temp\cc5Pki9b.s:6987   .debug_str:0000000000000f02 .LASF224
C:\Users\stapi\AppData\Local\Temp\cc5Pki9b.s:6949   .debug_str:0000000000000d32 .LASF225
C:\Users\stapi\AppData\Local\Temp\cc5Pki9b.s:6743   .debug_str:000000000000046d .LASF226
C:\Users\stapi\AppData\Local\Temp\cc5Pki9b.s:6981   .debug_str:0000000000000ec1 .LASF227
C:\Users\stapi\AppData\Local\Temp\cc5Pki9b.s:7083   .debug_str:0000000000001286 .LASF228
C:\Users\stapi\AppData\Local\Temp\cc5Pki9b.s:6907   .debug_str:0000000000000b48 .LASF229
C:\Users\stapi\AppData\Local\Temp\cc5Pki9b.s:6871   .debug_str:00000000000009e1 .LASF230
C:\Users\stapi\AppData\Local\Temp\cc5Pki9b.s:6671   .debug_str:0000000000000070 .LASF231
C:\Users\stapi\AppData\Local\Temp\cc5Pki9b.s:6969   .debug_str:0000000000000e2f .LASF232
C:\Users\stapi\AppData\Local\Temp\cc5Pki9b.s:7171   .debug_str:0000000000001723 .LASF233
C:\Users\stapi\AppData\Local\Temp\cc5Pki9b.s:7245   .debug_str:0000000000001a58 .LASF234
C:\Users\stapi\AppData\Local\Temp\cc5Pki9b.s:6841   .debug_str:0000000000000864 .LASF251
C:\Users\stapi\AppData\Local\Temp\cc5Pki9b.s:7217   .debug_str:00000000000018f2 .LASF235
C:\Users\stapi\AppData\Local\Temp\cc5Pki9b.s:6845   .debug_str:0000000000000886 .LASF236
C:\Users\stapi\AppData\Local\Temp\cc5Pki9b.s:6751   .debug_str:00000000000004ca .LASF237
C:\Users\stapi\AppData\Local\Temp\cc5Pki9b.s:6675   .debug_str:0000000000000087 .LASF238
C:\Users\stapi\AppData\Local\Temp\cc5Pki9b.s:6997   .debug_str:0000000000000f43 .LASF239
C:\Users\stapi\AppData\Local\Temp\cc5Pki9b.s:6755   .debug_str:00000000000004f3 .LASF240
C:\Users\stapi\AppData\Local\Temp\cc5Pki9b.s:7095   .debug_str:000000000000137b .LASF241
C:\Users\stapi\AppData\Local\Temp\cc5Pki9b.s:6673   .debug_str:000000000000007b .LASF242
C:\Users\stapi\AppData\Local\Temp\cc5Pki9b.s:6781   .debug_str:00000000000005d5 .LASF243
C:\Users\stapi\AppData\Local\Temp\cc5Pki9b.s:6985   .debug_str:0000000000000ee1 .LASF244
C:\Users\stapi\AppData\Local\Temp\cc5Pki9b.s:6805   .debug_str:00000000000006e5 .LASF245
C:\Users\stapi\AppData\Local\Temp\cc5Pki9b.s:6971   .debug_str:0000000000000e42 .LASF246
C:\Users\stapi\AppData\Local\Temp\cc5Pki9b.s:6769   .debug_str:000000000000054d .LASF247
C:\Users\stapi\AppData\Local\Temp\cc5Pki9b.s:7169   .debug_str:000000000000171e .LASF248
C:\Users\stapi\AppData\Local\Temp\cc5Pki9b.s:6793   .debug_str:0000000000000658 .LASF249
C:\Users\stapi\AppData\Local\Temp\cc5Pki9b.s:7037   .debug_str:00000000000010d4 .LASF250
C:\Users\stapi\AppData\Local\Temp\cc5Pki9b.s:6819   .debug_str:0000000000000797 .LASF252
C:\Users\stapi\AppData\Local\Temp\cc5Pki9b.s:7347   .debug_str:0000000000001ec1 .LASF253
C:\Users\stapi\AppData\Local\Temp\cc5Pki9b.s:7101   .debug_str:00000000000013c1 .LASF254
C:\Users\stapi\AppData\Local\Temp\cc5Pki9b.s:7289   .debug_str:0000000000001c61 .LASF255
C:\Users\stapi\AppData\Local\Temp\cc5Pki9b.s:6809   .debug_str:000000000000071c .LASF256
C:\Users\stapi\AppData\Local\Temp\cc5Pki9b.s:6681   .debug_str:00000000000000d9 .LASF257
C:\Users\stapi\AppData\Local\Temp\cc5Pki9b.s:7297   .debug_str:0000000000001cb1 .LASF258
C:\Users\stapi\AppData\Local\Temp\cc5Pki9b.s:6931   .debug_str:0000000000000c61 .LASF259
C:\Users\stapi\AppData\Local\Temp\cc5Pki9b.s:7049   .debug_str:0000000000001130 .LASF260
C:\Users\stapi\AppData\Local\Temp\cc5Pki9b.s:7193   .debug_str:0000000000001829 .LASF261
C:\Users\stapi\AppData\Local\Temp\cc5Pki9b.s:7275   .debug_str:0000000000001bc8 .LASF262
C:\Users\stapi\AppData\Local\Temp\cc5Pki9b.s:7293   .debug_str:0000000000001c8b .LASF263
C:\Users\stapi\AppData\Local\Temp\cc5Pki9b.s:7077   .debug_str:000000000000123f .LASF264
C:\Users\stapi\AppData\Local\Temp\cc5Pki9b.s:6895   .debug_str:0000000000000abb .LASF265
C:\Users\stapi\AppData\Local\Temp\cc5Pki9b.s:6705   .debug_str:0000000000000280 .LASF266
C:\Users\stapi\AppData\Local\Temp\cc5Pki9b.s:6729   .debug_str:00000000000003a8 .LASF267
C:\Users\stapi\AppData\Local\Temp\cc5Pki9b.s:7137   .debug_str:000000000000156b .LASF268
C:\Users\stapi\AppData\Local\Temp\cc5Pki9b.s:7157   .debug_str:00000000000016b2 .LASF269
C:\Users\stapi\AppData\Local\Temp\cc5Pki9b.s:7007   .debug_str:0000000000000f99 .LASF270
C:\Users\stapi\AppData\Local\Temp\cc5Pki9b.s:7059   .debug_str:0000000000001198 .LASF271
C:\Users\stapi\AppData\Local\Temp\cc5Pki9b.s:6787   .debug_str:0000000000000617 .LASF272
C:\Users\stapi\AppData\Local\Temp\cc5Pki9b.s:6939   .debug_str:0000000000000cc0 .LASF273
C:\Users\stapi\AppData\Local\Temp\cc5Pki9b.s:7027   .debug_str:0000000000001072 .LASF274
C:\Users\stapi\AppData\Local\Temp\cc5Pki9b.s:7223   .debug_str:000000000000193a .LASF275
C:\Users\stapi\AppData\Local\Temp\cc5Pki9b.s:6757   .debug_str:00000000000004fc .LASF276
C:\Users\stapi\AppData\Local\Temp\cc5Pki9b.s:7163   .debug_str:00000000000016ed .LASF277
C:\Users\stapi\AppData\Local\Temp\cc5Pki9b.s:7043   .debug_str:000000000000110d .LASF278
C:\Users\stapi\AppData\Local\Temp\cc5Pki9b.s:7109   .debug_str:0000000000001423 .LASF279
C:\Users\stapi\AppData\Local\Temp\cc5Pki9b.s:7061   .debug_str:00000000000011a2 .LASF280
C:\Users\stapi\AppData\Local\Temp\cc5Pki9b.s:7341   .debug_str:0000000000001e79 .LASF284
C:\Users\stapi\AppData\Local\Temp\cc5Pki9b.s:1546   .text.iotx_ds_common_publish2update:0000000000000000 .LFB33
C:\Users\stapi\AppData\Local\Temp\cc5Pki9b.s:1638   .text.iotx_ds_common_publish2update:0000000000000080 .LFE33
C:\Users\stapi\AppData\Local\Temp\cc5Pki9b.s:7209   .debug_str:00000000000018bd .LASF281
C:\Users\stapi\AppData\Local\Temp\cc5Pki9b.s:5435   .debug_loc:0000000000000000 .LLST51
C:\Users\stapi\AppData\Local\Temp\cc5Pki9b.s:7335   .debug_str:0000000000001e35 .LASF282
C:\Users\stapi\AppData\Local\Temp\cc5Pki9b.s:5446   .debug_loc:000000000000001e .LLST52
C:\Users\stapi\AppData\Local\Temp\cc5Pki9b.s:6761   .debug_str:0000000000000529 .LASF283
C:\Users\stapi\AppData\Local\Temp\cc5Pki9b.s:5457   .debug_loc:000000000000003c .LLST53
C:\Users\stapi\AppData\Local\Temp\cc5Pki9b.s:7177   .debug_str:0000000000001778 .LASF287
C:\Users\stapi\AppData\Local\Temp\cc5Pki9b.s:7087   .debug_str:00000000000012a7 .LASF291
C:\Users\stapi\AppData\Local\Temp\cc5Pki9b.s:1583   .text.iotx_ds_common_publish2update:0000000000000040 .LVL192
C:\Users\stapi\AppData\Local\Temp\cc5Pki9b.s:1608   .text.iotx_ds_common_publish2update:000000000000005c .LVL193
C:\Users\stapi\AppData\Local\Temp\cc5Pki9b.s:1628   .text.iotx_ds_common_publish2update:0000000000000076 .LVL195
C:\Users\stapi\AppData\Local\Temp\cc5Pki9b.s:6899   .debug_str:0000000000000ad2 .LASF285
C:\Users\stapi\AppData\Local\Temp\cc5Pki9b.s:1397   .text.iotx_ds_common_generate_topic_name:0000000000000000 .LFB32
C:\Users\stapi\AppData\Local\Temp\cc5Pki9b.s:1532   .text.iotx_ds_common_generate_topic_name:00000000000000f2 .LFE32
C:\Users\stapi\AppData\Local\Temp\cc5Pki9b.s:5476   .debug_loc:0000000000000070 .LLST47
C:\Users\stapi\AppData\Local\Temp\cc5Pki9b.s:7195   .debug_str:0000000000001846 .LASF286
C:\Users\stapi\AppData\Local\Temp\cc5Pki9b.s:5490   .debug_loc:0000000000000091 .LLST48
C:\Users\stapi\AppData\Local\Temp\cc5Pki9b.s:5501   .debug_loc:00000000000000af .LLST49
C:\Users\stapi\AppData\Local\Temp\cc5Pki9b.s:7139   .debug_str:0000000000001575 .LASF288
C:\Users\stapi\AppData\Local\Temp\cc5Pki9b.s:5512   .debug_loc:00000000000000cd .LLST50
C:\Users\stapi\AppData\Local\Temp\cc5Pki9b.s:6891   .debug_str:0000000000000aa4 .LASF289
C:\Users\stapi\AppData\Local\Temp\cc5Pki9b.s:6837   .debug_str:0000000000000835 .LASF290
C:\Users\stapi\AppData\Local\Temp\cc5Pki9b.s:6699   .debug_str:000000000000024b .LASF292
C:\Users\stapi\AppData\Local\Temp\cc5Pki9b.s:1433   .text.iotx_ds_common_generate_topic_name:000000000000002a .LVL174
C:\Users\stapi\AppData\Local\Temp\cc5Pki9b.s:1441   .text.iotx_ds_common_generate_topic_name:000000000000003a .LVL175
C:\Users\stapi\AppData\Local\Temp\cc5Pki9b.s:1452   .text.iotx_ds_common_generate_topic_name:000000000000004e .LVL177
C:\Users\stapi\AppData\Local\Temp\cc5Pki9b.s:1457   .text.iotx_ds_common_generate_topic_name:000000000000005e .LVL178
C:\Users\stapi\AppData\Local\Temp\cc5Pki9b.s:1462   .text.iotx_ds_common_generate_topic_name:000000000000006e .LVL179
C:\Users\stapi\AppData\Local\Temp\cc5Pki9b.s:1482   .text.iotx_ds_common_generate_topic_name:0000000000000084 .LVL181
C:\Users\stapi\AppData\Local\Temp\cc5Pki9b.s:1486   .text.iotx_ds_common_generate_topic_name:000000000000008e .LVL182
C:\Users\stapi\AppData\Local\Temp\cc5Pki9b.s:1497   .text.iotx_ds_common_generate_topic_name:00000000000000aa .LVL183
C:\Users\stapi\AppData\Local\Temp\cc5Pki9b.s:1505   .text.iotx_ds_common_generate_topic_name:00000000000000b8 .LVL185
C:\Users\stapi\AppData\Local\Temp\cc5Pki9b.s:1529   .text.iotx_ds_common_generate_topic_name:00000000000000f0 .LVL189
C:\Users\stapi\AppData\Local\Temp\cc5Pki9b.s:6803   .debug_str:00000000000006c9 .LASF293
C:\Users\stapi\AppData\Local\Temp\cc5Pki9b.s:1144   .text.iotx_ds_common_get_tokennum:0000000000000000 .LFB31
C:\Users\stapi\AppData\Local\Temp\cc5Pki9b.s:1186   .text.iotx_ds_common_get_tokennum:0000000000000032 .LFE31
C:\Users\stapi\AppData\Local\Temp\cc5Pki9b.s:5532   .debug_loc:0000000000000102 .LLST39
C:\Users\stapi\AppData\Local\Temp\cc5Pki9b.s:5543   .debug_loc:0000000000000120 .LLST40
C:\Users\stapi\AppData\Local\Temp\cc5Pki9b.s:1161   .text.iotx_ds_common_get_tokennum:0000000000000014 .LVL142
C:\Users\stapi\AppData\Local\Temp\cc5Pki9b.s:1175   .text.iotx_ds_common_get_tokennum:0000000000000026 .LVL144
C:\Users\stapi\AppData\Local\Temp\cc5Pki9b.s:7033   .debug_str:00000000000010a5 .LASF294
C:\Users\stapi\AppData\Local\Temp\cc5Pki9b.s:1101   .text.iotx_ds_common_get_version:0000000000000000 .LFB30
C:\Users\stapi\AppData\Local\Temp\cc5Pki9b.s:1137   .text.iotx_ds_common_get_version:000000000000002a .LFE30
C:\Users\stapi\AppData\Local\Temp\cc5Pki9b.s:5556   .debug_loc:0000000000000140 .LLST38
C:\Users\stapi\AppData\Local\Temp\cc5Pki9b.s:1118   .text.iotx_ds_common_get_version:0000000000000014 .LVL137
C:\Users\stapi\AppData\Local\Temp\cc5Pki9b.s:1127   .text.iotx_ds_common_get_version:0000000000000020 .LVL139
C:\Users\stapi\AppData\Local\Temp\cc5Pki9b.s:6711   .debug_str:00000000000002dd .LASF295
C:\Users\stapi\AppData\Local\Temp\cc5Pki9b.s:1001   .text.iotx_ds_common_update_version:0000000000000000 .LFB29
C:\Users\stapi\AppData\Local\Temp\cc5Pki9b.s:1094   .text.iotx_ds_common_update_version:0000000000000092 .LFE29
C:\Users\stapi\AppData\Local\Temp\cc5Pki9b.s:5567   .debug_loc:000000000000015e .LLST35
C:\Users\stapi\AppData\Local\Temp\cc5Pki9b.s:5578   .debug_loc:000000000000017c .LLST36
C:\Users\stapi\AppData\Local\Temp\cc5Pki9b.s:5607   .debug_loc:00000000000001c1 .LLST37
C:\Users\stapi\AppData\Local\Temp\cc5Pki9b.s:1024   .text.iotx_ds_common_update_version:000000000000001a .LVL124
C:\Users\stapi\AppData\Local\Temp\cc5Pki9b.s:1040   .text.iotx_ds_common_update_version:0000000000000034 .LVL125
C:\Users\stapi\AppData\Local\Temp\cc5Pki9b.s:1045   .text.iotx_ds_common_update_version:0000000000000044 .LVL126
C:\Users\stapi\AppData\Local\Temp\cc5Pki9b.s:1049   .text.iotx_ds_common_update_version:0000000000000050 .LVL127
C:\Users\stapi\AppData\Local\Temp\cc5Pki9b.s:1059   .text.iotx_ds_common_update_version:000000000000005c .LVL129
C:\Users\stapi\AppData\Local\Temp\cc5Pki9b.s:1077   .text.iotx_ds_common_update_version:0000000000000072 .LVL131
C:\Users\stapi\AppData\Local\Temp\cc5Pki9b.s:1082   .text.iotx_ds_common_update_version:0000000000000082 .LVL132
C:\Users\stapi\AppData\Local\Temp\cc5Pki9b.s:1086   .text.iotx_ds_common_update_version:000000000000008e .LVL133
C:\Users\stapi\AppData\Local\Temp\cc5Pki9b.s:7009   .debug_str:0000000000000fae .LASF296
C:\Users\stapi\AppData\Local\Temp\cc5Pki9b.s:898    .text.iotx_ds_common_remove_attr:0000000000000000 .LFB28
C:\Users\stapi\AppData\Local\Temp\cc5Pki9b.s:987    .text.iotx_ds_common_remove_attr:0000000000000084 .LFE28
C:\Users\stapi\AppData\Local\Temp\cc5Pki9b.s:5631   .debug_loc:00000000000001fa .LLST31
C:\Users\stapi\AppData\Local\Temp\cc5Pki9b.s:6999   .debug_str:0000000000000f4d .LASF297
C:\Users\stapi\AppData\Local\Temp\cc5Pki9b.s:5642   .debug_loc:0000000000000218 .LLST32
C:\Users\stapi\AppData\Local\Temp\cc5Pki9b.s:5664   .debug_loc:000000000000024f .LLST33
C:\Users\stapi\AppData\Local\Temp\cc5Pki9b.s:6915   .debug_str:0000000000000b89 .LASF298
C:\Users\stapi\AppData\Local\Temp\cc5Pki9b.s:5687   .debug_loc:0000000000000288 .LLST34
C:\Users\stapi\AppData\Local\Temp\cc5Pki9b.s:923    .text.iotx_ds_common_remove_attr:0000000000000018 .LVL108
C:\Users\stapi\AppData\Local\Temp\cc5Pki9b.s:929    .text.iotx_ds_common_remove_attr:0000000000000026 .LVL109
C:\Users\stapi\AppData\Local\Temp\cc5Pki9b.s:941    .text.iotx_ds_common_remove_attr:0000000000000038 .LVL112
C:\Users\stapi\AppData\Local\Temp\cc5Pki9b.s:946    .text.iotx_ds_common_remove_attr:0000000000000048 .LVL113
C:\Users\stapi\AppData\Local\Temp\cc5Pki9b.s:951    .text.iotx_ds_common_remove_attr:0000000000000058 .LVL114
C:\Users\stapi\AppData\Local\Temp\cc5Pki9b.s:960    .text.iotx_ds_common_remove_attr:0000000000000066 .LVL116
C:\Users\stapi\AppData\Local\Temp\cc5Pki9b.s:984    .text.iotx_ds_common_remove_attr:0000000000000082 .LVL120
C:\Users\stapi\AppData\Local\Temp\cc5Pki9b.s:6701   .debug_str:0000000000000254 .LASF299
C:\Users\stapi\AppData\Local\Temp\cc5Pki9b.s:816    .text.iotx_ds_common_register_attr:0000000000000000 .LFB27
C:\Users\stapi\AppData\Local\Temp\cc5Pki9b.s:887    .text.iotx_ds_common_register_attr:0000000000000078 .LFE27
C:\Users\stapi\AppData\Local\Temp\cc5Pki9b.s:5702   .debug_loc:00000000000002b1 .LLST29
C:\Users\stapi\AppData\Local\Temp\cc5Pki9b.s:5713   .debug_loc:00000000000002cf .LLST30
C:\Users\stapi\AppData\Local\Temp\cc5Pki9b.s:838    .text.iotx_ds_common_register_attr:0000000000000018 .LVL100
C:\Users\stapi\AppData\Local\Temp\cc5Pki9b.s:846    .text.iotx_ds_common_register_attr:0000000000000026 .LVL101
C:\Users\stapi\AppData\Local\Temp\cc5Pki9b.s:851    .text.iotx_ds_common_register_attr:0000000000000034 .LVL102
C:\Users\stapi\AppData\Local\Temp\cc5Pki9b.s:863    .text.iotx_ds_common_register_attr:000000000000005c .LVL103
C:\Users\stapi\AppData\Local\Temp\cc5Pki9b.s:867    .text.iotx_ds_common_register_attr:0000000000000066 .LVL104
C:\Users\stapi\AppData\Local\Temp\cc5Pki9b.s:7337   .debug_str:0000000000001e3a .LASF300
C:\Users\stapi\AppData\Local\Temp\cc5Pki9b.s:754    .text.iotx_ds_common_check_attr_existence:0000000000000000 .LFB26
C:\Users\stapi\AppData\Local\Temp\cc5Pki9b.s:802    .text.iotx_ds_common_check_attr_existence:0000000000000040 .LFE26
C:\Users\stapi\AppData\Local\Temp\cc5Pki9b.s:5724   .debug_loc:00000000000002ed .LLST27
C:\Users\stapi\AppData\Local\Temp\cc5Pki9b.s:5735   .debug_loc:000000000000030b .LLST28
C:\Users\stapi\AppData\Local\Temp\cc5Pki9b.s:777    .text.iotx_ds_common_check_attr_existence:0000000000000018 .LVL93
C:\Users\stapi\AppData\Local\Temp\cc5Pki9b.s:783    .text.iotx_ds_common_check_attr_existence:0000000000000026 .LVL94
C:\Users\stapi\AppData\Local\Temp\cc5Pki9b.s:789    .text.iotx_ds_common_check_attr_existence:0000000000000032 .LVL96
C:\Users\stapi\AppData\Local\Temp\cc5Pki9b.s:7333   .debug_str:0000000000001e1a .LASF301
C:\Users\stapi\AppData\Local\Temp\cc5Pki9b.s:650    .text.iotx_ds_common_update_time:0000000000000000 .LFB25
C:\Users\stapi\AppData\Local\Temp\cc5Pki9b.s:747    .text.iotx_ds_common_update_time:000000000000009a .LFE25
C:\Users\stapi\AppData\Local\Temp\cc5Pki9b.s:5752   .debug_loc:0000000000000336 .LLST24
C:\Users\stapi\AppData\Local\Temp\cc5Pki9b.s:6823   .debug_str:00000000000007bc .LASF302
C:\Users\stapi\AppData\Local\Temp\cc5Pki9b.s:5763   .debug_loc:0000000000000354 .LLST25
C:\Users\stapi\AppData\Local\Temp\cc5Pki9b.s:5792   .debug_loc:0000000000000399 .LLST26
C:\Users\stapi\AppData\Local\Temp\cc5Pki9b.s:673    .text.iotx_ds_common_update_time:000000000000001a .LVL79
C:\Users\stapi\AppData\Local\Temp\cc5Pki9b.s:677    .text.iotx_ds_common_update_time:0000000000000022 .LVL80
C:\Users\stapi\AppData\Local\Temp\cc5Pki9b.s:694    .text.iotx_ds_common_update_time:000000000000003c .LVL81
C:\Users\stapi\AppData\Local\Temp\cc5Pki9b.s:699    .text.iotx_ds_common_update_time:000000000000004c .LVL82
C:\Users\stapi\AppData\Local\Temp\cc5Pki9b.s:703    .text.iotx_ds_common_update_time:0000000000000058 .LVL83
C:\Users\stapi\AppData\Local\Temp\cc5Pki9b.s:713    .text.iotx_ds_common_update_time:0000000000000064 .LVL85
C:\Users\stapi\AppData\Local\Temp\cc5Pki9b.s:732    .text.iotx_ds_common_update_time:000000000000007a .LVL87
C:\Users\stapi\AppData\Local\Temp\cc5Pki9b.s:737    .text.iotx_ds_common_update_time:000000000000008a .LVL88
C:\Users\stapi\AppData\Local\Temp\cc5Pki9b.s:741    .text.iotx_ds_common_update_time:0000000000000096 .LVL89
C:\Users\stapi\AppData\Local\Temp\cc5Pki9b.s:7105   .debug_str:00000000000013e6 .LASF303
C:\Users\stapi\AppData\Local\Temp\cc5Pki9b.s:492    .text.iotx_ds_common_convert_string2data:0000000000000000 .LFB24
C:\Users\stapi\AppData\Local\Temp\cc5Pki9b.s:633    .text.iotx_ds_common_convert_string2data:00000000000000ca .LFE24
C:\Users\stapi\AppData\Local\Temp\cc5Pki9b.s:5810   .debug_loc:00000000000003c5 .LLST20
C:\Users\stapi\AppData\Local\Temp\cc5Pki9b.s:7299   .debug_str:0000000000001cb6 .LASF304
C:\Users\stapi\AppData\Local\Temp\cc5Pki9b.s:5832   .debug_loc:00000000000003fc .LLST21
C:\Users\stapi\AppData\Local\Temp\cc5Pki9b.s:6737   .debug_str:0000000000000426 .LASF305
C:\Users\stapi\AppData\Local\Temp\cc5Pki9b.s:5876   .debug_loc:0000000000000465 .LLST22
C:\Users\stapi\AppData\Local\Temp\cc5Pki9b.s:6995   .debug_str:0000000000000f3d .LASF306
C:\Users\stapi\AppData\Local\Temp\cc5Pki9b.s:5918   .debug_loc:00000000000004d3 .LLST23
C:\Users\stapi\AppData\Local\Temp\cc5Pki9b.s:528    .text.iotx_ds_common_convert_string2data:000000000000002e .LVL60
C:\Users\stapi\AppData\Local\Temp\cc5Pki9b.s:553    .text.iotx_ds_common_convert_string2data:000000000000004e .LVL63
C:\Users\stapi\AppData\Local\Temp\cc5Pki9b.s:571    .text.iotx_ds_common_convert_string2data:000000000000006a .LVL64
C:\Users\stapi\AppData\Local\Temp\cc5Pki9b.s:578    .text.iotx_ds_common_convert_string2data:0000000000000076 .LVL65
C:\Users\stapi\AppData\Local\Temp\cc5Pki9b.s:595    .text.iotx_ds_common_convert_string2data:000000000000008e .LVL69
C:\Users\stapi\AppData\Local\Temp\cc5Pki9b.s:604    .text.iotx_ds_common_convert_string2data:00000000000000a0 .LVL71
C:\Users\stapi\AppData\Local\Temp\cc5Pki9b.s:609    .text.iotx_ds_common_convert_string2data:00000000000000b0 .LVL72
C:\Users\stapi\AppData\Local\Temp\cc5Pki9b.s:614    .text.iotx_ds_common_convert_string2data:00000000000000c0 .LVL73
C:\Users\stapi\AppData\Local\Temp\cc5Pki9b.s:6739   .debug_str:000000000000042b .LASF307
C:\Users\stapi\AppData\Local\Temp\cc5Pki9b.s:196    .text.iotx_ds_common_convert_data2string:0000000000000000 .LFB23
C:\Users\stapi\AppData\Local\Temp\cc5Pki9b.s:315    .text.iotx_ds_common_convert_data2string:000000000000009c .LFE23
C:\Users\stapi\AppData\Local\Temp\cc5Pki9b.s:5944   .debug_loc:0000000000000515 .LLST8
C:\Users\stapi\AppData\Local\Temp\cc5Pki9b.s:5980   .debug_loc:0000000000000568 .LLST9
C:\Users\stapi\AppData\Local\Temp\cc5Pki9b.s:5999   .debug_loc:000000000000059c .LLST10
C:\Users\stapi\AppData\Local\Temp\cc5Pki9b.s:7325   .debug_str:0000000000001daf .LASF308
C:\Users\stapi\AppData\Local\Temp\cc5Pki9b.s:6046   .debug_loc:0000000000000608 .LLST11
C:\Users\stapi\AppData\Local\Temp\cc5Pki9b.s:6082   .debug_loc:000000000000065b .LLST12
C:\Users\stapi\AppData\Local\Temp\cc5Pki9b.s:232    .text.iotx_ds_common_convert_data2string:000000000000002c .LVL22
C:\Users\stapi\AppData\Local\Temp\cc5Pki9b.s:296    .text.iotx_ds_common_convert_data2string:0000000000000078 .LVL34
C:\Users\stapi\AppData\Local\Temp\cc5Pki9b.s:301    .text.iotx_ds_common_convert_data2string:0000000000000088 .LVL35
C:\Users\stapi\AppData\Local\Temp\cc5Pki9b.s:306    .text.iotx_ds_common_convert_data2string:0000000000000098 .LVL36
C:\Users\stapi\AppData\Local\Temp\cc5Pki9b.s:7161   .debug_str:00000000000016ce .LASF309
C:\Users\stapi\AppData\Local\Temp\cc5Pki9b.s:1200   .text.iotx_ds_common_format_finalize:0000000000000000 .LFB22
C:\Users\stapi\AppData\Local\Temp\cc5Pki9b.s:1374   .text.iotx_ds_common_format_finalize:00000000000000f0 .LFE22
C:\Users\stapi\AppData\Local\Temp\cc5Pki9b.s:6101   .debug_loc:0000000000000688 .LLST41
C:\Users\stapi\AppData\Local\Temp\cc5Pki9b.s:6943   .debug_str:0000000000000ce8 .LASF310
C:\Users\stapi\AppData\Local\Temp\cc5Pki9b.s:6128   .debug_loc:00000000000006d2 .LLST42
C:\Users\stapi\AppData\Local\Temp\cc5Pki9b.s:6727   .debug_str:000000000000039f .LASF311
C:\Users\stapi\AppData\Local\Temp\cc5Pki9b.s:6139   .debug_loc:00000000000006f0 .LLST43
C:\Users\stapi\AppData\Local\Temp\cc5Pki9b.s:7207   .debug_str:00000000000018b3 .LASF312
C:\Users\stapi\AppData\Local\Temp\cc5Pki9b.s:6179   .debug_loc:000000000000074e .LLST44
C:\Users\stapi\AppData\Local\Temp\cc5Pki9b.s:6190   .debug_loc:000000000000076c .LLST45
C:\Users\stapi\AppData\Local\Temp\cc5Pki9b.s:7147   .debug_str:00000000000015bd .LASF313
C:\Users\stapi\AppData\Local\Temp\cc5Pki9b.s:7285   .debug_str:0000000000001c37 .LASF314
C:\Users\stapi\AppData\Local\Temp\cc5Pki9b.s:6213   .debug_loc:00000000000007ab .LLST46
C:\Users\stapi\AppData\Local\Temp\cc5Pki9b.s:1233   .text.iotx_ds_common_format_finalize:0000000000000024 .LVL150
C:\Users\stapi\AppData\Local\Temp\cc5Pki9b.s:1255   .text.iotx_ds_common_format_finalize:000000000000004a .LVL151
C:\Users\stapi\AppData\Local\Temp\cc5Pki9b.s:1301   .text.iotx_ds_common_format_finalize:0000000000000074 .LVL159
C:\Users\stapi\AppData\Local\Temp\cc5Pki9b.s:1324   .text.iotx_ds_common_format_finalize:0000000000000094 .LVL163
C:\Users\stapi\AppData\Local\Temp\cc5Pki9b.s:1329   .text.iotx_ds_common_format_finalize:00000000000000a0 .LVL164
C:\Users\stapi\AppData\Local\Temp\cc5Pki9b.s:1339   .text.iotx_ds_common_format_finalize:00000000000000bc .LVL165
C:\Users\stapi\AppData\Local\Temp\cc5Pki9b.s:1363   .text.iotx_ds_common_format_finalize:00000000000000d6 .LVL168
C:\Users\stapi\AppData\Local\Temp\cc5Pki9b.s:1371   .text.iotx_ds_common_format_finalize:00000000000000ee .LVL169
C:\Users\stapi\AppData\Local\Temp\cc5Pki9b.s:6791   .debug_str:000000000000063e .LASF315
C:\Users\stapi\AppData\Local\Temp\cc5Pki9b.s:326    .text.iotx_ds_common_format_add:0000000000000000 .LFB21
C:\Users\stapi\AppData\Local\Temp\cc5Pki9b.s:475    .text.iotx_ds_common_format_add:000000000000009e .LFE21
C:\Users\stapi\AppData\Local\Temp\cc5Pki9b.s:6266   .debug_loc:0000000000000801 .LLST13
C:\Users\stapi\AppData\Local\Temp\cc5Pki9b.s:6295   .debug_loc:0000000000000846 .LLST14
C:\Users\stapi\AppData\Local\Temp\cc5Pki9b.s:7203   .debug_str:00000000000018a1 .LASF316
C:\Users\stapi\AppData\Local\Temp\cc5Pki9b.s:6306   .debug_loc:0000000000000864 .LLST15
C:\Users\stapi\AppData\Local\Temp\cc5Pki9b.s:6913   .debug_str:0000000000000b82 .LASF317
C:\Users\stapi\AppData\Local\Temp\cc5Pki9b.s:6339   .debug_loc:00000000000008b4 .LLST16
C:\Users\stapi\AppData\Local\Temp\cc5Pki9b.s:7135   .debug_str:0000000000001562 .LASF318
C:\Users\stapi\AppData\Local\Temp\cc5Pki9b.s:6358   .debug_loc:00000000000008e8 .LLST17
C:\Users\stapi\AppData\Local\Temp\cc5Pki9b.s:6377   .debug_loc:000000000000091c .LLST18
C:\Users\stapi\AppData\Local\Temp\cc5Pki9b.s:6392   .debug_loc:0000000000000945 .LLST19
C:\Users\stapi\AppData\Local\Temp\cc5Pki9b.s:374    .text.iotx_ds_common_format_add:0000000000000034 .LVL43
C:\Users\stapi\AppData\Local\Temp\cc5Pki9b.s:409    .text.iotx_ds_common_format_add:000000000000005c .LVL49
C:\Users\stapi\AppData\Local\Temp\cc5Pki9b.s:7165   .debug_str:00000000000016f2 .LASF319
C:\Users\stapi\AppData\Local\Temp\cc5Pki9b.s:24     .text.iotx_ds_common_format_init:0000000000000000 .LFB20
C:\Users\stapi\AppData\Local\Temp\cc5Pki9b.s:167    .text.iotx_ds_common_format_init:000000000000009e .LFE20
C:\Users\stapi\AppData\Local\Temp\cc5Pki9b.s:6432   .debug_loc:0000000000000995 .LLST0
C:\Users\stapi\AppData\Local\Temp\cc5Pki9b.s:6446   .debug_loc:00000000000009b6 .LLST1
C:\Users\stapi\AppData\Local\Temp\cc5Pki9b.s:6457   .debug_loc:00000000000009d4 .LLST2
C:\Users\stapi\AppData\Local\Temp\cc5Pki9b.s:7125   .debug_str:00000000000014fd .LASF320
C:\Users\stapi\AppData\Local\Temp\cc5Pki9b.s:6468   .debug_loc:00000000000009f2 .LLST3
C:\Users\stapi\AppData\Local\Temp\cc5Pki9b.s:6951   .debug_str:0000000000000d4e .LASF321
C:\Users\stapi\AppData\Local\Temp\cc5Pki9b.s:6482   .debug_loc:0000000000000a13 .LLST4
C:\Users\stapi\AppData\Local\Temp\cc5Pki9b.s:7345   .debug_str:0000000000001eb8 .LASF322
C:\Users\stapi\AppData\Local\Temp\cc5Pki9b.s:6504   .debug_loc:0000000000000a4a .LLST5
C:\Users\stapi\AppData\Local\Temp\cc5Pki9b.s:6515   .debug_loc:0000000000000a68 .LLST6
C:\Users\stapi\AppData\Local\Temp\cc5Pki9b.s:6539   .debug_loc:0000000000000aa8 .LLST7
C:\Users\stapi\AppData\Local\Temp\cc5Pki9b.s:58     .text.iotx_ds_common_format_init:0000000000000022 .LVL4
C:\Users\stapi\AppData\Local\Temp\cc5Pki9b.s:83     .text.iotx_ds_common_format_init:000000000000004c .LVL6
C:\Users\stapi\AppData\Local\Temp\cc5Pki9b.s:143    .text.iotx_ds_common_format_init:0000000000000088 .LVL17
C:\Users\stapi\AppData\Local\Temp\cc5Pki9b.s:6695   .debug_str:0000000000000220 .LASF323
C:\Users\stapi\AppData\Local\Temp\cc5Pki9b.s:7111   .debug_str:000000000000142e .LASF324
C:\Users\stapi\AppData\Local\Temp\cc5Pki9b.s:6879   .debug_str:0000000000000a1f .LASF340
C:\Users\stapi\AppData\Local\Temp\cc5Pki9b.s:6797   .debug_str:0000000000000684 .LASF342
C:\Users\stapi\AppData\Local\Temp\cc5Pki9b.s:6963   .debug_str:0000000000000df2 .LASF325
C:\Users\stapi\AppData\Local\Temp\cc5Pki9b.s:7215   .debug_str:00000000000018e7 .LASF326
C:\Users\stapi\AppData\Local\Temp\cc5Pki9b.s:6685   .debug_str:00000000000000f4 .LASF327
C:\Users\stapi\AppData\Local\Temp\cc5Pki9b.s:6725   .debug_str:000000000000038d .LASF328
C:\Users\stapi\AppData\Local\Temp\cc5Pki9b.s:7205   .debug_str:00000000000018a6 .LASF329
C:\Users\stapi\AppData\Local\Temp\cc5Pki9b.s:6849   .debug_str:00000000000008b0 .LASF330
C:\Users\stapi\AppData\Local\Temp\cc5Pki9b.s:7355   .debug_str:0000000000001f18 .LASF331
C:\Users\stapi\AppData\Local\Temp\cc5Pki9b.s:7239   .debug_str:0000000000001a11 .LASF332
C:\Users\stapi\AppData\Local\Temp\cc5Pki9b.s:6875   .debug_str:0000000000000a10 .LASF333
C:\Users\stapi\AppData\Local\Temp\cc5Pki9b.s:7067   .debug_str:00000000000011de .LASF334
C:\Users\stapi\AppData\Local\Temp\cc5Pki9b.s:6687   .debug_str:0000000000000106 .LASF335
C:\Users\stapi\AppData\Local\Temp\cc5Pki9b.s:7351   .debug_str:0000000000001ee7 .LASF336
C:\Users\stapi\AppData\Local\Temp\cc5Pki9b.s:7047   .debug_str:000000000000111e .LASF337
C:\Users\stapi\AppData\Local\Temp\cc5Pki9b.s:6909   .debug_str:0000000000000b57 .LASF338
C:\Users\stapi\AppData\Local\Temp\cc5Pki9b.s:6773   .debug_str:0000000000000579 .LASF339
C:\Users\stapi\AppData\Local\Temp\cc5Pki9b.s:7249   .debug_str:0000000000001a91 .LASF341
C:\Users\stapi\AppData\Local\Temp\cc5Pki9b.s:6897   .debug_str:0000000000000ac1 .LASF343
C:\Users\stapi\AppData\Local\Temp\cc5Pki9b.s:7251   .debug_str:0000000000001a98 .LASF344
C:\Users\stapi\AppData\Local\Temp\cc5Pki9b.s:1549   .text.iotx_ds_common_publish2update:0000000000000000 .LVL190
C:\Users\stapi\AppData\Local\Temp\cc5Pki9b.s:1569   .text.iotx_ds_common_publish2update:0000000000000016 .LVL191
C:\Users\stapi\AppData\Local\Temp\cc5Pki9b.s:1620   .text.iotx_ds_common_publish2update:0000000000000066 .LVL194
C:\Users\stapi\AppData\Local\Temp\cc5Pki9b.s:1400   .text.iotx_ds_common_generate_topic_name:0000000000000000 .LVL170
C:\Users\stapi\AppData\Local\Temp\cc5Pki9b.s:1419   .text.iotx_ds_common_generate_topic_name:0000000000000010 .LVL172
C:\Users\stapi\AppData\Local\Temp\cc5Pki9b.s:1421   .text.iotx_ds_common_generate_topic_name:0000000000000012 .LVL173
C:\Users\stapi\AppData\Local\Temp\cc5Pki9b.s:1503   .text.iotx_ds_common_generate_topic_name:00000000000000b0 .LVL184
C:\Users\stapi\AppData\Local\Temp\cc5Pki9b.s:1511   .text.iotx_ds_common_generate_topic_name:00000000000000bc .LVL187
C:\Users\stapi\AppData\Local\Temp\cc5Pki9b.s:1522   .text.iotx_ds_common_generate_topic_name:00000000000000d4 .LVL188
C:\Users\stapi\AppData\Local\Temp\cc5Pki9b.s:1408   .text.iotx_ds_common_generate_topic_name:0000000000000008 .LVL171
C:\Users\stapi\AppData\Local\Temp\cc5Pki9b.s:1443   .text.iotx_ds_common_generate_topic_name:000000000000003c .LVL176
C:\Users\stapi\AppData\Local\Temp\cc5Pki9b.s:1476   .text.iotx_ds_common_generate_topic_name:000000000000007a .LVL180
C:\Users\stapi\AppData\Local\Temp\cc5Pki9b.s:1509   .text.iotx_ds_common_generate_topic_name:00000000000000ba .LVL186
C:\Users\stapi\AppData\Local\Temp\cc5Pki9b.s:1147   .text.iotx_ds_common_get_tokennum:0000000000000000 .LVL140
C:\Users\stapi\AppData\Local\Temp\cc5Pki9b.s:1159   .text.iotx_ds_common_get_tokennum:000000000000000c .LVL141
C:\Users\stapi\AppData\Local\Temp\cc5Pki9b.s:1166   .text.iotx_ds_common_get_tokennum:0000000000000016 .LVL143
C:\Users\stapi\AppData\Local\Temp\cc5Pki9b.s:1179   .text.iotx_ds_common_get_tokennum:000000000000002a .LVL145
C:\Users\stapi\AppData\Local\Temp\cc5Pki9b.s:1104   .text.iotx_ds_common_get_version:0000000000000000 .LVL135
C:\Users\stapi\AppData\Local\Temp\cc5Pki9b.s:1116   .text.iotx_ds_common_get_version:000000000000000c .LVL136
C:\Users\stapi\AppData\Local\Temp\cc5Pki9b.s:1004   .text.iotx_ds_common_update_version:0000000000000000 .LVL121
C:\Users\stapi\AppData\Local\Temp\cc5Pki9b.s:1018   .text.iotx_ds_common_update_version:000000000000000c .LVL123
C:\Users\stapi\AppData\Local\Temp\cc5Pki9b.s:1054   .text.iotx_ds_common_update_version:0000000000000052 .LVL128
C:\Users\stapi\AppData\Local\Temp\cc5Pki9b.s:1070   .text.iotx_ds_common_update_version:0000000000000066 .LVL130
C:\Users\stapi\AppData\Local\Temp\cc5Pki9b.s:1091   .text.iotx_ds_common_update_version:0000000000000090 .LVL134
C:\Users\stapi\AppData\Local\Temp\cc5Pki9b.s:1012   .text.iotx_ds_common_update_version:0000000000000008 .LVL122
C:\Users\stapi\AppData\Local\Temp\cc5Pki9b.s:901    .text.iotx_ds_common_remove_attr:0000000000000000 .LVL105
C:\Users\stapi\AppData\Local\Temp\cc5Pki9b.s:915    .text.iotx_ds_common_remove_attr:000000000000000c .LVL107
C:\Users\stapi\AppData\Local\Temp\cc5Pki9b.s:967    .text.iotx_ds_common_remove_attr:000000000000006a .LVL117
C:\Users\stapi\AppData\Local\Temp\cc5Pki9b.s:973    .text.iotx_ds_common_remove_attr:0000000000000072 .LVL118
C:\Users\stapi\AppData\Local\Temp\cc5Pki9b.s:908    .text.iotx_ds_common_remove_attr:0000000000000008 .LVL106
C:\Users\stapi\AppData\Local\Temp\cc5Pki9b.s:934    .text.iotx_ds_common_remove_attr:0000000000000028 .LVL110
C:\Users\stapi\AppData\Local\Temp\cc5Pki9b.s:955    .text.iotx_ds_common_remove_attr:000000000000005c .LVL115
C:\Users\stapi\AppData\Local\Temp\cc5Pki9b.s:938    .text.iotx_ds_common_remove_attr:000000000000002c .LVL111
C:\Users\stapi\AppData\Local\Temp\cc5Pki9b.s:979    .text.iotx_ds_common_remove_attr:0000000000000078 .LVL119
C:\Users\stapi\AppData\Local\Temp\cc5Pki9b.s:819    .text.iotx_ds_common_register_attr:0000000000000000 .LVL98
C:\Users\stapi\AppData\Local\Temp\cc5Pki9b.s:833    .text.iotx_ds_common_register_attr:000000000000000e .LVL99
C:\Users\stapi\AppData\Local\Temp\cc5Pki9b.s:757    .text.iotx_ds_common_check_attr_existence:0000000000000000 .LVL91
C:\Users\stapi\AppData\Local\Temp\cc5Pki9b.s:769    .text.iotx_ds_common_check_attr_existence:000000000000000c .LVL92
C:\Users\stapi\AppData\Local\Temp\cc5Pki9b.s:795    .text.iotx_ds_common_check_attr_existence:0000000000000038 .LVL97
C:\Users\stapi\AppData\Local\Temp\cc5Pki9b.s:653    .text.iotx_ds_common_update_time:0000000000000000 .LVL76
C:\Users\stapi\AppData\Local\Temp\cc5Pki9b.s:667    .text.iotx_ds_common_update_time:000000000000000c .LVL78
C:\Users\stapi\AppData\Local\Temp\cc5Pki9b.s:707    .text.iotx_ds_common_update_time:000000000000005a .LVL84
C:\Users\stapi\AppData\Local\Temp\cc5Pki9b.s:724    .text.iotx_ds_common_update_time:000000000000006e .LVL86
C:\Users\stapi\AppData\Local\Temp\cc5Pki9b.s:744    .text.iotx_ds_common_update_time:0000000000000098 .LVL90
C:\Users\stapi\AppData\Local\Temp\cc5Pki9b.s:661    .text.iotx_ds_common_update_time:0000000000000008 .LVL77
C:\Users\stapi\AppData\Local\Temp\cc5Pki9b.s:495    .text.iotx_ds_common_convert_string2data:0000000000000000 .LVL57
C:\Users\stapi\AppData\Local\Temp\cc5Pki9b.s:509    .text.iotx_ds_common_convert_string2data:000000000000000e .LVL58
C:\Users\stapi\AppData\Local\Temp\cc5Pki9b.s:620    .text.iotx_ds_common_convert_string2data:00000000000000c6 .LVL74
C:\Users\stapi\AppData\Local\Temp\cc5Pki9b.s:629    .text.iotx_ds_common_convert_string2data:00000000000000c8 .LVL75
C:\Users\stapi\AppData\Local\Temp\cc5Pki9b.s:524    .text.iotx_ds_common_convert_string2data:0000000000000020 .LVL59
C:\Users\stapi\AppData\Local\Temp\cc5Pki9b.s:582    .text.iotx_ds_common_convert_string2data:000000000000007a .LVL66
C:\Users\stapi\AppData\Local\Temp\cc5Pki9b.s:593    .text.iotx_ds_common_convert_string2data:0000000000000086 .LVL68
C:\Users\stapi\AppData\Local\Temp\cc5Pki9b.s:597    .text.iotx_ds_common_convert_string2data:0000000000000090 .LVL70
C:\Users\stapi\AppData\Local\Temp\cc5Pki9b.s:534    .text.iotx_ds_common_convert_string2data:0000000000000034 .LVL61
C:\Users\stapi\AppData\Local\Temp\cc5Pki9b.s:544    .text.iotx_ds_common_convert_string2data:000000000000003c .LVL62
C:\Users\stapi\AppData\Local\Temp\cc5Pki9b.s:590    .text.iotx_ds_common_convert_string2data:0000000000000082 .LVL67
C:\Users\stapi\AppData\Local\Temp\cc5Pki9b.s:199    .text.iotx_ds_common_convert_data2string:0000000000000000 .LVL19
C:\Users\stapi\AppData\Local\Temp\cc5Pki9b.s:249    .text.iotx_ds_common_convert_data2string:0000000000000040 .LVL25
C:\Users\stapi\AppData\Local\Temp\cc5Pki9b.s:279    .text.iotx_ds_common_convert_data2string:0000000000000060 .LVL31
C:\Users\stapi\AppData\Local\Temp\cc5Pki9b.s:281    .text.iotx_ds_common_convert_data2string:0000000000000062 .LVL32
C:\Users\stapi\AppData\Local\Temp\cc5Pki9b.s:293    .text.iotx_ds_common_convert_data2string:000000000000006c .LVL33
C:\Users\stapi\AppData\Local\Temp\cc5Pki9b.s:270    .text.iotx_ds_common_convert_data2string:000000000000005c .LVL30
C:\Users\stapi\AppData\Local\Temp\cc5Pki9b.s:227    .text.iotx_ds_common_convert_data2string:0000000000000020 .LVL21
C:\Users\stapi\AppData\Local\Temp\cc5Pki9b.s:255    .text.iotx_ds_common_convert_data2string:0000000000000044 .LVL26
C:\Users\stapi\AppData\Local\Temp\cc5Pki9b.s:258    .text.iotx_ds_common_convert_data2string:000000000000004a .LVL27
C:\Users\stapi\AppData\Local\Temp\cc5Pki9b.s:266    .text.iotx_ds_common_convert_data2string:0000000000000052 .LVL29
C:\Users\stapi\AppData\Local\Temp\cc5Pki9b.s:225    .text.iotx_ds_common_convert_data2string:000000000000001c .LVL20
C:\Users\stapi\AppData\Local\Temp\cc5Pki9b.s:264    .text.iotx_ds_common_convert_data2string:000000000000004e .LVL28
C:\Users\stapi\AppData\Local\Temp\cc5Pki9b.s:234    .text.iotx_ds_common_convert_data2string:000000000000002e .LVL23
C:\Users\stapi\AppData\Local\Temp\cc5Pki9b.s:240    .text.iotx_ds_common_convert_data2string:0000000000000036 .LVL24
C:\Users\stapi\AppData\Local\Temp\cc5Pki9b.s:1203   .text.iotx_ds_common_format_finalize:0000000000000000 .LVL146
C:\Users\stapi\AppData\Local\Temp\cc5Pki9b.s:1227   .text.iotx_ds_common_format_finalize:0000000000000018 .LVL149
C:\Users\stapi\AppData\Local\Temp\cc5Pki9b.s:1320   .text.iotx_ds_common_format_finalize:000000000000008c .LVL162
C:\Users\stapi\AppData\Local\Temp\cc5Pki9b.s:1358   .text.iotx_ds_common_format_finalize:00000000000000ce .LVL167
C:\Users\stapi\AppData\Local\Temp\cc5Pki9b.s:1225   .text.iotx_ds_common_format_finalize:0000000000000016 .LVL148
C:\Users\stapi\AppData\Local\Temp\cc5Pki9b.s:1223   .text.iotx_ds_common_format_finalize:0000000000000014 .LVL147
C:\Users\stapi\AppData\Local\Temp\cc5Pki9b.s:1259   .text.iotx_ds_common_format_finalize:000000000000004e .LVL152
C:\Users\stapi\AppData\Local\Temp\cc5Pki9b.s:1276   .text.iotx_ds_common_format_finalize:000000000000005a .LVL154
C:\Users\stapi\AppData\Local\Temp\cc5Pki9b.s:1281   .text.iotx_ds_common_format_finalize:000000000000005e .LVL155
C:\Users\stapi\AppData\Local\Temp\cc5Pki9b.s:1287   .text.iotx_ds_common_format_finalize:0000000000000064 .LVL157
C:\Users\stapi\AppData\Local\Temp\cc5Pki9b.s:1305   .text.iotx_ds_common_format_finalize:0000000000000078 .LVL160
C:\Users\stapi\AppData\Local\Temp\cc5Pki9b.s:1262   .text.iotx_ds_common_format_finalize:0000000000000050 .LVL153
C:\Users\stapi\AppData\Local\Temp\cc5Pki9b.s:1285   .text.iotx_ds_common_format_finalize:0000000000000062 .LVL156
C:\Users\stapi\AppData\Local\Temp\cc5Pki9b.s:1295   .text.iotx_ds_common_format_finalize:0000000000000068 .LVL158
C:\Users\stapi\AppData\Local\Temp\cc5Pki9b.s:1352   .text.iotx_ds_common_format_finalize:00000000000000c8 .LVL166
C:\Users\stapi\AppData\Local\Temp\cc5Pki9b.s:1317   .text.iotx_ds_common_format_finalize:0000000000000088 .LVL161
C:\Users\stapi\AppData\Local\Temp\cc5Pki9b.s:329    .text.iotx_ds_common_format_add:0000000000000000 .LVL37
C:\Users\stapi\AppData\Local\Temp\cc5Pki9b.s:360    .text.iotx_ds_common_format_add:000000000000001c .LVL39
C:\Users\stapi\AppData\Local\Temp\cc5Pki9b.s:423    .text.iotx_ds_common_format_add:000000000000006a .LVL51
C:\Users\stapi\AppData\Local\Temp\cc5Pki9b.s:439    .text.iotx_ds_common_format_add:0000000000000076 .LVL54
C:\Users\stapi\AppData\Local\Temp\cc5Pki9b.s:453    .text.iotx_ds_common_format_add:0000000000000080 .LVL55
C:\Users\stapi\AppData\Local\Temp\cc5Pki9b.s:372    .text.iotx_ds_common_format_add:000000000000002c .LVL42
C:\Users\stapi\AppData\Local\Temp\cc5Pki9b.s:368    .text.iotx_ds_common_format_add:0000000000000024 .LVL41
C:\Users\stapi\AppData\Local\Temp\cc5Pki9b.s:351    .text.iotx_ds_common_format_add:0000000000000016 .LVL38
C:\Users\stapi\AppData\Local\Temp\cc5Pki9b.s:427    .text.iotx_ds_common_format_add:000000000000006c .LVL52
C:\Users\stapi\AppData\Local\Temp\cc5Pki9b.s:432    .text.iotx_ds_common_format_add:000000000000006e .LVL53
C:\Users\stapi\AppData\Local\Temp\cc5Pki9b.s:376    .text.iotx_ds_common_format_add:0000000000000036 .LVL44
C:\Users\stapi\AppData\Local\Temp\cc5Pki9b.s:382    .text.iotx_ds_common_format_add:000000000000003e .LVL45
C:\Users\stapi\AppData\Local\Temp\cc5Pki9b.s:397    .text.iotx_ds_common_format_add:000000000000004c .LVL46
C:\Users\stapi\AppData\Local\Temp\cc5Pki9b.s:417    .text.iotx_ds_common_format_add:0000000000000064 .LVL50
C:\Users\stapi\AppData\Local\Temp\cc5Pki9b.s:364    .text.iotx_ds_common_format_add:0000000000000020 .LVL40
C:\Users\stapi\AppData\Local\Temp\cc5Pki9b.s:401    .text.iotx_ds_common_format_add:000000000000004e .LVL47
C:\Users\stapi\AppData\Local\Temp\cc5Pki9b.s:405    .text.iotx_ds_common_format_add:0000000000000050 .LVL48
C:\Users\stapi\AppData\Local\Temp\cc5Pki9b.s:462    .text.iotx_ds_common_format_add:000000000000008c .LVL56
C:\Users\stapi\AppData\Local\Temp\cc5Pki9b.s:28     .text.iotx_ds_common_format_init:0000000000000000 .LVL0
C:\Users\stapi\AppData\Local\Temp\cc5Pki9b.s:51     .text.iotx_ds_common_format_init:0000000000000014 .LVL3
C:\Users\stapi\AppData\Local\Temp\cc5Pki9b.s:47     .text.iotx_ds_common_format_init:0000000000000010 .LVL1
C:\Users\stapi\AppData\Local\Temp\cc5Pki9b.s:49     .text.iotx_ds_common_format_init:0000000000000012 .LVL2
C:\Users\stapi\AppData\Local\Temp\cc5Pki9b.s:96     .text.iotx_ds_common_format_init:0000000000000054 .LVL9
C:\Users\stapi\AppData\Local\Temp\cc5Pki9b.s:104    .text.iotx_ds_common_format_init:000000000000005c .LVL10
C:\Users\stapi\AppData\Local\Temp\cc5Pki9b.s:90     .text.iotx_ds_common_format_init:0000000000000052 .LVL8
C:\Users\stapi\AppData\Local\Temp\cc5Pki9b.s:113    .text.iotx_ds_common_format_init:0000000000000064 .LVL12
C:\Users\stapi\AppData\Local\Temp\cc5Pki9b.s:115    .text.iotx_ds_common_format_init:0000000000000066 .LVL13
C:\Users\stapi\AppData\Local\Temp\cc5Pki9b.s:141    .text.iotx_ds_common_format_init:0000000000000080 .LVL16
C:\Users\stapi\AppData\Local\Temp\cc5Pki9b.s:155    .text.iotx_ds_common_format_init:0000000000000094 .LVL18
C:\Users\stapi\AppData\Local\Temp\cc5Pki9b.s:73     .text.iotx_ds_common_format_init:0000000000000030 .LVL5
C:\Users\stapi\AppData\Local\Temp\cc5Pki9b.s:87     .text.iotx_ds_common_format_init:0000000000000050 .LVL7
C:\Users\stapi\AppData\Local\Temp\cc5Pki9b.s:109    .text.iotx_ds_common_format_init:0000000000000060 .LVL11
C:\Users\stapi\AppData\Local\Temp\cc5Pki9b.s:123    .text.iotx_ds_common_format_init:0000000000000068 .LVL14
C:\Users\stapi\AppData\Local\Temp\cc5Pki9b.s:127    .text.iotx_ds_common_format_init:000000000000006c .LVL15
C:\Users\stapi\AppData\Local\Temp\cc5Pki9b.s:1680   .debug_info:0000000000000000 .Ldebug_info0

UNDEFINED SYMBOLS
__riscv_save_4
memset
HAL_Snprintf
__riscv_restore_4
__riscv_save_1
__riscv_restore_1
HAL_Printf
__riscv_save_3
strcmp
__riscv_restore_3
atoi
memcpy
HAL_MutexLock
utils_time_get_ms
HAL_MutexUnlock
__riscv_save_2
list_find
__riscv_restore_2
list_node_new
list_lpush
LITE_syslog
list_remove
__riscv_save_5
__riscv_restore_5
HAL_GetDeviceID
LITE_malloc_internal
HAL_GetProductKey
HAL_GetDeviceName
LITE_free_internal
IOT_MQTT_Publish
