   1              		.file	"shadow.c"
   2              		.option nopic
   3              		.attribute arch, "rv32i2p0_m2p0_a2p0_f2p0_c2p0_b_p0p94"
   4              		.attribute unaligned_access, 0
   5              		.attribute stack_align, 16
   6              		.text
   7              	.Ltext0:
   8              		.cfi_sections	.debug_frame
   9              		.section	.rodata.iotx_ds_event_handle.str1.4,"aMS",@progbits,1
  10              		.align	2
  11              	.LC0:
  12 0000 73756273 		.string	"subscribe success, packet-id=%u"
  12      63726962 
  12      65207375 
  12      63636573 
  12      732C2070 
  13              		.align	2
  14              	.LC1:
  15 0020 73686164 		.string	"shadow"
  15      6F7700
  16 0027 00       		.align	2
  17              	.LC2:
  18 0028 73756273 		.string	"subscribe wait ack timeout, packet-id=%u"
  18      63726962 
  18      65207761 
  18      69742061 
  18      636B2074 
  19 0051 000000   		.align	2
  20              	.LC3:
  21 0054 73756273 		.string	"subscribe nack, packet-id=%u"
  21      63726962 
  21      65206E61 
  21      636B2C20 
  21      7061636B 
  22 0071 000000   		.align	2
  23              	.LC4:
  24 0074 746F7069 		.string	"topic message arrived but without any related handle: topic=%.*s, topic_msg=%.*s"
  24      63206D65 
  24      73736167 
  24      65206172 
  24      72697665 
  25 00c5 000000   		.align	2
  26              	.LC5:
  27 00c8 53686F75 		.string	"Should NOT arrive here."
  27      6C64204E 
  27      4F542061 
  27      72726976 
  27      65206865 
  28              		.section	.text.iotx_ds_event_handle,"ax",@progbits
  29              		.align	1
  30              		.globl	iotx_ds_event_handle
  32              	iotx_ds_event_handle:
  33              	.LFB30:
  34              		.file 1 "C:/Users/stapi/OneDrive/Desktop/GD32VW553/V1_MQTT_OK/GD32VW55X_Wifi_BLE_SDK/GD32VW55x_REL
   1:C:/Users/stapi/OneDrive/Desktop/GD32VW553/V1_MQTT_OK/GD32VW55X_Wifi_BLE_SDK/GD32VW55x_RELEASE_V1.0.2/MSDK/cloud/alicloud/src/services/shadow\shadow.c **** /*
   2:C:/Users/stapi/OneDrive/Desktop/GD32VW553/V1_MQTT_OK/GD32VW55X_Wifi_BLE_SDK/GD32VW55x_RELEASE_V1.0.2/MSDK/cloud/alicloud/src/services/shadow\shadow.c ****  * Copyright (C) 2015-2018 Alibaba Group Holding Limited
   3:C:/Users/stapi/OneDrive/Desktop/GD32VW553/V1_MQTT_OK/GD32VW55X_Wifi_BLE_SDK/GD32VW55x_RELEASE_V1.0.2/MSDK/cloud/alicloud/src/services/shadow\shadow.c ****  */
   4:C:/Users/stapi/OneDrive/Desktop/GD32VW553/V1_MQTT_OK/GD32VW55X_Wifi_BLE_SDK/GD32VW55x_RELEASE_V1.0.2/MSDK/cloud/alicloud/src/services/shadow\shadow.c **** 
   5:C:/Users/stapi/OneDrive/Desktop/GD32VW553/V1_MQTT_OK/GD32VW55X_Wifi_BLE_SDK/GD32VW55x_RELEASE_V1.0.2/MSDK/cloud/alicloud/src/services/shadow\shadow.c **** 
   6:C:/Users/stapi/OneDrive/Desktop/GD32VW553/V1_MQTT_OK/GD32VW55X_Wifi_BLE_SDK/GD32VW55x_RELEASE_V1.0.2/MSDK/cloud/alicloud/src/services/shadow\shadow.c **** 
   7:C:/Users/stapi/OneDrive/Desktop/GD32VW553/V1_MQTT_OK/GD32VW55X_Wifi_BLE_SDK/GD32VW55x_RELEASE_V1.0.2/MSDK/cloud/alicloud/src/services/shadow\shadow.c **** 
   8:C:/Users/stapi/OneDrive/Desktop/GD32VW553/V1_MQTT_OK/GD32VW55X_Wifi_BLE_SDK/GD32VW55x_RELEASE_V1.0.2/MSDK/cloud/alicloud/src/services/shadow\shadow.c **** #include "iot_import.h"
   9:C:/Users/stapi/OneDrive/Desktop/GD32VW553/V1_MQTT_OK/GD32VW55X_Wifi_BLE_SDK/GD32VW55x_RELEASE_V1.0.2/MSDK/cloud/alicloud/src/services/shadow\shadow.c **** 
  10:C:/Users/stapi/OneDrive/Desktop/GD32VW553/V1_MQTT_OK/GD32VW55X_Wifi_BLE_SDK/GD32VW55x_RELEASE_V1.0.2/MSDK/cloud/alicloud/src/services/shadow\shadow.c **** #include "utils_list.h"
  11:C:/Users/stapi/OneDrive/Desktop/GD32VW553/V1_MQTT_OK/GD32VW55X_Wifi_BLE_SDK/GD32VW55x_RELEASE_V1.0.2/MSDK/cloud/alicloud/src/services/shadow\shadow.c **** #include "iotx_utils.h"
  12:C:/Users/stapi/OneDrive/Desktop/GD32VW553/V1_MQTT_OK/GD32VW55X_Wifi_BLE_SDK/GD32VW55x_RELEASE_V1.0.2/MSDK/cloud/alicloud/src/services/shadow\shadow.c **** #include "shadow.h"
  13:C:/Users/stapi/OneDrive/Desktop/GD32VW553/V1_MQTT_OK/GD32VW55X_Wifi_BLE_SDK/GD32VW55x_RELEASE_V1.0.2/MSDK/cloud/alicloud/src/services/shadow\shadow.c **** #include "shadow_common.h"
  14:C:/Users/stapi/OneDrive/Desktop/GD32VW553/V1_MQTT_OK/GD32VW55X_Wifi_BLE_SDK/GD32VW55x_RELEASE_V1.0.2/MSDK/cloud/alicloud/src/services/shadow\shadow.c **** #include "shadow_update.h"
  15:C:/Users/stapi/OneDrive/Desktop/GD32VW553/V1_MQTT_OK/GD32VW55X_Wifi_BLE_SDK/GD32VW55x_RELEASE_V1.0.2/MSDK/cloud/alicloud/src/services/shadow\shadow.c **** #include "shadow_delta.h"
  16:C:/Users/stapi/OneDrive/Desktop/GD32VW553/V1_MQTT_OK/GD32VW55X_Wifi_BLE_SDK/GD32VW55x_RELEASE_V1.0.2/MSDK/cloud/alicloud/src/services/shadow\shadow.c **** #include "shadow_debug.h"
  17:C:/Users/stapi/OneDrive/Desktop/GD32VW553/V1_MQTT_OK/GD32VW55X_Wifi_BLE_SDK/GD32VW55x_RELEASE_V1.0.2/MSDK/cloud/alicloud/src/services/shadow\shadow.c **** 
  18:C:/Users/stapi/OneDrive/Desktop/GD32VW553/V1_MQTT_OK/GD32VW55X_Wifi_BLE_SDK/GD32VW55x_RELEASE_V1.0.2/MSDK/cloud/alicloud/src/services/shadow\shadow.c **** 
  19:C:/Users/stapi/OneDrive/Desktop/GD32VW553/V1_MQTT_OK/GD32VW55X_Wifi_BLE_SDK/GD32VW55x_RELEASE_V1.0.2/MSDK/cloud/alicloud/src/services/shadow\shadow.c **** /* check return code */
  20:C:/Users/stapi/OneDrive/Desktop/GD32VW553/V1_MQTT_OK/GD32VW55X_Wifi_BLE_SDK/GD32VW55x_RELEASE_V1.0.2/MSDK/cloud/alicloud/src/services/shadow\shadow.c **** #define CHECK_RETURN_CODE(ret_code) \
  21:C:/Users/stapi/OneDrive/Desktop/GD32VW553/V1_MQTT_OK/GD32VW55X_Wifi_BLE_SDK/GD32VW55x_RELEASE_V1.0.2/MSDK/cloud/alicloud/src/services/shadow\shadow.c ****     do{ \
  22:C:/Users/stapi/OneDrive/Desktop/GD32VW553/V1_MQTT_OK/GD32VW55X_Wifi_BLE_SDK/GD32VW55x_RELEASE_V1.0.2/MSDK/cloud/alicloud/src/services/shadow\shadow.c ****         if (ret_code < 0) { \
  23:C:/Users/stapi/OneDrive/Desktop/GD32VW553/V1_MQTT_OK/GD32VW55X_Wifi_BLE_SDK/GD32VW55x_RELEASE_V1.0.2/MSDK/cloud/alicloud/src/services/shadow\shadow.c ****             return ret_code; \
  24:C:/Users/stapi/OneDrive/Desktop/GD32VW553/V1_MQTT_OK/GD32VW55X_Wifi_BLE_SDK/GD32VW55x_RELEASE_V1.0.2/MSDK/cloud/alicloud/src/services/shadow\shadow.c ****         } \
  25:C:/Users/stapi/OneDrive/Desktop/GD32VW553/V1_MQTT_OK/GD32VW55X_Wifi_BLE_SDK/GD32VW55x_RELEASE_V1.0.2/MSDK/cloud/alicloud/src/services/shadow\shadow.c ****     }while(0);
  26:C:/Users/stapi/OneDrive/Desktop/GD32VW553/V1_MQTT_OK/GD32VW55X_Wifi_BLE_SDK/GD32VW55x_RELEASE_V1.0.2/MSDK/cloud/alicloud/src/services/shadow\shadow.c **** 
  27:C:/Users/stapi/OneDrive/Desktop/GD32VW553/V1_MQTT_OK/GD32VW55X_Wifi_BLE_SDK/GD32VW55x_RELEASE_V1.0.2/MSDK/cloud/alicloud/src/services/shadow\shadow.c **** 
  28:C:/Users/stapi/OneDrive/Desktop/GD32VW553/V1_MQTT_OK/GD32VW55X_Wifi_BLE_SDK/GD32VW55x_RELEASE_V1.0.2/MSDK/cloud/alicloud/src/services/shadow\shadow.c **** /* check return code of snprintf */
  29:C:/Users/stapi/OneDrive/Desktop/GD32VW553/V1_MQTT_OK/GD32VW55X_Wifi_BLE_SDK/GD32VW55x_RELEASE_V1.0.2/MSDK/cloud/alicloud/src/services/shadow\shadow.c **** #define CHECK_SNPRINTF_RET(ret_code, buf_len) \
  30:C:/Users/stapi/OneDrive/Desktop/GD32VW553/V1_MQTT_OK/GD32VW55X_Wifi_BLE_SDK/GD32VW55x_RELEASE_V1.0.2/MSDK/cloud/alicloud/src/services/shadow\shadow.c ****     do{ \
  31:C:/Users/stapi/OneDrive/Desktop/GD32VW553/V1_MQTT_OK/GD32VW55X_Wifi_BLE_SDK/GD32VW55x_RELEASE_V1.0.2/MSDK/cloud/alicloud/src/services/shadow\shadow.c ****         if ((ret_code) < 0) { \
  32:C:/Users/stapi/OneDrive/Desktop/GD32VW553/V1_MQTT_OK/GD32VW55X_Wifi_BLE_SDK/GD32VW55x_RELEASE_V1.0.2/MSDK/cloud/alicloud/src/services/shadow\shadow.c ****             return FAIL_RETURN; \
  33:C:/Users/stapi/OneDrive/Desktop/GD32VW553/V1_MQTT_OK/GD32VW55X_Wifi_BLE_SDK/GD32VW55x_RELEASE_V1.0.2/MSDK/cloud/alicloud/src/services/shadow\shadow.c ****         } else if ((ret_code) >= (buf_len)) { \
  34:C:/Users/stapi/OneDrive/Desktop/GD32VW553/V1_MQTT_OK/GD32VW55X_Wifi_BLE_SDK/GD32VW55x_RELEASE_V1.0.2/MSDK/cloud/alicloud/src/services/shadow\shadow.c ****             return ERROR_NO_ENOUGH_MEM; \
  35:C:/Users/stapi/OneDrive/Desktop/GD32VW553/V1_MQTT_OK/GD32VW55X_Wifi_BLE_SDK/GD32VW55x_RELEASE_V1.0.2/MSDK/cloud/alicloud/src/services/shadow\shadow.c ****         } \
  36:C:/Users/stapi/OneDrive/Desktop/GD32VW553/V1_MQTT_OK/GD32VW55X_Wifi_BLE_SDK/GD32VW55x_RELEASE_V1.0.2/MSDK/cloud/alicloud/src/services/shadow\shadow.c ****     }while(0);
  37:C:/Users/stapi/OneDrive/Desktop/GD32VW553/V1_MQTT_OK/GD32VW55X_Wifi_BLE_SDK/GD32VW55x_RELEASE_V1.0.2/MSDK/cloud/alicloud/src/services/shadow\shadow.c **** 
  38:C:/Users/stapi/OneDrive/Desktop/GD32VW553/V1_MQTT_OK/GD32VW55X_Wifi_BLE_SDK/GD32VW55x_RELEASE_V1.0.2/MSDK/cloud/alicloud/src/services/shadow\shadow.c **** 
  39:C:/Users/stapi/OneDrive/Desktop/GD32VW553/V1_MQTT_OK/GD32VW55X_Wifi_BLE_SDK/GD32VW55x_RELEASE_V1.0.2/MSDK/cloud/alicloud/src/services/shadow\shadow.c **** static void iotx_ds_handle_expire(iotx_shadow_pt pshadow)
  40:C:/Users/stapi/OneDrive/Desktop/GD32VW553/V1_MQTT_OK/GD32VW55X_Wifi_BLE_SDK/GD32VW55x_RELEASE_V1.0.2/MSDK/cloud/alicloud/src/services/shadow\shadow.c **** {
  41:C:/Users/stapi/OneDrive/Desktop/GD32VW553/V1_MQTT_OK/GD32VW55X_Wifi_BLE_SDK/GD32VW55x_RELEASE_V1.0.2/MSDK/cloud/alicloud/src/services/shadow\shadow.c ****     iotx_ds_update_wait_ack_list_handle_expire(pshadow);
  42:C:/Users/stapi/OneDrive/Desktop/GD32VW553/V1_MQTT_OK/GD32VW55X_Wifi_BLE_SDK/GD32VW55x_RELEASE_V1.0.2/MSDK/cloud/alicloud/src/services/shadow\shadow.c **** }
  43:C:/Users/stapi/OneDrive/Desktop/GD32VW553/V1_MQTT_OK/GD32VW55X_Wifi_BLE_SDK/GD32VW55x_RELEASE_V1.0.2/MSDK/cloud/alicloud/src/services/shadow\shadow.c **** 
  44:C:/Users/stapi/OneDrive/Desktop/GD32VW553/V1_MQTT_OK/GD32VW55X_Wifi_BLE_SDK/GD32VW55x_RELEASE_V1.0.2/MSDK/cloud/alicloud/src/services/shadow\shadow.c **** 
  45:C:/Users/stapi/OneDrive/Desktop/GD32VW553/V1_MQTT_OK/GD32VW55X_Wifi_BLE_SDK/GD32VW55x_RELEASE_V1.0.2/MSDK/cloud/alicloud/src/services/shadow\shadow.c **** /* This function will be called back when message published to topic(/shadow/get/) arrives. */
  46:C:/Users/stapi/OneDrive/Desktop/GD32VW553/V1_MQTT_OK/GD32VW55X_Wifi_BLE_SDK/GD32VW55x_RELEASE_V1.0.2/MSDK/cloud/alicloud/src/services/shadow\shadow.c **** static void iotx_shadow_callback_get(iotx_shadow_pt pshadow, void *pclient, iotx_mqtt_event_msg_pt 
  47:C:/Users/stapi/OneDrive/Desktop/GD32VW553/V1_MQTT_OK/GD32VW55X_Wifi_BLE_SDK/GD32VW55x_RELEASE_V1.0.2/MSDK/cloud/alicloud/src/services/shadow\shadow.c **** {
  48:C:/Users/stapi/OneDrive/Desktop/GD32VW553/V1_MQTT_OK/GD32VW55X_Wifi_BLE_SDK/GD32VW55x_RELEASE_V1.0.2/MSDK/cloud/alicloud/src/services/shadow\shadow.c ****     const char *pname;
  49:C:/Users/stapi/OneDrive/Desktop/GD32VW553/V1_MQTT_OK/GD32VW55X_Wifi_BLE_SDK/GD32VW55x_RELEASE_V1.0.2/MSDK/cloud/alicloud/src/services/shadow\shadow.c ****     int ret = FAIL_RETURN;
  50:C:/Users/stapi/OneDrive/Desktop/GD32VW553/V1_MQTT_OK/GD32VW55X_Wifi_BLE_SDK/GD32VW55x_RELEASE_V1.0.2/MSDK/cloud/alicloud/src/services/shadow\shadow.c **** 
  51:C:/Users/stapi/OneDrive/Desktop/GD32VW553/V1_MQTT_OK/GD32VW55X_Wifi_BLE_SDK/GD32VW55x_RELEASE_V1.0.2/MSDK/cloud/alicloud/src/services/shadow\shadow.c ****     iotx_mqtt_topic_info_pt topic_info = (iotx_mqtt_topic_info_pt)msg->msg;
  52:C:/Users/stapi/OneDrive/Desktop/GD32VW553/V1_MQTT_OK/GD32VW55X_Wifi_BLE_SDK/GD32VW55x_RELEASE_V1.0.2/MSDK/cloud/alicloud/src/services/shadow\shadow.c **** 
  53:C:/Users/stapi/OneDrive/Desktop/GD32VW553/V1_MQTT_OK/GD32VW55X_Wifi_BLE_SDK/GD32VW55x_RELEASE_V1.0.2/MSDK/cloud/alicloud/src/services/shadow\shadow.c ****     shadow_debug("topic=%.*s", topic_info->topic_len, topic_info->ptopic);
  54:C:/Users/stapi/OneDrive/Desktop/GD32VW553/V1_MQTT_OK/GD32VW55X_Wifi_BLE_SDK/GD32VW55x_RELEASE_V1.0.2/MSDK/cloud/alicloud/src/services/shadow\shadow.c ****     shadow_debug("data of topic=%.*s", topic_info->payload_len, (char *)topic_info->payload);
  55:C:/Users/stapi/OneDrive/Desktop/GD32VW553/V1_MQTT_OK/GD32VW55X_Wifi_BLE_SDK/GD32VW55x_RELEASE_V1.0.2/MSDK/cloud/alicloud/src/services/shadow\shadow.c **** 
  56:C:/Users/stapi/OneDrive/Desktop/GD32VW553/V1_MQTT_OK/GD32VW55X_Wifi_BLE_SDK/GD32VW55x_RELEASE_V1.0.2/MSDK/cloud/alicloud/src/services/shadow\shadow.c ****     /* update time if there is 'timestamp' key in JSON string */
  57:C:/Users/stapi/OneDrive/Desktop/GD32VW553/V1_MQTT_OK/GD32VW55X_Wifi_BLE_SDK/GD32VW55x_RELEASE_V1.0.2/MSDK/cloud/alicloud/src/services/shadow\shadow.c ****     pname = LITE_json_value_of((char *)"timestamp", (char *)topic_info->payload);
  58:C:/Users/stapi/OneDrive/Desktop/GD32VW553/V1_MQTT_OK/GD32VW55X_Wifi_BLE_SDK/GD32VW55x_RELEASE_V1.0.2/MSDK/cloud/alicloud/src/services/shadow\shadow.c ****     if (NULL != pname) {
  59:C:/Users/stapi/OneDrive/Desktop/GD32VW553/V1_MQTT_OK/GD32VW55X_Wifi_BLE_SDK/GD32VW55x_RELEASE_V1.0.2/MSDK/cloud/alicloud/src/services/shadow\shadow.c ****         if(FAIL_RETURN == iotx_ds_common_update_time(pshadow, atoi(pname))){
  60:C:/Users/stapi/OneDrive/Desktop/GD32VW553/V1_MQTT_OK/GD32VW55X_Wifi_BLE_SDK/GD32VW55x_RELEASE_V1.0.2/MSDK/cloud/alicloud/src/services/shadow\shadow.c ****             LITE_free(pname);
  61:C:/Users/stapi/OneDrive/Desktop/GD32VW553/V1_MQTT_OK/GD32VW55X_Wifi_BLE_SDK/GD32VW55x_RELEASE_V1.0.2/MSDK/cloud/alicloud/src/services/shadow\shadow.c ****             return;
  62:C:/Users/stapi/OneDrive/Desktop/GD32VW553/V1_MQTT_OK/GD32VW55X_Wifi_BLE_SDK/GD32VW55x_RELEASE_V1.0.2/MSDK/cloud/alicloud/src/services/shadow\shadow.c ****         }
  63:C:/Users/stapi/OneDrive/Desktop/GD32VW553/V1_MQTT_OK/GD32VW55X_Wifi_BLE_SDK/GD32VW55x_RELEASE_V1.0.2/MSDK/cloud/alicloud/src/services/shadow\shadow.c ****     }
  64:C:/Users/stapi/OneDrive/Desktop/GD32VW553/V1_MQTT_OK/GD32VW55X_Wifi_BLE_SDK/GD32VW55x_RELEASE_V1.0.2/MSDK/cloud/alicloud/src/services/shadow\shadow.c ****     LITE_free(pname);
  65:C:/Users/stapi/OneDrive/Desktop/GD32VW553/V1_MQTT_OK/GD32VW55X_Wifi_BLE_SDK/GD32VW55x_RELEASE_V1.0.2/MSDK/cloud/alicloud/src/services/shadow\shadow.c **** 
  66:C:/Users/stapi/OneDrive/Desktop/GD32VW553/V1_MQTT_OK/GD32VW55X_Wifi_BLE_SDK/GD32VW55x_RELEASE_V1.0.2/MSDK/cloud/alicloud/src/services/shadow\shadow.c ****     /* update 'version' if there is 'version' key in JSON string */
  67:C:/Users/stapi/OneDrive/Desktop/GD32VW553/V1_MQTT_OK/GD32VW55X_Wifi_BLE_SDK/GD32VW55x_RELEASE_V1.0.2/MSDK/cloud/alicloud/src/services/shadow\shadow.c ****     pname = LITE_json_value_of((char *)"version", (char *)topic_info->payload);
  68:C:/Users/stapi/OneDrive/Desktop/GD32VW553/V1_MQTT_OK/GD32VW55X_Wifi_BLE_SDK/GD32VW55x_RELEASE_V1.0.2/MSDK/cloud/alicloud/src/services/shadow\shadow.c ****     if (NULL != pname) {
  69:C:/Users/stapi/OneDrive/Desktop/GD32VW553/V1_MQTT_OK/GD32VW55X_Wifi_BLE_SDK/GD32VW55x_RELEASE_V1.0.2/MSDK/cloud/alicloud/src/services/shadow\shadow.c ****         if(FAIL_RETURN == iotx_ds_common_update_version(pshadow, atoi(pname))){
  70:C:/Users/stapi/OneDrive/Desktop/GD32VW553/V1_MQTT_OK/GD32VW55X_Wifi_BLE_SDK/GD32VW55x_RELEASE_V1.0.2/MSDK/cloud/alicloud/src/services/shadow\shadow.c ****             LITE_free(pname);
  71:C:/Users/stapi/OneDrive/Desktop/GD32VW553/V1_MQTT_OK/GD32VW55X_Wifi_BLE_SDK/GD32VW55x_RELEASE_V1.0.2/MSDK/cloud/alicloud/src/services/shadow\shadow.c ****             return;
  72:C:/Users/stapi/OneDrive/Desktop/GD32VW553/V1_MQTT_OK/GD32VW55X_Wifi_BLE_SDK/GD32VW55x_RELEASE_V1.0.2/MSDK/cloud/alicloud/src/services/shadow\shadow.c ****         }
  73:C:/Users/stapi/OneDrive/Desktop/GD32VW553/V1_MQTT_OK/GD32VW55X_Wifi_BLE_SDK/GD32VW55x_RELEASE_V1.0.2/MSDK/cloud/alicloud/src/services/shadow\shadow.c ****         LITE_free(pname);
  74:C:/Users/stapi/OneDrive/Desktop/GD32VW553/V1_MQTT_OK/GD32VW55X_Wifi_BLE_SDK/GD32VW55x_RELEASE_V1.0.2/MSDK/cloud/alicloud/src/services/shadow\shadow.c ****     }
  75:C:/Users/stapi/OneDrive/Desktop/GD32VW553/V1_MQTT_OK/GD32VW55X_Wifi_BLE_SDK/GD32VW55x_RELEASE_V1.0.2/MSDK/cloud/alicloud/src/services/shadow\shadow.c **** 
  76:C:/Users/stapi/OneDrive/Desktop/GD32VW553/V1_MQTT_OK/GD32VW55X_Wifi_BLE_SDK/GD32VW55x_RELEASE_V1.0.2/MSDK/cloud/alicloud/src/services/shadow\shadow.c ****     /* get 'method' */
  77:C:/Users/stapi/OneDrive/Desktop/GD32VW553/V1_MQTT_OK/GD32VW55X_Wifi_BLE_SDK/GD32VW55x_RELEASE_V1.0.2/MSDK/cloud/alicloud/src/services/shadow\shadow.c ****     pname = LITE_json_value_of((char *)"method", (char *)topic_info->payload);
  78:C:/Users/stapi/OneDrive/Desktop/GD32VW553/V1_MQTT_OK/GD32VW55X_Wifi_BLE_SDK/GD32VW55x_RELEASE_V1.0.2/MSDK/cloud/alicloud/src/services/shadow\shadow.c ****     /* shadow_debug("pname(%d) = %s", (int)strlen(pname), pname); */
  79:C:/Users/stapi/OneDrive/Desktop/GD32VW553/V1_MQTT_OK/GD32VW55X_Wifi_BLE_SDK/GD32VW55x_RELEASE_V1.0.2/MSDK/cloud/alicloud/src/services/shadow\shadow.c ****     if (NULL == pname) {
  80:C:/Users/stapi/OneDrive/Desktop/GD32VW553/V1_MQTT_OK/GD32VW55X_Wifi_BLE_SDK/GD32VW55x_RELEASE_V1.0.2/MSDK/cloud/alicloud/src/services/shadow\shadow.c ****         shadow_err("Invalid JSON document: not 'method' key");
  81:C:/Users/stapi/OneDrive/Desktop/GD32VW553/V1_MQTT_OK/GD32VW55X_Wifi_BLE_SDK/GD32VW55x_RELEASE_V1.0.2/MSDK/cloud/alicloud/src/services/shadow\shadow.c ****     } else if ((strlen("control") == strlen(pname)) && !strcmp(pname, "control")) {
  82:C:/Users/stapi/OneDrive/Desktop/GD32VW553/V1_MQTT_OK/GD32VW55X_Wifi_BLE_SDK/GD32VW55x_RELEASE_V1.0.2/MSDK/cloud/alicloud/src/services/shadow\shadow.c ****         /* call delta handle function */
  83:C:/Users/stapi/OneDrive/Desktop/GD32VW553/V1_MQTT_OK/GD32VW55X_Wifi_BLE_SDK/GD32VW55x_RELEASE_V1.0.2/MSDK/cloud/alicloud/src/services/shadow\shadow.c ****         shadow_debug("receive 'control' method");
  84:C:/Users/stapi/OneDrive/Desktop/GD32VW553/V1_MQTT_OK/GD32VW55X_Wifi_BLE_SDK/GD32VW55x_RELEASE_V1.0.2/MSDK/cloud/alicloud/src/services/shadow\shadow.c ****         pshadow->inner_data.method_type = SHADOW_DOWNSTREAM_METHOD_CONTROL;
  85:C:/Users/stapi/OneDrive/Desktop/GD32VW553/V1_MQTT_OK/GD32VW55X_Wifi_BLE_SDK/GD32VW55x_RELEASE_V1.0.2/MSDK/cloud/alicloud/src/services/shadow\shadow.c **** 
  86:C:/Users/stapi/OneDrive/Desktop/GD32VW553/V1_MQTT_OK/GD32VW55X_Wifi_BLE_SDK/GD32VW55x_RELEASE_V1.0.2/MSDK/cloud/alicloud/src/services/shadow\shadow.c ****         iotx_shadow_delta_entry(
  87:C:/Users/stapi/OneDrive/Desktop/GD32VW553/V1_MQTT_OK/GD32VW55X_Wifi_BLE_SDK/GD32VW55x_RELEASE_V1.0.2/MSDK/cloud/alicloud/src/services/shadow\shadow.c ****                     pshadow,
  88:C:/Users/stapi/OneDrive/Desktop/GD32VW553/V1_MQTT_OK/GD32VW55X_Wifi_BLE_SDK/GD32VW55x_RELEASE_V1.0.2/MSDK/cloud/alicloud/src/services/shadow\shadow.c ****                     topic_info->payload,
  89:C:/Users/stapi/OneDrive/Desktop/GD32VW553/V1_MQTT_OK/GD32VW55X_Wifi_BLE_SDK/GD32VW55x_RELEASE_V1.0.2/MSDK/cloud/alicloud/src/services/shadow\shadow.c ****                     topic_info->payload_len);
  90:C:/Users/stapi/OneDrive/Desktop/GD32VW553/V1_MQTT_OK/GD32VW55X_Wifi_BLE_SDK/GD32VW55x_RELEASE_V1.0.2/MSDK/cloud/alicloud/src/services/shadow\shadow.c ****         LITE_free(pname);
  91:C:/Users/stapi/OneDrive/Desktop/GD32VW553/V1_MQTT_OK/GD32VW55X_Wifi_BLE_SDK/GD32VW55x_RELEASE_V1.0.2/MSDK/cloud/alicloud/src/services/shadow\shadow.c ****     } else if ((strlen("reply") == strlen(pname)) && !strcmp(pname, "reply")) {
  92:C:/Users/stapi/OneDrive/Desktop/GD32VW553/V1_MQTT_OK/GD32VW55X_Wifi_BLE_SDK/GD32VW55x_RELEASE_V1.0.2/MSDK/cloud/alicloud/src/services/shadow\shadow.c ****         /* call update ACK handle function. */
  93:C:/Users/stapi/OneDrive/Desktop/GD32VW553/V1_MQTT_OK/GD32VW55X_Wifi_BLE_SDK/GD32VW55x_RELEASE_V1.0.2/MSDK/cloud/alicloud/src/services/shadow\shadow.c ****         shadow_debug("receive 'reply' method");
  94:C:/Users/stapi/OneDrive/Desktop/GD32VW553/V1_MQTT_OK/GD32VW55X_Wifi_BLE_SDK/GD32VW55x_RELEASE_V1.0.2/MSDK/cloud/alicloud/src/services/shadow\shadow.c ****         pshadow->inner_data.method_type = SHADOW_DOWNSTREAM_METHOD_REPLY;
  95:C:/Users/stapi/OneDrive/Desktop/GD32VW553/V1_MQTT_OK/GD32VW55X_Wifi_BLE_SDK/GD32VW55x_RELEASE_V1.0.2/MSDK/cloud/alicloud/src/services/shadow\shadow.c ****         iotx_ds_update_wait_ack_list_handle_response(
  96:C:/Users/stapi/OneDrive/Desktop/GD32VW553/V1_MQTT_OK/GD32VW55X_Wifi_BLE_SDK/GD32VW55x_RELEASE_V1.0.2/MSDK/cloud/alicloud/src/services/shadow\shadow.c ****                     pshadow,
  97:C:/Users/stapi/OneDrive/Desktop/GD32VW553/V1_MQTT_OK/GD32VW55X_Wifi_BLE_SDK/GD32VW55x_RELEASE_V1.0.2/MSDK/cloud/alicloud/src/services/shadow\shadow.c ****                     topic_info->payload,
  98:C:/Users/stapi/OneDrive/Desktop/GD32VW553/V1_MQTT_OK/GD32VW55X_Wifi_BLE_SDK/GD32VW55x_RELEASE_V1.0.2/MSDK/cloud/alicloud/src/services/shadow\shadow.c ****                     topic_info->payload_len);
  99:C:/Users/stapi/OneDrive/Desktop/GD32VW553/V1_MQTT_OK/GD32VW55X_Wifi_BLE_SDK/GD32VW55x_RELEASE_V1.0.2/MSDK/cloud/alicloud/src/services/shadow\shadow.c ****         LITE_free(pname);
 100:C:/Users/stapi/OneDrive/Desktop/GD32VW553/V1_MQTT_OK/GD32VW55X_Wifi_BLE_SDK/GD32VW55x_RELEASE_V1.0.2/MSDK/cloud/alicloud/src/services/shadow\shadow.c ****     } else {
 101:C:/Users/stapi/OneDrive/Desktop/GD32VW553/V1_MQTT_OK/GD32VW55X_Wifi_BLE_SDK/GD32VW55x_RELEASE_V1.0.2/MSDK/cloud/alicloud/src/services/shadow\shadow.c ****         shadow_err("Invalid 'method' key");
 102:C:/Users/stapi/OneDrive/Desktop/GD32VW553/V1_MQTT_OK/GD32VW55X_Wifi_BLE_SDK/GD32VW55x_RELEASE_V1.0.2/MSDK/cloud/alicloud/src/services/shadow\shadow.c ****         LITE_free(pname);
 103:C:/Users/stapi/OneDrive/Desktop/GD32VW553/V1_MQTT_OK/GD32VW55X_Wifi_BLE_SDK/GD32VW55x_RELEASE_V1.0.2/MSDK/cloud/alicloud/src/services/shadow\shadow.c ****     }
 104:C:/Users/stapi/OneDrive/Desktop/GD32VW553/V1_MQTT_OK/GD32VW55X_Wifi_BLE_SDK/GD32VW55x_RELEASE_V1.0.2/MSDK/cloud/alicloud/src/services/shadow\shadow.c ****     pshadow->inner_data.method_type = SHADOW_DOWNSTREAM_METHOD_IGNORE;
 105:C:/Users/stapi/OneDrive/Desktop/GD32VW553/V1_MQTT_OK/GD32VW55X_Wifi_BLE_SDK/GD32VW55x_RELEASE_V1.0.2/MSDK/cloud/alicloud/src/services/shadow\shadow.c **** 
 106:C:/Users/stapi/OneDrive/Desktop/GD32VW553/V1_MQTT_OK/GD32VW55X_Wifi_BLE_SDK/GD32VW55x_RELEASE_V1.0.2/MSDK/cloud/alicloud/src/services/shadow\shadow.c ****     shadow_debug("End of method handle");
 107:C:/Users/stapi/OneDrive/Desktop/GD32VW553/V1_MQTT_OK/GD32VW55X_Wifi_BLE_SDK/GD32VW55x_RELEASE_V1.0.2/MSDK/cloud/alicloud/src/services/shadow\shadow.c **** }
 108:C:/Users/stapi/OneDrive/Desktop/GD32VW553/V1_MQTT_OK/GD32VW55X_Wifi_BLE_SDK/GD32VW55x_RELEASE_V1.0.2/MSDK/cloud/alicloud/src/services/shadow\shadow.c **** 
 109:C:/Users/stapi/OneDrive/Desktop/GD32VW553/V1_MQTT_OK/GD32VW55X_Wifi_BLE_SDK/GD32VW55x_RELEASE_V1.0.2/MSDK/cloud/alicloud/src/services/shadow\shadow.c **** static int iotx_shadow_subcribe_get(iotx_shadow_pt pshadow)
 110:C:/Users/stapi/OneDrive/Desktop/GD32VW553/V1_MQTT_OK/GD32VW55X_Wifi_BLE_SDK/GD32VW55x_RELEASE_V1.0.2/MSDK/cloud/alicloud/src/services/shadow\shadow.c **** {
 111:C:/Users/stapi/OneDrive/Desktop/GD32VW553/V1_MQTT_OK/GD32VW55X_Wifi_BLE_SDK/GD32VW55x_RELEASE_V1.0.2/MSDK/cloud/alicloud/src/services/shadow\shadow.c ****     if (NULL == pshadow->inner_data.ptopic_get) {
 112:C:/Users/stapi/OneDrive/Desktop/GD32VW553/V1_MQTT_OK/GD32VW55X_Wifi_BLE_SDK/GD32VW55x_RELEASE_V1.0.2/MSDK/cloud/alicloud/src/services/shadow\shadow.c ****         pshadow->inner_data.ptopic_get = iotx_ds_common_generate_topic_name(pshadow, "get");
 113:C:/Users/stapi/OneDrive/Desktop/GD32VW553/V1_MQTT_OK/GD32VW55X_Wifi_BLE_SDK/GD32VW55x_RELEASE_V1.0.2/MSDK/cloud/alicloud/src/services/shadow\shadow.c ****         if (NULL == pshadow->inner_data.ptopic_get) {
 114:C:/Users/stapi/OneDrive/Desktop/GD32VW553/V1_MQTT_OK/GD32VW55X_Wifi_BLE_SDK/GD32VW55x_RELEASE_V1.0.2/MSDK/cloud/alicloud/src/services/shadow\shadow.c ****             return FAIL_RETURN;
 115:C:/Users/stapi/OneDrive/Desktop/GD32VW553/V1_MQTT_OK/GD32VW55X_Wifi_BLE_SDK/GD32VW55x_RELEASE_V1.0.2/MSDK/cloud/alicloud/src/services/shadow\shadow.c ****         }
 116:C:/Users/stapi/OneDrive/Desktop/GD32VW553/V1_MQTT_OK/GD32VW55X_Wifi_BLE_SDK/GD32VW55x_RELEASE_V1.0.2/MSDK/cloud/alicloud/src/services/shadow\shadow.c ****     }
 117:C:/Users/stapi/OneDrive/Desktop/GD32VW553/V1_MQTT_OK/GD32VW55X_Wifi_BLE_SDK/GD32VW55x_RELEASE_V1.0.2/MSDK/cloud/alicloud/src/services/shadow\shadow.c **** 
 118:C:/Users/stapi/OneDrive/Desktop/GD32VW553/V1_MQTT_OK/GD32VW55X_Wifi_BLE_SDK/GD32VW55x_RELEASE_V1.0.2/MSDK/cloud/alicloud/src/services/shadow\shadow.c **** #ifdef MQTT_AUTO_SUBSCRIBE
 119:C:/Users/stapi/OneDrive/Desktop/GD32VW553/V1_MQTT_OK/GD32VW55X_Wifi_BLE_SDK/GD32VW55x_RELEASE_V1.0.2/MSDK/cloud/alicloud/src/services/shadow\shadow.c ****     return IOT_MQTT_Subscribe(pshadow->mqtt,
 120:C:/Users/stapi/OneDrive/Desktop/GD32VW553/V1_MQTT_OK/GD32VW55X_Wifi_BLE_SDK/GD32VW55x_RELEASE_V1.0.2/MSDK/cloud/alicloud/src/services/shadow\shadow.c ****                               pshadow->inner_data.ptopic_get,
 121:C:/Users/stapi/OneDrive/Desktop/GD32VW553/V1_MQTT_OK/GD32VW55X_Wifi_BLE_SDK/GD32VW55x_RELEASE_V1.0.2/MSDK/cloud/alicloud/src/services/shadow\shadow.c ****                               IOTX_MQTT_QOS3_SUB_LOCAL,
 122:C:/Users/stapi/OneDrive/Desktop/GD32VW553/V1_MQTT_OK/GD32VW55X_Wifi_BLE_SDK/GD32VW55x_RELEASE_V1.0.2/MSDK/cloud/alicloud/src/services/shadow\shadow.c ****                               (iotx_mqtt_event_handle_func_fpt)iotx_shadow_callback_get,
 123:C:/Users/stapi/OneDrive/Desktop/GD32VW553/V1_MQTT_OK/GD32VW55X_Wifi_BLE_SDK/GD32VW55x_RELEASE_V1.0.2/MSDK/cloud/alicloud/src/services/shadow\shadow.c ****                               pshadow);
 124:C:/Users/stapi/OneDrive/Desktop/GD32VW553/V1_MQTT_OK/GD32VW55X_Wifi_BLE_SDK/GD32VW55x_RELEASE_V1.0.2/MSDK/cloud/alicloud/src/services/shadow\shadow.c **** #else
 125:C:/Users/stapi/OneDrive/Desktop/GD32VW553/V1_MQTT_OK/GD32VW55X_Wifi_BLE_SDK/GD32VW55x_RELEASE_V1.0.2/MSDK/cloud/alicloud/src/services/shadow\shadow.c ****     return IOT_MQTT_Subscribe(pshadow->mqtt,
 126:C:/Users/stapi/OneDrive/Desktop/GD32VW553/V1_MQTT_OK/GD32VW55X_Wifi_BLE_SDK/GD32VW55x_RELEASE_V1.0.2/MSDK/cloud/alicloud/src/services/shadow\shadow.c ****                               pshadow->inner_data.ptopic_get,
 127:C:/Users/stapi/OneDrive/Desktop/GD32VW553/V1_MQTT_OK/GD32VW55X_Wifi_BLE_SDK/GD32VW55x_RELEASE_V1.0.2/MSDK/cloud/alicloud/src/services/shadow\shadow.c ****                               IOTX_MQTT_QOS1,
 128:C:/Users/stapi/OneDrive/Desktop/GD32VW553/V1_MQTT_OK/GD32VW55X_Wifi_BLE_SDK/GD32VW55x_RELEASE_V1.0.2/MSDK/cloud/alicloud/src/services/shadow\shadow.c ****                               (iotx_mqtt_event_handle_func_fpt)iotx_shadow_callback_get,
 129:C:/Users/stapi/OneDrive/Desktop/GD32VW553/V1_MQTT_OK/GD32VW55X_Wifi_BLE_SDK/GD32VW55x_RELEASE_V1.0.2/MSDK/cloud/alicloud/src/services/shadow\shadow.c ****                               pshadow);
 130:C:/Users/stapi/OneDrive/Desktop/GD32VW553/V1_MQTT_OK/GD32VW55X_Wifi_BLE_SDK/GD32VW55x_RELEASE_V1.0.2/MSDK/cloud/alicloud/src/services/shadow\shadow.c **** #endif
 131:C:/Users/stapi/OneDrive/Desktop/GD32VW553/V1_MQTT_OK/GD32VW55X_Wifi_BLE_SDK/GD32VW55x_RELEASE_V1.0.2/MSDK/cloud/alicloud/src/services/shadow\shadow.c **** }
 132:C:/Users/stapi/OneDrive/Desktop/GD32VW553/V1_MQTT_OK/GD32VW55X_Wifi_BLE_SDK/GD32VW55x_RELEASE_V1.0.2/MSDK/cloud/alicloud/src/services/shadow\shadow.c **** 
 133:C:/Users/stapi/OneDrive/Desktop/GD32VW553/V1_MQTT_OK/GD32VW55X_Wifi_BLE_SDK/GD32VW55x_RELEASE_V1.0.2/MSDK/cloud/alicloud/src/services/shadow\shadow.c **** 
 134:C:/Users/stapi/OneDrive/Desktop/GD32VW553/V1_MQTT_OK/GD32VW55X_Wifi_BLE_SDK/GD32VW55x_RELEASE_V1.0.2/MSDK/cloud/alicloud/src/services/shadow\shadow.c **** iotx_err_t IOT_Shadow_PushFormat_Init(void *pshadow,
 135:C:/Users/stapi/OneDrive/Desktop/GD32VW553/V1_MQTT_OK/GD32VW55X_Wifi_BLE_SDK/GD32VW55x_RELEASE_V1.0.2/MSDK/cloud/alicloud/src/services/shadow\shadow.c ****                                       format_data_pt pformat,
 136:C:/Users/stapi/OneDrive/Desktop/GD32VW553/V1_MQTT_OK/GD32VW55X_Wifi_BLE_SDK/GD32VW55x_RELEASE_V1.0.2/MSDK/cloud/alicloud/src/services/shadow\shadow.c ****                                       char *buf,
 137:C:/Users/stapi/OneDrive/Desktop/GD32VW553/V1_MQTT_OK/GD32VW55X_Wifi_BLE_SDK/GD32VW55x_RELEASE_V1.0.2/MSDK/cloud/alicloud/src/services/shadow\shadow.c ****                                       uint16_t size)
 138:C:/Users/stapi/OneDrive/Desktop/GD32VW553/V1_MQTT_OK/GD32VW55X_Wifi_BLE_SDK/GD32VW55x_RELEASE_V1.0.2/MSDK/cloud/alicloud/src/services/shadow\shadow.c **** {
 139:C:/Users/stapi/OneDrive/Desktop/GD32VW553/V1_MQTT_OK/GD32VW55X_Wifi_BLE_SDK/GD32VW55x_RELEASE_V1.0.2/MSDK/cloud/alicloud/src/services/shadow\shadow.c ****     return iotx_ds_common_format_init((iotx_shadow_pt)pshadow, pformat, buf, size, "update", "\"sta
 140:C:/Users/stapi/OneDrive/Desktop/GD32VW553/V1_MQTT_OK/GD32VW55X_Wifi_BLE_SDK/GD32VW55x_RELEASE_V1.0.2/MSDK/cloud/alicloud/src/services/shadow\shadow.c **** }
 141:C:/Users/stapi/OneDrive/Desktop/GD32VW553/V1_MQTT_OK/GD32VW55X_Wifi_BLE_SDK/GD32VW55x_RELEASE_V1.0.2/MSDK/cloud/alicloud/src/services/shadow\shadow.c **** 
 142:C:/Users/stapi/OneDrive/Desktop/GD32VW553/V1_MQTT_OK/GD32VW55X_Wifi_BLE_SDK/GD32VW55x_RELEASE_V1.0.2/MSDK/cloud/alicloud/src/services/shadow\shadow.c **** 
 143:C:/Users/stapi/OneDrive/Desktop/GD32VW553/V1_MQTT_OK/GD32VW55X_Wifi_BLE_SDK/GD32VW55x_RELEASE_V1.0.2/MSDK/cloud/alicloud/src/services/shadow\shadow.c **** iotx_err_t IOT_Shadow_PushFormat_Add(void *pshadow,
 144:C:/Users/stapi/OneDrive/Desktop/GD32VW553/V1_MQTT_OK/GD32VW55X_Wifi_BLE_SDK/GD32VW55x_RELEASE_V1.0.2/MSDK/cloud/alicloud/src/services/shadow\shadow.c ****                                      format_data_pt pformat,
 145:C:/Users/stapi/OneDrive/Desktop/GD32VW553/V1_MQTT_OK/GD32VW55X_Wifi_BLE_SDK/GD32VW55x_RELEASE_V1.0.2/MSDK/cloud/alicloud/src/services/shadow\shadow.c ****                                      iotx_shadow_attr_pt pattr)
 146:C:/Users/stapi/OneDrive/Desktop/GD32VW553/V1_MQTT_OK/GD32VW55X_Wifi_BLE_SDK/GD32VW55x_RELEASE_V1.0.2/MSDK/cloud/alicloud/src/services/shadow\shadow.c **** {
 147:C:/Users/stapi/OneDrive/Desktop/GD32VW553/V1_MQTT_OK/GD32VW55X_Wifi_BLE_SDK/GD32VW55x_RELEASE_V1.0.2/MSDK/cloud/alicloud/src/services/shadow\shadow.c ****     return iotx_ds_common_format_add((iotx_shadow_pt)pshadow, pformat, pattr->pattr_name, pattr->pa
 148:C:/Users/stapi/OneDrive/Desktop/GD32VW553/V1_MQTT_OK/GD32VW55X_Wifi_BLE_SDK/GD32VW55x_RELEASE_V1.0.2/MSDK/cloud/alicloud/src/services/shadow\shadow.c ****                                      pattr->attr_type);
 149:C:/Users/stapi/OneDrive/Desktop/GD32VW553/V1_MQTT_OK/GD32VW55X_Wifi_BLE_SDK/GD32VW55x_RELEASE_V1.0.2/MSDK/cloud/alicloud/src/services/shadow\shadow.c **** }
 150:C:/Users/stapi/OneDrive/Desktop/GD32VW553/V1_MQTT_OK/GD32VW55X_Wifi_BLE_SDK/GD32VW55x_RELEASE_V1.0.2/MSDK/cloud/alicloud/src/services/shadow\shadow.c **** 
 151:C:/Users/stapi/OneDrive/Desktop/GD32VW553/V1_MQTT_OK/GD32VW55X_Wifi_BLE_SDK/GD32VW55x_RELEASE_V1.0.2/MSDK/cloud/alicloud/src/services/shadow\shadow.c **** 
 152:C:/Users/stapi/OneDrive/Desktop/GD32VW553/V1_MQTT_OK/GD32VW55X_Wifi_BLE_SDK/GD32VW55x_RELEASE_V1.0.2/MSDK/cloud/alicloud/src/services/shadow\shadow.c **** iotx_err_t IOT_Shadow_PushFormat_Finalize(void *pshadow, format_data_pt pformat)
 153:C:/Users/stapi/OneDrive/Desktop/GD32VW553/V1_MQTT_OK/GD32VW55X_Wifi_BLE_SDK/GD32VW55x_RELEASE_V1.0.2/MSDK/cloud/alicloud/src/services/shadow\shadow.c **** {
 154:C:/Users/stapi/OneDrive/Desktop/GD32VW553/V1_MQTT_OK/GD32VW55X_Wifi_BLE_SDK/GD32VW55x_RELEASE_V1.0.2/MSDK/cloud/alicloud/src/services/shadow\shadow.c ****     return iotx_ds_common_format_finalize((iotx_shadow_pt)pshadow, pformat, "}}", 0);
 155:C:/Users/stapi/OneDrive/Desktop/GD32VW553/V1_MQTT_OK/GD32VW55X_Wifi_BLE_SDK/GD32VW55x_RELEASE_V1.0.2/MSDK/cloud/alicloud/src/services/shadow\shadow.c **** }
 156:C:/Users/stapi/OneDrive/Desktop/GD32VW553/V1_MQTT_OK/GD32VW55X_Wifi_BLE_SDK/GD32VW55x_RELEASE_V1.0.2/MSDK/cloud/alicloud/src/services/shadow\shadow.c **** 
 157:C:/Users/stapi/OneDrive/Desktop/GD32VW553/V1_MQTT_OK/GD32VW55X_Wifi_BLE_SDK/GD32VW55x_RELEASE_V1.0.2/MSDK/cloud/alicloud/src/services/shadow\shadow.c **** 
 158:C:/Users/stapi/OneDrive/Desktop/GD32VW553/V1_MQTT_OK/GD32VW55X_Wifi_BLE_SDK/GD32VW55x_RELEASE_V1.0.2/MSDK/cloud/alicloud/src/services/shadow\shadow.c **** int IOT_Shadow_Push_Async(
 159:C:/Users/stapi/OneDrive/Desktop/GD32VW553/V1_MQTT_OK/GD32VW55X_Wifi_BLE_SDK/GD32VW55x_RELEASE_V1.0.2/MSDK/cloud/alicloud/src/services/shadow\shadow.c ****             void *handle,
 160:C:/Users/stapi/OneDrive/Desktop/GD32VW553/V1_MQTT_OK/GD32VW55X_Wifi_BLE_SDK/GD32VW55x_RELEASE_V1.0.2/MSDK/cloud/alicloud/src/services/shadow\shadow.c ****             char *data,
 161:C:/Users/stapi/OneDrive/Desktop/GD32VW553/V1_MQTT_OK/GD32VW55X_Wifi_BLE_SDK/GD32VW55x_RELEASE_V1.0.2/MSDK/cloud/alicloud/src/services/shadow\shadow.c ****             unsigned int data_len,
 162:C:/Users/stapi/OneDrive/Desktop/GD32VW553/V1_MQTT_OK/GD32VW55X_Wifi_BLE_SDK/GD32VW55x_RELEASE_V1.0.2/MSDK/cloud/alicloud/src/services/shadow\shadow.c ****             uint16_t timeout_s,
 163:C:/Users/stapi/OneDrive/Desktop/GD32VW553/V1_MQTT_OK/GD32VW55X_Wifi_BLE_SDK/GD32VW55x_RELEASE_V1.0.2/MSDK/cloud/alicloud/src/services/shadow\shadow.c ****             iotx_push_cb_fpt cb_fpt,
 164:C:/Users/stapi/OneDrive/Desktop/GD32VW553/V1_MQTT_OK/GD32VW55X_Wifi_BLE_SDK/GD32VW55x_RELEASE_V1.0.2/MSDK/cloud/alicloud/src/services/shadow\shadow.c ****             void *pcontext)
 165:C:/Users/stapi/OneDrive/Desktop/GD32VW553/V1_MQTT_OK/GD32VW55X_Wifi_BLE_SDK/GD32VW55x_RELEASE_V1.0.2/MSDK/cloud/alicloud/src/services/shadow\shadow.c **** {
 166:C:/Users/stapi/OneDrive/Desktop/GD32VW553/V1_MQTT_OK/GD32VW55X_Wifi_BLE_SDK/GD32VW55x_RELEASE_V1.0.2/MSDK/cloud/alicloud/src/services/shadow\shadow.c ****     int rc = SUCCESS_RETURN;
 167:C:/Users/stapi/OneDrive/Desktop/GD32VW553/V1_MQTT_OK/GD32VW55X_Wifi_BLE_SDK/GD32VW55x_RELEASE_V1.0.2/MSDK/cloud/alicloud/src/services/shadow\shadow.c ****     iotx_update_ack_wait_list_pt pelement;
 168:C:/Users/stapi/OneDrive/Desktop/GD32VW553/V1_MQTT_OK/GD32VW55X_Wifi_BLE_SDK/GD32VW55x_RELEASE_V1.0.2/MSDK/cloud/alicloud/src/services/shadow\shadow.c ****     const char *ptoken;
 169:C:/Users/stapi/OneDrive/Desktop/GD32VW553/V1_MQTT_OK/GD32VW55X_Wifi_BLE_SDK/GD32VW55x_RELEASE_V1.0.2/MSDK/cloud/alicloud/src/services/shadow\shadow.c ****     iotx_shadow_pt pshadow = (iotx_shadow_pt)handle;
 170:C:/Users/stapi/OneDrive/Desktop/GD32VW553/V1_MQTT_OK/GD32VW55X_Wifi_BLE_SDK/GD32VW55x_RELEASE_V1.0.2/MSDK/cloud/alicloud/src/services/shadow\shadow.c **** 
 171:C:/Users/stapi/OneDrive/Desktop/GD32VW553/V1_MQTT_OK/GD32VW55X_Wifi_BLE_SDK/GD32VW55x_RELEASE_V1.0.2/MSDK/cloud/alicloud/src/services/shadow\shadow.c ****     if ((NULL == handle) || (NULL == data)) {
 172:C:/Users/stapi/OneDrive/Desktop/GD32VW553/V1_MQTT_OK/GD32VW55X_Wifi_BLE_SDK/GD32VW55x_RELEASE_V1.0.2/MSDK/cloud/alicloud/src/services/shadow\shadow.c ****         return NULL_VALUE_ERROR;
 173:C:/Users/stapi/OneDrive/Desktop/GD32VW553/V1_MQTT_OK/GD32VW55X_Wifi_BLE_SDK/GD32VW55x_RELEASE_V1.0.2/MSDK/cloud/alicloud/src/services/shadow\shadow.c ****     }
 174:C:/Users/stapi/OneDrive/Desktop/GD32VW553/V1_MQTT_OK/GD32VW55X_Wifi_BLE_SDK/GD32VW55x_RELEASE_V1.0.2/MSDK/cloud/alicloud/src/services/shadow\shadow.c **** 
 175:C:/Users/stapi/OneDrive/Desktop/GD32VW553/V1_MQTT_OK/GD32VW55X_Wifi_BLE_SDK/GD32VW55x_RELEASE_V1.0.2/MSDK/cloud/alicloud/src/services/shadow\shadow.c ****     if (!IOT_MQTT_CheckStateNormal(pshadow->mqtt)) {
 176:C:/Users/stapi/OneDrive/Desktop/GD32VW553/V1_MQTT_OK/GD32VW55X_Wifi_BLE_SDK/GD32VW55x_RELEASE_V1.0.2/MSDK/cloud/alicloud/src/services/shadow\shadow.c ****         shadow_err("The MQTT connection must be established before UPDATE data.");
 177:C:/Users/stapi/OneDrive/Desktop/GD32VW553/V1_MQTT_OK/GD32VW55X_Wifi_BLE_SDK/GD32VW55x_RELEASE_V1.0.2/MSDK/cloud/alicloud/src/services/shadow\shadow.c ****         return ERROR_SHADOW_INVALID_STATE;
 178:C:/Users/stapi/OneDrive/Desktop/GD32VW553/V1_MQTT_OK/GD32VW55X_Wifi_BLE_SDK/GD32VW55x_RELEASE_V1.0.2/MSDK/cloud/alicloud/src/services/shadow\shadow.c ****     }
 179:C:/Users/stapi/OneDrive/Desktop/GD32VW553/V1_MQTT_OK/GD32VW55X_Wifi_BLE_SDK/GD32VW55x_RELEASE_V1.0.2/MSDK/cloud/alicloud/src/services/shadow\shadow.c **** 
 180:C:/Users/stapi/OneDrive/Desktop/GD32VW553/V1_MQTT_OK/GD32VW55X_Wifi_BLE_SDK/GD32VW55x_RELEASE_V1.0.2/MSDK/cloud/alicloud/src/services/shadow\shadow.c ****     /*Add to callback list */
 181:C:/Users/stapi/OneDrive/Desktop/GD32VW553/V1_MQTT_OK/GD32VW55X_Wifi_BLE_SDK/GD32VW55x_RELEASE_V1.0.2/MSDK/cloud/alicloud/src/services/shadow\shadow.c **** 
 182:C:/Users/stapi/OneDrive/Desktop/GD32VW553/V1_MQTT_OK/GD32VW55X_Wifi_BLE_SDK/GD32VW55x_RELEASE_V1.0.2/MSDK/cloud/alicloud/src/services/shadow\shadow.c ****     shadow_debug("data(%d) = %s", (int)data_len, data);
 183:C:/Users/stapi/OneDrive/Desktop/GD32VW553/V1_MQTT_OK/GD32VW55X_Wifi_BLE_SDK/GD32VW55x_RELEASE_V1.0.2/MSDK/cloud/alicloud/src/services/shadow\shadow.c ****     ptoken = LITE_json_value_of((char *)"clientToken", (char *)data);
 184:C:/Users/stapi/OneDrive/Desktop/GD32VW553/V1_MQTT_OK/GD32VW55X_Wifi_BLE_SDK/GD32VW55x_RELEASE_V1.0.2/MSDK/cloud/alicloud/src/services/shadow\shadow.c **** 
 185:C:/Users/stapi/OneDrive/Desktop/GD32VW553/V1_MQTT_OK/GD32VW55X_Wifi_BLE_SDK/GD32VW55x_RELEASE_V1.0.2/MSDK/cloud/alicloud/src/services/shadow\shadow.c ****     LITE_ASSERT(NULL != ptoken);
 186:C:/Users/stapi/OneDrive/Desktop/GD32VW553/V1_MQTT_OK/GD32VW55X_Wifi_BLE_SDK/GD32VW55x_RELEASE_V1.0.2/MSDK/cloud/alicloud/src/services/shadow\shadow.c **** 
 187:C:/Users/stapi/OneDrive/Desktop/GD32VW553/V1_MQTT_OK/GD32VW55X_Wifi_BLE_SDK/GD32VW55x_RELEASE_V1.0.2/MSDK/cloud/alicloud/src/services/shadow\shadow.c ****     pelement = iotx_shadow_update_wait_ack_list_add(pshadow, ptoken, strlen(ptoken), cb_fpt, pconte
 188:C:/Users/stapi/OneDrive/Desktop/GD32VW553/V1_MQTT_OK/GD32VW55X_Wifi_BLE_SDK/GD32VW55x_RELEASE_V1.0.2/MSDK/cloud/alicloud/src/services/shadow\shadow.c ****     if (NULL == pelement) {
 189:C:/Users/stapi/OneDrive/Desktop/GD32VW553/V1_MQTT_OK/GD32VW55X_Wifi_BLE_SDK/GD32VW55x_RELEASE_V1.0.2/MSDK/cloud/alicloud/src/services/shadow\shadow.c ****         LITE_free(ptoken);
 190:C:/Users/stapi/OneDrive/Desktop/GD32VW553/V1_MQTT_OK/GD32VW55X_Wifi_BLE_SDK/GD32VW55x_RELEASE_V1.0.2/MSDK/cloud/alicloud/src/services/shadow\shadow.c ****         return ERROR_SHADOW_WAIT_LIST_OVERFLOW;
 191:C:/Users/stapi/OneDrive/Desktop/GD32VW553/V1_MQTT_OK/GD32VW55X_Wifi_BLE_SDK/GD32VW55x_RELEASE_V1.0.2/MSDK/cloud/alicloud/src/services/shadow\shadow.c ****     }
 192:C:/Users/stapi/OneDrive/Desktop/GD32VW553/V1_MQTT_OK/GD32VW55X_Wifi_BLE_SDK/GD32VW55x_RELEASE_V1.0.2/MSDK/cloud/alicloud/src/services/shadow\shadow.c ****     LITE_free(ptoken);
 193:C:/Users/stapi/OneDrive/Desktop/GD32VW553/V1_MQTT_OK/GD32VW55X_Wifi_BLE_SDK/GD32VW55x_RELEASE_V1.0.2/MSDK/cloud/alicloud/src/services/shadow\shadow.c **** 
 194:C:/Users/stapi/OneDrive/Desktop/GD32VW553/V1_MQTT_OK/GD32VW55X_Wifi_BLE_SDK/GD32VW55x_RELEASE_V1.0.2/MSDK/cloud/alicloud/src/services/shadow\shadow.c ****     if ((rc = iotx_ds_common_publish2update(pshadow, data, data_len)) < 0) {
 195:C:/Users/stapi/OneDrive/Desktop/GD32VW553/V1_MQTT_OK/GD32VW55X_Wifi_BLE_SDK/GD32VW55x_RELEASE_V1.0.2/MSDK/cloud/alicloud/src/services/shadow\shadow.c ****         iotx_shadow_update_wait_ack_list_remove(pshadow, pelement);
 196:C:/Users/stapi/OneDrive/Desktop/GD32VW553/V1_MQTT_OK/GD32VW55X_Wifi_BLE_SDK/GD32VW55x_RELEASE_V1.0.2/MSDK/cloud/alicloud/src/services/shadow\shadow.c ****         return rc;
 197:C:/Users/stapi/OneDrive/Desktop/GD32VW553/V1_MQTT_OK/GD32VW55X_Wifi_BLE_SDK/GD32VW55x_RELEASE_V1.0.2/MSDK/cloud/alicloud/src/services/shadow\shadow.c ****     }
 198:C:/Users/stapi/OneDrive/Desktop/GD32VW553/V1_MQTT_OK/GD32VW55X_Wifi_BLE_SDK/GD32VW55x_RELEASE_V1.0.2/MSDK/cloud/alicloud/src/services/shadow\shadow.c **** 
 199:C:/Users/stapi/OneDrive/Desktop/GD32VW553/V1_MQTT_OK/GD32VW55X_Wifi_BLE_SDK/GD32VW55x_RELEASE_V1.0.2/MSDK/cloud/alicloud/src/services/shadow\shadow.c ****     return SUCCESS_RETURN;
 200:C:/Users/stapi/OneDrive/Desktop/GD32VW553/V1_MQTT_OK/GD32VW55X_Wifi_BLE_SDK/GD32VW55x_RELEASE_V1.0.2/MSDK/cloud/alicloud/src/services/shadow\shadow.c **** }
 201:C:/Users/stapi/OneDrive/Desktop/GD32VW553/V1_MQTT_OK/GD32VW55X_Wifi_BLE_SDK/GD32VW55x_RELEASE_V1.0.2/MSDK/cloud/alicloud/src/services/shadow\shadow.c **** 
 202:C:/Users/stapi/OneDrive/Desktop/GD32VW553/V1_MQTT_OK/GD32VW55X_Wifi_BLE_SDK/GD32VW55x_RELEASE_V1.0.2/MSDK/cloud/alicloud/src/services/shadow\shadow.c **** 
 203:C:/Users/stapi/OneDrive/Desktop/GD32VW553/V1_MQTT_OK/GD32VW55X_Wifi_BLE_SDK/GD32VW55x_RELEASE_V1.0.2/MSDK/cloud/alicloud/src/services/shadow\shadow.c **** 
 204:C:/Users/stapi/OneDrive/Desktop/GD32VW553/V1_MQTT_OK/GD32VW55X_Wifi_BLE_SDK/GD32VW55x_RELEASE_V1.0.2/MSDK/cloud/alicloud/src/services/shadow\shadow.c **** static void iotx_update_ack_cb(
 205:C:/Users/stapi/OneDrive/Desktop/GD32VW553/V1_MQTT_OK/GD32VW55X_Wifi_BLE_SDK/GD32VW55x_RELEASE_V1.0.2/MSDK/cloud/alicloud/src/services/shadow\shadow.c ****             void *pcontext,
 206:C:/Users/stapi/OneDrive/Desktop/GD32VW553/V1_MQTT_OK/GD32VW55X_Wifi_BLE_SDK/GD32VW55x_RELEASE_V1.0.2/MSDK/cloud/alicloud/src/services/shadow\shadow.c ****             int ack_code,
 207:C:/Users/stapi/OneDrive/Desktop/GD32VW553/V1_MQTT_OK/GD32VW55X_Wifi_BLE_SDK/GD32VW55x_RELEASE_V1.0.2/MSDK/cloud/alicloud/src/services/shadow\shadow.c ****             const char *ack_msg, /* NOTE: NOT a string. */
 208:C:/Users/stapi/OneDrive/Desktop/GD32VW553/V1_MQTT_OK/GD32VW55X_Wifi_BLE_SDK/GD32VW55x_RELEASE_V1.0.2/MSDK/cloud/alicloud/src/services/shadow\shadow.c ****             uint32_t ack_msg_len)
 209:C:/Users/stapi/OneDrive/Desktop/GD32VW553/V1_MQTT_OK/GD32VW55X_Wifi_BLE_SDK/GD32VW55x_RELEASE_V1.0.2/MSDK/cloud/alicloud/src/services/shadow\shadow.c **** {
 210:C:/Users/stapi/OneDrive/Desktop/GD32VW553/V1_MQTT_OK/GD32VW55X_Wifi_BLE_SDK/GD32VW55x_RELEASE_V1.0.2/MSDK/cloud/alicloud/src/services/shadow\shadow.c ****     shadow_debug("ack_code=%d", ack_code);
 211:C:/Users/stapi/OneDrive/Desktop/GD32VW553/V1_MQTT_OK/GD32VW55X_Wifi_BLE_SDK/GD32VW55x_RELEASE_V1.0.2/MSDK/cloud/alicloud/src/services/shadow\shadow.c **** 
 212:C:/Users/stapi/OneDrive/Desktop/GD32VW553/V1_MQTT_OK/GD32VW55X_Wifi_BLE_SDK/GD32VW55x_RELEASE_V1.0.2/MSDK/cloud/alicloud/src/services/shadow\shadow.c ****     if (NULL != ack_msg) {
 213:C:/Users/stapi/OneDrive/Desktop/GD32VW553/V1_MQTT_OK/GD32VW55X_Wifi_BLE_SDK/GD32VW55x_RELEASE_V1.0.2/MSDK/cloud/alicloud/src/services/shadow\shadow.c ****         shadow_debug("ack_msg=%.*s", ack_msg_len, ack_msg);
 214:C:/Users/stapi/OneDrive/Desktop/GD32VW553/V1_MQTT_OK/GD32VW55X_Wifi_BLE_SDK/GD32VW55x_RELEASE_V1.0.2/MSDK/cloud/alicloud/src/services/shadow\shadow.c ****     } else {
 215:C:/Users/stapi/OneDrive/Desktop/GD32VW553/V1_MQTT_OK/GD32VW55X_Wifi_BLE_SDK/GD32VW55x_RELEASE_V1.0.2/MSDK/cloud/alicloud/src/services/shadow\shadow.c ****         shadow_debug("ack_msg is NULL");
 216:C:/Users/stapi/OneDrive/Desktop/GD32VW553/V1_MQTT_OK/GD32VW55X_Wifi_BLE_SDK/GD32VW55x_RELEASE_V1.0.2/MSDK/cloud/alicloud/src/services/shadow\shadow.c ****     }
 217:C:/Users/stapi/OneDrive/Desktop/GD32VW553/V1_MQTT_OK/GD32VW55X_Wifi_BLE_SDK/GD32VW55x_RELEASE_V1.0.2/MSDK/cloud/alicloud/src/services/shadow\shadow.c **** 
 218:C:/Users/stapi/OneDrive/Desktop/GD32VW553/V1_MQTT_OK/GD32VW55X_Wifi_BLE_SDK/GD32VW55x_RELEASE_V1.0.2/MSDK/cloud/alicloud/src/services/shadow\shadow.c ****     //*((int *)pcontext) = ack_code;
 219:C:/Users/stapi/OneDrive/Desktop/GD32VW553/V1_MQTT_OK/GD32VW55X_Wifi_BLE_SDK/GD32VW55x_RELEASE_V1.0.2/MSDK/cloud/alicloud/src/services/shadow\shadow.c **** }
 220:C:/Users/stapi/OneDrive/Desktop/GD32VW553/V1_MQTT_OK/GD32VW55X_Wifi_BLE_SDK/GD32VW55x_RELEASE_V1.0.2/MSDK/cloud/alicloud/src/services/shadow\shadow.c **** 
 221:C:/Users/stapi/OneDrive/Desktop/GD32VW553/V1_MQTT_OK/GD32VW55X_Wifi_BLE_SDK/GD32VW55x_RELEASE_V1.0.2/MSDK/cloud/alicloud/src/services/shadow\shadow.c **** 
 222:C:/Users/stapi/OneDrive/Desktop/GD32VW553/V1_MQTT_OK/GD32VW55X_Wifi_BLE_SDK/GD32VW55x_RELEASE_V1.0.2/MSDK/cloud/alicloud/src/services/shadow\shadow.c **** iotx_err_t IOT_Shadow_Push(
 223:C:/Users/stapi/OneDrive/Desktop/GD32VW553/V1_MQTT_OK/GD32VW55X_Wifi_BLE_SDK/GD32VW55x_RELEASE_V1.0.2/MSDK/cloud/alicloud/src/services/shadow\shadow.c ****             void *handle,
 224:C:/Users/stapi/OneDrive/Desktop/GD32VW553/V1_MQTT_OK/GD32VW55X_Wifi_BLE_SDK/GD32VW55x_RELEASE_V1.0.2/MSDK/cloud/alicloud/src/services/shadow\shadow.c ****             char *data,
 225:C:/Users/stapi/OneDrive/Desktop/GD32VW553/V1_MQTT_OK/GD32VW55X_Wifi_BLE_SDK/GD32VW55x_RELEASE_V1.0.2/MSDK/cloud/alicloud/src/services/shadow\shadow.c ****             uint32_t data_len,
 226:C:/Users/stapi/OneDrive/Desktop/GD32VW553/V1_MQTT_OK/GD32VW55X_Wifi_BLE_SDK/GD32VW55x_RELEASE_V1.0.2/MSDK/cloud/alicloud/src/services/shadow\shadow.c ****             uint16_t timeout_s)
 227:C:/Users/stapi/OneDrive/Desktop/GD32VW553/V1_MQTT_OK/GD32VW55X_Wifi_BLE_SDK/GD32VW55x_RELEASE_V1.0.2/MSDK/cloud/alicloud/src/services/shadow\shadow.c **** {
 228:C:/Users/stapi/OneDrive/Desktop/GD32VW553/V1_MQTT_OK/GD32VW55X_Wifi_BLE_SDK/GD32VW55x_RELEASE_V1.0.2/MSDK/cloud/alicloud/src/services/shadow\shadow.c ****     iotx_shadow_ack_code_t ack_update = IOTX_SHADOW_ACK_NONE;
 229:C:/Users/stapi/OneDrive/Desktop/GD32VW553/V1_MQTT_OK/GD32VW55X_Wifi_BLE_SDK/GD32VW55x_RELEASE_V1.0.2/MSDK/cloud/alicloud/src/services/shadow\shadow.c ****     iotx_shadow_pt pshadow = (iotx_shadow_pt)handle;
 230:C:/Users/stapi/OneDrive/Desktop/GD32VW553/V1_MQTT_OK/GD32VW55X_Wifi_BLE_SDK/GD32VW55x_RELEASE_V1.0.2/MSDK/cloud/alicloud/src/services/shadow\shadow.c ****     int ret;
 231:C:/Users/stapi/OneDrive/Desktop/GD32VW553/V1_MQTT_OK/GD32VW55X_Wifi_BLE_SDK/GD32VW55x_RELEASE_V1.0.2/MSDK/cloud/alicloud/src/services/shadow\shadow.c ****     int cnt = 0;
 232:C:/Users/stapi/OneDrive/Desktop/GD32VW553/V1_MQTT_OK/GD32VW55X_Wifi_BLE_SDK/GD32VW55x_RELEASE_V1.0.2/MSDK/cloud/alicloud/src/services/shadow\shadow.c ****     if ((NULL == pshadow) || (NULL == data)) {
 233:C:/Users/stapi/OneDrive/Desktop/GD32VW553/V1_MQTT_OK/GD32VW55X_Wifi_BLE_SDK/GD32VW55x_RELEASE_V1.0.2/MSDK/cloud/alicloud/src/services/shadow\shadow.c ****         return NULL_VALUE_ERROR;
 234:C:/Users/stapi/OneDrive/Desktop/GD32VW553/V1_MQTT_OK/GD32VW55X_Wifi_BLE_SDK/GD32VW55x_RELEASE_V1.0.2/MSDK/cloud/alicloud/src/services/shadow\shadow.c ****     }
 235:C:/Users/stapi/OneDrive/Desktop/GD32VW553/V1_MQTT_OK/GD32VW55X_Wifi_BLE_SDK/GD32VW55x_RELEASE_V1.0.2/MSDK/cloud/alicloud/src/services/shadow\shadow.c **** 
 236:C:/Users/stapi/OneDrive/Desktop/GD32VW553/V1_MQTT_OK/GD32VW55X_Wifi_BLE_SDK/GD32VW55x_RELEASE_V1.0.2/MSDK/cloud/alicloud/src/services/shadow\shadow.c ****     if (!IOT_MQTT_CheckStateNormal(pshadow->mqtt)) {
 237:C:/Users/stapi/OneDrive/Desktop/GD32VW553/V1_MQTT_OK/GD32VW55X_Wifi_BLE_SDK/GD32VW55x_RELEASE_V1.0.2/MSDK/cloud/alicloud/src/services/shadow\shadow.c ****         shadow_err("The MQTT connection must be established before UPDATE data.");
 238:C:/Users/stapi/OneDrive/Desktop/GD32VW553/V1_MQTT_OK/GD32VW55X_Wifi_BLE_SDK/GD32VW55x_RELEASE_V1.0.2/MSDK/cloud/alicloud/src/services/shadow\shadow.c ****         return ERROR_SHADOW_INVALID_STATE;
 239:C:/Users/stapi/OneDrive/Desktop/GD32VW553/V1_MQTT_OK/GD32VW55X_Wifi_BLE_SDK/GD32VW55x_RELEASE_V1.0.2/MSDK/cloud/alicloud/src/services/shadow\shadow.c ****     }
 240:C:/Users/stapi/OneDrive/Desktop/GD32VW553/V1_MQTT_OK/GD32VW55X_Wifi_BLE_SDK/GD32VW55x_RELEASE_V1.0.2/MSDK/cloud/alicloud/src/services/shadow\shadow.c **** 
 241:C:/Users/stapi/OneDrive/Desktop/GD32VW553/V1_MQTT_OK/GD32VW55X_Wifi_BLE_SDK/GD32VW55x_RELEASE_V1.0.2/MSDK/cloud/alicloud/src/services/shadow\shadow.c ****     /* update asynchronously */
 242:C:/Users/stapi/OneDrive/Desktop/GD32VW553/V1_MQTT_OK/GD32VW55X_Wifi_BLE_SDK/GD32VW55x_RELEASE_V1.0.2/MSDK/cloud/alicloud/src/services/shadow\shadow.c ****     ret = IOT_Shadow_Push_Async(pshadow, data, data_len, timeout_s, iotx_update_ack_cb, &ack_update
 243:C:/Users/stapi/OneDrive/Desktop/GD32VW553/V1_MQTT_OK/GD32VW55X_Wifi_BLE_SDK/GD32VW55x_RELEASE_V1.0.2/MSDK/cloud/alicloud/src/services/shadow\shadow.c ****     if(SUCCESS_RETURN != ret) {
 244:C:/Users/stapi/OneDrive/Desktop/GD32VW553/V1_MQTT_OK/GD32VW55X_Wifi_BLE_SDK/GD32VW55x_RELEASE_V1.0.2/MSDK/cloud/alicloud/src/services/shadow\shadow.c ****         return ret;
 245:C:/Users/stapi/OneDrive/Desktop/GD32VW553/V1_MQTT_OK/GD32VW55X_Wifi_BLE_SDK/GD32VW55x_RELEASE_V1.0.2/MSDK/cloud/alicloud/src/services/shadow\shadow.c ****     }
 246:C:/Users/stapi/OneDrive/Desktop/GD32VW553/V1_MQTT_OK/GD32VW55X_Wifi_BLE_SDK/GD32VW55x_RELEASE_V1.0.2/MSDK/cloud/alicloud/src/services/shadow\shadow.c ****     /* wait ACK */
 247:C:/Users/stapi/OneDrive/Desktop/GD32VW553/V1_MQTT_OK/GD32VW55X_Wifi_BLE_SDK/GD32VW55x_RELEASE_V1.0.2/MSDK/cloud/alicloud/src/services/shadow\shadow.c ****     while (IOTX_SHADOW_ACK_NONE == ack_update) {
 248:C:/Users/stapi/OneDrive/Desktop/GD32VW553/V1_MQTT_OK/GD32VW55X_Wifi_BLE_SDK/GD32VW55x_RELEASE_V1.0.2/MSDK/cloud/alicloud/src/services/shadow\shadow.c ****         IOT_Shadow_Yield(pshadow, 200);
 249:C:/Users/stapi/OneDrive/Desktop/GD32VW553/V1_MQTT_OK/GD32VW55X_Wifi_BLE_SDK/GD32VW55x_RELEASE_V1.0.2/MSDK/cloud/alicloud/src/services/shadow\shadow.c ****         if(cnt ++ == 100) {
 250:C:/Users/stapi/OneDrive/Desktop/GD32VW553/V1_MQTT_OK/GD32VW55X_Wifi_BLE_SDK/GD32VW55x_RELEASE_V1.0.2/MSDK/cloud/alicloud/src/services/shadow\shadow.c ****             return ERROR_SHADOW_UPDATE_TIMEOUT;
 251:C:/Users/stapi/OneDrive/Desktop/GD32VW553/V1_MQTT_OK/GD32VW55X_Wifi_BLE_SDK/GD32VW55x_RELEASE_V1.0.2/MSDK/cloud/alicloud/src/services/shadow\shadow.c ****         }
 252:C:/Users/stapi/OneDrive/Desktop/GD32VW553/V1_MQTT_OK/GD32VW55X_Wifi_BLE_SDK/GD32VW55x_RELEASE_V1.0.2/MSDK/cloud/alicloud/src/services/shadow\shadow.c ****     }
 253:C:/Users/stapi/OneDrive/Desktop/GD32VW553/V1_MQTT_OK/GD32VW55X_Wifi_BLE_SDK/GD32VW55x_RELEASE_V1.0.2/MSDK/cloud/alicloud/src/services/shadow\shadow.c **** 
 254:C:/Users/stapi/OneDrive/Desktop/GD32VW553/V1_MQTT_OK/GD32VW55X_Wifi_BLE_SDK/GD32VW55x_RELEASE_V1.0.2/MSDK/cloud/alicloud/src/services/shadow\shadow.c ****     if ((IOTX_SHADOW_ACK_SUCCESS == ack_update)
 255:C:/Users/stapi/OneDrive/Desktop/GD32VW553/V1_MQTT_OK/GD32VW55X_Wifi_BLE_SDK/GD32VW55x_RELEASE_V1.0.2/MSDK/cloud/alicloud/src/services/shadow\shadow.c ****         || (IOTX_SHADOW_ACK_ERR_SHADOW_DOCUMENT_IS_NULL == ack_update)) {
 256:C:/Users/stapi/OneDrive/Desktop/GD32VW553/V1_MQTT_OK/GD32VW55X_Wifi_BLE_SDK/GD32VW55x_RELEASE_V1.0.2/MSDK/cloud/alicloud/src/services/shadow\shadow.c ****         /* It is not the error that device shadow document is null */
 257:C:/Users/stapi/OneDrive/Desktop/GD32VW553/V1_MQTT_OK/GD32VW55X_Wifi_BLE_SDK/GD32VW55x_RELEASE_V1.0.2/MSDK/cloud/alicloud/src/services/shadow\shadow.c ****         shadow_info("update success.");
 258:C:/Users/stapi/OneDrive/Desktop/GD32VW553/V1_MQTT_OK/GD32VW55X_Wifi_BLE_SDK/GD32VW55x_RELEASE_V1.0.2/MSDK/cloud/alicloud/src/services/shadow\shadow.c ****         return SUCCESS_RETURN;
 259:C:/Users/stapi/OneDrive/Desktop/GD32VW553/V1_MQTT_OK/GD32VW55X_Wifi_BLE_SDK/GD32VW55x_RELEASE_V1.0.2/MSDK/cloud/alicloud/src/services/shadow\shadow.c ****     } else if (IOTX_SHADOW_ACK_TIMEOUT == ack_update) {
 260:C:/Users/stapi/OneDrive/Desktop/GD32VW553/V1_MQTT_OK/GD32VW55X_Wifi_BLE_SDK/GD32VW55x_RELEASE_V1.0.2/MSDK/cloud/alicloud/src/services/shadow\shadow.c ****         shadow_info("update timeout.");
 261:C:/Users/stapi/OneDrive/Desktop/GD32VW553/V1_MQTT_OK/GD32VW55X_Wifi_BLE_SDK/GD32VW55x_RELEASE_V1.0.2/MSDK/cloud/alicloud/src/services/shadow\shadow.c ****         return ERROR_SHADOW_UPDATE_TIMEOUT;
 262:C:/Users/stapi/OneDrive/Desktop/GD32VW553/V1_MQTT_OK/GD32VW55X_Wifi_BLE_SDK/GD32VW55x_RELEASE_V1.0.2/MSDK/cloud/alicloud/src/services/shadow\shadow.c ****     } else {
 263:C:/Users/stapi/OneDrive/Desktop/GD32VW553/V1_MQTT_OK/GD32VW55X_Wifi_BLE_SDK/GD32VW55x_RELEASE_V1.0.2/MSDK/cloud/alicloud/src/services/shadow\shadow.c ****         shadow_info("update negative ack.");
 264:C:/Users/stapi/OneDrive/Desktop/GD32VW553/V1_MQTT_OK/GD32VW55X_Wifi_BLE_SDK/GD32VW55x_RELEASE_V1.0.2/MSDK/cloud/alicloud/src/services/shadow\shadow.c ****         return ERROR_SHADOW_UPDATE_NACK;
 265:C:/Users/stapi/OneDrive/Desktop/GD32VW553/V1_MQTT_OK/GD32VW55X_Wifi_BLE_SDK/GD32VW55x_RELEASE_V1.0.2/MSDK/cloud/alicloud/src/services/shadow\shadow.c ****     }
 266:C:/Users/stapi/OneDrive/Desktop/GD32VW553/V1_MQTT_OK/GD32VW55X_Wifi_BLE_SDK/GD32VW55x_RELEASE_V1.0.2/MSDK/cloud/alicloud/src/services/shadow\shadow.c **** }
 267:C:/Users/stapi/OneDrive/Desktop/GD32VW553/V1_MQTT_OK/GD32VW55X_Wifi_BLE_SDK/GD32VW55x_RELEASE_V1.0.2/MSDK/cloud/alicloud/src/services/shadow\shadow.c **** 
 268:C:/Users/stapi/OneDrive/Desktop/GD32VW553/V1_MQTT_OK/GD32VW55X_Wifi_BLE_SDK/GD32VW55x_RELEASE_V1.0.2/MSDK/cloud/alicloud/src/services/shadow\shadow.c **** #if 0
 269:C:/Users/stapi/OneDrive/Desktop/GD32VW553/V1_MQTT_OK/GD32VW55X_Wifi_BLE_SDK/GD32VW55x_RELEASE_V1.0.2/MSDK/cloud/alicloud/src/services/shadow\shadow.c **** iotx_err_t IOT_Shadow_Pull(void *handle)
 270:C:/Users/stapi/OneDrive/Desktop/GD32VW553/V1_MQTT_OK/GD32VW55X_Wifi_BLE_SDK/GD32VW55x_RELEASE_V1.0.2/MSDK/cloud/alicloud/src/services/shadow\shadow.c **** {
 271:C:/Users/stapi/OneDrive/Desktop/GD32VW553/V1_MQTT_OK/GD32VW55X_Wifi_BLE_SDK/GD32VW55x_RELEASE_V1.0.2/MSDK/cloud/alicloud/src/services/shadow\shadow.c **** #define SHADOW_SYNC_MSG_SIZE      (256)
 272:C:/Users/stapi/OneDrive/Desktop/GD32VW553/V1_MQTT_OK/GD32VW55X_Wifi_BLE_SDK/GD32VW55x_RELEASE_V1.0.2/MSDK/cloud/alicloud/src/services/shadow\shadow.c **** 
 273:C:/Users/stapi/OneDrive/Desktop/GD32VW553/V1_MQTT_OK/GD32VW55X_Wifi_BLE_SDK/GD32VW55x_RELEASE_V1.0.2/MSDK/cloud/alicloud/src/services/shadow\shadow.c ****     iotx_err_t ret;
 274:C:/Users/stapi/OneDrive/Desktop/GD32VW553/V1_MQTT_OK/GD32VW55X_Wifi_BLE_SDK/GD32VW55x_RELEASE_V1.0.2/MSDK/cloud/alicloud/src/services/shadow\shadow.c ****     void *buf;
 275:C:/Users/stapi/OneDrive/Desktop/GD32VW553/V1_MQTT_OK/GD32VW55X_Wifi_BLE_SDK/GD32VW55x_RELEASE_V1.0.2/MSDK/cloud/alicloud/src/services/shadow\shadow.c ****     format_data_t format;
 276:C:/Users/stapi/OneDrive/Desktop/GD32VW553/V1_MQTT_OK/GD32VW55X_Wifi_BLE_SDK/GD32VW55x_RELEASE_V1.0.2/MSDK/cloud/alicloud/src/services/shadow\shadow.c ****     iotx_shadow_pt pshadow = (iotx_shadow_pt)handle;
 277:C:/Users/stapi/OneDrive/Desktop/GD32VW553/V1_MQTT_OK/GD32VW55X_Wifi_BLE_SDK/GD32VW55x_RELEASE_V1.0.2/MSDK/cloud/alicloud/src/services/shadow\shadow.c **** 
 278:C:/Users/stapi/OneDrive/Desktop/GD32VW553/V1_MQTT_OK/GD32VW55X_Wifi_BLE_SDK/GD32VW55x_RELEASE_V1.0.2/MSDK/cloud/alicloud/src/services/shadow\shadow.c ****     shadow_info("Device Shadow sync start.");
 279:C:/Users/stapi/OneDrive/Desktop/GD32VW553/V1_MQTT_OK/GD32VW55X_Wifi_BLE_SDK/GD32VW55x_RELEASE_V1.0.2/MSDK/cloud/alicloud/src/services/shadow\shadow.c **** 
 280:C:/Users/stapi/OneDrive/Desktop/GD32VW553/V1_MQTT_OK/GD32VW55X_Wifi_BLE_SDK/GD32VW55x_RELEASE_V1.0.2/MSDK/cloud/alicloud/src/services/shadow\shadow.c ****     buf = SHADOW_malloc(SHADOW_SYNC_MSG_SIZE);
 281:C:/Users/stapi/OneDrive/Desktop/GD32VW553/V1_MQTT_OK/GD32VW55X_Wifi_BLE_SDK/GD32VW55x_RELEASE_V1.0.2/MSDK/cloud/alicloud/src/services/shadow\shadow.c ****     if (NULL == buf) {
 282:C:/Users/stapi/OneDrive/Desktop/GD32VW553/V1_MQTT_OK/GD32VW55X_Wifi_BLE_SDK/GD32VW55x_RELEASE_V1.0.2/MSDK/cloud/alicloud/src/services/shadow\shadow.c ****         shadow_err("Device Shadow sync failed");
 283:C:/Users/stapi/OneDrive/Desktop/GD32VW553/V1_MQTT_OK/GD32VW55X_Wifi_BLE_SDK/GD32VW55x_RELEASE_V1.0.2/MSDK/cloud/alicloud/src/services/shadow\shadow.c ****         return ERROR_NO_MEM;
 284:C:/Users/stapi/OneDrive/Desktop/GD32VW553/V1_MQTT_OK/GD32VW55X_Wifi_BLE_SDK/GD32VW55x_RELEASE_V1.0.2/MSDK/cloud/alicloud/src/services/shadow\shadow.c ****     }
 285:C:/Users/stapi/OneDrive/Desktop/GD32VW553/V1_MQTT_OK/GD32VW55X_Wifi_BLE_SDK/GD32VW55x_RELEASE_V1.0.2/MSDK/cloud/alicloud/src/services/shadow\shadow.c **** 
 286:C:/Users/stapi/OneDrive/Desktop/GD32VW553/V1_MQTT_OK/GD32VW55X_Wifi_BLE_SDK/GD32VW55x_RELEASE_V1.0.2/MSDK/cloud/alicloud/src/services/shadow\shadow.c ****     iotx_ds_common_format_init(pshadow, &format, buf, SHADOW_SYNC_MSG_SIZE, "get", NULL);
 287:C:/Users/stapi/OneDrive/Desktop/GD32VW553/V1_MQTT_OK/GD32VW55X_Wifi_BLE_SDK/GD32VW55x_RELEASE_V1.0.2/MSDK/cloud/alicloud/src/services/shadow\shadow.c ****     iotx_ds_common_format_finalize(pshadow, &format, NULL);
 288:C:/Users/stapi/OneDrive/Desktop/GD32VW553/V1_MQTT_OK/GD32VW55X_Wifi_BLE_SDK/GD32VW55x_RELEASE_V1.0.2/MSDK/cloud/alicloud/src/services/shadow\shadow.c **** 
 289:C:/Users/stapi/OneDrive/Desktop/GD32VW553/V1_MQTT_OK/GD32VW55X_Wifi_BLE_SDK/GD32VW55x_RELEASE_V1.0.2/MSDK/cloud/alicloud/src/services/shadow\shadow.c ****     ret = IOT_Shadow_Push(pshadow, format.buf, format.offset, 10);
 290:C:/Users/stapi/OneDrive/Desktop/GD32VW553/V1_MQTT_OK/GD32VW55X_Wifi_BLE_SDK/GD32VW55x_RELEASE_V1.0.2/MSDK/cloud/alicloud/src/services/shadow\shadow.c ****     if (SUCCESS_RETURN == ret) {
 291:C:/Users/stapi/OneDrive/Desktop/GD32VW553/V1_MQTT_OK/GD32VW55X_Wifi_BLE_SDK/GD32VW55x_RELEASE_V1.0.2/MSDK/cloud/alicloud/src/services/shadow\shadow.c ****         shadow_info("Device Shadow sync success.");
 292:C:/Users/stapi/OneDrive/Desktop/GD32VW553/V1_MQTT_OK/GD32VW55X_Wifi_BLE_SDK/GD32VW55x_RELEASE_V1.0.2/MSDK/cloud/alicloud/src/services/shadow\shadow.c ****     } else {
 293:C:/Users/stapi/OneDrive/Desktop/GD32VW553/V1_MQTT_OK/GD32VW55X_Wifi_BLE_SDK/GD32VW55x_RELEASE_V1.0.2/MSDK/cloud/alicloud/src/services/shadow\shadow.c ****         shadow_info("Device Shadow sync failed.");
 294:C:/Users/stapi/OneDrive/Desktop/GD32VW553/V1_MQTT_OK/GD32VW55X_Wifi_BLE_SDK/GD32VW55x_RELEASE_V1.0.2/MSDK/cloud/alicloud/src/services/shadow\shadow.c ****     }
 295:C:/Users/stapi/OneDrive/Desktop/GD32VW553/V1_MQTT_OK/GD32VW55X_Wifi_BLE_SDK/GD32VW55x_RELEASE_V1.0.2/MSDK/cloud/alicloud/src/services/shadow\shadow.c **** 
 296:C:/Users/stapi/OneDrive/Desktop/GD32VW553/V1_MQTT_OK/GD32VW55X_Wifi_BLE_SDK/GD32VW55x_RELEASE_V1.0.2/MSDK/cloud/alicloud/src/services/shadow\shadow.c ****     LITE_free(buf);
 297:C:/Users/stapi/OneDrive/Desktop/GD32VW553/V1_MQTT_OK/GD32VW55X_Wifi_BLE_SDK/GD32VW55x_RELEASE_V1.0.2/MSDK/cloud/alicloud/src/services/shadow\shadow.c ****     HAL_SleepMs(1000);
 298:C:/Users/stapi/OneDrive/Desktop/GD32VW553/V1_MQTT_OK/GD32VW55X_Wifi_BLE_SDK/GD32VW55x_RELEASE_V1.0.2/MSDK/cloud/alicloud/src/services/shadow\shadow.c **** 
 299:C:/Users/stapi/OneDrive/Desktop/GD32VW553/V1_MQTT_OK/GD32VW55X_Wifi_BLE_SDK/GD32VW55x_RELEASE_V1.0.2/MSDK/cloud/alicloud/src/services/shadow\shadow.c ****     return ret;
 300:C:/Users/stapi/OneDrive/Desktop/GD32VW553/V1_MQTT_OK/GD32VW55X_Wifi_BLE_SDK/GD32VW55x_RELEASE_V1.0.2/MSDK/cloud/alicloud/src/services/shadow\shadow.c **** 
 301:C:/Users/stapi/OneDrive/Desktop/GD32VW553/V1_MQTT_OK/GD32VW55X_Wifi_BLE_SDK/GD32VW55x_RELEASE_V1.0.2/MSDK/cloud/alicloud/src/services/shadow\shadow.c **** #undef SHADOW_SYNC_MSG_SIZE
 302:C:/Users/stapi/OneDrive/Desktop/GD32VW553/V1_MQTT_OK/GD32VW55X_Wifi_BLE_SDK/GD32VW55x_RELEASE_V1.0.2/MSDK/cloud/alicloud/src/services/shadow\shadow.c **** }
 303:C:/Users/stapi/OneDrive/Desktop/GD32VW553/V1_MQTT_OK/GD32VW55X_Wifi_BLE_SDK/GD32VW55x_RELEASE_V1.0.2/MSDK/cloud/alicloud/src/services/shadow\shadow.c **** #else
 304:C:/Users/stapi/OneDrive/Desktop/GD32VW553/V1_MQTT_OK/GD32VW55X_Wifi_BLE_SDK/GD32VW55x_RELEASE_V1.0.2/MSDK/cloud/alicloud/src/services/shadow\shadow.c **** iotx_err_t IOT_Shadow_Pull(void *handle)
 305:C:/Users/stapi/OneDrive/Desktop/GD32VW553/V1_MQTT_OK/GD32VW55X_Wifi_BLE_SDK/GD32VW55x_RELEASE_V1.0.2/MSDK/cloud/alicloud/src/services/shadow\shadow.c **** {
 306:C:/Users/stapi/OneDrive/Desktop/GD32VW553/V1_MQTT_OK/GD32VW55X_Wifi_BLE_SDK/GD32VW55x_RELEASE_V1.0.2/MSDK/cloud/alicloud/src/services/shadow\shadow.c **** #define SHADOW_SYNC_MSG_SIZE      (256)
 307:C:/Users/stapi/OneDrive/Desktop/GD32VW553/V1_MQTT_OK/GD32VW55X_Wifi_BLE_SDK/GD32VW55x_RELEASE_V1.0.2/MSDK/cloud/alicloud/src/services/shadow\shadow.c **** 
 308:C:/Users/stapi/OneDrive/Desktop/GD32VW553/V1_MQTT_OK/GD32VW55X_Wifi_BLE_SDK/GD32VW55x_RELEASE_V1.0.2/MSDK/cloud/alicloud/src/services/shadow\shadow.c ****     iotx_err_t ret;
 309:C:/Users/stapi/OneDrive/Desktop/GD32VW553/V1_MQTT_OK/GD32VW55X_Wifi_BLE_SDK/GD32VW55x_RELEASE_V1.0.2/MSDK/cloud/alicloud/src/services/shadow\shadow.c ****     void *buf;
 310:C:/Users/stapi/OneDrive/Desktop/GD32VW553/V1_MQTT_OK/GD32VW55X_Wifi_BLE_SDK/GD32VW55x_RELEASE_V1.0.2/MSDK/cloud/alicloud/src/services/shadow\shadow.c ****     format_data_t format;
 311:C:/Users/stapi/OneDrive/Desktop/GD32VW553/V1_MQTT_OK/GD32VW55X_Wifi_BLE_SDK/GD32VW55x_RELEASE_V1.0.2/MSDK/cloud/alicloud/src/services/shadow\shadow.c ****     iotx_shadow_pt pshadow = (iotx_shadow_pt)handle;
 312:C:/Users/stapi/OneDrive/Desktop/GD32VW553/V1_MQTT_OK/GD32VW55X_Wifi_BLE_SDK/GD32VW55x_RELEASE_V1.0.2/MSDK/cloud/alicloud/src/services/shadow\shadow.c ****     iotx_shadow_ack_code_t ack_update = IOTX_SHADOW_ACK_NONE;
 313:C:/Users/stapi/OneDrive/Desktop/GD32VW553/V1_MQTT_OK/GD32VW55X_Wifi_BLE_SDK/GD32VW55x_RELEASE_V1.0.2/MSDK/cloud/alicloud/src/services/shadow\shadow.c ****     uint16_t timeout_s = 1000;
 314:C:/Users/stapi/OneDrive/Desktop/GD32VW553/V1_MQTT_OK/GD32VW55X_Wifi_BLE_SDK/GD32VW55x_RELEASE_V1.0.2/MSDK/cloud/alicloud/src/services/shadow\shadow.c **** 
 315:C:/Users/stapi/OneDrive/Desktop/GD32VW553/V1_MQTT_OK/GD32VW55X_Wifi_BLE_SDK/GD32VW55x_RELEASE_V1.0.2/MSDK/cloud/alicloud/src/services/shadow\shadow.c ****     shadow_info("Device Shadow sync start.");
 316:C:/Users/stapi/OneDrive/Desktop/GD32VW553/V1_MQTT_OK/GD32VW55X_Wifi_BLE_SDK/GD32VW55x_RELEASE_V1.0.2/MSDK/cloud/alicloud/src/services/shadow\shadow.c **** 
 317:C:/Users/stapi/OneDrive/Desktop/GD32VW553/V1_MQTT_OK/GD32VW55X_Wifi_BLE_SDK/GD32VW55x_RELEASE_V1.0.2/MSDK/cloud/alicloud/src/services/shadow\shadow.c ****     buf = SHADOW_malloc(SHADOW_SYNC_MSG_SIZE);
 318:C:/Users/stapi/OneDrive/Desktop/GD32VW553/V1_MQTT_OK/GD32VW55X_Wifi_BLE_SDK/GD32VW55x_RELEASE_V1.0.2/MSDK/cloud/alicloud/src/services/shadow\shadow.c ****     if (NULL == buf) {
 319:C:/Users/stapi/OneDrive/Desktop/GD32VW553/V1_MQTT_OK/GD32VW55X_Wifi_BLE_SDK/GD32VW55x_RELEASE_V1.0.2/MSDK/cloud/alicloud/src/services/shadow\shadow.c ****         shadow_err("Device Shadow sync failed");
 320:C:/Users/stapi/OneDrive/Desktop/GD32VW553/V1_MQTT_OK/GD32VW55X_Wifi_BLE_SDK/GD32VW55x_RELEASE_V1.0.2/MSDK/cloud/alicloud/src/services/shadow\shadow.c ****         return ERROR_NO_MEM;
 321:C:/Users/stapi/OneDrive/Desktop/GD32VW553/V1_MQTT_OK/GD32VW55X_Wifi_BLE_SDK/GD32VW55x_RELEASE_V1.0.2/MSDK/cloud/alicloud/src/services/shadow\shadow.c ****     }
 322:C:/Users/stapi/OneDrive/Desktop/GD32VW553/V1_MQTT_OK/GD32VW55X_Wifi_BLE_SDK/GD32VW55x_RELEASE_V1.0.2/MSDK/cloud/alicloud/src/services/shadow\shadow.c **** 
 323:C:/Users/stapi/OneDrive/Desktop/GD32VW553/V1_MQTT_OK/GD32VW55X_Wifi_BLE_SDK/GD32VW55x_RELEASE_V1.0.2/MSDK/cloud/alicloud/src/services/shadow\shadow.c ****     iotx_ds_common_format_init(pshadow, &format, buf, SHADOW_SYNC_MSG_SIZE, "get", NULL);
 324:C:/Users/stapi/OneDrive/Desktop/GD32VW553/V1_MQTT_OK/GD32VW55X_Wifi_BLE_SDK/GD32VW55x_RELEASE_V1.0.2/MSDK/cloud/alicloud/src/services/shadow\shadow.c ****     iotx_ds_common_format_finalize(pshadow, &format, NULL, 1);
 325:C:/Users/stapi/OneDrive/Desktop/GD32VW553/V1_MQTT_OK/GD32VW55X_Wifi_BLE_SDK/GD32VW55x_RELEASE_V1.0.2/MSDK/cloud/alicloud/src/services/shadow\shadow.c **** 
 326:C:/Users/stapi/OneDrive/Desktop/GD32VW553/V1_MQTT_OK/GD32VW55X_Wifi_BLE_SDK/GD32VW55x_RELEASE_V1.0.2/MSDK/cloud/alicloud/src/services/shadow\shadow.c ****     //ret = IOT_Shadow_Push(pshadow, format.buf, format.offset, timeout_ms);
 327:C:/Users/stapi/OneDrive/Desktop/GD32VW553/V1_MQTT_OK/GD32VW55X_Wifi_BLE_SDK/GD32VW55x_RELEASE_V1.0.2/MSDK/cloud/alicloud/src/services/shadow\shadow.c ****         /* update asynchronously */
 328:C:/Users/stapi/OneDrive/Desktop/GD32VW553/V1_MQTT_OK/GD32VW55X_Wifi_BLE_SDK/GD32VW55x_RELEASE_V1.0.2/MSDK/cloud/alicloud/src/services/shadow\shadow.c ****     ret = IOT_Shadow_Push_Async(pshadow, format.buf, format.offset, timeout_s, iotx_update_ack_cb, 
 329:C:/Users/stapi/OneDrive/Desktop/GD32VW553/V1_MQTT_OK/GD32VW55X_Wifi_BLE_SDK/GD32VW55x_RELEASE_V1.0.2/MSDK/cloud/alicloud/src/services/shadow\shadow.c **** 
 330:C:/Users/stapi/OneDrive/Desktop/GD32VW553/V1_MQTT_OK/GD32VW55X_Wifi_BLE_SDK/GD32VW55x_RELEASE_V1.0.2/MSDK/cloud/alicloud/src/services/shadow\shadow.c ****     if (SUCCESS_RETURN == ret) {
 331:C:/Users/stapi/OneDrive/Desktop/GD32VW553/V1_MQTT_OK/GD32VW55X_Wifi_BLE_SDK/GD32VW55x_RELEASE_V1.0.2/MSDK/cloud/alicloud/src/services/shadow\shadow.c ****         shadow_info("Device Shadow sync success.");
 332:C:/Users/stapi/OneDrive/Desktop/GD32VW553/V1_MQTT_OK/GD32VW55X_Wifi_BLE_SDK/GD32VW55x_RELEASE_V1.0.2/MSDK/cloud/alicloud/src/services/shadow\shadow.c ****     } else {
 333:C:/Users/stapi/OneDrive/Desktop/GD32VW553/V1_MQTT_OK/GD32VW55X_Wifi_BLE_SDK/GD32VW55x_RELEASE_V1.0.2/MSDK/cloud/alicloud/src/services/shadow\shadow.c ****         shadow_info("Device Shadow sync failed.");
 334:C:/Users/stapi/OneDrive/Desktop/GD32VW553/V1_MQTT_OK/GD32VW55X_Wifi_BLE_SDK/GD32VW55x_RELEASE_V1.0.2/MSDK/cloud/alicloud/src/services/shadow\shadow.c ****     }
 335:C:/Users/stapi/OneDrive/Desktop/GD32VW553/V1_MQTT_OK/GD32VW55X_Wifi_BLE_SDK/GD32VW55x_RELEASE_V1.0.2/MSDK/cloud/alicloud/src/services/shadow\shadow.c **** 
 336:C:/Users/stapi/OneDrive/Desktop/GD32VW553/V1_MQTT_OK/GD32VW55X_Wifi_BLE_SDK/GD32VW55x_RELEASE_V1.0.2/MSDK/cloud/alicloud/src/services/shadow\shadow.c ****     LITE_free(buf);
 337:C:/Users/stapi/OneDrive/Desktop/GD32VW553/V1_MQTT_OK/GD32VW55X_Wifi_BLE_SDK/GD32VW55x_RELEASE_V1.0.2/MSDK/cloud/alicloud/src/services/shadow\shadow.c ****     //HAL_SleepMs(1000);
 338:C:/Users/stapi/OneDrive/Desktop/GD32VW553/V1_MQTT_OK/GD32VW55X_Wifi_BLE_SDK/GD32VW55x_RELEASE_V1.0.2/MSDK/cloud/alicloud/src/services/shadow\shadow.c **** 
 339:C:/Users/stapi/OneDrive/Desktop/GD32VW553/V1_MQTT_OK/GD32VW55X_Wifi_BLE_SDK/GD32VW55x_RELEASE_V1.0.2/MSDK/cloud/alicloud/src/services/shadow\shadow.c ****     return ret;
 340:C:/Users/stapi/OneDrive/Desktop/GD32VW553/V1_MQTT_OK/GD32VW55X_Wifi_BLE_SDK/GD32VW55x_RELEASE_V1.0.2/MSDK/cloud/alicloud/src/services/shadow\shadow.c **** 
 341:C:/Users/stapi/OneDrive/Desktop/GD32VW553/V1_MQTT_OK/GD32VW55X_Wifi_BLE_SDK/GD32VW55x_RELEASE_V1.0.2/MSDK/cloud/alicloud/src/services/shadow\shadow.c **** #undef SHADOW_SYNC_MSG_SIZE
 342:C:/Users/stapi/OneDrive/Desktop/GD32VW553/V1_MQTT_OK/GD32VW55X_Wifi_BLE_SDK/GD32VW55x_RELEASE_V1.0.2/MSDK/cloud/alicloud/src/services/shadow\shadow.c **** }
 343:C:/Users/stapi/OneDrive/Desktop/GD32VW553/V1_MQTT_OK/GD32VW55X_Wifi_BLE_SDK/GD32VW55x_RELEASE_V1.0.2/MSDK/cloud/alicloud/src/services/shadow\shadow.c **** #endif
 344:C:/Users/stapi/OneDrive/Desktop/GD32VW553/V1_MQTT_OK/GD32VW55X_Wifi_BLE_SDK/GD32VW55x_RELEASE_V1.0.2/MSDK/cloud/alicloud/src/services/shadow\shadow.c **** 
 345:C:/Users/stapi/OneDrive/Desktop/GD32VW553/V1_MQTT_OK/GD32VW55X_Wifi_BLE_SDK/GD32VW55x_RELEASE_V1.0.2/MSDK/cloud/alicloud/src/services/shadow\shadow.c **** 
 346:C:/Users/stapi/OneDrive/Desktop/GD32VW553/V1_MQTT_OK/GD32VW55X_Wifi_BLE_SDK/GD32VW55x_RELEASE_V1.0.2/MSDK/cloud/alicloud/src/services/shadow\shadow.c **** void iotx_ds_event_handle(void *pcontext, void *pclient, iotx_mqtt_event_msg_pt msg)
 347:C:/Users/stapi/OneDrive/Desktop/GD32VW553/V1_MQTT_OK/GD32VW55X_Wifi_BLE_SDK/GD32VW55x_RELEASE_V1.0.2/MSDK/cloud/alicloud/src/services/shadow\shadow.c **** {
  35              		.loc 1 347 1
  36              		.cfi_startproc
  37              	.LVL0:
  38 0000 17030000 		call	t0,__riscv_save_2
  38      E7020300 
  39              		.cfi_offset 9, -12
  40              		.cfi_offset 8, -8
  41              		.cfi_offset 1, -4
  42              		.cfi_def_cfa_offset 16
 348:C:/Users/stapi/OneDrive/Desktop/GD32VW553/V1_MQTT_OK/GD32VW55X_Wifi_BLE_SDK/GD32VW55x_RELEASE_V1.0.2/MSDK/cloud/alicloud/src/services/shadow\shadow.c ****     iotx_shadow_pt pshadow = (iotx_shadow_pt)pcontext;
  43              		.loc 1 348 5
 349:C:/Users/stapi/OneDrive/Desktop/GD32VW553/V1_MQTT_OK/GD32VW55X_Wifi_BLE_SDK/GD32VW55x_RELEASE_V1.0.2/MSDK/cloud/alicloud/src/services/shadow\shadow.c ****     uintptr_t packet_id = (uintptr_t)msg->msg;
 350:C:/Users/stapi/OneDrive/Desktop/GD32VW553/V1_MQTT_OK/GD32VW55X_Wifi_BLE_SDK/GD32VW55x_RELEASE_V1.0.2/MSDK/cloud/alicloud/src/services/shadow\shadow.c ****     iotx_mqtt_topic_info_pt topic_info = (iotx_mqtt_topic_info_pt)msg->msg;
 351:C:/Users/stapi/OneDrive/Desktop/GD32VW553/V1_MQTT_OK/GD32VW55X_Wifi_BLE_SDK/GD32VW55x_RELEASE_V1.0.2/MSDK/cloud/alicloud/src/services/shadow\shadow.c **** 
 352:C:/Users/stapi/OneDrive/Desktop/GD32VW553/V1_MQTT_OK/GD32VW55X_Wifi_BLE_SDK/GD32VW55x_RELEASE_V1.0.2/MSDK/cloud/alicloud/src/services/shadow\shadow.c ****     switch (msg->event_type) {
  44              		.loc 1 352 16 is_stmt 0
  45 0008 1C42     		lw	a5,0(a2)
  46              		.loc 1 352 5
  47 000a 1547     		li	a4,5
 347:C:/Users/stapi/OneDrive/Desktop/GD32VW553/V1_MQTT_OK/GD32VW55X_Wifi_BLE_SDK/GD32VW55x_RELEASE_V1.0.2/MSDK/cloud/alicloud/src/services/shadow\shadow.c ****     iotx_shadow_pt pshadow = (iotx_shadow_pt)pcontext;
  48              		.loc 1 347 1
  49 000c AA84     		mv	s1,a0
  50              	.LVL1:
 349:C:/Users/stapi/OneDrive/Desktop/GD32VW553/V1_MQTT_OK/GD32VW55X_Wifi_BLE_SDK/GD32VW55x_RELEASE_V1.0.2/MSDK/cloud/alicloud/src/services/shadow\shadow.c ****     uintptr_t packet_id = (uintptr_t)msg->msg;
  51              		.loc 1 349 5 is_stmt 1
 349:C:/Users/stapi/OneDrive/Desktop/GD32VW553/V1_MQTT_OK/GD32VW55X_Wifi_BLE_SDK/GD32VW55x_RELEASE_V1.0.2/MSDK/cloud/alicloud/src/services/shadow\shadow.c ****     uintptr_t packet_id = (uintptr_t)msg->msg;
  52              		.loc 1 349 41 is_stmt 0
  53 000e 4042     		lw	s0,4(a2)
  54              	.LVL2:
 350:C:/Users/stapi/OneDrive/Desktop/GD32VW553/V1_MQTT_OK/GD32VW55X_Wifi_BLE_SDK/GD32VW55x_RELEASE_V1.0.2/MSDK/cloud/alicloud/src/services/shadow\shadow.c **** 
  55              		.loc 1 350 5 is_stmt 1
  56              		.loc 1 352 5
 347:C:/Users/stapi/OneDrive/Desktop/GD32VW553/V1_MQTT_OK/GD32VW55X_Wifi_BLE_SDK/GD32VW55x_RELEASE_V1.0.2/MSDK/cloud/alicloud/src/services/shadow\shadow.c ****     iotx_shadow_pt pshadow = (iotx_shadow_pt)pcontext;
  57              		.loc 1 347 1 is_stmt 0
  58 0010 4111     		addi	sp,sp,-16
  59              		.cfi_def_cfa_offset 32
  60 0012 B7050000 		lui	a1,%hi(.LANCHOR0)
  61              	.LVL3:
  62 0016 37050000 		lui	a0,%hi(.LC1)
  63              	.LVL4:
  64              		.loc 1 352 5
  65 001a 6388E70C 		beq	a5,a4,.L2
  66 001e 6368F702 		bgtu	a5,a4,.L3
  67 0022 0D47     		li	a4,3
  68 0024 6380E706 		beq	a5,a4,.L4
  69 0028 1147     		li	a4,4
  70 002a 6388E708 		beq	a5,a4,.L5
  71              	.L6:
 353:C:/Users/stapi/OneDrive/Desktop/GD32VW553/V1_MQTT_OK/GD32VW55X_Wifi_BLE_SDK/GD32VW55x_RELEASE_V1.0.2/MSDK/cloud/alicloud/src/services/shadow\shadow.c ****         case IOTX_MQTT_EVENT_SUBCRIBE_SUCCESS:
 354:C:/Users/stapi/OneDrive/Desktop/GD32VW553/V1_MQTT_OK/GD32VW55X_Wifi_BLE_SDK/GD32VW55x_RELEASE_V1.0.2/MSDK/cloud/alicloud/src/services/shadow\shadow.c ****             shadow_debug("subscribe success, packet-id=%u", (unsigned int)packet_id);
 355:C:/Users/stapi/OneDrive/Desktop/GD32VW553/V1_MQTT_OK/GD32VW55X_Wifi_BLE_SDK/GD32VW55x_RELEASE_V1.0.2/MSDK/cloud/alicloud/src/services/shadow\shadow.c ****             if (pshadow->inner_data.sync_status == packet_id) {
 356:C:/Users/stapi/OneDrive/Desktop/GD32VW553/V1_MQTT_OK/GD32VW55X_Wifi_BLE_SDK/GD32VW55x_RELEASE_V1.0.2/MSDK/cloud/alicloud/src/services/shadow\shadow.c ****                 pshadow->inner_data.sync_status = 0;
 357:C:/Users/stapi/OneDrive/Desktop/GD32VW553/V1_MQTT_OK/GD32VW55X_Wifi_BLE_SDK/GD32VW55x_RELEASE_V1.0.2/MSDK/cloud/alicloud/src/services/shadow\shadow.c ****             }
 358:C:/Users/stapi/OneDrive/Desktop/GD32VW553/V1_MQTT_OK/GD32VW55X_Wifi_BLE_SDK/GD32VW55x_RELEASE_V1.0.2/MSDK/cloud/alicloud/src/services/shadow\shadow.c ****             break;
 359:C:/Users/stapi/OneDrive/Desktop/GD32VW553/V1_MQTT_OK/GD32VW55X_Wifi_BLE_SDK/GD32VW55x_RELEASE_V1.0.2/MSDK/cloud/alicloud/src/services/shadow\shadow.c **** 
 360:C:/Users/stapi/OneDrive/Desktop/GD32VW553/V1_MQTT_OK/GD32VW55X_Wifi_BLE_SDK/GD32VW55x_RELEASE_V1.0.2/MSDK/cloud/alicloud/src/services/shadow\shadow.c ****         case IOTX_MQTT_EVENT_SUBCRIBE_TIMEOUT:
 361:C:/Users/stapi/OneDrive/Desktop/GD32VW553/V1_MQTT_OK/GD32VW55X_Wifi_BLE_SDK/GD32VW55x_RELEASE_V1.0.2/MSDK/cloud/alicloud/src/services/shadow\shadow.c ****             shadow_debug("subscribe wait ack timeout, packet-id=%u", (unsigned int)packet_id);
 362:C:/Users/stapi/OneDrive/Desktop/GD32VW553/V1_MQTT_OK/GD32VW55X_Wifi_BLE_SDK/GD32VW55x_RELEASE_V1.0.2/MSDK/cloud/alicloud/src/services/shadow\shadow.c ****             if (pshadow->inner_data.sync_status == packet_id) {
 363:C:/Users/stapi/OneDrive/Desktop/GD32VW553/V1_MQTT_OK/GD32VW55X_Wifi_BLE_SDK/GD32VW55x_RELEASE_V1.0.2/MSDK/cloud/alicloud/src/services/shadow\shadow.c ****                 pshadow->inner_data.sync_status = -1;
 364:C:/Users/stapi/OneDrive/Desktop/GD32VW553/V1_MQTT_OK/GD32VW55X_Wifi_BLE_SDK/GD32VW55x_RELEASE_V1.0.2/MSDK/cloud/alicloud/src/services/shadow\shadow.c ****             }
 365:C:/Users/stapi/OneDrive/Desktop/GD32VW553/V1_MQTT_OK/GD32VW55X_Wifi_BLE_SDK/GD32VW55x_RELEASE_V1.0.2/MSDK/cloud/alicloud/src/services/shadow\shadow.c ****             break;
 366:C:/Users/stapi/OneDrive/Desktop/GD32VW553/V1_MQTT_OK/GD32VW55X_Wifi_BLE_SDK/GD32VW55x_RELEASE_V1.0.2/MSDK/cloud/alicloud/src/services/shadow\shadow.c **** 
 367:C:/Users/stapi/OneDrive/Desktop/GD32VW553/V1_MQTT_OK/GD32VW55X_Wifi_BLE_SDK/GD32VW55x_RELEASE_V1.0.2/MSDK/cloud/alicloud/src/services/shadow\shadow.c ****         case IOTX_MQTT_EVENT_SUBCRIBE_NACK:
 368:C:/Users/stapi/OneDrive/Desktop/GD32VW553/V1_MQTT_OK/GD32VW55X_Wifi_BLE_SDK/GD32VW55x_RELEASE_V1.0.2/MSDK/cloud/alicloud/src/services/shadow\shadow.c ****             shadow_debug("subscribe nack, packet-id=%u", (unsigned int)packet_id);
 369:C:/Users/stapi/OneDrive/Desktop/GD32VW553/V1_MQTT_OK/GD32VW55X_Wifi_BLE_SDK/GD32VW55x_RELEASE_V1.0.2/MSDK/cloud/alicloud/src/services/shadow\shadow.c ****             if (pshadow->inner_data.sync_status == packet_id) {
 370:C:/Users/stapi/OneDrive/Desktop/GD32VW553/V1_MQTT_OK/GD32VW55X_Wifi_BLE_SDK/GD32VW55x_RELEASE_V1.0.2/MSDK/cloud/alicloud/src/services/shadow\shadow.c ****                 pshadow->inner_data.sync_status = -1;
 371:C:/Users/stapi/OneDrive/Desktop/GD32VW553/V1_MQTT_OK/GD32VW55X_Wifi_BLE_SDK/GD32VW55x_RELEASE_V1.0.2/MSDK/cloud/alicloud/src/services/shadow\shadow.c ****             }
 372:C:/Users/stapi/OneDrive/Desktop/GD32VW553/V1_MQTT_OK/GD32VW55X_Wifi_BLE_SDK/GD32VW55x_RELEASE_V1.0.2/MSDK/cloud/alicloud/src/services/shadow\shadow.c ****             break;
 373:C:/Users/stapi/OneDrive/Desktop/GD32VW553/V1_MQTT_OK/GD32VW55X_Wifi_BLE_SDK/GD32VW55x_RELEASE_V1.0.2/MSDK/cloud/alicloud/src/services/shadow\shadow.c **** 
 374:C:/Users/stapi/OneDrive/Desktop/GD32VW553/V1_MQTT_OK/GD32VW55X_Wifi_BLE_SDK/GD32VW55x_RELEASE_V1.0.2/MSDK/cloud/alicloud/src/services/shadow\shadow.c ****         case IOTX_MQTT_EVENT_PUBLISH_RECEIVED:
 375:C:/Users/stapi/OneDrive/Desktop/GD32VW553/V1_MQTT_OK/GD32VW55X_Wifi_BLE_SDK/GD32VW55x_RELEASE_V1.0.2/MSDK/cloud/alicloud/src/services/shadow\shadow.c ****             shadow_debug("topic message arrived but without any related handle: topic=%.*s, topic_m
 376:C:/Users/stapi/OneDrive/Desktop/GD32VW553/V1_MQTT_OK/GD32VW55X_Wifi_BLE_SDK/GD32VW55x_RELEASE_V1.0.2/MSDK/cloud/alicloud/src/services/shadow\shadow.c ****                      topic_info->topic_len,
 377:C:/Users/stapi/OneDrive/Desktop/GD32VW553/V1_MQTT_OK/GD32VW55X_Wifi_BLE_SDK/GD32VW55x_RELEASE_V1.0.2/MSDK/cloud/alicloud/src/services/shadow\shadow.c ****                      topic_info->ptopic,
 378:C:/Users/stapi/OneDrive/Desktop/GD32VW553/V1_MQTT_OK/GD32VW55X_Wifi_BLE_SDK/GD32VW55x_RELEASE_V1.0.2/MSDK/cloud/alicloud/src/services/shadow\shadow.c ****                      topic_info->payload_len,
 379:C:/Users/stapi/OneDrive/Desktop/GD32VW553/V1_MQTT_OK/GD32VW55X_Wifi_BLE_SDK/GD32VW55x_RELEASE_V1.0.2/MSDK/cloud/alicloud/src/services/shadow\shadow.c ****                      topic_info->payload);
 380:C:/Users/stapi/OneDrive/Desktop/GD32VW553/V1_MQTT_OK/GD32VW55X_Wifi_BLE_SDK/GD32VW55x_RELEASE_V1.0.2/MSDK/cloud/alicloud/src/services/shadow\shadow.c ****             (void)topic_info;
 381:C:/Users/stapi/OneDrive/Desktop/GD32VW553/V1_MQTT_OK/GD32VW55X_Wifi_BLE_SDK/GD32VW55x_RELEASE_V1.0.2/MSDK/cloud/alicloud/src/services/shadow\shadow.c ****             break;
 382:C:/Users/stapi/OneDrive/Desktop/GD32VW553/V1_MQTT_OK/GD32VW55X_Wifi_BLE_SDK/GD32VW55x_RELEASE_V1.0.2/MSDK/cloud/alicloud/src/services/shadow\shadow.c **** 
 383:C:/Users/stapi/OneDrive/Desktop/GD32VW553/V1_MQTT_OK/GD32VW55X_Wifi_BLE_SDK/GD32VW55x_RELEASE_V1.0.2/MSDK/cloud/alicloud/src/services/shadow\shadow.c ****         default:
 384:C:/Users/stapi/OneDrive/Desktop/GD32VW553/V1_MQTT_OK/GD32VW55X_Wifi_BLE_SDK/GD32VW55x_RELEASE_V1.0.2/MSDK/cloud/alicloud/src/services/shadow\shadow.c ****             shadow_debug("Should NOT arrive here.");
  72              		.loc 1 384 13 is_stmt 1
  73 002e 37070000 		lui	a4,%hi(.LC5)
  74 0032 13070700 		addi	a4,a4,%lo(.LC5)
  75 0036 9546     		li	a3,5
  76 0038 13060018 		li	a2,384
  77              	.LVL5:
  78 003c 93850500 		addi	a1,a1,%lo(.LANCHOR0)
  79 0040 13050500 		addi	a0,a0,%lo(.LC1)
  80 0044 97000000 		call	LITE_syslog
  80      E7800000 
  81              	.LVL6:
 385:C:/Users/stapi/OneDrive/Desktop/GD32VW553/V1_MQTT_OK/GD32VW55X_Wifi_BLE_SDK/GD32VW55x_RELEASE_V1.0.2/MSDK/cloud/alicloud/src/services/shadow\shadow.c ****             break;
  82              		.loc 1 385 13
 386:C:/Users/stapi/OneDrive/Desktop/GD32VW553/V1_MQTT_OK/GD32VW55X_Wifi_BLE_SDK/GD32VW55x_RELEASE_V1.0.2/MSDK/cloud/alicloud/src/services/shadow\shadow.c ****     }
 387:C:/Users/stapi/OneDrive/Desktop/GD32VW553/V1_MQTT_OK/GD32VW55X_Wifi_BLE_SDK/GD32VW55x_RELEASE_V1.0.2/MSDK/cloud/alicloud/src/services/shadow\shadow.c **** }
  83              		.loc 1 387 1 is_stmt 0
  84 004c 95A0     		j	.L1
  85              	.LVL7:
  86              	.L3:
 352:C:/Users/stapi/OneDrive/Desktop/GD32VW553/V1_MQTT_OK/GD32VW55X_Wifi_BLE_SDK/GD32VW55x_RELEASE_V1.0.2/MSDK/cloud/alicloud/src/services/shadow\shadow.c ****         case IOTX_MQTT_EVENT_SUBCRIBE_SUCCESS:
  87              		.loc 1 352 5
  88 004e 3147     		li	a4,12
  89 0050 E39FE7FC 		bne	a5,a4,.L6
 375:C:/Users/stapi/OneDrive/Desktop/GD32VW553/V1_MQTT_OK/GD32VW55X_Wifi_BLE_SDK/GD32VW55x_RELEASE_V1.0.2/MSDK/cloud/alicloud/src/services/shadow\shadow.c ****                      topic_info->topic_len,
  90              		.loc 1 375 13 is_stmt 1
  91 0054 1848     		lw	a4,16(s0)
  92 0056 83288400 		lw	a7,8(s0)
  93 005a 0328C400 		lw	a6,12(s0)
  94 005e 83576400 		lhu	a5,6(s0)
  95 0062 3AC0     		sw	a4,0(sp)
  96 0064 37070000 		lui	a4,%hi(.LC4)
  97 0068 13070700 		addi	a4,a4,%lo(.LC4)
  98 006c 9546     		li	a3,5
  99 006e 13067017 		li	a2,375
 100              	.LVL8:
 101 0072 93850500 		addi	a1,a1,%lo(.LANCHOR0)
 102 0076 13050500 		addi	a0,a0,%lo(.LC1)
 103 007a 97000000 		call	LITE_syslog
 103      E7800000 
 104              	.LVL9:
 380:C:/Users/stapi/OneDrive/Desktop/GD32VW553/V1_MQTT_OK/GD32VW55X_Wifi_BLE_SDK/GD32VW55x_RELEASE_V1.0.2/MSDK/cloud/alicloud/src/services/shadow\shadow.c ****             break;
 105              		.loc 1 380 13
 381:C:/Users/stapi/OneDrive/Desktop/GD32VW553/V1_MQTT_OK/GD32VW55X_Wifi_BLE_SDK/GD32VW55x_RELEASE_V1.0.2/MSDK/cloud/alicloud/src/services/shadow\shadow.c **** 
 106              		.loc 1 381 13
 107 0082 3DA0     		j	.L1
 108              	.LVL10:
 109              	.L4:
 354:C:/Users/stapi/OneDrive/Desktop/GD32VW553/V1_MQTT_OK/GD32VW55X_Wifi_BLE_SDK/GD32VW55x_RELEASE_V1.0.2/MSDK/cloud/alicloud/src/services/shadow\shadow.c ****             if (pshadow->inner_data.sync_status == packet_id) {
 110              		.loc 1 354 13
 111 0084 37070000 		lui	a4,%hi(.LC0)
 112 0088 A287     		mv	a5,s0
 113 008a 13070700 		addi	a4,a4,%lo(.LC0)
 114 008e 9546     		li	a3,5
 115 0090 13062016 		li	a2,354
 116              	.LVL11:
 117 0094 93850500 		addi	a1,a1,%lo(.LANCHOR0)
 118 0098 13050500 		addi	a0,a0,%lo(.LC1)
 119 009c 97000000 		call	LITE_syslog
 119      E7800000 
 120              	.LVL12:
 355:C:/Users/stapi/OneDrive/Desktop/GD32VW553/V1_MQTT_OK/GD32VW55X_Wifi_BLE_SDK/GD32VW55x_RELEASE_V1.0.2/MSDK/cloud/alicloud/src/services/shadow\shadow.c ****                 pshadow->inner_data.sync_status = 0;
 121              		.loc 1 355 13
 355:C:/Users/stapi/OneDrive/Desktop/GD32VW553/V1_MQTT_OK/GD32VW55X_Wifi_BLE_SDK/GD32VW55x_RELEASE_V1.0.2/MSDK/cloud/alicloud/src/services/shadow\shadow.c ****                 pshadow->inner_data.sync_status = 0;
 122              		.loc 1 355 16 is_stmt 0
 123 00a4 83A7442F 		lw	a5,756(s1)
 124 00a8 6314F400 		bne	s0,a5,.L1
 356:C:/Users/stapi/OneDrive/Desktop/GD32VW553/V1_MQTT_OK/GD32VW55X_Wifi_BLE_SDK/GD32VW55x_RELEASE_V1.0.2/MSDK/cloud/alicloud/src/services/shadow\shadow.c ****             }
 125              		.loc 1 356 17 is_stmt 1
 356:C:/Users/stapi/OneDrive/Desktop/GD32VW553/V1_MQTT_OK/GD32VW55X_Wifi_BLE_SDK/GD32VW55x_RELEASE_V1.0.2/MSDK/cloud/alicloud/src/services/shadow\shadow.c ****             }
 126              		.loc 1 356 49 is_stmt 0
 127 00ac 23AA042E 		sw	zero,756(s1)
 128              	.L1:
 129              		.loc 1 387 1
 130 00b0 4101     		addi	sp,sp,16
 131              		.cfi_remember_state
 132              		.cfi_def_cfa_offset 0
 133 00b2 17030000 		tail	__riscv_restore_2
 133      67000300 
 134              		.cfi_restore 9
 135              		.cfi_restore 8
 136              		.cfi_restore 1
 137              		.cfi_def_cfa_offset -16
 138              	.LVL13:
 139              	.L5:
 140              		.cfi_restore_state
 361:C:/Users/stapi/OneDrive/Desktop/GD32VW553/V1_MQTT_OK/GD32VW55X_Wifi_BLE_SDK/GD32VW55x_RELEASE_V1.0.2/MSDK/cloud/alicloud/src/services/shadow\shadow.c ****             if (pshadow->inner_data.sync_status == packet_id) {
 141              		.loc 1 361 13 is_stmt 1
 142 00ba 37070000 		lui	a4,%hi(.LC2)
 143 00be A287     		mv	a5,s0
 144 00c0 13070700 		addi	a4,a4,%lo(.LC2)
 145 00c4 9546     		li	a3,5
 146 00c6 13069016 		li	a2,361
 147              	.LVL14:
 148              	.L14:
 149 00ca 93850500 		addi	a1,a1,%lo(.LANCHOR0)
 150 00ce 13050500 		addi	a0,a0,%lo(.LC1)
 151 00d2 97000000 		call	LITE_syslog
 151      E7800000 
 152              	.LVL15:
 362:C:/Users/stapi/OneDrive/Desktop/GD32VW553/V1_MQTT_OK/GD32VW55X_Wifi_BLE_SDK/GD32VW55x_RELEASE_V1.0.2/MSDK/cloud/alicloud/src/services/shadow\shadow.c ****                 pshadow->inner_data.sync_status = -1;
 153              		.loc 1 362 13
 362:C:/Users/stapi/OneDrive/Desktop/GD32VW553/V1_MQTT_OK/GD32VW55X_Wifi_BLE_SDK/GD32VW55x_RELEASE_V1.0.2/MSDK/cloud/alicloud/src/services/shadow\shadow.c ****                 pshadow->inner_data.sync_status = -1;
 154              		.loc 1 362 16 is_stmt 0
 155 00da 83A7442F 		lw	a5,756(s1)
 156 00de E319F4FC 		bne	s0,a5,.L1
 363:C:/Users/stapi/OneDrive/Desktop/GD32VW553/V1_MQTT_OK/GD32VW55X_Wifi_BLE_SDK/GD32VW55x_RELEASE_V1.0.2/MSDK/cloud/alicloud/src/services/shadow\shadow.c ****             }
 157              		.loc 1 363 17 is_stmt 1
 363:C:/Users/stapi/OneDrive/Desktop/GD32VW553/V1_MQTT_OK/GD32VW55X_Wifi_BLE_SDK/GD32VW55x_RELEASE_V1.0.2/MSDK/cloud/alicloud/src/services/shadow\shadow.c ****             }
 158              		.loc 1 363 49 is_stmt 0
 159 00e2 FD57     		li	a5,-1
 160 00e4 23AAF42E 		sw	a5,756(s1)
 161 00e8 E1B7     		j	.L1
 162              	.LVL16:
 163              	.L2:
 368:C:/Users/stapi/OneDrive/Desktop/GD32VW553/V1_MQTT_OK/GD32VW55X_Wifi_BLE_SDK/GD32VW55x_RELEASE_V1.0.2/MSDK/cloud/alicloud/src/services/shadow\shadow.c ****             if (pshadow->inner_data.sync_status == packet_id) {
 164              		.loc 1 368 13 is_stmt 1
 165 00ea 37070000 		lui	a4,%hi(.LC3)
 166 00ee A287     		mv	a5,s0
 167 00f0 13070700 		addi	a4,a4,%lo(.LC3)
 168 00f4 9546     		li	a3,5
 169 00f6 13060017 		li	a2,368
 170              	.LVL17:
 171 00fa C1BF     		j	.L14
 172              		.cfi_endproc
 173              	.LFE30:
 175              		.section	.rodata.iotx_shadow_callback_get.str1.4,"aMS",@progbits,1
 176              		.align	2
 177              	.LC6:
 178 0000 746F7069 		.string	"topic=%.*s"
 178      633D252E 
 178      2A7300
 179 000b 00       		.align	2
 180              	.LC7:
 181 000c 64617461 		.string	"data of topic=%.*s"
 181      206F6620 
 181      746F7069 
 181      633D252E 
 181      2A7300
 182 001f 00       		.align	2
 183              	.LC8:
 184 0020 74696D65 		.string	"timestamp"
 184      7374616D 
 184      7000
 185 002a 0000     		.align	2
 186              	.LC9:
 187 002c 76657273 		.string	"version"
 187      696F6E00 
 188              		.align	2
 189              	.LC10:
 190 0034 6D657468 		.string	"method"
 190      6F6400
 191 003b 00       		.align	2
 192              	.LC11:
 193 003c 5B657272 		.string	"[err] "
 193      5D2000
 194 0043 00       		.align	2
 195              	.LC12:
 196 0044 496E7661 		.string	"Invalid JSON document: not 'method' key"
 196      6C696420 
 196      4A534F4E 
 196      20646F63 
 196      756D656E 
 197              		.align	2
 198              	.LC13:
 199 006c 0D0A00   		.string	"\r\n"
 200 006f 00       		.align	2
 201              	.LC14:
 202 0070 636F6E74 		.string	"control"
 202      726F6C00 
 203              		.align	2
 204              	.LC15:
 205 0078 72656365 		.string	"receive 'control' method"
 205      69766520 
 205      27636F6E 
 205      74726F6C 
 205      27206D65 
 206 0091 000000   		.align	2
 207              	.LC16:
 208 0094 7265706C 		.string	"reply"
 208      7900
 209 009a 0000     		.align	2
 210              	.LC17:
 211 009c 72656365 		.string	"receive 'reply' method"
 211      69766520 
 211      27726570 
 211      6C792720 
 211      6D657468 
 212 00b3 00       		.align	2
 213              	.LC18:
 214 00b4 496E7661 		.string	"Invalid 'method' key"
 214      6C696420 
 214      276D6574 
 214      686F6427 
 214      206B6579 
 215 00c9 000000   		.align	2
 216              	.LC19:
 217 00cc 456E6420 		.string	"End of method handle"
 217      6F66206D 
 217      6574686F 
 217      64206861 
 217      6E646C65 
 218              		.section	.text.iotx_shadow_callback_get,"ax",@progbits
 219              		.align	1
 221              	iotx_shadow_callback_get:
 222              	.LFB21:
  47:C:/Users/stapi/OneDrive/Desktop/GD32VW553/V1_MQTT_OK/GD32VW55X_Wifi_BLE_SDK/GD32VW55x_RELEASE_V1.0.2/MSDK/cloud/alicloud/src/services/shadow\shadow.c ****     const char *pname;
 223              		.loc 1 47 1
 224              		.cfi_startproc
 225              	.LVL18:
 226 0000 17030000 		call	t0,__riscv_save_5
 226      E7020300 
 227              		.cfi_offset 20, -24
 228              		.cfi_offset 19, -20
 229              		.cfi_offset 18, -16
 230              		.cfi_offset 9, -12
 231              		.cfi_offset 8, -8
 232              		.cfi_offset 1, -4
 233              		.cfi_def_cfa_offset 32
  48:C:/Users/stapi/OneDrive/Desktop/GD32VW553/V1_MQTT_OK/GD32VW55X_Wifi_BLE_SDK/GD32VW55x_RELEASE_V1.0.2/MSDK/cloud/alicloud/src/services/shadow\shadow.c ****     int ret = FAIL_RETURN;
 234              		.loc 1 48 5
  49:C:/Users/stapi/OneDrive/Desktop/GD32VW553/V1_MQTT_OK/GD32VW55X_Wifi_BLE_SDK/GD32VW55x_RELEASE_V1.0.2/MSDK/cloud/alicloud/src/services/shadow\shadow.c **** 
 235              		.loc 1 49 5
 236              	.LVL19:
  51:C:/Users/stapi/OneDrive/Desktop/GD32VW553/V1_MQTT_OK/GD32VW55X_Wifi_BLE_SDK/GD32VW55x_RELEASE_V1.0.2/MSDK/cloud/alicloud/src/services/shadow\shadow.c **** 
 237              		.loc 1 51 5
  51:C:/Users/stapi/OneDrive/Desktop/GD32VW553/V1_MQTT_OK/GD32VW55X_Wifi_BLE_SDK/GD32VW55x_RELEASE_V1.0.2/MSDK/cloud/alicloud/src/services/shadow\shadow.c **** 
 238              		.loc 1 51 29 is_stmt 0
 239 0008 4042     		lw	s0,4(a2)
 240              	.LVL20:
  53:C:/Users/stapi/OneDrive/Desktop/GD32VW553/V1_MQTT_OK/GD32VW55X_Wifi_BLE_SDK/GD32VW55x_RELEASE_V1.0.2/MSDK/cloud/alicloud/src/services/shadow\shadow.c ****     shadow_debug("data of topic=%.*s", topic_info->payload_len, (char *)topic_info->payload);
 241              		.loc 1 53 5 is_stmt 1
 242 000a 370A0000 		lui	s4,%hi(.LANCHOR1)
 243 000e B7090000 		lui	s3,%hi(.LC1)
 244 0012 0328C400 		lw	a6,12(s0)
 245 0016 83576400 		lhu	a5,6(s0)
 246 001a 37070000 		lui	a4,%hi(.LC6)
 247 001e 13070700 		addi	a4,a4,%lo(.LC6)
 248 0022 9546     		li	a3,5
 249 0024 13065003 		li	a2,53
 250              	.LVL21:
 251 0028 93050A00 		addi	a1,s4,%lo(.LANCHOR1)
 252              	.LVL22:
  47:C:/Users/stapi/OneDrive/Desktop/GD32VW553/V1_MQTT_OK/GD32VW55X_Wifi_BLE_SDK/GD32VW55x_RELEASE_V1.0.2/MSDK/cloud/alicloud/src/services/shadow\shadow.c ****     const char *pname;
 253              		.loc 1 47 1 is_stmt 0
 254 002c AA84     		mv	s1,a0
  53:C:/Users/stapi/OneDrive/Desktop/GD32VW553/V1_MQTT_OK/GD32VW55X_Wifi_BLE_SDK/GD32VW55x_RELEASE_V1.0.2/MSDK/cloud/alicloud/src/services/shadow\shadow.c ****     shadow_debug("data of topic=%.*s", topic_info->payload_len, (char *)topic_info->payload);
 255              		.loc 1 53 5
 256 002e 13850900 		addi	a0,s3,%lo(.LC1)
 257              	.LVL23:
 258 0032 97000000 		call	LITE_syslog
 258      E7800000 
 259              	.LVL24:
  54:C:/Users/stapi/OneDrive/Desktop/GD32VW553/V1_MQTT_OK/GD32VW55X_Wifi_BLE_SDK/GD32VW55x_RELEASE_V1.0.2/MSDK/cloud/alicloud/src/services/shadow\shadow.c **** 
 260              		.loc 1 54 5 is_stmt 1
 261 003a 03280401 		lw	a6,16(s0)
 262 003e 1C44     		lw	a5,8(s0)
 263 0040 37070000 		lui	a4,%hi(.LC7)
 264 0044 13070700 		addi	a4,a4,%lo(.LC7)
 265 0048 9546     		li	a3,5
 266 004a 13066003 		li	a2,54
 267 004e 93050A00 		addi	a1,s4,%lo(.LANCHOR1)
 268 0052 13850900 		addi	a0,s3,%lo(.LC1)
 269 0056 97000000 		call	LITE_syslog
 269      E7800000 
 270              	.LVL25:
  57:C:/Users/stapi/OneDrive/Desktop/GD32VW553/V1_MQTT_OK/GD32VW55X_Wifi_BLE_SDK/GD32VW55x_RELEASE_V1.0.2/MSDK/cloud/alicloud/src/services/shadow\shadow.c ****     if (NULL != pname) {
 271              		.loc 1 57 5
  57:C:/Users/stapi/OneDrive/Desktop/GD32VW553/V1_MQTT_OK/GD32VW55X_Wifi_BLE_SDK/GD32VW55x_RELEASE_V1.0.2/MSDK/cloud/alicloud/src/services/shadow\shadow.c ****     if (NULL != pname) {
 272              		.loc 1 57 13 is_stmt 0
 273 005e 0C48     		lw	a1,16(s0)
 274 0060 37050000 		lui	a0,%hi(.LC8)
 275 0064 13050500 		addi	a0,a0,%lo(.LC8)
 276 0068 97000000 		call	LITE_json_value_of
 276      E7800000 
 277              	.LVL26:
 278 0070 2A89     		mv	s2,a0
 279              	.LVL27:
  58:C:/Users/stapi/OneDrive/Desktop/GD32VW553/V1_MQTT_OK/GD32VW55X_Wifi_BLE_SDK/GD32VW55x_RELEASE_V1.0.2/MSDK/cloud/alicloud/src/services/shadow\shadow.c ****         if(FAIL_RETURN == iotx_ds_common_update_time(pshadow, atoi(pname))){
 280              		.loc 1 58 5 is_stmt 1
  58:C:/Users/stapi/OneDrive/Desktop/GD32VW553/V1_MQTT_OK/GD32VW55X_Wifi_BLE_SDK/GD32VW55x_RELEASE_V1.0.2/MSDK/cloud/alicloud/src/services/shadow\shadow.c ****         if(FAIL_RETURN == iotx_ds_common_update_time(pshadow, atoi(pname))){
 281              		.loc 1 58 8 is_stmt 0
 282 0072 1DC5     		beq	a0,zero,.L16
  59:C:/Users/stapi/OneDrive/Desktop/GD32VW553/V1_MQTT_OK/GD32VW55X_Wifi_BLE_SDK/GD32VW55x_RELEASE_V1.0.2/MSDK/cloud/alicloud/src/services/shadow\shadow.c ****             LITE_free(pname);
 283              		.loc 1 59 9 is_stmt 1
  59:C:/Users/stapi/OneDrive/Desktop/GD32VW553/V1_MQTT_OK/GD32VW55X_Wifi_BLE_SDK/GD32VW55x_RELEASE_V1.0.2/MSDK/cloud/alicloud/src/services/shadow\shadow.c ****             LITE_free(pname);
 284              		.loc 1 59 63 is_stmt 0
 285 0074 97000000 		call	atoi
 285      E7800000 
 286              	.LVL28:
 287 007c AA85     		mv	a1,a0
  59:C:/Users/stapi/OneDrive/Desktop/GD32VW553/V1_MQTT_OK/GD32VW55X_Wifi_BLE_SDK/GD32VW55x_RELEASE_V1.0.2/MSDK/cloud/alicloud/src/services/shadow\shadow.c ****             LITE_free(pname);
 288              		.loc 1 59 27
 289 007e 2685     		mv	a0,s1
 290 0080 97000000 		call	iotx_ds_common_update_time
 290      E7800000 
 291              	.LVL29:
  59:C:/Users/stapi/OneDrive/Desktop/GD32VW553/V1_MQTT_OK/GD32VW55X_Wifi_BLE_SDK/GD32VW55x_RELEASE_V1.0.2/MSDK/cloud/alicloud/src/services/shadow\shadow.c ****             LITE_free(pname);
 292              		.loc 1 59 11
 293 0088 FD57     		li	a5,-1
 294 008a 631BF500 		bne	a0,a5,.L16
 295              	.L32:
  70:C:/Users/stapi/OneDrive/Desktop/GD32VW553/V1_MQTT_OK/GD32VW55X_Wifi_BLE_SDK/GD32VW55x_RELEASE_V1.0.2/MSDK/cloud/alicloud/src/services/shadow\shadow.c ****             return;
 296              		.loc 1 70 13 is_stmt 1
 297 008e 4A85     		mv	a0,s2
 298 0090 97000000 		call	LITE_free_internal
 298      E7800000 
 299              	.LVL30:
  71:C:/Users/stapi/OneDrive/Desktop/GD32VW553/V1_MQTT_OK/GD32VW55X_Wifi_BLE_SDK/GD32VW55x_RELEASE_V1.0.2/MSDK/cloud/alicloud/src/services/shadow\shadow.c ****         }
 300              		.loc 1 71 13
 301              	.L15:
 107:C:/Users/stapi/OneDrive/Desktop/GD32VW553/V1_MQTT_OK/GD32VW55X_Wifi_BLE_SDK/GD32VW55x_RELEASE_V1.0.2/MSDK/cloud/alicloud/src/services/shadow\shadow.c **** 
 302              		.loc 1 107 1 is_stmt 0
 303 0098 17030000 		tail	__riscv_restore_5
 303      67000300 
 304              		.cfi_remember_state
 305              		.cfi_restore 20
 306              		.cfi_restore 19
 307              		.cfi_restore 18
 308              		.cfi_restore 9
 309              		.cfi_restore 8
 310              		.cfi_restore 1
 311              		.cfi_def_cfa_offset 0
 312              	.L16:
 313              		.cfi_restore_state
  64:C:/Users/stapi/OneDrive/Desktop/GD32VW553/V1_MQTT_OK/GD32VW55X_Wifi_BLE_SDK/GD32VW55x_RELEASE_V1.0.2/MSDK/cloud/alicloud/src/services/shadow\shadow.c **** 
 314              		.loc 1 64 5 is_stmt 1
 315 00a0 4A85     		mv	a0,s2
 316 00a2 97000000 		call	LITE_free_internal
 316      E7800000 
 317              	.LVL31:
  67:C:/Users/stapi/OneDrive/Desktop/GD32VW553/V1_MQTT_OK/GD32VW55X_Wifi_BLE_SDK/GD32VW55x_RELEASE_V1.0.2/MSDK/cloud/alicloud/src/services/shadow\shadow.c ****     if (NULL != pname) {
 318              		.loc 1 67 5
  67:C:/Users/stapi/OneDrive/Desktop/GD32VW553/V1_MQTT_OK/GD32VW55X_Wifi_BLE_SDK/GD32VW55x_RELEASE_V1.0.2/MSDK/cloud/alicloud/src/services/shadow\shadow.c ****     if (NULL != pname) {
 319              		.loc 1 67 13 is_stmt 0
 320 00aa 0C48     		lw	a1,16(s0)
 321 00ac 37050000 		lui	a0,%hi(.LC9)
 322 00b0 13050500 		addi	a0,a0,%lo(.LC9)
 323 00b4 97000000 		call	LITE_json_value_of
 323      E7800000 
 324              	.LVL32:
 325 00bc 2A89     		mv	s2,a0
 326              	.LVL33:
  68:C:/Users/stapi/OneDrive/Desktop/GD32VW553/V1_MQTT_OK/GD32VW55X_Wifi_BLE_SDK/GD32VW55x_RELEASE_V1.0.2/MSDK/cloud/alicloud/src/services/shadow\shadow.c ****         if(FAIL_RETURN == iotx_ds_common_update_version(pshadow, atoi(pname))){
 327              		.loc 1 68 5 is_stmt 1
  68:C:/Users/stapi/OneDrive/Desktop/GD32VW553/V1_MQTT_OK/GD32VW55X_Wifi_BLE_SDK/GD32VW55x_RELEASE_V1.0.2/MSDK/cloud/alicloud/src/services/shadow\shadow.c ****         if(FAIL_RETURN == iotx_ds_common_update_version(pshadow, atoi(pname))){
 328              		.loc 1 68 8 is_stmt 0
 329 00be 1DC1     		beq	a0,zero,.L18
  69:C:/Users/stapi/OneDrive/Desktop/GD32VW553/V1_MQTT_OK/GD32VW55X_Wifi_BLE_SDK/GD32VW55x_RELEASE_V1.0.2/MSDK/cloud/alicloud/src/services/shadow\shadow.c ****             LITE_free(pname);
 330              		.loc 1 69 9 is_stmt 1
  69:C:/Users/stapi/OneDrive/Desktop/GD32VW553/V1_MQTT_OK/GD32VW55X_Wifi_BLE_SDK/GD32VW55x_RELEASE_V1.0.2/MSDK/cloud/alicloud/src/services/shadow\shadow.c ****             LITE_free(pname);
 331              		.loc 1 69 66 is_stmt 0
 332 00c0 97000000 		call	atoi
 332      E7800000 
 333              	.LVL34:
 334 00c8 AA85     		mv	a1,a0
  69:C:/Users/stapi/OneDrive/Desktop/GD32VW553/V1_MQTT_OK/GD32VW55X_Wifi_BLE_SDK/GD32VW55x_RELEASE_V1.0.2/MSDK/cloud/alicloud/src/services/shadow\shadow.c ****             LITE_free(pname);
 335              		.loc 1 69 27
 336 00ca 2685     		mv	a0,s1
 337 00cc 97000000 		call	iotx_ds_common_update_version
 337      E7800000 
 338              	.LVL35:
  69:C:/Users/stapi/OneDrive/Desktop/GD32VW553/V1_MQTT_OK/GD32VW55X_Wifi_BLE_SDK/GD32VW55x_RELEASE_V1.0.2/MSDK/cloud/alicloud/src/services/shadow\shadow.c ****             LITE_free(pname);
 339              		.loc 1 69 11
 340 00d4 FD57     		li	a5,-1
 341 00d6 E30CF5FA 		beq	a0,a5,.L32
  73:C:/Users/stapi/OneDrive/Desktop/GD32VW553/V1_MQTT_OK/GD32VW55X_Wifi_BLE_SDK/GD32VW55x_RELEASE_V1.0.2/MSDK/cloud/alicloud/src/services/shadow\shadow.c ****     }
 342              		.loc 1 73 9 is_stmt 1
 343 00da 4A85     		mv	a0,s2
 344 00dc 97000000 		call	LITE_free_internal
 344      E7800000 
 345              	.LVL36:
 346              	.L18:
  77:C:/Users/stapi/OneDrive/Desktop/GD32VW553/V1_MQTT_OK/GD32VW55X_Wifi_BLE_SDK/GD32VW55x_RELEASE_V1.0.2/MSDK/cloud/alicloud/src/services/shadow\shadow.c ****     /* shadow_debug("pname(%d) = %s", (int)strlen(pname), pname); */
 347              		.loc 1 77 5
  77:C:/Users/stapi/OneDrive/Desktop/GD32VW553/V1_MQTT_OK/GD32VW55X_Wifi_BLE_SDK/GD32VW55x_RELEASE_V1.0.2/MSDK/cloud/alicloud/src/services/shadow\shadow.c ****     /* shadow_debug("pname(%d) = %s", (int)strlen(pname), pname); */
 348              		.loc 1 77 13 is_stmt 0
 349 00e4 0C48     		lw	a1,16(s0)
 350 00e6 37050000 		lui	a0,%hi(.LC10)
 351 00ea 13050500 		addi	a0,a0,%lo(.LC10)
 352 00ee 97000000 		call	LITE_json_value_of
 352      E7800000 
 353              	.LVL37:
 354 00f6 2A89     		mv	s2,a0
 355              	.LVL38:
  79:C:/Users/stapi/OneDrive/Desktop/GD32VW553/V1_MQTT_OK/GD32VW55X_Wifi_BLE_SDK/GD32VW55x_RELEASE_V1.0.2/MSDK/cloud/alicloud/src/services/shadow\shadow.c ****         shadow_err("Invalid JSON document: not 'method' key");
 356              		.loc 1 79 5 is_stmt 1
  79:C:/Users/stapi/OneDrive/Desktop/GD32VW553/V1_MQTT_OK/GD32VW55X_Wifi_BLE_SDK/GD32VW55x_RELEASE_V1.0.2/MSDK/cloud/alicloud/src/services/shadow\shadow.c ****         shadow_err("Invalid JSON document: not 'method' key");
 357              		.loc 1 79 8 is_stmt 0
 358 00f8 39E9     		bne	a0,zero,.L20
  80:C:/Users/stapi/OneDrive/Desktop/GD32VW553/V1_MQTT_OK/GD32VW55X_Wifi_BLE_SDK/GD32VW55x_RELEASE_V1.0.2/MSDK/cloud/alicloud/src/services/shadow\shadow.c ****     } else if ((strlen("control") == strlen(pname)) && !strcmp(pname, "control")) {
 359              		.loc 1 80 9 is_stmt 1
  80:C:/Users/stapi/OneDrive/Desktop/GD32VW553/V1_MQTT_OK/GD32VW55X_Wifi_BLE_SDK/GD32VW55x_RELEASE_V1.0.2/MSDK/cloud/alicloud/src/services/shadow\shadow.c ****     } else if ((strlen("control") == strlen(pname)) && !strcmp(pname, "control")) {
 360              		.loc 1 80 9
 361 00fa 37050000 		lui	a0,%hi(.LC11)
 362              	.LVL39:
 363 00fe 13050500 		addi	a0,a0,%lo(.LC11)
 364 0102 97000000 		call	HAL_Printf
 364      E7800000 
 365              	.LVL40:
  80:C:/Users/stapi/OneDrive/Desktop/GD32VW553/V1_MQTT_OK/GD32VW55X_Wifi_BLE_SDK/GD32VW55x_RELEASE_V1.0.2/MSDK/cloud/alicloud/src/services/shadow\shadow.c ****     } else if ((strlen("control") == strlen(pname)) && !strcmp(pname, "control")) {
 366              		.loc 1 80 9
 367 010a 37050000 		lui	a0,%hi(.LC12)
 368 010e 13050500 		addi	a0,a0,%lo(.LC12)
 369 0112 97000000 		call	HAL_Printf
 369      E7800000 
 370              	.LVL41:
  80:C:/Users/stapi/OneDrive/Desktop/GD32VW553/V1_MQTT_OK/GD32VW55X_Wifi_BLE_SDK/GD32VW55x_RELEASE_V1.0.2/MSDK/cloud/alicloud/src/services/shadow\shadow.c ****     } else if ((strlen("control") == strlen(pname)) && !strcmp(pname, "control")) {
 371              		.loc 1 80 9
 372 011a 37050000 		lui	a0,%hi(.LC13)
 373 011e 13050500 		addi	a0,a0,%lo(.LC13)
 374 0122 97000000 		call	HAL_Printf
 374      E7800000 
 375              	.LVL42:
  80:C:/Users/stapi/OneDrive/Desktop/GD32VW553/V1_MQTT_OK/GD32VW55X_Wifi_BLE_SDK/GD32VW55x_RELEASE_V1.0.2/MSDK/cloud/alicloud/src/services/shadow\shadow.c ****     } else if ((strlen("control") == strlen(pname)) && !strcmp(pname, "control")) {
 376              		.loc 1 80 9
 377              	.L21:
 104:C:/Users/stapi/OneDrive/Desktop/GD32VW553/V1_MQTT_OK/GD32VW55X_Wifi_BLE_SDK/GD32VW55x_RELEASE_V1.0.2/MSDK/cloud/alicloud/src/services/shadow\shadow.c **** 
 378              		.loc 1 104 5
 106:C:/Users/stapi/OneDrive/Desktop/GD32VW553/V1_MQTT_OK/GD32VW55X_Wifi_BLE_SDK/GD32VW55x_RELEASE_V1.0.2/MSDK/cloud/alicloud/src/services/shadow\shadow.c **** }
 379              		.loc 1 106 5 is_stmt 0
 380 012a 37070000 		lui	a4,%hi(.LC19)
 104:C:/Users/stapi/OneDrive/Desktop/GD32VW553/V1_MQTT_OK/GD32VW55X_Wifi_BLE_SDK/GD32VW55x_RELEASE_V1.0.2/MSDK/cloud/alicloud/src/services/shadow\shadow.c **** 
 381              		.loc 1 104 37
 382 012e 23AC042E 		sw	zero,760(s1)
 106:C:/Users/stapi/OneDrive/Desktop/GD32VW553/V1_MQTT_OK/GD32VW55X_Wifi_BLE_SDK/GD32VW55x_RELEASE_V1.0.2/MSDK/cloud/alicloud/src/services/shadow\shadow.c **** }
 383              		.loc 1 106 5 is_stmt 1
 384 0132 13070700 		addi	a4,a4,%lo(.LC19)
 385 0136 9546     		li	a3,5
 386 0138 1306A006 		li	a2,106
 387 013c 93050A00 		addi	a1,s4,%lo(.LANCHOR1)
 388 0140 13850900 		addi	a0,s3,%lo(.LC1)
 389 0144 97000000 		call	LITE_syslog
 389      E7800000 
 390              	.LVL43:
 391 014c B1B7     		j	.L15
 392              	.LVL44:
 393              	.L20:
  81:C:/Users/stapi/OneDrive/Desktop/GD32VW553/V1_MQTT_OK/GD32VW55X_Wifi_BLE_SDK/GD32VW55x_RELEASE_V1.0.2/MSDK/cloud/alicloud/src/services/shadow\shadow.c ****         /* call delta handle function */
 394              		.loc 1 81 12
  81:C:/Users/stapi/OneDrive/Desktop/GD32VW553/V1_MQTT_OK/GD32VW55X_Wifi_BLE_SDK/GD32VW55x_RELEASE_V1.0.2/MSDK/cloud/alicloud/src/services/shadow\shadow.c ****         /* call delta handle function */
 395              		.loc 1 81 38 is_stmt 0
 396 014e 97000000 		call	strlen
 396      E7800000 
 397              	.LVL45:
  81:C:/Users/stapi/OneDrive/Desktop/GD32VW553/V1_MQTT_OK/GD32VW55X_Wifi_BLE_SDK/GD32VW55x_RELEASE_V1.0.2/MSDK/cloud/alicloud/src/services/shadow\shadow.c ****         /* call delta handle function */
 398              		.loc 1 81 15
 399 0156 9D47     		li	a5,7
 400 0158 631BF504 		bne	a0,a5,.L22
  81:C:/Users/stapi/OneDrive/Desktop/GD32VW553/V1_MQTT_OK/GD32VW55X_Wifi_BLE_SDK/GD32VW55x_RELEASE_V1.0.2/MSDK/cloud/alicloud/src/services/shadow\shadow.c ****         /* call delta handle function */
 401              		.loc 1 81 57 discriminator 1
 402 015c B7050000 		lui	a1,%hi(.LC14)
 403 0160 93850500 		addi	a1,a1,%lo(.LC14)
 404 0164 4A85     		mv	a0,s2
 405 0166 97000000 		call	strcmp
 405      E7800000 
 406              	.LVL46:
  81:C:/Users/stapi/OneDrive/Desktop/GD32VW553/V1_MQTT_OK/GD32VW55X_Wifi_BLE_SDK/GD32VW55x_RELEASE_V1.0.2/MSDK/cloud/alicloud/src/services/shadow\shadow.c ****         /* call delta handle function */
 407              		.loc 1 81 53 discriminator 1
 408 016e 59E5     		bne	a0,zero,.L23
  83:C:/Users/stapi/OneDrive/Desktop/GD32VW553/V1_MQTT_OK/GD32VW55X_Wifi_BLE_SDK/GD32VW55x_RELEASE_V1.0.2/MSDK/cloud/alicloud/src/services/shadow\shadow.c ****         pshadow->inner_data.method_type = SHADOW_DOWNSTREAM_METHOD_CONTROL;
 409              		.loc 1 83 9 is_stmt 1
 410 0170 37070000 		lui	a4,%hi(.LC15)
 411 0174 13063005 		li	a2,83
 412 0178 93050A00 		addi	a1,s4,%lo(.LANCHOR1)
 413 017c 13850900 		addi	a0,s3,%lo(.LC1)
 414 0180 13070700 		addi	a4,a4,%lo(.LC15)
 415 0184 9546     		li	a3,5
 416 0186 97000000 		call	LITE_syslog
 416      E7800000 
 417              	.LVL47:
  84:C:/Users/stapi/OneDrive/Desktop/GD32VW553/V1_MQTT_OK/GD32VW55X_Wifi_BLE_SDK/GD32VW55x_RELEASE_V1.0.2/MSDK/cloud/alicloud/src/services/shadow\shadow.c **** 
 418              		.loc 1 84 9
  86:C:/Users/stapi/OneDrive/Desktop/GD32VW553/V1_MQTT_OK/GD32VW55X_Wifi_BLE_SDK/GD32VW55x_RELEASE_V1.0.2/MSDK/cloud/alicloud/src/services/shadow\shadow.c ****                     pshadow,
 419              		.loc 1 86 9 is_stmt 0
 420 018e 1044     		lw	a2,8(s0)
 421 0190 0C48     		lw	a1,16(s0)
  84:C:/Users/stapi/OneDrive/Desktop/GD32VW553/V1_MQTT_OK/GD32VW55X_Wifi_BLE_SDK/GD32VW55x_RELEASE_V1.0.2/MSDK/cloud/alicloud/src/services/shadow\shadow.c **** 
 422              		.loc 1 84 41
 423 0192 8547     		li	a5,1
 424 0194 23ACF42E 		sw	a5,760(s1)
  86:C:/Users/stapi/OneDrive/Desktop/GD32VW553/V1_MQTT_OK/GD32VW55X_Wifi_BLE_SDK/GD32VW55x_RELEASE_V1.0.2/MSDK/cloud/alicloud/src/services/shadow\shadow.c ****                     pshadow,
 425              		.loc 1 86 9 is_stmt 1
 426 0198 2685     		mv	a0,s1
 427 019a 97000000 		call	iotx_shadow_delta_entry
 427      E7800000 
 428              	.LVL48:
  90:C:/Users/stapi/OneDrive/Desktop/GD32VW553/V1_MQTT_OK/GD32VW55X_Wifi_BLE_SDK/GD32VW55x_RELEASE_V1.0.2/MSDK/cloud/alicloud/src/services/shadow\shadow.c ****     } else if ((strlen("reply") == strlen(pname)) && !strcmp(pname, "reply")) {
 429              		.loc 1 90 9
 430              	.L31:
 101:C:/Users/stapi/OneDrive/Desktop/GD32VW553/V1_MQTT_OK/GD32VW55X_Wifi_BLE_SDK/GD32VW55x_RELEASE_V1.0.2/MSDK/cloud/alicloud/src/services/shadow\shadow.c ****         LITE_free(pname);
 431              		.loc 1 101 9
 102:C:/Users/stapi/OneDrive/Desktop/GD32VW553/V1_MQTT_OK/GD32VW55X_Wifi_BLE_SDK/GD32VW55x_RELEASE_V1.0.2/MSDK/cloud/alicloud/src/services/shadow\shadow.c ****     }
 432              		.loc 1 102 9
 433 01a2 4A85     		mv	a0,s2
 434 01a4 97000000 		call	LITE_free_internal
 434      E7800000 
 435              	.LVL49:
 436 01ac BDBF     		j	.L21
 437              	.L22:
  91:C:/Users/stapi/OneDrive/Desktop/GD32VW553/V1_MQTT_OK/GD32VW55X_Wifi_BLE_SDK/GD32VW55x_RELEASE_V1.0.2/MSDK/cloud/alicloud/src/services/shadow\shadow.c ****         /* call update ACK handle function. */
 438              		.loc 1 91 12
  91:C:/Users/stapi/OneDrive/Desktop/GD32VW553/V1_MQTT_OK/GD32VW55X_Wifi_BLE_SDK/GD32VW55x_RELEASE_V1.0.2/MSDK/cloud/alicloud/src/services/shadow\shadow.c ****         /* call update ACK handle function. */
 439              		.loc 1 91 15 is_stmt 0
 440 01ae 9547     		li	a5,5
 441 01b0 6316F504 		bne	a0,a5,.L23
  91:C:/Users/stapi/OneDrive/Desktop/GD32VW553/V1_MQTT_OK/GD32VW55X_Wifi_BLE_SDK/GD32VW55x_RELEASE_V1.0.2/MSDK/cloud/alicloud/src/services/shadow\shadow.c ****         /* call update ACK handle function. */
 442              		.loc 1 91 55 discriminator 1
 443 01b4 B7050000 		lui	a1,%hi(.LC16)
 444 01b8 93850500 		addi	a1,a1,%lo(.LC16)
 445 01bc 4A85     		mv	a0,s2
 446 01be 97000000 		call	strcmp
 446      E7800000 
 447              	.LVL50:
  91:C:/Users/stapi/OneDrive/Desktop/GD32VW553/V1_MQTT_OK/GD32VW55X_Wifi_BLE_SDK/GD32VW55x_RELEASE_V1.0.2/MSDK/cloud/alicloud/src/services/shadow\shadow.c ****         /* call update ACK handle function. */
 448              		.loc 1 91 51 discriminator 1
 449 01c6 1DE9     		bne	a0,zero,.L23
  93:C:/Users/stapi/OneDrive/Desktop/GD32VW553/V1_MQTT_OK/GD32VW55X_Wifi_BLE_SDK/GD32VW55x_RELEASE_V1.0.2/MSDK/cloud/alicloud/src/services/shadow\shadow.c ****         pshadow->inner_data.method_type = SHADOW_DOWNSTREAM_METHOD_REPLY;
 450              		.loc 1 93 9 is_stmt 1
 451 01c8 37070000 		lui	a4,%hi(.LC17)
 452 01cc 93050A00 		addi	a1,s4,%lo(.LANCHOR1)
 453 01d0 13850900 		addi	a0,s3,%lo(.LC1)
 454 01d4 13070700 		addi	a4,a4,%lo(.LC17)
 455 01d8 9546     		li	a3,5
 456 01da 1306D005 		li	a2,93
 457 01de 97000000 		call	LITE_syslog
 457      E7800000 
 458              	.LVL51:
  94:C:/Users/stapi/OneDrive/Desktop/GD32VW553/V1_MQTT_OK/GD32VW55X_Wifi_BLE_SDK/GD32VW55x_RELEASE_V1.0.2/MSDK/cloud/alicloud/src/services/shadow\shadow.c ****         iotx_ds_update_wait_ack_list_handle_response(
 459              		.loc 1 94 9
  95:C:/Users/stapi/OneDrive/Desktop/GD32VW553/V1_MQTT_OK/GD32VW55X_Wifi_BLE_SDK/GD32VW55x_RELEASE_V1.0.2/MSDK/cloud/alicloud/src/services/shadow\shadow.c ****                     pshadow,
 460              		.loc 1 95 9 is_stmt 0
 461 01e6 1044     		lw	a2,8(s0)
 462 01e8 0C48     		lw	a1,16(s0)
  94:C:/Users/stapi/OneDrive/Desktop/GD32VW553/V1_MQTT_OK/GD32VW55X_Wifi_BLE_SDK/GD32VW55x_RELEASE_V1.0.2/MSDK/cloud/alicloud/src/services/shadow\shadow.c ****         iotx_ds_update_wait_ack_list_handle_response(
 463              		.loc 1 94 41
 464 01ea 8947     		li	a5,2
 465 01ec 23ACF42E 		sw	a5,760(s1)
  95:C:/Users/stapi/OneDrive/Desktop/GD32VW553/V1_MQTT_OK/GD32VW55X_Wifi_BLE_SDK/GD32VW55x_RELEASE_V1.0.2/MSDK/cloud/alicloud/src/services/shadow\shadow.c ****                     pshadow,
 466              		.loc 1 95 9 is_stmt 1
 467 01f0 2685     		mv	a0,s1
 468 01f2 97000000 		call	iotx_ds_update_wait_ack_list_handle_response
 468      E7800000 
 469              	.LVL52:
  99:C:/Users/stapi/OneDrive/Desktop/GD32VW553/V1_MQTT_OK/GD32VW55X_Wifi_BLE_SDK/GD32VW55x_RELEASE_V1.0.2/MSDK/cloud/alicloud/src/services/shadow\shadow.c ****     } else {
 470              		.loc 1 99 9
 471 01fa 65B7     		j	.L31
 472              	.L23:
 101:C:/Users/stapi/OneDrive/Desktop/GD32VW553/V1_MQTT_OK/GD32VW55X_Wifi_BLE_SDK/GD32VW55x_RELEASE_V1.0.2/MSDK/cloud/alicloud/src/services/shadow\shadow.c ****         LITE_free(pname);
 473              		.loc 1 101 9
 101:C:/Users/stapi/OneDrive/Desktop/GD32VW553/V1_MQTT_OK/GD32VW55X_Wifi_BLE_SDK/GD32VW55x_RELEASE_V1.0.2/MSDK/cloud/alicloud/src/services/shadow\shadow.c ****         LITE_free(pname);
 474              		.loc 1 101 9
 475 01fc 37050000 		lui	a0,%hi(.LC11)
 476 0200 13050500 		addi	a0,a0,%lo(.LC11)
 477 0204 97000000 		call	HAL_Printf
 477      E7800000 
 478              	.LVL53:
 101:C:/Users/stapi/OneDrive/Desktop/GD32VW553/V1_MQTT_OK/GD32VW55X_Wifi_BLE_SDK/GD32VW55x_RELEASE_V1.0.2/MSDK/cloud/alicloud/src/services/shadow\shadow.c ****         LITE_free(pname);
 479              		.loc 1 101 9
 480 020c 37050000 		lui	a0,%hi(.LC18)
 481 0210 13050500 		addi	a0,a0,%lo(.LC18)
 482 0214 97000000 		call	HAL_Printf
 482      E7800000 
 483              	.LVL54:
 101:C:/Users/stapi/OneDrive/Desktop/GD32VW553/V1_MQTT_OK/GD32VW55X_Wifi_BLE_SDK/GD32VW55x_RELEASE_V1.0.2/MSDK/cloud/alicloud/src/services/shadow\shadow.c ****         LITE_free(pname);
 484              		.loc 1 101 9
 485 021c 37050000 		lui	a0,%hi(.LC13)
 486 0220 13050500 		addi	a0,a0,%lo(.LC13)
 487 0224 97000000 		call	HAL_Printf
 487      E7800000 
 488              	.LVL55:
 489 022c 9DBF     		j	.L31
 490              		.cfi_endproc
 491              	.LFE21:
 493              		.section	.rodata.iotx_update_ack_cb.str1.4,"aMS",@progbits,1
 494              		.align	2
 495              	.LC20:
 496 0000 61636B5F 		.string	"ack_code=%d"
 496      636F6465 
 496      3D256400 
 497              		.align	2
 498              	.LC21:
 499 000c 61636B5F 		.string	"ack_msg=%.*s"
 499      6D73673D 
 499      252E2A73 
 499      00
 500 0019 000000   		.align	2
 501              	.LC22:
 502 001c 61636B5F 		.string	"ack_msg is NULL"
 502      6D736720 
 502      6973204E 
 502      554C4C00 
 503              		.section	.text.iotx_update_ack_cb,"ax",@progbits
 504              		.align	1
 506              	iotx_update_ack_cb:
 507              	.LFB27:
 209:C:/Users/stapi/OneDrive/Desktop/GD32VW553/V1_MQTT_OK/GD32VW55X_Wifi_BLE_SDK/GD32VW55x_RELEASE_V1.0.2/MSDK/cloud/alicloud/src/services/shadow\shadow.c ****     shadow_debug("ack_code=%d", ack_code);
 508              		.loc 1 209 1
 509              		.cfi_startproc
 510              	.LVL56:
 511 0000 17030000 		call	t0,__riscv_save_3
 511      E7020300 
 512              		.cfi_offset 18, -16
 513              		.cfi_offset 9, -12
 514              		.cfi_offset 8, -8
 515              		.cfi_offset 1, -4
 516              		.cfi_def_cfa_offset 16
 517 0008 4111     		addi	sp,sp,-16
 518              		.cfi_def_cfa_offset 32
 210:C:/Users/stapi/OneDrive/Desktop/GD32VW553/V1_MQTT_OK/GD32VW55X_Wifi_BLE_SDK/GD32VW55x_RELEASE_V1.0.2/MSDK/cloud/alicloud/src/services/shadow\shadow.c **** 
 519              		.loc 1 210 5 is_stmt 0
 520 000a B7040000 		lui	s1,%hi(.LANCHOR2)
 521 000e 37070000 		lui	a4,%hi(.LC20)
 522 0012 37040000 		lui	s0,%hi(.LC1)
 209:C:/Users/stapi/OneDrive/Desktop/GD32VW553/V1_MQTT_OK/GD32VW55X_Wifi_BLE_SDK/GD32VW55x_RELEASE_V1.0.2/MSDK/cloud/alicloud/src/services/shadow\shadow.c ****     shadow_debug("ack_code=%d", ack_code);
 523              		.loc 1 209 1
 524 0016 AE87     		mv	a5,a1
 525 0018 32C6     		sw	a2,12(sp)
 210:C:/Users/stapi/OneDrive/Desktop/GD32VW553/V1_MQTT_OK/GD32VW55X_Wifi_BLE_SDK/GD32VW55x_RELEASE_V1.0.2/MSDK/cloud/alicloud/src/services/shadow\shadow.c **** 
 526              		.loc 1 210 5 is_stmt 1
 209:C:/Users/stapi/OneDrive/Desktop/GD32VW553/V1_MQTT_OK/GD32VW55X_Wifi_BLE_SDK/GD32VW55x_RELEASE_V1.0.2/MSDK/cloud/alicloud/src/services/shadow\shadow.c ****     shadow_debug("ack_code=%d", ack_code);
 527              		.loc 1 209 1 is_stmt 0
 528 001a 3689     		mv	s2,a3
 210:C:/Users/stapi/OneDrive/Desktop/GD32VW553/V1_MQTT_OK/GD32VW55X_Wifi_BLE_SDK/GD32VW55x_RELEASE_V1.0.2/MSDK/cloud/alicloud/src/services/shadow\shadow.c **** 
 529              		.loc 1 210 5
 530 001c 13070700 		addi	a4,a4,%lo(.LC20)
 531 0020 9546     		li	a3,5
 532              	.LVL57:
 533 0022 1306200D 		li	a2,210
 534              	.LVL58:
 535 0026 93850400 		addi	a1,s1,%lo(.LANCHOR2)
 536              	.LVL59:
 537 002a 13050400 		addi	a0,s0,%lo(.LC1)
 538              	.LVL60:
 539 002e 97000000 		call	LITE_syslog
 539      E7800000 
 540              	.LVL61:
 212:C:/Users/stapi/OneDrive/Desktop/GD32VW553/V1_MQTT_OK/GD32VW55X_Wifi_BLE_SDK/GD32VW55x_RELEASE_V1.0.2/MSDK/cloud/alicloud/src/services/shadow\shadow.c ****         shadow_debug("ack_msg=%.*s", ack_msg_len, ack_msg);
 541              		.loc 1 212 5 is_stmt 1
 212:C:/Users/stapi/OneDrive/Desktop/GD32VW553/V1_MQTT_OK/GD32VW55X_Wifi_BLE_SDK/GD32VW55x_RELEASE_V1.0.2/MSDK/cloud/alicloud/src/services/shadow\shadow.c ****         shadow_debug("ack_msg=%.*s", ack_msg_len, ack_msg);
 542              		.loc 1 212 8 is_stmt 0
 543 0036 3248     		lw	a6,12(sp)
 544 0038 63070802 		beq	a6,zero,.L34
 213:C:/Users/stapi/OneDrive/Desktop/GD32VW553/V1_MQTT_OK/GD32VW55X_Wifi_BLE_SDK/GD32VW55x_RELEASE_V1.0.2/MSDK/cloud/alicloud/src/services/shadow\shadow.c ****     } else {
 545              		.loc 1 213 9 is_stmt 1
 546 003c 37070000 		lui	a4,%hi(.LC21)
 547 0040 CA87     		mv	a5,s2
 548 0042 13070700 		addi	a4,a4,%lo(.LC21)
 549 0046 9546     		li	a3,5
 550 0048 1306500D 		li	a2,213
 551 004c 93850400 		addi	a1,s1,%lo(.LANCHOR2)
 552 0050 13050400 		addi	a0,s0,%lo(.LC1)
 553 0054 97000000 		call	LITE_syslog
 553      E7800000 
 554              	.LVL62:
 555              	.L33:
 219:C:/Users/stapi/OneDrive/Desktop/GD32VW553/V1_MQTT_OK/GD32VW55X_Wifi_BLE_SDK/GD32VW55x_RELEASE_V1.0.2/MSDK/cloud/alicloud/src/services/shadow\shadow.c **** 
 556              		.loc 1 219 1 is_stmt 0
 557 005c 4101     		addi	sp,sp,16
 558              		.cfi_remember_state
 559              		.cfi_def_cfa_offset 0
 560              	.LVL63:
 561 005e 17030000 		tail	__riscv_restore_3
 561      67000300 
 562              		.cfi_restore 18
 563              		.cfi_restore 9
 564              		.cfi_restore 8
 565              		.cfi_restore 1
 566              		.cfi_def_cfa_offset -16
 567              	.LVL64:
 568              	.L34:
 569              		.cfi_restore_state
 570              	.LBB10:
 571              	.LBB11:
 215:C:/Users/stapi/OneDrive/Desktop/GD32VW553/V1_MQTT_OK/GD32VW55X_Wifi_BLE_SDK/GD32VW55x_RELEASE_V1.0.2/MSDK/cloud/alicloud/src/services/shadow\shadow.c ****     }
 572              		.loc 1 215 9 is_stmt 1
 573 0066 37070000 		lui	a4,%hi(.LC22)
 574 006a 13070700 		addi	a4,a4,%lo(.LC22)
 575 006e 9546     		li	a3,5
 576 0070 1306700D 		li	a2,215
 577 0074 93850400 		addi	a1,s1,%lo(.LANCHOR2)
 578 0078 13050400 		addi	a0,s0,%lo(.LC1)
 579 007c 97000000 		call	LITE_syslog
 579      E7800000 
 580              	.LVL65:
 581              	.LBE11:
 582              	.LBE10:
 219:C:/Users/stapi/OneDrive/Desktop/GD32VW553/V1_MQTT_OK/GD32VW55X_Wifi_BLE_SDK/GD32VW55x_RELEASE_V1.0.2/MSDK/cloud/alicloud/src/services/shadow\shadow.c **** 
 583              		.loc 1 219 1 is_stmt 0
 584 0084 E1BF     		j	.L33
 585              		.cfi_endproc
 586              	.LFE27:
 588              		.section	.rodata.IOT_Shadow_PushFormat_Init.str1.4,"aMS",@progbits,1
 589              		.align	2
 590              	.LC23:
 591 0000 22737461 		.string	"\"state\":{\"reported\":{"
 591      7465223A 
 591      7B227265 
 591      706F7274 
 591      6564223A 
 592 0016 0000     		.align	2
 593              	.LC24:
 594 0018 75706461 		.string	"update"
 594      746500
 595              		.section	.text.IOT_Shadow_PushFormat_Init,"ax",@progbits
 596              		.align	1
 597              		.globl	IOT_Shadow_PushFormat_Init
 599              	IOT_Shadow_PushFormat_Init:
 600              	.LFB23:
 138:C:/Users/stapi/OneDrive/Desktop/GD32VW553/V1_MQTT_OK/GD32VW55X_Wifi_BLE_SDK/GD32VW55x_RELEASE_V1.0.2/MSDK/cloud/alicloud/src/services/shadow\shadow.c ****     return iotx_ds_common_format_init((iotx_shadow_pt)pshadow, pformat, buf, size, "update", "\"sta
 601              		.loc 1 138 1 is_stmt 1
 602              		.cfi_startproc
 603              	.LVL66:
 139:C:/Users/stapi/OneDrive/Desktop/GD32VW553/V1_MQTT_OK/GD32VW55X_Wifi_BLE_SDK/GD32VW55x_RELEASE_V1.0.2/MSDK/cloud/alicloud/src/services/shadow\shadow.c **** }
 604              		.loc 1 139 5
 139:C:/Users/stapi/OneDrive/Desktop/GD32VW553/V1_MQTT_OK/GD32VW55X_Wifi_BLE_SDK/GD32VW55x_RELEASE_V1.0.2/MSDK/cloud/alicloud/src/services/shadow\shadow.c **** }
 605              		.loc 1 139 12 is_stmt 0
 606 0000 B7070000 		lui	a5,%hi(.LC23)
 607 0004 37070000 		lui	a4,%hi(.LC24)
 608 0008 93870700 		addi	a5,a5,%lo(.LC23)
 609 000c 13070700 		addi	a4,a4,%lo(.LC24)
 610 0010 17030000 		tail	iotx_ds_common_format_init
 610      67000300 
 611              	.LVL67:
 612              		.cfi_endproc
 613              	.LFE23:
 615              		.section	.text.IOT_Shadow_PushFormat_Add,"ax",@progbits
 616              		.align	1
 617              		.globl	IOT_Shadow_PushFormat_Add
 619              	IOT_Shadow_PushFormat_Add:
 620              	.LFB24:
 146:C:/Users/stapi/OneDrive/Desktop/GD32VW553/V1_MQTT_OK/GD32VW55X_Wifi_BLE_SDK/GD32VW55x_RELEASE_V1.0.2/MSDK/cloud/alicloud/src/services/shadow\shadow.c ****     return iotx_ds_common_format_add((iotx_shadow_pt)pshadow, pformat, pattr->pattr_name, pattr->pa
 621              		.loc 1 146 1 is_stmt 1
 622              		.cfi_startproc
 623              	.LVL68:
 147:C:/Users/stapi/OneDrive/Desktop/GD32VW553/V1_MQTT_OK/GD32VW55X_Wifi_BLE_SDK/GD32VW55x_RELEASE_V1.0.2/MSDK/cloud/alicloud/src/services/shadow\shadow.c ****                                      pattr->attr_type);
 624              		.loc 1 147 5
 147:C:/Users/stapi/OneDrive/Desktop/GD32VW553/V1_MQTT_OK/GD32VW55X_Wifi_BLE_SDK/GD32VW55x_RELEASE_V1.0.2/MSDK/cloud/alicloud/src/services/shadow\shadow.c ****                                      pattr->attr_type);
 625              		.loc 1 147 12 is_stmt 0
 626 0000 5846     		lw	a4,12(a2)
 627 0002 1446     		lw	a3,8(a2)
 628 0004 5042     		lw	a2,4(a2)
 629              	.LVL69:
 630 0006 17030000 		tail	iotx_ds_common_format_add
 630      67000300 
 631              	.LVL70:
 632              		.cfi_endproc
 633              	.LFE24:
 635              		.section	.rodata.IOT_Shadow_PushFormat_Finalize.str1.4,"aMS",@progbits,1
 636              		.align	2
 637              	.LC25:
 638 0000 7D7D00   		.string	"}}"
 639              		.section	.text.IOT_Shadow_PushFormat_Finalize,"ax",@progbits
 640              		.align	1
 641              		.globl	IOT_Shadow_PushFormat_Finalize
 643              	IOT_Shadow_PushFormat_Finalize:
 644              	.LFB25:
 153:C:/Users/stapi/OneDrive/Desktop/GD32VW553/V1_MQTT_OK/GD32VW55X_Wifi_BLE_SDK/GD32VW55x_RELEASE_V1.0.2/MSDK/cloud/alicloud/src/services/shadow\shadow.c ****     return iotx_ds_common_format_finalize((iotx_shadow_pt)pshadow, pformat, "}}", 0);
 645              		.loc 1 153 1 is_stmt 1
 646              		.cfi_startproc
 647              	.LVL71:
 154:C:/Users/stapi/OneDrive/Desktop/GD32VW553/V1_MQTT_OK/GD32VW55X_Wifi_BLE_SDK/GD32VW55x_RELEASE_V1.0.2/MSDK/cloud/alicloud/src/services/shadow\shadow.c **** }
 648              		.loc 1 154 5
 154:C:/Users/stapi/OneDrive/Desktop/GD32VW553/V1_MQTT_OK/GD32VW55X_Wifi_BLE_SDK/GD32VW55x_RELEASE_V1.0.2/MSDK/cloud/alicloud/src/services/shadow\shadow.c **** }
 649              		.loc 1 154 12 is_stmt 0
 650 0000 37060000 		lui	a2,%hi(.LC25)
 651 0004 8146     		li	a3,0
 652 0006 13060600 		addi	a2,a2,%lo(.LC25)
 653 000a 17030000 		tail	iotx_ds_common_format_finalize
 653      67000300 
 654              	.LVL72:
 655              		.cfi_endproc
 656              	.LFE25:
 658              		.section	.rodata.IOT_Shadow_Push_Async.str1.4,"aMS",@progbits,1
 659              		.align	2
 660              	.LC26:
 661 0000 54686520 		.string	"The MQTT connection must be established before UPDATE data."
 661      4D515454 
 661      20636F6E 
 661      6E656374 
 661      696F6E20 
 662              		.align	2
 663              	.LC27:
 664 003c 64617461 		.string	"data(%d) = %s"
 664      28256429 
 664      203D2025 
 664      7300
 665 004a 0000     		.align	2
 666              	.LC28:
 667 004c 636C6965 		.string	"clientToken"
 667      6E74546F 
 667      6B656E00 
 668              		.align	2
 669              	.LC29:
 670 0058 4E554C4C 		.string	"NULL != ptoken"
 670      20213D20 
 670      70746F6B 
 670      656E00
 671 0067 00       		.align	2
 672              	.LC30:
 673 0068 433A2F55 		.string	"C:/Users/stapi/OneDrive/Desktop/GD32VW553/V1_MQTT_OK/GD32VW55X_Wifi_BLE_SDK/GD32VW55x_REL
 673      73657273 
 673      2F737461 
 673      70692F4F 
 673      6E654472 
 674 00fe 0000     		.align	2
 675              	.LC31:
 676 0100 23232320 		.string	"### %s | %s(%d): ASSERT FAILED ###: %s is FALSE\r\n"
 676      2573207C 
 676      20257328 
 676      2564293A 
 676      20415353 
 677              		.section	.text.IOT_Shadow_Push_Async,"ax",@progbits
 678              		.align	1
 679              		.globl	IOT_Shadow_Push_Async
 681              	IOT_Shadow_Push_Async:
 682              	.LFB26:
 165:C:/Users/stapi/OneDrive/Desktop/GD32VW553/V1_MQTT_OK/GD32VW55X_Wifi_BLE_SDK/GD32VW55x_RELEASE_V1.0.2/MSDK/cloud/alicloud/src/services/shadow\shadow.c ****     int rc = SUCCESS_RETURN;
 683              		.loc 1 165 1 is_stmt 1
 684              		.cfi_startproc
 685              	.LVL73:
 686 0000 17030000 		call	t0,__riscv_save_7
 686      E7020300 
 687              		.cfi_offset 22, -32
 688              		.cfi_offset 21, -28
 689              		.cfi_offset 20, -24
 690              		.cfi_offset 19, -20
 691              		.cfi_offset 18, -16
 692              		.cfi_offset 9, -12
 693              		.cfi_offset 8, -8
 694              		.cfi_offset 1, -4
 695              		.cfi_def_cfa_offset 32
 166:C:/Users/stapi/OneDrive/Desktop/GD32VW553/V1_MQTT_OK/GD32VW55X_Wifi_BLE_SDK/GD32VW55x_RELEASE_V1.0.2/MSDK/cloud/alicloud/src/services/shadow\shadow.c ****     iotx_update_ack_wait_list_pt pelement;
 696              		.loc 1 166 5
 697              	.LVL74:
 167:C:/Users/stapi/OneDrive/Desktop/GD32VW553/V1_MQTT_OK/GD32VW55X_Wifi_BLE_SDK/GD32VW55x_RELEASE_V1.0.2/MSDK/cloud/alicloud/src/services/shadow\shadow.c ****     const char *ptoken;
 698              		.loc 1 167 5
 168:C:/Users/stapi/OneDrive/Desktop/GD32VW553/V1_MQTT_OK/GD32VW55X_Wifi_BLE_SDK/GD32VW55x_RELEASE_V1.0.2/MSDK/cloud/alicloud/src/services/shadow\shadow.c ****     iotx_shadow_pt pshadow = (iotx_shadow_pt)handle;
 699              		.loc 1 168 5
 169:C:/Users/stapi/OneDrive/Desktop/GD32VW553/V1_MQTT_OK/GD32VW55X_Wifi_BLE_SDK/GD32VW55x_RELEASE_V1.0.2/MSDK/cloud/alicloud/src/services/shadow\shadow.c **** 
 700              		.loc 1 169 5
 171:C:/Users/stapi/OneDrive/Desktop/GD32VW553/V1_MQTT_OK/GD32VW55X_Wifi_BLE_SDK/GD32VW55x_RELEASE_V1.0.2/MSDK/cloud/alicloud/src/services/shadow\shadow.c ****         return NULL_VALUE_ERROR;
 701              		.loc 1 171 5
 172:C:/Users/stapi/OneDrive/Desktop/GD32VW553/V1_MQTT_OK/GD32VW55X_Wifi_BLE_SDK/GD32VW55x_RELEASE_V1.0.2/MSDK/cloud/alicloud/src/services/shadow\shadow.c ****     }
 702              		.loc 1 172 16 is_stmt 0
 703 0008 7954     		li	s0,-2
 171:C:/Users/stapi/OneDrive/Desktop/GD32VW553/V1_MQTT_OK/GD32VW55X_Wifi_BLE_SDK/GD32VW55x_RELEASE_V1.0.2/MSDK/cloud/alicloud/src/services/shadow\shadow.c ****         return NULL_VALUE_ERROR;
 704              		.loc 1 171 8
 705 000a 29C9     		beq	a0,zero,.L43
 706 000c 2E89     		mv	s2,a1
 172:C:/Users/stapi/OneDrive/Desktop/GD32VW553/V1_MQTT_OK/GD32VW55X_Wifi_BLE_SDK/GD32VW55x_RELEASE_V1.0.2/MSDK/cloud/alicloud/src/services/shadow\shadow.c ****     }
 707              		.loc 1 172 16 discriminator 1
 708 000e 7954     		li	s0,-2
 171:C:/Users/stapi/OneDrive/Desktop/GD32VW553/V1_MQTT_OK/GD32VW55X_Wifi_BLE_SDK/GD32VW55x_RELEASE_V1.0.2/MSDK/cloud/alicloud/src/services/shadow\shadow.c ****         return NULL_VALUE_ERROR;
 709              		.loc 1 171 26 discriminator 1
 710 0010 B1C5     		beq	a1,zero,.L43
 711 0012 AA84     		mv	s1,a0
 175:C:/Users/stapi/OneDrive/Desktop/GD32VW553/V1_MQTT_OK/GD32VW55X_Wifi_BLE_SDK/GD32VW55x_RELEASE_V1.0.2/MSDK/cloud/alicloud/src/services/shadow\shadow.c ****         shadow_err("The MQTT connection must be established before UPDATE data.");
 712              		.loc 1 175 10
 713 0014 0841     		lw	a0,0(a0)
 714              	.LVL75:
 715 0016 328A     		mv	s4,a2
 716 0018 368B     		mv	s6,a3
 717 001a BA89     		mv	s3,a4
 718 001c BE8A     		mv	s5,a5
 175:C:/Users/stapi/OneDrive/Desktop/GD32VW553/V1_MQTT_OK/GD32VW55X_Wifi_BLE_SDK/GD32VW55x_RELEASE_V1.0.2/MSDK/cloud/alicloud/src/services/shadow\shadow.c ****         shadow_err("The MQTT connection must be established before UPDATE data.");
 719              		.loc 1 175 5 is_stmt 1
 175:C:/Users/stapi/OneDrive/Desktop/GD32VW553/V1_MQTT_OK/GD32VW55X_Wifi_BLE_SDK/GD32VW55x_RELEASE_V1.0.2/MSDK/cloud/alicloud/src/services/shadow\shadow.c ****         shadow_err("The MQTT connection must be established before UPDATE data.");
 720              		.loc 1 175 10 is_stmt 0
 721 001e 97000000 		call	IOT_MQTT_CheckStateNormal
 721      E7800000 
 722              	.LVL76:
 175:C:/Users/stapi/OneDrive/Desktop/GD32VW553/V1_MQTT_OK/GD32VW55X_Wifi_BLE_SDK/GD32VW55x_RELEASE_V1.0.2/MSDK/cloud/alicloud/src/services/shadow\shadow.c ****         shadow_err("The MQTT connection must be established before UPDATE data.");
 723              		.loc 1 175 8
 724 0026 21E1     		bne	a0,zero,.L45
 176:C:/Users/stapi/OneDrive/Desktop/GD32VW553/V1_MQTT_OK/GD32VW55X_Wifi_BLE_SDK/GD32VW55x_RELEASE_V1.0.2/MSDK/cloud/alicloud/src/services/shadow\shadow.c ****         return ERROR_SHADOW_INVALID_STATE;
 725              		.loc 1 176 9 is_stmt 1
 176:C:/Users/stapi/OneDrive/Desktop/GD32VW553/V1_MQTT_OK/GD32VW55X_Wifi_BLE_SDK/GD32VW55x_RELEASE_V1.0.2/MSDK/cloud/alicloud/src/services/shadow\shadow.c ****         return ERROR_SHADOW_INVALID_STATE;
 726              		.loc 1 176 9
 727 0028 37050000 		lui	a0,%hi(.LC11)
 728 002c 13050500 		addi	a0,a0,%lo(.LC11)
 729 0030 97000000 		call	HAL_Printf
 729      E7800000 
 730              	.LVL77:
 176:C:/Users/stapi/OneDrive/Desktop/GD32VW553/V1_MQTT_OK/GD32VW55X_Wifi_BLE_SDK/GD32VW55x_RELEASE_V1.0.2/MSDK/cloud/alicloud/src/services/shadow\shadow.c ****         return ERROR_SHADOW_INVALID_STATE;
 731              		.loc 1 176 9
 732 0038 37050000 		lui	a0,%hi(.LC26)
 733 003c 13050500 		addi	a0,a0,%lo(.LC26)
 734 0040 97000000 		call	HAL_Printf
 734      E7800000 
 735              	.LVL78:
 176:C:/Users/stapi/OneDrive/Desktop/GD32VW553/V1_MQTT_OK/GD32VW55X_Wifi_BLE_SDK/GD32VW55x_RELEASE_V1.0.2/MSDK/cloud/alicloud/src/services/shadow\shadow.c ****         return ERROR_SHADOW_INVALID_STATE;
 736              		.loc 1 176 9
 737 0048 37050000 		lui	a0,%hi(.LC13)
 738 004c 13050500 		addi	a0,a0,%lo(.LC13)
 739 0050 97000000 		call	HAL_Printf
 739      E7800000 
 740              	.LVL79:
 176:C:/Users/stapi/OneDrive/Desktop/GD32VW553/V1_MQTT_OK/GD32VW55X_Wifi_BLE_SDK/GD32VW55x_RELEASE_V1.0.2/MSDK/cloud/alicloud/src/services/shadow\shadow.c ****         return ERROR_SHADOW_INVALID_STATE;
 741              		.loc 1 176 9
 177:C:/Users/stapi/OneDrive/Desktop/GD32VW553/V1_MQTT_OK/GD32VW55X_Wifi_BLE_SDK/GD32VW55x_RELEASE_V1.0.2/MSDK/cloud/alicloud/src/services/shadow\shadow.c ****     }
 742              		.loc 1 177 9
 177:C:/Users/stapi/OneDrive/Desktop/GD32VW553/V1_MQTT_OK/GD32VW55X_Wifi_BLE_SDK/GD32VW55x_RELEASE_V1.0.2/MSDK/cloud/alicloud/src/services/shadow\shadow.c ****     }
 743              		.loc 1 177 16 is_stmt 0
 744 0058 13040083 		li	s0,-2000
 745              	.LVL80:
 746              	.L43:
 200:C:/Users/stapi/OneDrive/Desktop/GD32VW553/V1_MQTT_OK/GD32VW55X_Wifi_BLE_SDK/GD32VW55x_RELEASE_V1.0.2/MSDK/cloud/alicloud/src/services/shadow\shadow.c **** 
 747              		.loc 1 200 1
 748 005c 2285     		mv	a0,s0
 749 005e 17030000 		tail	__riscv_restore_7
 749      67000300 
 750              		.cfi_remember_state
 751              		.cfi_restore 22
 752              		.cfi_restore 21
 753              		.cfi_restore 20
 754              		.cfi_restore 19
 755              		.cfi_restore 18
 756              		.cfi_restore 9
 757              		.cfi_restore 8
 758              		.cfi_restore 1
 759              		.cfi_def_cfa_offset 0
 760              	.LVL81:
 761              	.L45:
 762              		.cfi_restore_state
 182:C:/Users/stapi/OneDrive/Desktop/GD32VW553/V1_MQTT_OK/GD32VW55X_Wifi_BLE_SDK/GD32VW55x_RELEASE_V1.0.2/MSDK/cloud/alicloud/src/services/shadow\shadow.c ****     ptoken = LITE_json_value_of((char *)"clientToken", (char *)data);
 763              		.loc 1 182 5 is_stmt 1
 764 0066 37070000 		lui	a4,%hi(.LC27)
 765 006a B7050000 		lui	a1,%hi(.LANCHOR3)
 766 006e 37050000 		lui	a0,%hi(.LC1)
 767 0072 4A88     		mv	a6,s2
 768 0074 D287     		mv	a5,s4
 769 0076 13070700 		addi	a4,a4,%lo(.LC27)
 770 007a 9546     		li	a3,5
 771 007c 1306600B 		li	a2,182
 772 0080 93850500 		addi	a1,a1,%lo(.LANCHOR3)
 773 0084 13050500 		addi	a0,a0,%lo(.LC1)
 774 0088 97000000 		call	LITE_syslog
 774      E7800000 
 775              	.LVL82:
 183:C:/Users/stapi/OneDrive/Desktop/GD32VW553/V1_MQTT_OK/GD32VW55X_Wifi_BLE_SDK/GD32VW55x_RELEASE_V1.0.2/MSDK/cloud/alicloud/src/services/shadow\shadow.c **** 
 776              		.loc 1 183 5
 183:C:/Users/stapi/OneDrive/Desktop/GD32VW553/V1_MQTT_OK/GD32VW55X_Wifi_BLE_SDK/GD32VW55x_RELEASE_V1.0.2/MSDK/cloud/alicloud/src/services/shadow\shadow.c **** 
 777              		.loc 1 183 14 is_stmt 0
 778 0090 37050000 		lui	a0,%hi(.LC28)
 779 0094 CA85     		mv	a1,s2
 780 0096 13050500 		addi	a0,a0,%lo(.LC28)
 781 009a 97000000 		call	LITE_json_value_of
 781      E7800000 
 782              	.LVL83:
 783 00a2 2A84     		mv	s0,a0
 784              	.LVL84:
 185:C:/Users/stapi/OneDrive/Desktop/GD32VW553/V1_MQTT_OK/GD32VW55X_Wifi_BLE_SDK/GD32VW55x_RELEASE_V1.0.2/MSDK/cloud/alicloud/src/services/shadow\shadow.c **** 
 785              		.loc 1 185 5 is_stmt 1
 185:C:/Users/stapi/OneDrive/Desktop/GD32VW553/V1_MQTT_OK/GD32VW55X_Wifi_BLE_SDK/GD32VW55x_RELEASE_V1.0.2/MSDK/cloud/alicloud/src/services/shadow\shadow.c **** 
 786              		.loc 1 185 5
 787 00a4 1DE5     		bne	a0,zero,.L46
 185:C:/Users/stapi/OneDrive/Desktop/GD32VW553/V1_MQTT_OK/GD32VW55X_Wifi_BLE_SDK/GD32VW55x_RELEASE_V1.0.2/MSDK/cloud/alicloud/src/services/shadow\shadow.c **** 
 788              		.loc 1 185 5 discriminator 1
 789 00a6 37070000 		lui	a4,%hi(.LC29)
 790 00aa 37060000 		lui	a2,%hi(.LANCHOR4)
 791 00ae B7050000 		lui	a1,%hi(.LC30)
 792 00b2 37050000 		lui	a0,%hi(.LC31)
 793 00b6 13070700 		addi	a4,a4,%lo(.LC29)
 794 00ba 9306900B 		li	a3,185
 795 00be 13060600 		addi	a2,a2,%lo(.LANCHOR4)
 796 00c2 93850500 		addi	a1,a1,%lo(.LC30)
 797 00c6 13050500 		addi	a0,a0,%lo(.LC31)
 798 00ca 97000000 		call	HAL_Printf
 798      E7800000 
 799              	.LVL85:
 800              	.L46:
 185:C:/Users/stapi/OneDrive/Desktop/GD32VW553/V1_MQTT_OK/GD32VW55X_Wifi_BLE_SDK/GD32VW55x_RELEASE_V1.0.2/MSDK/cloud/alicloud/src/services/shadow\shadow.c **** 
 801              		.loc 1 185 5 discriminator 3
 187:C:/Users/stapi/OneDrive/Desktop/GD32VW553/V1_MQTT_OK/GD32VW55X_Wifi_BLE_SDK/GD32VW55x_RELEASE_V1.0.2/MSDK/cloud/alicloud/src/services/shadow\shadow.c ****     if (NULL == pelement) {
 802              		.loc 1 187 5 discriminator 3
 187:C:/Users/stapi/OneDrive/Desktop/GD32VW553/V1_MQTT_OK/GD32VW55X_Wifi_BLE_SDK/GD32VW55x_RELEASE_V1.0.2/MSDK/cloud/alicloud/src/services/shadow\shadow.c ****     if (NULL == pelement) {
 803              		.loc 1 187 16 is_stmt 0 discriminator 3
 804 00d2 2285     		mv	a0,s0
 805 00d4 97000000 		call	strlen
 805      E7800000 
 806              	.LVL86:
 807 00dc 2A86     		mv	a2,a0
 808 00de CE86     		mv	a3,s3
 809 00e0 DA87     		mv	a5,s6
 810 00e2 5687     		mv	a4,s5
 811 00e4 A285     		mv	a1,s0
 812 00e6 2685     		mv	a0,s1
 813 00e8 97000000 		call	iotx_shadow_update_wait_ack_list_add
 813      E7800000 
 814              	.LVL87:
 815 00f0 AA89     		mv	s3,a0
 816              	.LVL88:
 188:C:/Users/stapi/OneDrive/Desktop/GD32VW553/V1_MQTT_OK/GD32VW55X_Wifi_BLE_SDK/GD32VW55x_RELEASE_V1.0.2/MSDK/cloud/alicloud/src/services/shadow\shadow.c ****         LITE_free(ptoken);
 817              		.loc 1 188 5 is_stmt 1 discriminator 3
 189:C:/Users/stapi/OneDrive/Desktop/GD32VW553/V1_MQTT_OK/GD32VW55X_Wifi_BLE_SDK/GD32VW55x_RELEASE_V1.0.2/MSDK/cloud/alicloud/src/services/shadow\shadow.c ****         return ERROR_SHADOW_WAIT_LIST_OVERFLOW;
 818              		.loc 1 189 9 is_stmt 0 discriminator 3
 819 00f2 2285     		mv	a0,s0
 820              	.LVL89:
 188:C:/Users/stapi/OneDrive/Desktop/GD32VW553/V1_MQTT_OK/GD32VW55X_Wifi_BLE_SDK/GD32VW55x_RELEASE_V1.0.2/MSDK/cloud/alicloud/src/services/shadow\shadow.c ****         LITE_free(ptoken);
 821              		.loc 1 188 8 discriminator 3
 822 00f4 63990900 		bne	s3,zero,.L47
 189:C:/Users/stapi/OneDrive/Desktop/GD32VW553/V1_MQTT_OK/GD32VW55X_Wifi_BLE_SDK/GD32VW55x_RELEASE_V1.0.2/MSDK/cloud/alicloud/src/services/shadow\shadow.c ****         return ERROR_SHADOW_WAIT_LIST_OVERFLOW;
 823              		.loc 1 189 9 is_stmt 1
 824 00f8 97000000 		call	LITE_free_internal
 824      E7800000 
 825              	.LVL90:
 190:C:/Users/stapi/OneDrive/Desktop/GD32VW553/V1_MQTT_OK/GD32VW55X_Wifi_BLE_SDK/GD32VW55x_RELEASE_V1.0.2/MSDK/cloud/alicloud/src/services/shadow\shadow.c ****     }
 826              		.loc 1 190 9
 190:C:/Users/stapi/OneDrive/Desktop/GD32VW553/V1_MQTT_OK/GD32VW55X_Wifi_BLE_SDK/GD32VW55x_RELEASE_V1.0.2/MSDK/cloud/alicloud/src/services/shadow\shadow.c ****     }
 827              		.loc 1 190 16 is_stmt 0
 828 0100 1304F082 		li	s0,-2001
 829              	.LVL91:
 830 0104 A1BF     		j	.L43
 831              	.LVL92:
 832              	.L47:
 192:C:/Users/stapi/OneDrive/Desktop/GD32VW553/V1_MQTT_OK/GD32VW55X_Wifi_BLE_SDK/GD32VW55x_RELEASE_V1.0.2/MSDK/cloud/alicloud/src/services/shadow\shadow.c **** 
 833              		.loc 1 192 5 is_stmt 1
 834 0106 97000000 		call	LITE_free_internal
 834      E7800000 
 835              	.LVL93:
 194:C:/Users/stapi/OneDrive/Desktop/GD32VW553/V1_MQTT_OK/GD32VW55X_Wifi_BLE_SDK/GD32VW55x_RELEASE_V1.0.2/MSDK/cloud/alicloud/src/services/shadow\shadow.c ****         iotx_shadow_update_wait_ack_list_remove(pshadow, pelement);
 836              		.loc 1 194 5
 194:C:/Users/stapi/OneDrive/Desktop/GD32VW553/V1_MQTT_OK/GD32VW55X_Wifi_BLE_SDK/GD32VW55x_RELEASE_V1.0.2/MSDK/cloud/alicloud/src/services/shadow\shadow.c ****         iotx_shadow_update_wait_ack_list_remove(pshadow, pelement);
 837              		.loc 1 194 15 is_stmt 0
 838 010e 5286     		mv	a2,s4
 839 0110 CA85     		mv	a1,s2
 840 0112 2685     		mv	a0,s1
 841 0114 97000000 		call	iotx_ds_common_publish2update
 841      E7800000 
 842              	.LVL94:
 843 011c 2A84     		mv	s0,a0
 844              	.LVL95:
 194:C:/Users/stapi/OneDrive/Desktop/GD32VW553/V1_MQTT_OK/GD32VW55X_Wifi_BLE_SDK/GD32VW55x_RELEASE_V1.0.2/MSDK/cloud/alicloud/src/services/shadow\shadow.c ****         iotx_shadow_update_wait_ack_list_remove(pshadow, pelement);
 845              		.loc 1 194 8
 846 011e 63590500 		bge	a0,zero,.L50
 195:C:/Users/stapi/OneDrive/Desktop/GD32VW553/V1_MQTT_OK/GD32VW55X_Wifi_BLE_SDK/GD32VW55x_RELEASE_V1.0.2/MSDK/cloud/alicloud/src/services/shadow\shadow.c ****         return rc;
 847              		.loc 1 195 9 is_stmt 1
 848 0122 CE85     		mv	a1,s3
 849 0124 2685     		mv	a0,s1
 850 0126 97000000 		call	iotx_shadow_update_wait_ack_list_remove
 850      E7800000 
 851              	.LVL96:
 196:C:/Users/stapi/OneDrive/Desktop/GD32VW553/V1_MQTT_OK/GD32VW55X_Wifi_BLE_SDK/GD32VW55x_RELEASE_V1.0.2/MSDK/cloud/alicloud/src/services/shadow\shadow.c ****     }
 852              		.loc 1 196 9
 196:C:/Users/stapi/OneDrive/Desktop/GD32VW553/V1_MQTT_OK/GD32VW55X_Wifi_BLE_SDK/GD32VW55x_RELEASE_V1.0.2/MSDK/cloud/alicloud/src/services/shadow\shadow.c ****     }
 853              		.loc 1 196 16 is_stmt 0
 854 012e 3DB7     		j	.L43
 855              	.L50:
 199:C:/Users/stapi/OneDrive/Desktop/GD32VW553/V1_MQTT_OK/GD32VW55X_Wifi_BLE_SDK/GD32VW55x_RELEASE_V1.0.2/MSDK/cloud/alicloud/src/services/shadow\shadow.c **** }
 856              		.loc 1 199 12
 857 0130 0144     		li	s0,0
 858              	.LVL97:
 859 0132 2DB7     		j	.L43
 860              		.cfi_endproc
 861              	.LFE26:
 863              		.section	.rodata.IOT_Shadow_Push.str1.4,"aMS",@progbits,1
 864              		.align	2
 865              	.LC32:
 866 0000 5B696E66 		.string	"[inf] "
 866      5D2000
 867 0007 00       		.align	2
 868              	.LC33:
 869 0008 75706461 		.string	"update success."
 869      74652073 
 869      75636365 
 869      73732E00 
 870              		.align	2
 871              	.LC34:
 872 0018 75706461 		.string	"update timeout."
 872      74652074 
 872      696D656F 
 872      75742E00 
 873              		.align	2
 874              	.LC35:
 875 0028 75706461 		.string	"update negative ack."
 875      7465206E 
 875      65676174 
 875      69766520 
 875      61636B2E 
 876              		.section	.text.IOT_Shadow_Push,"ax",@progbits
 877              		.align	1
 878              		.globl	IOT_Shadow_Push
 880              	IOT_Shadow_Push:
 881              	.LFB28:
 227:C:/Users/stapi/OneDrive/Desktop/GD32VW553/V1_MQTT_OK/GD32VW55X_Wifi_BLE_SDK/GD32VW55x_RELEASE_V1.0.2/MSDK/cloud/alicloud/src/services/shadow\shadow.c ****     iotx_shadow_ack_code_t ack_update = IOTX_SHADOW_ACK_NONE;
 882              		.loc 1 227 1 is_stmt 1
 883              		.cfi_startproc
 884              	.LVL98:
 885 0000 17030000 		call	t0,__riscv_save_3
 885      E7020300 
 886              		.cfi_offset 18, -16
 887              		.cfi_offset 9, -12
 888              		.cfi_offset 8, -8
 889              		.cfi_offset 1, -4
 890              		.cfi_def_cfa_offset 16
 228:C:/Users/stapi/OneDrive/Desktop/GD32VW553/V1_MQTT_OK/GD32VW55X_Wifi_BLE_SDK/GD32VW55x_RELEASE_V1.0.2/MSDK/cloud/alicloud/src/services/shadow\shadow.c ****     iotx_shadow_pt pshadow = (iotx_shadow_pt)handle;
 891              		.loc 1 228 5
 227:C:/Users/stapi/OneDrive/Desktop/GD32VW553/V1_MQTT_OK/GD32VW55X_Wifi_BLE_SDK/GD32VW55x_RELEASE_V1.0.2/MSDK/cloud/alicloud/src/services/shadow\shadow.c ****     iotx_shadow_ack_code_t ack_update = IOTX_SHADOW_ACK_NONE;
 892              		.loc 1 227 1 is_stmt 0
 893 0008 0111     		addi	sp,sp,-32
 894              		.cfi_def_cfa_offset 48
 227:C:/Users/stapi/OneDrive/Desktop/GD32VW553/V1_MQTT_OK/GD32VW55X_Wifi_BLE_SDK/GD32VW55x_RELEASE_V1.0.2/MSDK/cloud/alicloud/src/services/shadow\shadow.c ****     iotx_shadow_ack_code_t ack_update = IOTX_SHADOW_ACK_NONE;
 895              		.loc 1 227 1
 896 000a 32C6     		sw	a2,12(sp)
 897 000c 36C4     		sw	a3,8(sp)
 228:C:/Users/stapi/OneDrive/Desktop/GD32VW553/V1_MQTT_OK/GD32VW55X_Wifi_BLE_SDK/GD32VW55x_RELEASE_V1.0.2/MSDK/cloud/alicloud/src/services/shadow\shadow.c ****     iotx_shadow_pt pshadow = (iotx_shadow_pt)handle;
 898              		.loc 1 228 28
 899 000e 02CE     		sw	zero,28(sp)
 229:C:/Users/stapi/OneDrive/Desktop/GD32VW553/V1_MQTT_OK/GD32VW55X_Wifi_BLE_SDK/GD32VW55x_RELEASE_V1.0.2/MSDK/cloud/alicloud/src/services/shadow\shadow.c ****     int ret;
 900              		.loc 1 229 5 is_stmt 1
 901              	.LVL99:
 230:C:/Users/stapi/OneDrive/Desktop/GD32VW553/V1_MQTT_OK/GD32VW55X_Wifi_BLE_SDK/GD32VW55x_RELEASE_V1.0.2/MSDK/cloud/alicloud/src/services/shadow\shadow.c ****     int cnt = 0;
 902              		.loc 1 230 5
 231:C:/Users/stapi/OneDrive/Desktop/GD32VW553/V1_MQTT_OK/GD32VW55X_Wifi_BLE_SDK/GD32VW55x_RELEASE_V1.0.2/MSDK/cloud/alicloud/src/services/shadow\shadow.c ****     if ((NULL == pshadow) || (NULL == data)) {
 903              		.loc 1 231 5
 232:C:/Users/stapi/OneDrive/Desktop/GD32VW553/V1_MQTT_OK/GD32VW55X_Wifi_BLE_SDK/GD32VW55x_RELEASE_V1.0.2/MSDK/cloud/alicloud/src/services/shadow\shadow.c ****         return NULL_VALUE_ERROR;
 904              		.loc 1 232 5
 233:C:/Users/stapi/OneDrive/Desktop/GD32VW553/V1_MQTT_OK/GD32VW55X_Wifi_BLE_SDK/GD32VW55x_RELEASE_V1.0.2/MSDK/cloud/alicloud/src/services/shadow\shadow.c ****     }
 905              		.loc 1 233 16 is_stmt 0
 906 0010 7954     		li	s0,-2
 232:C:/Users/stapi/OneDrive/Desktop/GD32VW553/V1_MQTT_OK/GD32VW55X_Wifi_BLE_SDK/GD32VW55x_RELEASE_V1.0.2/MSDK/cloud/alicloud/src/services/shadow\shadow.c ****         return NULL_VALUE_ERROR;
 907              		.loc 1 232 8
 908 0012 39C5     		beq	a0,zero,.L52
 232:C:/Users/stapi/OneDrive/Desktop/GD32VW553/V1_MQTT_OK/GD32VW55X_Wifi_BLE_SDK/GD32VW55x_RELEASE_V1.0.2/MSDK/cloud/alicloud/src/services/shadow\shadow.c ****         return NULL_VALUE_ERROR;
 909              		.loc 1 232 27 discriminator 1
 910 0014 2EC2     		sw	a1,4(sp)
 911 0016 A9C5     		beq	a1,zero,.L52
 912 0018 AA84     		mv	s1,a0
 236:C:/Users/stapi/OneDrive/Desktop/GD32VW553/V1_MQTT_OK/GD32VW55X_Wifi_BLE_SDK/GD32VW55x_RELEASE_V1.0.2/MSDK/cloud/alicloud/src/services/shadow\shadow.c ****         shadow_err("The MQTT connection must be established before UPDATE data.");
 913              		.loc 1 236 5 is_stmt 1
 236:C:/Users/stapi/OneDrive/Desktop/GD32VW553/V1_MQTT_OK/GD32VW55X_Wifi_BLE_SDK/GD32VW55x_RELEASE_V1.0.2/MSDK/cloud/alicloud/src/services/shadow\shadow.c ****         shadow_err("The MQTT connection must be established before UPDATE data.");
 914              		.loc 1 236 10 is_stmt 0
 915 001a 0841     		lw	a0,0(a0)
 916              	.LVL100:
 917 001c 97000000 		call	IOT_MQTT_CheckStateNormal
 917      E7800000 
 918              	.LVL101:
 236:C:/Users/stapi/OneDrive/Desktop/GD32VW553/V1_MQTT_OK/GD32VW55X_Wifi_BLE_SDK/GD32VW55x_RELEASE_V1.0.2/MSDK/cloud/alicloud/src/services/shadow\shadow.c ****         shadow_err("The MQTT connection must be established before UPDATE data.");
 919              		.loc 1 236 8
 920 0024 9245     		lw	a1,4(sp)
 921 0026 A246     		lw	a3,8(sp)
 922 0028 3246     		lw	a2,12(sp)
 923 002a 29E1     		bne	a0,zero,.L54
 237:C:/Users/stapi/OneDrive/Desktop/GD32VW553/V1_MQTT_OK/GD32VW55X_Wifi_BLE_SDK/GD32VW55x_RELEASE_V1.0.2/MSDK/cloud/alicloud/src/services/shadow\shadow.c ****         return ERROR_SHADOW_INVALID_STATE;
 924              		.loc 1 237 9 is_stmt 1
 237:C:/Users/stapi/OneDrive/Desktop/GD32VW553/V1_MQTT_OK/GD32VW55X_Wifi_BLE_SDK/GD32VW55x_RELEASE_V1.0.2/MSDK/cloud/alicloud/src/services/shadow\shadow.c ****         return ERROR_SHADOW_INVALID_STATE;
 925              		.loc 1 237 9
 926 002c 37050000 		lui	a0,%hi(.LC11)
 927 0030 13050500 		addi	a0,a0,%lo(.LC11)
 928 0034 97000000 		call	HAL_Printf
 928      E7800000 
 929              	.LVL102:
 237:C:/Users/stapi/OneDrive/Desktop/GD32VW553/V1_MQTT_OK/GD32VW55X_Wifi_BLE_SDK/GD32VW55x_RELEASE_V1.0.2/MSDK/cloud/alicloud/src/services/shadow\shadow.c ****         return ERROR_SHADOW_INVALID_STATE;
 930              		.loc 1 237 9
 931 003c 37050000 		lui	a0,%hi(.LC26)
 932 0040 13050500 		addi	a0,a0,%lo(.LC26)
 933 0044 97000000 		call	HAL_Printf
 933      E7800000 
 934              	.LVL103:
 237:C:/Users/stapi/OneDrive/Desktop/GD32VW553/V1_MQTT_OK/GD32VW55X_Wifi_BLE_SDK/GD32VW55x_RELEASE_V1.0.2/MSDK/cloud/alicloud/src/services/shadow\shadow.c ****         return ERROR_SHADOW_INVALID_STATE;
 935              		.loc 1 237 9
 936 004c 37050000 		lui	a0,%hi(.LC13)
 937 0050 13050500 		addi	a0,a0,%lo(.LC13)
 938 0054 97000000 		call	HAL_Printf
 938      E7800000 
 939              	.LVL104:
 237:C:/Users/stapi/OneDrive/Desktop/GD32VW553/V1_MQTT_OK/GD32VW55X_Wifi_BLE_SDK/GD32VW55x_RELEASE_V1.0.2/MSDK/cloud/alicloud/src/services/shadow\shadow.c ****         return ERROR_SHADOW_INVALID_STATE;
 940              		.loc 1 237 9
 238:C:/Users/stapi/OneDrive/Desktop/GD32VW553/V1_MQTT_OK/GD32VW55X_Wifi_BLE_SDK/GD32VW55x_RELEASE_V1.0.2/MSDK/cloud/alicloud/src/services/shadow\shadow.c ****     }
 941              		.loc 1 238 9
 238:C:/Users/stapi/OneDrive/Desktop/GD32VW553/V1_MQTT_OK/GD32VW55X_Wifi_BLE_SDK/GD32VW55x_RELEASE_V1.0.2/MSDK/cloud/alicloud/src/services/shadow\shadow.c ****     }
 942              		.loc 1 238 16 is_stmt 0
 943 005c 13040083 		li	s0,-2000
 944              	.LVL105:
 945              	.L52:
 266:C:/Users/stapi/OneDrive/Desktop/GD32VW553/V1_MQTT_OK/GD32VW55X_Wifi_BLE_SDK/GD32VW55x_RELEASE_V1.0.2/MSDK/cloud/alicloud/src/services/shadow\shadow.c **** 
 946              		.loc 1 266 1
 947 0060 2285     		mv	a0,s0
 948 0062 0561     		addi	sp,sp,32
 949              		.cfi_remember_state
 950              		.cfi_def_cfa_offset 0
 951              	.LVL106:
 952 0064 17030000 		tail	__riscv_restore_3
 952      67000300 
 953              		.cfi_restore 18
 954              		.cfi_restore 9
 955              		.cfi_restore 8
 956              		.cfi_restore 1
 957              		.cfi_def_cfa_offset -16
 958              	.LVL107:
 959              	.L54:
 960              		.cfi_restore_state
 242:C:/Users/stapi/OneDrive/Desktop/GD32VW553/V1_MQTT_OK/GD32VW55X_Wifi_BLE_SDK/GD32VW55x_RELEASE_V1.0.2/MSDK/cloud/alicloud/src/services/shadow\shadow.c ****     if(SUCCESS_RETURN != ret) {
 961              		.loc 1 242 5 is_stmt 1
 242:C:/Users/stapi/OneDrive/Desktop/GD32VW553/V1_MQTT_OK/GD32VW55X_Wifi_BLE_SDK/GD32VW55x_RELEASE_V1.0.2/MSDK/cloud/alicloud/src/services/shadow\shadow.c ****     if(SUCCESS_RETURN != ret) {
 962              		.loc 1 242 11 is_stmt 0
 963 006c 37070000 		lui	a4,%hi(iotx_update_ack_cb)
 964 0070 7C08     		addi	a5,sp,28
 965 0072 13070700 		addi	a4,a4,%lo(iotx_update_ack_cb)
 966 0076 2685     		mv	a0,s1
 967 0078 97000000 		call	IOT_Shadow_Push_Async
 967      E7800000 
 968              	.LVL108:
 969 0080 2A84     		mv	s0,a0
 970              	.LVL109:
 243:C:/Users/stapi/OneDrive/Desktop/GD32VW553/V1_MQTT_OK/GD32VW55X_Wifi_BLE_SDK/GD32VW55x_RELEASE_V1.0.2/MSDK/cloud/alicloud/src/services/shadow\shadow.c ****         return ret;
 971              		.loc 1 243 5 is_stmt 1
 243:C:/Users/stapi/OneDrive/Desktop/GD32VW553/V1_MQTT_OK/GD32VW55X_Wifi_BLE_SDK/GD32VW55x_RELEASE_V1.0.2/MSDK/cloud/alicloud/src/services/shadow\shadow.c ****         return ret;
 972              		.loc 1 243 7 is_stmt 0
 973 0082 79FD     		bne	a0,zero,.L52
 974 0084 13095006 		li	s2,101
 975              	.LVL110:
 976              	.L55:
 247:C:/Users/stapi/OneDrive/Desktop/GD32VW553/V1_MQTT_OK/GD32VW55X_Wifi_BLE_SDK/GD32VW55x_RELEASE_V1.0.2/MSDK/cloud/alicloud/src/services/shadow\shadow.c ****         IOT_Shadow_Yield(pshadow, 200);
 977              		.loc 1 247 11 is_stmt 1
 247:C:/Users/stapi/OneDrive/Desktop/GD32VW553/V1_MQTT_OK/GD32VW55X_Wifi_BLE_SDK/GD32VW55x_RELEASE_V1.0.2/MSDK/cloud/alicloud/src/services/shadow\shadow.c ****         IOT_Shadow_Yield(pshadow, 200);
 978              		.loc 1 247 33 is_stmt 0
 979 0088 F247     		lw	a5,28(sp)
 247:C:/Users/stapi/OneDrive/Desktop/GD32VW553/V1_MQTT_OK/GD32VW55X_Wifi_BLE_SDK/GD32VW55x_RELEASE_V1.0.2/MSDK/cloud/alicloud/src/services/shadow\shadow.c ****         IOT_Shadow_Yield(pshadow, 200);
 980              		.loc 1 247 11
 981 008a B1C3     		beq	a5,zero,.L56
 254:C:/Users/stapi/OneDrive/Desktop/GD32VW553/V1_MQTT_OK/GD32VW55X_Wifi_BLE_SDK/GD32VW55x_RELEASE_V1.0.2/MSDK/cloud/alicloud/src/services/shadow\shadow.c ****         || (IOTX_SHADOW_ACK_ERR_SHADOW_DOCUMENT_IS_NULL == ack_update)) {
 982              		.loc 1 254 5 is_stmt 1
 254:C:/Users/stapi/OneDrive/Desktop/GD32VW553/V1_MQTT_OK/GD32VW55X_Wifi_BLE_SDK/GD32VW55x_RELEASE_V1.0.2/MSDK/cloud/alicloud/src/services/shadow\shadow.c ****         || (IOTX_SHADOW_ACK_ERR_SHADOW_DOCUMENT_IS_NULL == ack_update)) {
 983              		.loc 1 254 8 is_stmt 0
 984 008c 1307800C 		li	a4,200
 985 0090 B7040000 		lui	s1,%hi(.LC13)
 986              	.LVL111:
 987 0094 37050000 		lui	a0,%hi(.LC32)
 988 0098 6386E700 		beq	a5,a4,.L57
 255:C:/Users/stapi/OneDrive/Desktop/GD32VW553/V1_MQTT_OK/GD32VW55X_Wifi_BLE_SDK/GD32VW55x_RELEASE_V1.0.2/MSDK/cloud/alicloud/src/services/shadow\shadow.c ****         /* It is not the error that device shadow document is null */
 989              		.loc 1 255 9
 990 009c 13077019 		li	a4,407
 991 00a0 6392E704 		bne	a5,a4,.L58
 992              	.L57:
 257:C:/Users/stapi/OneDrive/Desktop/GD32VW553/V1_MQTT_OK/GD32VW55X_Wifi_BLE_SDK/GD32VW55x_RELEASE_V1.0.2/MSDK/cloud/alicloud/src/services/shadow\shadow.c ****         return SUCCESS_RETURN;
 993              		.loc 1 257 9 is_stmt 1
 257:C:/Users/stapi/OneDrive/Desktop/GD32VW553/V1_MQTT_OK/GD32VW55X_Wifi_BLE_SDK/GD32VW55x_RELEASE_V1.0.2/MSDK/cloud/alicloud/src/services/shadow\shadow.c ****         return SUCCESS_RETURN;
 994              		.loc 1 257 9
 995 00a4 13050500 		addi	a0,a0,%lo(.LC32)
 996 00a8 97000000 		call	HAL_Printf
 996      E7800000 
 997              	.LVL112:
 257:C:/Users/stapi/OneDrive/Desktop/GD32VW553/V1_MQTT_OK/GD32VW55X_Wifi_BLE_SDK/GD32VW55x_RELEASE_V1.0.2/MSDK/cloud/alicloud/src/services/shadow\shadow.c ****         return SUCCESS_RETURN;
 998              		.loc 1 257 9
 999 00b0 37050000 		lui	a0,%hi(.LC33)
 1000 00b4 13050500 		addi	a0,a0,%lo(.LC33)
 1001 00b8 97000000 		call	HAL_Printf
 1001      E7800000 
 1002              	.LVL113:
 257:C:/Users/stapi/OneDrive/Desktop/GD32VW553/V1_MQTT_OK/GD32VW55X_Wifi_BLE_SDK/GD32VW55x_RELEASE_V1.0.2/MSDK/cloud/alicloud/src/services/shadow\shadow.c ****         return SUCCESS_RETURN;
 1003              		.loc 1 257 9
 1004 00c0 13850400 		addi	a0,s1,%lo(.LC13)
 1005 00c4 97000000 		call	HAL_Printf
 1005      E7800000 
 1006              	.LVL114:
 257:C:/Users/stapi/OneDrive/Desktop/GD32VW553/V1_MQTT_OK/GD32VW55X_Wifi_BLE_SDK/GD32VW55x_RELEASE_V1.0.2/MSDK/cloud/alicloud/src/services/shadow\shadow.c ****         return SUCCESS_RETURN;
 1007              		.loc 1 257 9
 258:C:/Users/stapi/OneDrive/Desktop/GD32VW553/V1_MQTT_OK/GD32VW55X_Wifi_BLE_SDK/GD32VW55x_RELEASE_V1.0.2/MSDK/cloud/alicloud/src/services/shadow\shadow.c ****     } else if (IOTX_SHADOW_ACK_TIMEOUT == ack_update) {
 1008              		.loc 1 258 9
 258:C:/Users/stapi/OneDrive/Desktop/GD32VW553/V1_MQTT_OK/GD32VW55X_Wifi_BLE_SDK/GD32VW55x_RELEASE_V1.0.2/MSDK/cloud/alicloud/src/services/shadow\shadow.c ****     } else if (IOTX_SHADOW_ACK_TIMEOUT == ack_update) {
 1009              		.loc 1 258 16 is_stmt 0
 1010 00cc 51BF     		j	.L52
 1011              	.LVL115:
 1012              	.L56:
 248:C:/Users/stapi/OneDrive/Desktop/GD32VW553/V1_MQTT_OK/GD32VW55X_Wifi_BLE_SDK/GD32VW55x_RELEASE_V1.0.2/MSDK/cloud/alicloud/src/services/shadow\shadow.c ****         if(cnt ++ == 100) {
 1013              		.loc 1 248 9 is_stmt 1
 1014              	.LBB12:
 1015              	.LBB13:
 388:C:/Users/stapi/OneDrive/Desktop/GD32VW553/V1_MQTT_OK/GD32VW55X_Wifi_BLE_SDK/GD32VW55x_RELEASE_V1.0.2/MSDK/cloud/alicloud/src/services/shadow\shadow.c **** 
 389:C:/Users/stapi/OneDrive/Desktop/GD32VW553/V1_MQTT_OK/GD32VW55X_Wifi_BLE_SDK/GD32VW55x_RELEASE_V1.0.2/MSDK/cloud/alicloud/src/services/shadow\shadow.c **** void *IOT_Shadow_Construct(iotx_shadow_para_pt pparams)
 390:C:/Users/stapi/OneDrive/Desktop/GD32VW553/V1_MQTT_OK/GD32VW55X_Wifi_BLE_SDK/GD32VW55x_RELEASE_V1.0.2/MSDK/cloud/alicloud/src/services/shadow\shadow.c **** {
 391:C:/Users/stapi/OneDrive/Desktop/GD32VW553/V1_MQTT_OK/GD32VW55X_Wifi_BLE_SDK/GD32VW55x_RELEASE_V1.0.2/MSDK/cloud/alicloud/src/services/shadow\shadow.c ****     int rc = 0;
 392:C:/Users/stapi/OneDrive/Desktop/GD32VW553/V1_MQTT_OK/GD32VW55X_Wifi_BLE_SDK/GD32VW55x_RELEASE_V1.0.2/MSDK/cloud/alicloud/src/services/shadow\shadow.c ****     iotx_shadow_pt pshadow = NULL;
 393:C:/Users/stapi/OneDrive/Desktop/GD32VW553/V1_MQTT_OK/GD32VW55X_Wifi_BLE_SDK/GD32VW55x_RELEASE_V1.0.2/MSDK/cloud/alicloud/src/services/shadow\shadow.c **** 
 394:C:/Users/stapi/OneDrive/Desktop/GD32VW553/V1_MQTT_OK/GD32VW55X_Wifi_BLE_SDK/GD32VW55x_RELEASE_V1.0.2/MSDK/cloud/alicloud/src/services/shadow\shadow.c ****     /* initialize shadow */
 395:C:/Users/stapi/OneDrive/Desktop/GD32VW553/V1_MQTT_OK/GD32VW55X_Wifi_BLE_SDK/GD32VW55x_RELEASE_V1.0.2/MSDK/cloud/alicloud/src/services/shadow\shadow.c ****     if (NULL == (pshadow = SHADOW_malloc(sizeof(iotx_shadow_t)))) {
 396:C:/Users/stapi/OneDrive/Desktop/GD32VW553/V1_MQTT_OK/GD32VW55X_Wifi_BLE_SDK/GD32VW55x_RELEASE_V1.0.2/MSDK/cloud/alicloud/src/services/shadow\shadow.c ****         shadow_err("Not enough memory");
 397:C:/Users/stapi/OneDrive/Desktop/GD32VW553/V1_MQTT_OK/GD32VW55X_Wifi_BLE_SDK/GD32VW55x_RELEASE_V1.0.2/MSDK/cloud/alicloud/src/services/shadow\shadow.c ****         return NULL;
 398:C:/Users/stapi/OneDrive/Desktop/GD32VW553/V1_MQTT_OK/GD32VW55X_Wifi_BLE_SDK/GD32VW55x_RELEASE_V1.0.2/MSDK/cloud/alicloud/src/services/shadow\shadow.c ****     }
 399:C:/Users/stapi/OneDrive/Desktop/GD32VW553/V1_MQTT_OK/GD32VW55X_Wifi_BLE_SDK/GD32VW55x_RELEASE_V1.0.2/MSDK/cloud/alicloud/src/services/shadow\shadow.c ****     memset(pshadow, 0x0, sizeof(iotx_shadow_t));
 400:C:/Users/stapi/OneDrive/Desktop/GD32VW553/V1_MQTT_OK/GD32VW55X_Wifi_BLE_SDK/GD32VW55x_RELEASE_V1.0.2/MSDK/cloud/alicloud/src/services/shadow\shadow.c **** 
 401:C:/Users/stapi/OneDrive/Desktop/GD32VW553/V1_MQTT_OK/GD32VW55X_Wifi_BLE_SDK/GD32VW55x_RELEASE_V1.0.2/MSDK/cloud/alicloud/src/services/shadow\shadow.c ****     if (NULL == (pshadow->mutex = HAL_MutexCreate())) {
 402:C:/Users/stapi/OneDrive/Desktop/GD32VW553/V1_MQTT_OK/GD32VW55X_Wifi_BLE_SDK/GD32VW55x_RELEASE_V1.0.2/MSDK/cloud/alicloud/src/services/shadow\shadow.c ****         shadow_err("create mutex failed");
 403:C:/Users/stapi/OneDrive/Desktop/GD32VW553/V1_MQTT_OK/GD32VW55X_Wifi_BLE_SDK/GD32VW55x_RELEASE_V1.0.2/MSDK/cloud/alicloud/src/services/shadow\shadow.c ****         goto do_exit;
 404:C:/Users/stapi/OneDrive/Desktop/GD32VW553/V1_MQTT_OK/GD32VW55X_Wifi_BLE_SDK/GD32VW55x_RELEASE_V1.0.2/MSDK/cloud/alicloud/src/services/shadow\shadow.c ****     }
 405:C:/Users/stapi/OneDrive/Desktop/GD32VW553/V1_MQTT_OK/GD32VW55X_Wifi_BLE_SDK/GD32VW55x_RELEASE_V1.0.2/MSDK/cloud/alicloud/src/services/shadow\shadow.c **** 
 406:C:/Users/stapi/OneDrive/Desktop/GD32VW553/V1_MQTT_OK/GD32VW55X_Wifi_BLE_SDK/GD32VW55x_RELEASE_V1.0.2/MSDK/cloud/alicloud/src/services/shadow\shadow.c ****     pparams->mqtt.handle_event.h_fp = iotx_ds_event_handle;
 407:C:/Users/stapi/OneDrive/Desktop/GD32VW553/V1_MQTT_OK/GD32VW55X_Wifi_BLE_SDK/GD32VW55x_RELEASE_V1.0.2/MSDK/cloud/alicloud/src/services/shadow\shadow.c ****     pparams->mqtt.handle_event.pcontext = pshadow;
 408:C:/Users/stapi/OneDrive/Desktop/GD32VW553/V1_MQTT_OK/GD32VW55X_Wifi_BLE_SDK/GD32VW55x_RELEASE_V1.0.2/MSDK/cloud/alicloud/src/services/shadow\shadow.c **** 
 409:C:/Users/stapi/OneDrive/Desktop/GD32VW553/V1_MQTT_OK/GD32VW55X_Wifi_BLE_SDK/GD32VW55x_RELEASE_V1.0.2/MSDK/cloud/alicloud/src/services/shadow\shadow.c ****     /* construct MQTT client */
 410:C:/Users/stapi/OneDrive/Desktop/GD32VW553/V1_MQTT_OK/GD32VW55X_Wifi_BLE_SDK/GD32VW55x_RELEASE_V1.0.2/MSDK/cloud/alicloud/src/services/shadow\shadow.c ****     if (NULL == (pshadow->mqtt = IOT_MQTT_Construct(&pparams->mqtt))) {
 411:C:/Users/stapi/OneDrive/Desktop/GD32VW553/V1_MQTT_OK/GD32VW55X_Wifi_BLE_SDK/GD32VW55x_RELEASE_V1.0.2/MSDK/cloud/alicloud/src/services/shadow\shadow.c ****         shadow_err("construct MQTT failed");
 412:C:/Users/stapi/OneDrive/Desktop/GD32VW553/V1_MQTT_OK/GD32VW55X_Wifi_BLE_SDK/GD32VW55x_RELEASE_V1.0.2/MSDK/cloud/alicloud/src/services/shadow\shadow.c ****         goto do_exit;
 413:C:/Users/stapi/OneDrive/Desktop/GD32VW553/V1_MQTT_OK/GD32VW55X_Wifi_BLE_SDK/GD32VW55x_RELEASE_V1.0.2/MSDK/cloud/alicloud/src/services/shadow\shadow.c ****     }
 414:C:/Users/stapi/OneDrive/Desktop/GD32VW553/V1_MQTT_OK/GD32VW55X_Wifi_BLE_SDK/GD32VW55x_RELEASE_V1.0.2/MSDK/cloud/alicloud/src/services/shadow\shadow.c **** 
 415:C:/Users/stapi/OneDrive/Desktop/GD32VW553/V1_MQTT_OK/GD32VW55X_Wifi_BLE_SDK/GD32VW55x_RELEASE_V1.0.2/MSDK/cloud/alicloud/src/services/shadow\shadow.c ****     rc = iotx_shadow_subcribe_get(pshadow);
 416:C:/Users/stapi/OneDrive/Desktop/GD32VW553/V1_MQTT_OK/GD32VW55X_Wifi_BLE_SDK/GD32VW55x_RELEASE_V1.0.2/MSDK/cloud/alicloud/src/services/shadow\shadow.c ****     if (rc < 0) {
 417:C:/Users/stapi/OneDrive/Desktop/GD32VW553/V1_MQTT_OK/GD32VW55X_Wifi_BLE_SDK/GD32VW55x_RELEASE_V1.0.2/MSDK/cloud/alicloud/src/services/shadow\shadow.c ****         shadow_err("subscribe 'get' topic fialed, rc=%d", rc);
 418:C:/Users/stapi/OneDrive/Desktop/GD32VW553/V1_MQTT_OK/GD32VW55X_Wifi_BLE_SDK/GD32VW55x_RELEASE_V1.0.2/MSDK/cloud/alicloud/src/services/shadow\shadow.c ****         goto do_exit;
 419:C:/Users/stapi/OneDrive/Desktop/GD32VW553/V1_MQTT_OK/GD32VW55X_Wifi_BLE_SDK/GD32VW55x_RELEASE_V1.0.2/MSDK/cloud/alicloud/src/services/shadow\shadow.c ****     }
 420:C:/Users/stapi/OneDrive/Desktop/GD32VW553/V1_MQTT_OK/GD32VW55X_Wifi_BLE_SDK/GD32VW55x_RELEASE_V1.0.2/MSDK/cloud/alicloud/src/services/shadow\shadow.c **** 
 421:C:/Users/stapi/OneDrive/Desktop/GD32VW553/V1_MQTT_OK/GD32VW55X_Wifi_BLE_SDK/GD32VW55x_RELEASE_V1.0.2/MSDK/cloud/alicloud/src/services/shadow\shadow.c ****     pshadow->inner_data.sync_status = rc;
 422:C:/Users/stapi/OneDrive/Desktop/GD32VW553/V1_MQTT_OK/GD32VW55X_Wifi_BLE_SDK/GD32VW55x_RELEASE_V1.0.2/MSDK/cloud/alicloud/src/services/shadow\shadow.c **** 
 423:C:/Users/stapi/OneDrive/Desktop/GD32VW553/V1_MQTT_OK/GD32VW55X_Wifi_BLE_SDK/GD32VW55x_RELEASE_V1.0.2/MSDK/cloud/alicloud/src/services/shadow\shadow.c ****     // while (rc == pshadow->inner_data.sync_status) {
 424:C:/Users/stapi/OneDrive/Desktop/GD32VW553/V1_MQTT_OK/GD32VW55X_Wifi_BLE_SDK/GD32VW55x_RELEASE_V1.0.2/MSDK/cloud/alicloud/src/services/shadow\shadow.c ****     //     IOT_Shadow_Yield(pshadow, 100);
 425:C:/Users/stapi/OneDrive/Desktop/GD32VW553/V1_MQTT_OK/GD32VW55X_Wifi_BLE_SDK/GD32VW55x_RELEASE_V1.0.2/MSDK/cloud/alicloud/src/services/shadow\shadow.c ****     // }
 426:C:/Users/stapi/OneDrive/Desktop/GD32VW553/V1_MQTT_OK/GD32VW55X_Wifi_BLE_SDK/GD32VW55x_RELEASE_V1.0.2/MSDK/cloud/alicloud/src/services/shadow\shadow.c **** 
 427:C:/Users/stapi/OneDrive/Desktop/GD32VW553/V1_MQTT_OK/GD32VW55X_Wifi_BLE_SDK/GD32VW55x_RELEASE_V1.0.2/MSDK/cloud/alicloud/src/services/shadow\shadow.c ****     // if (0 == pshadow->inner_data.sync_status) {
 428:C:/Users/stapi/OneDrive/Desktop/GD32VW553/V1_MQTT_OK/GD32VW55X_Wifi_BLE_SDK/GD32VW55x_RELEASE_V1.0.2/MSDK/cloud/alicloud/src/services/shadow\shadow.c ****     //     shadow_debug("Sync device data successfully");
 429:C:/Users/stapi/OneDrive/Desktop/GD32VW553/V1_MQTT_OK/GD32VW55X_Wifi_BLE_SDK/GD32VW55x_RELEASE_V1.0.2/MSDK/cloud/alicloud/src/services/shadow\shadow.c ****     // } else {
 430:C:/Users/stapi/OneDrive/Desktop/GD32VW553/V1_MQTT_OK/GD32VW55X_Wifi_BLE_SDK/GD32VW55x_RELEASE_V1.0.2/MSDK/cloud/alicloud/src/services/shadow\shadow.c ****     //     shadow_debug("Sync device data failed");
 431:C:/Users/stapi/OneDrive/Desktop/GD32VW553/V1_MQTT_OK/GD32VW55X_Wifi_BLE_SDK/GD32VW55x_RELEASE_V1.0.2/MSDK/cloud/alicloud/src/services/shadow\shadow.c ****     // }
 432:C:/Users/stapi/OneDrive/Desktop/GD32VW553/V1_MQTT_OK/GD32VW55X_Wifi_BLE_SDK/GD32VW55x_RELEASE_V1.0.2/MSDK/cloud/alicloud/src/services/shadow\shadow.c **** 
 433:C:/Users/stapi/OneDrive/Desktop/GD32VW553/V1_MQTT_OK/GD32VW55X_Wifi_BLE_SDK/GD32VW55x_RELEASE_V1.0.2/MSDK/cloud/alicloud/src/services/shadow\shadow.c **** 
 434:C:/Users/stapi/OneDrive/Desktop/GD32VW553/V1_MQTT_OK/GD32VW55X_Wifi_BLE_SDK/GD32VW55x_RELEASE_V1.0.2/MSDK/cloud/alicloud/src/services/shadow\shadow.c ****     pshadow->inner_data.attr_list = list_new();
 435:C:/Users/stapi/OneDrive/Desktop/GD32VW553/V1_MQTT_OK/GD32VW55X_Wifi_BLE_SDK/GD32VW55x_RELEASE_V1.0.2/MSDK/cloud/alicloud/src/services/shadow\shadow.c ****     if (NULL == pshadow->inner_data.attr_list) {
 436:C:/Users/stapi/OneDrive/Desktop/GD32VW553/V1_MQTT_OK/GD32VW55X_Wifi_BLE_SDK/GD32VW55x_RELEASE_V1.0.2/MSDK/cloud/alicloud/src/services/shadow\shadow.c ****         shadow_err("new list failed");
 437:C:/Users/stapi/OneDrive/Desktop/GD32VW553/V1_MQTT_OK/GD32VW55X_Wifi_BLE_SDK/GD32VW55x_RELEASE_V1.0.2/MSDK/cloud/alicloud/src/services/shadow\shadow.c ****         goto do_exit;
 438:C:/Users/stapi/OneDrive/Desktop/GD32VW553/V1_MQTT_OK/GD32VW55X_Wifi_BLE_SDK/GD32VW55x_RELEASE_V1.0.2/MSDK/cloud/alicloud/src/services/shadow\shadow.c ****     }
 439:C:/Users/stapi/OneDrive/Desktop/GD32VW553/V1_MQTT_OK/GD32VW55X_Wifi_BLE_SDK/GD32VW55x_RELEASE_V1.0.2/MSDK/cloud/alicloud/src/services/shadow\shadow.c **** 
 440:C:/Users/stapi/OneDrive/Desktop/GD32VW553/V1_MQTT_OK/GD32VW55X_Wifi_BLE_SDK/GD32VW55x_RELEASE_V1.0.2/MSDK/cloud/alicloud/src/services/shadow\shadow.c ****     return pshadow;
 441:C:/Users/stapi/OneDrive/Desktop/GD32VW553/V1_MQTT_OK/GD32VW55X_Wifi_BLE_SDK/GD32VW55x_RELEASE_V1.0.2/MSDK/cloud/alicloud/src/services/shadow\shadow.c **** 
 442:C:/Users/stapi/OneDrive/Desktop/GD32VW553/V1_MQTT_OK/GD32VW55X_Wifi_BLE_SDK/GD32VW55x_RELEASE_V1.0.2/MSDK/cloud/alicloud/src/services/shadow\shadow.c **** do_exit:
 443:C:/Users/stapi/OneDrive/Desktop/GD32VW553/V1_MQTT_OK/GD32VW55X_Wifi_BLE_SDK/GD32VW55x_RELEASE_V1.0.2/MSDK/cloud/alicloud/src/services/shadow\shadow.c ****     IOT_Shadow_Destroy(pshadow);
 444:C:/Users/stapi/OneDrive/Desktop/GD32VW553/V1_MQTT_OK/GD32VW55X_Wifi_BLE_SDK/GD32VW55x_RELEASE_V1.0.2/MSDK/cloud/alicloud/src/services/shadow\shadow.c **** 
 445:C:/Users/stapi/OneDrive/Desktop/GD32VW553/V1_MQTT_OK/GD32VW55X_Wifi_BLE_SDK/GD32VW55x_RELEASE_V1.0.2/MSDK/cloud/alicloud/src/services/shadow\shadow.c ****     return NULL;
 446:C:/Users/stapi/OneDrive/Desktop/GD32VW553/V1_MQTT_OK/GD32VW55X_Wifi_BLE_SDK/GD32VW55x_RELEASE_V1.0.2/MSDK/cloud/alicloud/src/services/shadow\shadow.c **** }
 447:C:/Users/stapi/OneDrive/Desktop/GD32VW553/V1_MQTT_OK/GD32VW55X_Wifi_BLE_SDK/GD32VW55x_RELEASE_V1.0.2/MSDK/cloud/alicloud/src/services/shadow\shadow.c **** 
 448:C:/Users/stapi/OneDrive/Desktop/GD32VW553/V1_MQTT_OK/GD32VW55X_Wifi_BLE_SDK/GD32VW55x_RELEASE_V1.0.2/MSDK/cloud/alicloud/src/services/shadow\shadow.c **** 
 449:C:/Users/stapi/OneDrive/Desktop/GD32VW553/V1_MQTT_OK/GD32VW55X_Wifi_BLE_SDK/GD32VW55x_RELEASE_V1.0.2/MSDK/cloud/alicloud/src/services/shadow\shadow.c **** void IOT_Shadow_Yield(void *handle, uint32_t timeout)
 450:C:/Users/stapi/OneDrive/Desktop/GD32VW553/V1_MQTT_OK/GD32VW55X_Wifi_BLE_SDK/GD32VW55x_RELEASE_V1.0.2/MSDK/cloud/alicloud/src/services/shadow\shadow.c **** {
 451:C:/Users/stapi/OneDrive/Desktop/GD32VW553/V1_MQTT_OK/GD32VW55X_Wifi_BLE_SDK/GD32VW55x_RELEASE_V1.0.2/MSDK/cloud/alicloud/src/services/shadow\shadow.c ****     iotx_shadow_pt pshadow = (iotx_shadow_pt)handle;
 1016              		.loc 1 451 5
 452:C:/Users/stapi/OneDrive/Desktop/GD32VW553/V1_MQTT_OK/GD32VW55X_Wifi_BLE_SDK/GD32VW55x_RELEASE_V1.0.2/MSDK/cloud/alicloud/src/services/shadow\shadow.c ****     //IOT_MQTT_Yield(pshadow->mqtt, timeout);
 453:C:/Users/stapi/OneDrive/Desktop/GD32VW553/V1_MQTT_OK/GD32VW55X_Wifi_BLE_SDK/GD32VW55x_RELEASE_V1.0.2/MSDK/cloud/alicloud/src/services/shadow\shadow.c ****     iotx_ds_handle_expire(pshadow);
 1017              		.loc 1 453 5
 1018              	.LBB14:
 1019              	.LBB15:
  41:C:/Users/stapi/OneDrive/Desktop/GD32VW553/V1_MQTT_OK/GD32VW55X_Wifi_BLE_SDK/GD32VW55x_RELEASE_V1.0.2/MSDK/cloud/alicloud/src/services/shadow\shadow.c **** }
 1020              		.loc 1 41 5
 1021 00ce 2685     		mv	a0,s1
 1022              	.LBE15:
 1023              	.LBE14:
 1024              	.LBE13:
 1025              	.LBE12:
 249:C:/Users/stapi/OneDrive/Desktop/GD32VW553/V1_MQTT_OK/GD32VW55X_Wifi_BLE_SDK/GD32VW55x_RELEASE_V1.0.2/MSDK/cloud/alicloud/src/services/shadow\shadow.c ****             return ERROR_SHADOW_UPDATE_TIMEOUT;
 1026              		.loc 1 249 11 is_stmt 0
 1027 00d0 7D19     		addi	s2,s2,-1
 1028              	.LVL116:
 1029              	.LBB19:
 1030              	.LBB18:
 1031              	.LBB17:
 1032              	.LBB16:
  41:C:/Users/stapi/OneDrive/Desktop/GD32VW553/V1_MQTT_OK/GD32VW55X_Wifi_BLE_SDK/GD32VW55x_RELEASE_V1.0.2/MSDK/cloud/alicloud/src/services/shadow\shadow.c **** }
 1033              		.loc 1 41 5
 1034 00d2 97000000 		call	iotx_ds_update_wait_ack_list_handle_expire
 1034      E7800000 
 1035              	.LVL117:
 1036              	.LBE16:
 1037              	.LBE17:
 1038              	.LBE18:
 1039              	.LBE19:
 249:C:/Users/stapi/OneDrive/Desktop/GD32VW553/V1_MQTT_OK/GD32VW55X_Wifi_BLE_SDK/GD32VW55x_RELEASE_V1.0.2/MSDK/cloud/alicloud/src/services/shadow\shadow.c ****             return ERROR_SHADOW_UPDATE_TIMEOUT;
 1040              		.loc 1 249 9 is_stmt 1
 249:C:/Users/stapi/OneDrive/Desktop/GD32VW553/V1_MQTT_OK/GD32VW55X_Wifi_BLE_SDK/GD32VW55x_RELEASE_V1.0.2/MSDK/cloud/alicloud/src/services/shadow\shadow.c ****             return ERROR_SHADOW_UPDATE_TIMEOUT;
 1041              		.loc 1 249 11 is_stmt 0
 1042 00da E31709FA 		bne	s2,zero,.L55
 1043              	.LVL118:
 1044              	.L62:
 250:C:/Users/stapi/OneDrive/Desktop/GD32VW553/V1_MQTT_OK/GD32VW55X_Wifi_BLE_SDK/GD32VW55x_RELEASE_V1.0.2/MSDK/cloud/alicloud/src/services/shadow\shadow.c ****         }
 1045              		.loc 1 250 20
 1046 00de 1304A082 		li	s0,-2006
 1047              	.LVL119:
 1048 00e2 BDBF     		j	.L52
 1049              	.LVL120:
 1050              	.L58:
 259:C:/Users/stapi/OneDrive/Desktop/GD32VW553/V1_MQTT_OK/GD32VW55X_Wifi_BLE_SDK/GD32VW55x_RELEASE_V1.0.2/MSDK/cloud/alicloud/src/services/shadow\shadow.c ****         shadow_info("update timeout.");
 1051              		.loc 1 259 12 is_stmt 1
 259:C:/Users/stapi/OneDrive/Desktop/GD32VW553/V1_MQTT_OK/GD32VW55X_Wifi_BLE_SDK/GD32VW55x_RELEASE_V1.0.2/MSDK/cloud/alicloud/src/services/shadow\shadow.c ****         shadow_info("update timeout.");
 1052              		.loc 1 259 15 is_stmt 0
 1053 00e4 7D57     		li	a4,-1
 260:C:/Users/stapi/OneDrive/Desktop/GD32VW553/V1_MQTT_OK/GD32VW55X_Wifi_BLE_SDK/GD32VW55x_RELEASE_V1.0.2/MSDK/cloud/alicloud/src/services/shadow\shadow.c ****         return ERROR_SHADOW_UPDATE_TIMEOUT;
 1054              		.loc 1 260 9
 1055 00e6 13050500 		addi	a0,a0,%lo(.LC32)
 259:C:/Users/stapi/OneDrive/Desktop/GD32VW553/V1_MQTT_OK/GD32VW55X_Wifi_BLE_SDK/GD32VW55x_RELEASE_V1.0.2/MSDK/cloud/alicloud/src/services/shadow\shadow.c ****         shadow_info("update timeout.");
 1056              		.loc 1 259 15
 1057 00ea 6395E702 		bne	a5,a4,.L59
 260:C:/Users/stapi/OneDrive/Desktop/GD32VW553/V1_MQTT_OK/GD32VW55X_Wifi_BLE_SDK/GD32VW55x_RELEASE_V1.0.2/MSDK/cloud/alicloud/src/services/shadow\shadow.c ****         return ERROR_SHADOW_UPDATE_TIMEOUT;
 1058              		.loc 1 260 9 is_stmt 1
 260:C:/Users/stapi/OneDrive/Desktop/GD32VW553/V1_MQTT_OK/GD32VW55X_Wifi_BLE_SDK/GD32VW55x_RELEASE_V1.0.2/MSDK/cloud/alicloud/src/services/shadow\shadow.c ****         return ERROR_SHADOW_UPDATE_TIMEOUT;
 1059              		.loc 1 260 9
 1060 00ee 97000000 		call	HAL_Printf
 1060      E7800000 
 1061              	.LVL121:
 260:C:/Users/stapi/OneDrive/Desktop/GD32VW553/V1_MQTT_OK/GD32VW55X_Wifi_BLE_SDK/GD32VW55x_RELEASE_V1.0.2/MSDK/cloud/alicloud/src/services/shadow\shadow.c ****         return ERROR_SHADOW_UPDATE_TIMEOUT;
 1062              		.loc 1 260 9
 1063 00f6 37050000 		lui	a0,%hi(.LC34)
 1064 00fa 13050500 		addi	a0,a0,%lo(.LC34)
 1065 00fe 97000000 		call	HAL_Printf
 1065      E7800000 
 1066              	.LVL122:
 260:C:/Users/stapi/OneDrive/Desktop/GD32VW553/V1_MQTT_OK/GD32VW55X_Wifi_BLE_SDK/GD32VW55x_RELEASE_V1.0.2/MSDK/cloud/alicloud/src/services/shadow\shadow.c ****         return ERROR_SHADOW_UPDATE_TIMEOUT;
 1067              		.loc 1 260 9
 1068 0106 13850400 		addi	a0,s1,%lo(.LC13)
 1069 010a 97000000 		call	HAL_Printf
 1069      E7800000 
 1070              	.LVL123:
 260:C:/Users/stapi/OneDrive/Desktop/GD32VW553/V1_MQTT_OK/GD32VW55X_Wifi_BLE_SDK/GD32VW55x_RELEASE_V1.0.2/MSDK/cloud/alicloud/src/services/shadow\shadow.c ****         return ERROR_SHADOW_UPDATE_TIMEOUT;
 1071              		.loc 1 260 9
 261:C:/Users/stapi/OneDrive/Desktop/GD32VW553/V1_MQTT_OK/GD32VW55X_Wifi_BLE_SDK/GD32VW55x_RELEASE_V1.0.2/MSDK/cloud/alicloud/src/services/shadow\shadow.c ****     } else {
 1072              		.loc 1 261 9
 1073 0112 F1B7     		j	.L62
 1074              	.L59:
 263:C:/Users/stapi/OneDrive/Desktop/GD32VW553/V1_MQTT_OK/GD32VW55X_Wifi_BLE_SDK/GD32VW55x_RELEASE_V1.0.2/MSDK/cloud/alicloud/src/services/shadow\shadow.c ****         return ERROR_SHADOW_UPDATE_NACK;
 1075              		.loc 1 263 9
 263:C:/Users/stapi/OneDrive/Desktop/GD32VW553/V1_MQTT_OK/GD32VW55X_Wifi_BLE_SDK/GD32VW55x_RELEASE_V1.0.2/MSDK/cloud/alicloud/src/services/shadow\shadow.c ****         return ERROR_SHADOW_UPDATE_NACK;
 1076              		.loc 1 263 9
 1077 0114 97000000 		call	HAL_Printf
 1077      E7800000 
 1078              	.LVL124:
 263:C:/Users/stapi/OneDrive/Desktop/GD32VW553/V1_MQTT_OK/GD32VW55X_Wifi_BLE_SDK/GD32VW55x_RELEASE_V1.0.2/MSDK/cloud/alicloud/src/services/shadow\shadow.c ****         return ERROR_SHADOW_UPDATE_NACK;
 1079              		.loc 1 263 9
 1080 011c 37050000 		lui	a0,%hi(.LC35)
 1081 0120 13050500 		addi	a0,a0,%lo(.LC35)
 1082 0124 97000000 		call	HAL_Printf
 1082      E7800000 
 1083              	.LVL125:
 263:C:/Users/stapi/OneDrive/Desktop/GD32VW553/V1_MQTT_OK/GD32VW55X_Wifi_BLE_SDK/GD32VW55x_RELEASE_V1.0.2/MSDK/cloud/alicloud/src/services/shadow\shadow.c ****         return ERROR_SHADOW_UPDATE_NACK;
 1084              		.loc 1 263 9
 1085 012c 13850400 		addi	a0,s1,%lo(.LC13)
 1086 0130 97000000 		call	HAL_Printf
 1086      E7800000 
 1087              	.LVL126:
 263:C:/Users/stapi/OneDrive/Desktop/GD32VW553/V1_MQTT_OK/GD32VW55X_Wifi_BLE_SDK/GD32VW55x_RELEASE_V1.0.2/MSDK/cloud/alicloud/src/services/shadow\shadow.c ****         return ERROR_SHADOW_UPDATE_NACK;
 1088              		.loc 1 263 9
 264:C:/Users/stapi/OneDrive/Desktop/GD32VW553/V1_MQTT_OK/GD32VW55X_Wifi_BLE_SDK/GD32VW55x_RELEASE_V1.0.2/MSDK/cloud/alicloud/src/services/shadow\shadow.c ****     }
 1089              		.loc 1 264 9
 264:C:/Users/stapi/OneDrive/Desktop/GD32VW553/V1_MQTT_OK/GD32VW55X_Wifi_BLE_SDK/GD32VW55x_RELEASE_V1.0.2/MSDK/cloud/alicloud/src/services/shadow\shadow.c ****     }
 1090              		.loc 1 264 16 is_stmt 0
 1091 0138 1304B082 		li	s0,-2005
 1092              	.LVL127:
 1093 013c 15B7     		j	.L52
 1094              		.cfi_endproc
 1095              	.LFE28:
 1097              		.section	.rodata.IOT_Shadow_Pull.str1.4,"aMS",@progbits,1
 1098              		.align	2
 1099              	.LC36:
 1100 0000 44657669 		.string	"Device Shadow sync start."
 1100      63652053 
 1100      6861646F 
 1100      77207379 
 1100      6E632073 
 1101 001a 0000     		.align	2
 1102              	.LC37:
 1103 001c 44657669 		.string	"Device Shadow sync failed"
 1103      63652053 
 1103      6861646F 
 1103      77207379 
 1103      6E632066 
 1104 0036 0000     		.align	2
 1105              	.LC38:
 1106 0038 67657400 		.string	"get"
 1107              		.align	2
 1108              	.LC39:
 1109 003c 44657669 		.string	"Device Shadow sync success."
 1109      63652053 
 1109      6861646F 
 1109      77207379 
 1109      6E632073 
 1110              		.align	2
 1111              	.LC40:
 1112 0058 44657669 		.string	"Device Shadow sync failed."
 1112      63652053 
 1112      6861646F 
 1112      77207379 
 1112      6E632066 
 1113              		.section	.text.IOT_Shadow_Pull,"ax",@progbits
 1114              		.align	1
 1115              		.globl	IOT_Shadow_Pull
 1117              	IOT_Shadow_Pull:
 1118              	.LFB29:
 305:C:/Users/stapi/OneDrive/Desktop/GD32VW553/V1_MQTT_OK/GD32VW55X_Wifi_BLE_SDK/GD32VW55x_RELEASE_V1.0.2/MSDK/cloud/alicloud/src/services/shadow\shadow.c **** #define SHADOW_SYNC_MSG_SIZE      (256)
 1119              		.loc 1 305 1 is_stmt 1
 1120              		.cfi_startproc
 1121              	.LVL128:
 1122 0000 17030000 		call	t0,__riscv_save_4
 1122      E7020300 
 1123              		.cfi_offset 19, -20
 1124              		.cfi_offset 18, -16
 1125              		.cfi_offset 9, -12
 1126              		.cfi_offset 8, -8
 1127              		.cfi_offset 1, -4
 1128              		.cfi_def_cfa_offset 32
 308:C:/Users/stapi/OneDrive/Desktop/GD32VW553/V1_MQTT_OK/GD32VW55X_Wifi_BLE_SDK/GD32VW55x_RELEASE_V1.0.2/MSDK/cloud/alicloud/src/services/shadow\shadow.c ****     void *buf;
 1129              		.loc 1 308 5
 309:C:/Users/stapi/OneDrive/Desktop/GD32VW553/V1_MQTT_OK/GD32VW55X_Wifi_BLE_SDK/GD32VW55x_RELEASE_V1.0.2/MSDK/cloud/alicloud/src/services/shadow\shadow.c ****     format_data_t format;
 1130              		.loc 1 309 5
 310:C:/Users/stapi/OneDrive/Desktop/GD32VW553/V1_MQTT_OK/GD32VW55X_Wifi_BLE_SDK/GD32VW55x_RELEASE_V1.0.2/MSDK/cloud/alicloud/src/services/shadow\shadow.c ****     iotx_shadow_pt pshadow = (iotx_shadow_pt)handle;
 1131              		.loc 1 310 5
 311:C:/Users/stapi/OneDrive/Desktop/GD32VW553/V1_MQTT_OK/GD32VW55X_Wifi_BLE_SDK/GD32VW55x_RELEASE_V1.0.2/MSDK/cloud/alicloud/src/services/shadow\shadow.c ****     iotx_shadow_ack_code_t ack_update = IOTX_SHADOW_ACK_NONE;
 1132              		.loc 1 311 5
 315:C:/Users/stapi/OneDrive/Desktop/GD32VW553/V1_MQTT_OK/GD32VW55X_Wifi_BLE_SDK/GD32VW55x_RELEASE_V1.0.2/MSDK/cloud/alicloud/src/services/shadow\shadow.c **** 
 1133              		.loc 1 315 5 is_stmt 0
 1134 0008 B7090000 		lui	s3,%hi(.LC32)
 305:C:/Users/stapi/OneDrive/Desktop/GD32VW553/V1_MQTT_OK/GD32VW55X_Wifi_BLE_SDK/GD32VW55x_RELEASE_V1.0.2/MSDK/cloud/alicloud/src/services/shadow\shadow.c **** #define SHADOW_SYNC_MSG_SIZE      (256)
 1135              		.loc 1 305 1
 1136 000c 0111     		addi	sp,sp,-32
 1137              		.cfi_def_cfa_offset 64
 305:C:/Users/stapi/OneDrive/Desktop/GD32VW553/V1_MQTT_OK/GD32VW55X_Wifi_BLE_SDK/GD32VW55x_RELEASE_V1.0.2/MSDK/cloud/alicloud/src/services/shadow\shadow.c **** #define SHADOW_SYNC_MSG_SIZE      (256)
 1138              		.loc 1 305 1
 1139 000e 2A84     		mv	s0,a0
 1140              	.LVL129:
 312:C:/Users/stapi/OneDrive/Desktop/GD32VW553/V1_MQTT_OK/GD32VW55X_Wifi_BLE_SDK/GD32VW55x_RELEASE_V1.0.2/MSDK/cloud/alicloud/src/services/shadow\shadow.c ****     uint16_t timeout_s = 1000;
 1141              		.loc 1 312 5 is_stmt 1
 315:C:/Users/stapi/OneDrive/Desktop/GD32VW553/V1_MQTT_OK/GD32VW55X_Wifi_BLE_SDK/GD32VW55x_RELEASE_V1.0.2/MSDK/cloud/alicloud/src/services/shadow\shadow.c **** 
 1142              		.loc 1 315 5 is_stmt 0
 1143 0010 13850900 		addi	a0,s3,%lo(.LC32)
 1144              	.LVL130:
 312:C:/Users/stapi/OneDrive/Desktop/GD32VW553/V1_MQTT_OK/GD32VW55X_Wifi_BLE_SDK/GD32VW55x_RELEASE_V1.0.2/MSDK/cloud/alicloud/src/services/shadow\shadow.c ****     uint16_t timeout_s = 1000;
 1145              		.loc 1 312 28
 1146 0014 02C6     		sw	zero,12(sp)
 313:C:/Users/stapi/OneDrive/Desktop/GD32VW553/V1_MQTT_OK/GD32VW55X_Wifi_BLE_SDK/GD32VW55x_RELEASE_V1.0.2/MSDK/cloud/alicloud/src/services/shadow\shadow.c **** 
 1147              		.loc 1 313 5 is_stmt 1
 1148              	.LVL131:
 315:C:/Users/stapi/OneDrive/Desktop/GD32VW553/V1_MQTT_OK/GD32VW55X_Wifi_BLE_SDK/GD32VW55x_RELEASE_V1.0.2/MSDK/cloud/alicloud/src/services/shadow\shadow.c **** 
 1149              		.loc 1 315 5
 315:C:/Users/stapi/OneDrive/Desktop/GD32VW553/V1_MQTT_OK/GD32VW55X_Wifi_BLE_SDK/GD32VW55x_RELEASE_V1.0.2/MSDK/cloud/alicloud/src/services/shadow\shadow.c **** 
 1150              		.loc 1 315 5
 1151 0016 97000000 		call	HAL_Printf
 1151      E7800000 
 1152              	.LVL132:
 315:C:/Users/stapi/OneDrive/Desktop/GD32VW553/V1_MQTT_OK/GD32VW55X_Wifi_BLE_SDK/GD32VW55x_RELEASE_V1.0.2/MSDK/cloud/alicloud/src/services/shadow\shadow.c **** 
 1153              		.loc 1 315 5
 1154 001e 37050000 		lui	a0,%hi(.LC36)
 1155 0022 13050500 		addi	a0,a0,%lo(.LC36)
 1156 0026 97000000 		call	HAL_Printf
 1156      E7800000 
 1157              	.LVL133:
 315:C:/Users/stapi/OneDrive/Desktop/GD32VW553/V1_MQTT_OK/GD32VW55X_Wifi_BLE_SDK/GD32VW55x_RELEASE_V1.0.2/MSDK/cloud/alicloud/src/services/shadow\shadow.c **** 
 1158              		.loc 1 315 5
 1159 002e 37090000 		lui	s2,%hi(.LC13)
 1160 0032 13050900 		addi	a0,s2,%lo(.LC13)
 1161 0036 97000000 		call	HAL_Printf
 1161      E7800000 
 1162              	.LVL134:
 315:C:/Users/stapi/OneDrive/Desktop/GD32VW553/V1_MQTT_OK/GD32VW55X_Wifi_BLE_SDK/GD32VW55x_RELEASE_V1.0.2/MSDK/cloud/alicloud/src/services/shadow\shadow.c **** 
 1163              		.loc 1 315 5
 317:C:/Users/stapi/OneDrive/Desktop/GD32VW553/V1_MQTT_OK/GD32VW55X_Wifi_BLE_SDK/GD32VW55x_RELEASE_V1.0.2/MSDK/cloud/alicloud/src/services/shadow\shadow.c ****     if (NULL == buf) {
 1164              		.loc 1 317 5
 317:C:/Users/stapi/OneDrive/Desktop/GD32VW553/V1_MQTT_OK/GD32VW55X_Wifi_BLE_SDK/GD32VW55x_RELEASE_V1.0.2/MSDK/cloud/alicloud/src/services/shadow\shadow.c ****     if (NULL == buf) {
 1165              		.loc 1 317 11 is_stmt 0
 1166 003e 13060010 		li	a2,256
 1167 0042 8145     		li	a1,0
 1168 0044 0145     		li	a0,0
 1169 0046 97000000 		call	LITE_malloc_internal
 1169      E7800000 
 1170              	.LVL135:
 318:C:/Users/stapi/OneDrive/Desktop/GD32VW553/V1_MQTT_OK/GD32VW55X_Wifi_BLE_SDK/GD32VW55x_RELEASE_V1.0.2/MSDK/cloud/alicloud/src/services/shadow\shadow.c ****         shadow_err("Device Shadow sync failed");
 1171              		.loc 1 318 5 is_stmt 1
 318:C:/Users/stapi/OneDrive/Desktop/GD32VW553/V1_MQTT_OK/GD32VW55X_Wifi_BLE_SDK/GD32VW55x_RELEASE_V1.0.2/MSDK/cloud/alicloud/src/services/shadow\shadow.c ****         shadow_err("Device Shadow sync failed");
 1172              		.loc 1 318 8 is_stmt 0
 1173 004e 1DED     		bne	a0,zero,.L65
 319:C:/Users/stapi/OneDrive/Desktop/GD32VW553/V1_MQTT_OK/GD32VW55X_Wifi_BLE_SDK/GD32VW55x_RELEASE_V1.0.2/MSDK/cloud/alicloud/src/services/shadow\shadow.c ****         return ERROR_NO_MEM;
 1174              		.loc 1 319 9 is_stmt 1
 319:C:/Users/stapi/OneDrive/Desktop/GD32VW553/V1_MQTT_OK/GD32VW55X_Wifi_BLE_SDK/GD32VW55x_RELEASE_V1.0.2/MSDK/cloud/alicloud/src/services/shadow\shadow.c ****         return ERROR_NO_MEM;
 1175              		.loc 1 319 9
 1176 0050 37050000 		lui	a0,%hi(.LC11)
 1177              	.LVL136:
 1178 0054 13050500 		addi	a0,a0,%lo(.LC11)
 1179 0058 97000000 		call	HAL_Printf
 1179      E7800000 
 1180              	.LVL137:
 319:C:/Users/stapi/OneDrive/Desktop/GD32VW553/V1_MQTT_OK/GD32VW55X_Wifi_BLE_SDK/GD32VW55x_RELEASE_V1.0.2/MSDK/cloud/alicloud/src/services/shadow\shadow.c ****         return ERROR_NO_MEM;
 1181              		.loc 1 319 9
 1182 0060 37050000 		lui	a0,%hi(.LC37)
 1183 0064 13050500 		addi	a0,a0,%lo(.LC37)
 1184 0068 97000000 		call	HAL_Printf
 1184      E7800000 
 1185              	.LVL138:
 319:C:/Users/stapi/OneDrive/Desktop/GD32VW553/V1_MQTT_OK/GD32VW55X_Wifi_BLE_SDK/GD32VW55x_RELEASE_V1.0.2/MSDK/cloud/alicloud/src/services/shadow\shadow.c ****         return ERROR_NO_MEM;
 1186              		.loc 1 319 9
 1187 0070 13050900 		addi	a0,s2,%lo(.LC13)
 1188 0074 97000000 		call	HAL_Printf
 1188      E7800000 
 1189              	.LVL139:
 319:C:/Users/stapi/OneDrive/Desktop/GD32VW553/V1_MQTT_OK/GD32VW55X_Wifi_BLE_SDK/GD32VW55x_RELEASE_V1.0.2/MSDK/cloud/alicloud/src/services/shadow\shadow.c ****         return ERROR_NO_MEM;
 1190              		.loc 1 319 9
 320:C:/Users/stapi/OneDrive/Desktop/GD32VW553/V1_MQTT_OK/GD32VW55X_Wifi_BLE_SDK/GD32VW55x_RELEASE_V1.0.2/MSDK/cloud/alicloud/src/services/shadow\shadow.c ****     }
 1191              		.loc 1 320 9
 320:C:/Users/stapi/OneDrive/Desktop/GD32VW553/V1_MQTT_OK/GD32VW55X_Wifi_BLE_SDK/GD32VW55x_RELEASE_V1.0.2/MSDK/cloud/alicloud/src/services/shadow\shadow.c ****     }
 1192              		.loc 1 320 16 is_stmt 0
 1193 007c 130480C0 		li	s0,-1016
 1194              	.LVL140:
 1195              	.L64:
 342:C:/Users/stapi/OneDrive/Desktop/GD32VW553/V1_MQTT_OK/GD32VW55X_Wifi_BLE_SDK/GD32VW55x_RELEASE_V1.0.2/MSDK/cloud/alicloud/src/services/shadow\shadow.c **** #endif
 1196              		.loc 1 342 1
 1197 0080 2285     		mv	a0,s0
 1198 0082 0561     		addi	sp,sp,32
 1199              		.cfi_remember_state
 1200              		.cfi_def_cfa_offset 0
 1201 0084 17030000 		tail	__riscv_restore_4
 1201      67000300 
 1202              		.cfi_restore 19
 1203              		.cfi_restore 18
 1204              		.cfi_restore 9
 1205              		.cfi_restore 8
 1206              		.cfi_restore 1
 1207              		.cfi_def_cfa_offset -32
 1208              	.LVL141:
 1209              	.L65:
 1210              		.cfi_restore_state
 323:C:/Users/stapi/OneDrive/Desktop/GD32VW553/V1_MQTT_OK/GD32VW55X_Wifi_BLE_SDK/GD32VW55x_RELEASE_V1.0.2/MSDK/cloud/alicloud/src/services/shadow\shadow.c ****     iotx_ds_common_format_finalize(pshadow, &format, NULL, 1);
 1211              		.loc 1 323 5
 1212 008c 37070000 		lui	a4,%hi(.LC38)
 1213 0090 8147     		li	a5,0
 1214 0092 13070700 		addi	a4,a4,%lo(.LC38)
 1215 0096 2A86     		mv	a2,a0
 1216 0098 93060010 		li	a3,256
 1217 009c 0C08     		addi	a1,sp,16
 1218 009e AA84     		mv	s1,a0
 323:C:/Users/stapi/OneDrive/Desktop/GD32VW553/V1_MQTT_OK/GD32VW55X_Wifi_BLE_SDK/GD32VW55x_RELEASE_V1.0.2/MSDK/cloud/alicloud/src/services/shadow\shadow.c ****     iotx_ds_common_format_finalize(pshadow, &format, NULL, 1);
 1219              		.loc 1 323 5 is_stmt 1
 1220 00a0 2285     		mv	a0,s0
 1221              	.LVL142:
 1222 00a2 97000000 		call	iotx_ds_common_format_init
 1222      E7800000 
 1223              	.LVL143:
 324:C:/Users/stapi/OneDrive/Desktop/GD32VW553/V1_MQTT_OK/GD32VW55X_Wifi_BLE_SDK/GD32VW55x_RELEASE_V1.0.2/MSDK/cloud/alicloud/src/services/shadow\shadow.c **** 
 1224              		.loc 1 324 5
 1225 00aa 8546     		li	a3,1
 1226 00ac 0146     		li	a2,0
 1227 00ae 0C08     		addi	a1,sp,16
 1228 00b0 2285     		mv	a0,s0
 1229 00b2 97000000 		call	iotx_ds_common_format_finalize
 1229      E7800000 
 1230              	.LVL144:
 328:C:/Users/stapi/OneDrive/Desktop/GD32VW553/V1_MQTT_OK/GD32VW55X_Wifi_BLE_SDK/GD32VW55x_RELEASE_V1.0.2/MSDK/cloud/alicloud/src/services/shadow\shadow.c **** 
 1231              		.loc 1 328 5
 328:C:/Users/stapi/OneDrive/Desktop/GD32VW553/V1_MQTT_OK/GD32VW55X_Wifi_BLE_SDK/GD32VW55x_RELEASE_V1.0.2/MSDK/cloud/alicloud/src/services/shadow\shadow.c **** 
 1232              		.loc 1 328 11 is_stmt 0
 1233 00ba 6246     		lw	a2,24(sp)
 1234 00bc F245     		lw	a1,28(sp)
 1235 00be 37070000 		lui	a4,%hi(iotx_update_ack_cb)
 1236 00c2 2285     		mv	a0,s0
 1237 00c4 7C00     		addi	a5,sp,12
 1238 00c6 13070700 		addi	a4,a4,%lo(iotx_update_ack_cb)
 1239 00ca 9306803E 		li	a3,1000
 1240 00ce 97000000 		call	IOT_Shadow_Push_Async
 1240      E7800000 
 1241              	.LVL145:
 1242 00d6 2A84     		mv	s0,a0
 1243              	.LVL146:
 330:C:/Users/stapi/OneDrive/Desktop/GD32VW553/V1_MQTT_OK/GD32VW55X_Wifi_BLE_SDK/GD32VW55x_RELEASE_V1.0.2/MSDK/cloud/alicloud/src/services/shadow\shadow.c ****         shadow_info("Device Shadow sync success.");
 1244              		.loc 1 330 5 is_stmt 1
 331:C:/Users/stapi/OneDrive/Desktop/GD32VW553/V1_MQTT_OK/GD32VW55X_Wifi_BLE_SDK/GD32VW55x_RELEASE_V1.0.2/MSDK/cloud/alicloud/src/services/shadow\shadow.c ****     } else {
 1245              		.loc 1 331 9 is_stmt 0
 1246 00d8 13850900 		addi	a0,s3,%lo(.LC32)
 330:C:/Users/stapi/OneDrive/Desktop/GD32VW553/V1_MQTT_OK/GD32VW55X_Wifi_BLE_SDK/GD32VW55x_RELEASE_V1.0.2/MSDK/cloud/alicloud/src/services/shadow\shadow.c ****         shadow_info("Device Shadow sync success.");
 1247              		.loc 1 330 8
 1248 00dc 0DE8     		bne	s0,zero,.L67
 331:C:/Users/stapi/OneDrive/Desktop/GD32VW553/V1_MQTT_OK/GD32VW55X_Wifi_BLE_SDK/GD32VW55x_RELEASE_V1.0.2/MSDK/cloud/alicloud/src/services/shadow\shadow.c ****     } else {
 1249              		.loc 1 331 9 is_stmt 1
 331:C:/Users/stapi/OneDrive/Desktop/GD32VW553/V1_MQTT_OK/GD32VW55X_Wifi_BLE_SDK/GD32VW55x_RELEASE_V1.0.2/MSDK/cloud/alicloud/src/services/shadow\shadow.c ****     } else {
 1250              		.loc 1 331 9
 1251 00de 97000000 		call	HAL_Printf
 1251      E7800000 
 1252              	.LVL147:
 331:C:/Users/stapi/OneDrive/Desktop/GD32VW553/V1_MQTT_OK/GD32VW55X_Wifi_BLE_SDK/GD32VW55x_RELEASE_V1.0.2/MSDK/cloud/alicloud/src/services/shadow\shadow.c ****     } else {
 1253              		.loc 1 331 9
 1254 00e6 37050000 		lui	a0,%hi(.LC39)
 1255 00ea 13050500 		addi	a0,a0,%lo(.LC39)
 1256              	.L70:
 333:C:/Users/stapi/OneDrive/Desktop/GD32VW553/V1_MQTT_OK/GD32VW55X_Wifi_BLE_SDK/GD32VW55x_RELEASE_V1.0.2/MSDK/cloud/alicloud/src/services/shadow\shadow.c ****     }
 1257              		.loc 1 333 9 is_stmt 0
 1258 00ee 97000000 		call	HAL_Printf
 1258      E7800000 
 1259              	.LVL148:
 333:C:/Users/stapi/OneDrive/Desktop/GD32VW553/V1_MQTT_OK/GD32VW55X_Wifi_BLE_SDK/GD32VW55x_RELEASE_V1.0.2/MSDK/cloud/alicloud/src/services/shadow\shadow.c ****     }
 1260              		.loc 1 333 9 is_stmt 1
 1261 00f6 13050900 		addi	a0,s2,%lo(.LC13)
 1262 00fa 97000000 		call	HAL_Printf
 1262      E7800000 
 1263              	.LVL149:
 333:C:/Users/stapi/OneDrive/Desktop/GD32VW553/V1_MQTT_OK/GD32VW55X_Wifi_BLE_SDK/GD32VW55x_RELEASE_V1.0.2/MSDK/cloud/alicloud/src/services/shadow\shadow.c ****     }
 1264              		.loc 1 333 9
 336:C:/Users/stapi/OneDrive/Desktop/GD32VW553/V1_MQTT_OK/GD32VW55X_Wifi_BLE_SDK/GD32VW55x_RELEASE_V1.0.2/MSDK/cloud/alicloud/src/services/shadow\shadow.c ****     //HAL_SleepMs(1000);
 1265              		.loc 1 336 5
 1266 0102 2685     		mv	a0,s1
 1267 0104 97000000 		call	LITE_free_internal
 1267      E7800000 
 1268              	.LVL150:
 339:C:/Users/stapi/OneDrive/Desktop/GD32VW553/V1_MQTT_OK/GD32VW55X_Wifi_BLE_SDK/GD32VW55x_RELEASE_V1.0.2/MSDK/cloud/alicloud/src/services/shadow\shadow.c **** 
 1269              		.loc 1 339 5
 339:C:/Users/stapi/OneDrive/Desktop/GD32VW553/V1_MQTT_OK/GD32VW55X_Wifi_BLE_SDK/GD32VW55x_RELEASE_V1.0.2/MSDK/cloud/alicloud/src/services/shadow\shadow.c **** 
 1270              		.loc 1 339 12 is_stmt 0
 1271 010c 95BF     		j	.L64
 1272              	.L67:
 333:C:/Users/stapi/OneDrive/Desktop/GD32VW553/V1_MQTT_OK/GD32VW55X_Wifi_BLE_SDK/GD32VW55x_RELEASE_V1.0.2/MSDK/cloud/alicloud/src/services/shadow\shadow.c ****     }
 1273              		.loc 1 333 9 is_stmt 1
 333:C:/Users/stapi/OneDrive/Desktop/GD32VW553/V1_MQTT_OK/GD32VW55X_Wifi_BLE_SDK/GD32VW55x_RELEASE_V1.0.2/MSDK/cloud/alicloud/src/services/shadow\shadow.c ****     }
 1274              		.loc 1 333 9
 1275 010e 97000000 		call	HAL_Printf
 1275      E7800000 
 1276              	.LVL151:
 333:C:/Users/stapi/OneDrive/Desktop/GD32VW553/V1_MQTT_OK/GD32VW55X_Wifi_BLE_SDK/GD32VW55x_RELEASE_V1.0.2/MSDK/cloud/alicloud/src/services/shadow\shadow.c ****     }
 1277              		.loc 1 333 9
 1278 0116 37050000 		lui	a0,%hi(.LC40)
 1279 011a 13050500 		addi	a0,a0,%lo(.LC40)
 1280 011e C1BF     		j	.L70
 1281              		.cfi_endproc
 1282              	.LFE29:
 1284              		.section	.text.IOT_Shadow_Yield,"ax",@progbits
 1285              		.align	1
 1286              		.globl	IOT_Shadow_Yield
 1288              	IOT_Shadow_Yield:
 1289              	.LFB32:
 450:C:/Users/stapi/OneDrive/Desktop/GD32VW553/V1_MQTT_OK/GD32VW55X_Wifi_BLE_SDK/GD32VW55x_RELEASE_V1.0.2/MSDK/cloud/alicloud/src/services/shadow\shadow.c ****     iotx_shadow_pt pshadow = (iotx_shadow_pt)handle;
 1290              		.loc 1 450 1
 1291              		.cfi_startproc
 1292              	.LVL152:
 451:C:/Users/stapi/OneDrive/Desktop/GD32VW553/V1_MQTT_OK/GD32VW55X_Wifi_BLE_SDK/GD32VW55x_RELEASE_V1.0.2/MSDK/cloud/alicloud/src/services/shadow\shadow.c ****     //IOT_MQTT_Yield(pshadow->mqtt, timeout);
 1293              		.loc 1 451 5
 1294              		.loc 1 453 5
 1295              	.LBB20:
 1296              	.LBB21:
  41:C:/Users/stapi/OneDrive/Desktop/GD32VW553/V1_MQTT_OK/GD32VW55X_Wifi_BLE_SDK/GD32VW55x_RELEASE_V1.0.2/MSDK/cloud/alicloud/src/services/shadow\shadow.c **** }
 1297              		.loc 1 41 5
 1298 0000 17030000 		tail	iotx_ds_update_wait_ack_list_handle_expire
 1298      67000300 
 1299              	.LVL153:
 1300              	.LBE21:
 1301              	.LBE20:
 1302              		.cfi_endproc
 1303              	.LFE32:
 1305              		.section	.text.IOT_Shadow_Destroy,"ax",@progbits
 1306              		.align	1
 1307              		.globl	IOT_Shadow_Destroy
 1309              	IOT_Shadow_Destroy:
 1310              	.LFB33:
 454:C:/Users/stapi/OneDrive/Desktop/GD32VW553/V1_MQTT_OK/GD32VW55X_Wifi_BLE_SDK/GD32VW55x_RELEASE_V1.0.2/MSDK/cloud/alicloud/src/services/shadow\shadow.c **** }
 455:C:/Users/stapi/OneDrive/Desktop/GD32VW553/V1_MQTT_OK/GD32VW55X_Wifi_BLE_SDK/GD32VW55x_RELEASE_V1.0.2/MSDK/cloud/alicloud/src/services/shadow\shadow.c **** 
 456:C:/Users/stapi/OneDrive/Desktop/GD32VW553/V1_MQTT_OK/GD32VW55X_Wifi_BLE_SDK/GD32VW55x_RELEASE_V1.0.2/MSDK/cloud/alicloud/src/services/shadow\shadow.c **** 
 457:C:/Users/stapi/OneDrive/Desktop/GD32VW553/V1_MQTT_OK/GD32VW55X_Wifi_BLE_SDK/GD32VW55x_RELEASE_V1.0.2/MSDK/cloud/alicloud/src/services/shadow\shadow.c **** iotx_err_t IOT_Shadow_Destroy(void *handle)
 458:C:/Users/stapi/OneDrive/Desktop/GD32VW553/V1_MQTT_OK/GD32VW55X_Wifi_BLE_SDK/GD32VW55x_RELEASE_V1.0.2/MSDK/cloud/alicloud/src/services/shadow\shadow.c **** {
 1311              		.loc 1 458 1
 1312              		.cfi_startproc
 1313              	.LVL154:
 1314 0000 17030000 		call	t0,__riscv_save_1
 1314      E7020300 
 1315              		.cfi_offset 8, -8
 1316              		.cfi_offset 1, -4
 1317              		.cfi_def_cfa_offset 16
 459:C:/Users/stapi/OneDrive/Desktop/GD32VW553/V1_MQTT_OK/GD32VW55X_Wifi_BLE_SDK/GD32VW55x_RELEASE_V1.0.2/MSDK/cloud/alicloud/src/services/shadow\shadow.c ****     iotx_shadow_pt pshadow = (iotx_shadow_pt) handle;
 1318              		.loc 1 459 5
 1319              	.LVL155:
 460:C:/Users/stapi/OneDrive/Desktop/GD32VW553/V1_MQTT_OK/GD32VW55X_Wifi_BLE_SDK/GD32VW55x_RELEASE_V1.0.2/MSDK/cloud/alicloud/src/services/shadow\shadow.c **** 
 461:C:/Users/stapi/OneDrive/Desktop/GD32VW553/V1_MQTT_OK/GD32VW55X_Wifi_BLE_SDK/GD32VW55x_RELEASE_V1.0.2/MSDK/cloud/alicloud/src/services/shadow\shadow.c **** /* do not need to unsub as destroy mqtt will release these resource*/
 462:C:/Users/stapi/OneDrive/Desktop/GD32VW553/V1_MQTT_OK/GD32VW55X_Wifi_BLE_SDK/GD32VW55x_RELEASE_V1.0.2/MSDK/cloud/alicloud/src/services/shadow\shadow.c **** #if 0
 463:C:/Users/stapi/OneDrive/Desktop/GD32VW553/V1_MQTT_OK/GD32VW55X_Wifi_BLE_SDK/GD32VW55x_RELEASE_V1.0.2/MSDK/cloud/alicloud/src/services/shadow\shadow.c ****     if (NULL != pshadow->mqtt) {
 464:C:/Users/stapi/OneDrive/Desktop/GD32VW553/V1_MQTT_OK/GD32VW55X_Wifi_BLE_SDK/GD32VW55x_RELEASE_V1.0.2/MSDK/cloud/alicloud/src/services/shadow\shadow.c ****         if (NULL != pshadow->inner_data.ptopic_get) {
 465:C:/Users/stapi/OneDrive/Desktop/GD32VW553/V1_MQTT_OK/GD32VW55X_Wifi_BLE_SDK/GD32VW55x_RELEASE_V1.0.2/MSDK/cloud/alicloud/src/services/shadow\shadow.c ****             IOT_MQTT_Unsubscribe(pshadow->mqtt, pshadow->inner_data.ptopic_get);
 466:C:/Users/stapi/OneDrive/Desktop/GD32VW553/V1_MQTT_OK/GD32VW55X_Wifi_BLE_SDK/GD32VW55x_RELEASE_V1.0.2/MSDK/cloud/alicloud/src/services/shadow\shadow.c ****         }
 467:C:/Users/stapi/OneDrive/Desktop/GD32VW553/V1_MQTT_OK/GD32VW55X_Wifi_BLE_SDK/GD32VW55x_RELEASE_V1.0.2/MSDK/cloud/alicloud/src/services/shadow\shadow.c **** 
 468:C:/Users/stapi/OneDrive/Desktop/GD32VW553/V1_MQTT_OK/GD32VW55X_Wifi_BLE_SDK/GD32VW55x_RELEASE_V1.0.2/MSDK/cloud/alicloud/src/services/shadow\shadow.c ****         //HAL_SleepMs(2000);
 469:C:/Users/stapi/OneDrive/Desktop/GD32VW553/V1_MQTT_OK/GD32VW55X_Wifi_BLE_SDK/GD32VW55x_RELEASE_V1.0.2/MSDK/cloud/alicloud/src/services/shadow\shadow.c ****         //IOT_MQTT_Destroy(&pshadow->mqtt);
 470:C:/Users/stapi/OneDrive/Desktop/GD32VW553/V1_MQTT_OK/GD32VW55X_Wifi_BLE_SDK/GD32VW55x_RELEASE_V1.0.2/MSDK/cloud/alicloud/src/services/shadow\shadow.c ****     }
 471:C:/Users/stapi/OneDrive/Desktop/GD32VW553/V1_MQTT_OK/GD32VW55X_Wifi_BLE_SDK/GD32VW55x_RELEASE_V1.0.2/MSDK/cloud/alicloud/src/services/shadow\shadow.c **** #endif
 472:C:/Users/stapi/OneDrive/Desktop/GD32VW553/V1_MQTT_OK/GD32VW55X_Wifi_BLE_SDK/GD32VW55x_RELEASE_V1.0.2/MSDK/cloud/alicloud/src/services/shadow\shadow.c **** 
 473:C:/Users/stapi/OneDrive/Desktop/GD32VW553/V1_MQTT_OK/GD32VW55X_Wifi_BLE_SDK/GD32VW55x_RELEASE_V1.0.2/MSDK/cloud/alicloud/src/services/shadow\shadow.c ****     if (NULL != pshadow->inner_data.ptopic_get) {
 1320              		.loc 1 473 5
 458:C:/Users/stapi/OneDrive/Desktop/GD32VW553/V1_MQTT_OK/GD32VW55X_Wifi_BLE_SDK/GD32VW55x_RELEASE_V1.0.2/MSDK/cloud/alicloud/src/services/shadow\shadow.c ****     iotx_shadow_pt pshadow = (iotx_shadow_pt) handle;
 1321              		.loc 1 458 1 is_stmt 0
 1322 0008 2A84     		mv	s0,a0
 1323              		.loc 1 473 36
 1324 000a 0325052F 		lw	a0,752(a0)
 1325              	.LVL156:
 1326              		.loc 1 473 8
 1327 000e 09C5     		beq	a0,zero,.L74
 474:C:/Users/stapi/OneDrive/Desktop/GD32VW553/V1_MQTT_OK/GD32VW55X_Wifi_BLE_SDK/GD32VW55x_RELEASE_V1.0.2/MSDK/cloud/alicloud/src/services/shadow\shadow.c ****         LITE_free(pshadow->inner_data.ptopic_get);
 1328              		.loc 1 474 9 is_stmt 1
 1329 0010 97000000 		call	LITE_free_internal
 1329      E7800000 
 1330              	.LVL157:
 1331              	.L74:
 475:C:/Users/stapi/OneDrive/Desktop/GD32VW553/V1_MQTT_OK/GD32VW55X_Wifi_BLE_SDK/GD32VW55x_RELEASE_V1.0.2/MSDK/cloud/alicloud/src/services/shadow\shadow.c ****     }
 476:C:/Users/stapi/OneDrive/Desktop/GD32VW553/V1_MQTT_OK/GD32VW55X_Wifi_BLE_SDK/GD32VW55x_RELEASE_V1.0.2/MSDK/cloud/alicloud/src/services/shadow\shadow.c **** 
 477:C:/Users/stapi/OneDrive/Desktop/GD32VW553/V1_MQTT_OK/GD32VW55X_Wifi_BLE_SDK/GD32VW55x_RELEASE_V1.0.2/MSDK/cloud/alicloud/src/services/shadow\shadow.c ****     if (NULL != pshadow->inner_data.ptopic_update) {
 1332              		.loc 1 477 5
 1333              		.loc 1 477 36 is_stmt 0
 1334 0018 0325C42E 		lw	a0,748(s0)
 1335              		.loc 1 477 8
 1336 001c 09C5     		beq	a0,zero,.L75
 478:C:/Users/stapi/OneDrive/Desktop/GD32VW553/V1_MQTT_OK/GD32VW55X_Wifi_BLE_SDK/GD32VW55x_RELEASE_V1.0.2/MSDK/cloud/alicloud/src/services/shadow\shadow.c ****         LITE_free(pshadow->inner_data.ptopic_update);
 1337              		.loc 1 478 9 is_stmt 1
 1338 001e 97000000 		call	LITE_free_internal
 1338      E7800000 
 1339              	.LVL158:
 1340              	.L75:
 479:C:/Users/stapi/OneDrive/Desktop/GD32VW553/V1_MQTT_OK/GD32VW55X_Wifi_BLE_SDK/GD32VW55x_RELEASE_V1.0.2/MSDK/cloud/alicloud/src/services/shadow\shadow.c ****     }
 480:C:/Users/stapi/OneDrive/Desktop/GD32VW553/V1_MQTT_OK/GD32VW55X_Wifi_BLE_SDK/GD32VW55x_RELEASE_V1.0.2/MSDK/cloud/alicloud/src/services/shadow\shadow.c **** 
 481:C:/Users/stapi/OneDrive/Desktop/GD32VW553/V1_MQTT_OK/GD32VW55X_Wifi_BLE_SDK/GD32VW55x_RELEASE_V1.0.2/MSDK/cloud/alicloud/src/services/shadow\shadow.c ****     if (NULL != pshadow->inner_data.attr_list) {
 1341              		.loc 1 481 5
 1342              		.loc 1 481 36 is_stmt 0
 1343 0026 0325842E 		lw	a0,744(s0)
 1344              		.loc 1 481 8
 1345 002a 09C5     		beq	a0,zero,.L76
 482:C:/Users/stapi/OneDrive/Desktop/GD32VW553/V1_MQTT_OK/GD32VW55X_Wifi_BLE_SDK/GD32VW55x_RELEASE_V1.0.2/MSDK/cloud/alicloud/src/services/shadow\shadow.c ****         list_destroy(pshadow->inner_data.attr_list);
 1346              		.loc 1 482 9 is_stmt 1
 1347 002c 97000000 		call	list_destroy
 1347      E7800000 
 1348              	.LVL159:
 1349              	.L76:
 483:C:/Users/stapi/OneDrive/Desktop/GD32VW553/V1_MQTT_OK/GD32VW55X_Wifi_BLE_SDK/GD32VW55x_RELEASE_V1.0.2/MSDK/cloud/alicloud/src/services/shadow\shadow.c ****     }
 484:C:/Users/stapi/OneDrive/Desktop/GD32VW553/V1_MQTT_OK/GD32VW55X_Wifi_BLE_SDK/GD32VW55x_RELEASE_V1.0.2/MSDK/cloud/alicloud/src/services/shadow\shadow.c **** 
 485:C:/Users/stapi/OneDrive/Desktop/GD32VW553/V1_MQTT_OK/GD32VW55X_Wifi_BLE_SDK/GD32VW55x_RELEASE_V1.0.2/MSDK/cloud/alicloud/src/services/shadow\shadow.c ****     if (NULL != pshadow->mutex) {
 1350              		.loc 1 485 5
 1351              		.loc 1 485 24 is_stmt 0
 1352 0034 4840     		lw	a0,4(s0)
 1353              		.loc 1 485 8
 1354 0036 09C5     		beq	a0,zero,.L77
 486:C:/Users/stapi/OneDrive/Desktop/GD32VW553/V1_MQTT_OK/GD32VW55X_Wifi_BLE_SDK/GD32VW55x_RELEASE_V1.0.2/MSDK/cloud/alicloud/src/services/shadow\shadow.c ****         HAL_MutexDestroy(pshadow->mutex);
 1355              		.loc 1 486 9 is_stmt 1
 1356 0038 97000000 		call	HAL_MutexDestroy
 1356      E7800000 
 1357              	.LVL160:
 1358              	.L77:
 487:C:/Users/stapi/OneDrive/Desktop/GD32VW553/V1_MQTT_OK/GD32VW55X_Wifi_BLE_SDK/GD32VW55x_RELEASE_V1.0.2/MSDK/cloud/alicloud/src/services/shadow\shadow.c ****     }
 488:C:/Users/stapi/OneDrive/Desktop/GD32VW553/V1_MQTT_OK/GD32VW55X_Wifi_BLE_SDK/GD32VW55x_RELEASE_V1.0.2/MSDK/cloud/alicloud/src/services/shadow\shadow.c **** 
 489:C:/Users/stapi/OneDrive/Desktop/GD32VW553/V1_MQTT_OK/GD32VW55X_Wifi_BLE_SDK/GD32VW55x_RELEASE_V1.0.2/MSDK/cloud/alicloud/src/services/shadow\shadow.c ****     LITE_free(handle);
 1359              		.loc 1 489 5
 1360 0040 2285     		mv	a0,s0
 1361 0042 97000000 		call	LITE_free_internal
 1361      E7800000 
 1362              	.LVL161:
 490:C:/Users/stapi/OneDrive/Desktop/GD32VW553/V1_MQTT_OK/GD32VW55X_Wifi_BLE_SDK/GD32VW55x_RELEASE_V1.0.2/MSDK/cloud/alicloud/src/services/shadow\shadow.c **** 
 491:C:/Users/stapi/OneDrive/Desktop/GD32VW553/V1_MQTT_OK/GD32VW55X_Wifi_BLE_SDK/GD32VW55x_RELEASE_V1.0.2/MSDK/cloud/alicloud/src/services/shadow\shadow.c ****     return SUCCESS_RETURN;
 1363              		.loc 1 491 5
 492:C:/Users/stapi/OneDrive/Desktop/GD32VW553/V1_MQTT_OK/GD32VW55X_Wifi_BLE_SDK/GD32VW55x_RELEASE_V1.0.2/MSDK/cloud/alicloud/src/services/shadow\shadow.c **** }
 1364              		.loc 1 492 1 is_stmt 0
 1365 004a 0145     		li	a0,0
 1366 004c 17030000 		tail	__riscv_restore_1
 1366      67000300 
 1367              		.cfi_restore 8
 1368              		.cfi_restore 1
 1369              		.cfi_def_cfa_offset 0
 1370              		.cfi_endproc
 1371              	.LFE33:
 1373              		.section	.rodata.IOT_Shadow_Construct.str1.4,"aMS",@progbits,1
 1374              		.align	2
 1375              	.LC41:
 1376 0000 4E6F7420 		.string	"Not enough memory"
 1376      656E6F75 
 1376      6768206D 
 1376      656D6F72 
 1376      7900
 1377 0012 0000     		.align	2
 1378              	.LC42:
 1379 0014 63726561 		.string	"create mutex failed"
 1379      7465206D 
 1379      75746578 
 1379      20666169 
 1379      6C656400 
 1380              		.align	2
 1381              	.LC43:
 1382 0028 636F6E73 		.string	"construct MQTT failed"
 1382      74727563 
 1382      74204D51 
 1382      54542066 
 1382      61696C65 
 1383 003e 0000     		.align	2
 1384              	.LC44:
 1385 0040 73756273 		.string	"subscribe 'get' topic fialed, rc=%d"
 1385      63726962 
 1385      65202767 
 1385      65742720 
 1385      746F7069 
 1386              		.align	2
 1387              	.LC45:
 1388 0064 6E657720 		.string	"new list failed"
 1388      6C697374 
 1388      20666169 
 1388      6C656400 
 1389              		.section	.text.IOT_Shadow_Construct,"ax",@progbits
 1390              		.align	1
 1391              		.globl	IOT_Shadow_Construct
 1393              	IOT_Shadow_Construct:
 1394              	.LFB31:
 390:C:/Users/stapi/OneDrive/Desktop/GD32VW553/V1_MQTT_OK/GD32VW55X_Wifi_BLE_SDK/GD32VW55x_RELEASE_V1.0.2/MSDK/cloud/alicloud/src/services/shadow\shadow.c ****     int rc = 0;
 1395              		.loc 1 390 1 is_stmt 1
 1396              		.cfi_startproc
 1397              	.LVL162:
 1398 0000 17030000 		call	t0,__riscv_save_2
 1398      E7020300 
 1399              		.cfi_offset 9, -12
 1400              		.cfi_offset 8, -8
 1401              		.cfi_offset 1, -4
 1402              		.cfi_def_cfa_offset 16
 391:C:/Users/stapi/OneDrive/Desktop/GD32VW553/V1_MQTT_OK/GD32VW55X_Wifi_BLE_SDK/GD32VW55x_RELEASE_V1.0.2/MSDK/cloud/alicloud/src/services/shadow\shadow.c ****     iotx_shadow_pt pshadow = NULL;
 1403              		.loc 1 391 5
 1404              	.LVL163:
 392:C:/Users/stapi/OneDrive/Desktop/GD32VW553/V1_MQTT_OK/GD32VW55X_Wifi_BLE_SDK/GD32VW55x_RELEASE_V1.0.2/MSDK/cloud/alicloud/src/services/shadow\shadow.c **** 
 1405              		.loc 1 392 5
 395:C:/Users/stapi/OneDrive/Desktop/GD32VW553/V1_MQTT_OK/GD32VW55X_Wifi_BLE_SDK/GD32VW55x_RELEASE_V1.0.2/MSDK/cloud/alicloud/src/services/shadow\shadow.c ****         shadow_err("Not enough memory");
 1406              		.loc 1 395 5
 390:C:/Users/stapi/OneDrive/Desktop/GD32VW553/V1_MQTT_OK/GD32VW55X_Wifi_BLE_SDK/GD32VW55x_RELEASE_V1.0.2/MSDK/cloud/alicloud/src/services/shadow\shadow.c ****     int rc = 0;
 1407              		.loc 1 390 1 is_stmt 0
 1408 0008 4111     		addi	sp,sp,-16
 1409              		.cfi_def_cfa_offset 32
 390:C:/Users/stapi/OneDrive/Desktop/GD32VW553/V1_MQTT_OK/GD32VW55X_Wifi_BLE_SDK/GD32VW55x_RELEASE_V1.0.2/MSDK/cloud/alicloud/src/services/shadow\shadow.c ****     int rc = 0;
 1410              		.loc 1 390 1
 1411 000a AA84     		mv	s1,a0
 395:C:/Users/stapi/OneDrive/Desktop/GD32VW553/V1_MQTT_OK/GD32VW55X_Wifi_BLE_SDK/GD32VW55x_RELEASE_V1.0.2/MSDK/cloud/alicloud/src/services/shadow\shadow.c ****         shadow_err("Not enough memory");
 1412              		.loc 1 395 28
 1413 000c 1306C02F 		li	a2,764
 1414 0010 8145     		li	a1,0
 1415 0012 0145     		li	a0,0
 1416              	.LVL164:
 1417 0014 97000000 		call	LITE_malloc_internal
 1417      E7800000 
 1418              	.LVL165:
 1419 001c 2A84     		mv	s0,a0
 1420              	.LVL166:
 395:C:/Users/stapi/OneDrive/Desktop/GD32VW553/V1_MQTT_OK/GD32VW55X_Wifi_BLE_SDK/GD32VW55x_RELEASE_V1.0.2/MSDK/cloud/alicloud/src/services/shadow\shadow.c ****         shadow_err("Not enough memory");
 1421              		.loc 1 395 8
 1422 001e 1DED     		bne	a0,zero,.L92
 396:C:/Users/stapi/OneDrive/Desktop/GD32VW553/V1_MQTT_OK/GD32VW55X_Wifi_BLE_SDK/GD32VW55x_RELEASE_V1.0.2/MSDK/cloud/alicloud/src/services/shadow\shadow.c ****         return NULL;
 1423              		.loc 1 396 9 is_stmt 1
 396:C:/Users/stapi/OneDrive/Desktop/GD32VW553/V1_MQTT_OK/GD32VW55X_Wifi_BLE_SDK/GD32VW55x_RELEASE_V1.0.2/MSDK/cloud/alicloud/src/services/shadow\shadow.c ****         return NULL;
 1424              		.loc 1 396 9
 1425 0020 37050000 		lui	a0,%hi(.LC11)
 1426 0024 13050500 		addi	a0,a0,%lo(.LC11)
 1427 0028 97000000 		call	HAL_Printf
 1427      E7800000 
 1428              	.LVL167:
 396:C:/Users/stapi/OneDrive/Desktop/GD32VW553/V1_MQTT_OK/GD32VW55X_Wifi_BLE_SDK/GD32VW55x_RELEASE_V1.0.2/MSDK/cloud/alicloud/src/services/shadow\shadow.c ****         return NULL;
 1429              		.loc 1 396 9
 1430 0030 37050000 		lui	a0,%hi(.LC41)
 1431 0034 13050500 		addi	a0,a0,%lo(.LC41)
 1432 0038 97000000 		call	HAL_Printf
 1432      E7800000 
 1433              	.LVL168:
 396:C:/Users/stapi/OneDrive/Desktop/GD32VW553/V1_MQTT_OK/GD32VW55X_Wifi_BLE_SDK/GD32VW55x_RELEASE_V1.0.2/MSDK/cloud/alicloud/src/services/shadow\shadow.c ****         return NULL;
 1434              		.loc 1 396 9
 1435 0040 37050000 		lui	a0,%hi(.LC13)
 1436 0044 13050500 		addi	a0,a0,%lo(.LC13)
 1437 0048 97000000 		call	HAL_Printf
 1437      E7800000 
 1438              	.LVL169:
 396:C:/Users/stapi/OneDrive/Desktop/GD32VW553/V1_MQTT_OK/GD32VW55X_Wifi_BLE_SDK/GD32VW55x_RELEASE_V1.0.2/MSDK/cloud/alicloud/src/services/shadow\shadow.c ****         return NULL;
 1439              		.loc 1 396 9
 397:C:/Users/stapi/OneDrive/Desktop/GD32VW553/V1_MQTT_OK/GD32VW55X_Wifi_BLE_SDK/GD32VW55x_RELEASE_V1.0.2/MSDK/cloud/alicloud/src/services/shadow\shadow.c ****     }
 1440              		.loc 1 397 9
 1441              	.L91:
 446:C:/Users/stapi/OneDrive/Desktop/GD32VW553/V1_MQTT_OK/GD32VW55X_Wifi_BLE_SDK/GD32VW55x_RELEASE_V1.0.2/MSDK/cloud/alicloud/src/services/shadow\shadow.c **** 
 1442              		.loc 1 446 1 is_stmt 0
 1443 0050 2285     		mv	a0,s0
 1444 0052 4101     		addi	sp,sp,16
 1445              		.cfi_remember_state
 1446              		.cfi_def_cfa_offset 0
 1447 0054 17030000 		tail	__riscv_restore_2
 1447      67000300 
 1448              		.cfi_restore 9
 1449              		.cfi_restore 8
 1450              		.cfi_restore 1
 1451              		.cfi_def_cfa_offset -16
 1452              	.LVL170:
 1453              	.L92:
 1454              		.cfi_restore_state
 399:C:/Users/stapi/OneDrive/Desktop/GD32VW553/V1_MQTT_OK/GD32VW55X_Wifi_BLE_SDK/GD32VW55x_RELEASE_V1.0.2/MSDK/cloud/alicloud/src/services/shadow\shadow.c **** 
 1455              		.loc 1 399 5 is_stmt 1
 1456 005c 1306C02F 		li	a2,764
 1457 0060 8145     		li	a1,0
 1458 0062 97000000 		call	memset
 1458      E7800000 
 1459              	.LVL171:
 401:C:/Users/stapi/OneDrive/Desktop/GD32VW553/V1_MQTT_OK/GD32VW55X_Wifi_BLE_SDK/GD32VW55x_RELEASE_V1.0.2/MSDK/cloud/alicloud/src/services/shadow\shadow.c ****         shadow_err("create mutex failed");
 1460              		.loc 1 401 5
 401:C:/Users/stapi/OneDrive/Desktop/GD32VW553/V1_MQTT_OK/GD32VW55X_Wifi_BLE_SDK/GD32VW55x_RELEASE_V1.0.2/MSDK/cloud/alicloud/src/services/shadow\shadow.c ****         shadow_err("create mutex failed");
 1461              		.loc 1 401 35 is_stmt 0
 1462 006a 97000000 		call	HAL_MutexCreate
 1462      E7800000 
 1463              	.LVL172:
 401:C:/Users/stapi/OneDrive/Desktop/GD32VW553/V1_MQTT_OK/GD32VW55X_Wifi_BLE_SDK/GD32VW55x_RELEASE_V1.0.2/MSDK/cloud/alicloud/src/services/shadow\shadow.c ****         shadow_err("create mutex failed");
 1464              		.loc 1 401 33
 1465 0072 48C0     		sw	a0,4(s0)
 401:C:/Users/stapi/OneDrive/Desktop/GD32VW553/V1_MQTT_OK/GD32VW55X_Wifi_BLE_SDK/GD32VW55x_RELEASE_V1.0.2/MSDK/cloud/alicloud/src/services/shadow\shadow.c ****         shadow_err("create mutex failed");
 1466              		.loc 1 401 8
 1467 0074 15E1     		bne	a0,zero,.L94
 402:C:/Users/stapi/OneDrive/Desktop/GD32VW553/V1_MQTT_OK/GD32VW55X_Wifi_BLE_SDK/GD32VW55x_RELEASE_V1.0.2/MSDK/cloud/alicloud/src/services/shadow\shadow.c ****         goto do_exit;
 1468              		.loc 1 402 9 is_stmt 1
 402:C:/Users/stapi/OneDrive/Desktop/GD32VW553/V1_MQTT_OK/GD32VW55X_Wifi_BLE_SDK/GD32VW55x_RELEASE_V1.0.2/MSDK/cloud/alicloud/src/services/shadow\shadow.c ****         goto do_exit;
 1469              		.loc 1 402 9
 1470 0076 37050000 		lui	a0,%hi(.LC11)
 1471 007a 13050500 		addi	a0,a0,%lo(.LC11)
 1472 007e 97000000 		call	HAL_Printf
 1472      E7800000 
 1473              	.LVL173:
 402:C:/Users/stapi/OneDrive/Desktop/GD32VW553/V1_MQTT_OK/GD32VW55X_Wifi_BLE_SDK/GD32VW55x_RELEASE_V1.0.2/MSDK/cloud/alicloud/src/services/shadow\shadow.c ****         goto do_exit;
 1474              		.loc 1 402 9
 1475 0086 37050000 		lui	a0,%hi(.LC42)
 1476 008a 13050500 		addi	a0,a0,%lo(.LC42)
 1477              	.LVL174:
 1478              	.L103:
 436:C:/Users/stapi/OneDrive/Desktop/GD32VW553/V1_MQTT_OK/GD32VW55X_Wifi_BLE_SDK/GD32VW55x_RELEASE_V1.0.2/MSDK/cloud/alicloud/src/services/shadow\shadow.c ****         goto do_exit;
 1479              		.loc 1 436 9 is_stmt 0
 1480 008e 97000000 		call	HAL_Printf
 1480      E7800000 
 1481              	.LVL175:
 1482 0096 41A0     		j	.L104
 1483              	.LVL176:
 1484              	.L94:
 406:C:/Users/stapi/OneDrive/Desktop/GD32VW553/V1_MQTT_OK/GD32VW55X_Wifi_BLE_SDK/GD32VW55x_RELEASE_V1.0.2/MSDK/cloud/alicloud/src/services/shadow\shadow.c ****     pparams->mqtt.handle_event.pcontext = pshadow;
 1485              		.loc 1 406 5 is_stmt 1
 406:C:/Users/stapi/OneDrive/Desktop/GD32VW553/V1_MQTT_OK/GD32VW55X_Wifi_BLE_SDK/GD32VW55x_RELEASE_V1.0.2/MSDK/cloud/alicloud/src/services/shadow\shadow.c ****     pparams->mqtt.handle_event.pcontext = pshadow;
 1486              		.loc 1 406 37 is_stmt 0
 1487 0098 B7070000 		lui	a5,%hi(iotx_ds_event_handle)
 1488 009c 93870700 		addi	a5,a5,%lo(iotx_ds_event_handle)
 1489 00a0 DCD4     		sw	a5,44(s1)
 407:C:/Users/stapi/OneDrive/Desktop/GD32VW553/V1_MQTT_OK/GD32VW55X_Wifi_BLE_SDK/GD32VW55x_RELEASE_V1.0.2/MSDK/cloud/alicloud/src/services/shadow\shadow.c **** 
 1490              		.loc 1 407 5 is_stmt 1
 407:C:/Users/stapi/OneDrive/Desktop/GD32VW553/V1_MQTT_OK/GD32VW55X_Wifi_BLE_SDK/GD32VW55x_RELEASE_V1.0.2/MSDK/cloud/alicloud/src/services/shadow\shadow.c **** 
 1491              		.loc 1 407 41 is_stmt 0
 1492 00a2 80D8     		sw	s0,48(s1)
 410:C:/Users/stapi/OneDrive/Desktop/GD32VW553/V1_MQTT_OK/GD32VW55X_Wifi_BLE_SDK/GD32VW55x_RELEASE_V1.0.2/MSDK/cloud/alicloud/src/services/shadow\shadow.c ****         shadow_err("construct MQTT failed");
 1493              		.loc 1 410 5 is_stmt 1
 410:C:/Users/stapi/OneDrive/Desktop/GD32VW553/V1_MQTT_OK/GD32VW55X_Wifi_BLE_SDK/GD32VW55x_RELEASE_V1.0.2/MSDK/cloud/alicloud/src/services/shadow\shadow.c ****         shadow_err("construct MQTT failed");
 1494              		.loc 1 410 34 is_stmt 0
 1495 00a4 2685     		mv	a0,s1
 1496 00a6 97000000 		call	IOT_MQTT_Construct
 1496      E7800000 
 1497              	.LVL177:
 410:C:/Users/stapi/OneDrive/Desktop/GD32VW553/V1_MQTT_OK/GD32VW55X_Wifi_BLE_SDK/GD32VW55x_RELEASE_V1.0.2/MSDK/cloud/alicloud/src/services/shadow\shadow.c ****         shadow_err("construct MQTT failed");
 1498              		.loc 1 410 32
 1499 00ae 08C0     		sw	a0,0(s0)
 410:C:/Users/stapi/OneDrive/Desktop/GD32VW553/V1_MQTT_OK/GD32VW55X_Wifi_BLE_SDK/GD32VW55x_RELEASE_V1.0.2/MSDK/cloud/alicloud/src/services/shadow\shadow.c ****         shadow_err("construct MQTT failed");
 1500              		.loc 1 410 8
 1501 00b0 11ED     		bne	a0,zero,.L96
 411:C:/Users/stapi/OneDrive/Desktop/GD32VW553/V1_MQTT_OK/GD32VW55X_Wifi_BLE_SDK/GD32VW55x_RELEASE_V1.0.2/MSDK/cloud/alicloud/src/services/shadow\shadow.c ****         goto do_exit;
 1502              		.loc 1 411 9 is_stmt 1
 411:C:/Users/stapi/OneDrive/Desktop/GD32VW553/V1_MQTT_OK/GD32VW55X_Wifi_BLE_SDK/GD32VW55x_RELEASE_V1.0.2/MSDK/cloud/alicloud/src/services/shadow\shadow.c ****         goto do_exit;
 1503              		.loc 1 411 9
 1504 00b2 37050000 		lui	a0,%hi(.LC11)
 1505 00b6 13050500 		addi	a0,a0,%lo(.LC11)
 1506 00ba 97000000 		call	HAL_Printf
 1506      E7800000 
 1507              	.LVL178:
 411:C:/Users/stapi/OneDrive/Desktop/GD32VW553/V1_MQTT_OK/GD32VW55X_Wifi_BLE_SDK/GD32VW55x_RELEASE_V1.0.2/MSDK/cloud/alicloud/src/services/shadow\shadow.c ****         goto do_exit;
 1508              		.loc 1 411 9
 1509 00c2 37050000 		lui	a0,%hi(.LC43)
 1510 00c6 13050500 		addi	a0,a0,%lo(.LC43)
 1511 00ca D1B7     		j	.L103
 1512              	.L96:
 415:C:/Users/stapi/OneDrive/Desktop/GD32VW553/V1_MQTT_OK/GD32VW55X_Wifi_BLE_SDK/GD32VW55x_RELEASE_V1.0.2/MSDK/cloud/alicloud/src/services/shadow\shadow.c ****     if (rc < 0) {
 1513              		.loc 1 415 5
 1514              	.LVL179:
 1515              	.LBB24:
 1516              	.LBB25:
 111:C:/Users/stapi/OneDrive/Desktop/GD32VW553/V1_MQTT_OK/GD32VW55X_Wifi_BLE_SDK/GD32VW55x_RELEASE_V1.0.2/MSDK/cloud/alicloud/src/services/shadow\shadow.c ****         pshadow->inner_data.ptopic_get = iotx_ds_common_generate_topic_name(pshadow, "get");
 1517              		.loc 1 111 5
 111:C:/Users/stapi/OneDrive/Desktop/GD32VW553/V1_MQTT_OK/GD32VW55X_Wifi_BLE_SDK/GD32VW55x_RELEASE_V1.0.2/MSDK/cloud/alicloud/src/services/shadow\shadow.c ****         pshadow->inner_data.ptopic_get = iotx_ds_common_generate_topic_name(pshadow, "get");
 1518              		.loc 1 111 8 is_stmt 0
 1519 00cc 8327042F 		lw	a5,752(s0)
 1520 00d0 B5C3     		beq	a5,zero,.L97
 1521              	.L100:
 119:C:/Users/stapi/OneDrive/Desktop/GD32VW553/V1_MQTT_OK/GD32VW55X_Wifi_BLE_SDK/GD32VW55x_RELEASE_V1.0.2/MSDK/cloud/alicloud/src/services/shadow\shadow.c ****                               pshadow->inner_data.ptopic_get,
 1522              		.loc 1 119 5 is_stmt 1
 119:C:/Users/stapi/OneDrive/Desktop/GD32VW553/V1_MQTT_OK/GD32VW55X_Wifi_BLE_SDK/GD32VW55x_RELEASE_V1.0.2/MSDK/cloud/alicloud/src/services/shadow\shadow.c ****                               pshadow->inner_data.ptopic_get,
 1523              		.loc 1 119 12 is_stmt 0
 1524 00d2 8325042F 		lw	a1,752(s0)
 1525 00d6 0840     		lw	a0,0(s0)
 1526 00d8 B7060000 		lui	a3,%hi(iotx_shadow_callback_get)
 1527 00dc 2287     		mv	a4,s0
 1528 00de 93860600 		addi	a3,a3,%lo(iotx_shadow_callback_get)
 1529 00e2 0D46     		li	a2,3
 1530 00e4 97000000 		call	IOT_MQTT_Subscribe
 1530      E7800000 
 1531              	.LVL180:
 1532 00ec AA85     		mv	a1,a0
 1533              	.LVL181:
 1534              	.LBE25:
 1535              	.LBE24:
 416:C:/Users/stapi/OneDrive/Desktop/GD32VW553/V1_MQTT_OK/GD32VW55X_Wifi_BLE_SDK/GD32VW55x_RELEASE_V1.0.2/MSDK/cloud/alicloud/src/services/shadow\shadow.c ****         shadow_err("subscribe 'get' topic fialed, rc=%d", rc);
 1536              		.loc 1 416 5 is_stmt 1
 416:C:/Users/stapi/OneDrive/Desktop/GD32VW553/V1_MQTT_OK/GD32VW55X_Wifi_BLE_SDK/GD32VW55x_RELEASE_V1.0.2/MSDK/cloud/alicloud/src/services/shadow\shadow.c ****         shadow_err("subscribe 'get' topic fialed, rc=%d", rc);
 1537              		.loc 1 416 8 is_stmt 0
 1538 00ee 63510506 		bge	a0,zero,.L101
 1539              	.LVL182:
 1540              	.L98:
 417:C:/Users/stapi/OneDrive/Desktop/GD32VW553/V1_MQTT_OK/GD32VW55X_Wifi_BLE_SDK/GD32VW55x_RELEASE_V1.0.2/MSDK/cloud/alicloud/src/services/shadow\shadow.c ****         goto do_exit;
 1541              		.loc 1 417 9
 1542 00f2 37050000 		lui	a0,%hi(.LC11)
 1543 00f6 13050500 		addi	a0,a0,%lo(.LC11)
 1544 00fa 2EC6     		sw	a1,12(sp)
 417:C:/Users/stapi/OneDrive/Desktop/GD32VW553/V1_MQTT_OK/GD32VW55X_Wifi_BLE_SDK/GD32VW55x_RELEASE_V1.0.2/MSDK/cloud/alicloud/src/services/shadow\shadow.c ****         goto do_exit;
 1545              		.loc 1 417 9 is_stmt 1
 417:C:/Users/stapi/OneDrive/Desktop/GD32VW553/V1_MQTT_OK/GD32VW55X_Wifi_BLE_SDK/GD32VW55x_RELEASE_V1.0.2/MSDK/cloud/alicloud/src/services/shadow\shadow.c ****         goto do_exit;
 1546              		.loc 1 417 9
 1547 00fc 97000000 		call	HAL_Printf
 1547      E7800000 
 1548              	.LVL183:
 417:C:/Users/stapi/OneDrive/Desktop/GD32VW553/V1_MQTT_OK/GD32VW55X_Wifi_BLE_SDK/GD32VW55x_RELEASE_V1.0.2/MSDK/cloud/alicloud/src/services/shadow\shadow.c ****         goto do_exit;
 1549              		.loc 1 417 9
 1550 0104 B245     		lw	a1,12(sp)
 1551 0106 37050000 		lui	a0,%hi(.LC44)
 1552 010a 13050500 		addi	a0,a0,%lo(.LC44)
 1553 010e 97000000 		call	HAL_Printf
 1553      E7800000 
 1554              	.LVL184:
 417:C:/Users/stapi/OneDrive/Desktop/GD32VW553/V1_MQTT_OK/GD32VW55X_Wifi_BLE_SDK/GD32VW55x_RELEASE_V1.0.2/MSDK/cloud/alicloud/src/services/shadow\shadow.c ****         goto do_exit;
 1555              		.loc 1 417 9
 1556              	.L104:
 1557              	.L95:
 436:C:/Users/stapi/OneDrive/Desktop/GD32VW553/V1_MQTT_OK/GD32VW55X_Wifi_BLE_SDK/GD32VW55x_RELEASE_V1.0.2/MSDK/cloud/alicloud/src/services/shadow\shadow.c ****         goto do_exit;
 1558              		.loc 1 436 9
 1559 0116 37050000 		lui	a0,%hi(.LC13)
 1560 011a 13050500 		addi	a0,a0,%lo(.LC13)
 1561 011e 97000000 		call	HAL_Printf
 1561      E7800000 
 1562              	.LVL185:
 436:C:/Users/stapi/OneDrive/Desktop/GD32VW553/V1_MQTT_OK/GD32VW55X_Wifi_BLE_SDK/GD32VW55x_RELEASE_V1.0.2/MSDK/cloud/alicloud/src/services/shadow\shadow.c ****         goto do_exit;
 1563              		.loc 1 436 9
 437:C:/Users/stapi/OneDrive/Desktop/GD32VW553/V1_MQTT_OK/GD32VW55X_Wifi_BLE_SDK/GD32VW55x_RELEASE_V1.0.2/MSDK/cloud/alicloud/src/services/shadow\shadow.c ****     }
 1564              		.loc 1 437 9
 443:C:/Users/stapi/OneDrive/Desktop/GD32VW553/V1_MQTT_OK/GD32VW55X_Wifi_BLE_SDK/GD32VW55x_RELEASE_V1.0.2/MSDK/cloud/alicloud/src/services/shadow\shadow.c **** 
 1565              		.loc 1 443 5
 1566 0126 2285     		mv	a0,s0
 1567 0128 97000000 		call	IOT_Shadow_Destroy
 1567      E7800000 
 1568              	.LVL186:
 445:C:/Users/stapi/OneDrive/Desktop/GD32VW553/V1_MQTT_OK/GD32VW55X_Wifi_BLE_SDK/GD32VW55x_RELEASE_V1.0.2/MSDK/cloud/alicloud/src/services/shadow\shadow.c **** }
 1569              		.loc 1 445 5
 445:C:/Users/stapi/OneDrive/Desktop/GD32VW553/V1_MQTT_OK/GD32VW55X_Wifi_BLE_SDK/GD32VW55x_RELEASE_V1.0.2/MSDK/cloud/alicloud/src/services/shadow\shadow.c **** }
 1570              		.loc 1 445 12 is_stmt 0
 1571 0130 0144     		li	s0,0
 1572              	.LVL187:
 1573 0132 39BF     		j	.L91
 1574              	.LVL188:
 1575              	.L97:
 1576              	.LBB27:
 1577              	.LBB26:
 112:C:/Users/stapi/OneDrive/Desktop/GD32VW553/V1_MQTT_OK/GD32VW55X_Wifi_BLE_SDK/GD32VW55x_RELEASE_V1.0.2/MSDK/cloud/alicloud/src/services/shadow\shadow.c ****         if (NULL == pshadow->inner_data.ptopic_get) {
 1578              		.loc 1 112 9 is_stmt 1
 112:C:/Users/stapi/OneDrive/Desktop/GD32VW553/V1_MQTT_OK/GD32VW55X_Wifi_BLE_SDK/GD32VW55x_RELEASE_V1.0.2/MSDK/cloud/alicloud/src/services/shadow\shadow.c ****         if (NULL == pshadow->inner_data.ptopic_get) {
 1579              		.loc 1 112 42 is_stmt 0
 1580 0134 B7050000 		lui	a1,%hi(.LC38)
 1581 0138 93850500 		addi	a1,a1,%lo(.LC38)
 1582 013c 2285     		mv	a0,s0
 1583 013e 97000000 		call	iotx_ds_common_generate_topic_name
 1583      E7800000 
 1584              	.LVL189:
 112:C:/Users/stapi/OneDrive/Desktop/GD32VW553/V1_MQTT_OK/GD32VW55X_Wifi_BLE_SDK/GD32VW55x_RELEASE_V1.0.2/MSDK/cloud/alicloud/src/services/shadow\shadow.c ****         if (NULL == pshadow->inner_data.ptopic_get) {
 1585              		.loc 1 112 40
 1586 0146 2328A42E 		sw	a0,752(s0)
 113:C:/Users/stapi/OneDrive/Desktop/GD32VW553/V1_MQTT_OK/GD32VW55X_Wifi_BLE_SDK/GD32VW55x_RELEASE_V1.0.2/MSDK/cloud/alicloud/src/services/shadow\shadow.c ****             return FAIL_RETURN;
 1587              		.loc 1 113 9 is_stmt 1
 113:C:/Users/stapi/OneDrive/Desktop/GD32VW553/V1_MQTT_OK/GD32VW55X_Wifi_BLE_SDK/GD32VW55x_RELEASE_V1.0.2/MSDK/cloud/alicloud/src/services/shadow\shadow.c ****             return FAIL_RETURN;
 1588              		.loc 1 113 12 is_stmt 0
 1589 014a 41F5     		bne	a0,zero,.L100
 114:C:/Users/stapi/OneDrive/Desktop/GD32VW553/V1_MQTT_OK/GD32VW55X_Wifi_BLE_SDK/GD32VW55x_RELEASE_V1.0.2/MSDK/cloud/alicloud/src/services/shadow\shadow.c ****         }
 1590              		.loc 1 114 20
 1591 014c FD55     		li	a1,-1
 1592 014e 55B7     		j	.L98
 1593              	.LVL190:
 1594              	.L101:
 1595              	.LBE26:
 1596              	.LBE27:
 421:C:/Users/stapi/OneDrive/Desktop/GD32VW553/V1_MQTT_OK/GD32VW55X_Wifi_BLE_SDK/GD32VW55x_RELEASE_V1.0.2/MSDK/cloud/alicloud/src/services/shadow\shadow.c **** 
 1597              		.loc 1 421 5 is_stmt 1
 421:C:/Users/stapi/OneDrive/Desktop/GD32VW553/V1_MQTT_OK/GD32VW55X_Wifi_BLE_SDK/GD32VW55x_RELEASE_V1.0.2/MSDK/cloud/alicloud/src/services/shadow\shadow.c **** 
 1598              		.loc 1 421 37 is_stmt 0
 1599 0150 232AA42E 		sw	a0,756(s0)
 434:C:/Users/stapi/OneDrive/Desktop/GD32VW553/V1_MQTT_OK/GD32VW55X_Wifi_BLE_SDK/GD32VW55x_RELEASE_V1.0.2/MSDK/cloud/alicloud/src/services/shadow\shadow.c ****     if (NULL == pshadow->inner_data.attr_list) {
 1600              		.loc 1 434 5 is_stmt 1
 434:C:/Users/stapi/OneDrive/Desktop/GD32VW553/V1_MQTT_OK/GD32VW55X_Wifi_BLE_SDK/GD32VW55x_RELEASE_V1.0.2/MSDK/cloud/alicloud/src/services/shadow\shadow.c ****     if (NULL == pshadow->inner_data.attr_list) {
 1601              		.loc 1 434 37 is_stmt 0
 1602 0154 97000000 		call	list_new
 1602      E7800000 
 1603              	.LVL191:
 434:C:/Users/stapi/OneDrive/Desktop/GD32VW553/V1_MQTT_OK/GD32VW55X_Wifi_BLE_SDK/GD32VW55x_RELEASE_V1.0.2/MSDK/cloud/alicloud/src/services/shadow\shadow.c ****     if (NULL == pshadow->inner_data.attr_list) {
 1604              		.loc 1 434 35
 1605 015c 2324A42E 		sw	a0,744(s0)
 435:C:/Users/stapi/OneDrive/Desktop/GD32VW553/V1_MQTT_OK/GD32VW55X_Wifi_BLE_SDK/GD32VW55x_RELEASE_V1.0.2/MSDK/cloud/alicloud/src/services/shadow\shadow.c ****         shadow_err("new list failed");
 1606              		.loc 1 435 5 is_stmt 1
 435:C:/Users/stapi/OneDrive/Desktop/GD32VW553/V1_MQTT_OK/GD32VW55X_Wifi_BLE_SDK/GD32VW55x_RELEASE_V1.0.2/MSDK/cloud/alicloud/src/services/shadow\shadow.c ****         shadow_err("new list failed");
 1607              		.loc 1 435 8 is_stmt 0
 1608 0160 E31805EE 		bne	a0,zero,.L91
 436:C:/Users/stapi/OneDrive/Desktop/GD32VW553/V1_MQTT_OK/GD32VW55X_Wifi_BLE_SDK/GD32VW55x_RELEASE_V1.0.2/MSDK/cloud/alicloud/src/services/shadow\shadow.c ****         goto do_exit;
 1609              		.loc 1 436 9 is_stmt 1
 436:C:/Users/stapi/OneDrive/Desktop/GD32VW553/V1_MQTT_OK/GD32VW55X_Wifi_BLE_SDK/GD32VW55x_RELEASE_V1.0.2/MSDK/cloud/alicloud/src/services/shadow\shadow.c ****         goto do_exit;
 1610              		.loc 1 436 9
 1611 0164 37050000 		lui	a0,%hi(.LC11)
 1612 0168 13050500 		addi	a0,a0,%lo(.LC11)
 1613 016c 97000000 		call	HAL_Printf
 1613      E7800000 
 1614              	.LVL192:
 436:C:/Users/stapi/OneDrive/Desktop/GD32VW553/V1_MQTT_OK/GD32VW55X_Wifi_BLE_SDK/GD32VW55x_RELEASE_V1.0.2/MSDK/cloud/alicloud/src/services/shadow\shadow.c ****         goto do_exit;
 1615              		.loc 1 436 9
 1616 0174 37050000 		lui	a0,%hi(.LC45)
 1617 0178 13050500 		addi	a0,a0,%lo(.LC45)
 1618 017c 09BF     		j	.L103
 1619              		.cfi_endproc
 1620              	.LFE31:
 1622              		.section	.rodata.IOT_Shadow_RegisterAttribute.str1.4,"aMS",@progbits,1
 1623              		.align	2
 1624              	.LC46:
 1625 0000 44657669 		.string	"Device Shadow registered pattr_name \"%s\"."
 1625      63652053 
 1625      6861646F 
 1625      77207265 
 1625      67697374 
 1626              		.section	.text.IOT_Shadow_RegisterAttribute,"ax",@progbits
 1627              		.align	1
 1628              		.globl	IOT_Shadow_RegisterAttribute
 1630              	IOT_Shadow_RegisterAttribute:
 1631              	.LFB34:
 493:C:/Users/stapi/OneDrive/Desktop/GD32VW553/V1_MQTT_OK/GD32VW55X_Wifi_BLE_SDK/GD32VW55x_RELEASE_V1.0.2/MSDK/cloud/alicloud/src/services/shadow\shadow.c **** 
 494:C:/Users/stapi/OneDrive/Desktop/GD32VW553/V1_MQTT_OK/GD32VW55X_Wifi_BLE_SDK/GD32VW55x_RELEASE_V1.0.2/MSDK/cloud/alicloud/src/services/shadow\shadow.c **** 
 495:C:/Users/stapi/OneDrive/Desktop/GD32VW553/V1_MQTT_OK/GD32VW55X_Wifi_BLE_SDK/GD32VW55x_RELEASE_V1.0.2/MSDK/cloud/alicloud/src/services/shadow\shadow.c **** iotx_err_t IOT_Shadow_RegisterAttribute(void *handle, iotx_shadow_attr_pt pattr)
 496:C:/Users/stapi/OneDrive/Desktop/GD32VW553/V1_MQTT_OK/GD32VW55X_Wifi_BLE_SDK/GD32VW55x_RELEASE_V1.0.2/MSDK/cloud/alicloud/src/services/shadow\shadow.c **** {
 1632              		.loc 1 496 1
 1633              		.cfi_startproc
 1634              	.LVL193:
 1635 0000 17030000 		call	t0,__riscv_save_2
 1635      E7020300 
 1636              		.cfi_offset 9, -12
 1637              		.cfi_offset 8, -8
 1638              		.cfi_offset 1, -4
 1639              		.cfi_def_cfa_offset 16
 497:C:/Users/stapi/OneDrive/Desktop/GD32VW553/V1_MQTT_OK/GD32VW55X_Wifi_BLE_SDK/GD32VW55x_RELEASE_V1.0.2/MSDK/cloud/alicloud/src/services/shadow\shadow.c ****     /* check if already registered */
 498:C:/Users/stapi/OneDrive/Desktop/GD32VW553/V1_MQTT_OK/GD32VW55X_Wifi_BLE_SDK/GD32VW55x_RELEASE_V1.0.2/MSDK/cloud/alicloud/src/services/shadow\shadow.c ****     if (iotx_ds_common_check_attr_existence((iotx_shadow_pt)handle, pattr)) {
 1640              		.loc 1 498 5
 496:C:/Users/stapi/OneDrive/Desktop/GD32VW553/V1_MQTT_OK/GD32VW55X_Wifi_BLE_SDK/GD32VW55x_RELEASE_V1.0.2/MSDK/cloud/alicloud/src/services/shadow\shadow.c ****     /* check if already registered */
 1641              		.loc 1 496 1 is_stmt 0
 1642 0008 2A84     		mv	s0,a0
 1643 000a AE84     		mv	s1,a1
 1644              		.loc 1 498 9
 1645 000c 97000000 		call	iotx_ds_common_check_attr_existence
 1645      E7800000 
 1646              	.LVL194:
 1647              		.loc 1 498 8
 1648 0014 39E5     		bne	a0,zero,.L107
 499:C:/Users/stapi/OneDrive/Desktop/GD32VW553/V1_MQTT_OK/GD32VW55X_Wifi_BLE_SDK/GD32VW55x_RELEASE_V1.0.2/MSDK/cloud/alicloud/src/services/shadow\shadow.c ****         return ERROR_SHADOW_ATTR_EXIST;
 500:C:/Users/stapi/OneDrive/Desktop/GD32VW553/V1_MQTT_OK/GD32VW55X_Wifi_BLE_SDK/GD32VW55x_RELEASE_V1.0.2/MSDK/cloud/alicloud/src/services/shadow\shadow.c ****     }
 501:C:/Users/stapi/OneDrive/Desktop/GD32VW553/V1_MQTT_OK/GD32VW55X_Wifi_BLE_SDK/GD32VW55x_RELEASE_V1.0.2/MSDK/cloud/alicloud/src/services/shadow\shadow.c **** 
 502:C:/Users/stapi/OneDrive/Desktop/GD32VW553/V1_MQTT_OK/GD32VW55X_Wifi_BLE_SDK/GD32VW55x_RELEASE_V1.0.2/MSDK/cloud/alicloud/src/services/shadow\shadow.c ****     if (SUCCESS_RETURN != iotx_ds_common_register_attr((iotx_shadow_pt)handle, pattr)) {
 1649              		.loc 1 502 5 is_stmt 1
 1650              		.loc 1 502 27 is_stmt 0
 1651 0016 2285     		mv	a0,s0
 1652 0018 A685     		mv	a1,s1
 1653 001a 97000000 		call	iotx_ds_common_register_attr
 1653      E7800000 
 1654              	.LVL195:
 1655 0022 2A84     		mv	s0,a0
 1656              	.LVL196:
 1657              		.loc 1 502 8
 1658 0024 31E1     		bne	a0,zero,.L108
 503:C:/Users/stapi/OneDrive/Desktop/GD32VW553/V1_MQTT_OK/GD32VW55X_Wifi_BLE_SDK/GD32VW55x_RELEASE_V1.0.2/MSDK/cloud/alicloud/src/services/shadow\shadow.c ****         return FAIL_RETURN;
 504:C:/Users/stapi/OneDrive/Desktop/GD32VW553/V1_MQTT_OK/GD32VW55X_Wifi_BLE_SDK/GD32VW55x_RELEASE_V1.0.2/MSDK/cloud/alicloud/src/services/shadow\shadow.c ****     }
 505:C:/Users/stapi/OneDrive/Desktop/GD32VW553/V1_MQTT_OK/GD32VW55X_Wifi_BLE_SDK/GD32VW55x_RELEASE_V1.0.2/MSDK/cloud/alicloud/src/services/shadow\shadow.c **** 
 506:C:/Users/stapi/OneDrive/Desktop/GD32VW553/V1_MQTT_OK/GD32VW55X_Wifi_BLE_SDK/GD32VW55x_RELEASE_V1.0.2/MSDK/cloud/alicloud/src/services/shadow\shadow.c ****     shadow_info("Device Shadow registered pattr_name \"%s\".", pattr->pattr_name);
 1659              		.loc 1 506 5 is_stmt 1
 1660              		.loc 1 506 5
 1661 0026 37050000 		lui	a0,%hi(.LC32)
 1662 002a 13050500 		addi	a0,a0,%lo(.LC32)
 1663 002e 97000000 		call	HAL_Printf
 1663      E7800000 
 1664              	.LVL197:
 1665              		.loc 1 506 5
 1666 0036 CC40     		lw	a1,4(s1)
 1667 0038 37050000 		lui	a0,%hi(.LC46)
 1668 003c 13050500 		addi	a0,a0,%lo(.LC46)
 1669 0040 97000000 		call	HAL_Printf
 1669      E7800000 
 1670              	.LVL198:
 1671              		.loc 1 506 5
 1672 0048 37050000 		lui	a0,%hi(.LC13)
 1673 004c 13050500 		addi	a0,a0,%lo(.LC13)
 1674 0050 97000000 		call	HAL_Printf
 1674      E7800000 
 1675              	.LVL199:
 1676              		.loc 1 506 5
 507:C:/Users/stapi/OneDrive/Desktop/GD32VW553/V1_MQTT_OK/GD32VW55X_Wifi_BLE_SDK/GD32VW55x_RELEASE_V1.0.2/MSDK/cloud/alicloud/src/services/shadow\shadow.c **** 
 508:C:/Users/stapi/OneDrive/Desktop/GD32VW553/V1_MQTT_OK/GD32VW55X_Wifi_BLE_SDK/GD32VW55x_RELEASE_V1.0.2/MSDK/cloud/alicloud/src/services/shadow\shadow.c ****     return SUCCESS_RETURN;
 1677              		.loc 1 508 5
 1678              	.L105:
 509:C:/Users/stapi/OneDrive/Desktop/GD32VW553/V1_MQTT_OK/GD32VW55X_Wifi_BLE_SDK/GD32VW55x_RELEASE_V1.0.2/MSDK/cloud/alicloud/src/services/shadow\shadow.c **** }
 1679              		.loc 1 509 1 is_stmt 0
 1680 0058 2285     		mv	a0,s0
 1681 005a 17030000 		tail	__riscv_restore_2
 1681      67000300 
 1682              		.cfi_remember_state
 1683              		.cfi_restore 9
 1684              		.cfi_restore 8
 1685              		.cfi_restore 1
 1686              		.cfi_def_cfa_offset 0
 1687              	.LVL200:
 1688              	.L107:
 1689              		.cfi_restore_state
 499:C:/Users/stapi/OneDrive/Desktop/GD32VW553/V1_MQTT_OK/GD32VW55X_Wifi_BLE_SDK/GD32VW55x_RELEASE_V1.0.2/MSDK/cloud/alicloud/src/services/shadow\shadow.c ****     }
 1690              		.loc 1 499 16
 1691 0062 1304E082 		li	s0,-2002
 1692              	.LVL201:
 1693 0066 CDBF     		j	.L105
 1694              	.L108:
 503:C:/Users/stapi/OneDrive/Desktop/GD32VW553/V1_MQTT_OK/GD32VW55X_Wifi_BLE_SDK/GD32VW55x_RELEASE_V1.0.2/MSDK/cloud/alicloud/src/services/shadow\shadow.c ****     }
 1695              		.loc 1 503 16
 1696 0068 7D54     		li	s0,-1
 1697 006a FDB7     		j	.L105
 1698              		.cfi_endproc
 1699              	.LFE34:
 1701              		.section	.rodata.IOT_Shadow_DeleteAttribute.str1.4,"aMS",@progbits,1
 1702              		.align	2
 1703              	.LC47:
 1704 0000 2C227374 		.string	",\"state\":{\"reported\":{"
 1704      61746522 
 1704      3A7B2272 
 1704      65706F72 
 1704      74656422 
 1705 0017 00       		.align	2
 1706              	.LC48:
 1707 0018 64656C65 		.string	"delete"
 1707      746500
 1708              		.section	.text.IOT_Shadow_DeleteAttribute,"ax",@progbits
 1709              		.align	1
 1710              		.globl	IOT_Shadow_DeleteAttribute
 1712              	IOT_Shadow_DeleteAttribute:
 1713              	.LFB35:
 510:C:/Users/stapi/OneDrive/Desktop/GD32VW553/V1_MQTT_OK/GD32VW55X_Wifi_BLE_SDK/GD32VW55x_RELEASE_V1.0.2/MSDK/cloud/alicloud/src/services/shadow\shadow.c **** 
 511:C:/Users/stapi/OneDrive/Desktop/GD32VW553/V1_MQTT_OK/GD32VW55X_Wifi_BLE_SDK/GD32VW55x_RELEASE_V1.0.2/MSDK/cloud/alicloud/src/services/shadow\shadow.c **** 
 512:C:/Users/stapi/OneDrive/Desktop/GD32VW553/V1_MQTT_OK/GD32VW55X_Wifi_BLE_SDK/GD32VW55x_RELEASE_V1.0.2/MSDK/cloud/alicloud/src/services/shadow\shadow.c **** /* Remove attribute from Device Shadow in cloud by delete method. */
 513:C:/Users/stapi/OneDrive/Desktop/GD32VW553/V1_MQTT_OK/GD32VW55X_Wifi_BLE_SDK/GD32VW55x_RELEASE_V1.0.2/MSDK/cloud/alicloud/src/services/shadow\shadow.c **** iotx_err_t IOT_Shadow_DeleteAttribute(void *handle, iotx_shadow_attr_pt pattr)
 514:C:/Users/stapi/OneDrive/Desktop/GD32VW553/V1_MQTT_OK/GD32VW55X_Wifi_BLE_SDK/GD32VW55x_RELEASE_V1.0.2/MSDK/cloud/alicloud/src/services/shadow\shadow.c **** {
 1714              		.loc 1 514 1 is_stmt 1
 1715              		.cfi_startproc
 1716              	.LVL202:
 1717 0000 17030000 		call	t0,__riscv_save_4
 1717      E7020300 
 1718              		.cfi_offset 19, -20
 1719              		.cfi_offset 18, -16
 1720              		.cfi_offset 9, -12
 1721              		.cfi_offset 8, -8
 1722              		.cfi_offset 1, -4
 1723              		.cfi_def_cfa_offset 32
 515:C:/Users/stapi/OneDrive/Desktop/GD32VW553/V1_MQTT_OK/GD32VW55X_Wifi_BLE_SDK/GD32VW55x_RELEASE_V1.0.2/MSDK/cloud/alicloud/src/services/shadow\shadow.c **** #define SHADOW_DELETE_MSG_SIZE      (256)
 516:C:/Users/stapi/OneDrive/Desktop/GD32VW553/V1_MQTT_OK/GD32VW55X_Wifi_BLE_SDK/GD32VW55x_RELEASE_V1.0.2/MSDK/cloud/alicloud/src/services/shadow\shadow.c **** 
 517:C:/Users/stapi/OneDrive/Desktop/GD32VW553/V1_MQTT_OK/GD32VW55X_Wifi_BLE_SDK/GD32VW55x_RELEASE_V1.0.2/MSDK/cloud/alicloud/src/services/shadow\shadow.c ****     iotx_err_t ret;
 1724              		.loc 1 517 5
 518:C:/Users/stapi/OneDrive/Desktop/GD32VW553/V1_MQTT_OK/GD32VW55X_Wifi_BLE_SDK/GD32VW55x_RELEASE_V1.0.2/MSDK/cloud/alicloud/src/services/shadow\shadow.c ****     void *buf;
 1725              		.loc 1 518 5
 519:C:/Users/stapi/OneDrive/Desktop/GD32VW553/V1_MQTT_OK/GD32VW55X_Wifi_BLE_SDK/GD32VW55x_RELEASE_V1.0.2/MSDK/cloud/alicloud/src/services/shadow\shadow.c ****     format_data_t format;
 1726              		.loc 1 519 5
 520:C:/Users/stapi/OneDrive/Desktop/GD32VW553/V1_MQTT_OK/GD32VW55X_Wifi_BLE_SDK/GD32VW55x_RELEASE_V1.0.2/MSDK/cloud/alicloud/src/services/shadow\shadow.c ****     iotx_shadow_pt pshadow = (iotx_shadow_pt) handle;
 1727              		.loc 1 520 5
 514:C:/Users/stapi/OneDrive/Desktop/GD32VW553/V1_MQTT_OK/GD32VW55X_Wifi_BLE_SDK/GD32VW55x_RELEASE_V1.0.2/MSDK/cloud/alicloud/src/services/shadow\shadow.c **** #define SHADOW_DELETE_MSG_SIZE      (256)
 1728              		.loc 1 514 1 is_stmt 0
 1729 0008 4111     		addi	sp,sp,-16
 1730              		.cfi_def_cfa_offset 48
 514:C:/Users/stapi/OneDrive/Desktop/GD32VW553/V1_MQTT_OK/GD32VW55X_Wifi_BLE_SDK/GD32VW55x_RELEASE_V1.0.2/MSDK/cloud/alicloud/src/services/shadow\shadow.c **** #define SHADOW_DELETE_MSG_SIZE      (256)
 1731              		.loc 1 514 1
 1732 000a AA84     		mv	s1,a0
 1733              	.LVL203:
 521:C:/Users/stapi/OneDrive/Desktop/GD32VW553/V1_MQTT_OK/GD32VW55X_Wifi_BLE_SDK/GD32VW55x_RELEASE_V1.0.2/MSDK/cloud/alicloud/src/services/shadow\shadow.c **** 
 522:C:/Users/stapi/OneDrive/Desktop/GD32VW553/V1_MQTT_OK/GD32VW55X_Wifi_BLE_SDK/GD32VW55x_RELEASE_V1.0.2/MSDK/cloud/alicloud/src/services/shadow\shadow.c ****     if (!iotx_ds_common_check_attr_existence(pshadow, pattr)) {
 1734              		.loc 1 522 5 is_stmt 1
 514:C:/Users/stapi/OneDrive/Desktop/GD32VW553/V1_MQTT_OK/GD32VW55X_Wifi_BLE_SDK/GD32VW55x_RELEASE_V1.0.2/MSDK/cloud/alicloud/src/services/shadow\shadow.c **** #define SHADOW_DELETE_MSG_SIZE      (256)
 1735              		.loc 1 514 1 is_stmt 0
 1736 000c AE89     		mv	s3,a1
 1737              		.loc 1 522 10
 1738 000e 97000000 		call	iotx_ds_common_check_attr_existence
 1738      E7800000 
 1739              	.LVL204:
 523:C:/Users/stapi/OneDrive/Desktop/GD32VW553/V1_MQTT_OK/GD32VW55X_Wifi_BLE_SDK/GD32VW55x_RELEASE_V1.0.2/MSDK/cloud/alicloud/src/services/shadow\shadow.c ****         return ERROR_SHADOW_ATTR_NO_EXIST;
 1740              		.loc 1 523 16
 1741 0016 1304D082 		li	s0,-2003
 522:C:/Users/stapi/OneDrive/Desktop/GD32VW553/V1_MQTT_OK/GD32VW55X_Wifi_BLE_SDK/GD32VW55x_RELEASE_V1.0.2/MSDK/cloud/alicloud/src/services/shadow\shadow.c ****         return ERROR_SHADOW_ATTR_NO_EXIST;
 1742              		.loc 1 522 8
 1743 001a 51C1     		beq	a0,zero,.L110
 524:C:/Users/stapi/OneDrive/Desktop/GD32VW553/V1_MQTT_OK/GD32VW55X_Wifi_BLE_SDK/GD32VW55x_RELEASE_V1.0.2/MSDK/cloud/alicloud/src/services/shadow\shadow.c ****     }
 525:C:/Users/stapi/OneDrive/Desktop/GD32VW553/V1_MQTT_OK/GD32VW55X_Wifi_BLE_SDK/GD32VW55x_RELEASE_V1.0.2/MSDK/cloud/alicloud/src/services/shadow\shadow.c **** 
 526:C:/Users/stapi/OneDrive/Desktop/GD32VW553/V1_MQTT_OK/GD32VW55X_Wifi_BLE_SDK/GD32VW55x_RELEASE_V1.0.2/MSDK/cloud/alicloud/src/services/shadow\shadow.c ****     buf = SHADOW_malloc(SHADOW_DELETE_MSG_SIZE);
 1744              		.loc 1 526 5 is_stmt 1
 1745              		.loc 1 526 11 is_stmt 0
 1746 001c 13060010 		li	a2,256
 1747 0020 8145     		li	a1,0
 1748 0022 0145     		li	a0,0
 1749 0024 97000000 		call	LITE_malloc_internal
 1749      E7800000 
 1750              	.LVL205:
 1751 002c 2A89     		mv	s2,a0
 1752              	.LVL206:
 527:C:/Users/stapi/OneDrive/Desktop/GD32VW553/V1_MQTT_OK/GD32VW55X_Wifi_BLE_SDK/GD32VW55x_RELEASE_V1.0.2/MSDK/cloud/alicloud/src/services/shadow\shadow.c ****     if (NULL == buf) {
 1753              		.loc 1 527 5 is_stmt 1
 528:C:/Users/stapi/OneDrive/Desktop/GD32VW553/V1_MQTT_OK/GD32VW55X_Wifi_BLE_SDK/GD32VW55x_RELEASE_V1.0.2/MSDK/cloud/alicloud/src/services/shadow\shadow.c ****         return ERROR_NO_MEM;
 1754              		.loc 1 528 16 is_stmt 0
 1755 002e 130480C0 		li	s0,-1016
 527:C:/Users/stapi/OneDrive/Desktop/GD32VW553/V1_MQTT_OK/GD32VW55X_Wifi_BLE_SDK/GD32VW55x_RELEASE_V1.0.2/MSDK/cloud/alicloud/src/services/shadow\shadow.c ****     if (NULL == buf) {
 1756              		.loc 1 527 8
 1757 0032 35C5     		beq	a0,zero,.L110
 529:C:/Users/stapi/OneDrive/Desktop/GD32VW553/V1_MQTT_OK/GD32VW55X_Wifi_BLE_SDK/GD32VW55x_RELEASE_V1.0.2/MSDK/cloud/alicloud/src/services/shadow\shadow.c ****     }
 530:C:/Users/stapi/OneDrive/Desktop/GD32VW553/V1_MQTT_OK/GD32VW55X_Wifi_BLE_SDK/GD32VW55x_RELEASE_V1.0.2/MSDK/cloud/alicloud/src/services/shadow\shadow.c **** 
 531:C:/Users/stapi/OneDrive/Desktop/GD32VW553/V1_MQTT_OK/GD32VW55X_Wifi_BLE_SDK/GD32VW55x_RELEASE_V1.0.2/MSDK/cloud/alicloud/src/services/shadow\shadow.c ****     iotx_ds_common_format_init(pshadow, &format, buf, SHADOW_DELETE_MSG_SIZE, "delete", ",\"state\"
 1758              		.loc 1 531 5 is_stmt 1
 1759 0034 B7070000 		lui	a5,%hi(.LC47)
 1760 0038 37070000 		lui	a4,%hi(.LC48)
 1761 003c 93870700 		addi	a5,a5,%lo(.LC47)
 1762 0040 2A86     		mv	a2,a0
 1763 0042 13070700 		addi	a4,a4,%lo(.LC48)
 1764 0046 93060010 		li	a3,256
 1765 004a 8A85     		mv	a1,sp
 1766 004c 2685     		mv	a0,s1
 1767              	.LVL207:
 1768 004e 97000000 		call	iotx_ds_common_format_init
 1768      E7800000 
 1769              	.LVL208:
 532:C:/Users/stapi/OneDrive/Desktop/GD32VW553/V1_MQTT_OK/GD32VW55X_Wifi_BLE_SDK/GD32VW55x_RELEASE_V1.0.2/MSDK/cloud/alicloud/src/services/shadow\shadow.c ****     iotx_ds_common_format_add(pshadow, &format, pattr->pattr_name, NULL, IOTX_SHADOW_NULL);
 1770              		.loc 1 532 5
 1771 0056 03A64900 		lw	a2,4(s3)
 1772 005a 0147     		li	a4,0
 1773 005c 8146     		li	a3,0
 1774 005e 8A85     		mv	a1,sp
 1775 0060 2685     		mv	a0,s1
 1776 0062 97000000 		call	iotx_ds_common_format_add
 1776      E7800000 
 1777              	.LVL209:
 533:C:/Users/stapi/OneDrive/Desktop/GD32VW553/V1_MQTT_OK/GD32VW55X_Wifi_BLE_SDK/GD32VW55x_RELEASE_V1.0.2/MSDK/cloud/alicloud/src/services/shadow\shadow.c ****     iotx_ds_common_format_finalize(pshadow, &format, "}}", 0);
 1778              		.loc 1 533 5
 1779 006a 37060000 		lui	a2,%hi(.LC25)
 1780 006e 8146     		li	a3,0
 1781 0070 13060600 		addi	a2,a2,%lo(.LC25)
 1782 0074 8A85     		mv	a1,sp
 1783 0076 2685     		mv	a0,s1
 1784 0078 97000000 		call	iotx_ds_common_format_finalize
 1784      E7800000 
 1785              	.LVL210:
 534:C:/Users/stapi/OneDrive/Desktop/GD32VW553/V1_MQTT_OK/GD32VW55X_Wifi_BLE_SDK/GD32VW55x_RELEASE_V1.0.2/MSDK/cloud/alicloud/src/services/shadow\shadow.c **** 
 535:C:/Users/stapi/OneDrive/Desktop/GD32VW553/V1_MQTT_OK/GD32VW55X_Wifi_BLE_SDK/GD32VW55x_RELEASE_V1.0.2/MSDK/cloud/alicloud/src/services/shadow\shadow.c ****     ret = IOT_Shadow_Push(pshadow, format.buf, format.offset, 10);
 1786              		.loc 1 535 5
 1787              		.loc 1 535 11 is_stmt 0
 1788 0080 2246     		lw	a2,8(sp)
 1789 0082 B245     		lw	a1,12(sp)
 1790 0084 A946     		li	a3,10
 1791 0086 2685     		mv	a0,s1
 1792 0088 97000000 		call	IOT_Shadow_Push
 1792      E7800000 
 1793              	.LVL211:
 1794 0090 2A84     		mv	s0,a0
 1795              	.LVL212:
 536:C:/Users/stapi/OneDrive/Desktop/GD32VW553/V1_MQTT_OK/GD32VW55X_Wifi_BLE_SDK/GD32VW55x_RELEASE_V1.0.2/MSDK/cloud/alicloud/src/services/shadow\shadow.c ****     if (SUCCESS_RETURN != ret) {
 1796              		.loc 1 536 5 is_stmt 1
 537:C:/Users/stapi/OneDrive/Desktop/GD32VW553/V1_MQTT_OK/GD32VW55X_Wifi_BLE_SDK/GD32VW55x_RELEASE_V1.0.2/MSDK/cloud/alicloud/src/services/shadow\shadow.c ****         LITE_free(buf);
 1797              		.loc 1 537 9 is_stmt 0
 1798 0092 4A85     		mv	a0,s2
 536:C:/Users/stapi/OneDrive/Desktop/GD32VW553/V1_MQTT_OK/GD32VW55X_Wifi_BLE_SDK/GD32VW55x_RELEASE_V1.0.2/MSDK/cloud/alicloud/src/services/shadow\shadow.c ****     if (SUCCESS_RETURN != ret) {
 1799              		.loc 1 536 8
 1800 0094 19C8     		beq	s0,zero,.L112
 1801              		.loc 1 537 9 is_stmt 1
 1802 0096 97000000 		call	LITE_free_internal
 1802      E7800000 
 1803              	.LVL213:
 538:C:/Users/stapi/OneDrive/Desktop/GD32VW553/V1_MQTT_OK/GD32VW55X_Wifi_BLE_SDK/GD32VW55x_RELEASE_V1.0.2/MSDK/cloud/alicloud/src/services/shadow\shadow.c ****         return ret;
 1804              		.loc 1 538 9
 1805              	.L110:
 539:C:/Users/stapi/OneDrive/Desktop/GD32VW553/V1_MQTT_OK/GD32VW55X_Wifi_BLE_SDK/GD32VW55x_RELEASE_V1.0.2/MSDK/cloud/alicloud/src/services/shadow\shadow.c ****     }
 540:C:/Users/stapi/OneDrive/Desktop/GD32VW553/V1_MQTT_OK/GD32VW55X_Wifi_BLE_SDK/GD32VW55x_RELEASE_V1.0.2/MSDK/cloud/alicloud/src/services/shadow\shadow.c **** 
 541:C:/Users/stapi/OneDrive/Desktop/GD32VW553/V1_MQTT_OK/GD32VW55X_Wifi_BLE_SDK/GD32VW55x_RELEASE_V1.0.2/MSDK/cloud/alicloud/src/services/shadow\shadow.c ****     LITE_free(buf);
 542:C:/Users/stapi/OneDrive/Desktop/GD32VW553/V1_MQTT_OK/GD32VW55X_Wifi_BLE_SDK/GD32VW55x_RELEASE_V1.0.2/MSDK/cloud/alicloud/src/services/shadow\shadow.c **** 
 543:C:/Users/stapi/OneDrive/Desktop/GD32VW553/V1_MQTT_OK/GD32VW55X_Wifi_BLE_SDK/GD32VW55x_RELEASE_V1.0.2/MSDK/cloud/alicloud/src/services/shadow\shadow.c ****     return iotx_ds_common_remove_attr(pshadow, pattr);
 544:C:/Users/stapi/OneDrive/Desktop/GD32VW553/V1_MQTT_OK/GD32VW55X_Wifi_BLE_SDK/GD32VW55x_RELEASE_V1.0.2/MSDK/cloud/alicloud/src/services/shadow\shadow.c **** 
 545:C:/Users/stapi/OneDrive/Desktop/GD32VW553/V1_MQTT_OK/GD32VW55X_Wifi_BLE_SDK/GD32VW55x_RELEASE_V1.0.2/MSDK/cloud/alicloud/src/services/shadow\shadow.c **** #undef SHADOW_DELETE_MSG_SIZE
 546:C:/Users/stapi/OneDrive/Desktop/GD32VW553/V1_MQTT_OK/GD32VW55X_Wifi_BLE_SDK/GD32VW55x_RELEASE_V1.0.2/MSDK/cloud/alicloud/src/services/shadow\shadow.c **** }
 1806              		.loc 1 546 1 is_stmt 0
 1807 009e 2285     		mv	a0,s0
 1808 00a0 4101     		addi	sp,sp,16
 1809              		.cfi_remember_state
 1810              		.cfi_def_cfa_offset 0
 1811 00a2 17030000 		tail	__riscv_restore_4
 1811      67000300 
 1812              		.cfi_restore 19
 1813              		.cfi_restore 18
 1814              		.cfi_restore 9
 1815              		.cfi_restore 8
 1816              		.cfi_restore 1
 1817              		.cfi_def_cfa_offset -32
 1818              	.LVL214:
 1819              	.L112:
 1820              		.cfi_restore_state
 541:C:/Users/stapi/OneDrive/Desktop/GD32VW553/V1_MQTT_OK/GD32VW55X_Wifi_BLE_SDK/GD32VW55x_RELEASE_V1.0.2/MSDK/cloud/alicloud/src/services/shadow\shadow.c **** 
 1821              		.loc 1 541 5 is_stmt 1
 1822 00aa 97000000 		call	LITE_free_internal
 1822      E7800000 
 1823              	.LVL215:
 543:C:/Users/stapi/OneDrive/Desktop/GD32VW553/V1_MQTT_OK/GD32VW55X_Wifi_BLE_SDK/GD32VW55x_RELEASE_V1.0.2/MSDK/cloud/alicloud/src/services/shadow\shadow.c **** 
 1824              		.loc 1 543 5
 543:C:/Users/stapi/OneDrive/Desktop/GD32VW553/V1_MQTT_OK/GD32VW55X_Wifi_BLE_SDK/GD32VW55x_RELEASE_V1.0.2/MSDK/cloud/alicloud/src/services/shadow\shadow.c **** 
 1825              		.loc 1 543 12 is_stmt 0
 1826 00b2 CE85     		mv	a1,s3
 1827 00b4 2685     		mv	a0,s1
 1828 00b6 97000000 		call	iotx_ds_common_remove_attr
 1828      E7800000 
 1829              	.LVL216:
 1830 00be 2A84     		mv	s0,a0
 1831              	.LVL217:
 1832 00c0 F9BF     		j	.L110
 1833              		.cfi_endproc
 1834              	.LFE35:
 1836              		.section	.rodata.__FUNCTION__.0,"a"
 1837              		.align	2
 1838              		.set	.LANCHOR1,. + 0
 1841              	__FUNCTION__.0:
 1842 0000 696F7478 		.string	"iotx_shadow_callback_get"
 1842      5F736861 
 1842      646F775F 
 1842      63616C6C 
 1842      6261636B 
 1843              		.section	.rodata.__FUNCTION__.1,"a"
 1844              		.align	2
 1845              		.set	.LANCHOR0,. + 0
 1848              	__FUNCTION__.1:
 1849 0000 696F7478 		.string	"iotx_ds_event_handle"
 1849      5F64735F 
 1849      6576656E 
 1849      745F6861 
 1849      6E646C65 
 1850              		.section	.rodata.__FUNCTION__.2,"a"
 1851              		.align	2
 1852              		.set	.LANCHOR2,. + 0
 1855              	__FUNCTION__.2:
 1856 0000 696F7478 		.string	"iotx_update_ack_cb"
 1856      5F757064 
 1856      6174655F 
 1856      61636B5F 
 1856      636200
 1857              		.section	.rodata.__FUNCTION__.4,"a"
 1858              		.align	2
 1859              		.set	.LANCHOR3,. + 0
 1862              	__FUNCTION__.4:
 1863 0000 494F545F 		.string	"IOT_Shadow_Push_Async"
 1863      53686164 
 1863      6F775F50 
 1863      7573685F 
 1863      4173796E 
 1864              		.section	.rodata.__func__.3,"a"
 1865              		.align	2
 1866              		.set	.LANCHOR4,. + 0
 1869              	__func__.3:
 1870 0000 494F545F 		.string	"IOT_Shadow_Push_Async"
 1870      53686164 
 1870      6F775F50 
 1870      7573685F 
 1870      4173796E 
 1871              		.text
 1872              	.Letext0:
 1873              		.file 2 "c:\\users\\stapi\\onedrive\\desktop\\gd32vw553\\embeddedbuilder_v1.4.7.26843\\tools\\nucl
 1874              		.file 3 "c:\\users\\stapi\\onedrive\\desktop\\gd32vw553\\embeddedbuilder_v1.4.7.26843\\tools\\nucl
 1875              		.file 4 "..\\..\\..\\..\\cloud\\alicloud\\include/exports/iot_export_errno.h"
 1876              		.file 5 "..\\..\\..\\..\\cloud\\alicloud\\include/exports/iot_export_mqtt.h"
 1877              		.file 6 "..\\..\\..\\..\\cloud\\alicloud\\include/exports/iot_export_shadow.h"
 1878              		.file 7 "C:/Users/stapi/OneDrive/Desktop/GD32VW553/V1_MQTT_OK/GD32VW55X_Wifi_BLE_SDK/GD32VW55x_REL
 1879              		.file 8 "..\\..\\..\\..\\cloud\\alicloud\\src\\infra\\utils\\misc/utils_timer.h"
 1880              		.file 9 "C:/Users/stapi/OneDrive/Desktop/GD32VW553/V1_MQTT_OK/GD32VW55X_Wifi_BLE_SDK/GD32VW55x_REL
 1881              		.file 10 "..\\..\\..\\..\\cloud\\alicloud\\src\\infra\\utils/iotx_utils.h"
 1882              		.file 11 "..\\..\\..\\..\\cloud\\alicloud\\include/iot_import.h"
 1883              		.file 12 "..\\..\\..\\..\\cloud\\alicloud\\src\\infra\\log/iotx_log.h"
 1884              		.file 13 "C:/Users/stapi/OneDrive/Desktop/GD32VW553/V1_MQTT_OK/GD32VW55X_Wifi_BLE_SDK/GD32VW55x_RE
 1885              		.file 14 "c:\\users\\stapi\\onedrive\\desktop\\gd32vw553\\embeddedbuilder_v1.4.7.26843\\tools\\nuc
 1886              		.file 15 "c:\\users\\stapi\\onedrive\\desktop\\gd32vw553\\embeddedbuilder_v1.4.7.26843\\tools\\nuc
 1887              		.file 16 "C:/Users/stapi/OneDrive/Desktop/GD32VW553/V1_MQTT_OK/GD32VW55X_Wifi_BLE_SDK/GD32VW55x_RE
 1888              		.file 17 "<built-in>"