   1              		.file	"shadow_update.c"
   2              		.option nopic
   3              		.attribute arch, "rv32i2p0_m2p0_a2p0_f2p0_c2p0_b_p0p94"
   4              		.attribute unaligned_access, 0
   5              		.attribute stack_align, 16
   6              		.text
   7              	.Ltext0:
   8              		.cfi_sections	.debug_frame
   9              		.section	.rodata.iotx_shadow_update_wait_ack_list_add.str1.4,"aMS",@progbits,1
  10              		.align	2
  11              	.LC0:
  12 0000 5B77726E 		.string	"[wrn] "
  12      5D2000
  13 0007 00       		.align	2
  14              	.LC1:
  15 0008 746F6B65 		.string	"token is too long."
  15      6E206973 
  15      20746F6F 
  15      206C6F6E 
  15      672E00
  16 001b 00       		.align	2
  17              	.LC2:
  18 001c 0D0A00   		.string	"\r\n"
  19 001f 00       		.align	2
  20              	.LC3:
  21 0020 41646420 		.string	"Add update ACK list"
  21      75706461 
  21      74652041 
  21      434B206C 
  21      69737400 
  22              		.align	2
  23              	.LC4:
  24 0034 73686164 		.string	"shadow"
  24      6F7700
  25              		.section	.text.iotx_shadow_update_wait_ack_list_add,"ax",@progbits
  26              		.align	1
  27              		.globl	iotx_shadow_update_wait_ack_list_add
  29              	iotx_shadow_update_wait_ack_list_add:
  30              	.LFB20:
  31              		.file 1 "C:/Users/stapi/OneDrive/Desktop/GD32VW553/V1_MQTT_OK/GD32VW55X_Wifi_BLE_SDK/GD32VW55x_REL
   1:C:/Users/stapi/OneDrive/Desktop/GD32VW553/V1_MQTT_OK/GD32VW55X_Wifi_BLE_SDK/GD32VW55x_RELEASE_V1.0.2/MSDK/cloud/alicloud/src/services/shadow\shadow_update.c **** /*
   2:C:/Users/stapi/OneDrive/Desktop/GD32VW553/V1_MQTT_OK/GD32VW55X_Wifi_BLE_SDK/GD32VW55x_RELEASE_V1.0.2/MSDK/cloud/alicloud/src/services/shadow\shadow_update.c ****  * Copyright (C) 2015-2018 Alibaba Group Holding Limited
   3:C:/Users/stapi/OneDrive/Desktop/GD32VW553/V1_MQTT_OK/GD32VW55X_Wifi_BLE_SDK/GD32VW55x_RELEASE_V1.0.2/MSDK/cloud/alicloud/src/services/shadow\shadow_update.c ****  */
   4:C:/Users/stapi/OneDrive/Desktop/GD32VW553/V1_MQTT_OK/GD32VW55X_Wifi_BLE_SDK/GD32VW55x_RELEASE_V1.0.2/MSDK/cloud/alicloud/src/services/shadow\shadow_update.c **** 
   5:C:/Users/stapi/OneDrive/Desktop/GD32VW553/V1_MQTT_OK/GD32VW55X_Wifi_BLE_SDK/GD32VW55x_RELEASE_V1.0.2/MSDK/cloud/alicloud/src/services/shadow\shadow_update.c **** 
   6:C:/Users/stapi/OneDrive/Desktop/GD32VW553/V1_MQTT_OK/GD32VW55X_Wifi_BLE_SDK/GD32VW55x_RELEASE_V1.0.2/MSDK/cloud/alicloud/src/services/shadow\shadow_update.c **** 
   7:C:/Users/stapi/OneDrive/Desktop/GD32VW553/V1_MQTT_OK/GD32VW55X_Wifi_BLE_SDK/GD32VW55x_RELEASE_V1.0.2/MSDK/cloud/alicloud/src/services/shadow\shadow_update.c **** 
   8:C:/Users/stapi/OneDrive/Desktop/GD32VW553/V1_MQTT_OK/GD32VW55X_Wifi_BLE_SDK/GD32VW55x_RELEASE_V1.0.2/MSDK/cloud/alicloud/src/services/shadow\shadow_update.c **** 
   9:C:/Users/stapi/OneDrive/Desktop/GD32VW553/V1_MQTT_OK/GD32VW55X_Wifi_BLE_SDK/GD32VW55x_RELEASE_V1.0.2/MSDK/cloud/alicloud/src/services/shadow\shadow_update.c **** #include "iot_import.h"
  10:C:/Users/stapi/OneDrive/Desktop/GD32VW553/V1_MQTT_OK/GD32VW55X_Wifi_BLE_SDK/GD32VW55x_RELEASE_V1.0.2/MSDK/cloud/alicloud/src/services/shadow\shadow_update.c **** 
  11:C:/Users/stapi/OneDrive/Desktop/GD32VW553/V1_MQTT_OK/GD32VW55X_Wifi_BLE_SDK/GD32VW55x_RELEASE_V1.0.2/MSDK/cloud/alicloud/src/services/shadow\shadow_update.c **** #include "shadow_debug.h"
  12:C:/Users/stapi/OneDrive/Desktop/GD32VW553/V1_MQTT_OK/GD32VW55X_Wifi_BLE_SDK/GD32VW55x_RELEASE_V1.0.2/MSDK/cloud/alicloud/src/services/shadow\shadow_update.c **** #include "iotx_utils.h"
  13:C:/Users/stapi/OneDrive/Desktop/GD32VW553/V1_MQTT_OK/GD32VW55X_Wifi_BLE_SDK/GD32VW55x_RELEASE_V1.0.2/MSDK/cloud/alicloud/src/services/shadow\shadow_update.c **** #include "iotx_system.h"
  14:C:/Users/stapi/OneDrive/Desktop/GD32VW553/V1_MQTT_OK/GD32VW55X_Wifi_BLE_SDK/GD32VW55x_RELEASE_V1.0.2/MSDK/cloud/alicloud/src/services/shadow\shadow_update.c **** 
  15:C:/Users/stapi/OneDrive/Desktop/GD32VW553/V1_MQTT_OK/GD32VW55X_Wifi_BLE_SDK/GD32VW55x_RELEASE_V1.0.2/MSDK/cloud/alicloud/src/services/shadow\shadow_update.c **** #include "shadow_update.h"
  16:C:/Users/stapi/OneDrive/Desktop/GD32VW553/V1_MQTT_OK/GD32VW55X_Wifi_BLE_SDK/GD32VW55x_RELEASE_V1.0.2/MSDK/cloud/alicloud/src/services/shadow\shadow_update.c **** 
  17:C:/Users/stapi/OneDrive/Desktop/GD32VW553/V1_MQTT_OK/GD32VW55X_Wifi_BLE_SDK/GD32VW55x_RELEASE_V1.0.2/MSDK/cloud/alicloud/src/services/shadow\shadow_update.c **** extern void iotx_shadow_delta_entry(
  18:C:/Users/stapi/OneDrive/Desktop/GD32VW553/V1_MQTT_OK/GD32VW55X_Wifi_BLE_SDK/GD32VW55x_RELEASE_V1.0.2/MSDK/cloud/alicloud/src/services/shadow\shadow_update.c ****             iotx_shadow_pt pshadow,
  19:C:/Users/stapi/OneDrive/Desktop/GD32VW553/V1_MQTT_OK/GD32VW55X_Wifi_BLE_SDK/GD32VW55x_RELEASE_V1.0.2/MSDK/cloud/alicloud/src/services/shadow\shadow_update.c ****             const char *json_doc,
  20:C:/Users/stapi/OneDrive/Desktop/GD32VW553/V1_MQTT_OK/GD32VW55X_Wifi_BLE_SDK/GD32VW55x_RELEASE_V1.0.2/MSDK/cloud/alicloud/src/services/shadow\shadow_update.c ****             size_t json_doc_len);
  21:C:/Users/stapi/OneDrive/Desktop/GD32VW553/V1_MQTT_OK/GD32VW55X_Wifi_BLE_SDK/GD32VW55x_RELEASE_V1.0.2/MSDK/cloud/alicloud/src/services/shadow\shadow_update.c **** 
  22:C:/Users/stapi/OneDrive/Desktop/GD32VW553/V1_MQTT_OK/GD32VW55X_Wifi_BLE_SDK/GD32VW55x_RELEASE_V1.0.2/MSDK/cloud/alicloud/src/services/shadow\shadow_update.c **** 
  23:C:/Users/stapi/OneDrive/Desktop/GD32VW553/V1_MQTT_OK/GD32VW55X_Wifi_BLE_SDK/GD32VW55x_RELEASE_V1.0.2/MSDK/cloud/alicloud/src/services/shadow\shadow_update.c **** /* add a new wait element */
  24:C:/Users/stapi/OneDrive/Desktop/GD32VW553/V1_MQTT_OK/GD32VW55X_Wifi_BLE_SDK/GD32VW55x_RELEASE_V1.0.2/MSDK/cloud/alicloud/src/services/shadow\shadow_update.c **** /* return: NULL, failed; others, pointer of element. */
  25:C:/Users/stapi/OneDrive/Desktop/GD32VW553/V1_MQTT_OK/GD32VW55X_Wifi_BLE_SDK/GD32VW55x_RELEASE_V1.0.2/MSDK/cloud/alicloud/src/services/shadow\shadow_update.c **** iotx_update_ack_wait_list_pt iotx_shadow_update_wait_ack_list_add(
  26:C:/Users/stapi/OneDrive/Desktop/GD32VW553/V1_MQTT_OK/GD32VW55X_Wifi_BLE_SDK/GD32VW55x_RELEASE_V1.0.2/MSDK/cloud/alicloud/src/services/shadow\shadow_update.c ****             iotx_shadow_pt pshadow,
  27:C:/Users/stapi/OneDrive/Desktop/GD32VW553/V1_MQTT_OK/GD32VW55X_Wifi_BLE_SDK/GD32VW55x_RELEASE_V1.0.2/MSDK/cloud/alicloud/src/services/shadow\shadow_update.c ****             const char *ptoken, /* NOTE: this is NOT a string. */
  28:C:/Users/stapi/OneDrive/Desktop/GD32VW553/V1_MQTT_OK/GD32VW55X_Wifi_BLE_SDK/GD32VW55x_RELEASE_V1.0.2/MSDK/cloud/alicloud/src/services/shadow\shadow_update.c ****             size_t token_len,
  29:C:/Users/stapi/OneDrive/Desktop/GD32VW553/V1_MQTT_OK/GD32VW55X_Wifi_BLE_SDK/GD32VW55x_RELEASE_V1.0.2/MSDK/cloud/alicloud/src/services/shadow\shadow_update.c ****             iotx_push_cb_fpt cb,
  30:C:/Users/stapi/OneDrive/Desktop/GD32VW553/V1_MQTT_OK/GD32VW55X_Wifi_BLE_SDK/GD32VW55x_RELEASE_V1.0.2/MSDK/cloud/alicloud/src/services/shadow\shadow_update.c ****             void *pcontext,
  31:C:/Users/stapi/OneDrive/Desktop/GD32VW553/V1_MQTT_OK/GD32VW55X_Wifi_BLE_SDK/GD32VW55x_RELEASE_V1.0.2/MSDK/cloud/alicloud/src/services/shadow\shadow_update.c ****             uint32_t timeout)
  32:C:/Users/stapi/OneDrive/Desktop/GD32VW553/V1_MQTT_OK/GD32VW55X_Wifi_BLE_SDK/GD32VW55x_RELEASE_V1.0.2/MSDK/cloud/alicloud/src/services/shadow\shadow_update.c **** {
  32              		.loc 1 32 1
  33              		.cfi_startproc
  34              	.LVL0:
  35 0000 17030000 		call	t0,__riscv_save_8
  35      E7020300 
  36              		.cfi_offset 23, -36
  37              		.cfi_offset 22, -32
  38              		.cfi_offset 21, -28
  39              		.cfi_offset 20, -24
  40              		.cfi_offset 19, -20
  41              		.cfi_offset 18, -16
  42              		.cfi_offset 9, -12
  43              		.cfi_offset 8, -8
  44              		.cfi_offset 1, -4
  45              		.cfi_def_cfa_offset 48
  33:C:/Users/stapi/OneDrive/Desktop/GD32VW553/V1_MQTT_OK/GD32VW55X_Wifi_BLE_SDK/GD32VW55x_RELEASE_V1.0.2/MSDK/cloud/alicloud/src/services/shadow\shadow_update.c ****     int i;
  46              		.loc 1 33 5
  34:C:/Users/stapi/OneDrive/Desktop/GD32VW553/V1_MQTT_OK/GD32VW55X_Wifi_BLE_SDK/GD32VW55x_RELEASE_V1.0.2/MSDK/cloud/alicloud/src/services/shadow\shadow_update.c ****     iotx_update_ack_wait_list_pt list = pshadow->inner_data.update_ack_wait_list;
  47              		.loc 1 34 5
  48              		.loc 1 34 34 is_stmt 0
  49 0008 930B8501 		addi	s7,a0,24
  50              	.LVL1:
  35:C:/Users/stapi/OneDrive/Desktop/GD32VW553/V1_MQTT_OK/GD32VW55X_Wifi_BLE_SDK/GD32VW55x_RELEASE_V1.0.2/MSDK/cloud/alicloud/src/services/shadow\shadow_update.c **** 
  36:C:/Users/stapi/OneDrive/Desktop/GD32VW553/V1_MQTT_OK/GD32VW55X_Wifi_BLE_SDK/GD32VW55x_RELEASE_V1.0.2/MSDK/cloud/alicloud/src/services/shadow\shadow_update.c ****     HAL_MutexLock(pshadow->mutex);
  51              		.loc 1 36 5 is_stmt 1
  32:C:/Users/stapi/OneDrive/Desktop/GD32VW553/V1_MQTT_OK/GD32VW55X_Wifi_BLE_SDK/GD32VW55x_RELEASE_V1.0.2/MSDK/cloud/alicloud/src/services/shadow\shadow_update.c ****     int i;
  52              		.loc 1 32 1 is_stmt 0
  53 000c AA84     		mv	s1,a0
  54              		.loc 1 36 5
  55 000e 4841     		lw	a0,4(a0)
  56              	.LVL2:
  32:C:/Users/stapi/OneDrive/Desktop/GD32VW553/V1_MQTT_OK/GD32VW55X_Wifi_BLE_SDK/GD32VW55x_RELEASE_V1.0.2/MSDK/cloud/alicloud/src/services/shadow\shadow_update.c ****     int i;
  57              		.loc 1 32 1
  58 0010 4111     		addi	sp,sp,-16
  59              		.cfi_def_cfa_offset 64
  32:C:/Users/stapi/OneDrive/Desktop/GD32VW553/V1_MQTT_OK/GD32VW55X_Wifi_BLE_SDK/GD32VW55x_RELEASE_V1.0.2/MSDK/cloud/alicloud/src/services/shadow\shadow_update.c ****     int i;
  60              		.loc 1 32 1
  61 0012 3284     		mv	s0,a2
  62 0014 BE89     		mv	s3,a5
  63 0016 2E8A     		mv	s4,a1
  64 0018 368B     		mv	s6,a3
  65 001a BA8A     		mv	s5,a4
  66              		.loc 1 36 5
  67 001c 97000000 		call	HAL_MutexLock
  67      E7800000 
  68              	.LVL3:
  37:C:/Users/stapi/OneDrive/Desktop/GD32VW553/V1_MQTT_OK/GD32VW55X_Wifi_BLE_SDK/GD32VW55x_RELEASE_V1.0.2/MSDK/cloud/alicloud/src/services/shadow\shadow_update.c **** 
  38:C:/Users/stapi/OneDrive/Desktop/GD32VW553/V1_MQTT_OK/GD32VW55X_Wifi_BLE_SDK/GD32VW55x_RELEASE_V1.0.2/MSDK/cloud/alicloud/src/services/shadow\shadow_update.c ****     for (i = 0; i < IOTX_DS_UPDATE_WAIT_ACK_LIST_NUM; ++i) {
  69              		.loc 1 38 5 is_stmt 1
  70              		.loc 1 38 17
  71 0024 5E86     		mv	a2,s7
  72              		.loc 1 38 12 is_stmt 0
  73 0026 0149     		li	s2,0
  74              		.loc 1 38 5
  75 0028 9547     		li	a5,5
  76              	.LVL4:
  77              	.L4:
  39:C:/Users/stapi/OneDrive/Desktop/GD32VW553/V1_MQTT_OK/GD32VW55X_Wifi_BLE_SDK/GD32VW55x_RELEASE_V1.0.2/MSDK/cloud/alicloud/src/services/shadow\shadow_update.c ****         if (0 == list[i].flag_busy) {
  78              		.loc 1 39 9 is_stmt 1
  79              		.loc 1 39 12 is_stmt 0
  80 002a 1842     		lw	a4,0(a2)
  81 002c 61E7     		bne	a4,zero,.L2
  40:C:/Users/stapi/OneDrive/Desktop/GD32VW553/V1_MQTT_OK/GD32VW55X_Wifi_BLE_SDK/GD32VW55x_RELEASE_V1.0.2/MSDK/cloud/alicloud/src/services/shadow\shadow_update.c ****             list[i].flag_busy = 1;
  82              		.loc 1 40 13 is_stmt 1
  83              		.loc 1 40 31 is_stmt 0
  84 002e 8547     		li	a5,1
  85 0030 1CC2     		sw	a5,0(a2)
  41:C:/Users/stapi/OneDrive/Desktop/GD32VW553/V1_MQTT_OK/GD32VW55X_Wifi_BLE_SDK/GD32VW55x_RELEASE_V1.0.2/MSDK/cloud/alicloud/src/services/shadow\shadow_update.c ****             break;
  86              		.loc 1 41 13 is_stmt 1
  87              	.L3:
  42:C:/Users/stapi/OneDrive/Desktop/GD32VW553/V1_MQTT_OK/GD32VW55X_Wifi_BLE_SDK/GD32VW55x_RELEASE_V1.0.2/MSDK/cloud/alicloud/src/services/shadow\shadow_update.c ****         }
  43:C:/Users/stapi/OneDrive/Desktop/GD32VW553/V1_MQTT_OK/GD32VW55X_Wifi_BLE_SDK/GD32VW55x_RELEASE_V1.0.2/MSDK/cloud/alicloud/src/services/shadow\shadow_update.c ****     }
  44:C:/Users/stapi/OneDrive/Desktop/GD32VW553/V1_MQTT_OK/GD32VW55X_Wifi_BLE_SDK/GD32VW55x_RELEASE_V1.0.2/MSDK/cloud/alicloud/src/services/shadow\shadow_update.c **** 
  45:C:/Users/stapi/OneDrive/Desktop/GD32VW553/V1_MQTT_OK/GD32VW55X_Wifi_BLE_SDK/GD32VW55x_RELEASE_V1.0.2/MSDK/cloud/alicloud/src/services/shadow\shadow_update.c ****     HAL_MutexUnlock(pshadow->mutex);
  88              		.loc 1 45 5
  89 0032 C840     		lw	a0,4(s1)
  46:C:/Users/stapi/OneDrive/Desktop/GD32VW553/V1_MQTT_OK/GD32VW55X_Wifi_BLE_SDK/GD32VW55x_RELEASE_V1.0.2/MSDK/cloud/alicloud/src/services/shadow\shadow_update.c **** 
  47:C:/Users/stapi/OneDrive/Desktop/GD32VW553/V1_MQTT_OK/GD32VW55X_Wifi_BLE_SDK/GD32VW55x_RELEASE_V1.0.2/MSDK/cloud/alicloud/src/services/shadow\shadow_update.c ****     if (i >= IOTX_DS_UPDATE_WAIT_ACK_LIST_NUM) {
  48:C:/Users/stapi/OneDrive/Desktop/GD32VW553/V1_MQTT_OK/GD32VW55X_Wifi_BLE_SDK/GD32VW55x_RELEASE_V1.0.2/MSDK/cloud/alicloud/src/services/shadow\shadow_update.c ****         return NULL;
  90              		.loc 1 48 16 is_stmt 0
  91 0034 8144     		li	s1,0
  92              	.LVL5:
  45:C:/Users/stapi/OneDrive/Desktop/GD32VW553/V1_MQTT_OK/GD32VW55X_Wifi_BLE_SDK/GD32VW55x_RELEASE_V1.0.2/MSDK/cloud/alicloud/src/services/shadow\shadow_update.c **** 
  93              		.loc 1 45 5
  94 0036 97000000 		call	HAL_MutexUnlock
  94      E7800000 
  95              	.LVL6:
  47:C:/Users/stapi/OneDrive/Desktop/GD32VW553/V1_MQTT_OK/GD32VW55X_Wifi_BLE_SDK/GD32VW55x_RELEASE_V1.0.2/MSDK/cloud/alicloud/src/services/shadow\shadow_update.c ****         return NULL;
  96              		.loc 1 47 5 is_stmt 1
  47:C:/Users/stapi/OneDrive/Desktop/GD32VW553/V1_MQTT_OK/GD32VW55X_Wifi_BLE_SDK/GD32VW55x_RELEASE_V1.0.2/MSDK/cloud/alicloud/src/services/shadow\shadow_update.c ****         return NULL;
  97              		.loc 1 47 8 is_stmt 0
  98 003e 9547     		li	a5,5
  99 0040 6304F90A 		beq	s2,a5,.L1
  49:C:/Users/stapi/OneDrive/Desktop/GD32VW553/V1_MQTT_OK/GD32VW55X_Wifi_BLE_SDK/GD32VW55x_RELEASE_V1.0.2/MSDK/cloud/alicloud/src/services/shadow\shadow_update.c ****     }
  50:C:/Users/stapi/OneDrive/Desktop/GD32VW553/V1_MQTT_OK/GD32VW55X_Wifi_BLE_SDK/GD32VW55x_RELEASE_V1.0.2/MSDK/cloud/alicloud/src/services/shadow\shadow_update.c **** 
  51:C:/Users/stapi/OneDrive/Desktop/GD32VW553/V1_MQTT_OK/GD32VW55X_Wifi_BLE_SDK/GD32VW55x_RELEASE_V1.0.2/MSDK/cloud/alicloud/src/services/shadow\shadow_update.c ****     list[i].callback = cb;
 100              		.loc 1 51 5 is_stmt 1
 101              		.loc 1 51 9 is_stmt 0
 102 0044 93070009 		li	a5,144
 103 0048 DE84     		mv	s1,s7
 104 004a FF14F9C4 		maddr32	s1, s2, a5
  52:C:/Users/stapi/OneDrive/Desktop/GD32VW553/V1_MQTT_OK/GD32VW55X_Wifi_BLE_SDK/GD32VW55x_RELEASE_V1.0.2/MSDK/cloud/alicloud/src/services/shadow\shadow_update.c ****     list[i].pcontext = pcontext;
  53:C:/Users/stapi/OneDrive/Desktop/GD32VW553/V1_MQTT_OK/GD32VW55X_Wifi_BLE_SDK/GD32VW55x_RELEASE_V1.0.2/MSDK/cloud/alicloud/src/services/shadow\shadow_update.c **** 
  54:C:/Users/stapi/OneDrive/Desktop/GD32VW553/V1_MQTT_OK/GD32VW55X_Wifi_BLE_SDK/GD32VW55x_RELEASE_V1.0.2/MSDK/cloud/alicloud/src/services/shadow\shadow_update.c ****     if (token_len >= IOTX_DS_TOKEN_LEN) {
 105              		.loc 1 54 8
 106 004e 9307F007 		li	a5,127
  51:C:/Users/stapi/OneDrive/Desktop/GD32VW553/V1_MQTT_OK/GD32VW55X_Wifi_BLE_SDK/GD32VW55x_RELEASE_V1.0.2/MSDK/cloud/alicloud/src/services/shadow\shadow_update.c ****     list[i].pcontext = pcontext;
 107              		.loc 1 51 22
 108 0052 23A26409 		sw	s6,132(s1)
  52:C:/Users/stapi/OneDrive/Desktop/GD32VW553/V1_MQTT_OK/GD32VW55X_Wifi_BLE_SDK/GD32VW55x_RELEASE_V1.0.2/MSDK/cloud/alicloud/src/services/shadow\shadow_update.c ****     list[i].pcontext = pcontext;
 109              		.loc 1 52 5 is_stmt 1
  52:C:/Users/stapi/OneDrive/Desktop/GD32VW553/V1_MQTT_OK/GD32VW55X_Wifi_BLE_SDK/GD32VW55x_RELEASE_V1.0.2/MSDK/cloud/alicloud/src/services/shadow\shadow_update.c ****     list[i].pcontext = pcontext;
 110              		.loc 1 52 22 is_stmt 0
 111 0056 23A45409 		sw	s5,136(s1)
 112              		.loc 1 54 5 is_stmt 1
 113              		.loc 1 54 8 is_stmt 0
 114 005a 63FC8702 		bleu	s0,a5,.L6
  55:C:/Users/stapi/OneDrive/Desktop/GD32VW553/V1_MQTT_OK/GD32VW55X_Wifi_BLE_SDK/GD32VW55x_RELEASE_V1.0.2/MSDK/cloud/alicloud/src/services/shadow\shadow_update.c ****         shadow_warning("token is too long.");
 115              		.loc 1 55 9 is_stmt 1
 116              		.loc 1 55 9
 117 005e 37050000 		lui	a0,%hi(.LC0)
 118 0062 13050500 		addi	a0,a0,%lo(.LC0)
 119 0066 97000000 		call	HAL_Printf
 119      E7800000 
 120              	.LVL7:
 121              		.loc 1 55 9
 122 006e 37050000 		lui	a0,%hi(.LC1)
 123 0072 13050500 		addi	a0,a0,%lo(.LC1)
 124 0076 97000000 		call	HAL_Printf
 124      E7800000 
 125              	.LVL8:
 126              		.loc 1 55 9
 127 007e 37050000 		lui	a0,%hi(.LC2)
 128 0082 13050500 		addi	a0,a0,%lo(.LC2)
 129 0086 97000000 		call	HAL_Printf
 129      E7800000 
 130              	.LVL9:
 131              		.loc 1 55 9
  56:C:/Users/stapi/OneDrive/Desktop/GD32VW553/V1_MQTT_OK/GD32VW55X_Wifi_BLE_SDK/GD32VW55x_RELEASE_V1.0.2/MSDK/cloud/alicloud/src/services/shadow\shadow_update.c ****         token_len = IOTX_DS_TOKEN_LEN - 1;
 132              		.loc 1 56 9
 133              		.loc 1 56 19 is_stmt 0
 134 008e 1304F007 		li	s0,127
 135              	.LVL10:
 136              	.L6:
  57:C:/Users/stapi/OneDrive/Desktop/GD32VW553/V1_MQTT_OK/GD32VW55X_Wifi_BLE_SDK/GD32VW55x_RELEASE_V1.0.2/MSDK/cloud/alicloud/src/services/shadow\shadow_update.c ****     }
  58:C:/Users/stapi/OneDrive/Desktop/GD32VW553/V1_MQTT_OK/GD32VW55X_Wifi_BLE_SDK/GD32VW55x_RELEASE_V1.0.2/MSDK/cloud/alicloud/src/services/shadow\shadow_update.c ****     memcpy(list[i].token, ptoken, token_len);
 137              		.loc 1 58 5 is_stmt 1
 138 0092 2286     		mv	a2,s0
 139 0094 D285     		mv	a1,s4
 140 0096 13854400 		addi	a0,s1,4
 141 009a 97000000 		call	memcpy
 141      E7800000 
 142              	.LVL11:
  59:C:/Users/stapi/OneDrive/Desktop/GD32VW553/V1_MQTT_OK/GD32VW55X_Wifi_BLE_SDK/GD32VW55x_RELEASE_V1.0.2/MSDK/cloud/alicloud/src/services/shadow\shadow_update.c ****     list[i].token[token_len] = '\0';
 143              		.loc 1 59 5
 144              		.loc 1 59 30 is_stmt 0
 145 00a2 2694     		add	s0,s1,s0
 146              	.LVL12:
  60:C:/Users/stapi/OneDrive/Desktop/GD32VW553/V1_MQTT_OK/GD32VW55X_Wifi_BLE_SDK/GD32VW55x_RELEASE_V1.0.2/MSDK/cloud/alicloud/src/services/shadow\shadow_update.c **** 
  61:C:/Users/stapi/OneDrive/Desktop/GD32VW553/V1_MQTT_OK/GD32VW55X_Wifi_BLE_SDK/GD32VW55x_RELEASE_V1.0.2/MSDK/cloud/alicloud/src/services/shadow\shadow_update.c ****     iotx_time_init(&list[i].timer);
 147              		.loc 1 61 5
 148 00a4 1385C408 		addi	a0,s1,140
  59:C:/Users/stapi/OneDrive/Desktop/GD32VW553/V1_MQTT_OK/GD32VW55X_Wifi_BLE_SDK/GD32VW55x_RELEASE_V1.0.2/MSDK/cloud/alicloud/src/services/shadow\shadow_update.c ****     list[i].token[token_len] = '\0';
 149              		.loc 1 59 30
 150 00a8 23020400 		sb	zero,4(s0)
 151              		.loc 1 61 5 is_stmt 1
 152 00ac 2AC6     		sw	a0,12(sp)
 153 00ae 97000000 		call	iotx_time_init
 153      E7800000 
 154              	.LVL13:
  62:C:/Users/stapi/OneDrive/Desktop/GD32VW553/V1_MQTT_OK/GD32VW55X_Wifi_BLE_SDK/GD32VW55x_RELEASE_V1.0.2/MSDK/cloud/alicloud/src/services/shadow\shadow_update.c ****     utils_time_countdown_ms(&list[i].timer, timeout);
 155              		.loc 1 62 5
 156 00b6 3245     		lw	a0,12(sp)
 157 00b8 CE85     		mv	a1,s3
 158 00ba 97000000 		call	utils_time_countdown_ms
 158      E7800000 
 159              	.LVL14:
  63:C:/Users/stapi/OneDrive/Desktop/GD32VW553/V1_MQTT_OK/GD32VW55X_Wifi_BLE_SDK/GD32VW55x_RELEASE_V1.0.2/MSDK/cloud/alicloud/src/services/shadow\shadow_update.c **** 
  64:C:/Users/stapi/OneDrive/Desktop/GD32VW553/V1_MQTT_OK/GD32VW55X_Wifi_BLE_SDK/GD32VW55x_RELEASE_V1.0.2/MSDK/cloud/alicloud/src/services/shadow\shadow_update.c ****     shadow_debug("Add update ACK list");
 160              		.loc 1 64 5
 161 00c2 37070000 		lui	a4,%hi(.LC3)
 162 00c6 B7050000 		lui	a1,%hi(.LANCHOR0)
 163 00ca 37050000 		lui	a0,%hi(.LC4)
 164 00ce 13070700 		addi	a4,a4,%lo(.LC3)
 165 00d2 9546     		li	a3,5
 166 00d4 13060004 		li	a2,64
 167 00d8 93850500 		addi	a1,a1,%lo(.LANCHOR0)
 168 00dc 13050500 		addi	a0,a0,%lo(.LC4)
 169 00e0 97000000 		call	LITE_syslog
 169      E7800000 
 170              	.LVL15:
  65:C:/Users/stapi/OneDrive/Desktop/GD32VW553/V1_MQTT_OK/GD32VW55X_Wifi_BLE_SDK/GD32VW55x_RELEASE_V1.0.2/MSDK/cloud/alicloud/src/services/shadow\shadow_update.c **** 
  66:C:/Users/stapi/OneDrive/Desktop/GD32VW553/V1_MQTT_OK/GD32VW55X_Wifi_BLE_SDK/GD32VW55x_RELEASE_V1.0.2/MSDK/cloud/alicloud/src/services/shadow\shadow_update.c ****     return &list[i];
 171              		.loc 1 66 5
 172              	.L1:
  67:C:/Users/stapi/OneDrive/Desktop/GD32VW553/V1_MQTT_OK/GD32VW55X_Wifi_BLE_SDK/GD32VW55x_RELEASE_V1.0.2/MSDK/cloud/alicloud/src/services/shadow\shadow_update.c **** }
 173              		.loc 1 67 1 is_stmt 0
 174 00e8 2685     		mv	a0,s1
 175 00ea 4101     		addi	sp,sp,16
 176              		.cfi_remember_state
 177              		.cfi_def_cfa_offset 0
 178 00ec 17030000 		tail	__riscv_restore_8
 178      67000300 
 179              		.cfi_restore 23
 180              		.cfi_restore 22
 181              		.cfi_restore 21
 182              		.cfi_restore 20
 183              		.cfi_restore 19
 184              		.cfi_restore 18
 185              		.cfi_restore 9
 186              		.cfi_restore 8
 187              		.cfi_restore 1
 188              		.cfi_def_cfa_offset -48
 189              	.LVL16:
 190              	.L2:
 191              		.cfi_restore_state
  38:C:/Users/stapi/OneDrive/Desktop/GD32VW553/V1_MQTT_OK/GD32VW55X_Wifi_BLE_SDK/GD32VW55x_RELEASE_V1.0.2/MSDK/cloud/alicloud/src/services/shadow\shadow_update.c ****         if (0 == list[i].flag_busy) {
 192              		.loc 1 38 55 is_stmt 1 discriminator 2
 193 00f4 0509     		addi	s2,s2,1
 194              	.LVL17:
  38:C:/Users/stapi/OneDrive/Desktop/GD32VW553/V1_MQTT_OK/GD32VW55X_Wifi_BLE_SDK/GD32VW55x_RELEASE_V1.0.2/MSDK/cloud/alicloud/src/services/shadow\shadow_update.c ****         if (0 == list[i].flag_busy) {
 195              		.loc 1 38 17 discriminator 2
  38:C:/Users/stapi/OneDrive/Desktop/GD32VW553/V1_MQTT_OK/GD32VW55X_Wifi_BLE_SDK/GD32VW55x_RELEASE_V1.0.2/MSDK/cloud/alicloud/src/services/shadow\shadow_update.c ****         if (0 == list[i].flag_busy) {
 196              		.loc 1 38 5 is_stmt 0 discriminator 2
 197 00f6 13060609 		addi	a2,a2,144
 198 00fa E318F9F2 		bne	s2,a5,.L4
 199 00fe 15BF     		j	.L3
 200              		.cfi_endproc
 201              	.LFE20:
 203              		.section	.text.iotx_shadow_update_wait_ack_list_remove,"ax",@progbits
 204              		.align	1
 205              		.globl	iotx_shadow_update_wait_ack_list_remove
 207              	iotx_shadow_update_wait_ack_list_remove:
 208              	.LFB21:
  68:C:/Users/stapi/OneDrive/Desktop/GD32VW553/V1_MQTT_OK/GD32VW55X_Wifi_BLE_SDK/GD32VW55x_RELEASE_V1.0.2/MSDK/cloud/alicloud/src/services/shadow\shadow_update.c **** 
  69:C:/Users/stapi/OneDrive/Desktop/GD32VW553/V1_MQTT_OK/GD32VW55X_Wifi_BLE_SDK/GD32VW55x_RELEASE_V1.0.2/MSDK/cloud/alicloud/src/services/shadow\shadow_update.c **** 
  70:C:/Users/stapi/OneDrive/Desktop/GD32VW553/V1_MQTT_OK/GD32VW55X_Wifi_BLE_SDK/GD32VW55x_RELEASE_V1.0.2/MSDK/cloud/alicloud/src/services/shadow\shadow_update.c **** void iotx_shadow_update_wait_ack_list_remove(iotx_shadow_pt pshadow, iotx_update_ack_wait_list_pt e
  71:C:/Users/stapi/OneDrive/Desktop/GD32VW553/V1_MQTT_OK/GD32VW55X_Wifi_BLE_SDK/GD32VW55x_RELEASE_V1.0.2/MSDK/cloud/alicloud/src/services/shadow\shadow_update.c **** {
 209              		.loc 1 71 1 is_stmt 1
 210              		.cfi_startproc
 211              	.LVL18:
 212 0000 17030000 		call	t0,__riscv_save_2
 212      E7020300 
 213              		.cfi_offset 9, -12
 214              		.cfi_offset 8, -8
 215              		.cfi_offset 1, -4
 216              		.cfi_def_cfa_offset 16
  72:C:/Users/stapi/OneDrive/Desktop/GD32VW553/V1_MQTT_OK/GD32VW55X_Wifi_BLE_SDK/GD32VW55x_RELEASE_V1.0.2/MSDK/cloud/alicloud/src/services/shadow\shadow_update.c ****     HAL_MutexLock(pshadow->mutex);
 217              		.loc 1 72 5
  71:C:/Users/stapi/OneDrive/Desktop/GD32VW553/V1_MQTT_OK/GD32VW55X_Wifi_BLE_SDK/GD32VW55x_RELEASE_V1.0.2/MSDK/cloud/alicloud/src/services/shadow\shadow_update.c ****     HAL_MutexLock(pshadow->mutex);
 218              		.loc 1 71 1 is_stmt 0
 219 0008 2A84     		mv	s0,a0
 220              		.loc 1 72 5
 221 000a 4841     		lw	a0,4(a0)
 222              	.LVL19:
  71:C:/Users/stapi/OneDrive/Desktop/GD32VW553/V1_MQTT_OK/GD32VW55X_Wifi_BLE_SDK/GD32VW55x_RELEASE_V1.0.2/MSDK/cloud/alicloud/src/services/shadow\shadow_update.c ****     HAL_MutexLock(pshadow->mutex);
 223              		.loc 1 71 1
 224 000c AE84     		mv	s1,a1
 225              		.loc 1 72 5
 226 000e 97000000 		call	HAL_MutexLock
 226      E7800000 
 227              	.LVL20:
  73:C:/Users/stapi/OneDrive/Desktop/GD32VW553/V1_MQTT_OK/GD32VW55X_Wifi_BLE_SDK/GD32VW55x_RELEASE_V1.0.2/MSDK/cloud/alicloud/src/services/shadow\shadow_update.c ****     element->flag_busy = 0;
 228              		.loc 1 73 5 is_stmt 1
  74:C:/Users/stapi/OneDrive/Desktop/GD32VW553/V1_MQTT_OK/GD32VW55X_Wifi_BLE_SDK/GD32VW55x_RELEASE_V1.0.2/MSDK/cloud/alicloud/src/services/shadow\shadow_update.c ****     memset(element, 0, sizeof(iotx_update_ack_wait_list_t));
 229              		.loc 1 74 5
 230 0016 13060009 		li	a2,144
 231 001a 8145     		li	a1,0
 232 001c 2685     		mv	a0,s1
 233 001e 97000000 		call	memset
 233      E7800000 
 234              	.LVL21:
  75:C:/Users/stapi/OneDrive/Desktop/GD32VW553/V1_MQTT_OK/GD32VW55X_Wifi_BLE_SDK/GD32VW55x_RELEASE_V1.0.2/MSDK/cloud/alicloud/src/services/shadow\shadow_update.c ****     HAL_MutexUnlock(pshadow->mutex);
 235              		.loc 1 75 5
 236 0026 4840     		lw	a0,4(s0)
 237 0028 97000000 		call	HAL_MutexUnlock
 237      E7800000 
 238              	.LVL22:
  76:C:/Users/stapi/OneDrive/Desktop/GD32VW553/V1_MQTT_OK/GD32VW55X_Wifi_BLE_SDK/GD32VW55x_RELEASE_V1.0.2/MSDK/cloud/alicloud/src/services/shadow\shadow_update.c **** }
 239              		.loc 1 76 1 is_stmt 0
 240 0030 17030000 		tail	__riscv_restore_2
 240      67000300 
 241              		.cfi_restore 9
 242              		.cfi_restore 8
 243              		.cfi_restore 1
 244              		.cfi_def_cfa_offset 0
 245              		.cfi_endproc
 246              	.LFE21:
 248              		.section	.text.iotx_ds_update_wait_ack_list_handle_expire,"ax",@progbits
 249              		.align	1
 250              		.globl	iotx_ds_update_wait_ack_list_handle_expire
 252              	iotx_ds_update_wait_ack_list_handle_expire:
 253              	.LFB22:
  77:C:/Users/stapi/OneDrive/Desktop/GD32VW553/V1_MQTT_OK/GD32VW55X_Wifi_BLE_SDK/GD32VW55x_RELEASE_V1.0.2/MSDK/cloud/alicloud/src/services/shadow\shadow_update.c **** 
  78:C:/Users/stapi/OneDrive/Desktop/GD32VW553/V1_MQTT_OK/GD32VW55X_Wifi_BLE_SDK/GD32VW55x_RELEASE_V1.0.2/MSDK/cloud/alicloud/src/services/shadow\shadow_update.c **** 
  79:C:/Users/stapi/OneDrive/Desktop/GD32VW553/V1_MQTT_OK/GD32VW55X_Wifi_BLE_SDK/GD32VW55x_RELEASE_V1.0.2/MSDK/cloud/alicloud/src/services/shadow\shadow_update.c **** void iotx_ds_update_wait_ack_list_handle_expire(iotx_shadow_pt pshadow)
  80:C:/Users/stapi/OneDrive/Desktop/GD32VW553/V1_MQTT_OK/GD32VW55X_Wifi_BLE_SDK/GD32VW55x_RELEASE_V1.0.2/MSDK/cloud/alicloud/src/services/shadow\shadow_update.c **** {
 254              		.loc 1 80 1 is_stmt 1
 255              		.cfi_startproc
 256              	.LVL23:
 257 0000 17030000 		call	t0,__riscv_save_3
 257      E7020300 
 258              		.cfi_offset 18, -16
 259              		.cfi_offset 9, -12
 260              		.cfi_offset 8, -8
 261              		.cfi_offset 1, -4
 262              		.cfi_def_cfa_offset 16
  81:C:/Users/stapi/OneDrive/Desktop/GD32VW553/V1_MQTT_OK/GD32VW55X_Wifi_BLE_SDK/GD32VW55x_RELEASE_V1.0.2/MSDK/cloud/alicloud/src/services/shadow\shadow_update.c ****     size_t i;
 263              		.loc 1 81 5
  82:C:/Users/stapi/OneDrive/Desktop/GD32VW553/V1_MQTT_OK/GD32VW55X_Wifi_BLE_SDK/GD32VW55x_RELEASE_V1.0.2/MSDK/cloud/alicloud/src/services/shadow\shadow_update.c **** 
  83:C:/Users/stapi/OneDrive/Desktop/GD32VW553/V1_MQTT_OK/GD32VW55X_Wifi_BLE_SDK/GD32VW55x_RELEASE_V1.0.2/MSDK/cloud/alicloud/src/services/shadow\shadow_update.c ****     iotx_update_ack_wait_list_pt pelement = pshadow->inner_data.update_ack_wait_list;
 264              		.loc 1 83 5
 265              	.LVL24:
  84:C:/Users/stapi/OneDrive/Desktop/GD32VW553/V1_MQTT_OK/GD32VW55X_Wifi_BLE_SDK/GD32VW55x_RELEASE_V1.0.2/MSDK/cloud/alicloud/src/services/shadow\shadow_update.c **** 
  85:C:/Users/stapi/OneDrive/Desktop/GD32VW553/V1_MQTT_OK/GD32VW55X_Wifi_BLE_SDK/GD32VW55x_RELEASE_V1.0.2/MSDK/cloud/alicloud/src/services/shadow\shadow_update.c ****     HAL_MutexLock(pshadow->mutex);
 266              		.loc 1 85 5
  80:C:/Users/stapi/OneDrive/Desktop/GD32VW553/V1_MQTT_OK/GD32VW55X_Wifi_BLE_SDK/GD32VW55x_RELEASE_V1.0.2/MSDK/cloud/alicloud/src/services/shadow\shadow_update.c ****     size_t i;
 267              		.loc 1 80 1 is_stmt 0
 268 0008 AA84     		mv	s1,a0
 269              		.loc 1 85 5
 270 000a 4841     		lw	a0,4(a0)
 271              	.LVL25:
 272 000c 13848401 		addi	s0,s1,24
 273              	.LVL26:
 274 0010 1389842E 		addi	s2,s1,744
 275 0014 97000000 		call	HAL_MutexLock
 275      E7800000 
 276              	.LVL27:
  86:C:/Users/stapi/OneDrive/Desktop/GD32VW553/V1_MQTT_OK/GD32VW55X_Wifi_BLE_SDK/GD32VW55x_RELEASE_V1.0.2/MSDK/cloud/alicloud/src/services/shadow\shadow_update.c **** 
  87:C:/Users/stapi/OneDrive/Desktop/GD32VW553/V1_MQTT_OK/GD32VW55X_Wifi_BLE_SDK/GD32VW55x_RELEASE_V1.0.2/MSDK/cloud/alicloud/src/services/shadow\shadow_update.c ****     for (i = 0; i < IOTX_DS_UPDATE_WAIT_ACK_LIST_NUM; ++i) {
 277              		.loc 1 87 5 is_stmt 1
 278              		.loc 1 87 17
 279              	.L17:
  88:C:/Users/stapi/OneDrive/Desktop/GD32VW553/V1_MQTT_OK/GD32VW55X_Wifi_BLE_SDK/GD32VW55x_RELEASE_V1.0.2/MSDK/cloud/alicloud/src/services/shadow\shadow_update.c ****         if (0 != pelement[i].flag_busy) {
 280              		.loc 1 88 9
 281              		.loc 1 88 12 is_stmt 0
 282 001c 1C40     		lw	a5,0(s0)
 283 001e 8DCB     		beq	a5,zero,.L14
  89:C:/Users/stapi/OneDrive/Desktop/GD32VW553/V1_MQTT_OK/GD32VW55X_Wifi_BLE_SDK/GD32VW55x_RELEASE_V1.0.2/MSDK/cloud/alicloud/src/services/shadow\shadow_update.c ****             if (utils_time_is_expired(&pelement[i].timer)) {
 284              		.loc 1 89 13 is_stmt 1
 285              		.loc 1 89 17 is_stmt 0
 286 0020 1305C408 		addi	a0,s0,140
 287 0024 97000000 		call	utils_time_is_expired
 287      E7800000 
 288              	.LVL28:
 289              		.loc 1 89 16
 290 002c 15C1     		beq	a0,zero,.L14
  90:C:/Users/stapi/OneDrive/Desktop/GD32VW553/V1_MQTT_OK/GD32VW55X_Wifi_BLE_SDK/GD32VW55x_RELEASE_V1.0.2/MSDK/cloud/alicloud/src/services/shadow\shadow_update.c ****                 if (NULL != pelement[i].callback) {
 291              		.loc 1 90 17 is_stmt 1
 292              		.loc 1 90 40 is_stmt 0
 293 002e 83274408 		lw	a5,132(s0)
 294              		.loc 1 90 20
 295 0032 99C7     		beq	a5,zero,.L16
  91:C:/Users/stapi/OneDrive/Desktop/GD32VW553/V1_MQTT_OK/GD32VW55X_Wifi_BLE_SDK/GD32VW55x_RELEASE_V1.0.2/MSDK/cloud/alicloud/src/services/shadow\shadow_update.c ****                     pelement[i].callback(pelement[i].pcontext, IOTX_SHADOW_ACK_TIMEOUT, NULL, 0);
 296              		.loc 1 91 21 is_stmt 1
 297 0034 03258408 		lw	a0,136(s0)
 298 0038 8146     		li	a3,0
 299 003a 0146     		li	a2,0
 300 003c FD55     		li	a1,-1
 301 003e 8297     		jalr	a5
 302              	.LVL29:
 303              	.L16:
  92:C:/Users/stapi/OneDrive/Desktop/GD32VW553/V1_MQTT_OK/GD32VW55X_Wifi_BLE_SDK/GD32VW55x_RELEASE_V1.0.2/MSDK/cloud/alicloud/src/services/shadow\shadow_update.c ****                 }
  93:C:/Users/stapi/OneDrive/Desktop/GD32VW553/V1_MQTT_OK/GD32VW55X_Wifi_BLE_SDK/GD32VW55x_RELEASE_V1.0.2/MSDK/cloud/alicloud/src/services/shadow\shadow_update.c ****                 /* free it. */
  94:C:/Users/stapi/OneDrive/Desktop/GD32VW553/V1_MQTT_OK/GD32VW55X_Wifi_BLE_SDK/GD32VW55x_RELEASE_V1.0.2/MSDK/cloud/alicloud/src/services/shadow\shadow_update.c ****                 memset(&pelement[i], 0, sizeof(iotx_update_ack_wait_list_t));
 304              		.loc 1 94 17
 305 0040 13060009 		li	a2,144
 306 0044 8145     		li	a1,0
 307 0046 2285     		mv	a0,s0
 308 0048 97000000 		call	memset
 308      E7800000 
 309              	.LVL30:
 310              	.L14:
  87:C:/Users/stapi/OneDrive/Desktop/GD32VW553/V1_MQTT_OK/GD32VW55X_Wifi_BLE_SDK/GD32VW55x_RELEASE_V1.0.2/MSDK/cloud/alicloud/src/services/shadow\shadow_update.c ****         if (0 != pelement[i].flag_busy) {
 311              		.loc 1 87 55 discriminator 2
  87:C:/Users/stapi/OneDrive/Desktop/GD32VW553/V1_MQTT_OK/GD32VW55X_Wifi_BLE_SDK/GD32VW55x_RELEASE_V1.0.2/MSDK/cloud/alicloud/src/services/shadow\shadow_update.c ****         if (0 != pelement[i].flag_busy) {
 312              		.loc 1 87 17 discriminator 2
  87:C:/Users/stapi/OneDrive/Desktop/GD32VW553/V1_MQTT_OK/GD32VW55X_Wifi_BLE_SDK/GD32VW55x_RELEASE_V1.0.2/MSDK/cloud/alicloud/src/services/shadow\shadow_update.c ****         if (0 != pelement[i].flag_busy) {
 313              		.loc 1 87 5 is_stmt 0 discriminator 2
 314 0050 13040409 		addi	s0,s0,144
 315 0054 E31424FD 		bne	s0,s2,.L17
  95:C:/Users/stapi/OneDrive/Desktop/GD32VW553/V1_MQTT_OK/GD32VW55X_Wifi_BLE_SDK/GD32VW55x_RELEASE_V1.0.2/MSDK/cloud/alicloud/src/services/shadow\shadow_update.c ****             }
  96:C:/Users/stapi/OneDrive/Desktop/GD32VW553/V1_MQTT_OK/GD32VW55X_Wifi_BLE_SDK/GD32VW55x_RELEASE_V1.0.2/MSDK/cloud/alicloud/src/services/shadow\shadow_update.c ****         }
  97:C:/Users/stapi/OneDrive/Desktop/GD32VW553/V1_MQTT_OK/GD32VW55X_Wifi_BLE_SDK/GD32VW55x_RELEASE_V1.0.2/MSDK/cloud/alicloud/src/services/shadow\shadow_update.c ****     }
  98:C:/Users/stapi/OneDrive/Desktop/GD32VW553/V1_MQTT_OK/GD32VW55X_Wifi_BLE_SDK/GD32VW55x_RELEASE_V1.0.2/MSDK/cloud/alicloud/src/services/shadow\shadow_update.c **** 
  99:C:/Users/stapi/OneDrive/Desktop/GD32VW553/V1_MQTT_OK/GD32VW55X_Wifi_BLE_SDK/GD32VW55x_RELEASE_V1.0.2/MSDK/cloud/alicloud/src/services/shadow\shadow_update.c ****     HAL_MutexUnlock(pshadow->mutex);
 316              		.loc 1 99 5 is_stmt 1
 317 0058 C840     		lw	a0,4(s1)
 318 005a 97000000 		call	HAL_MutexUnlock
 318      E7800000 
 319              	.LVL31:
 100:C:/Users/stapi/OneDrive/Desktop/GD32VW553/V1_MQTT_OK/GD32VW55X_Wifi_BLE_SDK/GD32VW55x_RELEASE_V1.0.2/MSDK/cloud/alicloud/src/services/shadow\shadow_update.c **** }
 320              		.loc 1 100 1 is_stmt 0
 321 0062 17030000 		tail	__riscv_restore_3
 321      67000300 
 322              		.cfi_restore 18
 323              		.cfi_restore 9
 324              		.cfi_restore 8
 325              		.cfi_restore 1
 326              		.cfi_def_cfa_offset 0
 327              		.cfi_endproc
 328              	.LFE22:
 330              		.section	.rodata.iotx_shadow_do_callback.str1.4,"aMS",@progbits,1
 331              		.align	2
 332              	.LC5:
 333 0000 416C6C6F 		.string	"Allocate memory failed"
 333      63617465 
 333      206D656D 
 333      6F727920 
 333      6661696C 
 334              		.section	.text.iotx_shadow_do_callback,"ax",@progbits
 335              		.align	1
 336              		.globl	iotx_shadow_do_callback
 338              	iotx_shadow_do_callback:
 339              	.LFB23:
 101:C:/Users/stapi/OneDrive/Desktop/GD32VW553/V1_MQTT_OK/GD32VW55X_Wifi_BLE_SDK/GD32VW55x_RELEASE_V1.0.2/MSDK/cloud/alicloud/src/services/shadow\shadow_update.c **** 
 102:C:/Users/stapi/OneDrive/Desktop/GD32VW553/V1_MQTT_OK/GD32VW55X_Wifi_BLE_SDK/GD32VW55x_RELEASE_V1.0.2/MSDK/cloud/alicloud/src/services/shadow\shadow_update.c **** void iotx_shadow_do_callback(iotx_shadow_pt pshadow)
 103:C:/Users/stapi/OneDrive/Desktop/GD32VW553/V1_MQTT_OK/GD32VW55X_Wifi_BLE_SDK/GD32VW55x_RELEASE_V1.0.2/MSDK/cloud/alicloud/src/services/shadow\shadow_update.c **** {
 340              		.loc 1 103 1 is_stmt 1
 341              		.cfi_startproc
 342              	.LVL32:
 343 0000 17030000 		call	t0,__riscv_save_4
 343      E7020300 
 344              		.cfi_offset 19, -20
 345              		.cfi_offset 18, -16
 346              		.cfi_offset 9, -12
 347              		.cfi_offset 8, -8
 348              		.cfi_offset 1, -4
 349              		.cfi_def_cfa_offset 32
 104:C:/Users/stapi/OneDrive/Desktop/GD32VW553/V1_MQTT_OK/GD32VW55X_Wifi_BLE_SDK/GD32VW55x_RELEASE_V1.0.2/MSDK/cloud/alicloud/src/services/shadow\shadow_update.c ****     const char *pvalue;
 350              		.loc 1 104 5
 105:C:/Users/stapi/OneDrive/Desktop/GD32VW553/V1_MQTT_OK/GD32VW55X_Wifi_BLE_SDK/GD32VW55x_RELEASE_V1.0.2/MSDK/cloud/alicloud/src/services/shadow\shadow_update.c ****     iotx_shadow_attr_pt pattr;
 351              		.loc 1 105 5
 106:C:/Users/stapi/OneDrive/Desktop/GD32VW553/V1_MQTT_OK/GD32VW55X_Wifi_BLE_SDK/GD32VW55x_RELEASE_V1.0.2/MSDK/cloud/alicloud/src/services/shadow\shadow_update.c ****     list_iterator_t *iter;
 352              		.loc 1 106 5
 107:C:/Users/stapi/OneDrive/Desktop/GD32VW553/V1_MQTT_OK/GD32VW55X_Wifi_BLE_SDK/GD32VW55x_RELEASE_V1.0.2/MSDK/cloud/alicloud/src/services/shadow\shadow_update.c ****     list_node_t *node;
 353              		.loc 1 107 5
 108:C:/Users/stapi/OneDrive/Desktop/GD32VW553/V1_MQTT_OK/GD32VW55X_Wifi_BLE_SDK/GD32VW55x_RELEASE_V1.0.2/MSDK/cloud/alicloud/src/services/shadow\shadow_update.c **** 
 109:C:/Users/stapi/OneDrive/Desktop/GD32VW553/V1_MQTT_OK/GD32VW55X_Wifi_BLE_SDK/GD32VW55x_RELEASE_V1.0.2/MSDK/cloud/alicloud/src/services/shadow\shadow_update.c ****     HAL_MutexLock(pshadow->mutex);
 354              		.loc 1 109 5
 103:C:/Users/stapi/OneDrive/Desktop/GD32VW553/V1_MQTT_OK/GD32VW55X_Wifi_BLE_SDK/GD32VW55x_RELEASE_V1.0.2/MSDK/cloud/alicloud/src/services/shadow\shadow_update.c ****     const char *pvalue;
 355              		.loc 1 103 1 is_stmt 0
 356 0008 2A84     		mv	s0,a0
 357              		.loc 1 109 5
 358 000a 4841     		lw	a0,4(a0)
 359              	.LVL33:
 110:C:/Users/stapi/OneDrive/Desktop/GD32VW553/V1_MQTT_OK/GD32VW55X_Wifi_BLE_SDK/GD32VW55x_RELEASE_V1.0.2/MSDK/cloud/alicloud/src/services/shadow\shadow_update.c ****     iter = list_iterator_new(pshadow->inner_data.attr_list, LIST_TAIL);
 111:C:/Users/stapi/OneDrive/Desktop/GD32VW553/V1_MQTT_OK/GD32VW55X_Wifi_BLE_SDK/GD32VW55x_RELEASE_V1.0.2/MSDK/cloud/alicloud/src/services/shadow\shadow_update.c ****     if (NULL == iter) {
 112:C:/Users/stapi/OneDrive/Desktop/GD32VW553/V1_MQTT_OK/GD32VW55X_Wifi_BLE_SDK/GD32VW55x_RELEASE_V1.0.2/MSDK/cloud/alicloud/src/services/shadow\shadow_update.c ****         HAL_MutexUnlock(pshadow->mutex);
 113:C:/Users/stapi/OneDrive/Desktop/GD32VW553/V1_MQTT_OK/GD32VW55X_Wifi_BLE_SDK/GD32VW55x_RELEASE_V1.0.2/MSDK/cloud/alicloud/src/services/shadow\shadow_update.c ****         shadow_warning("Allocate memory failed");
 114:C:/Users/stapi/OneDrive/Desktop/GD32VW553/V1_MQTT_OK/GD32VW55X_Wifi_BLE_SDK/GD32VW55x_RELEASE_V1.0.2/MSDK/cloud/alicloud/src/services/shadow\shadow_update.c ****         return ;
 115:C:/Users/stapi/OneDrive/Desktop/GD32VW553/V1_MQTT_OK/GD32VW55X_Wifi_BLE_SDK/GD32VW55x_RELEASE_V1.0.2/MSDK/cloud/alicloud/src/services/shadow\shadow_update.c ****     }
 116:C:/Users/stapi/OneDrive/Desktop/GD32VW553/V1_MQTT_OK/GD32VW55X_Wifi_BLE_SDK/GD32VW55x_RELEASE_V1.0.2/MSDK/cloud/alicloud/src/services/shadow\shadow_update.c **** 
 117:C:/Users/stapi/OneDrive/Desktop/GD32VW553/V1_MQTT_OK/GD32VW55X_Wifi_BLE_SDK/GD32VW55x_RELEASE_V1.0.2/MSDK/cloud/alicloud/src/services/shadow\shadow_update.c ****     while (node = list_iterator_next(iter), NULL != node) {
 118:C:/Users/stapi/OneDrive/Desktop/GD32VW553/V1_MQTT_OK/GD32VW55X_Wifi_BLE_SDK/GD32VW55x_RELEASE_V1.0.2/MSDK/cloud/alicloud/src/services/shadow\shadow_update.c ****         pattr = (iotx_shadow_attr_pt)node->val;
 119:C:/Users/stapi/OneDrive/Desktop/GD32VW553/V1_MQTT_OK/GD32VW55X_Wifi_BLE_SDK/GD32VW55x_RELEASE_V1.0.2/MSDK/cloud/alicloud/src/services/shadow\shadow_update.c ****         if((pattr != NULL) && (pattr->flag_update == 1) && (NULL != pattr->callback)){
 360              		.loc 1 119 28
 361 000c 8549     		li	s3,1
 109:C:/Users/stapi/OneDrive/Desktop/GD32VW553/V1_MQTT_OK/GD32VW55X_Wifi_BLE_SDK/GD32VW55x_RELEASE_V1.0.2/MSDK/cloud/alicloud/src/services/shadow\shadow_update.c ****     iter = list_iterator_new(pshadow->inner_data.attr_list, LIST_TAIL);
 362              		.loc 1 109 5
 363 000e 97000000 		call	HAL_MutexLock
 363      E7800000 
 364              	.LVL34:
 110:C:/Users/stapi/OneDrive/Desktop/GD32VW553/V1_MQTT_OK/GD32VW55X_Wifi_BLE_SDK/GD32VW55x_RELEASE_V1.0.2/MSDK/cloud/alicloud/src/services/shadow\shadow_update.c ****     iter = list_iterator_new(pshadow->inner_data.attr_list, LIST_TAIL);
 365              		.loc 1 110 5 is_stmt 1
 110:C:/Users/stapi/OneDrive/Desktop/GD32VW553/V1_MQTT_OK/GD32VW55X_Wifi_BLE_SDK/GD32VW55x_RELEASE_V1.0.2/MSDK/cloud/alicloud/src/services/shadow\shadow_update.c ****     iter = list_iterator_new(pshadow->inner_data.attr_list, LIST_TAIL);
 366              		.loc 1 110 12 is_stmt 0
 367 0016 0325842E 		lw	a0,744(s0)
 368 001a 8545     		li	a1,1
 369 001c 97000000 		call	list_iterator_new
 369      E7800000 
 370              	.LVL35:
 371 0024 2A89     		mv	s2,a0
 372              	.LVL36:
 111:C:/Users/stapi/OneDrive/Desktop/GD32VW553/V1_MQTT_OK/GD32VW55X_Wifi_BLE_SDK/GD32VW55x_RELEASE_V1.0.2/MSDK/cloud/alicloud/src/services/shadow\shadow_update.c ****         HAL_MutexUnlock(pshadow->mutex);
 373              		.loc 1 111 5 is_stmt 1
 111:C:/Users/stapi/OneDrive/Desktop/GD32VW553/V1_MQTT_OK/GD32VW55X_Wifi_BLE_SDK/GD32VW55x_RELEASE_V1.0.2/MSDK/cloud/alicloud/src/services/shadow\shadow_update.c ****         HAL_MutexUnlock(pshadow->mutex);
 374              		.loc 1 111 8 is_stmt 0
 375 0026 25E1     		bne	a0,zero,.L27
 112:C:/Users/stapi/OneDrive/Desktop/GD32VW553/V1_MQTT_OK/GD32VW55X_Wifi_BLE_SDK/GD32VW55x_RELEASE_V1.0.2/MSDK/cloud/alicloud/src/services/shadow\shadow_update.c ****         shadow_warning("Allocate memory failed");
 376              		.loc 1 112 9 is_stmt 1
 377 0028 4840     		lw	a0,4(s0)
 378              	.LVL37:
 379 002a 97000000 		call	HAL_MutexUnlock
 379      E7800000 
 380              	.LVL38:
 113:C:/Users/stapi/OneDrive/Desktop/GD32VW553/V1_MQTT_OK/GD32VW55X_Wifi_BLE_SDK/GD32VW55x_RELEASE_V1.0.2/MSDK/cloud/alicloud/src/services/shadow\shadow_update.c ****         return ;
 381              		.loc 1 113 9
 113:C:/Users/stapi/OneDrive/Desktop/GD32VW553/V1_MQTT_OK/GD32VW55X_Wifi_BLE_SDK/GD32VW55x_RELEASE_V1.0.2/MSDK/cloud/alicloud/src/services/shadow\shadow_update.c ****         return ;
 382              		.loc 1 113 9
 383 0032 37050000 		lui	a0,%hi(.LC0)
 384 0036 13050500 		addi	a0,a0,%lo(.LC0)
 385 003a 97000000 		call	HAL_Printf
 385      E7800000 
 386              	.LVL39:
 113:C:/Users/stapi/OneDrive/Desktop/GD32VW553/V1_MQTT_OK/GD32VW55X_Wifi_BLE_SDK/GD32VW55x_RELEASE_V1.0.2/MSDK/cloud/alicloud/src/services/shadow\shadow_update.c ****         return ;
 387              		.loc 1 113 9
 388 0042 37050000 		lui	a0,%hi(.LC5)
 389 0046 13050500 		addi	a0,a0,%lo(.LC5)
 390 004a 97000000 		call	HAL_Printf
 390      E7800000 
 391              	.LVL40:
 113:C:/Users/stapi/OneDrive/Desktop/GD32VW553/V1_MQTT_OK/GD32VW55X_Wifi_BLE_SDK/GD32VW55x_RELEASE_V1.0.2/MSDK/cloud/alicloud/src/services/shadow\shadow_update.c ****         return ;
 392              		.loc 1 113 9
 393 0052 37050000 		lui	a0,%hi(.LC2)
 394 0056 13050500 		addi	a0,a0,%lo(.LC2)
 395 005a 97000000 		call	HAL_Printf
 395      E7800000 
 396              	.LVL41:
 113:C:/Users/stapi/OneDrive/Desktop/GD32VW553/V1_MQTT_OK/GD32VW55X_Wifi_BLE_SDK/GD32VW55x_RELEASE_V1.0.2/MSDK/cloud/alicloud/src/services/shadow\shadow_update.c ****         return ;
 397              		.loc 1 113 9
 114:C:/Users/stapi/OneDrive/Desktop/GD32VW553/V1_MQTT_OK/GD32VW55X_Wifi_BLE_SDK/GD32VW55x_RELEASE_V1.0.2/MSDK/cloud/alicloud/src/services/shadow\shadow_update.c ****     }
 398              		.loc 1 114 9
 399              	.L26:
 120:C:/Users/stapi/OneDrive/Desktop/GD32VW553/V1_MQTT_OK/GD32VW55X_Wifi_BLE_SDK/GD32VW55x_RELEASE_V1.0.2/MSDK/cloud/alicloud/src/services/shadow\shadow_update.c **** 
 121:C:/Users/stapi/OneDrive/Desktop/GD32VW553/V1_MQTT_OK/GD32VW55X_Wifi_BLE_SDK/GD32VW55x_RELEASE_V1.0.2/MSDK/cloud/alicloud/src/services/shadow\shadow_update.c ****             //HAL_MutexUnlock(pshadow->mutex);
 122:C:/Users/stapi/OneDrive/Desktop/GD32VW553/V1_MQTT_OK/GD32VW55X_Wifi_BLE_SDK/GD32VW55x_RELEASE_V1.0.2/MSDK/cloud/alicloud/src/services/shadow\shadow_update.c ****             /* call related callback function */
 123:C:/Users/stapi/OneDrive/Desktop/GD32VW553/V1_MQTT_OK/GD32VW55X_Wifi_BLE_SDK/GD32VW55x_RELEASE_V1.0.2/MSDK/cloud/alicloud/src/services/shadow\shadow_update.c ****             pattr->callback(pattr);
 124:C:/Users/stapi/OneDrive/Desktop/GD32VW553/V1_MQTT_OK/GD32VW55X_Wifi_BLE_SDK/GD32VW55x_RELEASE_V1.0.2/MSDK/cloud/alicloud/src/services/shadow\shadow_update.c ****             //HAL_MutexLock(pshadow->mutex);
 125:C:/Users/stapi/OneDrive/Desktop/GD32VW553/V1_MQTT_OK/GD32VW55X_Wifi_BLE_SDK/GD32VW55x_RELEASE_V1.0.2/MSDK/cloud/alicloud/src/services/shadow\shadow_update.c ****             pattr->method_type = SHADOW_DOWNSTREAM_METHOD_IGNORE;
 126:C:/Users/stapi/OneDrive/Desktop/GD32VW553/V1_MQTT_OK/GD32VW55X_Wifi_BLE_SDK/GD32VW55x_RELEASE_V1.0.2/MSDK/cloud/alicloud/src/services/shadow\shadow_update.c ****             pattr->flag_update = 0;
 127:C:/Users/stapi/OneDrive/Desktop/GD32VW553/V1_MQTT_OK/GD32VW55X_Wifi_BLE_SDK/GD32VW55x_RELEASE_V1.0.2/MSDK/cloud/alicloud/src/services/shadow\shadow_update.c ****         }
 128:C:/Users/stapi/OneDrive/Desktop/GD32VW553/V1_MQTT_OK/GD32VW55X_Wifi_BLE_SDK/GD32VW55x_RELEASE_V1.0.2/MSDK/cloud/alicloud/src/services/shadow\shadow_update.c ****     }
 129:C:/Users/stapi/OneDrive/Desktop/GD32VW553/V1_MQTT_OK/GD32VW55X_Wifi_BLE_SDK/GD32VW55x_RELEASE_V1.0.2/MSDK/cloud/alicloud/src/services/shadow\shadow_update.c **** 
 130:C:/Users/stapi/OneDrive/Desktop/GD32VW553/V1_MQTT_OK/GD32VW55X_Wifi_BLE_SDK/GD32VW55x_RELEASE_V1.0.2/MSDK/cloud/alicloud/src/services/shadow\shadow_update.c ****     list_iterator_destroy(iter);
 131:C:/Users/stapi/OneDrive/Desktop/GD32VW553/V1_MQTT_OK/GD32VW55X_Wifi_BLE_SDK/GD32VW55x_RELEASE_V1.0.2/MSDK/cloud/alicloud/src/services/shadow\shadow_update.c ****     HAL_MutexUnlock(pshadow->mutex);
 132:C:/Users/stapi/OneDrive/Desktop/GD32VW553/V1_MQTT_OK/GD32VW55X_Wifi_BLE_SDK/GD32VW55x_RELEASE_V1.0.2/MSDK/cloud/alicloud/src/services/shadow\shadow_update.c **** }
 400              		.loc 1 132 1 is_stmt 0
 401 0062 17030000 		tail	__riscv_restore_4
 401      67000300 
 402              		.cfi_remember_state
 403              		.cfi_restore 19
 404              		.cfi_restore 18
 405              		.cfi_restore 9
 406              		.cfi_restore 8
 407              		.cfi_restore 1
 408              		.cfi_def_cfa_offset 0
 409              	.LVL42:
 410              	.L30:
 411              		.cfi_restore_state
 118:C:/Users/stapi/OneDrive/Desktop/GD32VW553/V1_MQTT_OK/GD32VW55X_Wifi_BLE_SDK/GD32VW55x_RELEASE_V1.0.2/MSDK/cloud/alicloud/src/services/shadow\shadow_update.c ****         if((pattr != NULL) && (pattr->flag_update == 1) && (NULL != pattr->callback)){
 412              		.loc 1 118 9 is_stmt 1
 118:C:/Users/stapi/OneDrive/Desktop/GD32VW553/V1_MQTT_OK/GD32VW55X_Wifi_BLE_SDK/GD32VW55x_RELEASE_V1.0.2/MSDK/cloud/alicloud/src/services/shadow\shadow_update.c ****         if((pattr != NULL) && (pattr->flag_update == 1) && (NULL != pattr->callback)){
 413              		.loc 1 118 15 is_stmt 0
 414 006a 0445     		lw	s1,8(a0)
 415              	.LVL43:
 119:C:/Users/stapi/OneDrive/Desktop/GD32VW553/V1_MQTT_OK/GD32VW55X_Wifi_BLE_SDK/GD32VW55x_RELEASE_V1.0.2/MSDK/cloud/alicloud/src/services/shadow\shadow_update.c **** 
 416              		.loc 1 119 9 is_stmt 1
 119:C:/Users/stapi/OneDrive/Desktop/GD32VW553/V1_MQTT_OK/GD32VW55X_Wifi_BLE_SDK/GD32VW55x_RELEASE_V1.0.2/MSDK/cloud/alicloud/src/services/shadow\shadow_update.c **** 
 417              		.loc 1 119 11 is_stmt 0
 418 006c 89CC     		beq	s1,zero,.L27
 119:C:/Users/stapi/OneDrive/Desktop/GD32VW553/V1_MQTT_OK/GD32VW55X_Wifi_BLE_SDK/GD32VW55x_RELEASE_V1.0.2/MSDK/cloud/alicloud/src/services/shadow\shadow_update.c **** 
 419              		.loc 1 119 28 discriminator 1
 420 006e 83878401 		lb	a5,24(s1)
 421 0072 639A3701 		bne	a5,s3,.L27
 119:C:/Users/stapi/OneDrive/Desktop/GD32VW553/V1_MQTT_OK/GD32VW55X_Wifi_BLE_SDK/GD32VW55x_RELEASE_V1.0.2/MSDK/cloud/alicloud/src/services/shadow\shadow_update.c **** 
 422              		.loc 1 119 74 discriminator 2
 423 0076 DC48     		lw	a5,20(s1)
 119:C:/Users/stapi/OneDrive/Desktop/GD32VW553/V1_MQTT_OK/GD32VW55X_Wifi_BLE_SDK/GD32VW55x_RELEASE_V1.0.2/MSDK/cloud/alicloud/src/services/shadow\shadow_update.c **** 
 424              		.loc 1 119 57 discriminator 2
 425 0078 99C7     		beq	a5,zero,.L27
 123:C:/Users/stapi/OneDrive/Desktop/GD32VW553/V1_MQTT_OK/GD32VW55X_Wifi_BLE_SDK/GD32VW55x_RELEASE_V1.0.2/MSDK/cloud/alicloud/src/services/shadow\shadow_update.c ****             //HAL_MutexLock(pshadow->mutex);
 426              		.loc 1 123 13 is_stmt 1
 427 007a 2685     		mv	a0,s1
 428              	.LVL44:
 429 007c 8297     		jalr	a5
 430              	.LVL45:
 125:C:/Users/stapi/OneDrive/Desktop/GD32VW553/V1_MQTT_OK/GD32VW55X_Wifi_BLE_SDK/GD32VW55x_RELEASE_V1.0.2/MSDK/cloud/alicloud/src/services/shadow\shadow_update.c ****             pattr->flag_update = 0;
 431              		.loc 1 125 13
 125:C:/Users/stapi/OneDrive/Desktop/GD32VW553/V1_MQTT_OK/GD32VW55X_Wifi_BLE_SDK/GD32VW55x_RELEASE_V1.0.2/MSDK/cloud/alicloud/src/services/shadow\shadow_update.c ****             pattr->flag_update = 0;
 432              		.loc 1 125 32 is_stmt 0
 433 007e 23AE0400 		sw	zero,28(s1)
 126:C:/Users/stapi/OneDrive/Desktop/GD32VW553/V1_MQTT_OK/GD32VW55X_Wifi_BLE_SDK/GD32VW55x_RELEASE_V1.0.2/MSDK/cloud/alicloud/src/services/shadow\shadow_update.c ****         }
 434              		.loc 1 126 13 is_stmt 1
 126:C:/Users/stapi/OneDrive/Desktop/GD32VW553/V1_MQTT_OK/GD32VW55X_Wifi_BLE_SDK/GD32VW55x_RELEASE_V1.0.2/MSDK/cloud/alicloud/src/services/shadow\shadow_update.c ****         }
 435              		.loc 1 126 32 is_stmt 0
 436 0082 238C0400 		sb	zero,24(s1)
 437              	.LVL46:
 438              	.L27:
 117:C:/Users/stapi/OneDrive/Desktop/GD32VW553/V1_MQTT_OK/GD32VW55X_Wifi_BLE_SDK/GD32VW55x_RELEASE_V1.0.2/MSDK/cloud/alicloud/src/services/shadow\shadow_update.c ****         pattr = (iotx_shadow_attr_pt)node->val;
 439              		.loc 1 117 11 is_stmt 1
 117:C:/Users/stapi/OneDrive/Desktop/GD32VW553/V1_MQTT_OK/GD32VW55X_Wifi_BLE_SDK/GD32VW55x_RELEASE_V1.0.2/MSDK/cloud/alicloud/src/services/shadow\shadow_update.c ****         pattr = (iotx_shadow_attr_pt)node->val;
 440              		.loc 1 117 19 is_stmt 0
 441 0086 4A85     		mv	a0,s2
 442 0088 97000000 		call	list_iterator_next
 442      E7800000 
 443              	.LVL47:
 117:C:/Users/stapi/OneDrive/Desktop/GD32VW553/V1_MQTT_OK/GD32VW55X_Wifi_BLE_SDK/GD32VW55x_RELEASE_V1.0.2/MSDK/cloud/alicloud/src/services/shadow\shadow_update.c ****         pattr = (iotx_shadow_attr_pt)node->val;
 444              		.loc 1 117 11
 445 0090 69FD     		bne	a0,zero,.L30
 130:C:/Users/stapi/OneDrive/Desktop/GD32VW553/V1_MQTT_OK/GD32VW55X_Wifi_BLE_SDK/GD32VW55x_RELEASE_V1.0.2/MSDK/cloud/alicloud/src/services/shadow\shadow_update.c ****     HAL_MutexUnlock(pshadow->mutex);
 446              		.loc 1 130 5 is_stmt 1
 447 0092 4A85     		mv	a0,s2
 448              	.LVL48:
 449 0094 97000000 		call	list_iterator_destroy
 449      E7800000 
 450              	.LVL49:
 131:C:/Users/stapi/OneDrive/Desktop/GD32VW553/V1_MQTT_OK/GD32VW55X_Wifi_BLE_SDK/GD32VW55x_RELEASE_V1.0.2/MSDK/cloud/alicloud/src/services/shadow\shadow_update.c **** }
 451              		.loc 1 131 5
 452 009c 4840     		lw	a0,4(s0)
 453 009e 97000000 		call	HAL_MutexUnlock
 453      E7800000 
 454              	.LVL50:
 455 00a6 75BF     		j	.L26
 456              		.cfi_endproc
 457              	.LFE23:
 459              		.section	.rodata.iotx_ds_update_wait_ack_list_handle_response.str1.4,"aMS",@progbits,1
 460              		.align	2
 461              	.LC6:
 462 0000 636C6965 		.string	"clientToken"
 462      6E74546F 
 462      6B656E00 
 463              		.align	2
 464              	.LC7:
 465 000c 496E7661 		.string	"Invalid JSON document: not 'clientToken' key"
 465      6C696420 
 465      4A534F4E 
 465      20646F63 
 465      756D656E 
 466 0039 000000   		.align	2
 467              	.LC8:
 468 003c 7061796C 		.string	"payload"
 468      6F616400 
 469              		.align	2
 470              	.LC9:
 471 0044 496E7661 		.string	"Invalid JSON document: not 'payload' key"
 471      6C696420 
 471      4A534F4E 
 471      20646F63 
 471      756D656E 
 472 006d 000000   		.align	2
 473              	.LC10:
 474 0070 70706179 		.string	"ppayload = %s"
 474      6C6F6164 
 474      203D2025 
 474      7300
 475 007e 0000     		.align	2
 476              	.LC11:
 477 0080 746F6B65 		.string	"token=%s"
 477      6E3D2573 
 477      00
 478 0089 000000   		.align	2
 479              	.LC12:
 480 008c 73746174 		.string	"status"
 480      757300
 481 0093 00       		.align	2
 482              	.LC13:
 483 0094 496E7661 		.string	"Invalid JSON document: not 'payload.status' key"
 483      6C696420 
 483      4A534F4E 
 483      20646F63 
 483      756D656E 
 484              		.align	2
 485              	.LC14:
 486 00c4 73756363 		.string	"success"
 486      65737300 
 487              		.align	2
 488              	.LC15:
 489 00cc 73746174 		.string	"state"
 489      6500
 490 00d2 0000     		.align	2
 491              	.LC16:
 492 00d4 6572726F 		.string	"error"
 492      7200
 493 00da 0000     		.align	2
 494              	.LC17:
 495 00dc 636F6E74 		.string	"content.errorcode"
 495      656E742E 
 495      6572726F 
 495      72636F64 
 495      6500
 496 00ee 0000     		.align	2
 497              	.LC18:
 498 00f0 496E7661 		.string	"Invalid JSON document: not 'content.errorcode' key"
 498      6C696420 
 498      4A534F4E 
 498      20646F63 
 498      756D656E 
 499 0123 00       		.align	2
 500              	.LC19:
 501 0124 636F6E74 		.string	"content.errormessage"
 501      656E742E 
 501      6572726F 
 501      726D6573 
 501      73616765 
 502 0139 000000   		.align	2
 503              	.LC20:
 504 013c 496E7661 		.string	"Invalid JSON document: not 'content.errormessage' key"
 504      6C696420 
 504      4A534F4E 
 504      20646F63 
 504      756D656E 
 505 0172 0000     		.align	2
 506              	.LC21:
 507 0174 496E7661 		.string	"Invalid JSON document: value of 'status' key is invalid."
 507      6C696420 
 507      4A534F4E 
 507      20646F63 
 507      756D656E 
 508 01ad 000000   		.align	2
 509              	.LC22:
 510 01b0 4E6F7420 		.string	"Not match any wait element in list."
 510      6D617463 
 510      6820616E 
 510      79207761 
 510      69742065 
 511              		.section	.text.iotx_ds_update_wait_ack_list_handle_response,"ax",@progbits
 512              		.align	1
 513              		.globl	iotx_ds_update_wait_ack_list_handle_response
 515              	iotx_ds_update_wait_ack_list_handle_response:
 516              	.LFB24:
 133:C:/Users/stapi/OneDrive/Desktop/GD32VW553/V1_MQTT_OK/GD32VW55X_Wifi_BLE_SDK/GD32VW55x_RELEASE_V1.0.2/MSDK/cloud/alicloud/src/services/shadow\shadow_update.c **** 
 134:C:/Users/stapi/OneDrive/Desktop/GD32VW553/V1_MQTT_OK/GD32VW55X_Wifi_BLE_SDK/GD32VW55x_RELEASE_V1.0.2/MSDK/cloud/alicloud/src/services/shadow\shadow_update.c **** /* handle response ACK of UPDATE */
 135:C:/Users/stapi/OneDrive/Desktop/GD32VW553/V1_MQTT_OK/GD32VW55X_Wifi_BLE_SDK/GD32VW55x_RELEASE_V1.0.2/MSDK/cloud/alicloud/src/services/shadow\shadow_update.c **** void iotx_ds_update_wait_ack_list_handle_response(
 136:C:/Users/stapi/OneDrive/Desktop/GD32VW553/V1_MQTT_OK/GD32VW55X_Wifi_BLE_SDK/GD32VW55x_RELEASE_V1.0.2/MSDK/cloud/alicloud/src/services/shadow\shadow_update.c ****             iotx_shadow_pt pshadow,
 137:C:/Users/stapi/OneDrive/Desktop/GD32VW553/V1_MQTT_OK/GD32VW55X_Wifi_BLE_SDK/GD32VW55x_RELEASE_V1.0.2/MSDK/cloud/alicloud/src/services/shadow\shadow_update.c ****             const char *json_doc,
 138:C:/Users/stapi/OneDrive/Desktop/GD32VW553/V1_MQTT_OK/GD32VW55X_Wifi_BLE_SDK/GD32VW55x_RELEASE_V1.0.2/MSDK/cloud/alicloud/src/services/shadow\shadow_update.c ****             size_t json_doc_len)
 139:C:/Users/stapi/OneDrive/Desktop/GD32VW553/V1_MQTT_OK/GD32VW55X_Wifi_BLE_SDK/GD32VW55x_RELEASE_V1.0.2/MSDK/cloud/alicloud/src/services/shadow\shadow_update.c **** {
 517              		.loc 1 139 1
 518              		.cfi_startproc
 519              	.LVL51:
 520 0000 17030000 		call	t0,__riscv_save_10
 520      E7020300 
 521              		.cfi_offset 25, -44
 522              		.cfi_offset 24, -40
 523              		.cfi_offset 23, -36
 524              		.cfi_offset 22, -32
 525              		.cfi_offset 21, -28
 526              		.cfi_offset 20, -24
 527              		.cfi_offset 19, -20
 528              		.cfi_offset 18, -16
 529              		.cfi_offset 9, -12
 530              		.cfi_offset 8, -8
 531              		.cfi_offset 1, -4
 532              		.cfi_def_cfa_offset 48
 140:C:/Users/stapi/OneDrive/Desktop/GD32VW553/V1_MQTT_OK/GD32VW55X_Wifi_BLE_SDK/GD32VW55x_RELEASE_V1.0.2/MSDK/cloud/alicloud/src/services/shadow\shadow_update.c ****     int i;
 533              		.loc 1 140 5
 141:C:/Users/stapi/OneDrive/Desktop/GD32VW553/V1_MQTT_OK/GD32VW55X_Wifi_BLE_SDK/GD32VW55x_RELEASE_V1.0.2/MSDK/cloud/alicloud/src/services/shadow\shadow_update.c ****     const char *pdata, *ppayload, *pToken;
 534              		.loc 1 141 5
 142:C:/Users/stapi/OneDrive/Desktop/GD32VW553/V1_MQTT_OK/GD32VW55X_Wifi_BLE_SDK/GD32VW55x_RELEASE_V1.0.2/MSDK/cloud/alicloud/src/services/shadow\shadow_update.c ****     iotx_update_ack_wait_list_pt pelement = pshadow->inner_data.update_ack_wait_list;
 535              		.loc 1 142 5
 139:C:/Users/stapi/OneDrive/Desktop/GD32VW553/V1_MQTT_OK/GD32VW55X_Wifi_BLE_SDK/GD32VW55x_RELEASE_V1.0.2/MSDK/cloud/alicloud/src/services/shadow\shadow_update.c ****     int i;
 536              		.loc 1 139 1 is_stmt 0
 537 0008 2A84     		mv	s0,a0
 538              	.LVL52:
 143:C:/Users/stapi/OneDrive/Desktop/GD32VW553/V1_MQTT_OK/GD32VW55X_Wifi_BLE_SDK/GD32VW55x_RELEASE_V1.0.2/MSDK/cloud/alicloud/src/services/shadow\shadow_update.c **** 
 144:C:/Users/stapi/OneDrive/Desktop/GD32VW553/V1_MQTT_OK/GD32VW55X_Wifi_BLE_SDK/GD32VW55x_RELEASE_V1.0.2/MSDK/cloud/alicloud/src/services/shadow\shadow_update.c ****     /* get token */
 145:C:/Users/stapi/OneDrive/Desktop/GD32VW553/V1_MQTT_OK/GD32VW55X_Wifi_BLE_SDK/GD32VW55x_RELEASE_V1.0.2/MSDK/cloud/alicloud/src/services/shadow\shadow_update.c ****     pdata = LITE_json_value_of("clientToken", (char *)json_doc);
 539              		.loc 1 145 5 is_stmt 1
 540              		.loc 1 145 13 is_stmt 0
 541 000a 37050000 		lui	a0,%hi(.LC6)
 542              	.LVL53:
 139:C:/Users/stapi/OneDrive/Desktop/GD32VW553/V1_MQTT_OK/GD32VW55X_Wifi_BLE_SDK/GD32VW55x_RELEASE_V1.0.2/MSDK/cloud/alicloud/src/services/shadow\shadow_update.c ****     int i;
 543              		.loc 1 139 1
 544 000e 4111     		addi	sp,sp,-16
 545              		.cfi_def_cfa_offset 64
 546              		.loc 1 145 13
 547 0010 13050500 		addi	a0,a0,%lo(.LC6)
 139:C:/Users/stapi/OneDrive/Desktop/GD32VW553/V1_MQTT_OK/GD32VW55X_Wifi_BLE_SDK/GD32VW55x_RELEASE_V1.0.2/MSDK/cloud/alicloud/src/services/shadow\shadow_update.c ****     int i;
 548              		.loc 1 139 1
 549 0014 2E8A     		mv	s4,a1
 550 0016 B28A     		mv	s5,a2
 551              		.loc 1 145 13
 552 0018 97000000 		call	LITE_json_value_of
 552      E7800000 
 553              	.LVL54:
 146:C:/Users/stapi/OneDrive/Desktop/GD32VW553/V1_MQTT_OK/GD32VW55X_Wifi_BLE_SDK/GD32VW55x_RELEASE_V1.0.2/MSDK/cloud/alicloud/src/services/shadow\shadow_update.c ****     if (NULL == pdata) {
 554              		.loc 1 146 5 is_stmt 1
 555              		.loc 1 146 8 is_stmt 0
 556 0020 15ED     		bne	a0,zero,.L40
 147:C:/Users/stapi/OneDrive/Desktop/GD32VW553/V1_MQTT_OK/GD32VW55X_Wifi_BLE_SDK/GD32VW55x_RELEASE_V1.0.2/MSDK/cloud/alicloud/src/services/shadow\shadow_update.c ****         shadow_warning("Invalid JSON document: not 'clientToken' key");
 557              		.loc 1 147 9 is_stmt 1
 558              		.loc 1 147 9
 559 0022 37050000 		lui	a0,%hi(.LC0)
 560              	.LVL55:
 561 0026 13050500 		addi	a0,a0,%lo(.LC0)
 562 002a 97000000 		call	HAL_Printf
 562      E7800000 
 563              	.LVL56:
 564              		.loc 1 147 9
 565 0032 37050000 		lui	a0,%hi(.LC7)
 566 0036 13050500 		addi	a0,a0,%lo(.LC7)
 567 003a 97000000 		call	HAL_Printf
 567      E7800000 
 568              	.LVL57:
 569              		.loc 1 147 9
 570 0042 37050000 		lui	a0,%hi(.LC2)
 571 0046 13050500 		addi	a0,a0,%lo(.LC2)
 572 004a 97000000 		call	HAL_Printf
 572      E7800000 
 573              	.LVL58:
 574              		.loc 1 147 9
 148:C:/Users/stapi/OneDrive/Desktop/GD32VW553/V1_MQTT_OK/GD32VW55X_Wifi_BLE_SDK/GD32VW55x_RELEASE_V1.0.2/MSDK/cloud/alicloud/src/services/shadow\shadow_update.c ****         return;
 575              		.loc 1 148 9
 576              	.L39:
 149:C:/Users/stapi/OneDrive/Desktop/GD32VW553/V1_MQTT_OK/GD32VW55X_Wifi_BLE_SDK/GD32VW55x_RELEASE_V1.0.2/MSDK/cloud/alicloud/src/services/shadow\shadow_update.c ****     }
 150:C:/Users/stapi/OneDrive/Desktop/GD32VW553/V1_MQTT_OK/GD32VW55X_Wifi_BLE_SDK/GD32VW55x_RELEASE_V1.0.2/MSDK/cloud/alicloud/src/services/shadow\shadow_update.c ****     pToken = pdata;
 151:C:/Users/stapi/OneDrive/Desktop/GD32VW553/V1_MQTT_OK/GD32VW55X_Wifi_BLE_SDK/GD32VW55x_RELEASE_V1.0.2/MSDK/cloud/alicloud/src/services/shadow\shadow_update.c **** 
 152:C:/Users/stapi/OneDrive/Desktop/GD32VW553/V1_MQTT_OK/GD32VW55X_Wifi_BLE_SDK/GD32VW55x_RELEASE_V1.0.2/MSDK/cloud/alicloud/src/services/shadow\shadow_update.c ****     ppayload = LITE_json_value_of("payload", (char *)json_doc);
 153:C:/Users/stapi/OneDrive/Desktop/GD32VW553/V1_MQTT_OK/GD32VW55X_Wifi_BLE_SDK/GD32VW55x_RELEASE_V1.0.2/MSDK/cloud/alicloud/src/services/shadow\shadow_update.c ****     if (NULL == ppayload) {
 154:C:/Users/stapi/OneDrive/Desktop/GD32VW553/V1_MQTT_OK/GD32VW55X_Wifi_BLE_SDK/GD32VW55x_RELEASE_V1.0.2/MSDK/cloud/alicloud/src/services/shadow\shadow_update.c ****         shadow_warning("Invalid JSON document: not 'payload' key");
 155:C:/Users/stapi/OneDrive/Desktop/GD32VW553/V1_MQTT_OK/GD32VW55X_Wifi_BLE_SDK/GD32VW55x_RELEASE_V1.0.2/MSDK/cloud/alicloud/src/services/shadow\shadow_update.c ****         LITE_free(pdata);
 156:C:/Users/stapi/OneDrive/Desktop/GD32VW553/V1_MQTT_OK/GD32VW55X_Wifi_BLE_SDK/GD32VW55x_RELEASE_V1.0.2/MSDK/cloud/alicloud/src/services/shadow\shadow_update.c ****         return;
 157:C:/Users/stapi/OneDrive/Desktop/GD32VW553/V1_MQTT_OK/GD32VW55X_Wifi_BLE_SDK/GD32VW55x_RELEASE_V1.0.2/MSDK/cloud/alicloud/src/services/shadow\shadow_update.c ****     } else {
 158:C:/Users/stapi/OneDrive/Desktop/GD32VW553/V1_MQTT_OK/GD32VW55X_Wifi_BLE_SDK/GD32VW55x_RELEASE_V1.0.2/MSDK/cloud/alicloud/src/services/shadow\shadow_update.c ****         shadow_debug("ppayload = %s", ppayload);
 159:C:/Users/stapi/OneDrive/Desktop/GD32VW553/V1_MQTT_OK/GD32VW55X_Wifi_BLE_SDK/GD32VW55x_RELEASE_V1.0.2/MSDK/cloud/alicloud/src/services/shadow\shadow_update.c ****     }
 160:C:/Users/stapi/OneDrive/Desktop/GD32VW553/V1_MQTT_OK/GD32VW55X_Wifi_BLE_SDK/GD32VW55x_RELEASE_V1.0.2/MSDK/cloud/alicloud/src/services/shadow\shadow_update.c **** 
 161:C:/Users/stapi/OneDrive/Desktop/GD32VW553/V1_MQTT_OK/GD32VW55X_Wifi_BLE_SDK/GD32VW55x_RELEASE_V1.0.2/MSDK/cloud/alicloud/src/services/shadow\shadow_update.c ****     HAL_MutexLock(pshadow->mutex);
 162:C:/Users/stapi/OneDrive/Desktop/GD32VW553/V1_MQTT_OK/GD32VW55X_Wifi_BLE_SDK/GD32VW55x_RELEASE_V1.0.2/MSDK/cloud/alicloud/src/services/shadow\shadow_update.c ****     for (i = 0; i < IOTX_DS_UPDATE_WAIT_ACK_LIST_NUM; ++i) {
 163:C:/Users/stapi/OneDrive/Desktop/GD32VW553/V1_MQTT_OK/GD32VW55X_Wifi_BLE_SDK/GD32VW55x_RELEASE_V1.0.2/MSDK/cloud/alicloud/src/services/shadow\shadow_update.c ****         if (0 != pelement[i].flag_busy) {
 164:C:/Users/stapi/OneDrive/Desktop/GD32VW553/V1_MQTT_OK/GD32VW55X_Wifi_BLE_SDK/GD32VW55x_RELEASE_V1.0.2/MSDK/cloud/alicloud/src/services/shadow\shadow_update.c ****             /* check the related */
 165:C:/Users/stapi/OneDrive/Desktop/GD32VW553/V1_MQTT_OK/GD32VW55X_Wifi_BLE_SDK/GD32VW55x_RELEASE_V1.0.2/MSDK/cloud/alicloud/src/services/shadow\shadow_update.c ****             if (0 == memcmp(pdata, pelement[i].token, strlen(pelement[i].token))) {
 166:C:/Users/stapi/OneDrive/Desktop/GD32VW553/V1_MQTT_OK/GD32VW55X_Wifi_BLE_SDK/GD32VW55x_RELEASE_V1.0.2/MSDK/cloud/alicloud/src/services/shadow\shadow_update.c ****                 LITE_free(pdata);
 167:C:/Users/stapi/OneDrive/Desktop/GD32VW553/V1_MQTT_OK/GD32VW55X_Wifi_BLE_SDK/GD32VW55x_RELEASE_V1.0.2/MSDK/cloud/alicloud/src/services/shadow\shadow_update.c ****                 HAL_MutexUnlock(pshadow->mutex);
 168:C:/Users/stapi/OneDrive/Desktop/GD32VW553/V1_MQTT_OK/GD32VW55X_Wifi_BLE_SDK/GD32VW55x_RELEASE_V1.0.2/MSDK/cloud/alicloud/src/services/shadow\shadow_update.c ****                 shadow_debug("token=%s", pelement[i].token);
 169:C:/Users/stapi/OneDrive/Desktop/GD32VW553/V1_MQTT_OK/GD32VW55X_Wifi_BLE_SDK/GD32VW55x_RELEASE_V1.0.2/MSDK/cloud/alicloud/src/services/shadow\shadow_update.c ****                 do {
 170:C:/Users/stapi/OneDrive/Desktop/GD32VW553/V1_MQTT_OK/GD32VW55X_Wifi_BLE_SDK/GD32VW55x_RELEASE_V1.0.2/MSDK/cloud/alicloud/src/services/shadow\shadow_update.c ****                     pdata = LITE_json_value_of("status", (char *)ppayload);
 171:C:/Users/stapi/OneDrive/Desktop/GD32VW553/V1_MQTT_OK/GD32VW55X_Wifi_BLE_SDK/GD32VW55x_RELEASE_V1.0.2/MSDK/cloud/alicloud/src/services/shadow\shadow_update.c ****                     if (NULL == pdata) {
 172:C:/Users/stapi/OneDrive/Desktop/GD32VW553/V1_MQTT_OK/GD32VW55X_Wifi_BLE_SDK/GD32VW55x_RELEASE_V1.0.2/MSDK/cloud/alicloud/src/services/shadow\shadow_update.c ****                         shadow_warning("Invalid JSON document: not 'payload.status' key");
 173:C:/Users/stapi/OneDrive/Desktop/GD32VW553/V1_MQTT_OK/GD32VW55X_Wifi_BLE_SDK/GD32VW55x_RELEASE_V1.0.2/MSDK/cloud/alicloud/src/services/shadow\shadow_update.c ****                         break;
 174:C:/Users/stapi/OneDrive/Desktop/GD32VW553/V1_MQTT_OK/GD32VW55X_Wifi_BLE_SDK/GD32VW55x_RELEASE_V1.0.2/MSDK/cloud/alicloud/src/services/shadow\shadow_update.c ****                     }
 175:C:/Users/stapi/OneDrive/Desktop/GD32VW553/V1_MQTT_OK/GD32VW55X_Wifi_BLE_SDK/GD32VW55x_RELEASE_V1.0.2/MSDK/cloud/alicloud/src/services/shadow\shadow_update.c **** 
 176:C:/Users/stapi/OneDrive/Desktop/GD32VW553/V1_MQTT_OK/GD32VW55X_Wifi_BLE_SDK/GD32VW55x_RELEASE_V1.0.2/MSDK/cloud/alicloud/src/services/shadow\shadow_update.c ****                     if (0 == strncmp(pdata, "success", strlen(pdata))) {
 177:C:/Users/stapi/OneDrive/Desktop/GD32VW553/V1_MQTT_OK/GD32VW55X_Wifi_BLE_SDK/GD32VW55x_RELEASE_V1.0.2/MSDK/cloud/alicloud/src/services/shadow\shadow_update.c ****                         char    *temp = NULL;
 178:C:/Users/stapi/OneDrive/Desktop/GD32VW553/V1_MQTT_OK/GD32VW55X_Wifi_BLE_SDK/GD32VW55x_RELEASE_V1.0.2/MSDK/cloud/alicloud/src/services/shadow\shadow_update.c ****                         
 179:C:/Users/stapi/OneDrive/Desktop/GD32VW553/V1_MQTT_OK/GD32VW55X_Wifi_BLE_SDK/GD32VW55x_RELEASE_V1.0.2/MSDK/cloud/alicloud/src/services/shadow\shadow_update.c ****                         LITE_free(pdata);
 180:C:/Users/stapi/OneDrive/Desktop/GD32VW553/V1_MQTT_OK/GD32VW55X_Wifi_BLE_SDK/GD32VW55x_RELEASE_V1.0.2/MSDK/cloud/alicloud/src/services/shadow\shadow_update.c **** 
 181:C:/Users/stapi/OneDrive/Desktop/GD32VW553/V1_MQTT_OK/GD32VW55X_Wifi_BLE_SDK/GD32VW55x_RELEASE_V1.0.2/MSDK/cloud/alicloud/src/services/shadow\shadow_update.c ****                         /* If have 'state' keyword in @json_shadow.payload, attribute value should 
 182:C:/Users/stapi/OneDrive/Desktop/GD32VW553/V1_MQTT_OK/GD32VW55X_Wifi_BLE_SDK/GD32VW55x_RELEASE_V1.0.2/MSDK/cloud/alicloud/src/services/shadow\shadow_update.c ****                         temp = LITE_json_value_of("state", (char *)ppayload);
 183:C:/Users/stapi/OneDrive/Desktop/GD32VW553/V1_MQTT_OK/GD32VW55X_Wifi_BLE_SDK/GD32VW55x_RELEASE_V1.0.2/MSDK/cloud/alicloud/src/services/shadow\shadow_update.c ****                         if (NULL != temp) {
 184:C:/Users/stapi/OneDrive/Desktop/GD32VW553/V1_MQTT_OK/GD32VW55X_Wifi_BLE_SDK/GD32VW55x_RELEASE_V1.0.2/MSDK/cloud/alicloud/src/services/shadow\shadow_update.c ****                             iotx_shadow_delta_entry(pshadow, json_doc, json_doc_len); /* update att
 185:C:/Users/stapi/OneDrive/Desktop/GD32VW553/V1_MQTT_OK/GD32VW55X_Wifi_BLE_SDK/GD32VW55x_RELEASE_V1.0.2/MSDK/cloud/alicloud/src/services/shadow\shadow_update.c ****                             LITE_free(temp);
 186:C:/Users/stapi/OneDrive/Desktop/GD32VW553/V1_MQTT_OK/GD32VW55X_Wifi_BLE_SDK/GD32VW55x_RELEASE_V1.0.2/MSDK/cloud/alicloud/src/services/shadow\shadow_update.c ****                         }
 187:C:/Users/stapi/OneDrive/Desktop/GD32VW553/V1_MQTT_OK/GD32VW55X_Wifi_BLE_SDK/GD32VW55x_RELEASE_V1.0.2/MSDK/cloud/alicloud/src/services/shadow\shadow_update.c **** 
 188:C:/Users/stapi/OneDrive/Desktop/GD32VW553/V1_MQTT_OK/GD32VW55X_Wifi_BLE_SDK/GD32VW55x_RELEASE_V1.0.2/MSDK/cloud/alicloud/src/services/shadow\shadow_update.c ****                         pelement[i].callback(pelement[i].pcontext, IOTX_SHADOW_ACK_SUCCESS, NULL, 0
 189:C:/Users/stapi/OneDrive/Desktop/GD32VW553/V1_MQTT_OK/GD32VW55X_Wifi_BLE_SDK/GD32VW55x_RELEASE_V1.0.2/MSDK/cloud/alicloud/src/services/shadow\shadow_update.c ****                     } else if (0 == strncmp(pdata, "error", strlen(pdata))) {
 190:C:/Users/stapi/OneDrive/Desktop/GD32VW553/V1_MQTT_OK/GD32VW55X_Wifi_BLE_SDK/GD32VW55x_RELEASE_V1.0.2/MSDK/cloud/alicloud/src/services/shadow\shadow_update.c ****                         int ack_code;
 191:C:/Users/stapi/OneDrive/Desktop/GD32VW553/V1_MQTT_OK/GD32VW55X_Wifi_BLE_SDK/GD32VW55x_RELEASE_V1.0.2/MSDK/cloud/alicloud/src/services/shadow\shadow_update.c **** 
 192:C:/Users/stapi/OneDrive/Desktop/GD32VW553/V1_MQTT_OK/GD32VW55X_Wifi_BLE_SDK/GD32VW55x_RELEASE_V1.0.2/MSDK/cloud/alicloud/src/services/shadow\shadow_update.c ****                         LITE_free(pdata);
 193:C:/Users/stapi/OneDrive/Desktop/GD32VW553/V1_MQTT_OK/GD32VW55X_Wifi_BLE_SDK/GD32VW55x_RELEASE_V1.0.2/MSDK/cloud/alicloud/src/services/shadow\shadow_update.c ****                         pdata = LITE_json_value_of("content.errorcode", (char *)ppayload);
 194:C:/Users/stapi/OneDrive/Desktop/GD32VW553/V1_MQTT_OK/GD32VW55X_Wifi_BLE_SDK/GD32VW55x_RELEASE_V1.0.2/MSDK/cloud/alicloud/src/services/shadow\shadow_update.c ****                         if (NULL == pdata) {
 195:C:/Users/stapi/OneDrive/Desktop/GD32VW553/V1_MQTT_OK/GD32VW55X_Wifi_BLE_SDK/GD32VW55x_RELEASE_V1.0.2/MSDK/cloud/alicloud/src/services/shadow\shadow_update.c ****                             shadow_warning("Invalid JSON document: not 'content.errorcode' key");
 196:C:/Users/stapi/OneDrive/Desktop/GD32VW553/V1_MQTT_OK/GD32VW55X_Wifi_BLE_SDK/GD32VW55x_RELEASE_V1.0.2/MSDK/cloud/alicloud/src/services/shadow\shadow_update.c ****                             break;
 197:C:/Users/stapi/OneDrive/Desktop/GD32VW553/V1_MQTT_OK/GD32VW55X_Wifi_BLE_SDK/GD32VW55x_RELEASE_V1.0.2/MSDK/cloud/alicloud/src/services/shadow\shadow_update.c ****                         }
 198:C:/Users/stapi/OneDrive/Desktop/GD32VW553/V1_MQTT_OK/GD32VW55X_Wifi_BLE_SDK/GD32VW55x_RELEASE_V1.0.2/MSDK/cloud/alicloud/src/services/shadow\shadow_update.c ****                         ack_code = atoi(pdata);
 199:C:/Users/stapi/OneDrive/Desktop/GD32VW553/V1_MQTT_OK/GD32VW55X_Wifi_BLE_SDK/GD32VW55x_RELEASE_V1.0.2/MSDK/cloud/alicloud/src/services/shadow\shadow_update.c ****                         LITE_free(pdata);
 200:C:/Users/stapi/OneDrive/Desktop/GD32VW553/V1_MQTT_OK/GD32VW55X_Wifi_BLE_SDK/GD32VW55x_RELEASE_V1.0.2/MSDK/cloud/alicloud/src/services/shadow\shadow_update.c **** 
 201:C:/Users/stapi/OneDrive/Desktop/GD32VW553/V1_MQTT_OK/GD32VW55X_Wifi_BLE_SDK/GD32VW55x_RELEASE_V1.0.2/MSDK/cloud/alicloud/src/services/shadow\shadow_update.c ****                         pdata = LITE_json_value_of("content.errormessage", (char *)ppayload);
 202:C:/Users/stapi/OneDrive/Desktop/GD32VW553/V1_MQTT_OK/GD32VW55X_Wifi_BLE_SDK/GD32VW55x_RELEASE_V1.0.2/MSDK/cloud/alicloud/src/services/shadow\shadow_update.c ****                         if (NULL == pdata) {
 203:C:/Users/stapi/OneDrive/Desktop/GD32VW553/V1_MQTT_OK/GD32VW55X_Wifi_BLE_SDK/GD32VW55x_RELEASE_V1.0.2/MSDK/cloud/alicloud/src/services/shadow\shadow_update.c ****                             shadow_warning("Invalid JSON document: not 'content.errormessage' key")
 204:C:/Users/stapi/OneDrive/Desktop/GD32VW553/V1_MQTT_OK/GD32VW55X_Wifi_BLE_SDK/GD32VW55x_RELEASE_V1.0.2/MSDK/cloud/alicloud/src/services/shadow\shadow_update.c ****                             break;
 205:C:/Users/stapi/OneDrive/Desktop/GD32VW553/V1_MQTT_OK/GD32VW55X_Wifi_BLE_SDK/GD32VW55x_RELEASE_V1.0.2/MSDK/cloud/alicloud/src/services/shadow\shadow_update.c ****                         }
 206:C:/Users/stapi/OneDrive/Desktop/GD32VW553/V1_MQTT_OK/GD32VW55X_Wifi_BLE_SDK/GD32VW55x_RELEASE_V1.0.2/MSDK/cloud/alicloud/src/services/shadow\shadow_update.c **** 
 207:C:/Users/stapi/OneDrive/Desktop/GD32VW553/V1_MQTT_OK/GD32VW55X_Wifi_BLE_SDK/GD32VW55x_RELEASE_V1.0.2/MSDK/cloud/alicloud/src/services/shadow\shadow_update.c ****                         pelement[i].callback(pelement[i].pcontext, ack_code, pdata, strlen(pdata));
 208:C:/Users/stapi/OneDrive/Desktop/GD32VW553/V1_MQTT_OK/GD32VW55X_Wifi_BLE_SDK/GD32VW55x_RELEASE_V1.0.2/MSDK/cloud/alicloud/src/services/shadow\shadow_update.c ****                         LITE_free(pdata);
 209:C:/Users/stapi/OneDrive/Desktop/GD32VW553/V1_MQTT_OK/GD32VW55X_Wifi_BLE_SDK/GD32VW55x_RELEASE_V1.0.2/MSDK/cloud/alicloud/src/services/shadow\shadow_update.c ****                     } else {
 210:C:/Users/stapi/OneDrive/Desktop/GD32VW553/V1_MQTT_OK/GD32VW55X_Wifi_BLE_SDK/GD32VW55x_RELEASE_V1.0.2/MSDK/cloud/alicloud/src/services/shadow\shadow_update.c ****                         shadow_warning("Invalid JSON document: value of 'status' key is invalid.");
 211:C:/Users/stapi/OneDrive/Desktop/GD32VW553/V1_MQTT_OK/GD32VW55X_Wifi_BLE_SDK/GD32VW55x_RELEASE_V1.0.2/MSDK/cloud/alicloud/src/services/shadow\shadow_update.c ****                         LITE_free(pdata);
 212:C:/Users/stapi/OneDrive/Desktop/GD32VW553/V1_MQTT_OK/GD32VW55X_Wifi_BLE_SDK/GD32VW55x_RELEASE_V1.0.2/MSDK/cloud/alicloud/src/services/shadow\shadow_update.c ****                     }
 213:C:/Users/stapi/OneDrive/Desktop/GD32VW553/V1_MQTT_OK/GD32VW55X_Wifi_BLE_SDK/GD32VW55x_RELEASE_V1.0.2/MSDK/cloud/alicloud/src/services/shadow\shadow_update.c **** 
 214:C:/Users/stapi/OneDrive/Desktop/GD32VW553/V1_MQTT_OK/GD32VW55X_Wifi_BLE_SDK/GD32VW55x_RELEASE_V1.0.2/MSDK/cloud/alicloud/src/services/shadow\shadow_update.c ****                     LITE_free(ppayload);
 215:C:/Users/stapi/OneDrive/Desktop/GD32VW553/V1_MQTT_OK/GD32VW55X_Wifi_BLE_SDK/GD32VW55x_RELEASE_V1.0.2/MSDK/cloud/alicloud/src/services/shadow\shadow_update.c ****                 } while (0);
 216:C:/Users/stapi/OneDrive/Desktop/GD32VW553/V1_MQTT_OK/GD32VW55X_Wifi_BLE_SDK/GD32VW55x_RELEASE_V1.0.2/MSDK/cloud/alicloud/src/services/shadow\shadow_update.c **** 
 217:C:/Users/stapi/OneDrive/Desktop/GD32VW553/V1_MQTT_OK/GD32VW55X_Wifi_BLE_SDK/GD32VW55x_RELEASE_V1.0.2/MSDK/cloud/alicloud/src/services/shadow\shadow_update.c ****                 HAL_MutexLock(pshadow->mutex);
 218:C:/Users/stapi/OneDrive/Desktop/GD32VW553/V1_MQTT_OK/GD32VW55X_Wifi_BLE_SDK/GD32VW55x_RELEASE_V1.0.2/MSDK/cloud/alicloud/src/services/shadow\shadow_update.c ****                 memset(&pelement[i], 0, sizeof(iotx_update_ack_wait_list_t));
 219:C:/Users/stapi/OneDrive/Desktop/GD32VW553/V1_MQTT_OK/GD32VW55X_Wifi_BLE_SDK/GD32VW55x_RELEASE_V1.0.2/MSDK/cloud/alicloud/src/services/shadow\shadow_update.c ****                 HAL_MutexUnlock(pshadow->mutex);
 220:C:/Users/stapi/OneDrive/Desktop/GD32VW553/V1_MQTT_OK/GD32VW55X_Wifi_BLE_SDK/GD32VW55x_RELEASE_V1.0.2/MSDK/cloud/alicloud/src/services/shadow\shadow_update.c ****                 return;
 221:C:/Users/stapi/OneDrive/Desktop/GD32VW553/V1_MQTT_OK/GD32VW55X_Wifi_BLE_SDK/GD32VW55x_RELEASE_V1.0.2/MSDK/cloud/alicloud/src/services/shadow\shadow_update.c ****             }
 222:C:/Users/stapi/OneDrive/Desktop/GD32VW553/V1_MQTT_OK/GD32VW55X_Wifi_BLE_SDK/GD32VW55x_RELEASE_V1.0.2/MSDK/cloud/alicloud/src/services/shadow\shadow_update.c ****         }
 223:C:/Users/stapi/OneDrive/Desktop/GD32VW553/V1_MQTT_OK/GD32VW55X_Wifi_BLE_SDK/GD32VW55x_RELEASE_V1.0.2/MSDK/cloud/alicloud/src/services/shadow\shadow_update.c ****     }
 224:C:/Users/stapi/OneDrive/Desktop/GD32VW553/V1_MQTT_OK/GD32VW55X_Wifi_BLE_SDK/GD32VW55x_RELEASE_V1.0.2/MSDK/cloud/alicloud/src/services/shadow\shadow_update.c **** 
 225:C:/Users/stapi/OneDrive/Desktop/GD32VW553/V1_MQTT_OK/GD32VW55X_Wifi_BLE_SDK/GD32VW55x_RELEASE_V1.0.2/MSDK/cloud/alicloud/src/services/shadow\shadow_update.c ****     LITE_free(pToken);
 226:C:/Users/stapi/OneDrive/Desktop/GD32VW553/V1_MQTT_OK/GD32VW55X_Wifi_BLE_SDK/GD32VW55x_RELEASE_V1.0.2/MSDK/cloud/alicloud/src/services/shadow\shadow_update.c ****     LITE_free(ppayload);
 227:C:/Users/stapi/OneDrive/Desktop/GD32VW553/V1_MQTT_OK/GD32VW55X_Wifi_BLE_SDK/GD32VW55x_RELEASE_V1.0.2/MSDK/cloud/alicloud/src/services/shadow\shadow_update.c ****     HAL_MutexUnlock(pshadow->mutex);
 228:C:/Users/stapi/OneDrive/Desktop/GD32VW553/V1_MQTT_OK/GD32VW55X_Wifi_BLE_SDK/GD32VW55x_RELEASE_V1.0.2/MSDK/cloud/alicloud/src/services/shadow\shadow_update.c ****     shadow_warning("Not match any wait element in list.");
 229:C:/Users/stapi/OneDrive/Desktop/GD32VW553/V1_MQTT_OK/GD32VW55X_Wifi_BLE_SDK/GD32VW55x_RELEASE_V1.0.2/MSDK/cloud/alicloud/src/services/shadow\shadow_update.c **** 
 230:C:/Users/stapi/OneDrive/Desktop/GD32VW553/V1_MQTT_OK/GD32VW55X_Wifi_BLE_SDK/GD32VW55x_RELEASE_V1.0.2/MSDK/cloud/alicloud/src/services/shadow\shadow_update.c ****     //call user callback after desire update to cloud.
 231:C:/Users/stapi/OneDrive/Desktop/GD32VW553/V1_MQTT_OK/GD32VW55X_Wifi_BLE_SDK/GD32VW55x_RELEASE_V1.0.2/MSDK/cloud/alicloud/src/services/shadow\shadow_update.c ****     iotx_shadow_do_callback(pshadow);
 232:C:/Users/stapi/OneDrive/Desktop/GD32VW553/V1_MQTT_OK/GD32VW55X_Wifi_BLE_SDK/GD32VW55x_RELEASE_V1.0.2/MSDK/cloud/alicloud/src/services/shadow\shadow_update.c **** }
 577              		.loc 1 232 1 is_stmt 0
 578 0052 4101     		addi	sp,sp,16
 579              		.cfi_remember_state
 580              		.cfi_def_cfa_offset 0
 581 0054 17030000 		tail	__riscv_restore_10
 581      67000300 
 582              		.cfi_restore 25
 583              		.cfi_restore 24
 584              		.cfi_restore 23
 585              		.cfi_restore 22
 586              		.cfi_restore 21
 587              		.cfi_restore 20
 588              		.cfi_restore 19
 589              		.cfi_restore 18
 590              		.cfi_restore 9
 591              		.cfi_restore 8
 592              		.cfi_restore 1
 593              		.cfi_def_cfa_offset -48
 594              	.LVL59:
 595              	.L40:
 596              		.cfi_restore_state
 597 005c AA89     		mv	s3,a0
 150:C:/Users/stapi/OneDrive/Desktop/GD32VW553/V1_MQTT_OK/GD32VW55X_Wifi_BLE_SDK/GD32VW55x_RELEASE_V1.0.2/MSDK/cloud/alicloud/src/services/shadow\shadow_update.c **** 
 598              		.loc 1 150 5 is_stmt 1
 599              	.LVL60:
 152:C:/Users/stapi/OneDrive/Desktop/GD32VW553/V1_MQTT_OK/GD32VW55X_Wifi_BLE_SDK/GD32VW55x_RELEASE_V1.0.2/MSDK/cloud/alicloud/src/services/shadow\shadow_update.c ****     if (NULL == ppayload) {
 600              		.loc 1 152 5
 152:C:/Users/stapi/OneDrive/Desktop/GD32VW553/V1_MQTT_OK/GD32VW55X_Wifi_BLE_SDK/GD32VW55x_RELEASE_V1.0.2/MSDK/cloud/alicloud/src/services/shadow\shadow_update.c ****     if (NULL == ppayload) {
 601              		.loc 1 152 16 is_stmt 0
 602 005e 37050000 		lui	a0,%hi(.LC8)
 603              	.LVL61:
 604 0062 D285     		mv	a1,s4
 605 0064 13050500 		addi	a0,a0,%lo(.LC8)
 606 0068 97000000 		call	LITE_json_value_of
 606      E7800000 
 607              	.LVL62:
 608 0070 AA84     		mv	s1,a0
 609              	.LVL63:
 153:C:/Users/stapi/OneDrive/Desktop/GD32VW553/V1_MQTT_OK/GD32VW55X_Wifi_BLE_SDK/GD32VW55x_RELEASE_V1.0.2/MSDK/cloud/alicloud/src/services/shadow\shadow_update.c ****         shadow_warning("Invalid JSON document: not 'payload' key");
 610              		.loc 1 153 5 is_stmt 1
 153:C:/Users/stapi/OneDrive/Desktop/GD32VW553/V1_MQTT_OK/GD32VW55X_Wifi_BLE_SDK/GD32VW55x_RELEASE_V1.0.2/MSDK/cloud/alicloud/src/services/shadow\shadow_update.c ****         shadow_warning("Invalid JSON document: not 'payload' key");
 611              		.loc 1 153 8 is_stmt 0
 612 0072 1DED     		bne	a0,zero,.L42
 154:C:/Users/stapi/OneDrive/Desktop/GD32VW553/V1_MQTT_OK/GD32VW55X_Wifi_BLE_SDK/GD32VW55x_RELEASE_V1.0.2/MSDK/cloud/alicloud/src/services/shadow\shadow_update.c ****         LITE_free(pdata);
 613              		.loc 1 154 9 is_stmt 1
 154:C:/Users/stapi/OneDrive/Desktop/GD32VW553/V1_MQTT_OK/GD32VW55X_Wifi_BLE_SDK/GD32VW55x_RELEASE_V1.0.2/MSDK/cloud/alicloud/src/services/shadow\shadow_update.c ****         LITE_free(pdata);
 614              		.loc 1 154 9
 615 0074 37050000 		lui	a0,%hi(.LC0)
 616 0078 13050500 		addi	a0,a0,%lo(.LC0)
 617 007c 97000000 		call	HAL_Printf
 617      E7800000 
 618              	.LVL64:
 154:C:/Users/stapi/OneDrive/Desktop/GD32VW553/V1_MQTT_OK/GD32VW55X_Wifi_BLE_SDK/GD32VW55x_RELEASE_V1.0.2/MSDK/cloud/alicloud/src/services/shadow\shadow_update.c ****         LITE_free(pdata);
 619              		.loc 1 154 9
 620 0084 37050000 		lui	a0,%hi(.LC9)
 621 0088 13050500 		addi	a0,a0,%lo(.LC9)
 622 008c 97000000 		call	HAL_Printf
 622      E7800000 
 623              	.LVL65:
 154:C:/Users/stapi/OneDrive/Desktop/GD32VW553/V1_MQTT_OK/GD32VW55X_Wifi_BLE_SDK/GD32VW55x_RELEASE_V1.0.2/MSDK/cloud/alicloud/src/services/shadow\shadow_update.c ****         LITE_free(pdata);
 624              		.loc 1 154 9
 625 0094 37050000 		lui	a0,%hi(.LC2)
 626 0098 13050500 		addi	a0,a0,%lo(.LC2)
 627 009c 97000000 		call	HAL_Printf
 627      E7800000 
 628              	.LVL66:
 154:C:/Users/stapi/OneDrive/Desktop/GD32VW553/V1_MQTT_OK/GD32VW55X_Wifi_BLE_SDK/GD32VW55x_RELEASE_V1.0.2/MSDK/cloud/alicloud/src/services/shadow\shadow_update.c ****         LITE_free(pdata);
 629              		.loc 1 154 9
 155:C:/Users/stapi/OneDrive/Desktop/GD32VW553/V1_MQTT_OK/GD32VW55X_Wifi_BLE_SDK/GD32VW55x_RELEASE_V1.0.2/MSDK/cloud/alicloud/src/services/shadow\shadow_update.c ****         return;
 630              		.loc 1 155 9
 631 00a4 4E85     		mv	a0,s3
 632 00a6 97000000 		call	LITE_free_internal
 632      E7800000 
 633              	.LVL67:
 156:C:/Users/stapi/OneDrive/Desktop/GD32VW553/V1_MQTT_OK/GD32VW55X_Wifi_BLE_SDK/GD32VW55x_RELEASE_V1.0.2/MSDK/cloud/alicloud/src/services/shadow\shadow_update.c ****     } else {
 634              		.loc 1 156 9
 635 00ae 55B7     		j	.L39
 636              	.L42:
 158:C:/Users/stapi/OneDrive/Desktop/GD32VW553/V1_MQTT_OK/GD32VW55X_Wifi_BLE_SDK/GD32VW55x_RELEASE_V1.0.2/MSDK/cloud/alicloud/src/services/shadow\shadow_update.c ****     }
 637              		.loc 1 158 9
 638 00b0 370B0000 		lui	s6,%hi(.LC4)
 639 00b4 370C0000 		lui	s8,%hi(.LANCHOR1)
 640 00b8 37070000 		lui	a4,%hi(.LC10)
 641 00bc AA87     		mv	a5,a0
 642 00be 13070700 		addi	a4,a4,%lo(.LC10)
 643 00c2 9546     		li	a3,5
 644 00c4 1306E009 		li	a2,158
 645 00c8 93050C00 		addi	a1,s8,%lo(.LANCHOR1)
 646 00cc 13050B00 		addi	a0,s6,%lo(.LC4)
 647 00d0 97000000 		call	LITE_syslog
 647      E7800000 
 648              	.LVL68:
 161:C:/Users/stapi/OneDrive/Desktop/GD32VW553/V1_MQTT_OK/GD32VW55X_Wifi_BLE_SDK/GD32VW55x_RELEASE_V1.0.2/MSDK/cloud/alicloud/src/services/shadow\shadow_update.c ****     for (i = 0; i < IOTX_DS_UPDATE_WAIT_ACK_LIST_NUM; ++i) {
 649              		.loc 1 161 5
 650 00d8 4840     		lw	a0,4(s0)
 651 00da 13098401 		addi	s2,s0,24
 652 00de 930C842E 		addi	s9,s0,744
 653 00e2 97000000 		call	HAL_MutexLock
 653      E7800000 
 654              	.LVL69:
 162:C:/Users/stapi/OneDrive/Desktop/GD32VW553/V1_MQTT_OK/GD32VW55X_Wifi_BLE_SDK/GD32VW55x_RELEASE_V1.0.2/MSDK/cloud/alicloud/src/services/shadow\shadow_update.c ****         if (0 != pelement[i].flag_busy) {
 655              		.loc 1 162 5
 162:C:/Users/stapi/OneDrive/Desktop/GD32VW553/V1_MQTT_OK/GD32VW55X_Wifi_BLE_SDK/GD32VW55x_RELEASE_V1.0.2/MSDK/cloud/alicloud/src/services/shadow\shadow_update.c ****         if (0 != pelement[i].flag_busy) {
 656              		.loc 1 162 17
 657 00ea DA8B     		mv	s7,s6
 658              	.LVL70:
 659              	.L52:
 163:C:/Users/stapi/OneDrive/Desktop/GD32VW553/V1_MQTT_OK/GD32VW55X_Wifi_BLE_SDK/GD32VW55x_RELEASE_V1.0.2/MSDK/cloud/alicloud/src/services/shadow\shadow_update.c ****             /* check the related */
 660              		.loc 1 163 9
 163:C:/Users/stapi/OneDrive/Desktop/GD32VW553/V1_MQTT_OK/GD32VW55X_Wifi_BLE_SDK/GD32VW55x_RELEASE_V1.0.2/MSDK/cloud/alicloud/src/services/shadow\shadow_update.c ****             /* check the related */
 661              		.loc 1 163 12 is_stmt 0
 662 00ec 83270900 		lw	a5,0(s2)
 663 00f0 63820722 		beq	a5,zero,.L43
 165:C:/Users/stapi/OneDrive/Desktop/GD32VW553/V1_MQTT_OK/GD32VW55X_Wifi_BLE_SDK/GD32VW55x_RELEASE_V1.0.2/MSDK/cloud/alicloud/src/services/shadow\shadow_update.c ****                 LITE_free(pdata);
 664              		.loc 1 165 13 is_stmt 1
 665 00f4 130B4900 		addi	s6,s2,4
 165:C:/Users/stapi/OneDrive/Desktop/GD32VW553/V1_MQTT_OK/GD32VW55X_Wifi_BLE_SDK/GD32VW55x_RELEASE_V1.0.2/MSDK/cloud/alicloud/src/services/shadow\shadow_update.c ****                 LITE_free(pdata);
 666              		.loc 1 165 22 is_stmt 0
 667 00f8 5A85     		mv	a0,s6
 668 00fa 97000000 		call	strlen
 668      E7800000 
 669              	.LVL71:
 670 0102 2A86     		mv	a2,a0
 671 0104 DA85     		mv	a1,s6
 672 0106 4E85     		mv	a0,s3
 673 0108 97000000 		call	memcmp
 673      E7800000 
 674              	.LVL72:
 165:C:/Users/stapi/OneDrive/Desktop/GD32VW553/V1_MQTT_OK/GD32VW55X_Wifi_BLE_SDK/GD32VW55x_RELEASE_V1.0.2/MSDK/cloud/alicloud/src/services/shadow\shadow_update.c ****                 LITE_free(pdata);
 675              		.loc 1 165 16
 676 0110 63120520 		bne	a0,zero,.L43
 166:C:/Users/stapi/OneDrive/Desktop/GD32VW553/V1_MQTT_OK/GD32VW55X_Wifi_BLE_SDK/GD32VW55x_RELEASE_V1.0.2/MSDK/cloud/alicloud/src/services/shadow\shadow_update.c ****                 HAL_MutexUnlock(pshadow->mutex);
 677              		.loc 1 166 17 is_stmt 1
 678 0114 4E85     		mv	a0,s3
 679 0116 97000000 		call	LITE_free_internal
 679      E7800000 
 680              	.LVL73:
 167:C:/Users/stapi/OneDrive/Desktop/GD32VW553/V1_MQTT_OK/GD32VW55X_Wifi_BLE_SDK/GD32VW55x_RELEASE_V1.0.2/MSDK/cloud/alicloud/src/services/shadow\shadow_update.c ****                 shadow_debug("token=%s", pelement[i].token);
 681              		.loc 1 167 17
 682 011e 4840     		lw	a0,4(s0)
 683 0120 97000000 		call	HAL_MutexUnlock
 683      E7800000 
 684              	.LVL74:
 168:C:/Users/stapi/OneDrive/Desktop/GD32VW553/V1_MQTT_OK/GD32VW55X_Wifi_BLE_SDK/GD32VW55x_RELEASE_V1.0.2/MSDK/cloud/alicloud/src/services/shadow\shadow_update.c ****                 do {
 685              		.loc 1 168 17
 686 0128 37070000 		lui	a4,%hi(.LC11)
 687 012c DA87     		mv	a5,s6
 688 012e 13070700 		addi	a4,a4,%lo(.LC11)
 689 0132 9546     		li	a3,5
 690 0134 1306800A 		li	a2,168
 691 0138 93050C00 		addi	a1,s8,%lo(.LANCHOR1)
 692 013c 13850B00 		addi	a0,s7,%lo(.LC4)
 693 0140 97000000 		call	LITE_syslog
 693      E7800000 
 694              	.LVL75:
 169:C:/Users/stapi/OneDrive/Desktop/GD32VW553/V1_MQTT_OK/GD32VW55X_Wifi_BLE_SDK/GD32VW55x_RELEASE_V1.0.2/MSDK/cloud/alicloud/src/services/shadow\shadow_update.c ****                     pdata = LITE_json_value_of("status", (char *)ppayload);
 695              		.loc 1 169 17
 170:C:/Users/stapi/OneDrive/Desktop/GD32VW553/V1_MQTT_OK/GD32VW55X_Wifi_BLE_SDK/GD32VW55x_RELEASE_V1.0.2/MSDK/cloud/alicloud/src/services/shadow\shadow_update.c ****                     if (NULL == pdata) {
 696              		.loc 1 170 21
 170:C:/Users/stapi/OneDrive/Desktop/GD32VW553/V1_MQTT_OK/GD32VW55X_Wifi_BLE_SDK/GD32VW55x_RELEASE_V1.0.2/MSDK/cloud/alicloud/src/services/shadow\shadow_update.c ****                     if (NULL == pdata) {
 697              		.loc 1 170 29 is_stmt 0
 698 0148 37050000 		lui	a0,%hi(.LC12)
 699 014c A685     		mv	a1,s1
 700 014e 13050500 		addi	a0,a0,%lo(.LC12)
 701 0152 97000000 		call	LITE_json_value_of
 701      E7800000 
 702              	.LVL76:
 703 015a AA89     		mv	s3,a0
 704              	.LVL77:
 171:C:/Users/stapi/OneDrive/Desktop/GD32VW553/V1_MQTT_OK/GD32VW55X_Wifi_BLE_SDK/GD32VW55x_RELEASE_V1.0.2/MSDK/cloud/alicloud/src/services/shadow\shadow_update.c ****                         shadow_warning("Invalid JSON document: not 'payload.status' key");
 705              		.loc 1 171 21 is_stmt 1
 171:C:/Users/stapi/OneDrive/Desktop/GD32VW553/V1_MQTT_OK/GD32VW55X_Wifi_BLE_SDK/GD32VW55x_RELEASE_V1.0.2/MSDK/cloud/alicloud/src/services/shadow\shadow_update.c ****                         shadow_warning("Invalid JSON document: not 'payload.status' key");
 706              		.loc 1 171 24 is_stmt 0
 707 015c 21ED     		bne	a0,zero,.L44
 172:C:/Users/stapi/OneDrive/Desktop/GD32VW553/V1_MQTT_OK/GD32VW55X_Wifi_BLE_SDK/GD32VW55x_RELEASE_V1.0.2/MSDK/cloud/alicloud/src/services/shadow\shadow_update.c ****                         break;
 708              		.loc 1 172 25 is_stmt 1
 172:C:/Users/stapi/OneDrive/Desktop/GD32VW553/V1_MQTT_OK/GD32VW55X_Wifi_BLE_SDK/GD32VW55x_RELEASE_V1.0.2/MSDK/cloud/alicloud/src/services/shadow\shadow_update.c ****                         break;
 709              		.loc 1 172 25
 710 015e 37050000 		lui	a0,%hi(.LC0)
 711              	.LVL78:
 712 0162 13050500 		addi	a0,a0,%lo(.LC0)
 713 0166 97000000 		call	HAL_Printf
 713      E7800000 
 714              	.LVL79:
 172:C:/Users/stapi/OneDrive/Desktop/GD32VW553/V1_MQTT_OK/GD32VW55X_Wifi_BLE_SDK/GD32VW55x_RELEASE_V1.0.2/MSDK/cloud/alicloud/src/services/shadow\shadow_update.c ****                         break;
 715              		.loc 1 172 25
 716 016e 37050000 		lui	a0,%hi(.LC13)
 717 0172 13050500 		addi	a0,a0,%lo(.LC13)
 718              	.LVL80:
 719              	.L62:
 720              	.LBB2:
 195:C:/Users/stapi/OneDrive/Desktop/GD32VW553/V1_MQTT_OK/GD32VW55X_Wifi_BLE_SDK/GD32VW55x_RELEASE_V1.0.2/MSDK/cloud/alicloud/src/services/shadow\shadow_update.c ****                             break;
 721              		.loc 1 195 29 is_stmt 0
 722 0176 97000000 		call	HAL_Printf
 722      E7800000 
 723              	.LVL81:
 195:C:/Users/stapi/OneDrive/Desktop/GD32VW553/V1_MQTT_OK/GD32VW55X_Wifi_BLE_SDK/GD32VW55x_RELEASE_V1.0.2/MSDK/cloud/alicloud/src/services/shadow\shadow_update.c ****                             break;
 724              		.loc 1 195 29 is_stmt 1
 725 017e 37050000 		lui	a0,%hi(.LC2)
 726 0182 13050500 		addi	a0,a0,%lo(.LC2)
 727 0186 97000000 		call	HAL_Printf
 727      E7800000 
 728              	.LVL82:
 195:C:/Users/stapi/OneDrive/Desktop/GD32VW553/V1_MQTT_OK/GD32VW55X_Wifi_BLE_SDK/GD32VW55x_RELEASE_V1.0.2/MSDK/cloud/alicloud/src/services/shadow\shadow_update.c ****                             break;
 729              		.loc 1 195 29
 196:C:/Users/stapi/OneDrive/Desktop/GD32VW553/V1_MQTT_OK/GD32VW55X_Wifi_BLE_SDK/GD32VW55x_RELEASE_V1.0.2/MSDK/cloud/alicloud/src/services/shadow\shadow_update.c ****                         }
 730              		.loc 1 196 29
 731              	.L45:
 732              	.LBE2:
 215:C:/Users/stapi/OneDrive/Desktop/GD32VW553/V1_MQTT_OK/GD32VW55X_Wifi_BLE_SDK/GD32VW55x_RELEASE_V1.0.2/MSDK/cloud/alicloud/src/services/shadow\shadow_update.c **** 
 733              		.loc 1 215 25
 217:C:/Users/stapi/OneDrive/Desktop/GD32VW553/V1_MQTT_OK/GD32VW55X_Wifi_BLE_SDK/GD32VW55x_RELEASE_V1.0.2/MSDK/cloud/alicloud/src/services/shadow\shadow_update.c ****                 memset(&pelement[i], 0, sizeof(iotx_update_ack_wait_list_t));
 734              		.loc 1 217 17
 735 018e 4840     		lw	a0,4(s0)
 736 0190 97000000 		call	HAL_MutexLock
 736      E7800000 
 737              	.LVL83:
 218:C:/Users/stapi/OneDrive/Desktop/GD32VW553/V1_MQTT_OK/GD32VW55X_Wifi_BLE_SDK/GD32VW55x_RELEASE_V1.0.2/MSDK/cloud/alicloud/src/services/shadow\shadow_update.c ****                 HAL_MutexUnlock(pshadow->mutex);
 738              		.loc 1 218 17
 739 0198 13060009 		li	a2,144
 740 019c 8145     		li	a1,0
 741 019e 4A85     		mv	a0,s2
 742 01a0 97000000 		call	memset
 742      E7800000 
 743              	.LVL84:
 219:C:/Users/stapi/OneDrive/Desktop/GD32VW553/V1_MQTT_OK/GD32VW55X_Wifi_BLE_SDK/GD32VW55x_RELEASE_V1.0.2/MSDK/cloud/alicloud/src/services/shadow\shadow_update.c ****                 return;
 744              		.loc 1 219 17
 745 01a8 4840     		lw	a0,4(s0)
 746 01aa 97000000 		call	HAL_MutexUnlock
 746      E7800000 
 747              	.LVL85:
 220:C:/Users/stapi/OneDrive/Desktop/GD32VW553/V1_MQTT_OK/GD32VW55X_Wifi_BLE_SDK/GD32VW55x_RELEASE_V1.0.2/MSDK/cloud/alicloud/src/services/shadow\shadow_update.c ****             }
 748              		.loc 1 220 17
 749 01b2 45B5     		j	.L39
 750              	.LVL86:
 751              	.L44:
 176:C:/Users/stapi/OneDrive/Desktop/GD32VW553/V1_MQTT_OK/GD32VW55X_Wifi_BLE_SDK/GD32VW55x_RELEASE_V1.0.2/MSDK/cloud/alicloud/src/services/shadow\shadow_update.c ****                         char    *temp = NULL;
 752              		.loc 1 176 21
 176:C:/Users/stapi/OneDrive/Desktop/GD32VW553/V1_MQTT_OK/GD32VW55X_Wifi_BLE_SDK/GD32VW55x_RELEASE_V1.0.2/MSDK/cloud/alicloud/src/services/shadow\shadow_update.c ****                         char    *temp = NULL;
 753              		.loc 1 176 30 is_stmt 0
 754 01b4 97000000 		call	strlen
 754      E7800000 
 755              	.LVL87:
 756 01bc B7050000 		lui	a1,%hi(.LC14)
 757 01c0 2A86     		mv	a2,a0
 758 01c2 2AC6     		sw	a0,12(sp)
 759 01c4 93850500 		addi	a1,a1,%lo(.LC14)
 760 01c8 4E85     		mv	a0,s3
 761 01ca 97000000 		call	strncmp
 761      E7800000 
 762              	.LVL88:
 176:C:/Users/stapi/OneDrive/Desktop/GD32VW553/V1_MQTT_OK/GD32VW55X_Wifi_BLE_SDK/GD32VW55x_RELEASE_V1.0.2/MSDK/cloud/alicloud/src/services/shadow\shadow_update.c ****                         char    *temp = NULL;
 763              		.loc 1 176 24
 764 01d2 3246     		lw	a2,12(sp)
 765 01d4 21ED     		bne	a0,zero,.L46
 766              	.LBB3:
 177:C:/Users/stapi/OneDrive/Desktop/GD32VW553/V1_MQTT_OK/GD32VW55X_Wifi_BLE_SDK/GD32VW55x_RELEASE_V1.0.2/MSDK/cloud/alicloud/src/services/shadow\shadow_update.c ****                         
 767              		.loc 1 177 25 is_stmt 1
 768              	.LVL89:
 179:C:/Users/stapi/OneDrive/Desktop/GD32VW553/V1_MQTT_OK/GD32VW55X_Wifi_BLE_SDK/GD32VW55x_RELEASE_V1.0.2/MSDK/cloud/alicloud/src/services/shadow\shadow_update.c **** 
 769              		.loc 1 179 25
 770 01d6 4E85     		mv	a0,s3
 771 01d8 97000000 		call	LITE_free_internal
 771      E7800000 
 772              	.LVL90:
 182:C:/Users/stapi/OneDrive/Desktop/GD32VW553/V1_MQTT_OK/GD32VW55X_Wifi_BLE_SDK/GD32VW55x_RELEASE_V1.0.2/MSDK/cloud/alicloud/src/services/shadow\shadow_update.c ****                         if (NULL != temp) {
 773              		.loc 1 182 25
 182:C:/Users/stapi/OneDrive/Desktop/GD32VW553/V1_MQTT_OK/GD32VW55X_Wifi_BLE_SDK/GD32VW55x_RELEASE_V1.0.2/MSDK/cloud/alicloud/src/services/shadow\shadow_update.c ****                         if (NULL != temp) {
 774              		.loc 1 182 32 is_stmt 0
 775 01e0 37050000 		lui	a0,%hi(.LC15)
 776 01e4 A685     		mv	a1,s1
 777 01e6 13050500 		addi	a0,a0,%lo(.LC15)
 778 01ea 97000000 		call	LITE_json_value_of
 778      E7800000 
 779              	.LVL91:
 780 01f2 AA89     		mv	s3,a0
 781              	.LVL92:
 183:C:/Users/stapi/OneDrive/Desktop/GD32VW553/V1_MQTT_OK/GD32VW55X_Wifi_BLE_SDK/GD32VW55x_RELEASE_V1.0.2/MSDK/cloud/alicloud/src/services/shadow\shadow_update.c ****                             iotx_shadow_delta_entry(pshadow, json_doc, json_doc_len); /* update att
 782              		.loc 1 183 25 is_stmt 1
 183:C:/Users/stapi/OneDrive/Desktop/GD32VW553/V1_MQTT_OK/GD32VW55X_Wifi_BLE_SDK/GD32VW55x_RELEASE_V1.0.2/MSDK/cloud/alicloud/src/services/shadow\shadow_update.c ****                             iotx_shadow_delta_entry(pshadow, json_doc, json_doc_len); /* update att
 783              		.loc 1 183 28 is_stmt 0
 784 01f4 09CD     		beq	a0,zero,.L47
 184:C:/Users/stapi/OneDrive/Desktop/GD32VW553/V1_MQTT_OK/GD32VW55X_Wifi_BLE_SDK/GD32VW55x_RELEASE_V1.0.2/MSDK/cloud/alicloud/src/services/shadow\shadow_update.c ****                             LITE_free(temp);
 785              		.loc 1 184 29 is_stmt 1
 786 01f6 2285     		mv	a0,s0
 787              	.LVL93:
 788 01f8 5686     		mv	a2,s5
 789 01fa D285     		mv	a1,s4
 790 01fc 97000000 		call	iotx_shadow_delta_entry
 790      E7800000 
 791              	.LVL94:
 185:C:/Users/stapi/OneDrive/Desktop/GD32VW553/V1_MQTT_OK/GD32VW55X_Wifi_BLE_SDK/GD32VW55x_RELEASE_V1.0.2/MSDK/cloud/alicloud/src/services/shadow\shadow_update.c ****                         }
 792              		.loc 1 185 29
 793 0204 4E85     		mv	a0,s3
 794 0206 97000000 		call	LITE_free_internal
 794      E7800000 
 795              	.LVL95:
 796              	.L47:
 188:C:/Users/stapi/OneDrive/Desktop/GD32VW553/V1_MQTT_OK/GD32VW55X_Wifi_BLE_SDK/GD32VW55x_RELEASE_V1.0.2/MSDK/cloud/alicloud/src/services/shadow\shadow_update.c ****                     } else if (0 == strncmp(pdata, "error", strlen(pdata))) {
 797              		.loc 1 188 25
 798 020e 83274908 		lw	a5,132(s2)
 799 0212 03258908 		lw	a0,136(s2)
 800 0216 8146     		li	a3,0
 801 0218 0146     		li	a2,0
 802 021a 9305800C 		li	a1,200
 803 021e 8297     		jalr	a5
 804              	.LVL96:
 805              	.L48:
 806              	.LBE3:
 214:C:/Users/stapi/OneDrive/Desktop/GD32VW553/V1_MQTT_OK/GD32VW55X_Wifi_BLE_SDK/GD32VW55x_RELEASE_V1.0.2/MSDK/cloud/alicloud/src/services/shadow\shadow_update.c ****                 } while (0);
 807              		.loc 1 214 21
 808 0220 2685     		mv	a0,s1
 809 0222 97000000 		call	LITE_free_internal
 809      E7800000 
 810              	.LVL97:
 811 022a 95B7     		j	.L45
 812              	.LVL98:
 813              	.L46:
 189:C:/Users/stapi/OneDrive/Desktop/GD32VW553/V1_MQTT_OK/GD32VW55X_Wifi_BLE_SDK/GD32VW55x_RELEASE_V1.0.2/MSDK/cloud/alicloud/src/services/shadow\shadow_update.c ****                         int ack_code;
 814              		.loc 1 189 28
 189:C:/Users/stapi/OneDrive/Desktop/GD32VW553/V1_MQTT_OK/GD32VW55X_Wifi_BLE_SDK/GD32VW55x_RELEASE_V1.0.2/MSDK/cloud/alicloud/src/services/shadow\shadow_update.c ****                         int ack_code;
 815              		.loc 1 189 37 is_stmt 0
 816 022c B7050000 		lui	a1,%hi(.LC16)
 817 0230 93850500 		addi	a1,a1,%lo(.LC16)
 818 0234 4E85     		mv	a0,s3
 819 0236 97000000 		call	strncmp
 819      E7800000 
 820              	.LVL99:
 189:C:/Users/stapi/OneDrive/Desktop/GD32VW553/V1_MQTT_OK/GD32VW55X_Wifi_BLE_SDK/GD32VW55x_RELEASE_V1.0.2/MSDK/cloud/alicloud/src/services/shadow\shadow_update.c ****                         int ack_code;
 821              		.loc 1 189 31
 822 023e 55E1     		bne	a0,zero,.L49
 823              	.LBB4:
 190:C:/Users/stapi/OneDrive/Desktop/GD32VW553/V1_MQTT_OK/GD32VW55X_Wifi_BLE_SDK/GD32VW55x_RELEASE_V1.0.2/MSDK/cloud/alicloud/src/services/shadow\shadow_update.c **** 
 824              		.loc 1 190 25 is_stmt 1
 192:C:/Users/stapi/OneDrive/Desktop/GD32VW553/V1_MQTT_OK/GD32VW55X_Wifi_BLE_SDK/GD32VW55x_RELEASE_V1.0.2/MSDK/cloud/alicloud/src/services/shadow\shadow_update.c ****                         pdata = LITE_json_value_of("content.errorcode", (char *)ppayload);
 825              		.loc 1 192 25
 826 0240 4E85     		mv	a0,s3
 827 0242 97000000 		call	LITE_free_internal
 827      E7800000 
 828              	.LVL100:
 193:C:/Users/stapi/OneDrive/Desktop/GD32VW553/V1_MQTT_OK/GD32VW55X_Wifi_BLE_SDK/GD32VW55x_RELEASE_V1.0.2/MSDK/cloud/alicloud/src/services/shadow\shadow_update.c ****                         if (NULL == pdata) {
 829              		.loc 1 193 25
 193:C:/Users/stapi/OneDrive/Desktop/GD32VW553/V1_MQTT_OK/GD32VW55X_Wifi_BLE_SDK/GD32VW55x_RELEASE_V1.0.2/MSDK/cloud/alicloud/src/services/shadow\shadow_update.c ****                         if (NULL == pdata) {
 830              		.loc 1 193 33 is_stmt 0
 831 024a 37050000 		lui	a0,%hi(.LC17)
 832 024e A685     		mv	a1,s1
 833 0250 13050500 		addi	a0,a0,%lo(.LC17)
 834 0254 97000000 		call	LITE_json_value_of
 834      E7800000 
 835              	.LVL101:
 836 025c AA89     		mv	s3,a0
 837              	.LVL102:
 194:C:/Users/stapi/OneDrive/Desktop/GD32VW553/V1_MQTT_OK/GD32VW55X_Wifi_BLE_SDK/GD32VW55x_RELEASE_V1.0.2/MSDK/cloud/alicloud/src/services/shadow\shadow_update.c ****                             shadow_warning("Invalid JSON document: not 'content.errorcode' key");
 838              		.loc 1 194 25 is_stmt 1
 194:C:/Users/stapi/OneDrive/Desktop/GD32VW553/V1_MQTT_OK/GD32VW55X_Wifi_BLE_SDK/GD32VW55x_RELEASE_V1.0.2/MSDK/cloud/alicloud/src/services/shadow\shadow_update.c ****                             shadow_warning("Invalid JSON document: not 'content.errorcode' key");
 839              		.loc 1 194 28 is_stmt 0
 840 025e 11ED     		bne	a0,zero,.L50
 195:C:/Users/stapi/OneDrive/Desktop/GD32VW553/V1_MQTT_OK/GD32VW55X_Wifi_BLE_SDK/GD32VW55x_RELEASE_V1.0.2/MSDK/cloud/alicloud/src/services/shadow\shadow_update.c ****                             break;
 841              		.loc 1 195 29 is_stmt 1
 195:C:/Users/stapi/OneDrive/Desktop/GD32VW553/V1_MQTT_OK/GD32VW55X_Wifi_BLE_SDK/GD32VW55x_RELEASE_V1.0.2/MSDK/cloud/alicloud/src/services/shadow\shadow_update.c ****                             break;
 842              		.loc 1 195 29
 843 0260 37050000 		lui	a0,%hi(.LC0)
 844              	.LVL103:
 845 0264 13050500 		addi	a0,a0,%lo(.LC0)
 846 0268 97000000 		call	HAL_Printf
 846      E7800000 
 847              	.LVL104:
 195:C:/Users/stapi/OneDrive/Desktop/GD32VW553/V1_MQTT_OK/GD32VW55X_Wifi_BLE_SDK/GD32VW55x_RELEASE_V1.0.2/MSDK/cloud/alicloud/src/services/shadow\shadow_update.c ****                             break;
 848              		.loc 1 195 29
 849 0270 37050000 		lui	a0,%hi(.LC18)
 850 0274 13050500 		addi	a0,a0,%lo(.LC18)
 851 0278 FDBD     		j	.L62
 852              	.LVL105:
 853              	.L50:
 198:C:/Users/stapi/OneDrive/Desktop/GD32VW553/V1_MQTT_OK/GD32VW55X_Wifi_BLE_SDK/GD32VW55x_RELEASE_V1.0.2/MSDK/cloud/alicloud/src/services/shadow\shadow_update.c ****                         LITE_free(pdata);
 854              		.loc 1 198 25
 198:C:/Users/stapi/OneDrive/Desktop/GD32VW553/V1_MQTT_OK/GD32VW55X_Wifi_BLE_SDK/GD32VW55x_RELEASE_V1.0.2/MSDK/cloud/alicloud/src/services/shadow\shadow_update.c ****                         LITE_free(pdata);
 855              		.loc 1 198 36 is_stmt 0
 856 027a 97000000 		call	atoi
 856      E7800000 
 857              	.LVL106:
 858 0282 2A8A     		mv	s4,a0
 859              	.LVL107:
 199:C:/Users/stapi/OneDrive/Desktop/GD32VW553/V1_MQTT_OK/GD32VW55X_Wifi_BLE_SDK/GD32VW55x_RELEASE_V1.0.2/MSDK/cloud/alicloud/src/services/shadow\shadow_update.c **** 
 860              		.loc 1 199 25 is_stmt 1
 861 0284 4E85     		mv	a0,s3
 862              	.LVL108:
 863 0286 97000000 		call	LITE_free_internal
 863      E7800000 
 864              	.LVL109:
 201:C:/Users/stapi/OneDrive/Desktop/GD32VW553/V1_MQTT_OK/GD32VW55X_Wifi_BLE_SDK/GD32VW55x_RELEASE_V1.0.2/MSDK/cloud/alicloud/src/services/shadow\shadow_update.c ****                         if (NULL == pdata) {
 865              		.loc 1 201 25
 201:C:/Users/stapi/OneDrive/Desktop/GD32VW553/V1_MQTT_OK/GD32VW55X_Wifi_BLE_SDK/GD32VW55x_RELEASE_V1.0.2/MSDK/cloud/alicloud/src/services/shadow\shadow_update.c ****                         if (NULL == pdata) {
 866              		.loc 1 201 33 is_stmt 0
 867 028e 37050000 		lui	a0,%hi(.LC19)
 868 0292 A685     		mv	a1,s1
 869 0294 13050500 		addi	a0,a0,%lo(.LC19)
 870 0298 97000000 		call	LITE_json_value_of
 870      E7800000 
 871              	.LVL110:
 872 02a0 AA89     		mv	s3,a0
 873              	.LVL111:
 202:C:/Users/stapi/OneDrive/Desktop/GD32VW553/V1_MQTT_OK/GD32VW55X_Wifi_BLE_SDK/GD32VW55x_RELEASE_V1.0.2/MSDK/cloud/alicloud/src/services/shadow\shadow_update.c ****                             shadow_warning("Invalid JSON document: not 'content.errormessage' key")
 874              		.loc 1 202 25 is_stmt 1
 202:C:/Users/stapi/OneDrive/Desktop/GD32VW553/V1_MQTT_OK/GD32VW55X_Wifi_BLE_SDK/GD32VW55x_RELEASE_V1.0.2/MSDK/cloud/alicloud/src/services/shadow\shadow_update.c ****                             shadow_warning("Invalid JSON document: not 'content.errormessage' key")
 875              		.loc 1 202 28 is_stmt 0
 876 02a2 11ED     		bne	a0,zero,.L51
 203:C:/Users/stapi/OneDrive/Desktop/GD32VW553/V1_MQTT_OK/GD32VW55X_Wifi_BLE_SDK/GD32VW55x_RELEASE_V1.0.2/MSDK/cloud/alicloud/src/services/shadow\shadow_update.c ****                             break;
 877              		.loc 1 203 29 is_stmt 1
 203:C:/Users/stapi/OneDrive/Desktop/GD32VW553/V1_MQTT_OK/GD32VW55X_Wifi_BLE_SDK/GD32VW55x_RELEASE_V1.0.2/MSDK/cloud/alicloud/src/services/shadow\shadow_update.c ****                             break;
 878              		.loc 1 203 29
 879 02a4 37050000 		lui	a0,%hi(.LC0)
 880              	.LVL112:
 881 02a8 13050500 		addi	a0,a0,%lo(.LC0)
 882 02ac 97000000 		call	HAL_Printf
 882      E7800000 
 883              	.LVL113:
 203:C:/Users/stapi/OneDrive/Desktop/GD32VW553/V1_MQTT_OK/GD32VW55X_Wifi_BLE_SDK/GD32VW55x_RELEASE_V1.0.2/MSDK/cloud/alicloud/src/services/shadow\shadow_update.c ****                             break;
 884              		.loc 1 203 29
 885 02b4 37050000 		lui	a0,%hi(.LC20)
 886 02b8 13050500 		addi	a0,a0,%lo(.LC20)
 887 02bc 6DBD     		j	.L62
 888              	.LVL114:
 889              	.L51:
 207:C:/Users/stapi/OneDrive/Desktop/GD32VW553/V1_MQTT_OK/GD32VW55X_Wifi_BLE_SDK/GD32VW55x_RELEASE_V1.0.2/MSDK/cloud/alicloud/src/services/shadow\shadow_update.c ****                         LITE_free(pdata);
 890              		.loc 1 207 25
 207:C:/Users/stapi/OneDrive/Desktop/GD32VW553/V1_MQTT_OK/GD32VW55X_Wifi_BLE_SDK/GD32VW55x_RELEASE_V1.0.2/MSDK/cloud/alicloud/src/services/shadow\shadow_update.c ****                         LITE_free(pdata);
 891              		.loc 1 207 85 is_stmt 0
 892 02be 97000000 		call	strlen
 892      E7800000 
 893              	.LVL115:
 894 02c6 AA86     		mv	a3,a0
 207:C:/Users/stapi/OneDrive/Desktop/GD32VW553/V1_MQTT_OK/GD32VW55X_Wifi_BLE_SDK/GD32VW55x_RELEASE_V1.0.2/MSDK/cloud/alicloud/src/services/shadow\shadow_update.c ****                         LITE_free(pdata);
 895              		.loc 1 207 25
 896 02c8 83274908 		lw	a5,132(s2)
 897 02cc 03258908 		lw	a0,136(s2)
 898 02d0 4E86     		mv	a2,s3
 899 02d2 D285     		mv	a1,s4
 900 02d4 8297     		jalr	a5
 901              	.LVL116:
 208:C:/Users/stapi/OneDrive/Desktop/GD32VW553/V1_MQTT_OK/GD32VW55X_Wifi_BLE_SDK/GD32VW55x_RELEASE_V1.0.2/MSDK/cloud/alicloud/src/services/shadow\shadow_update.c ****                     } else {
 902              		.loc 1 208 25 is_stmt 1
 903              	.L61:
 904              	.LBE4:
 210:C:/Users/stapi/OneDrive/Desktop/GD32VW553/V1_MQTT_OK/GD32VW55X_Wifi_BLE_SDK/GD32VW55x_RELEASE_V1.0.2/MSDK/cloud/alicloud/src/services/shadow\shadow_update.c ****                         LITE_free(pdata);
 905              		.loc 1 210 25
 211:C:/Users/stapi/OneDrive/Desktop/GD32VW553/V1_MQTT_OK/GD32VW55X_Wifi_BLE_SDK/GD32VW55x_RELEASE_V1.0.2/MSDK/cloud/alicloud/src/services/shadow\shadow_update.c ****                     }
 906              		.loc 1 211 25
 907 02d6 4E85     		mv	a0,s3
 908 02d8 97000000 		call	LITE_free_internal
 908      E7800000 
 909              	.LVL117:
 910 02e0 81B7     		j	.L48
 911              	.LVL118:
 912              	.L49:
 210:C:/Users/stapi/OneDrive/Desktop/GD32VW553/V1_MQTT_OK/GD32VW55X_Wifi_BLE_SDK/GD32VW55x_RELEASE_V1.0.2/MSDK/cloud/alicloud/src/services/shadow\shadow_update.c ****                         LITE_free(pdata);
 913              		.loc 1 210 25
 210:C:/Users/stapi/OneDrive/Desktop/GD32VW553/V1_MQTT_OK/GD32VW55X_Wifi_BLE_SDK/GD32VW55x_RELEASE_V1.0.2/MSDK/cloud/alicloud/src/services/shadow\shadow_update.c ****                         LITE_free(pdata);
 914              		.loc 1 210 25
 915 02e2 37050000 		lui	a0,%hi(.LC0)
 916 02e6 13050500 		addi	a0,a0,%lo(.LC0)
 917 02ea 97000000 		call	HAL_Printf
 917      E7800000 
 918              	.LVL119:
 210:C:/Users/stapi/OneDrive/Desktop/GD32VW553/V1_MQTT_OK/GD32VW55X_Wifi_BLE_SDK/GD32VW55x_RELEASE_V1.0.2/MSDK/cloud/alicloud/src/services/shadow\shadow_update.c ****                         LITE_free(pdata);
 919              		.loc 1 210 25
 920 02f2 37050000 		lui	a0,%hi(.LC21)
 921 02f6 13050500 		addi	a0,a0,%lo(.LC21)
 922 02fa 97000000 		call	HAL_Printf
 922      E7800000 
 923              	.LVL120:
 210:C:/Users/stapi/OneDrive/Desktop/GD32VW553/V1_MQTT_OK/GD32VW55X_Wifi_BLE_SDK/GD32VW55x_RELEASE_V1.0.2/MSDK/cloud/alicloud/src/services/shadow\shadow_update.c ****                         LITE_free(pdata);
 924              		.loc 1 210 25
 925 0302 37050000 		lui	a0,%hi(.LC2)
 926 0306 13050500 		addi	a0,a0,%lo(.LC2)
 927 030a 97000000 		call	HAL_Printf
 927      E7800000 
 928              	.LVL121:
 929 0312 D1B7     		j	.L61
 930              	.LVL122:
 931              	.L43:
 162:C:/Users/stapi/OneDrive/Desktop/GD32VW553/V1_MQTT_OK/GD32VW55X_Wifi_BLE_SDK/GD32VW55x_RELEASE_V1.0.2/MSDK/cloud/alicloud/src/services/shadow\shadow_update.c ****         if (0 != pelement[i].flag_busy) {
 932              		.loc 1 162 55 discriminator 2
 162:C:/Users/stapi/OneDrive/Desktop/GD32VW553/V1_MQTT_OK/GD32VW55X_Wifi_BLE_SDK/GD32VW55x_RELEASE_V1.0.2/MSDK/cloud/alicloud/src/services/shadow\shadow_update.c ****         if (0 != pelement[i].flag_busy) {
 933              		.loc 1 162 17 discriminator 2
 162:C:/Users/stapi/OneDrive/Desktop/GD32VW553/V1_MQTT_OK/GD32VW55X_Wifi_BLE_SDK/GD32VW55x_RELEASE_V1.0.2/MSDK/cloud/alicloud/src/services/shadow\shadow_update.c ****         if (0 != pelement[i].flag_busy) {
 934              		.loc 1 162 5 is_stmt 0 discriminator 2
 935 0314 13090909 		addi	s2,s2,144
 936 0318 E31A99DD 		bne	s2,s9,.L52
 225:C:/Users/stapi/OneDrive/Desktop/GD32VW553/V1_MQTT_OK/GD32VW55X_Wifi_BLE_SDK/GD32VW55x_RELEASE_V1.0.2/MSDK/cloud/alicloud/src/services/shadow\shadow_update.c ****     LITE_free(ppayload);
 937              		.loc 1 225 5 is_stmt 1
 938 031c 4E85     		mv	a0,s3
 939 031e 97000000 		call	LITE_free_internal
 939      E7800000 
 940              	.LVL123:
 226:C:/Users/stapi/OneDrive/Desktop/GD32VW553/V1_MQTT_OK/GD32VW55X_Wifi_BLE_SDK/GD32VW55x_RELEASE_V1.0.2/MSDK/cloud/alicloud/src/services/shadow\shadow_update.c ****     HAL_MutexUnlock(pshadow->mutex);
 941              		.loc 1 226 5
 942 0326 2685     		mv	a0,s1
 943 0328 97000000 		call	LITE_free_internal
 943      E7800000 
 944              	.LVL124:
 227:C:/Users/stapi/OneDrive/Desktop/GD32VW553/V1_MQTT_OK/GD32VW55X_Wifi_BLE_SDK/GD32VW55x_RELEASE_V1.0.2/MSDK/cloud/alicloud/src/services/shadow\shadow_update.c ****     shadow_warning("Not match any wait element in list.");
 945              		.loc 1 227 5
 946 0330 4840     		lw	a0,4(s0)
 947 0332 97000000 		call	HAL_MutexUnlock
 947      E7800000 
 948              	.LVL125:
 228:C:/Users/stapi/OneDrive/Desktop/GD32VW553/V1_MQTT_OK/GD32VW55X_Wifi_BLE_SDK/GD32VW55x_RELEASE_V1.0.2/MSDK/cloud/alicloud/src/services/shadow\shadow_update.c **** 
 949              		.loc 1 228 5
 228:C:/Users/stapi/OneDrive/Desktop/GD32VW553/V1_MQTT_OK/GD32VW55X_Wifi_BLE_SDK/GD32VW55x_RELEASE_V1.0.2/MSDK/cloud/alicloud/src/services/shadow\shadow_update.c **** 
 950              		.loc 1 228 5
 951 033a 37050000 		lui	a0,%hi(.LC0)
 952 033e 13050500 		addi	a0,a0,%lo(.LC0)
 953 0342 97000000 		call	HAL_Printf
 953      E7800000 
 954              	.LVL126:
 228:C:/Users/stapi/OneDrive/Desktop/GD32VW553/V1_MQTT_OK/GD32VW55X_Wifi_BLE_SDK/GD32VW55x_RELEASE_V1.0.2/MSDK/cloud/alicloud/src/services/shadow\shadow_update.c **** 
 955              		.loc 1 228 5
 956 034a 37050000 		lui	a0,%hi(.LC22)
 957 034e 13050500 		addi	a0,a0,%lo(.LC22)
 958 0352 97000000 		call	HAL_Printf
 958      E7800000 
 959              	.LVL127:
 228:C:/Users/stapi/OneDrive/Desktop/GD32VW553/V1_MQTT_OK/GD32VW55X_Wifi_BLE_SDK/GD32VW55x_RELEASE_V1.0.2/MSDK/cloud/alicloud/src/services/shadow\shadow_update.c **** 
 960              		.loc 1 228 5
 961 035a 37050000 		lui	a0,%hi(.LC2)
 962 035e 13050500 		addi	a0,a0,%lo(.LC2)
 963 0362 97000000 		call	HAL_Printf
 963      E7800000 
 964              	.LVL128:
 228:C:/Users/stapi/OneDrive/Desktop/GD32VW553/V1_MQTT_OK/GD32VW55X_Wifi_BLE_SDK/GD32VW55x_RELEASE_V1.0.2/MSDK/cloud/alicloud/src/services/shadow\shadow_update.c **** 
 965              		.loc 1 228 5
 231:C:/Users/stapi/OneDrive/Desktop/GD32VW553/V1_MQTT_OK/GD32VW55X_Wifi_BLE_SDK/GD32VW55x_RELEASE_V1.0.2/MSDK/cloud/alicloud/src/services/shadow\shadow_update.c **** }
 966              		.loc 1 231 5
 967 036a 2285     		mv	a0,s0
 968 036c 97000000 		call	iotx_shadow_do_callback
 968      E7800000 
 969              	.LVL129:
 970 0374 F9B9     		j	.L39
 971              		.cfi_endproc
 972              	.LFE24:
 974              		.section	.rodata.__FUNCTION__.0,"a"
 975              		.align	2
 976              		.set	.LANCHOR1,. + 0
 979              	__FUNCTION__.0:
 980 0000 696F7478 		.string	"iotx_ds_update_wait_ack_list_handle_response"
 980      5F64735F 
 980      75706461 
 980      74655F77 
 980      6169745F 
 981              		.section	.rodata.__FUNCTION__.1,"a"
 982              		.align	2
 983              		.set	.LANCHOR0,. + 0
 986              	__FUNCTION__.1:
 987 0000 696F7478 		.string	"iotx_shadow_update_wait_ack_list_add"
 987      5F736861 
 987      646F775F 
 987      75706461 
 987      74655F77 
 988              		.text
 989              	.Letext0:
 990              		.file 2 "c:\\users\\stapi\\onedrive\\desktop\\gd32vw553\\embeddedbuilder_v1.4.7.26843\\tools\\nucl
 991              		.file 3 "c:\\users\\stapi\\onedrive\\desktop\\gd32vw553\\embeddedbuilder_v1.4.7.26843\\tools\\nucl
 992              		.file 4 "c:\\users\\stapi\\onedrive\\desktop\\gd32vw553\\embeddedbuilder_v1.4.7.26843\\tools\\nucl
 993              		.file 5 "..\\..\\..\\..\\cloud\\alicloud\\include/exports/iot_export_shadow.h"
 994              		.file 6 "..\\..\\..\\..\\cloud\\alicloud\\src\\infra\\utils\\misc/utils_timer.h"
 995              		.file 7 "C:/Users/stapi/OneDrive/Desktop/GD32VW553/V1_MQTT_OK/GD32VW55X_Wifi_BLE_SDK/GD32VW55x_REL
 996              		.file 8 "C:/Users/stapi/OneDrive/Desktop/GD32VW553/V1_MQTT_OK/GD32VW55X_Wifi_BLE_SDK/GD32VW55x_REL
 997              		.file 9 "..\\..\\..\\..\\cloud\\alicloud\\src\\infra\\utils/iotx_utils.h"
 998              		.file 10 "..\\..\\..\\..\\cloud\\alicloud\\include/iot_import.h"
 999              		.file 11 "c:\\users\\stapi\\onedrive\\desktop\\gd32vw553\\embeddedbuilder_v1.4.7.26843\\tools\\nuc
 1000              		.file 12 "c:\\users\\stapi\\onedrive\\desktop\\gd32vw553\\embeddedbuilder_v1.4.7.26843\\tools\\nuc
 1001              		.file 13 "..\\..\\..\\..\\cloud\\alicloud\\src\\infra\\log/iotx_log.h"
 1002              		.file 14 "<built-in>"