   1              		.file	"utils_list.c"
   2              		.option nopic
   3              		.attribute arch, "rv32i2p0_m2p0_a2p0_f2p0_c2p0_b_p0p94"
   4              		.attribute unaligned_access, 0
   5              		.attribute stack_align, 16
   6              		.text
   7              	.Ltext0:
   8              		.cfi_sections	.debug_frame
   9              		.section	.text.list_new,"ax",@progbits
  10              		.align	1
  11              		.globl	list_new
  13              	list_new:
  14              	.LFB20:
  15              		.file 1 "C:/Users/stapi/OneDrive/Desktop/GD32VW553/V1_MQTT_OK/GD32VW55X_Wifi_BLE_SDK/GD32VW55x_REL
   1:C:/Users/stapi/OneDrive/Desktop/GD32VW553/V1_MQTT_OK/GD32VW55X_Wifi_BLE_SDK/GD32VW55x_RELEASE_V1.0.2/MSDK/cloud/alicloud/src/services/shadow\utils_list.c **** /*
   2:C:/Users/stapi/OneDrive/Desktop/GD32VW553/V1_MQTT_OK/GD32VW55X_Wifi_BLE_SDK/GD32VW55x_RELEASE_V1.0.2/MSDK/cloud/alicloud/src/services/shadow\utils_list.c ****  * Copyright (C) 2015-2018 Alibaba Group Holding Limited
   3:C:/Users/stapi/OneDrive/Desktop/GD32VW553/V1_MQTT_OK/GD32VW55X_Wifi_BLE_SDK/GD32VW55x_RELEASE_V1.0.2/MSDK/cloud/alicloud/src/services/shadow\utils_list.c ****  */
   4:C:/Users/stapi/OneDrive/Desktop/GD32VW553/V1_MQTT_OK/GD32VW55X_Wifi_BLE_SDK/GD32VW55x_RELEASE_V1.0.2/MSDK/cloud/alicloud/src/services/shadow\utils_list.c **** 
   5:C:/Users/stapi/OneDrive/Desktop/GD32VW553/V1_MQTT_OK/GD32VW55X_Wifi_BLE_SDK/GD32VW55x_RELEASE_V1.0.2/MSDK/cloud/alicloud/src/services/shadow\utils_list.c **** #include "iot_import.h"
   6:C:/Users/stapi/OneDrive/Desktop/GD32VW553/V1_MQTT_OK/GD32VW55X_Wifi_BLE_SDK/GD32VW55x_RELEASE_V1.0.2/MSDK/cloud/alicloud/src/services/shadow\utils_list.c **** #include "iotx_log.h"
   7:C:/Users/stapi/OneDrive/Desktop/GD32VW553/V1_MQTT_OK/GD32VW55X_Wifi_BLE_SDK/GD32VW55x_RELEASE_V1.0.2/MSDK/cloud/alicloud/src/services/shadow\utils_list.c **** #include "iotx_utils_internal.h"
   8:C:/Users/stapi/OneDrive/Desktop/GD32VW553/V1_MQTT_OK/GD32VW55X_Wifi_BLE_SDK/GD32VW55x_RELEASE_V1.0.2/MSDK/cloud/alicloud/src/services/shadow\utils_list.c **** #include "utils_list.h"
   9:C:/Users/stapi/OneDrive/Desktop/GD32VW553/V1_MQTT_OK/GD32VW55X_Wifi_BLE_SDK/GD32VW55x_RELEASE_V1.0.2/MSDK/cloud/alicloud/src/services/shadow\utils_list.c **** 
  10:C:/Users/stapi/OneDrive/Desktop/GD32VW553/V1_MQTT_OK/GD32VW55X_Wifi_BLE_SDK/GD32VW55x_RELEASE_V1.0.2/MSDK/cloud/alicloud/src/services/shadow\utils_list.c **** 
  11:C:/Users/stapi/OneDrive/Desktop/GD32VW553/V1_MQTT_OK/GD32VW55X_Wifi_BLE_SDK/GD32VW55x_RELEASE_V1.0.2/MSDK/cloud/alicloud/src/services/shadow\utils_list.c **** /*
  12:C:/Users/stapi/OneDrive/Desktop/GD32VW553/V1_MQTT_OK/GD32VW55X_Wifi_BLE_SDK/GD32VW55x_RELEASE_V1.0.2/MSDK/cloud/alicloud/src/services/shadow\utils_list.c ****  * Allocate a new list_t. NULL on failure.
  13:C:/Users/stapi/OneDrive/Desktop/GD32VW553/V1_MQTT_OK/GD32VW55X_Wifi_BLE_SDK/GD32VW55x_RELEASE_V1.0.2/MSDK/cloud/alicloud/src/services/shadow\utils_list.c ****  */
  14:C:/Users/stapi/OneDrive/Desktop/GD32VW553/V1_MQTT_OK/GD32VW55X_Wifi_BLE_SDK/GD32VW55x_RELEASE_V1.0.2/MSDK/cloud/alicloud/src/services/shadow\utils_list.c **** list_t *list_new(void)
  15:C:/Users/stapi/OneDrive/Desktop/GD32VW553/V1_MQTT_OK/GD32VW55X_Wifi_BLE_SDK/GD32VW55x_RELEASE_V1.0.2/MSDK/cloud/alicloud/src/services/shadow\utils_list.c **** {
  16              		.loc 1 15 1
  17              		.cfi_startproc
  18 0000 17030000 		call	t0,__riscv_save_0
  18      E7020300 
  19              		.cfi_offset 1, -4
  20              		.cfi_def_cfa_offset 16
  16:C:/Users/stapi/OneDrive/Desktop/GD32VW553/V1_MQTT_OK/GD32VW55X_Wifi_BLE_SDK/GD32VW55x_RELEASE_V1.0.2/MSDK/cloud/alicloud/src/services/shadow\utils_list.c ****     list_t *self;
  21              		.loc 1 16 5
  17:C:/Users/stapi/OneDrive/Desktop/GD32VW553/V1_MQTT_OK/GD32VW55X_Wifi_BLE_SDK/GD32VW55x_RELEASE_V1.0.2/MSDK/cloud/alicloud/src/services/shadow\utils_list.c ****     self = LITE_malloc(sizeof(list_t));
  22              		.loc 1 17 5
  23              		.loc 1 17 12 is_stmt 0
  24 0008 5146     		li	a2,20
  25 000a 8145     		li	a1,0
  26 000c 0145     		li	a0,0
  27 000e 97000000 		call	LITE_malloc_internal
  27      E7800000 
  28              	.LVL0:
  18:C:/Users/stapi/OneDrive/Desktop/GD32VW553/V1_MQTT_OK/GD32VW55X_Wifi_BLE_SDK/GD32VW55x_RELEASE_V1.0.2/MSDK/cloud/alicloud/src/services/shadow\utils_list.c ****     if (!self) {
  29              		.loc 1 18 5 is_stmt 1
  30              		.loc 1 18 8 is_stmt 0
  31 0016 19C9     		beq	a0,zero,.L1
  19:C:/Users/stapi/OneDrive/Desktop/GD32VW553/V1_MQTT_OK/GD32VW55X_Wifi_BLE_SDK/GD32VW55x_RELEASE_V1.0.2/MSDK/cloud/alicloud/src/services/shadow\utils_list.c ****         return NULL;
  20:C:/Users/stapi/OneDrive/Desktop/GD32VW553/V1_MQTT_OK/GD32VW55X_Wifi_BLE_SDK/GD32VW55x_RELEASE_V1.0.2/MSDK/cloud/alicloud/src/services/shadow\utils_list.c ****     }
  21:C:/Users/stapi/OneDrive/Desktop/GD32VW553/V1_MQTT_OK/GD32VW55X_Wifi_BLE_SDK/GD32VW55x_RELEASE_V1.0.2/MSDK/cloud/alicloud/src/services/shadow\utils_list.c ****     self->head = NULL;
  32              		.loc 1 21 5 is_stmt 1
  33              		.loc 1 21 16 is_stmt 0
  34 0018 23200500 		sw	zero,0(a0)
  22:C:/Users/stapi/OneDrive/Desktop/GD32VW553/V1_MQTT_OK/GD32VW55X_Wifi_BLE_SDK/GD32VW55x_RELEASE_V1.0.2/MSDK/cloud/alicloud/src/services/shadow\utils_list.c ****     self->tail = NULL;
  35              		.loc 1 22 5 is_stmt 1
  36              		.loc 1 22 16 is_stmt 0
  37 001c 23220500 		sw	zero,4(a0)
  23:C:/Users/stapi/OneDrive/Desktop/GD32VW553/V1_MQTT_OK/GD32VW55X_Wifi_BLE_SDK/GD32VW55x_RELEASE_V1.0.2/MSDK/cloud/alicloud/src/services/shadow\utils_list.c ****     self->free = NULL;
  38              		.loc 1 23 5 is_stmt 1
  39              		.loc 1 23 16 is_stmt 0
  40 0020 23260500 		sw	zero,12(a0)
  24:C:/Users/stapi/OneDrive/Desktop/GD32VW553/V1_MQTT_OK/GD32VW55X_Wifi_BLE_SDK/GD32VW55x_RELEASE_V1.0.2/MSDK/cloud/alicloud/src/services/shadow\utils_list.c ****     self->match = NULL;
  41              		.loc 1 24 5 is_stmt 1
  42              		.loc 1 24 17 is_stmt 0
  43 0024 23280500 		sw	zero,16(a0)
  25:C:/Users/stapi/OneDrive/Desktop/GD32VW553/V1_MQTT_OK/GD32VW55X_Wifi_BLE_SDK/GD32VW55x_RELEASE_V1.0.2/MSDK/cloud/alicloud/src/services/shadow\utils_list.c ****     self->len = 0;
  44              		.loc 1 25 5 is_stmt 1
  45              		.loc 1 25 15 is_stmt 0
  46 0028 23240500 		sw	zero,8(a0)
  26:C:/Users/stapi/OneDrive/Desktop/GD32VW553/V1_MQTT_OK/GD32VW55X_Wifi_BLE_SDK/GD32VW55x_RELEASE_V1.0.2/MSDK/cloud/alicloud/src/services/shadow\utils_list.c ****     return self;
  47              		.loc 1 26 5 is_stmt 1
  48              	.L1:
  27:C:/Users/stapi/OneDrive/Desktop/GD32VW553/V1_MQTT_OK/GD32VW55X_Wifi_BLE_SDK/GD32VW55x_RELEASE_V1.0.2/MSDK/cloud/alicloud/src/services/shadow\utils_list.c **** }
  49              		.loc 1 27 1 is_stmt 0
  50 002c 17030000 		tail	__riscv_restore_0
  50      67000300 
  51              		.cfi_restore 1
  52              		.cfi_def_cfa_offset 0
  53              		.cfi_endproc
  54              	.LFE20:
  56              		.section	.text.list_destroy,"ax",@progbits
  57              		.align	1
  58              		.globl	list_destroy
  60              	list_destroy:
  61              	.LFB21:
  28:C:/Users/stapi/OneDrive/Desktop/GD32VW553/V1_MQTT_OK/GD32VW55X_Wifi_BLE_SDK/GD32VW55x_RELEASE_V1.0.2/MSDK/cloud/alicloud/src/services/shadow\utils_list.c **** 
  29:C:/Users/stapi/OneDrive/Desktop/GD32VW553/V1_MQTT_OK/GD32VW55X_Wifi_BLE_SDK/GD32VW55x_RELEASE_V1.0.2/MSDK/cloud/alicloud/src/services/shadow\utils_list.c **** /*
  30:C:/Users/stapi/OneDrive/Desktop/GD32VW553/V1_MQTT_OK/GD32VW55X_Wifi_BLE_SDK/GD32VW55x_RELEASE_V1.0.2/MSDK/cloud/alicloud/src/services/shadow\utils_list.c ****  * Free the list.
  31:C:/Users/stapi/OneDrive/Desktop/GD32VW553/V1_MQTT_OK/GD32VW55X_Wifi_BLE_SDK/GD32VW55x_RELEASE_V1.0.2/MSDK/cloud/alicloud/src/services/shadow\utils_list.c ****  */
  32:C:/Users/stapi/OneDrive/Desktop/GD32VW553/V1_MQTT_OK/GD32VW55X_Wifi_BLE_SDK/GD32VW55x_RELEASE_V1.0.2/MSDK/cloud/alicloud/src/services/shadow\utils_list.c **** void list_destroy(list_t *self)
  33:C:/Users/stapi/OneDrive/Desktop/GD32VW553/V1_MQTT_OK/GD32VW55X_Wifi_BLE_SDK/GD32VW55x_RELEASE_V1.0.2/MSDK/cloud/alicloud/src/services/shadow\utils_list.c **** {
  62              		.loc 1 33 1 is_stmt 1
  63              		.cfi_startproc
  64              	.LVL1:
  65 0000 17030000 		call	t0,__riscv_save_4
  65      E7020300 
  66              		.cfi_offset 19, -20
  67              		.cfi_offset 18, -16
  68              		.cfi_offset 9, -12
  69              		.cfi_offset 8, -8
  70              		.cfi_offset 1, -4
  71              		.cfi_def_cfa_offset 32
  34:C:/Users/stapi/OneDrive/Desktop/GD32VW553/V1_MQTT_OK/GD32VW55X_Wifi_BLE_SDK/GD32VW55x_RELEASE_V1.0.2/MSDK/cloud/alicloud/src/services/shadow\utils_list.c ****     unsigned int len = self->len;
  72              		.loc 1 34 5
  73              		.loc 1 34 18 is_stmt 0
  74 0008 03298500 		lw	s2,8(a0)
  75              	.LVL2:
  35:C:/Users/stapi/OneDrive/Desktop/GD32VW553/V1_MQTT_OK/GD32VW55X_Wifi_BLE_SDK/GD32VW55x_RELEASE_V1.0.2/MSDK/cloud/alicloud/src/services/shadow\utils_list.c ****     list_node_t *next;
  76              		.loc 1 35 5 is_stmt 1
  36:C:/Users/stapi/OneDrive/Desktop/GD32VW553/V1_MQTT_OK/GD32VW55X_Wifi_BLE_SDK/GD32VW55x_RELEASE_V1.0.2/MSDK/cloud/alicloud/src/services/shadow\utils_list.c ****     list_node_t *curr = self->head;
  77              		.loc 1 36 5
  78              		.loc 1 36 18 is_stmt 0
  79 000c 0441     		lw	s1,0(a0)
  80              	.LVL3:
  37:C:/Users/stapi/OneDrive/Desktop/GD32VW553/V1_MQTT_OK/GD32VW55X_Wifi_BLE_SDK/GD32VW55x_RELEASE_V1.0.2/MSDK/cloud/alicloud/src/services/shadow\utils_list.c **** 
  38:C:/Users/stapi/OneDrive/Desktop/GD32VW553/V1_MQTT_OK/GD32VW55X_Wifi_BLE_SDK/GD32VW55x_RELEASE_V1.0.2/MSDK/cloud/alicloud/src/services/shadow\utils_list.c ****     while (len--) {
  81              		.loc 1 38 5 is_stmt 1
  33:C:/Users/stapi/OneDrive/Desktop/GD32VW553/V1_MQTT_OK/GD32VW55X_Wifi_BLE_SDK/GD32VW55x_RELEASE_V1.0.2/MSDK/cloud/alicloud/src/services/shadow\utils_list.c ****     unsigned int len = self->len;
  82              		.loc 1 33 1 is_stmt 0
  83 000e 2A84     		mv	s0,a0
  84              	.LVL4:
  85              	.L8:
  86              		.loc 1 38 11 is_stmt 1
  87 0010 631B0900 		bne	s2,zero,.L10
  39:C:/Users/stapi/OneDrive/Desktop/GD32VW553/V1_MQTT_OK/GD32VW55X_Wifi_BLE_SDK/GD32VW55x_RELEASE_V1.0.2/MSDK/cloud/alicloud/src/services/shadow\utils_list.c ****         next = curr->next;
  40:C:/Users/stapi/OneDrive/Desktop/GD32VW553/V1_MQTT_OK/GD32VW55X_Wifi_BLE_SDK/GD32VW55x_RELEASE_V1.0.2/MSDK/cloud/alicloud/src/services/shadow\utils_list.c ****         if (self->free) {
  41:C:/Users/stapi/OneDrive/Desktop/GD32VW553/V1_MQTT_OK/GD32VW55X_Wifi_BLE_SDK/GD32VW55x_RELEASE_V1.0.2/MSDK/cloud/alicloud/src/services/shadow\utils_list.c ****             self->free(curr->val);
  42:C:/Users/stapi/OneDrive/Desktop/GD32VW553/V1_MQTT_OK/GD32VW55X_Wifi_BLE_SDK/GD32VW55x_RELEASE_V1.0.2/MSDK/cloud/alicloud/src/services/shadow\utils_list.c ****         }
  43:C:/Users/stapi/OneDrive/Desktop/GD32VW553/V1_MQTT_OK/GD32VW55X_Wifi_BLE_SDK/GD32VW55x_RELEASE_V1.0.2/MSDK/cloud/alicloud/src/services/shadow\utils_list.c ****         LITE_free(curr);
  44:C:/Users/stapi/OneDrive/Desktop/GD32VW553/V1_MQTT_OK/GD32VW55X_Wifi_BLE_SDK/GD32VW55x_RELEASE_V1.0.2/MSDK/cloud/alicloud/src/services/shadow\utils_list.c ****         curr = next;
  45:C:/Users/stapi/OneDrive/Desktop/GD32VW553/V1_MQTT_OK/GD32VW55X_Wifi_BLE_SDK/GD32VW55x_RELEASE_V1.0.2/MSDK/cloud/alicloud/src/services/shadow\utils_list.c ****     }
  46:C:/Users/stapi/OneDrive/Desktop/GD32VW553/V1_MQTT_OK/GD32VW55X_Wifi_BLE_SDK/GD32VW55x_RELEASE_V1.0.2/MSDK/cloud/alicloud/src/services/shadow\utils_list.c **** 
  47:C:/Users/stapi/OneDrive/Desktop/GD32VW553/V1_MQTT_OK/GD32VW55X_Wifi_BLE_SDK/GD32VW55x_RELEASE_V1.0.2/MSDK/cloud/alicloud/src/services/shadow\utils_list.c ****     LITE_free(self);
  88              		.loc 1 47 5
  89 0014 2285     		mv	a0,s0
  90 0016 97000000 		call	LITE_free_internal
  90      E7800000 
  91              	.LVL5:
  48:C:/Users/stapi/OneDrive/Desktop/GD32VW553/V1_MQTT_OK/GD32VW55X_Wifi_BLE_SDK/GD32VW55x_RELEASE_V1.0.2/MSDK/cloud/alicloud/src/services/shadow\utils_list.c **** }
  92              		.loc 1 48 1 is_stmt 0
  93 001e 17030000 		tail	__riscv_restore_4
  93      67000300 
  94              		.cfi_remember_state
  95              		.cfi_restore 19
  96              		.cfi_restore 18
  97              		.cfi_restore 9
  98              		.cfi_restore 8
  99              		.cfi_restore 1
 100              		.cfi_def_cfa_offset 0
 101              	.L10:
 102              		.cfi_restore_state
  39:C:/Users/stapi/OneDrive/Desktop/GD32VW553/V1_MQTT_OK/GD32VW55X_Wifi_BLE_SDK/GD32VW55x_RELEASE_V1.0.2/MSDK/cloud/alicloud/src/services/shadow\utils_list.c ****         next = curr->next;
 103              		.loc 1 39 9 is_stmt 1
  40:C:/Users/stapi/OneDrive/Desktop/GD32VW553/V1_MQTT_OK/GD32VW55X_Wifi_BLE_SDK/GD32VW55x_RELEASE_V1.0.2/MSDK/cloud/alicloud/src/services/shadow\utils_list.c ****             self->free(curr->val);
 104              		.loc 1 40 17 is_stmt 0
 105 0026 5C44     		lw	a5,12(s0)
  39:C:/Users/stapi/OneDrive/Desktop/GD32VW553/V1_MQTT_OK/GD32VW55X_Wifi_BLE_SDK/GD32VW55x_RELEASE_V1.0.2/MSDK/cloud/alicloud/src/services/shadow\utils_list.c ****         next = curr->next;
 106              		.loc 1 39 14
 107 0028 83A94400 		lw	s3,4(s1)
 108              	.LVL6:
  40:C:/Users/stapi/OneDrive/Desktop/GD32VW553/V1_MQTT_OK/GD32VW55X_Wifi_BLE_SDK/GD32VW55x_RELEASE_V1.0.2/MSDK/cloud/alicloud/src/services/shadow\utils_list.c ****             self->free(curr->val);
 109              		.loc 1 40 9 is_stmt 1
  40:C:/Users/stapi/OneDrive/Desktop/GD32VW553/V1_MQTT_OK/GD32VW55X_Wifi_BLE_SDK/GD32VW55x_RELEASE_V1.0.2/MSDK/cloud/alicloud/src/services/shadow\utils_list.c ****             self->free(curr->val);
 110              		.loc 1 40 12 is_stmt 0
 111 002c 99C3     		beq	a5,zero,.L9
  41:C:/Users/stapi/OneDrive/Desktop/GD32VW553/V1_MQTT_OK/GD32VW55X_Wifi_BLE_SDK/GD32VW55x_RELEASE_V1.0.2/MSDK/cloud/alicloud/src/services/shadow\utils_list.c ****         }
 112              		.loc 1 41 13 is_stmt 1
 113 002e 8844     		lw	a0,8(s1)
 114 0030 8297     		jalr	a5
 115              	.LVL7:
 116              	.L9:
  43:C:/Users/stapi/OneDrive/Desktop/GD32VW553/V1_MQTT_OK/GD32VW55X_Wifi_BLE_SDK/GD32VW55x_RELEASE_V1.0.2/MSDK/cloud/alicloud/src/services/shadow\utils_list.c ****         curr = next;
 117              		.loc 1 43 9
 118 0032 2685     		mv	a0,s1
 119 0034 97000000 		call	LITE_free_internal
 119      E7800000 
 120              	.LVL8:
  44:C:/Users/stapi/OneDrive/Desktop/GD32VW553/V1_MQTT_OK/GD32VW55X_Wifi_BLE_SDK/GD32VW55x_RELEASE_V1.0.2/MSDK/cloud/alicloud/src/services/shadow\utils_list.c ****     }
 121              		.loc 1 44 9
 122 003c 7D19     		addi	s2,s2,-1
 123              	.LVL9:
  44:C:/Users/stapi/OneDrive/Desktop/GD32VW553/V1_MQTT_OK/GD32VW55X_Wifi_BLE_SDK/GD32VW55x_RELEASE_V1.0.2/MSDK/cloud/alicloud/src/services/shadow\utils_list.c ****     }
 124              		.loc 1 44 14 is_stmt 0
 125 003e CE84     		mv	s1,s3
 126 0040 C1BF     		j	.L8
 127              		.cfi_endproc
 128              	.LFE21:
 130              		.section	.text.list_rpush,"ax",@progbits
 131              		.align	1
 132              		.globl	list_rpush
 134              	list_rpush:
 135              	.LFB22:
  49:C:/Users/stapi/OneDrive/Desktop/GD32VW553/V1_MQTT_OK/GD32VW55X_Wifi_BLE_SDK/GD32VW55x_RELEASE_V1.0.2/MSDK/cloud/alicloud/src/services/shadow\utils_list.c **** 
  50:C:/Users/stapi/OneDrive/Desktop/GD32VW553/V1_MQTT_OK/GD32VW55X_Wifi_BLE_SDK/GD32VW55x_RELEASE_V1.0.2/MSDK/cloud/alicloud/src/services/shadow\utils_list.c **** /*
  51:C:/Users/stapi/OneDrive/Desktop/GD32VW553/V1_MQTT_OK/GD32VW55X_Wifi_BLE_SDK/GD32VW55x_RELEASE_V1.0.2/MSDK/cloud/alicloud/src/services/shadow\utils_list.c ****  * Append the given node to the list
  52:C:/Users/stapi/OneDrive/Desktop/GD32VW553/V1_MQTT_OK/GD32VW55X_Wifi_BLE_SDK/GD32VW55x_RELEASE_V1.0.2/MSDK/cloud/alicloud/src/services/shadow\utils_list.c ****  * and return the node, NULL on failure.
  53:C:/Users/stapi/OneDrive/Desktop/GD32VW553/V1_MQTT_OK/GD32VW55X_Wifi_BLE_SDK/GD32VW55x_RELEASE_V1.0.2/MSDK/cloud/alicloud/src/services/shadow\utils_list.c ****  */
  54:C:/Users/stapi/OneDrive/Desktop/GD32VW553/V1_MQTT_OK/GD32VW55X_Wifi_BLE_SDK/GD32VW55x_RELEASE_V1.0.2/MSDK/cloud/alicloud/src/services/shadow\utils_list.c **** list_node_t *list_rpush(list_t *self, list_node_t *node)
  55:C:/Users/stapi/OneDrive/Desktop/GD32VW553/V1_MQTT_OK/GD32VW55X_Wifi_BLE_SDK/GD32VW55x_RELEASE_V1.0.2/MSDK/cloud/alicloud/src/services/shadow\utils_list.c **** {
 136              		.loc 1 55 1 is_stmt 1
 137              		.cfi_startproc
 138              	.LVL10:
  56:C:/Users/stapi/OneDrive/Desktop/GD32VW553/V1_MQTT_OK/GD32VW55X_Wifi_BLE_SDK/GD32VW55x_RELEASE_V1.0.2/MSDK/cloud/alicloud/src/services/shadow\utils_list.c ****     if (!node) {
 139              		.loc 1 56 5
  55:C:/Users/stapi/OneDrive/Desktop/GD32VW553/V1_MQTT_OK/GD32VW55X_Wifi_BLE_SDK/GD32VW55x_RELEASE_V1.0.2/MSDK/cloud/alicloud/src/services/shadow\utils_list.c ****     if (!node) {
 140              		.loc 1 55 1 is_stmt 0
 141 0000 AA87     		mv	a5,a0
 142 0002 2E85     		mv	a0,a1
 143              	.LVL11:
 144              		.loc 1 56 8
 145 0004 99C9     		beq	a1,zero,.L16
  57:C:/Users/stapi/OneDrive/Desktop/GD32VW553/V1_MQTT_OK/GD32VW55X_Wifi_BLE_SDK/GD32VW55x_RELEASE_V1.0.2/MSDK/cloud/alicloud/src/services/shadow\utils_list.c ****         return NULL;
  58:C:/Users/stapi/OneDrive/Desktop/GD32VW553/V1_MQTT_OK/GD32VW55X_Wifi_BLE_SDK/GD32VW55x_RELEASE_V1.0.2/MSDK/cloud/alicloud/src/services/shadow\utils_list.c ****     }
  59:C:/Users/stapi/OneDrive/Desktop/GD32VW553/V1_MQTT_OK/GD32VW55X_Wifi_BLE_SDK/GD32VW55x_RELEASE_V1.0.2/MSDK/cloud/alicloud/src/services/shadow\utils_list.c **** 
  60:C:/Users/stapi/OneDrive/Desktop/GD32VW553/V1_MQTT_OK/GD32VW55X_Wifi_BLE_SDK/GD32VW55x_RELEASE_V1.0.2/MSDK/cloud/alicloud/src/services/shadow\utils_list.c ****     if (self->len) {
 146              		.loc 1 60 5 is_stmt 1
 147              		.loc 1 60 13 is_stmt 0
 148 0006 9847     		lw	a4,8(a5)
 149              		.loc 1 60 8
 150 0008 11CB     		beq	a4,zero,.L17
  61:C:/Users/stapi/OneDrive/Desktop/GD32VW553/V1_MQTT_OK/GD32VW55X_Wifi_BLE_SDK/GD32VW55x_RELEASE_V1.0.2/MSDK/cloud/alicloud/src/services/shadow\utils_list.c ****         node->prev = self->tail;
 151              		.loc 1 61 9 is_stmt 1
 152              		.loc 1 61 26 is_stmt 0
 153 000a D443     		lw	a3,4(a5)
  62:C:/Users/stapi/OneDrive/Desktop/GD32VW553/V1_MQTT_OK/GD32VW55X_Wifi_BLE_SDK/GD32VW55x_RELEASE_V1.0.2/MSDK/cloud/alicloud/src/services/shadow\utils_list.c ****         node->next = NULL;
 154              		.loc 1 62 20
 155 000c 23A20500 		sw	zero,4(a1)
  61:C:/Users/stapi/OneDrive/Desktop/GD32VW553/V1_MQTT_OK/GD32VW55X_Wifi_BLE_SDK/GD32VW55x_RELEASE_V1.0.2/MSDK/cloud/alicloud/src/services/shadow\utils_list.c ****         node->prev = self->tail;
 156              		.loc 1 61 20
 157 0010 94C1     		sw	a3,0(a1)
 158              		.loc 1 62 9 is_stmt 1
  63:C:/Users/stapi/OneDrive/Desktop/GD32VW553/V1_MQTT_OK/GD32VW55X_Wifi_BLE_SDK/GD32VW55x_RELEASE_V1.0.2/MSDK/cloud/alicloud/src/services/shadow\utils_list.c ****         self->tail->next = node;
 159              		.loc 1 63 9
 160              		.loc 1 63 26 is_stmt 0
 161 0012 CCC2     		sw	a1,4(a3)
  64:C:/Users/stapi/OneDrive/Desktop/GD32VW553/V1_MQTT_OK/GD32VW55X_Wifi_BLE_SDK/GD32VW55x_RELEASE_V1.0.2/MSDK/cloud/alicloud/src/services/shadow\utils_list.c ****         self->tail = node;
 162              		.loc 1 64 9 is_stmt 1
 163              		.loc 1 64 20 is_stmt 0
 164 0014 CCC3     		sw	a1,4(a5)
 165              	.LVL12:
 166              	.L18:
  65:C:/Users/stapi/OneDrive/Desktop/GD32VW553/V1_MQTT_OK/GD32VW55X_Wifi_BLE_SDK/GD32VW55x_RELEASE_V1.0.2/MSDK/cloud/alicloud/src/services/shadow\utils_list.c ****     } else {
  66:C:/Users/stapi/OneDrive/Desktop/GD32VW553/V1_MQTT_OK/GD32VW55X_Wifi_BLE_SDK/GD32VW55x_RELEASE_V1.0.2/MSDK/cloud/alicloud/src/services/shadow\utils_list.c ****         self->head = self->tail = node;
  67:C:/Users/stapi/OneDrive/Desktop/GD32VW553/V1_MQTT_OK/GD32VW55X_Wifi_BLE_SDK/GD32VW55x_RELEASE_V1.0.2/MSDK/cloud/alicloud/src/services/shadow\utils_list.c ****         node->prev = node->next = NULL;
  68:C:/Users/stapi/OneDrive/Desktop/GD32VW553/V1_MQTT_OK/GD32VW55X_Wifi_BLE_SDK/GD32VW55x_RELEASE_V1.0.2/MSDK/cloud/alicloud/src/services/shadow\utils_list.c ****     }
  69:C:/Users/stapi/OneDrive/Desktop/GD32VW553/V1_MQTT_OK/GD32VW55X_Wifi_BLE_SDK/GD32VW55x_RELEASE_V1.0.2/MSDK/cloud/alicloud/src/services/shadow\utils_list.c **** 
  70:C:/Users/stapi/OneDrive/Desktop/GD32VW553/V1_MQTT_OK/GD32VW55X_Wifi_BLE_SDK/GD32VW55x_RELEASE_V1.0.2/MSDK/cloud/alicloud/src/services/shadow\utils_list.c ****     ++self->len;
 167              		.loc 1 70 5 is_stmt 1
 168 0016 0507     		addi	a4,a4,1
 169 0018 98C7     		sw	a4,8(a5)
  71:C:/Users/stapi/OneDrive/Desktop/GD32VW553/V1_MQTT_OK/GD32VW55X_Wifi_BLE_SDK/GD32VW55x_RELEASE_V1.0.2/MSDK/cloud/alicloud/src/services/shadow\utils_list.c ****     return node;
 170              		.loc 1 71 5
 171              	.L16:
  72:C:/Users/stapi/OneDrive/Desktop/GD32VW553/V1_MQTT_OK/GD32VW55X_Wifi_BLE_SDK/GD32VW55x_RELEASE_V1.0.2/MSDK/cloud/alicloud/src/services/shadow\utils_list.c **** }
 172              		.loc 1 72 1 is_stmt 0
 173 001a 8280     		ret
 174              	.L17:
  66:C:/Users/stapi/OneDrive/Desktop/GD32VW553/V1_MQTT_OK/GD32VW55X_Wifi_BLE_SDK/GD32VW55x_RELEASE_V1.0.2/MSDK/cloud/alicloud/src/services/shadow\utils_list.c ****         node->prev = node->next = NULL;
 175              		.loc 1 66 9 is_stmt 1
  66:C:/Users/stapi/OneDrive/Desktop/GD32VW553/V1_MQTT_OK/GD32VW55X_Wifi_BLE_SDK/GD32VW55x_RELEASE_V1.0.2/MSDK/cloud/alicloud/src/services/shadow\utils_list.c ****         node->prev = node->next = NULL;
 176              		.loc 1 66 33 is_stmt 0
 177 001c CCC3     		sw	a1,4(a5)
  66:C:/Users/stapi/OneDrive/Desktop/GD32VW553/V1_MQTT_OK/GD32VW55X_Wifi_BLE_SDK/GD32VW55x_RELEASE_V1.0.2/MSDK/cloud/alicloud/src/services/shadow\utils_list.c ****         node->prev = node->next = NULL;
 178              		.loc 1 66 20
 179 001e 8CC3     		sw	a1,0(a5)
  67:C:/Users/stapi/OneDrive/Desktop/GD32VW553/V1_MQTT_OK/GD32VW55X_Wifi_BLE_SDK/GD32VW55x_RELEASE_V1.0.2/MSDK/cloud/alicloud/src/services/shadow\utils_list.c ****     }
 180              		.loc 1 67 9 is_stmt 1
  67:C:/Users/stapi/OneDrive/Desktop/GD32VW553/V1_MQTT_OK/GD32VW55X_Wifi_BLE_SDK/GD32VW55x_RELEASE_V1.0.2/MSDK/cloud/alicloud/src/services/shadow\utils_list.c ****     }
 181              		.loc 1 67 33 is_stmt 0
 182 0020 23A20500 		sw	zero,4(a1)
  67:C:/Users/stapi/OneDrive/Desktop/GD32VW553/V1_MQTT_OK/GD32VW55X_Wifi_BLE_SDK/GD32VW55x_RELEASE_V1.0.2/MSDK/cloud/alicloud/src/services/shadow\utils_list.c ****     }
 183              		.loc 1 67 20
 184 0024 23A00500 		sw	zero,0(a1)
 185 0028 FDB7     		j	.L18
 186              		.cfi_endproc
 187              	.LFE22:
 189              		.section	.text.list_lpush,"ax",@progbits
 190              		.align	1
 191              		.globl	list_lpush
 193              	list_lpush:
 194              	.LFB23:
  73:C:/Users/stapi/OneDrive/Desktop/GD32VW553/V1_MQTT_OK/GD32VW55X_Wifi_BLE_SDK/GD32VW55x_RELEASE_V1.0.2/MSDK/cloud/alicloud/src/services/shadow\utils_list.c **** 
  74:C:/Users/stapi/OneDrive/Desktop/GD32VW553/V1_MQTT_OK/GD32VW55X_Wifi_BLE_SDK/GD32VW55x_RELEASE_V1.0.2/MSDK/cloud/alicloud/src/services/shadow\utils_list.c **** #if WITH_LIST_POP_AT
  75:C:/Users/stapi/OneDrive/Desktop/GD32VW553/V1_MQTT_OK/GD32VW55X_Wifi_BLE_SDK/GD32VW55x_RELEASE_V1.0.2/MSDK/cloud/alicloud/src/services/shadow\utils_list.c **** /*
  76:C:/Users/stapi/OneDrive/Desktop/GD32VW553/V1_MQTT_OK/GD32VW55X_Wifi_BLE_SDK/GD32VW55x_RELEASE_V1.0.2/MSDK/cloud/alicloud/src/services/shadow\utils_list.c ****  * Return / detach the last node in the list, or NULL.
  77:C:/Users/stapi/OneDrive/Desktop/GD32VW553/V1_MQTT_OK/GD32VW55X_Wifi_BLE_SDK/GD32VW55x_RELEASE_V1.0.2/MSDK/cloud/alicloud/src/services/shadow\utils_list.c ****  */
  78:C:/Users/stapi/OneDrive/Desktop/GD32VW553/V1_MQTT_OK/GD32VW55X_Wifi_BLE_SDK/GD32VW55x_RELEASE_V1.0.2/MSDK/cloud/alicloud/src/services/shadow\utils_list.c **** list_node_t *list_rpop(list_t *self)
  79:C:/Users/stapi/OneDrive/Desktop/GD32VW553/V1_MQTT_OK/GD32VW55X_Wifi_BLE_SDK/GD32VW55x_RELEASE_V1.0.2/MSDK/cloud/alicloud/src/services/shadow\utils_list.c **** {
  80:C:/Users/stapi/OneDrive/Desktop/GD32VW553/V1_MQTT_OK/GD32VW55X_Wifi_BLE_SDK/GD32VW55x_RELEASE_V1.0.2/MSDK/cloud/alicloud/src/services/shadow\utils_list.c ****     list_node_t *node = NULL;
  81:C:/Users/stapi/OneDrive/Desktop/GD32VW553/V1_MQTT_OK/GD32VW55X_Wifi_BLE_SDK/GD32VW55x_RELEASE_V1.0.2/MSDK/cloud/alicloud/src/services/shadow\utils_list.c ****     if (!self->len) {
  82:C:/Users/stapi/OneDrive/Desktop/GD32VW553/V1_MQTT_OK/GD32VW55X_Wifi_BLE_SDK/GD32VW55x_RELEASE_V1.0.2/MSDK/cloud/alicloud/src/services/shadow\utils_list.c ****         return NULL;
  83:C:/Users/stapi/OneDrive/Desktop/GD32VW553/V1_MQTT_OK/GD32VW55X_Wifi_BLE_SDK/GD32VW55x_RELEASE_V1.0.2/MSDK/cloud/alicloud/src/services/shadow\utils_list.c ****     }
  84:C:/Users/stapi/OneDrive/Desktop/GD32VW553/V1_MQTT_OK/GD32VW55X_Wifi_BLE_SDK/GD32VW55x_RELEASE_V1.0.2/MSDK/cloud/alicloud/src/services/shadow\utils_list.c **** 
  85:C:/Users/stapi/OneDrive/Desktop/GD32VW553/V1_MQTT_OK/GD32VW55X_Wifi_BLE_SDK/GD32VW55x_RELEASE_V1.0.2/MSDK/cloud/alicloud/src/services/shadow\utils_list.c ****     node = self->tail;
  86:C:/Users/stapi/OneDrive/Desktop/GD32VW553/V1_MQTT_OK/GD32VW55X_Wifi_BLE_SDK/GD32VW55x_RELEASE_V1.0.2/MSDK/cloud/alicloud/src/services/shadow\utils_list.c **** 
  87:C:/Users/stapi/OneDrive/Desktop/GD32VW553/V1_MQTT_OK/GD32VW55X_Wifi_BLE_SDK/GD32VW55x_RELEASE_V1.0.2/MSDK/cloud/alicloud/src/services/shadow\utils_list.c ****     if (--self->len) {
  88:C:/Users/stapi/OneDrive/Desktop/GD32VW553/V1_MQTT_OK/GD32VW55X_Wifi_BLE_SDK/GD32VW55x_RELEASE_V1.0.2/MSDK/cloud/alicloud/src/services/shadow\utils_list.c ****         (self->tail = node->prev)->next = NULL;
  89:C:/Users/stapi/OneDrive/Desktop/GD32VW553/V1_MQTT_OK/GD32VW55X_Wifi_BLE_SDK/GD32VW55x_RELEASE_V1.0.2/MSDK/cloud/alicloud/src/services/shadow\utils_list.c ****     } else {
  90:C:/Users/stapi/OneDrive/Desktop/GD32VW553/V1_MQTT_OK/GD32VW55X_Wifi_BLE_SDK/GD32VW55x_RELEASE_V1.0.2/MSDK/cloud/alicloud/src/services/shadow\utils_list.c ****         self->tail = self->head = NULL;
  91:C:/Users/stapi/OneDrive/Desktop/GD32VW553/V1_MQTT_OK/GD32VW55X_Wifi_BLE_SDK/GD32VW55x_RELEASE_V1.0.2/MSDK/cloud/alicloud/src/services/shadow\utils_list.c ****     }
  92:C:/Users/stapi/OneDrive/Desktop/GD32VW553/V1_MQTT_OK/GD32VW55X_Wifi_BLE_SDK/GD32VW55x_RELEASE_V1.0.2/MSDK/cloud/alicloud/src/services/shadow\utils_list.c **** 
  93:C:/Users/stapi/OneDrive/Desktop/GD32VW553/V1_MQTT_OK/GD32VW55X_Wifi_BLE_SDK/GD32VW55x_RELEASE_V1.0.2/MSDK/cloud/alicloud/src/services/shadow\utils_list.c ****     node->next = node->prev = NULL;
  94:C:/Users/stapi/OneDrive/Desktop/GD32VW553/V1_MQTT_OK/GD32VW55X_Wifi_BLE_SDK/GD32VW55x_RELEASE_V1.0.2/MSDK/cloud/alicloud/src/services/shadow\utils_list.c ****     return node;
  95:C:/Users/stapi/OneDrive/Desktop/GD32VW553/V1_MQTT_OK/GD32VW55X_Wifi_BLE_SDK/GD32VW55x_RELEASE_V1.0.2/MSDK/cloud/alicloud/src/services/shadow\utils_list.c **** }
  96:C:/Users/stapi/OneDrive/Desktop/GD32VW553/V1_MQTT_OK/GD32VW55X_Wifi_BLE_SDK/GD32VW55x_RELEASE_V1.0.2/MSDK/cloud/alicloud/src/services/shadow\utils_list.c **** 
  97:C:/Users/stapi/OneDrive/Desktop/GD32VW553/V1_MQTT_OK/GD32VW55X_Wifi_BLE_SDK/GD32VW55x_RELEASE_V1.0.2/MSDK/cloud/alicloud/src/services/shadow\utils_list.c **** /*
  98:C:/Users/stapi/OneDrive/Desktop/GD32VW553/V1_MQTT_OK/GD32VW55X_Wifi_BLE_SDK/GD32VW55x_RELEASE_V1.0.2/MSDK/cloud/alicloud/src/services/shadow\utils_list.c ****  * Return / detach the first node in the list, or NULL.
  99:C:/Users/stapi/OneDrive/Desktop/GD32VW553/V1_MQTT_OK/GD32VW55X_Wifi_BLE_SDK/GD32VW55x_RELEASE_V1.0.2/MSDK/cloud/alicloud/src/services/shadow\utils_list.c ****  */
 100:C:/Users/stapi/OneDrive/Desktop/GD32VW553/V1_MQTT_OK/GD32VW55X_Wifi_BLE_SDK/GD32VW55x_RELEASE_V1.0.2/MSDK/cloud/alicloud/src/services/shadow\utils_list.c **** list_node_t *list_lpop(list_t *self)
 101:C:/Users/stapi/OneDrive/Desktop/GD32VW553/V1_MQTT_OK/GD32VW55X_Wifi_BLE_SDK/GD32VW55x_RELEASE_V1.0.2/MSDK/cloud/alicloud/src/services/shadow\utils_list.c **** {
 102:C:/Users/stapi/OneDrive/Desktop/GD32VW553/V1_MQTT_OK/GD32VW55X_Wifi_BLE_SDK/GD32VW55x_RELEASE_V1.0.2/MSDK/cloud/alicloud/src/services/shadow\utils_list.c ****     list_node_t *node = NULL;
 103:C:/Users/stapi/OneDrive/Desktop/GD32VW553/V1_MQTT_OK/GD32VW55X_Wifi_BLE_SDK/GD32VW55x_RELEASE_V1.0.2/MSDK/cloud/alicloud/src/services/shadow\utils_list.c ****     if (!self->len) {
 104:C:/Users/stapi/OneDrive/Desktop/GD32VW553/V1_MQTT_OK/GD32VW55X_Wifi_BLE_SDK/GD32VW55x_RELEASE_V1.0.2/MSDK/cloud/alicloud/src/services/shadow\utils_list.c ****         return NULL;
 105:C:/Users/stapi/OneDrive/Desktop/GD32VW553/V1_MQTT_OK/GD32VW55X_Wifi_BLE_SDK/GD32VW55x_RELEASE_V1.0.2/MSDK/cloud/alicloud/src/services/shadow\utils_list.c ****     }
 106:C:/Users/stapi/OneDrive/Desktop/GD32VW553/V1_MQTT_OK/GD32VW55X_Wifi_BLE_SDK/GD32VW55x_RELEASE_V1.0.2/MSDK/cloud/alicloud/src/services/shadow\utils_list.c **** 
 107:C:/Users/stapi/OneDrive/Desktop/GD32VW553/V1_MQTT_OK/GD32VW55X_Wifi_BLE_SDK/GD32VW55x_RELEASE_V1.0.2/MSDK/cloud/alicloud/src/services/shadow\utils_list.c ****     node = self->head;
 108:C:/Users/stapi/OneDrive/Desktop/GD32VW553/V1_MQTT_OK/GD32VW55X_Wifi_BLE_SDK/GD32VW55x_RELEASE_V1.0.2/MSDK/cloud/alicloud/src/services/shadow\utils_list.c **** 
 109:C:/Users/stapi/OneDrive/Desktop/GD32VW553/V1_MQTT_OK/GD32VW55X_Wifi_BLE_SDK/GD32VW55x_RELEASE_V1.0.2/MSDK/cloud/alicloud/src/services/shadow\utils_list.c ****     if (--self->len) {
 110:C:/Users/stapi/OneDrive/Desktop/GD32VW553/V1_MQTT_OK/GD32VW55X_Wifi_BLE_SDK/GD32VW55x_RELEASE_V1.0.2/MSDK/cloud/alicloud/src/services/shadow\utils_list.c ****         (self->head = node->next)->prev = NULL;
 111:C:/Users/stapi/OneDrive/Desktop/GD32VW553/V1_MQTT_OK/GD32VW55X_Wifi_BLE_SDK/GD32VW55x_RELEASE_V1.0.2/MSDK/cloud/alicloud/src/services/shadow\utils_list.c ****     } else {
 112:C:/Users/stapi/OneDrive/Desktop/GD32VW553/V1_MQTT_OK/GD32VW55X_Wifi_BLE_SDK/GD32VW55x_RELEASE_V1.0.2/MSDK/cloud/alicloud/src/services/shadow\utils_list.c ****         self->head = self->tail = NULL;
 113:C:/Users/stapi/OneDrive/Desktop/GD32VW553/V1_MQTT_OK/GD32VW55X_Wifi_BLE_SDK/GD32VW55x_RELEASE_V1.0.2/MSDK/cloud/alicloud/src/services/shadow\utils_list.c ****     }
 114:C:/Users/stapi/OneDrive/Desktop/GD32VW553/V1_MQTT_OK/GD32VW55X_Wifi_BLE_SDK/GD32VW55x_RELEASE_V1.0.2/MSDK/cloud/alicloud/src/services/shadow\utils_list.c **** 
 115:C:/Users/stapi/OneDrive/Desktop/GD32VW553/V1_MQTT_OK/GD32VW55X_Wifi_BLE_SDK/GD32VW55x_RELEASE_V1.0.2/MSDK/cloud/alicloud/src/services/shadow\utils_list.c ****     node->next = node->prev = NULL;
 116:C:/Users/stapi/OneDrive/Desktop/GD32VW553/V1_MQTT_OK/GD32VW55X_Wifi_BLE_SDK/GD32VW55x_RELEASE_V1.0.2/MSDK/cloud/alicloud/src/services/shadow\utils_list.c ****     return node;
 117:C:/Users/stapi/OneDrive/Desktop/GD32VW553/V1_MQTT_OK/GD32VW55X_Wifi_BLE_SDK/GD32VW55x_RELEASE_V1.0.2/MSDK/cloud/alicloud/src/services/shadow\utils_list.c **** }
 118:C:/Users/stapi/OneDrive/Desktop/GD32VW553/V1_MQTT_OK/GD32VW55X_Wifi_BLE_SDK/GD32VW55x_RELEASE_V1.0.2/MSDK/cloud/alicloud/src/services/shadow\utils_list.c **** 
 119:C:/Users/stapi/OneDrive/Desktop/GD32VW553/V1_MQTT_OK/GD32VW55X_Wifi_BLE_SDK/GD32VW55x_RELEASE_V1.0.2/MSDK/cloud/alicloud/src/services/shadow\utils_list.c **** /*
 120:C:/Users/stapi/OneDrive/Desktop/GD32VW553/V1_MQTT_OK/GD32VW55X_Wifi_BLE_SDK/GD32VW55x_RELEASE_V1.0.2/MSDK/cloud/alicloud/src/services/shadow\utils_list.c ****  * Return the node at the given index or NULL.
 121:C:/Users/stapi/OneDrive/Desktop/GD32VW553/V1_MQTT_OK/GD32VW55X_Wifi_BLE_SDK/GD32VW55x_RELEASE_V1.0.2/MSDK/cloud/alicloud/src/services/shadow\utils_list.c ****  */
 122:C:/Users/stapi/OneDrive/Desktop/GD32VW553/V1_MQTT_OK/GD32VW55X_Wifi_BLE_SDK/GD32VW55x_RELEASE_V1.0.2/MSDK/cloud/alicloud/src/services/shadow\utils_list.c **** list_node_t *list_at(list_t *self, int index)
 123:C:/Users/stapi/OneDrive/Desktop/GD32VW553/V1_MQTT_OK/GD32VW55X_Wifi_BLE_SDK/GD32VW55x_RELEASE_V1.0.2/MSDK/cloud/alicloud/src/services/shadow\utils_list.c **** {
 124:C:/Users/stapi/OneDrive/Desktop/GD32VW553/V1_MQTT_OK/GD32VW55X_Wifi_BLE_SDK/GD32VW55x_RELEASE_V1.0.2/MSDK/cloud/alicloud/src/services/shadow\utils_list.c ****     list_direction_t direction = LIST_HEAD;
 125:C:/Users/stapi/OneDrive/Desktop/GD32VW553/V1_MQTT_OK/GD32VW55X_Wifi_BLE_SDK/GD32VW55x_RELEASE_V1.0.2/MSDK/cloud/alicloud/src/services/shadow\utils_list.c **** 
 126:C:/Users/stapi/OneDrive/Desktop/GD32VW553/V1_MQTT_OK/GD32VW55X_Wifi_BLE_SDK/GD32VW55x_RELEASE_V1.0.2/MSDK/cloud/alicloud/src/services/shadow\utils_list.c ****     if (index < 0) {
 127:C:/Users/stapi/OneDrive/Desktop/GD32VW553/V1_MQTT_OK/GD32VW55X_Wifi_BLE_SDK/GD32VW55x_RELEASE_V1.0.2/MSDK/cloud/alicloud/src/services/shadow\utils_list.c ****         direction = LIST_TAIL;
 128:C:/Users/stapi/OneDrive/Desktop/GD32VW553/V1_MQTT_OK/GD32VW55X_Wifi_BLE_SDK/GD32VW55x_RELEASE_V1.0.2/MSDK/cloud/alicloud/src/services/shadow\utils_list.c ****         index = ~index;
 129:C:/Users/stapi/OneDrive/Desktop/GD32VW553/V1_MQTT_OK/GD32VW55X_Wifi_BLE_SDK/GD32VW55x_RELEASE_V1.0.2/MSDK/cloud/alicloud/src/services/shadow\utils_list.c ****     }
 130:C:/Users/stapi/OneDrive/Desktop/GD32VW553/V1_MQTT_OK/GD32VW55X_Wifi_BLE_SDK/GD32VW55x_RELEASE_V1.0.2/MSDK/cloud/alicloud/src/services/shadow\utils_list.c **** 
 131:C:/Users/stapi/OneDrive/Desktop/GD32VW553/V1_MQTT_OK/GD32VW55X_Wifi_BLE_SDK/GD32VW55x_RELEASE_V1.0.2/MSDK/cloud/alicloud/src/services/shadow\utils_list.c ****     if ((unsigned) index < self->len) {
 132:C:/Users/stapi/OneDrive/Desktop/GD32VW553/V1_MQTT_OK/GD32VW55X_Wifi_BLE_SDK/GD32VW55x_RELEASE_V1.0.2/MSDK/cloud/alicloud/src/services/shadow\utils_list.c ****         list_iterator_t *it;
 133:C:/Users/stapi/OneDrive/Desktop/GD32VW553/V1_MQTT_OK/GD32VW55X_Wifi_BLE_SDK/GD32VW55x_RELEASE_V1.0.2/MSDK/cloud/alicloud/src/services/shadow\utils_list.c ****         list_node_t *node;
 134:C:/Users/stapi/OneDrive/Desktop/GD32VW553/V1_MQTT_OK/GD32VW55X_Wifi_BLE_SDK/GD32VW55x_RELEASE_V1.0.2/MSDK/cloud/alicloud/src/services/shadow\utils_list.c **** 
 135:C:/Users/stapi/OneDrive/Desktop/GD32VW553/V1_MQTT_OK/GD32VW55X_Wifi_BLE_SDK/GD32VW55x_RELEASE_V1.0.2/MSDK/cloud/alicloud/src/services/shadow\utils_list.c ****         if (NULL == (it = list_iterator_new(self, direction))) {
 136:C:/Users/stapi/OneDrive/Desktop/GD32VW553/V1_MQTT_OK/GD32VW55X_Wifi_BLE_SDK/GD32VW55x_RELEASE_V1.0.2/MSDK/cloud/alicloud/src/services/shadow\utils_list.c ****             return NULL;
 137:C:/Users/stapi/OneDrive/Desktop/GD32VW553/V1_MQTT_OK/GD32VW55X_Wifi_BLE_SDK/GD32VW55x_RELEASE_V1.0.2/MSDK/cloud/alicloud/src/services/shadow\utils_list.c ****         }
 138:C:/Users/stapi/OneDrive/Desktop/GD32VW553/V1_MQTT_OK/GD32VW55X_Wifi_BLE_SDK/GD32VW55x_RELEASE_V1.0.2/MSDK/cloud/alicloud/src/services/shadow\utils_list.c ****         node = list_iterator_next(it);
 139:C:/Users/stapi/OneDrive/Desktop/GD32VW553/V1_MQTT_OK/GD32VW55X_Wifi_BLE_SDK/GD32VW55x_RELEASE_V1.0.2/MSDK/cloud/alicloud/src/services/shadow\utils_list.c **** 
 140:C:/Users/stapi/OneDrive/Desktop/GD32VW553/V1_MQTT_OK/GD32VW55X_Wifi_BLE_SDK/GD32VW55x_RELEASE_V1.0.2/MSDK/cloud/alicloud/src/services/shadow\utils_list.c ****         while (index--) {
 141:C:/Users/stapi/OneDrive/Desktop/GD32VW553/V1_MQTT_OK/GD32VW55X_Wifi_BLE_SDK/GD32VW55x_RELEASE_V1.0.2/MSDK/cloud/alicloud/src/services/shadow\utils_list.c ****             node = list_iterator_next(it);
 142:C:/Users/stapi/OneDrive/Desktop/GD32VW553/V1_MQTT_OK/GD32VW55X_Wifi_BLE_SDK/GD32VW55x_RELEASE_V1.0.2/MSDK/cloud/alicloud/src/services/shadow\utils_list.c ****         }
 143:C:/Users/stapi/OneDrive/Desktop/GD32VW553/V1_MQTT_OK/GD32VW55X_Wifi_BLE_SDK/GD32VW55x_RELEASE_V1.0.2/MSDK/cloud/alicloud/src/services/shadow\utils_list.c ****         list_iterator_destroy(it);
 144:C:/Users/stapi/OneDrive/Desktop/GD32VW553/V1_MQTT_OK/GD32VW55X_Wifi_BLE_SDK/GD32VW55x_RELEASE_V1.0.2/MSDK/cloud/alicloud/src/services/shadow\utils_list.c ****         return node;
 145:C:/Users/stapi/OneDrive/Desktop/GD32VW553/V1_MQTT_OK/GD32VW55X_Wifi_BLE_SDK/GD32VW55x_RELEASE_V1.0.2/MSDK/cloud/alicloud/src/services/shadow\utils_list.c ****     }
 146:C:/Users/stapi/OneDrive/Desktop/GD32VW553/V1_MQTT_OK/GD32VW55X_Wifi_BLE_SDK/GD32VW55x_RELEASE_V1.0.2/MSDK/cloud/alicloud/src/services/shadow\utils_list.c **** 
 147:C:/Users/stapi/OneDrive/Desktop/GD32VW553/V1_MQTT_OK/GD32VW55X_Wifi_BLE_SDK/GD32VW55x_RELEASE_V1.0.2/MSDK/cloud/alicloud/src/services/shadow\utils_list.c ****     return NULL;
 148:C:/Users/stapi/OneDrive/Desktop/GD32VW553/V1_MQTT_OK/GD32VW55X_Wifi_BLE_SDK/GD32VW55x_RELEASE_V1.0.2/MSDK/cloud/alicloud/src/services/shadow\utils_list.c **** }
 149:C:/Users/stapi/OneDrive/Desktop/GD32VW553/V1_MQTT_OK/GD32VW55X_Wifi_BLE_SDK/GD32VW55x_RELEASE_V1.0.2/MSDK/cloud/alicloud/src/services/shadow\utils_list.c **** #endif  /* #if WITH_LIST_POP_AT */
 150:C:/Users/stapi/OneDrive/Desktop/GD32VW553/V1_MQTT_OK/GD32VW55X_Wifi_BLE_SDK/GD32VW55x_RELEASE_V1.0.2/MSDK/cloud/alicloud/src/services/shadow\utils_list.c **** 
 151:C:/Users/stapi/OneDrive/Desktop/GD32VW553/V1_MQTT_OK/GD32VW55X_Wifi_BLE_SDK/GD32VW55x_RELEASE_V1.0.2/MSDK/cloud/alicloud/src/services/shadow\utils_list.c **** /*
 152:C:/Users/stapi/OneDrive/Desktop/GD32VW553/V1_MQTT_OK/GD32VW55X_Wifi_BLE_SDK/GD32VW55x_RELEASE_V1.0.2/MSDK/cloud/alicloud/src/services/shadow\utils_list.c ****  * Prepend the given node to the list
 153:C:/Users/stapi/OneDrive/Desktop/GD32VW553/V1_MQTT_OK/GD32VW55X_Wifi_BLE_SDK/GD32VW55x_RELEASE_V1.0.2/MSDK/cloud/alicloud/src/services/shadow\utils_list.c ****  * and return the node, NULL on failure.
 154:C:/Users/stapi/OneDrive/Desktop/GD32VW553/V1_MQTT_OK/GD32VW55X_Wifi_BLE_SDK/GD32VW55x_RELEASE_V1.0.2/MSDK/cloud/alicloud/src/services/shadow\utils_list.c ****  */
 155:C:/Users/stapi/OneDrive/Desktop/GD32VW553/V1_MQTT_OK/GD32VW55X_Wifi_BLE_SDK/GD32VW55x_RELEASE_V1.0.2/MSDK/cloud/alicloud/src/services/shadow\utils_list.c **** list_node_t *list_lpush(list_t *self, list_node_t *node)
 156:C:/Users/stapi/OneDrive/Desktop/GD32VW553/V1_MQTT_OK/GD32VW55X_Wifi_BLE_SDK/GD32VW55x_RELEASE_V1.0.2/MSDK/cloud/alicloud/src/services/shadow\utils_list.c **** {
 195              		.loc 1 156 1 is_stmt 1
 196              		.cfi_startproc
 197              	.LVL13:
 157:C:/Users/stapi/OneDrive/Desktop/GD32VW553/V1_MQTT_OK/GD32VW55X_Wifi_BLE_SDK/GD32VW55x_RELEASE_V1.0.2/MSDK/cloud/alicloud/src/services/shadow\utils_list.c ****     if (!node) {
 198              		.loc 1 157 5
 156:C:/Users/stapi/OneDrive/Desktop/GD32VW553/V1_MQTT_OK/GD32VW55X_Wifi_BLE_SDK/GD32VW55x_RELEASE_V1.0.2/MSDK/cloud/alicloud/src/services/shadow\utils_list.c ****     if (!node) {
 199              		.loc 1 156 1 is_stmt 0
 200 0000 AA87     		mv	a5,a0
 201 0002 2E85     		mv	a0,a1
 202              	.LVL14:
 203              		.loc 1 157 8
 204 0004 99C9     		beq	a1,zero,.L23
 158:C:/Users/stapi/OneDrive/Desktop/GD32VW553/V1_MQTT_OK/GD32VW55X_Wifi_BLE_SDK/GD32VW55x_RELEASE_V1.0.2/MSDK/cloud/alicloud/src/services/shadow\utils_list.c ****         return NULL;
 159:C:/Users/stapi/OneDrive/Desktop/GD32VW553/V1_MQTT_OK/GD32VW55X_Wifi_BLE_SDK/GD32VW55x_RELEASE_V1.0.2/MSDK/cloud/alicloud/src/services/shadow\utils_list.c ****     }
 160:C:/Users/stapi/OneDrive/Desktop/GD32VW553/V1_MQTT_OK/GD32VW55X_Wifi_BLE_SDK/GD32VW55x_RELEASE_V1.0.2/MSDK/cloud/alicloud/src/services/shadow\utils_list.c **** 
 161:C:/Users/stapi/OneDrive/Desktop/GD32VW553/V1_MQTT_OK/GD32VW55X_Wifi_BLE_SDK/GD32VW55x_RELEASE_V1.0.2/MSDK/cloud/alicloud/src/services/shadow\utils_list.c ****     if (self->len) {
 205              		.loc 1 161 5 is_stmt 1
 206              		.loc 1 161 13 is_stmt 0
 207 0006 9847     		lw	a4,8(a5)
 208              		.loc 1 161 8
 209 0008 11CB     		beq	a4,zero,.L24
 162:C:/Users/stapi/OneDrive/Desktop/GD32VW553/V1_MQTT_OK/GD32VW55X_Wifi_BLE_SDK/GD32VW55x_RELEASE_V1.0.2/MSDK/cloud/alicloud/src/services/shadow\utils_list.c ****         node->next = self->head;
 210              		.loc 1 162 9 is_stmt 1
 211              		.loc 1 162 26 is_stmt 0
 212 000a 9443     		lw	a3,0(a5)
 163:C:/Users/stapi/OneDrive/Desktop/GD32VW553/V1_MQTT_OK/GD32VW55X_Wifi_BLE_SDK/GD32VW55x_RELEASE_V1.0.2/MSDK/cloud/alicloud/src/services/shadow\utils_list.c ****         node->prev = NULL;
 213              		.loc 1 163 20
 214 000c 23A00500 		sw	zero,0(a1)
 162:C:/Users/stapi/OneDrive/Desktop/GD32VW553/V1_MQTT_OK/GD32VW55X_Wifi_BLE_SDK/GD32VW55x_RELEASE_V1.0.2/MSDK/cloud/alicloud/src/services/shadow\utils_list.c ****         node->next = self->head;
 215              		.loc 1 162 20
 216 0010 D4C1     		sw	a3,4(a1)
 217              		.loc 1 163 9 is_stmt 1
 164:C:/Users/stapi/OneDrive/Desktop/GD32VW553/V1_MQTT_OK/GD32VW55X_Wifi_BLE_SDK/GD32VW55x_RELEASE_V1.0.2/MSDK/cloud/alicloud/src/services/shadow\utils_list.c ****         self->head->prev = node;
 218              		.loc 1 164 9
 219              		.loc 1 164 26 is_stmt 0
 220 0012 8CC2     		sw	a1,0(a3)
 165:C:/Users/stapi/OneDrive/Desktop/GD32VW553/V1_MQTT_OK/GD32VW55X_Wifi_BLE_SDK/GD32VW55x_RELEASE_V1.0.2/MSDK/cloud/alicloud/src/services/shadow\utils_list.c ****         self->head = node;
 221              		.loc 1 165 9 is_stmt 1
 222              		.loc 1 165 20 is_stmt 0
 223 0014 8CC3     		sw	a1,0(a5)
 224              	.LVL15:
 225              	.L25:
 166:C:/Users/stapi/OneDrive/Desktop/GD32VW553/V1_MQTT_OK/GD32VW55X_Wifi_BLE_SDK/GD32VW55x_RELEASE_V1.0.2/MSDK/cloud/alicloud/src/services/shadow\utils_list.c ****     } else {
 167:C:/Users/stapi/OneDrive/Desktop/GD32VW553/V1_MQTT_OK/GD32VW55X_Wifi_BLE_SDK/GD32VW55x_RELEASE_V1.0.2/MSDK/cloud/alicloud/src/services/shadow\utils_list.c ****         self->head = self->tail = node;
 168:C:/Users/stapi/OneDrive/Desktop/GD32VW553/V1_MQTT_OK/GD32VW55X_Wifi_BLE_SDK/GD32VW55x_RELEASE_V1.0.2/MSDK/cloud/alicloud/src/services/shadow\utils_list.c ****         node->prev = node->next = NULL;
 169:C:/Users/stapi/OneDrive/Desktop/GD32VW553/V1_MQTT_OK/GD32VW55X_Wifi_BLE_SDK/GD32VW55x_RELEASE_V1.0.2/MSDK/cloud/alicloud/src/services/shadow\utils_list.c ****     }
 170:C:/Users/stapi/OneDrive/Desktop/GD32VW553/V1_MQTT_OK/GD32VW55X_Wifi_BLE_SDK/GD32VW55x_RELEASE_V1.0.2/MSDK/cloud/alicloud/src/services/shadow\utils_list.c **** 
 171:C:/Users/stapi/OneDrive/Desktop/GD32VW553/V1_MQTT_OK/GD32VW55X_Wifi_BLE_SDK/GD32VW55x_RELEASE_V1.0.2/MSDK/cloud/alicloud/src/services/shadow\utils_list.c ****     ++self->len;
 226              		.loc 1 171 5 is_stmt 1
 227 0016 0507     		addi	a4,a4,1
 228 0018 98C7     		sw	a4,8(a5)
 172:C:/Users/stapi/OneDrive/Desktop/GD32VW553/V1_MQTT_OK/GD32VW55X_Wifi_BLE_SDK/GD32VW55x_RELEASE_V1.0.2/MSDK/cloud/alicloud/src/services/shadow\utils_list.c ****     return node;
 229              		.loc 1 172 5
 230              	.L23:
 173:C:/Users/stapi/OneDrive/Desktop/GD32VW553/V1_MQTT_OK/GD32VW55X_Wifi_BLE_SDK/GD32VW55x_RELEASE_V1.0.2/MSDK/cloud/alicloud/src/services/shadow\utils_list.c **** }
 231              		.loc 1 173 1 is_stmt 0
 232 001a 8280     		ret
 233              	.L24:
 167:C:/Users/stapi/OneDrive/Desktop/GD32VW553/V1_MQTT_OK/GD32VW55X_Wifi_BLE_SDK/GD32VW55x_RELEASE_V1.0.2/MSDK/cloud/alicloud/src/services/shadow\utils_list.c ****         node->prev = node->next = NULL;
 234              		.loc 1 167 9 is_stmt 1
 167:C:/Users/stapi/OneDrive/Desktop/GD32VW553/V1_MQTT_OK/GD32VW55X_Wifi_BLE_SDK/GD32VW55x_RELEASE_V1.0.2/MSDK/cloud/alicloud/src/services/shadow\utils_list.c ****         node->prev = node->next = NULL;
 235              		.loc 1 167 33 is_stmt 0
 236 001c CCC3     		sw	a1,4(a5)
 167:C:/Users/stapi/OneDrive/Desktop/GD32VW553/V1_MQTT_OK/GD32VW55X_Wifi_BLE_SDK/GD32VW55x_RELEASE_V1.0.2/MSDK/cloud/alicloud/src/services/shadow\utils_list.c ****         node->prev = node->next = NULL;
 237              		.loc 1 167 20
 238 001e 8CC3     		sw	a1,0(a5)
 168:C:/Users/stapi/OneDrive/Desktop/GD32VW553/V1_MQTT_OK/GD32VW55X_Wifi_BLE_SDK/GD32VW55x_RELEASE_V1.0.2/MSDK/cloud/alicloud/src/services/shadow\utils_list.c ****     }
 239              		.loc 1 168 9 is_stmt 1
 168:C:/Users/stapi/OneDrive/Desktop/GD32VW553/V1_MQTT_OK/GD32VW55X_Wifi_BLE_SDK/GD32VW55x_RELEASE_V1.0.2/MSDK/cloud/alicloud/src/services/shadow\utils_list.c ****     }
 240              		.loc 1 168 33 is_stmt 0
 241 0020 23A20500 		sw	zero,4(a1)
 168:C:/Users/stapi/OneDrive/Desktop/GD32VW553/V1_MQTT_OK/GD32VW55X_Wifi_BLE_SDK/GD32VW55x_RELEASE_V1.0.2/MSDK/cloud/alicloud/src/services/shadow\utils_list.c ****     }
 242              		.loc 1 168 20
 243 0024 23A00500 		sw	zero,0(a1)
 244 0028 FDB7     		j	.L25
 245              		.cfi_endproc
 246              	.LFE23:
 248              		.section	.text.list_remove,"ax",@progbits
 249              		.align	1
 250              		.globl	list_remove
 252              	list_remove:
 253              	.LFB25:
 174:C:/Users/stapi/OneDrive/Desktop/GD32VW553/V1_MQTT_OK/GD32VW55X_Wifi_BLE_SDK/GD32VW55x_RELEASE_V1.0.2/MSDK/cloud/alicloud/src/services/shadow\utils_list.c **** 
 175:C:/Users/stapi/OneDrive/Desktop/GD32VW553/V1_MQTT_OK/GD32VW55X_Wifi_BLE_SDK/GD32VW55x_RELEASE_V1.0.2/MSDK/cloud/alicloud/src/services/shadow\utils_list.c **** /*
 176:C:/Users/stapi/OneDrive/Desktop/GD32VW553/V1_MQTT_OK/GD32VW55X_Wifi_BLE_SDK/GD32VW55x_RELEASE_V1.0.2/MSDK/cloud/alicloud/src/services/shadow\utils_list.c ****  * Return the node associated to val or NULL.
 177:C:/Users/stapi/OneDrive/Desktop/GD32VW553/V1_MQTT_OK/GD32VW55X_Wifi_BLE_SDK/GD32VW55x_RELEASE_V1.0.2/MSDK/cloud/alicloud/src/services/shadow\utils_list.c ****  */
 178:C:/Users/stapi/OneDrive/Desktop/GD32VW553/V1_MQTT_OK/GD32VW55X_Wifi_BLE_SDK/GD32VW55x_RELEASE_V1.0.2/MSDK/cloud/alicloud/src/services/shadow\utils_list.c **** list_node_t *list_find(list_t *self, void *val)
 179:C:/Users/stapi/OneDrive/Desktop/GD32VW553/V1_MQTT_OK/GD32VW55X_Wifi_BLE_SDK/GD32VW55x_RELEASE_V1.0.2/MSDK/cloud/alicloud/src/services/shadow\utils_list.c **** {
 180:C:/Users/stapi/OneDrive/Desktop/GD32VW553/V1_MQTT_OK/GD32VW55X_Wifi_BLE_SDK/GD32VW55x_RELEASE_V1.0.2/MSDK/cloud/alicloud/src/services/shadow\utils_list.c ****     list_iterator_t *it;
 181:C:/Users/stapi/OneDrive/Desktop/GD32VW553/V1_MQTT_OK/GD32VW55X_Wifi_BLE_SDK/GD32VW55x_RELEASE_V1.0.2/MSDK/cloud/alicloud/src/services/shadow\utils_list.c ****     list_node_t *node;
 182:C:/Users/stapi/OneDrive/Desktop/GD32VW553/V1_MQTT_OK/GD32VW55X_Wifi_BLE_SDK/GD32VW55x_RELEASE_V1.0.2/MSDK/cloud/alicloud/src/services/shadow\utils_list.c **** 
 183:C:/Users/stapi/OneDrive/Desktop/GD32VW553/V1_MQTT_OK/GD32VW55X_Wifi_BLE_SDK/GD32VW55x_RELEASE_V1.0.2/MSDK/cloud/alicloud/src/services/shadow\utils_list.c ****     if (NULL == (it = list_iterator_new(self, LIST_HEAD))) {
 184:C:/Users/stapi/OneDrive/Desktop/GD32VW553/V1_MQTT_OK/GD32VW55X_Wifi_BLE_SDK/GD32VW55x_RELEASE_V1.0.2/MSDK/cloud/alicloud/src/services/shadow\utils_list.c ****         return NULL;
 185:C:/Users/stapi/OneDrive/Desktop/GD32VW553/V1_MQTT_OK/GD32VW55X_Wifi_BLE_SDK/GD32VW55x_RELEASE_V1.0.2/MSDK/cloud/alicloud/src/services/shadow\utils_list.c ****     }
 186:C:/Users/stapi/OneDrive/Desktop/GD32VW553/V1_MQTT_OK/GD32VW55X_Wifi_BLE_SDK/GD32VW55x_RELEASE_V1.0.2/MSDK/cloud/alicloud/src/services/shadow\utils_list.c ****     node = list_iterator_next(it);
 187:C:/Users/stapi/OneDrive/Desktop/GD32VW553/V1_MQTT_OK/GD32VW55X_Wifi_BLE_SDK/GD32VW55x_RELEASE_V1.0.2/MSDK/cloud/alicloud/src/services/shadow\utils_list.c ****     while (node) {
 188:C:/Users/stapi/OneDrive/Desktop/GD32VW553/V1_MQTT_OK/GD32VW55X_Wifi_BLE_SDK/GD32VW55x_RELEASE_V1.0.2/MSDK/cloud/alicloud/src/services/shadow\utils_list.c ****         if (self->match) {
 189:C:/Users/stapi/OneDrive/Desktop/GD32VW553/V1_MQTT_OK/GD32VW55X_Wifi_BLE_SDK/GD32VW55x_RELEASE_V1.0.2/MSDK/cloud/alicloud/src/services/shadow\utils_list.c ****             if (self->match(val, node->val)) {
 190:C:/Users/stapi/OneDrive/Desktop/GD32VW553/V1_MQTT_OK/GD32VW55X_Wifi_BLE_SDK/GD32VW55x_RELEASE_V1.0.2/MSDK/cloud/alicloud/src/services/shadow\utils_list.c ****                 list_iterator_destroy(it);
 191:C:/Users/stapi/OneDrive/Desktop/GD32VW553/V1_MQTT_OK/GD32VW55X_Wifi_BLE_SDK/GD32VW55x_RELEASE_V1.0.2/MSDK/cloud/alicloud/src/services/shadow\utils_list.c ****                 return node;
 192:C:/Users/stapi/OneDrive/Desktop/GD32VW553/V1_MQTT_OK/GD32VW55X_Wifi_BLE_SDK/GD32VW55x_RELEASE_V1.0.2/MSDK/cloud/alicloud/src/services/shadow\utils_list.c ****             }
 193:C:/Users/stapi/OneDrive/Desktop/GD32VW553/V1_MQTT_OK/GD32VW55X_Wifi_BLE_SDK/GD32VW55x_RELEASE_V1.0.2/MSDK/cloud/alicloud/src/services/shadow\utils_list.c ****         } else {
 194:C:/Users/stapi/OneDrive/Desktop/GD32VW553/V1_MQTT_OK/GD32VW55X_Wifi_BLE_SDK/GD32VW55x_RELEASE_V1.0.2/MSDK/cloud/alicloud/src/services/shadow\utils_list.c ****             if (val == node->val) {
 195:C:/Users/stapi/OneDrive/Desktop/GD32VW553/V1_MQTT_OK/GD32VW55X_Wifi_BLE_SDK/GD32VW55x_RELEASE_V1.0.2/MSDK/cloud/alicloud/src/services/shadow\utils_list.c ****                 list_iterator_destroy(it);
 196:C:/Users/stapi/OneDrive/Desktop/GD32VW553/V1_MQTT_OK/GD32VW55X_Wifi_BLE_SDK/GD32VW55x_RELEASE_V1.0.2/MSDK/cloud/alicloud/src/services/shadow\utils_list.c ****                 return node;
 197:C:/Users/stapi/OneDrive/Desktop/GD32VW553/V1_MQTT_OK/GD32VW55X_Wifi_BLE_SDK/GD32VW55x_RELEASE_V1.0.2/MSDK/cloud/alicloud/src/services/shadow\utils_list.c ****             }
 198:C:/Users/stapi/OneDrive/Desktop/GD32VW553/V1_MQTT_OK/GD32VW55X_Wifi_BLE_SDK/GD32VW55x_RELEASE_V1.0.2/MSDK/cloud/alicloud/src/services/shadow\utils_list.c ****         }
 199:C:/Users/stapi/OneDrive/Desktop/GD32VW553/V1_MQTT_OK/GD32VW55X_Wifi_BLE_SDK/GD32VW55x_RELEASE_V1.0.2/MSDK/cloud/alicloud/src/services/shadow\utils_list.c ****         node = list_iterator_next(it);
 200:C:/Users/stapi/OneDrive/Desktop/GD32VW553/V1_MQTT_OK/GD32VW55X_Wifi_BLE_SDK/GD32VW55x_RELEASE_V1.0.2/MSDK/cloud/alicloud/src/services/shadow\utils_list.c ****     }
 201:C:/Users/stapi/OneDrive/Desktop/GD32VW553/V1_MQTT_OK/GD32VW55X_Wifi_BLE_SDK/GD32VW55x_RELEASE_V1.0.2/MSDK/cloud/alicloud/src/services/shadow\utils_list.c **** 
 202:C:/Users/stapi/OneDrive/Desktop/GD32VW553/V1_MQTT_OK/GD32VW55X_Wifi_BLE_SDK/GD32VW55x_RELEASE_V1.0.2/MSDK/cloud/alicloud/src/services/shadow\utils_list.c ****     list_iterator_destroy(it);
 203:C:/Users/stapi/OneDrive/Desktop/GD32VW553/V1_MQTT_OK/GD32VW55X_Wifi_BLE_SDK/GD32VW55x_RELEASE_V1.0.2/MSDK/cloud/alicloud/src/services/shadow\utils_list.c ****     return NULL;
 204:C:/Users/stapi/OneDrive/Desktop/GD32VW553/V1_MQTT_OK/GD32VW55X_Wifi_BLE_SDK/GD32VW55x_RELEASE_V1.0.2/MSDK/cloud/alicloud/src/services/shadow\utils_list.c **** }
 205:C:/Users/stapi/OneDrive/Desktop/GD32VW553/V1_MQTT_OK/GD32VW55X_Wifi_BLE_SDK/GD32VW55x_RELEASE_V1.0.2/MSDK/cloud/alicloud/src/services/shadow\utils_list.c **** 
 206:C:/Users/stapi/OneDrive/Desktop/GD32VW553/V1_MQTT_OK/GD32VW55X_Wifi_BLE_SDK/GD32VW55x_RELEASE_V1.0.2/MSDK/cloud/alicloud/src/services/shadow\utils_list.c **** /*
 207:C:/Users/stapi/OneDrive/Desktop/GD32VW553/V1_MQTT_OK/GD32VW55X_Wifi_BLE_SDK/GD32VW55x_RELEASE_V1.0.2/MSDK/cloud/alicloud/src/services/shadow\utils_list.c ****  * Remove the given node from the list, freeing it and it's value.
 208:C:/Users/stapi/OneDrive/Desktop/GD32VW553/V1_MQTT_OK/GD32VW55X_Wifi_BLE_SDK/GD32VW55x_RELEASE_V1.0.2/MSDK/cloud/alicloud/src/services/shadow\utils_list.c ****  */
 209:C:/Users/stapi/OneDrive/Desktop/GD32VW553/V1_MQTT_OK/GD32VW55X_Wifi_BLE_SDK/GD32VW55x_RELEASE_V1.0.2/MSDK/cloud/alicloud/src/services/shadow\utils_list.c **** void list_remove(list_t *self, list_node_t *node)
 210:C:/Users/stapi/OneDrive/Desktop/GD32VW553/V1_MQTT_OK/GD32VW55X_Wifi_BLE_SDK/GD32VW55x_RELEASE_V1.0.2/MSDK/cloud/alicloud/src/services/shadow\utils_list.c **** {
 254              		.loc 1 210 1 is_stmt 1
 255              		.cfi_startproc
 256              	.LVL16:
 257 0000 17030000 		call	t0,__riscv_save_2
 257      E7020300 
 258              		.cfi_offset 9, -12
 259              		.cfi_offset 8, -8
 260              		.cfi_offset 1, -4
 261              		.cfi_def_cfa_offset 16
 211:C:/Users/stapi/OneDrive/Desktop/GD32VW553/V1_MQTT_OK/GD32VW55X_Wifi_BLE_SDK/GD32VW55x_RELEASE_V1.0.2/MSDK/cloud/alicloud/src/services/shadow\utils_list.c ****     node->prev ? (node->prev->next = node->next) : (self->head = node->next);
 262              		.loc 1 211 5
 263              		.loc 1 211 9 is_stmt 0
 264 0008 9C41     		lw	a5,0(a1)
 265              		.loc 1 211 42
 266 000a D841     		lw	a4,4(a1)
 210:C:/Users/stapi/OneDrive/Desktop/GD32VW553/V1_MQTT_OK/GD32VW55X_Wifi_BLE_SDK/GD32VW55x_RELEASE_V1.0.2/MSDK/cloud/alicloud/src/services/shadow\utils_list.c ****     node->prev ? (node->prev->next = node->next) : (self->head = node->next);
 267              		.loc 1 210 1
 268 000c 2A84     		mv	s0,a0
 269 000e AE84     		mv	s1,a1
 270              		.loc 1 211 50
 271 0010 8DC7     		beq	a5,zero,.L30
 272              		.loc 1 211 36 discriminator 1
 273 0012 D8C3     		sw	a4,4(a5)
 274              	.L31:
 212:C:/Users/stapi/OneDrive/Desktop/GD32VW553/V1_MQTT_OK/GD32VW55X_Wifi_BLE_SDK/GD32VW55x_RELEASE_V1.0.2/MSDK/cloud/alicloud/src/services/shadow\utils_list.c **** 
 213:C:/Users/stapi/OneDrive/Desktop/GD32VW553/V1_MQTT_OK/GD32VW55X_Wifi_BLE_SDK/GD32VW55x_RELEASE_V1.0.2/MSDK/cloud/alicloud/src/services/shadow\utils_list.c ****     node->next ? (node->next->prev = node->prev) : (self->tail = node->prev);
 275              		.loc 1 213 5 is_stmt 1
 276              		.loc 1 213 9 is_stmt 0
 277 0014 D840     		lw	a4,4(s1)
 278              		.loc 1 213 50
 279 0016 05C7     		beq	a4,zero,.L32
 280              		.loc 1 213 36 discriminator 1
 281 0018 1CC3     		sw	a5,0(a4)
 282              	.L33:
 214:C:/Users/stapi/OneDrive/Desktop/GD32VW553/V1_MQTT_OK/GD32VW55X_Wifi_BLE_SDK/GD32VW55x_RELEASE_V1.0.2/MSDK/cloud/alicloud/src/services/shadow\utils_list.c **** 
 215:C:/Users/stapi/OneDrive/Desktop/GD32VW553/V1_MQTT_OK/GD32VW55X_Wifi_BLE_SDK/GD32VW55x_RELEASE_V1.0.2/MSDK/cloud/alicloud/src/services/shadow\utils_list.c ****     if (self->free) {
 283              		.loc 1 215 5 is_stmt 1
 284              		.loc 1 215 13 is_stmt 0
 285 001a 5C44     		lw	a5,12(s0)
 286              		.loc 1 215 8
 287 001c 99C3     		beq	a5,zero,.L34
 216:C:/Users/stapi/OneDrive/Desktop/GD32VW553/V1_MQTT_OK/GD32VW55X_Wifi_BLE_SDK/GD32VW55x_RELEASE_V1.0.2/MSDK/cloud/alicloud/src/services/shadow\utils_list.c ****         self->free(node->val);
 288              		.loc 1 216 9 is_stmt 1
 289 001e 8844     		lw	a0,8(s1)
 290              	.LVL17:
 291 0020 8297     		jalr	a5
 292              	.LVL18:
 293              	.L34:
 217:C:/Users/stapi/OneDrive/Desktop/GD32VW553/V1_MQTT_OK/GD32VW55X_Wifi_BLE_SDK/GD32VW55x_RELEASE_V1.0.2/MSDK/cloud/alicloud/src/services/shadow\utils_list.c ****     }
 218:C:/Users/stapi/OneDrive/Desktop/GD32VW553/V1_MQTT_OK/GD32VW55X_Wifi_BLE_SDK/GD32VW55x_RELEASE_V1.0.2/MSDK/cloud/alicloud/src/services/shadow\utils_list.c **** 
 219:C:/Users/stapi/OneDrive/Desktop/GD32VW553/V1_MQTT_OK/GD32VW55X_Wifi_BLE_SDK/GD32VW55x_RELEASE_V1.0.2/MSDK/cloud/alicloud/src/services/shadow\utils_list.c ****     LITE_free(node);
 294              		.loc 1 219 5
 295 0022 2685     		mv	a0,s1
 296 0024 97000000 		call	LITE_free_internal
 296      E7800000 
 297              	.LVL19:
 220:C:/Users/stapi/OneDrive/Desktop/GD32VW553/V1_MQTT_OK/GD32VW55X_Wifi_BLE_SDK/GD32VW55x_RELEASE_V1.0.2/MSDK/cloud/alicloud/src/services/shadow\utils_list.c ****     --self->len;
 298              		.loc 1 220 5
 299 002c 1C44     		lw	a5,8(s0)
 300 002e FD17     		addi	a5,a5,-1
 301 0030 1CC4     		sw	a5,8(s0)
 221:C:/Users/stapi/OneDrive/Desktop/GD32VW553/V1_MQTT_OK/GD32VW55X_Wifi_BLE_SDK/GD32VW55x_RELEASE_V1.0.2/MSDK/cloud/alicloud/src/services/shadow\utils_list.c **** }
 302              		.loc 1 221 1 is_stmt 0
 303 0032 17030000 		tail	__riscv_restore_2
 303      67000300 
 304              		.cfi_remember_state
 305              		.cfi_restore 9
 306              		.cfi_restore 8
 307              		.cfi_restore 1
 308              		.cfi_def_cfa_offset 0
 309              	.L30:
 310              		.cfi_restore_state
 211:C:/Users/stapi/OneDrive/Desktop/GD32VW553/V1_MQTT_OK/GD32VW55X_Wifi_BLE_SDK/GD32VW55x_RELEASE_V1.0.2/MSDK/cloud/alicloud/src/services/shadow\utils_list.c **** 
 311              		.loc 1 211 64 discriminator 2
 312 003a 18C1     		sw	a4,0(a0)
 313 003c E1BF     		j	.L31
 314              	.L32:
 213:C:/Users/stapi/OneDrive/Desktop/GD32VW553/V1_MQTT_OK/GD32VW55X_Wifi_BLE_SDK/GD32VW55x_RELEASE_V1.0.2/MSDK/cloud/alicloud/src/services/shadow\utils_list.c **** 
 315              		.loc 1 213 64 discriminator 2
 316 003e 5CC0     		sw	a5,4(s0)
 317 0040 E9BF     		j	.L33
 318              		.cfi_endproc
 319              	.LFE25:
 321              		.section	.text.list_iterator_new_from_node,"ax",@progbits
 322              		.align	1
 323              		.globl	list_iterator_new_from_node
 325              	list_iterator_new_from_node:
 326              	.LFB27:
 222:C:/Users/stapi/OneDrive/Desktop/GD32VW553/V1_MQTT_OK/GD32VW55X_Wifi_BLE_SDK/GD32VW55x_RELEASE_V1.0.2/MSDK/cloud/alicloud/src/services/shadow\utils_list.c **** 
 223:C:/Users/stapi/OneDrive/Desktop/GD32VW553/V1_MQTT_OK/GD32VW55X_Wifi_BLE_SDK/GD32VW55x_RELEASE_V1.0.2/MSDK/cloud/alicloud/src/services/shadow\utils_list.c **** /*
 224:C:/Users/stapi/OneDrive/Desktop/GD32VW553/V1_MQTT_OK/GD32VW55X_Wifi_BLE_SDK/GD32VW55x_RELEASE_V1.0.2/MSDK/cloud/alicloud/src/services/shadow\utils_list.c ****  * Allocate a new list_iterator_t. NULL on failure.
 225:C:/Users/stapi/OneDrive/Desktop/GD32VW553/V1_MQTT_OK/GD32VW55X_Wifi_BLE_SDK/GD32VW55x_RELEASE_V1.0.2/MSDK/cloud/alicloud/src/services/shadow\utils_list.c ****  * Accepts a direction, which may be LIST_HEAD or LIST_TAIL.
 226:C:/Users/stapi/OneDrive/Desktop/GD32VW553/V1_MQTT_OK/GD32VW55X_Wifi_BLE_SDK/GD32VW55x_RELEASE_V1.0.2/MSDK/cloud/alicloud/src/services/shadow\utils_list.c ****  */
 227:C:/Users/stapi/OneDrive/Desktop/GD32VW553/V1_MQTT_OK/GD32VW55X_Wifi_BLE_SDK/GD32VW55x_RELEASE_V1.0.2/MSDK/cloud/alicloud/src/services/shadow\utils_list.c **** list_iterator_t *list_iterator_new(list_t *list, list_direction_t direction)
 228:C:/Users/stapi/OneDrive/Desktop/GD32VW553/V1_MQTT_OK/GD32VW55X_Wifi_BLE_SDK/GD32VW55x_RELEASE_V1.0.2/MSDK/cloud/alicloud/src/services/shadow\utils_list.c **** {
 229:C:/Users/stapi/OneDrive/Desktop/GD32VW553/V1_MQTT_OK/GD32VW55X_Wifi_BLE_SDK/GD32VW55x_RELEASE_V1.0.2/MSDK/cloud/alicloud/src/services/shadow\utils_list.c ****     list_node_t *node = direction == LIST_HEAD ? list->head : list->tail;
 230:C:/Users/stapi/OneDrive/Desktop/GD32VW553/V1_MQTT_OK/GD32VW55X_Wifi_BLE_SDK/GD32VW55x_RELEASE_V1.0.2/MSDK/cloud/alicloud/src/services/shadow\utils_list.c ****     return list_iterator_new_from_node(node, direction);
 231:C:/Users/stapi/OneDrive/Desktop/GD32VW553/V1_MQTT_OK/GD32VW55X_Wifi_BLE_SDK/GD32VW55x_RELEASE_V1.0.2/MSDK/cloud/alicloud/src/services/shadow\utils_list.c **** }
 232:C:/Users/stapi/OneDrive/Desktop/GD32VW553/V1_MQTT_OK/GD32VW55X_Wifi_BLE_SDK/GD32VW55x_RELEASE_V1.0.2/MSDK/cloud/alicloud/src/services/shadow\utils_list.c **** 
 233:C:/Users/stapi/OneDrive/Desktop/GD32VW553/V1_MQTT_OK/GD32VW55X_Wifi_BLE_SDK/GD32VW55x_RELEASE_V1.0.2/MSDK/cloud/alicloud/src/services/shadow\utils_list.c **** /*
 234:C:/Users/stapi/OneDrive/Desktop/GD32VW553/V1_MQTT_OK/GD32VW55X_Wifi_BLE_SDK/GD32VW55x_RELEASE_V1.0.2/MSDK/cloud/alicloud/src/services/shadow\utils_list.c ****  * Allocate a new list_iterator_t with the given start
 235:C:/Users/stapi/OneDrive/Desktop/GD32VW553/V1_MQTT_OK/GD32VW55X_Wifi_BLE_SDK/GD32VW55x_RELEASE_V1.0.2/MSDK/cloud/alicloud/src/services/shadow\utils_list.c ****  * node. NULL on failure.
 236:C:/Users/stapi/OneDrive/Desktop/GD32VW553/V1_MQTT_OK/GD32VW55X_Wifi_BLE_SDK/GD32VW55x_RELEASE_V1.0.2/MSDK/cloud/alicloud/src/services/shadow\utils_list.c ****  */
 237:C:/Users/stapi/OneDrive/Desktop/GD32VW553/V1_MQTT_OK/GD32VW55X_Wifi_BLE_SDK/GD32VW55x_RELEASE_V1.0.2/MSDK/cloud/alicloud/src/services/shadow\utils_list.c **** list_iterator_t *list_iterator_new_from_node(list_node_t *node, list_direction_t direction)
 238:C:/Users/stapi/OneDrive/Desktop/GD32VW553/V1_MQTT_OK/GD32VW55X_Wifi_BLE_SDK/GD32VW55x_RELEASE_V1.0.2/MSDK/cloud/alicloud/src/services/shadow\utils_list.c **** {
 327              		.loc 1 238 1 is_stmt 1
 328              		.cfi_startproc
 329              	.LVL20:
 330 0000 17030000 		call	t0,__riscv_save_2
 330      E7020300 
 331              		.cfi_offset 9, -12
 332              		.cfi_offset 8, -8
 333              		.cfi_offset 1, -4
 334              		.cfi_def_cfa_offset 16
 239:C:/Users/stapi/OneDrive/Desktop/GD32VW553/V1_MQTT_OK/GD32VW55X_Wifi_BLE_SDK/GD32VW55x_RELEASE_V1.0.2/MSDK/cloud/alicloud/src/services/shadow\utils_list.c ****     list_iterator_t *self;
 335              		.loc 1 239 5
 240:C:/Users/stapi/OneDrive/Desktop/GD32VW553/V1_MQTT_OK/GD32VW55X_Wifi_BLE_SDK/GD32VW55x_RELEASE_V1.0.2/MSDK/cloud/alicloud/src/services/shadow\utils_list.c ****     self = LITE_malloc(sizeof(list_iterator_t));
 336              		.loc 1 240 5
 238:C:/Users/stapi/OneDrive/Desktop/GD32VW553/V1_MQTT_OK/GD32VW55X_Wifi_BLE_SDK/GD32VW55x_RELEASE_V1.0.2/MSDK/cloud/alicloud/src/services/shadow\utils_list.c ****     list_iterator_t *self;
 337              		.loc 1 238 1 is_stmt 0
 338 0008 AA84     		mv	s1,a0
 339 000a 2E84     		mv	s0,a1
 340              		.loc 1 240 12
 341 000c 2146     		li	a2,8
 342 000e 8145     		li	a1,0
 343              	.LVL21:
 344 0010 0145     		li	a0,0
 345              	.LVL22:
 346 0012 97000000 		call	LITE_malloc_internal
 346      E7800000 
 347              	.LVL23:
 241:C:/Users/stapi/OneDrive/Desktop/GD32VW553/V1_MQTT_OK/GD32VW55X_Wifi_BLE_SDK/GD32VW55x_RELEASE_V1.0.2/MSDK/cloud/alicloud/src/services/shadow\utils_list.c ****     if (!self) {
 348              		.loc 1 241 5 is_stmt 1
 349              		.loc 1 241 8 is_stmt 0
 350 001a 19C1     		beq	a0,zero,.L39
 242:C:/Users/stapi/OneDrive/Desktop/GD32VW553/V1_MQTT_OK/GD32VW55X_Wifi_BLE_SDK/GD32VW55x_RELEASE_V1.0.2/MSDK/cloud/alicloud/src/services/shadow\utils_list.c ****         return NULL;
 243:C:/Users/stapi/OneDrive/Desktop/GD32VW553/V1_MQTT_OK/GD32VW55X_Wifi_BLE_SDK/GD32VW55x_RELEASE_V1.0.2/MSDK/cloud/alicloud/src/services/shadow\utils_list.c ****     }
 244:C:/Users/stapi/OneDrive/Desktop/GD32VW553/V1_MQTT_OK/GD32VW55X_Wifi_BLE_SDK/GD32VW55x_RELEASE_V1.0.2/MSDK/cloud/alicloud/src/services/shadow\utils_list.c ****     self->next = node;
 351              		.loc 1 244 5 is_stmt 1
 352              		.loc 1 244 16 is_stmt 0
 353 001c 04C1     		sw	s1,0(a0)
 245:C:/Users/stapi/OneDrive/Desktop/GD32VW553/V1_MQTT_OK/GD32VW55X_Wifi_BLE_SDK/GD32VW55x_RELEASE_V1.0.2/MSDK/cloud/alicloud/src/services/shadow\utils_list.c ****     self->direction = direction;
 354              		.loc 1 245 5 is_stmt 1
 355              		.loc 1 245 21 is_stmt 0
 356 001e 40C1     		sw	s0,4(a0)
 246:C:/Users/stapi/OneDrive/Desktop/GD32VW553/V1_MQTT_OK/GD32VW55X_Wifi_BLE_SDK/GD32VW55x_RELEASE_V1.0.2/MSDK/cloud/alicloud/src/services/shadow\utils_list.c ****     return self;
 357              		.loc 1 246 5 is_stmt 1
 358              	.L39:
 247:C:/Users/stapi/OneDrive/Desktop/GD32VW553/V1_MQTT_OK/GD32VW55X_Wifi_BLE_SDK/GD32VW55x_RELEASE_V1.0.2/MSDK/cloud/alicloud/src/services/shadow\utils_list.c **** }
 359              		.loc 1 247 1 is_stmt 0
 360 0020 17030000 		tail	__riscv_restore_2
 360      67000300 
 361              		.cfi_restore 9
 362              		.cfi_restore 8
 363              		.cfi_restore 1
 364              		.cfi_def_cfa_offset 0
 365              		.cfi_endproc
 366              	.LFE27:
 368              		.section	.text.list_iterator_new,"ax",@progbits
 369              		.align	1
 370              		.globl	list_iterator_new
 372              	list_iterator_new:
 373              	.LFB26:
 228:C:/Users/stapi/OneDrive/Desktop/GD32VW553/V1_MQTT_OK/GD32VW55X_Wifi_BLE_SDK/GD32VW55x_RELEASE_V1.0.2/MSDK/cloud/alicloud/src/services/shadow\utils_list.c ****     list_node_t *node = direction == LIST_HEAD ? list->head : list->tail;
 374              		.loc 1 228 1 is_stmt 1
 375              		.cfi_startproc
 376              	.LVL24:
 229:C:/Users/stapi/OneDrive/Desktop/GD32VW553/V1_MQTT_OK/GD32VW55X_Wifi_BLE_SDK/GD32VW55x_RELEASE_V1.0.2/MSDK/cloud/alicloud/src/services/shadow\utils_list.c ****     return list_iterator_new_from_node(node, direction);
 377              		.loc 1 229 5
 229:C:/Users/stapi/OneDrive/Desktop/GD32VW553/V1_MQTT_OK/GD32VW55X_Wifi_BLE_SDK/GD32VW55x_RELEASE_V1.0.2/MSDK/cloud/alicloud/src/services/shadow\utils_list.c ****     return list_iterator_new_from_node(node, direction);
 378              		.loc 1 229 61 is_stmt 0
 379 0000 91E5     		bne	a1,zero,.L46
 229:C:/Users/stapi/OneDrive/Desktop/GD32VW553/V1_MQTT_OK/GD32VW55X_Wifi_BLE_SDK/GD32VW55x_RELEASE_V1.0.2/MSDK/cloud/alicloud/src/services/shadow\utils_list.c ****     return list_iterator_new_from_node(node, direction);
 380              		.loc 1 229 61 discriminator 1
 381 0002 0841     		lw	a0,0(a0)
 382              	.LVL25:
 383              	.L47:
 230:C:/Users/stapi/OneDrive/Desktop/GD32VW553/V1_MQTT_OK/GD32VW55X_Wifi_BLE_SDK/GD32VW55x_RELEASE_V1.0.2/MSDK/cloud/alicloud/src/services/shadow\utils_list.c **** }
 384              		.loc 1 230 5 is_stmt 1 discriminator 4
 230:C:/Users/stapi/OneDrive/Desktop/GD32VW553/V1_MQTT_OK/GD32VW55X_Wifi_BLE_SDK/GD32VW55x_RELEASE_V1.0.2/MSDK/cloud/alicloud/src/services/shadow\utils_list.c **** }
 385              		.loc 1 230 12 is_stmt 0 discriminator 4
 386 0004 17030000 		tail	list_iterator_new_from_node
 386      67000300 
 387              	.LVL26:
 388              	.L46:
 229:C:/Users/stapi/OneDrive/Desktop/GD32VW553/V1_MQTT_OK/GD32VW55X_Wifi_BLE_SDK/GD32VW55x_RELEASE_V1.0.2/MSDK/cloud/alicloud/src/services/shadow\utils_list.c ****     return list_iterator_new_from_node(node, direction);
 389              		.loc 1 229 61 discriminator 2
 390 000c 4841     		lw	a0,4(a0)
 391              	.LVL27:
 392 000e DDBF     		j	.L47
 393              		.cfi_endproc
 394              	.LFE26:
 396              		.section	.text.list_iterator_next,"ax",@progbits
 397              		.align	1
 398              		.globl	list_iterator_next
 400              	list_iterator_next:
 401              	.LFB28:
 248:C:/Users/stapi/OneDrive/Desktop/GD32VW553/V1_MQTT_OK/GD32VW55X_Wifi_BLE_SDK/GD32VW55x_RELEASE_V1.0.2/MSDK/cloud/alicloud/src/services/shadow\utils_list.c **** 
 249:C:/Users/stapi/OneDrive/Desktop/GD32VW553/V1_MQTT_OK/GD32VW55X_Wifi_BLE_SDK/GD32VW55x_RELEASE_V1.0.2/MSDK/cloud/alicloud/src/services/shadow\utils_list.c **** /*
 250:C:/Users/stapi/OneDrive/Desktop/GD32VW553/V1_MQTT_OK/GD32VW55X_Wifi_BLE_SDK/GD32VW55x_RELEASE_V1.0.2/MSDK/cloud/alicloud/src/services/shadow\utils_list.c ****  * Return the next list_node_t or NULL when no more
 251:C:/Users/stapi/OneDrive/Desktop/GD32VW553/V1_MQTT_OK/GD32VW55X_Wifi_BLE_SDK/GD32VW55x_RELEASE_V1.0.2/MSDK/cloud/alicloud/src/services/shadow\utils_list.c ****  * nodes remain in the list.
 252:C:/Users/stapi/OneDrive/Desktop/GD32VW553/V1_MQTT_OK/GD32VW55X_Wifi_BLE_SDK/GD32VW55x_RELEASE_V1.0.2/MSDK/cloud/alicloud/src/services/shadow\utils_list.c ****  */
 253:C:/Users/stapi/OneDrive/Desktop/GD32VW553/V1_MQTT_OK/GD32VW55X_Wifi_BLE_SDK/GD32VW55x_RELEASE_V1.0.2/MSDK/cloud/alicloud/src/services/shadow\utils_list.c **** list_node_t *list_iterator_next(list_iterator_t *self)
 254:C:/Users/stapi/OneDrive/Desktop/GD32VW553/V1_MQTT_OK/GD32VW55X_Wifi_BLE_SDK/GD32VW55x_RELEASE_V1.0.2/MSDK/cloud/alicloud/src/services/shadow\utils_list.c **** {
 402              		.loc 1 254 1 is_stmt 1
 403              		.cfi_startproc
 404              	.LVL28:
 255:C:/Users/stapi/OneDrive/Desktop/GD32VW553/V1_MQTT_OK/GD32VW55X_Wifi_BLE_SDK/GD32VW55x_RELEASE_V1.0.2/MSDK/cloud/alicloud/src/services/shadow\utils_list.c ****     list_node_t *curr = self->next;
 405              		.loc 1 255 5
 254:C:/Users/stapi/OneDrive/Desktop/GD32VW553/V1_MQTT_OK/GD32VW55X_Wifi_BLE_SDK/GD32VW55x_RELEASE_V1.0.2/MSDK/cloud/alicloud/src/services/shadow\utils_list.c ****     list_node_t *curr = self->next;
 406              		.loc 1 254 1 is_stmt 0
 407 0000 AA87     		mv	a5,a0
 408              		.loc 1 255 18
 409 0002 0841     		lw	a0,0(a0)
 410              	.LVL29:
 256:C:/Users/stapi/OneDrive/Desktop/GD32VW553/V1_MQTT_OK/GD32VW55X_Wifi_BLE_SDK/GD32VW55x_RELEASE_V1.0.2/MSDK/cloud/alicloud/src/services/shadow\utils_list.c ****     if (curr) {
 411              		.loc 1 256 5 is_stmt 1
 412              		.loc 1 256 8 is_stmt 0
 413 0004 09C5     		beq	a0,zero,.L49
 257:C:/Users/stapi/OneDrive/Desktop/GD32VW553/V1_MQTT_OK/GD32VW55X_Wifi_BLE_SDK/GD32VW55x_RELEASE_V1.0.2/MSDK/cloud/alicloud/src/services/shadow\utils_list.c ****         self->next = self->direction == LIST_HEAD ? curr->next : curr->prev;
 414              		.loc 1 257 9 is_stmt 1
 415              		.loc 1 257 20 is_stmt 0
 416 0006 D843     		lw	a4,4(a5)
 417 0008 01E7     		bne	a4,zero,.L51
 418              		.loc 1 257 20 discriminator 1
 419 000a 5841     		lw	a4,4(a0)
 420              	.L52:
 421              		.loc 1 257 20 discriminator 4
 422 000c 98C3     		sw	a4,0(a5)
 258:C:/Users/stapi/OneDrive/Desktop/GD32VW553/V1_MQTT_OK/GD32VW55X_Wifi_BLE_SDK/GD32VW55x_RELEASE_V1.0.2/MSDK/cloud/alicloud/src/services/shadow\utils_list.c ****     }
 259:C:/Users/stapi/OneDrive/Desktop/GD32VW553/V1_MQTT_OK/GD32VW55X_Wifi_BLE_SDK/GD32VW55x_RELEASE_V1.0.2/MSDK/cloud/alicloud/src/services/shadow\utils_list.c ****     return curr;
 423              		.loc 1 259 5 is_stmt 1 discriminator 4
 424              	.L49:
 260:C:/Users/stapi/OneDrive/Desktop/GD32VW553/V1_MQTT_OK/GD32VW55X_Wifi_BLE_SDK/GD32VW55x_RELEASE_V1.0.2/MSDK/cloud/alicloud/src/services/shadow\utils_list.c **** }
 425              		.loc 1 260 1 is_stmt 0
 426 000e 8280     		ret
 427              	.L51:
 257:C:/Users/stapi/OneDrive/Desktop/GD32VW553/V1_MQTT_OK/GD32VW55X_Wifi_BLE_SDK/GD32VW55x_RELEASE_V1.0.2/MSDK/cloud/alicloud/src/services/shadow\utils_list.c ****         self->next = self->direction == LIST_HEAD ? curr->next : curr->prev;
 428              		.loc 1 257 20 discriminator 2
 429 0010 1841     		lw	a4,0(a0)
 430 0012 EDBF     		j	.L52
 431              		.cfi_endproc
 432              	.LFE28:
 434              		.section	.text.list_find,"ax",@progbits
 435              		.align	1
 436              		.globl	list_find
 438              	list_find:
 439              	.LFB24:
 179:C:/Users/stapi/OneDrive/Desktop/GD32VW553/V1_MQTT_OK/GD32VW55X_Wifi_BLE_SDK/GD32VW55x_RELEASE_V1.0.2/MSDK/cloud/alicloud/src/services/shadow\utils_list.c ****     list_iterator_t *it;
 440              		.loc 1 179 1 is_stmt 1
 441              		.cfi_startproc
 442              	.LVL30:
 443 0000 17030000 		call	t0,__riscv_save_4
 443      E7020300 
 444              		.cfi_offset 19, -20
 445              		.cfi_offset 18, -16
 446              		.cfi_offset 9, -12
 447              		.cfi_offset 8, -8
 448              		.cfi_offset 1, -4
 449              		.cfi_def_cfa_offset 32
 180:C:/Users/stapi/OneDrive/Desktop/GD32VW553/V1_MQTT_OK/GD32VW55X_Wifi_BLE_SDK/GD32VW55x_RELEASE_V1.0.2/MSDK/cloud/alicloud/src/services/shadow\utils_list.c ****     list_node_t *node;
 450              		.loc 1 180 5
 181:C:/Users/stapi/OneDrive/Desktop/GD32VW553/V1_MQTT_OK/GD32VW55X_Wifi_BLE_SDK/GD32VW55x_RELEASE_V1.0.2/MSDK/cloud/alicloud/src/services/shadow\utils_list.c **** 
 451              		.loc 1 181 5
 183:C:/Users/stapi/OneDrive/Desktop/GD32VW553/V1_MQTT_OK/GD32VW55X_Wifi_BLE_SDK/GD32VW55x_RELEASE_V1.0.2/MSDK/cloud/alicloud/src/services/shadow\utils_list.c ****         return NULL;
 452              		.loc 1 183 5
 179:C:/Users/stapi/OneDrive/Desktop/GD32VW553/V1_MQTT_OK/GD32VW55X_Wifi_BLE_SDK/GD32VW55x_RELEASE_V1.0.2/MSDK/cloud/alicloud/src/services/shadow\utils_list.c ****     list_iterator_t *it;
 453              		.loc 1 179 1 is_stmt 0
 454 0008 2E89     		mv	s2,a1
 183:C:/Users/stapi/OneDrive/Desktop/GD32VW553/V1_MQTT_OK/GD32VW55X_Wifi_BLE_SDK/GD32VW55x_RELEASE_V1.0.2/MSDK/cloud/alicloud/src/services/shadow\utils_list.c ****         return NULL;
 455              		.loc 1 183 23
 456 000a 8145     		li	a1,0
 457              	.LVL31:
 179:C:/Users/stapi/OneDrive/Desktop/GD32VW553/V1_MQTT_OK/GD32VW55X_Wifi_BLE_SDK/GD32VW55x_RELEASE_V1.0.2/MSDK/cloud/alicloud/src/services/shadow\utils_list.c ****     list_iterator_t *it;
 458              		.loc 1 179 1
 459 000c AA89     		mv	s3,a0
 183:C:/Users/stapi/OneDrive/Desktop/GD32VW553/V1_MQTT_OK/GD32VW55X_Wifi_BLE_SDK/GD32VW55x_RELEASE_V1.0.2/MSDK/cloud/alicloud/src/services/shadow\utils_list.c ****         return NULL;
 460              		.loc 1 183 23
 461 000e 97000000 		call	list_iterator_new
 461      E7800000 
 462              	.LVL32:
 184:C:/Users/stapi/OneDrive/Desktop/GD32VW553/V1_MQTT_OK/GD32VW55X_Wifi_BLE_SDK/GD32VW55x_RELEASE_V1.0.2/MSDK/cloud/alicloud/src/services/shadow\utils_list.c ****     }
 463              		.loc 1 184 16
 464 0016 0144     		li	s0,0
 183:C:/Users/stapi/OneDrive/Desktop/GD32VW553/V1_MQTT_OK/GD32VW55X_Wifi_BLE_SDK/GD32VW55x_RELEASE_V1.0.2/MSDK/cloud/alicloud/src/services/shadow\utils_list.c ****         return NULL;
 465              		.loc 1 183 8
 466 0018 05C5     		beq	a0,zero,.L56
 467 001a AA84     		mv	s1,a0
 186:C:/Users/stapi/OneDrive/Desktop/GD32VW553/V1_MQTT_OK/GD32VW55X_Wifi_BLE_SDK/GD32VW55x_RELEASE_V1.0.2/MSDK/cloud/alicloud/src/services/shadow\utils_list.c ****     while (node) {
 468              		.loc 1 186 5 is_stmt 1
 469              	.L67:
 199:C:/Users/stapi/OneDrive/Desktop/GD32VW553/V1_MQTT_OK/GD32VW55X_Wifi_BLE_SDK/GD32VW55x_RELEASE_V1.0.2/MSDK/cloud/alicloud/src/services/shadow\utils_list.c ****     }
 470              		.loc 1 199 16 is_stmt 0
 471 001c 97000000 		call	list_iterator_next
 471      E7800000 
 472              	.LVL33:
 473 0024 2A84     		mv	s0,a0
 474              	.LVL34:
 187:C:/Users/stapi/OneDrive/Desktop/GD32VW553/V1_MQTT_OK/GD32VW55X_Wifi_BLE_SDK/GD32VW55x_RELEASE_V1.0.2/MSDK/cloud/alicloud/src/services/shadow\utils_list.c ****         if (self->match) {
 475              		.loc 1 187 11 is_stmt 1
 476 0026 01C9     		beq	a0,zero,.L68
 188:C:/Users/stapi/OneDrive/Desktop/GD32VW553/V1_MQTT_OK/GD32VW55X_Wifi_BLE_SDK/GD32VW55x_RELEASE_V1.0.2/MSDK/cloud/alicloud/src/services/shadow\utils_list.c ****             if (self->match(val, node->val)) {
 477              		.loc 1 188 9
 188:C:/Users/stapi/OneDrive/Desktop/GD32VW553/V1_MQTT_OK/GD32VW55X_Wifi_BLE_SDK/GD32VW55x_RELEASE_V1.0.2/MSDK/cloud/alicloud/src/services/shadow\utils_list.c ****             if (self->match(val, node->val)) {
 478              		.loc 1 188 17 is_stmt 0
 479 0028 83A70901 		lw	a5,16(s3)
 189:C:/Users/stapi/OneDrive/Desktop/GD32VW553/V1_MQTT_OK/GD32VW55X_Wifi_BLE_SDK/GD32VW55x_RELEASE_V1.0.2/MSDK/cloud/alicloud/src/services/shadow\utils_list.c ****                 list_iterator_destroy(it);
 480              		.loc 1 189 17
 481 002c 0C44     		lw	a1,8(s0)
 188:C:/Users/stapi/OneDrive/Desktop/GD32VW553/V1_MQTT_OK/GD32VW55X_Wifi_BLE_SDK/GD32VW55x_RELEASE_V1.0.2/MSDK/cloud/alicloud/src/services/shadow\utils_list.c ****             if (self->match(val, node->val)) {
 482              		.loc 1 188 12
 483 002e 91CF     		beq	a5,zero,.L59
 189:C:/Users/stapi/OneDrive/Desktop/GD32VW553/V1_MQTT_OK/GD32VW55X_Wifi_BLE_SDK/GD32VW55x_RELEASE_V1.0.2/MSDK/cloud/alicloud/src/services/shadow\utils_list.c ****                 list_iterator_destroy(it);
 484              		.loc 1 189 13 is_stmt 1
 189:C:/Users/stapi/OneDrive/Desktop/GD32VW553/V1_MQTT_OK/GD32VW55X_Wifi_BLE_SDK/GD32VW55x_RELEASE_V1.0.2/MSDK/cloud/alicloud/src/services/shadow\utils_list.c ****                 list_iterator_destroy(it);
 485              		.loc 1 189 17 is_stmt 0
 486 0030 4A85     		mv	a0,s2
 487 0032 8297     		jalr	a5
 488              	.LVL35:
 189:C:/Users/stapi/OneDrive/Desktop/GD32VW553/V1_MQTT_OK/GD32VW55X_Wifi_BLE_SDK/GD32VW55x_RELEASE_V1.0.2/MSDK/cloud/alicloud/src/services/shadow\utils_list.c ****                 list_iterator_destroy(it);
 489              		.loc 1 189 16
 490 0034 09CD     		beq	a0,zero,.L60
 491              	.L68:
 202:C:/Users/stapi/OneDrive/Desktop/GD32VW553/V1_MQTT_OK/GD32VW55X_Wifi_BLE_SDK/GD32VW55x_RELEASE_V1.0.2/MSDK/cloud/alicloud/src/services/shadow\utils_list.c ****     return NULL;
 492              		.loc 1 202 5 is_stmt 1
 493              	.LVL36:
 494              	.LBB8:
 495              	.LBB9:
 261:C:/Users/stapi/OneDrive/Desktop/GD32VW553/V1_MQTT_OK/GD32VW55X_Wifi_BLE_SDK/GD32VW55x_RELEASE_V1.0.2/MSDK/cloud/alicloud/src/services/shadow\utils_list.c **** 
 262:C:/Users/stapi/OneDrive/Desktop/GD32VW553/V1_MQTT_OK/GD32VW55X_Wifi_BLE_SDK/GD32VW55x_RELEASE_V1.0.2/MSDK/cloud/alicloud/src/services/shadow\utils_list.c **** /*
 263:C:/Users/stapi/OneDrive/Desktop/GD32VW553/V1_MQTT_OK/GD32VW55X_Wifi_BLE_SDK/GD32VW55x_RELEASE_V1.0.2/MSDK/cloud/alicloud/src/services/shadow\utils_list.c ****  * Free the list iterator.
 264:C:/Users/stapi/OneDrive/Desktop/GD32VW553/V1_MQTT_OK/GD32VW55X_Wifi_BLE_SDK/GD32VW55x_RELEASE_V1.0.2/MSDK/cloud/alicloud/src/services/shadow\utils_list.c ****  */
 265:C:/Users/stapi/OneDrive/Desktop/GD32VW553/V1_MQTT_OK/GD32VW55X_Wifi_BLE_SDK/GD32VW55x_RELEASE_V1.0.2/MSDK/cloud/alicloud/src/services/shadow\utils_list.c **** void list_iterator_destroy(list_iterator_t *self)
 266:C:/Users/stapi/OneDrive/Desktop/GD32VW553/V1_MQTT_OK/GD32VW55X_Wifi_BLE_SDK/GD32VW55x_RELEASE_V1.0.2/MSDK/cloud/alicloud/src/services/shadow\utils_list.c **** {
 267:C:/Users/stapi/OneDrive/Desktop/GD32VW553/V1_MQTT_OK/GD32VW55X_Wifi_BLE_SDK/GD32VW55x_RELEASE_V1.0.2/MSDK/cloud/alicloud/src/services/shadow\utils_list.c ****     LITE_free(self);
 496              		.loc 1 267 5
 497 0036 2685     		mv	a0,s1
 498 0038 97000000 		call	LITE_free_internal
 498      E7800000 
 499              	.LVL37:
 268:C:/Users/stapi/OneDrive/Desktop/GD32VW553/V1_MQTT_OK/GD32VW55X_Wifi_BLE_SDK/GD32VW55x_RELEASE_V1.0.2/MSDK/cloud/alicloud/src/services/shadow\utils_list.c ****     self = NULL;
 500              		.loc 1 268 5
 501              	.LBE9:
 502              	.LBE8:
 203:C:/Users/stapi/OneDrive/Desktop/GD32VW553/V1_MQTT_OK/GD32VW55X_Wifi_BLE_SDK/GD32VW55x_RELEASE_V1.0.2/MSDK/cloud/alicloud/src/services/shadow\utils_list.c **** }
 503              		.loc 1 203 5
 504              	.L56:
 204:C:/Users/stapi/OneDrive/Desktop/GD32VW553/V1_MQTT_OK/GD32VW55X_Wifi_BLE_SDK/GD32VW55x_RELEASE_V1.0.2/MSDK/cloud/alicloud/src/services/shadow\utils_list.c **** 
 505              		.loc 1 204 1 is_stmt 0
 506 0040 2285     		mv	a0,s0
 507 0042 17030000 		tail	__riscv_restore_4
 507      67000300 
 508              		.cfi_remember_state
 509              		.cfi_restore 19
 510              		.cfi_restore 18
 511              		.cfi_restore 9
 512              		.cfi_restore 8
 513              		.cfi_restore 1
 514              		.cfi_def_cfa_offset 0
 515              	.LVL38:
 516              	.L59:
 517              		.cfi_restore_state
 194:C:/Users/stapi/OneDrive/Desktop/GD32VW553/V1_MQTT_OK/GD32VW55X_Wifi_BLE_SDK/GD32VW55x_RELEASE_V1.0.2/MSDK/cloud/alicloud/src/services/shadow\utils_list.c ****                 list_iterator_destroy(it);
 518              		.loc 1 194 13 is_stmt 1
 194:C:/Users/stapi/OneDrive/Desktop/GD32VW553/V1_MQTT_OK/GD32VW55X_Wifi_BLE_SDK/GD32VW55x_RELEASE_V1.0.2/MSDK/cloud/alicloud/src/services/shadow\utils_list.c ****                 list_iterator_destroy(it);
 519              		.loc 1 194 16 is_stmt 0
 520 004a E38625FF 		beq	a1,s2,.L68
 521              	.L60:
 199:C:/Users/stapi/OneDrive/Desktop/GD32VW553/V1_MQTT_OK/GD32VW55X_Wifi_BLE_SDK/GD32VW55x_RELEASE_V1.0.2/MSDK/cloud/alicloud/src/services/shadow\utils_list.c ****     }
 522              		.loc 1 199 9 is_stmt 1
 199:C:/Users/stapi/OneDrive/Desktop/GD32VW553/V1_MQTT_OK/GD32VW55X_Wifi_BLE_SDK/GD32VW55x_RELEASE_V1.0.2/MSDK/cloud/alicloud/src/services/shadow\utils_list.c ****     }
 523              		.loc 1 199 16 is_stmt 0
 524 004e 2685     		mv	a0,s1
 525 0050 F1B7     		j	.L67
 526              		.cfi_endproc
 527              	.LFE24:
 529              		.section	.text.list_iterator_destroy,"ax",@progbits
 530              		.align	1
 531              		.globl	list_iterator_destroy
 533              	list_iterator_destroy:
 534              	.LFB29:
 266:C:/Users/stapi/OneDrive/Desktop/GD32VW553/V1_MQTT_OK/GD32VW55X_Wifi_BLE_SDK/GD32VW55x_RELEASE_V1.0.2/MSDK/cloud/alicloud/src/services/shadow\utils_list.c ****     LITE_free(self);
 535              		.loc 1 266 1 is_stmt 1
 536              		.cfi_startproc
 537              	.LVL39:
 267:C:/Users/stapi/OneDrive/Desktop/GD32VW553/V1_MQTT_OK/GD32VW55X_Wifi_BLE_SDK/GD32VW55x_RELEASE_V1.0.2/MSDK/cloud/alicloud/src/services/shadow\utils_list.c ****     self = NULL;
 538              		.loc 1 267 5
 539 0000 17030000 		tail	LITE_free_internal
 539      67000300 
 540              	.LVL40:
 541              		.loc 1 268 5
 542              		.cfi_endproc
 543              	.LFE29:
 545              		.section	.text.list_node_new,"ax",@progbits
 546              		.align	1
 547              		.globl	list_node_new
 549              	list_node_new:
 550              	.LFB30:
 269:C:/Users/stapi/OneDrive/Desktop/GD32VW553/V1_MQTT_OK/GD32VW55X_Wifi_BLE_SDK/GD32VW55x_RELEASE_V1.0.2/MSDK/cloud/alicloud/src/services/shadow\utils_list.c **** }
 270:C:/Users/stapi/OneDrive/Desktop/GD32VW553/V1_MQTT_OK/GD32VW55X_Wifi_BLE_SDK/GD32VW55x_RELEASE_V1.0.2/MSDK/cloud/alicloud/src/services/shadow\utils_list.c **** 
 271:C:/Users/stapi/OneDrive/Desktop/GD32VW553/V1_MQTT_OK/GD32VW55X_Wifi_BLE_SDK/GD32VW55x_RELEASE_V1.0.2/MSDK/cloud/alicloud/src/services/shadow\utils_list.c **** /*
 272:C:/Users/stapi/OneDrive/Desktop/GD32VW553/V1_MQTT_OK/GD32VW55X_Wifi_BLE_SDK/GD32VW55x_RELEASE_V1.0.2/MSDK/cloud/alicloud/src/services/shadow\utils_list.c ****  * Allocates a new list_node_t. NULL on failure.
 273:C:/Users/stapi/OneDrive/Desktop/GD32VW553/V1_MQTT_OK/GD32VW55X_Wifi_BLE_SDK/GD32VW55x_RELEASE_V1.0.2/MSDK/cloud/alicloud/src/services/shadow\utils_list.c ****  */
 274:C:/Users/stapi/OneDrive/Desktop/GD32VW553/V1_MQTT_OK/GD32VW55X_Wifi_BLE_SDK/GD32VW55x_RELEASE_V1.0.2/MSDK/cloud/alicloud/src/services/shadow\utils_list.c **** list_node_t *list_node_new(void *val)
 275:C:/Users/stapi/OneDrive/Desktop/GD32VW553/V1_MQTT_OK/GD32VW55X_Wifi_BLE_SDK/GD32VW55x_RELEASE_V1.0.2/MSDK/cloud/alicloud/src/services/shadow\utils_list.c **** {
 551              		.loc 1 275 1
 552              		.cfi_startproc
 553              	.LVL41:
 554 0000 17030000 		call	t0,__riscv_save_1
 554      E7020300 
 555              		.cfi_offset 8, -8
 556              		.cfi_offset 1, -4
 557              		.cfi_def_cfa_offset 16
 276:C:/Users/stapi/OneDrive/Desktop/GD32VW553/V1_MQTT_OK/GD32VW55X_Wifi_BLE_SDK/GD32VW55x_RELEASE_V1.0.2/MSDK/cloud/alicloud/src/services/shadow\utils_list.c ****     list_node_t *self;
 558              		.loc 1 276 5
 277:C:/Users/stapi/OneDrive/Desktop/GD32VW553/V1_MQTT_OK/GD32VW55X_Wifi_BLE_SDK/GD32VW55x_RELEASE_V1.0.2/MSDK/cloud/alicloud/src/services/shadow\utils_list.c ****     self = LITE_malloc(sizeof(list_node_t));
 559              		.loc 1 277 5
 275:C:/Users/stapi/OneDrive/Desktop/GD32VW553/V1_MQTT_OK/GD32VW55X_Wifi_BLE_SDK/GD32VW55x_RELEASE_V1.0.2/MSDK/cloud/alicloud/src/services/shadow\utils_list.c ****     list_node_t *self;
 560              		.loc 1 275 1 is_stmt 0
 561 0008 2A84     		mv	s0,a0
 562              		.loc 1 277 12
 563 000a 3146     		li	a2,12
 564 000c 8145     		li	a1,0
 565 000e 0145     		li	a0,0
 566              	.LVL42:
 567 0010 97000000 		call	LITE_malloc_internal
 567      E7800000 
 568              	.LVL43:
 278:C:/Users/stapi/OneDrive/Desktop/GD32VW553/V1_MQTT_OK/GD32VW55X_Wifi_BLE_SDK/GD32VW55x_RELEASE_V1.0.2/MSDK/cloud/alicloud/src/services/shadow\utils_list.c ****     if (!self) {
 569              		.loc 1 278 5 is_stmt 1
 570              		.loc 1 278 8 is_stmt 0
 571 0018 11C5     		beq	a0,zero,.L71
 279:C:/Users/stapi/OneDrive/Desktop/GD32VW553/V1_MQTT_OK/GD32VW55X_Wifi_BLE_SDK/GD32VW55x_RELEASE_V1.0.2/MSDK/cloud/alicloud/src/services/shadow\utils_list.c ****         return NULL;
 280:C:/Users/stapi/OneDrive/Desktop/GD32VW553/V1_MQTT_OK/GD32VW55X_Wifi_BLE_SDK/GD32VW55x_RELEASE_V1.0.2/MSDK/cloud/alicloud/src/services/shadow\utils_list.c ****     }
 281:C:/Users/stapi/OneDrive/Desktop/GD32VW553/V1_MQTT_OK/GD32VW55X_Wifi_BLE_SDK/GD32VW55x_RELEASE_V1.0.2/MSDK/cloud/alicloud/src/services/shadow\utils_list.c **** 
 282:C:/Users/stapi/OneDrive/Desktop/GD32VW553/V1_MQTT_OK/GD32VW55X_Wifi_BLE_SDK/GD32VW55x_RELEASE_V1.0.2/MSDK/cloud/alicloud/src/services/shadow\utils_list.c ****     self->prev = NULL;
 572              		.loc 1 282 5 is_stmt 1
 573              		.loc 1 282 16 is_stmt 0
 574 001a 23200500 		sw	zero,0(a0)
 283:C:/Users/stapi/OneDrive/Desktop/GD32VW553/V1_MQTT_OK/GD32VW55X_Wifi_BLE_SDK/GD32VW55x_RELEASE_V1.0.2/MSDK/cloud/alicloud/src/services/shadow\utils_list.c ****     self->next = NULL;
 575              		.loc 1 283 5 is_stmt 1
 576              		.loc 1 283 16 is_stmt 0
 577 001e 23220500 		sw	zero,4(a0)
 284:C:/Users/stapi/OneDrive/Desktop/GD32VW553/V1_MQTT_OK/GD32VW55X_Wifi_BLE_SDK/GD32VW55x_RELEASE_V1.0.2/MSDK/cloud/alicloud/src/services/shadow\utils_list.c ****     self->val = val;
 578              		.loc 1 284 5 is_stmt 1
 579              		.loc 1 284 15 is_stmt 0
 580 0022 00C5     		sw	s0,8(a0)
 285:C:/Users/stapi/OneDrive/Desktop/GD32VW553/V1_MQTT_OK/GD32VW55X_Wifi_BLE_SDK/GD32VW55x_RELEASE_V1.0.2/MSDK/cloud/alicloud/src/services/shadow\utils_list.c ****     return self;
 581              		.loc 1 285 5 is_stmt 1
 582              	.L71:
 286:C:/Users/stapi/OneDrive/Desktop/GD32VW553/V1_MQTT_OK/GD32VW55X_Wifi_BLE_SDK/GD32VW55x_RELEASE_V1.0.2/MSDK/cloud/alicloud/src/services/shadow\utils_list.c **** }
 583              		.loc 1 286 1 is_stmt 0
 584 0024 17030000 		tail	__riscv_restore_1
 584      67000300 
 585              		.cfi_restore 8
 586              		.cfi_restore 1
 587              		.cfi_def_cfa_offset 0
 588              		.cfi_endproc
 589              	.LFE30:
 591              		.text
 592              	.Letext0:
 593              		.file 2 "C:/Users/stapi/OneDrive/Desktop/GD32VW553/V1_MQTT_OK/GD32VW55X_Wifi_BLE_SDK/GD32VW55x_REL
 594              		.file 3 "..\\..\\..\\..\\cloud\\alicloud\\src\\infra\\utils/iotx_utils.h"
DEFINED SYMBOLS
                            *ABS*:0000000000000000 utils_list.c
C:\Users\stapi\AppData\Local\Temp\cc1LF0Kh.s:13     .text.list_new:0000000000000000 list_new
C:\Users\stapi\AppData\Local\Temp\cc1LF0Kh.s:17     .text.list_new:0000000000000000 .L0 
C:\Users\stapi\AppData\Local\Temp\cc1LF0Kh.s:18     .text.list_new:0000000000000000 .L0 
C:\Users\stapi\AppData\Local\Temp\cc1LF0Kh.s:19     .text.list_new:0000000000000008 .L0 
C:\Users\stapi\AppData\Local\Temp\cc1LF0Kh.s:20     .text.list_new:0000000000000008 .L0 
C:\Users\stapi\AppData\Local\Temp\cc1LF0Kh.s:22     .text.list_new:0000000000000008 .L0 
C:\Users\stapi\AppData\Local\Temp\cc1LF0Kh.s:23     .text.list_new:0000000000000008 .L0 
C:\Users\stapi\AppData\Local\Temp\cc1LF0Kh.s:24     .text.list_new:0000000000000008 .L0 
C:\Users\stapi\AppData\Local\Temp\cc1LF0Kh.s:30     .text.list_new:0000000000000016 .L0 
C:\Users\stapi\AppData\Local\Temp\cc1LF0Kh.s:31     .text.list_new:0000000000000016 .L0 
C:\Users\stapi\AppData\Local\Temp\cc1LF0Kh.s:33     .text.list_new:0000000000000018 .L0 
C:\Users\stapi\AppData\Local\Temp\cc1LF0Kh.s:34     .text.list_new:0000000000000018 .L0 
C:\Users\stapi\AppData\Local\Temp\cc1LF0Kh.s:36     .text.list_new:000000000000001c .L0 
C:\Users\stapi\AppData\Local\Temp\cc1LF0Kh.s:37     .text.list_new:000000000000001c .L0 
C:\Users\stapi\AppData\Local\Temp\cc1LF0Kh.s:39     .text.list_new:0000000000000020 .L0 
C:\Users\stapi\AppData\Local\Temp\cc1LF0Kh.s:40     .text.list_new:0000000000000020 .L0 
C:\Users\stapi\AppData\Local\Temp\cc1LF0Kh.s:42     .text.list_new:0000000000000024 .L0 
C:\Users\stapi\AppData\Local\Temp\cc1LF0Kh.s:43     .text.list_new:0000000000000024 .L0 
C:\Users\stapi\AppData\Local\Temp\cc1LF0Kh.s:45     .text.list_new:0000000000000028 .L0 
C:\Users\stapi\AppData\Local\Temp\cc1LF0Kh.s:46     .text.list_new:0000000000000028 .L0 
C:\Users\stapi\AppData\Local\Temp\cc1LF0Kh.s:49     .text.list_new:000000000000002c .L0 
C:\Users\stapi\AppData\Local\Temp\cc1LF0Kh.s:50     .text.list_new:000000000000002c .L0 
C:\Users\stapi\AppData\Local\Temp\cc1LF0Kh.s:51     .text.list_new:0000000000000034 .L0 
C:\Users\stapi\AppData\Local\Temp\cc1LF0Kh.s:52     .text.list_new:0000000000000034 .L0 
C:\Users\stapi\AppData\Local\Temp\cc1LF0Kh.s:53     .text.list_new:0000000000000034 .L0 
C:\Users\stapi\AppData\Local\Temp\cc1LF0Kh.s:60     .text.list_destroy:0000000000000000 list_destroy
C:\Users\stapi\AppData\Local\Temp\cc1LF0Kh.s:63     .text.list_destroy:0000000000000000 .L0 
C:\Users\stapi\AppData\Local\Temp\cc1LF0Kh.s:65     .text.list_destroy:0000000000000000 .L0 
C:\Users\stapi\AppData\Local\Temp\cc1LF0Kh.s:66     .text.list_destroy:0000000000000008 .L0 
C:\Users\stapi\AppData\Local\Temp\cc1LF0Kh.s:67     .text.list_destroy:0000000000000008 .L0 
C:\Users\stapi\AppData\Local\Temp\cc1LF0Kh.s:68     .text.list_destroy:0000000000000008 .L0 
C:\Users\stapi\AppData\Local\Temp\cc1LF0Kh.s:69     .text.list_destroy:0000000000000008 .L0 
C:\Users\stapi\AppData\Local\Temp\cc1LF0Kh.s:70     .text.list_destroy:0000000000000008 .L0 
C:\Users\stapi\AppData\Local\Temp\cc1LF0Kh.s:71     .text.list_destroy:0000000000000008 .L0 
C:\Users\stapi\AppData\Local\Temp\cc1LF0Kh.s:73     .text.list_destroy:0000000000000008 .L0 
C:\Users\stapi\AppData\Local\Temp\cc1LF0Kh.s:74     .text.list_destroy:0000000000000008 .L0 
C:\Users\stapi\AppData\Local\Temp\cc1LF0Kh.s:77     .text.list_destroy:000000000000000c .L0 
C:\Users\stapi\AppData\Local\Temp\cc1LF0Kh.s:78     .text.list_destroy:000000000000000c .L0 
C:\Users\stapi\AppData\Local\Temp\cc1LF0Kh.s:79     .text.list_destroy:000000000000000c .L0 
C:\Users\stapi\AppData\Local\Temp\cc1LF0Kh.s:82     .text.list_destroy:000000000000000e .L0 
C:\Users\stapi\AppData\Local\Temp\cc1LF0Kh.s:83     .text.list_destroy:000000000000000e .L0 
C:\Users\stapi\AppData\Local\Temp\cc1LF0Kh.s:87     .text.list_destroy:0000000000000010 .L0 
C:\Users\stapi\AppData\Local\Temp\cc1LF0Kh.s:89     .text.list_destroy:0000000000000014 .L0 
C:\Users\stapi\AppData\Local\Temp\cc1LF0Kh.s:93     .text.list_destroy:000000000000001e .L0 
C:\Users\stapi\AppData\Local\Temp\cc1LF0Kh.s:94     .text.list_destroy:0000000000000026 .L0 
C:\Users\stapi\AppData\Local\Temp\cc1LF0Kh.s:95     .text.list_destroy:0000000000000026 .L0 
C:\Users\stapi\AppData\Local\Temp\cc1LF0Kh.s:96     .text.list_destroy:0000000000000026 .L0 
C:\Users\stapi\AppData\Local\Temp\cc1LF0Kh.s:97     .text.list_destroy:0000000000000026 .L0 
C:\Users\stapi\AppData\Local\Temp\cc1LF0Kh.s:98     .text.list_destroy:0000000000000026 .L0 
C:\Users\stapi\AppData\Local\Temp\cc1LF0Kh.s:99     .text.list_destroy:0000000000000026 .L0 
C:\Users\stapi\AppData\Local\Temp\cc1LF0Kh.s:100    .text.list_destroy:0000000000000026 .L0 
C:\Users\stapi\AppData\Local\Temp\cc1LF0Kh.s:102    .text.list_destroy:0000000000000026 .L0 
C:\Users\stapi\AppData\Local\Temp\cc1LF0Kh.s:104    .text.list_destroy:0000000000000026 .L0 
C:\Users\stapi\AppData\Local\Temp\cc1LF0Kh.s:105    .text.list_destroy:0000000000000026 .L0 
C:\Users\stapi\AppData\Local\Temp\cc1LF0Kh.s:107    .text.list_destroy:0000000000000028 .L0 
C:\Users\stapi\AppData\Local\Temp\cc1LF0Kh.s:110    .text.list_destroy:000000000000002c .L0 
C:\Users\stapi\AppData\Local\Temp\cc1LF0Kh.s:111    .text.list_destroy:000000000000002c .L0 
C:\Users\stapi\AppData\Local\Temp\cc1LF0Kh.s:113    .text.list_destroy:000000000000002e .L0 
C:\Users\stapi\AppData\Local\Temp\cc1LF0Kh.s:118    .text.list_destroy:0000000000000032 .L0 
C:\Users\stapi\AppData\Local\Temp\cc1LF0Kh.s:122    .text.list_destroy:000000000000003c .L0 
C:\Users\stapi\AppData\Local\Temp\cc1LF0Kh.s:125    .text.list_destroy:000000000000003e .L0 
C:\Users\stapi\AppData\Local\Temp\cc1LF0Kh.s:127    .text.list_destroy:0000000000000042 .L0 
C:\Users\stapi\AppData\Local\Temp\cc1LF0Kh.s:134    .text.list_rpush:0000000000000000 list_rpush
C:\Users\stapi\AppData\Local\Temp\cc1LF0Kh.s:137    .text.list_rpush:0000000000000000 .L0 
C:\Users\stapi\AppData\Local\Temp\cc1LF0Kh.s:139    .text.list_rpush:0000000000000000 .L0 
C:\Users\stapi\AppData\Local\Temp\cc1LF0Kh.s:140    .text.list_rpush:0000000000000000 .L0 
C:\Users\stapi\AppData\Local\Temp\cc1LF0Kh.s:141    .text.list_rpush:0000000000000000 .L0 
C:\Users\stapi\AppData\Local\Temp\cc1LF0Kh.s:145    .text.list_rpush:0000000000000004 .L0 
C:\Users\stapi\AppData\Local\Temp\cc1LF0Kh.s:147    .text.list_rpush:0000000000000006 .L0 
C:\Users\stapi\AppData\Local\Temp\cc1LF0Kh.s:148    .text.list_rpush:0000000000000006 .L0 
C:\Users\stapi\AppData\Local\Temp\cc1LF0Kh.s:150    .text.list_rpush:0000000000000008 .L0 
C:\Users\stapi\AppData\Local\Temp\cc1LF0Kh.s:152    .text.list_rpush:000000000000000a .L0 
C:\Users\stapi\AppData\Local\Temp\cc1LF0Kh.s:153    .text.list_rpush:000000000000000a .L0 
C:\Users\stapi\AppData\Local\Temp\cc1LF0Kh.s:155    .text.list_rpush:000000000000000c .L0 
C:\Users\stapi\AppData\Local\Temp\cc1LF0Kh.s:157    .text.list_rpush:0000000000000010 .L0 
C:\Users\stapi\AppData\Local\Temp\cc1LF0Kh.s:159    .text.list_rpush:0000000000000012 .L0 
C:\Users\stapi\AppData\Local\Temp\cc1LF0Kh.s:160    .text.list_rpush:0000000000000012 .L0 
C:\Users\stapi\AppData\Local\Temp\cc1LF0Kh.s:161    .text.list_rpush:0000000000000012 .L0 
C:\Users\stapi\AppData\Local\Temp\cc1LF0Kh.s:163    .text.list_rpush:0000000000000014 .L0 
C:\Users\stapi\AppData\Local\Temp\cc1LF0Kh.s:164    .text.list_rpush:0000000000000014 .L0 
C:\Users\stapi\AppData\Local\Temp\cc1LF0Kh.s:168    .text.list_rpush:0000000000000016 .L0 
C:\Users\stapi\AppData\Local\Temp\cc1LF0Kh.s:172    .text.list_rpush:000000000000001a .L0 
C:\Users\stapi\AppData\Local\Temp\cc1LF0Kh.s:173    .text.list_rpush:000000000000001a .L0 
C:\Users\stapi\AppData\Local\Temp\cc1LF0Kh.s:176    .text.list_rpush:000000000000001c .L0 
C:\Users\stapi\AppData\Local\Temp\cc1LF0Kh.s:177    .text.list_rpush:000000000000001c .L0 
C:\Users\stapi\AppData\Local\Temp\cc1LF0Kh.s:179    .text.list_rpush:000000000000001e .L0 
C:\Users\stapi\AppData\Local\Temp\cc1LF0Kh.s:181    .text.list_rpush:0000000000000020 .L0 
C:\Users\stapi\AppData\Local\Temp\cc1LF0Kh.s:182    .text.list_rpush:0000000000000020 .L0 
C:\Users\stapi\AppData\Local\Temp\cc1LF0Kh.s:184    .text.list_rpush:0000000000000024 .L0 
C:\Users\stapi\AppData\Local\Temp\cc1LF0Kh.s:186    .text.list_rpush:000000000000002a .L0 
C:\Users\stapi\AppData\Local\Temp\cc1LF0Kh.s:193    .text.list_lpush:0000000000000000 list_lpush
C:\Users\stapi\AppData\Local\Temp\cc1LF0Kh.s:196    .text.list_lpush:0000000000000000 .L0 
C:\Users\stapi\AppData\Local\Temp\cc1LF0Kh.s:198    .text.list_lpush:0000000000000000 .L0 
C:\Users\stapi\AppData\Local\Temp\cc1LF0Kh.s:199    .text.list_lpush:0000000000000000 .L0 
C:\Users\stapi\AppData\Local\Temp\cc1LF0Kh.s:200    .text.list_lpush:0000000000000000 .L0 
C:\Users\stapi\AppData\Local\Temp\cc1LF0Kh.s:204    .text.list_lpush:0000000000000004 .L0 
C:\Users\stapi\AppData\Local\Temp\cc1LF0Kh.s:206    .text.list_lpush:0000000000000006 .L0 
C:\Users\stapi\AppData\Local\Temp\cc1LF0Kh.s:207    .text.list_lpush:0000000000000006 .L0 
C:\Users\stapi\AppData\Local\Temp\cc1LF0Kh.s:209    .text.list_lpush:0000000000000008 .L0 
C:\Users\stapi\AppData\Local\Temp\cc1LF0Kh.s:211    .text.list_lpush:000000000000000a .L0 
C:\Users\stapi\AppData\Local\Temp\cc1LF0Kh.s:212    .text.list_lpush:000000000000000a .L0 
C:\Users\stapi\AppData\Local\Temp\cc1LF0Kh.s:214    .text.list_lpush:000000000000000c .L0 
C:\Users\stapi\AppData\Local\Temp\cc1LF0Kh.s:216    .text.list_lpush:0000000000000010 .L0 
C:\Users\stapi\AppData\Local\Temp\cc1LF0Kh.s:218    .text.list_lpush:0000000000000012 .L0 
C:\Users\stapi\AppData\Local\Temp\cc1LF0Kh.s:219    .text.list_lpush:0000000000000012 .L0 
C:\Users\stapi\AppData\Local\Temp\cc1LF0Kh.s:220    .text.list_lpush:0000000000000012 .L0 
C:\Users\stapi\AppData\Local\Temp\cc1LF0Kh.s:222    .text.list_lpush:0000000000000014 .L0 
C:\Users\stapi\AppData\Local\Temp\cc1LF0Kh.s:223    .text.list_lpush:0000000000000014 .L0 
C:\Users\stapi\AppData\Local\Temp\cc1LF0Kh.s:227    .text.list_lpush:0000000000000016 .L0 
C:\Users\stapi\AppData\Local\Temp\cc1LF0Kh.s:231    .text.list_lpush:000000000000001a .L0 
C:\Users\stapi\AppData\Local\Temp\cc1LF0Kh.s:232    .text.list_lpush:000000000000001a .L0 
C:\Users\stapi\AppData\Local\Temp\cc1LF0Kh.s:235    .text.list_lpush:000000000000001c .L0 
C:\Users\stapi\AppData\Local\Temp\cc1LF0Kh.s:236    .text.list_lpush:000000000000001c .L0 
C:\Users\stapi\AppData\Local\Temp\cc1LF0Kh.s:238    .text.list_lpush:000000000000001e .L0 
C:\Users\stapi\AppData\Local\Temp\cc1LF0Kh.s:240    .text.list_lpush:0000000000000020 .L0 
C:\Users\stapi\AppData\Local\Temp\cc1LF0Kh.s:241    .text.list_lpush:0000000000000020 .L0 
C:\Users\stapi\AppData\Local\Temp\cc1LF0Kh.s:243    .text.list_lpush:0000000000000024 .L0 
C:\Users\stapi\AppData\Local\Temp\cc1LF0Kh.s:245    .text.list_lpush:000000000000002a .L0 
C:\Users\stapi\AppData\Local\Temp\cc1LF0Kh.s:252    .text.list_remove:0000000000000000 list_remove
C:\Users\stapi\AppData\Local\Temp\cc1LF0Kh.s:255    .text.list_remove:0000000000000000 .L0 
C:\Users\stapi\AppData\Local\Temp\cc1LF0Kh.s:257    .text.list_remove:0000000000000000 .L0 
C:\Users\stapi\AppData\Local\Temp\cc1LF0Kh.s:258    .text.list_remove:0000000000000008 .L0 
C:\Users\stapi\AppData\Local\Temp\cc1LF0Kh.s:259    .text.list_remove:0000000000000008 .L0 
C:\Users\stapi\AppData\Local\Temp\cc1LF0Kh.s:260    .text.list_remove:0000000000000008 .L0 
C:\Users\stapi\AppData\Local\Temp\cc1LF0Kh.s:261    .text.list_remove:0000000000000008 .L0 
C:\Users\stapi\AppData\Local\Temp\cc1LF0Kh.s:263    .text.list_remove:0000000000000008 .L0 
C:\Users\stapi\AppData\Local\Temp\cc1LF0Kh.s:264    .text.list_remove:0000000000000008 .L0 
C:\Users\stapi\AppData\Local\Temp\cc1LF0Kh.s:266    .text.list_remove:000000000000000a .L0 
C:\Users\stapi\AppData\Local\Temp\cc1LF0Kh.s:268    .text.list_remove:000000000000000c .L0 
C:\Users\stapi\AppData\Local\Temp\cc1LF0Kh.s:271    .text.list_remove:0000000000000010 .L0 
C:\Users\stapi\AppData\Local\Temp\cc1LF0Kh.s:273    .text.list_remove:0000000000000012 .L0 
C:\Users\stapi\AppData\Local\Temp\cc1LF0Kh.s:276    .text.list_remove:0000000000000014 .L0 
C:\Users\stapi\AppData\Local\Temp\cc1LF0Kh.s:277    .text.list_remove:0000000000000014 .L0 
C:\Users\stapi\AppData\Local\Temp\cc1LF0Kh.s:279    .text.list_remove:0000000000000016 .L0 
C:\Users\stapi\AppData\Local\Temp\cc1LF0Kh.s:281    .text.list_remove:0000000000000018 .L0 
C:\Users\stapi\AppData\Local\Temp\cc1LF0Kh.s:284    .text.list_remove:000000000000001a .L0 
C:\Users\stapi\AppData\Local\Temp\cc1LF0Kh.s:285    .text.list_remove:000000000000001a .L0 
C:\Users\stapi\AppData\Local\Temp\cc1LF0Kh.s:287    .text.list_remove:000000000000001c .L0 
C:\Users\stapi\AppData\Local\Temp\cc1LF0Kh.s:289    .text.list_remove:000000000000001e .L0 
C:\Users\stapi\AppData\Local\Temp\cc1LF0Kh.s:295    .text.list_remove:0000000000000022 .L0 
C:\Users\stapi\AppData\Local\Temp\cc1LF0Kh.s:299    .text.list_remove:000000000000002c .L0 
C:\Users\stapi\AppData\Local\Temp\cc1LF0Kh.s:303    .text.list_remove:0000000000000032 .L0 
C:\Users\stapi\AppData\Local\Temp\cc1LF0Kh.s:304    .text.list_remove:000000000000003a .L0 
C:\Users\stapi\AppData\Local\Temp\cc1LF0Kh.s:305    .text.list_remove:000000000000003a .L0 
C:\Users\stapi\AppData\Local\Temp\cc1LF0Kh.s:306    .text.list_remove:000000000000003a .L0 
C:\Users\stapi\AppData\Local\Temp\cc1LF0Kh.s:307    .text.list_remove:000000000000003a .L0 
C:\Users\stapi\AppData\Local\Temp\cc1LF0Kh.s:308    .text.list_remove:000000000000003a .L0 
C:\Users\stapi\AppData\Local\Temp\cc1LF0Kh.s:310    .text.list_remove:000000000000003a .L0 
C:\Users\stapi\AppData\Local\Temp\cc1LF0Kh.s:312    .text.list_remove:000000000000003a .L0 
C:\Users\stapi\AppData\Local\Temp\cc1LF0Kh.s:316    .text.list_remove:000000000000003e .L0 
C:\Users\stapi\AppData\Local\Temp\cc1LF0Kh.s:318    .text.list_remove:0000000000000042 .L0 
C:\Users\stapi\AppData\Local\Temp\cc1LF0Kh.s:325    .text.list_iterator_new_from_node:0000000000000000 list_iterator_new_from_node
C:\Users\stapi\AppData\Local\Temp\cc1LF0Kh.s:328    .text.list_iterator_new_from_node:0000000000000000 .L0 
C:\Users\stapi\AppData\Local\Temp\cc1LF0Kh.s:330    .text.list_iterator_new_from_node:0000000000000000 .L0 
C:\Users\stapi\AppData\Local\Temp\cc1LF0Kh.s:331    .text.list_iterator_new_from_node:0000000000000008 .L0 
C:\Users\stapi\AppData\Local\Temp\cc1LF0Kh.s:332    .text.list_iterator_new_from_node:0000000000000008 .L0 
C:\Users\stapi\AppData\Local\Temp\cc1LF0Kh.s:333    .text.list_iterator_new_from_node:0000000000000008 .L0 
C:\Users\stapi\AppData\Local\Temp\cc1LF0Kh.s:334    .text.list_iterator_new_from_node:0000000000000008 .L0 
C:\Users\stapi\AppData\Local\Temp\cc1LF0Kh.s:336    .text.list_iterator_new_from_node:0000000000000008 .L0 
C:\Users\stapi\AppData\Local\Temp\cc1LF0Kh.s:337    .text.list_iterator_new_from_node:0000000000000008 .L0 
C:\Users\stapi\AppData\Local\Temp\cc1LF0Kh.s:338    .text.list_iterator_new_from_node:0000000000000008 .L0 
C:\Users\stapi\AppData\Local\Temp\cc1LF0Kh.s:341    .text.list_iterator_new_from_node:000000000000000c .L0 
C:\Users\stapi\AppData\Local\Temp\cc1LF0Kh.s:349    .text.list_iterator_new_from_node:000000000000001a .L0 
C:\Users\stapi\AppData\Local\Temp\cc1LF0Kh.s:350    .text.list_iterator_new_from_node:000000000000001a .L0 
C:\Users\stapi\AppData\Local\Temp\cc1LF0Kh.s:352    .text.list_iterator_new_from_node:000000000000001c .L0 
C:\Users\stapi\AppData\Local\Temp\cc1LF0Kh.s:353    .text.list_iterator_new_from_node:000000000000001c .L0 
C:\Users\stapi\AppData\Local\Temp\cc1LF0Kh.s:355    .text.list_iterator_new_from_node:000000000000001e .L0 
C:\Users\stapi\AppData\Local\Temp\cc1LF0Kh.s:356    .text.list_iterator_new_from_node:000000000000001e .L0 
C:\Users\stapi\AppData\Local\Temp\cc1LF0Kh.s:359    .text.list_iterator_new_from_node:0000000000000020 .L0 
C:\Users\stapi\AppData\Local\Temp\cc1LF0Kh.s:360    .text.list_iterator_new_from_node:0000000000000020 .L0 
C:\Users\stapi\AppData\Local\Temp\cc1LF0Kh.s:361    .text.list_iterator_new_from_node:0000000000000028 .L0 
C:\Users\stapi\AppData\Local\Temp\cc1LF0Kh.s:362    .text.list_iterator_new_from_node:0000000000000028 .L0 
C:\Users\stapi\AppData\Local\Temp\cc1LF0Kh.s:363    .text.list_iterator_new_from_node:0000000000000028 .L0 
C:\Users\stapi\AppData\Local\Temp\cc1LF0Kh.s:364    .text.list_iterator_new_from_node:0000000000000028 .L0 
C:\Users\stapi\AppData\Local\Temp\cc1LF0Kh.s:365    .text.list_iterator_new_from_node:0000000000000028 .L0 
C:\Users\stapi\AppData\Local\Temp\cc1LF0Kh.s:372    .text.list_iterator_new:0000000000000000 list_iterator_new
C:\Users\stapi\AppData\Local\Temp\cc1LF0Kh.s:375    .text.list_iterator_new:0000000000000000 .L0 
C:\Users\stapi\AppData\Local\Temp\cc1LF0Kh.s:377    .text.list_iterator_new:0000000000000000 .L0 
C:\Users\stapi\AppData\Local\Temp\cc1LF0Kh.s:378    .text.list_iterator_new:0000000000000000 .L0 
C:\Users\stapi\AppData\Local\Temp\cc1LF0Kh.s:379    .text.list_iterator_new:0000000000000000 .L0 
C:\Users\stapi\AppData\Local\Temp\cc1LF0Kh.s:381    .text.list_iterator_new:0000000000000002 .L0 
C:\Users\stapi\AppData\Local\Temp\cc1LF0Kh.s:385    .text.list_iterator_new:0000000000000004 .L0 
C:\Users\stapi\AppData\Local\Temp\cc1LF0Kh.s:386    .text.list_iterator_new:0000000000000004 .L0 
C:\Users\stapi\AppData\Local\Temp\cc1LF0Kh.s:390    .text.list_iterator_new:000000000000000c .L0 
C:\Users\stapi\AppData\Local\Temp\cc1LF0Kh.s:393    .text.list_iterator_new:0000000000000010 .L0 
C:\Users\stapi\AppData\Local\Temp\cc1LF0Kh.s:400    .text.list_iterator_next:0000000000000000 list_iterator_next
C:\Users\stapi\AppData\Local\Temp\cc1LF0Kh.s:403    .text.list_iterator_next:0000000000000000 .L0 
C:\Users\stapi\AppData\Local\Temp\cc1LF0Kh.s:405    .text.list_iterator_next:0000000000000000 .L0 
C:\Users\stapi\AppData\Local\Temp\cc1LF0Kh.s:406    .text.list_iterator_next:0000000000000000 .L0 
C:\Users\stapi\AppData\Local\Temp\cc1LF0Kh.s:407    .text.list_iterator_next:0000000000000000 .L0 
C:\Users\stapi\AppData\Local\Temp\cc1LF0Kh.s:409    .text.list_iterator_next:0000000000000002 .L0 
C:\Users\stapi\AppData\Local\Temp\cc1LF0Kh.s:412    .text.list_iterator_next:0000000000000004 .L0 
C:\Users\stapi\AppData\Local\Temp\cc1LF0Kh.s:413    .text.list_iterator_next:0000000000000004 .L0 
C:\Users\stapi\AppData\Local\Temp\cc1LF0Kh.s:415    .text.list_iterator_next:0000000000000006 .L0 
C:\Users\stapi\AppData\Local\Temp\cc1LF0Kh.s:416    .text.list_iterator_next:0000000000000006 .L0 
C:\Users\stapi\AppData\Local\Temp\cc1LF0Kh.s:419    .text.list_iterator_next:000000000000000a .L0 
C:\Users\stapi\AppData\Local\Temp\cc1LF0Kh.s:422    .text.list_iterator_next:000000000000000c .L0 
C:\Users\stapi\AppData\Local\Temp\cc1LF0Kh.s:425    .text.list_iterator_next:000000000000000e .L0 
C:\Users\stapi\AppData\Local\Temp\cc1LF0Kh.s:426    .text.list_iterator_next:000000000000000e .L0 
C:\Users\stapi\AppData\Local\Temp\cc1LF0Kh.s:429    .text.list_iterator_next:0000000000000010 .L0 
C:\Users\stapi\AppData\Local\Temp\cc1LF0Kh.s:431    .text.list_iterator_next:0000000000000014 .L0 
C:\Users\stapi\AppData\Local\Temp\cc1LF0Kh.s:438    .text.list_find:0000000000000000 list_find
C:\Users\stapi\AppData\Local\Temp\cc1LF0Kh.s:441    .text.list_find:0000000000000000 .L0 
C:\Users\stapi\AppData\Local\Temp\cc1LF0Kh.s:443    .text.list_find:0000000000000000 .L0 
C:\Users\stapi\AppData\Local\Temp\cc1LF0Kh.s:444    .text.list_find:0000000000000008 .L0 
C:\Users\stapi\AppData\Local\Temp\cc1LF0Kh.s:445    .text.list_find:0000000000000008 .L0 
C:\Users\stapi\AppData\Local\Temp\cc1LF0Kh.s:446    .text.list_find:0000000000000008 .L0 
C:\Users\stapi\AppData\Local\Temp\cc1LF0Kh.s:447    .text.list_find:0000000000000008 .L0 
C:\Users\stapi\AppData\Local\Temp\cc1LF0Kh.s:448    .text.list_find:0000000000000008 .L0 
C:\Users\stapi\AppData\Local\Temp\cc1LF0Kh.s:449    .text.list_find:0000000000000008 .L0 
C:\Users\stapi\AppData\Local\Temp\cc1LF0Kh.s:451    .text.list_find:0000000000000008 .L0 
C:\Users\stapi\AppData\Local\Temp\cc1LF0Kh.s:452    .text.list_find:0000000000000008 .L0 
C:\Users\stapi\AppData\Local\Temp\cc1LF0Kh.s:453    .text.list_find:0000000000000008 .L0 
C:\Users\stapi\AppData\Local\Temp\cc1LF0Kh.s:454    .text.list_find:0000000000000008 .L0 
C:\Users\stapi\AppData\Local\Temp\cc1LF0Kh.s:456    .text.list_find:000000000000000a .L0 
C:\Users\stapi\AppData\Local\Temp\cc1LF0Kh.s:459    .text.list_find:000000000000000c .L0 
C:\Users\stapi\AppData\Local\Temp\cc1LF0Kh.s:461    .text.list_find:000000000000000e .L0 
C:\Users\stapi\AppData\Local\Temp\cc1LF0Kh.s:464    .text.list_find:0000000000000016 .L0 
C:\Users\stapi\AppData\Local\Temp\cc1LF0Kh.s:466    .text.list_find:0000000000000018 .L0 
C:\Users\stapi\AppData\Local\Temp\cc1LF0Kh.s:470    .text.list_find:000000000000001c .L0 
C:\Users\stapi\AppData\Local\Temp\cc1LF0Kh.s:471    .text.list_find:000000000000001c .L0 
C:\Users\stapi\AppData\Local\Temp\cc1LF0Kh.s:476    .text.list_find:0000000000000026 .L0 
C:\Users\stapi\AppData\Local\Temp\cc1LF0Kh.s:478    .text.list_find:0000000000000028 .L0 
C:\Users\stapi\AppData\Local\Temp\cc1LF0Kh.s:479    .text.list_find:0000000000000028 .L0 
C:\Users\stapi\AppData\Local\Temp\cc1LF0Kh.s:481    .text.list_find:000000000000002c .L0 
C:\Users\stapi\AppData\Local\Temp\cc1LF0Kh.s:483    .text.list_find:000000000000002e .L0 
C:\Users\stapi\AppData\Local\Temp\cc1LF0Kh.s:485    .text.list_find:0000000000000030 .L0 
C:\Users\stapi\AppData\Local\Temp\cc1LF0Kh.s:486    .text.list_find:0000000000000030 .L0 
C:\Users\stapi\AppData\Local\Temp\cc1LF0Kh.s:490    .text.list_find:0000000000000034 .L0 
C:\Users\stapi\AppData\Local\Temp\cc1LF0Kh.s:496    .text.list_find:0000000000000036 .L0 
C:\Users\stapi\AppData\Local\Temp\cc1LF0Kh.s:497    .text.list_find:0000000000000036 .L0 
C:\Users\stapi\AppData\Local\Temp\cc1LF0Kh.s:503    .text.list_find:0000000000000040 .L0 
C:\Users\stapi\AppData\Local\Temp\cc1LF0Kh.s:505    .text.list_find:0000000000000040 .L0 
C:\Users\stapi\AppData\Local\Temp\cc1LF0Kh.s:506    .text.list_find:0000000000000040 .L0 
C:\Users\stapi\AppData\Local\Temp\cc1LF0Kh.s:508    .text.list_find:000000000000004a .L0 
C:\Users\stapi\AppData\Local\Temp\cc1LF0Kh.s:509    .text.list_find:000000000000004a .L0 
C:\Users\stapi\AppData\Local\Temp\cc1LF0Kh.s:510    .text.list_find:000000000000004a .L0 
C:\Users\stapi\AppData\Local\Temp\cc1LF0Kh.s:511    .text.list_find:000000000000004a .L0 
C:\Users\stapi\AppData\Local\Temp\cc1LF0Kh.s:512    .text.list_find:000000000000004a .L0 
C:\Users\stapi\AppData\Local\Temp\cc1LF0Kh.s:513    .text.list_find:000000000000004a .L0 
C:\Users\stapi\AppData\Local\Temp\cc1LF0Kh.s:514    .text.list_find:000000000000004a .L0 
C:\Users\stapi\AppData\Local\Temp\cc1LF0Kh.s:517    .text.list_find:000000000000004a .L0 
C:\Users\stapi\AppData\Local\Temp\cc1LF0Kh.s:519    .text.list_find:000000000000004a .L0 
C:\Users\stapi\AppData\Local\Temp\cc1LF0Kh.s:520    .text.list_find:000000000000004a .L0 
C:\Users\stapi\AppData\Local\Temp\cc1LF0Kh.s:523    .text.list_find:000000000000004e .L0 
C:\Users\stapi\AppData\Local\Temp\cc1LF0Kh.s:524    .text.list_find:000000000000004e .L0 
C:\Users\stapi\AppData\Local\Temp\cc1LF0Kh.s:526    .text.list_find:0000000000000052 .L0 
C:\Users\stapi\AppData\Local\Temp\cc1LF0Kh.s:533    .text.list_iterator_destroy:0000000000000000 list_iterator_destroy
C:\Users\stapi\AppData\Local\Temp\cc1LF0Kh.s:536    .text.list_iterator_destroy:0000000000000000 .L0 
C:\Users\stapi\AppData\Local\Temp\cc1LF0Kh.s:538    .text.list_iterator_destroy:0000000000000000 .L0 
C:\Users\stapi\AppData\Local\Temp\cc1LF0Kh.s:539    .text.list_iterator_destroy:0000000000000000 .L0 
C:\Users\stapi\AppData\Local\Temp\cc1LF0Kh.s:542    .text.list_iterator_destroy:0000000000000008 .L0 
C:\Users\stapi\AppData\Local\Temp\cc1LF0Kh.s:549    .text.list_node_new:0000000000000000 list_node_new
C:\Users\stapi\AppData\Local\Temp\cc1LF0Kh.s:551    .text.list_node_new:0000000000000000 .L0 
C:\Users\stapi\AppData\Local\Temp\cc1LF0Kh.s:552    .text.list_node_new:0000000000000000 .L0 
C:\Users\stapi\AppData\Local\Temp\cc1LF0Kh.s:554    .text.list_node_new:0000000000000000 .L0 
C:\Users\stapi\AppData\Local\Temp\cc1LF0Kh.s:555    .text.list_node_new:0000000000000008 .L0 
C:\Users\stapi\AppData\Local\Temp\cc1LF0Kh.s:556    .text.list_node_new:0000000000000008 .L0 
C:\Users\stapi\AppData\Local\Temp\cc1LF0Kh.s:557    .text.list_node_new:0000000000000008 .L0 
C:\Users\stapi\AppData\Local\Temp\cc1LF0Kh.s:559    .text.list_node_new:0000000000000008 .L0 
C:\Users\stapi\AppData\Local\Temp\cc1LF0Kh.s:560    .text.list_node_new:0000000000000008 .L0 
C:\Users\stapi\AppData\Local\Temp\cc1LF0Kh.s:561    .text.list_node_new:0000000000000008 .L0 
C:\Users\stapi\AppData\Local\Temp\cc1LF0Kh.s:563    .text.list_node_new:000000000000000a .L0 
C:\Users\stapi\AppData\Local\Temp\cc1LF0Kh.s:570    .text.list_node_new:0000000000000018 .L0 
C:\Users\stapi\AppData\Local\Temp\cc1LF0Kh.s:571    .text.list_node_new:0000000000000018 .L0 
C:\Users\stapi\AppData\Local\Temp\cc1LF0Kh.s:573    .text.list_node_new:000000000000001a .L0 
C:\Users\stapi\AppData\Local\Temp\cc1LF0Kh.s:574    .text.list_node_new:000000000000001a .L0 
C:\Users\stapi\AppData\Local\Temp\cc1LF0Kh.s:576    .text.list_node_new:000000000000001e .L0 
C:\Users\stapi\AppData\Local\Temp\cc1LF0Kh.s:577    .text.list_node_new:000000000000001e .L0 
C:\Users\stapi\AppData\Local\Temp\cc1LF0Kh.s:579    .text.list_node_new:0000000000000022 .L0 
C:\Users\stapi\AppData\Local\Temp\cc1LF0Kh.s:580    .text.list_node_new:0000000000000022 .L0 
C:\Users\stapi\AppData\Local\Temp\cc1LF0Kh.s:583    .text.list_node_new:0000000000000024 .L0 
C:\Users\stapi\AppData\Local\Temp\cc1LF0Kh.s:584    .text.list_node_new:0000000000000024 .L0 
C:\Users\stapi\AppData\Local\Temp\cc1LF0Kh.s:585    .text.list_node_new:000000000000002c .L0 
C:\Users\stapi\AppData\Local\Temp\cc1LF0Kh.s:586    .text.list_node_new:000000000000002c .L0 
C:\Users\stapi\AppData\Local\Temp\cc1LF0Kh.s:587    .text.list_node_new:000000000000002c .L0 
C:\Users\stapi\AppData\Local\Temp\cc1LF0Kh.s:588    .text.list_node_new:000000000000002c .L0 
C:\Users\stapi\AppData\Local\Temp\cc1LF0Kh.s:56     .text.list_new:0000000000000034 .L0 
C:\Users\stapi\AppData\Local\Temp\cc1LF0Kh.s:130    .text.list_destroy:0000000000000042 .L0 
C:\Users\stapi\AppData\Local\Temp\cc1LF0Kh.s:189    .text.list_rpush:000000000000002a .L0 
C:\Users\stapi\AppData\Local\Temp\cc1LF0Kh.s:248    .text.list_lpush:000000000000002a .L0 
C:\Users\stapi\AppData\Local\Temp\cc1LF0Kh.s:321    .text.list_remove:0000000000000042 .L0 
C:\Users\stapi\AppData\Local\Temp\cc1LF0Kh.s:368    .text.list_iterator_new_from_node:0000000000000028 .L0 
C:\Users\stapi\AppData\Local\Temp\cc1LF0Kh.s:396    .text.list_iterator_new:0000000000000010 .L0 
C:\Users\stapi\AppData\Local\Temp\cc1LF0Kh.s:434    .text.list_iterator_next:0000000000000014 .L0 
C:\Users\stapi\AppData\Local\Temp\cc1LF0Kh.s:529    .text.list_find:0000000000000052 .L0 
C:\Users\stapi\AppData\Local\Temp\cc1LF0Kh.s:545    .text.list_iterator_destroy:0000000000000008 .L0 
C:\Users\stapi\AppData\Local\Temp\cc1LF0Kh.s:591    .text.list_node_new:000000000000002c .L0 
                     .debug_frame:0000000000000000 .L0 
C:\Users\stapi\AppData\Local\Temp\cc1LF0Kh.s:48     .text.list_new:000000000000002c .L1
C:\Users\stapi\AppData\Local\Temp\cc1LF0Kh.s:101    .text.list_destroy:0000000000000026 .L10
C:\Users\stapi\AppData\Local\Temp\cc1LF0Kh.s:116    .text.list_destroy:0000000000000032 .L9
C:\Users\stapi\AppData\Local\Temp\cc1LF0Kh.s:85     .text.list_destroy:0000000000000010 .L8
C:\Users\stapi\AppData\Local\Temp\cc1LF0Kh.s:171    .text.list_rpush:000000000000001a .L16
C:\Users\stapi\AppData\Local\Temp\cc1LF0Kh.s:174    .text.list_rpush:000000000000001c .L17
C:\Users\stapi\AppData\Local\Temp\cc1LF0Kh.s:166    .text.list_rpush:0000000000000016 .L18
C:\Users\stapi\AppData\Local\Temp\cc1LF0Kh.s:230    .text.list_lpush:000000000000001a .L23
C:\Users\stapi\AppData\Local\Temp\cc1LF0Kh.s:233    .text.list_lpush:000000000000001c .L24
C:\Users\stapi\AppData\Local\Temp\cc1LF0Kh.s:225    .text.list_lpush:0000000000000016 .L25
C:\Users\stapi\AppData\Local\Temp\cc1LF0Kh.s:309    .text.list_remove:000000000000003a .L30
C:\Users\stapi\AppData\Local\Temp\cc1LF0Kh.s:314    .text.list_remove:000000000000003e .L32
C:\Users\stapi\AppData\Local\Temp\cc1LF0Kh.s:293    .text.list_remove:0000000000000022 .L34
C:\Users\stapi\AppData\Local\Temp\cc1LF0Kh.s:274    .text.list_remove:0000000000000014 .L31
C:\Users\stapi\AppData\Local\Temp\cc1LF0Kh.s:282    .text.list_remove:000000000000001a .L33
C:\Users\stapi\AppData\Local\Temp\cc1LF0Kh.s:358    .text.list_iterator_new_from_node:0000000000000020 .L39
C:\Users\stapi\AppData\Local\Temp\cc1LF0Kh.s:388    .text.list_iterator_new:000000000000000c .L46
C:\Users\stapi\AppData\Local\Temp\cc1LF0Kh.s:383    .text.list_iterator_new:0000000000000004 .L47
C:\Users\stapi\AppData\Local\Temp\cc1LF0Kh.s:424    .text.list_iterator_next:000000000000000e .L49
C:\Users\stapi\AppData\Local\Temp\cc1LF0Kh.s:427    .text.list_iterator_next:0000000000000010 .L51
C:\Users\stapi\AppData\Local\Temp\cc1LF0Kh.s:420    .text.list_iterator_next:000000000000000c .L52
C:\Users\stapi\AppData\Local\Temp\cc1LF0Kh.s:504    .text.list_find:0000000000000040 .L56
C:\Users\stapi\AppData\Local\Temp\cc1LF0Kh.s:491    .text.list_find:0000000000000036 .L68
C:\Users\stapi\AppData\Local\Temp\cc1LF0Kh.s:516    .text.list_find:000000000000004a .L59
C:\Users\stapi\AppData\Local\Temp\cc1LF0Kh.s:521    .text.list_find:000000000000004e .L60
C:\Users\stapi\AppData\Local\Temp\cc1LF0Kh.s:469    .text.list_find:000000000000001c .L67
C:\Users\stapi\AppData\Local\Temp\cc1LF0Kh.s:582    .text.list_node_new:0000000000000024 .L71
C:\Users\stapi\AppData\Local\Temp\cc1LF0Kh.s:1310   .debug_abbrev:0000000000000000 .Ldebug_abbrev0
C:\Users\stapi\AppData\Local\Temp\cc1LF0Kh.s:2277   .debug_str:00000000000002a7 .LASF40
C:\Users\stapi\AppData\Local\Temp\cc1LF0Kh.s:2241   .debug_str:000000000000015b .LASF41
C:\Users\stapi\AppData\Local\Temp\cc1LF0Kh.s:2217   .debug_str:0000000000000038 .LASF42
C:\Users\stapi\AppData\Local\Temp\cc1LF0Kh.s:2179   .debug_ranges:0000000000000000 .Ldebug_ranges0
C:\Users\stapi\AppData\Local\Temp\cc1LF0Kh.s:2205   .debug_line:0000000000000000 .Ldebug_line0
C:\Users\stapi\AppData\Local\Temp\cc1LF0Kh.s:2291   .debug_str:00000000000003dc .LASF0
C:\Users\stapi\AppData\Local\Temp\cc1LF0Kh.s:2231   .debug_str:0000000000000122 .LASF1
C:\Users\stapi\AppData\Local\Temp\cc1LF0Kh.s:2245   .debug_str:00000000000001fc .LASF2
C:\Users\stapi\AppData\Local\Temp\cc1LF0Kh.s:2219   .debug_str:00000000000000c9 .LASF3
C:\Users\stapi\AppData\Local\Temp\cc1LF0Kh.s:2287   .debug_str:00000000000003c7 .LASF4
C:\Users\stapi\AppData\Local\Temp\cc1LF0Kh.s:2235   .debug_str:0000000000000136 .LASF5
C:\Users\stapi\AppData\Local\Temp\cc1LF0Kh.s:2269   .debug_str:000000000000027d .LASF6
C:\Users\stapi\AppData\Local\Temp\cc1LF0Kh.s:2229   .debug_str:000000000000010b .LASF7
C:\Users\stapi\AppData\Local\Temp\cc1LF0Kh.s:2223   .debug_str:00000000000000e9 .LASF8
C:\Users\stapi\AppData\Local\Temp\cc1LF0Kh.s:2261   .debug_str:000000000000024d .LASF9
C:\Users\stapi\AppData\Local\Temp\cc1LF0Kh.s:2243   .debug_str:00000000000001f5 .LASF10
C:\Users\stapi\AppData\Local\Temp\cc1LF0Kh.s:2215   .debug_str:0000000000000029 .LASF11
C:\Users\stapi\AppData\Local\Temp\cc1LF0Kh.s:2295   .debug_str:00000000000003fb .LASF12
C:\Users\stapi\AppData\Local\Temp\cc1LF0Kh.s:2253   .debug_str:000000000000021e .LASF15
C:\Users\stapi\AppData\Local\Temp\cc1LF0Kh.s:2207   .debug_str:0000000000000000 .LASF43
C:\Users\stapi\AppData\Local\Temp\cc1LF0Kh.s:2271   .debug_str:000000000000028b .LASF13
C:\Users\stapi\AppData\Local\Temp\cc1LF0Kh.s:2209   .debug_str:000000000000000a .LASF14
C:\Users\stapi\AppData\Local\Temp\cc1LF0Kh.s:2289   .debug_str:00000000000003d0 .LASF16
C:\Users\stapi\AppData\Local\Temp\cc1LF0Kh.s:2247   .debug_str:0000000000000206 .LASF17
C:\Users\stapi\AppData\Local\Temp\cc1LF0Kh.s:2281   .debug_str:00000000000003a1 .LASF18
C:\Users\stapi\AppData\Local\Temp\cc1LF0Kh.s:2267   .debug_str:0000000000000278 .LASF19
C:\Users\stapi\AppData\Local\Temp\cc1LF0Kh.s:2233   .debug_str:0000000000000130 .LASF20
C:\Users\stapi\AppData\Local\Temp\cc1LF0Kh.s:2257   .debug_str:0000000000000234 .LASF21
C:\Users\stapi\AppData\Local\Temp\cc1LF0Kh.s:2225   .debug_str:00000000000000f6 .LASF22
C:\Users\stapi\AppData\Local\Temp\cc1LF0Kh.s:2265   .debug_str:0000000000000268 .LASF23
C:\Users\stapi\AppData\Local\Temp\cc1LF0Kh.s:2239   .debug_str:000000000000014d .LASF24
C:\Users\stapi\AppData\Local\Temp\cc1LF0Kh.s:550    .text.list_node_new:0000000000000000 .LFB30
C:\Users\stapi\AppData\Local\Temp\cc1LF0Kh.s:589    .text.list_node_new:000000000000002c .LFE30
C:\Users\stapi\AppData\Local\Temp\cc1LF0Kh.s:1878   .debug_loc:0000000000000000 .LLST21
C:\Users\stapi\AppData\Local\Temp\cc1LF0Kh.s:2255   .debug_str:000000000000022f .LASF26
C:\Users\stapi\AppData\Local\Temp\cc1LF0Kh.s:568    .text.list_node_new:0000000000000018 .LVL43
C:\Users\stapi\AppData\Local\Temp\cc1LF0Kh.s:2263   .debug_str:0000000000000252 .LASF44
C:\Users\stapi\AppData\Local\Temp\cc1LF0Kh.s:2279   .debug_str:000000000000038e .LASF25
C:\Users\stapi\AppData\Local\Temp\cc1LF0Kh.s:401    .text.list_iterator_next:0000000000000000 .LFB28
C:\Users\stapi\AppData\Local\Temp\cc1LF0Kh.s:432    .text.list_iterator_next:0000000000000014 .LFE28
C:\Users\stapi\AppData\Local\Temp\cc1LF0Kh.s:1889   .debug_loc:000000000000001e .LLST14
C:\Users\stapi\AppData\Local\Temp\cc1LF0Kh.s:2211   .debug_str:000000000000000f .LASF27
C:\Users\stapi\AppData\Local\Temp\cc1LF0Kh.s:2285   .debug_str:00000000000003ab .LASF28
C:\Users\stapi\AppData\Local\Temp\cc1LF0Kh.s:326    .text.list_iterator_new_from_node:0000000000000000 .LFB27
C:\Users\stapi\AppData\Local\Temp\cc1LF0Kh.s:366    .text.list_iterator_new_from_node:0000000000000028 .LFE27
C:\Users\stapi\AppData\Local\Temp\cc1LF0Kh.s:2283   .debug_str:00000000000003a6 .LASF29
C:\Users\stapi\AppData\Local\Temp\cc1LF0Kh.s:1900   .debug_loc:000000000000003c .LLST9
C:\Users\stapi\AppData\Local\Temp\cc1LF0Kh.s:1911   .debug_loc:000000000000005a .LLST10
C:\Users\stapi\AppData\Local\Temp\cc1LF0Kh.s:347    .text.list_iterator_new_from_node:000000000000001a .LVL23
C:\Users\stapi\AppData\Local\Temp\cc1LF0Kh.s:2259   .debug_str:000000000000023b .LASF30
C:\Users\stapi\AppData\Local\Temp\cc1LF0Kh.s:373    .text.list_iterator_new:0000000000000000 .LFB26
C:\Users\stapi\AppData\Local\Temp\cc1LF0Kh.s:394    .text.list_iterator_new:0000000000000010 .LFE26
C:\Users\stapi\AppData\Local\Temp\cc1LF0Kh.s:2237   .debug_str:0000000000000148 .LASF31
C:\Users\stapi\AppData\Local\Temp\cc1LF0Kh.s:1922   .debug_loc:0000000000000078 .LLST11
C:\Users\stapi\AppData\Local\Temp\cc1LF0Kh.s:1947   .debug_loc:00000000000000b2 .LLST12
C:\Users\stapi\AppData\Local\Temp\cc1LF0Kh.s:1965   .debug_loc:00000000000000de .LLST13
C:\Users\stapi\AppData\Local\Temp\cc1LF0Kh.s:387    .text.list_iterator_new:000000000000000c .LVL26
C:\Users\stapi\AppData\Local\Temp\cc1LF0Kh.s:2273   .debug_str:0000000000000290 .LASF35
C:\Users\stapi\AppData\Local\Temp\cc1LF0Kh.s:253    .text.list_remove:0000000000000000 .LFB25
C:\Users\stapi\AppData\Local\Temp\cc1LF0Kh.s:319    .text.list_remove:0000000000000042 .LFE25
C:\Users\stapi\AppData\Local\Temp\cc1LF0Kh.s:1972   .debug_loc:00000000000000f1 .LLST7
C:\Users\stapi\AppData\Local\Temp\cc1LF0Kh.s:1983   .debug_loc:000000000000010f .LLST8
C:\Users\stapi\AppData\Local\Temp\cc1LF0Kh.s:297    .text.list_remove:000000000000002c .LVL19
C:\Users\stapi\AppData\Local\Temp\cc1LF0Kh.s:2249   .debug_str:000000000000020b .LASF32
C:\Users\stapi\AppData\Local\Temp\cc1LF0Kh.s:439    .text.list_find:0000000000000000 .LFB24
C:\Users\stapi\AppData\Local\Temp\cc1LF0Kh.s:527    .text.list_find:0000000000000052 .LFE24
C:\Users\stapi\AppData\Local\Temp\cc1LF0Kh.s:1994   .debug_loc:000000000000012d .LLST15
C:\Users\stapi\AppData\Local\Temp\cc1LF0Kh.s:2005   .debug_loc:000000000000014b .LLST16
C:\Users\stapi\AppData\Local\Temp\cc1LF0Kh.s:2016   .debug_loc:0000000000000169 .LLST17
C:\Users\stapi\AppData\Local\Temp\cc1LF0Kh.s:2031   .debug_loc:0000000000000192 .LLST18
C:\Users\stapi\AppData\Local\Temp\cc1LF0Kh.s:494    .text.list_find:0000000000000036 .LBB8
C:\Users\stapi\AppData\Local\Temp\cc1LF0Kh.s:502    .text.list_find:0000000000000040 .LBE8
C:\Users\stapi\AppData\Local\Temp\cc1LF0Kh.s:2042   .debug_loc:00000000000001b0 .LLST19
C:\Users\stapi\AppData\Local\Temp\cc1LF0Kh.s:499    .text.list_find:0000000000000040 .LVL37
C:\Users\stapi\AppData\Local\Temp\cc1LF0Kh.s:462    .text.list_find:0000000000000016 .LVL32
C:\Users\stapi\AppData\Local\Temp\cc1LF0Kh.s:472    .text.list_find:0000000000000024 .LVL33
C:\Users\stapi\AppData\Local\Temp\cc1LF0Kh.s:488    .text.list_find:0000000000000034 .LVL35
C:\Users\stapi\AppData\Local\Temp\cc1LF0Kh.s:2275   .debug_str:000000000000029c .LASF33
C:\Users\stapi\AppData\Local\Temp\cc1LF0Kh.s:194    .text.list_lpush:0000000000000000 .LFB23
C:\Users\stapi\AppData\Local\Temp\cc1LF0Kh.s:246    .text.list_lpush:000000000000002a .LFE23
C:\Users\stapi\AppData\Local\Temp\cc1LF0Kh.s:2049   .debug_loc:00000000000001c3 .LLST5
C:\Users\stapi\AppData\Local\Temp\cc1LF0Kh.s:2060   .debug_loc:00000000000001e1 .LLST6
C:\Users\stapi\AppData\Local\Temp\cc1LF0Kh.s:2227   .debug_str:0000000000000100 .LASF34
C:\Users\stapi\AppData\Local\Temp\cc1LF0Kh.s:135    .text.list_rpush:0000000000000000 .LFB22
C:\Users\stapi\AppData\Local\Temp\cc1LF0Kh.s:187    .text.list_rpush:000000000000002a .LFE22
C:\Users\stapi\AppData\Local\Temp\cc1LF0Kh.s:2071   .debug_loc:00000000000001ff .LLST3
C:\Users\stapi\AppData\Local\Temp\cc1LF0Kh.s:2082   .debug_loc:000000000000021d .LLST4
C:\Users\stapi\AppData\Local\Temp\cc1LF0Kh.s:2221   .debug_str:00000000000000dc .LASF36
C:\Users\stapi\AppData\Local\Temp\cc1LF0Kh.s:61     .text.list_destroy:0000000000000000 .LFB21
C:\Users\stapi\AppData\Local\Temp\cc1LF0Kh.s:128    .text.list_destroy:0000000000000042 .LFE21
C:\Users\stapi\AppData\Local\Temp\cc1LF0Kh.s:2093   .debug_loc:000000000000023b .LLST0
C:\Users\stapi\AppData\Local\Temp\cc1LF0Kh.s:2104   .debug_loc:0000000000000259 .LLST1
C:\Users\stapi\AppData\Local\Temp\cc1LF0Kh.s:2121   .debug_loc:0000000000000284 .LLST2
C:\Users\stapi\AppData\Local\Temp\cc1LF0Kh.s:91     .text.list_destroy:000000000000001e .LVL5
C:\Users\stapi\AppData\Local\Temp\cc1LF0Kh.s:120    .text.list_destroy:000000000000003c .LVL8
C:\Users\stapi\AppData\Local\Temp\cc1LF0Kh.s:2251   .debug_str:0000000000000215 .LASF37
C:\Users\stapi\AppData\Local\Temp\cc1LF0Kh.s:14     .text.list_new:0000000000000000 .LFB20
C:\Users\stapi\AppData\Local\Temp\cc1LF0Kh.s:54     .text.list_new:0000000000000034 .LFE20
C:\Users\stapi\AppData\Local\Temp\cc1LF0Kh.s:28     .text.list_new:0000000000000016 .LVL0
C:\Users\stapi\AppData\Local\Temp\cc1LF0Kh.s:534    .text.list_iterator_destroy:0000000000000000 .LFB29
C:\Users\stapi\AppData\Local\Temp\cc1LF0Kh.s:543    .text.list_iterator_destroy:0000000000000008 .LFE29
C:\Users\stapi\AppData\Local\Temp\cc1LF0Kh.s:2132   .debug_loc:00000000000002a2 .LLST20
C:\Users\stapi\AppData\Local\Temp\cc1LF0Kh.s:540    .text.list_iterator_destroy:0000000000000008 .LVL40
C:\Users\stapi\AppData\Local\Temp\cc1LF0Kh.s:2213   .debug_str:0000000000000014 .LASF38
C:\Users\stapi\AppData\Local\Temp\cc1LF0Kh.s:2293   .debug_str:00000000000003e8 .LASF39
C:\Users\stapi\AppData\Local\Temp\cc1LF0Kh.s:553    .text.list_node_new:0000000000000000 .LVL41
C:\Users\stapi\AppData\Local\Temp\cc1LF0Kh.s:566    .text.list_node_new:0000000000000010 .LVL42
C:\Users\stapi\AppData\Local\Temp\cc1LF0Kh.s:404    .text.list_iterator_next:0000000000000000 .LVL28
C:\Users\stapi\AppData\Local\Temp\cc1LF0Kh.s:410    .text.list_iterator_next:0000000000000004 .LVL29
C:\Users\stapi\AppData\Local\Temp\cc1LF0Kh.s:329    .text.list_iterator_new_from_node:0000000000000000 .LVL20
C:\Users\stapi\AppData\Local\Temp\cc1LF0Kh.s:345    .text.list_iterator_new_from_node:0000000000000012 .LVL22
C:\Users\stapi\AppData\Local\Temp\cc1LF0Kh.s:343    .text.list_iterator_new_from_node:0000000000000010 .LVL21
C:\Users\stapi\AppData\Local\Temp\cc1LF0Kh.s:376    .text.list_iterator_new:0000000000000000 .LVL24
C:\Users\stapi\AppData\Local\Temp\cc1LF0Kh.s:382    .text.list_iterator_new:0000000000000004 .LVL25
C:\Users\stapi\AppData\Local\Temp\cc1LF0Kh.s:391    .text.list_iterator_new:000000000000000e .LVL27
C:\Users\stapi\AppData\Local\Temp\cc1LF0Kh.s:256    .text.list_remove:0000000000000000 .LVL16
C:\Users\stapi\AppData\Local\Temp\cc1LF0Kh.s:290    .text.list_remove:0000000000000020 .LVL17
C:\Users\stapi\AppData\Local\Temp\cc1LF0Kh.s:292    .text.list_remove:0000000000000022 .LVL18
C:\Users\stapi\AppData\Local\Temp\cc1LF0Kh.s:442    .text.list_find:0000000000000000 .LVL30
C:\Users\stapi\AppData\Local\Temp\cc1LF0Kh.s:457    .text.list_find:000000000000000c .LVL31
C:\Users\stapi\AppData\Local\Temp\cc1LF0Kh.s:515    .text.list_find:000000000000004a .LVL38
C:\Users\stapi\AppData\Local\Temp\cc1LF0Kh.s:474    .text.list_find:0000000000000026 .LVL34
C:\Users\stapi\AppData\Local\Temp\cc1LF0Kh.s:493    .text.list_find:0000000000000036 .LVL36
C:\Users\stapi\AppData\Local\Temp\cc1LF0Kh.s:197    .text.list_lpush:0000000000000000 .LVL13
C:\Users\stapi\AppData\Local\Temp\cc1LF0Kh.s:202    .text.list_lpush:0000000000000004 .LVL14
C:\Users\stapi\AppData\Local\Temp\cc1LF0Kh.s:224    .text.list_lpush:0000000000000016 .LVL15
C:\Users\stapi\AppData\Local\Temp\cc1LF0Kh.s:138    .text.list_rpush:0000000000000000 .LVL10
C:\Users\stapi\AppData\Local\Temp\cc1LF0Kh.s:143    .text.list_rpush:0000000000000004 .LVL11
C:\Users\stapi\AppData\Local\Temp\cc1LF0Kh.s:165    .text.list_rpush:0000000000000016 .LVL12
C:\Users\stapi\AppData\Local\Temp\cc1LF0Kh.s:64     .text.list_destroy:0000000000000000 .LVL1
C:\Users\stapi\AppData\Local\Temp\cc1LF0Kh.s:84     .text.list_destroy:0000000000000010 .LVL4
C:\Users\stapi\AppData\Local\Temp\cc1LF0Kh.s:75     .text.list_destroy:000000000000000c .LVL2
C:\Users\stapi\AppData\Local\Temp\cc1LF0Kh.s:123    .text.list_destroy:000000000000003e .LVL9
C:\Users\stapi\AppData\Local\Temp\cc1LF0Kh.s:80     .text.list_destroy:000000000000000e .LVL3
C:\Users\stapi\AppData\Local\Temp\cc1LF0Kh.s:537    .text.list_iterator_destroy:0000000000000000 .LVL39
C:\Users\stapi\AppData\Local\Temp\cc1LF0Kh.s:596    .debug_info:0000000000000000 .Ldebug_info0

UNDEFINED SYMBOLS
__riscv_save_0
LITE_malloc_internal
__riscv_restore_0
__riscv_save_4
LITE_free_internal
__riscv_restore_4
__riscv_save_2
__riscv_restore_2
__riscv_save_1
__riscv_restore_1
