   1              		.file	"impl_dynreg.c"
   2              		.option nopic
   3              		.attribute arch, "rv32i2p0_m2p0_a2p0_f2p0_c2p0_b_p0p94"
   4              		.attribute unaligned_access, 0
   5              		.attribute stack_align, 16
   6              		.text
   7              	.Ltext0:
   8              		.cfi_sections	.debug_frame
   9              		.section	.rodata.perform_dynamic_register.str1.4,"aMS",@progbits,1
  10              		.align	2
  11              	.LC0:
  12 0000 5B657272 		.string	"[err] "
  12      5D2000
  13 0007 00       		.align	2
  14              	.LC1:
  15 0008 496E7661 		.string	"Invalid Parameter"
  15      6C696420 
  15      50617261 
  15      6D657465 
  15      7200
  16 001a 0000     		.align	2
  17              	.LC2:
  18 001c 0D0A00   		.string	"\r\n"
  19 001f 00       		.align	2
  20              	.LC3:
  21 0020 52616E64 		.string	"Random Key Generate Failed"
  21      6F6D204B 
  21      65792047 
  21      656E6572 
  21      61746520 
  22 003b 00       		.align	2
  23              	.LC4:
  24 003c 5B696E66 		.string	"[inf] "
  24      5D2000
  25 0043 00       		.align	2
  26              	.LC5:
  27 0044 52616E64 		.string	"Random Key: %s"
  27      6F6D204B 
  27      65793A20 
  27      257300
  28 0053 00       		.align	2
  29              	.LC6:
  30 0054 4D656D6F 		.string	"Memory Not Enough"
  30      7279204E 
  30      6F742045 
  30      6E6F7567 
  30      6800
  31 0066 0000     		.align	2
  32              	.LC7:
  33 0068 43616C63 		.string	"Calculate Sign Failed"
  33      756C6174 
  33      65205369 
  33      676E2046 
  33      61696C65 
  34 007e 0000     		.align	2
  35              	.LC8:
  36 0080 64657669 		.string	"deviceName%sproductKey%srandom%s"
  36      63654E61 
  36      6D652573 
  36      70726F64 
  36      7563744B 
  37 00a1 000000   		.align	2
  38              	.LC9:
  39 00a4 5369676E 		.string	"Sign: %s"
  39      3A202573 
  39      00
  40 00ad 000000   		.align	2
  41              	.LC10:
  42 00b0 4E6F7420 		.string	"Not Enough Memory"
  42      456E6F75 
  42      6768204D 
  42      656D6F72 
  42      7900
  43 00c2 0000     		.align	2
  44              	.LC11:
  45 00c4 686D6163 		.string	"hmacsha256"
  45      73686132 
  45      353600
  46 00cf 00       		.align	2
  47              	.LC12:
  48 00d0 70726F64 		.string	"productKey=%s&deviceName=%s&random=%s&sign=%s&signMethod=%s"
  48      7563744B 
  48      65793D25 
  48      73266465 
  48      76696365 
  49              		.align	2
  50              	.LC13:
  51 010c 47657420 		.string	"Get domain failed"
  51      646F6D61 
  51      696E2066 
  51      61696C65 
  51      6400
  52 011e 0000     		.align	2
  53              	.LC14:
  54 0120 6E6F206D 		.string	"no mem"
  54      656D00
  55 0127 00       		.align	2
  56              	.LC15:
  57 0128 68747470 		.string	"https://%s/auth/register/device"
  57      733A2F2F 
  57      25732F61 
  57      7574682F 
  57      72656769 
  58              		.align	2
  59              	.LC16:
  60 0148 41636365 		.string	"Accept: text/xml,text/javascript,text/html,application/json\r\n"
  60      70743A20 
  60      74657874 
  60      2F786D6C 
  60      2C746578 
  61 0186 0000     		.align	2
  62              	.LC17:
  63 0188 6170706C 		.string	"application/x-www-form-urlencoded"
  63      69636174 
  63      696F6E2F 
  63      782D7777 
  63      772D666F 
  64 01aa 0000     		.align	2
  65              	.LC18:
  66 01ac 48747470 		.string	"Http Download Failed"
  66      20446F77 
  66      6E6C6F61 
  66      64204661 
  66      696C6564 
  67 01c1 000000   		.align	2
  68              	.LC19:
  69 01c4 48747470 		.string	"Http Response Payload: %s"
  69      20526573 
  69      706F6E73 
  69      65205061 
  69      796C6F61 
  70 01de 0000     		.align	2
  71              	.LC20:
  72 01e0 48747470 		.string	"Http Response Payload Parse Failed"
  72      20526573 
  72      706F6E73 
  72      65205061 
  72      796C6F61 
  73 0203 00       		.align	2
  74              	.LC21:
  75 0204 636F6465 		.string	"code"
  75      00
  76 0209 000000   		.align	2
  77              	.LC22:
  78 020c 44796E61 		.string	"Dynamic Register Code: %d"
  78      6D696320 
  78      52656769 
  78      73746572 
  78      20436F64 
  79 0226 0000     		.align	2
  80              	.LC23:
  81 0228 64617461 		.string	"data"
  81      00
  82 022d 000000   		.align	2
  83              	.LC24:
  84 0230 64657669 		.string	"deviceSecret"
  84      63655365 
  84      63726574 
  84      00
  85 023d 000000   		.align	2
  86              	.LC25:
  87 0240 44796E61 		.string	"Dynamic Register Device Secret: %.*s"
  87      6D696320 
  87      52656769 
  87      73746572 
  87      20446576 
  88 0265 000000   		.align	2
  89              	.LC26:
  90 0268 47657420 		.string	"Get Device Secret Failed"
  90      44657669 
  90      63652053 
  90      65637265 
  90      74204661 
  91              		.section	.text.perform_dynamic_register,"ax",@progbits
  92              		.align	1
  93              		.globl	perform_dynamic_register
  95              	perform_dynamic_register:
  96              	.LFB22:
  97              		.file 1 "C:/Users/stapi/OneDrive/Desktop/GD32VW553/V1_MQTT_OK/GD32VW55X_Wifi_BLE_SDK/GD32VW55x_REL
   1:C:/Users/stapi/OneDrive/Desktop/GD32VW553/V1_MQTT_OK/GD32VW55X_Wifi_BLE_SDK/GD32VW55x_RELEASE_V1.0.2/MSDK/cloud/alicloud/src/sdk-impl\impl_dynreg.c **** /*
   2:C:/Users/stapi/OneDrive/Desktop/GD32VW553/V1_MQTT_OK/GD32VW55X_Wifi_BLE_SDK/GD32VW55x_RELEASE_V1.0.2/MSDK/cloud/alicloud/src/sdk-impl\impl_dynreg.c ****  * Copyright (C) 2015-2019 Alibaba Group Holding Limited
   3:C:/Users/stapi/OneDrive/Desktop/GD32VW553/V1_MQTT_OK/GD32VW55X_Wifi_BLE_SDK/GD32VW55x_RELEASE_V1.0.2/MSDK/cloud/alicloud/src/sdk-impl\impl_dynreg.c ****  */
   4:C:/Users/stapi/OneDrive/Desktop/GD32VW553/V1_MQTT_OK/GD32VW55X_Wifi_BLE_SDK/GD32VW55x_RELEASE_V1.0.2/MSDK/cloud/alicloud/src/sdk-impl\impl_dynreg.c **** #include "sdk-impl_internal.h"
   5:C:/Users/stapi/OneDrive/Desktop/GD32VW553/V1_MQTT_OK/GD32VW55X_Wifi_BLE_SDK/GD32VW55x_RELEASE_V1.0.2/MSDK/cloud/alicloud/src/sdk-impl\impl_dynreg.c **** #include "iotx_system_internal.h"
   6:C:/Users/stapi/OneDrive/Desktop/GD32VW553/V1_MQTT_OK/GD32VW55X_Wifi_BLE_SDK/GD32VW55x_RELEASE_V1.0.2/MSDK/cloud/alicloud/src/sdk-impl\impl_dynreg.c **** 
   7:C:/Users/stapi/OneDrive/Desktop/GD32VW553/V1_MQTT_OK/GD32VW55X_Wifi_BLE_SDK/GD32VW55x_RELEASE_V1.0.2/MSDK/cloud/alicloud/src/sdk-impl\impl_dynreg.c **** #define HTTP_RESPONSE_PAYLOAD_LEN 256
   8:C:/Users/stapi/OneDrive/Desktop/GD32VW553/V1_MQTT_OK/GD32VW55X_Wifi_BLE_SDK/GD32VW55x_RELEASE_V1.0.2/MSDK/cloud/alicloud/src/sdk-impl\impl_dynreg.c **** 
   9:C:/Users/stapi/OneDrive/Desktop/GD32VW553/V1_MQTT_OK/GD32VW55X_Wifi_BLE_SDK/GD32VW55x_RELEASE_V1.0.2/MSDK/cloud/alicloud/src/sdk-impl\impl_dynreg.c **** #define IMPL_LINKKIT_DYNREG_MALLOC(size) LITE_malloc(size, MEM_MAGIC, "impl.dynreg")
  10:C:/Users/stapi/OneDrive/Desktop/GD32VW553/V1_MQTT_OK/GD32VW55X_Wifi_BLE_SDK/GD32VW55x_RELEASE_V1.0.2/MSDK/cloud/alicloud/src/sdk-impl\impl_dynreg.c **** #define IMPL_LINKKIT_DYNREG_FREE(ptr) LITE_free(ptr)
  11:C:/Users/stapi/OneDrive/Desktop/GD32VW553/V1_MQTT_OK/GD32VW55X_Wifi_BLE_SDK/GD32VW55x_RELEASE_V1.0.2/MSDK/cloud/alicloud/src/sdk-impl\impl_dynreg.c **** 
  12:C:/Users/stapi/OneDrive/Desktop/GD32VW553/V1_MQTT_OK/GD32VW55X_Wifi_BLE_SDK/GD32VW55x_RELEASE_V1.0.2/MSDK/cloud/alicloud/src/sdk-impl\impl_dynreg.c **** static int _calc_dynreg_sign(
  13:C:/Users/stapi/OneDrive/Desktop/GD32VW553/V1_MQTT_OK/GD32VW55X_Wifi_BLE_SDK/GD32VW55x_RELEASE_V1.0.2/MSDK/cloud/alicloud/src/sdk-impl\impl_dynreg.c ****     _IN_ char product_key[PRODUCT_KEY_MAXLEN],
  14:C:/Users/stapi/OneDrive/Desktop/GD32VW553/V1_MQTT_OK/GD32VW55X_Wifi_BLE_SDK/GD32VW55x_RELEASE_V1.0.2/MSDK/cloud/alicloud/src/sdk-impl\impl_dynreg.c ****     _IN_ char product_secret[PRODUCT_SECRET_MAXLEN],
  15:C:/Users/stapi/OneDrive/Desktop/GD32VW553/V1_MQTT_OK/GD32VW55X_Wifi_BLE_SDK/GD32VW55x_RELEASE_V1.0.2/MSDK/cloud/alicloud/src/sdk-impl\impl_dynreg.c ****     _IN_ char device_name[DEVICE_NAME_MAXLEN],
  16:C:/Users/stapi/OneDrive/Desktop/GD32VW553/V1_MQTT_OK/GD32VW55X_Wifi_BLE_SDK/GD32VW55x_RELEASE_V1.0.2/MSDK/cloud/alicloud/src/sdk-impl\impl_dynreg.c ****     _OU_ char random[DYNAMIC_REGISTER_RANDOM_KEY_LENGTH + 1],
  17:C:/Users/stapi/OneDrive/Desktop/GD32VW553/V1_MQTT_OK/GD32VW55X_Wifi_BLE_SDK/GD32VW55x_RELEASE_V1.0.2/MSDK/cloud/alicloud/src/sdk-impl\impl_dynreg.c ****     _OU_ char sign[DYNAMIC_REGISTER_SIGN_LENGTH])
  18:C:/Users/stapi/OneDrive/Desktop/GD32VW553/V1_MQTT_OK/GD32VW55X_Wifi_BLE_SDK/GD32VW55x_RELEASE_V1.0.2/MSDK/cloud/alicloud/src/sdk-impl\impl_dynreg.c **** {
  19:C:/Users/stapi/OneDrive/Desktop/GD32VW553/V1_MQTT_OK/GD32VW55X_Wifi_BLE_SDK/GD32VW55x_RELEASE_V1.0.2/MSDK/cloud/alicloud/src/sdk-impl\impl_dynreg.c ****     int res = 0, sign_source_len = 0;
  20:C:/Users/stapi/OneDrive/Desktop/GD32VW553/V1_MQTT_OK/GD32VW55X_Wifi_BLE_SDK/GD32VW55x_RELEASE_V1.0.2/MSDK/cloud/alicloud/src/sdk-impl\impl_dynreg.c ****     char *sign_source = NULL;
  21:C:/Users/stapi/OneDrive/Desktop/GD32VW553/V1_MQTT_OK/GD32VW55X_Wifi_BLE_SDK/GD32VW55x_RELEASE_V1.0.2/MSDK/cloud/alicloud/src/sdk-impl\impl_dynreg.c ****     const char *dynamic_register_sign_fmt = "deviceName%sproductKey%srandom%s";
  22:C:/Users/stapi/OneDrive/Desktop/GD32VW553/V1_MQTT_OK/GD32VW55X_Wifi_BLE_SDK/GD32VW55x_RELEASE_V1.0.2/MSDK/cloud/alicloud/src/sdk-impl\impl_dynreg.c **** 
  23:C:/Users/stapi/OneDrive/Desktop/GD32VW553/V1_MQTT_OK/GD32VW55X_Wifi_BLE_SDK/GD32VW55x_RELEASE_V1.0.2/MSDK/cloud/alicloud/src/sdk-impl\impl_dynreg.c ****     /* Start Dynamic Register */
  24:C:/Users/stapi/OneDrive/Desktop/GD32VW553/V1_MQTT_OK/GD32VW55X_Wifi_BLE_SDK/GD32VW55x_RELEASE_V1.0.2/MSDK/cloud/alicloud/src/sdk-impl\impl_dynreg.c ****     res = LITE_get_randstr(random, DYNAMIC_REGISTER_RANDOM_KEY_LENGTH);
  25:C:/Users/stapi/OneDrive/Desktop/GD32VW553/V1_MQTT_OK/GD32VW55X_Wifi_BLE_SDK/GD32VW55x_RELEASE_V1.0.2/MSDK/cloud/alicloud/src/sdk-impl\impl_dynreg.c ****     if (res != SUCCESS_RETURN)
  26:C:/Users/stapi/OneDrive/Desktop/GD32VW553/V1_MQTT_OK/GD32VW55X_Wifi_BLE_SDK/GD32VW55x_RELEASE_V1.0.2/MSDK/cloud/alicloud/src/sdk-impl\impl_dynreg.c ****     {
  27:C:/Users/stapi/OneDrive/Desktop/GD32VW553/V1_MQTT_OK/GD32VW55X_Wifi_BLE_SDK/GD32VW55x_RELEASE_V1.0.2/MSDK/cloud/alicloud/src/sdk-impl\impl_dynreg.c ****         sdk_err("Random Key Generate Failed");
  28:C:/Users/stapi/OneDrive/Desktop/GD32VW553/V1_MQTT_OK/GD32VW55X_Wifi_BLE_SDK/GD32VW55x_RELEASE_V1.0.2/MSDK/cloud/alicloud/src/sdk-impl\impl_dynreg.c ****     }
  29:C:/Users/stapi/OneDrive/Desktop/GD32VW553/V1_MQTT_OK/GD32VW55X_Wifi_BLE_SDK/GD32VW55x_RELEASE_V1.0.2/MSDK/cloud/alicloud/src/sdk-impl\impl_dynreg.c ****     sdk_info("Random Key: %s", random);
  30:C:/Users/stapi/OneDrive/Desktop/GD32VW553/V1_MQTT_OK/GD32VW55X_Wifi_BLE_SDK/GD32VW55x_RELEASE_V1.0.2/MSDK/cloud/alicloud/src/sdk-impl\impl_dynreg.c **** 
  31:C:/Users/stapi/OneDrive/Desktop/GD32VW553/V1_MQTT_OK/GD32VW55X_Wifi_BLE_SDK/GD32VW55x_RELEASE_V1.0.2/MSDK/cloud/alicloud/src/sdk-impl\impl_dynreg.c ****     /* Calculate SHA256 Value */
  32:C:/Users/stapi/OneDrive/Desktop/GD32VW553/V1_MQTT_OK/GD32VW55X_Wifi_BLE_SDK/GD32VW55x_RELEASE_V1.0.2/MSDK/cloud/alicloud/src/sdk-impl\impl_dynreg.c ****     sign_source_len = strlen(dynamic_register_sign_fmt) + strlen(device_name) + strlen(product_key)
  33:C:/Users/stapi/OneDrive/Desktop/GD32VW553/V1_MQTT_OK/GD32VW55X_Wifi_BLE_SDK/GD32VW55x_RELEASE_V1.0.2/MSDK/cloud/alicloud/src/sdk-impl\impl_dynreg.c ****     sign_source = IMPL_LINKKIT_DYNREG_MALLOC(sign_source_len);
  34:C:/Users/stapi/OneDrive/Desktop/GD32VW553/V1_MQTT_OK/GD32VW55X_Wifi_BLE_SDK/GD32VW55x_RELEASE_V1.0.2/MSDK/cloud/alicloud/src/sdk-impl\impl_dynreg.c ****     if (sign_source == NULL)
  35:C:/Users/stapi/OneDrive/Desktop/GD32VW553/V1_MQTT_OK/GD32VW55X_Wifi_BLE_SDK/GD32VW55x_RELEASE_V1.0.2/MSDK/cloud/alicloud/src/sdk-impl\impl_dynreg.c ****     {
  36:C:/Users/stapi/OneDrive/Desktop/GD32VW553/V1_MQTT_OK/GD32VW55X_Wifi_BLE_SDK/GD32VW55x_RELEASE_V1.0.2/MSDK/cloud/alicloud/src/sdk-impl\impl_dynreg.c ****         sdk_err("Memory Not Enough");
  37:C:/Users/stapi/OneDrive/Desktop/GD32VW553/V1_MQTT_OK/GD32VW55X_Wifi_BLE_SDK/GD32VW55x_RELEASE_V1.0.2/MSDK/cloud/alicloud/src/sdk-impl\impl_dynreg.c ****         return FAIL_RETURN;
  38:C:/Users/stapi/OneDrive/Desktop/GD32VW553/V1_MQTT_OK/GD32VW55X_Wifi_BLE_SDK/GD32VW55x_RELEASE_V1.0.2/MSDK/cloud/alicloud/src/sdk-impl\impl_dynreg.c ****     }
  39:C:/Users/stapi/OneDrive/Desktop/GD32VW553/V1_MQTT_OK/GD32VW55X_Wifi_BLE_SDK/GD32VW55x_RELEASE_V1.0.2/MSDK/cloud/alicloud/src/sdk-impl\impl_dynreg.c ****     memset(sign_source, 0, sign_source_len);
  40:C:/Users/stapi/OneDrive/Desktop/GD32VW553/V1_MQTT_OK/GD32VW55X_Wifi_BLE_SDK/GD32VW55x_RELEASE_V1.0.2/MSDK/cloud/alicloud/src/sdk-impl\impl_dynreg.c ****     HAL_Snprintf(sign_source, sign_source_len, dynamic_register_sign_fmt, device_name, product_key,
  41:C:/Users/stapi/OneDrive/Desktop/GD32VW553/V1_MQTT_OK/GD32VW55X_Wifi_BLE_SDK/GD32VW55x_RELEASE_V1.0.2/MSDK/cloud/alicloud/src/sdk-impl\impl_dynreg.c **** 
  42:C:/Users/stapi/OneDrive/Desktop/GD32VW553/V1_MQTT_OK/GD32VW55X_Wifi_BLE_SDK/GD32VW55x_RELEASE_V1.0.2/MSDK/cloud/alicloud/src/sdk-impl\impl_dynreg.c ****     utils_hmac_sha256(sign_source, strlen(sign_source), sign, product_secret, strlen(product_secret
  43:C:/Users/stapi/OneDrive/Desktop/GD32VW553/V1_MQTT_OK/GD32VW55X_Wifi_BLE_SDK/GD32VW55x_RELEASE_V1.0.2/MSDK/cloud/alicloud/src/sdk-impl\impl_dynreg.c ****     IMPL_LINKKIT_DYNREG_FREE(sign_source);
  44:C:/Users/stapi/OneDrive/Desktop/GD32VW553/V1_MQTT_OK/GD32VW55X_Wifi_BLE_SDK/GD32VW55x_RELEASE_V1.0.2/MSDK/cloud/alicloud/src/sdk-impl\impl_dynreg.c ****     sdk_info("Sign: %s", sign);
  45:C:/Users/stapi/OneDrive/Desktop/GD32VW553/V1_MQTT_OK/GD32VW55X_Wifi_BLE_SDK/GD32VW55x_RELEASE_V1.0.2/MSDK/cloud/alicloud/src/sdk-impl\impl_dynreg.c **** 
  46:C:/Users/stapi/OneDrive/Desktop/GD32VW553/V1_MQTT_OK/GD32VW55X_Wifi_BLE_SDK/GD32VW55x_RELEASE_V1.0.2/MSDK/cloud/alicloud/src/sdk-impl\impl_dynreg.c ****     return SUCCESS_RETURN;
  47:C:/Users/stapi/OneDrive/Desktop/GD32VW553/V1_MQTT_OK/GD32VW55X_Wifi_BLE_SDK/GD32VW55x_RELEASE_V1.0.2/MSDK/cloud/alicloud/src/sdk-impl\impl_dynreg.c **** }
  48:C:/Users/stapi/OneDrive/Desktop/GD32VW553/V1_MQTT_OK/GD32VW55X_Wifi_BLE_SDK/GD32VW55x_RELEASE_V1.0.2/MSDK/cloud/alicloud/src/sdk-impl\impl_dynreg.c **** 
  49:C:/Users/stapi/OneDrive/Desktop/GD32VW553/V1_MQTT_OK/GD32VW55X_Wifi_BLE_SDK/GD32VW55x_RELEASE_V1.0.2/MSDK/cloud/alicloud/src/sdk-impl\impl_dynreg.c **** static int _fetch_dynreg_http_resp(_IN_ char *request_payload, _IN_ char *response_payload,
  50:C:/Users/stapi/OneDrive/Desktop/GD32VW553/V1_MQTT_OK/GD32VW55X_Wifi_BLE_SDK/GD32VW55x_RELEASE_V1.0.2/MSDK/cloud/alicloud/src/sdk-impl\impl_dynreg.c ****                                    _OU_ char device_secret[DEVICE_SECRET_MAXLEN])
  51:C:/Users/stapi/OneDrive/Desktop/GD32VW553/V1_MQTT_OK/GD32VW55X_Wifi_BLE_SDK/GD32VW55x_RELEASE_V1.0.2/MSDK/cloud/alicloud/src/sdk-impl\impl_dynreg.c **** {
  52:C:/Users/stapi/OneDrive/Desktop/GD32VW553/V1_MQTT_OK/GD32VW55X_Wifi_BLE_SDK/GD32VW55x_RELEASE_V1.0.2/MSDK/cloud/alicloud/src/sdk-impl\impl_dynreg.c ****     int res = 0;
  53:C:/Users/stapi/OneDrive/Desktop/GD32VW553/V1_MQTT_OK/GD32VW55X_Wifi_BLE_SDK/GD32VW55x_RELEASE_V1.0.2/MSDK/cloud/alicloud/src/sdk-impl\impl_dynreg.c ****     const char *domain = NULL;
  54:C:/Users/stapi/OneDrive/Desktop/GD32VW553/V1_MQTT_OK/GD32VW55X_Wifi_BLE_SDK/GD32VW55x_RELEASE_V1.0.2/MSDK/cloud/alicloud/src/sdk-impl\impl_dynreg.c ****     const char *url_format = "https://%s/auth/register/device";
  55:C:/Users/stapi/OneDrive/Desktop/GD32VW553/V1_MQTT_OK/GD32VW55X_Wifi_BLE_SDK/GD32VW55x_RELEASE_V1.0.2/MSDK/cloud/alicloud/src/sdk-impl\impl_dynreg.c ****     char *url = NULL;
  56:C:/Users/stapi/OneDrive/Desktop/GD32VW553/V1_MQTT_OK/GD32VW55X_Wifi_BLE_SDK/GD32VW55x_RELEASE_V1.0.2/MSDK/cloud/alicloud/src/sdk-impl\impl_dynreg.c ****     int url_len = 0;
  57:C:/Users/stapi/OneDrive/Desktop/GD32VW553/V1_MQTT_OK/GD32VW55X_Wifi_BLE_SDK/GD32VW55x_RELEASE_V1.0.2/MSDK/cloud/alicloud/src/sdk-impl\impl_dynreg.c ****     httpclient_t http_client;
  58:C:/Users/stapi/OneDrive/Desktop/GD32VW553/V1_MQTT_OK/GD32VW55X_Wifi_BLE_SDK/GD32VW55x_RELEASE_V1.0.2/MSDK/cloud/alicloud/src/sdk-impl\impl_dynreg.c ****     httpclient_data_t http_client_data;
  59:C:/Users/stapi/OneDrive/Desktop/GD32VW553/V1_MQTT_OK/GD32VW55X_Wifi_BLE_SDK/GD32VW55x_RELEASE_V1.0.2/MSDK/cloud/alicloud/src/sdk-impl\impl_dynreg.c ****     lite_cjson_t lite, lite_item_code, lite_item_data, lite_item_ds;
  60:C:/Users/stapi/OneDrive/Desktop/GD32VW553/V1_MQTT_OK/GD32VW55X_Wifi_BLE_SDK/GD32VW55x_RELEASE_V1.0.2/MSDK/cloud/alicloud/src/sdk-impl\impl_dynreg.c **** 
  61:C:/Users/stapi/OneDrive/Desktop/GD32VW553/V1_MQTT_OK/GD32VW55X_Wifi_BLE_SDK/GD32VW55x_RELEASE_V1.0.2/MSDK/cloud/alicloud/src/sdk-impl\impl_dynreg.c ****     memset(&http_client, 0, sizeof(httpclient_t));
  62:C:/Users/stapi/OneDrive/Desktop/GD32VW553/V1_MQTT_OK/GD32VW55X_Wifi_BLE_SDK/GD32VW55x_RELEASE_V1.0.2/MSDK/cloud/alicloud/src/sdk-impl\impl_dynreg.c ****     memset(&http_client_data, 0, sizeof(httpclient_data_t));
  63:C:/Users/stapi/OneDrive/Desktop/GD32VW553/V1_MQTT_OK/GD32VW55X_Wifi_BLE_SDK/GD32VW55x_RELEASE_V1.0.2/MSDK/cloud/alicloud/src/sdk-impl\impl_dynreg.c **** 
  64:C:/Users/stapi/OneDrive/Desktop/GD32VW553/V1_MQTT_OK/GD32VW55X_Wifi_BLE_SDK/GD32VW55x_RELEASE_V1.0.2/MSDK/cloud/alicloud/src/sdk-impl\impl_dynreg.c ****     url_len = strlen(url_format) + 1;
  65:C:/Users/stapi/OneDrive/Desktop/GD32VW553/V1_MQTT_OK/GD32VW55X_Wifi_BLE_SDK/GD32VW55x_RELEASE_V1.0.2/MSDK/cloud/alicloud/src/sdk-impl\impl_dynreg.c **** 
  66:C:/Users/stapi/OneDrive/Desktop/GD32VW553/V1_MQTT_OK/GD32VW55X_Wifi_BLE_SDK/GD32VW55x_RELEASE_V1.0.2/MSDK/cloud/alicloud/src/sdk-impl\impl_dynreg.c ****     domain = iotx_guider_get_domain(GUIDER_DOMAIN_DYNAMIC_REGISTER_HTTP);
  67:C:/Users/stapi/OneDrive/Desktop/GD32VW553/V1_MQTT_OK/GD32VW55X_Wifi_BLE_SDK/GD32VW55x_RELEASE_V1.0.2/MSDK/cloud/alicloud/src/sdk-impl\impl_dynreg.c ****     if (NULL == domain)
  68:C:/Users/stapi/OneDrive/Desktop/GD32VW553/V1_MQTT_OK/GD32VW55X_Wifi_BLE_SDK/GD32VW55x_RELEASE_V1.0.2/MSDK/cloud/alicloud/src/sdk-impl\impl_dynreg.c ****     {
  69:C:/Users/stapi/OneDrive/Desktop/GD32VW553/V1_MQTT_OK/GD32VW55X_Wifi_BLE_SDK/GD32VW55x_RELEASE_V1.0.2/MSDK/cloud/alicloud/src/sdk-impl\impl_dynreg.c ****         sdk_err("Get domain failed");
  70:C:/Users/stapi/OneDrive/Desktop/GD32VW553/V1_MQTT_OK/GD32VW55X_Wifi_BLE_SDK/GD32VW55x_RELEASE_V1.0.2/MSDK/cloud/alicloud/src/sdk-impl\impl_dynreg.c ****         return FAIL_RETURN;
  71:C:/Users/stapi/OneDrive/Desktop/GD32VW553/V1_MQTT_OK/GD32VW55X_Wifi_BLE_SDK/GD32VW55x_RELEASE_V1.0.2/MSDK/cloud/alicloud/src/sdk-impl\impl_dynreg.c ****     }
  72:C:/Users/stapi/OneDrive/Desktop/GD32VW553/V1_MQTT_OK/GD32VW55X_Wifi_BLE_SDK/GD32VW55x_RELEASE_V1.0.2/MSDK/cloud/alicloud/src/sdk-impl\impl_dynreg.c ****     url_len += strlen(domain);
  73:C:/Users/stapi/OneDrive/Desktop/GD32VW553/V1_MQTT_OK/GD32VW55X_Wifi_BLE_SDK/GD32VW55x_RELEASE_V1.0.2/MSDK/cloud/alicloud/src/sdk-impl\impl_dynreg.c **** 
  74:C:/Users/stapi/OneDrive/Desktop/GD32VW553/V1_MQTT_OK/GD32VW55X_Wifi_BLE_SDK/GD32VW55x_RELEASE_V1.0.2/MSDK/cloud/alicloud/src/sdk-impl\impl_dynreg.c ****     url = (char *)IMPL_LINKKIT_DYNREG_MALLOC(url_len);
  75:C:/Users/stapi/OneDrive/Desktop/GD32VW553/V1_MQTT_OK/GD32VW55X_Wifi_BLE_SDK/GD32VW55x_RELEASE_V1.0.2/MSDK/cloud/alicloud/src/sdk-impl\impl_dynreg.c ****     if (NULL == url)
  76:C:/Users/stapi/OneDrive/Desktop/GD32VW553/V1_MQTT_OK/GD32VW55X_Wifi_BLE_SDK/GD32VW55x_RELEASE_V1.0.2/MSDK/cloud/alicloud/src/sdk-impl\impl_dynreg.c ****     {
  77:C:/Users/stapi/OneDrive/Desktop/GD32VW553/V1_MQTT_OK/GD32VW55X_Wifi_BLE_SDK/GD32VW55x_RELEASE_V1.0.2/MSDK/cloud/alicloud/src/sdk-impl\impl_dynreg.c ****         sdk_err("no mem");
  78:C:/Users/stapi/OneDrive/Desktop/GD32VW553/V1_MQTT_OK/GD32VW55X_Wifi_BLE_SDK/GD32VW55x_RELEASE_V1.0.2/MSDK/cloud/alicloud/src/sdk-impl\impl_dynreg.c **** 
  79:C:/Users/stapi/OneDrive/Desktop/GD32VW553/V1_MQTT_OK/GD32VW55X_Wifi_BLE_SDK/GD32VW55x_RELEASE_V1.0.2/MSDK/cloud/alicloud/src/sdk-impl\impl_dynreg.c ****         return FAIL_RETURN;
  80:C:/Users/stapi/OneDrive/Desktop/GD32VW553/V1_MQTT_OK/GD32VW55X_Wifi_BLE_SDK/GD32VW55x_RELEASE_V1.0.2/MSDK/cloud/alicloud/src/sdk-impl\impl_dynreg.c ****     }
  81:C:/Users/stapi/OneDrive/Desktop/GD32VW553/V1_MQTT_OK/GD32VW55X_Wifi_BLE_SDK/GD32VW55x_RELEASE_V1.0.2/MSDK/cloud/alicloud/src/sdk-impl\impl_dynreg.c **** 
  82:C:/Users/stapi/OneDrive/Desktop/GD32VW553/V1_MQTT_OK/GD32VW55X_Wifi_BLE_SDK/GD32VW55x_RELEASE_V1.0.2/MSDK/cloud/alicloud/src/sdk-impl\impl_dynreg.c ****     memset(url, 0, url_len);
  83:C:/Users/stapi/OneDrive/Desktop/GD32VW553/V1_MQTT_OK/GD32VW55X_Wifi_BLE_SDK/GD32VW55x_RELEASE_V1.0.2/MSDK/cloud/alicloud/src/sdk-impl\impl_dynreg.c ****     HAL_Snprintf(url, url_len, url_format, domain);
  84:C:/Users/stapi/OneDrive/Desktop/GD32VW553/V1_MQTT_OK/GD32VW55X_Wifi_BLE_SDK/GD32VW55x_RELEASE_V1.0.2/MSDK/cloud/alicloud/src/sdk-impl\impl_dynreg.c **** 
  85:C:/Users/stapi/OneDrive/Desktop/GD32VW553/V1_MQTT_OK/GD32VW55X_Wifi_BLE_SDK/GD32VW55x_RELEASE_V1.0.2/MSDK/cloud/alicloud/src/sdk-impl\impl_dynreg.c ****     http_client.header = "Accept: text/xml,text/javascript,text/html,application/json\r\n";
  86:C:/Users/stapi/OneDrive/Desktop/GD32VW553/V1_MQTT_OK/GD32VW55X_Wifi_BLE_SDK/GD32VW55x_RELEASE_V1.0.2/MSDK/cloud/alicloud/src/sdk-impl\impl_dynreg.c **** 
  87:C:/Users/stapi/OneDrive/Desktop/GD32VW553/V1_MQTT_OK/GD32VW55X_Wifi_BLE_SDK/GD32VW55x_RELEASE_V1.0.2/MSDK/cloud/alicloud/src/sdk-impl\impl_dynreg.c ****     http_client_data.post_content_type = "application/x-www-form-urlencoded";
  88:C:/Users/stapi/OneDrive/Desktop/GD32VW553/V1_MQTT_OK/GD32VW55X_Wifi_BLE_SDK/GD32VW55x_RELEASE_V1.0.2/MSDK/cloud/alicloud/src/sdk-impl\impl_dynreg.c ****     http_client_data.post_buf = request_payload;
  89:C:/Users/stapi/OneDrive/Desktop/GD32VW553/V1_MQTT_OK/GD32VW55X_Wifi_BLE_SDK/GD32VW55x_RELEASE_V1.0.2/MSDK/cloud/alicloud/src/sdk-impl\impl_dynreg.c ****     http_client_data.post_buf_len = strlen(request_payload);
  90:C:/Users/stapi/OneDrive/Desktop/GD32VW553/V1_MQTT_OK/GD32VW55X_Wifi_BLE_SDK/GD32VW55x_RELEASE_V1.0.2/MSDK/cloud/alicloud/src/sdk-impl\impl_dynreg.c ****     http_client_data.response_buf = response_payload;
  91:C:/Users/stapi/OneDrive/Desktop/GD32VW553/V1_MQTT_OK/GD32VW55X_Wifi_BLE_SDK/GD32VW55x_RELEASE_V1.0.2/MSDK/cloud/alicloud/src/sdk-impl\impl_dynreg.c ****     http_client_data.response_buf_len = HTTP_RESPONSE_PAYLOAD_LEN;
  92:C:/Users/stapi/OneDrive/Desktop/GD32VW553/V1_MQTT_OK/GD32VW55X_Wifi_BLE_SDK/GD32VW55x_RELEASE_V1.0.2/MSDK/cloud/alicloud/src/sdk-impl\impl_dynreg.c **** 
  93:C:/Users/stapi/OneDrive/Desktop/GD32VW553/V1_MQTT_OK/GD32VW55X_Wifi_BLE_SDK/GD32VW55x_RELEASE_V1.0.2/MSDK/cloud/alicloud/src/sdk-impl\impl_dynreg.c ****     res = httpclient_common(&http_client, url, 443, iotx_ca_get(), HTTPCLIENT_POST, 10000, &http_cl
  94:C:/Users/stapi/OneDrive/Desktop/GD32VW553/V1_MQTT_OK/GD32VW55X_Wifi_BLE_SDK/GD32VW55x_RELEASE_V1.0.2/MSDK/cloud/alicloud/src/sdk-impl\impl_dynreg.c ****     httpclient_close(&http_client);
  95:C:/Users/stapi/OneDrive/Desktop/GD32VW553/V1_MQTT_OK/GD32VW55X_Wifi_BLE_SDK/GD32VW55x_RELEASE_V1.0.2/MSDK/cloud/alicloud/src/sdk-impl\impl_dynreg.c ****     if (res != SUCCESS_RETURN)
  96:C:/Users/stapi/OneDrive/Desktop/GD32VW553/V1_MQTT_OK/GD32VW55X_Wifi_BLE_SDK/GD32VW55x_RELEASE_V1.0.2/MSDK/cloud/alicloud/src/sdk-impl\impl_dynreg.c ****     {
  97:C:/Users/stapi/OneDrive/Desktop/GD32VW553/V1_MQTT_OK/GD32VW55X_Wifi_BLE_SDK/GD32VW55x_RELEASE_V1.0.2/MSDK/cloud/alicloud/src/sdk-impl\impl_dynreg.c ****         sdk_err("Http Download Failed");
  98:C:/Users/stapi/OneDrive/Desktop/GD32VW553/V1_MQTT_OK/GD32VW55X_Wifi_BLE_SDK/GD32VW55x_RELEASE_V1.0.2/MSDK/cloud/alicloud/src/sdk-impl\impl_dynreg.c ****         IMPL_LINKKIT_DYNREG_FREE(url);
  99:C:/Users/stapi/OneDrive/Desktop/GD32VW553/V1_MQTT_OK/GD32VW55X_Wifi_BLE_SDK/GD32VW55x_RELEASE_V1.0.2/MSDK/cloud/alicloud/src/sdk-impl\impl_dynreg.c ****         return FAIL_RETURN;
 100:C:/Users/stapi/OneDrive/Desktop/GD32VW553/V1_MQTT_OK/GD32VW55X_Wifi_BLE_SDK/GD32VW55x_RELEASE_V1.0.2/MSDK/cloud/alicloud/src/sdk-impl\impl_dynreg.c ****     }
 101:C:/Users/stapi/OneDrive/Desktop/GD32VW553/V1_MQTT_OK/GD32VW55X_Wifi_BLE_SDK/GD32VW55x_RELEASE_V1.0.2/MSDK/cloud/alicloud/src/sdk-impl\impl_dynreg.c ****     IMPL_LINKKIT_DYNREG_FREE(url);
 102:C:/Users/stapi/OneDrive/Desktop/GD32VW553/V1_MQTT_OK/GD32VW55X_Wifi_BLE_SDK/GD32VW55x_RELEASE_V1.0.2/MSDK/cloud/alicloud/src/sdk-impl\impl_dynreg.c ****     sdk_info("Http Response Payload: %s", http_client_data.response_buf);
 103:C:/Users/stapi/OneDrive/Desktop/GD32VW553/V1_MQTT_OK/GD32VW55X_Wifi_BLE_SDK/GD32VW55x_RELEASE_V1.0.2/MSDK/cloud/alicloud/src/sdk-impl\impl_dynreg.c **** 
 104:C:/Users/stapi/OneDrive/Desktop/GD32VW553/V1_MQTT_OK/GD32VW55X_Wifi_BLE_SDK/GD32VW55x_RELEASE_V1.0.2/MSDK/cloud/alicloud/src/sdk-impl\impl_dynreg.c ****     /* Parse Http Response */
 105:C:/Users/stapi/OneDrive/Desktop/GD32VW553/V1_MQTT_OK/GD32VW55X_Wifi_BLE_SDK/GD32VW55x_RELEASE_V1.0.2/MSDK/cloud/alicloud/src/sdk-impl\impl_dynreg.c ****     memset(&lite, 0, sizeof(lite_cjson_t));
 106:C:/Users/stapi/OneDrive/Desktop/GD32VW553/V1_MQTT_OK/GD32VW55X_Wifi_BLE_SDK/GD32VW55x_RELEASE_V1.0.2/MSDK/cloud/alicloud/src/sdk-impl\impl_dynreg.c ****     res = lite_cjson_parse(response_payload, strlen(response_payload), &lite);
 107:C:/Users/stapi/OneDrive/Desktop/GD32VW553/V1_MQTT_OK/GD32VW55X_Wifi_BLE_SDK/GD32VW55x_RELEASE_V1.0.2/MSDK/cloud/alicloud/src/sdk-impl\impl_dynreg.c ****     if (res != SUCCESS_RETURN || !lite_cjson_is_object(&lite))
 108:C:/Users/stapi/OneDrive/Desktop/GD32VW553/V1_MQTT_OK/GD32VW55X_Wifi_BLE_SDK/GD32VW55x_RELEASE_V1.0.2/MSDK/cloud/alicloud/src/sdk-impl\impl_dynreg.c ****     {
 109:C:/Users/stapi/OneDrive/Desktop/GD32VW553/V1_MQTT_OK/GD32VW55X_Wifi_BLE_SDK/GD32VW55x_RELEASE_V1.0.2/MSDK/cloud/alicloud/src/sdk-impl\impl_dynreg.c ****         sdk_err("Http Response Payload Parse Failed");
 110:C:/Users/stapi/OneDrive/Desktop/GD32VW553/V1_MQTT_OK/GD32VW55X_Wifi_BLE_SDK/GD32VW55x_RELEASE_V1.0.2/MSDK/cloud/alicloud/src/sdk-impl\impl_dynreg.c ****         return FAIL_RETURN;
 111:C:/Users/stapi/OneDrive/Desktop/GD32VW553/V1_MQTT_OK/GD32VW55X_Wifi_BLE_SDK/GD32VW55x_RELEASE_V1.0.2/MSDK/cloud/alicloud/src/sdk-impl\impl_dynreg.c ****     }
 112:C:/Users/stapi/OneDrive/Desktop/GD32VW553/V1_MQTT_OK/GD32VW55X_Wifi_BLE_SDK/GD32VW55x_RELEASE_V1.0.2/MSDK/cloud/alicloud/src/sdk-impl\impl_dynreg.c **** 
 113:C:/Users/stapi/OneDrive/Desktop/GD32VW553/V1_MQTT_OK/GD32VW55X_Wifi_BLE_SDK/GD32VW55x_RELEASE_V1.0.2/MSDK/cloud/alicloud/src/sdk-impl\impl_dynreg.c ****     /* Parse Code */
 114:C:/Users/stapi/OneDrive/Desktop/GD32VW553/V1_MQTT_OK/GD32VW55X_Wifi_BLE_SDK/GD32VW55x_RELEASE_V1.0.2/MSDK/cloud/alicloud/src/sdk-impl\impl_dynreg.c ****     memset(&lite_item_code, 0, sizeof(lite_cjson_t));
 115:C:/Users/stapi/OneDrive/Desktop/GD32VW553/V1_MQTT_OK/GD32VW55X_Wifi_BLE_SDK/GD32VW55x_RELEASE_V1.0.2/MSDK/cloud/alicloud/src/sdk-impl\impl_dynreg.c ****     res = lite_cjson_object_item(&lite, "code", strlen("code"), &lite_item_code);
 116:C:/Users/stapi/OneDrive/Desktop/GD32VW553/V1_MQTT_OK/GD32VW55X_Wifi_BLE_SDK/GD32VW55x_RELEASE_V1.0.2/MSDK/cloud/alicloud/src/sdk-impl\impl_dynreg.c ****     if (res != SUCCESS_RETURN || !lite_cjson_is_number(&lite_item_code))
 117:C:/Users/stapi/OneDrive/Desktop/GD32VW553/V1_MQTT_OK/GD32VW55X_Wifi_BLE_SDK/GD32VW55x_RELEASE_V1.0.2/MSDK/cloud/alicloud/src/sdk-impl\impl_dynreg.c ****     {
 118:C:/Users/stapi/OneDrive/Desktop/GD32VW553/V1_MQTT_OK/GD32VW55X_Wifi_BLE_SDK/GD32VW55x_RELEASE_V1.0.2/MSDK/cloud/alicloud/src/sdk-impl\impl_dynreg.c ****         sdk_err("Http Response Payload Parse Failed");
 119:C:/Users/stapi/OneDrive/Desktop/GD32VW553/V1_MQTT_OK/GD32VW55X_Wifi_BLE_SDK/GD32VW55x_RELEASE_V1.0.2/MSDK/cloud/alicloud/src/sdk-impl\impl_dynreg.c ****         return FAIL_RETURN;
 120:C:/Users/stapi/OneDrive/Desktop/GD32VW553/V1_MQTT_OK/GD32VW55X_Wifi_BLE_SDK/GD32VW55x_RELEASE_V1.0.2/MSDK/cloud/alicloud/src/sdk-impl\impl_dynreg.c ****     }
 121:C:/Users/stapi/OneDrive/Desktop/GD32VW553/V1_MQTT_OK/GD32VW55X_Wifi_BLE_SDK/GD32VW55x_RELEASE_V1.0.2/MSDK/cloud/alicloud/src/sdk-impl\impl_dynreg.c ****     sdk_info("Dynamic Register Code: %d", lite_item_code.value_int);
 122:C:/Users/stapi/OneDrive/Desktop/GD32VW553/V1_MQTT_OK/GD32VW55X_Wifi_BLE_SDK/GD32VW55x_RELEASE_V1.0.2/MSDK/cloud/alicloud/src/sdk-impl\impl_dynreg.c **** 
 123:C:/Users/stapi/OneDrive/Desktop/GD32VW553/V1_MQTT_OK/GD32VW55X_Wifi_BLE_SDK/GD32VW55x_RELEASE_V1.0.2/MSDK/cloud/alicloud/src/sdk-impl\impl_dynreg.c ****     if (lite_item_code.value_int != 200)
 124:C:/Users/stapi/OneDrive/Desktop/GD32VW553/V1_MQTT_OK/GD32VW55X_Wifi_BLE_SDK/GD32VW55x_RELEASE_V1.0.2/MSDK/cloud/alicloud/src/sdk-impl\impl_dynreg.c ****     {
 125:C:/Users/stapi/OneDrive/Desktop/GD32VW553/V1_MQTT_OK/GD32VW55X_Wifi_BLE_SDK/GD32VW55x_RELEASE_V1.0.2/MSDK/cloud/alicloud/src/sdk-impl\impl_dynreg.c ****         return FAIL_RETURN;
 126:C:/Users/stapi/OneDrive/Desktop/GD32VW553/V1_MQTT_OK/GD32VW55X_Wifi_BLE_SDK/GD32VW55x_RELEASE_V1.0.2/MSDK/cloud/alicloud/src/sdk-impl\impl_dynreg.c ****     }
 127:C:/Users/stapi/OneDrive/Desktop/GD32VW553/V1_MQTT_OK/GD32VW55X_Wifi_BLE_SDK/GD32VW55x_RELEASE_V1.0.2/MSDK/cloud/alicloud/src/sdk-impl\impl_dynreg.c **** 
 128:C:/Users/stapi/OneDrive/Desktop/GD32VW553/V1_MQTT_OK/GD32VW55X_Wifi_BLE_SDK/GD32VW55x_RELEASE_V1.0.2/MSDK/cloud/alicloud/src/sdk-impl\impl_dynreg.c ****     /* Parse Data */
 129:C:/Users/stapi/OneDrive/Desktop/GD32VW553/V1_MQTT_OK/GD32VW55X_Wifi_BLE_SDK/GD32VW55x_RELEASE_V1.0.2/MSDK/cloud/alicloud/src/sdk-impl\impl_dynreg.c ****     memset(&lite_item_data, 0, sizeof(lite_cjson_t));
 130:C:/Users/stapi/OneDrive/Desktop/GD32VW553/V1_MQTT_OK/GD32VW55X_Wifi_BLE_SDK/GD32VW55x_RELEASE_V1.0.2/MSDK/cloud/alicloud/src/sdk-impl\impl_dynreg.c ****     res = lite_cjson_object_item(&lite, "data", strlen("data"), &lite_item_data);
 131:C:/Users/stapi/OneDrive/Desktop/GD32VW553/V1_MQTT_OK/GD32VW55X_Wifi_BLE_SDK/GD32VW55x_RELEASE_V1.0.2/MSDK/cloud/alicloud/src/sdk-impl\impl_dynreg.c ****     if (res != SUCCESS_RETURN || !lite_cjson_is_object(&lite_item_data))
 132:C:/Users/stapi/OneDrive/Desktop/GD32VW553/V1_MQTT_OK/GD32VW55X_Wifi_BLE_SDK/GD32VW55x_RELEASE_V1.0.2/MSDK/cloud/alicloud/src/sdk-impl\impl_dynreg.c ****     {
 133:C:/Users/stapi/OneDrive/Desktop/GD32VW553/V1_MQTT_OK/GD32VW55X_Wifi_BLE_SDK/GD32VW55x_RELEASE_V1.0.2/MSDK/cloud/alicloud/src/sdk-impl\impl_dynreg.c ****         sdk_err("Http Response Payload Parse Failed");
 134:C:/Users/stapi/OneDrive/Desktop/GD32VW553/V1_MQTT_OK/GD32VW55X_Wifi_BLE_SDK/GD32VW55x_RELEASE_V1.0.2/MSDK/cloud/alicloud/src/sdk-impl\impl_dynreg.c ****         return FAIL_RETURN;
 135:C:/Users/stapi/OneDrive/Desktop/GD32VW553/V1_MQTT_OK/GD32VW55X_Wifi_BLE_SDK/GD32VW55x_RELEASE_V1.0.2/MSDK/cloud/alicloud/src/sdk-impl\impl_dynreg.c ****     }
 136:C:/Users/stapi/OneDrive/Desktop/GD32VW553/V1_MQTT_OK/GD32VW55X_Wifi_BLE_SDK/GD32VW55x_RELEASE_V1.0.2/MSDK/cloud/alicloud/src/sdk-impl\impl_dynreg.c **** 
 137:C:/Users/stapi/OneDrive/Desktop/GD32VW553/V1_MQTT_OK/GD32VW55X_Wifi_BLE_SDK/GD32VW55x_RELEASE_V1.0.2/MSDK/cloud/alicloud/src/sdk-impl\impl_dynreg.c ****     /* Ignore ProductKey and DeviceName, just parse DeviceSecret */
 138:C:/Users/stapi/OneDrive/Desktop/GD32VW553/V1_MQTT_OK/GD32VW55X_Wifi_BLE_SDK/GD32VW55x_RELEASE_V1.0.2/MSDK/cloud/alicloud/src/sdk-impl\impl_dynreg.c ****     memset(&lite_item_ds, 0, sizeof(lite_cjson_t));
 139:C:/Users/stapi/OneDrive/Desktop/GD32VW553/V1_MQTT_OK/GD32VW55X_Wifi_BLE_SDK/GD32VW55x_RELEASE_V1.0.2/MSDK/cloud/alicloud/src/sdk-impl\impl_dynreg.c ****     res = lite_cjson_object_item(&lite_item_data, "deviceSecret", strlen("deviceSecret"), &lite_ite
 140:C:/Users/stapi/OneDrive/Desktop/GD32VW553/V1_MQTT_OK/GD32VW55X_Wifi_BLE_SDK/GD32VW55x_RELEASE_V1.0.2/MSDK/cloud/alicloud/src/sdk-impl\impl_dynreg.c ****     if (res != SUCCESS_RETURN || !lite_cjson_is_string(&lite_item_ds))
 141:C:/Users/stapi/OneDrive/Desktop/GD32VW553/V1_MQTT_OK/GD32VW55X_Wifi_BLE_SDK/GD32VW55x_RELEASE_V1.0.2/MSDK/cloud/alicloud/src/sdk-impl\impl_dynreg.c ****     {
 142:C:/Users/stapi/OneDrive/Desktop/GD32VW553/V1_MQTT_OK/GD32VW55X_Wifi_BLE_SDK/GD32VW55x_RELEASE_V1.0.2/MSDK/cloud/alicloud/src/sdk-impl\impl_dynreg.c ****         sdk_err("Http Response Payload Parse Failed");
 143:C:/Users/stapi/OneDrive/Desktop/GD32VW553/V1_MQTT_OK/GD32VW55X_Wifi_BLE_SDK/GD32VW55x_RELEASE_V1.0.2/MSDK/cloud/alicloud/src/sdk-impl\impl_dynreg.c ****         return FAIL_RETURN;
 144:C:/Users/stapi/OneDrive/Desktop/GD32VW553/V1_MQTT_OK/GD32VW55X_Wifi_BLE_SDK/GD32VW55x_RELEASE_V1.0.2/MSDK/cloud/alicloud/src/sdk-impl\impl_dynreg.c ****     }
 145:C:/Users/stapi/OneDrive/Desktop/GD32VW553/V1_MQTT_OK/GD32VW55X_Wifi_BLE_SDK/GD32VW55x_RELEASE_V1.0.2/MSDK/cloud/alicloud/src/sdk-impl\impl_dynreg.c **** 
 146:C:/Users/stapi/OneDrive/Desktop/GD32VW553/V1_MQTT_OK/GD32VW55X_Wifi_BLE_SDK/GD32VW55x_RELEASE_V1.0.2/MSDK/cloud/alicloud/src/sdk-impl\impl_dynreg.c ****     sdk_info("Dynamic Register Device Secret: %.*s", lite_item_ds.value_length, lite_item_ds.value)
 147:C:/Users/stapi/OneDrive/Desktop/GD32VW553/V1_MQTT_OK/GD32VW55X_Wifi_BLE_SDK/GD32VW55x_RELEASE_V1.0.2/MSDK/cloud/alicloud/src/sdk-impl\impl_dynreg.c ****     if (lite_item_ds.value_length >= DEVICE_SECRET_MAXLEN)
 148:C:/Users/stapi/OneDrive/Desktop/GD32VW553/V1_MQTT_OK/GD32VW55X_Wifi_BLE_SDK/GD32VW55x_RELEASE_V1.0.2/MSDK/cloud/alicloud/src/sdk-impl\impl_dynreg.c ****     {
 149:C:/Users/stapi/OneDrive/Desktop/GD32VW553/V1_MQTT_OK/GD32VW55X_Wifi_BLE_SDK/GD32VW55x_RELEASE_V1.0.2/MSDK/cloud/alicloud/src/sdk-impl\impl_dynreg.c ****         return FAIL_RETURN;
 150:C:/Users/stapi/OneDrive/Desktop/GD32VW553/V1_MQTT_OK/GD32VW55X_Wifi_BLE_SDK/GD32VW55x_RELEASE_V1.0.2/MSDK/cloud/alicloud/src/sdk-impl\impl_dynreg.c ****     }
 151:C:/Users/stapi/OneDrive/Desktop/GD32VW553/V1_MQTT_OK/GD32VW55X_Wifi_BLE_SDK/GD32VW55x_RELEASE_V1.0.2/MSDK/cloud/alicloud/src/sdk-impl\impl_dynreg.c **** 
 152:C:/Users/stapi/OneDrive/Desktop/GD32VW553/V1_MQTT_OK/GD32VW55X_Wifi_BLE_SDK/GD32VW55x_RELEASE_V1.0.2/MSDK/cloud/alicloud/src/sdk-impl\impl_dynreg.c ****     memcpy(device_secret, lite_item_ds.value, lite_item_ds.value_length);
 153:C:/Users/stapi/OneDrive/Desktop/GD32VW553/V1_MQTT_OK/GD32VW55X_Wifi_BLE_SDK/GD32VW55x_RELEASE_V1.0.2/MSDK/cloud/alicloud/src/sdk-impl\impl_dynreg.c **** 
 154:C:/Users/stapi/OneDrive/Desktop/GD32VW553/V1_MQTT_OK/GD32VW55X_Wifi_BLE_SDK/GD32VW55x_RELEASE_V1.0.2/MSDK/cloud/alicloud/src/sdk-impl\impl_dynreg.c ****     return SUCCESS_RETURN;
 155:C:/Users/stapi/OneDrive/Desktop/GD32VW553/V1_MQTT_OK/GD32VW55X_Wifi_BLE_SDK/GD32VW55x_RELEASE_V1.0.2/MSDK/cloud/alicloud/src/sdk-impl\impl_dynreg.c **** }
 156:C:/Users/stapi/OneDrive/Desktop/GD32VW553/V1_MQTT_OK/GD32VW55X_Wifi_BLE_SDK/GD32VW55x_RELEASE_V1.0.2/MSDK/cloud/alicloud/src/sdk-impl\impl_dynreg.c **** 
 157:C:/Users/stapi/OneDrive/Desktop/GD32VW553/V1_MQTT_OK/GD32VW55X_Wifi_BLE_SDK/GD32VW55x_RELEASE_V1.0.2/MSDK/cloud/alicloud/src/sdk-impl\impl_dynreg.c **** int perform_dynamic_register(_IN_ char product_key[PRODUCT_KEY_MAXLEN],
 158:C:/Users/stapi/OneDrive/Desktop/GD32VW553/V1_MQTT_OK/GD32VW55X_Wifi_BLE_SDK/GD32VW55x_RELEASE_V1.0.2/MSDK/cloud/alicloud/src/sdk-impl\impl_dynreg.c ****                              _IN_ char product_secret[PRODUCT_SECRET_MAXLEN],
 159:C:/Users/stapi/OneDrive/Desktop/GD32VW553/V1_MQTT_OK/GD32VW55X_Wifi_BLE_SDK/GD32VW55x_RELEASE_V1.0.2/MSDK/cloud/alicloud/src/sdk-impl\impl_dynreg.c ****                              _IN_ char device_name[DEVICE_NAME_MAXLEN],
 160:C:/Users/stapi/OneDrive/Desktop/GD32VW553/V1_MQTT_OK/GD32VW55X_Wifi_BLE_SDK/GD32VW55x_RELEASE_V1.0.2/MSDK/cloud/alicloud/src/sdk-impl\impl_dynreg.c ****                              _OU_ char device_secret[DEVICE_SECRET_MAXLEN])
 161:C:/Users/stapi/OneDrive/Desktop/GD32VW553/V1_MQTT_OK/GD32VW55X_Wifi_BLE_SDK/GD32VW55x_RELEASE_V1.0.2/MSDK/cloud/alicloud/src/sdk-impl\impl_dynreg.c **** {
  98              		.loc 1 161 1
  99              		.cfi_startproc
 100              	.LVL0:
 101 0000 17030000 		call	t0,__riscv_save_9
 101      E7020300 
 102              		.cfi_offset 24, -40
 103              		.cfi_offset 23, -36
 104              		.cfi_offset 22, -32
 105              		.cfi_offset 21, -28
 106              		.cfi_offset 20, -24
 107              		.cfi_offset 19, -20
 108              		.cfi_offset 18, -16
 109              		.cfi_offset 9, -12
 110              		.cfi_offset 8, -8
 111              		.cfi_offset 1, -4
 112              		.cfi_def_cfa_offset 48
 162:C:/Users/stapi/OneDrive/Desktop/GD32VW553/V1_MQTT_OK/GD32VW55X_Wifi_BLE_SDK/GD32VW55x_RELEASE_V1.0.2/MSDK/cloud/alicloud/src/sdk-impl\impl_dynreg.c ****     int res = 0, dynamic_register_request_len = 0;
 113              		.loc 1 162 5
 114              	.LVL1:
 163:C:/Users/stapi/OneDrive/Desktop/GD32VW553/V1_MQTT_OK/GD32VW55X_Wifi_BLE_SDK/GD32VW55x_RELEASE_V1.0.2/MSDK/cloud/alicloud/src/sdk-impl\impl_dynreg.c ****     char sign[DYNAMIC_REGISTER_SIGN_LENGTH] = {0};
 115              		.loc 1 163 5
 161:C:/Users/stapi/OneDrive/Desktop/GD32VW553/V1_MQTT_OK/GD32VW55X_Wifi_BLE_SDK/GD32VW55x_RELEASE_V1.0.2/MSDK/cloud/alicloud/src/sdk-impl\impl_dynreg.c ****     int res = 0, dynamic_register_request_len = 0;
 116              		.loc 1 161 1 is_stmt 0
 117 0008 2971     		addi	sp,sp,-320
 118              		.cfi_def_cfa_offset 368
 161:C:/Users/stapi/OneDrive/Desktop/GD32VW553/V1_MQTT_OK/GD32VW55X_Wifi_BLE_SDK/GD32VW55x_RELEASE_V1.0.2/MSDK/cloud/alicloud/src/sdk-impl\impl_dynreg.c ****     int res = 0, dynamic_register_request_len = 0;
 119              		.loc 1 161 1
 120 000a AA8A     		mv	s5,a0
 121 000c AE8B     		mv	s7,a1
 122 000e 328B     		mv	s6,a2
 123              		.loc 1 163 10
 124 0010 8145     		li	a1,0
 125              	.LVL2:
 126 0012 1306D003 		li	a2,61
 127              	.LVL3:
 128 0016 0802     		addi	a0,sp,256
 129              	.LVL4:
 161:C:/Users/stapi/OneDrive/Desktop/GD32VW553/V1_MQTT_OK/GD32VW55X_Wifi_BLE_SDK/GD32VW55x_RELEASE_V1.0.2/MSDK/cloud/alicloud/src/sdk-impl\impl_dynreg.c ****     int res = 0, dynamic_register_request_len = 0;
 130              		.loc 1 161 1
 131 0018 B689     		mv	s3,a3
 132              		.loc 1 163 10
 133 001a 82DF     		sw	zero,252(sp)
 134 001c 97000000 		call	memset
 134      E7800000 
 135              	.LVL5:
 164:C:/Users/stapi/OneDrive/Desktop/GD32VW553/V1_MQTT_OK/GD32VW55X_Wifi_BLE_SDK/GD32VW55x_RELEASE_V1.0.2/MSDK/cloud/alicloud/src/sdk-impl\impl_dynreg.c ****     char random[DYNAMIC_REGISTER_RANDOM_KEY_LENGTH + 1] = {0};
 136              		.loc 1 164 5 is_stmt 1
 137              		.loc 1 164 10 is_stmt 0
 138 0024 02C8     		sw	zero,16(sp)
 139 0026 02CA     		sw	zero,20(sp)
 140 0028 02CC     		sw	zero,24(sp)
 141 002a 02CE     		sw	zero,28(sp)
 165:C:/Users/stapi/OneDrive/Desktop/GD32VW553/V1_MQTT_OK/GD32VW55X_Wifi_BLE_SDK/GD32VW55x_RELEASE_V1.0.2/MSDK/cloud/alicloud/src/sdk-impl\impl_dynreg.c ****     const char *dynamic_register_format = "productKey=%s&deviceName=%s&random=%s&sign=%s&signMethod
 142              		.loc 1 165 5 is_stmt 1
 143              	.LVL6:
 166:C:/Users/stapi/OneDrive/Desktop/GD32VW553/V1_MQTT_OK/GD32VW55X_Wifi_BLE_SDK/GD32VW55x_RELEASE_V1.0.2/MSDK/cloud/alicloud/src/sdk-impl\impl_dynreg.c ****     char *dynamic_register_request = NULL;
 144              		.loc 1 166 5
 167:C:/Users/stapi/OneDrive/Desktop/GD32VW553/V1_MQTT_OK/GD32VW55X_Wifi_BLE_SDK/GD32VW55x_RELEASE_V1.0.2/MSDK/cloud/alicloud/src/sdk-impl\impl_dynreg.c ****     char *dynamic_register_response = NULL;
 145              		.loc 1 167 5
 168:C:/Users/stapi/OneDrive/Desktop/GD32VW553/V1_MQTT_OK/GD32VW55X_Wifi_BLE_SDK/GD32VW55x_RELEASE_V1.0.2/MSDK/cloud/alicloud/src/sdk-impl\impl_dynreg.c **** 
 169:C:/Users/stapi/OneDrive/Desktop/GD32VW553/V1_MQTT_OK/GD32VW55X_Wifi_BLE_SDK/GD32VW55x_RELEASE_V1.0.2/MSDK/cloud/alicloud/src/sdk-impl\impl_dynreg.c ****     if ((product_key == NULL || strlen(product_key) >= PRODUCT_KEY_MAXLEN) ||
 146              		.loc 1 169 5
 147 002c 37040000 		lui	s0,%hi(.LC2)
 148              		.loc 1 169 8 is_stmt 0
 149 0030 63820A04 		beq	s5,zero,.L2
 150              		.loc 1 169 33 discriminator 1
 151 0034 5685     		mv	a0,s5
 152 0036 97000000 		call	strlen
 152      E7800000 
 153              	.LVL7:
 154              		.loc 1 169 30 discriminator 1
 155 003e D147     		li	a5,20
 156 0040 63EAA702 		bgtu	a0,a5,.L2
 157              		.loc 1 169 76 discriminator 2
 158 0044 63880B02 		beq	s7,zero,.L2
 170:C:/Users/stapi/OneDrive/Desktop/GD32VW553/V1_MQTT_OK/GD32VW55X_Wifi_BLE_SDK/GD32VW55x_RELEASE_V1.0.2/MSDK/cloud/alicloud/src/sdk-impl\impl_dynreg.c ****         (product_secret == NULL || strlen(product_secret) >= PRODUCT_SECRET_MAXLEN) ||
 159              		.loc 1 170 36
 160 0048 5E85     		mv	a0,s7
 161 004a 97000000 		call	strlen
 161      E7800000 
 162              	.LVL8:
 163              		.loc 1 170 33
 164 0052 93070004 		li	a5,64
 165 0056 63EFA700 		bgtu	a0,a5,.L2
 166              		.loc 1 170 85 discriminator 1
 167 005a 630D0B00 		beq	s6,zero,.L2
 171:C:/Users/stapi/OneDrive/Desktop/GD32VW553/V1_MQTT_OK/GD32VW55X_Wifi_BLE_SDK/GD32VW55x_RELEASE_V1.0.2/MSDK/cloud/alicloud/src/sdk-impl\impl_dynreg.c ****         (device_name == NULL || strlen(device_name) >= DEVICE_NAME_MAXLEN) ||
 168              		.loc 1 171 33
 169 005e 5A85     		mv	a0,s6
 170 0060 97000000 		call	strlen
 170      E7800000 
 171              	.LVL9:
 172              		.loc 1 171 30
 173 0068 93070002 		li	a5,32
 174 006c 63E4A700 		bgtu	a0,a5,.L2
 175              		.loc 1 171 76 discriminator 1
 176 0070 63990902 		bne	s3,zero,.L3
 177              	.L2:
 172:C:/Users/stapi/OneDrive/Desktop/GD32VW553/V1_MQTT_OK/GD32VW55X_Wifi_BLE_SDK/GD32VW55x_RELEASE_V1.0.2/MSDK/cloud/alicloud/src/sdk-impl\impl_dynreg.c ****         (device_secret == NULL))
 173:C:/Users/stapi/OneDrive/Desktop/GD32VW553/V1_MQTT_OK/GD32VW55X_Wifi_BLE_SDK/GD32VW55x_RELEASE_V1.0.2/MSDK/cloud/alicloud/src/sdk-impl\impl_dynreg.c ****     {
 174:C:/Users/stapi/OneDrive/Desktop/GD32VW553/V1_MQTT_OK/GD32VW55X_Wifi_BLE_SDK/GD32VW55x_RELEASE_V1.0.2/MSDK/cloud/alicloud/src/sdk-impl\impl_dynreg.c ****         sdk_err("Invalid Parameter");
 178              		.loc 1 174 9 is_stmt 1
 179              		.loc 1 174 9
 180 0074 37050000 		lui	a0,%hi(.LC0)
 181 0078 13050500 		addi	a0,a0,%lo(.LC0)
 182 007c 97000000 		call	HAL_Printf
 182      E7800000 
 183              	.LVL10:
 184              		.loc 1 174 9
 185 0084 37050000 		lui	a0,%hi(.LC1)
 186 0088 13050500 		addi	a0,a0,%lo(.LC1)
 187              	.LVL11:
 188              	.L47:
 175:C:/Users/stapi/OneDrive/Desktop/GD32VW553/V1_MQTT_OK/GD32VW55X_Wifi_BLE_SDK/GD32VW55x_RELEASE_V1.0.2/MSDK/cloud/alicloud/src/sdk-impl\impl_dynreg.c ****         return FAIL_RETURN;
 176:C:/Users/stapi/OneDrive/Desktop/GD32VW553/V1_MQTT_OK/GD32VW55X_Wifi_BLE_SDK/GD32VW55x_RELEASE_V1.0.2/MSDK/cloud/alicloud/src/sdk-impl\impl_dynreg.c ****     }
 177:C:/Users/stapi/OneDrive/Desktop/GD32VW553/V1_MQTT_OK/GD32VW55X_Wifi_BLE_SDK/GD32VW55x_RELEASE_V1.0.2/MSDK/cloud/alicloud/src/sdk-impl\impl_dynreg.c **** 
 178:C:/Users/stapi/OneDrive/Desktop/GD32VW553/V1_MQTT_OK/GD32VW55X_Wifi_BLE_SDK/GD32VW55x_RELEASE_V1.0.2/MSDK/cloud/alicloud/src/sdk-impl\impl_dynreg.c ****     /* Calcute Signature */
 179:C:/Users/stapi/OneDrive/Desktop/GD32VW553/V1_MQTT_OK/GD32VW55X_Wifi_BLE_SDK/GD32VW55x_RELEASE_V1.0.2/MSDK/cloud/alicloud/src/sdk-impl\impl_dynreg.c ****     res = _calc_dynreg_sign(product_key, product_secret, device_name, random, sign);
 180:C:/Users/stapi/OneDrive/Desktop/GD32VW553/V1_MQTT_OK/GD32VW55X_Wifi_BLE_SDK/GD32VW55x_RELEASE_V1.0.2/MSDK/cloud/alicloud/src/sdk-impl\impl_dynreg.c ****     if (res != SUCCESS_RETURN)
 181:C:/Users/stapi/OneDrive/Desktop/GD32VW553/V1_MQTT_OK/GD32VW55X_Wifi_BLE_SDK/GD32VW55x_RELEASE_V1.0.2/MSDK/cloud/alicloud/src/sdk-impl\impl_dynreg.c ****     {
 182:C:/Users/stapi/OneDrive/Desktop/GD32VW553/V1_MQTT_OK/GD32VW55X_Wifi_BLE_SDK/GD32VW55x_RELEASE_V1.0.2/MSDK/cloud/alicloud/src/sdk-impl\impl_dynreg.c ****         sdk_err("Calculate Sign Failed");
 183:C:/Users/stapi/OneDrive/Desktop/GD32VW553/V1_MQTT_OK/GD32VW55X_Wifi_BLE_SDK/GD32VW55x_RELEASE_V1.0.2/MSDK/cloud/alicloud/src/sdk-impl\impl_dynreg.c ****         return FAIL_RETURN;
 184:C:/Users/stapi/OneDrive/Desktop/GD32VW553/V1_MQTT_OK/GD32VW55X_Wifi_BLE_SDK/GD32VW55x_RELEASE_V1.0.2/MSDK/cloud/alicloud/src/sdk-impl\impl_dynreg.c ****     }
 185:C:/Users/stapi/OneDrive/Desktop/GD32VW553/V1_MQTT_OK/GD32VW55X_Wifi_BLE_SDK/GD32VW55x_RELEASE_V1.0.2/MSDK/cloud/alicloud/src/sdk-impl\impl_dynreg.c **** 
 186:C:/Users/stapi/OneDrive/Desktop/GD32VW553/V1_MQTT_OK/GD32VW55X_Wifi_BLE_SDK/GD32VW55x_RELEASE_V1.0.2/MSDK/cloud/alicloud/src/sdk-impl\impl_dynreg.c ****     /* Assemble Http Dynamic Register Request Payload */
 187:C:/Users/stapi/OneDrive/Desktop/GD32VW553/V1_MQTT_OK/GD32VW55X_Wifi_BLE_SDK/GD32VW55x_RELEASE_V1.0.2/MSDK/cloud/alicloud/src/sdk-impl\impl_dynreg.c ****     dynamic_register_request_len = strlen(dynamic_register_format) + strlen(product_key) + strlen(d
 188:C:/Users/stapi/OneDrive/Desktop/GD32VW553/V1_MQTT_OK/GD32VW55X_Wifi_BLE_SDK/GD32VW55x_RELEASE_V1.0.2/MSDK/cloud/alicloud/src/sdk-impl\impl_dynreg.c ****                                    strlen(random) + strlen(sign) + strlen(DYNAMIC_REGISTER_SIGN_MET
 189:C:/Users/stapi/OneDrive/Desktop/GD32VW553/V1_MQTT_OK/GD32VW55X_Wifi_BLE_SDK/GD32VW55x_RELEASE_V1.0.2/MSDK/cloud/alicloud/src/sdk-impl\impl_dynreg.c ****     dynamic_register_request = IMPL_LINKKIT_DYNREG_MALLOC(dynamic_register_request_len);
 190:C:/Users/stapi/OneDrive/Desktop/GD32VW553/V1_MQTT_OK/GD32VW55X_Wifi_BLE_SDK/GD32VW55x_RELEASE_V1.0.2/MSDK/cloud/alicloud/src/sdk-impl\impl_dynreg.c ****     if (dynamic_register_request == NULL)
 191:C:/Users/stapi/OneDrive/Desktop/GD32VW553/V1_MQTT_OK/GD32VW55X_Wifi_BLE_SDK/GD32VW55x_RELEASE_V1.0.2/MSDK/cloud/alicloud/src/sdk-impl\impl_dynreg.c ****     {
 192:C:/Users/stapi/OneDrive/Desktop/GD32VW553/V1_MQTT_OK/GD32VW55X_Wifi_BLE_SDK/GD32VW55x_RELEASE_V1.0.2/MSDK/cloud/alicloud/src/sdk-impl\impl_dynreg.c ****         sdk_err("Not Enough Memory");
 193:C:/Users/stapi/OneDrive/Desktop/GD32VW553/V1_MQTT_OK/GD32VW55X_Wifi_BLE_SDK/GD32VW55x_RELEASE_V1.0.2/MSDK/cloud/alicloud/src/sdk-impl\impl_dynreg.c ****         return FAIL_RETURN;
 194:C:/Users/stapi/OneDrive/Desktop/GD32VW553/V1_MQTT_OK/GD32VW55X_Wifi_BLE_SDK/GD32VW55x_RELEASE_V1.0.2/MSDK/cloud/alicloud/src/sdk-impl\impl_dynreg.c ****     }
 195:C:/Users/stapi/OneDrive/Desktop/GD32VW553/V1_MQTT_OK/GD32VW55X_Wifi_BLE_SDK/GD32VW55x_RELEASE_V1.0.2/MSDK/cloud/alicloud/src/sdk-impl\impl_dynreg.c ****     memset(dynamic_register_request, 0, dynamic_register_request_len);
 196:C:/Users/stapi/OneDrive/Desktop/GD32VW553/V1_MQTT_OK/GD32VW55X_Wifi_BLE_SDK/GD32VW55x_RELEASE_V1.0.2/MSDK/cloud/alicloud/src/sdk-impl\impl_dynreg.c ****     HAL_Snprintf(dynamic_register_request, dynamic_register_request_len, dynamic_register_format,
 197:C:/Users/stapi/OneDrive/Desktop/GD32VW553/V1_MQTT_OK/GD32VW55X_Wifi_BLE_SDK/GD32VW55x_RELEASE_V1.0.2/MSDK/cloud/alicloud/src/sdk-impl\impl_dynreg.c ****                  product_key, device_name, random, sign, DYNAMIC_REGISTER_SIGN_METHOD_HMACSHA256);
 198:C:/Users/stapi/OneDrive/Desktop/GD32VW553/V1_MQTT_OK/GD32VW55X_Wifi_BLE_SDK/GD32VW55x_RELEASE_V1.0.2/MSDK/cloud/alicloud/src/sdk-impl\impl_dynreg.c **** 
 199:C:/Users/stapi/OneDrive/Desktop/GD32VW553/V1_MQTT_OK/GD32VW55X_Wifi_BLE_SDK/GD32VW55x_RELEASE_V1.0.2/MSDK/cloud/alicloud/src/sdk-impl\impl_dynreg.c ****     dynamic_register_response = IMPL_LINKKIT_DYNREG_MALLOC(HTTP_RESPONSE_PAYLOAD_LEN);
 200:C:/Users/stapi/OneDrive/Desktop/GD32VW553/V1_MQTT_OK/GD32VW55X_Wifi_BLE_SDK/GD32VW55x_RELEASE_V1.0.2/MSDK/cloud/alicloud/src/sdk-impl\impl_dynreg.c ****     if (dynamic_register_response == NULL)
 201:C:/Users/stapi/OneDrive/Desktop/GD32VW553/V1_MQTT_OK/GD32VW55X_Wifi_BLE_SDK/GD32VW55x_RELEASE_V1.0.2/MSDK/cloud/alicloud/src/sdk-impl\impl_dynreg.c ****     {
 202:C:/Users/stapi/OneDrive/Desktop/GD32VW553/V1_MQTT_OK/GD32VW55X_Wifi_BLE_SDK/GD32VW55x_RELEASE_V1.0.2/MSDK/cloud/alicloud/src/sdk-impl\impl_dynreg.c ****         sdk_err("Not Enough Memory");
 203:C:/Users/stapi/OneDrive/Desktop/GD32VW553/V1_MQTT_OK/GD32VW55X_Wifi_BLE_SDK/GD32VW55x_RELEASE_V1.0.2/MSDK/cloud/alicloud/src/sdk-impl\impl_dynreg.c ****         IMPL_LINKKIT_DYNREG_FREE(dynamic_register_request);
 204:C:/Users/stapi/OneDrive/Desktop/GD32VW553/V1_MQTT_OK/GD32VW55X_Wifi_BLE_SDK/GD32VW55x_RELEASE_V1.0.2/MSDK/cloud/alicloud/src/sdk-impl\impl_dynreg.c ****         return FAIL_RETURN;
 205:C:/Users/stapi/OneDrive/Desktop/GD32VW553/V1_MQTT_OK/GD32VW55X_Wifi_BLE_SDK/GD32VW55x_RELEASE_V1.0.2/MSDK/cloud/alicloud/src/sdk-impl\impl_dynreg.c ****     }
 206:C:/Users/stapi/OneDrive/Desktop/GD32VW553/V1_MQTT_OK/GD32VW55X_Wifi_BLE_SDK/GD32VW55x_RELEASE_V1.0.2/MSDK/cloud/alicloud/src/sdk-impl\impl_dynreg.c **** 
 207:C:/Users/stapi/OneDrive/Desktop/GD32VW553/V1_MQTT_OK/GD32VW55X_Wifi_BLE_SDK/GD32VW55x_RELEASE_V1.0.2/MSDK/cloud/alicloud/src/sdk-impl\impl_dynreg.c ****     /* Send Http Request For Getting Device Secret */
 208:C:/Users/stapi/OneDrive/Desktop/GD32VW553/V1_MQTT_OK/GD32VW55X_Wifi_BLE_SDK/GD32VW55x_RELEASE_V1.0.2/MSDK/cloud/alicloud/src/sdk-impl\impl_dynreg.c ****     res = _fetch_dynreg_http_resp(dynamic_register_request, dynamic_register_response, device_secre
 209:C:/Users/stapi/OneDrive/Desktop/GD32VW553/V1_MQTT_OK/GD32VW55X_Wifi_BLE_SDK/GD32VW55x_RELEASE_V1.0.2/MSDK/cloud/alicloud/src/sdk-impl\impl_dynreg.c ****     IMPL_LINKKIT_DYNREG_FREE(dynamic_register_request);
 210:C:/Users/stapi/OneDrive/Desktop/GD32VW553/V1_MQTT_OK/GD32VW55X_Wifi_BLE_SDK/GD32VW55x_RELEASE_V1.0.2/MSDK/cloud/alicloud/src/sdk-impl\impl_dynreg.c ****     IMPL_LINKKIT_DYNREG_FREE(dynamic_register_response);
 211:C:/Users/stapi/OneDrive/Desktop/GD32VW553/V1_MQTT_OK/GD32VW55X_Wifi_BLE_SDK/GD32VW55x_RELEASE_V1.0.2/MSDK/cloud/alicloud/src/sdk-impl\impl_dynreg.c ****     if (res != SUCCESS_RETURN)
 212:C:/Users/stapi/OneDrive/Desktop/GD32VW553/V1_MQTT_OK/GD32VW55X_Wifi_BLE_SDK/GD32VW55x_RELEASE_V1.0.2/MSDK/cloud/alicloud/src/sdk-impl\impl_dynreg.c ****     {
 213:C:/Users/stapi/OneDrive/Desktop/GD32VW553/V1_MQTT_OK/GD32VW55X_Wifi_BLE_SDK/GD32VW55x_RELEASE_V1.0.2/MSDK/cloud/alicloud/src/sdk-impl\impl_dynreg.c ****         sdk_err("Get Device Secret Failed");
 189              		.loc 1 213 9 is_stmt 0
 190 008c 97000000 		call	HAL_Printf
 190      E7800000 
 191              	.LVL12:
 192              		.loc 1 213 9 is_stmt 1
 193 0094 13050400 		addi	a0,s0,%lo(.LC2)
 194 0098 97000000 		call	HAL_Printf
 194      E7800000 
 195              	.LVL13:
 196 00a0 B1A4     		j	.L48
 197              	.LVL14:
 198              	.L3:
 179:C:/Users/stapi/OneDrive/Desktop/GD32VW553/V1_MQTT_OK/GD32VW55X_Wifi_BLE_SDK/GD32VW55x_RELEASE_V1.0.2/MSDK/cloud/alicloud/src/sdk-impl\impl_dynreg.c ****     if (res != SUCCESS_RETURN)
 199              		.loc 1 179 5
 200              	.LBB6:
 201              	.LBB7:
  19:C:/Users/stapi/OneDrive/Desktop/GD32VW553/V1_MQTT_OK/GD32VW55X_Wifi_BLE_SDK/GD32VW55x_RELEASE_V1.0.2/MSDK/cloud/alicloud/src/sdk-impl\impl_dynreg.c ****     char *sign_source = NULL;
 202              		.loc 1 19 5
  20:C:/Users/stapi/OneDrive/Desktop/GD32VW553/V1_MQTT_OK/GD32VW55X_Wifi_BLE_SDK/GD32VW55x_RELEASE_V1.0.2/MSDK/cloud/alicloud/src/sdk-impl\impl_dynreg.c ****     const char *dynamic_register_sign_fmt = "deviceName%sproductKey%srandom%s";
 203              		.loc 1 20 5
  21:C:/Users/stapi/OneDrive/Desktop/GD32VW553/V1_MQTT_OK/GD32VW55X_Wifi_BLE_SDK/GD32VW55x_RELEASE_V1.0.2/MSDK/cloud/alicloud/src/sdk-impl\impl_dynreg.c **** 
 204              		.loc 1 21 5
  24:C:/Users/stapi/OneDrive/Desktop/GD32VW553/V1_MQTT_OK/GD32VW55X_Wifi_BLE_SDK/GD32VW55x_RELEASE_V1.0.2/MSDK/cloud/alicloud/src/sdk-impl\impl_dynreg.c ****     if (res != SUCCESS_RETURN)
 205              		.loc 1 24 5
  24:C:/Users/stapi/OneDrive/Desktop/GD32VW553/V1_MQTT_OK/GD32VW55X_Wifi_BLE_SDK/GD32VW55x_RELEASE_V1.0.2/MSDK/cloud/alicloud/src/sdk-impl\impl_dynreg.c ****     if (res != SUCCESS_RETURN)
 206              		.loc 1 24 11 is_stmt 0
 207 00a2 BD45     		li	a1,15
 208 00a4 0808     		addi	a0,sp,16
 209              	.LVL15:
 210 00a6 97000000 		call	LITE_get_randstr
 210      E7800000 
 211              	.LVL16:
  25:C:/Users/stapi/OneDrive/Desktop/GD32VW553/V1_MQTT_OK/GD32VW55X_Wifi_BLE_SDK/GD32VW55x_RELEASE_V1.0.2/MSDK/cloud/alicloud/src/sdk-impl\impl_dynreg.c ****     {
 212              		.loc 1 25 5 is_stmt 1
  25:C:/Users/stapi/OneDrive/Desktop/GD32VW553/V1_MQTT_OK/GD32VW55X_Wifi_BLE_SDK/GD32VW55x_RELEASE_V1.0.2/MSDK/cloud/alicloud/src/sdk-impl\impl_dynreg.c ****     {
 213              		.loc 1 25 8 is_stmt 0
 214 00ae 1DC5     		beq	a0,zero,.L5
  27:C:/Users/stapi/OneDrive/Desktop/GD32VW553/V1_MQTT_OK/GD32VW55X_Wifi_BLE_SDK/GD32VW55x_RELEASE_V1.0.2/MSDK/cloud/alicloud/src/sdk-impl\impl_dynreg.c ****     }
 215              		.loc 1 27 9 is_stmt 1
  27:C:/Users/stapi/OneDrive/Desktop/GD32VW553/V1_MQTT_OK/GD32VW55X_Wifi_BLE_SDK/GD32VW55x_RELEASE_V1.0.2/MSDK/cloud/alicloud/src/sdk-impl\impl_dynreg.c ****     }
 216              		.loc 1 27 9
 217 00b0 37050000 		lui	a0,%hi(.LC0)
 218              	.LVL17:
 219 00b4 13050500 		addi	a0,a0,%lo(.LC0)
 220 00b8 97000000 		call	HAL_Printf
 220      E7800000 
 221              	.LVL18:
  27:C:/Users/stapi/OneDrive/Desktop/GD32VW553/V1_MQTT_OK/GD32VW55X_Wifi_BLE_SDK/GD32VW55x_RELEASE_V1.0.2/MSDK/cloud/alicloud/src/sdk-impl\impl_dynreg.c ****     }
 222              		.loc 1 27 9
 223 00c0 37050000 		lui	a0,%hi(.LC3)
 224 00c4 13050500 		addi	a0,a0,%lo(.LC3)
 225 00c8 97000000 		call	HAL_Printf
 225      E7800000 
 226              	.LVL19:
  27:C:/Users/stapi/OneDrive/Desktop/GD32VW553/V1_MQTT_OK/GD32VW55X_Wifi_BLE_SDK/GD32VW55x_RELEASE_V1.0.2/MSDK/cloud/alicloud/src/sdk-impl\impl_dynreg.c ****     }
 227              		.loc 1 27 9
 228 00d0 13050400 		addi	a0,s0,%lo(.LC2)
 229 00d4 97000000 		call	HAL_Printf
 229      E7800000 
 230              	.LVL20:
 231              	.L5:
  27:C:/Users/stapi/OneDrive/Desktop/GD32VW553/V1_MQTT_OK/GD32VW55X_Wifi_BLE_SDK/GD32VW55x_RELEASE_V1.0.2/MSDK/cloud/alicloud/src/sdk-impl\impl_dynreg.c ****     }
 232              		.loc 1 27 9
  29:C:/Users/stapi/OneDrive/Desktop/GD32VW553/V1_MQTT_OK/GD32VW55X_Wifi_BLE_SDK/GD32VW55x_RELEASE_V1.0.2/MSDK/cloud/alicloud/src/sdk-impl\impl_dynreg.c **** 
 233              		.loc 1 29 5
  29:C:/Users/stapi/OneDrive/Desktop/GD32VW553/V1_MQTT_OK/GD32VW55X_Wifi_BLE_SDK/GD32VW55x_RELEASE_V1.0.2/MSDK/cloud/alicloud/src/sdk-impl\impl_dynreg.c **** 
 234              		.loc 1 29 5
 235 00dc 370C0000 		lui	s8,%hi(.LC4)
 236 00e0 13050C00 		addi	a0,s8,%lo(.LC4)
 237 00e4 97000000 		call	HAL_Printf
 237      E7800000 
 238              	.LVL21:
  29:C:/Users/stapi/OneDrive/Desktop/GD32VW553/V1_MQTT_OK/GD32VW55X_Wifi_BLE_SDK/GD32VW55x_RELEASE_V1.0.2/MSDK/cloud/alicloud/src/sdk-impl\impl_dynreg.c **** 
 239              		.loc 1 29 5
 240 00ec 37050000 		lui	a0,%hi(.LC5)
 241 00f0 0C08     		addi	a1,sp,16
 242              	.LVL22:
 243 00f2 13050500 		addi	a0,a0,%lo(.LC5)
 244 00f6 97000000 		call	HAL_Printf
 244      E7800000 
 245              	.LVL23:
  29:C:/Users/stapi/OneDrive/Desktop/GD32VW553/V1_MQTT_OK/GD32VW55X_Wifi_BLE_SDK/GD32VW55x_RELEASE_V1.0.2/MSDK/cloud/alicloud/src/sdk-impl\impl_dynreg.c **** 
 246              		.loc 1 29 5
 247 00fe 13050400 		addi	a0,s0,%lo(.LC2)
 248 0102 97000000 		call	HAL_Printf
 248      E7800000 
 249              	.LVL24:
  29:C:/Users/stapi/OneDrive/Desktop/GD32VW553/V1_MQTT_OK/GD32VW55X_Wifi_BLE_SDK/GD32VW55x_RELEASE_V1.0.2/MSDK/cloud/alicloud/src/sdk-impl\impl_dynreg.c **** 
 250              		.loc 1 29 5
  32:C:/Users/stapi/OneDrive/Desktop/GD32VW553/V1_MQTT_OK/GD32VW55X_Wifi_BLE_SDK/GD32VW55x_RELEASE_V1.0.2/MSDK/cloud/alicloud/src/sdk-impl\impl_dynreg.c ****     sign_source = IMPL_LINKKIT_DYNREG_MALLOC(sign_source_len);
 251              		.loc 1 32 5
  32:C:/Users/stapi/OneDrive/Desktop/GD32VW553/V1_MQTT_OK/GD32VW55X_Wifi_BLE_SDK/GD32VW55x_RELEASE_V1.0.2/MSDK/cloud/alicloud/src/sdk-impl\impl_dynreg.c ****     sign_source = IMPL_LINKKIT_DYNREG_MALLOC(sign_source_len);
 252              		.loc 1 32 59 is_stmt 0
 253 010a 5A85     		mv	a0,s6
 254 010c 97000000 		call	strlen
 254      E7800000 
 255              	.LVL25:
 256 0114 2A89     		mv	s2,a0
  32:C:/Users/stapi/OneDrive/Desktop/GD32VW553/V1_MQTT_OK/GD32VW55X_Wifi_BLE_SDK/GD32VW55x_RELEASE_V1.0.2/MSDK/cloud/alicloud/src/sdk-impl\impl_dynreg.c ****     sign_source = IMPL_LINKKIT_DYNREG_MALLOC(sign_source_len);
 257              		.loc 1 32 81
 258 0116 5685     		mv	a0,s5
 259 0118 97000000 		call	strlen
 259      E7800000 
 260              	.LVL26:
 261 0120 AA84     		mv	s1,a0
  32:C:/Users/stapi/OneDrive/Desktop/GD32VW553/V1_MQTT_OK/GD32VW55X_Wifi_BLE_SDK/GD32VW55x_RELEASE_V1.0.2/MSDK/cloud/alicloud/src/sdk-impl\impl_dynreg.c ****     sign_source = IMPL_LINKKIT_DYNREG_MALLOC(sign_source_len);
 262              		.loc 1 32 118
 263 0122 CA94     		add	s1,s2,s1
  32:C:/Users/stapi/OneDrive/Desktop/GD32VW553/V1_MQTT_OK/GD32VW55X_Wifi_BLE_SDK/GD32VW55x_RELEASE_V1.0.2/MSDK/cloud/alicloud/src/sdk-impl\impl_dynreg.c ****     sign_source = IMPL_LINKKIT_DYNREG_MALLOC(sign_source_len);
 264              		.loc 1 32 103
 265 0124 0808     		addi	a0,sp,16
 266              	.LVL27:
 267 0126 97000000 		call	strlen
 267      E7800000 
 268              	.LVL28:
  32:C:/Users/stapi/OneDrive/Desktop/GD32VW553/V1_MQTT_OK/GD32VW55X_Wifi_BLE_SDK/GD32VW55x_RELEASE_V1.0.2/MSDK/cloud/alicloud/src/sdk-impl\impl_dynreg.c ****     sign_source = IMPL_LINKKIT_DYNREG_MALLOC(sign_source_len);
 269              		.loc 1 32 118
 270 012e 93841402 		addi	s1,s1,33
 271 0132 AA94     		add	s1,s1,a0
 272              	.LVL29:
  33:C:/Users/stapi/OneDrive/Desktop/GD32VW553/V1_MQTT_OK/GD32VW55X_Wifi_BLE_SDK/GD32VW55x_RELEASE_V1.0.2/MSDK/cloud/alicloud/src/sdk-impl\impl_dynreg.c ****     if (sign_source == NULL)
 273              		.loc 1 33 5 is_stmt 1
  33:C:/Users/stapi/OneDrive/Desktop/GD32VW553/V1_MQTT_OK/GD32VW55X_Wifi_BLE_SDK/GD32VW55x_RELEASE_V1.0.2/MSDK/cloud/alicloud/src/sdk-impl\impl_dynreg.c ****     if (sign_source == NULL)
 274              		.loc 1 33 19 is_stmt 0
 275 0134 2686     		mv	a2,s1
 276 0136 8145     		li	a1,0
 277 0138 0145     		li	a0,0
 278 013a 97000000 		call	LITE_malloc_internal
 278      E7800000 
 279              	.LVL30:
 280 0142 2A89     		mv	s2,a0
 281              	.LVL31:
  34:C:/Users/stapi/OneDrive/Desktop/GD32VW553/V1_MQTT_OK/GD32VW55X_Wifi_BLE_SDK/GD32VW55x_RELEASE_V1.0.2/MSDK/cloud/alicloud/src/sdk-impl\impl_dynreg.c ****     {
 282              		.loc 1 34 5 is_stmt 1
 283 0144 628A     		mv	s4,s8
  34:C:/Users/stapi/OneDrive/Desktop/GD32VW553/V1_MQTT_OK/GD32VW55X_Wifi_BLE_SDK/GD32VW55x_RELEASE_V1.0.2/MSDK/cloud/alicloud/src/sdk-impl\impl_dynreg.c ****     {
 284              		.loc 1 34 8 is_stmt 0
 285 0146 31E1     		bne	a0,zero,.L6
  36:C:/Users/stapi/OneDrive/Desktop/GD32VW553/V1_MQTT_OK/GD32VW55X_Wifi_BLE_SDK/GD32VW55x_RELEASE_V1.0.2/MSDK/cloud/alicloud/src/sdk-impl\impl_dynreg.c ****         return FAIL_RETURN;
 286              		.loc 1 36 9 is_stmt 1
  36:C:/Users/stapi/OneDrive/Desktop/GD32VW553/V1_MQTT_OK/GD32VW55X_Wifi_BLE_SDK/GD32VW55x_RELEASE_V1.0.2/MSDK/cloud/alicloud/src/sdk-impl\impl_dynreg.c ****         return FAIL_RETURN;
 287              		.loc 1 36 9
 288 0148 B7040000 		lui	s1,%hi(.LC0)
 289              	.LVL32:
 290 014c 13850400 		addi	a0,s1,%lo(.LC0)
 291              	.LVL33:
 292 0150 97000000 		call	HAL_Printf
 292      E7800000 
 293              	.LVL34:
  36:C:/Users/stapi/OneDrive/Desktop/GD32VW553/V1_MQTT_OK/GD32VW55X_Wifi_BLE_SDK/GD32VW55x_RELEASE_V1.0.2/MSDK/cloud/alicloud/src/sdk-impl\impl_dynreg.c ****         return FAIL_RETURN;
 294              		.loc 1 36 9
 295 0158 37050000 		lui	a0,%hi(.LC6)
 296 015c 13050500 		addi	a0,a0,%lo(.LC6)
 297 0160 97000000 		call	HAL_Printf
 297      E7800000 
 298              	.LVL35:
  36:C:/Users/stapi/OneDrive/Desktop/GD32VW553/V1_MQTT_OK/GD32VW55X_Wifi_BLE_SDK/GD32VW55x_RELEASE_V1.0.2/MSDK/cloud/alicloud/src/sdk-impl\impl_dynreg.c ****         return FAIL_RETURN;
 299              		.loc 1 36 9
 300 0168 13050400 		addi	a0,s0,%lo(.LC2)
 301 016c 97000000 		call	HAL_Printf
 301      E7800000 
 302              	.LVL36:
  36:C:/Users/stapi/OneDrive/Desktop/GD32VW553/V1_MQTT_OK/GD32VW55X_Wifi_BLE_SDK/GD32VW55x_RELEASE_V1.0.2/MSDK/cloud/alicloud/src/sdk-impl\impl_dynreg.c ****         return FAIL_RETURN;
 303              		.loc 1 36 9
  37:C:/Users/stapi/OneDrive/Desktop/GD32VW553/V1_MQTT_OK/GD32VW55X_Wifi_BLE_SDK/GD32VW55x_RELEASE_V1.0.2/MSDK/cloud/alicloud/src/sdk-impl\impl_dynreg.c ****     }
 304              		.loc 1 37 9
 305              	.LBE7:
 306              	.LBE6:
 180:C:/Users/stapi/OneDrive/Desktop/GD32VW553/V1_MQTT_OK/GD32VW55X_Wifi_BLE_SDK/GD32VW55x_RELEASE_V1.0.2/MSDK/cloud/alicloud/src/sdk-impl\impl_dynreg.c ****     {
 307              		.loc 1 180 5
 182:C:/Users/stapi/OneDrive/Desktop/GD32VW553/V1_MQTT_OK/GD32VW55X_Wifi_BLE_SDK/GD32VW55x_RELEASE_V1.0.2/MSDK/cloud/alicloud/src/sdk-impl\impl_dynreg.c ****         return FAIL_RETURN;
 308              		.loc 1 182 9
 182:C:/Users/stapi/OneDrive/Desktop/GD32VW553/V1_MQTT_OK/GD32VW55X_Wifi_BLE_SDK/GD32VW55x_RELEASE_V1.0.2/MSDK/cloud/alicloud/src/sdk-impl\impl_dynreg.c ****         return FAIL_RETURN;
 309              		.loc 1 182 9
 310 0174 13850400 		addi	a0,s1,%lo(.LC0)
 311 0178 97000000 		call	HAL_Printf
 311      E7800000 
 312              	.LVL37:
 182:C:/Users/stapi/OneDrive/Desktop/GD32VW553/V1_MQTT_OK/GD32VW55X_Wifi_BLE_SDK/GD32VW55x_RELEASE_V1.0.2/MSDK/cloud/alicloud/src/sdk-impl\impl_dynreg.c ****         return FAIL_RETURN;
 313              		.loc 1 182 9
 314 0180 37050000 		lui	a0,%hi(.LC7)
 315 0184 13050500 		addi	a0,a0,%lo(.LC7)
 316 0188 11B7     		j	.L47
 317              	.LVL38:
 318              	.L6:
 319              	.LBB9:
 320              	.LBB8:
  39:C:/Users/stapi/OneDrive/Desktop/GD32VW553/V1_MQTT_OK/GD32VW55X_Wifi_BLE_SDK/GD32VW55x_RELEASE_V1.0.2/MSDK/cloud/alicloud/src/sdk-impl\impl_dynreg.c ****     HAL_Snprintf(sign_source, sign_source_len, dynamic_register_sign_fmt, device_name, product_key,
 321              		.loc 1 39 5
 322 018a 2686     		mv	a2,s1
 323 018c 8145     		li	a1,0
 324 018e 97000000 		call	memset
 324      E7800000 
 325              	.LVL39:
  40:C:/Users/stapi/OneDrive/Desktop/GD32VW553/V1_MQTT_OK/GD32VW55X_Wifi_BLE_SDK/GD32VW55x_RELEASE_V1.0.2/MSDK/cloud/alicloud/src/sdk-impl\impl_dynreg.c **** 
 326              		.loc 1 40 5
 327 0196 37060000 		lui	a2,%hi(.LC8)
 328 019a 1C08     		addi	a5,sp,16
 329              	.LVL40:
 330 019c A685     		mv	a1,s1
 331 019e 5687     		mv	a4,s5
 332 01a0 DA86     		mv	a3,s6
 333 01a2 13060600 		addi	a2,a2,%lo(.LC8)
 334 01a6 4A85     		mv	a0,s2
 335 01a8 97000000 		call	HAL_Snprintf
 335      E7800000 
 336              	.LVL41:
  42:C:/Users/stapi/OneDrive/Desktop/GD32VW553/V1_MQTT_OK/GD32VW55X_Wifi_BLE_SDK/GD32VW55x_RELEASE_V1.0.2/MSDK/cloud/alicloud/src/sdk-impl\impl_dynreg.c ****     IMPL_LINKKIT_DYNREG_FREE(sign_source);
 337              		.loc 1 42 5
  42:C:/Users/stapi/OneDrive/Desktop/GD32VW553/V1_MQTT_OK/GD32VW55X_Wifi_BLE_SDK/GD32VW55x_RELEASE_V1.0.2/MSDK/cloud/alicloud/src/sdk-impl\impl_dynreg.c ****     IMPL_LINKKIT_DYNREG_FREE(sign_source);
 338              		.loc 1 42 36 is_stmt 0
 339 01b0 4A85     		mv	a0,s2
 340 01b2 97000000 		call	strlen
 340      E7800000 
 341              	.LVL42:
 342 01ba 2AC6     		sw	a0,12(sp)
  42:C:/Users/stapi/OneDrive/Desktop/GD32VW553/V1_MQTT_OK/GD32VW55X_Wifi_BLE_SDK/GD32VW55x_RELEASE_V1.0.2/MSDK/cloud/alicloud/src/sdk-impl\impl_dynreg.c ****     IMPL_LINKKIT_DYNREG_FREE(sign_source);
 343              		.loc 1 42 79
 344 01bc 5E85     		mv	a0,s7
 345 01be 97000000 		call	strlen
 345      E7800000 
 346              	.LVL43:
  42:C:/Users/stapi/OneDrive/Desktop/GD32VW553/V1_MQTT_OK/GD32VW55X_Wifi_BLE_SDK/GD32VW55x_RELEASE_V1.0.2/MSDK/cloud/alicloud/src/sdk-impl\impl_dynreg.c ****     IMPL_LINKKIT_DYNREG_FREE(sign_source);
 347              		.loc 1 42 5
 348 01c6 B245     		lw	a1,12(sp)
  42:C:/Users/stapi/OneDrive/Desktop/GD32VW553/V1_MQTT_OK/GD32VW55X_Wifi_BLE_SDK/GD32VW55x_RELEASE_V1.0.2/MSDK/cloud/alicloud/src/sdk-impl\impl_dynreg.c ****     IMPL_LINKKIT_DYNREG_FREE(sign_source);
 349              		.loc 1 42 79
 350 01c8 2A87     		mv	a4,a0
  42:C:/Users/stapi/OneDrive/Desktop/GD32VW553/V1_MQTT_OK/GD32VW55X_Wifi_BLE_SDK/GD32VW55x_RELEASE_V1.0.2/MSDK/cloud/alicloud/src/sdk-impl\impl_dynreg.c ****     IMPL_LINKKIT_DYNREG_FREE(sign_source);
 351              		.loc 1 42 5
 352 01ca DE86     		mv	a3,s7
 353 01cc F019     		addi	a2,sp,252
 354              	.LVL44:
 355 01ce 4A85     		mv	a0,s2
 356 01d0 97000000 		call	utils_hmac_sha256
 356      E7800000 
 357              	.LVL45:
  43:C:/Users/stapi/OneDrive/Desktop/GD32VW553/V1_MQTT_OK/GD32VW55X_Wifi_BLE_SDK/GD32VW55x_RELEASE_V1.0.2/MSDK/cloud/alicloud/src/sdk-impl\impl_dynreg.c ****     sdk_info("Sign: %s", sign);
 358              		.loc 1 43 5 is_stmt 1
 359 01d8 4A85     		mv	a0,s2
 360 01da 97000000 		call	LITE_free_internal
 360      E7800000 
 361              	.LVL46:
  44:C:/Users/stapi/OneDrive/Desktop/GD32VW553/V1_MQTT_OK/GD32VW55X_Wifi_BLE_SDK/GD32VW55x_RELEASE_V1.0.2/MSDK/cloud/alicloud/src/sdk-impl\impl_dynreg.c **** 
 362              		.loc 1 44 5
  44:C:/Users/stapi/OneDrive/Desktop/GD32VW553/V1_MQTT_OK/GD32VW55X_Wifi_BLE_SDK/GD32VW55x_RELEASE_V1.0.2/MSDK/cloud/alicloud/src/sdk-impl\impl_dynreg.c **** 
 363              		.loc 1 44 5
 364 01e2 13050C00 		addi	a0,s8,%lo(.LC4)
 365 01e6 97000000 		call	HAL_Printf
 365      E7800000 
 366              	.LVL47:
  44:C:/Users/stapi/OneDrive/Desktop/GD32VW553/V1_MQTT_OK/GD32VW55X_Wifi_BLE_SDK/GD32VW55x_RELEASE_V1.0.2/MSDK/cloud/alicloud/src/sdk-impl\impl_dynreg.c **** 
 367              		.loc 1 44 5
 368 01ee 37050000 		lui	a0,%hi(.LC9)
 369 01f2 EC19     		addi	a1,sp,252
 370              	.LVL48:
 371 01f4 13050500 		addi	a0,a0,%lo(.LC9)
 372 01f8 97000000 		call	HAL_Printf
 372      E7800000 
 373              	.LVL49:
  44:C:/Users/stapi/OneDrive/Desktop/GD32VW553/V1_MQTT_OK/GD32VW55X_Wifi_BLE_SDK/GD32VW55x_RELEASE_V1.0.2/MSDK/cloud/alicloud/src/sdk-impl\impl_dynreg.c **** 
 374              		.loc 1 44 5
 375 0200 13050400 		addi	a0,s0,%lo(.LC2)
 376 0204 97000000 		call	HAL_Printf
 376      E7800000 
 377              	.LVL50:
  44:C:/Users/stapi/OneDrive/Desktop/GD32VW553/V1_MQTT_OK/GD32VW55X_Wifi_BLE_SDK/GD32VW55x_RELEASE_V1.0.2/MSDK/cloud/alicloud/src/sdk-impl\impl_dynreg.c **** 
 378              		.loc 1 44 5
  46:C:/Users/stapi/OneDrive/Desktop/GD32VW553/V1_MQTT_OK/GD32VW55X_Wifi_BLE_SDK/GD32VW55x_RELEASE_V1.0.2/MSDK/cloud/alicloud/src/sdk-impl\impl_dynreg.c **** }
 379              		.loc 1 46 5
 380              	.LBE8:
 381              	.LBE9:
 180:C:/Users/stapi/OneDrive/Desktop/GD32VW553/V1_MQTT_OK/GD32VW55X_Wifi_BLE_SDK/GD32VW55x_RELEASE_V1.0.2/MSDK/cloud/alicloud/src/sdk-impl\impl_dynreg.c ****     {
 382              		.loc 1 180 5
 187:C:/Users/stapi/OneDrive/Desktop/GD32VW553/V1_MQTT_OK/GD32VW55X_Wifi_BLE_SDK/GD32VW55x_RELEASE_V1.0.2/MSDK/cloud/alicloud/src/sdk-impl\impl_dynreg.c ****                                    strlen(random) + strlen(sign) + strlen(DYNAMIC_REGISTER_SIGN_MET
 383              		.loc 1 187 5
 187:C:/Users/stapi/OneDrive/Desktop/GD32VW553/V1_MQTT_OK/GD32VW55X_Wifi_BLE_SDK/GD32VW55x_RELEASE_V1.0.2/MSDK/cloud/alicloud/src/sdk-impl\impl_dynreg.c ****                                    strlen(random) + strlen(sign) + strlen(DYNAMIC_REGISTER_SIGN_MET
 384              		.loc 1 187 70 is_stmt 0
 385 020c 5685     		mv	a0,s5
 386 020e 97000000 		call	strlen
 386      E7800000 
 387              	.LVL51:
 388 0216 2A89     		mv	s2,a0
 187:C:/Users/stapi/OneDrive/Desktop/GD32VW553/V1_MQTT_OK/GD32VW55X_Wifi_BLE_SDK/GD32VW55x_RELEASE_V1.0.2/MSDK/cloud/alicloud/src/sdk-impl\impl_dynreg.c ****                                    strlen(random) + strlen(sign) + strlen(DYNAMIC_REGISTER_SIGN_MET
 389              		.loc 1 187 92
 390 0218 5A85     		mv	a0,s6
 391 021a 97000000 		call	strlen
 391      E7800000 
 392              	.LVL52:
 393 0222 AA84     		mv	s1,a0
 188:C:/Users/stapi/OneDrive/Desktop/GD32VW553/V1_MQTT_OK/GD32VW55X_Wifi_BLE_SDK/GD32VW55x_RELEASE_V1.0.2/MSDK/cloud/alicloud/src/sdk-impl\impl_dynreg.c ****     dynamic_register_request = IMPL_LINKKIT_DYNREG_MALLOC(dynamic_register_request_len);
 394              		.loc 1 188 36
 395 0224 0808     		addi	a0,sp,16
 396 0226 97000000 		call	strlen
 396      E7800000 
 397              	.LVL53:
 188:C:/Users/stapi/OneDrive/Desktop/GD32VW553/V1_MQTT_OK/GD32VW55X_Wifi_BLE_SDK/GD32VW55x_RELEASE_V1.0.2/MSDK/cloud/alicloud/src/sdk-impl\impl_dynreg.c ****     dynamic_register_request = IMPL_LINKKIT_DYNREG_MALLOC(dynamic_register_request_len);
 398              		.loc 1 188 116
 399 022e CA94     		add	s1,s2,s1
 188:C:/Users/stapi/OneDrive/Desktop/GD32VW553/V1_MQTT_OK/GD32VW55X_Wifi_BLE_SDK/GD32VW55x_RELEASE_V1.0.2/MSDK/cloud/alicloud/src/sdk-impl\impl_dynreg.c ****     dynamic_register_request = IMPL_LINKKIT_DYNREG_MALLOC(dynamic_register_request_len);
 400              		.loc 1 188 36
 401 0230 AA8B     		mv	s7,a0
 402              	.LVL54:
 188:C:/Users/stapi/OneDrive/Desktop/GD32VW553/V1_MQTT_OK/GD32VW55X_Wifi_BLE_SDK/GD32VW55x_RELEASE_V1.0.2/MSDK/cloud/alicloud/src/sdk-impl\impl_dynreg.c ****     dynamic_register_request = IMPL_LINKKIT_DYNREG_MALLOC(dynamic_register_request_len);
 403              		.loc 1 188 116
 404 0232 93846404 		addi	s1,s1,70
 188:C:/Users/stapi/OneDrive/Desktop/GD32VW553/V1_MQTT_OK/GD32VW55X_Wifi_BLE_SDK/GD32VW55x_RELEASE_V1.0.2/MSDK/cloud/alicloud/src/sdk-impl\impl_dynreg.c ****     dynamic_register_request = IMPL_LINKKIT_DYNREG_MALLOC(dynamic_register_request_len);
 405              		.loc 1 188 53
 406 0236 E819     		addi	a0,sp,252
 407 0238 97000000 		call	strlen
 407      E7800000 
 408              	.LVL55:
 188:C:/Users/stapi/OneDrive/Desktop/GD32VW553/V1_MQTT_OK/GD32VW55X_Wifi_BLE_SDK/GD32VW55x_RELEASE_V1.0.2/MSDK/cloud/alicloud/src/sdk-impl\impl_dynreg.c ****     dynamic_register_request = IMPL_LINKKIT_DYNREG_MALLOC(dynamic_register_request_len);
 409              		.loc 1 188 116
 410 0240 DE94     		add	s1,s1,s7
 411 0242 AA94     		add	s1,s1,a0
 412              	.LVL56:
 189:C:/Users/stapi/OneDrive/Desktop/GD32VW553/V1_MQTT_OK/GD32VW55X_Wifi_BLE_SDK/GD32VW55x_RELEASE_V1.0.2/MSDK/cloud/alicloud/src/sdk-impl\impl_dynreg.c ****     if (dynamic_register_request == NULL)
 413              		.loc 1 189 5 is_stmt 1
 189:C:/Users/stapi/OneDrive/Desktop/GD32VW553/V1_MQTT_OK/GD32VW55X_Wifi_BLE_SDK/GD32VW55x_RELEASE_V1.0.2/MSDK/cloud/alicloud/src/sdk-impl\impl_dynreg.c ****     if (dynamic_register_request == NULL)
 414              		.loc 1 189 32 is_stmt 0
 415 0244 2686     		mv	a2,s1
 416 0246 8145     		li	a1,0
 417 0248 0145     		li	a0,0
 418 024a 97000000 		call	LITE_malloc_internal
 418      E7800000 
 419              	.LVL57:
 420 0252 2A89     		mv	s2,a0
 421              	.LVL58:
 190:C:/Users/stapi/OneDrive/Desktop/GD32VW553/V1_MQTT_OK/GD32VW55X_Wifi_BLE_SDK/GD32VW55x_RELEASE_V1.0.2/MSDK/cloud/alicloud/src/sdk-impl\impl_dynreg.c ****     {
 422              		.loc 1 190 5 is_stmt 1
 190:C:/Users/stapi/OneDrive/Desktop/GD32VW553/V1_MQTT_OK/GD32VW55X_Wifi_BLE_SDK/GD32VW55x_RELEASE_V1.0.2/MSDK/cloud/alicloud/src/sdk-impl\impl_dynreg.c ****     {
 423              		.loc 1 190 8 is_stmt 0
 424 0254 11ED     		bne	a0,zero,.L7
 192:C:/Users/stapi/OneDrive/Desktop/GD32VW553/V1_MQTT_OK/GD32VW55X_Wifi_BLE_SDK/GD32VW55x_RELEASE_V1.0.2/MSDK/cloud/alicloud/src/sdk-impl\impl_dynreg.c ****         return FAIL_RETURN;
 425              		.loc 1 192 9 is_stmt 1
 192:C:/Users/stapi/OneDrive/Desktop/GD32VW553/V1_MQTT_OK/GD32VW55X_Wifi_BLE_SDK/GD32VW55x_RELEASE_V1.0.2/MSDK/cloud/alicloud/src/sdk-impl\impl_dynreg.c ****         return FAIL_RETURN;
 426              		.loc 1 192 9
 427 0256 37050000 		lui	a0,%hi(.LC0)
 428              	.LVL59:
 429 025a 13050500 		addi	a0,a0,%lo(.LC0)
 430 025e 97000000 		call	HAL_Printf
 430      E7800000 
 431              	.LVL60:
 192:C:/Users/stapi/OneDrive/Desktop/GD32VW553/V1_MQTT_OK/GD32VW55X_Wifi_BLE_SDK/GD32VW55x_RELEASE_V1.0.2/MSDK/cloud/alicloud/src/sdk-impl\impl_dynreg.c ****         return FAIL_RETURN;
 432              		.loc 1 192 9
 433 0266 37050000 		lui	a0,%hi(.LC10)
 434 026a 13050500 		addi	a0,a0,%lo(.LC10)
 435 026e 39BD     		j	.L47
 436              	.LVL61:
 437              	.L7:
 195:C:/Users/stapi/OneDrive/Desktop/GD32VW553/V1_MQTT_OK/GD32VW55X_Wifi_BLE_SDK/GD32VW55x_RELEASE_V1.0.2/MSDK/cloud/alicloud/src/sdk-impl\impl_dynreg.c ****     HAL_Snprintf(dynamic_register_request, dynamic_register_request_len, dynamic_register_format,
 438              		.loc 1 195 5
 439 0270 2686     		mv	a2,s1
 440 0272 8145     		li	a1,0
 441 0274 97000000 		call	memset
 441      E7800000 
 442              	.LVL62:
 196:C:/Users/stapi/OneDrive/Desktop/GD32VW553/V1_MQTT_OK/GD32VW55X_Wifi_BLE_SDK/GD32VW55x_RELEASE_V1.0.2/MSDK/cloud/alicloud/src/sdk-impl\impl_dynreg.c ****                  product_key, device_name, random, sign, DYNAMIC_REGISTER_SIGN_METHOD_HMACSHA256);
 443              		.loc 1 196 5
 444 027c B7080000 		lui	a7,%hi(.LC11)
 445 0280 37060000 		lui	a2,%hi(.LC12)
 446 0284 D686     		mv	a3,s5
 447 0286 93880800 		addi	a7,a7,%lo(.LC11)
 448 028a 1308C10F 		addi	a6,sp,252
 449 028e 1C08     		addi	a5,sp,16
 450 0290 5A87     		mv	a4,s6
 451 0292 13060600 		addi	a2,a2,%lo(.LC12)
 452 0296 A685     		mv	a1,s1
 453 0298 4A85     		mv	a0,s2
 454 029a 97000000 		call	HAL_Snprintf
 454      E7800000 
 455              	.LVL63:
 199:C:/Users/stapi/OneDrive/Desktop/GD32VW553/V1_MQTT_OK/GD32VW55X_Wifi_BLE_SDK/GD32VW55x_RELEASE_V1.0.2/MSDK/cloud/alicloud/src/sdk-impl\impl_dynreg.c ****     if (dynamic_register_response == NULL)
 456              		.loc 1 199 5
 199:C:/Users/stapi/OneDrive/Desktop/GD32VW553/V1_MQTT_OK/GD32VW55X_Wifi_BLE_SDK/GD32VW55x_RELEASE_V1.0.2/MSDK/cloud/alicloud/src/sdk-impl\impl_dynreg.c ****     if (dynamic_register_response == NULL)
 457              		.loc 1 199 33 is_stmt 0
 458 02a2 13060010 		li	a2,256
 459 02a6 8145     		li	a1,0
 460 02a8 0145     		li	a0,0
 461 02aa 97000000 		call	LITE_malloc_internal
 461      E7800000 
 462              	.LVL64:
 463 02b2 AA8A     		mv	s5,a0
 464              	.LVL65:
 200:C:/Users/stapi/OneDrive/Desktop/GD32VW553/V1_MQTT_OK/GD32VW55X_Wifi_BLE_SDK/GD32VW55x_RELEASE_V1.0.2/MSDK/cloud/alicloud/src/sdk-impl\impl_dynreg.c ****     {
 465              		.loc 1 200 5 is_stmt 1
 200:C:/Users/stapi/OneDrive/Desktop/GD32VW553/V1_MQTT_OK/GD32VW55X_Wifi_BLE_SDK/GD32VW55x_RELEASE_V1.0.2/MSDK/cloud/alicloud/src/sdk-impl\impl_dynreg.c ****     {
 466              		.loc 1 200 8 is_stmt 0
 467 02b4 39E1     		bne	a0,zero,.L8
 202:C:/Users/stapi/OneDrive/Desktop/GD32VW553/V1_MQTT_OK/GD32VW55X_Wifi_BLE_SDK/GD32VW55x_RELEASE_V1.0.2/MSDK/cloud/alicloud/src/sdk-impl\impl_dynreg.c ****         IMPL_LINKKIT_DYNREG_FREE(dynamic_register_request);
 468              		.loc 1 202 9 is_stmt 1
 202:C:/Users/stapi/OneDrive/Desktop/GD32VW553/V1_MQTT_OK/GD32VW55X_Wifi_BLE_SDK/GD32VW55x_RELEASE_V1.0.2/MSDK/cloud/alicloud/src/sdk-impl\impl_dynreg.c ****         IMPL_LINKKIT_DYNREG_FREE(dynamic_register_request);
 469              		.loc 1 202 9
 470 02b6 37050000 		lui	a0,%hi(.LC0)
 471              	.LVL66:
 472 02ba 13050500 		addi	a0,a0,%lo(.LC0)
 473 02be 97000000 		call	HAL_Printf
 473      E7800000 
 474              	.LVL67:
 202:C:/Users/stapi/OneDrive/Desktop/GD32VW553/V1_MQTT_OK/GD32VW55X_Wifi_BLE_SDK/GD32VW55x_RELEASE_V1.0.2/MSDK/cloud/alicloud/src/sdk-impl\impl_dynreg.c ****         IMPL_LINKKIT_DYNREG_FREE(dynamic_register_request);
 475              		.loc 1 202 9
 476 02c6 37050000 		lui	a0,%hi(.LC10)
 477 02ca 13050500 		addi	a0,a0,%lo(.LC10)
 478 02ce 97000000 		call	HAL_Printf
 478      E7800000 
 479              	.LVL68:
 202:C:/Users/stapi/OneDrive/Desktop/GD32VW553/V1_MQTT_OK/GD32VW55X_Wifi_BLE_SDK/GD32VW55x_RELEASE_V1.0.2/MSDK/cloud/alicloud/src/sdk-impl\impl_dynreg.c ****         IMPL_LINKKIT_DYNREG_FREE(dynamic_register_request);
 480              		.loc 1 202 9
 481 02d6 13050400 		addi	a0,s0,%lo(.LC2)
 482 02da 97000000 		call	HAL_Printf
 482      E7800000 
 483              	.LVL69:
 202:C:/Users/stapi/OneDrive/Desktop/GD32VW553/V1_MQTT_OK/GD32VW55X_Wifi_BLE_SDK/GD32VW55x_RELEASE_V1.0.2/MSDK/cloud/alicloud/src/sdk-impl\impl_dynreg.c ****         IMPL_LINKKIT_DYNREG_FREE(dynamic_register_request);
 484              		.loc 1 202 9
 203:C:/Users/stapi/OneDrive/Desktop/GD32VW553/V1_MQTT_OK/GD32VW55X_Wifi_BLE_SDK/GD32VW55x_RELEASE_V1.0.2/MSDK/cloud/alicloud/src/sdk-impl\impl_dynreg.c ****         return FAIL_RETURN;
 485              		.loc 1 203 9
 486 02e2 4A85     		mv	a0,s2
 487 02e4 97000000 		call	LITE_free_internal
 487      E7800000 
 488              	.LVL70:
 204:C:/Users/stapi/OneDrive/Desktop/GD32VW553/V1_MQTT_OK/GD32VW55X_Wifi_BLE_SDK/GD32VW55x_RELEASE_V1.0.2/MSDK/cloud/alicloud/src/sdk-impl\impl_dynreg.c ****     }
 489              		.loc 1 204 9
 490              	.L48:
 491              		.loc 1 213 9
 214:C:/Users/stapi/OneDrive/Desktop/GD32VW553/V1_MQTT_OK/GD32VW55X_Wifi_BLE_SDK/GD32VW55x_RELEASE_V1.0.2/MSDK/cloud/alicloud/src/sdk-impl\impl_dynreg.c ****         return FAIL_RETURN;
 492              		.loc 1 214 9
 493              		.loc 1 214 16 is_stmt 0
 494 02ec FD54     		li	s1,-1
 495              	.L1:
 215:C:/Users/stapi/OneDrive/Desktop/GD32VW553/V1_MQTT_OK/GD32VW55X_Wifi_BLE_SDK/GD32VW55x_RELEASE_V1.0.2/MSDK/cloud/alicloud/src/sdk-impl\impl_dynreg.c ****     }
 216:C:/Users/stapi/OneDrive/Desktop/GD32VW553/V1_MQTT_OK/GD32VW55X_Wifi_BLE_SDK/GD32VW55x_RELEASE_V1.0.2/MSDK/cloud/alicloud/src/sdk-impl\impl_dynreg.c **** 
 217:C:/Users/stapi/OneDrive/Desktop/GD32VW553/V1_MQTT_OK/GD32VW55X_Wifi_BLE_SDK/GD32VW55x_RELEASE_V1.0.2/MSDK/cloud/alicloud/src/sdk-impl\impl_dynreg.c ****     return SUCCESS_RETURN;
 218:C:/Users/stapi/OneDrive/Desktop/GD32VW553/V1_MQTT_OK/GD32VW55X_Wifi_BLE_SDK/GD32VW55x_RELEASE_V1.0.2/MSDK/cloud/alicloud/src/sdk-impl\impl_dynreg.c **** }
 496              		.loc 1 218 1
 497 02ee 2685     		mv	a0,s1
 498 02f0 3161     		addi	sp,sp,320
 499              		.cfi_remember_state
 500              		.cfi_def_cfa_offset 0
 501 02f2 17030000 		tail	__riscv_restore_9
 501      67000300 
 502              		.cfi_restore 24
 503              		.cfi_restore 23
 504              		.cfi_restore 22
 505              		.cfi_restore 21
 506              		.cfi_restore 20
 507              		.cfi_restore 19
 508              		.cfi_restore 18
 509              		.cfi_restore 9
 510              		.cfi_restore 8
 511              		.cfi_restore 1
 512              		.cfi_def_cfa_offset -48
 513              	.LVL71:
 514              	.L8:
 515              		.cfi_restore_state
 208:C:/Users/stapi/OneDrive/Desktop/GD32VW553/V1_MQTT_OK/GD32VW55X_Wifi_BLE_SDK/GD32VW55x_RELEASE_V1.0.2/MSDK/cloud/alicloud/src/sdk-impl\impl_dynreg.c ****     IMPL_LINKKIT_DYNREG_FREE(dynamic_register_request);
 516              		.loc 1 208 5 is_stmt 1
 517              	.LBB10:
 518              	.LBB11:
  52:C:/Users/stapi/OneDrive/Desktop/GD32VW553/V1_MQTT_OK/GD32VW55X_Wifi_BLE_SDK/GD32VW55x_RELEASE_V1.0.2/MSDK/cloud/alicloud/src/sdk-impl\impl_dynreg.c ****     const char *domain = NULL;
 519              		.loc 1 52 5
  53:C:/Users/stapi/OneDrive/Desktop/GD32VW553/V1_MQTT_OK/GD32VW55X_Wifi_BLE_SDK/GD32VW55x_RELEASE_V1.0.2/MSDK/cloud/alicloud/src/sdk-impl\impl_dynreg.c ****     const char *url_format = "https://%s/auth/register/device";
 520              		.loc 1 53 5
  54:C:/Users/stapi/OneDrive/Desktop/GD32VW553/V1_MQTT_OK/GD32VW55X_Wifi_BLE_SDK/GD32VW55x_RELEASE_V1.0.2/MSDK/cloud/alicloud/src/sdk-impl\impl_dynreg.c ****     char *url = NULL;
 521              		.loc 1 54 5
  55:C:/Users/stapi/OneDrive/Desktop/GD32VW553/V1_MQTT_OK/GD32VW55X_Wifi_BLE_SDK/GD32VW55x_RELEASE_V1.0.2/MSDK/cloud/alicloud/src/sdk-impl\impl_dynreg.c ****     int url_len = 0;
 522              		.loc 1 55 5
  56:C:/Users/stapi/OneDrive/Desktop/GD32VW553/V1_MQTT_OK/GD32VW55X_Wifi_BLE_SDK/GD32VW55x_RELEASE_V1.0.2/MSDK/cloud/alicloud/src/sdk-impl\impl_dynreg.c ****     httpclient_t http_client;
 523              		.loc 1 56 5
  57:C:/Users/stapi/OneDrive/Desktop/GD32VW553/V1_MQTT_OK/GD32VW55X_Wifi_BLE_SDK/GD32VW55x_RELEASE_V1.0.2/MSDK/cloud/alicloud/src/sdk-impl\impl_dynreg.c ****     httpclient_data_t http_client_data;
 524              		.loc 1 57 5
  58:C:/Users/stapi/OneDrive/Desktop/GD32VW553/V1_MQTT_OK/GD32VW55X_Wifi_BLE_SDK/GD32VW55x_RELEASE_V1.0.2/MSDK/cloud/alicloud/src/sdk-impl\impl_dynreg.c ****     lite_cjson_t lite, lite_item_code, lite_item_data, lite_item_ds;
 525              		.loc 1 58 5
  59:C:/Users/stapi/OneDrive/Desktop/GD32VW553/V1_MQTT_OK/GD32VW55X_Wifi_BLE_SDK/GD32VW55x_RELEASE_V1.0.2/MSDK/cloud/alicloud/src/sdk-impl\impl_dynreg.c **** 
 526              		.loc 1 59 5
  61:C:/Users/stapi/OneDrive/Desktop/GD32VW553/V1_MQTT_OK/GD32VW55X_Wifi_BLE_SDK/GD32VW55x_RELEASE_V1.0.2/MSDK/cloud/alicloud/src/sdk-impl\impl_dynreg.c ****     memset(&http_client_data, 0, sizeof(httpclient_data_t));
 527              		.loc 1 61 5
 528 02fa 13064003 		li	a2,52
 529 02fe 8145     		li	a1,0
 530 0300 A801     		addi	a0,sp,200
 531              	.LVL72:
 532 0302 97000000 		call	memset
 532      E7800000 
 533              	.LVL73:
  62:C:/Users/stapi/OneDrive/Desktop/GD32VW553/V1_MQTT_OK/GD32VW55X_Wifi_BLE_SDK/GD32VW55x_RELEASE_V1.0.2/MSDK/cloud/alicloud/src/sdk-impl\impl_dynreg.c **** 
 534              		.loc 1 62 5
 535 030a 13068002 		li	a2,40
 536 030e 8145     		li	a1,0
 537 0310 0811     		addi	a0,sp,160
 538 0312 97000000 		call	memset
 538      E7800000 
 539              	.LVL74:
  64:C:/Users/stapi/OneDrive/Desktop/GD32VW553/V1_MQTT_OK/GD32VW55X_Wifi_BLE_SDK/GD32VW55x_RELEASE_V1.0.2/MSDK/cloud/alicloud/src/sdk-impl\impl_dynreg.c **** 
 540              		.loc 1 64 5
  66:C:/Users/stapi/OneDrive/Desktop/GD32VW553/V1_MQTT_OK/GD32VW55X_Wifi_BLE_SDK/GD32VW55x_RELEASE_V1.0.2/MSDK/cloud/alicloud/src/sdk-impl\impl_dynreg.c ****     if (NULL == domain)
 541              		.loc 1 66 5
  66:C:/Users/stapi/OneDrive/Desktop/GD32VW553/V1_MQTT_OK/GD32VW55X_Wifi_BLE_SDK/GD32VW55x_RELEASE_V1.0.2/MSDK/cloud/alicloud/src/sdk-impl\impl_dynreg.c ****     if (NULL == domain)
 542              		.loc 1 66 14 is_stmt 0
 543 031a 0945     		li	a0,2
 544 031c 97000000 		call	iotx_guider_get_domain
 544      E7800000 
 545              	.LVL75:
 546 0324 AA8B     		mv	s7,a0
 547              	.LVL76:
  67:C:/Users/stapi/OneDrive/Desktop/GD32VW553/V1_MQTT_OK/GD32VW55X_Wifi_BLE_SDK/GD32VW55x_RELEASE_V1.0.2/MSDK/cloud/alicloud/src/sdk-impl\impl_dynreg.c ****     {
 548              		.loc 1 67 5 is_stmt 1
  67:C:/Users/stapi/OneDrive/Desktop/GD32VW553/V1_MQTT_OK/GD32VW55X_Wifi_BLE_SDK/GD32VW55x_RELEASE_V1.0.2/MSDK/cloud/alicloud/src/sdk-impl\impl_dynreg.c ****     {
 549              		.loc 1 67 8 is_stmt 0
 550 0326 25E1     		bne	a0,zero,.L9
  69:C:/Users/stapi/OneDrive/Desktop/GD32VW553/V1_MQTT_OK/GD32VW55X_Wifi_BLE_SDK/GD32VW55x_RELEASE_V1.0.2/MSDK/cloud/alicloud/src/sdk-impl\impl_dynreg.c ****         return FAIL_RETURN;
 551              		.loc 1 69 9 is_stmt 1
  69:C:/Users/stapi/OneDrive/Desktop/GD32VW553/V1_MQTT_OK/GD32VW55X_Wifi_BLE_SDK/GD32VW55x_RELEASE_V1.0.2/MSDK/cloud/alicloud/src/sdk-impl\impl_dynreg.c ****         return FAIL_RETURN;
 552              		.loc 1 69 9
 553 0328 37050000 		lui	a0,%hi(.LC0)
 554              	.LVL77:
 555 032c 13050500 		addi	a0,a0,%lo(.LC0)
 556 0330 97000000 		call	HAL_Printf
 556      E7800000 
 557              	.LVL78:
  69:C:/Users/stapi/OneDrive/Desktop/GD32VW553/V1_MQTT_OK/GD32VW55X_Wifi_BLE_SDK/GD32VW55x_RELEASE_V1.0.2/MSDK/cloud/alicloud/src/sdk-impl\impl_dynreg.c ****         return FAIL_RETURN;
 558              		.loc 1 69 9
 559 0338 37050000 		lui	a0,%hi(.LC13)
 560 033c 13050500 		addi	a0,a0,%lo(.LC13)
 561              	.LVL79:
 562              	.L45:
  77:C:/Users/stapi/OneDrive/Desktop/GD32VW553/V1_MQTT_OK/GD32VW55X_Wifi_BLE_SDK/GD32VW55x_RELEASE_V1.0.2/MSDK/cloud/alicloud/src/sdk-impl\impl_dynreg.c **** 
 563              		.loc 1 77 9 is_stmt 0
 564 0340 97000000 		call	HAL_Printf
 564      E7800000 
 565              	.LVL80:
  77:C:/Users/stapi/OneDrive/Desktop/GD32VW553/V1_MQTT_OK/GD32VW55X_Wifi_BLE_SDK/GD32VW55x_RELEASE_V1.0.2/MSDK/cloud/alicloud/src/sdk-impl\impl_dynreg.c **** 
 566              		.loc 1 77 9 is_stmt 1
 567 0348 13050400 		addi	a0,s0,%lo(.LC2)
 568 034c 97000000 		call	HAL_Printf
 568      E7800000 
 569              	.LVL81:
 570              	.L46:
  77:C:/Users/stapi/OneDrive/Desktop/GD32VW553/V1_MQTT_OK/GD32VW55X_Wifi_BLE_SDK/GD32VW55x_RELEASE_V1.0.2/MSDK/cloud/alicloud/src/sdk-impl\impl_dynreg.c **** 
 571              		.loc 1 77 9
  79:C:/Users/stapi/OneDrive/Desktop/GD32VW553/V1_MQTT_OK/GD32VW55X_Wifi_BLE_SDK/GD32VW55x_RELEASE_V1.0.2/MSDK/cloud/alicloud/src/sdk-impl\impl_dynreg.c ****     }
 572              		.loc 1 79 9
  79:C:/Users/stapi/OneDrive/Desktop/GD32VW553/V1_MQTT_OK/GD32VW55X_Wifi_BLE_SDK/GD32VW55x_RELEASE_V1.0.2/MSDK/cloud/alicloud/src/sdk-impl\impl_dynreg.c ****     }
 573              		.loc 1 79 16 is_stmt 0
 574 0354 FD54     		li	s1,-1
 575              	.L10:
 576              	.LVL82:
 577              	.LBE11:
 578              	.LBE10:
 209:C:/Users/stapi/OneDrive/Desktop/GD32VW553/V1_MQTT_OK/GD32VW55X_Wifi_BLE_SDK/GD32VW55x_RELEASE_V1.0.2/MSDK/cloud/alicloud/src/sdk-impl\impl_dynreg.c ****     IMPL_LINKKIT_DYNREG_FREE(dynamic_register_response);
 579              		.loc 1 209 5 is_stmt 1
 580 0356 4A85     		mv	a0,s2
 581 0358 97000000 		call	LITE_free_internal
 581      E7800000 
 582              	.LVL83:
 210:C:/Users/stapi/OneDrive/Desktop/GD32VW553/V1_MQTT_OK/GD32VW55X_Wifi_BLE_SDK/GD32VW55x_RELEASE_V1.0.2/MSDK/cloud/alicloud/src/sdk-impl\impl_dynreg.c ****     if (res != SUCCESS_RETURN)
 583              		.loc 1 210 5
 584 0360 5685     		mv	a0,s5
 585 0362 97000000 		call	LITE_free_internal
 585      E7800000 
 586              	.LVL84:
 211:C:/Users/stapi/OneDrive/Desktop/GD32VW553/V1_MQTT_OK/GD32VW55X_Wifi_BLE_SDK/GD32VW55x_RELEASE_V1.0.2/MSDK/cloud/alicloud/src/sdk-impl\impl_dynreg.c ****     {
 587              		.loc 1 211 5
 211:C:/Users/stapi/OneDrive/Desktop/GD32VW553/V1_MQTT_OK/GD32VW55X_Wifi_BLE_SDK/GD32VW55x_RELEASE_V1.0.2/MSDK/cloud/alicloud/src/sdk-impl\impl_dynreg.c ****     {
 588              		.loc 1 211 8 is_stmt 0
 589 036a D1D0     		beq	s1,zero,.L1
 590              	.LVL85:
 213:C:/Users/stapi/OneDrive/Desktop/GD32VW553/V1_MQTT_OK/GD32VW55X_Wifi_BLE_SDK/GD32VW55x_RELEASE_V1.0.2/MSDK/cloud/alicloud/src/sdk-impl\impl_dynreg.c ****         return FAIL_RETURN;
 591              		.loc 1 213 9 is_stmt 1
 213:C:/Users/stapi/OneDrive/Desktop/GD32VW553/V1_MQTT_OK/GD32VW55X_Wifi_BLE_SDK/GD32VW55x_RELEASE_V1.0.2/MSDK/cloud/alicloud/src/sdk-impl\impl_dynreg.c ****         return FAIL_RETURN;
 592              		.loc 1 213 9
 593 036c 37050000 		lui	a0,%hi(.LC0)
 594 0370 13050500 		addi	a0,a0,%lo(.LC0)
 595 0374 97000000 		call	HAL_Printf
 595      E7800000 
 596              	.LVL86:
 213:C:/Users/stapi/OneDrive/Desktop/GD32VW553/V1_MQTT_OK/GD32VW55X_Wifi_BLE_SDK/GD32VW55x_RELEASE_V1.0.2/MSDK/cloud/alicloud/src/sdk-impl\impl_dynreg.c ****         return FAIL_RETURN;
 597              		.loc 1 213 9
 598 037c 37050000 		lui	a0,%hi(.LC26)
 599 0380 13050500 		addi	a0,a0,%lo(.LC26)
 600 0384 21B3     		j	.L47
 601              	.LVL87:
 602              	.L9:
 603              	.LBB13:
 604              	.LBB12:
  72:C:/Users/stapi/OneDrive/Desktop/GD32VW553/V1_MQTT_OK/GD32VW55X_Wifi_BLE_SDK/GD32VW55x_RELEASE_V1.0.2/MSDK/cloud/alicloud/src/sdk-impl\impl_dynreg.c **** 
 605              		.loc 1 72 5
  72:C:/Users/stapi/OneDrive/Desktop/GD32VW553/V1_MQTT_OK/GD32VW55X_Wifi_BLE_SDK/GD32VW55x_RELEASE_V1.0.2/MSDK/cloud/alicloud/src/sdk-impl\impl_dynreg.c **** 
 606              		.loc 1 72 16 is_stmt 0
 607 0386 97000000 		call	strlen
 607      E7800000 
 608              	.LVL88:
  72:C:/Users/stapi/OneDrive/Desktop/GD32VW553/V1_MQTT_OK/GD32VW55X_Wifi_BLE_SDK/GD32VW55x_RELEASE_V1.0.2/MSDK/cloud/alicloud/src/sdk-impl\impl_dynreg.c **** 
 609              		.loc 1 72 13
 610 038e 130B0502 		addi	s6,a0,32
 611              	.LVL89:
  74:C:/Users/stapi/OneDrive/Desktop/GD32VW553/V1_MQTT_OK/GD32VW55X_Wifi_BLE_SDK/GD32VW55x_RELEASE_V1.0.2/MSDK/cloud/alicloud/src/sdk-impl\impl_dynreg.c ****     if (NULL == url)
 612              		.loc 1 74 5 is_stmt 1
  74:C:/Users/stapi/OneDrive/Desktop/GD32VW553/V1_MQTT_OK/GD32VW55X_Wifi_BLE_SDK/GD32VW55x_RELEASE_V1.0.2/MSDK/cloud/alicloud/src/sdk-impl\impl_dynreg.c ****     if (NULL == url)
 613              		.loc 1 74 19 is_stmt 0
 614 0392 5A86     		mv	a2,s6
 615 0394 8145     		li	a1,0
 616 0396 0145     		li	a0,0
 617 0398 97000000 		call	LITE_malloc_internal
 617      E7800000 
 618              	.LVL90:
 619 03a0 AA84     		mv	s1,a0
 620              	.LVL91:
  75:C:/Users/stapi/OneDrive/Desktop/GD32VW553/V1_MQTT_OK/GD32VW55X_Wifi_BLE_SDK/GD32VW55x_RELEASE_V1.0.2/MSDK/cloud/alicloud/src/sdk-impl\impl_dynreg.c ****     {
 621              		.loc 1 75 5 is_stmt 1
  75:C:/Users/stapi/OneDrive/Desktop/GD32VW553/V1_MQTT_OK/GD32VW55X_Wifi_BLE_SDK/GD32VW55x_RELEASE_V1.0.2/MSDK/cloud/alicloud/src/sdk-impl\impl_dynreg.c ****     {
 622              		.loc 1 75 8 is_stmt 0
 623 03a2 11ED     		bne	a0,zero,.L11
  77:C:/Users/stapi/OneDrive/Desktop/GD32VW553/V1_MQTT_OK/GD32VW55X_Wifi_BLE_SDK/GD32VW55x_RELEASE_V1.0.2/MSDK/cloud/alicloud/src/sdk-impl\impl_dynreg.c **** 
 624              		.loc 1 77 9 is_stmt 1
  77:C:/Users/stapi/OneDrive/Desktop/GD32VW553/V1_MQTT_OK/GD32VW55X_Wifi_BLE_SDK/GD32VW55x_RELEASE_V1.0.2/MSDK/cloud/alicloud/src/sdk-impl\impl_dynreg.c **** 
 625              		.loc 1 77 9
 626 03a4 37050000 		lui	a0,%hi(.LC0)
 627 03a8 13050500 		addi	a0,a0,%lo(.LC0)
 628 03ac 97000000 		call	HAL_Printf
 628      E7800000 
 629              	.LVL92:
  77:C:/Users/stapi/OneDrive/Desktop/GD32VW553/V1_MQTT_OK/GD32VW55X_Wifi_BLE_SDK/GD32VW55x_RELEASE_V1.0.2/MSDK/cloud/alicloud/src/sdk-impl\impl_dynreg.c **** 
 630              		.loc 1 77 9
 631 03b4 37050000 		lui	a0,%hi(.LC14)
 632 03b8 13050500 		addi	a0,a0,%lo(.LC14)
 633 03bc 51B7     		j	.L45
 634              	.L11:
  82:C:/Users/stapi/OneDrive/Desktop/GD32VW553/V1_MQTT_OK/GD32VW55X_Wifi_BLE_SDK/GD32VW55x_RELEASE_V1.0.2/MSDK/cloud/alicloud/src/sdk-impl\impl_dynreg.c ****     HAL_Snprintf(url, url_len, url_format, domain);
 635              		.loc 1 82 5
 636 03be 5A86     		mv	a2,s6
 637 03c0 8145     		li	a1,0
 638 03c2 97000000 		call	memset
 638      E7800000 
 639              	.LVL93:
  83:C:/Users/stapi/OneDrive/Desktop/GD32VW553/V1_MQTT_OK/GD32VW55X_Wifi_BLE_SDK/GD32VW55x_RELEASE_V1.0.2/MSDK/cloud/alicloud/src/sdk-impl\impl_dynreg.c **** 
 640              		.loc 1 83 5
 641 03ca 37060000 		lui	a2,%hi(.LC15)
 642 03ce DA85     		mv	a1,s6
 643 03d0 DE86     		mv	a3,s7
 644 03d2 13060600 		addi	a2,a2,%lo(.LC15)
 645 03d6 2685     		mv	a0,s1
 646 03d8 97000000 		call	HAL_Snprintf
 646      E7800000 
 647              	.LVL94:
  85:C:/Users/stapi/OneDrive/Desktop/GD32VW553/V1_MQTT_OK/GD32VW55X_Wifi_BLE_SDK/GD32VW55x_RELEASE_V1.0.2/MSDK/cloud/alicloud/src/sdk-impl\impl_dynreg.c **** 
 648              		.loc 1 85 5
  85:C:/Users/stapi/OneDrive/Desktop/GD32VW553/V1_MQTT_OK/GD32VW55X_Wifi_BLE_SDK/GD32VW55x_RELEASE_V1.0.2/MSDK/cloud/alicloud/src/sdk-impl\impl_dynreg.c **** 
 649              		.loc 1 85 24 is_stmt 0
 650 03e0 B7070000 		lui	a5,%hi(.LC16)
 651 03e4 93870700 		addi	a5,a5,%lo(.LC16)
 652 03e8 BED9     		sw	a5,240(sp)
  87:C:/Users/stapi/OneDrive/Desktop/GD32VW553/V1_MQTT_OK/GD32VW55X_Wifi_BLE_SDK/GD32VW55x_RELEASE_V1.0.2/MSDK/cloud/alicloud/src/sdk-impl\impl_dynreg.c ****     http_client_data.post_buf = request_payload;
 653              		.loc 1 87 5 is_stmt 1
  87:C:/Users/stapi/OneDrive/Desktop/GD32VW553/V1_MQTT_OK/GD32VW55X_Wifi_BLE_SDK/GD32VW55x_RELEASE_V1.0.2/MSDK/cloud/alicloud/src/sdk-impl\impl_dynreg.c ****     http_client_data.post_buf = request_payload;
 654              		.loc 1 87 40 is_stmt 0
 655 03ea B7070000 		lui	a5,%hi(.LC17)
 656 03ee 93870700 		addi	a5,a5,%lo(.LC17)
  89:C:/Users/stapi/OneDrive/Desktop/GD32VW553/V1_MQTT_OK/GD32VW55X_Wifi_BLE_SDK/GD32VW55x_RELEASE_V1.0.2/MSDK/cloud/alicloud/src/sdk-impl\impl_dynreg.c ****     http_client_data.response_buf = response_payload;
 657              		.loc 1 89 37
 658 03f2 4A85     		mv	a0,s2
  87:C:/Users/stapi/OneDrive/Desktop/GD32VW553/V1_MQTT_OK/GD32VW55X_Wifi_BLE_SDK/GD32VW55x_RELEASE_V1.0.2/MSDK/cloud/alicloud/src/sdk-impl\impl_dynreg.c ****     http_client_data.post_buf = request_payload;
 659              		.loc 1 87 40
 660 03f4 3EDF     		sw	a5,188(sp)
  88:C:/Users/stapi/OneDrive/Desktop/GD32VW553/V1_MQTT_OK/GD32VW55X_Wifi_BLE_SDK/GD32VW55x_RELEASE_V1.0.2/MSDK/cloud/alicloud/src/sdk-impl\impl_dynreg.c ****     http_client_data.post_buf_len = strlen(request_payload);
 661              		.loc 1 88 5 is_stmt 1
  88:C:/Users/stapi/OneDrive/Desktop/GD32VW553/V1_MQTT_OK/GD32VW55X_Wifi_BLE_SDK/GD32VW55x_RELEASE_V1.0.2/MSDK/cloud/alicloud/src/sdk-impl\impl_dynreg.c ****     http_client_data.post_buf_len = strlen(request_payload);
 662              		.loc 1 88 31 is_stmt 0
 663 03f6 CAC1     		sw	s2,192(sp)
  89:C:/Users/stapi/OneDrive/Desktop/GD32VW553/V1_MQTT_OK/GD32VW55X_Wifi_BLE_SDK/GD32VW55x_RELEASE_V1.0.2/MSDK/cloud/alicloud/src/sdk-impl\impl_dynreg.c ****     http_client_data.response_buf = response_payload;
 664              		.loc 1 89 5 is_stmt 1
  89:C:/Users/stapi/OneDrive/Desktop/GD32VW553/V1_MQTT_OK/GD32VW55X_Wifi_BLE_SDK/GD32VW55x_RELEASE_V1.0.2/MSDK/cloud/alicloud/src/sdk-impl\impl_dynreg.c ****     http_client_data.response_buf = response_payload;
 665              		.loc 1 89 37 is_stmt 0
 666 03f8 97000000 		call	strlen
 666      E7800000 
 667              	.LVL95:
  91:C:/Users/stapi/OneDrive/Desktop/GD32VW553/V1_MQTT_OK/GD32VW55X_Wifi_BLE_SDK/GD32VW55x_RELEASE_V1.0.2/MSDK/cloud/alicloud/src/sdk-impl\impl_dynreg.c **** 
 668              		.loc 1 91 39
 669 0400 93070010 		li	a5,256
 670 0404 3EDD     		sw	a5,184(sp)
  89:C:/Users/stapi/OneDrive/Desktop/GD32VW553/V1_MQTT_OK/GD32VW55X_Wifi_BLE_SDK/GD32VW55x_RELEASE_V1.0.2/MSDK/cloud/alicloud/src/sdk-impl\impl_dynreg.c ****     http_client_data.response_buf = response_payload;
 671              		.loc 1 89 35
 672 0406 2ADB     		sw	a0,180(sp)
  90:C:/Users/stapi/OneDrive/Desktop/GD32VW553/V1_MQTT_OK/GD32VW55X_Wifi_BLE_SDK/GD32VW55x_RELEASE_V1.0.2/MSDK/cloud/alicloud/src/sdk-impl\impl_dynreg.c ****     http_client_data.response_buf_len = HTTP_RESPONSE_PAYLOAD_LEN;
 673              		.loc 1 90 5 is_stmt 1
  90:C:/Users/stapi/OneDrive/Desktop/GD32VW553/V1_MQTT_OK/GD32VW55X_Wifi_BLE_SDK/GD32VW55x_RELEASE_V1.0.2/MSDK/cloud/alicloud/src/sdk-impl\impl_dynreg.c ****     http_client_data.response_buf_len = HTTP_RESPONSE_PAYLOAD_LEN;
 674              		.loc 1 90 35 is_stmt 0
 675 0408 D6C3     		sw	s5,196(sp)
  91:C:/Users/stapi/OneDrive/Desktop/GD32VW553/V1_MQTT_OK/GD32VW55X_Wifi_BLE_SDK/GD32VW55x_RELEASE_V1.0.2/MSDK/cloud/alicloud/src/sdk-impl\impl_dynreg.c **** 
 676              		.loc 1 91 5 is_stmt 1
  93:C:/Users/stapi/OneDrive/Desktop/GD32VW553/V1_MQTT_OK/GD32VW55X_Wifi_BLE_SDK/GD32VW55x_RELEASE_V1.0.2/MSDK/cloud/alicloud/src/sdk-impl\impl_dynreg.c ****     httpclient_close(&http_client);
 677              		.loc 1 93 5
  93:C:/Users/stapi/OneDrive/Desktop/GD32VW553/V1_MQTT_OK/GD32VW55X_Wifi_BLE_SDK/GD32VW55x_RELEASE_V1.0.2/MSDK/cloud/alicloud/src/sdk-impl\impl_dynreg.c ****     httpclient_close(&http_client);
 678              		.loc 1 93 11 is_stmt 0
 679 040a 97000000 		call	iotx_ca_get
 679      E7800000 
 680              	.LVL96:
 681 0412 8967     		li	a5,8192
 682 0414 AA86     		mv	a3,a0
 683 0416 1308010A 		addi	a6,sp,160
 684 041a 93870771 		addi	a5,a5,1808
 685 041e 0547     		li	a4,1
 686 0420 1306B01B 		li	a2,443
 687 0424 A685     		mv	a1,s1
 688 0426 A801     		addi	a0,sp,200
 689 0428 97000000 		call	httpclient_common
 689      E7800000 
 690              	.LVL97:
 691 0430 2A8B     		mv	s6,a0
 692              	.LVL98:
  94:C:/Users/stapi/OneDrive/Desktop/GD32VW553/V1_MQTT_OK/GD32VW55X_Wifi_BLE_SDK/GD32VW55x_RELEASE_V1.0.2/MSDK/cloud/alicloud/src/sdk-impl\impl_dynreg.c ****     if (res != SUCCESS_RETURN)
 693              		.loc 1 94 5 is_stmt 1
 694 0432 A801     		addi	a0,sp,200
 695              	.LVL99:
 696 0434 97000000 		call	httpclient_close
 696      E7800000 
 697              	.LVL100:
  95:C:/Users/stapi/OneDrive/Desktop/GD32VW553/V1_MQTT_OK/GD32VW55X_Wifi_BLE_SDK/GD32VW55x_RELEASE_V1.0.2/MSDK/cloud/alicloud/src/sdk-impl\impl_dynreg.c ****     {
 698              		.loc 1 95 5
  95:C:/Users/stapi/OneDrive/Desktop/GD32VW553/V1_MQTT_OK/GD32VW55X_Wifi_BLE_SDK/GD32VW55x_RELEASE_V1.0.2/MSDK/cloud/alicloud/src/sdk-impl\impl_dynreg.c ****     {
 699              		.loc 1 95 8 is_stmt 0
 700 043c 630E0B02 		beq	s6,zero,.L12
  97:C:/Users/stapi/OneDrive/Desktop/GD32VW553/V1_MQTT_OK/GD32VW55X_Wifi_BLE_SDK/GD32VW55x_RELEASE_V1.0.2/MSDK/cloud/alicloud/src/sdk-impl\impl_dynreg.c ****         IMPL_LINKKIT_DYNREG_FREE(url);
 701              		.loc 1 97 9 is_stmt 1
  97:C:/Users/stapi/OneDrive/Desktop/GD32VW553/V1_MQTT_OK/GD32VW55X_Wifi_BLE_SDK/GD32VW55x_RELEASE_V1.0.2/MSDK/cloud/alicloud/src/sdk-impl\impl_dynreg.c ****         IMPL_LINKKIT_DYNREG_FREE(url);
 702              		.loc 1 97 9
 703 0440 37050000 		lui	a0,%hi(.LC0)
 704 0444 13050500 		addi	a0,a0,%lo(.LC0)
 705 0448 97000000 		call	HAL_Printf
 705      E7800000 
 706              	.LVL101:
  97:C:/Users/stapi/OneDrive/Desktop/GD32VW553/V1_MQTT_OK/GD32VW55X_Wifi_BLE_SDK/GD32VW55x_RELEASE_V1.0.2/MSDK/cloud/alicloud/src/sdk-impl\impl_dynreg.c ****         IMPL_LINKKIT_DYNREG_FREE(url);
 707              		.loc 1 97 9
 708 0450 37050000 		lui	a0,%hi(.LC18)
 709 0454 13050500 		addi	a0,a0,%lo(.LC18)
 710 0458 97000000 		call	HAL_Printf
 710      E7800000 
 711              	.LVL102:
  97:C:/Users/stapi/OneDrive/Desktop/GD32VW553/V1_MQTT_OK/GD32VW55X_Wifi_BLE_SDK/GD32VW55x_RELEASE_V1.0.2/MSDK/cloud/alicloud/src/sdk-impl\impl_dynreg.c ****         IMPL_LINKKIT_DYNREG_FREE(url);
 712              		.loc 1 97 9
 713 0460 13050400 		addi	a0,s0,%lo(.LC2)
 714 0464 97000000 		call	HAL_Printf
 714      E7800000 
 715              	.LVL103:
  97:C:/Users/stapi/OneDrive/Desktop/GD32VW553/V1_MQTT_OK/GD32VW55X_Wifi_BLE_SDK/GD32VW55x_RELEASE_V1.0.2/MSDK/cloud/alicloud/src/sdk-impl\impl_dynreg.c ****         IMPL_LINKKIT_DYNREG_FREE(url);
 716              		.loc 1 97 9
  98:C:/Users/stapi/OneDrive/Desktop/GD32VW553/V1_MQTT_OK/GD32VW55X_Wifi_BLE_SDK/GD32VW55x_RELEASE_V1.0.2/MSDK/cloud/alicloud/src/sdk-impl\impl_dynreg.c ****         return FAIL_RETURN;
 717              		.loc 1 98 9
 718 046c 2685     		mv	a0,s1
 719 046e 97000000 		call	LITE_free_internal
 719      E7800000 
 720              	.LVL104:
  99:C:/Users/stapi/OneDrive/Desktop/GD32VW553/V1_MQTT_OK/GD32VW55X_Wifi_BLE_SDK/GD32VW55x_RELEASE_V1.0.2/MSDK/cloud/alicloud/src/sdk-impl\impl_dynreg.c ****     }
 721              		.loc 1 99 9
 722 0476 F9BD     		j	.L46
 723              	.L12:
 101:C:/Users/stapi/OneDrive/Desktop/GD32VW553/V1_MQTT_OK/GD32VW55X_Wifi_BLE_SDK/GD32VW55x_RELEASE_V1.0.2/MSDK/cloud/alicloud/src/sdk-impl\impl_dynreg.c ****     sdk_info("Http Response Payload: %s", http_client_data.response_buf);
 724              		.loc 1 101 5
 725 0478 2685     		mv	a0,s1
 726 047a 97000000 		call	LITE_free_internal
 726      E7800000 
 727              	.LVL105:
 102:C:/Users/stapi/OneDrive/Desktop/GD32VW553/V1_MQTT_OK/GD32VW55X_Wifi_BLE_SDK/GD32VW55x_RELEASE_V1.0.2/MSDK/cloud/alicloud/src/sdk-impl\impl_dynreg.c **** 
 728              		.loc 1 102 5
 102:C:/Users/stapi/OneDrive/Desktop/GD32VW553/V1_MQTT_OK/GD32VW55X_Wifi_BLE_SDK/GD32VW55x_RELEASE_V1.0.2/MSDK/cloud/alicloud/src/sdk-impl\impl_dynreg.c **** 
 729              		.loc 1 102 5
 730 0482 13050C00 		addi	a0,s8,%lo(.LC4)
 731 0486 97000000 		call	HAL_Printf
 731      E7800000 
 732              	.LVL106:
 102:C:/Users/stapi/OneDrive/Desktop/GD32VW553/V1_MQTT_OK/GD32VW55X_Wifi_BLE_SDK/GD32VW55x_RELEASE_V1.0.2/MSDK/cloud/alicloud/src/sdk-impl\impl_dynreg.c **** 
 733              		.loc 1 102 5
 734 048e 9E45     		lw	a1,196(sp)
 735 0490 37050000 		lui	a0,%hi(.LC19)
 736 0494 13050500 		addi	a0,a0,%lo(.LC19)
 737 0498 97000000 		call	HAL_Printf
 737      E7800000 
 738              	.LVL107:
 102:C:/Users/stapi/OneDrive/Desktop/GD32VW553/V1_MQTT_OK/GD32VW55X_Wifi_BLE_SDK/GD32VW55x_RELEASE_V1.0.2/MSDK/cloud/alicloud/src/sdk-impl\impl_dynreg.c **** 
 739              		.loc 1 102 5
 740 04a0 13050400 		addi	a0,s0,%lo(.LC2)
 741 04a4 97000000 		call	HAL_Printf
 741      E7800000 
 742              	.LVL108:
 102:C:/Users/stapi/OneDrive/Desktop/GD32VW553/V1_MQTT_OK/GD32VW55X_Wifi_BLE_SDK/GD32VW55x_RELEASE_V1.0.2/MSDK/cloud/alicloud/src/sdk-impl\impl_dynreg.c **** 
 743              		.loc 1 102 5
 105:C:/Users/stapi/OneDrive/Desktop/GD32VW553/V1_MQTT_OK/GD32VW55X_Wifi_BLE_SDK/GD32VW55x_RELEASE_V1.0.2/MSDK/cloud/alicloud/src/sdk-impl\impl_dynreg.c ****     res = lite_cjson_parse(response_payload, strlen(response_payload), &lite);
 744              		.loc 1 105 5
 745 04ac 13060002 		li	a2,32
 746 04b0 8145     		li	a1,0
 747 04b2 0810     		addi	a0,sp,32
 748 04b4 97000000 		call	memset
 748      E7800000 
 749              	.LVL109:
 106:C:/Users/stapi/OneDrive/Desktop/GD32VW553/V1_MQTT_OK/GD32VW55X_Wifi_BLE_SDK/GD32VW55x_RELEASE_V1.0.2/MSDK/cloud/alicloud/src/sdk-impl\impl_dynreg.c ****     if (res != SUCCESS_RETURN || !lite_cjson_is_object(&lite))
 750              		.loc 1 106 5
 106:C:/Users/stapi/OneDrive/Desktop/GD32VW553/V1_MQTT_OK/GD32VW55X_Wifi_BLE_SDK/GD32VW55x_RELEASE_V1.0.2/MSDK/cloud/alicloud/src/sdk-impl\impl_dynreg.c ****     if (res != SUCCESS_RETURN || !lite_cjson_is_object(&lite))
 751              		.loc 1 106 46 is_stmt 0
 752 04bc 5685     		mv	a0,s5
 753 04be 97000000 		call	strlen
 753      E7800000 
 754              	.LVL110:
 755 04c6 AA85     		mv	a1,a0
 106:C:/Users/stapi/OneDrive/Desktop/GD32VW553/V1_MQTT_OK/GD32VW55X_Wifi_BLE_SDK/GD32VW55x_RELEASE_V1.0.2/MSDK/cloud/alicloud/src/sdk-impl\impl_dynreg.c ****     if (res != SUCCESS_RETURN || !lite_cjson_is_object(&lite))
 756              		.loc 1 106 11
 757 04c8 1010     		addi	a2,sp,32
 758 04ca 5685     		mv	a0,s5
 759 04cc 97000000 		call	lite_cjson_parse
 759      E7800000 
 760              	.LVL111:
 107:C:/Users/stapi/OneDrive/Desktop/GD32VW553/V1_MQTT_OK/GD32VW55X_Wifi_BLE_SDK/GD32VW55x_RELEASE_V1.0.2/MSDK/cloud/alicloud/src/sdk-impl\impl_dynreg.c ****     {
 761              		.loc 1 107 5 is_stmt 1
 107:C:/Users/stapi/OneDrive/Desktop/GD32VW553/V1_MQTT_OK/GD32VW55X_Wifi_BLE_SDK/GD32VW55x_RELEASE_V1.0.2/MSDK/cloud/alicloud/src/sdk-impl\impl_dynreg.c ****     {
 762              		.loc 1 107 8 is_stmt 0
 763 04d4 11CD     		beq	a0,zero,.L13
 764              	.LVL112:
 765              	.L14:
 109:C:/Users/stapi/OneDrive/Desktop/GD32VW553/V1_MQTT_OK/GD32VW55X_Wifi_BLE_SDK/GD32VW55x_RELEASE_V1.0.2/MSDK/cloud/alicloud/src/sdk-impl\impl_dynreg.c ****         return FAIL_RETURN;
 766              		.loc 1 109 9 is_stmt 1
 109:C:/Users/stapi/OneDrive/Desktop/GD32VW553/V1_MQTT_OK/GD32VW55X_Wifi_BLE_SDK/GD32VW55x_RELEASE_V1.0.2/MSDK/cloud/alicloud/src/sdk-impl\impl_dynreg.c ****         return FAIL_RETURN;
 767              		.loc 1 109 9
 768 04d6 37050000 		lui	a0,%hi(.LC0)
 769 04da 13050500 		addi	a0,a0,%lo(.LC0)
 770 04de 97000000 		call	HAL_Printf
 770      E7800000 
 771              	.LVL113:
 109:C:/Users/stapi/OneDrive/Desktop/GD32VW553/V1_MQTT_OK/GD32VW55X_Wifi_BLE_SDK/GD32VW55x_RELEASE_V1.0.2/MSDK/cloud/alicloud/src/sdk-impl\impl_dynreg.c ****         return FAIL_RETURN;
 772              		.loc 1 109 9
 773 04e6 37050000 		lui	a0,%hi(.LC20)
 774 04ea 13050500 		addi	a0,a0,%lo(.LC20)
 775 04ee 89BD     		j	.L45
 776              	.LVL114:
 777              	.L13:
 107:C:/Users/stapi/OneDrive/Desktop/GD32VW553/V1_MQTT_OK/GD32VW55X_Wifi_BLE_SDK/GD32VW55x_RELEASE_V1.0.2/MSDK/cloud/alicloud/src/sdk-impl\impl_dynreg.c ****     {
 778              		.loc 1 107 35 is_stmt 0
 779 04f0 0810     		addi	a0,sp,32
 780              	.LVL115:
 781 04f2 97000000 		call	lite_cjson_is_object
 781      E7800000 
 782              	.LVL116:
 107:C:/Users/stapi/OneDrive/Desktop/GD32VW553/V1_MQTT_OK/GD32VW55X_Wifi_BLE_SDK/GD32VW55x_RELEASE_V1.0.2/MSDK/cloud/alicloud/src/sdk-impl\impl_dynreg.c ****     {
 783              		.loc 1 107 31
 784 04fa 71DD     		beq	a0,zero,.L14
 114:C:/Users/stapi/OneDrive/Desktop/GD32VW553/V1_MQTT_OK/GD32VW55X_Wifi_BLE_SDK/GD32VW55x_RELEASE_V1.0.2/MSDK/cloud/alicloud/src/sdk-impl\impl_dynreg.c ****     res = lite_cjson_object_item(&lite, "code", strlen("code"), &lite_item_code);
 785              		.loc 1 114 5 is_stmt 1
 786 04fc 13060002 		li	a2,32
 787 0500 8145     		li	a1,0
 788 0502 8800     		addi	a0,sp,64
 789 0504 97000000 		call	memset
 789      E7800000 
 790              	.LVL117:
 115:C:/Users/stapi/OneDrive/Desktop/GD32VW553/V1_MQTT_OK/GD32VW55X_Wifi_BLE_SDK/GD32VW55x_RELEASE_V1.0.2/MSDK/cloud/alicloud/src/sdk-impl\impl_dynreg.c ****     if (res != SUCCESS_RETURN || !lite_cjson_is_number(&lite_item_code))
 791              		.loc 1 115 5
 115:C:/Users/stapi/OneDrive/Desktop/GD32VW553/V1_MQTT_OK/GD32VW55X_Wifi_BLE_SDK/GD32VW55x_RELEASE_V1.0.2/MSDK/cloud/alicloud/src/sdk-impl\impl_dynreg.c ****     if (res != SUCCESS_RETURN || !lite_cjson_is_number(&lite_item_code))
 792              		.loc 1 115 11 is_stmt 0
 793 050c B7050000 		lui	a1,%hi(.LC21)
 794 0510 9400     		addi	a3,sp,64
 795 0512 1146     		li	a2,4
 796 0514 93850500 		addi	a1,a1,%lo(.LC21)
 797 0518 0810     		addi	a0,sp,32
 798 051a 97000000 		call	lite_cjson_object_item
 798      E7800000 
 799              	.LVL118:
 116:C:/Users/stapi/OneDrive/Desktop/GD32VW553/V1_MQTT_OK/GD32VW55X_Wifi_BLE_SDK/GD32VW55x_RELEASE_V1.0.2/MSDK/cloud/alicloud/src/sdk-impl\impl_dynreg.c ****     {
 800              		.loc 1 116 5 is_stmt 1
 116:C:/Users/stapi/OneDrive/Desktop/GD32VW553/V1_MQTT_OK/GD32VW55X_Wifi_BLE_SDK/GD32VW55x_RELEASE_V1.0.2/MSDK/cloud/alicloud/src/sdk-impl\impl_dynreg.c ****     {
 801              		.loc 1 116 8 is_stmt 0
 802 0522 55F9     		bne	a0,zero,.L14
 116:C:/Users/stapi/OneDrive/Desktop/GD32VW553/V1_MQTT_OK/GD32VW55X_Wifi_BLE_SDK/GD32VW55x_RELEASE_V1.0.2/MSDK/cloud/alicloud/src/sdk-impl\impl_dynreg.c ****     {
 803              		.loc 1 116 35
 804 0524 8800     		addi	a0,sp,64
 805              	.LVL119:
 806 0526 97000000 		call	lite_cjson_is_number
 806      E7800000 
 807              	.LVL120:
 116:C:/Users/stapi/OneDrive/Desktop/GD32VW553/V1_MQTT_OK/GD32VW55X_Wifi_BLE_SDK/GD32VW55x_RELEASE_V1.0.2/MSDK/cloud/alicloud/src/sdk-impl\impl_dynreg.c ****     {
 808              		.loc 1 116 31
 809 052e 45D5     		beq	a0,zero,.L14
 121:C:/Users/stapi/OneDrive/Desktop/GD32VW553/V1_MQTT_OK/GD32VW55X_Wifi_BLE_SDK/GD32VW55x_RELEASE_V1.0.2/MSDK/cloud/alicloud/src/sdk-impl\impl_dynreg.c **** 
 810              		.loc 1 121 5 is_stmt 1
 121:C:/Users/stapi/OneDrive/Desktop/GD32VW553/V1_MQTT_OK/GD32VW55X_Wifi_BLE_SDK/GD32VW55x_RELEASE_V1.0.2/MSDK/cloud/alicloud/src/sdk-impl\impl_dynreg.c **** 
 811              		.loc 1 121 5
 812 0530 13050C00 		addi	a0,s8,%lo(.LC4)
 813 0534 97000000 		call	HAL_Printf
 813      E7800000 
 814              	.LVL121:
 121:C:/Users/stapi/OneDrive/Desktop/GD32VW553/V1_MQTT_OK/GD32VW55X_Wifi_BLE_SDK/GD32VW55x_RELEASE_V1.0.2/MSDK/cloud/alicloud/src/sdk-impl\impl_dynreg.c **** 
 815              		.loc 1 121 5
 816 053c E645     		lw	a1,88(sp)
 817 053e 37050000 		lui	a0,%hi(.LC22)
 818 0542 13050500 		addi	a0,a0,%lo(.LC22)
 819 0546 97000000 		call	HAL_Printf
 819      E7800000 
 820              	.LVL122:
 121:C:/Users/stapi/OneDrive/Desktop/GD32VW553/V1_MQTT_OK/GD32VW55X_Wifi_BLE_SDK/GD32VW55x_RELEASE_V1.0.2/MSDK/cloud/alicloud/src/sdk-impl\impl_dynreg.c **** 
 821              		.loc 1 121 5
 822 054e 13050400 		addi	a0,s0,%lo(.LC2)
 823 0552 97000000 		call	HAL_Printf
 823      E7800000 
 824              	.LVL123:
 121:C:/Users/stapi/OneDrive/Desktop/GD32VW553/V1_MQTT_OK/GD32VW55X_Wifi_BLE_SDK/GD32VW55x_RELEASE_V1.0.2/MSDK/cloud/alicloud/src/sdk-impl\impl_dynreg.c **** 
 825              		.loc 1 121 5
 123:C:/Users/stapi/OneDrive/Desktop/GD32VW553/V1_MQTT_OK/GD32VW55X_Wifi_BLE_SDK/GD32VW55x_RELEASE_V1.0.2/MSDK/cloud/alicloud/src/sdk-impl\impl_dynreg.c ****     {
 826              		.loc 1 123 5
 123:C:/Users/stapi/OneDrive/Desktop/GD32VW553/V1_MQTT_OK/GD32VW55X_Wifi_BLE_SDK/GD32VW55x_RELEASE_V1.0.2/MSDK/cloud/alicloud/src/sdk-impl\impl_dynreg.c ****     {
 827              		.loc 1 123 8 is_stmt 0
 828 055a 6647     		lw	a4,88(sp)
 829 055c 9307800C 		li	a5,200
 830 0560 E31AF7DE 		bne	a4,a5,.L46
 129:C:/Users/stapi/OneDrive/Desktop/GD32VW553/V1_MQTT_OK/GD32VW55X_Wifi_BLE_SDK/GD32VW55x_RELEASE_V1.0.2/MSDK/cloud/alicloud/src/sdk-impl\impl_dynreg.c ****     res = lite_cjson_object_item(&lite, "data", strlen("data"), &lite_item_data);
 831              		.loc 1 129 5 is_stmt 1
 832 0564 13060002 		li	a2,32
 833 0568 8145     		li	a1,0
 834 056a 8810     		addi	a0,sp,96
 835 056c 97000000 		call	memset
 835      E7800000 
 836              	.LVL124:
 130:C:/Users/stapi/OneDrive/Desktop/GD32VW553/V1_MQTT_OK/GD32VW55X_Wifi_BLE_SDK/GD32VW55x_RELEASE_V1.0.2/MSDK/cloud/alicloud/src/sdk-impl\impl_dynreg.c ****     if (res != SUCCESS_RETURN || !lite_cjson_is_object(&lite_item_data))
 837              		.loc 1 130 5
 130:C:/Users/stapi/OneDrive/Desktop/GD32VW553/V1_MQTT_OK/GD32VW55X_Wifi_BLE_SDK/GD32VW55x_RELEASE_V1.0.2/MSDK/cloud/alicloud/src/sdk-impl\impl_dynreg.c ****     if (res != SUCCESS_RETURN || !lite_cjson_is_object(&lite_item_data))
 838              		.loc 1 130 11 is_stmt 0
 839 0574 B7050000 		lui	a1,%hi(.LC23)
 840 0578 9410     		addi	a3,sp,96
 841 057a 1146     		li	a2,4
 842 057c 93850500 		addi	a1,a1,%lo(.LC23)
 843 0580 0810     		addi	a0,sp,32
 844 0582 97000000 		call	lite_cjson_object_item
 844      E7800000 
 845              	.LVL125:
 131:C:/Users/stapi/OneDrive/Desktop/GD32VW553/V1_MQTT_OK/GD32VW55X_Wifi_BLE_SDK/GD32VW55x_RELEASE_V1.0.2/MSDK/cloud/alicloud/src/sdk-impl\impl_dynreg.c ****     {
 846              		.loc 1 131 5 is_stmt 1
 131:C:/Users/stapi/OneDrive/Desktop/GD32VW553/V1_MQTT_OK/GD32VW55X_Wifi_BLE_SDK/GD32VW55x_RELEASE_V1.0.2/MSDK/cloud/alicloud/src/sdk-impl\impl_dynreg.c ****     {
 847              		.loc 1 131 8 is_stmt 0
 848 058a 31F5     		bne	a0,zero,.L14
 131:C:/Users/stapi/OneDrive/Desktop/GD32VW553/V1_MQTT_OK/GD32VW55X_Wifi_BLE_SDK/GD32VW55x_RELEASE_V1.0.2/MSDK/cloud/alicloud/src/sdk-impl\impl_dynreg.c ****     {
 849              		.loc 1 131 35
 850 058c 8810     		addi	a0,sp,96
 851              	.LVL126:
 852 058e 97000000 		call	lite_cjson_is_object
 852      E7800000 
 853              	.LVL127:
 131:C:/Users/stapi/OneDrive/Desktop/GD32VW553/V1_MQTT_OK/GD32VW55X_Wifi_BLE_SDK/GD32VW55x_RELEASE_V1.0.2/MSDK/cloud/alicloud/src/sdk-impl\impl_dynreg.c ****     {
 854              		.loc 1 131 31
 855 0596 21D1     		beq	a0,zero,.L14
 138:C:/Users/stapi/OneDrive/Desktop/GD32VW553/V1_MQTT_OK/GD32VW55X_Wifi_BLE_SDK/GD32VW55x_RELEASE_V1.0.2/MSDK/cloud/alicloud/src/sdk-impl\impl_dynreg.c ****     res = lite_cjson_object_item(&lite_item_data, "deviceSecret", strlen("deviceSecret"), &lite_ite
 856              		.loc 1 138 5 is_stmt 1
 857 0598 13060002 		li	a2,32
 858 059c 8145     		li	a1,0
 859 059e 0801     		addi	a0,sp,128
 860 05a0 97000000 		call	memset
 860      E7800000 
 861              	.LVL128:
 139:C:/Users/stapi/OneDrive/Desktop/GD32VW553/V1_MQTT_OK/GD32VW55X_Wifi_BLE_SDK/GD32VW55x_RELEASE_V1.0.2/MSDK/cloud/alicloud/src/sdk-impl\impl_dynreg.c ****     if (res != SUCCESS_RETURN || !lite_cjson_is_string(&lite_item_ds))
 862              		.loc 1 139 5
 139:C:/Users/stapi/OneDrive/Desktop/GD32VW553/V1_MQTT_OK/GD32VW55X_Wifi_BLE_SDK/GD32VW55x_RELEASE_V1.0.2/MSDK/cloud/alicloud/src/sdk-impl\impl_dynreg.c ****     if (res != SUCCESS_RETURN || !lite_cjson_is_string(&lite_item_ds))
 863              		.loc 1 139 11 is_stmt 0
 864 05a8 B7050000 		lui	a1,%hi(.LC24)
 865 05ac 1401     		addi	a3,sp,128
 866 05ae 3146     		li	a2,12
 867 05b0 93850500 		addi	a1,a1,%lo(.LC24)
 868 05b4 8810     		addi	a0,sp,96
 869 05b6 97000000 		call	lite_cjson_object_item
 869      E7800000 
 870              	.LVL129:
 871 05be AA84     		mv	s1,a0
 872              	.LVL130:
 140:C:/Users/stapi/OneDrive/Desktop/GD32VW553/V1_MQTT_OK/GD32VW55X_Wifi_BLE_SDK/GD32VW55x_RELEASE_V1.0.2/MSDK/cloud/alicloud/src/sdk-impl\impl_dynreg.c ****     {
 873              		.loc 1 140 5 is_stmt 1
 140:C:/Users/stapi/OneDrive/Desktop/GD32VW553/V1_MQTT_OK/GD32VW55X_Wifi_BLE_SDK/GD32VW55x_RELEASE_V1.0.2/MSDK/cloud/alicloud/src/sdk-impl\impl_dynreg.c ****     {
 874              		.loc 1 140 8 is_stmt 0
 875 05c0 19F9     		bne	a0,zero,.L14
 140:C:/Users/stapi/OneDrive/Desktop/GD32VW553/V1_MQTT_OK/GD32VW55X_Wifi_BLE_SDK/GD32VW55x_RELEASE_V1.0.2/MSDK/cloud/alicloud/src/sdk-impl\impl_dynreg.c ****     {
 876              		.loc 1 140 35
 877 05c2 0801     		addi	a0,sp,128
 878 05c4 97000000 		call	lite_cjson_is_string
 878      E7800000 
 879              	.LVL131:
 140:C:/Users/stapi/OneDrive/Desktop/GD32VW553/V1_MQTT_OK/GD32VW55X_Wifi_BLE_SDK/GD32VW55x_RELEASE_V1.0.2/MSDK/cloud/alicloud/src/sdk-impl\impl_dynreg.c ****     {
 880              		.loc 1 140 31
 881 05cc 09D5     		beq	a0,zero,.L14
 146:C:/Users/stapi/OneDrive/Desktop/GD32VW553/V1_MQTT_OK/GD32VW55X_Wifi_BLE_SDK/GD32VW55x_RELEASE_V1.0.2/MSDK/cloud/alicloud/src/sdk-impl\impl_dynreg.c ****     if (lite_item_ds.value_length >= DEVICE_SECRET_MAXLEN)
 882              		.loc 1 146 5 is_stmt 1
 146:C:/Users/stapi/OneDrive/Desktop/GD32VW553/V1_MQTT_OK/GD32VW55X_Wifi_BLE_SDK/GD32VW55x_RELEASE_V1.0.2/MSDK/cloud/alicloud/src/sdk-impl\impl_dynreg.c ****     if (lite_item_ds.value_length >= DEVICE_SECRET_MAXLEN)
 883              		.loc 1 146 5
 884 05ce 13050C00 		addi	a0,s8,%lo(.LC4)
 885 05d2 97000000 		call	HAL_Printf
 885      E7800000 
 886              	.LVL132:
 146:C:/Users/stapi/OneDrive/Desktop/GD32VW553/V1_MQTT_OK/GD32VW55X_Wifi_BLE_SDK/GD32VW55x_RELEASE_V1.0.2/MSDK/cloud/alicloud/src/sdk-impl\impl_dynreg.c ****     if (lite_item_ds.value_length >= DEVICE_SECRET_MAXLEN)
 887              		.loc 1 146 5
 888 05da 1A46     		lw	a2,132(sp)
 889 05dc AA45     		lw	a1,136(sp)
 890 05de 37050000 		lui	a0,%hi(.LC25)
 891 05e2 13050500 		addi	a0,a0,%lo(.LC25)
 892 05e6 97000000 		call	HAL_Printf
 892      E7800000 
 893              	.LVL133:
 146:C:/Users/stapi/OneDrive/Desktop/GD32VW553/V1_MQTT_OK/GD32VW55X_Wifi_BLE_SDK/GD32VW55x_RELEASE_V1.0.2/MSDK/cloud/alicloud/src/sdk-impl\impl_dynreg.c ****     if (lite_item_ds.value_length >= DEVICE_SECRET_MAXLEN)
 894              		.loc 1 146 5
 895 05ee 13050400 		addi	a0,s0,%lo(.LC2)
 896 05f2 97000000 		call	HAL_Printf
 896      E7800000 
 897              	.LVL134:
 146:C:/Users/stapi/OneDrive/Desktop/GD32VW553/V1_MQTT_OK/GD32VW55X_Wifi_BLE_SDK/GD32VW55x_RELEASE_V1.0.2/MSDK/cloud/alicloud/src/sdk-impl\impl_dynreg.c ****     if (lite_item_ds.value_length >= DEVICE_SECRET_MAXLEN)
 898              		.loc 1 146 5
 147:C:/Users/stapi/OneDrive/Desktop/GD32VW553/V1_MQTT_OK/GD32VW55X_Wifi_BLE_SDK/GD32VW55x_RELEASE_V1.0.2/MSDK/cloud/alicloud/src/sdk-impl\impl_dynreg.c ****     {
 899              		.loc 1 147 5
 147:C:/Users/stapi/OneDrive/Desktop/GD32VW553/V1_MQTT_OK/GD32VW55X_Wifi_BLE_SDK/GD32VW55x_RELEASE_V1.0.2/MSDK/cloud/alicloud/src/sdk-impl\impl_dynreg.c ****     {
 900              		.loc 1 147 21 is_stmt 0
 901 05fa 2A46     		lw	a2,136(sp)
 147:C:/Users/stapi/OneDrive/Desktop/GD32VW553/V1_MQTT_OK/GD32VW55X_Wifi_BLE_SDK/GD32VW55x_RELEASE_V1.0.2/MSDK/cloud/alicloud/src/sdk-impl\impl_dynreg.c ****     {
 902              		.loc 1 147 8
 903 05fc 93070004 		li	a5,64
 904 0600 E3CAC7D4 		bgt	a2,a5,.L46
 152:C:/Users/stapi/OneDrive/Desktop/GD32VW553/V1_MQTT_OK/GD32VW55X_Wifi_BLE_SDK/GD32VW55x_RELEASE_V1.0.2/MSDK/cloud/alicloud/src/sdk-impl\impl_dynreg.c **** 
 905              		.loc 1 152 5 is_stmt 1
 906 0604 9A45     		lw	a1,132(sp)
 907 0606 4E85     		mv	a0,s3
 908 0608 97000000 		call	memcpy
 908      E7800000 
 909              	.LVL135:
 154:C:/Users/stapi/OneDrive/Desktop/GD32VW553/V1_MQTT_OK/GD32VW55X_Wifi_BLE_SDK/GD32VW55x_RELEASE_V1.0.2/MSDK/cloud/alicloud/src/sdk-impl\impl_dynreg.c **** }
 910              		.loc 1 154 5
 154:C:/Users/stapi/OneDrive/Desktop/GD32VW553/V1_MQTT_OK/GD32VW55X_Wifi_BLE_SDK/GD32VW55x_RELEASE_V1.0.2/MSDK/cloud/alicloud/src/sdk-impl\impl_dynreg.c **** }
 911              		.loc 1 154 12 is_stmt 0
 912 0610 99B3     		j	.L10
 913              	.LBE12:
 914              	.LBE13:
 915              		.cfi_endproc
 916              	.LFE22:
 918              		.text
 919              	.Letext0:
 920              		.file 2 "c:\\users\\stapi\\onedrive\\desktop\\gd32vw553\\embeddedbuilder_v1.4.7.26843\\tools\\nucl
 921              		.file 3 "c:\\users\\stapi\\onedrive\\desktop\\gd32vw553\\embeddedbuilder_v1.4.7.26843\\tools\\nucl
 922              		.file 4 "..\\..\\..\\..\\cloud\\alicloud\\src\\infra\\utils\\misc/utils_net.h"
 923              		.file 5 "..\\..\\..\\..\\cloud\\alicloud\\src\\infra\\utils\\misc/utils_httpc.h"
 924              		.file 6 "..\\..\\..\\..\\cloud\\alicloud\\src\\infra\\utils\\misc/lite-cjson.h"
 925              		.file 7 "..\\..\\..\\..\\cloud\\alicloud\\include/exports/iot_export_errno.h"
 926              		.file 8 "..\\..\\..\\..\\cloud\\alicloud\\src\\infra\\system/iotx_system.h"
 927              		.file 9 "..\\..\\..\\..\\cloud\\alicloud\\src\\infra\\utils\\misc/string_utils.h"
 928              		.file 10 "..\\..\\..\\..\\cloud\\alicloud\\include/iot_import.h"
 929              		.file 11 "c:\\users\\stapi\\onedrive\\desktop\\gd32vw553\\embeddedbuilder_v1.4.7.26843\\tools\\nuc
 930              		.file 12 "..\\..\\..\\..\\cloud\\alicloud\\src\\infra\\utils/iotx_utils.h"
 931              		.file 13 "..\\..\\..\\..\\cloud\\alicloud\\src\\infra\\utils\\digest/utils_hmac.h"
 932              		.file 14 "<built-in>"