   1              		.file	"impl_ntp.c"
   2              		.option nopic
   3              		.attribute arch, "rv32i2p0_m2p0_a2p0_f2p0_c2p0_b_p0p94"
   4              		.attribute unaligned_access, 0
   5              		.attribute stack_align, 16
   6              		.text
   7              	.Ltext0:
   8              		.cfi_sections	.debug_frame
   9              		.section	.rodata.linkkit_ntp_time_reply.str1.4,"aMS",@progbits,1
  10              		.align	2
  11              	.LC0:
  12 0000 6E747020 		.string	"ntp reply len:%u, payload:%s\r\n"
  12      7265706C 
  12      79206C65 
  12      6E3A2575 
  12      2C207061 
  13 001f 00       		.align	2
  14              	.LC1:
  15 0020 5B6E7470 		.string	"[ntp]"
  15      5D00
  16 0026 0000     		.align	2
  17              	.LC2:
  18 0028 73657276 		.string	"serverSendTime"
  18      65725365 
  18      6E645469 
  18      6D6500
  19 0037 00       		.align	2
  20              	.LC3:
  21 0038 73657276 		.string	"serverRecvTime"
  21      65725265 
  21      63765469 
  21      6D6500
  22 0047 00       		.align	2
  23              	.LC4:
  24 0048 64657669 		.string	"deviceSendTime"
  24      63655365 
  24      6E645469 
  24      6D6500
  25 0057 00       		.align	2
  26              	.LC5:
  27 0058 25303975 		.string	"%09u"
  27      00
  28 005d 000000   		.align	2
  29              	.LC6:
  30 0060 257500   		.string	"%u"
  31              		.section	.text.linkkit_ntp_time_reply,"ax",@progbits
  32              		.align	1
  34              	linkkit_ntp_time_reply:
  35              	.LFB20:
  36              		.file 1 "C:/Users/stapi/OneDrive/Desktop/GD32VW553/V1_MQTT_OK/GD32VW55X_Wifi_BLE_SDK/GD32VW55x_REL
   1:C:/Users/stapi/OneDrive/Desktop/GD32VW553/V1_MQTT_OK/GD32VW55X_Wifi_BLE_SDK/GD32VW55x_RELEASE_V1.0.2/MSDK/cloud/alicloud/src/sdk-impl\impl_ntp.c **** /*
   2:C:/Users/stapi/OneDrive/Desktop/GD32VW553/V1_MQTT_OK/GD32VW55X_Wifi_BLE_SDK/GD32VW55x_RELEASE_V1.0.2/MSDK/cloud/alicloud/src/sdk-impl\impl_ntp.c ****  * Copyright (C) 2015-2019 Alibaba Group Holding Limited
   3:C:/Users/stapi/OneDrive/Desktop/GD32VW553/V1_MQTT_OK/GD32VW55X_Wifi_BLE_SDK/GD32VW55x_RELEASE_V1.0.2/MSDK/cloud/alicloud/src/sdk-impl\impl_ntp.c ****  */
   4:C:/Users/stapi/OneDrive/Desktop/GD32VW553/V1_MQTT_OK/GD32VW55X_Wifi_BLE_SDK/GD32VW55x_RELEASE_V1.0.2/MSDK/cloud/alicloud/src/sdk-impl\impl_ntp.c **** 
   5:C:/Users/stapi/OneDrive/Desktop/GD32VW553/V1_MQTT_OK/GD32VW55X_Wifi_BLE_SDK/GD32VW55x_RELEASE_V1.0.2/MSDK/cloud/alicloud/src/sdk-impl\impl_ntp.c **** #include <stdio.h>
   6:C:/Users/stapi/OneDrive/Desktop/GD32VW553/V1_MQTT_OK/GD32VW55X_Wifi_BLE_SDK/GD32VW55x_RELEASE_V1.0.2/MSDK/cloud/alicloud/src/sdk-impl\impl_ntp.c **** #include <string.h>
   7:C:/Users/stapi/OneDrive/Desktop/GD32VW553/V1_MQTT_OK/GD32VW55X_Wifi_BLE_SDK/GD32VW55x_RELEASE_V1.0.2/MSDK/cloud/alicloud/src/sdk-impl\impl_ntp.c **** #include "iotx_utils.h"
   8:C:/Users/stapi/OneDrive/Desktop/GD32VW553/V1_MQTT_OK/GD32VW55X_Wifi_BLE_SDK/GD32VW55x_RELEASE_V1.0.2/MSDK/cloud/alicloud/src/sdk-impl\impl_ntp.c **** #include "json_parser.h"
   9:C:/Users/stapi/OneDrive/Desktop/GD32VW553/V1_MQTT_OK/GD32VW55X_Wifi_BLE_SDK/GD32VW55x_RELEASE_V1.0.2/MSDK/cloud/alicloud/src/sdk-impl\impl_ntp.c **** #include "iot_export.h"
  10:C:/Users/stapi/OneDrive/Desktop/GD32VW553/V1_MQTT_OK/GD32VW55X_Wifi_BLE_SDK/GD32VW55x_RELEASE_V1.0.2/MSDK/cloud/alicloud/src/sdk-impl\impl_ntp.c **** #include "iotx_log.h"
  11:C:/Users/stapi/OneDrive/Desktop/GD32VW553/V1_MQTT_OK/GD32VW55X_Wifi_BLE_SDK/GD32VW55x_RELEASE_V1.0.2/MSDK/cloud/alicloud/src/sdk-impl\impl_ntp.c **** 
  12:C:/Users/stapi/OneDrive/Desktop/GD32VW553/V1_MQTT_OK/GD32VW55X_Wifi_BLE_SDK/GD32VW55x_RELEASE_V1.0.2/MSDK/cloud/alicloud/src/sdk-impl\impl_ntp.c **** #define TOPIC_NTP "/ext/ntp/%s/%s/request"
  13:C:/Users/stapi/OneDrive/Desktop/GD32VW553/V1_MQTT_OK/GD32VW55X_Wifi_BLE_SDK/GD32VW55x_RELEASE_V1.0.2/MSDK/cloud/alicloud/src/sdk-impl\impl_ntp.c **** #define TOPIC_NTP_REPLY "/ext/ntp/%s/%s/response"
  14:C:/Users/stapi/OneDrive/Desktop/GD32VW553/V1_MQTT_OK/GD32VW55X_Wifi_BLE_SDK/GD32VW55x_RELEASE_V1.0.2/MSDK/cloud/alicloud/src/sdk-impl\impl_ntp.c **** 
  15:C:/Users/stapi/OneDrive/Desktop/GD32VW553/V1_MQTT_OK/GD32VW55X_Wifi_BLE_SDK/GD32VW55x_RELEASE_V1.0.2/MSDK/cloud/alicloud/src/sdk-impl\impl_ntp.c **** #define NTP_TIME_STR_MAX_LEN (20)
  16:C:/Users/stapi/OneDrive/Desktop/GD32VW553/V1_MQTT_OK/GD32VW55X_Wifi_BLE_SDK/GD32VW55x_RELEASE_V1.0.2/MSDK/cloud/alicloud/src/sdk-impl\impl_ntp.c **** 
  17:C:/Users/stapi/OneDrive/Desktop/GD32VW553/V1_MQTT_OK/GD32VW55X_Wifi_BLE_SDK/GD32VW55x_RELEASE_V1.0.2/MSDK/cloud/alicloud/src/sdk-impl\impl_ntp.c **** #define IMPL_NTP_MALLOC(size) LITE_malloc(size, MEM_MAGIC, "impl.ntp")
  18:C:/Users/stapi/OneDrive/Desktop/GD32VW553/V1_MQTT_OK/GD32VW55X_Wifi_BLE_SDK/GD32VW55x_RELEASE_V1.0.2/MSDK/cloud/alicloud/src/sdk-impl\impl_ntp.c **** #define IMPL_NTP_FREE(ptr) LITE_free(ptr)
  19:C:/Users/stapi/OneDrive/Desktop/GD32VW553/V1_MQTT_OK/GD32VW55X_Wifi_BLE_SDK/GD32VW55x_RELEASE_V1.0.2/MSDK/cloud/alicloud/src/sdk-impl\impl_ntp.c **** 
  20:C:/Users/stapi/OneDrive/Desktop/GD32VW553/V1_MQTT_OK/GD32VW55X_Wifi_BLE_SDK/GD32VW55x_RELEASE_V1.0.2/MSDK/cloud/alicloud/src/sdk-impl\impl_ntp.c **** #define DEV_TX_TIME "deviceSendTime"
  21:C:/Users/stapi/OneDrive/Desktop/GD32VW553/V1_MQTT_OK/GD32VW55X_Wifi_BLE_SDK/GD32VW55x_RELEASE_V1.0.2/MSDK/cloud/alicloud/src/sdk-impl\impl_ntp.c **** #define SERVER_RX_TIME "serverRecvTime"
  22:C:/Users/stapi/OneDrive/Desktop/GD32VW553/V1_MQTT_OK/GD32VW55X_Wifi_BLE_SDK/GD32VW55x_RELEASE_V1.0.2/MSDK/cloud/alicloud/src/sdk-impl\impl_ntp.c **** #define SERVER_TX_TIME "serverSendTime"
  23:C:/Users/stapi/OneDrive/Desktop/GD32VW553/V1_MQTT_OK/GD32VW55X_Wifi_BLE_SDK/GD32VW55x_RELEASE_V1.0.2/MSDK/cloud/alicloud/src/sdk-impl\impl_ntp.c **** 
  24:C:/Users/stapi/OneDrive/Desktop/GD32VW553/V1_MQTT_OK/GD32VW55X_Wifi_BLE_SDK/GD32VW55x_RELEASE_V1.0.2/MSDK/cloud/alicloud/src/sdk-impl\impl_ntp.c **** typedef void (*ntp_reply_cb_t)(const char *);
  25:C:/Users/stapi/OneDrive/Desktop/GD32VW553/V1_MQTT_OK/GD32VW55X_Wifi_BLE_SDK/GD32VW55x_RELEASE_V1.0.2/MSDK/cloud/alicloud/src/sdk-impl\impl_ntp.c **** static ntp_reply_cb_t g_ntp_reply_cb = NULL;
  26:C:/Users/stapi/OneDrive/Desktop/GD32VW553/V1_MQTT_OK/GD32VW55X_Wifi_BLE_SDK/GD32VW55x_RELEASE_V1.0.2/MSDK/cloud/alicloud/src/sdk-impl\impl_ntp.c **** static ntp_reply_cb_t g_ntp_reply_cb_1 = NULL;
  27:C:/Users/stapi/OneDrive/Desktop/GD32VW553/V1_MQTT_OK/GD32VW55X_Wifi_BLE_SDK/GD32VW55x_RELEASE_V1.0.2/MSDK/cloud/alicloud/src/sdk-impl\impl_ntp.c **** static ntp_reply_cb_t g_ntp_reply_cb_2 = NULL;
  28:C:/Users/stapi/OneDrive/Desktop/GD32VW553/V1_MQTT_OK/GD32VW55X_Wifi_BLE_SDK/GD32VW55x_RELEASE_V1.0.2/MSDK/cloud/alicloud/src/sdk-impl\impl_ntp.c **** static char g_ntp_time[NTP_TIME_STR_MAX_LEN + 1] = {0};
  29:C:/Users/stapi/OneDrive/Desktop/GD32VW553/V1_MQTT_OK/GD32VW55X_Wifi_BLE_SDK/GD32VW55x_RELEASE_V1.0.2/MSDK/cloud/alicloud/src/sdk-impl\impl_ntp.c **** 
  30:C:/Users/stapi/OneDrive/Desktop/GD32VW553/V1_MQTT_OK/GD32VW55X_Wifi_BLE_SDK/GD32VW55x_RELEASE_V1.0.2/MSDK/cloud/alicloud/src/sdk-impl\impl_ntp.c **** static void linkkit_ntp_time_reply(void *pcontext, void *pclient, void *mesg)
  31:C:/Users/stapi/OneDrive/Desktop/GD32VW553/V1_MQTT_OK/GD32VW55X_Wifi_BLE_SDK/GD32VW55x_RELEASE_V1.0.2/MSDK/cloud/alicloud/src/sdk-impl\impl_ntp.c **** {
  37              		.loc 1 31 1
  38              		.cfi_startproc
  39              	.LVL0:
  40 0000 17030000 		call	t0,__riscv_save_4
  40      E7020300 
  41              		.cfi_offset 19, -20
  42              		.cfi_offset 18, -16
  43              		.cfi_offset 9, -12
  44              		.cfi_offset 8, -8
  45              		.cfi_offset 1, -4
  46              		.cfi_def_cfa_offset 32
  32:C:/Users/stapi/OneDrive/Desktop/GD32VW553/V1_MQTT_OK/GD32VW55X_Wifi_BLE_SDK/GD32VW55x_RELEASE_V1.0.2/MSDK/cloud/alicloud/src/sdk-impl\impl_ntp.c **** 
  33:C:/Users/stapi/OneDrive/Desktop/GD32VW553/V1_MQTT_OK/GD32VW55X_Wifi_BLE_SDK/GD32VW55x_RELEASE_V1.0.2/MSDK/cloud/alicloud/src/sdk-impl\impl_ntp.c ****     int len = 0;
  47              		.loc 1 33 5
  34:C:/Users/stapi/OneDrive/Desktop/GD32VW553/V1_MQTT_OK/GD32VW55X_Wifi_BLE_SDK/GD32VW55x_RELEASE_V1.0.2/MSDK/cloud/alicloud/src/sdk-impl\impl_ntp.c ****     char *elem = NULL;
  35:C:/Users/stapi/OneDrive/Desktop/GD32VW553/V1_MQTT_OK/GD32VW55X_Wifi_BLE_SDK/GD32VW55x_RELEASE_V1.0.2/MSDK/cloud/alicloud/src/sdk-impl\impl_ntp.c ****     char server_rx_time[NTP_TIME_STR_MAX_LEN + 1] = {0};
  36:C:/Users/stapi/OneDrive/Desktop/GD32VW553/V1_MQTT_OK/GD32VW55X_Wifi_BLE_SDK/GD32VW55x_RELEASE_V1.0.2/MSDK/cloud/alicloud/src/sdk-impl\impl_ntp.c ****     char server_tx_time[NTP_TIME_STR_MAX_LEN + 1] = {0};
  37:C:/Users/stapi/OneDrive/Desktop/GD32VW553/V1_MQTT_OK/GD32VW55X_Wifi_BLE_SDK/GD32VW55x_RELEASE_V1.0.2/MSDK/cloud/alicloud/src/sdk-impl\impl_ntp.c ****     uint32_t payload_len;
  38:C:/Users/stapi/OneDrive/Desktop/GD32VW553/V1_MQTT_OK/GD32VW55X_Wifi_BLE_SDK/GD32VW55x_RELEASE_V1.0.2/MSDK/cloud/alicloud/src/sdk-impl\impl_ntp.c ****     char *payload;
  39:C:/Users/stapi/OneDrive/Desktop/GD32VW553/V1_MQTT_OK/GD32VW55X_Wifi_BLE_SDK/GD32VW55x_RELEASE_V1.0.2/MSDK/cloud/alicloud/src/sdk-impl\impl_ntp.c **** 
  40:C:/Users/stapi/OneDrive/Desktop/GD32VW553/V1_MQTT_OK/GD32VW55X_Wifi_BLE_SDK/GD32VW55x_RELEASE_V1.0.2/MSDK/cloud/alicloud/src/sdk-impl\impl_ntp.c ****     iotx_mqtt_event_msg_pt msg = (iotx_mqtt_event_msg_pt)mesg;
  41:C:/Users/stapi/OneDrive/Desktop/GD32VW553/V1_MQTT_OK/GD32VW55X_Wifi_BLE_SDK/GD32VW55x_RELEASE_V1.0.2/MSDK/cloud/alicloud/src/sdk-impl\impl_ntp.c ****     iotx_mqtt_topic_info_pt ptopic_info = (iotx_mqtt_topic_info_pt)msg->msg;
  42:C:/Users/stapi/OneDrive/Desktop/GD32VW553/V1_MQTT_OK/GD32VW55X_Wifi_BLE_SDK/GD32VW55x_RELEASE_V1.0.2/MSDK/cloud/alicloud/src/sdk-impl\impl_ntp.c **** 
  43:C:/Users/stapi/OneDrive/Desktop/GD32VW553/V1_MQTT_OK/GD32VW55X_Wifi_BLE_SDK/GD32VW55x_RELEASE_V1.0.2/MSDK/cloud/alicloud/src/sdk-impl\impl_ntp.c ****     switch (msg->event_type)
  48              		.loc 1 43 5 is_stmt 0
  49 0008 1842     		lw	a4,0(a2)
  31:C:/Users/stapi/OneDrive/Desktop/GD32VW553/V1_MQTT_OK/GD32VW55X_Wifi_BLE_SDK/GD32VW55x_RELEASE_V1.0.2/MSDK/cloud/alicloud/src/sdk-impl\impl_ntp.c **** 
  50              		.loc 1 31 1
  51 000a 3971     		addi	sp,sp,-64
  52              		.cfi_def_cfa_offset 96
  33:C:/Users/stapi/OneDrive/Desktop/GD32VW553/V1_MQTT_OK/GD32VW55X_Wifi_BLE_SDK/GD32VW55x_RELEASE_V1.0.2/MSDK/cloud/alicloud/src/sdk-impl\impl_ntp.c ****     char *elem = NULL;
  53              		.loc 1 33 9
  54 000c 02C6     		sw	zero,12(sp)
  34:C:/Users/stapi/OneDrive/Desktop/GD32VW553/V1_MQTT_OK/GD32VW55X_Wifi_BLE_SDK/GD32VW55x_RELEASE_V1.0.2/MSDK/cloud/alicloud/src/sdk-impl\impl_ntp.c ****     char *elem = NULL;
  55              		.loc 1 34 5 is_stmt 1
  56              	.LVL1:
  35:C:/Users/stapi/OneDrive/Desktop/GD32VW553/V1_MQTT_OK/GD32VW55X_Wifi_BLE_SDK/GD32VW55x_RELEASE_V1.0.2/MSDK/cloud/alicloud/src/sdk-impl\impl_ntp.c ****     char server_tx_time[NTP_TIME_STR_MAX_LEN + 1] = {0};
  57              		.loc 1 35 5
  35:C:/Users/stapi/OneDrive/Desktop/GD32VW553/V1_MQTT_OK/GD32VW55X_Wifi_BLE_SDK/GD32VW55x_RELEASE_V1.0.2/MSDK/cloud/alicloud/src/sdk-impl\impl_ntp.c ****     char server_tx_time[NTP_TIME_STR_MAX_LEN + 1] = {0};
  58              		.loc 1 35 10 is_stmt 0
  59 000e 02C8     		sw	zero,16(sp)
  60 0010 02CA     		sw	zero,20(sp)
  61 0012 02CC     		sw	zero,24(sp)
  62 0014 02CE     		sw	zero,28(sp)
  63 0016 02D0     		sw	zero,32(sp)
  64 0018 23020102 		sb	zero,36(sp)
  36:C:/Users/stapi/OneDrive/Desktop/GD32VW553/V1_MQTT_OK/GD32VW55X_Wifi_BLE_SDK/GD32VW55x_RELEASE_V1.0.2/MSDK/cloud/alicloud/src/sdk-impl\impl_ntp.c ****     uint32_t payload_len;
  65              		.loc 1 36 5 is_stmt 1
  36:C:/Users/stapi/OneDrive/Desktop/GD32VW553/V1_MQTT_OK/GD32VW55X_Wifi_BLE_SDK/GD32VW55x_RELEASE_V1.0.2/MSDK/cloud/alicloud/src/sdk-impl\impl_ntp.c ****     uint32_t payload_len;
  66              		.loc 1 36 10 is_stmt 0
  67 001c 02D4     		sw	zero,40(sp)
  68 001e 02D6     		sw	zero,44(sp)
  69 0020 02D8     		sw	zero,48(sp)
  70 0022 02DA     		sw	zero,52(sp)
  71 0024 02DC     		sw	zero,56(sp)
  72 0026 230E0102 		sb	zero,60(sp)
  37:C:/Users/stapi/OneDrive/Desktop/GD32VW553/V1_MQTT_OK/GD32VW55X_Wifi_BLE_SDK/GD32VW55x_RELEASE_V1.0.2/MSDK/cloud/alicloud/src/sdk-impl\impl_ntp.c ****     char *payload;
  73              		.loc 1 37 5 is_stmt 1
  38:C:/Users/stapi/OneDrive/Desktop/GD32VW553/V1_MQTT_OK/GD32VW55X_Wifi_BLE_SDK/GD32VW55x_RELEASE_V1.0.2/MSDK/cloud/alicloud/src/sdk-impl\impl_ntp.c **** 
  74              		.loc 1 38 5
  40:C:/Users/stapi/OneDrive/Desktop/GD32VW553/V1_MQTT_OK/GD32VW55X_Wifi_BLE_SDK/GD32VW55x_RELEASE_V1.0.2/MSDK/cloud/alicloud/src/sdk-impl\impl_ntp.c ****     iotx_mqtt_topic_info_pt ptopic_info = (iotx_mqtt_topic_info_pt)msg->msg;
  75              		.loc 1 40 5
  76              	.LVL2:
  41:C:/Users/stapi/OneDrive/Desktop/GD32VW553/V1_MQTT_OK/GD32VW55X_Wifi_BLE_SDK/GD32VW55x_RELEASE_V1.0.2/MSDK/cloud/alicloud/src/sdk-impl\impl_ntp.c **** 
  77              		.loc 1 41 5
  78              		.loc 1 43 5
  79 002a B147     		li	a5,12
  80 002c 631BF714 		bne	a4,a5,.L3
  41:C:/Users/stapi/OneDrive/Desktop/GD32VW553/V1_MQTT_OK/GD32VW55X_Wifi_BLE_SDK/GD32VW55x_RELEASE_V1.0.2/MSDK/cloud/alicloud/src/sdk-impl\impl_ntp.c **** 
  81              		.loc 1 41 29 is_stmt 0
  82 0030 5C42     		lw	a5,4(a2)
  44:C:/Users/stapi/OneDrive/Desktop/GD32VW553/V1_MQTT_OK/GD32VW55X_Wifi_BLE_SDK/GD32VW55x_RELEASE_V1.0.2/MSDK/cloud/alicloud/src/sdk-impl\impl_ntp.c ****     {
  45:C:/Users/stapi/OneDrive/Desktop/GD32VW553/V1_MQTT_OK/GD32VW55X_Wifi_BLE_SDK/GD32VW55x_RELEASE_V1.0.2/MSDK/cloud/alicloud/src/sdk-impl\impl_ntp.c ****     case IOTX_MQTT_EVENT_PUBLISH_RECEIVED:
  46:C:/Users/stapi/OneDrive/Desktop/GD32VW553/V1_MQTT_OK/GD32VW55X_Wifi_BLE_SDK/GD32VW55x_RELEASE_V1.0.2/MSDK/cloud/alicloud/src/sdk-impl\impl_ntp.c ****         payload_len = ptopic_info->payload_len;
  83              		.loc 1 46 9 is_stmt 1
  84              	.LVL3:
  47:C:/Users/stapi/OneDrive/Desktop/GD32VW553/V1_MQTT_OK/GD32VW55X_Wifi_BLE_SDK/GD32VW55x_RELEASE_V1.0.2/MSDK/cloud/alicloud/src/sdk-impl\impl_ntp.c ****         payload = (char *)ptopic_info->payload;
  85              		.loc 1 47 9
  86              		.loc 1 47 17 is_stmt 0
  87 0032 804B     		lw	s0,16(a5)
  88              	.LVL4:
  48:C:/Users/stapi/OneDrive/Desktop/GD32VW553/V1_MQTT_OK/GD32VW55X_Wifi_BLE_SDK/GD32VW55x_RELEASE_V1.0.2/MSDK/cloud/alicloud/src/sdk-impl\impl_ntp.c ****         break;
  89              		.loc 1 48 9 is_stmt 1
  49:C:/Users/stapi/OneDrive/Desktop/GD32VW553/V1_MQTT_OK/GD32VW55X_Wifi_BLE_SDK/GD32VW55x_RELEASE_V1.0.2/MSDK/cloud/alicloud/src/sdk-impl\impl_ntp.c ****     default:
  50:C:/Users/stapi/OneDrive/Desktop/GD32VW553/V1_MQTT_OK/GD32VW55X_Wifi_BLE_SDK/GD32VW55x_RELEASE_V1.0.2/MSDK/cloud/alicloud/src/sdk-impl\impl_ntp.c ****         goto NTP_FAIL;
  51:C:/Users/stapi/OneDrive/Desktop/GD32VW553/V1_MQTT_OK/GD32VW55X_Wifi_BLE_SDK/GD32VW55x_RELEASE_V1.0.2/MSDK/cloud/alicloud/src/sdk-impl\impl_ntp.c ****     }
  52:C:/Users/stapi/OneDrive/Desktop/GD32VW553/V1_MQTT_OK/GD32VW55X_Wifi_BLE_SDK/GD32VW55x_RELEASE_V1.0.2/MSDK/cloud/alicloud/src/sdk-impl\impl_ntp.c **** 
  53:C:/Users/stapi/OneDrive/Desktop/GD32VW553/V1_MQTT_OK/GD32VW55X_Wifi_BLE_SDK/GD32VW55x_RELEASE_V1.0.2/MSDK/cloud/alicloud/src/sdk-impl\impl_ntp.c ****     if (payload == NULL || payload_len == 0)
  90              		.loc 1 53 5
  91              		.loc 1 53 8 is_stmt 0
  92 0034 63070414 		beq	s0,zero,.L3
  46:C:/Users/stapi/OneDrive/Desktop/GD32VW553/V1_MQTT_OK/GD32VW55X_Wifi_BLE_SDK/GD32VW55x_RELEASE_V1.0.2/MSDK/cloud/alicloud/src/sdk-impl\impl_ntp.c ****         payload = (char *)ptopic_info->payload;
  93              		.loc 1 46 21 discriminator 1
  94 0038 8447     		lw	s1,8(a5)
  95              		.loc 1 53 25 discriminator 1
  96 003a 63840414 		beq	s1,zero,.L3
  54:C:/Users/stapi/OneDrive/Desktop/GD32VW553/V1_MQTT_OK/GD32VW55X_Wifi_BLE_SDK/GD32VW55x_RELEASE_V1.0.2/MSDK/cloud/alicloud/src/sdk-impl\impl_ntp.c ****     {
  55:C:/Users/stapi/OneDrive/Desktop/GD32VW553/V1_MQTT_OK/GD32VW55X_Wifi_BLE_SDK/GD32VW55x_RELEASE_V1.0.2/MSDK/cloud/alicloud/src/sdk-impl\impl_ntp.c ****         goto NTP_FAIL;
  56:C:/Users/stapi/OneDrive/Desktop/GD32VW553/V1_MQTT_OK/GD32VW55X_Wifi_BLE_SDK/GD32VW55x_RELEASE_V1.0.2/MSDK/cloud/alicloud/src/sdk-impl\impl_ntp.c ****     }
  57:C:/Users/stapi/OneDrive/Desktop/GD32VW553/V1_MQTT_OK/GD32VW55X_Wifi_BLE_SDK/GD32VW55x_RELEASE_V1.0.2/MSDK/cloud/alicloud/src/sdk-impl\impl_ntp.c **** 
  58:C:/Users/stapi/OneDrive/Desktop/GD32VW553/V1_MQTT_OK/GD32VW55X_Wifi_BLE_SDK/GD32VW55x_RELEASE_V1.0.2/MSDK/cloud/alicloud/src/sdk-impl\impl_ntp.c ****     memset(g_ntp_time, 0, sizeof(g_ntp_time));
  97              		.loc 1 58 5 is_stmt 1
  98 003e 37090000 		lui	s2,%hi(.LANCHOR0)
  99 0042 5546     		li	a2,21
 100              	.LVL5:
 101 0044 8145     		li	a1,0
 102              	.LVL6:
 103 0046 13050900 		addi	a0,s2,%lo(.LANCHOR0)
 104              	.LVL7:
 105 004a 97000000 		call	memset
 105      E7800000 
 106              	.LVL8:
  59:C:/Users/stapi/OneDrive/Desktop/GD32VW553/V1_MQTT_OK/GD32VW55X_Wifi_BLE_SDK/GD32VW55x_RELEASE_V1.0.2/MSDK/cloud/alicloud/src/sdk-impl\impl_ntp.c ****     log_debug("[ntp]", "ntp reply len:%u, payload:%s\r\n", payload_len, payload);
 107              		.loc 1 59 5
 108 0052 37070000 		lui	a4,%hi(.LC0)
 109 0056 B7050000 		lui	a1,%hi(.LANCHOR1)
 110 005a 37050000 		lui	a0,%hi(.LC1)
 111 005e 2288     		mv	a6,s0
 112 0060 A687     		mv	a5,s1
 113 0062 13070700 		addi	a4,a4,%lo(.LC0)
 114 0066 9546     		li	a3,5
 115 0068 1306B003 		li	a2,59
 116 006c 93850500 		addi	a1,a1,%lo(.LANCHOR1)
 117 0070 13050500 		addi	a0,a0,%lo(.LC1)
 118 0074 97000000 		call	LITE_syslog
 118      E7800000 
 119              	.LVL9:
  60:C:/Users/stapi/OneDrive/Desktop/GD32VW553/V1_MQTT_OK/GD32VW55X_Wifi_BLE_SDK/GD32VW55x_RELEASE_V1.0.2/MSDK/cloud/alicloud/src/sdk-impl\impl_ntp.c **** 
  61:C:/Users/stapi/OneDrive/Desktop/GD32VW553/V1_MQTT_OK/GD32VW55X_Wifi_BLE_SDK/GD32VW55x_RELEASE_V1.0.2/MSDK/cloud/alicloud/src/sdk-impl\impl_ntp.c ****     /*
  62:C:/Users/stapi/OneDrive/Desktop/GD32VW553/V1_MQTT_OK/GD32VW55X_Wifi_BLE_SDK/GD32VW55x_RELEASE_V1.0.2/MSDK/cloud/alicloud/src/sdk-impl\impl_ntp.c ****      * get deviceSendTime, serverRecvTime, serverSendTime
  63:C:/Users/stapi/OneDrive/Desktop/GD32VW553/V1_MQTT_OK/GD32VW55X_Wifi_BLE_SDK/GD32VW55x_RELEASE_V1.0.2/MSDK/cloud/alicloud/src/sdk-impl\impl_ntp.c ****      */
  64:C:/Users/stapi/OneDrive/Desktop/GD32VW553/V1_MQTT_OK/GD32VW55X_Wifi_BLE_SDK/GD32VW55x_RELEASE_V1.0.2/MSDK/cloud/alicloud/src/sdk-impl\impl_ntp.c ****     elem = json_get_value_by_name(payload, payload_len, SERVER_TX_TIME, &len, NULL);
 120              		.loc 1 64 5
 121              		.loc 1 64 12 is_stmt 0
 122 007c 37060000 		lui	a2,%hi(.LC2)
 123 0080 A685     		mv	a1,s1
 124 0082 0147     		li	a4,0
 125 0084 7400     		addi	a3,sp,12
 126 0086 13060600 		addi	a2,a2,%lo(.LC2)
 127 008a 2285     		mv	a0,s0
 128 008c 97000000 		call	json_get_value_by_name
 128      E7800000 
 129              	.LVL10:
 130 0094 AA85     		mv	a1,a0
 131              	.LVL11:
  65:C:/Users/stapi/OneDrive/Desktop/GD32VW553/V1_MQTT_OK/GD32VW55X_Wifi_BLE_SDK/GD32VW55x_RELEASE_V1.0.2/MSDK/cloud/alicloud/src/sdk-impl\impl_ntp.c ****     if (elem == NULL || len <= 0 || len > NTP_TIME_STR_MAX_LEN)
 132              		.loc 1 65 5 is_stmt 1
 133              		.loc 1 65 8 is_stmt 0
 134 0096 75C5     		beq	a0,zero,.L3
 135              		.loc 1 65 22 discriminator 1
 136 0098 3246     		lw	a2,12(sp)
 137 009a CD49     		li	s3,19
 138 009c 9307F6FF 		addi	a5,a2,-1
 139 00a0 63E1F90E 		bgtu	a5,s3,.L3
  66:C:/Users/stapi/OneDrive/Desktop/GD32VW553/V1_MQTT_OK/GD32VW55X_Wifi_BLE_SDK/GD32VW55x_RELEASE_V1.0.2/MSDK/cloud/alicloud/src/sdk-impl\impl_ntp.c ****     {
  67:C:/Users/stapi/OneDrive/Desktop/GD32VW553/V1_MQTT_OK/GD32VW55X_Wifi_BLE_SDK/GD32VW55x_RELEASE_V1.0.2/MSDK/cloud/alicloud/src/sdk-impl\impl_ntp.c ****         goto NTP_FAIL;
  68:C:/Users/stapi/OneDrive/Desktop/GD32VW553/V1_MQTT_OK/GD32VW55X_Wifi_BLE_SDK/GD32VW55x_RELEASE_V1.0.2/MSDK/cloud/alicloud/src/sdk-impl\impl_ntp.c ****     }
  69:C:/Users/stapi/OneDrive/Desktop/GD32VW553/V1_MQTT_OK/GD32VW55X_Wifi_BLE_SDK/GD32VW55x_RELEASE_V1.0.2/MSDK/cloud/alicloud/src/sdk-impl\impl_ntp.c **** 
  70:C:/Users/stapi/OneDrive/Desktop/GD32VW553/V1_MQTT_OK/GD32VW55X_Wifi_BLE_SDK/GD32VW55x_RELEASE_V1.0.2/MSDK/cloud/alicloud/src/sdk-impl\impl_ntp.c ****     memcpy(server_tx_time, elem, len);
 140              		.loc 1 70 5 is_stmt 1
 141 00a4 2810     		addi	a0,sp,40
 142              	.LVL12:
 143 00a6 97000000 		call	memcpy
 143      E7800000 
 144              	.LVL13:
  71:C:/Users/stapi/OneDrive/Desktop/GD32VW553/V1_MQTT_OK/GD32VW55X_Wifi_BLE_SDK/GD32VW55x_RELEASE_V1.0.2/MSDK/cloud/alicloud/src/sdk-impl\impl_ntp.c **** 
  72:C:/Users/stapi/OneDrive/Desktop/GD32VW553/V1_MQTT_OK/GD32VW55X_Wifi_BLE_SDK/GD32VW55x_RELEASE_V1.0.2/MSDK/cloud/alicloud/src/sdk-impl\impl_ntp.c ****     elem = json_get_value_by_name(payload, payload_len, SERVER_RX_TIME, &len, NULL);
 145              		.loc 1 72 5
 146              		.loc 1 72 12 is_stmt 0
 147 00ae 37060000 		lui	a2,%hi(.LC3)
 148 00b2 A685     		mv	a1,s1
 149 00b4 0147     		li	a4,0
 150 00b6 7400     		addi	a3,sp,12
 151 00b8 13060600 		addi	a2,a2,%lo(.LC3)
 152 00bc 2285     		mv	a0,s0
 153 00be 97000000 		call	json_get_value_by_name
 153      E7800000 
 154              	.LVL14:
 155 00c6 AA85     		mv	a1,a0
 156              	.LVL15:
  73:C:/Users/stapi/OneDrive/Desktop/GD32VW553/V1_MQTT_OK/GD32VW55X_Wifi_BLE_SDK/GD32VW55x_RELEASE_V1.0.2/MSDK/cloud/alicloud/src/sdk-impl\impl_ntp.c ****     if (elem == NULL || len <= 0 || len > NTP_TIME_STR_MAX_LEN)
 157              		.loc 1 73 5 is_stmt 1
 158              		.loc 1 73 8 is_stmt 0
 159 00c8 4DCD     		beq	a0,zero,.L3
 160              		.loc 1 73 22 discriminator 1
 161 00ca 3246     		lw	a2,12(sp)
 162 00cc 9307F6FF 		addi	a5,a2,-1
 163 00d0 63E9F90A 		bgtu	a5,s3,.L3
  74:C:/Users/stapi/OneDrive/Desktop/GD32VW553/V1_MQTT_OK/GD32VW55X_Wifi_BLE_SDK/GD32VW55x_RELEASE_V1.0.2/MSDK/cloud/alicloud/src/sdk-impl\impl_ntp.c ****     {
  75:C:/Users/stapi/OneDrive/Desktop/GD32VW553/V1_MQTT_OK/GD32VW55X_Wifi_BLE_SDK/GD32VW55x_RELEASE_V1.0.2/MSDK/cloud/alicloud/src/sdk-impl\impl_ntp.c ****         goto NTP_FAIL;
  76:C:/Users/stapi/OneDrive/Desktop/GD32VW553/V1_MQTT_OK/GD32VW55X_Wifi_BLE_SDK/GD32VW55x_RELEASE_V1.0.2/MSDK/cloud/alicloud/src/sdk-impl\impl_ntp.c ****     }
  77:C:/Users/stapi/OneDrive/Desktop/GD32VW553/V1_MQTT_OK/GD32VW55X_Wifi_BLE_SDK/GD32VW55x_RELEASE_V1.0.2/MSDK/cloud/alicloud/src/sdk-impl\impl_ntp.c **** 
  78:C:/Users/stapi/OneDrive/Desktop/GD32VW553/V1_MQTT_OK/GD32VW55X_Wifi_BLE_SDK/GD32VW55x_RELEASE_V1.0.2/MSDK/cloud/alicloud/src/sdk-impl\impl_ntp.c ****     memcpy(server_rx_time, elem, len);
 164              		.loc 1 78 5 is_stmt 1
 165 00d4 0808     		addi	a0,sp,16
 166              	.LVL16:
 167 00d6 97000000 		call	memcpy
 167      E7800000 
 168              	.LVL17:
  79:C:/Users/stapi/OneDrive/Desktop/GD32VW553/V1_MQTT_OK/GD32VW55X_Wifi_BLE_SDK/GD32VW55x_RELEASE_V1.0.2/MSDK/cloud/alicloud/src/sdk-impl\impl_ntp.c **** 
  80:C:/Users/stapi/OneDrive/Desktop/GD32VW553/V1_MQTT_OK/GD32VW55X_Wifi_BLE_SDK/GD32VW55x_RELEASE_V1.0.2/MSDK/cloud/alicloud/src/sdk-impl\impl_ntp.c ****     elem = json_get_value_by_name(payload, payload_len, DEV_TX_TIME, &len, NULL);
 169              		.loc 1 80 5
 170              		.loc 1 80 12 is_stmt 0
 171 00de 37060000 		lui	a2,%hi(.LC4)
 172 00e2 0147     		li	a4,0
 173 00e4 7400     		addi	a3,sp,12
 174 00e6 13060600 		addi	a2,a2,%lo(.LC4)
 175 00ea A685     		mv	a1,s1
 176 00ec 2285     		mv	a0,s0
 177 00ee 97000000 		call	json_get_value_by_name
 177      E7800000 
 178              	.LVL18:
  81:C:/Users/stapi/OneDrive/Desktop/GD32VW553/V1_MQTT_OK/GD32VW55X_Wifi_BLE_SDK/GD32VW55x_RELEASE_V1.0.2/MSDK/cloud/alicloud/src/sdk-impl\impl_ntp.c ****     if (elem == NULL || len <= 0 || len > NTP_TIME_STR_MAX_LEN)
 179              		.loc 1 81 5 is_stmt 1
 180              		.loc 1 81 8 is_stmt 0
 181 00f6 51C5     		beq	a0,zero,.L3
 182              		.loc 1 81 22 discriminator 1
 183 00f8 B247     		lw	a5,12(sp)
 184 00fa FD17     		addi	a5,a5,-1
 185 00fc 63E3F908 		bgtu	a5,s3,.L3
  82:C:/Users/stapi/OneDrive/Desktop/GD32VW553/V1_MQTT_OK/GD32VW55X_Wifi_BLE_SDK/GD32VW55x_RELEASE_V1.0.2/MSDK/cloud/alicloud/src/sdk-impl\impl_ntp.c ****     {
  83:C:/Users/stapi/OneDrive/Desktop/GD32VW553/V1_MQTT_OK/GD32VW55X_Wifi_BLE_SDK/GD32VW55x_RELEASE_V1.0.2/MSDK/cloud/alicloud/src/sdk-impl\impl_ntp.c ****         goto NTP_FAIL;
  84:C:/Users/stapi/OneDrive/Desktop/GD32VW553/V1_MQTT_OK/GD32VW55X_Wifi_BLE_SDK/GD32VW55x_RELEASE_V1.0.2/MSDK/cloud/alicloud/src/sdk-impl\impl_ntp.c ****     }
  85:C:/Users/stapi/OneDrive/Desktop/GD32VW553/V1_MQTT_OK/GD32VW55X_Wifi_BLE_SDK/GD32VW55x_RELEASE_V1.0.2/MSDK/cloud/alicloud/src/sdk-impl\impl_ntp.c ****     /*
  86:C:/Users/stapi/OneDrive/Desktop/GD32VW553/V1_MQTT_OK/GD32VW55X_Wifi_BLE_SDK/GD32VW55x_RELEASE_V1.0.2/MSDK/cloud/alicloud/src/sdk-impl\impl_ntp.c ****      * atoi fails to convert string to integer
  87:C:/Users/stapi/OneDrive/Desktop/GD32VW553/V1_MQTT_OK/GD32VW55X_Wifi_BLE_SDK/GD32VW55x_RELEASE_V1.0.2/MSDK/cloud/alicloud/src/sdk-impl\impl_ntp.c ****      * so we convert manully
  88:C:/Users/stapi/OneDrive/Desktop/GD32VW553/V1_MQTT_OK/GD32VW55X_Wifi_BLE_SDK/GD32VW55x_RELEASE_V1.0.2/MSDK/cloud/alicloud/src/sdk-impl\impl_ntp.c ****      */
  89:C:/Users/stapi/OneDrive/Desktop/GD32VW553/V1_MQTT_OK/GD32VW55X_Wifi_BLE_SDK/GD32VW55x_RELEASE_V1.0.2/MSDK/cloud/alicloud/src/sdk-impl\impl_ntp.c ****     uint32_t tx = 0;
 186              		.loc 1 89 14
 187 0100 8144     		li	s1,0
  90:C:/Users/stapi/OneDrive/Desktop/GD32VW553/V1_MQTT_OK/GD32VW55X_Wifi_BLE_SDK/GD32VW55x_RELEASE_V1.0.2/MSDK/cloud/alicloud/src/sdk-impl\impl_ntp.c ****     while (len-- > 0)
  91:C:/Users/stapi/OneDrive/Desktop/GD32VW553/V1_MQTT_OK/GD32VW55X_Wifi_BLE_SDK/GD32VW55x_RELEASE_V1.0.2/MSDK/cloud/alicloud/src/sdk-impl\impl_ntp.c ****     {
  92:C:/Users/stapi/OneDrive/Desktop/GD32VW553/V1_MQTT_OK/GD32VW55X_Wifi_BLE_SDK/GD32VW55x_RELEASE_V1.0.2/MSDK/cloud/alicloud/src/sdk-impl\impl_ntp.c ****         tx *= 10;
 188              		.loc 1 92 12
 189 0102 A946     		li	a3,10
 190              	.L5:
 191              	.LVL19:
  90:C:/Users/stapi/OneDrive/Desktop/GD32VW553/V1_MQTT_OK/GD32VW55X_Wifi_BLE_SDK/GD32VW55x_RELEASE_V1.0.2/MSDK/cloud/alicloud/src/sdk-impl\impl_ntp.c ****     while (len-- > 0)
 192              		.loc 1 90 11 is_stmt 1
  90:C:/Users/stapi/OneDrive/Desktop/GD32VW553/V1_MQTT_OK/GD32VW55X_Wifi_BLE_SDK/GD32VW55x_RELEASE_V1.0.2/MSDK/cloud/alicloud/src/sdk-impl\impl_ntp.c ****     while (len-- > 0)
 193              		.loc 1 90 15 is_stmt 0
 194 0104 B247     		lw	a5,12(sp)
 195 0106 1387F7FF 		addi	a4,a5,-1
 196 010a 3AC6     		sw	a4,12(sp)
  90:C:/Users/stapi/OneDrive/Desktop/GD32VW553/V1_MQTT_OK/GD32VW55X_Wifi_BLE_SDK/GD32VW55x_RELEASE_V1.0.2/MSDK/cloud/alicloud/src/sdk-impl\impl_ntp.c ****     while (len-- > 0)
 197              		.loc 1 90 11
 198 010c 634EF00A 		bgt	a5,zero,.L6
  93:C:/Users/stapi/OneDrive/Desktop/GD32VW553/V1_MQTT_OK/GD32VW55X_Wifi_BLE_SDK/GD32VW55x_RELEASE_V1.0.2/MSDK/cloud/alicloud/src/sdk-impl\impl_ntp.c ****         tx += elem[0] - '0';
  94:C:/Users/stapi/OneDrive/Desktop/GD32VW553/V1_MQTT_OK/GD32VW55X_Wifi_BLE_SDK/GD32VW55x_RELEASE_V1.0.2/MSDK/cloud/alicloud/src/sdk-impl\impl_ntp.c ****         elem++;
  95:C:/Users/stapi/OneDrive/Desktop/GD32VW553/V1_MQTT_OK/GD32VW55X_Wifi_BLE_SDK/GD32VW55x_RELEASE_V1.0.2/MSDK/cloud/alicloud/src/sdk-impl\impl_ntp.c ****     }
  96:C:/Users/stapi/OneDrive/Desktop/GD32VW553/V1_MQTT_OK/GD32VW55X_Wifi_BLE_SDK/GD32VW55x_RELEASE_V1.0.2/MSDK/cloud/alicloud/src/sdk-impl\impl_ntp.c ****     uint32_t rx = HAL_UptimeMs();
 199              		.loc 1 96 5 is_stmt 1
 200              		.loc 1 96 19 is_stmt 0
 201 0110 97000000 		call	HAL_UptimeMs
 201      E7800000 
 202              	.LVL20:
  97:C:/Users/stapi/OneDrive/Desktop/GD32VW553/V1_MQTT_OK/GD32VW55X_Wifi_BLE_SDK/GD32VW55x_RELEASE_V1.0.2/MSDK/cloud/alicloud/src/sdk-impl\impl_ntp.c ****     uint32_t diff = (rx - tx) >> 1;
 203              		.loc 1 97 5 is_stmt 1
 204              		.loc 1 97 25 is_stmt 0
 205 0118 B3049540 		sub	s1,a0,s1
 206              	.LVL21:
  98:C:/Users/stapi/OneDrive/Desktop/GD32VW553/V1_MQTT_OK/GD32VW55X_Wifi_BLE_SDK/GD32VW55x_RELEASE_V1.0.2/MSDK/cloud/alicloud/src/sdk-impl\impl_ntp.c ****     if (diff >= 1000000)
 207              		.loc 1 98 8
 208 011c B7470F00 		li	a5,999424
  97:C:/Users/stapi/OneDrive/Desktop/GD32VW553/V1_MQTT_OK/GD32VW55X_Wifi_BLE_SDK/GD32VW55x_RELEASE_V1.0.2/MSDK/cloud/alicloud/src/sdk-impl\impl_ntp.c ****     uint32_t diff = (rx - tx) >> 1;
 209              		.loc 1 97 14
 210 0120 8580     		srli	s1,s1,1
 211              	.LVL22:
 212              		.loc 1 98 5 is_stmt 1
 213              		.loc 1 98 8 is_stmt 0
 214 0122 9387F723 		addi	a5,a5,575
 215 0126 63EE9704 		bgtu	s1,a5,.L3
  99:C:/Users/stapi/OneDrive/Desktop/GD32VW553/V1_MQTT_OK/GD32VW55X_Wifi_BLE_SDK/GD32VW55x_RELEASE_V1.0.2/MSDK/cloud/alicloud/src/sdk-impl\impl_ntp.c ****     {
 100:C:/Users/stapi/OneDrive/Desktop/GD32VW553/V1_MQTT_OK/GD32VW55X_Wifi_BLE_SDK/GD32VW55x_RELEASE_V1.0.2/MSDK/cloud/alicloud/src/sdk-impl\impl_ntp.c ****         goto NTP_FAIL;
 101:C:/Users/stapi/OneDrive/Desktop/GD32VW553/V1_MQTT_OK/GD32VW55X_Wifi_BLE_SDK/GD32VW55x_RELEASE_V1.0.2/MSDK/cloud/alicloud/src/sdk-impl\impl_ntp.c ****     }
 102:C:/Users/stapi/OneDrive/Desktop/GD32VW553/V1_MQTT_OK/GD32VW55X_Wifi_BLE_SDK/GD32VW55x_RELEASE_V1.0.2/MSDK/cloud/alicloud/src/sdk-impl\impl_ntp.c **** 
 103:C:/Users/stapi/OneDrive/Desktop/GD32VW553/V1_MQTT_OK/GD32VW55X_Wifi_BLE_SDK/GD32VW55x_RELEASE_V1.0.2/MSDK/cloud/alicloud/src/sdk-impl\impl_ntp.c ****     len = strlen(server_tx_time);
 216              		.loc 1 103 5 is_stmt 1
 217              		.loc 1 103 11 is_stmt 0
 218 012a 2810     		addi	a0,sp,40
 219              	.LVL23:
 220 012c 97000000 		call	strlen
 220      E7800000 
 221              	.LVL24:
 104:C:/Users/stapi/OneDrive/Desktop/GD32VW553/V1_MQTT_OK/GD32VW55X_Wifi_BLE_SDK/GD32VW55x_RELEASE_V1.0.2/MSDK/cloud/alicloud/src/sdk-impl\impl_ntp.c ****     elem = &server_tx_time[len > 9 ? len - 9 : 0];
 222              		.loc 1 104 46
 223 0134 A549     		li	s3,9
 224              		.loc 1 104 10
 225 0136 3C10     		addi	a5,sp,40
 226              		.loc 1 104 46
 227 0138 3364350B 		max	s0,a0,s3
 228              	.LVL25:
 229 013c 5D14     		addi	s0,s0,-9
 230              		.loc 1 104 10
 231 013e 3E94     		add	s0,a5,s0
 103:C:/Users/stapi/OneDrive/Desktop/GD32VW553/V1_MQTT_OK/GD32VW55X_Wifi_BLE_SDK/GD32VW55x_RELEASE_V1.0.2/MSDK/cloud/alicloud/src/sdk-impl\impl_ntp.c ****     elem = &server_tx_time[len > 9 ? len - 9 : 0];
 232              		.loc 1 103 9
 233 0140 2AC6     		sw	a0,12(sp)
 234              		.loc 1 104 5 is_stmt 1
 235              	.LVL26:
 105:C:/Users/stapi/OneDrive/Desktop/GD32VW553/V1_MQTT_OK/GD32VW55X_Wifi_BLE_SDK/GD32VW55x_RELEASE_V1.0.2/MSDK/cloud/alicloud/src/sdk-impl\impl_ntp.c ****     tx = atoi(elem);
 236              		.loc 1 105 5
 237              		.loc 1 105 10 is_stmt 0
 238 0142 2285     		mv	a0,s0
 239 0144 97000000 		call	atoi
 239      E7800000 
 240              	.LVL27:
 106:C:/Users/stapi/OneDrive/Desktop/GD32VW553/V1_MQTT_OK/GD32VW55X_Wifi_BLE_SDK/GD32VW55x_RELEASE_V1.0.2/MSDK/cloud/alicloud/src/sdk-impl\impl_ntp.c ****     tx += diff;
 241              		.loc 1 106 5 is_stmt 1
 107:C:/Users/stapi/OneDrive/Desktop/GD32VW553/V1_MQTT_OK/GD32VW55X_Wifi_BLE_SDK/GD32VW55x_RELEASE_V1.0.2/MSDK/cloud/alicloud/src/sdk-impl\impl_ntp.c **** 
 108:C:/Users/stapi/OneDrive/Desktop/GD32VW553/V1_MQTT_OK/GD32VW55X_Wifi_BLE_SDK/GD32VW55x_RELEASE_V1.0.2/MSDK/cloud/alicloud/src/sdk-impl\impl_ntp.c ****     if (tx > 999999999)
 109:C:/Users/stapi/OneDrive/Desktop/GD32VW553/V1_MQTT_OK/GD32VW55X_Wifi_BLE_SDK/GD32VW55x_RELEASE_V1.0.2/MSDK/cloud/alicloud/src/sdk-impl\impl_ntp.c ****     {
 110:C:/Users/stapi/OneDrive/Desktop/GD32VW553/V1_MQTT_OK/GD32VW55X_Wifi_BLE_SDK/GD32VW55x_RELEASE_V1.0.2/MSDK/cloud/alicloud/src/sdk-impl\impl_ntp.c ****         tx = 999999999;
 111:C:/Users/stapi/OneDrive/Desktop/GD32VW553/V1_MQTT_OK/GD32VW55X_Wifi_BLE_SDK/GD32VW55x_RELEASE_V1.0.2/MSDK/cloud/alicloud/src/sdk-impl\impl_ntp.c ****     }
 112:C:/Users/stapi/OneDrive/Desktop/GD32VW553/V1_MQTT_OK/GD32VW55X_Wifi_BLE_SDK/GD32VW55x_RELEASE_V1.0.2/MSDK/cloud/alicloud/src/sdk-impl\impl_ntp.c **** 
 113:C:/Users/stapi/OneDrive/Desktop/GD32VW553/V1_MQTT_OK/GD32VW55X_Wifi_BLE_SDK/GD32VW55x_RELEASE_V1.0.2/MSDK/cloud/alicloud/src/sdk-impl\impl_ntp.c ****     if (len > 9)
 242              		.loc 1 113 8 is_stmt 0
 243 014c B247     		lw	a5,12(sp)
 244 014e 37D69A3B 		li	a2,1000001536
 106:C:/Users/stapi/OneDrive/Desktop/GD32VW553/V1_MQTT_OK/GD32VW55X_Wifi_BLE_SDK/GD32VW55x_RELEASE_V1.0.2/MSDK/cloud/alicloud/src/sdk-impl\impl_ntp.c ****     tx += diff;
 245              		.loc 1 106 8
 246 0152 AA94     		add	s1,s1,a0
 247              	.LVL28:
 108:C:/Users/stapi/OneDrive/Desktop/GD32VW553/V1_MQTT_OK/GD32VW55X_Wifi_BLE_SDK/GD32VW55x_RELEASE_V1.0.2/MSDK/cloud/alicloud/src/sdk-impl\impl_ntp.c ****     {
 248              		.loc 1 108 5 is_stmt 1
 249 0154 1306F69F 		addi	a2,a2,-1537
 250 0158 33D6C40A 		minu	a2,s1,a2
 251              	.LVL29:
 252              		.loc 1 113 5
 253              		.loc 1 113 8 is_stmt 0
 254 015c 63DFF906 		ble	a5,s3,.L7
 114:C:/Users/stapi/OneDrive/Desktop/GD32VW553/V1_MQTT_OK/GD32VW55X_Wifi_BLE_SDK/GD32VW55x_RELEASE_V1.0.2/MSDK/cloud/alicloud/src/sdk-impl\impl_ntp.c ****     {
 115:C:/Users/stapi/OneDrive/Desktop/GD32VW553/V1_MQTT_OK/GD32VW55X_Wifi_BLE_SDK/GD32VW55x_RELEASE_V1.0.2/MSDK/cloud/alicloud/src/sdk-impl\impl_ntp.c ****         sprintf(elem, "%09u", (unsigned int)tx);
 255              		.loc 1 115 9 is_stmt 1
 256 0160 B7050000 		lui	a1,%hi(.LC5)
 257 0164 93850500 		addi	a1,a1,%lo(.LC5)
 258              	.L37:
 116:C:/Users/stapi/OneDrive/Desktop/GD32VW553/V1_MQTT_OK/GD32VW55X_Wifi_BLE_SDK/GD32VW55x_RELEASE_V1.0.2/MSDK/cloud/alicloud/src/sdk-impl\impl_ntp.c ****     }
 117:C:/Users/stapi/OneDrive/Desktop/GD32VW553/V1_MQTT_OK/GD32VW55X_Wifi_BLE_SDK/GD32VW55x_RELEASE_V1.0.2/MSDK/cloud/alicloud/src/sdk-impl\impl_ntp.c ****     else
 118:C:/Users/stapi/OneDrive/Desktop/GD32VW553/V1_MQTT_OK/GD32VW55X_Wifi_BLE_SDK/GD32VW55x_RELEASE_V1.0.2/MSDK/cloud/alicloud/src/sdk-impl\impl_ntp.c ****     {
 119:C:/Users/stapi/OneDrive/Desktop/GD32VW553/V1_MQTT_OK/GD32VW55X_Wifi_BLE_SDK/GD32VW55x_RELEASE_V1.0.2/MSDK/cloud/alicloud/src/sdk-impl\impl_ntp.c ****         sprintf(elem, "%u", (unsigned int)tx);
 259              		.loc 1 119 9 is_stmt 0
 260 0168 2285     		mv	a0,s0
 261 016a 97000000 		call	sprintf
 261      E7800000 
 262              	.LVL30:
 120:C:/Users/stapi/OneDrive/Desktop/GD32VW553/V1_MQTT_OK/GD32VW55X_Wifi_BLE_SDK/GD32VW55x_RELEASE_V1.0.2/MSDK/cloud/alicloud/src/sdk-impl\impl_ntp.c ****     }
 121:C:/Users/stapi/OneDrive/Desktop/GD32VW553/V1_MQTT_OK/GD32VW55X_Wifi_BLE_SDK/GD32VW55x_RELEASE_V1.0.2/MSDK/cloud/alicloud/src/sdk-impl\impl_ntp.c **** 
 122:C:/Users/stapi/OneDrive/Desktop/GD32VW553/V1_MQTT_OK/GD32VW55X_Wifi_BLE_SDK/GD32VW55x_RELEASE_V1.0.2/MSDK/cloud/alicloud/src/sdk-impl\impl_ntp.c ****     strncpy(g_ntp_time, (const char *)server_tx_time, sizeof(g_ntp_time) - 1);
 263              		.loc 1 122 5 is_stmt 1
 264 0172 5146     		li	a2,20
 265 0174 2C10     		addi	a1,sp,40
 266 0176 13050900 		addi	a0,s2,%lo(.LANCHOR0)
 267 017a 97000000 		call	strncpy
 267      E7800000 
 268              	.LVL31:
 269              	.L3:
 123:C:/Users/stapi/OneDrive/Desktop/GD32VW553/V1_MQTT_OK/GD32VW55X_Wifi_BLE_SDK/GD32VW55x_RELEASE_V1.0.2/MSDK/cloud/alicloud/src/sdk-impl\impl_ntp.c **** 
 124:C:/Users/stapi/OneDrive/Desktop/GD32VW553/V1_MQTT_OK/GD32VW55X_Wifi_BLE_SDK/GD32VW55x_RELEASE_V1.0.2/MSDK/cloud/alicloud/src/sdk-impl\impl_ntp.c **** NTP_FAIL:
 125:C:/Users/stapi/OneDrive/Desktop/GD32VW553/V1_MQTT_OK/GD32VW55X_Wifi_BLE_SDK/GD32VW55x_RELEASE_V1.0.2/MSDK/cloud/alicloud/src/sdk-impl\impl_ntp.c ****     if (g_ntp_reply_cb != NULL)
 270              		.loc 1 125 5
 271              		.loc 1 125 24 is_stmt 0
 272 0182 B7070000 		lui	a5,%hi(.LANCHOR2)
 273 0186 83A70700 		lw	a5,%lo(.LANCHOR2)(a5)
 274              		.loc 1 125 8
 275 018a 91C7     		beq	a5,zero,.L9
 126:C:/Users/stapi/OneDrive/Desktop/GD32VW553/V1_MQTT_OK/GD32VW55X_Wifi_BLE_SDK/GD32VW55x_RELEASE_V1.0.2/MSDK/cloud/alicloud/src/sdk-impl\impl_ntp.c ****     {
 127:C:/Users/stapi/OneDrive/Desktop/GD32VW553/V1_MQTT_OK/GD32VW55X_Wifi_BLE_SDK/GD32VW55x_RELEASE_V1.0.2/MSDK/cloud/alicloud/src/sdk-impl\impl_ntp.c ****         g_ntp_reply_cb(g_ntp_time);
 276              		.loc 1 127 9 is_stmt 1
 277 018c 37050000 		lui	a0,%hi(.LANCHOR0)
 278 0190 13050500 		addi	a0,a0,%lo(.LANCHOR0)
 279 0194 8297     		jalr	a5
 280              	.LVL32:
 281              	.L9:
 128:C:/Users/stapi/OneDrive/Desktop/GD32VW553/V1_MQTT_OK/GD32VW55X_Wifi_BLE_SDK/GD32VW55x_RELEASE_V1.0.2/MSDK/cloud/alicloud/src/sdk-impl\impl_ntp.c ****     }
 129:C:/Users/stapi/OneDrive/Desktop/GD32VW553/V1_MQTT_OK/GD32VW55X_Wifi_BLE_SDK/GD32VW55x_RELEASE_V1.0.2/MSDK/cloud/alicloud/src/sdk-impl\impl_ntp.c ****     if (g_ntp_reply_cb_1 != NULL)
 282              		.loc 1 129 5
 283              		.loc 1 129 26 is_stmt 0
 284 0196 B7070000 		lui	a5,%hi(.LANCHOR3)
 285 019a 83A70700 		lw	a5,%lo(.LANCHOR3)(a5)
 286              		.loc 1 129 8
 287 019e 91C7     		beq	a5,zero,.L10
 130:C:/Users/stapi/OneDrive/Desktop/GD32VW553/V1_MQTT_OK/GD32VW55X_Wifi_BLE_SDK/GD32VW55x_RELEASE_V1.0.2/MSDK/cloud/alicloud/src/sdk-impl\impl_ntp.c ****     {
 131:C:/Users/stapi/OneDrive/Desktop/GD32VW553/V1_MQTT_OK/GD32VW55X_Wifi_BLE_SDK/GD32VW55x_RELEASE_V1.0.2/MSDK/cloud/alicloud/src/sdk-impl\impl_ntp.c ****         g_ntp_reply_cb_1(g_ntp_time);
 288              		.loc 1 131 9 is_stmt 1
 289 01a0 37050000 		lui	a0,%hi(.LANCHOR0)
 290 01a4 13050500 		addi	a0,a0,%lo(.LANCHOR0)
 291 01a8 8297     		jalr	a5
 292              	.LVL33:
 293              	.L10:
 132:C:/Users/stapi/OneDrive/Desktop/GD32VW553/V1_MQTT_OK/GD32VW55X_Wifi_BLE_SDK/GD32VW55x_RELEASE_V1.0.2/MSDK/cloud/alicloud/src/sdk-impl\impl_ntp.c ****     }
 133:C:/Users/stapi/OneDrive/Desktop/GD32VW553/V1_MQTT_OK/GD32VW55X_Wifi_BLE_SDK/GD32VW55x_RELEASE_V1.0.2/MSDK/cloud/alicloud/src/sdk-impl\impl_ntp.c ****     if (g_ntp_reply_cb_2 != NULL)
 294              		.loc 1 133 5
 295              		.loc 1 133 26 is_stmt 0
 296 01aa B7070000 		lui	a5,%hi(.LANCHOR4)
 297 01ae 83A70700 		lw	a5,%lo(.LANCHOR4)(a5)
 298              		.loc 1 133 8
 299 01b2 91C7     		beq	a5,zero,.L1
 134:C:/Users/stapi/OneDrive/Desktop/GD32VW553/V1_MQTT_OK/GD32VW55X_Wifi_BLE_SDK/GD32VW55x_RELEASE_V1.0.2/MSDK/cloud/alicloud/src/sdk-impl\impl_ntp.c ****     {
 135:C:/Users/stapi/OneDrive/Desktop/GD32VW553/V1_MQTT_OK/GD32VW55X_Wifi_BLE_SDK/GD32VW55x_RELEASE_V1.0.2/MSDK/cloud/alicloud/src/sdk-impl\impl_ntp.c ****         g_ntp_reply_cb_2(g_ntp_time);
 300              		.loc 1 135 9 is_stmt 1
 301 01b4 37050000 		lui	a0,%hi(.LANCHOR0)
 302 01b8 13050500 		addi	a0,a0,%lo(.LANCHOR0)
 303 01bc 8297     		jalr	a5
 304              	.LVL34:
 136:C:/Users/stapi/OneDrive/Desktop/GD32VW553/V1_MQTT_OK/GD32VW55X_Wifi_BLE_SDK/GD32VW55x_RELEASE_V1.0.2/MSDK/cloud/alicloud/src/sdk-impl\impl_ntp.c ****     }
 137:C:/Users/stapi/OneDrive/Desktop/GD32VW553/V1_MQTT_OK/GD32VW55X_Wifi_BLE_SDK/GD32VW55x_RELEASE_V1.0.2/MSDK/cloud/alicloud/src/sdk-impl\impl_ntp.c ****     return;
 305              		.loc 1 137 5
 306              	.L1:
 138:C:/Users/stapi/OneDrive/Desktop/GD32VW553/V1_MQTT_OK/GD32VW55X_Wifi_BLE_SDK/GD32VW55x_RELEASE_V1.0.2/MSDK/cloud/alicloud/src/sdk-impl\impl_ntp.c **** }
 307              		.loc 1 138 1 is_stmt 0
 308 01be 2161     		addi	sp,sp,64
 309              		.cfi_remember_state
 310              		.cfi_def_cfa_offset 0
 311 01c0 17030000 		tail	__riscv_restore_4
 311      67000300 
 312              		.cfi_restore 19
 313              		.cfi_restore 18
 314              		.cfi_restore 9
 315              		.cfi_restore 8
 316              		.cfi_restore 1
 317              		.cfi_def_cfa_offset -32
 318              	.LVL35:
 319              	.L6:
 320              		.cfi_restore_state
  92:C:/Users/stapi/OneDrive/Desktop/GD32VW553/V1_MQTT_OK/GD32VW55X_Wifi_BLE_SDK/GD32VW55x_RELEASE_V1.0.2/MSDK/cloud/alicloud/src/sdk-impl\impl_ntp.c ****         tx += elem[0] - '0';
 321              		.loc 1 92 9 is_stmt 1
  93:C:/Users/stapi/OneDrive/Desktop/GD32VW553/V1_MQTT_OK/GD32VW55X_Wifi_BLE_SDK/GD32VW55x_RELEASE_V1.0.2/MSDK/cloud/alicloud/src/sdk-impl\impl_ntp.c ****         elem++;
 322              		.loc 1 93 9
  92:C:/Users/stapi/OneDrive/Desktop/GD32VW553/V1_MQTT_OK/GD32VW55X_Wifi_BLE_SDK/GD32VW55x_RELEASE_V1.0.2/MSDK/cloud/alicloud/src/sdk-impl\impl_ntp.c ****         tx += elem[0] - '0';
 323              		.loc 1 92 12 is_stmt 0
 324 01c8 B384D402 		mul	s1,s1,a3
 325              	.LVL36:
  93:C:/Users/stapi/OneDrive/Desktop/GD32VW553/V1_MQTT_OK/GD32VW55X_Wifi_BLE_SDK/GD32VW55x_RELEASE_V1.0.2/MSDK/cloud/alicloud/src/sdk-impl\impl_ntp.c ****         elem++;
 326              		.loc 1 93 12
 327 01cc 83070500 		lb	a5,0(a0)
  94:C:/Users/stapi/OneDrive/Desktop/GD32VW553/V1_MQTT_OK/GD32VW55X_Wifi_BLE_SDK/GD32VW55x_RELEASE_V1.0.2/MSDK/cloud/alicloud/src/sdk-impl\impl_ntp.c ****     }
 328              		.loc 1 94 13
 329 01d0 0505     		addi	a0,a0,1
 330              	.LVL37:
 331 01d2 938404FD 		addi	s1,s1,-48
  93:C:/Users/stapi/OneDrive/Desktop/GD32VW553/V1_MQTT_OK/GD32VW55X_Wifi_BLE_SDK/GD32VW55x_RELEASE_V1.0.2/MSDK/cloud/alicloud/src/sdk-impl\impl_ntp.c ****         elem++;
 332              		.loc 1 93 12
 333 01d6 BE94     		add	s1,a5,s1
 334              	.LVL38:
  94:C:/Users/stapi/OneDrive/Desktop/GD32VW553/V1_MQTT_OK/GD32VW55X_Wifi_BLE_SDK/GD32VW55x_RELEASE_V1.0.2/MSDK/cloud/alicloud/src/sdk-impl\impl_ntp.c ****     }
 335              		.loc 1 94 9 is_stmt 1
 336 01d8 35B7     		j	.L5
 337              	.LVL39:
 338              	.L7:
 119:C:/Users/stapi/OneDrive/Desktop/GD32VW553/V1_MQTT_OK/GD32VW55X_Wifi_BLE_SDK/GD32VW55x_RELEASE_V1.0.2/MSDK/cloud/alicloud/src/sdk-impl\impl_ntp.c ****     }
 339              		.loc 1 119 9
 340 01da B7050000 		lui	a1,%hi(.LC6)
 341 01de 93850500 		addi	a1,a1,%lo(.LC6)
 342 01e2 59B7     		j	.L37
 343              		.cfi_endproc
 344              	.LFE20:
 346              		.section	.rodata.linkkit_ntp_time_request.str1.4,"aMS",@progbits,1
 347              		.align	2
 348              	.LC7:
 349 0000 2F657874 		.string	"/ext/ntp/%s/%s/response"
 349      2F6E7470 
 349      2F25732F 
 349      25732F72 
 349      6573706F 
 350              		.align	2
 351              	.LC8:
 352 0018 2F657874 		.string	"/ext/ntp/%s/%s/request"
 352      2F6E7470 
 352      2F25732F 
 352      25732F72 
 352      65717565 
 353 002f 00       		.align	2
 354              	.LC9:
 355 0030 7B226465 		.string	"{\"deviceSendTime\":\"%u\"}"
 355      76696365 
 355      53656E64 
 355      54696D65 
 355      223A2225 
 356              		.align	2
 357              	.LC10:
 358 0048 7265706F 		.string	"report ntp:%s\r\n"
 358      7274206E 
 358      74703A25 
 358      730D0A00 
 359              		.section	.text.linkkit_ntp_time_request,"ax",@progbits
 360              		.align	1
 361              		.globl	linkkit_ntp_time_request
 363              	linkkit_ntp_time_request:
 364              	.LFB21:
 139:C:/Users/stapi/OneDrive/Desktop/GD32VW553/V1_MQTT_OK/GD32VW55X_Wifi_BLE_SDK/GD32VW55x_RELEASE_V1.0.2/MSDK/cloud/alicloud/src/sdk-impl\impl_ntp.c **** 
 140:C:/Users/stapi/OneDrive/Desktop/GD32VW553/V1_MQTT_OK/GD32VW55X_Wifi_BLE_SDK/GD32VW55x_RELEASE_V1.0.2/MSDK/cloud/alicloud/src/sdk-impl\impl_ntp.c **** int linkkit_ntp_time_request(void (*ntp_reply)(const char *ntp_offset_time_ms))
 141:C:/Users/stapi/OneDrive/Desktop/GD32VW553/V1_MQTT_OK/GD32VW55X_Wifi_BLE_SDK/GD32VW55x_RELEASE_V1.0.2/MSDK/cloud/alicloud/src/sdk-impl\impl_ntp.c **** {
 365              		.loc 1 141 1
 366              		.cfi_startproc
 367              	.LVL40:
 368 0000 17030000 		call	t0,__riscv_save_4
 368      E7020300 
 369              		.cfi_offset 19, -20
 370              		.cfi_offset 18, -16
 371              		.cfi_offset 9, -12
 372              		.cfi_offset 8, -8
 373              		.cfi_offset 1, -4
 374              		.cfi_def_cfa_offset 32
 142:C:/Users/stapi/OneDrive/Desktop/GD32VW553/V1_MQTT_OK/GD32VW55X_Wifi_BLE_SDK/GD32VW55x_RELEASE_V1.0.2/MSDK/cloud/alicloud/src/sdk-impl\impl_ntp.c ****     int ret = -1;
 375              		.loc 1 142 5
 376              	.LVL41:
 143:C:/Users/stapi/OneDrive/Desktop/GD32VW553/V1_MQTT_OK/GD32VW55X_Wifi_BLE_SDK/GD32VW55x_RELEASE_V1.0.2/MSDK/cloud/alicloud/src/sdk-impl\impl_ntp.c ****     int final_len = 0;
 377              		.loc 1 143 5
 144:C:/Users/stapi/OneDrive/Desktop/GD32VW553/V1_MQTT_OK/GD32VW55X_Wifi_BLE_SDK/GD32VW55x_RELEASE_V1.0.2/MSDK/cloud/alicloud/src/sdk-impl\impl_ntp.c ****     int packet_len = 64;
 378              		.loc 1 144 5
 145:C:/Users/stapi/OneDrive/Desktop/GD32VW553/V1_MQTT_OK/GD32VW55X_Wifi_BLE_SDK/GD32VW55x_RELEASE_V1.0.2/MSDK/cloud/alicloud/src/sdk-impl\impl_ntp.c ****     int topic_len = 128;
 379              		.loc 1 145 5
 146:C:/Users/stapi/OneDrive/Desktop/GD32VW553/V1_MQTT_OK/GD32VW55X_Wifi_BLE_SDK/GD32VW55x_RELEASE_V1.0.2/MSDK/cloud/alicloud/src/sdk-impl\impl_ntp.c ****     char *packet = NULL;
 380              		.loc 1 146 5
 147:C:/Users/stapi/OneDrive/Desktop/GD32VW553/V1_MQTT_OK/GD32VW55X_Wifi_BLE_SDK/GD32VW55x_RELEASE_V1.0.2/MSDK/cloud/alicloud/src/sdk-impl\impl_ntp.c ****     char *topic = NULL;
 381              		.loc 1 147 5
 148:C:/Users/stapi/OneDrive/Desktop/GD32VW553/V1_MQTT_OK/GD32VW55X_Wifi_BLE_SDK/GD32VW55x_RELEASE_V1.0.2/MSDK/cloud/alicloud/src/sdk-impl\impl_ntp.c **** 
 149:C:/Users/stapi/OneDrive/Desktop/GD32VW553/V1_MQTT_OK/GD32VW55X_Wifi_BLE_SDK/GD32VW55x_RELEASE_V1.0.2/MSDK/cloud/alicloud/src/sdk-impl\impl_ntp.c ****     do
 382              		.loc 1 149 5
 383              	.LBB2:
 150:C:/Users/stapi/OneDrive/Desktop/GD32VW553/V1_MQTT_OK/GD32VW55X_Wifi_BLE_SDK/GD32VW55x_RELEASE_V1.0.2/MSDK/cloud/alicloud/src/sdk-impl\impl_ntp.c ****     {
 151:C:/Users/stapi/OneDrive/Desktop/GD32VW553/V1_MQTT_OK/GD32VW55X_Wifi_BLE_SDK/GD32VW55x_RELEASE_V1.0.2/MSDK/cloud/alicloud/src/sdk-impl\impl_ntp.c ****         char pk[PRODUCT_KEY_LEN + 1] = {0};
 384              		.loc 1 151 9
 385              	.LBE2:
 141:C:/Users/stapi/OneDrive/Desktop/GD32VW553/V1_MQTT_OK/GD32VW55X_Wifi_BLE_SDK/GD32VW55x_RELEASE_V1.0.2/MSDK/cloud/alicloud/src/sdk-impl\impl_ntp.c ****     int ret = -1;
 386              		.loc 1 141 1 is_stmt 0
 387 0008 3971     		addi	sp,sp,-64
 388              		.cfi_def_cfa_offset 96
 389              	.LBB3:
 152:C:/Users/stapi/OneDrive/Desktop/GD32VW553/V1_MQTT_OK/GD32VW55X_Wifi_BLE_SDK/GD32VW55x_RELEASE_V1.0.2/MSDK/cloud/alicloud/src/sdk-impl\impl_ntp.c ****         char dn[DEVICE_NAME_LEN + 1] = {0};
 390              		.loc 1 152 14
 391 000a 7546     		li	a2,29
 392 000c 8145     		li	a1,0
 393              	.LBE3:
 141:C:/Users/stapi/OneDrive/Desktop/GD32VW553/V1_MQTT_OK/GD32VW55X_Wifi_BLE_SDK/GD32VW55x_RELEASE_V1.0.2/MSDK/cloud/alicloud/src/sdk-impl\impl_ntp.c ****     int ret = -1;
 394              		.loc 1 141 1
 395 000e AA89     		mv	s3,a0
 396              	.LBB4:
 397              		.loc 1 152 14
 398 0010 0810     		addi	a0,sp,32
 399              	.LVL42:
 151:C:/Users/stapi/OneDrive/Desktop/GD32VW553/V1_MQTT_OK/GD32VW55X_Wifi_BLE_SDK/GD32VW55x_RELEASE_V1.0.2/MSDK/cloud/alicloud/src/sdk-impl\impl_ntp.c ****         char dn[DEVICE_NAME_LEN + 1] = {0};
 400              		.loc 1 151 14
 401 0012 02C2     		sw	zero,4(sp)
 402 0014 02C4     		sw	zero,8(sp)
 403 0016 02C6     		sw	zero,12(sp)
 404 0018 02C8     		sw	zero,16(sp)
 405 001a 02CA     		sw	zero,20(sp)
 406 001c 230C0100 		sb	zero,24(sp)
 407              		.loc 1 152 9 is_stmt 1
 408              		.loc 1 152 14 is_stmt 0
 409 0020 02CE     		sw	zero,28(sp)
 410 0022 97000000 		call	memset
 410      E7800000 
 411              	.LVL43:
 153:C:/Users/stapi/OneDrive/Desktop/GD32VW553/V1_MQTT_OK/GD32VW55X_Wifi_BLE_SDK/GD32VW55x_RELEASE_V1.0.2/MSDK/cloud/alicloud/src/sdk-impl\impl_ntp.c **** 
 154:C:/Users/stapi/OneDrive/Desktop/GD32VW553/V1_MQTT_OK/GD32VW55X_Wifi_BLE_SDK/GD32VW55x_RELEASE_V1.0.2/MSDK/cloud/alicloud/src/sdk-impl\impl_ntp.c ****         HAL_GetProductKey(pk);
 412              		.loc 1 154 9 is_stmt 1
 413 002a 4800     		addi	a0,sp,4
 414 002c 97000000 		call	HAL_GetProductKey
 414      E7800000 
 415              	.LVL44:
 155:C:/Users/stapi/OneDrive/Desktop/GD32VW553/V1_MQTT_OK/GD32VW55X_Wifi_BLE_SDK/GD32VW55x_RELEASE_V1.0.2/MSDK/cloud/alicloud/src/sdk-impl\impl_ntp.c ****         HAL_GetDeviceName(dn);
 416              		.loc 1 155 9
 417 0034 6808     		addi	a0,sp,28
 418 0036 97000000 		call	HAL_GetDeviceName
 418      E7800000 
 419              	.LVL45:
 156:C:/Users/stapi/OneDrive/Desktop/GD32VW553/V1_MQTT_OK/GD32VW55X_Wifi_BLE_SDK/GD32VW55x_RELEASE_V1.0.2/MSDK/cloud/alicloud/src/sdk-impl\impl_ntp.c **** 
 157:C:/Users/stapi/OneDrive/Desktop/GD32VW553/V1_MQTT_OK/GD32VW55X_Wifi_BLE_SDK/GD32VW55x_RELEASE_V1.0.2/MSDK/cloud/alicloud/src/sdk-impl\impl_ntp.c ****         topic = (char *)IMPL_NTP_MALLOC(topic_len + 1);
 420              		.loc 1 157 9
 421              		.loc 1 157 25 is_stmt 0
 422 003e 13061008 		li	a2,129
 423 0042 8145     		li	a1,0
 424 0044 0145     		li	a0,0
 425 0046 97000000 		call	LITE_malloc_internal
 425      E7800000 
 426              	.LVL46:
 158:C:/Users/stapi/OneDrive/Desktop/GD32VW553/V1_MQTT_OK/GD32VW55X_Wifi_BLE_SDK/GD32VW55x_RELEASE_V1.0.2/MSDK/cloud/alicloud/src/sdk-impl\impl_ntp.c ****         if (topic == NULL)
 427              		.loc 1 158 9 is_stmt 1
 428              	.LBE4:
 142:C:/Users/stapi/OneDrive/Desktop/GD32VW553/V1_MQTT_OK/GD32VW55X_Wifi_BLE_SDK/GD32VW55x_RELEASE_V1.0.2/MSDK/cloud/alicloud/src/sdk-impl\impl_ntp.c ****     int final_len = 0;
 429              		.loc 1 142 9 is_stmt 0
 430 004e 7D54     		li	s0,-1
 431              	.LBB5:
 432              		.loc 1 158 12
 433 0050 63050512 		beq	a0,zero,.L38
 159:C:/Users/stapi/OneDrive/Desktop/GD32VW553/V1_MQTT_OK/GD32VW55X_Wifi_BLE_SDK/GD32VW55x_RELEASE_V1.0.2/MSDK/cloud/alicloud/src/sdk-impl\impl_ntp.c ****         {
 160:C:/Users/stapi/OneDrive/Desktop/GD32VW553/V1_MQTT_OK/GD32VW55X_Wifi_BLE_SDK/GD32VW55x_RELEASE_V1.0.2/MSDK/cloud/alicloud/src/sdk-impl\impl_ntp.c ****             goto NTP_REQ_ERR;
 161:C:/Users/stapi/OneDrive/Desktop/GD32VW553/V1_MQTT_OK/GD32VW55X_Wifi_BLE_SDK/GD32VW55x_RELEASE_V1.0.2/MSDK/cloud/alicloud/src/sdk-impl\impl_ntp.c ****         }
 162:C:/Users/stapi/OneDrive/Desktop/GD32VW553/V1_MQTT_OK/GD32VW55X_Wifi_BLE_SDK/GD32VW55x_RELEASE_V1.0.2/MSDK/cloud/alicloud/src/sdk-impl\impl_ntp.c ****         memset(topic, 0, topic_len + 1);
 434              		.loc 1 162 9
 435 0054 13061008 		li	a2,129
 436 0058 8145     		li	a1,0
 437 005a 2A89     		mv	s2,a0
 438              		.loc 1 162 9 is_stmt 1
 439 005c 97000000 		call	memset
 439      E7800000 
 440              	.LVL47:
 163:C:/Users/stapi/OneDrive/Desktop/GD32VW553/V1_MQTT_OK/GD32VW55X_Wifi_BLE_SDK/GD32VW55x_RELEASE_V1.0.2/MSDK/cloud/alicloud/src/sdk-impl\impl_ntp.c **** 
 164:C:/Users/stapi/OneDrive/Desktop/GD32VW553/V1_MQTT_OK/GD32VW55X_Wifi_BLE_SDK/GD32VW55x_RELEASE_V1.0.2/MSDK/cloud/alicloud/src/sdk-impl\impl_ntp.c ****         snprintf(topic, topic_len, TOPIC_NTP_REPLY, pk, dn);
 441              		.loc 1 164 9
 442 0064 37060000 		lui	a2,%hi(.LC7)
 443 0068 7808     		addi	a4,sp,28
 444 006a 5400     		addi	a3,sp,4
 445 006c 13060600 		addi	a2,a2,%lo(.LC7)
 446 0070 93050008 		li	a1,128
 447 0074 4A85     		mv	a0,s2
 448 0076 97000000 		call	snprintf
 448      E7800000 
 449              	.LVL48:
 165:C:/Users/stapi/OneDrive/Desktop/GD32VW553/V1_MQTT_OK/GD32VW55X_Wifi_BLE_SDK/GD32VW55x_RELEASE_V1.0.2/MSDK/cloud/alicloud/src/sdk-impl\impl_ntp.c **** #ifdef MQTT_AUTO_SUBSCRIBE
 166:C:/Users/stapi/OneDrive/Desktop/GD32VW553/V1_MQTT_OK/GD32VW55X_Wifi_BLE_SDK/GD32VW55x_RELEASE_V1.0.2/MSDK/cloud/alicloud/src/sdk-impl\impl_ntp.c ****         ret = IOT_MQTT_Subscribe_Sync(NULL, topic, IOTX_MQTT_QOS3_SUB_LOCAL,
 450              		.loc 1 166 9
 451              		.loc 1 166 15 is_stmt 0
 452 007e B7060000 		lui	a3,%hi(linkkit_ntp_time_reply)
 453 0082 9307803E 		li	a5,1000
 454 0086 0147     		li	a4,0
 455 0088 93860600 		addi	a3,a3,%lo(linkkit_ntp_time_reply)
 456 008c 0D46     		li	a2,3
 457 008e CA85     		mv	a1,s2
 458 0090 0145     		li	a0,0
 459 0092 97000000 		call	IOT_MQTT_Subscribe_Sync
 459      E7800000 
 460              	.LVL49:
 461 009a 2A84     		mv	s0,a0
 462              	.LVL50:
 167:C:/Users/stapi/OneDrive/Desktop/GD32VW553/V1_MQTT_OK/GD32VW55X_Wifi_BLE_SDK/GD32VW55x_RELEASE_V1.0.2/MSDK/cloud/alicloud/src/sdk-impl\impl_ntp.c ****                                       (iotx_mqtt_event_handle_func_fpt)linkkit_ntp_time_reply, NULL
 168:C:/Users/stapi/OneDrive/Desktop/GD32VW553/V1_MQTT_OK/GD32VW55X_Wifi_BLE_SDK/GD32VW55x_RELEASE_V1.0.2/MSDK/cloud/alicloud/src/sdk-impl\impl_ntp.c **** #else
 169:C:/Users/stapi/OneDrive/Desktop/GD32VW553/V1_MQTT_OK/GD32VW55X_Wifi_BLE_SDK/GD32VW55x_RELEASE_V1.0.2/MSDK/cloud/alicloud/src/sdk-impl\impl_ntp.c ****         ret = IOT_MQTT_Subscribe_Sync(NULL, topic, IOTX_MQTT_QOS0,
 170:C:/Users/stapi/OneDrive/Desktop/GD32VW553/V1_MQTT_OK/GD32VW55X_Wifi_BLE_SDK/GD32VW55x_RELEASE_V1.0.2/MSDK/cloud/alicloud/src/sdk-impl\impl_ntp.c ****                                       (iotx_mqtt_event_handle_func_fpt)linkkit_ntp_time_reply, NULL
 171:C:/Users/stapi/OneDrive/Desktop/GD32VW553/V1_MQTT_OK/GD32VW55X_Wifi_BLE_SDK/GD32VW55x_RELEASE_V1.0.2/MSDK/cloud/alicloud/src/sdk-impl\impl_ntp.c **** #endif
 172:C:/Users/stapi/OneDrive/Desktop/GD32VW553/V1_MQTT_OK/GD32VW55X_Wifi_BLE_SDK/GD32VW55x_RELEASE_V1.0.2/MSDK/cloud/alicloud/src/sdk-impl\impl_ntp.c ****         if (ret < 0)
 463              		.loc 1 172 9 is_stmt 1
 464              	.LBE5:
 146:C:/Users/stapi/OneDrive/Desktop/GD32VW553/V1_MQTT_OK/GD32VW55X_Wifi_BLE_SDK/GD32VW55x_RELEASE_V1.0.2/MSDK/cloud/alicloud/src/sdk-impl\impl_ntp.c ****     char *topic = NULL;
 465              		.loc 1 146 11 is_stmt 0
 466 009c 8144     		li	s1,0
 467              	.LBB6:
 468              		.loc 1 172 12
 469 009e 6343050C 		blt	a0,zero,.L41
 173:C:/Users/stapi/OneDrive/Desktop/GD32VW553/V1_MQTT_OK/GD32VW55X_Wifi_BLE_SDK/GD32VW55x_RELEASE_V1.0.2/MSDK/cloud/alicloud/src/sdk-impl\impl_ntp.c ****         {
 174:C:/Users/stapi/OneDrive/Desktop/GD32VW553/V1_MQTT_OK/GD32VW55X_Wifi_BLE_SDK/GD32VW55x_RELEASE_V1.0.2/MSDK/cloud/alicloud/src/sdk-impl\impl_ntp.c ****             goto NTP_REQ_ERR;
 175:C:/Users/stapi/OneDrive/Desktop/GD32VW553/V1_MQTT_OK/GD32VW55X_Wifi_BLE_SDK/GD32VW55x_RELEASE_V1.0.2/MSDK/cloud/alicloud/src/sdk-impl\impl_ntp.c ****         }
 176:C:/Users/stapi/OneDrive/Desktop/GD32VW553/V1_MQTT_OK/GD32VW55X_Wifi_BLE_SDK/GD32VW55x_RELEASE_V1.0.2/MSDK/cloud/alicloud/src/sdk-impl\impl_ntp.c **** 
 177:C:/Users/stapi/OneDrive/Desktop/GD32VW553/V1_MQTT_OK/GD32VW55X_Wifi_BLE_SDK/GD32VW55x_RELEASE_V1.0.2/MSDK/cloud/alicloud/src/sdk-impl\impl_ntp.c ****         memset(topic, 0, topic_len + 1);
 470              		.loc 1 177 9 is_stmt 1
 471 00a2 13061008 		li	a2,129
 472 00a6 8145     		li	a1,0
 473 00a8 4A85     		mv	a0,s2
 474 00aa 97000000 		call	memset
 474      E7800000 
 475              	.LVL51:
 178:C:/Users/stapi/OneDrive/Desktop/GD32VW553/V1_MQTT_OK/GD32VW55X_Wifi_BLE_SDK/GD32VW55x_RELEASE_V1.0.2/MSDK/cloud/alicloud/src/sdk-impl\impl_ntp.c ****         snprintf(topic, topic_len, TOPIC_NTP, pk, dn);
 476              		.loc 1 178 9
 477 00b2 37060000 		lui	a2,%hi(.LC8)
 478 00b6 7808     		addi	a4,sp,28
 479 00b8 5400     		addi	a3,sp,4
 480 00ba 13060600 		addi	a2,a2,%lo(.LC8)
 481 00be 93050008 		li	a1,128
 482 00c2 4A85     		mv	a0,s2
 483 00c4 97000000 		call	snprintf
 483      E7800000 
 484              	.LVL52:
 485              	.LBE6:
 179:C:/Users/stapi/OneDrive/Desktop/GD32VW553/V1_MQTT_OK/GD32VW55X_Wifi_BLE_SDK/GD32VW55x_RELEASE_V1.0.2/MSDK/cloud/alicloud/src/sdk-impl\impl_ntp.c ****     } while (0);
 486              		.loc 1 179 13
 180:C:/Users/stapi/OneDrive/Desktop/GD32VW553/V1_MQTT_OK/GD32VW55X_Wifi_BLE_SDK/GD32VW55x_RELEASE_V1.0.2/MSDK/cloud/alicloud/src/sdk-impl\impl_ntp.c **** 
 181:C:/Users/stapi/OneDrive/Desktop/GD32VW553/V1_MQTT_OK/GD32VW55X_Wifi_BLE_SDK/GD32VW55x_RELEASE_V1.0.2/MSDK/cloud/alicloud/src/sdk-impl\impl_ntp.c ****     packet = (char *)IMPL_NTP_MALLOC(packet_len + 1);
 487              		.loc 1 181 5
 488              		.loc 1 181 22 is_stmt 0
 489 00cc 13061004 		li	a2,65
 490 00d0 8145     		li	a1,0
 491 00d2 0145     		li	a0,0
 492 00d4 97000000 		call	LITE_malloc_internal
 492      E7800000 
 493              	.LVL53:
 494 00dc AA84     		mv	s1,a0
 495              	.LVL54:
 182:C:/Users/stapi/OneDrive/Desktop/GD32VW553/V1_MQTT_OK/GD32VW55X_Wifi_BLE_SDK/GD32VW55x_RELEASE_V1.0.2/MSDK/cloud/alicloud/src/sdk-impl\impl_ntp.c ****     if (packet == NULL)
 496              		.loc 1 182 5 is_stmt 1
 183:C:/Users/stapi/OneDrive/Desktop/GD32VW553/V1_MQTT_OK/GD32VW55X_Wifi_BLE_SDK/GD32VW55x_RELEASE_V1.0.2/MSDK/cloud/alicloud/src/sdk-impl\impl_ntp.c ****     {
 184:C:/Users/stapi/OneDrive/Desktop/GD32VW553/V1_MQTT_OK/GD32VW55X_Wifi_BLE_SDK/GD32VW55x_RELEASE_V1.0.2/MSDK/cloud/alicloud/src/sdk-impl\impl_ntp.c ****         ret = -1;
 497              		.loc 1 184 13 is_stmt 0
 498 00de 7D54     		li	s0,-1
 499              	.LVL55:
 182:C:/Users/stapi/OneDrive/Desktop/GD32VW553/V1_MQTT_OK/GD32VW55X_Wifi_BLE_SDK/GD32VW55x_RELEASE_V1.0.2/MSDK/cloud/alicloud/src/sdk-impl\impl_ntp.c ****     if (packet == NULL)
 500              		.loc 1 182 8
 501 00e0 51C1     		beq	a0,zero,.L41
 185:C:/Users/stapi/OneDrive/Desktop/GD32VW553/V1_MQTT_OK/GD32VW55X_Wifi_BLE_SDK/GD32VW55x_RELEASE_V1.0.2/MSDK/cloud/alicloud/src/sdk-impl\impl_ntp.c ****         goto NTP_REQ_ERR;
 186:C:/Users/stapi/OneDrive/Desktop/GD32VW553/V1_MQTT_OK/GD32VW55X_Wifi_BLE_SDK/GD32VW55x_RELEASE_V1.0.2/MSDK/cloud/alicloud/src/sdk-impl\impl_ntp.c ****     }
 187:C:/Users/stapi/OneDrive/Desktop/GD32VW553/V1_MQTT_OK/GD32VW55X_Wifi_BLE_SDK/GD32VW55x_RELEASE_V1.0.2/MSDK/cloud/alicloud/src/sdk-impl\impl_ntp.c ****     memset(packet, 0, packet_len + 1);
 502              		.loc 1 187 5 is_stmt 1
 503 00e2 13061004 		li	a2,65
 504 00e6 8145     		li	a1,0
 505 00e8 97000000 		call	memset
 505      E7800000 
 506              	.LVL56:
 188:C:/Users/stapi/OneDrive/Desktop/GD32VW553/V1_MQTT_OK/GD32VW55X_Wifi_BLE_SDK/GD32VW55x_RELEASE_V1.0.2/MSDK/cloud/alicloud/src/sdk-impl\impl_ntp.c ****     if (g_ntp_reply_cb == NULL || g_ntp_reply_cb == ntp_reply)
 507              		.loc 1 188 5
 508              		.loc 1 188 24 is_stmt 0
 509 00f0 B7070000 		lui	a5,%hi(.LANCHOR2)
 510 00f4 03A70700 		lw	a4,%lo(.LANCHOR2)(a5)
 511 00f8 93870700 		addi	a5,a5,%lo(.LANCHOR2)
 512              		.loc 1 188 8
 513 00fc 19C3     		beq	a4,zero,.L45
 514              		.loc 1 188 32 discriminator 1
 515 00fe 63143709 		bne	a4,s3,.L43
 516              	.L45:
 189:C:/Users/stapi/OneDrive/Desktop/GD32VW553/V1_MQTT_OK/GD32VW55X_Wifi_BLE_SDK/GD32VW55x_RELEASE_V1.0.2/MSDK/cloud/alicloud/src/sdk-impl\impl_ntp.c ****         g_ntp_reply_cb = ntp_reply;
 190:C:/Users/stapi/OneDrive/Desktop/GD32VW553/V1_MQTT_OK/GD32VW55X_Wifi_BLE_SDK/GD32VW55x_RELEASE_V1.0.2/MSDK/cloud/alicloud/src/sdk-impl\impl_ntp.c ****     else if (g_ntp_reply_cb_1 == NULL || g_ntp_reply_cb_1 == ntp_reply)
 191:C:/Users/stapi/OneDrive/Desktop/GD32VW553/V1_MQTT_OK/GD32VW55X_Wifi_BLE_SDK/GD32VW55x_RELEASE_V1.0.2/MSDK/cloud/alicloud/src/sdk-impl\impl_ntp.c ****         g_ntp_reply_cb_1 = ntp_reply;
 517              		.loc 1 191 9 is_stmt 1
 518              		.loc 1 191 26 is_stmt 0
 519 0102 23A03701 		sw	s3,0(a5)
 520              	.L44:
 192:C:/Users/stapi/OneDrive/Desktop/GD32VW553/V1_MQTT_OK/GD32VW55X_Wifi_BLE_SDK/GD32VW55x_RELEASE_V1.0.2/MSDK/cloud/alicloud/src/sdk-impl\impl_ntp.c ****     else //if (g_ntp_reply_cb_2 == NULL || g_ntp_reply_cb_2 == ntp_reply)
 193:C:/Users/stapi/OneDrive/Desktop/GD32VW553/V1_MQTT_OK/GD32VW55X_Wifi_BLE_SDK/GD32VW55x_RELEASE_V1.0.2/MSDK/cloud/alicloud/src/sdk-impl\impl_ntp.c ****         g_ntp_reply_cb_2 = ntp_reply;
 194:C:/Users/stapi/OneDrive/Desktop/GD32VW553/V1_MQTT_OK/GD32VW55X_Wifi_BLE_SDK/GD32VW55x_RELEASE_V1.0.2/MSDK/cloud/alicloud/src/sdk-impl\impl_ntp.c ****     final_len = snprintf(packet, packet_len, "{\"deviceSendTime\":\"%u\"}", (unsigned int)(HAL_Upti
 521              		.loc 1 194 5 is_stmt 1
 522              		.loc 1 194 92 is_stmt 0
 523 0106 97000000 		call	HAL_UptimeMs
 523      E7800000 
 524              	.LVL57:
 525              		.loc 1 194 17
 526 010e 37060000 		lui	a2,%hi(.LC9)
 527              		.loc 1 194 92
 528 0112 AA86     		mv	a3,a0
 529              		.loc 1 194 17
 530 0114 13060600 		addi	a2,a2,%lo(.LC9)
 531 0118 93050004 		li	a1,64
 532 011c 2685     		mv	a0,s1
 533 011e 97000000 		call	snprintf
 533      E7800000 
 534              	.LVL58:
 535 0126 2A84     		mv	s0,a0
 536              	.LVL59:
 195:C:/Users/stapi/OneDrive/Desktop/GD32VW553/V1_MQTT_OK/GD32VW55X_Wifi_BLE_SDK/GD32VW55x_RELEASE_V1.0.2/MSDK/cloud/alicloud/src/sdk-impl\impl_ntp.c **** 
 196:C:/Users/stapi/OneDrive/Desktop/GD32VW553/V1_MQTT_OK/GD32VW55X_Wifi_BLE_SDK/GD32VW55x_RELEASE_V1.0.2/MSDK/cloud/alicloud/src/sdk-impl\impl_ntp.c ****     log_debug("[ntp]", "report ntp:%s\r\n", packet);
 537              		.loc 1 196 5 is_stmt 1
 538 0128 37070000 		lui	a4,%hi(.LC10)
 539 012c B7050000 		lui	a1,%hi(.LANCHOR5)
 540 0130 37050000 		lui	a0,%hi(.LC1)
 541 0134 A687     		mv	a5,s1
 542 0136 13070700 		addi	a4,a4,%lo(.LC10)
 543 013a 9546     		li	a3,5
 544 013c 1306400C 		li	a2,196
 545 0140 93850500 		addi	a1,a1,%lo(.LANCHOR5)
 546 0144 13050500 		addi	a0,a0,%lo(.LC1)
 547 0148 97000000 		call	LITE_syslog
 547      E7800000 
 548              	.LVL60:
 197:C:/Users/stapi/OneDrive/Desktop/GD32VW553/V1_MQTT_OK/GD32VW55X_Wifi_BLE_SDK/GD32VW55x_RELEASE_V1.0.2/MSDK/cloud/alicloud/src/sdk-impl\impl_ntp.c **** 
 198:C:/Users/stapi/OneDrive/Desktop/GD32VW553/V1_MQTT_OK/GD32VW55X_Wifi_BLE_SDK/GD32VW55x_RELEASE_V1.0.2/MSDK/cloud/alicloud/src/sdk-impl\impl_ntp.c ****     ret = IOT_MQTT_Publish_Simple(NULL, topic, IOTX_MQTT_QOS0, packet, final_len);
 549              		.loc 1 198 5
 550              		.loc 1 198 11 is_stmt 0
 551 0150 2287     		mv	a4,s0
 552 0152 A686     		mv	a3,s1
 553 0154 0146     		li	a2,0
 554 0156 CA85     		mv	a1,s2
 555 0158 0145     		li	a0,0
 556 015a 97000000 		call	IOT_MQTT_Publish_Simple
 556      E7800000 
 557              	.LVL61:
 558 0162 2A84     		mv	s0,a0
 559              	.LVL62:
 560              	.L41:
 199:C:/Users/stapi/OneDrive/Desktop/GD32VW553/V1_MQTT_OK/GD32VW55X_Wifi_BLE_SDK/GD32VW55x_RELEASE_V1.0.2/MSDK/cloud/alicloud/src/sdk-impl\impl_ntp.c **** 
 200:C:/Users/stapi/OneDrive/Desktop/GD32VW553/V1_MQTT_OK/GD32VW55X_Wifi_BLE_SDK/GD32VW55x_RELEASE_V1.0.2/MSDK/cloud/alicloud/src/sdk-impl\impl_ntp.c **** NTP_REQ_ERR:
 201:C:/Users/stapi/OneDrive/Desktop/GD32VW553/V1_MQTT_OK/GD32VW55X_Wifi_BLE_SDK/GD32VW55x_RELEASE_V1.0.2/MSDK/cloud/alicloud/src/sdk-impl\impl_ntp.c ****     if (topic)
 202:C:/Users/stapi/OneDrive/Desktop/GD32VW553/V1_MQTT_OK/GD32VW55X_Wifi_BLE_SDK/GD32VW55x_RELEASE_V1.0.2/MSDK/cloud/alicloud/src/sdk-impl\impl_ntp.c ****     {
 203:C:/Users/stapi/OneDrive/Desktop/GD32VW553/V1_MQTT_OK/GD32VW55X_Wifi_BLE_SDK/GD32VW55x_RELEASE_V1.0.2/MSDK/cloud/alicloud/src/sdk-impl\impl_ntp.c ****         IMPL_NTP_FREE(topic);
 561              		.loc 1 203 9 is_stmt 1
 562 0164 4A85     		mv	a0,s2
 563 0166 97000000 		call	LITE_free_internal
 563      E7800000 
 564              	.LVL63:
 204:C:/Users/stapi/OneDrive/Desktop/GD32VW553/V1_MQTT_OK/GD32VW55X_Wifi_BLE_SDK/GD32VW55x_RELEASE_V1.0.2/MSDK/cloud/alicloud/src/sdk-impl\impl_ntp.c ****     }
 205:C:/Users/stapi/OneDrive/Desktop/GD32VW553/V1_MQTT_OK/GD32VW55X_Wifi_BLE_SDK/GD32VW55x_RELEASE_V1.0.2/MSDK/cloud/alicloud/src/sdk-impl\impl_ntp.c ****     if (packet)
 565              		.loc 1 205 5
 566              		.loc 1 205 8 is_stmt 0
 567 016e 91C4     		beq	s1,zero,.L38
 206:C:/Users/stapi/OneDrive/Desktop/GD32VW553/V1_MQTT_OK/GD32VW55X_Wifi_BLE_SDK/GD32VW55x_RELEASE_V1.0.2/MSDK/cloud/alicloud/src/sdk-impl\impl_ntp.c ****     {
 207:C:/Users/stapi/OneDrive/Desktop/GD32VW553/V1_MQTT_OK/GD32VW55X_Wifi_BLE_SDK/GD32VW55x_RELEASE_V1.0.2/MSDK/cloud/alicloud/src/sdk-impl\impl_ntp.c ****         IMPL_NTP_FREE(packet);
 568              		.loc 1 207 9 is_stmt 1
 569 0170 2685     		mv	a0,s1
 570 0172 97000000 		call	LITE_free_internal
 570      E7800000 
 571              	.LVL64:
 208:C:/Users/stapi/OneDrive/Desktop/GD32VW553/V1_MQTT_OK/GD32VW55X_Wifi_BLE_SDK/GD32VW55x_RELEASE_V1.0.2/MSDK/cloud/alicloud/src/sdk-impl\impl_ntp.c ****     }
 209:C:/Users/stapi/OneDrive/Desktop/GD32VW553/V1_MQTT_OK/GD32VW55X_Wifi_BLE_SDK/GD32VW55x_RELEASE_V1.0.2/MSDK/cloud/alicloud/src/sdk-impl\impl_ntp.c ****     return ret;
 572              		.loc 1 209 5
 573              	.L38:
 210:C:/Users/stapi/OneDrive/Desktop/GD32VW553/V1_MQTT_OK/GD32VW55X_Wifi_BLE_SDK/GD32VW55x_RELEASE_V1.0.2/MSDK/cloud/alicloud/src/sdk-impl\impl_ntp.c **** }
 574              		.loc 1 210 1 is_stmt 0
 575 017a 2285     		mv	a0,s0
 576 017c 2161     		addi	sp,sp,64
 577              		.cfi_remember_state
 578              		.cfi_def_cfa_offset 0
 579 017e 17030000 		tail	__riscv_restore_4
 579      67000300 
 580              		.cfi_restore 19
 581              		.cfi_restore 18
 582              		.cfi_restore 9
 583              		.cfi_restore 8
 584              		.cfi_restore 1
 585              		.cfi_def_cfa_offset -32
 586              	.LVL65:
 587              	.L43:
 588              		.cfi_restore_state
 190:C:/Users/stapi/OneDrive/Desktop/GD32VW553/V1_MQTT_OK/GD32VW55X_Wifi_BLE_SDK/GD32VW55x_RELEASE_V1.0.2/MSDK/cloud/alicloud/src/sdk-impl\impl_ntp.c ****         g_ntp_reply_cb_1 = ntp_reply;
 589              		.loc 1 190 10 is_stmt 1
 190:C:/Users/stapi/OneDrive/Desktop/GD32VW553/V1_MQTT_OK/GD32VW55X_Wifi_BLE_SDK/GD32VW55x_RELEASE_V1.0.2/MSDK/cloud/alicloud/src/sdk-impl\impl_ntp.c ****         g_ntp_reply_cb_1 = ntp_reply;
 590              		.loc 1 190 31 is_stmt 0
 591 0186 B7070000 		lui	a5,%hi(.LANCHOR3)
 592 018a 03A70700 		lw	a4,%lo(.LANCHOR3)(a5)
 593 018e 93870700 		addi	a5,a5,%lo(.LANCHOR3)
 190:C:/Users/stapi/OneDrive/Desktop/GD32VW553/V1_MQTT_OK/GD32VW55X_Wifi_BLE_SDK/GD32VW55x_RELEASE_V1.0.2/MSDK/cloud/alicloud/src/sdk-impl\impl_ntp.c ****         g_ntp_reply_cb_1 = ntp_reply;
 594              		.loc 1 190 13
 595 0192 25DB     		beq	a4,zero,.L45
 190:C:/Users/stapi/OneDrive/Desktop/GD32VW553/V1_MQTT_OK/GD32VW55X_Wifi_BLE_SDK/GD32VW55x_RELEASE_V1.0.2/MSDK/cloud/alicloud/src/sdk-impl\impl_ntp.c ****         g_ntp_reply_cb_1 = ntp_reply;
 596              		.loc 1 190 39 discriminator 1
 597 0194 E30737F7 		beq	a4,s3,.L45
 193:C:/Users/stapi/OneDrive/Desktop/GD32VW553/V1_MQTT_OK/GD32VW55X_Wifi_BLE_SDK/GD32VW55x_RELEASE_V1.0.2/MSDK/cloud/alicloud/src/sdk-impl\impl_ntp.c ****     final_len = snprintf(packet, packet_len, "{\"deviceSendTime\":\"%u\"}", (unsigned int)(HAL_Upti
 598              		.loc 1 193 9 is_stmt 1
 193:C:/Users/stapi/OneDrive/Desktop/GD32VW553/V1_MQTT_OK/GD32VW55X_Wifi_BLE_SDK/GD32VW55x_RELEASE_V1.0.2/MSDK/cloud/alicloud/src/sdk-impl\impl_ntp.c ****     final_len = snprintf(packet, packet_len, "{\"deviceSendTime\":\"%u\"}", (unsigned int)(HAL_Upti
 599              		.loc 1 193 26 is_stmt 0
 600 0198 B7070000 		lui	a5,%hi(.LANCHOR4)
 601 019c 23A03701 		sw	s3,%lo(.LANCHOR4)(a5)
 602 01a0 9DB7     		j	.L44
 603              		.cfi_endproc
 604              	.LFE21:
 606              		.section	.bss.g_ntp_time,"aw",@nobits
 607              		.align	2
 608              		.set	.LANCHOR0,. + 0
 611              	g_ntp_time:
 612 0000 00000000 		.zero	21
 612      00000000 
 612      00000000 
 612      00000000 
 612      00000000 
 613              		.section	.rodata.__FUNCTION__.0,"a"
 614              		.align	2
 615              		.set	.LANCHOR1,. + 0
 618              	__FUNCTION__.0:
 619 0000 6C696E6B 		.string	"linkkit_ntp_time_reply"
 619      6B69745F 
 619      6E74705F 
 619      74696D65 
 619      5F726570 
 620              		.section	.rodata.__FUNCTION__.1,"a"
 621              		.align	2
 622              		.set	.LANCHOR5,. + 0
 625              	__FUNCTION__.1:
 626 0000 6C696E6B 		.string	"linkkit_ntp_time_request"
 626      6B69745F 
 626      6E74705F 
 626      74696D65 
 626      5F726571 
 627              		.section	.sbss.g_ntp_reply_cb,"aw",@nobits
 628              		.align	2
 629              		.set	.LANCHOR2,. + 0
 632              	g_ntp_reply_cb:
 633 0000 00000000 		.zero	4
 634              		.section	.sbss.g_ntp_reply_cb_1,"aw",@nobits
 635              		.align	2
 636              		.set	.LANCHOR3,. + 0
 639              	g_ntp_reply_cb_1:
 640 0000 00000000 		.zero	4
 641              		.section	.sbss.g_ntp_reply_cb_2,"aw",@nobits
 642              		.align	2
 643              		.set	.LANCHOR4,. + 0
 646              	g_ntp_reply_cb_2:
 647 0000 00000000 		.zero	4
 648              		.text
 649              	.Letext0:
 650              		.file 2 "c:\\users\\stapi\\onedrive\\desktop\\gd32vw553\\embeddedbuilder_v1.4.7.26843\\tools\\nucl
 651              		.file 3 "c:\\users\\stapi\\onedrive\\desktop\\gd32vw553\\embeddedbuilder_v1.4.7.26843\\tools\\nucl
 652              		.file 4 "..\\..\\..\\..\\cloud\\alicloud\\include/exports/iot_export_mqtt.h"
 653              		.file 5 "..\\..\\..\\..\\cloud\\alicloud\\include/imports/iot_import_product.h"
 654              		.file 6 "..\\..\\..\\..\\cloud\\alicloud\\src\\infra\\utils/iotx_utils.h"
 655              		.file 7 "c:\\users\\stapi\\onedrive\\desktop\\gd32vw553\\embeddedbuilder_v1.4.7.26843\\tools\\nucl
 656              		.file 8 "..\\..\\..\\..\\cloud\\alicloud\\include/iot_import.h"
 657              		.file 9 "..\\..\\..\\..\\cloud\\alicloud\\src\\infra\\log/iotx_log.h"
 658              		.file 10 "..\\..\\..\\..\\cloud\\alicloud\\src\\infra\\utils\\misc/json_parser.h"
 659              		.file 11 "<built-in>"
 660              		.file 12 "c:\\users\\stapi\\onedrive\\desktop\\gd32vw553\\embeddedbuilder_v1.4.7.26843\\tools\\nuc
 661              		.file 13 "c:\\users\\stapi\\onedrive\\desktop\\gd32vw553\\embeddedbuilder_v1.4.7.26843\\tools\\nuc