   1              		.file	"impl_logpost.c"
   2              		.option nopic
   3              		.attribute arch, "rv32i2p0_m2p0_a2p0_f2p0_c2p0_b_p0p94"
   4              		.attribute unaligned_access, 0
   5              		.attribute stack_align, 16
   6              		.text
   7              	.Ltext0:
   8              		.cfi_sections	.debug_frame
   9              		.section	.rodata.IOT_MQTT_LogPost.str1.4,"aMS",@progbits,1
  10              		.align	2
  11              	.LC0:
  12 0000 2F737973 		.string	"/sys/%s/%s/thing/log/post"
  12      2F25732F 
  12      25732F74 
  12      68696E67 
  12      2F6C6F67 
  13 001a 0000     		.align	2
  14              	.LC1:
  15 001c 5B657272 		.string	"[err] "
  15      5D2000
  16 0023 00       		.align	2
  17              	.LC2:
  18 0024 6C6F6720 		.string	"log topic generate err"
  18      746F7069 
  18      63206765 
  18      6E657261 
  18      74652065 
  19 003b 00       		.align	2
  20              	.LC3:
  21 003c 0D0A00   		.string	"\r\n"
  22 003f 00       		.align	2
  23              	.LC4:
  24 0040 6C6F6720 		.string	"log post data: %s"
  24      706F7374 
  24      20646174 
  24      613A2025 
  24      7300
  25 0052 0000     		.align	2
  26              	.LC5:
  27 0054 6C6F6770 		.string	"logpost"
  27      6F737400 
  28              		.align	2
  29              	.LC6:
  30 005c 7075626C 		.string	"publish failed"
  30      69736820 
  30      6661696C 
  30      656400
  31 006b 00       		.align	2
  32              	.LC7:
  33 006c 5B696E66 		.string	"[inf] "
  33      5D2000
  34 0073 00       		.align	2
  35              	.LC8:
  36 0074 6C6F6720 		.string	"log post to cloud fail, ret = %d\n"
  36      706F7374 
  36      20746F20 
  36      636C6F75 
  36      64206661 
  37              		.section	.text.IOT_MQTT_LogPost,"ax",@progbits
  38              		.align	1
  39              		.globl	IOT_MQTT_LogPost
  41              	IOT_MQTT_LogPost:
  42              	.LFB20:
  43              		.file 1 "C:/Users/stapi/OneDrive/Desktop/GD32VW553/V1_MQTT_OK/GD32VW55X_Wifi_BLE_SDK/GD32VW55x_REL
   1:C:/Users/stapi/OneDrive/Desktop/GD32VW553/V1_MQTT_OK/GD32VW55X_Wifi_BLE_SDK/GD32VW55x_RELEASE_V1.0.2/MSDK/cloud/alicloud/src/sdk-impl\impl_logpost.c **** /*
   2:C:/Users/stapi/OneDrive/Desktop/GD32VW553/V1_MQTT_OK/GD32VW55X_Wifi_BLE_SDK/GD32VW55x_RELEASE_V1.0.2/MSDK/cloud/alicloud/src/sdk-impl\impl_logpost.c ****  * Copyright (C) 2015-2018 Alibaba Group Holding Limited
   3:C:/Users/stapi/OneDrive/Desktop/GD32VW553/V1_MQTT_OK/GD32VW55X_Wifi_BLE_SDK/GD32VW55x_RELEASE_V1.0.2/MSDK/cloud/alicloud/src/sdk-impl\impl_logpost.c ****  */
   4:C:/Users/stapi/OneDrive/Desktop/GD32VW553/V1_MQTT_OK/GD32VW55X_Wifi_BLE_SDK/GD32VW55x_RELEASE_V1.0.2/MSDK/cloud/alicloud/src/sdk-impl\impl_logpost.c **** 
   5:C:/Users/stapi/OneDrive/Desktop/GD32VW553/V1_MQTT_OK/GD32VW55X_Wifi_BLE_SDK/GD32VW55x_RELEASE_V1.0.2/MSDK/cloud/alicloud/src/sdk-impl\impl_logpost.c **** #ifdef MQTT_COMM_ENABLED
   6:C:/Users/stapi/OneDrive/Desktop/GD32VW553/V1_MQTT_OK/GD32VW55X_Wifi_BLE_SDK/GD32VW55x_RELEASE_V1.0.2/MSDK/cloud/alicloud/src/sdk-impl\impl_logpost.c **** #include "sdk-impl_internal.h"
   7:C:/Users/stapi/OneDrive/Desktop/GD32VW553/V1_MQTT_OK/GD32VW55X_Wifi_BLE_SDK/GD32VW55x_RELEASE_V1.0.2/MSDK/cloud/alicloud/src/sdk-impl\impl_logpost.c **** 
   8:C:/Users/stapi/OneDrive/Desktop/GD32VW553/V1_MQTT_OK/GD32VW55X_Wifi_BLE_SDK/GD32VW55x_RELEASE_V1.0.2/MSDK/cloud/alicloud/src/sdk-impl\impl_logpost.c **** #define LOG_PUBLISH_MSG_MAXLEN   (255)
   9:C:/Users/stapi/OneDrive/Desktop/GD32VW553/V1_MQTT_OK/GD32VW55X_Wifi_BLE_SDK/GD32VW55x_RELEASE_V1.0.2/MSDK/cloud/alicloud/src/sdk-impl\impl_logpost.c **** 
  10:C:/Users/stapi/OneDrive/Desktop/GD32VW553/V1_MQTT_OK/GD32VW55X_Wifi_BLE_SDK/GD32VW55x_RELEASE_V1.0.2/MSDK/cloud/alicloud/src/sdk-impl\impl_logpost.c **** #define IMPL_LOGPOST_MALLOC(size)    LITE_malloc(size, MEM_MAGIC, "impl.logpost")
  11:C:/Users/stapi/OneDrive/Desktop/GD32VW553/V1_MQTT_OK/GD32VW55X_Wifi_BLE_SDK/GD32VW55x_RELEASE_V1.0.2/MSDK/cloud/alicloud/src/sdk-impl\impl_logpost.c **** #define IMPL_LOGPOST_FREE(ptr)       LITE_free(ptr)
  12:C:/Users/stapi/OneDrive/Desktop/GD32VW553/V1_MQTT_OK/GD32VW55X_Wifi_BLE_SDK/GD32VW55x_RELEASE_V1.0.2/MSDK/cloud/alicloud/src/sdk-impl\impl_logpost.c **** 
  13:C:/Users/stapi/OneDrive/Desktop/GD32VW553/V1_MQTT_OK/GD32VW55X_Wifi_BLE_SDK/GD32VW55x_RELEASE_V1.0.2/MSDK/cloud/alicloud/src/sdk-impl\impl_logpost.c **** static int iotx_mc_log_post(void *pclient, char *payload);
  14:C:/Users/stapi/OneDrive/Desktop/GD32VW553/V1_MQTT_OK/GD32VW55X_Wifi_BLE_SDK/GD32VW55x_RELEASE_V1.0.2/MSDK/cloud/alicloud/src/sdk-impl\impl_logpost.c **** 
  15:C:/Users/stapi/OneDrive/Desktop/GD32VW553/V1_MQTT_OK/GD32VW55X_Wifi_BLE_SDK/GD32VW55x_RELEASE_V1.0.2/MSDK/cloud/alicloud/src/sdk-impl\impl_logpost.c **** static const char THING_LOG_POST_PARAMS[] =
  16:C:/Users/stapi/OneDrive/Desktop/GD32VW553/V1_MQTT_OK/GD32VW55X_Wifi_BLE_SDK/GD32VW55x_RELEASE_V1.0.2/MSDK/cloud/alicloud/src/sdk-impl\impl_logpost.c ****             "{\"id\":\"%d\",\"version\":\"1.0\",\"params\":[{\"timestamp\":%d,\"logLevel\":\"%s\",\
  17:C:/Users/stapi/OneDrive/Desktop/GD32VW553/V1_MQTT_OK/GD32VW55X_Wifi_BLE_SDK/GD32VW55x_RELEASE_V1.0.2/MSDK/cloud/alicloud/src/sdk-impl\impl_logpost.c **** 
  18:C:/Users/stapi/OneDrive/Desktop/GD32VW553/V1_MQTT_OK/GD32VW55X_Wifi_BLE_SDK/GD32VW55x_RELEASE_V1.0.2/MSDK/cloud/alicloud/src/sdk-impl\impl_logpost.c **** static const char THING_LOG_POST_PARAMS_TAIL[] =
  19:C:/Users/stapi/OneDrive/Desktop/GD32VW553/V1_MQTT_OK/GD32VW55X_Wifi_BLE_SDK/GD32VW55x_RELEASE_V1.0.2/MSDK/cloud/alicloud/src/sdk-impl\impl_logpost.c ****             "...\"}],\"method\":\"thing.log.post\"}";
  20:C:/Users/stapi/OneDrive/Desktop/GD32VW553/V1_MQTT_OK/GD32VW55X_Wifi_BLE_SDK/GD32VW55x_RELEASE_V1.0.2/MSDK/cloud/alicloud/src/sdk-impl\impl_logpost.c **** 
  21:C:/Users/stapi/OneDrive/Desktop/GD32VW553/V1_MQTT_OK/GD32VW55X_Wifi_BLE_SDK/GD32VW55x_RELEASE_V1.0.2/MSDK/cloud/alicloud/src/sdk-impl\impl_logpost.c **** /* Post log information to cloud through mqtt */
  22:C:/Users/stapi/OneDrive/Desktop/GD32VW553/V1_MQTT_OK/GD32VW55X_Wifi_BLE_SDK/GD32VW55x_RELEASE_V1.0.2/MSDK/cloud/alicloud/src/sdk-impl\impl_logpost.c **** int IOT_MQTT_LogPost(void *pHandle, const char *level, const char *module, const char *msg)
  23:C:/Users/stapi/OneDrive/Desktop/GD32VW553/V1_MQTT_OK/GD32VW55X_Wifi_BLE_SDK/GD32VW55x_RELEASE_V1.0.2/MSDK/cloud/alicloud/src/sdk-impl\impl_logpost.c **** {
  44              		.loc 1 23 1
  45              		.cfi_startproc
  46              	.LVL0:
  47 0000 17030000 		call	t0,__riscv_save_5
  47      E7020300 
  48              		.cfi_offset 20, -24
  49              		.cfi_offset 19, -20
  50              		.cfi_offset 18, -16
  51              		.cfi_offset 9, -12
  52              		.cfi_offset 8, -8
  53              		.cfi_offset 1, -4
  54              		.cfi_def_cfa_offset 32
  24:C:/Users/stapi/OneDrive/Desktop/GD32VW553/V1_MQTT_OK/GD32VW55X_Wifi_BLE_SDK/GD32VW55x_RELEASE_V1.0.2/MSDK/cloud/alicloud/src/sdk-impl\impl_logpost.c ****     char *logbuf = NULL;
  55              		.loc 1 24 5
  56              	.LVL1:
  25:C:/Users/stapi/OneDrive/Desktop/GD32VW553/V1_MQTT_OK/GD32VW55X_Wifi_BLE_SDK/GD32VW55x_RELEASE_V1.0.2/MSDK/cloud/alicloud/src/sdk-impl\impl_logpost.c ****     int msgid = 123;
  57              		.loc 1 25 5
  26:C:/Users/stapi/OneDrive/Desktop/GD32VW553/V1_MQTT_OK/GD32VW55X_Wifi_BLE_SDK/GD32VW55x_RELEASE_V1.0.2/MSDK/cloud/alicloud/src/sdk-impl\impl_logpost.c ****     int length = 0;
  58              		.loc 1 26 5
  27:C:/Users/stapi/OneDrive/Desktop/GD32VW553/V1_MQTT_OK/GD32VW55X_Wifi_BLE_SDK/GD32VW55x_RELEASE_V1.0.2/MSDK/cloud/alicloud/src/sdk-impl\impl_logpost.c ****     int ret = 0;
  59              		.loc 1 27 5
  28:C:/Users/stapi/OneDrive/Desktop/GD32VW553/V1_MQTT_OK/GD32VW55X_Wifi_BLE_SDK/GD32VW55x_RELEASE_V1.0.2/MSDK/cloud/alicloud/src/sdk-impl\impl_logpost.c **** 
  29:C:/Users/stapi/OneDrive/Desktop/GD32VW553/V1_MQTT_OK/GD32VW55X_Wifi_BLE_SDK/GD32VW55x_RELEASE_V1.0.2/MSDK/cloud/alicloud/src/sdk-impl\impl_logpost.c ****     if (!pHandle || !module || !level || !msg) {
  60              		.loc 1 29 5
  23:C:/Users/stapi/OneDrive/Desktop/GD32VW553/V1_MQTT_OK/GD32VW55X_Wifi_BLE_SDK/GD32VW55x_RELEASE_V1.0.2/MSDK/cloud/alicloud/src/sdk-impl\impl_logpost.c ****     char *logbuf = NULL;
  61              		.loc 1 23 1 is_stmt 0
  62 0008 1571     		addi	sp,sp,-224
  63              		.cfi_def_cfa_offset 256
  64              		.loc 1 29 8
  65 000a 01E9     		bne	a0,zero,.L2
  66              	.LVL2:
  67              	.L28:
  30:C:/Users/stapi/OneDrive/Desktop/GD32VW553/V1_MQTT_OK/GD32VW55X_Wifi_BLE_SDK/GD32VW55x_RELEASE_V1.0.2/MSDK/cloud/alicloud/src/sdk-impl\impl_logpost.c ****         return FAIL_RETURN;
  31:C:/Users/stapi/OneDrive/Desktop/GD32VW553/V1_MQTT_OK/GD32VW55X_Wifi_BLE_SDK/GD32VW55x_RELEASE_V1.0.2/MSDK/cloud/alicloud/src/sdk-impl\impl_logpost.c ****     }
  32:C:/Users/stapi/OneDrive/Desktop/GD32VW553/V1_MQTT_OK/GD32VW55X_Wifi_BLE_SDK/GD32VW55x_RELEASE_V1.0.2/MSDK/cloud/alicloud/src/sdk-impl\impl_logpost.c **** 
  33:C:/Users/stapi/OneDrive/Desktop/GD32VW553/V1_MQTT_OK/GD32VW55X_Wifi_BLE_SDK/GD32VW55x_RELEASE_V1.0.2/MSDK/cloud/alicloud/src/sdk-impl\impl_logpost.c ****     logbuf = IMPL_LOGPOST_MALLOC(LOG_PUBLISH_MSG_MAXLEN + 1);
  34:C:/Users/stapi/OneDrive/Desktop/GD32VW553/V1_MQTT_OK/GD32VW55X_Wifi_BLE_SDK/GD32VW55x_RELEASE_V1.0.2/MSDK/cloud/alicloud/src/sdk-impl\impl_logpost.c ****     if (logbuf == NULL) {
  35:C:/Users/stapi/OneDrive/Desktop/GD32VW553/V1_MQTT_OK/GD32VW55X_Wifi_BLE_SDK/GD32VW55x_RELEASE_V1.0.2/MSDK/cloud/alicloud/src/sdk-impl\impl_logpost.c ****         return FAIL_RETURN;
  36:C:/Users/stapi/OneDrive/Desktop/GD32VW553/V1_MQTT_OK/GD32VW55X_Wifi_BLE_SDK/GD32VW55x_RELEASE_V1.0.2/MSDK/cloud/alicloud/src/sdk-impl\impl_logpost.c ****     }
  37:C:/Users/stapi/OneDrive/Desktop/GD32VW553/V1_MQTT_OK/GD32VW55X_Wifi_BLE_SDK/GD32VW55x_RELEASE_V1.0.2/MSDK/cloud/alicloud/src/sdk-impl\impl_logpost.c ****     memset(logbuf, 0, LOG_PUBLISH_MSG_MAXLEN + 1);
  38:C:/Users/stapi/OneDrive/Desktop/GD32VW553/V1_MQTT_OK/GD32VW55X_Wifi_BLE_SDK/GD32VW55x_RELEASE_V1.0.2/MSDK/cloud/alicloud/src/sdk-impl\impl_logpost.c **** 
  39:C:/Users/stapi/OneDrive/Desktop/GD32VW553/V1_MQTT_OK/GD32VW55X_Wifi_BLE_SDK/GD32VW55x_RELEASE_V1.0.2/MSDK/cloud/alicloud/src/sdk-impl\impl_logpost.c ****     /* generate log post json data */
  40:C:/Users/stapi/OneDrive/Desktop/GD32VW553/V1_MQTT_OK/GD32VW55X_Wifi_BLE_SDK/GD32VW55x_RELEASE_V1.0.2/MSDK/cloud/alicloud/src/sdk-impl\impl_logpost.c ****     ret = HAL_Snprintf(logbuf, LOG_PUBLISH_MSG_MAXLEN, THING_LOG_POST_PARAMS, msgid, (uint32_t)HAL_
  41:C:/Users/stapi/OneDrive/Desktop/GD32VW553/V1_MQTT_OK/GD32VW55X_Wifi_BLE_SDK/GD32VW55x_RELEASE_V1.0.2/MSDK/cloud/alicloud/src/sdk-impl\impl_logpost.c ****     if (ret < 0) {
  42:C:/Users/stapi/OneDrive/Desktop/GD32VW553/V1_MQTT_OK/GD32VW55X_Wifi_BLE_SDK/GD32VW55x_RELEASE_V1.0.2/MSDK/cloud/alicloud/src/sdk-impl\impl_logpost.c ****         IMPL_LOGPOST_FREE(logbuf);
  43:C:/Users/stapi/OneDrive/Desktop/GD32VW553/V1_MQTT_OK/GD32VW55X_Wifi_BLE_SDK/GD32VW55x_RELEASE_V1.0.2/MSDK/cloud/alicloud/src/sdk-impl\impl_logpost.c ****         return FAIL_RETURN;
  44:C:/Users/stapi/OneDrive/Desktop/GD32VW553/V1_MQTT_OK/GD32VW55X_Wifi_BLE_SDK/GD32VW55x_RELEASE_V1.0.2/MSDK/cloud/alicloud/src/sdk-impl\impl_logpost.c ****     }
  45:C:/Users/stapi/OneDrive/Desktop/GD32VW553/V1_MQTT_OK/GD32VW55X_Wifi_BLE_SDK/GD32VW55x_RELEASE_V1.0.2/MSDK/cloud/alicloud/src/sdk-impl\impl_logpost.c **** 
  46:C:/Users/stapi/OneDrive/Desktop/GD32VW553/V1_MQTT_OK/GD32VW55X_Wifi_BLE_SDK/GD32VW55x_RELEASE_V1.0.2/MSDK/cloud/alicloud/src/sdk-impl\impl_logpost.c ****     length = strlen(logbuf);
  47:C:/Users/stapi/OneDrive/Desktop/GD32VW553/V1_MQTT_OK/GD32VW55X_Wifi_BLE_SDK/GD32VW55x_RELEASE_V1.0.2/MSDK/cloud/alicloud/src/sdk-impl\impl_logpost.c ****     if (length >= (LOG_PUBLISH_MSG_MAXLEN - sizeof(THING_LOG_POST_PARAMS_TAIL))) {
  48:C:/Users/stapi/OneDrive/Desktop/GD32VW553/V1_MQTT_OK/GD32VW55X_Wifi_BLE_SDK/GD32VW55x_RELEASE_V1.0.2/MSDK/cloud/alicloud/src/sdk-impl\impl_logpost.c ****         strcpy(logbuf + LOG_PUBLISH_MSG_MAXLEN - sizeof(THING_LOG_POST_PARAMS_TAIL) - 3, THING_LOG_
  49:C:/Users/stapi/OneDrive/Desktop/GD32VW553/V1_MQTT_OK/GD32VW55X_Wifi_BLE_SDK/GD32VW55x_RELEASE_V1.0.2/MSDK/cloud/alicloud/src/sdk-impl\impl_logpost.c ****     } else {
  50:C:/Users/stapi/OneDrive/Desktop/GD32VW553/V1_MQTT_OK/GD32VW55X_Wifi_BLE_SDK/GD32VW55x_RELEASE_V1.0.2/MSDK/cloud/alicloud/src/sdk-impl\impl_logpost.c ****         if (strlen(logbuf) + strlen(THING_LOG_POST_PARAMS_TAIL) + 3 > LOG_PUBLISH_MSG_MAXLEN) {
  51:C:/Users/stapi/OneDrive/Desktop/GD32VW553/V1_MQTT_OK/GD32VW55X_Wifi_BLE_SDK/GD32VW55x_RELEASE_V1.0.2/MSDK/cloud/alicloud/src/sdk-impl\impl_logpost.c ****             IMPL_LOGPOST_FREE(logbuf);
  52:C:/Users/stapi/OneDrive/Desktop/GD32VW553/V1_MQTT_OK/GD32VW55X_Wifi_BLE_SDK/GD32VW55x_RELEASE_V1.0.2/MSDK/cloud/alicloud/src/sdk-impl\impl_logpost.c ****             return FAIL_RETURN;
  68              		.loc 1 52 13 is_stmt 1
  69              		.loc 1 52 20 is_stmt 0
  70 000c FD54     		li	s1,-1
  71              	.L1:
  53:C:/Users/stapi/OneDrive/Desktop/GD32VW553/V1_MQTT_OK/GD32VW55X_Wifi_BLE_SDK/GD32VW55x_RELEASE_V1.0.2/MSDK/cloud/alicloud/src/sdk-impl\impl_logpost.c ****         }else{
  54:C:/Users/stapi/OneDrive/Desktop/GD32VW553/V1_MQTT_OK/GD32VW55X_Wifi_BLE_SDK/GD32VW55x_RELEASE_V1.0.2/MSDK/cloud/alicloud/src/sdk-impl\impl_logpost.c ****             strcat(logbuf, THING_LOG_POST_PARAMS_TAIL + 3);
  55:C:/Users/stapi/OneDrive/Desktop/GD32VW553/V1_MQTT_OK/GD32VW55X_Wifi_BLE_SDK/GD32VW55x_RELEASE_V1.0.2/MSDK/cloud/alicloud/src/sdk-impl\impl_logpost.c ****         }
  56:C:/Users/stapi/OneDrive/Desktop/GD32VW553/V1_MQTT_OK/GD32VW55X_Wifi_BLE_SDK/GD32VW55x_RELEASE_V1.0.2/MSDK/cloud/alicloud/src/sdk-impl\impl_logpost.c ****     }
  57:C:/Users/stapi/OneDrive/Desktop/GD32VW553/V1_MQTT_OK/GD32VW55X_Wifi_BLE_SDK/GD32VW55x_RELEASE_V1.0.2/MSDK/cloud/alicloud/src/sdk-impl\impl_logpost.c **** 
  58:C:/Users/stapi/OneDrive/Desktop/GD32VW553/V1_MQTT_OK/GD32VW55X_Wifi_BLE_SDK/GD32VW55x_RELEASE_V1.0.2/MSDK/cloud/alicloud/src/sdk-impl\impl_logpost.c ****     ret = iotx_mc_log_post(pHandle, logbuf);
  59:C:/Users/stapi/OneDrive/Desktop/GD32VW553/V1_MQTT_OK/GD32VW55X_Wifi_BLE_SDK/GD32VW55x_RELEASE_V1.0.2/MSDK/cloud/alicloud/src/sdk-impl\impl_logpost.c ****     if (ret < 0) {
  60:C:/Users/stapi/OneDrive/Desktop/GD32VW553/V1_MQTT_OK/GD32VW55X_Wifi_BLE_SDK/GD32VW55x_RELEASE_V1.0.2/MSDK/cloud/alicloud/src/sdk-impl\impl_logpost.c ****         log_info((char *)module, "log post to cloud fail, ret = %d\n", ret);
  61:C:/Users/stapi/OneDrive/Desktop/GD32VW553/V1_MQTT_OK/GD32VW55X_Wifi_BLE_SDK/GD32VW55x_RELEASE_V1.0.2/MSDK/cloud/alicloud/src/sdk-impl\impl_logpost.c ****     }
  62:C:/Users/stapi/OneDrive/Desktop/GD32VW553/V1_MQTT_OK/GD32VW55X_Wifi_BLE_SDK/GD32VW55x_RELEASE_V1.0.2/MSDK/cloud/alicloud/src/sdk-impl\impl_logpost.c **** 
  63:C:/Users/stapi/OneDrive/Desktop/GD32VW553/V1_MQTT_OK/GD32VW55X_Wifi_BLE_SDK/GD32VW55x_RELEASE_V1.0.2/MSDK/cloud/alicloud/src/sdk-impl\impl_logpost.c ****     IMPL_LOGPOST_FREE(logbuf);
  64:C:/Users/stapi/OneDrive/Desktop/GD32VW553/V1_MQTT_OK/GD32VW55X_Wifi_BLE_SDK/GD32VW55x_RELEASE_V1.0.2/MSDK/cloud/alicloud/src/sdk-impl\impl_logpost.c ****     return ret;
  65:C:/Users/stapi/OneDrive/Desktop/GD32VW553/V1_MQTT_OK/GD32VW55X_Wifi_BLE_SDK/GD32VW55x_RELEASE_V1.0.2/MSDK/cloud/alicloud/src/sdk-impl\impl_logpost.c **** }
  72              		.loc 1 65 1
  73 000e 2685     		mv	a0,s1
  74 0010 2D61     		addi	sp,sp,224
  75              		.cfi_remember_state
  76              		.cfi_def_cfa_offset 0
  77 0012 17030000 		tail	__riscv_restore_5
  77      67000300 
  78              		.cfi_restore 20
  79              		.cfi_restore 19
  80              		.cfi_restore 18
  81              		.cfi_restore 9
  82              		.cfi_restore 8
  83              		.cfi_restore 1
  84              		.cfi_def_cfa_offset -32
  85              	.LVL3:
  86              	.L2:
  87              		.cfi_restore_state
  88 001a B289     		mv	s3,a2
  29:C:/Users/stapi/OneDrive/Desktop/GD32VW553/V1_MQTT_OK/GD32VW55X_Wifi_BLE_SDK/GD32VW55x_RELEASE_V1.0.2/MSDK/cloud/alicloud/src/sdk-impl\impl_logpost.c ****         return FAIL_RETURN;
  89              		.loc 1 29 18 discriminator 1
  90 001c 65DA     		beq	a2,zero,.L28
  91 001e 2E89     		mv	s2,a1
  29:C:/Users/stapi/OneDrive/Desktop/GD32VW553/V1_MQTT_OK/GD32VW55X_Wifi_BLE_SDK/GD32VW55x_RELEASE_V1.0.2/MSDK/cloud/alicloud/src/sdk-impl\impl_logpost.c ****         return FAIL_RETURN;
  92              		.loc 1 29 29 discriminator 2
  93 0020 F5D5     		beq	a1,zero,.L28
  94 0022 368A     		mv	s4,a3
  29:C:/Users/stapi/OneDrive/Desktop/GD32VW553/V1_MQTT_OK/GD32VW55X_Wifi_BLE_SDK/GD32VW55x_RELEASE_V1.0.2/MSDK/cloud/alicloud/src/sdk-impl\impl_logpost.c ****         return FAIL_RETURN;
  95              		.loc 1 29 39 discriminator 3
  96 0024 E5D6     		beq	a3,zero,.L28
  97 0026 AA84     		mv	s1,a0
  33:C:/Users/stapi/OneDrive/Desktop/GD32VW553/V1_MQTT_OK/GD32VW55X_Wifi_BLE_SDK/GD32VW55x_RELEASE_V1.0.2/MSDK/cloud/alicloud/src/sdk-impl\impl_logpost.c ****     if (logbuf == NULL) {
  98              		.loc 1 33 5 is_stmt 1
  33:C:/Users/stapi/OneDrive/Desktop/GD32VW553/V1_MQTT_OK/GD32VW55X_Wifi_BLE_SDK/GD32VW55x_RELEASE_V1.0.2/MSDK/cloud/alicloud/src/sdk-impl\impl_logpost.c ****     if (logbuf == NULL) {
  99              		.loc 1 33 14 is_stmt 0
 100 0028 13060010 		li	a2,256
 101              	.LVL4:
 102 002c 8145     		li	a1,0
 103              	.LVL5:
 104 002e 0145     		li	a0,0
 105              	.LVL6:
 106 0030 97000000 		call	LITE_malloc_internal
 106      E7800000 
 107              	.LVL7:
 108 0038 2A84     		mv	s0,a0
 109              	.LVL8:
  34:C:/Users/stapi/OneDrive/Desktop/GD32VW553/V1_MQTT_OK/GD32VW55X_Wifi_BLE_SDK/GD32VW55x_RELEASE_V1.0.2/MSDK/cloud/alicloud/src/sdk-impl\impl_logpost.c ****         return FAIL_RETURN;
 110              		.loc 1 34 5 is_stmt 1
  34:C:/Users/stapi/OneDrive/Desktop/GD32VW553/V1_MQTT_OK/GD32VW55X_Wifi_BLE_SDK/GD32VW55x_RELEASE_V1.0.2/MSDK/cloud/alicloud/src/sdk-impl\impl_logpost.c ****         return FAIL_RETURN;
 111              		.loc 1 34 8 is_stmt 0
 112 003a 69D9     		beq	a0,zero,.L28
  37:C:/Users/stapi/OneDrive/Desktop/GD32VW553/V1_MQTT_OK/GD32VW55X_Wifi_BLE_SDK/GD32VW55x_RELEASE_V1.0.2/MSDK/cloud/alicloud/src/sdk-impl\impl_logpost.c **** 
 113              		.loc 1 37 5 is_stmt 1
 114 003c 13060010 		li	a2,256
 115 0040 8145     		li	a1,0
 116 0042 97000000 		call	memset
 116      E7800000 
 117              	.LVL9:
  40:C:/Users/stapi/OneDrive/Desktop/GD32VW553/V1_MQTT_OK/GD32VW55X_Wifi_BLE_SDK/GD32VW55x_RELEASE_V1.0.2/MSDK/cloud/alicloud/src/sdk-impl\impl_logpost.c ****     if (ret < 0) {
 118              		.loc 1 40 5
  40:C:/Users/stapi/OneDrive/Desktop/GD32VW553/V1_MQTT_OK/GD32VW55X_Wifi_BLE_SDK/GD32VW55x_RELEASE_V1.0.2/MSDK/cloud/alicloud/src/sdk-impl\impl_logpost.c ****     if (ret < 0) {
 119              		.loc 1 40 96 is_stmt 0
 120 004a 97000000 		call	HAL_UTC_Get
 120      E7800000 
 121              	.LVL10:
  40:C:/Users/stapi/OneDrive/Desktop/GD32VW553/V1_MQTT_OK/GD32VW55X_Wifi_BLE_SDK/GD32VW55x_RELEASE_V1.0.2/MSDK/cloud/alicloud/src/sdk-impl\impl_logpost.c ****     if (ret < 0) {
 122              		.loc 1 40 11
 123 0052 37060000 		lui	a2,%hi(.LANCHOR0)
  40:C:/Users/stapi/OneDrive/Desktop/GD32VW553/V1_MQTT_OK/GD32VW55X_Wifi_BLE_SDK/GD32VW55x_RELEASE_V1.0.2/MSDK/cloud/alicloud/src/sdk-impl\impl_logpost.c ****     if (ret < 0) {
 124              		.loc 1 40 96
 125 0056 2A87     		mv	a4,a0
  40:C:/Users/stapi/OneDrive/Desktop/GD32VW553/V1_MQTT_OK/GD32VW55X_Wifi_BLE_SDK/GD32VW55x_RELEASE_V1.0.2/MSDK/cloud/alicloud/src/sdk-impl\impl_logpost.c ****     if (ret < 0) {
 126              		.loc 1 40 11
 127 0058 D288     		mv	a7,s4
 128 005a 4E88     		mv	a6,s3
 129 005c CA87     		mv	a5,s2
 130 005e 9306B007 		li	a3,123
 131 0062 13060600 		addi	a2,a2,%lo(.LANCHOR0)
 132 0066 9305F00F 		li	a1,255
 133 006a 2285     		mv	a0,s0
 134 006c 97000000 		call	HAL_Snprintf
 134      E7800000 
 135              	.LVL11:
  41:C:/Users/stapi/OneDrive/Desktop/GD32VW553/V1_MQTT_OK/GD32VW55X_Wifi_BLE_SDK/GD32VW55x_RELEASE_V1.0.2/MSDK/cloud/alicloud/src/sdk-impl\impl_logpost.c ****         IMPL_LOGPOST_FREE(logbuf);
 136              		.loc 1 41 5 is_stmt 1
  41:C:/Users/stapi/OneDrive/Desktop/GD32VW553/V1_MQTT_OK/GD32VW55X_Wifi_BLE_SDK/GD32VW55x_RELEASE_V1.0.2/MSDK/cloud/alicloud/src/sdk-impl\impl_logpost.c ****         IMPL_LOGPOST_FREE(logbuf);
 137              		.loc 1 41 8 is_stmt 0
 138 0074 63580500 		bge	a0,zero,.L5
 139              	.LVL12:
 140              	.L27:
  51:C:/Users/stapi/OneDrive/Desktop/GD32VW553/V1_MQTT_OK/GD32VW55X_Wifi_BLE_SDK/GD32VW55x_RELEASE_V1.0.2/MSDK/cloud/alicloud/src/sdk-impl\impl_logpost.c ****             return FAIL_RETURN;
 141              		.loc 1 51 13 is_stmt 1
 142 0078 2285     		mv	a0,s0
 143 007a 97000000 		call	LITE_free_internal
 143      E7800000 
 144              	.LVL13:
 145 0082 69B7     		j	.L28
 146              	.LVL14:
 147              	.L5:
  46:C:/Users/stapi/OneDrive/Desktop/GD32VW553/V1_MQTT_OK/GD32VW55X_Wifi_BLE_SDK/GD32VW55x_RELEASE_V1.0.2/MSDK/cloud/alicloud/src/sdk-impl\impl_logpost.c ****     if (length >= (LOG_PUBLISH_MSG_MAXLEN - sizeof(THING_LOG_POST_PARAMS_TAIL))) {
 148              		.loc 1 46 5
  46:C:/Users/stapi/OneDrive/Desktop/GD32VW553/V1_MQTT_OK/GD32VW55X_Wifi_BLE_SDK/GD32VW55x_RELEASE_V1.0.2/MSDK/cloud/alicloud/src/sdk-impl\impl_logpost.c ****     if (length >= (LOG_PUBLISH_MSG_MAXLEN - sizeof(THING_LOG_POST_PARAMS_TAIL))) {
 149              		.loc 1 46 14 is_stmt 0
 150 0084 2285     		mv	a0,s0
 151              	.LVL15:
 152 0086 97000000 		call	strlen
 152      E7800000 
 153              	.LVL16:
  47:C:/Users/stapi/OneDrive/Desktop/GD32VW553/V1_MQTT_OK/GD32VW55X_Wifi_BLE_SDK/GD32VW55x_RELEASE_V1.0.2/MSDK/cloud/alicloud/src/sdk-impl\impl_logpost.c ****         strcpy(logbuf + LOG_PUBLISH_MSG_MAXLEN - sizeof(THING_LOG_POST_PARAMS_TAIL) - 3, THING_LOG_
 154              		.loc 1 47 5 is_stmt 1
  47:C:/Users/stapi/OneDrive/Desktop/GD32VW553/V1_MQTT_OK/GD32VW55X_Wifi_BLE_SDK/GD32VW55x_RELEASE_V1.0.2/MSDK/cloud/alicloud/src/sdk-impl\impl_logpost.c ****         strcpy(logbuf + LOG_PUBLISH_MSG_MAXLEN - sizeof(THING_LOG_POST_PARAMS_TAIL) - 3, THING_LOG_
 155              		.loc 1 47 8 is_stmt 0
 156 008e 9307C00D 		li	a5,220
 157 0092 63F5A70E 		bleu	a0,a5,.L6
  48:C:/Users/stapi/OneDrive/Desktop/GD32VW553/V1_MQTT_OK/GD32VW55X_Wifi_BLE_SDK/GD32VW55x_RELEASE_V1.0.2/MSDK/cloud/alicloud/src/sdk-impl\impl_logpost.c ****     } else {
 158              		.loc 1 48 9 is_stmt 1
 159 0096 B7050000 		lui	a1,%hi(.LANCHOR1)
 160 009a 93850500 		addi	a1,a1,%lo(.LANCHOR1)
 161 009e 1305A40D 		addi	a0,s0,218
 162              	.LVL17:
 163 00a2 97000000 		call	strcpy
 163      E7800000 
 164              	.LVL18:
 165              	.L7:
  58:C:/Users/stapi/OneDrive/Desktop/GD32VW553/V1_MQTT_OK/GD32VW55X_Wifi_BLE_SDK/GD32VW55x_RELEASE_V1.0.2/MSDK/cloud/alicloud/src/sdk-impl\impl_logpost.c ****     if (ret < 0) {
 166              		.loc 1 58 5
 167              	.LBB4:
 168              	.LBB5:
  66:C:/Users/stapi/OneDrive/Desktop/GD32VW553/V1_MQTT_OK/GD32VW55X_Wifi_BLE_SDK/GD32VW55x_RELEASE_V1.0.2/MSDK/cloud/alicloud/src/sdk-impl\impl_logpost.c **** 
  67:C:/Users/stapi/OneDrive/Desktop/GD32VW553/V1_MQTT_OK/GD32VW55X_Wifi_BLE_SDK/GD32VW55x_RELEASE_V1.0.2/MSDK/cloud/alicloud/src/sdk-impl\impl_logpost.c **** static int iotx_mc_log_post(void *pclient, char *payload)
  68:C:/Users/stapi/OneDrive/Desktop/GD32VW553/V1_MQTT_OK/GD32VW55X_Wifi_BLE_SDK/GD32VW55x_RELEASE_V1.0.2/MSDK/cloud/alicloud/src/sdk-impl\impl_logpost.c **** {
  69:C:/Users/stapi/OneDrive/Desktop/GD32VW553/V1_MQTT_OK/GD32VW55X_Wifi_BLE_SDK/GD32VW55x_RELEASE_V1.0.2/MSDK/cloud/alicloud/src/sdk-impl\impl_logpost.c ****     int ret;
 169              		.loc 1 69 5
  70:C:/Users/stapi/OneDrive/Desktop/GD32VW553/V1_MQTT_OK/GD32VW55X_Wifi_BLE_SDK/GD32VW55x_RELEASE_V1.0.2/MSDK/cloud/alicloud/src/sdk-impl\impl_logpost.c ****     char topic_name[IOTX_URI_MAX_LEN + 1] = {0};
 170              		.loc 1 70 5
 171              		.loc 1 70 10 is_stmt 0
 172 00aa 13064008 		li	a2,132
 173 00ae 8145     		li	a1,0
 174 00b0 E808     		addi	a0,sp,92
 175 00b2 82CC     		sw	zero,88(sp)
 176 00b4 97000000 		call	memset
 176      E7800000 
 177              	.LVL19:
  71:C:/Users/stapi/OneDrive/Desktop/GD32VW553/V1_MQTT_OK/GD32VW55X_Wifi_BLE_SDK/GD32VW55x_RELEASE_V1.0.2/MSDK/cloud/alicloud/src/sdk-impl\impl_logpost.c **** 
  72:C:/Users/stapi/OneDrive/Desktop/GD32VW553/V1_MQTT_OK/GD32VW55X_Wifi_BLE_SDK/GD32VW55x_RELEASE_V1.0.2/MSDK/cloud/alicloud/src/sdk-impl\impl_logpost.c ****     char product_key[PRODUCT_KEY_LEN + 1] = {0};
 178              		.loc 1 72 5 is_stmt 1
  73:C:/Users/stapi/OneDrive/Desktop/GD32VW553/V1_MQTT_OK/GD32VW55X_Wifi_BLE_SDK/GD32VW55x_RELEASE_V1.0.2/MSDK/cloud/alicloud/src/sdk-impl\impl_logpost.c ****     char device_name[DEVICE_NAME_LEN + 1] = {0};
 179              		.loc 1 73 10 is_stmt 0
 180 00bc 7546     		li	a2,29
 181 00be 8145     		li	a1,0
 182 00c0 2818     		addi	a0,sp,56
  72:C:/Users/stapi/OneDrive/Desktop/GD32VW553/V1_MQTT_OK/GD32VW55X_Wifi_BLE_SDK/GD32VW55x_RELEASE_V1.0.2/MSDK/cloud/alicloud/src/sdk-impl\impl_logpost.c ****     char device_name[DEVICE_NAME_LEN + 1] = {0};
 183              		.loc 1 72 10
 184 00c2 02CE     		sw	zero,28(sp)
 185 00c4 02D0     		sw	zero,32(sp)
 186 00c6 02D2     		sw	zero,36(sp)
 187 00c8 02D4     		sw	zero,40(sp)
 188 00ca 02D6     		sw	zero,44(sp)
 189 00cc 23080102 		sb	zero,48(sp)
 190              		.loc 1 73 5 is_stmt 1
 191              		.loc 1 73 10 is_stmt 0
 192 00d0 02DA     		sw	zero,52(sp)
 193 00d2 97000000 		call	memset
 193      E7800000 
 194              	.LVL20:
  74:C:/Users/stapi/OneDrive/Desktop/GD32VW553/V1_MQTT_OK/GD32VW55X_Wifi_BLE_SDK/GD32VW55x_RELEASE_V1.0.2/MSDK/cloud/alicloud/src/sdk-impl\impl_logpost.c ****     HAL_GetProductKey(product_key);
 195              		.loc 1 74 5 is_stmt 1
 196 00da 6808     		addi	a0,sp,28
 197 00dc 97000000 		call	HAL_GetProductKey
 197      E7800000 
 198              	.LVL21:
  75:C:/Users/stapi/OneDrive/Desktop/GD32VW553/V1_MQTT_OK/GD32VW55X_Wifi_BLE_SDK/GD32VW55x_RELEASE_V1.0.2/MSDK/cloud/alicloud/src/sdk-impl\impl_logpost.c ****     HAL_GetDeviceName(device_name);
 199              		.loc 1 75 5
 200 00e4 4818     		addi	a0,sp,52
 201 00e6 97000000 		call	HAL_GetDeviceName
 201      E7800000 
 202              	.LVL22:
  76:C:/Users/stapi/OneDrive/Desktop/GD32VW553/V1_MQTT_OK/GD32VW55X_Wifi_BLE_SDK/GD32VW55x_RELEASE_V1.0.2/MSDK/cloud/alicloud/src/sdk-impl\impl_logpost.c **** 
  77:C:/Users/stapi/OneDrive/Desktop/GD32VW553/V1_MQTT_OK/GD32VW55X_Wifi_BLE_SDK/GD32VW55x_RELEASE_V1.0.2/MSDK/cloud/alicloud/src/sdk-impl\impl_logpost.c ****     iotx_mqtt_topic_info_t topic_info;
 203              		.loc 1 77 5
  78:C:/Users/stapi/OneDrive/Desktop/GD32VW553/V1_MQTT_OK/GD32VW55X_Wifi_BLE_SDK/GD32VW55x_RELEASE_V1.0.2/MSDK/cloud/alicloud/src/sdk-impl\impl_logpost.c **** 
  79:C:/Users/stapi/OneDrive/Desktop/GD32VW553/V1_MQTT_OK/GD32VW55X_Wifi_BLE_SDK/GD32VW55x_RELEASE_V1.0.2/MSDK/cloud/alicloud/src/sdk-impl\impl_logpost.c **** 
  80:C:/Users/stapi/OneDrive/Desktop/GD32VW553/V1_MQTT_OK/GD32VW55X_Wifi_BLE_SDK/GD32VW55x_RELEASE_V1.0.2/MSDK/cloud/alicloud/src/sdk-impl\impl_logpost.c ****     if (!payload || !pclient) {
 204              		.loc 1 80 5
  81:C:/Users/stapi/OneDrive/Desktop/GD32VW553/V1_MQTT_OK/GD32VW55X_Wifi_BLE_SDK/GD32VW55x_RELEASE_V1.0.2/MSDK/cloud/alicloud/src/sdk-impl\impl_logpost.c ****         return FAIL_RETURN;
  82:C:/Users/stapi/OneDrive/Desktop/GD32VW553/V1_MQTT_OK/GD32VW55X_Wifi_BLE_SDK/GD32VW55x_RELEASE_V1.0.2/MSDK/cloud/alicloud/src/sdk-impl\impl_logpost.c ****     }
  83:C:/Users/stapi/OneDrive/Desktop/GD32VW553/V1_MQTT_OK/GD32VW55X_Wifi_BLE_SDK/GD32VW55x_RELEASE_V1.0.2/MSDK/cloud/alicloud/src/sdk-impl\impl_logpost.c **** 
  84:C:/Users/stapi/OneDrive/Desktop/GD32VW553/V1_MQTT_OK/GD32VW55X_Wifi_BLE_SDK/GD32VW55x_RELEASE_V1.0.2/MSDK/cloud/alicloud/src/sdk-impl\impl_logpost.c ****     /* log post topic name */
  85:C:/Users/stapi/OneDrive/Desktop/GD32VW553/V1_MQTT_OK/GD32VW55X_Wifi_BLE_SDK/GD32VW55x_RELEASE_V1.0.2/MSDK/cloud/alicloud/src/sdk-impl\impl_logpost.c ****     ret = HAL_Snprintf(topic_name,
 205              		.loc 1 85 5
 206              		.loc 1 85 11 is_stmt 0
 207 00ee 37060000 		lui	a2,%hi(.LC0)
 208 00f2 5818     		addi	a4,sp,52
 209 00f4 7408     		addi	a3,sp,28
 210 00f6 13060600 		addi	a2,a2,%lo(.LC0)
 211 00fa 93057008 		li	a1,135
 212 00fe A808     		addi	a0,sp,88
 213 0100 97000000 		call	HAL_Snprintf
 213      E7800000 
 214              	.LVL23:
  86:C:/Users/stapi/OneDrive/Desktop/GD32VW553/V1_MQTT_OK/GD32VW55X_Wifi_BLE_SDK/GD32VW55x_RELEASE_V1.0.2/MSDK/cloud/alicloud/src/sdk-impl\impl_logpost.c ****                        IOTX_URI_MAX_LEN,
  87:C:/Users/stapi/OneDrive/Desktop/GD32VW553/V1_MQTT_OK/GD32VW55X_Wifi_BLE_SDK/GD32VW55x_RELEASE_V1.0.2/MSDK/cloud/alicloud/src/sdk-impl\impl_logpost.c ****                        "/sys/%s/%s/thing/log/post",
  88:C:/Users/stapi/OneDrive/Desktop/GD32VW553/V1_MQTT_OK/GD32VW55X_Wifi_BLE_SDK/GD32VW55x_RELEASE_V1.0.2/MSDK/cloud/alicloud/src/sdk-impl\impl_logpost.c ****                        product_key,
  89:C:/Users/stapi/OneDrive/Desktop/GD32VW553/V1_MQTT_OK/GD32VW55X_Wifi_BLE_SDK/GD32VW55x_RELEASE_V1.0.2/MSDK/cloud/alicloud/src/sdk-impl\impl_logpost.c ****                        device_name);
  90:C:/Users/stapi/OneDrive/Desktop/GD32VW553/V1_MQTT_OK/GD32VW55X_Wifi_BLE_SDK/GD32VW55x_RELEASE_V1.0.2/MSDK/cloud/alicloud/src/sdk-impl\impl_logpost.c ****     if (ret <= 0) {
 215              		.loc 1 90 5 is_stmt 1
 216              		.loc 1 90 8 is_stmt 0
 217 0108 6346A008 		bgt	a0,zero,.L9
  91:C:/Users/stapi/OneDrive/Desktop/GD32VW553/V1_MQTT_OK/GD32VW55X_Wifi_BLE_SDK/GD32VW55x_RELEASE_V1.0.2/MSDK/cloud/alicloud/src/sdk-impl\impl_logpost.c ****         log_err("logpost", "log topic generate err");
 218              		.loc 1 91 9 is_stmt 1
 219              		.loc 1 91 9
 220 010c 37050000 		lui	a0,%hi(.LC1)
 221              	.LVL24:
 222 0110 13050500 		addi	a0,a0,%lo(.LC1)
 223 0114 97000000 		call	HAL_Printf
 223      E7800000 
 224              	.LVL25:
 225              		.loc 1 91 9
 226 011c 37050000 		lui	a0,%hi(.LC2)
 227 0120 13050500 		addi	a0,a0,%lo(.LC2)
 228              	.LVL26:
 229              	.L26:
  92:C:/Users/stapi/OneDrive/Desktop/GD32VW553/V1_MQTT_OK/GD32VW55X_Wifi_BLE_SDK/GD32VW55x_RELEASE_V1.0.2/MSDK/cloud/alicloud/src/sdk-impl\impl_logpost.c ****         return FAIL_RETURN;
  93:C:/Users/stapi/OneDrive/Desktop/GD32VW553/V1_MQTT_OK/GD32VW55X_Wifi_BLE_SDK/GD32VW55x_RELEASE_V1.0.2/MSDK/cloud/alicloud/src/sdk-impl\impl_logpost.c ****     }
  94:C:/Users/stapi/OneDrive/Desktop/GD32VW553/V1_MQTT_OK/GD32VW55X_Wifi_BLE_SDK/GD32VW55x_RELEASE_V1.0.2/MSDK/cloud/alicloud/src/sdk-impl\impl_logpost.c **** 
  95:C:/Users/stapi/OneDrive/Desktop/GD32VW553/V1_MQTT_OK/GD32VW55X_Wifi_BLE_SDK/GD32VW55x_RELEASE_V1.0.2/MSDK/cloud/alicloud/src/sdk-impl\impl_logpost.c ****     /* print log post json data */
  96:C:/Users/stapi/OneDrive/Desktop/GD32VW553/V1_MQTT_OK/GD32VW55X_Wifi_BLE_SDK/GD32VW55x_RELEASE_V1.0.2/MSDK/cloud/alicloud/src/sdk-impl\impl_logpost.c ****     log_debug("logpost", "log post data: %s", payload);
  97:C:/Users/stapi/OneDrive/Desktop/GD32VW553/V1_MQTT_OK/GD32VW55X_Wifi_BLE_SDK/GD32VW55x_RELEASE_V1.0.2/MSDK/cloud/alicloud/src/sdk-impl\impl_logpost.c **** 
  98:C:/Users/stapi/OneDrive/Desktop/GD32VW553/V1_MQTT_OK/GD32VW55X_Wifi_BLE_SDK/GD32VW55x_RELEASE_V1.0.2/MSDK/cloud/alicloud/src/sdk-impl\impl_logpost.c ****     topic_info.qos = IOTX_MQTT_QOS0;
  99:C:/Users/stapi/OneDrive/Desktop/GD32VW553/V1_MQTT_OK/GD32VW55X_Wifi_BLE_SDK/GD32VW55x_RELEASE_V1.0.2/MSDK/cloud/alicloud/src/sdk-impl\impl_logpost.c ****     topic_info.payload = (void *)payload;
 100:C:/Users/stapi/OneDrive/Desktop/GD32VW553/V1_MQTT_OK/GD32VW55X_Wifi_BLE_SDK/GD32VW55x_RELEASE_V1.0.2/MSDK/cloud/alicloud/src/sdk-impl\impl_logpost.c ****     topic_info.payload_len = strlen(payload);
 101:C:/Users/stapi/OneDrive/Desktop/GD32VW553/V1_MQTT_OK/GD32VW55X_Wifi_BLE_SDK/GD32VW55x_RELEASE_V1.0.2/MSDK/cloud/alicloud/src/sdk-impl\impl_logpost.c ****     topic_info.retain = 0;
 102:C:/Users/stapi/OneDrive/Desktop/GD32VW553/V1_MQTT_OK/GD32VW55X_Wifi_BLE_SDK/GD32VW55x_RELEASE_V1.0.2/MSDK/cloud/alicloud/src/sdk-impl\impl_logpost.c ****     topic_info.dup = 0;
 103:C:/Users/stapi/OneDrive/Desktop/GD32VW553/V1_MQTT_OK/GD32VW55X_Wifi_BLE_SDK/GD32VW55x_RELEASE_V1.0.2/MSDK/cloud/alicloud/src/sdk-impl\impl_logpost.c **** 
 104:C:/Users/stapi/OneDrive/Desktop/GD32VW553/V1_MQTT_OK/GD32VW55X_Wifi_BLE_SDK/GD32VW55x_RELEASE_V1.0.2/MSDK/cloud/alicloud/src/sdk-impl\impl_logpost.c ****     /* publish message */
 105:C:/Users/stapi/OneDrive/Desktop/GD32VW553/V1_MQTT_OK/GD32VW55X_Wifi_BLE_SDK/GD32VW55x_RELEASE_V1.0.2/MSDK/cloud/alicloud/src/sdk-impl\impl_logpost.c ****     ret = iotx_mc_publish((iotx_mc_client_t *)pclient, topic_name, &topic_info);
 106:C:/Users/stapi/OneDrive/Desktop/GD32VW553/V1_MQTT_OK/GD32VW55X_Wifi_BLE_SDK/GD32VW55x_RELEASE_V1.0.2/MSDK/cloud/alicloud/src/sdk-impl\impl_logpost.c ****     if (ret < 0) {
 107:C:/Users/stapi/OneDrive/Desktop/GD32VW553/V1_MQTT_OK/GD32VW55X_Wifi_BLE_SDK/GD32VW55x_RELEASE_V1.0.2/MSDK/cloud/alicloud/src/sdk-impl\impl_logpost.c ****         log_err("logpost", "publish failed");
 230              		.loc 1 107 9 is_stmt 0
 231 0124 97000000 		call	HAL_Printf
 231      E7800000 
 232              	.LVL27:
 233              		.loc 1 107 9 is_stmt 1
 234 012c 37050000 		lui	a0,%hi(.LC3)
 235 0130 13050500 		addi	a0,a0,%lo(.LC3)
 236 0134 97000000 		call	HAL_Printf
 236      E7800000 
 237              	.LVL28:
 238              		.loc 1 107 9
 108:C:/Users/stapi/OneDrive/Desktop/GD32VW553/V1_MQTT_OK/GD32VW55X_Wifi_BLE_SDK/GD32VW55x_RELEASE_V1.0.2/MSDK/cloud/alicloud/src/sdk-impl\impl_logpost.c ****         return FAIL_RETURN;
 239              		.loc 1 108 9
 240              	.LBE5:
 241              	.LBE4:
  59:C:/Users/stapi/OneDrive/Desktop/GD32VW553/V1_MQTT_OK/GD32VW55X_Wifi_BLE_SDK/GD32VW55x_RELEASE_V1.0.2/MSDK/cloud/alicloud/src/sdk-impl\impl_logpost.c ****         log_info((char *)module, "log post to cloud fail, ret = %d\n", ret);
 242              		.loc 1 59 5
  60:C:/Users/stapi/OneDrive/Desktop/GD32VW553/V1_MQTT_OK/GD32VW55X_Wifi_BLE_SDK/GD32VW55x_RELEASE_V1.0.2/MSDK/cloud/alicloud/src/sdk-impl\impl_logpost.c ****     }
 243              		.loc 1 60 9
  60:C:/Users/stapi/OneDrive/Desktop/GD32VW553/V1_MQTT_OK/GD32VW55X_Wifi_BLE_SDK/GD32VW55x_RELEASE_V1.0.2/MSDK/cloud/alicloud/src/sdk-impl\impl_logpost.c ****     }
 244              		.loc 1 60 9
 245 013c 37050000 		lui	a0,%hi(.LC7)
 246 0140 13050500 		addi	a0,a0,%lo(.LC7)
 247 0144 97000000 		call	HAL_Printf
 247      E7800000 
 248              	.LVL29:
  60:C:/Users/stapi/OneDrive/Desktop/GD32VW553/V1_MQTT_OK/GD32VW55X_Wifi_BLE_SDK/GD32VW55x_RELEASE_V1.0.2/MSDK/cloud/alicloud/src/sdk-impl\impl_logpost.c ****     }
 249              		.loc 1 60 9
 250 014c 37050000 		lui	a0,%hi(.LC8)
 251 0150 FD55     		li	a1,-1
 252 0152 13050500 		addi	a0,a0,%lo(.LC8)
 253 0156 97000000 		call	HAL_Printf
 253      E7800000 
 254              	.LVL30:
  60:C:/Users/stapi/OneDrive/Desktop/GD32VW553/V1_MQTT_OK/GD32VW55X_Wifi_BLE_SDK/GD32VW55x_RELEASE_V1.0.2/MSDK/cloud/alicloud/src/sdk-impl\impl_logpost.c ****     }
 255              		.loc 1 60 9
 256 015e 37050000 		lui	a0,%hi(.LC3)
 257 0162 13050500 		addi	a0,a0,%lo(.LC3)
 258 0166 97000000 		call	HAL_Printf
 258      E7800000 
 259              	.LVL31:
 260 016e FD54     		li	s1,-1
 261              	.LVL32:
 262              	.L12:
  60:C:/Users/stapi/OneDrive/Desktop/GD32VW553/V1_MQTT_OK/GD32VW55X_Wifi_BLE_SDK/GD32VW55x_RELEASE_V1.0.2/MSDK/cloud/alicloud/src/sdk-impl\impl_logpost.c ****     }
 263              		.loc 1 60 9 discriminator 1
  63:C:/Users/stapi/OneDrive/Desktop/GD32VW553/V1_MQTT_OK/GD32VW55X_Wifi_BLE_SDK/GD32VW55x_RELEASE_V1.0.2/MSDK/cloud/alicloud/src/sdk-impl\impl_logpost.c ****     return ret;
 264              		.loc 1 63 5 discriminator 1
 265 0170 2285     		mv	a0,s0
 266 0172 97000000 		call	LITE_free_internal
 266      E7800000 
 267              	.LVL33:
  64:C:/Users/stapi/OneDrive/Desktop/GD32VW553/V1_MQTT_OK/GD32VW55X_Wifi_BLE_SDK/GD32VW55x_RELEASE_V1.0.2/MSDK/cloud/alicloud/src/sdk-impl\impl_logpost.c **** }
 268              		.loc 1 64 5 discriminator 1
  64:C:/Users/stapi/OneDrive/Desktop/GD32VW553/V1_MQTT_OK/GD32VW55X_Wifi_BLE_SDK/GD32VW55x_RELEASE_V1.0.2/MSDK/cloud/alicloud/src/sdk-impl\impl_logpost.c **** }
 269              		.loc 1 64 12 is_stmt 0 discriminator 1
 270 017a 51BD     		j	.L1
 271              	.LVL34:
 272              	.L6:
  50:C:/Users/stapi/OneDrive/Desktop/GD32VW553/V1_MQTT_OK/GD32VW55X_Wifi_BLE_SDK/GD32VW55x_RELEASE_V1.0.2/MSDK/cloud/alicloud/src/sdk-impl\impl_logpost.c ****             IMPL_LOGPOST_FREE(logbuf);
 273              		.loc 1 50 9 is_stmt 1
  50:C:/Users/stapi/OneDrive/Desktop/GD32VW553/V1_MQTT_OK/GD32VW55X_Wifi_BLE_SDK/GD32VW55x_RELEASE_V1.0.2/MSDK/cloud/alicloud/src/sdk-impl\impl_logpost.c ****             IMPL_LOGPOST_FREE(logbuf);
 274              		.loc 1 50 12 is_stmt 0
 275 017c E30EF5EE 		beq	a0,a5,.L27
  54:C:/Users/stapi/OneDrive/Desktop/GD32VW553/V1_MQTT_OK/GD32VW55X_Wifi_BLE_SDK/GD32VW55x_RELEASE_V1.0.2/MSDK/cloud/alicloud/src/sdk-impl\impl_logpost.c ****         }
 276              		.loc 1 54 13 is_stmt 1
 277 0180 B7050000 		lui	a1,%hi(.LANCHOR1+3)
 278 0184 93853500 		addi	a1,a1,%lo(.LANCHOR1+3)
 279 0188 2285     		mv	a0,s0
 280              	.LVL35:
 281 018a 97000000 		call	strcat
 281      E7800000 
 282              	.LVL36:
 283 0192 21BF     		j	.L7
 284              	.LVL37:
 285              	.L9:
 286              	.LBB7:
 287              	.LBB6:
  96:C:/Users/stapi/OneDrive/Desktop/GD32VW553/V1_MQTT_OK/GD32VW55X_Wifi_BLE_SDK/GD32VW55x_RELEASE_V1.0.2/MSDK/cloud/alicloud/src/sdk-impl\impl_logpost.c **** 
 288              		.loc 1 96 5
 289 0194 37070000 		lui	a4,%hi(.LC4)
 290 0198 B7050000 		lui	a1,%hi(.LANCHOR2)
 291 019c 37050000 		lui	a0,%hi(.LC5)
 292              	.LVL38:
 293 01a0 A287     		mv	a5,s0
 294 01a2 13070700 		addi	a4,a4,%lo(.LC4)
 295 01a6 9546     		li	a3,5
 296 01a8 13060006 		li	a2,96
 297 01ac 93850500 		addi	a1,a1,%lo(.LANCHOR2)
 298 01b0 13050500 		addi	a0,a0,%lo(.LC5)
 299 01b4 97000000 		call	LITE_syslog
 299      E7800000 
 300              	.LVL39:
  98:C:/Users/stapi/OneDrive/Desktop/GD32VW553/V1_MQTT_OK/GD32VW55X_Wifi_BLE_SDK/GD32VW55x_RELEASE_V1.0.2/MSDK/cloud/alicloud/src/sdk-impl\impl_logpost.c ****     topic_info.payload = (void *)payload;
 301              		.loc 1 98 5
 100:C:/Users/stapi/OneDrive/Desktop/GD32VW553/V1_MQTT_OK/GD32VW55X_Wifi_BLE_SDK/GD32VW55x_RELEASE_V1.0.2/MSDK/cloud/alicloud/src/sdk-impl\impl_logpost.c ****     topic_info.retain = 0;
 302              		.loc 1 100 30 is_stmt 0
 303 01bc 2285     		mv	a0,s0
  98:C:/Users/stapi/OneDrive/Desktop/GD32VW553/V1_MQTT_OK/GD32VW55X_Wifi_BLE_SDK/GD32VW55x_RELEASE_V1.0.2/MSDK/cloud/alicloud/src/sdk-impl\impl_logpost.c ****     topic_info.payload = (void *)payload;
 304              		.loc 1 98 20
 305 01be 23050100 		sb	zero,10(sp)
  99:C:/Users/stapi/OneDrive/Desktop/GD32VW553/V1_MQTT_OK/GD32VW55X_Wifi_BLE_SDK/GD32VW55x_RELEASE_V1.0.2/MSDK/cloud/alicloud/src/sdk-impl\impl_logpost.c ****     topic_info.payload_len = strlen(payload);
 306              		.loc 1 99 5 is_stmt 1
  99:C:/Users/stapi/OneDrive/Desktop/GD32VW553/V1_MQTT_OK/GD32VW55X_Wifi_BLE_SDK/GD32VW55x_RELEASE_V1.0.2/MSDK/cloud/alicloud/src/sdk-impl\impl_logpost.c ****     topic_info.payload_len = strlen(payload);
 307              		.loc 1 99 24 is_stmt 0
 308 01c2 22CC     		sw	s0,24(sp)
 100:C:/Users/stapi/OneDrive/Desktop/GD32VW553/V1_MQTT_OK/GD32VW55X_Wifi_BLE_SDK/GD32VW55x_RELEASE_V1.0.2/MSDK/cloud/alicloud/src/sdk-impl\impl_logpost.c ****     topic_info.retain = 0;
 309              		.loc 1 100 5 is_stmt 1
 100:C:/Users/stapi/OneDrive/Desktop/GD32VW553/V1_MQTT_OK/GD32VW55X_Wifi_BLE_SDK/GD32VW55x_RELEASE_V1.0.2/MSDK/cloud/alicloud/src/sdk-impl\impl_logpost.c ****     topic_info.retain = 0;
 310              		.loc 1 100 30 is_stmt 0
 311 01c4 97000000 		call	strlen
 311      E7800000 
 312              	.LVL40:
 100:C:/Users/stapi/OneDrive/Desktop/GD32VW553/V1_MQTT_OK/GD32VW55X_Wifi_BLE_SDK/GD32VW55x_RELEASE_V1.0.2/MSDK/cloud/alicloud/src/sdk-impl\impl_logpost.c ****     topic_info.retain = 0;
 313              		.loc 1 100 28
 314 01cc 2AC8     		sw	a0,16(sp)
 101:C:/Users/stapi/OneDrive/Desktop/GD32VW553/V1_MQTT_OK/GD32VW55X_Wifi_BLE_SDK/GD32VW55x_RELEASE_V1.0.2/MSDK/cloud/alicloud/src/sdk-impl\impl_logpost.c ****     topic_info.dup = 0;
 315              		.loc 1 101 5 is_stmt 1
 105:C:/Users/stapi/OneDrive/Desktop/GD32VW553/V1_MQTT_OK/GD32VW55X_Wifi_BLE_SDK/GD32VW55x_RELEASE_V1.0.2/MSDK/cloud/alicloud/src/sdk-impl\impl_logpost.c ****     if (ret < 0) {
 316              		.loc 1 105 11 is_stmt 0
 317 01ce 3000     		addi	a2,sp,8
 318 01d0 2685     		mv	a0,s1
 319 01d2 AC08     		addi	a1,sp,88
 101:C:/Users/stapi/OneDrive/Desktop/GD32VW553/V1_MQTT_OK/GD32VW55X_Wifi_BLE_SDK/GD32VW55x_RELEASE_V1.0.2/MSDK/cloud/alicloud/src/sdk-impl\impl_logpost.c ****     topic_info.dup = 0;
 320              		.loc 1 101 23
 321 01d4 23060100 		sb	zero,12(sp)
 102:C:/Users/stapi/OneDrive/Desktop/GD32VW553/V1_MQTT_OK/GD32VW55X_Wifi_BLE_SDK/GD32VW55x_RELEASE_V1.0.2/MSDK/cloud/alicloud/src/sdk-impl\impl_logpost.c **** 
 322              		.loc 1 102 5 is_stmt 1
 102:C:/Users/stapi/OneDrive/Desktop/GD32VW553/V1_MQTT_OK/GD32VW55X_Wifi_BLE_SDK/GD32VW55x_RELEASE_V1.0.2/MSDK/cloud/alicloud/src/sdk-impl\impl_logpost.c **** 
 323              		.loc 1 102 20 is_stmt 0
 324 01d8 A3050100 		sb	zero,11(sp)
 105:C:/Users/stapi/OneDrive/Desktop/GD32VW553/V1_MQTT_OK/GD32VW55X_Wifi_BLE_SDK/GD32VW55x_RELEASE_V1.0.2/MSDK/cloud/alicloud/src/sdk-impl\impl_logpost.c ****     if (ret < 0) {
 325              		.loc 1 105 5 is_stmt 1
 105:C:/Users/stapi/OneDrive/Desktop/GD32VW553/V1_MQTT_OK/GD32VW55X_Wifi_BLE_SDK/GD32VW55x_RELEASE_V1.0.2/MSDK/cloud/alicloud/src/sdk-impl\impl_logpost.c ****     if (ret < 0) {
 326              		.loc 1 105 11 is_stmt 0
 327 01dc 97000000 		call	iotx_mc_publish
 327      E7800000 
 328              	.LVL41:
 106:C:/Users/stapi/OneDrive/Desktop/GD32VW553/V1_MQTT_OK/GD32VW55X_Wifi_BLE_SDK/GD32VW55x_RELEASE_V1.0.2/MSDK/cloud/alicloud/src/sdk-impl\impl_logpost.c ****         log_err("logpost", "publish failed");
 329              		.loc 1 106 5 is_stmt 1
 109:C:/Users/stapi/OneDrive/Desktop/GD32VW553/V1_MQTT_OK/GD32VW55X_Wifi_BLE_SDK/GD32VW55x_RELEASE_V1.0.2/MSDK/cloud/alicloud/src/sdk-impl\impl_logpost.c ****     }
 110:C:/Users/stapi/OneDrive/Desktop/GD32VW553/V1_MQTT_OK/GD32VW55X_Wifi_BLE_SDK/GD32VW55x_RELEASE_V1.0.2/MSDK/cloud/alicloud/src/sdk-impl\impl_logpost.c **** 
 111:C:/Users/stapi/OneDrive/Desktop/GD32VW553/V1_MQTT_OK/GD32VW55X_Wifi_BLE_SDK/GD32VW55x_RELEASE_V1.0.2/MSDK/cloud/alicloud/src/sdk-impl\impl_logpost.c ****     return SUCCESS_RETURN;
 330              		.loc 1 111 12 is_stmt 0
 331 01e4 8144     		li	s1,0
 332              	.LVL42:
 106:C:/Users/stapi/OneDrive/Desktop/GD32VW553/V1_MQTT_OK/GD32VW55X_Wifi_BLE_SDK/GD32VW55x_RELEASE_V1.0.2/MSDK/cloud/alicloud/src/sdk-impl\impl_logpost.c ****         log_err("logpost", "publish failed");
 333              		.loc 1 106 8
 334 01e6 E35505F8 		bge	a0,zero,.L12
 107:C:/Users/stapi/OneDrive/Desktop/GD32VW553/V1_MQTT_OK/GD32VW55X_Wifi_BLE_SDK/GD32VW55x_RELEASE_V1.0.2/MSDK/cloud/alicloud/src/sdk-impl\impl_logpost.c ****         return FAIL_RETURN;
 335              		.loc 1 107 9 is_stmt 1
 107:C:/Users/stapi/OneDrive/Desktop/GD32VW553/V1_MQTT_OK/GD32VW55X_Wifi_BLE_SDK/GD32VW55x_RELEASE_V1.0.2/MSDK/cloud/alicloud/src/sdk-impl\impl_logpost.c ****         return FAIL_RETURN;
 336              		.loc 1 107 9
 337 01ea 37050000 		lui	a0,%hi(.LC1)
 338              	.LVL43:
 339 01ee 13050500 		addi	a0,a0,%lo(.LC1)
 340 01f2 97000000 		call	HAL_Printf
 340      E7800000 
 341              	.LVL44:
 107:C:/Users/stapi/OneDrive/Desktop/GD32VW553/V1_MQTT_OK/GD32VW55X_Wifi_BLE_SDK/GD32VW55x_RELEASE_V1.0.2/MSDK/cloud/alicloud/src/sdk-impl\impl_logpost.c ****         return FAIL_RETURN;
 342              		.loc 1 107 9
 343 01fa 37050000 		lui	a0,%hi(.LC6)
 344 01fe 13050500 		addi	a0,a0,%lo(.LC6)
 345 0202 0DB7     		j	.L26
 346              	.LBE6:
 347              	.LBE7:
 348              		.cfi_endproc
 349              	.LFE20:
 351              		.section	.rodata.THING_LOG_POST_PARAMS,"a"
 352              		.align	2
 353              		.set	.LANCHOR0,. + 0
 356              	THING_LOG_POST_PARAMS:
 357 0000 7B226964 		.string	"{\"id\":\"%d\",\"version\":\"1.0\",\"params\":[{\"timestamp\":%d,\"logLevel\":\"%s\",\"mo
 357      223A2225 
 357      64222C22 
 357      76657273 
 357      696F6E22 
 358              		.section	.rodata.THING_LOG_POST_PARAMS_TAIL,"a"
 359              		.align	2
 360              		.set	.LANCHOR1,. + 0
 363              	THING_LOG_POST_PARAMS_TAIL:
 364 0000 2E2E2E22 		.string	"...\"}],\"method\":\"thing.log.post\"}"
 364      7D5D2C22 
 364      6D657468 
 364      6F64223A 
 364      22746869 
 365              		.section	.rodata.__FUNCTION__.0,"a"
 366              		.align	2
 367              		.set	.LANCHOR2,. + 0
 370              	__FUNCTION__.0:
 371 0000 696F7478 		.string	"iotx_mc_log_post"
 371      5F6D635F 
 371      6C6F675F 
 371      706F7374 
 371      00
 372              		.text
 373              	.Letext0:
 374              		.file 2 "c:\\users\\stapi\\onedrive\\desktop\\gd32vw553\\embeddedbuilder_v1.4.7.26843\\tools\\nucl
 375              		.file 3 "c:\\users\\stapi\\onedrive\\desktop\\gd32vw553\\embeddedbuilder_v1.4.7.26843\\tools\\nucl
 376              		.file 4 "..\\..\\..\\..\\cloud\\alicloud\\include/exports/iot_export_mqtt.h"
 377              		.file 5 "..\\..\\..\\..\\cloud\\alicloud\\src\\infra\\utils\\misc/utils_net.h"
 378              		.file 6 "..\\..\\..\\..\\cloud\\alicloud\\src\\infra\\utils\\misc/utils_timer.h"
 379              		.file 7 "..\\..\\..\\..\\cloud\\alicloud\\src\\infra\\utils\\misc/lite-list.h"
 380              		.file 8 "..\\..\\..\\..\\cloud\\alicloud\\src\\protocol\\mqtt/MQTTPacket/MQTTPacket.h"
 381              		.file 9 "..\\..\\..\\..\\cloud\\alicloud\\src\\protocol\\mqtt/MQTTPacket/MQTTConnect.h"
 382              		.file 10 "..\\..\\..\\..\\cloud\\alicloud\\src\\protocol\\mqtt/iotx_mqtt.h"
 383              		.file 11 "..\\..\\..\\..\\cloud\\alicloud\\include/imports/iot_import_product.h"
 384              		.file 12 "..\\..\\..\\..\\cloud\\alicloud\\include/iot_import.h"
 385              		.file 13 "..\\..\\..\\..\\cloud\\alicloud\\src\\infra\\log/iotx_log.h"
 386              		.file 14 "c:\\users\\stapi\\onedrive\\desktop\\gd32vw553\\embeddedbuilder_v1.4.7.26843\\tools\\nuc
 387              		.file 15 "..\\..\\..\\..\\cloud\\alicloud\\src\\infra\\utils/iotx_utils.h"
 388              		.file 16 "..\\..\\..\\..\\cloud\\alicloud\\include/exports/iot_export_errno.h"
 389              		.file 17 "<built-in>"
DEFINED SYMBOLS
                            *ABS*:0000000000000000 impl_logpost.c
C:\Users\stapi\AppData\Local\Temp\ccdGw49l.s:41     .text.IOT_MQTT_LogPost:0000000000000000 IOT_MQTT_LogPost
C:\Users\stapi\AppData\Local\Temp\ccdGw49l.s:45     .text.IOT_MQTT_LogPost:0000000000000000 .L0 
C:\Users\stapi\AppData\Local\Temp\ccdGw49l.s:47     .text.IOT_MQTT_LogPost:0000000000000000 .L0 
C:\Users\stapi\AppData\Local\Temp\ccdGw49l.s:48     .text.IOT_MQTT_LogPost:0000000000000008 .L0 
C:\Users\stapi\AppData\Local\Temp\ccdGw49l.s:49     .text.IOT_MQTT_LogPost:0000000000000008 .L0 
C:\Users\stapi\AppData\Local\Temp\ccdGw49l.s:50     .text.IOT_MQTT_LogPost:0000000000000008 .L0 
C:\Users\stapi\AppData\Local\Temp\ccdGw49l.s:51     .text.IOT_MQTT_LogPost:0000000000000008 .L0 
C:\Users\stapi\AppData\Local\Temp\ccdGw49l.s:52     .text.IOT_MQTT_LogPost:0000000000000008 .L0 
C:\Users\stapi\AppData\Local\Temp\ccdGw49l.s:53     .text.IOT_MQTT_LogPost:0000000000000008 .L0 
C:\Users\stapi\AppData\Local\Temp\ccdGw49l.s:54     .text.IOT_MQTT_LogPost:0000000000000008 .L0 
C:\Users\stapi\AppData\Local\Temp\ccdGw49l.s:57     .text.IOT_MQTT_LogPost:0000000000000008 .L0 
C:\Users\stapi\AppData\Local\Temp\ccdGw49l.s:58     .text.IOT_MQTT_LogPost:0000000000000008 .L0 
C:\Users\stapi\AppData\Local\Temp\ccdGw49l.s:59     .text.IOT_MQTT_LogPost:0000000000000008 .L0 
C:\Users\stapi\AppData\Local\Temp\ccdGw49l.s:60     .text.IOT_MQTT_LogPost:0000000000000008 .L0 
C:\Users\stapi\AppData\Local\Temp\ccdGw49l.s:61     .text.IOT_MQTT_LogPost:0000000000000008 .L0 
C:\Users\stapi\AppData\Local\Temp\ccdGw49l.s:62     .text.IOT_MQTT_LogPost:0000000000000008 .L0 
C:\Users\stapi\AppData\Local\Temp\ccdGw49l.s:63     .text.IOT_MQTT_LogPost:000000000000000a .L0 
C:\Users\stapi\AppData\Local\Temp\ccdGw49l.s:65     .text.IOT_MQTT_LogPost:000000000000000a .L0 
C:\Users\stapi\AppData\Local\Temp\ccdGw49l.s:69     .text.IOT_MQTT_LogPost:000000000000000c .L0 
C:\Users\stapi\AppData\Local\Temp\ccdGw49l.s:70     .text.IOT_MQTT_LogPost:000000000000000c .L0 
C:\Users\stapi\AppData\Local\Temp\ccdGw49l.s:73     .text.IOT_MQTT_LogPost:000000000000000e .L0 
C:\Users\stapi\AppData\Local\Temp\ccdGw49l.s:75     .text.IOT_MQTT_LogPost:0000000000000012 .L0 
C:\Users\stapi\AppData\Local\Temp\ccdGw49l.s:76     .text.IOT_MQTT_LogPost:0000000000000012 .L0 
C:\Users\stapi\AppData\Local\Temp\ccdGw49l.s:78     .text.IOT_MQTT_LogPost:000000000000001a .L0 
C:\Users\stapi\AppData\Local\Temp\ccdGw49l.s:79     .text.IOT_MQTT_LogPost:000000000000001a .L0 
C:\Users\stapi\AppData\Local\Temp\ccdGw49l.s:80     .text.IOT_MQTT_LogPost:000000000000001a .L0 
C:\Users\stapi\AppData\Local\Temp\ccdGw49l.s:81     .text.IOT_MQTT_LogPost:000000000000001a .L0 
C:\Users\stapi\AppData\Local\Temp\ccdGw49l.s:82     .text.IOT_MQTT_LogPost:000000000000001a .L0 
C:\Users\stapi\AppData\Local\Temp\ccdGw49l.s:83     .text.IOT_MQTT_LogPost:000000000000001a .L0 
C:\Users\stapi\AppData\Local\Temp\ccdGw49l.s:84     .text.IOT_MQTT_LogPost:000000000000001a .L0 
C:\Users\stapi\AppData\Local\Temp\ccdGw49l.s:87     .text.IOT_MQTT_LogPost:000000000000001a .L0 
C:\Users\stapi\AppData\Local\Temp\ccdGw49l.s:90     .text.IOT_MQTT_LogPost:000000000000001c .L0 
C:\Users\stapi\AppData\Local\Temp\ccdGw49l.s:93     .text.IOT_MQTT_LogPost:0000000000000020 .L0 
C:\Users\stapi\AppData\Local\Temp\ccdGw49l.s:96     .text.IOT_MQTT_LogPost:0000000000000024 .L0 
C:\Users\stapi\AppData\Local\Temp\ccdGw49l.s:99     .text.IOT_MQTT_LogPost:0000000000000028 .L0 
C:\Users\stapi\AppData\Local\Temp\ccdGw49l.s:100    .text.IOT_MQTT_LogPost:0000000000000028 .L0 
C:\Users\stapi\AppData\Local\Temp\ccdGw49l.s:111    .text.IOT_MQTT_LogPost:000000000000003a .L0 
C:\Users\stapi\AppData\Local\Temp\ccdGw49l.s:112    .text.IOT_MQTT_LogPost:000000000000003a .L0 
C:\Users\stapi\AppData\Local\Temp\ccdGw49l.s:114    .text.IOT_MQTT_LogPost:000000000000003c .L0 
C:\Users\stapi\AppData\Local\Temp\ccdGw49l.s:119    .text.IOT_MQTT_LogPost:000000000000004a .L0 
C:\Users\stapi\AppData\Local\Temp\ccdGw49l.s:120    .text.IOT_MQTT_LogPost:000000000000004a .L0 
C:\Users\stapi\AppData\Local\Temp\ccdGw49l.s:123    .text.IOT_MQTT_LogPost:0000000000000052 .L0 
C:\Users\stapi\AppData\Local\Temp\ccdGw49l.s:125    .text.IOT_MQTT_LogPost:0000000000000056 .L0 
C:\Users\stapi\AppData\Local\Temp\ccdGw49l.s:127    .text.IOT_MQTT_LogPost:0000000000000058 .L0 
C:\Users\stapi\AppData\Local\Temp\ccdGw49l.s:137    .text.IOT_MQTT_LogPost:0000000000000074 .L0 
C:\Users\stapi\AppData\Local\Temp\ccdGw49l.s:138    .text.IOT_MQTT_LogPost:0000000000000074 .L0 
C:\Users\stapi\AppData\Local\Temp\ccdGw49l.s:142    .text.IOT_MQTT_LogPost:0000000000000078 .L0 
C:\Users\stapi\AppData\Local\Temp\ccdGw49l.s:149    .text.IOT_MQTT_LogPost:0000000000000084 .L0 
C:\Users\stapi\AppData\Local\Temp\ccdGw49l.s:150    .text.IOT_MQTT_LogPost:0000000000000084 .L0 
C:\Users\stapi\AppData\Local\Temp\ccdGw49l.s:155    .text.IOT_MQTT_LogPost:000000000000008e .L0 
C:\Users\stapi\AppData\Local\Temp\ccdGw49l.s:156    .text.IOT_MQTT_LogPost:000000000000008e .L0 
C:\Users\stapi\AppData\Local\Temp\ccdGw49l.s:159    .text.IOT_MQTT_LogPost:0000000000000096 .L0 
C:\Users\stapi\AppData\Local\Temp\ccdGw49l.s:169    .text.IOT_MQTT_LogPost:00000000000000aa .L0 
C:\Users\stapi\AppData\Local\Temp\ccdGw49l.s:170    .text.IOT_MQTT_LogPost:00000000000000aa .L0 
C:\Users\stapi\AppData\Local\Temp\ccdGw49l.s:171    .text.IOT_MQTT_LogPost:00000000000000aa .L0 
C:\Users\stapi\AppData\Local\Temp\ccdGw49l.s:172    .text.IOT_MQTT_LogPost:00000000000000aa .L0 
C:\Users\stapi\AppData\Local\Temp\ccdGw49l.s:179    .text.IOT_MQTT_LogPost:00000000000000bc .L0 
C:\Users\stapi\AppData\Local\Temp\ccdGw49l.s:180    .text.IOT_MQTT_LogPost:00000000000000bc .L0 
C:\Users\stapi\AppData\Local\Temp\ccdGw49l.s:184    .text.IOT_MQTT_LogPost:00000000000000c2 .L0 
C:\Users\stapi\AppData\Local\Temp\ccdGw49l.s:191    .text.IOT_MQTT_LogPost:00000000000000d0 .L0 
C:\Users\stapi\AppData\Local\Temp\ccdGw49l.s:192    .text.IOT_MQTT_LogPost:00000000000000d0 .L0 
C:\Users\stapi\AppData\Local\Temp\ccdGw49l.s:196    .text.IOT_MQTT_LogPost:00000000000000da .L0 
C:\Users\stapi\AppData\Local\Temp\ccdGw49l.s:200    .text.IOT_MQTT_LogPost:00000000000000e4 .L0 
C:\Users\stapi\AppData\Local\Temp\ccdGw49l.s:204    .text.IOT_MQTT_LogPost:00000000000000ee .L0 
C:\Users\stapi\AppData\Local\Temp\ccdGw49l.s:205    .text.IOT_MQTT_LogPost:00000000000000ee .L0 
C:\Users\stapi\AppData\Local\Temp\ccdGw49l.s:206    .text.IOT_MQTT_LogPost:00000000000000ee .L0 
C:\Users\stapi\AppData\Local\Temp\ccdGw49l.s:207    .text.IOT_MQTT_LogPost:00000000000000ee .L0 
C:\Users\stapi\AppData\Local\Temp\ccdGw49l.s:216    .text.IOT_MQTT_LogPost:0000000000000108 .L0 
C:\Users\stapi\AppData\Local\Temp\ccdGw49l.s:217    .text.IOT_MQTT_LogPost:0000000000000108 .L0 
C:\Users\stapi\AppData\Local\Temp\ccdGw49l.s:219    .text.IOT_MQTT_LogPost:000000000000010c .L0 
C:\Users\stapi\AppData\Local\Temp\ccdGw49l.s:220    .text.IOT_MQTT_LogPost:000000000000010c .L0 
C:\Users\stapi\AppData\Local\Temp\ccdGw49l.s:226    .text.IOT_MQTT_LogPost:000000000000011c .L0 
C:\Users\stapi\AppData\Local\Temp\ccdGw49l.s:231    .text.IOT_MQTT_LogPost:0000000000000124 .L0 
C:\Users\stapi\AppData\Local\Temp\ccdGw49l.s:234    .text.IOT_MQTT_LogPost:000000000000012c .L0 
C:\Users\stapi\AppData\Local\Temp\ccdGw49l.s:239    .text.IOT_MQTT_LogPost:000000000000013c .L0 
C:\Users\stapi\AppData\Local\Temp\ccdGw49l.s:242    .text.IOT_MQTT_LogPost:000000000000013c .L0 
C:\Users\stapi\AppData\Local\Temp\ccdGw49l.s:243    .text.IOT_MQTT_LogPost:000000000000013c .L0 
C:\Users\stapi\AppData\Local\Temp\ccdGw49l.s:244    .text.IOT_MQTT_LogPost:000000000000013c .L0 
C:\Users\stapi\AppData\Local\Temp\ccdGw49l.s:245    .text.IOT_MQTT_LogPost:000000000000013c .L0 
C:\Users\stapi\AppData\Local\Temp\ccdGw49l.s:250    .text.IOT_MQTT_LogPost:000000000000014c .L0 
C:\Users\stapi\AppData\Local\Temp\ccdGw49l.s:256    .text.IOT_MQTT_LogPost:000000000000015e .L0 
C:\Users\stapi\AppData\Local\Temp\ccdGw49l.s:264    .text.IOT_MQTT_LogPost:0000000000000170 .L0 
C:\Users\stapi\AppData\Local\Temp\ccdGw49l.s:265    .text.IOT_MQTT_LogPost:0000000000000170 .L0 
C:\Users\stapi\AppData\Local\Temp\ccdGw49l.s:269    .text.IOT_MQTT_LogPost:000000000000017a .L0 
C:\Users\stapi\AppData\Local\Temp\ccdGw49l.s:270    .text.IOT_MQTT_LogPost:000000000000017a .L0 
C:\Users\stapi\AppData\Local\Temp\ccdGw49l.s:274    .text.IOT_MQTT_LogPost:000000000000017c .L0 
C:\Users\stapi\AppData\Local\Temp\ccdGw49l.s:275    .text.IOT_MQTT_LogPost:000000000000017c .L0 
C:\Users\stapi\AppData\Local\Temp\ccdGw49l.s:277    .text.IOT_MQTT_LogPost:0000000000000180 .L0 
C:\Users\stapi\AppData\Local\Temp\ccdGw49l.s:289    .text.IOT_MQTT_LogPost:0000000000000194 .L0 
C:\Users\stapi\AppData\Local\Temp\ccdGw49l.s:302    .text.IOT_MQTT_LogPost:00000000000001bc .L0 
C:\Users\stapi\AppData\Local\Temp\ccdGw49l.s:303    .text.IOT_MQTT_LogPost:00000000000001bc .L0 
C:\Users\stapi\AppData\Local\Temp\ccdGw49l.s:305    .text.IOT_MQTT_LogPost:00000000000001be .L0 
C:\Users\stapi\AppData\Local\Temp\ccdGw49l.s:307    .text.IOT_MQTT_LogPost:00000000000001c2 .L0 
C:\Users\stapi\AppData\Local\Temp\ccdGw49l.s:308    .text.IOT_MQTT_LogPost:00000000000001c2 .L0 
C:\Users\stapi\AppData\Local\Temp\ccdGw49l.s:310    .text.IOT_MQTT_LogPost:00000000000001c4 .L0 
C:\Users\stapi\AppData\Local\Temp\ccdGw49l.s:311    .text.IOT_MQTT_LogPost:00000000000001c4 .L0 
C:\Users\stapi\AppData\Local\Temp\ccdGw49l.s:314    .text.IOT_MQTT_LogPost:00000000000001cc .L0 
C:\Users\stapi\AppData\Local\Temp\ccdGw49l.s:316    .text.IOT_MQTT_LogPost:00000000000001ce .L0 
C:\Users\stapi\AppData\Local\Temp\ccdGw49l.s:317    .text.IOT_MQTT_LogPost:00000000000001ce .L0 
C:\Users\stapi\AppData\Local\Temp\ccdGw49l.s:321    .text.IOT_MQTT_LogPost:00000000000001d4 .L0 
C:\Users\stapi\AppData\Local\Temp\ccdGw49l.s:323    .text.IOT_MQTT_LogPost:00000000000001d8 .L0 
C:\Users\stapi\AppData\Local\Temp\ccdGw49l.s:324    .text.IOT_MQTT_LogPost:00000000000001d8 .L0 
C:\Users\stapi\AppData\Local\Temp\ccdGw49l.s:326    .text.IOT_MQTT_LogPost:00000000000001dc .L0 
C:\Users\stapi\AppData\Local\Temp\ccdGw49l.s:327    .text.IOT_MQTT_LogPost:00000000000001dc .L0 
C:\Users\stapi\AppData\Local\Temp\ccdGw49l.s:330    .text.IOT_MQTT_LogPost:00000000000001e4 .L0 
C:\Users\stapi\AppData\Local\Temp\ccdGw49l.s:331    .text.IOT_MQTT_LogPost:00000000000001e4 .L0 
C:\Users\stapi\AppData\Local\Temp\ccdGw49l.s:334    .text.IOT_MQTT_LogPost:00000000000001e6 .L0 
C:\Users\stapi\AppData\Local\Temp\ccdGw49l.s:336    .text.IOT_MQTT_LogPost:00000000000001ea .L0 
C:\Users\stapi\AppData\Local\Temp\ccdGw49l.s:337    .text.IOT_MQTT_LogPost:00000000000001ea .L0 
C:\Users\stapi\AppData\Local\Temp\ccdGw49l.s:343    .text.IOT_MQTT_LogPost:00000000000001fa .L0 
C:\Users\stapi\AppData\Local\Temp\ccdGw49l.s:348    .text.IOT_MQTT_LogPost:0000000000000204 .L0 
C:\Users\stapi\AppData\Local\Temp\ccdGw49l.s:353    .rodata.THING_LOG_POST_PARAMS:0000000000000000 .LANCHOR0
C:\Users\stapi\AppData\Local\Temp\ccdGw49l.s:356    .rodata.THING_LOG_POST_PARAMS:0000000000000000 THING_LOG_POST_PARAMS
C:\Users\stapi\AppData\Local\Temp\ccdGw49l.s:360    .rodata.THING_LOG_POST_PARAMS_TAIL:0000000000000000 .LANCHOR1
C:\Users\stapi\AppData\Local\Temp\ccdGw49l.s:363    .rodata.THING_LOG_POST_PARAMS_TAIL:0000000000000000 THING_LOG_POST_PARAMS_TAIL
C:\Users\stapi\AppData\Local\Temp\ccdGw49l.s:367    .rodata.__FUNCTION__.0:0000000000000000 .LANCHOR2
C:\Users\stapi\AppData\Local\Temp\ccdGw49l.s:370    .rodata.__FUNCTION__.0:0000000000000000 __FUNCTION__.0
C:\Users\stapi\AppData\Local\Temp\ccdGw49l.s:351    .text.IOT_MQTT_LogPost:0000000000000204 .L0 
                     .debug_frame:0000000000000000 .L0 
C:\Users\stapi\AppData\Local\Temp\ccdGw49l.s:11     .rodata.IOT_MQTT_LogPost.str1.4:0000000000000000 .LC0
C:\Users\stapi\AppData\Local\Temp\ccdGw49l.s:14     .rodata.IOT_MQTT_LogPost.str1.4:000000000000001c .LC1
C:\Users\stapi\AppData\Local\Temp\ccdGw49l.s:17     .rodata.IOT_MQTT_LogPost.str1.4:0000000000000024 .LC2
C:\Users\stapi\AppData\Local\Temp\ccdGw49l.s:20     .rodata.IOT_MQTT_LogPost.str1.4:000000000000003c .LC3
C:\Users\stapi\AppData\Local\Temp\ccdGw49l.s:32     .rodata.IOT_MQTT_LogPost.str1.4:000000000000006c .LC7
C:\Users\stapi\AppData\Local\Temp\ccdGw49l.s:35     .rodata.IOT_MQTT_LogPost.str1.4:0000000000000074 .LC8
C:\Users\stapi\AppData\Local\Temp\ccdGw49l.s:23     .rodata.IOT_MQTT_LogPost.str1.4:0000000000000040 .LC4
C:\Users\stapi\AppData\Local\Temp\ccdGw49l.s:26     .rodata.IOT_MQTT_LogPost.str1.4:0000000000000054 .LC5
C:\Users\stapi\AppData\Local\Temp\ccdGw49l.s:29     .rodata.IOT_MQTT_LogPost.str1.4:000000000000005c .LC6
C:\Users\stapi\AppData\Local\Temp\ccdGw49l.s:86     .text.IOT_MQTT_LogPost:000000000000001a .L2
C:\Users\stapi\AppData\Local\Temp\ccdGw49l.s:67     .text.IOT_MQTT_LogPost:000000000000000c .L28
C:\Users\stapi\AppData\Local\Temp\ccdGw49l.s:147    .text.IOT_MQTT_LogPost:0000000000000084 .L5
C:\Users\stapi\AppData\Local\Temp\ccdGw49l.s:272    .text.IOT_MQTT_LogPost:000000000000017c .L6
C:\Users\stapi\AppData\Local\Temp\ccdGw49l.s:285    .text.IOT_MQTT_LogPost:0000000000000194 .L9
C:\Users\stapi\AppData\Local\Temp\ccdGw49l.s:71     .text.IOT_MQTT_LogPost:000000000000000e .L1
C:\Users\stapi\AppData\Local\Temp\ccdGw49l.s:140    .text.IOT_MQTT_LogPost:0000000000000078 .L27
C:\Users\stapi\AppData\Local\Temp\ccdGw49l.s:165    .text.IOT_MQTT_LogPost:00000000000000aa .L7
C:\Users\stapi\AppData\Local\Temp\ccdGw49l.s:262    .text.IOT_MQTT_LogPost:0000000000000170 .L12
C:\Users\stapi\AppData\Local\Temp\ccdGw49l.s:229    .text.IOT_MQTT_LogPost:0000000000000124 .L26
C:\Users\stapi\AppData\Local\Temp\ccdGw49l.s:2717   .debug_abbrev:0000000000000000 .Ldebug_abbrev0
C:\Users\stapi\AppData\Local\Temp\ccdGw49l.s:3605   .debug_str:0000000000000104 .LASF343
C:\Users\stapi\AppData\Local\Temp\ccdGw49l.s:4097   .debug_str:0000000000001702 .LASF344
C:\Users\stapi\AppData\Local\Temp\ccdGw49l.s:4001   .debug_str:0000000000001213 .LASF345
C:\Users\stapi\AppData\Local\Temp\ccdGw49l.s:3565   .debug_ranges:0000000000000000 .Ldebug_ranges0
C:\Users\stapi\AppData\Local\Temp\ccdGw49l.s:3577   .debug_line:0000000000000000 .Ldebug_line0
C:\Users\stapi\AppData\Local\Temp\ccdGw49l.s:3721   .debug_str:00000000000006e2 .LASF0
C:\Users\stapi\AppData\Local\Temp\ccdGw49l.s:3665   .debug_str:0000000000000496 .LASF3
C:\Users\stapi\AppData\Local\Temp\ccdGw49l.s:3737   .debug_str:0000000000000768 .LASF1
C:\Users\stapi\AppData\Local\Temp\ccdGw49l.s:4141   .debug_str:0000000000001982 .LASF2
C:\Users\stapi\AppData\Local\Temp\ccdGw49l.s:3791   .debug_str:00000000000009b0 .LASF4
C:\Users\stapi\AppData\Local\Temp\ccdGw49l.s:4235   .debug_str:0000000000001dd5 .LASF5
C:\Users\stapi\AppData\Local\Temp\ccdGw49l.s:3677   .debug_str:0000000000000514 .LASF6
C:\Users\stapi\AppData\Local\Temp\ccdGw49l.s:3925   .debug_str:0000000000000f53 .LASF7
C:\Users\stapi\AppData\Local\Temp\ccdGw49l.s:3881   .debug_str:0000000000000daf .LASF8
C:\Users\stapi\AppData\Local\Temp\ccdGw49l.s:3929   .debug_str:0000000000000f65 .LASF9
C:\Users\stapi\AppData\Local\Temp\ccdGw49l.s:3875   .debug_str:0000000000000d89 .LASF10
C:\Users\stapi\AppData\Local\Temp\ccdGw49l.s:4051   .debug_str:000000000000150c .LASF11
C:\Users\stapi\AppData\Local\Temp\ccdGw49l.s:4095   .debug_str:00000000000016f6 .LASF12
C:\Users\stapi\AppData\Local\Temp\ccdGw49l.s:3975   .debug_str:0000000000001106 .LASF13
C:\Users\stapi\AppData\Local\Temp\ccdGw49l.s:3769   .debug_str:0000000000000901 .LASF14
C:\Users\stapi\AppData\Local\Temp\ccdGw49l.s:3723   .debug_str:00000000000006ee .LASF15
C:\Users\stapi\AppData\Local\Temp\ccdGw49l.s:4061   .debug_str:0000000000001584 .LASF16
C:\Users\stapi\AppData\Local\Temp\ccdGw49l.s:4209   .debug_str:0000000000001ca7 .LASF17
C:\Users\stapi\AppData\Local\Temp\ccdGw49l.s:4149   .debug_str:00000000000019b2 .LASF18
C:\Users\stapi\AppData\Local\Temp\ccdGw49l.s:3897   .debug_str:0000000000000e47 .LASF19
C:\Users\stapi\AppData\Local\Temp\ccdGw49l.s:3589   .debug_str:000000000000005e .LASF346
C:\Users\stapi\AppData\Local\Temp\ccdGw49l.s:3725   .debug_str:00000000000006f6 .LASF20
C:\Users\stapi\AppData\Local\Temp\ccdGw49l.s:3951   .debug_str:000000000000102b .LASF21
C:\Users\stapi\AppData\Local\Temp\ccdGw49l.s:4009   .debug_str:0000000000001308 .LASF22
C:\Users\stapi\AppData\Local\Temp\ccdGw49l.s:3815   .debug_str:0000000000000adf .LASF23
C:\Users\stapi\AppData\Local\Temp\ccdGw49l.s:4205   .debug_str:0000000000001c7e .LASF24
C:\Users\stapi\AppData\Local\Temp\ccdGw49l.s:3919   .debug_str:0000000000000f07 .LASF25
C:\Users\stapi\AppData\Local\Temp\ccdGw49l.s:3579   .debug_str:0000000000000000 .LASF26
C:\Users\stapi\AppData\Local\Temp\ccdGw49l.s:4091   .debug_str:00000000000016e0 .LASF27
C:\Users\stapi\AppData\Local\Temp\ccdGw49l.s:4229   .debug_str:0000000000001dae .LASF28
C:\Users\stapi\AppData\Local\Temp\ccdGw49l.s:4111   .debug_str:0000000000001845 .LASF29
C:\Users\stapi\AppData\Local\Temp\ccdGw49l.s:4073   .debug_str:000000000000160e .LASF30
C:\Users\stapi\AppData\Local\Temp\ccdGw49l.s:3785   .debug_str:0000000000000984 .LASF31
C:\Users\stapi\AppData\Local\Temp\ccdGw49l.s:4015   .debug_str:0000000000001355 .LASF32
C:\Users\stapi\AppData\Local\Temp\ccdGw49l.s:4075   .debug_str:000000000000161d .LASF33
C:\Users\stapi\AppData\Local\Temp\ccdGw49l.s:3871   .debug_str:0000000000000d62 .LASF34
C:\Users\stapi\AppData\Local\Temp\ccdGw49l.s:4245   .debug_str:0000000000001e1f .LASF35
C:\Users\stapi\AppData\Local\Temp\ccdGw49l.s:3933   .debug_str:0000000000000f7b .LASF36
C:\Users\stapi\AppData\Local\Temp\ccdGw49l.s:4041   .debug_str:000000000000146e .LASF37
C:\Users\stapi\AppData\Local\Temp\ccdGw49l.s:3751   .debug_str:000000000000081a .LASF38
C:\Users\stapi\AppData\Local\Temp\ccdGw49l.s:4113   .debug_str:0000000000001854 .LASF39
C:\Users\stapi\AppData\Local\Temp\ccdGw49l.s:3593   .debug_str:0000000000000077 .LASF40
C:\Users\stapi\AppData\Local\Temp\ccdGw49l.s:3671   .debug_str:00000000000004d0 .LASF41
C:\Users\stapi\AppData\Local\Temp\ccdGw49l.s:4077   .debug_str:0000000000001635 .LASF42
C:\Users\stapi\AppData\Local\Temp\ccdGw49l.s:3745   .debug_str:00000000000007c1 .LASF43
C:\Users\stapi\AppData\Local\Temp\ccdGw49l.s:3867   .debug_str:0000000000000d3a .LASF44
C:\Users\stapi\AppData\Local\Temp\ccdGw49l.s:4055   .debug_str:0000000000001549 .LASF45
C:\Users\stapi\AppData\Local\Temp\ccdGw49l.s:3617   .debug_str:000000000000025d .LASF46
C:\Users\stapi\AppData\Local\Temp\ccdGw49l.s:4159   .debug_str:0000000000001a2c .LASF47
C:\Users\stapi\AppData\Local\Temp\ccdGw49l.s:3981   .debug_str:0000000000001148 .LASF48
C:\Users\stapi\AppData\Local\Temp\ccdGw49l.s:3779   .debug_str:000000000000092d .LASF49
C:\Users\stapi\AppData\Local\Temp\ccdGw49l.s:3685   .debug_str:000000000000055b .LASF50
C:\Users\stapi\AppData\Local\Temp\ccdGw49l.s:3651   .debug_str:00000000000003f9 .LASF51
C:\Users\stapi\AppData\Local\Temp\ccdGw49l.s:4039   .debug_str:0000000000001455 .LASF52
C:\Users\stapi\AppData\Local\Temp\ccdGw49l.s:4175   .debug_str:0000000000001afb .LASF53
C:\Users\stapi\AppData\Local\Temp\ccdGw49l.s:4027   .debug_str:00000000000013e1 .LASF54
C:\Users\stapi\AppData\Local\Temp\ccdGw49l.s:3583   .debug_str:0000000000000015 .LASF55
C:\Users\stapi\AppData\Local\Temp\ccdGw49l.s:3633   .debug_str:0000000000000303 .LASF56
C:\Users\stapi\AppData\Local\Temp\ccdGw49l.s:3649   .debug_str:00000000000003da .LASF57
C:\Users\stapi\AppData\Local\Temp\ccdGw49l.s:4047   .debug_str:00000000000014dd .LASF58
C:\Users\stapi\AppData\Local\Temp\ccdGw49l.s:3797   .debug_str:00000000000009e1 .LASF59
C:\Users\stapi\AppData\Local\Temp\ccdGw49l.s:3923   .debug_str:0000000000000f31 .LASF60
C:\Users\stapi\AppData\Local\Temp\ccdGw49l.s:3691   .debug_str:00000000000005ad .LASF61
C:\Users\stapi\AppData\Local\Temp\ccdGw49l.s:4227   .debug_str:0000000000001d92 .LASF62
C:\Users\stapi\AppData\Local\Temp\ccdGw49l.s:4249   .debug_str:0000000000001e57 .LASF63
C:\Users\stapi\AppData\Local\Temp\ccdGw49l.s:4139   .debug_str:000000000000196a .LASF64
C:\Users\stapi\AppData\Local\Temp\ccdGw49l.s:4213   .debug_str:0000000000001cc4 .LASF65
C:\Users\stapi\AppData\Local\Temp\ccdGw49l.s:3743   .debug_str:00000000000007a8 .LASF66
C:\Users\stapi\AppData\Local\Temp\ccdGw49l.s:3799   .debug_str:00000000000009ff .LASF67
C:\Users\stapi\AppData\Local\Temp\ccdGw49l.s:3995   .debug_str:00000000000011d1 .LASF68
C:\Users\stapi\AppData\Local\Temp\ccdGw49l.s:4109   .debug_str:000000000000182d .LASF69
C:\Users\stapi\AppData\Local\Temp\ccdGw49l.s:3811   .debug_str:0000000000000a99 .LASF70
C:\Users\stapi\AppData\Local\Temp\ccdGw49l.s:3727   .debug_str:000000000000070d .LASF71
C:\Users\stapi\AppData\Local\Temp\ccdGw49l.s:4081   .debug_str:000000000000166b .LASF72
C:\Users\stapi\AppData\Local\Temp\ccdGw49l.s:3763   .debug_str:00000000000008b6 .LASF73
C:\Users\stapi\AppData\Local\Temp\ccdGw49l.s:3645   .debug_str:00000000000003ad .LASF74
C:\Users\stapi\AppData\Local\Temp\ccdGw49l.s:4153   .debug_str:00000000000019da .LASF75
C:\Users\stapi\AppData\Local\Temp\ccdGw49l.s:3861   .debug_str:0000000000000ce5 .LASF76
C:\Users\stapi\AppData\Local\Temp\ccdGw49l.s:3855   .debug_str:0000000000000c8e .LASF77
C:\Users\stapi\AppData\Local\Temp\ccdGw49l.s:3749   .debug_str:00000000000007fa .LASF78
C:\Users\stapi\AppData\Local\Temp\ccdGw49l.s:4123   .debug_str:00000000000018b7 .LASF79
C:\Users\stapi\AppData\Local\Temp\ccdGw49l.s:4151   .debug_str:00000000000019bb .LASF80
C:\Users\stapi\AppData\Local\Temp\ccdGw49l.s:4125   .debug_str:00000000000018d1 .LASF81
C:\Users\stapi\AppData\Local\Temp\ccdGw49l.s:3715   .debug_str:00000000000006b1 .LASF82
C:\Users\stapi\AppData\Local\Temp\ccdGw49l.s:4217   .debug_str:0000000000001cfd .LASF83
C:\Users\stapi\AppData\Local\Temp\ccdGw49l.s:4215   .debug_str:0000000000001ce0 .LASF84
C:\Users\stapi\AppData\Local\Temp\ccdGw49l.s:4185   .debug_str:0000000000001b55 .LASF85
C:\Users\stapi\AppData\Local\Temp\ccdGw49l.s:4225   .debug_str:0000000000001d72 .LASF86
C:\Users\stapi\AppData\Local\Temp\ccdGw49l.s:3957   .debug_str:000000000000105a .LASF87
C:\Users\stapi\AppData\Local\Temp\ccdGw49l.s:3961   .debug_str:0000000000001091 .LASF88
C:\Users\stapi\AppData\Local\Temp\ccdGw49l.s:3823   .debug_str:0000000000000b1e .LASF89
C:\Users\stapi\AppData\Local\Temp\ccdGw49l.s:3595   .debug_str:0000000000000097 .LASF90
C:\Users\stapi\AppData\Local\Temp\ccdGw49l.s:4173   .debug_str:0000000000001adf .LASF91
C:\Users\stapi\AppData\Local\Temp\ccdGw49l.s:4021   .debug_str:00000000000013a0 .LASF92
C:\Users\stapi\AppData\Local\Temp\ccdGw49l.s:3859   .debug_str:0000000000000cc5 .LASF93
C:\Users\stapi\AppData\Local\Temp\ccdGw49l.s:3853   .debug_str:0000000000000c6f .LASF94
C:\Users\stapi\AppData\Local\Temp\ccdGw49l.s:3941   .debug_str:0000000000000fca .LASF95
C:\Users\stapi\AppData\Local\Temp\ccdGw49l.s:3627   .debug_str:00000000000002c0 .LASF96
C:\Users\stapi\AppData\Local\Temp\ccdGw49l.s:4219   .debug_str:0000000000001d20 .LASF97
C:\Users\stapi\AppData\Local\Temp\ccdGw49l.s:3679   .debug_str:000000000000051d .LASF98
C:\Users\stapi\AppData\Local\Temp\ccdGw49l.s:3997   .debug_str:00000000000011ec .LASF99
C:\Users\stapi\AppData\Local\Temp\ccdGw49l.s:4199   .debug_str:0000000000001c39 .LASF100
C:\Users\stapi\AppData\Local\Temp\ccdGw49l.s:3611   .debug_str:000000000000020f .LASF101
C:\Users\stapi\AppData\Local\Temp\ccdGw49l.s:4177   .debug_str:0000000000001b19 .LASF102
C:\Users\stapi\AppData\Local\Temp\ccdGw49l.s:4221   .debug_str:0000000000001d3a .LASF103
C:\Users\stapi\AppData\Local\Temp\ccdGw49l.s:3587   .debug_str:0000000000000044 .LASF104
C:\Users\stapi\AppData\Local\Temp\ccdGw49l.s:3915   .debug_str:0000000000000ee4 .LASF105
C:\Users\stapi\AppData\Local\Temp\ccdGw49l.s:3689   .debug_str:000000000000058c .LASF106
C:\Users\stapi\AppData\Local\Temp\ccdGw49l.s:4279   .debug_str:0000000000001f95 .LASF107
C:\Users\stapi\AppData\Local\Temp\ccdGw49l.s:3701   .debug_str:0000000000000603 .LASF108
C:\Users\stapi\AppData\Local\Temp\ccdGw49l.s:4031   .debug_str:0000000000001407 .LASF109
C:\Users\stapi\AppData\Local\Temp\ccdGw49l.s:4267   .debug_str:0000000000001f26 .LASF110
C:\Users\stapi\AppData\Local\Temp\ccdGw49l.s:4259   .debug_str:0000000000001eb7 .LASF111
C:\Users\stapi\AppData\Local\Temp\ccdGw49l.s:3681   .debug_str:0000000000000536 .LASF112
C:\Users\stapi\AppData\Local\Temp\ccdGw49l.s:3959   .debug_str:0000000000001079 .LASF113
C:\Users\stapi\AppData\Local\Temp\ccdGw49l.s:3849   .debug_str:0000000000000c30 .LASF114
C:\Users\stapi\AppData\Local\Temp\ccdGw49l.s:3667   .debug_str:00000000000004a0 .LASF115
C:\Users\stapi\AppData\Local\Temp\ccdGw49l.s:3767   .debug_str:00000000000008e3 .LASF116
C:\Users\stapi\AppData\Local\Temp\ccdGw49l.s:3655   .debug_str:000000000000043b .LASF117
C:\Users\stapi\AppData\Local\Temp\ccdGw49l.s:3697   .debug_str:00000000000005e3 .LASF118
C:\Users\stapi\AppData\Local\Temp\ccdGw49l.s:4203   .debug_str:0000000000001c6a .LASF119
C:\Users\stapi\AppData\Local\Temp\ccdGw49l.s:3621   .debug_str:0000000000000281 .LASF120
C:\Users\stapi\AppData\Local\Temp\ccdGw49l.s:3585   .debug_str:000000000000002c .LASF121
C:\Users\stapi\AppData\Local\Temp\ccdGw49l.s:3711   .debug_str:0000000000000689 .LASF122
C:\Users\stapi\AppData\Local\Temp\ccdGw49l.s:4207   .debug_str:0000000000001c8f .LASF123
C:\Users\stapi\AppData\Local\Temp\ccdGw49l.s:3669   .debug_str:00000000000004b8 .LASF124
C:\Users\stapi\AppData\Local\Temp\ccdGw49l.s:3843   .debug_str:0000000000000be8 .LASF125
C:\Users\stapi\AppData\Local\Temp\ccdGw49l.s:3601   .debug_str:00000000000000dc .LASF126
C:\Users\stapi\AppData\Local\Temp\ccdGw49l.s:3709   .debug_str:000000000000066c .LASF127
C:\Users\stapi\AppData\Local\Temp\ccdGw49l.s:4157   .debug_str:0000000000001a0e .LASF128
C:\Users\stapi\AppData\Local\Temp\ccdGw49l.s:3809   .debug_str:0000000000000a71 .LASF129
C:\Users\stapi\AppData\Local\Temp\ccdGw49l.s:4195   .debug_str:0000000000001bf6 .LASF130
C:\Users\stapi\AppData\Local\Temp\ccdGw49l.s:3783   .debug_str:000000000000096c .LASF131
C:\Users\stapi\AppData\Local\Temp\ccdGw49l.s:4197   .debug_str:0000000000001c1e .LASF132
C:\Users\stapi\AppData\Local\Temp\ccdGw49l.s:3839   .debug_str:0000000000000bad .LASF133
C:\Users\stapi\AppData\Local\Temp\ccdGw49l.s:3747   .debug_str:00000000000007da .LASF134
C:\Users\stapi\AppData\Local\Temp\ccdGw49l.s:3653   .debug_str:0000000000000414 .LASF135
C:\Users\stapi\AppData\Local\Temp\ccdGw49l.s:3921   .debug_str:0000000000000f19 .LASF136
C:\Users\stapi\AppData\Local\Temp\ccdGw49l.s:4025   .debug_str:00000000000013c1 .LASF137
C:\Users\stapi\AppData\Local\Temp\ccdGw49l.s:3793   .debug_str:00000000000009bb .LASF138
C:\Users\stapi\AppData\Local\Temp\ccdGw49l.s:4045   .debug_str:00000000000014c0 .LASF139
C:\Users\stapi\AppData\Local\Temp\ccdGw49l.s:3759   .debug_str:000000000000087e .LASF140
C:\Users\stapi\AppData\Local\Temp\ccdGw49l.s:4011   .debug_str:000000000000131f .LASF141
C:\Users\stapi\AppData\Local\Temp\ccdGw49l.s:3673   .debug_str:00000000000004f2 .LASF142
C:\Users\stapi\AppData\Local\Temp\ccdGw49l.s:3659   .debug_str:0000000000000467 .LASF143
C:\Users\stapi\AppData\Local\Temp\ccdGw49l.s:3825   .debug_str:0000000000000b3f .LASF144
C:\Users\stapi\AppData\Local\Temp\ccdGw49l.s:3885   .debug_str:0000000000000de9 .LASF145
C:\Users\stapi\AppData\Local\Temp\ccdGw49l.s:4201   .debug_str:0000000000001c53 .LASF146
C:\Users\stapi\AppData\Local\Temp\ccdGw49l.s:4257   .debug_str:0000000000001ea0 .LASF147
C:\Users\stapi\AppData\Local\Temp\ccdGw49l.s:3945   .debug_str:0000000000000fe5 .LASF148
C:\Users\stapi\AppData\Local\Temp\ccdGw49l.s:3705   .debug_str:000000000000063b .LASF149
C:\Users\stapi\AppData\Local\Temp\ccdGw49l.s:3841   .debug_str:0000000000000bce .LASF150
C:\Users\stapi\AppData\Local\Temp\ccdGw49l.s:4083   .debug_str:0000000000001683 .LASF151
C:\Users\stapi\AppData\Local\Temp\ccdGw49l.s:3639   .debug_str:0000000000000353 .LASF152
C:\Users\stapi\AppData\Local\Temp\ccdGw49l.s:4253   .debug_str:0000000000001e79 .LASF153
C:\Users\stapi\AppData\Local\Temp\ccdGw49l.s:4169   .debug_str:0000000000001a9d .LASF154
C:\Users\stapi\AppData\Local\Temp\ccdGw49l.s:3805   .debug_str:0000000000000a42 .LASF155
C:\Users\stapi\AppData\Local\Temp\ccdGw49l.s:3733   .debug_str:000000000000073c .LASF156
C:\Users\stapi\AppData\Local\Temp\ccdGw49l.s:4193   .debug_str:0000000000001bd2 .LASF157
C:\Users\stapi\AppData\Local\Temp\ccdGw49l.s:3847   .debug_str:0000000000000c0f .LASF158
C:\Users\stapi\AppData\Local\Temp\ccdGw49l.s:3907   .debug_str:0000000000000e92 .LASF159
C:\Users\stapi\AppData\Local\Temp\ccdGw49l.s:3939   .debug_str:0000000000000faa .LASF160
C:\Users\stapi\AppData\Local\Temp\ccdGw49l.s:3631   .debug_str:00000000000002e1 .LASF161
C:\Users\stapi\AppData\Local\Temp\ccdGw49l.s:4171   .debug_str:0000000000001abe .LASF162
C:\Users\stapi\AppData\Local\Temp\ccdGw49l.s:4275   .debug_str:0000000000001f6f .LASF163
C:\Users\stapi\AppData\Local\Temp\ccdGw49l.s:3781   .debug_str:0000000000000949 .LASF164
C:\Users\stapi\AppData\Local\Temp\ccdGw49l.s:3863   .debug_str:0000000000000d04 .LASF165
C:\Users\stapi\AppData\Local\Temp\ccdGw49l.s:3615   .debug_str:000000000000023a .LASF166
C:\Users\stapi\AppData\Local\Temp\ccdGw49l.s:3977   .debug_str:0000000000001113 .LASF167
C:\Users\stapi\AppData\Local\Temp\ccdGw49l.s:4053   .debug_str:0000000000001523 .LASF168
C:\Users\stapi\AppData\Local\Temp\ccdGw49l.s:4273   .debug_str:0000000000001f54 .LASF169
C:\Users\stapi\AppData\Local\Temp\ccdGw49l.s:4107   .debug_str:0000000000001803 .LASF170
C:\Users\stapi\AppData\Local\Temp\ccdGw49l.s:3739   .debug_str:0000000000000776 .LASF171
C:\Users\stapi\AppData\Local\Temp\ccdGw49l.s:3819   .debug_str:0000000000000b02 .LASF172
C:\Users\stapi\AppData\Local\Temp\ccdGw49l.s:4127   .debug_str:00000000000018e6 .LASF173
C:\Users\stapi\AppData\Local\Temp\ccdGw49l.s:3905   .debug_str:0000000000000e76 .LASF174
C:\Users\stapi\AppData\Local\Temp\ccdGw49l.s:3993   .debug_str:00000000000011ae .LASF175
C:\Users\stapi\AppData\Local\Temp\ccdGw49l.s:3813   .debug_str:0000000000000ab9 .LASF176
C:\Users\stapi\AppData\Local\Temp\ccdGw49l.s:4079   .debug_str:0000000000001648 .LASF177
C:\Users\stapi\AppData\Local\Temp\ccdGw49l.s:4069   .debug_str:00000000000015d5 .LASF178
C:\Users\stapi\AppData\Local\Temp\ccdGw49l.s:4161   .debug_str:0000000000001a47 .LASF179
C:\Users\stapi\AppData\Local\Temp\ccdGw49l.s:3703   .debug_str:000000000000061e .LASF180
C:\Users\stapi\AppData\Local\Temp\ccdGw49l.s:3883   .debug_str:0000000000000dc1 .LASF181
C:\Users\stapi\AppData\Local\Temp\ccdGw49l.s:4189   .debug_str:0000000000001b98 .LASF182
C:\Users\stapi\AppData\Local\Temp\ccdGw49l.s:3831   .debug_str:0000000000000b67 .LASF183
C:\Users\stapi\AppData\Local\Temp\ccdGw49l.s:4281   .debug_str:0000000000001fb6 .LASF184
C:\Users\stapi\AppData\Local\Temp\ccdGw49l.s:3761   .debug_str:0000000000000899 .LASF185
C:\Users\stapi\AppData\Local\Temp\ccdGw49l.s:3607   .debug_str:00000000000001eb .LASF186
C:\Users\stapi\AppData\Local\Temp\ccdGw49l.s:3893   .debug_str:0000000000000e2e .LASF187
C:\Users\stapi\AppData\Local\Temp\ccdGw49l.s:3753   .debug_str:0000000000000841 .LASF188
C:\Users\stapi\AppData\Local\Temp\ccdGw49l.s:3713   .debug_str:00000000000006a4 .LASF189
C:\Users\stapi\AppData\Local\Temp\ccdGw49l.s:4263   .debug_str:0000000000001ee0 .LASF190
C:\Users\stapi\AppData\Local\Temp\ccdGw49l.s:4103   .debug_str:00000000000017c3 .LASF191
C:\Users\stapi\AppData\Local\Temp\ccdGw49l.s:3641   .debug_str:0000000000000372 .LASF192
C:\Users\stapi\AppData\Local\Temp\ccdGw49l.s:4265   .debug_str:0000000000001ef4 .LASF193
C:\Users\stapi\AppData\Local\Temp\ccdGw49l.s:4101   .debug_str:00000000000017b2 .LASF194
C:\Users\stapi\AppData\Local\Temp\ccdGw49l.s:3979   .debug_str:0000000000001133 .LASF195
C:\Users\stapi\AppData\Local\Temp\ccdGw49l.s:3911   .debug_str:0000000000000ec5 .LASF196
C:\Users\stapi\AppData\Local\Temp\ccdGw49l.s:3623   .debug_str:00000000000002a1 .LASF197
C:\Users\stapi\AppData\Local\Temp\ccdGw49l.s:3773   .debug_str:000000000000090d .LASF198
C:\Users\stapi\AppData\Local\Temp\ccdGw49l.s:4233   .debug_str:0000000000001dc4 .LASF199
C:\Users\stapi\AppData\Local\Temp\ccdGw49l.s:3985   .debug_str:0000000000001163 .LASF200
C:\Users\stapi\AppData\Local\Temp\ccdGw49l.s:3869   .debug_str:0000000000000d51 .LASF201
C:\Users\stapi\AppData\Local\Temp\ccdGw49l.s:4251   .debug_str:0000000000001e6e .LASF202
C:\Users\stapi\AppData\Local\Temp\ccdGw49l.s:4119   .debug_str:0000000000001898 .LASF203
C:\Users\stapi\AppData\Local\Temp\ccdGw49l.s:4255   .debug_str:0000000000001e8f .LASF204
C:\Users\stapi\AppData\Local\Temp\ccdGw49l.s:3967   .debug_str:00000000000010d4 .LASF205
C:\Users\stapi\AppData\Local\Temp\ccdGw49l.s:3891   .debug_str:0000000000000e1f .LASF206
C:\Users\stapi\AppData\Local\Temp\ccdGw49l.s:3873   .debug_str:0000000000000d7a .LASF207
C:\Users\stapi\AppData\Local\Temp\ccdGw49l.s:4115   .debug_str:000000000000187a .LASF208
C:\Users\stapi\AppData\Local\Temp\ccdGw49l.s:4117   .debug_str:0000000000001889 .LASF209
C:\Users\stapi\AppData\Local\Temp\ccdGw49l.s:4191   .debug_str:0000000000001bb9 .LASF210
C:\Users\stapi\AppData\Local\Temp\ccdGw49l.s:3973   .debug_str:00000000000010f6 .LASF211
C:\Users\stapi\AppData\Local\Temp\ccdGw49l.s:3693   .debug_str:00000000000005c0 .LASF212
C:\Users\stapi\AppData\Local\Temp\ccdGw49l.s:4089   .debug_str:00000000000016c5 .LASF213
C:\Users\stapi\AppData\Local\Temp\ccdGw49l.s:4223   .debug_str:0000000000001d58 .LASF214
C:\Users\stapi\AppData\Local\Temp\ccdGw49l.s:4007   .debug_str:00000000000012e7 .LASF215
C:\Users\stapi\AppData\Local\Temp\ccdGw49l.s:4167   .debug_str:0000000000001a7c .LASF216
C:\Users\stapi\AppData\Local\Temp\ccdGw49l.s:3851   .debug_str:0000000000000c51 .LASF217
C:\Users\stapi\AppData\Local\Temp\ccdGw49l.s:4135   .debug_str:0000000000001935 .LASF218
C:\Users\stapi\AppData\Local\Temp\ccdGw49l.s:4071   .debug_str:00000000000015eb .LASF219
C:\Users\stapi\AppData\Local\Temp\ccdGw49l.s:4063   .debug_str:000000000000158d .LASF220
C:\Users\stapi\AppData\Local\Temp\ccdGw49l.s:3635   .debug_str:0000000000000321 .LASF221
C:\Users\stapi\AppData\Local\Temp\ccdGw49l.s:3801   .debug_str:0000000000000a19 .LASF222
C:\Users\stapi\AppData\Local\Temp\ccdGw49l.s:4067   .debug_str:00000000000015b8 .LASF223
C:\Users\stapi\AppData\Local\Temp\ccdGw49l.s:4043   .debug_str:000000000000149f .LASF224
C:\Users\stapi\AppData\Local\Temp\ccdGw49l.s:4187   .debug_str:0000000000001b78 .LASF225
C:\Users\stapi\AppData\Local\Temp\ccdGw49l.s:3599   .debug_str:00000000000000c5 .LASF226
C:\Users\stapi\AppData\Local\Temp\ccdGw49l.s:3629   .debug_str:00000000000002d7 .LASF227
C:\Users\stapi\AppData\Local\Temp\ccdGw49l.s:3935   .debug_str:0000000000000f96 .LASF228
C:\Users\stapi\AppData\Local\Temp\ccdGw49l.s:3663   .debug_str:000000000000048c .LASF229
C:\Users\stapi\AppData\Local\Temp\ccdGw49l.s:3895   .debug_str:0000000000000e3b .LASF230
C:\Users\stapi\AppData\Local\Temp\ccdGw49l.s:3661   .debug_str:0000000000000485 .LASF231
C:\Users\stapi\AppData\Local\Temp\ccdGw49l.s:3903   .debug_str:0000000000000e6e .LASF232
C:\Users\stapi\AppData\Local\Temp\ccdGw49l.s:3755   .debug_str:000000000000085b .LASF233
C:\Users\stapi\AppData\Local\Temp\ccdGw49l.s:3731   .debug_str:0000000000000731 .LASF234
C:\Users\stapi\AppData\Local\Temp\ccdGw49l.s:4131   .debug_str:0000000000001919 .LASF235
C:\Users\stapi\AppData\Local\Temp\ccdGw49l.s:3989   .debug_str:0000000000001186 .LASF236
C:\Users\stapi\AppData\Local\Temp\ccdGw49l.s:3675   .debug_str:000000000000050f .LASF237
C:\Users\stapi\AppData\Local\Temp\ccdGw49l.s:3987   .debug_str:000000000000117d .LASF238
C:\Users\stapi\AppData\Local\Temp\ccdGw49l.s:3857   .debug_str:0000000000000cac .LASF239
C:\Users\stapi\AppData\Local\Temp\ccdGw49l.s:3647   .debug_str:00000000000003cc .LASF253
C:\Users\stapi\AppData\Local\Temp\ccdGw49l.s:3879   .debug_str:0000000000000da2 .LASF240
C:\Users\stapi\AppData\Local\Temp\ccdGw49l.s:4133   .debug_str:0000000000001930 .LASF241
C:\Users\stapi\AppData\Local\Temp\ccdGw49l.s:4163   .debug_str:0000000000001a5f .LASF242
C:\Users\stapi\AppData\Local\Temp\ccdGw49l.s:3837   .debug_str:0000000000000ba6 .LASF243
C:\Users\stapi\AppData\Local\Temp\ccdGw49l.s:4035   .debug_str:0000000000001443 .LASF244
C:\Users\stapi\AppData\Local\Temp\ccdGw49l.s:3969   .debug_str:00000000000010e0 .LASF245
C:\Users\stapi\AppData\Local\Temp\ccdGw49l.s:3619   .debug_str:000000000000027b .LASF246
C:\Users\stapi\AppData\Local\Temp\ccdGw49l.s:4037   .debug_str:000000000000144a .LASF247
C:\Users\stapi\AppData\Local\Temp\ccdGw49l.s:3931   .debug_str:0000000000000f73 .LASF248
C:\Users\stapi\AppData\Local\Temp\ccdGw49l.s:4049   .debug_str:00000000000014fb .LASF249
C:\Users\stapi\AppData\Local\Temp\ccdGw49l.s:4093   .debug_str:00000000000016f1 .LASF250
C:\Users\stapi\AppData\Local\Temp\ccdGw49l.s:3683   .debug_str:000000000000054f .LASF251
C:\Users\stapi\AppData\Local\Temp\ccdGw49l.s:3943   .debug_str:0000000000000fde .LASF252
C:\Users\stapi\AppData\Local\Temp\ccdGw49l.s:3991   .debug_str:00000000000011a6 .LASF254
C:\Users\stapi\AppData\Local\Temp\ccdGw49l.s:4277   .debug_str:0000000000001f90 .LASF255
C:\Users\stapi\AppData\Local\Temp\ccdGw49l.s:4023   .debug_str:00000000000013bc .LASF256
C:\Users\stapi\AppData\Local\Temp\ccdGw49l.s:4271   .debug_str:0000000000001f4f .LASF257
C:\Users\stapi\AppData\Local\Temp\ccdGw49l.s:3625   .debug_str:00000000000002b2 .LASF258
C:\Users\stapi\AppData\Local\Temp\ccdGw49l.s:3953   .debug_str:000000000000103d .LASF259
C:\Users\stapi\AppData\Local\Temp\ccdGw49l.s:3817   .debug_str:0000000000000af8 .LASF260
C:\Users\stapi\AppData\Local\Temp\ccdGw49l.s:3917   .debug_str:0000000000000efc .LASF261
C:\Users\stapi\AppData\Local\Temp\ccdGw49l.s:4269   .debug_str:0000000000001f45 .LASF262
C:\Users\stapi\AppData\Local\Temp\ccdGw49l.s:3949   .debug_str:000000000000101c .LASF263
C:\Users\stapi\AppData\Local\Temp\ccdGw49l.s:3983   .debug_str:0000000000001159 .LASF264
C:\Users\stapi\AppData\Local\Temp\ccdGw49l.s:4241   .debug_str:0000000000001e06 .LASF265
C:\Users\stapi\AppData\Local\Temp\ccdGw49l.s:3803   .debug_str:0000000000000a39 .LASF266
C:\Users\stapi\AppData\Local\Temp\ccdGw49l.s:4013   .debug_str:000000000000133e .LASF267
C:\Users\stapi\AppData\Local\Temp\ccdGw49l.s:3757   .debug_str:0000000000000872 .LASF268
C:\Users\stapi\AppData\Local\Temp\ccdGw49l.s:3775   .debug_str:000000000000091d .LASF269
C:\Users\stapi\AppData\Local\Temp\ccdGw49l.s:4017   .debug_str:0000000000001373 .LASF270
C:\Users\stapi\AppData\Local\Temp\ccdGw49l.s:3695   .debug_str:00000000000005d6 .LASF271
C:\Users\stapi\AppData\Local\Temp\ccdGw49l.s:3729   .debug_str:0000000000000728 .LASF272
C:\Users\stapi\AppData\Local\Temp\ccdGw49l.s:3827   .debug_str:0000000000000b56 .LASF273
C:\Users\stapi\AppData\Local\Temp\ccdGw49l.s:4237   .debug_str:0000000000001de8 .LASF274
C:\Users\stapi\AppData\Local\Temp\ccdGw49l.s:4143   .debug_str:000000000000198c .LASF275
C:\Users\stapi\AppData\Local\Temp\ccdGw49l.s:3947   .debug_str:0000000000001005 .LASF276
C:\Users\stapi\AppData\Local\Temp\ccdGw49l.s:3963   .debug_str:00000000000010af .LASF277
C:\Users\stapi\AppData\Local\Temp\ccdGw49l.s:4033   .debug_str:0000000000001429 .LASF278
C:\Users\stapi\AppData\Local\Temp\ccdGw49l.s:3889   .debug_str:0000000000000e07 .LASF279
C:\Users\stapi\AppData\Local\Temp\ccdGw49l.s:4003   .debug_str:00000000000012a4 .LASF280
C:\Users\stapi\AppData\Local\Temp\ccdGw49l.s:4005   .debug_str:00000000000012bf .LASF281
C:\Users\stapi\AppData\Local\Temp\ccdGw49l.s:3901   .debug_str:0000000000000e5e .LASF282
C:\Users\stapi\AppData\Local\Temp\ccdGw49l.s:3835   .debug_str:0000000000000b96 .LASF283
C:\Users\stapi\AppData\Local\Temp\ccdGw49l.s:4137   .debug_str:0000000000001958 .LASF284
C:\Users\stapi\AppData\Local\Temp\ccdGw49l.s:4239   .debug_str:0000000000001df1 .LASF285
C:\Users\stapi\AppData\Local\Temp\ccdGw49l.s:4085   .debug_str:0000000000001697 .LASF286
C:\Users\stapi\AppData\Local\Temp\ccdGw49l.s:3937   .debug_str:0000000000000f9d .LASF287
C:\Users\stapi\AppData\Local\Temp\ccdGw49l.s:3795   .debug_str:00000000000009d6 .LASF288
C:\Users\stapi\AppData\Local\Temp\ccdGw49l.s:4087   .debug_str:00000000000016ae .LASF289
C:\Users\stapi\AppData\Local\Temp\ccdGw49l.s:4211   .debug_str:0000000000001cb0 .LASF290
C:\Users\stapi\AppData\Local\Temp\ccdGw49l.s:4019   .debug_str:0000000000001385 .LASF291
C:\Users\stapi\AppData\Local\Temp\ccdGw49l.s:4057   .debug_str:0000000000001563 .LASF292
C:\Users\stapi\AppData\Local\Temp\ccdGw49l.s:3609   .debug_str:0000000000000208 .LASF293
C:\Users\stapi\AppData\Local\Temp\ccdGw49l.s:3899   .debug_str:0000000000000e51 .LASF294
C:\Users\stapi\AppData\Local\Temp\ccdGw49l.s:4261   .debug_str:0000000000001ecd .LASF295
C:\Users\stapi\AppData\Local\Temp\ccdGw49l.s:3877   .debug_str:0000000000000d94 .LASF296
C:\Users\stapi\AppData\Local\Temp\ccdGw49l.s:3913   .debug_str:0000000000000ed6 .LASF297
C:\Users\stapi\AppData\Local\Temp\ccdGw49l.s:3765   .debug_str:00000000000008d2 .LASF298
C:\Users\stapi\AppData\Local\Temp\ccdGw49l.s:3735   .debug_str:000000000000075f .LASF299
C:\Users\stapi\AppData\Local\Temp\ccdGw49l.s:3789   .debug_str:00000000000009a7 .LASF300
C:\Users\stapi\AppData\Local\Temp\ccdGw49l.s:3833   .debug_str:0000000000000b85 .LASF301
C:\Users\stapi\AppData\Local\Temp\ccdGw49l.s:3699   .debug_str:00000000000005fb .LASF302
C:\Users\stapi\AppData\Local\Temp\ccdGw49l.s:3965   .debug_str:00000000000010c5 .LASF303
C:\Users\stapi\AppData\Local\Temp\ccdGw49l.s:4105   .debug_str:00000000000017f6 .LASF304
C:\Users\stapi\AppData\Local\Temp\ccdGw49l.s:4155   .debug_str:00000000000019fe .LASF305
C:\Users\stapi\AppData\Local\Temp\ccdGw49l.s:4121   .debug_str:00000000000018aa .LASF306
C:\Users\stapi\AppData\Local\Temp\ccdGw49l.s:4165   .debug_str:0000000000001a6a .LASF307
C:\Users\stapi\AppData\Local\Temp\ccdGw49l.s:4145   .debug_str:0000000000001995 .LASF308
C:\Users\stapi\AppData\Local\Temp\ccdGw49l.s:3717   .debug_str:00000000000006c9 .LASF309
C:\Users\stapi\AppData\Local\Temp\ccdGw49l.s:3657   .debug_str:0000000000000459 .LASF310
C:\Users\stapi\AppData\Local\Temp\ccdGw49l.s:4183   .debug_str:0000000000001b46 .LASF311
C:\Users\stapi\AppData\Local\Temp\ccdGw49l.s:3643   .debug_str:000000000000039f .LASF312
C:\Users\stapi\AppData\Local\Temp\ccdGw49l.s:4065   .debug_str:00000000000015ad .LASF313
C:\Users\stapi\AppData\Local\Temp\ccdGw49l.s:4181   .debug_str:0000000000001b39 .LASF314
C:\Users\stapi\AppData\Local\Temp\ccdGw49l.s:3845   .debug_str:0000000000000c05 .LASF315
C:\Users\stapi\AppData\Local\Temp\ccdGw49l.s:3955   .debug_str:0000000000001045 .LASF316
C:\Users\stapi\AppData\Local\Temp\ccdGw49l.s:3971   .debug_str:00000000000010e5 .LASF317
C:\Users\stapi\AppData\Local\Temp\ccdGw49l.s:4247   .debug_str:0000000000001e41 .LASF318
C:\Users\stapi\AppData\Local\Temp\ccdGw49l.s:4099   .debug_str:0000000000001797 .LASF319
C:\Users\stapi\AppData\Local\Temp\ccdGw49l.s:4243   .debug_str:0000000000001e0e .LASF347
C:\Users\stapi\AppData\Local\Temp\ccdGw49l.s:3591   .debug_str:000000000000006f .LASF320
C:\Users\stapi\AppData\Local\Temp\ccdGw49l.s:3807   .debug_str:0000000000000a66 .LASF321
C:\Users\stapi\AppData\Local\Temp\ccdGw49l.s:3787   .debug_str:000000000000099b .LASF322
C:\Users\stapi\AppData\Local\Temp\ccdGw49l.s:3829   .debug_str:0000000000000b5b .LASF323
C:\Users\stapi\AppData\Local\Temp\ccdGw49l.s:3719   .debug_str:00000000000006d7 .LASF324
C:\Users\stapi\AppData\Local\Temp\ccdGw49l.s:3999   .debug_str:0000000000001206 .LASF348
C:\Users\stapi\AppData\Local\Temp\ccdGw49l.s:3909   .debug_str:0000000000000eb4 .LASF349
C:\Users\stapi\AppData\Local\Temp\ccdGw49l.s:42     .text.IOT_MQTT_LogPost:0000000000000000 .LFB20
C:\Users\stapi\AppData\Local\Temp\ccdGw49l.s:349    .text.IOT_MQTT_LogPost:0000000000000204 .LFE20
C:\Users\stapi\AppData\Local\Temp\ccdGw49l.s:3821   .debug_str:0000000000000b16 .LASF325
C:\Users\stapi\AppData\Local\Temp\ccdGw49l.s:3325   .debug_loc:0000000000000000 .LLST0
C:\Users\stapi\AppData\Local\Temp\ccdGw49l.s:3581   .debug_str:000000000000000f .LASF326
C:\Users\stapi\AppData\Local\Temp\ccdGw49l.s:3365   .debug_loc:000000000000005e .LLST1
C:\Users\stapi\AppData\Local\Temp\ccdGw49l.s:3777   .debug_str:0000000000000926 .LASF327
C:\Users\stapi\AppData\Local\Temp\ccdGw49l.s:3387   .debug_loc:0000000000000095 .LLST2
C:\Users\stapi\AppData\Local\Temp\ccdGw49l.s:3409   .debug_loc:00000000000000cc .LLST3
C:\Users\stapi\AppData\Local\Temp\ccdGw49l.s:3927   .debug_str:0000000000000f5e .LASF328
C:\Users\stapi\AppData\Local\Temp\ccdGw49l.s:3431   .debug_loc:0000000000000103 .LLST4
C:\Users\stapi\AppData\Local\Temp\ccdGw49l.s:3597   .debug_str:00000000000000bf .LASF329
C:\Users\stapi\AppData\Local\Temp\ccdGw49l.s:4059   .debug_str:000000000000157d .LASF330
C:\Users\stapi\AppData\Local\Temp\ccdGw49l.s:3448   .debug_loc:000000000000012e .LLST5
C:\Users\stapi\AppData\Local\Temp\ccdGw49l.s:3474   .debug_loc:0000000000000170 .LLST6
C:\Users\stapi\AppData\Local\Temp\ccdGw49l.s:167    .text.IOT_MQTT_LogPost:00000000000000aa .LBB4
C:\Users\stapi\AppData\Local\Temp\ccdGw49l.s:3501   .debug_loc:00000000000001b3 .LLST7
C:\Users\stapi\AppData\Local\Temp\ccdGw49l.s:3512   .debug_loc:00000000000001d1 .LLST8
C:\Users\stapi\AppData\Local\Temp\ccdGw49l.s:3537   .debug_loc:000000000000020b .LLST9
C:\Users\stapi\AppData\Local\Temp\ccdGw49l.s:177    .text.IOT_MQTT_LogPost:00000000000000bc .LVL19
C:\Users\stapi\AppData\Local\Temp\ccdGw49l.s:194    .text.IOT_MQTT_LogPost:00000000000000da .LVL20
C:\Users\stapi\AppData\Local\Temp\ccdGw49l.s:198    .text.IOT_MQTT_LogPost:00000000000000e4 .LVL21
C:\Users\stapi\AppData\Local\Temp\ccdGw49l.s:202    .text.IOT_MQTT_LogPost:00000000000000ee .LVL22
C:\Users\stapi\AppData\Local\Temp\ccdGw49l.s:214    .text.IOT_MQTT_LogPost:0000000000000108 .LVL23
C:\Users\stapi\AppData\Local\Temp\ccdGw49l.s:224    .text.IOT_MQTT_LogPost:000000000000011c .LVL25
C:\Users\stapi\AppData\Local\Temp\ccdGw49l.s:232    .text.IOT_MQTT_LogPost:000000000000012c .LVL27
C:\Users\stapi\AppData\Local\Temp\ccdGw49l.s:237    .text.IOT_MQTT_LogPost:000000000000013c .LVL28
C:\Users\stapi\AppData\Local\Temp\ccdGw49l.s:300    .text.IOT_MQTT_LogPost:00000000000001bc .LVL39
C:\Users\stapi\AppData\Local\Temp\ccdGw49l.s:312    .text.IOT_MQTT_LogPost:00000000000001cc .LVL40
C:\Users\stapi\AppData\Local\Temp\ccdGw49l.s:328    .text.IOT_MQTT_LogPost:00000000000001e4 .LVL41
C:\Users\stapi\AppData\Local\Temp\ccdGw49l.s:341    .text.IOT_MQTT_LogPost:00000000000001fa .LVL44
C:\Users\stapi\AppData\Local\Temp\ccdGw49l.s:107    .text.IOT_MQTT_LogPost:0000000000000038 .LVL7
C:\Users\stapi\AppData\Local\Temp\ccdGw49l.s:117    .text.IOT_MQTT_LogPost:000000000000004a .LVL9
C:\Users\stapi\AppData\Local\Temp\ccdGw49l.s:121    .text.IOT_MQTT_LogPost:0000000000000052 .LVL10
C:\Users\stapi\AppData\Local\Temp\ccdGw49l.s:135    .text.IOT_MQTT_LogPost:0000000000000074 .LVL11
C:\Users\stapi\AppData\Local\Temp\ccdGw49l.s:144    .text.IOT_MQTT_LogPost:0000000000000082 .LVL13
C:\Users\stapi\AppData\Local\Temp\ccdGw49l.s:153    .text.IOT_MQTT_LogPost:000000000000008e .LVL16
C:\Users\stapi\AppData\Local\Temp\ccdGw49l.s:164    .text.IOT_MQTT_LogPost:00000000000000aa .LVL18
C:\Users\stapi\AppData\Local\Temp\ccdGw49l.s:248    .text.IOT_MQTT_LogPost:000000000000014c .LVL29
C:\Users\stapi\AppData\Local\Temp\ccdGw49l.s:254    .text.IOT_MQTT_LogPost:000000000000015e .LVL30
C:\Users\stapi\AppData\Local\Temp\ccdGw49l.s:259    .text.IOT_MQTT_LogPost:000000000000016e .LVL31
C:\Users\stapi\AppData\Local\Temp\ccdGw49l.s:267    .text.IOT_MQTT_LogPost:000000000000017a .LVL33
C:\Users\stapi\AppData\Local\Temp\ccdGw49l.s:282    .text.IOT_MQTT_LogPost:0000000000000192 .LVL36
C:\Users\stapi\AppData\Local\Temp\ccdGw49l.s:3771   .debug_str:0000000000000906 .LASF350
C:\Users\stapi\AppData\Local\Temp\ccdGw49l.s:3687   .debug_str:000000000000057b .LASF351
C:\Users\stapi\AppData\Local\Temp\ccdGw49l.s:3603   .debug_str:00000000000000f2 .LASF331
C:\Users\stapi\AppData\Local\Temp\ccdGw49l.s:3637   .debug_str:0000000000000341 .LASF332
C:\Users\stapi\AppData\Local\Temp\ccdGw49l.s:4129   .debug_str:000000000000190c .LASF333
C:\Users\stapi\AppData\Local\Temp\ccdGw49l.s:4147   .debug_str:00000000000019a7 .LASF334
C:\Users\stapi\AppData\Local\Temp\ccdGw49l.s:3613   .debug_str:000000000000022e .LASF335
C:\Users\stapi\AppData\Local\Temp\ccdGw49l.s:4179   .debug_str:0000000000001b32 .LASF336
C:\Users\stapi\AppData\Local\Temp\ccdGw49l.s:3707   .debug_str:000000000000065c .LASF337
C:\Users\stapi\AppData\Local\Temp\ccdGw49l.s:3865   .debug_str:0000000000000d25 .LASF338
C:\Users\stapi\AppData\Local\Temp\ccdGw49l.s:4029   .debug_str:00000000000013fb .LASF339
C:\Users\stapi\AppData\Local\Temp\ccdGw49l.s:3741   .debug_str:0000000000000795 .LASF340
C:\Users\stapi\AppData\Local\Temp\ccdGw49l.s:3887   .debug_str:0000000000000e00 .LASF341
C:\Users\stapi\AppData\Local\Temp\ccdGw49l.s:4231   .debug_str:0000000000001dbd .LASF342
C:\Users\stapi\AppData\Local\Temp\ccdGw49l.s:46     .text.IOT_MQTT_LogPost:0000000000000000 .LVL0
C:\Users\stapi\AppData\Local\Temp\ccdGw49l.s:66     .text.IOT_MQTT_LogPost:000000000000000c .LVL2
C:\Users\stapi\AppData\Local\Temp\ccdGw49l.s:85     .text.IOT_MQTT_LogPost:000000000000001a .LVL3
C:\Users\stapi\AppData\Local\Temp\ccdGw49l.s:105    .text.IOT_MQTT_LogPost:0000000000000030 .LVL6
C:\Users\stapi\AppData\Local\Temp\ccdGw49l.s:228    .text.IOT_MQTT_LogPost:0000000000000124 .LVL26
C:\Users\stapi\AppData\Local\Temp\ccdGw49l.s:271    .text.IOT_MQTT_LogPost:000000000000017c .LVL34
C:\Users\stapi\AppData\Local\Temp\ccdGw49l.s:332    .text.IOT_MQTT_LogPost:00000000000001e6 .LVL42
C:\Users\stapi\AppData\Local\Temp\ccdGw49l.s:103    .text.IOT_MQTT_LogPost:000000000000002e .LVL5
C:\Users\stapi\AppData\Local\Temp\ccdGw49l.s:101    .text.IOT_MQTT_LogPost:000000000000002c .LVL4
C:\Users\stapi\AppData\Local\Temp\ccdGw49l.s:56     .text.IOT_MQTT_LogPost:0000000000000008 .LVL1
C:\Users\stapi\AppData\Local\Temp\ccdGw49l.s:109    .text.IOT_MQTT_LogPost:000000000000003a .LVL8
C:\Users\stapi\AppData\Local\Temp\ccdGw49l.s:139    .text.IOT_MQTT_LogPost:0000000000000078 .LVL12
C:\Users\stapi\AppData\Local\Temp\ccdGw49l.s:146    .text.IOT_MQTT_LogPost:0000000000000084 .LVL14
C:\Users\stapi\AppData\Local\Temp\ccdGw49l.s:162    .text.IOT_MQTT_LogPost:00000000000000a2 .LVL17
C:\Users\stapi\AppData\Local\Temp\ccdGw49l.s:280    .text.IOT_MQTT_LogPost:000000000000018a .LVL35
C:\Users\stapi\AppData\Local\Temp\ccdGw49l.s:151    .text.IOT_MQTT_LogPost:0000000000000086 .LVL15
C:\Users\stapi\AppData\Local\Temp\ccdGw49l.s:261    .text.IOT_MQTT_LogPost:0000000000000170 .LVL32
C:\Users\stapi\AppData\Local\Temp\ccdGw49l.s:284    .text.IOT_MQTT_LogPost:0000000000000194 .LVL37
C:\Users\stapi\AppData\Local\Temp\ccdGw49l.s:221    .text.IOT_MQTT_LogPost:0000000000000110 .LVL24
C:\Users\stapi\AppData\Local\Temp\ccdGw49l.s:292    .text.IOT_MQTT_LogPost:00000000000001a0 .LVL38
C:\Users\stapi\AppData\Local\Temp\ccdGw49l.s:338    .text.IOT_MQTT_LogPost:00000000000001ee .LVL43
C:\Users\stapi\AppData\Local\Temp\ccdGw49l.s:391    .debug_info:0000000000000000 .Ldebug_info0
C:\Users\stapi\AppData\Local\Temp\ccdGw49l.s:241    .text.IOT_MQTT_LogPost:000000000000013c .LBE4
C:\Users\stapi\AppData\Local\Temp\ccdGw49l.s:286    .text.IOT_MQTT_LogPost:0000000000000194 .LBB7
C:\Users\stapi\AppData\Local\Temp\ccdGw49l.s:347    .text.IOT_MQTT_LogPost:0000000000000204 .LBE7

UNDEFINED SYMBOLS
__riscv_save_5
__riscv_restore_5
LITE_malloc_internal
memset
HAL_UTC_Get
HAL_Snprintf
LITE_free_internal
strlen
strcpy
HAL_GetProductKey
HAL_GetDeviceName
HAL_Printf
strcat
LITE_syslog
iotx_mc_publish
