   1              		.file	"impl_logpost.c"
   2              		.option nopic
   3              		.attribute arch, "rv32i2p0_m2p0_a2p0_f2p0_c2p0_b_p0p94"
   4              		.attribute unaligned_access, 0
   5              		.attribute stack_align, 16
   6              		.text
   7              	.Ltext0:
   8              		.cfi_sections	.debug_frame
   9              		.section	.rodata.IOT_MQTT_LogPost.str1.4,"aMS",@progbits,1
  10              		.align	2
  11              	.LC0:
  12 0000 2F737973 		.string	"/sys/%s/%s/thing/log/post"
  12      2F25732F 
  12      25732F74 
  12      68696E67 
  12      2F6C6F67 
  13 001a 0000     		.align	2
  14              	.LC1:
  15 001c 5B657272 		.string	"[err] "
  15      5D2000
  16 0023 00       		.align	2
  17              	.LC2:
  18 0024 6C6F6720 		.string	"log topic generate err"
  18      746F7069 
  18      63206765 
  18      6E657261 
  18      74652065 
  19 003b 00       		.align	2
  20              	.LC3:
  21 003c 0D0A00   		.string	"\r\n"
  22 003f 00       		.align	2
  23              	.LC4:
  24 0040 6C6F6720 		.string	"log post data: %s"
  24      706F7374 
  24      20646174 
  24      613A2025 
  24      7300
  25 0052 0000     		.align	2
  26              	.LC5:
  27 0054 6C6F6770 		.string	"logpost"
  27      6F737400 
  28              		.align	2
  29              	.LC6:
  30 005c 7075626C 		.string	"publish failed"
  30      69736820 
  30      6661696C 
  30      656400
  31 006b 00       		.align	2
  32              	.LC7:
  33 006c 5B696E66 		.string	"[inf] "
  33      5D2000
  34 0073 00       		.align	2
  35              	.LC8:
  36 0074 6C6F6720 		.string	"log post to cloud fail, ret = %d\n"
  36      706F7374 
  36      20746F20 
  36      636C6F75 
  36      64206661 
  37              		.section	.text.IOT_MQTT_LogPost,"ax",@progbits
  38              		.align	1
  39              		.globl	IOT_MQTT_LogPost
  41              	IOT_MQTT_LogPost:
  42              	.LFB20:
  43              		.file 1 "C:/Users/stapi/OneDrive/Desktop/GD32VW553/V1_MQTT_OK/GD32VW55X_Wifi_BLE_SDK/GD32VW55x_REL
   1:C:/Users/stapi/OneDrive/Desktop/GD32VW553/V1_MQTT_OK/GD32VW55X_Wifi_BLE_SDK/GD32VW55x_RELEASE_V1.0.2/MSDK/cloud/alicloud/src/sdk-impl\impl_logpost.c **** /*
   2:C:/Users/stapi/OneDrive/Desktop/GD32VW553/V1_MQTT_OK/GD32VW55X_Wifi_BLE_SDK/GD32VW55x_RELEASE_V1.0.2/MSDK/cloud/alicloud/src/sdk-impl\impl_logpost.c ****  * Copyright (C) 2015-2018 Alibaba Group Holding Limited
   3:C:/Users/stapi/OneDrive/Desktop/GD32VW553/V1_MQTT_OK/GD32VW55X_Wifi_BLE_SDK/GD32VW55x_RELEASE_V1.0.2/MSDK/cloud/alicloud/src/sdk-impl\impl_logpost.c ****  */
   4:C:/Users/stapi/OneDrive/Desktop/GD32VW553/V1_MQTT_OK/GD32VW55X_Wifi_BLE_SDK/GD32VW55x_RELEASE_V1.0.2/MSDK/cloud/alicloud/src/sdk-impl\impl_logpost.c **** 
   5:C:/Users/stapi/OneDrive/Desktop/GD32VW553/V1_MQTT_OK/GD32VW55X_Wifi_BLE_SDK/GD32VW55x_RELEASE_V1.0.2/MSDK/cloud/alicloud/src/sdk-impl\impl_logpost.c **** #ifdef MQTT_COMM_ENABLED
   6:C:/Users/stapi/OneDrive/Desktop/GD32VW553/V1_MQTT_OK/GD32VW55X_Wifi_BLE_SDK/GD32VW55x_RELEASE_V1.0.2/MSDK/cloud/alicloud/src/sdk-impl\impl_logpost.c **** #include "sdk-impl_internal.h"
   7:C:/Users/stapi/OneDrive/Desktop/GD32VW553/V1_MQTT_OK/GD32VW55X_Wifi_BLE_SDK/GD32VW55x_RELEASE_V1.0.2/MSDK/cloud/alicloud/src/sdk-impl\impl_logpost.c **** 
   8:C:/Users/stapi/OneDrive/Desktop/GD32VW553/V1_MQTT_OK/GD32VW55X_Wifi_BLE_SDK/GD32VW55x_RELEASE_V1.0.2/MSDK/cloud/alicloud/src/sdk-impl\impl_logpost.c **** #define LOG_PUBLISH_MSG_MAXLEN   (255)
   9:C:/Users/stapi/OneDrive/Desktop/GD32VW553/V1_MQTT_OK/GD32VW55X_Wifi_BLE_SDK/GD32VW55x_RELEASE_V1.0.2/MSDK/cloud/alicloud/src/sdk-impl\impl_logpost.c **** 
  10:C:/Users/stapi/OneDrive/Desktop/GD32VW553/V1_MQTT_OK/GD32VW55X_Wifi_BLE_SDK/GD32VW55x_RELEASE_V1.0.2/MSDK/cloud/alicloud/src/sdk-impl\impl_logpost.c **** #define IMPL_LOGPOST_MALLOC(size)    LITE_malloc(size, MEM_MAGIC, "impl.logpost")
  11:C:/Users/stapi/OneDrive/Desktop/GD32VW553/V1_MQTT_OK/GD32VW55X_Wifi_BLE_SDK/GD32VW55x_RELEASE_V1.0.2/MSDK/cloud/alicloud/src/sdk-impl\impl_logpost.c **** #define IMPL_LOGPOST_FREE(ptr)       LITE_free(ptr)
  12:C:/Users/stapi/OneDrive/Desktop/GD32VW553/V1_MQTT_OK/GD32VW55X_Wifi_BLE_SDK/GD32VW55x_RELEASE_V1.0.2/MSDK/cloud/alicloud/src/sdk-impl\impl_logpost.c **** 
  13:C:/Users/stapi/OneDrive/Desktop/GD32VW553/V1_MQTT_OK/GD32VW55X_Wifi_BLE_SDK/GD32VW55x_RELEASE_V1.0.2/MSDK/cloud/alicloud/src/sdk-impl\impl_logpost.c **** static int iotx_mc_log_post(void *pclient, char *payload);
  14:C:/Users/stapi/OneDrive/Desktop/GD32VW553/V1_MQTT_OK/GD32VW55X_Wifi_BLE_SDK/GD32VW55x_RELEASE_V1.0.2/MSDK/cloud/alicloud/src/sdk-impl\impl_logpost.c **** 
  15:C:/Users/stapi/OneDrive/Desktop/GD32VW553/V1_MQTT_OK/GD32VW55X_Wifi_BLE_SDK/GD32VW55x_RELEASE_V1.0.2/MSDK/cloud/alicloud/src/sdk-impl\impl_logpost.c **** static const char THING_LOG_POST_PARAMS[] =
  16:C:/Users/stapi/OneDrive/Desktop/GD32VW553/V1_MQTT_OK/GD32VW55X_Wifi_BLE_SDK/GD32VW55x_RELEASE_V1.0.2/MSDK/cloud/alicloud/src/sdk-impl\impl_logpost.c ****             "{\"id\":\"%d\",\"version\":\"1.0\",\"params\":[{\"timestamp\":%d,\"logLevel\":\"%s\",\
  17:C:/Users/stapi/OneDrive/Desktop/GD32VW553/V1_MQTT_OK/GD32VW55X_Wifi_BLE_SDK/GD32VW55x_RELEASE_V1.0.2/MSDK/cloud/alicloud/src/sdk-impl\impl_logpost.c **** 
  18:C:/Users/stapi/OneDrive/Desktop/GD32VW553/V1_MQTT_OK/GD32VW55X_Wifi_BLE_SDK/GD32VW55x_RELEASE_V1.0.2/MSDK/cloud/alicloud/src/sdk-impl\impl_logpost.c **** static const char THING_LOG_POST_PARAMS_TAIL[] =
  19:C:/Users/stapi/OneDrive/Desktop/GD32VW553/V1_MQTT_OK/GD32VW55X_Wifi_BLE_SDK/GD32VW55x_RELEASE_V1.0.2/MSDK/cloud/alicloud/src/sdk-impl\impl_logpost.c ****             "...\"}],\"method\":\"thing.log.post\"}";
  20:C:/Users/stapi/OneDrive/Desktop/GD32VW553/V1_MQTT_OK/GD32VW55X_Wifi_BLE_SDK/GD32VW55x_RELEASE_V1.0.2/MSDK/cloud/alicloud/src/sdk-impl\impl_logpost.c **** 
  21:C:/Users/stapi/OneDrive/Desktop/GD32VW553/V1_MQTT_OK/GD32VW55X_Wifi_BLE_SDK/GD32VW55x_RELEASE_V1.0.2/MSDK/cloud/alicloud/src/sdk-impl\impl_logpost.c **** /* Post log information to cloud through mqtt */
  22:C:/Users/stapi/OneDrive/Desktop/GD32VW553/V1_MQTT_OK/GD32VW55X_Wifi_BLE_SDK/GD32VW55x_RELEASE_V1.0.2/MSDK/cloud/alicloud/src/sdk-impl\impl_logpost.c **** int IOT_MQTT_LogPost(void *pHandle, const char *level, const char *module, const char *msg)
  23:C:/Users/stapi/OneDrive/Desktop/GD32VW553/V1_MQTT_OK/GD32VW55X_Wifi_BLE_SDK/GD32VW55x_RELEASE_V1.0.2/MSDK/cloud/alicloud/src/sdk-impl\impl_logpost.c **** {
  44              		.loc 1 23 1
  45              		.cfi_startproc
  46              	.LVL0:
  47 0000 17030000 		call	t0,__riscv_save_5
  47      E7020300 
  48              		.cfi_offset 20, -24
  49              		.cfi_offset 19, -20
  50              		.cfi_offset 18, -16
  51              		.cfi_offset 9, -12
  52              		.cfi_offset 8, -8
  53              		.cfi_offset 1, -4
  54              		.cfi_def_cfa_offset 32
  24:C:/Users/stapi/OneDrive/Desktop/GD32VW553/V1_MQTT_OK/GD32VW55X_Wifi_BLE_SDK/GD32VW55x_RELEASE_V1.0.2/MSDK/cloud/alicloud/src/sdk-impl\impl_logpost.c ****     char *logbuf = NULL;
  55              		.loc 1 24 5
  56              	.LVL1:
  25:C:/Users/stapi/OneDrive/Desktop/GD32VW553/V1_MQTT_OK/GD32VW55X_Wifi_BLE_SDK/GD32VW55x_RELEASE_V1.0.2/MSDK/cloud/alicloud/src/sdk-impl\impl_logpost.c ****     int msgid = 123;
  57              		.loc 1 25 5
  26:C:/Users/stapi/OneDrive/Desktop/GD32VW553/V1_MQTT_OK/GD32VW55X_Wifi_BLE_SDK/GD32VW55x_RELEASE_V1.0.2/MSDK/cloud/alicloud/src/sdk-impl\impl_logpost.c ****     int length = 0;
  58              		.loc 1 26 5
  27:C:/Users/stapi/OneDrive/Desktop/GD32VW553/V1_MQTT_OK/GD32VW55X_Wifi_BLE_SDK/GD32VW55x_RELEASE_V1.0.2/MSDK/cloud/alicloud/src/sdk-impl\impl_logpost.c ****     int ret = 0;
  59              		.loc 1 27 5
  28:C:/Users/stapi/OneDrive/Desktop/GD32VW553/V1_MQTT_OK/GD32VW55X_Wifi_BLE_SDK/GD32VW55x_RELEASE_V1.0.2/MSDK/cloud/alicloud/src/sdk-impl\impl_logpost.c **** 
  29:C:/Users/stapi/OneDrive/Desktop/GD32VW553/V1_MQTT_OK/GD32VW55X_Wifi_BLE_SDK/GD32VW55x_RELEASE_V1.0.2/MSDK/cloud/alicloud/src/sdk-impl\impl_logpost.c ****     if (!pHandle || !module || !level || !msg) {
  60              		.loc 1 29 5
  23:C:/Users/stapi/OneDrive/Desktop/GD32VW553/V1_MQTT_OK/GD32VW55X_Wifi_BLE_SDK/GD32VW55x_RELEASE_V1.0.2/MSDK/cloud/alicloud/src/sdk-impl\impl_logpost.c ****     char *logbuf = NULL;
  61              		.loc 1 23 1 is_stmt 0
  62 0008 1571     		addi	sp,sp,-224
  63              		.cfi_def_cfa_offset 256
  64              		.loc 1 29 8
  65 000a 01E9     		bne	a0,zero,.L2
  66              	.LVL2:
  67              	.L28:
  30:C:/Users/stapi/OneDrive/Desktop/GD32VW553/V1_MQTT_OK/GD32VW55X_Wifi_BLE_SDK/GD32VW55x_RELEASE_V1.0.2/MSDK/cloud/alicloud/src/sdk-impl\impl_logpost.c ****         return FAIL_RETURN;
  31:C:/Users/stapi/OneDrive/Desktop/GD32VW553/V1_MQTT_OK/GD32VW55X_Wifi_BLE_SDK/GD32VW55x_RELEASE_V1.0.2/MSDK/cloud/alicloud/src/sdk-impl\impl_logpost.c ****     }
  32:C:/Users/stapi/OneDrive/Desktop/GD32VW553/V1_MQTT_OK/GD32VW55X_Wifi_BLE_SDK/GD32VW55x_RELEASE_V1.0.2/MSDK/cloud/alicloud/src/sdk-impl\impl_logpost.c **** 
  33:C:/Users/stapi/OneDrive/Desktop/GD32VW553/V1_MQTT_OK/GD32VW55X_Wifi_BLE_SDK/GD32VW55x_RELEASE_V1.0.2/MSDK/cloud/alicloud/src/sdk-impl\impl_logpost.c ****     logbuf = IMPL_LOGPOST_MALLOC(LOG_PUBLISH_MSG_MAXLEN + 1);
  34:C:/Users/stapi/OneDrive/Desktop/GD32VW553/V1_MQTT_OK/GD32VW55X_Wifi_BLE_SDK/GD32VW55x_RELEASE_V1.0.2/MSDK/cloud/alicloud/src/sdk-impl\impl_logpost.c ****     if (logbuf == NULL) {
  35:C:/Users/stapi/OneDrive/Desktop/GD32VW553/V1_MQTT_OK/GD32VW55X_Wifi_BLE_SDK/GD32VW55x_RELEASE_V1.0.2/MSDK/cloud/alicloud/src/sdk-impl\impl_logpost.c ****         return FAIL_RETURN;
  36:C:/Users/stapi/OneDrive/Desktop/GD32VW553/V1_MQTT_OK/GD32VW55X_Wifi_BLE_SDK/GD32VW55x_RELEASE_V1.0.2/MSDK/cloud/alicloud/src/sdk-impl\impl_logpost.c ****     }
  37:C:/Users/stapi/OneDrive/Desktop/GD32VW553/V1_MQTT_OK/GD32VW55X_Wifi_BLE_SDK/GD32VW55x_RELEASE_V1.0.2/MSDK/cloud/alicloud/src/sdk-impl\impl_logpost.c ****     memset(logbuf, 0, LOG_PUBLISH_MSG_MAXLEN + 1);
  38:C:/Users/stapi/OneDrive/Desktop/GD32VW553/V1_MQTT_OK/GD32VW55X_Wifi_BLE_SDK/GD32VW55x_RELEASE_V1.0.2/MSDK/cloud/alicloud/src/sdk-impl\impl_logpost.c **** 
  39:C:/Users/stapi/OneDrive/Desktop/GD32VW553/V1_MQTT_OK/GD32VW55X_Wifi_BLE_SDK/GD32VW55x_RELEASE_V1.0.2/MSDK/cloud/alicloud/src/sdk-impl\impl_logpost.c ****     /* generate log post json data */
  40:C:/Users/stapi/OneDrive/Desktop/GD32VW553/V1_MQTT_OK/GD32VW55X_Wifi_BLE_SDK/GD32VW55x_RELEASE_V1.0.2/MSDK/cloud/alicloud/src/sdk-impl\impl_logpost.c ****     ret = HAL_Snprintf(logbuf, LOG_PUBLISH_MSG_MAXLEN, THING_LOG_POST_PARAMS, msgid, (uint32_t)HAL_
  41:C:/Users/stapi/OneDrive/Desktop/GD32VW553/V1_MQTT_OK/GD32VW55X_Wifi_BLE_SDK/GD32VW55x_RELEASE_V1.0.2/MSDK/cloud/alicloud/src/sdk-impl\impl_logpost.c ****     if (ret < 0) {
  42:C:/Users/stapi/OneDrive/Desktop/GD32VW553/V1_MQTT_OK/GD32VW55X_Wifi_BLE_SDK/GD32VW55x_RELEASE_V1.0.2/MSDK/cloud/alicloud/src/sdk-impl\impl_logpost.c ****         IMPL_LOGPOST_FREE(logbuf);
  43:C:/Users/stapi/OneDrive/Desktop/GD32VW553/V1_MQTT_OK/GD32VW55X_Wifi_BLE_SDK/GD32VW55x_RELEASE_V1.0.2/MSDK/cloud/alicloud/src/sdk-impl\impl_logpost.c ****         return FAIL_RETURN;
  44:C:/Users/stapi/OneDrive/Desktop/GD32VW553/V1_MQTT_OK/GD32VW55X_Wifi_BLE_SDK/GD32VW55x_RELEASE_V1.0.2/MSDK/cloud/alicloud/src/sdk-impl\impl_logpost.c ****     }
  45:C:/Users/stapi/OneDrive/Desktop/GD32VW553/V1_MQTT_OK/GD32VW55X_Wifi_BLE_SDK/GD32VW55x_RELEASE_V1.0.2/MSDK/cloud/alicloud/src/sdk-impl\impl_logpost.c **** 
  46:C:/Users/stapi/OneDrive/Desktop/GD32VW553/V1_MQTT_OK/GD32VW55X_Wifi_BLE_SDK/GD32VW55x_RELEASE_V1.0.2/MSDK/cloud/alicloud/src/sdk-impl\impl_logpost.c ****     length = strlen(logbuf);
  47:C:/Users/stapi/OneDrive/Desktop/GD32VW553/V1_MQTT_OK/GD32VW55X_Wifi_BLE_SDK/GD32VW55x_RELEASE_V1.0.2/MSDK/cloud/alicloud/src/sdk-impl\impl_logpost.c ****     if (length >= (LOG_PUBLISH_MSG_MAXLEN - sizeof(THING_LOG_POST_PARAMS_TAIL))) {
  48:C:/Users/stapi/OneDrive/Desktop/GD32VW553/V1_MQTT_OK/GD32VW55X_Wifi_BLE_SDK/GD32VW55x_RELEASE_V1.0.2/MSDK/cloud/alicloud/src/sdk-impl\impl_logpost.c ****         strcpy(logbuf + LOG_PUBLISH_MSG_MAXLEN - sizeof(THING_LOG_POST_PARAMS_TAIL) - 3, THING_LOG_
  49:C:/Users/stapi/OneDrive/Desktop/GD32VW553/V1_MQTT_OK/GD32VW55X_Wifi_BLE_SDK/GD32VW55x_RELEASE_V1.0.2/MSDK/cloud/alicloud/src/sdk-impl\impl_logpost.c ****     } else {
  50:C:/Users/stapi/OneDrive/Desktop/GD32VW553/V1_MQTT_OK/GD32VW55X_Wifi_BLE_SDK/GD32VW55x_RELEASE_V1.0.2/MSDK/cloud/alicloud/src/sdk-impl\impl_logpost.c ****         if (strlen(logbuf) + strlen(THING_LOG_POST_PARAMS_TAIL) + 3 > LOG_PUBLISH_MSG_MAXLEN) {
  51:C:/Users/stapi/OneDrive/Desktop/GD32VW553/V1_MQTT_OK/GD32VW55X_Wifi_BLE_SDK/GD32VW55x_RELEASE_V1.0.2/MSDK/cloud/alicloud/src/sdk-impl\impl_logpost.c ****             IMPL_LOGPOST_FREE(logbuf);
  52:C:/Users/stapi/OneDrive/Desktop/GD32VW553/V1_MQTT_OK/GD32VW55X_Wifi_BLE_SDK/GD32VW55x_RELEASE_V1.0.2/MSDK/cloud/alicloud/src/sdk-impl\impl_logpost.c ****             return FAIL_RETURN;
  68              		.loc 1 52 13 is_stmt 1
  69              		.loc 1 52 20 is_stmt 0
  70 000c FD54     		li	s1,-1
  71              	.L1:
  53:C:/Users/stapi/OneDrive/Desktop/GD32VW553/V1_MQTT_OK/GD32VW55X_Wifi_BLE_SDK/GD32VW55x_RELEASE_V1.0.2/MSDK/cloud/alicloud/src/sdk-impl\impl_logpost.c ****         }else{
  54:C:/Users/stapi/OneDrive/Desktop/GD32VW553/V1_MQTT_OK/GD32VW55X_Wifi_BLE_SDK/GD32VW55x_RELEASE_V1.0.2/MSDK/cloud/alicloud/src/sdk-impl\impl_logpost.c ****             strcat(logbuf, THING_LOG_POST_PARAMS_TAIL + 3);
  55:C:/Users/stapi/OneDrive/Desktop/GD32VW553/V1_MQTT_OK/GD32VW55X_Wifi_BLE_SDK/GD32VW55x_RELEASE_V1.0.2/MSDK/cloud/alicloud/src/sdk-impl\impl_logpost.c ****         }
  56:C:/Users/stapi/OneDrive/Desktop/GD32VW553/V1_MQTT_OK/GD32VW55X_Wifi_BLE_SDK/GD32VW55x_RELEASE_V1.0.2/MSDK/cloud/alicloud/src/sdk-impl\impl_logpost.c ****     }
  57:C:/Users/stapi/OneDrive/Desktop/GD32VW553/V1_MQTT_OK/GD32VW55X_Wifi_BLE_SDK/GD32VW55x_RELEASE_V1.0.2/MSDK/cloud/alicloud/src/sdk-impl\impl_logpost.c **** 
  58:C:/Users/stapi/OneDrive/Desktop/GD32VW553/V1_MQTT_OK/GD32VW55X_Wifi_BLE_SDK/GD32VW55x_RELEASE_V1.0.2/MSDK/cloud/alicloud/src/sdk-impl\impl_logpost.c ****     ret = iotx_mc_log_post(pHandle, logbuf);
  59:C:/Users/stapi/OneDrive/Desktop/GD32VW553/V1_MQTT_OK/GD32VW55X_Wifi_BLE_SDK/GD32VW55x_RELEASE_V1.0.2/MSDK/cloud/alicloud/src/sdk-impl\impl_logpost.c ****     if (ret < 0) {
  60:C:/Users/stapi/OneDrive/Desktop/GD32VW553/V1_MQTT_OK/GD32VW55X_Wifi_BLE_SDK/GD32VW55x_RELEASE_V1.0.2/MSDK/cloud/alicloud/src/sdk-impl\impl_logpost.c ****         log_info((char *)module, "log post to cloud fail, ret = %d\n", ret);
  61:C:/Users/stapi/OneDrive/Desktop/GD32VW553/V1_MQTT_OK/GD32VW55X_Wifi_BLE_SDK/GD32VW55x_RELEASE_V1.0.2/MSDK/cloud/alicloud/src/sdk-impl\impl_logpost.c ****     }
  62:C:/Users/stapi/OneDrive/Desktop/GD32VW553/V1_MQTT_OK/GD32VW55X_Wifi_BLE_SDK/GD32VW55x_RELEASE_V1.0.2/MSDK/cloud/alicloud/src/sdk-impl\impl_logpost.c **** 
  63:C:/Users/stapi/OneDrive/Desktop/GD32VW553/V1_MQTT_OK/GD32VW55X_Wifi_BLE_SDK/GD32VW55x_RELEASE_V1.0.2/MSDK/cloud/alicloud/src/sdk-impl\impl_logpost.c ****     IMPL_LOGPOST_FREE(logbuf);
  64:C:/Users/stapi/OneDrive/Desktop/GD32VW553/V1_MQTT_OK/GD32VW55X_Wifi_BLE_SDK/GD32VW55x_RELEASE_V1.0.2/MSDK/cloud/alicloud/src/sdk-impl\impl_logpost.c ****     return ret;
  65:C:/Users/stapi/OneDrive/Desktop/GD32VW553/V1_MQTT_OK/GD32VW55X_Wifi_BLE_SDK/GD32VW55x_RELEASE_V1.0.2/MSDK/cloud/alicloud/src/sdk-impl\impl_logpost.c **** }
  72              		.loc 1 65 1
  73 000e 2685     		mv	a0,s1
  74 0010 2D61     		addi	sp,sp,224
  75              		.cfi_remember_state
  76              		.cfi_def_cfa_offset 0
  77 0012 17030000 		tail	__riscv_restore_5
  77      67000300 
  78              		.cfi_restore 20
  79              		.cfi_restore 19
  80              		.cfi_restore 18
  81              		.cfi_restore 9
  82              		.cfi_restore 8
  83              		.cfi_restore 1
  84              		.cfi_def_cfa_offset -32
  85              	.LVL3:
  86              	.L2:
  87              		.cfi_restore_state
  88 001a B289     		mv	s3,a2
  29:C:/Users/stapi/OneDrive/Desktop/GD32VW553/V1_MQTT_OK/GD32VW55X_Wifi_BLE_SDK/GD32VW55x_RELEASE_V1.0.2/MSDK/cloud/alicloud/src/sdk-impl\impl_logpost.c ****         return FAIL_RETURN;
  89              		.loc 1 29 18 discriminator 1
  90 001c 65DA     		beq	a2,zero,.L28
  91 001e 2E89     		mv	s2,a1
  29:C:/Users/stapi/OneDrive/Desktop/GD32VW553/V1_MQTT_OK/GD32VW55X_Wifi_BLE_SDK/GD32VW55x_RELEASE_V1.0.2/MSDK/cloud/alicloud/src/sdk-impl\impl_logpost.c ****         return FAIL_RETURN;
  92              		.loc 1 29 29 discriminator 2
  93 0020 F5D5     		beq	a1,zero,.L28
  94 0022 368A     		mv	s4,a3
  29:C:/Users/stapi/OneDrive/Desktop/GD32VW553/V1_MQTT_OK/GD32VW55X_Wifi_BLE_SDK/GD32VW55x_RELEASE_V1.0.2/MSDK/cloud/alicloud/src/sdk-impl\impl_logpost.c ****         return FAIL_RETURN;
  95              		.loc 1 29 39 discriminator 3
  96 0024 E5D6     		beq	a3,zero,.L28
  97 0026 AA84     		mv	s1,a0
  33:C:/Users/stapi/OneDrive/Desktop/GD32VW553/V1_MQTT_OK/GD32VW55X_Wifi_BLE_SDK/GD32VW55x_RELEASE_V1.0.2/MSDK/cloud/alicloud/src/sdk-impl\impl_logpost.c ****     if (logbuf == NULL) {
  98              		.loc 1 33 5 is_stmt 1
  33:C:/Users/stapi/OneDrive/Desktop/GD32VW553/V1_MQTT_OK/GD32VW55X_Wifi_BLE_SDK/GD32VW55x_RELEASE_V1.0.2/MSDK/cloud/alicloud/src/sdk-impl\impl_logpost.c ****     if (logbuf == NULL) {
  99              		.loc 1 33 14 is_stmt 0
 100 0028 13060010 		li	a2,256
 101              	.LVL4:
 102 002c 8145     		li	a1,0
 103              	.LVL5:
 104 002e 0145     		li	a0,0
 105              	.LVL6:
 106 0030 97000000 		call	LITE_malloc_internal
 106      E7800000 
 107              	.LVL7:
 108 0038 2A84     		mv	s0,a0
 109              	.LVL8:
  34:C:/Users/stapi/OneDrive/Desktop/GD32VW553/V1_MQTT_OK/GD32VW55X_Wifi_BLE_SDK/GD32VW55x_RELEASE_V1.0.2/MSDK/cloud/alicloud/src/sdk-impl\impl_logpost.c ****         return FAIL_RETURN;
 110              		.loc 1 34 5 is_stmt 1
  34:C:/Users/stapi/OneDrive/Desktop/GD32VW553/V1_MQTT_OK/GD32VW55X_Wifi_BLE_SDK/GD32VW55x_RELEASE_V1.0.2/MSDK/cloud/alicloud/src/sdk-impl\impl_logpost.c ****         return FAIL_RETURN;
 111              		.loc 1 34 8 is_stmt 0
 112 003a 69D9     		beq	a0,zero,.L28
  37:C:/Users/stapi/OneDrive/Desktop/GD32VW553/V1_MQTT_OK/GD32VW55X_Wifi_BLE_SDK/GD32VW55x_RELEASE_V1.0.2/MSDK/cloud/alicloud/src/sdk-impl\impl_logpost.c **** 
 113              		.loc 1 37 5 is_stmt 1
 114 003c 13060010 		li	a2,256
 115 0040 8145     		li	a1,0
 116 0042 97000000 		call	memset
 116      E7800000 
 117              	.LVL9:
  40:C:/Users/stapi/OneDrive/Desktop/GD32VW553/V1_MQTT_OK/GD32VW55X_Wifi_BLE_SDK/GD32VW55x_RELEASE_V1.0.2/MSDK/cloud/alicloud/src/sdk-impl\impl_logpost.c ****     if (ret < 0) {
 118              		.loc 1 40 5
  40:C:/Users/stapi/OneDrive/Desktop/GD32VW553/V1_MQTT_OK/GD32VW55X_Wifi_BLE_SDK/GD32VW55x_RELEASE_V1.0.2/MSDK/cloud/alicloud/src/sdk-impl\impl_logpost.c ****     if (ret < 0) {
 119              		.loc 1 40 96 is_stmt 0
 120 004a 97000000 		call	HAL_UTC_Get
 120      E7800000 
 121              	.LVL10:
  40:C:/Users/stapi/OneDrive/Desktop/GD32VW553/V1_MQTT_OK/GD32VW55X_Wifi_BLE_SDK/GD32VW55x_RELEASE_V1.0.2/MSDK/cloud/alicloud/src/sdk-impl\impl_logpost.c ****     if (ret < 0) {
 122              		.loc 1 40 11
 123 0052 37060000 		lui	a2,%hi(.LANCHOR0)
  40:C:/Users/stapi/OneDrive/Desktop/GD32VW553/V1_MQTT_OK/GD32VW55X_Wifi_BLE_SDK/GD32VW55x_RELEASE_V1.0.2/MSDK/cloud/alicloud/src/sdk-impl\impl_logpost.c ****     if (ret < 0) {
 124              		.loc 1 40 96
 125 0056 2A87     		mv	a4,a0
  40:C:/Users/stapi/OneDrive/Desktop/GD32VW553/V1_MQTT_OK/GD32VW55X_Wifi_BLE_SDK/GD32VW55x_RELEASE_V1.0.2/MSDK/cloud/alicloud/src/sdk-impl\impl_logpost.c ****     if (ret < 0) {
 126              		.loc 1 40 11
 127 0058 D288     		mv	a7,s4
 128 005a 4E88     		mv	a6,s3
 129 005c CA87     		mv	a5,s2
 130 005e 9306B007 		li	a3,123
 131 0062 13060600 		addi	a2,a2,%lo(.LANCHOR0)
 132 0066 9305F00F 		li	a1,255
 133 006a 2285     		mv	a0,s0
 134 006c 97000000 		call	HAL_Snprintf
 134      E7800000 
 135              	.LVL11:
  41:C:/Users/stapi/OneDrive/Desktop/GD32VW553/V1_MQTT_OK/GD32VW55X_Wifi_BLE_SDK/GD32VW55x_RELEASE_V1.0.2/MSDK/cloud/alicloud/src/sdk-impl\impl_logpost.c ****         IMPL_LOGPOST_FREE(logbuf);
 136              		.loc 1 41 5 is_stmt 1
  41:C:/Users/stapi/OneDrive/Desktop/GD32VW553/V1_MQTT_OK/GD32VW55X_Wifi_BLE_SDK/GD32VW55x_RELEASE_V1.0.2/MSDK/cloud/alicloud/src/sdk-impl\impl_logpost.c ****         IMPL_LOGPOST_FREE(logbuf);
 137              		.loc 1 41 8 is_stmt 0
 138 0074 63580500 		bge	a0,zero,.L5
 139              	.LVL12:
 140              	.L27:
  51:C:/Users/stapi/OneDrive/Desktop/GD32VW553/V1_MQTT_OK/GD32VW55X_Wifi_BLE_SDK/GD32VW55x_RELEASE_V1.0.2/MSDK/cloud/alicloud/src/sdk-impl\impl_logpost.c ****             return FAIL_RETURN;
 141              		.loc 1 51 13 is_stmt 1
 142 0078 2285     		mv	a0,s0
 143 007a 97000000 		call	LITE_free_internal
 143      E7800000 
 144              	.LVL13:
 145 0082 69B7     		j	.L28
 146              	.LVL14:
 147              	.L5:
  46:C:/Users/stapi/OneDrive/Desktop/GD32VW553/V1_MQTT_OK/GD32VW55X_Wifi_BLE_SDK/GD32VW55x_RELEASE_V1.0.2/MSDK/cloud/alicloud/src/sdk-impl\impl_logpost.c ****     if (length >= (LOG_PUBLISH_MSG_MAXLEN - sizeof(THING_LOG_POST_PARAMS_TAIL))) {
 148              		.loc 1 46 5
  46:C:/Users/stapi/OneDrive/Desktop/GD32VW553/V1_MQTT_OK/GD32VW55X_Wifi_BLE_SDK/GD32VW55x_RELEASE_V1.0.2/MSDK/cloud/alicloud/src/sdk-impl\impl_logpost.c ****     if (length >= (LOG_PUBLISH_MSG_MAXLEN - sizeof(THING_LOG_POST_PARAMS_TAIL))) {
 149              		.loc 1 46 14 is_stmt 0
 150 0084 2285     		mv	a0,s0
 151              	.LVL15:
 152 0086 97000000 		call	strlen
 152      E7800000 
 153              	.LVL16:
  47:C:/Users/stapi/OneDrive/Desktop/GD32VW553/V1_MQTT_OK/GD32VW55X_Wifi_BLE_SDK/GD32VW55x_RELEASE_V1.0.2/MSDK/cloud/alicloud/src/sdk-impl\impl_logpost.c ****         strcpy(logbuf + LOG_PUBLISH_MSG_MAXLEN - sizeof(THING_LOG_POST_PARAMS_TAIL) - 3, THING_LOG_
 154              		.loc 1 47 5 is_stmt 1
  47:C:/Users/stapi/OneDrive/Desktop/GD32VW553/V1_MQTT_OK/GD32VW55X_Wifi_BLE_SDK/GD32VW55x_RELEASE_V1.0.2/MSDK/cloud/alicloud/src/sdk-impl\impl_logpost.c ****         strcpy(logbuf + LOG_PUBLISH_MSG_MAXLEN - sizeof(THING_LOG_POST_PARAMS_TAIL) - 3, THING_LOG_
 155              		.loc 1 47 8 is_stmt 0
 156 008e 9307C00D 		li	a5,220
 157 0092 63F5A70E 		bleu	a0,a5,.L6
  48:C:/Users/stapi/OneDrive/Desktop/GD32VW553/V1_MQTT_OK/GD32VW55X_Wifi_BLE_SDK/GD32VW55x_RELEASE_V1.0.2/MSDK/cloud/alicloud/src/sdk-impl\impl_logpost.c ****     } else {
 158              		.loc 1 48 9 is_stmt 1
 159 0096 B7050000 		lui	a1,%hi(.LANCHOR1)
 160 009a 93850500 		addi	a1,a1,%lo(.LANCHOR1)
 161 009e 1305A40D 		addi	a0,s0,218
 162              	.LVL17:
 163 00a2 97000000 		call	strcpy
 163      E7800000 
 164              	.LVL18:
 165              	.L7:
  58:C:/Users/stapi/OneDrive/Desktop/GD32VW553/V1_MQTT_OK/GD32VW55X_Wifi_BLE_SDK/GD32VW55x_RELEASE_V1.0.2/MSDK/cloud/alicloud/src/sdk-impl\impl_logpost.c ****     if (ret < 0) {
 166              		.loc 1 58 5
 167              	.LBB4:
 168              	.LBB5:
  66:C:/Users/stapi/OneDrive/Desktop/GD32VW553/V1_MQTT_OK/GD32VW55X_Wifi_BLE_SDK/GD32VW55x_RELEASE_V1.0.2/MSDK/cloud/alicloud/src/sdk-impl\impl_logpost.c **** 
  67:C:/Users/stapi/OneDrive/Desktop/GD32VW553/V1_MQTT_OK/GD32VW55X_Wifi_BLE_SDK/GD32VW55x_RELEASE_V1.0.2/MSDK/cloud/alicloud/src/sdk-impl\impl_logpost.c **** static int iotx_mc_log_post(void *pclient, char *payload)
  68:C:/Users/stapi/OneDrive/Desktop/GD32VW553/V1_MQTT_OK/GD32VW55X_Wifi_BLE_SDK/GD32VW55x_RELEASE_V1.0.2/MSDK/cloud/alicloud/src/sdk-impl\impl_logpost.c **** {
  69:C:/Users/stapi/OneDrive/Desktop/GD32VW553/V1_MQTT_OK/GD32VW55X_Wifi_BLE_SDK/GD32VW55x_RELEASE_V1.0.2/MSDK/cloud/alicloud/src/sdk-impl\impl_logpost.c ****     int ret;
 169              		.loc 1 69 5
  70:C:/Users/stapi/OneDrive/Desktop/GD32VW553/V1_MQTT_OK/GD32VW55X_Wifi_BLE_SDK/GD32VW55x_RELEASE_V1.0.2/MSDK/cloud/alicloud/src/sdk-impl\impl_logpost.c ****     char topic_name[IOTX_URI_MAX_LEN + 1] = {0};
 170              		.loc 1 70 5
 171              		.loc 1 70 10 is_stmt 0
 172 00aa 13064008 		li	a2,132
 173 00ae 8145     		li	a1,0
 174 00b0 E808     		addi	a0,sp,92
 175 00b2 82CC     		sw	zero,88(sp)
 176 00b4 97000000 		call	memset
 176      E7800000 
 177              	.LVL19:
  71:C:/Users/stapi/OneDrive/Desktop/GD32VW553/V1_MQTT_OK/GD32VW55X_Wifi_BLE_SDK/GD32VW55x_RELEASE_V1.0.2/MSDK/cloud/alicloud/src/sdk-impl\impl_logpost.c **** 
  72:C:/Users/stapi/OneDrive/Desktop/GD32VW553/V1_MQTT_OK/GD32VW55X_Wifi_BLE_SDK/GD32VW55x_RELEASE_V1.0.2/MSDK/cloud/alicloud/src/sdk-impl\impl_logpost.c ****     char product_key[PRODUCT_KEY_LEN + 1] = {0};
 178              		.loc 1 72 5 is_stmt 1
  73:C:/Users/stapi/OneDrive/Desktop/GD32VW553/V1_MQTT_OK/GD32VW55X_Wifi_BLE_SDK/GD32VW55x_RELEASE_V1.0.2/MSDK/cloud/alicloud/src/sdk-impl\impl_logpost.c ****     char device_name[DEVICE_NAME_LEN + 1] = {0};
 179              		.loc 1 73 10 is_stmt 0
 180 00bc 7546     		li	a2,29
 181 00be 8145     		li	a1,0
 182 00c0 2818     		addi	a0,sp,56
  72:C:/Users/stapi/OneDrive/Desktop/GD32VW553/V1_MQTT_OK/GD32VW55X_Wifi_BLE_SDK/GD32VW55x_RELEASE_V1.0.2/MSDK/cloud/alicloud/src/sdk-impl\impl_logpost.c ****     char device_name[DEVICE_NAME_LEN + 1] = {0};
 183              		.loc 1 72 10
 184 00c2 02CE     		sw	zero,28(sp)
 185 00c4 02D0     		sw	zero,32(sp)
 186 00c6 02D2     		sw	zero,36(sp)
 187 00c8 02D4     		sw	zero,40(sp)
 188 00ca 02D6     		sw	zero,44(sp)
 189 00cc 23080102 		sb	zero,48(sp)
 190              		.loc 1 73 5 is_stmt 1
 191              		.loc 1 73 10 is_stmt 0
 192 00d0 02DA     		sw	zero,52(sp)
 193 00d2 97000000 		call	memset
 193      E7800000 
 194              	.LVL20:
  74:C:/Users/stapi/OneDrive/Desktop/GD32VW553/V1_MQTT_OK/GD32VW55X_Wifi_BLE_SDK/GD32VW55x_RELEASE_V1.0.2/MSDK/cloud/alicloud/src/sdk-impl\impl_logpost.c ****     HAL_GetProductKey(product_key);
 195              		.loc 1 74 5 is_stmt 1
 196 00da 6808     		addi	a0,sp,28
 197 00dc 97000000 		call	HAL_GetProductKey
 197      E7800000 
 198              	.LVL21:
  75:C:/Users/stapi/OneDrive/Desktop/GD32VW553/V1_MQTT_OK/GD32VW55X_Wifi_BLE_SDK/GD32VW55x_RELEASE_V1.0.2/MSDK/cloud/alicloud/src/sdk-impl\impl_logpost.c ****     HAL_GetDeviceName(device_name);
 199              		.loc 1 75 5
 200 00e4 4818     		addi	a0,sp,52
 201 00e6 97000000 		call	HAL_GetDeviceName
 201      E7800000 
 202              	.LVL22:
  76:C:/Users/stapi/OneDrive/Desktop/GD32VW553/V1_MQTT_OK/GD32VW55X_Wifi_BLE_SDK/GD32VW55x_RELEASE_V1.0.2/MSDK/cloud/alicloud/src/sdk-impl\impl_logpost.c **** 
  77:C:/Users/stapi/OneDrive/Desktop/GD32VW553/V1_MQTT_OK/GD32VW55X_Wifi_BLE_SDK/GD32VW55x_RELEASE_V1.0.2/MSDK/cloud/alicloud/src/sdk-impl\impl_logpost.c ****     iotx_mqtt_topic_info_t topic_info;
 203              		.loc 1 77 5
  78:C:/Users/stapi/OneDrive/Desktop/GD32VW553/V1_MQTT_OK/GD32VW55X_Wifi_BLE_SDK/GD32VW55x_RELEASE_V1.0.2/MSDK/cloud/alicloud/src/sdk-impl\impl_logpost.c **** 
  79:C:/Users/stapi/OneDrive/Desktop/GD32VW553/V1_MQTT_OK/GD32VW55X_Wifi_BLE_SDK/GD32VW55x_RELEASE_V1.0.2/MSDK/cloud/alicloud/src/sdk-impl\impl_logpost.c **** 
  80:C:/Users/stapi/OneDrive/Desktop/GD32VW553/V1_MQTT_OK/GD32VW55X_Wifi_BLE_SDK/GD32VW55x_RELEASE_V1.0.2/MSDK/cloud/alicloud/src/sdk-impl\impl_logpost.c ****     if (!payload || !pclient) {
 204              		.loc 1 80 5
  81:C:/Users/stapi/OneDrive/Desktop/GD32VW553/V1_MQTT_OK/GD32VW55X_Wifi_BLE_SDK/GD32VW55x_RELEASE_V1.0.2/MSDK/cloud/alicloud/src/sdk-impl\impl_logpost.c ****         return FAIL_RETURN;
  82:C:/Users/stapi/OneDrive/Desktop/GD32VW553/V1_MQTT_OK/GD32VW55X_Wifi_BLE_SDK/GD32VW55x_RELEASE_V1.0.2/MSDK/cloud/alicloud/src/sdk-impl\impl_logpost.c ****     }
  83:C:/Users/stapi/OneDrive/Desktop/GD32VW553/V1_MQTT_OK/GD32VW55X_Wifi_BLE_SDK/GD32VW55x_RELEASE_V1.0.2/MSDK/cloud/alicloud/src/sdk-impl\impl_logpost.c **** 
  84:C:/Users/stapi/OneDrive/Desktop/GD32VW553/V1_MQTT_OK/GD32VW55X_Wifi_BLE_SDK/GD32VW55x_RELEASE_V1.0.2/MSDK/cloud/alicloud/src/sdk-impl\impl_logpost.c ****     /* log post topic name */
  85:C:/Users/stapi/OneDrive/Desktop/GD32VW553/V1_MQTT_OK/GD32VW55X_Wifi_BLE_SDK/GD32VW55x_RELEASE_V1.0.2/MSDK/cloud/alicloud/src/sdk-impl\impl_logpost.c ****     ret = HAL_Snprintf(topic_name,
 205              		.loc 1 85 5
 206              		.loc 1 85 11 is_stmt 0
 207 00ee 37060000 		lui	a2,%hi(.LC0)
 208 00f2 5818     		addi	a4,sp,52
 209 00f4 7408     		addi	a3,sp,28
 210 00f6 13060600 		addi	a2,a2,%lo(.LC0)
 211 00fa 93057008 		li	a1,135
 212 00fe A808     		addi	a0,sp,88
 213 0100 97000000 		call	HAL_Snprintf
 213      E7800000 
 214              	.LVL23:
  86:C:/Users/stapi/OneDrive/Desktop/GD32VW553/V1_MQTT_OK/GD32VW55X_Wifi_BLE_SDK/GD32VW55x_RELEASE_V1.0.2/MSDK/cloud/alicloud/src/sdk-impl\impl_logpost.c ****                        IOTX_URI_MAX_LEN,
  87:C:/Users/stapi/OneDrive/Desktop/GD32VW553/V1_MQTT_OK/GD32VW55X_Wifi_BLE_SDK/GD32VW55x_RELEASE_V1.0.2/MSDK/cloud/alicloud/src/sdk-impl\impl_logpost.c ****                        "/sys/%s/%s/thing/log/post",
  88:C:/Users/stapi/OneDrive/Desktop/GD32VW553/V1_MQTT_OK/GD32VW55X_Wifi_BLE_SDK/GD32VW55x_RELEASE_V1.0.2/MSDK/cloud/alicloud/src/sdk-impl\impl_logpost.c ****                        product_key,
  89:C:/Users/stapi/OneDrive/Desktop/GD32VW553/V1_MQTT_OK/GD32VW55X_Wifi_BLE_SDK/GD32VW55x_RELEASE_V1.0.2/MSDK/cloud/alicloud/src/sdk-impl\impl_logpost.c ****                        device_name);
  90:C:/Users/stapi/OneDrive/Desktop/GD32VW553/V1_MQTT_OK/GD32VW55X_Wifi_BLE_SDK/GD32VW55x_RELEASE_V1.0.2/MSDK/cloud/alicloud/src/sdk-impl\impl_logpost.c ****     if (ret <= 0) {
 215              		.loc 1 90 5 is_stmt 1
 216              		.loc 1 90 8 is_stmt 0
 217 0108 6346A008 		bgt	a0,zero,.L9
  91:C:/Users/stapi/OneDrive/Desktop/GD32VW553/V1_MQTT_OK/GD32VW55X_Wifi_BLE_SDK/GD32VW55x_RELEASE_V1.0.2/MSDK/cloud/alicloud/src/sdk-impl\impl_logpost.c ****         log_err("logpost", "log topic generate err");
 218              		.loc 1 91 9 is_stmt 1
 219              		.loc 1 91 9
 220 010c 37050000 		lui	a0,%hi(.LC1)
 221              	.LVL24:
 222 0110 13050500 		addi	a0,a0,%lo(.LC1)
 223 0114 97000000 		call	HAL_Printf
 223      E7800000 
 224              	.LVL25:
 225              		.loc 1 91 9
 226 011c 37050000 		lui	a0,%hi(.LC2)
 227 0120 13050500 		addi	a0,a0,%lo(.LC2)
 228              	.LVL26:
 229              	.L26:
  92:C:/Users/stapi/OneDrive/Desktop/GD32VW553/V1_MQTT_OK/GD32VW55X_Wifi_BLE_SDK/GD32VW55x_RELEASE_V1.0.2/MSDK/cloud/alicloud/src/sdk-impl\impl_logpost.c ****         return FAIL_RETURN;
  93:C:/Users/stapi/OneDrive/Desktop/GD32VW553/V1_MQTT_OK/GD32VW55X_Wifi_BLE_SDK/GD32VW55x_RELEASE_V1.0.2/MSDK/cloud/alicloud/src/sdk-impl\impl_logpost.c ****     }
  94:C:/Users/stapi/OneDrive/Desktop/GD32VW553/V1_MQTT_OK/GD32VW55X_Wifi_BLE_SDK/GD32VW55x_RELEASE_V1.0.2/MSDK/cloud/alicloud/src/sdk-impl\impl_logpost.c **** 
  95:C:/Users/stapi/OneDrive/Desktop/GD32VW553/V1_MQTT_OK/GD32VW55X_Wifi_BLE_SDK/GD32VW55x_RELEASE_V1.0.2/MSDK/cloud/alicloud/src/sdk-impl\impl_logpost.c ****     /* print log post json data */
  96:C:/Users/stapi/OneDrive/Desktop/GD32VW553/V1_MQTT_OK/GD32VW55X_Wifi_BLE_SDK/GD32VW55x_RELEASE_V1.0.2/MSDK/cloud/alicloud/src/sdk-impl\impl_logpost.c ****     log_debug("logpost", "log post data: %s", payload);
  97:C:/Users/stapi/OneDrive/Desktop/GD32VW553/V1_MQTT_OK/GD32VW55X_Wifi_BLE_SDK/GD32VW55x_RELEASE_V1.0.2/MSDK/cloud/alicloud/src/sdk-impl\impl_logpost.c **** 
  98:C:/Users/stapi/OneDrive/Desktop/GD32VW553/V1_MQTT_OK/GD32VW55X_Wifi_BLE_SDK/GD32VW55x_RELEASE_V1.0.2/MSDK/cloud/alicloud/src/sdk-impl\impl_logpost.c ****     topic_info.qos = IOTX_MQTT_QOS0;
  99:C:/Users/stapi/OneDrive/Desktop/GD32VW553/V1_MQTT_OK/GD32VW55X_Wifi_BLE_SDK/GD32VW55x_RELEASE_V1.0.2/MSDK/cloud/alicloud/src/sdk-impl\impl_logpost.c ****     topic_info.payload = (void *)payload;
 100:C:/Users/stapi/OneDrive/Desktop/GD32VW553/V1_MQTT_OK/GD32VW55X_Wifi_BLE_SDK/GD32VW55x_RELEASE_V1.0.2/MSDK/cloud/alicloud/src/sdk-impl\impl_logpost.c ****     topic_info.payload_len = strlen(payload);
 101:C:/Users/stapi/OneDrive/Desktop/GD32VW553/V1_MQTT_OK/GD32VW55X_Wifi_BLE_SDK/GD32VW55x_RELEASE_V1.0.2/MSDK/cloud/alicloud/src/sdk-impl\impl_logpost.c ****     topic_info.retain = 0;
 102:C:/Users/stapi/OneDrive/Desktop/GD32VW553/V1_MQTT_OK/GD32VW55X_Wifi_BLE_SDK/GD32VW55x_RELEASE_V1.0.2/MSDK/cloud/alicloud/src/sdk-impl\impl_logpost.c ****     topic_info.dup = 0;
 103:C:/Users/stapi/OneDrive/Desktop/GD32VW553/V1_MQTT_OK/GD32VW55X_Wifi_BLE_SDK/GD32VW55x_RELEASE_V1.0.2/MSDK/cloud/alicloud/src/sdk-impl\impl_logpost.c **** 
 104:C:/Users/stapi/OneDrive/Desktop/GD32VW553/V1_MQTT_OK/GD32VW55X_Wifi_BLE_SDK/GD32VW55x_RELEASE_V1.0.2/MSDK/cloud/alicloud/src/sdk-impl\impl_logpost.c ****     /* publish message */
 105:C:/Users/stapi/OneDrive/Desktop/GD32VW553/V1_MQTT_OK/GD32VW55X_Wifi_BLE_SDK/GD32VW55x_RELEASE_V1.0.2/MSDK/cloud/alicloud/src/sdk-impl\impl_logpost.c ****     ret = iotx_mc_publish((iotx_mc_client_t *)pclient, topic_name, &topic_info);
 106:C:/Users/stapi/OneDrive/Desktop/GD32VW553/V1_MQTT_OK/GD32VW55X_Wifi_BLE_SDK/GD32VW55x_RELEASE_V1.0.2/MSDK/cloud/alicloud/src/sdk-impl\impl_logpost.c ****     if (ret < 0) {
 107:C:/Users/stapi/OneDrive/Desktop/GD32VW553/V1_MQTT_OK/GD32VW55X_Wifi_BLE_SDK/GD32VW55x_RELEASE_V1.0.2/MSDK/cloud/alicloud/src/sdk-impl\impl_logpost.c ****         log_err("logpost", "publish failed");
 230              		.loc 1 107 9 is_stmt 0
 231 0124 97000000 		call	HAL_Printf
 231      E7800000 
 232              	.LVL27:
 233              		.loc 1 107 9 is_stmt 1
 234 012c 37050000 		lui	a0,%hi(.LC3)
 235 0130 13050500 		addi	a0,a0,%lo(.LC3)
 236 0134 97000000 		call	HAL_Printf
 236      E7800000 
 237              	.LVL28:
 238              		.loc 1 107 9
 108:C:/Users/stapi/OneDrive/Desktop/GD32VW553/V1_MQTT_OK/GD32VW55X_Wifi_BLE_SDK/GD32VW55x_RELEASE_V1.0.2/MSDK/cloud/alicloud/src/sdk-impl\impl_logpost.c ****         return FAIL_RETURN;
 239              		.loc 1 108 9
 240              	.LBE5:
 241              	.LBE4:
  59:C:/Users/stapi/OneDrive/Desktop/GD32VW553/V1_MQTT_OK/GD32VW55X_Wifi_BLE_SDK/GD32VW55x_RELEASE_V1.0.2/MSDK/cloud/alicloud/src/sdk-impl\impl_logpost.c ****         log_info((char *)module, "log post to cloud fail, ret = %d\n", ret);
 242              		.loc 1 59 5
  60:C:/Users/stapi/OneDrive/Desktop/GD32VW553/V1_MQTT_OK/GD32VW55X_Wifi_BLE_SDK/GD32VW55x_RELEASE_V1.0.2/MSDK/cloud/alicloud/src/sdk-impl\impl_logpost.c ****     }
 243              		.loc 1 60 9
  60:C:/Users/stapi/OneDrive/Desktop/GD32VW553/V1_MQTT_OK/GD32VW55X_Wifi_BLE_SDK/GD32VW55x_RELEASE_V1.0.2/MSDK/cloud/alicloud/src/sdk-impl\impl_logpost.c ****     }
 244              		.loc 1 60 9
 245 013c 37050000 		lui	a0,%hi(.LC7)
 246 0140 13050500 		addi	a0,a0,%lo(.LC7)
 247 0144 97000000 		call	HAL_Printf
 247      E7800000 
 248              	.LVL29:
  60:C:/Users/stapi/OneDrive/Desktop/GD32VW553/V1_MQTT_OK/GD32VW55X_Wifi_BLE_SDK/GD32VW55x_RELEASE_V1.0.2/MSDK/cloud/alicloud/src/sdk-impl\impl_logpost.c ****     }
 249              		.loc 1 60 9
 250 014c 37050000 		lui	a0,%hi(.LC8)
 251 0150 FD55     		li	a1,-1
 252 0152 13050500 		addi	a0,a0,%lo(.LC8)
 253 0156 97000000 		call	HAL_Printf
 253      E7800000 
 254              	.LVL30:
  60:C:/Users/stapi/OneDrive/Desktop/GD32VW553/V1_MQTT_OK/GD32VW55X_Wifi_BLE_SDK/GD32VW55x_RELEASE_V1.0.2/MSDK/cloud/alicloud/src/sdk-impl\impl_logpost.c ****     }
 255              		.loc 1 60 9
 256 015e 37050000 		lui	a0,%hi(.LC3)
 257 0162 13050500 		addi	a0,a0,%lo(.LC3)
 258 0166 97000000 		call	HAL_Printf
 258      E7800000 
 259              	.LVL31:
 260 016e FD54     		li	s1,-1
 261              	.LVL32:
 262              	.L12:
  60:C:/Users/stapi/OneDrive/Desktop/GD32VW553/V1_MQTT_OK/GD32VW55X_Wifi_BLE_SDK/GD32VW55x_RELEASE_V1.0.2/MSDK/cloud/alicloud/src/sdk-impl\impl_logpost.c ****     }
 263              		.loc 1 60 9 discriminator 1
  63:C:/Users/stapi/OneDrive/Desktop/GD32VW553/V1_MQTT_OK/GD32VW55X_Wifi_BLE_SDK/GD32VW55x_RELEASE_V1.0.2/MSDK/cloud/alicloud/src/sdk-impl\impl_logpost.c ****     return ret;
 264              		.loc 1 63 5 discriminator 1
 265 0170 2285     		mv	a0,s0
 266 0172 97000000 		call	LITE_free_internal
 266      E7800000 
 267              	.LVL33:
  64:C:/Users/stapi/OneDrive/Desktop/GD32VW553/V1_MQTT_OK/GD32VW55X_Wifi_BLE_SDK/GD32VW55x_RELEASE_V1.0.2/MSDK/cloud/alicloud/src/sdk-impl\impl_logpost.c **** }
 268              		.loc 1 64 5 discriminator 1
  64:C:/Users/stapi/OneDrive/Desktop/GD32VW553/V1_MQTT_OK/GD32VW55X_Wifi_BLE_SDK/GD32VW55x_RELEASE_V1.0.2/MSDK/cloud/alicloud/src/sdk-impl\impl_logpost.c **** }
 269              		.loc 1 64 12 is_stmt 0 discriminator 1
 270 017a 51BD     		j	.L1
 271              	.LVL34:
 272              	.L6:
  50:C:/Users/stapi/OneDrive/Desktop/GD32VW553/V1_MQTT_OK/GD32VW55X_Wifi_BLE_SDK/GD32VW55x_RELEASE_V1.0.2/MSDK/cloud/alicloud/src/sdk-impl\impl_logpost.c ****             IMPL_LOGPOST_FREE(logbuf);
 273              		.loc 1 50 9 is_stmt 1
  50:C:/Users/stapi/OneDrive/Desktop/GD32VW553/V1_MQTT_OK/GD32VW55X_Wifi_BLE_SDK/GD32VW55x_RELEASE_V1.0.2/MSDK/cloud/alicloud/src/sdk-impl\impl_logpost.c ****             IMPL_LOGPOST_FREE(logbuf);
 274              		.loc 1 50 12 is_stmt 0
 275 017c E30EF5EE 		beq	a0,a5,.L27
  54:C:/Users/stapi/OneDrive/Desktop/GD32VW553/V1_MQTT_OK/GD32VW55X_Wifi_BLE_SDK/GD32VW55x_RELEASE_V1.0.2/MSDK/cloud/alicloud/src/sdk-impl\impl_logpost.c ****         }
 276              		.loc 1 54 13 is_stmt 1
 277 0180 B7050000 		lui	a1,%hi(.LANCHOR1+3)
 278 0184 93853500 		addi	a1,a1,%lo(.LANCHOR1+3)
 279 0188 2285     		mv	a0,s0
 280              	.LVL35:
 281 018a 97000000 		call	strcat
 281      E7800000 
 282              	.LVL36:
 283 0192 21BF     		j	.L7
 284              	.LVL37:
 285              	.L9:
 286              	.LBB7:
 287              	.LBB6:
  96:C:/Users/stapi/OneDrive/Desktop/GD32VW553/V1_MQTT_OK/GD32VW55X_Wifi_BLE_SDK/GD32VW55x_RELEASE_V1.0.2/MSDK/cloud/alicloud/src/sdk-impl\impl_logpost.c **** 
 288              		.loc 1 96 5
 289 0194 37070000 		lui	a4,%hi(.LC4)
 290 0198 B7050000 		lui	a1,%hi(.LANCHOR2)
 291 019c 37050000 		lui	a0,%hi(.LC5)
 292              	.LVL38:
 293 01a0 A287     		mv	a5,s0
 294 01a2 13070700 		addi	a4,a4,%lo(.LC4)
 295 01a6 9546     		li	a3,5
 296 01a8 13060006 		li	a2,96
 297 01ac 93850500 		addi	a1,a1,%lo(.LANCHOR2)
 298 01b0 13050500 		addi	a0,a0,%lo(.LC5)
 299 01b4 97000000 		call	LITE_syslog
 299      E7800000 
 300              	.LVL39:
  98:C:/Users/stapi/OneDrive/Desktop/GD32VW553/V1_MQTT_OK/GD32VW55X_Wifi_BLE_SDK/GD32VW55x_RELEASE_V1.0.2/MSDK/cloud/alicloud/src/sdk-impl\impl_logpost.c ****     topic_info.payload = (void *)payload;
 301              		.loc 1 98 5
 100:C:/Users/stapi/OneDrive/Desktop/GD32VW553/V1_MQTT_OK/GD32VW55X_Wifi_BLE_SDK/GD32VW55x_RELEASE_V1.0.2/MSDK/cloud/alicloud/src/sdk-impl\impl_logpost.c ****     topic_info.retain = 0;
 302              		.loc 1 100 30 is_stmt 0
 303 01bc 2285     		mv	a0,s0
  98:C:/Users/stapi/OneDrive/Desktop/GD32VW553/V1_MQTT_OK/GD32VW55X_Wifi_BLE_SDK/GD32VW55x_RELEASE_V1.0.2/MSDK/cloud/alicloud/src/sdk-impl\impl_logpost.c ****     topic_info.payload = (void *)payload;
 304              		.loc 1 98 20
 305 01be 23050100 		sb	zero,10(sp)
  99:C:/Users/stapi/OneDrive/Desktop/GD32VW553/V1_MQTT_OK/GD32VW55X_Wifi_BLE_SDK/GD32VW55x_RELEASE_V1.0.2/MSDK/cloud/alicloud/src/sdk-impl\impl_logpost.c ****     topic_info.payload_len = strlen(payload);
 306              		.loc 1 99 5 is_stmt 1
  99:C:/Users/stapi/OneDrive/Desktop/GD32VW553/V1_MQTT_OK/GD32VW55X_Wifi_BLE_SDK/GD32VW55x_RELEASE_V1.0.2/MSDK/cloud/alicloud/src/sdk-impl\impl_logpost.c ****     topic_info.payload_len = strlen(payload);
 307              		.loc 1 99 24 is_stmt 0
 308 01c2 22CC     		sw	s0,24(sp)
 100:C:/Users/stapi/OneDrive/Desktop/GD32VW553/V1_MQTT_OK/GD32VW55X_Wifi_BLE_SDK/GD32VW55x_RELEASE_V1.0.2/MSDK/cloud/alicloud/src/sdk-impl\impl_logpost.c ****     topic_info.retain = 0;
 309              		.loc 1 100 5 is_stmt 1
 100:C:/Users/stapi/OneDrive/Desktop/GD32VW553/V1_MQTT_OK/GD32VW55X_Wifi_BLE_SDK/GD32VW55x_RELEASE_V1.0.2/MSDK/cloud/alicloud/src/sdk-impl\impl_logpost.c ****     topic_info.retain = 0;
 310              		.loc 1 100 30 is_stmt 0
 311 01c4 97000000 		call	strlen
 311      E7800000 
 312              	.LVL40:
 100:C:/Users/stapi/OneDrive/Desktop/GD32VW553/V1_MQTT_OK/GD32VW55X_Wifi_BLE_SDK/GD32VW55x_RELEASE_V1.0.2/MSDK/cloud/alicloud/src/sdk-impl\impl_logpost.c ****     topic_info.retain = 0;
 313              		.loc 1 100 28
 314 01cc 2AC8     		sw	a0,16(sp)
 101:C:/Users/stapi/OneDrive/Desktop/GD32VW553/V1_MQTT_OK/GD32VW55X_Wifi_BLE_SDK/GD32VW55x_RELEASE_V1.0.2/MSDK/cloud/alicloud/src/sdk-impl\impl_logpost.c ****     topic_info.dup = 0;
 315              		.loc 1 101 5 is_stmt 1
 105:C:/Users/stapi/OneDrive/Desktop/GD32VW553/V1_MQTT_OK/GD32VW55X_Wifi_BLE_SDK/GD32VW55x_RELEASE_V1.0.2/MSDK/cloud/alicloud/src/sdk-impl\impl_logpost.c ****     if (ret < 0) {
 316              		.loc 1 105 11 is_stmt 0
 317 01ce 3000     		addi	a2,sp,8
 318 01d0 2685     		mv	a0,s1
 319 01d2 AC08     		addi	a1,sp,88
 101:C:/Users/stapi/OneDrive/Desktop/GD32VW553/V1_MQTT_OK/GD32VW55X_Wifi_BLE_SDK/GD32VW55x_RELEASE_V1.0.2/MSDK/cloud/alicloud/src/sdk-impl\impl_logpost.c ****     topic_info.dup = 0;
 320              		.loc 1 101 23
 321 01d4 23060100 		sb	zero,12(sp)
 102:C:/Users/stapi/OneDrive/Desktop/GD32VW553/V1_MQTT_OK/GD32VW55X_Wifi_BLE_SDK/GD32VW55x_RELEASE_V1.0.2/MSDK/cloud/alicloud/src/sdk-impl\impl_logpost.c **** 
 322              		.loc 1 102 5 is_stmt 1
 102:C:/Users/stapi/OneDrive/Desktop/GD32VW553/V1_MQTT_OK/GD32VW55X_Wifi_BLE_SDK/GD32VW55x_RELEASE_V1.0.2/MSDK/cloud/alicloud/src/sdk-impl\impl_logpost.c **** 
 323              		.loc 1 102 20 is_stmt 0
 324 01d8 A3050100 		sb	zero,11(sp)
 105:C:/Users/stapi/OneDrive/Desktop/GD32VW553/V1_MQTT_OK/GD32VW55X_Wifi_BLE_SDK/GD32VW55x_RELEASE_V1.0.2/MSDK/cloud/alicloud/src/sdk-impl\impl_logpost.c ****     if (ret < 0) {
 325              		.loc 1 105 5 is_stmt 1
 105:C:/Users/stapi/OneDrive/Desktop/GD32VW553/V1_MQTT_OK/GD32VW55X_Wifi_BLE_SDK/GD32VW55x_RELEASE_V1.0.2/MSDK/cloud/alicloud/src/sdk-impl\impl_logpost.c ****     if (ret < 0) {
 326              		.loc 1 105 11 is_stmt 0
 327 01dc 97000000 		call	iotx_mc_publish
 327      E7800000 
 328              	.LVL41:
 106:C:/Users/stapi/OneDrive/Desktop/GD32VW553/V1_MQTT_OK/GD32VW55X_Wifi_BLE_SDK/GD32VW55x_RELEASE_V1.0.2/MSDK/cloud/alicloud/src/sdk-impl\impl_logpost.c ****         log_err("logpost", "publish failed");
 329              		.loc 1 106 5 is_stmt 1
 109:C:/Users/stapi/OneDrive/Desktop/GD32VW553/V1_MQTT_OK/GD32VW55X_Wifi_BLE_SDK/GD32VW55x_RELEASE_V1.0.2/MSDK/cloud/alicloud/src/sdk-impl\impl_logpost.c ****     }
 110:C:/Users/stapi/OneDrive/Desktop/GD32VW553/V1_MQTT_OK/GD32VW55X_Wifi_BLE_SDK/GD32VW55x_RELEASE_V1.0.2/MSDK/cloud/alicloud/src/sdk-impl\impl_logpost.c **** 
 111:C:/Users/stapi/OneDrive/Desktop/GD32VW553/V1_MQTT_OK/GD32VW55X_Wifi_BLE_SDK/GD32VW55x_RELEASE_V1.0.2/MSDK/cloud/alicloud/src/sdk-impl\impl_logpost.c ****     return SUCCESS_RETURN;
 330              		.loc 1 111 12 is_stmt 0
 331 01e4 8144     		li	s1,0
 332              	.LVL42:
 106:C:/Users/stapi/OneDrive/Desktop/GD32VW553/V1_MQTT_OK/GD32VW55X_Wifi_BLE_SDK/GD32VW55x_RELEASE_V1.0.2/MSDK/cloud/alicloud/src/sdk-impl\impl_logpost.c ****         log_err("logpost", "publish failed");
 333              		.loc 1 106 8
 334 01e6 E35505F8 		bge	a0,zero,.L12
 107:C:/Users/stapi/OneDrive/Desktop/GD32VW553/V1_MQTT_OK/GD32VW55X_Wifi_BLE_SDK/GD32VW55x_RELEASE_V1.0.2/MSDK/cloud/alicloud/src/sdk-impl\impl_logpost.c ****         return FAIL_RETURN;
 335              		.loc 1 107 9 is_stmt 1
 107:C:/Users/stapi/OneDrive/Desktop/GD32VW553/V1_MQTT_OK/GD32VW55X_Wifi_BLE_SDK/GD32VW55x_RELEASE_V1.0.2/MSDK/cloud/alicloud/src/sdk-impl\impl_logpost.c ****         return FAIL_RETURN;
 336              		.loc 1 107 9
 337 01ea 37050000 		lui	a0,%hi(.LC1)
 338              	.LVL43:
 339 01ee 13050500 		addi	a0,a0,%lo(.LC1)
 340 01f2 97000000 		call	HAL_Printf
 340      E7800000 
 341              	.LVL44:
 107:C:/Users/stapi/OneDrive/Desktop/GD32VW553/V1_MQTT_OK/GD32VW55X_Wifi_BLE_SDK/GD32VW55x_RELEASE_V1.0.2/MSDK/cloud/alicloud/src/sdk-impl\impl_logpost.c ****         return FAIL_RETURN;
 342              		.loc 1 107 9
 343 01fa 37050000 		lui	a0,%hi(.LC6)
 344 01fe 13050500 		addi	a0,a0,%lo(.LC6)
 345 0202 0DB7     		j	.L26
 346              	.LBE6:
 347              	.LBE7:
 348              		.cfi_endproc
 349              	.LFE20:
 351              		.section	.rodata.THING_LOG_POST_PARAMS,"a"
 352              		.align	2
 353              		.set	.LANCHOR0,. + 0
 356              	THING_LOG_POST_PARAMS:
 357 0000 7B226964 		.string	"{\"id\":\"%d\",\"version\":\"1.0\",\"params\":[{\"timestamp\":%d,\"logLevel\":\"%s\",\"mo
 357      223A2225 
 357      64222C22 
 357      76657273 
 357      696F6E22 
 358              		.section	.rodata.THING_LOG_POST_PARAMS_TAIL,"a"
 359              		.align	2
 360              		.set	.LANCHOR1,. + 0
 363              	THING_LOG_POST_PARAMS_TAIL:
 364 0000 2E2E2E22 		.string	"...\"}],\"method\":\"thing.log.post\"}"
 364      7D5D2C22 
 364      6D657468 
 364      6F64223A 
 364      22746869 
 365              		.section	.rodata.__FUNCTION__.0,"a"
 366              		.align	2
 367              		.set	.LANCHOR2,. + 0
 370              	__FUNCTION__.0:
 371 0000 696F7478 		.string	"iotx_mc_log_post"
 371      5F6D635F 
 371      6C6F675F 
 371      706F7374 
 371      00
 372              		.text
 373              	.Letext0:
 374              		.file 2 "c:\\users\\stapi\\onedrive\\desktop\\gd32vw553\\embeddedbuilder_v1.4.7.26843\\tools\\nucl
 375              		.file 3 "c:\\users\\stapi\\onedrive\\desktop\\gd32vw553\\embeddedbuilder_v1.4.7.26843\\tools\\nucl
 376              		.file 4 "..\\..\\..\\..\\cloud\\alicloud\\include/exports/iot_export_mqtt.h"
 377              		.file 5 "..\\..\\..\\..\\cloud\\alicloud\\src\\infra\\utils\\misc/utils_net.h"
 378              		.file 6 "..\\..\\..\\..\\cloud\\alicloud\\src\\infra\\utils\\misc/utils_timer.h"
 379              		.file 7 "..\\..\\..\\..\\cloud\\alicloud\\src\\infra\\utils\\misc/lite-list.h"
 380              		.file 8 "..\\..\\..\\..\\cloud\\alicloud\\src\\protocol\\mqtt/MQTTPacket/MQTTPacket.h"
 381              		.file 9 "..\\..\\..\\..\\cloud\\alicloud\\src\\protocol\\mqtt/MQTTPacket/MQTTConnect.h"
 382              		.file 10 "..\\..\\..\\..\\cloud\\alicloud\\src\\protocol\\mqtt/iotx_mqtt.h"
 383              		.file 11 "..\\..\\..\\..\\cloud\\alicloud\\include/imports/iot_import_product.h"
 384              		.file 12 "..\\..\\..\\..\\cloud\\alicloud\\include/iot_import.h"
 385              		.file 13 "..\\..\\..\\..\\cloud\\alicloud\\src\\infra\\log/iotx_log.h"
 386              		.file 14 "c:\\users\\stapi\\onedrive\\desktop\\gd32vw553\\embeddedbuilder_v1.4.7.26843\\tools\\nuc
 387              		.file 15 "..\\..\\..\\..\\cloud\\alicloud\\src\\infra\\utils/iotx_utils.h"
 388              		.file 16 "..\\..\\..\\..\\cloud\\alicloud\\include/exports/iot_export_errno.h"
 389              		.file 17 "<built-in>"