   1              		.file	"sdk-impl.c"
   2              		.option nopic
   3              		.attribute arch, "rv32i2p0_m2p0_a2p0_f2p0_c2p0_b_p0p94"
   4              		.attribute unaligned_access, 0
   5              		.attribute stack_align, 16
   6              		.text
   7              	.Ltext0:
   8              		.cfi_sections	.debug_frame
   9              		.section	.text.sdk_impl_get_ctx,"ax",@progbits
  10              		.align	1
  11              		.globl	sdk_impl_get_ctx
  13              	sdk_impl_get_ctx:
  14              	.LFB20:
  15              		.file 1 "C:/Users/stapi/OneDrive/Desktop/GD32VW553/V1_MQTT_OK/GD32VW55X_Wifi_BLE_SDK/GD32VW55x_REL
   1:C:/Users/stapi/OneDrive/Desktop/GD32VW553/V1_MQTT_OK/GD32VW55X_Wifi_BLE_SDK/GD32VW55x_RELEASE_V1.0.2/MSDK/cloud/alicloud/src/sdk-impl\sdk-impl.c **** /*
   2:C:/Users/stapi/OneDrive/Desktop/GD32VW553/V1_MQTT_OK/GD32VW55X_Wifi_BLE_SDK/GD32VW55x_RELEASE_V1.0.2/MSDK/cloud/alicloud/src/sdk-impl\sdk-impl.c ****  * Copyright (C) 2015-2018 Alibaba Group Holding Limited
   3:C:/Users/stapi/OneDrive/Desktop/GD32VW553/V1_MQTT_OK/GD32VW55X_Wifi_BLE_SDK/GD32VW55x_RELEASE_V1.0.2/MSDK/cloud/alicloud/src/sdk-impl\sdk-impl.c ****  */
   4:C:/Users/stapi/OneDrive/Desktop/GD32VW553/V1_MQTT_OK/GD32VW55X_Wifi_BLE_SDK/GD32VW55x_RELEASE_V1.0.2/MSDK/cloud/alicloud/src/sdk-impl\sdk-impl.c **** 
   5:C:/Users/stapi/OneDrive/Desktop/GD32VW553/V1_MQTT_OK/GD32VW55X_Wifi_BLE_SDK/GD32VW55x_RELEASE_V1.0.2/MSDK/cloud/alicloud/src/sdk-impl\sdk-impl.c **** #include "sdk-impl_internal.h"
   6:C:/Users/stapi/OneDrive/Desktop/GD32VW553/V1_MQTT_OK/GD32VW55X_Wifi_BLE_SDK/GD32VW55x_RELEASE_V1.0.2/MSDK/cloud/alicloud/src/sdk-impl\sdk-impl.c **** 
   7:C:/Users/stapi/OneDrive/Desktop/GD32VW553/V1_MQTT_OK/GD32VW55X_Wifi_BLE_SDK/GD32VW55x_RELEASE_V1.0.2/MSDK/cloud/alicloud/src/sdk-impl\sdk-impl.c **** #if defined(DEVICE_MODEL_ENABLED)
   8:C:/Users/stapi/OneDrive/Desktop/GD32VW553/V1_MQTT_OK/GD32VW55X_Wifi_BLE_SDK/GD32VW55x_RELEASE_V1.0.2/MSDK/cloud/alicloud/src/sdk-impl\sdk-impl.c ****     #include "iotx_dm.h"
   9:C:/Users/stapi/OneDrive/Desktop/GD32VW553/V1_MQTT_OK/GD32VW55X_Wifi_BLE_SDK/GD32VW55x_RELEASE_V1.0.2/MSDK/cloud/alicloud/src/sdk-impl\sdk-impl.c **** #endif
  10:C:/Users/stapi/OneDrive/Desktop/GD32VW553/V1_MQTT_OK/GD32VW55X_Wifi_BLE_SDK/GD32VW55x_RELEASE_V1.0.2/MSDK/cloud/alicloud/src/sdk-impl\sdk-impl.c **** 
  11:C:/Users/stapi/OneDrive/Desktop/GD32VW553/V1_MQTT_OK/GD32VW55X_Wifi_BLE_SDK/GD32VW55x_RELEASE_V1.0.2/MSDK/cloud/alicloud/src/sdk-impl\sdk-impl.c **** #define KV_KEY_DEVICE_SECRET            "DyncRegDeviceSecret"
  12:C:/Users/stapi/OneDrive/Desktop/GD32VW553/V1_MQTT_OK/GD32VW55X_Wifi_BLE_SDK/GD32VW55x_RELEASE_V1.0.2/MSDK/cloud/alicloud/src/sdk-impl\sdk-impl.c **** 
  13:C:/Users/stapi/OneDrive/Desktop/GD32VW553/V1_MQTT_OK/GD32VW55X_Wifi_BLE_SDK/GD32VW55x_RELEASE_V1.0.2/MSDK/cloud/alicloud/src/sdk-impl\sdk-impl.c **** static sdk_impl_ctx_t g_sdk_impl_ctx = {0};
  14:C:/Users/stapi/OneDrive/Desktop/GD32VW553/V1_MQTT_OK/GD32VW55X_Wifi_BLE_SDK/GD32VW55x_RELEASE_V1.0.2/MSDK/cloud/alicloud/src/sdk-impl\sdk-impl.c **** 
  15:C:/Users/stapi/OneDrive/Desktop/GD32VW553/V1_MQTT_OK/GD32VW55X_Wifi_BLE_SDK/GD32VW55x_RELEASE_V1.0.2/MSDK/cloud/alicloud/src/sdk-impl\sdk-impl.c **** sdk_impl_ctx_t *sdk_impl_get_ctx(void)
  16:C:/Users/stapi/OneDrive/Desktop/GD32VW553/V1_MQTT_OK/GD32VW55X_Wifi_BLE_SDK/GD32VW55x_RELEASE_V1.0.2/MSDK/cloud/alicloud/src/sdk-impl\sdk-impl.c **** {
  16              		.loc 1 16 1
  17              		.cfi_startproc
  17:C:/Users/stapi/OneDrive/Desktop/GD32VW553/V1_MQTT_OK/GD32VW55X_Wifi_BLE_SDK/GD32VW55x_RELEASE_V1.0.2/MSDK/cloud/alicloud/src/sdk-impl\sdk-impl.c ****     return &g_sdk_impl_ctx;
  18              		.loc 1 17 5
  19              		.loc 1 17 12 is_stmt 0
  20 0000 37050000 		lui	a0,%hi(.LANCHOR0)
  18:C:/Users/stapi/OneDrive/Desktop/GD32VW553/V1_MQTT_OK/GD32VW55X_Wifi_BLE_SDK/GD32VW55x_RELEASE_V1.0.2/MSDK/cloud/alicloud/src/sdk-impl\sdk-impl.c **** }
  21              		.loc 1 18 1
  22 0004 13050500 		addi	a0,a0,%lo(.LANCHOR0)
  23 0008 8280     		ret
  24              		.cfi_endproc
  25              	.LFE20:
  27              		.section	.rodata.IOT_SetLogLevel.str1.4,"aMS",@progbits,1
  28              		.align	2
  29              	.LC0:
  30 0000 5B657272 		.string	"[err] "
  30      5D2000
  31 0007 00       		.align	2
  32              	.LC1:
  33 0008 496E7661 		.string	"Invalid input level: %d out of [%d, %d]"
  33      6C696420 
  33      696E7075 
  33      74206C65 
  33      76656C3A 
  34              		.align	2
  35              	.LC2:
  36 0030 0D0A00   		.string	"\r\n"
  37 0033 00       		.align	2
  38              	.LC3:
  39 0034 5B707274 		.string	"[prt] log level set as: [ %d ]\r\n"
  39      5D206C6F 
  39      67206C65 
  39      76656C20 
  39      73657420 
  40              		.section	.text.IOT_SetLogLevel,"ax",@progbits
  41              		.align	1
  42              		.globl	IOT_SetLogLevel
  44              	IOT_SetLogLevel:
  45              	.LFB21:
  19:C:/Users/stapi/OneDrive/Desktop/GD32VW553/V1_MQTT_OK/GD32VW55X_Wifi_BLE_SDK/GD32VW55x_RELEASE_V1.0.2/MSDK/cloud/alicloud/src/sdk-impl\sdk-impl.c **** 
  20:C:/Users/stapi/OneDrive/Desktop/GD32VW553/V1_MQTT_OK/GD32VW55X_Wifi_BLE_SDK/GD32VW55x_RELEASE_V1.0.2/MSDK/cloud/alicloud/src/sdk-impl\sdk-impl.c **** void IOT_SetLogLevel(IOT_LogLevel level)
  21:C:/Users/stapi/OneDrive/Desktop/GD32VW553/V1_MQTT_OK/GD32VW55X_Wifi_BLE_SDK/GD32VW55x_RELEASE_V1.0.2/MSDK/cloud/alicloud/src/sdk-impl\sdk-impl.c **** {
  46              		.loc 1 21 1 is_stmt 1
  47              		.cfi_startproc
  48              	.LVL0:
  49 0000 17030000 		call	t0,__riscv_save_0
  49      E7020300 
  50              		.cfi_offset 1, -4
  51              		.cfi_def_cfa_offset 16
  22:C:/Users/stapi/OneDrive/Desktop/GD32VW553/V1_MQTT_OK/GD32VW55X_Wifi_BLE_SDK/GD32VW55x_RELEASE_V1.0.2/MSDK/cloud/alicloud/src/sdk-impl\sdk-impl.c ****     int             lvl = (int)level;
  52              		.loc 1 22 5
  53              	.LVL1:
  23:C:/Users/stapi/OneDrive/Desktop/GD32VW553/V1_MQTT_OK/GD32VW55X_Wifi_BLE_SDK/GD32VW55x_RELEASE_V1.0.2/MSDK/cloud/alicloud/src/sdk-impl\sdk-impl.c **** 
  24:C:/Users/stapi/OneDrive/Desktop/GD32VW553/V1_MQTT_OK/GD32VW55X_Wifi_BLE_SDK/GD32VW55x_RELEASE_V1.0.2/MSDK/cloud/alicloud/src/sdk-impl\sdk-impl.c ****     if (lvl > LOG_DEBUG_LEVEL) {
  54              		.loc 1 24 5
  21:C:/Users/stapi/OneDrive/Desktop/GD32VW553/V1_MQTT_OK/GD32VW55X_Wifi_BLE_SDK/GD32VW55x_RELEASE_V1.0.2/MSDK/cloud/alicloud/src/sdk-impl\sdk-impl.c ****     int             lvl = (int)level;
  55              		.loc 1 21 1 is_stmt 0
  56 0008 4111     		addi	sp,sp,-16
  57              		.cfi_def_cfa_offset 32
  58              		.loc 1 24 8
  59 000a 9547     		li	a5,5
  60 000c 2AC6     		sw	a0,12(sp)
  61 000e 63D2A704 		ble	a0,a5,.L3
  25:C:/Users/stapi/OneDrive/Desktop/GD32VW553/V1_MQTT_OK/GD32VW55X_Wifi_BLE_SDK/GD32VW55x_RELEASE_V1.0.2/MSDK/cloud/alicloud/src/sdk-impl\sdk-impl.c ****         sdk_err("Invalid input level: %d out of [%d, %d]", level,
  62              		.loc 1 25 9 is_stmt 1
  63              		.loc 1 25 9
  64 0012 37050000 		lui	a0,%hi(.LC0)
  65              	.LVL2:
  66 0016 13050500 		addi	a0,a0,%lo(.LC0)
  67 001a 97000000 		call	HAL_Printf
  67      E7800000 
  68              	.LVL3:
  69              		.loc 1 25 9
  70 0022 B245     		lw	a1,12(sp)
  71 0024 37050000 		lui	a0,%hi(.LC1)
  72 0028 13050500 		addi	a0,a0,%lo(.LC1)
  73 002c 9546     		li	a3,5
  74 002e 0146     		li	a2,0
  75 0030 97000000 		call	HAL_Printf
  75      E7800000 
  76              	.LVL4:
  77              		.loc 1 25 9
  78 0038 37050000 		lui	a0,%hi(.LC2)
  79 003c 13050500 		addi	a0,a0,%lo(.LC2)
  80 0040 97000000 		call	HAL_Printf
  80      E7800000 
  81              	.LVL5:
  82              		.loc 1 25 9
  26:C:/Users/stapi/OneDrive/Desktop/GD32VW553/V1_MQTT_OK/GD32VW55X_Wifi_BLE_SDK/GD32VW55x_RELEASE_V1.0.2/MSDK/cloud/alicloud/src/sdk-impl\sdk-impl.c ****                 LOG_NONE_LEVEL,
  27:C:/Users/stapi/OneDrive/Desktop/GD32VW553/V1_MQTT_OK/GD32VW55X_Wifi_BLE_SDK/GD32VW55x_RELEASE_V1.0.2/MSDK/cloud/alicloud/src/sdk-impl\sdk-impl.c ****                 LOG_DEBUG_LEVEL);
  28:C:/Users/stapi/OneDrive/Desktop/GD32VW553/V1_MQTT_OK/GD32VW55X_Wifi_BLE_SDK/GD32VW55x_RELEASE_V1.0.2/MSDK/cloud/alicloud/src/sdk-impl\sdk-impl.c ****         return;
  83              		.loc 1 28 9
  84              	.L2:
  29:C:/Users/stapi/OneDrive/Desktop/GD32VW553/V1_MQTT_OK/GD32VW55X_Wifi_BLE_SDK/GD32VW55x_RELEASE_V1.0.2/MSDK/cloud/alicloud/src/sdk-impl\sdk-impl.c ****     }
  30:C:/Users/stapi/OneDrive/Desktop/GD32VW553/V1_MQTT_OK/GD32VW55X_Wifi_BLE_SDK/GD32VW55x_RELEASE_V1.0.2/MSDK/cloud/alicloud/src/sdk-impl\sdk-impl.c **** 
  31:C:/Users/stapi/OneDrive/Desktop/GD32VW553/V1_MQTT_OK/GD32VW55X_Wifi_BLE_SDK/GD32VW55x_RELEASE_V1.0.2/MSDK/cloud/alicloud/src/sdk-impl\sdk-impl.c ****     LITE_set_loglevel(lvl);
  32:C:/Users/stapi/OneDrive/Desktop/GD32VW553/V1_MQTT_OK/GD32VW55X_Wifi_BLE_SDK/GD32VW55x_RELEASE_V1.0.2/MSDK/cloud/alicloud/src/sdk-impl\sdk-impl.c ****     HAL_Printf("[prt] log level set as: [ %d ]\r\n", lvl);
  33:C:/Users/stapi/OneDrive/Desktop/GD32VW553/V1_MQTT_OK/GD32VW55X_Wifi_BLE_SDK/GD32VW55x_RELEASE_V1.0.2/MSDK/cloud/alicloud/src/sdk-impl\sdk-impl.c **** }
  85              		.loc 1 33 1 is_stmt 0
  86 0048 4101     		addi	sp,sp,16
  87              		.cfi_remember_state
  88              		.cfi_def_cfa_offset 0
  89              	.LVL6:
  90 004a 17030000 		tail	__riscv_restore_0
  90      67000300 
  91              		.cfi_restore 1
  92              		.cfi_def_cfa_offset -16
  93              	.LVL7:
  94              	.L3:
  95              		.cfi_restore_state
  31:C:/Users/stapi/OneDrive/Desktop/GD32VW553/V1_MQTT_OK/GD32VW55X_Wifi_BLE_SDK/GD32VW55x_RELEASE_V1.0.2/MSDK/cloud/alicloud/src/sdk-impl\sdk-impl.c ****     HAL_Printf("[prt] log level set as: [ %d ]\r\n", lvl);
  96              		.loc 1 31 5 is_stmt 1
  97 0052 97000000 		call	LITE_set_loglevel
  97      E7800000 
  98              	.LVL8:
  32:C:/Users/stapi/OneDrive/Desktop/GD32VW553/V1_MQTT_OK/GD32VW55X_Wifi_BLE_SDK/GD32VW55x_RELEASE_V1.0.2/MSDK/cloud/alicloud/src/sdk-impl\sdk-impl.c **** }
  99              		.loc 1 32 5
 100 005a B245     		lw	a1,12(sp)
 101 005c 37050000 		lui	a0,%hi(.LC3)
 102 0060 13050500 		addi	a0,a0,%lo(.LC3)
 103 0064 97000000 		call	HAL_Printf
 103      E7800000 
 104              	.LVL9:
 105 006c F1BF     		j	.L2
 106              		.cfi_endproc
 107              	.LFE21:
 109              		.section	.rodata.IOT_DumpMemoryStats.str1.4,"aMS",@progbits,1
 110              		.align	2
 111              	.LC4:
 112 0000 5B77726E 		.string	"[wrn] "
 112      5D2000
 113 0007 00       		.align	2
 114              	.LC5:
 115 0008 496E7661 		.string	"Invalid input level, using default: %d => %d"
 115      6C696420 
 115      696E7075 
 115      74206C65 
 115      76656C2C 
 116              		.section	.text.IOT_DumpMemoryStats,"ax",@progbits
 117              		.align	1
 118              		.globl	IOT_DumpMemoryStats
 120              	IOT_DumpMemoryStats:
 121              	.LFB22:
  34:C:/Users/stapi/OneDrive/Desktop/GD32VW553/V1_MQTT_OK/GD32VW55X_Wifi_BLE_SDK/GD32VW55x_RELEASE_V1.0.2/MSDK/cloud/alicloud/src/sdk-impl\sdk-impl.c **** 
  35:C:/Users/stapi/OneDrive/Desktop/GD32VW553/V1_MQTT_OK/GD32VW55X_Wifi_BLE_SDK/GD32VW55x_RELEASE_V1.0.2/MSDK/cloud/alicloud/src/sdk-impl\sdk-impl.c **** void IOT_DumpMemoryStats(IOT_LogLevel level)
  36:C:/Users/stapi/OneDrive/Desktop/GD32VW553/V1_MQTT_OK/GD32VW55X_Wifi_BLE_SDK/GD32VW55x_RELEASE_V1.0.2/MSDK/cloud/alicloud/src/sdk-impl\sdk-impl.c **** {
 122              		.loc 1 36 1
 123              		.cfi_startproc
 124              	.LVL10:
 125 0000 17030000 		call	t0,__riscv_save_0
 125      E7020300 
 126              		.cfi_offset 1, -4
 127              		.cfi_def_cfa_offset 16
  37:C:/Users/stapi/OneDrive/Desktop/GD32VW553/V1_MQTT_OK/GD32VW55X_Wifi_BLE_SDK/GD32VW55x_RELEASE_V1.0.2/MSDK/cloud/alicloud/src/sdk-impl\sdk-impl.c ****     int             lvl = (int)level;
 128              		.loc 1 37 5
 129              	.LVL11:
  38:C:/Users/stapi/OneDrive/Desktop/GD32VW553/V1_MQTT_OK/GD32VW55X_Wifi_BLE_SDK/GD32VW55x_RELEASE_V1.0.2/MSDK/cloud/alicloud/src/sdk-impl\sdk-impl.c **** 
  39:C:/Users/stapi/OneDrive/Desktop/GD32VW553/V1_MQTT_OK/GD32VW55X_Wifi_BLE_SDK/GD32VW55x_RELEASE_V1.0.2/MSDK/cloud/alicloud/src/sdk-impl\sdk-impl.c ****     if (lvl > LOG_DEBUG_LEVEL) {
 130              		.loc 1 39 5
 131              		.loc 1 39 8 is_stmt 0
 132 0008 9547     		li	a5,5
  36:C:/Users/stapi/OneDrive/Desktop/GD32VW553/V1_MQTT_OK/GD32VW55X_Wifi_BLE_SDK/GD32VW55x_RELEASE_V1.0.2/MSDK/cloud/alicloud/src/sdk-impl\sdk-impl.c ****     int             lvl = (int)level;
 133              		.loc 1 36 1
 134 000a 4111     		addi	sp,sp,-16
 135              		.cfi_def_cfa_offset 32
  36:C:/Users/stapi/OneDrive/Desktop/GD32VW553/V1_MQTT_OK/GD32VW55X_Wifi_BLE_SDK/GD32VW55x_RELEASE_V1.0.2/MSDK/cloud/alicloud/src/sdk-impl\sdk-impl.c ****     int             lvl = (int)level;
 136              		.loc 1 36 1
 137 000c AA85     		mv	a1,a0
 138              		.loc 1 39 8
 139 000e 63DEA702 		ble	a0,a5,.L7
 140 0012 2AC6     		sw	a0,12(sp)
  40:C:/Users/stapi/OneDrive/Desktop/GD32VW553/V1_MQTT_OK/GD32VW55X_Wifi_BLE_SDK/GD32VW55x_RELEASE_V1.0.2/MSDK/cloud/alicloud/src/sdk-impl\sdk-impl.c ****         lvl = LOG_DEBUG_LEVEL;
 141              		.loc 1 40 9 is_stmt 1
 142              	.LVL12:
  41:C:/Users/stapi/OneDrive/Desktop/GD32VW553/V1_MQTT_OK/GD32VW55X_Wifi_BLE_SDK/GD32VW55x_RELEASE_V1.0.2/MSDK/cloud/alicloud/src/sdk-impl\sdk-impl.c ****         sdk_warning("Invalid input level, using default: %d => %d", level, lvl);
 143              		.loc 1 41 9
 144              		.loc 1 41 9
 145 0014 37050000 		lui	a0,%hi(.LC4)
 146              	.LVL13:
 147 0018 13050500 		addi	a0,a0,%lo(.LC4)
 148 001c 97000000 		call	HAL_Printf
 148      E7800000 
 149              	.LVL14:
 150              		.loc 1 41 9
 151 0024 B245     		lw	a1,12(sp)
 152 0026 37050000 		lui	a0,%hi(.LC5)
 153 002a 1546     		li	a2,5
 154 002c 13050500 		addi	a0,a0,%lo(.LC5)
 155 0030 97000000 		call	HAL_Printf
 155      E7800000 
 156              	.LVL15:
 157              		.loc 1 41 9
 158 0038 37050000 		lui	a0,%hi(.LC2)
 159 003c 13050500 		addi	a0,a0,%lo(.LC2)
 160 0040 97000000 		call	HAL_Printf
 160      E7800000 
 161              	.LVL16:
  40:C:/Users/stapi/OneDrive/Desktop/GD32VW553/V1_MQTT_OK/GD32VW55X_Wifi_BLE_SDK/GD32VW55x_RELEASE_V1.0.2/MSDK/cloud/alicloud/src/sdk-impl\sdk-impl.c ****         lvl = LOG_DEBUG_LEVEL;
 162              		.loc 1 40 13 is_stmt 0
 163 0048 9545     		li	a1,5
 164              	.LVL17:
 165              	.L7:
 166              		.loc 1 41 9 is_stmt 1 discriminator 1
  42:C:/Users/stapi/OneDrive/Desktop/GD32VW553/V1_MQTT_OK/GD32VW55X_Wifi_BLE_SDK/GD32VW55x_RELEASE_V1.0.2/MSDK/cloud/alicloud/src/sdk-impl\sdk-impl.c ****     }
  43:C:/Users/stapi/OneDrive/Desktop/GD32VW553/V1_MQTT_OK/GD32VW55X_Wifi_BLE_SDK/GD32VW55x_RELEASE_V1.0.2/MSDK/cloud/alicloud/src/sdk-impl\sdk-impl.c **** 
  44:C:/Users/stapi/OneDrive/Desktop/GD32VW553/V1_MQTT_OK/GD32VW55X_Wifi_BLE_SDK/GD32VW55x_RELEASE_V1.0.2/MSDK/cloud/alicloud/src/sdk-impl\sdk-impl.c ****     LITE_dump_malloc_free_stats(lvl);
 167              		.loc 1 44 5 discriminator 1
 168 004a 2E85     		mv	a0,a1
 169 004c 97000000 		call	LITE_dump_malloc_free_stats
 169      E7800000 
 170              	.LVL18:
  45:C:/Users/stapi/OneDrive/Desktop/GD32VW553/V1_MQTT_OK/GD32VW55X_Wifi_BLE_SDK/GD32VW55x_RELEASE_V1.0.2/MSDK/cloud/alicloud/src/sdk-impl\sdk-impl.c **** }
 171              		.loc 1 45 1 is_stmt 0 discriminator 1
 172 0054 4101     		addi	sp,sp,16
 173              		.cfi_def_cfa_offset 0
 174 0056 17030000 		tail	__riscv_restore_0
 174      67000300 
 175              		.cfi_restore 1
 176              		.cfi_def_cfa_offset -16
 177              		.cfi_endproc
 178              	.LFE22:
 180              		.section	.rodata.IOT_SetupConnInfo.str1.4,"aMS",@progbits,1
 181              		.align	2
 182              	.LC6:
 183 0000 70726F64 		.string	"product_key"
 183      7563745F 
 183      6B657900 
 184              		.align	2
 185              	.LC7:
 186 000c 496E7661 		.string	"Invalid argument, %s = %p"
 186      6C696420 
 186      61726775 
 186      6D656E74 
 186      2C202573 
 187 0026 0000     		.align	2
 188              	.LC8:
 189 0028 496E7661 		.string	"Invalid argument, %s = '%s'"
 189      6C696420 
 189      61726775 
 189      6D656E74 
 189      2C202573 
 190              		.align	2
 191              	.LC9:
 192 0044 64657669 		.string	"device_name"
 192      63655F6E 
 192      616D6500 
 193              		.align	2
 194              	.LC10:
 195 0050 64657669 		.string	"device_secret"
 195      63655F73 
 195      65637265 
 195      7400
 196 005e 0000     		.align	2
 197              	.LC11:
 198 0060 44796E63 		.string	"DyncRegDeviceSecret"
 198      52656744 
 198      65766963 
 198      65536563 
 198      72657400 
 199              		.align	2
 200              	.LC12:
 201 0074 5B696E66 		.string	"[inf] "
 201      5D2000
 202 007b 00       		.align	2
 203              	.LC13:
 204 007c 47657420 		.string	"Get DeviceSecret from KV succeed"
 204      44657669 
 204      63655365 
 204      63726574 
 204      2066726F 
 205 009d 000000   		.align	2
 206              	.LC14:
 207 00a0 44657669 		.string	"DeviceSecret KV not exist, Now We Need Dynamic Register..."
 207      63655365 
 207      63726574 
 207      204B5620 
 207      6E6F7420 
 208 00db 00       		.align	2
 209              	.LC15:
 210 00dc 50726F64 		.string	"Product Secret Is Not Exist"
 210      75637420 
 210      53656372 
 210      65742049 
 210      73204E6F 
 211              		.align	2
 212              	.LC16:
 213 00f8 44796E61 		.string	"Dynamic Register Failed"
 213      6D696320 
 213      52656769 
 213      73746572 
 213      20466169 
 214              		.align	2
 215              	.LC17:
 216 0110 53617665 		.string	"Save Device Secret to KV Failed"
 216      20446576 
 216      69636520 
 216      53656372 
 216      65742074 
 217              		.section	.text.IOT_SetupConnInfo,"ax",@progbits
 218              		.align	1
 219              		.globl	IOT_SetupConnInfo
 221              	IOT_SetupConnInfo:
 222              	.LFB23:
  46:C:/Users/stapi/OneDrive/Desktop/GD32VW553/V1_MQTT_OK/GD32VW55X_Wifi_BLE_SDK/GD32VW55x_RELEASE_V1.0.2/MSDK/cloud/alicloud/src/sdk-impl\sdk-impl.c **** 
  47:C:/Users/stapi/OneDrive/Desktop/GD32VW553/V1_MQTT_OK/GD32VW55X_Wifi_BLE_SDK/GD32VW55x_RELEASE_V1.0.2/MSDK/cloud/alicloud/src/sdk-impl\sdk-impl.c **** int IOT_SetupConnInfo(const char *product_key,
  48:C:/Users/stapi/OneDrive/Desktop/GD32VW553/V1_MQTT_OK/GD32VW55X_Wifi_BLE_SDK/GD32VW55x_RELEASE_V1.0.2/MSDK/cloud/alicloud/src/sdk-impl\sdk-impl.c ****                       const char *device_name,
  49:C:/Users/stapi/OneDrive/Desktop/GD32VW553/V1_MQTT_OK/GD32VW55X_Wifi_BLE_SDK/GD32VW55x_RELEASE_V1.0.2/MSDK/cloud/alicloud/src/sdk-impl\sdk-impl.c ****                       const char *device_secret,
  50:C:/Users/stapi/OneDrive/Desktop/GD32VW553/V1_MQTT_OK/GD32VW55X_Wifi_BLE_SDK/GD32VW55x_RELEASE_V1.0.2/MSDK/cloud/alicloud/src/sdk-impl\sdk-impl.c ****                       void **info_ptr)
  51:C:/Users/stapi/OneDrive/Desktop/GD32VW553/V1_MQTT_OK/GD32VW55X_Wifi_BLE_SDK/GD32VW55x_RELEASE_V1.0.2/MSDK/cloud/alicloud/src/sdk-impl\sdk-impl.c **** {
 223              		.loc 1 51 1 is_stmt 1
 224              		.cfi_startproc
 225              	.LVL19:
 226 0000 17030000 		call	t0,__riscv_save_5
 226      E7020300 
 227              		.cfi_offset 20, -24
 228              		.cfi_offset 19, -20
 229              		.cfi_offset 18, -16
 230              		.cfi_offset 9, -12
 231              		.cfi_offset 8, -8
 232              		.cfi_offset 1, -4
 233              		.cfi_def_cfa_offset 32
  52:C:/Users/stapi/OneDrive/Desktop/GD32VW553/V1_MQTT_OK/GD32VW55X_Wifi_BLE_SDK/GD32VW55x_RELEASE_V1.0.2/MSDK/cloud/alicloud/src/sdk-impl\sdk-impl.c ****     int                 rc = 0;
 234              		.loc 1 52 5
 235              	.LVL20:
  53:C:/Users/stapi/OneDrive/Desktop/GD32VW553/V1_MQTT_OK/GD32VW55X_Wifi_BLE_SDK/GD32VW55x_RELEASE_V1.0.2/MSDK/cloud/alicloud/src/sdk-impl\sdk-impl.c ****     char                device_secret_actual[DEVICE_SECRET_MAXLEN] = {0};
 236              		.loc 1 53 5
  51:C:/Users/stapi/OneDrive/Desktop/GD32VW553/V1_MQTT_OK/GD32VW55X_Wifi_BLE_SDK/GD32VW55x_RELEASE_V1.0.2/MSDK/cloud/alicloud/src/sdk-impl\sdk-impl.c ****     int                 rc = 0;
 237              		.loc 1 51 1 is_stmt 0
 238 0008 7571     		addi	sp,sp,-144
 239              		.cfi_def_cfa_offset 176
  51:C:/Users/stapi/OneDrive/Desktop/GD32VW553/V1_MQTT_OK/GD32VW55X_Wifi_BLE_SDK/GD32VW55x_RELEASE_V1.0.2/MSDK/cloud/alicloud/src/sdk-impl\sdk-impl.c ****     int                 rc = 0;
 240              		.loc 1 51 1
 241 000a AA84     		mv	s1,a0
 242 000c 2E89     		mv	s2,a1
 243 000e 3284     		mv	s0,a2
 244              		.loc 1 53 25
 245 0010 8145     		li	a1,0
 246              	.LVL21:
 247 0012 1306D003 		li	a2,61
 248              	.LVL22:
 249 0016 6800     		addi	a0,sp,12
 250              	.LVL23:
  51:C:/Users/stapi/OneDrive/Desktop/GD32VW553/V1_MQTT_OK/GD32VW55X_Wifi_BLE_SDK/GD32VW55x_RELEASE_V1.0.2/MSDK/cloud/alicloud/src/sdk-impl\sdk-impl.c ****     int                 rc = 0;
 251              		.loc 1 51 1
 252 0018 B689     		mv	s3,a3
 253              		.loc 1 53 25
 254 001a 02C4     		sw	zero,8(sp)
 255 001c 97000000 		call	memset
 255      E7800000 
 256              	.LVL24:
  54:C:/Users/stapi/OneDrive/Desktop/GD32VW553/V1_MQTT_OK/GD32VW55X_Wifi_BLE_SDK/GD32VW55x_RELEASE_V1.0.2/MSDK/cloud/alicloud/src/sdk-impl\sdk-impl.c ****     char                product_secret[PRODUCT_SECRET_MAXLEN] = {0};
 257              		.loc 1 54 5 is_stmt 1
 258              		.loc 1 54 25 is_stmt 0
 259 0024 1306D003 		li	a2,61
 260 0028 8145     		li	a1,0
 261 002a 8808     		addi	a0,sp,80
 262 002c 82C6     		sw	zero,76(sp)
 263 002e 97000000 		call	memset
 263      E7800000 
 264              	.LVL25:
  55:C:/Users/stapi/OneDrive/Desktop/GD32VW553/V1_MQTT_OK/GD32VW55X_Wifi_BLE_SDK/GD32VW55x_RELEASE_V1.0.2/MSDK/cloud/alicloud/src/sdk-impl\sdk-impl.c ****     int                 device_secret_len = DEVICE_SECRET_MAXLEN;
 265              		.loc 1 55 5 is_stmt 1
 266              		.loc 1 55 25 is_stmt 0
 267 0036 93071004 		li	a5,65
 268 003a 3EC2     		sw	a5,4(sp)
  56:C:/Users/stapi/OneDrive/Desktop/GD32VW553/V1_MQTT_OK/GD32VW55X_Wifi_BLE_SDK/GD32VW55x_RELEASE_V1.0.2/MSDK/cloud/alicloud/src/sdk-impl\sdk-impl.c ****     sdk_impl_ctx_t     *ctx = sdk_impl_get_ctx();
 269              		.loc 1 56 5 is_stmt 1
  17:C:/Users/stapi/OneDrive/Desktop/GD32VW553/V1_MQTT_OK/GD32VW55X_Wifi_BLE_SDK/GD32VW55x_RELEASE_V1.0.2/MSDK/cloud/alicloud/src/sdk-impl\sdk-impl.c **** }
 270              		.loc 1 17 5
 271              	.LVL26:
  57:C:/Users/stapi/OneDrive/Desktop/GD32VW553/V1_MQTT_OK/GD32VW55X_Wifi_BLE_SDK/GD32VW55x_RELEASE_V1.0.2/MSDK/cloud/alicloud/src/sdk-impl\sdk-impl.c **** 
  58:C:/Users/stapi/OneDrive/Desktop/GD32VW553/V1_MQTT_OK/GD32VW55X_Wifi_BLE_SDK/GD32VW55x_RELEASE_V1.0.2/MSDK/cloud/alicloud/src/sdk-impl\sdk-impl.c ****     STRING_PTR_SANITY_CHECK(product_key, -1);
 272              		.loc 1 58 5
 273              		.loc 1 58 5
 274 003c 9DE0     		bne	s1,zero,.L10
 275              		.loc 1 58 5 discriminator 1
 276              		.loc 1 58 5 discriminator 1
 277 003e 37050000 		lui	a0,%hi(.LC0)
 278 0042 13050500 		addi	a0,a0,%lo(.LC0)
 279 0046 97000000 		call	HAL_Printf
 279      E7800000 
 280              	.LVL27:
 281              		.loc 1 58 5 discriminator 1
 282 004e B7050000 		lui	a1,%hi(.LC6)
 283 0052 0146     		li	a2,0
 284 0054 93850500 		addi	a1,a1,%lo(.LC6)
 285              	.L28:
  59:C:/Users/stapi/OneDrive/Desktop/GD32VW553/V1_MQTT_OK/GD32VW55X_Wifi_BLE_SDK/GD32VW55x_RELEASE_V1.0.2/MSDK/cloud/alicloud/src/sdk-impl\sdk-impl.c ****     STRING_PTR_SANITY_CHECK(device_name, -1);
  60:C:/Users/stapi/OneDrive/Desktop/GD32VW553/V1_MQTT_OK/GD32VW55X_Wifi_BLE_SDK/GD32VW55x_RELEASE_V1.0.2/MSDK/cloud/alicloud/src/sdk-impl\sdk-impl.c **** 
  61:C:/Users/stapi/OneDrive/Desktop/GD32VW553/V1_MQTT_OK/GD32VW55X_Wifi_BLE_SDK/GD32VW55x_RELEASE_V1.0.2/MSDK/cloud/alicloud/src/sdk-impl\sdk-impl.c ****     HAL_SetProductKey((char *)product_key);
  62:C:/Users/stapi/OneDrive/Desktop/GD32VW553/V1_MQTT_OK/GD32VW55X_Wifi_BLE_SDK/GD32VW55x_RELEASE_V1.0.2/MSDK/cloud/alicloud/src/sdk-impl\sdk-impl.c ****     HAL_SetDeviceName((char *)device_name);
  63:C:/Users/stapi/OneDrive/Desktop/GD32VW553/V1_MQTT_OK/GD32VW55X_Wifi_BLE_SDK/GD32VW55x_RELEASE_V1.0.2/MSDK/cloud/alicloud/src/sdk-impl\sdk-impl.c ****     HAL_SetDeviceSecret((char *)device_secret);
  64:C:/Users/stapi/OneDrive/Desktop/GD32VW553/V1_MQTT_OK/GD32VW55X_Wifi_BLE_SDK/GD32VW55x_RELEASE_V1.0.2/MSDK/cloud/alicloud/src/sdk-impl\sdk-impl.c **** 
  65:C:/Users/stapi/OneDrive/Desktop/GD32VW553/V1_MQTT_OK/GD32VW55X_Wifi_BLE_SDK/GD32VW55x_RELEASE_V1.0.2/MSDK/cloud/alicloud/src/sdk-impl\sdk-impl.c ****     /* Dynamic Register Device If Need */
  66:C:/Users/stapi/OneDrive/Desktop/GD32VW553/V1_MQTT_OK/GD32VW55X_Wifi_BLE_SDK/GD32VW55x_RELEASE_V1.0.2/MSDK/cloud/alicloud/src/sdk-impl\sdk-impl.c ****     if (ctx->dynamic_register == 0) {
  67:C:/Users/stapi/OneDrive/Desktop/GD32VW553/V1_MQTT_OK/GD32VW55X_Wifi_BLE_SDK/GD32VW55x_RELEASE_V1.0.2/MSDK/cloud/alicloud/src/sdk-impl\sdk-impl.c **** #if !defined(SUPPORT_ITLS)
  68:C:/Users/stapi/OneDrive/Desktop/GD32VW553/V1_MQTT_OK/GD32VW55X_Wifi_BLE_SDK/GD32VW55x_RELEASE_V1.0.2/MSDK/cloud/alicloud/src/sdk-impl\sdk-impl.c ****         STRING_PTR_SANITY_CHECK(device_secret, -1);
 286              		.loc 1 68 9 is_stmt 0 discriminator 1
 287 0058 37050000 		lui	a0,%hi(.LC7)
 288 005c 13050500 		addi	a0,a0,%lo(.LC7)
 289 0060 2DA0     		j	.L25
 290              	.L10:
  58:C:/Users/stapi/OneDrive/Desktop/GD32VW553/V1_MQTT_OK/GD32VW55X_Wifi_BLE_SDK/GD32VW55x_RELEASE_V1.0.2/MSDK/cloud/alicloud/src/sdk-impl\sdk-impl.c ****     STRING_PTR_SANITY_CHECK(device_name, -1);
 291              		.loc 1 58 5 is_stmt 1 discriminator 2
 292 0062 83870400 		lb	a5,0(s1)
 293 0066 A1E7     		bne	a5,zero,.L12
  58:C:/Users/stapi/OneDrive/Desktop/GD32VW553/V1_MQTT_OK/GD32VW55X_Wifi_BLE_SDK/GD32VW55x_RELEASE_V1.0.2/MSDK/cloud/alicloud/src/sdk-impl\sdk-impl.c ****     STRING_PTR_SANITY_CHECK(device_name, -1);
 294              		.loc 1 58 5 discriminator 3
  58:C:/Users/stapi/OneDrive/Desktop/GD32VW553/V1_MQTT_OK/GD32VW55X_Wifi_BLE_SDK/GD32VW55x_RELEASE_V1.0.2/MSDK/cloud/alicloud/src/sdk-impl\sdk-impl.c ****     STRING_PTR_SANITY_CHECK(device_name, -1);
 295              		.loc 1 58 5 discriminator 3
 296 0068 37050000 		lui	a0,%hi(.LC0)
 297 006c 13050500 		addi	a0,a0,%lo(.LC0)
 298 0070 97000000 		call	HAL_Printf
 298      E7800000 
 299              	.LVL28:
  58:C:/Users/stapi/OneDrive/Desktop/GD32VW553/V1_MQTT_OK/GD32VW55X_Wifi_BLE_SDK/GD32VW55x_RELEASE_V1.0.2/MSDK/cloud/alicloud/src/sdk-impl\sdk-impl.c ****     STRING_PTR_SANITY_CHECK(device_name, -1);
 300              		.loc 1 58 5 discriminator 3
 301 0078 B7050000 		lui	a1,%hi(.LC6)
 302 007c 2686     		mv	a2,s1
 303 007e 93850500 		addi	a1,a1,%lo(.LC6)
 304              	.L27:
 305 0082 37050000 		lui	a0,%hi(.LC8)
 306 0086 13050500 		addi	a0,a0,%lo(.LC8)
 307              	.L25:
 308 008a 97000000 		call	HAL_Printf
 308      E7800000 
 309              	.LVL29:
  58:C:/Users/stapi/OneDrive/Desktop/GD32VW553/V1_MQTT_OK/GD32VW55X_Wifi_BLE_SDK/GD32VW55x_RELEASE_V1.0.2/MSDK/cloud/alicloud/src/sdk-impl\sdk-impl.c ****     STRING_PTR_SANITY_CHECK(device_name, -1);
 310              		.loc 1 58 5 discriminator 3
 311 0092 37050000 		lui	a0,%hi(.LC2)
 312 0096 13050500 		addi	a0,a0,%lo(.LC2)
 313              	.LVL30:
 314              	.L26:
 315 009a 97000000 		call	HAL_Printf
 315      E7800000 
 316              	.LVL31:
  58:C:/Users/stapi/OneDrive/Desktop/GD32VW553/V1_MQTT_OK/GD32VW55X_Wifi_BLE_SDK/GD32VW55x_RELEASE_V1.0.2/MSDK/cloud/alicloud/src/sdk-impl\sdk-impl.c ****     STRING_PTR_SANITY_CHECK(device_name, -1);
 317              		.loc 1 58 5 discriminator 3
  58:C:/Users/stapi/OneDrive/Desktop/GD32VW553/V1_MQTT_OK/GD32VW55X_Wifi_BLE_SDK/GD32VW55x_RELEASE_V1.0.2/MSDK/cloud/alicloud/src/sdk-impl\sdk-impl.c ****     STRING_PTR_SANITY_CHECK(device_name, -1);
 318              		.loc 1 58 5 discriminator 3
 319 00a2 7D55     		li	a0,-1
 320              	.L9:
  69:C:/Users/stapi/OneDrive/Desktop/GD32VW553/V1_MQTT_OK/GD32VW55X_Wifi_BLE_SDK/GD32VW55x_RELEASE_V1.0.2/MSDK/cloud/alicloud/src/sdk-impl\sdk-impl.c ****         memcpy(device_secret_actual, device_secret, strlen(device_secret));
  70:C:/Users/stapi/OneDrive/Desktop/GD32VW553/V1_MQTT_OK/GD32VW55X_Wifi_BLE_SDK/GD32VW55x_RELEASE_V1.0.2/MSDK/cloud/alicloud/src/sdk-impl\sdk-impl.c **** #else
  71:C:/Users/stapi/OneDrive/Desktop/GD32VW553/V1_MQTT_OK/GD32VW55X_Wifi_BLE_SDK/GD32VW55x_RELEASE_V1.0.2/MSDK/cloud/alicloud/src/sdk-impl\sdk-impl.c ****         if (device_secret == NULL || strlen(device_secret) == 0) {
  72:C:/Users/stapi/OneDrive/Desktop/GD32VW553/V1_MQTT_OK/GD32VW55X_Wifi_BLE_SDK/GD32VW55x_RELEASE_V1.0.2/MSDK/cloud/alicloud/src/sdk-impl\sdk-impl.c ****             LITE_get_randstr(device_secret_actual, DEVICE_SECRET_MAXLEN - 1);
  73:C:/Users/stapi/OneDrive/Desktop/GD32VW553/V1_MQTT_OK/GD32VW55X_Wifi_BLE_SDK/GD32VW55x_RELEASE_V1.0.2/MSDK/cloud/alicloud/src/sdk-impl\sdk-impl.c ****         } else {
  74:C:/Users/stapi/OneDrive/Desktop/GD32VW553/V1_MQTT_OK/GD32VW55X_Wifi_BLE_SDK/GD32VW55x_RELEASE_V1.0.2/MSDK/cloud/alicloud/src/sdk-impl\sdk-impl.c ****             memcpy(device_secret_actual, device_secret, strlen(device_secret));
  75:C:/Users/stapi/OneDrive/Desktop/GD32VW553/V1_MQTT_OK/GD32VW55X_Wifi_BLE_SDK/GD32VW55x_RELEASE_V1.0.2/MSDK/cloud/alicloud/src/sdk-impl\sdk-impl.c ****         }
  76:C:/Users/stapi/OneDrive/Desktop/GD32VW553/V1_MQTT_OK/GD32VW55X_Wifi_BLE_SDK/GD32VW55x_RELEASE_V1.0.2/MSDK/cloud/alicloud/src/sdk-impl\sdk-impl.c **** #endif
  77:C:/Users/stapi/OneDrive/Desktop/GD32VW553/V1_MQTT_OK/GD32VW55X_Wifi_BLE_SDK/GD32VW55x_RELEASE_V1.0.2/MSDK/cloud/alicloud/src/sdk-impl\sdk-impl.c ****     } else {
  78:C:/Users/stapi/OneDrive/Desktop/GD32VW553/V1_MQTT_OK/GD32VW55X_Wifi_BLE_SDK/GD32VW55x_RELEASE_V1.0.2/MSDK/cloud/alicloud/src/sdk-impl\sdk-impl.c ****         /* Check if Device Secret exit in KV */
  79:C:/Users/stapi/OneDrive/Desktop/GD32VW553/V1_MQTT_OK/GD32VW55X_Wifi_BLE_SDK/GD32VW55x_RELEASE_V1.0.2/MSDK/cloud/alicloud/src/sdk-impl\sdk-impl.c ****         if (HAL_Kv_Get(KV_KEY_DEVICE_SECRET, device_secret_actual, &device_secret_len) == 0) {
  80:C:/Users/stapi/OneDrive/Desktop/GD32VW553/V1_MQTT_OK/GD32VW55X_Wifi_BLE_SDK/GD32VW55x_RELEASE_V1.0.2/MSDK/cloud/alicloud/src/sdk-impl\sdk-impl.c ****             sdk_info("Get DeviceSecret from KV succeed");
  81:C:/Users/stapi/OneDrive/Desktop/GD32VW553/V1_MQTT_OK/GD32VW55X_Wifi_BLE_SDK/GD32VW55x_RELEASE_V1.0.2/MSDK/cloud/alicloud/src/sdk-impl\sdk-impl.c **** 
  82:C:/Users/stapi/OneDrive/Desktop/GD32VW553/V1_MQTT_OK/GD32VW55X_Wifi_BLE_SDK/GD32VW55x_RELEASE_V1.0.2/MSDK/cloud/alicloud/src/sdk-impl\sdk-impl.c ****             *(device_secret_actual + device_secret_len) = 0;
  83:C:/Users/stapi/OneDrive/Desktop/GD32VW553/V1_MQTT_OK/GD32VW55X_Wifi_BLE_SDK/GD32VW55x_RELEASE_V1.0.2/MSDK/cloud/alicloud/src/sdk-impl\sdk-impl.c ****             HAL_SetDeviceSecret(device_secret_actual);
  84:C:/Users/stapi/OneDrive/Desktop/GD32VW553/V1_MQTT_OK/GD32VW55X_Wifi_BLE_SDK/GD32VW55x_RELEASE_V1.0.2/MSDK/cloud/alicloud/src/sdk-impl\sdk-impl.c ****         } else {
  85:C:/Users/stapi/OneDrive/Desktop/GD32VW553/V1_MQTT_OK/GD32VW55X_Wifi_BLE_SDK/GD32VW55x_RELEASE_V1.0.2/MSDK/cloud/alicloud/src/sdk-impl\sdk-impl.c ****             /* KV not exit, goto dynamic register */
  86:C:/Users/stapi/OneDrive/Desktop/GD32VW553/V1_MQTT_OK/GD32VW55X_Wifi_BLE_SDK/GD32VW55x_RELEASE_V1.0.2/MSDK/cloud/alicloud/src/sdk-impl\sdk-impl.c ****             sdk_info("DeviceSecret KV not exist, Now We Need Dynamic Register...");
  87:C:/Users/stapi/OneDrive/Desktop/GD32VW553/V1_MQTT_OK/GD32VW55X_Wifi_BLE_SDK/GD32VW55x_RELEASE_V1.0.2/MSDK/cloud/alicloud/src/sdk-impl\sdk-impl.c **** 
  88:C:/Users/stapi/OneDrive/Desktop/GD32VW553/V1_MQTT_OK/GD32VW55X_Wifi_BLE_SDK/GD32VW55x_RELEASE_V1.0.2/MSDK/cloud/alicloud/src/sdk-impl\sdk-impl.c ****             /* Check If Product Secret Exist */
  89:C:/Users/stapi/OneDrive/Desktop/GD32VW553/V1_MQTT_OK/GD32VW55X_Wifi_BLE_SDK/GD32VW55x_RELEASE_V1.0.2/MSDK/cloud/alicloud/src/sdk-impl\sdk-impl.c ****             HAL_GetProductSecret(product_secret);
  90:C:/Users/stapi/OneDrive/Desktop/GD32VW553/V1_MQTT_OK/GD32VW55X_Wifi_BLE_SDK/GD32VW55x_RELEASE_V1.0.2/MSDK/cloud/alicloud/src/sdk-impl\sdk-impl.c ****             if (strlen(product_secret) == 0) {
  91:C:/Users/stapi/OneDrive/Desktop/GD32VW553/V1_MQTT_OK/GD32VW55X_Wifi_BLE_SDK/GD32VW55x_RELEASE_V1.0.2/MSDK/cloud/alicloud/src/sdk-impl\sdk-impl.c ****                 sdk_err("Product Secret Is Not Exist");
  92:C:/Users/stapi/OneDrive/Desktop/GD32VW553/V1_MQTT_OK/GD32VW55X_Wifi_BLE_SDK/GD32VW55x_RELEASE_V1.0.2/MSDK/cloud/alicloud/src/sdk-impl\sdk-impl.c ****                 return FAIL_RETURN;
  93:C:/Users/stapi/OneDrive/Desktop/GD32VW553/V1_MQTT_OK/GD32VW55X_Wifi_BLE_SDK/GD32VW55x_RELEASE_V1.0.2/MSDK/cloud/alicloud/src/sdk-impl\sdk-impl.c ****             }
  94:C:/Users/stapi/OneDrive/Desktop/GD32VW553/V1_MQTT_OK/GD32VW55X_Wifi_BLE_SDK/GD32VW55x_RELEASE_V1.0.2/MSDK/cloud/alicloud/src/sdk-impl\sdk-impl.c ****             STRING_PTR_SANITY_CHECK(product_secret, -1);
  95:C:/Users/stapi/OneDrive/Desktop/GD32VW553/V1_MQTT_OK/GD32VW55X_Wifi_BLE_SDK/GD32VW55x_RELEASE_V1.0.2/MSDK/cloud/alicloud/src/sdk-impl\sdk-impl.c **** 
  96:C:/Users/stapi/OneDrive/Desktop/GD32VW553/V1_MQTT_OK/GD32VW55X_Wifi_BLE_SDK/GD32VW55x_RELEASE_V1.0.2/MSDK/cloud/alicloud/src/sdk-impl\sdk-impl.c ****             rc = perform_dynamic_register((char *)product_key, (char *)product_secret, (char *)devi
  97:C:/Users/stapi/OneDrive/Desktop/GD32VW553/V1_MQTT_OK/GD32VW55X_Wifi_BLE_SDK/GD32VW55x_RELEASE_V1.0.2/MSDK/cloud/alicloud/src/sdk-impl\sdk-impl.c ****             if (rc != SUCCESS_RETURN) {
  98:C:/Users/stapi/OneDrive/Desktop/GD32VW553/V1_MQTT_OK/GD32VW55X_Wifi_BLE_SDK/GD32VW55x_RELEASE_V1.0.2/MSDK/cloud/alicloud/src/sdk-impl\sdk-impl.c ****                 sdk_err("Dynamic Register Failed");
  99:C:/Users/stapi/OneDrive/Desktop/GD32VW553/V1_MQTT_OK/GD32VW55X_Wifi_BLE_SDK/GD32VW55x_RELEASE_V1.0.2/MSDK/cloud/alicloud/src/sdk-impl\sdk-impl.c ****                 return FAIL_RETURN;
 100:C:/Users/stapi/OneDrive/Desktop/GD32VW553/V1_MQTT_OK/GD32VW55X_Wifi_BLE_SDK/GD32VW55x_RELEASE_V1.0.2/MSDK/cloud/alicloud/src/sdk-impl\sdk-impl.c ****             }
 101:C:/Users/stapi/OneDrive/Desktop/GD32VW553/V1_MQTT_OK/GD32VW55X_Wifi_BLE_SDK/GD32VW55x_RELEASE_V1.0.2/MSDK/cloud/alicloud/src/sdk-impl\sdk-impl.c **** 
 102:C:/Users/stapi/OneDrive/Desktop/GD32VW553/V1_MQTT_OK/GD32VW55X_Wifi_BLE_SDK/GD32VW55x_RELEASE_V1.0.2/MSDK/cloud/alicloud/src/sdk-impl\sdk-impl.c ****             device_secret_len = strlen(device_secret_actual);
 103:C:/Users/stapi/OneDrive/Desktop/GD32VW553/V1_MQTT_OK/GD32VW55X_Wifi_BLE_SDK/GD32VW55x_RELEASE_V1.0.2/MSDK/cloud/alicloud/src/sdk-impl\sdk-impl.c ****             if (HAL_Kv_Set(KV_KEY_DEVICE_SECRET, device_secret_actual, device_secret_len, 1) != 0) 
 104:C:/Users/stapi/OneDrive/Desktop/GD32VW553/V1_MQTT_OK/GD32VW55X_Wifi_BLE_SDK/GD32VW55x_RELEASE_V1.0.2/MSDK/cloud/alicloud/src/sdk-impl\sdk-impl.c ****                 sdk_err("Save Device Secret to KV Failed");
 105:C:/Users/stapi/OneDrive/Desktop/GD32VW553/V1_MQTT_OK/GD32VW55X_Wifi_BLE_SDK/GD32VW55x_RELEASE_V1.0.2/MSDK/cloud/alicloud/src/sdk-impl\sdk-impl.c ****                 return FAIL_RETURN;
 106:C:/Users/stapi/OneDrive/Desktop/GD32VW553/V1_MQTT_OK/GD32VW55X_Wifi_BLE_SDK/GD32VW55x_RELEASE_V1.0.2/MSDK/cloud/alicloud/src/sdk-impl\sdk-impl.c ****             }
 107:C:/Users/stapi/OneDrive/Desktop/GD32VW553/V1_MQTT_OK/GD32VW55X_Wifi_BLE_SDK/GD32VW55x_RELEASE_V1.0.2/MSDK/cloud/alicloud/src/sdk-impl\sdk-impl.c **** 
 108:C:/Users/stapi/OneDrive/Desktop/GD32VW553/V1_MQTT_OK/GD32VW55X_Wifi_BLE_SDK/GD32VW55x_RELEASE_V1.0.2/MSDK/cloud/alicloud/src/sdk-impl\sdk-impl.c ****             HAL_SetDeviceSecret(device_secret_actual);
 109:C:/Users/stapi/OneDrive/Desktop/GD32VW553/V1_MQTT_OK/GD32VW55X_Wifi_BLE_SDK/GD32VW55x_RELEASE_V1.0.2/MSDK/cloud/alicloud/src/sdk-impl\sdk-impl.c ****         }
 110:C:/Users/stapi/OneDrive/Desktop/GD32VW553/V1_MQTT_OK/GD32VW55X_Wifi_BLE_SDK/GD32VW55x_RELEASE_V1.0.2/MSDK/cloud/alicloud/src/sdk-impl\sdk-impl.c ****     }
 111:C:/Users/stapi/OneDrive/Desktop/GD32VW553/V1_MQTT_OK/GD32VW55X_Wifi_BLE_SDK/GD32VW55x_RELEASE_V1.0.2/MSDK/cloud/alicloud/src/sdk-impl\sdk-impl.c **** 
 112:C:/Users/stapi/OneDrive/Desktop/GD32VW553/V1_MQTT_OK/GD32VW55X_Wifi_BLE_SDK/GD32VW55x_RELEASE_V1.0.2/MSDK/cloud/alicloud/src/sdk-impl\sdk-impl.c ****     //iotx_device_info_set(product_key, device_name, device_secret_actual);
 113:C:/Users/stapi/OneDrive/Desktop/GD32VW553/V1_MQTT_OK/GD32VW55X_Wifi_BLE_SDK/GD32VW55x_RELEASE_V1.0.2/MSDK/cloud/alicloud/src/sdk-impl\sdk-impl.c **** 
 114:C:/Users/stapi/OneDrive/Desktop/GD32VW553/V1_MQTT_OK/GD32VW55X_Wifi_BLE_SDK/GD32VW55x_RELEASE_V1.0.2/MSDK/cloud/alicloud/src/sdk-impl\sdk-impl.c **** #if defined MQTT_COMM_ENABLED
 115:C:/Users/stapi/OneDrive/Desktop/GD32VW553/V1_MQTT_OK/GD32VW55X_Wifi_BLE_SDK/GD32VW55x_RELEASE_V1.0.2/MSDK/cloud/alicloud/src/sdk-impl\sdk-impl.c ****     if (NULL == info_ptr) {
 116:C:/Users/stapi/OneDrive/Desktop/GD32VW553/V1_MQTT_OK/GD32VW55X_Wifi_BLE_SDK/GD32VW55x_RELEASE_V1.0.2/MSDK/cloud/alicloud/src/sdk-impl\sdk-impl.c ****         return SUCCESS_RETURN;
 117:C:/Users/stapi/OneDrive/Desktop/GD32VW553/V1_MQTT_OK/GD32VW55X_Wifi_BLE_SDK/GD32VW55x_RELEASE_V1.0.2/MSDK/cloud/alicloud/src/sdk-impl\sdk-impl.c ****     }
 118:C:/Users/stapi/OneDrive/Desktop/GD32VW553/V1_MQTT_OK/GD32VW55X_Wifi_BLE_SDK/GD32VW55x_RELEASE_V1.0.2/MSDK/cloud/alicloud/src/sdk-impl\sdk-impl.c ****     *info_ptr = iotx_conn_info_reload(NULL, NULL);
 119:C:/Users/stapi/OneDrive/Desktop/GD32VW553/V1_MQTT_OK/GD32VW55X_Wifi_BLE_SDK/GD32VW55x_RELEASE_V1.0.2/MSDK/cloud/alicloud/src/sdk-impl\sdk-impl.c ****     if (*info_ptr == NULL) {
 120:C:/Users/stapi/OneDrive/Desktop/GD32VW553/V1_MQTT_OK/GD32VW55X_Wifi_BLE_SDK/GD32VW55x_RELEASE_V1.0.2/MSDK/cloud/alicloud/src/sdk-impl\sdk-impl.c ****         return -1;
 121:C:/Users/stapi/OneDrive/Desktop/GD32VW553/V1_MQTT_OK/GD32VW55X_Wifi_BLE_SDK/GD32VW55x_RELEASE_V1.0.2/MSDK/cloud/alicloud/src/sdk-impl\sdk-impl.c ****     }
 122:C:/Users/stapi/OneDrive/Desktop/GD32VW553/V1_MQTT_OK/GD32VW55X_Wifi_BLE_SDK/GD32VW55x_RELEASE_V1.0.2/MSDK/cloud/alicloud/src/sdk-impl\sdk-impl.c **** 
 123:C:/Users/stapi/OneDrive/Desktop/GD32VW553/V1_MQTT_OK/GD32VW55X_Wifi_BLE_SDK/GD32VW55x_RELEASE_V1.0.2/MSDK/cloud/alicloud/src/sdk-impl\sdk-impl.c **** #endif
 124:C:/Users/stapi/OneDrive/Desktop/GD32VW553/V1_MQTT_OK/GD32VW55X_Wifi_BLE_SDK/GD32VW55x_RELEASE_V1.0.2/MSDK/cloud/alicloud/src/sdk-impl\sdk-impl.c ****     return rc;
 125:C:/Users/stapi/OneDrive/Desktop/GD32VW553/V1_MQTT_OK/GD32VW55X_Wifi_BLE_SDK/GD32VW55x_RELEASE_V1.0.2/MSDK/cloud/alicloud/src/sdk-impl\sdk-impl.c **** }
 321              		.loc 1 125 1 is_stmt 0
 322 00a4 4961     		addi	sp,sp,144
 323              		.cfi_remember_state
 324              		.cfi_def_cfa_offset 0
 325 00a6 17030000 		tail	__riscv_restore_5
 325      67000300 
 326              		.cfi_restore 20
 327              		.cfi_restore 19
 328              		.cfi_restore 18
 329              		.cfi_restore 9
 330              		.cfi_restore 8
 331              		.cfi_restore 1
 332              		.cfi_def_cfa_offset -32
 333              	.LVL32:
 334              	.L12:
 335              		.cfi_restore_state
  58:C:/Users/stapi/OneDrive/Desktop/GD32VW553/V1_MQTT_OK/GD32VW55X_Wifi_BLE_SDK/GD32VW55x_RELEASE_V1.0.2/MSDK/cloud/alicloud/src/sdk-impl\sdk-impl.c ****     STRING_PTR_SANITY_CHECK(device_name, -1);
 336              		.loc 1 58 5 is_stmt 1 discriminator 4
  59:C:/Users/stapi/OneDrive/Desktop/GD32VW553/V1_MQTT_OK/GD32VW55X_Wifi_BLE_SDK/GD32VW55x_RELEASE_V1.0.2/MSDK/cloud/alicloud/src/sdk-impl\sdk-impl.c **** 
 337              		.loc 1 59 5 discriminator 4
  59:C:/Users/stapi/OneDrive/Desktop/GD32VW553/V1_MQTT_OK/GD32VW55X_Wifi_BLE_SDK/GD32VW55x_RELEASE_V1.0.2/MSDK/cloud/alicloud/src/sdk-impl\sdk-impl.c **** 
 338              		.loc 1 59 5 discriminator 4
 339 00ae 63100902 		bne	s2,zero,.L13
  59:C:/Users/stapi/OneDrive/Desktop/GD32VW553/V1_MQTT_OK/GD32VW55X_Wifi_BLE_SDK/GD32VW55x_RELEASE_V1.0.2/MSDK/cloud/alicloud/src/sdk-impl\sdk-impl.c **** 
 340              		.loc 1 59 5 discriminator 1
  59:C:/Users/stapi/OneDrive/Desktop/GD32VW553/V1_MQTT_OK/GD32VW55X_Wifi_BLE_SDK/GD32VW55x_RELEASE_V1.0.2/MSDK/cloud/alicloud/src/sdk-impl\sdk-impl.c **** 
 341              		.loc 1 59 5 discriminator 1
 342 00b2 37050000 		lui	a0,%hi(.LC0)
 343 00b6 13050500 		addi	a0,a0,%lo(.LC0)
 344 00ba 97000000 		call	HAL_Printf
 344      E7800000 
 345              	.LVL33:
  59:C:/Users/stapi/OneDrive/Desktop/GD32VW553/V1_MQTT_OK/GD32VW55X_Wifi_BLE_SDK/GD32VW55x_RELEASE_V1.0.2/MSDK/cloud/alicloud/src/sdk-impl\sdk-impl.c **** 
 346              		.loc 1 59 5 discriminator 1
 347 00c2 B7050000 		lui	a1,%hi(.LC9)
 348 00c6 0146     		li	a2,0
 349 00c8 93850500 		addi	a1,a1,%lo(.LC9)
 350 00cc 71B7     		j	.L28
 351              	.L13:
  59:C:/Users/stapi/OneDrive/Desktop/GD32VW553/V1_MQTT_OK/GD32VW55X_Wifi_BLE_SDK/GD32VW55x_RELEASE_V1.0.2/MSDK/cloud/alicloud/src/sdk-impl\sdk-impl.c **** 
 352              		.loc 1 59 5 discriminator 2
 353 00ce 83070900 		lb	a5,0(s2)
 354 00d2 99EF     		bne	a5,zero,.L14
  59:C:/Users/stapi/OneDrive/Desktop/GD32VW553/V1_MQTT_OK/GD32VW55X_Wifi_BLE_SDK/GD32VW55x_RELEASE_V1.0.2/MSDK/cloud/alicloud/src/sdk-impl\sdk-impl.c **** 
 355              		.loc 1 59 5 discriminator 3
  59:C:/Users/stapi/OneDrive/Desktop/GD32VW553/V1_MQTT_OK/GD32VW55X_Wifi_BLE_SDK/GD32VW55x_RELEASE_V1.0.2/MSDK/cloud/alicloud/src/sdk-impl\sdk-impl.c **** 
 356              		.loc 1 59 5 discriminator 3
 357 00d4 37050000 		lui	a0,%hi(.LC0)
 358 00d8 13050500 		addi	a0,a0,%lo(.LC0)
 359 00dc 97000000 		call	HAL_Printf
 359      E7800000 
 360              	.LVL34:
  59:C:/Users/stapi/OneDrive/Desktop/GD32VW553/V1_MQTT_OK/GD32VW55X_Wifi_BLE_SDK/GD32VW55x_RELEASE_V1.0.2/MSDK/cloud/alicloud/src/sdk-impl\sdk-impl.c **** 
 361              		.loc 1 59 5 discriminator 3
 362 00e4 B7050000 		lui	a1,%hi(.LC9)
 363 00e8 4A86     		mv	a2,s2
 364 00ea 93850500 		addi	a1,a1,%lo(.LC9)
 365 00ee 51BF     		j	.L27
 366              	.L14:
  59:C:/Users/stapi/OneDrive/Desktop/GD32VW553/V1_MQTT_OK/GD32VW55X_Wifi_BLE_SDK/GD32VW55x_RELEASE_V1.0.2/MSDK/cloud/alicloud/src/sdk-impl\sdk-impl.c **** 
 367              		.loc 1 59 5 discriminator 4
  61:C:/Users/stapi/OneDrive/Desktop/GD32VW553/V1_MQTT_OK/GD32VW55X_Wifi_BLE_SDK/GD32VW55x_RELEASE_V1.0.2/MSDK/cloud/alicloud/src/sdk-impl\sdk-impl.c ****     HAL_SetDeviceName((char *)device_name);
 368              		.loc 1 61 5 discriminator 4
 369 00f0 2685     		mv	a0,s1
 370 00f2 97000000 		call	HAL_SetProductKey
 370      E7800000 
 371              	.LVL35:
  62:C:/Users/stapi/OneDrive/Desktop/GD32VW553/V1_MQTT_OK/GD32VW55X_Wifi_BLE_SDK/GD32VW55x_RELEASE_V1.0.2/MSDK/cloud/alicloud/src/sdk-impl\sdk-impl.c ****     HAL_SetDeviceSecret((char *)device_secret);
 372              		.loc 1 62 5 discriminator 4
 373 00fa 4A85     		mv	a0,s2
 374 00fc 97000000 		call	HAL_SetDeviceName
 374      E7800000 
 375              	.LVL36:
  63:C:/Users/stapi/OneDrive/Desktop/GD32VW553/V1_MQTT_OK/GD32VW55X_Wifi_BLE_SDK/GD32VW55x_RELEASE_V1.0.2/MSDK/cloud/alicloud/src/sdk-impl\sdk-impl.c **** 
 376              		.loc 1 63 5 discriminator 4
 377 0104 2285     		mv	a0,s0
 378 0106 97000000 		call	HAL_SetDeviceSecret
 378      E7800000 
 379              	.LVL37:
  66:C:/Users/stapi/OneDrive/Desktop/GD32VW553/V1_MQTT_OK/GD32VW55X_Wifi_BLE_SDK/GD32VW55x_RELEASE_V1.0.2/MSDK/cloud/alicloud/src/sdk-impl\sdk-impl.c **** #if !defined(SUPPORT_ITLS)
 380              		.loc 1 66 5 discriminator 4
  66:C:/Users/stapi/OneDrive/Desktop/GD32VW553/V1_MQTT_OK/GD32VW55X_Wifi_BLE_SDK/GD32VW55x_RELEASE_V1.0.2/MSDK/cloud/alicloud/src/sdk-impl\sdk-impl.c **** #if !defined(SUPPORT_ITLS)
 381              		.loc 1 66 12 is_stmt 0 discriminator 4
 382 010e B7070000 		lui	a5,%hi(.LANCHOR0+12)
  66:C:/Users/stapi/OneDrive/Desktop/GD32VW553/V1_MQTT_OK/GD32VW55X_Wifi_BLE_SDK/GD32VW55x_RELEASE_V1.0.2/MSDK/cloud/alicloud/src/sdk-impl\sdk-impl.c **** #if !defined(SUPPORT_ITLS)
 383              		.loc 1 66 8 discriminator 4
 384 0112 83A7C700 		lw	a5,%lo(.LANCHOR0+12)(a5)
 385 0116 A5EF     		bne	a5,zero,.L15
  68:C:/Users/stapi/OneDrive/Desktop/GD32VW553/V1_MQTT_OK/GD32VW55X_Wifi_BLE_SDK/GD32VW55x_RELEASE_V1.0.2/MSDK/cloud/alicloud/src/sdk-impl\sdk-impl.c ****         memcpy(device_secret_actual, device_secret, strlen(device_secret));
 386              		.loc 1 68 9 is_stmt 1
  68:C:/Users/stapi/OneDrive/Desktop/GD32VW553/V1_MQTT_OK/GD32VW55X_Wifi_BLE_SDK/GD32VW55x_RELEASE_V1.0.2/MSDK/cloud/alicloud/src/sdk-impl\sdk-impl.c ****         memcpy(device_secret_actual, device_secret, strlen(device_secret));
 387              		.loc 1 68 9
 388 0118 19EC     		bne	s0,zero,.L16
  68:C:/Users/stapi/OneDrive/Desktop/GD32VW553/V1_MQTT_OK/GD32VW55X_Wifi_BLE_SDK/GD32VW55x_RELEASE_V1.0.2/MSDK/cloud/alicloud/src/sdk-impl\sdk-impl.c ****         memcpy(device_secret_actual, device_secret, strlen(device_secret));
 389              		.loc 1 68 9 discriminator 1
  68:C:/Users/stapi/OneDrive/Desktop/GD32VW553/V1_MQTT_OK/GD32VW55X_Wifi_BLE_SDK/GD32VW55x_RELEASE_V1.0.2/MSDK/cloud/alicloud/src/sdk-impl\sdk-impl.c ****         memcpy(device_secret_actual, device_secret, strlen(device_secret));
 390              		.loc 1 68 9 discriminator 1
 391 011a 37050000 		lui	a0,%hi(.LC0)
 392 011e 13050500 		addi	a0,a0,%lo(.LC0)
 393 0122 97000000 		call	HAL_Printf
 393      E7800000 
 394              	.LVL38:
  68:C:/Users/stapi/OneDrive/Desktop/GD32VW553/V1_MQTT_OK/GD32VW55X_Wifi_BLE_SDK/GD32VW55x_RELEASE_V1.0.2/MSDK/cloud/alicloud/src/sdk-impl\sdk-impl.c ****         memcpy(device_secret_actual, device_secret, strlen(device_secret));
 395              		.loc 1 68 9 discriminator 1
 396 012a B7050000 		lui	a1,%hi(.LC10)
 397 012e 0146     		li	a2,0
 398 0130 93850500 		addi	a1,a1,%lo(.LC10)
 399 0134 15B7     		j	.L28
 400              	.L16:
  68:C:/Users/stapi/OneDrive/Desktop/GD32VW553/V1_MQTT_OK/GD32VW55X_Wifi_BLE_SDK/GD32VW55x_RELEASE_V1.0.2/MSDK/cloud/alicloud/src/sdk-impl\sdk-impl.c ****         memcpy(device_secret_actual, device_secret, strlen(device_secret));
 401              		.loc 1 68 9 discriminator 2
 402 0136 83070400 		lb	a5,0(s0)
 403 013a 99EF     		bne	a5,zero,.L17
  68:C:/Users/stapi/OneDrive/Desktop/GD32VW553/V1_MQTT_OK/GD32VW55X_Wifi_BLE_SDK/GD32VW55x_RELEASE_V1.0.2/MSDK/cloud/alicloud/src/sdk-impl\sdk-impl.c ****         memcpy(device_secret_actual, device_secret, strlen(device_secret));
 404              		.loc 1 68 9 discriminator 3
  68:C:/Users/stapi/OneDrive/Desktop/GD32VW553/V1_MQTT_OK/GD32VW55X_Wifi_BLE_SDK/GD32VW55x_RELEASE_V1.0.2/MSDK/cloud/alicloud/src/sdk-impl\sdk-impl.c ****         memcpy(device_secret_actual, device_secret, strlen(device_secret));
 405              		.loc 1 68 9 discriminator 3
 406 013c 37050000 		lui	a0,%hi(.LC0)
 407 0140 13050500 		addi	a0,a0,%lo(.LC0)
 408 0144 97000000 		call	HAL_Printf
 408      E7800000 
 409              	.LVL39:
  68:C:/Users/stapi/OneDrive/Desktop/GD32VW553/V1_MQTT_OK/GD32VW55X_Wifi_BLE_SDK/GD32VW55x_RELEASE_V1.0.2/MSDK/cloud/alicloud/src/sdk-impl\sdk-impl.c ****         memcpy(device_secret_actual, device_secret, strlen(device_secret));
 410              		.loc 1 68 9 discriminator 3
 411 014c B7050000 		lui	a1,%hi(.LC10)
 412 0150 2286     		mv	a2,s0
 413 0152 93850500 		addi	a1,a1,%lo(.LC10)
 414 0156 35B7     		j	.L27
 415              	.L17:
  68:C:/Users/stapi/OneDrive/Desktop/GD32VW553/V1_MQTT_OK/GD32VW55X_Wifi_BLE_SDK/GD32VW55x_RELEASE_V1.0.2/MSDK/cloud/alicloud/src/sdk-impl\sdk-impl.c ****         memcpy(device_secret_actual, device_secret, strlen(device_secret));
 416              		.loc 1 68 9 discriminator 4
  69:C:/Users/stapi/OneDrive/Desktop/GD32VW553/V1_MQTT_OK/GD32VW55X_Wifi_BLE_SDK/GD32VW55x_RELEASE_V1.0.2/MSDK/cloud/alicloud/src/sdk-impl\sdk-impl.c **** #else
 417              		.loc 1 69 9 discriminator 4
 418 0158 2285     		mv	a0,s0
 419 015a 97000000 		call	strlen
 419      E7800000 
 420              	.LVL40:
 421 0162 2A86     		mv	a2,a0
 422 0164 A285     		mv	a1,s0
 423 0166 2800     		addi	a0,sp,8
 424 0168 97000000 		call	memcpy
 424      E7800000 
 425              	.LVL41:
 426              	.L18:
 115:C:/Users/stapi/OneDrive/Desktop/GD32VW553/V1_MQTT_OK/GD32VW55X_Wifi_BLE_SDK/GD32VW55x_RELEASE_V1.0.2/MSDK/cloud/alicloud/src/sdk-impl\sdk-impl.c ****         return SUCCESS_RETURN;
 427              		.loc 1 115 5
 116:C:/Users/stapi/OneDrive/Desktop/GD32VW553/V1_MQTT_OK/GD32VW55X_Wifi_BLE_SDK/GD32VW55x_RELEASE_V1.0.2/MSDK/cloud/alicloud/src/sdk-impl\sdk-impl.c ****     }
 428              		.loc 1 116 16 is_stmt 0
 429 0170 0145     		li	a0,0
 115:C:/Users/stapi/OneDrive/Desktop/GD32VW553/V1_MQTT_OK/GD32VW55X_Wifi_BLE_SDK/GD32VW55x_RELEASE_V1.0.2/MSDK/cloud/alicloud/src/sdk-impl\sdk-impl.c ****         return SUCCESS_RETURN;
 430              		.loc 1 115 8
 431 0172 E38909F2 		beq	s3,zero,.L9
 118:C:/Users/stapi/OneDrive/Desktop/GD32VW553/V1_MQTT_OK/GD32VW55X_Wifi_BLE_SDK/GD32VW55x_RELEASE_V1.0.2/MSDK/cloud/alicloud/src/sdk-impl\sdk-impl.c ****     if (*info_ptr == NULL) {
 432              		.loc 1 118 5 is_stmt 1
 118:C:/Users/stapi/OneDrive/Desktop/GD32VW553/V1_MQTT_OK/GD32VW55X_Wifi_BLE_SDK/GD32VW55x_RELEASE_V1.0.2/MSDK/cloud/alicloud/src/sdk-impl\sdk-impl.c ****     if (*info_ptr == NULL) {
 433              		.loc 1 118 17 is_stmt 0
 434 0176 8145     		li	a1,0
 435 0178 97000000 		call	iotx_conn_info_reload
 435      E7800000 
 436              	.LVL42:
 118:C:/Users/stapi/OneDrive/Desktop/GD32VW553/V1_MQTT_OK/GD32VW55X_Wifi_BLE_SDK/GD32VW55x_RELEASE_V1.0.2/MSDK/cloud/alicloud/src/sdk-impl\sdk-impl.c ****     if (*info_ptr == NULL) {
 437              		.loc 1 118 15
 438 0180 23A0A900 		sw	a0,0(s3)
 119:C:/Users/stapi/OneDrive/Desktop/GD32VW553/V1_MQTT_OK/GD32VW55X_Wifi_BLE_SDK/GD32VW55x_RELEASE_V1.0.2/MSDK/cloud/alicloud/src/sdk-impl\sdk-impl.c ****         return -1;
 439              		.loc 1 119 5 is_stmt 1
 119:C:/Users/stapi/OneDrive/Desktop/GD32VW553/V1_MQTT_OK/GD32VW55X_Wifi_BLE_SDK/GD32VW55x_RELEASE_V1.0.2/MSDK/cloud/alicloud/src/sdk-impl\sdk-impl.c ****         return -1;
 440              		.loc 1 119 8 is_stmt 0
 441 0184 13351500 		seqz	a0,a0
 442 0188 3305A040 		neg	a0,a0
 443 018c 21BF     		j	.L9
 444              	.LVL43:
 445              	.L15:
  79:C:/Users/stapi/OneDrive/Desktop/GD32VW553/V1_MQTT_OK/GD32VW55X_Wifi_BLE_SDK/GD32VW55x_RELEASE_V1.0.2/MSDK/cloud/alicloud/src/sdk-impl\sdk-impl.c ****             sdk_info("Get DeviceSecret from KV succeed");
 446              		.loc 1 79 9 is_stmt 1
  79:C:/Users/stapi/OneDrive/Desktop/GD32VW553/V1_MQTT_OK/GD32VW55X_Wifi_BLE_SDK/GD32VW55x_RELEASE_V1.0.2/MSDK/cloud/alicloud/src/sdk-impl\sdk-impl.c ****             sdk_info("Get DeviceSecret from KV succeed");
 447              		.loc 1 79 13 is_stmt 0
 448 018e 370A0000 		lui	s4,%hi(.LC11)
 449 0192 5000     		addi	a2,sp,4
 450 0194 2C00     		addi	a1,sp,8
 451 0196 13050A00 		addi	a0,s4,%lo(.LC11)
 452 019a 97000000 		call	aos_kv_get
 452      E7800000 
 453              	.LVL44:
 454 01a2 37040000 		lui	s0,%hi(.LC2)
 455              	.LVL45:
 456 01a6 B7070000 		lui	a5,%hi(.LC12)
  79:C:/Users/stapi/OneDrive/Desktop/GD32VW553/V1_MQTT_OK/GD32VW55X_Wifi_BLE_SDK/GD32VW55x_RELEASE_V1.0.2/MSDK/cloud/alicloud/src/sdk-impl\sdk-impl.c ****             sdk_info("Get DeviceSecret from KV succeed");
 457              		.loc 1 79 12
 458 01aa 21E1     		bne	a0,zero,.L19
  80:C:/Users/stapi/OneDrive/Desktop/GD32VW553/V1_MQTT_OK/GD32VW55X_Wifi_BLE_SDK/GD32VW55x_RELEASE_V1.0.2/MSDK/cloud/alicloud/src/sdk-impl\sdk-impl.c **** 
 459              		.loc 1 80 13 is_stmt 1
  80:C:/Users/stapi/OneDrive/Desktop/GD32VW553/V1_MQTT_OK/GD32VW55X_Wifi_BLE_SDK/GD32VW55x_RELEASE_V1.0.2/MSDK/cloud/alicloud/src/sdk-impl\sdk-impl.c **** 
 460              		.loc 1 80 13
 461 01ac 13850700 		addi	a0,a5,%lo(.LC12)
 462 01b0 97000000 		call	HAL_Printf
 462      E7800000 
 463              	.LVL46:
  80:C:/Users/stapi/OneDrive/Desktop/GD32VW553/V1_MQTT_OK/GD32VW55X_Wifi_BLE_SDK/GD32VW55x_RELEASE_V1.0.2/MSDK/cloud/alicloud/src/sdk-impl\sdk-impl.c **** 
 464              		.loc 1 80 13
 465 01b8 37050000 		lui	a0,%hi(.LC13)
 466 01bc 13050500 		addi	a0,a0,%lo(.LC13)
 467 01c0 97000000 		call	HAL_Printf
 467      E7800000 
 468              	.LVL47:
  80:C:/Users/stapi/OneDrive/Desktop/GD32VW553/V1_MQTT_OK/GD32VW55X_Wifi_BLE_SDK/GD32VW55x_RELEASE_V1.0.2/MSDK/cloud/alicloud/src/sdk-impl\sdk-impl.c **** 
 469              		.loc 1 80 13
 470 01c8 13050400 		addi	a0,s0,%lo(.LC2)
 471 01cc 97000000 		call	HAL_Printf
 471      E7800000 
 472              	.LVL48:
  80:C:/Users/stapi/OneDrive/Desktop/GD32VW553/V1_MQTT_OK/GD32VW55X_Wifi_BLE_SDK/GD32VW55x_RELEASE_V1.0.2/MSDK/cloud/alicloud/src/sdk-impl\sdk-impl.c **** 
 473              		.loc 1 80 13
  82:C:/Users/stapi/OneDrive/Desktop/GD32VW553/V1_MQTT_OK/GD32VW55X_Wifi_BLE_SDK/GD32VW55x_RELEASE_V1.0.2/MSDK/cloud/alicloud/src/sdk-impl\sdk-impl.c ****             HAL_SetDeviceSecret(device_secret_actual);
 474              		.loc 1 82 13
  82:C:/Users/stapi/OneDrive/Desktop/GD32VW553/V1_MQTT_OK/GD32VW55X_Wifi_BLE_SDK/GD32VW55x_RELEASE_V1.0.2/MSDK/cloud/alicloud/src/sdk-impl\sdk-impl.c ****             HAL_SetDeviceSecret(device_secret_actual);
 475              		.loc 1 82 57 is_stmt 0
 476 01d4 9247     		lw	a5,4(sp)
 477 01d6 1809     		addi	a4,sp,144
 478 01d8 BA97     		add	a5,a4,a5
 479 01da 238C07F6 		sb	zero,-136(a5)
  83:C:/Users/stapi/OneDrive/Desktop/GD32VW553/V1_MQTT_OK/GD32VW55X_Wifi_BLE_SDK/GD32VW55x_RELEASE_V1.0.2/MSDK/cloud/alicloud/src/sdk-impl\sdk-impl.c ****         } else {
 480              		.loc 1 83 13 is_stmt 1
 481              	.LVL49:
 482              	.L22:
 108:C:/Users/stapi/OneDrive/Desktop/GD32VW553/V1_MQTT_OK/GD32VW55X_Wifi_BLE_SDK/GD32VW55x_RELEASE_V1.0.2/MSDK/cloud/alicloud/src/sdk-impl\sdk-impl.c ****         }
 483              		.loc 1 108 13
 484 01de 2800     		addi	a0,sp,8
 485 01e0 97000000 		call	HAL_SetDeviceSecret
 485      E7800000 
 486              	.LVL50:
 487 01e8 61B7     		j	.L18
 488              	.LVL51:
 489              	.L19:
  86:C:/Users/stapi/OneDrive/Desktop/GD32VW553/V1_MQTT_OK/GD32VW55X_Wifi_BLE_SDK/GD32VW55x_RELEASE_V1.0.2/MSDK/cloud/alicloud/src/sdk-impl\sdk-impl.c **** 
 490              		.loc 1 86 13
  86:C:/Users/stapi/OneDrive/Desktop/GD32VW553/V1_MQTT_OK/GD32VW55X_Wifi_BLE_SDK/GD32VW55x_RELEASE_V1.0.2/MSDK/cloud/alicloud/src/sdk-impl\sdk-impl.c **** 
 491              		.loc 1 86 13
 492 01ea 13850700 		addi	a0,a5,%lo(.LC12)
 493 01ee 97000000 		call	HAL_Printf
 493      E7800000 
 494              	.LVL52:
  86:C:/Users/stapi/OneDrive/Desktop/GD32VW553/V1_MQTT_OK/GD32VW55X_Wifi_BLE_SDK/GD32VW55x_RELEASE_V1.0.2/MSDK/cloud/alicloud/src/sdk-impl\sdk-impl.c **** 
 495              		.loc 1 86 13
 496 01f6 37050000 		lui	a0,%hi(.LC14)
 497 01fa 13050500 		addi	a0,a0,%lo(.LC14)
 498 01fe 97000000 		call	HAL_Printf
 498      E7800000 
 499              	.LVL53:
  86:C:/Users/stapi/OneDrive/Desktop/GD32VW553/V1_MQTT_OK/GD32VW55X_Wifi_BLE_SDK/GD32VW55x_RELEASE_V1.0.2/MSDK/cloud/alicloud/src/sdk-impl\sdk-impl.c **** 
 500              		.loc 1 86 13
 501 0206 13050400 		addi	a0,s0,%lo(.LC2)
 502 020a 97000000 		call	HAL_Printf
 502      E7800000 
 503              	.LVL54:
  86:C:/Users/stapi/OneDrive/Desktop/GD32VW553/V1_MQTT_OK/GD32VW55X_Wifi_BLE_SDK/GD32VW55x_RELEASE_V1.0.2/MSDK/cloud/alicloud/src/sdk-impl\sdk-impl.c **** 
 504              		.loc 1 86 13
  89:C:/Users/stapi/OneDrive/Desktop/GD32VW553/V1_MQTT_OK/GD32VW55X_Wifi_BLE_SDK/GD32VW55x_RELEASE_V1.0.2/MSDK/cloud/alicloud/src/sdk-impl\sdk-impl.c ****             if (strlen(product_secret) == 0) {
 505              		.loc 1 89 13
 506 0212 E800     		addi	a0,sp,76
 507 0214 97000000 		call	HAL_GetProductSecret
 507      E7800000 
 508              	.LVL55:
  90:C:/Users/stapi/OneDrive/Desktop/GD32VW553/V1_MQTT_OK/GD32VW55X_Wifi_BLE_SDK/GD32VW55x_RELEASE_V1.0.2/MSDK/cloud/alicloud/src/sdk-impl\sdk-impl.c ****                 sdk_err("Product Secret Is Not Exist");
 509              		.loc 1 90 13
  90:C:/Users/stapi/OneDrive/Desktop/GD32VW553/V1_MQTT_OK/GD32VW55X_Wifi_BLE_SDK/GD32VW55x_RELEASE_V1.0.2/MSDK/cloud/alicloud/src/sdk-impl\sdk-impl.c ****                 sdk_err("Product Secret Is Not Exist");
 510              		.loc 1 90 16 is_stmt 0
 511 021c 8307C104 		lb	a5,76(sp)
 512 0220 85E7     		bne	a5,zero,.L20
  91:C:/Users/stapi/OneDrive/Desktop/GD32VW553/V1_MQTT_OK/GD32VW55X_Wifi_BLE_SDK/GD32VW55x_RELEASE_V1.0.2/MSDK/cloud/alicloud/src/sdk-impl\sdk-impl.c ****                 return FAIL_RETURN;
 513              		.loc 1 91 17 is_stmt 1
  91:C:/Users/stapi/OneDrive/Desktop/GD32VW553/V1_MQTT_OK/GD32VW55X_Wifi_BLE_SDK/GD32VW55x_RELEASE_V1.0.2/MSDK/cloud/alicloud/src/sdk-impl\sdk-impl.c ****                 return FAIL_RETURN;
 514              		.loc 1 91 17
 515 0222 37050000 		lui	a0,%hi(.LC0)
 516 0226 13050500 		addi	a0,a0,%lo(.LC0)
 517 022a 97000000 		call	HAL_Printf
 517      E7800000 
 518              	.LVL56:
  91:C:/Users/stapi/OneDrive/Desktop/GD32VW553/V1_MQTT_OK/GD32VW55X_Wifi_BLE_SDK/GD32VW55x_RELEASE_V1.0.2/MSDK/cloud/alicloud/src/sdk-impl\sdk-impl.c ****                 return FAIL_RETURN;
 519              		.loc 1 91 17
 520 0232 37050000 		lui	a0,%hi(.LC15)
 521 0236 13050500 		addi	a0,a0,%lo(.LC15)
 522              	.LVL57:
 523              	.L29:
 104:C:/Users/stapi/OneDrive/Desktop/GD32VW553/V1_MQTT_OK/GD32VW55X_Wifi_BLE_SDK/GD32VW55x_RELEASE_V1.0.2/MSDK/cloud/alicloud/src/sdk-impl\sdk-impl.c ****                 return FAIL_RETURN;
 524              		.loc 1 104 17 is_stmt 0
 525 023a 97000000 		call	HAL_Printf
 525      E7800000 
 526              	.LVL58:
 104:C:/Users/stapi/OneDrive/Desktop/GD32VW553/V1_MQTT_OK/GD32VW55X_Wifi_BLE_SDK/GD32VW55x_RELEASE_V1.0.2/MSDK/cloud/alicloud/src/sdk-impl\sdk-impl.c ****                 return FAIL_RETURN;
 527              		.loc 1 104 17 is_stmt 1
 528 0242 13050400 		addi	a0,s0,%lo(.LC2)
 529 0246 91BD     		j	.L26
 530              	.LVL59:
 531              	.L20:
  94:C:/Users/stapi/OneDrive/Desktop/GD32VW553/V1_MQTT_OK/GD32VW55X_Wifi_BLE_SDK/GD32VW55x_RELEASE_V1.0.2/MSDK/cloud/alicloud/src/sdk-impl\sdk-impl.c **** 
 532              		.loc 1 94 13 discriminator 4
  94:C:/Users/stapi/OneDrive/Desktop/GD32VW553/V1_MQTT_OK/GD32VW55X_Wifi_BLE_SDK/GD32VW55x_RELEASE_V1.0.2/MSDK/cloud/alicloud/src/sdk-impl\sdk-impl.c **** 
 533              		.loc 1 94 13 discriminator 4
  94:C:/Users/stapi/OneDrive/Desktop/GD32VW553/V1_MQTT_OK/GD32VW55X_Wifi_BLE_SDK/GD32VW55x_RELEASE_V1.0.2/MSDK/cloud/alicloud/src/sdk-impl\sdk-impl.c **** 
 534              		.loc 1 94 13 discriminator 4
  94:C:/Users/stapi/OneDrive/Desktop/GD32VW553/V1_MQTT_OK/GD32VW55X_Wifi_BLE_SDK/GD32VW55x_RELEASE_V1.0.2/MSDK/cloud/alicloud/src/sdk-impl\sdk-impl.c **** 
 535              		.loc 1 94 13 discriminator 4
  96:C:/Users/stapi/OneDrive/Desktop/GD32VW553/V1_MQTT_OK/GD32VW55X_Wifi_BLE_SDK/GD32VW55x_RELEASE_V1.0.2/MSDK/cloud/alicloud/src/sdk-impl\sdk-impl.c ****             if (rc != SUCCESS_RETURN) {
 536              		.loc 1 96 13 discriminator 4
  96:C:/Users/stapi/OneDrive/Desktop/GD32VW553/V1_MQTT_OK/GD32VW55X_Wifi_BLE_SDK/GD32VW55x_RELEASE_V1.0.2/MSDK/cloud/alicloud/src/sdk-impl\sdk-impl.c ****             if (rc != SUCCESS_RETURN) {
 537              		.loc 1 96 18 is_stmt 0 discriminator 4
 538 0248 3400     		addi	a3,sp,8
 539 024a 4A86     		mv	a2,s2
 540 024c EC00     		addi	a1,sp,76
 541 024e 2685     		mv	a0,s1
 542 0250 97000000 		call	perform_dynamic_register
 542      E7800000 
 543              	.LVL60:
  97:C:/Users/stapi/OneDrive/Desktop/GD32VW553/V1_MQTT_OK/GD32VW55X_Wifi_BLE_SDK/GD32VW55x_RELEASE_V1.0.2/MSDK/cloud/alicloud/src/sdk-impl\sdk-impl.c ****                 sdk_err("Dynamic Register Failed");
 544              		.loc 1 97 13 is_stmt 1 discriminator 4
  97:C:/Users/stapi/OneDrive/Desktop/GD32VW553/V1_MQTT_OK/GD32VW55X_Wifi_BLE_SDK/GD32VW55x_RELEASE_V1.0.2/MSDK/cloud/alicloud/src/sdk-impl\sdk-impl.c ****                 sdk_err("Dynamic Register Failed");
 545              		.loc 1 97 16 is_stmt 0 discriminator 4
 546 0258 11CD     		beq	a0,zero,.L21
  98:C:/Users/stapi/OneDrive/Desktop/GD32VW553/V1_MQTT_OK/GD32VW55X_Wifi_BLE_SDK/GD32VW55x_RELEASE_V1.0.2/MSDK/cloud/alicloud/src/sdk-impl\sdk-impl.c ****                 return FAIL_RETURN;
 547              		.loc 1 98 17 is_stmt 1
  98:C:/Users/stapi/OneDrive/Desktop/GD32VW553/V1_MQTT_OK/GD32VW55X_Wifi_BLE_SDK/GD32VW55x_RELEASE_V1.0.2/MSDK/cloud/alicloud/src/sdk-impl\sdk-impl.c ****                 return FAIL_RETURN;
 548              		.loc 1 98 17
 549 025a 37050000 		lui	a0,%hi(.LC0)
 550              	.LVL61:
 551 025e 13050500 		addi	a0,a0,%lo(.LC0)
 552 0262 97000000 		call	HAL_Printf
 552      E7800000 
 553              	.LVL62:
  98:C:/Users/stapi/OneDrive/Desktop/GD32VW553/V1_MQTT_OK/GD32VW55X_Wifi_BLE_SDK/GD32VW55x_RELEASE_V1.0.2/MSDK/cloud/alicloud/src/sdk-impl\sdk-impl.c ****                 return FAIL_RETURN;
 554              		.loc 1 98 17
 555 026a 37050000 		lui	a0,%hi(.LC16)
 556 026e 13050500 		addi	a0,a0,%lo(.LC16)
 557 0272 E1B7     		j	.L29
 558              	.LVL63:
 559              	.L21:
 102:C:/Users/stapi/OneDrive/Desktop/GD32VW553/V1_MQTT_OK/GD32VW55X_Wifi_BLE_SDK/GD32VW55x_RELEASE_V1.0.2/MSDK/cloud/alicloud/src/sdk-impl\sdk-impl.c ****             if (HAL_Kv_Set(KV_KEY_DEVICE_SECRET, device_secret_actual, device_secret_len, 1) != 0) 
 560              		.loc 1 102 13
 102:C:/Users/stapi/OneDrive/Desktop/GD32VW553/V1_MQTT_OK/GD32VW55X_Wifi_BLE_SDK/GD32VW55x_RELEASE_V1.0.2/MSDK/cloud/alicloud/src/sdk-impl\sdk-impl.c ****             if (HAL_Kv_Set(KV_KEY_DEVICE_SECRET, device_secret_actual, device_secret_len, 1) != 0) 
 561              		.loc 1 102 33 is_stmt 0
 562 0274 2800     		addi	a0,sp,8
 563              	.LVL64:
 564 0276 97000000 		call	strlen
 564      E7800000 
 565              	.LVL65:
 566 027e 2A86     		mv	a2,a0
 102:C:/Users/stapi/OneDrive/Desktop/GD32VW553/V1_MQTT_OK/GD32VW55X_Wifi_BLE_SDK/GD32VW55x_RELEASE_V1.0.2/MSDK/cloud/alicloud/src/sdk-impl\sdk-impl.c ****             if (HAL_Kv_Set(KV_KEY_DEVICE_SECRET, device_secret_actual, device_secret_len, 1) != 0) 
 567              		.loc 1 102 31
 568 0280 2AC2     		sw	a0,4(sp)
 103:C:/Users/stapi/OneDrive/Desktop/GD32VW553/V1_MQTT_OK/GD32VW55X_Wifi_BLE_SDK/GD32VW55x_RELEASE_V1.0.2/MSDK/cloud/alicloud/src/sdk-impl\sdk-impl.c ****                 sdk_err("Save Device Secret to KV Failed");
 569              		.loc 1 103 13 is_stmt 1
 103:C:/Users/stapi/OneDrive/Desktop/GD32VW553/V1_MQTT_OK/GD32VW55X_Wifi_BLE_SDK/GD32VW55x_RELEASE_V1.0.2/MSDK/cloud/alicloud/src/sdk-impl\sdk-impl.c ****                 sdk_err("Save Device Secret to KV Failed");
 570              		.loc 1 103 17 is_stmt 0
 571 0282 8546     		li	a3,1
 572 0284 2C00     		addi	a1,sp,8
 573 0286 13050A00 		addi	a0,s4,%lo(.LC11)
 574 028a 97000000 		call	aos_kv_set
 574      E7800000 
 575              	.LVL66:
 103:C:/Users/stapi/OneDrive/Desktop/GD32VW553/V1_MQTT_OK/GD32VW55X_Wifi_BLE_SDK/GD32VW55x_RELEASE_V1.0.2/MSDK/cloud/alicloud/src/sdk-impl\sdk-impl.c ****                 sdk_err("Save Device Secret to KV Failed");
 576              		.loc 1 103 16
 577 0292 31D5     		beq	a0,zero,.L22
 104:C:/Users/stapi/OneDrive/Desktop/GD32VW553/V1_MQTT_OK/GD32VW55X_Wifi_BLE_SDK/GD32VW55x_RELEASE_V1.0.2/MSDK/cloud/alicloud/src/sdk-impl\sdk-impl.c ****                 return FAIL_RETURN;
 578              		.loc 1 104 17 is_stmt 1
 104:C:/Users/stapi/OneDrive/Desktop/GD32VW553/V1_MQTT_OK/GD32VW55X_Wifi_BLE_SDK/GD32VW55x_RELEASE_V1.0.2/MSDK/cloud/alicloud/src/sdk-impl\sdk-impl.c ****                 return FAIL_RETURN;
 579              		.loc 1 104 17
 580 0294 37050000 		lui	a0,%hi(.LC0)
 581 0298 13050500 		addi	a0,a0,%lo(.LC0)
 582 029c 97000000 		call	HAL_Printf
 582      E7800000 
 583              	.LVL67:
 104:C:/Users/stapi/OneDrive/Desktop/GD32VW553/V1_MQTT_OK/GD32VW55X_Wifi_BLE_SDK/GD32VW55x_RELEASE_V1.0.2/MSDK/cloud/alicloud/src/sdk-impl\sdk-impl.c ****                 return FAIL_RETURN;
 584              		.loc 1 104 17
 585 02a4 37050000 		lui	a0,%hi(.LC17)
 586 02a8 13050500 		addi	a0,a0,%lo(.LC17)
 587 02ac 79B7     		j	.L29
 588              		.cfi_endproc
 589              	.LFE23:
 591              		.section	.rodata.IOT_Ioctl.str1.4,"aMS",@progbits,1
 592              		.align	2
 593              	.LC18:
 594 0000 496E7661 		.string	"Invalid Parameter"
 594      6C696420 
 594      50617261 
 594      6D657465 
 594      7200
 595 0012 0000     		.align	2
 596              	.LC19:
 597 0014 556E6B6E 		.string	"Unknown Ioctl Option"
 597      6F776E20 
 597      496F6374 
 597      6C204F70 
 597      74696F6E 
 598              		.section	.text.IOT_Ioctl,"ax",@progbits
 599              		.align	1
 600              		.globl	IOT_Ioctl
 602              	IOT_Ioctl:
 603              	.LFB24:
 126:C:/Users/stapi/OneDrive/Desktop/GD32VW553/V1_MQTT_OK/GD32VW55X_Wifi_BLE_SDK/GD32VW55x_RELEASE_V1.0.2/MSDK/cloud/alicloud/src/sdk-impl\sdk-impl.c **** 
 127:C:/Users/stapi/OneDrive/Desktop/GD32VW553/V1_MQTT_OK/GD32VW55X_Wifi_BLE_SDK/GD32VW55x_RELEASE_V1.0.2/MSDK/cloud/alicloud/src/sdk-impl\sdk-impl.c **** int IOT_Ioctl(int option, void *data)
 128:C:/Users/stapi/OneDrive/Desktop/GD32VW553/V1_MQTT_OK/GD32VW55X_Wifi_BLE_SDK/GD32VW55x_RELEASE_V1.0.2/MSDK/cloud/alicloud/src/sdk-impl\sdk-impl.c **** {
 604              		.loc 1 128 1
 605              		.cfi_startproc
 606              	.LVL68:
 607 0000 17030000 		call	t0,__riscv_save_0
 607      E7020300 
 608              		.cfi_offset 1, -4
 609              		.cfi_def_cfa_offset 16
 129:C:/Users/stapi/OneDrive/Desktop/GD32VW553/V1_MQTT_OK/GD32VW55X_Wifi_BLE_SDK/GD32VW55x_RELEASE_V1.0.2/MSDK/cloud/alicloud/src/sdk-impl\sdk-impl.c ****     int                 res = SUCCESS_RETURN;
 610              		.loc 1 129 5
 611              	.LVL69:
 130:C:/Users/stapi/OneDrive/Desktop/GD32VW553/V1_MQTT_OK/GD32VW55X_Wifi_BLE_SDK/GD32VW55x_RELEASE_V1.0.2/MSDK/cloud/alicloud/src/sdk-impl\sdk-impl.c ****     sdk_impl_ctx_t     *ctx = sdk_impl_get_ctx();
 612              		.loc 1 130 5
  17:C:/Users/stapi/OneDrive/Desktop/GD32VW553/V1_MQTT_OK/GD32VW55X_Wifi_BLE_SDK/GD32VW55x_RELEASE_V1.0.2/MSDK/cloud/alicloud/src/sdk-impl\sdk-impl.c **** }
 613              		.loc 1 17 5
 131:C:/Users/stapi/OneDrive/Desktop/GD32VW553/V1_MQTT_OK/GD32VW55X_Wifi_BLE_SDK/GD32VW55x_RELEASE_V1.0.2/MSDK/cloud/alicloud/src/sdk-impl\sdk-impl.c **** 
 132:C:/Users/stapi/OneDrive/Desktop/GD32VW553/V1_MQTT_OK/GD32VW55X_Wifi_BLE_SDK/GD32VW55x_RELEASE_V1.0.2/MSDK/cloud/alicloud/src/sdk-impl\sdk-impl.c ****     if (option < 0 || data == NULL) {
 614              		.loc 1 132 5
 615              		.loc 1 132 8 is_stmt 0
 616 0008 63430500 		blt	a0,zero,.L31
 617              		.loc 1 132 20 discriminator 1
 618 000c 9DE9     		bne	a1,zero,.L32
 619              	.L31:
 133:C:/Users/stapi/OneDrive/Desktop/GD32VW553/V1_MQTT_OK/GD32VW55X_Wifi_BLE_SDK/GD32VW55x_RELEASE_V1.0.2/MSDK/cloud/alicloud/src/sdk-impl\sdk-impl.c ****         sdk_err("Invalid Parameter");
 620              		.loc 1 133 9 is_stmt 1
 621              		.loc 1 133 9
 622 000e 37050000 		lui	a0,%hi(.LC0)
 623              	.LVL70:
 624 0012 13050500 		addi	a0,a0,%lo(.LC0)
 625 0016 97000000 		call	HAL_Printf
 625      E7800000 
 626              	.LVL71:
 627              		.loc 1 133 9
 628 001e 37050000 		lui	a0,%hi(.LC18)
 629 0022 13050500 		addi	a0,a0,%lo(.LC18)
 630              	.L49:
 134:C:/Users/stapi/OneDrive/Desktop/GD32VW553/V1_MQTT_OK/GD32VW55X_Wifi_BLE_SDK/GD32VW55x_RELEASE_V1.0.2/MSDK/cloud/alicloud/src/sdk-impl\sdk-impl.c ****         return FAIL_RETURN;
 135:C:/Users/stapi/OneDrive/Desktop/GD32VW553/V1_MQTT_OK/GD32VW55X_Wifi_BLE_SDK/GD32VW55x_RELEASE_V1.0.2/MSDK/cloud/alicloud/src/sdk-impl\sdk-impl.c ****     }
 136:C:/Users/stapi/OneDrive/Desktop/GD32VW553/V1_MQTT_OK/GD32VW55X_Wifi_BLE_SDK/GD32VW55x_RELEASE_V1.0.2/MSDK/cloud/alicloud/src/sdk-impl\sdk-impl.c **** 
 137:C:/Users/stapi/OneDrive/Desktop/GD32VW553/V1_MQTT_OK/GD32VW55X_Wifi_BLE_SDK/GD32VW55x_RELEASE_V1.0.2/MSDK/cloud/alicloud/src/sdk-impl\sdk-impl.c ****     switch (option) {
 138:C:/Users/stapi/OneDrive/Desktop/GD32VW553/V1_MQTT_OK/GD32VW55X_Wifi_BLE_SDK/GD32VW55x_RELEASE_V1.0.2/MSDK/cloud/alicloud/src/sdk-impl\sdk-impl.c ****         case IOTX_IOCTL_SET_REGION: {
 139:C:/Users/stapi/OneDrive/Desktop/GD32VW553/V1_MQTT_OK/GD32VW55X_Wifi_BLE_SDK/GD32VW55x_RELEASE_V1.0.2/MSDK/cloud/alicloud/src/sdk-impl\sdk-impl.c ****             ctx->domain_type = *(iotx_cloud_region_types_t *)data;
 140:C:/Users/stapi/OneDrive/Desktop/GD32VW553/V1_MQTT_OK/GD32VW55X_Wifi_BLE_SDK/GD32VW55x_RELEASE_V1.0.2/MSDK/cloud/alicloud/src/sdk-impl\sdk-impl.c **** 
 141:C:/Users/stapi/OneDrive/Desktop/GD32VW553/V1_MQTT_OK/GD32VW55X_Wifi_BLE_SDK/GD32VW55x_RELEASE_V1.0.2/MSDK/cloud/alicloud/src/sdk-impl\sdk-impl.c ****             res = SUCCESS_RETURN;
 142:C:/Users/stapi/OneDrive/Desktop/GD32VW553/V1_MQTT_OK/GD32VW55X_Wifi_BLE_SDK/GD32VW55x_RELEASE_V1.0.2/MSDK/cloud/alicloud/src/sdk-impl\sdk-impl.c ****         }
 143:C:/Users/stapi/OneDrive/Desktop/GD32VW553/V1_MQTT_OK/GD32VW55X_Wifi_BLE_SDK/GD32VW55x_RELEASE_V1.0.2/MSDK/cloud/alicloud/src/sdk-impl\sdk-impl.c ****         break;
 144:C:/Users/stapi/OneDrive/Desktop/GD32VW553/V1_MQTT_OK/GD32VW55X_Wifi_BLE_SDK/GD32VW55x_RELEASE_V1.0.2/MSDK/cloud/alicloud/src/sdk-impl\sdk-impl.c ****         case IOTX_IOCTL_GET_REGION: {
 145:C:/Users/stapi/OneDrive/Desktop/GD32VW553/V1_MQTT_OK/GD32VW55X_Wifi_BLE_SDK/GD32VW55x_RELEASE_V1.0.2/MSDK/cloud/alicloud/src/sdk-impl\sdk-impl.c ****             *(iotx_cloud_region_types_t *)data = ctx->domain_type;
 146:C:/Users/stapi/OneDrive/Desktop/GD32VW553/V1_MQTT_OK/GD32VW55X_Wifi_BLE_SDK/GD32VW55x_RELEASE_V1.0.2/MSDK/cloud/alicloud/src/sdk-impl\sdk-impl.c **** 
 147:C:/Users/stapi/OneDrive/Desktop/GD32VW553/V1_MQTT_OK/GD32VW55X_Wifi_BLE_SDK/GD32VW55x_RELEASE_V1.0.2/MSDK/cloud/alicloud/src/sdk-impl\sdk-impl.c ****             res = SUCCESS_RETURN;
 148:C:/Users/stapi/OneDrive/Desktop/GD32VW553/V1_MQTT_OK/GD32VW55X_Wifi_BLE_SDK/GD32VW55x_RELEASE_V1.0.2/MSDK/cloud/alicloud/src/sdk-impl\sdk-impl.c ****         }
 149:C:/Users/stapi/OneDrive/Desktop/GD32VW553/V1_MQTT_OK/GD32VW55X_Wifi_BLE_SDK/GD32VW55x_RELEASE_V1.0.2/MSDK/cloud/alicloud/src/sdk-impl\sdk-impl.c ****         break;
 150:C:/Users/stapi/OneDrive/Desktop/GD32VW553/V1_MQTT_OK/GD32VW55X_Wifi_BLE_SDK/GD32VW55x_RELEASE_V1.0.2/MSDK/cloud/alicloud/src/sdk-impl\sdk-impl.c ****         case IOTX_IOCTL_SET_MQTT_DOMAIN: {
 151:C:/Users/stapi/OneDrive/Desktop/GD32VW553/V1_MQTT_OK/GD32VW55X_Wifi_BLE_SDK/GD32VW55x_RELEASE_V1.0.2/MSDK/cloud/alicloud/src/sdk-impl\sdk-impl.c ****             ctx->domain_type = IOTX_CLOUD_REGION_CUSTOM;
 152:C:/Users/stapi/OneDrive/Desktop/GD32VW553/V1_MQTT_OK/GD32VW55X_Wifi_BLE_SDK/GD32VW55x_RELEASE_V1.0.2/MSDK/cloud/alicloud/src/sdk-impl\sdk-impl.c **** 
 153:C:/Users/stapi/OneDrive/Desktop/GD32VW553/V1_MQTT_OK/GD32VW55X_Wifi_BLE_SDK/GD32VW55x_RELEASE_V1.0.2/MSDK/cloud/alicloud/src/sdk-impl\sdk-impl.c ****             res = iotx_guider_set_custom_domain(GUIDER_DOMAIN_MQTT, (const char *)data);
 154:C:/Users/stapi/OneDrive/Desktop/GD32VW553/V1_MQTT_OK/GD32VW55X_Wifi_BLE_SDK/GD32VW55x_RELEASE_V1.0.2/MSDK/cloud/alicloud/src/sdk-impl\sdk-impl.c ****         }
 155:C:/Users/stapi/OneDrive/Desktop/GD32VW553/V1_MQTT_OK/GD32VW55X_Wifi_BLE_SDK/GD32VW55x_RELEASE_V1.0.2/MSDK/cloud/alicloud/src/sdk-impl\sdk-impl.c ****         break;
 156:C:/Users/stapi/OneDrive/Desktop/GD32VW553/V1_MQTT_OK/GD32VW55X_Wifi_BLE_SDK/GD32VW55x_RELEASE_V1.0.2/MSDK/cloud/alicloud/src/sdk-impl\sdk-impl.c ****         case IOTX_IOCTL_SET_MQTT_PORT: {
 157:C:/Users/stapi/OneDrive/Desktop/GD32VW553/V1_MQTT_OK/GD32VW55X_Wifi_BLE_SDK/GD32VW55x_RELEASE_V1.0.2/MSDK/cloud/alicloud/src/sdk-impl\sdk-impl.c ****             ctx->mqtt_port_num = *(uint16_t *)data;
 158:C:/Users/stapi/OneDrive/Desktop/GD32VW553/V1_MQTT_OK/GD32VW55X_Wifi_BLE_SDK/GD32VW55x_RELEASE_V1.0.2/MSDK/cloud/alicloud/src/sdk-impl\sdk-impl.c ****             res = SUCCESS_RETURN;
 159:C:/Users/stapi/OneDrive/Desktop/GD32VW553/V1_MQTT_OK/GD32VW55X_Wifi_BLE_SDK/GD32VW55x_RELEASE_V1.0.2/MSDK/cloud/alicloud/src/sdk-impl\sdk-impl.c ****         }
 160:C:/Users/stapi/OneDrive/Desktop/GD32VW553/V1_MQTT_OK/GD32VW55X_Wifi_BLE_SDK/GD32VW55x_RELEASE_V1.0.2/MSDK/cloud/alicloud/src/sdk-impl\sdk-impl.c ****         break;
 161:C:/Users/stapi/OneDrive/Desktop/GD32VW553/V1_MQTT_OK/GD32VW55X_Wifi_BLE_SDK/GD32VW55x_RELEASE_V1.0.2/MSDK/cloud/alicloud/src/sdk-impl\sdk-impl.c ****         case IOTX_IOCTL_SET_ENV: {
 162:C:/Users/stapi/OneDrive/Desktop/GD32VW553/V1_MQTT_OK/GD32VW55X_Wifi_BLE_SDK/GD32VW55x_RELEASE_V1.0.2/MSDK/cloud/alicloud/src/sdk-impl\sdk-impl.c ****             ctx->env = *(uint16_t *)data;
 163:C:/Users/stapi/OneDrive/Desktop/GD32VW553/V1_MQTT_OK/GD32VW55X_Wifi_BLE_SDK/GD32VW55x_RELEASE_V1.0.2/MSDK/cloud/alicloud/src/sdk-impl\sdk-impl.c ****             res = SUCCESS_RETURN;
 164:C:/Users/stapi/OneDrive/Desktop/GD32VW553/V1_MQTT_OK/GD32VW55X_Wifi_BLE_SDK/GD32VW55x_RELEASE_V1.0.2/MSDK/cloud/alicloud/src/sdk-impl\sdk-impl.c ****         }
 165:C:/Users/stapi/OneDrive/Desktop/GD32VW553/V1_MQTT_OK/GD32VW55X_Wifi_BLE_SDK/GD32VW55x_RELEASE_V1.0.2/MSDK/cloud/alicloud/src/sdk-impl\sdk-impl.c ****         break;
 166:C:/Users/stapi/OneDrive/Desktop/GD32VW553/V1_MQTT_OK/GD32VW55X_Wifi_BLE_SDK/GD32VW55x_RELEASE_V1.0.2/MSDK/cloud/alicloud/src/sdk-impl\sdk-impl.c ****         case IOTX_IOCTL_SET_HTTP_DOMAIN: {
 167:C:/Users/stapi/OneDrive/Desktop/GD32VW553/V1_MQTT_OK/GD32VW55X_Wifi_BLE_SDK/GD32VW55x_RELEASE_V1.0.2/MSDK/cloud/alicloud/src/sdk-impl\sdk-impl.c ****             ctx->domain_type = IOTX_CLOUD_REGION_CUSTOM;
 168:C:/Users/stapi/OneDrive/Desktop/GD32VW553/V1_MQTT_OK/GD32VW55X_Wifi_BLE_SDK/GD32VW55x_RELEASE_V1.0.2/MSDK/cloud/alicloud/src/sdk-impl\sdk-impl.c **** 
 169:C:/Users/stapi/OneDrive/Desktop/GD32VW553/V1_MQTT_OK/GD32VW55X_Wifi_BLE_SDK/GD32VW55x_RELEASE_V1.0.2/MSDK/cloud/alicloud/src/sdk-impl\sdk-impl.c ****             res = iotx_guider_set_custom_domain(GUIDER_DOMAIN_HTTP, (const char *)data);
 170:C:/Users/stapi/OneDrive/Desktop/GD32VW553/V1_MQTT_OK/GD32VW55X_Wifi_BLE_SDK/GD32VW55x_RELEASE_V1.0.2/MSDK/cloud/alicloud/src/sdk-impl\sdk-impl.c ****         }
 171:C:/Users/stapi/OneDrive/Desktop/GD32VW553/V1_MQTT_OK/GD32VW55X_Wifi_BLE_SDK/GD32VW55x_RELEASE_V1.0.2/MSDK/cloud/alicloud/src/sdk-impl\sdk-impl.c ****         break;
 172:C:/Users/stapi/OneDrive/Desktop/GD32VW553/V1_MQTT_OK/GD32VW55X_Wifi_BLE_SDK/GD32VW55x_RELEASE_V1.0.2/MSDK/cloud/alicloud/src/sdk-impl\sdk-impl.c ****         case IOTX_IOCTL_SET_DYNAMIC_REGISTER: {
 173:C:/Users/stapi/OneDrive/Desktop/GD32VW553/V1_MQTT_OK/GD32VW55X_Wifi_BLE_SDK/GD32VW55x_RELEASE_V1.0.2/MSDK/cloud/alicloud/src/sdk-impl\sdk-impl.c ****             ctx->dynamic_register = *(int *)data;
 174:C:/Users/stapi/OneDrive/Desktop/GD32VW553/V1_MQTT_OK/GD32VW55X_Wifi_BLE_SDK/GD32VW55x_RELEASE_V1.0.2/MSDK/cloud/alicloud/src/sdk-impl\sdk-impl.c **** 
 175:C:/Users/stapi/OneDrive/Desktop/GD32VW553/V1_MQTT_OK/GD32VW55X_Wifi_BLE_SDK/GD32VW55x_RELEASE_V1.0.2/MSDK/cloud/alicloud/src/sdk-impl\sdk-impl.c ****             res = SUCCESS_RETURN;
 176:C:/Users/stapi/OneDrive/Desktop/GD32VW553/V1_MQTT_OK/GD32VW55X_Wifi_BLE_SDK/GD32VW55x_RELEASE_V1.0.2/MSDK/cloud/alicloud/src/sdk-impl\sdk-impl.c ****         }
 177:C:/Users/stapi/OneDrive/Desktop/GD32VW553/V1_MQTT_OK/GD32VW55X_Wifi_BLE_SDK/GD32VW55x_RELEASE_V1.0.2/MSDK/cloud/alicloud/src/sdk-impl\sdk-impl.c ****         break;
 178:C:/Users/stapi/OneDrive/Desktop/GD32VW553/V1_MQTT_OK/GD32VW55X_Wifi_BLE_SDK/GD32VW55x_RELEASE_V1.0.2/MSDK/cloud/alicloud/src/sdk-impl\sdk-impl.c ****         case IOTX_IOCTL_GET_DYNAMIC_REGISTER: {
 179:C:/Users/stapi/OneDrive/Desktop/GD32VW553/V1_MQTT_OK/GD32VW55X_Wifi_BLE_SDK/GD32VW55x_RELEASE_V1.0.2/MSDK/cloud/alicloud/src/sdk-impl\sdk-impl.c ****             *(int *)data = ctx->dynamic_register;
 180:C:/Users/stapi/OneDrive/Desktop/GD32VW553/V1_MQTT_OK/GD32VW55X_Wifi_BLE_SDK/GD32VW55x_RELEASE_V1.0.2/MSDK/cloud/alicloud/src/sdk-impl\sdk-impl.c **** 
 181:C:/Users/stapi/OneDrive/Desktop/GD32VW553/V1_MQTT_OK/GD32VW55X_Wifi_BLE_SDK/GD32VW55x_RELEASE_V1.0.2/MSDK/cloud/alicloud/src/sdk-impl\sdk-impl.c ****             res = SUCCESS_RETURN;
 182:C:/Users/stapi/OneDrive/Desktop/GD32VW553/V1_MQTT_OK/GD32VW55X_Wifi_BLE_SDK/GD32VW55x_RELEASE_V1.0.2/MSDK/cloud/alicloud/src/sdk-impl\sdk-impl.c ****         }
 183:C:/Users/stapi/OneDrive/Desktop/GD32VW553/V1_MQTT_OK/GD32VW55X_Wifi_BLE_SDK/GD32VW55x_RELEASE_V1.0.2/MSDK/cloud/alicloud/src/sdk-impl\sdk-impl.c ****         break;
 184:C:/Users/stapi/OneDrive/Desktop/GD32VW553/V1_MQTT_OK/GD32VW55X_Wifi_BLE_SDK/GD32VW55x_RELEASE_V1.0.2/MSDK/cloud/alicloud/src/sdk-impl\sdk-impl.c **** #ifdef REPORT_UUID_ENABLE
 185:C:/Users/stapi/OneDrive/Desktop/GD32VW553/V1_MQTT_OK/GD32VW55X_Wifi_BLE_SDK/GD32VW55x_RELEASE_V1.0.2/MSDK/cloud/alicloud/src/sdk-impl\sdk-impl.c ****         case IOTX_IOCTL_SET_UUID_ENABLED: {
 186:C:/Users/stapi/OneDrive/Desktop/GD32VW553/V1_MQTT_OK/GD32VW55X_Wifi_BLE_SDK/GD32VW55x_RELEASE_V1.0.2/MSDK/cloud/alicloud/src/sdk-impl\sdk-impl.c ****             ctx->uuid_enabled = *(int *)data;
 187:C:/Users/stapi/OneDrive/Desktop/GD32VW553/V1_MQTT_OK/GD32VW55X_Wifi_BLE_SDK/GD32VW55x_RELEASE_V1.0.2/MSDK/cloud/alicloud/src/sdk-impl\sdk-impl.c ****             res = SUCCESS_RETURN;
 188:C:/Users/stapi/OneDrive/Desktop/GD32VW553/V1_MQTT_OK/GD32VW55X_Wifi_BLE_SDK/GD32VW55x_RELEASE_V1.0.2/MSDK/cloud/alicloud/src/sdk-impl\sdk-impl.c ****         }
 189:C:/Users/stapi/OneDrive/Desktop/GD32VW553/V1_MQTT_OK/GD32VW55X_Wifi_BLE_SDK/GD32VW55x_RELEASE_V1.0.2/MSDK/cloud/alicloud/src/sdk-impl\sdk-impl.c ****         break;
 190:C:/Users/stapi/OneDrive/Desktop/GD32VW553/V1_MQTT_OK/GD32VW55X_Wifi_BLE_SDK/GD32VW55x_RELEASE_V1.0.2/MSDK/cloud/alicloud/src/sdk-impl\sdk-impl.c **** #endif
 191:C:/Users/stapi/OneDrive/Desktop/GD32VW553/V1_MQTT_OK/GD32VW55X_Wifi_BLE_SDK/GD32VW55x_RELEASE_V1.0.2/MSDK/cloud/alicloud/src/sdk-impl\sdk-impl.c **** #if defined(DEVICE_MODEL_ENABLED)
 192:C:/Users/stapi/OneDrive/Desktop/GD32VW553/V1_MQTT_OK/GD32VW55X_Wifi_BLE_SDK/GD32VW55x_RELEASE_V1.0.2/MSDK/cloud/alicloud/src/sdk-impl\sdk-impl.c **** #if !defined(DEVICE_MODEL_RAWDATA_SOLO)
 193:C:/Users/stapi/OneDrive/Desktop/GD32VW553/V1_MQTT_OK/GD32VW55X_Wifi_BLE_SDK/GD32VW55x_RELEASE_V1.0.2/MSDK/cloud/alicloud/src/sdk-impl\sdk-impl.c ****         case IOTX_IOCTL_RECV_EVENT_REPLY:
 194:C:/Users/stapi/OneDrive/Desktop/GD32VW553/V1_MQTT_OK/GD32VW55X_Wifi_BLE_SDK/GD32VW55x_RELEASE_V1.0.2/MSDK/cloud/alicloud/src/sdk-impl\sdk-impl.c ****         case IOTX_IOCTL_RECV_PROP_REPLY: {
 195:C:/Users/stapi/OneDrive/Desktop/GD32VW553/V1_MQTT_OK/GD32VW55X_Wifi_BLE_SDK/GD32VW55x_RELEASE_V1.0.2/MSDK/cloud/alicloud/src/sdk-impl\sdk-impl.c ****             res = iotx_dm_set_opt(IMPL_LINKKIT_IOCTL_SWITCH_EVENT_POST_REPLY, data);
 196:C:/Users/stapi/OneDrive/Desktop/GD32VW553/V1_MQTT_OK/GD32VW55X_Wifi_BLE_SDK/GD32VW55x_RELEASE_V1.0.2/MSDK/cloud/alicloud/src/sdk-impl\sdk-impl.c ****         }
 197:C:/Users/stapi/OneDrive/Desktop/GD32VW553/V1_MQTT_OK/GD32VW55X_Wifi_BLE_SDK/GD32VW55x_RELEASE_V1.0.2/MSDK/cloud/alicloud/src/sdk-impl\sdk-impl.c ****         break;
 198:C:/Users/stapi/OneDrive/Desktop/GD32VW553/V1_MQTT_OK/GD32VW55X_Wifi_BLE_SDK/GD32VW55x_RELEASE_V1.0.2/MSDK/cloud/alicloud/src/sdk-impl\sdk-impl.c ****         case IOTX_IOCTL_SEND_PROP_SET_REPLY : {
 199:C:/Users/stapi/OneDrive/Desktop/GD32VW553/V1_MQTT_OK/GD32VW55X_Wifi_BLE_SDK/GD32VW55x_RELEASE_V1.0.2/MSDK/cloud/alicloud/src/sdk-impl\sdk-impl.c ****             res = iotx_dm_set_opt(IMPL_LINKKIT_IOCTL_SWITCH_PROPERTY_SET_REPLY, data);
 200:C:/Users/stapi/OneDrive/Desktop/GD32VW553/V1_MQTT_OK/GD32VW55X_Wifi_BLE_SDK/GD32VW55x_RELEASE_V1.0.2/MSDK/cloud/alicloud/src/sdk-impl\sdk-impl.c ****         }
 201:C:/Users/stapi/OneDrive/Desktop/GD32VW553/V1_MQTT_OK/GD32VW55X_Wifi_BLE_SDK/GD32VW55x_RELEASE_V1.0.2/MSDK/cloud/alicloud/src/sdk-impl\sdk-impl.c ****         break;
 202:C:/Users/stapi/OneDrive/Desktop/GD32VW553/V1_MQTT_OK/GD32VW55X_Wifi_BLE_SDK/GD32VW55x_RELEASE_V1.0.2/MSDK/cloud/alicloud/src/sdk-impl\sdk-impl.c ****         case IOTX_IOCTL_SEND_EVENT_NOTIFY_REPLY : {
 203:C:/Users/stapi/OneDrive/Desktop/GD32VW553/V1_MQTT_OK/GD32VW55X_Wifi_BLE_SDK/GD32VW55x_RELEASE_V1.0.2/MSDK/cloud/alicloud/src/sdk-impl\sdk-impl.c ****             res = iotx_dm_set_opt(IMPL_LINKKIT_IOCTL_SWITCH_EVENT_NOTIFY_REPLY, data);
 204:C:/Users/stapi/OneDrive/Desktop/GD32VW553/V1_MQTT_OK/GD32VW55X_Wifi_BLE_SDK/GD32VW55x_RELEASE_V1.0.2/MSDK/cloud/alicloud/src/sdk-impl\sdk-impl.c ****         }
 205:C:/Users/stapi/OneDrive/Desktop/GD32VW553/V1_MQTT_OK/GD32VW55X_Wifi_BLE_SDK/GD32VW55x_RELEASE_V1.0.2/MSDK/cloud/alicloud/src/sdk-impl\sdk-impl.c ****         break;
 206:C:/Users/stapi/OneDrive/Desktop/GD32VW553/V1_MQTT_OK/GD32VW55X_Wifi_BLE_SDK/GD32VW55x_RELEASE_V1.0.2/MSDK/cloud/alicloud/src/sdk-impl\sdk-impl.c **** #endif
 207:C:/Users/stapi/OneDrive/Desktop/GD32VW553/V1_MQTT_OK/GD32VW55X_Wifi_BLE_SDK/GD32VW55x_RELEASE_V1.0.2/MSDK/cloud/alicloud/src/sdk-impl\sdk-impl.c ****         case IOTX_IOCTL_SET_SUBDEV_SIGN: {
 208:C:/Users/stapi/OneDrive/Desktop/GD32VW553/V1_MQTT_OK/GD32VW55X_Wifi_BLE_SDK/GD32VW55x_RELEASE_V1.0.2/MSDK/cloud/alicloud/src/sdk-impl\sdk-impl.c ****             /* todo */
 209:C:/Users/stapi/OneDrive/Desktop/GD32VW553/V1_MQTT_OK/GD32VW55X_Wifi_BLE_SDK/GD32VW55x_RELEASE_V1.0.2/MSDK/cloud/alicloud/src/sdk-impl\sdk-impl.c ****         }
 210:C:/Users/stapi/OneDrive/Desktop/GD32VW553/V1_MQTT_OK/GD32VW55X_Wifi_BLE_SDK/GD32VW55x_RELEASE_V1.0.2/MSDK/cloud/alicloud/src/sdk-impl\sdk-impl.c ****         break;
 211:C:/Users/stapi/OneDrive/Desktop/GD32VW553/V1_MQTT_OK/GD32VW55X_Wifi_BLE_SDK/GD32VW55x_RELEASE_V1.0.2/MSDK/cloud/alicloud/src/sdk-impl\sdk-impl.c ****         case IOTX_IOCTL_GET_SUBDEV_LOGIN: {
 212:C:/Users/stapi/OneDrive/Desktop/GD32VW553/V1_MQTT_OK/GD32VW55X_Wifi_BLE_SDK/GD32VW55x_RELEASE_V1.0.2/MSDK/cloud/alicloud/src/sdk-impl\sdk-impl.c ****             /* todo */
 213:C:/Users/stapi/OneDrive/Desktop/GD32VW553/V1_MQTT_OK/GD32VW55X_Wifi_BLE_SDK/GD32VW55x_RELEASE_V1.0.2/MSDK/cloud/alicloud/src/sdk-impl\sdk-impl.c ****         }
 214:C:/Users/stapi/OneDrive/Desktop/GD32VW553/V1_MQTT_OK/GD32VW55X_Wifi_BLE_SDK/GD32VW55x_RELEASE_V1.0.2/MSDK/cloud/alicloud/src/sdk-impl\sdk-impl.c ****         break;
 215:C:/Users/stapi/OneDrive/Desktop/GD32VW553/V1_MQTT_OK/GD32VW55X_Wifi_BLE_SDK/GD32VW55x_RELEASE_V1.0.2/MSDK/cloud/alicloud/src/sdk-impl\sdk-impl.c **** #endif
 216:C:/Users/stapi/OneDrive/Desktop/GD32VW553/V1_MQTT_OK/GD32VW55X_Wifi_BLE_SDK/GD32VW55x_RELEASE_V1.0.2/MSDK/cloud/alicloud/src/sdk-impl\sdk-impl.c ****         default: {
 217:C:/Users/stapi/OneDrive/Desktop/GD32VW553/V1_MQTT_OK/GD32VW55X_Wifi_BLE_SDK/GD32VW55x_RELEASE_V1.0.2/MSDK/cloud/alicloud/src/sdk-impl\sdk-impl.c ****             sdk_err("Unknown Ioctl Option");
 631              		.loc 1 217 13 is_stmt 0
 632 0026 97000000 		call	HAL_Printf
 632      E7800000 
 633              	.LVL72:
 634              		.loc 1 217 13 is_stmt 1
 635 002e 37050000 		lui	a0,%hi(.LC2)
 636 0032 13050500 		addi	a0,a0,%lo(.LC2)
 637 0036 97000000 		call	HAL_Printf
 637      E7800000 
 638              	.LVL73:
 639              		.loc 1 217 13
 218:C:/Users/stapi/OneDrive/Desktop/GD32VW553/V1_MQTT_OK/GD32VW55X_Wifi_BLE_SDK/GD32VW55x_RELEASE_V1.0.2/MSDK/cloud/alicloud/src/sdk-impl\sdk-impl.c ****             res = FAIL_RETURN;
 640              		.loc 1 218 13
 219:C:/Users/stapi/OneDrive/Desktop/GD32VW553/V1_MQTT_OK/GD32VW55X_Wifi_BLE_SDK/GD32VW55x_RELEASE_V1.0.2/MSDK/cloud/alicloud/src/sdk-impl\sdk-impl.c ****         }
 220:C:/Users/stapi/OneDrive/Desktop/GD32VW553/V1_MQTT_OK/GD32VW55X_Wifi_BLE_SDK/GD32VW55x_RELEASE_V1.0.2/MSDK/cloud/alicloud/src/sdk-impl\sdk-impl.c ****         break;
 641              		.loc 1 220 9
 218:C:/Users/stapi/OneDrive/Desktop/GD32VW553/V1_MQTT_OK/GD32VW55X_Wifi_BLE_SDK/GD32VW55x_RELEASE_V1.0.2/MSDK/cloud/alicloud/src/sdk-impl\sdk-impl.c ****             res = FAIL_RETURN;
 642              		.loc 1 218 17 is_stmt 0
 643 003e 7D55     		li	a0,-1
 644              		.loc 1 220 9
 645 0040 0DA0     		j	.L33
 646              	.LVL74:
 647              	.L32:
 137:C:/Users/stapi/OneDrive/Desktop/GD32VW553/V1_MQTT_OK/GD32VW55X_Wifi_BLE_SDK/GD32VW55x_RELEASE_V1.0.2/MSDK/cloud/alicloud/src/sdk-impl\sdk-impl.c ****         case IOTX_IOCTL_SET_REGION: {
 648              		.loc 1 137 5 is_stmt 1
 649 0042 B947     		li	a5,14
 650 0044 63E3A70A 		bgtu	a0,a5,.L34
 651 0048 B7070000 		lui	a5,%hi(.L36)
 652 004c 93870700 		addi	a5,a5,%lo(.L36)
 653 0050 B347F520 		sh2add	a5,a0,a5
 654 0054 9C43     		lw	a5,0(a5)
 655 0056 8287     		jr	a5
 656              		.section	.rodata.IOT_Ioctl,"a",@progbits
 657              		.align	2
 658              		.align	2
 659              	.L36:
 660 0000 00000000 		.word	.L46
 661 0004 00000000 		.word	.L45
 662 0008 00000000 		.word	.L44
 663 000c 00000000 		.word	.L43
 664 0010 00000000 		.word	.L42
 665 0014 00000000 		.word	.L41
 666 0018 00000000 		.word	.L40
 667 001c 00000000 		.word	.L39
 668 0020 00000000 		.word	.L38
 669 0024 00000000 		.word	.L38
 670 0028 00000000 		.word	.L37
 671 002c 00000000 		.word	.L47
 672 0030 00000000 		.word	.L47
 673 0034 00000000 		.word	.L34
 674 0038 00000000 		.word	.L35
 675              		.section	.text.IOT_Ioctl
 676              	.L46:
 139:C:/Users/stapi/OneDrive/Desktop/GD32VW553/V1_MQTT_OK/GD32VW55X_Wifi_BLE_SDK/GD32VW55x_RELEASE_V1.0.2/MSDK/cloud/alicloud/src/sdk-impl\sdk-impl.c **** 
 677              		.loc 1 139 13
 139:C:/Users/stapi/OneDrive/Desktop/GD32VW553/V1_MQTT_OK/GD32VW55X_Wifi_BLE_SDK/GD32VW55x_RELEASE_V1.0.2/MSDK/cloud/alicloud/src/sdk-impl\sdk-impl.c **** 
 678              		.loc 1 139 30 is_stmt 0
 679 0058 9841     		lw	a4,0(a1)
 680 005a B7070000 		lui	a5,%hi(.LANCHOR0)
 681 005e 23A0E700 		sw	a4,%lo(.LANCHOR0)(a5)
 141:C:/Users/stapi/OneDrive/Desktop/GD32VW553/V1_MQTT_OK/GD32VW55X_Wifi_BLE_SDK/GD32VW55x_RELEASE_V1.0.2/MSDK/cloud/alicloud/src/sdk-impl\sdk-impl.c ****         }
 682              		.loc 1 141 13 is_stmt 1
 143:C:/Users/stapi/OneDrive/Desktop/GD32VW553/V1_MQTT_OK/GD32VW55X_Wifi_BLE_SDK/GD32VW55x_RELEASE_V1.0.2/MSDK/cloud/alicloud/src/sdk-impl\sdk-impl.c ****         case IOTX_IOCTL_GET_REGION: {
 683              		.loc 1 143 9
 684              	.LVL75:
 685              	.L33:
 221:C:/Users/stapi/OneDrive/Desktop/GD32VW553/V1_MQTT_OK/GD32VW55X_Wifi_BLE_SDK/GD32VW55x_RELEASE_V1.0.2/MSDK/cloud/alicloud/src/sdk-impl\sdk-impl.c ****     }
 222:C:/Users/stapi/OneDrive/Desktop/GD32VW553/V1_MQTT_OK/GD32VW55X_Wifi_BLE_SDK/GD32VW55x_RELEASE_V1.0.2/MSDK/cloud/alicloud/src/sdk-impl\sdk-impl.c **** 
 223:C:/Users/stapi/OneDrive/Desktop/GD32VW553/V1_MQTT_OK/GD32VW55X_Wifi_BLE_SDK/GD32VW55x_RELEASE_V1.0.2/MSDK/cloud/alicloud/src/sdk-impl\sdk-impl.c ****     return res;
 224:C:/Users/stapi/OneDrive/Desktop/GD32VW553/V1_MQTT_OK/GD32VW55X_Wifi_BLE_SDK/GD32VW55x_RELEASE_V1.0.2/MSDK/cloud/alicloud/src/sdk-impl\sdk-impl.c **** }
 686              		.loc 1 224 1 is_stmt 0
 687 0062 17030000 		tail	__riscv_restore_0
 687      67000300 
 688              		.cfi_remember_state
 689              		.cfi_restore 1
 690              		.cfi_def_cfa_offset 0
 691              	.LVL76:
 692              	.L45:
 693              		.cfi_restore_state
 145:C:/Users/stapi/OneDrive/Desktop/GD32VW553/V1_MQTT_OK/GD32VW55X_Wifi_BLE_SDK/GD32VW55x_RELEASE_V1.0.2/MSDK/cloud/alicloud/src/sdk-impl\sdk-impl.c **** 
 694              		.loc 1 145 13 is_stmt 1
 145:C:/Users/stapi/OneDrive/Desktop/GD32VW553/V1_MQTT_OK/GD32VW55X_Wifi_BLE_SDK/GD32VW55x_RELEASE_V1.0.2/MSDK/cloud/alicloud/src/sdk-impl\sdk-impl.c **** 
 695              		.loc 1 145 48 is_stmt 0
 696 006a B7070000 		lui	a5,%hi(.LANCHOR0)
 697 006e 83A70700 		lw	a5,%lo(.LANCHOR0)(a5)
 698              	.L52:
 179:C:/Users/stapi/OneDrive/Desktop/GD32VW553/V1_MQTT_OK/GD32VW55X_Wifi_BLE_SDK/GD32VW55x_RELEASE_V1.0.2/MSDK/cloud/alicloud/src/sdk-impl\sdk-impl.c **** 
 699              		.loc 1 179 26
 700 0072 9CC1     		sw	a5,0(a1)
 181:C:/Users/stapi/OneDrive/Desktop/GD32VW553/V1_MQTT_OK/GD32VW55X_Wifi_BLE_SDK/GD32VW55x_RELEASE_V1.0.2/MSDK/cloud/alicloud/src/sdk-impl\sdk-impl.c ****         }
 701              		.loc 1 181 13 is_stmt 1
 183:C:/Users/stapi/OneDrive/Desktop/GD32VW553/V1_MQTT_OK/GD32VW55X_Wifi_BLE_SDK/GD32VW55x_RELEASE_V1.0.2/MSDK/cloud/alicloud/src/sdk-impl\sdk-impl.c **** #ifdef REPORT_UUID_ENABLE
 702              		.loc 1 183 9
 703 0074 25A0     		j	.L47
 704              	.L44:
 151:C:/Users/stapi/OneDrive/Desktop/GD32VW553/V1_MQTT_OK/GD32VW55X_Wifi_BLE_SDK/GD32VW55x_RELEASE_V1.0.2/MSDK/cloud/alicloud/src/sdk-impl\sdk-impl.c **** 
 705              		.loc 1 151 13
 151:C:/Users/stapi/OneDrive/Desktop/GD32VW553/V1_MQTT_OK/GD32VW55X_Wifi_BLE_SDK/GD32VW55x_RELEASE_V1.0.2/MSDK/cloud/alicloud/src/sdk-impl\sdk-impl.c **** 
 706              		.loc 1 151 30 is_stmt 0
 707 0076 9567     		li	a5,20480
 708 0078 37070000 		lui	a4,%hi(.LANCHOR0)
 709 007c 938707E2 		addi	a5,a5,-480
 710 0080 2320F700 		sw	a5,%lo(.LANCHOR0)(a4)
 153:C:/Users/stapi/OneDrive/Desktop/GD32VW553/V1_MQTT_OK/GD32VW55X_Wifi_BLE_SDK/GD32VW55x_RELEASE_V1.0.2/MSDK/cloud/alicloud/src/sdk-impl\sdk-impl.c ****         }
 711              		.loc 1 153 13 is_stmt 1
 153:C:/Users/stapi/OneDrive/Desktop/GD32VW553/V1_MQTT_OK/GD32VW55X_Wifi_BLE_SDK/GD32VW55x_RELEASE_V1.0.2/MSDK/cloud/alicloud/src/sdk-impl\sdk-impl.c ****         }
 712              		.loc 1 153 19 is_stmt 0
 713 0084 0145     		li	a0,0
 714              	.LVL77:
 715              	.L50:
 169:C:/Users/stapi/OneDrive/Desktop/GD32VW553/V1_MQTT_OK/GD32VW55X_Wifi_BLE_SDK/GD32VW55x_RELEASE_V1.0.2/MSDK/cloud/alicloud/src/sdk-impl\sdk-impl.c ****         }
 716              		.loc 1 169 19
 717 0086 97000000 		call	iotx_guider_set_custom_domain
 717      E7800000 
 718              	.LVL78:
 171:C:/Users/stapi/OneDrive/Desktop/GD32VW553/V1_MQTT_OK/GD32VW55X_Wifi_BLE_SDK/GD32VW55x_RELEASE_V1.0.2/MSDK/cloud/alicloud/src/sdk-impl\sdk-impl.c ****         case IOTX_IOCTL_SET_DYNAMIC_REGISTER: {
 719              		.loc 1 171 9 is_stmt 1
 720 008e D1BF     		j	.L33
 721              	.LVL79:
 722              	.L43:
 157:C:/Users/stapi/OneDrive/Desktop/GD32VW553/V1_MQTT_OK/GD32VW55X_Wifi_BLE_SDK/GD32VW55x_RELEASE_V1.0.2/MSDK/cloud/alicloud/src/sdk-impl\sdk-impl.c ****             res = SUCCESS_RETURN;
 723              		.loc 1 157 13
 157:C:/Users/stapi/OneDrive/Desktop/GD32VW553/V1_MQTT_OK/GD32VW55X_Wifi_BLE_SDK/GD32VW55x_RELEASE_V1.0.2/MSDK/cloud/alicloud/src/sdk-impl\sdk-impl.c ****             res = SUCCESS_RETURN;
 724              		.loc 1 157 34 is_stmt 0
 725 0090 03D70500 		lhu	a4,0(a1)
 726 0094 B7070000 		lui	a5,%hi(.LANCHOR0+4)
 727 0098 23A2E700 		sw	a4,%lo(.LANCHOR0+4)(a5)
 158:C:/Users/stapi/OneDrive/Desktop/GD32VW553/V1_MQTT_OK/GD32VW55X_Wifi_BLE_SDK/GD32VW55x_RELEASE_V1.0.2/MSDK/cloud/alicloud/src/sdk-impl\sdk-impl.c ****         }
 728              		.loc 1 158 13 is_stmt 1
 160:C:/Users/stapi/OneDrive/Desktop/GD32VW553/V1_MQTT_OK/GD32VW55X_Wifi_BLE_SDK/GD32VW55x_RELEASE_V1.0.2/MSDK/cloud/alicloud/src/sdk-impl\sdk-impl.c ****         case IOTX_IOCTL_SET_ENV: {
 729              		.loc 1 160 9
 730              	.L47:
 132:C:/Users/stapi/OneDrive/Desktop/GD32VW553/V1_MQTT_OK/GD32VW55X_Wifi_BLE_SDK/GD32VW55x_RELEASE_V1.0.2/MSDK/cloud/alicloud/src/sdk-impl\sdk-impl.c ****         sdk_err("Invalid Parameter");
 731              		.loc 1 132 20 is_stmt 0
 732 009c 0145     		li	a0,0
 733              	.LVL80:
 734 009e D1B7     		j	.L33
 735              	.LVL81:
 736              	.L42:
 162:C:/Users/stapi/OneDrive/Desktop/GD32VW553/V1_MQTT_OK/GD32VW55X_Wifi_BLE_SDK/GD32VW55x_RELEASE_V1.0.2/MSDK/cloud/alicloud/src/sdk-impl\sdk-impl.c ****             res = SUCCESS_RETURN;
 737              		.loc 1 162 13 is_stmt 1
 162:C:/Users/stapi/OneDrive/Desktop/GD32VW553/V1_MQTT_OK/GD32VW55X_Wifi_BLE_SDK/GD32VW55x_RELEASE_V1.0.2/MSDK/cloud/alicloud/src/sdk-impl\sdk-impl.c ****             res = SUCCESS_RETURN;
 738              		.loc 1 162 24 is_stmt 0
 739 00a0 03D70500 		lhu	a4,0(a1)
 740 00a4 B7070000 		lui	a5,%hi(.LANCHOR0+8)
 741 00a8 23A4E700 		sw	a4,%lo(.LANCHOR0+8)(a5)
 163:C:/Users/stapi/OneDrive/Desktop/GD32VW553/V1_MQTT_OK/GD32VW55X_Wifi_BLE_SDK/GD32VW55x_RELEASE_V1.0.2/MSDK/cloud/alicloud/src/sdk-impl\sdk-impl.c ****         }
 742              		.loc 1 163 13 is_stmt 1
 165:C:/Users/stapi/OneDrive/Desktop/GD32VW553/V1_MQTT_OK/GD32VW55X_Wifi_BLE_SDK/GD32VW55x_RELEASE_V1.0.2/MSDK/cloud/alicloud/src/sdk-impl\sdk-impl.c ****         case IOTX_IOCTL_SET_HTTP_DOMAIN: {
 743              		.loc 1 165 9
 744 00ac C5BF     		j	.L47
 745              	.L41:
 167:C:/Users/stapi/OneDrive/Desktop/GD32VW553/V1_MQTT_OK/GD32VW55X_Wifi_BLE_SDK/GD32VW55x_RELEASE_V1.0.2/MSDK/cloud/alicloud/src/sdk-impl\sdk-impl.c **** 
 746              		.loc 1 167 13
 167:C:/Users/stapi/OneDrive/Desktop/GD32VW553/V1_MQTT_OK/GD32VW55X_Wifi_BLE_SDK/GD32VW55x_RELEASE_V1.0.2/MSDK/cloud/alicloud/src/sdk-impl\sdk-impl.c **** 
 747              		.loc 1 167 30 is_stmt 0
 748 00ae 9567     		li	a5,20480
 749 00b0 37070000 		lui	a4,%hi(.LANCHOR0)
 750 00b4 938707E2 		addi	a5,a5,-480
 751 00b8 2320F700 		sw	a5,%lo(.LANCHOR0)(a4)
 169:C:/Users/stapi/OneDrive/Desktop/GD32VW553/V1_MQTT_OK/GD32VW55X_Wifi_BLE_SDK/GD32VW55x_RELEASE_V1.0.2/MSDK/cloud/alicloud/src/sdk-impl\sdk-impl.c ****         }
 752              		.loc 1 169 13 is_stmt 1
 169:C:/Users/stapi/OneDrive/Desktop/GD32VW553/V1_MQTT_OK/GD32VW55X_Wifi_BLE_SDK/GD32VW55x_RELEASE_V1.0.2/MSDK/cloud/alicloud/src/sdk-impl\sdk-impl.c ****         }
 753              		.loc 1 169 19 is_stmt 0
 754 00bc 0545     		li	a0,1
 755              	.LVL82:
 756 00be E1B7     		j	.L50
 757              	.LVL83:
 758              	.L40:
 173:C:/Users/stapi/OneDrive/Desktop/GD32VW553/V1_MQTT_OK/GD32VW55X_Wifi_BLE_SDK/GD32VW55x_RELEASE_V1.0.2/MSDK/cloud/alicloud/src/sdk-impl\sdk-impl.c **** 
 759              		.loc 1 173 13 is_stmt 1
 173:C:/Users/stapi/OneDrive/Desktop/GD32VW553/V1_MQTT_OK/GD32VW55X_Wifi_BLE_SDK/GD32VW55x_RELEASE_V1.0.2/MSDK/cloud/alicloud/src/sdk-impl\sdk-impl.c **** 
 760              		.loc 1 173 37 is_stmt 0
 761 00c0 9841     		lw	a4,0(a1)
 173:C:/Users/stapi/OneDrive/Desktop/GD32VW553/V1_MQTT_OK/GD32VW55X_Wifi_BLE_SDK/GD32VW55x_RELEASE_V1.0.2/MSDK/cloud/alicloud/src/sdk-impl\sdk-impl.c **** 
 762              		.loc 1 173 35
 763 00c2 B7070000 		lui	a5,%hi(.LANCHOR0+12)
 764 00c6 23A6E700 		sw	a4,%lo(.LANCHOR0+12)(a5)
 175:C:/Users/stapi/OneDrive/Desktop/GD32VW553/V1_MQTT_OK/GD32VW55X_Wifi_BLE_SDK/GD32VW55x_RELEASE_V1.0.2/MSDK/cloud/alicloud/src/sdk-impl\sdk-impl.c ****         }
 765              		.loc 1 175 13 is_stmt 1
 177:C:/Users/stapi/OneDrive/Desktop/GD32VW553/V1_MQTT_OK/GD32VW55X_Wifi_BLE_SDK/GD32VW55x_RELEASE_V1.0.2/MSDK/cloud/alicloud/src/sdk-impl\sdk-impl.c ****         case IOTX_IOCTL_GET_DYNAMIC_REGISTER: {
 766              		.loc 1 177 9
 767 00ca C9BF     		j	.L47
 768              	.L39:
 179:C:/Users/stapi/OneDrive/Desktop/GD32VW553/V1_MQTT_OK/GD32VW55X_Wifi_BLE_SDK/GD32VW55x_RELEASE_V1.0.2/MSDK/cloud/alicloud/src/sdk-impl\sdk-impl.c **** 
 769              		.loc 1 179 13
 179:C:/Users/stapi/OneDrive/Desktop/GD32VW553/V1_MQTT_OK/GD32VW55X_Wifi_BLE_SDK/GD32VW55x_RELEASE_V1.0.2/MSDK/cloud/alicloud/src/sdk-impl\sdk-impl.c **** 
 770              		.loc 1 179 31 is_stmt 0
 771 00cc B7070000 		lui	a5,%hi(.LANCHOR0+12)
 772 00d0 83A7C700 		lw	a5,%lo(.LANCHOR0+12)(a5)
 773 00d4 79BF     		j	.L52
 774              	.L38:
 195:C:/Users/stapi/OneDrive/Desktop/GD32VW553/V1_MQTT_OK/GD32VW55X_Wifi_BLE_SDK/GD32VW55x_RELEASE_V1.0.2/MSDK/cloud/alicloud/src/sdk-impl\sdk-impl.c ****         }
 775              		.loc 1 195 13 is_stmt 1
 195:C:/Users/stapi/OneDrive/Desktop/GD32VW553/V1_MQTT_OK/GD32VW55X_Wifi_BLE_SDK/GD32VW55x_RELEASE_V1.0.2/MSDK/cloud/alicloud/src/sdk-impl\sdk-impl.c ****         }
 776              		.loc 1 195 19 is_stmt 0
 777 00d6 0545     		li	a0,1
 778              	.LVL84:
 779              	.L51:
 203:C:/Users/stapi/OneDrive/Desktop/GD32VW553/V1_MQTT_OK/GD32VW55X_Wifi_BLE_SDK/GD32VW55x_RELEASE_V1.0.2/MSDK/cloud/alicloud/src/sdk-impl\sdk-impl.c ****         }
 780              		.loc 1 203 19
 781 00d8 97000000 		call	iotx_dm_set_opt
 781      E7800000 
 782              	.LVL85:
 205:C:/Users/stapi/OneDrive/Desktop/GD32VW553/V1_MQTT_OK/GD32VW55X_Wifi_BLE_SDK/GD32VW55x_RELEASE_V1.0.2/MSDK/cloud/alicloud/src/sdk-impl\sdk-impl.c **** #endif
 783              		.loc 1 205 9 is_stmt 1
 784 00e0 49B7     		j	.L33
 785              	.LVL86:
 786              	.L37:
 199:C:/Users/stapi/OneDrive/Desktop/GD32VW553/V1_MQTT_OK/GD32VW55X_Wifi_BLE_SDK/GD32VW55x_RELEASE_V1.0.2/MSDK/cloud/alicloud/src/sdk-impl\sdk-impl.c ****         }
 787              		.loc 1 199 13
 199:C:/Users/stapi/OneDrive/Desktop/GD32VW553/V1_MQTT_OK/GD32VW55X_Wifi_BLE_SDK/GD32VW55x_RELEASE_V1.0.2/MSDK/cloud/alicloud/src/sdk-impl\sdk-impl.c ****         }
 788              		.loc 1 199 19 is_stmt 0
 789 00e2 0945     		li	a0,2
 790              	.LVL87:
 791 00e4 D5BF     		j	.L51
 792              	.LVL88:
 793              	.L35:
 203:C:/Users/stapi/OneDrive/Desktop/GD32VW553/V1_MQTT_OK/GD32VW55X_Wifi_BLE_SDK/GD32VW55x_RELEASE_V1.0.2/MSDK/cloud/alicloud/src/sdk-impl\sdk-impl.c ****         }
 794              		.loc 1 203 13 is_stmt 1
 203:C:/Users/stapi/OneDrive/Desktop/GD32VW553/V1_MQTT_OK/GD32VW55X_Wifi_BLE_SDK/GD32VW55x_RELEASE_V1.0.2/MSDK/cloud/alicloud/src/sdk-impl\sdk-impl.c ****         }
 795              		.loc 1 203 19 is_stmt 0
 796 00e6 0D45     		li	a0,3
 797              	.LVL89:
 798 00e8 C5BF     		j	.L51
 799              	.LVL90:
 800              	.L34:
 217:C:/Users/stapi/OneDrive/Desktop/GD32VW553/V1_MQTT_OK/GD32VW55X_Wifi_BLE_SDK/GD32VW55x_RELEASE_V1.0.2/MSDK/cloud/alicloud/src/sdk-impl\sdk-impl.c ****             res = FAIL_RETURN;
 801              		.loc 1 217 13 is_stmt 1
 217:C:/Users/stapi/OneDrive/Desktop/GD32VW553/V1_MQTT_OK/GD32VW55X_Wifi_BLE_SDK/GD32VW55x_RELEASE_V1.0.2/MSDK/cloud/alicloud/src/sdk-impl\sdk-impl.c ****             res = FAIL_RETURN;
 802              		.loc 1 217 13
 803 00ea 37050000 		lui	a0,%hi(.LC0)
 804              	.LVL91:
 805 00ee 13050500 		addi	a0,a0,%lo(.LC0)
 806 00f2 97000000 		call	HAL_Printf
 806      E7800000 
 807              	.LVL92:
 217:C:/Users/stapi/OneDrive/Desktop/GD32VW553/V1_MQTT_OK/GD32VW55X_Wifi_BLE_SDK/GD32VW55x_RELEASE_V1.0.2/MSDK/cloud/alicloud/src/sdk-impl\sdk-impl.c ****             res = FAIL_RETURN;
 808              		.loc 1 217 13
 809 00fa 37050000 		lui	a0,%hi(.LC19)
 810 00fe 13050500 		addi	a0,a0,%lo(.LC19)
 811 0102 15B7     		j	.L49
 812              		.cfi_endproc
 813              	.LFE24:
 815              		.section	.bss.g_sdk_impl_ctx,"aw",@nobits
 816              		.align	2
 817              		.set	.LANCHOR0,. + 0
 820              	g_sdk_impl_ctx:
 821 0000 00000000 		.zero	16
 821      00000000 
 821      00000000 
 821      00000000 
 822              		.text
 823              	.Letext0:
 824              		.file 2 "c:\\users\\stapi\\onedrive\\desktop\\gd32vw553\\embeddedbuilder_v1.4.7.26843\\tools\\nucl
 825              		.file 3 "c:\\users\\stapi\\onedrive\\desktop\\gd32vw553\\embeddedbuilder_v1.4.7.26843\\tools\\nucl
 826              		.file 4 "..\\..\\..\\..\\cloud\\alicloud\\include/iot_export.h"
 827              		.file 5 "..\\..\\..\\..\\cloud\\alicloud\\include/exports/iot_export_errno.h"
 828              		.file 6 "..\\..\\..\\..\\cloud\\alicloud\\src\\infra\\system/iotx_system.h"
 829              		.file 7 "C:/Users/stapi/OneDrive/Desktop/GD32VW553/V1_MQTT_OK/GD32VW55X_Wifi_BLE_SDK/GD32VW55x_REL
 830              		.file 8 "..\\..\\..\\..\\cloud\\alicloud\\include/iot_import.h"
 831              		.file 9 "..\\..\\..\\..\\cloud\\alicloud\\src\\services\\linkkit\\dm/iotx_dm.h"
 832              		.file 10 "..\\..\\..\\..\\cloud\\alicloud\\include/imports/iot_import_product.h"
 833              		.file 11 "c:\\users\\stapi\\onedrive\\desktop\\gd32vw553\\embeddedbuilder_v1.4.7.26843\\tools\\nuc
 834              		.file 12 "<built-in>"
 835              		.file 13 "..\\..\\..\\..\\cloud\\alicloud\\include/imports/iot_import_kv.h"
 836              		.file 14 "..\\..\\..\\..\\cloud\\alicloud\\src\\infra\\utils/iotx_utils.h"
 837              		.file 15 "..\\..\\..\\..\\cloud\\alicloud\\src\\infra\\log/iotx_log.h"