   1              		.file	"dh_group5.c"
   2              		.option nopic
   3              		.attribute arch, "rv32i2p0_m2p0_a2p0_f2p0_c2p0_b_p0p94"
   4              		.attribute unaligned_access, 0
   5              		.attribute stack_align, 16
   6              		.text
   7              	.Ltext0:
   8              		.cfi_sections	.debug_frame
   9              		.section	.text.dh5_init,"ax",@progbits
  10              		.align	1
  11              		.globl	dh5_init
  13              	dh5_init:
  14              	.LFB71:
  15              		.file 1 "C:/Users/stapi/OneDrive/Desktop/GD32VW553/V1_MQTT_OK/GD32VW55X_Wifi_BLE_SDK/GD32VW55x_REL
   1:C:/Users/stapi/OneDrive/Desktop/GD32VW553/V1_MQTT_OK/GD32VW55X_Wifi_BLE_SDK/GD32VW55x_RELEASE_V1.0.2/MSDK/wpa_supplicant/src/crypto\dh_group5.c **** /*
   2:C:/Users/stapi/OneDrive/Desktop/GD32VW553/V1_MQTT_OK/GD32VW55X_Wifi_BLE_SDK/GD32VW55x_RELEASE_V1.0.2/MSDK/wpa_supplicant/src/crypto\dh_group5.c ****  * Diffie-Hellman group 5 operations
   3:C:/Users/stapi/OneDrive/Desktop/GD32VW553/V1_MQTT_OK/GD32VW55X_Wifi_BLE_SDK/GD32VW55x_RELEASE_V1.0.2/MSDK/wpa_supplicant/src/crypto\dh_group5.c ****  * Copyright (c) 2009, 2012, Jouni Malinen <j@w1.fi>
   4:C:/Users/stapi/OneDrive/Desktop/GD32VW553/V1_MQTT_OK/GD32VW55X_Wifi_BLE_SDK/GD32VW55x_RELEASE_V1.0.2/MSDK/wpa_supplicant/src/crypto\dh_group5.c ****  *
   5:C:/Users/stapi/OneDrive/Desktop/GD32VW553/V1_MQTT_OK/GD32VW55X_Wifi_BLE_SDK/GD32VW55x_RELEASE_V1.0.2/MSDK/wpa_supplicant/src/crypto\dh_group5.c ****  * This software may be distributed under the terms of the BSD license.
   6:C:/Users/stapi/OneDrive/Desktop/GD32VW553/V1_MQTT_OK/GD32VW55X_Wifi_BLE_SDK/GD32VW55x_RELEASE_V1.0.2/MSDK/wpa_supplicant/src/crypto\dh_group5.c ****  * See README for more details.
   7:C:/Users/stapi/OneDrive/Desktop/GD32VW553/V1_MQTT_OK/GD32VW55X_Wifi_BLE_SDK/GD32VW55x_RELEASE_V1.0.2/MSDK/wpa_supplicant/src/crypto\dh_group5.c ****  */
   8:C:/Users/stapi/OneDrive/Desktop/GD32VW553/V1_MQTT_OK/GD32VW55X_Wifi_BLE_SDK/GD32VW55x_RELEASE_V1.0.2/MSDK/wpa_supplicant/src/crypto\dh_group5.c **** 
   9:C:/Users/stapi/OneDrive/Desktop/GD32VW553/V1_MQTT_OK/GD32VW55X_Wifi_BLE_SDK/GD32VW55x_RELEASE_V1.0.2/MSDK/wpa_supplicant/src/crypto\dh_group5.c **** #include "includes.h"
  10:C:/Users/stapi/OneDrive/Desktop/GD32VW553/V1_MQTT_OK/GD32VW55X_Wifi_BLE_SDK/GD32VW55x_RELEASE_V1.0.2/MSDK/wpa_supplicant/src/crypto\dh_group5.c **** 
  11:C:/Users/stapi/OneDrive/Desktop/GD32VW553/V1_MQTT_OK/GD32VW55X_Wifi_BLE_SDK/GD32VW55x_RELEASE_V1.0.2/MSDK/wpa_supplicant/src/crypto\dh_group5.c **** #include "common.h"
  12:C:/Users/stapi/OneDrive/Desktop/GD32VW553/V1_MQTT_OK/GD32VW55X_Wifi_BLE_SDK/GD32VW55x_RELEASE_V1.0.2/MSDK/wpa_supplicant/src/crypto\dh_group5.c **** #include "dh_groups.h"
  13:C:/Users/stapi/OneDrive/Desktop/GD32VW553/V1_MQTT_OK/GD32VW55X_Wifi_BLE_SDK/GD32VW55x_RELEASE_V1.0.2/MSDK/wpa_supplicant/src/crypto\dh_group5.c **** #include "dh_group5.h"
  14:C:/Users/stapi/OneDrive/Desktop/GD32VW553/V1_MQTT_OK/GD32VW55X_Wifi_BLE_SDK/GD32VW55x_RELEASE_V1.0.2/MSDK/wpa_supplicant/src/crypto\dh_group5.c **** 
  15:C:/Users/stapi/OneDrive/Desktop/GD32VW553/V1_MQTT_OK/GD32VW55X_Wifi_BLE_SDK/GD32VW55x_RELEASE_V1.0.2/MSDK/wpa_supplicant/src/crypto\dh_group5.c **** 
  16:C:/Users/stapi/OneDrive/Desktop/GD32VW553/V1_MQTT_OK/GD32VW55X_Wifi_BLE_SDK/GD32VW55x_RELEASE_V1.0.2/MSDK/wpa_supplicant/src/crypto\dh_group5.c **** void * dh5_init(struct wpabuf **priv, struct wpabuf **publ)
  17:C:/Users/stapi/OneDrive/Desktop/GD32VW553/V1_MQTT_OK/GD32VW55X_Wifi_BLE_SDK/GD32VW55x_RELEASE_V1.0.2/MSDK/wpa_supplicant/src/crypto\dh_group5.c **** {
  16              		.loc 1 17 1
  17              		.cfi_startproc
  18              	.LVL0:
  19 0000 17030000 		call	t0,__riscv_save_2
  19      E7020300 
  20              		.cfi_offset 9, -12
  21              		.cfi_offset 8, -8
  22              		.cfi_offset 1, -4
  23              		.cfi_def_cfa_offset 16
  18:C:/Users/stapi/OneDrive/Desktop/GD32VW553/V1_MQTT_OK/GD32VW55X_Wifi_BLE_SDK/GD32VW55x_RELEASE_V1.0.2/MSDK/wpa_supplicant/src/crypto\dh_group5.c **** 	wpabuf_free(*publ);
  24              		.loc 1 18 2
  17:C:/Users/stapi/OneDrive/Desktop/GD32VW553/V1_MQTT_OK/GD32VW55X_Wifi_BLE_SDK/GD32VW55x_RELEASE_V1.0.2/MSDK/wpa_supplicant/src/crypto\dh_group5.c **** 	wpabuf_free(*publ);
  25              		.loc 1 17 1 is_stmt 0
  26 0008 AA84     		mv	s1,a0
  27              		.loc 1 18 2
  28 000a 8841     		lw	a0,0(a1)
  29              	.LVL1:
  17:C:/Users/stapi/OneDrive/Desktop/GD32VW553/V1_MQTT_OK/GD32VW55X_Wifi_BLE_SDK/GD32VW55x_RELEASE_V1.0.2/MSDK/wpa_supplicant/src/crypto\dh_group5.c **** 	wpabuf_free(*publ);
  30              		.loc 1 17 1
  31 000c 2E84     		mv	s0,a1
  32              		.loc 1 18 2
  33 000e 97000000 		call	wpabuf_free
  33      E7800000 
  34              	.LVL2:
  19:C:/Users/stapi/OneDrive/Desktop/GD32VW553/V1_MQTT_OK/GD32VW55X_Wifi_BLE_SDK/GD32VW55x_RELEASE_V1.0.2/MSDK/wpa_supplicant/src/crypto\dh_group5.c **** 	*publ = dh_init(dh_groups_get(5), priv);
  35              		.loc 1 19 2 is_stmt 1
  36              		.loc 1 19 10 is_stmt 0
  37 0016 1545     		li	a0,5
  38 0018 97000000 		call	dh_groups_get
  38      E7800000 
  39              	.LVL3:
  40 0020 A685     		mv	a1,s1
  41 0022 97000000 		call	dh_init
  41      E7800000 
  42              	.LVL4:
  43              		.loc 1 19 8
  44 002a 08C0     		sw	a0,0(s0)
  20:C:/Users/stapi/OneDrive/Desktop/GD32VW553/V1_MQTT_OK/GD32VW55X_Wifi_BLE_SDK/GD32VW55x_RELEASE_V1.0.2/MSDK/wpa_supplicant/src/crypto\dh_group5.c **** 	if (*publ == NULL)
  45              		.loc 1 20 2 is_stmt 1
  21:C:/Users/stapi/OneDrive/Desktop/GD32VW553/V1_MQTT_OK/GD32VW55X_Wifi_BLE_SDK/GD32VW55x_RELEASE_V1.0.2/MSDK/wpa_supplicant/src/crypto\dh_group5.c **** 		return NULL;
  22:C:/Users/stapi/OneDrive/Desktop/GD32VW553/V1_MQTT_OK/GD32VW55X_Wifi_BLE_SDK/GD32VW55x_RELEASE_V1.0.2/MSDK/wpa_supplicant/src/crypto\dh_group5.c **** 	return (void *) 1;
  23:C:/Users/stapi/OneDrive/Desktop/GD32VW553/V1_MQTT_OK/GD32VW55X_Wifi_BLE_SDK/GD32VW55x_RELEASE_V1.0.2/MSDK/wpa_supplicant/src/crypto\dh_group5.c **** }
  46              		.loc 1 23 1 is_stmt 0
  47 002c 3335A000 		snez	a0,a0
  48 0030 17030000 		tail	__riscv_restore_2
  48      67000300 
  49              		.cfi_restore 9
  50              		.cfi_restore 8
  51              		.cfi_restore 1
  52              		.cfi_def_cfa_offset 0
  53              		.cfi_endproc
  54              	.LFE71:
  56              		.section	.text.dh5_init_fixed,"ax",@progbits
  57              		.align	1
  58              		.globl	dh5_init_fixed
  60              	dh5_init_fixed:
  61              	.LFB72:
  24:C:/Users/stapi/OneDrive/Desktop/GD32VW553/V1_MQTT_OK/GD32VW55X_Wifi_BLE_SDK/GD32VW55x_RELEASE_V1.0.2/MSDK/wpa_supplicant/src/crypto\dh_group5.c **** 
  25:C:/Users/stapi/OneDrive/Desktop/GD32VW553/V1_MQTT_OK/GD32VW55X_Wifi_BLE_SDK/GD32VW55x_RELEASE_V1.0.2/MSDK/wpa_supplicant/src/crypto\dh_group5.c **** 
  26:C:/Users/stapi/OneDrive/Desktop/GD32VW553/V1_MQTT_OK/GD32VW55X_Wifi_BLE_SDK/GD32VW55x_RELEASE_V1.0.2/MSDK/wpa_supplicant/src/crypto\dh_group5.c **** void * dh5_init_fixed(const struct wpabuf *priv, const struct wpabuf *publ)
  27:C:/Users/stapi/OneDrive/Desktop/GD32VW553/V1_MQTT_OK/GD32VW55X_Wifi_BLE_SDK/GD32VW55x_RELEASE_V1.0.2/MSDK/wpa_supplicant/src/crypto\dh_group5.c **** {
  62              		.loc 1 27 1 is_stmt 1
  63              		.cfi_startproc
  64              	.LVL5:
  28:C:/Users/stapi/OneDrive/Desktop/GD32VW553/V1_MQTT_OK/GD32VW55X_Wifi_BLE_SDK/GD32VW55x_RELEASE_V1.0.2/MSDK/wpa_supplicant/src/crypto\dh_group5.c **** 	return (void *) 1;
  65              		.loc 1 28 2
  29:C:/Users/stapi/OneDrive/Desktop/GD32VW553/V1_MQTT_OK/GD32VW55X_Wifi_BLE_SDK/GD32VW55x_RELEASE_V1.0.2/MSDK/wpa_supplicant/src/crypto\dh_group5.c **** }
  66              		.loc 1 29 1 is_stmt 0
  67 0000 0545     		li	a0,1
  68              	.LVL6:
  69 0002 8280     		ret
  70              		.cfi_endproc
  71              	.LFE72:
  73              		.section	.text.dh5_derive_shared,"ax",@progbits
  74              		.align	1
  75              		.globl	dh5_derive_shared
  77              	dh5_derive_shared:
  78              	.LFB73:
  30:C:/Users/stapi/OneDrive/Desktop/GD32VW553/V1_MQTT_OK/GD32VW55X_Wifi_BLE_SDK/GD32VW55x_RELEASE_V1.0.2/MSDK/wpa_supplicant/src/crypto\dh_group5.c **** 
  31:C:/Users/stapi/OneDrive/Desktop/GD32VW553/V1_MQTT_OK/GD32VW55X_Wifi_BLE_SDK/GD32VW55x_RELEASE_V1.0.2/MSDK/wpa_supplicant/src/crypto\dh_group5.c **** 
  32:C:/Users/stapi/OneDrive/Desktop/GD32VW553/V1_MQTT_OK/GD32VW55X_Wifi_BLE_SDK/GD32VW55x_RELEASE_V1.0.2/MSDK/wpa_supplicant/src/crypto\dh_group5.c **** struct wpabuf * dh5_derive_shared(void *ctx, const struct wpabuf *peer_public,
  33:C:/Users/stapi/OneDrive/Desktop/GD32VW553/V1_MQTT_OK/GD32VW55X_Wifi_BLE_SDK/GD32VW55x_RELEASE_V1.0.2/MSDK/wpa_supplicant/src/crypto\dh_group5.c **** 				  const struct wpabuf *own_private)
  34:C:/Users/stapi/OneDrive/Desktop/GD32VW553/V1_MQTT_OK/GD32VW55X_Wifi_BLE_SDK/GD32VW55x_RELEASE_V1.0.2/MSDK/wpa_supplicant/src/crypto\dh_group5.c **** {
  79              		.loc 1 34 1 is_stmt 1
  80              		.cfi_startproc
  81              	.LVL7:
  82 0000 17030000 		call	t0,__riscv_save_1
  82      E7020300 
  83              		.cfi_offset 8, -8
  84              		.cfi_offset 1, -4
  85              		.cfi_def_cfa_offset 16
  35:C:/Users/stapi/OneDrive/Desktop/GD32VW553/V1_MQTT_OK/GD32VW55X_Wifi_BLE_SDK/GD32VW55x_RELEASE_V1.0.2/MSDK/wpa_supplicant/src/crypto\dh_group5.c **** 	return dh_derive_shared(peer_public, own_private, dh_groups_get(5));
  86              		.loc 1 35 2
  34:C:/Users/stapi/OneDrive/Desktop/GD32VW553/V1_MQTT_OK/GD32VW55X_Wifi_BLE_SDK/GD32VW55x_RELEASE_V1.0.2/MSDK/wpa_supplicant/src/crypto\dh_group5.c **** 	return dh_derive_shared(peer_public, own_private, dh_groups_get(5));
  87              		.loc 1 34 1 is_stmt 0
  88 0008 4111     		addi	sp,sp,-16
  89              		.cfi_def_cfa_offset 32
  90              		.loc 1 35 9
  91 000a 1545     		li	a0,5
  92              	.LVL8:
  34:C:/Users/stapi/OneDrive/Desktop/GD32VW553/V1_MQTT_OK/GD32VW55X_Wifi_BLE_SDK/GD32VW55x_RELEASE_V1.0.2/MSDK/wpa_supplicant/src/crypto\dh_group5.c **** 	return dh_derive_shared(peer_public, own_private, dh_groups_get(5));
  93              		.loc 1 34 1
  94 000c 2E84     		mv	s0,a1
  95 000e 32C6     		sw	a2,12(sp)
  96              		.loc 1 35 9
  97 0010 97000000 		call	dh_groups_get
  97      E7800000 
  98              	.LVL9:
  99 0018 B245     		lw	a1,12(sp)
 100 001a 2A86     		mv	a2,a0
 101 001c 2285     		mv	a0,s0
 102 001e 97000000 		call	dh_derive_shared
 102      E7800000 
 103              	.LVL10:
  36:C:/Users/stapi/OneDrive/Desktop/GD32VW553/V1_MQTT_OK/GD32VW55X_Wifi_BLE_SDK/GD32VW55x_RELEASE_V1.0.2/MSDK/wpa_supplicant/src/crypto\dh_group5.c **** }
 104              		.loc 1 36 1
 105 0026 4101     		addi	sp,sp,16
 106              		.cfi_def_cfa_offset 0
 107              	.LVL11:
 108 0028 17030000 		tail	__riscv_restore_1
 108      67000300 
 109              		.cfi_restore 8
 110              		.cfi_restore 1
 111              		.cfi_def_cfa_offset -16
 112              		.cfi_endproc
 113              	.LFE73:
 115              		.section	.text.dh5_free,"ax",@progbits
 116              		.align	1
 117              		.globl	dh5_free
 119              	dh5_free:
 120              	.LFB74:
  37:C:/Users/stapi/OneDrive/Desktop/GD32VW553/V1_MQTT_OK/GD32VW55X_Wifi_BLE_SDK/GD32VW55x_RELEASE_V1.0.2/MSDK/wpa_supplicant/src/crypto\dh_group5.c **** 
  38:C:/Users/stapi/OneDrive/Desktop/GD32VW553/V1_MQTT_OK/GD32VW55X_Wifi_BLE_SDK/GD32VW55x_RELEASE_V1.0.2/MSDK/wpa_supplicant/src/crypto\dh_group5.c **** 
  39:C:/Users/stapi/OneDrive/Desktop/GD32VW553/V1_MQTT_OK/GD32VW55X_Wifi_BLE_SDK/GD32VW55x_RELEASE_V1.0.2/MSDK/wpa_supplicant/src/crypto\dh_group5.c **** void dh5_free(void *ctx)
  40:C:/Users/stapi/OneDrive/Desktop/GD32VW553/V1_MQTT_OK/GD32VW55X_Wifi_BLE_SDK/GD32VW55x_RELEASE_V1.0.2/MSDK/wpa_supplicant/src/crypto\dh_group5.c **** {
 121              		.loc 1 40 1 is_stmt 1
 122              		.cfi_startproc
 123              	.LVL12:
  41:C:/Users/stapi/OneDrive/Desktop/GD32VW553/V1_MQTT_OK/GD32VW55X_Wifi_BLE_SDK/GD32VW55x_RELEASE_V1.0.2/MSDK/wpa_supplicant/src/crypto\dh_group5.c **** }
 124              		.loc 1 41 1
 125 0000 8280     		ret
 126              		.cfi_endproc
 127              	.LFE74:
 129              		.text
 130              	.Letext0:
 131              		.file 2 "c:\\users\\stapi\\onedrive\\desktop\\gd32vw553\\embeddedbuilder_v1.4.7.26843\\tools\\nucl
 132              		.file 3 "c:\\users\\stapi\\onedrive\\desktop\\gd32vw553\\embeddedbuilder_v1.4.7.26843\\tools\\nucl
 133              		.file 4 "c:\\users\\stapi\\onedrive\\desktop\\gd32vw553\\embeddedbuilder_v1.4.7.26843\\tools\\nucl
 134              		.file 5 "..\\..\\..\\..\\wpa_supplicant\\src\\utils/wpabuf.h"
 135              		.file 6 "C:/Users/stapi/OneDrive/Desktop/GD32VW553/V1_MQTT_OK/GD32VW55X_Wifi_BLE_SDK/GD32VW55x_REL
 136              		.file 7 "..\\..\\..\\..\\wpa_supplicant\\src\\utils/common.h"