   1              		.file	"coap_uri.c"
   2              		.option nopic
   3              		.attribute arch, "rv32i2p0_m2p0_a2p0_f2p0_c2p0_b_p0p94"
   4              		.attribute unaligned_access, 0
   5              		.attribute stack_align, 16
   6              		.text
   7              	.Ltext0:
   8              		.cfi_sections	.debug_frame
   9              		.section	.rodata.coap_split_uri_sub.str1.4,"aMS",@progbits,1
  10              		.align	2
  11              	.LC0:
  12 0000 252E2A73 		.string	"%.*s URI scheme not enabled (not a proxy)\n"
  12      20555249 
  12      20736368 
  12      656D6520 
  12      6E6F7420 
  13 002b 00       		.align	2
  14              	.LC1:
  15 002c 252E2A73 		.string	"%.*s URI scheme unknown\n"
  15      20555249 
  15      20736368 
  15      656D6520 
  15      756E6B6E 
  16 0045 000000   		.align	2
  17              	.LC2:
  18 0048 636F6170 		.string	"coaps URI scheme not supported in this version of libcoap\n"
  18      73205552 
  18      49207363 
  18      68656D65 
  18      206E6F74 
  19 0083 00       		.align	2
  20              	.LC3:
  21 0084 636F6170 		.string	"coap+tcp URI scheme not supported in this version of libcoap\n"
  21      2B746370 
  21      20555249 
  21      20736368 
  21      656D6520 
  22 00c2 0000     		.align	2
  23              	.LC4:
  24 00c4 636F6170 		.string	"coaps+tcp URI scheme not supported in this version of libcoap\n"
  24      732B7463 
  24      70205552 
  24      49207363 
  24      68656D65 
  25 0103 00       		.align	2
  26              	.LC5:
  27 0104 636F6170 		.string	"coap+ws URI scheme not supported in this version of libcoap\n"
  27      2B777320 
  27      55524920 
  27      73636865 
  27      6D65206E 
  28 0141 000000   		.align	2
  29              	.LC6:
  30 0144 636F6170 		.string	"coaps+ws URI scheme not supported in this version of libcoap\n"
  30      732B7773 
  30      20555249 
  30      20736368 
  30      656D6520 
  31 0182 0000     		.align	2
  32              	.LC7:
  33 0184 556E7375 		.string	"Unsupported URI type %d\n"
  33      70706F72 
  33      74656420 
  33      55524920 
  33      74797065 
  34              		.section	.text.coap_split_uri_sub,"ax",@progbits
  35              		.align	1
  37              	coap_split_uri_sub:
  38              	.LFB32:
  39              		.file 1 "C:/Users/stapi/OneDrive/Desktop/GD32VW553/GD32VW55X_Wifi_BLE_SDK/GD32VW55x_RELEASE_V1.0.2
   1:C:/Users/stapi/OneDrive/Desktop/GD32VW553/GD32VW55X_Wifi_BLE_SDK/GD32VW55x_RELEASE_V1.0.2/MSDK/lwip/libcoap-4.3.4/src\coap_uri.c **** /* coap_uri.c -- helper functions for URI treatment
   2:C:/Users/stapi/OneDrive/Desktop/GD32VW553/GD32VW55X_Wifi_BLE_SDK/GD32VW55x_RELEASE_V1.0.2/MSDK/lwip/libcoap-4.3.4/src\coap_uri.c ****  *
   3:C:/Users/stapi/OneDrive/Desktop/GD32VW553/GD32VW55X_Wifi_BLE_SDK/GD32VW55x_RELEASE_V1.0.2/MSDK/lwip/libcoap-4.3.4/src\coap_uri.c ****  * Copyright (C) 2010--2012,2015-2016,2022-2023 Olaf Bergmann <bergmann@tzi.org>
   4:C:/Users/stapi/OneDrive/Desktop/GD32VW553/GD32VW55X_Wifi_BLE_SDK/GD32VW55x_RELEASE_V1.0.2/MSDK/lwip/libcoap-4.3.4/src\coap_uri.c ****  *
   5:C:/Users/stapi/OneDrive/Desktop/GD32VW553/GD32VW55X_Wifi_BLE_SDK/GD32VW55x_RELEASE_V1.0.2/MSDK/lwip/libcoap-4.3.4/src\coap_uri.c ****  * SPDX-License-Identifier: BSD-2-Clause
   6:C:/Users/stapi/OneDrive/Desktop/GD32VW553/GD32VW55X_Wifi_BLE_SDK/GD32VW55x_RELEASE_V1.0.2/MSDK/lwip/libcoap-4.3.4/src\coap_uri.c ****  *
   7:C:/Users/stapi/OneDrive/Desktop/GD32VW553/GD32VW55X_Wifi_BLE_SDK/GD32VW55x_RELEASE_V1.0.2/MSDK/lwip/libcoap-4.3.4/src\coap_uri.c ****  * This file is part of the CoAP library libcoap. Please see
   8:C:/Users/stapi/OneDrive/Desktop/GD32VW553/GD32VW55X_Wifi_BLE_SDK/GD32VW55x_RELEASE_V1.0.2/MSDK/lwip/libcoap-4.3.4/src\coap_uri.c ****  * README for terms of use.
   9:C:/Users/stapi/OneDrive/Desktop/GD32VW553/GD32VW55X_Wifi_BLE_SDK/GD32VW55x_RELEASE_V1.0.2/MSDK/lwip/libcoap-4.3.4/src\coap_uri.c ****  */
  10:C:/Users/stapi/OneDrive/Desktop/GD32VW553/GD32VW55X_Wifi_BLE_SDK/GD32VW55x_RELEASE_V1.0.2/MSDK/lwip/libcoap-4.3.4/src\coap_uri.c **** 
  11:C:/Users/stapi/OneDrive/Desktop/GD32VW553/GD32VW55X_Wifi_BLE_SDK/GD32VW55x_RELEASE_V1.0.2/MSDK/lwip/libcoap-4.3.4/src\coap_uri.c **** /**
  12:C:/Users/stapi/OneDrive/Desktop/GD32VW553/GD32VW55X_Wifi_BLE_SDK/GD32VW55x_RELEASE_V1.0.2/MSDK/lwip/libcoap-4.3.4/src\coap_uri.c ****  * @file coap_uri.c
  13:C:/Users/stapi/OneDrive/Desktop/GD32VW553/GD32VW55X_Wifi_BLE_SDK/GD32VW55x_RELEASE_V1.0.2/MSDK/lwip/libcoap-4.3.4/src\coap_uri.c ****  * @brief URI handling functions
  14:C:/Users/stapi/OneDrive/Desktop/GD32VW553/GD32VW55X_Wifi_BLE_SDK/GD32VW55x_RELEASE_V1.0.2/MSDK/lwip/libcoap-4.3.4/src\coap_uri.c ****  */
  15:C:/Users/stapi/OneDrive/Desktop/GD32VW553/GD32VW55X_Wifi_BLE_SDK/GD32VW55x_RELEASE_V1.0.2/MSDK/lwip/libcoap-4.3.4/src\coap_uri.c **** 
  16:C:/Users/stapi/OneDrive/Desktop/GD32VW553/GD32VW55X_Wifi_BLE_SDK/GD32VW55x_RELEASE_V1.0.2/MSDK/lwip/libcoap-4.3.4/src\coap_uri.c **** #include "coap3/coap_internal.h"
  17:C:/Users/stapi/OneDrive/Desktop/GD32VW553/GD32VW55X_Wifi_BLE_SDK/GD32VW55x_RELEASE_V1.0.2/MSDK/lwip/libcoap-4.3.4/src\coap_uri.c **** 
  18:C:/Users/stapi/OneDrive/Desktop/GD32VW553/GD32VW55X_Wifi_BLE_SDK/GD32VW55x_RELEASE_V1.0.2/MSDK/lwip/libcoap-4.3.4/src\coap_uri.c **** #if defined(HAVE_LIMITS_H)
  19:C:/Users/stapi/OneDrive/Desktop/GD32VW553/GD32VW55X_Wifi_BLE_SDK/GD32VW55x_RELEASE_V1.0.2/MSDK/lwip/libcoap-4.3.4/src\coap_uri.c **** #include <limits.h>
  20:C:/Users/stapi/OneDrive/Desktop/GD32VW553/GD32VW55X_Wifi_BLE_SDK/GD32VW55x_RELEASE_V1.0.2/MSDK/lwip/libcoap-4.3.4/src\coap_uri.c **** #endif
  21:C:/Users/stapi/OneDrive/Desktop/GD32VW553/GD32VW55X_Wifi_BLE_SDK/GD32VW55x_RELEASE_V1.0.2/MSDK/lwip/libcoap-4.3.4/src\coap_uri.c **** 
  22:C:/Users/stapi/OneDrive/Desktop/GD32VW553/GD32VW55X_Wifi_BLE_SDK/GD32VW55x_RELEASE_V1.0.2/MSDK/lwip/libcoap-4.3.4/src\coap_uri.c **** #include <stdint.h>
  23:C:/Users/stapi/OneDrive/Desktop/GD32VW553/GD32VW55X_Wifi_BLE_SDK/GD32VW55x_RELEASE_V1.0.2/MSDK/lwip/libcoap-4.3.4/src\coap_uri.c **** #include <stdio.h>
  24:C:/Users/stapi/OneDrive/Desktop/GD32VW553/GD32VW55X_Wifi_BLE_SDK/GD32VW55x_RELEASE_V1.0.2/MSDK/lwip/libcoap-4.3.4/src\coap_uri.c **** #include <string.h>
  25:C:/Users/stapi/OneDrive/Desktop/GD32VW553/GD32VW55X_Wifi_BLE_SDK/GD32VW55x_RELEASE_V1.0.2/MSDK/lwip/libcoap-4.3.4/src\coap_uri.c **** #include <ctype.h>
  26:C:/Users/stapi/OneDrive/Desktop/GD32VW553/GD32VW55X_Wifi_BLE_SDK/GD32VW55x_RELEASE_V1.0.2/MSDK/lwip/libcoap-4.3.4/src\coap_uri.c **** 
  27:C:/Users/stapi/OneDrive/Desktop/GD32VW553/GD32VW55X_Wifi_BLE_SDK/GD32VW55x_RELEASE_V1.0.2/MSDK/lwip/libcoap-4.3.4/src\coap_uri.c **** /**
  28:C:/Users/stapi/OneDrive/Desktop/GD32VW553/GD32VW55X_Wifi_BLE_SDK/GD32VW55x_RELEASE_V1.0.2/MSDK/lwip/libcoap-4.3.4/src\coap_uri.c ****  * A length-safe version of strchr(). This function returns a pointer
  29:C:/Users/stapi/OneDrive/Desktop/GD32VW553/GD32VW55X_Wifi_BLE_SDK/GD32VW55x_RELEASE_V1.0.2/MSDK/lwip/libcoap-4.3.4/src\coap_uri.c ****  * to the first occurrence of @p c  in @p s, or @c NULL if not found.
  30:C:/Users/stapi/OneDrive/Desktop/GD32VW553/GD32VW55X_Wifi_BLE_SDK/GD32VW55x_RELEASE_V1.0.2/MSDK/lwip/libcoap-4.3.4/src\coap_uri.c ****  *
  31:C:/Users/stapi/OneDrive/Desktop/GD32VW553/GD32VW55X_Wifi_BLE_SDK/GD32VW55x_RELEASE_V1.0.2/MSDK/lwip/libcoap-4.3.4/src\coap_uri.c ****  * @param s   The string to search for @p c.
  32:C:/Users/stapi/OneDrive/Desktop/GD32VW553/GD32VW55X_Wifi_BLE_SDK/GD32VW55x_RELEASE_V1.0.2/MSDK/lwip/libcoap-4.3.4/src\coap_uri.c ****  * @param len The length of @p s.
  33:C:/Users/stapi/OneDrive/Desktop/GD32VW553/GD32VW55X_Wifi_BLE_SDK/GD32VW55x_RELEASE_V1.0.2/MSDK/lwip/libcoap-4.3.4/src\coap_uri.c ****  * @param c   The character to search.
  34:C:/Users/stapi/OneDrive/Desktop/GD32VW553/GD32VW55X_Wifi_BLE_SDK/GD32VW55x_RELEASE_V1.0.2/MSDK/lwip/libcoap-4.3.4/src\coap_uri.c ****  *
  35:C:/Users/stapi/OneDrive/Desktop/GD32VW553/GD32VW55X_Wifi_BLE_SDK/GD32VW55x_RELEASE_V1.0.2/MSDK/lwip/libcoap-4.3.4/src\coap_uri.c ****  * @return A pointer to the first occurence of @p c, or @c NULL
  36:C:/Users/stapi/OneDrive/Desktop/GD32VW553/GD32VW55X_Wifi_BLE_SDK/GD32VW55x_RELEASE_V1.0.2/MSDK/lwip/libcoap-4.3.4/src\coap_uri.c ****  * if not found.
  37:C:/Users/stapi/OneDrive/Desktop/GD32VW553/GD32VW55X_Wifi_BLE_SDK/GD32VW55x_RELEASE_V1.0.2/MSDK/lwip/libcoap-4.3.4/src\coap_uri.c ****  */
  38:C:/Users/stapi/OneDrive/Desktop/GD32VW553/GD32VW55X_Wifi_BLE_SDK/GD32VW55x_RELEASE_V1.0.2/MSDK/lwip/libcoap-4.3.4/src\coap_uri.c **** COAP_STATIC_INLINE const uint8_t *
  39:C:/Users/stapi/OneDrive/Desktop/GD32VW553/GD32VW55X_Wifi_BLE_SDK/GD32VW55x_RELEASE_V1.0.2/MSDK/lwip/libcoap-4.3.4/src\coap_uri.c **** strnchr(const uint8_t *s, size_t len, unsigned char c) {
  40:C:/Users/stapi/OneDrive/Desktop/GD32VW553/GD32VW55X_Wifi_BLE_SDK/GD32VW55x_RELEASE_V1.0.2/MSDK/lwip/libcoap-4.3.4/src\coap_uri.c ****   while (len && *s++ != c)
  41:C:/Users/stapi/OneDrive/Desktop/GD32VW553/GD32VW55X_Wifi_BLE_SDK/GD32VW55x_RELEASE_V1.0.2/MSDK/lwip/libcoap-4.3.4/src\coap_uri.c ****     --len;
  42:C:/Users/stapi/OneDrive/Desktop/GD32VW553/GD32VW55X_Wifi_BLE_SDK/GD32VW55x_RELEASE_V1.0.2/MSDK/lwip/libcoap-4.3.4/src\coap_uri.c **** 
  43:C:/Users/stapi/OneDrive/Desktop/GD32VW553/GD32VW55X_Wifi_BLE_SDK/GD32VW55x_RELEASE_V1.0.2/MSDK/lwip/libcoap-4.3.4/src\coap_uri.c ****   return len ? s : NULL;
  44:C:/Users/stapi/OneDrive/Desktop/GD32VW553/GD32VW55X_Wifi_BLE_SDK/GD32VW55x_RELEASE_V1.0.2/MSDK/lwip/libcoap-4.3.4/src\coap_uri.c **** }
  45:C:/Users/stapi/OneDrive/Desktop/GD32VW553/GD32VW55X_Wifi_BLE_SDK/GD32VW55x_RELEASE_V1.0.2/MSDK/lwip/libcoap-4.3.4/src\coap_uri.c **** 
  46:C:/Users/stapi/OneDrive/Desktop/GD32VW553/GD32VW55X_Wifi_BLE_SDK/GD32VW55x_RELEASE_V1.0.2/MSDK/lwip/libcoap-4.3.4/src\coap_uri.c **** typedef enum coap_uri_check_t {
  47:C:/Users/stapi/OneDrive/Desktop/GD32VW553/GD32VW55X_Wifi_BLE_SDK/GD32VW55x_RELEASE_V1.0.2/MSDK/lwip/libcoap-4.3.4/src\coap_uri.c ****   COAP_URI_CHECK_URI,
  48:C:/Users/stapi/OneDrive/Desktop/GD32VW553/GD32VW55X_Wifi_BLE_SDK/GD32VW55x_RELEASE_V1.0.2/MSDK/lwip/libcoap-4.3.4/src\coap_uri.c ****   COAP_URI_CHECK_PROXY
  49:C:/Users/stapi/OneDrive/Desktop/GD32VW553/GD32VW55X_Wifi_BLE_SDK/GD32VW55x_RELEASE_V1.0.2/MSDK/lwip/libcoap-4.3.4/src\coap_uri.c **** } coap_uri_check_t;
  50:C:/Users/stapi/OneDrive/Desktop/GD32VW553/GD32VW55X_Wifi_BLE_SDK/GD32VW55x_RELEASE_V1.0.2/MSDK/lwip/libcoap-4.3.4/src\coap_uri.c **** 
  51:C:/Users/stapi/OneDrive/Desktop/GD32VW553/GD32VW55X_Wifi_BLE_SDK/GD32VW55x_RELEASE_V1.0.2/MSDK/lwip/libcoap-4.3.4/src\coap_uri.c **** coap_uri_info_t coap_uri_scheme[COAP_URI_SCHEME_LAST] = {
  52:C:/Users/stapi/OneDrive/Desktop/GD32VW553/GD32VW55X_Wifi_BLE_SDK/GD32VW55x_RELEASE_V1.0.2/MSDK/lwip/libcoap-4.3.4/src\coap_uri.c ****   { "coap",       COAP_DEFAULT_PORT,  0, COAP_URI_SCHEME_COAP },
  53:C:/Users/stapi/OneDrive/Desktop/GD32VW553/GD32VW55X_Wifi_BLE_SDK/GD32VW55x_RELEASE_V1.0.2/MSDK/lwip/libcoap-4.3.4/src\coap_uri.c ****   { "coaps",      COAPS_DEFAULT_PORT, 0, COAP_URI_SCHEME_COAPS },
  54:C:/Users/stapi/OneDrive/Desktop/GD32VW553/GD32VW55X_Wifi_BLE_SDK/GD32VW55x_RELEASE_V1.0.2/MSDK/lwip/libcoap-4.3.4/src\coap_uri.c ****   { "coap+tcp",   COAP_DEFAULT_PORT,  0, COAP_URI_SCHEME_COAP_TCP },
  55:C:/Users/stapi/OneDrive/Desktop/GD32VW553/GD32VW55X_Wifi_BLE_SDK/GD32VW55x_RELEASE_V1.0.2/MSDK/lwip/libcoap-4.3.4/src\coap_uri.c ****   { "coaps+tcp",  COAPS_DEFAULT_PORT, 0, COAP_URI_SCHEME_COAPS_TCP },
  56:C:/Users/stapi/OneDrive/Desktop/GD32VW553/GD32VW55X_Wifi_BLE_SDK/GD32VW55x_RELEASE_V1.0.2/MSDK/lwip/libcoap-4.3.4/src\coap_uri.c ****   { "http",         80,               1, COAP_URI_SCHEME_HTTP },
  57:C:/Users/stapi/OneDrive/Desktop/GD32VW553/GD32VW55X_Wifi_BLE_SDK/GD32VW55x_RELEASE_V1.0.2/MSDK/lwip/libcoap-4.3.4/src\coap_uri.c ****   { "https",       443,               1, COAP_URI_SCHEME_HTTPS },
  58:C:/Users/stapi/OneDrive/Desktop/GD32VW553/GD32VW55X_Wifi_BLE_SDK/GD32VW55x_RELEASE_V1.0.2/MSDK/lwip/libcoap-4.3.4/src\coap_uri.c ****   { "coap+ws",      80,               0, COAP_URI_SCHEME_COAP_WS },
  59:C:/Users/stapi/OneDrive/Desktop/GD32VW553/GD32VW55X_Wifi_BLE_SDK/GD32VW55x_RELEASE_V1.0.2/MSDK/lwip/libcoap-4.3.4/src\coap_uri.c ****   { "coaps+ws",    443,               0, COAP_URI_SCHEME_COAPS_WS }
  60:C:/Users/stapi/OneDrive/Desktop/GD32VW553/GD32VW55X_Wifi_BLE_SDK/GD32VW55x_RELEASE_V1.0.2/MSDK/lwip/libcoap-4.3.4/src\coap_uri.c **** };
  61:C:/Users/stapi/OneDrive/Desktop/GD32VW553/GD32VW55X_Wifi_BLE_SDK/GD32VW55x_RELEASE_V1.0.2/MSDK/lwip/libcoap-4.3.4/src\coap_uri.c **** 
  62:C:/Users/stapi/OneDrive/Desktop/GD32VW553/GD32VW55X_Wifi_BLE_SDK/GD32VW55x_RELEASE_V1.0.2/MSDK/lwip/libcoap-4.3.4/src\coap_uri.c **** static int
  63:C:/Users/stapi/OneDrive/Desktop/GD32VW553/GD32VW55X_Wifi_BLE_SDK/GD32VW55x_RELEASE_V1.0.2/MSDK/lwip/libcoap-4.3.4/src\coap_uri.c **** coap_split_uri_sub(const uint8_t *str_var,
  64:C:/Users/stapi/OneDrive/Desktop/GD32VW553/GD32VW55X_Wifi_BLE_SDK/GD32VW55x_RELEASE_V1.0.2/MSDK/lwip/libcoap-4.3.4/src\coap_uri.c ****                    size_t len,
  65:C:/Users/stapi/OneDrive/Desktop/GD32VW553/GD32VW55X_Wifi_BLE_SDK/GD32VW55x_RELEASE_V1.0.2/MSDK/lwip/libcoap-4.3.4/src\coap_uri.c ****                    coap_uri_t *uri,
  66:C:/Users/stapi/OneDrive/Desktop/GD32VW553/GD32VW55X_Wifi_BLE_SDK/GD32VW55x_RELEASE_V1.0.2/MSDK/lwip/libcoap-4.3.4/src\coap_uri.c ****                    coap_uri_check_t check_proxy) {
  40              		.loc 1 66 50
  41              		.cfi_startproc
  42              	.LVL0:
  67:C:/Users/stapi/OneDrive/Desktop/GD32VW553/GD32VW55X_Wifi_BLE_SDK/GD32VW55x_RELEASE_V1.0.2/MSDK/lwip/libcoap-4.3.4/src\coap_uri.c ****   const uint8_t *p, *q;
  43              		.loc 1 67 3
  68:C:/Users/stapi/OneDrive/Desktop/GD32VW553/GD32VW55X_Wifi_BLE_SDK/GD32VW55x_RELEASE_V1.0.2/MSDK/lwip/libcoap-4.3.4/src\coap_uri.c ****   int res = 0;
  44              		.loc 1 68 3
  69:C:/Users/stapi/OneDrive/Desktop/GD32VW553/GD32VW55X_Wifi_BLE_SDK/GD32VW55x_RELEASE_V1.0.2/MSDK/lwip/libcoap-4.3.4/src\coap_uri.c ****   size_t i;
  45              		.loc 1 69 3
  70:C:/Users/stapi/OneDrive/Desktop/GD32VW553/GD32VW55X_Wifi_BLE_SDK/GD32VW55x_RELEASE_V1.0.2/MSDK/lwip/libcoap-4.3.4/src\coap_uri.c ****   int is_unix_domain = 0;
  46              		.loc 1 70 3
  71:C:/Users/stapi/OneDrive/Desktop/GD32VW553/GD32VW55X_Wifi_BLE_SDK/GD32VW55x_RELEASE_V1.0.2/MSDK/lwip/libcoap-4.3.4/src\coap_uri.c **** 
  72:C:/Users/stapi/OneDrive/Desktop/GD32VW553/GD32VW55X_Wifi_BLE_SDK/GD32VW55x_RELEASE_V1.0.2/MSDK/lwip/libcoap-4.3.4/src\coap_uri.c ****   if (!str_var || !uri || len == 0)
  47              		.loc 1 72 3
  48              		.loc 1 72 6 is_stmt 0
  49 0000 19E1     		bne	a0,zero,.L2
  73:C:/Users/stapi/OneDrive/Desktop/GD32VW553/GD32VW55X_Wifi_BLE_SDK/GD32VW55x_RELEASE_V1.0.2/MSDK/lwip/libcoap-4.3.4/src\coap_uri.c ****     return -1;
  50              		.loc 1 73 12
  51 0002 7D55     		li	a0,-1
  52              	.LVL1:
  74:C:/Users/stapi/OneDrive/Desktop/GD32VW553/GD32VW55X_Wifi_BLE_SDK/GD32VW55x_RELEASE_V1.0.2/MSDK/lwip/libcoap-4.3.4/src\coap_uri.c **** 
  75:C:/Users/stapi/OneDrive/Desktop/GD32VW553/GD32VW55X_Wifi_BLE_SDK/GD32VW55x_RELEASE_V1.0.2/MSDK/lwip/libcoap-4.3.4/src\coap_uri.c ****   memset(uri, 0, sizeof(coap_uri_t));
  76:C:/Users/stapi/OneDrive/Desktop/GD32VW553/GD32VW55X_Wifi_BLE_SDK/GD32VW55x_RELEASE_V1.0.2/MSDK/lwip/libcoap-4.3.4/src\coap_uri.c ****   uri->port = COAP_DEFAULT_PORT;
  77:C:/Users/stapi/OneDrive/Desktop/GD32VW553/GD32VW55X_Wifi_BLE_SDK/GD32VW55x_RELEASE_V1.0.2/MSDK/lwip/libcoap-4.3.4/src\coap_uri.c **** 
  78:C:/Users/stapi/OneDrive/Desktop/GD32VW553/GD32VW55X_Wifi_BLE_SDK/GD32VW55x_RELEASE_V1.0.2/MSDK/lwip/libcoap-4.3.4/src\coap_uri.c ****   /* search for scheme */
  79:C:/Users/stapi/OneDrive/Desktop/GD32VW553/GD32VW55X_Wifi_BLE_SDK/GD32VW55x_RELEASE_V1.0.2/MSDK/lwip/libcoap-4.3.4/src\coap_uri.c ****   p = str_var;
  80:C:/Users/stapi/OneDrive/Desktop/GD32VW553/GD32VW55X_Wifi_BLE_SDK/GD32VW55x_RELEASE_V1.0.2/MSDK/lwip/libcoap-4.3.4/src\coap_uri.c ****   if (*p == '/') {
  81:C:/Users/stapi/OneDrive/Desktop/GD32VW553/GD32VW55X_Wifi_BLE_SDK/GD32VW55x_RELEASE_V1.0.2/MSDK/lwip/libcoap-4.3.4/src\coap_uri.c ****     /* no scheme, host or port */
  82:C:/Users/stapi/OneDrive/Desktop/GD32VW553/GD32VW55X_Wifi_BLE_SDK/GD32VW55x_RELEASE_V1.0.2/MSDK/lwip/libcoap-4.3.4/src\coap_uri.c ****     if (check_proxy == COAP_URI_CHECK_PROXY) {
  83:C:/Users/stapi/OneDrive/Desktop/GD32VW553/GD32VW55X_Wifi_BLE_SDK/GD32VW55x_RELEASE_V1.0.2/MSDK/lwip/libcoap-4.3.4/src\coap_uri.c ****       /* Must have ongoing host if proxy definition */
  84:C:/Users/stapi/OneDrive/Desktop/GD32VW553/GD32VW55X_Wifi_BLE_SDK/GD32VW55x_RELEASE_V1.0.2/MSDK/lwip/libcoap-4.3.4/src\coap_uri.c ****       return -1;
  85:C:/Users/stapi/OneDrive/Desktop/GD32VW553/GD32VW55X_Wifi_BLE_SDK/GD32VW55x_RELEASE_V1.0.2/MSDK/lwip/libcoap-4.3.4/src\coap_uri.c ****     }
  86:C:/Users/stapi/OneDrive/Desktop/GD32VW553/GD32VW55X_Wifi_BLE_SDK/GD32VW55x_RELEASE_V1.0.2/MSDK/lwip/libcoap-4.3.4/src\coap_uri.c ****     q = p;
  87:C:/Users/stapi/OneDrive/Desktop/GD32VW553/GD32VW55X_Wifi_BLE_SDK/GD32VW55x_RELEASE_V1.0.2/MSDK/lwip/libcoap-4.3.4/src\coap_uri.c ****     goto path;
  88:C:/Users/stapi/OneDrive/Desktop/GD32VW553/GD32VW55X_Wifi_BLE_SDK/GD32VW55x_RELEASE_V1.0.2/MSDK/lwip/libcoap-4.3.4/src\coap_uri.c ****   }
  89:C:/Users/stapi/OneDrive/Desktop/GD32VW553/GD32VW55X_Wifi_BLE_SDK/GD32VW55x_RELEASE_V1.0.2/MSDK/lwip/libcoap-4.3.4/src\coap_uri.c **** 
  90:C:/Users/stapi/OneDrive/Desktop/GD32VW553/GD32VW55X_Wifi_BLE_SDK/GD32VW55x_RELEASE_V1.0.2/MSDK/lwip/libcoap-4.3.4/src\coap_uri.c ****   /* find scheme terminating :// */
  91:C:/Users/stapi/OneDrive/Desktop/GD32VW553/GD32VW55X_Wifi_BLE_SDK/GD32VW55x_RELEASE_V1.0.2/MSDK/lwip/libcoap-4.3.4/src\coap_uri.c ****   while (len >= 3 && !(p[0] == ':' && p[1] == '/' && p[2] == '/')) {
  92:C:/Users/stapi/OneDrive/Desktop/GD32VW553/GD32VW55X_Wifi_BLE_SDK/GD32VW55x_RELEASE_V1.0.2/MSDK/lwip/libcoap-4.3.4/src\coap_uri.c ****     ++p;
  93:C:/Users/stapi/OneDrive/Desktop/GD32VW553/GD32VW55X_Wifi_BLE_SDK/GD32VW55x_RELEASE_V1.0.2/MSDK/lwip/libcoap-4.3.4/src\coap_uri.c ****     --len;
  94:C:/Users/stapi/OneDrive/Desktop/GD32VW553/GD32VW55X_Wifi_BLE_SDK/GD32VW55x_RELEASE_V1.0.2/MSDK/lwip/libcoap-4.3.4/src\coap_uri.c ****   }
  95:C:/Users/stapi/OneDrive/Desktop/GD32VW553/GD32VW55X_Wifi_BLE_SDK/GD32VW55x_RELEASE_V1.0.2/MSDK/lwip/libcoap-4.3.4/src\coap_uri.c ****   if (len < 3) {
  96:C:/Users/stapi/OneDrive/Desktop/GD32VW553/GD32VW55X_Wifi_BLE_SDK/GD32VW55x_RELEASE_V1.0.2/MSDK/lwip/libcoap-4.3.4/src\coap_uri.c ****     /* scheme not defined with a :// terminator */
  97:C:/Users/stapi/OneDrive/Desktop/GD32VW553/GD32VW55X_Wifi_BLE_SDK/GD32VW55x_RELEASE_V1.0.2/MSDK/lwip/libcoap-4.3.4/src\coap_uri.c ****     res = -2;
  98:C:/Users/stapi/OneDrive/Desktop/GD32VW553/GD32VW55X_Wifi_BLE_SDK/GD32VW55x_RELEASE_V1.0.2/MSDK/lwip/libcoap-4.3.4/src\coap_uri.c ****     goto error;
  99:C:/Users/stapi/OneDrive/Desktop/GD32VW553/GD32VW55X_Wifi_BLE_SDK/GD32VW55x_RELEASE_V1.0.2/MSDK/lwip/libcoap-4.3.4/src\coap_uri.c ****   }
 100:C:/Users/stapi/OneDrive/Desktop/GD32VW553/GD32VW55X_Wifi_BLE_SDK/GD32VW55x_RELEASE_V1.0.2/MSDK/lwip/libcoap-4.3.4/src\coap_uri.c ****   for (i = 0; i < COAP_URI_SCHEME_LAST; i++) {
 101:C:/Users/stapi/OneDrive/Desktop/GD32VW553/GD32VW55X_Wifi_BLE_SDK/GD32VW55x_RELEASE_V1.0.2/MSDK/lwip/libcoap-4.3.4/src\coap_uri.c ****     if ((p - str_var) == (int)strlen(coap_uri_scheme[i].name) &&
 102:C:/Users/stapi/OneDrive/Desktop/GD32VW553/GD32VW55X_Wifi_BLE_SDK/GD32VW55x_RELEASE_V1.0.2/MSDK/lwip/libcoap-4.3.4/src\coap_uri.c ****         memcmp(str_var, coap_uri_scheme[i].name, p - str_var) == 0) {
 103:C:/Users/stapi/OneDrive/Desktop/GD32VW553/GD32VW55X_Wifi_BLE_SDK/GD32VW55x_RELEASE_V1.0.2/MSDK/lwip/libcoap-4.3.4/src\coap_uri.c ****       if (check_proxy != COAP_URI_CHECK_PROXY && coap_uri_scheme[i].proxy_only) {
 104:C:/Users/stapi/OneDrive/Desktop/GD32VW553/GD32VW55X_Wifi_BLE_SDK/GD32VW55x_RELEASE_V1.0.2/MSDK/lwip/libcoap-4.3.4/src\coap_uri.c ****         coap_log_err("%.*s URI scheme not enabled (not a proxy)\n",
 105:C:/Users/stapi/OneDrive/Desktop/GD32VW553/GD32VW55X_Wifi_BLE_SDK/GD32VW55x_RELEASE_V1.0.2/MSDK/lwip/libcoap-4.3.4/src\coap_uri.c ****                      (int)(p - str_var), str_var);
 106:C:/Users/stapi/OneDrive/Desktop/GD32VW553/GD32VW55X_Wifi_BLE_SDK/GD32VW55x_RELEASE_V1.0.2/MSDK/lwip/libcoap-4.3.4/src\coap_uri.c ****         return -1;
 107:C:/Users/stapi/OneDrive/Desktop/GD32VW553/GD32VW55X_Wifi_BLE_SDK/GD32VW55x_RELEASE_V1.0.2/MSDK/lwip/libcoap-4.3.4/src\coap_uri.c ****       }
 108:C:/Users/stapi/OneDrive/Desktop/GD32VW553/GD32VW55X_Wifi_BLE_SDK/GD32VW55x_RELEASE_V1.0.2/MSDK/lwip/libcoap-4.3.4/src\coap_uri.c ****       uri->scheme = coap_uri_scheme[i].scheme;
 109:C:/Users/stapi/OneDrive/Desktop/GD32VW553/GD32VW55X_Wifi_BLE_SDK/GD32VW55x_RELEASE_V1.0.2/MSDK/lwip/libcoap-4.3.4/src\coap_uri.c ****       uri->port = coap_uri_scheme[i].port;
 110:C:/Users/stapi/OneDrive/Desktop/GD32VW553/GD32VW55X_Wifi_BLE_SDK/GD32VW55x_RELEASE_V1.0.2/MSDK/lwip/libcoap-4.3.4/src\coap_uri.c ****       break;
 111:C:/Users/stapi/OneDrive/Desktop/GD32VW553/GD32VW55X_Wifi_BLE_SDK/GD32VW55x_RELEASE_V1.0.2/MSDK/lwip/libcoap-4.3.4/src\coap_uri.c ****     }
 112:C:/Users/stapi/OneDrive/Desktop/GD32VW553/GD32VW55X_Wifi_BLE_SDK/GD32VW55x_RELEASE_V1.0.2/MSDK/lwip/libcoap-4.3.4/src\coap_uri.c ****   }
 113:C:/Users/stapi/OneDrive/Desktop/GD32VW553/GD32VW55X_Wifi_BLE_SDK/GD32VW55x_RELEASE_V1.0.2/MSDK/lwip/libcoap-4.3.4/src\coap_uri.c ****   if (i == COAP_URI_SCHEME_LAST) {
 114:C:/Users/stapi/OneDrive/Desktop/GD32VW553/GD32VW55X_Wifi_BLE_SDK/GD32VW55x_RELEASE_V1.0.2/MSDK/lwip/libcoap-4.3.4/src\coap_uri.c ****     /* scheme unknown */
 115:C:/Users/stapi/OneDrive/Desktop/GD32VW553/GD32VW55X_Wifi_BLE_SDK/GD32VW55x_RELEASE_V1.0.2/MSDK/lwip/libcoap-4.3.4/src\coap_uri.c ****     coap_log_err("%.*s URI scheme unknown\n", (int)(p - str_var), str_var);
 116:C:/Users/stapi/OneDrive/Desktop/GD32VW553/GD32VW55X_Wifi_BLE_SDK/GD32VW55x_RELEASE_V1.0.2/MSDK/lwip/libcoap-4.3.4/src\coap_uri.c ****     res = -1;
 117:C:/Users/stapi/OneDrive/Desktop/GD32VW553/GD32VW55X_Wifi_BLE_SDK/GD32VW55x_RELEASE_V1.0.2/MSDK/lwip/libcoap-4.3.4/src\coap_uri.c ****     goto error;
 118:C:/Users/stapi/OneDrive/Desktop/GD32VW553/GD32VW55X_Wifi_BLE_SDK/GD32VW55x_RELEASE_V1.0.2/MSDK/lwip/libcoap-4.3.4/src\coap_uri.c ****   }
 119:C:/Users/stapi/OneDrive/Desktop/GD32VW553/GD32VW55X_Wifi_BLE_SDK/GD32VW55x_RELEASE_V1.0.2/MSDK/lwip/libcoap-4.3.4/src\coap_uri.c ****   switch (uri->scheme) {
 120:C:/Users/stapi/OneDrive/Desktop/GD32VW553/GD32VW55X_Wifi_BLE_SDK/GD32VW55x_RELEASE_V1.0.2/MSDK/lwip/libcoap-4.3.4/src\coap_uri.c ****   case COAP_URI_SCHEME_COAP:
 121:C:/Users/stapi/OneDrive/Desktop/GD32VW553/GD32VW55X_Wifi_BLE_SDK/GD32VW55x_RELEASE_V1.0.2/MSDK/lwip/libcoap-4.3.4/src\coap_uri.c ****     break;
 122:C:/Users/stapi/OneDrive/Desktop/GD32VW553/GD32VW55X_Wifi_BLE_SDK/GD32VW55x_RELEASE_V1.0.2/MSDK/lwip/libcoap-4.3.4/src\coap_uri.c ****   case COAP_URI_SCHEME_COAPS:
 123:C:/Users/stapi/OneDrive/Desktop/GD32VW553/GD32VW55X_Wifi_BLE_SDK/GD32VW55x_RELEASE_V1.0.2/MSDK/lwip/libcoap-4.3.4/src\coap_uri.c ****     if (!coap_dtls_is_supported()) {
 124:C:/Users/stapi/OneDrive/Desktop/GD32VW553/GD32VW55X_Wifi_BLE_SDK/GD32VW55x_RELEASE_V1.0.2/MSDK/lwip/libcoap-4.3.4/src\coap_uri.c ****       coap_log_err("coaps URI scheme not supported in this version of libcoap\n");
 125:C:/Users/stapi/OneDrive/Desktop/GD32VW553/GD32VW55X_Wifi_BLE_SDK/GD32VW55x_RELEASE_V1.0.2/MSDK/lwip/libcoap-4.3.4/src\coap_uri.c ****       return -1;
 126:C:/Users/stapi/OneDrive/Desktop/GD32VW553/GD32VW55X_Wifi_BLE_SDK/GD32VW55x_RELEASE_V1.0.2/MSDK/lwip/libcoap-4.3.4/src\coap_uri.c ****     }
 127:C:/Users/stapi/OneDrive/Desktop/GD32VW553/GD32VW55X_Wifi_BLE_SDK/GD32VW55x_RELEASE_V1.0.2/MSDK/lwip/libcoap-4.3.4/src\coap_uri.c ****     break;
 128:C:/Users/stapi/OneDrive/Desktop/GD32VW553/GD32VW55X_Wifi_BLE_SDK/GD32VW55x_RELEASE_V1.0.2/MSDK/lwip/libcoap-4.3.4/src\coap_uri.c ****   case COAP_URI_SCHEME_COAP_TCP:
 129:C:/Users/stapi/OneDrive/Desktop/GD32VW553/GD32VW55X_Wifi_BLE_SDK/GD32VW55x_RELEASE_V1.0.2/MSDK/lwip/libcoap-4.3.4/src\coap_uri.c ****     if (!coap_tcp_is_supported()) {
 130:C:/Users/stapi/OneDrive/Desktop/GD32VW553/GD32VW55X_Wifi_BLE_SDK/GD32VW55x_RELEASE_V1.0.2/MSDK/lwip/libcoap-4.3.4/src\coap_uri.c ****       coap_log_err("coap+tcp URI scheme not supported in this version of libcoap\n");
 131:C:/Users/stapi/OneDrive/Desktop/GD32VW553/GD32VW55X_Wifi_BLE_SDK/GD32VW55x_RELEASE_V1.0.2/MSDK/lwip/libcoap-4.3.4/src\coap_uri.c ****       return -1;
 132:C:/Users/stapi/OneDrive/Desktop/GD32VW553/GD32VW55X_Wifi_BLE_SDK/GD32VW55x_RELEASE_V1.0.2/MSDK/lwip/libcoap-4.3.4/src\coap_uri.c ****     }
 133:C:/Users/stapi/OneDrive/Desktop/GD32VW553/GD32VW55X_Wifi_BLE_SDK/GD32VW55x_RELEASE_V1.0.2/MSDK/lwip/libcoap-4.3.4/src\coap_uri.c ****     break;
 134:C:/Users/stapi/OneDrive/Desktop/GD32VW553/GD32VW55X_Wifi_BLE_SDK/GD32VW55x_RELEASE_V1.0.2/MSDK/lwip/libcoap-4.3.4/src\coap_uri.c ****   case COAP_URI_SCHEME_COAPS_TCP:
 135:C:/Users/stapi/OneDrive/Desktop/GD32VW553/GD32VW55X_Wifi_BLE_SDK/GD32VW55x_RELEASE_V1.0.2/MSDK/lwip/libcoap-4.3.4/src\coap_uri.c ****     if (!coap_tcp_is_supported()) {
 136:C:/Users/stapi/OneDrive/Desktop/GD32VW553/GD32VW55X_Wifi_BLE_SDK/GD32VW55x_RELEASE_V1.0.2/MSDK/lwip/libcoap-4.3.4/src\coap_uri.c ****       coap_log_err("coaps+tcp URI scheme not supported in this version of libcoap\n");
 137:C:/Users/stapi/OneDrive/Desktop/GD32VW553/GD32VW55X_Wifi_BLE_SDK/GD32VW55x_RELEASE_V1.0.2/MSDK/lwip/libcoap-4.3.4/src\coap_uri.c ****       return -1;
 138:C:/Users/stapi/OneDrive/Desktop/GD32VW553/GD32VW55X_Wifi_BLE_SDK/GD32VW55x_RELEASE_V1.0.2/MSDK/lwip/libcoap-4.3.4/src\coap_uri.c ****     }
 139:C:/Users/stapi/OneDrive/Desktop/GD32VW553/GD32VW55X_Wifi_BLE_SDK/GD32VW55x_RELEASE_V1.0.2/MSDK/lwip/libcoap-4.3.4/src\coap_uri.c ****     break;
 140:C:/Users/stapi/OneDrive/Desktop/GD32VW553/GD32VW55X_Wifi_BLE_SDK/GD32VW55x_RELEASE_V1.0.2/MSDK/lwip/libcoap-4.3.4/src\coap_uri.c ****   case COAP_URI_SCHEME_COAP_WS:
 141:C:/Users/stapi/OneDrive/Desktop/GD32VW553/GD32VW55X_Wifi_BLE_SDK/GD32VW55x_RELEASE_V1.0.2/MSDK/lwip/libcoap-4.3.4/src\coap_uri.c ****     if (!coap_ws_is_supported()) {
 142:C:/Users/stapi/OneDrive/Desktop/GD32VW553/GD32VW55X_Wifi_BLE_SDK/GD32VW55x_RELEASE_V1.0.2/MSDK/lwip/libcoap-4.3.4/src\coap_uri.c ****       coap_log_err("coap+ws URI scheme not supported in this version of libcoap\n");
 143:C:/Users/stapi/OneDrive/Desktop/GD32VW553/GD32VW55X_Wifi_BLE_SDK/GD32VW55x_RELEASE_V1.0.2/MSDK/lwip/libcoap-4.3.4/src\coap_uri.c ****       return -1;
 144:C:/Users/stapi/OneDrive/Desktop/GD32VW553/GD32VW55X_Wifi_BLE_SDK/GD32VW55x_RELEASE_V1.0.2/MSDK/lwip/libcoap-4.3.4/src\coap_uri.c ****     }
 145:C:/Users/stapi/OneDrive/Desktop/GD32VW553/GD32VW55X_Wifi_BLE_SDK/GD32VW55x_RELEASE_V1.0.2/MSDK/lwip/libcoap-4.3.4/src\coap_uri.c ****     break;
 146:C:/Users/stapi/OneDrive/Desktop/GD32VW553/GD32VW55X_Wifi_BLE_SDK/GD32VW55x_RELEASE_V1.0.2/MSDK/lwip/libcoap-4.3.4/src\coap_uri.c ****   case COAP_URI_SCHEME_COAPS_WS:
 147:C:/Users/stapi/OneDrive/Desktop/GD32VW553/GD32VW55X_Wifi_BLE_SDK/GD32VW55x_RELEASE_V1.0.2/MSDK/lwip/libcoap-4.3.4/src\coap_uri.c ****     if (!coap_wss_is_supported()) {
 148:C:/Users/stapi/OneDrive/Desktop/GD32VW553/GD32VW55X_Wifi_BLE_SDK/GD32VW55x_RELEASE_V1.0.2/MSDK/lwip/libcoap-4.3.4/src\coap_uri.c ****       coap_log_err("coaps+ws URI scheme not supported in this version of libcoap\n");
 149:C:/Users/stapi/OneDrive/Desktop/GD32VW553/GD32VW55X_Wifi_BLE_SDK/GD32VW55x_RELEASE_V1.0.2/MSDK/lwip/libcoap-4.3.4/src\coap_uri.c ****       return -1;
 150:C:/Users/stapi/OneDrive/Desktop/GD32VW553/GD32VW55X_Wifi_BLE_SDK/GD32VW55x_RELEASE_V1.0.2/MSDK/lwip/libcoap-4.3.4/src\coap_uri.c ****     }
 151:C:/Users/stapi/OneDrive/Desktop/GD32VW553/GD32VW55X_Wifi_BLE_SDK/GD32VW55x_RELEASE_V1.0.2/MSDK/lwip/libcoap-4.3.4/src\coap_uri.c ****     break;
 152:C:/Users/stapi/OneDrive/Desktop/GD32VW553/GD32VW55X_Wifi_BLE_SDK/GD32VW55x_RELEASE_V1.0.2/MSDK/lwip/libcoap-4.3.4/src\coap_uri.c ****   case COAP_URI_SCHEME_HTTP:
 153:C:/Users/stapi/OneDrive/Desktop/GD32VW553/GD32VW55X_Wifi_BLE_SDK/GD32VW55x_RELEASE_V1.0.2/MSDK/lwip/libcoap-4.3.4/src\coap_uri.c ****   case COAP_URI_SCHEME_HTTPS:
 154:C:/Users/stapi/OneDrive/Desktop/GD32VW553/GD32VW55X_Wifi_BLE_SDK/GD32VW55x_RELEASE_V1.0.2/MSDK/lwip/libcoap-4.3.4/src\coap_uri.c ****   case COAP_URI_SCHEME_LAST:
 155:C:/Users/stapi/OneDrive/Desktop/GD32VW553/GD32VW55X_Wifi_BLE_SDK/GD32VW55x_RELEASE_V1.0.2/MSDK/lwip/libcoap-4.3.4/src\coap_uri.c ****   default:
 156:C:/Users/stapi/OneDrive/Desktop/GD32VW553/GD32VW55X_Wifi_BLE_SDK/GD32VW55x_RELEASE_V1.0.2/MSDK/lwip/libcoap-4.3.4/src\coap_uri.c ****     coap_log_warn("Unsupported URI type %d\n", uri->scheme);
 157:C:/Users/stapi/OneDrive/Desktop/GD32VW553/GD32VW55X_Wifi_BLE_SDK/GD32VW55x_RELEASE_V1.0.2/MSDK/lwip/libcoap-4.3.4/src\coap_uri.c ****     return -1;
 158:C:/Users/stapi/OneDrive/Desktop/GD32VW553/GD32VW55X_Wifi_BLE_SDK/GD32VW55x_RELEASE_V1.0.2/MSDK/lwip/libcoap-4.3.4/src\coap_uri.c ****   }
 159:C:/Users/stapi/OneDrive/Desktop/GD32VW553/GD32VW55X_Wifi_BLE_SDK/GD32VW55x_RELEASE_V1.0.2/MSDK/lwip/libcoap-4.3.4/src\coap_uri.c ****   /* skip :// */
 160:C:/Users/stapi/OneDrive/Desktop/GD32VW553/GD32VW55X_Wifi_BLE_SDK/GD32VW55x_RELEASE_V1.0.2/MSDK/lwip/libcoap-4.3.4/src\coap_uri.c ****   p += 3;
 161:C:/Users/stapi/OneDrive/Desktop/GD32VW553/GD32VW55X_Wifi_BLE_SDK/GD32VW55x_RELEASE_V1.0.2/MSDK/lwip/libcoap-4.3.4/src\coap_uri.c ****   len -= 3;
 162:C:/Users/stapi/OneDrive/Desktop/GD32VW553/GD32VW55X_Wifi_BLE_SDK/GD32VW55x_RELEASE_V1.0.2/MSDK/lwip/libcoap-4.3.4/src\coap_uri.c **** 
 163:C:/Users/stapi/OneDrive/Desktop/GD32VW553/GD32VW55X_Wifi_BLE_SDK/GD32VW55x_RELEASE_V1.0.2/MSDK/lwip/libcoap-4.3.4/src\coap_uri.c ****   /* p points to beginning of Uri-Host */
 164:C:/Users/stapi/OneDrive/Desktop/GD32VW553/GD32VW55X_Wifi_BLE_SDK/GD32VW55x_RELEASE_V1.0.2/MSDK/lwip/libcoap-4.3.4/src\coap_uri.c ****   q = p;
 165:C:/Users/stapi/OneDrive/Desktop/GD32VW553/GD32VW55X_Wifi_BLE_SDK/GD32VW55x_RELEASE_V1.0.2/MSDK/lwip/libcoap-4.3.4/src\coap_uri.c ****   if (len && *p == '[') {
 166:C:/Users/stapi/OneDrive/Desktop/GD32VW553/GD32VW55X_Wifi_BLE_SDK/GD32VW55x_RELEASE_V1.0.2/MSDK/lwip/libcoap-4.3.4/src\coap_uri.c ****     /* IPv6 address reference */
 167:C:/Users/stapi/OneDrive/Desktop/GD32VW553/GD32VW55X_Wifi_BLE_SDK/GD32VW55x_RELEASE_V1.0.2/MSDK/lwip/libcoap-4.3.4/src\coap_uri.c ****     ++p;
 168:C:/Users/stapi/OneDrive/Desktop/GD32VW553/GD32VW55X_Wifi_BLE_SDK/GD32VW55x_RELEASE_V1.0.2/MSDK/lwip/libcoap-4.3.4/src\coap_uri.c **** 
 169:C:/Users/stapi/OneDrive/Desktop/GD32VW553/GD32VW55X_Wifi_BLE_SDK/GD32VW55x_RELEASE_V1.0.2/MSDK/lwip/libcoap-4.3.4/src\coap_uri.c ****     while (len && *q != ']') {
 170:C:/Users/stapi/OneDrive/Desktop/GD32VW553/GD32VW55X_Wifi_BLE_SDK/GD32VW55x_RELEASE_V1.0.2/MSDK/lwip/libcoap-4.3.4/src\coap_uri.c ****       ++q;
 171:C:/Users/stapi/OneDrive/Desktop/GD32VW553/GD32VW55X_Wifi_BLE_SDK/GD32VW55x_RELEASE_V1.0.2/MSDK/lwip/libcoap-4.3.4/src\coap_uri.c ****       --len;
 172:C:/Users/stapi/OneDrive/Desktop/GD32VW553/GD32VW55X_Wifi_BLE_SDK/GD32VW55x_RELEASE_V1.0.2/MSDK/lwip/libcoap-4.3.4/src\coap_uri.c ****     }
 173:C:/Users/stapi/OneDrive/Desktop/GD32VW553/GD32VW55X_Wifi_BLE_SDK/GD32VW55x_RELEASE_V1.0.2/MSDK/lwip/libcoap-4.3.4/src\coap_uri.c **** 
 174:C:/Users/stapi/OneDrive/Desktop/GD32VW553/GD32VW55X_Wifi_BLE_SDK/GD32VW55x_RELEASE_V1.0.2/MSDK/lwip/libcoap-4.3.4/src\coap_uri.c ****     if (!len || *q != ']' || p == q) {
 175:C:/Users/stapi/OneDrive/Desktop/GD32VW553/GD32VW55X_Wifi_BLE_SDK/GD32VW55x_RELEASE_V1.0.2/MSDK/lwip/libcoap-4.3.4/src\coap_uri.c ****       res = -3;
 176:C:/Users/stapi/OneDrive/Desktop/GD32VW553/GD32VW55X_Wifi_BLE_SDK/GD32VW55x_RELEASE_V1.0.2/MSDK/lwip/libcoap-4.3.4/src\coap_uri.c ****       goto error;
 177:C:/Users/stapi/OneDrive/Desktop/GD32VW553/GD32VW55X_Wifi_BLE_SDK/GD32VW55x_RELEASE_V1.0.2/MSDK/lwip/libcoap-4.3.4/src\coap_uri.c ****     }
 178:C:/Users/stapi/OneDrive/Desktop/GD32VW553/GD32VW55X_Wifi_BLE_SDK/GD32VW55x_RELEASE_V1.0.2/MSDK/lwip/libcoap-4.3.4/src\coap_uri.c **** 
 179:C:/Users/stapi/OneDrive/Desktop/GD32VW553/GD32VW55X_Wifi_BLE_SDK/GD32VW55x_RELEASE_V1.0.2/MSDK/lwip/libcoap-4.3.4/src\coap_uri.c ****     COAP_SET_STR(&uri->host, q - p, p);
 180:C:/Users/stapi/OneDrive/Desktop/GD32VW553/GD32VW55X_Wifi_BLE_SDK/GD32VW55x_RELEASE_V1.0.2/MSDK/lwip/libcoap-4.3.4/src\coap_uri.c ****     ++q;
 181:C:/Users/stapi/OneDrive/Desktop/GD32VW553/GD32VW55X_Wifi_BLE_SDK/GD32VW55x_RELEASE_V1.0.2/MSDK/lwip/libcoap-4.3.4/src\coap_uri.c ****     --len;
 182:C:/Users/stapi/OneDrive/Desktop/GD32VW553/GD32VW55X_Wifi_BLE_SDK/GD32VW55x_RELEASE_V1.0.2/MSDK/lwip/libcoap-4.3.4/src\coap_uri.c ****   } else {
 183:C:/Users/stapi/OneDrive/Desktop/GD32VW553/GD32VW55X_Wifi_BLE_SDK/GD32VW55x_RELEASE_V1.0.2/MSDK/lwip/libcoap-4.3.4/src\coap_uri.c ****     /* IPv4 address, FQDN or Unix domain socket */
 184:C:/Users/stapi/OneDrive/Desktop/GD32VW553/GD32VW55X_Wifi_BLE_SDK/GD32VW55x_RELEASE_V1.0.2/MSDK/lwip/libcoap-4.3.4/src\coap_uri.c ****     if (len >= 3 && p[0] == '%' && p[1] == '2' &&
 185:C:/Users/stapi/OneDrive/Desktop/GD32VW553/GD32VW55X_Wifi_BLE_SDK/GD32VW55x_RELEASE_V1.0.2/MSDK/lwip/libcoap-4.3.4/src\coap_uri.c ****         (p[2] == 'F' || p[2] == 'f')) {
 186:C:/Users/stapi/OneDrive/Desktop/GD32VW553/GD32VW55X_Wifi_BLE_SDK/GD32VW55x_RELEASE_V1.0.2/MSDK/lwip/libcoap-4.3.4/src\coap_uri.c ****       /* Unix domain definition */
 187:C:/Users/stapi/OneDrive/Desktop/GD32VW553/GD32VW55X_Wifi_BLE_SDK/GD32VW55x_RELEASE_V1.0.2/MSDK/lwip/libcoap-4.3.4/src\coap_uri.c ****       uri->port = 0;
 188:C:/Users/stapi/OneDrive/Desktop/GD32VW553/GD32VW55X_Wifi_BLE_SDK/GD32VW55x_RELEASE_V1.0.2/MSDK/lwip/libcoap-4.3.4/src\coap_uri.c ****       is_unix_domain = 1;
 189:C:/Users/stapi/OneDrive/Desktop/GD32VW553/GD32VW55X_Wifi_BLE_SDK/GD32VW55x_RELEASE_V1.0.2/MSDK/lwip/libcoap-4.3.4/src\coap_uri.c ****     }
 190:C:/Users/stapi/OneDrive/Desktop/GD32VW553/GD32VW55X_Wifi_BLE_SDK/GD32VW55x_RELEASE_V1.0.2/MSDK/lwip/libcoap-4.3.4/src\coap_uri.c ****     while (len && *q != ':' && *q != '/' && *q != '?') {
 191:C:/Users/stapi/OneDrive/Desktop/GD32VW553/GD32VW55X_Wifi_BLE_SDK/GD32VW55x_RELEASE_V1.0.2/MSDK/lwip/libcoap-4.3.4/src\coap_uri.c ****       ++q;
 192:C:/Users/stapi/OneDrive/Desktop/GD32VW553/GD32VW55X_Wifi_BLE_SDK/GD32VW55x_RELEASE_V1.0.2/MSDK/lwip/libcoap-4.3.4/src\coap_uri.c ****       --len;
 193:C:/Users/stapi/OneDrive/Desktop/GD32VW553/GD32VW55X_Wifi_BLE_SDK/GD32VW55x_RELEASE_V1.0.2/MSDK/lwip/libcoap-4.3.4/src\coap_uri.c ****     }
 194:C:/Users/stapi/OneDrive/Desktop/GD32VW553/GD32VW55X_Wifi_BLE_SDK/GD32VW55x_RELEASE_V1.0.2/MSDK/lwip/libcoap-4.3.4/src\coap_uri.c **** 
 195:C:/Users/stapi/OneDrive/Desktop/GD32VW553/GD32VW55X_Wifi_BLE_SDK/GD32VW55x_RELEASE_V1.0.2/MSDK/lwip/libcoap-4.3.4/src\coap_uri.c ****     if (p == q) {
 196:C:/Users/stapi/OneDrive/Desktop/GD32VW553/GD32VW55X_Wifi_BLE_SDK/GD32VW55x_RELEASE_V1.0.2/MSDK/lwip/libcoap-4.3.4/src\coap_uri.c ****       res = -3;
 197:C:/Users/stapi/OneDrive/Desktop/GD32VW553/GD32VW55X_Wifi_BLE_SDK/GD32VW55x_RELEASE_V1.0.2/MSDK/lwip/libcoap-4.3.4/src\coap_uri.c ****       goto error;
 198:C:/Users/stapi/OneDrive/Desktop/GD32VW553/GD32VW55X_Wifi_BLE_SDK/GD32VW55x_RELEASE_V1.0.2/MSDK/lwip/libcoap-4.3.4/src\coap_uri.c ****     }
 199:C:/Users/stapi/OneDrive/Desktop/GD32VW553/GD32VW55X_Wifi_BLE_SDK/GD32VW55x_RELEASE_V1.0.2/MSDK/lwip/libcoap-4.3.4/src\coap_uri.c **** 
 200:C:/Users/stapi/OneDrive/Desktop/GD32VW553/GD32VW55X_Wifi_BLE_SDK/GD32VW55x_RELEASE_V1.0.2/MSDK/lwip/libcoap-4.3.4/src\coap_uri.c ****     COAP_SET_STR(&uri->host, q - p, p);
 201:C:/Users/stapi/OneDrive/Desktop/GD32VW553/GD32VW55X_Wifi_BLE_SDK/GD32VW55x_RELEASE_V1.0.2/MSDK/lwip/libcoap-4.3.4/src\coap_uri.c ****   }
 202:C:/Users/stapi/OneDrive/Desktop/GD32VW553/GD32VW55X_Wifi_BLE_SDK/GD32VW55x_RELEASE_V1.0.2/MSDK/lwip/libcoap-4.3.4/src\coap_uri.c **** 
 203:C:/Users/stapi/OneDrive/Desktop/GD32VW553/GD32VW55X_Wifi_BLE_SDK/GD32VW55x_RELEASE_V1.0.2/MSDK/lwip/libcoap-4.3.4/src\coap_uri.c ****   /* check for Uri-Port (invalid for Unix) */
 204:C:/Users/stapi/OneDrive/Desktop/GD32VW553/GD32VW55X_Wifi_BLE_SDK/GD32VW55x_RELEASE_V1.0.2/MSDK/lwip/libcoap-4.3.4/src\coap_uri.c ****   if (len && *q == ':') {
 205:C:/Users/stapi/OneDrive/Desktop/GD32VW553/GD32VW55X_Wifi_BLE_SDK/GD32VW55x_RELEASE_V1.0.2/MSDK/lwip/libcoap-4.3.4/src\coap_uri.c ****     if (is_unix_domain) {
 206:C:/Users/stapi/OneDrive/Desktop/GD32VW553/GD32VW55X_Wifi_BLE_SDK/GD32VW55x_RELEASE_V1.0.2/MSDK/lwip/libcoap-4.3.4/src\coap_uri.c ****       res = -5;
 207:C:/Users/stapi/OneDrive/Desktop/GD32VW553/GD32VW55X_Wifi_BLE_SDK/GD32VW55x_RELEASE_V1.0.2/MSDK/lwip/libcoap-4.3.4/src\coap_uri.c ****       goto error;
 208:C:/Users/stapi/OneDrive/Desktop/GD32VW553/GD32VW55X_Wifi_BLE_SDK/GD32VW55x_RELEASE_V1.0.2/MSDK/lwip/libcoap-4.3.4/src\coap_uri.c ****     }
 209:C:/Users/stapi/OneDrive/Desktop/GD32VW553/GD32VW55X_Wifi_BLE_SDK/GD32VW55x_RELEASE_V1.0.2/MSDK/lwip/libcoap-4.3.4/src\coap_uri.c ****     p = ++q;
 210:C:/Users/stapi/OneDrive/Desktop/GD32VW553/GD32VW55X_Wifi_BLE_SDK/GD32VW55x_RELEASE_V1.0.2/MSDK/lwip/libcoap-4.3.4/src\coap_uri.c ****     --len;
 211:C:/Users/stapi/OneDrive/Desktop/GD32VW553/GD32VW55X_Wifi_BLE_SDK/GD32VW55x_RELEASE_V1.0.2/MSDK/lwip/libcoap-4.3.4/src\coap_uri.c **** 
 212:C:/Users/stapi/OneDrive/Desktop/GD32VW553/GD32VW55X_Wifi_BLE_SDK/GD32VW55x_RELEASE_V1.0.2/MSDK/lwip/libcoap-4.3.4/src\coap_uri.c ****     while (len && isdigit(*q)) {
 213:C:/Users/stapi/OneDrive/Desktop/GD32VW553/GD32VW55X_Wifi_BLE_SDK/GD32VW55x_RELEASE_V1.0.2/MSDK/lwip/libcoap-4.3.4/src\coap_uri.c ****       ++q;
 214:C:/Users/stapi/OneDrive/Desktop/GD32VW553/GD32VW55X_Wifi_BLE_SDK/GD32VW55x_RELEASE_V1.0.2/MSDK/lwip/libcoap-4.3.4/src\coap_uri.c ****       --len;
 215:C:/Users/stapi/OneDrive/Desktop/GD32VW553/GD32VW55X_Wifi_BLE_SDK/GD32VW55x_RELEASE_V1.0.2/MSDK/lwip/libcoap-4.3.4/src\coap_uri.c ****     }
 216:C:/Users/stapi/OneDrive/Desktop/GD32VW553/GD32VW55X_Wifi_BLE_SDK/GD32VW55x_RELEASE_V1.0.2/MSDK/lwip/libcoap-4.3.4/src\coap_uri.c **** 
 217:C:/Users/stapi/OneDrive/Desktop/GD32VW553/GD32VW55X_Wifi_BLE_SDK/GD32VW55x_RELEASE_V1.0.2/MSDK/lwip/libcoap-4.3.4/src\coap_uri.c ****     if (p < q) {                /* explicit port number given */
 218:C:/Users/stapi/OneDrive/Desktop/GD32VW553/GD32VW55X_Wifi_BLE_SDK/GD32VW55x_RELEASE_V1.0.2/MSDK/lwip/libcoap-4.3.4/src\coap_uri.c ****       int uri_port = 0;
 219:C:/Users/stapi/OneDrive/Desktop/GD32VW553/GD32VW55X_Wifi_BLE_SDK/GD32VW55x_RELEASE_V1.0.2/MSDK/lwip/libcoap-4.3.4/src\coap_uri.c **** 
 220:C:/Users/stapi/OneDrive/Desktop/GD32VW553/GD32VW55X_Wifi_BLE_SDK/GD32VW55x_RELEASE_V1.0.2/MSDK/lwip/libcoap-4.3.4/src\coap_uri.c ****       while ((p < q) && (uri_port <= UINT16_MAX))
 221:C:/Users/stapi/OneDrive/Desktop/GD32VW553/GD32VW55X_Wifi_BLE_SDK/GD32VW55x_RELEASE_V1.0.2/MSDK/lwip/libcoap-4.3.4/src\coap_uri.c ****         uri_port = uri_port * 10 + (*p++ - '0');
 222:C:/Users/stapi/OneDrive/Desktop/GD32VW553/GD32VW55X_Wifi_BLE_SDK/GD32VW55x_RELEASE_V1.0.2/MSDK/lwip/libcoap-4.3.4/src\coap_uri.c **** 
 223:C:/Users/stapi/OneDrive/Desktop/GD32VW553/GD32VW55X_Wifi_BLE_SDK/GD32VW55x_RELEASE_V1.0.2/MSDK/lwip/libcoap-4.3.4/src\coap_uri.c ****       /* check if port number is in allowed range */
 224:C:/Users/stapi/OneDrive/Desktop/GD32VW553/GD32VW55X_Wifi_BLE_SDK/GD32VW55x_RELEASE_V1.0.2/MSDK/lwip/libcoap-4.3.4/src\coap_uri.c ****       if (uri_port > UINT16_MAX) {
 225:C:/Users/stapi/OneDrive/Desktop/GD32VW553/GD32VW55X_Wifi_BLE_SDK/GD32VW55x_RELEASE_V1.0.2/MSDK/lwip/libcoap-4.3.4/src\coap_uri.c ****         res = -4;
 226:C:/Users/stapi/OneDrive/Desktop/GD32VW553/GD32VW55X_Wifi_BLE_SDK/GD32VW55x_RELEASE_V1.0.2/MSDK/lwip/libcoap-4.3.4/src\coap_uri.c ****         goto error;
 227:C:/Users/stapi/OneDrive/Desktop/GD32VW553/GD32VW55X_Wifi_BLE_SDK/GD32VW55x_RELEASE_V1.0.2/MSDK/lwip/libcoap-4.3.4/src\coap_uri.c ****       }
 228:C:/Users/stapi/OneDrive/Desktop/GD32VW553/GD32VW55X_Wifi_BLE_SDK/GD32VW55x_RELEASE_V1.0.2/MSDK/lwip/libcoap-4.3.4/src\coap_uri.c **** 
 229:C:/Users/stapi/OneDrive/Desktop/GD32VW553/GD32VW55X_Wifi_BLE_SDK/GD32VW55x_RELEASE_V1.0.2/MSDK/lwip/libcoap-4.3.4/src\coap_uri.c ****       uri->port = (uint16_t)uri_port;
 230:C:/Users/stapi/OneDrive/Desktop/GD32VW553/GD32VW55X_Wifi_BLE_SDK/GD32VW55x_RELEASE_V1.0.2/MSDK/lwip/libcoap-4.3.4/src\coap_uri.c ****     }
 231:C:/Users/stapi/OneDrive/Desktop/GD32VW553/GD32VW55X_Wifi_BLE_SDK/GD32VW55x_RELEASE_V1.0.2/MSDK/lwip/libcoap-4.3.4/src\coap_uri.c ****   }
 232:C:/Users/stapi/OneDrive/Desktop/GD32VW553/GD32VW55X_Wifi_BLE_SDK/GD32VW55x_RELEASE_V1.0.2/MSDK/lwip/libcoap-4.3.4/src\coap_uri.c **** 
 233:C:/Users/stapi/OneDrive/Desktop/GD32VW553/GD32VW55X_Wifi_BLE_SDK/GD32VW55x_RELEASE_V1.0.2/MSDK/lwip/libcoap-4.3.4/src\coap_uri.c **** path:                 /* at this point, p must point to an absolute path */
 234:C:/Users/stapi/OneDrive/Desktop/GD32VW553/GD32VW55X_Wifi_BLE_SDK/GD32VW55x_RELEASE_V1.0.2/MSDK/lwip/libcoap-4.3.4/src\coap_uri.c **** 
 235:C:/Users/stapi/OneDrive/Desktop/GD32VW553/GD32VW55X_Wifi_BLE_SDK/GD32VW55x_RELEASE_V1.0.2/MSDK/lwip/libcoap-4.3.4/src\coap_uri.c ****   if (!len)
 236:C:/Users/stapi/OneDrive/Desktop/GD32VW553/GD32VW55X_Wifi_BLE_SDK/GD32VW55x_RELEASE_V1.0.2/MSDK/lwip/libcoap-4.3.4/src\coap_uri.c ****     goto end;
 237:C:/Users/stapi/OneDrive/Desktop/GD32VW553/GD32VW55X_Wifi_BLE_SDK/GD32VW55x_RELEASE_V1.0.2/MSDK/lwip/libcoap-4.3.4/src\coap_uri.c **** 
 238:C:/Users/stapi/OneDrive/Desktop/GD32VW553/GD32VW55X_Wifi_BLE_SDK/GD32VW55x_RELEASE_V1.0.2/MSDK/lwip/libcoap-4.3.4/src\coap_uri.c ****   if (*q == '/') {
 239:C:/Users/stapi/OneDrive/Desktop/GD32VW553/GD32VW55X_Wifi_BLE_SDK/GD32VW55x_RELEASE_V1.0.2/MSDK/lwip/libcoap-4.3.4/src\coap_uri.c ****     p = ++q;
 240:C:/Users/stapi/OneDrive/Desktop/GD32VW553/GD32VW55X_Wifi_BLE_SDK/GD32VW55x_RELEASE_V1.0.2/MSDK/lwip/libcoap-4.3.4/src\coap_uri.c ****     --len;
 241:C:/Users/stapi/OneDrive/Desktop/GD32VW553/GD32VW55X_Wifi_BLE_SDK/GD32VW55x_RELEASE_V1.0.2/MSDK/lwip/libcoap-4.3.4/src\coap_uri.c **** 
 242:C:/Users/stapi/OneDrive/Desktop/GD32VW553/GD32VW55X_Wifi_BLE_SDK/GD32VW55x_RELEASE_V1.0.2/MSDK/lwip/libcoap-4.3.4/src\coap_uri.c ****     while (len && *q != '?') {
 243:C:/Users/stapi/OneDrive/Desktop/GD32VW553/GD32VW55X_Wifi_BLE_SDK/GD32VW55x_RELEASE_V1.0.2/MSDK/lwip/libcoap-4.3.4/src\coap_uri.c ****       ++q;
 244:C:/Users/stapi/OneDrive/Desktop/GD32VW553/GD32VW55X_Wifi_BLE_SDK/GD32VW55x_RELEASE_V1.0.2/MSDK/lwip/libcoap-4.3.4/src\coap_uri.c ****       --len;
 245:C:/Users/stapi/OneDrive/Desktop/GD32VW553/GD32VW55X_Wifi_BLE_SDK/GD32VW55x_RELEASE_V1.0.2/MSDK/lwip/libcoap-4.3.4/src\coap_uri.c ****     }
 246:C:/Users/stapi/OneDrive/Desktop/GD32VW553/GD32VW55X_Wifi_BLE_SDK/GD32VW55x_RELEASE_V1.0.2/MSDK/lwip/libcoap-4.3.4/src\coap_uri.c **** 
 247:C:/Users/stapi/OneDrive/Desktop/GD32VW553/GD32VW55X_Wifi_BLE_SDK/GD32VW55x_RELEASE_V1.0.2/MSDK/lwip/libcoap-4.3.4/src\coap_uri.c ****     if (p < q) {
 248:C:/Users/stapi/OneDrive/Desktop/GD32VW553/GD32VW55X_Wifi_BLE_SDK/GD32VW55x_RELEASE_V1.0.2/MSDK/lwip/libcoap-4.3.4/src\coap_uri.c ****       COAP_SET_STR(&uri->path, q - p, p);
 249:C:/Users/stapi/OneDrive/Desktop/GD32VW553/GD32VW55X_Wifi_BLE_SDK/GD32VW55x_RELEASE_V1.0.2/MSDK/lwip/libcoap-4.3.4/src\coap_uri.c ****       p = q;
 250:C:/Users/stapi/OneDrive/Desktop/GD32VW553/GD32VW55X_Wifi_BLE_SDK/GD32VW55x_RELEASE_V1.0.2/MSDK/lwip/libcoap-4.3.4/src\coap_uri.c ****     }
 251:C:/Users/stapi/OneDrive/Desktop/GD32VW553/GD32VW55X_Wifi_BLE_SDK/GD32VW55x_RELEASE_V1.0.2/MSDK/lwip/libcoap-4.3.4/src\coap_uri.c ****   }
 252:C:/Users/stapi/OneDrive/Desktop/GD32VW553/GD32VW55X_Wifi_BLE_SDK/GD32VW55x_RELEASE_V1.0.2/MSDK/lwip/libcoap-4.3.4/src\coap_uri.c **** 
 253:C:/Users/stapi/OneDrive/Desktop/GD32VW553/GD32VW55X_Wifi_BLE_SDK/GD32VW55x_RELEASE_V1.0.2/MSDK/lwip/libcoap-4.3.4/src\coap_uri.c ****   /* Uri_Query */
 254:C:/Users/stapi/OneDrive/Desktop/GD32VW553/GD32VW55X_Wifi_BLE_SDK/GD32VW55x_RELEASE_V1.0.2/MSDK/lwip/libcoap-4.3.4/src\coap_uri.c ****   if (len && *p == '?') {
 255:C:/Users/stapi/OneDrive/Desktop/GD32VW553/GD32VW55X_Wifi_BLE_SDK/GD32VW55x_RELEASE_V1.0.2/MSDK/lwip/libcoap-4.3.4/src\coap_uri.c ****     ++p;
 256:C:/Users/stapi/OneDrive/Desktop/GD32VW553/GD32VW55X_Wifi_BLE_SDK/GD32VW55x_RELEASE_V1.0.2/MSDK/lwip/libcoap-4.3.4/src\coap_uri.c ****     --len;
 257:C:/Users/stapi/OneDrive/Desktop/GD32VW553/GD32VW55X_Wifi_BLE_SDK/GD32VW55x_RELEASE_V1.0.2/MSDK/lwip/libcoap-4.3.4/src\coap_uri.c ****     COAP_SET_STR(&uri->query, len, p);
 258:C:/Users/stapi/OneDrive/Desktop/GD32VW553/GD32VW55X_Wifi_BLE_SDK/GD32VW55x_RELEASE_V1.0.2/MSDK/lwip/libcoap-4.3.4/src\coap_uri.c ****     len = 0;
 259:C:/Users/stapi/OneDrive/Desktop/GD32VW553/GD32VW55X_Wifi_BLE_SDK/GD32VW55x_RELEASE_V1.0.2/MSDK/lwip/libcoap-4.3.4/src\coap_uri.c ****   }
 260:C:/Users/stapi/OneDrive/Desktop/GD32VW553/GD32VW55X_Wifi_BLE_SDK/GD32VW55x_RELEASE_V1.0.2/MSDK/lwip/libcoap-4.3.4/src\coap_uri.c **** 
 261:C:/Users/stapi/OneDrive/Desktop/GD32VW553/GD32VW55X_Wifi_BLE_SDK/GD32VW55x_RELEASE_V1.0.2/MSDK/lwip/libcoap-4.3.4/src\coap_uri.c **** end:
 262:C:/Users/stapi/OneDrive/Desktop/GD32VW553/GD32VW55X_Wifi_BLE_SDK/GD32VW55x_RELEASE_V1.0.2/MSDK/lwip/libcoap-4.3.4/src\coap_uri.c ****   return len ? -1 : 0;
 263:C:/Users/stapi/OneDrive/Desktop/GD32VW553/GD32VW55X_Wifi_BLE_SDK/GD32VW55x_RELEASE_V1.0.2/MSDK/lwip/libcoap-4.3.4/src\coap_uri.c **** 
 264:C:/Users/stapi/OneDrive/Desktop/GD32VW553/GD32VW55X_Wifi_BLE_SDK/GD32VW55x_RELEASE_V1.0.2/MSDK/lwip/libcoap-4.3.4/src\coap_uri.c **** error:
 265:C:/Users/stapi/OneDrive/Desktop/GD32VW553/GD32VW55X_Wifi_BLE_SDK/GD32VW55x_RELEASE_V1.0.2/MSDK/lwip/libcoap-4.3.4/src\coap_uri.c ****   return res;
 266:C:/Users/stapi/OneDrive/Desktop/GD32VW553/GD32VW55X_Wifi_BLE_SDK/GD32VW55x_RELEASE_V1.0.2/MSDK/lwip/libcoap-4.3.4/src\coap_uri.c **** }
  53              		.loc 1 266 1
  54 0004 8280     		ret
  55              	.LVL2:
  56              	.L2:
  66:C:/Users/stapi/OneDrive/Desktop/GD32VW553/GD32VW55X_Wifi_BLE_SDK/GD32VW55x_RELEASE_V1.0.2/MSDK/lwip/libcoap-4.3.4/src\coap_uri.c ****   const uint8_t *p, *q;
  57              		.loc 1 66 50 discriminator 1
  58 0006 17030000 		call	t0,__riscv_save_11
  58      E7020300 
  59              		.cfi_offset 26, -48
  60              		.cfi_offset 25, -44
  61              		.cfi_offset 24, -40
  62              		.cfi_offset 23, -36
  63              		.cfi_offset 22, -32
  64              		.cfi_offset 21, -28
  65              		.cfi_offset 20, -24
  66              		.cfi_offset 19, -20
  67              		.cfi_offset 18, -16
  68              		.cfi_offset 9, -12
  69              		.cfi_offset 8, -8
  70              		.cfi_offset 1, -4
  71              		.cfi_def_cfa_offset 48
  72 000e 4111     		addi	sp,sp,-16
  73              		.cfi_def_cfa_offset 64
  74 0010 3289     		mv	s2,a2
  72:C:/Users/stapi/OneDrive/Desktop/GD32VW553/GD32VW55X_Wifi_BLE_SDK/GD32VW55x_RELEASE_V1.0.2/MSDK/lwip/libcoap-4.3.4/src\coap_uri.c ****     return -1;
  75              		.loc 1 72 16 discriminator 1
  76 0012 79C2     		beq	a2,zero,.L84
  77 0014 AE84     		mv	s1,a1
  72:C:/Users/stapi/OneDrive/Desktop/GD32VW553/GD32VW55X_Wifi_BLE_SDK/GD32VW55x_RELEASE_V1.0.2/MSDK/lwip/libcoap-4.3.4/src\coap_uri.c ****     return -1;
  78              		.loc 1 72 24 discriminator 2
  79 0016 E9C1     		beq	a1,zero,.L84
  80              	.LVL3:
  81 0018 2A84     		mv	s0,a0
  75:C:/Users/stapi/OneDrive/Desktop/GD32VW553/GD32VW55X_Wifi_BLE_SDK/GD32VW55x_RELEASE_V1.0.2/MSDK/lwip/libcoap-4.3.4/src\coap_uri.c ****   uri->port = COAP_DEFAULT_PORT;
  82              		.loc 1 75 3
  83 001a 13060002 		li	a2,32
  84              	.LVL4:
  85 001e 8145     		li	a1,0
  86 0020 4A85     		mv	a0,s2
  87              	.LVL5:
  88 0022 368C     		mv	s8,a3
  75:C:/Users/stapi/OneDrive/Desktop/GD32VW553/GD32VW55X_Wifi_BLE_SDK/GD32VW55x_RELEASE_V1.0.2/MSDK/lwip/libcoap-4.3.4/src\coap_uri.c ****   uri->port = COAP_DEFAULT_PORT;
  89              		.loc 1 75 3 is_stmt 1
  90 0024 97000000 		call	memset
  90      E7800000 
  91              	.LVL6:
  76:C:/Users/stapi/OneDrive/Desktop/GD32VW553/GD32VW55X_Wifi_BLE_SDK/GD32VW55x_RELEASE_V1.0.2/MSDK/lwip/libcoap-4.3.4/src\coap_uri.c **** 
  92              		.loc 1 76 3
  76:C:/Users/stapi/OneDrive/Desktop/GD32VW553/GD32VW55X_Wifi_BLE_SDK/GD32VW55x_RELEASE_V1.0.2/MSDK/lwip/libcoap-4.3.4/src\coap_uri.c **** 
  93              		.loc 1 76 13 is_stmt 0
  94 002c 8567     		li	a5,4096
  95 002e 93873763 		addi	a5,a5,1587
  96 0032 2314F900 		sh	a5,8(s2)
  79:C:/Users/stapi/OneDrive/Desktop/GD32VW553/GD32VW55X_Wifi_BLE_SDK/GD32VW55x_RELEASE_V1.0.2/MSDK/lwip/libcoap-4.3.4/src\coap_uri.c ****   if (*p == '/') {
  97              		.loc 1 79 3 is_stmt 1
  98              	.LVL7:
  80:C:/Users/stapi/OneDrive/Desktop/GD32VW553/GD32VW55X_Wifi_BLE_SDK/GD32VW55x_RELEASE_V1.0.2/MSDK/lwip/libcoap-4.3.4/src\coap_uri.c ****     /* no scheme, host or port */
  99              		.loc 1 80 3
  80:C:/Users/stapi/OneDrive/Desktop/GD32VW553/GD32VW55X_Wifi_BLE_SDK/GD32VW55x_RELEASE_V1.0.2/MSDK/lwip/libcoap-4.3.4/src\coap_uri.c ****     /* no scheme, host or port */
 100              		.loc 1 80 6 is_stmt 0
 101 0036 03470400 		lbu	a4,0(s0)
 102 003a 9307F002 		li	a5,47
 103 003e A289     		mv	s3,s0
 104 0040 6302F70A 		beq	a4,a5,.L75
  91:C:/Users/stapi/OneDrive/Desktop/GD32VW553/GD32VW55X_Wifi_BLE_SDK/GD32VW55x_RELEASE_V1.0.2/MSDK/lwip/libcoap-4.3.4/src\coap_uri.c ****     ++p;
 105              		.loc 1 91 9
 106 0044 8946     		li	a3,2
  91:C:/Users/stapi/OneDrive/Desktop/GD32VW553/GD32VW55X_Wifi_BLE_SDK/GD32VW55x_RELEASE_V1.0.2/MSDK/lwip/libcoap-4.3.4/src\coap_uri.c ****     ++p;
 107              		.loc 1 91 19
 108 0046 1306A003 		li	a2,58
 109              	.LVL8:
 110              	.L5:
  91:C:/Users/stapi/OneDrive/Desktop/GD32VW553/GD32VW55X_Wifi_BLE_SDK/GD32VW55x_RELEASE_V1.0.2/MSDK/lwip/libcoap-4.3.4/src\coap_uri.c ****     ++p;
 111              		.loc 1 91 9 is_stmt 1
 112 004a 63F39632 		bleu	s1,a3,.L52
  91:C:/Users/stapi/OneDrive/Desktop/GD32VW553/GD32VW55X_Wifi_BLE_SDK/GD32VW55x_RELEASE_V1.0.2/MSDK/lwip/libcoap-4.3.4/src\coap_uri.c ****     ++p;
 113              		.loc 1 91 19 is_stmt 0 discriminator 1
 114 004e 03C70900 		lbu	a4,0(s3)
 115 0052 6312C70C 		bne	a4,a2,.L7
  91:C:/Users/stapi/OneDrive/Desktop/GD32VW553/GD32VW55X_Wifi_BLE_SDK/GD32VW55x_RELEASE_V1.0.2/MSDK/lwip/libcoap-4.3.4/src\coap_uri.c ****     ++p;
 116              		.loc 1 91 36 discriminator 2
 117 0056 03C71900 		lbu	a4,1(s3)
 118 005a 631EF70A 		bne	a4,a5,.L7
  91:C:/Users/stapi/OneDrive/Desktop/GD32VW553/GD32VW55X_Wifi_BLE_SDK/GD32VW55x_RELEASE_V1.0.2/MSDK/lwip/libcoap-4.3.4/src\coap_uri.c ****     ++p;
 119              		.loc 1 91 22 discriminator 3
 120 005e 03C72900 		lbu	a4,2(s3)
 121 0062 631AF70A 		bne	a4,a5,.L7
 122 0066 B70A0000 		lui	s5,%hi(.LANCHOR0)
 123 006a 938B0A00 		addi	s7,s5,%lo(.LANCHOR0)
 100:C:/Users/stapi/OneDrive/Desktop/GD32VW553/GD32VW55X_Wifi_BLE_SDK/GD32VW55x_RELEASE_V1.0.2/MSDK/lwip/libcoap-4.3.4/src\coap_uri.c ****     if ((p - str_var) == (int)strlen(coap_uri_scheme[i].name) &&
 124              		.loc 1 100 10
 125 006e 014B     		li	s6,0
 126 0070 938A0A00 		addi	s5,s5,%lo(.LANCHOR0)
 101:C:/Users/stapi/OneDrive/Desktop/GD32VW553/GD32VW55X_Wifi_BLE_SDK/GD32VW55x_RELEASE_V1.0.2/MSDK/lwip/libcoap-4.3.4/src\coap_uri.c ****         memcmp(str_var, coap_uri_scheme[i].name, p - str_var) == 0) {
 127              		.loc 1 101 12
 128 0074 B38C8940 		sub	s9,s3,s0
 100:C:/Users/stapi/OneDrive/Desktop/GD32VW553/GD32VW55X_Wifi_BLE_SDK/GD32VW55x_RELEASE_V1.0.2/MSDK/lwip/libcoap-4.3.4/src\coap_uri.c ****     if ((p - str_var) == (int)strlen(coap_uri_scheme[i].name) &&
 129              		.loc 1 100 3
 130 0078 214D     		li	s10,8
 131              	.L18:
 132              	.LVL9:
 101:C:/Users/stapi/OneDrive/Desktop/GD32VW553/GD32VW55X_Wifi_BLE_SDK/GD32VW55x_RELEASE_V1.0.2/MSDK/lwip/libcoap-4.3.4/src\coap_uri.c ****         memcmp(str_var, coap_uri_scheme[i].name, p - str_var) == 0) {
 133              		.loc 1 101 5 is_stmt 1
 101:C:/Users/stapi/OneDrive/Desktop/GD32VW553/GD32VW55X_Wifi_BLE_SDK/GD32VW55x_RELEASE_V1.0.2/MSDK/lwip/libcoap-4.3.4/src\coap_uri.c ****         memcmp(str_var, coap_uri_scheme[i].name, p - str_var) == 0) {
 134              		.loc 1 101 31 is_stmt 0
 135 007a 83A50B00 		lw	a1,0(s7)
 136 007e 2E85     		mv	a0,a1
 137 0080 2EC6     		sw	a1,12(sp)
 138 0082 97000000 		call	strlen
 138      E7800000 
 139              	.LVL10:
 101:C:/Users/stapi/OneDrive/Desktop/GD32VW553/GD32VW55X_Wifi_BLE_SDK/GD32VW55x_RELEASE_V1.0.2/MSDK/lwip/libcoap-4.3.4/src\coap_uri.c ****         memcmp(str_var, coap_uri_scheme[i].name, p - str_var) == 0) {
 140              		.loc 1 101 8
 141 008a B245     		lw	a1,12(sp)
 142 008c 639EAC0A 		bne	s9,a0,.L8
 102:C:/Users/stapi/OneDrive/Desktop/GD32VW553/GD32VW55X_Wifi_BLE_SDK/GD32VW55x_RELEASE_V1.0.2/MSDK/lwip/libcoap-4.3.4/src\coap_uri.c ****       if (check_proxy != COAP_URI_CHECK_PROXY && coap_uri_scheme[i].proxy_only) {
 143              		.loc 1 102 9 discriminator 1
 144 0090 6686     		mv	a2,s9
 145 0092 2285     		mv	a0,s0
 146 0094 97000000 		call	memcmp
 146      E7800000 
 147              	.LVL11:
 148 009c 2A8A     		mv	s4,a0
 101:C:/Users/stapi/OneDrive/Desktop/GD32VW553/GD32VW55X_Wifi_BLE_SDK/GD32VW55x_RELEASE_V1.0.2/MSDK/lwip/libcoap-4.3.4/src\coap_uri.c ****         memcmp(str_var, coap_uri_scheme[i].name, p - str_var) == 0) {
 149              		.loc 1 101 63 discriminator 1
 150 009e 4DE5     		bne	a0,zero,.L8
 103:C:/Users/stapi/OneDrive/Desktop/GD32VW553/GD32VW55X_Wifi_BLE_SDK/GD32VW55x_RELEASE_V1.0.2/MSDK/lwip/libcoap-4.3.4/src\coap_uri.c ****         coap_log_err("%.*s URI scheme not enabled (not a proxy)\n",
 151              		.loc 1 103 7 is_stmt 1
 103:C:/Users/stapi/OneDrive/Desktop/GD32VW553/GD32VW55X_Wifi_BLE_SDK/GD32VW55x_RELEASE_V1.0.2/MSDK/lwip/libcoap-4.3.4/src\coap_uri.c ****         coap_log_err("%.*s URI scheme not enabled (not a proxy)\n",
 152              		.loc 1 103 10 is_stmt 0
 153 00a0 8547     		li	a5,1
 154 00a2 630DFC06 		beq	s8,a5,.L9
 103:C:/Users/stapi/OneDrive/Desktop/GD32VW553/GD32VW55X_Wifi_BLE_SDK/GD32VW55x_RELEASE_V1.0.2/MSDK/lwip/libcoap-4.3.4/src\coap_uri.c ****         coap_log_err("%.*s URI scheme not enabled (not a proxy)\n",
 155              		.loc 1 103 68 discriminator 1
 156 00a6 3147     		li	a4,12
 157 00a8 D687     		mv	a5,s5
 158 00aa FF17EBC4 		maddr32	a5, s6, a4
 103:C:/Users/stapi/OneDrive/Desktop/GD32VW553/GD32VW55X_Wifi_BLE_SDK/GD32VW55x_RELEASE_V1.0.2/MSDK/lwip/libcoap-4.3.4/src\coap_uri.c ****         coap_log_err("%.*s URI scheme not enabled (not a proxy)\n",
 159              		.loc 1 103 47 discriminator 1
 160 00ae 83D76700 		lhu	a5,6(a5)
 161 00b2 ADC7     		beq	a5,zero,.L9
 104:C:/Users/stapi/OneDrive/Desktop/GD32VW553/GD32VW55X_Wifi_BLE_SDK/GD32VW55x_RELEASE_V1.0.2/MSDK/lwip/libcoap-4.3.4/src\coap_uri.c ****                      (int)(p - str_var), str_var);
 162              		.loc 1 104 9 is_stmt 1
 104:C:/Users/stapi/OneDrive/Desktop/GD32VW553/GD32VW55X_Wifi_BLE_SDK/GD32VW55x_RELEASE_V1.0.2/MSDK/lwip/libcoap-4.3.4/src\coap_uri.c ****                      (int)(p - str_var), str_var);
 163              		.loc 1 104 9
 164 00b4 97000000 		call	coap_get_log_level
 164      E7800000 
 165              	.LVL12:
 166 00bc 8947     		li	a5,2
 167 00be 63DDA700 		ble	a0,a5,.L84
 104:C:/Users/stapi/OneDrive/Desktop/GD32VW553/GD32VW55X_Wifi_BLE_SDK/GD32VW55x_RELEASE_V1.0.2/MSDK/lwip/libcoap-4.3.4/src\coap_uri.c ****                      (int)(p - str_var), str_var);
 168              		.loc 1 104 9 discriminator 1
 169 00c2 B7050000 		lui	a1,%hi(.LC0)
 170 00c6 A286     		mv	a3,s0
 171 00c8 6686     		mv	a2,s9
 172 00ca 93850500 		addi	a1,a1,%lo(.LC0)
 173              	.L85:
 174 00ce 0D45     		li	a0,3
 175 00d0 97000000 		call	coap_log_impl
 175      E7800000 
 176              	.LVL13:
 177              	.L84:
 106:C:/Users/stapi/OneDrive/Desktop/GD32VW553/GD32VW55X_Wifi_BLE_SDK/GD32VW55x_RELEASE_V1.0.2/MSDK/lwip/libcoap-4.3.4/src\coap_uri.c ****       }
 178              		.loc 1 106 16 is_stmt 0 discriminator 1
 179 00d8 7D55     		li	a0,-1
 180              	.L1:
 181              		.loc 1 266 1
 182 00da 4101     		addi	sp,sp,16
 183              		.cfi_remember_state
 184              		.cfi_def_cfa_offset 0
 185 00dc 17030000 		tail	__riscv_restore_11
 185      67000300 
 186              		.cfi_restore 26
 187              		.cfi_restore 25
 188              		.cfi_restore 24
 189              		.cfi_restore 23
 190              		.cfi_restore 22
 191              		.cfi_restore 21
 192              		.cfi_restore 20
 193              		.cfi_restore 19
 194              		.cfi_restore 18
 195              		.cfi_restore 9
 196              		.cfi_restore 8
 197              		.cfi_restore 1
 198              		.cfi_def_cfa_offset -48
 199              	.LVL14:
 200              	.L75:
 201              		.cfi_restore_state
  82:C:/Users/stapi/OneDrive/Desktop/GD32VW553/GD32VW55X_Wifi_BLE_SDK/GD32VW55x_RELEASE_V1.0.2/MSDK/lwip/libcoap-4.3.4/src\coap_uri.c ****       /* Must have ongoing host if proxy definition */
 202              		.loc 1 82 5 is_stmt 1
  82:C:/Users/stapi/OneDrive/Desktop/GD32VW553/GD32VW55X_Wifi_BLE_SDK/GD32VW55x_RELEASE_V1.0.2/MSDK/lwip/libcoap-4.3.4/src\coap_uri.c ****       /* Must have ongoing host if proxy definition */
 203              		.loc 1 82 8 is_stmt 0
 204 00e4 8547     		li	a5,1
 205 00e6 E309FCFE 		beq	s8,a5,.L84
 206 00ea A287     		mv	a5,s0
 207              	.LVL15:
 208              	.L6:
 238:C:/Users/stapi/OneDrive/Desktop/GD32VW553/GD32VW55X_Wifi_BLE_SDK/GD32VW55x_RELEASE_V1.0.2/MSDK/lwip/libcoap-4.3.4/src\coap_uri.c ****     p = ++q;
 209              		.loc 1 238 3 is_stmt 1
 238:C:/Users/stapi/OneDrive/Desktop/GD32VW553/GD32VW55X_Wifi_BLE_SDK/GD32VW55x_RELEASE_V1.0.2/MSDK/lwip/libcoap-4.3.4/src\coap_uri.c ****     p = ++q;
 210              		.loc 1 238 6 is_stmt 0
 211 00ec 83C60700 		lbu	a3,0(a5)
 212 00f0 1307F002 		li	a4,47
 213 00f4 639AE628 		bne	a3,a4,.L42
 239:C:/Users/stapi/OneDrive/Desktop/GD32VW553/GD32VW55X_Wifi_BLE_SDK/GD32VW55x_RELEASE_V1.0.2/MSDK/lwip/libcoap-4.3.4/src\coap_uri.c ****     --len;
 214              		.loc 1 239 5 is_stmt 1
 239:C:/Users/stapi/OneDrive/Desktop/GD32VW553/GD32VW55X_Wifi_BLE_SDK/GD32VW55x_RELEASE_V1.0.2/MSDK/lwip/libcoap-4.3.4/src\coap_uri.c ****     --len;
 215              		.loc 1 239 7 is_stmt 0
 216 00f8 8507     		addi	a5,a5,1
 217              	.LVL16:
 240:C:/Users/stapi/OneDrive/Desktop/GD32VW553/GD32VW55X_Wifi_BLE_SDK/GD32VW55x_RELEASE_V1.0.2/MSDK/lwip/libcoap-4.3.4/src\coap_uri.c **** 
 218              		.loc 1 240 5 is_stmt 1
 219 00fa FD14     		addi	s1,s1,-1
 220              	.LVL17:
 242:C:/Users/stapi/OneDrive/Desktop/GD32VW553/GD32VW55X_Wifi_BLE_SDK/GD32VW55x_RELEASE_V1.0.2/MSDK/lwip/libcoap-4.3.4/src\coap_uri.c ****       ++q;
 221              		.loc 1 242 5
 239:C:/Users/stapi/OneDrive/Desktop/GD32VW553/GD32VW55X_Wifi_BLE_SDK/GD32VW55x_RELEASE_V1.0.2/MSDK/lwip/libcoap-4.3.4/src\coap_uri.c ****     --len;
 222              		.loc 1 239 7 is_stmt 0
 223 00fc 3E84     		mv	s0,a5
 242:C:/Users/stapi/OneDrive/Desktop/GD32VW553/GD32VW55X_Wifi_BLE_SDK/GD32VW55x_RELEASE_V1.0.2/MSDK/lwip/libcoap-4.3.4/src\coap_uri.c ****       ++q;
 224              		.loc 1 242 16
 225 00fe 1307F003 		li	a4,63
 226              	.LVL18:
 227              	.L43:
 242:C:/Users/stapi/OneDrive/Desktop/GD32VW553/GD32VW55X_Wifi_BLE_SDK/GD32VW55x_RELEASE_V1.0.2/MSDK/lwip/libcoap-4.3.4/src\coap_uri.c ****       ++q;
 228              		.loc 1 242 11 is_stmt 1
 229 0102 63890426 		beq	s1,zero,.L44
 242:C:/Users/stapi/OneDrive/Desktop/GD32VW553/GD32VW55X_Wifi_BLE_SDK/GD32VW55x_RELEASE_V1.0.2/MSDK/lwip/libcoap-4.3.4/src\coap_uri.c ****       ++q;
 230              		.loc 1 242 16 is_stmt 0 discriminator 1
 231 0106 83460400 		lbu	a3,0(s0)
 232 010a 6390E626 		bne	a3,a4,.L45
 247:C:/Users/stapi/OneDrive/Desktop/GD32VW553/GD32VW55X_Wifi_BLE_SDK/GD32VW55x_RELEASE_V1.0.2/MSDK/lwip/libcoap-4.3.4/src\coap_uri.c ****       COAP_SET_STR(&uri->path, q - p, p);
 233              		.loc 1 247 5 is_stmt 1
 247:C:/Users/stapi/OneDrive/Desktop/GD32VW553/GD32VW55X_Wifi_BLE_SDK/GD32VW55x_RELEASE_V1.0.2/MSDK/lwip/libcoap-4.3.4/src\coap_uri.c ****       COAP_SET_STR(&uri->path, q - p, p);
 234              		.loc 1 247 8 is_stmt 0
 235 010e 63E58726 		bgtu	s0,a5,.L49
 236              	.LVL19:
 237 0112 3E84     		mv	s0,a5
 238 0114 95AC     		j	.L42
 239              	.LVL20:
 240              	.L7:
  92:C:/Users/stapi/OneDrive/Desktop/GD32VW553/GD32VW55X_Wifi_BLE_SDK/GD32VW55x_RELEASE_V1.0.2/MSDK/lwip/libcoap-4.3.4/src\coap_uri.c ****     --len;
 241              		.loc 1 92 5 is_stmt 1
 242 0116 8509     		addi	s3,s3,1
 243              	.LVL21:
  93:C:/Users/stapi/OneDrive/Desktop/GD32VW553/GD32VW55X_Wifi_BLE_SDK/GD32VW55x_RELEASE_V1.0.2/MSDK/lwip/libcoap-4.3.4/src\coap_uri.c ****   }
 244              		.loc 1 93 5
 245 0118 FD14     		addi	s1,s1,-1
 246              	.LVL22:
 247 011a 05BF     		j	.L5
 248              	.LVL23:
 249              	.L9:
 108:C:/Users/stapi/OneDrive/Desktop/GD32VW553/GD32VW55X_Wifi_BLE_SDK/GD32VW55x_RELEASE_V1.0.2/MSDK/lwip/libcoap-4.3.4/src\coap_uri.c ****       uri->port = coap_uri_scheme[i].port;
 250              		.loc 1 108 7
 108:C:/Users/stapi/OneDrive/Desktop/GD32VW553/GD32VW55X_Wifi_BLE_SDK/GD32VW55x_RELEASE_V1.0.2/MSDK/lwip/libcoap-4.3.4/src\coap_uri.c ****       uri->port = coap_uri_scheme[i].port;
 251              		.loc 1 108 39 is_stmt 0
 252 011c B147     		li	a5,12
 253 011e FF1AFBC4 		maddr32	s5, s6, a5
 254 0122 83A78A00 		lw	a5,8(s5)
 109:C:/Users/stapi/OneDrive/Desktop/GD32VW553/GD32VW55X_Wifi_BLE_SDK/GD32VW55x_RELEASE_V1.0.2/MSDK/lwip/libcoap-4.3.4/src\coap_uri.c ****       break;
 255              		.loc 1 109 17
 256 0126 03D74A00 		lhu	a4,4(s5)
 108:C:/Users/stapi/OneDrive/Desktop/GD32VW553/GD32VW55X_Wifi_BLE_SDK/GD32VW55x_RELEASE_V1.0.2/MSDK/lwip/libcoap-4.3.4/src\coap_uri.c ****       uri->port = coap_uri_scheme[i].port;
 257              		.loc 1 108 19
 258 012a 232EF900 		sw	a5,28(s2)
 109:C:/Users/stapi/OneDrive/Desktop/GD32VW553/GD32VW55X_Wifi_BLE_SDK/GD32VW55x_RELEASE_V1.0.2/MSDK/lwip/libcoap-4.3.4/src\coap_uri.c ****       break;
 259              		.loc 1 109 7 is_stmt 1
 109:C:/Users/stapi/OneDrive/Desktop/GD32VW553/GD32VW55X_Wifi_BLE_SDK/GD32VW55x_RELEASE_V1.0.2/MSDK/lwip/libcoap-4.3.4/src\coap_uri.c ****       break;
 260              		.loc 1 109 17 is_stmt 0
 261 012e 2314E900 		sh	a4,8(s2)
 110:C:/Users/stapi/OneDrive/Desktop/GD32VW553/GD32VW55X_Wifi_BLE_SDK/GD32VW55x_RELEASE_V1.0.2/MSDK/lwip/libcoap-4.3.4/src\coap_uri.c ****     }
 262              		.loc 1 110 7 is_stmt 1
 113:C:/Users/stapi/OneDrive/Desktop/GD32VW553/GD32VW55X_Wifi_BLE_SDK/GD32VW55x_RELEASE_V1.0.2/MSDK/lwip/libcoap-4.3.4/src\coap_uri.c ****     /* scheme unknown */
 263              		.loc 1 113 3
 119:C:/Users/stapi/OneDrive/Desktop/GD32VW553/GD32VW55X_Wifi_BLE_SDK/GD32VW55x_RELEASE_V1.0.2/MSDK/lwip/libcoap-4.3.4/src\coap_uri.c ****   case COAP_URI_SCHEME_COAP:
 264              		.loc 1 119 3
 265 0132 1D47     		li	a4,7
 266 0134 6366F70E 		bgtu	a5,a4,.L10
 267 0138 37070000 		lui	a4,%hi(.L12)
 268 013c 13070700 		addi	a4,a4,%lo(.L12)
 269 0140 B3C7E720 		sh2add	a5,a5,a4
 270 0144 9C43     		lw	a5,0(a5)
 271 0146 8287     		jr	a5
 272              		.section	.rodata.coap_split_uri_sub,"a",@progbits
 273              		.align	2
 274              		.align	2
 275              	.L12:
 276 0000 00000000 		.word	.L17
 277 0004 00000000 		.word	.L16
 278 0008 00000000 		.word	.L15
 279 000c 00000000 		.word	.L14
 280 0010 00000000 		.word	.L10
 281 0014 00000000 		.word	.L10
 282 0018 00000000 		.word	.L13
 283 001c 00000000 		.word	.L11
 284              		.section	.text.coap_split_uri_sub
 285              	.L8:
 100:C:/Users/stapi/OneDrive/Desktop/GD32VW553/GD32VW55X_Wifi_BLE_SDK/GD32VW55x_RELEASE_V1.0.2/MSDK/lwip/libcoap-4.3.4/src\coap_uri.c ****     if ((p - str_var) == (int)strlen(coap_uri_scheme[i].name) &&
 286              		.loc 1 100 41 discriminator 2
 100:C:/Users/stapi/OneDrive/Desktop/GD32VW553/GD32VW55X_Wifi_BLE_SDK/GD32VW55x_RELEASE_V1.0.2/MSDK/lwip/libcoap-4.3.4/src\coap_uri.c ****     if ((p - str_var) == (int)strlen(coap_uri_scheme[i].name) &&
 287              		.loc 1 100 42 is_stmt 0 discriminator 2
 288 0148 050B     		addi	s6,s6,1
 289              	.LVL24:
 100:C:/Users/stapi/OneDrive/Desktop/GD32VW553/GD32VW55X_Wifi_BLE_SDK/GD32VW55x_RELEASE_V1.0.2/MSDK/lwip/libcoap-4.3.4/src\coap_uri.c ****     if ((p - str_var) == (int)strlen(coap_uri_scheme[i].name) &&
 290              		.loc 1 100 15 is_stmt 1 discriminator 2
 100:C:/Users/stapi/OneDrive/Desktop/GD32VW553/GD32VW55X_Wifi_BLE_SDK/GD32VW55x_RELEASE_V1.0.2/MSDK/lwip/libcoap-4.3.4/src\coap_uri.c ****     if ((p - str_var) == (int)strlen(coap_uri_scheme[i].name) &&
 291              		.loc 1 100 3 is_stmt 0 discriminator 2
 292 014a B10B     		addi	s7,s7,12
 293 014c E317ABF3 		bne	s6,s10,.L18
 113:C:/Users/stapi/OneDrive/Desktop/GD32VW553/GD32VW55X_Wifi_BLE_SDK/GD32VW55x_RELEASE_V1.0.2/MSDK/lwip/libcoap-4.3.4/src\coap_uri.c ****     /* scheme unknown */
 294              		.loc 1 113 3 is_stmt 1
 115:C:/Users/stapi/OneDrive/Desktop/GD32VW553/GD32VW55X_Wifi_BLE_SDK/GD32VW55x_RELEASE_V1.0.2/MSDK/lwip/libcoap-4.3.4/src\coap_uri.c ****     res = -1;
 295              		.loc 1 115 5
 115:C:/Users/stapi/OneDrive/Desktop/GD32VW553/GD32VW55X_Wifi_BLE_SDK/GD32VW55x_RELEASE_V1.0.2/MSDK/lwip/libcoap-4.3.4/src\coap_uri.c ****     res = -1;
 296              		.loc 1 115 5
 297 0150 97000000 		call	coap_get_log_level
 297      E7800000 
 298              	.LVL25:
 299 0158 8947     		li	a5,2
 300 015a E3DFA7F6 		ble	a0,a5,.L84
 115:C:/Users/stapi/OneDrive/Desktop/GD32VW553/GD32VW55X_Wifi_BLE_SDK/GD32VW55x_RELEASE_V1.0.2/MSDK/lwip/libcoap-4.3.4/src\coap_uri.c ****     res = -1;
 301              		.loc 1 115 5 discriminator 1
 302 015e B7050000 		lui	a1,%hi(.LC1)
 303 0162 A286     		mv	a3,s0
 304 0164 6686     		mv	a2,s9
 305 0166 93850500 		addi	a1,a1,%lo(.LC1)
 306 016a 95B7     		j	.L85
 307              	.L16:
 123:C:/Users/stapi/OneDrive/Desktop/GD32VW553/GD32VW55X_Wifi_BLE_SDK/GD32VW55x_RELEASE_V1.0.2/MSDK/lwip/libcoap-4.3.4/src\coap_uri.c ****       coap_log_err("coaps URI scheme not supported in this version of libcoap\n");
 308              		.loc 1 123 5
 123:C:/Users/stapi/OneDrive/Desktop/GD32VW553/GD32VW55X_Wifi_BLE_SDK/GD32VW55x_RELEASE_V1.0.2/MSDK/lwip/libcoap-4.3.4/src\coap_uri.c ****       coap_log_err("coaps URI scheme not supported in this version of libcoap\n");
 309              		.loc 1 123 10 is_stmt 0
 310 016c 97000000 		call	coap_dtls_is_supported
 310      E7800000 
 311              	.LVL26:
 123:C:/Users/stapi/OneDrive/Desktop/GD32VW553/GD32VW55X_Wifi_BLE_SDK/GD32VW55x_RELEASE_V1.0.2/MSDK/lwip/libcoap-4.3.4/src\coap_uri.c ****       coap_log_err("coaps URI scheme not supported in this version of libcoap\n");
 312              		.loc 1 123 8
 313 0174 69E9     		bne	a0,zero,.L17
 124:C:/Users/stapi/OneDrive/Desktop/GD32VW553/GD32VW55X_Wifi_BLE_SDK/GD32VW55x_RELEASE_V1.0.2/MSDK/lwip/libcoap-4.3.4/src\coap_uri.c ****       return -1;
 314              		.loc 1 124 7 is_stmt 1
 124:C:/Users/stapi/OneDrive/Desktop/GD32VW553/GD32VW55X_Wifi_BLE_SDK/GD32VW55x_RELEASE_V1.0.2/MSDK/lwip/libcoap-4.3.4/src\coap_uri.c ****       return -1;
 315              		.loc 1 124 7
 316 0176 97000000 		call	coap_get_log_level
 316      E7800000 
 317              	.LVL27:
 318 017e 8947     		li	a5,2
 319 0180 E3DCA7F4 		ble	a0,a5,.L84
 124:C:/Users/stapi/OneDrive/Desktop/GD32VW553/GD32VW55X_Wifi_BLE_SDK/GD32VW55x_RELEASE_V1.0.2/MSDK/lwip/libcoap-4.3.4/src\coap_uri.c ****       return -1;
 320              		.loc 1 124 7 discriminator 1
 321 0184 B7050000 		lui	a1,%hi(.LC2)
 322 0188 93850500 		addi	a1,a1,%lo(.LC2)
 323              	.L87:
 130:C:/Users/stapi/OneDrive/Desktop/GD32VW553/GD32VW55X_Wifi_BLE_SDK/GD32VW55x_RELEASE_V1.0.2/MSDK/lwip/libcoap-4.3.4/src\coap_uri.c ****       return -1;
 324              		.loc 1 130 7 is_stmt 0 discriminator 1
 325 018c 0D45     		li	a0,3
 326 018e 97000000 		call	coap_log_impl
 326      E7800000 
 327              	.LVL28:
 328 0196 89B7     		j	.L84
 329              	.L15:
 129:C:/Users/stapi/OneDrive/Desktop/GD32VW553/GD32VW55X_Wifi_BLE_SDK/GD32VW55x_RELEASE_V1.0.2/MSDK/lwip/libcoap-4.3.4/src\coap_uri.c ****       coap_log_err("coap+tcp URI scheme not supported in this version of libcoap\n");
 330              		.loc 1 129 5 is_stmt 1
 129:C:/Users/stapi/OneDrive/Desktop/GD32VW553/GD32VW55X_Wifi_BLE_SDK/GD32VW55x_RELEASE_V1.0.2/MSDK/lwip/libcoap-4.3.4/src\coap_uri.c ****       coap_log_err("coap+tcp URI scheme not supported in this version of libcoap\n");
 331              		.loc 1 129 10 is_stmt 0
 332 0198 97000000 		call	coap_tcp_is_supported
 332      E7800000 
 333              	.LVL29:
 129:C:/Users/stapi/OneDrive/Desktop/GD32VW553/GD32VW55X_Wifi_BLE_SDK/GD32VW55x_RELEASE_V1.0.2/MSDK/lwip/libcoap-4.3.4/src\coap_uri.c ****       coap_log_err("coap+tcp URI scheme not supported in this version of libcoap\n");
 334              		.loc 1 129 8
 335 01a0 5DE1     		bne	a0,zero,.L17
 130:C:/Users/stapi/OneDrive/Desktop/GD32VW553/GD32VW55X_Wifi_BLE_SDK/GD32VW55x_RELEASE_V1.0.2/MSDK/lwip/libcoap-4.3.4/src\coap_uri.c ****       return -1;
 336              		.loc 1 130 7 is_stmt 1
 130:C:/Users/stapi/OneDrive/Desktop/GD32VW553/GD32VW55X_Wifi_BLE_SDK/GD32VW55x_RELEASE_V1.0.2/MSDK/lwip/libcoap-4.3.4/src\coap_uri.c ****       return -1;
 337              		.loc 1 130 7
 338 01a2 97000000 		call	coap_get_log_level
 338      E7800000 
 339              	.LVL30:
 340 01aa 8947     		li	a5,2
 341 01ac E3D6A7F2 		ble	a0,a5,.L84
 130:C:/Users/stapi/OneDrive/Desktop/GD32VW553/GD32VW55X_Wifi_BLE_SDK/GD32VW55x_RELEASE_V1.0.2/MSDK/lwip/libcoap-4.3.4/src\coap_uri.c ****       return -1;
 342              		.loc 1 130 7 discriminator 1
 343 01b0 B7050000 		lui	a1,%hi(.LC3)
 344 01b4 93850500 		addi	a1,a1,%lo(.LC3)
 345 01b8 D1BF     		j	.L87
 346              	.L14:
 135:C:/Users/stapi/OneDrive/Desktop/GD32VW553/GD32VW55X_Wifi_BLE_SDK/GD32VW55x_RELEASE_V1.0.2/MSDK/lwip/libcoap-4.3.4/src\coap_uri.c ****       coap_log_err("coaps+tcp URI scheme not supported in this version of libcoap\n");
 347              		.loc 1 135 5
 135:C:/Users/stapi/OneDrive/Desktop/GD32VW553/GD32VW55X_Wifi_BLE_SDK/GD32VW55x_RELEASE_V1.0.2/MSDK/lwip/libcoap-4.3.4/src\coap_uri.c ****       coap_log_err("coaps+tcp URI scheme not supported in this version of libcoap\n");
 348              		.loc 1 135 10 is_stmt 0
 349 01ba 97000000 		call	coap_tcp_is_supported
 349      E7800000 
 350              	.LVL31:
 135:C:/Users/stapi/OneDrive/Desktop/GD32VW553/GD32VW55X_Wifi_BLE_SDK/GD32VW55x_RELEASE_V1.0.2/MSDK/lwip/libcoap-4.3.4/src\coap_uri.c ****       coap_log_err("coaps+tcp URI scheme not supported in this version of libcoap\n");
 351              		.loc 1 135 8
 352 01c2 51E1     		bne	a0,zero,.L17
 136:C:/Users/stapi/OneDrive/Desktop/GD32VW553/GD32VW55X_Wifi_BLE_SDK/GD32VW55x_RELEASE_V1.0.2/MSDK/lwip/libcoap-4.3.4/src\coap_uri.c ****       return -1;
 353              		.loc 1 136 7 is_stmt 1
 136:C:/Users/stapi/OneDrive/Desktop/GD32VW553/GD32VW55X_Wifi_BLE_SDK/GD32VW55x_RELEASE_V1.0.2/MSDK/lwip/libcoap-4.3.4/src\coap_uri.c ****       return -1;
 354              		.loc 1 136 7
 355 01c4 97000000 		call	coap_get_log_level
 355      E7800000 
 356              	.LVL32:
 357 01cc 8947     		li	a5,2
 358 01ce E3D5A7F0 		ble	a0,a5,.L84
 136:C:/Users/stapi/OneDrive/Desktop/GD32VW553/GD32VW55X_Wifi_BLE_SDK/GD32VW55x_RELEASE_V1.0.2/MSDK/lwip/libcoap-4.3.4/src\coap_uri.c ****       return -1;
 359              		.loc 1 136 7 discriminator 1
 360 01d2 B7050000 		lui	a1,%hi(.LC4)
 361 01d6 93850500 		addi	a1,a1,%lo(.LC4)
 362 01da 4DBF     		j	.L87
 363              	.L13:
 141:C:/Users/stapi/OneDrive/Desktop/GD32VW553/GD32VW55X_Wifi_BLE_SDK/GD32VW55x_RELEASE_V1.0.2/MSDK/lwip/libcoap-4.3.4/src\coap_uri.c ****       coap_log_err("coap+ws URI scheme not supported in this version of libcoap\n");
 364              		.loc 1 141 5
 141:C:/Users/stapi/OneDrive/Desktop/GD32VW553/GD32VW55X_Wifi_BLE_SDK/GD32VW55x_RELEASE_V1.0.2/MSDK/lwip/libcoap-4.3.4/src\coap_uri.c ****       coap_log_err("coap+ws URI scheme not supported in this version of libcoap\n");
 365              		.loc 1 141 10 is_stmt 0
 366 01dc 97000000 		call	coap_ws_is_supported
 366      E7800000 
 367              	.LVL33:
 141:C:/Users/stapi/OneDrive/Desktop/GD32VW553/GD32VW55X_Wifi_BLE_SDK/GD32VW55x_RELEASE_V1.0.2/MSDK/lwip/libcoap-4.3.4/src\coap_uri.c ****       coap_log_err("coap+ws URI scheme not supported in this version of libcoap\n");
 368              		.loc 1 141 8
 369 01e4 2DE1     		bne	a0,zero,.L17
 142:C:/Users/stapi/OneDrive/Desktop/GD32VW553/GD32VW55X_Wifi_BLE_SDK/GD32VW55x_RELEASE_V1.0.2/MSDK/lwip/libcoap-4.3.4/src\coap_uri.c ****       return -1;
 370              		.loc 1 142 7 is_stmt 1
 142:C:/Users/stapi/OneDrive/Desktop/GD32VW553/GD32VW55X_Wifi_BLE_SDK/GD32VW55x_RELEASE_V1.0.2/MSDK/lwip/libcoap-4.3.4/src\coap_uri.c ****       return -1;
 371              		.loc 1 142 7
 372 01e6 97000000 		call	coap_get_log_level
 372      E7800000 
 373              	.LVL34:
 374 01ee 8947     		li	a5,2
 375 01f0 E3D4A7EE 		ble	a0,a5,.L84
 142:C:/Users/stapi/OneDrive/Desktop/GD32VW553/GD32VW55X_Wifi_BLE_SDK/GD32VW55x_RELEASE_V1.0.2/MSDK/lwip/libcoap-4.3.4/src\coap_uri.c ****       return -1;
 376              		.loc 1 142 7 discriminator 1
 377 01f4 B7050000 		lui	a1,%hi(.LC5)
 378 01f8 93850500 		addi	a1,a1,%lo(.LC5)
 379 01fc 41BF     		j	.L87
 380              	.L11:
 147:C:/Users/stapi/OneDrive/Desktop/GD32VW553/GD32VW55X_Wifi_BLE_SDK/GD32VW55x_RELEASE_V1.0.2/MSDK/lwip/libcoap-4.3.4/src\coap_uri.c ****       coap_log_err("coaps+ws URI scheme not supported in this version of libcoap\n");
 381              		.loc 1 147 5
 147:C:/Users/stapi/OneDrive/Desktop/GD32VW553/GD32VW55X_Wifi_BLE_SDK/GD32VW55x_RELEASE_V1.0.2/MSDK/lwip/libcoap-4.3.4/src\coap_uri.c ****       coap_log_err("coaps+ws URI scheme not supported in this version of libcoap\n");
 382              		.loc 1 147 10 is_stmt 0
 383 01fe 97000000 		call	coap_wss_is_supported
 383      E7800000 
 384              	.LVL35:
 147:C:/Users/stapi/OneDrive/Desktop/GD32VW553/GD32VW55X_Wifi_BLE_SDK/GD32VW55x_RELEASE_V1.0.2/MSDK/lwip/libcoap-4.3.4/src\coap_uri.c ****       coap_log_err("coaps+ws URI scheme not supported in this version of libcoap\n");
 385              		.loc 1 147 8
 386 0206 21E1     		bne	a0,zero,.L17
 148:C:/Users/stapi/OneDrive/Desktop/GD32VW553/GD32VW55X_Wifi_BLE_SDK/GD32VW55x_RELEASE_V1.0.2/MSDK/lwip/libcoap-4.3.4/src\coap_uri.c ****       return -1;
 387              		.loc 1 148 7 is_stmt 1
 148:C:/Users/stapi/OneDrive/Desktop/GD32VW553/GD32VW55X_Wifi_BLE_SDK/GD32VW55x_RELEASE_V1.0.2/MSDK/lwip/libcoap-4.3.4/src\coap_uri.c ****       return -1;
 388              		.loc 1 148 7
 389 0208 97000000 		call	coap_get_log_level
 389      E7800000 
 390              	.LVL36:
 391 0210 8947     		li	a5,2
 392 0212 E3D3A7EC 		ble	a0,a5,.L84
 148:C:/Users/stapi/OneDrive/Desktop/GD32VW553/GD32VW55X_Wifi_BLE_SDK/GD32VW55x_RELEASE_V1.0.2/MSDK/lwip/libcoap-4.3.4/src\coap_uri.c ****       return -1;
 393              		.loc 1 148 7 discriminator 1
 394 0216 B7050000 		lui	a1,%hi(.LC6)
 395 021a 93850500 		addi	a1,a1,%lo(.LC6)
 396 021e BDB7     		j	.L87
 397              	.L10:
 156:C:/Users/stapi/OneDrive/Desktop/GD32VW553/GD32VW55X_Wifi_BLE_SDK/GD32VW55x_RELEASE_V1.0.2/MSDK/lwip/libcoap-4.3.4/src\coap_uri.c ****     return -1;
 398              		.loc 1 156 5
 156:C:/Users/stapi/OneDrive/Desktop/GD32VW553/GD32VW55X_Wifi_BLE_SDK/GD32VW55x_RELEASE_V1.0.2/MSDK/lwip/libcoap-4.3.4/src\coap_uri.c ****     return -1;
 399              		.loc 1 156 5
 400 0220 97000000 		call	coap_get_log_level
 400      E7800000 
 401              	.LVL37:
 402 0228 8D47     		li	a5,3
 403 022a E3D7A7EA 		ble	a0,a5,.L84
 156:C:/Users/stapi/OneDrive/Desktop/GD32VW553/GD32VW55X_Wifi_BLE_SDK/GD32VW55x_RELEASE_V1.0.2/MSDK/lwip/libcoap-4.3.4/src\coap_uri.c ****     return -1;
 404              		.loc 1 156 5 discriminator 1
 405 022e 0326C901 		lw	a2,28(s2)
 406 0232 B7050000 		lui	a1,%hi(.LC7)
 407 0236 93850500 		addi	a1,a1,%lo(.LC7)
 408 023a 1145     		li	a0,4
 409 023c 97000000 		call	coap_log_impl
 409      E7800000 
 410              	.LVL38:
 411 0244 51BD     		j	.L84
 412              	.L17:
 160:C:/Users/stapi/OneDrive/Desktop/GD32VW553/GD32VW55X_Wifi_BLE_SDK/GD32VW55x_RELEASE_V1.0.2/MSDK/lwip/libcoap-4.3.4/src\coap_uri.c ****   len -= 3;
 413              		.loc 1 160 3
 161:C:/Users/stapi/OneDrive/Desktop/GD32VW553/GD32VW55X_Wifi_BLE_SDK/GD32VW55x_RELEASE_V1.0.2/MSDK/lwip/libcoap-4.3.4/src\coap_uri.c **** 
 414              		.loc 1 161 7 is_stmt 0
 415 0246 F514     		addi	s1,s1,-3
 416              	.LVL39:
 160:C:/Users/stapi/OneDrive/Desktop/GD32VW553/GD32VW55X_Wifi_BLE_SDK/GD32VW55x_RELEASE_V1.0.2/MSDK/lwip/libcoap-4.3.4/src\coap_uri.c ****   len -= 3;
 417              		.loc 1 160 5
 418 0248 13873900 		addi	a4,s3,3
 419              	.LVL40:
 161:C:/Users/stapi/OneDrive/Desktop/GD32VW553/GD32VW55X_Wifi_BLE_SDK/GD32VW55x_RELEASE_V1.0.2/MSDK/lwip/libcoap-4.3.4/src\coap_uri.c **** 
 420              		.loc 1 161 3 is_stmt 1
 164:C:/Users/stapi/OneDrive/Desktop/GD32VW553/GD32VW55X_Wifi_BLE_SDK/GD32VW55x_RELEASE_V1.0.2/MSDK/lwip/libcoap-4.3.4/src\coap_uri.c ****   if (len && *p == '[') {
 421              		.loc 1 164 3
 165:C:/Users/stapi/OneDrive/Desktop/GD32VW553/GD32VW55X_Wifi_BLE_SDK/GD32VW55x_RELEASE_V1.0.2/MSDK/lwip/libcoap-4.3.4/src\coap_uri.c ****     /* IPv6 address reference */
 422              		.loc 1 165 3
 165:C:/Users/stapi/OneDrive/Desktop/GD32VW553/GD32VW55X_Wifi_BLE_SDK/GD32VW55x_RELEASE_V1.0.2/MSDK/lwip/libcoap-4.3.4/src\coap_uri.c ****     /* IPv6 address reference */
 423              		.loc 1 165 6 is_stmt 0
 424 024c C1C0     		beq	s1,zero,.L53
 165:C:/Users/stapi/OneDrive/Desktop/GD32VW553/GD32VW55X_Wifi_BLE_SDK/GD32VW55x_RELEASE_V1.0.2/MSDK/lwip/libcoap-4.3.4/src\coap_uri.c ****     /* IPv6 address reference */
 425              		.loc 1 165 14 discriminator 1
 426 024e 83C73900 		lbu	a5,3(s3)
 165:C:/Users/stapi/OneDrive/Desktop/GD32VW553/GD32VW55X_Wifi_BLE_SDK/GD32VW55x_RELEASE_V1.0.2/MSDK/lwip/libcoap-4.3.4/src\coap_uri.c ****     /* IPv6 address reference */
 427              		.loc 1 165 11 discriminator 1
 428 0252 9306B005 		li	a3,91
 429 0256 639DD702 		bne	a5,a3,.L23
 167:C:/Users/stapi/OneDrive/Desktop/GD32VW553/GD32VW55X_Wifi_BLE_SDK/GD32VW55x_RELEASE_V1.0.2/MSDK/lwip/libcoap-4.3.4/src\coap_uri.c **** 
 430              		.loc 1 167 5 is_stmt 1
 431 025a 13844900 		addi	s0,s3,4
 432              	.LVL41:
 169:C:/Users/stapi/OneDrive/Desktop/GD32VW553/GD32VW55X_Wifi_BLE_SDK/GD32VW55x_RELEASE_V1.0.2/MSDK/lwip/libcoap-4.3.4/src\coap_uri.c ****       ++q;
 433              		.loc 1 169 5
 169:C:/Users/stapi/OneDrive/Desktop/GD32VW553/GD32VW55X_Wifi_BLE_SDK/GD32VW55x_RELEASE_V1.0.2/MSDK/lwip/libcoap-4.3.4/src\coap_uri.c ****       ++q;
 434              		.loc 1 169 11
 169:C:/Users/stapi/OneDrive/Desktop/GD32VW553/GD32VW55X_Wifi_BLE_SDK/GD32VW55x_RELEASE_V1.0.2/MSDK/lwip/libcoap-4.3.4/src\coap_uri.c ****       ++q;
 435              		.loc 1 169 16 is_stmt 0
 436 025e 9307D005 		li	a5,93
 437              	.L24:
 169:C:/Users/stapi/OneDrive/Desktop/GD32VW553/GD32VW55X_Wifi_BLE_SDK/GD32VW55x_RELEASE_V1.0.2/MSDK/lwip/libcoap-4.3.4/src\coap_uri.c ****       ++q;
 438              		.loc 1 169 16 discriminator 1
 439 0262 83460700 		lbu	a3,0(a4)
 440 0266 6390F602 		bne	a3,a5,.L25
 174:C:/Users/stapi/OneDrive/Desktop/GD32VW553/GD32VW55X_Wifi_BLE_SDK/GD32VW55x_RELEASE_V1.0.2/MSDK/lwip/libcoap-4.3.4/src\coap_uri.c ****       res = -3;
 441              		.loc 1 174 5 is_stmt 1
 174:C:/Users/stapi/OneDrive/Desktop/GD32VW553/GD32VW55X_Wifi_BLE_SDK/GD32VW55x_RELEASE_V1.0.2/MSDK/lwip/libcoap-4.3.4/src\coap_uri.c ****       res = -3;
 442              		.loc 1 174 27 is_stmt 0
 443 026a 6301E402 		beq	s0,a4,.L33
 179:C:/Users/stapi/OneDrive/Desktop/GD32VW553/GD32VW55X_Wifi_BLE_SDK/GD32VW55x_RELEASE_V1.0.2/MSDK/lwip/libcoap-4.3.4/src\coap_uri.c ****     ++q;
 444              		.loc 1 179 5 is_stmt 1
 445 026e B3078740 		sub	a5,a4,s0
 446 0272 2320F900 		sw	a5,0(s2)
 447 0276 23228900 		sw	s0,4(s2)
 179:C:/Users/stapi/OneDrive/Desktop/GD32VW553/GD32VW55X_Wifi_BLE_SDK/GD32VW55x_RELEASE_V1.0.2/MSDK/lwip/libcoap-4.3.4/src\coap_uri.c ****     ++q;
 448              		.loc 1 179 39
 180:C:/Users/stapi/OneDrive/Desktop/GD32VW553/GD32VW55X_Wifi_BLE_SDK/GD32VW55x_RELEASE_V1.0.2/MSDK/lwip/libcoap-4.3.4/src\coap_uri.c ****     --len;
 449              		.loc 1 180 5
 450 027a 93071700 		addi	a5,a4,1
 451              	.LVL42:
 181:C:/Users/stapi/OneDrive/Desktop/GD32VW553/GD32VW55X_Wifi_BLE_SDK/GD32VW55x_RELEASE_V1.0.2/MSDK/lwip/libcoap-4.3.4/src\coap_uri.c ****   } else {
 452              		.loc 1 181 5
 453 027e FD14     		addi	s1,s1,-1
 454              	.LVL43:
 455              	.L27:
 200:C:/Users/stapi/OneDrive/Desktop/GD32VW553/GD32VW55X_Wifi_BLE_SDK/GD32VW55x_RELEASE_V1.0.2/MSDK/lwip/libcoap-4.3.4/src\coap_uri.c ****   }
 456              		.loc 1 200 39 discriminator 1
 204:C:/Users/stapi/OneDrive/Desktop/GD32VW553/GD32VW55X_Wifi_BLE_SDK/GD32VW55x_RELEASE_V1.0.2/MSDK/lwip/libcoap-4.3.4/src\coap_uri.c ****     if (is_unix_domain) {
 457              		.loc 1 204 3 discriminator 1
 204:C:/Users/stapi/OneDrive/Desktop/GD32VW553/GD32VW55X_Wifi_BLE_SDK/GD32VW55x_RELEASE_V1.0.2/MSDK/lwip/libcoap-4.3.4/src\coap_uri.c ****     if (is_unix_domain) {
 458              		.loc 1 204 6 is_stmt 0 discriminator 1
 459 0280 B5EC     		bne	s1,zero,.L34
 460              	.LVL44:
 461              	.L86:
 257:C:/Users/stapi/OneDrive/Desktop/GD32VW553/GD32VW55X_Wifi_BLE_SDK/GD32VW55x_RELEASE_V1.0.2/MSDK/lwip/libcoap-4.3.4/src\coap_uri.c ****     len = 0;
 462              		.loc 1 257 38 is_stmt 1
 258:C:/Users/stapi/OneDrive/Desktop/GD32VW553/GD32VW55X_Wifi_BLE_SDK/GD32VW55x_RELEASE_V1.0.2/MSDK/lwip/libcoap-4.3.4/src\coap_uri.c ****   }
 463              		.loc 1 258 5
 262:C:/Users/stapi/OneDrive/Desktop/GD32VW553/GD32VW55X_Wifi_BLE_SDK/GD32VW55x_RELEASE_V1.0.2/MSDK/lwip/libcoap-4.3.4/src\coap_uri.c **** 
 464              		.loc 1 262 3
 262:C:/Users/stapi/OneDrive/Desktop/GD32VW553/GD32VW55X_Wifi_BLE_SDK/GD32VW55x_RELEASE_V1.0.2/MSDK/lwip/libcoap-4.3.4/src\coap_uri.c **** 
 465              		.loc 1 262 19 is_stmt 0
 466 0282 0145     		li	a0,0
 467 0284 99BD     		j	.L1
 468              	.LVL45:
 469              	.L25:
 170:C:/Users/stapi/OneDrive/Desktop/GD32VW553/GD32VW55X_Wifi_BLE_SDK/GD32VW55x_RELEASE_V1.0.2/MSDK/lwip/libcoap-4.3.4/src\coap_uri.c ****       --len;
 470              		.loc 1 170 7 is_stmt 1
 171:C:/Users/stapi/OneDrive/Desktop/GD32VW553/GD32VW55X_Wifi_BLE_SDK/GD32VW55x_RELEASE_V1.0.2/MSDK/lwip/libcoap-4.3.4/src\coap_uri.c ****     }
 471              		.loc 1 171 7 is_stmt 0
 472 0286 FD14     		addi	s1,s1,-1
 473              	.LVL46:
 170:C:/Users/stapi/OneDrive/Desktop/GD32VW553/GD32VW55X_Wifi_BLE_SDK/GD32VW55x_RELEASE_V1.0.2/MSDK/lwip/libcoap-4.3.4/src\coap_uri.c ****       --len;
 474              		.loc 1 170 7
 475 0288 0507     		addi	a4,a4,1
 476              	.LVL47:
 171:C:/Users/stapi/OneDrive/Desktop/GD32VW553/GD32VW55X_Wifi_BLE_SDK/GD32VW55x_RELEASE_V1.0.2/MSDK/lwip/libcoap-4.3.4/src\coap_uri.c ****     }
 477              		.loc 1 171 7 is_stmt 1
 169:C:/Users/stapi/OneDrive/Desktop/GD32VW553/GD32VW55X_Wifi_BLE_SDK/GD32VW55x_RELEASE_V1.0.2/MSDK/lwip/libcoap-4.3.4/src\coap_uri.c ****       ++q;
 478              		.loc 1 169 11
 479 028a E1FC     		bne	s1,zero,.L24
 480              	.LVL48:
 481              	.L33:
 175:C:/Users/stapi/OneDrive/Desktop/GD32VW553/GD32VW55X_Wifi_BLE_SDK/GD32VW55x_RELEASE_V1.0.2/MSDK/lwip/libcoap-4.3.4/src\coap_uri.c ****       goto error;
 482              		.loc 1 175 11 is_stmt 0
 483 028c 7555     		li	a0,-3
 484 028e B1B5     		j	.L1
 485              	.LVL49:
 486              	.L23:
 184:C:/Users/stapi/OneDrive/Desktop/GD32VW553/GD32VW55X_Wifi_BLE_SDK/GD32VW55x_RELEASE_V1.0.2/MSDK/lwip/libcoap-4.3.4/src\coap_uri.c ****         (p[2] == 'F' || p[2] == 'f')) {
 487              		.loc 1 184 5 is_stmt 1
 184:C:/Users/stapi/OneDrive/Desktop/GD32VW553/GD32VW55X_Wifi_BLE_SDK/GD32VW55x_RELEASE_V1.0.2/MSDK/lwip/libcoap-4.3.4/src\coap_uri.c ****         (p[2] == 'F' || p[2] == 'f')) {
 488              		.loc 1 184 8 is_stmt 0
 489 0290 8946     		li	a3,2
 490 0292 63F79602 		bleu	s1,a3,.L28
 184:C:/Users/stapi/OneDrive/Desktop/GD32VW553/GD32VW55X_Wifi_BLE_SDK/GD32VW55x_RELEASE_V1.0.2/MSDK/lwip/libcoap-4.3.4/src\coap_uri.c ****         (p[2] == 'F' || p[2] == 'f')) {
 491              		.loc 1 184 18 discriminator 1
 492 0296 93065002 		li	a3,37
 493 029a 6393D702 		bne	a5,a3,.L28
 184:C:/Users/stapi/OneDrive/Desktop/GD32VW553/GD32VW55X_Wifi_BLE_SDK/GD32VW55x_RELEASE_V1.0.2/MSDK/lwip/libcoap-4.3.4/src\coap_uri.c ****         (p[2] == 'F' || p[2] == 'f')) {
 494              		.loc 1 184 33 discriminator 2
 495 029e 83C64900 		lbu	a3,4(s3)
 496 02a2 93072003 		li	a5,50
 497 02a6 639DF600 		bne	a3,a5,.L28
 184:C:/Users/stapi/OneDrive/Desktop/GD32VW553/GD32VW55X_Wifi_BLE_SDK/GD32VW55x_RELEASE_V1.0.2/MSDK/lwip/libcoap-4.3.4/src\coap_uri.c ****         (p[2] == 'F' || p[2] == 'f')) {
 498              		.loc 1 184 48 discriminator 3
 499 02aa 83C75900 		lbu	a5,5(s3)
 500 02ae 93066004 		li	a3,70
 501 02b2 93F7F70D 		andi	a5,a5,223
 502 02b6 6395D700 		bne	a5,a3,.L28
 187:C:/Users/stapi/OneDrive/Desktop/GD32VW553/GD32VW55X_Wifi_BLE_SDK/GD32VW55x_RELEASE_V1.0.2/MSDK/lwip/libcoap-4.3.4/src\coap_uri.c ****       is_unix_domain = 1;
 503              		.loc 1 187 7 is_stmt 1
 187:C:/Users/stapi/OneDrive/Desktop/GD32VW553/GD32VW55X_Wifi_BLE_SDK/GD32VW55x_RELEASE_V1.0.2/MSDK/lwip/libcoap-4.3.4/src\coap_uri.c ****       is_unix_domain = 1;
 504              		.loc 1 187 17 is_stmt 0
 505 02ba 23140900 		sh	zero,8(s2)
 188:C:/Users/stapi/OneDrive/Desktop/GD32VW553/GD32VW55X_Wifi_BLE_SDK/GD32VW55x_RELEASE_V1.0.2/MSDK/lwip/libcoap-4.3.4/src\coap_uri.c ****     }
 506              		.loc 1 188 7 is_stmt 1
 507              	.LVL50:
 188:C:/Users/stapi/OneDrive/Desktop/GD32VW553/GD32VW55X_Wifi_BLE_SDK/GD32VW55x_RELEASE_V1.0.2/MSDK/lwip/libcoap-4.3.4/src\coap_uri.c ****     }
 508              		.loc 1 188 22 is_stmt 0
 509 02be 054A     		li	s4,1
 510              	.LVL51:
 511              	.L28:
 160:C:/Users/stapi/OneDrive/Desktop/GD32VW553/GD32VW55X_Wifi_BLE_SDK/GD32VW55x_RELEASE_V1.0.2/MSDK/lwip/libcoap-4.3.4/src\coap_uri.c ****   len -= 3;
 512              		.loc 1 160 5
 513 02c0 BA87     		mv	a5,a4
 190:C:/Users/stapi/OneDrive/Desktop/GD32VW553/GD32VW55X_Wifi_BLE_SDK/GD32VW55x_RELEASE_V1.0.2/MSDK/lwip/libcoap-4.3.4/src\coap_uri.c ****       ++q;
 514              		.loc 1 190 16
 515 02c2 9305A003 		li	a1,58
 190:C:/Users/stapi/OneDrive/Desktop/GD32VW553/GD32VW55X_Wifi_BLE_SDK/GD32VW55x_RELEASE_V1.0.2/MSDK/lwip/libcoap-4.3.4/src\coap_uri.c ****       ++q;
 516              		.loc 1 190 29
 517 02c6 1306F002 		li	a2,47
 518 02ca 29A8     		j	.L29
 519              	.LVL52:
 520              	.L53:
 160:C:/Users/stapi/OneDrive/Desktop/GD32VW553/GD32VW55X_Wifi_BLE_SDK/GD32VW55x_RELEASE_V1.0.2/MSDK/lwip/libcoap-4.3.4/src\coap_uri.c ****   len -= 3;
 521              		.loc 1 160 5
 522 02cc BA87     		mv	a5,a4
 523 02ce 21A8     		j	.L22
 524              	.LVL53:
 525              	.L30:
 190:C:/Users/stapi/OneDrive/Desktop/GD32VW553/GD32VW55X_Wifi_BLE_SDK/GD32VW55x_RELEASE_V1.0.2/MSDK/lwip/libcoap-4.3.4/src\coap_uri.c ****       ++q;
 526              		.loc 1 190 19 discriminator 1
 527 02d0 83C60700 		lbu	a3,0(a5)
 190:C:/Users/stapi/OneDrive/Desktop/GD32VW553/GD32VW55X_Wifi_BLE_SDK/GD32VW55x_RELEASE_V1.0.2/MSDK/lwip/libcoap-4.3.4/src\coap_uri.c ****       ++q;
 528              		.loc 1 190 16 discriminator 1
 529 02d4 638AB600 		beq	a3,a1,.L31
 190:C:/Users/stapi/OneDrive/Desktop/GD32VW553/GD32VW55X_Wifi_BLE_SDK/GD32VW55x_RELEASE_V1.0.2/MSDK/lwip/libcoap-4.3.4/src\coap_uri.c ****       ++q;
 530              		.loc 1 190 29 discriminator 2
 531 02d8 93F6F60E 		andi	a3,a3,239
 532 02dc 6386C600 		beq	a3,a2,.L31
 191:C:/Users/stapi/OneDrive/Desktop/GD32VW553/GD32VW55X_Wifi_BLE_SDK/GD32VW55x_RELEASE_V1.0.2/MSDK/lwip/libcoap-4.3.4/src\coap_uri.c ****       --len;
 533              		.loc 1 191 7 is_stmt 1
 534 02e0 8507     		addi	a5,a5,1
 535              	.LVL54:
 192:C:/Users/stapi/OneDrive/Desktop/GD32VW553/GD32VW55X_Wifi_BLE_SDK/GD32VW55x_RELEASE_V1.0.2/MSDK/lwip/libcoap-4.3.4/src\coap_uri.c ****     }
 536              		.loc 1 192 7
 537 02e2 FD14     		addi	s1,s1,-1
 538              	.LVL55:
 539              	.L29:
 190:C:/Users/stapi/OneDrive/Desktop/GD32VW553/GD32VW55X_Wifi_BLE_SDK/GD32VW55x_RELEASE_V1.0.2/MSDK/lwip/libcoap-4.3.4/src\coap_uri.c ****       ++q;
 540              		.loc 1 190 11
 541 02e4 F5F4     		bne	s1,zero,.L30
 542              	.LVL56:
 543              	.L22:
 160:C:/Users/stapi/OneDrive/Desktop/GD32VW553/GD32VW55X_Wifi_BLE_SDK/GD32VW55x_RELEASE_V1.0.2/MSDK/lwip/libcoap-4.3.4/src\coap_uri.c ****   len -= 3;
 544              		.loc 1 160 5 is_stmt 0
 545 02e6 8144     		li	s1,0
 546              	.L31:
 195:C:/Users/stapi/OneDrive/Desktop/GD32VW553/GD32VW55X_Wifi_BLE_SDK/GD32VW55x_RELEASE_V1.0.2/MSDK/lwip/libcoap-4.3.4/src\coap_uri.c ****       res = -3;
 547              		.loc 1 195 5 is_stmt 1
 195:C:/Users/stapi/OneDrive/Desktop/GD32VW553/GD32VW55X_Wifi_BLE_SDK/GD32VW55x_RELEASE_V1.0.2/MSDK/lwip/libcoap-4.3.4/src\coap_uri.c ****       res = -3;
 548              		.loc 1 195 8 is_stmt 0
 549 02e8 E382E7FA 		beq	a5,a4,.L33
 200:C:/Users/stapi/OneDrive/Desktop/GD32VW553/GD32VW55X_Wifi_BLE_SDK/GD32VW55x_RELEASE_V1.0.2/MSDK/lwip/libcoap-4.3.4/src\coap_uri.c ****   }
 550              		.loc 1 200 5 is_stmt 1
 551 02ec B386E740 		sub	a3,a5,a4
 552 02f0 2320D900 		sw	a3,0(s2)
 553 02f4 2322E900 		sw	a4,4(s2)
 554 02f8 3A84     		mv	s0,a4
 555              	.LVL57:
 556 02fa 59B7     		j	.L27
 557              	.LVL58:
 558              	.L34:
 204:C:/Users/stapi/OneDrive/Desktop/GD32VW553/GD32VW55X_Wifi_BLE_SDK/GD32VW55x_RELEASE_V1.0.2/MSDK/lwip/libcoap-4.3.4/src\coap_uri.c ****     if (is_unix_domain) {
 559              		.loc 1 204 11 is_stmt 0 discriminator 1
 560 02fc 83C60700 		lbu	a3,0(a5)
 561 0300 1307A003 		li	a4,58
 562 0304 E394E6DE 		bne	a3,a4,.L6
 205:C:/Users/stapi/OneDrive/Desktop/GD32VW553/GD32VW55X_Wifi_BLE_SDK/GD32VW55x_RELEASE_V1.0.2/MSDK/lwip/libcoap-4.3.4/src\coap_uri.c ****       res = -5;
 563              		.loc 1 205 5 is_stmt 1
 206:C:/Users/stapi/OneDrive/Desktop/GD32VW553/GD32VW55X_Wifi_BLE_SDK/GD32VW55x_RELEASE_V1.0.2/MSDK/lwip/libcoap-4.3.4/src\coap_uri.c ****       goto error;
 564              		.loc 1 206 11 is_stmt 0
 565 0308 6D55     		li	a0,-5
 205:C:/Users/stapi/OneDrive/Desktop/GD32VW553/GD32VW55X_Wifi_BLE_SDK/GD32VW55x_RELEASE_V1.0.2/MSDK/lwip/libcoap-4.3.4/src\coap_uri.c ****       res = -5;
 566              		.loc 1 205 8
 567 030a E3180ADC 		bne	s4,zero,.L1
 209:C:/Users/stapi/OneDrive/Desktop/GD32VW553/GD32VW55X_Wifi_BLE_SDK/GD32VW55x_RELEASE_V1.0.2/MSDK/lwip/libcoap-4.3.4/src\coap_uri.c ****     --len;
 568              		.loc 1 209 5 is_stmt 1
 569              	.LVL59:
 209:C:/Users/stapi/OneDrive/Desktop/GD32VW553/GD32VW55X_Wifi_BLE_SDK/GD32VW55x_RELEASE_V1.0.2/MSDK/lwip/libcoap-4.3.4/src\coap_uri.c ****     --len;
 570              		.loc 1 209 7 is_stmt 0
 571 030e 13841700 		addi	s0,a5,1
 572              	.LVL60:
 210:C:/Users/stapi/OneDrive/Desktop/GD32VW553/GD32VW55X_Wifi_BLE_SDK/GD32VW55x_RELEASE_V1.0.2/MSDK/lwip/libcoap-4.3.4/src\coap_uri.c **** 
 573              		.loc 1 210 5 is_stmt 1
 212:C:/Users/stapi/OneDrive/Desktop/GD32VW553/GD32VW55X_Wifi_BLE_SDK/GD32VW55x_RELEASE_V1.0.2/MSDK/lwip/libcoap-4.3.4/src\coap_uri.c ****       ++q;
 574              		.loc 1 212 19 is_stmt 0
 575 0312 B7060000 		lui	a3,%hi(_ctype_+1)
 210:C:/Users/stapi/OneDrive/Desktop/GD32VW553/GD32VW55X_Wifi_BLE_SDK/GD32VW55x_RELEASE_V1.0.2/MSDK/lwip/libcoap-4.3.4/src\coap_uri.c **** 
 576              		.loc 1 210 5
 577 0316 FD14     		addi	s1,s1,-1
 578              	.LVL61:
 212:C:/Users/stapi/OneDrive/Desktop/GD32VW553/GD32VW55X_Wifi_BLE_SDK/GD32VW55x_RELEASE_V1.0.2/MSDK/lwip/libcoap-4.3.4/src\coap_uri.c ****       ++q;
 579              		.loc 1 212 5 is_stmt 1
 209:C:/Users/stapi/OneDrive/Desktop/GD32VW553/GD32VW55X_Wifi_BLE_SDK/GD32VW55x_RELEASE_V1.0.2/MSDK/lwip/libcoap-4.3.4/src\coap_uri.c ****     --len;
 580              		.loc 1 209 7 is_stmt 0
 581 0318 A287     		mv	a5,s0
 212:C:/Users/stapi/OneDrive/Desktop/GD32VW553/GD32VW55X_Wifi_BLE_SDK/GD32VW55x_RELEASE_V1.0.2/MSDK/lwip/libcoap-4.3.4/src\coap_uri.c ****       ++q;
 582              		.loc 1 212 19
 583 031a 93861600 		addi	a3,a3,%lo(_ctype_+1)
 584              	.LVL62:
 585              	.L35:
 212:C:/Users/stapi/OneDrive/Desktop/GD32VW553/GD32VW55X_Wifi_BLE_SDK/GD32VW55x_RELEASE_V1.0.2/MSDK/lwip/libcoap-4.3.4/src\coap_uri.c ****       ++q;
 586              		.loc 1 212 11 is_stmt 1
 587 031e D1C0     		beq	s1,zero,.L36
 212:C:/Users/stapi/OneDrive/Desktop/GD32VW553/GD32VW55X_Wifi_BLE_SDK/GD32VW55x_RELEASE_V1.0.2/MSDK/lwip/libcoap-4.3.4/src\coap_uri.c ****       ++q;
 588              		.loc 1 212 19 is_stmt 0 discriminator 1
 589 0320 03C70700 		lbu	a4,0(a5)
 590 0324 3697     		add	a4,a4,a3
 212:C:/Users/stapi/OneDrive/Desktop/GD32VW553/GD32VW55X_Wifi_BLE_SDK/GD32VW55x_RELEASE_V1.0.2/MSDK/lwip/libcoap-4.3.4/src\coap_uri.c ****       ++q;
 591              		.loc 1 212 16 discriminator 1
 592 0326 03470700 		lbu	a4,0(a4)
 593 032a 118B     		andi	a4,a4,4
 594 032c 1DE3     		bne	a4,zero,.L37
 217:C:/Users/stapi/OneDrive/Desktop/GD32VW553/GD32VW55X_Wifi_BLE_SDK/GD32VW55x_RELEASE_V1.0.2/MSDK/lwip/libcoap-4.3.4/src\coap_uri.c ****       int uri_port = 0;
 595              		.loc 1 217 5 is_stmt 1
 217:C:/Users/stapi/OneDrive/Desktop/GD32VW553/GD32VW55X_Wifi_BLE_SDK/GD32VW55x_RELEASE_V1.0.2/MSDK/lwip/libcoap-4.3.4/src\coap_uri.c ****       int uri_port = 0;
 596              		.loc 1 217 8 is_stmt 0
 597 032e E37FF4DA 		bleu	a5,s0,.L6
 598              	.L50:
 599              	.LBB2:
 221:C:/Users/stapi/OneDrive/Desktop/GD32VW553/GD32VW55X_Wifi_BLE_SDK/GD32VW55x_RELEASE_V1.0.2/MSDK/lwip/libcoap-4.3.4/src\coap_uri.c **** 
 600              		.loc 1 221 29
 601 0332 2946     		li	a2,10
 220:C:/Users/stapi/OneDrive/Desktop/GD32VW553/GD32VW55X_Wifi_BLE_SDK/GD32VW55x_RELEASE_V1.0.2/MSDK/lwip/libcoap-4.3.4/src\coap_uri.c ****         uri_port = uri_port * 10 + (*p++ - '0');
 602              		.loc 1 220 22
 603 0334 C166     		li	a3,65536
 604              	.LVL63:
 605              	.L40:
 221:C:/Users/stapi/OneDrive/Desktop/GD32VW553/GD32VW55X_Wifi_BLE_SDK/GD32VW55x_RELEASE_V1.0.2/MSDK/lwip/libcoap-4.3.4/src\coap_uri.c **** 
 606              		.loc 1 221 9 is_stmt 1
 221:C:/Users/stapi/OneDrive/Desktop/GD32VW553/GD32VW55X_Wifi_BLE_SDK/GD32VW55x_RELEASE_V1.0.2/MSDK/lwip/libcoap-4.3.4/src\coap_uri.c **** 
 607              		.loc 1 221 37 is_stmt 0
 608 0336 03470400 		lbu	a4,0(s0)
 221:C:/Users/stapi/OneDrive/Desktop/GD32VW553/GD32VW55X_Wifi_BLE_SDK/GD32VW55x_RELEASE_V1.0.2/MSDK/lwip/libcoap-4.3.4/src\coap_uri.c **** 
 609              		.loc 1 221 39
 610 033a 0504     		addi	s0,s0,1
 611              	.LVL64:
 221:C:/Users/stapi/OneDrive/Desktop/GD32VW553/GD32VW55X_Wifi_BLE_SDK/GD32VW55x_RELEASE_V1.0.2/MSDK/lwip/libcoap-4.3.4/src\coap_uri.c **** 
 612              		.loc 1 221 42
 613 033c 130707FD 		addi	a4,a4,-48
 221:C:/Users/stapi/OneDrive/Desktop/GD32VW553/GD32VW55X_Wifi_BLE_SDK/GD32VW55x_RELEASE_V1.0.2/MSDK/lwip/libcoap-4.3.4/src\coap_uri.c **** 
 614              		.loc 1 221 18
 615 0340 7F17CAC4 		maddr32	a4, s4, a2
 616 0344 3A8A     		mv	s4,a4
 617              	.LVL65:
 220:C:/Users/stapi/OneDrive/Desktop/GD32VW553/GD32VW55X_Wifi_BLE_SDK/GD32VW55x_RELEASE_V1.0.2/MSDK/lwip/libcoap-4.3.4/src\coap_uri.c ****         uri_port = uri_port * 10 + (*p++ - '0');
 618              		.loc 1 220 13 is_stmt 1
 619 0346 63898700 		beq	a5,s0,.L39
 220:C:/Users/stapi/OneDrive/Desktop/GD32VW553/GD32VW55X_Wifi_BLE_SDK/GD32VW55x_RELEASE_V1.0.2/MSDK/lwip/libcoap-4.3.4/src\coap_uri.c ****         uri_port = uri_port * 10 + (*p++ - '0');
 620              		.loc 1 220 22 is_stmt 0 discriminator 1
 621 034a E346D7FE 		blt	a4,a3,.L40
 225:C:/Users/stapi/OneDrive/Desktop/GD32VW553/GD32VW55X_Wifi_BLE_SDK/GD32VW55x_RELEASE_V1.0.2/MSDK/lwip/libcoap-4.3.4/src\coap_uri.c ****         goto error;
 622              		.loc 1 225 13
 623 034e 7155     		li	a0,-4
 624 0350 69B3     		j	.L1
 625              	.LVL66:
 626              	.L37:
 627              	.LBE2:
 213:C:/Users/stapi/OneDrive/Desktop/GD32VW553/GD32VW55X_Wifi_BLE_SDK/GD32VW55x_RELEASE_V1.0.2/MSDK/lwip/libcoap-4.3.4/src\coap_uri.c ****       --len;
 628              		.loc 1 213 7 is_stmt 1
 629 0352 8507     		addi	a5,a5,1
 630              	.LVL67:
 214:C:/Users/stapi/OneDrive/Desktop/GD32VW553/GD32VW55X_Wifi_BLE_SDK/GD32VW55x_RELEASE_V1.0.2/MSDK/lwip/libcoap-4.3.4/src\coap_uri.c ****     }
 631              		.loc 1 214 7
 632 0354 FD14     		addi	s1,s1,-1
 633              	.LVL68:
 634 0356 E1B7     		j	.L35
 635              	.LVL69:
 636              	.L39:
 637              	.LBB3:
 224:C:/Users/stapi/OneDrive/Desktop/GD32VW553/GD32VW55X_Wifi_BLE_SDK/GD32VW55x_RELEASE_V1.0.2/MSDK/lwip/libcoap-4.3.4/src\coap_uri.c ****         res = -4;
 638              		.loc 1 224 7
 224:C:/Users/stapi/OneDrive/Desktop/GD32VW553/GD32VW55X_Wifi_BLE_SDK/GD32VW55x_RELEASE_V1.0.2/MSDK/lwip/libcoap-4.3.4/src\coap_uri.c ****         res = -4;
 639              		.loc 1 224 10 is_stmt 0
 640 0358 4167     		li	a4,65536
 641              	.LVL70:
 225:C:/Users/stapi/OneDrive/Desktop/GD32VW553/GD32VW55X_Wifi_BLE_SDK/GD32VW55x_RELEASE_V1.0.2/MSDK/lwip/libcoap-4.3.4/src\coap_uri.c ****         goto error;
 642              		.loc 1 225 13
 643 035a 7155     		li	a0,-4
 224:C:/Users/stapi/OneDrive/Desktop/GD32VW553/GD32VW55X_Wifi_BLE_SDK/GD32VW55x_RELEASE_V1.0.2/MSDK/lwip/libcoap-4.3.4/src\coap_uri.c ****         res = -4;
 644              		.loc 1 224 10
 645 035c E35FEAD6 		bge	s4,a4,.L1
 229:C:/Users/stapi/OneDrive/Desktop/GD32VW553/GD32VW55X_Wifi_BLE_SDK/GD32VW55x_RELEASE_V1.0.2/MSDK/lwip/libcoap-4.3.4/src\coap_uri.c ****     }
 646              		.loc 1 229 7 is_stmt 1
 229:C:/Users/stapi/OneDrive/Desktop/GD32VW553/GD32VW55X_Wifi_BLE_SDK/GD32VW55x_RELEASE_V1.0.2/MSDK/lwip/libcoap-4.3.4/src\coap_uri.c ****     }
 647              		.loc 1 229 19 is_stmt 0
 648 0360 23144901 		sh	s4,8(s2)
 649              	.LDL1:
 650              	.LBE3:
 235:C:/Users/stapi/OneDrive/Desktop/GD32VW553/GD32VW55X_Wifi_BLE_SDK/GD32VW55x_RELEASE_V1.0.2/MSDK/lwip/libcoap-4.3.4/src\coap_uri.c ****     goto end;
 651              		.loc 1 235 3 is_stmt 1
 235:C:/Users/stapi/OneDrive/Desktop/GD32VW553/GD32VW55X_Wifi_BLE_SDK/GD32VW55x_RELEASE_V1.0.2/MSDK/lwip/libcoap-4.3.4/src\coap_uri.c ****     goto end;
 652              		.loc 1 235 6 is_stmt 0
 653 0364 E39404D8 		bne	s1,zero,.L6
 654 0368 29BF     		j	.L86
 655              	.LVL71:
 656              	.L45:
 243:C:/Users/stapi/OneDrive/Desktop/GD32VW553/GD32VW55X_Wifi_BLE_SDK/GD32VW55x_RELEASE_V1.0.2/MSDK/lwip/libcoap-4.3.4/src\coap_uri.c ****       --len;
 657              		.loc 1 243 7 is_stmt 1
 658 036a 0504     		addi	s0,s0,1
 659              	.LVL72:
 244:C:/Users/stapi/OneDrive/Desktop/GD32VW553/GD32VW55X_Wifi_BLE_SDK/GD32VW55x_RELEASE_V1.0.2/MSDK/lwip/libcoap-4.3.4/src\coap_uri.c ****     }
 660              		.loc 1 244 7
 661 036c FD14     		addi	s1,s1,-1
 662              	.LVL73:
 663 036e 51BB     		j	.L43
 664              	.LVL74:
 665              	.L52:
  97:C:/Users/stapi/OneDrive/Desktop/GD32VW553/GD32VW55X_Wifi_BLE_SDK/GD32VW55x_RELEASE_V1.0.2/MSDK/lwip/libcoap-4.3.4/src\coap_uri.c ****     goto error;
 666              		.loc 1 97 9 is_stmt 0
 667 0370 7955     		li	a0,-2
 668 0372 A5B3     		j	.L1
 669              	.LVL75:
 670              	.L44:
 247:C:/Users/stapi/OneDrive/Desktop/GD32VW553/GD32VW55X_Wifi_BLE_SDK/GD32VW55x_RELEASE_V1.0.2/MSDK/lwip/libcoap-4.3.4/src\coap_uri.c ****       COAP_SET_STR(&uri->path, q - p, p);
 671              		.loc 1 247 5 is_stmt 1
 247:C:/Users/stapi/OneDrive/Desktop/GD32VW553/GD32VW55X_Wifi_BLE_SDK/GD32VW55x_RELEASE_V1.0.2/MSDK/lwip/libcoap-4.3.4/src\coap_uri.c ****       COAP_SET_STR(&uri->path, q - p, p);
 672              		.loc 1 247 8 is_stmt 0
 673 0374 E3F787F0 		bleu	s0,a5,.L86
 674              	.L49:
 248:C:/Users/stapi/OneDrive/Desktop/GD32VW553/GD32VW55X_Wifi_BLE_SDK/GD32VW55x_RELEASE_V1.0.2/MSDK/lwip/libcoap-4.3.4/src\coap_uri.c ****       p = q;
 675              		.loc 1 248 7 is_stmt 1
 676 0378 3307F440 		sub	a4,s0,a5
 677 037c 2326E900 		sw	a4,12(s2)
 678 0380 2328F900 		sw	a5,16(s2)
 248:C:/Users/stapi/OneDrive/Desktop/GD32VW553/GD32VW55X_Wifi_BLE_SDK/GD32VW55x_RELEASE_V1.0.2/MSDK/lwip/libcoap-4.3.4/src\coap_uri.c ****       p = q;
 679              		.loc 1 248 41
 249:C:/Users/stapi/OneDrive/Desktop/GD32VW553/GD32VW55X_Wifi_BLE_SDK/GD32VW55x_RELEASE_V1.0.2/MSDK/lwip/libcoap-4.3.4/src\coap_uri.c ****     }
 680              		.loc 1 249 7
 681              	.LVL76:
 254:C:/Users/stapi/OneDrive/Desktop/GD32VW553/GD32VW55X_Wifi_BLE_SDK/GD32VW55x_RELEASE_V1.0.2/MSDK/lwip/libcoap-4.3.4/src\coap_uri.c ****     ++p;
 682              		.loc 1 254 3
 254:C:/Users/stapi/OneDrive/Desktop/GD32VW553/GD32VW55X_Wifi_BLE_SDK/GD32VW55x_RELEASE_V1.0.2/MSDK/lwip/libcoap-4.3.4/src\coap_uri.c ****     ++p;
 683              		.loc 1 254 6 is_stmt 0
 684 0384 E38F04EE 		beq	s1,zero,.L86
 685              	.LVL77:
 686              	.L42:
 254:C:/Users/stapi/OneDrive/Desktop/GD32VW553/GD32VW55X_Wifi_BLE_SDK/GD32VW55x_RELEASE_V1.0.2/MSDK/lwip/libcoap-4.3.4/src\coap_uri.c ****     ++p;
 687              		.loc 1 254 11 discriminator 1
 688 0388 03470400 		lbu	a4,0(s0)
 689 038c 9307F003 		li	a5,63
 690 0390 E314F7D4 		bne	a4,a5,.L84
 255:C:/Users/stapi/OneDrive/Desktop/GD32VW553/GD32VW55X_Wifi_BLE_SDK/GD32VW55x_RELEASE_V1.0.2/MSDK/lwip/libcoap-4.3.4/src\coap_uri.c ****     --len;
 691              		.loc 1 255 5 is_stmt 1
 692              	.LVL78:
 256:C:/Users/stapi/OneDrive/Desktop/GD32VW553/GD32VW55X_Wifi_BLE_SDK/GD32VW55x_RELEASE_V1.0.2/MSDK/lwip/libcoap-4.3.4/src\coap_uri.c ****     COAP_SET_STR(&uri->query, len, p);
 693              		.loc 1 256 5
 257:C:/Users/stapi/OneDrive/Desktop/GD32VW553/GD32VW55X_Wifi_BLE_SDK/GD32VW55x_RELEASE_V1.0.2/MSDK/lwip/libcoap-4.3.4/src\coap_uri.c ****     len = 0;
 694              		.loc 1 257 5
 256:C:/Users/stapi/OneDrive/Desktop/GD32VW553/GD32VW55X_Wifi_BLE_SDK/GD32VW55x_RELEASE_V1.0.2/MSDK/lwip/libcoap-4.3.4/src\coap_uri.c ****     COAP_SET_STR(&uri->query, len, p);
 695              		.loc 1 256 5 is_stmt 0
 696 0394 FD14     		addi	s1,s1,-1
 697              	.LVL79:
 255:C:/Users/stapi/OneDrive/Desktop/GD32VW553/GD32VW55X_Wifi_BLE_SDK/GD32VW55x_RELEASE_V1.0.2/MSDK/lwip/libcoap-4.3.4/src\coap_uri.c ****     --len;
 698              		.loc 1 255 5
 699 0396 0504     		addi	s0,s0,1
 700              	.LVL80:
 257:C:/Users/stapi/OneDrive/Desktop/GD32VW553/GD32VW55X_Wifi_BLE_SDK/GD32VW55x_RELEASE_V1.0.2/MSDK/lwip/libcoap-4.3.4/src\coap_uri.c ****     len = 0;
 701              		.loc 1 257 5
 702 0398 232A9900 		sw	s1,20(s2)
 703 039c 232C8900 		sw	s0,24(s2)
 704 03a0 CDB5     		j	.L86
 705              	.LVL81:
 706              	.L36:
 217:C:/Users/stapi/OneDrive/Desktop/GD32VW553/GD32VW55X_Wifi_BLE_SDK/GD32VW55x_RELEASE_V1.0.2/MSDK/lwip/libcoap-4.3.4/src\coap_uri.c ****       int uri_port = 0;
 707              		.loc 1 217 5 is_stmt 1
 217:C:/Users/stapi/OneDrive/Desktop/GD32VW553/GD32VW55X_Wifi_BLE_SDK/GD32VW55x_RELEASE_V1.0.2/MSDK/lwip/libcoap-4.3.4/src\coap_uri.c ****       int uri_port = 0;
 708              		.loc 1 217 8 is_stmt 0
 709 03a2 E368F4F8 		bgtu	a5,s0,.L50
 710 03a6 F1BD     		j	.L86
 711              		.cfi_endproc
 712              	.LFE32:
 714              		.section	.rodata.write_option.str1.4,"aMS",@progbits,1
 715              		.align	2
 716              	.LC8:
 717 0000 73746174 		.string	"state"
 717      6500
 718 0006 0000     		.align	2
 719              	.LC9:
 720 0008 433A2F55 		.string	"C:/Users/stapi/OneDrive/Desktop/GD32VW553/GD32VW55X_Wifi_BLE_SDK/GD32VW55x_RELEASE_V1.0.2
 720      73657273 
 720      2F737461 
 720      70692F4F 
 720      6E654472 
 721 0089 000000   		.align	2
 722              	.LC10:
 723 008c 6D616B65 		.string	"make_decoded_option(): buflen is 0!\n"
 723      5F646563 
 723      6F646564 
 723      5F6F7074 
 723      696F6E28 
 724 00b1 000000   		.align	2
 725              	.LC11:
 726 00b4 77726974 		.string	"written <= buflen"
 726      74656E20 
 726      3C3D2062 
 726      75666C65 
 726      6E00
 727 00c6 0000     		.align	2
 728              	.LC12:
 729 00c8 62756666 		.string	"buffer too small for option\n"
 729      65722074 
 729      6F6F2073 
 729      6D616C6C 
 729      20666F72 
 730              		.section	.text.write_option,"ax",@progbits
 731              		.align	1
 733              	write_option:
 734              	.LFB42:
 267:C:/Users/stapi/OneDrive/Desktop/GD32VW553/GD32VW55X_Wifi_BLE_SDK/GD32VW55x_RELEASE_V1.0.2/MSDK/lwip/libcoap-4.3.4/src\coap_uri.c **** 
 268:C:/Users/stapi/OneDrive/Desktop/GD32VW553/GD32VW55X_Wifi_BLE_SDK/GD32VW55x_RELEASE_V1.0.2/MSDK/lwip/libcoap-4.3.4/src\coap_uri.c **** int
 269:C:/Users/stapi/OneDrive/Desktop/GD32VW553/GD32VW55X_Wifi_BLE_SDK/GD32VW55x_RELEASE_V1.0.2/MSDK/lwip/libcoap-4.3.4/src\coap_uri.c **** coap_split_uri(const uint8_t *str_var, size_t len, coap_uri_t *uri) {
 270:C:/Users/stapi/OneDrive/Desktop/GD32VW553/GD32VW55X_Wifi_BLE_SDK/GD32VW55x_RELEASE_V1.0.2/MSDK/lwip/libcoap-4.3.4/src\coap_uri.c ****   return coap_split_uri_sub(str_var, len, uri, COAP_URI_CHECK_URI);
 271:C:/Users/stapi/OneDrive/Desktop/GD32VW553/GD32VW55X_Wifi_BLE_SDK/GD32VW55x_RELEASE_V1.0.2/MSDK/lwip/libcoap-4.3.4/src\coap_uri.c **** }
 272:C:/Users/stapi/OneDrive/Desktop/GD32VW553/GD32VW55X_Wifi_BLE_SDK/GD32VW55x_RELEASE_V1.0.2/MSDK/lwip/libcoap-4.3.4/src\coap_uri.c **** 
 273:C:/Users/stapi/OneDrive/Desktop/GD32VW553/GD32VW55X_Wifi_BLE_SDK/GD32VW55x_RELEASE_V1.0.2/MSDK/lwip/libcoap-4.3.4/src\coap_uri.c **** int
 274:C:/Users/stapi/OneDrive/Desktop/GD32VW553/GD32VW55X_Wifi_BLE_SDK/GD32VW55x_RELEASE_V1.0.2/MSDK/lwip/libcoap-4.3.4/src\coap_uri.c **** coap_split_proxy_uri(const uint8_t *str_var, size_t len, coap_uri_t *uri) {
 275:C:/Users/stapi/OneDrive/Desktop/GD32VW553/GD32VW55X_Wifi_BLE_SDK/GD32VW55x_RELEASE_V1.0.2/MSDK/lwip/libcoap-4.3.4/src\coap_uri.c ****   return coap_split_uri_sub(str_var, len, uri, COAP_URI_CHECK_PROXY);
 276:C:/Users/stapi/OneDrive/Desktop/GD32VW553/GD32VW55X_Wifi_BLE_SDK/GD32VW55x_RELEASE_V1.0.2/MSDK/lwip/libcoap-4.3.4/src\coap_uri.c **** }
 277:C:/Users/stapi/OneDrive/Desktop/GD32VW553/GD32VW55X_Wifi_BLE_SDK/GD32VW55x_RELEASE_V1.0.2/MSDK/lwip/libcoap-4.3.4/src\coap_uri.c **** 
 278:C:/Users/stapi/OneDrive/Desktop/GD32VW553/GD32VW55X_Wifi_BLE_SDK/GD32VW55x_RELEASE_V1.0.2/MSDK/lwip/libcoap-4.3.4/src\coap_uri.c **** int
 279:C:/Users/stapi/OneDrive/Desktop/GD32VW553/GD32VW55X_Wifi_BLE_SDK/GD32VW55x_RELEASE_V1.0.2/MSDK/lwip/libcoap-4.3.4/src\coap_uri.c **** coap_uri_into_options(const coap_uri_t *uri, const coap_address_t *dst,
 280:C:/Users/stapi/OneDrive/Desktop/GD32VW553/GD32VW55X_Wifi_BLE_SDK/GD32VW55x_RELEASE_V1.0.2/MSDK/lwip/libcoap-4.3.4/src\coap_uri.c ****                       coap_optlist_t **optlist_chain, int create_port_host_opt,
 281:C:/Users/stapi/OneDrive/Desktop/GD32VW553/GD32VW55X_Wifi_BLE_SDK/GD32VW55x_RELEASE_V1.0.2/MSDK/lwip/libcoap-4.3.4/src\coap_uri.c ****                       uint8_t *_buf, size_t _buflen) {
 282:C:/Users/stapi/OneDrive/Desktop/GD32VW553/GD32VW55X_Wifi_BLE_SDK/GD32VW55x_RELEASE_V1.0.2/MSDK/lwip/libcoap-4.3.4/src\coap_uri.c ****   int res;
 283:C:/Users/stapi/OneDrive/Desktop/GD32VW553/GD32VW55X_Wifi_BLE_SDK/GD32VW55x_RELEASE_V1.0.2/MSDK/lwip/libcoap-4.3.4/src\coap_uri.c ****   unsigned char *buf = _buf;
 284:C:/Users/stapi/OneDrive/Desktop/GD32VW553/GD32VW55X_Wifi_BLE_SDK/GD32VW55x_RELEASE_V1.0.2/MSDK/lwip/libcoap-4.3.4/src\coap_uri.c ****   size_t buflen = _buflen;
 285:C:/Users/stapi/OneDrive/Desktop/GD32VW553/GD32VW55X_Wifi_BLE_SDK/GD32VW55x_RELEASE_V1.0.2/MSDK/lwip/libcoap-4.3.4/src\coap_uri.c **** 
 286:C:/Users/stapi/OneDrive/Desktop/GD32VW553/GD32VW55X_Wifi_BLE_SDK/GD32VW55x_RELEASE_V1.0.2/MSDK/lwip/libcoap-4.3.4/src\coap_uri.c ****   if (create_port_host_opt && !coap_host_is_unix_domain(&uri->host)) {
 287:C:/Users/stapi/OneDrive/Desktop/GD32VW553/GD32VW55X_Wifi_BLE_SDK/GD32VW55x_RELEASE_V1.0.2/MSDK/lwip/libcoap-4.3.4/src\coap_uri.c ****     int add_option = 0;
 288:C:/Users/stapi/OneDrive/Desktop/GD32VW553/GD32VW55X_Wifi_BLE_SDK/GD32VW55x_RELEASE_V1.0.2/MSDK/lwip/libcoap-4.3.4/src\coap_uri.c **** 
 289:C:/Users/stapi/OneDrive/Desktop/GD32VW553/GD32VW55X_Wifi_BLE_SDK/GD32VW55x_RELEASE_V1.0.2/MSDK/lwip/libcoap-4.3.4/src\coap_uri.c ****     if (dst && uri->host.length) {
 290:C:/Users/stapi/OneDrive/Desktop/GD32VW553/GD32VW55X_Wifi_BLE_SDK/GD32VW55x_RELEASE_V1.0.2/MSDK/lwip/libcoap-4.3.4/src\coap_uri.c **** #if !defined(WITH_LWIP) && !defined(WITH_CONTIKI)
 291:C:/Users/stapi/OneDrive/Desktop/GD32VW553/GD32VW55X_Wifi_BLE_SDK/GD32VW55x_RELEASE_V1.0.2/MSDK/lwip/libcoap-4.3.4/src\coap_uri.c ****       char addr[INET6_ADDRSTRLEN];
 292:C:/Users/stapi/OneDrive/Desktop/GD32VW553/GD32VW55X_Wifi_BLE_SDK/GD32VW55x_RELEASE_V1.0.2/MSDK/lwip/libcoap-4.3.4/src\coap_uri.c **** #else /* WITH_LWIP || WITH_CONTIKI */
 293:C:/Users/stapi/OneDrive/Desktop/GD32VW553/GD32VW55X_Wifi_BLE_SDK/GD32VW55x_RELEASE_V1.0.2/MSDK/lwip/libcoap-4.3.4/src\coap_uri.c ****       char addr[40];
 294:C:/Users/stapi/OneDrive/Desktop/GD32VW553/GD32VW55X_Wifi_BLE_SDK/GD32VW55x_RELEASE_V1.0.2/MSDK/lwip/libcoap-4.3.4/src\coap_uri.c **** #endif /* WITH_LWIP || WITH_CONTIKI */
 295:C:/Users/stapi/OneDrive/Desktop/GD32VW553/GD32VW55X_Wifi_BLE_SDK/GD32VW55x_RELEASE_V1.0.2/MSDK/lwip/libcoap-4.3.4/src\coap_uri.c **** 
 296:C:/Users/stapi/OneDrive/Desktop/GD32VW553/GD32VW55X_Wifi_BLE_SDK/GD32VW55x_RELEASE_V1.0.2/MSDK/lwip/libcoap-4.3.4/src\coap_uri.c ****       /* Add in UriHost if not match (need to strip off &iface) */
 297:C:/Users/stapi/OneDrive/Desktop/GD32VW553/GD32VW55X_Wifi_BLE_SDK/GD32VW55x_RELEASE_V1.0.2/MSDK/lwip/libcoap-4.3.4/src\coap_uri.c ****       size_t uri_host_len = uri->host.length;
 298:C:/Users/stapi/OneDrive/Desktop/GD32VW553/GD32VW55X_Wifi_BLE_SDK/GD32VW55x_RELEASE_V1.0.2/MSDK/lwip/libcoap-4.3.4/src\coap_uri.c ****       const uint8_t *cp = uri->host.s;
 299:C:/Users/stapi/OneDrive/Desktop/GD32VW553/GD32VW55X_Wifi_BLE_SDK/GD32VW55x_RELEASE_V1.0.2/MSDK/lwip/libcoap-4.3.4/src\coap_uri.c **** 
 300:C:/Users/stapi/OneDrive/Desktop/GD32VW553/GD32VW55X_Wifi_BLE_SDK/GD32VW55x_RELEASE_V1.0.2/MSDK/lwip/libcoap-4.3.4/src\coap_uri.c ****       /* Unfortunately not null terminated */
 301:C:/Users/stapi/OneDrive/Desktop/GD32VW553/GD32VW55X_Wifi_BLE_SDK/GD32VW55x_RELEASE_V1.0.2/MSDK/lwip/libcoap-4.3.4/src\coap_uri.c ****       for (size_t i = 0; i < uri_host_len; i++) {
 302:C:/Users/stapi/OneDrive/Desktop/GD32VW553/GD32VW55X_Wifi_BLE_SDK/GD32VW55x_RELEASE_V1.0.2/MSDK/lwip/libcoap-4.3.4/src\coap_uri.c ****         if (cp[i] == '%') {
 303:C:/Users/stapi/OneDrive/Desktop/GD32VW553/GD32VW55X_Wifi_BLE_SDK/GD32VW55x_RELEASE_V1.0.2/MSDK/lwip/libcoap-4.3.4/src\coap_uri.c ****           /* %iface specified in host name */
 304:C:/Users/stapi/OneDrive/Desktop/GD32VW553/GD32VW55X_Wifi_BLE_SDK/GD32VW55x_RELEASE_V1.0.2/MSDK/lwip/libcoap-4.3.4/src\coap_uri.c ****           uri_host_len = i;
 305:C:/Users/stapi/OneDrive/Desktop/GD32VW553/GD32VW55X_Wifi_BLE_SDK/GD32VW55x_RELEASE_V1.0.2/MSDK/lwip/libcoap-4.3.4/src\coap_uri.c ****           break;
 306:C:/Users/stapi/OneDrive/Desktop/GD32VW553/GD32VW55X_Wifi_BLE_SDK/GD32VW55x_RELEASE_V1.0.2/MSDK/lwip/libcoap-4.3.4/src\coap_uri.c ****         }
 307:C:/Users/stapi/OneDrive/Desktop/GD32VW553/GD32VW55X_Wifi_BLE_SDK/GD32VW55x_RELEASE_V1.0.2/MSDK/lwip/libcoap-4.3.4/src\coap_uri.c ****       }
 308:C:/Users/stapi/OneDrive/Desktop/GD32VW553/GD32VW55X_Wifi_BLE_SDK/GD32VW55x_RELEASE_V1.0.2/MSDK/lwip/libcoap-4.3.4/src\coap_uri.c **** 
 309:C:/Users/stapi/OneDrive/Desktop/GD32VW553/GD32VW55X_Wifi_BLE_SDK/GD32VW55x_RELEASE_V1.0.2/MSDK/lwip/libcoap-4.3.4/src\coap_uri.c ****       if (coap_print_ip_addr(dst, addr, sizeof(addr)) &&
 310:C:/Users/stapi/OneDrive/Desktop/GD32VW553/GD32VW55X_Wifi_BLE_SDK/GD32VW55x_RELEASE_V1.0.2/MSDK/lwip/libcoap-4.3.4/src\coap_uri.c ****           (strlen(addr) != uri_host_len ||
 311:C:/Users/stapi/OneDrive/Desktop/GD32VW553/GD32VW55X_Wifi_BLE_SDK/GD32VW55x_RELEASE_V1.0.2/MSDK/lwip/libcoap-4.3.4/src\coap_uri.c ****            memcmp(addr, uri->host.s, uri_host_len) != 0)) {
 312:C:/Users/stapi/OneDrive/Desktop/GD32VW553/GD32VW55X_Wifi_BLE_SDK/GD32VW55x_RELEASE_V1.0.2/MSDK/lwip/libcoap-4.3.4/src\coap_uri.c ****         /* add Uri-Host */
 313:C:/Users/stapi/OneDrive/Desktop/GD32VW553/GD32VW55X_Wifi_BLE_SDK/GD32VW55x_RELEASE_V1.0.2/MSDK/lwip/libcoap-4.3.4/src\coap_uri.c ****         coap_insert_optlist(optlist_chain,
 314:C:/Users/stapi/OneDrive/Desktop/GD32VW553/GD32VW55X_Wifi_BLE_SDK/GD32VW55x_RELEASE_V1.0.2/MSDK/lwip/libcoap-4.3.4/src\coap_uri.c ****                             coap_new_optlist(COAP_OPTION_URI_HOST,
 315:C:/Users/stapi/OneDrive/Desktop/GD32VW553/GD32VW55X_Wifi_BLE_SDK/GD32VW55x_RELEASE_V1.0.2/MSDK/lwip/libcoap-4.3.4/src\coap_uri.c ****                                              uri->host.length,
 316:C:/Users/stapi/OneDrive/Desktop/GD32VW553/GD32VW55X_Wifi_BLE_SDK/GD32VW55x_RELEASE_V1.0.2/MSDK/lwip/libcoap-4.3.4/src\coap_uri.c ****                                              uri->host.s));
 317:C:/Users/stapi/OneDrive/Desktop/GD32VW553/GD32VW55X_Wifi_BLE_SDK/GD32VW55x_RELEASE_V1.0.2/MSDK/lwip/libcoap-4.3.4/src\coap_uri.c ****       }
 318:C:/Users/stapi/OneDrive/Desktop/GD32VW553/GD32VW55X_Wifi_BLE_SDK/GD32VW55x_RELEASE_V1.0.2/MSDK/lwip/libcoap-4.3.4/src\coap_uri.c ****     }
 319:C:/Users/stapi/OneDrive/Desktop/GD32VW553/GD32VW55X_Wifi_BLE_SDK/GD32VW55x_RELEASE_V1.0.2/MSDK/lwip/libcoap-4.3.4/src\coap_uri.c ****     /* Add in UriPort if not default */
 320:C:/Users/stapi/OneDrive/Desktop/GD32VW553/GD32VW55X_Wifi_BLE_SDK/GD32VW55x_RELEASE_V1.0.2/MSDK/lwip/libcoap-4.3.4/src\coap_uri.c ****     switch ((int)uri->scheme) {
 321:C:/Users/stapi/OneDrive/Desktop/GD32VW553/GD32VW55X_Wifi_BLE_SDK/GD32VW55x_RELEASE_V1.0.2/MSDK/lwip/libcoap-4.3.4/src\coap_uri.c ****     case COAP_URI_SCHEME_HTTP:
 322:C:/Users/stapi/OneDrive/Desktop/GD32VW553/GD32VW55X_Wifi_BLE_SDK/GD32VW55x_RELEASE_V1.0.2/MSDK/lwip/libcoap-4.3.4/src\coap_uri.c ****     case COAP_URI_SCHEME_COAP_WS:
 323:C:/Users/stapi/OneDrive/Desktop/GD32VW553/GD32VW55X_Wifi_BLE_SDK/GD32VW55x_RELEASE_V1.0.2/MSDK/lwip/libcoap-4.3.4/src\coap_uri.c ****       if (uri->port != 80)
 324:C:/Users/stapi/OneDrive/Desktop/GD32VW553/GD32VW55X_Wifi_BLE_SDK/GD32VW55x_RELEASE_V1.0.2/MSDK/lwip/libcoap-4.3.4/src\coap_uri.c ****         add_option = 1;
 325:C:/Users/stapi/OneDrive/Desktop/GD32VW553/GD32VW55X_Wifi_BLE_SDK/GD32VW55x_RELEASE_V1.0.2/MSDK/lwip/libcoap-4.3.4/src\coap_uri.c ****       break;
 326:C:/Users/stapi/OneDrive/Desktop/GD32VW553/GD32VW55X_Wifi_BLE_SDK/GD32VW55x_RELEASE_V1.0.2/MSDK/lwip/libcoap-4.3.4/src\coap_uri.c ****     case COAP_URI_SCHEME_HTTPS:
 327:C:/Users/stapi/OneDrive/Desktop/GD32VW553/GD32VW55X_Wifi_BLE_SDK/GD32VW55x_RELEASE_V1.0.2/MSDK/lwip/libcoap-4.3.4/src\coap_uri.c ****     case COAP_URI_SCHEME_COAPS_WS:
 328:C:/Users/stapi/OneDrive/Desktop/GD32VW553/GD32VW55X_Wifi_BLE_SDK/GD32VW55x_RELEASE_V1.0.2/MSDK/lwip/libcoap-4.3.4/src\coap_uri.c ****       if (uri->port != 443)
 329:C:/Users/stapi/OneDrive/Desktop/GD32VW553/GD32VW55X_Wifi_BLE_SDK/GD32VW55x_RELEASE_V1.0.2/MSDK/lwip/libcoap-4.3.4/src\coap_uri.c ****         add_option = 1;
 330:C:/Users/stapi/OneDrive/Desktop/GD32VW553/GD32VW55X_Wifi_BLE_SDK/GD32VW55x_RELEASE_V1.0.2/MSDK/lwip/libcoap-4.3.4/src\coap_uri.c ****       break;
 331:C:/Users/stapi/OneDrive/Desktop/GD32VW553/GD32VW55X_Wifi_BLE_SDK/GD32VW55x_RELEASE_V1.0.2/MSDK/lwip/libcoap-4.3.4/src\coap_uri.c ****     default:
 332:C:/Users/stapi/OneDrive/Desktop/GD32VW553/GD32VW55X_Wifi_BLE_SDK/GD32VW55x_RELEASE_V1.0.2/MSDK/lwip/libcoap-4.3.4/src\coap_uri.c ****       if (uri->port != (coap_uri_scheme_is_secure(uri) ? COAPS_DEFAULT_PORT :
 333:C:/Users/stapi/OneDrive/Desktop/GD32VW553/GD32VW55X_Wifi_BLE_SDK/GD32VW55x_RELEASE_V1.0.2/MSDK/lwip/libcoap-4.3.4/src\coap_uri.c ****                         COAP_DEFAULT_PORT))
 334:C:/Users/stapi/OneDrive/Desktop/GD32VW553/GD32VW55X_Wifi_BLE_SDK/GD32VW55x_RELEASE_V1.0.2/MSDK/lwip/libcoap-4.3.4/src\coap_uri.c ****         add_option = 1;
 335:C:/Users/stapi/OneDrive/Desktop/GD32VW553/GD32VW55X_Wifi_BLE_SDK/GD32VW55x_RELEASE_V1.0.2/MSDK/lwip/libcoap-4.3.4/src\coap_uri.c ****       break;
 336:C:/Users/stapi/OneDrive/Desktop/GD32VW553/GD32VW55X_Wifi_BLE_SDK/GD32VW55x_RELEASE_V1.0.2/MSDK/lwip/libcoap-4.3.4/src\coap_uri.c ****     }
 337:C:/Users/stapi/OneDrive/Desktop/GD32VW553/GD32VW55X_Wifi_BLE_SDK/GD32VW55x_RELEASE_V1.0.2/MSDK/lwip/libcoap-4.3.4/src\coap_uri.c ****     if (add_option)
 338:C:/Users/stapi/OneDrive/Desktop/GD32VW553/GD32VW55X_Wifi_BLE_SDK/GD32VW55x_RELEASE_V1.0.2/MSDK/lwip/libcoap-4.3.4/src\coap_uri.c ****       coap_insert_optlist(optlist_chain,
 339:C:/Users/stapi/OneDrive/Desktop/GD32VW553/GD32VW55X_Wifi_BLE_SDK/GD32VW55x_RELEASE_V1.0.2/MSDK/lwip/libcoap-4.3.4/src\coap_uri.c ****                           coap_new_optlist(COAP_OPTION_URI_PORT,
 340:C:/Users/stapi/OneDrive/Desktop/GD32VW553/GD32VW55X_Wifi_BLE_SDK/GD32VW55x_RELEASE_V1.0.2/MSDK/lwip/libcoap-4.3.4/src\coap_uri.c ****                                            coap_encode_var_safe(buf, 4,
 341:C:/Users/stapi/OneDrive/Desktop/GD32VW553/GD32VW55X_Wifi_BLE_SDK/GD32VW55x_RELEASE_V1.0.2/MSDK/lwip/libcoap-4.3.4/src\coap_uri.c ****                                                                 (uri->port & 0xffff)),
 342:C:/Users/stapi/OneDrive/Desktop/GD32VW553/GD32VW55X_Wifi_BLE_SDK/GD32VW55x_RELEASE_V1.0.2/MSDK/lwip/libcoap-4.3.4/src\coap_uri.c ****                                            buf));
 343:C:/Users/stapi/OneDrive/Desktop/GD32VW553/GD32VW55X_Wifi_BLE_SDK/GD32VW55x_RELEASE_V1.0.2/MSDK/lwip/libcoap-4.3.4/src\coap_uri.c ****   }
 344:C:/Users/stapi/OneDrive/Desktop/GD32VW553/GD32VW55X_Wifi_BLE_SDK/GD32VW55x_RELEASE_V1.0.2/MSDK/lwip/libcoap-4.3.4/src\coap_uri.c **** 
 345:C:/Users/stapi/OneDrive/Desktop/GD32VW553/GD32VW55X_Wifi_BLE_SDK/GD32VW55x_RELEASE_V1.0.2/MSDK/lwip/libcoap-4.3.4/src\coap_uri.c ****   if (uri->path.length) {
 346:C:/Users/stapi/OneDrive/Desktop/GD32VW553/GD32VW55X_Wifi_BLE_SDK/GD32VW55x_RELEASE_V1.0.2/MSDK/lwip/libcoap-4.3.4/src\coap_uri.c ****     if (uri->path.length > buflen)
 347:C:/Users/stapi/OneDrive/Desktop/GD32VW553/GD32VW55X_Wifi_BLE_SDK/GD32VW55x_RELEASE_V1.0.2/MSDK/lwip/libcoap-4.3.4/src\coap_uri.c ****       coap_log_warn("URI path will be truncated (max buffer %zu)\n",
 348:C:/Users/stapi/OneDrive/Desktop/GD32VW553/GD32VW55X_Wifi_BLE_SDK/GD32VW55x_RELEASE_V1.0.2/MSDK/lwip/libcoap-4.3.4/src\coap_uri.c ****                     buflen);
 349:C:/Users/stapi/OneDrive/Desktop/GD32VW553/GD32VW55X_Wifi_BLE_SDK/GD32VW55x_RELEASE_V1.0.2/MSDK/lwip/libcoap-4.3.4/src\coap_uri.c ****     res = coap_split_path(uri->path.s, uri->path.length, buf, &buflen);
 350:C:/Users/stapi/OneDrive/Desktop/GD32VW553/GD32VW55X_Wifi_BLE_SDK/GD32VW55x_RELEASE_V1.0.2/MSDK/lwip/libcoap-4.3.4/src\coap_uri.c ****     if (res < 0)
 351:C:/Users/stapi/OneDrive/Desktop/GD32VW553/GD32VW55X_Wifi_BLE_SDK/GD32VW55x_RELEASE_V1.0.2/MSDK/lwip/libcoap-4.3.4/src\coap_uri.c ****       return -1;
 352:C:/Users/stapi/OneDrive/Desktop/GD32VW553/GD32VW55X_Wifi_BLE_SDK/GD32VW55x_RELEASE_V1.0.2/MSDK/lwip/libcoap-4.3.4/src\coap_uri.c **** 
 353:C:/Users/stapi/OneDrive/Desktop/GD32VW553/GD32VW55X_Wifi_BLE_SDK/GD32VW55x_RELEASE_V1.0.2/MSDK/lwip/libcoap-4.3.4/src\coap_uri.c ****     while (res--) {
 354:C:/Users/stapi/OneDrive/Desktop/GD32VW553/GD32VW55X_Wifi_BLE_SDK/GD32VW55x_RELEASE_V1.0.2/MSDK/lwip/libcoap-4.3.4/src\coap_uri.c ****       coap_insert_optlist(optlist_chain,
 355:C:/Users/stapi/OneDrive/Desktop/GD32VW553/GD32VW55X_Wifi_BLE_SDK/GD32VW55x_RELEASE_V1.0.2/MSDK/lwip/libcoap-4.3.4/src\coap_uri.c ****                           coap_new_optlist(COAP_OPTION_URI_PATH,
 356:C:/Users/stapi/OneDrive/Desktop/GD32VW553/GD32VW55X_Wifi_BLE_SDK/GD32VW55x_RELEASE_V1.0.2/MSDK/lwip/libcoap-4.3.4/src\coap_uri.c ****                                            coap_opt_length(buf),
 357:C:/Users/stapi/OneDrive/Desktop/GD32VW553/GD32VW55X_Wifi_BLE_SDK/GD32VW55x_RELEASE_V1.0.2/MSDK/lwip/libcoap-4.3.4/src\coap_uri.c ****                                            coap_opt_value(buf)));
 358:C:/Users/stapi/OneDrive/Desktop/GD32VW553/GD32VW55X_Wifi_BLE_SDK/GD32VW55x_RELEASE_V1.0.2/MSDK/lwip/libcoap-4.3.4/src\coap_uri.c **** 
 359:C:/Users/stapi/OneDrive/Desktop/GD32VW553/GD32VW55X_Wifi_BLE_SDK/GD32VW55x_RELEASE_V1.0.2/MSDK/lwip/libcoap-4.3.4/src\coap_uri.c ****       buf += coap_opt_size(buf);
 360:C:/Users/stapi/OneDrive/Desktop/GD32VW553/GD32VW55X_Wifi_BLE_SDK/GD32VW55x_RELEASE_V1.0.2/MSDK/lwip/libcoap-4.3.4/src\coap_uri.c ****     }
 361:C:/Users/stapi/OneDrive/Desktop/GD32VW553/GD32VW55X_Wifi_BLE_SDK/GD32VW55x_RELEASE_V1.0.2/MSDK/lwip/libcoap-4.3.4/src\coap_uri.c ****   }
 362:C:/Users/stapi/OneDrive/Desktop/GD32VW553/GD32VW55X_Wifi_BLE_SDK/GD32VW55x_RELEASE_V1.0.2/MSDK/lwip/libcoap-4.3.4/src\coap_uri.c **** 
 363:C:/Users/stapi/OneDrive/Desktop/GD32VW553/GD32VW55X_Wifi_BLE_SDK/GD32VW55x_RELEASE_V1.0.2/MSDK/lwip/libcoap-4.3.4/src\coap_uri.c ****   if (uri->query.length) {
 364:C:/Users/stapi/OneDrive/Desktop/GD32VW553/GD32VW55X_Wifi_BLE_SDK/GD32VW55x_RELEASE_V1.0.2/MSDK/lwip/libcoap-4.3.4/src\coap_uri.c ****     buflen = _buflen;
 365:C:/Users/stapi/OneDrive/Desktop/GD32VW553/GD32VW55X_Wifi_BLE_SDK/GD32VW55x_RELEASE_V1.0.2/MSDK/lwip/libcoap-4.3.4/src\coap_uri.c ****     buf = _buf;
 366:C:/Users/stapi/OneDrive/Desktop/GD32VW553/GD32VW55X_Wifi_BLE_SDK/GD32VW55x_RELEASE_V1.0.2/MSDK/lwip/libcoap-4.3.4/src\coap_uri.c ****     if (uri->query.length > buflen)
 367:C:/Users/stapi/OneDrive/Desktop/GD32VW553/GD32VW55X_Wifi_BLE_SDK/GD32VW55x_RELEASE_V1.0.2/MSDK/lwip/libcoap-4.3.4/src\coap_uri.c ****       coap_log_warn("URI query will be truncated (max buffer %zu)\n",
 368:C:/Users/stapi/OneDrive/Desktop/GD32VW553/GD32VW55X_Wifi_BLE_SDK/GD32VW55x_RELEASE_V1.0.2/MSDK/lwip/libcoap-4.3.4/src\coap_uri.c ****                     buflen);
 369:C:/Users/stapi/OneDrive/Desktop/GD32VW553/GD32VW55X_Wifi_BLE_SDK/GD32VW55x_RELEASE_V1.0.2/MSDK/lwip/libcoap-4.3.4/src\coap_uri.c ****     res = coap_split_query(uri->query.s, uri->query.length, buf, &buflen);
 370:C:/Users/stapi/OneDrive/Desktop/GD32VW553/GD32VW55X_Wifi_BLE_SDK/GD32VW55x_RELEASE_V1.0.2/MSDK/lwip/libcoap-4.3.4/src\coap_uri.c ****     if (res < 0)
 371:C:/Users/stapi/OneDrive/Desktop/GD32VW553/GD32VW55X_Wifi_BLE_SDK/GD32VW55x_RELEASE_V1.0.2/MSDK/lwip/libcoap-4.3.4/src\coap_uri.c ****       return -1;
 372:C:/Users/stapi/OneDrive/Desktop/GD32VW553/GD32VW55X_Wifi_BLE_SDK/GD32VW55x_RELEASE_V1.0.2/MSDK/lwip/libcoap-4.3.4/src\coap_uri.c **** 
 373:C:/Users/stapi/OneDrive/Desktop/GD32VW553/GD32VW55X_Wifi_BLE_SDK/GD32VW55x_RELEASE_V1.0.2/MSDK/lwip/libcoap-4.3.4/src\coap_uri.c ****     while (res--) {
 374:C:/Users/stapi/OneDrive/Desktop/GD32VW553/GD32VW55X_Wifi_BLE_SDK/GD32VW55x_RELEASE_V1.0.2/MSDK/lwip/libcoap-4.3.4/src\coap_uri.c ****       coap_insert_optlist(optlist_chain,
 375:C:/Users/stapi/OneDrive/Desktop/GD32VW553/GD32VW55X_Wifi_BLE_SDK/GD32VW55x_RELEASE_V1.0.2/MSDK/lwip/libcoap-4.3.4/src\coap_uri.c ****                           coap_new_optlist(COAP_OPTION_URI_QUERY,
 376:C:/Users/stapi/OneDrive/Desktop/GD32VW553/GD32VW55X_Wifi_BLE_SDK/GD32VW55x_RELEASE_V1.0.2/MSDK/lwip/libcoap-4.3.4/src\coap_uri.c ****                                            coap_opt_length(buf),
 377:C:/Users/stapi/OneDrive/Desktop/GD32VW553/GD32VW55X_Wifi_BLE_SDK/GD32VW55x_RELEASE_V1.0.2/MSDK/lwip/libcoap-4.3.4/src\coap_uri.c ****                                            coap_opt_value(buf)));
 378:C:/Users/stapi/OneDrive/Desktop/GD32VW553/GD32VW55X_Wifi_BLE_SDK/GD32VW55x_RELEASE_V1.0.2/MSDK/lwip/libcoap-4.3.4/src\coap_uri.c **** 
 379:C:/Users/stapi/OneDrive/Desktop/GD32VW553/GD32VW55X_Wifi_BLE_SDK/GD32VW55x_RELEASE_V1.0.2/MSDK/lwip/libcoap-4.3.4/src\coap_uri.c ****       buf += coap_opt_size(buf);
 380:C:/Users/stapi/OneDrive/Desktop/GD32VW553/GD32VW55X_Wifi_BLE_SDK/GD32VW55x_RELEASE_V1.0.2/MSDK/lwip/libcoap-4.3.4/src\coap_uri.c ****     }
 381:C:/Users/stapi/OneDrive/Desktop/GD32VW553/GD32VW55X_Wifi_BLE_SDK/GD32VW55x_RELEASE_V1.0.2/MSDK/lwip/libcoap-4.3.4/src\coap_uri.c ****   }
 382:C:/Users/stapi/OneDrive/Desktop/GD32VW553/GD32VW55X_Wifi_BLE_SDK/GD32VW55x_RELEASE_V1.0.2/MSDK/lwip/libcoap-4.3.4/src\coap_uri.c ****   return 0;
 383:C:/Users/stapi/OneDrive/Desktop/GD32VW553/GD32VW55X_Wifi_BLE_SDK/GD32VW55x_RELEASE_V1.0.2/MSDK/lwip/libcoap-4.3.4/src\coap_uri.c **** }
 384:C:/Users/stapi/OneDrive/Desktop/GD32VW553/GD32VW55X_Wifi_BLE_SDK/GD32VW55x_RELEASE_V1.0.2/MSDK/lwip/libcoap-4.3.4/src\coap_uri.c **** 
 385:C:/Users/stapi/OneDrive/Desktop/GD32VW553/GD32VW55X_Wifi_BLE_SDK/GD32VW55x_RELEASE_V1.0.2/MSDK/lwip/libcoap-4.3.4/src\coap_uri.c **** int
 386:C:/Users/stapi/OneDrive/Desktop/GD32VW553/GD32VW55X_Wifi_BLE_SDK/GD32VW55x_RELEASE_V1.0.2/MSDK/lwip/libcoap-4.3.4/src\coap_uri.c **** coap_host_is_unix_domain(const coap_str_const_t *host) {
 387:C:/Users/stapi/OneDrive/Desktop/GD32VW553/GD32VW55X_Wifi_BLE_SDK/GD32VW55x_RELEASE_V1.0.2/MSDK/lwip/libcoap-4.3.4/src\coap_uri.c ****   if (host->length >= 3 && host->s[0] == '%' &&
 388:C:/Users/stapi/OneDrive/Desktop/GD32VW553/GD32VW55X_Wifi_BLE_SDK/GD32VW55x_RELEASE_V1.0.2/MSDK/lwip/libcoap-4.3.4/src\coap_uri.c ****       host->s[1] == '2' &&
 389:C:/Users/stapi/OneDrive/Desktop/GD32VW553/GD32VW55X_Wifi_BLE_SDK/GD32VW55x_RELEASE_V1.0.2/MSDK/lwip/libcoap-4.3.4/src\coap_uri.c ****       (host->s[2] == 'F' || host->s[2] == 'f')) {
 390:C:/Users/stapi/OneDrive/Desktop/GD32VW553/GD32VW55X_Wifi_BLE_SDK/GD32VW55x_RELEASE_V1.0.2/MSDK/lwip/libcoap-4.3.4/src\coap_uri.c ****     return 1;
 391:C:/Users/stapi/OneDrive/Desktop/GD32VW553/GD32VW55X_Wifi_BLE_SDK/GD32VW55x_RELEASE_V1.0.2/MSDK/lwip/libcoap-4.3.4/src\coap_uri.c ****   }
 392:C:/Users/stapi/OneDrive/Desktop/GD32VW553/GD32VW55X_Wifi_BLE_SDK/GD32VW55x_RELEASE_V1.0.2/MSDK/lwip/libcoap-4.3.4/src\coap_uri.c ****   if (host->length >= 1 && host->s[0] == '/')
 393:C:/Users/stapi/OneDrive/Desktop/GD32VW553/GD32VW55X_Wifi_BLE_SDK/GD32VW55x_RELEASE_V1.0.2/MSDK/lwip/libcoap-4.3.4/src\coap_uri.c ****     return 1;
 394:C:/Users/stapi/OneDrive/Desktop/GD32VW553/GD32VW55X_Wifi_BLE_SDK/GD32VW55x_RELEASE_V1.0.2/MSDK/lwip/libcoap-4.3.4/src\coap_uri.c ****   return 0;
 395:C:/Users/stapi/OneDrive/Desktop/GD32VW553/GD32VW55X_Wifi_BLE_SDK/GD32VW55x_RELEASE_V1.0.2/MSDK/lwip/libcoap-4.3.4/src\coap_uri.c **** }
 396:C:/Users/stapi/OneDrive/Desktop/GD32VW553/GD32VW55X_Wifi_BLE_SDK/GD32VW55x_RELEASE_V1.0.2/MSDK/lwip/libcoap-4.3.4/src\coap_uri.c **** 
 397:C:/Users/stapi/OneDrive/Desktop/GD32VW553/GD32VW55X_Wifi_BLE_SDK/GD32VW55x_RELEASE_V1.0.2/MSDK/lwip/libcoap-4.3.4/src\coap_uri.c **** /**
 398:C:/Users/stapi/OneDrive/Desktop/GD32VW553/GD32VW55X_Wifi_BLE_SDK/GD32VW55x_RELEASE_V1.0.2/MSDK/lwip/libcoap-4.3.4/src\coap_uri.c ****  * Calculates decimal value from hexadecimal ASCII character given in
 399:C:/Users/stapi/OneDrive/Desktop/GD32VW553/GD32VW55X_Wifi_BLE_SDK/GD32VW55x_RELEASE_V1.0.2/MSDK/lwip/libcoap-4.3.4/src\coap_uri.c ****  * @p c. The caller must ensure that @p c actually represents a valid
 400:C:/Users/stapi/OneDrive/Desktop/GD32VW553/GD32VW55X_Wifi_BLE_SDK/GD32VW55x_RELEASE_V1.0.2/MSDK/lwip/libcoap-4.3.4/src\coap_uri.c ****  * heaxdecimal character, e.g. with isxdigit(3).
 401:C:/Users/stapi/OneDrive/Desktop/GD32VW553/GD32VW55X_Wifi_BLE_SDK/GD32VW55x_RELEASE_V1.0.2/MSDK/lwip/libcoap-4.3.4/src\coap_uri.c ****  *
 402:C:/Users/stapi/OneDrive/Desktop/GD32VW553/GD32VW55X_Wifi_BLE_SDK/GD32VW55x_RELEASE_V1.0.2/MSDK/lwip/libcoap-4.3.4/src\coap_uri.c ****  * @hideinitializer
 403:C:/Users/stapi/OneDrive/Desktop/GD32VW553/GD32VW55X_Wifi_BLE_SDK/GD32VW55x_RELEASE_V1.0.2/MSDK/lwip/libcoap-4.3.4/src\coap_uri.c ****  */
 404:C:/Users/stapi/OneDrive/Desktop/GD32VW553/GD32VW55X_Wifi_BLE_SDK/GD32VW55x_RELEASE_V1.0.2/MSDK/lwip/libcoap-4.3.4/src\coap_uri.c **** #define hexchar_to_dec(c) ((c) & 0x40 ? ((c) & 0x0F) + 9 : ((c) & 0x0F))
 405:C:/Users/stapi/OneDrive/Desktop/GD32VW553/GD32VW55X_Wifi_BLE_SDK/GD32VW55x_RELEASE_V1.0.2/MSDK/lwip/libcoap-4.3.4/src\coap_uri.c **** 
 406:C:/Users/stapi/OneDrive/Desktop/GD32VW553/GD32VW55X_Wifi_BLE_SDK/GD32VW55x_RELEASE_V1.0.2/MSDK/lwip/libcoap-4.3.4/src\coap_uri.c **** /**
 407:C:/Users/stapi/OneDrive/Desktop/GD32VW553/GD32VW55X_Wifi_BLE_SDK/GD32VW55x_RELEASE_V1.0.2/MSDK/lwip/libcoap-4.3.4/src\coap_uri.c ****  * Decodes percent-encoded characters while copying the string @p seg
 408:C:/Users/stapi/OneDrive/Desktop/GD32VW553/GD32VW55X_Wifi_BLE_SDK/GD32VW55x_RELEASE_V1.0.2/MSDK/lwip/libcoap-4.3.4/src\coap_uri.c ****  * of size @p length to @p buf. The caller of this function must
 409:C:/Users/stapi/OneDrive/Desktop/GD32VW553/GD32VW55X_Wifi_BLE_SDK/GD32VW55x_RELEASE_V1.0.2/MSDK/lwip/libcoap-4.3.4/src\coap_uri.c ****  * ensure that the percent-encodings are correct (i.e. the character
 410:C:/Users/stapi/OneDrive/Desktop/GD32VW553/GD32VW55X_Wifi_BLE_SDK/GD32VW55x_RELEASE_V1.0.2/MSDK/lwip/libcoap-4.3.4/src\coap_uri.c ****  * '%' is always followed by two hex digits. and that @p buf provides
 411:C:/Users/stapi/OneDrive/Desktop/GD32VW553/GD32VW55X_Wifi_BLE_SDK/GD32VW55x_RELEASE_V1.0.2/MSDK/lwip/libcoap-4.3.4/src\coap_uri.c ****  * sufficient space to hold the result. This function is supposed to
 412:C:/Users/stapi/OneDrive/Desktop/GD32VW553/GD32VW55X_Wifi_BLE_SDK/GD32VW55x_RELEASE_V1.0.2/MSDK/lwip/libcoap-4.3.4/src\coap_uri.c ****  * be called by make_decoded_option() only.
 413:C:/Users/stapi/OneDrive/Desktop/GD32VW553/GD32VW55X_Wifi_BLE_SDK/GD32VW55x_RELEASE_V1.0.2/MSDK/lwip/libcoap-4.3.4/src\coap_uri.c ****  *
 414:C:/Users/stapi/OneDrive/Desktop/GD32VW553/GD32VW55X_Wifi_BLE_SDK/GD32VW55x_RELEASE_V1.0.2/MSDK/lwip/libcoap-4.3.4/src\coap_uri.c ****  * @param seg     The segment to decode and copy.
 415:C:/Users/stapi/OneDrive/Desktop/GD32VW553/GD32VW55X_Wifi_BLE_SDK/GD32VW55x_RELEASE_V1.0.2/MSDK/lwip/libcoap-4.3.4/src\coap_uri.c ****  * @param length  Length of @p seg.
 416:C:/Users/stapi/OneDrive/Desktop/GD32VW553/GD32VW55X_Wifi_BLE_SDK/GD32VW55x_RELEASE_V1.0.2/MSDK/lwip/libcoap-4.3.4/src\coap_uri.c ****  * @param buf     The result buffer.
 417:C:/Users/stapi/OneDrive/Desktop/GD32VW553/GD32VW55X_Wifi_BLE_SDK/GD32VW55x_RELEASE_V1.0.2/MSDK/lwip/libcoap-4.3.4/src\coap_uri.c ****  */
 418:C:/Users/stapi/OneDrive/Desktop/GD32VW553/GD32VW55X_Wifi_BLE_SDK/GD32VW55x_RELEASE_V1.0.2/MSDK/lwip/libcoap-4.3.4/src\coap_uri.c **** static void
 419:C:/Users/stapi/OneDrive/Desktop/GD32VW553/GD32VW55X_Wifi_BLE_SDK/GD32VW55x_RELEASE_V1.0.2/MSDK/lwip/libcoap-4.3.4/src\coap_uri.c **** decode_segment(const uint8_t *seg, size_t length, unsigned char *buf) {
 420:C:/Users/stapi/OneDrive/Desktop/GD32VW553/GD32VW55X_Wifi_BLE_SDK/GD32VW55x_RELEASE_V1.0.2/MSDK/lwip/libcoap-4.3.4/src\coap_uri.c **** 
 421:C:/Users/stapi/OneDrive/Desktop/GD32VW553/GD32VW55X_Wifi_BLE_SDK/GD32VW55x_RELEASE_V1.0.2/MSDK/lwip/libcoap-4.3.4/src\coap_uri.c ****   while (length--) {
 422:C:/Users/stapi/OneDrive/Desktop/GD32VW553/GD32VW55X_Wifi_BLE_SDK/GD32VW55x_RELEASE_V1.0.2/MSDK/lwip/libcoap-4.3.4/src\coap_uri.c **** 
 423:C:/Users/stapi/OneDrive/Desktop/GD32VW553/GD32VW55X_Wifi_BLE_SDK/GD32VW55x_RELEASE_V1.0.2/MSDK/lwip/libcoap-4.3.4/src\coap_uri.c ****     if (*seg == '%') {
 424:C:/Users/stapi/OneDrive/Desktop/GD32VW553/GD32VW55X_Wifi_BLE_SDK/GD32VW55x_RELEASE_V1.0.2/MSDK/lwip/libcoap-4.3.4/src\coap_uri.c ****       *buf = (hexchar_to_dec(seg[1]) << 4) + hexchar_to_dec(seg[2]);
 425:C:/Users/stapi/OneDrive/Desktop/GD32VW553/GD32VW55X_Wifi_BLE_SDK/GD32VW55x_RELEASE_V1.0.2/MSDK/lwip/libcoap-4.3.4/src\coap_uri.c **** 
 426:C:/Users/stapi/OneDrive/Desktop/GD32VW553/GD32VW55X_Wifi_BLE_SDK/GD32VW55x_RELEASE_V1.0.2/MSDK/lwip/libcoap-4.3.4/src\coap_uri.c ****       seg += 2;
 427:C:/Users/stapi/OneDrive/Desktop/GD32VW553/GD32VW55X_Wifi_BLE_SDK/GD32VW55x_RELEASE_V1.0.2/MSDK/lwip/libcoap-4.3.4/src\coap_uri.c ****       length -= 2;
 428:C:/Users/stapi/OneDrive/Desktop/GD32VW553/GD32VW55X_Wifi_BLE_SDK/GD32VW55x_RELEASE_V1.0.2/MSDK/lwip/libcoap-4.3.4/src\coap_uri.c ****     } else {
 429:C:/Users/stapi/OneDrive/Desktop/GD32VW553/GD32VW55X_Wifi_BLE_SDK/GD32VW55x_RELEASE_V1.0.2/MSDK/lwip/libcoap-4.3.4/src\coap_uri.c ****       *buf = *seg;
 430:C:/Users/stapi/OneDrive/Desktop/GD32VW553/GD32VW55X_Wifi_BLE_SDK/GD32VW55x_RELEASE_V1.0.2/MSDK/lwip/libcoap-4.3.4/src\coap_uri.c ****     }
 431:C:/Users/stapi/OneDrive/Desktop/GD32VW553/GD32VW55X_Wifi_BLE_SDK/GD32VW55x_RELEASE_V1.0.2/MSDK/lwip/libcoap-4.3.4/src\coap_uri.c **** 
 432:C:/Users/stapi/OneDrive/Desktop/GD32VW553/GD32VW55X_Wifi_BLE_SDK/GD32VW55x_RELEASE_V1.0.2/MSDK/lwip/libcoap-4.3.4/src\coap_uri.c ****     ++buf;
 433:C:/Users/stapi/OneDrive/Desktop/GD32VW553/GD32VW55X_Wifi_BLE_SDK/GD32VW55x_RELEASE_V1.0.2/MSDK/lwip/libcoap-4.3.4/src\coap_uri.c ****     ++seg;
 434:C:/Users/stapi/OneDrive/Desktop/GD32VW553/GD32VW55X_Wifi_BLE_SDK/GD32VW55x_RELEASE_V1.0.2/MSDK/lwip/libcoap-4.3.4/src\coap_uri.c ****   }
 435:C:/Users/stapi/OneDrive/Desktop/GD32VW553/GD32VW55X_Wifi_BLE_SDK/GD32VW55x_RELEASE_V1.0.2/MSDK/lwip/libcoap-4.3.4/src\coap_uri.c **** }
 436:C:/Users/stapi/OneDrive/Desktop/GD32VW553/GD32VW55X_Wifi_BLE_SDK/GD32VW55x_RELEASE_V1.0.2/MSDK/lwip/libcoap-4.3.4/src\coap_uri.c **** 
 437:C:/Users/stapi/OneDrive/Desktop/GD32VW553/GD32VW55X_Wifi_BLE_SDK/GD32VW55x_RELEASE_V1.0.2/MSDK/lwip/libcoap-4.3.4/src\coap_uri.c **** /**
 438:C:/Users/stapi/OneDrive/Desktop/GD32VW553/GD32VW55X_Wifi_BLE_SDK/GD32VW55x_RELEASE_V1.0.2/MSDK/lwip/libcoap-4.3.4/src\coap_uri.c ****  * Runs through the given path (or query) segment and checks if
 439:C:/Users/stapi/OneDrive/Desktop/GD32VW553/GD32VW55X_Wifi_BLE_SDK/GD32VW55x_RELEASE_V1.0.2/MSDK/lwip/libcoap-4.3.4/src\coap_uri.c ****  * percent-encodings are correct. This function returns @c 0 on success
 440:C:/Users/stapi/OneDrive/Desktop/GD32VW553/GD32VW55X_Wifi_BLE_SDK/GD32VW55x_RELEASE_V1.0.2/MSDK/lwip/libcoap-4.3.4/src\coap_uri.c ****  * and @c -1 on error.
 441:C:/Users/stapi/OneDrive/Desktop/GD32VW553/GD32VW55X_Wifi_BLE_SDK/GD32VW55x_RELEASE_V1.0.2/MSDK/lwip/libcoap-4.3.4/src\coap_uri.c ****  */
 442:C:/Users/stapi/OneDrive/Desktop/GD32VW553/GD32VW55X_Wifi_BLE_SDK/GD32VW55x_RELEASE_V1.0.2/MSDK/lwip/libcoap-4.3.4/src\coap_uri.c **** static int
 443:C:/Users/stapi/OneDrive/Desktop/GD32VW553/GD32VW55X_Wifi_BLE_SDK/GD32VW55x_RELEASE_V1.0.2/MSDK/lwip/libcoap-4.3.4/src\coap_uri.c **** check_segment(const uint8_t *s, size_t length, size_t *segment_size) {
 444:C:/Users/stapi/OneDrive/Desktop/GD32VW553/GD32VW55X_Wifi_BLE_SDK/GD32VW55x_RELEASE_V1.0.2/MSDK/lwip/libcoap-4.3.4/src\coap_uri.c ****   size_t n = 0;
 445:C:/Users/stapi/OneDrive/Desktop/GD32VW553/GD32VW55X_Wifi_BLE_SDK/GD32VW55x_RELEASE_V1.0.2/MSDK/lwip/libcoap-4.3.4/src\coap_uri.c **** 
 446:C:/Users/stapi/OneDrive/Desktop/GD32VW553/GD32VW55X_Wifi_BLE_SDK/GD32VW55x_RELEASE_V1.0.2/MSDK/lwip/libcoap-4.3.4/src\coap_uri.c ****   while (length) {
 447:C:/Users/stapi/OneDrive/Desktop/GD32VW553/GD32VW55X_Wifi_BLE_SDK/GD32VW55x_RELEASE_V1.0.2/MSDK/lwip/libcoap-4.3.4/src\coap_uri.c ****     if (*s == '%') {
 448:C:/Users/stapi/OneDrive/Desktop/GD32VW553/GD32VW55X_Wifi_BLE_SDK/GD32VW55x_RELEASE_V1.0.2/MSDK/lwip/libcoap-4.3.4/src\coap_uri.c ****       if (length < 2 || !(isxdigit(s[1]) && isxdigit(s[2])))
 449:C:/Users/stapi/OneDrive/Desktop/GD32VW553/GD32VW55X_Wifi_BLE_SDK/GD32VW55x_RELEASE_V1.0.2/MSDK/lwip/libcoap-4.3.4/src\coap_uri.c ****         return -1;
 450:C:/Users/stapi/OneDrive/Desktop/GD32VW553/GD32VW55X_Wifi_BLE_SDK/GD32VW55x_RELEASE_V1.0.2/MSDK/lwip/libcoap-4.3.4/src\coap_uri.c **** 
 451:C:/Users/stapi/OneDrive/Desktop/GD32VW553/GD32VW55X_Wifi_BLE_SDK/GD32VW55x_RELEASE_V1.0.2/MSDK/lwip/libcoap-4.3.4/src\coap_uri.c ****       s += 2;
 452:C:/Users/stapi/OneDrive/Desktop/GD32VW553/GD32VW55X_Wifi_BLE_SDK/GD32VW55x_RELEASE_V1.0.2/MSDK/lwip/libcoap-4.3.4/src\coap_uri.c ****       length -= 2;
 453:C:/Users/stapi/OneDrive/Desktop/GD32VW553/GD32VW55X_Wifi_BLE_SDK/GD32VW55x_RELEASE_V1.0.2/MSDK/lwip/libcoap-4.3.4/src\coap_uri.c ****     }
 454:C:/Users/stapi/OneDrive/Desktop/GD32VW553/GD32VW55X_Wifi_BLE_SDK/GD32VW55x_RELEASE_V1.0.2/MSDK/lwip/libcoap-4.3.4/src\coap_uri.c **** 
 455:C:/Users/stapi/OneDrive/Desktop/GD32VW553/GD32VW55X_Wifi_BLE_SDK/GD32VW55x_RELEASE_V1.0.2/MSDK/lwip/libcoap-4.3.4/src\coap_uri.c ****     ++s;
 456:C:/Users/stapi/OneDrive/Desktop/GD32VW553/GD32VW55X_Wifi_BLE_SDK/GD32VW55x_RELEASE_V1.0.2/MSDK/lwip/libcoap-4.3.4/src\coap_uri.c ****     ++n;
 457:C:/Users/stapi/OneDrive/Desktop/GD32VW553/GD32VW55X_Wifi_BLE_SDK/GD32VW55x_RELEASE_V1.0.2/MSDK/lwip/libcoap-4.3.4/src\coap_uri.c ****     --length;
 458:C:/Users/stapi/OneDrive/Desktop/GD32VW553/GD32VW55X_Wifi_BLE_SDK/GD32VW55x_RELEASE_V1.0.2/MSDK/lwip/libcoap-4.3.4/src\coap_uri.c ****   }
 459:C:/Users/stapi/OneDrive/Desktop/GD32VW553/GD32VW55X_Wifi_BLE_SDK/GD32VW55x_RELEASE_V1.0.2/MSDK/lwip/libcoap-4.3.4/src\coap_uri.c **** 
 460:C:/Users/stapi/OneDrive/Desktop/GD32VW553/GD32VW55X_Wifi_BLE_SDK/GD32VW55x_RELEASE_V1.0.2/MSDK/lwip/libcoap-4.3.4/src\coap_uri.c ****   *segment_size = n;
 461:C:/Users/stapi/OneDrive/Desktop/GD32VW553/GD32VW55X_Wifi_BLE_SDK/GD32VW55x_RELEASE_V1.0.2/MSDK/lwip/libcoap-4.3.4/src\coap_uri.c **** 
 462:C:/Users/stapi/OneDrive/Desktop/GD32VW553/GD32VW55X_Wifi_BLE_SDK/GD32VW55x_RELEASE_V1.0.2/MSDK/lwip/libcoap-4.3.4/src\coap_uri.c ****   return 0;
 463:C:/Users/stapi/OneDrive/Desktop/GD32VW553/GD32VW55X_Wifi_BLE_SDK/GD32VW55x_RELEASE_V1.0.2/MSDK/lwip/libcoap-4.3.4/src\coap_uri.c **** }
 464:C:/Users/stapi/OneDrive/Desktop/GD32VW553/GD32VW55X_Wifi_BLE_SDK/GD32VW55x_RELEASE_V1.0.2/MSDK/lwip/libcoap-4.3.4/src\coap_uri.c **** 
 465:C:/Users/stapi/OneDrive/Desktop/GD32VW553/GD32VW55X_Wifi_BLE_SDK/GD32VW55x_RELEASE_V1.0.2/MSDK/lwip/libcoap-4.3.4/src\coap_uri.c **** /**
 466:C:/Users/stapi/OneDrive/Desktop/GD32VW553/GD32VW55X_Wifi_BLE_SDK/GD32VW55x_RELEASE_V1.0.2/MSDK/lwip/libcoap-4.3.4/src\coap_uri.c ****  * Writes a coap option from given string @p s to @p buf. @p s should
 467:C:/Users/stapi/OneDrive/Desktop/GD32VW553/GD32VW55X_Wifi_BLE_SDK/GD32VW55x_RELEASE_V1.0.2/MSDK/lwip/libcoap-4.3.4/src\coap_uri.c ****  * point to a (percent-encoded) path or query segment of a coap_uri_t
 468:C:/Users/stapi/OneDrive/Desktop/GD32VW553/GD32VW55X_Wifi_BLE_SDK/GD32VW55x_RELEASE_V1.0.2/MSDK/lwip/libcoap-4.3.4/src\coap_uri.c ****  * object.  The created option will have type @c 0, and the length
 469:C:/Users/stapi/OneDrive/Desktop/GD32VW553/GD32VW55X_Wifi_BLE_SDK/GD32VW55x_RELEASE_V1.0.2/MSDK/lwip/libcoap-4.3.4/src\coap_uri.c ****  * parameter will be set according to the size of the decoded string.
 470:C:/Users/stapi/OneDrive/Desktop/GD32VW553/GD32VW55X_Wifi_BLE_SDK/GD32VW55x_RELEASE_V1.0.2/MSDK/lwip/libcoap-4.3.4/src\coap_uri.c ****  * On success, this function returns @c 0 and sets @p optionsize to the option's
 471:C:/Users/stapi/OneDrive/Desktop/GD32VW553/GD32VW55X_Wifi_BLE_SDK/GD32VW55x_RELEASE_V1.0.2/MSDK/lwip/libcoap-4.3.4/src\coap_uri.c ****  * size. On error the function returns a value less than zero. This function
 472:C:/Users/stapi/OneDrive/Desktop/GD32VW553/GD32VW55X_Wifi_BLE_SDK/GD32VW55x_RELEASE_V1.0.2/MSDK/lwip/libcoap-4.3.4/src\coap_uri.c ****  * must be called from coap_split_path_impl() only.
 473:C:/Users/stapi/OneDrive/Desktop/GD32VW553/GD32VW55X_Wifi_BLE_SDK/GD32VW55x_RELEASE_V1.0.2/MSDK/lwip/libcoap-4.3.4/src\coap_uri.c ****  *
 474:C:/Users/stapi/OneDrive/Desktop/GD32VW553/GD32VW55X_Wifi_BLE_SDK/GD32VW55x_RELEASE_V1.0.2/MSDK/lwip/libcoap-4.3.4/src\coap_uri.c ****  * @param s           The string to decode.
 475:C:/Users/stapi/OneDrive/Desktop/GD32VW553/GD32VW55X_Wifi_BLE_SDK/GD32VW55x_RELEASE_V1.0.2/MSDK/lwip/libcoap-4.3.4/src\coap_uri.c ****  * @param length      The size of the percent-encoded string @p s.
 476:C:/Users/stapi/OneDrive/Desktop/GD32VW553/GD32VW55X_Wifi_BLE_SDK/GD32VW55x_RELEASE_V1.0.2/MSDK/lwip/libcoap-4.3.4/src\coap_uri.c ****  * @param buf         The buffer to store the new coap option.
 477:C:/Users/stapi/OneDrive/Desktop/GD32VW553/GD32VW55X_Wifi_BLE_SDK/GD32VW55x_RELEASE_V1.0.2/MSDK/lwip/libcoap-4.3.4/src\coap_uri.c ****  * @param buflen      The maximum size of @p buf.
 478:C:/Users/stapi/OneDrive/Desktop/GD32VW553/GD32VW55X_Wifi_BLE_SDK/GD32VW55x_RELEASE_V1.0.2/MSDK/lwip/libcoap-4.3.4/src\coap_uri.c ****  * @param optionsize  The option's size.
 479:C:/Users/stapi/OneDrive/Desktop/GD32VW553/GD32VW55X_Wifi_BLE_SDK/GD32VW55x_RELEASE_V1.0.2/MSDK/lwip/libcoap-4.3.4/src\coap_uri.c ****  *
 480:C:/Users/stapi/OneDrive/Desktop/GD32VW553/GD32VW55X_Wifi_BLE_SDK/GD32VW55x_RELEASE_V1.0.2/MSDK/lwip/libcoap-4.3.4/src\coap_uri.c ****  * @return @c 0 on success and @c -1 on error.
 481:C:/Users/stapi/OneDrive/Desktop/GD32VW553/GD32VW55X_Wifi_BLE_SDK/GD32VW55x_RELEASE_V1.0.2/MSDK/lwip/libcoap-4.3.4/src\coap_uri.c ****  *
 482:C:/Users/stapi/OneDrive/Desktop/GD32VW553/GD32VW55X_Wifi_BLE_SDK/GD32VW55x_RELEASE_V1.0.2/MSDK/lwip/libcoap-4.3.4/src\coap_uri.c ****  * @bug This function does not split segments that are bigger than 270
 483:C:/Users/stapi/OneDrive/Desktop/GD32VW553/GD32VW55X_Wifi_BLE_SDK/GD32VW55x_RELEASE_V1.0.2/MSDK/lwip/libcoap-4.3.4/src\coap_uri.c ****  * bytes.
 484:C:/Users/stapi/OneDrive/Desktop/GD32VW553/GD32VW55X_Wifi_BLE_SDK/GD32VW55x_RELEASE_V1.0.2/MSDK/lwip/libcoap-4.3.4/src\coap_uri.c ****  */
 485:C:/Users/stapi/OneDrive/Desktop/GD32VW553/GD32VW55X_Wifi_BLE_SDK/GD32VW55x_RELEASE_V1.0.2/MSDK/lwip/libcoap-4.3.4/src\coap_uri.c **** static int
 486:C:/Users/stapi/OneDrive/Desktop/GD32VW553/GD32VW55X_Wifi_BLE_SDK/GD32VW55x_RELEASE_V1.0.2/MSDK/lwip/libcoap-4.3.4/src\coap_uri.c **** make_decoded_option(const uint8_t *s, size_t length,
 487:C:/Users/stapi/OneDrive/Desktop/GD32VW553/GD32VW55X_Wifi_BLE_SDK/GD32VW55x_RELEASE_V1.0.2/MSDK/lwip/libcoap-4.3.4/src\coap_uri.c ****                     unsigned char *buf, size_t buflen, size_t *optionsize) {
 488:C:/Users/stapi/OneDrive/Desktop/GD32VW553/GD32VW55X_Wifi_BLE_SDK/GD32VW55x_RELEASE_V1.0.2/MSDK/lwip/libcoap-4.3.4/src\coap_uri.c ****   int res;
 489:C:/Users/stapi/OneDrive/Desktop/GD32VW553/GD32VW55X_Wifi_BLE_SDK/GD32VW55x_RELEASE_V1.0.2/MSDK/lwip/libcoap-4.3.4/src\coap_uri.c ****   size_t segmentlen;
 490:C:/Users/stapi/OneDrive/Desktop/GD32VW553/GD32VW55X_Wifi_BLE_SDK/GD32VW55x_RELEASE_V1.0.2/MSDK/lwip/libcoap-4.3.4/src\coap_uri.c ****   size_t written;
 491:C:/Users/stapi/OneDrive/Desktop/GD32VW553/GD32VW55X_Wifi_BLE_SDK/GD32VW55x_RELEASE_V1.0.2/MSDK/lwip/libcoap-4.3.4/src\coap_uri.c **** 
 492:C:/Users/stapi/OneDrive/Desktop/GD32VW553/GD32VW55X_Wifi_BLE_SDK/GD32VW55x_RELEASE_V1.0.2/MSDK/lwip/libcoap-4.3.4/src\coap_uri.c ****   if (!buflen) {
 493:C:/Users/stapi/OneDrive/Desktop/GD32VW553/GD32VW55X_Wifi_BLE_SDK/GD32VW55x_RELEASE_V1.0.2/MSDK/lwip/libcoap-4.3.4/src\coap_uri.c ****     coap_log_debug("make_decoded_option(): buflen is 0!\n");
 494:C:/Users/stapi/OneDrive/Desktop/GD32VW553/GD32VW55X_Wifi_BLE_SDK/GD32VW55x_RELEASE_V1.0.2/MSDK/lwip/libcoap-4.3.4/src\coap_uri.c ****     return -1;
 495:C:/Users/stapi/OneDrive/Desktop/GD32VW553/GD32VW55X_Wifi_BLE_SDK/GD32VW55x_RELEASE_V1.0.2/MSDK/lwip/libcoap-4.3.4/src\coap_uri.c ****   }
 496:C:/Users/stapi/OneDrive/Desktop/GD32VW553/GD32VW55X_Wifi_BLE_SDK/GD32VW55x_RELEASE_V1.0.2/MSDK/lwip/libcoap-4.3.4/src\coap_uri.c **** 
 497:C:/Users/stapi/OneDrive/Desktop/GD32VW553/GD32VW55X_Wifi_BLE_SDK/GD32VW55x_RELEASE_V1.0.2/MSDK/lwip/libcoap-4.3.4/src\coap_uri.c ****   res = check_segment(s, length, &segmentlen);
 498:C:/Users/stapi/OneDrive/Desktop/GD32VW553/GD32VW55X_Wifi_BLE_SDK/GD32VW55x_RELEASE_V1.0.2/MSDK/lwip/libcoap-4.3.4/src\coap_uri.c ****   if (res < 0)
 499:C:/Users/stapi/OneDrive/Desktop/GD32VW553/GD32VW55X_Wifi_BLE_SDK/GD32VW55x_RELEASE_V1.0.2/MSDK/lwip/libcoap-4.3.4/src\coap_uri.c ****     return -1;
 500:C:/Users/stapi/OneDrive/Desktop/GD32VW553/GD32VW55X_Wifi_BLE_SDK/GD32VW55x_RELEASE_V1.0.2/MSDK/lwip/libcoap-4.3.4/src\coap_uri.c **** 
 501:C:/Users/stapi/OneDrive/Desktop/GD32VW553/GD32VW55X_Wifi_BLE_SDK/GD32VW55x_RELEASE_V1.0.2/MSDK/lwip/libcoap-4.3.4/src\coap_uri.c ****   /* write option header using delta 0 and length res */
 502:C:/Users/stapi/OneDrive/Desktop/GD32VW553/GD32VW55X_Wifi_BLE_SDK/GD32VW55x_RELEASE_V1.0.2/MSDK/lwip/libcoap-4.3.4/src\coap_uri.c ****   written = coap_opt_setheader(buf, buflen, 0, segmentlen);
 503:C:/Users/stapi/OneDrive/Desktop/GD32VW553/GD32VW55X_Wifi_BLE_SDK/GD32VW55x_RELEASE_V1.0.2/MSDK/lwip/libcoap-4.3.4/src\coap_uri.c **** 
 504:C:/Users/stapi/OneDrive/Desktop/GD32VW553/GD32VW55X_Wifi_BLE_SDK/GD32VW55x_RELEASE_V1.0.2/MSDK/lwip/libcoap-4.3.4/src\coap_uri.c ****   assert(written <= buflen);
 505:C:/Users/stapi/OneDrive/Desktop/GD32VW553/GD32VW55X_Wifi_BLE_SDK/GD32VW55x_RELEASE_V1.0.2/MSDK/lwip/libcoap-4.3.4/src\coap_uri.c **** 
 506:C:/Users/stapi/OneDrive/Desktop/GD32VW553/GD32VW55X_Wifi_BLE_SDK/GD32VW55x_RELEASE_V1.0.2/MSDK/lwip/libcoap-4.3.4/src\coap_uri.c ****   if (!written)                        /* encoding error */
 507:C:/Users/stapi/OneDrive/Desktop/GD32VW553/GD32VW55X_Wifi_BLE_SDK/GD32VW55x_RELEASE_V1.0.2/MSDK/lwip/libcoap-4.3.4/src\coap_uri.c ****     return -1;
 508:C:/Users/stapi/OneDrive/Desktop/GD32VW553/GD32VW55X_Wifi_BLE_SDK/GD32VW55x_RELEASE_V1.0.2/MSDK/lwip/libcoap-4.3.4/src\coap_uri.c **** 
 509:C:/Users/stapi/OneDrive/Desktop/GD32VW553/GD32VW55X_Wifi_BLE_SDK/GD32VW55x_RELEASE_V1.0.2/MSDK/lwip/libcoap-4.3.4/src\coap_uri.c ****   buf += written;                /* advance past option type/length */
 510:C:/Users/stapi/OneDrive/Desktop/GD32VW553/GD32VW55X_Wifi_BLE_SDK/GD32VW55x_RELEASE_V1.0.2/MSDK/lwip/libcoap-4.3.4/src\coap_uri.c ****   buflen -= written;
 511:C:/Users/stapi/OneDrive/Desktop/GD32VW553/GD32VW55X_Wifi_BLE_SDK/GD32VW55x_RELEASE_V1.0.2/MSDK/lwip/libcoap-4.3.4/src\coap_uri.c **** 
 512:C:/Users/stapi/OneDrive/Desktop/GD32VW553/GD32VW55X_Wifi_BLE_SDK/GD32VW55x_RELEASE_V1.0.2/MSDK/lwip/libcoap-4.3.4/src\coap_uri.c ****   if (buflen < segmentlen) {
 513:C:/Users/stapi/OneDrive/Desktop/GD32VW553/GD32VW55X_Wifi_BLE_SDK/GD32VW55x_RELEASE_V1.0.2/MSDK/lwip/libcoap-4.3.4/src\coap_uri.c ****     coap_log_debug("buffer too small for option\n");
 514:C:/Users/stapi/OneDrive/Desktop/GD32VW553/GD32VW55X_Wifi_BLE_SDK/GD32VW55x_RELEASE_V1.0.2/MSDK/lwip/libcoap-4.3.4/src\coap_uri.c ****     return -1;
 515:C:/Users/stapi/OneDrive/Desktop/GD32VW553/GD32VW55X_Wifi_BLE_SDK/GD32VW55x_RELEASE_V1.0.2/MSDK/lwip/libcoap-4.3.4/src\coap_uri.c ****   }
 516:C:/Users/stapi/OneDrive/Desktop/GD32VW553/GD32VW55X_Wifi_BLE_SDK/GD32VW55x_RELEASE_V1.0.2/MSDK/lwip/libcoap-4.3.4/src\coap_uri.c **** 
 517:C:/Users/stapi/OneDrive/Desktop/GD32VW553/GD32VW55X_Wifi_BLE_SDK/GD32VW55x_RELEASE_V1.0.2/MSDK/lwip/libcoap-4.3.4/src\coap_uri.c ****   decode_segment(s, length, buf);
 518:C:/Users/stapi/OneDrive/Desktop/GD32VW553/GD32VW55X_Wifi_BLE_SDK/GD32VW55x_RELEASE_V1.0.2/MSDK/lwip/libcoap-4.3.4/src\coap_uri.c **** 
 519:C:/Users/stapi/OneDrive/Desktop/GD32VW553/GD32VW55X_Wifi_BLE_SDK/GD32VW55x_RELEASE_V1.0.2/MSDK/lwip/libcoap-4.3.4/src\coap_uri.c ****   *optionsize = written + segmentlen;
 520:C:/Users/stapi/OneDrive/Desktop/GD32VW553/GD32VW55X_Wifi_BLE_SDK/GD32VW55x_RELEASE_V1.0.2/MSDK/lwip/libcoap-4.3.4/src\coap_uri.c **** 
 521:C:/Users/stapi/OneDrive/Desktop/GD32VW553/GD32VW55X_Wifi_BLE_SDK/GD32VW55x_RELEASE_V1.0.2/MSDK/lwip/libcoap-4.3.4/src\coap_uri.c ****   return 0;
 522:C:/Users/stapi/OneDrive/Desktop/GD32VW553/GD32VW55X_Wifi_BLE_SDK/GD32VW55x_RELEASE_V1.0.2/MSDK/lwip/libcoap-4.3.4/src\coap_uri.c **** }
 523:C:/Users/stapi/OneDrive/Desktop/GD32VW553/GD32VW55X_Wifi_BLE_SDK/GD32VW55x_RELEASE_V1.0.2/MSDK/lwip/libcoap-4.3.4/src\coap_uri.c **** 
 524:C:/Users/stapi/OneDrive/Desktop/GD32VW553/GD32VW55X_Wifi_BLE_SDK/GD32VW55x_RELEASE_V1.0.2/MSDK/lwip/libcoap-4.3.4/src\coap_uri.c **** 
 525:C:/Users/stapi/OneDrive/Desktop/GD32VW553/GD32VW55X_Wifi_BLE_SDK/GD32VW55x_RELEASE_V1.0.2/MSDK/lwip/libcoap-4.3.4/src\coap_uri.c **** #ifndef min
 526:C:/Users/stapi/OneDrive/Desktop/GD32VW553/GD32VW55X_Wifi_BLE_SDK/GD32VW55x_RELEASE_V1.0.2/MSDK/lwip/libcoap-4.3.4/src\coap_uri.c **** #define min(a,b) ((a) < (b) ? (a) : (b))
 527:C:/Users/stapi/OneDrive/Desktop/GD32VW553/GD32VW55X_Wifi_BLE_SDK/GD32VW55x_RELEASE_V1.0.2/MSDK/lwip/libcoap-4.3.4/src\coap_uri.c **** #endif
 528:C:/Users/stapi/OneDrive/Desktop/GD32VW553/GD32VW55X_Wifi_BLE_SDK/GD32VW55x_RELEASE_V1.0.2/MSDK/lwip/libcoap-4.3.4/src\coap_uri.c **** 
 529:C:/Users/stapi/OneDrive/Desktop/GD32VW553/GD32VW55X_Wifi_BLE_SDK/GD32VW55x_RELEASE_V1.0.2/MSDK/lwip/libcoap-4.3.4/src\coap_uri.c **** typedef void (*segment_handler_t)(const uint8_t *, size_t, void *);
 530:C:/Users/stapi/OneDrive/Desktop/GD32VW553/GD32VW55X_Wifi_BLE_SDK/GD32VW55x_RELEASE_V1.0.2/MSDK/lwip/libcoap-4.3.4/src\coap_uri.c **** 
 531:C:/Users/stapi/OneDrive/Desktop/GD32VW553/GD32VW55X_Wifi_BLE_SDK/GD32VW55x_RELEASE_V1.0.2/MSDK/lwip/libcoap-4.3.4/src\coap_uri.c **** /**
 532:C:/Users/stapi/OneDrive/Desktop/GD32VW553/GD32VW55X_Wifi_BLE_SDK/GD32VW55x_RELEASE_V1.0.2/MSDK/lwip/libcoap-4.3.4/src\coap_uri.c ****  * Checks if path segment @p s consists of one or two dots.
 533:C:/Users/stapi/OneDrive/Desktop/GD32VW553/GD32VW55X_Wifi_BLE_SDK/GD32VW55x_RELEASE_V1.0.2/MSDK/lwip/libcoap-4.3.4/src\coap_uri.c ****  */
 534:C:/Users/stapi/OneDrive/Desktop/GD32VW553/GD32VW55X_Wifi_BLE_SDK/GD32VW55x_RELEASE_V1.0.2/MSDK/lwip/libcoap-4.3.4/src\coap_uri.c **** COAP_STATIC_INLINE int
 535:C:/Users/stapi/OneDrive/Desktop/GD32VW553/GD32VW55X_Wifi_BLE_SDK/GD32VW55x_RELEASE_V1.0.2/MSDK/lwip/libcoap-4.3.4/src\coap_uri.c **** dots(const uint8_t *s, size_t len) {
 536:C:/Users/stapi/OneDrive/Desktop/GD32VW553/GD32VW55X_Wifi_BLE_SDK/GD32VW55x_RELEASE_V1.0.2/MSDK/lwip/libcoap-4.3.4/src\coap_uri.c ****   return len && *s == '.' && (len == 1 || (len == 2 && *(s+1) == '.'));
 537:C:/Users/stapi/OneDrive/Desktop/GD32VW553/GD32VW55X_Wifi_BLE_SDK/GD32VW55x_RELEASE_V1.0.2/MSDK/lwip/libcoap-4.3.4/src\coap_uri.c **** }
 538:C:/Users/stapi/OneDrive/Desktop/GD32VW553/GD32VW55X_Wifi_BLE_SDK/GD32VW55x_RELEASE_V1.0.2/MSDK/lwip/libcoap-4.3.4/src\coap_uri.c **** 
 539:C:/Users/stapi/OneDrive/Desktop/GD32VW553/GD32VW55X_Wifi_BLE_SDK/GD32VW55x_RELEASE_V1.0.2/MSDK/lwip/libcoap-4.3.4/src\coap_uri.c **** /**
 540:C:/Users/stapi/OneDrive/Desktop/GD32VW553/GD32VW55X_Wifi_BLE_SDK/GD32VW55x_RELEASE_V1.0.2/MSDK/lwip/libcoap-4.3.4/src\coap_uri.c ****  * Splits the given string into segments. You should call one of the
 541:C:/Users/stapi/OneDrive/Desktop/GD32VW553/GD32VW55X_Wifi_BLE_SDK/GD32VW55x_RELEASE_V1.0.2/MSDK/lwip/libcoap-4.3.4/src\coap_uri.c ****  * macros coap_split_path() or coap_split_query() instead.
 542:C:/Users/stapi/OneDrive/Desktop/GD32VW553/GD32VW55X_Wifi_BLE_SDK/GD32VW55x_RELEASE_V1.0.2/MSDK/lwip/libcoap-4.3.4/src\coap_uri.c ****  *
 543:C:/Users/stapi/OneDrive/Desktop/GD32VW553/GD32VW55X_Wifi_BLE_SDK/GD32VW55x_RELEASE_V1.0.2/MSDK/lwip/libcoap-4.3.4/src\coap_uri.c ****  * @param s      The URI string to be tokenized.
 544:C:/Users/stapi/OneDrive/Desktop/GD32VW553/GD32VW55X_Wifi_BLE_SDK/GD32VW55x_RELEASE_V1.0.2/MSDK/lwip/libcoap-4.3.4/src\coap_uri.c ****  * @param length The length of @p s.
 545:C:/Users/stapi/OneDrive/Desktop/GD32VW553/GD32VW55X_Wifi_BLE_SDK/GD32VW55x_RELEASE_V1.0.2/MSDK/lwip/libcoap-4.3.4/src\coap_uri.c ****  * @param h      A handler that is called with every token.
 546:C:/Users/stapi/OneDrive/Desktop/GD32VW553/GD32VW55X_Wifi_BLE_SDK/GD32VW55x_RELEASE_V1.0.2/MSDK/lwip/libcoap-4.3.4/src\coap_uri.c ****  * @param data   Opaque data that is passed to @p h when called.
 547:C:/Users/stapi/OneDrive/Desktop/GD32VW553/GD32VW55X_Wifi_BLE_SDK/GD32VW55x_RELEASE_V1.0.2/MSDK/lwip/libcoap-4.3.4/src\coap_uri.c ****  *
 548:C:/Users/stapi/OneDrive/Desktop/GD32VW553/GD32VW55X_Wifi_BLE_SDK/GD32VW55x_RELEASE_V1.0.2/MSDK/lwip/libcoap-4.3.4/src\coap_uri.c ****  * @return The number of characters that have been parsed from @p s.
 549:C:/Users/stapi/OneDrive/Desktop/GD32VW553/GD32VW55X_Wifi_BLE_SDK/GD32VW55x_RELEASE_V1.0.2/MSDK/lwip/libcoap-4.3.4/src\coap_uri.c ****  */
 550:C:/Users/stapi/OneDrive/Desktop/GD32VW553/GD32VW55X_Wifi_BLE_SDK/GD32VW55x_RELEASE_V1.0.2/MSDK/lwip/libcoap-4.3.4/src\coap_uri.c **** static size_t
 551:C:/Users/stapi/OneDrive/Desktop/GD32VW553/GD32VW55X_Wifi_BLE_SDK/GD32VW55x_RELEASE_V1.0.2/MSDK/lwip/libcoap-4.3.4/src\coap_uri.c **** coap_split_path_impl(const uint8_t *s, size_t length,
 552:C:/Users/stapi/OneDrive/Desktop/GD32VW553/GD32VW55X_Wifi_BLE_SDK/GD32VW55x_RELEASE_V1.0.2/MSDK/lwip/libcoap-4.3.4/src\coap_uri.c ****                      segment_handler_t h, void *data) {
 553:C:/Users/stapi/OneDrive/Desktop/GD32VW553/GD32VW55X_Wifi_BLE_SDK/GD32VW55x_RELEASE_V1.0.2/MSDK/lwip/libcoap-4.3.4/src\coap_uri.c **** 
 554:C:/Users/stapi/OneDrive/Desktop/GD32VW553/GD32VW55X_Wifi_BLE_SDK/GD32VW55x_RELEASE_V1.0.2/MSDK/lwip/libcoap-4.3.4/src\coap_uri.c ****   const uint8_t *p, *q;
 555:C:/Users/stapi/OneDrive/Desktop/GD32VW553/GD32VW55X_Wifi_BLE_SDK/GD32VW55x_RELEASE_V1.0.2/MSDK/lwip/libcoap-4.3.4/src\coap_uri.c **** 
 556:C:/Users/stapi/OneDrive/Desktop/GD32VW553/GD32VW55X_Wifi_BLE_SDK/GD32VW55x_RELEASE_V1.0.2/MSDK/lwip/libcoap-4.3.4/src\coap_uri.c ****   p = q = s;
 557:C:/Users/stapi/OneDrive/Desktop/GD32VW553/GD32VW55X_Wifi_BLE_SDK/GD32VW55x_RELEASE_V1.0.2/MSDK/lwip/libcoap-4.3.4/src\coap_uri.c ****   while (length > 0 && !strnchr((const uint8_t *)"?#", 2, *q)) {
 558:C:/Users/stapi/OneDrive/Desktop/GD32VW553/GD32VW55X_Wifi_BLE_SDK/GD32VW55x_RELEASE_V1.0.2/MSDK/lwip/libcoap-4.3.4/src\coap_uri.c ****     if (*q == '/') {                /* start new segment */
 559:C:/Users/stapi/OneDrive/Desktop/GD32VW553/GD32VW55X_Wifi_BLE_SDK/GD32VW55x_RELEASE_V1.0.2/MSDK/lwip/libcoap-4.3.4/src\coap_uri.c **** 
 560:C:/Users/stapi/OneDrive/Desktop/GD32VW553/GD32VW55X_Wifi_BLE_SDK/GD32VW55x_RELEASE_V1.0.2/MSDK/lwip/libcoap-4.3.4/src\coap_uri.c ****       if (!dots(p, q - p)) {
 561:C:/Users/stapi/OneDrive/Desktop/GD32VW553/GD32VW55X_Wifi_BLE_SDK/GD32VW55x_RELEASE_V1.0.2/MSDK/lwip/libcoap-4.3.4/src\coap_uri.c ****         h(p, q - p, data);
 562:C:/Users/stapi/OneDrive/Desktop/GD32VW553/GD32VW55X_Wifi_BLE_SDK/GD32VW55x_RELEASE_V1.0.2/MSDK/lwip/libcoap-4.3.4/src\coap_uri.c ****       }
 563:C:/Users/stapi/OneDrive/Desktop/GD32VW553/GD32VW55X_Wifi_BLE_SDK/GD32VW55x_RELEASE_V1.0.2/MSDK/lwip/libcoap-4.3.4/src\coap_uri.c **** 
 564:C:/Users/stapi/OneDrive/Desktop/GD32VW553/GD32VW55X_Wifi_BLE_SDK/GD32VW55x_RELEASE_V1.0.2/MSDK/lwip/libcoap-4.3.4/src\coap_uri.c ****       p = q + 1;
 565:C:/Users/stapi/OneDrive/Desktop/GD32VW553/GD32VW55X_Wifi_BLE_SDK/GD32VW55x_RELEASE_V1.0.2/MSDK/lwip/libcoap-4.3.4/src\coap_uri.c ****     }
 566:C:/Users/stapi/OneDrive/Desktop/GD32VW553/GD32VW55X_Wifi_BLE_SDK/GD32VW55x_RELEASE_V1.0.2/MSDK/lwip/libcoap-4.3.4/src\coap_uri.c **** 
 567:C:/Users/stapi/OneDrive/Desktop/GD32VW553/GD32VW55X_Wifi_BLE_SDK/GD32VW55x_RELEASE_V1.0.2/MSDK/lwip/libcoap-4.3.4/src\coap_uri.c ****     q++;
 568:C:/Users/stapi/OneDrive/Desktop/GD32VW553/GD32VW55X_Wifi_BLE_SDK/GD32VW55x_RELEASE_V1.0.2/MSDK/lwip/libcoap-4.3.4/src\coap_uri.c ****     length--;
 569:C:/Users/stapi/OneDrive/Desktop/GD32VW553/GD32VW55X_Wifi_BLE_SDK/GD32VW55x_RELEASE_V1.0.2/MSDK/lwip/libcoap-4.3.4/src\coap_uri.c ****   }
 570:C:/Users/stapi/OneDrive/Desktop/GD32VW553/GD32VW55X_Wifi_BLE_SDK/GD32VW55x_RELEASE_V1.0.2/MSDK/lwip/libcoap-4.3.4/src\coap_uri.c **** 
 571:C:/Users/stapi/OneDrive/Desktop/GD32VW553/GD32VW55X_Wifi_BLE_SDK/GD32VW55x_RELEASE_V1.0.2/MSDK/lwip/libcoap-4.3.4/src\coap_uri.c ****   /* write last segment */
 572:C:/Users/stapi/OneDrive/Desktop/GD32VW553/GD32VW55X_Wifi_BLE_SDK/GD32VW55x_RELEASE_V1.0.2/MSDK/lwip/libcoap-4.3.4/src\coap_uri.c ****   if (!dots(p, q - p)) {
 573:C:/Users/stapi/OneDrive/Desktop/GD32VW553/GD32VW55X_Wifi_BLE_SDK/GD32VW55x_RELEASE_V1.0.2/MSDK/lwip/libcoap-4.3.4/src\coap_uri.c ****     h(p, q - p, data);
 574:C:/Users/stapi/OneDrive/Desktop/GD32VW553/GD32VW55X_Wifi_BLE_SDK/GD32VW55x_RELEASE_V1.0.2/MSDK/lwip/libcoap-4.3.4/src\coap_uri.c ****   }
 575:C:/Users/stapi/OneDrive/Desktop/GD32VW553/GD32VW55X_Wifi_BLE_SDK/GD32VW55x_RELEASE_V1.0.2/MSDK/lwip/libcoap-4.3.4/src\coap_uri.c **** 
 576:C:/Users/stapi/OneDrive/Desktop/GD32VW553/GD32VW55X_Wifi_BLE_SDK/GD32VW55x_RELEASE_V1.0.2/MSDK/lwip/libcoap-4.3.4/src\coap_uri.c ****   return q - s;
 577:C:/Users/stapi/OneDrive/Desktop/GD32VW553/GD32VW55X_Wifi_BLE_SDK/GD32VW55x_RELEASE_V1.0.2/MSDK/lwip/libcoap-4.3.4/src\coap_uri.c **** }
 578:C:/Users/stapi/OneDrive/Desktop/GD32VW553/GD32VW55X_Wifi_BLE_SDK/GD32VW55x_RELEASE_V1.0.2/MSDK/lwip/libcoap-4.3.4/src\coap_uri.c **** 
 579:C:/Users/stapi/OneDrive/Desktop/GD32VW553/GD32VW55X_Wifi_BLE_SDK/GD32VW55x_RELEASE_V1.0.2/MSDK/lwip/libcoap-4.3.4/src\coap_uri.c **** struct cnt_str {
 580:C:/Users/stapi/OneDrive/Desktop/GD32VW553/GD32VW55X_Wifi_BLE_SDK/GD32VW55x_RELEASE_V1.0.2/MSDK/lwip/libcoap-4.3.4/src\coap_uri.c ****   coap_string_t buf;
 581:C:/Users/stapi/OneDrive/Desktop/GD32VW553/GD32VW55X_Wifi_BLE_SDK/GD32VW55x_RELEASE_V1.0.2/MSDK/lwip/libcoap-4.3.4/src\coap_uri.c ****   int n;
 582:C:/Users/stapi/OneDrive/Desktop/GD32VW553/GD32VW55X_Wifi_BLE_SDK/GD32VW55x_RELEASE_V1.0.2/MSDK/lwip/libcoap-4.3.4/src\coap_uri.c **** };
 583:C:/Users/stapi/OneDrive/Desktop/GD32VW553/GD32VW55X_Wifi_BLE_SDK/GD32VW55x_RELEASE_V1.0.2/MSDK/lwip/libcoap-4.3.4/src\coap_uri.c **** 
 584:C:/Users/stapi/OneDrive/Desktop/GD32VW553/GD32VW55X_Wifi_BLE_SDK/GD32VW55x_RELEASE_V1.0.2/MSDK/lwip/libcoap-4.3.4/src\coap_uri.c **** static void
 585:C:/Users/stapi/OneDrive/Desktop/GD32VW553/GD32VW55X_Wifi_BLE_SDK/GD32VW55x_RELEASE_V1.0.2/MSDK/lwip/libcoap-4.3.4/src\coap_uri.c **** write_option(const uint8_t *s, size_t len, void *data) {
 735              		.loc 1 585 56 is_stmt 1
 736              		.cfi_startproc
 737              	.LVL82:
 738 0000 17030000 		call	t0,__riscv_save_6
 738      E7020300 
 739              		.cfi_offset 21, -28
 740              		.cfi_offset 20, -24
 741              		.cfi_offset 19, -20
 742              		.cfi_offset 18, -16
 743              		.cfi_offset 9, -12
 744              		.cfi_offset 8, -8
 745              		.cfi_offset 1, -4
 746              		.cfi_def_cfa_offset 32
 586:C:/Users/stapi/OneDrive/Desktop/GD32VW553/GD32VW55X_Wifi_BLE_SDK/GD32VW55x_RELEASE_V1.0.2/MSDK/lwip/libcoap-4.3.4/src\coap_uri.c ****   struct cnt_str *state = (struct cnt_str *)data;
 747              		.loc 1 586 3
 748              	.LVL83:
 587:C:/Users/stapi/OneDrive/Desktop/GD32VW553/GD32VW55X_Wifi_BLE_SDK/GD32VW55x_RELEASE_V1.0.2/MSDK/lwip/libcoap-4.3.4/src\coap_uri.c ****   int res;
 749              		.loc 1 587 3
 588:C:/Users/stapi/OneDrive/Desktop/GD32VW553/GD32VW55X_Wifi_BLE_SDK/GD32VW55x_RELEASE_V1.0.2/MSDK/lwip/libcoap-4.3.4/src\coap_uri.c ****   size_t optionsize;
 750              		.loc 1 588 3
 589:C:/Users/stapi/OneDrive/Desktop/GD32VW553/GD32VW55X_Wifi_BLE_SDK/GD32VW55x_RELEASE_V1.0.2/MSDK/lwip/libcoap-4.3.4/src\coap_uri.c ****   assert(state);
 751              		.loc 1 589 3
 752 0008 1DE2     		bne	a2,zero,.L89
 753              		.loc 1 589 3 is_stmt 0 discriminator 1
 754 000a B7060000 		lui	a3,%hi(.LC8)
 755 000e 37060000 		lui	a2,%hi(.LANCHOR1)
 756              	.LVL84:
 757 0012 93860600 		addi	a3,a3,%lo(.LC8)
 758 0016 13060600 		addi	a2,a2,%lo(.LANCHOR1)
 759 001a 9305D024 		li	a1,589
 760              	.LVL85:
 761              	.L120:
 762              	.LBB10:
 763              	.LBB11:
 504:C:/Users/stapi/OneDrive/Desktop/GD32VW553/GD32VW55X_Wifi_BLE_SDK/GD32VW55x_RELEASE_V1.0.2/MSDK/lwip/libcoap-4.3.4/src\coap_uri.c **** 
 764              		.loc 1 504 3
 765 001e 37050000 		lui	a0,%hi(.LC9)
 766 0022 13050500 		addi	a0,a0,%lo(.LC9)
 767 0026 97000000 		call	__assert_func
 767      E7800000 
 768              	.LVL86:
 769              	.L89:
 770              	.LBE11:
 771              	.LBE10:
 590:C:/Users/stapi/OneDrive/Desktop/GD32VW553/GD32VW55X_Wifi_BLE_SDK/GD32VW55x_RELEASE_V1.0.2/MSDK/lwip/libcoap-4.3.4/src\coap_uri.c **** 
 591:C:/Users/stapi/OneDrive/Desktop/GD32VW553/GD32VW55X_Wifi_BLE_SDK/GD32VW55x_RELEASE_V1.0.2/MSDK/lwip/libcoap-4.3.4/src\coap_uri.c ****   res = make_decoded_option(s, len, state->buf.s, state->buf.length, &optionsize);
 772              		.loc 1 591 9
 773 002e 032A0600 		lw	s4,0(a2)
 774              		.loc 1 591 47
 775 0032 83294600 		lw	s3,4(a2)
 776 0036 3284     		mv	s0,a2
 777              		.loc 1 591 3 is_stmt 1
 778              	.LVL87:
 779              	.LBB28:
 780              	.LBB24:
 488:C:/Users/stapi/OneDrive/Desktop/GD32VW553/GD32VW55X_Wifi_BLE_SDK/GD32VW55x_RELEASE_V1.0.2/MSDK/lwip/libcoap-4.3.4/src\coap_uri.c ****   size_t segmentlen;
 781              		.loc 1 488 3
 489:C:/Users/stapi/OneDrive/Desktop/GD32VW553/GD32VW55X_Wifi_BLE_SDK/GD32VW55x_RELEASE_V1.0.2/MSDK/lwip/libcoap-4.3.4/src\coap_uri.c ****   size_t written;
 782              		.loc 1 489 3
 490:C:/Users/stapi/OneDrive/Desktop/GD32VW553/GD32VW55X_Wifi_BLE_SDK/GD32VW55x_RELEASE_V1.0.2/MSDK/lwip/libcoap-4.3.4/src\coap_uri.c **** 
 783              		.loc 1 490 3
 492:C:/Users/stapi/OneDrive/Desktop/GD32VW553/GD32VW55X_Wifi_BLE_SDK/GD32VW55x_RELEASE_V1.0.2/MSDK/lwip/libcoap-4.3.4/src\coap_uri.c ****     coap_log_debug("make_decoded_option(): buflen is 0!\n");
 784              		.loc 1 492 3
 492:C:/Users/stapi/OneDrive/Desktop/GD32VW553/GD32VW55X_Wifi_BLE_SDK/GD32VW55x_RELEASE_V1.0.2/MSDK/lwip/libcoap-4.3.4/src\coap_uri.c ****     coap_log_debug("make_decoded_option(): buflen is 0!\n");
 785              		.loc 1 492 6 is_stmt 0
 786 0038 63170A08 		bne	s4,zero,.L104
 787              	.LVL88:
 493:C:/Users/stapi/OneDrive/Desktop/GD32VW553/GD32VW55X_Wifi_BLE_SDK/GD32VW55x_RELEASE_V1.0.2/MSDK/lwip/libcoap-4.3.4/src\coap_uri.c ****     return -1;
 788              		.loc 1 493 5 is_stmt 1
 493:C:/Users/stapi/OneDrive/Desktop/GD32VW553/GD32VW55X_Wifi_BLE_SDK/GD32VW55x_RELEASE_V1.0.2/MSDK/lwip/libcoap-4.3.4/src\coap_uri.c ****     return -1;
 789              		.loc 1 493 5
 790 003c 97000000 		call	coap_get_log_level
 790      E7800000 
 791              	.LVL89:
 792 0044 9947     		li	a5,6
 793 0046 63DBA700 		ble	a0,a5,.L88
 493:C:/Users/stapi/OneDrive/Desktop/GD32VW553/GD32VW55X_Wifi_BLE_SDK/GD32VW55x_RELEASE_V1.0.2/MSDK/lwip/libcoap-4.3.4/src\coap_uri.c ****     return -1;
 794              		.loc 1 493 5
 795 004a B7050000 		lui	a1,%hi(.LC10)
 796 004e 93850500 		addi	a1,a1,%lo(.LC10)
 797              	.LVL90:
 798              	.L119:
 513:C:/Users/stapi/OneDrive/Desktop/GD32VW553/GD32VW55X_Wifi_BLE_SDK/GD32VW55x_RELEASE_V1.0.2/MSDK/lwip/libcoap-4.3.4/src\coap_uri.c ****     return -1;
 799              		.loc 1 513 5 is_stmt 0
 800 0052 1D45     		li	a0,7
 801 0054 97000000 		call	coap_log_impl
 801      E7800000 
 802              	.LVL91:
 803              	.LBE24:
 804              	.LBE28:
 592:C:/Users/stapi/OneDrive/Desktop/GD32VW553/GD32VW55X_Wifi_BLE_SDK/GD32VW55x_RELEASE_V1.0.2/MSDK/lwip/libcoap-4.3.4/src\coap_uri.c ****   if (res == 0) {
 805              		.loc 1 592 3 is_stmt 1
 806              	.L88:
 593:C:/Users/stapi/OneDrive/Desktop/GD32VW553/GD32VW55X_Wifi_BLE_SDK/GD32VW55x_RELEASE_V1.0.2/MSDK/lwip/libcoap-4.3.4/src\coap_uri.c ****     state->buf.s += optionsize;
 594:C:/Users/stapi/OneDrive/Desktop/GD32VW553/GD32VW55X_Wifi_BLE_SDK/GD32VW55x_RELEASE_V1.0.2/MSDK/lwip/libcoap-4.3.4/src\coap_uri.c ****     state->buf.length -= optionsize;
 595:C:/Users/stapi/OneDrive/Desktop/GD32VW553/GD32VW55X_Wifi_BLE_SDK/GD32VW55x_RELEASE_V1.0.2/MSDK/lwip/libcoap-4.3.4/src\coap_uri.c ****     state->n++;
 596:C:/Users/stapi/OneDrive/Desktop/GD32VW553/GD32VW55X_Wifi_BLE_SDK/GD32VW55x_RELEASE_V1.0.2/MSDK/lwip/libcoap-4.3.4/src\coap_uri.c ****   }
 597:C:/Users/stapi/OneDrive/Desktop/GD32VW553/GD32VW55X_Wifi_BLE_SDK/GD32VW55x_RELEASE_V1.0.2/MSDK/lwip/libcoap-4.3.4/src\coap_uri.c **** }
 807              		.loc 1 597 1 is_stmt 0
 808 005c 17030000 		tail	__riscv_restore_6
 808      67000300 
 809              		.cfi_remember_state
 810              		.cfi_restore 21
 811              		.cfi_restore 20
 812              		.cfi_restore 19
 813              		.cfi_restore 18
 814              		.cfi_restore 9
 815              		.cfi_restore 8
 816              		.cfi_restore 1
 817              		.cfi_def_cfa_offset 0
 818              	.LVL92:
 819              	.L95:
 820              		.cfi_restore_state
 821              	.LBB29:
 822              	.LBB25:
 823              	.LBB12:
 824              	.LBB13:
 447:C:/Users/stapi/OneDrive/Desktop/GD32VW553/GD32VW55X_Wifi_BLE_SDK/GD32VW55x_RELEASE_V1.0.2/MSDK/lwip/libcoap-4.3.4/src\coap_uri.c ****       if (length < 2 || !(isxdigit(s[1]) && isxdigit(s[2])))
 825              		.loc 1 447 5 is_stmt 1
 447:C:/Users/stapi/OneDrive/Desktop/GD32VW553/GD32VW55X_Wifi_BLE_SDK/GD32VW55x_RELEASE_V1.0.2/MSDK/lwip/libcoap-4.3.4/src\coap_uri.c ****       if (length < 2 || !(isxdigit(s[1]) && isxdigit(s[2])))
 826              		.loc 1 447 8 is_stmt 0
 827 0064 03C60700 		lbu	a2,0(a5)
 828 0068 6316B602 		bne	a2,a1,.L93
 448:C:/Users/stapi/OneDrive/Desktop/GD32VW553/GD32VW55X_Wifi_BLE_SDK/GD32VW55x_RELEASE_V1.0.2/MSDK/lwip/libcoap-4.3.4/src\coap_uri.c ****         return -1;
 829              		.loc 1 448 7 is_stmt 1
 448:C:/Users/stapi/OneDrive/Desktop/GD32VW553/GD32VW55X_Wifi_BLE_SDK/GD32VW55x_RELEASE_V1.0.2/MSDK/lwip/libcoap-4.3.4/src\coap_uri.c ****         return -1;
 830              		.loc 1 448 10 is_stmt 0
 831 006c E308A7FE 		beq	a4,a0,.L88
 448:C:/Users/stapi/OneDrive/Desktop/GD32VW553/GD32VW55X_Wifi_BLE_SDK/GD32VW55x_RELEASE_V1.0.2/MSDK/lwip/libcoap-4.3.4/src\coap_uri.c ****         return -1;
 832              		.loc 1 448 27
 833 0070 03C61700 		lbu	a2,1(a5)
 834 0074 3696     		add	a2,a2,a3
 448:C:/Users/stapi/OneDrive/Desktop/GD32VW553/GD32VW55X_Wifi_BLE_SDK/GD32VW55x_RELEASE_V1.0.2/MSDK/lwip/libcoap-4.3.4/src\coap_uri.c ****         return -1;
 835              		.loc 1 448 22
 836 0076 03460600 		lbu	a2,0(a2)
 837 007a 13764604 		andi	a2,a2,68
 838 007e 79DE     		beq	a2,zero,.L88
 448:C:/Users/stapi/OneDrive/Desktop/GD32VW553/GD32VW55X_Wifi_BLE_SDK/GD32VW55x_RELEASE_V1.0.2/MSDK/lwip/libcoap-4.3.4/src\coap_uri.c ****         return -1;
 839              		.loc 1 448 45
 840 0080 03C62700 		lbu	a2,2(a5)
 841 0084 3696     		add	a2,a2,a3
 448:C:/Users/stapi/OneDrive/Desktop/GD32VW553/GD32VW55X_Wifi_BLE_SDK/GD32VW55x_RELEASE_V1.0.2/MSDK/lwip/libcoap-4.3.4/src\coap_uri.c ****         return -1;
 842              		.loc 1 448 25
 843 0086 03460600 		lbu	a2,0(a2)
 844 008a 13764604 		andi	a2,a2,68
 845 008e 79D6     		beq	a2,zero,.L88
 451:C:/Users/stapi/OneDrive/Desktop/GD32VW553/GD32VW55X_Wifi_BLE_SDK/GD32VW55x_RELEASE_V1.0.2/MSDK/lwip/libcoap-4.3.4/src\coap_uri.c ****       length -= 2;
 846              		.loc 1 451 7 is_stmt 1
 451:C:/Users/stapi/OneDrive/Desktop/GD32VW553/GD32VW55X_Wifi_BLE_SDK/GD32VW55x_RELEASE_V1.0.2/MSDK/lwip/libcoap-4.3.4/src\coap_uri.c ****       length -= 2;
 847              		.loc 1 451 9 is_stmt 0
 848 0090 8907     		addi	a5,a5,2
 849              	.LVL93:
 452:C:/Users/stapi/OneDrive/Desktop/GD32VW553/GD32VW55X_Wifi_BLE_SDK/GD32VW55x_RELEASE_V1.0.2/MSDK/lwip/libcoap-4.3.4/src\coap_uri.c ****     }
 850              		.loc 1 452 7 is_stmt 1
 452:C:/Users/stapi/OneDrive/Desktop/GD32VW553/GD32VW55X_Wifi_BLE_SDK/GD32VW55x_RELEASE_V1.0.2/MSDK/lwip/libcoap-4.3.4/src\coap_uri.c ****     }
 851              		.loc 1 452 14 is_stmt 0
 852 0092 7917     		addi	a4,a4,-2
 853              	.LVL94:
 854              	.L93:
 455:C:/Users/stapi/OneDrive/Desktop/GD32VW553/GD32VW55X_Wifi_BLE_SDK/GD32VW55x_RELEASE_V1.0.2/MSDK/lwip/libcoap-4.3.4/src\coap_uri.c ****     ++n;
 855              		.loc 1 455 5 is_stmt 1
 856 0094 8507     		addi	a5,a5,1
 857              	.LVL95:
 456:C:/Users/stapi/OneDrive/Desktop/GD32VW553/GD32VW55X_Wifi_BLE_SDK/GD32VW55x_RELEASE_V1.0.2/MSDK/lwip/libcoap-4.3.4/src\coap_uri.c ****     --length;
 858              		.loc 1 456 5
 859 0096 850A     		addi	s5,s5,1
 860              	.LVL96:
 457:C:/Users/stapi/OneDrive/Desktop/GD32VW553/GD32VW55X_Wifi_BLE_SDK/GD32VW55x_RELEASE_V1.0.2/MSDK/lwip/libcoap-4.3.4/src\coap_uri.c ****   }
 861              		.loc 1 457 5
 862 0098 7D17     		addi	a4,a4,-1
 863              	.LVL97:
 864              	.L90:
 446:C:/Users/stapi/OneDrive/Desktop/GD32VW553/GD32VW55X_Wifi_BLE_SDK/GD32VW55x_RELEASE_V1.0.2/MSDK/lwip/libcoap-4.3.4/src\coap_uri.c ****     if (*s == '%') {
 865              		.loc 1 446 9
 866 009a 69F7     		bne	a4,zero,.L95
 460:C:/Users/stapi/OneDrive/Desktop/GD32VW553/GD32VW55X_Wifi_BLE_SDK/GD32VW55x_RELEASE_V1.0.2/MSDK/lwip/libcoap-4.3.4/src\coap_uri.c **** 
 867              		.loc 1 460 3
 868              	.LVL98:
 462:C:/Users/stapi/OneDrive/Desktop/GD32VW553/GD32VW55X_Wifi_BLE_SDK/GD32VW55x_RELEASE_V1.0.2/MSDK/lwip/libcoap-4.3.4/src\coap_uri.c **** }
 869              		.loc 1 462 3
 870              	.LBE13:
 871              	.LBE12:
 498:C:/Users/stapi/OneDrive/Desktop/GD32VW553/GD32VW55X_Wifi_BLE_SDK/GD32VW55x_RELEASE_V1.0.2/MSDK/lwip/libcoap-4.3.4/src\coap_uri.c ****     return -1;
 872              		.loc 1 498 3
 502:C:/Users/stapi/OneDrive/Desktop/GD32VW553/GD32VW55X_Wifi_BLE_SDK/GD32VW55x_RELEASE_V1.0.2/MSDK/lwip/libcoap-4.3.4/src\coap_uri.c **** 
 873              		.loc 1 502 3
 502:C:/Users/stapi/OneDrive/Desktop/GD32VW553/GD32VW55X_Wifi_BLE_SDK/GD32VW55x_RELEASE_V1.0.2/MSDK/lwip/libcoap-4.3.4/src\coap_uri.c **** 
 874              		.loc 1 502 13 is_stmt 0
 875 009c D686     		mv	a3,s5
 876 009e 0146     		li	a2,0
 877 00a0 D285     		mv	a1,s4
 878 00a2 4E85     		mv	a0,s3
 879 00a4 97000000 		call	coap_opt_setheader
 879      E7800000 
 880              	.LVL99:
 504:C:/Users/stapi/OneDrive/Desktop/GD32VW553/GD32VW55X_Wifi_BLE_SDK/GD32VW55x_RELEASE_V1.0.2/MSDK/lwip/libcoap-4.3.4/src\coap_uri.c **** 
 881              		.loc 1 504 3 is_stmt 1
 882 00ac 637AAA02 		bgeu	s4,a0,.L96
 883 00b0 B7060000 		lui	a3,%hi(.LC11)
 884 00b4 37060000 		lui	a2,%hi(.LANCHOR2)
 885 00b8 93860600 		addi	a3,a3,%lo(.LC11)
 886 00bc 13060600 		addi	a2,a2,%lo(.LANCHOR2)
 887 00c0 9305801F 		li	a1,504
 888 00c4 A9BF     		j	.L120
 889              	.LVL100:
 890              	.L104:
 891              	.LBB16:
 892              	.LBB14:
 448:C:/Users/stapi/OneDrive/Desktop/GD32VW553/GD32VW55X_Wifi_BLE_SDK/GD32VW55x_RELEASE_V1.0.2/MSDK/lwip/libcoap-4.3.4/src\coap_uri.c ****         return -1;
 893              		.loc 1 448 27 is_stmt 0
 894 00c6 B7060000 		lui	a3,%hi(_ctype_+1)
 895 00ca AA84     		mv	s1,a0
 896 00cc 2E89     		mv	s2,a1
 897              	.LBE14:
 898              	.LBE16:
 899 00ce 2E87     		mv	a4,a1
 900 00d0 AA87     		mv	a5,a0
 901              	.LBB17:
 902              	.LBB15:
 444:C:/Users/stapi/OneDrive/Desktop/GD32VW553/GD32VW55X_Wifi_BLE_SDK/GD32VW55x_RELEASE_V1.0.2/MSDK/lwip/libcoap-4.3.4/src\coap_uri.c **** 
 903              		.loc 1 444 10
 904 00d2 814A     		li	s5,0
 447:C:/Users/stapi/OneDrive/Desktop/GD32VW553/GD32VW55X_Wifi_BLE_SDK/GD32VW55x_RELEASE_V1.0.2/MSDK/lwip/libcoap-4.3.4/src\coap_uri.c ****       if (length < 2 || !(isxdigit(s[1]) && isxdigit(s[2])))
 905              		.loc 1 447 8
 906 00d4 93055002 		li	a1,37
 907              	.LVL101:
 448:C:/Users/stapi/OneDrive/Desktop/GD32VW553/GD32VW55X_Wifi_BLE_SDK/GD32VW55x_RELEASE_V1.0.2/MSDK/lwip/libcoap-4.3.4/src\coap_uri.c ****         return -1;
 908              		.loc 1 448 10
 909 00d8 0545     		li	a0,1
 910              	.LVL102:
 448:C:/Users/stapi/OneDrive/Desktop/GD32VW553/GD32VW55X_Wifi_BLE_SDK/GD32VW55x_RELEASE_V1.0.2/MSDK/lwip/libcoap-4.3.4/src\coap_uri.c ****         return -1;
 911              		.loc 1 448 27
 912 00da 93861600 		addi	a3,a3,%lo(_ctype_+1)
 913 00de 75BF     		j	.L90
 914              	.LVL103:
 915              	.L96:
 916              	.LBE15:
 917              	.LBE17:
 506:C:/Users/stapi/OneDrive/Desktop/GD32VW553/GD32VW55X_Wifi_BLE_SDK/GD32VW55x_RELEASE_V1.0.2/MSDK/lwip/libcoap-4.3.4/src\coap_uri.c ****     return -1;
 918              		.loc 1 506 3 is_stmt 1
 506:C:/Users/stapi/OneDrive/Desktop/GD32VW553/GD32VW55X_Wifi_BLE_SDK/GD32VW55x_RELEASE_V1.0.2/MSDK/lwip/libcoap-4.3.4/src\coap_uri.c ****     return -1;
 919              		.loc 1 506 6 is_stmt 0
 920 00e0 35DD     		beq	a0,zero,.L88
 509:C:/Users/stapi/OneDrive/Desktop/GD32VW553/GD32VW55X_Wifi_BLE_SDK/GD32VW55x_RELEASE_V1.0.2/MSDK/lwip/libcoap-4.3.4/src\coap_uri.c ****   buflen -= written;
 921              		.loc 1 509 3 is_stmt 1
 510:C:/Users/stapi/OneDrive/Desktop/GD32VW553/GD32VW55X_Wifi_BLE_SDK/GD32VW55x_RELEASE_V1.0.2/MSDK/lwip/libcoap-4.3.4/src\coap_uri.c **** 
 922              		.loc 1 510 10 is_stmt 0
 923 00e2 330AAA40 		sub	s4,s4,a0
 924              	.LVL104:
 509:C:/Users/stapi/OneDrive/Desktop/GD32VW553/GD32VW55X_Wifi_BLE_SDK/GD32VW55x_RELEASE_V1.0.2/MSDK/lwip/libcoap-4.3.4/src\coap_uri.c ****   buflen -= written;
 925              		.loc 1 509 7
 926 00e6 3387A900 		add	a4,s3,a0
 927              	.LVL105:
 510:C:/Users/stapi/OneDrive/Desktop/GD32VW553/GD32VW55X_Wifi_BLE_SDK/GD32VW55x_RELEASE_V1.0.2/MSDK/lwip/libcoap-4.3.4/src\coap_uri.c **** 
 928              		.loc 1 510 3 is_stmt 1
 512:C:/Users/stapi/OneDrive/Desktop/GD32VW553/GD32VW55X_Wifi_BLE_SDK/GD32VW55x_RELEASE_V1.0.2/MSDK/lwip/libcoap-4.3.4/src\coap_uri.c ****     coap_log_debug("buffer too small for option\n");
 929              		.loc 1 512 3
 930              	.LBB18:
 931              	.LBB19:
 423:C:/Users/stapi/OneDrive/Desktop/GD32VW553/GD32VW55X_Wifi_BLE_SDK/GD32VW55x_RELEASE_V1.0.2/MSDK/lwip/libcoap-4.3.4/src\coap_uri.c ****       *buf = (hexchar_to_dec(seg[1]) << 4) + hexchar_to_dec(seg[2]);
 932              		.loc 1 423 8 is_stmt 0
 933 00ea 93055002 		li	a1,37
 934              	.LBE19:
 935              	.LBE18:
 512:C:/Users/stapi/OneDrive/Desktop/GD32VW553/GD32VW55X_Wifi_BLE_SDK/GD32VW55x_RELEASE_V1.0.2/MSDK/lwip/libcoap-4.3.4/src\coap_uri.c ****     coap_log_debug("buffer too small for option\n");
 936              		.loc 1 512 6
 937 00ee 637B5A05 		bgeu	s4,s5,.L97
 513:C:/Users/stapi/OneDrive/Desktop/GD32VW553/GD32VW55X_Wifi_BLE_SDK/GD32VW55x_RELEASE_V1.0.2/MSDK/lwip/libcoap-4.3.4/src\coap_uri.c ****     return -1;
 938              		.loc 1 513 5 is_stmt 1
 513:C:/Users/stapi/OneDrive/Desktop/GD32VW553/GD32VW55X_Wifi_BLE_SDK/GD32VW55x_RELEASE_V1.0.2/MSDK/lwip/libcoap-4.3.4/src\coap_uri.c ****     return -1;
 939              		.loc 1 513 5
 940 00f2 97000000 		call	coap_get_log_level
 940      E7800000 
 941              	.LVL106:
 942 00fa 9947     		li	a5,6
 943 00fc E3D0A7F6 		ble	a0,a5,.L88
 513:C:/Users/stapi/OneDrive/Desktop/GD32VW553/GD32VW55X_Wifi_BLE_SDK/GD32VW55x_RELEASE_V1.0.2/MSDK/lwip/libcoap-4.3.4/src\coap_uri.c ****     return -1;
 944              		.loc 1 513 5
 945 0100 B7050000 		lui	a1,%hi(.LC12)
 946 0104 93850500 		addi	a1,a1,%lo(.LC12)
 947 0108 A9B7     		j	.L119
 948              	.LVL107:
 949              	.L103:
 950              	.LBB22:
 951              	.LBB20:
 423:C:/Users/stapi/OneDrive/Desktop/GD32VW553/GD32VW55X_Wifi_BLE_SDK/GD32VW55x_RELEASE_V1.0.2/MSDK/lwip/libcoap-4.3.4/src\coap_uri.c ****       *buf = (hexchar_to_dec(seg[1]) << 4) + hexchar_to_dec(seg[2]);
 952              		.loc 1 423 5
 423:C:/Users/stapi/OneDrive/Desktop/GD32VW553/GD32VW55X_Wifi_BLE_SDK/GD32VW55x_RELEASE_V1.0.2/MSDK/lwip/libcoap-4.3.4/src\coap_uri.c ****       *buf = (hexchar_to_dec(seg[1]) << 4) + hexchar_to_dec(seg[2]);
 953              		.loc 1 423 9 is_stmt 0
 954 010a 83C70400 		lbu	a5,0(s1)
 423:C:/Users/stapi/OneDrive/Desktop/GD32VW553/GD32VW55X_Wifi_BLE_SDK/GD32VW55x_RELEASE_V1.0.2/MSDK/lwip/libcoap-4.3.4/src\coap_uri.c ****       *buf = (hexchar_to_dec(seg[1]) << 4) + hexchar_to_dec(seg[2]);
 955              		.loc 1 423 8
 956 010e 6399B704 		bne	a5,a1,.L98
 424:C:/Users/stapi/OneDrive/Desktop/GD32VW553/GD32VW55X_Wifi_BLE_SDK/GD32VW55x_RELEASE_V1.0.2/MSDK/lwip/libcoap-4.3.4/src\coap_uri.c **** 
 957              		.loc 1 424 7 is_stmt 1
 424:C:/Users/stapi/OneDrive/Desktop/GD32VW553/GD32VW55X_Wifi_BLE_SDK/GD32VW55x_RELEASE_V1.0.2/MSDK/lwip/libcoap-4.3.4/src\coap_uri.c **** 
 958              		.loc 1 424 15 is_stmt 0
 959 0112 83C71400 		lbu	a5,1(s1)
 424:C:/Users/stapi/OneDrive/Desktop/GD32VW553/GD32VW55X_Wifi_BLE_SDK/GD32VW55x_RELEASE_V1.0.2/MSDK/lwip/libcoap-4.3.4/src\coap_uri.c **** 
 960              		.loc 1 424 44
 961 0116 93F60704 		andi	a3,a5,64
 962 011a 99C2     		beq	a3,zero,.L99
 424:C:/Users/stapi/OneDrive/Desktop/GD32VW553/GD32VW55X_Wifi_BLE_SDK/GD32VW55x_RELEASE_V1.0.2/MSDK/lwip/libcoap-4.3.4/src\coap_uri.c **** 
 963              		.loc 1 424 15
 964 011c BD8B     		andi	a5,a5,15
 965 011e A507     		addi	a5,a5,9
 966              	.L99:
 424:C:/Users/stapi/OneDrive/Desktop/GD32VW553/GD32VW55X_Wifi_BLE_SDK/GD32VW55x_RELEASE_V1.0.2/MSDK/lwip/libcoap-4.3.4/src\coap_uri.c **** 
 967              		.loc 1 424 46
 968 0120 83C62400 		lbu	a3,2(s1)
 424:C:/Users/stapi/OneDrive/Desktop/GD32VW553/GD32VW55X_Wifi_BLE_SDK/GD32VW55x_RELEASE_V1.0.2/MSDK/lwip/libcoap-4.3.4/src\coap_uri.c **** 
 969              		.loc 1 424 38
 970 0124 9207     		slli	a5,a5,4
 424:C:/Users/stapi/OneDrive/Desktop/GD32VW553/GD32VW55X_Wifi_BLE_SDK/GD32VW55x_RELEASE_V1.0.2/MSDK/lwip/libcoap-4.3.4/src\coap_uri.c **** 
 971              		.loc 1 424 44
 972 0126 93F7F70F 		andi	a5,a5,0xff
 424:C:/Users/stapi/OneDrive/Desktop/GD32VW553/GD32VW55X_Wifi_BLE_SDK/GD32VW55x_RELEASE_V1.0.2/MSDK/lwip/libcoap-4.3.4/src\coap_uri.c **** 
 973              		.loc 1 424 46
 974 012a 13F6F600 		andi	a2,a3,15
 424:C:/Users/stapi/OneDrive/Desktop/GD32VW553/GD32VW55X_Wifi_BLE_SDK/GD32VW55x_RELEASE_V1.0.2/MSDK/lwip/libcoap-4.3.4/src\coap_uri.c **** 
 975              		.loc 1 424 44
 976 012e 93F60604 		andi	a3,a3,64
 977 0132 91C2     		beq	a3,zero,.L101
 978 0134 2506     		addi	a2,a2,9
 979              	.L101:
 980 0136 B297     		add	a5,a5,a2
 424:C:/Users/stapi/OneDrive/Desktop/GD32VW553/GD32VW55X_Wifi_BLE_SDK/GD32VW55x_RELEASE_V1.0.2/MSDK/lwip/libcoap-4.3.4/src\coap_uri.c **** 
 981              		.loc 1 424 12
 982 0138 2300F700 		sb	a5,0(a4)
 426:C:/Users/stapi/OneDrive/Desktop/GD32VW553/GD32VW55X_Wifi_BLE_SDK/GD32VW55x_RELEASE_V1.0.2/MSDK/lwip/libcoap-4.3.4/src\coap_uri.c ****       length -= 2;
 983              		.loc 1 426 7 is_stmt 1
 426:C:/Users/stapi/OneDrive/Desktop/GD32VW553/GD32VW55X_Wifi_BLE_SDK/GD32VW55x_RELEASE_V1.0.2/MSDK/lwip/libcoap-4.3.4/src\coap_uri.c ****       length -= 2;
 984              		.loc 1 426 11 is_stmt 0
 985 013c 8904     		addi	s1,s1,2
 986              	.LVL108:
 427:C:/Users/stapi/OneDrive/Desktop/GD32VW553/GD32VW55X_Wifi_BLE_SDK/GD32VW55x_RELEASE_V1.0.2/MSDK/lwip/libcoap-4.3.4/src\coap_uri.c ****     } else {
 987              		.loc 1 427 7 is_stmt 1
 427:C:/Users/stapi/OneDrive/Desktop/GD32VW553/GD32VW55X_Wifi_BLE_SDK/GD32VW55x_RELEASE_V1.0.2/MSDK/lwip/libcoap-4.3.4/src\coap_uri.c ****     } else {
 988              		.loc 1 427 14 is_stmt 0
 989 013e 7519     		addi	s2,s2,-3
 990              	.LVL109:
 991              	.L102:
 432:C:/Users/stapi/OneDrive/Desktop/GD32VW553/GD32VW55X_Wifi_BLE_SDK/GD32VW55x_RELEASE_V1.0.2/MSDK/lwip/libcoap-4.3.4/src\coap_uri.c ****     ++seg;
 992              		.loc 1 432 5 is_stmt 1
 993 0140 0507     		addi	a4,a4,1
 994              	.LVL110:
 433:C:/Users/stapi/OneDrive/Desktop/GD32VW553/GD32VW55X_Wifi_BLE_SDK/GD32VW55x_RELEASE_V1.0.2/MSDK/lwip/libcoap-4.3.4/src\coap_uri.c ****   }
 995              		.loc 1 433 5
 996 0142 8504     		addi	s1,s1,1
 997              	.LVL111:
 998              	.L97:
 421:C:/Users/stapi/OneDrive/Desktop/GD32VW553/GD32VW55X_Wifi_BLE_SDK/GD32VW55x_RELEASE_V1.0.2/MSDK/lwip/libcoap-4.3.4/src\coap_uri.c **** 
 999              		.loc 1 421 9
 1000 0144 E31309FC 		bne	s2,zero,.L103
 1001              	.LVL112:
 1002              	.LBE20:
 1003              	.LBE22:
 519:C:/Users/stapi/OneDrive/Desktop/GD32VW553/GD32VW55X_Wifi_BLE_SDK/GD32VW55x_RELEASE_V1.0.2/MSDK/lwip/libcoap-4.3.4/src\coap_uri.c **** 
 1004              		.loc 1 519 3
 1005              	.LBE25:
 1006              	.LBE29:
 593:C:/Users/stapi/OneDrive/Desktop/GD32VW553/GD32VW55X_Wifi_BLE_SDK/GD32VW55x_RELEASE_V1.0.2/MSDK/lwip/libcoap-4.3.4/src\coap_uri.c ****     state->buf.length -= optionsize;
 1007              		.loc 1 593 18 is_stmt 0
 1008 0148 5C40     		lw	a5,4(s0)
 1009              	.LBB30:
 1010              	.LBB26:
 519:C:/Users/stapi/OneDrive/Desktop/GD32VW553/GD32VW55X_Wifi_BLE_SDK/GD32VW55x_RELEASE_V1.0.2/MSDK/lwip/libcoap-4.3.4/src\coap_uri.c **** 
 1011              		.loc 1 519 25
 1012 014a 5695     		add	a0,a0,s5
 1013              	.LVL113:
 521:C:/Users/stapi/OneDrive/Desktop/GD32VW553/GD32VW55X_Wifi_BLE_SDK/GD32VW55x_RELEASE_V1.0.2/MSDK/lwip/libcoap-4.3.4/src\coap_uri.c **** }
 1014              		.loc 1 521 3 is_stmt 1
 1015              	.LBE26:
 1016              	.LBE30:
 592:C:/Users/stapi/OneDrive/Desktop/GD32VW553/GD32VW55X_Wifi_BLE_SDK/GD32VW55x_RELEASE_V1.0.2/MSDK/lwip/libcoap-4.3.4/src\coap_uri.c ****     state->buf.s += optionsize;
 1017              		.loc 1 592 3
 593:C:/Users/stapi/OneDrive/Desktop/GD32VW553/GD32VW55X_Wifi_BLE_SDK/GD32VW55x_RELEASE_V1.0.2/MSDK/lwip/libcoap-4.3.4/src\coap_uri.c ****     state->buf.length -= optionsize;
 1018              		.loc 1 593 5
 594:C:/Users/stapi/OneDrive/Desktop/GD32VW553/GD32VW55X_Wifi_BLE_SDK/GD32VW55x_RELEASE_V1.0.2/MSDK/lwip/libcoap-4.3.4/src\coap_uri.c ****     state->n++;
 1019              		.loc 1 594 23 is_stmt 0
 1020 014c 1440     		lw	a3,0(s0)
 593:C:/Users/stapi/OneDrive/Desktop/GD32VW553/GD32VW55X_Wifi_BLE_SDK/GD32VW55x_RELEASE_V1.0.2/MSDK/lwip/libcoap-4.3.4/src\coap_uri.c ****     state->buf.length -= optionsize;
 1021              		.loc 1 593 18
 1022 014e AA97     		add	a5,a5,a0
 1023 0150 5CC0     		sw	a5,4(s0)
 594:C:/Users/stapi/OneDrive/Desktop/GD32VW553/GD32VW55X_Wifi_BLE_SDK/GD32VW55x_RELEASE_V1.0.2/MSDK/lwip/libcoap-4.3.4/src\coap_uri.c ****     state->n++;
 1024              		.loc 1 594 5 is_stmt 1
 595:C:/Users/stapi/OneDrive/Desktop/GD32VW553/GD32VW55X_Wifi_BLE_SDK/GD32VW55x_RELEASE_V1.0.2/MSDK/lwip/libcoap-4.3.4/src\coap_uri.c ****   }
 1025              		.loc 1 595 13 is_stmt 0
 1026 0152 1C44     		lw	a5,8(s0)
 594:C:/Users/stapi/OneDrive/Desktop/GD32VW553/GD32VW55X_Wifi_BLE_SDK/GD32VW55x_RELEASE_V1.0.2/MSDK/lwip/libcoap-4.3.4/src\coap_uri.c ****     state->n++;
 1027              		.loc 1 594 23
 1028 0154 3385A640 		sub	a0,a3,a0
 1029              	.LVL114:
 1030 0158 08C0     		sw	a0,0(s0)
 595:C:/Users/stapi/OneDrive/Desktop/GD32VW553/GD32VW55X_Wifi_BLE_SDK/GD32VW55x_RELEASE_V1.0.2/MSDK/lwip/libcoap-4.3.4/src\coap_uri.c ****   }
 1031              		.loc 1 595 5 is_stmt 1
 595:C:/Users/stapi/OneDrive/Desktop/GD32VW553/GD32VW55X_Wifi_BLE_SDK/GD32VW55x_RELEASE_V1.0.2/MSDK/lwip/libcoap-4.3.4/src\coap_uri.c ****   }
 1032              		.loc 1 595 13 is_stmt 0
 1033 015a 8507     		addi	a5,a5,1
 1034 015c 1CC4     		sw	a5,8(s0)
 1035              	.LVL115:
 1036              		.loc 1 597 1
 1037 015e FDBD     		j	.L88
 1038              	.LVL116:
 1039              	.L98:
 1040              	.LBB31:
 1041              	.LBB27:
 1042              	.LBB23:
 1043              	.LBB21:
 421:C:/Users/stapi/OneDrive/Desktop/GD32VW553/GD32VW55X_Wifi_BLE_SDK/GD32VW55x_RELEASE_V1.0.2/MSDK/lwip/libcoap-4.3.4/src\coap_uri.c **** 
 1044              		.loc 1 421 16
 1045 0160 7D19     		addi	s2,s2,-1
 1046              	.LVL117:
 429:C:/Users/stapi/OneDrive/Desktop/GD32VW553/GD32VW55X_Wifi_BLE_SDK/GD32VW55x_RELEASE_V1.0.2/MSDK/lwip/libcoap-4.3.4/src\coap_uri.c ****     }
 1047              		.loc 1 429 7 is_stmt 1
 429:C:/Users/stapi/OneDrive/Desktop/GD32VW553/GD32VW55X_Wifi_BLE_SDK/GD32VW55x_RELEASE_V1.0.2/MSDK/lwip/libcoap-4.3.4/src\coap_uri.c ****     }
 1048              		.loc 1 429 12 is_stmt 0
 1049 0162 2300F700 		sb	a5,0(a4)
 1050 0166 E9BF     		j	.L102
 1051              	.LBE21:
 1052              	.LBE23:
 1053              	.LBE27:
 1054              	.LBE31:
 1055              		.cfi_endproc
 1056              	.LFE42:
 1058              		.section	.text.is_unescaped_in_path,"ax",@progbits
 1059              		.align	1
 1061              	is_unescaped_in_path:
 1062              	.LFB48:
 598:C:/Users/stapi/OneDrive/Desktop/GD32VW553/GD32VW55X_Wifi_BLE_SDK/GD32VW55x_RELEASE_V1.0.2/MSDK/lwip/libcoap-4.3.4/src\coap_uri.c **** 
 599:C:/Users/stapi/OneDrive/Desktop/GD32VW553/GD32VW55X_Wifi_BLE_SDK/GD32VW55x_RELEASE_V1.0.2/MSDK/lwip/libcoap-4.3.4/src\coap_uri.c **** int
 600:C:/Users/stapi/OneDrive/Desktop/GD32VW553/GD32VW55X_Wifi_BLE_SDK/GD32VW55x_RELEASE_V1.0.2/MSDK/lwip/libcoap-4.3.4/src\coap_uri.c **** coap_split_path(const uint8_t *s, size_t length,
 601:C:/Users/stapi/OneDrive/Desktop/GD32VW553/GD32VW55X_Wifi_BLE_SDK/GD32VW55x_RELEASE_V1.0.2/MSDK/lwip/libcoap-4.3.4/src\coap_uri.c ****                 unsigned char *buf, size_t *buflen) {
 602:C:/Users/stapi/OneDrive/Desktop/GD32VW553/GD32VW55X_Wifi_BLE_SDK/GD32VW55x_RELEASE_V1.0.2/MSDK/lwip/libcoap-4.3.4/src\coap_uri.c ****   struct cnt_str tmp = { { *buflen, buf }, 0 };
 603:C:/Users/stapi/OneDrive/Desktop/GD32VW553/GD32VW55X_Wifi_BLE_SDK/GD32VW55x_RELEASE_V1.0.2/MSDK/lwip/libcoap-4.3.4/src\coap_uri.c **** 
 604:C:/Users/stapi/OneDrive/Desktop/GD32VW553/GD32VW55X_Wifi_BLE_SDK/GD32VW55x_RELEASE_V1.0.2/MSDK/lwip/libcoap-4.3.4/src\coap_uri.c ****   coap_split_path_impl(s, length, write_option, &tmp);
 605:C:/Users/stapi/OneDrive/Desktop/GD32VW553/GD32VW55X_Wifi_BLE_SDK/GD32VW55x_RELEASE_V1.0.2/MSDK/lwip/libcoap-4.3.4/src\coap_uri.c **** 
 606:C:/Users/stapi/OneDrive/Desktop/GD32VW553/GD32VW55X_Wifi_BLE_SDK/GD32VW55x_RELEASE_V1.0.2/MSDK/lwip/libcoap-4.3.4/src\coap_uri.c ****   *buflen = *buflen - tmp.buf.length;
 607:C:/Users/stapi/OneDrive/Desktop/GD32VW553/GD32VW55X_Wifi_BLE_SDK/GD32VW55x_RELEASE_V1.0.2/MSDK/lwip/libcoap-4.3.4/src\coap_uri.c **** 
 608:C:/Users/stapi/OneDrive/Desktop/GD32VW553/GD32VW55X_Wifi_BLE_SDK/GD32VW55x_RELEASE_V1.0.2/MSDK/lwip/libcoap-4.3.4/src\coap_uri.c ****   return tmp.n;
 609:C:/Users/stapi/OneDrive/Desktop/GD32VW553/GD32VW55X_Wifi_BLE_SDK/GD32VW55x_RELEASE_V1.0.2/MSDK/lwip/libcoap-4.3.4/src\coap_uri.c **** }
 610:C:/Users/stapi/OneDrive/Desktop/GD32VW553/GD32VW55X_Wifi_BLE_SDK/GD32VW55x_RELEASE_V1.0.2/MSDK/lwip/libcoap-4.3.4/src\coap_uri.c **** 
 611:C:/Users/stapi/OneDrive/Desktop/GD32VW553/GD32VW55X_Wifi_BLE_SDK/GD32VW55x_RELEASE_V1.0.2/MSDK/lwip/libcoap-4.3.4/src\coap_uri.c **** int
 612:C:/Users/stapi/OneDrive/Desktop/GD32VW553/GD32VW55X_Wifi_BLE_SDK/GD32VW55x_RELEASE_V1.0.2/MSDK/lwip/libcoap-4.3.4/src\coap_uri.c **** coap_split_query(const uint8_t *s, size_t length,
 613:C:/Users/stapi/OneDrive/Desktop/GD32VW553/GD32VW55X_Wifi_BLE_SDK/GD32VW55x_RELEASE_V1.0.2/MSDK/lwip/libcoap-4.3.4/src\coap_uri.c ****                  unsigned char *buf, size_t *buflen) {
 614:C:/Users/stapi/OneDrive/Desktop/GD32VW553/GD32VW55X_Wifi_BLE_SDK/GD32VW55x_RELEASE_V1.0.2/MSDK/lwip/libcoap-4.3.4/src\coap_uri.c ****   struct cnt_str tmp = { { *buflen, buf }, 0 };
 615:C:/Users/stapi/OneDrive/Desktop/GD32VW553/GD32VW55X_Wifi_BLE_SDK/GD32VW55x_RELEASE_V1.0.2/MSDK/lwip/libcoap-4.3.4/src\coap_uri.c ****   const uint8_t *p;
 616:C:/Users/stapi/OneDrive/Desktop/GD32VW553/GD32VW55X_Wifi_BLE_SDK/GD32VW55x_RELEASE_V1.0.2/MSDK/lwip/libcoap-4.3.4/src\coap_uri.c **** 
 617:C:/Users/stapi/OneDrive/Desktop/GD32VW553/GD32VW55X_Wifi_BLE_SDK/GD32VW55x_RELEASE_V1.0.2/MSDK/lwip/libcoap-4.3.4/src\coap_uri.c ****   p = s;
 618:C:/Users/stapi/OneDrive/Desktop/GD32VW553/GD32VW55X_Wifi_BLE_SDK/GD32VW55x_RELEASE_V1.0.2/MSDK/lwip/libcoap-4.3.4/src\coap_uri.c ****   while (length > 0 && *s != '#') {
 619:C:/Users/stapi/OneDrive/Desktop/GD32VW553/GD32VW55X_Wifi_BLE_SDK/GD32VW55x_RELEASE_V1.0.2/MSDK/lwip/libcoap-4.3.4/src\coap_uri.c ****     if (*s == '&') {                /* start new query element */
 620:C:/Users/stapi/OneDrive/Desktop/GD32VW553/GD32VW55X_Wifi_BLE_SDK/GD32VW55x_RELEASE_V1.0.2/MSDK/lwip/libcoap-4.3.4/src\coap_uri.c ****       write_option(p, s - p, &tmp);
 621:C:/Users/stapi/OneDrive/Desktop/GD32VW553/GD32VW55X_Wifi_BLE_SDK/GD32VW55x_RELEASE_V1.0.2/MSDK/lwip/libcoap-4.3.4/src\coap_uri.c ****       p = s + 1;
 622:C:/Users/stapi/OneDrive/Desktop/GD32VW553/GD32VW55X_Wifi_BLE_SDK/GD32VW55x_RELEASE_V1.0.2/MSDK/lwip/libcoap-4.3.4/src\coap_uri.c ****     }
 623:C:/Users/stapi/OneDrive/Desktop/GD32VW553/GD32VW55X_Wifi_BLE_SDK/GD32VW55x_RELEASE_V1.0.2/MSDK/lwip/libcoap-4.3.4/src\coap_uri.c **** 
 624:C:/Users/stapi/OneDrive/Desktop/GD32VW553/GD32VW55X_Wifi_BLE_SDK/GD32VW55x_RELEASE_V1.0.2/MSDK/lwip/libcoap-4.3.4/src\coap_uri.c ****     s++;
 625:C:/Users/stapi/OneDrive/Desktop/GD32VW553/GD32VW55X_Wifi_BLE_SDK/GD32VW55x_RELEASE_V1.0.2/MSDK/lwip/libcoap-4.3.4/src\coap_uri.c ****     length--;
 626:C:/Users/stapi/OneDrive/Desktop/GD32VW553/GD32VW55X_Wifi_BLE_SDK/GD32VW55x_RELEASE_V1.0.2/MSDK/lwip/libcoap-4.3.4/src\coap_uri.c ****   }
 627:C:/Users/stapi/OneDrive/Desktop/GD32VW553/GD32VW55X_Wifi_BLE_SDK/GD32VW55x_RELEASE_V1.0.2/MSDK/lwip/libcoap-4.3.4/src\coap_uri.c **** 
 628:C:/Users/stapi/OneDrive/Desktop/GD32VW553/GD32VW55X_Wifi_BLE_SDK/GD32VW55x_RELEASE_V1.0.2/MSDK/lwip/libcoap-4.3.4/src\coap_uri.c ****   /* write last query element */
 629:C:/Users/stapi/OneDrive/Desktop/GD32VW553/GD32VW55X_Wifi_BLE_SDK/GD32VW55x_RELEASE_V1.0.2/MSDK/lwip/libcoap-4.3.4/src\coap_uri.c ****   write_option(p, s - p, &tmp);
 630:C:/Users/stapi/OneDrive/Desktop/GD32VW553/GD32VW55X_Wifi_BLE_SDK/GD32VW55x_RELEASE_V1.0.2/MSDK/lwip/libcoap-4.3.4/src\coap_uri.c **** 
 631:C:/Users/stapi/OneDrive/Desktop/GD32VW553/GD32VW55X_Wifi_BLE_SDK/GD32VW55x_RELEASE_V1.0.2/MSDK/lwip/libcoap-4.3.4/src\coap_uri.c ****   *buflen = *buflen - tmp.buf.length;
 632:C:/Users/stapi/OneDrive/Desktop/GD32VW553/GD32VW55X_Wifi_BLE_SDK/GD32VW55x_RELEASE_V1.0.2/MSDK/lwip/libcoap-4.3.4/src\coap_uri.c ****   return tmp.n;
 633:C:/Users/stapi/OneDrive/Desktop/GD32VW553/GD32VW55X_Wifi_BLE_SDK/GD32VW55x_RELEASE_V1.0.2/MSDK/lwip/libcoap-4.3.4/src\coap_uri.c **** }
 634:C:/Users/stapi/OneDrive/Desktop/GD32VW553/GD32VW55X_Wifi_BLE_SDK/GD32VW55x_RELEASE_V1.0.2/MSDK/lwip/libcoap-4.3.4/src\coap_uri.c **** 
 635:C:/Users/stapi/OneDrive/Desktop/GD32VW553/GD32VW55X_Wifi_BLE_SDK/GD32VW55x_RELEASE_V1.0.2/MSDK/lwip/libcoap-4.3.4/src\coap_uri.c **** #define URI_DATA(uriobj) ((unsigned char *)(uriobj) + sizeof(coap_uri_t))
 636:C:/Users/stapi/OneDrive/Desktop/GD32VW553/GD32VW55X_Wifi_BLE_SDK/GD32VW55x_RELEASE_V1.0.2/MSDK/lwip/libcoap-4.3.4/src\coap_uri.c **** 
 637:C:/Users/stapi/OneDrive/Desktop/GD32VW553/GD32VW55X_Wifi_BLE_SDK/GD32VW55x_RELEASE_V1.0.2/MSDK/lwip/libcoap-4.3.4/src\coap_uri.c **** coap_uri_t *
 638:C:/Users/stapi/OneDrive/Desktop/GD32VW553/GD32VW55X_Wifi_BLE_SDK/GD32VW55x_RELEASE_V1.0.2/MSDK/lwip/libcoap-4.3.4/src\coap_uri.c **** coap_new_uri(const uint8_t *uri, unsigned int length) {
 639:C:/Users/stapi/OneDrive/Desktop/GD32VW553/GD32VW55X_Wifi_BLE_SDK/GD32VW55x_RELEASE_V1.0.2/MSDK/lwip/libcoap-4.3.4/src\coap_uri.c ****   unsigned char *result;
 640:C:/Users/stapi/OneDrive/Desktop/GD32VW553/GD32VW55X_Wifi_BLE_SDK/GD32VW55x_RELEASE_V1.0.2/MSDK/lwip/libcoap-4.3.4/src\coap_uri.c **** 
 641:C:/Users/stapi/OneDrive/Desktop/GD32VW553/GD32VW55X_Wifi_BLE_SDK/GD32VW55x_RELEASE_V1.0.2/MSDK/lwip/libcoap-4.3.4/src\coap_uri.c ****   result = (unsigned char *)coap_malloc_type(COAP_STRING, length + 1 + sizeof(coap_uri_t));
 642:C:/Users/stapi/OneDrive/Desktop/GD32VW553/GD32VW55X_Wifi_BLE_SDK/GD32VW55x_RELEASE_V1.0.2/MSDK/lwip/libcoap-4.3.4/src\coap_uri.c **** 
 643:C:/Users/stapi/OneDrive/Desktop/GD32VW553/GD32VW55X_Wifi_BLE_SDK/GD32VW55x_RELEASE_V1.0.2/MSDK/lwip/libcoap-4.3.4/src\coap_uri.c ****   if (!result)
 644:C:/Users/stapi/OneDrive/Desktop/GD32VW553/GD32VW55X_Wifi_BLE_SDK/GD32VW55x_RELEASE_V1.0.2/MSDK/lwip/libcoap-4.3.4/src\coap_uri.c ****     return NULL;
 645:C:/Users/stapi/OneDrive/Desktop/GD32VW553/GD32VW55X_Wifi_BLE_SDK/GD32VW55x_RELEASE_V1.0.2/MSDK/lwip/libcoap-4.3.4/src\coap_uri.c **** 
 646:C:/Users/stapi/OneDrive/Desktop/GD32VW553/GD32VW55X_Wifi_BLE_SDK/GD32VW55x_RELEASE_V1.0.2/MSDK/lwip/libcoap-4.3.4/src\coap_uri.c ****   memcpy(URI_DATA(result), uri, length);
 647:C:/Users/stapi/OneDrive/Desktop/GD32VW553/GD32VW55X_Wifi_BLE_SDK/GD32VW55x_RELEASE_V1.0.2/MSDK/lwip/libcoap-4.3.4/src\coap_uri.c ****   URI_DATA(result)[length] = '\0'; /* make it zero-terminated */
 648:C:/Users/stapi/OneDrive/Desktop/GD32VW553/GD32VW55X_Wifi_BLE_SDK/GD32VW55x_RELEASE_V1.0.2/MSDK/lwip/libcoap-4.3.4/src\coap_uri.c **** 
 649:C:/Users/stapi/OneDrive/Desktop/GD32VW553/GD32VW55X_Wifi_BLE_SDK/GD32VW55x_RELEASE_V1.0.2/MSDK/lwip/libcoap-4.3.4/src\coap_uri.c ****   if (coap_split_uri(URI_DATA(result), length, (coap_uri_t *)result) < 0) {
 650:C:/Users/stapi/OneDrive/Desktop/GD32VW553/GD32VW55X_Wifi_BLE_SDK/GD32VW55x_RELEASE_V1.0.2/MSDK/lwip/libcoap-4.3.4/src\coap_uri.c ****     coap_free_type(COAP_STRING, result);
 651:C:/Users/stapi/OneDrive/Desktop/GD32VW553/GD32VW55X_Wifi_BLE_SDK/GD32VW55x_RELEASE_V1.0.2/MSDK/lwip/libcoap-4.3.4/src\coap_uri.c ****     return NULL;
 652:C:/Users/stapi/OneDrive/Desktop/GD32VW553/GD32VW55X_Wifi_BLE_SDK/GD32VW55x_RELEASE_V1.0.2/MSDK/lwip/libcoap-4.3.4/src\coap_uri.c ****   }
 653:C:/Users/stapi/OneDrive/Desktop/GD32VW553/GD32VW55X_Wifi_BLE_SDK/GD32VW55x_RELEASE_V1.0.2/MSDK/lwip/libcoap-4.3.4/src\coap_uri.c ****   return (coap_uri_t *)result;
 654:C:/Users/stapi/OneDrive/Desktop/GD32VW553/GD32VW55X_Wifi_BLE_SDK/GD32VW55x_RELEASE_V1.0.2/MSDK/lwip/libcoap-4.3.4/src\coap_uri.c **** }
 655:C:/Users/stapi/OneDrive/Desktop/GD32VW553/GD32VW55X_Wifi_BLE_SDK/GD32VW55x_RELEASE_V1.0.2/MSDK/lwip/libcoap-4.3.4/src\coap_uri.c **** 
 656:C:/Users/stapi/OneDrive/Desktop/GD32VW553/GD32VW55X_Wifi_BLE_SDK/GD32VW55x_RELEASE_V1.0.2/MSDK/lwip/libcoap-4.3.4/src\coap_uri.c **** coap_uri_t *
 657:C:/Users/stapi/OneDrive/Desktop/GD32VW553/GD32VW55X_Wifi_BLE_SDK/GD32VW55x_RELEASE_V1.0.2/MSDK/lwip/libcoap-4.3.4/src\coap_uri.c **** coap_clone_uri(const coap_uri_t *uri) {
 658:C:/Users/stapi/OneDrive/Desktop/GD32VW553/GD32VW55X_Wifi_BLE_SDK/GD32VW55x_RELEASE_V1.0.2/MSDK/lwip/libcoap-4.3.4/src\coap_uri.c ****   coap_uri_t *result;
 659:C:/Users/stapi/OneDrive/Desktop/GD32VW553/GD32VW55X_Wifi_BLE_SDK/GD32VW55x_RELEASE_V1.0.2/MSDK/lwip/libcoap-4.3.4/src\coap_uri.c ****   uint8_t *p;
 660:C:/Users/stapi/OneDrive/Desktop/GD32VW553/GD32VW55X_Wifi_BLE_SDK/GD32VW55x_RELEASE_V1.0.2/MSDK/lwip/libcoap-4.3.4/src\coap_uri.c **** 
 661:C:/Users/stapi/OneDrive/Desktop/GD32VW553/GD32VW55X_Wifi_BLE_SDK/GD32VW55x_RELEASE_V1.0.2/MSDK/lwip/libcoap-4.3.4/src\coap_uri.c ****   if (!uri)
 662:C:/Users/stapi/OneDrive/Desktop/GD32VW553/GD32VW55X_Wifi_BLE_SDK/GD32VW55x_RELEASE_V1.0.2/MSDK/lwip/libcoap-4.3.4/src\coap_uri.c ****     return  NULL;
 663:C:/Users/stapi/OneDrive/Desktop/GD32VW553/GD32VW55X_Wifi_BLE_SDK/GD32VW55x_RELEASE_V1.0.2/MSDK/lwip/libcoap-4.3.4/src\coap_uri.c **** 
 664:C:/Users/stapi/OneDrive/Desktop/GD32VW553/GD32VW55X_Wifi_BLE_SDK/GD32VW55x_RELEASE_V1.0.2/MSDK/lwip/libcoap-4.3.4/src\coap_uri.c ****   result = (coap_uri_t *)coap_malloc_type(COAP_STRING,  uri->query.length + uri->host.length +
 665:C:/Users/stapi/OneDrive/Desktop/GD32VW553/GD32VW55X_Wifi_BLE_SDK/GD32VW55x_RELEASE_V1.0.2/MSDK/lwip/libcoap-4.3.4/src\coap_uri.c ****                                           uri->path.length + sizeof(coap_uri_t) + 1);
 666:C:/Users/stapi/OneDrive/Desktop/GD32VW553/GD32VW55X_Wifi_BLE_SDK/GD32VW55x_RELEASE_V1.0.2/MSDK/lwip/libcoap-4.3.4/src\coap_uri.c **** 
 667:C:/Users/stapi/OneDrive/Desktop/GD32VW553/GD32VW55X_Wifi_BLE_SDK/GD32VW55x_RELEASE_V1.0.2/MSDK/lwip/libcoap-4.3.4/src\coap_uri.c ****   if (!result)
 668:C:/Users/stapi/OneDrive/Desktop/GD32VW553/GD32VW55X_Wifi_BLE_SDK/GD32VW55x_RELEASE_V1.0.2/MSDK/lwip/libcoap-4.3.4/src\coap_uri.c ****     return NULL;
 669:C:/Users/stapi/OneDrive/Desktop/GD32VW553/GD32VW55X_Wifi_BLE_SDK/GD32VW55x_RELEASE_V1.0.2/MSDK/lwip/libcoap-4.3.4/src\coap_uri.c **** 
 670:C:/Users/stapi/OneDrive/Desktop/GD32VW553/GD32VW55X_Wifi_BLE_SDK/GD32VW55x_RELEASE_V1.0.2/MSDK/lwip/libcoap-4.3.4/src\coap_uri.c ****   memset(result, 0, sizeof(coap_uri_t));
 671:C:/Users/stapi/OneDrive/Desktop/GD32VW553/GD32VW55X_Wifi_BLE_SDK/GD32VW55x_RELEASE_V1.0.2/MSDK/lwip/libcoap-4.3.4/src\coap_uri.c **** 
 672:C:/Users/stapi/OneDrive/Desktop/GD32VW553/GD32VW55X_Wifi_BLE_SDK/GD32VW55x_RELEASE_V1.0.2/MSDK/lwip/libcoap-4.3.4/src\coap_uri.c ****   result->port = uri->port;
 673:C:/Users/stapi/OneDrive/Desktop/GD32VW553/GD32VW55X_Wifi_BLE_SDK/GD32VW55x_RELEASE_V1.0.2/MSDK/lwip/libcoap-4.3.4/src\coap_uri.c **** 
 674:C:/Users/stapi/OneDrive/Desktop/GD32VW553/GD32VW55X_Wifi_BLE_SDK/GD32VW55x_RELEASE_V1.0.2/MSDK/lwip/libcoap-4.3.4/src\coap_uri.c ****   if (uri->host.length) {
 675:C:/Users/stapi/OneDrive/Desktop/GD32VW553/GD32VW55X_Wifi_BLE_SDK/GD32VW55x_RELEASE_V1.0.2/MSDK/lwip/libcoap-4.3.4/src\coap_uri.c ****     result->host.s = p = URI_DATA(result);
 676:C:/Users/stapi/OneDrive/Desktop/GD32VW553/GD32VW55X_Wifi_BLE_SDK/GD32VW55x_RELEASE_V1.0.2/MSDK/lwip/libcoap-4.3.4/src\coap_uri.c ****     result->host.length = uri->host.length;
 677:C:/Users/stapi/OneDrive/Desktop/GD32VW553/GD32VW55X_Wifi_BLE_SDK/GD32VW55x_RELEASE_V1.0.2/MSDK/lwip/libcoap-4.3.4/src\coap_uri.c **** 
 678:C:/Users/stapi/OneDrive/Desktop/GD32VW553/GD32VW55X_Wifi_BLE_SDK/GD32VW55x_RELEASE_V1.0.2/MSDK/lwip/libcoap-4.3.4/src\coap_uri.c ****     memcpy(p, uri->host.s, uri->host.length);
 679:C:/Users/stapi/OneDrive/Desktop/GD32VW553/GD32VW55X_Wifi_BLE_SDK/GD32VW55x_RELEASE_V1.0.2/MSDK/lwip/libcoap-4.3.4/src\coap_uri.c ****   }
 680:C:/Users/stapi/OneDrive/Desktop/GD32VW553/GD32VW55X_Wifi_BLE_SDK/GD32VW55x_RELEASE_V1.0.2/MSDK/lwip/libcoap-4.3.4/src\coap_uri.c **** 
 681:C:/Users/stapi/OneDrive/Desktop/GD32VW553/GD32VW55X_Wifi_BLE_SDK/GD32VW55x_RELEASE_V1.0.2/MSDK/lwip/libcoap-4.3.4/src\coap_uri.c ****   if (uri->path.length) {
 682:C:/Users/stapi/OneDrive/Desktop/GD32VW553/GD32VW55X_Wifi_BLE_SDK/GD32VW55x_RELEASE_V1.0.2/MSDK/lwip/libcoap-4.3.4/src\coap_uri.c ****     result->path.s = p = URI_DATA(result) + uri->host.length;
 683:C:/Users/stapi/OneDrive/Desktop/GD32VW553/GD32VW55X_Wifi_BLE_SDK/GD32VW55x_RELEASE_V1.0.2/MSDK/lwip/libcoap-4.3.4/src\coap_uri.c ****     result->path.length = uri->path.length;
 684:C:/Users/stapi/OneDrive/Desktop/GD32VW553/GD32VW55X_Wifi_BLE_SDK/GD32VW55x_RELEASE_V1.0.2/MSDK/lwip/libcoap-4.3.4/src\coap_uri.c **** 
 685:C:/Users/stapi/OneDrive/Desktop/GD32VW553/GD32VW55X_Wifi_BLE_SDK/GD32VW55x_RELEASE_V1.0.2/MSDK/lwip/libcoap-4.3.4/src\coap_uri.c ****     memcpy(p, uri->path.s, uri->path.length);
 686:C:/Users/stapi/OneDrive/Desktop/GD32VW553/GD32VW55X_Wifi_BLE_SDK/GD32VW55x_RELEASE_V1.0.2/MSDK/lwip/libcoap-4.3.4/src\coap_uri.c ****   }
 687:C:/Users/stapi/OneDrive/Desktop/GD32VW553/GD32VW55X_Wifi_BLE_SDK/GD32VW55x_RELEASE_V1.0.2/MSDK/lwip/libcoap-4.3.4/src\coap_uri.c **** 
 688:C:/Users/stapi/OneDrive/Desktop/GD32VW553/GD32VW55X_Wifi_BLE_SDK/GD32VW55x_RELEASE_V1.0.2/MSDK/lwip/libcoap-4.3.4/src\coap_uri.c ****   if (uri->query.length) {
 689:C:/Users/stapi/OneDrive/Desktop/GD32VW553/GD32VW55X_Wifi_BLE_SDK/GD32VW55x_RELEASE_V1.0.2/MSDK/lwip/libcoap-4.3.4/src\coap_uri.c ****     result->query.s = p = URI_DATA(result) + uri->host.length + uri->path.length;
 690:C:/Users/stapi/OneDrive/Desktop/GD32VW553/GD32VW55X_Wifi_BLE_SDK/GD32VW55x_RELEASE_V1.0.2/MSDK/lwip/libcoap-4.3.4/src\coap_uri.c ****     result->query.length = uri->query.length;
 691:C:/Users/stapi/OneDrive/Desktop/GD32VW553/GD32VW55X_Wifi_BLE_SDK/GD32VW55x_RELEASE_V1.0.2/MSDK/lwip/libcoap-4.3.4/src\coap_uri.c **** 
 692:C:/Users/stapi/OneDrive/Desktop/GD32VW553/GD32VW55X_Wifi_BLE_SDK/GD32VW55x_RELEASE_V1.0.2/MSDK/lwip/libcoap-4.3.4/src\coap_uri.c ****     memcpy(p, uri->query.s, uri->query.length);
 693:C:/Users/stapi/OneDrive/Desktop/GD32VW553/GD32VW55X_Wifi_BLE_SDK/GD32VW55x_RELEASE_V1.0.2/MSDK/lwip/libcoap-4.3.4/src\coap_uri.c ****   }
 694:C:/Users/stapi/OneDrive/Desktop/GD32VW553/GD32VW55X_Wifi_BLE_SDK/GD32VW55x_RELEASE_V1.0.2/MSDK/lwip/libcoap-4.3.4/src\coap_uri.c **** 
 695:C:/Users/stapi/OneDrive/Desktop/GD32VW553/GD32VW55X_Wifi_BLE_SDK/GD32VW55x_RELEASE_V1.0.2/MSDK/lwip/libcoap-4.3.4/src\coap_uri.c ****   return result;
 696:C:/Users/stapi/OneDrive/Desktop/GD32VW553/GD32VW55X_Wifi_BLE_SDK/GD32VW55x_RELEASE_V1.0.2/MSDK/lwip/libcoap-4.3.4/src\coap_uri.c **** }
 697:C:/Users/stapi/OneDrive/Desktop/GD32VW553/GD32VW55X_Wifi_BLE_SDK/GD32VW55x_RELEASE_V1.0.2/MSDK/lwip/libcoap-4.3.4/src\coap_uri.c **** 
 698:C:/Users/stapi/OneDrive/Desktop/GD32VW553/GD32VW55X_Wifi_BLE_SDK/GD32VW55x_RELEASE_V1.0.2/MSDK/lwip/libcoap-4.3.4/src\coap_uri.c **** void
 699:C:/Users/stapi/OneDrive/Desktop/GD32VW553/GD32VW55X_Wifi_BLE_SDK/GD32VW55x_RELEASE_V1.0.2/MSDK/lwip/libcoap-4.3.4/src\coap_uri.c **** coap_delete_uri(coap_uri_t *uri) {
 700:C:/Users/stapi/OneDrive/Desktop/GD32VW553/GD32VW55X_Wifi_BLE_SDK/GD32VW55x_RELEASE_V1.0.2/MSDK/lwip/libcoap-4.3.4/src\coap_uri.c ****   coap_free_type(COAP_STRING, uri);
 701:C:/Users/stapi/OneDrive/Desktop/GD32VW553/GD32VW55X_Wifi_BLE_SDK/GD32VW55x_RELEASE_V1.0.2/MSDK/lwip/libcoap-4.3.4/src\coap_uri.c **** }
 702:C:/Users/stapi/OneDrive/Desktop/GD32VW553/GD32VW55X_Wifi_BLE_SDK/GD32VW55x_RELEASE_V1.0.2/MSDK/lwip/libcoap-4.3.4/src\coap_uri.c **** 
 703:C:/Users/stapi/OneDrive/Desktop/GD32VW553/GD32VW55X_Wifi_BLE_SDK/GD32VW55x_RELEASE_V1.0.2/MSDK/lwip/libcoap-4.3.4/src\coap_uri.c **** COAP_STATIC_INLINE int
 704:C:/Users/stapi/OneDrive/Desktop/GD32VW553/GD32VW55X_Wifi_BLE_SDK/GD32VW55x_RELEASE_V1.0.2/MSDK/lwip/libcoap-4.3.4/src\coap_uri.c **** is_unescaped_in_path(const uint8_t c) {
 1063              		.loc 1 704 39 is_stmt 1
 1064              		.cfi_startproc
 1065              	.LVL118:
 705:C:/Users/stapi/OneDrive/Desktop/GD32VW553/GD32VW55X_Wifi_BLE_SDK/GD32VW55x_RELEASE_V1.0.2/MSDK/lwip/libcoap-4.3.4/src\coap_uri.c ****   return (c >= 'A' && c <= 'Z') || (c >= 'a' && c <= 'z') ||
 1066              		.loc 1 705 3
 706:C:/Users/stapi/OneDrive/Desktop/GD32VW553/GD32VW55X_Wifi_BLE_SDK/GD32VW55x_RELEASE_V1.0.2/MSDK/lwip/libcoap-4.3.4/src\coap_uri.c ****          (c >= '0' && c <= '9') || c == '-' || c == '.' || c == '_' ||
 1067              		.loc 1 706 57 is_stmt 0
 1068 0000 130715FA 		addi	a4,a0,-95
 1069 0004 9376F70F 		andi	a3,a4,0xff
 1070 0008 7D47     		li	a4,31
 704:C:/Users/stapi/OneDrive/Desktop/GD32VW553/GD32VW55X_Wifi_BLE_SDK/GD32VW55x_RELEASE_V1.0.2/MSDK/lwip/libcoap-4.3.4/src\coap_uri.c ****   return (c >= 'A' && c <= 'Z') || (c >= 'a' && c <= 'z') ||
 1071              		.loc 1 704 39
 1072 000a AA87     		mv	a5,a0
 1073              		.loc 1 706 57
 1074 000c 636BD700 		bgtu	a3,a4,.L122
 1075              		.loc 1 706 57 discriminator 2
 1076 0010 37070090 		li	a4,-1879048192
 1077 0014 7517     		addi	a4,a4,-3
 1078 0016 3357D700 		srl	a4,a4,a3
 707:C:/Users/stapi/OneDrive/Desktop/GD32VW553/GD32VW55X_Wifi_BLE_SDK/GD32VW55x_RELEASE_V1.0.2/MSDK/lwip/libcoap-4.3.4/src\coap_uri.c ****          c == '~' || c == '!' || c == '$' || c == '\'' || c == '(' ||
 708:C:/Users/stapi/OneDrive/Desktop/GD32VW553/GD32VW55X_Wifi_BLE_SDK/GD32VW55x_RELEASE_V1.0.2/MSDK/lwip/libcoap-4.3.4/src\coap_uri.c ****          c == ')' || c == '*' || c == '+' || c == ',' || c == ';' ||
 709:C:/Users/stapi/OneDrive/Desktop/GD32VW553/GD32VW55X_Wifi_BLE_SDK/GD32VW55x_RELEASE_V1.0.2/MSDK/lwip/libcoap-4.3.4/src\coap_uri.c ****          c=='=' || c==':' || c=='@' || c == '&';
 1079              		.loc 1 709 37 discriminator 2
 1080 001a 0545     		li	a0,1
 1081              	.LVL119:
 706:C:/Users/stapi/OneDrive/Desktop/GD32VW553/GD32VW55X_Wifi_BLE_SDK/GD32VW55x_RELEASE_V1.0.2/MSDK/lwip/libcoap-4.3.4/src\coap_uri.c ****          c == '~' || c == '!' || c == '$' || c == '\'' || c == '(' ||
 1082              		.loc 1 706 57 discriminator 2
 1083 001c 13570748 		bexti	a4,a4,0
 1084 0020 0DE7     		bne	a4,zero,.L121
 1085              	.L122:
 707:C:/Users/stapi/OneDrive/Desktop/GD32VW553/GD32VW55X_Wifi_BLE_SDK/GD32VW55x_RELEASE_V1.0.2/MSDK/lwip/libcoap-4.3.4/src\coap_uri.c ****          c == '~' || c == '!' || c == '$' || c == '\'' || c == '(' ||
 1086              		.loc 1 707 19
 1087 0022 1387F7FD 		addi	a4,a5,-33
 1088 0026 9376F70F 		andi	a3,a4,0xff
 1089 002a 7147     		li	a4,28
 1090 002c 636BD700 		bgtu	a3,a4,.L124
 1091 0030 37C7FF17 		li	a4,402636800
 1092 0034 2517     		addi	a4,a4,-23
 1093 0036 3357D700 		srl	a4,a4,a3
 1094              		.loc 1 709 37
 1095 003a 0545     		li	a0,1
 707:C:/Users/stapi/OneDrive/Desktop/GD32VW553/GD32VW55X_Wifi_BLE_SDK/GD32VW55x_RELEASE_V1.0.2/MSDK/lwip/libcoap-4.3.4/src\coap_uri.c ****          c == '~' || c == '!' || c == '$' || c == '\'' || c == '(' ||
 1096              		.loc 1 707 19
 1097 003c 13570748 		bexti	a4,a4,0
 1098 0040 09E7     		bne	a4,zero,.L121
 1099              	.L124:
 1100              	.LVL120:
 1101              	.LBB34:
 1102              	.LBB35:
 1103              		.loc 1 709 27
 1104 0042 938707FC 		addi	a5,a5,-64
 1105              	.LVL121:
 1106 0046 13B5B701 		sltiu	a0,a5,27
 1107              	.L121:
 1108              	.LBE35:
 1109              	.LBE34:
 710:C:/Users/stapi/OneDrive/Desktop/GD32VW553/GD32VW55X_Wifi_BLE_SDK/GD32VW55x_RELEASE_V1.0.2/MSDK/lwip/libcoap-4.3.4/src\coap_uri.c **** }
 1110              		.loc 1 710 1
 1111 004a 8280     		ret
 1112              		.cfi_endproc
 1113              	.LFE48:
 1115              		.section	.text.coap_split_uri,"ax",@progbits
 1116              		.align	1
 1117              		.globl	coap_split_uri
 1119              	coap_split_uri:
 1120              	.LFB33:
 269:C:/Users/stapi/OneDrive/Desktop/GD32VW553/GD32VW55X_Wifi_BLE_SDK/GD32VW55x_RELEASE_V1.0.2/MSDK/lwip/libcoap-4.3.4/src\coap_uri.c ****   return coap_split_uri_sub(str_var, len, uri, COAP_URI_CHECK_URI);
 1121              		.loc 1 269 69 is_stmt 1
 1122              		.cfi_startproc
 1123              	.LVL122:
 270:C:/Users/stapi/OneDrive/Desktop/GD32VW553/GD32VW55X_Wifi_BLE_SDK/GD32VW55x_RELEASE_V1.0.2/MSDK/lwip/libcoap-4.3.4/src\coap_uri.c **** }
 1124              		.loc 1 270 3
 270:C:/Users/stapi/OneDrive/Desktop/GD32VW553/GD32VW55X_Wifi_BLE_SDK/GD32VW55x_RELEASE_V1.0.2/MSDK/lwip/libcoap-4.3.4/src\coap_uri.c **** }
 1125              		.loc 1 270 10 is_stmt 0
 1126 0000 8146     		li	a3,0
 1127 0002 17030000 		tail	coap_split_uri_sub
 1127      67000300 
 1128              	.LVL123:
 1129              		.cfi_endproc
 1130              	.LFE33:
 1132              		.section	.text.coap_split_proxy_uri,"ax",@progbits
 1133              		.align	1
 1134              		.globl	coap_split_proxy_uri
 1136              	coap_split_proxy_uri:
 1137              	.LFB34:
 274:C:/Users/stapi/OneDrive/Desktop/GD32VW553/GD32VW55X_Wifi_BLE_SDK/GD32VW55x_RELEASE_V1.0.2/MSDK/lwip/libcoap-4.3.4/src\coap_uri.c ****   return coap_split_uri_sub(str_var, len, uri, COAP_URI_CHECK_PROXY);
 1138              		.loc 1 274 75 is_stmt 1
 1139              		.cfi_startproc
 1140              	.LVL124:
 275:C:/Users/stapi/OneDrive/Desktop/GD32VW553/GD32VW55X_Wifi_BLE_SDK/GD32VW55x_RELEASE_V1.0.2/MSDK/lwip/libcoap-4.3.4/src\coap_uri.c **** }
 1141              		.loc 1 275 3
 275:C:/Users/stapi/OneDrive/Desktop/GD32VW553/GD32VW55X_Wifi_BLE_SDK/GD32VW55x_RELEASE_V1.0.2/MSDK/lwip/libcoap-4.3.4/src\coap_uri.c **** }
 1142              		.loc 1 275 10 is_stmt 0
 1143 0000 8546     		li	a3,1
 1144 0002 17030000 		tail	coap_split_uri_sub
 1144      67000300 
 1145              	.LVL125:
 1146              		.cfi_endproc
 1147              	.LFE34:
 1149              		.section	.text.coap_host_is_unix_domain,"ax",@progbits
 1150              		.align	1
 1151              		.globl	coap_host_is_unix_domain
 1153              	coap_host_is_unix_domain:
 1154              	.LFB36:
 386:C:/Users/stapi/OneDrive/Desktop/GD32VW553/GD32VW55X_Wifi_BLE_SDK/GD32VW55x_RELEASE_V1.0.2/MSDK/lwip/libcoap-4.3.4/src\coap_uri.c ****   if (host->length >= 3 && host->s[0] == '%' &&
 1155              		.loc 1 386 56 is_stmt 1
 1156              		.cfi_startproc
 1157              	.LVL126:
 387:C:/Users/stapi/OneDrive/Desktop/GD32VW553/GD32VW55X_Wifi_BLE_SDK/GD32VW55x_RELEASE_V1.0.2/MSDK/lwip/libcoap-4.3.4/src\coap_uri.c ****       host->s[1] == '2' &&
 1158              		.loc 1 387 3
 387:C:/Users/stapi/OneDrive/Desktop/GD32VW553/GD32VW55X_Wifi_BLE_SDK/GD32VW55x_RELEASE_V1.0.2/MSDK/lwip/libcoap-4.3.4/src\coap_uri.c ****       host->s[1] == '2' &&
 1159              		.loc 1 387 11 is_stmt 0
 1160 0000 1841     		lw	a4,0(a0)
 387:C:/Users/stapi/OneDrive/Desktop/GD32VW553/GD32VW55X_Wifi_BLE_SDK/GD32VW55x_RELEASE_V1.0.2/MSDK/lwip/libcoap-4.3.4/src\coap_uri.c ****       host->s[1] == '2' &&
 1161              		.loc 1 387 6
 1162 0002 8946     		li	a3,2
 386:C:/Users/stapi/OneDrive/Desktop/GD32VW553/GD32VW55X_Wifi_BLE_SDK/GD32VW55x_RELEASE_V1.0.2/MSDK/lwip/libcoap-4.3.4/src\coap_uri.c ****   if (host->length >= 3 && host->s[0] == '%' &&
 1163              		.loc 1 386 56
 1164 0004 AA87     		mv	a5,a0
 387:C:/Users/stapi/OneDrive/Desktop/GD32VW553/GD32VW55X_Wifi_BLE_SDK/GD32VW55x_RELEASE_V1.0.2/MSDK/lwip/libcoap-4.3.4/src\coap_uri.c ****       host->s[1] == '2' &&
 1165              		.loc 1 387 6
 1166 0006 63F9E602 		bleu	a4,a3,.L133
 387:C:/Users/stapi/OneDrive/Desktop/GD32VW553/GD32VW55X_Wifi_BLE_SDK/GD32VW55x_RELEASE_V1.0.2/MSDK/lwip/libcoap-4.3.4/src\coap_uri.c ****       host->s[1] == '2' &&
 1167              		.loc 1 387 32 discriminator 1
 1168 000a 5841     		lw	a4,4(a0)
 387:C:/Users/stapi/OneDrive/Desktop/GD32VW553/GD32VW55X_Wifi_BLE_SDK/GD32VW55x_RELEASE_V1.0.2/MSDK/lwip/libcoap-4.3.4/src\coap_uri.c ****       host->s[1] == '2' &&
 1169              		.loc 1 387 25 discriminator 1
 1170 000c 93065002 		li	a3,37
 1171 0010 03460700 		lbu	a2,0(a4)
 1172 0014 6314D602 		bne	a2,a3,.L134
 387:C:/Users/stapi/OneDrive/Desktop/GD32VW553/GD32VW55X_Wifi_BLE_SDK/GD32VW55x_RELEASE_V1.0.2/MSDK/lwip/libcoap-4.3.4/src\coap_uri.c ****       host->s[1] == '2' &&
 1173              		.loc 1 387 46 discriminator 2
 1174 0018 03461700 		lbu	a2,1(a4)
 1175 001c 93062003 		li	a3,50
 1176 0020 631ED600 		bne	a2,a3,.L134
 388:C:/Users/stapi/OneDrive/Desktop/GD32VW553/GD32VW55X_Wifi_BLE_SDK/GD32VW55x_RELEASE_V1.0.2/MSDK/lwip/libcoap-4.3.4/src\coap_uri.c ****       (host->s[2] == 'F' || host->s[2] == 'f')) {
 1177              		.loc 1 388 25
 1178 0024 03472700 		lbu	a4,2(a4)
 1179 0028 93066004 		li	a3,70
 390:C:/Users/stapi/OneDrive/Desktop/GD32VW553/GD32VW55X_Wifi_BLE_SDK/GD32VW55x_RELEASE_V1.0.2/MSDK/lwip/libcoap-4.3.4/src\coap_uri.c ****   }
 1180              		.loc 1 390 12
 1181 002c 0545     		li	a0,1
 1182              	.LVL127:
 388:C:/Users/stapi/OneDrive/Desktop/GD32VW553/GD32VW55X_Wifi_BLE_SDK/GD32VW55x_RELEASE_V1.0.2/MSDK/lwip/libcoap-4.3.4/src\coap_uri.c ****       (host->s[2] == 'F' || host->s[2] == 'f')) {
 1183              		.loc 1 388 25
 1184 002e 1377F70D 		andi	a4,a4,223
 1185 0032 6315D700 		bne	a4,a3,.L134
 1186 0036 8280     		ret
 1187              	.LVL128:
 1188              	.L133:
 392:C:/Users/stapi/OneDrive/Desktop/GD32VW553/GD32VW55X_Wifi_BLE_SDK/GD32VW55x_RELEASE_V1.0.2/MSDK/lwip/libcoap-4.3.4/src\coap_uri.c ****     return 1;
 1189              		.loc 1 392 3 is_stmt 1
 394:C:/Users/stapi/OneDrive/Desktop/GD32VW553/GD32VW55X_Wifi_BLE_SDK/GD32VW55x_RELEASE_V1.0.2/MSDK/lwip/libcoap-4.3.4/src\coap_uri.c **** }
 1190              		.loc 1 394 10 is_stmt 0
 1191 0038 0145     		li	a0,0
 1192              	.LVL129:
 392:C:/Users/stapi/OneDrive/Desktop/GD32VW553/GD32VW55X_Wifi_BLE_SDK/GD32VW55x_RELEASE_V1.0.2/MSDK/lwip/libcoap-4.3.4/src\coap_uri.c ****     return 1;
 1193              		.loc 1 392 6
 1194 003a 01CB     		beq	a4,zero,.L132
 1195              	.L134:
 1196              	.LVL130:
 1197              	.LBB38:
 1198              	.LBB39:
 392:C:/Users/stapi/OneDrive/Desktop/GD32VW553/GD32VW55X_Wifi_BLE_SDK/GD32VW55x_RELEASE_V1.0.2/MSDK/lwip/libcoap-4.3.4/src\coap_uri.c ****     return 1;
 1199              		.loc 1 392 35 discriminator 1
 1200 003c DC43     		lw	a5,4(a5)
 1201              	.LVL131:
 392:C:/Users/stapi/OneDrive/Desktop/GD32VW553/GD32VW55X_Wifi_BLE_SDK/GD32VW55x_RELEASE_V1.0.2/MSDK/lwip/libcoap-4.3.4/src\coap_uri.c ****     return 1;
 1202              		.loc 1 392 25 discriminator 1
 1203 003e 03C50700 		lbu	a0,0(a5)
 1204 0042 130515FD 		addi	a0,a0,-47
 1205 0046 13351500 		seqz	a0,a0
 1206              	.L132:
 1207              	.LBE39:
 1208              	.LBE38:
 395:C:/Users/stapi/OneDrive/Desktop/GD32VW553/GD32VW55X_Wifi_BLE_SDK/GD32VW55x_RELEASE_V1.0.2/MSDK/lwip/libcoap-4.3.4/src\coap_uri.c **** 
 1209              		.loc 1 395 1
 1210 004a 8280     		ret
 1211              		.cfi_endproc
 1212              	.LFE36:
 1214              		.section	.text.coap_split_path,"ax",@progbits
 1215              		.align	1
 1216              		.globl	coap_split_path
 1218              	coap_split_path:
 1219              	.LFB43:
 601:C:/Users/stapi/OneDrive/Desktop/GD32VW553/GD32VW55X_Wifi_BLE_SDK/GD32VW55x_RELEASE_V1.0.2/MSDK/lwip/libcoap-4.3.4/src\coap_uri.c ****   struct cnt_str tmp = { { *buflen, buf }, 0 };
 1220              		.loc 1 601 53 is_stmt 1
 1221              		.cfi_startproc
 1222              	.LVL132:
 1223 0000 17030000 		call	t0,__riscv_save_9
 1223      E7020300 
 1224              		.cfi_offset 24, -40
 1225              		.cfi_offset 23, -36
 1226              		.cfi_offset 22, -32
 1227              		.cfi_offset 21, -28
 1228              		.cfi_offset 20, -24
 1229              		.cfi_offset 19, -20
 1230              		.cfi_offset 18, -16
 1231              		.cfi_offset 9, -12
 1232              		.cfi_offset 8, -8
 1233              		.cfi_offset 1, -4
 1234              		.cfi_def_cfa_offset 48
 602:C:/Users/stapi/OneDrive/Desktop/GD32VW553/GD32VW55X_Wifi_BLE_SDK/GD32VW55x_RELEASE_V1.0.2/MSDK/lwip/libcoap-4.3.4/src\coap_uri.c **** 
 1235              		.loc 1 602 3
 602:C:/Users/stapi/OneDrive/Desktop/GD32VW553/GD32VW55X_Wifi_BLE_SDK/GD32VW55x_RELEASE_V1.0.2/MSDK/lwip/libcoap-4.3.4/src\coap_uri.c **** 
 1236              		.loc 1 602 18 is_stmt 0
 1237 0008 9C42     		lw	a5,0(a3)
 601:C:/Users/stapi/OneDrive/Desktop/GD32VW553/GD32VW55X_Wifi_BLE_SDK/GD32VW55x_RELEASE_V1.0.2/MSDK/lwip/libcoap-4.3.4/src\coap_uri.c ****   struct cnt_str tmp = { { *buflen, buf }, 0 };
 1238              		.loc 1 601 53
 1239 000a 4111     		addi	sp,sp,-16
 1240              		.cfi_def_cfa_offset 64
 601:C:/Users/stapi/OneDrive/Desktop/GD32VW553/GD32VW55X_Wifi_BLE_SDK/GD32VW55x_RELEASE_V1.0.2/MSDK/lwip/libcoap-4.3.4/src\coap_uri.c ****   struct cnt_str tmp = { { *buflen, buf }, 0 };
 1241              		.loc 1 601 53
 1242 000c 3684     		mv	s0,a3
 602:C:/Users/stapi/OneDrive/Desktop/GD32VW553/GD32VW55X_Wifi_BLE_SDK/GD32VW55x_RELEASE_V1.0.2/MSDK/lwip/libcoap-4.3.4/src\coap_uri.c **** 
 1243              		.loc 1 602 18
 1244 000e 3EC2     		sw	a5,4(sp)
 1245 0010 32C4     		sw	a2,8(sp)
 1246 0012 02C6     		sw	zero,12(sp)
 604:C:/Users/stapi/OneDrive/Desktop/GD32VW553/GD32VW55X_Wifi_BLE_SDK/GD32VW55x_RELEASE_V1.0.2/MSDK/lwip/libcoap-4.3.4/src\coap_uri.c **** 
 1247              		.loc 1 604 3 is_stmt 1
 1248              	.LVL133:
 1249 0014 B304B500 		add	s1,a0,a1
 1250              	.LBB48:
 1251              	.LBB49:
 556:C:/Users/stapi/OneDrive/Desktop/GD32VW553/GD32VW55X_Wifi_BLE_SDK/GD32VW55x_RELEASE_V1.0.2/MSDK/lwip/libcoap-4.3.4/src\coap_uri.c ****   while (length > 0 && !strnchr((const uint8_t *)"?#", 2, *q)) {
 1252              		.loc 1 556 9 is_stmt 0
 1253 0018 AA87     		mv	a5,a0
 1254              	.LBB50:
 1255              	.LBB51:
  40:C:/Users/stapi/OneDrive/Desktop/GD32VW553/GD32VW55X_Wifi_BLE_SDK/GD32VW55x_RELEASE_V1.0.2/MSDK/lwip/libcoap-4.3.4/src\coap_uri.c ****     --len;
 1256              		.loc 1 40 14
 1257 001a 930AF003 		li	s5,63
 1258 001e 130A3002 		li	s4,35
 1259              	.LBE51:
 1260              	.LBE50:
 558:C:/Users/stapi/OneDrive/Desktop/GD32VW553/GD32VW55X_Wifi_BLE_SDK/GD32VW55x_RELEASE_V1.0.2/MSDK/lwip/libcoap-4.3.4/src\coap_uri.c **** 
 1261              		.loc 1 558 8
 1262 0022 130BF002 		li	s6,47
 1263              	.LBB53:
 1264              	.LBB54:
 536:C:/Users/stapi/OneDrive/Desktop/GD32VW553/GD32VW55X_Wifi_BLE_SDK/GD32VW55x_RELEASE_V1.0.2/MSDK/lwip/libcoap-4.3.4/src\coap_uri.c **** }
 1265              		.loc 1 536 14
 1266 0026 1309E002 		li	s2,46
 536:C:/Users/stapi/OneDrive/Desktop/GD32VW553/GD32VW55X_Wifi_BLE_SDK/GD32VW55x_RELEASE_V1.0.2/MSDK/lwip/libcoap-4.3.4/src\coap_uri.c **** }
 1267              		.loc 1 536 27
 1268 002a 854B     		li	s7,1
 536:C:/Users/stapi/OneDrive/Desktop/GD32VW553/GD32VW55X_Wifi_BLE_SDK/GD32VW55x_RELEASE_V1.0.2/MSDK/lwip/libcoap-4.3.4/src\coap_uri.c **** }
 1269              		.loc 1 536 40
 1270 002c 094C     		li	s8,2
 1271              	.LVL134:
 1272              	.L140:
 1273              	.LBE54:
 1274              	.LBE53:
 557:C:/Users/stapi/OneDrive/Desktop/GD32VW553/GD32VW55X_Wifi_BLE_SDK/GD32VW55x_RELEASE_V1.0.2/MSDK/lwip/libcoap-4.3.4/src\coap_uri.c ****     if (*q == '/') {                /* start new segment */
 1275              		.loc 1 557 9 is_stmt 1
 1276 002e 639C9700 		bne	a5,s1,.L144
 1277              	.L147:
 572:C:/Users/stapi/OneDrive/Desktop/GD32VW553/GD32VW55X_Wifi_BLE_SDK/GD32VW55x_RELEASE_V1.0.2/MSDK/lwip/libcoap-4.3.4/src\coap_uri.c ****     h(p, q - p, data);
 1278              		.loc 1 572 3
 572:C:/Users/stapi/OneDrive/Desktop/GD32VW553/GD32VW55X_Wifi_BLE_SDK/GD32VW55x_RELEASE_V1.0.2/MSDK/lwip/libcoap-4.3.4/src\coap_uri.c ****     h(p, q - p, data);
 1279              		.loc 1 572 18 is_stmt 0
 1280 0032 B385A740 		sub	a1,a5,a0
 1281              	.LVL135:
 1282              	.LBB56:
 1283              	.LBB57:
 536:C:/Users/stapi/OneDrive/Desktop/GD32VW553/GD32VW55X_Wifi_BLE_SDK/GD32VW55x_RELEASE_V1.0.2/MSDK/lwip/libcoap-4.3.4/src\coap_uri.c **** }
 1284              		.loc 1 536 3 is_stmt 1
 536:C:/Users/stapi/OneDrive/Desktop/GD32VW553/GD32VW55X_Wifi_BLE_SDK/GD32VW55x_RELEASE_V1.0.2/MSDK/lwip/libcoap-4.3.4/src\coap_uri.c **** }
 1285              		.loc 1 536 27 is_stmt 0
 1286 0036 639AA704 		bne	a5,a0,.L145
 1287              	.LVL136:
 1288              	.L146:
 1289              	.LBE57:
 1290              	.LBE56:
 573:C:/Users/stapi/OneDrive/Desktop/GD32VW553/GD32VW55X_Wifi_BLE_SDK/GD32VW55x_RELEASE_V1.0.2/MSDK/lwip/libcoap-4.3.4/src\coap_uri.c ****   }
 1291              		.loc 1 573 5 is_stmt 1
 1292 003a 5000     		addi	a2,sp,4
 1293              	.LVL137:
 1294 003c 97000000 		call	write_option
 1294      E7800000 
 1295              	.LVL138:
 1296 0044 9DA0     		j	.L149
 1297              	.LVL139:
 1298              	.L144:
 557:C:/Users/stapi/OneDrive/Desktop/GD32VW553/GD32VW55X_Wifi_BLE_SDK/GD32VW55x_RELEASE_V1.0.2/MSDK/lwip/libcoap-4.3.4/src\coap_uri.c ****     if (*q == '/') {                /* start new segment */
 1299              		.loc 1 557 25 is_stmt 0
 1300 0046 03C70700 		lbu	a4,0(a5)
 1301              	.LVL140:
 1302              	.LBB59:
 1303              	.LBB52:
  40:C:/Users/stapi/OneDrive/Desktop/GD32VW553/GD32VW55X_Wifi_BLE_SDK/GD32VW55x_RELEASE_V1.0.2/MSDK/lwip/libcoap-4.3.4/src\coap_uri.c ****     --len;
 1304              		.loc 1 40 9 is_stmt 1
  40:C:/Users/stapi/OneDrive/Desktop/GD32VW553/GD32VW55X_Wifi_BLE_SDK/GD32VW55x_RELEASE_V1.0.2/MSDK/lwip/libcoap-4.3.4/src\coap_uri.c ****     --len;
 1305              		.loc 1 40 14 is_stmt 0
 1306 004a E30457FF 		beq	a4,s5,.L147
  41:C:/Users/stapi/OneDrive/Desktop/GD32VW553/GD32VW55X_Wifi_BLE_SDK/GD32VW55x_RELEASE_V1.0.2/MSDK/lwip/libcoap-4.3.4/src\coap_uri.c **** 
 1307              		.loc 1 41 5 is_stmt 1
 1308              	.LVL141:
  40:C:/Users/stapi/OneDrive/Desktop/GD32VW553/GD32VW55X_Wifi_BLE_SDK/GD32VW55x_RELEASE_V1.0.2/MSDK/lwip/libcoap-4.3.4/src\coap_uri.c ****     --len;
 1309              		.loc 1 40 9
  40:C:/Users/stapi/OneDrive/Desktop/GD32VW553/GD32VW55X_Wifi_BLE_SDK/GD32VW55x_RELEASE_V1.0.2/MSDK/lwip/libcoap-4.3.4/src\coap_uri.c ****     --len;
 1310              		.loc 1 40 14 is_stmt 0
 1311 004e E30247FF 		beq	a4,s4,.L147
  41:C:/Users/stapi/OneDrive/Desktop/GD32VW553/GD32VW55X_Wifi_BLE_SDK/GD32VW55x_RELEASE_V1.0.2/MSDK/lwip/libcoap-4.3.4/src\coap_uri.c **** 
 1312              		.loc 1 41 5 is_stmt 1
 1313              	.LVL142:
  40:C:/Users/stapi/OneDrive/Desktop/GD32VW553/GD32VW55X_Wifi_BLE_SDK/GD32VW55x_RELEASE_V1.0.2/MSDK/lwip/libcoap-4.3.4/src\coap_uri.c ****     --len;
 1314              		.loc 1 40 9
  43:C:/Users/stapi/OneDrive/Desktop/GD32VW553/GD32VW55X_Wifi_BLE_SDK/GD32VW55x_RELEASE_V1.0.2/MSDK/lwip/libcoap-4.3.4/src\coap_uri.c **** }
 1315              		.loc 1 43 3
 1316              	.LBE52:
 1317              	.LBE59:
 558:C:/Users/stapi/OneDrive/Desktop/GD32VW553/GD32VW55X_Wifi_BLE_SDK/GD32VW55x_RELEASE_V1.0.2/MSDK/lwip/libcoap-4.3.4/src\coap_uri.c **** 
 1318              		.loc 1 558 5
 1319 0052 93891700 		addi	s3,a5,1
 558:C:/Users/stapi/OneDrive/Desktop/GD32VW553/GD32VW55X_Wifi_BLE_SDK/GD32VW55x_RELEASE_V1.0.2/MSDK/lwip/libcoap-4.3.4/src\coap_uri.c **** 
 1320              		.loc 1 558 8 is_stmt 0
 1321 0056 63186703 		bne	a4,s6,.L141
 560:C:/Users/stapi/OneDrive/Desktop/GD32VW553/GD32VW55X_Wifi_BLE_SDK/GD32VW55x_RELEASE_V1.0.2/MSDK/lwip/libcoap-4.3.4/src\coap_uri.c ****         h(p, q - p, data);
 1322              		.loc 1 560 7 is_stmt 1
 560:C:/Users/stapi/OneDrive/Desktop/GD32VW553/GD32VW55X_Wifi_BLE_SDK/GD32VW55x_RELEASE_V1.0.2/MSDK/lwip/libcoap-4.3.4/src\coap_uri.c ****         h(p, q - p, data);
 1323              		.loc 1 560 22 is_stmt 0
 1324 005a B385A740 		sub	a1,a5,a0
 1325              	.LVL143:
 1326              	.LBB60:
 1327              	.LBB55:
 536:C:/Users/stapi/OneDrive/Desktop/GD32VW553/GD32VW55X_Wifi_BLE_SDK/GD32VW55x_RELEASE_V1.0.2/MSDK/lwip/libcoap-4.3.4/src\coap_uri.c **** }
 1328              		.loc 1 536 3 is_stmt 1
 536:C:/Users/stapi/OneDrive/Desktop/GD32VW553/GD32VW55X_Wifi_BLE_SDK/GD32VW55x_RELEASE_V1.0.2/MSDK/lwip/libcoap-4.3.4/src\coap_uri.c **** }
 1329              		.loc 1 536 27 is_stmt 0
 1330 005e 638EA700 		beq	a5,a0,.L142
 536:C:/Users/stapi/OneDrive/Desktop/GD32VW553/GD32VW55X_Wifi_BLE_SDK/GD32VW55x_RELEASE_V1.0.2/MSDK/lwip/libcoap-4.3.4/src\coap_uri.c **** }
 1331              		.loc 1 536 14
 1332 0062 83470500 		lbu	a5,0(a0)
 1333              	.LVL144:
 1334 0066 639A2701 		bne	a5,s2,.L142
 536:C:/Users/stapi/OneDrive/Desktop/GD32VW553/GD32VW55X_Wifi_BLE_SDK/GD32VW55x_RELEASE_V1.0.2/MSDK/lwip/libcoap-4.3.4/src\coap_uri.c **** }
 1335              		.loc 1 536 27
 1336 006a 638D7501 		beq	a1,s7,.L143
 536:C:/Users/stapi/OneDrive/Desktop/GD32VW553/GD32VW55X_Wifi_BLE_SDK/GD32VW55x_RELEASE_V1.0.2/MSDK/lwip/libcoap-4.3.4/src\coap_uri.c **** }
 1337              		.loc 1 536 40
 1338 006e 63968501 		bne	a1,s8,.L142
 536:C:/Users/stapi/OneDrive/Desktop/GD32VW553/GD32VW55X_Wifi_BLE_SDK/GD32VW55x_RELEASE_V1.0.2/MSDK/lwip/libcoap-4.3.4/src\coap_uri.c **** }
 1339              		.loc 1 536 53
 1340 0072 83471500 		lbu	a5,1(a0)
 1341 0076 63872701 		beq	a5,s2,.L143
 1342              	.L142:
 1343              	.LVL145:
 1344              	.LBE55:
 1345              	.LBE60:
 561:C:/Users/stapi/OneDrive/Desktop/GD32VW553/GD32VW55X_Wifi_BLE_SDK/GD32VW55x_RELEASE_V1.0.2/MSDK/lwip/libcoap-4.3.4/src\coap_uri.c ****       }
 1346              		.loc 1 561 9 is_stmt 1
 1347 007a 5000     		addi	a2,sp,4
 1348              	.LVL146:
 1349 007c 97000000 		call	write_option
 1349      E7800000 
 1350              	.LVL147:
 1351              	.L143:
 564:C:/Users/stapi/OneDrive/Desktop/GD32VW553/GD32VW55X_Wifi_BLE_SDK/GD32VW55x_RELEASE_V1.0.2/MSDK/lwip/libcoap-4.3.4/src\coap_uri.c ****     }
 1352              		.loc 1 564 7
 1353 0084 4E85     		mv	a0,s3
 1354              	.LVL148:
 1355              	.L141:
 567:C:/Users/stapi/OneDrive/Desktop/GD32VW553/GD32VW55X_Wifi_BLE_SDK/GD32VW55x_RELEASE_V1.0.2/MSDK/lwip/libcoap-4.3.4/src\coap_uri.c ****     length--;
 1356              		.loc 1 567 5
 567:C:/Users/stapi/OneDrive/Desktop/GD32VW553/GD32VW55X_Wifi_BLE_SDK/GD32VW55x_RELEASE_V1.0.2/MSDK/lwip/libcoap-4.3.4/src\coap_uri.c ****     length--;
 1357              		.loc 1 567 6 is_stmt 0
 1358 0086 CE87     		mv	a5,s3
 1359              	.LVL149:
 568:C:/Users/stapi/OneDrive/Desktop/GD32VW553/GD32VW55X_Wifi_BLE_SDK/GD32VW55x_RELEASE_V1.0.2/MSDK/lwip/libcoap-4.3.4/src\coap_uri.c ****   }
 1360              		.loc 1 568 5 is_stmt 1
 1361 0088 5DB7     		j	.L140
 1362              	.LVL150:
 1363              	.L145:
 1364              	.LBB61:
 1365              	.LBB58:
 536:C:/Users/stapi/OneDrive/Desktop/GD32VW553/GD32VW55X_Wifi_BLE_SDK/GD32VW55x_RELEASE_V1.0.2/MSDK/lwip/libcoap-4.3.4/src\coap_uri.c **** }
 1366              		.loc 1 536 14 is_stmt 0
 1367 008a 83470500 		lbu	a5,0(a0)
 1368              	.LVL151:
 1369 008e 1307E002 		li	a4,46
 1370 0092 E394E7FA 		bne	a5,a4,.L146
 536:C:/Users/stapi/OneDrive/Desktop/GD32VW553/GD32VW55X_Wifi_BLE_SDK/GD32VW55x_RELEASE_V1.0.2/MSDK/lwip/libcoap-4.3.4/src\coap_uri.c **** }
 1371              		.loc 1 536 27
 1372 0096 0547     		li	a4,1
 1373 0098 6389E500 		beq	a1,a4,.L149
 536:C:/Users/stapi/OneDrive/Desktop/GD32VW553/GD32VW55X_Wifi_BLE_SDK/GD32VW55x_RELEASE_V1.0.2/MSDK/lwip/libcoap-4.3.4/src\coap_uri.c **** }
 1374              		.loc 1 536 40
 1375 009c 0947     		li	a4,2
 1376 009e E39EE5F8 		bne	a1,a4,.L146
 536:C:/Users/stapi/OneDrive/Desktop/GD32VW553/GD32VW55X_Wifi_BLE_SDK/GD32VW55x_RELEASE_V1.0.2/MSDK/lwip/libcoap-4.3.4/src\coap_uri.c **** }
 1377              		.loc 1 536 53
 1378 00a2 03471500 		lbu	a4,1(a0)
 1379 00a6 E31AF7F8 		bne	a4,a5,.L146
 1380              	.LVL152:
 1381              	.L149:
 1382              	.LBE58:
 1383              	.LBE61:
 576:C:/Users/stapi/OneDrive/Desktop/GD32VW553/GD32VW55X_Wifi_BLE_SDK/GD32VW55x_RELEASE_V1.0.2/MSDK/lwip/libcoap-4.3.4/src\coap_uri.c **** }
 1384              		.loc 1 576 3 is_stmt 1
 1385              	.LBE49:
 1386              	.LBE48:
 606:C:/Users/stapi/OneDrive/Desktop/GD32VW553/GD32VW55X_Wifi_BLE_SDK/GD32VW55x_RELEASE_V1.0.2/MSDK/lwip/libcoap-4.3.4/src\coap_uri.c **** 
 1387              		.loc 1 606 3
 606:C:/Users/stapi/OneDrive/Desktop/GD32VW553/GD32VW55X_Wifi_BLE_SDK/GD32VW55x_RELEASE_V1.0.2/MSDK/lwip/libcoap-4.3.4/src\coap_uri.c **** 
 1388              		.loc 1 606 21 is_stmt 0
 1389 00aa 1C40     		lw	a5,0(s0)
 1390 00ac 1247     		lw	a4,4(sp)
 609:C:/Users/stapi/OneDrive/Desktop/GD32VW553/GD32VW55X_Wifi_BLE_SDK/GD32VW55x_RELEASE_V1.0.2/MSDK/lwip/libcoap-4.3.4/src\coap_uri.c **** 
 1391              		.loc 1 609 1
 1392 00ae 3245     		lw	a0,12(sp)
 606:C:/Users/stapi/OneDrive/Desktop/GD32VW553/GD32VW55X_Wifi_BLE_SDK/GD32VW55x_RELEASE_V1.0.2/MSDK/lwip/libcoap-4.3.4/src\coap_uri.c **** 
 1393              		.loc 1 606 21
 1394 00b0 998F     		sub	a5,a5,a4
 606:C:/Users/stapi/OneDrive/Desktop/GD32VW553/GD32VW55X_Wifi_BLE_SDK/GD32VW55x_RELEASE_V1.0.2/MSDK/lwip/libcoap-4.3.4/src\coap_uri.c **** 
 1395              		.loc 1 606 11
 1396 00b2 1CC0     		sw	a5,0(s0)
 608:C:/Users/stapi/OneDrive/Desktop/GD32VW553/GD32VW55X_Wifi_BLE_SDK/GD32VW55x_RELEASE_V1.0.2/MSDK/lwip/libcoap-4.3.4/src\coap_uri.c **** }
 1397              		.loc 1 608 3 is_stmt 1
 609:C:/Users/stapi/OneDrive/Desktop/GD32VW553/GD32VW55X_Wifi_BLE_SDK/GD32VW55x_RELEASE_V1.0.2/MSDK/lwip/libcoap-4.3.4/src\coap_uri.c **** 
 1398              		.loc 1 609 1 is_stmt 0
 1399 00b4 4101     		addi	sp,sp,16
 1400              		.cfi_def_cfa_offset 0
 1401 00b6 17030000 		tail	__riscv_restore_9
 1401      67000300 
 1402              		.cfi_restore 24
 1403              		.cfi_restore 23
 1404              		.cfi_restore 22
 1405              		.cfi_restore 21
 1406              		.cfi_restore 20
 1407              		.cfi_restore 19
 1408              		.cfi_restore 18
 1409              		.cfi_restore 9
 1410              		.cfi_restore 8
 1411              		.cfi_restore 1
 1412              		.cfi_def_cfa_offset -48
 1413              		.cfi_endproc
 1414              	.LFE43:
 1416              		.section	.text.coap_split_query,"ax",@progbits
 1417              		.align	1
 1418              		.globl	coap_split_query
 1420              	coap_split_query:
 1421              	.LFB44:
 613:C:/Users/stapi/OneDrive/Desktop/GD32VW553/GD32VW55X_Wifi_BLE_SDK/GD32VW55x_RELEASE_V1.0.2/MSDK/lwip/libcoap-4.3.4/src\coap_uri.c ****   struct cnt_str tmp = { { *buflen, buf }, 0 };
 1422              		.loc 1 613 54 is_stmt 1
 1423              		.cfi_startproc
 1424              	.LVL153:
 1425 0000 17030000 		call	t0,__riscv_save_5
 1425      E7020300 
 1426              		.cfi_offset 20, -24
 1427              		.cfi_offset 19, -20
 1428              		.cfi_offset 18, -16
 1429              		.cfi_offset 9, -12
 1430              		.cfi_offset 8, -8
 1431              		.cfi_offset 1, -4
 1432              		.cfi_def_cfa_offset 32
 614:C:/Users/stapi/OneDrive/Desktop/GD32VW553/GD32VW55X_Wifi_BLE_SDK/GD32VW55x_RELEASE_V1.0.2/MSDK/lwip/libcoap-4.3.4/src\coap_uri.c ****   const uint8_t *p;
 1433              		.loc 1 614 18 is_stmt 0
 1434 0008 9842     		lw	a4,0(a3)
 613:C:/Users/stapi/OneDrive/Desktop/GD32VW553/GD32VW55X_Wifi_BLE_SDK/GD32VW55x_RELEASE_V1.0.2/MSDK/lwip/libcoap-4.3.4/src\coap_uri.c ****   struct cnt_str tmp = { { *buflen, buf }, 0 };
 1435              		.loc 1 613 54
 1436 000a 4111     		addi	sp,sp,-16
 1437              		.cfi_def_cfa_offset 48
 613:C:/Users/stapi/OneDrive/Desktop/GD32VW553/GD32VW55X_Wifi_BLE_SDK/GD32VW55x_RELEASE_V1.0.2/MSDK/lwip/libcoap-4.3.4/src\coap_uri.c ****   struct cnt_str tmp = { { *buflen, buf }, 0 };
 1438              		.loc 1 613 54
 1439 000c AA87     		mv	a5,a0
 614:C:/Users/stapi/OneDrive/Desktop/GD32VW553/GD32VW55X_Wifi_BLE_SDK/GD32VW55x_RELEASE_V1.0.2/MSDK/lwip/libcoap-4.3.4/src\coap_uri.c ****   const uint8_t *p;
 1440              		.loc 1 614 3 is_stmt 1
 613:C:/Users/stapi/OneDrive/Desktop/GD32VW553/GD32VW55X_Wifi_BLE_SDK/GD32VW55x_RELEASE_V1.0.2/MSDK/lwip/libcoap-4.3.4/src\coap_uri.c ****   struct cnt_str tmp = { { *buflen, buf }, 0 };
 1441              		.loc 1 613 54 is_stmt 0
 1442 000e 3684     		mv	s0,a3
 614:C:/Users/stapi/OneDrive/Desktop/GD32VW553/GD32VW55X_Wifi_BLE_SDK/GD32VW55x_RELEASE_V1.0.2/MSDK/lwip/libcoap-4.3.4/src\coap_uri.c ****   const uint8_t *p;
 1443              		.loc 1 614 18
 1444 0010 3AC2     		sw	a4,4(sp)
 1445 0012 32C4     		sw	a2,8(sp)
 1446 0014 02C6     		sw	zero,12(sp)
 615:C:/Users/stapi/OneDrive/Desktop/GD32VW553/GD32VW55X_Wifi_BLE_SDK/GD32VW55x_RELEASE_V1.0.2/MSDK/lwip/libcoap-4.3.4/src\coap_uri.c **** 
 1447              		.loc 1 615 3 is_stmt 1
 617:C:/Users/stapi/OneDrive/Desktop/GD32VW553/GD32VW55X_Wifi_BLE_SDK/GD32VW55x_RELEASE_V1.0.2/MSDK/lwip/libcoap-4.3.4/src\coap_uri.c ****   while (length > 0 && *s != '#') {
 1448              		.loc 1 617 3
 1449              	.LVL154:
 618:C:/Users/stapi/OneDrive/Desktop/GD32VW553/GD32VW55X_Wifi_BLE_SDK/GD32VW55x_RELEASE_V1.0.2/MSDK/lwip/libcoap-4.3.4/src\coap_uri.c ****     if (*s == '&') {                /* start new query element */
 1450              		.loc 1 618 3
 1451 0016 B304B500 		add	s1,a0,a1
 618:C:/Users/stapi/OneDrive/Desktop/GD32VW553/GD32VW55X_Wifi_BLE_SDK/GD32VW55x_RELEASE_V1.0.2/MSDK/lwip/libcoap-4.3.4/src\coap_uri.c ****     if (*s == '&') {                /* start new query element */
 1452              		.loc 1 618 21 is_stmt 0
 1453 001a 93093002 		li	s3,35
 619:C:/Users/stapi/OneDrive/Desktop/GD32VW553/GD32VW55X_Wifi_BLE_SDK/GD32VW55x_RELEASE_V1.0.2/MSDK/lwip/libcoap-4.3.4/src\coap_uri.c ****       write_option(p, s - p, &tmp);
 1454              		.loc 1 619 8
 1455 001e 130A6002 		li	s4,38
 1456              	.LVL155:
 1457              	.L155:
 618:C:/Users/stapi/OneDrive/Desktop/GD32VW553/GD32VW55X_Wifi_BLE_SDK/GD32VW55x_RELEASE_V1.0.2/MSDK/lwip/libcoap-4.3.4/src\coap_uri.c ****     if (*s == '&') {                /* start new query element */
 1458              		.loc 1 618 9 is_stmt 1
 1459 0022 63869700 		beq	a5,s1,.L157
 618:C:/Users/stapi/OneDrive/Desktop/GD32VW553/GD32VW55X_Wifi_BLE_SDK/GD32VW55x_RELEASE_V1.0.2/MSDK/lwip/libcoap-4.3.4/src\coap_uri.c ****     if (*s == '&') {                /* start new query element */
 1460              		.loc 1 618 24 is_stmt 0 discriminator 1
 1461 0026 03C70700 		lbu	a4,0(a5)
 618:C:/Users/stapi/OneDrive/Desktop/GD32VW553/GD32VW55X_Wifi_BLE_SDK/GD32VW55x_RELEASE_V1.0.2/MSDK/lwip/libcoap-4.3.4/src\coap_uri.c ****     if (*s == '&') {                /* start new query element */
 1462              		.loc 1 618 21 discriminator 1
 1463 002a 63133703 		bne	a4,s3,.L158
 1464              	.L157:
 629:C:/Users/stapi/OneDrive/Desktop/GD32VW553/GD32VW55X_Wifi_BLE_SDK/GD32VW55x_RELEASE_V1.0.2/MSDK/lwip/libcoap-4.3.4/src\coap_uri.c **** 
 1465              		.loc 1 629 3 is_stmt 1
 1466 002e B385A740 		sub	a1,a5,a0
 1467 0032 5000     		addi	a2,sp,4
 1468 0034 97000000 		call	write_option
 1468      E7800000 
 1469              	.LVL156:
 631:C:/Users/stapi/OneDrive/Desktop/GD32VW553/GD32VW55X_Wifi_BLE_SDK/GD32VW55x_RELEASE_V1.0.2/MSDK/lwip/libcoap-4.3.4/src\coap_uri.c ****   return tmp.n;
 1470              		.loc 1 631 3
 631:C:/Users/stapi/OneDrive/Desktop/GD32VW553/GD32VW55X_Wifi_BLE_SDK/GD32VW55x_RELEASE_V1.0.2/MSDK/lwip/libcoap-4.3.4/src\coap_uri.c ****   return tmp.n;
 1471              		.loc 1 631 21 is_stmt 0
 1472 003c 1C40     		lw	a5,0(s0)
 1473 003e 1247     		lw	a4,4(sp)
 633:C:/Users/stapi/OneDrive/Desktop/GD32VW553/GD32VW55X_Wifi_BLE_SDK/GD32VW55x_RELEASE_V1.0.2/MSDK/lwip/libcoap-4.3.4/src\coap_uri.c **** 
 1474              		.loc 1 633 1
 1475 0040 3245     		lw	a0,12(sp)
 631:C:/Users/stapi/OneDrive/Desktop/GD32VW553/GD32VW55X_Wifi_BLE_SDK/GD32VW55x_RELEASE_V1.0.2/MSDK/lwip/libcoap-4.3.4/src\coap_uri.c ****   return tmp.n;
 1476              		.loc 1 631 21
 1477 0042 998F     		sub	a5,a5,a4
 631:C:/Users/stapi/OneDrive/Desktop/GD32VW553/GD32VW55X_Wifi_BLE_SDK/GD32VW55x_RELEASE_V1.0.2/MSDK/lwip/libcoap-4.3.4/src\coap_uri.c ****   return tmp.n;
 1478              		.loc 1 631 11
 1479 0044 1CC0     		sw	a5,0(s0)
 632:C:/Users/stapi/OneDrive/Desktop/GD32VW553/GD32VW55X_Wifi_BLE_SDK/GD32VW55x_RELEASE_V1.0.2/MSDK/lwip/libcoap-4.3.4/src\coap_uri.c **** }
 1480              		.loc 1 632 3 is_stmt 1
 633:C:/Users/stapi/OneDrive/Desktop/GD32VW553/GD32VW55X_Wifi_BLE_SDK/GD32VW55x_RELEASE_V1.0.2/MSDK/lwip/libcoap-4.3.4/src\coap_uri.c **** 
 1481              		.loc 1 633 1 is_stmt 0
 1482 0046 4101     		addi	sp,sp,16
 1483              		.cfi_remember_state
 1484              		.cfi_def_cfa_offset 0
 1485 0048 17030000 		tail	__riscv_restore_5
 1485      67000300 
 1486              		.cfi_restore 20
 1487              		.cfi_restore 19
 1488              		.cfi_restore 18
 1489              		.cfi_restore 9
 1490              		.cfi_restore 8
 1491              		.cfi_restore 1
 1492              		.cfi_def_cfa_offset -32
 1493              	.LVL157:
 1494              	.L158:
 1495              		.cfi_restore_state
 619:C:/Users/stapi/OneDrive/Desktop/GD32VW553/GD32VW55X_Wifi_BLE_SDK/GD32VW55x_RELEASE_V1.0.2/MSDK/lwip/libcoap-4.3.4/src\coap_uri.c ****       write_option(p, s - p, &tmp);
 1496              		.loc 1 619 5 is_stmt 1
 621:C:/Users/stapi/OneDrive/Desktop/GD32VW553/GD32VW55X_Wifi_BLE_SDK/GD32VW55x_RELEASE_V1.0.2/MSDK/lwip/libcoap-4.3.4/src\coap_uri.c ****     }
 1497              		.loc 1 621 9 is_stmt 0
 1498 0050 13891700 		addi	s2,a5,1
 619:C:/Users/stapi/OneDrive/Desktop/GD32VW553/GD32VW55X_Wifi_BLE_SDK/GD32VW55x_RELEASE_V1.0.2/MSDK/lwip/libcoap-4.3.4/src\coap_uri.c ****       write_option(p, s - p, &tmp);
 1499              		.loc 1 619 8
 1500 0054 631A4701 		bne	a4,s4,.L156
 620:C:/Users/stapi/OneDrive/Desktop/GD32VW553/GD32VW55X_Wifi_BLE_SDK/GD32VW55x_RELEASE_V1.0.2/MSDK/lwip/libcoap-4.3.4/src\coap_uri.c ****       p = s + 1;
 1501              		.loc 1 620 7 is_stmt 1
 1502 0058 B385A740 		sub	a1,a5,a0
 1503 005c 5000     		addi	a2,sp,4
 1504 005e 97000000 		call	write_option
 1504      E7800000 
 1505              	.LVL158:
 621:C:/Users/stapi/OneDrive/Desktop/GD32VW553/GD32VW55X_Wifi_BLE_SDK/GD32VW55x_RELEASE_V1.0.2/MSDK/lwip/libcoap-4.3.4/src\coap_uri.c ****     }
 1506              		.loc 1 621 7
 621:C:/Users/stapi/OneDrive/Desktop/GD32VW553/GD32VW55X_Wifi_BLE_SDK/GD32VW55x_RELEASE_V1.0.2/MSDK/lwip/libcoap-4.3.4/src\coap_uri.c ****     }
 1507              		.loc 1 621 9 is_stmt 0
 1508 0066 4A85     		mv	a0,s2
 1509              	.LVL159:
 1510              	.L156:
 624:C:/Users/stapi/OneDrive/Desktop/GD32VW553/GD32VW55X_Wifi_BLE_SDK/GD32VW55x_RELEASE_V1.0.2/MSDK/lwip/libcoap-4.3.4/src\coap_uri.c ****     length--;
 1511              		.loc 1 624 5 is_stmt 1
 625:C:/Users/stapi/OneDrive/Desktop/GD32VW553/GD32VW55X_Wifi_BLE_SDK/GD32VW55x_RELEASE_V1.0.2/MSDK/lwip/libcoap-4.3.4/src\coap_uri.c ****   }
 1512              		.loc 1 625 5
 624:C:/Users/stapi/OneDrive/Desktop/GD32VW553/GD32VW55X_Wifi_BLE_SDK/GD32VW55x_RELEASE_V1.0.2/MSDK/lwip/libcoap-4.3.4/src\coap_uri.c ****     length--;
 1513              		.loc 1 624 6 is_stmt 0
 1514 0068 CA87     		mv	a5,s2
 1515 006a 65BF     		j	.L155
 1516              		.cfi_endproc
 1517              	.LFE44:
 1519              		.section	.rodata.coap_uri_into_options.str1.4,"aMS",@progbits,1
 1520              		.align	2
 1521              	.LC13:
 1522 0000 55524920 		.string	"URI path will be truncated (max buffer %zu)\n"
 1522      70617468 
 1522      2077696C 
 1522      6C206265 
 1522      20747275 
 1523 002d 000000   		.align	2
 1524              	.LC14:
 1525 0030 55524920 		.string	"URI query will be truncated (max buffer %zu)\n"
 1525      71756572 
 1525      79207769 
 1525      6C6C2062 
 1525      65207472 
 1526              		.section	.text.coap_uri_into_options,"ax",@progbits
 1527              		.align	1
 1528              		.globl	coap_uri_into_options
 1530              	coap_uri_into_options:
 1531              	.LFB35:
 281:C:/Users/stapi/OneDrive/Desktop/GD32VW553/GD32VW55X_Wifi_BLE_SDK/GD32VW55x_RELEASE_V1.0.2/MSDK/lwip/libcoap-4.3.4/src\coap_uri.c ****   int res;
 1532              		.loc 1 281 54 is_stmt 1
 1533              		.cfi_startproc
 1534              	.LVL160:
 1535 0000 17030000 		call	t0,__riscv_save_7
 1535      E7020300 
 1536              		.cfi_offset 22, -32
 1537              		.cfi_offset 21, -28
 1538              		.cfi_offset 20, -24
 1539              		.cfi_offset 19, -20
 1540              		.cfi_offset 18, -16
 1541              		.cfi_offset 9, -12
 1542              		.cfi_offset 8, -8
 1543              		.cfi_offset 1, -4
 1544              		.cfi_def_cfa_offset 32
 282:C:/Users/stapi/OneDrive/Desktop/GD32VW553/GD32VW55X_Wifi_BLE_SDK/GD32VW55x_RELEASE_V1.0.2/MSDK/lwip/libcoap-4.3.4/src\coap_uri.c ****   unsigned char *buf = _buf;
 1545              		.loc 1 282 3
 283:C:/Users/stapi/OneDrive/Desktop/GD32VW553/GD32VW55X_Wifi_BLE_SDK/GD32VW55x_RELEASE_V1.0.2/MSDK/lwip/libcoap-4.3.4/src\coap_uri.c ****   size_t buflen = _buflen;
 1546              		.loc 1 283 3
 281:C:/Users/stapi/OneDrive/Desktop/GD32VW553/GD32VW55X_Wifi_BLE_SDK/GD32VW55x_RELEASE_V1.0.2/MSDK/lwip/libcoap-4.3.4/src\coap_uri.c ****   int res;
 1547              		.loc 1 281 54 is_stmt 0
 1548 0008 3971     		addi	sp,sp,-64
 1549              		.cfi_def_cfa_offset 96
 284:C:/Users/stapi/OneDrive/Desktop/GD32VW553/GD32VW55X_Wifi_BLE_SDK/GD32VW55x_RELEASE_V1.0.2/MSDK/lwip/libcoap-4.3.4/src\coap_uri.c **** 
 1550              		.loc 1 284 10
 1551 000a 3ECA     		sw	a5,20(sp)
 281:C:/Users/stapi/OneDrive/Desktop/GD32VW553/GD32VW55X_Wifi_BLE_SDK/GD32VW55x_RELEASE_V1.0.2/MSDK/lwip/libcoap-4.3.4/src\coap_uri.c ****   int res;
 1552              		.loc 1 281 54
 1553 000c 2A84     		mv	s0,a0
 1554 000e 3289     		mv	s2,a2
 1555 0010 BA84     		mv	s1,a4
 1556              	.LVL161:
 284:C:/Users/stapi/OneDrive/Desktop/GD32VW553/GD32VW55X_Wifi_BLE_SDK/GD32VW55x_RELEASE_V1.0.2/MSDK/lwip/libcoap-4.3.4/src\coap_uri.c **** 
 1557              		.loc 1 284 3 is_stmt 1
 286:C:/Users/stapi/OneDrive/Desktop/GD32VW553/GD32VW55X_Wifi_BLE_SDK/GD32VW55x_RELEASE_V1.0.2/MSDK/lwip/libcoap-4.3.4/src\coap_uri.c ****     int add_option = 0;
 1558              		.loc 1 286 3
 281:C:/Users/stapi/OneDrive/Desktop/GD32VW553/GD32VW55X_Wifi_BLE_SDK/GD32VW55x_RELEASE_V1.0.2/MSDK/lwip/libcoap-4.3.4/src\coap_uri.c ****   int res;
 1559              		.loc 1 281 54 is_stmt 0
 1560 0012 3E8A     		mv	s4,a5
 286:C:/Users/stapi/OneDrive/Desktop/GD32VW553/GD32VW55X_Wifi_BLE_SDK/GD32VW55x_RELEASE_V1.0.2/MSDK/lwip/libcoap-4.3.4/src\coap_uri.c ****     int add_option = 0;
 1561              		.loc 1 286 6
 1562 0014 F1CE     		beq	a3,zero,.L162
 1563 0016 AE8A     		mv	s5,a1
 286:C:/Users/stapi/OneDrive/Desktop/GD32VW553/GD32VW55X_Wifi_BLE_SDK/GD32VW55x_RELEASE_V1.0.2/MSDK/lwip/libcoap-4.3.4/src\coap_uri.c ****     int add_option = 0;
 1564              		.loc 1 286 32 discriminator 1
 1565 0018 97000000 		call	coap_host_is_unix_domain
 1565      E7800000 
 1566              	.LVL162:
 286:C:/Users/stapi/OneDrive/Desktop/GD32VW553/GD32VW55X_Wifi_BLE_SDK/GD32VW55x_RELEASE_V1.0.2/MSDK/lwip/libcoap-4.3.4/src\coap_uri.c ****     int add_option = 0;
 1567              		.loc 1 286 28 discriminator 1
 1568 0020 61E9     		bne	a0,zero,.L162
 1569              	.LBB67:
 287:C:/Users/stapi/OneDrive/Desktop/GD32VW553/GD32VW55X_Wifi_BLE_SDK/GD32VW55x_RELEASE_V1.0.2/MSDK/lwip/libcoap-4.3.4/src\coap_uri.c **** 
 1570              		.loc 1 287 5 is_stmt 1
 1571              	.LVL163:
 289:C:/Users/stapi/OneDrive/Desktop/GD32VW553/GD32VW55X_Wifi_BLE_SDK/GD32VW55x_RELEASE_V1.0.2/MSDK/lwip/libcoap-4.3.4/src\coap_uri.c **** #if !defined(WITH_LWIP) && !defined(WITH_CONTIKI)
 1572              		.loc 1 289 5
 289:C:/Users/stapi/OneDrive/Desktop/GD32VW553/GD32VW55X_Wifi_BLE_SDK/GD32VW55x_RELEASE_V1.0.2/MSDK/lwip/libcoap-4.3.4/src\coap_uri.c **** #if !defined(WITH_LWIP) && !defined(WITH_CONTIKI)
 1573              		.loc 1 289 8 is_stmt 0
 1574 0022 63880A06 		beq	s5,zero,.L164
 289:C:/Users/stapi/OneDrive/Desktop/GD32VW553/GD32VW55X_Wifi_BLE_SDK/GD32VW55x_RELEASE_V1.0.2/MSDK/lwip/libcoap-4.3.4/src\coap_uri.c **** #if !defined(WITH_LWIP) && !defined(WITH_CONTIKI)
 1575              		.loc 1 289 25 discriminator 1
 1576 0026 1C40     		lw	a5,0(s0)
 289:C:/Users/stapi/OneDrive/Desktop/GD32VW553/GD32VW55X_Wifi_BLE_SDK/GD32VW55x_RELEASE_V1.0.2/MSDK/lwip/libcoap-4.3.4/src\coap_uri.c **** #if !defined(WITH_LWIP) && !defined(WITH_CONTIKI)
 1577              		.loc 1 289 13 discriminator 1
 1578 0028 ADC7     		beq	a5,zero,.L164
 1579              	.LBB68:
 293:C:/Users/stapi/OneDrive/Desktop/GD32VW553/GD32VW55X_Wifi_BLE_SDK/GD32VW55x_RELEASE_V1.0.2/MSDK/lwip/libcoap-4.3.4/src\coap_uri.c **** #endif /* WITH_LWIP || WITH_CONTIKI */
 1580              		.loc 1 293 7 is_stmt 1
 297:C:/Users/stapi/OneDrive/Desktop/GD32VW553/GD32VW55X_Wifi_BLE_SDK/GD32VW55x_RELEASE_V1.0.2/MSDK/lwip/libcoap-4.3.4/src\coap_uri.c ****       const uint8_t *cp = uri->host.s;
 1581              		.loc 1 297 7
 1582              	.LVL164:
 298:C:/Users/stapi/OneDrive/Desktop/GD32VW553/GD32VW55X_Wifi_BLE_SDK/GD32VW55x_RELEASE_V1.0.2/MSDK/lwip/libcoap-4.3.4/src\coap_uri.c **** 
 1583              		.loc 1 298 7
 298:C:/Users/stapi/OneDrive/Desktop/GD32VW553/GD32VW55X_Wifi_BLE_SDK/GD32VW55x_RELEASE_V1.0.2/MSDK/lwip/libcoap-4.3.4/src\coap_uri.c **** 
 1584              		.loc 1 298 22 is_stmt 0
 1585 002a 5840     		lw	a4,4(s0)
 1586              	.LVL165:
 301:C:/Users/stapi/OneDrive/Desktop/GD32VW553/GD32VW55X_Wifi_BLE_SDK/GD32VW55x_RELEASE_V1.0.2/MSDK/lwip/libcoap-4.3.4/src\coap_uri.c ****         if (cp[i] == '%') {
 1587              		.loc 1 301 7 is_stmt 1
 1588              	.LBB69:
 301:C:/Users/stapi/OneDrive/Desktop/GD32VW553/GD32VW55X_Wifi_BLE_SDK/GD32VW55x_RELEASE_V1.0.2/MSDK/lwip/libcoap-4.3.4/src\coap_uri.c ****         if (cp[i] == '%') {
 1589              		.loc 1 301 12
 301:C:/Users/stapi/OneDrive/Desktop/GD32VW553/GD32VW55X_Wifi_BLE_SDK/GD32VW55x_RELEASE_V1.0.2/MSDK/lwip/libcoap-4.3.4/src\coap_uri.c ****         if (cp[i] == '%') {
 1590              		.loc 1 301 26
 301:C:/Users/stapi/OneDrive/Desktop/GD32VW553/GD32VW55X_Wifi_BLE_SDK/GD32VW55x_RELEASE_V1.0.2/MSDK/lwip/libcoap-4.3.4/src\coap_uri.c ****         if (cp[i] == '%') {
 1591              		.loc 1 301 19 is_stmt 0
 1592 002c 8149     		li	s3,0
 302:C:/Users/stapi/OneDrive/Desktop/GD32VW553/GD32VW55X_Wifi_BLE_SDK/GD32VW55x_RELEASE_V1.0.2/MSDK/lwip/libcoap-4.3.4/src\coap_uri.c ****           /* %iface specified in host name */
 1593              		.loc 1 302 12
 1594 002e 93065002 		li	a3,37
 1595              	.LVL166:
 1596              	.L166:
 302:C:/Users/stapi/OneDrive/Desktop/GD32VW553/GD32VW55X_Wifi_BLE_SDK/GD32VW55x_RELEASE_V1.0.2/MSDK/lwip/libcoap-4.3.4/src\coap_uri.c ****           /* %iface specified in host name */
 1597              		.loc 1 302 9 is_stmt 1
 302:C:/Users/stapi/OneDrive/Desktop/GD32VW553/GD32VW55X_Wifi_BLE_SDK/GD32VW55x_RELEASE_V1.0.2/MSDK/lwip/libcoap-4.3.4/src\coap_uri.c ****           /* %iface specified in host name */
 1598              		.loc 1 302 15 is_stmt 0
 1599 0032 33063701 		add	a2,a4,s3
 302:C:/Users/stapi/OneDrive/Desktop/GD32VW553/GD32VW55X_Wifi_BLE_SDK/GD32VW55x_RELEASE_V1.0.2/MSDK/lwip/libcoap-4.3.4/src\coap_uri.c ****           /* %iface specified in host name */
 1600              		.loc 1 302 12
 1601 0036 03460600 		lbu	a2,0(a2)
 1602 003a 6305D600 		beq	a2,a3,.L165
 301:C:/Users/stapi/OneDrive/Desktop/GD32VW553/GD32VW55X_Wifi_BLE_SDK/GD32VW55x_RELEASE_V1.0.2/MSDK/lwip/libcoap-4.3.4/src\coap_uri.c ****         if (cp[i] == '%') {
 1603              		.loc 1 301 44 is_stmt 1 discriminator 2
 301:C:/Users/stapi/OneDrive/Desktop/GD32VW553/GD32VW55X_Wifi_BLE_SDK/GD32VW55x_RELEASE_V1.0.2/MSDK/lwip/libcoap-4.3.4/src\coap_uri.c ****         if (cp[i] == '%') {
 1604              		.loc 1 301 45 is_stmt 0 discriminator 2
 1605 003e 8509     		addi	s3,s3,1
 1606              	.LVL167:
 301:C:/Users/stapi/OneDrive/Desktop/GD32VW553/GD32VW55X_Wifi_BLE_SDK/GD32VW55x_RELEASE_V1.0.2/MSDK/lwip/libcoap-4.3.4/src\coap_uri.c ****         if (cp[i] == '%') {
 1607              		.loc 1 301 26 is_stmt 1 discriminator 2
 301:C:/Users/stapi/OneDrive/Desktop/GD32VW553/GD32VW55X_Wifi_BLE_SDK/GD32VW55x_RELEASE_V1.0.2/MSDK/lwip/libcoap-4.3.4/src\coap_uri.c ****         if (cp[i] == '%') {
 1608              		.loc 1 301 7 is_stmt 0 discriminator 2
 1609 0040 E39937FF 		bne	a5,s3,.L166
 1610              	.L165:
 1611              	.LVL168:
 1612              	.LBE69:
 309:C:/Users/stapi/OneDrive/Desktop/GD32VW553/GD32VW55X_Wifi_BLE_SDK/GD32VW55x_RELEASE_V1.0.2/MSDK/lwip/libcoap-4.3.4/src\coap_uri.c ****           (strlen(addr) != uri_host_len ||
 1613              		.loc 1 309 7 is_stmt 1
 309:C:/Users/stapi/OneDrive/Desktop/GD32VW553/GD32VW55X_Wifi_BLE_SDK/GD32VW55x_RELEASE_V1.0.2/MSDK/lwip/libcoap-4.3.4/src\coap_uri.c ****           (strlen(addr) != uri_host_len ||
 1614              		.loc 1 309 11 is_stmt 0
 1615 0044 13068002 		li	a2,40
 1616 0048 2C08     		addi	a1,sp,24
 1617 004a 5685     		mv	a0,s5
 1618 004c 97000000 		call	coap_print_ip_addr
 1618      E7800000 
 1619              	.LVL169:
 309:C:/Users/stapi/OneDrive/Desktop/GD32VW553/GD32VW55X_Wifi_BLE_SDK/GD32VW55x_RELEASE_V1.0.2/MSDK/lwip/libcoap-4.3.4/src\coap_uri.c ****           (strlen(addr) != uri_host_len ||
 1620              		.loc 1 309 10
 1621 0054 1DCD     		beq	a0,zero,.L164
 310:C:/Users/stapi/OneDrive/Desktop/GD32VW553/GD32VW55X_Wifi_BLE_SDK/GD32VW55x_RELEASE_V1.0.2/MSDK/lwip/libcoap-4.3.4/src\coap_uri.c ****            memcmp(addr, uri->host.s, uri_host_len) != 0)) {
 1622              		.loc 1 310 12 discriminator 1
 1623 0056 2808     		addi	a0,sp,24
 1624 0058 97000000 		call	strlen
 1624      E7800000 
 1625              	.LVL170:
 311:C:/Users/stapi/OneDrive/Desktop/GD32VW553/GD32VW55X_Wifi_BLE_SDK/GD32VW55x_RELEASE_V1.0.2/MSDK/lwip/libcoap-4.3.4/src\coap_uri.c ****         /* add Uri-Host */
 1626              		.loc 1 311 34 discriminator 1
 1627 0060 832A4400 		lw	s5,4(s0)
 1628              	.LVL171:
 309:C:/Users/stapi/OneDrive/Desktop/GD32VW553/GD32VW55X_Wifi_BLE_SDK/GD32VW55x_RELEASE_V1.0.2/MSDK/lwip/libcoap-4.3.4/src\coap_uri.c ****           (strlen(addr) != uri_host_len ||
 1629              		.loc 1 309 55 discriminator 1
 1630 0064 631A3501 		bne	a0,s3,.L168
 311:C:/Users/stapi/OneDrive/Desktop/GD32VW553/GD32VW55X_Wifi_BLE_SDK/GD32VW55x_RELEASE_V1.0.2/MSDK/lwip/libcoap-4.3.4/src\coap_uri.c ****         /* add Uri-Host */
 1631              		.loc 1 311 12
 1632 0068 4E86     		mv	a2,s3
 1633 006a D685     		mv	a1,s5
 1634 006c 2808     		addi	a0,sp,24
 1635 006e 97000000 		call	memcmp
 1635      E7800000 
 1636              	.LVL172:
