   1              		.file	"coap_str.c"
   2              		.option nopic
   3              		.attribute arch, "rv32i2p0_m2p0_a2p0_f2p0_c2p0_b_p0p94"
   4              		.attribute unaligned_access, 0
   5              		.attribute stack_align, 16
   6              		.text
   7              	.Ltext0:
   8              		.cfi_sections	.debug_frame
   9              		.section	.rodata.coap_new_string.str1.4,"aMS",@progbits,1
  10              		.align	2
  11              	.LC0:
  12 0000 73697A65 		.string	"size+1 != 0"
  12      2B312021 
  12      3D203000 
  13              		.align	2
  14              	.LC1:
  15 000c 433A2F55 		.string	"C:/Users/stapi/OneDrive/Desktop/GD32VW553/V1_MQTT_OK/GD32VW55X_Wifi_BLE_SDK/GD32VW55x_REL
  15      73657273 
  15      2F737461 
  15      70692F4F 
  15      6E654472 
  16              		.align	2
  17              	.LC2:
  18 0098 636F6170 		.string	"coap_new_string: malloc: failed\n"
  18      5F6E6577 
  18      5F737472 
  18      696E673A 
  18      206D616C 
  19              		.section	.text.coap_new_string,"ax",@progbits
  20              		.align	1
  21              		.globl	coap_new_string
  23              	coap_new_string:
  24              	.LFB31:
  25              		.file 1 "C:/Users/stapi/OneDrive/Desktop/GD32VW553/V1_MQTT_OK/GD32VW55X_Wifi_BLE_SDK/GD32VW55x_REL
   1:C:/Users/stapi/OneDrive/Desktop/GD32VW553/V1_MQTT_OK/GD32VW55X_Wifi_BLE_SDK/GD32VW55x_RELEASE_V1.0.2/MSDK/lwip/libcoap-4.3.4/src\coap_str.c **** /* coap_str.c -- strings to be used in the CoAP library
   2:C:/Users/stapi/OneDrive/Desktop/GD32VW553/V1_MQTT_OK/GD32VW55X_Wifi_BLE_SDK/GD32VW55x_RELEASE_V1.0.2/MSDK/lwip/libcoap-4.3.4/src\coap_str.c ****  *
   3:C:/Users/stapi/OneDrive/Desktop/GD32VW553/V1_MQTT_OK/GD32VW55X_Wifi_BLE_SDK/GD32VW55x_RELEASE_V1.0.2/MSDK/lwip/libcoap-4.3.4/src\coap_str.c ****  * Copyright (C) 2010,2011,2022-2023 Olaf Bergmann <bergmann@tzi.org>
   4:C:/Users/stapi/OneDrive/Desktop/GD32VW553/V1_MQTT_OK/GD32VW55X_Wifi_BLE_SDK/GD32VW55x_RELEASE_V1.0.2/MSDK/lwip/libcoap-4.3.4/src\coap_str.c ****  * Copyright (c) 2024, GigaDevice Semiconductor Inc.
   5:C:/Users/stapi/OneDrive/Desktop/GD32VW553/V1_MQTT_OK/GD32VW55X_Wifi_BLE_SDK/GD32VW55x_RELEASE_V1.0.2/MSDK/lwip/libcoap-4.3.4/src\coap_str.c ****  *
   6:C:/Users/stapi/OneDrive/Desktop/GD32VW553/V1_MQTT_OK/GD32VW55X_Wifi_BLE_SDK/GD32VW55x_RELEASE_V1.0.2/MSDK/lwip/libcoap-4.3.4/src\coap_str.c ****  * SPDX-License-Identifier: BSD-2-Clause
   7:C:/Users/stapi/OneDrive/Desktop/GD32VW553/V1_MQTT_OK/GD32VW55X_Wifi_BLE_SDK/GD32VW55x_RELEASE_V1.0.2/MSDK/lwip/libcoap-4.3.4/src\coap_str.c ****  *
   8:C:/Users/stapi/OneDrive/Desktop/GD32VW553/V1_MQTT_OK/GD32VW55X_Wifi_BLE_SDK/GD32VW55x_RELEASE_V1.0.2/MSDK/lwip/libcoap-4.3.4/src\coap_str.c ****  * This file is part of the CoAP library libcoap. Please see
   9:C:/Users/stapi/OneDrive/Desktop/GD32VW553/V1_MQTT_OK/GD32VW55X_Wifi_BLE_SDK/GD32VW55x_RELEASE_V1.0.2/MSDK/lwip/libcoap-4.3.4/src\coap_str.c ****  * README for terms of use.
  10:C:/Users/stapi/OneDrive/Desktop/GD32VW553/V1_MQTT_OK/GD32VW55X_Wifi_BLE_SDK/GD32VW55x_RELEASE_V1.0.2/MSDK/lwip/libcoap-4.3.4/src\coap_str.c ****  */
  11:C:/Users/stapi/OneDrive/Desktop/GD32VW553/V1_MQTT_OK/GD32VW55X_Wifi_BLE_SDK/GD32VW55x_RELEASE_V1.0.2/MSDK/lwip/libcoap-4.3.4/src\coap_str.c **** 
  12:C:/Users/stapi/OneDrive/Desktop/GD32VW553/V1_MQTT_OK/GD32VW55X_Wifi_BLE_SDK/GD32VW55x_RELEASE_V1.0.2/MSDK/lwip/libcoap-4.3.4/src\coap_str.c **** /**
  13:C:/Users/stapi/OneDrive/Desktop/GD32VW553/V1_MQTT_OK/GD32VW55X_Wifi_BLE_SDK/GD32VW55x_RELEASE_V1.0.2/MSDK/lwip/libcoap-4.3.4/src\coap_str.c ****  * @file coap_str.c
  14:C:/Users/stapi/OneDrive/Desktop/GD32VW553/V1_MQTT_OK/GD32VW55X_Wifi_BLE_SDK/GD32VW55x_RELEASE_V1.0.2/MSDK/lwip/libcoap-4.3.4/src\coap_str.c ****  * @brief String handling functions
  15:C:/Users/stapi/OneDrive/Desktop/GD32VW553/V1_MQTT_OK/GD32VW55X_Wifi_BLE_SDK/GD32VW55x_RELEASE_V1.0.2/MSDK/lwip/libcoap-4.3.4/src\coap_str.c ****  */
  16:C:/Users/stapi/OneDrive/Desktop/GD32VW553/V1_MQTT_OK/GD32VW55X_Wifi_BLE_SDK/GD32VW55x_RELEASE_V1.0.2/MSDK/lwip/libcoap-4.3.4/src\coap_str.c **** 
  17:C:/Users/stapi/OneDrive/Desktop/GD32VW553/V1_MQTT_OK/GD32VW55X_Wifi_BLE_SDK/GD32VW55x_RELEASE_V1.0.2/MSDK/lwip/libcoap-4.3.4/src\coap_str.c **** #include "coap3/coap_internal.h"
  18:C:/Users/stapi/OneDrive/Desktop/GD32VW553/V1_MQTT_OK/GD32VW55X_Wifi_BLE_SDK/GD32VW55x_RELEASE_V1.0.2/MSDK/lwip/libcoap-4.3.4/src\coap_str.c **** 
  19:C:/Users/stapi/OneDrive/Desktop/GD32VW553/V1_MQTT_OK/GD32VW55X_Wifi_BLE_SDK/GD32VW55x_RELEASE_V1.0.2/MSDK/lwip/libcoap-4.3.4/src\coap_str.c **** #include <stdio.h>
  20:C:/Users/stapi/OneDrive/Desktop/GD32VW553/V1_MQTT_OK/GD32VW55X_Wifi_BLE_SDK/GD32VW55x_RELEASE_V1.0.2/MSDK/lwip/libcoap-4.3.4/src\coap_str.c **** 
  21:C:/Users/stapi/OneDrive/Desktop/GD32VW553/V1_MQTT_OK/GD32VW55X_Wifi_BLE_SDK/GD32VW55x_RELEASE_V1.0.2/MSDK/lwip/libcoap-4.3.4/src\coap_str.c **** coap_string_t *
  22:C:/Users/stapi/OneDrive/Desktop/GD32VW553/V1_MQTT_OK/GD32VW55X_Wifi_BLE_SDK/GD32VW55x_RELEASE_V1.0.2/MSDK/lwip/libcoap-4.3.4/src\coap_str.c **** coap_new_string(size_t size) {
  26              		.loc 1 22 30
  27              		.cfi_startproc
  28              	.LVL0:
  29 0000 17030000 		call	t0,__riscv_save_2
  29      E7020300 
  30              		.cfi_offset 9, -12
  31              		.cfi_offset 8, -8
  32              		.cfi_offset 1, -4
  33              		.cfi_def_cfa_offset 16
  23:C:/Users/stapi/OneDrive/Desktop/GD32VW553/V1_MQTT_OK/GD32VW55X_Wifi_BLE_SDK/GD32VW55x_RELEASE_V1.0.2/MSDK/lwip/libcoap-4.3.4/src\coap_str.c ****   coap_string_t *s;
  34              		.loc 1 23 3
  24:C:/Users/stapi/OneDrive/Desktop/GD32VW553/V1_MQTT_OK/GD32VW55X_Wifi_BLE_SDK/GD32VW55x_RELEASE_V1.0.2/MSDK/lwip/libcoap-4.3.4/src\coap_str.c **** #if defined WITH_LWIP && !defined HAVE_MALLOC
  25:C:/Users/stapi/OneDrive/Desktop/GD32VW553/V1_MQTT_OK/GD32VW55X_Wifi_BLE_SDK/GD32VW55x_RELEASE_V1.0.2/MSDK/lwip/libcoap-4.3.4/src\coap_str.c ****   if (size >= MEMP_LEN_COAPSTRING) {
  26:C:/Users/stapi/OneDrive/Desktop/GD32VW553/V1_MQTT_OK/GD32VW55X_Wifi_BLE_SDK/GD32VW55x_RELEASE_V1.0.2/MSDK/lwip/libcoap-4.3.4/src\coap_str.c ****     coap_log_crit("coap_new_string: size too large (%zu +1 > MEMP_LEN_COAPSTRING)\n",
  27:C:/Users/stapi/OneDrive/Desktop/GD32VW553/V1_MQTT_OK/GD32VW55X_Wifi_BLE_SDK/GD32VW55x_RELEASE_V1.0.2/MSDK/lwip/libcoap-4.3.4/src\coap_str.c ****                   size);
  28:C:/Users/stapi/OneDrive/Desktop/GD32VW553/V1_MQTT_OK/GD32VW55X_Wifi_BLE_SDK/GD32VW55x_RELEASE_V1.0.2/MSDK/lwip/libcoap-4.3.4/src\coap_str.c ****     return NULL;
  29:C:/Users/stapi/OneDrive/Desktop/GD32VW553/V1_MQTT_OK/GD32VW55X_Wifi_BLE_SDK/GD32VW55x_RELEASE_V1.0.2/MSDK/lwip/libcoap-4.3.4/src\coap_str.c ****   }
  30:C:/Users/stapi/OneDrive/Desktop/GD32VW553/V1_MQTT_OK/GD32VW55X_Wifi_BLE_SDK/GD32VW55x_RELEASE_V1.0.2/MSDK/lwip/libcoap-4.3.4/src\coap_str.c **** #endif /* WITH_LWIP */
  31:C:/Users/stapi/OneDrive/Desktop/GD32VW553/V1_MQTT_OK/GD32VW55X_Wifi_BLE_SDK/GD32VW55x_RELEASE_V1.0.2/MSDK/lwip/libcoap-4.3.4/src\coap_str.c ****   assert(size+1 != 0);
  35              		.loc 1 31 3
  36 0008 FD57     		li	a5,-1
  37 000a 6313F502 		bne	a0,a5,.L2
  38              	.LVL1:
  39              	.LBB6:
  40              	.LBB7:
  41 000e B7060000 		lui	a3,%hi(.LC0)
  42 0012 37060000 		lui	a2,%hi(.LANCHOR0)
  43 0016 37050000 		lui	a0,%hi(.LC1)
  44              	.LVL2:
  45 001a 93860600 		addi	a3,a3,%lo(.LC0)
  46 001e 13060600 		addi	a2,a2,%lo(.LANCHOR0)
  47 0022 FD45     		li	a1,31
  48 0024 13050500 		addi	a0,a0,%lo(.LC1)
  49 0028 97000000 		call	__assert_func
  49      E7800000 
  50              	.LVL3:
  51              	.L2:
  52              	.LBE7:
  53              	.LBE6:
  32:C:/Users/stapi/OneDrive/Desktop/GD32VW553/V1_MQTT_OK/GD32VW55X_Wifi_BLE_SDK/GD32VW55x_RELEASE_V1.0.2/MSDK/lwip/libcoap-4.3.4/src\coap_str.c ****   s = (coap_string_t *)coap_malloc_type(COAP_STRING,
  54              		.loc 1 32 24 is_stmt 0
  55 0030 93059500 		addi	a1,a0,9
  56 0034 AA84     		mv	s1,a0
  57              		.loc 1 32 3 is_stmt 1
  58              		.loc 1 32 24 is_stmt 0
  59 0036 0145     		li	a0,0
  60              	.LVL4:
  61 0038 97000000 		call	coap_malloc_type
  61      E7800000 
  62              	.LVL5:
  63 0040 2A84     		mv	s0,a0
  64              	.LVL6:
  33:C:/Users/stapi/OneDrive/Desktop/GD32VW553/V1_MQTT_OK/GD32VW55X_Wifi_BLE_SDK/GD32VW55x_RELEASE_V1.0.2/MSDK/lwip/libcoap-4.3.4/src\coap_str.c ****                                         sizeof(coap_string_t) + size + 1);
  34:C:/Users/stapi/OneDrive/Desktop/GD32VW553/V1_MQTT_OK/GD32VW55X_Wifi_BLE_SDK/GD32VW55x_RELEASE_V1.0.2/MSDK/lwip/libcoap-4.3.4/src\coap_str.c ****   if (!s) {
  65              		.loc 1 34 3 is_stmt 1
  66              		.loc 1 34 6 is_stmt 0
  67 0042 15E5     		bne	a0,zero,.L3
  35:C:/Users/stapi/OneDrive/Desktop/GD32VW553/V1_MQTT_OK/GD32VW55X_Wifi_BLE_SDK/GD32VW55x_RELEASE_V1.0.2/MSDK/lwip/libcoap-4.3.4/src\coap_str.c ****     coap_log_crit("coap_new_string: malloc: failed\n");
  68              		.loc 1 35 5 is_stmt 1
  69              		.loc 1 35 5
  70 0044 97000000 		call	coap_get_log_level
  70      E7800000 
  71              	.LVL7:
  72 004c 8547     		li	a5,1
  73 004e 63DBA700 		ble	a0,a5,.L1
  74              		.loc 1 35 5 discriminator 1
  75 0052 B7050000 		lui	a1,%hi(.LC2)
  76 0056 93850500 		addi	a1,a1,%lo(.LC2)
  77 005a 0945     		li	a0,2
  78 005c 97000000 		call	coap_log_impl
  78      E7800000 
  79              	.LVL8:
  80              	.L1:
  36:C:/Users/stapi/OneDrive/Desktop/GD32VW553/V1_MQTT_OK/GD32VW55X_Wifi_BLE_SDK/GD32VW55x_RELEASE_V1.0.2/MSDK/lwip/libcoap-4.3.4/src\coap_str.c ****     return NULL;
  37:C:/Users/stapi/OneDrive/Desktop/GD32VW553/V1_MQTT_OK/GD32VW55X_Wifi_BLE_SDK/GD32VW55x_RELEASE_V1.0.2/MSDK/lwip/libcoap-4.3.4/src\coap_str.c ****   }
  38:C:/Users/stapi/OneDrive/Desktop/GD32VW553/V1_MQTT_OK/GD32VW55X_Wifi_BLE_SDK/GD32VW55x_RELEASE_V1.0.2/MSDK/lwip/libcoap-4.3.4/src\coap_str.c **** 
  39:C:/Users/stapi/OneDrive/Desktop/GD32VW553/V1_MQTT_OK/GD32VW55X_Wifi_BLE_SDK/GD32VW55x_RELEASE_V1.0.2/MSDK/lwip/libcoap-4.3.4/src\coap_str.c ****   memset(s, 0, sizeof(coap_string_t));
  40:C:/Users/stapi/OneDrive/Desktop/GD32VW553/V1_MQTT_OK/GD32VW55X_Wifi_BLE_SDK/GD32VW55x_RELEASE_V1.0.2/MSDK/lwip/libcoap-4.3.4/src\coap_str.c ****   s->s = ((unsigned char *)s) + sizeof(coap_string_t);
  41:C:/Users/stapi/OneDrive/Desktop/GD32VW553/V1_MQTT_OK/GD32VW55X_Wifi_BLE_SDK/GD32VW55x_RELEASE_V1.0.2/MSDK/lwip/libcoap-4.3.4/src\coap_str.c ****   s->s[size] = '\000';
  42:C:/Users/stapi/OneDrive/Desktop/GD32VW553/V1_MQTT_OK/GD32VW55X_Wifi_BLE_SDK/GD32VW55x_RELEASE_V1.0.2/MSDK/lwip/libcoap-4.3.4/src\coap_str.c ****   s->length = size;
  43:C:/Users/stapi/OneDrive/Desktop/GD32VW553/V1_MQTT_OK/GD32VW55X_Wifi_BLE_SDK/GD32VW55x_RELEASE_V1.0.2/MSDK/lwip/libcoap-4.3.4/src\coap_str.c ****   return s;
  44:C:/Users/stapi/OneDrive/Desktop/GD32VW553/V1_MQTT_OK/GD32VW55X_Wifi_BLE_SDK/GD32VW55x_RELEASE_V1.0.2/MSDK/lwip/libcoap-4.3.4/src\coap_str.c **** }
  81              		.loc 1 44 1 is_stmt 0
  82 0064 2285     		mv	a0,s0
  83 0066 17030000 		tail	__riscv_restore_2
  83      67000300 
  84              		.cfi_remember_state
  85              		.cfi_restore 9
  86              		.cfi_restore 8
  87              		.cfi_restore 1
  88              		.cfi_def_cfa_offset 0
  89              	.L3:
  90              		.cfi_restore_state
  39:C:/Users/stapi/OneDrive/Desktop/GD32VW553/V1_MQTT_OK/GD32VW55X_Wifi_BLE_SDK/GD32VW55x_RELEASE_V1.0.2/MSDK/lwip/libcoap-4.3.4/src\coap_str.c ****   s->s = ((unsigned char *)s) + sizeof(coap_string_t);
  91              		.loc 1 39 3 is_stmt 1
  40:C:/Users/stapi/OneDrive/Desktop/GD32VW553/V1_MQTT_OK/GD32VW55X_Wifi_BLE_SDK/GD32VW55x_RELEASE_V1.0.2/MSDK/lwip/libcoap-4.3.4/src\coap_str.c ****   s->s[size] = '\000';
  92              		.loc 1 40 3
  40:C:/Users/stapi/OneDrive/Desktop/GD32VW553/V1_MQTT_OK/GD32VW55X_Wifi_BLE_SDK/GD32VW55x_RELEASE_V1.0.2/MSDK/lwip/libcoap-4.3.4/src\coap_str.c ****   s->s[size] = '\000';
  93              		.loc 1 40 31 is_stmt 0
  94 006e 93078500 		addi	a5,a0,8
  40:C:/Users/stapi/OneDrive/Desktop/GD32VW553/V1_MQTT_OK/GD32VW55X_Wifi_BLE_SDK/GD32VW55x_RELEASE_V1.0.2/MSDK/lwip/libcoap-4.3.4/src\coap_str.c ****   s->s[size] = '\000';
  95              		.loc 1 40 8
  96 0072 5CC1     		sw	a5,4(a0)
  41:C:/Users/stapi/OneDrive/Desktop/GD32VW553/V1_MQTT_OK/GD32VW55X_Wifi_BLE_SDK/GD32VW55x_RELEASE_V1.0.2/MSDK/lwip/libcoap-4.3.4/src\coap_str.c ****   s->length = size;
  97              		.loc 1 41 3 is_stmt 1
  41:C:/Users/stapi/OneDrive/Desktop/GD32VW553/V1_MQTT_OK/GD32VW55X_Wifi_BLE_SDK/GD32VW55x_RELEASE_V1.0.2/MSDK/lwip/libcoap-4.3.4/src\coap_str.c ****   s->length = size;
  98              		.loc 1 41 14 is_stmt 0
  99 0074 A697     		add	a5,a5,s1
 100 0076 23800700 		sb	zero,0(a5)
  42:C:/Users/stapi/OneDrive/Desktop/GD32VW553/V1_MQTT_OK/GD32VW55X_Wifi_BLE_SDK/GD32VW55x_RELEASE_V1.0.2/MSDK/lwip/libcoap-4.3.4/src\coap_str.c ****   return s;
 101              		.loc 1 42 3 is_stmt 1
  42:C:/Users/stapi/OneDrive/Desktop/GD32VW553/V1_MQTT_OK/GD32VW55X_Wifi_BLE_SDK/GD32VW55x_RELEASE_V1.0.2/MSDK/lwip/libcoap-4.3.4/src\coap_str.c ****   return s;
 102              		.loc 1 42 13 is_stmt 0
 103 007a 04C1     		sw	s1,0(a0)
  43:C:/Users/stapi/OneDrive/Desktop/GD32VW553/V1_MQTT_OK/GD32VW55X_Wifi_BLE_SDK/GD32VW55x_RELEASE_V1.0.2/MSDK/lwip/libcoap-4.3.4/src\coap_str.c **** }
 104              		.loc 1 43 3 is_stmt 1
  43:C:/Users/stapi/OneDrive/Desktop/GD32VW553/V1_MQTT_OK/GD32VW55X_Wifi_BLE_SDK/GD32VW55x_RELEASE_V1.0.2/MSDK/lwip/libcoap-4.3.4/src\coap_str.c **** }
 105              		.loc 1 43 10 is_stmt 0
 106 007c E5B7     		j	.L1
 107              		.cfi_endproc
 108              	.LFE31:
 110              		.section	.text.coap_delete_string,"ax",@progbits
 111              		.align	1
 112              		.globl	coap_delete_string
 114              	coap_delete_string:
 115              	.LFB32:
  45:C:/Users/stapi/OneDrive/Desktop/GD32VW553/V1_MQTT_OK/GD32VW55X_Wifi_BLE_SDK/GD32VW55x_RELEASE_V1.0.2/MSDK/lwip/libcoap-4.3.4/src\coap_str.c **** 
  46:C:/Users/stapi/OneDrive/Desktop/GD32VW553/V1_MQTT_OK/GD32VW55X_Wifi_BLE_SDK/GD32VW55x_RELEASE_V1.0.2/MSDK/lwip/libcoap-4.3.4/src\coap_str.c **** void
  47:C:/Users/stapi/OneDrive/Desktop/GD32VW553/V1_MQTT_OK/GD32VW55X_Wifi_BLE_SDK/GD32VW55x_RELEASE_V1.0.2/MSDK/lwip/libcoap-4.3.4/src\coap_str.c **** coap_delete_string(coap_string_t *s) {
 116              		.loc 1 47 38 is_stmt 1
 117              		.cfi_startproc
 118              	.LVL9:
  48:C:/Users/stapi/OneDrive/Desktop/GD32VW553/V1_MQTT_OK/GD32VW55X_Wifi_BLE_SDK/GD32VW55x_RELEASE_V1.0.2/MSDK/lwip/libcoap-4.3.4/src\coap_str.c ****   coap_free_type(COAP_STRING, s);
 119              		.loc 1 48 3
  47:C:/Users/stapi/OneDrive/Desktop/GD32VW553/V1_MQTT_OK/GD32VW55X_Wifi_BLE_SDK/GD32VW55x_RELEASE_V1.0.2/MSDK/lwip/libcoap-4.3.4/src\coap_str.c ****   coap_free_type(COAP_STRING, s);
 120              		.loc 1 47 38 is_stmt 0
 121 0000 AA85     		mv	a1,a0
 122              		.loc 1 48 3
 123 0002 0145     		li	a0,0
 124              	.LVL10:
 125 0004 17030000 		tail	coap_free_type
 125      67000300 
 126              	.LVL11:
 127              		.cfi_endproc
 128              	.LFE32:
 130              		.section	.text.coap_new_str_const,"ax",@progbits
 131              		.align	1
 132              		.globl	coap_new_str_const
 134              	coap_new_str_const:
 135              	.LFB33:
  49:C:/Users/stapi/OneDrive/Desktop/GD32VW553/V1_MQTT_OK/GD32VW55X_Wifi_BLE_SDK/GD32VW55x_RELEASE_V1.0.2/MSDK/lwip/libcoap-4.3.4/src\coap_str.c **** }
  50:C:/Users/stapi/OneDrive/Desktop/GD32VW553/V1_MQTT_OK/GD32VW55X_Wifi_BLE_SDK/GD32VW55x_RELEASE_V1.0.2/MSDK/lwip/libcoap-4.3.4/src\coap_str.c **** 
  51:C:/Users/stapi/OneDrive/Desktop/GD32VW553/V1_MQTT_OK/GD32VW55X_Wifi_BLE_SDK/GD32VW55x_RELEASE_V1.0.2/MSDK/lwip/libcoap-4.3.4/src\coap_str.c **** coap_str_const_t *
  52:C:/Users/stapi/OneDrive/Desktop/GD32VW553/V1_MQTT_OK/GD32VW55X_Wifi_BLE_SDK/GD32VW55x_RELEASE_V1.0.2/MSDK/lwip/libcoap-4.3.4/src\coap_str.c **** coap_new_str_const(const uint8_t *data, size_t size) {
 136              		.loc 1 52 54 is_stmt 1
 137              		.cfi_startproc
 138              	.LVL12:
 139 0000 17030000 		call	t0,__riscv_save_3
 139      E7020300 
 140              		.cfi_offset 18, -16
 141              		.cfi_offset 9, -12
 142              		.cfi_offset 8, -8
 143              		.cfi_offset 1, -4
 144              		.cfi_def_cfa_offset 16
  53:C:/Users/stapi/OneDrive/Desktop/GD32VW553/V1_MQTT_OK/GD32VW55X_Wifi_BLE_SDK/GD32VW55x_RELEASE_V1.0.2/MSDK/lwip/libcoap-4.3.4/src\coap_str.c ****   coap_string_t *s = coap_new_string(size);
 145              		.loc 1 53 3
  52:C:/Users/stapi/OneDrive/Desktop/GD32VW553/V1_MQTT_OK/GD32VW55X_Wifi_BLE_SDK/GD32VW55x_RELEASE_V1.0.2/MSDK/lwip/libcoap-4.3.4/src\coap_str.c ****   coap_string_t *s = coap_new_string(size);
 146              		.loc 1 52 54 is_stmt 0
 147 0008 2A89     		mv	s2,a0
 148              		.loc 1 53 22
 149 000a 2E85     		mv	a0,a1
 150              	.LVL13:
  52:C:/Users/stapi/OneDrive/Desktop/GD32VW553/V1_MQTT_OK/GD32VW55X_Wifi_BLE_SDK/GD32VW55x_RELEASE_V1.0.2/MSDK/lwip/libcoap-4.3.4/src\coap_str.c ****   coap_string_t *s = coap_new_string(size);
 151              		.loc 1 52 54
 152 000c AE84     		mv	s1,a1
 153              		.loc 1 53 22
 154 000e 97000000 		call	coap_new_string
 154      E7800000 
 155              	.LVL14:
 156 0016 2A84     		mv	s0,a0
 157              	.LVL15:
  54:C:/Users/stapi/OneDrive/Desktop/GD32VW553/V1_MQTT_OK/GD32VW55X_Wifi_BLE_SDK/GD32VW55x_RELEASE_V1.0.2/MSDK/lwip/libcoap-4.3.4/src\coap_str.c ****   if (!s)
 158              		.loc 1 54 3 is_stmt 1
 159              		.loc 1 54 6 is_stmt 0
 160 0018 09C9     		beq	a0,zero,.L8
  55:C:/Users/stapi/OneDrive/Desktop/GD32VW553/V1_MQTT_OK/GD32VW55X_Wifi_BLE_SDK/GD32VW55x_RELEASE_V1.0.2/MSDK/lwip/libcoap-4.3.4/src\coap_str.c ****     return NULL;
  56:C:/Users/stapi/OneDrive/Desktop/GD32VW553/V1_MQTT_OK/GD32VW55X_Wifi_BLE_SDK/GD32VW55x_RELEASE_V1.0.2/MSDK/lwip/libcoap-4.3.4/src\coap_str.c ****   memcpy(s->s, data, size);
 161              		.loc 1 56 3 is_stmt 1
 162 001a 4841     		lw	a0,4(a0)
 163 001c 2686     		mv	a2,s1
 164 001e CA85     		mv	a1,s2
 165 0020 97000000 		call	memcpy
 165      E7800000 
 166              	.LVL16:
  57:C:/Users/stapi/OneDrive/Desktop/GD32VW553/V1_MQTT_OK/GD32VW55X_Wifi_BLE_SDK/GD32VW55x_RELEASE_V1.0.2/MSDK/lwip/libcoap-4.3.4/src\coap_str.c ****   s->length = size;
 167              		.loc 1 57 3
 168              		.loc 1 57 13 is_stmt 0
 169 0028 04C0     		sw	s1,0(s0)
  58:C:/Users/stapi/OneDrive/Desktop/GD32VW553/V1_MQTT_OK/GD32VW55X_Wifi_BLE_SDK/GD32VW55x_RELEASE_V1.0.2/MSDK/lwip/libcoap-4.3.4/src\coap_str.c ****   return (coap_str_const_t *)s;
 170              		.loc 1 58 3 is_stmt 1
 171              	.L8:
  59:C:/Users/stapi/OneDrive/Desktop/GD32VW553/V1_MQTT_OK/GD32VW55X_Wifi_BLE_SDK/GD32VW55x_RELEASE_V1.0.2/MSDK/lwip/libcoap-4.3.4/src\coap_str.c **** }
 172              		.loc 1 59 1 is_stmt 0
 173 002a 2285     		mv	a0,s0
 174 002c 17030000 		tail	__riscv_restore_3
 174      67000300 
 175              		.cfi_restore 18
 176              		.cfi_restore 9
 177              		.cfi_restore 8
 178              		.cfi_restore 1
 179              		.cfi_def_cfa_offset 0
 180              		.cfi_endproc
 181              	.LFE33:
 183              		.section	.text.coap_delete_str_const,"ax",@progbits
 184              		.align	1
 185              		.globl	coap_delete_str_const
 187              	coap_delete_str_const:
 188              	.LFB43:
 189              		.cfi_startproc
 190 0000 17030000 		tail	coap_delete_string
 190      67000300 
 191              		.cfi_endproc
 192              	.LFE43:
 194              		.section	.text.coap_make_str_const,"ax",@progbits
 195              		.align	1
 196              		.globl	coap_make_str_const
 198              	coap_make_str_const:
 199              	.LFB35:
  60:C:/Users/stapi/OneDrive/Desktop/GD32VW553/V1_MQTT_OK/GD32VW55X_Wifi_BLE_SDK/GD32VW55x_RELEASE_V1.0.2/MSDK/lwip/libcoap-4.3.4/src\coap_str.c **** 
  61:C:/Users/stapi/OneDrive/Desktop/GD32VW553/V1_MQTT_OK/GD32VW55X_Wifi_BLE_SDK/GD32VW55x_RELEASE_V1.0.2/MSDK/lwip/libcoap-4.3.4/src\coap_str.c **** void
  62:C:/Users/stapi/OneDrive/Desktop/GD32VW553/V1_MQTT_OK/GD32VW55X_Wifi_BLE_SDK/GD32VW55x_RELEASE_V1.0.2/MSDK/lwip/libcoap-4.3.4/src\coap_str.c **** coap_delete_str_const(coap_str_const_t *s) {
  63:C:/Users/stapi/OneDrive/Desktop/GD32VW553/V1_MQTT_OK/GD32VW55X_Wifi_BLE_SDK/GD32VW55x_RELEASE_V1.0.2/MSDK/lwip/libcoap-4.3.4/src\coap_str.c ****   coap_free_type(COAP_STRING, s);
  64:C:/Users/stapi/OneDrive/Desktop/GD32VW553/V1_MQTT_OK/GD32VW55X_Wifi_BLE_SDK/GD32VW55x_RELEASE_V1.0.2/MSDK/lwip/libcoap-4.3.4/src\coap_str.c **** }
  65:C:/Users/stapi/OneDrive/Desktop/GD32VW553/V1_MQTT_OK/GD32VW55X_Wifi_BLE_SDK/GD32VW55x_RELEASE_V1.0.2/MSDK/lwip/libcoap-4.3.4/src\coap_str.c **** 
  66:C:/Users/stapi/OneDrive/Desktop/GD32VW553/V1_MQTT_OK/GD32VW55X_Wifi_BLE_SDK/GD32VW55x_RELEASE_V1.0.2/MSDK/lwip/libcoap-4.3.4/src\coap_str.c **** coap_str_const_t *
  67:C:/Users/stapi/OneDrive/Desktop/GD32VW553/V1_MQTT_OK/GD32VW55X_Wifi_BLE_SDK/GD32VW55x_RELEASE_V1.0.2/MSDK/lwip/libcoap-4.3.4/src\coap_str.c **** coap_make_str_const(const char *string) {
 200              		.loc 1 67 41 is_stmt 1
 201              		.cfi_startproc
 202              	.LVL17:
 203              		.loc 1 67 41 is_stmt 0
 204 0000 17030000 		call	t0,__riscv_save_2
 204      E7020300 
 205              		.cfi_offset 9, -12
 206              		.cfi_offset 8, -8
 207              		.cfi_offset 1, -4
 208              		.cfi_def_cfa_offset 16
  68:C:/Users/stapi/OneDrive/Desktop/GD32VW553/V1_MQTT_OK/GD32VW55X_Wifi_BLE_SDK/GD32VW55x_RELEASE_V1.0.2/MSDK/lwip/libcoap-4.3.4/src\coap_str.c ****   static int ofs = 0;
 209              		.loc 1 68 3 is_stmt 1
  69:C:/Users/stapi/OneDrive/Desktop/GD32VW553/V1_MQTT_OK/GD32VW55X_Wifi_BLE_SDK/GD32VW55x_RELEASE_V1.0.2/MSDK/lwip/libcoap-4.3.4/src\coap_str.c ****   static coap_str_const_t var[COAP_MAX_STR_CONST_FUNC];
 210              		.loc 1 69 3
  70:C:/Users/stapi/OneDrive/Desktop/GD32VW553/V1_MQTT_OK/GD32VW55X_Wifi_BLE_SDK/GD32VW55x_RELEASE_V1.0.2/MSDK/lwip/libcoap-4.3.4/src\coap_str.c ****   if (++ofs == COAP_MAX_STR_CONST_FUNC)
 211              		.loc 1 70 3
 212              		.loc 1 70 7 is_stmt 0
 213 0008 B7070000 		lui	a5,%hi(.LANCHOR1)
 214 000c 03A70700 		lw	a4,%lo(.LANCHOR1)(a5)
 215              		.loc 1 70 6
 216 0010 8946     		li	a3,2
  67:C:/Users/stapi/OneDrive/Desktop/GD32VW553/V1_MQTT_OK/GD32VW55X_Wifi_BLE_SDK/GD32VW55x_RELEASE_V1.0.2/MSDK/lwip/libcoap-4.3.4/src\coap_str.c ****   static int ofs = 0;
 217              		.loc 1 67 41
 218 0012 AA84     		mv	s1,a0
 219              		.loc 1 70 7
 220 0014 0507     		addi	a4,a4,1
 221 0016 93870700 		addi	a5,a5,%lo(.LANCHOR1)
 222              		.loc 1 70 6
 223 001a 6306D702 		beq	a4,a3,.L17
 224 001e 98C3     		sw	a4,0(a5)
 225              	.L18:
  71:C:/Users/stapi/OneDrive/Desktop/GD32VW553/V1_MQTT_OK/GD32VW55X_Wifi_BLE_SDK/GD32VW55x_RELEASE_V1.0.2/MSDK/lwip/libcoap-4.3.4/src\coap_str.c ****     ofs = 0;
  72:C:/Users/stapi/OneDrive/Desktop/GD32VW553/V1_MQTT_OK/GD32VW55X_Wifi_BLE_SDK/GD32VW55x_RELEASE_V1.0.2/MSDK/lwip/libcoap-4.3.4/src\coap_str.c ****   var[ofs].length = strlen(string);
 226              		.loc 1 72 3 is_stmt 1
 227              		.loc 1 72 21 is_stmt 0
 228 0020 2685     		mv	a0,s1
 229              	.LVL18:
 230              		.loc 1 72 11
 231 0022 8043     		lw	s0,0(a5)
 232              		.loc 1 72 21
 233 0024 97000000 		call	strlen
 233      E7800000 
 234              	.LVL19:
 235              		.loc 1 72 19
 236 002c B7070000 		lui	a5,%hi(.LANCHOR2)
 237 0030 93870700 		addi	a5,a5,%lo(.LANCHOR2)
 238 0034 B367F420 		sh3add	a5,s0,a5
 239 0038 88C3     		sw	a0,0(a5)
  73:C:/Users/stapi/OneDrive/Desktop/GD32VW553/V1_MQTT_OK/GD32VW55X_Wifi_BLE_SDK/GD32VW55x_RELEASE_V1.0.2/MSDK/lwip/libcoap-4.3.4/src\coap_str.c ****   var[ofs].s = (const uint8_t *)string;
 240              		.loc 1 73 3 is_stmt 1
 241              		.loc 1 73 14 is_stmt 0
 242 003a C4C3     		sw	s1,4(a5)
  74:C:/Users/stapi/OneDrive/Desktop/GD32VW553/V1_MQTT_OK/GD32VW55X_Wifi_BLE_SDK/GD32VW55x_RELEASE_V1.0.2/MSDK/lwip/libcoap-4.3.4/src\coap_str.c ****   return &var[ofs];
 243              		.loc 1 74 3 is_stmt 1
  75:C:/Users/stapi/OneDrive/Desktop/GD32VW553/V1_MQTT_OK/GD32VW55X_Wifi_BLE_SDK/GD32VW55x_RELEASE_V1.0.2/MSDK/lwip/libcoap-4.3.4/src\coap_str.c **** }
 244              		.loc 1 75 1 is_stmt 0
 245 003c 3E85     		mv	a0,a5
 246 003e 17030000 		tail	__riscv_restore_2
 246      67000300 
 247              		.cfi_remember_state
 248              		.cfi_restore 9
 249              		.cfi_restore 8
 250              		.cfi_restore 1
 251              		.cfi_def_cfa_offset 0
 252              	.L17:
 253              		.cfi_restore_state
  71:C:/Users/stapi/OneDrive/Desktop/GD32VW553/V1_MQTT_OK/GD32VW55X_Wifi_BLE_SDK/GD32VW55x_RELEASE_V1.0.2/MSDK/lwip/libcoap-4.3.4/src\coap_str.c ****   var[ofs].length = strlen(string);
 254              		.loc 1 71 5 is_stmt 1
  71:C:/Users/stapi/OneDrive/Desktop/GD32VW553/V1_MQTT_OK/GD32VW55X_Wifi_BLE_SDK/GD32VW55x_RELEASE_V1.0.2/MSDK/lwip/libcoap-4.3.4/src\coap_str.c ****   var[ofs].length = strlen(string);
 255              		.loc 1 71 9 is_stmt 0
 256 0046 23A00700 		sw	zero,0(a5)
 257 004a D9BF     		j	.L18
 258              		.cfi_endproc
 259              	.LFE35:
 261              		.section	.text.coap_new_binary,"ax",@progbits
 262              		.align	1
 263              		.globl	coap_new_binary
 265              	coap_new_binary:
 266              	.LFB36:
  76:C:/Users/stapi/OneDrive/Desktop/GD32VW553/V1_MQTT_OK/GD32VW55X_Wifi_BLE_SDK/GD32VW55x_RELEASE_V1.0.2/MSDK/lwip/libcoap-4.3.4/src\coap_str.c **** 
  77:C:/Users/stapi/OneDrive/Desktop/GD32VW553/V1_MQTT_OK/GD32VW55X_Wifi_BLE_SDK/GD32VW55x_RELEASE_V1.0.2/MSDK/lwip/libcoap-4.3.4/src\coap_str.c **** coap_binary_t *
  78:C:/Users/stapi/OneDrive/Desktop/GD32VW553/V1_MQTT_OK/GD32VW55X_Wifi_BLE_SDK/GD32VW55x_RELEASE_V1.0.2/MSDK/lwip/libcoap-4.3.4/src\coap_str.c **** coap_new_binary(size_t size) {
 267              		.loc 1 78 30 is_stmt 1
 268              		.cfi_startproc
 269              	.LVL20:
  79:C:/Users/stapi/OneDrive/Desktop/GD32VW553/V1_MQTT_OK/GD32VW55X_Wifi_BLE_SDK/GD32VW55x_RELEASE_V1.0.2/MSDK/lwip/libcoap-4.3.4/src\coap_str.c ****   return (coap_binary_t *)coap_new_string(size);
 270              		.loc 1 79 3
 271              		.loc 1 79 27 is_stmt 0
 272 0000 17030000 		tail	coap_new_string
 272      67000300 
 273              	.LVL21:
 274              		.cfi_endproc
 275              	.LFE36:
 277              		.section	.text.coap_resize_binary,"ax",@progbits
 278              		.align	1
 279              		.globl	coap_resize_binary
 281              	coap_resize_binary:
 282              	.LFB37:
  80:C:/Users/stapi/OneDrive/Desktop/GD32VW553/V1_MQTT_OK/GD32VW55X_Wifi_BLE_SDK/GD32VW55x_RELEASE_V1.0.2/MSDK/lwip/libcoap-4.3.4/src\coap_str.c **** }
  81:C:/Users/stapi/OneDrive/Desktop/GD32VW553/V1_MQTT_OK/GD32VW55X_Wifi_BLE_SDK/GD32VW55x_RELEASE_V1.0.2/MSDK/lwip/libcoap-4.3.4/src\coap_str.c **** 
  82:C:/Users/stapi/OneDrive/Desktop/GD32VW553/V1_MQTT_OK/GD32VW55X_Wifi_BLE_SDK/GD32VW55x_RELEASE_V1.0.2/MSDK/lwip/libcoap-4.3.4/src\coap_str.c **** coap_binary_t *
  83:C:/Users/stapi/OneDrive/Desktop/GD32VW553/V1_MQTT_OK/GD32VW55X_Wifi_BLE_SDK/GD32VW55x_RELEASE_V1.0.2/MSDK/lwip/libcoap-4.3.4/src\coap_str.c **** coap_resize_binary(coap_binary_t *s, size_t size) {
 283              		.loc 1 83 51 is_stmt 1
 284              		.cfi_startproc
 285              	.LVL22:
 286 0000 17030000 		call	t0,__riscv_save_3
 286      E7020300 
 287              		.cfi_offset 18, -16
 288              		.cfi_offset 9, -12
 289              		.cfi_offset 8, -8
 290              		.cfi_offset 1, -4
 291              		.cfi_def_cfa_offset 16
  84:C:/Users/stapi/OneDrive/Desktop/GD32VW553/V1_MQTT_OK/GD32VW55X_Wifi_BLE_SDK/GD32VW55x_RELEASE_V1.0.2/MSDK/lwip/libcoap-4.3.4/src\coap_str.c **** #if defined(RIOT_VERSION) || defined(WITH_LWIP)
  85:C:/Users/stapi/OneDrive/Desktop/GD32VW553/V1_MQTT_OK/GD32VW55X_Wifi_BLE_SDK/GD32VW55x_RELEASE_V1.0.2/MSDK/lwip/libcoap-4.3.4/src\coap_str.c ****   /* Unlikely to work as strings will not be large enough */
  86:C:/Users/stapi/OneDrive/Desktop/GD32VW553/V1_MQTT_OK/GD32VW55X_Wifi_BLE_SDK/GD32VW55x_RELEASE_V1.0.2/MSDK/lwip/libcoap-4.3.4/src\coap_str.c ****   coap_binary_t *new = coap_new_binary(size);
 292              		.loc 1 86 3
 293              	.LVL23:
 294              	.LBB8:
 295              	.LBB9:
  79:C:/Users/stapi/OneDrive/Desktop/GD32VW553/V1_MQTT_OK/GD32VW55X_Wifi_BLE_SDK/GD32VW55x_RELEASE_V1.0.2/MSDK/lwip/libcoap-4.3.4/src\coap_str.c **** }
 296              		.loc 1 79 3
 297              	.LBE9:
 298              	.LBE8:
  83:C:/Users/stapi/OneDrive/Desktop/GD32VW553/V1_MQTT_OK/GD32VW55X_Wifi_BLE_SDK/GD32VW55x_RELEASE_V1.0.2/MSDK/lwip/libcoap-4.3.4/src\coap_str.c **** #if defined(RIOT_VERSION) || defined(WITH_LWIP)
 299              		.loc 1 83 51 is_stmt 0
 300 0008 AA84     		mv	s1,a0
 301              	.LBB12:
 302              	.LBB10:
  79:C:/Users/stapi/OneDrive/Desktop/GD32VW553/V1_MQTT_OK/GD32VW55X_Wifi_BLE_SDK/GD32VW55x_RELEASE_V1.0.2/MSDK/lwip/libcoap-4.3.4/src\coap_str.c **** }
 303              		.loc 1 79 27
 304 000a 2E85     		mv	a0,a1
 305              	.LVL24:
 306              	.LBE10:
 307              	.LBE12:
  83:C:/Users/stapi/OneDrive/Desktop/GD32VW553/V1_MQTT_OK/GD32VW55X_Wifi_BLE_SDK/GD32VW55x_RELEASE_V1.0.2/MSDK/lwip/libcoap-4.3.4/src\coap_str.c **** #if defined(RIOT_VERSION) || defined(WITH_LWIP)
 308              		.loc 1 83 51
 309 000c 2E89     		mv	s2,a1
 310              	.LBB13:
 311              	.LBB11:
  79:C:/Users/stapi/OneDrive/Desktop/GD32VW553/V1_MQTT_OK/GD32VW55X_Wifi_BLE_SDK/GD32VW55x_RELEASE_V1.0.2/MSDK/lwip/libcoap-4.3.4/src\coap_str.c **** }
 312              		.loc 1 79 27
 313 000e 97000000 		call	coap_new_string
 313      E7800000 
 314              	.LVL25:
 315 0016 2A84     		mv	s0,a0
 316              	.LVL26:
 317              	.LBE11:
 318              	.LBE13:
  87:C:/Users/stapi/OneDrive/Desktop/GD32VW553/V1_MQTT_OK/GD32VW55X_Wifi_BLE_SDK/GD32VW55x_RELEASE_V1.0.2/MSDK/lwip/libcoap-4.3.4/src\coap_str.c ****   if (new) {
 319              		.loc 1 87 3 is_stmt 1
 320              		.loc 1 87 6 is_stmt 0
 321 0018 1DC1     		beq	a0,zero,.L22
  88:C:/Users/stapi/OneDrive/Desktop/GD32VW553/V1_MQTT_OK/GD32VW55X_Wifi_BLE_SDK/GD32VW55x_RELEASE_V1.0.2/MSDK/lwip/libcoap-4.3.4/src\coap_str.c ****     if (s) {
 322              		.loc 1 88 5 is_stmt 1
 323              		.loc 1 88 8 is_stmt 0
 324 001a 89CC     		beq	s1,zero,.L24
  89:C:/Users/stapi/OneDrive/Desktop/GD32VW553/V1_MQTT_OK/GD32VW55X_Wifi_BLE_SDK/GD32VW55x_RELEASE_V1.0.2/MSDK/lwip/libcoap-4.3.4/src\coap_str.c ****       memcpy(new->s, s->s, s->length);
 325              		.loc 1 89 7 is_stmt 1
 326 001c 9040     		lw	a2,0(s1)
 327 001e CC40     		lw	a1,4(s1)
 328 0020 4841     		lw	a0,4(a0)
 329 0022 97000000 		call	memcpy
 329      E7800000 
 330              	.LVL27:
  90:C:/Users/stapi/OneDrive/Desktop/GD32VW553/V1_MQTT_OK/GD32VW55X_Wifi_BLE_SDK/GD32VW55x_RELEASE_V1.0.2/MSDK/lwip/libcoap-4.3.4/src\coap_str.c ****       coap_delete_binary(s);
 331              		.loc 1 90 7
 332 002a 2685     		mv	a0,s1
 333 002c 97000000 		call	coap_delete_string
 333      E7800000 
 334              	.LVL28:
 335              	.L24:
  91:C:/Users/stapi/OneDrive/Desktop/GD32VW553/V1_MQTT_OK/GD32VW55X_Wifi_BLE_SDK/GD32VW55x_RELEASE_V1.0.2/MSDK/lwip/libcoap-4.3.4/src\coap_str.c ****     }
  92:C:/Users/stapi/OneDrive/Desktop/GD32VW553/V1_MQTT_OK/GD32VW55X_Wifi_BLE_SDK/GD32VW55x_RELEASE_V1.0.2/MSDK/lwip/libcoap-4.3.4/src\coap_str.c ****   }
  93:C:/Users/stapi/OneDrive/Desktop/GD32VW553/V1_MQTT_OK/GD32VW55X_Wifi_BLE_SDK/GD32VW55x_RELEASE_V1.0.2/MSDK/lwip/libcoap-4.3.4/src\coap_str.c **** #else /* ! RIOT_VERSION && ! WITH_LWIP */
  94:C:/Users/stapi/OneDrive/Desktop/GD32VW553/V1_MQTT_OK/GD32VW55X_Wifi_BLE_SDK/GD32VW55x_RELEASE_V1.0.2/MSDK/lwip/libcoap-4.3.4/src\coap_str.c ****   coap_binary_t *new = coap_realloc_type(COAP_STRING,
  95:C:/Users/stapi/OneDrive/Desktop/GD32VW553/V1_MQTT_OK/GD32VW55X_Wifi_BLE_SDK/GD32VW55x_RELEASE_V1.0.2/MSDK/lwip/libcoap-4.3.4/src\coap_str.c ****                                          s,
  96:C:/Users/stapi/OneDrive/Desktop/GD32VW553/V1_MQTT_OK/GD32VW55X_Wifi_BLE_SDK/GD32VW55x_RELEASE_V1.0.2/MSDK/lwip/libcoap-4.3.4/src\coap_str.c ****                                          sizeof(coap_binary_t) + size);
  97:C:/Users/stapi/OneDrive/Desktop/GD32VW553/V1_MQTT_OK/GD32VW55X_Wifi_BLE_SDK/GD32VW55x_RELEASE_V1.0.2/MSDK/lwip/libcoap-4.3.4/src\coap_str.c **** #endif /* ! RIOT_VERSION && ! WITH_LWIP */
  98:C:/Users/stapi/OneDrive/Desktop/GD32VW553/V1_MQTT_OK/GD32VW55X_Wifi_BLE_SDK/GD32VW55x_RELEASE_V1.0.2/MSDK/lwip/libcoap-4.3.4/src\coap_str.c ****   if (new) {
 336              		.loc 1 98 3
  99:C:/Users/stapi/OneDrive/Desktop/GD32VW553/V1_MQTT_OK/GD32VW55X_Wifi_BLE_SDK/GD32VW55x_RELEASE_V1.0.2/MSDK/lwip/libcoap-4.3.4/src\coap_str.c ****     new->length = size;
 337              		.loc 1 99 5
 100:C:/Users/stapi/OneDrive/Desktop/GD32VW553/V1_MQTT_OK/GD32VW55X_Wifi_BLE_SDK/GD32VW55x_RELEASE_V1.0.2/MSDK/lwip/libcoap-4.3.4/src\coap_str.c ****     new->s = ((unsigned char *)new) + sizeof(coap_string_t);
 338              		.loc 1 100 37 is_stmt 0
 339 0034 93078400 		addi	a5,s0,8
  99:C:/Users/stapi/OneDrive/Desktop/GD32VW553/V1_MQTT_OK/GD32VW55X_Wifi_BLE_SDK/GD32VW55x_RELEASE_V1.0.2/MSDK/lwip/libcoap-4.3.4/src\coap_str.c ****     new->length = size;
 340              		.loc 1 99 17
 341 0038 23202401 		sw	s2,0(s0)
 342              		.loc 1 100 5 is_stmt 1
 343              		.loc 1 100 12 is_stmt 0
 344 003c 5CC0     		sw	a5,4(s0)
 345              	.L22:
 101:C:/Users/stapi/OneDrive/Desktop/GD32VW553/V1_MQTT_OK/GD32VW55X_Wifi_BLE_SDK/GD32VW55x_RELEASE_V1.0.2/MSDK/lwip/libcoap-4.3.4/src\coap_str.c ****   }
 102:C:/Users/stapi/OneDrive/Desktop/GD32VW553/V1_MQTT_OK/GD32VW55X_Wifi_BLE_SDK/GD32VW55x_RELEASE_V1.0.2/MSDK/lwip/libcoap-4.3.4/src\coap_str.c ****   return new;
 103:C:/Users/stapi/OneDrive/Desktop/GD32VW553/V1_MQTT_OK/GD32VW55X_Wifi_BLE_SDK/GD32VW55x_RELEASE_V1.0.2/MSDK/lwip/libcoap-4.3.4/src\coap_str.c **** }
 346              		.loc 1 103 1
 347 003e 2285     		mv	a0,s0
 348 0040 17030000 		tail	__riscv_restore_3
 348      67000300 
 349              		.cfi_restore 18
 350              		.cfi_restore 9
 351              		.cfi_restore 8
 352              		.cfi_restore 1
 353              		.cfi_def_cfa_offset 0
 354              		.cfi_endproc
 355              	.LFE37:
 357              		.section	.text.coap_delete_binary,"ax",@progbits
 358              		.align	1
 359              		.globl	coap_delete_binary
 361              	coap_delete_binary:
 362              	.LFB45:
 363              		.cfi_startproc
 364 0000 17030000 		tail	coap_delete_string
 364      67000300 
 365              		.cfi_endproc
 366              	.LFE45:
 368              		.section	.text.coap_new_bin_const,"ax",@progbits
 369              		.align	1
 370              		.globl	coap_new_bin_const
 372              	coap_new_bin_const:
 373              	.LFB49:
 374              		.cfi_startproc
 375 0000 17030000 		tail	coap_new_str_const
 375      67000300 
 376              		.cfi_endproc
 377              	.LFE49:
 379              		.section	.text.coap_delete_bin_const,"ax",@progbits
 380              		.align	1
 381              		.globl	coap_delete_bin_const
 383              	coap_delete_bin_const:
 384              	.LFB47:
 385              		.cfi_startproc
 386 0000 17030000 		tail	coap_delete_string
 386      67000300 
 387              		.cfi_endproc
 388              	.LFE47:
 390              		.section	.bss.var.0,"aw",@nobits
 391              		.align	2
 392              		.set	.LANCHOR2,. + 0
 395              	var.0:
 396 0000 00000000 		.zero	16
 396      00000000 
 396      00000000 
 396      00000000 
 397              		.section	.rodata.__func__.2,"a"
 398              		.align	2
 399              		.set	.LANCHOR0,. + 0
 402              	__func__.2:
 403 0000 636F6170 		.string	"coap_new_string"
 403      5F6E6577 
 403      5F737472 
 403      696E6700 
 404              		.section	.sbss.ofs.1,"aw",@nobits
 405              		.align	2
 406              		.set	.LANCHOR1,. + 0
 409              	ofs.1:
 410 0000 00000000 		.zero	4
 411              		.text
 412              	.Letext0:
 413              		.file 2 "c:\\users\\stapi\\onedrive\\desktop\\gd32vw553\\embeddedbuilder_v1.4.7.26843\\tools\\nucl
 414              		.file 3 "c:\\users\\stapi\\onedrive\\desktop\\gd32vw553\\embeddedbuilder_v1.4.7.26843\\tools\\nucl
 415              		.file 4 "c:\\users\\stapi\\onedrive\\desktop\\gd32vw553\\embeddedbuilder_v1.4.7.26843\\tools\\nucl
 416              		.file 5 "..\\..\\..\\..\\lwip\\libcoap-4.3.4\\include/coap3/coap_str.h"
 417              		.file 6 "..\\..\\..\\..\\lwip\\libcoap-4.3.4\\include/coap3/coap_debug.h"
 418              		.file 7 "..\\..\\..\\..\\lwip\\libcoap-4.3.4\\include/coap3/coap_mem.h"
 419              		.file 8 "c:\\users\\stapi\\onedrive\\desktop\\gd32vw553\\embeddedbuilder_v1.4.7.26843\\tools\\nucl
 420              		.file 9 "c:\\users\\stapi\\onedrive\\desktop\\gd32vw553\\embeddedbuilder_v1.4.7.26843\\tools\\nucl
 421              		.file 10 "<built-in>"
DEFINED SYMBOLS
                            *ABS*:0000000000000000 coap_str.c
C:\Users\stapi\AppData\Local\Temp\cczs8NOz.s:23     .text.coap_new_string:0000000000000000 coap_new_string
C:\Users\stapi\AppData\Local\Temp\cczs8NOz.s:27     .text.coap_new_string:0000000000000000 .L0 
C:\Users\stapi\AppData\Local\Temp\cczs8NOz.s:29     .text.coap_new_string:0000000000000000 .L0 
C:\Users\stapi\AppData\Local\Temp\cczs8NOz.s:30     .text.coap_new_string:0000000000000008 .L0 
C:\Users\stapi\AppData\Local\Temp\cczs8NOz.s:31     .text.coap_new_string:0000000000000008 .L0 
C:\Users\stapi\AppData\Local\Temp\cczs8NOz.s:32     .text.coap_new_string:0000000000000008 .L0 
C:\Users\stapi\AppData\Local\Temp\cczs8NOz.s:33     .text.coap_new_string:0000000000000008 .L0 
C:\Users\stapi\AppData\Local\Temp\cczs8NOz.s:35     .text.coap_new_string:0000000000000008 .L0 
C:\Users\stapi\AppData\Local\Temp\cczs8NOz.s:36     .text.coap_new_string:0000000000000008 .L0 
C:\Users\stapi\AppData\Local\Temp\cczs8NOz.s:55     .text.coap_new_string:0000000000000030 .L0 
C:\Users\stapi\AppData\Local\Temp\cczs8NOz.s:58     .text.coap_new_string:0000000000000036 .L0 
C:\Users\stapi\AppData\Local\Temp\cczs8NOz.s:59     .text.coap_new_string:0000000000000036 .L0 
C:\Users\stapi\AppData\Local\Temp\cczs8NOz.s:66     .text.coap_new_string:0000000000000042 .L0 
C:\Users\stapi\AppData\Local\Temp\cczs8NOz.s:67     .text.coap_new_string:0000000000000042 .L0 
C:\Users\stapi\AppData\Local\Temp\cczs8NOz.s:69     .text.coap_new_string:0000000000000044 .L0 
C:\Users\stapi\AppData\Local\Temp\cczs8NOz.s:70     .text.coap_new_string:0000000000000044 .L0 
C:\Users\stapi\AppData\Local\Temp\cczs8NOz.s:75     .text.coap_new_string:0000000000000052 .L0 
C:\Users\stapi\AppData\Local\Temp\cczs8NOz.s:82     .text.coap_new_string:0000000000000064 .L0 
C:\Users\stapi\AppData\Local\Temp\cczs8NOz.s:84     .text.coap_new_string:000000000000006e .L0 
C:\Users\stapi\AppData\Local\Temp\cczs8NOz.s:85     .text.coap_new_string:000000000000006e .L0 
C:\Users\stapi\AppData\Local\Temp\cczs8NOz.s:86     .text.coap_new_string:000000000000006e .L0 
C:\Users\stapi\AppData\Local\Temp\cczs8NOz.s:87     .text.coap_new_string:000000000000006e .L0 
C:\Users\stapi\AppData\Local\Temp\cczs8NOz.s:88     .text.coap_new_string:000000000000006e .L0 
C:\Users\stapi\AppData\Local\Temp\cczs8NOz.s:90     .text.coap_new_string:000000000000006e .L0 
C:\Users\stapi\AppData\Local\Temp\cczs8NOz.s:92     .text.coap_new_string:000000000000006e .L0 
C:\Users\stapi\AppData\Local\Temp\cczs8NOz.s:93     .text.coap_new_string:000000000000006e .L0 
C:\Users\stapi\AppData\Local\Temp\cczs8NOz.s:94     .text.coap_new_string:000000000000006e .L0 
C:\Users\stapi\AppData\Local\Temp\cczs8NOz.s:96     .text.coap_new_string:0000000000000072 .L0 
C:\Users\stapi\AppData\Local\Temp\cczs8NOz.s:98     .text.coap_new_string:0000000000000074 .L0 
C:\Users\stapi\AppData\Local\Temp\cczs8NOz.s:99     .text.coap_new_string:0000000000000074 .L0 
C:\Users\stapi\AppData\Local\Temp\cczs8NOz.s:102    .text.coap_new_string:000000000000007a .L0 
C:\Users\stapi\AppData\Local\Temp\cczs8NOz.s:103    .text.coap_new_string:000000000000007a .L0 
C:\Users\stapi\AppData\Local\Temp\cczs8NOz.s:105    .text.coap_new_string:000000000000007c .L0 
C:\Users\stapi\AppData\Local\Temp\cczs8NOz.s:106    .text.coap_new_string:000000000000007c .L0 
C:\Users\stapi\AppData\Local\Temp\cczs8NOz.s:107    .text.coap_new_string:000000000000007e .L0 
C:\Users\stapi\AppData\Local\Temp\cczs8NOz.s:114    .text.coap_delete_string:0000000000000000 coap_delete_string
C:\Users\stapi\AppData\Local\Temp\cczs8NOz.s:117    .text.coap_delete_string:0000000000000000 .L0 
C:\Users\stapi\AppData\Local\Temp\cczs8NOz.s:119    .text.coap_delete_string:0000000000000000 .L0 
C:\Users\stapi\AppData\Local\Temp\cczs8NOz.s:120    .text.coap_delete_string:0000000000000000 .L0 
C:\Users\stapi\AppData\Local\Temp\cczs8NOz.s:121    .text.coap_delete_string:0000000000000000 .L0 
C:\Users\stapi\AppData\Local\Temp\cczs8NOz.s:123    .text.coap_delete_string:0000000000000002 .L0 
C:\Users\stapi\AppData\Local\Temp\cczs8NOz.s:127    .text.coap_delete_string:000000000000000c .L0 
C:\Users\stapi\AppData\Local\Temp\cczs8NOz.s:134    .text.coap_new_str_const:0000000000000000 coap_new_str_const
C:\Users\stapi\AppData\Local\Temp\cczs8NOz.s:137    .text.coap_new_str_const:0000000000000000 .L0 
C:\Users\stapi\AppData\Local\Temp\cczs8NOz.s:139    .text.coap_new_str_const:0000000000000000 .L0 
C:\Users\stapi\AppData\Local\Temp\cczs8NOz.s:140    .text.coap_new_str_const:0000000000000008 .L0 
C:\Users\stapi\AppData\Local\Temp\cczs8NOz.s:141    .text.coap_new_str_const:0000000000000008 .L0 
C:\Users\stapi\AppData\Local\Temp\cczs8NOz.s:142    .text.coap_new_str_const:0000000000000008 .L0 
C:\Users\stapi\AppData\Local\Temp\cczs8NOz.s:143    .text.coap_new_str_const:0000000000000008 .L0 
C:\Users\stapi\AppData\Local\Temp\cczs8NOz.s:144    .text.coap_new_str_const:0000000000000008 .L0 
C:\Users\stapi\AppData\Local\Temp\cczs8NOz.s:146    .text.coap_new_str_const:0000000000000008 .L0 
C:\Users\stapi\AppData\Local\Temp\cczs8NOz.s:147    .text.coap_new_str_const:0000000000000008 .L0 
C:\Users\stapi\AppData\Local\Temp\cczs8NOz.s:149    .text.coap_new_str_const:000000000000000a .L0 
C:\Users\stapi\AppData\Local\Temp\cczs8NOz.s:152    .text.coap_new_str_const:000000000000000c .L0 
C:\Users\stapi\AppData\Local\Temp\cczs8NOz.s:154    .text.coap_new_str_const:000000000000000e .L0 
C:\Users\stapi\AppData\Local\Temp\cczs8NOz.s:159    .text.coap_new_str_const:0000000000000018 .L0 
C:\Users\stapi\AppData\Local\Temp\cczs8NOz.s:160    .text.coap_new_str_const:0000000000000018 .L0 
C:\Users\stapi\AppData\Local\Temp\cczs8NOz.s:162    .text.coap_new_str_const:000000000000001a .L0 
C:\Users\stapi\AppData\Local\Temp\cczs8NOz.s:168    .text.coap_new_str_const:0000000000000028 .L0 
C:\Users\stapi\AppData\Local\Temp\cczs8NOz.s:169    .text.coap_new_str_const:0000000000000028 .L0 
C:\Users\stapi\AppData\Local\Temp\cczs8NOz.s:172    .text.coap_new_str_const:000000000000002a .L0 
C:\Users\stapi\AppData\Local\Temp\cczs8NOz.s:173    .text.coap_new_str_const:000000000000002a .L0 
C:\Users\stapi\AppData\Local\Temp\cczs8NOz.s:175    .text.coap_new_str_const:0000000000000034 .L0 
C:\Users\stapi\AppData\Local\Temp\cczs8NOz.s:176    .text.coap_new_str_const:0000000000000034 .L0 
C:\Users\stapi\AppData\Local\Temp\cczs8NOz.s:177    .text.coap_new_str_const:0000000000000034 .L0 
C:\Users\stapi\AppData\Local\Temp\cczs8NOz.s:178    .text.coap_new_str_const:0000000000000034 .L0 
C:\Users\stapi\AppData\Local\Temp\cczs8NOz.s:179    .text.coap_new_str_const:0000000000000034 .L0 
C:\Users\stapi\AppData\Local\Temp\cczs8NOz.s:180    .text.coap_new_str_const:0000000000000034 .L0 
C:\Users\stapi\AppData\Local\Temp\cczs8NOz.s:187    .text.coap_delete_str_const:0000000000000000 coap_delete_str_const
C:\Users\stapi\AppData\Local\Temp\cczs8NOz.s:189    .text.coap_delete_str_const:0000000000000000 .L0 
C:\Users\stapi\AppData\Local\Temp\cczs8NOz.s:191    .text.coap_delete_str_const:0000000000000008 .L0 
C:\Users\stapi\AppData\Local\Temp\cczs8NOz.s:198    .text.coap_make_str_const:0000000000000000 coap_make_str_const
C:\Users\stapi\AppData\Local\Temp\cczs8NOz.s:201    .text.coap_make_str_const:0000000000000000 .L0 
C:\Users\stapi\AppData\Local\Temp\cczs8NOz.s:203    .text.coap_make_str_const:0000000000000000 .L0 
C:\Users\stapi\AppData\Local\Temp\cczs8NOz.s:204    .text.coap_make_str_const:0000000000000000 .L0 
C:\Users\stapi\AppData\Local\Temp\cczs8NOz.s:205    .text.coap_make_str_const:0000000000000008 .L0 
C:\Users\stapi\AppData\Local\Temp\cczs8NOz.s:206    .text.coap_make_str_const:0000000000000008 .L0 
C:\Users\stapi\AppData\Local\Temp\cczs8NOz.s:207    .text.coap_make_str_const:0000000000000008 .L0 
C:\Users\stapi\AppData\Local\Temp\cczs8NOz.s:208    .text.coap_make_str_const:0000000000000008 .L0 
C:\Users\stapi\AppData\Local\Temp\cczs8NOz.s:210    .text.coap_make_str_const:0000000000000008 .L0 
C:\Users\stapi\AppData\Local\Temp\cczs8NOz.s:211    .text.coap_make_str_const:0000000000000008 .L0 
C:\Users\stapi\AppData\Local\Temp\cczs8NOz.s:212    .text.coap_make_str_const:0000000000000008 .L0 
C:\Users\stapi\AppData\Local\Temp\cczs8NOz.s:213    .text.coap_make_str_const:0000000000000008 .L0 
C:\Users\stapi\AppData\Local\Temp\cczs8NOz.s:216    .text.coap_make_str_const:0000000000000010 .L0 
C:\Users\stapi\AppData\Local\Temp\cczs8NOz.s:218    .text.coap_make_str_const:0000000000000012 .L0 
C:\Users\stapi\AppData\Local\Temp\cczs8NOz.s:220    .text.coap_make_str_const:0000000000000014 .L0 
C:\Users\stapi\AppData\Local\Temp\cczs8NOz.s:223    .text.coap_make_str_const:000000000000001a .L0 
C:\Users\stapi\AppData\Local\Temp\cczs8NOz.s:227    .text.coap_make_str_const:0000000000000020 .L0 
C:\Users\stapi\AppData\Local\Temp\cczs8NOz.s:228    .text.coap_make_str_const:0000000000000020 .L0 
C:\Users\stapi\AppData\Local\Temp\cczs8NOz.s:231    .text.coap_make_str_const:0000000000000022 .L0 
C:\Users\stapi\AppData\Local\Temp\cczs8NOz.s:233    .text.coap_make_str_const:0000000000000024 .L0 
C:\Users\stapi\AppData\Local\Temp\cczs8NOz.s:236    .text.coap_make_str_const:000000000000002c .L0 
C:\Users\stapi\AppData\Local\Temp\cczs8NOz.s:241    .text.coap_make_str_const:000000000000003a .L0 
C:\Users\stapi\AppData\Local\Temp\cczs8NOz.s:242    .text.coap_make_str_const:000000000000003a .L0 
C:\Users\stapi\AppData\Local\Temp\cczs8NOz.s:244    .text.coap_make_str_const:000000000000003c .L0 
C:\Users\stapi\AppData\Local\Temp\cczs8NOz.s:245    .text.coap_make_str_const:000000000000003c .L0 
C:\Users\stapi\AppData\Local\Temp\cczs8NOz.s:247    .text.coap_make_str_const:0000000000000046 .L0 
C:\Users\stapi\AppData\Local\Temp\cczs8NOz.s:248    .text.coap_make_str_const:0000000000000046 .L0 
C:\Users\stapi\AppData\Local\Temp\cczs8NOz.s:249    .text.coap_make_str_const:0000000000000046 .L0 
C:\Users\stapi\AppData\Local\Temp\cczs8NOz.s:250    .text.coap_make_str_const:0000000000000046 .L0 
C:\Users\stapi\AppData\Local\Temp\cczs8NOz.s:251    .text.coap_make_str_const:0000000000000046 .L0 
C:\Users\stapi\AppData\Local\Temp\cczs8NOz.s:253    .text.coap_make_str_const:0000000000000046 .L0 
C:\Users\stapi\AppData\Local\Temp\cczs8NOz.s:255    .text.coap_make_str_const:0000000000000046 .L0 
C:\Users\stapi\AppData\Local\Temp\cczs8NOz.s:256    .text.coap_make_str_const:0000000000000046 .L0 
C:\Users\stapi\AppData\Local\Temp\cczs8NOz.s:258    .text.coap_make_str_const:000000000000004c .L0 
C:\Users\stapi\AppData\Local\Temp\cczs8NOz.s:265    .text.coap_new_binary:0000000000000000 coap_new_binary
C:\Users\stapi\AppData\Local\Temp\cczs8NOz.s:268    .text.coap_new_binary:0000000000000000 .L0 
C:\Users\stapi\AppData\Local\Temp\cczs8NOz.s:270    .text.coap_new_binary:0000000000000000 .L0 
C:\Users\stapi\AppData\Local\Temp\cczs8NOz.s:271    .text.coap_new_binary:0000000000000000 .L0 
C:\Users\stapi\AppData\Local\Temp\cczs8NOz.s:272    .text.coap_new_binary:0000000000000000 .L0 
C:\Users\stapi\AppData\Local\Temp\cczs8NOz.s:274    .text.coap_new_binary:0000000000000008 .L0 
C:\Users\stapi\AppData\Local\Temp\cczs8NOz.s:281    .text.coap_resize_binary:0000000000000000 coap_resize_binary
C:\Users\stapi\AppData\Local\Temp\cczs8NOz.s:284    .text.coap_resize_binary:0000000000000000 .L0 
C:\Users\stapi\AppData\Local\Temp\cczs8NOz.s:286    .text.coap_resize_binary:0000000000000000 .L0 
C:\Users\stapi\AppData\Local\Temp\cczs8NOz.s:287    .text.coap_resize_binary:0000000000000008 .L0 
C:\Users\stapi\AppData\Local\Temp\cczs8NOz.s:288    .text.coap_resize_binary:0000000000000008 .L0 
C:\Users\stapi\AppData\Local\Temp\cczs8NOz.s:289    .text.coap_resize_binary:0000000000000008 .L0 
C:\Users\stapi\AppData\Local\Temp\cczs8NOz.s:290    .text.coap_resize_binary:0000000000000008 .L0 
C:\Users\stapi\AppData\Local\Temp\cczs8NOz.s:291    .text.coap_resize_binary:0000000000000008 .L0 
C:\Users\stapi\AppData\Local\Temp\cczs8NOz.s:296    .text.coap_resize_binary:0000000000000008 .L0 
C:\Users\stapi\AppData\Local\Temp\cczs8NOz.s:299    .text.coap_resize_binary:0000000000000008 .L0 
C:\Users\stapi\AppData\Local\Temp\cczs8NOz.s:300    .text.coap_resize_binary:0000000000000008 .L0 
C:\Users\stapi\AppData\Local\Temp\cczs8NOz.s:304    .text.coap_resize_binary:000000000000000a .L0 
C:\Users\stapi\AppData\Local\Temp\cczs8NOz.s:309    .text.coap_resize_binary:000000000000000c .L0 
C:\Users\stapi\AppData\Local\Temp\cczs8NOz.s:313    .text.coap_resize_binary:000000000000000e .L0 
C:\Users\stapi\AppData\Local\Temp\cczs8NOz.s:320    .text.coap_resize_binary:0000000000000018 .L0 
C:\Users\stapi\AppData\Local\Temp\cczs8NOz.s:321    .text.coap_resize_binary:0000000000000018 .L0 
C:\Users\stapi\AppData\Local\Temp\cczs8NOz.s:323    .text.coap_resize_binary:000000000000001a .L0 
C:\Users\stapi\AppData\Local\Temp\cczs8NOz.s:324    .text.coap_resize_binary:000000000000001a .L0 
C:\Users\stapi\AppData\Local\Temp\cczs8NOz.s:326    .text.coap_resize_binary:000000000000001c .L0 
C:\Users\stapi\AppData\Local\Temp\cczs8NOz.s:332    .text.coap_resize_binary:000000000000002a .L0 
C:\Users\stapi\AppData\Local\Temp\cczs8NOz.s:337    .text.coap_resize_binary:0000000000000034 .L0 
C:\Users\stapi\AppData\Local\Temp\cczs8NOz.s:338    .text.coap_resize_binary:0000000000000034 .L0 
C:\Users\stapi\AppData\Local\Temp\cczs8NOz.s:339    .text.coap_resize_binary:0000000000000034 .L0 
C:\Users\stapi\AppData\Local\Temp\cczs8NOz.s:341    .text.coap_resize_binary:0000000000000038 .L0 
C:\Users\stapi\AppData\Local\Temp\cczs8NOz.s:343    .text.coap_resize_binary:000000000000003c .L0 
C:\Users\stapi\AppData\Local\Temp\cczs8NOz.s:344    .text.coap_resize_binary:000000000000003c .L0 
C:\Users\stapi\AppData\Local\Temp\cczs8NOz.s:347    .text.coap_resize_binary:000000000000003e .L0 
C:\Users\stapi\AppData\Local\Temp\cczs8NOz.s:349    .text.coap_resize_binary:0000000000000048 .L0 
C:\Users\stapi\AppData\Local\Temp\cczs8NOz.s:350    .text.coap_resize_binary:0000000000000048 .L0 
C:\Users\stapi\AppData\Local\Temp\cczs8NOz.s:351    .text.coap_resize_binary:0000000000000048 .L0 
C:\Users\stapi\AppData\Local\Temp\cczs8NOz.s:352    .text.coap_resize_binary:0000000000000048 .L0 
C:\Users\stapi\AppData\Local\Temp\cczs8NOz.s:353    .text.coap_resize_binary:0000000000000048 .L0 
C:\Users\stapi\AppData\Local\Temp\cczs8NOz.s:354    .text.coap_resize_binary:0000000000000048 .L0 
C:\Users\stapi\AppData\Local\Temp\cczs8NOz.s:361    .text.coap_delete_binary:0000000000000000 coap_delete_binary
C:\Users\stapi\AppData\Local\Temp\cczs8NOz.s:363    .text.coap_delete_binary:0000000000000000 .L0 
C:\Users\stapi\AppData\Local\Temp\cczs8NOz.s:365    .text.coap_delete_binary:0000000000000008 .L0 
C:\Users\stapi\AppData\Local\Temp\cczs8NOz.s:372    .text.coap_new_bin_const:0000000000000000 coap_new_bin_const
C:\Users\stapi\AppData\Local\Temp\cczs8NOz.s:374    .text.coap_new_bin_const:0000000000000000 .L0 
C:\Users\stapi\AppData\Local\Temp\cczs8NOz.s:376    .text.coap_new_bin_const:0000000000000008 .L0 
C:\Users\stapi\AppData\Local\Temp\cczs8NOz.s:383    .text.coap_delete_bin_const:0000000000000000 coap_delete_bin_const
C:\Users\stapi\AppData\Local\Temp\cczs8NOz.s:385    .text.coap_delete_bin_const:0000000000000000 .L0 
C:\Users\stapi\AppData\Local\Temp\cczs8NOz.s:387    .text.coap_delete_bin_const:0000000000000008 .L0 
C:\Users\stapi\AppData\Local\Temp\cczs8NOz.s:392    .bss.var.0:0000000000000000 .LANCHOR2
C:\Users\stapi\AppData\Local\Temp\cczs8NOz.s:395    .bss.var.0:0000000000000000 var.0
C:\Users\stapi\AppData\Local\Temp\cczs8NOz.s:399    .rodata.__func__.2:0000000000000000 .LANCHOR0
C:\Users\stapi\AppData\Local\Temp\cczs8NOz.s:402    .rodata.__func__.2:0000000000000000 __func__.2
C:\Users\stapi\AppData\Local\Temp\cczs8NOz.s:406    .sbss.ofs.1:0000000000000000 .LANCHOR1
C:\Users\stapi\AppData\Local\Temp\cczs8NOz.s:409    .sbss.ofs.1:0000000000000000 ofs.1
C:\Users\stapi\AppData\Local\Temp\cczs8NOz.s:110    .text.coap_new_string:000000000000007e .L0 
C:\Users\stapi\AppData\Local\Temp\cczs8NOz.s:130    .text.coap_delete_string:000000000000000c .L0 
C:\Users\stapi\AppData\Local\Temp\cczs8NOz.s:183    .text.coap_new_str_const:0000000000000034 .L0 
C:\Users\stapi\AppData\Local\Temp\cczs8NOz.s:261    .text.coap_make_str_const:000000000000004c .L0 
C:\Users\stapi\AppData\Local\Temp\cczs8NOz.s:277    .text.coap_new_binary:0000000000000008 .L0 
C:\Users\stapi\AppData\Local\Temp\cczs8NOz.s:357    .text.coap_resize_binary:0000000000000048 .L0 
                     .debug_frame:0000000000000000 .L0 
C:\Users\stapi\AppData\Local\Temp\cczs8NOz.s:11     .rodata.coap_new_string.str1.4:0000000000000000 .LC0
C:\Users\stapi\AppData\Local\Temp\cczs8NOz.s:14     .rodata.coap_new_string.str1.4:000000000000000c .LC1
C:\Users\stapi\AppData\Local\Temp\cczs8NOz.s:17     .rodata.coap_new_string.str1.4:0000000000000098 .LC2
C:\Users\stapi\AppData\Local\Temp\cczs8NOz.s:51     .text.coap_new_string:0000000000000030 .L2
C:\Users\stapi\AppData\Local\Temp\cczs8NOz.s:89     .text.coap_new_string:000000000000006e .L3
C:\Users\stapi\AppData\Local\Temp\cczs8NOz.s:80     .text.coap_new_string:0000000000000064 .L1
C:\Users\stapi\AppData\Local\Temp\cczs8NOz.s:171    .text.coap_new_str_const:000000000000002a .L8
C:\Users\stapi\AppData\Local\Temp\cczs8NOz.s:252    .text.coap_make_str_const:0000000000000046 .L17
C:\Users\stapi\AppData\Local\Temp\cczs8NOz.s:225    .text.coap_make_str_const:0000000000000020 .L18
C:\Users\stapi\AppData\Local\Temp\cczs8NOz.s:345    .text.coap_resize_binary:000000000000003e .L22
C:\Users\stapi\AppData\Local\Temp\cczs8NOz.s:335    .text.coap_resize_binary:0000000000000034 .L24
C:\Users\stapi\AppData\Local\Temp\cczs8NOz.s:1259   .debug_abbrev:0000000000000000 .Ldebug_abbrev0
C:\Users\stapi\AppData\Local\Temp\cczs8NOz.s:2057   .debug_str:0000000000000182 .LASF74
C:\Users\stapi\AppData\Local\Temp\cczs8NOz.s:2115   .debug_str:00000000000003f7 .LASF75
C:\Users\stapi\AppData\Local\Temp\cczs8NOz.s:2135   .debug_str:0000000000000516 .LASF76
C:\Users\stapi\AppData\Local\Temp\cczs8NOz.s:1977   .debug_ranges:0000000000000000 .Ldebug_ranges0
C:\Users\stapi\AppData\Local\Temp\cczs8NOz.s:2001   .debug_line:0000000000000000 .Ldebug_line0
C:\Users\stapi\AppData\Local\Temp\cczs8NOz.s:2091   .debug_str:0000000000000353 .LASF0
C:\Users\stapi\AppData\Local\Temp\cczs8NOz.s:2071   .debug_str:00000000000002c5 .LASF9
C:\Users\stapi\AppData\Local\Temp\cczs8NOz.s:2081   .debug_str:000000000000031c .LASF1
C:\Users\stapi\AppData\Local\Temp\cczs8NOz.s:2021   .debug_str:0000000000000089 .LASF2
C:\Users\stapi\AppData\Local\Temp\cczs8NOz.s:2105   .debug_str:00000000000003b7 .LASF3
C:\Users\stapi\AppData\Local\Temp\cczs8NOz.s:2063   .debug_str:0000000000000299 .LASF4
C:\Users\stapi\AppData\Local\Temp\cczs8NOz.s:2127   .debug_str:00000000000004d5 .LASF5
C:\Users\stapi\AppData\Local\Temp\cczs8NOz.s:2059   .debug_str:000000000000027b .LASF6
C:\Users\stapi\AppData\Local\Temp\cczs8NOz.s:2031   .debug_str:00000000000000c8 .LASF7
C:\Users\stapi\AppData\Local\Temp\cczs8NOz.s:2097   .debug_str:0000000000000376 .LASF8
C:\Users\stapi\AppData\Local\Temp\cczs8NOz.s:2045   .debug_str:000000000000012f .LASF10
C:\Users\stapi\AppData\Local\Temp\cczs8NOz.s:2023   .debug_str:0000000000000093 .LASF11
C:\Users\stapi\AppData\Local\Temp\cczs8NOz.s:2109   .debug_str:00000000000003dc .LASF12
C:\Users\stapi\AppData\Local\Temp\cczs8NOz.s:2133   .debug_str:0000000000000508 .LASF14
C:\Users\stapi\AppData\Local\Temp\cczs8NOz.s:2053   .debug_str:0000000000000165 .LASF13
C:\Users\stapi\AppData\Local\Temp\cczs8NOz.s:2049   .debug_str:0000000000000147 .LASF15
C:\Users\stapi\AppData\Local\Temp\cczs8NOz.s:2035   .debug_str:00000000000000ee .LASF16
C:\Users\stapi\AppData\Local\Temp\cczs8NOz.s:2143   .debug_str:00000000000005c2 .LASF17
C:\Users\stapi\AppData\Local\Temp\cczs8NOz.s:2113   .debug_str:00000000000003e8 .LASF18
C:\Users\stapi\AppData\Local\Temp\cczs8NOz.s:2013   .debug_str:000000000000004c .LASF19
C:\Users\stapi\AppData\Local\Temp\cczs8NOz.s:2083   .debug_str:000000000000032a .LASF20
C:\Users\stapi\AppData\Local\Temp\cczs8NOz.s:2009   .debug_str:000000000000002f .LASF21
C:\Users\stapi\AppData\Local\Temp\cczs8NOz.s:2093   .debug_str:000000000000035f .LASF22
C:\Users\stapi\AppData\Local\Temp\cczs8NOz.s:2061   .debug_str:0000000000000289 .LASF23
C:\Users\stapi\AppData\Local\Temp\cczs8NOz.s:2007   .debug_str:0000000000000021 .LASF24
C:\Users\stapi\AppData\Local\Temp\cczs8NOz.s:2069   .debug_str:00000000000002b6 .LASF25
C:\Users\stapi\AppData\Local\Temp\cczs8NOz.s:2011   .debug_str:000000000000003c .LASF26
C:\Users\stapi\AppData\Local\Temp\cczs8NOz.s:2155   .debug_str:000000000000061d .LASF27
C:\Users\stapi\AppData\Local\Temp\cczs8NOz.s:2017   .debug_str:000000000000006e .LASF28
C:\Users\stapi\AppData\Local\Temp\cczs8NOz.s:2131   .debug_str:00000000000004f4 .LASF29
C:\Users\stapi\AppData\Local\Temp\cczs8NOz.s:2123   .debug_str:00000000000004b2 .LASF30
C:\Users\stapi\AppData\Local\Temp\cczs8NOz.s:2159   .debug_str:000000000000063e .LASF31
C:\Users\stapi\AppData\Local\Temp\cczs8NOz.s:2119   .debug_str:0000000000000496 .LASF32
C:\Users\stapi\AppData\Local\Temp\cczs8NOz.s:2065   .debug_str:00000000000002a2 .LASF33
C:\Users\stapi\AppData\Local\Temp\cczs8NOz.s:2139   .debug_str:00000000000005a4 .LASF34
C:\Users\stapi\AppData\Local\Temp\cczs8NOz.s:2095   .debug_str:000000000000036d .LASF35
C:\Users\stapi\AppData\Local\Temp\cczs8NOz.s:2051   .debug_str:0000000000000158 .LASF36
C:\Users\stapi\AppData\Local\Temp\cczs8NOz.s:2157   .debug_str:0000000000000630 .LASF37
C:\Users\stapi\AppData\Local\Temp\cczs8NOz.s:2101   .debug_str:0000000000000392 .LASF38
C:\Users\stapi\AppData\Local\Temp\cczs8NOz.s:2079   .debug_str:000000000000030a .LASF39
C:\Users\stapi\AppData\Local\Temp\cczs8NOz.s:2043   .debug_str:0000000000000122 .LASF40
C:\Users\stapi\AppData\Local\Temp\cczs8NOz.s:2025   .debug_str:000000000000009a .LASF41
C:\Users\stapi\AppData\Local\Temp\cczs8NOz.s:2019   .debug_str:000000000000007a .LASF42
C:\Users\stapi\AppData\Local\Temp\cczs8NOz.s:2075   .debug_str:00000000000002e5 .LASF43
C:\Users\stapi\AppData\Local\Temp\cczs8NOz.s:2087   .debug_str:0000000000000341 .LASF44
C:\Users\stapi\AppData\Local\Temp\cczs8NOz.s:2129   .debug_str:00000000000004e7 .LASF45
C:\Users\stapi\AppData\Local\Temp\cczs8NOz.s:2151   .debug_str:00000000000005fd .LASF46
C:\Users\stapi\AppData\Local\Temp\cczs8NOz.s:2003   .debug_str:0000000000000000 .LASF47
C:\Users\stapi\AppData\Local\Temp\cczs8NOz.s:2121   .debug_str:00000000000004a0 .LASF48
C:\Users\stapi\AppData\Local\Temp\cczs8NOz.s:2107   .debug_str:00000000000003ca .LASF49
C:\Users\stapi\AppData\Local\Temp\cczs8NOz.s:2047   .debug_str:0000000000000137 .LASF50
C:\Users\stapi\AppData\Local\Temp\cczs8NOz.s:2149   .debug_str:00000000000005ed .LASF51
C:\Users\stapi\AppData\Local\Temp\cczs8NOz.s:2141   .debug_str:00000000000005b2 .LASF52
C:\Users\stapi\AppData\Local\Temp\cczs8NOz.s:2039   .debug_str:0000000000000103 .LASF53
C:\Users\stapi\AppData\Local\Temp\cczs8NOz.s:2033   .debug_str:00000000000000df .LASF54
C:\Users\stapi\AppData\Local\Temp\cczs8NOz.s:2147   .debug_str:00000000000005dd .LASF55
C:\Users\stapi\AppData\Local\Temp\cczs8NOz.s:2145   .debug_str:00000000000005d3 .LASF56
C:\Users\stapi\AppData\Local\Temp\cczs8NOz.s:2073   .debug_str:00000000000002cf .LASF59
C:\Users\stapi\AppData\Local\Temp\cczs8NOz.s:2117   .debug_str:0000000000000483 .LASF77
C:\Users\stapi\AppData\Local\Temp\cczs8NOz.s:2089   .debug_str:000000000000034e .LASF57
C:\Users\stapi\AppData\Local\Temp\cczs8NOz.s:2137   .debug_str:000000000000059f .LASF58
C:\Users\stapi\AppData\Local\Temp\cczs8NOz.s:2015   .debug_str:000000000000005b .LASF60
C:\Users\stapi\AppData\Local\Temp\cczs8NOz.s:2103   .debug_str:00000000000003a4 .LASF61
C:\Users\stapi\AppData\Local\Temp\cczs8NOz.s:282    .text.coap_resize_binary:0000000000000000 .LFB37
C:\Users\stapi\AppData\Local\Temp\cczs8NOz.s:355    .text.coap_resize_binary:0000000000000048 .LFE37
C:\Users\stapi\AppData\Local\Temp\cczs8NOz.s:1825   .debug_loc:0000000000000000 .LLST7
C:\Users\stapi\AppData\Local\Temp\cczs8NOz.s:1836   .debug_loc:000000000000001e .LLST8
C:\Users\stapi\AppData\Local\Temp\cczs8NOz.s:294    .text.coap_resize_binary:0000000000000008 .LBB8
C:\Users\stapi\AppData\Local\Temp\cczs8NOz.s:1847   .debug_loc:000000000000003c .LLST9
C:\Users\stapi\AppData\Local\Temp\cczs8NOz.s:314    .text.coap_resize_binary:0000000000000016 .LVL25
C:\Users\stapi\AppData\Local\Temp\cczs8NOz.s:330    .text.coap_resize_binary:000000000000002a .LVL27
C:\Users\stapi\AppData\Local\Temp\cczs8NOz.s:334    .text.coap_resize_binary:0000000000000034 .LVL28
C:\Users\stapi\AppData\Local\Temp\cczs8NOz.s:2165   .debug_str:000000000000066e .LASF66
C:\Users\stapi\AppData\Local\Temp\cczs8NOz.s:2077   .debug_str:00000000000002f6 .LASF62
C:\Users\stapi\AppData\Local\Temp\cczs8NOz.s:199    .text.coap_make_str_const:0000000000000000 .LFB35
C:\Users\stapi\AppData\Local\Temp\cczs8NOz.s:259    .text.coap_make_str_const:000000000000004c .LFE35
C:\Users\stapi\AppData\Local\Temp\cczs8NOz.s:2067   .debug_str:00000000000002af .LASF63
C:\Users\stapi\AppData\Local\Temp\cczs8NOz.s:1858   .debug_loc:000000000000005a .LLST5
C:\Users\stapi\AppData\Local\Temp\cczs8NOz.s:234    .text.coap_make_str_const:000000000000002c .LVL19
C:\Users\stapi\AppData\Local\Temp\cczs8NOz.s:2055   .debug_str:000000000000016c .LASF64
C:\Users\stapi\AppData\Local\Temp\cczs8NOz.s:2163   .debug_str:000000000000065b .LASF65
C:\Users\stapi\AppData\Local\Temp\cczs8NOz.s:135    .text.coap_new_str_const:0000000000000000 .LFB33
C:\Users\stapi\AppData\Local\Temp\cczs8NOz.s:181    .text.coap_new_str_const:0000000000000034 .LFE33
C:\Users\stapi\AppData\Local\Temp\cczs8NOz.s:1869   .debug_loc:0000000000000078 .LLST3
C:\Users\stapi\AppData\Local\Temp\cczs8NOz.s:1880   .debug_loc:0000000000000096 .LLST4
C:\Users\stapi\AppData\Local\Temp\cczs8NOz.s:155    .text.coap_new_str_const:0000000000000016 .LVL14
C:\Users\stapi\AppData\Local\Temp\cczs8NOz.s:166    .text.coap_new_str_const:0000000000000028 .LVL16
C:\Users\stapi\AppData\Local\Temp\cczs8NOz.s:2153   .debug_str:000000000000060a .LASF78
C:\Users\stapi\AppData\Local\Temp\cczs8NOz.s:115    .text.coap_delete_string:0000000000000000 .LFB32
C:\Users\stapi\AppData\Local\Temp\cczs8NOz.s:128    .text.coap_delete_string:000000000000000c .LFE32
C:\Users\stapi\AppData\Local\Temp\cczs8NOz.s:1891   .debug_loc:00000000000000b4 .LLST2
C:\Users\stapi\AppData\Local\Temp\cczs8NOz.s:126    .text.coap_delete_string:000000000000000c .LVL11
C:\Users\stapi\AppData\Local\Temp\cczs8NOz.s:2041   .debug_str:0000000000000112 .LASF67
C:\Users\stapi\AppData\Local\Temp\cczs8NOz.s:2085   .debug_str:0000000000000338 .LASF79
C:\Users\stapi\AppData\Local\Temp\cczs8NOz.s:24     .text.coap_new_string:0000000000000000 .LFB31
C:\Users\stapi\AppData\Local\Temp\cczs8NOz.s:108    .text.coap_new_string:000000000000007e .LFE31
C:\Users\stapi\AppData\Local\Temp\cczs8NOz.s:1909   .debug_loc:00000000000000e0 .LLST0
C:\Users\stapi\AppData\Local\Temp\cczs8NOz.s:39     .text.coap_new_string:000000000000000e .LBB6
C:\Users\stapi\AppData\Local\Temp\cczs8NOz.s:53     .text.coap_new_string:0000000000000030 .LBE6
C:\Users\stapi\AppData\Local\Temp\cczs8NOz.s:1931   .debug_loc:0000000000000117 .LLST1
C:\Users\stapi\AppData\Local\Temp\cczs8NOz.s:50     .text.coap_new_string:0000000000000030 .LVL3
C:\Users\stapi\AppData\Local\Temp\cczs8NOz.s:62     .text.coap_new_string:0000000000000040 .LVL5
C:\Users\stapi\AppData\Local\Temp\cczs8NOz.s:71     .text.coap_new_string:000000000000004c .LVL7
C:\Users\stapi\AppData\Local\Temp\cczs8NOz.s:79     .text.coap_new_string:0000000000000064 .LVL8
C:\Users\stapi\AppData\Local\Temp\cczs8NOz.s:266    .text.coap_new_binary:0000000000000000 .LFB36
C:\Users\stapi\AppData\Local\Temp\cczs8NOz.s:275    .text.coap_new_binary:0000000000000008 .LFE36
C:\Users\stapi\AppData\Local\Temp\cczs8NOz.s:1940   .debug_loc:000000000000012c .LLST6
C:\Users\stapi\AppData\Local\Temp\cczs8NOz.s:273    .text.coap_new_binary:0000000000000008 .LVL21
C:\Users\stapi\AppData\Local\Temp\cczs8NOz.s:2037   .debug_str:00000000000000fc .LASF80
C:\Users\stapi\AppData\Local\Temp\cczs8NOz.s:2005   .debug_str:0000000000000010 .LASF81
C:\Users\stapi\AppData\Local\Temp\cczs8NOz.s:2111   .debug_str:00000000000003e1 .LASF68
C:\Users\stapi\AppData\Local\Temp\cczs8NOz.s:2099   .debug_str:0000000000000383 .LASF69
C:\Users\stapi\AppData\Local\Temp\cczs8NOz.s:2029   .debug_str:00000000000000ba .LASF70
C:\Users\stapi\AppData\Local\Temp\cczs8NOz.s:2161   .debug_str:000000000000064a .LASF71
C:\Users\stapi\AppData\Local\Temp\cczs8NOz.s:2027   .debug_str:00000000000000a7 .LASF72
C:\Users\stapi\AppData\Local\Temp\cczs8NOz.s:2125   .debug_str:00000000000004c7 .LASF73
C:\Users\stapi\AppData\Local\Temp\cczs8NOz.s:285    .text.coap_resize_binary:0000000000000000 .LVL22
C:\Users\stapi\AppData\Local\Temp\cczs8NOz.s:305    .text.coap_resize_binary:000000000000000c .LVL24
C:\Users\stapi\AppData\Local\Temp\cczs8NOz.s:293    .text.coap_resize_binary:0000000000000008 .LVL23
C:\Users\stapi\AppData\Local\Temp\cczs8NOz.s:316    .text.coap_resize_binary:0000000000000018 .LVL26
C:\Users\stapi\AppData\Local\Temp\cczs8NOz.s:202    .text.coap_make_str_const:0000000000000000 .LVL17
C:\Users\stapi\AppData\Local\Temp\cczs8NOz.s:229    .text.coap_make_str_const:0000000000000022 .LVL18
C:\Users\stapi\AppData\Local\Temp\cczs8NOz.s:138    .text.coap_new_str_const:0000000000000000 .LVL12
C:\Users\stapi\AppData\Local\Temp\cczs8NOz.s:150    .text.coap_new_str_const:000000000000000c .LVL13
C:\Users\stapi\AppData\Local\Temp\cczs8NOz.s:118    .text.coap_delete_string:0000000000000000 .LVL9
C:\Users\stapi\AppData\Local\Temp\cczs8NOz.s:124    .text.coap_delete_string:0000000000000004 .LVL10
C:\Users\stapi\AppData\Local\Temp\cczs8NOz.s:28     .text.coap_new_string:0000000000000000 .LVL0
C:\Users\stapi\AppData\Local\Temp\cczs8NOz.s:44     .text.coap_new_string:000000000000001a .LVL2
C:\Users\stapi\AppData\Local\Temp\cczs8NOz.s:60     .text.coap_new_string:0000000000000038 .LVL4
C:\Users\stapi\AppData\Local\Temp\cczs8NOz.s:38     .text.coap_new_string:000000000000000e .LVL1
C:\Users\stapi\AppData\Local\Temp\cczs8NOz.s:269    .text.coap_new_binary:0000000000000000 .LVL20
C:\Users\stapi\AppData\Local\Temp\cczs8NOz.s:423    .debug_info:0000000000000000 .Ldebug_info0
C:\Users\stapi\AppData\Local\Temp\cczs8NOz.s:298    .text.coap_resize_binary:0000000000000008 .LBE8
C:\Users\stapi\AppData\Local\Temp\cczs8NOz.s:301    .text.coap_resize_binary:000000000000000a .LBB12
C:\Users\stapi\AppData\Local\Temp\cczs8NOz.s:307    .text.coap_resize_binary:000000000000000c .LBE12
C:\Users\stapi\AppData\Local\Temp\cczs8NOz.s:310    .text.coap_resize_binary:000000000000000e .LBB13
C:\Users\stapi\AppData\Local\Temp\cczs8NOz.s:318    .text.coap_resize_binary:0000000000000018 .LBE13

UNDEFINED SYMBOLS
__riscv_save_2
__assert_func
coap_malloc_type
coap_get_log_level
coap_log_impl
__riscv_restore_2
coap_free_type
__riscv_save_3
memcpy
__riscv_restore_3
strlen
