   1              		.file	"coap_option.c"
   2              		.option nopic
   3              		.attribute arch, "rv32i2p0_m2p0_a2p0_f2p0_c2p0_b_p0p94"
   4              		.attribute unaligned_access, 0
   5              		.attribute stack_align, 16
   6              		.text
   7              	.Ltext0:
   8              		.cfi_sections	.debug_frame
   9              		.section	.text.coap_option_filter_op,"ax",@progbits
  10              		.align	1
  12              	coap_option_filter_op:
  13              	.LFB43:
  14              		.file 1 "C:/Users/stapi/OneDrive/Desktop/GD32VW553/V1_MQTT_OK/GD32VW55X_Wifi_BLE_SDK/GD32VW55x_REL
   1:C:/Users/stapi/OneDrive/Desktop/GD32VW553/V1_MQTT_OK/GD32VW55X_Wifi_BLE_SDK/GD32VW55x_RELEASE_V1.0.2/MSDK/lwip/libcoap-4.3.4/src\coap_option.c **** /*
   2:C:/Users/stapi/OneDrive/Desktop/GD32VW553/V1_MQTT_OK/GD32VW55X_Wifi_BLE_SDK/GD32VW55x_RELEASE_V1.0.2/MSDK/lwip/libcoap-4.3.4/src\coap_option.c ****  * coap_option.c -- helpers for handling options in CoAP PDUs
   3:C:/Users/stapi/OneDrive/Desktop/GD32VW553/V1_MQTT_OK/GD32VW55X_Wifi_BLE_SDK/GD32VW55x_RELEASE_V1.0.2/MSDK/lwip/libcoap-4.3.4/src\coap_option.c ****  *
   4:C:/Users/stapi/OneDrive/Desktop/GD32VW553/V1_MQTT_OK/GD32VW55X_Wifi_BLE_SDK/GD32VW55x_RELEASE_V1.0.2/MSDK/lwip/libcoap-4.3.4/src\coap_option.c ****  * Copyright (C) 2010-2013,2022-2023 Olaf Bergmann <bergmann@tzi.org>
   5:C:/Users/stapi/OneDrive/Desktop/GD32VW553/V1_MQTT_OK/GD32VW55X_Wifi_BLE_SDK/GD32VW55x_RELEASE_V1.0.2/MSDK/lwip/libcoap-4.3.4/src\coap_option.c ****  * Copyright (c) 2024, GigaDevice Semiconductor Inc.
   6:C:/Users/stapi/OneDrive/Desktop/GD32VW553/V1_MQTT_OK/GD32VW55X_Wifi_BLE_SDK/GD32VW55x_RELEASE_V1.0.2/MSDK/lwip/libcoap-4.3.4/src\coap_option.c ****  *
   7:C:/Users/stapi/OneDrive/Desktop/GD32VW553/V1_MQTT_OK/GD32VW55X_Wifi_BLE_SDK/GD32VW55x_RELEASE_V1.0.2/MSDK/lwip/libcoap-4.3.4/src\coap_option.c ****  * SPDX-License-Identifier: BSD-2-Clause
   8:C:/Users/stapi/OneDrive/Desktop/GD32VW553/V1_MQTT_OK/GD32VW55X_Wifi_BLE_SDK/GD32VW55x_RELEASE_V1.0.2/MSDK/lwip/libcoap-4.3.4/src\coap_option.c ****  *
   9:C:/Users/stapi/OneDrive/Desktop/GD32VW553/V1_MQTT_OK/GD32VW55X_Wifi_BLE_SDK/GD32VW55x_RELEASE_V1.0.2/MSDK/lwip/libcoap-4.3.4/src\coap_option.c ****  * This file is part of the CoAP library libcoap. Please see
  10:C:/Users/stapi/OneDrive/Desktop/GD32VW553/V1_MQTT_OK/GD32VW55X_Wifi_BLE_SDK/GD32VW55x_RELEASE_V1.0.2/MSDK/lwip/libcoap-4.3.4/src\coap_option.c ****  * README for terms of use.
  11:C:/Users/stapi/OneDrive/Desktop/GD32VW553/V1_MQTT_OK/GD32VW55X_Wifi_BLE_SDK/GD32VW55x_RELEASE_V1.0.2/MSDK/lwip/libcoap-4.3.4/src\coap_option.c ****  */
  12:C:/Users/stapi/OneDrive/Desktop/GD32VW553/V1_MQTT_OK/GD32VW55X_Wifi_BLE_SDK/GD32VW55x_RELEASE_V1.0.2/MSDK/lwip/libcoap-4.3.4/src\coap_option.c **** 
  13:C:/Users/stapi/OneDrive/Desktop/GD32VW553/V1_MQTT_OK/GD32VW55X_Wifi_BLE_SDK/GD32VW55x_RELEASE_V1.0.2/MSDK/lwip/libcoap-4.3.4/src\coap_option.c **** /**
  14:C:/Users/stapi/OneDrive/Desktop/GD32VW553/V1_MQTT_OK/GD32VW55X_Wifi_BLE_SDK/GD32VW55x_RELEASE_V1.0.2/MSDK/lwip/libcoap-4.3.4/src\coap_option.c ****  * @file coap_option.c
  15:C:/Users/stapi/OneDrive/Desktop/GD32VW553/V1_MQTT_OK/GD32VW55X_Wifi_BLE_SDK/GD32VW55x_RELEASE_V1.0.2/MSDK/lwip/libcoap-4.3.4/src\coap_option.c ****  * @brief CoAP option handling functions
  16:C:/Users/stapi/OneDrive/Desktop/GD32VW553/V1_MQTT_OK/GD32VW55X_Wifi_BLE_SDK/GD32VW55x_RELEASE_V1.0.2/MSDK/lwip/libcoap-4.3.4/src\coap_option.c ****  */
  17:C:/Users/stapi/OneDrive/Desktop/GD32VW553/V1_MQTT_OK/GD32VW55X_Wifi_BLE_SDK/GD32VW55x_RELEASE_V1.0.2/MSDK/lwip/libcoap-4.3.4/src\coap_option.c **** 
  18:C:/Users/stapi/OneDrive/Desktop/GD32VW553/V1_MQTT_OK/GD32VW55X_Wifi_BLE_SDK/GD32VW55x_RELEASE_V1.0.2/MSDK/lwip/libcoap-4.3.4/src\coap_option.c **** #include "coap3/coap_internal.h"
  19:C:/Users/stapi/OneDrive/Desktop/GD32VW553/V1_MQTT_OK/GD32VW55X_Wifi_BLE_SDK/GD32VW55x_RELEASE_V1.0.2/MSDK/lwip/libcoap-4.3.4/src\coap_option.c **** 
  20:C:/Users/stapi/OneDrive/Desktop/GD32VW553/V1_MQTT_OK/GD32VW55X_Wifi_BLE_SDK/GD32VW55x_RELEASE_V1.0.2/MSDK/lwip/libcoap-4.3.4/src\coap_option.c **** #include <stdio.h>
  21:C:/Users/stapi/OneDrive/Desktop/GD32VW553/V1_MQTT_OK/GD32VW55X_Wifi_BLE_SDK/GD32VW55x_RELEASE_V1.0.2/MSDK/lwip/libcoap-4.3.4/src\coap_option.c **** #include <string.h>
  22:C:/Users/stapi/OneDrive/Desktop/GD32VW553/V1_MQTT_OK/GD32VW55X_Wifi_BLE_SDK/GD32VW55x_RELEASE_V1.0.2/MSDK/lwip/libcoap-4.3.4/src\coap_option.c **** 
  23:C:/Users/stapi/OneDrive/Desktop/GD32VW553/V1_MQTT_OK/GD32VW55X_Wifi_BLE_SDK/GD32VW55x_RELEASE_V1.0.2/MSDK/lwip/libcoap-4.3.4/src\coap_option.c **** #define ADVANCE_OPT(o,e,step) if ((e) < step) {           \
  24:C:/Users/stapi/OneDrive/Desktop/GD32VW553/V1_MQTT_OK/GD32VW55X_Wifi_BLE_SDK/GD32VW55x_RELEASE_V1.0.2/MSDK/lwip/libcoap-4.3.4/src\coap_option.c ****     coap_log_debug("cannot advance opt past end\n"); \
  25:C:/Users/stapi/OneDrive/Desktop/GD32VW553/V1_MQTT_OK/GD32VW55X_Wifi_BLE_SDK/GD32VW55x_RELEASE_V1.0.2/MSDK/lwip/libcoap-4.3.4/src\coap_option.c ****     return 0;                                             \
  26:C:/Users/stapi/OneDrive/Desktop/GD32VW553/V1_MQTT_OK/GD32VW55X_Wifi_BLE_SDK/GD32VW55x_RELEASE_V1.0.2/MSDK/lwip/libcoap-4.3.4/src\coap_option.c ****   } else {                                                \
  27:C:/Users/stapi/OneDrive/Desktop/GD32VW553/V1_MQTT_OK/GD32VW55X_Wifi_BLE_SDK/GD32VW55x_RELEASE_V1.0.2/MSDK/lwip/libcoap-4.3.4/src\coap_option.c ****     (e) -= step;                                          \
  28:C:/Users/stapi/OneDrive/Desktop/GD32VW553/V1_MQTT_OK/GD32VW55X_Wifi_BLE_SDK/GD32VW55x_RELEASE_V1.0.2/MSDK/lwip/libcoap-4.3.4/src\coap_option.c ****     (o) = ((o)) + step;                                   \
  29:C:/Users/stapi/OneDrive/Desktop/GD32VW553/V1_MQTT_OK/GD32VW55X_Wifi_BLE_SDK/GD32VW55x_RELEASE_V1.0.2/MSDK/lwip/libcoap-4.3.4/src\coap_option.c ****   }
  30:C:/Users/stapi/OneDrive/Desktop/GD32VW553/V1_MQTT_OK/GD32VW55X_Wifi_BLE_SDK/GD32VW55x_RELEASE_V1.0.2/MSDK/lwip/libcoap-4.3.4/src\coap_option.c **** 
  31:C:/Users/stapi/OneDrive/Desktop/GD32VW553/V1_MQTT_OK/GD32VW55X_Wifi_BLE_SDK/GD32VW55x_RELEASE_V1.0.2/MSDK/lwip/libcoap-4.3.4/src\coap_option.c **** /*
  32:C:/Users/stapi/OneDrive/Desktop/GD32VW553/V1_MQTT_OK/GD32VW55X_Wifi_BLE_SDK/GD32VW55x_RELEASE_V1.0.2/MSDK/lwip/libcoap-4.3.4/src\coap_option.c ****  * Used to prevent access to *opt when pointing to after end of buffer
  33:C:/Users/stapi/OneDrive/Desktop/GD32VW553/V1_MQTT_OK/GD32VW55X_Wifi_BLE_SDK/GD32VW55x_RELEASE_V1.0.2/MSDK/lwip/libcoap-4.3.4/src\coap_option.c ****  * after doing a ADVANCE_OPT()
  34:C:/Users/stapi/OneDrive/Desktop/GD32VW553/V1_MQTT_OK/GD32VW55X_Wifi_BLE_SDK/GD32VW55x_RELEASE_V1.0.2/MSDK/lwip/libcoap-4.3.4/src\coap_option.c ****  */
  35:C:/Users/stapi/OneDrive/Desktop/GD32VW553/V1_MQTT_OK/GD32VW55X_Wifi_BLE_SDK/GD32VW55x_RELEASE_V1.0.2/MSDK/lwip/libcoap-4.3.4/src\coap_option.c **** #define ADVANCE_OPT_CHECK(o,e,step) do { \
  36:C:/Users/stapi/OneDrive/Desktop/GD32VW553/V1_MQTT_OK/GD32VW55X_Wifi_BLE_SDK/GD32VW55x_RELEASE_V1.0.2/MSDK/lwip/libcoap-4.3.4/src\coap_option.c ****     ADVANCE_OPT(o,e,step);               \
  37:C:/Users/stapi/OneDrive/Desktop/GD32VW553/V1_MQTT_OK/GD32VW55X_Wifi_BLE_SDK/GD32VW55x_RELEASE_V1.0.2/MSDK/lwip/libcoap-4.3.4/src\coap_option.c ****     if ((e) < 1)                         \
  38:C:/Users/stapi/OneDrive/Desktop/GD32VW553/V1_MQTT_OK/GD32VW55X_Wifi_BLE_SDK/GD32VW55x_RELEASE_V1.0.2/MSDK/lwip/libcoap-4.3.4/src\coap_option.c ****       return 0;                          \
  39:C:/Users/stapi/OneDrive/Desktop/GD32VW553/V1_MQTT_OK/GD32VW55X_Wifi_BLE_SDK/GD32VW55x_RELEASE_V1.0.2/MSDK/lwip/libcoap-4.3.4/src\coap_option.c ****   } while (0)
  40:C:/Users/stapi/OneDrive/Desktop/GD32VW553/V1_MQTT_OK/GD32VW55X_Wifi_BLE_SDK/GD32VW55x_RELEASE_V1.0.2/MSDK/lwip/libcoap-4.3.4/src\coap_option.c **** 
  41:C:/Users/stapi/OneDrive/Desktop/GD32VW553/V1_MQTT_OK/GD32VW55X_Wifi_BLE_SDK/GD32VW55x_RELEASE_V1.0.2/MSDK/lwip/libcoap-4.3.4/src\coap_option.c **** size_t
  42:C:/Users/stapi/OneDrive/Desktop/GD32VW553/V1_MQTT_OK/GD32VW55X_Wifi_BLE_SDK/GD32VW55x_RELEASE_V1.0.2/MSDK/lwip/libcoap-4.3.4/src\coap_option.c **** coap_opt_parse(const coap_opt_t *opt, size_t length, coap_option_t *result) {
  43:C:/Users/stapi/OneDrive/Desktop/GD32VW553/V1_MQTT_OK/GD32VW55X_Wifi_BLE_SDK/GD32VW55x_RELEASE_V1.0.2/MSDK/lwip/libcoap-4.3.4/src\coap_option.c **** 
  44:C:/Users/stapi/OneDrive/Desktop/GD32VW553/V1_MQTT_OK/GD32VW55X_Wifi_BLE_SDK/GD32VW55x_RELEASE_V1.0.2/MSDK/lwip/libcoap-4.3.4/src\coap_option.c ****   const coap_opt_t *opt_start = opt; /* store where parsing starts  */
  45:C:/Users/stapi/OneDrive/Desktop/GD32VW553/V1_MQTT_OK/GD32VW55X_Wifi_BLE_SDK/GD32VW55x_RELEASE_V1.0.2/MSDK/lwip/libcoap-4.3.4/src\coap_option.c **** 
  46:C:/Users/stapi/OneDrive/Desktop/GD32VW553/V1_MQTT_OK/GD32VW55X_Wifi_BLE_SDK/GD32VW55x_RELEASE_V1.0.2/MSDK/lwip/libcoap-4.3.4/src\coap_option.c ****   assert(opt);
  47:C:/Users/stapi/OneDrive/Desktop/GD32VW553/V1_MQTT_OK/GD32VW55X_Wifi_BLE_SDK/GD32VW55x_RELEASE_V1.0.2/MSDK/lwip/libcoap-4.3.4/src\coap_option.c ****   assert(result);
  48:C:/Users/stapi/OneDrive/Desktop/GD32VW553/V1_MQTT_OK/GD32VW55X_Wifi_BLE_SDK/GD32VW55x_RELEASE_V1.0.2/MSDK/lwip/libcoap-4.3.4/src\coap_option.c **** 
  49:C:/Users/stapi/OneDrive/Desktop/GD32VW553/V1_MQTT_OK/GD32VW55X_Wifi_BLE_SDK/GD32VW55x_RELEASE_V1.0.2/MSDK/lwip/libcoap-4.3.4/src\coap_option.c ****   if (length < 1)
  50:C:/Users/stapi/OneDrive/Desktop/GD32VW553/V1_MQTT_OK/GD32VW55X_Wifi_BLE_SDK/GD32VW55x_RELEASE_V1.0.2/MSDK/lwip/libcoap-4.3.4/src\coap_option.c ****     return 0;
  51:C:/Users/stapi/OneDrive/Desktop/GD32VW553/V1_MQTT_OK/GD32VW55X_Wifi_BLE_SDK/GD32VW55x_RELEASE_V1.0.2/MSDK/lwip/libcoap-4.3.4/src\coap_option.c **** 
  52:C:/Users/stapi/OneDrive/Desktop/GD32VW553/V1_MQTT_OK/GD32VW55X_Wifi_BLE_SDK/GD32VW55x_RELEASE_V1.0.2/MSDK/lwip/libcoap-4.3.4/src\coap_option.c ****   result->delta = (*opt & 0xf0) >> 4;
  53:C:/Users/stapi/OneDrive/Desktop/GD32VW553/V1_MQTT_OK/GD32VW55X_Wifi_BLE_SDK/GD32VW55x_RELEASE_V1.0.2/MSDK/lwip/libcoap-4.3.4/src\coap_option.c ****   result->length = *opt & 0x0f;
  54:C:/Users/stapi/OneDrive/Desktop/GD32VW553/V1_MQTT_OK/GD32VW55X_Wifi_BLE_SDK/GD32VW55x_RELEASE_V1.0.2/MSDK/lwip/libcoap-4.3.4/src\coap_option.c **** 
  55:C:/Users/stapi/OneDrive/Desktop/GD32VW553/V1_MQTT_OK/GD32VW55X_Wifi_BLE_SDK/GD32VW55x_RELEASE_V1.0.2/MSDK/lwip/libcoap-4.3.4/src\coap_option.c ****   switch (result->delta) {
  56:C:/Users/stapi/OneDrive/Desktop/GD32VW553/V1_MQTT_OK/GD32VW55X_Wifi_BLE_SDK/GD32VW55x_RELEASE_V1.0.2/MSDK/lwip/libcoap-4.3.4/src\coap_option.c ****   case 15:
  57:C:/Users/stapi/OneDrive/Desktop/GD32VW553/V1_MQTT_OK/GD32VW55X_Wifi_BLE_SDK/GD32VW55x_RELEASE_V1.0.2/MSDK/lwip/libcoap-4.3.4/src\coap_option.c ****     if (*opt != COAP_PAYLOAD_START) {
  58:C:/Users/stapi/OneDrive/Desktop/GD32VW553/V1_MQTT_OK/GD32VW55X_Wifi_BLE_SDK/GD32VW55x_RELEASE_V1.0.2/MSDK/lwip/libcoap-4.3.4/src\coap_option.c ****       coap_log_debug("ignored reserved option delta 15\n");
  59:C:/Users/stapi/OneDrive/Desktop/GD32VW553/V1_MQTT_OK/GD32VW55X_Wifi_BLE_SDK/GD32VW55x_RELEASE_V1.0.2/MSDK/lwip/libcoap-4.3.4/src\coap_option.c ****     }
  60:C:/Users/stapi/OneDrive/Desktop/GD32VW553/V1_MQTT_OK/GD32VW55X_Wifi_BLE_SDK/GD32VW55x_RELEASE_V1.0.2/MSDK/lwip/libcoap-4.3.4/src\coap_option.c ****     return 0;
  61:C:/Users/stapi/OneDrive/Desktop/GD32VW553/V1_MQTT_OK/GD32VW55X_Wifi_BLE_SDK/GD32VW55x_RELEASE_V1.0.2/MSDK/lwip/libcoap-4.3.4/src\coap_option.c ****   case 14:
  62:C:/Users/stapi/OneDrive/Desktop/GD32VW553/V1_MQTT_OK/GD32VW55X_Wifi_BLE_SDK/GD32VW55x_RELEASE_V1.0.2/MSDK/lwip/libcoap-4.3.4/src\coap_option.c ****     /* Handle two-byte value: First, the MSB + 269 is stored as delta value.
  63:C:/Users/stapi/OneDrive/Desktop/GD32VW553/V1_MQTT_OK/GD32VW55X_Wifi_BLE_SDK/GD32VW55x_RELEASE_V1.0.2/MSDK/lwip/libcoap-4.3.4/src\coap_option.c ****      * After that, the option pointer is advanced to the LSB which is handled
  64:C:/Users/stapi/OneDrive/Desktop/GD32VW553/V1_MQTT_OK/GD32VW55X_Wifi_BLE_SDK/GD32VW55x_RELEASE_V1.0.2/MSDK/lwip/libcoap-4.3.4/src\coap_option.c ****      * just like case delta == 13. */
  65:C:/Users/stapi/OneDrive/Desktop/GD32VW553/V1_MQTT_OK/GD32VW55X_Wifi_BLE_SDK/GD32VW55x_RELEASE_V1.0.2/MSDK/lwip/libcoap-4.3.4/src\coap_option.c ****     ADVANCE_OPT_CHECK(opt,length,1);
  66:C:/Users/stapi/OneDrive/Desktop/GD32VW553/V1_MQTT_OK/GD32VW55X_Wifi_BLE_SDK/GD32VW55x_RELEASE_V1.0.2/MSDK/lwip/libcoap-4.3.4/src\coap_option.c ****     result->delta = ((*opt & 0xff) << 8) + 269;
  67:C:/Users/stapi/OneDrive/Desktop/GD32VW553/V1_MQTT_OK/GD32VW55X_Wifi_BLE_SDK/GD32VW55x_RELEASE_V1.0.2/MSDK/lwip/libcoap-4.3.4/src\coap_option.c ****     if (result->delta < 269) {
  68:C:/Users/stapi/OneDrive/Desktop/GD32VW553/V1_MQTT_OK/GD32VW55X_Wifi_BLE_SDK/GD32VW55x_RELEASE_V1.0.2/MSDK/lwip/libcoap-4.3.4/src\coap_option.c ****       coap_log_debug("delta too large\n");
  69:C:/Users/stapi/OneDrive/Desktop/GD32VW553/V1_MQTT_OK/GD32VW55X_Wifi_BLE_SDK/GD32VW55x_RELEASE_V1.0.2/MSDK/lwip/libcoap-4.3.4/src\coap_option.c ****       return 0;
  70:C:/Users/stapi/OneDrive/Desktop/GD32VW553/V1_MQTT_OK/GD32VW55X_Wifi_BLE_SDK/GD32VW55x_RELEASE_V1.0.2/MSDK/lwip/libcoap-4.3.4/src\coap_option.c ****     }
  71:C:/Users/stapi/OneDrive/Desktop/GD32VW553/V1_MQTT_OK/GD32VW55X_Wifi_BLE_SDK/GD32VW55x_RELEASE_V1.0.2/MSDK/lwip/libcoap-4.3.4/src\coap_option.c ****   /* fall through */
  72:C:/Users/stapi/OneDrive/Desktop/GD32VW553/V1_MQTT_OK/GD32VW55X_Wifi_BLE_SDK/GD32VW55x_RELEASE_V1.0.2/MSDK/lwip/libcoap-4.3.4/src\coap_option.c ****   case 13:
  73:C:/Users/stapi/OneDrive/Desktop/GD32VW553/V1_MQTT_OK/GD32VW55X_Wifi_BLE_SDK/GD32VW55x_RELEASE_V1.0.2/MSDK/lwip/libcoap-4.3.4/src\coap_option.c ****     ADVANCE_OPT_CHECK(opt,length,1);
  74:C:/Users/stapi/OneDrive/Desktop/GD32VW553/V1_MQTT_OK/GD32VW55X_Wifi_BLE_SDK/GD32VW55x_RELEASE_V1.0.2/MSDK/lwip/libcoap-4.3.4/src\coap_option.c ****     result->delta += *opt & 0xff;
  75:C:/Users/stapi/OneDrive/Desktop/GD32VW553/V1_MQTT_OK/GD32VW55X_Wifi_BLE_SDK/GD32VW55x_RELEASE_V1.0.2/MSDK/lwip/libcoap-4.3.4/src\coap_option.c ****     break;
  76:C:/Users/stapi/OneDrive/Desktop/GD32VW553/V1_MQTT_OK/GD32VW55X_Wifi_BLE_SDK/GD32VW55x_RELEASE_V1.0.2/MSDK/lwip/libcoap-4.3.4/src\coap_option.c **** 
  77:C:/Users/stapi/OneDrive/Desktop/GD32VW553/V1_MQTT_OK/GD32VW55X_Wifi_BLE_SDK/GD32VW55x_RELEASE_V1.0.2/MSDK/lwip/libcoap-4.3.4/src\coap_option.c ****   default:
  78:C:/Users/stapi/OneDrive/Desktop/GD32VW553/V1_MQTT_OK/GD32VW55X_Wifi_BLE_SDK/GD32VW55x_RELEASE_V1.0.2/MSDK/lwip/libcoap-4.3.4/src\coap_option.c ****     ;
  79:C:/Users/stapi/OneDrive/Desktop/GD32VW553/V1_MQTT_OK/GD32VW55X_Wifi_BLE_SDK/GD32VW55x_RELEASE_V1.0.2/MSDK/lwip/libcoap-4.3.4/src\coap_option.c ****   }
  80:C:/Users/stapi/OneDrive/Desktop/GD32VW553/V1_MQTT_OK/GD32VW55X_Wifi_BLE_SDK/GD32VW55x_RELEASE_V1.0.2/MSDK/lwip/libcoap-4.3.4/src\coap_option.c **** 
  81:C:/Users/stapi/OneDrive/Desktop/GD32VW553/V1_MQTT_OK/GD32VW55X_Wifi_BLE_SDK/GD32VW55x_RELEASE_V1.0.2/MSDK/lwip/libcoap-4.3.4/src\coap_option.c ****   switch (result->length) {
  82:C:/Users/stapi/OneDrive/Desktop/GD32VW553/V1_MQTT_OK/GD32VW55X_Wifi_BLE_SDK/GD32VW55x_RELEASE_V1.0.2/MSDK/lwip/libcoap-4.3.4/src\coap_option.c ****   case 15:
  83:C:/Users/stapi/OneDrive/Desktop/GD32VW553/V1_MQTT_OK/GD32VW55X_Wifi_BLE_SDK/GD32VW55x_RELEASE_V1.0.2/MSDK/lwip/libcoap-4.3.4/src\coap_option.c ****     coap_log_debug("found reserved option length 15\n");
  84:C:/Users/stapi/OneDrive/Desktop/GD32VW553/V1_MQTT_OK/GD32VW55X_Wifi_BLE_SDK/GD32VW55x_RELEASE_V1.0.2/MSDK/lwip/libcoap-4.3.4/src\coap_option.c ****     return 0;
  85:C:/Users/stapi/OneDrive/Desktop/GD32VW553/V1_MQTT_OK/GD32VW55X_Wifi_BLE_SDK/GD32VW55x_RELEASE_V1.0.2/MSDK/lwip/libcoap-4.3.4/src\coap_option.c ****   case 14:
  86:C:/Users/stapi/OneDrive/Desktop/GD32VW553/V1_MQTT_OK/GD32VW55X_Wifi_BLE_SDK/GD32VW55x_RELEASE_V1.0.2/MSDK/lwip/libcoap-4.3.4/src\coap_option.c ****     /* Handle two-byte value: First, the MSB + 269 is stored as delta value.
  87:C:/Users/stapi/OneDrive/Desktop/GD32VW553/V1_MQTT_OK/GD32VW55X_Wifi_BLE_SDK/GD32VW55x_RELEASE_V1.0.2/MSDK/lwip/libcoap-4.3.4/src\coap_option.c ****      * After that, the option pointer is advanced to the LSB which is handled
  88:C:/Users/stapi/OneDrive/Desktop/GD32VW553/V1_MQTT_OK/GD32VW55X_Wifi_BLE_SDK/GD32VW55x_RELEASE_V1.0.2/MSDK/lwip/libcoap-4.3.4/src\coap_option.c ****      * just like case delta == 13. */
  89:C:/Users/stapi/OneDrive/Desktop/GD32VW553/V1_MQTT_OK/GD32VW55X_Wifi_BLE_SDK/GD32VW55x_RELEASE_V1.0.2/MSDK/lwip/libcoap-4.3.4/src\coap_option.c ****     ADVANCE_OPT_CHECK(opt,length,1);
  90:C:/Users/stapi/OneDrive/Desktop/GD32VW553/V1_MQTT_OK/GD32VW55X_Wifi_BLE_SDK/GD32VW55x_RELEASE_V1.0.2/MSDK/lwip/libcoap-4.3.4/src\coap_option.c ****     result->length = ((*opt & 0xff) << 8) + 269;
  91:C:/Users/stapi/OneDrive/Desktop/GD32VW553/V1_MQTT_OK/GD32VW55X_Wifi_BLE_SDK/GD32VW55x_RELEASE_V1.0.2/MSDK/lwip/libcoap-4.3.4/src\coap_option.c ****   /* fall through */
  92:C:/Users/stapi/OneDrive/Desktop/GD32VW553/V1_MQTT_OK/GD32VW55X_Wifi_BLE_SDK/GD32VW55x_RELEASE_V1.0.2/MSDK/lwip/libcoap-4.3.4/src\coap_option.c ****   case 13:
  93:C:/Users/stapi/OneDrive/Desktop/GD32VW553/V1_MQTT_OK/GD32VW55X_Wifi_BLE_SDK/GD32VW55x_RELEASE_V1.0.2/MSDK/lwip/libcoap-4.3.4/src\coap_option.c ****     ADVANCE_OPT_CHECK(opt,length,1);
  94:C:/Users/stapi/OneDrive/Desktop/GD32VW553/V1_MQTT_OK/GD32VW55X_Wifi_BLE_SDK/GD32VW55x_RELEASE_V1.0.2/MSDK/lwip/libcoap-4.3.4/src\coap_option.c ****     result->length += *opt & 0xff;
  95:C:/Users/stapi/OneDrive/Desktop/GD32VW553/V1_MQTT_OK/GD32VW55X_Wifi_BLE_SDK/GD32VW55x_RELEASE_V1.0.2/MSDK/lwip/libcoap-4.3.4/src\coap_option.c ****     break;
  96:C:/Users/stapi/OneDrive/Desktop/GD32VW553/V1_MQTT_OK/GD32VW55X_Wifi_BLE_SDK/GD32VW55x_RELEASE_V1.0.2/MSDK/lwip/libcoap-4.3.4/src\coap_option.c **** 
  97:C:/Users/stapi/OneDrive/Desktop/GD32VW553/V1_MQTT_OK/GD32VW55X_Wifi_BLE_SDK/GD32VW55x_RELEASE_V1.0.2/MSDK/lwip/libcoap-4.3.4/src\coap_option.c ****   default:
  98:C:/Users/stapi/OneDrive/Desktop/GD32VW553/V1_MQTT_OK/GD32VW55X_Wifi_BLE_SDK/GD32VW55x_RELEASE_V1.0.2/MSDK/lwip/libcoap-4.3.4/src\coap_option.c ****     ;
  99:C:/Users/stapi/OneDrive/Desktop/GD32VW553/V1_MQTT_OK/GD32VW55X_Wifi_BLE_SDK/GD32VW55x_RELEASE_V1.0.2/MSDK/lwip/libcoap-4.3.4/src\coap_option.c ****   }
 100:C:/Users/stapi/OneDrive/Desktop/GD32VW553/V1_MQTT_OK/GD32VW55X_Wifi_BLE_SDK/GD32VW55x_RELEASE_V1.0.2/MSDK/lwip/libcoap-4.3.4/src\coap_option.c **** 
 101:C:/Users/stapi/OneDrive/Desktop/GD32VW553/V1_MQTT_OK/GD32VW55X_Wifi_BLE_SDK/GD32VW55x_RELEASE_V1.0.2/MSDK/lwip/libcoap-4.3.4/src\coap_option.c ****   /* ADVANCE_OPT() is correct here */
 102:C:/Users/stapi/OneDrive/Desktop/GD32VW553/V1_MQTT_OK/GD32VW55X_Wifi_BLE_SDK/GD32VW55x_RELEASE_V1.0.2/MSDK/lwip/libcoap-4.3.4/src\coap_option.c ****   ADVANCE_OPT(opt,length,1);
 103:C:/Users/stapi/OneDrive/Desktop/GD32VW553/V1_MQTT_OK/GD32VW55X_Wifi_BLE_SDK/GD32VW55x_RELEASE_V1.0.2/MSDK/lwip/libcoap-4.3.4/src\coap_option.c ****   /* opt now points to value, if present */
 104:C:/Users/stapi/OneDrive/Desktop/GD32VW553/V1_MQTT_OK/GD32VW55X_Wifi_BLE_SDK/GD32VW55x_RELEASE_V1.0.2/MSDK/lwip/libcoap-4.3.4/src\coap_option.c **** 
 105:C:/Users/stapi/OneDrive/Desktop/GD32VW553/V1_MQTT_OK/GD32VW55X_Wifi_BLE_SDK/GD32VW55x_RELEASE_V1.0.2/MSDK/lwip/libcoap-4.3.4/src\coap_option.c ****   result->value = opt;
 106:C:/Users/stapi/OneDrive/Desktop/GD32VW553/V1_MQTT_OK/GD32VW55X_Wifi_BLE_SDK/GD32VW55x_RELEASE_V1.0.2/MSDK/lwip/libcoap-4.3.4/src\coap_option.c ****   if (length < result->length) {
 107:C:/Users/stapi/OneDrive/Desktop/GD32VW553/V1_MQTT_OK/GD32VW55X_Wifi_BLE_SDK/GD32VW55x_RELEASE_V1.0.2/MSDK/lwip/libcoap-4.3.4/src\coap_option.c ****     coap_log_debug("invalid option length\n");
 108:C:/Users/stapi/OneDrive/Desktop/GD32VW553/V1_MQTT_OK/GD32VW55X_Wifi_BLE_SDK/GD32VW55x_RELEASE_V1.0.2/MSDK/lwip/libcoap-4.3.4/src\coap_option.c ****     return 0;
 109:C:/Users/stapi/OneDrive/Desktop/GD32VW553/V1_MQTT_OK/GD32VW55X_Wifi_BLE_SDK/GD32VW55x_RELEASE_V1.0.2/MSDK/lwip/libcoap-4.3.4/src\coap_option.c ****   }
 110:C:/Users/stapi/OneDrive/Desktop/GD32VW553/V1_MQTT_OK/GD32VW55X_Wifi_BLE_SDK/GD32VW55x_RELEASE_V1.0.2/MSDK/lwip/libcoap-4.3.4/src\coap_option.c **** 
 111:C:/Users/stapi/OneDrive/Desktop/GD32VW553/V1_MQTT_OK/GD32VW55X_Wifi_BLE_SDK/GD32VW55x_RELEASE_V1.0.2/MSDK/lwip/libcoap-4.3.4/src\coap_option.c **** #undef ADVANCE_OPT
 112:C:/Users/stapi/OneDrive/Desktop/GD32VW553/V1_MQTT_OK/GD32VW55X_Wifi_BLE_SDK/GD32VW55x_RELEASE_V1.0.2/MSDK/lwip/libcoap-4.3.4/src\coap_option.c **** #undef ADVANCE_OPT_CHECK
 113:C:/Users/stapi/OneDrive/Desktop/GD32VW553/V1_MQTT_OK/GD32VW55X_Wifi_BLE_SDK/GD32VW55x_RELEASE_V1.0.2/MSDK/lwip/libcoap-4.3.4/src\coap_option.c **** 
 114:C:/Users/stapi/OneDrive/Desktop/GD32VW553/V1_MQTT_OK/GD32VW55X_Wifi_BLE_SDK/GD32VW55x_RELEASE_V1.0.2/MSDK/lwip/libcoap-4.3.4/src\coap_option.c ****   return (opt + result->length) - opt_start;
 115:C:/Users/stapi/OneDrive/Desktop/GD32VW553/V1_MQTT_OK/GD32VW55X_Wifi_BLE_SDK/GD32VW55x_RELEASE_V1.0.2/MSDK/lwip/libcoap-4.3.4/src\coap_option.c **** }
 116:C:/Users/stapi/OneDrive/Desktop/GD32VW553/V1_MQTT_OK/GD32VW55X_Wifi_BLE_SDK/GD32VW55x_RELEASE_V1.0.2/MSDK/lwip/libcoap-4.3.4/src\coap_option.c **** 
 117:C:/Users/stapi/OneDrive/Desktop/GD32VW553/V1_MQTT_OK/GD32VW55X_Wifi_BLE_SDK/GD32VW55x_RELEASE_V1.0.2/MSDK/lwip/libcoap-4.3.4/src\coap_option.c **** coap_opt_iterator_t *
 118:C:/Users/stapi/OneDrive/Desktop/GD32VW553/V1_MQTT_OK/GD32VW55X_Wifi_BLE_SDK/GD32VW55x_RELEASE_V1.0.2/MSDK/lwip/libcoap-4.3.4/src\coap_option.c **** coap_option_iterator_init(const coap_pdu_t *pdu, coap_opt_iterator_t *oi,
 119:C:/Users/stapi/OneDrive/Desktop/GD32VW553/V1_MQTT_OK/GD32VW55X_Wifi_BLE_SDK/GD32VW55x_RELEASE_V1.0.2/MSDK/lwip/libcoap-4.3.4/src\coap_option.c ****                           const coap_opt_filter_t *filter) {
 120:C:/Users/stapi/OneDrive/Desktop/GD32VW553/V1_MQTT_OK/GD32VW55X_Wifi_BLE_SDK/GD32VW55x_RELEASE_V1.0.2/MSDK/lwip/libcoap-4.3.4/src\coap_option.c ****   assert(pdu);
 121:C:/Users/stapi/OneDrive/Desktop/GD32VW553/V1_MQTT_OK/GD32VW55X_Wifi_BLE_SDK/GD32VW55x_RELEASE_V1.0.2/MSDK/lwip/libcoap-4.3.4/src\coap_option.c ****   assert(pdu->token);
 122:C:/Users/stapi/OneDrive/Desktop/GD32VW553/V1_MQTT_OK/GD32VW55X_Wifi_BLE_SDK/GD32VW55x_RELEASE_V1.0.2/MSDK/lwip/libcoap-4.3.4/src\coap_option.c ****   assert(oi);
 123:C:/Users/stapi/OneDrive/Desktop/GD32VW553/V1_MQTT_OK/GD32VW55X_Wifi_BLE_SDK/GD32VW55x_RELEASE_V1.0.2/MSDK/lwip/libcoap-4.3.4/src\coap_option.c **** 
 124:C:/Users/stapi/OneDrive/Desktop/GD32VW553/V1_MQTT_OK/GD32VW55X_Wifi_BLE_SDK/GD32VW55x_RELEASE_V1.0.2/MSDK/lwip/libcoap-4.3.4/src\coap_option.c ****   memset(oi, 0, sizeof(coap_opt_iterator_t));
 125:C:/Users/stapi/OneDrive/Desktop/GD32VW553/V1_MQTT_OK/GD32VW55X_Wifi_BLE_SDK/GD32VW55x_RELEASE_V1.0.2/MSDK/lwip/libcoap-4.3.4/src\coap_option.c **** 
 126:C:/Users/stapi/OneDrive/Desktop/GD32VW553/V1_MQTT_OK/GD32VW55X_Wifi_BLE_SDK/GD32VW55x_RELEASE_V1.0.2/MSDK/lwip/libcoap-4.3.4/src\coap_option.c ****   oi->next_option = pdu->token + pdu->e_token_length;
 127:C:/Users/stapi/OneDrive/Desktop/GD32VW553/V1_MQTT_OK/GD32VW55X_Wifi_BLE_SDK/GD32VW55x_RELEASE_V1.0.2/MSDK/lwip/libcoap-4.3.4/src\coap_option.c ****   if (pdu->token + pdu->used_size <= oi->next_option) {
 128:C:/Users/stapi/OneDrive/Desktop/GD32VW553/V1_MQTT_OK/GD32VW55X_Wifi_BLE_SDK/GD32VW55x_RELEASE_V1.0.2/MSDK/lwip/libcoap-4.3.4/src\coap_option.c ****     oi->bad = 1;
 129:C:/Users/stapi/OneDrive/Desktop/GD32VW553/V1_MQTT_OK/GD32VW55X_Wifi_BLE_SDK/GD32VW55x_RELEASE_V1.0.2/MSDK/lwip/libcoap-4.3.4/src\coap_option.c ****     return NULL;
 130:C:/Users/stapi/OneDrive/Desktop/GD32VW553/V1_MQTT_OK/GD32VW55X_Wifi_BLE_SDK/GD32VW55x_RELEASE_V1.0.2/MSDK/lwip/libcoap-4.3.4/src\coap_option.c ****   }
 131:C:/Users/stapi/OneDrive/Desktop/GD32VW553/V1_MQTT_OK/GD32VW55X_Wifi_BLE_SDK/GD32VW55x_RELEASE_V1.0.2/MSDK/lwip/libcoap-4.3.4/src\coap_option.c **** 
 132:C:/Users/stapi/OneDrive/Desktop/GD32VW553/V1_MQTT_OK/GD32VW55X_Wifi_BLE_SDK/GD32VW55x_RELEASE_V1.0.2/MSDK/lwip/libcoap-4.3.4/src\coap_option.c ****   oi->length = pdu->used_size - pdu->e_token_length;
 133:C:/Users/stapi/OneDrive/Desktop/GD32VW553/V1_MQTT_OK/GD32VW55X_Wifi_BLE_SDK/GD32VW55x_RELEASE_V1.0.2/MSDK/lwip/libcoap-4.3.4/src\coap_option.c **** 
 134:C:/Users/stapi/OneDrive/Desktop/GD32VW553/V1_MQTT_OK/GD32VW55X_Wifi_BLE_SDK/GD32VW55x_RELEASE_V1.0.2/MSDK/lwip/libcoap-4.3.4/src\coap_option.c ****   if (filter) {
 135:C:/Users/stapi/OneDrive/Desktop/GD32VW553/V1_MQTT_OK/GD32VW55X_Wifi_BLE_SDK/GD32VW55x_RELEASE_V1.0.2/MSDK/lwip/libcoap-4.3.4/src\coap_option.c ****     memcpy(&oi->filter, filter, sizeof(coap_opt_filter_t));
 136:C:/Users/stapi/OneDrive/Desktop/GD32VW553/V1_MQTT_OK/GD32VW55X_Wifi_BLE_SDK/GD32VW55x_RELEASE_V1.0.2/MSDK/lwip/libcoap-4.3.4/src\coap_option.c ****     oi->filtered = 1;
 137:C:/Users/stapi/OneDrive/Desktop/GD32VW553/V1_MQTT_OK/GD32VW55X_Wifi_BLE_SDK/GD32VW55x_RELEASE_V1.0.2/MSDK/lwip/libcoap-4.3.4/src\coap_option.c ****   }
 138:C:/Users/stapi/OneDrive/Desktop/GD32VW553/V1_MQTT_OK/GD32VW55X_Wifi_BLE_SDK/GD32VW55x_RELEASE_V1.0.2/MSDK/lwip/libcoap-4.3.4/src\coap_option.c ****   return oi;
 139:C:/Users/stapi/OneDrive/Desktop/GD32VW553/V1_MQTT_OK/GD32VW55X_Wifi_BLE_SDK/GD32VW55x_RELEASE_V1.0.2/MSDK/lwip/libcoap-4.3.4/src\coap_option.c **** }
 140:C:/Users/stapi/OneDrive/Desktop/GD32VW553/V1_MQTT_OK/GD32VW55X_Wifi_BLE_SDK/GD32VW55x_RELEASE_V1.0.2/MSDK/lwip/libcoap-4.3.4/src\coap_option.c **** 
 141:C:/Users/stapi/OneDrive/Desktop/GD32VW553/V1_MQTT_OK/GD32VW55X_Wifi_BLE_SDK/GD32VW55x_RELEASE_V1.0.2/MSDK/lwip/libcoap-4.3.4/src\coap_option.c **** COAP_STATIC_INLINE int
 142:C:/Users/stapi/OneDrive/Desktop/GD32VW553/V1_MQTT_OK/GD32VW55X_Wifi_BLE_SDK/GD32VW55x_RELEASE_V1.0.2/MSDK/lwip/libcoap-4.3.4/src\coap_option.c **** opt_finished(coap_opt_iterator_t *oi) {
 143:C:/Users/stapi/OneDrive/Desktop/GD32VW553/V1_MQTT_OK/GD32VW55X_Wifi_BLE_SDK/GD32VW55x_RELEASE_V1.0.2/MSDK/lwip/libcoap-4.3.4/src\coap_option.c ****   assert(oi);
 144:C:/Users/stapi/OneDrive/Desktop/GD32VW553/V1_MQTT_OK/GD32VW55X_Wifi_BLE_SDK/GD32VW55x_RELEASE_V1.0.2/MSDK/lwip/libcoap-4.3.4/src\coap_option.c **** 
 145:C:/Users/stapi/OneDrive/Desktop/GD32VW553/V1_MQTT_OK/GD32VW55X_Wifi_BLE_SDK/GD32VW55x_RELEASE_V1.0.2/MSDK/lwip/libcoap-4.3.4/src\coap_option.c ****   if (oi->bad || oi->length == 0 ||
 146:C:/Users/stapi/OneDrive/Desktop/GD32VW553/V1_MQTT_OK/GD32VW55X_Wifi_BLE_SDK/GD32VW55x_RELEASE_V1.0.2/MSDK/lwip/libcoap-4.3.4/src\coap_option.c ****       !oi->next_option || *oi->next_option == COAP_PAYLOAD_START) {
 147:C:/Users/stapi/OneDrive/Desktop/GD32VW553/V1_MQTT_OK/GD32VW55X_Wifi_BLE_SDK/GD32VW55x_RELEASE_V1.0.2/MSDK/lwip/libcoap-4.3.4/src\coap_option.c ****     oi->bad = 1;
 148:C:/Users/stapi/OneDrive/Desktop/GD32VW553/V1_MQTT_OK/GD32VW55X_Wifi_BLE_SDK/GD32VW55x_RELEASE_V1.0.2/MSDK/lwip/libcoap-4.3.4/src\coap_option.c ****   }
 149:C:/Users/stapi/OneDrive/Desktop/GD32VW553/V1_MQTT_OK/GD32VW55X_Wifi_BLE_SDK/GD32VW55x_RELEASE_V1.0.2/MSDK/lwip/libcoap-4.3.4/src\coap_option.c **** 
 150:C:/Users/stapi/OneDrive/Desktop/GD32VW553/V1_MQTT_OK/GD32VW55X_Wifi_BLE_SDK/GD32VW55x_RELEASE_V1.0.2/MSDK/lwip/libcoap-4.3.4/src\coap_option.c ****   return oi->bad;
 151:C:/Users/stapi/OneDrive/Desktop/GD32VW553/V1_MQTT_OK/GD32VW55X_Wifi_BLE_SDK/GD32VW55x_RELEASE_V1.0.2/MSDK/lwip/libcoap-4.3.4/src\coap_option.c **** }
 152:C:/Users/stapi/OneDrive/Desktop/GD32VW553/V1_MQTT_OK/GD32VW55X_Wifi_BLE_SDK/GD32VW55x_RELEASE_V1.0.2/MSDK/lwip/libcoap-4.3.4/src\coap_option.c **** 
 153:C:/Users/stapi/OneDrive/Desktop/GD32VW553/V1_MQTT_OK/GD32VW55X_Wifi_BLE_SDK/GD32VW55x_RELEASE_V1.0.2/MSDK/lwip/libcoap-4.3.4/src\coap_option.c **** coap_opt_t *
 154:C:/Users/stapi/OneDrive/Desktop/GD32VW553/V1_MQTT_OK/GD32VW55X_Wifi_BLE_SDK/GD32VW55x_RELEASE_V1.0.2/MSDK/lwip/libcoap-4.3.4/src\coap_option.c **** coap_option_next(coap_opt_iterator_t *oi) {
 155:C:/Users/stapi/OneDrive/Desktop/GD32VW553/V1_MQTT_OK/GD32VW55X_Wifi_BLE_SDK/GD32VW55x_RELEASE_V1.0.2/MSDK/lwip/libcoap-4.3.4/src\coap_option.c ****   coap_option_t option;
 156:C:/Users/stapi/OneDrive/Desktop/GD32VW553/V1_MQTT_OK/GD32VW55X_Wifi_BLE_SDK/GD32VW55x_RELEASE_V1.0.2/MSDK/lwip/libcoap-4.3.4/src\coap_option.c ****   coap_opt_t *current_opt = NULL;
 157:C:/Users/stapi/OneDrive/Desktop/GD32VW553/V1_MQTT_OK/GD32VW55X_Wifi_BLE_SDK/GD32VW55x_RELEASE_V1.0.2/MSDK/lwip/libcoap-4.3.4/src\coap_option.c ****   size_t optsize;
 158:C:/Users/stapi/OneDrive/Desktop/GD32VW553/V1_MQTT_OK/GD32VW55X_Wifi_BLE_SDK/GD32VW55x_RELEASE_V1.0.2/MSDK/lwip/libcoap-4.3.4/src\coap_option.c **** 
 159:C:/Users/stapi/OneDrive/Desktop/GD32VW553/V1_MQTT_OK/GD32VW55X_Wifi_BLE_SDK/GD32VW55x_RELEASE_V1.0.2/MSDK/lwip/libcoap-4.3.4/src\coap_option.c ****   assert(oi);
 160:C:/Users/stapi/OneDrive/Desktop/GD32VW553/V1_MQTT_OK/GD32VW55X_Wifi_BLE_SDK/GD32VW55x_RELEASE_V1.0.2/MSDK/lwip/libcoap-4.3.4/src\coap_option.c **** 
 161:C:/Users/stapi/OneDrive/Desktop/GD32VW553/V1_MQTT_OK/GD32VW55X_Wifi_BLE_SDK/GD32VW55x_RELEASE_V1.0.2/MSDK/lwip/libcoap-4.3.4/src\coap_option.c ****   if (opt_finished(oi))
 162:C:/Users/stapi/OneDrive/Desktop/GD32VW553/V1_MQTT_OK/GD32VW55X_Wifi_BLE_SDK/GD32VW55x_RELEASE_V1.0.2/MSDK/lwip/libcoap-4.3.4/src\coap_option.c ****     return NULL;
 163:C:/Users/stapi/OneDrive/Desktop/GD32VW553/V1_MQTT_OK/GD32VW55X_Wifi_BLE_SDK/GD32VW55x_RELEASE_V1.0.2/MSDK/lwip/libcoap-4.3.4/src\coap_option.c **** 
 164:C:/Users/stapi/OneDrive/Desktop/GD32VW553/V1_MQTT_OK/GD32VW55X_Wifi_BLE_SDK/GD32VW55x_RELEASE_V1.0.2/MSDK/lwip/libcoap-4.3.4/src\coap_option.c ****   while (1) {
 165:C:/Users/stapi/OneDrive/Desktop/GD32VW553/V1_MQTT_OK/GD32VW55X_Wifi_BLE_SDK/GD32VW55x_RELEASE_V1.0.2/MSDK/lwip/libcoap-4.3.4/src\coap_option.c ****     /* oi->next_option always points to the next option to deliver; as
 166:C:/Users/stapi/OneDrive/Desktop/GD32VW553/V1_MQTT_OK/GD32VW55X_Wifi_BLE_SDK/GD32VW55x_RELEASE_V1.0.2/MSDK/lwip/libcoap-4.3.4/src\coap_option.c ****      * opt_finished() filters out any bad conditions, we can assume that
 167:C:/Users/stapi/OneDrive/Desktop/GD32VW553/V1_MQTT_OK/GD32VW55X_Wifi_BLE_SDK/GD32VW55x_RELEASE_V1.0.2/MSDK/lwip/libcoap-4.3.4/src\coap_option.c ****      * oi->next_option is valid. */
 168:C:/Users/stapi/OneDrive/Desktop/GD32VW553/V1_MQTT_OK/GD32VW55X_Wifi_BLE_SDK/GD32VW55x_RELEASE_V1.0.2/MSDK/lwip/libcoap-4.3.4/src\coap_option.c ****     current_opt = oi->next_option;
 169:C:/Users/stapi/OneDrive/Desktop/GD32VW553/V1_MQTT_OK/GD32VW55X_Wifi_BLE_SDK/GD32VW55x_RELEASE_V1.0.2/MSDK/lwip/libcoap-4.3.4/src\coap_option.c **** 
 170:C:/Users/stapi/OneDrive/Desktop/GD32VW553/V1_MQTT_OK/GD32VW55X_Wifi_BLE_SDK/GD32VW55x_RELEASE_V1.0.2/MSDK/lwip/libcoap-4.3.4/src\coap_option.c ****     /*
 171:C:/Users/stapi/OneDrive/Desktop/GD32VW553/V1_MQTT_OK/GD32VW55X_Wifi_BLE_SDK/GD32VW55x_RELEASE_V1.0.2/MSDK/lwip/libcoap-4.3.4/src\coap_option.c ****      * Advance internal pointer to next option.
 172:C:/Users/stapi/OneDrive/Desktop/GD32VW553/V1_MQTT_OK/GD32VW55X_Wifi_BLE_SDK/GD32VW55x_RELEASE_V1.0.2/MSDK/lwip/libcoap-4.3.4/src\coap_option.c ****      * optsize will be 0 when no more options
 173:C:/Users/stapi/OneDrive/Desktop/GD32VW553/V1_MQTT_OK/GD32VW55X_Wifi_BLE_SDK/GD32VW55x_RELEASE_V1.0.2/MSDK/lwip/libcoap-4.3.4/src\coap_option.c ****      */
 174:C:/Users/stapi/OneDrive/Desktop/GD32VW553/V1_MQTT_OK/GD32VW55X_Wifi_BLE_SDK/GD32VW55x_RELEASE_V1.0.2/MSDK/lwip/libcoap-4.3.4/src\coap_option.c ****     optsize = coap_opt_parse(oi->next_option, oi->length, &option);
 175:C:/Users/stapi/OneDrive/Desktop/GD32VW553/V1_MQTT_OK/GD32VW55X_Wifi_BLE_SDK/GD32VW55x_RELEASE_V1.0.2/MSDK/lwip/libcoap-4.3.4/src\coap_option.c ****     if (optsize) {
 176:C:/Users/stapi/OneDrive/Desktop/GD32VW553/V1_MQTT_OK/GD32VW55X_Wifi_BLE_SDK/GD32VW55x_RELEASE_V1.0.2/MSDK/lwip/libcoap-4.3.4/src\coap_option.c ****       assert(optsize <= oi->length);
 177:C:/Users/stapi/OneDrive/Desktop/GD32VW553/V1_MQTT_OK/GD32VW55X_Wifi_BLE_SDK/GD32VW55x_RELEASE_V1.0.2/MSDK/lwip/libcoap-4.3.4/src\coap_option.c **** 
 178:C:/Users/stapi/OneDrive/Desktop/GD32VW553/V1_MQTT_OK/GD32VW55X_Wifi_BLE_SDK/GD32VW55x_RELEASE_V1.0.2/MSDK/lwip/libcoap-4.3.4/src\coap_option.c ****       oi->next_option += optsize;
 179:C:/Users/stapi/OneDrive/Desktop/GD32VW553/V1_MQTT_OK/GD32VW55X_Wifi_BLE_SDK/GD32VW55x_RELEASE_V1.0.2/MSDK/lwip/libcoap-4.3.4/src\coap_option.c ****       oi->length -= optsize;
 180:C:/Users/stapi/OneDrive/Desktop/GD32VW553/V1_MQTT_OK/GD32VW55X_Wifi_BLE_SDK/GD32VW55x_RELEASE_V1.0.2/MSDK/lwip/libcoap-4.3.4/src\coap_option.c **** 
 181:C:/Users/stapi/OneDrive/Desktop/GD32VW553/V1_MQTT_OK/GD32VW55X_Wifi_BLE_SDK/GD32VW55x_RELEASE_V1.0.2/MSDK/lwip/libcoap-4.3.4/src\coap_option.c ****       oi->number += option.delta;
 182:C:/Users/stapi/OneDrive/Desktop/GD32VW553/V1_MQTT_OK/GD32VW55X_Wifi_BLE_SDK/GD32VW55x_RELEASE_V1.0.2/MSDK/lwip/libcoap-4.3.4/src\coap_option.c ****     } else {                        /* current option is malformed */
 183:C:/Users/stapi/OneDrive/Desktop/GD32VW553/V1_MQTT_OK/GD32VW55X_Wifi_BLE_SDK/GD32VW55x_RELEASE_V1.0.2/MSDK/lwip/libcoap-4.3.4/src\coap_option.c ****       oi->bad = 1;
 184:C:/Users/stapi/OneDrive/Desktop/GD32VW553/V1_MQTT_OK/GD32VW55X_Wifi_BLE_SDK/GD32VW55x_RELEASE_V1.0.2/MSDK/lwip/libcoap-4.3.4/src\coap_option.c ****       return NULL;
 185:C:/Users/stapi/OneDrive/Desktop/GD32VW553/V1_MQTT_OK/GD32VW55X_Wifi_BLE_SDK/GD32VW55x_RELEASE_V1.0.2/MSDK/lwip/libcoap-4.3.4/src\coap_option.c ****     }
 186:C:/Users/stapi/OneDrive/Desktop/GD32VW553/V1_MQTT_OK/GD32VW55X_Wifi_BLE_SDK/GD32VW55x_RELEASE_V1.0.2/MSDK/lwip/libcoap-4.3.4/src\coap_option.c **** 
 187:C:/Users/stapi/OneDrive/Desktop/GD32VW553/V1_MQTT_OK/GD32VW55X_Wifi_BLE_SDK/GD32VW55x_RELEASE_V1.0.2/MSDK/lwip/libcoap-4.3.4/src\coap_option.c ****     /* Exit the while loop when:
 188:C:/Users/stapi/OneDrive/Desktop/GD32VW553/V1_MQTT_OK/GD32VW55X_Wifi_BLE_SDK/GD32VW55x_RELEASE_V1.0.2/MSDK/lwip/libcoap-4.3.4/src\coap_option.c ****      *   - no filtering is done at all
 189:C:/Users/stapi/OneDrive/Desktop/GD32VW553/V1_MQTT_OK/GD32VW55X_Wifi_BLE_SDK/GD32VW55x_RELEASE_V1.0.2/MSDK/lwip/libcoap-4.3.4/src\coap_option.c ****      *   - the filter matches for the current option
 190:C:/Users/stapi/OneDrive/Desktop/GD32VW553/V1_MQTT_OK/GD32VW55X_Wifi_BLE_SDK/GD32VW55x_RELEASE_V1.0.2/MSDK/lwip/libcoap-4.3.4/src\coap_option.c ****      */
 191:C:/Users/stapi/OneDrive/Desktop/GD32VW553/V1_MQTT_OK/GD32VW55X_Wifi_BLE_SDK/GD32VW55x_RELEASE_V1.0.2/MSDK/lwip/libcoap-4.3.4/src\coap_option.c ****     if (!oi->filtered ||
 192:C:/Users/stapi/OneDrive/Desktop/GD32VW553/V1_MQTT_OK/GD32VW55X_Wifi_BLE_SDK/GD32VW55x_RELEASE_V1.0.2/MSDK/lwip/libcoap-4.3.4/src\coap_option.c ****         coap_option_filter_get(&oi->filter, oi->number) > 0)
 193:C:/Users/stapi/OneDrive/Desktop/GD32VW553/V1_MQTT_OK/GD32VW55X_Wifi_BLE_SDK/GD32VW55x_RELEASE_V1.0.2/MSDK/lwip/libcoap-4.3.4/src\coap_option.c ****       break;
 194:C:/Users/stapi/OneDrive/Desktop/GD32VW553/V1_MQTT_OK/GD32VW55X_Wifi_BLE_SDK/GD32VW55x_RELEASE_V1.0.2/MSDK/lwip/libcoap-4.3.4/src\coap_option.c ****   }
 195:C:/Users/stapi/OneDrive/Desktop/GD32VW553/V1_MQTT_OK/GD32VW55X_Wifi_BLE_SDK/GD32VW55x_RELEASE_V1.0.2/MSDK/lwip/libcoap-4.3.4/src\coap_option.c **** 
 196:C:/Users/stapi/OneDrive/Desktop/GD32VW553/V1_MQTT_OK/GD32VW55X_Wifi_BLE_SDK/GD32VW55x_RELEASE_V1.0.2/MSDK/lwip/libcoap-4.3.4/src\coap_option.c ****   return current_opt;
 197:C:/Users/stapi/OneDrive/Desktop/GD32VW553/V1_MQTT_OK/GD32VW55X_Wifi_BLE_SDK/GD32VW55x_RELEASE_V1.0.2/MSDK/lwip/libcoap-4.3.4/src\coap_option.c **** }
 198:C:/Users/stapi/OneDrive/Desktop/GD32VW553/V1_MQTT_OK/GD32VW55X_Wifi_BLE_SDK/GD32VW55x_RELEASE_V1.0.2/MSDK/lwip/libcoap-4.3.4/src\coap_option.c **** 
 199:C:/Users/stapi/OneDrive/Desktop/GD32VW553/V1_MQTT_OK/GD32VW55X_Wifi_BLE_SDK/GD32VW55x_RELEASE_V1.0.2/MSDK/lwip/libcoap-4.3.4/src\coap_option.c **** coap_opt_t *
 200:C:/Users/stapi/OneDrive/Desktop/GD32VW553/V1_MQTT_OK/GD32VW55X_Wifi_BLE_SDK/GD32VW55x_RELEASE_V1.0.2/MSDK/lwip/libcoap-4.3.4/src\coap_option.c **** coap_check_option(const coap_pdu_t *pdu, coap_option_num_t number,
 201:C:/Users/stapi/OneDrive/Desktop/GD32VW553/V1_MQTT_OK/GD32VW55X_Wifi_BLE_SDK/GD32VW55x_RELEASE_V1.0.2/MSDK/lwip/libcoap-4.3.4/src\coap_option.c ****                   coap_opt_iterator_t *oi) {
 202:C:/Users/stapi/OneDrive/Desktop/GD32VW553/V1_MQTT_OK/GD32VW55X_Wifi_BLE_SDK/GD32VW55x_RELEASE_V1.0.2/MSDK/lwip/libcoap-4.3.4/src\coap_option.c ****   coap_opt_filter_t f;
 203:C:/Users/stapi/OneDrive/Desktop/GD32VW553/V1_MQTT_OK/GD32VW55X_Wifi_BLE_SDK/GD32VW55x_RELEASE_V1.0.2/MSDK/lwip/libcoap-4.3.4/src\coap_option.c **** 
 204:C:/Users/stapi/OneDrive/Desktop/GD32VW553/V1_MQTT_OK/GD32VW55X_Wifi_BLE_SDK/GD32VW55x_RELEASE_V1.0.2/MSDK/lwip/libcoap-4.3.4/src\coap_option.c ****   coap_option_filter_clear(&f);
 205:C:/Users/stapi/OneDrive/Desktop/GD32VW553/V1_MQTT_OK/GD32VW55X_Wifi_BLE_SDK/GD32VW55x_RELEASE_V1.0.2/MSDK/lwip/libcoap-4.3.4/src\coap_option.c ****   coap_option_filter_set(&f, number);
 206:C:/Users/stapi/OneDrive/Desktop/GD32VW553/V1_MQTT_OK/GD32VW55X_Wifi_BLE_SDK/GD32VW55x_RELEASE_V1.0.2/MSDK/lwip/libcoap-4.3.4/src\coap_option.c **** 
 207:C:/Users/stapi/OneDrive/Desktop/GD32VW553/V1_MQTT_OK/GD32VW55X_Wifi_BLE_SDK/GD32VW55x_RELEASE_V1.0.2/MSDK/lwip/libcoap-4.3.4/src\coap_option.c ****   coap_option_iterator_init(pdu, oi, &f);
 208:C:/Users/stapi/OneDrive/Desktop/GD32VW553/V1_MQTT_OK/GD32VW55X_Wifi_BLE_SDK/GD32VW55x_RELEASE_V1.0.2/MSDK/lwip/libcoap-4.3.4/src\coap_option.c **** 
 209:C:/Users/stapi/OneDrive/Desktop/GD32VW553/V1_MQTT_OK/GD32VW55X_Wifi_BLE_SDK/GD32VW55x_RELEASE_V1.0.2/MSDK/lwip/libcoap-4.3.4/src\coap_option.c ****   return coap_option_next(oi);
 210:C:/Users/stapi/OneDrive/Desktop/GD32VW553/V1_MQTT_OK/GD32VW55X_Wifi_BLE_SDK/GD32VW55x_RELEASE_V1.0.2/MSDK/lwip/libcoap-4.3.4/src\coap_option.c **** }
 211:C:/Users/stapi/OneDrive/Desktop/GD32VW553/V1_MQTT_OK/GD32VW55X_Wifi_BLE_SDK/GD32VW55x_RELEASE_V1.0.2/MSDK/lwip/libcoap-4.3.4/src\coap_option.c **** 
 212:C:/Users/stapi/OneDrive/Desktop/GD32VW553/V1_MQTT_OK/GD32VW55X_Wifi_BLE_SDK/GD32VW55x_RELEASE_V1.0.2/MSDK/lwip/libcoap-4.3.4/src\coap_option.c **** uint32_t
 213:C:/Users/stapi/OneDrive/Desktop/GD32VW553/V1_MQTT_OK/GD32VW55X_Wifi_BLE_SDK/GD32VW55x_RELEASE_V1.0.2/MSDK/lwip/libcoap-4.3.4/src\coap_option.c **** coap_opt_length(const coap_opt_t *opt) {
 214:C:/Users/stapi/OneDrive/Desktop/GD32VW553/V1_MQTT_OK/GD32VW55X_Wifi_BLE_SDK/GD32VW55x_RELEASE_V1.0.2/MSDK/lwip/libcoap-4.3.4/src\coap_option.c ****   uint32_t length;
 215:C:/Users/stapi/OneDrive/Desktop/GD32VW553/V1_MQTT_OK/GD32VW55X_Wifi_BLE_SDK/GD32VW55x_RELEASE_V1.0.2/MSDK/lwip/libcoap-4.3.4/src\coap_option.c **** 
 216:C:/Users/stapi/OneDrive/Desktop/GD32VW553/V1_MQTT_OK/GD32VW55X_Wifi_BLE_SDK/GD32VW55x_RELEASE_V1.0.2/MSDK/lwip/libcoap-4.3.4/src\coap_option.c ****   length = *opt & 0x0f;
 217:C:/Users/stapi/OneDrive/Desktop/GD32VW553/V1_MQTT_OK/GD32VW55X_Wifi_BLE_SDK/GD32VW55x_RELEASE_V1.0.2/MSDK/lwip/libcoap-4.3.4/src\coap_option.c ****   switch (*opt & 0xf0) {
 218:C:/Users/stapi/OneDrive/Desktop/GD32VW553/V1_MQTT_OK/GD32VW55X_Wifi_BLE_SDK/GD32VW55x_RELEASE_V1.0.2/MSDK/lwip/libcoap-4.3.4/src\coap_option.c ****   case 0xf0:
 219:C:/Users/stapi/OneDrive/Desktop/GD32VW553/V1_MQTT_OK/GD32VW55X_Wifi_BLE_SDK/GD32VW55x_RELEASE_V1.0.2/MSDK/lwip/libcoap-4.3.4/src\coap_option.c ****     coap_log_debug("illegal option delta\n");
 220:C:/Users/stapi/OneDrive/Desktop/GD32VW553/V1_MQTT_OK/GD32VW55X_Wifi_BLE_SDK/GD32VW55x_RELEASE_V1.0.2/MSDK/lwip/libcoap-4.3.4/src\coap_option.c ****     return 0;
 221:C:/Users/stapi/OneDrive/Desktop/GD32VW553/V1_MQTT_OK/GD32VW55X_Wifi_BLE_SDK/GD32VW55x_RELEASE_V1.0.2/MSDK/lwip/libcoap-4.3.4/src\coap_option.c ****   case 0xe0:
 222:C:/Users/stapi/OneDrive/Desktop/GD32VW553/V1_MQTT_OK/GD32VW55X_Wifi_BLE_SDK/GD32VW55x_RELEASE_V1.0.2/MSDK/lwip/libcoap-4.3.4/src\coap_option.c ****     ++opt;
 223:C:/Users/stapi/OneDrive/Desktop/GD32VW553/V1_MQTT_OK/GD32VW55X_Wifi_BLE_SDK/GD32VW55x_RELEASE_V1.0.2/MSDK/lwip/libcoap-4.3.4/src\coap_option.c ****   /* fall through */
 224:C:/Users/stapi/OneDrive/Desktop/GD32VW553/V1_MQTT_OK/GD32VW55X_Wifi_BLE_SDK/GD32VW55x_RELEASE_V1.0.2/MSDK/lwip/libcoap-4.3.4/src\coap_option.c ****   /* to skip another byte */
 225:C:/Users/stapi/OneDrive/Desktop/GD32VW553/V1_MQTT_OK/GD32VW55X_Wifi_BLE_SDK/GD32VW55x_RELEASE_V1.0.2/MSDK/lwip/libcoap-4.3.4/src\coap_option.c ****   case 0xd0:
 226:C:/Users/stapi/OneDrive/Desktop/GD32VW553/V1_MQTT_OK/GD32VW55X_Wifi_BLE_SDK/GD32VW55x_RELEASE_V1.0.2/MSDK/lwip/libcoap-4.3.4/src\coap_option.c ****     ++opt;
 227:C:/Users/stapi/OneDrive/Desktop/GD32VW553/V1_MQTT_OK/GD32VW55X_Wifi_BLE_SDK/GD32VW55x_RELEASE_V1.0.2/MSDK/lwip/libcoap-4.3.4/src\coap_option.c ****   /* fall through */
 228:C:/Users/stapi/OneDrive/Desktop/GD32VW553/V1_MQTT_OK/GD32VW55X_Wifi_BLE_SDK/GD32VW55x_RELEASE_V1.0.2/MSDK/lwip/libcoap-4.3.4/src\coap_option.c ****   /* to skip another byte */
 229:C:/Users/stapi/OneDrive/Desktop/GD32VW553/V1_MQTT_OK/GD32VW55X_Wifi_BLE_SDK/GD32VW55x_RELEASE_V1.0.2/MSDK/lwip/libcoap-4.3.4/src\coap_option.c ****   default:
 230:C:/Users/stapi/OneDrive/Desktop/GD32VW553/V1_MQTT_OK/GD32VW55X_Wifi_BLE_SDK/GD32VW55x_RELEASE_V1.0.2/MSDK/lwip/libcoap-4.3.4/src\coap_option.c ****     ++opt;
 231:C:/Users/stapi/OneDrive/Desktop/GD32VW553/V1_MQTT_OK/GD32VW55X_Wifi_BLE_SDK/GD32VW55x_RELEASE_V1.0.2/MSDK/lwip/libcoap-4.3.4/src\coap_option.c ****   }
 232:C:/Users/stapi/OneDrive/Desktop/GD32VW553/V1_MQTT_OK/GD32VW55X_Wifi_BLE_SDK/GD32VW55x_RELEASE_V1.0.2/MSDK/lwip/libcoap-4.3.4/src\coap_option.c **** 
 233:C:/Users/stapi/OneDrive/Desktop/GD32VW553/V1_MQTT_OK/GD32VW55X_Wifi_BLE_SDK/GD32VW55x_RELEASE_V1.0.2/MSDK/lwip/libcoap-4.3.4/src\coap_option.c ****   switch (length) {
 234:C:/Users/stapi/OneDrive/Desktop/GD32VW553/V1_MQTT_OK/GD32VW55X_Wifi_BLE_SDK/GD32VW55x_RELEASE_V1.0.2/MSDK/lwip/libcoap-4.3.4/src\coap_option.c ****   case 0x0f:
 235:C:/Users/stapi/OneDrive/Desktop/GD32VW553/V1_MQTT_OK/GD32VW55X_Wifi_BLE_SDK/GD32VW55x_RELEASE_V1.0.2/MSDK/lwip/libcoap-4.3.4/src\coap_option.c ****     coap_log_debug("illegal option length\n");
 236:C:/Users/stapi/OneDrive/Desktop/GD32VW553/V1_MQTT_OK/GD32VW55X_Wifi_BLE_SDK/GD32VW55x_RELEASE_V1.0.2/MSDK/lwip/libcoap-4.3.4/src\coap_option.c ****     return 0;
 237:C:/Users/stapi/OneDrive/Desktop/GD32VW553/V1_MQTT_OK/GD32VW55X_Wifi_BLE_SDK/GD32VW55x_RELEASE_V1.0.2/MSDK/lwip/libcoap-4.3.4/src\coap_option.c ****   case 0x0e:
 238:C:/Users/stapi/OneDrive/Desktop/GD32VW553/V1_MQTT_OK/GD32VW55X_Wifi_BLE_SDK/GD32VW55x_RELEASE_V1.0.2/MSDK/lwip/libcoap-4.3.4/src\coap_option.c ****     length = (*opt++ << 8) + 269;
 239:C:/Users/stapi/OneDrive/Desktop/GD32VW553/V1_MQTT_OK/GD32VW55X_Wifi_BLE_SDK/GD32VW55x_RELEASE_V1.0.2/MSDK/lwip/libcoap-4.3.4/src\coap_option.c ****   /* fall through */
 240:C:/Users/stapi/OneDrive/Desktop/GD32VW553/V1_MQTT_OK/GD32VW55X_Wifi_BLE_SDK/GD32VW55x_RELEASE_V1.0.2/MSDK/lwip/libcoap-4.3.4/src\coap_option.c ****   case 0x0d:
 241:C:/Users/stapi/OneDrive/Desktop/GD32VW553/V1_MQTT_OK/GD32VW55X_Wifi_BLE_SDK/GD32VW55x_RELEASE_V1.0.2/MSDK/lwip/libcoap-4.3.4/src\coap_option.c ****     length += *opt++;
 242:C:/Users/stapi/OneDrive/Desktop/GD32VW553/V1_MQTT_OK/GD32VW55X_Wifi_BLE_SDK/GD32VW55x_RELEASE_V1.0.2/MSDK/lwip/libcoap-4.3.4/src\coap_option.c ****     break;
 243:C:/Users/stapi/OneDrive/Desktop/GD32VW553/V1_MQTT_OK/GD32VW55X_Wifi_BLE_SDK/GD32VW55x_RELEASE_V1.0.2/MSDK/lwip/libcoap-4.3.4/src\coap_option.c ****   default:
 244:C:/Users/stapi/OneDrive/Desktop/GD32VW553/V1_MQTT_OK/GD32VW55X_Wifi_BLE_SDK/GD32VW55x_RELEASE_V1.0.2/MSDK/lwip/libcoap-4.3.4/src\coap_option.c ****     ;
 245:C:/Users/stapi/OneDrive/Desktop/GD32VW553/V1_MQTT_OK/GD32VW55X_Wifi_BLE_SDK/GD32VW55x_RELEASE_V1.0.2/MSDK/lwip/libcoap-4.3.4/src\coap_option.c ****   }
 246:C:/Users/stapi/OneDrive/Desktop/GD32VW553/V1_MQTT_OK/GD32VW55X_Wifi_BLE_SDK/GD32VW55x_RELEASE_V1.0.2/MSDK/lwip/libcoap-4.3.4/src\coap_option.c ****   return length;
 247:C:/Users/stapi/OneDrive/Desktop/GD32VW553/V1_MQTT_OK/GD32VW55X_Wifi_BLE_SDK/GD32VW55x_RELEASE_V1.0.2/MSDK/lwip/libcoap-4.3.4/src\coap_option.c **** }
 248:C:/Users/stapi/OneDrive/Desktop/GD32VW553/V1_MQTT_OK/GD32VW55X_Wifi_BLE_SDK/GD32VW55x_RELEASE_V1.0.2/MSDK/lwip/libcoap-4.3.4/src\coap_option.c **** 
 249:C:/Users/stapi/OneDrive/Desktop/GD32VW553/V1_MQTT_OK/GD32VW55X_Wifi_BLE_SDK/GD32VW55x_RELEASE_V1.0.2/MSDK/lwip/libcoap-4.3.4/src\coap_option.c **** const uint8_t *
 250:C:/Users/stapi/OneDrive/Desktop/GD32VW553/V1_MQTT_OK/GD32VW55X_Wifi_BLE_SDK/GD32VW55x_RELEASE_V1.0.2/MSDK/lwip/libcoap-4.3.4/src\coap_option.c **** coap_opt_value(const coap_opt_t *opt) {
 251:C:/Users/stapi/OneDrive/Desktop/GD32VW553/V1_MQTT_OK/GD32VW55X_Wifi_BLE_SDK/GD32VW55x_RELEASE_V1.0.2/MSDK/lwip/libcoap-4.3.4/src\coap_option.c ****   size_t ofs = 1;
 252:C:/Users/stapi/OneDrive/Desktop/GD32VW553/V1_MQTT_OK/GD32VW55X_Wifi_BLE_SDK/GD32VW55x_RELEASE_V1.0.2/MSDK/lwip/libcoap-4.3.4/src\coap_option.c **** 
 253:C:/Users/stapi/OneDrive/Desktop/GD32VW553/V1_MQTT_OK/GD32VW55X_Wifi_BLE_SDK/GD32VW55x_RELEASE_V1.0.2/MSDK/lwip/libcoap-4.3.4/src\coap_option.c ****   switch (*opt & 0xf0) {
 254:C:/Users/stapi/OneDrive/Desktop/GD32VW553/V1_MQTT_OK/GD32VW55X_Wifi_BLE_SDK/GD32VW55x_RELEASE_V1.0.2/MSDK/lwip/libcoap-4.3.4/src\coap_option.c ****   case 0xf0:
 255:C:/Users/stapi/OneDrive/Desktop/GD32VW553/V1_MQTT_OK/GD32VW55X_Wifi_BLE_SDK/GD32VW55x_RELEASE_V1.0.2/MSDK/lwip/libcoap-4.3.4/src\coap_option.c ****     coap_log_debug("illegal option delta\n");
 256:C:/Users/stapi/OneDrive/Desktop/GD32VW553/V1_MQTT_OK/GD32VW55X_Wifi_BLE_SDK/GD32VW55x_RELEASE_V1.0.2/MSDK/lwip/libcoap-4.3.4/src\coap_option.c ****     return 0;
 257:C:/Users/stapi/OneDrive/Desktop/GD32VW553/V1_MQTT_OK/GD32VW55X_Wifi_BLE_SDK/GD32VW55x_RELEASE_V1.0.2/MSDK/lwip/libcoap-4.3.4/src\coap_option.c ****   case 0xe0:
 258:C:/Users/stapi/OneDrive/Desktop/GD32VW553/V1_MQTT_OK/GD32VW55X_Wifi_BLE_SDK/GD32VW55x_RELEASE_V1.0.2/MSDK/lwip/libcoap-4.3.4/src\coap_option.c ****     ++ofs;
 259:C:/Users/stapi/OneDrive/Desktop/GD32VW553/V1_MQTT_OK/GD32VW55X_Wifi_BLE_SDK/GD32VW55x_RELEASE_V1.0.2/MSDK/lwip/libcoap-4.3.4/src\coap_option.c ****   /* fall through */
 260:C:/Users/stapi/OneDrive/Desktop/GD32VW553/V1_MQTT_OK/GD32VW55X_Wifi_BLE_SDK/GD32VW55x_RELEASE_V1.0.2/MSDK/lwip/libcoap-4.3.4/src\coap_option.c ****   case 0xd0:
 261:C:/Users/stapi/OneDrive/Desktop/GD32VW553/V1_MQTT_OK/GD32VW55X_Wifi_BLE_SDK/GD32VW55x_RELEASE_V1.0.2/MSDK/lwip/libcoap-4.3.4/src\coap_option.c ****     ++ofs;
 262:C:/Users/stapi/OneDrive/Desktop/GD32VW553/V1_MQTT_OK/GD32VW55X_Wifi_BLE_SDK/GD32VW55x_RELEASE_V1.0.2/MSDK/lwip/libcoap-4.3.4/src\coap_option.c ****     break;
 263:C:/Users/stapi/OneDrive/Desktop/GD32VW553/V1_MQTT_OK/GD32VW55X_Wifi_BLE_SDK/GD32VW55x_RELEASE_V1.0.2/MSDK/lwip/libcoap-4.3.4/src\coap_option.c ****   default:
 264:C:/Users/stapi/OneDrive/Desktop/GD32VW553/V1_MQTT_OK/GD32VW55X_Wifi_BLE_SDK/GD32VW55x_RELEASE_V1.0.2/MSDK/lwip/libcoap-4.3.4/src\coap_option.c ****     ;
 265:C:/Users/stapi/OneDrive/Desktop/GD32VW553/V1_MQTT_OK/GD32VW55X_Wifi_BLE_SDK/GD32VW55x_RELEASE_V1.0.2/MSDK/lwip/libcoap-4.3.4/src\coap_option.c ****   }
 266:C:/Users/stapi/OneDrive/Desktop/GD32VW553/V1_MQTT_OK/GD32VW55X_Wifi_BLE_SDK/GD32VW55x_RELEASE_V1.0.2/MSDK/lwip/libcoap-4.3.4/src\coap_option.c **** 
 267:C:/Users/stapi/OneDrive/Desktop/GD32VW553/V1_MQTT_OK/GD32VW55X_Wifi_BLE_SDK/GD32VW55x_RELEASE_V1.0.2/MSDK/lwip/libcoap-4.3.4/src\coap_option.c ****   switch (*opt & 0x0f) {
 268:C:/Users/stapi/OneDrive/Desktop/GD32VW553/V1_MQTT_OK/GD32VW55X_Wifi_BLE_SDK/GD32VW55x_RELEASE_V1.0.2/MSDK/lwip/libcoap-4.3.4/src\coap_option.c ****   case 0x0f:
 269:C:/Users/stapi/OneDrive/Desktop/GD32VW553/V1_MQTT_OK/GD32VW55X_Wifi_BLE_SDK/GD32VW55x_RELEASE_V1.0.2/MSDK/lwip/libcoap-4.3.4/src\coap_option.c ****     coap_log_debug("illegal option length\n");
 270:C:/Users/stapi/OneDrive/Desktop/GD32VW553/V1_MQTT_OK/GD32VW55X_Wifi_BLE_SDK/GD32VW55x_RELEASE_V1.0.2/MSDK/lwip/libcoap-4.3.4/src\coap_option.c ****     return 0;
 271:C:/Users/stapi/OneDrive/Desktop/GD32VW553/V1_MQTT_OK/GD32VW55X_Wifi_BLE_SDK/GD32VW55x_RELEASE_V1.0.2/MSDK/lwip/libcoap-4.3.4/src\coap_option.c ****   case 0x0e:
 272:C:/Users/stapi/OneDrive/Desktop/GD32VW553/V1_MQTT_OK/GD32VW55X_Wifi_BLE_SDK/GD32VW55x_RELEASE_V1.0.2/MSDK/lwip/libcoap-4.3.4/src\coap_option.c ****     ++ofs;
 273:C:/Users/stapi/OneDrive/Desktop/GD32VW553/V1_MQTT_OK/GD32VW55X_Wifi_BLE_SDK/GD32VW55x_RELEASE_V1.0.2/MSDK/lwip/libcoap-4.3.4/src\coap_option.c ****   /* fall through */
 274:C:/Users/stapi/OneDrive/Desktop/GD32VW553/V1_MQTT_OK/GD32VW55X_Wifi_BLE_SDK/GD32VW55x_RELEASE_V1.0.2/MSDK/lwip/libcoap-4.3.4/src\coap_option.c ****   case 0x0d:
 275:C:/Users/stapi/OneDrive/Desktop/GD32VW553/V1_MQTT_OK/GD32VW55X_Wifi_BLE_SDK/GD32VW55x_RELEASE_V1.0.2/MSDK/lwip/libcoap-4.3.4/src\coap_option.c ****     ++ofs;
 276:C:/Users/stapi/OneDrive/Desktop/GD32VW553/V1_MQTT_OK/GD32VW55X_Wifi_BLE_SDK/GD32VW55x_RELEASE_V1.0.2/MSDK/lwip/libcoap-4.3.4/src\coap_option.c ****     break;
 277:C:/Users/stapi/OneDrive/Desktop/GD32VW553/V1_MQTT_OK/GD32VW55X_Wifi_BLE_SDK/GD32VW55x_RELEASE_V1.0.2/MSDK/lwip/libcoap-4.3.4/src\coap_option.c ****   default:
 278:C:/Users/stapi/OneDrive/Desktop/GD32VW553/V1_MQTT_OK/GD32VW55X_Wifi_BLE_SDK/GD32VW55x_RELEASE_V1.0.2/MSDK/lwip/libcoap-4.3.4/src\coap_option.c ****     ;
 279:C:/Users/stapi/OneDrive/Desktop/GD32VW553/V1_MQTT_OK/GD32VW55X_Wifi_BLE_SDK/GD32VW55x_RELEASE_V1.0.2/MSDK/lwip/libcoap-4.3.4/src\coap_option.c ****   }
 280:C:/Users/stapi/OneDrive/Desktop/GD32VW553/V1_MQTT_OK/GD32VW55X_Wifi_BLE_SDK/GD32VW55x_RELEASE_V1.0.2/MSDK/lwip/libcoap-4.3.4/src\coap_option.c **** 
 281:C:/Users/stapi/OneDrive/Desktop/GD32VW553/V1_MQTT_OK/GD32VW55X_Wifi_BLE_SDK/GD32VW55x_RELEASE_V1.0.2/MSDK/lwip/libcoap-4.3.4/src\coap_option.c ****   return (const uint8_t *)opt + ofs;
 282:C:/Users/stapi/OneDrive/Desktop/GD32VW553/V1_MQTT_OK/GD32VW55X_Wifi_BLE_SDK/GD32VW55x_RELEASE_V1.0.2/MSDK/lwip/libcoap-4.3.4/src\coap_option.c **** }
 283:C:/Users/stapi/OneDrive/Desktop/GD32VW553/V1_MQTT_OK/GD32VW55X_Wifi_BLE_SDK/GD32VW55x_RELEASE_V1.0.2/MSDK/lwip/libcoap-4.3.4/src\coap_option.c **** 
 284:C:/Users/stapi/OneDrive/Desktop/GD32VW553/V1_MQTT_OK/GD32VW55X_Wifi_BLE_SDK/GD32VW55x_RELEASE_V1.0.2/MSDK/lwip/libcoap-4.3.4/src\coap_option.c **** size_t
 285:C:/Users/stapi/OneDrive/Desktop/GD32VW553/V1_MQTT_OK/GD32VW55X_Wifi_BLE_SDK/GD32VW55x_RELEASE_V1.0.2/MSDK/lwip/libcoap-4.3.4/src\coap_option.c **** coap_opt_size(const coap_opt_t *opt) {
 286:C:/Users/stapi/OneDrive/Desktop/GD32VW553/V1_MQTT_OK/GD32VW55X_Wifi_BLE_SDK/GD32VW55x_RELEASE_V1.0.2/MSDK/lwip/libcoap-4.3.4/src\coap_option.c ****   coap_option_t option;
 287:C:/Users/stapi/OneDrive/Desktop/GD32VW553/V1_MQTT_OK/GD32VW55X_Wifi_BLE_SDK/GD32VW55x_RELEASE_V1.0.2/MSDK/lwip/libcoap-4.3.4/src\coap_option.c **** 
 288:C:/Users/stapi/OneDrive/Desktop/GD32VW553/V1_MQTT_OK/GD32VW55X_Wifi_BLE_SDK/GD32VW55x_RELEASE_V1.0.2/MSDK/lwip/libcoap-4.3.4/src\coap_option.c ****   /* we must assume that opt is encoded correctly */
 289:C:/Users/stapi/OneDrive/Desktop/GD32VW553/V1_MQTT_OK/GD32VW55X_Wifi_BLE_SDK/GD32VW55x_RELEASE_V1.0.2/MSDK/lwip/libcoap-4.3.4/src\coap_option.c ****   return coap_opt_parse(opt, (size_t)-1, &option);
 290:C:/Users/stapi/OneDrive/Desktop/GD32VW553/V1_MQTT_OK/GD32VW55X_Wifi_BLE_SDK/GD32VW55x_RELEASE_V1.0.2/MSDK/lwip/libcoap-4.3.4/src\coap_option.c **** }
 291:C:/Users/stapi/OneDrive/Desktop/GD32VW553/V1_MQTT_OK/GD32VW55X_Wifi_BLE_SDK/GD32VW55x_RELEASE_V1.0.2/MSDK/lwip/libcoap-4.3.4/src\coap_option.c **** 
 292:C:/Users/stapi/OneDrive/Desktop/GD32VW553/V1_MQTT_OK/GD32VW55X_Wifi_BLE_SDK/GD32VW55x_RELEASE_V1.0.2/MSDK/lwip/libcoap-4.3.4/src\coap_option.c **** size_t
 293:C:/Users/stapi/OneDrive/Desktop/GD32VW553/V1_MQTT_OK/GD32VW55X_Wifi_BLE_SDK/GD32VW55x_RELEASE_V1.0.2/MSDK/lwip/libcoap-4.3.4/src\coap_option.c **** coap_opt_setheader(coap_opt_t *opt, size_t maxlen,
 294:C:/Users/stapi/OneDrive/Desktop/GD32VW553/V1_MQTT_OK/GD32VW55X_Wifi_BLE_SDK/GD32VW55x_RELEASE_V1.0.2/MSDK/lwip/libcoap-4.3.4/src\coap_option.c ****                    uint16_t delta, size_t length) {
 295:C:/Users/stapi/OneDrive/Desktop/GD32VW553/V1_MQTT_OK/GD32VW55X_Wifi_BLE_SDK/GD32VW55x_RELEASE_V1.0.2/MSDK/lwip/libcoap-4.3.4/src\coap_option.c ****   size_t skip = 0;
 296:C:/Users/stapi/OneDrive/Desktop/GD32VW553/V1_MQTT_OK/GD32VW55X_Wifi_BLE_SDK/GD32VW55x_RELEASE_V1.0.2/MSDK/lwip/libcoap-4.3.4/src\coap_option.c **** 
 297:C:/Users/stapi/OneDrive/Desktop/GD32VW553/V1_MQTT_OK/GD32VW55X_Wifi_BLE_SDK/GD32VW55x_RELEASE_V1.0.2/MSDK/lwip/libcoap-4.3.4/src\coap_option.c ****   assert(opt);
 298:C:/Users/stapi/OneDrive/Desktop/GD32VW553/V1_MQTT_OK/GD32VW55X_Wifi_BLE_SDK/GD32VW55x_RELEASE_V1.0.2/MSDK/lwip/libcoap-4.3.4/src\coap_option.c **** 
 299:C:/Users/stapi/OneDrive/Desktop/GD32VW553/V1_MQTT_OK/GD32VW55X_Wifi_BLE_SDK/GD32VW55x_RELEASE_V1.0.2/MSDK/lwip/libcoap-4.3.4/src\coap_option.c ****   if (maxlen == 0)                /* need at least one byte */
 300:C:/Users/stapi/OneDrive/Desktop/GD32VW553/V1_MQTT_OK/GD32VW55X_Wifi_BLE_SDK/GD32VW55x_RELEASE_V1.0.2/MSDK/lwip/libcoap-4.3.4/src\coap_option.c ****     return 0;
 301:C:/Users/stapi/OneDrive/Desktop/GD32VW553/V1_MQTT_OK/GD32VW55X_Wifi_BLE_SDK/GD32VW55x_RELEASE_V1.0.2/MSDK/lwip/libcoap-4.3.4/src\coap_option.c **** 
 302:C:/Users/stapi/OneDrive/Desktop/GD32VW553/V1_MQTT_OK/GD32VW55X_Wifi_BLE_SDK/GD32VW55x_RELEASE_V1.0.2/MSDK/lwip/libcoap-4.3.4/src\coap_option.c ****   if (delta < 13) {
 303:C:/Users/stapi/OneDrive/Desktop/GD32VW553/V1_MQTT_OK/GD32VW55X_Wifi_BLE_SDK/GD32VW55x_RELEASE_V1.0.2/MSDK/lwip/libcoap-4.3.4/src\coap_option.c ****     opt[0] = (coap_opt_t)(delta << 4);
 304:C:/Users/stapi/OneDrive/Desktop/GD32VW553/V1_MQTT_OK/GD32VW55X_Wifi_BLE_SDK/GD32VW55x_RELEASE_V1.0.2/MSDK/lwip/libcoap-4.3.4/src\coap_option.c ****   } else if (delta < 269) {
 305:C:/Users/stapi/OneDrive/Desktop/GD32VW553/V1_MQTT_OK/GD32VW55X_Wifi_BLE_SDK/GD32VW55x_RELEASE_V1.0.2/MSDK/lwip/libcoap-4.3.4/src\coap_option.c ****     if (maxlen < 2) {
 306:C:/Users/stapi/OneDrive/Desktop/GD32VW553/V1_MQTT_OK/GD32VW55X_Wifi_BLE_SDK/GD32VW55x_RELEASE_V1.0.2/MSDK/lwip/libcoap-4.3.4/src\coap_option.c ****       coap_log_debug("insufficient space to encode option delta %d\n",
 307:C:/Users/stapi/OneDrive/Desktop/GD32VW553/V1_MQTT_OK/GD32VW55X_Wifi_BLE_SDK/GD32VW55x_RELEASE_V1.0.2/MSDK/lwip/libcoap-4.3.4/src\coap_option.c ****                      delta);
 308:C:/Users/stapi/OneDrive/Desktop/GD32VW553/V1_MQTT_OK/GD32VW55X_Wifi_BLE_SDK/GD32VW55x_RELEASE_V1.0.2/MSDK/lwip/libcoap-4.3.4/src\coap_option.c ****       return 0;
 309:C:/Users/stapi/OneDrive/Desktop/GD32VW553/V1_MQTT_OK/GD32VW55X_Wifi_BLE_SDK/GD32VW55x_RELEASE_V1.0.2/MSDK/lwip/libcoap-4.3.4/src\coap_option.c ****     }
 310:C:/Users/stapi/OneDrive/Desktop/GD32VW553/V1_MQTT_OK/GD32VW55X_Wifi_BLE_SDK/GD32VW55x_RELEASE_V1.0.2/MSDK/lwip/libcoap-4.3.4/src\coap_option.c **** 
 311:C:/Users/stapi/OneDrive/Desktop/GD32VW553/V1_MQTT_OK/GD32VW55X_Wifi_BLE_SDK/GD32VW55x_RELEASE_V1.0.2/MSDK/lwip/libcoap-4.3.4/src\coap_option.c ****     opt[0] = 0xd0;
 312:C:/Users/stapi/OneDrive/Desktop/GD32VW553/V1_MQTT_OK/GD32VW55X_Wifi_BLE_SDK/GD32VW55x_RELEASE_V1.0.2/MSDK/lwip/libcoap-4.3.4/src\coap_option.c ****     opt[++skip] = (coap_opt_t)(delta - 13);
 313:C:/Users/stapi/OneDrive/Desktop/GD32VW553/V1_MQTT_OK/GD32VW55X_Wifi_BLE_SDK/GD32VW55x_RELEASE_V1.0.2/MSDK/lwip/libcoap-4.3.4/src\coap_option.c ****   } else {
 314:C:/Users/stapi/OneDrive/Desktop/GD32VW553/V1_MQTT_OK/GD32VW55X_Wifi_BLE_SDK/GD32VW55x_RELEASE_V1.0.2/MSDK/lwip/libcoap-4.3.4/src\coap_option.c ****     if (maxlen < 3) {
 315:C:/Users/stapi/OneDrive/Desktop/GD32VW553/V1_MQTT_OK/GD32VW55X_Wifi_BLE_SDK/GD32VW55x_RELEASE_V1.0.2/MSDK/lwip/libcoap-4.3.4/src\coap_option.c ****       coap_log_debug("insufficient space to encode option delta %d\n",
 316:C:/Users/stapi/OneDrive/Desktop/GD32VW553/V1_MQTT_OK/GD32VW55X_Wifi_BLE_SDK/GD32VW55x_RELEASE_V1.0.2/MSDK/lwip/libcoap-4.3.4/src\coap_option.c ****                      delta);
 317:C:/Users/stapi/OneDrive/Desktop/GD32VW553/V1_MQTT_OK/GD32VW55X_Wifi_BLE_SDK/GD32VW55x_RELEASE_V1.0.2/MSDK/lwip/libcoap-4.3.4/src\coap_option.c ****       return 0;
 318:C:/Users/stapi/OneDrive/Desktop/GD32VW553/V1_MQTT_OK/GD32VW55X_Wifi_BLE_SDK/GD32VW55x_RELEASE_V1.0.2/MSDK/lwip/libcoap-4.3.4/src\coap_option.c ****     }
 319:C:/Users/stapi/OneDrive/Desktop/GD32VW553/V1_MQTT_OK/GD32VW55X_Wifi_BLE_SDK/GD32VW55x_RELEASE_V1.0.2/MSDK/lwip/libcoap-4.3.4/src\coap_option.c **** 
 320:C:/Users/stapi/OneDrive/Desktop/GD32VW553/V1_MQTT_OK/GD32VW55X_Wifi_BLE_SDK/GD32VW55x_RELEASE_V1.0.2/MSDK/lwip/libcoap-4.3.4/src\coap_option.c ****     opt[0] = 0xe0;
 321:C:/Users/stapi/OneDrive/Desktop/GD32VW553/V1_MQTT_OK/GD32VW55X_Wifi_BLE_SDK/GD32VW55x_RELEASE_V1.0.2/MSDK/lwip/libcoap-4.3.4/src\coap_option.c ****     opt[++skip] = ((delta - 269) >> 8) & 0xff;
 322:C:/Users/stapi/OneDrive/Desktop/GD32VW553/V1_MQTT_OK/GD32VW55X_Wifi_BLE_SDK/GD32VW55x_RELEASE_V1.0.2/MSDK/lwip/libcoap-4.3.4/src\coap_option.c ****     opt[++skip] = (delta - 269) & 0xff;
 323:C:/Users/stapi/OneDrive/Desktop/GD32VW553/V1_MQTT_OK/GD32VW55X_Wifi_BLE_SDK/GD32VW55x_RELEASE_V1.0.2/MSDK/lwip/libcoap-4.3.4/src\coap_option.c ****   }
 324:C:/Users/stapi/OneDrive/Desktop/GD32VW553/V1_MQTT_OK/GD32VW55X_Wifi_BLE_SDK/GD32VW55x_RELEASE_V1.0.2/MSDK/lwip/libcoap-4.3.4/src\coap_option.c **** 
 325:C:/Users/stapi/OneDrive/Desktop/GD32VW553/V1_MQTT_OK/GD32VW55X_Wifi_BLE_SDK/GD32VW55x_RELEASE_V1.0.2/MSDK/lwip/libcoap-4.3.4/src\coap_option.c ****   if (length < 13) {
 326:C:/Users/stapi/OneDrive/Desktop/GD32VW553/V1_MQTT_OK/GD32VW55X_Wifi_BLE_SDK/GD32VW55x_RELEASE_V1.0.2/MSDK/lwip/libcoap-4.3.4/src\coap_option.c ****     opt[0] |= length & 0x0f;
 327:C:/Users/stapi/OneDrive/Desktop/GD32VW553/V1_MQTT_OK/GD32VW55X_Wifi_BLE_SDK/GD32VW55x_RELEASE_V1.0.2/MSDK/lwip/libcoap-4.3.4/src\coap_option.c ****   } else if (length < 269) {
 328:C:/Users/stapi/OneDrive/Desktop/GD32VW553/V1_MQTT_OK/GD32VW55X_Wifi_BLE_SDK/GD32VW55x_RELEASE_V1.0.2/MSDK/lwip/libcoap-4.3.4/src\coap_option.c ****     if (maxlen < skip + 2) {
 329:C:/Users/stapi/OneDrive/Desktop/GD32VW553/V1_MQTT_OK/GD32VW55X_Wifi_BLE_SDK/GD32VW55x_RELEASE_V1.0.2/MSDK/lwip/libcoap-4.3.4/src\coap_option.c ****       coap_log_debug("insufficient space to encode option length %zu\n",
 330:C:/Users/stapi/OneDrive/Desktop/GD32VW553/V1_MQTT_OK/GD32VW55X_Wifi_BLE_SDK/GD32VW55x_RELEASE_V1.0.2/MSDK/lwip/libcoap-4.3.4/src\coap_option.c ****                      length);
 331:C:/Users/stapi/OneDrive/Desktop/GD32VW553/V1_MQTT_OK/GD32VW55X_Wifi_BLE_SDK/GD32VW55x_RELEASE_V1.0.2/MSDK/lwip/libcoap-4.3.4/src\coap_option.c ****       return 0;
 332:C:/Users/stapi/OneDrive/Desktop/GD32VW553/V1_MQTT_OK/GD32VW55X_Wifi_BLE_SDK/GD32VW55x_RELEASE_V1.0.2/MSDK/lwip/libcoap-4.3.4/src\coap_option.c ****     }
 333:C:/Users/stapi/OneDrive/Desktop/GD32VW553/V1_MQTT_OK/GD32VW55X_Wifi_BLE_SDK/GD32VW55x_RELEASE_V1.0.2/MSDK/lwip/libcoap-4.3.4/src\coap_option.c **** 
 334:C:/Users/stapi/OneDrive/Desktop/GD32VW553/V1_MQTT_OK/GD32VW55X_Wifi_BLE_SDK/GD32VW55x_RELEASE_V1.0.2/MSDK/lwip/libcoap-4.3.4/src\coap_option.c ****     opt[0] |= 0x0d;
 335:C:/Users/stapi/OneDrive/Desktop/GD32VW553/V1_MQTT_OK/GD32VW55X_Wifi_BLE_SDK/GD32VW55x_RELEASE_V1.0.2/MSDK/lwip/libcoap-4.3.4/src\coap_option.c ****     opt[++skip] = (coap_opt_t)(length - 13);
 336:C:/Users/stapi/OneDrive/Desktop/GD32VW553/V1_MQTT_OK/GD32VW55X_Wifi_BLE_SDK/GD32VW55x_RELEASE_V1.0.2/MSDK/lwip/libcoap-4.3.4/src\coap_option.c ****   } else {
 337:C:/Users/stapi/OneDrive/Desktop/GD32VW553/V1_MQTT_OK/GD32VW55X_Wifi_BLE_SDK/GD32VW55x_RELEASE_V1.0.2/MSDK/lwip/libcoap-4.3.4/src\coap_option.c ****     if (maxlen < skip + 3) {
 338:C:/Users/stapi/OneDrive/Desktop/GD32VW553/V1_MQTT_OK/GD32VW55X_Wifi_BLE_SDK/GD32VW55x_RELEASE_V1.0.2/MSDK/lwip/libcoap-4.3.4/src\coap_option.c ****       coap_log_debug("insufficient space to encode option delta %d\n",
 339:C:/Users/stapi/OneDrive/Desktop/GD32VW553/V1_MQTT_OK/GD32VW55X_Wifi_BLE_SDK/GD32VW55x_RELEASE_V1.0.2/MSDK/lwip/libcoap-4.3.4/src\coap_option.c ****                      delta);
 340:C:/Users/stapi/OneDrive/Desktop/GD32VW553/V1_MQTT_OK/GD32VW55X_Wifi_BLE_SDK/GD32VW55x_RELEASE_V1.0.2/MSDK/lwip/libcoap-4.3.4/src\coap_option.c ****       return 0;
 341:C:/Users/stapi/OneDrive/Desktop/GD32VW553/V1_MQTT_OK/GD32VW55X_Wifi_BLE_SDK/GD32VW55x_RELEASE_V1.0.2/MSDK/lwip/libcoap-4.3.4/src\coap_option.c ****     }
 342:C:/Users/stapi/OneDrive/Desktop/GD32VW553/V1_MQTT_OK/GD32VW55X_Wifi_BLE_SDK/GD32VW55x_RELEASE_V1.0.2/MSDK/lwip/libcoap-4.3.4/src\coap_option.c **** 
 343:C:/Users/stapi/OneDrive/Desktop/GD32VW553/V1_MQTT_OK/GD32VW55X_Wifi_BLE_SDK/GD32VW55x_RELEASE_V1.0.2/MSDK/lwip/libcoap-4.3.4/src\coap_option.c ****     opt[0] |= 0x0e;
 344:C:/Users/stapi/OneDrive/Desktop/GD32VW553/V1_MQTT_OK/GD32VW55X_Wifi_BLE_SDK/GD32VW55x_RELEASE_V1.0.2/MSDK/lwip/libcoap-4.3.4/src\coap_option.c ****     opt[++skip] = ((length - 269) >> 8) & 0xff;
 345:C:/Users/stapi/OneDrive/Desktop/GD32VW553/V1_MQTT_OK/GD32VW55X_Wifi_BLE_SDK/GD32VW55x_RELEASE_V1.0.2/MSDK/lwip/libcoap-4.3.4/src\coap_option.c ****     opt[++skip] = (length - 269) & 0xff;
 346:C:/Users/stapi/OneDrive/Desktop/GD32VW553/V1_MQTT_OK/GD32VW55X_Wifi_BLE_SDK/GD32VW55x_RELEASE_V1.0.2/MSDK/lwip/libcoap-4.3.4/src\coap_option.c ****   }
 347:C:/Users/stapi/OneDrive/Desktop/GD32VW553/V1_MQTT_OK/GD32VW55X_Wifi_BLE_SDK/GD32VW55x_RELEASE_V1.0.2/MSDK/lwip/libcoap-4.3.4/src\coap_option.c **** 
 348:C:/Users/stapi/OneDrive/Desktop/GD32VW553/V1_MQTT_OK/GD32VW55X_Wifi_BLE_SDK/GD32VW55x_RELEASE_V1.0.2/MSDK/lwip/libcoap-4.3.4/src\coap_option.c ****   return skip + 1;
 349:C:/Users/stapi/OneDrive/Desktop/GD32VW553/V1_MQTT_OK/GD32VW55X_Wifi_BLE_SDK/GD32VW55x_RELEASE_V1.0.2/MSDK/lwip/libcoap-4.3.4/src\coap_option.c **** }
 350:C:/Users/stapi/OneDrive/Desktop/GD32VW553/V1_MQTT_OK/GD32VW55X_Wifi_BLE_SDK/GD32VW55x_RELEASE_V1.0.2/MSDK/lwip/libcoap-4.3.4/src\coap_option.c **** 
 351:C:/Users/stapi/OneDrive/Desktop/GD32VW553/V1_MQTT_OK/GD32VW55X_Wifi_BLE_SDK/GD32VW55x_RELEASE_V1.0.2/MSDK/lwip/libcoap-4.3.4/src\coap_option.c **** size_t
 352:C:/Users/stapi/OneDrive/Desktop/GD32VW553/V1_MQTT_OK/GD32VW55X_Wifi_BLE_SDK/GD32VW55x_RELEASE_V1.0.2/MSDK/lwip/libcoap-4.3.4/src\coap_option.c **** coap_opt_encode_size(uint16_t delta, size_t length) {
 353:C:/Users/stapi/OneDrive/Desktop/GD32VW553/V1_MQTT_OK/GD32VW55X_Wifi_BLE_SDK/GD32VW55x_RELEASE_V1.0.2/MSDK/lwip/libcoap-4.3.4/src\coap_option.c ****   size_t n = 1;
 354:C:/Users/stapi/OneDrive/Desktop/GD32VW553/V1_MQTT_OK/GD32VW55X_Wifi_BLE_SDK/GD32VW55x_RELEASE_V1.0.2/MSDK/lwip/libcoap-4.3.4/src\coap_option.c **** 
 355:C:/Users/stapi/OneDrive/Desktop/GD32VW553/V1_MQTT_OK/GD32VW55X_Wifi_BLE_SDK/GD32VW55x_RELEASE_V1.0.2/MSDK/lwip/libcoap-4.3.4/src\coap_option.c ****   if (delta >= 13) {
 356:C:/Users/stapi/OneDrive/Desktop/GD32VW553/V1_MQTT_OK/GD32VW55X_Wifi_BLE_SDK/GD32VW55x_RELEASE_V1.0.2/MSDK/lwip/libcoap-4.3.4/src\coap_option.c ****     if (delta < 269)
 357:C:/Users/stapi/OneDrive/Desktop/GD32VW553/V1_MQTT_OK/GD32VW55X_Wifi_BLE_SDK/GD32VW55x_RELEASE_V1.0.2/MSDK/lwip/libcoap-4.3.4/src\coap_option.c ****       n += 1;
 358:C:/Users/stapi/OneDrive/Desktop/GD32VW553/V1_MQTT_OK/GD32VW55X_Wifi_BLE_SDK/GD32VW55x_RELEASE_V1.0.2/MSDK/lwip/libcoap-4.3.4/src\coap_option.c ****     else
 359:C:/Users/stapi/OneDrive/Desktop/GD32VW553/V1_MQTT_OK/GD32VW55X_Wifi_BLE_SDK/GD32VW55x_RELEASE_V1.0.2/MSDK/lwip/libcoap-4.3.4/src\coap_option.c ****       n += 2;
 360:C:/Users/stapi/OneDrive/Desktop/GD32VW553/V1_MQTT_OK/GD32VW55X_Wifi_BLE_SDK/GD32VW55x_RELEASE_V1.0.2/MSDK/lwip/libcoap-4.3.4/src\coap_option.c ****   }
 361:C:/Users/stapi/OneDrive/Desktop/GD32VW553/V1_MQTT_OK/GD32VW55X_Wifi_BLE_SDK/GD32VW55x_RELEASE_V1.0.2/MSDK/lwip/libcoap-4.3.4/src\coap_option.c **** 
 362:C:/Users/stapi/OneDrive/Desktop/GD32VW553/V1_MQTT_OK/GD32VW55X_Wifi_BLE_SDK/GD32VW55x_RELEASE_V1.0.2/MSDK/lwip/libcoap-4.3.4/src\coap_option.c ****   if (length >= 13) {
 363:C:/Users/stapi/OneDrive/Desktop/GD32VW553/V1_MQTT_OK/GD32VW55X_Wifi_BLE_SDK/GD32VW55x_RELEASE_V1.0.2/MSDK/lwip/libcoap-4.3.4/src\coap_option.c ****     if (length < 269)
 364:C:/Users/stapi/OneDrive/Desktop/GD32VW553/V1_MQTT_OK/GD32VW55X_Wifi_BLE_SDK/GD32VW55x_RELEASE_V1.0.2/MSDK/lwip/libcoap-4.3.4/src\coap_option.c ****       n += 1;
 365:C:/Users/stapi/OneDrive/Desktop/GD32VW553/V1_MQTT_OK/GD32VW55X_Wifi_BLE_SDK/GD32VW55x_RELEASE_V1.0.2/MSDK/lwip/libcoap-4.3.4/src\coap_option.c ****     else
 366:C:/Users/stapi/OneDrive/Desktop/GD32VW553/V1_MQTT_OK/GD32VW55X_Wifi_BLE_SDK/GD32VW55x_RELEASE_V1.0.2/MSDK/lwip/libcoap-4.3.4/src\coap_option.c ****       n += 2;
 367:C:/Users/stapi/OneDrive/Desktop/GD32VW553/V1_MQTT_OK/GD32VW55X_Wifi_BLE_SDK/GD32VW55x_RELEASE_V1.0.2/MSDK/lwip/libcoap-4.3.4/src\coap_option.c ****   }
 368:C:/Users/stapi/OneDrive/Desktop/GD32VW553/V1_MQTT_OK/GD32VW55X_Wifi_BLE_SDK/GD32VW55x_RELEASE_V1.0.2/MSDK/lwip/libcoap-4.3.4/src\coap_option.c **** 
 369:C:/Users/stapi/OneDrive/Desktop/GD32VW553/V1_MQTT_OK/GD32VW55X_Wifi_BLE_SDK/GD32VW55x_RELEASE_V1.0.2/MSDK/lwip/libcoap-4.3.4/src\coap_option.c ****   return n + length;
 370:C:/Users/stapi/OneDrive/Desktop/GD32VW553/V1_MQTT_OK/GD32VW55X_Wifi_BLE_SDK/GD32VW55x_RELEASE_V1.0.2/MSDK/lwip/libcoap-4.3.4/src\coap_option.c **** }
 371:C:/Users/stapi/OneDrive/Desktop/GD32VW553/V1_MQTT_OK/GD32VW55X_Wifi_BLE_SDK/GD32VW55x_RELEASE_V1.0.2/MSDK/lwip/libcoap-4.3.4/src\coap_option.c **** 
 372:C:/Users/stapi/OneDrive/Desktop/GD32VW553/V1_MQTT_OK/GD32VW55X_Wifi_BLE_SDK/GD32VW55x_RELEASE_V1.0.2/MSDK/lwip/libcoap-4.3.4/src\coap_option.c **** size_t
 373:C:/Users/stapi/OneDrive/Desktop/GD32VW553/V1_MQTT_OK/GD32VW55X_Wifi_BLE_SDK/GD32VW55x_RELEASE_V1.0.2/MSDK/lwip/libcoap-4.3.4/src\coap_option.c **** coap_opt_encode(coap_opt_t *opt, size_t maxlen, uint16_t delta,
 374:C:/Users/stapi/OneDrive/Desktop/GD32VW553/V1_MQTT_OK/GD32VW55X_Wifi_BLE_SDK/GD32VW55x_RELEASE_V1.0.2/MSDK/lwip/libcoap-4.3.4/src\coap_option.c ****                 const uint8_t *val, size_t length) {
 375:C:/Users/stapi/OneDrive/Desktop/GD32VW553/V1_MQTT_OK/GD32VW55X_Wifi_BLE_SDK/GD32VW55x_RELEASE_V1.0.2/MSDK/lwip/libcoap-4.3.4/src\coap_option.c ****   size_t l = 1;
 376:C:/Users/stapi/OneDrive/Desktop/GD32VW553/V1_MQTT_OK/GD32VW55X_Wifi_BLE_SDK/GD32VW55x_RELEASE_V1.0.2/MSDK/lwip/libcoap-4.3.4/src\coap_option.c **** 
 377:C:/Users/stapi/OneDrive/Desktop/GD32VW553/V1_MQTT_OK/GD32VW55X_Wifi_BLE_SDK/GD32VW55x_RELEASE_V1.0.2/MSDK/lwip/libcoap-4.3.4/src\coap_option.c ****   l = coap_opt_setheader(opt, maxlen, delta, length);
 378:C:/Users/stapi/OneDrive/Desktop/GD32VW553/V1_MQTT_OK/GD32VW55X_Wifi_BLE_SDK/GD32VW55x_RELEASE_V1.0.2/MSDK/lwip/libcoap-4.3.4/src\coap_option.c ****   assert(l <= maxlen);
 379:C:/Users/stapi/OneDrive/Desktop/GD32VW553/V1_MQTT_OK/GD32VW55X_Wifi_BLE_SDK/GD32VW55x_RELEASE_V1.0.2/MSDK/lwip/libcoap-4.3.4/src\coap_option.c **** 
 380:C:/Users/stapi/OneDrive/Desktop/GD32VW553/V1_MQTT_OK/GD32VW55X_Wifi_BLE_SDK/GD32VW55x_RELEASE_V1.0.2/MSDK/lwip/libcoap-4.3.4/src\coap_option.c ****   if (!l) {
 381:C:/Users/stapi/OneDrive/Desktop/GD32VW553/V1_MQTT_OK/GD32VW55X_Wifi_BLE_SDK/GD32VW55x_RELEASE_V1.0.2/MSDK/lwip/libcoap-4.3.4/src\coap_option.c ****     coap_log_debug("coap_opt_encode: cannot set option header\n");
 382:C:/Users/stapi/OneDrive/Desktop/GD32VW553/V1_MQTT_OK/GD32VW55X_Wifi_BLE_SDK/GD32VW55x_RELEASE_V1.0.2/MSDK/lwip/libcoap-4.3.4/src\coap_option.c ****     return 0;
 383:C:/Users/stapi/OneDrive/Desktop/GD32VW553/V1_MQTT_OK/GD32VW55X_Wifi_BLE_SDK/GD32VW55x_RELEASE_V1.0.2/MSDK/lwip/libcoap-4.3.4/src\coap_option.c ****   }
 384:C:/Users/stapi/OneDrive/Desktop/GD32VW553/V1_MQTT_OK/GD32VW55X_Wifi_BLE_SDK/GD32VW55x_RELEASE_V1.0.2/MSDK/lwip/libcoap-4.3.4/src\coap_option.c **** 
 385:C:/Users/stapi/OneDrive/Desktop/GD32VW553/V1_MQTT_OK/GD32VW55X_Wifi_BLE_SDK/GD32VW55x_RELEASE_V1.0.2/MSDK/lwip/libcoap-4.3.4/src\coap_option.c ****   maxlen -= l;
 386:C:/Users/stapi/OneDrive/Desktop/GD32VW553/V1_MQTT_OK/GD32VW55X_Wifi_BLE_SDK/GD32VW55x_RELEASE_V1.0.2/MSDK/lwip/libcoap-4.3.4/src\coap_option.c ****   opt += l;
 387:C:/Users/stapi/OneDrive/Desktop/GD32VW553/V1_MQTT_OK/GD32VW55X_Wifi_BLE_SDK/GD32VW55x_RELEASE_V1.0.2/MSDK/lwip/libcoap-4.3.4/src\coap_option.c **** 
 388:C:/Users/stapi/OneDrive/Desktop/GD32VW553/V1_MQTT_OK/GD32VW55X_Wifi_BLE_SDK/GD32VW55x_RELEASE_V1.0.2/MSDK/lwip/libcoap-4.3.4/src\coap_option.c ****   if (maxlen < length) {
 389:C:/Users/stapi/OneDrive/Desktop/GD32VW553/V1_MQTT_OK/GD32VW55X_Wifi_BLE_SDK/GD32VW55x_RELEASE_V1.0.2/MSDK/lwip/libcoap-4.3.4/src\coap_option.c ****     coap_log_debug("coap_opt_encode: option too large for buffer\n");
 390:C:/Users/stapi/OneDrive/Desktop/GD32VW553/V1_MQTT_OK/GD32VW55X_Wifi_BLE_SDK/GD32VW55x_RELEASE_V1.0.2/MSDK/lwip/libcoap-4.3.4/src\coap_option.c ****     return 0;
 391:C:/Users/stapi/OneDrive/Desktop/GD32VW553/V1_MQTT_OK/GD32VW55X_Wifi_BLE_SDK/GD32VW55x_RELEASE_V1.0.2/MSDK/lwip/libcoap-4.3.4/src\coap_option.c ****   }
 392:C:/Users/stapi/OneDrive/Desktop/GD32VW553/V1_MQTT_OK/GD32VW55X_Wifi_BLE_SDK/GD32VW55x_RELEASE_V1.0.2/MSDK/lwip/libcoap-4.3.4/src\coap_option.c **** 
 393:C:/Users/stapi/OneDrive/Desktop/GD32VW553/V1_MQTT_OK/GD32VW55X_Wifi_BLE_SDK/GD32VW55x_RELEASE_V1.0.2/MSDK/lwip/libcoap-4.3.4/src\coap_option.c ****   if (val)                        /* better be safe here */
 394:C:/Users/stapi/OneDrive/Desktop/GD32VW553/V1_MQTT_OK/GD32VW55X_Wifi_BLE_SDK/GD32VW55x_RELEASE_V1.0.2/MSDK/lwip/libcoap-4.3.4/src\coap_option.c ****     memcpy(opt, val, length);
 395:C:/Users/stapi/OneDrive/Desktop/GD32VW553/V1_MQTT_OK/GD32VW55X_Wifi_BLE_SDK/GD32VW55x_RELEASE_V1.0.2/MSDK/lwip/libcoap-4.3.4/src\coap_option.c **** 
 396:C:/Users/stapi/OneDrive/Desktop/GD32VW553/V1_MQTT_OK/GD32VW55X_Wifi_BLE_SDK/GD32VW55x_RELEASE_V1.0.2/MSDK/lwip/libcoap-4.3.4/src\coap_option.c ****   return l + length;
 397:C:/Users/stapi/OneDrive/Desktop/GD32VW553/V1_MQTT_OK/GD32VW55X_Wifi_BLE_SDK/GD32VW55x_RELEASE_V1.0.2/MSDK/lwip/libcoap-4.3.4/src\coap_option.c **** }
 398:C:/Users/stapi/OneDrive/Desktop/GD32VW553/V1_MQTT_OK/GD32VW55X_Wifi_BLE_SDK/GD32VW55x_RELEASE_V1.0.2/MSDK/lwip/libcoap-4.3.4/src\coap_option.c **** 
 399:C:/Users/stapi/OneDrive/Desktop/GD32VW553/V1_MQTT_OK/GD32VW55X_Wifi_BLE_SDK/GD32VW55x_RELEASE_V1.0.2/MSDK/lwip/libcoap-4.3.4/src\coap_option.c **** #define LONG_MASK ((1 << COAP_OPT_FILTER_LONG) - 1)
 400:C:/Users/stapi/OneDrive/Desktop/GD32VW553/V1_MQTT_OK/GD32VW55X_Wifi_BLE_SDK/GD32VW55x_RELEASE_V1.0.2/MSDK/lwip/libcoap-4.3.4/src\coap_option.c **** #define SHORT_MASK \
 401:C:/Users/stapi/OneDrive/Desktop/GD32VW553/V1_MQTT_OK/GD32VW55X_Wifi_BLE_SDK/GD32VW55x_RELEASE_V1.0.2/MSDK/lwip/libcoap-4.3.4/src\coap_option.c ****   (~LONG_MASK & ((1 << (COAP_OPT_FILTER_LONG + COAP_OPT_FILTER_SHORT)) - 1))
 402:C:/Users/stapi/OneDrive/Desktop/GD32VW553/V1_MQTT_OK/GD32VW55X_Wifi_BLE_SDK/GD32VW55x_RELEASE_V1.0.2/MSDK/lwip/libcoap-4.3.4/src\coap_option.c **** 
 403:C:/Users/stapi/OneDrive/Desktop/GD32VW553/V1_MQTT_OK/GD32VW55X_Wifi_BLE_SDK/GD32VW55x_RELEASE_V1.0.2/MSDK/lwip/libcoap-4.3.4/src\coap_option.c **** /** Returns true iff @p number denotes an option number larger than 255. */
 404:C:/Users/stapi/OneDrive/Desktop/GD32VW553/V1_MQTT_OK/GD32VW55X_Wifi_BLE_SDK/GD32VW55x_RELEASE_V1.0.2/MSDK/lwip/libcoap-4.3.4/src\coap_option.c **** COAP_STATIC_INLINE int
 405:C:/Users/stapi/OneDrive/Desktop/GD32VW553/V1_MQTT_OK/GD32VW55X_Wifi_BLE_SDK/GD32VW55x_RELEASE_V1.0.2/MSDK/lwip/libcoap-4.3.4/src\coap_option.c **** is_long_option(coap_option_num_t number) {
 406:C:/Users/stapi/OneDrive/Desktop/GD32VW553/V1_MQTT_OK/GD32VW55X_Wifi_BLE_SDK/GD32VW55x_RELEASE_V1.0.2/MSDK/lwip/libcoap-4.3.4/src\coap_option.c ****   return number > 255;
 407:C:/Users/stapi/OneDrive/Desktop/GD32VW553/V1_MQTT_OK/GD32VW55X_Wifi_BLE_SDK/GD32VW55x_RELEASE_V1.0.2/MSDK/lwip/libcoap-4.3.4/src\coap_option.c **** }
 408:C:/Users/stapi/OneDrive/Desktop/GD32VW553/V1_MQTT_OK/GD32VW55X_Wifi_BLE_SDK/GD32VW55x_RELEASE_V1.0.2/MSDK/lwip/libcoap-4.3.4/src\coap_option.c **** 
 409:C:/Users/stapi/OneDrive/Desktop/GD32VW553/V1_MQTT_OK/GD32VW55X_Wifi_BLE_SDK/GD32VW55x_RELEASE_V1.0.2/MSDK/lwip/libcoap-4.3.4/src\coap_option.c **** /** Operation specifiers for coap_filter_op(). */
 410:C:/Users/stapi/OneDrive/Desktop/GD32VW553/V1_MQTT_OK/GD32VW55X_Wifi_BLE_SDK/GD32VW55x_RELEASE_V1.0.2/MSDK/lwip/libcoap-4.3.4/src\coap_option.c **** enum filter_op_t { FILTER_SET, FILTER_CLEAR, FILTER_GET };
 411:C:/Users/stapi/OneDrive/Desktop/GD32VW553/V1_MQTT_OK/GD32VW55X_Wifi_BLE_SDK/GD32VW55x_RELEASE_V1.0.2/MSDK/lwip/libcoap-4.3.4/src\coap_option.c **** 
 412:C:/Users/stapi/OneDrive/Desktop/GD32VW553/V1_MQTT_OK/GD32VW55X_Wifi_BLE_SDK/GD32VW55x_RELEASE_V1.0.2/MSDK/lwip/libcoap-4.3.4/src\coap_option.c **** /**
 413:C:/Users/stapi/OneDrive/Desktop/GD32VW553/V1_MQTT_OK/GD32VW55X_Wifi_BLE_SDK/GD32VW55x_RELEASE_V1.0.2/MSDK/lwip/libcoap-4.3.4/src\coap_option.c ****  * Applies @p op on @p filter with respect to @p number. The following
 414:C:/Users/stapi/OneDrive/Desktop/GD32VW553/V1_MQTT_OK/GD32VW55X_Wifi_BLE_SDK/GD32VW55x_RELEASE_V1.0.2/MSDK/lwip/libcoap-4.3.4/src\coap_option.c ****  * operations are defined:
 415:C:/Users/stapi/OneDrive/Desktop/GD32VW553/V1_MQTT_OK/GD32VW55X_Wifi_BLE_SDK/GD32VW55x_RELEASE_V1.0.2/MSDK/lwip/libcoap-4.3.4/src\coap_option.c ****  *
 416:C:/Users/stapi/OneDrive/Desktop/GD32VW553/V1_MQTT_OK/GD32VW55X_Wifi_BLE_SDK/GD32VW55x_RELEASE_V1.0.2/MSDK/lwip/libcoap-4.3.4/src\coap_option.c ****  * FILTER_SET: Store @p number into an empty slot in @p filter. Returns
 417:C:/Users/stapi/OneDrive/Desktop/GD32VW553/V1_MQTT_OK/GD32VW55X_Wifi_BLE_SDK/GD32VW55x_RELEASE_V1.0.2/MSDK/lwip/libcoap-4.3.4/src\coap_option.c ****  * @c 1 on success, or @c 0 if no spare slot was available.
 418:C:/Users/stapi/OneDrive/Desktop/GD32VW553/V1_MQTT_OK/GD32VW55X_Wifi_BLE_SDK/GD32VW55x_RELEASE_V1.0.2/MSDK/lwip/libcoap-4.3.4/src\coap_option.c ****  *
 419:C:/Users/stapi/OneDrive/Desktop/GD32VW553/V1_MQTT_OK/GD32VW55X_Wifi_BLE_SDK/GD32VW55x_RELEASE_V1.0.2/MSDK/lwip/libcoap-4.3.4/src\coap_option.c ****  * FILTER_CLEAR: Remove @p number from filter if it exists.
 420:C:/Users/stapi/OneDrive/Desktop/GD32VW553/V1_MQTT_OK/GD32VW55X_Wifi_BLE_SDK/GD32VW55x_RELEASE_V1.0.2/MSDK/lwip/libcoap-4.3.4/src\coap_option.c ****  *
 421:C:/Users/stapi/OneDrive/Desktop/GD32VW553/V1_MQTT_OK/GD32VW55X_Wifi_BLE_SDK/GD32VW55x_RELEASE_V1.0.2/MSDK/lwip/libcoap-4.3.4/src\coap_option.c ****  * FILTER_GET: Search for @p number in @p filter. Returns @c 1 if found,
 422:C:/Users/stapi/OneDrive/Desktop/GD32VW553/V1_MQTT_OK/GD32VW55X_Wifi_BLE_SDK/GD32VW55x_RELEASE_V1.0.2/MSDK/lwip/libcoap-4.3.4/src\coap_option.c ****  * or @c 0 if not found.
 423:C:/Users/stapi/OneDrive/Desktop/GD32VW553/V1_MQTT_OK/GD32VW55X_Wifi_BLE_SDK/GD32VW55x_RELEASE_V1.0.2/MSDK/lwip/libcoap-4.3.4/src\coap_option.c ****  *
 424:C:/Users/stapi/OneDrive/Desktop/GD32VW553/V1_MQTT_OK/GD32VW55X_Wifi_BLE_SDK/GD32VW55x_RELEASE_V1.0.2/MSDK/lwip/libcoap-4.3.4/src\coap_option.c ****  * @param filter The filter object.
 425:C:/Users/stapi/OneDrive/Desktop/GD32VW553/V1_MQTT_OK/GD32VW55X_Wifi_BLE_SDK/GD32VW55x_RELEASE_V1.0.2/MSDK/lwip/libcoap-4.3.4/src\coap_option.c ****  * @param number The option number to set, get or clear in @p filter.
 426:C:/Users/stapi/OneDrive/Desktop/GD32VW553/V1_MQTT_OK/GD32VW55X_Wifi_BLE_SDK/GD32VW55x_RELEASE_V1.0.2/MSDK/lwip/libcoap-4.3.4/src\coap_option.c ****  * @param op     The operation to apply to @p filter and @p number.
 427:C:/Users/stapi/OneDrive/Desktop/GD32VW553/V1_MQTT_OK/GD32VW55X_Wifi_BLE_SDK/GD32VW55x_RELEASE_V1.0.2/MSDK/lwip/libcoap-4.3.4/src\coap_option.c ****  *
 428:C:/Users/stapi/OneDrive/Desktop/GD32VW553/V1_MQTT_OK/GD32VW55X_Wifi_BLE_SDK/GD32VW55x_RELEASE_V1.0.2/MSDK/lwip/libcoap-4.3.4/src\coap_option.c ****  * @return 1 on success, and 0 when FILTER_GET yields no
 429:C:/Users/stapi/OneDrive/Desktop/GD32VW553/V1_MQTT_OK/GD32VW55X_Wifi_BLE_SDK/GD32VW55x_RELEASE_V1.0.2/MSDK/lwip/libcoap-4.3.4/src\coap_option.c ****  * hit or no free slot is available to store @p number with FILTER_SET.
 430:C:/Users/stapi/OneDrive/Desktop/GD32VW553/V1_MQTT_OK/GD32VW55X_Wifi_BLE_SDK/GD32VW55x_RELEASE_V1.0.2/MSDK/lwip/libcoap-4.3.4/src\coap_option.c ****  */
 431:C:/Users/stapi/OneDrive/Desktop/GD32VW553/V1_MQTT_OK/GD32VW55X_Wifi_BLE_SDK/GD32VW55x_RELEASE_V1.0.2/MSDK/lwip/libcoap-4.3.4/src\coap_option.c **** static int
 432:C:/Users/stapi/OneDrive/Desktop/GD32VW553/V1_MQTT_OK/GD32VW55X_Wifi_BLE_SDK/GD32VW55x_RELEASE_V1.0.2/MSDK/lwip/libcoap-4.3.4/src\coap_option.c **** coap_option_filter_op(coap_opt_filter_t *filter,
 433:C:/Users/stapi/OneDrive/Desktop/GD32VW553/V1_MQTT_OK/GD32VW55X_Wifi_BLE_SDK/GD32VW55x_RELEASE_V1.0.2/MSDK/lwip/libcoap-4.3.4/src\coap_option.c ****                       coap_option_num_t number,
 434:C:/Users/stapi/OneDrive/Desktop/GD32VW553/V1_MQTT_OK/GD32VW55X_Wifi_BLE_SDK/GD32VW55x_RELEASE_V1.0.2/MSDK/lwip/libcoap-4.3.4/src\coap_option.c ****                       enum filter_op_t op) {
  15              		.loc 1 434 44
  16              		.cfi_startproc
  17              	.LVL0:
  18 0000 17030000 		call	t0,__riscv_save_2
  18      E7020300 
  19              		.cfi_offset 9, -12
  20              		.cfi_offset 8, -8
  21              		.cfi_offset 1, -4
  22              		.cfi_def_cfa_offset 16
 435:C:/Users/stapi/OneDrive/Desktop/GD32VW553/V1_MQTT_OK/GD32VW55X_Wifi_BLE_SDK/GD32VW55x_RELEASE_V1.0.2/MSDK/lwip/libcoap-4.3.4/src\coap_option.c ****   size_t lindex = 0;
  23              		.loc 1 435 3
  24              	.LVL1:
 436:C:/Users/stapi/OneDrive/Desktop/GD32VW553/V1_MQTT_OK/GD32VW55X_Wifi_BLE_SDK/GD32VW55x_RELEASE_V1.0.2/MSDK/lwip/libcoap-4.3.4/src\coap_option.c ****   coap_opt_filter_t *of = filter;
  25              		.loc 1 436 3
 437:C:/Users/stapi/OneDrive/Desktop/GD32VW553/V1_MQTT_OK/GD32VW55X_Wifi_BLE_SDK/GD32VW55x_RELEASE_V1.0.2/MSDK/lwip/libcoap-4.3.4/src\coap_option.c ****   uint16_t nr, mask = 0;
  26              		.loc 1 437 3
 438:C:/Users/stapi/OneDrive/Desktop/GD32VW553/V1_MQTT_OK/GD32VW55X_Wifi_BLE_SDK/GD32VW55x_RELEASE_V1.0.2/MSDK/lwip/libcoap-4.3.4/src\coap_option.c **** 
 439:C:/Users/stapi/OneDrive/Desktop/GD32VW553/V1_MQTT_OK/GD32VW55X_Wifi_BLE_SDK/GD32VW55x_RELEASE_V1.0.2/MSDK/lwip/libcoap-4.3.4/src\coap_option.c ****   if (is_long_option(number)) {
  27              		.loc 1 439 3
 406:C:/Users/stapi/OneDrive/Desktop/GD32VW553/V1_MQTT_OK/GD32VW55X_Wifi_BLE_SDK/GD32VW55x_RELEASE_V1.0.2/MSDK/lwip/libcoap-4.3.4/src\coap_option.c **** }
  28              		.loc 1 406 3
  29              		.loc 1 439 6 is_stmt 0
  30 0008 9307F00F 		li	a5,255
 440:C:/Users/stapi/OneDrive/Desktop/GD32VW553/V1_MQTT_OK/GD32VW55X_Wifi_BLE_SDK/GD32VW55x_RELEASE_V1.0.2/MSDK/lwip/libcoap-4.3.4/src\coap_option.c ****     mask = LONG_MASK;
 441:C:/Users/stapi/OneDrive/Desktop/GD32VW553/V1_MQTT_OK/GD32VW55X_Wifi_BLE_SDK/GD32VW55x_RELEASE_V1.0.2/MSDK/lwip/libcoap-4.3.4/src\coap_option.c **** 
 442:C:/Users/stapi/OneDrive/Desktop/GD32VW553/V1_MQTT_OK/GD32VW55X_Wifi_BLE_SDK/GD32VW55x_RELEASE_V1.0.2/MSDK/lwip/libcoap-4.3.4/src\coap_option.c ****     for (nr = 1; lindex < COAP_OPT_FILTER_LONG; nr <<= 1, lindex++) {
 443:C:/Users/stapi/OneDrive/Desktop/GD32VW553/V1_MQTT_OK/GD32VW55X_Wifi_BLE_SDK/GD32VW55x_RELEASE_V1.0.2/MSDK/lwip/libcoap-4.3.4/src\coap_option.c **** 
 444:C:/Users/stapi/OneDrive/Desktop/GD32VW553/V1_MQTT_OK/GD32VW55X_Wifi_BLE_SDK/GD32VW55x_RELEASE_V1.0.2/MSDK/lwip/libcoap-4.3.4/src\coap_option.c ****       if (((of->mask & nr) > 0) && (of->long_opts[lindex] == number)) {
  31              		.loc 1 444 15
  32 000c 03570500 		lhu	a4,0(a0)
 434:C:/Users/stapi/OneDrive/Desktop/GD32VW553/V1_MQTT_OK/GD32VW55X_Wifi_BLE_SDK/GD32VW55x_RELEASE_V1.0.2/MSDK/lwip/libcoap-4.3.4/src\coap_option.c ****   size_t lindex = 0;
  33              		.loc 1 434 44
  34 0010 2A84     		mv	s0,a0
  35 0012 AE84     		mv	s1,a1
 439:C:/Users/stapi/OneDrive/Desktop/GD32VW553/V1_MQTT_OK/GD32VW55X_Wifi_BLE_SDK/GD32VW55x_RELEASE_V1.0.2/MSDK/lwip/libcoap-4.3.4/src\coap_option.c ****     mask = LONG_MASK;
  36              		.loc 1 439 6
  37 0014 63FDB702 		bleu	a1,a5,.L2
  38              	.LVL2:
 442:C:/Users/stapi/OneDrive/Desktop/GD32VW553/V1_MQTT_OK/GD32VW55X_Wifi_BLE_SDK/GD32VW55x_RELEASE_V1.0.2/MSDK/lwip/libcoap-4.3.4/src\coap_option.c **** 
  39              		.loc 1 442 18 is_stmt 1
  40              		.loc 1 444 7
  41              		.loc 1 444 28 is_stmt 0
  42 0018 93771700 		andi	a5,a4,1
  43              		.loc 1 444 10
  44 001c 89C7     		beq	a5,zero,.L3
  45              		.loc 1 444 33
  46 001e 83562500 		lhu	a3,2(a0)
  47 0022 638BB600 		beq	a3,a1,.L30
  48              	.L3:
 442:C:/Users/stapi/OneDrive/Desktop/GD32VW553/V1_MQTT_OK/GD32VW55X_Wifi_BLE_SDK/GD32VW55x_RELEASE_V1.0.2/MSDK/lwip/libcoap-4.3.4/src\coap_option.c **** 
  49              		.loc 1 442 49 is_stmt 1
  50              	.LVL3:
 442:C:/Users/stapi/OneDrive/Desktop/GD32VW553/V1_MQTT_OK/GD32VW55X_Wifi_BLE_SDK/GD32VW55x_RELEASE_V1.0.2/MSDK/lwip/libcoap-4.3.4/src\coap_option.c **** 
  51              		.loc 1 442 18
  52              		.loc 1 444 7
  53              		.loc 1 444 10 is_stmt 0
  54 0026 93772700 		andi	a5,a4,2
  55 002a A1CF     		beq	a5,zero,.L13
  56              		.loc 1 444 33
  57 002c 83574400 		lhu	a5,4(s0)
 440:C:/Users/stapi/OneDrive/Desktop/GD32VW553/V1_MQTT_OK/GD32VW55X_Wifi_BLE_SDK/GD32VW55x_RELEASE_V1.0.2/MSDK/lwip/libcoap-4.3.4/src\coap_option.c **** 
  58              		.loc 1 440 10
  59 0030 0D45     		li	a0,3
  60              	.LVL4:
  61              		.loc 1 444 33
  62 0032 63929704 		bne	a5,s1,.L5
 442:C:/Users/stapi/OneDrive/Desktop/GD32VW553/V1_MQTT_OK/GD32VW55X_Wifi_BLE_SDK/GD32VW55x_RELEASE_V1.0.2/MSDK/lwip/libcoap-4.3.4/src\coap_option.c **** 
  63              		.loc 1 442 52
  64 0036 8947     		li	a5,2
 445:C:/Users/stapi/OneDrive/Desktop/GD32VW553/V1_MQTT_OK/GD32VW55X_Wifi_BLE_SDK/GD32VW55x_RELEASE_V1.0.2/MSDK/lwip/libcoap-4.3.4/src\coap_option.c ****         if (op == FILTER_CLEAR) {
  65              		.loc 1 445 9 is_stmt 1
  66              	.LVL5:
  67              	.L30:
 446:C:/Users/stapi/OneDrive/Desktop/GD32VW553/V1_MQTT_OK/GD32VW55X_Wifi_BLE_SDK/GD32VW55x_RELEASE_V1.0.2/MSDK/lwip/libcoap-4.3.4/src\coap_option.c ****           of->mask &= ~nr;
 447:C:/Users/stapi/OneDrive/Desktop/GD32VW553/V1_MQTT_OK/GD32VW55X_Wifi_BLE_SDK/GD32VW55x_RELEASE_V1.0.2/MSDK/lwip/libcoap-4.3.4/src\coap_option.c ****         }
 448:C:/Users/stapi/OneDrive/Desktop/GD32VW553/V1_MQTT_OK/GD32VW55X_Wifi_BLE_SDK/GD32VW55x_RELEASE_V1.0.2/MSDK/lwip/libcoap-4.3.4/src\coap_option.c **** 
 449:C:/Users/stapi/OneDrive/Desktop/GD32VW553/V1_MQTT_OK/GD32VW55X_Wifi_BLE_SDK/GD32VW55x_RELEASE_V1.0.2/MSDK/lwip/libcoap-4.3.4/src\coap_option.c ****         return 1;
 450:C:/Users/stapi/OneDrive/Desktop/GD32VW553/V1_MQTT_OK/GD32VW55X_Wifi_BLE_SDK/GD32VW55x_RELEASE_V1.0.2/MSDK/lwip/libcoap-4.3.4/src\coap_option.c ****       }
 451:C:/Users/stapi/OneDrive/Desktop/GD32VW553/V1_MQTT_OK/GD32VW55X_Wifi_BLE_SDK/GD32VW55x_RELEASE_V1.0.2/MSDK/lwip/libcoap-4.3.4/src\coap_option.c ****     }
 452:C:/Users/stapi/OneDrive/Desktop/GD32VW553/V1_MQTT_OK/GD32VW55X_Wifi_BLE_SDK/GD32VW55x_RELEASE_V1.0.2/MSDK/lwip/libcoap-4.3.4/src\coap_option.c ****   } else {
 453:C:/Users/stapi/OneDrive/Desktop/GD32VW553/V1_MQTT_OK/GD32VW55X_Wifi_BLE_SDK/GD32VW55x_RELEASE_V1.0.2/MSDK/lwip/libcoap-4.3.4/src\coap_option.c ****     mask = SHORT_MASK;
 454:C:/Users/stapi/OneDrive/Desktop/GD32VW553/V1_MQTT_OK/GD32VW55X_Wifi_BLE_SDK/GD32VW55x_RELEASE_V1.0.2/MSDK/lwip/libcoap-4.3.4/src\coap_option.c **** 
 455:C:/Users/stapi/OneDrive/Desktop/GD32VW553/V1_MQTT_OK/GD32VW55X_Wifi_BLE_SDK/GD32VW55x_RELEASE_V1.0.2/MSDK/lwip/libcoap-4.3.4/src\coap_option.c ****     for (nr = 1 << COAP_OPT_FILTER_LONG; lindex < COAP_OPT_FILTER_SHORT;
 456:C:/Users/stapi/OneDrive/Desktop/GD32VW553/V1_MQTT_OK/GD32VW55X_Wifi_BLE_SDK/GD32VW55x_RELEASE_V1.0.2/MSDK/lwip/libcoap-4.3.4/src\coap_option.c ****          nr <<= 1, lindex++) {
 457:C:/Users/stapi/OneDrive/Desktop/GD32VW553/V1_MQTT_OK/GD32VW55X_Wifi_BLE_SDK/GD32VW55x_RELEASE_V1.0.2/MSDK/lwip/libcoap-4.3.4/src\coap_option.c **** 
 458:C:/Users/stapi/OneDrive/Desktop/GD32VW553/V1_MQTT_OK/GD32VW55X_Wifi_BLE_SDK/GD32VW55x_RELEASE_V1.0.2/MSDK/lwip/libcoap-4.3.4/src\coap_option.c ****       if (((of->mask & nr) > 0) && (of->short_opts[lindex] == (number & 0xff))) {
 459:C:/Users/stapi/OneDrive/Desktop/GD32VW553/V1_MQTT_OK/GD32VW55X_Wifi_BLE_SDK/GD32VW55x_RELEASE_V1.0.2/MSDK/lwip/libcoap-4.3.4/src\coap_option.c ****         if (op == FILTER_CLEAR) {
  68              		.loc 1 459 9
 449:C:/Users/stapi/OneDrive/Desktop/GD32VW553/V1_MQTT_OK/GD32VW55X_Wifi_BLE_SDK/GD32VW55x_RELEASE_V1.0.2/MSDK/lwip/libcoap-4.3.4/src\coap_option.c ****       }
  69              		.loc 1 449 16 is_stmt 0
  70 0038 0545     		li	a0,1
  71              		.loc 1 459 12
  72 003a 6316A600 		bne	a2,a0,.L1
 460:C:/Users/stapi/OneDrive/Desktop/GD32VW553/V1_MQTT_OK/GD32VW55X_Wifi_BLE_SDK/GD32VW55x_RELEASE_V1.0.2/MSDK/lwip/libcoap-4.3.4/src\coap_option.c ****           of->mask &= ~nr;
  73              		.loc 1 460 11 is_stmt 1
  74              		.loc 1 460 20 is_stmt 0
  75 003e B377F740 		andn	a5,a4,a5
  76 0042 2310F400 		sh	a5,0(s0)
  77              	.LVL6:
  78              	.L1:
 461:C:/Users/stapi/OneDrive/Desktop/GD32VW553/V1_MQTT_OK/GD32VW55X_Wifi_BLE_SDK/GD32VW55x_RELEASE_V1.0.2/MSDK/lwip/libcoap-4.3.4/src\coap_option.c ****         }
 462:C:/Users/stapi/OneDrive/Desktop/GD32VW553/V1_MQTT_OK/GD32VW55X_Wifi_BLE_SDK/GD32VW55x_RELEASE_V1.0.2/MSDK/lwip/libcoap-4.3.4/src\coap_option.c **** 
 463:C:/Users/stapi/OneDrive/Desktop/GD32VW553/V1_MQTT_OK/GD32VW55X_Wifi_BLE_SDK/GD32VW55x_RELEASE_V1.0.2/MSDK/lwip/libcoap-4.3.4/src\coap_option.c ****         return 1;
 464:C:/Users/stapi/OneDrive/Desktop/GD32VW553/V1_MQTT_OK/GD32VW55X_Wifi_BLE_SDK/GD32VW55x_RELEASE_V1.0.2/MSDK/lwip/libcoap-4.3.4/src\coap_option.c ****       }
 465:C:/Users/stapi/OneDrive/Desktop/GD32VW553/V1_MQTT_OK/GD32VW55X_Wifi_BLE_SDK/GD32VW55x_RELEASE_V1.0.2/MSDK/lwip/libcoap-4.3.4/src\coap_option.c ****     }
 466:C:/Users/stapi/OneDrive/Desktop/GD32VW553/V1_MQTT_OK/GD32VW55X_Wifi_BLE_SDK/GD32VW55x_RELEASE_V1.0.2/MSDK/lwip/libcoap-4.3.4/src\coap_option.c ****   }
 467:C:/Users/stapi/OneDrive/Desktop/GD32VW553/V1_MQTT_OK/GD32VW55X_Wifi_BLE_SDK/GD32VW55x_RELEASE_V1.0.2/MSDK/lwip/libcoap-4.3.4/src\coap_option.c **** 
 468:C:/Users/stapi/OneDrive/Desktop/GD32VW553/V1_MQTT_OK/GD32VW55X_Wifi_BLE_SDK/GD32VW55x_RELEASE_V1.0.2/MSDK/lwip/libcoap-4.3.4/src\coap_option.c ****   /* number was not found, so there is nothing to do if op is CLEAR or GET */
 469:C:/Users/stapi/OneDrive/Desktop/GD32VW553/V1_MQTT_OK/GD32VW55X_Wifi_BLE_SDK/GD32VW55x_RELEASE_V1.0.2/MSDK/lwip/libcoap-4.3.4/src\coap_option.c ****   if ((op == FILTER_CLEAR) || (op == FILTER_GET)) {
 470:C:/Users/stapi/OneDrive/Desktop/GD32VW553/V1_MQTT_OK/GD32VW55X_Wifi_BLE_SDK/GD32VW55x_RELEASE_V1.0.2/MSDK/lwip/libcoap-4.3.4/src\coap_option.c ****     return 0;
 471:C:/Users/stapi/OneDrive/Desktop/GD32VW553/V1_MQTT_OK/GD32VW55X_Wifi_BLE_SDK/GD32VW55x_RELEASE_V1.0.2/MSDK/lwip/libcoap-4.3.4/src\coap_option.c ****   }
 472:C:/Users/stapi/OneDrive/Desktop/GD32VW553/V1_MQTT_OK/GD32VW55X_Wifi_BLE_SDK/GD32VW55x_RELEASE_V1.0.2/MSDK/lwip/libcoap-4.3.4/src\coap_option.c **** 
 473:C:/Users/stapi/OneDrive/Desktop/GD32VW553/V1_MQTT_OK/GD32VW55X_Wifi_BLE_SDK/GD32VW55x_RELEASE_V1.0.2/MSDK/lwip/libcoap-4.3.4/src\coap_option.c ****   /* handle FILTER_SET: */
 474:C:/Users/stapi/OneDrive/Desktop/GD32VW553/V1_MQTT_OK/GD32VW55X_Wifi_BLE_SDK/GD32VW55x_RELEASE_V1.0.2/MSDK/lwip/libcoap-4.3.4/src\coap_option.c **** 
 475:C:/Users/stapi/OneDrive/Desktop/GD32VW553/V1_MQTT_OK/GD32VW55X_Wifi_BLE_SDK/GD32VW55x_RELEASE_V1.0.2/MSDK/lwip/libcoap-4.3.4/src\coap_option.c ****   lindex = coap_fls(~of->mask & mask);
 476:C:/Users/stapi/OneDrive/Desktop/GD32VW553/V1_MQTT_OK/GD32VW55X_Wifi_BLE_SDK/GD32VW55x_RELEASE_V1.0.2/MSDK/lwip/libcoap-4.3.4/src\coap_option.c ****   if (!lindex) {
 477:C:/Users/stapi/OneDrive/Desktop/GD32VW553/V1_MQTT_OK/GD32VW55X_Wifi_BLE_SDK/GD32VW55x_RELEASE_V1.0.2/MSDK/lwip/libcoap-4.3.4/src\coap_option.c ****     return 0;
 478:C:/Users/stapi/OneDrive/Desktop/GD32VW553/V1_MQTT_OK/GD32VW55X_Wifi_BLE_SDK/GD32VW55x_RELEASE_V1.0.2/MSDK/lwip/libcoap-4.3.4/src\coap_option.c ****   }
 479:C:/Users/stapi/OneDrive/Desktop/GD32VW553/V1_MQTT_OK/GD32VW55X_Wifi_BLE_SDK/GD32VW55x_RELEASE_V1.0.2/MSDK/lwip/libcoap-4.3.4/src\coap_option.c **** 
 480:C:/Users/stapi/OneDrive/Desktop/GD32VW553/V1_MQTT_OK/GD32VW55X_Wifi_BLE_SDK/GD32VW55x_RELEASE_V1.0.2/MSDK/lwip/libcoap-4.3.4/src\coap_option.c ****   if (is_long_option(number)) {
 481:C:/Users/stapi/OneDrive/Desktop/GD32VW553/V1_MQTT_OK/GD32VW55X_Wifi_BLE_SDK/GD32VW55x_RELEASE_V1.0.2/MSDK/lwip/libcoap-4.3.4/src\coap_option.c ****     of->long_opts[lindex - 1] = number;
 482:C:/Users/stapi/OneDrive/Desktop/GD32VW553/V1_MQTT_OK/GD32VW55X_Wifi_BLE_SDK/GD32VW55x_RELEASE_V1.0.2/MSDK/lwip/libcoap-4.3.4/src\coap_option.c ****   } else {
 483:C:/Users/stapi/OneDrive/Desktop/GD32VW553/V1_MQTT_OK/GD32VW55X_Wifi_BLE_SDK/GD32VW55x_RELEASE_V1.0.2/MSDK/lwip/libcoap-4.3.4/src\coap_option.c ****     of->short_opts[lindex - COAP_OPT_FILTER_LONG - 1] = (uint8_t)number;
 484:C:/Users/stapi/OneDrive/Desktop/GD32VW553/V1_MQTT_OK/GD32VW55X_Wifi_BLE_SDK/GD32VW55x_RELEASE_V1.0.2/MSDK/lwip/libcoap-4.3.4/src\coap_option.c ****   }
 485:C:/Users/stapi/OneDrive/Desktop/GD32VW553/V1_MQTT_OK/GD32VW55X_Wifi_BLE_SDK/GD32VW55x_RELEASE_V1.0.2/MSDK/lwip/libcoap-4.3.4/src\coap_option.c **** 
 486:C:/Users/stapi/OneDrive/Desktop/GD32VW553/V1_MQTT_OK/GD32VW55X_Wifi_BLE_SDK/GD32VW55x_RELEASE_V1.0.2/MSDK/lwip/libcoap-4.3.4/src\coap_option.c ****   of->mask |= 1 << (lindex - 1);
 487:C:/Users/stapi/OneDrive/Desktop/GD32VW553/V1_MQTT_OK/GD32VW55X_Wifi_BLE_SDK/GD32VW55x_RELEASE_V1.0.2/MSDK/lwip/libcoap-4.3.4/src\coap_option.c **** 
 488:C:/Users/stapi/OneDrive/Desktop/GD32VW553/V1_MQTT_OK/GD32VW55X_Wifi_BLE_SDK/GD32VW55x_RELEASE_V1.0.2/MSDK/lwip/libcoap-4.3.4/src\coap_option.c ****   return 1;
 489:C:/Users/stapi/OneDrive/Desktop/GD32VW553/V1_MQTT_OK/GD32VW55X_Wifi_BLE_SDK/GD32VW55x_RELEASE_V1.0.2/MSDK/lwip/libcoap-4.3.4/src\coap_option.c **** }
  79              		.loc 1 489 1
  80 0046 17030000 		tail	__riscv_restore_2
  80      67000300 
  81              		.cfi_remember_state
  82              		.cfi_restore 9
  83              		.cfi_restore 8
  84              		.cfi_restore 1
  85              		.cfi_def_cfa_offset 0
  86              	.LVL7:
  87              	.L2:
  88              		.cfi_restore_state
  89 004e 93066500 		addi	a3,a0,6
  90 0052 9305C500 		addi	a1,a0,12
  91              	.LVL8:
 455:C:/Users/stapi/OneDrive/Desktop/GD32VW553/V1_MQTT_OK/GD32VW55X_Wifi_BLE_SDK/GD32VW55x_RELEASE_V1.0.2/MSDK/lwip/libcoap-4.3.4/src\coap_option.c ****          nr <<= 1, lindex++) {
  92              		.loc 1 455 13
  93 0056 9147     		li	a5,4
  94              	.LVL9:
  95              	.L8:
 458:C:/Users/stapi/OneDrive/Desktop/GD32VW553/V1_MQTT_OK/GD32VW55X_Wifi_BLE_SDK/GD32VW55x_RELEASE_V1.0.2/MSDK/lwip/libcoap-4.3.4/src\coap_option.c ****         if (op == FILTER_CLEAR) {
  96              		.loc 1 458 7 is_stmt 1
 458:C:/Users/stapi/OneDrive/Desktop/GD32VW553/V1_MQTT_OK/GD32VW55X_Wifi_BLE_SDK/GD32VW55x_RELEASE_V1.0.2/MSDK/lwip/libcoap-4.3.4/src\coap_option.c ****         if (op == FILTER_CLEAR) {
  97              		.loc 1 458 10 is_stmt 0
  98 0058 3375F700 		and	a0,a4,a5
  99 005c 09C5     		beq	a0,zero,.L7
 458:C:/Users/stapi/OneDrive/Desktop/GD32VW553/V1_MQTT_OK/GD32VW55X_Wifi_BLE_SDK/GD32VW55x_RELEASE_V1.0.2/MSDK/lwip/libcoap-4.3.4/src\coap_option.c ****         if (op == FILTER_CLEAR) {
 100              		.loc 1 458 51 discriminator 1
 101 005e 03C50600 		lbu	a0,0(a3)
 458:C:/Users/stapi/OneDrive/Desktop/GD32VW553/V1_MQTT_OK/GD32VW55X_Wifi_BLE_SDK/GD32VW55x_RELEASE_V1.0.2/MSDK/lwip/libcoap-4.3.4/src\coap_option.c ****         if (op == FILTER_CLEAR) {
 102              		.loc 1 458 33 discriminator 1
 103 0062 E30B95FC 		beq	a0,s1,.L30
 104              	.L7:
 456:C:/Users/stapi/OneDrive/Desktop/GD32VW553/V1_MQTT_OK/GD32VW55X_Wifi_BLE_SDK/GD32VW55x_RELEASE_V1.0.2/MSDK/lwip/libcoap-4.3.4/src\coap_option.c **** 
 105              		.loc 1 456 10 is_stmt 1
 456:C:/Users/stapi/OneDrive/Desktop/GD32VW553/V1_MQTT_OK/GD32VW55X_Wifi_BLE_SDK/GD32VW55x_RELEASE_V1.0.2/MSDK/lwip/libcoap-4.3.4/src\coap_option.c **** 
 106              		.loc 1 456 13 is_stmt 0
 107 0066 8607     		slli	a5,a5,1
 108              	.LVL10:
 455:C:/Users/stapi/OneDrive/Desktop/GD32VW553/V1_MQTT_OK/GD32VW55X_Wifi_BLE_SDK/GD32VW55x_RELEASE_V1.0.2/MSDK/lwip/libcoap-4.3.4/src\coap_option.c ****          nr <<= 1, lindex++) {
 109              		.loc 1 455 5
 110 0068 8506     		addi	a3,a3,1
 111              	.LVL11:
 456:C:/Users/stapi/OneDrive/Desktop/GD32VW553/V1_MQTT_OK/GD32VW55X_Wifi_BLE_SDK/GD32VW55x_RELEASE_V1.0.2/MSDK/lwip/libcoap-4.3.4/src\coap_option.c **** 
 112              		.loc 1 456 13
 113 006a B3C70708 		zext.h	a5,a5
 114              	.LVL12:
 455:C:/Users/stapi/OneDrive/Desktop/GD32VW553/V1_MQTT_OK/GD32VW55X_Wifi_BLE_SDK/GD32VW55x_RELEASE_V1.0.2/MSDK/lwip/libcoap-4.3.4/src\coap_option.c ****          nr <<= 1, lindex++) {
 115              		.loc 1 455 42 is_stmt 1
 455:C:/Users/stapi/OneDrive/Desktop/GD32VW553/V1_MQTT_OK/GD32VW55X_Wifi_BLE_SDK/GD32VW55x_RELEASE_V1.0.2/MSDK/lwip/libcoap-4.3.4/src\coap_option.c ****          nr <<= 1, lindex++) {
 116              		.loc 1 455 5 is_stmt 0
 117 006e E395B6FE 		bne	a3,a1,.L8
 453:C:/Users/stapi/OneDrive/Desktop/GD32VW553/V1_MQTT_OK/GD32VW55X_Wifi_BLE_SDK/GD32VW55x_RELEASE_V1.0.2/MSDK/lwip/libcoap-4.3.4/src\coap_option.c **** 
 118              		.loc 1 453 10
 119 0072 1305C00F 		li	a0,252
 120              	.LVL13:
 121              	.L5:
 469:C:/Users/stapi/OneDrive/Desktop/GD32VW553/V1_MQTT_OK/GD32VW55X_Wifi_BLE_SDK/GD32VW55x_RELEASE_V1.0.2/MSDK/lwip/libcoap-4.3.4/src\coap_option.c ****     return 0;
 122              		.loc 1 469 3 is_stmt 1
 469:C:/Users/stapi/OneDrive/Desktop/GD32VW553/V1_MQTT_OK/GD32VW55X_Wifi_BLE_SDK/GD32VW55x_RELEASE_V1.0.2/MSDK/lwip/libcoap-4.3.4/src\coap_option.c ****     return 0;
 123              		.loc 1 469 28 is_stmt 0
 124 0076 7D16     		addi	a2,a2,-1
 125              	.LVL14:
 469:C:/Users/stapi/OneDrive/Desktop/GD32VW553/V1_MQTT_OK/GD32VW55X_Wifi_BLE_SDK/GD32VW55x_RELEASE_V1.0.2/MSDK/lwip/libcoap-4.3.4/src\coap_option.c ****     return 0;
 126              		.loc 1 469 6
 127 0078 8547     		li	a5,1
 128 007a 63E6C700 		bgtu	a2,a5,.L9
 129              	.LVL15:
 130              	.L10:
 470:C:/Users/stapi/OneDrive/Desktop/GD32VW553/V1_MQTT_OK/GD32VW55X_Wifi_BLE_SDK/GD32VW55x_RELEASE_V1.0.2/MSDK/lwip/libcoap-4.3.4/src\coap_option.c ****   }
 131              		.loc 1 470 12
 132 007e 0145     		li	a0,0
 133 0080 D9B7     		j	.L1
 134              	.LVL16:
 135              	.L13:
 440:C:/Users/stapi/OneDrive/Desktop/GD32VW553/V1_MQTT_OK/GD32VW55X_Wifi_BLE_SDK/GD32VW55x_RELEASE_V1.0.2/MSDK/lwip/libcoap-4.3.4/src\coap_option.c **** 
 136              		.loc 1 440 10
 137 0082 0D45     		li	a0,3
 138 0084 CDBF     		j	.L5
 139              	.LVL17:
 140              	.L9:
 475:C:/Users/stapi/OneDrive/Desktop/GD32VW553/V1_MQTT_OK/GD32VW55X_Wifi_BLE_SDK/GD32VW55x_RELEASE_V1.0.2/MSDK/lwip/libcoap-4.3.4/src\coap_option.c ****   if (!lindex) {
 141              		.loc 1 475 3 is_stmt 1
 475:C:/Users/stapi/OneDrive/Desktop/GD32VW553/V1_MQTT_OK/GD32VW55X_Wifi_BLE_SDK/GD32VW55x_RELEASE_V1.0.2/MSDK/lwip/libcoap-4.3.4/src\coap_option.c ****   if (!lindex) {
 142              		.loc 1 475 12 is_stmt 0
 143 0086 3375E540 		andn	a0,a0,a4
 144              	.LVL18:
 145 008a 97000000 		call	coap_fls
 145      E7800000 
 146              	.LVL19:
 476:C:/Users/stapi/OneDrive/Desktop/GD32VW553/V1_MQTT_OK/GD32VW55X_Wifi_BLE_SDK/GD32VW55x_RELEASE_V1.0.2/MSDK/lwip/libcoap-4.3.4/src\coap_option.c ****     return 0;
 147              		.loc 1 476 3 is_stmt 1
 476:C:/Users/stapi/OneDrive/Desktop/GD32VW553/V1_MQTT_OK/GD32VW55X_Wifi_BLE_SDK/GD32VW55x_RELEASE_V1.0.2/MSDK/lwip/libcoap-4.3.4/src\coap_option.c ****     return 0;
 148              		.loc 1 476 6 is_stmt 0
 149 0092 75D5     		beq	a0,zero,.L10
 480:C:/Users/stapi/OneDrive/Desktop/GD32VW553/V1_MQTT_OK/GD32VW55X_Wifi_BLE_SDK/GD32VW55x_RELEASE_V1.0.2/MSDK/lwip/libcoap-4.3.4/src\coap_option.c ****     of->long_opts[lindex - 1] = number;
 150              		.loc 1 480 3 is_stmt 1
 151              	.LVL20:
 406:C:/Users/stapi/OneDrive/Desktop/GD32VW553/V1_MQTT_OK/GD32VW55X_Wifi_BLE_SDK/GD32VW55x_RELEASE_V1.0.2/MSDK/lwip/libcoap-4.3.4/src\coap_option.c **** }
 152              		.loc 1 406 3
 480:C:/Users/stapi/OneDrive/Desktop/GD32VW553/V1_MQTT_OK/GD32VW55X_Wifi_BLE_SDK/GD32VW55x_RELEASE_V1.0.2/MSDK/lwip/libcoap-4.3.4/src\coap_option.c ****     of->long_opts[lindex - 1] = number;
 153              		.loc 1 480 6 is_stmt 0
 154 0094 9307F00F 		li	a5,255
 481:C:/Users/stapi/OneDrive/Desktop/GD32VW553/V1_MQTT_OK/GD32VW55X_Wifi_BLE_SDK/GD32VW55x_RELEASE_V1.0.2/MSDK/lwip/libcoap-4.3.4/src\coap_option.c ****   } else {
 155              		.loc 1 481 26
 156 0098 1307F5FF 		addi	a4,a0,-1
 480:C:/Users/stapi/OneDrive/Desktop/GD32VW553/V1_MQTT_OK/GD32VW55X_Wifi_BLE_SDK/GD32VW55x_RELEASE_V1.0.2/MSDK/lwip/libcoap-4.3.4/src\coap_option.c ****     of->long_opts[lindex - 1] = number;
 157              		.loc 1 480 6
 158 009c 63FE9700 		bleu	s1,a5,.L11
 481:C:/Users/stapi/OneDrive/Desktop/GD32VW553/V1_MQTT_OK/GD32VW55X_Wifi_BLE_SDK/GD32VW55x_RELEASE_V1.0.2/MSDK/lwip/libcoap-4.3.4/src\coap_option.c ****   } else {
 159              		.loc 1 481 5 is_stmt 1
 481:C:/Users/stapi/OneDrive/Desktop/GD32VW553/V1_MQTT_OK/GD32VW55X_Wifi_BLE_SDK/GD32VW55x_RELEASE_V1.0.2/MSDK/lwip/libcoap-4.3.4/src\coap_option.c ****   } else {
 160              		.loc 1 481 31 is_stmt 0
 161 00a0 B3278720 		sh1add	a5,a4,s0
 162 00a4 23919700 		sh	s1,2(a5)
 163              	.LVL21:
 164              	.L12:
 486:C:/Users/stapi/OneDrive/Desktop/GD32VW553/V1_MQTT_OK/GD32VW55X_Wifi_BLE_SDK/GD32VW55x_RELEASE_V1.0.2/MSDK/lwip/libcoap-4.3.4/src\coap_option.c **** 
 165              		.loc 1 486 3 is_stmt 1
 486:C:/Users/stapi/OneDrive/Desktop/GD32VW553/V1_MQTT_OK/GD32VW55X_Wifi_BLE_SDK/GD32VW55x_RELEASE_V1.0.2/MSDK/lwip/libcoap-4.3.4/src\coap_option.c **** 
 166              		.loc 1 486 12 is_stmt 0
 167 00a8 83570400 		lhu	a5,0(s0)
 488:C:/Users/stapi/OneDrive/Desktop/GD32VW553/V1_MQTT_OK/GD32VW55X_Wifi_BLE_SDK/GD32VW55x_RELEASE_V1.0.2/MSDK/lwip/libcoap-4.3.4/src\coap_option.c **** }
 168              		.loc 1 488 10
 169 00ac 0545     		li	a0,1
 486:C:/Users/stapi/OneDrive/Desktop/GD32VW553/V1_MQTT_OK/GD32VW55X_Wifi_BLE_SDK/GD32VW55x_RELEASE_V1.0.2/MSDK/lwip/libcoap-4.3.4/src\coap_option.c **** 
 170              		.loc 1 486 12
 171 00ae B397E728 		bset	a5,a5,a4
 172 00b2 2310F400 		sh	a5,0(s0)
 488:C:/Users/stapi/OneDrive/Desktop/GD32VW553/V1_MQTT_OK/GD32VW55X_Wifi_BLE_SDK/GD32VW55x_RELEASE_V1.0.2/MSDK/lwip/libcoap-4.3.4/src\coap_option.c **** }
 173              		.loc 1 488 3 is_stmt 1
 488:C:/Users/stapi/OneDrive/Desktop/GD32VW553/V1_MQTT_OK/GD32VW55X_Wifi_BLE_SDK/GD32VW55x_RELEASE_V1.0.2/MSDK/lwip/libcoap-4.3.4/src\coap_option.c **** }
 174              		.loc 1 488 10 is_stmt 0
 175 00b6 41BF     		j	.L1
 176              	.LVL22:
 177              	.L11:
 483:C:/Users/stapi/OneDrive/Desktop/GD32VW553/V1_MQTT_OK/GD32VW55X_Wifi_BLE_SDK/GD32VW55x_RELEASE_V1.0.2/MSDK/lwip/libcoap-4.3.4/src\coap_option.c ****   }
 178              		.loc 1 483 5 is_stmt 1
 483:C:/Users/stapi/OneDrive/Desktop/GD32VW553/V1_MQTT_OK/GD32VW55X_Wifi_BLE_SDK/GD32VW55x_RELEASE_V1.0.2/MSDK/lwip/libcoap-4.3.4/src\coap_option.c ****   }
 179              		.loc 1 483 55 is_stmt 0
 180 00b8 2295     		add	a0,s0,a0
 181              	.LVL23:
 483:C:/Users/stapi/OneDrive/Desktop/GD32VW553/V1_MQTT_OK/GD32VW55X_Wifi_BLE_SDK/GD32VW55x_RELEASE_V1.0.2/MSDK/lwip/libcoap-4.3.4/src\coap_option.c ****   }
 182              		.loc 1 483 57
 183 00ba A3019500 		sb	s1,3(a0)
 184 00be EDB7     		j	.L12
 185              		.cfi_endproc
 186              	.LFE43:
 188              		.section	.rodata.coap_opt_parse.str1.4,"aMS",@progbits,1
 189              		.align	2
 190              	.LC0:
 191 0000 6F707400 		.string	"opt"
 192              		.align	2
 193              	.LC1:
 194 0004 433A2F55 		.string	"C:/Users/stapi/OneDrive/Desktop/GD32VW553/V1_MQTT_OK/GD32VW55X_Wifi_BLE_SDK/GD32VW55x_REL
 194      73657273 
 194      2F737461 
 194      70692F4F 
 194      6E654472 
 195 0093 00       		.align	2
 196              	.LC2:
 197 0094 72657375 		.string	"result"
 197      6C7400
 198 009b 00       		.align	2
 199              	.LC3:
 200 009c 69676E6F 		.string	"ignored reserved option delta 15\n"
 200      72656420 
 200      72657365 
 200      72766564 
 200      206F7074 
 201 00be 0000     		.align	2
 202              	.LC4:
 203 00c0 64656C74 		.string	"delta too large\n"
 203      6120746F 
 203      6F206C61 
 203      7267650A 
 203      00
 204 00d1 000000   		.align	2
 205              	.LC5:
 206 00d4 666F756E 		.string	"found reserved option length 15\n"
 206      64207265 
 206      73657276 
 206      6564206F 
 206      7074696F 
 207 00f5 000000   		.align	2
 208              	.LC6:
 209 00f8 696E7661 		.string	"invalid option length\n"
 209      6C696420 
 209      6F707469 
 209      6F6E206C 
 209      656E6774 
 210              		.section	.text.coap_opt_parse,"ax",@progbits
 211              		.align	1
 212              		.globl	coap_opt_parse
 214              	coap_opt_parse:
 215              	.LFB31:
  42:C:/Users/stapi/OneDrive/Desktop/GD32VW553/V1_MQTT_OK/GD32VW55X_Wifi_BLE_SDK/GD32VW55x_RELEASE_V1.0.2/MSDK/lwip/libcoap-4.3.4/src\coap_option.c **** 
 216              		.loc 1 42 77 is_stmt 1
 217              		.cfi_startproc
 218              	.LVL24:
 219 0000 17030000 		call	t0,__riscv_save_0
 219      E7020300 
 220              		.cfi_offset 1, -4
 221              		.cfi_def_cfa_offset 16
  44:C:/Users/stapi/OneDrive/Desktop/GD32VW553/V1_MQTT_OK/GD32VW55X_Wifi_BLE_SDK/GD32VW55x_RELEASE_V1.0.2/MSDK/lwip/libcoap-4.3.4/src\coap_option.c **** 
 222              		.loc 1 44 3
 223              	.LVL25:
  46:C:/Users/stapi/OneDrive/Desktop/GD32VW553/V1_MQTT_OK/GD32VW55X_Wifi_BLE_SDK/GD32VW55x_RELEASE_V1.0.2/MSDK/lwip/libcoap-4.3.4/src\coap_option.c ****   assert(result);
 224              		.loc 1 46 3
 225 0008 1DE1     		bne	a0,zero,.L32
  46:C:/Users/stapi/OneDrive/Desktop/GD32VW553/V1_MQTT_OK/GD32VW55X_Wifi_BLE_SDK/GD32VW55x_RELEASE_V1.0.2/MSDK/lwip/libcoap-4.3.4/src\coap_option.c ****   assert(result);
 226              		.loc 1 46 3 is_stmt 0 discriminator 1
 227 000a B7060000 		lui	a3,%hi(.LC0)
 228 000e 37060000 		lui	a2,%hi(.LANCHOR0)
 229              	.LVL26:
 230 0012 93860600 		addi	a3,a3,%lo(.LC0)
 231 0016 13060600 		addi	a2,a2,%lo(.LANCHOR0)
 232 001a 9305E002 		li	a1,46
 233              	.LVL27:
 234              	.L67:
  47:C:/Users/stapi/OneDrive/Desktop/GD32VW553/V1_MQTT_OK/GD32VW55X_Wifi_BLE_SDK/GD32VW55x_RELEASE_V1.0.2/MSDK/lwip/libcoap-4.3.4/src\coap_option.c **** 
 235              		.loc 1 47 3 discriminator 1
 236 001e 37050000 		lui	a0,%hi(.LC1)
 237              	.LVL28:
 238 0022 13050500 		addi	a0,a0,%lo(.LC1)
 239 0026 97000000 		call	__assert_func
 239      E7800000 
 240              	.LVL29:
 241              	.L32:
  47:C:/Users/stapi/OneDrive/Desktop/GD32VW553/V1_MQTT_OK/GD32VW55X_Wifi_BLE_SDK/GD32VW55x_RELEASE_V1.0.2/MSDK/lwip/libcoap-4.3.4/src\coap_option.c **** 
 242              		.loc 1 47 3 is_stmt 1
 243 002e 01EE     		bne	a2,zero,.L33
  47:C:/Users/stapi/OneDrive/Desktop/GD32VW553/V1_MQTT_OK/GD32VW55X_Wifi_BLE_SDK/GD32VW55x_RELEASE_V1.0.2/MSDK/lwip/libcoap-4.3.4/src\coap_option.c **** 
 244              		.loc 1 47 3 is_stmt 0 discriminator 1
 245 0030 B7060000 		lui	a3,%hi(.LC2)
 246 0034 37060000 		lui	a2,%hi(.LANCHOR0)
 247              	.LVL30:
 248 0038 93860600 		addi	a3,a3,%lo(.LC2)
 249 003c 13060600 		addi	a2,a2,%lo(.LANCHOR0)
 250 0040 9305F002 		li	a1,47
 251              	.LVL31:
 252 0044 E9BF     		j	.L67
 253              	.LVL32:
 254              	.L33:
  49:C:/Users/stapi/OneDrive/Desktop/GD32VW553/V1_MQTT_OK/GD32VW55X_Wifi_BLE_SDK/GD32VW55x_RELEASE_V1.0.2/MSDK/lwip/libcoap-4.3.4/src\coap_option.c ****     return 0;
 255              		.loc 1 49 3 is_stmt 1
  49:C:/Users/stapi/OneDrive/Desktop/GD32VW553/V1_MQTT_OK/GD32VW55X_Wifi_BLE_SDK/GD32VW55x_RELEASE_V1.0.2/MSDK/lwip/libcoap-4.3.4/src\coap_option.c ****     return 0;
 256              		.loc 1 49 6 is_stmt 0
 257 0046 91E5     		bne	a1,zero,.L34
 258              	.LVL33:
 259              	.L66:
 260              	.LBB8:
 261              	.LBB9:
 108:C:/Users/stapi/OneDrive/Desktop/GD32VW553/V1_MQTT_OK/GD32VW55X_Wifi_BLE_SDK/GD32VW55x_RELEASE_V1.0.2/MSDK/lwip/libcoap-4.3.4/src\coap_option.c ****   }
 262              		.loc 1 108 12
 263 0048 0145     		li	a0,0
 264              	.L31:
 265              	.LBE9:
 266              	.LBE8:
 115:C:/Users/stapi/OneDrive/Desktop/GD32VW553/V1_MQTT_OK/GD32VW55X_Wifi_BLE_SDK/GD32VW55x_RELEASE_V1.0.2/MSDK/lwip/libcoap-4.3.4/src\coap_option.c **** 
 267              		.loc 1 115 1
 268 004a 17030000 		tail	__riscv_restore_0
 268      67000300 
 269              		.cfi_remember_state
 270              		.cfi_restore 1
 271              		.cfi_def_cfa_offset 0
 272              	.LVL34:
 273              	.L34:
 274              		.cfi_restore_state
 275              	.LBB11:
 276              	.LBB10:
  52:C:/Users/stapi/OneDrive/Desktop/GD32VW553/V1_MQTT_OK/GD32VW55X_Wifi_BLE_SDK/GD32VW55x_RELEASE_V1.0.2/MSDK/lwip/libcoap-4.3.4/src\coap_option.c ****   result->length = *opt & 0x0f;
 277              		.loc 1 52 3 is_stmt 1
  52:C:/Users/stapi/OneDrive/Desktop/GD32VW553/V1_MQTT_OK/GD32VW55X_Wifi_BLE_SDK/GD32VW55x_RELEASE_V1.0.2/MSDK/lwip/libcoap-4.3.4/src\coap_option.c ****   result->length = *opt & 0x0f;
 278              		.loc 1 52 33 is_stmt 0
 279 0052 83470500 		lbu	a5,0(a0)
  55:C:/Users/stapi/OneDrive/Desktop/GD32VW553/V1_MQTT_OK/GD32VW55X_Wifi_BLE_SDK/GD32VW55x_RELEASE_V1.0.2/MSDK/lwip/libcoap-4.3.4/src\coap_option.c ****   case 15:
 280              		.loc 1 55 3
 281 0056 B948     		li	a7,14
  52:C:/Users/stapi/OneDrive/Desktop/GD32VW553/V1_MQTT_OK/GD32VW55X_Wifi_BLE_SDK/GD32VW55x_RELEASE_V1.0.2/MSDK/lwip/libcoap-4.3.4/src\coap_option.c ****   result->length = *opt & 0x0f;
 282              		.loc 1 52 33
 283 0058 9183     		srli	a5,a5,4
 284 005a 2310F600 		sh	a5,0(a2)
  53:C:/Users/stapi/OneDrive/Desktop/GD32VW553/V1_MQTT_OK/GD32VW55X_Wifi_BLE_SDK/GD32VW55x_RELEASE_V1.0.2/MSDK/lwip/libcoap-4.3.4/src\coap_option.c **** 
 285              		.loc 1 53 3 is_stmt 1
 286 005e 03470500 		lbu	a4,0(a0)
 287 0062 3D8B     		andi	a4,a4,15
  53:C:/Users/stapi/OneDrive/Desktop/GD32VW553/V1_MQTT_OK/GD32VW55X_Wifi_BLE_SDK/GD32VW55x_RELEASE_V1.0.2/MSDK/lwip/libcoap-4.3.4/src\coap_option.c **** 
 288              		.loc 1 53 25 is_stmt 0
 289 0064 58C2     		sw	a4,4(a2)
  55:C:/Users/stapi/OneDrive/Desktop/GD32VW553/V1_MQTT_OK/GD32VW55X_Wifi_BLE_SDK/GD32VW55x_RELEASE_V1.0.2/MSDK/lwip/libcoap-4.3.4/src\coap_option.c ****   case 15:
 290              		.loc 1 55 3 is_stmt 1
 291 0066 63811705 		beq	a5,a7,.L36
 292 006a 3D48     		li	a6,15
 293 006c 63870701 		beq	a5,a6,.L37
 294 0070 B546     		li	a3,13
 295 0072 639AD70C 		bne	a5,a3,.L63
 296 0076 AA86     		mv	a3,a0
 297 0078 89A8     		j	.L38
 298              	.L37:
  57:C:/Users/stapi/OneDrive/Desktop/GD32VW553/V1_MQTT_OK/GD32VW55X_Wifi_BLE_SDK/GD32VW55x_RELEASE_V1.0.2/MSDK/lwip/libcoap-4.3.4/src\coap_option.c ****       coap_log_debug("ignored reserved option delta 15\n");
 299              		.loc 1 57 5
  57:C:/Users/stapi/OneDrive/Desktop/GD32VW553/V1_MQTT_OK/GD32VW55X_Wifi_BLE_SDK/GD32VW55x_RELEASE_V1.0.2/MSDK/lwip/libcoap-4.3.4/src\coap_option.c ****       coap_log_debug("ignored reserved option delta 15\n");
 300              		.loc 1 57 8 is_stmt 0
 301 007a 03470500 		lbu	a4,0(a0)
 302 007e 9307F00F 		li	a5,255
 303 0082 E303F7FC 		beq	a4,a5,.L66
  58:C:/Users/stapi/OneDrive/Desktop/GD32VW553/V1_MQTT_OK/GD32VW55X_Wifi_BLE_SDK/GD32VW55x_RELEASE_V1.0.2/MSDK/lwip/libcoap-4.3.4/src\coap_option.c ****     }
 304              		.loc 1 58 7 is_stmt 1
  58:C:/Users/stapi/OneDrive/Desktop/GD32VW553/V1_MQTT_OK/GD32VW55X_Wifi_BLE_SDK/GD32VW55x_RELEASE_V1.0.2/MSDK/lwip/libcoap-4.3.4/src\coap_option.c ****     }
 305              		.loc 1 58 7
 306 0086 97000000 		call	coap_get_log_level
 306      E7800000 
 307              	.LVL35:
 308 008e 9947     		li	a5,6
 309 0090 E3DCA7FA 		ble	a0,a5,.L66
  58:C:/Users/stapi/OneDrive/Desktop/GD32VW553/V1_MQTT_OK/GD32VW55X_Wifi_BLE_SDK/GD32VW55x_RELEASE_V1.0.2/MSDK/lwip/libcoap-4.3.4/src\coap_option.c ****     }
 310              		.loc 1 58 7
 311 0094 B7050000 		lui	a1,%hi(.LC3)
 312 0098 93850500 		addi	a1,a1,%lo(.LC3)
 313              	.LVL36:
 314              	.L65:
 107:C:/Users/stapi/OneDrive/Desktop/GD32VW553/V1_MQTT_OK/GD32VW55X_Wifi_BLE_SDK/GD32VW55x_RELEASE_V1.0.2/MSDK/lwip/libcoap-4.3.4/src\coap_option.c ****     return 0;
 315              		.loc 1 107 5 is_stmt 0
 316 009c 1D45     		li	a0,7
 317 009e 97000000 		call	coap_log_impl
 317      E7800000 
 318              	.LVL37:
 319 00a6 4DB7     		j	.L66
 320              	.LVL38:
 321              	.L36:
  65:C:/Users/stapi/OneDrive/Desktop/GD32VW553/V1_MQTT_OK/GD32VW55X_Wifi_BLE_SDK/GD32VW55x_RELEASE_V1.0.2/MSDK/lwip/libcoap-4.3.4/src\coap_option.c ****     result->delta = ((*opt & 0xff) << 8) + 269;
 322              		.loc 1 65 5 is_stmt 1
  65:C:/Users/stapi/OneDrive/Desktop/GD32VW553/V1_MQTT_OK/GD32VW55X_Wifi_BLE_SDK/GD32VW55x_RELEASE_V1.0.2/MSDK/lwip/libcoap-4.3.4/src\coap_option.c ****     result->delta = ((*opt & 0xff) << 8) + 269;
 323              		.loc 1 65 5
  65:C:/Users/stapi/OneDrive/Desktop/GD32VW553/V1_MQTT_OK/GD32VW55X_Wifi_BLE_SDK/GD32VW55x_RELEASE_V1.0.2/MSDK/lwip/libcoap-4.3.4/src\coap_option.c ****     result->delta = ((*opt & 0xff) << 8) + 269;
 324              		.loc 1 65 5
 325 00a8 FD15     		addi	a1,a1,-1
 326              	.LVL39:
  65:C:/Users/stapi/OneDrive/Desktop/GD32VW553/V1_MQTT_OK/GD32VW55X_Wifi_BLE_SDK/GD32VW55x_RELEASE_V1.0.2/MSDK/lwip/libcoap-4.3.4/src\coap_option.c ****     result->delta = ((*opt & 0xff) << 8) + 269;
 327              		.loc 1 65 5
  65:C:/Users/stapi/OneDrive/Desktop/GD32VW553/V1_MQTT_OK/GD32VW55X_Wifi_BLE_SDK/GD32VW55x_RELEASE_V1.0.2/MSDK/lwip/libcoap-4.3.4/src\coap_option.c ****     result->delta = ((*opt & 0xff) << 8) + 269;
 328              		.loc 1 65 5
  65:C:/Users/stapi/OneDrive/Desktop/GD32VW553/V1_MQTT_OK/GD32VW55X_Wifi_BLE_SDK/GD32VW55x_RELEASE_V1.0.2/MSDK/lwip/libcoap-4.3.4/src\coap_option.c ****     result->delta = ((*opt & 0xff) << 8) + 269;
 329              		.loc 1 65 5
 330 00aa D9DD     		beq	a1,zero,.L66
  65:C:/Users/stapi/OneDrive/Desktop/GD32VW553/V1_MQTT_OK/GD32VW55X_Wifi_BLE_SDK/GD32VW55x_RELEASE_V1.0.2/MSDK/lwip/libcoap-4.3.4/src\coap_option.c ****     result->delta = ((*opt & 0xff) << 8) + 269;
 331              		.loc 1 65 5
  66:C:/Users/stapi/OneDrive/Desktop/GD32VW553/V1_MQTT_OK/GD32VW55X_Wifi_BLE_SDK/GD32VW55x_RELEASE_V1.0.2/MSDK/lwip/libcoap-4.3.4/src\coap_option.c ****     if (result->delta < 269) {
 332              		.loc 1 66 5
  66:C:/Users/stapi/OneDrive/Desktop/GD32VW553/V1_MQTT_OK/GD32VW55X_Wifi_BLE_SDK/GD32VW55x_RELEASE_V1.0.2/MSDK/lwip/libcoap-4.3.4/src\coap_option.c ****     if (result->delta < 269) {
 333              		.loc 1 66 23 is_stmt 0
 334 00ac 83471500 		lbu	a5,1(a0)
  67:C:/Users/stapi/OneDrive/Desktop/GD32VW553/V1_MQTT_OK/GD32VW55X_Wifi_BLE_SDK/GD32VW55x_RELEASE_V1.0.2/MSDK/lwip/libcoap-4.3.4/src\coap_option.c ****       coap_log_debug("delta too large\n");
 335              		.loc 1 67 8
 336 00b0 9306C010 		li	a3,268
  66:C:/Users/stapi/OneDrive/Desktop/GD32VW553/V1_MQTT_OK/GD32VW55X_Wifi_BLE_SDK/GD32VW55x_RELEASE_V1.0.2/MSDK/lwip/libcoap-4.3.4/src\coap_option.c ****     if (result->delta < 269) {
 337              		.loc 1 66 36
 338 00b4 A207     		slli	a5,a5,8
  66:C:/Users/stapi/OneDrive/Desktop/GD32VW553/V1_MQTT_OK/GD32VW55X_Wifi_BLE_SDK/GD32VW55x_RELEASE_V1.0.2/MSDK/lwip/libcoap-4.3.4/src\coap_option.c ****     if (result->delta < 269) {
 339              		.loc 1 66 42
 340 00b6 9387D710 		addi	a5,a5,269
 341 00ba B3C70708 		zext.h	a5,a5
  66:C:/Users/stapi/OneDrive/Desktop/GD32VW553/V1_MQTT_OK/GD32VW55X_Wifi_BLE_SDK/GD32VW55x_RELEASE_V1.0.2/MSDK/lwip/libcoap-4.3.4/src\coap_option.c ****     if (result->delta < 269) {
 342              		.loc 1 66 19
 343 00be 2310F600 		sh	a5,0(a2)
  67:C:/Users/stapi/OneDrive/Desktop/GD32VW553/V1_MQTT_OK/GD32VW55X_Wifi_BLE_SDK/GD32VW55x_RELEASE_V1.0.2/MSDK/lwip/libcoap-4.3.4/src\coap_option.c ****       coap_log_debug("delta too large\n");
 344              		.loc 1 67 5 is_stmt 1
  67:C:/Users/stapi/OneDrive/Desktop/GD32VW553/V1_MQTT_OK/GD32VW55X_Wifi_BLE_SDK/GD32VW55x_RELEASE_V1.0.2/MSDK/lwip/libcoap-4.3.4/src\coap_option.c ****       coap_log_debug("delta too large\n");
 345              		.loc 1 67 8 is_stmt 0
 346 00c2 63FAF604 		bleu	a5,a3,.L41
  65:C:/Users/stapi/OneDrive/Desktop/GD32VW553/V1_MQTT_OK/GD32VW55X_Wifi_BLE_SDK/GD32VW55x_RELEASE_V1.0.2/MSDK/lwip/libcoap-4.3.4/src\coap_option.c ****     result->delta = ((*opt & 0xff) << 8) + 269;
 347              		.loc 1 65 5
 348 00c6 93061500 		addi	a3,a0,1
 349              	.LVL40:
 350              	.L38:
  73:C:/Users/stapi/OneDrive/Desktop/GD32VW553/V1_MQTT_OK/GD32VW55X_Wifi_BLE_SDK/GD32VW55x_RELEASE_V1.0.2/MSDK/lwip/libcoap-4.3.4/src\coap_option.c ****     result->delta += *opt & 0xff;
 351              		.loc 1 73 5 is_stmt 1
 352 00ca FD15     		addi	a1,a1,-1
 353              	.LVL41:
  73:C:/Users/stapi/OneDrive/Desktop/GD32VW553/V1_MQTT_OK/GD32VW55X_Wifi_BLE_SDK/GD32VW55x_RELEASE_V1.0.2/MSDK/lwip/libcoap-4.3.4/src\coap_option.c ****     result->delta += *opt & 0xff;
 354              		.loc 1 73 5
  73:C:/Users/stapi/OneDrive/Desktop/GD32VW553/V1_MQTT_OK/GD32VW55X_Wifi_BLE_SDK/GD32VW55x_RELEASE_V1.0.2/MSDK/lwip/libcoap-4.3.4/src\coap_option.c ****     result->delta += *opt & 0xff;
 355              		.loc 1 73 5
  73:C:/Users/stapi/OneDrive/Desktop/GD32VW553/V1_MQTT_OK/GD32VW55X_Wifi_BLE_SDK/GD32VW55x_RELEASE_V1.0.2/MSDK/lwip/libcoap-4.3.4/src\coap_option.c ****     result->delta += *opt & 0xff;
 356              		.loc 1 73 5
 357 00cc B5DD     		beq	a1,zero,.L66
  74:C:/Users/stapi/OneDrive/Desktop/GD32VW553/V1_MQTT_OK/GD32VW55X_Wifi_BLE_SDK/GD32VW55x_RELEASE_V1.0.2/MSDK/lwip/libcoap-4.3.4/src\coap_option.c ****     break;
 358              		.loc 1 74 22 is_stmt 0
 359 00ce 03C81600 		lbu	a6,1(a3)
  73:C:/Users/stapi/OneDrive/Desktop/GD32VW553/V1_MQTT_OK/GD32VW55X_Wifi_BLE_SDK/GD32VW55x_RELEASE_V1.0.2/MSDK/lwip/libcoap-4.3.4/src\coap_option.c ****     result->delta += *opt & 0xff;
 360              		.loc 1 73 5
 361 00d2 93871600 		addi	a5,a3,1
 362              	.LVL42:
  73:C:/Users/stapi/OneDrive/Desktop/GD32VW553/V1_MQTT_OK/GD32VW55X_Wifi_BLE_SDK/GD32VW55x_RELEASE_V1.0.2/MSDK/lwip/libcoap-4.3.4/src\coap_option.c ****     result->delta += *opt & 0xff;
 363              		.loc 1 73 5 is_stmt 1
  74:C:/Users/stapi/OneDrive/Desktop/GD32VW553/V1_MQTT_OK/GD32VW55X_Wifi_BLE_SDK/GD32VW55x_RELEASE_V1.0.2/MSDK/lwip/libcoap-4.3.4/src\coap_option.c ****     break;
 364              		.loc 1 74 5
  74:C:/Users/stapi/OneDrive/Desktop/GD32VW553/V1_MQTT_OK/GD32VW55X_Wifi_BLE_SDK/GD32VW55x_RELEASE_V1.0.2/MSDK/lwip/libcoap-4.3.4/src\coap_option.c ****     break;
 365              		.loc 1 74 19 is_stmt 0
 366 00d6 83560600 		lhu	a3,0(a2)
 367 00da C296     		add	a3,a3,a6
 368 00dc 2310D600 		sh	a3,0(a2)
  75:C:/Users/stapi/OneDrive/Desktop/GD32VW553/V1_MQTT_OK/GD32VW55X_Wifi_BLE_SDK/GD32VW55x_RELEASE_V1.0.2/MSDK/lwip/libcoap-4.3.4/src\coap_option.c **** 
 369              		.loc 1 75 5 is_stmt 1
  78:C:/Users/stapi/OneDrive/Desktop/GD32VW553/V1_MQTT_OK/GD32VW55X_Wifi_BLE_SDK/GD32VW55x_RELEASE_V1.0.2/MSDK/lwip/libcoap-4.3.4/src\coap_option.c ****   }
 370              		.loc 1 78 5
  81:C:/Users/stapi/OneDrive/Desktop/GD32VW553/V1_MQTT_OK/GD32VW55X_Wifi_BLE_SDK/GD32VW55x_RELEASE_V1.0.2/MSDK/lwip/libcoap-4.3.4/src\coap_option.c ****   case 15:
 371              		.loc 1 81 3
 372 00e0 B946     		li	a3,14
 373 00e2 6309D706 		beq	a4,a3,.L42
 374 00e6 BD46     		li	a3,15
 375 00e8 6303D704 		beq	a4,a3,.L43
 376 00ec B546     		li	a3,13
 377              	.LVL43:
 378              	.L69:
 379 00ee 630DD706 		beq	a4,a3,.L44
 380              	.L45:
 381              	.LVL44:
 102:C:/Users/stapi/OneDrive/Desktop/GD32VW553/V1_MQTT_OK/GD32VW55X_Wifi_BLE_SDK/GD32VW55x_RELEASE_V1.0.2/MSDK/lwip/libcoap-4.3.4/src\coap_option.c ****   /* opt now points to value, if present */
 382              		.loc 1 102 3
 102:C:/Users/stapi/OneDrive/Desktop/GD32VW553/V1_MQTT_OK/GD32VW55X_Wifi_BLE_SDK/GD32VW55x_RELEASE_V1.0.2/MSDK/lwip/libcoap-4.3.4/src\coap_option.c ****   /* opt now points to value, if present */
 383              		.loc 1 102 3
 106:C:/Users/stapi/OneDrive/Desktop/GD32VW553/V1_MQTT_OK/GD32VW55X_Wifi_BLE_SDK/GD32VW55x_RELEASE_V1.0.2/MSDK/lwip/libcoap-4.3.4/src\coap_option.c ****     coap_log_debug("invalid option length\n");
 384              		.loc 1 106 22 is_stmt 0
 385 00f2 5842     		lw	a4,4(a2)
 102:C:/Users/stapi/OneDrive/Desktop/GD32VW553/V1_MQTT_OK/GD32VW55X_Wifi_BLE_SDK/GD32VW55x_RELEASE_V1.0.2/MSDK/lwip/libcoap-4.3.4/src\coap_option.c ****   /* opt now points to value, if present */
 386              		.loc 1 102 3
 387 00f4 8507     		addi	a5,a5,1
 388              	.LVL45:
 102:C:/Users/stapi/OneDrive/Desktop/GD32VW553/V1_MQTT_OK/GD32VW55X_Wifi_BLE_SDK/GD32VW55x_RELEASE_V1.0.2/MSDK/lwip/libcoap-4.3.4/src\coap_option.c ****   /* opt now points to value, if present */
 389              		.loc 1 102 28 is_stmt 1
 105:C:/Users/stapi/OneDrive/Desktop/GD32VW553/V1_MQTT_OK/GD32VW55X_Wifi_BLE_SDK/GD32VW55x_RELEASE_V1.0.2/MSDK/lwip/libcoap-4.3.4/src\coap_option.c ****   if (length < result->length) {
 390              		.loc 1 105 3
 105:C:/Users/stapi/OneDrive/Desktop/GD32VW553/V1_MQTT_OK/GD32VW55X_Wifi_BLE_SDK/GD32VW55x_RELEASE_V1.0.2/MSDK/lwip/libcoap-4.3.4/src\coap_option.c ****   if (length < result->length) {
 391              		.loc 1 105 17 is_stmt 0
 392 00f6 1CC6     		sw	a5,8(a2)
 106:C:/Users/stapi/OneDrive/Desktop/GD32VW553/V1_MQTT_OK/GD32VW55X_Wifi_BLE_SDK/GD32VW55x_RELEASE_V1.0.2/MSDK/lwip/libcoap-4.3.4/src\coap_option.c ****     coap_log_debug("invalid option length\n");
 393              		.loc 1 106 3 is_stmt 1
 102:C:/Users/stapi/OneDrive/Desktop/GD32VW553/V1_MQTT_OK/GD32VW55X_Wifi_BLE_SDK/GD32VW55x_RELEASE_V1.0.2/MSDK/lwip/libcoap-4.3.4/src\coap_option.c ****   /* opt now points to value, if present */
 394              		.loc 1 102 3 is_stmt 0
 395 00f8 FD15     		addi	a1,a1,-1
 396              	.LVL46:
 106:C:/Users/stapi/OneDrive/Desktop/GD32VW553/V1_MQTT_OK/GD32VW55X_Wifi_BLE_SDK/GD32VW55x_RELEASE_V1.0.2/MSDK/lwip/libcoap-4.3.4/src\coap_option.c ****     coap_log_debug("invalid option length\n");
 397              		.loc 1 106 6
 398 00fa 63F1E508 		bgeu	a1,a4,.L47
 107:C:/Users/stapi/OneDrive/Desktop/GD32VW553/V1_MQTT_OK/GD32VW55X_Wifi_BLE_SDK/GD32VW55x_RELEASE_V1.0.2/MSDK/lwip/libcoap-4.3.4/src\coap_option.c ****     return 0;
 399              		.loc 1 107 5 is_stmt 1
 107:C:/Users/stapi/OneDrive/Desktop/GD32VW553/V1_MQTT_OK/GD32VW55X_Wifi_BLE_SDK/GD32VW55x_RELEASE_V1.0.2/MSDK/lwip/libcoap-4.3.4/src\coap_option.c ****     return 0;
 400              		.loc 1 107 5
 401 00fe 97000000 		call	coap_get_log_level
 401      E7800000 
 402              	.LVL47:
 403 0106 9947     		li	a5,6
 404 0108 E3D0A7F4 		ble	a0,a5,.L66
 107:C:/Users/stapi/OneDrive/Desktop/GD32VW553/V1_MQTT_OK/GD32VW55X_Wifi_BLE_SDK/GD32VW55x_RELEASE_V1.0.2/MSDK/lwip/libcoap-4.3.4/src\coap_option.c ****     return 0;
 405              		.loc 1 107 5
 406 010c B7050000 		lui	a1,%hi(.LC6)
 407 0110 93850500 		addi	a1,a1,%lo(.LC6)
 408 0114 61B7     		j	.L65
 409              	.LVL48:
 410              	.L41:
  68:C:/Users/stapi/OneDrive/Desktop/GD32VW553/V1_MQTT_OK/GD32VW55X_Wifi_BLE_SDK/GD32VW55x_RELEASE_V1.0.2/MSDK/lwip/libcoap-4.3.4/src\coap_option.c ****       return 0;
 411              		.loc 1 68 7
  68:C:/Users/stapi/OneDrive/Desktop/GD32VW553/V1_MQTT_OK/GD32VW55X_Wifi_BLE_SDK/GD32VW55x_RELEASE_V1.0.2/MSDK/lwip/libcoap-4.3.4/src\coap_option.c ****       return 0;
 412              		.loc 1 68 7
 413 0116 97000000 		call	coap_get_log_level
 413      E7800000 
 414              	.LVL49:
 415 011e 9947     		li	a5,6
 416 0120 E3D4A7F2 		ble	a0,a5,.L66
  68:C:/Users/stapi/OneDrive/Desktop/GD32VW553/V1_MQTT_OK/GD32VW55X_Wifi_BLE_SDK/GD32VW55x_RELEASE_V1.0.2/MSDK/lwip/libcoap-4.3.4/src\coap_option.c ****       return 0;
 417              		.loc 1 68 7
 418 0124 B7050000 		lui	a1,%hi(.LC4)
 419 0128 93850500 		addi	a1,a1,%lo(.LC4)
 420 012c 85BF     		j	.L65
 421              	.LVL50:
 422              	.L43:
  83:C:/Users/stapi/OneDrive/Desktop/GD32VW553/V1_MQTT_OK/GD32VW55X_Wifi_BLE_SDK/GD32VW55x_RELEASE_V1.0.2/MSDK/lwip/libcoap-4.3.4/src\coap_option.c ****     return 0;
 423              		.loc 1 83 5
  83:C:/Users/stapi/OneDrive/Desktop/GD32VW553/V1_MQTT_OK/GD32VW55X_Wifi_BLE_SDK/GD32VW55x_RELEASE_V1.0.2/MSDK/lwip/libcoap-4.3.4/src\coap_option.c ****     return 0;
 424              		.loc 1 83 5
 425 012e 97000000 		call	coap_get_log_level
 425      E7800000 
 426              	.LVL51:
 427 0136 9947     		li	a5,6
 428 0138 E3D8A7F0 		ble	a0,a5,.L66
  83:C:/Users/stapi/OneDrive/Desktop/GD32VW553/V1_MQTT_OK/GD32VW55X_Wifi_BLE_SDK/GD32VW55x_RELEASE_V1.0.2/MSDK/lwip/libcoap-4.3.4/src\coap_option.c ****     return 0;
 429              		.loc 1 83 5
 430 013c B7050000 		lui	a1,%hi(.LC5)
 431 0140 93850500 		addi	a1,a1,%lo(.LC5)
 432 0144 A1BF     		j	.L65
 433              	.LVL52:
 434              	.L63:
  78:C:/Users/stapi/OneDrive/Desktop/GD32VW553/V1_MQTT_OK/GD32VW55X_Wifi_BLE_SDK/GD32VW55x_RELEASE_V1.0.2/MSDK/lwip/libcoap-4.3.4/src\coap_option.c ****   }
 435              		.loc 1 78 5
  81:C:/Users/stapi/OneDrive/Desktop/GD32VW553/V1_MQTT_OK/GD32VW55X_Wifi_BLE_SDK/GD32VW55x_RELEASE_V1.0.2/MSDK/lwip/libcoap-4.3.4/src\coap_option.c ****   case 15:
 436              		.loc 1 81 3
 437 0146 63061701 		beq	a4,a7,.L49
 438 014a E30207FF 		beq	a4,a6,.L43
 439 014e AA87     		mv	a5,a0
 440 0150 79BF     		j	.L69
 441              	.L49:
 442 0152 AA87     		mv	a5,a0
 443              	.LVL53:
 444              	.L42:
  89:C:/Users/stapi/OneDrive/Desktop/GD32VW553/V1_MQTT_OK/GD32VW55X_Wifi_BLE_SDK/GD32VW55x_RELEASE_V1.0.2/MSDK/lwip/libcoap-4.3.4/src\coap_option.c ****     result->length = ((*opt & 0xff) << 8) + 269;
 445              		.loc 1 89 5
  89:C:/Users/stapi/OneDrive/Desktop/GD32VW553/V1_MQTT_OK/GD32VW55X_Wifi_BLE_SDK/GD32VW55x_RELEASE_V1.0.2/MSDK/lwip/libcoap-4.3.4/src\coap_option.c ****     result->length = ((*opt & 0xff) << 8) + 269;
 446              		.loc 1 89 5
  89:C:/Users/stapi/OneDrive/Desktop/GD32VW553/V1_MQTT_OK/GD32VW55X_Wifi_BLE_SDK/GD32VW55x_RELEASE_V1.0.2/MSDK/lwip/libcoap-4.3.4/src\coap_option.c ****     result->length = ((*opt & 0xff) << 8) + 269;
 447              		.loc 1 89 5
 448 0154 FD15     		addi	a1,a1,-1
 449              	.LVL54:
  89:C:/Users/stapi/OneDrive/Desktop/GD32VW553/V1_MQTT_OK/GD32VW55X_Wifi_BLE_SDK/GD32VW55x_RELEASE_V1.0.2/MSDK/lwip/libcoap-4.3.4/src\coap_option.c ****     result->length = ((*opt & 0xff) << 8) + 269;
 450              		.loc 1 89 5
  89:C:/Users/stapi/OneDrive/Desktop/GD32VW553/V1_MQTT_OK/GD32VW55X_Wifi_BLE_SDK/GD32VW55x_RELEASE_V1.0.2/MSDK/lwip/libcoap-4.3.4/src\coap_option.c ****     result->length = ((*opt & 0xff) << 8) + 269;
 451              		.loc 1 89 5
  89:C:/Users/stapi/OneDrive/Desktop/GD32VW553/V1_MQTT_OK/GD32VW55X_Wifi_BLE_SDK/GD32VW55x_RELEASE_V1.0.2/MSDK/lwip/libcoap-4.3.4/src\coap_option.c ****     result->length = ((*opt & 0xff) << 8) + 269;
 452              		.loc 1 89 5
 453 0156 E38905EE 		beq	a1,zero,.L66
  89:C:/Users/stapi/OneDrive/Desktop/GD32VW553/V1_MQTT_OK/GD32VW55X_Wifi_BLE_SDK/GD32VW55x_RELEASE_V1.0.2/MSDK/lwip/libcoap-4.3.4/src\coap_option.c ****     result->length = ((*opt & 0xff) << 8) + 269;
 454              		.loc 1 89 5
  90:C:/Users/stapi/OneDrive/Desktop/GD32VW553/V1_MQTT_OK/GD32VW55X_Wifi_BLE_SDK/GD32VW55x_RELEASE_V1.0.2/MSDK/lwip/libcoap-4.3.4/src\coap_option.c ****   /* fall through */
 455              		.loc 1 90 5
  90:C:/Users/stapi/OneDrive/Desktop/GD32VW553/V1_MQTT_OK/GD32VW55X_Wifi_BLE_SDK/GD32VW55x_RELEASE_V1.0.2/MSDK/lwip/libcoap-4.3.4/src\coap_option.c ****   /* fall through */
 456              		.loc 1 90 29 is_stmt 0
 457 015a 03C71700 		lbu	a4,1(a5)
  89:C:/Users/stapi/OneDrive/Desktop/GD32VW553/V1_MQTT_OK/GD32VW55X_Wifi_BLE_SDK/GD32VW55x_RELEASE_V1.0.2/MSDK/lwip/libcoap-4.3.4/src\coap_option.c ****     result->length = ((*opt & 0xff) << 8) + 269;
 458              		.loc 1 89 5
 459 015e 8507     		addi	a5,a5,1
 460              	.LVL55:
  90:C:/Users/stapi/OneDrive/Desktop/GD32VW553/V1_MQTT_OK/GD32VW55X_Wifi_BLE_SDK/GD32VW55x_RELEASE_V1.0.2/MSDK/lwip/libcoap-4.3.4/src\coap_option.c ****   /* fall through */
 461              		.loc 1 90 37
 462 0160 2207     		slli	a4,a4,8
  90:C:/Users/stapi/OneDrive/Desktop/GD32VW553/V1_MQTT_OK/GD32VW55X_Wifi_BLE_SDK/GD32VW55x_RELEASE_V1.0.2/MSDK/lwip/libcoap-4.3.4/src\coap_option.c ****   /* fall through */
 463              		.loc 1 90 43
 464 0162 1307D710 		addi	a4,a4,269
  90:C:/Users/stapi/OneDrive/Desktop/GD32VW553/V1_MQTT_OK/GD32VW55X_Wifi_BLE_SDK/GD32VW55x_RELEASE_V1.0.2/MSDK/lwip/libcoap-4.3.4/src\coap_option.c ****   /* fall through */
 465              		.loc 1 90 20
 466 0166 58C2     		sw	a4,4(a2)
  93:C:/Users/stapi/OneDrive/Desktop/GD32VW553/V1_MQTT_OK/GD32VW55X_Wifi_BLE_SDK/GD32VW55x_RELEASE_V1.0.2/MSDK/lwip/libcoap-4.3.4/src\coap_option.c ****     result->length += *opt & 0xff;
 467              		.loc 1 93 5 is_stmt 1
  93:C:/Users/stapi/OneDrive/Desktop/GD32VW553/V1_MQTT_OK/GD32VW55X_Wifi_BLE_SDK/GD32VW55x_RELEASE_V1.0.2/MSDK/lwip/libcoap-4.3.4/src\coap_option.c ****     result->length += *opt & 0xff;
 468              		.loc 1 93 5
 469              	.LVL56:
 470              	.L44:
  93:C:/Users/stapi/OneDrive/Desktop/GD32VW553/V1_MQTT_OK/GD32VW55X_Wifi_BLE_SDK/GD32VW55x_RELEASE_V1.0.2/MSDK/lwip/libcoap-4.3.4/src\coap_option.c ****     result->length += *opt & 0xff;
 471              		.loc 1 93 5
 472 0168 FD15     		addi	a1,a1,-1
 473              	.LVL57:
  93:C:/Users/stapi/OneDrive/Desktop/GD32VW553/V1_MQTT_OK/GD32VW55X_Wifi_BLE_SDK/GD32VW55x_RELEASE_V1.0.2/MSDK/lwip/libcoap-4.3.4/src\coap_option.c ****     result->length += *opt & 0xff;
 474              		.loc 1 93 5
  93:C:/Users/stapi/OneDrive/Desktop/GD32VW553/V1_MQTT_OK/GD32VW55X_Wifi_BLE_SDK/GD32VW55x_RELEASE_V1.0.2/MSDK/lwip/libcoap-4.3.4/src\coap_option.c ****     result->length += *opt & 0xff;
 475              		.loc 1 93 5
  93:C:/Users/stapi/OneDrive/Desktop/GD32VW553/V1_MQTT_OK/GD32VW55X_Wifi_BLE_SDK/GD32VW55x_RELEASE_V1.0.2/MSDK/lwip/libcoap-4.3.4/src\coap_option.c ****     result->length += *opt & 0xff;
 476              		.loc 1 93 5
 477 016a E38F05EC 		beq	a1,zero,.L66
  93:C:/Users/stapi/OneDrive/Desktop/GD32VW553/V1_MQTT_OK/GD32VW55X_Wifi_BLE_SDK/GD32VW55x_RELEASE_V1.0.2/MSDK/lwip/libcoap-4.3.4/src\coap_option.c ****     result->length += *opt & 0xff;
 478              		.loc 1 93 5
  94:C:/Users/stapi/OneDrive/Desktop/GD32VW553/V1_MQTT_OK/GD32VW55X_Wifi_BLE_SDK/GD32VW55x_RELEASE_V1.0.2/MSDK/lwip/libcoap-4.3.4/src\coap_option.c ****     break;
 479              		.loc 1 94 5
  94:C:/Users/stapi/OneDrive/Desktop/GD32VW553/V1_MQTT_OK/GD32VW55X_Wifi_BLE_SDK/GD32VW55x_RELEASE_V1.0.2/MSDK/lwip/libcoap-4.3.4/src\coap_option.c ****     break;
 480              		.loc 1 94 28 is_stmt 0
 481 016e 83C61700 		lbu	a3,1(a5)
  94:C:/Users/stapi/OneDrive/Desktop/GD32VW553/V1_MQTT_OK/GD32VW55X_Wifi_BLE_SDK/GD32VW55x_RELEASE_V1.0.2/MSDK/lwip/libcoap-4.3.4/src\coap_option.c ****     break;
 482              		.loc 1 94 20
 483 0172 5842     		lw	a4,4(a2)
  93:C:/Users/stapi/OneDrive/Desktop/GD32VW553/V1_MQTT_OK/GD32VW55X_Wifi_BLE_SDK/GD32VW55x_RELEASE_V1.0.2/MSDK/lwip/libcoap-4.3.4/src\coap_option.c ****     result->length += *opt & 0xff;
 484              		.loc 1 93 5
 485 0174 8507     		addi	a5,a5,1
 486              	.LVL58:
  94:C:/Users/stapi/OneDrive/Desktop/GD32VW553/V1_MQTT_OK/GD32VW55X_Wifi_BLE_SDK/GD32VW55x_RELEASE_V1.0.2/MSDK/lwip/libcoap-4.3.4/src\coap_option.c ****     break;
 487              		.loc 1 94 20
 488 0176 3697     		add	a4,a4,a3
 489 0178 58C2     		sw	a4,4(a2)
  95:C:/Users/stapi/OneDrive/Desktop/GD32VW553/V1_MQTT_OK/GD32VW55X_Wifi_BLE_SDK/GD32VW55x_RELEASE_V1.0.2/MSDK/lwip/libcoap-4.3.4/src\coap_option.c **** 
 490              		.loc 1 95 5 is_stmt 1
  98:C:/Users/stapi/OneDrive/Desktop/GD32VW553/V1_MQTT_OK/GD32VW55X_Wifi_BLE_SDK/GD32VW55x_RELEASE_V1.0.2/MSDK/lwip/libcoap-4.3.4/src\coap_option.c ****   }
 491              		.loc 1 98 5
 102:C:/Users/stapi/OneDrive/Desktop/GD32VW553/V1_MQTT_OK/GD32VW55X_Wifi_BLE_SDK/GD32VW55x_RELEASE_V1.0.2/MSDK/lwip/libcoap-4.3.4/src\coap_option.c ****   /* opt now points to value, if present */
 492              		.loc 1 102 3
 493 017a A5BF     		j	.L45
 494              	.L47:
 114:C:/Users/stapi/OneDrive/Desktop/GD32VW553/V1_MQTT_OK/GD32VW55X_Wifi_BLE_SDK/GD32VW55x_RELEASE_V1.0.2/MSDK/lwip/libcoap-4.3.4/src\coap_option.c **** }
 495              		.loc 1 114 3
 114:C:/Users/stapi/OneDrive/Desktop/GD32VW553/V1_MQTT_OK/GD32VW55X_Wifi_BLE_SDK/GD32VW55x_RELEASE_V1.0.2/MSDK/lwip/libcoap-4.3.4/src\coap_option.c **** }
 496              		.loc 1 114 15 is_stmt 0
 497 017c BA97     		add	a5,a5,a4
 498              	.LVL59:
 114:C:/Users/stapi/OneDrive/Desktop/GD32VW553/V1_MQTT_OK/GD32VW55X_Wifi_BLE_SDK/GD32VW55x_RELEASE_V1.0.2/MSDK/lwip/libcoap-4.3.4/src\coap_option.c **** }
 499              		.loc 1 114 33
 500 017e 3385A740 		sub	a0,a5,a0
 501              	.LVL60:
 502 0182 E1B5     		j	.L31
 503              	.LBE10:
 504              	.LBE11:
 505              		.cfi_endproc
 506              	.LFE31:
 508              		.section	.rodata.coap_option_iterator_init.str1.4,"aMS",@progbits,1
 509              		.align	2
 510              	.LC7:
 511 0000 70647500 		.string	"pdu"
 512              		.align	2
 513              	.LC8:
 514 0004 7064752D 		.string	"pdu->token"
 514      3E746F6B 
 514      656E00
 515 000f 00       		.align	2
 516              	.LC9:
 517 0010 6F6900   		.string	"oi"
 518              		.section	.text.coap_option_iterator_init,"ax",@progbits
 519              		.align	1
 520              		.globl	coap_option_iterator_init
 522              	coap_option_iterator_init:
 523              	.LFB32:
 119:C:/Users/stapi/OneDrive/Desktop/GD32VW553/V1_MQTT_OK/GD32VW55X_Wifi_BLE_SDK/GD32VW55x_RELEASE_V1.0.2/MSDK/lwip/libcoap-4.3.4/src\coap_option.c ****   assert(pdu);
 524              		.loc 1 119 60 is_stmt 1
 525              		.cfi_startproc
 526              	.LVL61:
 527 0000 17030000 		call	t0,__riscv_save_3
 527      E7020300 
 528              		.cfi_offset 18, -16
 529              		.cfi_offset 9, -12
 530              		.cfi_offset 8, -8
 531              		.cfi_offset 1, -4
 532              		.cfi_def_cfa_offset 16
 120:C:/Users/stapi/OneDrive/Desktop/GD32VW553/V1_MQTT_OK/GD32VW55X_Wifi_BLE_SDK/GD32VW55x_RELEASE_V1.0.2/MSDK/lwip/libcoap-4.3.4/src\coap_option.c ****   assert(pdu->token);
 533              		.loc 1 120 3
 534 0008 1DE1     		bne	a0,zero,.L71
 120:C:/Users/stapi/OneDrive/Desktop/GD32VW553/V1_MQTT_OK/GD32VW55X_Wifi_BLE_SDK/GD32VW55x_RELEASE_V1.0.2/MSDK/lwip/libcoap-4.3.4/src\coap_option.c ****   assert(pdu->token);
 535              		.loc 1 120 3 is_stmt 0 discriminator 1
 536 000a B7060000 		lui	a3,%hi(.LC7)
 537 000e 37060000 		lui	a2,%hi(.LANCHOR1)
 538              	.LVL62:
 539 0012 93860600 		addi	a3,a3,%lo(.LC7)
 540 0016 13060600 		addi	a2,a2,%lo(.LANCHOR1)
 541 001a 93058007 		li	a1,120
 542              	.LVL63:
 543              	.L80:
 121:C:/Users/stapi/OneDrive/Desktop/GD32VW553/V1_MQTT_OK/GD32VW55X_Wifi_BLE_SDK/GD32VW55x_RELEASE_V1.0.2/MSDK/lwip/libcoap-4.3.4/src\coap_option.c ****   assert(oi);
 544              		.loc 1 121 3 discriminator 1
 545 001e 37050000 		lui	a0,%hi(.LC1)
 546              	.LVL64:
 547 0022 13050500 		addi	a0,a0,%lo(.LC1)
 548 0026 97000000 		call	__assert_func
 548      E7800000 
 549              	.LVL65:
 550              	.L71:
 121:C:/Users/stapi/OneDrive/Desktop/GD32VW553/V1_MQTT_OK/GD32VW55X_Wifi_BLE_SDK/GD32VW55x_RELEASE_V1.0.2/MSDK/lwip/libcoap-4.3.4/src\coap_option.c ****   assert(oi);
 551              		.loc 1 121 3
 552 002e 5C55     		lw	a5,44(a0)
 553 0030 AA84     		mv	s1,a0
 121:C:/Users/stapi/OneDrive/Desktop/GD32VW553/V1_MQTT_OK/GD32VW55X_Wifi_BLE_SDK/GD32VW55x_RELEASE_V1.0.2/MSDK/lwip/libcoap-4.3.4/src\coap_option.c ****   assert(oi);
 554              		.loc 1 121 3 is_stmt 1
 555 0032 81EF     		bne	a5,zero,.L72
 556              	.LVL66:
 121:C:/Users/stapi/OneDrive/Desktop/GD32VW553/V1_MQTT_OK/GD32VW55X_Wifi_BLE_SDK/GD32VW55x_RELEASE_V1.0.2/MSDK/lwip/libcoap-4.3.4/src\coap_option.c ****   assert(oi);
 557              		.loc 1 121 3 is_stmt 0 discriminator 1
 558 0034 B7060000 		lui	a3,%hi(.LC8)
 559 0038 37060000 		lui	a2,%hi(.LANCHOR1)
 560              	.LVL67:
 561 003c 93860600 		addi	a3,a3,%lo(.LC8)
 562 0040 13060600 		addi	a2,a2,%lo(.LANCHOR1)
 563 0044 93059007 		li	a1,121
 564              	.LVL68:
 565 0048 D9BF     		j	.L80
 566              	.LVL69:
 567              	.L72:
 568 004a 2E84     		mv	s0,a1
 122:C:/Users/stapi/OneDrive/Desktop/GD32VW553/V1_MQTT_OK/GD32VW55X_Wifi_BLE_SDK/GD32VW55x_RELEASE_V1.0.2/MSDK/lwip/libcoap-4.3.4/src\coap_option.c **** 
 569              		.loc 1 122 3 is_stmt 1
 570 004c 81ED     		bne	a1,zero,.L73
 571              	.LVL70:
 122:C:/Users/stapi/OneDrive/Desktop/GD32VW553/V1_MQTT_OK/GD32VW55X_Wifi_BLE_SDK/GD32VW55x_RELEASE_V1.0.2/MSDK/lwip/libcoap-4.3.4/src\coap_option.c **** 
 572              		.loc 1 122 3 is_stmt 0 discriminator 1
 573 004e B7060000 		lui	a3,%hi(.LC9)
 574 0052 37060000 		lui	a2,%hi(.LANCHOR1)
 575              	.LVL71:
 576 0056 93860600 		addi	a3,a3,%lo(.LC9)
 577 005a 13060600 		addi	a2,a2,%lo(.LANCHOR1)
 578 005e 9305A007 		li	a1,122
 579 0062 75BF     		j	.L80
 580              	.LVL72:
 581              	.L73:
 582 0064 3289     		mv	s2,a2
 124:C:/Users/stapi/OneDrive/Desktop/GD32VW553/V1_MQTT_OK/GD32VW55X_Wifi_BLE_SDK/GD32VW55x_RELEASE_V1.0.2/MSDK/lwip/libcoap-4.3.4/src\coap_option.c **** 
 583              		.loc 1 124 3 is_stmt 1
 584 0066 8145     		li	a1,0
 585 0068 6146     		li	a2,24
 586              	.LVL73:
 587 006a 2285     		mv	a0,s0
 588 006c 97000000 		call	memset
 588      E7800000 
 589              	.LVL74:
 126:C:/Users/stapi/OneDrive/Desktop/GD32VW553/V1_MQTT_OK/GD32VW55X_Wifi_BLE_SDK/GD32VW55x_RELEASE_V1.0.2/MSDK/lwip/libcoap-4.3.4/src\coap_option.c ****   if (pdu->token + pdu->used_size <= oi->next_option) {
 590              		.loc 1 126 3
 126:C:/Users/stapi/OneDrive/Desktop/GD32VW553/V1_MQTT_OK/GD32VW55X_Wifi_BLE_SDK/GD32VW55x_RELEASE_V1.0.2/MSDK/lwip/libcoap-4.3.4/src\coap_option.c ****   if (pdu->token + pdu->used_size <= oi->next_option) {
 591              		.loc 1 126 24 is_stmt 0
 592 0074 D854     		lw	a4,44(s1)
 126:C:/Users/stapi/OneDrive/Desktop/GD32VW553/V1_MQTT_OK/GD32VW55X_Wifi_BLE_SDK/GD32VW55x_RELEASE_V1.0.2/MSDK/lwip/libcoap-4.3.4/src\coap_option.c ****   if (pdu->token + pdu->used_size <= oi->next_option) {
 593              		.loc 1 126 37
 594 0076 D448     		lw	a3,20(s1)
 127:C:/Users/stapi/OneDrive/Desktop/GD32VW553/V1_MQTT_OK/GD32VW55X_Wifi_BLE_SDK/GD32VW55x_RELEASE_V1.0.2/MSDK/lwip/libcoap-4.3.4/src\coap_option.c ****     oi->bad = 1;
 595              		.loc 1 127 23
 596 0078 DC50     		lw	a5,36(s1)
 126:C:/Users/stapi/OneDrive/Desktop/GD32VW553/V1_MQTT_OK/GD32VW55X_Wifi_BLE_SDK/GD32VW55x_RELEASE_V1.0.2/MSDK/lwip/libcoap-4.3.4/src\coap_option.c ****   if (pdu->token + pdu->used_size <= oi->next_option) {
 597              		.loc 1 126 32
 598 007a 3306D700 		add	a2,a4,a3
 126:C:/Users/stapi/OneDrive/Desktop/GD32VW553/V1_MQTT_OK/GD32VW55X_Wifi_BLE_SDK/GD32VW55x_RELEASE_V1.0.2/MSDK/lwip/libcoap-4.3.4/src\coap_option.c ****   if (pdu->token + pdu->used_size <= oi->next_option) {
 599              		.loc 1 126 19
 600 007e 10C4     		sw	a2,8(s0)
 127:C:/Users/stapi/OneDrive/Desktop/GD32VW553/V1_MQTT_OK/GD32VW55X_Wifi_BLE_SDK/GD32VW55x_RELEASE_V1.0.2/MSDK/lwip/libcoap-4.3.4/src\coap_option.c ****     oi->bad = 1;
 601              		.loc 1 127 3 is_stmt 1
 127:C:/Users/stapi/OneDrive/Desktop/GD32VW553/V1_MQTT_OK/GD32VW55X_Wifi_BLE_SDK/GD32VW55x_RELEASE_V1.0.2/MSDK/lwip/libcoap-4.3.4/src\coap_option.c ****     oi->bad = 1;
 602              		.loc 1 127 18 is_stmt 0
 603 0080 3E97     		add	a4,a4,a5
 127:C:/Users/stapi/OneDrive/Desktop/GD32VW553/V1_MQTT_OK/GD32VW55X_Wifi_BLE_SDK/GD32VW55x_RELEASE_V1.0.2/MSDK/lwip/libcoap-4.3.4/src\coap_option.c ****     oi->bad = 1;
 604              		.loc 1 127 6
 605 0082 636EE600 		bltu	a2,a4,.L74
 128:C:/Users/stapi/OneDrive/Desktop/GD32VW553/V1_MQTT_OK/GD32VW55X_Wifi_BLE_SDK/GD32VW55x_RELEASE_V1.0.2/MSDK/lwip/libcoap-4.3.4/src\coap_option.c ****     return NULL;
 606              		.loc 1 128 5 is_stmt 1
 128:C:/Users/stapi/OneDrive/Desktop/GD32VW553/V1_MQTT_OK/GD32VW55X_Wifi_BLE_SDK/GD32VW55x_RELEASE_V1.0.2/MSDK/lwip/libcoap-4.3.4/src\coap_option.c ****     return NULL;
 607              		.loc 1 128 13 is_stmt 0
 608 0086 83476400 		lbu	a5,6(s0)
 609 008a 93E71700 		ori	a5,a5,1
 610 008e 2303F400 		sb	a5,6(s0)
 129:C:/Users/stapi/OneDrive/Desktop/GD32VW553/V1_MQTT_OK/GD32VW55X_Wifi_BLE_SDK/GD32VW55x_RELEASE_V1.0.2/MSDK/lwip/libcoap-4.3.4/src\coap_option.c ****   }
 611              		.loc 1 129 5 is_stmt 1
 129:C:/Users/stapi/OneDrive/Desktop/GD32VW553/V1_MQTT_OK/GD32VW55X_Wifi_BLE_SDK/GD32VW55x_RELEASE_V1.0.2/MSDK/lwip/libcoap-4.3.4/src\coap_option.c ****   }
 612              		.loc 1 129 12 is_stmt 0
 613 0092 0144     		li	s0,0
 614              	.LVL75:
 615              	.L75:
 139:C:/Users/stapi/OneDrive/Desktop/GD32VW553/V1_MQTT_OK/GD32VW55X_Wifi_BLE_SDK/GD32VW55x_RELEASE_V1.0.2/MSDK/lwip/libcoap-4.3.4/src\coap_option.c **** 
 616              		.loc 1 139 1
 617 0094 2285     		mv	a0,s0
 618 0096 17030000 		tail	__riscv_restore_3
 618      67000300 
 619              		.cfi_remember_state
 620              		.cfi_restore 18
 621              		.cfi_restore 9
 622              		.cfi_restore 8
 623              		.cfi_restore 1
 624              		.cfi_def_cfa_offset 0
 625              	.LVL76:
 626              	.L74:
 627              		.cfi_restore_state
 132:C:/Users/stapi/OneDrive/Desktop/GD32VW553/V1_MQTT_OK/GD32VW55X_Wifi_BLE_SDK/GD32VW55x_RELEASE_V1.0.2/MSDK/lwip/libcoap-4.3.4/src\coap_option.c **** 
 628              		.loc 1 132 3 is_stmt 1
 132:C:/Users/stapi/OneDrive/Desktop/GD32VW553/V1_MQTT_OK/GD32VW55X_Wifi_BLE_SDK/GD32VW55x_RELEASE_V1.0.2/MSDK/lwip/libcoap-4.3.4/src\coap_option.c **** 
 629              		.loc 1 132 31 is_stmt 0
 630 009e 958F     		sub	a5,a5,a3
 132:C:/Users/stapi/OneDrive/Desktop/GD32VW553/V1_MQTT_OK/GD32VW55X_Wifi_BLE_SDK/GD32VW55x_RELEASE_V1.0.2/MSDK/lwip/libcoap-4.3.4/src\coap_option.c **** 
 631              		.loc 1 132 14
 632 00a0 1CC0     		sw	a5,0(s0)
 134:C:/Users/stapi/OneDrive/Desktop/GD32VW553/V1_MQTT_OK/GD32VW55X_Wifi_BLE_SDK/GD32VW55x_RELEASE_V1.0.2/MSDK/lwip/libcoap-4.3.4/src\coap_option.c ****     memcpy(&oi->filter, filter, sizeof(coap_opt_filter_t));
 633              		.loc 1 134 3 is_stmt 1
 134:C:/Users/stapi/OneDrive/Desktop/GD32VW553/V1_MQTT_OK/GD32VW55X_Wifi_BLE_SDK/GD32VW55x_RELEASE_V1.0.2/MSDK/lwip/libcoap-4.3.4/src\coap_option.c ****     memcpy(&oi->filter, filter, sizeof(coap_opt_filter_t));
 634              		.loc 1 134 6 is_stmt 0
 635 00a2 E30909FE 		beq	s2,zero,.L75
 135:C:/Users/stapi/OneDrive/Desktop/GD32VW553/V1_MQTT_OK/GD32VW55X_Wifi_BLE_SDK/GD32VW55x_RELEASE_V1.0.2/MSDK/lwip/libcoap-4.3.4/src\coap_option.c ****     oi->filtered = 1;
 636              		.loc 1 135 5 is_stmt 1
 637 00a6 3146     		li	a2,12
 638 00a8 CA85     		mv	a1,s2
 639 00aa 1305C400 		addi	a0,s0,12
 640 00ae 97000000 		call	memcpy
 640      E7800000 
 641              	.LVL77:
 136:C:/Users/stapi/OneDrive/Desktop/GD32VW553/V1_MQTT_OK/GD32VW55X_Wifi_BLE_SDK/GD32VW55x_RELEASE_V1.0.2/MSDK/lwip/libcoap-4.3.4/src\coap_option.c ****   }
 642              		.loc 1 136 5
 136:C:/Users/stapi/OneDrive/Desktop/GD32VW553/V1_MQTT_OK/GD32VW55X_Wifi_BLE_SDK/GD32VW55x_RELEASE_V1.0.2/MSDK/lwip/libcoap-4.3.4/src\coap_option.c ****   }
 643              		.loc 1 136 18 is_stmt 0
 644 00b6 83476400 		lbu	a5,6(s0)
 645 00ba 93E72700 		ori	a5,a5,2
 646 00be 2303F400 		sb	a5,6(s0)
 647 00c2 C9BF     		j	.L75
 648              		.cfi_endproc
 649              	.LFE32:
 651              		.section	.rodata.coap_opt_length.str1.4,"aMS",@progbits,1
 652              		.align	2
 653              	.LC10:
 654 0000 696C6C65 		.string	"illegal option delta\n"
 654      67616C20 
 654      6F707469 
 654      6F6E2064 
 654      656C7461 
 655 0016 0000     		.align	2
 656              	.LC11:
 657 0018 696C6C65 		.string	"illegal option length\n"
 657      67616C20 
 657      6F707469 
 657      6F6E206C 
 657      656E6774 
 658              		.section	.text.coap_opt_length,"ax",@progbits
 659              		.align	1
 660              		.globl	coap_opt_length
 662              	coap_opt_length:
 663              	.LFB36:
 213:C:/Users/stapi/OneDrive/Desktop/GD32VW553/V1_MQTT_OK/GD32VW55X_Wifi_BLE_SDK/GD32VW55x_RELEASE_V1.0.2/MSDK/lwip/libcoap-4.3.4/src\coap_option.c ****   uint32_t length;
 664              		.loc 1 213 40 is_stmt 1
 665              		.cfi_startproc
 666              	.LVL78:
 667 0000 17030000 		call	t0,__riscv_save_0
 667      E7020300 
 668              		.cfi_offset 1, -4
 669              		.cfi_def_cfa_offset 16
 214:C:/Users/stapi/OneDrive/Desktop/GD32VW553/V1_MQTT_OK/GD32VW55X_Wifi_BLE_SDK/GD32VW55x_RELEASE_V1.0.2/MSDK/lwip/libcoap-4.3.4/src\coap_option.c **** 
 670              		.loc 1 214 3
 216:C:/Users/stapi/OneDrive/Desktop/GD32VW553/V1_MQTT_OK/GD32VW55X_Wifi_BLE_SDK/GD32VW55x_RELEASE_V1.0.2/MSDK/lwip/libcoap-4.3.4/src\coap_option.c ****   switch (*opt & 0xf0) {
 671              		.loc 1 216 3
 216:C:/Users/stapi/OneDrive/Desktop/GD32VW553/V1_MQTT_OK/GD32VW55X_Wifi_BLE_SDK/GD32VW55x_RELEASE_V1.0.2/MSDK/lwip/libcoap-4.3.4/src\coap_option.c ****   switch (*opt & 0xf0) {
 672              		.loc 1 216 12 is_stmt 0
 673 0008 03470500 		lbu	a4,0(a0)
 213:C:/Users/stapi/OneDrive/Desktop/GD32VW553/V1_MQTT_OK/GD32VW55X_Wifi_BLE_SDK/GD32VW55x_RELEASE_V1.0.2/MSDK/lwip/libcoap-4.3.4/src\coap_option.c ****   uint32_t length;
 674              		.loc 1 213 40
 675 000c AA87     		mv	a5,a0
 217:C:/Users/stapi/OneDrive/Desktop/GD32VW553/V1_MQTT_OK/GD32VW55X_Wifi_BLE_SDK/GD32VW55x_RELEASE_V1.0.2/MSDK/lwip/libcoap-4.3.4/src\coap_option.c ****   case 0xf0:
 676              		.loc 1 217 3
 677 000e 9306000E 		li	a3,224
 678 0012 1375F700 		andi	a0,a4,15
 679              	.LVL79:
 217:C:/Users/stapi/OneDrive/Desktop/GD32VW553/V1_MQTT_OK/GD32VW55X_Wifi_BLE_SDK/GD32VW55x_RELEASE_V1.0.2/MSDK/lwip/libcoap-4.3.4/src\coap_option.c ****   case 0xf0:
 680              		.loc 1 217 3 is_stmt 1
 681 0016 1377070F 		andi	a4,a4,240
 682 001a 6301D706 		beq	a4,a3,.L82
 683 001e 9306000F 		li	a3,240
 684 0022 6307D702 		beq	a4,a3,.L83
 685 0026 9306000D 		li	a3,208
 686 002a 6313D700 		bne	a4,a3,.L85
 687              	.L84:
 226:C:/Users/stapi/OneDrive/Desktop/GD32VW553/V1_MQTT_OK/GD32VW55X_Wifi_BLE_SDK/GD32VW55x_RELEASE_V1.0.2/MSDK/lwip/libcoap-4.3.4/src\coap_option.c ****   /* fall through */
 688              		.loc 1 226 5
 689 002e 8507     		addi	a5,a5,1
 690              	.LVL80:
 691              	.L85:
 230:C:/Users/stapi/OneDrive/Desktop/GD32VW553/V1_MQTT_OK/GD32VW55X_Wifi_BLE_SDK/GD32VW55x_RELEASE_V1.0.2/MSDK/lwip/libcoap-4.3.4/src\coap_option.c ****   }
 692              		.loc 1 230 5
 233:C:/Users/stapi/OneDrive/Desktop/GD32VW553/V1_MQTT_OK/GD32VW55X_Wifi_BLE_SDK/GD32VW55x_RELEASE_V1.0.2/MSDK/lwip/libcoap-4.3.4/src\coap_option.c ****   case 0x0f:
 693              		.loc 1 233 3
 694 0030 3947     		li	a4,14
 695 0032 6303E506 		beq	a0,a4,.L88
 696 0036 3D47     		li	a4,15
 697 0038 6304E504 		beq	a0,a4,.L89
 698 003c 3547     		li	a4,13
 699 003e 6311E502 		bne	a0,a4,.L81
 230:C:/Users/stapi/OneDrive/Desktop/GD32VW553/V1_MQTT_OK/GD32VW55X_Wifi_BLE_SDK/GD32VW55x_RELEASE_V1.0.2/MSDK/lwip/libcoap-4.3.4/src\coap_option.c ****   }
 700              		.loc 1 230 5 is_stmt 0
 701 0042 13871700 		addi	a4,a5,1
 702              	.LVL81:
 703 0046 B547     		li	a5,13
 704              	.LVL82:
 705              	.L91:
 241:C:/Users/stapi/OneDrive/Desktop/GD32VW553/V1_MQTT_OK/GD32VW55X_Wifi_BLE_SDK/GD32VW55x_RELEASE_V1.0.2/MSDK/lwip/libcoap-4.3.4/src\coap_option.c ****     break;
 706              		.loc 1 241 5 is_stmt 1
 241:C:/Users/stapi/OneDrive/Desktop/GD32VW553/V1_MQTT_OK/GD32VW55X_Wifi_BLE_SDK/GD32VW55x_RELEASE_V1.0.2/MSDK/lwip/libcoap-4.3.4/src\coap_option.c ****     break;
 707              		.loc 1 241 15 is_stmt 0
 708 0048 03450700 		lbu	a0,0(a4)
 241:C:/Users/stapi/OneDrive/Desktop/GD32VW553/V1_MQTT_OK/GD32VW55X_Wifi_BLE_SDK/GD32VW55x_RELEASE_V1.0.2/MSDK/lwip/libcoap-4.3.4/src\coap_option.c ****     break;
 709              		.loc 1 241 12
 710 004c 3E95     		add	a0,a0,a5
 711              	.LVL83:
 242:C:/Users/stapi/OneDrive/Desktop/GD32VW553/V1_MQTT_OK/GD32VW55X_Wifi_BLE_SDK/GD32VW55x_RELEASE_V1.0.2/MSDK/lwip/libcoap-4.3.4/src\coap_option.c ****   default:
 712              		.loc 1 242 5 is_stmt 1
 713 004e 09A8     		j	.L81
 714              	.LVL84:
 715              	.L83:
 219:C:/Users/stapi/OneDrive/Desktop/GD32VW553/V1_MQTT_OK/GD32VW55X_Wifi_BLE_SDK/GD32VW55x_RELEASE_V1.0.2/MSDK/lwip/libcoap-4.3.4/src\coap_option.c ****     return 0;
 716              		.loc 1 219 5
 219:C:/Users/stapi/OneDrive/Desktop/GD32VW553/V1_MQTT_OK/GD32VW55X_Wifi_BLE_SDK/GD32VW55x_RELEASE_V1.0.2/MSDK/lwip/libcoap-4.3.4/src\coap_option.c ****     return 0;
 717              		.loc 1 219 5
 718 0050 97000000 		call	coap_get_log_level
 718      E7800000 
 719              	.LVL85:
 720 0058 9947     		li	a5,6
 721 005a 63C7A700 		bgt	a0,a5,.L86
 722              	.LVL86:
 723              	.L95:
 236:C:/Users/stapi/OneDrive/Desktop/GD32VW553/V1_MQTT_OK/GD32VW55X_Wifi_BLE_SDK/GD32VW55x_RELEASE_V1.0.2/MSDK/lwip/libcoap-4.3.4/src\coap_option.c ****   case 0x0e:
 724              		.loc 1 236 12 is_stmt 0 discriminator 1
 725 005e 0145     		li	a0,0
 726              	.L81:
 247:C:/Users/stapi/OneDrive/Desktop/GD32VW553/V1_MQTT_OK/GD32VW55X_Wifi_BLE_SDK/GD32VW55x_RELEASE_V1.0.2/MSDK/lwip/libcoap-4.3.4/src\coap_option.c **** 
 727              		.loc 1 247 1
 728 0060 17030000 		tail	__riscv_restore_0
 728      67000300 
 729              		.cfi_remember_state
 730              		.cfi_restore 1
 731              		.cfi_def_cfa_offset 0
 732              	.LVL87:
 733              	.L86:
 734              		.cfi_restore_state
 219:C:/Users/stapi/OneDrive/Desktop/GD32VW553/V1_MQTT_OK/GD32VW55X_Wifi_BLE_SDK/GD32VW55x_RELEASE_V1.0.2/MSDK/lwip/libcoap-4.3.4/src\coap_option.c ****     return 0;
 735              		.loc 1 219 5 is_stmt 1 discriminator 1
 736 0068 B7050000 		lui	a1,%hi(.LC10)
 737 006c 93850500 		addi	a1,a1,%lo(.LC10)
 738              	.LVL88:
 739              	.L94:
 235:C:/Users/stapi/OneDrive/Desktop/GD32VW553/V1_MQTT_OK/GD32VW55X_Wifi_BLE_SDK/GD32VW55x_RELEASE_V1.0.2/MSDK/lwip/libcoap-4.3.4/src\coap_option.c ****     return 0;
 740              		.loc 1 235 5 is_stmt 0 discriminator 1
 741 0070 1D45     		li	a0,7
 742 0072 97000000 		call	coap_log_impl
 742      E7800000 
 743              	.LVL89:
 744 007a D5B7     		j	.L95
 745              	.LVL90:
 746              	.L82:
 222:C:/Users/stapi/OneDrive/Desktop/GD32VW553/V1_MQTT_OK/GD32VW55X_Wifi_BLE_SDK/GD32VW55x_RELEASE_V1.0.2/MSDK/lwip/libcoap-4.3.4/src\coap_option.c ****   /* fall through */
 747              		.loc 1 222 5 is_stmt 1
 748 007c 8507     		addi	a5,a5,1
 749              	.LVL91:
 750 007e 45BF     		j	.L84
 751              	.LVL92:
 752              	.L89:
 235:C:/Users/stapi/OneDrive/Desktop/GD32VW553/V1_MQTT_OK/GD32VW55X_Wifi_BLE_SDK/GD32VW55x_RELEASE_V1.0.2/MSDK/lwip/libcoap-4.3.4/src\coap_option.c ****     return 0;
 753              		.loc 1 235 5
 235:C:/Users/stapi/OneDrive/Desktop/GD32VW553/V1_MQTT_OK/GD32VW55X_Wifi_BLE_SDK/GD32VW55x_RELEASE_V1.0.2/MSDK/lwip/libcoap-4.3.4/src\coap_option.c ****     return 0;
 754              		.loc 1 235 5
 755 0080 97000000 		call	coap_get_log_level
 755      E7800000 
 756              	.LVL93:
 757 0088 9947     		li	a5,6
 758 008a E3DAA7FC 		ble	a0,a5,.L95
 235:C:/Users/stapi/OneDrive/Desktop/GD32VW553/V1_MQTT_OK/GD32VW55X_Wifi_BLE_SDK/GD32VW55x_RELEASE_V1.0.2/MSDK/lwip/libcoap-4.3.4/src\coap_option.c ****     return 0;
 759              		.loc 1 235 5 discriminator 1
 760 008e B7050000 		lui	a1,%hi(.LC11)
 761 0092 93850500 		addi	a1,a1,%lo(.LC11)
 762 0096 E9BF     		j	.L94
 763              	.LVL94:
 764              	.L88:
 238:C:/Users/stapi/OneDrive/Desktop/GD32VW553/V1_MQTT_OK/GD32VW55X_Wifi_BLE_SDK/GD32VW55x_RELEASE_V1.0.2/MSDK/lwip/libcoap-4.3.4/src\coap_option.c ****   /* fall through */
 765              		.loc 1 238 5
 238:C:/Users/stapi/OneDrive/Desktop/GD32VW553/V1_MQTT_OK/GD32VW55X_Wifi_BLE_SDK/GD32VW55x_RELEASE_V1.0.2/MSDK/lwip/libcoap-4.3.4/src\coap_option.c ****   /* fall through */
 766              		.loc 1 238 15 is_stmt 0
 767 0098 03C51700 		lbu	a0,1(a5)
 768              	.LVL95:
 238:C:/Users/stapi/OneDrive/Desktop/GD32VW553/V1_MQTT_OK/GD32VW55X_Wifi_BLE_SDK/GD32VW55x_RELEASE_V1.0.2/MSDK/lwip/libcoap-4.3.4/src\coap_option.c ****   /* fall through */
 769              		.loc 1 238 19
 770 009c 13872700 		addi	a4,a5,2
 771              	.LVL96:
 238:C:/Users/stapi/OneDrive/Desktop/GD32VW553/V1_MQTT_OK/GD32VW55X_Wifi_BLE_SDK/GD32VW55x_RELEASE_V1.0.2/MSDK/lwip/libcoap-4.3.4/src\coap_option.c ****   /* fall through */
 772              		.loc 1 238 22
 773 00a0 2205     		slli	a0,a0,8
 238:C:/Users/stapi/OneDrive/Desktop/GD32VW553/V1_MQTT_OK/GD32VW55X_Wifi_BLE_SDK/GD32VW55x_RELEASE_V1.0.2/MSDK/lwip/libcoap-4.3.4/src\coap_option.c ****   /* fall through */
 774              		.loc 1 238 28
 775 00a2 9307D510 		addi	a5,a0,269
 776              	.LVL97:
 777 00a6 4DB7     		j	.L91
 778              		.cfi_endproc
 779              	.LFE36:
 781              		.section	.text.coap_opt_value,"ax",@progbits
 782              		.align	1
 783              		.globl	coap_opt_value
 785              	coap_opt_value:
 786              	.LFB37:
 250:C:/Users/stapi/OneDrive/Desktop/GD32VW553/V1_MQTT_OK/GD32VW55X_Wifi_BLE_SDK/GD32VW55x_RELEASE_V1.0.2/MSDK/lwip/libcoap-4.3.4/src\coap_option.c ****   size_t ofs = 1;
 787              		.loc 1 250 39 is_stmt 1
 788              		.cfi_startproc
 789              	.LVL98:
 790 0000 17030000 		call	t0,__riscv_save_0
 790      E7020300 
 791              		.cfi_offset 1, -4
 792              		.cfi_def_cfa_offset 16
 251:C:/Users/stapi/OneDrive/Desktop/GD32VW553/V1_MQTT_OK/GD32VW55X_Wifi_BLE_SDK/GD32VW55x_RELEASE_V1.0.2/MSDK/lwip/libcoap-4.3.4/src\coap_option.c **** 
 793              		.loc 1 251 3
 794              	.LVL99:
 253:C:/Users/stapi/OneDrive/Desktop/GD32VW553/V1_MQTT_OK/GD32VW55X_Wifi_BLE_SDK/GD32VW55x_RELEASE_V1.0.2/MSDK/lwip/libcoap-4.3.4/src\coap_option.c ****   case 0xf0:
 795              		.loc 1 253 3
 253:C:/Users/stapi/OneDrive/Desktop/GD32VW553/V1_MQTT_OK/GD32VW55X_Wifi_BLE_SDK/GD32VW55x_RELEASE_V1.0.2/MSDK/lwip/libcoap-4.3.4/src\coap_option.c ****   case 0xf0:
 796              		.loc 1 253 11 is_stmt 0
 797 0008 03470500 		lbu	a4,0(a0)
 253:C:/Users/stapi/OneDrive/Desktop/GD32VW553/V1_MQTT_OK/GD32VW55X_Wifi_BLE_SDK/GD32VW55x_RELEASE_V1.0.2/MSDK/lwip/libcoap-4.3.4/src\coap_option.c ****   case 0xf0:
 798              		.loc 1 253 3
 799 000c 9306000E 		li	a3,224
 800 0010 9377070F 		andi	a5,a4,240
 801 0014 638ED704 		beq	a5,a3,.L107
 802 0018 9306000F 		li	a3,240
 803 001c 6384D702 		beq	a5,a3,.L98
 804 0020 9306000D 		li	a3,208
 805 0024 6389D704 		beq	a5,a3,.L108
 806 0028 8547     		li	a5,1
 807              	.LVL100:
 808              	.L99:
 264:C:/Users/stapi/OneDrive/Desktop/GD32VW553/V1_MQTT_OK/GD32VW55X_Wifi_BLE_SDK/GD32VW55x_RELEASE_V1.0.2/MSDK/lwip/libcoap-4.3.4/src\coap_option.c ****   }
 809              		.loc 1 264 5 is_stmt 1
 267:C:/Users/stapi/OneDrive/Desktop/GD32VW553/V1_MQTT_OK/GD32VW55X_Wifi_BLE_SDK/GD32VW55x_RELEASE_V1.0.2/MSDK/lwip/libcoap-4.3.4/src\coap_option.c ****   case 0x0f:
 810              		.loc 1 267 3
 811 002a 3D8B     		andi	a4,a4,15
 812 002c B946     		li	a3,14
 813 002e 6302D706 		beq	a4,a3,.L102
 814 0032 BD46     		li	a3,15
 815 0034 6303D704 		beq	a4,a3,.L103
 816 0038 B546     		li	a3,13
 817 003a 6313D700 		bne	a4,a3,.L105
 818              	.L104:
 275:C:/Users/stapi/OneDrive/Desktop/GD32VW553/V1_MQTT_OK/GD32VW55X_Wifi_BLE_SDK/GD32VW55x_RELEASE_V1.0.2/MSDK/lwip/libcoap-4.3.4/src\coap_option.c ****     break;
 819              		.loc 1 275 5
 820 003e 8507     		addi	a5,a5,1
 821              	.LVL101:
 276:C:/Users/stapi/OneDrive/Desktop/GD32VW553/V1_MQTT_OK/GD32VW55X_Wifi_BLE_SDK/GD32VW55x_RELEASE_V1.0.2/MSDK/lwip/libcoap-4.3.4/src\coap_option.c ****   default:
 822              		.loc 1 276 5
 823              	.L105:
 278:C:/Users/stapi/OneDrive/Desktop/GD32VW553/V1_MQTT_OK/GD32VW55X_Wifi_BLE_SDK/GD32VW55x_RELEASE_V1.0.2/MSDK/lwip/libcoap-4.3.4/src\coap_option.c ****   }
 824              		.loc 1 278 5
 281:C:/Users/stapi/OneDrive/Desktop/GD32VW553/V1_MQTT_OK/GD32VW55X_Wifi_BLE_SDK/GD32VW55x_RELEASE_V1.0.2/MSDK/lwip/libcoap-4.3.4/src\coap_option.c **** }
 825              		.loc 1 281 3
 281:C:/Users/stapi/OneDrive/Desktop/GD32VW553/V1_MQTT_OK/GD32VW55X_Wifi_BLE_SDK/GD32VW55x_RELEASE_V1.0.2/MSDK/lwip/libcoap-4.3.4/src\coap_option.c **** }
 826              		.loc 1 281 31 is_stmt 0
 827 0040 3E95     		add	a0,a0,a5
 828              	.LVL102:
 829 0042 09A8     		j	.L96
 830              	.LVL103:
 831              	.L98:
 255:C:/Users/stapi/OneDrive/Desktop/GD32VW553/V1_MQTT_OK/GD32VW55X_Wifi_BLE_SDK/GD32VW55x_RELEASE_V1.0.2/MSDK/lwip/libcoap-4.3.4/src\coap_option.c ****     return 0;
 832              		.loc 1 255 5 is_stmt 1
 255:C:/Users/stapi/OneDrive/Desktop/GD32VW553/V1_MQTT_OK/GD32VW55X_Wifi_BLE_SDK/GD32VW55x_RELEASE_V1.0.2/MSDK/lwip/libcoap-4.3.4/src\coap_option.c ****     return 0;
 833              		.loc 1 255 5
 834 0044 97000000 		call	coap_get_log_level
 834      E7800000 
 835              	.LVL104:
 836 004c 9947     		li	a5,6
 837 004e 63C7A700 		bgt	a0,a5,.L100
 838              	.LVL105:
 839              	.L111:
 270:C:/Users/stapi/OneDrive/Desktop/GD32VW553/V1_MQTT_OK/GD32VW55X_Wifi_BLE_SDK/GD32VW55x_RELEASE_V1.0.2/MSDK/lwip/libcoap-4.3.4/src\coap_option.c ****   case 0x0e:
 840              		.loc 1 270 12 is_stmt 0 discriminator 1
 841 0052 0145     		li	a0,0
 842              	.L96:
 282:C:/Users/stapi/OneDrive/Desktop/GD32VW553/V1_MQTT_OK/GD32VW55X_Wifi_BLE_SDK/GD32VW55x_RELEASE_V1.0.2/MSDK/lwip/libcoap-4.3.4/src\coap_option.c **** 
 843              		.loc 1 282 1
 844 0054 17030000 		tail	__riscv_restore_0
 844      67000300 
 845              		.cfi_remember_state
 846              		.cfi_restore 1
 847              		.cfi_def_cfa_offset 0
 848              	.LVL106:
 849              	.L100:
 850              		.cfi_restore_state
 255:C:/Users/stapi/OneDrive/Desktop/GD32VW553/V1_MQTT_OK/GD32VW55X_Wifi_BLE_SDK/GD32VW55x_RELEASE_V1.0.2/MSDK/lwip/libcoap-4.3.4/src\coap_option.c ****     return 0;
 851              		.loc 1 255 5 is_stmt 1 discriminator 1
 852 005c B7050000 		lui	a1,%hi(.LC10)
 853 0060 93850500 		addi	a1,a1,%lo(.LC10)
 854              	.LVL107:
 855              	.L110:
 269:C:/Users/stapi/OneDrive/Desktop/GD32VW553/V1_MQTT_OK/GD32VW55X_Wifi_BLE_SDK/GD32VW55x_RELEASE_V1.0.2/MSDK/lwip/libcoap-4.3.4/src\coap_option.c ****     return 0;
 856              		.loc 1 269 5 is_stmt 0 discriminator 1
 857 0064 1D45     		li	a0,7
 858 0066 97000000 		call	coap_log_impl
 858      E7800000 
 859              	.LVL108:
 860 006e D5B7     		j	.L111
 861              	.LVL109:
 862              	.L107:
 258:C:/Users/stapi/OneDrive/Desktop/GD32VW553/V1_MQTT_OK/GD32VW55X_Wifi_BLE_SDK/GD32VW55x_RELEASE_V1.0.2/MSDK/lwip/libcoap-4.3.4/src\coap_option.c ****   /* fall through */
 863              		.loc 1 258 5
 864 0070 8947     		li	a5,2
 865              	.L97:
 866              	.LVL110:
 261:C:/Users/stapi/OneDrive/Desktop/GD32VW553/V1_MQTT_OK/GD32VW55X_Wifi_BLE_SDK/GD32VW55x_RELEASE_V1.0.2/MSDK/lwip/libcoap-4.3.4/src\coap_option.c ****     break;
 867              		.loc 1 261 5 is_stmt 1
 868 0072 8507     		addi	a5,a5,1
 869              	.LVL111:
 262:C:/Users/stapi/OneDrive/Desktop/GD32VW553/V1_MQTT_OK/GD32VW55X_Wifi_BLE_SDK/GD32VW55x_RELEASE_V1.0.2/MSDK/lwip/libcoap-4.3.4/src\coap_option.c ****   default:
 870              		.loc 1 262 5
 871 0074 5DBF     		j	.L99
 872              	.LVL112:
 873              	.L108:
 253:C:/Users/stapi/OneDrive/Desktop/GD32VW553/V1_MQTT_OK/GD32VW55X_Wifi_BLE_SDK/GD32VW55x_RELEASE_V1.0.2/MSDK/lwip/libcoap-4.3.4/src\coap_option.c ****   case 0xf0:
 874              		.loc 1 253 3 is_stmt 0
 875 0076 8547     		li	a5,1
 876 0078 EDBF     		j	.L97
 877              	.LVL113:
 878              	.L103:
 269:C:/Users/stapi/OneDrive/Desktop/GD32VW553/V1_MQTT_OK/GD32VW55X_Wifi_BLE_SDK/GD32VW55x_RELEASE_V1.0.2/MSDK/lwip/libcoap-4.3.4/src\coap_option.c ****     return 0;
 879              		.loc 1 269 5 is_stmt 1
 269:C:/Users/stapi/OneDrive/Desktop/GD32VW553/V1_MQTT_OK/GD32VW55X_Wifi_BLE_SDK/GD32VW55x_RELEASE_V1.0.2/MSDK/lwip/libcoap-4.3.4/src\coap_option.c ****     return 0;
 880              		.loc 1 269 5
 881 007a 97000000 		call	coap_get_log_level
 881      E7800000 
 882              	.LVL114:
 883 0082 9947     		li	a5,6
 884 0084 E3D7A7FC 		ble	a0,a5,.L111
 269:C:/Users/stapi/OneDrive/Desktop/GD32VW553/V1_MQTT_OK/GD32VW55X_Wifi_BLE_SDK/GD32VW55x_RELEASE_V1.0.2/MSDK/lwip/libcoap-4.3.4/src\coap_option.c ****     return 0;
 885              		.loc 1 269 5 discriminator 1
 886 0088 B7050000 		lui	a1,%hi(.LC11)
 887 008c 93850500 		addi	a1,a1,%lo(.LC11)
 888 0090 D1BF     		j	.L110
 889              	.LVL115:
 890              	.L102:
 272:C:/Users/stapi/OneDrive/Desktop/GD32VW553/V1_MQTT_OK/GD32VW55X_Wifi_BLE_SDK/GD32VW55x_RELEASE_V1.0.2/MSDK/lwip/libcoap-4.3.4/src\coap_option.c ****   /* fall through */
 891              		.loc 1 272 5
 892 0092 8507     		addi	a5,a5,1
 893              	.LVL116:
 894 0094 6DB7     		j	.L104
 895              		.cfi_endproc
 896              	.LFE37:
 898              		.section	.text.coap_opt_size,"ax",@progbits
 899              		.align	1
 900              		.globl	coap_opt_size
 902              	coap_opt_size:
 903              	.LFB38:
 285:C:/Users/stapi/OneDrive/Desktop/GD32VW553/V1_MQTT_OK/GD32VW55X_Wifi_BLE_SDK/GD32VW55x_RELEASE_V1.0.2/MSDK/lwip/libcoap-4.3.4/src\coap_option.c ****   coap_option_t option;
 904              		.loc 1 285 38
 905              		.cfi_startproc
 906              	.LVL117:
 907 0000 17030000 		call	t0,__riscv_save_0
 907      E7020300 
 908              		.cfi_offset 1, -4
 909              		.cfi_def_cfa_offset 16
 286:C:/Users/stapi/OneDrive/Desktop/GD32VW553/V1_MQTT_OK/GD32VW55X_Wifi_BLE_SDK/GD32VW55x_RELEASE_V1.0.2/MSDK/lwip/libcoap-4.3.4/src\coap_option.c **** 
 910              		.loc 1 286 3
 289:C:/Users/stapi/OneDrive/Desktop/GD32VW553/V1_MQTT_OK/GD32VW55X_Wifi_BLE_SDK/GD32VW55x_RELEASE_V1.0.2/MSDK/lwip/libcoap-4.3.4/src\coap_option.c **** }
 911              		.loc 1 289 3
 285:C:/Users/stapi/OneDrive/Desktop/GD32VW553/V1_MQTT_OK/GD32VW55X_Wifi_BLE_SDK/GD32VW55x_RELEASE_V1.0.2/MSDK/lwip/libcoap-4.3.4/src\coap_option.c ****   coap_option_t option;
 912              		.loc 1 285 38 is_stmt 0
 913 0008 4111     		addi	sp,sp,-16
 914              		.cfi_def_cfa_offset 32
 289:C:/Users/stapi/OneDrive/Desktop/GD32VW553/V1_MQTT_OK/GD32VW55X_Wifi_BLE_SDK/GD32VW55x_RELEASE_V1.0.2/MSDK/lwip/libcoap-4.3.4/src\coap_option.c **** }
 915              		.loc 1 289 10
 916 000a 5000     		addi	a2,sp,4
 917 000c FD55     		li	a1,-1
 918 000e 97000000 		call	coap_opt_parse
 918      E7800000 
 919              	.LVL118:
 290:C:/Users/stapi/OneDrive/Desktop/GD32VW553/V1_MQTT_OK/GD32VW55X_Wifi_BLE_SDK/GD32VW55x_RELEASE_V1.0.2/MSDK/lwip/libcoap-4.3.4/src\coap_option.c **** 
 920              		.loc 1 290 1
 921 0016 4101     		addi	sp,sp,16
 922              		.cfi_def_cfa_offset 0
 923 0018 17030000 		tail	__riscv_restore_0
 923      67000300 
 924              		.cfi_restore 1
 925              		.cfi_def_cfa_offset -16
 926              		.cfi_endproc
 927              	.LFE38:
 929              		.section	.rodata.coap_opt_setheader.str1.4,"aMS",@progbits,1
 930              		.align	2
 931              	.LC12:
 932 0000 696E7375 		.string	"insufficient space to encode option delta %d\n"
 932      66666963 
 932      69656E74 
 932      20737061 
 932      63652074 
 933 002e 0000     		.align	2
 934              	.LC13:
 935 0030 696E7375 		.string	"insufficient space to encode option length %zu\n"
 935      66666963 
 935      69656E74 
 935      20737061 
 935      63652074 
 936              		.section	.text.coap_opt_setheader,"ax",@progbits
 937              		.align	1
 938              		.globl	coap_opt_setheader
 940              	coap_opt_setheader:
 941              	.LFB39:
 294:C:/Users/stapi/OneDrive/Desktop/GD32VW553/V1_MQTT_OK/GD32VW55X_Wifi_BLE_SDK/GD32VW55x_RELEASE_V1.0.2/MSDK/lwip/libcoap-4.3.4/src\coap_option.c ****   size_t skip = 0;
 942              		.loc 1 294 51 is_stmt 1
 943              		.cfi_startproc
 944              	.LVL119:
 945 0000 17030000 		call	t0,__riscv_save_2
 945      E7020300 
 946              		.cfi_offset 9, -12
 947              		.cfi_offset 8, -8
 948              		.cfi_offset 1, -4
 949              		.cfi_def_cfa_offset 16
 295:C:/Users/stapi/OneDrive/Desktop/GD32VW553/V1_MQTT_OK/GD32VW55X_Wifi_BLE_SDK/GD32VW55x_RELEASE_V1.0.2/MSDK/lwip/libcoap-4.3.4/src\coap_option.c **** 
 950              		.loc 1 295 3
 951              	.LVL120:
 297:C:/Users/stapi/OneDrive/Desktop/GD32VW553/V1_MQTT_OK/GD32VW55X_Wifi_BLE_SDK/GD32VW55x_RELEASE_V1.0.2/MSDK/lwip/libcoap-4.3.4/src\coap_option.c **** 
 952              		.loc 1 297 3
 953 0008 1DE1     		bne	a0,zero,.L115
 297:C:/Users/stapi/OneDrive/Desktop/GD32VW553/V1_MQTT_OK/GD32VW55X_Wifi_BLE_SDK/GD32VW55x_RELEASE_V1.0.2/MSDK/lwip/libcoap-4.3.4/src\coap_option.c **** 
 954              		.loc 1 297 3 is_stmt 0 discriminator 1
 955 000a B7060000 		lui	a3,%hi(.LC0)
 956              	.LVL121:
 957 000e 37060000 		lui	a2,%hi(.LANCHOR2)
 958              	.LVL122:
 959 0012 37050000 		lui	a0,%hi(.LC1)
 960              	.LVL123:
 961 0016 93860600 		addi	a3,a3,%lo(.LC0)
 962 001a 13060600 		addi	a2,a2,%lo(.LANCHOR2)
 963 001e 93059012 		li	a1,297
 964              	.LVL124:
 965 0022 13050500 		addi	a0,a0,%lo(.LC1)
 966 0026 97000000 		call	__assert_func
 966      E7800000 
 967              	.LVL125:
 968              	.L115:
 299:C:/Users/stapi/OneDrive/Desktop/GD32VW553/V1_MQTT_OK/GD32VW55X_Wifi_BLE_SDK/GD32VW55x_RELEASE_V1.0.2/MSDK/lwip/libcoap-4.3.4/src\coap_option.c ****     return 0;
 969              		.loc 1 299 3 is_stmt 1
 299:C:/Users/stapi/OneDrive/Desktop/GD32VW553/V1_MQTT_OK/GD32VW55X_Wifi_BLE_SDK/GD32VW55x_RELEASE_V1.0.2/MSDK/lwip/libcoap-4.3.4/src\coap_option.c ****     return 0;
 970              		.loc 1 299 6 is_stmt 0
 971 002e 91E5     		bne	a1,zero,.L116
 972              	.LVL126:
 973              	.L134:
 974              	.LBB14:
 975              	.LBB15:
 331:C:/Users/stapi/OneDrive/Desktop/GD32VW553/V1_MQTT_OK/GD32VW55X_Wifi_BLE_SDK/GD32VW55x_RELEASE_V1.0.2/MSDK/lwip/libcoap-4.3.4/src\coap_option.c ****     }
 976              		.loc 1 331 14
 977 0030 0145     		li	a0,0
 978              	.L114:
 979              	.LBE15:
 980              	.LBE14:
 349:C:/Users/stapi/OneDrive/Desktop/GD32VW553/V1_MQTT_OK/GD32VW55X_Wifi_BLE_SDK/GD32VW55x_RELEASE_V1.0.2/MSDK/lwip/libcoap-4.3.4/src\coap_option.c **** 
 981              		.loc 1 349 1
 982 0032 17030000 		tail	__riscv_restore_2
 982      67000300 
 983              		.cfi_remember_state
 984              		.cfi_restore 9
 985              		.cfi_restore 8
 986              		.cfi_restore 1
 987              		.cfi_def_cfa_offset 0
 988              	.LVL127:
 989              	.L116:
 990              		.cfi_restore_state
 991              	.LBB17:
 992              	.LBB16:
 302:C:/Users/stapi/OneDrive/Desktop/GD32VW553/V1_MQTT_OK/GD32VW55X_Wifi_BLE_SDK/GD32VW55x_RELEASE_V1.0.2/MSDK/lwip/libcoap-4.3.4/src\coap_option.c ****     opt[0] = (coap_opt_t)(delta << 4);
 993              		.loc 1 302 6
 994 003a B147     		li	a5,12
 995 003c B284     		mv	s1,a2
 996 003e 3684     		mv	s0,a3
 997              	.LVL128:
 302:C:/Users/stapi/OneDrive/Desktop/GD32VW553/V1_MQTT_OK/GD32VW55X_Wifi_BLE_SDK/GD32VW55x_RELEASE_V1.0.2/MSDK/lwip/libcoap-4.3.4/src\coap_option.c ****     opt[0] = (coap_opt_t)(delta << 4);
 998              		.loc 1 302 3 is_stmt 1
 302:C:/Users/stapi/OneDrive/Desktop/GD32VW553/V1_MQTT_OK/GD32VW55X_Wifi_BLE_SDK/GD32VW55x_RELEASE_V1.0.2/MSDK/lwip/libcoap-4.3.4/src\coap_option.c ****     opt[0] = (coap_opt_t)(delta << 4);
 999              		.loc 1 302 6 is_stmt 0
 1000 0040 63E2C702 		bgtu	a2,a5,.L118
 1001              	.LVL129:
 303:C:/Users/stapi/OneDrive/Desktop/GD32VW553/V1_MQTT_OK/GD32VW55X_Wifi_BLE_SDK/GD32VW55x_RELEASE_V1.0.2/MSDK/lwip/libcoap-4.3.4/src\coap_option.c ****   } else if (delta < 269) {
 1002              		.loc 1 303 5 is_stmt 1
 303:C:/Users/stapi/OneDrive/Desktop/GD32VW553/V1_MQTT_OK/GD32VW55X_Wifi_BLE_SDK/GD32VW55x_RELEASE_V1.0.2/MSDK/lwip/libcoap-4.3.4/src\coap_option.c ****   } else if (delta < 269) {
 1003              		.loc 1 303 14 is_stmt 0
 1004 0044 93174600 		slli	a5,a2,4
 303:C:/Users/stapi/OneDrive/Desktop/GD32VW553/V1_MQTT_OK/GD32VW55X_Wifi_BLE_SDK/GD32VW55x_RELEASE_V1.0.2/MSDK/lwip/libcoap-4.3.4/src\coap_option.c ****   } else if (delta < 269) {
 1005              		.loc 1 303 12
 1006 0048 2300F500 		sb	a5,0(a0)
 295:C:/Users/stapi/OneDrive/Desktop/GD32VW553/V1_MQTT_OK/GD32VW55X_Wifi_BLE_SDK/GD32VW55x_RELEASE_V1.0.2/MSDK/lwip/libcoap-4.3.4/src\coap_option.c **** 
 1007              		.loc 1 295 10
 1008 004c 8147     		li	a5,0
 1009              	.L119:
 1010              	.LVL130:
 325:C:/Users/stapi/OneDrive/Desktop/GD32VW553/V1_MQTT_OK/GD32VW55X_Wifi_BLE_SDK/GD32VW55x_RELEASE_V1.0.2/MSDK/lwip/libcoap-4.3.4/src\coap_option.c ****     opt[0] |= length & 0x0f;
 1011              		.loc 1 325 3 is_stmt 1
 325:C:/Users/stapi/OneDrive/Desktop/GD32VW553/V1_MQTT_OK/GD32VW55X_Wifi_BLE_SDK/GD32VW55x_RELEASE_V1.0.2/MSDK/lwip/libcoap-4.3.4/src\coap_option.c ****     opt[0] |= length & 0x0f;
 1012              		.loc 1 325 6 is_stmt 0
 1013 004e 3147     		li	a4,12
 1014 0050 636E8706 		bgtu	s0,a4,.L124
 326:C:/Users/stapi/OneDrive/Desktop/GD32VW553/V1_MQTT_OK/GD32VW55X_Wifi_BLE_SDK/GD32VW55x_RELEASE_V1.0.2/MSDK/lwip/libcoap-4.3.4/src\coap_option.c ****   } else if (length < 269) {
 1015              		.loc 1 326 5 is_stmt 1
 326:C:/Users/stapi/OneDrive/Desktop/GD32VW553/V1_MQTT_OK/GD32VW55X_Wifi_BLE_SDK/GD32VW55x_RELEASE_V1.0.2/MSDK/lwip/libcoap-4.3.4/src\coap_option.c ****   } else if (length < 269) {
 1016              		.loc 1 326 12 is_stmt 0
 1017 0054 83460500 		lbu	a3,0(a0)
 1018 0058 C18E     		or	a3,s0,a3
 1019 005a 2300D500 		sb	a3,0(a0)
 1020              	.LVL131:
 1021              	.L125:
 348:C:/Users/stapi/OneDrive/Desktop/GD32VW553/V1_MQTT_OK/GD32VW55X_Wifi_BLE_SDK/GD32VW55x_RELEASE_V1.0.2/MSDK/lwip/libcoap-4.3.4/src\coap_option.c **** }
 1022              		.loc 1 348 3 is_stmt 1
 348:C:/Users/stapi/OneDrive/Desktop/GD32VW553/V1_MQTT_OK/GD32VW55X_Wifi_BLE_SDK/GD32VW55x_RELEASE_V1.0.2/MSDK/lwip/libcoap-4.3.4/src\coap_option.c **** }
 1023              		.loc 1 348 15 is_stmt 0
 1024 005e 13851700 		addi	a0,a5,1
 1025              	.LVL132:
 1026 0062 C1BF     		j	.L114
 1027              	.LVL133:
 1028              	.L118:
 304:C:/Users/stapi/OneDrive/Desktop/GD32VW553/V1_MQTT_OK/GD32VW55X_Wifi_BLE_SDK/GD32VW55x_RELEASE_V1.0.2/MSDK/lwip/libcoap-4.3.4/src\coap_option.c ****     if (maxlen < 2) {
 1029              		.loc 1 304 10 is_stmt 1
 304:C:/Users/stapi/OneDrive/Desktop/GD32VW553/V1_MQTT_OK/GD32VW55X_Wifi_BLE_SDK/GD32VW55x_RELEASE_V1.0.2/MSDK/lwip/libcoap-4.3.4/src\coap_option.c ****     if (maxlen < 2) {
 1030              		.loc 1 304 13 is_stmt 0
 1031 0064 9307C010 		li	a5,268
 1032 0068 63E1C704 		bgtu	a2,a5,.L120
 305:C:/Users/stapi/OneDrive/Desktop/GD32VW553/V1_MQTT_OK/GD32VW55X_Wifi_BLE_SDK/GD32VW55x_RELEASE_V1.0.2/MSDK/lwip/libcoap-4.3.4/src\coap_option.c ****       coap_log_debug("insufficient space to encode option delta %d\n",
 1033              		.loc 1 305 5 is_stmt 1
 305:C:/Users/stapi/OneDrive/Desktop/GD32VW553/V1_MQTT_OK/GD32VW55X_Wifi_BLE_SDK/GD32VW55x_RELEASE_V1.0.2/MSDK/lwip/libcoap-4.3.4/src\coap_option.c ****       coap_log_debug("insufficient space to encode option delta %d\n",
 1034              		.loc 1 305 8 is_stmt 0
 1035 006c 8547     		li	a5,1
 1036 006e 6394F502 		bne	a1,a5,.L121
 1037              	.L123:
 306:C:/Users/stapi/OneDrive/Desktop/GD32VW553/V1_MQTT_OK/GD32VW55X_Wifi_BLE_SDK/GD32VW55x_RELEASE_V1.0.2/MSDK/lwip/libcoap-4.3.4/src\coap_option.c ****                      delta);
 1038              		.loc 1 306 7 is_stmt 1
 306:C:/Users/stapi/OneDrive/Desktop/GD32VW553/V1_MQTT_OK/GD32VW55X_Wifi_BLE_SDK/GD32VW55x_RELEASE_V1.0.2/MSDK/lwip/libcoap-4.3.4/src\coap_option.c ****                      delta);
 1039              		.loc 1 306 7
 1040 0072 97000000 		call	coap_get_log_level
 1040      E7800000 
 1041              	.LVL134:
 1042 007a 9947     		li	a5,6
 1043 007c E3DAA7FA 		ble	a0,a5,.L134
 306:C:/Users/stapi/OneDrive/Desktop/GD32VW553/V1_MQTT_OK/GD32VW55X_Wifi_BLE_SDK/GD32VW55x_RELEASE_V1.0.2/MSDK/lwip/libcoap-4.3.4/src\coap_option.c ****                      delta);
 1044              		.loc 1 306 7
 1045 0080 B7050000 		lui	a1,%hi(.LC12)
 1046 0084 2686     		mv	a2,s1
 1047 0086 93850500 		addi	a1,a1,%lo(.LC12)
 1048              	.L133:
 329:C:/Users/stapi/OneDrive/Desktop/GD32VW553/V1_MQTT_OK/GD32VW55X_Wifi_BLE_SDK/GD32VW55x_RELEASE_V1.0.2/MSDK/lwip/libcoap-4.3.4/src\coap_option.c ****                      length);
 1049              		.loc 1 329 7 is_stmt 0
 1050 008a 1D45     		li	a0,7
 1051 008c 97000000 		call	coap_log_impl
 1051      E7800000 
 1052              	.LVL135:
 1053 0094 71BF     		j	.L134
 1054              	.LVL136:
 1055              	.L121:
 311:C:/Users/stapi/OneDrive/Desktop/GD32VW553/V1_MQTT_OK/GD32VW55X_Wifi_BLE_SDK/GD32VW55x_RELEASE_V1.0.2/MSDK/lwip/libcoap-4.3.4/src\coap_option.c ****     opt[++skip] = (coap_opt_t)(delta - 13);
 1056              		.loc 1 311 5 is_stmt 1
 311:C:/Users/stapi/OneDrive/Desktop/GD32VW553/V1_MQTT_OK/GD32VW55X_Wifi_BLE_SDK/GD32VW55x_RELEASE_V1.0.2/MSDK/lwip/libcoap-4.3.4/src\coap_option.c ****     opt[++skip] = (coap_opt_t)(delta - 13);
 1057              		.loc 1 311 12 is_stmt 0
 1058 0096 930700FD 		li	a5,-48
 1059 009a 2300F500 		sb	a5,0(a0)
 312:C:/Users/stapi/OneDrive/Desktop/GD32VW553/V1_MQTT_OK/GD32VW55X_Wifi_BLE_SDK/GD32VW55x_RELEASE_V1.0.2/MSDK/lwip/libcoap-4.3.4/src\coap_option.c ****   } else {
 1060              		.loc 1 312 5 is_stmt 1
 1061              	.LVL137:
 312:C:/Users/stapi/OneDrive/Desktop/GD32VW553/V1_MQTT_OK/GD32VW55X_Wifi_BLE_SDK/GD32VW55x_RELEASE_V1.0.2/MSDK/lwip/libcoap-4.3.4/src\coap_option.c ****   } else {
 1062              		.loc 1 312 19 is_stmt 0
 1063 009e 930736FF 		addi	a5,a2,-13
 312:C:/Users/stapi/OneDrive/Desktop/GD32VW553/V1_MQTT_OK/GD32VW55X_Wifi_BLE_SDK/GD32VW55x_RELEASE_V1.0.2/MSDK/lwip/libcoap-4.3.4/src\coap_option.c ****   } else {
 1064              		.loc 1 312 17
 1065 00a2 A300F500 		sb	a5,1(a0)
 1066 00a6 8547     		li	a5,1
 1067 00a8 5DB7     		j	.L119
 1068              	.LVL138:
 1069              	.L120:
 314:C:/Users/stapi/OneDrive/Desktop/GD32VW553/V1_MQTT_OK/GD32VW55X_Wifi_BLE_SDK/GD32VW55x_RELEASE_V1.0.2/MSDK/lwip/libcoap-4.3.4/src\coap_option.c ****       coap_log_debug("insufficient space to encode option delta %d\n",
 1070              		.loc 1 314 5 is_stmt 1
 314:C:/Users/stapi/OneDrive/Desktop/GD32VW553/V1_MQTT_OK/GD32VW55X_Wifi_BLE_SDK/GD32VW55x_RELEASE_V1.0.2/MSDK/lwip/libcoap-4.3.4/src\coap_option.c ****       coap_log_debug("insufficient space to encode option delta %d\n",
 1071              		.loc 1 314 8 is_stmt 0
 1072 00aa 8947     		li	a5,2
 1073 00ac E3F3B7FC 		bleu	a1,a5,.L123
 320:C:/Users/stapi/OneDrive/Desktop/GD32VW553/V1_MQTT_OK/GD32VW55X_Wifi_BLE_SDK/GD32VW55x_RELEASE_V1.0.2/MSDK/lwip/libcoap-4.3.4/src\coap_option.c ****     opt[++skip] = ((delta - 269) >> 8) & 0xff;
 1074              		.loc 1 320 5 is_stmt 1
 320:C:/Users/stapi/OneDrive/Desktop/GD32VW553/V1_MQTT_OK/GD32VW55X_Wifi_BLE_SDK/GD32VW55x_RELEASE_V1.0.2/MSDK/lwip/libcoap-4.3.4/src\coap_option.c ****     opt[++skip] = ((delta - 269) >> 8) & 0xff;
 1075              		.loc 1 320 12 is_stmt 0
 1076 00b0 8157     		li	a5,-32
 1077 00b2 2300F500 		sb	a5,0(a0)
 321:C:/Users/stapi/OneDrive/Desktop/GD32VW553/V1_MQTT_OK/GD32VW55X_Wifi_BLE_SDK/GD32VW55x_RELEASE_V1.0.2/MSDK/lwip/libcoap-4.3.4/src\coap_option.c ****     opt[++skip] = (delta - 269) & 0xff;
 1078              		.loc 1 321 5 is_stmt 1
 1079              	.LVL139:
 321:C:/Users/stapi/OneDrive/Desktop/GD32VW553/V1_MQTT_OK/GD32VW55X_Wifi_BLE_SDK/GD32VW55x_RELEASE_V1.0.2/MSDK/lwip/libcoap-4.3.4/src\coap_option.c ****     opt[++skip] = (delta - 269) & 0xff;
 1080              		.loc 1 321 27 is_stmt 0
 1081 00b6 930736EF 		addi	a5,a2,-269
 321:C:/Users/stapi/OneDrive/Desktop/GD32VW553/V1_MQTT_OK/GD32VW55X_Wifi_BLE_SDK/GD32VW55x_RELEASE_V1.0.2/MSDK/lwip/libcoap-4.3.4/src\coap_option.c ****     opt[++skip] = (delta - 269) & 0xff;
 1082              		.loc 1 321 34
 1083 00ba A187     		srai	a5,a5,8
 321:C:/Users/stapi/OneDrive/Desktop/GD32VW553/V1_MQTT_OK/GD32VW55X_Wifi_BLE_SDK/GD32VW55x_RELEASE_V1.0.2/MSDK/lwip/libcoap-4.3.4/src\coap_option.c ****     opt[++skip] = (delta - 269) & 0xff;
 1084              		.loc 1 321 17
 1085 00bc A300F500 		sb	a5,1(a0)
 322:C:/Users/stapi/OneDrive/Desktop/GD32VW553/V1_MQTT_OK/GD32VW55X_Wifi_BLE_SDK/GD32VW55x_RELEASE_V1.0.2/MSDK/lwip/libcoap-4.3.4/src\coap_option.c ****   }
 1086              		.loc 1 322 5 is_stmt 1
 1087              	.LVL140:
 322:C:/Users/stapi/OneDrive/Desktop/GD32VW553/V1_MQTT_OK/GD32VW55X_Wifi_BLE_SDK/GD32VW55x_RELEASE_V1.0.2/MSDK/lwip/libcoap-4.3.4/src\coap_option.c ****   }
 1088              		.loc 1 322 26 is_stmt 0
 1089 00c0 930736FF 		addi	a5,a2,-13
 322:C:/Users/stapi/OneDrive/Desktop/GD32VW553/V1_MQTT_OK/GD32VW55X_Wifi_BLE_SDK/GD32VW55x_RELEASE_V1.0.2/MSDK/lwip/libcoap-4.3.4/src\coap_option.c ****   }
 1090              		.loc 1 322 17
 1091 00c4 2301F500 		sb	a5,2(a0)
 1092 00c8 8947     		li	a5,2
 1093 00ca 51B7     		j	.L119
 1094              	.LVL141:
 1095              	.L124:
 327:C:/Users/stapi/OneDrive/Desktop/GD32VW553/V1_MQTT_OK/GD32VW55X_Wifi_BLE_SDK/GD32VW55x_RELEASE_V1.0.2/MSDK/lwip/libcoap-4.3.4/src\coap_option.c ****     if (maxlen < skip + 2) {
 1096              		.loc 1 327 10 is_stmt 1
 327:C:/Users/stapi/OneDrive/Desktop/GD32VW553/V1_MQTT_OK/GD32VW55X_Wifi_BLE_SDK/GD32VW55x_RELEASE_V1.0.2/MSDK/lwip/libcoap-4.3.4/src\coap_option.c ****     if (maxlen < skip + 2) {
 1097              		.loc 1 327 13 is_stmt 0
 1098 00cc 1307C010 		li	a4,268
 1099 00d0 636F8702 		bgtu	s0,a4,.L126
 328:C:/Users/stapi/OneDrive/Desktop/GD32VW553/V1_MQTT_OK/GD32VW55X_Wifi_BLE_SDK/GD32VW55x_RELEASE_V1.0.2/MSDK/lwip/libcoap-4.3.4/src\coap_option.c ****       coap_log_debug("insufficient space to encode option length %zu\n",
 1100              		.loc 1 328 5 is_stmt 1
 328:C:/Users/stapi/OneDrive/Desktop/GD32VW553/V1_MQTT_OK/GD32VW55X_Wifi_BLE_SDK/GD32VW55x_RELEASE_V1.0.2/MSDK/lwip/libcoap-4.3.4/src\coap_option.c ****       coap_log_debug("insufficient space to encode option length %zu\n",
 1101              		.loc 1 328 23 is_stmt 0
 1102 00d4 13872700 		addi	a4,a5,2
 328:C:/Users/stapi/OneDrive/Desktop/GD32VW553/V1_MQTT_OK/GD32VW55X_Wifi_BLE_SDK/GD32VW55x_RELEASE_V1.0.2/MSDK/lwip/libcoap-4.3.4/src\coap_option.c ****       coap_log_debug("insufficient space to encode option length %zu\n",
 1103              		.loc 1 328 8
 1104 00d8 63FFE500 		bgeu	a1,a4,.L127
 329:C:/Users/stapi/OneDrive/Desktop/GD32VW553/V1_MQTT_OK/GD32VW55X_Wifi_BLE_SDK/GD32VW55x_RELEASE_V1.0.2/MSDK/lwip/libcoap-4.3.4/src\coap_option.c ****                      length);
 1105              		.loc 1 329 7 is_stmt 1
 329:C:/Users/stapi/OneDrive/Desktop/GD32VW553/V1_MQTT_OK/GD32VW55X_Wifi_BLE_SDK/GD32VW55x_RELEASE_V1.0.2/MSDK/lwip/libcoap-4.3.4/src\coap_option.c ****                      length);
 1106              		.loc 1 329 7
 1107 00dc 97000000 		call	coap_get_log_level
 1107      E7800000 
 1108              	.LVL142:
 1109 00e4 9947     		li	a5,6
 1110 00e6 E3D5A7F4 		ble	a0,a5,.L134
 329:C:/Users/stapi/OneDrive/Desktop/GD32VW553/V1_MQTT_OK/GD32VW55X_Wifi_BLE_SDK/GD32VW55x_RELEASE_V1.0.2/MSDK/lwip/libcoap-4.3.4/src\coap_option.c ****                      length);
 1111              		.loc 1 329 7
 1112 00ea B7050000 		lui	a1,%hi(.LC13)
 1113 00ee 2286     		mv	a2,s0
 1114 00f0 93850500 		addi	a1,a1,%lo(.LC13)
 1115 00f4 59BF     		j	.L133
 1116              	.LVL143:
 1117              	.L127:
 334:C:/Users/stapi/OneDrive/Desktop/GD32VW553/V1_MQTT_OK/GD32VW55X_Wifi_BLE_SDK/GD32VW55x_RELEASE_V1.0.2/MSDK/lwip/libcoap-4.3.4/src\coap_option.c ****     opt[++skip] = (coap_opt_t)(length - 13);
 1118              		.loc 1 334 5
 334:C:/Users/stapi/OneDrive/Desktop/GD32VW553/V1_MQTT_OK/GD32VW55X_Wifi_BLE_SDK/GD32VW55x_RELEASE_V1.0.2/MSDK/lwip/libcoap-4.3.4/src\coap_option.c ****     opt[++skip] = (coap_opt_t)(length - 13);
 1119              		.loc 1 334 12 is_stmt 0
 1120 00f6 03470500 		lbu	a4,0(a0)
 335:C:/Users/stapi/OneDrive/Desktop/GD32VW553/V1_MQTT_OK/GD32VW55X_Wifi_BLE_SDK/GD32VW55x_RELEASE_V1.0.2/MSDK/lwip/libcoap-4.3.4/src\coap_option.c ****   } else {
 1121              		.loc 1 335 17
 1122 00fa 8507     		addi	a5,a5,1
 1123              	.LVL144:
 334:C:/Users/stapi/OneDrive/Desktop/GD32VW553/V1_MQTT_OK/GD32VW55X_Wifi_BLE_SDK/GD32VW55x_RELEASE_V1.0.2/MSDK/lwip/libcoap-4.3.4/src\coap_option.c ****     opt[++skip] = (coap_opt_t)(length - 13);
 1124              		.loc 1 334 12
 1125 00fc 1367D700 		ori	a4,a4,13
 1126 0100 2300E500 		sb	a4,0(a0)
 335:C:/Users/stapi/OneDrive/Desktop/GD32VW553/V1_MQTT_OK/GD32VW55X_Wifi_BLE_SDK/GD32VW55x_RELEASE_V1.0.2/MSDK/lwip/libcoap-4.3.4/src\coap_option.c ****   } else {
 1127              		.loc 1 335 5 is_stmt 1
 1128              	.LVL145:
 1129              	.L132:
 345:C:/Users/stapi/OneDrive/Desktop/GD32VW553/V1_MQTT_OK/GD32VW55X_Wifi_BLE_SDK/GD32VW55x_RELEASE_V1.0.2/MSDK/lwip/libcoap-4.3.4/src\coap_option.c ****   }
 1130              		.loc 1 345 17 is_stmt 0
 1131 0104 3E95     		add	a0,a0,a5
 1132              	.LVL146:
 345:C:/Users/stapi/OneDrive/Desktop/GD32VW553/V1_MQTT_OK/GD32VW55X_Wifi_BLE_SDK/GD32VW55x_RELEASE_V1.0.2/MSDK/lwip/libcoap-4.3.4/src\coap_option.c ****   }
 1133              		.loc 1 345 27
 1134 0106 4D14     		addi	s0,s0,-13
 1135              	.LVL147:
 345:C:/Users/stapi/OneDrive/Desktop/GD32VW553/V1_MQTT_OK/GD32VW55X_Wifi_BLE_SDK/GD32VW55x_RELEASE_V1.0.2/MSDK/lwip/libcoap-4.3.4/src\coap_option.c ****   }
 1136              		.loc 1 345 17
 1137 0108 23008500 		sb	s0,0(a0)
 1138 010c 89BF     		j	.L125
 1139              	.LVL148:
 1140              	.L126:
 337:C:/Users/stapi/OneDrive/Desktop/GD32VW553/V1_MQTT_OK/GD32VW55X_Wifi_BLE_SDK/GD32VW55x_RELEASE_V1.0.2/MSDK/lwip/libcoap-4.3.4/src\coap_option.c ****       coap_log_debug("insufficient space to encode option delta %d\n",
 1141              		.loc 1 337 5 is_stmt 1
 337:C:/Users/stapi/OneDrive/Desktop/GD32VW553/V1_MQTT_OK/GD32VW55X_Wifi_BLE_SDK/GD32VW55x_RELEASE_V1.0.2/MSDK/lwip/libcoap-4.3.4/src\coap_option.c ****       coap_log_debug("insufficient space to encode option delta %d\n",
 1142              		.loc 1 337 23 is_stmt 0
 1143 010e 13873700 		addi	a4,a5,3
 337:C:/Users/stapi/OneDrive/Desktop/GD32VW553/V1_MQTT_OK/GD32VW55X_Wifi_BLE_SDK/GD32VW55x_RELEASE_V1.0.2/MSDK/lwip/libcoap-4.3.4/src\coap_option.c ****       coap_log_debug("insufficient space to encode option delta %d\n",
 1144              		.loc 1 337 8
 1145 0112 E3E0E5F6 		bltu	a1,a4,.L123
 343:C:/Users/stapi/OneDrive/Desktop/GD32VW553/V1_MQTT_OK/GD32VW55X_Wifi_BLE_SDK/GD32VW55x_RELEASE_V1.0.2/MSDK/lwip/libcoap-4.3.4/src\coap_option.c ****     opt[++skip] = ((length - 269) >> 8) & 0xff;
 1146              		.loc 1 343 5 is_stmt 1
 343:C:/Users/stapi/OneDrive/Desktop/GD32VW553/V1_MQTT_OK/GD32VW55X_Wifi_BLE_SDK/GD32VW55x_RELEASE_V1.0.2/MSDK/lwip/libcoap-4.3.4/src\coap_option.c ****     opt[++skip] = ((length - 269) >> 8) & 0xff;
 1147              		.loc 1 343 12 is_stmt 0
 1148 0116 03470500 		lbu	a4,0(a0)
 344:C:/Users/stapi/OneDrive/Desktop/GD32VW553/V1_MQTT_OK/GD32VW55X_Wifi_BLE_SDK/GD32VW55x_RELEASE_V1.0.2/MSDK/lwip/libcoap-4.3.4/src\coap_option.c ****     opt[++skip] = (length - 269) & 0xff;
 1149              		.loc 1 344 17
 1150 011a B306F500 		add	a3,a0,a5
 345:C:/Users/stapi/OneDrive/Desktop/GD32VW553/V1_MQTT_OK/GD32VW55X_Wifi_BLE_SDK/GD32VW55x_RELEASE_V1.0.2/MSDK/lwip/libcoap-4.3.4/src\coap_option.c ****   }
 1151              		.loc 1 345 17
 1152 011e 8907     		addi	a5,a5,2
 1153              	.LVL149:
 343:C:/Users/stapi/OneDrive/Desktop/GD32VW553/V1_MQTT_OK/GD32VW55X_Wifi_BLE_SDK/GD32VW55x_RELEASE_V1.0.2/MSDK/lwip/libcoap-4.3.4/src\coap_option.c ****     opt[++skip] = ((length - 269) >> 8) & 0xff;
 1154              		.loc 1 343 12
 1155 0120 1367E700 		ori	a4,a4,14
 1156 0124 2300E500 		sb	a4,0(a0)
 344:C:/Users/stapi/OneDrive/Desktop/GD32VW553/V1_MQTT_OK/GD32VW55X_Wifi_BLE_SDK/GD32VW55x_RELEASE_V1.0.2/MSDK/lwip/libcoap-4.3.4/src\coap_option.c ****     opt[++skip] = (length - 269) & 0xff;
 1157              		.loc 1 344 5 is_stmt 1
 1158              	.LVL150:
 344:C:/Users/stapi/OneDrive/Desktop/GD32VW553/V1_MQTT_OK/GD32VW55X_Wifi_BLE_SDK/GD32VW55x_RELEASE_V1.0.2/MSDK/lwip/libcoap-4.3.4/src\coap_option.c ****     opt[++skip] = (length - 269) & 0xff;
 1159              		.loc 1 344 28 is_stmt 0
 1160 0128 130734EF 		addi	a4,s0,-269
 344:C:/Users/stapi/OneDrive/Desktop/GD32VW553/V1_MQTT_OK/GD32VW55X_Wifi_BLE_SDK/GD32VW55x_RELEASE_V1.0.2/MSDK/lwip/libcoap-4.3.4/src\coap_option.c ****     opt[++skip] = (length - 269) & 0xff;
 1161              		.loc 1 344 35
 1162 012c 2183     		srli	a4,a4,8
 344:C:/Users/stapi/OneDrive/Desktop/GD32VW553/V1_MQTT_OK/GD32VW55X_Wifi_BLE_SDK/GD32VW55x_RELEASE_V1.0.2/MSDK/lwip/libcoap-4.3.4/src\coap_option.c ****     opt[++skip] = (length - 269) & 0xff;
 1163              		.loc 1 344 17
 1164 012e A380E600 		sb	a4,1(a3)
 345:C:/Users/stapi/OneDrive/Desktop/GD32VW553/V1_MQTT_OK/GD32VW55X_Wifi_BLE_SDK/GD32VW55x_RELEASE_V1.0.2/MSDK/lwip/libcoap-4.3.4/src\coap_option.c ****   }
 1165              		.loc 1 345 5 is_stmt 1
 1166 0132 C9BF     		j	.L132
 1167              	.LBE16:
 1168              	.LBE17:
 1169              		.cfi_endproc
 1170              	.LFE39:
 1172              		.section	.text.coap_opt_encode_size,"ax",@progbits
 1173              		.align	1
 1174              		.globl	coap_opt_encode_size
 1176              	coap_opt_encode_size:
 1177              	.LFB40:
 352:C:/Users/stapi/OneDrive/Desktop/GD32VW553/V1_MQTT_OK/GD32VW55X_Wifi_BLE_SDK/GD32VW55x_RELEASE_V1.0.2/MSDK/lwip/libcoap-4.3.4/src\coap_option.c ****   size_t n = 1;
 1178              		.loc 1 352 53
 1179              		.cfi_startproc
 1180              	.LVL151:
 353:C:/Users/stapi/OneDrive/Desktop/GD32VW553/V1_MQTT_OK/GD32VW55X_Wifi_BLE_SDK/GD32VW55x_RELEASE_V1.0.2/MSDK/lwip/libcoap-4.3.4/src\coap_option.c **** 
 1181              		.loc 1 353 3
 355:C:/Users/stapi/OneDrive/Desktop/GD32VW553/V1_MQTT_OK/GD32VW55X_Wifi_BLE_SDK/GD32VW55x_RELEASE_V1.0.2/MSDK/lwip/libcoap-4.3.4/src\coap_option.c ****     if (delta < 269)
 1182              		.loc 1 355 3
 355:C:/Users/stapi/OneDrive/Desktop/GD32VW553/V1_MQTT_OK/GD32VW55X_Wifi_BLE_SDK/GD32VW55x_RELEASE_V1.0.2/MSDK/lwip/libcoap-4.3.4/src\coap_option.c ****     if (delta < 269)
 1183              		.loc 1 355 6 is_stmt 0
 1184 0000 3147     		li	a4,12
 353:C:/Users/stapi/OneDrive/Desktop/GD32VW553/V1_MQTT_OK/GD32VW55X_Wifi_BLE_SDK/GD32VW55x_RELEASE_V1.0.2/MSDK/lwip/libcoap-4.3.4/src\coap_option.c **** 
 1185              		.loc 1 353 10
 1186 0002 8547     		li	a5,1
 355:C:/Users/stapi/OneDrive/Desktop/GD32VW553/V1_MQTT_OK/GD32VW55X_Wifi_BLE_SDK/GD32VW55x_RELEASE_V1.0.2/MSDK/lwip/libcoap-4.3.4/src\coap_option.c ****     if (delta < 269)
 1187              		.loc 1 355 6
 1188 0004 6377A700 		bleu	a0,a4,.L136
 356:C:/Users/stapi/OneDrive/Desktop/GD32VW553/V1_MQTT_OK/GD32VW55X_Wifi_BLE_SDK/GD32VW55x_RELEASE_V1.0.2/MSDK/lwip/libcoap-4.3.4/src\coap_option.c ****       n += 1;
 1189              		.loc 1 356 5 is_stmt 1
 356:C:/Users/stapi/OneDrive/Desktop/GD32VW553/V1_MQTT_OK/GD32VW55X_Wifi_BLE_SDK/GD32VW55x_RELEASE_V1.0.2/MSDK/lwip/libcoap-4.3.4/src\coap_option.c ****       n += 1;
 1190              		.loc 1 356 8 is_stmt 0
 1191 0008 9307C010 		li	a5,268
 359:C:/Users/stapi/OneDrive/Desktop/GD32VW553/V1_MQTT_OK/GD32VW55X_Wifi_BLE_SDK/GD32VW55x_RELEASE_V1.0.2/MSDK/lwip/libcoap-4.3.4/src\coap_option.c ****   }
 1192              		.loc 1 359 9
 1193 000c B3B7A700 		sgtu	a5,a0,a5
 1194 0010 8907     		addi	a5,a5,2
 1195              	.L136:
 1196              	.LVL152:
 362:C:/Users/stapi/OneDrive/Desktop/GD32VW553/V1_MQTT_OK/GD32VW55X_Wifi_BLE_SDK/GD32VW55x_RELEASE_V1.0.2/MSDK/lwip/libcoap-4.3.4/src\coap_option.c ****     if (length < 269)
 1197              		.loc 1 362 3 is_stmt 1
 362:C:/Users/stapi/OneDrive/Desktop/GD32VW553/V1_MQTT_OK/GD32VW55X_Wifi_BLE_SDK/GD32VW55x_RELEASE_V1.0.2/MSDK/lwip/libcoap-4.3.4/src\coap_option.c ****     if (length < 269)
 1198              		.loc 1 362 6 is_stmt 0
 1199 0012 3147     		li	a4,12
 1200 0014 6377B700 		bleu	a1,a4,.L137
 363:C:/Users/stapi/OneDrive/Desktop/GD32VW553/V1_MQTT_OK/GD32VW55X_Wifi_BLE_SDK/GD32VW55x_RELEASE_V1.0.2/MSDK/lwip/libcoap-4.3.4/src\coap_option.c ****       n += 1;
 1201              		.loc 1 363 5 is_stmt 1
 363:C:/Users/stapi/OneDrive/Desktop/GD32VW553/V1_MQTT_OK/GD32VW55X_Wifi_BLE_SDK/GD32VW55x_RELEASE_V1.0.2/MSDK/lwip/libcoap-4.3.4/src\coap_option.c ****       n += 1;
 1202              		.loc 1 363 8 is_stmt 0
 1203 0018 1307C010 		li	a4,268
 1204 001c 6366B700 		bgtu	a1,a4,.L138
 364:C:/Users/stapi/OneDrive/Desktop/GD32VW553/V1_MQTT_OK/GD32VW55X_Wifi_BLE_SDK/GD32VW55x_RELEASE_V1.0.2/MSDK/lwip/libcoap-4.3.4/src\coap_option.c ****     else
 1205              		.loc 1 364 7 is_stmt 1
 364:C:/Users/stapi/OneDrive/Desktop/GD32VW553/V1_MQTT_OK/GD32VW55X_Wifi_BLE_SDK/GD32VW55x_RELEASE_V1.0.2/MSDK/lwip/libcoap-4.3.4/src\coap_option.c ****     else
 1206              		.loc 1 364 9 is_stmt 0
 1207 0020 8507     		addi	a5,a5,1
 1208              	.LVL153:
 1209              	.L137:
 369:C:/Users/stapi/OneDrive/Desktop/GD32VW553/V1_MQTT_OK/GD32VW55X_Wifi_BLE_SDK/GD32VW55x_RELEASE_V1.0.2/MSDK/lwip/libcoap-4.3.4/src\coap_option.c **** }
 1210              		.loc 1 369 3 is_stmt 1
 370:C:/Users/stapi/OneDrive/Desktop/GD32VW553/V1_MQTT_OK/GD32VW55X_Wifi_BLE_SDK/GD32VW55x_RELEASE_V1.0.2/MSDK/lwip/libcoap-4.3.4/src\coap_option.c **** 
 1211              		.loc 1 370 1 is_stmt 0
 1212 0022 3385B700 		add	a0,a5,a1
 1213              	.LVL154:
 1214 0026 8280     		ret
 1215              	.LVL155:
 1216              	.L138:
 366:C:/Users/stapi/OneDrive/Desktop/GD32VW553/V1_MQTT_OK/GD32VW55X_Wifi_BLE_SDK/GD32VW55x_RELEASE_V1.0.2/MSDK/lwip/libcoap-4.3.4/src\coap_option.c ****   }
 1217              		.loc 1 366 7 is_stmt 1
 366:C:/Users/stapi/OneDrive/Desktop/GD32VW553/V1_MQTT_OK/GD32VW55X_Wifi_BLE_SDK/GD32VW55x_RELEASE_V1.0.2/MSDK/lwip/libcoap-4.3.4/src\coap_option.c ****   }
 1218              		.loc 1 366 9 is_stmt 0
 1219 0028 8907     		addi	a5,a5,2
 1220              	.LVL156:
 1221 002a E5BF     		j	.L137
 1222              		.cfi_endproc
 1223              	.LFE40:
 1225              		.section	.rodata.coap_opt_encode.str1.4,"aMS",@progbits,1
 1226              		.align	2
 1227              	.LC14:
 1228 0000 6C203C3D 		.string	"l <= maxlen"
 1228      206D6178 
 1228      6C656E00 
 1229              		.align	2
 1230              	.LC15:
 1231 000c 636F6170 		.string	"coap_opt_encode: cannot set option header\n"
 1231      5F6F7074 
 1231      5F656E63 
 1231      6F64653A 
 1231      2063616E 
 1232 0037 00       		.align	2
 1233              	.LC16:
 1234 0038 636F6170 		.string	"coap_opt_encode: option too large for buffer\n"
 1234      5F6F7074 
 1234      5F656E63 
 1234      6F64653A 
 1234      206F7074 
 1235              		.section	.text.coap_opt_encode,"ax",@progbits
 1236              		.align	1
 1237              		.globl	coap_opt_encode
 1239              	coap_opt_encode:
 1240              	.LFB41:
 374:C:/Users/stapi/OneDrive/Desktop/GD32VW553/V1_MQTT_OK/GD32VW55X_Wifi_BLE_SDK/GD32VW55x_RELEASE_V1.0.2/MSDK/lwip/libcoap-4.3.4/src\coap_option.c ****   size_t l = 1;
 1241              		.loc 1 374 52 is_stmt 1
 1242              		.cfi_startproc
 1243              	.LVL157:
 1244 0000 17030000 		call	t0,__riscv_save_5
 1244      E7020300 
 1245              		.cfi_offset 20, -24
 1246              		.cfi_offset 19, -20
 1247              		.cfi_offset 18, -16
 1248              		.cfi_offset 9, -12
 1249              		.cfi_offset 8, -8
 1250              		.cfi_offset 1, -4
 1251              		.cfi_def_cfa_offset 32
 375:C:/Users/stapi/OneDrive/Desktop/GD32VW553/V1_MQTT_OK/GD32VW55X_Wifi_BLE_SDK/GD32VW55x_RELEASE_V1.0.2/MSDK/lwip/libcoap-4.3.4/src\coap_option.c **** 
 1252              		.loc 1 375 3
 1253              	.LVL158:
 377:C:/Users/stapi/OneDrive/Desktop/GD32VW553/V1_MQTT_OK/GD32VW55X_Wifi_BLE_SDK/GD32VW55x_RELEASE_V1.0.2/MSDK/lwip/libcoap-4.3.4/src\coap_option.c ****   assert(l <= maxlen);
 1254              		.loc 1 377 3
 374:C:/Users/stapi/OneDrive/Desktop/GD32VW553/V1_MQTT_OK/GD32VW55X_Wifi_BLE_SDK/GD32VW55x_RELEASE_V1.0.2/MSDK/lwip/libcoap-4.3.4/src\coap_option.c ****   size_t l = 1;
 1255              		.loc 1 374 52 is_stmt 0
 1256 0008 B689     		mv	s3,a3
 377:C:/Users/stapi/OneDrive/Desktop/GD32VW553/V1_MQTT_OK/GD32VW55X_Wifi_BLE_SDK/GD32VW55x_RELEASE_V1.0.2/MSDK/lwip/libcoap-4.3.4/src\coap_option.c ****   assert(l <= maxlen);
 1257              		.loc 1 377 7
 1258 000a BA86     		mv	a3,a4
 1259              	.LVL159:
 374:C:/Users/stapi/OneDrive/Desktop/GD32VW553/V1_MQTT_OK/GD32VW55X_Wifi_BLE_SDK/GD32VW55x_RELEASE_V1.0.2/MSDK/lwip/libcoap-4.3.4/src\coap_option.c ****   size_t l = 1;
 1260              		.loc 1 374 52
 1261 000c 2E89     		mv	s2,a1
 1262 000e 2A8A     		mv	s4,a0
 1263 0010 BA84     		mv	s1,a4
 377:C:/Users/stapi/OneDrive/Desktop/GD32VW553/V1_MQTT_OK/GD32VW55X_Wifi_BLE_SDK/GD32VW55x_RELEASE_V1.0.2/MSDK/lwip/libcoap-4.3.4/src\coap_option.c ****   assert(l <= maxlen);
 1264              		.loc 1 377 7
 1265 0012 97000000 		call	coap_opt_setheader
 1265      E7800000 
 1266              	.LVL160:
 378:C:/Users/stapi/OneDrive/Desktop/GD32VW553/V1_MQTT_OK/GD32VW55X_Wifi_BLE_SDK/GD32VW55x_RELEASE_V1.0.2/MSDK/lwip/libcoap-4.3.4/src\coap_option.c **** 
 1267              		.loc 1 378 3 is_stmt 1
 1268 001a 6374A902 		bgeu	s2,a0,.L142
 378:C:/Users/stapi/OneDrive/Desktop/GD32VW553/V1_MQTT_OK/GD32VW55X_Wifi_BLE_SDK/GD32VW55x_RELEASE_V1.0.2/MSDK/lwip/libcoap-4.3.4/src\coap_option.c **** 
 1269              		.loc 1 378 3 is_stmt 0 discriminator 1
 1270 001e B7060000 		lui	a3,%hi(.LC14)
 1271 0022 37060000 		lui	a2,%hi(.LANCHOR3)
 1272 0026 37050000 		lui	a0,%hi(.LC1)
 1273              	.LVL161:
 1274 002a 93860600 		addi	a3,a3,%lo(.LC14)
 1275 002e 13060600 		addi	a2,a2,%lo(.LANCHOR3)
 1276 0032 9305A017 		li	a1,378
 1277 0036 13050500 		addi	a0,a0,%lo(.LC1)
 1278 003a 97000000 		call	__assert_func
 1278      E7800000 
 1279              	.LVL162:
 1280              	.L142:
 1281 0042 2A84     		mv	s0,a0
 380:C:/Users/stapi/OneDrive/Desktop/GD32VW553/V1_MQTT_OK/GD32VW55X_Wifi_BLE_SDK/GD32VW55x_RELEASE_V1.0.2/MSDK/lwip/libcoap-4.3.4/src\coap_option.c ****     coap_log_debug("coap_opt_encode: cannot set option header\n");
 1282              		.loc 1 380 3 is_stmt 1
 380:C:/Users/stapi/OneDrive/Desktop/GD32VW553/V1_MQTT_OK/GD32VW55X_Wifi_BLE_SDK/GD32VW55x_RELEASE_V1.0.2/MSDK/lwip/libcoap-4.3.4/src\coap_option.c ****     coap_log_debug("coap_opt_encode: cannot set option header\n");
 1283              		.loc 1 380 6 is_stmt 0
 1284 0044 05E9     		bne	a0,zero,.L143
 1285              	.LVL163:
 381:C:/Users/stapi/OneDrive/Desktop/GD32VW553/V1_MQTT_OK/GD32VW55X_Wifi_BLE_SDK/GD32VW55x_RELEASE_V1.0.2/MSDK/lwip/libcoap-4.3.4/src\coap_option.c ****     return 0;
 1286              		.loc 1 381 5 is_stmt 1
 381:C:/Users/stapi/OneDrive/Desktop/GD32VW553/V1_MQTT_OK/GD32VW55X_Wifi_BLE_SDK/GD32VW55x_RELEASE_V1.0.2/MSDK/lwip/libcoap-4.3.4/src\coap_option.c ****     return 0;
 1287              		.loc 1 381 5
 1288 0046 97000000 		call	coap_get_log_level
 1288      E7800000 
 1289              	.LVL164:
 1290 004e 9947     		li	a5,6
 1291 0050 63C4A700 		bgt	a0,a5,.L144
 1292              	.LVL165:
 1293              	.L153:
 390:C:/Users/stapi/OneDrive/Desktop/GD32VW553/V1_MQTT_OK/GD32VW55X_Wifi_BLE_SDK/GD32VW55x_RELEASE_V1.0.2/MSDK/lwip/libcoap-4.3.4/src\coap_option.c ****   }
 1294              		.loc 1 390 12 is_stmt 0 discriminator 1
 1295 0054 0144     		li	s0,0
 1296              	.LVL166:
 1297 0056 11A8     		j	.L141
 1298              	.LVL167:
 1299              	.L144:
 381:C:/Users/stapi/OneDrive/Desktop/GD32VW553/V1_MQTT_OK/GD32VW55X_Wifi_BLE_SDK/GD32VW55x_RELEASE_V1.0.2/MSDK/lwip/libcoap-4.3.4/src\coap_option.c ****     return 0;
 1300              		.loc 1 381 5 is_stmt 1 discriminator 1
 1301 0058 B7050000 		lui	a1,%hi(.LC15)
 1302 005c 93850500 		addi	a1,a1,%lo(.LC15)
 1303 0060 1D45     		li	a0,7
 1304 0062 97000000 		call	coap_log_impl
 1304      E7800000 
 1305              	.LVL168:
 1306              	.L141:
 397:C:/Users/stapi/OneDrive/Desktop/GD32VW553/V1_MQTT_OK/GD32VW55X_Wifi_BLE_SDK/GD32VW55x_RELEASE_V1.0.2/MSDK/lwip/libcoap-4.3.4/src\coap_option.c **** 
 1307              		.loc 1 397 1 is_stmt 0
 1308 006a 2285     		mv	a0,s0
 1309 006c 17030000 		tail	__riscv_restore_5
 1309      67000300 
 1310              		.cfi_remember_state
 1311              		.cfi_restore 20
 1312              		.cfi_restore 19
 1313              		.cfi_restore 18
 1314              		.cfi_restore 9
 1315              		.cfi_restore 8
 1316              		.cfi_restore 1
 1317              		.cfi_def_cfa_offset 0
 1318              	.LVL169:
 1319              	.L143:
 1320              		.cfi_restore_state
 385:C:/Users/stapi/OneDrive/Desktop/GD32VW553/V1_MQTT_OK/GD32VW55X_Wifi_BLE_SDK/GD32VW55x_RELEASE_V1.0.2/MSDK/lwip/libcoap-4.3.4/src\coap_option.c ****   opt += l;
 1321              		.loc 1 385 3 is_stmt 1
 386:C:/Users/stapi/OneDrive/Desktop/GD32VW553/V1_MQTT_OK/GD32VW55X_Wifi_BLE_SDK/GD32VW55x_RELEASE_V1.0.2/MSDK/lwip/libcoap-4.3.4/src\coap_option.c **** 
 1322              		.loc 1 386 3
 388:C:/Users/stapi/OneDrive/Desktop/GD32VW553/V1_MQTT_OK/GD32VW55X_Wifi_BLE_SDK/GD32VW55x_RELEASE_V1.0.2/MSDK/lwip/libcoap-4.3.4/src\coap_option.c ****     coap_log_debug("coap_opt_encode: option too large for buffer\n");
 1323              		.loc 1 388 3
 385:C:/Users/stapi/OneDrive/Desktop/GD32VW553/V1_MQTT_OK/GD32VW55X_Wifi_BLE_SDK/GD32VW55x_RELEASE_V1.0.2/MSDK/lwip/libcoap-4.3.4/src\coap_option.c ****   opt += l;
 1324              		.loc 1 385 10 is_stmt 0
 1325 0074 3309A940 		sub	s2,s2,a0
 1326              	.LVL170:
 388:C:/Users/stapi/OneDrive/Desktop/GD32VW553/V1_MQTT_OK/GD32VW55X_Wifi_BLE_SDK/GD32VW55x_RELEASE_V1.0.2/MSDK/lwip/libcoap-4.3.4/src\coap_option.c ****     coap_log_debug("coap_opt_encode: option too large for buffer\n");
 1327              		.loc 1 388 6
 1328 0078 63739902 		bleu	s1,s2,.L146
 389:C:/Users/stapi/OneDrive/Desktop/GD32VW553/V1_MQTT_OK/GD32VW55X_Wifi_BLE_SDK/GD32VW55x_RELEASE_V1.0.2/MSDK/lwip/libcoap-4.3.4/src\coap_option.c ****     return 0;
 1329              		.loc 1 389 5 is_stmt 1
 389:C:/Users/stapi/OneDrive/Desktop/GD32VW553/V1_MQTT_OK/GD32VW55X_Wifi_BLE_SDK/GD32VW55x_RELEASE_V1.0.2/MSDK/lwip/libcoap-4.3.4/src\coap_option.c ****     return 0;
 1330              		.loc 1 389 5
 1331 007c 97000000 		call	coap_get_log_level
 1331      E7800000 
 1332              	.LVL171:
 1333 0084 9947     		li	a5,6
 1334 0086 E3D7A7FC 		ble	a0,a5,.L153
 389:C:/Users/stapi/OneDrive/Desktop/GD32VW553/V1_MQTT_OK/GD32VW55X_Wifi_BLE_SDK/GD32VW55x_RELEASE_V1.0.2/MSDK/lwip/libcoap-4.3.4/src\coap_option.c ****     return 0;
 1335              		.loc 1 389 5 discriminator 1
 1336 008a B7050000 		lui	a1,%hi(.LC16)
 1337 008e 93850500 		addi	a1,a1,%lo(.LC16)
 1338 0092 1D45     		li	a0,7
 1339 0094 97000000 		call	coap_log_impl
 1339      E7800000 
 1340              	.LVL172:
 1341 009c 65BF     		j	.L153
 1342              	.L146:
 393:C:/Users/stapi/OneDrive/Desktop/GD32VW553/V1_MQTT_OK/GD32VW55X_Wifi_BLE_SDK/GD32VW55x_RELEASE_V1.0.2/MSDK/lwip/libcoap-4.3.4/src\coap_option.c ****     memcpy(opt, val, length);
 1343              		.loc 1 393 3
 393:C:/Users/stapi/OneDrive/Desktop/GD32VW553/V1_MQTT_OK/GD32VW55X_Wifi_BLE_SDK/GD32VW55x_RELEASE_V1.0.2/MSDK/lwip/libcoap-4.3.4/src\coap_option.c ****     memcpy(opt, val, length);
 1344              		.loc 1 393 6 is_stmt 0
 1345 009e 63890900 		beq	s3,zero,.L148
 394:C:/Users/stapi/OneDrive/Desktop/GD32VW553/V1_MQTT_OK/GD32VW55X_Wifi_BLE_SDK/GD32VW55x_RELEASE_V1.0.2/MSDK/lwip/libcoap-4.3.4/src\coap_option.c **** 
 1346              		.loc 1 394 5 is_stmt 1
 1347 00a2 2686     		mv	a2,s1
 1348 00a4 CE85     		mv	a1,s3
 1349 00a6 5295     		add	a0,s4,a0
 1350 00a8 97000000 		call	memcpy
 1350      E7800000 
 1351              	.LVL173:
 1352              	.L148:
 396:C:/Users/stapi/OneDrive/Desktop/GD32VW553/V1_MQTT_OK/GD32VW55X_Wifi_BLE_SDK/GD32VW55x_RELEASE_V1.0.2/MSDK/lwip/libcoap-4.3.4/src\coap_option.c **** }
 1353              		.loc 1 396 3
 396:C:/Users/stapi/OneDrive/Desktop/GD32VW553/V1_MQTT_OK/GD32VW55X_Wifi_BLE_SDK/GD32VW55x_RELEASE_V1.0.2/MSDK/lwip/libcoap-4.3.4/src\coap_option.c **** }
 1354              		.loc 1 396 12 is_stmt 0
 1355 00b0 2694     		add	s0,s0,s1
 1356              	.LVL174:
 1357 00b2 65BF     		j	.L141
 1358              		.cfi_endproc
 1359              	.LFE41:
 1361              		.section	.text.coap_option_filter_clear,"ax",@progbits
 1362              		.align	1
 1363              		.globl	coap_option_filter_clear
 1365              	coap_option_filter_clear:
 1366              	.LFB44:
 490:C:/Users/stapi/OneDrive/Desktop/GD32VW553/V1_MQTT_OK/GD32VW55X_Wifi_BLE_SDK/GD32VW55x_RELEASE_V1.0.2/MSDK/lwip/libcoap-4.3.4/src\coap_option.c **** 
 491:C:/Users/stapi/OneDrive/Desktop/GD32VW553/V1_MQTT_OK/GD32VW55X_Wifi_BLE_SDK/GD32VW55x_RELEASE_V1.0.2/MSDK/lwip/libcoap-4.3.4/src\coap_option.c **** void
 492:C:/Users/stapi/OneDrive/Desktop/GD32VW553/V1_MQTT_OK/GD32VW55X_Wifi_BLE_SDK/GD32VW55x_RELEASE_V1.0.2/MSDK/lwip/libcoap-4.3.4/src\coap_option.c **** coap_option_filter_clear(coap_opt_filter_t *filter) {
 1367              		.loc 1 492 53 is_stmt 1
 1368              		.cfi_startproc
 1369              	.LVL175:
 493:C:/Users/stapi/OneDrive/Desktop/GD32VW553/V1_MQTT_OK/GD32VW55X_Wifi_BLE_SDK/GD32VW55x_RELEASE_V1.0.2/MSDK/lwip/libcoap-4.3.4/src\coap_option.c ****   memset(filter, 0, sizeof(coap_opt_filter_t));
 1370              		.loc 1 493 3
 1371 0000 3146     		li	a2,12
 1372 0002 8145     		li	a1,0
 1373 0004 17030000 		tail	memset
 1373      67000300 
 1374              	.LVL176:
 1375              		.cfi_endproc
 1376              	.LFE44:
 1378              		.section	.text.coap_option_filter_set,"ax",@progbits
 1379              		.align	1
 1380              		.globl	coap_option_filter_set
 1382              	coap_option_filter_set:
 1383              	.LFB45:
 494:C:/Users/stapi/OneDrive/Desktop/GD32VW553/V1_MQTT_OK/GD32VW55X_Wifi_BLE_SDK/GD32VW55x_RELEASE_V1.0.2/MSDK/lwip/libcoap-4.3.4/src\coap_option.c **** }
 495:C:/Users/stapi/OneDrive/Desktop/GD32VW553/V1_MQTT_OK/GD32VW55X_Wifi_BLE_SDK/GD32VW55x_RELEASE_V1.0.2/MSDK/lwip/libcoap-4.3.4/src\coap_option.c **** 
 496:C:/Users/stapi/OneDrive/Desktop/GD32VW553/V1_MQTT_OK/GD32VW55X_Wifi_BLE_SDK/GD32VW55x_RELEASE_V1.0.2/MSDK/lwip/libcoap-4.3.4/src\coap_option.c **** int
 497:C:/Users/stapi/OneDrive/Desktop/GD32VW553/V1_MQTT_OK/GD32VW55X_Wifi_BLE_SDK/GD32VW55x_RELEASE_V1.0.2/MSDK/lwip/libcoap-4.3.4/src\coap_option.c **** coap_option_filter_set(coap_opt_filter_t *filter, coap_option_num_t option) {
 1384              		.loc 1 497 77
 1385              		.cfi_startproc
 1386              	.LVL177:
 498:C:/Users/stapi/OneDrive/Desktop/GD32VW553/V1_MQTT_OK/GD32VW55X_Wifi_BLE_SDK/GD32VW55x_RELEASE_V1.0.2/MSDK/lwip/libcoap-4.3.4/src\coap_option.c ****   return coap_option_filter_op(filter, option, FILTER_SET);
 1387              		.loc 1 498 3
 1388              		.loc 1 498 10 is_stmt 0
 1389 0000 0146     		li	a2,0
 1390 0002 17030000 		tail	coap_option_filter_op
 1390      67000300 
 1391              	.LVL178:
 1392              		.cfi_endproc
 1393              	.LFE45:
 1395              		.section	.text.coap_option_filter_unset,"ax",@progbits
 1396              		.align	1
 1397              		.globl	coap_option_filter_unset
 1399              	coap_option_filter_unset:
 1400              	.LFB46:
 499:C:/Users/stapi/OneDrive/Desktop/GD32VW553/V1_MQTT_OK/GD32VW55X_Wifi_BLE_SDK/GD32VW55x_RELEASE_V1.0.2/MSDK/lwip/libcoap-4.3.4/src\coap_option.c **** }
 500:C:/Users/stapi/OneDrive/Desktop/GD32VW553/V1_MQTT_OK/GD32VW55X_Wifi_BLE_SDK/GD32VW55x_RELEASE_V1.0.2/MSDK/lwip/libcoap-4.3.4/src\coap_option.c **** 
 501:C:/Users/stapi/OneDrive/Desktop/GD32VW553/V1_MQTT_OK/GD32VW55X_Wifi_BLE_SDK/GD32VW55x_RELEASE_V1.0.2/MSDK/lwip/libcoap-4.3.4/src\coap_option.c **** int
 502:C:/Users/stapi/OneDrive/Desktop/GD32VW553/V1_MQTT_OK/GD32VW55X_Wifi_BLE_SDK/GD32VW55x_RELEASE_V1.0.2/MSDK/lwip/libcoap-4.3.4/src\coap_option.c **** coap_option_filter_unset(coap_opt_filter_t *filter, coap_option_num_t option) {
 1401              		.loc 1 502 79 is_stmt 1
 1402              		.cfi_startproc
 1403              	.LVL179:
 503:C:/Users/stapi/OneDrive/Desktop/GD32VW553/V1_MQTT_OK/GD32VW55X_Wifi_BLE_SDK/GD32VW55x_RELEASE_V1.0.2/MSDK/lwip/libcoap-4.3.4/src\coap_option.c ****   return coap_option_filter_op(filter, option, FILTER_CLEAR);
 1404              		.loc 1 503 3
 1405              		.loc 1 503 10 is_stmt 0
 1406 0000 0546     		li	a2,1
 1407 0002 17030000 		tail	coap_option_filter_op
 1407      67000300 
 1408              	.LVL180:
 1409              		.cfi_endproc
 1410              	.LFE46:
 1412              		.section	.text.coap_option_filter_get,"ax",@progbits
 1413              		.align	1
 1414              		.globl	coap_option_filter_get
 1416              	coap_option_filter_get:
 1417              	.LFB47:
 504:C:/Users/stapi/OneDrive/Desktop/GD32VW553/V1_MQTT_OK/GD32VW55X_Wifi_BLE_SDK/GD32VW55x_RELEASE_V1.0.2/MSDK/lwip/libcoap-4.3.4/src\coap_option.c **** }
 505:C:/Users/stapi/OneDrive/Desktop/GD32VW553/V1_MQTT_OK/GD32VW55X_Wifi_BLE_SDK/GD32VW55x_RELEASE_V1.0.2/MSDK/lwip/libcoap-4.3.4/src\coap_option.c **** 
 506:C:/Users/stapi/OneDrive/Desktop/GD32VW553/V1_MQTT_OK/GD32VW55X_Wifi_BLE_SDK/GD32VW55x_RELEASE_V1.0.2/MSDK/lwip/libcoap-4.3.4/src\coap_option.c **** int
 507:C:/Users/stapi/OneDrive/Desktop/GD32VW553/V1_MQTT_OK/GD32VW55X_Wifi_BLE_SDK/GD32VW55x_RELEASE_V1.0.2/MSDK/lwip/libcoap-4.3.4/src\coap_option.c **** coap_option_filter_get(coap_opt_filter_t *filter, coap_option_num_t option) {
 1418              		.loc 1 507 77 is_stmt 1
 1419              		.cfi_startproc
 1420              	.LVL181:
 508:C:/Users/stapi/OneDrive/Desktop/GD32VW553/V1_MQTT_OK/GD32VW55X_Wifi_BLE_SDK/GD32VW55x_RELEASE_V1.0.2/MSDK/lwip/libcoap-4.3.4/src\coap_option.c ****   return coap_option_filter_op(filter, option, FILTER_GET);
 1421              		.loc 1 508 3
 1422              		.loc 1 508 10 is_stmt 0
 1423 0000 0946     		li	a2,2
 1424 0002 17030000 		tail	coap_option_filter_op
 1424      67000300 
 1425              	.LVL182:
 1426              		.cfi_endproc
 1427              	.LFE47:
 1429              		.section	.rodata.coap_option_next.str1.4,"aMS",@progbits,1
 1430              		.align	2
 1431              	.LC17:
 1432 0000 6F707473 		.string	"optsize <= oi->length"
 1432      697A6520 
 1432      3C3D206F 
 1432      692D3E6C 
 1432      656E6774 
 1433              		.section	.text.coap_option_next,"ax",@progbits
 1434              		.align	1
 1435              		.globl	coap_option_next
 1437              	coap_option_next:
 1438              	.LFB34:
 154:C:/Users/stapi/OneDrive/Desktop/GD32VW553/V1_MQTT_OK/GD32VW55X_Wifi_BLE_SDK/GD32VW55x_RELEASE_V1.0.2/MSDK/lwip/libcoap-4.3.4/src\coap_option.c ****   coap_option_t option;
 1439              		.loc 1 154 43 is_stmt 1
 1440              		.cfi_startproc
 1441              	.LVL183:
 1442 0000 17030000 		call	t0,__riscv_save_3
 1442      E7020300 
 1443              		.cfi_offset 18, -16
 1444              		.cfi_offset 9, -12
 1445              		.cfi_offset 8, -8
 1446              		.cfi_offset 1, -4
 1447              		.cfi_def_cfa_offset 16
 155:C:/Users/stapi/OneDrive/Desktop/GD32VW553/V1_MQTT_OK/GD32VW55X_Wifi_BLE_SDK/GD32VW55x_RELEASE_V1.0.2/MSDK/lwip/libcoap-4.3.4/src\coap_option.c ****   coap_opt_t *current_opt = NULL;
 1448              		.loc 1 155 3
 156:C:/Users/stapi/OneDrive/Desktop/GD32VW553/V1_MQTT_OK/GD32VW55X_Wifi_BLE_SDK/GD32VW55x_RELEASE_V1.0.2/MSDK/lwip/libcoap-4.3.4/src\coap_option.c ****   size_t optsize;
 1449              		.loc 1 156 3
 1450              	.LVL184:
 157:C:/Users/stapi/OneDrive/Desktop/GD32VW553/V1_MQTT_OK/GD32VW55X_Wifi_BLE_SDK/GD32VW55x_RELEASE_V1.0.2/MSDK/lwip/libcoap-4.3.4/src\coap_option.c **** 
 1451              		.loc 1 157 3
 159:C:/Users/stapi/OneDrive/Desktop/GD32VW553/V1_MQTT_OK/GD32VW55X_Wifi_BLE_SDK/GD32VW55x_RELEASE_V1.0.2/MSDK/lwip/libcoap-4.3.4/src\coap_option.c **** 
 1452              		.loc 1 159 3
 154:C:/Users/stapi/OneDrive/Desktop/GD32VW553/V1_MQTT_OK/GD32VW55X_Wifi_BLE_SDK/GD32VW55x_RELEASE_V1.0.2/MSDK/lwip/libcoap-4.3.4/src\coap_option.c ****   coap_option_t option;
 1453              		.loc 1 154 43 is_stmt 0
 1454 0008 4111     		addi	sp,sp,-16
 1455              		.cfi_def_cfa_offset 32
 159:C:/Users/stapi/OneDrive/Desktop/GD32VW553/V1_MQTT_OK/GD32VW55X_Wifi_BLE_SDK/GD32VW55x_RELEASE_V1.0.2/MSDK/lwip/libcoap-4.3.4/src\coap_option.c **** 
 1456              		.loc 1 159 3
 1457 000a 1DE1     		bne	a0,zero,.L163
 159:C:/Users/stapi/OneDrive/Desktop/GD32VW553/V1_MQTT_OK/GD32VW55X_Wifi_BLE_SDK/GD32VW55x_RELEASE_V1.0.2/MSDK/lwip/libcoap-4.3.4/src\coap_option.c **** 
 1458              		.loc 1 159 3 discriminator 1
 1459 000c B7060000 		lui	a3,%hi(.LC9)
 1460 0010 37060000 		lui	a2,%hi(.LANCHOR4)
 1461 0014 93860600 		addi	a3,a3,%lo(.LC9)
 1462 0018 13060600 		addi	a2,a2,%lo(.LANCHOR4)
 1463 001c 9305F009 		li	a1,159
 1464              	.LVL185:
 1465              	.L185:
 1466              	.LBB22:
 1467              	.LBB23:
 176:C:/Users/stapi/OneDrive/Desktop/GD32VW553/V1_MQTT_OK/GD32VW55X_Wifi_BLE_SDK/GD32VW55x_RELEASE_V1.0.2/MSDK/lwip/libcoap-4.3.4/src\coap_option.c **** 
 1468              		.loc 1 176 7
 1469 0020 37050000 		lui	a0,%hi(.LC1)
 1470 0024 13050500 		addi	a0,a0,%lo(.LC1)
 1471 0028 97000000 		call	__assert_func
 1471      E7800000 
 1472              	.LVL186:
 1473              	.L163:
 1474              	.LBE23:
 1475              	.LBE22:
 1476              	.LBB27:
 1477              	.LBB28:
 145:C:/Users/stapi/OneDrive/Desktop/GD32VW553/V1_MQTT_OK/GD32VW55X_Wifi_BLE_SDK/GD32VW55x_RELEASE_V1.0.2/MSDK/lwip/libcoap-4.3.4/src\coap_option.c ****       !oi->next_option || *oi->next_option == COAP_PAYLOAD_START) {
 1478              		.loc 1 145 7
 1479 0030 83476500 		lbu	a5,6(a0)
 1480 0034 2A84     		mv	s0,a0
 1481              	.LBE28:
 1482              	.LBE27:
 161:C:/Users/stapi/OneDrive/Desktop/GD32VW553/V1_MQTT_OK/GD32VW55X_Wifi_BLE_SDK/GD32VW55x_RELEASE_V1.0.2/MSDK/lwip/libcoap-4.3.4/src\coap_option.c ****     return NULL;
 1483              		.loc 1 161 3 is_stmt 1
 1484              	.LVL187:
 1485              	.LBB31:
 1486              	.LBB29:
 143:C:/Users/stapi/OneDrive/Desktop/GD32VW553/V1_MQTT_OK/GD32VW55X_Wifi_BLE_SDK/GD32VW55x_RELEASE_V1.0.2/MSDK/lwip/libcoap-4.3.4/src\coap_option.c **** 
 1487              		.loc 1 143 3
 145:C:/Users/stapi/OneDrive/Desktop/GD32VW553/V1_MQTT_OK/GD32VW55X_Wifi_BLE_SDK/GD32VW55x_RELEASE_V1.0.2/MSDK/lwip/libcoap-4.3.4/src\coap_option.c ****       !oi->next_option || *oi->next_option == COAP_PAYLOAD_START) {
 1488              		.loc 1 145 3
 145:C:/Users/stapi/OneDrive/Desktop/GD32VW553/V1_MQTT_OK/GD32VW55X_Wifi_BLE_SDK/GD32VW55x_RELEASE_V1.0.2/MSDK/lwip/libcoap-4.3.4/src\coap_option.c ****       !oi->next_option || *oi->next_option == COAP_PAYLOAD_START) {
 1489              		.loc 1 145 6 is_stmt 0
 1490 0036 858B     		andi	a5,a5,1
 1491 0038 99EB     		bne	a5,zero,.L167
 1492              	.LVL188:
 145:C:/Users/stapi/OneDrive/Desktop/GD32VW553/V1_MQTT_OK/GD32VW55X_Wifi_BLE_SDK/GD32VW55x_RELEASE_V1.0.2/MSDK/lwip/libcoap-4.3.4/src\coap_option.c ****       !oi->next_option || *oi->next_option == COAP_PAYLOAD_START) {
 1493              		.loc 1 145 15
 1494 003a 1C41     		lw	a5,0(a0)
 1495 003c 89CB     		beq	a5,zero,.L167
 146:C:/Users/stapi/OneDrive/Desktop/GD32VW553/V1_MQTT_OK/GD32VW55X_Wifi_BLE_SDK/GD32VW55x_RELEASE_V1.0.2/MSDK/lwip/libcoap-4.3.4/src\coap_option.c ****     oi->bad = 1;
 1496              		.loc 1 146 10
 1497 003e 1C45     		lw	a5,8(a0)
 145:C:/Users/stapi/OneDrive/Desktop/GD32VW553/V1_MQTT_OK/GD32VW55X_Wifi_BLE_SDK/GD32VW55x_RELEASE_V1.0.2/MSDK/lwip/libcoap-4.3.4/src\coap_option.c ****       !oi->next_option || *oi->next_option == COAP_PAYLOAD_START) {
 1498              		.loc 1 145 34
 1499 0040 99C7     		beq	a5,zero,.L167
 146:C:/Users/stapi/OneDrive/Desktop/GD32VW553/V1_MQTT_OK/GD32VW55X_Wifi_BLE_SDK/GD32VW55x_RELEASE_V1.0.2/MSDK/lwip/libcoap-4.3.4/src\coap_option.c ****     oi->bad = 1;
 1500              		.loc 1 146 24
 1501 0042 03C70700 		lbu	a4,0(a5)
 1502 0046 9307F00F 		li	a5,255
 1503 004a 631AF700 		bne	a4,a5,.L165
 1504              	.LVL189:
 1505              	.L167:
 1506              	.LBE29:
 1507              	.LBE31:
 1508              	.LBB32:
 1509              	.LBB24:
 183:C:/Users/stapi/OneDrive/Desktop/GD32VW553/V1_MQTT_OK/GD32VW55X_Wifi_BLE_SDK/GD32VW55x_RELEASE_V1.0.2/MSDK/lwip/libcoap-4.3.4/src\coap_option.c ****       return NULL;
 1510              		.loc 1 183 7 is_stmt 1
 183:C:/Users/stapi/OneDrive/Desktop/GD32VW553/V1_MQTT_OK/GD32VW55X_Wifi_BLE_SDK/GD32VW55x_RELEASE_V1.0.2/MSDK/lwip/libcoap-4.3.4/src\coap_option.c ****       return NULL;
 1511              		.loc 1 183 15 is_stmt 0
 1512 004e 83476400 		lbu	a5,6(s0)
 1513 0052 93E71700 		ori	a5,a5,1
 1514 0056 2303F400 		sb	a5,6(s0)
 184:C:/Users/stapi/OneDrive/Desktop/GD32VW553/V1_MQTT_OK/GD32VW55X_Wifi_BLE_SDK/GD32VW55x_RELEASE_V1.0.2/MSDK/lwip/libcoap-4.3.4/src\coap_option.c ****     }
 1515              		.loc 1 184 7 is_stmt 1
 1516              	.L172:
 1517              	.LBE24:
 1518              	.LBE32:
 162:C:/Users/stapi/OneDrive/Desktop/GD32VW553/V1_MQTT_OK/GD32VW55X_Wifi_BLE_SDK/GD32VW55x_RELEASE_V1.0.2/MSDK/lwip/libcoap-4.3.4/src\coap_option.c **** 
 1519              		.loc 1 162 12 is_stmt 0
 1520 005a 8144     		li	s1,0
 1521 005c 8DA0     		j	.L162
 1522              	.LVL190:
 1523              	.L165:
 1524              	.LBB33:
 1525              	.LBB30:
 150:C:/Users/stapi/OneDrive/Desktop/GD32VW553/V1_MQTT_OK/GD32VW55X_Wifi_BLE_SDK/GD32VW55x_RELEASE_V1.0.2/MSDK/lwip/libcoap-4.3.4/src\coap_option.c **** }
 1526              		.loc 1 150 3 is_stmt 1
 150:C:/Users/stapi/OneDrive/Desktop/GD32VW553/V1_MQTT_OK/GD32VW55X_Wifi_BLE_SDK/GD32VW55x_RELEASE_V1.0.2/MSDK/lwip/libcoap-4.3.4/src\coap_option.c **** }
 1527              		.loc 1 150 12 is_stmt 0
 1528 005e 83576500 		lhu	a5,6(a0)
 1529              	.LBE30:
 1530              	.LBE33:
 161:C:/Users/stapi/OneDrive/Desktop/GD32VW553/V1_MQTT_OK/GD32VW55X_Wifi_BLE_SDK/GD32VW55x_RELEASE_V1.0.2/MSDK/lwip/libcoap-4.3.4/src\coap_option.c ****     return NULL;
 1531              		.loc 1 161 6
 1532 0062 858B     		andi	a5,a5,1
 1533 0064 FDFB     		bne	a5,zero,.L172
 1534              	.LBB34:
 1535              	.LBB25:
 192:C:/Users/stapi/OneDrive/Desktop/GD32VW553/V1_MQTT_OK/GD32VW55X_Wifi_BLE_SDK/GD32VW55x_RELEASE_V1.0.2/MSDK/lwip/libcoap-4.3.4/src\coap_option.c ****       break;
 1536              		.loc 1 192 9
 1537 0066 1309C500 		addi	s2,a0,12
 1538              	.L171:
 164:C:/Users/stapi/OneDrive/Desktop/GD32VW553/V1_MQTT_OK/GD32VW55X_Wifi_BLE_SDK/GD32VW55x_RELEASE_V1.0.2/MSDK/lwip/libcoap-4.3.4/src\coap_option.c ****     /* oi->next_option always points to the next option to deliver; as
 1539              		.loc 1 164 3 is_stmt 1
 168:C:/Users/stapi/OneDrive/Desktop/GD32VW553/V1_MQTT_OK/GD32VW55X_Wifi_BLE_SDK/GD32VW55x_RELEASE_V1.0.2/MSDK/lwip/libcoap-4.3.4/src\coap_option.c **** 
 1540              		.loc 1 168 5
 168:C:/Users/stapi/OneDrive/Desktop/GD32VW553/V1_MQTT_OK/GD32VW55X_Wifi_BLE_SDK/GD32VW55x_RELEASE_V1.0.2/MSDK/lwip/libcoap-4.3.4/src\coap_option.c **** 
 1541              		.loc 1 168 17 is_stmt 0
 1542 006a 0444     		lw	s1,8(s0)
 1543              	.LVL191:
 174:C:/Users/stapi/OneDrive/Desktop/GD32VW553/V1_MQTT_OK/GD32VW55X_Wifi_BLE_SDK/GD32VW55x_RELEASE_V1.0.2/MSDK/lwip/libcoap-4.3.4/src\coap_option.c ****     if (optsize) {
 1544              		.loc 1 174 5 is_stmt 1
 174:C:/Users/stapi/OneDrive/Desktop/GD32VW553/V1_MQTT_OK/GD32VW55X_Wifi_BLE_SDK/GD32VW55x_RELEASE_V1.0.2/MSDK/lwip/libcoap-4.3.4/src\coap_option.c ****     if (optsize) {
 1545              		.loc 1 174 15 is_stmt 0
 1546 006c 0C40     		lw	a1,0(s0)
 1547 006e 5000     		addi	a2,sp,4
 1548 0070 2685     		mv	a0,s1
 1549 0072 97000000 		call	coap_opt_parse
 1549      E7800000 
 1550              	.LVL192:
 175:C:/Users/stapi/OneDrive/Desktop/GD32VW553/V1_MQTT_OK/GD32VW55X_Wifi_BLE_SDK/GD32VW55x_RELEASE_V1.0.2/MSDK/lwip/libcoap-4.3.4/src\coap_option.c ****       assert(optsize <= oi->length);
 1551              		.loc 1 175 5 is_stmt 1
 175:C:/Users/stapi/OneDrive/Desktop/GD32VW553/V1_MQTT_OK/GD32VW55X_Wifi_BLE_SDK/GD32VW55x_RELEASE_V1.0.2/MSDK/lwip/libcoap-4.3.4/src\coap_option.c ****       assert(optsize <= oi->length);
 1552              		.loc 1 175 8 is_stmt 0
 1553 007a 71D9     		beq	a0,zero,.L167
 176:C:/Users/stapi/OneDrive/Desktop/GD32VW553/V1_MQTT_OK/GD32VW55X_Wifi_BLE_SDK/GD32VW55x_RELEASE_V1.0.2/MSDK/lwip/libcoap-4.3.4/src\coap_option.c **** 
 1554              		.loc 1 176 7 is_stmt 1
 1555 007c 1C40     		lw	a5,0(s0)
 1556 007e 63FDA700 		bleu	a0,a5,.L168
 1557 0082 B7060000 		lui	a3,%hi(.LC17)
 1558 0086 37060000 		lui	a2,%hi(.LANCHOR4)
 1559 008a 93860600 		addi	a3,a3,%lo(.LC17)
 1560 008e 13060600 		addi	a2,a2,%lo(.LANCHOR4)
 1561 0092 9305000B 		li	a1,176
 1562 0096 69B7     		j	.L185
 1563              	.L168:
 178:C:/Users/stapi/OneDrive/Desktop/GD32VW553/V1_MQTT_OK/GD32VW55X_Wifi_BLE_SDK/GD32VW55x_RELEASE_V1.0.2/MSDK/lwip/libcoap-4.3.4/src\coap_option.c ****       oi->length -= optsize;
 1564              		.loc 1 178 7
 178:C:/Users/stapi/OneDrive/Desktop/GD32VW553/V1_MQTT_OK/GD32VW55X_Wifi_BLE_SDK/GD32VW55x_RELEASE_V1.0.2/MSDK/lwip/libcoap-4.3.4/src\coap_option.c ****       oi->length -= optsize;
 1565              		.loc 1 178 23 is_stmt 0
 1566 0098 1844     		lw	a4,8(s0)
 181:C:/Users/stapi/OneDrive/Desktop/GD32VW553/V1_MQTT_OK/GD32VW55X_Wifi_BLE_SDK/GD32VW55x_RELEASE_V1.0.2/MSDK/lwip/libcoap-4.3.4/src\coap_option.c ****     } else {                        /* current option is malformed */
 1567              		.loc 1 181 18
 1568 009a 83554400 		lhu	a1,4(s0)
 178:C:/Users/stapi/OneDrive/Desktop/GD32VW553/V1_MQTT_OK/GD32VW55X_Wifi_BLE_SDK/GD32VW55x_RELEASE_V1.0.2/MSDK/lwip/libcoap-4.3.4/src\coap_option.c ****       oi->length -= optsize;
 1569              		.loc 1 178 23
 1570 009e 2A97     		add	a4,a4,a0
 179:C:/Users/stapi/OneDrive/Desktop/GD32VW553/V1_MQTT_OK/GD32VW55X_Wifi_BLE_SDK/GD32VW55x_RELEASE_V1.0.2/MSDK/lwip/libcoap-4.3.4/src\coap_option.c **** 
 1571              		.loc 1 179 18
 1572 00a0 3385A740 		sub	a0,a5,a0
 1573              	.LVL193:
 181:C:/Users/stapi/OneDrive/Desktop/GD32VW553/V1_MQTT_OK/GD32VW55X_Wifi_BLE_SDK/GD32VW55x_RELEASE_V1.0.2/MSDK/lwip/libcoap-4.3.4/src\coap_option.c ****     } else {                        /* current option is malformed */
 1574              		.loc 1 181 18
 1575 00a4 83574100 		lhu	a5,4(sp)
 178:C:/Users/stapi/OneDrive/Desktop/GD32VW553/V1_MQTT_OK/GD32VW55X_Wifi_BLE_SDK/GD32VW55x_RELEASE_V1.0.2/MSDK/lwip/libcoap-4.3.4/src\coap_option.c ****       oi->length -= optsize;
 1576              		.loc 1 178 23
 1577 00a8 18C4     		sw	a4,8(s0)
 179:C:/Users/stapi/OneDrive/Desktop/GD32VW553/V1_MQTT_OK/GD32VW55X_Wifi_BLE_SDK/GD32VW55x_RELEASE_V1.0.2/MSDK/lwip/libcoap-4.3.4/src\coap_option.c **** 
 1578              		.loc 1 179 7 is_stmt 1
 179:C:/Users/stapi/OneDrive/Desktop/GD32VW553/V1_MQTT_OK/GD32VW55X_Wifi_BLE_SDK/GD32VW55x_RELEASE_V1.0.2/MSDK/lwip/libcoap-4.3.4/src\coap_option.c **** 
 1579              		.loc 1 179 18 is_stmt 0
 1580 00aa 08C0     		sw	a0,0(s0)
 181:C:/Users/stapi/OneDrive/Desktop/GD32VW553/V1_MQTT_OK/GD32VW55X_Wifi_BLE_SDK/GD32VW55x_RELEASE_V1.0.2/MSDK/lwip/libcoap-4.3.4/src\coap_option.c ****     } else {                        /* current option is malformed */
 1581              		.loc 1 181 7 is_stmt 1
 181:C:/Users/stapi/OneDrive/Desktop/GD32VW553/V1_MQTT_OK/GD32VW55X_Wifi_BLE_SDK/GD32VW55x_RELEASE_V1.0.2/MSDK/lwip/libcoap-4.3.4/src\coap_option.c ****     } else {                        /* current option is malformed */
 1582              		.loc 1 181 18 is_stmt 0
 1583 00ac BE95     		add	a1,a1,a5
 191:C:/Users/stapi/OneDrive/Desktop/GD32VW553/V1_MQTT_OK/GD32VW55X_Wifi_BLE_SDK/GD32VW55x_RELEASE_V1.0.2/MSDK/lwip/libcoap-4.3.4/src\coap_option.c ****         coap_option_filter_get(&oi->filter, oi->number) > 0)
 1584              		.loc 1 191 9
 1585 00ae 83476400 		lbu	a5,6(s0)
 181:C:/Users/stapi/OneDrive/Desktop/GD32VW553/V1_MQTT_OK/GD32VW55X_Wifi_BLE_SDK/GD32VW55x_RELEASE_V1.0.2/MSDK/lwip/libcoap-4.3.4/src\coap_option.c ****     } else {                        /* current option is malformed */
 1586              		.loc 1 181 18
 1587 00b2 B3C50508 		zext.h	a1,a1
 1588 00b6 2312B400 		sh	a1,4(s0)
 191:C:/Users/stapi/OneDrive/Desktop/GD32VW553/V1_MQTT_OK/GD32VW55X_Wifi_BLE_SDK/GD32VW55x_RELEASE_V1.0.2/MSDK/lwip/libcoap-4.3.4/src\coap_option.c ****         coap_option_filter_get(&oi->filter, oi->number) > 0)
 1589              		.loc 1 191 5 is_stmt 1
 191:C:/Users/stapi/OneDrive/Desktop/GD32VW553/V1_MQTT_OK/GD32VW55X_Wifi_BLE_SDK/GD32VW55x_RELEASE_V1.0.2/MSDK/lwip/libcoap-4.3.4/src\coap_option.c ****         coap_option_filter_get(&oi->filter, oi->number) > 0)
 1590              		.loc 1 191 8 is_stmt 0
 1591 00ba 898B     		andi	a5,a5,2
 1592 00bc 99E7     		bne	a5,zero,.L183
 1593              	.LVL194:
 1594              	.L162:
 1595              	.LBE25:
 1596              	.LBE34:
 197:C:/Users/stapi/OneDrive/Desktop/GD32VW553/V1_MQTT_OK/GD32VW55X_Wifi_BLE_SDK/GD32VW55x_RELEASE_V1.0.2/MSDK/lwip/libcoap-4.3.4/src\coap_option.c **** 
 1597              		.loc 1 197 1
 1598 00be 2685     		mv	a0,s1
 1599 00c0 4101     		addi	sp,sp,16
 1600              		.cfi_remember_state
 1601              		.cfi_def_cfa_offset 0
 1602 00c2 17030000 		tail	__riscv_restore_3
 1602      67000300 
 1603              		.cfi_restore 18
 1604              		.cfi_restore 9
 1605              		.cfi_restore 8
 1606              		.cfi_restore 1
 1607              		.cfi_def_cfa_offset -16
 1608              	.LVL195:
 1609              	.L183:
 1610              		.cfi_restore_state
 1611              	.LBB35:
 1612              	.LBB26:
 192:C:/Users/stapi/OneDrive/Desktop/GD32VW553/V1_MQTT_OK/GD32VW55X_Wifi_BLE_SDK/GD32VW55x_RELEASE_V1.0.2/MSDK/lwip/libcoap-4.3.4/src\coap_option.c ****       break;
 1613              		.loc 1 192 9
 1614 00ca 4A85     		mv	a0,s2
 1615 00cc 97000000 		call	coap_option_filter_get
 1615      E7800000 
 1616              	.LVL196:
 191:C:/Users/stapi/OneDrive/Desktop/GD32VW553/V1_MQTT_OK/GD32VW55X_Wifi_BLE_SDK/GD32VW55x_RELEASE_V1.0.2/MSDK/lwip/libcoap-4.3.4/src\coap_option.c ****         coap_option_filter_get(&oi->filter, oi->number) > 0)
 1617              		.loc 1 191 23
 1618 00d4 E35BA0F8 		ble	a0,zero,.L171
 1619 00d8 DDB7     		j	.L162
 1620              	.LBE26:
 1621              	.LBE35:
 1622              		.cfi_endproc
 1623              	.LFE34:
 1625              		.section	.text.coap_check_option,"ax",@progbits
 1626              		.align	1
 1627              		.globl	coap_check_option
 1629              	coap_check_option:
 1630              	.LFB35:
 201:C:/Users/stapi/OneDrive/Desktop/GD32VW553/V1_MQTT_OK/GD32VW55X_Wifi_BLE_SDK/GD32VW55x_RELEASE_V1.0.2/MSDK/lwip/libcoap-4.3.4/src\coap_option.c ****   coap_opt_filter_t f;
 1631              		.loc 1 201 44 is_stmt 1
 1632              		.cfi_startproc
 1633              	.LVL197:
 1634 0000 17030000 		call	t0,__riscv_save_2
 1634      E7020300 
 1635              		.cfi_offset 9, -12
 1636              		.cfi_offset 8, -8
 1637              		.cfi_offset 1, -4
 1638              		.cfi_def_cfa_offset 16
 202:C:/Users/stapi/OneDrive/Desktop/GD32VW553/V1_MQTT_OK/GD32VW55X_Wifi_BLE_SDK/GD32VW55x_RELEASE_V1.0.2/MSDK/lwip/libcoap-4.3.4/src\coap_option.c **** 
 1639              		.loc 1 202 3
 204:C:/Users/stapi/OneDrive/Desktop/GD32VW553/V1_MQTT_OK/GD32VW55X_Wifi_BLE_SDK/GD32VW55x_RELEASE_V1.0.2/MSDK/lwip/libcoap-4.3.4/src\coap_option.c ****   coap_option_filter_set(&f, number);
 1640              		.loc 1 204 3
 201:C:/Users/stapi/OneDrive/Desktop/GD32VW553/V1_MQTT_OK/GD32VW55X_Wifi_BLE_SDK/GD32VW55x_RELEASE_V1.0.2/MSDK/lwip/libcoap-4.3.4/src\coap_option.c ****   coap_opt_filter_t f;
 1641              		.loc 1 201 44 is_stmt 0
 1642 0008 0111     		addi	sp,sp,-32
 1643              		.cfi_def_cfa_offset 48
 201:C:/Users/stapi/OneDrive/Desktop/GD32VW553/V1_MQTT_OK/GD32VW55X_Wifi_BLE_SDK/GD32VW55x_RELEASE_V1.0.2/MSDK/lwip/libcoap-4.3.4/src\coap_option.c ****   coap_opt_filter_t f;
 1644              		.loc 1 201 44
 1645 000a AA84     		mv	s1,a0
 204:C:/Users/stapi/OneDrive/Desktop/GD32VW553/V1_MQTT_OK/GD32VW55X_Wifi_BLE_SDK/GD32VW55x_RELEASE_V1.0.2/MSDK/lwip/libcoap-4.3.4/src\coap_option.c ****   coap_option_filter_set(&f, number);
 1646              		.loc 1 204 3
 1647 000c 4808     		addi	a0,sp,20
 1648              	.LVL198:
 201:C:/Users/stapi/OneDrive/Desktop/GD32VW553/V1_MQTT_OK/GD32VW55X_Wifi_BLE_SDK/GD32VW55x_RELEASE_V1.0.2/MSDK/lwip/libcoap-4.3.4/src\coap_option.c ****   coap_opt_filter_t f;
 1649              		.loc 1 201 44
 1650 000e 3284     		mv	s0,a2
 1651 0010 2EC6     		sw	a1,12(sp)
 204:C:/Users/stapi/OneDrive/Desktop/GD32VW553/V1_MQTT_OK/GD32VW55X_Wifi_BLE_SDK/GD32VW55x_RELEASE_V1.0.2/MSDK/lwip/libcoap-4.3.4/src\coap_option.c ****   coap_option_filter_set(&f, number);
 1652              		.loc 1 204 3
 1653 0012 97000000 		call	coap_option_filter_clear
 1653      E7800000 
 1654              	.LVL199:
 205:C:/Users/stapi/OneDrive/Desktop/GD32VW553/V1_MQTT_OK/GD32VW55X_Wifi_BLE_SDK/GD32VW55x_RELEASE_V1.0.2/MSDK/lwip/libcoap-4.3.4/src\coap_option.c **** 
 1655              		.loc 1 205 3 is_stmt 1
 1656 001a B245     		lw	a1,12(sp)
 1657 001c 4808     		addi	a0,sp,20
 1658 001e 97000000 		call	coap_option_filter_set
 1658      E7800000 
 1659              	.LVL200:
 207:C:/Users/stapi/OneDrive/Desktop/GD32VW553/V1_MQTT_OK/GD32VW55X_Wifi_BLE_SDK/GD32VW55x_RELEASE_V1.0.2/MSDK/lwip/libcoap-4.3.4/src\coap_option.c **** 
 1660              		.loc 1 207 3
 1661 0026 5008     		addi	a2,sp,20
 1662 0028 A285     		mv	a1,s0
 1663 002a 2685     		mv	a0,s1
 1664 002c 97000000 		call	coap_option_iterator_init
 1664      E7800000 
 1665              	.LVL201:
 209:C:/Users/stapi/OneDrive/Desktop/GD32VW553/V1_MQTT_OK/GD32VW55X_Wifi_BLE_SDK/GD32VW55x_RELEASE_V1.0.2/MSDK/lwip/libcoap-4.3.4/src\coap_option.c **** }
 1666              		.loc 1 209 3
 209:C:/Users/stapi/OneDrive/Desktop/GD32VW553/V1_MQTT_OK/GD32VW55X_Wifi_BLE_SDK/GD32VW55x_RELEASE_V1.0.2/MSDK/lwip/libcoap-4.3.4/src\coap_option.c **** }
 1667              		.loc 1 209 10 is_stmt 0
 1668 0034 2285     		mv	a0,s0
 1669 0036 97000000 		call	coap_option_next
 1669      E7800000 
 1670              	.LVL202:
 210:C:/Users/stapi/OneDrive/Desktop/GD32VW553/V1_MQTT_OK/GD32VW55X_Wifi_BLE_SDK/GD32VW55x_RELEASE_V1.0.2/MSDK/lwip/libcoap-4.3.4/src\coap_option.c **** 
 1671              		.loc 1 210 1
 1672 003e 0561     		addi	sp,sp,32
 1673              		.cfi_def_cfa_offset 0
 1674 0040 17030000 		tail	__riscv_restore_2
 1674      67000300 
 1675              		.cfi_restore 9
 1676              		.cfi_restore 8
 1677              		.cfi_restore 1
 1678              		.cfi_def_cfa_offset -16
 1679              		.cfi_endproc
 1680              	.LFE35:
 1682              		.section	.rodata.coap_new_optlist.str1.4,"aMS",@progbits,1
 1683              		.align	2
 1684              	.LC18:
 1685 0000 636F6170 		.string	"coap_new_optlist: malloc failure\n"
 1685      5F6E6577 
 1685      5F6F7074 
 1685      6C697374 
 1685      3A206D61 
 1686              		.section	.text.coap_new_optlist,"ax",@progbits
 1687              		.align	1
 1688              		.globl	coap_new_optlist
 1690              	coap_new_optlist:
 1691              	.LFB48:
 509:C:/Users/stapi/OneDrive/Desktop/GD32VW553/V1_MQTT_OK/GD32VW55X_Wifi_BLE_SDK/GD32VW55x_RELEASE_V1.0.2/MSDK/lwip/libcoap-4.3.4/src\coap_option.c **** }
 510:C:/Users/stapi/OneDrive/Desktop/GD32VW553/V1_MQTT_OK/GD32VW55X_Wifi_BLE_SDK/GD32VW55x_RELEASE_V1.0.2/MSDK/lwip/libcoap-4.3.4/src\coap_option.c **** 
 511:C:/Users/stapi/OneDrive/Desktop/GD32VW553/V1_MQTT_OK/GD32VW55X_Wifi_BLE_SDK/GD32VW55x_RELEASE_V1.0.2/MSDK/lwip/libcoap-4.3.4/src\coap_option.c **** coap_optlist_t *
 512:C:/Users/stapi/OneDrive/Desktop/GD32VW553/V1_MQTT_OK/GD32VW55X_Wifi_BLE_SDK/GD32VW55x_RELEASE_V1.0.2/MSDK/lwip/libcoap-4.3.4/src\coap_option.c **** coap_new_optlist(uint16_t number,
 513:C:/Users/stapi/OneDrive/Desktop/GD32VW553/V1_MQTT_OK/GD32VW55X_Wifi_BLE_SDK/GD32VW55x_RELEASE_V1.0.2/MSDK/lwip/libcoap-4.3.4/src\coap_option.c ****                  size_t length,
 514:C:/Users/stapi/OneDrive/Desktop/GD32VW553/V1_MQTT_OK/GD32VW55X_Wifi_BLE_SDK/GD32VW55x_RELEASE_V1.0.2/MSDK/lwip/libcoap-4.3.4/src\coap_option.c ****                  const uint8_t *data
 515:C:/Users/stapi/OneDrive/Desktop/GD32VW553/V1_MQTT_OK/GD32VW55X_Wifi_BLE_SDK/GD32VW55x_RELEASE_V1.0.2/MSDK/lwip/libcoap-4.3.4/src\coap_option.c ****                 ) {
 1692              		.loc 1 515 19 is_stmt 1
 1693              		.cfi_startproc
 1694              	.LVL203:
 1695 0000 17030000 		call	t0,__riscv_save_4
 1695      E7020300 
 1696              		.cfi_offset 19, -20
 1697              		.cfi_offset 18, -16
 1698              		.cfi_offset 9, -12
 1699              		.cfi_offset 8, -8
 1700              		.cfi_offset 1, -4
 1701              		.cfi_def_cfa_offset 32
 516:C:/Users/stapi/OneDrive/Desktop/GD32VW553/V1_MQTT_OK/GD32VW55X_Wifi_BLE_SDK/GD32VW55x_RELEASE_V1.0.2/MSDK/lwip/libcoap-4.3.4/src\coap_option.c ****   coap_optlist_t *node;
 1702              		.loc 1 516 3
 517:C:/Users/stapi/OneDrive/Desktop/GD32VW553/V1_MQTT_OK/GD32VW55X_Wifi_BLE_SDK/GD32VW55x_RELEASE_V1.0.2/MSDK/lwip/libcoap-4.3.4/src\coap_option.c **** 
 518:C:/Users/stapi/OneDrive/Desktop/GD32VW553/V1_MQTT_OK/GD32VW55X_Wifi_BLE_SDK/GD32VW55x_RELEASE_V1.0.2/MSDK/lwip/libcoap-4.3.4/src\coap_option.c **** #if defined WITH_LWIP && !defined HAVE_MALLOC
 519:C:/Users/stapi/OneDrive/Desktop/GD32VW553/V1_MQTT_OK/GD32VW55X_Wifi_BLE_SDK/GD32VW55x_RELEASE_V1.0.2/MSDK/lwip/libcoap-4.3.4/src\coap_option.c ****   if (length > MEMP_LEN_COAPOPTLIST) {
 520:C:/Users/stapi/OneDrive/Desktop/GD32VW553/V1_MQTT_OK/GD32VW55X_Wifi_BLE_SDK/GD32VW55x_RELEASE_V1.0.2/MSDK/lwip/libcoap-4.3.4/src\coap_option.c ****     coap_log_crit("coap_new_optlist: size too large (%zu > MEMP_LEN_COAPOPTLIST)\n",
 521:C:/Users/stapi/OneDrive/Desktop/GD32VW553/V1_MQTT_OK/GD32VW55X_Wifi_BLE_SDK/GD32VW55x_RELEASE_V1.0.2/MSDK/lwip/libcoap-4.3.4/src\coap_option.c ****                   length);
 522:C:/Users/stapi/OneDrive/Desktop/GD32VW553/V1_MQTT_OK/GD32VW55X_Wifi_BLE_SDK/GD32VW55x_RELEASE_V1.0.2/MSDK/lwip/libcoap-4.3.4/src\coap_option.c ****     return NULL;
 523:C:/Users/stapi/OneDrive/Desktop/GD32VW553/V1_MQTT_OK/GD32VW55X_Wifi_BLE_SDK/GD32VW55x_RELEASE_V1.0.2/MSDK/lwip/libcoap-4.3.4/src\coap_option.c ****   }
 524:C:/Users/stapi/OneDrive/Desktop/GD32VW553/V1_MQTT_OK/GD32VW55X_Wifi_BLE_SDK/GD32VW55x_RELEASE_V1.0.2/MSDK/lwip/libcoap-4.3.4/src\coap_option.c **** #endif /* WITH_LWIP */
 525:C:/Users/stapi/OneDrive/Desktop/GD32VW553/V1_MQTT_OK/GD32VW55X_Wifi_BLE_SDK/GD32VW55x_RELEASE_V1.0.2/MSDK/lwip/libcoap-4.3.4/src\coap_option.c ****   node = coap_malloc_type(COAP_OPTLIST, sizeof(coap_optlist_t) + length);
 1703              		.loc 1 525 3
 515:C:/Users/stapi/OneDrive/Desktop/GD32VW553/V1_MQTT_OK/GD32VW55X_Wifi_BLE_SDK/GD32VW55x_RELEASE_V1.0.2/MSDK/lwip/libcoap-4.3.4/src\coap_option.c ****   coap_optlist_t *node;
 1704              		.loc 1 515 19 is_stmt 0
 1705 0008 3289     		mv	s2,a2
 1706              		.loc 1 525 10
 1707 000a 13860501 		addi	a2,a1,16
 1708              	.LVL204:
 515:C:/Users/stapi/OneDrive/Desktop/GD32VW553/V1_MQTT_OK/GD32VW55X_Wifi_BLE_SDK/GD32VW55x_RELEASE_V1.0.2/MSDK/lwip/libcoap-4.3.4/src\coap_option.c ****   coap_optlist_t *node;
 1709              		.loc 1 515 19
 1710 000e 4111     		addi	sp,sp,-16
 1711              		.cfi_def_cfa_offset 48
 515:C:/Users/stapi/OneDrive/Desktop/GD32VW553/V1_MQTT_OK/GD32VW55X_Wifi_BLE_SDK/GD32VW55x_RELEASE_V1.0.2/MSDK/lwip/libcoap-4.3.4/src\coap_option.c ****   coap_optlist_t *node;
 1712              		.loc 1 515 19
 1713 0010 AA89     		mv	s3,a0
 1714 0012 AE84     		mv	s1,a1
 1715              		.loc 1 525 10
 1716 0014 3545     		li	a0,13
 1717              	.LVL205:
 1718 0016 B285     		mv	a1,a2
 1719              	.LVL206:
 1720 0018 32C6     		sw	a2,12(sp)
 1721 001a 97000000 		call	coap_malloc_type
 1721      E7800000 
 1722              	.LVL207:
 1723 0022 2A84     		mv	s0,a0
 1724              	.LVL208:
 526:C:/Users/stapi/OneDrive/Desktop/GD32VW553/V1_MQTT_OK/GD32VW55X_Wifi_BLE_SDK/GD32VW55x_RELEASE_V1.0.2/MSDK/lwip/libcoap-4.3.4/src\coap_option.c **** 
 527:C:/Users/stapi/OneDrive/Desktop/GD32VW553/V1_MQTT_OK/GD32VW55X_Wifi_BLE_SDK/GD32VW55x_RELEASE_V1.0.2/MSDK/lwip/libcoap-4.3.4/src\coap_option.c ****   if (node) {
 1725              		.loc 1 527 3 is_stmt 1
 1726              		.loc 1 527 6 is_stmt 0
 1727 0024 0DC9     		beq	a0,zero,.L189
 528:C:/Users/stapi/OneDrive/Desktop/GD32VW553/V1_MQTT_OK/GD32VW55X_Wifi_BLE_SDK/GD32VW55x_RELEASE_V1.0.2/MSDK/lwip/libcoap-4.3.4/src\coap_option.c ****     memset(node, 0, (sizeof(coap_optlist_t) + length));
 1728              		.loc 1 528 5 is_stmt 1
 1729 0026 3246     		lw	a2,12(sp)
 1730 0028 8145     		li	a1,0
 1731 002a 97000000 		call	memset
 1731      E7800000 
 1732              	.LVL209:
 529:C:/Users/stapi/OneDrive/Desktop/GD32VW553/V1_MQTT_OK/GD32VW55X_Wifi_BLE_SDK/GD32VW55x_RELEASE_V1.0.2/MSDK/lwip/libcoap-4.3.4/src\coap_option.c ****     node->number = number;
 1733              		.loc 1 529 5
 530:C:/Users/stapi/OneDrive/Desktop/GD32VW553/V1_MQTT_OK/GD32VW55X_Wifi_BLE_SDK/GD32VW55x_RELEASE_V1.0.2/MSDK/lwip/libcoap-4.3.4/src\coap_option.c ****     node->length = length;
 531:C:/Users/stapi/OneDrive/Desktop/GD32VW553/V1_MQTT_OK/GD32VW55X_Wifi_BLE_SDK/GD32VW55x_RELEASE_V1.0.2/MSDK/lwip/libcoap-4.3.4/src\coap_option.c ****     node->data = (uint8_t *)&node[1];
 1734              		.loc 1 531 29 is_stmt 0
 1735 0032 13050401 		addi	a0,s0,16
 529:C:/Users/stapi/OneDrive/Desktop/GD32VW553/V1_MQTT_OK/GD32VW55X_Wifi_BLE_SDK/GD32VW55x_RELEASE_V1.0.2/MSDK/lwip/libcoap-4.3.4/src\coap_option.c ****     node->number = number;
 1736              		.loc 1 529 18
 1737 0036 23123401 		sh	s3,4(s0)
 530:C:/Users/stapi/OneDrive/Desktop/GD32VW553/V1_MQTT_OK/GD32VW55X_Wifi_BLE_SDK/GD32VW55x_RELEASE_V1.0.2/MSDK/lwip/libcoap-4.3.4/src\coap_option.c ****     node->length = length;
 1738              		.loc 1 530 5 is_stmt 1
 530:C:/Users/stapi/OneDrive/Desktop/GD32VW553/V1_MQTT_OK/GD32VW55X_Wifi_BLE_SDK/GD32VW55x_RELEASE_V1.0.2/MSDK/lwip/libcoap-4.3.4/src\coap_option.c ****     node->length = length;
 1739              		.loc 1 530 18 is_stmt 0
 1740 003a 04C4     		sw	s1,8(s0)
 1741              		.loc 1 531 5 is_stmt 1
 1742              		.loc 1 531 16 is_stmt 0
 1743 003c 48C4     		sw	a0,12(s0)
 532:C:/Users/stapi/OneDrive/Desktop/GD32VW553/V1_MQTT_OK/GD32VW55X_Wifi_BLE_SDK/GD32VW55x_RELEASE_V1.0.2/MSDK/lwip/libcoap-4.3.4/src\coap_option.c ****     memcpy(node->data, data, length);
 1744              		.loc 1 532 5 is_stmt 1
 1745 003e 2686     		mv	a2,s1
 1746 0040 CA85     		mv	a1,s2
 1747 0042 97000000 		call	memcpy
 1747      E7800000 
 1748              	.LVL210:
 1749              	.L188:
 533:C:/Users/stapi/OneDrive/Desktop/GD32VW553/V1_MQTT_OK/GD32VW55X_Wifi_BLE_SDK/GD32VW55x_RELEASE_V1.0.2/MSDK/lwip/libcoap-4.3.4/src\coap_option.c ****   } else {
 534:C:/Users/stapi/OneDrive/Desktop/GD32VW553/V1_MQTT_OK/GD32VW55X_Wifi_BLE_SDK/GD32VW55x_RELEASE_V1.0.2/MSDK/lwip/libcoap-4.3.4/src\coap_option.c ****     coap_log_warn("coap_new_optlist: malloc failure\n");
 535:C:/Users/stapi/OneDrive/Desktop/GD32VW553/V1_MQTT_OK/GD32VW55X_Wifi_BLE_SDK/GD32VW55x_RELEASE_V1.0.2/MSDK/lwip/libcoap-4.3.4/src\coap_option.c ****   }
 536:C:/Users/stapi/OneDrive/Desktop/GD32VW553/V1_MQTT_OK/GD32VW55X_Wifi_BLE_SDK/GD32VW55x_RELEASE_V1.0.2/MSDK/lwip/libcoap-4.3.4/src\coap_option.c **** 
 537:C:/Users/stapi/OneDrive/Desktop/GD32VW553/V1_MQTT_OK/GD32VW55X_Wifi_BLE_SDK/GD32VW55x_RELEASE_V1.0.2/MSDK/lwip/libcoap-4.3.4/src\coap_option.c ****   return node;
 538:C:/Users/stapi/OneDrive/Desktop/GD32VW553/V1_MQTT_OK/GD32VW55X_Wifi_BLE_SDK/GD32VW55x_RELEASE_V1.0.2/MSDK/lwip/libcoap-4.3.4/src\coap_option.c **** }
 1750              		.loc 1 538 1 is_stmt 0
 1751 004a 2285     		mv	a0,s0
 1752 004c 4101     		addi	sp,sp,16
 1753              		.cfi_remember_state
 1754              		.cfi_def_cfa_offset 0
 1755 004e 17030000 		tail	__riscv_restore_4
 1755      67000300 
 1756              		.cfi_restore 19
 1757              		.cfi_restore 18
 1758              		.cfi_restore 9
 1759              		.cfi_restore 8
 1760              		.cfi_restore 1
 1761              		.cfi_def_cfa_offset -32
 1762              	.L189:
 1763              		.cfi_restore_state
 534:C:/Users/stapi/OneDrive/Desktop/GD32VW553/V1_MQTT_OK/GD32VW55X_Wifi_BLE_SDK/GD32VW55x_RELEASE_V1.0.2/MSDK/lwip/libcoap-4.3.4/src\coap_option.c ****   }
 1764              		.loc 1 534 5 is_stmt 1
 534:C:/Users/stapi/OneDrive/Desktop/GD32VW553/V1_MQTT_OK/GD32VW55X_Wifi_BLE_SDK/GD32VW55x_RELEASE_V1.0.2/MSDK/lwip/libcoap-4.3.4/src\coap_option.c ****   }
 1765              		.loc 1 534 5
 1766 0056 97000000 		call	coap_get_log_level
 1766      E7800000 
 1767              	.LVL211:
 1768 005e 8D47     		li	a5,3
 1769 0060 E3D5A7FE 		ble	a0,a5,.L188
 534:C:/Users/stapi/OneDrive/Desktop/GD32VW553/V1_MQTT_OK/GD32VW55X_Wifi_BLE_SDK/GD32VW55x_RELEASE_V1.0.2/MSDK/lwip/libcoap-4.3.4/src\coap_option.c ****   }
 1770              		.loc 1 534 5 discriminator 1
 1771 0064 B7050000 		lui	a1,%hi(.LC18)
 1772 0068 93850500 		addi	a1,a1,%lo(.LC18)
 1773 006c 1145     		li	a0,4
 1774 006e 97000000 		call	coap_log_impl
 1774      E7800000 
 1775              	.LVL212:
 534:C:/Users/stapi/OneDrive/Desktop/GD32VW553/V1_MQTT_OK/GD32VW55X_Wifi_BLE_SDK/GD32VW55x_RELEASE_V1.0.2/MSDK/lwip/libcoap-4.3.4/src\coap_option.c ****   }
 1776              		.loc 1 534 5 discriminator 1
 537:C:/Users/stapi/OneDrive/Desktop/GD32VW553/V1_MQTT_OK/GD32VW55X_Wifi_BLE_SDK/GD32VW55x_RELEASE_V1.0.2/MSDK/lwip/libcoap-4.3.4/src\coap_option.c **** }
 1777              		.loc 1 537 3 discriminator 1
 537:C:/Users/stapi/OneDrive/Desktop/GD32VW553/V1_MQTT_OK/GD32VW55X_Wifi_BLE_SDK/GD32VW55x_RELEASE_V1.0.2/MSDK/lwip/libcoap-4.3.4/src\coap_option.c **** }
 1778              		.loc 1 537 10 is_stmt 0 discriminator 1
 1779 0076 D1BF     		j	.L188
 1780              		.cfi_endproc
 1781              	.LFE48:
 1783              		.section	.rodata.coap_add_optlist_pdu.str1.4,"aMS",@progbits,1
 1784              		.align	2
 1785              	.LC19:
 1786 0000 636F6170 		.string	"coap_add_optlist_pdu: PDU already contains data\n"
 1786      5F616464 
 1786      5F6F7074 
 1786      6C697374 
 1786      5F706475 
 1787              		.section	.text.coap_add_optlist_pdu,"ax",@progbits
 1788              		.align	1
 1789              		.globl	coap_add_optlist_pdu
 1791              	coap_add_optlist_pdu:
 1792              	.LFB50:
 539:C:/Users/stapi/OneDrive/Desktop/GD32VW553/V1_MQTT_OK/GD32VW55X_Wifi_BLE_SDK/GD32VW55x_RELEASE_V1.0.2/MSDK/lwip/libcoap-4.3.4/src\coap_option.c **** 
 540:C:/Users/stapi/OneDrive/Desktop/GD32VW553/V1_MQTT_OK/GD32VW55X_Wifi_BLE_SDK/GD32VW55x_RELEASE_V1.0.2/MSDK/lwip/libcoap-4.3.4/src\coap_option.c **** static int
 541:C:/Users/stapi/OneDrive/Desktop/GD32VW553/V1_MQTT_OK/GD32VW55X_Wifi_BLE_SDK/GD32VW55x_RELEASE_V1.0.2/MSDK/lwip/libcoap-4.3.4/src\coap_option.c **** order_opts(void *a, void *b) {
 542:C:/Users/stapi/OneDrive/Desktop/GD32VW553/V1_MQTT_OK/GD32VW55X_Wifi_BLE_SDK/GD32VW55x_RELEASE_V1.0.2/MSDK/lwip/libcoap-4.3.4/src\coap_option.c ****   coap_optlist_t *o1 = (coap_optlist_t *)a;
 543:C:/Users/stapi/OneDrive/Desktop/GD32VW553/V1_MQTT_OK/GD32VW55X_Wifi_BLE_SDK/GD32VW55x_RELEASE_V1.0.2/MSDK/lwip/libcoap-4.3.4/src\coap_option.c ****   coap_optlist_t *o2 = (coap_optlist_t *)b;
 544:C:/Users/stapi/OneDrive/Desktop/GD32VW553/V1_MQTT_OK/GD32VW55X_Wifi_BLE_SDK/GD32VW55x_RELEASE_V1.0.2/MSDK/lwip/libcoap-4.3.4/src\coap_option.c **** 
 545:C:/Users/stapi/OneDrive/Desktop/GD32VW553/V1_MQTT_OK/GD32VW55X_Wifi_BLE_SDK/GD32VW55x_RELEASE_V1.0.2/MSDK/lwip/libcoap-4.3.4/src\coap_option.c ****   if (!a || !b)
 546:C:/Users/stapi/OneDrive/Desktop/GD32VW553/V1_MQTT_OK/GD32VW55X_Wifi_BLE_SDK/GD32VW55x_RELEASE_V1.0.2/MSDK/lwip/libcoap-4.3.4/src\coap_option.c ****     return a < b ? -1 : 1;
 547:C:/Users/stapi/OneDrive/Desktop/GD32VW553/V1_MQTT_OK/GD32VW55X_Wifi_BLE_SDK/GD32VW55x_RELEASE_V1.0.2/MSDK/lwip/libcoap-4.3.4/src\coap_option.c **** 
 548:C:/Users/stapi/OneDrive/Desktop/GD32VW553/V1_MQTT_OK/GD32VW55X_Wifi_BLE_SDK/GD32VW55x_RELEASE_V1.0.2/MSDK/lwip/libcoap-4.3.4/src\coap_option.c ****   return (int)(o1->number - o2->number);
 549:C:/Users/stapi/OneDrive/Desktop/GD32VW553/V1_MQTT_OK/GD32VW55X_Wifi_BLE_SDK/GD32VW55x_RELEASE_V1.0.2/MSDK/lwip/libcoap-4.3.4/src\coap_option.c **** }
 550:C:/Users/stapi/OneDrive/Desktop/GD32VW553/V1_MQTT_OK/GD32VW55X_Wifi_BLE_SDK/GD32VW55x_RELEASE_V1.0.2/MSDK/lwip/libcoap-4.3.4/src\coap_option.c **** 
 551:C:/Users/stapi/OneDrive/Desktop/GD32VW553/V1_MQTT_OK/GD32VW55X_Wifi_BLE_SDK/GD32VW55x_RELEASE_V1.0.2/MSDK/lwip/libcoap-4.3.4/src\coap_option.c **** int
 552:C:/Users/stapi/OneDrive/Desktop/GD32VW553/V1_MQTT_OK/GD32VW55X_Wifi_BLE_SDK/GD32VW55x_RELEASE_V1.0.2/MSDK/lwip/libcoap-4.3.4/src\coap_option.c **** coap_add_optlist_pdu(coap_pdu_t *pdu, coap_optlist_t **options) {
 1793              		.loc 1 552 65 is_stmt 1
 1794              		.cfi_startproc
 1795              	.LVL213:
 553:C:/Users/stapi/OneDrive/Desktop/GD32VW553/V1_MQTT_OK/GD32VW55X_Wifi_BLE_SDK/GD32VW55x_RELEASE_V1.0.2/MSDK/lwip/libcoap-4.3.4/src\coap_option.c ****   coap_optlist_t *opt;
 1796              		.loc 1 553 3
 554:C:/Users/stapi/OneDrive/Desktop/GD32VW553/V1_MQTT_OK/GD32VW55X_Wifi_BLE_SDK/GD32VW55x_RELEASE_V1.0.2/MSDK/lwip/libcoap-4.3.4/src\coap_option.c **** 
 555:C:/Users/stapi/OneDrive/Desktop/GD32VW553/V1_MQTT_OK/GD32VW55X_Wifi_BLE_SDK/GD32VW55x_RELEASE_V1.0.2/MSDK/lwip/libcoap-4.3.4/src\coap_option.c ****   if (options && *options) {
 1797              		.loc 1 555 3
 1798              		.loc 1 555 6 is_stmt 0
 1799 0000 99E1     		bne	a1,zero,.L193
 1800              	.L237:
 556:C:/Users/stapi/OneDrive/Desktop/GD32VW553/V1_MQTT_OK/GD32VW55X_Wifi_BLE_SDK/GD32VW55x_RELEASE_V1.0.2/MSDK/lwip/libcoap-4.3.4/src\coap_option.c ****     if (pdu->data) {
 557:C:/Users/stapi/OneDrive/Desktop/GD32VW553/V1_MQTT_OK/GD32VW55X_Wifi_BLE_SDK/GD32VW55x_RELEASE_V1.0.2/MSDK/lwip/libcoap-4.3.4/src\coap_option.c ****       coap_log_warn("coap_add_optlist_pdu: PDU already contains data\n");
 558:C:/Users/stapi/OneDrive/Desktop/GD32VW553/V1_MQTT_OK/GD32VW55X_Wifi_BLE_SDK/GD32VW55x_RELEASE_V1.0.2/MSDK/lwip/libcoap-4.3.4/src\coap_option.c ****       return 0;
 559:C:/Users/stapi/OneDrive/Desktop/GD32VW553/V1_MQTT_OK/GD32VW55X_Wifi_BLE_SDK/GD32VW55x_RELEASE_V1.0.2/MSDK/lwip/libcoap-4.3.4/src\coap_option.c ****     }
 560:C:/Users/stapi/OneDrive/Desktop/GD32VW553/V1_MQTT_OK/GD32VW55X_Wifi_BLE_SDK/GD32VW55x_RELEASE_V1.0.2/MSDK/lwip/libcoap-4.3.4/src\coap_option.c ****     /* sort options for delta encoding */
 561:C:/Users/stapi/OneDrive/Desktop/GD32VW553/V1_MQTT_OK/GD32VW55X_Wifi_BLE_SDK/GD32VW55x_RELEASE_V1.0.2/MSDK/lwip/libcoap-4.3.4/src\coap_option.c ****     LL_SORT((*options), order_opts);
 562:C:/Users/stapi/OneDrive/Desktop/GD32VW553/V1_MQTT_OK/GD32VW55X_Wifi_BLE_SDK/GD32VW55x_RELEASE_V1.0.2/MSDK/lwip/libcoap-4.3.4/src\coap_option.c **** 
 563:C:/Users/stapi/OneDrive/Desktop/GD32VW553/V1_MQTT_OK/GD32VW55X_Wifi_BLE_SDK/GD32VW55x_RELEASE_V1.0.2/MSDK/lwip/libcoap-4.3.4/src\coap_option.c ****     LL_FOREACH((*options), opt) {
 564:C:/Users/stapi/OneDrive/Desktop/GD32VW553/V1_MQTT_OK/GD32VW55X_Wifi_BLE_SDK/GD32VW55x_RELEASE_V1.0.2/MSDK/lwip/libcoap-4.3.4/src\coap_option.c ****       coap_add_option_internal(pdu, opt->number, opt->length, opt->data);
 565:C:/Users/stapi/OneDrive/Desktop/GD32VW553/V1_MQTT_OK/GD32VW55X_Wifi_BLE_SDK/GD32VW55x_RELEASE_V1.0.2/MSDK/lwip/libcoap-4.3.4/src\coap_option.c ****     }
 566:C:/Users/stapi/OneDrive/Desktop/GD32VW553/V1_MQTT_OK/GD32VW55X_Wifi_BLE_SDK/GD32VW55x_RELEASE_V1.0.2/MSDK/lwip/libcoap-4.3.4/src\coap_option.c ****     return 1;
 567:C:/Users/stapi/OneDrive/Desktop/GD32VW553/V1_MQTT_OK/GD32VW55X_Wifi_BLE_SDK/GD32VW55x_RELEASE_V1.0.2/MSDK/lwip/libcoap-4.3.4/src\coap_option.c ****   }
 568:C:/Users/stapi/OneDrive/Desktop/GD32VW553/V1_MQTT_OK/GD32VW55X_Wifi_BLE_SDK/GD32VW55x_RELEASE_V1.0.2/MSDK/lwip/libcoap-4.3.4/src\coap_option.c ****   return 0;
 1801              		.loc 1 568 10
 1802 0002 0145     		li	a0,0
 1803              	.LVL214:
 569:C:/Users/stapi/OneDrive/Desktop/GD32VW553/V1_MQTT_OK/GD32VW55X_Wifi_BLE_SDK/GD32VW55x_RELEASE_V1.0.2/MSDK/lwip/libcoap-4.3.4/src\coap_option.c **** }
 1804              		.loc 1 569 1
 1805 0004 8280     		ret
 1806              	.LVL215:
 1807              	.L193:
 555:C:/Users/stapi/OneDrive/Desktop/GD32VW553/V1_MQTT_OK/GD32VW55X_Wifi_BLE_SDK/GD32VW55x_RELEASE_V1.0.2/MSDK/lwip/libcoap-4.3.4/src\coap_option.c ****     if (pdu->data) {
 1808              		.loc 1 555 15 discriminator 1
 1809 0006 9C41     		lw	a5,0(a1)
 1810 0008 EDDF     		beq	a5,zero,.L237
 552:C:/Users/stapi/OneDrive/Desktop/GD32VW553/V1_MQTT_OK/GD32VW55X_Wifi_BLE_SDK/GD32VW55x_RELEASE_V1.0.2/MSDK/lwip/libcoap-4.3.4/src\coap_option.c ****   coap_optlist_t *opt;
 1811              		.loc 1 552 65
 1812 000a 17030000 		call	t0,__riscv_save_2
 1812      E7020300 
 1813              		.cfi_offset 9, -12
 1814              		.cfi_offset 8, -8
 1815              		.cfi_offset 1, -4
 1816              		.cfi_def_cfa_offset 16
 556:C:/Users/stapi/OneDrive/Desktop/GD32VW553/V1_MQTT_OK/GD32VW55X_Wifi_BLE_SDK/GD32VW55x_RELEASE_V1.0.2/MSDK/lwip/libcoap-4.3.4/src\coap_option.c ****       coap_log_warn("coap_add_optlist_pdu: PDU already contains data\n");
 1817              		.loc 1 556 12
 1818 0012 1C59     		lw	a5,48(a0)
 1819 0014 AA84     		mv	s1,a0
 556:C:/Users/stapi/OneDrive/Desktop/GD32VW553/V1_MQTT_OK/GD32VW55X_Wifi_BLE_SDK/GD32VW55x_RELEASE_V1.0.2/MSDK/lwip/libcoap-4.3.4/src\coap_option.c ****       coap_log_warn("coap_add_optlist_pdu: PDU already contains data\n");
 1820              		.loc 1 556 5 is_stmt 1
 556:C:/Users/stapi/OneDrive/Desktop/GD32VW553/V1_MQTT_OK/GD32VW55X_Wifi_BLE_SDK/GD32VW55x_RELEASE_V1.0.2/MSDK/lwip/libcoap-4.3.4/src\coap_option.c ****       coap_log_warn("coap_add_optlist_pdu: PDU already contains data\n");
 1821              		.loc 1 556 8 is_stmt 0
 1822 0016 95C7     		beq	a5,zero,.L215
 1823              	.LVL216:
 557:C:/Users/stapi/OneDrive/Desktop/GD32VW553/V1_MQTT_OK/GD32VW55X_Wifi_BLE_SDK/GD32VW55x_RELEASE_V1.0.2/MSDK/lwip/libcoap-4.3.4/src\coap_option.c ****       return 0;
 1824              		.loc 1 557 7 is_stmt 1
 557:C:/Users/stapi/OneDrive/Desktop/GD32VW553/V1_MQTT_OK/GD32VW55X_Wifi_BLE_SDK/GD32VW55x_RELEASE_V1.0.2/MSDK/lwip/libcoap-4.3.4/src\coap_option.c ****       return 0;
 1825              		.loc 1 557 7
 1826 0018 97000000 		call	coap_get_log_level
 1826      E7800000 
 1827              	.LVL217:
 1828 0020 8D47     		li	a5,3
 1829 0022 63DBA700 		ble	a0,a5,.L240
 557:C:/Users/stapi/OneDrive/Desktop/GD32VW553/V1_MQTT_OK/GD32VW55X_Wifi_BLE_SDK/GD32VW55x_RELEASE_V1.0.2/MSDK/lwip/libcoap-4.3.4/src\coap_option.c ****       return 0;
 1830              		.loc 1 557 7 discriminator 1
 1831 0026 B7050000 		lui	a1,%hi(.LC19)
 1832 002a 93850500 		addi	a1,a1,%lo(.LC19)
 1833 002e 1145     		li	a0,4
 1834 0030 97000000 		call	coap_log_impl
 1834      E7800000 
 1835              	.LVL218:
 1836              	.L240:
 558:C:/Users/stapi/OneDrive/Desktop/GD32VW553/V1_MQTT_OK/GD32VW55X_Wifi_BLE_SDK/GD32VW55x_RELEASE_V1.0.2/MSDK/lwip/libcoap-4.3.4/src\coap_option.c ****     }
 1837              		.loc 1 558 14 is_stmt 0 discriminator 1
 1838 0038 0145     		li	a0,0
 1839              	.L192:
 1840              		.loc 1 569 1
 1841 003a 17030000 		tail	__riscv_restore_2
 1841      67000300 
 1842              		.cfi_remember_state
 1843              		.cfi_restore 9
 1844              		.cfi_restore 8
 1845              		.cfi_restore 1
 1846              		.cfi_def_cfa_offset 0
 1847              	.LVL219:
 1848              	.L215:
 1849              		.cfi_restore_state
 1850              	.LBB39:
 561:C:/Users/stapi/OneDrive/Desktop/GD32VW553/V1_MQTT_OK/GD32VW55X_Wifi_BLE_SDK/GD32VW55x_RELEASE_V1.0.2/MSDK/lwip/libcoap-4.3.4/src\coap_option.c **** 
 1851              		.loc 1 561 5
 1852 0042 0545     		li	a0,1
 1853 0044 054E     		li	t3,1
 1854              	.L196:
 1855              	.LVL220:
 561:C:/Users/stapi/OneDrive/Desktop/GD32VW553/V1_MQTT_OK/GD32VW55X_Wifi_BLE_SDK/GD32VW55x_RELEASE_V1.0.2/MSDK/lwip/libcoap-4.3.4/src\coap_option.c **** 
 1856              		.loc 1 561 5 is_stmt 1 discriminator 45
 1857 0046 9841     		lw	a4,0(a1)
 1858              	.LVL221:
 561:C:/Users/stapi/OneDrive/Desktop/GD32VW553/V1_MQTT_OK/GD32VW55X_Wifi_BLE_SDK/GD32VW55x_RELEASE_V1.0.2/MSDK/lwip/libcoap-4.3.4/src\coap_option.c **** 
 1859              		.loc 1 561 5 discriminator 45
 1860 0048 8148     		li	a7,0
 1861 004a 23A00500 		sw	zero,0(a1)
 561:C:/Users/stapi/OneDrive/Desktop/GD32VW553/V1_MQTT_OK/GD32VW55X_Wifi_BLE_SDK/GD32VW55x_RELEASE_V1.0.2/MSDK/lwip/libcoap-4.3.4/src\coap_option.c **** 
 1862              		.loc 1 561 5 discriminator 45
 1863              	.LVL222:
 561:C:/Users/stapi/OneDrive/Desktop/GD32VW553/V1_MQTT_OK/GD32VW55X_Wifi_BLE_SDK/GD32VW55x_RELEASE_V1.0.2/MSDK/lwip/libcoap-4.3.4/src\coap_option.c **** 
 1864              		.loc 1 561 5 discriminator 45
 561:C:/Users/stapi/OneDrive/Desktop/GD32VW553/V1_MQTT_OK/GD32VW55X_Wifi_BLE_SDK/GD32VW55x_RELEASE_V1.0.2/MSDK/lwip/libcoap-4.3.4/src\coap_option.c **** 
 1865              		.loc 1 561 5 discriminator 45
 1866 004e 0143     		li	t1,0
 1867              	.LVL223:
 1868              	.L197:
 561:C:/Users/stapi/OneDrive/Desktop/GD32VW553/V1_MQTT_OK/GD32VW55X_Wifi_BLE_SDK/GD32VW55x_RELEASE_V1.0.2/MSDK/lwip/libcoap-4.3.4/src\coap_option.c **** 
 1869              		.loc 1 561 5 discriminator 35
 1870 0050 01EF     		bne	a4,zero,.L211
 561:C:/Users/stapi/OneDrive/Desktop/GD32VW553/V1_MQTT_OK/GD32VW55X_Wifi_BLE_SDK/GD32VW55x_RELEASE_V1.0.2/MSDK/lwip/libcoap-4.3.4/src\coap_option.c **** 
 1871              		.loc 1 561 5 discriminator 37
 1872 0052 63840800 		beq	a7,zero,.L212
 561:C:/Users/stapi/OneDrive/Desktop/GD32VW553/V1_MQTT_OK/GD32VW55X_Wifi_BLE_SDK/GD32VW55x_RELEASE_V1.0.2/MSDK/lwip/libcoap-4.3.4/src\coap_option.c **** 
 1873              		.loc 1 561 5 discriminator 38
 561:C:/Users/stapi/OneDrive/Desktop/GD32VW553/V1_MQTT_OK/GD32VW55X_Wifi_BLE_SDK/GD32VW55x_RELEASE_V1.0.2/MSDK/lwip/libcoap-4.3.4/src\coap_option.c **** 
 1874              		.loc 1 561 5 discriminator 38
 1875 0056 23A00800 		sw	zero,0(a7)
 1876              	.L212:
 561:C:/Users/stapi/OneDrive/Desktop/GD32VW553/V1_MQTT_OK/GD32VW55X_Wifi_BLE_SDK/GD32VW55x_RELEASE_V1.0.2/MSDK/lwip/libcoap-4.3.4/src\coap_option.c **** 
 1877              		.loc 1 561 5 discriminator 40
 561:C:/Users/stapi/OneDrive/Desktop/GD32VW553/V1_MQTT_OK/GD32VW55X_Wifi_BLE_SDK/GD32VW55x_RELEASE_V1.0.2/MSDK/lwip/libcoap-4.3.4/src\coap_option.c **** 
 1878              		.loc 1 561 5 discriminator 40
 1879              	.LVL224:
 561:C:/Users/stapi/OneDrive/Desktop/GD32VW553/V1_MQTT_OK/GD32VW55X_Wifi_BLE_SDK/GD32VW55x_RELEASE_V1.0.2/MSDK/lwip/libcoap-4.3.4/src\coap_option.c **** 
 1880              		.loc 1 561 5 discriminator 40
 1881 005a 0605     		slli	a0,a0,1
 1882              	.LVL225:
 561:C:/Users/stapi/OneDrive/Desktop/GD32VW553/V1_MQTT_OK/GD32VW55X_Wifi_BLE_SDK/GD32VW55x_RELEASE_V1.0.2/MSDK/lwip/libcoap-4.3.4/src\coap_option.c **** 
 1883              		.loc 1 561 5 discriminator 40
 1884 005c E3456EFE 		bgt	t1,t3,.L196
 1885              	.LBE39:
 561:C:/Users/stapi/OneDrive/Desktop/GD32VW553/V1_MQTT_OK/GD32VW55X_Wifi_BLE_SDK/GD32VW55x_RELEASE_V1.0.2/MSDK/lwip/libcoap-4.3.4/src\coap_option.c **** 
 1886              		.loc 1 561 5 discriminator 46
 563:C:/Users/stapi/OneDrive/Desktop/GD32VW553/V1_MQTT_OK/GD32VW55X_Wifi_BLE_SDK/GD32VW55x_RELEASE_V1.0.2/MSDK/lwip/libcoap-4.3.4/src\coap_option.c ****       coap_add_option_internal(pdu, opt->number, opt->length, opt->data);
 1887              		.loc 1 563 5 discriminator 46
 1888 0060 8041     		lw	s0,0(a1)
 1889              	.LVL226:
 1890              	.L213:
 563:C:/Users/stapi/OneDrive/Desktop/GD32VW553/V1_MQTT_OK/GD32VW55X_Wifi_BLE_SDK/GD32VW55x_RELEASE_V1.0.2/MSDK/lwip/libcoap-4.3.4/src\coap_option.c ****       coap_add_option_internal(pdu, opt->number, opt->length, opt->data);
 1891              		.loc 1 563 5 discriminator 1
 1892 0062 21EC     		bne	s0,zero,.L214
 566:C:/Users/stapi/OneDrive/Desktop/GD32VW553/V1_MQTT_OK/GD32VW55X_Wifi_BLE_SDK/GD32VW55x_RELEASE_V1.0.2/MSDK/lwip/libcoap-4.3.4/src\coap_option.c ****   }
 1893              		.loc 1 566 12 is_stmt 0
 1894 0064 0545     		li	a0,1
 1895 0066 D1BF     		j	.L192
 1896              	.LVL227:
 1897              	.L211:
 1898              	.LBB42:
 561:C:/Users/stapi/OneDrive/Desktop/GD32VW553/V1_MQTT_OK/GD32VW55X_Wifi_BLE_SDK/GD32VW55x_RELEASE_V1.0.2/MSDK/lwip/libcoap-4.3.4/src\coap_option.c **** 
 1899              		.loc 1 561 5 is_stmt 1 discriminator 36
 1900 0068 0503     		addi	t1,t1,1
 1901              	.LVL228:
 561:C:/Users/stapi/OneDrive/Desktop/GD32VW553/V1_MQTT_OK/GD32VW55X_Wifi_BLE_SDK/GD32VW55x_RELEASE_V1.0.2/MSDK/lwip/libcoap-4.3.4/src\coap_option.c **** 
 1902              		.loc 1 561 5 discriminator 36
 561:C:/Users/stapi/OneDrive/Desktop/GD32VW553/V1_MQTT_OK/GD32VW55X_Wifi_BLE_SDK/GD32VW55x_RELEASE_V1.0.2/MSDK/lwip/libcoap-4.3.4/src\coap_option.c **** 
 1903              		.loc 1 561 5 discriminator 36
 561:C:/Users/stapi/OneDrive/Desktop/GD32VW553/V1_MQTT_OK/GD32VW55X_Wifi_BLE_SDK/GD32VW55x_RELEASE_V1.0.2/MSDK/lwip/libcoap-4.3.4/src\coap_option.c **** 
 1904              		.loc 1 561 5 discriminator 36
 561:C:/Users/stapi/OneDrive/Desktop/GD32VW553/V1_MQTT_OK/GD32VW55X_Wifi_BLE_SDK/GD32VW55x_RELEASE_V1.0.2/MSDK/lwip/libcoap-4.3.4/src\coap_option.c **** 
 1905              		.loc 1 561 5 discriminator 36
 1906 006a BA87     		mv	a5,a4
 1907 006c 8146     		li	a3,0
 1908              	.LVL229:
 1909              	.L199:
 561:C:/Users/stapi/OneDrive/Desktop/GD32VW553/V1_MQTT_OK/GD32VW55X_Wifi_BLE_SDK/GD32VW55x_RELEASE_V1.0.2/MSDK/lwip/libcoap-4.3.4/src\coap_option.c **** 
 1910              		.loc 1 561 5 discriminator 9
 1911 006e 9C43     		lw	a5,0(a5)
 1912              	.LVL230:
 1913 0070 8506     		addi	a3,a3,1
 1914              	.LVL231:
 561:C:/Users/stapi/OneDrive/Desktop/GD32VW553/V1_MQTT_OK/GD32VW55X_Wifi_BLE_SDK/GD32VW55x_RELEASE_V1.0.2/MSDK/lwip/libcoap-4.3.4/src\coap_option.c **** 
 1915              		.loc 1 561 5 discriminator 9
 561:C:/Users/stapi/OneDrive/Desktop/GD32VW553/V1_MQTT_OK/GD32VW55X_Wifi_BLE_SDK/GD32VW55x_RELEASE_V1.0.2/MSDK/lwip/libcoap-4.3.4/src\coap_option.c **** 
 1916              		.loc 1 561 5 discriminator 9
 561:C:/Users/stapi/OneDrive/Desktop/GD32VW553/V1_MQTT_OK/GD32VW55X_Wifi_BLE_SDK/GD32VW55x_RELEASE_V1.0.2/MSDK/lwip/libcoap-4.3.4/src\coap_option.c **** 
 1917              		.loc 1 561 5 discriminator 9
 561:C:/Users/stapi/OneDrive/Desktop/GD32VW553/V1_MQTT_OK/GD32VW55X_Wifi_BLE_SDK/GD32VW55x_RELEASE_V1.0.2/MSDK/lwip/libcoap-4.3.4/src\coap_option.c **** 
 1918              		.loc 1 561 5 discriminator 9
 1919 0072 99C3     		beq	a5,zero,.L198
 1920              	.LVL232:
 561:C:/Users/stapi/OneDrive/Desktop/GD32VW553/V1_MQTT_OK/GD32VW55X_Wifi_BLE_SDK/GD32VW55x_RELEASE_V1.0.2/MSDK/lwip/libcoap-4.3.4/src\coap_option.c **** 
 1921              		.loc 1 561 5 discriminator 8
 1922 0074 E39DA6FE 		bne	a3,a0,.L199
 1923              	.LVL233:
 1924              	.L198:
 561:C:/Users/stapi/OneDrive/Desktop/GD32VW553/V1_MQTT_OK/GD32VW55X_Wifi_BLE_SDK/GD32VW55x_RELEASE_V1.0.2/MSDK/lwip/libcoap-4.3.4/src\coap_option.c **** 
 1925              		.loc 1 561 5 is_stmt 0 discriminator 28
 1926 0078 2A86     		mv	a2,a0
 1927              	.LVL234:
 1928              	.L207:
 561:C:/Users/stapi/OneDrive/Desktop/GD32VW553/V1_MQTT_OK/GD32VW55X_Wifi_BLE_SDK/GD32VW55x_RELEASE_V1.0.2/MSDK/lwip/libcoap-4.3.4/src\coap_option.c **** 
 1929              		.loc 1 561 5 is_stmt 1 discriminator 28
 1930 007a 89E6     		bne	a3,zero,.L208
 561:C:/Users/stapi/OneDrive/Desktop/GD32VW553/V1_MQTT_OK/GD32VW55X_Wifi_BLE_SDK/GD32VW55x_RELEASE_V1.0.2/MSDK/lwip/libcoap-4.3.4/src\coap_option.c **** 
 1931              		.loc 1 561 5 is_stmt 0 discriminator 30
 1932 007c 11C2     		beq	a2,zero,.L209
 561:C:/Users/stapi/OneDrive/Desktop/GD32VW553/V1_MQTT_OK/GD32VW55X_Wifi_BLE_SDK/GD32VW55x_RELEASE_V1.0.2/MSDK/lwip/libcoap-4.3.4/src\coap_option.c **** 
 1933              		.loc 1 561 5 discriminator 31
 1934 007e 9DE7     		bne	a5,zero,.L204
 1935              	.L209:
 561:C:/Users/stapi/OneDrive/Desktop/GD32VW553/V1_MQTT_OK/GD32VW55X_Wifi_BLE_SDK/GD32VW55x_RELEASE_V1.0.2/MSDK/lwip/libcoap-4.3.4/src\coap_option.c **** 
 1936              		.loc 1 561 5 discriminator 35
 1937 0080 3E87     		mv	a4,a5
 1938              	.LVL235:
 1939 0082 F9B7     		j	.L197
 1940              	.LVL236:
 1941              	.L208:
 561:C:/Users/stapi/OneDrive/Desktop/GD32VW553/V1_MQTT_OK/GD32VW55X_Wifi_BLE_SDK/GD32VW55x_RELEASE_V1.0.2/MSDK/lwip/libcoap-4.3.4/src\coap_option.c **** 
 1942              		.loc 1 561 5 is_stmt 1 discriminator 13
 561:C:/Users/stapi/OneDrive/Desktop/GD32VW553/V1_MQTT_OK/GD32VW55X_Wifi_BLE_SDK/GD32VW55x_RELEASE_V1.0.2/MSDK/lwip/libcoap-4.3.4/src\coap_option.c **** 
 1943              		.loc 1 561 5 discriminator 13
 1944 0084 11C2     		beq	a2,zero,.L203
 561:C:/Users/stapi/OneDrive/Desktop/GD32VW553/V1_MQTT_OK/GD32VW55X_Wifi_BLE_SDK/GD32VW55x_RELEASE_V1.0.2/MSDK/lwip/libcoap-4.3.4/src\coap_option.c **** 
 1945              		.loc 1 561 5 is_stmt 0 discriminator 16
 1946 0086 91EB     		bne	a5,zero,.L202
 1947              	.L203:
 561:C:/Users/stapi/OneDrive/Desktop/GD32VW553/V1_MQTT_OK/GD32VW55X_Wifi_BLE_SDK/GD32VW55x_RELEASE_V1.0.2/MSDK/lwip/libcoap-4.3.4/src\coap_option.c **** 
 1948              		.loc 1 561 5 is_stmt 1 discriminator 20
 1949              	.LVL237:
 561:C:/Users/stapi/OneDrive/Desktop/GD32VW553/V1_MQTT_OK/GD32VW55X_Wifi_BLE_SDK/GD32VW55x_RELEASE_V1.0.2/MSDK/lwip/libcoap-4.3.4/src\coap_option.c **** 
 1950              		.loc 1 561 5 discriminator 20
 561:C:/Users/stapi/OneDrive/Desktop/GD32VW553/V1_MQTT_OK/GD32VW55X_Wifi_BLE_SDK/GD32VW55x_RELEASE_V1.0.2/MSDK/lwip/libcoap-4.3.4/src\coap_option.c **** 
 1951              		.loc 1 561 5 discriminator 20
 561:C:/Users/stapi/OneDrive/Desktop/GD32VW553/V1_MQTT_OK/GD32VW55X_Wifi_BLE_SDK/GD32VW55x_RELEASE_V1.0.2/MSDK/lwip/libcoap-4.3.4/src\coap_option.c **** 
 1952              		.loc 1 561 5 discriminator 20
 561:C:/Users/stapi/OneDrive/Desktop/GD32VW553/V1_MQTT_OK/GD32VW55X_Wifi_BLE_SDK/GD32VW55x_RELEASE_V1.0.2/MSDK/lwip/libcoap-4.3.4/src\coap_option.c **** 
 1953              		.loc 1 561 5 discriminator 20
 1954 0088 3A88     		mv	a6,a4
 1955 008a 1843     		lw	a4,0(a4)
 1956              	.LVL238:
 1957 008c FD16     		addi	a3,a3,-1
 1958              	.LVL239:
 1959              	.L200:
 561:C:/Users/stapi/OneDrive/Desktop/GD32VW553/V1_MQTT_OK/GD32VW55X_Wifi_BLE_SDK/GD32VW55x_RELEASE_V1.0.2/MSDK/lwip/libcoap-4.3.4/src\coap_option.c **** 
 1960              		.loc 1 561 5 discriminator 23
 1961 008e 63830802 		beq	a7,zero,.L205
 561:C:/Users/stapi/OneDrive/Desktop/GD32VW553/V1_MQTT_OK/GD32VW55X_Wifi_BLE_SDK/GD32VW55x_RELEASE_V1.0.2/MSDK/lwip/libcoap-4.3.4/src\coap_option.c **** 
 1962              		.loc 1 561 5 discriminator 24
 561:C:/Users/stapi/OneDrive/Desktop/GD32VW553/V1_MQTT_OK/GD32VW55X_Wifi_BLE_SDK/GD32VW55x_RELEASE_V1.0.2/MSDK/lwip/libcoap-4.3.4/src\coap_option.c **** 
 1963              		.loc 1 561 5 discriminator 24
 1964 0092 23A00801 		sw	a6,0(a7)
 561:C:/Users/stapi/OneDrive/Desktop/GD32VW553/V1_MQTT_OK/GD32VW55X_Wifi_BLE_SDK/GD32VW55x_RELEASE_V1.0.2/MSDK/lwip/libcoap-4.3.4/src\coap_option.c **** 
 1965              		.loc 1 561 5 discriminator 24
 1966              	.L206:
 561:C:/Users/stapi/OneDrive/Desktop/GD32VW553/V1_MQTT_OK/GD32VW55X_Wifi_BLE_SDK/GD32VW55x_RELEASE_V1.0.2/MSDK/lwip/libcoap-4.3.4/src\coap_option.c **** 
 1967              		.loc 1 561 5 is_stmt 0 discriminator 28
 1968 0096 C288     		mv	a7,a6
 1969              	.LVL240:
 1970 0098 CDB7     		j	.L207
 1971              	.LVL241:
 1972              	.L202:
 561:C:/Users/stapi/OneDrive/Desktop/GD32VW553/V1_MQTT_OK/GD32VW55X_Wifi_BLE_SDK/GD32VW55x_RELEASE_V1.0.2/MSDK/lwip/libcoap-4.3.4/src\coap_option.c **** 
 1973              		.loc 1 561 5 is_stmt 1
 1974              	.LBB40:
 1975              	.LBB41:
 542:C:/Users/stapi/OneDrive/Desktop/GD32VW553/V1_MQTT_OK/GD32VW55X_Wifi_BLE_SDK/GD32VW55x_RELEASE_V1.0.2/MSDK/lwip/libcoap-4.3.4/src\coap_option.c ****   coap_optlist_t *o2 = (coap_optlist_t *)b;
 1976              		.loc 1 542 3
 543:C:/Users/stapi/OneDrive/Desktop/GD32VW553/V1_MQTT_OK/GD32VW55X_Wifi_BLE_SDK/GD32VW55x_RELEASE_V1.0.2/MSDK/lwip/libcoap-4.3.4/src\coap_option.c **** 
 1977              		.loc 1 543 3
 545:C:/Users/stapi/OneDrive/Desktop/GD32VW553/V1_MQTT_OK/GD32VW55X_Wifi_BLE_SDK/GD32VW55x_RELEASE_V1.0.2/MSDK/lwip/libcoap-4.3.4/src\coap_option.c ****     return a < b ? -1 : 1;
 1978              		.loc 1 545 3
 545:C:/Users/stapi/OneDrive/Desktop/GD32VW553/V1_MQTT_OK/GD32VW55X_Wifi_BLE_SDK/GD32VW55x_RELEASE_V1.0.2/MSDK/lwip/libcoap-4.3.4/src\coap_option.c ****     return a < b ? -1 : 1;
 1979              		.loc 1 545 6 is_stmt 0
 1980 009a 7DD7     		beq	a4,zero,.L203
 548:C:/Users/stapi/OneDrive/Desktop/GD32VW553/V1_MQTT_OK/GD32VW55X_Wifi_BLE_SDK/GD32VW55x_RELEASE_V1.0.2/MSDK/lwip/libcoap-4.3.4/src\coap_option.c **** }
 1981              		.loc 1 548 3 is_stmt 1
 1982              	.LVL242:
 548:C:/Users/stapi/OneDrive/Desktop/GD32VW553/V1_MQTT_OK/GD32VW55X_Wifi_BLE_SDK/GD32VW55x_RELEASE_V1.0.2/MSDK/lwip/libcoap-4.3.4/src\coap_option.c **** }
 1983              		.loc 1 548 18 is_stmt 0
 1984 009c 03584700 		lhu	a6,4(a4)
 548:C:/Users/stapi/OneDrive/Desktop/GD32VW553/V1_MQTT_OK/GD32VW55X_Wifi_BLE_SDK/GD32VW55x_RELEASE_V1.0.2/MSDK/lwip/libcoap-4.3.4/src\coap_option.c **** }
 1985              		.loc 1 548 31
 1986 00a0 83DE4700 		lhu	t4,4(a5)
 548:C:/Users/stapi/OneDrive/Desktop/GD32VW553/V1_MQTT_OK/GD32VW55X_Wifi_BLE_SDK/GD32VW55x_RELEASE_V1.0.2/MSDK/lwip/libcoap-4.3.4/src\coap_option.c **** }
 1987              		.loc 1 548 10
 1988 00a4 3308D841 		sub	a6,a6,t4
 1989              	.LBE41:
 1990              	.LBE40:
 561:C:/Users/stapi/OneDrive/Desktop/GD32VW553/V1_MQTT_OK/GD32VW55X_Wifi_BLE_SDK/GD32VW55x_RELEASE_V1.0.2/MSDK/lwip/libcoap-4.3.4/src\coap_option.c **** 
 1991              		.loc 1 561 5
 1992 00a8 E35000FF 		ble	a6,zero,.L203
 1993              	.LVL243:
 1994              	.L204:
 561:C:/Users/stapi/OneDrive/Desktop/GD32VW553/V1_MQTT_OK/GD32VW55X_Wifi_BLE_SDK/GD32VW55x_RELEASE_V1.0.2/MSDK/lwip/libcoap-4.3.4/src\coap_option.c **** 
 1995              		.loc 1 561 5 is_stmt 1 discriminator 21
 561:C:/Users/stapi/OneDrive/Desktop/GD32VW553/V1_MQTT_OK/GD32VW55X_Wifi_BLE_SDK/GD32VW55x_RELEASE_V1.0.2/MSDK/lwip/libcoap-4.3.4/src\coap_option.c **** 
 1996              		.loc 1 561 5 discriminator 21
 561:C:/Users/stapi/OneDrive/Desktop/GD32VW553/V1_MQTT_OK/GD32VW55X_Wifi_BLE_SDK/GD32VW55x_RELEASE_V1.0.2/MSDK/lwip/libcoap-4.3.4/src\coap_option.c **** 
 1997              		.loc 1 561 5 discriminator 21
 561:C:/Users/stapi/OneDrive/Desktop/GD32VW553/V1_MQTT_OK/GD32VW55X_Wifi_BLE_SDK/GD32VW55x_RELEASE_V1.0.2/MSDK/lwip/libcoap-4.3.4/src\coap_option.c **** 
 1998              		.loc 1 561 5 discriminator 21
 561:C:/Users/stapi/OneDrive/Desktop/GD32VW553/V1_MQTT_OK/GD32VW55X_Wifi_BLE_SDK/GD32VW55x_RELEASE_V1.0.2/MSDK/lwip/libcoap-4.3.4/src\coap_option.c **** 
 1999              		.loc 1 561 5 discriminator 21
 2000 00ac 3E88     		mv	a6,a5
 2001 00ae 7D16     		addi	a2,a2,-1
 2002              	.LVL244:
 2003 00b0 9C43     		lw	a5,0(a5)
 2004              	.LVL245:
 2005 00b2 F1BF     		j	.L200
 2006              	.L205:
 561:C:/Users/stapi/OneDrive/Desktop/GD32VW553/V1_MQTT_OK/GD32VW55X_Wifi_BLE_SDK/GD32VW55x_RELEASE_V1.0.2/MSDK/lwip/libcoap-4.3.4/src\coap_option.c **** 
 2007              		.loc 1 561 5 discriminator 25
 2008 00b4 23A00501 		sw	a6,0(a1)
 2009 00b8 F9BF     		j	.L206
 2010              	.LVL246:
 2011              	.L214:
 2012              	.LBE42:
 564:C:/Users/stapi/OneDrive/Desktop/GD32VW553/V1_MQTT_OK/GD32VW55X_Wifi_BLE_SDK/GD32VW55x_RELEASE_V1.0.2/MSDK/lwip/libcoap-4.3.4/src\coap_option.c ****     }
 2013              		.loc 1 564 7 discriminator 3
 2014 00ba 5444     		lw	a3,12(s0)
 2015 00bc 1044     		lw	a2,8(s0)
 2016 00be 83554400 		lhu	a1,4(s0)
 2017 00c2 2685     		mv	a0,s1
 2018 00c4 97000000 		call	coap_add_option_internal
 2018      E7800000 
 2019              	.LVL247:
 563:C:/Users/stapi/OneDrive/Desktop/GD32VW553/V1_MQTT_OK/GD32VW55X_Wifi_BLE_SDK/GD32VW55x_RELEASE_V1.0.2/MSDK/lwip/libcoap-4.3.4/src\coap_option.c ****       coap_add_option_internal(pdu, opt->number, opt->length, opt->data);
 2020              		.loc 1 563 5 discriminator 3
 2021 00cc 0040     		lw	s0,0(s0)
 2022              	.LVL248:
 2023 00ce 51BF     		j	.L213
 2024              		.cfi_endproc
 2025              	.LFE50:
 2027              		.section	.rodata.coap_insert_optlist.str1.4,"aMS",@progbits,1
 2028              		.align	2
 2029              	.LC20:
 2030 0000 6F70746C 		.string	"optlist not provided\n"
 2030      69737420 
 2030      6E6F7420 
 2030      70726F76 
 2030      69646564 
 2031              		.section	.text.coap_insert_optlist,"ax",@progbits
 2032              		.align	1
 2033              		.globl	coap_insert_optlist
 2035              	coap_insert_optlist:
 2036              	.LFB51:
 570:C:/Users/stapi/OneDrive/Desktop/GD32VW553/V1_MQTT_OK/GD32VW55X_Wifi_BLE_SDK/GD32VW55x_RELEASE_V1.0.2/MSDK/lwip/libcoap-4.3.4/src\coap_option.c **** 
 571:C:/Users/stapi/OneDrive/Desktop/GD32VW553/V1_MQTT_OK/GD32VW55X_Wifi_BLE_SDK/GD32VW55x_RELEASE_V1.0.2/MSDK/lwip/libcoap-4.3.4/src\coap_option.c **** int
 572:C:/Users/stapi/OneDrive/Desktop/GD32VW553/V1_MQTT_OK/GD32VW55X_Wifi_BLE_SDK/GD32VW55x_RELEASE_V1.0.2/MSDK/lwip/libcoap-4.3.4/src\coap_option.c **** coap_insert_optlist(coap_optlist_t **head, coap_optlist_t *node) {
 2037              		.loc 1 572 66
 2038              		.cfi_startproc
 2039              	.LVL249:
 2040 0000 17030000 		call	t0,__riscv_save_1
 2040      E7020300 
 2041              		.cfi_offset 8, -8
 2042              		.cfi_offset 1, -4
 2043              		.cfi_def_cfa_offset 16
 573:C:/Users/stapi/OneDrive/Desktop/GD32VW553/V1_MQTT_OK/GD32VW55X_Wifi_BLE_SDK/GD32VW55x_RELEASE_V1.0.2/MSDK/lwip/libcoap-4.3.4/src\coap_option.c ****   if (!node) {
 2044              		.loc 1 573 3
 572:C:/Users/stapi/OneDrive/Desktop/GD32VW553/V1_MQTT_OK/GD32VW55X_Wifi_BLE_SDK/GD32VW55x_RELEASE_V1.0.2/MSDK/lwip/libcoap-4.3.4/src\coap_option.c ****   if (!node) {
 2045              		.loc 1 572 66 is_stmt 0
 2046 0008 2E84     		mv	s0,a1
 2047              		.loc 1 573 6
 2048 000a 9DE5     		bne	a1,zero,.L242
 574:C:/Users/stapi/OneDrive/Desktop/GD32VW553/V1_MQTT_OK/GD32VW55X_Wifi_BLE_SDK/GD32VW55x_RELEASE_V1.0.2/MSDK/lwip/libcoap-4.3.4/src\coap_option.c ****     coap_log_debug("optlist not provided\n");
 2049              		.loc 1 574 5 is_stmt 1
 2050              		.loc 1 574 5
 2051 000c 97000000 		call	coap_get_log_level
 2051      E7800000 
 2052              	.LVL250:
 2053 0014 9947     		li	a5,6
 2054 0016 63DBA700 		ble	a0,a5,.L243
 2055              		.loc 1 574 5 discriminator 1
 2056 001a B7050000 		lui	a1,%hi(.LC20)
 2057 001e 93850500 		addi	a1,a1,%lo(.LC20)
 2058 0022 1D45     		li	a0,7
 2059 0024 97000000 		call	coap_log_impl
 2059      E7800000 
 2060              	.LVL251:
 2061              	.L243:
 575:C:/Users/stapi/OneDrive/Desktop/GD32VW553/V1_MQTT_OK/GD32VW55X_Wifi_BLE_SDK/GD32VW55x_RELEASE_V1.0.2/MSDK/lwip/libcoap-4.3.4/src\coap_option.c ****   } else {
 576:C:/Users/stapi/OneDrive/Desktop/GD32VW553/V1_MQTT_OK/GD32VW55X_Wifi_BLE_SDK/GD32VW55x_RELEASE_V1.0.2/MSDK/lwip/libcoap-4.3.4/src\coap_option.c ****     /* must append at the list end to avoid re-ordering of
 577:C:/Users/stapi/OneDrive/Desktop/GD32VW553/V1_MQTT_OK/GD32VW55X_Wifi_BLE_SDK/GD32VW55x_RELEASE_V1.0.2/MSDK/lwip/libcoap-4.3.4/src\coap_option.c ****      * options during sort */
 578:C:/Users/stapi/OneDrive/Desktop/GD32VW553/V1_MQTT_OK/GD32VW55X_Wifi_BLE_SDK/GD32VW55x_RELEASE_V1.0.2/MSDK/lwip/libcoap-4.3.4/src\coap_option.c ****     LL_APPEND((*head), node);
 2062              		.loc 1 578 5 discriminator 8
 579:C:/Users/stapi/OneDrive/Desktop/GD32VW553/V1_MQTT_OK/GD32VW55X_Wifi_BLE_SDK/GD32VW55x_RELEASE_V1.0.2/MSDK/lwip/libcoap-4.3.4/src\coap_option.c ****   }
 580:C:/Users/stapi/OneDrive/Desktop/GD32VW553/V1_MQTT_OK/GD32VW55X_Wifi_BLE_SDK/GD32VW55x_RELEASE_V1.0.2/MSDK/lwip/libcoap-4.3.4/src\coap_option.c **** 
 581:C:/Users/stapi/OneDrive/Desktop/GD32VW553/V1_MQTT_OK/GD32VW55X_Wifi_BLE_SDK/GD32VW55x_RELEASE_V1.0.2/MSDK/lwip/libcoap-4.3.4/src\coap_option.c ****   return node != NULL;
 2063              		.loc 1 581 3 discriminator 8
 582:C:/Users/stapi/OneDrive/Desktop/GD32VW553/V1_MQTT_OK/GD32VW55X_Wifi_BLE_SDK/GD32VW55x_RELEASE_V1.0.2/MSDK/lwip/libcoap-4.3.4/src\coap_option.c **** }
 2064              		.loc 1 582 1 is_stmt 0 discriminator 8
 2065 002c 33358000 		snez	a0,s0
 2066 0030 17030000 		tail	__riscv_restore_1
 2066      67000300 
 2067              		.cfi_remember_state
 2068              		.cfi_restore 8
 2069              		.cfi_restore 1
 2070              		.cfi_def_cfa_offset 0
 2071              	.LVL252:
 2072              	.L242:
 2073              		.cfi_restore_state
 578:C:/Users/stapi/OneDrive/Desktop/GD32VW553/V1_MQTT_OK/GD32VW55X_Wifi_BLE_SDK/GD32VW55x_RELEASE_V1.0.2/MSDK/lwip/libcoap-4.3.4/src\coap_option.c ****   }
 2074              		.loc 1 578 5 is_stmt 1
 2075              	.LBB43:
 578:C:/Users/stapi/OneDrive/Desktop/GD32VW553/V1_MQTT_OK/GD32VW55X_Wifi_BLE_SDK/GD32VW55x_RELEASE_V1.0.2/MSDK/lwip/libcoap-4.3.4/src\coap_option.c ****   }
 2076              		.loc 1 578 5
 578:C:/Users/stapi/OneDrive/Desktop/GD32VW553/V1_MQTT_OK/GD32VW55X_Wifi_BLE_SDK/GD32VW55x_RELEASE_V1.0.2/MSDK/lwip/libcoap-4.3.4/src\coap_option.c ****   }
 2077              		.loc 1 578 5
 2078 0038 23A00500 		sw	zero,0(a1)
 578:C:/Users/stapi/OneDrive/Desktop/GD32VW553/V1_MQTT_OK/GD32VW55X_Wifi_BLE_SDK/GD32VW55x_RELEASE_V1.0.2/MSDK/lwip/libcoap-4.3.4/src\coap_option.c ****   }
 2079              		.loc 1 578 5
 2080 003c 1C41     		lw	a5,0(a0)
 2081 003e 91C7     		beq	a5,zero,.L244
 2082              	.L245:
 2083              	.LVL253:
 578:C:/Users/stapi/OneDrive/Desktop/GD32VW553/V1_MQTT_OK/GD32VW55X_Wifi_BLE_SDK/GD32VW55x_RELEASE_V1.0.2/MSDK/lwip/libcoap-4.3.4/src\coap_option.c ****   }
 2084              		.loc 1 578 5 discriminator 3
 2085 0040 3E87     		mv	a4,a5
 2086 0042 9C43     		lw	a5,0(a5)
 2087              	.LVL254:
 2088 0044 F5FF     		bne	a5,zero,.L245
 578:C:/Users/stapi/OneDrive/Desktop/GD32VW553/V1_MQTT_OK/GD32VW55X_Wifi_BLE_SDK/GD32VW55x_RELEASE_V1.0.2/MSDK/lwip/libcoap-4.3.4/src\coap_option.c ****   }
 2089              		.loc 1 578 5 discriminator 6
 2090 0046 00C3     		sw	s0,0(a4)
 2091 0048 D5B7     		j	.L243
 2092              	.LVL255:
 2093              	.L244:
 578:C:/Users/stapi/OneDrive/Desktop/GD32VW553/V1_MQTT_OK/GD32VW55X_Wifi_BLE_SDK/GD32VW55x_RELEASE_V1.0.2/MSDK/lwip/libcoap-4.3.4/src\coap_option.c ****   }
 2094              		.loc 1 578 5 discriminator 2
 2095 004a 0CC1     		sw	a1,0(a0)
 2096 004c C5B7     		j	.L243
 2097              	.LBE43:
 2098              		.cfi_endproc
 2099              	.LFE51:
 2101              		.section	.text.coap_delete_optlist,"ax",@progbits
 2102              		.align	1
 2103              		.globl	coap_delete_optlist
 2105              	coap_delete_optlist:
 2106              	.LFB53:
 583:C:/Users/stapi/OneDrive/Desktop/GD32VW553/V1_MQTT_OK/GD32VW55X_Wifi_BLE_SDK/GD32VW55x_RELEASE_V1.0.2/MSDK/lwip/libcoap-4.3.4/src\coap_option.c **** 
 584:C:/Users/stapi/OneDrive/Desktop/GD32VW553/V1_MQTT_OK/GD32VW55X_Wifi_BLE_SDK/GD32VW55x_RELEASE_V1.0.2/MSDK/lwip/libcoap-4.3.4/src\coap_option.c **** static int
 585:C:/Users/stapi/OneDrive/Desktop/GD32VW553/V1_MQTT_OK/GD32VW55X_Wifi_BLE_SDK/GD32VW55x_RELEASE_V1.0.2/MSDK/lwip/libcoap-4.3.4/src\coap_option.c **** coap_internal_delete(coap_optlist_t *node) {
 586:C:/Users/stapi/OneDrive/Desktop/GD32VW553/V1_MQTT_OK/GD32VW55X_Wifi_BLE_SDK/GD32VW55x_RELEASE_V1.0.2/MSDK/lwip/libcoap-4.3.4/src\coap_option.c ****   if (node) {
 587:C:/Users/stapi/OneDrive/Desktop/GD32VW553/V1_MQTT_OK/GD32VW55X_Wifi_BLE_SDK/GD32VW55x_RELEASE_V1.0.2/MSDK/lwip/libcoap-4.3.4/src\coap_option.c ****     coap_free_type(COAP_OPTLIST, node);
 588:C:/Users/stapi/OneDrive/Desktop/GD32VW553/V1_MQTT_OK/GD32VW55X_Wifi_BLE_SDK/GD32VW55x_RELEASE_V1.0.2/MSDK/lwip/libcoap-4.3.4/src\coap_option.c ****   }
 589:C:/Users/stapi/OneDrive/Desktop/GD32VW553/V1_MQTT_OK/GD32VW55X_Wifi_BLE_SDK/GD32VW55x_RELEASE_V1.0.2/MSDK/lwip/libcoap-4.3.4/src\coap_option.c ****   return 1;
 590:C:/Users/stapi/OneDrive/Desktop/GD32VW553/V1_MQTT_OK/GD32VW55X_Wifi_BLE_SDK/GD32VW55x_RELEASE_V1.0.2/MSDK/lwip/libcoap-4.3.4/src\coap_option.c **** }
 591:C:/Users/stapi/OneDrive/Desktop/GD32VW553/V1_MQTT_OK/GD32VW55X_Wifi_BLE_SDK/GD32VW55x_RELEASE_V1.0.2/MSDK/lwip/libcoap-4.3.4/src\coap_option.c **** 
 592:C:/Users/stapi/OneDrive/Desktop/GD32VW553/V1_MQTT_OK/GD32VW55X_Wifi_BLE_SDK/GD32VW55x_RELEASE_V1.0.2/MSDK/lwip/libcoap-4.3.4/src\coap_option.c **** void
 593:C:/Users/stapi/OneDrive/Desktop/GD32VW553/V1_MQTT_OK/GD32VW55X_Wifi_BLE_SDK/GD32VW55x_RELEASE_V1.0.2/MSDK/lwip/libcoap-4.3.4/src\coap_option.c **** coap_delete_optlist(coap_optlist_t *queue) {
 2107              		.loc 1 593 44
 2108              		.cfi_startproc
 2109              	.LVL256:
 594:C:/Users/stapi/OneDrive/Desktop/GD32VW553/V1_MQTT_OK/GD32VW55X_Wifi_BLE_SDK/GD32VW55x_RELEASE_V1.0.2/MSDK/lwip/libcoap-4.3.4/src\coap_option.c ****   coap_optlist_t *elt, *tmp;
 2110              		.loc 1 594 3
 595:C:/Users/stapi/OneDrive/Desktop/GD32VW553/V1_MQTT_OK/GD32VW55X_Wifi_BLE_SDK/GD32VW55x_RELEASE_V1.0.2/MSDK/lwip/libcoap-4.3.4/src\coap_option.c **** 
 596:C:/Users/stapi/OneDrive/Desktop/GD32VW553/V1_MQTT_OK/GD32VW55X_Wifi_BLE_SDK/GD32VW55x_RELEASE_V1.0.2/MSDK/lwip/libcoap-4.3.4/src\coap_option.c ****   if (!queue)
 2111              		.loc 1 596 3
 2112              		.loc 1 596 6 is_stmt 0
 2113 0000 15C1     		beq	a0,zero,.L256
 593:C:/Users/stapi/OneDrive/Desktop/GD32VW553/V1_MQTT_OK/GD32VW55X_Wifi_BLE_SDK/GD32VW55x_RELEASE_V1.0.2/MSDK/lwip/libcoap-4.3.4/src\coap_option.c ****   coap_optlist_t *elt, *tmp;
 2114              		.loc 1 593 44
 2115 0002 17030000 		call	t0,__riscv_save_1
 2115      E7020300 
 2116              		.cfi_offset 8, -8
 2117              		.cfi_offset 1, -4
 2118              		.cfi_def_cfa_offset 16
 2119 000a 2A84     		mv	s0,a0
 2120              	.LVL257:
 2121              	.L250:
 2122 000c A285     		mv	a1,s0
 597:C:/Users/stapi/OneDrive/Desktop/GD32VW553/V1_MQTT_OK/GD32VW55X_Wifi_BLE_SDK/GD32VW55x_RELEASE_V1.0.2/MSDK/lwip/libcoap-4.3.4/src\coap_option.c ****     return;
 598:C:/Users/stapi/OneDrive/Desktop/GD32VW553/V1_MQTT_OK/GD32VW55X_Wifi_BLE_SDK/GD32VW55x_RELEASE_V1.0.2/MSDK/lwip/libcoap-4.3.4/src\coap_option.c **** 
 599:C:/Users/stapi/OneDrive/Desktop/GD32VW553/V1_MQTT_OK/GD32VW55X_Wifi_BLE_SDK/GD32VW55x_RELEASE_V1.0.2/MSDK/lwip/libcoap-4.3.4/src\coap_option.c ****   LL_FOREACH_SAFE(queue, elt, tmp) {
 2123              		.loc 1 599 3 discriminator 3
 2124 000e 0040     		lw	s0,0(s0)
 2125              	.LVL258:
 600:C:/Users/stapi/OneDrive/Desktop/GD32VW553/V1_MQTT_OK/GD32VW55X_Wifi_BLE_SDK/GD32VW55x_RELEASE_V1.0.2/MSDK/lwip/libcoap-4.3.4/src\coap_option.c ****     coap_internal_delete(elt);
 2126              		.loc 1 600 5 is_stmt 1 discriminator 3
 2127              	.LBB46:
 2128              	.LBB47:
 586:C:/Users/stapi/OneDrive/Desktop/GD32VW553/V1_MQTT_OK/GD32VW55X_Wifi_BLE_SDK/GD32VW55x_RELEASE_V1.0.2/MSDK/lwip/libcoap-4.3.4/src\coap_option.c ****     coap_free_type(COAP_OPTLIST, node);
 2129              		.loc 1 586 3 discriminator 3
 587:C:/Users/stapi/OneDrive/Desktop/GD32VW553/V1_MQTT_OK/GD32VW55X_Wifi_BLE_SDK/GD32VW55x_RELEASE_V1.0.2/MSDK/lwip/libcoap-4.3.4/src\coap_option.c ****   }
 2130              		.loc 1 587 5 discriminator 3
 2131 0010 3545     		li	a0,13
 2132 0012 97000000 		call	coap_free_type
 2132      E7800000 
 2133              	.LVL259:
 589:C:/Users/stapi/OneDrive/Desktop/GD32VW553/V1_MQTT_OK/GD32VW55X_Wifi_BLE_SDK/GD32VW55x_RELEASE_V1.0.2/MSDK/lwip/libcoap-4.3.4/src\coap_option.c **** }
 2134              		.loc 1 589 3 discriminator 3
 2135              	.LBE47:
 2136              	.LBE46:
 599:C:/Users/stapi/OneDrive/Desktop/GD32VW553/V1_MQTT_OK/GD32VW55X_Wifi_BLE_SDK/GD32VW55x_RELEASE_V1.0.2/MSDK/lwip/libcoap-4.3.4/src\coap_option.c ****     coap_internal_delete(elt);
 2137              		.loc 1 599 3 discriminator 3
 2138 001a 6DF8     		bne	s0,zero,.L250
 601:C:/Users/stapi/OneDrive/Desktop/GD32VW553/V1_MQTT_OK/GD32VW55X_Wifi_BLE_SDK/GD32VW55x_RELEASE_V1.0.2/MSDK/lwip/libcoap-4.3.4/src\coap_option.c ****   }
 602:C:/Users/stapi/OneDrive/Desktop/GD32VW553/V1_MQTT_OK/GD32VW55X_Wifi_BLE_SDK/GD32VW55x_RELEASE_V1.0.2/MSDK/lwip/libcoap-4.3.4/src\coap_option.c **** }
 2139              		.loc 1 602 1 is_stmt 0
 2140 001c 17030000 		tail	__riscv_restore_1
 2140      67000300 
 2141              		.cfi_restore 8
 2142              		.cfi_restore 1
 2143              		.cfi_def_cfa_offset 0
 2144              	.LVL260:
 2145              	.L256:
 2146 0024 8280     		ret
 2147              		.cfi_endproc
 2148              	.LFE53:
 2150              		.section	.rodata.__func__.0,"a"
 2151              		.align	2
 2152              		.set	.LANCHOR3,. + 0
 2155              	__func__.0:
 2156 0000 636F6170 		.string	"coap_opt_encode"
 2156      5F6F7074 
 2156      5F656E63 
 2156      6F646500 
 2157              		.section	.rodata.__func__.1,"a"
 2158              		.align	2
 2159              		.set	.LANCHOR2,. + 0
 2162              	__func__.1:
 2163 0000 636F6170 		.string	"coap_opt_setheader"
 2163      5F6F7074 
 2163      5F736574 
 2163      68656164 
 2163      657200
 2164              		.section	.rodata.__func__.3,"a"
 2165              		.align	2
 2166              		.set	.LANCHOR4,. + 0
 2169              	__func__.3:
 2170 0000 636F6170 		.string	"coap_option_next"
 2170      5F6F7074 
 2170      696F6E5F 
 2170      6E657874 
 2170      00
 2171              		.section	.rodata.__func__.4,"a"
 2172              		.align	2
 2173              		.set	.LANCHOR1,. + 0
 2176              	__func__.4:
 2177 0000 636F6170 		.string	"coap_option_iterator_init"
 2177      5F6F7074 
 2177      696F6E5F 
 2177      69746572 
 2177      61746F72 
 2178              		.section	.rodata.__func__.5,"a"
 2179              		.align	2
 2180              		.set	.LANCHOR0,. + 0
 2183              	__func__.5:
 2184 0000 636F6170 		.string	"coap_opt_parse"
 2184      5F6F7074 
 2184      5F706172 
 2184      736500
 2185              		.text
 2186              	.Letext0:
 2187              		.file 2 "c:\\users\\stapi\\onedrive\\desktop\\gd32vw553\\embeddedbuilder_v1.4.7.26843\\tools\\nucl
 2188              		.file 3 "c:\\users\\stapi\\onedrive\\desktop\\gd32vw553\\embeddedbuilder_v1.4.7.26843\\tools\\nucl
 2189              		.file 4 "c:\\users\\stapi\\onedrive\\desktop\\gd32vw553\\embeddedbuilder_v1.4.7.26843\\tools\\nucl
 2190              		.file 5 "c:\\users\\stapi\\onedrive\\desktop\\gd32vw553\\embeddedbuilder_v1.4.7.26843\\tools\\nucl
 2191              		.file 6 "c:\\users\\stapi\\onedrive\\desktop\\gd32vw553\\embeddedbuilder_v1.4.7.26843\\tools\\nucl
 2192              		.file 7 "..\\..\\..\\..\\lwip\\lwip-2.1.2\\src\\include/lwip/arch.h"
 2193              		.file 8 "..\\..\\..\\..\\lwip\\libcoap-4.3.4\\include/coap3/coap_forward_decls.h"
 2194              		.file 9 "..\\..\\..\\..\\lwip\\libcoap-4.3.4\\include/coap3/coap_address.h"
 2195              		.file 10 "..\\..\\..\\..\\lwip\\libcoap-4.3.4\\include/coap3/coap_async_internal.h"
 2196              		.file 11 "..\\..\\..\\..\\lwip\\libcoap-4.3.4\\include/coap3/coap_block_internal.h"
 2197              		.file 12 "..\\..\\..\\..\\lwip\\libcoap-4.3.4\\include/coap3/coap_cache_internal.h"
 2198              		.file 13 "..\\..\\..\\..\\lwip\\libcoap-4.3.4\\include/coap3/coap_io_internal.h"
 2199              		.file 14 "..\\..\\..\\..\\lwip\\libcoap-4.3.4\\include/coap3/coap_net_internal.h"
 2200              		.file 15 "..\\..\\..\\..\\lwip\\libcoap-4.3.4\\include/coap3/coap_pdu_internal.h"
 2201              		.file 16 "..\\..\\..\\..\\lwip\\libcoap-4.3.4\\include/coap3/coap_resource_internal.h"
 2202              		.file 17 "..\\..\\..\\..\\lwip\\libcoap-4.3.4\\include/coap3/coap_session_internal.h"
 2203              		.file 18 "..\\..\\..\\..\\lwip\\libcoap-4.3.4\\include/coap3/coap_subscribe_internal.h"
 2204              		.file 19 "..\\..\\..\\..\\lwip\\libcoap-4.3.4\\include/coap3/coap_option.h"
 2205              		.file 20 "..\\..\\..\\..\\lwip\\libcoap-4.3.4\\include/coap3/coap_str.h"
 2206              		.file 21 "..\\..\\..\\..\\lwip\\lwip-2.1.2\\src\\include/lwip/pbuf.h"
 2207              		.file 22 "..\\..\\..\\..\\lwip\\libcoap-4.3.4\\include/coap3/coap_pdu.h"
 2208              		.file 23 "..\\..\\..\\..\\lwip\\lwip-2.1.2\\src\\include/lwip/ip4_addr.h"
 2209              		.file 24 "..\\..\\..\\..\\lwip\\lwip-2.1.2\\src\\include/lwip/ip_addr.h"
 2210              		.file 25 "..\\..\\..\\..\\lwip\\lwip-2.1.2\\src\\include/lwip/sockets.h"
 2211              		.file 26 "..\\..\\..\\..\\lwip\\libcoap-4.3.4\\include/coap3/coap_io.h"
 2212              		.file 27 "..\\..\\..\\..\\lwip\\libcoap-4.3.4\\include/coap3/coap_time.h"
 2213              		.file 28 "..\\..\\..\\..\\lwip\\libcoap-4.3.4\\include/coap3/coap_dtls.h"
 2214              		.file 29 "..\\..\\..\\..\\lwip\\libcoap-4.3.4\\include/coap3/coap_event.h"
 2215              		.file 30 "..\\..\\..\\..\\lwip\\libcoap-4.3.4\\include/coap3/coap_session.h"
 2216              		.file 31 "..\\..\\..\\..\\lwip\\libcoap-4.3.4\\include/coap3/coap_debug.h"
 2217              		.file 32 "..\\..\\..\\..\\lwip\\libcoap-4.3.4\\include/coap3/coap_net.h"
 2218              		.file 33 "..\\..\\..\\..\\lwip\\libcoap-4.3.4\\include/coap3/coap_block.h"
 2219              		.file 34 "..\\..\\..\\..\\lwip\\libcoap-4.3.4\\include/coap3/coap_cache.h"
 2220              		.file 35 "..\\..\\..\\..\\lwip\\libcoap-4.3.4\\include/coap3/coap_mem.h"
 2221              		.file 36 "..\\..\\..\\..\\lwip\\libcoap-4.3.4\\include/coap3/coap_resource.h"
 2222              		.file 37 "..\\..\\..\\..\\lwip\\libcoap-4.3.4\\include/coap3/coap_subscribe.h"
 2223              		.file 38 "..\\..\\..\\..\\lwip\\libcoap-4.3.4\\include/coap3/coap_uthash_internal.h"
 2224              		.file 39 "..\\..\\..\\..\\lwip\\libcoap-4.3.4\\include/coap3/coap_layers_internal.h"
 2225              		.file 40 "<built-in>"
 2226              		.file 41 "..\\..\\..\\..\\lwip\\libcoap-4.3.4\\include/coap3/coap_encode.h"
 2227              		.file 42 "c:\\users\\stapi\\onedrive\\desktop\\gd32vw553\\embeddedbuilder_v1.4.7.26843\\tools\\nuc
DEFINED SYMBOLS
                            *ABS*:0000000000000000 coap_option.c
C:\Users\stapi\AppData\Local\Temp\ccUNtjmY.s:12     .text.coap_option_filter_op:0000000000000000 coap_option_filter_op
C:\Users\stapi\AppData\Local\Temp\ccUNtjmY.s:16     .text.coap_option_filter_op:0000000000000000 .L0 
C:\Users\stapi\AppData\Local\Temp\ccUNtjmY.s:18     .text.coap_option_filter_op:0000000000000000 .L0 
C:\Users\stapi\AppData\Local\Temp\ccUNtjmY.s:19     .text.coap_option_filter_op:0000000000000008 .L0 
C:\Users\stapi\AppData\Local\Temp\ccUNtjmY.s:20     .text.coap_option_filter_op:0000000000000008 .L0 
C:\Users\stapi\AppData\Local\Temp\ccUNtjmY.s:21     .text.coap_option_filter_op:0000000000000008 .L0 
C:\Users\stapi\AppData\Local\Temp\ccUNtjmY.s:22     .text.coap_option_filter_op:0000000000000008 .L0 
C:\Users\stapi\AppData\Local\Temp\ccUNtjmY.s:25     .text.coap_option_filter_op:0000000000000008 .L0 
C:\Users\stapi\AppData\Local\Temp\ccUNtjmY.s:26     .text.coap_option_filter_op:0000000000000008 .L0 
C:\Users\stapi\AppData\Local\Temp\ccUNtjmY.s:27     .text.coap_option_filter_op:0000000000000008 .L0 
C:\Users\stapi\AppData\Local\Temp\ccUNtjmY.s:28     .text.coap_option_filter_op:0000000000000008 .L0 
C:\Users\stapi\AppData\Local\Temp\ccUNtjmY.s:29     .text.coap_option_filter_op:0000000000000008 .L0 
C:\Users\stapi\AppData\Local\Temp\ccUNtjmY.s:30     .text.coap_option_filter_op:0000000000000008 .L0 
C:\Users\stapi\AppData\Local\Temp\ccUNtjmY.s:32     .text.coap_option_filter_op:000000000000000c .L0 
C:\Users\stapi\AppData\Local\Temp\ccUNtjmY.s:34     .text.coap_option_filter_op:0000000000000010 .L0 
C:\Users\stapi\AppData\Local\Temp\ccUNtjmY.s:37     .text.coap_option_filter_op:0000000000000014 .L0 
C:\Users\stapi\AppData\Local\Temp\ccUNtjmY.s:40     .text.coap_option_filter_op:0000000000000018 .L0 
C:\Users\stapi\AppData\Local\Temp\ccUNtjmY.s:41     .text.coap_option_filter_op:0000000000000018 .L0 
C:\Users\stapi\AppData\Local\Temp\ccUNtjmY.s:42     .text.coap_option_filter_op:0000000000000018 .L0 
C:\Users\stapi\AppData\Local\Temp\ccUNtjmY.s:44     .text.coap_option_filter_op:000000000000001c .L0 
C:\Users\stapi\AppData\Local\Temp\ccUNtjmY.s:46     .text.coap_option_filter_op:000000000000001e .L0 
C:\Users\stapi\AppData\Local\Temp\ccUNtjmY.s:51     .text.coap_option_filter_op:0000000000000026 .L0 
C:\Users\stapi\AppData\Local\Temp\ccUNtjmY.s:52     .text.coap_option_filter_op:0000000000000026 .L0 
C:\Users\stapi\AppData\Local\Temp\ccUNtjmY.s:53     .text.coap_option_filter_op:0000000000000026 .L0 
C:\Users\stapi\AppData\Local\Temp\ccUNtjmY.s:54     .text.coap_option_filter_op:0000000000000026 .L0 
C:\Users\stapi\AppData\Local\Temp\ccUNtjmY.s:57     .text.coap_option_filter_op:000000000000002c .L0 
C:\Users\stapi\AppData\Local\Temp\ccUNtjmY.s:59     .text.coap_option_filter_op:0000000000000030 .L0 
C:\Users\stapi\AppData\Local\Temp\ccUNtjmY.s:62     .text.coap_option_filter_op:0000000000000032 .L0 
C:\Users\stapi\AppData\Local\Temp\ccUNtjmY.s:64     .text.coap_option_filter_op:0000000000000036 .L0 
C:\Users\stapi\AppData\Local\Temp\ccUNtjmY.s:68     .text.coap_option_filter_op:0000000000000038 .L0 
C:\Users\stapi\AppData\Local\Temp\ccUNtjmY.s:69     .text.coap_option_filter_op:0000000000000038 .L0 
C:\Users\stapi\AppData\Local\Temp\ccUNtjmY.s:70     .text.coap_option_filter_op:0000000000000038 .L0 
C:\Users\stapi\AppData\Local\Temp\ccUNtjmY.s:72     .text.coap_option_filter_op:000000000000003a .L0 
C:\Users\stapi\AppData\Local\Temp\ccUNtjmY.s:74     .text.coap_option_filter_op:000000000000003e .L0 
C:\Users\stapi\AppData\Local\Temp\ccUNtjmY.s:75     .text.coap_option_filter_op:000000000000003e .L0 
C:\Users\stapi\AppData\Local\Temp\ccUNtjmY.s:80     .text.coap_option_filter_op:0000000000000046 .L0 
C:\Users\stapi\AppData\Local\Temp\ccUNtjmY.s:81     .text.coap_option_filter_op:000000000000004e .L0 
C:\Users\stapi\AppData\Local\Temp\ccUNtjmY.s:82     .text.coap_option_filter_op:000000000000004e .L0 
C:\Users\stapi\AppData\Local\Temp\ccUNtjmY.s:83     .text.coap_option_filter_op:000000000000004e .L0 
C:\Users\stapi\AppData\Local\Temp\ccUNtjmY.s:84     .text.coap_option_filter_op:000000000000004e .L0 
C:\Users\stapi\AppData\Local\Temp\ccUNtjmY.s:85     .text.coap_option_filter_op:000000000000004e .L0 
C:\Users\stapi\AppData\Local\Temp\ccUNtjmY.s:88     .text.coap_option_filter_op:000000000000004e .L0 
C:\Users\stapi\AppData\Local\Temp\ccUNtjmY.s:93     .text.coap_option_filter_op:0000000000000056 .L0 
C:\Users\stapi\AppData\Local\Temp\ccUNtjmY.s:97     .text.coap_option_filter_op:0000000000000058 .L0 
C:\Users\stapi\AppData\Local\Temp\ccUNtjmY.s:98     .text.coap_option_filter_op:0000000000000058 .L0 
C:\Users\stapi\AppData\Local\Temp\ccUNtjmY.s:101    .text.coap_option_filter_op:000000000000005e .L0 
C:\Users\stapi\AppData\Local\Temp\ccUNtjmY.s:103    .text.coap_option_filter_op:0000000000000062 .L0 
C:\Users\stapi\AppData\Local\Temp\ccUNtjmY.s:106    .text.coap_option_filter_op:0000000000000066 .L0 
C:\Users\stapi\AppData\Local\Temp\ccUNtjmY.s:107    .text.coap_option_filter_op:0000000000000066 .L0 
C:\Users\stapi\AppData\Local\Temp\ccUNtjmY.s:110    .text.coap_option_filter_op:0000000000000068 .L0 
C:\Users\stapi\AppData\Local\Temp\ccUNtjmY.s:113    .text.coap_option_filter_op:000000000000006a .L0 
C:\Users\stapi\AppData\Local\Temp\ccUNtjmY.s:116    .text.coap_option_filter_op:000000000000006e .L0 
C:\Users\stapi\AppData\Local\Temp\ccUNtjmY.s:117    .text.coap_option_filter_op:000000000000006e .L0 
C:\Users\stapi\AppData\Local\Temp\ccUNtjmY.s:119    .text.coap_option_filter_op:0000000000000072 .L0 
C:\Users\stapi\AppData\Local\Temp\ccUNtjmY.s:123    .text.coap_option_filter_op:0000000000000076 .L0 
C:\Users\stapi\AppData\Local\Temp\ccUNtjmY.s:124    .text.coap_option_filter_op:0000000000000076 .L0 
C:\Users\stapi\AppData\Local\Temp\ccUNtjmY.s:127    .text.coap_option_filter_op:0000000000000078 .L0 
C:\Users\stapi\AppData\Local\Temp\ccUNtjmY.s:132    .text.coap_option_filter_op:000000000000007e .L0 
C:\Users\stapi\AppData\Local\Temp\ccUNtjmY.s:137    .text.coap_option_filter_op:0000000000000082 .L0 
C:\Users\stapi\AppData\Local\Temp\ccUNtjmY.s:142    .text.coap_option_filter_op:0000000000000086 .L0 
C:\Users\stapi\AppData\Local\Temp\ccUNtjmY.s:143    .text.coap_option_filter_op:0000000000000086 .L0 
C:\Users\stapi\AppData\Local\Temp\ccUNtjmY.s:148    .text.coap_option_filter_op:0000000000000092 .L0 
C:\Users\stapi\AppData\Local\Temp\ccUNtjmY.s:149    .text.coap_option_filter_op:0000000000000092 .L0 
C:\Users\stapi\AppData\Local\Temp\ccUNtjmY.s:152    .text.coap_option_filter_op:0000000000000094 .L0 
C:\Users\stapi\AppData\Local\Temp\ccUNtjmY.s:153    .text.coap_option_filter_op:0000000000000094 .L0 
C:\Users\stapi\AppData\Local\Temp\ccUNtjmY.s:154    .text.coap_option_filter_op:0000000000000094 .L0 
C:\Users\stapi\AppData\Local\Temp\ccUNtjmY.s:156    .text.coap_option_filter_op:0000000000000098 .L0 
C:\Users\stapi\AppData\Local\Temp\ccUNtjmY.s:158    .text.coap_option_filter_op:000000000000009c .L0 
C:\Users\stapi\AppData\Local\Temp\ccUNtjmY.s:160    .text.coap_option_filter_op:00000000000000a0 .L0 
C:\Users\stapi\AppData\Local\Temp\ccUNtjmY.s:161    .text.coap_option_filter_op:00000000000000a0 .L0 
C:\Users\stapi\AppData\Local\Temp\ccUNtjmY.s:166    .text.coap_option_filter_op:00000000000000a8 .L0 
C:\Users\stapi\AppData\Local\Temp\ccUNtjmY.s:167    .text.coap_option_filter_op:00000000000000a8 .L0 
C:\Users\stapi\AppData\Local\Temp\ccUNtjmY.s:169    .text.coap_option_filter_op:00000000000000ac .L0 
C:\Users\stapi\AppData\Local\Temp\ccUNtjmY.s:171    .text.coap_option_filter_op:00000000000000ae .L0 
C:\Users\stapi\AppData\Local\Temp\ccUNtjmY.s:174    .text.coap_option_filter_op:00000000000000b6 .L0 
C:\Users\stapi\AppData\Local\Temp\ccUNtjmY.s:175    .text.coap_option_filter_op:00000000000000b6 .L0 
C:\Users\stapi\AppData\Local\Temp\ccUNtjmY.s:179    .text.coap_option_filter_op:00000000000000b8 .L0 
C:\Users\stapi\AppData\Local\Temp\ccUNtjmY.s:180    .text.coap_option_filter_op:00000000000000b8 .L0 
C:\Users\stapi\AppData\Local\Temp\ccUNtjmY.s:183    .text.coap_option_filter_op:00000000000000ba .L0 
C:\Users\stapi\AppData\Local\Temp\ccUNtjmY.s:185    .text.coap_option_filter_op:00000000000000c0 .L0 
C:\Users\stapi\AppData\Local\Temp\ccUNtjmY.s:214    .text.coap_opt_parse:0000000000000000 coap_opt_parse
C:\Users\stapi\AppData\Local\Temp\ccUNtjmY.s:217    .text.coap_opt_parse:0000000000000000 .L0 
C:\Users\stapi\AppData\Local\Temp\ccUNtjmY.s:219    .text.coap_opt_parse:0000000000000000 .L0 
C:\Users\stapi\AppData\Local\Temp\ccUNtjmY.s:220    .text.coap_opt_parse:0000000000000008 .L0 
C:\Users\stapi\AppData\Local\Temp\ccUNtjmY.s:221    .text.coap_opt_parse:0000000000000008 .L0 
C:\Users\stapi\AppData\Local\Temp\ccUNtjmY.s:224    .text.coap_opt_parse:0000000000000008 .L0 
C:\Users\stapi\AppData\Local\Temp\ccUNtjmY.s:225    .text.coap_opt_parse:0000000000000008 .L0 
C:\Users\stapi\AppData\Local\Temp\ccUNtjmY.s:227    .text.coap_opt_parse:000000000000000a .L0 
C:\Users\stapi\AppData\Local\Temp\ccUNtjmY.s:236    .text.coap_opt_parse:000000000000001e .L0 
C:\Users\stapi\AppData\Local\Temp\ccUNtjmY.s:243    .text.coap_opt_parse:000000000000002e .L0 
C:\Users\stapi\AppData\Local\Temp\ccUNtjmY.s:245    .text.coap_opt_parse:0000000000000030 .L0 
C:\Users\stapi\AppData\Local\Temp\ccUNtjmY.s:256    .text.coap_opt_parse:0000000000000046 .L0 
C:\Users\stapi\AppData\Local\Temp\ccUNtjmY.s:257    .text.coap_opt_parse:0000000000000046 .L0 
C:\Users\stapi\AppData\Local\Temp\ccUNtjmY.s:263    .text.coap_opt_parse:0000000000000048 .L0 
C:\Users\stapi\AppData\Local\Temp\ccUNtjmY.s:268    .text.coap_opt_parse:000000000000004a .L0 
C:\Users\stapi\AppData\Local\Temp\ccUNtjmY.s:269    .text.coap_opt_parse:0000000000000052 .L0 
C:\Users\stapi\AppData\Local\Temp\ccUNtjmY.s:270    .text.coap_opt_parse:0000000000000052 .L0 
C:\Users\stapi\AppData\Local\Temp\ccUNtjmY.s:271    .text.coap_opt_parse:0000000000000052 .L0 
C:\Users\stapi\AppData\Local\Temp\ccUNtjmY.s:274    .text.coap_opt_parse:0000000000000052 .L0 
C:\Users\stapi\AppData\Local\Temp\ccUNtjmY.s:278    .text.coap_opt_parse:0000000000000052 .L0 
C:\Users\stapi\AppData\Local\Temp\ccUNtjmY.s:279    .text.coap_opt_parse:0000000000000052 .L0 
C:\Users\stapi\AppData\Local\Temp\ccUNtjmY.s:281    .text.coap_opt_parse:0000000000000056 .L0 
C:\Users\stapi\AppData\Local\Temp\ccUNtjmY.s:283    .text.coap_opt_parse:0000000000000058 .L0 
C:\Users\stapi\AppData\Local\Temp\ccUNtjmY.s:286    .text.coap_opt_parse:000000000000005e .L0 
C:\Users\stapi\AppData\Local\Temp\ccUNtjmY.s:289    .text.coap_opt_parse:0000000000000064 .L0 
C:\Users\stapi\AppData\Local\Temp\ccUNtjmY.s:291    .text.coap_opt_parse:0000000000000066 .L0 
C:\Users\stapi\AppData\Local\Temp\ccUNtjmY.s:300    .text.coap_opt_parse:000000000000007a .L0 
C:\Users\stapi\AppData\Local\Temp\ccUNtjmY.s:301    .text.coap_opt_parse:000000000000007a .L0 
C:\Users\stapi\AppData\Local\Temp\ccUNtjmY.s:305    .text.coap_opt_parse:0000000000000086 .L0 
C:\Users\stapi\AppData\Local\Temp\ccUNtjmY.s:306    .text.coap_opt_parse:0000000000000086 .L0 
C:\Users\stapi\AppData\Local\Temp\ccUNtjmY.s:311    .text.coap_opt_parse:0000000000000094 .L0 
C:\Users\stapi\AppData\Local\Temp\ccUNtjmY.s:316    .text.coap_opt_parse:000000000000009c .L0 
C:\Users\stapi\AppData\Local\Temp\ccUNtjmY.s:323    .text.coap_opt_parse:00000000000000a8 .L0 
C:\Users\stapi\AppData\Local\Temp\ccUNtjmY.s:324    .text.coap_opt_parse:00000000000000a8 .L0 
C:\Users\stapi\AppData\Local\Temp\ccUNtjmY.s:325    .text.coap_opt_parse:00000000000000a8 .L0 
C:\Users\stapi\AppData\Local\Temp\ccUNtjmY.s:328    .text.coap_opt_parse:00000000000000aa .L0 
C:\Users\stapi\AppData\Local\Temp\ccUNtjmY.s:329    .text.coap_opt_parse:00000000000000aa .L0 
C:\Users\stapi\AppData\Local\Temp\ccUNtjmY.s:330    .text.coap_opt_parse:00000000000000aa .L0 
C:\Users\stapi\AppData\Local\Temp\ccUNtjmY.s:332    .text.coap_opt_parse:00000000000000ac .L0 
C:\Users\stapi\AppData\Local\Temp\ccUNtjmY.s:333    .text.coap_opt_parse:00000000000000ac .L0 
C:\Users\stapi\AppData\Local\Temp\ccUNtjmY.s:334    .text.coap_opt_parse:00000000000000ac .L0 
C:\Users\stapi\AppData\Local\Temp\ccUNtjmY.s:336    .text.coap_opt_parse:00000000000000b0 .L0 
C:\Users\stapi\AppData\Local\Temp\ccUNtjmY.s:338    .text.coap_opt_parse:00000000000000b4 .L0 
C:\Users\stapi\AppData\Local\Temp\ccUNtjmY.s:340    .text.coap_opt_parse:00000000000000b6 .L0 
C:\Users\stapi\AppData\Local\Temp\ccUNtjmY.s:343    .text.coap_opt_parse:00000000000000be .L0 
C:\Users\stapi\AppData\Local\Temp\ccUNtjmY.s:345    .text.coap_opt_parse:00000000000000c2 .L0 
C:\Users\stapi\AppData\Local\Temp\ccUNtjmY.s:346    .text.coap_opt_parse:00000000000000c2 .L0 
C:\Users\stapi\AppData\Local\Temp\ccUNtjmY.s:348    .text.coap_opt_parse:00000000000000c6 .L0 
C:\Users\stapi\AppData\Local\Temp\ccUNtjmY.s:352    .text.coap_opt_parse:00000000000000ca .L0 
C:\Users\stapi\AppData\Local\Temp\ccUNtjmY.s:355    .text.coap_opt_parse:00000000000000cc .L0 
C:\Users\stapi\AppData\Local\Temp\ccUNtjmY.s:356    .text.coap_opt_parse:00000000000000cc .L0 
C:\Users\stapi\AppData\Local\Temp\ccUNtjmY.s:357    .text.coap_opt_parse:00000000000000cc .L0 
C:\Users\stapi\AppData\Local\Temp\ccUNtjmY.s:359    .text.coap_opt_parse:00000000000000ce .L0 
C:\Users\stapi\AppData\Local\Temp\ccUNtjmY.s:361    .text.coap_opt_parse:00000000000000d2 .L0 
C:\Users\stapi\AppData\Local\Temp\ccUNtjmY.s:364    .text.coap_opt_parse:00000000000000d6 .L0 
C:\Users\stapi\AppData\Local\Temp\ccUNtjmY.s:365    .text.coap_opt_parse:00000000000000d6 .L0 
C:\Users\stapi\AppData\Local\Temp\ccUNtjmY.s:366    .text.coap_opt_parse:00000000000000d6 .L0 
C:\Users\stapi\AppData\Local\Temp\ccUNtjmY.s:370    .text.coap_opt_parse:00000000000000e0 .L0 
C:\Users\stapi\AppData\Local\Temp\ccUNtjmY.s:371    .text.coap_opt_parse:00000000000000e0 .L0 
C:\Users\stapi\AppData\Local\Temp\ccUNtjmY.s:372    .text.coap_opt_parse:00000000000000e0 .L0 
C:\Users\stapi\AppData\Local\Temp\ccUNtjmY.s:383    .text.coap_opt_parse:00000000000000f2 .L0 
C:\Users\stapi\AppData\Local\Temp\ccUNtjmY.s:384    .text.coap_opt_parse:00000000000000f2 .L0 
C:\Users\stapi\AppData\Local\Temp\ccUNtjmY.s:385    .text.coap_opt_parse:00000000000000f2 .L0 
C:\Users\stapi\AppData\Local\Temp\ccUNtjmY.s:387    .text.coap_opt_parse:00000000000000f4 .L0 
C:\Users\stapi\AppData\Local\Temp\ccUNtjmY.s:390    .text.coap_opt_parse:00000000000000f6 .L0 
C:\Users\stapi\AppData\Local\Temp\ccUNtjmY.s:391    .text.coap_opt_parse:00000000000000f6 .L0 
C:\Users\stapi\AppData\Local\Temp\ccUNtjmY.s:392    .text.coap_opt_parse:00000000000000f6 .L0 
C:\Users\stapi\AppData\Local\Temp\ccUNtjmY.s:394    .text.coap_opt_parse:00000000000000f8 .L0 
C:\Users\stapi\AppData\Local\Temp\ccUNtjmY.s:395    .text.coap_opt_parse:00000000000000f8 .L0 
C:\Users\stapi\AppData\Local\Temp\ccUNtjmY.s:398    .text.coap_opt_parse:00000000000000fa .L0 
C:\Users\stapi\AppData\Local\Temp\ccUNtjmY.s:400    .text.coap_opt_parse:00000000000000fe .L0 
C:\Users\stapi\AppData\Local\Temp\ccUNtjmY.s:401    .text.coap_opt_parse:00000000000000fe .L0 
C:\Users\stapi\AppData\Local\Temp\ccUNtjmY.s:406    .text.coap_opt_parse:000000000000010c .L0 
C:\Users\stapi\AppData\Local\Temp\ccUNtjmY.s:412    .text.coap_opt_parse:0000000000000116 .L0 
C:\Users\stapi\AppData\Local\Temp\ccUNtjmY.s:413    .text.coap_opt_parse:0000000000000116 .L0 
C:\Users\stapi\AppData\Local\Temp\ccUNtjmY.s:418    .text.coap_opt_parse:0000000000000124 .L0 
C:\Users\stapi\AppData\Local\Temp\ccUNtjmY.s:424    .text.coap_opt_parse:000000000000012e .L0 
C:\Users\stapi\AppData\Local\Temp\ccUNtjmY.s:425    .text.coap_opt_parse:000000000000012e .L0 
C:\Users\stapi\AppData\Local\Temp\ccUNtjmY.s:430    .text.coap_opt_parse:000000000000013c .L0 
C:\Users\stapi\AppData\Local\Temp\ccUNtjmY.s:436    .text.coap_opt_parse:0000000000000146 .L0 
C:\Users\stapi\AppData\Local\Temp\ccUNtjmY.s:437    .text.coap_opt_parse:0000000000000146 .L0 
C:\Users\stapi\AppData\Local\Temp\ccUNtjmY.s:446    .text.coap_opt_parse:0000000000000154 .L0 
C:\Users\stapi\AppData\Local\Temp\ccUNtjmY.s:447    .text.coap_opt_parse:0000000000000154 .L0 
C:\Users\stapi\AppData\Local\Temp\ccUNtjmY.s:448    .text.coap_opt_parse:0000000000000154 .L0 
C:\Users\stapi\AppData\Local\Temp\ccUNtjmY.s:451    .text.coap_opt_parse:0000000000000156 .L0 
C:\Users\stapi\AppData\Local\Temp\ccUNtjmY.s:452    .text.coap_opt_parse:0000000000000156 .L0 
C:\Users\stapi\AppData\Local\Temp\ccUNtjmY.s:453    .text.coap_opt_parse:0000000000000156 .L0 
C:\Users\stapi\AppData\Local\Temp\ccUNtjmY.s:455    .text.coap_opt_parse:000000000000015a .L0 
C:\Users\stapi\AppData\Local\Temp\ccUNtjmY.s:456    .text.coap_opt_parse:000000000000015a .L0 
C:\Users\stapi\AppData\Local\Temp\ccUNtjmY.s:457    .text.coap_opt_parse:000000000000015a .L0 
C:\Users\stapi\AppData\Local\Temp\ccUNtjmY.s:459    .text.coap_opt_parse:000000000000015e .L0 
C:\Users\stapi\AppData\Local\Temp\ccUNtjmY.s:462    .text.coap_opt_parse:0000000000000160 .L0 
C:\Users\stapi\AppData\Local\Temp\ccUNtjmY.s:464    .text.coap_opt_parse:0000000000000162 .L0 
C:\Users\stapi\AppData\Local\Temp\ccUNtjmY.s:466    .text.coap_opt_parse:0000000000000166 .L0 
C:\Users\stapi\AppData\Local\Temp\ccUNtjmY.s:468    .text.coap_opt_parse:0000000000000168 .L0 
C:\Users\stapi\AppData\Local\Temp\ccUNtjmY.s:471    .text.coap_opt_parse:0000000000000168 .L0 
C:\Users\stapi\AppData\Local\Temp\ccUNtjmY.s:472    .text.coap_opt_parse:0000000000000168 .L0 
C:\Users\stapi\AppData\Local\Temp\ccUNtjmY.s:475    .text.coap_opt_parse:000000000000016a .L0 
C:\Users\stapi\AppData\Local\Temp\ccUNtjmY.s:476    .text.coap_opt_parse:000000000000016a .L0 
C:\Users\stapi\AppData\Local\Temp\ccUNtjmY.s:477    .text.coap_opt_parse:000000000000016a .L0 
C:\Users\stapi\AppData\Local\Temp\ccUNtjmY.s:479    .text.coap_opt_parse:000000000000016e .L0 
C:\Users\stapi\AppData\Local\Temp\ccUNtjmY.s:480    .text.coap_opt_parse:000000000000016e .L0 
C:\Users\stapi\AppData\Local\Temp\ccUNtjmY.s:481    .text.coap_opt_parse:000000000000016e .L0 
C:\Users\stapi\AppData\Local\Temp\ccUNtjmY.s:483    .text.coap_opt_parse:0000000000000172 .L0 
C:\Users\stapi\AppData\Local\Temp\ccUNtjmY.s:485    .text.coap_opt_parse:0000000000000174 .L0 
C:\Users\stapi\AppData\Local\Temp\ccUNtjmY.s:488    .text.coap_opt_parse:0000000000000176 .L0 
C:\Users\stapi\AppData\Local\Temp\ccUNtjmY.s:491    .text.coap_opt_parse:000000000000017a .L0 
C:\Users\stapi\AppData\Local\Temp\ccUNtjmY.s:492    .text.coap_opt_parse:000000000000017a .L0 
C:\Users\stapi\AppData\Local\Temp\ccUNtjmY.s:493    .text.coap_opt_parse:000000000000017a .L0 
C:\Users\stapi\AppData\Local\Temp\ccUNtjmY.s:496    .text.coap_opt_parse:000000000000017c .L0 
C:\Users\stapi\AppData\Local\Temp\ccUNtjmY.s:497    .text.coap_opt_parse:000000000000017c .L0 
C:\Users\stapi\AppData\Local\Temp\ccUNtjmY.s:500    .text.coap_opt_parse:000000000000017e .L0 
C:\Users\stapi\AppData\Local\Temp\ccUNtjmY.s:505    .text.coap_opt_parse:0000000000000184 .L0 
C:\Users\stapi\AppData\Local\Temp\ccUNtjmY.s:522    .text.coap_option_iterator_init:0000000000000000 coap_option_iterator_init
C:\Users\stapi\AppData\Local\Temp\ccUNtjmY.s:525    .text.coap_option_iterator_init:0000000000000000 .L0 
C:\Users\stapi\AppData\Local\Temp\ccUNtjmY.s:527    .text.coap_option_iterator_init:0000000000000000 .L0 
C:\Users\stapi\AppData\Local\Temp\ccUNtjmY.s:528    .text.coap_option_iterator_init:0000000000000008 .L0 
C:\Users\stapi\AppData\Local\Temp\ccUNtjmY.s:529    .text.coap_option_iterator_init:0000000000000008 .L0 
C:\Users\stapi\AppData\Local\Temp\ccUNtjmY.s:530    .text.coap_option_iterator_init:0000000000000008 .L0 
C:\Users\stapi\AppData\Local\Temp\ccUNtjmY.s:531    .text.coap_option_iterator_init:0000000000000008 .L0 
C:\Users\stapi\AppData\Local\Temp\ccUNtjmY.s:532    .text.coap_option_iterator_init:0000000000000008 .L0 
C:\Users\stapi\AppData\Local\Temp\ccUNtjmY.s:534    .text.coap_option_iterator_init:0000000000000008 .L0 
C:\Users\stapi\AppData\Local\Temp\ccUNtjmY.s:536    .text.coap_option_iterator_init:000000000000000a .L0 
C:\Users\stapi\AppData\Local\Temp\ccUNtjmY.s:545    .text.coap_option_iterator_init:000000000000001e .L0 
C:\Users\stapi\AppData\Local\Temp\ccUNtjmY.s:552    .text.coap_option_iterator_init:000000000000002e .L0 
C:\Users\stapi\AppData\Local\Temp\ccUNtjmY.s:555    .text.coap_option_iterator_init:0000000000000032 .L0 
C:\Users\stapi\AppData\Local\Temp\ccUNtjmY.s:558    .text.coap_option_iterator_init:0000000000000034 .L0 
C:\Users\stapi\AppData\Local\Temp\ccUNtjmY.s:570    .text.coap_option_iterator_init:000000000000004c .L0 
C:\Users\stapi\AppData\Local\Temp\ccUNtjmY.s:573    .text.coap_option_iterator_init:000000000000004e .L0 
C:\Users\stapi\AppData\Local\Temp\ccUNtjmY.s:584    .text.coap_option_iterator_init:0000000000000066 .L0 
C:\Users\stapi\AppData\Local\Temp\ccUNtjmY.s:591    .text.coap_option_iterator_init:0000000000000074 .L0 
C:\Users\stapi\AppData\Local\Temp\ccUNtjmY.s:592    .text.coap_option_iterator_init:0000000000000074 .L0 
C:\Users\stapi\AppData\Local\Temp\ccUNtjmY.s:594    .text.coap_option_iterator_init:0000000000000076 .L0 
C:\Users\stapi\AppData\Local\Temp\ccUNtjmY.s:596    .text.coap_option_iterator_init:0000000000000078 .L0 
C:\Users\stapi\AppData\Local\Temp\ccUNtjmY.s:598    .text.coap_option_iterator_init:000000000000007a .L0 
C:\Users\stapi\AppData\Local\Temp\ccUNtjmY.s:600    .text.coap_option_iterator_init:000000000000007e .L0 
C:\Users\stapi\AppData\Local\Temp\ccUNtjmY.s:602    .text.coap_option_iterator_init:0000000000000080 .L0 
C:\Users\stapi\AppData\Local\Temp\ccUNtjmY.s:603    .text.coap_option_iterator_init:0000000000000080 .L0 
C:\Users\stapi\AppData\Local\Temp\ccUNtjmY.s:605    .text.coap_option_iterator_init:0000000000000082 .L0 
C:\Users\stapi\AppData\Local\Temp\ccUNtjmY.s:607    .text.coap_option_iterator_init:0000000000000086 .L0 
C:\Users\stapi\AppData\Local\Temp\ccUNtjmY.s:608    .text.coap_option_iterator_init:0000000000000086 .L0 
C:\Users\stapi\AppData\Local\Temp\ccUNtjmY.s:612    .text.coap_option_iterator_init:0000000000000092 .L0 
C:\Users\stapi\AppData\Local\Temp\ccUNtjmY.s:613    .text.coap_option_iterator_init:0000000000000092 .L0 
C:\Users\stapi\AppData\Local\Temp\ccUNtjmY.s:617    .text.coap_option_iterator_init:0000000000000094 .L0 
C:\Users\stapi\AppData\Local\Temp\ccUNtjmY.s:619    .text.coap_option_iterator_init:000000000000009e .L0 
C:\Users\stapi\AppData\Local\Temp\ccUNtjmY.s:620    .text.coap_option_iterator_init:000000000000009e .L0 
C:\Users\stapi\AppData\Local\Temp\ccUNtjmY.s:621    .text.coap_option_iterator_init:000000000000009e .L0 
C:\Users\stapi\AppData\Local\Temp\ccUNtjmY.s:622    .text.coap_option_iterator_init:000000000000009e .L0 
C:\Users\stapi\AppData\Local\Temp\ccUNtjmY.s:623    .text.coap_option_iterator_init:000000000000009e .L0 
C:\Users\stapi\AppData\Local\Temp\ccUNtjmY.s:624    .text.coap_option_iterator_init:000000000000009e .L0 
C:\Users\stapi\AppData\Local\Temp\ccUNtjmY.s:627    .text.coap_option_iterator_init:000000000000009e .L0 
C:\Users\stapi\AppData\Local\Temp\ccUNtjmY.s:629    .text.coap_option_iterator_init:000000000000009e .L0 
C:\Users\stapi\AppData\Local\Temp\ccUNtjmY.s:630    .text.coap_option_iterator_init:000000000000009e .L0 
C:\Users\stapi\AppData\Local\Temp\ccUNtjmY.s:632    .text.coap_option_iterator_init:00000000000000a0 .L0 
C:\Users\stapi\AppData\Local\Temp\ccUNtjmY.s:634    .text.coap_option_iterator_init:00000000000000a2 .L0 
C:\Users\stapi\AppData\Local\Temp\ccUNtjmY.s:635    .text.coap_option_iterator_init:00000000000000a2 .L0 
C:\Users\stapi\AppData\Local\Temp\ccUNtjmY.s:637    .text.coap_option_iterator_init:00000000000000a6 .L0 
C:\Users\stapi\AppData\Local\Temp\ccUNtjmY.s:643    .text.coap_option_iterator_init:00000000000000b6 .L0 
C:\Users\stapi\AppData\Local\Temp\ccUNtjmY.s:644    .text.coap_option_iterator_init:00000000000000b6 .L0 
C:\Users\stapi\AppData\Local\Temp\ccUNtjmY.s:648    .text.coap_option_iterator_init:00000000000000c4 .L0 
C:\Users\stapi\AppData\Local\Temp\ccUNtjmY.s:662    .text.coap_opt_length:0000000000000000 coap_opt_length
C:\Users\stapi\AppData\Local\Temp\ccUNtjmY.s:665    .text.coap_opt_length:0000000000000000 .L0 
C:\Users\stapi\AppData\Local\Temp\ccUNtjmY.s:667    .text.coap_opt_length:0000000000000000 .L0 
C:\Users\stapi\AppData\Local\Temp\ccUNtjmY.s:668    .text.coap_opt_length:0000000000000008 .L0 
C:\Users\stapi\AppData\Local\Temp\ccUNtjmY.s:669    .text.coap_opt_length:0000000000000008 .L0 
C:\Users\stapi\AppData\Local\Temp\ccUNtjmY.s:671    .text.coap_opt_length:0000000000000008 .L0 
C:\Users\stapi\AppData\Local\Temp\ccUNtjmY.s:672    .text.coap_opt_length:0000000000000008 .L0 
C:\Users\stapi\AppData\Local\Temp\ccUNtjmY.s:673    .text.coap_opt_length:0000000000000008 .L0 
C:\Users\stapi\AppData\Local\Temp\ccUNtjmY.s:675    .text.coap_opt_length:000000000000000c .L0 
C:\Users\stapi\AppData\Local\Temp\ccUNtjmY.s:677    .text.coap_opt_length:000000000000000e .L0 
C:\Users\stapi\AppData\Local\Temp\ccUNtjmY.s:681    .text.coap_opt_length:0000000000000016 .L0 
C:\Users\stapi\AppData\Local\Temp\ccUNtjmY.s:689    .text.coap_opt_length:000000000000002e .L0 
C:\Users\stapi\AppData\Local\Temp\ccUNtjmY.s:693    .text.coap_opt_length:0000000000000030 .L0 
C:\Users\stapi\AppData\Local\Temp\ccUNtjmY.s:694    .text.coap_opt_length:0000000000000030 .L0 
C:\Users\stapi\AppData\Local\Temp\ccUNtjmY.s:701    .text.coap_opt_length:0000000000000042 .L0 
C:\Users\stapi\AppData\Local\Temp\ccUNtjmY.s:707    .text.coap_opt_length:0000000000000048 .L0 
C:\Users\stapi\AppData\Local\Temp\ccUNtjmY.s:708    .text.coap_opt_length:0000000000000048 .L0 
C:\Users\stapi\AppData\Local\Temp\ccUNtjmY.s:710    .text.coap_opt_length:000000000000004c .L0 
C:\Users\stapi\AppData\Local\Temp\ccUNtjmY.s:713    .text.coap_opt_length:000000000000004e .L0 
C:\Users\stapi\AppData\Local\Temp\ccUNtjmY.s:717    .text.coap_opt_length:0000000000000050 .L0 
C:\Users\stapi\AppData\Local\Temp\ccUNtjmY.s:718    .text.coap_opt_length:0000000000000050 .L0 
C:\Users\stapi\AppData\Local\Temp\ccUNtjmY.s:725    .text.coap_opt_length:000000000000005e .L0 
C:\Users\stapi\AppData\Local\Temp\ccUNtjmY.s:728    .text.coap_opt_length:0000000000000060 .L0 
C:\Users\stapi\AppData\Local\Temp\ccUNtjmY.s:729    .text.coap_opt_length:0000000000000068 .L0 
C:\Users\stapi\AppData\Local\Temp\ccUNtjmY.s:730    .text.coap_opt_length:0000000000000068 .L0 
C:\Users\stapi\AppData\Local\Temp\ccUNtjmY.s:731    .text.coap_opt_length:0000000000000068 .L0 
C:\Users\stapi\AppData\Local\Temp\ccUNtjmY.s:734    .text.coap_opt_length:0000000000000068 .L0 
C:\Users\stapi\AppData\Local\Temp\ccUNtjmY.s:736    .text.coap_opt_length:0000000000000068 .L0 
C:\Users\stapi\AppData\Local\Temp\ccUNtjmY.s:741    .text.coap_opt_length:0000000000000070 .L0 
C:\Users\stapi\AppData\Local\Temp\ccUNtjmY.s:748    .text.coap_opt_length:000000000000007c .L0 
C:\Users\stapi\AppData\Local\Temp\ccUNtjmY.s:754    .text.coap_opt_length:0000000000000080 .L0 
C:\Users\stapi\AppData\Local\Temp\ccUNtjmY.s:755    .text.coap_opt_length:0000000000000080 .L0 
C:\Users\stapi\AppData\Local\Temp\ccUNtjmY.s:760    .text.coap_opt_length:000000000000008e .L0 
C:\Users\stapi\AppData\Local\Temp\ccUNtjmY.s:766    .text.coap_opt_length:0000000000000098 .L0 
C:\Users\stapi\AppData\Local\Temp\ccUNtjmY.s:767    .text.coap_opt_length:0000000000000098 .L0 
C:\Users\stapi\AppData\Local\Temp\ccUNtjmY.s:770    .text.coap_opt_length:000000000000009c .L0 
C:\Users\stapi\AppData\Local\Temp\ccUNtjmY.s:773    .text.coap_opt_length:00000000000000a0 .L0 
C:\Users\stapi\AppData\Local\Temp\ccUNtjmY.s:775    .text.coap_opt_length:00000000000000a2 .L0 
C:\Users\stapi\AppData\Local\Temp\ccUNtjmY.s:778    .text.coap_opt_length:00000000000000a8 .L0 
C:\Users\stapi\AppData\Local\Temp\ccUNtjmY.s:785    .text.coap_opt_value:0000000000000000 coap_opt_value
C:\Users\stapi\AppData\Local\Temp\ccUNtjmY.s:788    .text.coap_opt_value:0000000000000000 .L0 
C:\Users\stapi\AppData\Local\Temp\ccUNtjmY.s:790    .text.coap_opt_value:0000000000000000 .L0 
C:\Users\stapi\AppData\Local\Temp\ccUNtjmY.s:791    .text.coap_opt_value:0000000000000008 .L0 
C:\Users\stapi\AppData\Local\Temp\ccUNtjmY.s:792    .text.coap_opt_value:0000000000000008 .L0 
C:\Users\stapi\AppData\Local\Temp\ccUNtjmY.s:795    .text.coap_opt_value:0000000000000008 .L0 
C:\Users\stapi\AppData\Local\Temp\ccUNtjmY.s:796    .text.coap_opt_value:0000000000000008 .L0 
C:\Users\stapi\AppData\Local\Temp\ccUNtjmY.s:797    .text.coap_opt_value:0000000000000008 .L0 
C:\Users\stapi\AppData\Local\Temp\ccUNtjmY.s:799    .text.coap_opt_value:000000000000000c .L0 
C:\Users\stapi\AppData\Local\Temp\ccUNtjmY.s:810    .text.coap_opt_value:000000000000002a .L0 
C:\Users\stapi\AppData\Local\Temp\ccUNtjmY.s:811    .text.coap_opt_value:000000000000002a .L0 
C:\Users\stapi\AppData\Local\Temp\ccUNtjmY.s:820    .text.coap_opt_value:000000000000003e .L0 
C:\Users\stapi\AppData\Local\Temp\ccUNtjmY.s:824    .text.coap_opt_value:0000000000000040 .L0 
C:\Users\stapi\AppData\Local\Temp\ccUNtjmY.s:825    .text.coap_opt_value:0000000000000040 .L0 
C:\Users\stapi\AppData\Local\Temp\ccUNtjmY.s:826    .text.coap_opt_value:0000000000000040 .L0 
C:\Users\stapi\AppData\Local\Temp\ccUNtjmY.s:827    .text.coap_opt_value:0000000000000040 .L0 
C:\Users\stapi\AppData\Local\Temp\ccUNtjmY.s:833    .text.coap_opt_value:0000000000000044 .L0 
C:\Users\stapi\AppData\Local\Temp\ccUNtjmY.s:834    .text.coap_opt_value:0000000000000044 .L0 
C:\Users\stapi\AppData\Local\Temp\ccUNtjmY.s:841    .text.coap_opt_value:0000000000000052 .L0 
C:\Users\stapi\AppData\Local\Temp\ccUNtjmY.s:844    .text.coap_opt_value:0000000000000054 .L0 
C:\Users\stapi\AppData\Local\Temp\ccUNtjmY.s:845    .text.coap_opt_value:000000000000005c .L0 
C:\Users\stapi\AppData\Local\Temp\ccUNtjmY.s:846    .text.coap_opt_value:000000000000005c .L0 
C:\Users\stapi\AppData\Local\Temp\ccUNtjmY.s:847    .text.coap_opt_value:000000000000005c .L0 
C:\Users\stapi\AppData\Local\Temp\ccUNtjmY.s:850    .text.coap_opt_value:000000000000005c .L0 
C:\Users\stapi\AppData\Local\Temp\ccUNtjmY.s:852    .text.coap_opt_value:000000000000005c .L0 
C:\Users\stapi\AppData\Local\Temp\ccUNtjmY.s:857    .text.coap_opt_value:0000000000000064 .L0 
C:\Users\stapi\AppData\Local\Temp\ccUNtjmY.s:864    .text.coap_opt_value:0000000000000070 .L0 
C:\Users\stapi\AppData\Local\Temp\ccUNtjmY.s:868    .text.coap_opt_value:0000000000000072 .L0 
C:\Users\stapi\AppData\Local\Temp\ccUNtjmY.s:871    .text.coap_opt_value:0000000000000074 .L0 
C:\Users\stapi\AppData\Local\Temp\ccUNtjmY.s:875    .text.coap_opt_value:0000000000000076 .L0 
C:\Users\stapi\AppData\Local\Temp\ccUNtjmY.s:880    .text.coap_opt_value:000000000000007a .L0 
C:\Users\stapi\AppData\Local\Temp\ccUNtjmY.s:881    .text.coap_opt_value:000000000000007a .L0 
C:\Users\stapi\AppData\Local\Temp\ccUNtjmY.s:886    .text.coap_opt_value:0000000000000088 .L0 
C:\Users\stapi\AppData\Local\Temp\ccUNtjmY.s:892    .text.coap_opt_value:0000000000000092 .L0 
C:\Users\stapi\AppData\Local\Temp\ccUNtjmY.s:895    .text.coap_opt_value:0000000000000096 .L0 
C:\Users\stapi\AppData\Local\Temp\ccUNtjmY.s:902    .text.coap_opt_size:0000000000000000 coap_opt_size
C:\Users\stapi\AppData\Local\Temp\ccUNtjmY.s:905    .text.coap_opt_size:0000000000000000 .L0 
C:\Users\stapi\AppData\Local\Temp\ccUNtjmY.s:907    .text.coap_opt_size:0000000000000000 .L0 
C:\Users\stapi\AppData\Local\Temp\ccUNtjmY.s:908    .text.coap_opt_size:0000000000000008 .L0 
C:\Users\stapi\AppData\Local\Temp\ccUNtjmY.s:909    .text.coap_opt_size:0000000000000008 .L0 
C:\Users\stapi\AppData\Local\Temp\ccUNtjmY.s:911    .text.coap_opt_size:0000000000000008 .L0 
C:\Users\stapi\AppData\Local\Temp\ccUNtjmY.s:912    .text.coap_opt_size:0000000000000008 .L0 
C:\Users\stapi\AppData\Local\Temp\ccUNtjmY.s:913    .text.coap_opt_size:0000000000000008 .L0 
C:\Users\stapi\AppData\Local\Temp\ccUNtjmY.s:914    .text.coap_opt_size:000000000000000a .L0 
C:\Users\stapi\AppData\Local\Temp\ccUNtjmY.s:916    .text.coap_opt_size:000000000000000a .L0 
C:\Users\stapi\AppData\Local\Temp\ccUNtjmY.s:921    .text.coap_opt_size:0000000000000016 .L0 
C:\Users\stapi\AppData\Local\Temp\ccUNtjmY.s:922    .text.coap_opt_size:0000000000000018 .L0 
C:\Users\stapi\AppData\Local\Temp\ccUNtjmY.s:924    .text.coap_opt_size:0000000000000020 .L0 
C:\Users\stapi\AppData\Local\Temp\ccUNtjmY.s:925    .text.coap_opt_size:0000000000000020 .L0 
C:\Users\stapi\AppData\Local\Temp\ccUNtjmY.s:926    .text.coap_opt_size:0000000000000020 .L0 
C:\Users\stapi\AppData\Local\Temp\ccUNtjmY.s:940    .text.coap_opt_setheader:0000000000000000 coap_opt_setheader
C:\Users\stapi\AppData\Local\Temp\ccUNtjmY.s:943    .text.coap_opt_setheader:0000000000000000 .L0 
C:\Users\stapi\AppData\Local\Temp\ccUNtjmY.s:945    .text.coap_opt_setheader:0000000000000000 .L0 
C:\Users\stapi\AppData\Local\Temp\ccUNtjmY.s:946    .text.coap_opt_setheader:0000000000000008 .L0 
C:\Users\stapi\AppData\Local\Temp\ccUNtjmY.s:947    .text.coap_opt_setheader:0000000000000008 .L0 
C:\Users\stapi\AppData\Local\Temp\ccUNtjmY.s:948    .text.coap_opt_setheader:0000000000000008 .L0 
C:\Users\stapi\AppData\Local\Temp\ccUNtjmY.s:949    .text.coap_opt_setheader:0000000000000008 .L0 
C:\Users\stapi\AppData\Local\Temp\ccUNtjmY.s:952    .text.coap_opt_setheader:0000000000000008 .L0 
C:\Users\stapi\AppData\Local\Temp\ccUNtjmY.s:953    .text.coap_opt_setheader:0000000000000008 .L0 
C:\Users\stapi\AppData\Local\Temp\ccUNtjmY.s:955    .text.coap_opt_setheader:000000000000000a .L0 
C:\Users\stapi\AppData\Local\Temp\ccUNtjmY.s:970    .text.coap_opt_setheader:000000000000002e .L0 
C:\Users\stapi\AppData\Local\Temp\ccUNtjmY.s:971    .text.coap_opt_setheader:000000000000002e .L0 
C:\Users\stapi\AppData\Local\Temp\ccUNtjmY.s:977    .text.coap_opt_setheader:0000000000000030 .L0 
C:\Users\stapi\AppData\Local\Temp\ccUNtjmY.s:982    .text.coap_opt_setheader:0000000000000032 .L0 
C:\Users\stapi\AppData\Local\Temp\ccUNtjmY.s:983    .text.coap_opt_setheader:000000000000003a .L0 
C:\Users\stapi\AppData\Local\Temp\ccUNtjmY.s:984    .text.coap_opt_setheader:000000000000003a .L0 
C:\Users\stapi\AppData\Local\Temp\ccUNtjmY.s:985    .text.coap_opt_setheader:000000000000003a .L0 
C:\Users\stapi\AppData\Local\Temp\ccUNtjmY.s:986    .text.coap_opt_setheader:000000000000003a .L0 
C:\Users\stapi\AppData\Local\Temp\ccUNtjmY.s:987    .text.coap_opt_setheader:000000000000003a .L0 
C:\Users\stapi\AppData\Local\Temp\ccUNtjmY.s:990    .text.coap_opt_setheader:000000000000003a .L0 
C:\Users\stapi\AppData\Local\Temp\ccUNtjmY.s:994    .text.coap_opt_setheader:000000000000003a .L0 
C:\Users\stapi\AppData\Local\Temp\ccUNtjmY.s:999    .text.coap_opt_setheader:0000000000000040 .L0 
C:\Users\stapi\AppData\Local\Temp\ccUNtjmY.s:1000   .text.coap_opt_setheader:0000000000000040 .L0 
C:\Users\stapi\AppData\Local\Temp\ccUNtjmY.s:1003   .text.coap_opt_setheader:0000000000000044 .L0 
C:\Users\stapi\AppData\Local\Temp\ccUNtjmY.s:1004   .text.coap_opt_setheader:0000000000000044 .L0 
C:\Users\stapi\AppData\Local\Temp\ccUNtjmY.s:1006   .text.coap_opt_setheader:0000000000000048 .L0 
C:\Users\stapi\AppData\Local\Temp\ccUNtjmY.s:1008   .text.coap_opt_setheader:000000000000004c .L0 
C:\Users\stapi\AppData\Local\Temp\ccUNtjmY.s:1012   .text.coap_opt_setheader:000000000000004e .L0 
C:\Users\stapi\AppData\Local\Temp\ccUNtjmY.s:1013   .text.coap_opt_setheader:000000000000004e .L0 
C:\Users\stapi\AppData\Local\Temp\ccUNtjmY.s:1016   .text.coap_opt_setheader:0000000000000054 .L0 
C:\Users\stapi\AppData\Local\Temp\ccUNtjmY.s:1017   .text.coap_opt_setheader:0000000000000054 .L0 
C:\Users\stapi\AppData\Local\Temp\ccUNtjmY.s:1023   .text.coap_opt_setheader:000000000000005e .L0 
C:\Users\stapi\AppData\Local\Temp\ccUNtjmY.s:1024   .text.coap_opt_setheader:000000000000005e .L0 
C:\Users\stapi\AppData\Local\Temp\ccUNtjmY.s:1030   .text.coap_opt_setheader:0000000000000064 .L0 
C:\Users\stapi\AppData\Local\Temp\ccUNtjmY.s:1031   .text.coap_opt_setheader:0000000000000064 .L0 
C:\Users\stapi\AppData\Local\Temp\ccUNtjmY.s:1034   .text.coap_opt_setheader:000000000000006c .L0 
C:\Users\stapi\AppData\Local\Temp\ccUNtjmY.s:1035   .text.coap_opt_setheader:000000000000006c .L0 
C:\Users\stapi\AppData\Local\Temp\ccUNtjmY.s:1039   .text.coap_opt_setheader:0000000000000072 .L0 
C:\Users\stapi\AppData\Local\Temp\ccUNtjmY.s:1040   .text.coap_opt_setheader:0000000000000072 .L0 
C:\Users\stapi\AppData\Local\Temp\ccUNtjmY.s:1045   .text.coap_opt_setheader:0000000000000080 .L0 
C:\Users\stapi\AppData\Local\Temp\ccUNtjmY.s:1050   .text.coap_opt_setheader:000000000000008a .L0 
C:\Users\stapi\AppData\Local\Temp\ccUNtjmY.s:1057   .text.coap_opt_setheader:0000000000000096 .L0 
C:\Users\stapi\AppData\Local\Temp\ccUNtjmY.s:1058   .text.coap_opt_setheader:0000000000000096 .L0 
C:\Users\stapi\AppData\Local\Temp\ccUNtjmY.s:1062   .text.coap_opt_setheader:000000000000009e .L0 
C:\Users\stapi\AppData\Local\Temp\ccUNtjmY.s:1063   .text.coap_opt_setheader:000000000000009e .L0 
C:\Users\stapi\AppData\Local\Temp\ccUNtjmY.s:1065   .text.coap_opt_setheader:00000000000000a2 .L0 
C:\Users\stapi\AppData\Local\Temp\ccUNtjmY.s:1071   .text.coap_opt_setheader:00000000000000aa .L0 
C:\Users\stapi\AppData\Local\Temp\ccUNtjmY.s:1072   .text.coap_opt_setheader:00000000000000aa .L0 
C:\Users\stapi\AppData\Local\Temp\ccUNtjmY.s:1075   .text.coap_opt_setheader:00000000000000b0 .L0 
C:\Users\stapi\AppData\Local\Temp\ccUNtjmY.s:1076   .text.coap_opt_setheader:00000000000000b0 .L0 
C:\Users\stapi\AppData\Local\Temp\ccUNtjmY.s:1080   .text.coap_opt_setheader:00000000000000b6 .L0 
C:\Users\stapi\AppData\Local\Temp\ccUNtjmY.s:1081   .text.coap_opt_setheader:00000000000000b6 .L0 
C:\Users\stapi\AppData\Local\Temp\ccUNtjmY.s:1083   .text.coap_opt_setheader:00000000000000ba .L0 
C:\Users\stapi\AppData\Local\Temp\ccUNtjmY.s:1085   .text.coap_opt_setheader:00000000000000bc .L0 
C:\Users\stapi\AppData\Local\Temp\ccUNtjmY.s:1088   .text.coap_opt_setheader:00000000000000c0 .L0 
C:\Users\stapi\AppData\Local\Temp\ccUNtjmY.s:1089   .text.coap_opt_setheader:00000000000000c0 .L0 
C:\Users\stapi\AppData\Local\Temp\ccUNtjmY.s:1091   .text.coap_opt_setheader:00000000000000c4 .L0 
C:\Users\stapi\AppData\Local\Temp\ccUNtjmY.s:1097   .text.coap_opt_setheader:00000000000000cc .L0 
C:\Users\stapi\AppData\Local\Temp\ccUNtjmY.s:1098   .text.coap_opt_setheader:00000000000000cc .L0 
C:\Users\stapi\AppData\Local\Temp\ccUNtjmY.s:1101   .text.coap_opt_setheader:00000000000000d4 .L0 
C:\Users\stapi\AppData\Local\Temp\ccUNtjmY.s:1102   .text.coap_opt_setheader:00000000000000d4 .L0 
C:\Users\stapi\AppData\Local\Temp\ccUNtjmY.s:1104   .text.coap_opt_setheader:00000000000000d8 .L0 
C:\Users\stapi\AppData\Local\Temp\ccUNtjmY.s:1106   .text.coap_opt_setheader:00000000000000dc .L0 
C:\Users\stapi\AppData\Local\Temp\ccUNtjmY.s:1107   .text.coap_opt_setheader:00000000000000dc .L0 
C:\Users\stapi\AppData\Local\Temp\ccUNtjmY.s:1112   .text.coap_opt_setheader:00000000000000ea .L0 
C:\Users\stapi\AppData\Local\Temp\ccUNtjmY.s:1119   .text.coap_opt_setheader:00000000000000f6 .L0 
C:\Users\stapi\AppData\Local\Temp\ccUNtjmY.s:1120   .text.coap_opt_setheader:00000000000000f6 .L0 
C:\Users\stapi\AppData\Local\Temp\ccUNtjmY.s:1122   .text.coap_opt_setheader:00000000000000fa .L0 
C:\Users\stapi\AppData\Local\Temp\ccUNtjmY.s:1125   .text.coap_opt_setheader:00000000000000fc .L0 
C:\Users\stapi\AppData\Local\Temp\ccUNtjmY.s:1130   .text.coap_opt_setheader:0000000000000104 .L0 
C:\Users\stapi\AppData\Local\Temp\ccUNtjmY.s:1131   .text.coap_opt_setheader:0000000000000104 .L0 
C:\Users\stapi\AppData\Local\Temp\ccUNtjmY.s:1134   .text.coap_opt_setheader:0000000000000106 .L0 
C:\Users\stapi\AppData\Local\Temp\ccUNtjmY.s:1137   .text.coap_opt_setheader:0000000000000108 .L0 
C:\Users\stapi\AppData\Local\Temp\ccUNtjmY.s:1142   .text.coap_opt_setheader:000000000000010e .L0 
C:\Users\stapi\AppData\Local\Temp\ccUNtjmY.s:1143   .text.coap_opt_setheader:000000000000010e .L0 
C:\Users\stapi\AppData\Local\Temp\ccUNtjmY.s:1145   .text.coap_opt_setheader:0000000000000112 .L0 
C:\Users\stapi\AppData\Local\Temp\ccUNtjmY.s:1147   .text.coap_opt_setheader:0000000000000116 .L0 
C:\Users\stapi\AppData\Local\Temp\ccUNtjmY.s:1148   .text.coap_opt_setheader:0000000000000116 .L0 
C:\Users\stapi\AppData\Local\Temp\ccUNtjmY.s:1150   .text.coap_opt_setheader:000000000000011a .L0 
C:\Users\stapi\AppData\Local\Temp\ccUNtjmY.s:1152   .text.coap_opt_setheader:000000000000011e .L0 
C:\Users\stapi\AppData\Local\Temp\ccUNtjmY.s:1155   .text.coap_opt_setheader:0000000000000120 .L0 
C:\Users\stapi\AppData\Local\Temp\ccUNtjmY.s:1159   .text.coap_opt_setheader:0000000000000128 .L0 
C:\Users\stapi\AppData\Local\Temp\ccUNtjmY.s:1160   .text.coap_opt_setheader:0000000000000128 .L0 
C:\Users\stapi\AppData\Local\Temp\ccUNtjmY.s:1162   .text.coap_opt_setheader:000000000000012c .L0 
C:\Users\stapi\AppData\Local\Temp\ccUNtjmY.s:1164   .text.coap_opt_setheader:000000000000012e .L0 
C:\Users\stapi\AppData\Local\Temp\ccUNtjmY.s:1166   .text.coap_opt_setheader:0000000000000132 .L0 
C:\Users\stapi\AppData\Local\Temp\ccUNtjmY.s:1169   .text.coap_opt_setheader:0000000000000134 .L0 
C:\Users\stapi\AppData\Local\Temp\ccUNtjmY.s:1176   .text.coap_opt_encode_size:0000000000000000 coap_opt_encode_size
C:\Users\stapi\AppData\Local\Temp\ccUNtjmY.s:1179   .text.coap_opt_encode_size:0000000000000000 .L0 
C:\Users\stapi\AppData\Local\Temp\ccUNtjmY.s:1181   .text.coap_opt_encode_size:0000000000000000 .L0 
C:\Users\stapi\AppData\Local\Temp\ccUNtjmY.s:1182   .text.coap_opt_encode_size:0000000000000000 .L0 
C:\Users\stapi\AppData\Local\Temp\ccUNtjmY.s:1183   .text.coap_opt_encode_size:0000000000000000 .L0 
C:\Users\stapi\AppData\Local\Temp\ccUNtjmY.s:1184   .text.coap_opt_encode_size:0000000000000000 .L0 
C:\Users\stapi\AppData\Local\Temp\ccUNtjmY.s:1186   .text.coap_opt_encode_size:0000000000000002 .L0 
C:\Users\stapi\AppData\Local\Temp\ccUNtjmY.s:1188   .text.coap_opt_encode_size:0000000000000004 .L0 
C:\Users\stapi\AppData\Local\Temp\ccUNtjmY.s:1190   .text.coap_opt_encode_size:0000000000000008 .L0 
C:\Users\stapi\AppData\Local\Temp\ccUNtjmY.s:1191   .text.coap_opt_encode_size:0000000000000008 .L0 
C:\Users\stapi\AppData\Local\Temp\ccUNtjmY.s:1193   .text.coap_opt_encode_size:000000000000000c .L0 
C:\Users\stapi\AppData\Local\Temp\ccUNtjmY.s:1198   .text.coap_opt_encode_size:0000000000000012 .L0 
C:\Users\stapi\AppData\Local\Temp\ccUNtjmY.s:1199   .text.coap_opt_encode_size:0000000000000012 .L0 
C:\Users\stapi\AppData\Local\Temp\ccUNtjmY.s:1202   .text.coap_opt_encode_size:0000000000000018 .L0 
C:\Users\stapi\AppData\Local\Temp\ccUNtjmY.s:1203   .text.coap_opt_encode_size:0000000000000018 .L0 
C:\Users\stapi\AppData\Local\Temp\ccUNtjmY.s:1206   .text.coap_opt_encode_size:0000000000000020 .L0 
C:\Users\stapi\AppData\Local\Temp\ccUNtjmY.s:1207   .text.coap_opt_encode_size:0000000000000020 .L0 
C:\Users\stapi\AppData\Local\Temp\ccUNtjmY.s:1211   .text.coap_opt_encode_size:0000000000000022 .L0 
C:\Users\stapi\AppData\Local\Temp\ccUNtjmY.s:1212   .text.coap_opt_encode_size:0000000000000022 .L0 
C:\Users\stapi\AppData\Local\Temp\ccUNtjmY.s:1218   .text.coap_opt_encode_size:0000000000000028 .L0 
C:\Users\stapi\AppData\Local\Temp\ccUNtjmY.s:1219   .text.coap_opt_encode_size:0000000000000028 .L0 
C:\Users\stapi\AppData\Local\Temp\ccUNtjmY.s:1222   .text.coap_opt_encode_size:000000000000002c .L0 
C:\Users\stapi\AppData\Local\Temp\ccUNtjmY.s:1239   .text.coap_opt_encode:0000000000000000 coap_opt_encode
C:\Users\stapi\AppData\Local\Temp\ccUNtjmY.s:1242   .text.coap_opt_encode:0000000000000000 .L0 
C:\Users\stapi\AppData\Local\Temp\ccUNtjmY.s:1244   .text.coap_opt_encode:0000000000000000 .L0 
C:\Users\stapi\AppData\Local\Temp\ccUNtjmY.s:1245   .text.coap_opt_encode:0000000000000008 .L0 
C:\Users\stapi\AppData\Local\Temp\ccUNtjmY.s:1246   .text.coap_opt_encode:0000000000000008 .L0 
C:\Users\stapi\AppData\Local\Temp\ccUNtjmY.s:1247   .text.coap_opt_encode:0000000000000008 .L0 
C:\Users\stapi\AppData\Local\Temp\ccUNtjmY.s:1248   .text.coap_opt_encode:0000000000000008 .L0 
C:\Users\stapi\AppData\Local\Temp\ccUNtjmY.s:1249   .text.coap_opt_encode:0000000000000008 .L0 
C:\Users\stapi\AppData\Local\Temp\ccUNtjmY.s:1250   .text.coap_opt_encode:0000000000000008 .L0 
C:\Users\stapi\AppData\Local\Temp\ccUNtjmY.s:1251   .text.coap_opt_encode:0000000000000008 .L0 
C:\Users\stapi\AppData\Local\Temp\ccUNtjmY.s:1254   .text.coap_opt_encode:0000000000000008 .L0 
C:\Users\stapi\AppData\Local\Temp\ccUNtjmY.s:1255   .text.coap_opt_encode:0000000000000008 .L0 
C:\Users\stapi\AppData\Local\Temp\ccUNtjmY.s:1256   .text.coap_opt_encode:0000000000000008 .L0 
C:\Users\stapi\AppData\Local\Temp\ccUNtjmY.s:1258   .text.coap_opt_encode:000000000000000a .L0 
C:\Users\stapi\AppData\Local\Temp\ccUNtjmY.s:1261   .text.coap_opt_encode:000000000000000c .L0 
C:\Users\stapi\AppData\Local\Temp\ccUNtjmY.s:1265   .text.coap_opt_encode:0000000000000012 .L0 
C:\Users\stapi\AppData\Local\Temp\ccUNtjmY.s:1268   .text.coap_opt_encode:000000000000001a .L0 
C:\Users\stapi\AppData\Local\Temp\ccUNtjmY.s:1270   .text.coap_opt_encode:000000000000001e .L0 
C:\Users\stapi\AppData\Local\Temp\ccUNtjmY.s:1283   .text.coap_opt_encode:0000000000000044 .L0 
C:\Users\stapi\AppData\Local\Temp\ccUNtjmY.s:1284   .text.coap_opt_encode:0000000000000044 .L0 
C:\Users\stapi\AppData\Local\Temp\ccUNtjmY.s:1287   .text.coap_opt_encode:0000000000000046 .L0 
C:\Users\stapi\AppData\Local\Temp\ccUNtjmY.s:1288   .text.coap_opt_encode:0000000000000046 .L0 
C:\Users\stapi\AppData\Local\Temp\ccUNtjmY.s:1295   .text.coap_opt_encode:0000000000000054 .L0 
C:\Users\stapi\AppData\Local\Temp\ccUNtjmY.s:1301   .text.coap_opt_encode:0000000000000058 .L0 
C:\Users\stapi\AppData\Local\Temp\ccUNtjmY.s:1308   .text.coap_opt_encode:000000000000006a .L0 
C:\Users\stapi\AppData\Local\Temp\ccUNtjmY.s:1310   .text.coap_opt_encode:0000000000000074 .L0 
C:\Users\stapi\AppData\Local\Temp\ccUNtjmY.s:1311   .text.coap_opt_encode:0000000000000074 .L0 
C:\Users\stapi\AppData\Local\Temp\ccUNtjmY.s:1312   .text.coap_opt_encode:0000000000000074 .L0 
C:\Users\stapi\AppData\Local\Temp\ccUNtjmY.s:1313   .text.coap_opt_encode:0000000000000074 .L0 
C:\Users\stapi\AppData\Local\Temp\ccUNtjmY.s:1314   .text.coap_opt_encode:0000000000000074 .L0 
C:\Users\stapi\AppData\Local\Temp\ccUNtjmY.s:1315   .text.coap_opt_encode:0000000000000074 .L0 
C:\Users\stapi\AppData\Local\Temp\ccUNtjmY.s:1316   .text.coap_opt_encode:0000000000000074 .L0 
C:\Users\stapi\AppData\Local\Temp\ccUNtjmY.s:1317   .text.coap_opt_encode:0000000000000074 .L0 
C:\Users\stapi\AppData\Local\Temp\ccUNtjmY.s:1320   .text.coap_opt_encode:0000000000000074 .L0 
C:\Users\stapi\AppData\Local\Temp\ccUNtjmY.s:1322   .text.coap_opt_encode:0000000000000074 .L0 
C:\Users\stapi\AppData\Local\Temp\ccUNtjmY.s:1323   .text.coap_opt_encode:0000000000000074 .L0 
C:\Users\stapi\AppData\Local\Temp\ccUNtjmY.s:1324   .text.coap_opt_encode:0000000000000074 .L0 
C:\Users\stapi\AppData\Local\Temp\ccUNtjmY.s:1325   .text.coap_opt_encode:0000000000000074 .L0 
C:\Users\stapi\AppData\Local\Temp\ccUNtjmY.s:1328   .text.coap_opt_encode:0000000000000078 .L0 
C:\Users\stapi\AppData\Local\Temp\ccUNtjmY.s:1330   .text.coap_opt_encode:000000000000007c .L0 
C:\Users\stapi\AppData\Local\Temp\ccUNtjmY.s:1331   .text.coap_opt_encode:000000000000007c .L0 
C:\Users\stapi\AppData\Local\Temp\ccUNtjmY.s:1336   .text.coap_opt_encode:000000000000008a .L0 
C:\Users\stapi\AppData\Local\Temp\ccUNtjmY.s:1344   .text.coap_opt_encode:000000000000009e .L0 
C:\Users\stapi\AppData\Local\Temp\ccUNtjmY.s:1345   .text.coap_opt_encode:000000000000009e .L0 
C:\Users\stapi\AppData\Local\Temp\ccUNtjmY.s:1347   .text.coap_opt_encode:00000000000000a2 .L0 
C:\Users\stapi\AppData\Local\Temp\ccUNtjmY.s:1354   .text.coap_opt_encode:00000000000000b0 .L0 
C:\Users\stapi\AppData\Local\Temp\ccUNtjmY.s:1355   .text.coap_opt_encode:00000000000000b0 .L0 
C:\Users\stapi\AppData\Local\Temp\ccUNtjmY.s:1358   .text.coap_opt_encode:00000000000000b4 .L0 
C:\Users\stapi\AppData\Local\Temp\ccUNtjmY.s:1365   .text.coap_option_filter_clear:0000000000000000 coap_option_filter_clear
C:\Users\stapi\AppData\Local\Temp\ccUNtjmY.s:1368   .text.coap_option_filter_clear:0000000000000000 .L0 
C:\Users\stapi\AppData\Local\Temp\ccUNtjmY.s:1370   .text.coap_option_filter_clear:0000000000000000 .L0 
C:\Users\stapi\AppData\Local\Temp\ccUNtjmY.s:1371   .text.coap_option_filter_clear:0000000000000000 .L0 
C:\Users\stapi\AppData\Local\Temp\ccUNtjmY.s:1375   .text.coap_option_filter_clear:000000000000000c .L0 
C:\Users\stapi\AppData\Local\Temp\ccUNtjmY.s:1382   .text.coap_option_filter_set:0000000000000000 coap_option_filter_set
C:\Users\stapi\AppData\Local\Temp\ccUNtjmY.s:1385   .text.coap_option_filter_set:0000000000000000 .L0 
C:\Users\stapi\AppData\Local\Temp\ccUNtjmY.s:1387   .text.coap_option_filter_set:0000000000000000 .L0 
C:\Users\stapi\AppData\Local\Temp\ccUNtjmY.s:1388   .text.coap_option_filter_set:0000000000000000 .L0 
C:\Users\stapi\AppData\Local\Temp\ccUNtjmY.s:1389   .text.coap_option_filter_set:0000000000000000 .L0 
C:\Users\stapi\AppData\Local\Temp\ccUNtjmY.s:1392   .text.coap_option_filter_set:000000000000000a .L0 
C:\Users\stapi\AppData\Local\Temp\ccUNtjmY.s:1399   .text.coap_option_filter_unset:0000000000000000 coap_option_filter_unset
C:\Users\stapi\AppData\Local\Temp\ccUNtjmY.s:1402   .text.coap_option_filter_unset:0000000000000000 .L0 
C:\Users\stapi\AppData\Local\Temp\ccUNtjmY.s:1404   .text.coap_option_filter_unset:0000000000000000 .L0 
C:\Users\stapi\AppData\Local\Temp\ccUNtjmY.s:1405   .text.coap_option_filter_unset:0000000000000000 .L0 
C:\Users\stapi\AppData\Local\Temp\ccUNtjmY.s:1406   .text.coap_option_filter_unset:0000000000000000 .L0 
C:\Users\stapi\AppData\Local\Temp\ccUNtjmY.s:1409   .text.coap_option_filter_unset:000000000000000a .L0 
C:\Users\stapi\AppData\Local\Temp\ccUNtjmY.s:1416   .text.coap_option_filter_get:0000000000000000 coap_option_filter_get
C:\Users\stapi\AppData\Local\Temp\ccUNtjmY.s:1419   .text.coap_option_filter_get:0000000000000000 .L0 
C:\Users\stapi\AppData\Local\Temp\ccUNtjmY.s:1421   .text.coap_option_filter_get:0000000000000000 .L0 
C:\Users\stapi\AppData\Local\Temp\ccUNtjmY.s:1422   .text.coap_option_filter_get:0000000000000000 .L0 
C:\Users\stapi\AppData\Local\Temp\ccUNtjmY.s:1423   .text.coap_option_filter_get:0000000000000000 .L0 
C:\Users\stapi\AppData\Local\Temp\ccUNtjmY.s:1426   .text.coap_option_filter_get:000000000000000a .L0 
C:\Users\stapi\AppData\Local\Temp\ccUNtjmY.s:1437   .text.coap_option_next:0000000000000000 coap_option_next
C:\Users\stapi\AppData\Local\Temp\ccUNtjmY.s:1440   .text.coap_option_next:0000000000000000 .L0 
C:\Users\stapi\AppData\Local\Temp\ccUNtjmY.s:1442   .text.coap_option_next:0000000000000000 .L0 
C:\Users\stapi\AppData\Local\Temp\ccUNtjmY.s:1443   .text.coap_option_next:0000000000000008 .L0 
C:\Users\stapi\AppData\Local\Temp\ccUNtjmY.s:1444   .text.coap_option_next:0000000000000008 .L0 
C:\Users\stapi\AppData\Local\Temp\ccUNtjmY.s:1445   .text.coap_option_next:0000000000000008 .L0 
C:\Users\stapi\AppData\Local\Temp\ccUNtjmY.s:1446   .text.coap_option_next:0000000000000008 .L0 
C:\Users\stapi\AppData\Local\Temp\ccUNtjmY.s:1447   .text.coap_option_next:0000000000000008 .L0 
C:\Users\stapi\AppData\Local\Temp\ccUNtjmY.s:1449   .text.coap_option_next:0000000000000008 .L0 
C:\Users\stapi\AppData\Local\Temp\ccUNtjmY.s:1451   .text.coap_option_next:0000000000000008 .L0 
C:\Users\stapi\AppData\Local\Temp\ccUNtjmY.s:1452   .text.coap_option_next:0000000000000008 .L0 
C:\Users\stapi\AppData\Local\Temp\ccUNtjmY.s:1453   .text.coap_option_next:0000000000000008 .L0 
C:\Users\stapi\AppData\Local\Temp\ccUNtjmY.s:1454   .text.coap_option_next:0000000000000008 .L0 
C:\Users\stapi\AppData\Local\Temp\ccUNtjmY.s:1455   .text.coap_option_next:000000000000000a .L0 
C:\Users\stapi\AppData\Local\Temp\ccUNtjmY.s:1457   .text.coap_option_next:000000000000000a .L0 
C:\Users\stapi\AppData\Local\Temp\ccUNtjmY.s:1459   .text.coap_option_next:000000000000000c .L0 
C:\Users\stapi\AppData\Local\Temp\ccUNtjmY.s:1469   .text.coap_option_next:0000000000000020 .L0 
C:\Users\stapi\AppData\Local\Temp\ccUNtjmY.s:1479   .text.coap_option_next:0000000000000030 .L0 
C:\Users\stapi\AppData\Local\Temp\ccUNtjmY.s:1487   .text.coap_option_next:0000000000000036 .L0 
C:\Users\stapi\AppData\Local\Temp\ccUNtjmY.s:1488   .text.coap_option_next:0000000000000036 .L0 
C:\Users\stapi\AppData\Local\Temp\ccUNtjmY.s:1489   .text.coap_option_next:0000000000000036 .L0 
C:\Users\stapi\AppData\Local\Temp\ccUNtjmY.s:1490   .text.coap_option_next:0000000000000036 .L0 
C:\Users\stapi\AppData\Local\Temp\ccUNtjmY.s:1494   .text.coap_option_next:000000000000003a .L0 
C:\Users\stapi\AppData\Local\Temp\ccUNtjmY.s:1497   .text.coap_option_next:000000000000003e .L0 
C:\Users\stapi\AppData\Local\Temp\ccUNtjmY.s:1499   .text.coap_option_next:0000000000000040 .L0 
C:\Users\stapi\AppData\Local\Temp\ccUNtjmY.s:1501   .text.coap_option_next:0000000000000042 .L0 
C:\Users\stapi\AppData\Local\Temp\ccUNtjmY.s:1511   .text.coap_option_next:000000000000004e .L0 
C:\Users\stapi\AppData\Local\Temp\ccUNtjmY.s:1512   .text.coap_option_next:000000000000004e .L0 
C:\Users\stapi\AppData\Local\Temp\ccUNtjmY.s:1519   .text.coap_option_next:000000000000005a .L0 
C:\Users\stapi\AppData\Local\Temp\ccUNtjmY.s:1520   .text.coap_option_next:000000000000005a .L0 
C:\Users\stapi\AppData\Local\Temp\ccUNtjmY.s:1527   .text.coap_option_next:000000000000005e .L0 
C:\Users\stapi\AppData\Local\Temp\ccUNtjmY.s:1528   .text.coap_option_next:000000000000005e .L0 
C:\Users\stapi\AppData\Local\Temp\ccUNtjmY.s:1532   .text.coap_option_next:0000000000000062 .L0 
C:\Users\stapi\AppData\Local\Temp\ccUNtjmY.s:1537   .text.coap_option_next:0000000000000066 .L0 
C:\Users\stapi\AppData\Local\Temp\ccUNtjmY.s:1540   .text.coap_option_next:000000000000006a .L0 
C:\Users\stapi\AppData\Local\Temp\ccUNtjmY.s:1541   .text.coap_option_next:000000000000006a .L0 
C:\Users\stapi\AppData\Local\Temp\ccUNtjmY.s:1542   .text.coap_option_next:000000000000006a .L0 
C:\Users\stapi\AppData\Local\Temp\ccUNtjmY.s:1545   .text.coap_option_next:000000000000006c .L0 
C:\Users\stapi\AppData\Local\Temp\ccUNtjmY.s:1546   .text.coap_option_next:000000000000006c .L0 
C:\Users\stapi\AppData\Local\Temp\ccUNtjmY.s:1552   .text.coap_option_next:000000000000007a .L0 
C:\Users\stapi\AppData\Local\Temp\ccUNtjmY.s:1553   .text.coap_option_next:000000000000007a .L0 
C:\Users\stapi\AppData\Local\Temp\ccUNtjmY.s:1555   .text.coap_option_next:000000000000007c .L0 
C:\Users\stapi\AppData\Local\Temp\ccUNtjmY.s:1565   .text.coap_option_next:0000000000000098 .L0 
C:\Users\stapi\AppData\Local\Temp\ccUNtjmY.s:1566   .text.coap_option_next:0000000000000098 .L0 
C:\Users\stapi\AppData\Local\Temp\ccUNtjmY.s:1568   .text.coap_option_next:000000000000009a .L0 
C:\Users\stapi\AppData\Local\Temp\ccUNtjmY.s:1570   .text.coap_option_next:000000000000009e .L0 
C:\Users\stapi\AppData\Local\Temp\ccUNtjmY.s:1572   .text.coap_option_next:00000000000000a0 .L0 
C:\Users\stapi\AppData\Local\Temp\ccUNtjmY.s:1575   .text.coap_option_next:00000000000000a4 .L0 
C:\Users\stapi\AppData\Local\Temp\ccUNtjmY.s:1577   .text.coap_option_next:00000000000000a8 .L0 
C:\Users\stapi\AppData\Local\Temp\ccUNtjmY.s:1579   .text.coap_option_next:00000000000000aa .L0 
C:\Users\stapi\AppData\Local\Temp\ccUNtjmY.s:1580   .text.coap_option_next:00000000000000aa .L0 
C:\Users\stapi\AppData\Local\Temp\ccUNtjmY.s:1582   .text.coap_option_next:00000000000000ac .L0 
C:\Users\stapi\AppData\Local\Temp\ccUNtjmY.s:1583   .text.coap_option_next:00000000000000ac .L0 
C:\Users\stapi\AppData\Local\Temp\ccUNtjmY.s:1585   .text.coap_option_next:00000000000000ae .L0 
C:\Users\stapi\AppData\Local\Temp\ccUNtjmY.s:1587   .text.coap_option_next:00000000000000b2 .L0 
C:\Users\stapi\AppData\Local\Temp\ccUNtjmY.s:1590   .text.coap_option_next:00000000000000ba .L0 
C:\Users\stapi\AppData\Local\Temp\ccUNtjmY.s:1591   .text.coap_option_next:00000000000000ba .L0 
C:\Users\stapi\AppData\Local\Temp\ccUNtjmY.s:1598   .text.coap_option_next:00000000000000be .L0 
C:\Users\stapi\AppData\Local\Temp\ccUNtjmY.s:1600   .text.coap_option_next:00000000000000c2 .L0 
C:\Users\stapi\AppData\Local\Temp\ccUNtjmY.s:1601   .text.coap_option_next:00000000000000c2 .L0 
C:\Users\stapi\AppData\Local\Temp\ccUNtjmY.s:1603   .text.coap_option_next:00000000000000ca .L0 
C:\Users\stapi\AppData\Local\Temp\ccUNtjmY.s:1604   .text.coap_option_next:00000000000000ca .L0 
C:\Users\stapi\AppData\Local\Temp\ccUNtjmY.s:1605   .text.coap_option_next:00000000000000ca .L0 
C:\Users\stapi\AppData\Local\Temp\ccUNtjmY.s:1606   .text.coap_option_next:00000000000000ca .L0 
C:\Users\stapi\AppData\Local\Temp\ccUNtjmY.s:1607   .text.coap_option_next:00000000000000ca .L0 
C:\Users\stapi\AppData\Local\Temp\ccUNtjmY.s:1610   .text.coap_option_next:00000000000000ca .L0 
C:\Users\stapi\AppData\Local\Temp\ccUNtjmY.s:1614   .text.coap_option_next:00000000000000ca .L0 
C:\Users\stapi\AppData\Local\Temp\ccUNtjmY.s:1618   .text.coap_option_next:00000000000000d4 .L0 
C:\Users\stapi\AppData\Local\Temp\ccUNtjmY.s:1622   .text.coap_option_next:00000000000000da .L0 
C:\Users\stapi\AppData\Local\Temp\ccUNtjmY.s:1629   .text.coap_check_option:0000000000000000 coap_check_option
C:\Users\stapi\AppData\Local\Temp\ccUNtjmY.s:1632   .text.coap_check_option:0000000000000000 .L0 
C:\Users\stapi\AppData\Local\Temp\ccUNtjmY.s:1634   .text.coap_check_option:0000000000000000 .L0 
C:\Users\stapi\AppData\Local\Temp\ccUNtjmY.s:1635   .text.coap_check_option:0000000000000008 .L0 
C:\Users\stapi\AppData\Local\Temp\ccUNtjmY.s:1636   .text.coap_check_option:0000000000000008 .L0 
C:\Users\stapi\AppData\Local\Temp\ccUNtjmY.s:1637   .text.coap_check_option:0000000000000008 .L0 
C:\Users\stapi\AppData\Local\Temp\ccUNtjmY.s:1638   .text.coap_check_option:0000000000000008 .L0 
C:\Users\stapi\AppData\Local\Temp\ccUNtjmY.s:1640   .text.coap_check_option:0000000000000008 .L0 
C:\Users\stapi\AppData\Local\Temp\ccUNtjmY.s:1641   .text.coap_check_option:0000000000000008 .L0 
C:\Users\stapi\AppData\Local\Temp\ccUNtjmY.s:1642   .text.coap_check_option:0000000000000008 .L0 
C:\Users\stapi\AppData\Local\Temp\ccUNtjmY.s:1643   .text.coap_check_option:000000000000000a .L0 
C:\Users\stapi\AppData\Local\Temp\ccUNtjmY.s:1645   .text.coap_check_option:000000000000000a .L0 
C:\Users\stapi\AppData\Local\Temp\ccUNtjmY.s:1647   .text.coap_check_option:000000000000000c .L0 
C:\Users\stapi\AppData\Local\Temp\ccUNtjmY.s:1650   .text.coap_check_option:000000000000000e .L0 
C:\Users\stapi\AppData\Local\Temp\ccUNtjmY.s:1653   .text.coap_check_option:0000000000000012 .L0 
C:\Users\stapi\AppData\Local\Temp\ccUNtjmY.s:1656   .text.coap_check_option:000000000000001a .L0 
C:\Users\stapi\AppData\Local\Temp\ccUNtjmY.s:1661   .text.coap_check_option:0000000000000026 .L0 
C:\Users\stapi\AppData\Local\Temp\ccUNtjmY.s:1667   .text.coap_check_option:0000000000000034 .L0 
C:\Users\stapi\AppData\Local\Temp\ccUNtjmY.s:1668   .text.coap_check_option:0000000000000034 .L0 
C:\Users\stapi\AppData\Local\Temp\ccUNtjmY.s:1672   .text.coap_check_option:000000000000003e .L0 
C:\Users\stapi\AppData\Local\Temp\ccUNtjmY.s:1673   .text.coap_check_option:0000000000000040 .L0 
C:\Users\stapi\AppData\Local\Temp\ccUNtjmY.s:1675   .text.coap_check_option:0000000000000048 .L0 
C:\Users\stapi\AppData\Local\Temp\ccUNtjmY.s:1676   .text.coap_check_option:0000000000000048 .L0 
C:\Users\stapi\AppData\Local\Temp\ccUNtjmY.s:1677   .text.coap_check_option:0000000000000048 .L0 
C:\Users\stapi\AppData\Local\Temp\ccUNtjmY.s:1678   .text.coap_check_option:0000000000000048 .L0 
C:\Users\stapi\AppData\Local\Temp\ccUNtjmY.s:1679   .text.coap_check_option:0000000000000048 .L0 
C:\Users\stapi\AppData\Local\Temp\ccUNtjmY.s:1690   .text.coap_new_optlist:0000000000000000 coap_new_optlist
C:\Users\stapi\AppData\Local\Temp\ccUNtjmY.s:1693   .text.coap_new_optlist:0000000000000000 .L0 
C:\Users\stapi\AppData\Local\Temp\ccUNtjmY.s:1695   .text.coap_new_optlist:0000000000000000 .L0 
C:\Users\stapi\AppData\Local\Temp\ccUNtjmY.s:1696   .text.coap_new_optlist:0000000000000008 .L0 
C:\Users\stapi\AppData\Local\Temp\ccUNtjmY.s:1697   .text.coap_new_optlist:0000000000000008 .L0 
C:\Users\stapi\AppData\Local\Temp\ccUNtjmY.s:1698   .text.coap_new_optlist:0000000000000008 .L0 
C:\Users\stapi\AppData\Local\Temp\ccUNtjmY.s:1699   .text.coap_new_optlist:0000000000000008 .L0 
C:\Users\stapi\AppData\Local\Temp\ccUNtjmY.s:1700   .text.coap_new_optlist:0000000000000008 .L0 
C:\Users\stapi\AppData\Local\Temp\ccUNtjmY.s:1701   .text.coap_new_optlist:0000000000000008 .L0 
C:\Users\stapi\AppData\Local\Temp\ccUNtjmY.s:1703   .text.coap_new_optlist:0000000000000008 .L0 
C:\Users\stapi\AppData\Local\Temp\ccUNtjmY.s:1704   .text.coap_new_optlist:0000000000000008 .L0 
C:\Users\stapi\AppData\Local\Temp\ccUNtjmY.s:1705   .text.coap_new_optlist:0000000000000008 .L0 
C:\Users\stapi\AppData\Local\Temp\ccUNtjmY.s:1707   .text.coap_new_optlist:000000000000000a .L0 
C:\Users\stapi\AppData\Local\Temp\ccUNtjmY.s:1710   .text.coap_new_optlist:000000000000000e .L0 
C:\Users\stapi\AppData\Local\Temp\ccUNtjmY.s:1711   .text.coap_new_optlist:0000000000000010 .L0 
C:\Users\stapi\AppData\Local\Temp\ccUNtjmY.s:1713   .text.coap_new_optlist:0000000000000010 .L0 
C:\Users\stapi\AppData\Local\Temp\ccUNtjmY.s:1716   .text.coap_new_optlist:0000000000000014 .L0 
C:\Users\stapi\AppData\Local\Temp\ccUNtjmY.s:1726   .text.coap_new_optlist:0000000000000024 .L0 
C:\Users\stapi\AppData\Local\Temp\ccUNtjmY.s:1727   .text.coap_new_optlist:0000000000000024 .L0 
C:\Users\stapi\AppData\Local\Temp\ccUNtjmY.s:1729   .text.coap_new_optlist:0000000000000026 .L0 
C:\Users\stapi\AppData\Local\Temp\ccUNtjmY.s:1734   .text.coap_new_optlist:0000000000000032 .L0 
C:\Users\stapi\AppData\Local\Temp\ccUNtjmY.s:1735   .text.coap_new_optlist:0000000000000032 .L0 
C:\Users\stapi\AppData\Local\Temp\ccUNtjmY.s:1737   .text.coap_new_optlist:0000000000000036 .L0 
C:\Users\stapi\AppData\Local\Temp\ccUNtjmY.s:1739   .text.coap_new_optlist:000000000000003a .L0 
C:\Users\stapi\AppData\Local\Temp\ccUNtjmY.s:1740   .text.coap_new_optlist:000000000000003a .L0 
C:\Users\stapi\AppData\Local\Temp\ccUNtjmY.s:1742   .text.coap_new_optlist:000000000000003c .L0 
C:\Users\stapi\AppData\Local\Temp\ccUNtjmY.s:1743   .text.coap_new_optlist:000000000000003c .L0 
C:\Users\stapi\AppData\Local\Temp\ccUNtjmY.s:1745   .text.coap_new_optlist:000000000000003e .L0 
C:\Users\stapi\AppData\Local\Temp\ccUNtjmY.s:1751   .text.coap_new_optlist:000000000000004a .L0 
C:\Users\stapi\AppData\Local\Temp\ccUNtjmY.s:1753   .text.coap_new_optlist:000000000000004e .L0 
C:\Users\stapi\AppData\Local\Temp\ccUNtjmY.s:1754   .text.coap_new_optlist:000000000000004e .L0 
C:\Users\stapi\AppData\Local\Temp\ccUNtjmY.s:1756   .text.coap_new_optlist:0000000000000056 .L0 
C:\Users\stapi\AppData\Local\Temp\ccUNtjmY.s:1757   .text.coap_new_optlist:0000000000000056 .L0 
C:\Users\stapi\AppData\Local\Temp\ccUNtjmY.s:1758   .text.coap_new_optlist:0000000000000056 .L0 
C:\Users\stapi\AppData\Local\Temp\ccUNtjmY.s:1759   .text.coap_new_optlist:0000000000000056 .L0 
C:\Users\stapi\AppData\Local\Temp\ccUNtjmY.s:1760   .text.coap_new_optlist:0000000000000056 .L0 
C:\Users\stapi\AppData\Local\Temp\ccUNtjmY.s:1761   .text.coap_new_optlist:0000000000000056 .L0 
C:\Users\stapi\AppData\Local\Temp\ccUNtjmY.s:1763   .text.coap_new_optlist:0000000000000056 .L0 
C:\Users\stapi\AppData\Local\Temp\ccUNtjmY.s:1765   .text.coap_new_optlist:0000000000000056 .L0 
C:\Users\stapi\AppData\Local\Temp\ccUNtjmY.s:1766   .text.coap_new_optlist:0000000000000056 .L0 
C:\Users\stapi\AppData\Local\Temp\ccUNtjmY.s:1771   .text.coap_new_optlist:0000000000000064 .L0 
C:\Users\stapi\AppData\Local\Temp\ccUNtjmY.s:1777   .text.coap_new_optlist:0000000000000076 .L0 
C:\Users\stapi\AppData\Local\Temp\ccUNtjmY.s:1778   .text.coap_new_optlist:0000000000000076 .L0 
C:\Users\stapi\AppData\Local\Temp\ccUNtjmY.s:1779   .text.coap_new_optlist:0000000000000076 .L0 
C:\Users\stapi\AppData\Local\Temp\ccUNtjmY.s:1780   .text.coap_new_optlist:0000000000000078 .L0 
C:\Users\stapi\AppData\Local\Temp\ccUNtjmY.s:1791   .text.coap_add_optlist_pdu:0000000000000000 coap_add_optlist_pdu
C:\Users\stapi\AppData\Local\Temp\ccUNtjmY.s:1794   .text.coap_add_optlist_pdu:0000000000000000 .L0 
C:\Users\stapi\AppData\Local\Temp\ccUNtjmY.s:1796   .text.coap_add_optlist_pdu:0000000000000000 .L0 
C:\Users\stapi\AppData\Local\Temp\ccUNtjmY.s:1797   .text.coap_add_optlist_pdu:0000000000000000 .L0 
C:\Users\stapi\AppData\Local\Temp\ccUNtjmY.s:1798   .text.coap_add_optlist_pdu:0000000000000000 .L0 
C:\Users\stapi\AppData\Local\Temp\ccUNtjmY.s:1799   .text.coap_add_optlist_pdu:0000000000000000 .L0 
C:\Users\stapi\AppData\Local\Temp\ccUNtjmY.s:1802   .text.coap_add_optlist_pdu:0000000000000002 .L0 
C:\Users\stapi\AppData\Local\Temp\ccUNtjmY.s:1805   .text.coap_add_optlist_pdu:0000000000000004 .L0 
C:\Users\stapi\AppData\Local\Temp\ccUNtjmY.s:1809   .text.coap_add_optlist_pdu:0000000000000006 .L0 
C:\Users\stapi\AppData\Local\Temp\ccUNtjmY.s:1812   .text.coap_add_optlist_pdu:000000000000000a .L0 
C:\Users\stapi\AppData\Local\Temp\ccUNtjmY.s:1813   .text.coap_add_optlist_pdu:0000000000000012 .L0 
C:\Users\stapi\AppData\Local\Temp\ccUNtjmY.s:1814   .text.coap_add_optlist_pdu:0000000000000012 .L0 
C:\Users\stapi\AppData\Local\Temp\ccUNtjmY.s:1815   .text.coap_add_optlist_pdu:0000000000000012 .L0 
C:\Users\stapi\AppData\Local\Temp\ccUNtjmY.s:1816   .text.coap_add_optlist_pdu:0000000000000012 .L0 
C:\Users\stapi\AppData\Local\Temp\ccUNtjmY.s:1818   .text.coap_add_optlist_pdu:0000000000000012 .L0 
C:\Users\stapi\AppData\Local\Temp\ccUNtjmY.s:1821   .text.coap_add_optlist_pdu:0000000000000016 .L0 
C:\Users\stapi\AppData\Local\Temp\ccUNtjmY.s:1822   .text.coap_add_optlist_pdu:0000000000000016 .L0 
C:\Users\stapi\AppData\Local\Temp\ccUNtjmY.s:1825   .text.coap_add_optlist_pdu:0000000000000018 .L0 
C:\Users\stapi\AppData\Local\Temp\ccUNtjmY.s:1826   .text.coap_add_optlist_pdu:0000000000000018 .L0 
C:\Users\stapi\AppData\Local\Temp\ccUNtjmY.s:1831   .text.coap_add_optlist_pdu:0000000000000026 .L0 
C:\Users\stapi\AppData\Local\Temp\ccUNtjmY.s:1838   .text.coap_add_optlist_pdu:0000000000000038 .L0 
C:\Users\stapi\AppData\Local\Temp\ccUNtjmY.s:1841   .text.coap_add_optlist_pdu:000000000000003a .L0 
C:\Users\stapi\AppData\Local\Temp\ccUNtjmY.s:1842   .text.coap_add_optlist_pdu:0000000000000042 .L0 
C:\Users\stapi\AppData\Local\Temp\ccUNtjmY.s:1843   .text.coap_add_optlist_pdu:0000000000000042 .L0 
C:\Users\stapi\AppData\Local\Temp\ccUNtjmY.s:1844   .text.coap_add_optlist_pdu:0000000000000042 .L0 
C:\Users\stapi\AppData\Local\Temp\ccUNtjmY.s:1845   .text.coap_add_optlist_pdu:0000000000000042 .L0 
C:\Users\stapi\AppData\Local\Temp\ccUNtjmY.s:1846   .text.coap_add_optlist_pdu:0000000000000042 .L0 
C:\Users\stapi\AppData\Local\Temp\ccUNtjmY.s:1849   .text.coap_add_optlist_pdu:0000000000000042 .L0 
C:\Users\stapi\AppData\Local\Temp\ccUNtjmY.s:1852   .text.coap_add_optlist_pdu:0000000000000042 .L0 
C:\Users\stapi\AppData\Local\Temp\ccUNtjmY.s:1857   .text.coap_add_optlist_pdu:0000000000000046 .L0 
C:\Users\stapi\AppData\Local\Temp\ccUNtjmY.s:1860   .text.coap_add_optlist_pdu:0000000000000048 .L0 
C:\Users\stapi\AppData\Local\Temp\ccUNtjmY.s:1864   .text.coap_add_optlist_pdu:000000000000004e .L0 
C:\Users\stapi\AppData\Local\Temp\ccUNtjmY.s:1865   .text.coap_add_optlist_pdu:000000000000004e .L0 
C:\Users\stapi\AppData\Local\Temp\ccUNtjmY.s:1866   .text.coap_add_optlist_pdu:000000000000004e .L0 
C:\Users\stapi\AppData\Local\Temp\ccUNtjmY.s:1870   .text.coap_add_optlist_pdu:0000000000000050 .L0 
C:\Users\stapi\AppData\Local\Temp\ccUNtjmY.s:1872   .text.coap_add_optlist_pdu:0000000000000052 .L0 
C:\Users\stapi\AppData\Local\Temp\ccUNtjmY.s:1874   .text.coap_add_optlist_pdu:0000000000000056 .L0 
C:\Users\stapi\AppData\Local\Temp\ccUNtjmY.s:1875   .text.coap_add_optlist_pdu:0000000000000056 .L0 
C:\Users\stapi\AppData\Local\Temp\ccUNtjmY.s:1878   .text.coap_add_optlist_pdu:000000000000005a .L0 
C:\Users\stapi\AppData\Local\Temp\ccUNtjmY.s:1880   .text.coap_add_optlist_pdu:000000000000005a .L0 
C:\Users\stapi\AppData\Local\Temp\ccUNtjmY.s:1881   .text.coap_add_optlist_pdu:000000000000005a .L0 
C:\Users\stapi\AppData\Local\Temp\ccUNtjmY.s:1884   .text.coap_add_optlist_pdu:000000000000005c .L0 
C:\Users\stapi\AppData\Local\Temp\ccUNtjmY.s:1887   .text.coap_add_optlist_pdu:0000000000000060 .L0 
C:\Users\stapi\AppData\Local\Temp\ccUNtjmY.s:1888   .text.coap_add_optlist_pdu:0000000000000060 .L0 
C:\Users\stapi\AppData\Local\Temp\ccUNtjmY.s:1892   .text.coap_add_optlist_pdu:0000000000000062 .L0 
C:\Users\stapi\AppData\Local\Temp\ccUNtjmY.s:1894   .text.coap_add_optlist_pdu:0000000000000064 .L0 
C:\Users\stapi\AppData\Local\Temp\ccUNtjmY.s:1900   .text.coap_add_optlist_pdu:0000000000000068 .L0 
C:\Users\stapi\AppData\Local\Temp\ccUNtjmY.s:1903   .text.coap_add_optlist_pdu:000000000000006a .L0 
C:\Users\stapi\AppData\Local\Temp\ccUNtjmY.s:1904   .text.coap_add_optlist_pdu:000000000000006a .L0 
C:\Users\stapi\AppData\Local\Temp\ccUNtjmY.s:1905   .text.coap_add_optlist_pdu:000000000000006a .L0 
C:\Users\stapi\AppData\Local\Temp\ccUNtjmY.s:1906   .text.coap_add_optlist_pdu:000000000000006a .L0 
C:\Users\stapi\AppData\Local\Temp\ccUNtjmY.s:1911   .text.coap_add_optlist_pdu:000000000000006e .L0 
C:\Users\stapi\AppData\Local\Temp\ccUNtjmY.s:1916   .text.coap_add_optlist_pdu:0000000000000072 .L0 
C:\Users\stapi\AppData\Local\Temp\ccUNtjmY.s:1917   .text.coap_add_optlist_pdu:0000000000000072 .L0 
C:\Users\stapi\AppData\Local\Temp\ccUNtjmY.s:1918   .text.coap_add_optlist_pdu:0000000000000072 .L0 
C:\Users\stapi\AppData\Local\Temp\ccUNtjmY.s:1919   .text.coap_add_optlist_pdu:0000000000000072 .L0 
C:\Users\stapi\AppData\Local\Temp\ccUNtjmY.s:1922   .text.coap_add_optlist_pdu:0000000000000074 .L0 
C:\Users\stapi\AppData\Local\Temp\ccUNtjmY.s:1926   .text.coap_add_optlist_pdu:0000000000000078 .L0 
C:\Users\stapi\AppData\Local\Temp\ccUNtjmY.s:1930   .text.coap_add_optlist_pdu:000000000000007a .L0 
C:\Users\stapi\AppData\Local\Temp\ccUNtjmY.s:1932   .text.coap_add_optlist_pdu:000000000000007c .L0 
C:\Users\stapi\AppData\Local\Temp\ccUNtjmY.s:1934   .text.coap_add_optlist_pdu:000000000000007e .L0 
C:\Users\stapi\AppData\Local\Temp\ccUNtjmY.s:1937   .text.coap_add_optlist_pdu:0000000000000080 .L0 
C:\Users\stapi\AppData\Local\Temp\ccUNtjmY.s:1943   .text.coap_add_optlist_pdu:0000000000000084 .L0 
C:\Users\stapi\AppData\Local\Temp\ccUNtjmY.s:1944   .text.coap_add_optlist_pdu:0000000000000084 .L0 
C:\Users\stapi\AppData\Local\Temp\ccUNtjmY.s:1946   .text.coap_add_optlist_pdu:0000000000000086 .L0 
C:\Users\stapi\AppData\Local\Temp\ccUNtjmY.s:1950   .text.coap_add_optlist_pdu:0000000000000088 .L0 
C:\Users\stapi\AppData\Local\Temp\ccUNtjmY.s:1951   .text.coap_add_optlist_pdu:0000000000000088 .L0 
C:\Users\stapi\AppData\Local\Temp\ccUNtjmY.s:1952   .text.coap_add_optlist_pdu:0000000000000088 .L0 
C:\Users\stapi\AppData\Local\Temp\ccUNtjmY.s:1953   .text.coap_add_optlist_pdu:0000000000000088 .L0 
C:\Users\stapi\AppData\Local\Temp\ccUNtjmY.s:1954   .text.coap_add_optlist_pdu:0000000000000088 .L0 
C:\Users\stapi\AppData\Local\Temp\ccUNtjmY.s:1961   .text.coap_add_optlist_pdu:000000000000008e .L0 
C:\Users\stapi\AppData\Local\Temp\ccUNtjmY.s:1963   .text.coap_add_optlist_pdu:0000000000000092 .L0 
C:\Users\stapi\AppData\Local\Temp\ccUNtjmY.s:1964   .text.coap_add_optlist_pdu:0000000000000092 .L0 
C:\Users\stapi\AppData\Local\Temp\ccUNtjmY.s:1967   .text.coap_add_optlist_pdu:0000000000000096 .L0 
C:\Users\stapi\AppData\Local\Temp\ccUNtjmY.s:1968   .text.coap_add_optlist_pdu:0000000000000096 .L0 
C:\Users\stapi\AppData\Local\Temp\ccUNtjmY.s:1976   .text.coap_add_optlist_pdu:000000000000009a .L0 
C:\Users\stapi\AppData\Local\Temp\ccUNtjmY.s:1977   .text.coap_add_optlist_pdu:000000000000009a .L0 
C:\Users\stapi\AppData\Local\Temp\ccUNtjmY.s:1978   .text.coap_add_optlist_pdu:000000000000009a .L0 
C:\Users\stapi\AppData\Local\Temp\ccUNtjmY.s:1979   .text.coap_add_optlist_pdu:000000000000009a .L0 
C:\Users\stapi\AppData\Local\Temp\ccUNtjmY.s:1980   .text.coap_add_optlist_pdu:000000000000009a .L0 
C:\Users\stapi\AppData\Local\Temp\ccUNtjmY.s:1983   .text.coap_add_optlist_pdu:000000000000009c .L0 
C:\Users\stapi\AppData\Local\Temp\ccUNtjmY.s:1984   .text.coap_add_optlist_pdu:000000000000009c .L0 
C:\Users\stapi\AppData\Local\Temp\ccUNtjmY.s:1986   .text.coap_add_optlist_pdu:00000000000000a0 .L0 
C:\Users\stapi\AppData\Local\Temp\ccUNtjmY.s:1988   .text.coap_add_optlist_pdu:00000000000000a4 .L0 
C:\Users\stapi\AppData\Local\Temp\ccUNtjmY.s:1992   .text.coap_add_optlist_pdu:00000000000000a8 .L0 
C:\Users\stapi\AppData\Local\Temp\ccUNtjmY.s:1996   .text.coap_add_optlist_pdu:00000000000000ac .L0 
C:\Users\stapi\AppData\Local\Temp\ccUNtjmY.s:1997   .text.coap_add_optlist_pdu:00000000000000ac .L0 
C:\Users\stapi\AppData\Local\Temp\ccUNtjmY.s:1998   .text.coap_add_optlist_pdu:00000000000000ac .L0 
C:\Users\stapi\AppData\Local\Temp\ccUNtjmY.s:1999   .text.coap_add_optlist_pdu:00000000000000ac .L0 
C:\Users\stapi\AppData\Local\Temp\ccUNtjmY.s:2000   .text.coap_add_optlist_pdu:00000000000000ac .L0 
C:\Users\stapi\AppData\Local\Temp\ccUNtjmY.s:2008   .text.coap_add_optlist_pdu:00000000000000b4 .L0 
C:\Users\stapi\AppData\Local\Temp\ccUNtjmY.s:2014   .text.coap_add_optlist_pdu:00000000000000ba .L0 
C:\Users\stapi\AppData\Local\Temp\ccUNtjmY.s:2021   .text.coap_add_optlist_pdu:00000000000000cc .L0 
C:\Users\stapi\AppData\Local\Temp\ccUNtjmY.s:2024   .text.coap_add_optlist_pdu:00000000000000d0 .L0 
C:\Users\stapi\AppData\Local\Temp\ccUNtjmY.s:2035   .text.coap_insert_optlist:0000000000000000 coap_insert_optlist
C:\Users\stapi\AppData\Local\Temp\ccUNtjmY.s:2038   .text.coap_insert_optlist:0000000000000000 .L0 
C:\Users\stapi\AppData\Local\Temp\ccUNtjmY.s:2040   .text.coap_insert_optlist:0000000000000000 .L0 
C:\Users\stapi\AppData\Local\Temp\ccUNtjmY.s:2041   .text.coap_insert_optlist:0000000000000008 .L0 
C:\Users\stapi\AppData\Local\Temp\ccUNtjmY.s:2042   .text.coap_insert_optlist:0000000000000008 .L0 
C:\Users\stapi\AppData\Local\Temp\ccUNtjmY.s:2043   .text.coap_insert_optlist:0000000000000008 .L0 
C:\Users\stapi\AppData\Local\Temp\ccUNtjmY.s:2045   .text.coap_insert_optlist:0000000000000008 .L0 
C:\Users\stapi\AppData\Local\Temp\ccUNtjmY.s:2046   .text.coap_insert_optlist:0000000000000008 .L0 
C:\Users\stapi\AppData\Local\Temp\ccUNtjmY.s:2048   .text.coap_insert_optlist:000000000000000a .L0 
C:\Users\stapi\AppData\Local\Temp\ccUNtjmY.s:2050   .text.coap_insert_optlist:000000000000000c .L0 
C:\Users\stapi\AppData\Local\Temp\ccUNtjmY.s:2051   .text.coap_insert_optlist:000000000000000c .L0 
C:\Users\stapi\AppData\Local\Temp\ccUNtjmY.s:2056   .text.coap_insert_optlist:000000000000001a .L0 
C:\Users\stapi\AppData\Local\Temp\ccUNtjmY.s:2063   .text.coap_insert_optlist:000000000000002c .L0 
C:\Users\stapi\AppData\Local\Temp\ccUNtjmY.s:2064   .text.coap_insert_optlist:000000000000002c .L0 
C:\Users\stapi\AppData\Local\Temp\ccUNtjmY.s:2065   .text.coap_insert_optlist:000000000000002c .L0 
C:\Users\stapi\AppData\Local\Temp\ccUNtjmY.s:2067   .text.coap_insert_optlist:0000000000000038 .L0 
C:\Users\stapi\AppData\Local\Temp\ccUNtjmY.s:2068   .text.coap_insert_optlist:0000000000000038 .L0 
C:\Users\stapi\AppData\Local\Temp\ccUNtjmY.s:2069   .text.coap_insert_optlist:0000000000000038 .L0 
C:\Users\stapi\AppData\Local\Temp\ccUNtjmY.s:2070   .text.coap_insert_optlist:0000000000000038 .L0 
C:\Users\stapi\AppData\Local\Temp\ccUNtjmY.s:2073   .text.coap_insert_optlist:0000000000000038 .L0 
C:\Users\stapi\AppData\Local\Temp\ccUNtjmY.s:2076   .text.coap_insert_optlist:0000000000000038 .L0 
C:\Users\stapi\AppData\Local\Temp\ccUNtjmY.s:2077   .text.coap_insert_optlist:0000000000000038 .L0 
C:\Users\stapi\AppData\Local\Temp\ccUNtjmY.s:2078   .text.coap_insert_optlist:0000000000000038 .L0 
C:\Users\stapi\AppData\Local\Temp\ccUNtjmY.s:2080   .text.coap_insert_optlist:000000000000003c .L0 
C:\Users\stapi\AppData\Local\Temp\ccUNtjmY.s:2085   .text.coap_insert_optlist:0000000000000040 .L0 
C:\Users\stapi\AppData\Local\Temp\ccUNtjmY.s:2090   .text.coap_insert_optlist:0000000000000046 .L0 
C:\Users\stapi\AppData\Local\Temp\ccUNtjmY.s:2095   .text.coap_insert_optlist:000000000000004a .L0 
C:\Users\stapi\AppData\Local\Temp\ccUNtjmY.s:2098   .text.coap_insert_optlist:000000000000004e .L0 
C:\Users\stapi\AppData\Local\Temp\ccUNtjmY.s:2105   .text.coap_delete_optlist:0000000000000000 coap_delete_optlist
C:\Users\stapi\AppData\Local\Temp\ccUNtjmY.s:2108   .text.coap_delete_optlist:0000000000000000 .L0 
C:\Users\stapi\AppData\Local\Temp\ccUNtjmY.s:2110   .text.coap_delete_optlist:0000000000000000 .L0 
C:\Users\stapi\AppData\Local\Temp\ccUNtjmY.s:2111   .text.coap_delete_optlist:0000000000000000 .L0 
C:\Users\stapi\AppData\Local\Temp\ccUNtjmY.s:2112   .text.coap_delete_optlist:0000000000000000 .L0 
C:\Users\stapi\AppData\Local\Temp\ccUNtjmY.s:2113   .text.coap_delete_optlist:0000000000000000 .L0 
C:\Users\stapi\AppData\Local\Temp\ccUNtjmY.s:2115   .text.coap_delete_optlist:0000000000000002 .L0 
C:\Users\stapi\AppData\Local\Temp\ccUNtjmY.s:2116   .text.coap_delete_optlist:000000000000000a .L0 
C:\Users\stapi\AppData\Local\Temp\ccUNtjmY.s:2117   .text.coap_delete_optlist:000000000000000a .L0 
C:\Users\stapi\AppData\Local\Temp\ccUNtjmY.s:2118   .text.coap_delete_optlist:000000000000000a .L0 
C:\Users\stapi\AppData\Local\Temp\ccUNtjmY.s:2124   .text.coap_delete_optlist:000000000000000e .L0 
C:\Users\stapi\AppData\Local\Temp\ccUNtjmY.s:2129   .text.coap_delete_optlist:0000000000000010 .L0 
C:\Users\stapi\AppData\Local\Temp\ccUNtjmY.s:2130   .text.coap_delete_optlist:0000000000000010 .L0 
C:\Users\stapi\AppData\Local\Temp\ccUNtjmY.s:2131   .text.coap_delete_optlist:0000000000000010 .L0 
C:\Users\stapi\AppData\Local\Temp\ccUNtjmY.s:2137   .text.coap_delete_optlist:000000000000001a .L0 
C:\Users\stapi\AppData\Local\Temp\ccUNtjmY.s:2138   .text.coap_delete_optlist:000000000000001a .L0 
C:\Users\stapi\AppData\Local\Temp\ccUNtjmY.s:2140   .text.coap_delete_optlist:000000000000001c .L0 
C:\Users\stapi\AppData\Local\Temp\ccUNtjmY.s:2141   .text.coap_delete_optlist:0000000000000024 .L0 
C:\Users\stapi\AppData\Local\Temp\ccUNtjmY.s:2142   .text.coap_delete_optlist:0000000000000024 .L0 
C:\Users\stapi\AppData\Local\Temp\ccUNtjmY.s:2143   .text.coap_delete_optlist:0000000000000024 .L0 
C:\Users\stapi\AppData\Local\Temp\ccUNtjmY.s:2147   .text.coap_delete_optlist:0000000000000026 .L0 
C:\Users\stapi\AppData\Local\Temp\ccUNtjmY.s:2152   .rodata.__func__.0:0000000000000000 .LANCHOR3
C:\Users\stapi\AppData\Local\Temp\ccUNtjmY.s:2155   .rodata.__func__.0:0000000000000000 __func__.0
C:\Users\stapi\AppData\Local\Temp\ccUNtjmY.s:2159   .rodata.__func__.1:0000000000000000 .LANCHOR2
C:\Users\stapi\AppData\Local\Temp\ccUNtjmY.s:2162   .rodata.__func__.1:0000000000000000 __func__.1
C:\Users\stapi\AppData\Local\Temp\ccUNtjmY.s:2166   .rodata.__func__.3:0000000000000000 .LANCHOR4
C:\Users\stapi\AppData\Local\Temp\ccUNtjmY.s:2169   .rodata.__func__.3:0000000000000000 __func__.3
C:\Users\stapi\AppData\Local\Temp\ccUNtjmY.s:2173   .rodata.__func__.4:0000000000000000 .LANCHOR1
C:\Users\stapi\AppData\Local\Temp\ccUNtjmY.s:2176   .rodata.__func__.4:0000000000000000 __func__.4
C:\Users\stapi\AppData\Local\Temp\ccUNtjmY.s:2180   .rodata.__func__.5:0000000000000000 .LANCHOR0
C:\Users\stapi\AppData\Local\Temp\ccUNtjmY.s:2183   .rodata.__func__.5:0000000000000000 __func__.5
C:\Users\stapi\AppData\Local\Temp\ccUNtjmY.s:188    .text.coap_option_filter_op:00000000000000c0 .L0 
C:\Users\stapi\AppData\Local\Temp\ccUNtjmY.s:508    .text.coap_opt_parse:0000000000000184 .L0 
C:\Users\stapi\AppData\Local\Temp\ccUNtjmY.s:651    .text.coap_option_iterator_init:00000000000000c4 .L0 
C:\Users\stapi\AppData\Local\Temp\ccUNtjmY.s:781    .text.coap_opt_length:00000000000000a8 .L0 
C:\Users\stapi\AppData\Local\Temp\ccUNtjmY.s:898    .text.coap_opt_value:0000000000000096 .L0 
C:\Users\stapi\AppData\Local\Temp\ccUNtjmY.s:929    .text.coap_opt_size:0000000000000020 .L0 
C:\Users\stapi\AppData\Local\Temp\ccUNtjmY.s:1172   .text.coap_opt_setheader:0000000000000134 .L0 
C:\Users\stapi\AppData\Local\Temp\ccUNtjmY.s:1225   .text.coap_opt_encode_size:000000000000002c .L0 
C:\Users\stapi\AppData\Local\Temp\ccUNtjmY.s:1361   .text.coap_opt_encode:00000000000000b4 .L0 
C:\Users\stapi\AppData\Local\Temp\ccUNtjmY.s:1378   .text.coap_option_filter_clear:000000000000000c .L0 
C:\Users\stapi\AppData\Local\Temp\ccUNtjmY.s:1395   .text.coap_option_filter_set:000000000000000a .L0 
C:\Users\stapi\AppData\Local\Temp\ccUNtjmY.s:1412   .text.coap_option_filter_unset:000000000000000a .L0 
C:\Users\stapi\AppData\Local\Temp\ccUNtjmY.s:1429   .text.coap_option_filter_get:000000000000000a .L0 
C:\Users\stapi\AppData\Local\Temp\ccUNtjmY.s:1625   .text.coap_option_next:00000000000000da .L0 
C:\Users\stapi\AppData\Local\Temp\ccUNtjmY.s:1682   .text.coap_check_option:0000000000000048 .L0 
C:\Users\stapi\AppData\Local\Temp\ccUNtjmY.s:1783   .text.coap_new_optlist:0000000000000078 .L0 
C:\Users\stapi\AppData\Local\Temp\ccUNtjmY.s:2027   .text.coap_add_optlist_pdu:00000000000000d0 .L0 
C:\Users\stapi\AppData\Local\Temp\ccUNtjmY.s:2101   .text.coap_insert_optlist:000000000000004e .L0 
C:\Users\stapi\AppData\Local\Temp\ccUNtjmY.s:2150   .text.coap_delete_optlist:0000000000000026 .L0 
                     .debug_frame:0000000000000000 .L0 
C:\Users\stapi\AppData\Local\Temp\ccUNtjmY.s:87     .text.coap_option_filter_op:000000000000004e .L2
C:\Users\stapi\AppData\Local\Temp\ccUNtjmY.s:48     .text.coap_option_filter_op:0000000000000026 .L3
C:\Users\stapi\AppData\Local\Temp\ccUNtjmY.s:67     .text.coap_option_filter_op:0000000000000038 .L30
C:\Users\stapi\AppData\Local\Temp\ccUNtjmY.s:135    .text.coap_option_filter_op:0000000000000082 .L13
C:\Users\stapi\AppData\Local\Temp\ccUNtjmY.s:121    .text.coap_option_filter_op:0000000000000076 .L5
C:\Users\stapi\AppData\Local\Temp\ccUNtjmY.s:78     .text.coap_option_filter_op:0000000000000046 .L1
C:\Users\stapi\AppData\Local\Temp\ccUNtjmY.s:104    .text.coap_option_filter_op:0000000000000066 .L7
C:\Users\stapi\AppData\Local\Temp\ccUNtjmY.s:95     .text.coap_option_filter_op:0000000000000058 .L8
C:\Users\stapi\AppData\Local\Temp\ccUNtjmY.s:140    .text.coap_option_filter_op:0000000000000086 .L9
C:\Users\stapi\AppData\Local\Temp\ccUNtjmY.s:130    .text.coap_option_filter_op:000000000000007e .L10
C:\Users\stapi\AppData\Local\Temp\ccUNtjmY.s:177    .text.coap_option_filter_op:00000000000000b8 .L11
C:\Users\stapi\AppData\Local\Temp\ccUNtjmY.s:164    .text.coap_option_filter_op:00000000000000a8 .L12
C:\Users\stapi\AppData\Local\Temp\ccUNtjmY.s:190    .rodata.coap_opt_parse.str1.4:0000000000000000 .LC0
C:\Users\stapi\AppData\Local\Temp\ccUNtjmY.s:193    .rodata.coap_opt_parse.str1.4:0000000000000004 .LC1
C:\Users\stapi\AppData\Local\Temp\ccUNtjmY.s:196    .rodata.coap_opt_parse.str1.4:0000000000000094 .LC2
C:\Users\stapi\AppData\Local\Temp\ccUNtjmY.s:199    .rodata.coap_opt_parse.str1.4:000000000000009c .LC3
C:\Users\stapi\AppData\Local\Temp\ccUNtjmY.s:208    .rodata.coap_opt_parse.str1.4:00000000000000f8 .LC6
C:\Users\stapi\AppData\Local\Temp\ccUNtjmY.s:202    .rodata.coap_opt_parse.str1.4:00000000000000c0 .LC4
C:\Users\stapi\AppData\Local\Temp\ccUNtjmY.s:205    .rodata.coap_opt_parse.str1.4:00000000000000d4 .LC5
C:\Users\stapi\AppData\Local\Temp\ccUNtjmY.s:241    .text.coap_opt_parse:000000000000002e .L32
C:\Users\stapi\AppData\Local\Temp\ccUNtjmY.s:254    .text.coap_opt_parse:0000000000000046 .L33
C:\Users\stapi\AppData\Local\Temp\ccUNtjmY.s:234    .text.coap_opt_parse:000000000000001e .L67
C:\Users\stapi\AppData\Local\Temp\ccUNtjmY.s:273    .text.coap_opt_parse:0000000000000052 .L34
C:\Users\stapi\AppData\Local\Temp\ccUNtjmY.s:321    .text.coap_opt_parse:00000000000000a8 .L36
C:\Users\stapi\AppData\Local\Temp\ccUNtjmY.s:298    .text.coap_opt_parse:000000000000007a .L37
C:\Users\stapi\AppData\Local\Temp\ccUNtjmY.s:434    .text.coap_opt_parse:0000000000000146 .L63
C:\Users\stapi\AppData\Local\Temp\ccUNtjmY.s:350    .text.coap_opt_parse:00000000000000ca .L38
C:\Users\stapi\AppData\Local\Temp\ccUNtjmY.s:259    .text.coap_opt_parse:0000000000000048 .L66
C:\Users\stapi\AppData\Local\Temp\ccUNtjmY.s:410    .text.coap_opt_parse:0000000000000116 .L41
C:\Users\stapi\AppData\Local\Temp\ccUNtjmY.s:444    .text.coap_opt_parse:0000000000000154 .L42
C:\Users\stapi\AppData\Local\Temp\ccUNtjmY.s:422    .text.coap_opt_parse:000000000000012e .L43
C:\Users\stapi\AppData\Local\Temp\ccUNtjmY.s:470    .text.coap_opt_parse:0000000000000168 .L44
C:\Users\stapi\AppData\Local\Temp\ccUNtjmY.s:494    .text.coap_opt_parse:000000000000017c .L47
C:\Users\stapi\AppData\Local\Temp\ccUNtjmY.s:314    .text.coap_opt_parse:000000000000009c .L65
C:\Users\stapi\AppData\Local\Temp\ccUNtjmY.s:441    .text.coap_opt_parse:0000000000000152 .L49
C:\Users\stapi\AppData\Local\Temp\ccUNtjmY.s:378    .text.coap_opt_parse:00000000000000ee .L69
C:\Users\stapi\AppData\Local\Temp\ccUNtjmY.s:380    .text.coap_opt_parse:00000000000000f2 .L45
C:\Users\stapi\AppData\Local\Temp\ccUNtjmY.s:264    .text.coap_opt_parse:000000000000004a .L31
C:\Users\stapi\AppData\Local\Temp\ccUNtjmY.s:510    .rodata.coap_option_iterator_init.str1.4:0000000000000000 .LC7
C:\Users\stapi\AppData\Local\Temp\ccUNtjmY.s:513    .rodata.coap_option_iterator_init.str1.4:0000000000000004 .LC8
C:\Users\stapi\AppData\Local\Temp\ccUNtjmY.s:516    .rodata.coap_option_iterator_init.str1.4:0000000000000010 .LC9
C:\Users\stapi\AppData\Local\Temp\ccUNtjmY.s:550    .text.coap_option_iterator_init:000000000000002e .L71
C:\Users\stapi\AppData\Local\Temp\ccUNtjmY.s:567    .text.coap_option_iterator_init:000000000000004a .L72
C:\Users\stapi\AppData\Local\Temp\ccUNtjmY.s:543    .text.coap_option_iterator_init:000000000000001e .L80
C:\Users\stapi\AppData\Local\Temp\ccUNtjmY.s:581    .text.coap_option_iterator_init:0000000000000064 .L73
C:\Users\stapi\AppData\Local\Temp\ccUNtjmY.s:626    .text.coap_option_iterator_init:000000000000009e .L74
C:\Users\stapi\AppData\Local\Temp\ccUNtjmY.s:615    .text.coap_option_iterator_init:0000000000000094 .L75
C:\Users\stapi\AppData\Local\Temp\ccUNtjmY.s:653    .rodata.coap_opt_length.str1.4:0000000000000000 .LC10
C:\Users\stapi\AppData\Local\Temp\ccUNtjmY.s:656    .rodata.coap_opt_length.str1.4:0000000000000018 .LC11
C:\Users\stapi\AppData\Local\Temp\ccUNtjmY.s:746    .text.coap_opt_length:000000000000007c .L82
C:\Users\stapi\AppData\Local\Temp\ccUNtjmY.s:715    .text.coap_opt_length:0000000000000050 .L83
C:\Users\stapi\AppData\Local\Temp\ccUNtjmY.s:691    .text.coap_opt_length:0000000000000030 .L85
C:\Users\stapi\AppData\Local\Temp\ccUNtjmY.s:764    .text.coap_opt_length:0000000000000098 .L88
C:\Users\stapi\AppData\Local\Temp\ccUNtjmY.s:752    .text.coap_opt_length:0000000000000080 .L89
C:\Users\stapi\AppData\Local\Temp\ccUNtjmY.s:726    .text.coap_opt_length:0000000000000060 .L81
C:\Users\stapi\AppData\Local\Temp\ccUNtjmY.s:733    .text.coap_opt_length:0000000000000068 .L86
C:\Users\stapi\AppData\Local\Temp\ccUNtjmY.s:723    .text.coap_opt_length:000000000000005e .L95
C:\Users\stapi\AppData\Local\Temp\ccUNtjmY.s:687    .text.coap_opt_length:000000000000002e .L84
C:\Users\stapi\AppData\Local\Temp\ccUNtjmY.s:739    .text.coap_opt_length:0000000000000070 .L94
C:\Users\stapi\AppData\Local\Temp\ccUNtjmY.s:705    .text.coap_opt_length:0000000000000048 .L91
C:\Users\stapi\AppData\Local\Temp\ccUNtjmY.s:862    .text.coap_opt_value:0000000000000070 .L107
C:\Users\stapi\AppData\Local\Temp\ccUNtjmY.s:831    .text.coap_opt_value:0000000000000044 .L98
C:\Users\stapi\AppData\Local\Temp\ccUNtjmY.s:873    .text.coap_opt_value:0000000000000076 .L108
C:\Users\stapi\AppData\Local\Temp\ccUNtjmY.s:890    .text.coap_opt_value:0000000000000092 .L102
C:\Users\stapi\AppData\Local\Temp\ccUNtjmY.s:878    .text.coap_opt_value:000000000000007a .L103
C:\Users\stapi\AppData\Local\Temp\ccUNtjmY.s:823    .text.coap_opt_value:0000000000000040 .L105
C:\Users\stapi\AppData\Local\Temp\ccUNtjmY.s:842    .text.coap_opt_value:0000000000000054 .L96
C:\Users\stapi\AppData\Local\Temp\ccUNtjmY.s:849    .text.coap_opt_value:000000000000005c .L100
C:\Users\stapi\AppData\Local\Temp\ccUNtjmY.s:839    .text.coap_opt_value:0000000000000052 .L111
C:\Users\stapi\AppData\Local\Temp\ccUNtjmY.s:808    .text.coap_opt_value:000000000000002a .L99
C:\Users\stapi\AppData\Local\Temp\ccUNtjmY.s:865    .text.coap_opt_value:0000000000000072 .L97
C:\Users\stapi\AppData\Local\Temp\ccUNtjmY.s:855    .text.coap_opt_value:0000000000000064 .L110
C:\Users\stapi\AppData\Local\Temp\ccUNtjmY.s:818    .text.coap_opt_value:000000000000003e .L104
C:\Users\stapi\AppData\Local\Temp\ccUNtjmY.s:931    .rodata.coap_opt_setheader.str1.4:0000000000000000 .LC12
C:\Users\stapi\AppData\Local\Temp\ccUNtjmY.s:934    .rodata.coap_opt_setheader.str1.4:0000000000000030 .LC13
C:\Users\stapi\AppData\Local\Temp\ccUNtjmY.s:968    .text.coap_opt_setheader:000000000000002e .L115
C:\Users\stapi\AppData\Local\Temp\ccUNtjmY.s:989    .text.coap_opt_setheader:000000000000003a .L116
C:\Users\stapi\AppData\Local\Temp\ccUNtjmY.s:1028   .text.coap_opt_setheader:0000000000000064 .L118
C:\Users\stapi\AppData\Local\Temp\ccUNtjmY.s:1095   .text.coap_opt_setheader:00000000000000cc .L124
C:\Users\stapi\AppData\Local\Temp\ccUNtjmY.s:978    .text.coap_opt_setheader:0000000000000032 .L114
C:\Users\stapi\AppData\Local\Temp\ccUNtjmY.s:1069   .text.coap_opt_setheader:00000000000000aa .L120
C:\Users\stapi\AppData\Local\Temp\ccUNtjmY.s:1055   .text.coap_opt_setheader:0000000000000096 .L121
C:\Users\stapi\AppData\Local\Temp\ccUNtjmY.s:973    .text.coap_opt_setheader:0000000000000030 .L134
C:\Users\stapi\AppData\Local\Temp\ccUNtjmY.s:1009   .text.coap_opt_setheader:000000000000004e .L119
C:\Users\stapi\AppData\Local\Temp\ccUNtjmY.s:1037   .text.coap_opt_setheader:0000000000000072 .L123
C:\Users\stapi\AppData\Local\Temp\ccUNtjmY.s:1140   .text.coap_opt_setheader:000000000000010e .L126
C:\Users\stapi\AppData\Local\Temp\ccUNtjmY.s:1117   .text.coap_opt_setheader:00000000000000f6 .L127
C:\Users\stapi\AppData\Local\Temp\ccUNtjmY.s:1048   .text.coap_opt_setheader:000000000000008a .L133
C:\Users\stapi\AppData\Local\Temp\ccUNtjmY.s:1021   .text.coap_opt_setheader:000000000000005e .L125
C:\Users\stapi\AppData\Local\Temp\ccUNtjmY.s:1129   .text.coap_opt_setheader:0000000000000104 .L132
C:\Users\stapi\AppData\Local\Temp\ccUNtjmY.s:1195   .text.coap_opt_encode_size:0000000000000012 .L136
C:\Users\stapi\AppData\Local\Temp\ccUNtjmY.s:1209   .text.coap_opt_encode_size:0000000000000022 .L137
C:\Users\stapi\AppData\Local\Temp\ccUNtjmY.s:1216   .text.coap_opt_encode_size:0000000000000028 .L138
C:\Users\stapi\AppData\Local\Temp\ccUNtjmY.s:1227   .rodata.coap_opt_encode.str1.4:0000000000000000 .LC14
C:\Users\stapi\AppData\Local\Temp\ccUNtjmY.s:1230   .rodata.coap_opt_encode.str1.4:000000000000000c .LC15
C:\Users\stapi\AppData\Local\Temp\ccUNtjmY.s:1233   .rodata.coap_opt_encode.str1.4:0000000000000038 .LC16
C:\Users\stapi\AppData\Local\Temp\ccUNtjmY.s:1280   .text.coap_opt_encode:0000000000000042 .L142
C:\Users\stapi\AppData\Local\Temp\ccUNtjmY.s:1319   .text.coap_opt_encode:0000000000000074 .L143
C:\Users\stapi\AppData\Local\Temp\ccUNtjmY.s:1299   .text.coap_opt_encode:0000000000000058 .L144
C:\Users\stapi\AppData\Local\Temp\ccUNtjmY.s:1306   .text.coap_opt_encode:000000000000006a .L141
C:\Users\stapi\AppData\Local\Temp\ccUNtjmY.s:1342   .text.coap_opt_encode:000000000000009e .L146
C:\Users\stapi\AppData\Local\Temp\ccUNtjmY.s:1293   .text.coap_opt_encode:0000000000000054 .L153
C:\Users\stapi\AppData\Local\Temp\ccUNtjmY.s:1352   .text.coap_opt_encode:00000000000000b0 .L148
C:\Users\stapi\AppData\Local\Temp\ccUNtjmY.s:1431   .rodata.coap_option_next.str1.4:0000000000000000 .LC17
C:\Users\stapi\AppData\Local\Temp\ccUNtjmY.s:1473   .text.coap_option_next:0000000000000030 .L163
C:\Users\stapi\AppData\Local\Temp\ccUNtjmY.s:1505   .text.coap_option_next:000000000000004e .L167
C:\Users\stapi\AppData\Local\Temp\ccUNtjmY.s:1523   .text.coap_option_next:000000000000005e .L165
C:\Users\stapi\AppData\Local\Temp\ccUNtjmY.s:1594   .text.coap_option_next:00000000000000be .L162
C:\Users\stapi\AppData\Local\Temp\ccUNtjmY.s:1516   .text.coap_option_next:000000000000005a .L172
C:\Users\stapi\AppData\Local\Temp\ccUNtjmY.s:1563   .text.coap_option_next:0000000000000098 .L168
C:\Users\stapi\AppData\Local\Temp\ccUNtjmY.s:1465   .text.coap_option_next:0000000000000020 .L185
C:\Users\stapi\AppData\Local\Temp\ccUNtjmY.s:1609   .text.coap_option_next:00000000000000ca .L183
C:\Users\stapi\AppData\Local\Temp\ccUNtjmY.s:1538   .text.coap_option_next:000000000000006a .L171
C:\Users\stapi\AppData\Local\Temp\ccUNtjmY.s:1684   .rodata.coap_new_optlist.str1.4:0000000000000000 .LC18
C:\Users\stapi\AppData\Local\Temp\ccUNtjmY.s:1762   .text.coap_new_optlist:0000000000000056 .L189
C:\Users\stapi\AppData\Local\Temp\ccUNtjmY.s:1749   .text.coap_new_optlist:000000000000004a .L188
C:\Users\stapi\AppData\Local\Temp\ccUNtjmY.s:1785   .rodata.coap_add_optlist_pdu.str1.4:0000000000000000 .LC19
C:\Users\stapi\AppData\Local\Temp\ccUNtjmY.s:1807   .text.coap_add_optlist_pdu:0000000000000006 .L193
C:\Users\stapi\AppData\Local\Temp\ccUNtjmY.s:1800   .text.coap_add_optlist_pdu:0000000000000002 .L237
C:\Users\stapi\AppData\Local\Temp\ccUNtjmY.s:1848   .text.coap_add_optlist_pdu:0000000000000042 .L215
C:\Users\stapi\AppData\Local\Temp\ccUNtjmY.s:1836   .text.coap_add_optlist_pdu:0000000000000038 .L240
C:\Users\stapi\AppData\Local\Temp\ccUNtjmY.s:1897   .text.coap_add_optlist_pdu:0000000000000068 .L211
C:\Users\stapi\AppData\Local\Temp\ccUNtjmY.s:1876   .text.coap_add_optlist_pdu:000000000000005a .L212
C:\Users\stapi\AppData\Local\Temp\ccUNtjmY.s:1854   .text.coap_add_optlist_pdu:0000000000000046 .L196
C:\Users\stapi\AppData\Local\Temp\ccUNtjmY.s:2011   .text.coap_add_optlist_pdu:00000000000000ba .L214
C:\Users\stapi\AppData\Local\Temp\ccUNtjmY.s:1839   .text.coap_add_optlist_pdu:000000000000003a .L192
C:\Users\stapi\AppData\Local\Temp\ccUNtjmY.s:1924   .text.coap_add_optlist_pdu:0000000000000078 .L198
C:\Users\stapi\AppData\Local\Temp\ccUNtjmY.s:1909   .text.coap_add_optlist_pdu:000000000000006e .L199
C:\Users\stapi\AppData\Local\Temp\ccUNtjmY.s:1941   .text.coap_add_optlist_pdu:0000000000000084 .L208
C:\Users\stapi\AppData\Local\Temp\ccUNtjmY.s:1935   .text.coap_add_optlist_pdu:0000000000000080 .L209
C:\Users\stapi\AppData\Local\Temp\ccUNtjmY.s:1994   .text.coap_add_optlist_pdu:00000000000000ac .L204
C:\Users\stapi\AppData\Local\Temp\ccUNtjmY.s:1868   .text.coap_add_optlist_pdu:0000000000000050 .L197
C:\Users\stapi\AppData\Local\Temp\ccUNtjmY.s:1947   .text.coap_add_optlist_pdu:0000000000000088 .L203
C:\Users\stapi\AppData\Local\Temp\ccUNtjmY.s:1972   .text.coap_add_optlist_pdu:000000000000009a .L202
C:\Users\stapi\AppData\Local\Temp\ccUNtjmY.s:2006   .text.coap_add_optlist_pdu:00000000000000b4 .L205
C:\Users\stapi\AppData\Local\Temp\ccUNtjmY.s:1928   .text.coap_add_optlist_pdu:000000000000007a .L207
C:\Users\stapi\AppData\Local\Temp\ccUNtjmY.s:1959   .text.coap_add_optlist_pdu:000000000000008e .L200
C:\Users\stapi\AppData\Local\Temp\ccUNtjmY.s:1966   .text.coap_add_optlist_pdu:0000000000000096 .L206
C:\Users\stapi\AppData\Local\Temp\ccUNtjmY.s:1890   .text.coap_add_optlist_pdu:0000000000000062 .L213
C:\Users\stapi\AppData\Local\Temp\ccUNtjmY.s:2029   .rodata.coap_insert_optlist.str1.4:0000000000000000 .LC20
C:\Users\stapi\AppData\Local\Temp\ccUNtjmY.s:2072   .text.coap_insert_optlist:0000000000000038 .L242
C:\Users\stapi\AppData\Local\Temp\ccUNtjmY.s:2061   .text.coap_insert_optlist:000000000000002c .L243
C:\Users\stapi\AppData\Local\Temp\ccUNtjmY.s:2093   .text.coap_insert_optlist:000000000000004a .L244
C:\Users\stapi\AppData\Local\Temp\ccUNtjmY.s:2082   .text.coap_insert_optlist:0000000000000040 .L245
C:\Users\stapi\AppData\Local\Temp\ccUNtjmY.s:2145   .text.coap_delete_optlist:0000000000000024 .L256
C:\Users\stapi\AppData\Local\Temp\ccUNtjmY.s:2121   .text.coap_delete_optlist:000000000000000c .L250
C:\Users\stapi\AppData\Local\Temp\ccUNtjmY.s:8464   .debug_abbrev:0000000000000000 .Ldebug_abbrev0
C:\Users\stapi\AppData\Local\Temp\ccUNtjmY.s:12543  .debug_str:0000000000000d8c .LASF549
C:\Users\stapi\AppData\Local\Temp\ccUNtjmY.s:12769  .debug_str:000000000000159b .LASF550
C:\Users\stapi\AppData\Local\Temp\ccUNtjmY.s:12319  .debug_str:0000000000000696 .LASF551
C:\Users\stapi\AppData\Local\Temp\ccUNtjmY.s:12005  .debug_ranges:0000000000000000 .Ldebug_ranges0
C:\Users\stapi\AppData\Local\Temp\ccUNtjmY.s:12083  .debug_line:0000000000000000 .Ldebug_line0
C:\Users\stapi\AppData\Local\Temp\ccUNtjmY.s:12315  .debug_str:0000000000000682 .LASF0
C:\Users\stapi\AppData\Local\Temp\ccUNtjmY.s:12239  .debug_str:0000000000000437 .LASF3
C:\Users\stapi\AppData\Local\Temp\ccUNtjmY.s:12335  .debug_str:0000000000000781 .LASF1
C:\Users\stapi\AppData\Local\Temp\ccUNtjmY.s:12961  .debug_str:0000000000001ba9 .LASF2
C:\Users\stapi\AppData\Local\Temp\ccUNtjmY.s:12405  .debug_str:0000000000000988 .LASF4
C:\Users\stapi\AppData\Local\Temp\ccUNtjmY.s:13111  .debug_str:0000000000002081 .LASF5
C:\Users\stapi\AppData\Local\Temp\ccUNtjmY.s:12263  .debug_str:00000000000004fd .LASF6
C:\Users\stapi\AppData\Local\Temp\ccUNtjmY.s:12621  .debug_str:000000000000110b .LASF7
C:\Users\stapi\AppData\Local\Temp\ccUNtjmY.s:12527  .debug_str:0000000000000d17 .LASF8
C:\Users\stapi\AppData\Local\Temp\ccUNtjmY.s:12623  .debug_str:0000000000001116 .LASF9
C:\Users\stapi\AppData\Local\Temp\ccUNtjmY.s:12523  .debug_str:0000000000000d02 .LASF10
C:\Users\stapi\AppData\Local\Temp\ccUNtjmY.s:12829  .debug_str:0000000000001801 .LASF11
C:\Users\stapi\AppData\Local\Temp\ccUNtjmY.s:12697  .debug_str:000000000000136f .LASF12
C:\Users\stapi\AppData\Local\Temp\ccUNtjmY.s:12317  .debug_str:000000000000068e .LASF13
C:\Users\stapi\AppData\Local\Temp\ccUNtjmY.s:12837  .debug_str:000000000000182d .LASF14
C:\Users\stapi\AppData\Local\Temp\ccUNtjmY.s:13071  .debug_str:0000000000001f49 .LASF15
C:\Users\stapi\AppData\Local\Temp\ccUNtjmY.s:12971  .debug_str:0000000000001c0c .LASF16
C:\Users\stapi\AppData\Local\Temp\ccUNtjmY.s:12097  .debug_str:0000000000000050 .LASF17
C:\Users\stapi\AppData\Local\Temp\ccUNtjmY.s:12429  .debug_str:0000000000000a24 .LASF18
C:\Users\stapi\AppData\Local\Temp\ccUNtjmY.s:12095  .debug_str:0000000000000047 .LASF19
C:\Users\stapi\AppData\Local\Temp\ccUNtjmY.s:12373  .debug_str:00000000000008be .LASF20
C:\Users\stapi\AppData\Local\Temp\ccUNtjmY.s:12229  .debug_str:00000000000003d3 .LASF21
C:\Users\stapi\AppData\Local\Temp\ccUNtjmY.s:13125  .debug_str:00000000000020fe .LASF22
C:\Users\stapi\AppData\Local\Temp\ccUNtjmY.s:12707  .debug_str:00000000000013b2 .LASF23
C:\Users\stapi\AppData\Local\Temp\ccUNtjmY.s:12905  .debug_str:00000000000019d0 .LASF24
C:\Users\stapi\AppData\Local\Temp\ccUNtjmY.s:12997  .debug_str:0000000000001cce .LASF25
C:\Users\stapi\AppData\Local\Temp\ccUNtjmY.s:12945  .debug_str:0000000000001b15 .LASF26
C:\Users\stapi\AppData\Local\Temp\ccUNtjmY.s:12691  .debug_str:0000000000001359 .LASF27
C:\Users\stapi\AppData\Local\Temp\ccUNtjmY.s:12929  .debug_str:0000000000001ab3 .LASF28
C:\Users\stapi\AppData\Local\Temp\ccUNtjmY.s:13167  .debug_str:0000000000002263 .LASF29
C:\Users\stapi\AppData\Local\Temp\ccUNtjmY.s:12225  .debug_str:00000000000003c4 .LASF30
C:\Users\stapi\AppData\Local\Temp\ccUNtjmY.s:12563  .debug_str:0000000000000f3a .LASF31
C:\Users\stapi\AppData\Local\Temp\ccUNtjmY.s:12503  .debug_str:0000000000000c84 .LASF32
C:\Users\stapi\AppData\Local\Temp\ccUNtjmY.s:12307  .debug_str:0000000000000628 .LASF33
C:\Users\stapi\AppData\Local\Temp\ccUNtjmY.s:12483  .debug_str:0000000000000bda .LASF34
C:\Users\stapi\AppData\Local\Temp\ccUNtjmY.s:12561  .debug_str:0000000000000f33 .LASF35
C:\Users\stapi\AppData\Local\Temp\ccUNtjmY.s:12103  .debug_str:0000000000000071 .LASF36
C:\Users\stapi\AppData\Local\Temp\ccUNtjmY.s:13169  .debug_str:0000000000002268 .LASF37
C:\Users\stapi\AppData\Local\Temp\ccUNtjmY.s:12835  .debug_str:0000000000001826 .LASF38
C:\Users\stapi\AppData\Local\Temp\ccUNtjmY.s:12739  .debug_str:00000000000014a9 .LASF39
C:\Users\stapi\AppData\Local\Temp\ccUNtjmY.s:12673  .debug_str:00000000000012cd .LASF40
C:\Users\stapi\AppData\Local\Temp\ccUNtjmY.s:12759  .debug_str:0000000000001538 .LASF41
C:\Users\stapi\AppData\Local\Temp\ccUNtjmY.s:12343  .debug_str:00000000000007d0 .LASF42
C:\Users\stapi\AppData\Local\Temp\ccUNtjmY.s:12605  .debug_str:000000000000108a .LASF43
C:\Users\stapi\AppData\Local\Temp\ccUNtjmY.s:12271  .debug_str:0000000000000532 .LASF44
C:\Users\stapi\AppData\Local\Temp\ccUNtjmY.s:13069  .debug_str:0000000000001f41 .LASF45
C:\Users\stapi\AppData\Local\Temp\ccUNtjmY.s:12727  .debug_str:0000000000001443 .LASF46
C:\Users\stapi\AppData\Local\Temp\ccUNtjmY.s:12133  .debug_str:000000000000012a .LASF47
C:\Users\stapi\AppData\Local\Temp\ccUNtjmY.s:12633  .debug_str:0000000000001171 .LASF48
C:\Users\stapi\AppData\Local\Temp\ccUNtjmY.s:12593  .debug_str:000000000000101a .LASF49
C:\Users\stapi\AppData\Local\Temp\ccUNtjmY.s:13029  .debug_str:0000000000001ded .LASF50
C:\Users\stapi\AppData\Local\Temp\ccUNtjmY.s:12803  .debug_str:0000000000001744 .LASF51
C:\Users\stapi\AppData\Local\Temp\ccUNtjmY.s:12831  .debug_str:0000000000001818 .LASF52
C:\Users\stapi\AppData\Local\Temp\ccUNtjmY.s:12331  .debug_str:0000000000000766 .LASF53
C:\Users\stapi\AppData\Local\Temp\ccUNtjmY.s:12295  .debug_str:00000000000005de .LASF54
C:\Users\stapi\AppData\Local\Temp\ccUNtjmY.s:12857  .debug_str:0000000000001898 .LASF55
C:\Users\stapi\AppData\Local\Temp\ccUNtjmY.s:12741  .debug_str:00000000000014b0 .LASF56
C:\Users\stapi\AppData\Local\Temp\ccUNtjmY.s:12585  .debug_str:0000000000000fe7 .LASF57
C:\Users\stapi\AppData\Local\Temp\ccUNtjmY.s:12125  .debug_str:00000000000000f3 .LASF58
C:\Users\stapi\AppData\Local\Temp\ccUNtjmY.s:12221  .debug_str:00000000000003b4 .LASF59
C:\Users\stapi\AppData\Local\Temp\ccUNtjmY.s:12811  .debug_str:000000000000177b .LASF60
C:\Users\stapi\AppData\Local\Temp\ccUNtjmY.s:12475  .debug_str:0000000000000bb5 .LASF61
C:\Users\stapi\AppData\Local\Temp\ccUNtjmY.s:12147  .debug_str:00000000000001ac .LASF62
C:\Users\stapi\AppData\Local\Temp\ccUNtjmY.s:12201  .debug_str:0000000000000340 .LASF63
C:\Users\stapi\AppData\Local\Temp\ccUNtjmY.s:12399  .debug_str:0000000000000959 .LASF64
C:\Users\stapi\AppData\Local\Temp\ccUNtjmY.s:12267  .debug_str:0000000000000513 .LASF65
C:\Users\stapi\AppData\Local\Temp\ccUNtjmY.s:12169  .debug_str:0000000000000255 .LASF66
C:\Users\stapi\AppData\Local\Temp\ccUNtjmY.s:12917  .debug_str:0000000000001a2f .LASF67
C:\Users\stapi\AppData\Local\Temp\ccUNtjmY.s:12827  .debug_str:00000000000017f5 .LASF68
C:\Users\stapi\AppData\Local\Temp\ccUNtjmY.s:12715  .debug_str:00000000000013ea .LASF69
C:\Users\stapi\AppData\Local\Temp\ccUNtjmY.s:12101  .debug_str:0000000000000063 .LASF70
C:\Users\stapi\AppData\Local\Temp\ccUNtjmY.s:12449  .debug_str:0000000000000aca .LASF71
C:\Users\stapi\AppData\Local\Temp\ccUNtjmY.s:13013  .debug_str:0000000000001d6c .LASF72
C:\Users\stapi\AppData\Local\Temp\ccUNtjmY.s:12413  .debug_str:00000000000009be .LASF73
C:\Users\stapi\AppData\Local\Temp\ccUNtjmY.s:12409  .debug_str:00000000000009a3 .LASF74
C:\Users\stapi\AppData\Local\Temp\ccUNtjmY.s:12847  .debug_str:000000000000185f .LASF75
C:\Users\stapi\AppData\Local\Temp\ccUNtjmY.s:12385  .debug_str:0000000000000909 .LASF76
C:\Users\stapi\AppData\Local\Temp\ccUNtjmY.s:13033  .debug_str:0000000000001e08 .LASF77
C:\Users\stapi\AppData\Local\Temp\ccUNtjmY.s:13005  .debug_str:0000000000001d22 .LASF78
C:\Users\stapi\AppData\Local\Temp\ccUNtjmY.s:12227  .debug_str:00000000000003ca .LASF79
C:\Users\stapi\AppData\Local\Temp\ccUNtjmY.s:13001  .debug_str:0000000000001d06 .LASF80
C:\Users\stapi\AppData\Local\Temp\ccUNtjmY.s:12851  .debug_str:0000000000001878 .LASF81
C:\Users\stapi\AppData\Local\Temp\ccUNtjmY.s:12419  .debug_str:00000000000009e9 .LASF82
C:\Users\stapi\AppData\Local\Temp\ccUNtjmY.s:12841  .debug_str:000000000000183d .LASF83
C:\Users\stapi\AppData\Local\Temp\ccUNtjmY.s:12867  .debug_str:00000000000018e9 .LASF84
C:\Users\stapi\AppData\Local\Temp\ccUNtjmY.s:12737  .debug_str:00000000000014a3 .LASF85
C:\Users\stapi\AppData\Local\Temp\ccUNtjmY.s:12849  .debug_str:0000000000001869 .LASF86
C:\Users\stapi\AppData\Local\Temp\ccUNtjmY.s:12485  .debug_str:0000000000000be3 .LASF87
C:\Users\stapi\AppData\Local\Temp\ccUNtjmY.s:12607  .debug_str:0000000000001093 .LASF88
C:\Users\stapi\AppData\Local\Temp\ccUNtjmY.s:12231  .debug_str:00000000000003db .LASF89
C:\Users\stapi\AppData\Local\Temp\ccUNtjmY.s:12155  .debug_str:00000000000001f3 .LASF90
C:\Users\stapi\AppData\Local\Temp\ccUNtjmY.s:13153  .debug_str:00000000000021df .LASF91
C:\Users\stapi\AppData\Local\Temp\ccUNtjmY.s:13081  .debug_str:0000000000001f7e .LASF92
C:\Users\stapi\AppData\Local\Temp\ccUNtjmY.s:12981  .debug_str:0000000000001c54 .LASF93
C:\Users\stapi\AppData\Local\Temp\ccUNtjmY.s:12565  .debug_str:0000000000000f42 .LASF94
C:\Users\stapi\AppData\Local\Temp\ccUNtjmY.s:12161  .debug_str:0000000000000222 .LASF95
C:\Users\stapi\AppData\Local\Temp\ccUNtjmY.s:13003  .debug_str:0000000000001d17 .LASF96
C:\Users\stapi\AppData\Local\Temp\ccUNtjmY.s:13175  .debug_str:0000000000002289 .LASF97
C:\Users\stapi\AppData\Local\Temp\ccUNtjmY.s:13181  .debug_str:00000000000022ae .LASF98
C:\Users\stapi\AppData\Local\Temp\ccUNtjmY.s:12813  .debug_str:0000000000001785 .LASF99
C:\Users\stapi\AppData\Local\Temp\ccUNtjmY.s:12521  .debug_str:0000000000000cf5 .LASF100
C:\Users\stapi\AppData\Local\Temp\ccUNtjmY.s:12705  .debug_str:00000000000013a5 .LASF101
C:\Users\stapi\AppData\Local\Temp\ccUNtjmY.s:12209  .debug_str:0000000000000362 .LASF102
C:\Users\stapi\AppData\Local\Temp\ccUNtjmY.s:12903  .debug_str:00000000000019c2 .LASF103
C:\Users\stapi\AppData\Local\Temp\ccUNtjmY.s:13063  .debug_str:0000000000001f02 .LASF104
C:\Users\stapi\AppData\Local\Temp\ccUNtjmY.s:12751  .debug_str:0000000000001509 .LASF105
C:\Users\stapi\AppData\Local\Temp\ccUNtjmY.s:12711  .debug_str:00000000000013c8 .LASF106
C:\Users\stapi\AppData\Local\Temp\ccUNtjmY.s:12595  .debug_str:0000000000001026 .LASF107
C:\Users\stapi\AppData\Local\Temp\ccUNtjmY.s:12629  .debug_str:0000000000001141 .LASF108
C:\Users\stapi\AppData\Local\Temp\ccUNtjmY.s:13173  .debug_str:0000000000002278 .LASF109
C:\Users\stapi\AppData\Local\Temp\ccUNtjmY.s:13039  .debug_str:0000000000001e3a .LASF110
C:\Users\stapi\AppData\Local\Temp\ccUNtjmY.s:12191  .debug_str:00000000000002f2 .LASF111
C:\Users\stapi\AppData\Local\Temp\ccUNtjmY.s:12955  .debug_str:0000000000001b5e .LASF112
C:\Users\stapi\AppData\Local\Temp\ccUNtjmY.s:12569  .debug_str:0000000000000f5d .LASF113
C:\Users\stapi\AppData\Local\Temp\ccUNtjmY.s:13101  .debug_str:0000000000002032 .LASF114
C:\Users\stapi\AppData\Local\Temp\ccUNtjmY.s:12171  .debug_str:0000000000000264 .LASF115
C:\Users\stapi\AppData\Local\Temp\ccUNtjmY.s:13011  .debug_str:0000000000001d5f .LASF116
C:\Users\stapi\AppData\Local\Temp\ccUNtjmY.s:13025  .debug_str:0000000000001dd7 .LASF117
C:\Users\stapi\AppData\Local\Temp\ccUNtjmY.s:12433  .debug_str:0000000000000a40 .LASF118
C:\Users\stapi\AppData\Local\Temp\ccUNtjmY.s:12787  .debug_str:0000000000001693 .LASF119
C:\Users\stapi\AppData\Local\Temp\ccUNtjmY.s:12809  .debug_str:0000000000001766 .LASF120
C:\Users\stapi\AppData\Local\Temp\ccUNtjmY.s:12939  .debug_str:0000000000001af5 .LASF121
C:\Users\stapi\AppData\Local\Temp\ccUNtjmY.s:13187  .debug_str:00000000000022e0 .LASF122
C:\Users\stapi\AppData\Local\Temp\ccUNtjmY.s:12777  .debug_str:0000000000001655 .LASF123
C:\Users\stapi\AppData\Local\Temp\ccUNtjmY.s:12241  .debug_str:0000000000000441 .LASF124
C:\Users\stapi\AppData\Local\Temp\ccUNtjmY.s:12573  .debug_str:0000000000000f7d .LASF125
C:\Users\stapi\AppData\Local\Temp\ccUNtjmY.s:12479  .debug_str:0000000000000bc4 .LASF126
C:\Users\stapi\AppData\Local\Temp\ccUNtjmY.s:12505  .debug_str:0000000000000c8c .LASF127
C:\Users\stapi\AppData\Local\Temp\ccUNtjmY.s:12199  .debug_str:0000000000000330 .LASF128
C:\Users\stapi\AppData\Local\Temp\ccUNtjmY.s:12925  .debug_str:0000000000001a7b .LASF129
C:\Users\stapi\AppData\Local\Temp\ccUNtjmY.s:12609  .debug_str:000000000000109d .LASF130
C:\Users\stapi\AppData\Local\Temp\ccUNtjmY.s:12325  .debug_str:0000000000000739 .LASF131
C:\Users\stapi\AppData\Local\Temp\ccUNtjmY.s:12305  .debug_str:000000000000061b .LASF132
C:\Users\stapi\AppData\Local\Temp\ccUNtjmY.s:12599  .debug_str:000000000000104b .LASF133
C:\Users\stapi\AppData\Local\Temp\ccUNtjmY.s:12247  .debug_str:000000000000047b .LASF134
C:\Users\stapi\AppData\Local\Temp\ccUNtjmY.s:12685  .debug_str:000000000000132b .LASF135
C:\Users\stapi\AppData\Local\Temp\ccUNtjmY.s:12421  .debug_str:00000000000009ef .LASF136
C:\Users\stapi\AppData\Local\Temp\ccUNtjmY.s:12205  .debug_str:0000000000000355 .LASF137
C:\Users\stapi\AppData\Local\Temp\ccUNtjmY.s:12901  .debug_str:00000000000019bd .LASF138
C:\Users\stapi\AppData\Local\Temp\ccUNtjmY.s:12947  .debug_str:0000000000001b1a .LASF139
C:\Users\stapi\AppData\Local\Temp\ccUNtjmY.s:12187  .debug_str:00000000000002e3 .LASF140
C:\Users\stapi\AppData\Local\Temp\ccUNtjmY.s:12745  .debug_str:00000000000014df .LASF141
C:\Users\stapi\AppData\Local\Temp\ccUNtjmY.s:12507  .debug_str:0000000000000c98 .LASF142
C:\Users\stapi\AppData\Local\Temp\ccUNtjmY.s:13105  .debug_str:0000000000002055 .LASF143
C:\Users\stapi\AppData\Local\Temp\ccUNtjmY.s:13049  .debug_str:0000000000001e8a .LASF144
C:\Users\stapi\AppData\Local\Temp\ccUNtjmY.s:12167  .debug_str:000000000000024a .LASF145
C:\Users\stapi\AppData\Local\Temp\ccUNtjmY.s:12109  .debug_str:0000000000000093 .LASF146
C:\Users\stapi\AppData\Local\Temp\ccUNtjmY.s:12349  .debug_str:0000000000000807 .LASF147
C:\Users\stapi\AppData\Local\Temp\ccUNtjmY.s:13095  .debug_str:0000000000002003 .LASF148
C:\Users\stapi\AppData\Local\Temp\ccUNtjmY.s:12387  .debug_str:0000000000000912 .LASF149
C:\Users\stapi\AppData\Local\Temp\ccUNtjmY.s:12175  .debug_str:0000000000000289 .LASF150
C:\Users\stapi\AppData\Local\Temp\ccUNtjmY.s:13163  .debug_str:000000000000224e .LASF151
C:\Users\stapi\AppData\Local\Temp\ccUNtjmY.s:12703  .debug_str:000000000000139a .LASF152
C:\Users\stapi\AppData\Local\Temp\ccUNtjmY.s:12695  .debug_str:0000000000001367 .LASF153
C:\Users\stapi\AppData\Local\Temp\ccUNtjmY.s:12977  .debug_str:0000000000001c2c .LASF154
C:\Users\stapi\AppData\Local\Temp\ccUNtjmY.s:12941  .debug_str:0000000000001b08 .LASF155
C:\Users\stapi\AppData\Local\Temp\ccUNtjmY.s:12367  .debug_str:0000000000000885 .LASF156
C:\Users\stapi\AppData\Local\Temp\ccUNtjmY.s:12571  .debug_str:0000000000000f6d .LASF157
C:\Users\stapi\AppData\Local\Temp\ccUNtjmY.s:13149  .debug_str:00000000000021ca .LASF158
C:\Users\stapi\AppData\Local\Temp\ccUNtjmY.s:12755  .debug_str:0000000000001522 .LASF159
C:\Users\stapi\AppData\Local\Temp\ccUNtjmY.s:12397  .debug_str:000000000000094e .LASF160
C:\Users\stapi\AppData\Local\Temp\ccUNtjmY.s:12243  .debug_str:000000000000044a .LASF161
C:\Users\stapi\AppData\Local\Temp\ccUNtjmY.s:12111  .debug_str:000000000000009d .LASF162
C:\Users\stapi\AppData\Local\Temp\ccUNtjmY.s:12965  .debug_str:0000000000001bd8 .LASF163
C:\Users\stapi\AppData\Local\Temp\ccUNtjmY.s:12361  .debug_str:000000000000085c .LASF164
C:\Users\stapi\AppData\Local\Temp\ccUNtjmY.s:12195  .debug_str:0000000000000313 .LASF165
C:\Users\stapi\AppData\Local\Temp\ccUNtjmY.s:12179  .debug_str:000000000000029e .LASF166
C:\Users\stapi\AppData\Local\Temp\ccUNtjmY.s:12323  .debug_str:0000000000000731 .LASF167
C:\Users\stapi\AppData\Local\Temp\ccUNtjmY.s:12875  .debug_str:0000000000001923 .LASF168
C:\Users\stapi\AppData\Local\Temp\ccUNtjmY.s:12657  .debug_str:0000000000001241 .LASF169
C:\Users\stapi\AppData\Local\Temp\ccUNtjmY.s:12107  .debug_str:0000000000000089 .LASF170
C:\Users\stapi\AppData\Local\Temp\ccUNtjmY.s:12453  .debug_str:0000000000000aee .LASF171
C:\Users\stapi\AppData\Local\Temp\ccUNtjmY.s:12261  .debug_str:00000000000004f6 .LASF172
C:\Users\stapi\AppData\Local\Temp\ccUNtjmY.s:12717  .debug_str:00000000000013ef .LASF173
C:\Users\stapi\AppData\Local\Temp\ccUNtjmY.s:12129  .debug_str:000000000000010e .LASF174
C:\Users\stapi\AppData\Local\Temp\ccUNtjmY.s:13083  .debug_str:0000000000001f8a .LASF175
C:\Users\stapi\AppData\Local\Temp\ccUNtjmY.s:12519  .debug_str:0000000000000ce9 .LASF176
C:\Users\stapi\AppData\Local\Temp\ccUNtjmY.s:12259  .debug_str:00000000000004f1 .LASF177
C:\Users\stapi\AppData\Local\Temp\ccUNtjmY.s:12277  .debug_str:0000000000000558 .LASF178
C:\Users\stapi\AppData\Local\Temp\ccUNtjmY.s:13191  .debug_str:00000000000022fc .LASF179
C:\Users\stapi\AppData\Local\Temp\ccUNtjmY.s:12189  .debug_str:00000000000002ec .LASF180
C:\Users\stapi\AppData\Local\Temp\ccUNtjmY.s:12869  .debug_str:00000000000018f4 .LASF181
C:\Users\stapi\AppData\Local\Temp\ccUNtjmY.s:13047  .debug_str:0000000000001e7e .LASF182
C:\Users\stapi\AppData\Local\Temp\ccUNtjmY.s:12363  .debug_str:0000000000000864 .LASF183
C:\Users\stapi\AppData\Local\Temp\ccUNtjmY.s:12985  .debug_str:0000000000001c81 .LASF184
C:\Users\stapi\AppData\Local\Temp\ccUNtjmY.s:12353  .debug_str:000000000000082c .LASF185
C:\Users\stapi\AppData\Local\Temp\ccUNtjmY.s:12733  .debug_str:0000000000001487 .LASF186
C:\Users\stapi\AppData\Local\Temp\ccUNtjmY.s:12497  .debug_str:0000000000000c53 .LASF187
C:\Users\stapi\AppData\Local\Temp\ccUNtjmY.s:12779  .debug_str:000000000000165d .LASF188
C:\Users\stapi\AppData\Local\Temp\ccUNtjmY.s:13117  .debug_str:00000000000020c8 .LASF189
C:\Users\stapi\AppData\Local\Temp\ccUNtjmY.s:12987  .debug_str:0000000000001c8b .LASF190
C:\Users\stapi\AppData\Local\Temp\ccUNtjmY.s:12899  .debug_str:00000000000019b5 .LASF191
C:\Users\stapi\AppData\Local\Temp\ccUNtjmY.s:12995  .debug_str:0000000000001cc6 .LASF192
C:\Users\stapi\AppData\Local\Temp\ccUNtjmY.s:12369  .debug_str:000000000000088b .LASF193
C:\Users\stapi\AppData\Local\Temp\ccUNtjmY.s:12141  .debug_str:0000000000000184 .LASF194
C:\Users\stapi\AppData\Local\Temp\ccUNtjmY.s:12993  .debug_str:0000000000001cb9 .LASF195
C:\Users\stapi\AppData\Local\Temp\ccUNtjmY.s:12333  .debug_str:0000000000000775 .LASF196
C:\Users\stapi\AppData\Local\Temp\ccUNtjmY.s:13123  .debug_str:00000000000020f3 .LASF197
C:\Users\stapi\AppData\Local\Temp\ccUNtjmY.s:12487  .debug_str:0000000000000bf1 .LASF198
C:\Users\stapi\AppData\Local\Temp\ccUNtjmY.s:13075  .debug_str:0000000000001f5b .LASF199
C:\Users\stapi\AppData\Local\Temp\ccUNtjmY.s:12233  .debug_str:00000000000003ec .LASF200
C:\Users\stapi\AppData\Local\Temp\ccUNtjmY.s:13077  .debug_str:0000000000001f65 .LASF201
C:\Users\stapi\AppData\Local\Temp\ccUNtjmY.s:12653  .debug_str:000000000000121f .LASF202
C:\Users\stapi\AppData\Local\Temp\ccUNtjmY.s:12467  .debug_str:0000000000000b61 .LASF203
C:\Users\stapi\AppData\Local\Temp\ccUNtjmY.s:12207  .debug_str:000000000000035a .LASF204
C:\Users\stapi\AppData\Local\Temp\ccUNtjmY.s:12801  .debug_str:000000000000173b .LASF205
C:\Users\stapi\AppData\Local\Temp\ccUNtjmY.s:12937  .debug_str:0000000000001ae9 .LASF206
C:\Users\stapi\AppData\Local\Temp\ccUNtjmY.s:12511  .debug_str:0000000000000cb0 .LASF207
C:\Users\stapi\AppData\Local\Temp\ccUNtjmY.s:12935  .debug_str:0000000000001ada .LASF208
C:\Users\stapi\AppData\Local\Temp\ccUNtjmY.s:12839  .debug_str:0000000000001836 .LASF209
C:\Users\stapi\AppData\Local\Temp\ccUNtjmY.s:12443  .debug_str:0000000000000a92 .LASF210
C:\Users\stapi\AppData\Local\Temp\ccUNtjmY.s:13107  .debug_str:0000000000002064 .LASF211
C:\Users\stapi\AppData\Local\Temp\ccUNtjmY.s:12649  .debug_str:00000000000011e8 .LASF212
C:\Users\stapi\AppData\Local\Temp\ccUNtjmY.s:12907  .debug_str:00000000000019d6 .LASF213
C:\Users\stapi\AppData\Local\Temp\ccUNtjmY.s:12615  .debug_str:00000000000010d4 .LASF214
C:\Users\stapi\AppData\Local\Temp\ccUNtjmY.s:12735  .debug_str:000000000000148e .LASF215
C:\Users\stapi\AppData\Local\Temp\ccUNtjmY.s:12873  .debug_str:000000000000190e .LASF216
C:\Users\stapi\AppData\Local\Temp\ccUNtjmY.s:12879  .debug_str:0000000000001955 .LASF217
C:\Users\stapi\AppData\Local\Temp\ccUNtjmY.s:12357  .debug_str:0000000000000841 .LASF218
C:\Users\stapi\AppData\Local\Temp\ccUNtjmY.s:12549  .debug_str:0000000000000ea8 .LASF219
C:\Users\stapi\AppData\Local\Temp\ccUNtjmY.s:13131  .debug_str:0000000000002129 .LASF220
C:\Users\stapi\AppData\Local\Temp\ccUNtjmY.s:12541  .debug_str:0000000000000d7a .LASF221
C:\Users\stapi\AppData\Local\Temp\ccUNtjmY.s:12709  .debug_str:00000000000013b8 .LASF222
C:\Users\stapi\AppData\Local\Temp\ccUNtjmY.s:12203  .debug_str:000000000000034c .LASF223
C:\Users\stapi\AppData\Local\Temp\ccUNtjmY.s:12089  .debug_str:0000000000000020 .LASF224
C:\Users\stapi\AppData\Local\Temp\ccUNtjmY.s:12625  .debug_str:0000000000001124 .LASF225
C:\Users\stapi\AppData\Local\Temp\ccUNtjmY.s:12293  .debug_str:00000000000005d1 .LASF226
C:\Users\stapi\AppData\Local\Temp\ccUNtjmY.s:12931  .debug_str:0000000000001ac0 .LASF227
C:\Users\stapi\AppData\Local\Temp\ccUNtjmY.s:12643  .debug_str:00000000000011bc .LASF228
C:\Users\stapi\AppData\Local\Temp\ccUNtjmY.s:12889  .debug_str:000000000000198d .LASF229
C:\Users\stapi\AppData\Local\Temp\ccUNtjmY.s:12535  .debug_str:0000000000000d66 .LASF230
C:\Users\stapi\AppData\Local\Temp\ccUNtjmY.s:12555  .debug_str:0000000000000eec .LASF231
C:\Users\stapi\AppData\Local\Temp\ccUNtjmY.s:12439  .debug_str:0000000000000a74 .LASF232
C:\Users\stapi\AppData\Local\Temp\ccUNtjmY.s:12853  .debug_str:0000000000001886 .LASF233
C:\Users\stapi\AppData\Local\Temp\ccUNtjmY.s:12589  .debug_str:0000000000001004 .LASF234
C:\Users\stapi\AppData\Local\Temp\ccUNtjmY.s:12321  .debug_str:000000000000071f .LASF235
C:\Users\stapi\AppData\Local\Temp\ccUNtjmY.s:12663  .debug_str:0000000000001280 .LASF236
C:\Users\stapi\AppData\Local\Temp\ccUNtjmY.s:12771  .debug_str:000000000000162a .LASF237
C:\Users\stapi\AppData\Local\Temp\ccUNtjmY.s:13139  .debug_str:0000000000002182 .LASF238
C:\Users\stapi\AppData\Local\Temp\ccUNtjmY.s:12383  .debug_str:0000000000000902 .LASF239
C:\Users\stapi\AppData\Local\Temp\ccUNtjmY.s:12639  .debug_str:00000000000011a4 .LASF240
C:\Users\stapi\AppData\Local\Temp\ccUNtjmY.s:13061  .debug_str:0000000000001ef6 .LASF241
C:\Users\stapi\AppData\Local\Temp\ccUNtjmY.s:13019  .debug_str:0000000000001da3 .LASF242
C:\Users\stapi\AppData\Local\Temp\ccUNtjmY.s:12091  .debug_str:000000000000002b .LASF243
C:\Users\stapi\AppData\Local\Temp\ccUNtjmY.s:12719  .debug_str:00000000000013f5 .LASF244
C:\Users\stapi\AppData\Local\Temp\ccUNtjmY.s:12159  .debug_str:0000000000000214 .LASF245
C:\Users\stapi\AppData\Local\Temp\ccUNtjmY.s:12761  .debug_str:0000000000001542 .LASF246
C:\Users\stapi\AppData\Local\Temp\ccUNtjmY.s:12967  .debug_str:0000000000001be5 .LASF247
C:\Users\stapi\AppData\Local\Temp\ccUNtjmY.s:12581  .debug_str:0000000000000fc9 .LASF248
C:\Users\stapi\AppData\Local\Temp\ccUNtjmY.s:12591  .debug_str:0000000000001012 .LASF249
C:\Users\stapi\AppData\Local\Temp\ccUNtjmY.s:12775  .debug_str:000000000000164d .LASF250
C:\Users\stapi\AppData\Local\Temp\ccUNtjmY.s:12547  .debug_str:0000000000000e9a .LASF251
C:\Users\stapi\AppData\Local\Temp\ccUNtjmY.s:12817  .debug_str:00000000000017af .LASF252
C:\Users\stapi\AppData\Local\Temp\ccUNtjmY.s:13097  .debug_str:0000000000002009 .LASF257
C:\Users\stapi\AppData\Local\Temp\ccUNtjmY.s:12949  .debug_str:0000000000001b27 .LASF253
C:\Users\stapi\AppData\Local\Temp\ccUNtjmY.s:12123  .debug_str:00000000000000e2 .LASF254
C:\Users\stapi\AppData\Local\Temp\ccUNtjmY.s:12747  .debug_str:00000000000014e8 .LASF255
C:\Users\stapi\AppData\Local\Temp\ccUNtjmY.s:12699  .debug_str:000000000000137c .LASF256
C:\Users\stapi\AppData\Local\Temp\ccUNtjmY.s:13037  .debug_str:0000000000001e2f .LASF258
C:\Users\stapi\AppData\Local\Temp\ccUNtjmY.s:12933  .debug_str:0000000000001acd .LASF259
C:\Users\stapi\AppData\Local\Temp\ccUNtjmY.s:12805  .debug_str:0000000000001750 .LASF260
C:\Users\stapi\AppData\Local\Temp\ccUNtjmY.s:12533  .debug_str:0000000000000d57 .LASF261
C:\Users\stapi\AppData\Local\Temp\ccUNtjmY.s:12859  .debug_str:00000000000018a0 .LASF262
C:\Users\stapi\AppData\Local\Temp\ccUNtjmY.s:12301  .debug_str:00000000000005f8 .LASF263
C:\Users\stapi\AppData\Local\Temp\ccUNtjmY.s:12611  .debug_str:00000000000010b0 .LASF264
C:\Users\stapi\AppData\Local\Temp\ccUNtjmY.s:12893  .debug_str:000000000000199b .LASF265
C:\Users\stapi\AppData\Local\Temp\ccUNtjmY.s:12427  .debug_str:0000000000000a15 .LASF266
C:\Users\stapi\AppData\Local\Temp\ccUNtjmY.s:12085  .debug_str:0000000000000000 .LASF267
C:\Users\stapi\AppData\Local\Temp\ccUNtjmY.s:12087  .debug_str:0000000000000010 .LASF268
C:\Users\stapi\AppData\Local\Temp\ccUNtjmY.s:12881  .debug_str:0000000000001961 .LASF269
C:\Users\stapi\AppData\Local\Temp\ccUNtjmY.s:13135  .debug_str:0000000000002159 .LASF270
C:\Users\stapi\AppData\Local\Temp\ccUNtjmY.s:12255  .debug_str:00000000000004bc .LASF271
C:\Users\stapi\AppData\Local\Temp\ccUNtjmY.s:12403  .debug_str:0000000000000972 .LASF272
C:\Users\stapi\AppData\Local\Temp\ccUNtjmY.s:12815  .debug_str:0000000000001796 .LASF273
C:\Users\stapi\AppData\Local\Temp\ccUNtjmY.s:12575  .debug_str:0000000000000f87 .LASF274
C:\Users\stapi\AppData\Local\Temp\ccUNtjmY.s:13043  .debug_str:0000000000001e5f .LASF275
C:\Users\stapi\AppData\Local\Temp\ccUNtjmY.s:12773  .debug_str:0000000000001634 .LASF276
C:\Users\stapi\AppData\Local\Temp\ccUNtjmY.s:13065  .debug_str:0000000000001f12 .LASF277
C:\Users\stapi\AppData\Local\Temp\ccUNtjmY.s:12721  .debug_str:0000000000001404 .LASF278
C:\Users\stapi\AppData\Local\Temp\ccUNtjmY.s:12683  .debug_str:0000000000001312 .LASF279
C:\Users\stapi\AppData\Local\Temp\ccUNtjmY.s:12451  .debug_str:0000000000000ad3 .LASF280
C:\Users\stapi\AppData\Local\Temp\ccUNtjmY.s:12675  .debug_str:00000000000012da .LASF281
C:\Users\stapi\AppData\Local\Temp\ccUNtjmY.s:12791  .debug_str:00000000000016b6 .LASF282
C:\Users\stapi\AppData\Local\Temp\ccUNtjmY.s:13141  .debug_str:000000000000218d .LASF283
C:\Users\stapi\AppData\Local\Temp\ccUNtjmY.s:12687  .debug_str:0000000000001333 .LASF284
C:\Users\stapi\AppData\Local\Temp\ccUNtjmY.s:13133  .debug_str:000000000000213b .LASF285
C:\Users\stapi\AppData\Local\Temp\ccUNtjmY.s:12911  .debug_str:00000000000019f2 .LASF286
C:\Users\stapi\AppData\Local\Temp\ccUNtjmY.s:12631  .debug_str:0000000000001154 .LASF287
C:\Users\stapi\AppData\Local\Temp\ccUNtjmY.s:12491  .debug_str:0000000000000c0f .LASF288
C:\Users\stapi\AppData\Local\Temp\ccUNtjmY.s:12863  .debug_str:00000000000018c1 .LASF289
C:\Users\stapi\AppData\Local\Temp\ccUNtjmY.s:12341  .debug_str:00000000000007b2 .LASF290
C:\Users\stapi\AppData\Local\Temp\ccUNtjmY.s:12979  .debug_str:0000000000001c38 .LASF291
C:\Users\stapi\AppData\Local\Temp\ccUNtjmY.s:12927  .debug_str:0000000000001a8c .LASF292
C:\Users\stapi\AppData\Local\Temp\ccUNtjmY.s:12763  .debug_str:0000000000001553 .LASF293
C:\Users\stapi\AppData\Local\Temp\ccUNtjmY.s:12237  .debug_str:0000000000000409 .LASF294
C:\Users\stapi\AppData\Local\Temp\ccUNtjmY.s:12661  .debug_str:000000000000125f .LASF295
C:\Users\stapi\AppData\Local\Temp\ccUNtjmY.s:12795  .debug_str:00000000000016e2 .LASF296
C:\Users\stapi\AppData\Local\Temp\ccUNtjmY.s:12743  .debug_str:00000000000014bd .LASF297
C:\Users\stapi\AppData\Local\Temp\ccUNtjmY.s:12553  .debug_str:0000000000000ec9 .LASF298
C:\Users\stapi\AppData\Local\Temp\ccUNtjmY.s:12919  .debug_str:0000000000001a38 .LASF299
C:\Users\stapi\AppData\Local\Temp\ccUNtjmY.s:12245  .debug_str:0000000000000454 .LASF300
C:\Users\stapi\AppData\Local\Temp\ccUNtjmY.s:12139  .debug_str:0000000000000161 .LASF301
C:\Users\stapi\AppData\Local\Temp\ccUNtjmY.s:13161  .debug_str:0000000000002224 .LASF302
C:\Users\stapi\AppData\Local\Temp\ccUNtjmY.s:12963  .debug_str:0000000000001bb3 .LASF303
C:\Users\stapi\AppData\Local\Temp\ccUNtjmY.s:13041  .debug_str:0000000000001e47 .LASF304
C:\Users\stapi\AppData\Local\Temp\ccUNtjmY.s:13015  .debug_str:0000000000001d75 .LASF305
C:\Users\stapi\AppData\Local\Temp\ccUNtjmY.s:12181  .debug_str:00000000000002aa .LASF306
C:\Users\stapi\AppData\Local\Temp\ccUNtjmY.s:12313  .debug_str:0000000000000666 .LASF307
C:\Users\stapi\AppData\Local\Temp\ccUNtjmY.s:12163  .debug_str:000000000000022b .LASF308
C:\Users\stapi\AppData\Local\Temp\ccUNtjmY.s:12281  .debug_str:0000000000000576 .LASF309
C:\Users\stapi\AppData\Local\Temp\ccUNtjmY.s:12645  .debug_str:00000000000011d0 .LASF310
C:\Users\stapi\AppData\Local\Temp\ccUNtjmY.s:12783  .debug_str:0000000000001677 .LASF311
C:\Users\stapi\AppData\Local\Temp\ccUNtjmY.s:12329  .debug_str:000000000000075f .LASF312
C:\Users\stapi\AppData\Local\Temp\ccUNtjmY.s:12669  .debug_str:00000000000012af .LASF313
C:\Users\stapi\AppData\Local\Temp\ccUNtjmY.s:13021  .debug_str:0000000000001daa .LASF314
C:\Users\stapi\AppData\Local\Temp\ccUNtjmY.s:12785  .debug_str:0000000000001681 .LASF315
C:\Users\stapi\AppData\Local\Temp\ccUNtjmY.s:12213  .debug_str:0000000000000380 .LASF316
C:\Users\stapi\AppData\Local\Temp\ccUNtjmY.s:12327  .debug_str:0000000000000744 .LASF317
C:\Users\stapi\AppData\Local\Temp\ccUNtjmY.s:12579  .debug_str:0000000000000faf .LASF318
C:\Users\stapi\AppData\Local\Temp\ccUNtjmY.s:12459  .debug_str:0000000000000b1d .LASF319
C:\Users\stapi\AppData\Local\Temp\ccUNtjmY.s:12619  .debug_str:00000000000010f6 .LASF320
C:\Users\stapi\AppData\Local\Temp\ccUNtjmY.s:12435  .debug_str:0000000000000a55 .LASF321
C:\Users\stapi\AppData\Local\Temp\ccUNtjmY.s:12115  .debug_str:00000000000000b2 .LASF322
C:\Users\stapi\AppData\Local\Temp\ccUNtjmY.s:13093  .debug_str:0000000000001fe8 .LASF323
C:\Users\stapi\AppData\Local\Temp\ccUNtjmY.s:13185  .debug_str:00000000000022c6 .LASF324
C:\Users\stapi\AppData\Local\Temp\ccUNtjmY.s:12193  .debug_str:00000000000002ff .LASF325
C:\Users\stapi\AppData\Local\Temp\ccUNtjmY.s:12291  .debug_str:00000000000005be .LASF326
C:\Users\stapi\AppData\Local\Temp\ccUNtjmY.s:12283  .debug_str:000000000000057f .LASF327
C:\Users\stapi\AppData\Local\Temp\ccUNtjmY.s:12099  .debug_str:0000000000000057 .LASF328
C:\Users\stapi\AppData\Local\Temp\ccUNtjmY.s:13177  .debug_str:0000000000002293 .LASF329
C:\Users\stapi\AppData\Local\Temp\ccUNtjmY.s:12513  .debug_str:0000000000000cc2 .LASF330
C:\Users\stapi\AppData\Local\Temp\ccUNtjmY.s:13059  .debug_str:0000000000001ede .LASF331
C:\Users\stapi\AppData\Local\Temp\ccUNtjmY.s:12463  .debug_str:0000000000000b42 .LASF332
C:\Users\stapi\AppData\Local\Temp\ccUNtjmY.s:12883  .debug_str:0000000000001971 .LASF333
C:\Users\stapi\AppData\Local\Temp\ccUNtjmY.s:13165  .debug_str:000000000000225a .LASF334
C:\Users\stapi\AppData\Local\Temp\ccUNtjmY.s:12253  .debug_str:00000000000004a6 .LASF335
C:\Users\stapi\AppData\Local\Temp\ccUNtjmY.s:12551  .debug_str:0000000000000eb8 .LASF336
C:\Users\stapi\AppData\Local\Temp\ccUNtjmY.s:13171  .debug_str:000000000000226d .LASF337
C:\Users\stapi\AppData\Local\Temp\ccUNtjmY.s:13073  .debug_str:0000000000001f52 .LASF338
C:\Users\stapi\AppData\Local\Temp\ccUNtjmY.s:12799  .debug_str:0000000000001725 .LASF339
C:\Users\stapi\AppData\Local\Temp\ccUNtjmY.s:12537  .debug_str:0000000000000d6f .LASF340
C:\Users\stapi\AppData\Local\Temp\ccUNtjmY.s:12821  .debug_str:00000000000017c4 .LASF341
C:\Users\stapi\AppData\Local\Temp\ccUNtjmY.s:13115  .debug_str:00000000000020ab .LASF342
C:\Users\stapi\AppData\Local\Temp\ccUNtjmY.s:12973  .debug_str:0000000000001c15 .LASF343
C:\Users\stapi\AppData\Local\Temp\ccUNtjmY.s:13053  .debug_str:0000000000001ea6 .LASF344
C:\Users\stapi\AppData\Local\Temp\ccUNtjmY.s:12127  .debug_str:00000000000000fd .LASF345
C:\Users\stapi\AppData\Local\Temp\ccUNtjmY.s:12381  .debug_str:00000000000008eb .LASF346
C:\Users\stapi\AppData\Local\Temp\ccUNtjmY.s:13079  .debug_str:0000000000001f6c .LASF347
C:\Users\stapi\AppData\Local\Temp\ccUNtjmY.s:12153  .debug_str:00000000000001dc .LASF348
C:\Users\stapi\AppData\Local\Temp\ccUNtjmY.s:12473  .debug_str:0000000000000b9b .LASF349
C:\Users\stapi\AppData\Local\Temp\ccUNtjmY.s:12351  .debug_str:0000000000000810 .LASF350
C:\Users\stapi\AppData\Local\Temp\ccUNtjmY.s:13091  .debug_str:0000000000001fd2 .LASF351
C:\Users\stapi\AppData\Local\Temp\ccUNtjmY.s:12311  .debug_str:000000000000064d .LASF352
C:\Users\stapi\AppData\Local\Temp\ccUNtjmY.s:12671  .debug_str:00000000000012b7 .LASF353
C:\Users\stapi\AppData\Local\Temp\ccUNtjmY.s:13157  .debug_str:00000000000021ff .LASF354
C:\Users\stapi\AppData\Local\Temp\ccUNtjmY.s:12345  .debug_str:00000000000007de .LASF355
C:\Users\stapi\AppData\Local\Temp\ccUNtjmY.s:12559  .debug_str:0000000000000f19 .LASF356
C:\Users\stapi\AppData\Local\Temp\ccUNtjmY.s:13035  .debug_str:0000000000001e15 .LASF357
C:\Users\stapi\AppData\Local\Temp\ccUNtjmY.s:12447  .debug_str:0000000000000ab1 .LASF358
C:\Users\stapi\AppData\Local\Temp\ccUNtjmY.s:12557  .debug_str:0000000000000efe .LASF359
C:\Users\stapi\AppData\Local\Temp\ccUNtjmY.s:12257  .debug_str:00000000000004d3 .LASF360
C:\Users\stapi\AppData\Local\Temp\ccUNtjmY.s:12957  .debug_str:0000000000001b6e .LASF361
C:\Users\stapi\AppData\Local\Temp\ccUNtjmY.s:12131  .debug_str:0000000000000114 .LASF362
C:\Users\stapi\AppData\Local\Temp\ccUNtjmY.s:13007  .debug_str:0000000000001d2f .LASF363
C:\Users\stapi\AppData\Local\Temp\ccUNtjmY.s:12371  .debug_str:0000000000000899 .LASF364
C:\Users\stapi\AppData\Local\Temp\ccUNtjmY.s:12797  .debug_str:0000000000001707 .LASF365
C:\Users\stapi\AppData\Local\Temp\ccUNtjmY.s:12729  .debug_str:0000000000001452 .LASF366
C:\Users\stapi\AppData\Local\Temp\ccUNtjmY.s:12951  .debug_str:0000000000001b38 .LASF367
C:\Users\stapi\AppData\Local\Temp\ccUNtjmY.s:12877  .debug_str:0000000000001934 .LASF368
C:\Users\stapi\AppData\Local\Temp\ccUNtjmY.s:12529  .debug_str:0000000000000d29 .LASF369
C:\Users\stapi\AppData\Local\Temp\ccUNtjmY.s:12137  .debug_str:0000000000000147 .LASF370
C:\Users\stapi\AppData\Local\Temp\ccUNtjmY.s:13089  .debug_str:0000000000001fba .LASF371
C:\Users\stapi\AppData\Local\Temp\ccUNtjmY.s:12613  .debug_str:00000000000010bf .LASF372
C:\Users\stapi\AppData\Local\Temp\ccUNtjmY.s:12789  .debug_str:0000000000001699 .LASF373
C:\Users\stapi\AppData\Local\Temp\ccUNtjmY.s:12825  .debug_str:00000000000017e8 .LASF374
C:\Users\stapi\AppData\Local\Temp\ccUNtjmY.s:12269  .debug_str:000000000000051d .LASF375
C:\Users\stapi\AppData\Local\Temp\ccUNtjmY.s:12197  .debug_str:000000000000031d .LASF376
C:\Users\stapi\AppData\Local\Temp\ccUNtjmY.s:12647  .debug_str:00000000000011db .LASF377
C:\Users\stapi\AppData\Local\Temp\ccUNtjmY.s:12407  .debug_str:0000000000000993 .LASF378
C:\Users\stapi\AppData\Local\Temp\ccUNtjmY.s:12515  .debug_str:0000000000000ccb .LASF379
C:\Users\stapi\AppData\Local\Temp\ccUNtjmY.s:12989  .debug_str:0000000000001c96 .LASF380
C:\Users\stapi\AppData\Local\Temp\ccUNtjmY.s:12725  .debug_str:000000000000142a .LASF381
C:\Users\stapi\AppData\Local\Temp\ccUNtjmY.s:12969  .debug_str:0000000000001bf3 .LASF382
C:\Users\stapi\AppData\Local\Temp\ccUNtjmY.s:12627  .debug_str:0000000000001129 .LASF383
C:\Users\stapi\AppData\Local\Temp\ccUNtjmY.s:12379  .debug_str:00000000000008d6 .LASF384
C:\Users\stapi\AppData\Local\Temp\ccUNtjmY.s:12635  .debug_str:0000000000001180 .LASF385
C:\Users\stapi\AppData\Local\Temp\ccUNtjmY.s:12471  .debug_str:0000000000000b7d .LASF386
C:\Users\stapi\AppData\Local\Temp\ccUNtjmY.s:12959  .debug_str:0000000000001b8c .LASF387
C:\Users\stapi\AppData\Local\Temp\ccUNtjmY.s:12365  .debug_str:000000000000086e .LASF388
C:\Users\stapi\AppData\Local\Temp\ccUNtjmY.s:12667  .debug_str:0000000000001290 .LASF389
C:\Users\stapi\AppData\Local\Temp\ccUNtjmY.s:12445  .debug_str:0000000000000aa2 .LASF390
C:\Users\stapi\AppData\Local\Temp\ccUNtjmY.s:12587  .debug_str:0000000000000ff5 .LASF391
C:\Users\stapi\AppData\Local\Temp\ccUNtjmY.s:12425  .debug_str:0000000000000a07 .LASF392
C:\Users\stapi\AppData\Local\Temp\ccUNtjmY.s:13189  .debug_str:00000000000022ef .LASF393
C:\Users\stapi\AppData\Local\Temp\ccUNtjmY.s:12401  .debug_str:0000000000000964 .LASF394
C:\Users\stapi\AppData\Local\Temp\ccUNtjmY.s:12493  .debug_str:0000000000000c2e .LASF395
C:\Users\stapi\AppData\Local\Temp\ccUNtjmY.s:12731  .debug_str:0000000000001479 .LASF396
C:\Users\stapi\AppData\Local\Temp\ccUNtjmY.s:13127  .debug_str:0000000000002103 .LASF397
C:\Users\stapi\AppData\Local\Temp\ccUNtjmY.s:12749  .debug_str:00000000000014f9 .LASF398
C:\Users\stapi\AppData\Local\Temp\ccUNtjmY.s:12441  .debug_str:0000000000000a7f .LASF399
C:\Users\stapi\AppData\Local\Temp\ccUNtjmY.s:12287  .debug_str:0000000000000599 .LASF400
C:\Users\stapi\AppData\Local\Temp\ccUNtjmY.s:12149  .debug_str:00000000000001ba .LASF401
C:\Users\stapi\AppData\Local\Temp\ccUNtjmY.s:12567  .debug_str:0000000000000f4c .LASF402
C:\Users\stapi\AppData\Local\Temp\ccUNtjmY.s:12915  .debug_str:0000000000001a17 .LASF403
C:\Users\stapi\AppData\Local\Temp\ccUNtjmY.s:12921  .debug_str:0000000000001a57 .LASF404
C:\Users\stapi\AppData\Local\Temp\ccUNtjmY.s:12303  .debug_str:0000000000000607 .LASF405
C:\Users\stapi\AppData\Local\Temp\ccUNtjmY.s:12455  .debug_str:0000000000000aff .LASF406
C:\Users\stapi\AppData\Local\Temp\ccUNtjmY.s:12603  .debug_str:000000000000106b .LASF407
C:\Users\stapi\AppData\Local\Temp\ccUNtjmY.s:12415  .debug_str:00000000000009c7 .LASF408
C:\Users\stapi\AppData\Local\Temp\ccUNtjmY.s:12651  .debug_str:00000000000011fb .LASF409
C:\Users\stapi\AppData\Local\Temp\ccUNtjmY.s:12375  .debug_str:00000000000008c3 .LASF410
C:\Users\stapi\AppData\Local\Temp\ccUNtjmY.s:12279  .debug_str:0000000000000562 .LASF411
C:\Users\stapi\AppData\Local\Temp\ccUNtjmY.s:12289  .debug_str:00000000000005a9 .LASF412
C:\Users\stapi\AppData\Local\Temp\ccUNtjmY.s:12991  .debug_str:0000000000001cad .LASF413
C:\Users\stapi\AppData\Local\Temp\ccUNtjmY.s:12525  .debug_str:0000000000000d0d .LASF414
C:\Users\stapi\AppData\Local\Temp\ccUNtjmY.s:12359  .debug_str:000000000000084f .LASF415
C:\Users\stapi\AppData\Local\Temp\ccUNtjmY.s:12157  .debug_str:0000000000000206 .LASF416
C:\Users\stapi\AppData\Local\Temp\ccUNtjmY.s:13085  .debug_str:0000000000001f9a .LASF417
C:\Users\stapi\AppData\Local\Temp\ccUNtjmY.s:12105  .debug_str:000000000000007c .LASF418
C:\Users\stapi\AppData\Local\Temp\ccUNtjmY.s:12819  .debug_str:00000000000017b6 .LASF419
C:\Users\stapi\AppData\Local\Temp\ccUNtjmY.s:12185  .debug_str:00000000000002d1 .LASF420
C:\Users\stapi\AppData\Local\Temp\ccUNtjmY.s:12393  .debug_str:000000000000092d .LASF421
C:\Users\stapi\AppData\Local\Temp\ccUNtjmY.s:12355  .debug_str:0000000000000834 .LASF422
C:\Users\stapi\AppData\Local\Temp\ccUNtjmY.s:12701  .debug_str:000000000000138d .LASF423
C:\Users\stapi\AppData\Local\Temp\ccUNtjmY.s:12151  .debug_str:00000000000001cd .LASF424
C:\Users\stapi\AppData\Local\Temp\ccUNtjmY.s:12211  .debug_str:000000000000036f .LASF425
C:\Users\stapi\AppData\Local\Temp\ccUNtjmY.s:12871  .debug_str:0000000000001901 .LASF426
C:\Users\stapi\AppData\Local\Temp\ccUNtjmY.s:13121  .debug_str:00000000000020e6 .LASF427
C:\Users\stapi\AppData\Local\Temp\ccUNtjmY.s:12265  .debug_str:0000000000000506 .LASF428
C:\Users\stapi\AppData\Local\Temp\ccUNtjmY.s:12681  .debug_str:0000000000001302 .LASF429
C:\Users\stapi\AppData\Local\Temp\ccUNtjmY.s:12275  .debug_str:0000000000000546 .LASF430
C:\Users\stapi\AppData\Local\Temp\ccUNtjmY.s:12489  .debug_str:0000000000000bfd .LASF431
C:\Users\stapi\AppData\Local\Temp\ccUNtjmY.s:13119  .debug_str:00000000000020d6 .LASF432
C:\Users\stapi\AppData\Local\Temp\ccUNtjmY.s:12923  .debug_str:0000000000001a6b .LASF433
C:\Users\stapi\AppData\Local\Temp\ccUNtjmY.s:12765  .debug_str:0000000000001578 .LASF434
C:\Users\stapi\AppData\Local\Temp\ccUNtjmY.s:13155  .debug_str:00000000000021f0 .LASF435
C:\Users\stapi\AppData\Local\Temp\ccUNtjmY.s:13151  .debug_str:00000000000021d0 .LASF436
C:\Users\stapi\AppData\Local\Temp\ccUNtjmY.s:13109  .debug_str:0000000000002071 .LASF437
C:\Users\stapi\AppData\Local\Temp\ccUNtjmY.s:12457  .debug_str:0000000000000b13 .LASF438
C:\Users\stapi\AppData\Local\Temp\ccUNtjmY.s:12309  .debug_str:0000000000000637 .LASF439
C:\Users\stapi\AppData\Local\Temp\ccUNtjmY.s:12999  .debug_str:0000000000001cdd .LASF440
C:\Users\stapi\AppData\Local\Temp\ccUNtjmY.s:13017  .debug_str:0000000000001d8e .LASF441
C:\Users\stapi\AppData\Local\Temp\ccUNtjmY.s:13129  .debug_str:0000000000002112 .LASF442
C:\Users\stapi\AppData\Local\Temp\ccUNtjmY.s:12249  .debug_str:0000000000000484 .LASF443
C:\Users\stapi\AppData\Local\Temp\ccUNtjmY.s:12983  .debug_str:0000000000001c67 .LASF444
C:\Users\stapi\AppData\Local\Temp\ccUNtjmY.s:12501  .debug_str:0000000000000c6c .LASF445
C:\Users\stapi\AppData\Local\Temp\ccUNtjmY.s:12481  .debug_str:0000000000000bcc .LASF446
C:\Users\stapi\AppData\Local\Temp\ccUNtjmY.s:12807  .debug_str:0000000000001760 .LASF447
C:\Users\stapi\AppData\Local\Temp\ccUNtjmY.s:12285  .debug_str:000000000000058b .LASF448
C:\Users\stapi\AppData\Local\Temp\ccUNtjmY.s:12117  .debug_str:00000000000000c9 .LASF449
C:\Users\stapi\AppData\Local\Temp\ccUNtjmY.s:12539  .debug_str:0000000000000d74 .LASF450
C:\Users\stapi\AppData\Local\Temp\ccUNtjmY.s:12975  .debug_str:0000000000001c26 .LASF451
C:\Users\stapi\AppData\Local\Temp\ccUNtjmY.s:12437  .debug_str:0000000000000a6a .LASF452
C:\Users\stapi\AppData\Local\Temp\ccUNtjmY.s:12577  .debug_str:0000000000000f9f .LASF453
C:\Users\stapi\AppData\Local\Temp\ccUNtjmY.s:12219  .debug_str:00000000000003aa .LASF454
C:\Users\stapi\AppData\Local\Temp\ccUNtjmY.s:12689  .debug_str:0000000000001353 .LASF455
C:\Users\stapi\AppData\Local\Temp\ccUNtjmY.s:12793  .debug_str:00000000000016d2 .LASF456
C:\Users\stapi\AppData\Local\Temp\ccUNtjmY.s:12781  .debug_str:0000000000001671 .LASF457
C:\Users\stapi\AppData\Local\Temp\ccUNtjmY.s:12337  .debug_str:000000000000078f .LASF458
C:\Users\stapi\AppData\Local\Temp\ccUNtjmY.s:12659  .debug_str:0000000000001251 .LASF459
C:\Users\stapi\AppData\Local\Temp\ccUNtjmY.s:13051  .debug_str:0000000000001e97 .LASF460
C:\Users\stapi\AppData\Local\Temp\ccUNtjmY.s:12093  .debug_str:000000000000003f .LASF461
C:\Users\stapi\AppData\Local\Temp\ccUNtjmY.s:12391  .debug_str:0000000000000921 .LASF462
C:\Users\stapi\AppData\Local\Temp\ccUNtjmY.s:12531  .debug_str:0000000000000d48 .LASF463
C:\Users\stapi\AppData\Local\Temp\ccUNtjmY.s:13179  .debug_str:00000000000022a9 .LASF464
C:\Users\stapi\AppData\Local\Temp\ccUNtjmY.s:12953  .debug_str:0000000000001b56 .LASF465
C:\Users\stapi\AppData\Local\Temp\ccUNtjmY.s:12943  .debug_str:0000000000001b0d .LASF466
C:\Users\stapi\AppData\Local\Temp\ccUNtjmY.s:12273  .debug_str:000000000000053f .LASF467
C:\Users\stapi\AppData\Local\Temp\ccUNtjmY.s:12223  .debug_str:00000000000003be .LASF468
C:\Users\stapi\AppData\Local\Temp\ccUNtjmY.s:12173  .debug_str:000000000000027b .LASF469
C:\Users\stapi\AppData\Local\Temp\ccUNtjmY.s:12677  .debug_str:00000000000012f5 .LASF470
C:\Users\stapi\AppData\Local\Temp\ccUNtjmY.s:12347  .debug_str:00000000000007fb .LASF471
C:\Users\stapi\AppData\Local\Temp\ccUNtjmY.s:12909  .debug_str:00000000000019e1 .LASF472
C:\Users\stapi\AppData\Local\Temp\ccUNtjmY.s:13027  .debug_str:0000000000001de3 .LASF473
C:\Users\stapi\AppData\Local\Temp\ccUNtjmY.s:12121  .debug_str:00000000000000dd .LASF474
C:\Users\stapi\AppData\Local\Temp\ccUNtjmY.s:12767  .debug_str:0000000000001588 .LASF475
C:\Users\stapi\AppData\Local\Temp\ccUNtjmY.s:12119  .debug_str:00000000000000ce .LASF476
C:\Users\stapi\AppData\Local\Temp\ccUNtjmY.s:12183  .debug_str:00000000000002c3 .LASF477
C:\Users\stapi\AppData\Local\Temp\ccUNtjmY.s:12177  .debug_str:0000000000000295 .LASF478
C:\Users\stapi\AppData\Local\Temp\ccUNtjmY.s:13143  .debug_str:00000000000021ac .LASF479
C:\Users\stapi\AppData\Local\Temp\ccUNtjmY.s:12431  .debug_str:0000000000000a2e .LASF480
C:\Users\stapi\AppData\Local\Temp\ccUNtjmY.s:13137  .debug_str:000000000000216f .LASF481
C:\Users\stapi\AppData\Local\Temp\ccUNtjmY.s:13087  .debug_str:0000000000001fa3 .LASF482
C:\Users\stapi\AppData\Local\Temp\ccUNtjmY.s:13009  .debug_str:0000000000001d4c .LASF483
C:\Users\stapi\AppData\Local\Temp\ccUNtjmY.s:12757  .debug_str:0000000000001531 .LASF484
C:\Users\stapi\AppData\Local\Temp\ccUNtjmY.s:12913  .debug_str:0000000000001a0f .LASF485
C:\Users\stapi\AppData\Local\Temp\ccUNtjmY.s:13057  .debug_str:0000000000001ed2 .LASF486
C:\Users\stapi\AppData\Local\Temp\ccUNtjmY.s:12843  .debug_str:0000000000001846 .LASF487
C:\Users\stapi\AppData\Local\Temp\ccUNtjmY.s:12655  .debug_str:000000000000122f .LASF488
C:\Users\stapi\AppData\Local\Temp\ccUNtjmY.s:12411  .debug_str:00000000000009b6 .LASF552
C:\Users\stapi\AppData\Local\Temp\ccUNtjmY.s:12637  .debug_str:0000000000001198 .LASF489
C:\Users\stapi\AppData\Local\Temp\ccUNtjmY.s:12665  .debug_str:0000000000001285 .LASF490
C:\Users\stapi\AppData\Local\Temp\ccUNtjmY.s:12423  .debug_str:00000000000009fa .LASF491
C:\Users\stapi\AppData\Local\Temp\ccUNtjmY.s:12723  .debug_str:000000000000141f .LASF492
C:\Users\stapi\AppData\Local\Temp\ccUNtjmY.s:12339  .debug_str:000000000000079e .LASF516
C:\Users\stapi\AppData\Local\Temp\ccUNtjmY.s:2106   .text.coap_delete_optlist:0000000000000000 .LFB53
C:\Users\stapi\AppData\Local\Temp\ccUNtjmY.s:2148   .text.coap_delete_optlist:0000000000000026 .LFE53
C:\Users\stapi\AppData\Local\Temp\ccUNtjmY.s:12865  .debug_str:00000000000018e3 .LASF493
C:\Users\stapi\AppData\Local\Temp\ccUNtjmY.s:9744   .debug_loc:0000000000000000 .LLST76
C:\Users\stapi\AppData\Local\Temp\ccUNtjmY.s:9762   .debug_loc:000000000000002c .LLST77
C:\Users\stapi\AppData\Local\Temp\ccUNtjmY.s:9777   .debug_loc:0000000000000055 .LLST78
C:\Users\stapi\AppData\Local\Temp\ccUNtjmY.s:2127   .text.coap_delete_optlist:0000000000000010 .LBB46
C:\Users\stapi\AppData\Local\Temp\ccUNtjmY.s:2136   .text.coap_delete_optlist:000000000000001a .LBE46
C:\Users\stapi\AppData\Local\Temp\ccUNtjmY.s:9784   .debug_loc:0000000000000068 .LLST79
C:\Users\stapi\AppData\Local\Temp\ccUNtjmY.s:2133   .text.coap_delete_optlist:000000000000001a .LVL259
C:\Users\stapi\AppData\Local\Temp\ccUNtjmY.s:12545  .debug_str:0000000000000e85 .LASF510
C:\Users\stapi\AppData\Local\Temp\ccUNtjmY.s:12477  .debug_str:0000000000000bbf .LASF495
C:\Users\stapi\AppData\Local\Temp\ccUNtjmY.s:13067  .debug_str:0000000000001f2d .LASF497
C:\Users\stapi\AppData\Local\Temp\ccUNtjmY.s:2036   .text.coap_insert_optlist:0000000000000000 .LFB51
C:\Users\stapi\AppData\Local\Temp\ccUNtjmY.s:2099   .text.coap_insert_optlist:000000000000004e .LFE51
C:\Users\stapi\AppData\Local\Temp\ccUNtjmY.s:12297  .debug_str:00000000000005e8 .LASF494
C:\Users\stapi\AppData\Local\Temp\ccUNtjmY.s:9791   .debug_loc:000000000000007b .LLST73
C:\Users\stapi\AppData\Local\Temp\ccUNtjmY.s:9809   .debug_loc:00000000000000a7 .LLST74
C:\Users\stapi\AppData\Local\Temp\ccUNtjmY.s:2075   .text.coap_insert_optlist:0000000000000038 .LBB43
C:\Users\stapi\AppData\Local\Temp\ccUNtjmY.s:2097   .text.coap_insert_optlist:000000000000004e .LBE43
C:\Users\stapi\AppData\Local\Temp\ccUNtjmY.s:12165  .debug_str:0000000000000245 .LASF496
C:\Users\stapi\AppData\Local\Temp\ccUNtjmY.s:9820   .debug_loc:00000000000000c5 .LLST75
C:\Users\stapi\AppData\Local\Temp\ccUNtjmY.s:2052   .text.coap_insert_optlist:0000000000000014 .LVL250
C:\Users\stapi\AppData\Local\Temp\ccUNtjmY.s:2060   .text.coap_insert_optlist:000000000000002c .LVL251
C:\Users\stapi\AppData\Local\Temp\ccUNtjmY.s:12135  .debug_str:0000000000000132 .LASF498
C:\Users\stapi\AppData\Local\Temp\ccUNtjmY.s:1792   .text.coap_add_optlist_pdu:0000000000000000 .LFB50
C:\Users\stapi\AppData\Local\Temp\ccUNtjmY.s:2025   .text.coap_add_optlist_pdu:00000000000000d0 .LFE50
C:\Users\stapi\AppData\Local\Temp\ccUNtjmY.s:9831   .debug_loc:00000000000000e3 .LLST56
C:\Users\stapi\AppData\Local\Temp\ccUNtjmY.s:13147  .debug_str:00000000000021c2 .LASF499
C:\Users\stapi\AppData\Local\Temp\ccUNtjmY.s:9853   .debug_loc:000000000000011a .LLST57
C:\Users\stapi\AppData\Local\Temp\ccUNtjmY.s:9889   .debug_loc:000000000000016d .LLST58
C:\Users\stapi\AppData\Local\Temp\ccUNtjmY.s:12895  .debug_str:00000000000019a9 .LASF500
C:\Users\stapi\AppData\Local\Temp\ccUNtjmY.s:9900   .debug_loc:000000000000018b .LLST59
C:\Users\stapi\AppData\Local\Temp\ccUNtjmY.s:12897  .debug_str:00000000000019af .LASF501
C:\Users\stapi\AppData\Local\Temp\ccUNtjmY.s:9924   .debug_loc:00000000000001cb .LLST60
C:\Users\stapi\AppData\Local\Temp\ccUNtjmY.s:12887  .debug_str:0000000000001987 .LASF502
C:\Users\stapi\AppData\Local\Temp\ccUNtjmY.s:9948   .debug_loc:000000000000020b .LLST61
C:\Users\stapi\AppData\Local\Temp\ccUNtjmY.s:12833  .debug_str:000000000000181d .LASF503
C:\Users\stapi\AppData\Local\Temp\ccUNtjmY.s:9967   .debug_loc:000000000000023f .LLST62
C:\Users\stapi\AppData\Local\Temp\ccUNtjmY.s:12215  .debug_str:0000000000000386 .LASF504
C:\Users\stapi\AppData\Local\Temp\ccUNtjmY.s:9987   .debug_loc:0000000000000274 .LLST63
C:\Users\stapi\AppData\Local\Temp\ccUNtjmY.s:12823  .debug_str:00000000000017dc .LASF505
C:\Users\stapi\AppData\Local\Temp\ccUNtjmY.s:9998   .debug_loc:0000000000000292 .LLST64
C:\Users\stapi\AppData\Local\Temp\ccUNtjmY.s:12113  .debug_str:00000000000000a8 .LASF506
C:\Users\stapi\AppData\Local\Temp\ccUNtjmY.s:10014  .debug_loc:00000000000002bc .LLST65
C:\Users\stapi\AppData\Local\Temp\ccUNtjmY.s:12389  .debug_str:0000000000000917 .LASF507
C:\Users\stapi\AppData\Local\Temp\ccUNtjmY.s:10026  .debug_loc:00000000000002db .LLST66
C:\Users\stapi\AppData\Local\Temp\ccUNtjmY.s:12891  .debug_str:0000000000001995 .LASF508
C:\Users\stapi\AppData\Local\Temp\ccUNtjmY.s:10033  .debug_loc:00000000000002ee .LLST67
C:\Users\stapi\AppData\Local\Temp\ccUNtjmY.s:13145  .debug_str:00000000000021b6 .LASF509
C:\Users\stapi\AppData\Local\Temp\ccUNtjmY.s:10055  .debug_loc:0000000000000325 .LLST68
C:\Users\stapi\AppData\Local\Temp\ccUNtjmY.s:1974   .text.coap_add_optlist_pdu:000000000000009a .LBB40
C:\Users\stapi\AppData\Local\Temp\ccUNtjmY.s:1990   .text.coap_add_optlist_pdu:00000000000000a8 .LBE40
C:\Users\stapi\AppData\Local\Temp\ccUNtjmY.s:10079  .debug_loc:0000000000000357 .LLST69
C:\Users\stapi\AppData\Local\Temp\ccUNtjmY.s:10086  .debug_loc:000000000000036a .LLST70
C:\Users\stapi\AppData\Local\Temp\ccUNtjmY.s:10093  .debug_loc:000000000000037d .LLST71
C:\Users\stapi\AppData\Local\Temp\ccUNtjmY.s:10100  .debug_loc:0000000000000390 .LLST72
C:\Users\stapi\AppData\Local\Temp\ccUNtjmY.s:1827   .text.coap_add_optlist_pdu:0000000000000020 .LVL217
C:\Users\stapi\AppData\Local\Temp\ccUNtjmY.s:1835   .text.coap_add_optlist_pdu:0000000000000038 .LVL218
C:\Users\stapi\AppData\Local\Temp\ccUNtjmY.s:2019   .text.coap_add_optlist_pdu:00000000000000cc .LVL247
C:\Users\stapi\AppData\Local\Temp\ccUNtjmY.s:12299  .debug_str:00000000000005ed .LASF511
C:\Users\stapi\AppData\Local\Temp\ccUNtjmY.s:12861  .debug_str:00000000000018b0 .LASF512
C:\Users\stapi\AppData\Local\Temp\ccUNtjmY.s:1691   .text.coap_new_optlist:0000000000000000 .LFB48
C:\Users\stapi\AppData\Local\Temp\ccUNtjmY.s:1781   .text.coap_new_optlist:0000000000000078 .LFE48
C:\Users\stapi\AppData\Local\Temp\ccUNtjmY.s:10107  .debug_loc:00000000000003a3 .LLST53
C:\Users\stapi\AppData\Local\Temp\ccUNtjmY.s:10121  .debug_loc:00000000000003c4 .LLST54
C:\Users\stapi\AppData\Local\Temp\ccUNtjmY.s:10132  .debug_loc:00000000000003e2 .LLST55
C:\Users\stapi\AppData\Local\Temp\ccUNtjmY.s:1722   .text.coap_new_optlist:0000000000000022 .LVL207
C:\Users\stapi\AppData\Local\Temp\ccUNtjmY.s:1732   .text.coap_new_optlist:0000000000000032 .LVL209
C:\Users\stapi\AppData\Local\Temp\ccUNtjmY.s:1748   .text.coap_new_optlist:000000000000004a .LVL210
C:\Users\stapi\AppData\Local\Temp\ccUNtjmY.s:1767   .text.coap_new_optlist:000000000000005e .LVL211
C:\Users\stapi\AppData\Local\Temp\ccUNtjmY.s:1775   .text.coap_new_optlist:0000000000000076 .LVL212
C:\Users\stapi\AppData\Local\Temp\ccUNtjmY.s:13113  .debug_str:0000000000002094 .LASF513
C:\Users\stapi\AppData\Local\Temp\ccUNtjmY.s:1417   .text.coap_option_filter_get:0000000000000000 .LFB47
C:\Users\stapi\AppData\Local\Temp\ccUNtjmY.s:1427   .text.coap_option_filter_get:000000000000000a .LFE47
C:\Users\stapi\AppData\Local\Temp\ccUNtjmY.s:10143  .debug_loc:0000000000000400 .LLST44
C:\Users\stapi\AppData\Local\Temp\ccUNtjmY.s:10157  .debug_loc:0000000000000421 .LLST45
C:\Users\stapi\AppData\Local\Temp\ccUNtjmY.s:1425   .text.coap_option_filter_get:000000000000000a .LVL182
C:\Users\stapi\AppData\Local\Temp\ccUNtjmY.s:12217  .debug_str:0000000000000391 .LASF514
C:\Users\stapi\AppData\Local\Temp\ccUNtjmY.s:1400   .text.coap_option_filter_unset:0000000000000000 .LFB46
C:\Users\stapi\AppData\Local\Temp\ccUNtjmY.s:1410   .text.coap_option_filter_unset:000000000000000a .LFE46
C:\Users\stapi\AppData\Local\Temp\ccUNtjmY.s:10171  .debug_loc:0000000000000442 .LLST42
C:\Users\stapi\AppData\Local\Temp\ccUNtjmY.s:10185  .debug_loc:0000000000000463 .LLST43
C:\Users\stapi\AppData\Local\Temp\ccUNtjmY.s:1408   .text.coap_option_filter_unset:000000000000000a .LVL180
C:\Users\stapi\AppData\Local\Temp\ccUNtjmY.s:12461  .debug_str:0000000000000b2b .LASF515
C:\Users\stapi\AppData\Local\Temp\ccUNtjmY.s:1383   .text.coap_option_filter_set:0000000000000000 .LFB45
C:\Users\stapi\AppData\Local\Temp\ccUNtjmY.s:1393   .text.coap_option_filter_set:000000000000000a .LFE45
C:\Users\stapi\AppData\Local\Temp\ccUNtjmY.s:10199  .debug_loc:0000000000000484 .LLST40
C:\Users\stapi\AppData\Local\Temp\ccUNtjmY.s:10213  .debug_loc:00000000000004a5 .LLST41
C:\Users\stapi\AppData\Local\Temp\ccUNtjmY.s:1391   .text.coap_option_filter_set:000000000000000a .LVL178
C:\Users\stapi\AppData\Local\Temp\ccUNtjmY.s:13099  .debug_str:0000000000002019 .LASF517
C:\Users\stapi\AppData\Local\Temp\ccUNtjmY.s:1366   .text.coap_option_filter_clear:0000000000000000 .LFB44
C:\Users\stapi\AppData\Local\Temp\ccUNtjmY.s:1376   .text.coap_option_filter_clear:000000000000000c .LFE44
C:\Users\stapi\AppData\Local\Temp\ccUNtjmY.s:10227  .debug_loc:00000000000004c6 .LLST39
C:\Users\stapi\AppData\Local\Temp\ccUNtjmY.s:1374   .text.coap_option_filter_clear:000000000000000c .LVL176
C:\Users\stapi\AppData\Local\Temp\ccUNtjmY.s:13055  .debug_str:0000000000001ebc .LASF553
C:\Users\stapi\AppData\Local\Temp\ccUNtjmY.s:13     .text.coap_option_filter_op:0000000000000000 .LFB43
C:\Users\stapi\AppData\Local\Temp\ccUNtjmY.s:186    .text.coap_option_filter_op:00000000000000c0 .LFE43
C:\Users\stapi\AppData\Local\Temp\ccUNtjmY.s:10241  .debug_loc:00000000000004e7 .LLST0
C:\Users\stapi\AppData\Local\Temp\ccUNtjmY.s:10252  .debug_loc:0000000000000505 .LLST1
C:\Users\stapi\AppData\Local\Temp\ccUNtjmY.s:10288  .debug_loc:0000000000000558 .LLST2
C:\Users\stapi\AppData\Local\Temp\ccUNtjmY.s:13183  .debug_str:00000000000022bf .LASF518
C:\Users\stapi\AppData\Local\Temp\ccUNtjmY.s:10336  .debug_loc:00000000000005c5 .LLST3
C:\Users\stapi\AppData\Local\Temp\ccUNtjmY.s:10401  .debug_loc:0000000000000651 .LLST4
C:\Users\stapi\AppData\Local\Temp\ccUNtjmY.s:10412  .debug_loc:000000000000066f .LLST5
C:\Users\stapi\AppData\Local\Temp\ccUNtjmY.s:10438  .debug_loc:00000000000006b1 .LLST6
C:\Users\stapi\AppData\Local\Temp\ccUNtjmY.s:146    .text.coap_option_filter_op:0000000000000092 .LVL19
C:\Users\stapi\AppData\Local\Temp\ccUNtjmY.s:12641  .debug_str:00000000000011ad .LASF519
C:\Users\stapi\AppData\Local\Temp\ccUNtjmY.s:12713  .debug_str:00000000000013da .LASF520
C:\Users\stapi\AppData\Local\Temp\ccUNtjmY.s:1240   .text.coap_opt_encode:0000000000000000 .LFB41
C:\Users\stapi\AppData\Local\Temp\ccUNtjmY.s:1359   .text.coap_opt_encode:00000000000000b4 .LFE41
C:\Users\stapi\AppData\Local\Temp\ccUNtjmY.s:10459  .debug_loc:00000000000006e7 .LLST33
C:\Users\stapi\AppData\Local\Temp\ccUNtjmY.s:12753  .debug_str:000000000000151b .LASF521
C:\Users\stapi\AppData\Local\Temp\ccUNtjmY.s:10483  .debug_loc:0000000000000720 .LLST34
C:\Users\stapi\AppData\Local\Temp\ccUNtjmY.s:10507  .debug_loc:0000000000000759 .LLST35
C:\Users\stapi\AppData\Local\Temp\ccUNtjmY.s:10521  .debug_loc:000000000000077a .LLST36
C:\Users\stapi\AppData\Local\Temp\ccUNtjmY.s:10532  .debug_loc:0000000000000798 .LLST37
C:\Users\stapi\AppData\Local\Temp\ccUNtjmY.s:10543  .debug_loc:00000000000007b6 .LLST38
C:\Users\stapi\AppData\Local\Temp\ccUNtjmY.s:12145  .debug_str:00000000000001a3 .LASF524
C:\Users\stapi\AppData\Local\Temp\ccUNtjmY.s:1266   .text.coap_opt_encode:000000000000001a .LVL160
C:\Users\stapi\AppData\Local\Temp\ccUNtjmY.s:1279   .text.coap_opt_encode:0000000000000042 .LVL162
C:\Users\stapi\AppData\Local\Temp\ccUNtjmY.s:1289   .text.coap_opt_encode:000000000000004e .LVL164
C:\Users\stapi\AppData\Local\Temp\ccUNtjmY.s:1305   .text.coap_opt_encode:000000000000006a .LVL168
C:\Users\stapi\AppData\Local\Temp\ccUNtjmY.s:1332   .text.coap_opt_encode:0000000000000084 .LVL171
C:\Users\stapi\AppData\Local\Temp\ccUNtjmY.s:1340   .text.coap_opt_encode:000000000000009c .LVL172
C:\Users\stapi\AppData\Local\Temp\ccUNtjmY.s:1351   .text.coap_opt_encode:00000000000000b0 .LVL173
C:\Users\stapi\AppData\Local\Temp\ccUNtjmY.s:12495  .debug_str:0000000000000c3e .LASF522
C:\Users\stapi\AppData\Local\Temp\ccUNtjmY.s:1177   .text.coap_opt_encode_size:0000000000000000 .LFB40
C:\Users\stapi\AppData\Local\Temp\ccUNtjmY.s:1223   .text.coap_opt_encode_size:000000000000002c .LFE40
C:\Users\stapi\AppData\Local\Temp\ccUNtjmY.s:10571  .debug_loc:0000000000000801 .LLST31
C:\Users\stapi\AppData\Local\Temp\ccUNtjmY.s:10589  .debug_loc:000000000000082d .LLST32
C:\Users\stapi\AppData\Local\Temp\ccUNtjmY.s:12143  .debug_str:0000000000000190 .LASF529
C:\Users\stapi\AppData\Local\Temp\ccUNtjmY.s:12679  .debug_str:00000000000012fd .LASF523
C:\Users\stapi\AppData\Local\Temp\ccUNtjmY.s:12465  .debug_str:0000000000000b53 .LASF525
C:\Users\stapi\AppData\Local\Temp\ccUNtjmY.s:903    .text.coap_opt_size:0000000000000000 .LFB38
C:\Users\stapi\AppData\Local\Temp\ccUNtjmY.s:927    .text.coap_opt_size:0000000000000020 .LFE38
C:\Users\stapi\AppData\Local\Temp\ccUNtjmY.s:10601  .debug_loc:000000000000084c .LLST21
C:\Users\stapi\AppData\Local\Temp\ccUNtjmY.s:919    .text.coap_opt_size:0000000000000016 .LVL118
C:\Users\stapi\AppData\Local\Temp\ccUNtjmY.s:12395  .debug_str:000000000000093f .LASF526
C:\Users\stapi\AppData\Local\Temp\ccUNtjmY.s:786    .text.coap_opt_value:0000000000000000 .LFB37
C:\Users\stapi\AppData\Local\Temp\ccUNtjmY.s:896    .text.coap_opt_value:0000000000000096 .LFE37
C:\Users\stapi\AppData\Local\Temp\ccUNtjmY.s:10615  .debug_loc:000000000000086d .LLST19
C:\Users\stapi\AppData\Local\Temp\ccUNtjmY.s:10655  .debug_loc:00000000000008cb .LLST20
C:\Users\stapi\AppData\Local\Temp\ccUNtjmY.s:835    .text.coap_opt_value:000000000000004c .LVL104
C:\Users\stapi\AppData\Local\Temp\ccUNtjmY.s:859    .text.coap_opt_value:000000000000006e .LVL108
C:\Users\stapi\AppData\Local\Temp\ccUNtjmY.s:882    .text.coap_opt_value:0000000000000082 .LVL114
C:\Users\stapi\AppData\Local\Temp\ccUNtjmY.s:12509  .debug_str:0000000000000ca0 .LASF527
C:\Users\stapi\AppData\Local\Temp\ccUNtjmY.s:663    .text.coap_opt_length:0000000000000000 .LFB36
C:\Users\stapi\AppData\Local\Temp\ccUNtjmY.s:779    .text.coap_opt_length:00000000000000a8 .LFE36
C:\Users\stapi\AppData\Local\Temp\ccUNtjmY.s:10699  .debug_loc:000000000000093b .LLST17
C:\Users\stapi\AppData\Local\Temp\ccUNtjmY.s:10764  .debug_loc:00000000000009d5 .LLST18
C:\Users\stapi\AppData\Local\Temp\ccUNtjmY.s:719    .text.coap_opt_length:0000000000000058 .LVL85
C:\Users\stapi\AppData\Local\Temp\ccUNtjmY.s:743    .text.coap_opt_length:000000000000007a .LVL89
C:\Users\stapi\AppData\Local\Temp\ccUNtjmY.s:756    .text.coap_opt_length:0000000000000088 .LVL93
C:\Users\stapi\AppData\Local\Temp\ccUNtjmY.s:13031  .debug_str:0000000000001df6 .LASF528
C:\Users\stapi\AppData\Local\Temp\ccUNtjmY.s:1630   .text.coap_check_option:0000000000000000 .LFB35
C:\Users\stapi\AppData\Local\Temp\ccUNtjmY.s:1680   .text.coap_check_option:0000000000000048 .LFE35
C:\Users\stapi\AppData\Local\Temp\ccUNtjmY.s:10825  .debug_loc:0000000000000a48 .LLST50
C:\Users\stapi\AppData\Local\Temp\ccUNtjmY.s:10836  .debug_loc:0000000000000a66 .LLST51
C:\Users\stapi\AppData\Local\Temp\ccUNtjmY.s:10850  .debug_loc:0000000000000a87 .LLST52
C:\Users\stapi\AppData\Local\Temp\ccUNtjmY.s:1654   .text.coap_check_option:000000000000001a .LVL199
C:\Users\stapi\AppData\Local\Temp\ccUNtjmY.s:1659   .text.coap_check_option:0000000000000026 .LVL200
C:\Users\stapi\AppData\Local\Temp\ccUNtjmY.s:1665   .text.coap_check_option:0000000000000034 .LVL201
C:\Users\stapi\AppData\Local\Temp\ccUNtjmY.s:1670   .text.coap_check_option:000000000000003e .LVL202
C:\Users\stapi\AppData\Local\Temp\ccUNtjmY.s:12601  .debug_str:000000000000105a .LASF530
C:\Users\stapi\AppData\Local\Temp\ccUNtjmY.s:12855  .debug_str:000000000000188c .LASF531
C:\Users\stapi\AppData\Local\Temp\ccUNtjmY.s:12417  .debug_str:00000000000009e1 .LASF532
C:\Users\stapi\AppData\Local\Temp\ccUNtjmY.s:12583  .debug_str:0000000000000fda .LASF533
C:\Users\stapi\AppData\Local\Temp\ccUNtjmY.s:12617  .debug_str:00000000000010dc .LASF534
C:\Users\stapi\AppData\Local\Temp\ccUNtjmY.s:523    .text.coap_option_iterator_init:0000000000000000 .LFB32
C:\Users\stapi\AppData\Local\Temp\ccUNtjmY.s:649    .text.coap_option_iterator_init:00000000000000c4 .LFE32
C:\Users\stapi\AppData\Local\Temp\ccUNtjmY.s:10861  .debug_loc:0000000000000aa5 .LLST14
C:\Users\stapi\AppData\Local\Temp\ccUNtjmY.s:10883  .debug_loc:0000000000000adc .LLST15
C:\Users\stapi\AppData\Local\Temp\ccUNtjmY.s:10927  .debug_loc:0000000000000b45 .LLST16
C:\Users\stapi\AppData\Local\Temp\ccUNtjmY.s:549    .text.coap_option_iterator_init:000000000000002e .LVL65
C:\Users\stapi\AppData\Local\Temp\ccUNtjmY.s:589    .text.coap_option_iterator_init:0000000000000074 .LVL74
C:\Users\stapi\AppData\Local\Temp\ccUNtjmY.s:641    .text.coap_option_iterator_init:00000000000000b6 .LVL77
C:\Users\stapi\AppData\Local\Temp\ccUNtjmY.s:12469  .debug_str:0000000000000b6e .LASF535
C:\Users\stapi\AppData\Local\Temp\ccUNtjmY.s:12251  .debug_str:000000000000049f .LASF536
C:\Users\stapi\AppData\Local\Temp\ccUNtjmY.s:12517  .debug_str:0000000000000cdf .LASF537
C:\Users\stapi\AppData\Local\Temp\ccUNtjmY.s:215    .text.coap_opt_parse:0000000000000000 .LFB31
C:\Users\stapi\AppData\Local\Temp\ccUNtjmY.s:506    .text.coap_opt_parse:0000000000000184 .LFE31
C:\Users\stapi\AppData\Local\Temp\ccUNtjmY.s:10971  .debug_loc:0000000000000bae .LLST7
C:\Users\stapi\AppData\Local\Temp\ccUNtjmY.s:11051  .debug_loc:0000000000000c65 .LLST8
C:\Users\stapi\AppData\Local\Temp\ccUNtjmY.s:11139  .debug_loc:0000000000000d2b .LLST9
C:\Users\stapi\AppData\Local\Temp\ccUNtjmY.s:11223  .debug_loc:0000000000000ded .LLST10
C:\Users\stapi\AppData\Local\Temp\ccUNtjmY.s:260    .text.coap_opt_parse:0000000000000048 .LBB8
C:\Users\stapi\AppData\Local\Temp\ccUNtjmY.s:11303  .debug_loc:0000000000000ea4 .LLST11
C:\Users\stapi\AppData\Local\Temp\ccUNtjmY.s:11354  .debug_loc:0000000000000f1b .LLST12
C:\Users\stapi\AppData\Local\Temp\ccUNtjmY.s:11403  .debug_loc:0000000000000f90 .LLST13
C:\Users\stapi\AppData\Local\Temp\ccUNtjmY.s:307    .text.coap_opt_parse:000000000000008e .LVL35
C:\Users\stapi\AppData\Local\Temp\ccUNtjmY.s:318    .text.coap_opt_parse:00000000000000a6 .LVL37
C:\Users\stapi\AppData\Local\Temp\ccUNtjmY.s:402    .text.coap_opt_parse:0000000000000106 .LVL47
C:\Users\stapi\AppData\Local\Temp\ccUNtjmY.s:414    .text.coap_opt_parse:000000000000011e .LVL49
C:\Users\stapi\AppData\Local\Temp\ccUNtjmY.s:426    .text.coap_opt_parse:0000000000000136 .LVL51
C:\Users\stapi\AppData\Local\Temp\ccUNtjmY.s:240    .text.coap_opt_parse:000000000000002e .LVL29
C:\Users\stapi\AppData\Local\Temp\ccUNtjmY.s:941    .text.coap_opt_setheader:0000000000000000 .LFB39
C:\Users\stapi\AppData\Local\Temp\ccUNtjmY.s:1170   .text.coap_opt_setheader:0000000000000134 .LFE39
C:\Users\stapi\AppData\Local\Temp\ccUNtjmY.s:11489  .debug_loc:000000000000105b .LLST22
C:\Users\stapi\AppData\Local\Temp\ccUNtjmY.s:11562  .debug_loc:0000000000001104 .LLST23
C:\Users\stapi\AppData\Local\Temp\ccUNtjmY.s:11613  .debug_loc:000000000000117b .LLST24
C:\Users\stapi\AppData\Local\Temp\ccUNtjmY.s:11664  .debug_loc:00000000000011f2 .LLST25
C:\Users\stapi\AppData\Local\Temp\ccUNtjmY.s:974    .text.coap_opt_setheader:0000000000000030 .LBB14
C:\Users\stapi\AppData\Local\Temp\ccUNtjmY.s:11718  .debug_loc:0000000000001273 .LLST26
C:\Users\stapi\AppData\Local\Temp\ccUNtjmY.s:11746  .debug_loc:00000000000012b7 .LLST27
C:\Users\stapi\AppData\Local\Temp\ccUNtjmY.s:11779  .debug_loc:0000000000001307 .LLST28
C:\Users\stapi\AppData\Local\Temp\ccUNtjmY.s:11812  .debug_loc:0000000000001357 .LLST29
C:\Users\stapi\AppData\Local\Temp\ccUNtjmY.s:11863  .debug_loc:00000000000013ce .LLST30
C:\Users\stapi\AppData\Local\Temp\ccUNtjmY.s:1041   .text.coap_opt_setheader:000000000000007a .LVL134
C:\Users\stapi\AppData\Local\Temp\ccUNtjmY.s:1052   .text.coap_opt_setheader:0000000000000094 .LVL135
C:\Users\stapi\AppData\Local\Temp\ccUNtjmY.s:1108   .text.coap_opt_setheader:00000000000000e4 .LVL142
C:\Users\stapi\AppData\Local\Temp\ccUNtjmY.s:967    .text.coap_opt_setheader:000000000000002e .LVL125
C:\Users\stapi\AppData\Local\Temp\ccUNtjmY.s:1438   .text.coap_option_next:0000000000000000 .LFB34
C:\Users\stapi\AppData\Local\Temp\ccUNtjmY.s:1623   .text.coap_option_next:00000000000000da .LFE34
C:\Users\stapi\AppData\Local\Temp\ccUNtjmY.s:11909  .debug_loc:0000000000001440 .LLST46
C:\Users\stapi\AppData\Local\Temp\ccUNtjmY.s:1466   .text.coap_option_next:0000000000000020 .LBB22
C:\Users\stapi\AppData\Local\Temp\ccUNtjmY.s:11931  .debug_loc:0000000000001477 .LLST47
C:\Users\stapi\AppData\Local\Temp\ccUNtjmY.s:11942  .debug_loc:0000000000001495 .LLST48
C:\Users\stapi\AppData\Local\Temp\ccUNtjmY.s:1472   .text.coap_option_next:0000000000000030 .LVL186
C:\Users\stapi\AppData\Local\Temp\ccUNtjmY.s:1550   .text.coap_option_next:000000000000007a .LVL192
C:\Users\stapi\AppData\Local\Temp\ccUNtjmY.s:1616   .text.coap_option_next:00000000000000d4 .LVL196
C:\Users\stapi\AppData\Local\Temp\ccUNtjmY.s:1476   .text.coap_option_next:0000000000000030 .LBB27
C:\Users\stapi\AppData\Local\Temp\ccUNtjmY.s:11949  .debug_loc:00000000000014a8 .LLST49
C:\Users\stapi\AppData\Local\Temp\ccUNtjmY.s:13159  .debug_str:0000000000002215 .LASF538
C:\Users\stapi\AppData\Local\Temp\ccUNtjmY.s:12235  .debug_str:00000000000003f6 .LASF539
C:\Users\stapi\AppData\Local\Temp\ccUNtjmY.s:12885  .debug_str:0000000000001979 .LASF540
C:\Users\stapi\AppData\Local\Temp\ccUNtjmY.s:13023  .debug_str:0000000000001dbe .LASF541
C:\Users\stapi\AppData\Local\Temp\ccUNtjmY.s:13103  .debug_str:0000000000002044 .LASF542
C:\Users\stapi\AppData\Local\Temp\ccUNtjmY.s:12377  .debug_str:00000000000008cf .LASF543
C:\Users\stapi\AppData\Local\Temp\ccUNtjmY.s:12597  .debug_str:000000000000103a .LASF545
C:\Users\stapi\AppData\Local\Temp\ccUNtjmY.s:13045  .debug_str:0000000000001e77 .LASF544
C:\Users\stapi\AppData\Local\Temp\ccUNtjmY.s:12845  .debug_str:000000000000184e .LASF546
C:\Users\stapi\AppData\Local\Temp\ccUNtjmY.s:12693  .debug_str:000000000000135e .LASF547
C:\Users\stapi\AppData\Local\Temp\ccUNtjmY.s:12499  .debug_str:0000000000000c5e .LASF548
C:\Users\stapi\AppData\Local\Temp\ccUNtjmY.s:2109   .text.coap_delete_optlist:0000000000000000 .LVL256
C:\Users\stapi\AppData\Local\Temp\ccUNtjmY.s:2120   .text.coap_delete_optlist:000000000000000c .LVL257
C:\Users\stapi\AppData\Local\Temp\ccUNtjmY.s:2144   .text.coap_delete_optlist:0000000000000024 .LVL260
C:\Users\stapi\AppData\Local\Temp\ccUNtjmY.s:2125   .text.coap_delete_optlist:0000000000000010 .LVL258
C:\Users\stapi\AppData\Local\Temp\ccUNtjmY.s:2039   .text.coap_insert_optlist:0000000000000000 .LVL249
C:\Users\stapi\AppData\Local\Temp\ccUNtjmY.s:2071   .text.coap_insert_optlist:0000000000000038 .LVL252
C:\Users\stapi\AppData\Local\Temp\ccUNtjmY.s:2083   .text.coap_insert_optlist:0000000000000040 .LVL253
C:\Users\stapi\AppData\Local\Temp\ccUNtjmY.s:2087   .text.coap_insert_optlist:0000000000000044 .LVL254
C:\Users\stapi\AppData\Local\Temp\ccUNtjmY.s:2092   .text.coap_insert_optlist:000000000000004a .LVL255
C:\Users\stapi\AppData\Local\Temp\ccUNtjmY.s:1795   .text.coap_add_optlist_pdu:0000000000000000 .LVL213
C:\Users\stapi\AppData\Local\Temp\ccUNtjmY.s:1803   .text.coap_add_optlist_pdu:0000000000000004 .LVL214
C:\Users\stapi\AppData\Local\Temp\ccUNtjmY.s:1806   .text.coap_add_optlist_pdu:0000000000000006 .LVL215
C:\Users\stapi\AppData\Local\Temp\ccUNtjmY.s:1823   .text.coap_add_optlist_pdu:0000000000000018 .LVL216
C:\Users\stapi\AppData\Local\Temp\ccUNtjmY.s:1847   .text.coap_add_optlist_pdu:0000000000000042 .LVL219
C:\Users\stapi\AppData\Local\Temp\ccUNtjmY.s:1889   .text.coap_add_optlist_pdu:0000000000000062 .LVL226
C:\Users\stapi\AppData\Local\Temp\ccUNtjmY.s:1896   .text.coap_add_optlist_pdu:0000000000000068 .LVL227
C:\Users\stapi\AppData\Local\Temp\ccUNtjmY.s:2010   .text.coap_add_optlist_pdu:00000000000000ba .LVL246
C:\Users\stapi\AppData\Local\Temp\ccUNtjmY.s:1858   .text.coap_add_optlist_pdu:0000000000000048 .LVL221
C:\Users\stapi\AppData\Local\Temp\ccUNtjmY.s:1938   .text.coap_add_optlist_pdu:0000000000000082 .LVL235
C:\Users\stapi\AppData\Local\Temp\ccUNtjmY.s:1940   .text.coap_add_optlist_pdu:0000000000000084 .LVL236
C:\Users\stapi\AppData\Local\Temp\ccUNtjmY.s:1949   .text.coap_add_optlist_pdu:0000000000000088 .LVL237
C:\Users\stapi\AppData\Local\Temp\ccUNtjmY.s:1956   .text.coap_add_optlist_pdu:000000000000008c .LVL238
C:\Users\stapi\AppData\Local\Temp\ccUNtjmY.s:1901   .text.coap_add_optlist_pdu:000000000000006a .LVL228
C:\Users\stapi\AppData\Local\Temp\ccUNtjmY.s:1908   .text.coap_add_optlist_pdu:000000000000006e .LVL229
C:\Users\stapi\AppData\Local\Temp\ccUNtjmY.s:1912   .text.coap_add_optlist_pdu:0000000000000070 .LVL230
C:\Users\stapi\AppData\Local\Temp\ccUNtjmY.s:1914   .text.coap_add_optlist_pdu:0000000000000072 .LVL231
C:\Users\stapi\AppData\Local\Temp\ccUNtjmY.s:1993   .text.coap_add_optlist_pdu:00000000000000ac .LVL243
C:\Users\stapi\AppData\Local\Temp\ccUNtjmY.s:2004   .text.coap_add_optlist_pdu:00000000000000b2 .LVL245
C:\Users\stapi\AppData\Local\Temp\ccUNtjmY.s:1971   .text.coap_add_optlist_pdu:000000000000009a .LVL241
C:\Users\stapi\AppData\Local\Temp\ccUNtjmY.s:1863   .text.coap_add_optlist_pdu:000000000000004e .LVL222
C:\Users\stapi\AppData\Local\Temp\ccUNtjmY.s:1867   .text.coap_add_optlist_pdu:0000000000000050 .LVL223
C:\Users\stapi\AppData\Local\Temp\ccUNtjmY.s:1969   .text.coap_add_optlist_pdu:0000000000000098 .LVL240
C:\Users\stapi\AppData\Local\Temp\ccUNtjmY.s:1855   .text.coap_add_optlist_pdu:0000000000000046 .LVL220
C:\Users\stapi\AppData\Local\Temp\ccUNtjmY.s:1927   .text.coap_add_optlist_pdu:000000000000007a .LVL234
C:\Users\stapi\AppData\Local\Temp\ccUNtjmY.s:1920   .text.coap_add_optlist_pdu:0000000000000074 .LVL232
C:\Users\stapi\AppData\Local\Temp\ccUNtjmY.s:1923   .text.coap_add_optlist_pdu:0000000000000078 .LVL233
C:\Users\stapi\AppData\Local\Temp\ccUNtjmY.s:1879   .text.coap_add_optlist_pdu:000000000000005a .LVL224
C:\Users\stapi\AppData\Local\Temp\ccUNtjmY.s:1982   .text.coap_add_optlist_pdu:000000000000009c .LVL242
C:\Users\stapi\AppData\Local\Temp\ccUNtjmY.s:1694   .text.coap_new_optlist:0000000000000000 .LVL203
C:\Users\stapi\AppData\Local\Temp\ccUNtjmY.s:1717   .text.coap_new_optlist:0000000000000016 .LVL205
C:\Users\stapi\AppData\Local\Temp\ccUNtjmY.s:1719   .text.coap_new_optlist:0000000000000018 .LVL206
C:\Users\stapi\AppData\Local\Temp\ccUNtjmY.s:1708   .text.coap_new_optlist:000000000000000e .LVL204
C:\Users\stapi\AppData\Local\Temp\ccUNtjmY.s:1420   .text.coap_option_filter_get:0000000000000000 .LVL181
C:\Users\stapi\AppData\Local\Temp\ccUNtjmY.s:1403   .text.coap_option_filter_unset:0000000000000000 .LVL179
C:\Users\stapi\AppData\Local\Temp\ccUNtjmY.s:1386   .text.coap_option_filter_set:0000000000000000 .LVL177
C:\Users\stapi\AppData\Local\Temp\ccUNtjmY.s:1369   .text.coap_option_filter_clear:0000000000000000 .LVL175
C:\Users\stapi\AppData\Local\Temp\ccUNtjmY.s:17     .text.coap_option_filter_op:0000000000000000 .LVL0
C:\Users\stapi\AppData\Local\Temp\ccUNtjmY.s:60     .text.coap_option_filter_op:0000000000000032 .LVL4
C:\Users\stapi\AppData\Local\Temp\ccUNtjmY.s:66     .text.coap_option_filter_op:0000000000000038 .LVL5
C:\Users\stapi\AppData\Local\Temp\ccUNtjmY.s:86     .text.coap_option_filter_op:000000000000004e .LVL7
C:\Users\stapi\AppData\Local\Temp\ccUNtjmY.s:91     .text.coap_option_filter_op:0000000000000056 .LVL8
C:\Users\stapi\AppData\Local\Temp\ccUNtjmY.s:134    .text.coap_option_filter_op:0000000000000082 .LVL16
C:\Users\stapi\AppData\Local\Temp\ccUNtjmY.s:139    .text.coap_option_filter_op:0000000000000086 .LVL17
C:\Users\stapi\AppData\Local\Temp\ccUNtjmY.s:77     .text.coap_option_filter_op:0000000000000046 .LVL6
C:\Users\stapi\AppData\Local\Temp\ccUNtjmY.s:125    .text.coap_option_filter_op:0000000000000078 .LVL14
C:\Users\stapi\AppData\Local\Temp\ccUNtjmY.s:129    .text.coap_option_filter_op:000000000000007e .LVL15
C:\Users\stapi\AppData\Local\Temp\ccUNtjmY.s:24     .text.coap_option_filter_op:0000000000000008 .LVL1
C:\Users\stapi\AppData\Local\Temp\ccUNtjmY.s:50     .text.coap_option_filter_op:0000000000000026 .LVL3
C:\Users\stapi\AppData\Local\Temp\ccUNtjmY.s:94     .text.coap_option_filter_op:0000000000000058 .LVL9
C:\Users\stapi\AppData\Local\Temp\ccUNtjmY.s:111    .text.coap_option_filter_op:000000000000006a .LVL11
C:\Users\stapi\AppData\Local\Temp\ccUNtjmY.s:114    .text.coap_option_filter_op:000000000000006e .LVL12
C:\Users\stapi\AppData\Local\Temp\ccUNtjmY.s:163    .text.coap_option_filter_op:00000000000000a8 .LVL21
C:\Users\stapi\AppData\Local\Temp\ccUNtjmY.s:176    .text.coap_option_filter_op:00000000000000b8 .LVL22
C:\Users\stapi\AppData\Local\Temp\ccUNtjmY.s:181    .text.coap_option_filter_op:00000000000000ba .LVL23
C:\Users\stapi\AppData\Local\Temp\ccUNtjmY.s:38     .text.coap_option_filter_op:0000000000000018 .LVL2
C:\Users\stapi\AppData\Local\Temp\ccUNtjmY.s:108    .text.coap_option_filter_op:0000000000000068 .LVL10
C:\Users\stapi\AppData\Local\Temp\ccUNtjmY.s:120    .text.coap_option_filter_op:0000000000000076 .LVL13
C:\Users\stapi\AppData\Local\Temp\ccUNtjmY.s:144    .text.coap_option_filter_op:000000000000008a .LVL18
C:\Users\stapi\AppData\Local\Temp\ccUNtjmY.s:1243   .text.coap_opt_encode:0000000000000000 .LVL157
C:\Users\stapi\AppData\Local\Temp\ccUNtjmY.s:1292   .text.coap_opt_encode:0000000000000054 .LVL165
C:\Users\stapi\AppData\Local\Temp\ccUNtjmY.s:1298   .text.coap_opt_encode:0000000000000058 .LVL167
C:\Users\stapi\AppData\Local\Temp\ccUNtjmY.s:1318   .text.coap_opt_encode:0000000000000074 .LVL169
C:\Users\stapi\AppData\Local\Temp\ccUNtjmY.s:1356   .text.coap_opt_encode:00000000000000b2 .LVL174
C:\Users\stapi\AppData\Local\Temp\ccUNtjmY.s:1326   .text.coap_opt_encode:0000000000000078 .LVL170
C:\Users\stapi\AppData\Local\Temp\ccUNtjmY.s:1259   .text.coap_opt_encode:000000000000000c .LVL159
C:\Users\stapi\AppData\Local\Temp\ccUNtjmY.s:1253   .text.coap_opt_encode:0000000000000008 .LVL158
C:\Users\stapi\AppData\Local\Temp\ccUNtjmY.s:1273   .text.coap_opt_encode:000000000000002a .LVL161
C:\Users\stapi\AppData\Local\Temp\ccUNtjmY.s:1285   .text.coap_opt_encode:0000000000000046 .LVL163
C:\Users\stapi\AppData\Local\Temp\ccUNtjmY.s:1296   .text.coap_opt_encode:0000000000000056 .LVL166
C:\Users\stapi\AppData\Local\Temp\ccUNtjmY.s:1180   .text.coap_opt_encode_size:0000000000000000 .LVL151
C:\Users\stapi\AppData\Local\Temp\ccUNtjmY.s:1213   .text.coap_opt_encode_size:0000000000000026 .LVL154
C:\Users\stapi\AppData\Local\Temp\ccUNtjmY.s:1215   .text.coap_opt_encode_size:0000000000000028 .LVL155
C:\Users\stapi\AppData\Local\Temp\ccUNtjmY.s:1196   .text.coap_opt_encode_size:0000000000000012 .LVL152
C:\Users\stapi\AppData\Local\Temp\ccUNtjmY.s:906    .text.coap_opt_size:0000000000000000 .LVL117
C:\Users\stapi\AppData\Local\Temp\ccUNtjmY.s:789    .text.coap_opt_value:0000000000000000 .LVL98
C:\Users\stapi\AppData\Local\Temp\ccUNtjmY.s:828    .text.coap_opt_value:0000000000000042 .LVL102
C:\Users\stapi\AppData\Local\Temp\ccUNtjmY.s:830    .text.coap_opt_value:0000000000000044 .LVL103
C:\Users\stapi\AppData\Local\Temp\ccUNtjmY.s:861    .text.coap_opt_value:0000000000000070 .LVL109
C:\Users\stapi\AppData\Local\Temp\ccUNtjmY.s:889    .text.coap_opt_value:0000000000000092 .LVL115
C:\Users\stapi\AppData\Local\Temp\ccUNtjmY.s:794    .text.coap_opt_value:0000000000000008 .LVL99
C:\Users\stapi\AppData\Local\Temp\ccUNtjmY.s:807    .text.coap_opt_value:000000000000002a .LVL100
C:\Users\stapi\AppData\Local\Temp\ccUNtjmY.s:838    .text.coap_opt_value:0000000000000052 .LVL105
C:\Users\stapi\AppData\Local\Temp\ccUNtjmY.s:848    .text.coap_opt_value:000000000000005c .LVL106
C:\Users\stapi\AppData\Local\Temp\ccUNtjmY.s:854    .text.coap_opt_value:0000000000000064 .LVL107
C:\Users\stapi\AppData\Local\Temp\ccUNtjmY.s:866    .text.coap_opt_value:0000000000000072 .LVL110
C:\Users\stapi\AppData\Local\Temp\ccUNtjmY.s:872    .text.coap_opt_value:0000000000000076 .LVL112
C:\Users\stapi\AppData\Local\Temp\ccUNtjmY.s:877    .text.coap_opt_value:000000000000007a .LVL113
C:\Users\stapi\AppData\Local\Temp\ccUNtjmY.s:666    .text.coap_opt_length:0000000000000000 .LVL78
C:\Users\stapi\AppData\Local\Temp\ccUNtjmY.s:679    .text.coap_opt_length:0000000000000016 .LVL79
C:\Users\stapi\AppData\Local\Temp\ccUNtjmY.s:690    .text.coap_opt_length:0000000000000030 .LVL80
C:\Users\stapi\AppData\Local\Temp\ccUNtjmY.s:702    .text.coap_opt_length:0000000000000046 .LVL81
C:\Users\stapi\AppData\Local\Temp\ccUNtjmY.s:704    .text.coap_opt_length:0000000000000048 .LVL82
C:\Users\stapi\AppData\Local\Temp\ccUNtjmY.s:714    .text.coap_opt_length:0000000000000050 .LVL84
C:\Users\stapi\AppData\Local\Temp\ccUNtjmY.s:722    .text.coap_opt_length:000000000000005e .LVL86
C:\Users\stapi\AppData\Local\Temp\ccUNtjmY.s:732    .text.coap_opt_length:0000000000000068 .LVL87
C:\Users\stapi\AppData\Local\Temp\ccUNtjmY.s:738    .text.coap_opt_length:0000000000000070 .LVL88
C:\Users\stapi\AppData\Local\Temp\ccUNtjmY.s:745    .text.coap_opt_length:000000000000007c .LVL90
C:\Users\stapi\AppData\Local\Temp\ccUNtjmY.s:751    .text.coap_opt_length:0000000000000080 .LVL92
C:\Users\stapi\AppData\Local\Temp\ccUNtjmY.s:763    .text.coap_opt_length:0000000000000098 .LVL94
C:\Users\stapi\AppData\Local\Temp\ccUNtjmY.s:771    .text.coap_opt_length:00000000000000a0 .LVL96
C:\Users\stapi\AppData\Local\Temp\ccUNtjmY.s:711    .text.coap_opt_length:000000000000004e .LVL83
C:\Users\stapi\AppData\Local\Temp\ccUNtjmY.s:768    .text.coap_opt_length:000000000000009c .LVL95
C:\Users\stapi\AppData\Local\Temp\ccUNtjmY.s:776    .text.coap_opt_length:00000000000000a6 .LVL97
C:\Users\stapi\AppData\Local\Temp\ccUNtjmY.s:1633   .text.coap_check_option:0000000000000000 .LVL197
C:\Users\stapi\AppData\Local\Temp\ccUNtjmY.s:1648   .text.coap_check_option:000000000000000e .LVL198
C:\Users\stapi\AppData\Local\Temp\ccUNtjmY.s:526    .text.coap_option_iterator_init:0000000000000000 .LVL61
C:\Users\stapi\AppData\Local\Temp\ccUNtjmY.s:546    .text.coap_option_iterator_init:0000000000000022 .LVL64
C:\Users\stapi\AppData\Local\Temp\ccUNtjmY.s:556    .text.coap_option_iterator_init:0000000000000034 .LVL66
C:\Users\stapi\AppData\Local\Temp\ccUNtjmY.s:542    .text.coap_option_iterator_init:000000000000001e .LVL63
C:\Users\stapi\AppData\Local\Temp\ccUNtjmY.s:564    .text.coap_option_iterator_init:0000000000000048 .LVL68
C:\Users\stapi\AppData\Local\Temp\ccUNtjmY.s:566    .text.coap_option_iterator_init:000000000000004a .LVL69
C:\Users\stapi\AppData\Local\Temp\ccUNtjmY.s:571    .text.coap_option_iterator_init:000000000000004e .LVL70
C:\Users\stapi\AppData\Local\Temp\ccUNtjmY.s:614    .text.coap_option_iterator_init:0000000000000094 .LVL75
C:\Users\stapi\AppData\Local\Temp\ccUNtjmY.s:625    .text.coap_option_iterator_init:000000000000009e .LVL76
C:\Users\stapi\AppData\Local\Temp\ccUNtjmY.s:538    .text.coap_option_iterator_init:0000000000000012 .LVL62
C:\Users\stapi\AppData\Local\Temp\ccUNtjmY.s:560    .text.coap_option_iterator_init:000000000000003c .LVL67
C:\Users\stapi\AppData\Local\Temp\ccUNtjmY.s:575    .text.coap_option_iterator_init:0000000000000056 .LVL71
C:\Users\stapi\AppData\Local\Temp\ccUNtjmY.s:580    .text.coap_option_iterator_init:0000000000000064 .LVL72
C:\Users\stapi\AppData\Local\Temp\ccUNtjmY.s:586    .text.coap_option_iterator_init:000000000000006a .LVL73
C:\Users\stapi\AppData\Local\Temp\ccUNtjmY.s:218    .text.coap_opt_parse:0000000000000000 .LVL24
C:\Users\stapi\AppData\Local\Temp\ccUNtjmY.s:237    .text.coap_opt_parse:0000000000000022 .LVL28
C:\Users\stapi\AppData\Local\Temp\ccUNtjmY.s:258    .text.coap_opt_parse:0000000000000048 .LVL33
C:\Users\stapi\AppData\Local\Temp\ccUNtjmY.s:272    .text.coap_opt_parse:0000000000000052 .LVL34
C:\Users\stapi\AppData\Local\Temp\ccUNtjmY.s:320    .text.coap_opt_parse:00000000000000a8 .LVL38
C:\Users\stapi\AppData\Local\Temp\ccUNtjmY.s:409    .text.coap_opt_parse:0000000000000116 .LVL48
C:\Users\stapi\AppData\Local\Temp\ccUNtjmY.s:421    .text.coap_opt_parse:000000000000012e .LVL50
C:\Users\stapi\AppData\Local\Temp\ccUNtjmY.s:433    .text.coap_opt_parse:0000000000000146 .LVL52
C:\Users\stapi\AppData\Local\Temp\ccUNtjmY.s:501    .text.coap_opt_parse:0000000000000182 .LVL60
C:\Users\stapi\AppData\Local\Temp\ccUNtjmY.s:233    .text.coap_opt_parse:000000000000001e .LVL27
C:\Users\stapi\AppData\Local\Temp\ccUNtjmY.s:251    .text.coap_opt_parse:0000000000000044 .LVL31
C:\Users\stapi\AppData\Local\Temp\ccUNtjmY.s:253    .text.coap_opt_parse:0000000000000046 .LVL32
C:\Users\stapi\AppData\Local\Temp\ccUNtjmY.s:326    .text.coap_opt_parse:00000000000000aa .LVL39
C:\Users\stapi\AppData\Local\Temp\ccUNtjmY.s:349    .text.coap_opt_parse:00000000000000ca .LVL40
C:\Users\stapi\AppData\Local\Temp\ccUNtjmY.s:443    .text.coap_opt_parse:0000000000000154 .LVL53
C:\Users\stapi\AppData\Local\Temp\ccUNtjmY.s:229    .text.coap_opt_parse:0000000000000012 .LVL26
C:\Users\stapi\AppData\Local\Temp\ccUNtjmY.s:247    .text.coap_opt_parse:0000000000000038 .LVL30
C:\Users\stapi\AppData\Local\Temp\ccUNtjmY.s:223    .text.coap_opt_parse:0000000000000008 .LVL25
C:\Users\stapi\AppData\Local\Temp\ccUNtjmY.s:313    .text.coap_opt_parse:000000000000009c .LVL36
C:\Users\stapi\AppData\Local\Temp\ccUNtjmY.s:381    .text.coap_opt_parse:00000000000000f2 .LVL44
C:\Users\stapi\AppData\Local\Temp\ccUNtjmY.s:396    .text.coap_opt_parse:00000000000000fa .LVL46
C:\Users\stapi\AppData\Local\Temp\ccUNtjmY.s:353    .text.coap_opt_parse:00000000000000cc .LVL41
C:\Users\stapi\AppData\Local\Temp\ccUNtjmY.s:362    .text.coap_opt_parse:00000000000000d6 .LVL42
C:\Users\stapi\AppData\Local\Temp\ccUNtjmY.s:377    .text.coap_opt_parse:00000000000000ee .LVL43
C:\Users\stapi\AppData\Local\Temp\ccUNtjmY.s:449    .text.coap_opt_parse:0000000000000156 .LVL54
C:\Users\stapi\AppData\Local\Temp\ccUNtjmY.s:460    .text.coap_opt_parse:0000000000000160 .LVL55
C:\Users\stapi\AppData\Local\Temp\ccUNtjmY.s:473    .text.coap_opt_parse:000000000000016a .LVL57
C:\Users\stapi\AppData\Local\Temp\ccUNtjmY.s:486    .text.coap_opt_parse:0000000000000176 .LVL58
C:\Users\stapi\AppData\Local\Temp\ccUNtjmY.s:498    .text.coap_opt_parse:000000000000017e .LVL59
C:\Users\stapi\AppData\Local\Temp\ccUNtjmY.s:944    .text.coap_opt_setheader:0000000000000000 .LVL119
C:\Users\stapi\AppData\Local\Temp\ccUNtjmY.s:960    .text.coap_opt_setheader:0000000000000016 .LVL123
C:\Users\stapi\AppData\Local\Temp\ccUNtjmY.s:972    .text.coap_opt_setheader:0000000000000030 .LVL126
C:\Users\stapi\AppData\Local\Temp\ccUNtjmY.s:988    .text.coap_opt_setheader:000000000000003a .LVL127
C:\Users\stapi\AppData\Local\Temp\ccUNtjmY.s:1020   .text.coap_opt_setheader:000000000000005e .LVL131
C:\Users\stapi\AppData\Local\Temp\ccUNtjmY.s:1027   .text.coap_opt_setheader:0000000000000064 .LVL133
C:\Users\stapi\AppData\Local\Temp\ccUNtjmY.s:1054   .text.coap_opt_setheader:0000000000000096 .LVL136
C:\Users\stapi\AppData\Local\Temp\ccUNtjmY.s:1116   .text.coap_opt_setheader:00000000000000f6 .LVL143
C:\Users\stapi\AppData\Local\Temp\ccUNtjmY.s:1132   .text.coap_opt_setheader:0000000000000106 .LVL146
C:\Users\stapi\AppData\Local\Temp\ccUNtjmY.s:1139   .text.coap_opt_setheader:000000000000010e .LVL148
C:\Users\stapi\AppData\Local\Temp\ccUNtjmY.s:964    .text.coap_opt_setheader:0000000000000022 .LVL124
C:\Users\stapi\AppData\Local\Temp\ccUNtjmY.s:958    .text.coap_opt_setheader:0000000000000012 .LVL122
C:\Users\stapi\AppData\Local\Temp\ccUNtjmY.s:956    .text.coap_opt_setheader:000000000000000e .LVL121
C:\Users\stapi\AppData\Local\Temp\ccUNtjmY.s:1001   .text.coap_opt_setheader:0000000000000044 .LVL129
C:\Users\stapi\AppData\Local\Temp\ccUNtjmY.s:1135   .text.coap_opt_setheader:0000000000000108 .LVL147
C:\Users\stapi\AppData\Local\Temp\ccUNtjmY.s:997    .text.coap_opt_setheader:0000000000000040 .LVL128
C:\Users\stapi\AppData\Local\Temp\ccUNtjmY.s:1025   .text.coap_opt_setheader:0000000000000062 .LVL132
C:\Users\stapi\AppData\Local\Temp\ccUNtjmY.s:1010   .text.coap_opt_setheader:000000000000004e .LVL130
C:\Users\stapi\AppData\Local\Temp\ccUNtjmY.s:1061   .text.coap_opt_setheader:000000000000009e .LVL137
C:\Users\stapi\AppData\Local\Temp\ccUNtjmY.s:1068   .text.coap_opt_setheader:00000000000000aa .LVL138
C:\Users\stapi\AppData\Local\Temp\ccUNtjmY.s:1079   .text.coap_opt_setheader:00000000000000b6 .LVL139
C:\Users\stapi\AppData\Local\Temp\ccUNtjmY.s:1087   .text.coap_opt_setheader:00000000000000c0 .LVL140
C:\Users\stapi\AppData\Local\Temp\ccUNtjmY.s:1094   .text.coap_opt_setheader:00000000000000cc .LVL141
C:\Users\stapi\AppData\Local\Temp\ccUNtjmY.s:1123   .text.coap_opt_setheader:00000000000000fc .LVL144
C:\Users\stapi\AppData\Local\Temp\ccUNtjmY.s:1128   .text.coap_opt_setheader:0000000000000104 .LVL145
C:\Users\stapi\AppData\Local\Temp\ccUNtjmY.s:1153   .text.coap_opt_setheader:0000000000000120 .LVL149
C:\Users\stapi\AppData\Local\Temp\ccUNtjmY.s:1158   .text.coap_opt_setheader:0000000000000128 .LVL150
C:\Users\stapi\AppData\Local\Temp\ccUNtjmY.s:1441   .text.coap_option_next:0000000000000000 .LVL183
C:\Users\stapi\AppData\Local\Temp\ccUNtjmY.s:1464   .text.coap_option_next:0000000000000020 .LVL185
C:\Users\stapi\AppData\Local\Temp\ccUNtjmY.s:1492   .text.coap_option_next:000000000000003a .LVL188
C:\Users\stapi\AppData\Local\Temp\ccUNtjmY.s:1543   .text.coap_option_next:000000000000006c .LVL191
C:\Users\stapi\AppData\Local\Temp\ccUNtjmY.s:1593   .text.coap_option_next:00000000000000be .LVL194
C:\Users\stapi\AppData\Local\Temp\ccUNtjmY.s:1608   .text.coap_option_next:00000000000000ca .LVL195
C:\Users\stapi\AppData\Local\Temp\ccUNtjmY.s:1573   .text.coap_option_next:00000000000000a4 .LVL193
C:\Users\stapi\AppData\Local\Temp\ccUNtjmY.s:1484   .text.coap_option_next:0000000000000036 .LVL187
C:\Users\stapi\AppData\Local\Temp\ccUNtjmY.s:1504   .text.coap_option_next:000000000000004e .LVL189
C:\Users\stapi\AppData\Local\Temp\ccUNtjmY.s:2229   .debug_info:0000000000000000 .Ldebug_info0
C:\Users\stapi\AppData\Local\Temp\ccUNtjmY.s:266    .text.coap_opt_parse:000000000000004a .LBE8
C:\Users\stapi\AppData\Local\Temp\ccUNtjmY.s:275    .text.coap_opt_parse:0000000000000052 .LBB11
C:\Users\stapi\AppData\Local\Temp\ccUNtjmY.s:504    .text.coap_opt_parse:0000000000000184 .LBE11
C:\Users\stapi\AppData\Local\Temp\ccUNtjmY.s:980    .text.coap_opt_setheader:0000000000000032 .LBE14
C:\Users\stapi\AppData\Local\Temp\ccUNtjmY.s:991    .text.coap_opt_setheader:000000000000003a .LBB17
C:\Users\stapi\AppData\Local\Temp\ccUNtjmY.s:1168   .text.coap_opt_setheader:0000000000000134 .LBE17
C:\Users\stapi\AppData\Local\Temp\ccUNtjmY.s:1475   .text.coap_option_next:0000000000000030 .LBE22
C:\Users\stapi\AppData\Local\Temp\ccUNtjmY.s:1508   .text.coap_option_next:000000000000004e .LBB32
C:\Users\stapi\AppData\Local\Temp\ccUNtjmY.s:1518   .text.coap_option_next:000000000000005a .LBE32
C:\Users\stapi\AppData\Local\Temp\ccUNtjmY.s:1534   .text.coap_option_next:0000000000000066 .LBB34
C:\Users\stapi\AppData\Local\Temp\ccUNtjmY.s:1596   .text.coap_option_next:00000000000000be .LBE34
C:\Users\stapi\AppData\Local\Temp\ccUNtjmY.s:1611   .text.coap_option_next:00000000000000ca .LBB35
C:\Users\stapi\AppData\Local\Temp\ccUNtjmY.s:1621   .text.coap_option_next:00000000000000da .LBE35
C:\Users\stapi\AppData\Local\Temp\ccUNtjmY.s:1482   .text.coap_option_next:0000000000000036 .LBE27
C:\Users\stapi\AppData\Local\Temp\ccUNtjmY.s:1485   .text.coap_option_next:0000000000000036 .LBB31
C:\Users\stapi\AppData\Local\Temp\ccUNtjmY.s:1507   .text.coap_option_next:000000000000004e .LBE31
C:\Users\stapi\AppData\Local\Temp\ccUNtjmY.s:1524   .text.coap_option_next:000000000000005e .LBB33
C:\Users\stapi\AppData\Local\Temp\ccUNtjmY.s:1530   .text.coap_option_next:0000000000000062 .LBE33
C:\Users\stapi\AppData\Local\Temp\ccUNtjmY.s:1850   .text.coap_add_optlist_pdu:0000000000000042 .LBB39
C:\Users\stapi\AppData\Local\Temp\ccUNtjmY.s:1885   .text.coap_add_optlist_pdu:0000000000000060 .LBE39
C:\Users\stapi\AppData\Local\Temp\ccUNtjmY.s:1898   .text.coap_add_optlist_pdu:0000000000000068 .LBB42
C:\Users\stapi\AppData\Local\Temp\ccUNtjmY.s:2012   .text.coap_add_optlist_pdu:00000000000000ba .LBE42

UNDEFINED SYMBOLS
__riscv_save_2
__riscv_restore_2
coap_fls
__riscv_save_0
__assert_func
__riscv_restore_0
coap_get_log_level
coap_log_impl
__riscv_save_3
memset
__riscv_restore_3
memcpy
__riscv_save_5
__riscv_restore_5
__riscv_save_4
coap_malloc_type
__riscv_restore_4
coap_add_option_internal
__riscv_save_1
__riscv_restore_1
coap_free_type
