   1              		.file	"coap_subscribe.c"
   2              		.option nopic
   3              		.attribute arch, "rv32i2p0_m2p0_a2p0_f2p0_c2p0_b_p0p94"
   4              		.attribute unaligned_access, 0
   5              		.attribute stack_align, 16
   6              		.text
   7              	.Ltext0:
   8              		.cfi_sections	.debug_frame
   9              		.section	.rodata.coap_subscription_init.str1.4,"aMS",@progbits,1
  10              		.align	2
  11              	.LC0:
  12 0000 7300     		.string	"s"
  13 0002 0000     		.align	2
  14              	.LC1:
  15 0004 433A2F55 		.string	"C:/Users/stapi/OneDrive/Desktop/GD32VW553/GD32VW55X_Wifi_BLE_SDK/GD32VW55x_RELEASE_V1.0.2
  15      73657273 
  15      2F737461 
  15      70692F4F 
  15      6E654472 
  16              		.section	.text.coap_subscription_init,"ax",@progbits
  17              		.align	1
  18              		.globl	coap_subscription_init
  20              	coap_subscription_init:
  21              	.LFB31:
  22              		.file 1 "C:/Users/stapi/OneDrive/Desktop/GD32VW553/GD32VW55X_Wifi_BLE_SDK/GD32VW55x_RELEASE_V1.0.2
   1:C:/Users/stapi/OneDrive/Desktop/GD32VW553/GD32VW55X_Wifi_BLE_SDK/GD32VW55x_RELEASE_V1.0.2/MSDK/lwip/libcoap-4.3.4/src\coap_subscribe.c **** /* coap_subscribe.c -- subscription handling for CoAP
   2:C:/Users/stapi/OneDrive/Desktop/GD32VW553/GD32VW55X_Wifi_BLE_SDK/GD32VW55x_RELEASE_V1.0.2/MSDK/lwip/libcoap-4.3.4/src\coap_subscribe.c ****  *                see RFC7641
   3:C:/Users/stapi/OneDrive/Desktop/GD32VW553/GD32VW55X_Wifi_BLE_SDK/GD32VW55x_RELEASE_V1.0.2/MSDK/lwip/libcoap-4.3.4/src\coap_subscribe.c ****  *
   4:C:/Users/stapi/OneDrive/Desktop/GD32VW553/GD32VW55X_Wifi_BLE_SDK/GD32VW55x_RELEASE_V1.0.2/MSDK/lwip/libcoap-4.3.4/src\coap_subscribe.c ****  * Copyright (C) 2010-2019,2022-2023 Olaf Bergmann <bergmann@tzi.org>
   5:C:/Users/stapi/OneDrive/Desktop/GD32VW553/GD32VW55X_Wifi_BLE_SDK/GD32VW55x_RELEASE_V1.0.2/MSDK/lwip/libcoap-4.3.4/src\coap_subscribe.c ****  *
   6:C:/Users/stapi/OneDrive/Desktop/GD32VW553/GD32VW55X_Wifi_BLE_SDK/GD32VW55x_RELEASE_V1.0.2/MSDK/lwip/libcoap-4.3.4/src\coap_subscribe.c ****  * SPDX-License-Identifier: BSD-2-Clause
   7:C:/Users/stapi/OneDrive/Desktop/GD32VW553/GD32VW55X_Wifi_BLE_SDK/GD32VW55x_RELEASE_V1.0.2/MSDK/lwip/libcoap-4.3.4/src\coap_subscribe.c ****  *
   8:C:/Users/stapi/OneDrive/Desktop/GD32VW553/GD32VW55X_Wifi_BLE_SDK/GD32VW55x_RELEASE_V1.0.2/MSDK/lwip/libcoap-4.3.4/src\coap_subscribe.c ****  * This file is part of the CoAP library libcoap. Please see
   9:C:/Users/stapi/OneDrive/Desktop/GD32VW553/GD32VW55X_Wifi_BLE_SDK/GD32VW55x_RELEASE_V1.0.2/MSDK/lwip/libcoap-4.3.4/src\coap_subscribe.c ****  * README for terms of use.
  10:C:/Users/stapi/OneDrive/Desktop/GD32VW553/GD32VW55X_Wifi_BLE_SDK/GD32VW55x_RELEASE_V1.0.2/MSDK/lwip/libcoap-4.3.4/src\coap_subscribe.c ****  */
  11:C:/Users/stapi/OneDrive/Desktop/GD32VW553/GD32VW55X_Wifi_BLE_SDK/GD32VW55x_RELEASE_V1.0.2/MSDK/lwip/libcoap-4.3.4/src\coap_subscribe.c **** 
  12:C:/Users/stapi/OneDrive/Desktop/GD32VW553/GD32VW55X_Wifi_BLE_SDK/GD32VW55x_RELEASE_V1.0.2/MSDK/lwip/libcoap-4.3.4/src\coap_subscribe.c **** /**
  13:C:/Users/stapi/OneDrive/Desktop/GD32VW553/GD32VW55X_Wifi_BLE_SDK/GD32VW55x_RELEASE_V1.0.2/MSDK/lwip/libcoap-4.3.4/src\coap_subscribe.c ****  * @file coap_subscribe.c
  14:C:/Users/stapi/OneDrive/Desktop/GD32VW553/GD32VW55X_Wifi_BLE_SDK/GD32VW55x_RELEASE_V1.0.2/MSDK/lwip/libcoap-4.3.4/src\coap_subscribe.c ****  * @brief Subscription handling functions
  15:C:/Users/stapi/OneDrive/Desktop/GD32VW553/GD32VW55X_Wifi_BLE_SDK/GD32VW55x_RELEASE_V1.0.2/MSDK/lwip/libcoap-4.3.4/src\coap_subscribe.c ****  */
  16:C:/Users/stapi/OneDrive/Desktop/GD32VW553/GD32VW55X_Wifi_BLE_SDK/GD32VW55x_RELEASE_V1.0.2/MSDK/lwip/libcoap-4.3.4/src\coap_subscribe.c **** 
  17:C:/Users/stapi/OneDrive/Desktop/GD32VW553/GD32VW55X_Wifi_BLE_SDK/GD32VW55x_RELEASE_V1.0.2/MSDK/lwip/libcoap-4.3.4/src\coap_subscribe.c **** #include "coap3/coap_internal.h"
  18:C:/Users/stapi/OneDrive/Desktop/GD32VW553/GD32VW55X_Wifi_BLE_SDK/GD32VW55x_RELEASE_V1.0.2/MSDK/lwip/libcoap-4.3.4/src\coap_subscribe.c **** 
  19:C:/Users/stapi/OneDrive/Desktop/GD32VW553/GD32VW55X_Wifi_BLE_SDK/GD32VW55x_RELEASE_V1.0.2/MSDK/lwip/libcoap-4.3.4/src\coap_subscribe.c **** #ifndef min
  20:C:/Users/stapi/OneDrive/Desktop/GD32VW553/GD32VW55X_Wifi_BLE_SDK/GD32VW55x_RELEASE_V1.0.2/MSDK/lwip/libcoap-4.3.4/src\coap_subscribe.c **** #define min(a,b) ((a) < (b) ? (a) : (b))
  21:C:/Users/stapi/OneDrive/Desktop/GD32VW553/GD32VW55X_Wifi_BLE_SDK/GD32VW55x_RELEASE_V1.0.2/MSDK/lwip/libcoap-4.3.4/src\coap_subscribe.c **** #endif
  22:C:/Users/stapi/OneDrive/Desktop/GD32VW553/GD32VW55X_Wifi_BLE_SDK/GD32VW55x_RELEASE_V1.0.2/MSDK/lwip/libcoap-4.3.4/src\coap_subscribe.c **** 
  23:C:/Users/stapi/OneDrive/Desktop/GD32VW553/GD32VW55X_Wifi_BLE_SDK/GD32VW55x_RELEASE_V1.0.2/MSDK/lwip/libcoap-4.3.4/src\coap_subscribe.c **** #if COAP_SERVER_SUPPORT
  24:C:/Users/stapi/OneDrive/Desktop/GD32VW553/GD32VW55X_Wifi_BLE_SDK/GD32VW55x_RELEASE_V1.0.2/MSDK/lwip/libcoap-4.3.4/src\coap_subscribe.c **** void
  25:C:/Users/stapi/OneDrive/Desktop/GD32VW553/GD32VW55X_Wifi_BLE_SDK/GD32VW55x_RELEASE_V1.0.2/MSDK/lwip/libcoap-4.3.4/src\coap_subscribe.c **** coap_subscription_init(coap_subscription_t *s) {
  23              		.loc 1 25 48
  24              		.cfi_startproc
  25              	.LVL0:
  26 0000 17030000 		call	t0,__riscv_save_0
  26      E7020300 
  27              		.cfi_offset 1, -4
  28              		.cfi_def_cfa_offset 16
  26:C:/Users/stapi/OneDrive/Desktop/GD32VW553/GD32VW55X_Wifi_BLE_SDK/GD32VW55x_RELEASE_V1.0.2/MSDK/lwip/libcoap-4.3.4/src\coap_subscribe.c ****   assert(s);
  29              		.loc 1 26 3
  30 0008 15E1     		bne	a0,zero,.L2
  31              		.loc 1 26 3 is_stmt 0 discriminator 1
  32 000a B7060000 		lui	a3,%hi(.LC0)
  33 000e 37060000 		lui	a2,%hi(.LANCHOR0)
  34 0012 37050000 		lui	a0,%hi(.LC1)
  35              	.LVL1:
  36 0016 93860600 		addi	a3,a3,%lo(.LC0)
  37 001a 13060600 		addi	a2,a2,%lo(.LANCHOR0)
  38 001e E945     		li	a1,26
  39 0020 13050500 		addi	a0,a0,%lo(.LC1)
  40 0024 97000000 		call	__assert_func
  40      E7800000 
  41              	.LVL2:
  42              	.L2:
  27:C:/Users/stapi/OneDrive/Desktop/GD32VW553/GD32VW55X_Wifi_BLE_SDK/GD32VW55x_RELEASE_V1.0.2/MSDK/lwip/libcoap-4.3.4/src\coap_subscribe.c ****   memset(s, 0, sizeof(coap_subscription_t));
  43              		.loc 1 27 3 is_stmt 1
  44 002c 5146     		li	a2,20
  45 002e 8145     		li	a1,0
  46 0030 97000000 		call	memset
  46      E7800000 
  47              	.LVL3:
  28:C:/Users/stapi/OneDrive/Desktop/GD32VW553/GD32VW55X_Wifi_BLE_SDK/GD32VW55x_RELEASE_V1.0.2/MSDK/lwip/libcoap-4.3.4/src\coap_subscribe.c **** }
  48              		.loc 1 28 1 is_stmt 0
  49 0038 17030000 		tail	__riscv_restore_0
  49      67000300 
  50              		.cfi_restore 1
  51              		.cfi_def_cfa_offset 0
  52              		.cfi_endproc
  53              	.LFE31:
  55              		.section	.text.coap_persist_track_funcs,"ax",@progbits
  56              		.align	1
  57              		.globl	coap_persist_track_funcs
  59              	coap_persist_track_funcs:
  60              	.LFB32:
  29:C:/Users/stapi/OneDrive/Desktop/GD32VW553/GD32VW55X_Wifi_BLE_SDK/GD32VW55x_RELEASE_V1.0.2/MSDK/lwip/libcoap-4.3.4/src\coap_subscribe.c **** 
  30:C:/Users/stapi/OneDrive/Desktop/GD32VW553/GD32VW55X_Wifi_BLE_SDK/GD32VW55x_RELEASE_V1.0.2/MSDK/lwip/libcoap-4.3.4/src\coap_subscribe.c **** void
  31:C:/Users/stapi/OneDrive/Desktop/GD32VW553/GD32VW55X_Wifi_BLE_SDK/GD32VW55x_RELEASE_V1.0.2/MSDK/lwip/libcoap-4.3.4/src\coap_subscribe.c **** coap_persist_track_funcs(coap_context_t *context,
  32:C:/Users/stapi/OneDrive/Desktop/GD32VW553/GD32VW55X_Wifi_BLE_SDK/GD32VW55x_RELEASE_V1.0.2/MSDK/lwip/libcoap-4.3.4/src\coap_subscribe.c ****                          coap_observe_added_t observe_added,
  33:C:/Users/stapi/OneDrive/Desktop/GD32VW553/GD32VW55X_Wifi_BLE_SDK/GD32VW55x_RELEASE_V1.0.2/MSDK/lwip/libcoap-4.3.4/src\coap_subscribe.c ****                          coap_observe_deleted_t observe_deleted,
  34:C:/Users/stapi/OneDrive/Desktop/GD32VW553/GD32VW55X_Wifi_BLE_SDK/GD32VW55x_RELEASE_V1.0.2/MSDK/lwip/libcoap-4.3.4/src\coap_subscribe.c ****                          coap_track_observe_value_t track_observe_value,
  35:C:/Users/stapi/OneDrive/Desktop/GD32VW553/GD32VW55X_Wifi_BLE_SDK/GD32VW55x_RELEASE_V1.0.2/MSDK/lwip/libcoap-4.3.4/src\coap_subscribe.c ****                          coap_dyn_resource_added_t dyn_resource_added,
  36:C:/Users/stapi/OneDrive/Desktop/GD32VW553/GD32VW55X_Wifi_BLE_SDK/GD32VW55x_RELEASE_V1.0.2/MSDK/lwip/libcoap-4.3.4/src\coap_subscribe.c ****                          coap_resource_deleted_t resource_deleted,
  37:C:/Users/stapi/OneDrive/Desktop/GD32VW553/GD32VW55X_Wifi_BLE_SDK/GD32VW55x_RELEASE_V1.0.2/MSDK/lwip/libcoap-4.3.4/src\coap_subscribe.c ****                          uint32_t save_freq,
  38:C:/Users/stapi/OneDrive/Desktop/GD32VW553/GD32VW55X_Wifi_BLE_SDK/GD32VW55x_RELEASE_V1.0.2/MSDK/lwip/libcoap-4.3.4/src\coap_subscribe.c ****                          void *user_data) {
  61              		.loc 1 38 43 is_stmt 1
  62              		.cfi_startproc
  63              	.LVL4:
  39:C:/Users/stapi/OneDrive/Desktop/GD32VW553/GD32VW55X_Wifi_BLE_SDK/GD32VW55x_RELEASE_V1.0.2/MSDK/lwip/libcoap-4.3.4/src\coap_subscribe.c ****   context->observe_added = observe_added;
  64              		.loc 1 39 3
  40:C:/Users/stapi/OneDrive/Desktop/GD32VW553/GD32VW55X_Wifi_BLE_SDK/GD32VW55x_RELEASE_V1.0.2/MSDK/lwip/libcoap-4.3.4/src\coap_subscribe.c ****   context->observe_deleted = observe_deleted;
  65              		.loc 1 40 28 is_stmt 0
  66 0000 30C9     		sw	a2,80(a0)
  41:C:/Users/stapi/OneDrive/Desktop/GD32VW553/GD32VW55X_Wifi_BLE_SDK/GD32VW55x_RELEASE_V1.0.2/MSDK/lwip/libcoap-4.3.4/src\coap_subscribe.c ****   context->observe_user_data = user_data;
  42:C:/Users/stapi/OneDrive/Desktop/GD32VW553/GD32VW55X_Wifi_BLE_SDK/GD32VW55x_RELEASE_V1.0.2/MSDK/lwip/libcoap-4.3.4/src\coap_subscribe.c ****   context->observe_save_freq = save_freq ? save_freq : 1;
  67              		.loc 1 42 30
  68 0002 0546     		li	a2,1
  69              	.LVL5:
  70 0004 3378C80A 		maxu	a6,a6,a2
  71              	.LVL6:
  39:C:/Users/stapi/OneDrive/Desktop/GD32VW553/GD32VW55X_Wifi_BLE_SDK/GD32VW55x_RELEASE_V1.0.2/MSDK/lwip/libcoap-4.3.4/src\coap_subscribe.c ****   context->observe_deleted = observe_deleted;
  72              		.loc 1 39 26
  73 0008 6CC5     		sw	a1,76(a0)
  40:C:/Users/stapi/OneDrive/Desktop/GD32VW553/GD32VW55X_Wifi_BLE_SDK/GD32VW55x_RELEASE_V1.0.2/MSDK/lwip/libcoap-4.3.4/src\coap_subscribe.c ****   context->observe_deleted = observe_deleted;
  74              		.loc 1 40 3 is_stmt 1
  41:C:/Users/stapi/OneDrive/Desktop/GD32VW553/GD32VW55X_Wifi_BLE_SDK/GD32VW55x_RELEASE_V1.0.2/MSDK/lwip/libcoap-4.3.4/src\coap_subscribe.c ****   context->observe_user_data = user_data;
  75              		.loc 1 41 3
  41:C:/Users/stapi/OneDrive/Desktop/GD32VW553/GD32VW55X_Wifi_BLE_SDK/GD32VW55x_RELEASE_V1.0.2/MSDK/lwip/libcoap-4.3.4/src\coap_subscribe.c ****   context->observe_user_data = user_data;
  76              		.loc 1 41 30 is_stmt 0
  77 000a 232A1505 		sw	a7,84(a0)
  78              		.loc 1 42 3 is_stmt 1
  79              		.loc 1 42 30 is_stmt 0
  80 000e 232C0505 		sw	a6,88(a0)
  43:C:/Users/stapi/OneDrive/Desktop/GD32VW553/GD32VW55X_Wifi_BLE_SDK/GD32VW55x_RELEASE_V1.0.2/MSDK/lwip/libcoap-4.3.4/src\coap_subscribe.c ****   context->track_observe_value = track_observe_value;
  81              		.loc 1 43 3 is_stmt 1
  82              		.loc 1 43 32 is_stmt 0
  83 0012 74CD     		sw	a3,92(a0)
  44:C:/Users/stapi/OneDrive/Desktop/GD32VW553/GD32VW55X_Wifi_BLE_SDK/GD32VW55x_RELEASE_V1.0.2/MSDK/lwip/libcoap-4.3.4/src\coap_subscribe.c ****   context->dyn_resource_added = dyn_resource_added;
  84              		.loc 1 44 3 is_stmt 1
  85              		.loc 1 44 31 is_stmt 0
  86 0014 38D1     		sw	a4,96(a0)
  45:C:/Users/stapi/OneDrive/Desktop/GD32VW553/GD32VW55X_Wifi_BLE_SDK/GD32VW55x_RELEASE_V1.0.2/MSDK/lwip/libcoap-4.3.4/src\coap_subscribe.c ****   context->resource_deleted = resource_deleted;
  87              		.loc 1 45 3 is_stmt 1
  88              		.loc 1 45 29 is_stmt 0
  89 0016 7CD1     		sw	a5,100(a0)
  46:C:/Users/stapi/OneDrive/Desktop/GD32VW553/GD32VW55X_Wifi_BLE_SDK/GD32VW55x_RELEASE_V1.0.2/MSDK/lwip/libcoap-4.3.4/src\coap_subscribe.c **** }
  90              		.loc 1 46 1
  91 0018 8280     		ret
  92              		.cfi_endproc
  93              	.LFE32:
  95              		.section	.rodata.coap_persist_observe_add.str1.4,"aMS",@progbits,1
  96              		.align	2
  97              	.LC2:
  98 0000 636F6170 		.string	"coap_persist_observe_add: resource '%s' not defined\n"
  98      5F706572 
  98      73697374 
  98      5F6F6273 
  98      65727665 
  99 0035 000000   		.align	2
 100              	.LC3:
 101 0038 636F6170 		.string	"coap_persist_observe_add: resource '%s' not observable\n"
 101      5F706572 
 101      73697374 
 101      5F6F6273 
 101      65727665 
 102              		.align	2
 103              	.LC4:
 104 0070 636F6170 		.string	"coap_persist_observe_add: discard malformed PDU\n"
 104      5F706572 
 104      73697374 
 104      5F6F6273 
 104      65727665 
 105              		.section	.text.coap_persist_observe_add,"ax",@progbits
 106              		.align	1
 107              		.globl	coap_persist_observe_add
 109              	coap_persist_observe_add:
 110              	.LFB33:
  47:C:/Users/stapi/OneDrive/Desktop/GD32VW553/GD32VW55X_Wifi_BLE_SDK/GD32VW55x_RELEASE_V1.0.2/MSDK/lwip/libcoap-4.3.4/src\coap_subscribe.c **** 
  48:C:/Users/stapi/OneDrive/Desktop/GD32VW553/GD32VW55X_Wifi_BLE_SDK/GD32VW55x_RELEASE_V1.0.2/MSDK/lwip/libcoap-4.3.4/src\coap_subscribe.c **** coap_subscription_t *
  49:C:/Users/stapi/OneDrive/Desktop/GD32VW553/GD32VW55X_Wifi_BLE_SDK/GD32VW55x_RELEASE_V1.0.2/MSDK/lwip/libcoap-4.3.4/src\coap_subscribe.c **** coap_persist_observe_add(coap_context_t *context,
  50:C:/Users/stapi/OneDrive/Desktop/GD32VW553/GD32VW55X_Wifi_BLE_SDK/GD32VW55x_RELEASE_V1.0.2/MSDK/lwip/libcoap-4.3.4/src\coap_subscribe.c ****                          coap_proto_t e_proto,
  51:C:/Users/stapi/OneDrive/Desktop/GD32VW553/GD32VW55X_Wifi_BLE_SDK/GD32VW55x_RELEASE_V1.0.2/MSDK/lwip/libcoap-4.3.4/src\coap_subscribe.c ****                          const coap_address_t *e_listen_addr,
  52:C:/Users/stapi/OneDrive/Desktop/GD32VW553/GD32VW55X_Wifi_BLE_SDK/GD32VW55x_RELEASE_V1.0.2/MSDK/lwip/libcoap-4.3.4/src\coap_subscribe.c ****                          const coap_addr_tuple_t *s_addr_info,
  53:C:/Users/stapi/OneDrive/Desktop/GD32VW553/GD32VW55X_Wifi_BLE_SDK/GD32VW55x_RELEASE_V1.0.2/MSDK/lwip/libcoap-4.3.4/src\coap_subscribe.c ****                          const coap_bin_const_t *raw_packet,
  54:C:/Users/stapi/OneDrive/Desktop/GD32VW553/GD32VW55X_Wifi_BLE_SDK/GD32VW55x_RELEASE_V1.0.2/MSDK/lwip/libcoap-4.3.4/src\coap_subscribe.c ****                          const coap_bin_const_t *oscore_info) {
 111              		.loc 1 54 63 is_stmt 1
 112              		.cfi_startproc
 113              	.LVL7:
 114 0000 17030000 		call	t0,__riscv_save_6
 114      E7020300 
 115              		.cfi_offset 21, -28
 116              		.cfi_offset 20, -24
 117              		.cfi_offset 19, -20
 118              		.cfi_offset 18, -16
 119              		.cfi_offset 9, -12
 120              		.cfi_offset 8, -8
 121              		.cfi_offset 1, -4
 122              		.cfi_def_cfa_offset 32
  55:C:/Users/stapi/OneDrive/Desktop/GD32VW553/GD32VW55X_Wifi_BLE_SDK/GD32VW55x_RELEASE_V1.0.2/MSDK/lwip/libcoap-4.3.4/src\coap_subscribe.c ****   coap_session_t *session = NULL;
 123              		.loc 1 55 3
 124              	.LVL8:
  56:C:/Users/stapi/OneDrive/Desktop/GD32VW553/GD32VW55X_Wifi_BLE_SDK/GD32VW55x_RELEASE_V1.0.2/MSDK/lwip/libcoap-4.3.4/src\coap_subscribe.c ****   const uint8_t *data;
 125              		.loc 1 56 3
  57:C:/Users/stapi/OneDrive/Desktop/GD32VW553/GD32VW55X_Wifi_BLE_SDK/GD32VW55x_RELEASE_V1.0.2/MSDK/lwip/libcoap-4.3.4/src\coap_subscribe.c ****   size_t data_len;
 126              		.loc 1 57 3
  58:C:/Users/stapi/OneDrive/Desktop/GD32VW553/GD32VW55X_Wifi_BLE_SDK/GD32VW55x_RELEASE_V1.0.2/MSDK/lwip/libcoap-4.3.4/src\coap_subscribe.c ****   coap_pdu_t *pdu = NULL;
 127              		.loc 1 58 3
  59:C:/Users/stapi/OneDrive/Desktop/GD32VW553/GD32VW55X_Wifi_BLE_SDK/GD32VW55x_RELEASE_V1.0.2/MSDK/lwip/libcoap-4.3.4/src\coap_subscribe.c **** #if COAP_CONSTRAINED_STACK
  60:C:/Users/stapi/OneDrive/Desktop/GD32VW553/GD32VW55X_Wifi_BLE_SDK/GD32VW55x_RELEASE_V1.0.2/MSDK/lwip/libcoap-4.3.4/src\coap_subscribe.c ****   /* e_packet protected by mutex m_persist_add */
  61:C:/Users/stapi/OneDrive/Desktop/GD32VW553/GD32VW55X_Wifi_BLE_SDK/GD32VW55x_RELEASE_V1.0.2/MSDK/lwip/libcoap-4.3.4/src\coap_subscribe.c ****   static coap_packet_t e_packet;
  62:C:/Users/stapi/OneDrive/Desktop/GD32VW553/GD32VW55X_Wifi_BLE_SDK/GD32VW55x_RELEASE_V1.0.2/MSDK/lwip/libcoap-4.3.4/src\coap_subscribe.c **** #else /* ! COAP_CONSTRAINED_STACK */
  63:C:/Users/stapi/OneDrive/Desktop/GD32VW553/GD32VW55X_Wifi_BLE_SDK/GD32VW55x_RELEASE_V1.0.2/MSDK/lwip/libcoap-4.3.4/src\coap_subscribe.c ****   coap_packet_t e_packet;
 128              		.loc 1 63 3
  64:C:/Users/stapi/OneDrive/Desktop/GD32VW553/GD32VW55X_Wifi_BLE_SDK/GD32VW55x_RELEASE_V1.0.2/MSDK/lwip/libcoap-4.3.4/src\coap_subscribe.c **** #endif /* ! COAP_CONSTRAINED_STACK */
  65:C:/Users/stapi/OneDrive/Desktop/GD32VW553/GD32VW55X_Wifi_BLE_SDK/GD32VW55x_RELEASE_V1.0.2/MSDK/lwip/libcoap-4.3.4/src\coap_subscribe.c ****   coap_packet_t *packet = &e_packet;
 129              		.loc 1 65 3
  54:C:/Users/stapi/OneDrive/Desktop/GD32VW553/GD32VW55X_Wifi_BLE_SDK/GD32VW55x_RELEASE_V1.0.2/MSDK/lwip/libcoap-4.3.4/src\coap_subscribe.c ****   coap_session_t *session = NULL;
 130              		.loc 1 54 63 is_stmt 0
 131 0008 3971     		addi	sp,sp,-64
 132              		.cfi_def_cfa_offset 96
 133              	.LVL9:
  66:C:/Users/stapi/OneDrive/Desktop/GD32VW553/GD32VW55X_Wifi_BLE_SDK/GD32VW55x_RELEASE_V1.0.2/MSDK/lwip/libcoap-4.3.4/src\coap_subscribe.c ****   coap_tick_t now;
 134              		.loc 1 66 3 is_stmt 1
  67:C:/Users/stapi/OneDrive/Desktop/GD32VW553/GD32VW55X_Wifi_BLE_SDK/GD32VW55x_RELEASE_V1.0.2/MSDK/lwip/libcoap-4.3.4/src\coap_subscribe.c ****   coap_string_t *uri_path = NULL;
 135              		.loc 1 67 3
  68:C:/Users/stapi/OneDrive/Desktop/GD32VW553/GD32VW55X_Wifi_BLE_SDK/GD32VW55x_RELEASE_V1.0.2/MSDK/lwip/libcoap-4.3.4/src\coap_subscribe.c ****   coap_opt_iterator_t opt_iter;
 136              		.loc 1 68 3
  69:C:/Users/stapi/OneDrive/Desktop/GD32VW553/GD32VW55X_Wifi_BLE_SDK/GD32VW55x_RELEASE_V1.0.2/MSDK/lwip/libcoap-4.3.4/src\coap_subscribe.c ****   coap_opt_t *observe;
 137              		.loc 1 69 3
  70:C:/Users/stapi/OneDrive/Desktop/GD32VW553/GD32VW55X_Wifi_BLE_SDK/GD32VW55x_RELEASE_V1.0.2/MSDK/lwip/libcoap-4.3.4/src\coap_subscribe.c ****   int observe_action;
 138              		.loc 1 70 3
  71:C:/Users/stapi/OneDrive/Desktop/GD32VW553/GD32VW55X_Wifi_BLE_SDK/GD32VW55x_RELEASE_V1.0.2/MSDK/lwip/libcoap-4.3.4/src\coap_subscribe.c ****   coap_resource_t *r;
 139              		.loc 1 71 3
  72:C:/Users/stapi/OneDrive/Desktop/GD32VW553/GD32VW55X_Wifi_BLE_SDK/GD32VW55x_RELEASE_V1.0.2/MSDK/lwip/libcoap-4.3.4/src\coap_subscribe.c ****   coap_subscription_t *s;
 140              		.loc 1 72 3
  73:C:/Users/stapi/OneDrive/Desktop/GD32VW553/GD32VW55X_Wifi_BLE_SDK/GD32VW55x_RELEASE_V1.0.2/MSDK/lwip/libcoap-4.3.4/src\coap_subscribe.c ****   coap_endpoint_t *ep;
 141              		.loc 1 73 3
  74:C:/Users/stapi/OneDrive/Desktop/GD32VW553/GD32VW55X_Wifi_BLE_SDK/GD32VW55x_RELEASE_V1.0.2/MSDK/lwip/libcoap-4.3.4/src\coap_subscribe.c **** 
  75:C:/Users/stapi/OneDrive/Desktop/GD32VW553/GD32VW55X_Wifi_BLE_SDK/GD32VW55x_RELEASE_V1.0.2/MSDK/lwip/libcoap-4.3.4/src\coap_subscribe.c ****   if (e_listen_addr == NULL || s_addr_info == NULL || raw_packet == NULL)
 142              		.loc 1 75 3
 143              		.loc 1 75 6 is_stmt 0
 144 000a 2DCE     		beq	a2,zero,.L18
 145 000c 3689     		mv	s2,a3
  76:C:/Users/stapi/OneDrive/Desktop/GD32VW553/GD32VW55X_Wifi_BLE_SDK/GD32VW55x_RELEASE_V1.0.2/MSDK/lwip/libcoap-4.3.4/src\coap_subscribe.c ****     return NULL;
 146              		.loc 1 76 12 discriminator 1
 147 000e 0144     		li	s0,0
  75:C:/Users/stapi/OneDrive/Desktop/GD32VW553/GD32VW55X_Wifi_BLE_SDK/GD32VW55x_RELEASE_V1.0.2/MSDK/lwip/libcoap-4.3.4/src\coap_subscribe.c ****     return NULL;
 148              		.loc 1 75 29 discriminator 1
 149 0010 91CA     		beq	a3,zero,.L5
 150 0012 BA84     		mv	s1,a4
  75:C:/Users/stapi/OneDrive/Desktop/GD32VW553/GD32VW55X_Wifi_BLE_SDK/GD32VW55x_RELEASE_V1.0.2/MSDK/lwip/libcoap-4.3.4/src\coap_subscribe.c ****     return NULL;
 151              		.loc 1 75 52 discriminator 2
 152 0014 01CB     		beq	a4,zero,.L5
  77:C:/Users/stapi/OneDrive/Desktop/GD32VW553/GD32VW55X_Wifi_BLE_SDK/GD32VW55x_RELEASE_V1.0.2/MSDK/lwip/libcoap-4.3.4/src\coap_subscribe.c **** 
  78:C:/Users/stapi/OneDrive/Desktop/GD32VW553/GD32VW55X_Wifi_BLE_SDK/GD32VW55x_RELEASE_V1.0.2/MSDK/lwip/libcoap-4.3.4/src\coap_subscribe.c ****   /* Will be creating a local 'open' session */
  79:C:/Users/stapi/OneDrive/Desktop/GD32VW553/GD32VW55X_Wifi_BLE_SDK/GD32VW55x_RELEASE_V1.0.2/MSDK/lwip/libcoap-4.3.4/src\coap_subscribe.c ****   if (e_proto != COAP_PROTO_UDP)
 153              		.loc 1 79 3 is_stmt 1
 154              		.loc 1 79 6 is_stmt 0
 155 0016 8547     		li	a5,1
 156              	.LVL10:
 157 0018 6396F500 		bne	a1,a5,.L5
  80:C:/Users/stapi/OneDrive/Desktop/GD32VW553/GD32VW55X_Wifi_BLE_SDK/GD32VW55x_RELEASE_V1.0.2/MSDK/lwip/libcoap-4.3.4/src\coap_subscribe.c ****     return NULL;
  81:C:/Users/stapi/OneDrive/Desktop/GD32VW553/GD32VW55X_Wifi_BLE_SDK/GD32VW55x_RELEASE_V1.0.2/MSDK/lwip/libcoap-4.3.4/src\coap_subscribe.c **** 
  82:C:/Users/stapi/OneDrive/Desktop/GD32VW553/GD32VW55X_Wifi_BLE_SDK/GD32VW55x_RELEASE_V1.0.2/MSDK/lwip/libcoap-4.3.4/src\coap_subscribe.c ****   ep = context->endpoint;
 158              		.loc 1 82 6
 159 001c 0055     		lw	s0,40(a0)
 160 001e B289     		mv	s3,a2
 161              		.loc 1 82 3 is_stmt 1
 162              	.LVL11:
  83:C:/Users/stapi/OneDrive/Desktop/GD32VW553/GD32VW55X_Wifi_BLE_SDK/GD32VW55x_RELEASE_V1.0.2/MSDK/lwip/libcoap-4.3.4/src\coap_subscribe.c ****   while (ep) {
 163              		.loc 1 83 3
  84:C:/Users/stapi/OneDrive/Desktop/GD32VW553/GD32VW55X_Wifi_BLE_SDK/GD32VW55x_RELEASE_V1.0.2/MSDK/lwip/libcoap-4.3.4/src\coap_subscribe.c ****     if (ep->proto == e_proto &&
 164              		.loc 1 84 8 is_stmt 0
 165 0020 054A     		li	s4,1
 166              	.LVL12:
 167              	.L7:
  83:C:/Users/stapi/OneDrive/Desktop/GD32VW553/GD32VW55X_Wifi_BLE_SDK/GD32VW55x_RELEASE_V1.0.2/MSDK/lwip/libcoap-4.3.4/src\coap_subscribe.c ****   while (ep) {
 168              		.loc 1 83 9 is_stmt 1
 169 0022 19E4     		bne	s0,zero,.L10
 170              	.LVL13:
 171              	.L5:
  85:C:/Users/stapi/OneDrive/Desktop/GD32VW553/GD32VW55X_Wifi_BLE_SDK/GD32VW55x_RELEASE_V1.0.2/MSDK/lwip/libcoap-4.3.4/src\coap_subscribe.c ****         memcmp(e_listen_addr, &ep->bind_addr, sizeof(ep->bind_addr)) == 0)
  86:C:/Users/stapi/OneDrive/Desktop/GD32VW553/GD32VW55X_Wifi_BLE_SDK/GD32VW55x_RELEASE_V1.0.2/MSDK/lwip/libcoap-4.3.4/src\coap_subscribe.c ****       break;
  87:C:/Users/stapi/OneDrive/Desktop/GD32VW553/GD32VW55X_Wifi_BLE_SDK/GD32VW55x_RELEASE_V1.0.2/MSDK/lwip/libcoap-4.3.4/src\coap_subscribe.c ****     ep = ep->next;
  88:C:/Users/stapi/OneDrive/Desktop/GD32VW553/GD32VW55X_Wifi_BLE_SDK/GD32VW55x_RELEASE_V1.0.2/MSDK/lwip/libcoap-4.3.4/src\coap_subscribe.c ****   }
  89:C:/Users/stapi/OneDrive/Desktop/GD32VW553/GD32VW55X_Wifi_BLE_SDK/GD32VW55x_RELEASE_V1.0.2/MSDK/lwip/libcoap-4.3.4/src\coap_subscribe.c ****   if (!ep)
  90:C:/Users/stapi/OneDrive/Desktop/GD32VW553/GD32VW55X_Wifi_BLE_SDK/GD32VW55x_RELEASE_V1.0.2/MSDK/lwip/libcoap-4.3.4/src\coap_subscribe.c ****     return NULL;
  91:C:/Users/stapi/OneDrive/Desktop/GD32VW553/GD32VW55X_Wifi_BLE_SDK/GD32VW55x_RELEASE_V1.0.2/MSDK/lwip/libcoap-4.3.4/src\coap_subscribe.c **** 
  92:C:/Users/stapi/OneDrive/Desktop/GD32VW553/GD32VW55X_Wifi_BLE_SDK/GD32VW55x_RELEASE_V1.0.2/MSDK/lwip/libcoap-4.3.4/src\coap_subscribe.c **** #if COAP_CONSTRAINED_STACK
  93:C:/Users/stapi/OneDrive/Desktop/GD32VW553/GD32VW55X_Wifi_BLE_SDK/GD32VW55x_RELEASE_V1.0.2/MSDK/lwip/libcoap-4.3.4/src\coap_subscribe.c ****   coap_mutex_lock(&m_persist_add);
  94:C:/Users/stapi/OneDrive/Desktop/GD32VW553/GD32VW55X_Wifi_BLE_SDK/GD32VW55x_RELEASE_V1.0.2/MSDK/lwip/libcoap-4.3.4/src\coap_subscribe.c **** #endif /* COAP_CONSTRAINED_STACK */
  95:C:/Users/stapi/OneDrive/Desktop/GD32VW553/GD32VW55X_Wifi_BLE_SDK/GD32VW55x_RELEASE_V1.0.2/MSDK/lwip/libcoap-4.3.4/src\coap_subscribe.c **** 
  96:C:/Users/stapi/OneDrive/Desktop/GD32VW553/GD32VW55X_Wifi_BLE_SDK/GD32VW55x_RELEASE_V1.0.2/MSDK/lwip/libcoap-4.3.4/src\coap_subscribe.c ****   /* Build up packet */
  97:C:/Users/stapi/OneDrive/Desktop/GD32VW553/GD32VW55X_Wifi_BLE_SDK/GD32VW55x_RELEASE_V1.0.2/MSDK/lwip/libcoap-4.3.4/src\coap_subscribe.c ****   memcpy(&packet->addr_info, s_addr_info, sizeof(packet->addr_info));
  98:C:/Users/stapi/OneDrive/Desktop/GD32VW553/GD32VW55X_Wifi_BLE_SDK/GD32VW55x_RELEASE_V1.0.2/MSDK/lwip/libcoap-4.3.4/src\coap_subscribe.c ****   packet->ifindex = 0;
  99:C:/Users/stapi/OneDrive/Desktop/GD32VW553/GD32VW55X_Wifi_BLE_SDK/GD32VW55x_RELEASE_V1.0.2/MSDK/lwip/libcoap-4.3.4/src\coap_subscribe.c ****   memcpy(&packet->payload, &raw_packet->s, sizeof(packet->payload));
 100:C:/Users/stapi/OneDrive/Desktop/GD32VW553/GD32VW55X_Wifi_BLE_SDK/GD32VW55x_RELEASE_V1.0.2/MSDK/lwip/libcoap-4.3.4/src\coap_subscribe.c ****   packet->length = raw_packet->length;
 101:C:/Users/stapi/OneDrive/Desktop/GD32VW553/GD32VW55X_Wifi_BLE_SDK/GD32VW55x_RELEASE_V1.0.2/MSDK/lwip/libcoap-4.3.4/src\coap_subscribe.c **** 
 102:C:/Users/stapi/OneDrive/Desktop/GD32VW553/GD32VW55X_Wifi_BLE_SDK/GD32VW55x_RELEASE_V1.0.2/MSDK/lwip/libcoap-4.3.4/src\coap_subscribe.c ****   data = raw_packet->s;
 103:C:/Users/stapi/OneDrive/Desktop/GD32VW553/GD32VW55X_Wifi_BLE_SDK/GD32VW55x_RELEASE_V1.0.2/MSDK/lwip/libcoap-4.3.4/src\coap_subscribe.c ****   data_len = raw_packet->length;
 104:C:/Users/stapi/OneDrive/Desktop/GD32VW553/GD32VW55X_Wifi_BLE_SDK/GD32VW55x_RELEASE_V1.0.2/MSDK/lwip/libcoap-4.3.4/src\coap_subscribe.c ****   if (data_len < 4)
 105:C:/Users/stapi/OneDrive/Desktop/GD32VW553/GD32VW55X_Wifi_BLE_SDK/GD32VW55x_RELEASE_V1.0.2/MSDK/lwip/libcoap-4.3.4/src\coap_subscribe.c ****     goto malformed;
 106:C:/Users/stapi/OneDrive/Desktop/GD32VW553/GD32VW55X_Wifi_BLE_SDK/GD32VW55x_RELEASE_V1.0.2/MSDK/lwip/libcoap-4.3.4/src\coap_subscribe.c **** 
 107:C:/Users/stapi/OneDrive/Desktop/GD32VW553/GD32VW55X_Wifi_BLE_SDK/GD32VW55x_RELEASE_V1.0.2/MSDK/lwip/libcoap-4.3.4/src\coap_subscribe.c ****   /* Get the session */
 108:C:/Users/stapi/OneDrive/Desktop/GD32VW553/GD32VW55X_Wifi_BLE_SDK/GD32VW55x_RELEASE_V1.0.2/MSDK/lwip/libcoap-4.3.4/src\coap_subscribe.c **** 
 109:C:/Users/stapi/OneDrive/Desktop/GD32VW553/GD32VW55X_Wifi_BLE_SDK/GD32VW55x_RELEASE_V1.0.2/MSDK/lwip/libcoap-4.3.4/src\coap_subscribe.c ****   coap_ticks(&now);
 110:C:/Users/stapi/OneDrive/Desktop/GD32VW553/GD32VW55X_Wifi_BLE_SDK/GD32VW55x_RELEASE_V1.0.2/MSDK/lwip/libcoap-4.3.4/src\coap_subscribe.c ****   session = coap_endpoint_get_session(ep, packet, now);
 111:C:/Users/stapi/OneDrive/Desktop/GD32VW553/GD32VW55X_Wifi_BLE_SDK/GD32VW55x_RELEASE_V1.0.2/MSDK/lwip/libcoap-4.3.4/src\coap_subscribe.c ****   if (session == NULL)
 112:C:/Users/stapi/OneDrive/Desktop/GD32VW553/GD32VW55X_Wifi_BLE_SDK/GD32VW55x_RELEASE_V1.0.2/MSDK/lwip/libcoap-4.3.4/src\coap_subscribe.c ****     goto fail;
 113:C:/Users/stapi/OneDrive/Desktop/GD32VW553/GD32VW55X_Wifi_BLE_SDK/GD32VW55x_RELEASE_V1.0.2/MSDK/lwip/libcoap-4.3.4/src\coap_subscribe.c ****   /* Need max space incase PDU is updated with updated token, huge size etc. */
 114:C:/Users/stapi/OneDrive/Desktop/GD32VW553/GD32VW55X_Wifi_BLE_SDK/GD32VW55x_RELEASE_V1.0.2/MSDK/lwip/libcoap-4.3.4/src\coap_subscribe.c ****   pdu = coap_pdu_init(0, 0, 0, 0);
 115:C:/Users/stapi/OneDrive/Desktop/GD32VW553/GD32VW55X_Wifi_BLE_SDK/GD32VW55x_RELEASE_V1.0.2/MSDK/lwip/libcoap-4.3.4/src\coap_subscribe.c ****   if (!pdu)
 116:C:/Users/stapi/OneDrive/Desktop/GD32VW553/GD32VW55X_Wifi_BLE_SDK/GD32VW55x_RELEASE_V1.0.2/MSDK/lwip/libcoap-4.3.4/src\coap_subscribe.c ****     goto fail;
 117:C:/Users/stapi/OneDrive/Desktop/GD32VW553/GD32VW55X_Wifi_BLE_SDK/GD32VW55x_RELEASE_V1.0.2/MSDK/lwip/libcoap-4.3.4/src\coap_subscribe.c **** 
 118:C:/Users/stapi/OneDrive/Desktop/GD32VW553/GD32VW55X_Wifi_BLE_SDK/GD32VW55x_RELEASE_V1.0.2/MSDK/lwip/libcoap-4.3.4/src\coap_subscribe.c ****   if (!coap_pdu_parse(session->proto, data, data_len, pdu)) {
 119:C:/Users/stapi/OneDrive/Desktop/GD32VW553/GD32VW55X_Wifi_BLE_SDK/GD32VW55x_RELEASE_V1.0.2/MSDK/lwip/libcoap-4.3.4/src\coap_subscribe.c ****     goto malformed;
 120:C:/Users/stapi/OneDrive/Desktop/GD32VW553/GD32VW55X_Wifi_BLE_SDK/GD32VW55x_RELEASE_V1.0.2/MSDK/lwip/libcoap-4.3.4/src\coap_subscribe.c ****   }
 121:C:/Users/stapi/OneDrive/Desktop/GD32VW553/GD32VW55X_Wifi_BLE_SDK/GD32VW55x_RELEASE_V1.0.2/MSDK/lwip/libcoap-4.3.4/src\coap_subscribe.c ****   pdu->max_size = pdu->used_size;
 122:C:/Users/stapi/OneDrive/Desktop/GD32VW553/GD32VW55X_Wifi_BLE_SDK/GD32VW55x_RELEASE_V1.0.2/MSDK/lwip/libcoap-4.3.4/src\coap_subscribe.c **** 
 123:C:/Users/stapi/OneDrive/Desktop/GD32VW553/GD32VW55X_Wifi_BLE_SDK/GD32VW55x_RELEASE_V1.0.2/MSDK/lwip/libcoap-4.3.4/src\coap_subscribe.c ****   if (pdu->code != COAP_REQUEST_CODE_GET &&
 124:C:/Users/stapi/OneDrive/Desktop/GD32VW553/GD32VW55X_Wifi_BLE_SDK/GD32VW55x_RELEASE_V1.0.2/MSDK/lwip/libcoap-4.3.4/src\coap_subscribe.c ****       pdu->code != COAP_REQUEST_CODE_FETCH)
 125:C:/Users/stapi/OneDrive/Desktop/GD32VW553/GD32VW55X_Wifi_BLE_SDK/GD32VW55x_RELEASE_V1.0.2/MSDK/lwip/libcoap-4.3.4/src\coap_subscribe.c ****     goto malformed;
 126:C:/Users/stapi/OneDrive/Desktop/GD32VW553/GD32VW55X_Wifi_BLE_SDK/GD32VW55x_RELEASE_V1.0.2/MSDK/lwip/libcoap-4.3.4/src\coap_subscribe.c **** 
 127:C:/Users/stapi/OneDrive/Desktop/GD32VW553/GD32VW55X_Wifi_BLE_SDK/GD32VW55x_RELEASE_V1.0.2/MSDK/lwip/libcoap-4.3.4/src\coap_subscribe.c ****   observe = coap_check_option(pdu, COAP_OPTION_OBSERVE, &opt_iter);
 128:C:/Users/stapi/OneDrive/Desktop/GD32VW553/GD32VW55X_Wifi_BLE_SDK/GD32VW55x_RELEASE_V1.0.2/MSDK/lwip/libcoap-4.3.4/src\coap_subscribe.c ****   if (observe == NULL)
 129:C:/Users/stapi/OneDrive/Desktop/GD32VW553/GD32VW55X_Wifi_BLE_SDK/GD32VW55x_RELEASE_V1.0.2/MSDK/lwip/libcoap-4.3.4/src\coap_subscribe.c ****     goto malformed;
 130:C:/Users/stapi/OneDrive/Desktop/GD32VW553/GD32VW55X_Wifi_BLE_SDK/GD32VW55x_RELEASE_V1.0.2/MSDK/lwip/libcoap-4.3.4/src\coap_subscribe.c ****   observe_action = coap_decode_var_bytes(coap_opt_value(observe),
 131:C:/Users/stapi/OneDrive/Desktop/GD32VW553/GD32VW55X_Wifi_BLE_SDK/GD32VW55x_RELEASE_V1.0.2/MSDK/lwip/libcoap-4.3.4/src\coap_subscribe.c ****                                          coap_opt_length(observe));
 132:C:/Users/stapi/OneDrive/Desktop/GD32VW553/GD32VW55X_Wifi_BLE_SDK/GD32VW55x_RELEASE_V1.0.2/MSDK/lwip/libcoap-4.3.4/src\coap_subscribe.c ****   if (observe_action != COAP_OBSERVE_ESTABLISH)
 133:C:/Users/stapi/OneDrive/Desktop/GD32VW553/GD32VW55X_Wifi_BLE_SDK/GD32VW55x_RELEASE_V1.0.2/MSDK/lwip/libcoap-4.3.4/src\coap_subscribe.c ****     goto malformed;
 134:C:/Users/stapi/OneDrive/Desktop/GD32VW553/GD32VW55X_Wifi_BLE_SDK/GD32VW55x_RELEASE_V1.0.2/MSDK/lwip/libcoap-4.3.4/src\coap_subscribe.c **** 
 135:C:/Users/stapi/OneDrive/Desktop/GD32VW553/GD32VW55X_Wifi_BLE_SDK/GD32VW55x_RELEASE_V1.0.2/MSDK/lwip/libcoap-4.3.4/src\coap_subscribe.c ****   /* Get the resource */
 136:C:/Users/stapi/OneDrive/Desktop/GD32VW553/GD32VW55X_Wifi_BLE_SDK/GD32VW55x_RELEASE_V1.0.2/MSDK/lwip/libcoap-4.3.4/src\coap_subscribe.c **** 
 137:C:/Users/stapi/OneDrive/Desktop/GD32VW553/GD32VW55X_Wifi_BLE_SDK/GD32VW55x_RELEASE_V1.0.2/MSDK/lwip/libcoap-4.3.4/src\coap_subscribe.c ****   uri_path = coap_get_uri_path(pdu);
 138:C:/Users/stapi/OneDrive/Desktop/GD32VW553/GD32VW55X_Wifi_BLE_SDK/GD32VW55x_RELEASE_V1.0.2/MSDK/lwip/libcoap-4.3.4/src\coap_subscribe.c ****   if (!uri_path)
 139:C:/Users/stapi/OneDrive/Desktop/GD32VW553/GD32VW55X_Wifi_BLE_SDK/GD32VW55x_RELEASE_V1.0.2/MSDK/lwip/libcoap-4.3.4/src\coap_subscribe.c ****     goto malformed;
 140:C:/Users/stapi/OneDrive/Desktop/GD32VW553/GD32VW55X_Wifi_BLE_SDK/GD32VW55x_RELEASE_V1.0.2/MSDK/lwip/libcoap-4.3.4/src\coap_subscribe.c **** 
 141:C:/Users/stapi/OneDrive/Desktop/GD32VW553/GD32VW55X_Wifi_BLE_SDK/GD32VW55x_RELEASE_V1.0.2/MSDK/lwip/libcoap-4.3.4/src\coap_subscribe.c ****   r = coap_get_resource_from_uri_path(session->context,
 142:C:/Users/stapi/OneDrive/Desktop/GD32VW553/GD32VW55X_Wifi_BLE_SDK/GD32VW55x_RELEASE_V1.0.2/MSDK/lwip/libcoap-4.3.4/src\coap_subscribe.c ****                                       (coap_str_const_t *)uri_path);
 143:C:/Users/stapi/OneDrive/Desktop/GD32VW553/GD32VW55X_Wifi_BLE_SDK/GD32VW55x_RELEASE_V1.0.2/MSDK/lwip/libcoap-4.3.4/src\coap_subscribe.c ****   if (r == NULL) {
 144:C:/Users/stapi/OneDrive/Desktop/GD32VW553/GD32VW55X_Wifi_BLE_SDK/GD32VW55x_RELEASE_V1.0.2/MSDK/lwip/libcoap-4.3.4/src\coap_subscribe.c ****     coap_log_warn("coap_persist_observe_add: resource '%s' not defined\n",
 145:C:/Users/stapi/OneDrive/Desktop/GD32VW553/GD32VW55X_Wifi_BLE_SDK/GD32VW55x_RELEASE_V1.0.2/MSDK/lwip/libcoap-4.3.4/src\coap_subscribe.c ****                   uri_path->s);
 146:C:/Users/stapi/OneDrive/Desktop/GD32VW553/GD32VW55X_Wifi_BLE_SDK/GD32VW55x_RELEASE_V1.0.2/MSDK/lwip/libcoap-4.3.4/src\coap_subscribe.c ****     goto fail;
 147:C:/Users/stapi/OneDrive/Desktop/GD32VW553/GD32VW55X_Wifi_BLE_SDK/GD32VW55x_RELEASE_V1.0.2/MSDK/lwip/libcoap-4.3.4/src\coap_subscribe.c ****   }
 148:C:/Users/stapi/OneDrive/Desktop/GD32VW553/GD32VW55X_Wifi_BLE_SDK/GD32VW55x_RELEASE_V1.0.2/MSDK/lwip/libcoap-4.3.4/src\coap_subscribe.c ****   if (!r->observable) {
 149:C:/Users/stapi/OneDrive/Desktop/GD32VW553/GD32VW55X_Wifi_BLE_SDK/GD32VW55x_RELEASE_V1.0.2/MSDK/lwip/libcoap-4.3.4/src\coap_subscribe.c ****     coap_log_warn("coap_persist_observe_add: resource '%s' not observable\n",
 150:C:/Users/stapi/OneDrive/Desktop/GD32VW553/GD32VW55X_Wifi_BLE_SDK/GD32VW55x_RELEASE_V1.0.2/MSDK/lwip/libcoap-4.3.4/src\coap_subscribe.c ****                   uri_path->s);
 151:C:/Users/stapi/OneDrive/Desktop/GD32VW553/GD32VW55X_Wifi_BLE_SDK/GD32VW55x_RELEASE_V1.0.2/MSDK/lwip/libcoap-4.3.4/src\coap_subscribe.c ****     goto fail;
 152:C:/Users/stapi/OneDrive/Desktop/GD32VW553/GD32VW55X_Wifi_BLE_SDK/GD32VW55x_RELEASE_V1.0.2/MSDK/lwip/libcoap-4.3.4/src\coap_subscribe.c ****   }
 153:C:/Users/stapi/OneDrive/Desktop/GD32VW553/GD32VW55X_Wifi_BLE_SDK/GD32VW55x_RELEASE_V1.0.2/MSDK/lwip/libcoap-4.3.4/src\coap_subscribe.c ****   coap_delete_string(uri_path);
 154:C:/Users/stapi/OneDrive/Desktop/GD32VW553/GD32VW55X_Wifi_BLE_SDK/GD32VW55x_RELEASE_V1.0.2/MSDK/lwip/libcoap-4.3.4/src\coap_subscribe.c ****   uri_path = NULL;
 155:C:/Users/stapi/OneDrive/Desktop/GD32VW553/GD32VW55X_Wifi_BLE_SDK/GD32VW55x_RELEASE_V1.0.2/MSDK/lwip/libcoap-4.3.4/src\coap_subscribe.c **** 
 156:C:/Users/stapi/OneDrive/Desktop/GD32VW553/GD32VW55X_Wifi_BLE_SDK/GD32VW55x_RELEASE_V1.0.2/MSDK/lwip/libcoap-4.3.4/src\coap_subscribe.c ****   /* Create / update subscription for observing */
 157:C:/Users/stapi/OneDrive/Desktop/GD32VW553/GD32VW55X_Wifi_BLE_SDK/GD32VW55x_RELEASE_V1.0.2/MSDK/lwip/libcoap-4.3.4/src\coap_subscribe.c ****   /* Now set up the subscription */
 158:C:/Users/stapi/OneDrive/Desktop/GD32VW553/GD32VW55X_Wifi_BLE_SDK/GD32VW55x_RELEASE_V1.0.2/MSDK/lwip/libcoap-4.3.4/src\coap_subscribe.c ****   s = coap_add_observer(r, session, &pdu->actual_token, pdu);
 159:C:/Users/stapi/OneDrive/Desktop/GD32VW553/GD32VW55X_Wifi_BLE_SDK/GD32VW55x_RELEASE_V1.0.2/MSDK/lwip/libcoap-4.3.4/src\coap_subscribe.c ****   if (s == NULL)
 160:C:/Users/stapi/OneDrive/Desktop/GD32VW553/GD32VW55X_Wifi_BLE_SDK/GD32VW55x_RELEASE_V1.0.2/MSDK/lwip/libcoap-4.3.4/src\coap_subscribe.c ****     goto fail;
 161:C:/Users/stapi/OneDrive/Desktop/GD32VW553/GD32VW55X_Wifi_BLE_SDK/GD32VW55x_RELEASE_V1.0.2/MSDK/lwip/libcoap-4.3.4/src\coap_subscribe.c **** 
 162:C:/Users/stapi/OneDrive/Desktop/GD32VW553/GD32VW55X_Wifi_BLE_SDK/GD32VW55x_RELEASE_V1.0.2/MSDK/lwip/libcoap-4.3.4/src\coap_subscribe.c **** #if COAP_OSCORE_SUPPORT
 163:C:/Users/stapi/OneDrive/Desktop/GD32VW553/GD32VW55X_Wifi_BLE_SDK/GD32VW55x_RELEASE_V1.0.2/MSDK/lwip/libcoap-4.3.4/src\coap_subscribe.c ****   if (oscore_info) {
 164:C:/Users/stapi/OneDrive/Desktop/GD32VW553/GD32VW55X_Wifi_BLE_SDK/GD32VW55x_RELEASE_V1.0.2/MSDK/lwip/libcoap-4.3.4/src\coap_subscribe.c ****     coap_log_debug("persist: OSCORE association being updated\n");
 165:C:/Users/stapi/OneDrive/Desktop/GD32VW553/GD32VW55X_Wifi_BLE_SDK/GD32VW55x_RELEASE_V1.0.2/MSDK/lwip/libcoap-4.3.4/src\coap_subscribe.c ****     /*
 166:C:/Users/stapi/OneDrive/Desktop/GD32VW553/GD32VW55X_Wifi_BLE_SDK/GD32VW55x_RELEASE_V1.0.2/MSDK/lwip/libcoap-4.3.4/src\coap_subscribe.c ****      * Need to track the association used for tracking this observe, done as
 167:C:/Users/stapi/OneDrive/Desktop/GD32VW553/GD32VW55X_Wifi_BLE_SDK/GD32VW55x_RELEASE_V1.0.2/MSDK/lwip/libcoap-4.3.4/src\coap_subscribe.c ****      * a CBOR array. Written in coap_add_observer().
 168:C:/Users/stapi/OneDrive/Desktop/GD32VW553/GD32VW55X_Wifi_BLE_SDK/GD32VW55x_RELEASE_V1.0.2/MSDK/lwip/libcoap-4.3.4/src\coap_subscribe.c ****      *
 169:C:/Users/stapi/OneDrive/Desktop/GD32VW553/GD32VW55X_Wifi_BLE_SDK/GD32VW55x_RELEASE_V1.0.2/MSDK/lwip/libcoap-4.3.4/src\coap_subscribe.c ****      * If an entry is null, then use nil, else a set of bytes
 170:C:/Users/stapi/OneDrive/Desktop/GD32VW553/GD32VW55X_Wifi_BLE_SDK/GD32VW55x_RELEASE_V1.0.2/MSDK/lwip/libcoap-4.3.4/src\coap_subscribe.c ****      *
 171:C:/Users/stapi/OneDrive/Desktop/GD32VW553/GD32VW55X_Wifi_BLE_SDK/GD32VW55x_RELEASE_V1.0.2/MSDK/lwip/libcoap-4.3.4/src\coap_subscribe.c ****      * Currently tracking 5 items
 172:C:/Users/stapi/OneDrive/Desktop/GD32VW553/GD32VW55X_Wifi_BLE_SDK/GD32VW55x_RELEASE_V1.0.2/MSDK/lwip/libcoap-4.3.4/src\coap_subscribe.c ****      *  recipient_id
 173:C:/Users/stapi/OneDrive/Desktop/GD32VW553/GD32VW55X_Wifi_BLE_SDK/GD32VW55x_RELEASE_V1.0.2/MSDK/lwip/libcoap-4.3.4/src\coap_subscribe.c ****      *  id_context
 174:C:/Users/stapi/OneDrive/Desktop/GD32VW553/GD32VW55X_Wifi_BLE_SDK/GD32VW55x_RELEASE_V1.0.2/MSDK/lwip/libcoap-4.3.4/src\coap_subscribe.c ****      *  aad        (from oscore_association_t)
 175:C:/Users/stapi/OneDrive/Desktop/GD32VW553/GD32VW55X_Wifi_BLE_SDK/GD32VW55x_RELEASE_V1.0.2/MSDK/lwip/libcoap-4.3.4/src\coap_subscribe.c ****      *  partial_iv (from oscore_association_t)
 176:C:/Users/stapi/OneDrive/Desktop/GD32VW553/GD32VW55X_Wifi_BLE_SDK/GD32VW55x_RELEASE_V1.0.2/MSDK/lwip/libcoap-4.3.4/src\coap_subscribe.c ****      *  nonce      (from oscore_association_t)
 177:C:/Users/stapi/OneDrive/Desktop/GD32VW553/GD32VW55X_Wifi_BLE_SDK/GD32VW55x_RELEASE_V1.0.2/MSDK/lwip/libcoap-4.3.4/src\coap_subscribe.c ****      */
 178:C:/Users/stapi/OneDrive/Desktop/GD32VW553/GD32VW55X_Wifi_BLE_SDK/GD32VW55x_RELEASE_V1.0.2/MSDK/lwip/libcoap-4.3.4/src\coap_subscribe.c ****     oscore_ctx_t *osc_ctx;
 179:C:/Users/stapi/OneDrive/Desktop/GD32VW553/GD32VW55X_Wifi_BLE_SDK/GD32VW55x_RELEASE_V1.0.2/MSDK/lwip/libcoap-4.3.4/src\coap_subscribe.c ****     const uint8_t *info_buf = oscore_info->s;
 180:C:/Users/stapi/OneDrive/Desktop/GD32VW553/GD32VW55X_Wifi_BLE_SDK/GD32VW55x_RELEASE_V1.0.2/MSDK/lwip/libcoap-4.3.4/src\coap_subscribe.c ****     size_t info_buf_len = oscore_info->length;
 181:C:/Users/stapi/OneDrive/Desktop/GD32VW553/GD32VW55X_Wifi_BLE_SDK/GD32VW55x_RELEASE_V1.0.2/MSDK/lwip/libcoap-4.3.4/src\coap_subscribe.c ****     size_t ret = 0;
 182:C:/Users/stapi/OneDrive/Desktop/GD32VW553/GD32VW55X_Wifi_BLE_SDK/GD32VW55x_RELEASE_V1.0.2/MSDK/lwip/libcoap-4.3.4/src\coap_subscribe.c ****     coap_bin_const_t oscore_key_id;
 183:C:/Users/stapi/OneDrive/Desktop/GD32VW553/GD32VW55X_Wifi_BLE_SDK/GD32VW55x_RELEASE_V1.0.2/MSDK/lwip/libcoap-4.3.4/src\coap_subscribe.c ****     coap_bin_const_t partial_iv;
 184:C:/Users/stapi/OneDrive/Desktop/GD32VW553/GD32VW55X_Wifi_BLE_SDK/GD32VW55x_RELEASE_V1.0.2/MSDK/lwip/libcoap-4.3.4/src\coap_subscribe.c ****     coap_bin_const_t aad;
 185:C:/Users/stapi/OneDrive/Desktop/GD32VW553/GD32VW55X_Wifi_BLE_SDK/GD32VW55x_RELEASE_V1.0.2/MSDK/lwip/libcoap-4.3.4/src\coap_subscribe.c ****     coap_bin_const_t id_context;
 186:C:/Users/stapi/OneDrive/Desktop/GD32VW553/GD32VW55X_Wifi_BLE_SDK/GD32VW55x_RELEASE_V1.0.2/MSDK/lwip/libcoap-4.3.4/src\coap_subscribe.c ****     coap_bin_const_t nonce;
 187:C:/Users/stapi/OneDrive/Desktop/GD32VW553/GD32VW55X_Wifi_BLE_SDK/GD32VW55x_RELEASE_V1.0.2/MSDK/lwip/libcoap-4.3.4/src\coap_subscribe.c ****     int have_aad = 0;
 188:C:/Users/stapi/OneDrive/Desktop/GD32VW553/GD32VW55X_Wifi_BLE_SDK/GD32VW55x_RELEASE_V1.0.2/MSDK/lwip/libcoap-4.3.4/src\coap_subscribe.c ****     int have_partial_iv = 0;
 189:C:/Users/stapi/OneDrive/Desktop/GD32VW553/GD32VW55X_Wifi_BLE_SDK/GD32VW55x_RELEASE_V1.0.2/MSDK/lwip/libcoap-4.3.4/src\coap_subscribe.c ****     int have_id_context = 0;
 190:C:/Users/stapi/OneDrive/Desktop/GD32VW553/GD32VW55X_Wifi_BLE_SDK/GD32VW55x_RELEASE_V1.0.2/MSDK/lwip/libcoap-4.3.4/src\coap_subscribe.c ****     int have_nonce = 0;
 191:C:/Users/stapi/OneDrive/Desktop/GD32VW553/GD32VW55X_Wifi_BLE_SDK/GD32VW55x_RELEASE_V1.0.2/MSDK/lwip/libcoap-4.3.4/src\coap_subscribe.c **** 
 192:C:/Users/stapi/OneDrive/Desktop/GD32VW553/GD32VW55X_Wifi_BLE_SDK/GD32VW55x_RELEASE_V1.0.2/MSDK/lwip/libcoap-4.3.4/src\coap_subscribe.c ****     ret = oscore_cbor_get_next_element(&info_buf, &info_buf_len);
 193:C:/Users/stapi/OneDrive/Desktop/GD32VW553/GD32VW55X_Wifi_BLE_SDK/GD32VW55x_RELEASE_V1.0.2/MSDK/lwip/libcoap-4.3.4/src\coap_subscribe.c ****     if (ret != CBOR_ARRAY)
 194:C:/Users/stapi/OneDrive/Desktop/GD32VW553/GD32VW55X_Wifi_BLE_SDK/GD32VW55x_RELEASE_V1.0.2/MSDK/lwip/libcoap-4.3.4/src\coap_subscribe.c ****       goto oscore_fail;
 195:C:/Users/stapi/OneDrive/Desktop/GD32VW553/GD32VW55X_Wifi_BLE_SDK/GD32VW55x_RELEASE_V1.0.2/MSDK/lwip/libcoap-4.3.4/src\coap_subscribe.c ****     if (oscore_cbor_get_element_size(&info_buf, &info_buf_len) != 5)
 196:C:/Users/stapi/OneDrive/Desktop/GD32VW553/GD32VW55X_Wifi_BLE_SDK/GD32VW55x_RELEASE_V1.0.2/MSDK/lwip/libcoap-4.3.4/src\coap_subscribe.c ****       goto oscore_fail;
 197:C:/Users/stapi/OneDrive/Desktop/GD32VW553/GD32VW55X_Wifi_BLE_SDK/GD32VW55x_RELEASE_V1.0.2/MSDK/lwip/libcoap-4.3.4/src\coap_subscribe.c **** 
 198:C:/Users/stapi/OneDrive/Desktop/GD32VW553/GD32VW55X_Wifi_BLE_SDK/GD32VW55x_RELEASE_V1.0.2/MSDK/lwip/libcoap-4.3.4/src\coap_subscribe.c ****     /* recipient_id */
 199:C:/Users/stapi/OneDrive/Desktop/GD32VW553/GD32VW55X_Wifi_BLE_SDK/GD32VW55x_RELEASE_V1.0.2/MSDK/lwip/libcoap-4.3.4/src\coap_subscribe.c ****     ret = oscore_cbor_get_next_element(&info_buf, &info_buf_len);
 200:C:/Users/stapi/OneDrive/Desktop/GD32VW553/GD32VW55X_Wifi_BLE_SDK/GD32VW55x_RELEASE_V1.0.2/MSDK/lwip/libcoap-4.3.4/src\coap_subscribe.c ****     if (ret != CBOR_BYTE_STRING)
 201:C:/Users/stapi/OneDrive/Desktop/GD32VW553/GD32VW55X_Wifi_BLE_SDK/GD32VW55x_RELEASE_V1.0.2/MSDK/lwip/libcoap-4.3.4/src\coap_subscribe.c ****       goto oscore_fail;
 202:C:/Users/stapi/OneDrive/Desktop/GD32VW553/GD32VW55X_Wifi_BLE_SDK/GD32VW55x_RELEASE_V1.0.2/MSDK/lwip/libcoap-4.3.4/src\coap_subscribe.c ****     oscore_key_id.length = oscore_cbor_get_element_size(&info_buf,
 203:C:/Users/stapi/OneDrive/Desktop/GD32VW553/GD32VW55X_Wifi_BLE_SDK/GD32VW55x_RELEASE_V1.0.2/MSDK/lwip/libcoap-4.3.4/src\coap_subscribe.c ****                                                         &info_buf_len);
 204:C:/Users/stapi/OneDrive/Desktop/GD32VW553/GD32VW55X_Wifi_BLE_SDK/GD32VW55x_RELEASE_V1.0.2/MSDK/lwip/libcoap-4.3.4/src\coap_subscribe.c ****     oscore_key_id.s = info_buf;
 205:C:/Users/stapi/OneDrive/Desktop/GD32VW553/GD32VW55X_Wifi_BLE_SDK/GD32VW55x_RELEASE_V1.0.2/MSDK/lwip/libcoap-4.3.4/src\coap_subscribe.c ****     info_buf += oscore_key_id.length;
 206:C:/Users/stapi/OneDrive/Desktop/GD32VW553/GD32VW55X_Wifi_BLE_SDK/GD32VW55x_RELEASE_V1.0.2/MSDK/lwip/libcoap-4.3.4/src\coap_subscribe.c **** 
 207:C:/Users/stapi/OneDrive/Desktop/GD32VW553/GD32VW55X_Wifi_BLE_SDK/GD32VW55x_RELEASE_V1.0.2/MSDK/lwip/libcoap-4.3.4/src\coap_subscribe.c ****     /* id_context */
 208:C:/Users/stapi/OneDrive/Desktop/GD32VW553/GD32VW55X_Wifi_BLE_SDK/GD32VW55x_RELEASE_V1.0.2/MSDK/lwip/libcoap-4.3.4/src\coap_subscribe.c ****     ret = oscore_cbor_get_next_element(&info_buf, &info_buf_len);
 209:C:/Users/stapi/OneDrive/Desktop/GD32VW553/GD32VW55X_Wifi_BLE_SDK/GD32VW55x_RELEASE_V1.0.2/MSDK/lwip/libcoap-4.3.4/src\coap_subscribe.c ****     if (ret == CBOR_BYTE_STRING) {
 210:C:/Users/stapi/OneDrive/Desktop/GD32VW553/GD32VW55X_Wifi_BLE_SDK/GD32VW55x_RELEASE_V1.0.2/MSDK/lwip/libcoap-4.3.4/src\coap_subscribe.c ****       id_context.length = oscore_cbor_get_element_size(&info_buf,
 211:C:/Users/stapi/OneDrive/Desktop/GD32VW553/GD32VW55X_Wifi_BLE_SDK/GD32VW55x_RELEASE_V1.0.2/MSDK/lwip/libcoap-4.3.4/src\coap_subscribe.c ****                                                        &info_buf_len);
 212:C:/Users/stapi/OneDrive/Desktop/GD32VW553/GD32VW55X_Wifi_BLE_SDK/GD32VW55x_RELEASE_V1.0.2/MSDK/lwip/libcoap-4.3.4/src\coap_subscribe.c ****       id_context.s = info_buf;
 213:C:/Users/stapi/OneDrive/Desktop/GD32VW553/GD32VW55X_Wifi_BLE_SDK/GD32VW55x_RELEASE_V1.0.2/MSDK/lwip/libcoap-4.3.4/src\coap_subscribe.c ****       info_buf += id_context.length;
 214:C:/Users/stapi/OneDrive/Desktop/GD32VW553/GD32VW55X_Wifi_BLE_SDK/GD32VW55x_RELEASE_V1.0.2/MSDK/lwip/libcoap-4.3.4/src\coap_subscribe.c ****       have_id_context = 1;
 215:C:/Users/stapi/OneDrive/Desktop/GD32VW553/GD32VW55X_Wifi_BLE_SDK/GD32VW55x_RELEASE_V1.0.2/MSDK/lwip/libcoap-4.3.4/src\coap_subscribe.c ****     } else if (ret == CBOR_SIMPLE_VALUE &&
 216:C:/Users/stapi/OneDrive/Desktop/GD32VW553/GD32VW55X_Wifi_BLE_SDK/GD32VW55x_RELEASE_V1.0.2/MSDK/lwip/libcoap-4.3.4/src\coap_subscribe.c ****                oscore_cbor_get_element_size(&info_buf,
 217:C:/Users/stapi/OneDrive/Desktop/GD32VW553/GD32VW55X_Wifi_BLE_SDK/GD32VW55x_RELEASE_V1.0.2/MSDK/lwip/libcoap-4.3.4/src\coap_subscribe.c ****                                             &info_buf_len) == CBOR_NULL) {
 218:C:/Users/stapi/OneDrive/Desktop/GD32VW553/GD32VW55X_Wifi_BLE_SDK/GD32VW55x_RELEASE_V1.0.2/MSDK/lwip/libcoap-4.3.4/src\coap_subscribe.c ****     } else
 219:C:/Users/stapi/OneDrive/Desktop/GD32VW553/GD32VW55X_Wifi_BLE_SDK/GD32VW55x_RELEASE_V1.0.2/MSDK/lwip/libcoap-4.3.4/src\coap_subscribe.c ****       goto oscore_fail;
 220:C:/Users/stapi/OneDrive/Desktop/GD32VW553/GD32VW55X_Wifi_BLE_SDK/GD32VW55x_RELEASE_V1.0.2/MSDK/lwip/libcoap-4.3.4/src\coap_subscribe.c **** 
 221:C:/Users/stapi/OneDrive/Desktop/GD32VW553/GD32VW55X_Wifi_BLE_SDK/GD32VW55x_RELEASE_V1.0.2/MSDK/lwip/libcoap-4.3.4/src\coap_subscribe.c ****     /* aad */
 222:C:/Users/stapi/OneDrive/Desktop/GD32VW553/GD32VW55X_Wifi_BLE_SDK/GD32VW55x_RELEASE_V1.0.2/MSDK/lwip/libcoap-4.3.4/src\coap_subscribe.c ****     ret = oscore_cbor_get_next_element(&info_buf, &info_buf_len);
 223:C:/Users/stapi/OneDrive/Desktop/GD32VW553/GD32VW55X_Wifi_BLE_SDK/GD32VW55x_RELEASE_V1.0.2/MSDK/lwip/libcoap-4.3.4/src\coap_subscribe.c ****     if (ret == CBOR_BYTE_STRING) {
 224:C:/Users/stapi/OneDrive/Desktop/GD32VW553/GD32VW55X_Wifi_BLE_SDK/GD32VW55x_RELEASE_V1.0.2/MSDK/lwip/libcoap-4.3.4/src\coap_subscribe.c ****       aad.length = oscore_cbor_get_element_size(&info_buf, &info_buf_len);
 225:C:/Users/stapi/OneDrive/Desktop/GD32VW553/GD32VW55X_Wifi_BLE_SDK/GD32VW55x_RELEASE_V1.0.2/MSDK/lwip/libcoap-4.3.4/src\coap_subscribe.c ****       aad.s = info_buf;
 226:C:/Users/stapi/OneDrive/Desktop/GD32VW553/GD32VW55X_Wifi_BLE_SDK/GD32VW55x_RELEASE_V1.0.2/MSDK/lwip/libcoap-4.3.4/src\coap_subscribe.c ****       info_buf += aad.length;
 227:C:/Users/stapi/OneDrive/Desktop/GD32VW553/GD32VW55X_Wifi_BLE_SDK/GD32VW55x_RELEASE_V1.0.2/MSDK/lwip/libcoap-4.3.4/src\coap_subscribe.c ****       have_aad = 1;
 228:C:/Users/stapi/OneDrive/Desktop/GD32VW553/GD32VW55X_Wifi_BLE_SDK/GD32VW55x_RELEASE_V1.0.2/MSDK/lwip/libcoap-4.3.4/src\coap_subscribe.c ****     } else if (ret == CBOR_SIMPLE_VALUE &&
 229:C:/Users/stapi/OneDrive/Desktop/GD32VW553/GD32VW55X_Wifi_BLE_SDK/GD32VW55x_RELEASE_V1.0.2/MSDK/lwip/libcoap-4.3.4/src\coap_subscribe.c ****                oscore_cbor_get_element_size(&info_buf,
 230:C:/Users/stapi/OneDrive/Desktop/GD32VW553/GD32VW55X_Wifi_BLE_SDK/GD32VW55x_RELEASE_V1.0.2/MSDK/lwip/libcoap-4.3.4/src\coap_subscribe.c ****                                             &info_buf_len) == CBOR_NULL) {
 231:C:/Users/stapi/OneDrive/Desktop/GD32VW553/GD32VW55X_Wifi_BLE_SDK/GD32VW55x_RELEASE_V1.0.2/MSDK/lwip/libcoap-4.3.4/src\coap_subscribe.c ****     } else
 232:C:/Users/stapi/OneDrive/Desktop/GD32VW553/GD32VW55X_Wifi_BLE_SDK/GD32VW55x_RELEASE_V1.0.2/MSDK/lwip/libcoap-4.3.4/src\coap_subscribe.c ****       goto oscore_fail;
 233:C:/Users/stapi/OneDrive/Desktop/GD32VW553/GD32VW55X_Wifi_BLE_SDK/GD32VW55x_RELEASE_V1.0.2/MSDK/lwip/libcoap-4.3.4/src\coap_subscribe.c **** 
 234:C:/Users/stapi/OneDrive/Desktop/GD32VW553/GD32VW55X_Wifi_BLE_SDK/GD32VW55x_RELEASE_V1.0.2/MSDK/lwip/libcoap-4.3.4/src\coap_subscribe.c ****     /* partial_iv */
 235:C:/Users/stapi/OneDrive/Desktop/GD32VW553/GD32VW55X_Wifi_BLE_SDK/GD32VW55x_RELEASE_V1.0.2/MSDK/lwip/libcoap-4.3.4/src\coap_subscribe.c ****     ret = oscore_cbor_get_next_element(&info_buf, &info_buf_len);
 236:C:/Users/stapi/OneDrive/Desktop/GD32VW553/GD32VW55X_Wifi_BLE_SDK/GD32VW55x_RELEASE_V1.0.2/MSDK/lwip/libcoap-4.3.4/src\coap_subscribe.c ****     if (ret == CBOR_BYTE_STRING) {
 237:C:/Users/stapi/OneDrive/Desktop/GD32VW553/GD32VW55X_Wifi_BLE_SDK/GD32VW55x_RELEASE_V1.0.2/MSDK/lwip/libcoap-4.3.4/src\coap_subscribe.c ****       partial_iv.length = oscore_cbor_get_element_size(&info_buf,
 238:C:/Users/stapi/OneDrive/Desktop/GD32VW553/GD32VW55X_Wifi_BLE_SDK/GD32VW55x_RELEASE_V1.0.2/MSDK/lwip/libcoap-4.3.4/src\coap_subscribe.c ****                                                        &info_buf_len);
 239:C:/Users/stapi/OneDrive/Desktop/GD32VW553/GD32VW55X_Wifi_BLE_SDK/GD32VW55x_RELEASE_V1.0.2/MSDK/lwip/libcoap-4.3.4/src\coap_subscribe.c ****       partial_iv.s = info_buf;
 240:C:/Users/stapi/OneDrive/Desktop/GD32VW553/GD32VW55X_Wifi_BLE_SDK/GD32VW55x_RELEASE_V1.0.2/MSDK/lwip/libcoap-4.3.4/src\coap_subscribe.c ****       info_buf += partial_iv.length;
 241:C:/Users/stapi/OneDrive/Desktop/GD32VW553/GD32VW55X_Wifi_BLE_SDK/GD32VW55x_RELEASE_V1.0.2/MSDK/lwip/libcoap-4.3.4/src\coap_subscribe.c ****       have_partial_iv = 1;
 242:C:/Users/stapi/OneDrive/Desktop/GD32VW553/GD32VW55X_Wifi_BLE_SDK/GD32VW55x_RELEASE_V1.0.2/MSDK/lwip/libcoap-4.3.4/src\coap_subscribe.c ****     } else if (ret == CBOR_SIMPLE_VALUE &&
 243:C:/Users/stapi/OneDrive/Desktop/GD32VW553/GD32VW55X_Wifi_BLE_SDK/GD32VW55x_RELEASE_V1.0.2/MSDK/lwip/libcoap-4.3.4/src\coap_subscribe.c ****                oscore_cbor_get_element_size(&info_buf,
 244:C:/Users/stapi/OneDrive/Desktop/GD32VW553/GD32VW55X_Wifi_BLE_SDK/GD32VW55x_RELEASE_V1.0.2/MSDK/lwip/libcoap-4.3.4/src\coap_subscribe.c ****                                             &info_buf_len) == CBOR_NULL) {
 245:C:/Users/stapi/OneDrive/Desktop/GD32VW553/GD32VW55X_Wifi_BLE_SDK/GD32VW55x_RELEASE_V1.0.2/MSDK/lwip/libcoap-4.3.4/src\coap_subscribe.c ****     } else
 246:C:/Users/stapi/OneDrive/Desktop/GD32VW553/GD32VW55X_Wifi_BLE_SDK/GD32VW55x_RELEASE_V1.0.2/MSDK/lwip/libcoap-4.3.4/src\coap_subscribe.c ****       goto oscore_fail;
 247:C:/Users/stapi/OneDrive/Desktop/GD32VW553/GD32VW55X_Wifi_BLE_SDK/GD32VW55x_RELEASE_V1.0.2/MSDK/lwip/libcoap-4.3.4/src\coap_subscribe.c **** 
 248:C:/Users/stapi/OneDrive/Desktop/GD32VW553/GD32VW55X_Wifi_BLE_SDK/GD32VW55x_RELEASE_V1.0.2/MSDK/lwip/libcoap-4.3.4/src\coap_subscribe.c ****     /* nonce */
 249:C:/Users/stapi/OneDrive/Desktop/GD32VW553/GD32VW55X_Wifi_BLE_SDK/GD32VW55x_RELEASE_V1.0.2/MSDK/lwip/libcoap-4.3.4/src\coap_subscribe.c ****     ret = oscore_cbor_get_next_element(&info_buf, &info_buf_len);
 250:C:/Users/stapi/OneDrive/Desktop/GD32VW553/GD32VW55X_Wifi_BLE_SDK/GD32VW55x_RELEASE_V1.0.2/MSDK/lwip/libcoap-4.3.4/src\coap_subscribe.c ****     if (ret == CBOR_BYTE_STRING) {
 251:C:/Users/stapi/OneDrive/Desktop/GD32VW553/GD32VW55X_Wifi_BLE_SDK/GD32VW55x_RELEASE_V1.0.2/MSDK/lwip/libcoap-4.3.4/src\coap_subscribe.c ****       nonce.length = oscore_cbor_get_element_size(&info_buf,
 252:C:/Users/stapi/OneDrive/Desktop/GD32VW553/GD32VW55X_Wifi_BLE_SDK/GD32VW55x_RELEASE_V1.0.2/MSDK/lwip/libcoap-4.3.4/src\coap_subscribe.c ****                                                   &info_buf_len);
 253:C:/Users/stapi/OneDrive/Desktop/GD32VW553/GD32VW55X_Wifi_BLE_SDK/GD32VW55x_RELEASE_V1.0.2/MSDK/lwip/libcoap-4.3.4/src\coap_subscribe.c ****       nonce.s = info_buf;
 254:C:/Users/stapi/OneDrive/Desktop/GD32VW553/GD32VW55X_Wifi_BLE_SDK/GD32VW55x_RELEASE_V1.0.2/MSDK/lwip/libcoap-4.3.4/src\coap_subscribe.c ****       info_buf += nonce.length;
 255:C:/Users/stapi/OneDrive/Desktop/GD32VW553/GD32VW55X_Wifi_BLE_SDK/GD32VW55x_RELEASE_V1.0.2/MSDK/lwip/libcoap-4.3.4/src\coap_subscribe.c ****       have_nonce = 1;
 256:C:/Users/stapi/OneDrive/Desktop/GD32VW553/GD32VW55X_Wifi_BLE_SDK/GD32VW55x_RELEASE_V1.0.2/MSDK/lwip/libcoap-4.3.4/src\coap_subscribe.c ****     } else if (ret == CBOR_SIMPLE_VALUE &&
 257:C:/Users/stapi/OneDrive/Desktop/GD32VW553/GD32VW55X_Wifi_BLE_SDK/GD32VW55x_RELEASE_V1.0.2/MSDK/lwip/libcoap-4.3.4/src\coap_subscribe.c ****                oscore_cbor_get_element_size(&info_buf,
 258:C:/Users/stapi/OneDrive/Desktop/GD32VW553/GD32VW55X_Wifi_BLE_SDK/GD32VW55x_RELEASE_V1.0.2/MSDK/lwip/libcoap-4.3.4/src\coap_subscribe.c ****                                             &info_buf_len) == CBOR_NULL) {
 259:C:/Users/stapi/OneDrive/Desktop/GD32VW553/GD32VW55X_Wifi_BLE_SDK/GD32VW55x_RELEASE_V1.0.2/MSDK/lwip/libcoap-4.3.4/src\coap_subscribe.c ****     } else
 260:C:/Users/stapi/OneDrive/Desktop/GD32VW553/GD32VW55X_Wifi_BLE_SDK/GD32VW55x_RELEASE_V1.0.2/MSDK/lwip/libcoap-4.3.4/src\coap_subscribe.c ****       goto oscore_fail;
 261:C:/Users/stapi/OneDrive/Desktop/GD32VW553/GD32VW55X_Wifi_BLE_SDK/GD32VW55x_RELEASE_V1.0.2/MSDK/lwip/libcoap-4.3.4/src\coap_subscribe.c **** 
 262:C:/Users/stapi/OneDrive/Desktop/GD32VW553/GD32VW55X_Wifi_BLE_SDK/GD32VW55x_RELEASE_V1.0.2/MSDK/lwip/libcoap-4.3.4/src\coap_subscribe.c ****     osc_ctx = oscore_find_context(session->context, oscore_key_id,
 263:C:/Users/stapi/OneDrive/Desktop/GD32VW553/GD32VW55X_Wifi_BLE_SDK/GD32VW55x_RELEASE_V1.0.2/MSDK/lwip/libcoap-4.3.4/src\coap_subscribe.c ****                                   have_id_context ? &id_context : NULL, NULL,
 264:C:/Users/stapi/OneDrive/Desktop/GD32VW553/GD32VW55X_Wifi_BLE_SDK/GD32VW55x_RELEASE_V1.0.2/MSDK/lwip/libcoap-4.3.4/src\coap_subscribe.c ****                                   &session->recipient_ctx);
 265:C:/Users/stapi/OneDrive/Desktop/GD32VW553/GD32VW55X_Wifi_BLE_SDK/GD32VW55x_RELEASE_V1.0.2/MSDK/lwip/libcoap-4.3.4/src\coap_subscribe.c ****     if (osc_ctx) {
 266:C:/Users/stapi/OneDrive/Desktop/GD32VW553/GD32VW55X_Wifi_BLE_SDK/GD32VW55x_RELEASE_V1.0.2/MSDK/lwip/libcoap-4.3.4/src\coap_subscribe.c ****       session->oscore_encryption = 1;
 267:C:/Users/stapi/OneDrive/Desktop/GD32VW553/GD32VW55X_Wifi_BLE_SDK/GD32VW55x_RELEASE_V1.0.2/MSDK/lwip/libcoap-4.3.4/src\coap_subscribe.c ****       oscore_new_association(session, pdu, &pdu->actual_token,
 268:C:/Users/stapi/OneDrive/Desktop/GD32VW553/GD32VW55X_Wifi_BLE_SDK/GD32VW55x_RELEASE_V1.0.2/MSDK/lwip/libcoap-4.3.4/src\coap_subscribe.c ****                              session->recipient_ctx,
 269:C:/Users/stapi/OneDrive/Desktop/GD32VW553/GD32VW55X_Wifi_BLE_SDK/GD32VW55x_RELEASE_V1.0.2/MSDK/lwip/libcoap-4.3.4/src\coap_subscribe.c ****                              have_aad ? &aad : NULL,
 270:C:/Users/stapi/OneDrive/Desktop/GD32VW553/GD32VW55X_Wifi_BLE_SDK/GD32VW55x_RELEASE_V1.0.2/MSDK/lwip/libcoap-4.3.4/src\coap_subscribe.c ****                              have_nonce ? &nonce : NULL,
 271:C:/Users/stapi/OneDrive/Desktop/GD32VW553/GD32VW55X_Wifi_BLE_SDK/GD32VW55x_RELEASE_V1.0.2/MSDK/lwip/libcoap-4.3.4/src\coap_subscribe.c ****                              have_partial_iv ? &partial_iv : NULL,
 272:C:/Users/stapi/OneDrive/Desktop/GD32VW553/GD32VW55X_Wifi_BLE_SDK/GD32VW55x_RELEASE_V1.0.2/MSDK/lwip/libcoap-4.3.4/src\coap_subscribe.c ****                              1);
 273:C:/Users/stapi/OneDrive/Desktop/GD32VW553/GD32VW55X_Wifi_BLE_SDK/GD32VW55x_RELEASE_V1.0.2/MSDK/lwip/libcoap-4.3.4/src\coap_subscribe.c ****       coap_log_debug("persist: OSCORE association added\n");
 274:C:/Users/stapi/OneDrive/Desktop/GD32VW553/GD32VW55X_Wifi_BLE_SDK/GD32VW55x_RELEASE_V1.0.2/MSDK/lwip/libcoap-4.3.4/src\coap_subscribe.c ****       oscore_log_hex_value(COAP_LOG_OSCORE, "partial_iv",
 275:C:/Users/stapi/OneDrive/Desktop/GD32VW553/GD32VW55X_Wifi_BLE_SDK/GD32VW55x_RELEASE_V1.0.2/MSDK/lwip/libcoap-4.3.4/src\coap_subscribe.c ****                            have_partial_iv ? &partial_iv : NULL);
 276:C:/Users/stapi/OneDrive/Desktop/GD32VW553/GD32VW55X_Wifi_BLE_SDK/GD32VW55x_RELEASE_V1.0.2/MSDK/lwip/libcoap-4.3.4/src\coap_subscribe.c ****     }
 277:C:/Users/stapi/OneDrive/Desktop/GD32VW553/GD32VW55X_Wifi_BLE_SDK/GD32VW55x_RELEASE_V1.0.2/MSDK/lwip/libcoap-4.3.4/src\coap_subscribe.c ****   }
 278:C:/Users/stapi/OneDrive/Desktop/GD32VW553/GD32VW55X_Wifi_BLE_SDK/GD32VW55x_RELEASE_V1.0.2/MSDK/lwip/libcoap-4.3.4/src\coap_subscribe.c **** oscore_fail:
 279:C:/Users/stapi/OneDrive/Desktop/GD32VW553/GD32VW55X_Wifi_BLE_SDK/GD32VW55x_RELEASE_V1.0.2/MSDK/lwip/libcoap-4.3.4/src\coap_subscribe.c **** #else /* ! COAP_OSCORE_SUPPORT */
 280:C:/Users/stapi/OneDrive/Desktop/GD32VW553/GD32VW55X_Wifi_BLE_SDK/GD32VW55x_RELEASE_V1.0.2/MSDK/lwip/libcoap-4.3.4/src\coap_subscribe.c ****   (void)oscore_info;
 281:C:/Users/stapi/OneDrive/Desktop/GD32VW553/GD32VW55X_Wifi_BLE_SDK/GD32VW55x_RELEASE_V1.0.2/MSDK/lwip/libcoap-4.3.4/src\coap_subscribe.c **** #endif /* ! COAP_OSCORE_SUPPORT */
 282:C:/Users/stapi/OneDrive/Desktop/GD32VW553/GD32VW55X_Wifi_BLE_SDK/GD32VW55x_RELEASE_V1.0.2/MSDK/lwip/libcoap-4.3.4/src\coap_subscribe.c ****   coap_delete_pdu(pdu);
 283:C:/Users/stapi/OneDrive/Desktop/GD32VW553/GD32VW55X_Wifi_BLE_SDK/GD32VW55x_RELEASE_V1.0.2/MSDK/lwip/libcoap-4.3.4/src\coap_subscribe.c **** #if COAP_CONSTRAINED_STACK
 284:C:/Users/stapi/OneDrive/Desktop/GD32VW553/GD32VW55X_Wifi_BLE_SDK/GD32VW55x_RELEASE_V1.0.2/MSDK/lwip/libcoap-4.3.4/src\coap_subscribe.c ****   coap_mutex_unlock(&m_persist_add);
 285:C:/Users/stapi/OneDrive/Desktop/GD32VW553/GD32VW55X_Wifi_BLE_SDK/GD32VW55x_RELEASE_V1.0.2/MSDK/lwip/libcoap-4.3.4/src\coap_subscribe.c **** #endif /* COAP_CONSTRAINED_STACK */
 286:C:/Users/stapi/OneDrive/Desktop/GD32VW553/GD32VW55X_Wifi_BLE_SDK/GD32VW55x_RELEASE_V1.0.2/MSDK/lwip/libcoap-4.3.4/src\coap_subscribe.c ****   return s;
 287:C:/Users/stapi/OneDrive/Desktop/GD32VW553/GD32VW55X_Wifi_BLE_SDK/GD32VW55x_RELEASE_V1.0.2/MSDK/lwip/libcoap-4.3.4/src\coap_subscribe.c **** 
 288:C:/Users/stapi/OneDrive/Desktop/GD32VW553/GD32VW55X_Wifi_BLE_SDK/GD32VW55x_RELEASE_V1.0.2/MSDK/lwip/libcoap-4.3.4/src\coap_subscribe.c **** malformed:
 289:C:/Users/stapi/OneDrive/Desktop/GD32VW553/GD32VW55X_Wifi_BLE_SDK/GD32VW55x_RELEASE_V1.0.2/MSDK/lwip/libcoap-4.3.4/src\coap_subscribe.c ****   coap_log_warn("coap_persist_observe_add: discard malformed PDU\n");
 290:C:/Users/stapi/OneDrive/Desktop/GD32VW553/GD32VW55X_Wifi_BLE_SDK/GD32VW55x_RELEASE_V1.0.2/MSDK/lwip/libcoap-4.3.4/src\coap_subscribe.c **** fail:
 291:C:/Users/stapi/OneDrive/Desktop/GD32VW553/GD32VW55X_Wifi_BLE_SDK/GD32VW55x_RELEASE_V1.0.2/MSDK/lwip/libcoap-4.3.4/src\coap_subscribe.c **** #if COAP_CONSTRAINED_STACK
 292:C:/Users/stapi/OneDrive/Desktop/GD32VW553/GD32VW55X_Wifi_BLE_SDK/GD32VW55x_RELEASE_V1.0.2/MSDK/lwip/libcoap-4.3.4/src\coap_subscribe.c ****   coap_mutex_unlock(&m_persist_add);
 293:C:/Users/stapi/OneDrive/Desktop/GD32VW553/GD32VW55X_Wifi_BLE_SDK/GD32VW55x_RELEASE_V1.0.2/MSDK/lwip/libcoap-4.3.4/src\coap_subscribe.c **** #endif /* COAP_CONSTRAINED_STACK */
 294:C:/Users/stapi/OneDrive/Desktop/GD32VW553/GD32VW55X_Wifi_BLE_SDK/GD32VW55x_RELEASE_V1.0.2/MSDK/lwip/libcoap-4.3.4/src\coap_subscribe.c ****   coap_delete_string(uri_path);
 295:C:/Users/stapi/OneDrive/Desktop/GD32VW553/GD32VW55X_Wifi_BLE_SDK/GD32VW55x_RELEASE_V1.0.2/MSDK/lwip/libcoap-4.3.4/src\coap_subscribe.c ****   coap_delete_pdu(pdu);
 296:C:/Users/stapi/OneDrive/Desktop/GD32VW553/GD32VW55X_Wifi_BLE_SDK/GD32VW55x_RELEASE_V1.0.2/MSDK/lwip/libcoap-4.3.4/src\coap_subscribe.c ****   return NULL;
 297:C:/Users/stapi/OneDrive/Desktop/GD32VW553/GD32VW55X_Wifi_BLE_SDK/GD32VW55x_RELEASE_V1.0.2/MSDK/lwip/libcoap-4.3.4/src\coap_subscribe.c **** }
 172              		.loc 1 297 1 is_stmt 0
 173 0024 2285     		mv	a0,s0
 174 0026 2161     		addi	sp,sp,64
 175              		.cfi_remember_state
 176              		.cfi_def_cfa_offset 0
 177              	.LVL14:
 178 0028 17030000 		tail	__riscv_restore_6
 178      67000300 
 179              		.cfi_restore 21
 180              		.cfi_restore 20
 181              		.cfi_restore 19
 182              		.cfi_restore 18
 183              		.cfi_restore 9
 184              		.cfi_restore 8
 185              		.cfi_restore 1
 186              		.cfi_def_cfa_offset -32
 187              	.LVL15:
 188              	.L10:
 189              		.cfi_restore_state
  84:C:/Users/stapi/OneDrive/Desktop/GD32VW553/GD32VW55X_Wifi_BLE_SDK/GD32VW55x_RELEASE_V1.0.2/MSDK/lwip/libcoap-4.3.4/src\coap_subscribe.c ****     if (ep->proto == e_proto &&
 190              		.loc 1 84 5 is_stmt 1
  84:C:/Users/stapi/OneDrive/Desktop/GD32VW553/GD32VW55X_Wifi_BLE_SDK/GD32VW55x_RELEASE_V1.0.2/MSDK/lwip/libcoap-4.3.4/src\coap_subscribe.c ****     if (ep->proto == e_proto &&
 191              		.loc 1 84 8 is_stmt 0
 192 0030 1C44     		lw	a5,8(s0)
 193 0032 639C4701 		bne	a5,s4,.L8
  85:C:/Users/stapi/OneDrive/Desktop/GD32VW553/GD32VW55X_Wifi_BLE_SDK/GD32VW55x_RELEASE_V1.0.2/MSDK/lwip/libcoap-4.3.4/src\coap_subscribe.c ****         memcmp(e_listen_addr, &ep->bind_addr, sizeof(ep->bind_addr)) == 0)
 194              		.loc 1 85 9 discriminator 1
 195 0036 2146     		li	a2,8
 196 0038 93058405 		addi	a1,s0,88
 197 003c 4E85     		mv	a0,s3
 198 003e 97000000 		call	memcmp
 198      E7800000 
 199              	.LVL16:
  84:C:/Users/stapi/OneDrive/Desktop/GD32VW553/GD32VW55X_Wifi_BLE_SDK/GD32VW55x_RELEASE_V1.0.2/MSDK/lwip/libcoap-4.3.4/src\coap_subscribe.c ****     if (ep->proto == e_proto &&
 200              		.loc 1 84 30 discriminator 1
 201 0046 63000514 		beq	a0,zero,.L9
 202              	.L8:
  87:C:/Users/stapi/OneDrive/Desktop/GD32VW553/GD32VW55X_Wifi_BLE_SDK/GD32VW55x_RELEASE_V1.0.2/MSDK/lwip/libcoap-4.3.4/src\coap_subscribe.c ****   }
 203              		.loc 1 87 5 is_stmt 1
  87:C:/Users/stapi/OneDrive/Desktop/GD32VW553/GD32VW55X_Wifi_BLE_SDK/GD32VW55x_RELEASE_V1.0.2/MSDK/lwip/libcoap-4.3.4/src\coap_subscribe.c ****   }
 204              		.loc 1 87 8 is_stmt 0
 205 004a 0040     		lw	s0,0(s0)
 206              	.LVL17:
 207 004c D9BF     		j	.L7
 208              	.LVL18:
 209              	.L39:
 102:C:/Users/stapi/OneDrive/Desktop/GD32VW553/GD32VW55X_Wifi_BLE_SDK/GD32VW55x_RELEASE_V1.0.2/MSDK/lwip/libcoap-4.3.4/src\coap_subscribe.c ****   data_len = raw_packet->length;
 210              		.loc 1 102 8
 211 004e 83AA4400 		lw	s5,4(s1)
 109:C:/Users/stapi/OneDrive/Desktop/GD32VW553/GD32VW55X_Wifi_BLE_SDK/GD32VW55x_RELEASE_V1.0.2/MSDK/lwip/libcoap-4.3.4/src\coap_subscribe.c ****   session = coap_endpoint_get_session(ep, packet, now);
 212              		.loc 1 109 3 is_stmt 1
 213              	.LVL19:
 214              	.LBB6:
 215              	.LBB7:
 216              		.file 2 "..\\..\\..\\..\\lwip\\libcoap-4.3.4\\include/coap3/coap_time.h"
   1:..\..\..\..\lwip\libcoap-4.3.4\include/coap3/coap_time.h **** /*
   2:..\..\..\..\lwip\libcoap-4.3.4\include/coap3/coap_time.h ****  * coap_time.h -- Clock Handling
   3:..\..\..\..\lwip\libcoap-4.3.4\include/coap3/coap_time.h ****  *
   4:..\..\..\..\lwip\libcoap-4.3.4\include/coap3/coap_time.h ****  * Copyright (C) 2010-2023 Olaf Bergmann <bergmann@tzi.org>
   5:..\..\..\..\lwip\libcoap-4.3.4\include/coap3/coap_time.h ****  *
   6:..\..\..\..\lwip\libcoap-4.3.4\include/coap3/coap_time.h ****  * SPDX-License-Identifier: BSD-2-Clause
   7:..\..\..\..\lwip\libcoap-4.3.4\include/coap3/coap_time.h ****  *
   8:..\..\..\..\lwip\libcoap-4.3.4\include/coap3/coap_time.h ****  * This file is part of the CoAP library libcoap. Please see README for terms
   9:..\..\..\..\lwip\libcoap-4.3.4\include/coap3/coap_time.h ****  * of use.
  10:..\..\..\..\lwip\libcoap-4.3.4\include/coap3/coap_time.h ****  */
  11:..\..\..\..\lwip\libcoap-4.3.4\include/coap3/coap_time.h **** 
  12:..\..\..\..\lwip\libcoap-4.3.4\include/coap3/coap_time.h **** /**
  13:..\..\..\..\lwip\libcoap-4.3.4\include/coap3/coap_time.h ****  * @file coap_time.h
  14:..\..\..\..\lwip\libcoap-4.3.4\include/coap3/coap_time.h ****  * @brief Clock Handling
  15:..\..\..\..\lwip\libcoap-4.3.4\include/coap3/coap_time.h ****  */
  16:..\..\..\..\lwip\libcoap-4.3.4\include/coap3/coap_time.h **** 
  17:..\..\..\..\lwip\libcoap-4.3.4\include/coap3/coap_time.h **** #ifndef COAP_TIME_H_
  18:..\..\..\..\lwip\libcoap-4.3.4\include/coap3/coap_time.h **** #define COAP_TIME_H_
  19:..\..\..\..\lwip\libcoap-4.3.4\include/coap3/coap_time.h **** 
  20:..\..\..\..\lwip\libcoap-4.3.4\include/coap3/coap_time.h **** /**
  21:..\..\..\..\lwip\libcoap-4.3.4\include/coap3/coap_time.h ****  * @ingroup application_api
  22:..\..\..\..\lwip\libcoap-4.3.4\include/coap3/coap_time.h ****  * @defgroup clock Clock Handling
  23:..\..\..\..\lwip\libcoap-4.3.4\include/coap3/coap_time.h ****  * API for internal clock assess
  24:..\..\..\..\lwip\libcoap-4.3.4\include/coap3/coap_time.h ****  * @{
  25:..\..\..\..\lwip\libcoap-4.3.4\include/coap3/coap_time.h ****  */
  26:..\..\..\..\lwip\libcoap-4.3.4\include/coap3/coap_time.h **** 
  27:..\..\..\..\lwip\libcoap-4.3.4\include/coap3/coap_time.h **** #if defined(WITH_LWIP)
  28:..\..\..\..\lwip\libcoap-4.3.4\include/coap3/coap_time.h **** 
  29:..\..\..\..\lwip\libcoap-4.3.4\include/coap3/coap_time.h **** #include <stdint.h>
  30:..\..\..\..\lwip\libcoap-4.3.4\include/coap3/coap_time.h **** #include <lwip/sys.h>
  31:..\..\..\..\lwip\libcoap-4.3.4\include/coap3/coap_time.h **** 
  32:..\..\..\..\lwip\libcoap-4.3.4\include/coap3/coap_time.h **** /* lwIP provides ms in sys_now */
  33:..\..\..\..\lwip\libcoap-4.3.4\include/coap3/coap_time.h **** #define COAP_TICKS_PER_SECOND 1000
  34:..\..\..\..\lwip\libcoap-4.3.4\include/coap3/coap_time.h **** 
  35:..\..\..\..\lwip\libcoap-4.3.4\include/coap3/coap_time.h **** typedef uint32_t coap_tick_t;
  36:..\..\..\..\lwip\libcoap-4.3.4\include/coap3/coap_time.h **** typedef uint32_t coap_time_t;
  37:..\..\..\..\lwip\libcoap-4.3.4\include/coap3/coap_time.h **** typedef int32_t coap_tick_diff_t;
  38:..\..\..\..\lwip\libcoap-4.3.4\include/coap3/coap_time.h **** 
  39:..\..\..\..\lwip\libcoap-4.3.4\include/coap3/coap_time.h **** COAP_STATIC_INLINE void
  40:..\..\..\..\lwip\libcoap-4.3.4\include/coap3/coap_time.h **** coap_ticks_impl(coap_tick_t *t) {
  41:..\..\..\..\lwip\libcoap-4.3.4\include/coap3/coap_time.h ****   *t = sys_now();
 217              		.loc 2 41 3
 218              		.loc 2 41 8 is_stmt 0
 219 0052 97000000 		call	sys_now
 219      E7800000 
 220              	.LVL20:
 221 005a 2A86     		mv	a2,a0
 222              	.LVL21:
 223              	.LBE7:
 224              	.LBE6:
 110:C:/Users/stapi/OneDrive/Desktop/GD32VW553/GD32VW55X_Wifi_BLE_SDK/GD32VW55x_RELEASE_V1.0.2/MSDK/lwip/libcoap-4.3.4/src\coap_subscribe.c ****   if (session == NULL)
 225              		.loc 1 110 3 is_stmt 1
 110:C:/Users/stapi/OneDrive/Desktop/GD32VW553/GD32VW55X_Wifi_BLE_SDK/GD32VW55x_RELEASE_V1.0.2/MSDK/lwip/libcoap-4.3.4/src\coap_subscribe.c ****   if (session == NULL)
 226              		.loc 1 110 13 is_stmt 0
 227 005c 4C10     		addi	a1,sp,36
 228              	.LVL22:
 229 005e 2285     		mv	a0,s0
 230              	.LVL23:
 231 0060 97000000 		call	coap_endpoint_get_session
 231      E7800000 
 232              	.LVL24:
 233 0068 2A89     		mv	s2,a0
 234              	.LVL25:
 111:C:/Users/stapi/OneDrive/Desktop/GD32VW553/GD32VW55X_Wifi_BLE_SDK/GD32VW55x_RELEASE_V1.0.2/MSDK/lwip/libcoap-4.3.4/src\coap_subscribe.c ****     goto fail;
 235              		.loc 1 111 3 is_stmt 1
 111:C:/Users/stapi/OneDrive/Desktop/GD32VW553/GD32VW55X_Wifi_BLE_SDK/GD32VW55x_RELEASE_V1.0.2/MSDK/lwip/libcoap-4.3.4/src\coap_subscribe.c ****     goto fail;
 236              		.loc 1 111 6 is_stmt 0
 237 006a 19ED     		bne	a0,zero,.L11
 238              	.LVL26:
 239              	.L13:
  67:C:/Users/stapi/OneDrive/Desktop/GD32VW553/GD32VW55X_Wifi_BLE_SDK/GD32VW55x_RELEASE_V1.0.2/MSDK/lwip/libcoap-4.3.4/src\coap_subscribe.c ****   coap_opt_iterator_t opt_iter;
 240              		.loc 1 67 18
 241 006c 0144     		li	s0,0
 242              	.LVL27:
  58:C:/Users/stapi/OneDrive/Desktop/GD32VW553/GD32VW55X_Wifi_BLE_SDK/GD32VW55x_RELEASE_V1.0.2/MSDK/lwip/libcoap-4.3.4/src\coap_subscribe.c **** #if COAP_CONSTRAINED_STACK
 243              		.loc 1 58 15
 244 006e 8144     		li	s1,0
 245              	.LVL28:
 246              	.L12:
 289:C:/Users/stapi/OneDrive/Desktop/GD32VW553/GD32VW55X_Wifi_BLE_SDK/GD32VW55x_RELEASE_V1.0.2/MSDK/lwip/libcoap-4.3.4/src\coap_subscribe.c **** fail:
 247              		.loc 1 289 3 is_stmt 1 discriminator 3
 294:C:/Users/stapi/OneDrive/Desktop/GD32VW553/GD32VW55X_Wifi_BLE_SDK/GD32VW55x_RELEASE_V1.0.2/MSDK/lwip/libcoap-4.3.4/src\coap_subscribe.c ****   coap_delete_pdu(pdu);
 248              		.loc 1 294 3 discriminator 3
 249 0070 2285     		mv	a0,s0
 250 0072 97000000 		call	coap_delete_string
 250      E7800000 
 251              	.LVL29:
 295:C:/Users/stapi/OneDrive/Desktop/GD32VW553/GD32VW55X_Wifi_BLE_SDK/GD32VW55x_RELEASE_V1.0.2/MSDK/lwip/libcoap-4.3.4/src\coap_subscribe.c ****   return NULL;
 252              		.loc 1 295 3 discriminator 3
 253 007a 2685     		mv	a0,s1
 254 007c 97000000 		call	coap_delete_pdu
 254      E7800000 
 255              	.LVL30:
 296:C:/Users/stapi/OneDrive/Desktop/GD32VW553/GD32VW55X_Wifi_BLE_SDK/GD32VW55x_RELEASE_V1.0.2/MSDK/lwip/libcoap-4.3.4/src\coap_subscribe.c **** }
 256              		.loc 1 296 3 discriminator 3
 257              	.L18:
  76:C:/Users/stapi/OneDrive/Desktop/GD32VW553/GD32VW55X_Wifi_BLE_SDK/GD32VW55x_RELEASE_V1.0.2/MSDK/lwip/libcoap-4.3.4/src\coap_subscribe.c **** 
 258              		.loc 1 76 12 is_stmt 0
 259 0084 0144     		li	s0,0
 260 0086 79BF     		j	.L5
 261              	.LVL31:
 262              	.L11:
 114:C:/Users/stapi/OneDrive/Desktop/GD32VW553/GD32VW55X_Wifi_BLE_SDK/GD32VW55x_RELEASE_V1.0.2/MSDK/lwip/libcoap-4.3.4/src\coap_subscribe.c ****   if (!pdu)
 263              		.loc 1 114 3 is_stmt 1
 114:C:/Users/stapi/OneDrive/Desktop/GD32VW553/GD32VW55X_Wifi_BLE_SDK/GD32VW55x_RELEASE_V1.0.2/MSDK/lwip/libcoap-4.3.4/src\coap_subscribe.c ****   if (!pdu)
 264              		.loc 1 114 9 is_stmt 0
 265 0088 8146     		li	a3,0
 266 008a 0146     		li	a2,0
 267 008c 8145     		li	a1,0
 268 008e 0145     		li	a0,0
 269              	.LVL32:
 270 0090 97000000 		call	coap_pdu_init
 270      E7800000 
 271              	.LVL33:
 272 0098 AA84     		mv	s1,a0
 273              	.LVL34:
 115:C:/Users/stapi/OneDrive/Desktop/GD32VW553/GD32VW55X_Wifi_BLE_SDK/GD32VW55x_RELEASE_V1.0.2/MSDK/lwip/libcoap-4.3.4/src\coap_subscribe.c ****     goto fail;
 274              		.loc 1 115 3 is_stmt 1
 115:C:/Users/stapi/OneDrive/Desktop/GD32VW553/GD32VW55X_Wifi_BLE_SDK/GD32VW55x_RELEASE_V1.0.2/MSDK/lwip/libcoap-4.3.4/src\coap_subscribe.c ****     goto fail;
 275              		.loc 1 115 6 is_stmt 0
 276 009a 69D9     		beq	a0,zero,.L13
 118:C:/Users/stapi/OneDrive/Desktop/GD32VW553/GD32VW55X_Wifi_BLE_SDK/GD32VW55x_RELEASE_V1.0.2/MSDK/lwip/libcoap-4.3.4/src\coap_subscribe.c ****     goto malformed;
 277              		.loc 1 118 3 is_stmt 1
 118:C:/Users/stapi/OneDrive/Desktop/GD32VW553/GD32VW55X_Wifi_BLE_SDK/GD32VW55x_RELEASE_V1.0.2/MSDK/lwip/libcoap-4.3.4/src\coap_subscribe.c ****     goto malformed;
 278              		.loc 1 118 8 is_stmt 0
 279 009c AA86     		mv	a3,a0
 280 009e 03250900 		lw	a0,0(s2)
 281 00a2 4E86     		mv	a2,s3
 282 00a4 D685     		mv	a1,s5
 283 00a6 97000000 		call	coap_pdu_parse
 283      E7800000 
 284              	.LVL35:
 118:C:/Users/stapi/OneDrive/Desktop/GD32VW553/GD32VW55X_Wifi_BLE_SDK/GD32VW55x_RELEASE_V1.0.2/MSDK/lwip/libcoap-4.3.4/src\coap_subscribe.c ****     goto malformed;
 285              		.loc 1 118 6
 286 00ae 63030510 		beq	a0,zero,.L14
 121:C:/Users/stapi/OneDrive/Desktop/GD32VW553/GD32VW55X_Wifi_BLE_SDK/GD32VW55x_RELEASE_V1.0.2/MSDK/lwip/libcoap-4.3.4/src\coap_subscribe.c **** 
 287              		.loc 1 121 3 is_stmt 1
 121:C:/Users/stapi/OneDrive/Desktop/GD32VW553/GD32VW55X_Wifi_BLE_SDK/GD32VW55x_RELEASE_V1.0.2/MSDK/lwip/libcoap-4.3.4/src\coap_subscribe.c **** 
 288              		.loc 1 121 17 is_stmt 0
 289 00b2 DC50     		lw	a5,36(s1)
 290 00b4 9CD4     		sw	a5,40(s1)
 123:C:/Users/stapi/OneDrive/Desktop/GD32VW553/GD32VW55X_Wifi_BLE_SDK/GD32VW55x_RELEASE_V1.0.2/MSDK/lwip/libcoap-4.3.4/src\coap_subscribe.c ****       pdu->code != COAP_REQUEST_CODE_FETCH)
 291              		.loc 1 123 3 is_stmt 1
 123:C:/Users/stapi/OneDrive/Desktop/GD32VW553/GD32VW55X_Wifi_BLE_SDK/GD32VW55x_RELEASE_V1.0.2/MSDK/lwip/libcoap-4.3.4/src\coap_subscribe.c ****       pdu->code != COAP_REQUEST_CODE_FETCH)
 292              		.loc 1 123 6 is_stmt 0
 293 00b6 DC40     		lw	a5,4(s1)
 294 00b8 ED9B     		andi	a5,a5,-5
 295 00ba 639D470F 		bne	a5,s4,.L14
 127:C:/Users/stapi/OneDrive/Desktop/GD32VW553/GD32VW55X_Wifi_BLE_SDK/GD32VW55x_RELEASE_V1.0.2/MSDK/lwip/libcoap-4.3.4/src\coap_subscribe.c ****   if (observe == NULL)
 296              		.loc 1 127 3 is_stmt 1
 127:C:/Users/stapi/OneDrive/Desktop/GD32VW553/GD32VW55X_Wifi_BLE_SDK/GD32VW55x_RELEASE_V1.0.2/MSDK/lwip/libcoap-4.3.4/src\coap_subscribe.c ****   if (observe == NULL)
 297              		.loc 1 127 13 is_stmt 0
 298 00be 7000     		addi	a2,sp,12
 299 00c0 9945     		li	a1,6
 300 00c2 2685     		mv	a0,s1
 301 00c4 97000000 		call	coap_check_option
 301      E7800000 
 302              	.LVL36:
 303 00cc 2A84     		mv	s0,a0
 304              	.LVL37:
 128:C:/Users/stapi/OneDrive/Desktop/GD32VW553/GD32VW55X_Wifi_BLE_SDK/GD32VW55x_RELEASE_V1.0.2/MSDK/lwip/libcoap-4.3.4/src\coap_subscribe.c ****     goto malformed;
 305              		.loc 1 128 3 is_stmt 1
 128:C:/Users/stapi/OneDrive/Desktop/GD32VW553/GD32VW55X_Wifi_BLE_SDK/GD32VW55x_RELEASE_V1.0.2/MSDK/lwip/libcoap-4.3.4/src\coap_subscribe.c ****     goto malformed;
 306              		.loc 1 128 6 is_stmt 0
 307 00ce 7DC1     		beq	a0,zero,.L14
 130:C:/Users/stapi/OneDrive/Desktop/GD32VW553/GD32VW55X_Wifi_BLE_SDK/GD32VW55x_RELEASE_V1.0.2/MSDK/lwip/libcoap-4.3.4/src\coap_subscribe.c ****                                          coap_opt_length(observe));
 308              		.loc 1 130 3 is_stmt 1
 130:C:/Users/stapi/OneDrive/Desktop/GD32VW553/GD32VW55X_Wifi_BLE_SDK/GD32VW55x_RELEASE_V1.0.2/MSDK/lwip/libcoap-4.3.4/src\coap_subscribe.c ****                                          coap_opt_length(observe));
 309              		.loc 1 130 20 is_stmt 0
 310 00d0 97000000 		call	coap_opt_value
 310      E7800000 
 311              	.LVL38:
 312 00d8 AA89     		mv	s3,a0
 313              	.LVL39:
 131:C:/Users/stapi/OneDrive/Desktop/GD32VW553/GD32VW55X_Wifi_BLE_SDK/GD32VW55x_RELEASE_V1.0.2/MSDK/lwip/libcoap-4.3.4/src\coap_subscribe.c ****   if (observe_action != COAP_OBSERVE_ESTABLISH)
 314              		.loc 1 131 42
 315 00da 2285     		mv	a0,s0
 316 00dc 97000000 		call	coap_opt_length
 316      E7800000 
 317              	.LVL40:
 318 00e4 AA85     		mv	a1,a0
 130:C:/Users/stapi/OneDrive/Desktop/GD32VW553/GD32VW55X_Wifi_BLE_SDK/GD32VW55x_RELEASE_V1.0.2/MSDK/lwip/libcoap-4.3.4/src\coap_subscribe.c ****                                          coap_opt_length(observe));
 319              		.loc 1 130 20
 320 00e6 4E85     		mv	a0,s3
 321 00e8 97000000 		call	coap_decode_var_bytes
 321      E7800000 
 322              	.LVL41:
 132:C:/Users/stapi/OneDrive/Desktop/GD32VW553/GD32VW55X_Wifi_BLE_SDK/GD32VW55x_RELEASE_V1.0.2/MSDK/lwip/libcoap-4.3.4/src\coap_subscribe.c ****     goto malformed;
 323              		.loc 1 132 3 is_stmt 1
 132:C:/Users/stapi/OneDrive/Desktop/GD32VW553/GD32VW55X_Wifi_BLE_SDK/GD32VW55x_RELEASE_V1.0.2/MSDK/lwip/libcoap-4.3.4/src\coap_subscribe.c ****     goto malformed;
 324              		.loc 1 132 6 is_stmt 0
 325 00f0 71E1     		bne	a0,zero,.L14
 137:C:/Users/stapi/OneDrive/Desktop/GD32VW553/GD32VW55X_Wifi_BLE_SDK/GD32VW55x_RELEASE_V1.0.2/MSDK/lwip/libcoap-4.3.4/src\coap_subscribe.c ****   if (!uri_path)
 326              		.loc 1 137 3 is_stmt 1
 137:C:/Users/stapi/OneDrive/Desktop/GD32VW553/GD32VW55X_Wifi_BLE_SDK/GD32VW55x_RELEASE_V1.0.2/MSDK/lwip/libcoap-4.3.4/src\coap_subscribe.c ****   if (!uri_path)
 327              		.loc 1 137 14 is_stmt 0
 328 00f2 2685     		mv	a0,s1
 329              	.LVL42:
 330 00f4 97000000 		call	coap_get_uri_path
 330      E7800000 
 331              	.LVL43:
 332 00fc 2A84     		mv	s0,a0
 333              	.LVL44:
 138:C:/Users/stapi/OneDrive/Desktop/GD32VW553/GD32VW55X_Wifi_BLE_SDK/GD32VW55x_RELEASE_V1.0.2/MSDK/lwip/libcoap-4.3.4/src\coap_subscribe.c ****     goto malformed;
 334              		.loc 1 138 3 is_stmt 1
 138:C:/Users/stapi/OneDrive/Desktop/GD32VW553/GD32VW55X_Wifi_BLE_SDK/GD32VW55x_RELEASE_V1.0.2/MSDK/lwip/libcoap-4.3.4/src\coap_subscribe.c ****     goto malformed;
 335              		.loc 1 138 6 is_stmt 0
 336 00fe 5DC9     		beq	a0,zero,.L14
 141:C:/Users/stapi/OneDrive/Desktop/GD32VW553/GD32VW55X_Wifi_BLE_SDK/GD32VW55x_RELEASE_V1.0.2/MSDK/lwip/libcoap-4.3.4/src\coap_subscribe.c ****                                       (coap_str_const_t *)uri_path);
 337              		.loc 1 141 3 is_stmt 1
 141:C:/Users/stapi/OneDrive/Desktop/GD32VW553/GD32VW55X_Wifi_BLE_SDK/GD32VW55x_RELEASE_V1.0.2/MSDK/lwip/libcoap-4.3.4/src\coap_subscribe.c ****                                       (coap_str_const_t *)uri_path);
 338              		.loc 1 141 7 is_stmt 0
 339 0100 AA85     		mv	a1,a0
 340 0102 0325C90A 		lw	a0,172(s2)
 341 0106 97000000 		call	coap_get_resource_from_uri_path
 341      E7800000 
 342              	.LVL45:
 343 010e AA89     		mv	s3,a0
 344              	.LVL46:
 143:C:/Users/stapi/OneDrive/Desktop/GD32VW553/GD32VW55X_Wifi_BLE_SDK/GD32VW55x_RELEASE_V1.0.2/MSDK/lwip/libcoap-4.3.4/src\coap_subscribe.c ****     coap_log_warn("coap_persist_observe_add: resource '%s' not defined\n",
 345              		.loc 1 143 3 is_stmt 1
 143:C:/Users/stapi/OneDrive/Desktop/GD32VW553/GD32VW55X_Wifi_BLE_SDK/GD32VW55x_RELEASE_V1.0.2/MSDK/lwip/libcoap-4.3.4/src\coap_subscribe.c ****     coap_log_warn("coap_persist_observe_add: resource '%s' not defined\n",
 346              		.loc 1 143 6 is_stmt 0
 347 0110 1DE1     		bne	a0,zero,.L15
 144:C:/Users/stapi/OneDrive/Desktop/GD32VW553/GD32VW55X_Wifi_BLE_SDK/GD32VW55x_RELEASE_V1.0.2/MSDK/lwip/libcoap-4.3.4/src\coap_subscribe.c ****                   uri_path->s);
 348              		.loc 1 144 5 is_stmt 1
 144:C:/Users/stapi/OneDrive/Desktop/GD32VW553/GD32VW55X_Wifi_BLE_SDK/GD32VW55x_RELEASE_V1.0.2/MSDK/lwip/libcoap-4.3.4/src\coap_subscribe.c ****                   uri_path->s);
 349              		.loc 1 144 5
 350 0112 97000000 		call	coap_get_log_level
 350      E7800000 
 351              	.LVL47:
 352 011a 8D47     		li	a5,3
 353 011c E3DAA7F4 		ble	a0,a5,.L12
 144:C:/Users/stapi/OneDrive/Desktop/GD32VW553/GD32VW55X_Wifi_BLE_SDK/GD32VW55x_RELEASE_V1.0.2/MSDK/lwip/libcoap-4.3.4/src\coap_subscribe.c ****                   uri_path->s);
 354              		.loc 1 144 5 discriminator 1
 355 0120 5040     		lw	a2,4(s0)
 356 0122 B7050000 		lui	a1,%hi(.LC2)
 357 0126 93850500 		addi	a1,a1,%lo(.LC2)
 358              	.L41:
 149:C:/Users/stapi/OneDrive/Desktop/GD32VW553/GD32VW55X_Wifi_BLE_SDK/GD32VW55x_RELEASE_V1.0.2/MSDK/lwip/libcoap-4.3.4/src\coap_subscribe.c ****                   uri_path->s);
 359              		.loc 1 149 5 is_stmt 0 discriminator 1
 360 012a 1145     		li	a0,4
 361 012c 97000000 		call	coap_log_impl
 361      E7800000 
 362              	.LVL48:
 363 0134 35BF     		j	.L12
 364              	.LVL49:
 365              	.L15:
 148:C:/Users/stapi/OneDrive/Desktop/GD32VW553/GD32VW55X_Wifi_BLE_SDK/GD32VW55x_RELEASE_V1.0.2/MSDK/lwip/libcoap-4.3.4/src\coap_subscribe.c ****     coap_log_warn("coap_persist_observe_add: resource '%s' not observable\n",
 366              		.loc 1 148 3 is_stmt 1
 148:C:/Users/stapi/OneDrive/Desktop/GD32VW553/GD32VW55X_Wifi_BLE_SDK/GD32VW55x_RELEASE_V1.0.2/MSDK/lwip/libcoap-4.3.4/src\coap_subscribe.c ****     coap_log_warn("coap_persist_observe_add: resource '%s' not observable\n",
 367              		.loc 1 148 7 is_stmt 0
 368 0136 83470500 		lbu	a5,0(a0)
 148:C:/Users/stapi/OneDrive/Desktop/GD32VW553/GD32VW55X_Wifi_BLE_SDK/GD32VW55x_RELEASE_V1.0.2/MSDK/lwip/libcoap-4.3.4/src\coap_subscribe.c ****     coap_log_warn("coap_persist_observe_add: resource '%s' not observable\n",
 369              		.loc 1 148 6
 370 013a 918B     		andi	a5,a5,4
 371 013c 91EF     		bne	a5,zero,.L16
 149:C:/Users/stapi/OneDrive/Desktop/GD32VW553/GD32VW55X_Wifi_BLE_SDK/GD32VW55x_RELEASE_V1.0.2/MSDK/lwip/libcoap-4.3.4/src\coap_subscribe.c ****                   uri_path->s);
 372              		.loc 1 149 5 is_stmt 1
 149:C:/Users/stapi/OneDrive/Desktop/GD32VW553/GD32VW55X_Wifi_BLE_SDK/GD32VW55x_RELEASE_V1.0.2/MSDK/lwip/libcoap-4.3.4/src\coap_subscribe.c ****                   uri_path->s);
 373              		.loc 1 149 5
 374 013e 97000000 		call	coap_get_log_level
 374      E7800000 
 375              	.LVL50:
 376 0146 8D47     		li	a5,3
 377 0148 E3D4A7F2 		ble	a0,a5,.L12
 149:C:/Users/stapi/OneDrive/Desktop/GD32VW553/GD32VW55X_Wifi_BLE_SDK/GD32VW55x_RELEASE_V1.0.2/MSDK/lwip/libcoap-4.3.4/src\coap_subscribe.c ****                   uri_path->s);
 378              		.loc 1 149 5 discriminator 1
 379 014c B7050000 		lui	a1,%hi(.LC3)
 380 0150 5040     		lw	a2,4(s0)
 381 0152 93850500 		addi	a1,a1,%lo(.LC3)
 382 0156 D1BF     		j	.L41
 383              	.LVL51:
 384              	.L16:
 153:C:/Users/stapi/OneDrive/Desktop/GD32VW553/GD32VW55X_Wifi_BLE_SDK/GD32VW55x_RELEASE_V1.0.2/MSDK/lwip/libcoap-4.3.4/src\coap_subscribe.c ****   uri_path = NULL;
 385              		.loc 1 153 3
 386 0158 2285     		mv	a0,s0
 387              	.LVL52:
 388 015a 97000000 		call	coap_delete_string
 388      E7800000 
 389              	.LVL53:
 154:C:/Users/stapi/OneDrive/Desktop/GD32VW553/GD32VW55X_Wifi_BLE_SDK/GD32VW55x_RELEASE_V1.0.2/MSDK/lwip/libcoap-4.3.4/src\coap_subscribe.c **** 
 390              		.loc 1 154 3
 158:C:/Users/stapi/OneDrive/Desktop/GD32VW553/GD32VW55X_Wifi_BLE_SDK/GD32VW55x_RELEASE_V1.0.2/MSDK/lwip/libcoap-4.3.4/src\coap_subscribe.c ****   if (s == NULL)
 391              		.loc 1 158 3
 158:C:/Users/stapi/OneDrive/Desktop/GD32VW553/GD32VW55X_Wifi_BLE_SDK/GD32VW55x_RELEASE_V1.0.2/MSDK/lwip/libcoap-4.3.4/src\coap_subscribe.c ****   if (s == NULL)
 392              		.loc 1 158 7 is_stmt 0
 393 0162 A686     		mv	a3,s1
 394 0164 13868401 		addi	a2,s1,24
 395 0168 CA85     		mv	a1,s2
 396 016a 4E85     		mv	a0,s3
 397 016c 97000000 		call	coap_add_observer
 397      E7800000 
 398              	.LVL54:
 399 0174 2A84     		mv	s0,a0
 400              	.LVL55:
 159:C:/Users/stapi/OneDrive/Desktop/GD32VW553/GD32VW55X_Wifi_BLE_SDK/GD32VW55x_RELEASE_V1.0.2/MSDK/lwip/libcoap-4.3.4/src\coap_subscribe.c ****     goto fail;
 401              		.loc 1 159 3 is_stmt 1
 159:C:/Users/stapi/OneDrive/Desktop/GD32VW553/GD32VW55X_Wifi_BLE_SDK/GD32VW55x_RELEASE_V1.0.2/MSDK/lwip/libcoap-4.3.4/src\coap_subscribe.c ****     goto fail;
 402              		.loc 1 159 6 is_stmt 0
 403 0176 E30D05EE 		beq	a0,zero,.L12
 280:C:/Users/stapi/OneDrive/Desktop/GD32VW553/GD32VW55X_Wifi_BLE_SDK/GD32VW55x_RELEASE_V1.0.2/MSDK/lwip/libcoap-4.3.4/src\coap_subscribe.c **** #endif /* ! COAP_OSCORE_SUPPORT */
 404              		.loc 1 280 3 is_stmt 1
 282:C:/Users/stapi/OneDrive/Desktop/GD32VW553/GD32VW55X_Wifi_BLE_SDK/GD32VW55x_RELEASE_V1.0.2/MSDK/lwip/libcoap-4.3.4/src\coap_subscribe.c **** #if COAP_CONSTRAINED_STACK
 405              		.loc 1 282 3
 406 017a 2685     		mv	a0,s1
 407 017c 97000000 		call	coap_delete_pdu
 407      E7800000 
 408              	.LVL56:
 286:C:/Users/stapi/OneDrive/Desktop/GD32VW553/GD32VW55X_Wifi_BLE_SDK/GD32VW55x_RELEASE_V1.0.2/MSDK/lwip/libcoap-4.3.4/src\coap_subscribe.c **** 
 409              		.loc 1 286 3
 286:C:/Users/stapi/OneDrive/Desktop/GD32VW553/GD32VW55X_Wifi_BLE_SDK/GD32VW55x_RELEASE_V1.0.2/MSDK/lwip/libcoap-4.3.4/src\coap_subscribe.c **** 
 410              		.loc 1 286 10 is_stmt 0
 411 0184 45B5     		j	.L5
 412              	.LVL57:
 413              	.L9:
  89:C:/Users/stapi/OneDrive/Desktop/GD32VW553/GD32VW55X_Wifi_BLE_SDK/GD32VW55x_RELEASE_V1.0.2/MSDK/lwip/libcoap-4.3.4/src\coap_subscribe.c ****     return NULL;
 414              		.loc 1 89 3 is_stmt 1
  97:C:/Users/stapi/OneDrive/Desktop/GD32VW553/GD32VW55X_Wifi_BLE_SDK/GD32VW55x_RELEASE_V1.0.2/MSDK/lwip/libcoap-4.3.4/src\coap_subscribe.c ****   packet->ifindex = 0;
 415              		.loc 1 97 3
 416 0186 4146     		li	a2,16
 417 0188 CA85     		mv	a1,s2
 418 018a 4810     		addi	a0,sp,36
 419              	.LVL58:
 420 018c 97000000 		call	memcpy
 420      E7800000 
 421              	.LVL59:
  98:C:/Users/stapi/OneDrive/Desktop/GD32VW553/GD32VW55X_Wifi_BLE_SDK/GD32VW55x_RELEASE_V1.0.2/MSDK/lwip/libcoap-4.3.4/src\coap_subscribe.c ****   memcpy(&packet->payload, &raw_packet->s, sizeof(packet->payload));
 422              		.loc 1 98 3
  99:C:/Users/stapi/OneDrive/Desktop/GD32VW553/GD32VW55X_Wifi_BLE_SDK/GD32VW55x_RELEASE_V1.0.2/MSDK/lwip/libcoap-4.3.4/src\coap_subscribe.c ****   packet->length = raw_packet->length;
 423              		.loc 1 99 3 is_stmt 0
 424 0194 1146     		li	a2,4
 425 0196 93854400 		addi	a1,s1,4
 426 019a 6818     		addi	a0,sp,60
  98:C:/Users/stapi/OneDrive/Desktop/GD32VW553/GD32VW55X_Wifi_BLE_SDK/GD32VW55x_RELEASE_V1.0.2/MSDK/lwip/libcoap-4.3.4/src\coap_subscribe.c ****   memcpy(&packet->payload, &raw_packet->s, sizeof(packet->payload));
 427              		.loc 1 98 19
 428 019c 02DA     		sw	zero,52(sp)
  99:C:/Users/stapi/OneDrive/Desktop/GD32VW553/GD32VW55X_Wifi_BLE_SDK/GD32VW55x_RELEASE_V1.0.2/MSDK/lwip/libcoap-4.3.4/src\coap_subscribe.c ****   packet->length = raw_packet->length;
 429              		.loc 1 99 3 is_stmt 1
 430 019e 97000000 		call	memcpy
 430      E7800000 
 431              	.LVL60:
 100:C:/Users/stapi/OneDrive/Desktop/GD32VW553/GD32VW55X_Wifi_BLE_SDK/GD32VW55x_RELEASE_V1.0.2/MSDK/lwip/libcoap-4.3.4/src\coap_subscribe.c **** 
 432              		.loc 1 100 3
 100:C:/Users/stapi/OneDrive/Desktop/GD32VW553/GD32VW55X_Wifi_BLE_SDK/GD32VW55x_RELEASE_V1.0.2/MSDK/lwip/libcoap-4.3.4/src\coap_subscribe.c **** 
 433              		.loc 1 100 30 is_stmt 0
 434 01a6 83A90400 		lw	s3,0(s1)
 435              	.LVL61:
 104:C:/Users/stapi/OneDrive/Desktop/GD32VW553/GD32VW55X_Wifi_BLE_SDK/GD32VW55x_RELEASE_V1.0.2/MSDK/lwip/libcoap-4.3.4/src\coap_subscribe.c ****     goto malformed;
 436              		.loc 1 104 6
 437 01aa 8D47     		li	a5,3
 100:C:/Users/stapi/OneDrive/Desktop/GD32VW553/GD32VW55X_Wifi_BLE_SDK/GD32VW55x_RELEASE_V1.0.2/MSDK/lwip/libcoap-4.3.4/src\coap_subscribe.c **** 
 438              		.loc 1 100 18
 439 01ac 4EDC     		sw	s3,56(sp)
 102:C:/Users/stapi/OneDrive/Desktop/GD32VW553/GD32VW55X_Wifi_BLE_SDK/GD32VW55x_RELEASE_V1.0.2/MSDK/lwip/libcoap-4.3.4/src\coap_subscribe.c ****   data_len = raw_packet->length;
 440              		.loc 1 102 3 is_stmt 1
 441              	.LVL62:
 103:C:/Users/stapi/OneDrive/Desktop/GD32VW553/GD32VW55X_Wifi_BLE_SDK/GD32VW55x_RELEASE_V1.0.2/MSDK/lwip/libcoap-4.3.4/src\coap_subscribe.c ****   if (data_len < 4)
 442              		.loc 1 103 3
 104:C:/Users/stapi/OneDrive/Desktop/GD32VW553/GD32VW55X_Wifi_BLE_SDK/GD32VW55x_RELEASE_V1.0.2/MSDK/lwip/libcoap-4.3.4/src\coap_subscribe.c ****     goto malformed;
 443              		.loc 1 104 3
 104:C:/Users/stapi/OneDrive/Desktop/GD32VW553/GD32VW55X_Wifi_BLE_SDK/GD32VW55x_RELEASE_V1.0.2/MSDK/lwip/libcoap-4.3.4/src\coap_subscribe.c ****     goto malformed;
 444              		.loc 1 104 6 is_stmt 0
 445 01ae E3E037EB 		bgtu	s3,a5,.L39
  58:C:/Users/stapi/OneDrive/Desktop/GD32VW553/GD32VW55X_Wifi_BLE_SDK/GD32VW55x_RELEASE_V1.0.2/MSDK/lwip/libcoap-4.3.4/src\coap_subscribe.c **** #if COAP_CONSTRAINED_STACK
 446              		.loc 1 58 15
 447 01b2 8144     		li	s1,0
 448              	.LVL63:
 449              	.L14:
 289:C:/Users/stapi/OneDrive/Desktop/GD32VW553/GD32VW55X_Wifi_BLE_SDK/GD32VW55x_RELEASE_V1.0.2/MSDK/lwip/libcoap-4.3.4/src\coap_subscribe.c **** fail:
 450              		.loc 1 289 3 is_stmt 1
 289:C:/Users/stapi/OneDrive/Desktop/GD32VW553/GD32VW55X_Wifi_BLE_SDK/GD32VW55x_RELEASE_V1.0.2/MSDK/lwip/libcoap-4.3.4/src\coap_subscribe.c **** fail:
 451              		.loc 1 289 3
 452 01b4 97000000 		call	coap_get_log_level
 452      E7800000 
 453              	.LVL64:
 454 01bc 8D47     		li	a5,3
 290:C:/Users/stapi/OneDrive/Desktop/GD32VW553/GD32VW55X_Wifi_BLE_SDK/GD32VW55x_RELEASE_V1.0.2/MSDK/lwip/libcoap-4.3.4/src\coap_subscribe.c **** #if COAP_CONSTRAINED_STACK
 455              		.loc 1 290 1 is_stmt 0
 456 01be 0144     		li	s0,0
 289:C:/Users/stapi/OneDrive/Desktop/GD32VW553/GD32VW55X_Wifi_BLE_SDK/GD32VW55x_RELEASE_V1.0.2/MSDK/lwip/libcoap-4.3.4/src\coap_subscribe.c **** fail:
 457              		.loc 1 289 3
 458 01c0 E3D8A7EA 		ble	a0,a5,.L12
 289:C:/Users/stapi/OneDrive/Desktop/GD32VW553/GD32VW55X_Wifi_BLE_SDK/GD32VW55x_RELEASE_V1.0.2/MSDK/lwip/libcoap-4.3.4/src\coap_subscribe.c **** fail:
 459              		.loc 1 289 3 is_stmt 1 discriminator 1
 460 01c4 B7050000 		lui	a1,%hi(.LC4)
 461 01c8 93850500 		addi	a1,a1,%lo(.LC4)
 462 01cc 1145     		li	a0,4
 463 01ce 97000000 		call	coap_log_impl
 463      E7800000 
 464              	.LVL65:
 465 01d6 69BD     		j	.L12
 466              		.cfi_endproc
 467              	.LFE33:
 469              		.section	.text.coap_persist_startup,"ax",@progbits
 470              		.align	1
 471              		.globl	coap_persist_startup
 473              	coap_persist_startup:
 474              	.LFB34:
 298:C:/Users/stapi/OneDrive/Desktop/GD32VW553/GD32VW55X_Wifi_BLE_SDK/GD32VW55x_RELEASE_V1.0.2/MSDK/lwip/libcoap-4.3.4/src\coap_subscribe.c **** 
 299:C:/Users/stapi/OneDrive/Desktop/GD32VW553/GD32VW55X_Wifi_BLE_SDK/GD32VW55x_RELEASE_V1.0.2/MSDK/lwip/libcoap-4.3.4/src\coap_subscribe.c **** #if COAP_WITH_OBSERVE_PERSIST
 300:C:/Users/stapi/OneDrive/Desktop/GD32VW553/GD32VW55X_Wifi_BLE_SDK/GD32VW55x_RELEASE_V1.0.2/MSDK/lwip/libcoap-4.3.4/src\coap_subscribe.c **** #include <stdio.h>
 301:C:/Users/stapi/OneDrive/Desktop/GD32VW553/GD32VW55X_Wifi_BLE_SDK/GD32VW55x_RELEASE_V1.0.2/MSDK/lwip/libcoap-4.3.4/src\coap_subscribe.c **** 
 302:C:/Users/stapi/OneDrive/Desktop/GD32VW553/GD32VW55X_Wifi_BLE_SDK/GD32VW55x_RELEASE_V1.0.2/MSDK/lwip/libcoap-4.3.4/src\coap_subscribe.c **** /*
 303:C:/Users/stapi/OneDrive/Desktop/GD32VW553/GD32VW55X_Wifi_BLE_SDK/GD32VW55x_RELEASE_V1.0.2/MSDK/lwip/libcoap-4.3.4/src\coap_subscribe.c ****  * read in active observe entry.
 304:C:/Users/stapi/OneDrive/Desktop/GD32VW553/GD32VW55X_Wifi_BLE_SDK/GD32VW55x_RELEASE_V1.0.2/MSDK/lwip/libcoap-4.3.4/src\coap_subscribe.c ****  */
 305:C:/Users/stapi/OneDrive/Desktop/GD32VW553/GD32VW55X_Wifi_BLE_SDK/GD32VW55x_RELEASE_V1.0.2/MSDK/lwip/libcoap-4.3.4/src\coap_subscribe.c **** static int
 306:C:/Users/stapi/OneDrive/Desktop/GD32VW553/GD32VW55X_Wifi_BLE_SDK/GD32VW55x_RELEASE_V1.0.2/MSDK/lwip/libcoap-4.3.4/src\coap_subscribe.c **** coap_op_observe_read(FILE *fp, coap_subscription_t **observe_key,
 307:C:/Users/stapi/OneDrive/Desktop/GD32VW553/GD32VW55X_Wifi_BLE_SDK/GD32VW55x_RELEASE_V1.0.2/MSDK/lwip/libcoap-4.3.4/src\coap_subscribe.c ****                      coap_proto_t *e_proto, coap_address_t *e_listen_addr,
 308:C:/Users/stapi/OneDrive/Desktop/GD32VW553/GD32VW55X_Wifi_BLE_SDK/GD32VW55x_RELEASE_V1.0.2/MSDK/lwip/libcoap-4.3.4/src\coap_subscribe.c ****                      coap_addr_tuple_t *s_addr_info,
 309:C:/Users/stapi/OneDrive/Desktop/GD32VW553/GD32VW55X_Wifi_BLE_SDK/GD32VW55x_RELEASE_V1.0.2/MSDK/lwip/libcoap-4.3.4/src\coap_subscribe.c ****                      coap_bin_const_t **raw_packet, coap_bin_const_t **oscore_info) {
 310:C:/Users/stapi/OneDrive/Desktop/GD32VW553/GD32VW55X_Wifi_BLE_SDK/GD32VW55x_RELEASE_V1.0.2/MSDK/lwip/libcoap-4.3.4/src\coap_subscribe.c ****   ssize_t size;
 311:C:/Users/stapi/OneDrive/Desktop/GD32VW553/GD32VW55X_Wifi_BLE_SDK/GD32VW55x_RELEASE_V1.0.2/MSDK/lwip/libcoap-4.3.4/src\coap_subscribe.c ****   coap_binary_t *scratch = NULL;
 312:C:/Users/stapi/OneDrive/Desktop/GD32VW553/GD32VW55X_Wifi_BLE_SDK/GD32VW55x_RELEASE_V1.0.2/MSDK/lwip/libcoap-4.3.4/src\coap_subscribe.c **** 
 313:C:/Users/stapi/OneDrive/Desktop/GD32VW553/GD32VW55X_Wifi_BLE_SDK/GD32VW55x_RELEASE_V1.0.2/MSDK/lwip/libcoap-4.3.4/src\coap_subscribe.c ****   assert(fp && observe_key && e_proto && e_listen_addr && s_addr_info &&
 314:C:/Users/stapi/OneDrive/Desktop/GD32VW553/GD32VW55X_Wifi_BLE_SDK/GD32VW55x_RELEASE_V1.0.2/MSDK/lwip/libcoap-4.3.4/src\coap_subscribe.c ****          raw_packet && oscore_info);
 315:C:/Users/stapi/OneDrive/Desktop/GD32VW553/GD32VW55X_Wifi_BLE_SDK/GD32VW55x_RELEASE_V1.0.2/MSDK/lwip/libcoap-4.3.4/src\coap_subscribe.c **** 
 316:C:/Users/stapi/OneDrive/Desktop/GD32VW553/GD32VW55X_Wifi_BLE_SDK/GD32VW55x_RELEASE_V1.0.2/MSDK/lwip/libcoap-4.3.4/src\coap_subscribe.c ****   *raw_packet = NULL;
 317:C:/Users/stapi/OneDrive/Desktop/GD32VW553/GD32VW55X_Wifi_BLE_SDK/GD32VW55x_RELEASE_V1.0.2/MSDK/lwip/libcoap-4.3.4/src\coap_subscribe.c ****   *oscore_info = NULL;
 318:C:/Users/stapi/OneDrive/Desktop/GD32VW553/GD32VW55X_Wifi_BLE_SDK/GD32VW55x_RELEASE_V1.0.2/MSDK/lwip/libcoap-4.3.4/src\coap_subscribe.c **** 
 319:C:/Users/stapi/OneDrive/Desktop/GD32VW553/GD32VW55X_Wifi_BLE_SDK/GD32VW55x_RELEASE_V1.0.2/MSDK/lwip/libcoap-4.3.4/src\coap_subscribe.c ****   if (fread(observe_key, sizeof(*observe_key), 1, fp) == 1) {
 320:C:/Users/stapi/OneDrive/Desktop/GD32VW553/GD32VW55X_Wifi_BLE_SDK/GD32VW55x_RELEASE_V1.0.2/MSDK/lwip/libcoap-4.3.4/src\coap_subscribe.c ****     /* New record 'key proto listen addr_info len raw_packet len oscore' */
 321:C:/Users/stapi/OneDrive/Desktop/GD32VW553/GD32VW55X_Wifi_BLE_SDK/GD32VW55x_RELEASE_V1.0.2/MSDK/lwip/libcoap-4.3.4/src\coap_subscribe.c ****     if (fread(e_proto, sizeof(*e_proto), 1, fp) != 1)
 322:C:/Users/stapi/OneDrive/Desktop/GD32VW553/GD32VW55X_Wifi_BLE_SDK/GD32VW55x_RELEASE_V1.0.2/MSDK/lwip/libcoap-4.3.4/src\coap_subscribe.c ****       goto fail;
 323:C:/Users/stapi/OneDrive/Desktop/GD32VW553/GD32VW55X_Wifi_BLE_SDK/GD32VW55x_RELEASE_V1.0.2/MSDK/lwip/libcoap-4.3.4/src\coap_subscribe.c ****     if (fread(e_listen_addr, sizeof(*e_listen_addr), 1, fp) != 1)
 324:C:/Users/stapi/OneDrive/Desktop/GD32VW553/GD32VW55X_Wifi_BLE_SDK/GD32VW55x_RELEASE_V1.0.2/MSDK/lwip/libcoap-4.3.4/src\coap_subscribe.c ****       goto fail;
 325:C:/Users/stapi/OneDrive/Desktop/GD32VW553/GD32VW55X_Wifi_BLE_SDK/GD32VW55x_RELEASE_V1.0.2/MSDK/lwip/libcoap-4.3.4/src\coap_subscribe.c ****     if (fread(s_addr_info, sizeof(*s_addr_info), 1, fp) != 1)
 326:C:/Users/stapi/OneDrive/Desktop/GD32VW553/GD32VW55X_Wifi_BLE_SDK/GD32VW55x_RELEASE_V1.0.2/MSDK/lwip/libcoap-4.3.4/src\coap_subscribe.c ****       goto fail;
 327:C:/Users/stapi/OneDrive/Desktop/GD32VW553/GD32VW55X_Wifi_BLE_SDK/GD32VW55x_RELEASE_V1.0.2/MSDK/lwip/libcoap-4.3.4/src\coap_subscribe.c ****     if (fread(&size, sizeof(size), 1, fp) != 1)
 328:C:/Users/stapi/OneDrive/Desktop/GD32VW553/GD32VW55X_Wifi_BLE_SDK/GD32VW55x_RELEASE_V1.0.2/MSDK/lwip/libcoap-4.3.4/src\coap_subscribe.c ****       goto fail;
 329:C:/Users/stapi/OneDrive/Desktop/GD32VW553/GD32VW55X_Wifi_BLE_SDK/GD32VW55x_RELEASE_V1.0.2/MSDK/lwip/libcoap-4.3.4/src\coap_subscribe.c ****     if (size < 0 || size > 0x10000)
 330:C:/Users/stapi/OneDrive/Desktop/GD32VW553/GD32VW55X_Wifi_BLE_SDK/GD32VW55x_RELEASE_V1.0.2/MSDK/lwip/libcoap-4.3.4/src\coap_subscribe.c ****       goto fail;
 331:C:/Users/stapi/OneDrive/Desktop/GD32VW553/GD32VW55X_Wifi_BLE_SDK/GD32VW55x_RELEASE_V1.0.2/MSDK/lwip/libcoap-4.3.4/src\coap_subscribe.c ****     scratch = coap_new_binary(size);
 332:C:/Users/stapi/OneDrive/Desktop/GD32VW553/GD32VW55X_Wifi_BLE_SDK/GD32VW55x_RELEASE_V1.0.2/MSDK/lwip/libcoap-4.3.4/src\coap_subscribe.c ****     if ((scratch) == NULL)
 333:C:/Users/stapi/OneDrive/Desktop/GD32VW553/GD32VW55X_Wifi_BLE_SDK/GD32VW55x_RELEASE_V1.0.2/MSDK/lwip/libcoap-4.3.4/src\coap_subscribe.c ****       goto fail;
 334:C:/Users/stapi/OneDrive/Desktop/GD32VW553/GD32VW55X_Wifi_BLE_SDK/GD32VW55x_RELEASE_V1.0.2/MSDK/lwip/libcoap-4.3.4/src\coap_subscribe.c ****     if (fread(scratch->s, scratch->length, 1, fp) != 1)
 335:C:/Users/stapi/OneDrive/Desktop/GD32VW553/GD32VW55X_Wifi_BLE_SDK/GD32VW55x_RELEASE_V1.0.2/MSDK/lwip/libcoap-4.3.4/src\coap_subscribe.c ****       goto fail;
 336:C:/Users/stapi/OneDrive/Desktop/GD32VW553/GD32VW55X_Wifi_BLE_SDK/GD32VW55x_RELEASE_V1.0.2/MSDK/lwip/libcoap-4.3.4/src\coap_subscribe.c ****     *raw_packet = (coap_bin_const_t *)scratch;
 337:C:/Users/stapi/OneDrive/Desktop/GD32VW553/GD32VW55X_Wifi_BLE_SDK/GD32VW55x_RELEASE_V1.0.2/MSDK/lwip/libcoap-4.3.4/src\coap_subscribe.c ****     scratch = NULL;
 338:C:/Users/stapi/OneDrive/Desktop/GD32VW553/GD32VW55X_Wifi_BLE_SDK/GD32VW55x_RELEASE_V1.0.2/MSDK/lwip/libcoap-4.3.4/src\coap_subscribe.c ****     if (fread(&size, sizeof(size), 1, fp) != 1)
 339:C:/Users/stapi/OneDrive/Desktop/GD32VW553/GD32VW55X_Wifi_BLE_SDK/GD32VW55x_RELEASE_V1.0.2/MSDK/lwip/libcoap-4.3.4/src\coap_subscribe.c ****       goto fail;
 340:C:/Users/stapi/OneDrive/Desktop/GD32VW553/GD32VW55X_Wifi_BLE_SDK/GD32VW55x_RELEASE_V1.0.2/MSDK/lwip/libcoap-4.3.4/src\coap_subscribe.c ****     /* If size == -1, then no oscore information */
 341:C:/Users/stapi/OneDrive/Desktop/GD32VW553/GD32VW55X_Wifi_BLE_SDK/GD32VW55x_RELEASE_V1.0.2/MSDK/lwip/libcoap-4.3.4/src\coap_subscribe.c ****     if (size == -1)
 342:C:/Users/stapi/OneDrive/Desktop/GD32VW553/GD32VW55X_Wifi_BLE_SDK/GD32VW55x_RELEASE_V1.0.2/MSDK/lwip/libcoap-4.3.4/src\coap_subscribe.c ****       return 1;
 343:C:/Users/stapi/OneDrive/Desktop/GD32VW553/GD32VW55X_Wifi_BLE_SDK/GD32VW55x_RELEASE_V1.0.2/MSDK/lwip/libcoap-4.3.4/src\coap_subscribe.c ****     else if (size < 0 || size > 0x10000)
 344:C:/Users/stapi/OneDrive/Desktop/GD32VW553/GD32VW55X_Wifi_BLE_SDK/GD32VW55x_RELEASE_V1.0.2/MSDK/lwip/libcoap-4.3.4/src\coap_subscribe.c ****       goto fail;
 345:C:/Users/stapi/OneDrive/Desktop/GD32VW553/GD32VW55X_Wifi_BLE_SDK/GD32VW55x_RELEASE_V1.0.2/MSDK/lwip/libcoap-4.3.4/src\coap_subscribe.c ****     else {
 346:C:/Users/stapi/OneDrive/Desktop/GD32VW553/GD32VW55X_Wifi_BLE_SDK/GD32VW55x_RELEASE_V1.0.2/MSDK/lwip/libcoap-4.3.4/src\coap_subscribe.c ****       scratch = coap_new_binary(size);
 347:C:/Users/stapi/OneDrive/Desktop/GD32VW553/GD32VW55X_Wifi_BLE_SDK/GD32VW55x_RELEASE_V1.0.2/MSDK/lwip/libcoap-4.3.4/src\coap_subscribe.c ****       if (scratch == NULL)
 348:C:/Users/stapi/OneDrive/Desktop/GD32VW553/GD32VW55X_Wifi_BLE_SDK/GD32VW55x_RELEASE_V1.0.2/MSDK/lwip/libcoap-4.3.4/src\coap_subscribe.c ****         goto fail;
 349:C:/Users/stapi/OneDrive/Desktop/GD32VW553/GD32VW55X_Wifi_BLE_SDK/GD32VW55x_RELEASE_V1.0.2/MSDK/lwip/libcoap-4.3.4/src\coap_subscribe.c ****       if (fread(scratch->s, scratch->length, 1, fp) != 1)
 350:C:/Users/stapi/OneDrive/Desktop/GD32VW553/GD32VW55X_Wifi_BLE_SDK/GD32VW55x_RELEASE_V1.0.2/MSDK/lwip/libcoap-4.3.4/src\coap_subscribe.c ****         goto fail;
 351:C:/Users/stapi/OneDrive/Desktop/GD32VW553/GD32VW55X_Wifi_BLE_SDK/GD32VW55x_RELEASE_V1.0.2/MSDK/lwip/libcoap-4.3.4/src\coap_subscribe.c ****       *oscore_info = (coap_bin_const_t *)scratch;
 352:C:/Users/stapi/OneDrive/Desktop/GD32VW553/GD32VW55X_Wifi_BLE_SDK/GD32VW55x_RELEASE_V1.0.2/MSDK/lwip/libcoap-4.3.4/src\coap_subscribe.c ****     }
 353:C:/Users/stapi/OneDrive/Desktop/GD32VW553/GD32VW55X_Wifi_BLE_SDK/GD32VW55x_RELEASE_V1.0.2/MSDK/lwip/libcoap-4.3.4/src\coap_subscribe.c ****     return 1;
 354:C:/Users/stapi/OneDrive/Desktop/GD32VW553/GD32VW55X_Wifi_BLE_SDK/GD32VW55x_RELEASE_V1.0.2/MSDK/lwip/libcoap-4.3.4/src\coap_subscribe.c ****   }
 355:C:/Users/stapi/OneDrive/Desktop/GD32VW553/GD32VW55X_Wifi_BLE_SDK/GD32VW55x_RELEASE_V1.0.2/MSDK/lwip/libcoap-4.3.4/src\coap_subscribe.c **** fail:
 356:C:/Users/stapi/OneDrive/Desktop/GD32VW553/GD32VW55X_Wifi_BLE_SDK/GD32VW55x_RELEASE_V1.0.2/MSDK/lwip/libcoap-4.3.4/src\coap_subscribe.c ****   coap_delete_bin_const(*raw_packet);
 357:C:/Users/stapi/OneDrive/Desktop/GD32VW553/GD32VW55X_Wifi_BLE_SDK/GD32VW55x_RELEASE_V1.0.2/MSDK/lwip/libcoap-4.3.4/src\coap_subscribe.c ****   coap_delete_binary(scratch);
 358:C:/Users/stapi/OneDrive/Desktop/GD32VW553/GD32VW55X_Wifi_BLE_SDK/GD32VW55x_RELEASE_V1.0.2/MSDK/lwip/libcoap-4.3.4/src\coap_subscribe.c **** 
 359:C:/Users/stapi/OneDrive/Desktop/GD32VW553/GD32VW55X_Wifi_BLE_SDK/GD32VW55x_RELEASE_V1.0.2/MSDK/lwip/libcoap-4.3.4/src\coap_subscribe.c ****   *observe_key = NULL;
 360:C:/Users/stapi/OneDrive/Desktop/GD32VW553/GD32VW55X_Wifi_BLE_SDK/GD32VW55x_RELEASE_V1.0.2/MSDK/lwip/libcoap-4.3.4/src\coap_subscribe.c ****   memset(e_proto, 0, sizeof(*e_proto));
 361:C:/Users/stapi/OneDrive/Desktop/GD32VW553/GD32VW55X_Wifi_BLE_SDK/GD32VW55x_RELEASE_V1.0.2/MSDK/lwip/libcoap-4.3.4/src\coap_subscribe.c ****   memset(e_listen_addr, 0, sizeof(*e_listen_addr));
 362:C:/Users/stapi/OneDrive/Desktop/GD32VW553/GD32VW55X_Wifi_BLE_SDK/GD32VW55x_RELEASE_V1.0.2/MSDK/lwip/libcoap-4.3.4/src\coap_subscribe.c ****   memset(s_addr_info, 0, sizeof(*s_addr_info));
 363:C:/Users/stapi/OneDrive/Desktop/GD32VW553/GD32VW55X_Wifi_BLE_SDK/GD32VW55x_RELEASE_V1.0.2/MSDK/lwip/libcoap-4.3.4/src\coap_subscribe.c ****   *raw_packet = NULL;
 364:C:/Users/stapi/OneDrive/Desktop/GD32VW553/GD32VW55X_Wifi_BLE_SDK/GD32VW55x_RELEASE_V1.0.2/MSDK/lwip/libcoap-4.3.4/src\coap_subscribe.c ****   return 0;
 365:C:/Users/stapi/OneDrive/Desktop/GD32VW553/GD32VW55X_Wifi_BLE_SDK/GD32VW55x_RELEASE_V1.0.2/MSDK/lwip/libcoap-4.3.4/src\coap_subscribe.c **** }
 366:C:/Users/stapi/OneDrive/Desktop/GD32VW553/GD32VW55X_Wifi_BLE_SDK/GD32VW55x_RELEASE_V1.0.2/MSDK/lwip/libcoap-4.3.4/src\coap_subscribe.c **** 
 367:C:/Users/stapi/OneDrive/Desktop/GD32VW553/GD32VW55X_Wifi_BLE_SDK/GD32VW55x_RELEASE_V1.0.2/MSDK/lwip/libcoap-4.3.4/src\coap_subscribe.c **** /*
 368:C:/Users/stapi/OneDrive/Desktop/GD32VW553/GD32VW55X_Wifi_BLE_SDK/GD32VW55x_RELEASE_V1.0.2/MSDK/lwip/libcoap-4.3.4/src\coap_subscribe.c ****  * write out active observe entry.
 369:C:/Users/stapi/OneDrive/Desktop/GD32VW553/GD32VW55X_Wifi_BLE_SDK/GD32VW55x_RELEASE_V1.0.2/MSDK/lwip/libcoap-4.3.4/src\coap_subscribe.c ****  */
 370:C:/Users/stapi/OneDrive/Desktop/GD32VW553/GD32VW55X_Wifi_BLE_SDK/GD32VW55x_RELEASE_V1.0.2/MSDK/lwip/libcoap-4.3.4/src\coap_subscribe.c **** static int
 371:C:/Users/stapi/OneDrive/Desktop/GD32VW553/GD32VW55X_Wifi_BLE_SDK/GD32VW55x_RELEASE_V1.0.2/MSDK/lwip/libcoap-4.3.4/src\coap_subscribe.c **** coap_op_observe_write(FILE *fp, coap_subscription_t *observe_key,
 372:C:/Users/stapi/OneDrive/Desktop/GD32VW553/GD32VW55X_Wifi_BLE_SDK/GD32VW55x_RELEASE_V1.0.2/MSDK/lwip/libcoap-4.3.4/src\coap_subscribe.c ****                       coap_proto_t e_proto, coap_address_t e_listen_addr,
 373:C:/Users/stapi/OneDrive/Desktop/GD32VW553/GD32VW55X_Wifi_BLE_SDK/GD32VW55x_RELEASE_V1.0.2/MSDK/lwip/libcoap-4.3.4/src\coap_subscribe.c ****                       coap_addr_tuple_t s_addr_info,
 374:C:/Users/stapi/OneDrive/Desktop/GD32VW553/GD32VW55X_Wifi_BLE_SDK/GD32VW55x_RELEASE_V1.0.2/MSDK/lwip/libcoap-4.3.4/src\coap_subscribe.c ****                       coap_bin_const_t *raw_packet, coap_bin_const_t *oscore_info) {
 375:C:/Users/stapi/OneDrive/Desktop/GD32VW553/GD32VW55X_Wifi_BLE_SDK/GD32VW55x_RELEASE_V1.0.2/MSDK/lwip/libcoap-4.3.4/src\coap_subscribe.c ****   if (fwrite(&observe_key, sizeof(observe_key), 1, fp) != 1)
 376:C:/Users/stapi/OneDrive/Desktop/GD32VW553/GD32VW55X_Wifi_BLE_SDK/GD32VW55x_RELEASE_V1.0.2/MSDK/lwip/libcoap-4.3.4/src\coap_subscribe.c ****     goto fail;
 377:C:/Users/stapi/OneDrive/Desktop/GD32VW553/GD32VW55X_Wifi_BLE_SDK/GD32VW55x_RELEASE_V1.0.2/MSDK/lwip/libcoap-4.3.4/src\coap_subscribe.c ****   if (fwrite(&e_proto, sizeof(e_proto), 1, fp) != 1)
 378:C:/Users/stapi/OneDrive/Desktop/GD32VW553/GD32VW55X_Wifi_BLE_SDK/GD32VW55x_RELEASE_V1.0.2/MSDK/lwip/libcoap-4.3.4/src\coap_subscribe.c ****     goto fail;
 379:C:/Users/stapi/OneDrive/Desktop/GD32VW553/GD32VW55X_Wifi_BLE_SDK/GD32VW55x_RELEASE_V1.0.2/MSDK/lwip/libcoap-4.3.4/src\coap_subscribe.c ****   if (fwrite(&e_listen_addr, sizeof(e_listen_addr),
 380:C:/Users/stapi/OneDrive/Desktop/GD32VW553/GD32VW55X_Wifi_BLE_SDK/GD32VW55x_RELEASE_V1.0.2/MSDK/lwip/libcoap-4.3.4/src\coap_subscribe.c ****              1, fp) != 1)
 381:C:/Users/stapi/OneDrive/Desktop/GD32VW553/GD32VW55X_Wifi_BLE_SDK/GD32VW55x_RELEASE_V1.0.2/MSDK/lwip/libcoap-4.3.4/src\coap_subscribe.c ****     goto fail;
 382:C:/Users/stapi/OneDrive/Desktop/GD32VW553/GD32VW55X_Wifi_BLE_SDK/GD32VW55x_RELEASE_V1.0.2/MSDK/lwip/libcoap-4.3.4/src\coap_subscribe.c ****   if (fwrite(&s_addr_info, sizeof(s_addr_info), 1, fp) != 1)
 383:C:/Users/stapi/OneDrive/Desktop/GD32VW553/GD32VW55X_Wifi_BLE_SDK/GD32VW55x_RELEASE_V1.0.2/MSDK/lwip/libcoap-4.3.4/src\coap_subscribe.c ****     goto fail;
 384:C:/Users/stapi/OneDrive/Desktop/GD32VW553/GD32VW55X_Wifi_BLE_SDK/GD32VW55x_RELEASE_V1.0.2/MSDK/lwip/libcoap-4.3.4/src\coap_subscribe.c ****   if (fwrite(&raw_packet->length, sizeof(raw_packet->length), 1, fp) != 1)
 385:C:/Users/stapi/OneDrive/Desktop/GD32VW553/GD32VW55X_Wifi_BLE_SDK/GD32VW55x_RELEASE_V1.0.2/MSDK/lwip/libcoap-4.3.4/src\coap_subscribe.c ****     goto fail;
 386:C:/Users/stapi/OneDrive/Desktop/GD32VW553/GD32VW55X_Wifi_BLE_SDK/GD32VW55x_RELEASE_V1.0.2/MSDK/lwip/libcoap-4.3.4/src\coap_subscribe.c ****   if (fwrite(raw_packet->s, raw_packet->length, 1, fp) != 1)
 387:C:/Users/stapi/OneDrive/Desktop/GD32VW553/GD32VW55X_Wifi_BLE_SDK/GD32VW55x_RELEASE_V1.0.2/MSDK/lwip/libcoap-4.3.4/src\coap_subscribe.c ****     goto fail;
 388:C:/Users/stapi/OneDrive/Desktop/GD32VW553/GD32VW55X_Wifi_BLE_SDK/GD32VW55x_RELEASE_V1.0.2/MSDK/lwip/libcoap-4.3.4/src\coap_subscribe.c ****   if (oscore_info) {
 389:C:/Users/stapi/OneDrive/Desktop/GD32VW553/GD32VW55X_Wifi_BLE_SDK/GD32VW55x_RELEASE_V1.0.2/MSDK/lwip/libcoap-4.3.4/src\coap_subscribe.c ****     if (fwrite(&oscore_info->length, sizeof(oscore_info->length), 1, fp) != 1)
 390:C:/Users/stapi/OneDrive/Desktop/GD32VW553/GD32VW55X_Wifi_BLE_SDK/GD32VW55x_RELEASE_V1.0.2/MSDK/lwip/libcoap-4.3.4/src\coap_subscribe.c ****       goto fail;
 391:C:/Users/stapi/OneDrive/Desktop/GD32VW553/GD32VW55X_Wifi_BLE_SDK/GD32VW55x_RELEASE_V1.0.2/MSDK/lwip/libcoap-4.3.4/src\coap_subscribe.c ****     if (fwrite(oscore_info->s, oscore_info->length, 1, fp) != 1)
 392:C:/Users/stapi/OneDrive/Desktop/GD32VW553/GD32VW55X_Wifi_BLE_SDK/GD32VW55x_RELEASE_V1.0.2/MSDK/lwip/libcoap-4.3.4/src\coap_subscribe.c ****       goto fail;
 393:C:/Users/stapi/OneDrive/Desktop/GD32VW553/GD32VW55X_Wifi_BLE_SDK/GD32VW55x_RELEASE_V1.0.2/MSDK/lwip/libcoap-4.3.4/src\coap_subscribe.c ****   } else {
 394:C:/Users/stapi/OneDrive/Desktop/GD32VW553/GD32VW55X_Wifi_BLE_SDK/GD32VW55x_RELEASE_V1.0.2/MSDK/lwip/libcoap-4.3.4/src\coap_subscribe.c ****     ssize_t not_defined = -1;
 395:C:/Users/stapi/OneDrive/Desktop/GD32VW553/GD32VW55X_Wifi_BLE_SDK/GD32VW55x_RELEASE_V1.0.2/MSDK/lwip/libcoap-4.3.4/src\coap_subscribe.c **** 
 396:C:/Users/stapi/OneDrive/Desktop/GD32VW553/GD32VW55X_Wifi_BLE_SDK/GD32VW55x_RELEASE_V1.0.2/MSDK/lwip/libcoap-4.3.4/src\coap_subscribe.c ****     if (fwrite(&not_defined, sizeof(not_defined), 1, fp) != 1)
 397:C:/Users/stapi/OneDrive/Desktop/GD32VW553/GD32VW55X_Wifi_BLE_SDK/GD32VW55x_RELEASE_V1.0.2/MSDK/lwip/libcoap-4.3.4/src\coap_subscribe.c ****       goto fail;
 398:C:/Users/stapi/OneDrive/Desktop/GD32VW553/GD32VW55X_Wifi_BLE_SDK/GD32VW55x_RELEASE_V1.0.2/MSDK/lwip/libcoap-4.3.4/src\coap_subscribe.c ****   }
 399:C:/Users/stapi/OneDrive/Desktop/GD32VW553/GD32VW55X_Wifi_BLE_SDK/GD32VW55x_RELEASE_V1.0.2/MSDK/lwip/libcoap-4.3.4/src\coap_subscribe.c ****   return 1;
 400:C:/Users/stapi/OneDrive/Desktop/GD32VW553/GD32VW55X_Wifi_BLE_SDK/GD32VW55x_RELEASE_V1.0.2/MSDK/lwip/libcoap-4.3.4/src\coap_subscribe.c **** fail:
 401:C:/Users/stapi/OneDrive/Desktop/GD32VW553/GD32VW55X_Wifi_BLE_SDK/GD32VW55x_RELEASE_V1.0.2/MSDK/lwip/libcoap-4.3.4/src\coap_subscribe.c ****   return 0;
 402:C:/Users/stapi/OneDrive/Desktop/GD32VW553/GD32VW55X_Wifi_BLE_SDK/GD32VW55x_RELEASE_V1.0.2/MSDK/lwip/libcoap-4.3.4/src\coap_subscribe.c **** }
 403:C:/Users/stapi/OneDrive/Desktop/GD32VW553/GD32VW55X_Wifi_BLE_SDK/GD32VW55x_RELEASE_V1.0.2/MSDK/lwip/libcoap-4.3.4/src\coap_subscribe.c **** 
 404:C:/Users/stapi/OneDrive/Desktop/GD32VW553/GD32VW55X_Wifi_BLE_SDK/GD32VW55x_RELEASE_V1.0.2/MSDK/lwip/libcoap-4.3.4/src\coap_subscribe.c **** /*
 405:C:/Users/stapi/OneDrive/Desktop/GD32VW553/GD32VW55X_Wifi_BLE_SDK/GD32VW55x_RELEASE_V1.0.2/MSDK/lwip/libcoap-4.3.4/src\coap_subscribe.c ****  * This should be called before coap_persist_track_funcs() to prevent
 406:C:/Users/stapi/OneDrive/Desktop/GD32VW553/GD32VW55X_Wifi_BLE_SDK/GD32VW55x_RELEASE_V1.0.2/MSDK/lwip/libcoap-4.3.4/src\coap_subscribe.c ****  * coap_op_observe_added() getting unnecessarily called.
 407:C:/Users/stapi/OneDrive/Desktop/GD32VW553/GD32VW55X_Wifi_BLE_SDK/GD32VW55x_RELEASE_V1.0.2/MSDK/lwip/libcoap-4.3.4/src\coap_subscribe.c ****  * It should be called after init_resources() and coap_op_resource_load_disk()
 408:C:/Users/stapi/OneDrive/Desktop/GD32VW553/GD32VW55X_Wifi_BLE_SDK/GD32VW55x_RELEASE_V1.0.2/MSDK/lwip/libcoap-4.3.4/src\coap_subscribe.c ****  * so that all the resources are in place.
 409:C:/Users/stapi/OneDrive/Desktop/GD32VW553/GD32VW55X_Wifi_BLE_SDK/GD32VW55x_RELEASE_V1.0.2/MSDK/lwip/libcoap-4.3.4/src\coap_subscribe.c ****  */
 410:C:/Users/stapi/OneDrive/Desktop/GD32VW553/GD32VW55X_Wifi_BLE_SDK/GD32VW55x_RELEASE_V1.0.2/MSDK/lwip/libcoap-4.3.4/src\coap_subscribe.c **** static void
 411:C:/Users/stapi/OneDrive/Desktop/GD32VW553/GD32VW55X_Wifi_BLE_SDK/GD32VW55x_RELEASE_V1.0.2/MSDK/lwip/libcoap-4.3.4/src\coap_subscribe.c **** coap_op_observe_load_disk(coap_context_t *ctx) {
 412:C:/Users/stapi/OneDrive/Desktop/GD32VW553/GD32VW55X_Wifi_BLE_SDK/GD32VW55x_RELEASE_V1.0.2/MSDK/lwip/libcoap-4.3.4/src\coap_subscribe.c ****   FILE *fp_orig = fopen((const char *)ctx->observe_save_file->s, "r");
 413:C:/Users/stapi/OneDrive/Desktop/GD32VW553/GD32VW55X_Wifi_BLE_SDK/GD32VW55x_RELEASE_V1.0.2/MSDK/lwip/libcoap-4.3.4/src\coap_subscribe.c ****   FILE *fp_new = NULL;
 414:C:/Users/stapi/OneDrive/Desktop/GD32VW553/GD32VW55X_Wifi_BLE_SDK/GD32VW55x_RELEASE_V1.0.2/MSDK/lwip/libcoap-4.3.4/src\coap_subscribe.c ****   coap_subscription_t *observe_key = NULL;
 415:C:/Users/stapi/OneDrive/Desktop/GD32VW553/GD32VW55X_Wifi_BLE_SDK/GD32VW55x_RELEASE_V1.0.2/MSDK/lwip/libcoap-4.3.4/src\coap_subscribe.c ****   coap_proto_t e_proto;
 416:C:/Users/stapi/OneDrive/Desktop/GD32VW553/GD32VW55X_Wifi_BLE_SDK/GD32VW55x_RELEASE_V1.0.2/MSDK/lwip/libcoap-4.3.4/src\coap_subscribe.c ****   coap_address_t e_listen_addr;
 417:C:/Users/stapi/OneDrive/Desktop/GD32VW553/GD32VW55X_Wifi_BLE_SDK/GD32VW55x_RELEASE_V1.0.2/MSDK/lwip/libcoap-4.3.4/src\coap_subscribe.c ****   coap_addr_tuple_t s_addr_info;
 418:C:/Users/stapi/OneDrive/Desktop/GD32VW553/GD32VW55X_Wifi_BLE_SDK/GD32VW55x_RELEASE_V1.0.2/MSDK/lwip/libcoap-4.3.4/src\coap_subscribe.c ****   coap_bin_const_t *raw_packet = NULL;
 419:C:/Users/stapi/OneDrive/Desktop/GD32VW553/GD32VW55X_Wifi_BLE_SDK/GD32VW55x_RELEASE_V1.0.2/MSDK/lwip/libcoap-4.3.4/src\coap_subscribe.c ****   coap_bin_const_t *oscore_info = NULL;
 420:C:/Users/stapi/OneDrive/Desktop/GD32VW553/GD32VW55X_Wifi_BLE_SDK/GD32VW55x_RELEASE_V1.0.2/MSDK/lwip/libcoap-4.3.4/src\coap_subscribe.c ****   char *new = NULL;
 421:C:/Users/stapi/OneDrive/Desktop/GD32VW553/GD32VW55X_Wifi_BLE_SDK/GD32VW55x_RELEASE_V1.0.2/MSDK/lwip/libcoap-4.3.4/src\coap_subscribe.c **** 
 422:C:/Users/stapi/OneDrive/Desktop/GD32VW553/GD32VW55X_Wifi_BLE_SDK/GD32VW55x_RELEASE_V1.0.2/MSDK/lwip/libcoap-4.3.4/src\coap_subscribe.c ****   if (fp_orig == NULL)
 423:C:/Users/stapi/OneDrive/Desktop/GD32VW553/GD32VW55X_Wifi_BLE_SDK/GD32VW55x_RELEASE_V1.0.2/MSDK/lwip/libcoap-4.3.4/src\coap_subscribe.c ****     goto fail;
 424:C:/Users/stapi/OneDrive/Desktop/GD32VW553/GD32VW55X_Wifi_BLE_SDK/GD32VW55x_RELEASE_V1.0.2/MSDK/lwip/libcoap-4.3.4/src\coap_subscribe.c **** 
 425:C:/Users/stapi/OneDrive/Desktop/GD32VW553/GD32VW55X_Wifi_BLE_SDK/GD32VW55x_RELEASE_V1.0.2/MSDK/lwip/libcoap-4.3.4/src\coap_subscribe.c ****   new = coap_malloc_type(COAP_STRING, ctx->observe_save_file->length + 5);
 426:C:/Users/stapi/OneDrive/Desktop/GD32VW553/GD32VW55X_Wifi_BLE_SDK/GD32VW55x_RELEASE_V1.0.2/MSDK/lwip/libcoap-4.3.4/src\coap_subscribe.c ****   if (!new)
 427:C:/Users/stapi/OneDrive/Desktop/GD32VW553/GD32VW55X_Wifi_BLE_SDK/GD32VW55x_RELEASE_V1.0.2/MSDK/lwip/libcoap-4.3.4/src\coap_subscribe.c ****     goto fail;
 428:C:/Users/stapi/OneDrive/Desktop/GD32VW553/GD32VW55X_Wifi_BLE_SDK/GD32VW55x_RELEASE_V1.0.2/MSDK/lwip/libcoap-4.3.4/src\coap_subscribe.c **** 
 429:C:/Users/stapi/OneDrive/Desktop/GD32VW553/GD32VW55X_Wifi_BLE_SDK/GD32VW55x_RELEASE_V1.0.2/MSDK/lwip/libcoap-4.3.4/src\coap_subscribe.c ****   strcpy(new, (const char *)ctx->observe_save_file->s);
 430:C:/Users/stapi/OneDrive/Desktop/GD32VW553/GD32VW55X_Wifi_BLE_SDK/GD32VW55x_RELEASE_V1.0.2/MSDK/lwip/libcoap-4.3.4/src\coap_subscribe.c ****   strcat(new, ".tmp");
 431:C:/Users/stapi/OneDrive/Desktop/GD32VW553/GD32VW55X_Wifi_BLE_SDK/GD32VW55x_RELEASE_V1.0.2/MSDK/lwip/libcoap-4.3.4/src\coap_subscribe.c ****   fp_new = fopen(new, "w+");
 432:C:/Users/stapi/OneDrive/Desktop/GD32VW553/GD32VW55X_Wifi_BLE_SDK/GD32VW55x_RELEASE_V1.0.2/MSDK/lwip/libcoap-4.3.4/src\coap_subscribe.c ****   if (fp_new == NULL)
 433:C:/Users/stapi/OneDrive/Desktop/GD32VW553/GD32VW55X_Wifi_BLE_SDK/GD32VW55x_RELEASE_V1.0.2/MSDK/lwip/libcoap-4.3.4/src\coap_subscribe.c ****     goto fail;
 434:C:/Users/stapi/OneDrive/Desktop/GD32VW553/GD32VW55X_Wifi_BLE_SDK/GD32VW55x_RELEASE_V1.0.2/MSDK/lwip/libcoap-4.3.4/src\coap_subscribe.c **** 
 435:C:/Users/stapi/OneDrive/Desktop/GD32VW553/GD32VW55X_Wifi_BLE_SDK/GD32VW55x_RELEASE_V1.0.2/MSDK/lwip/libcoap-4.3.4/src\coap_subscribe.c ****   /* Go through and load oscore entry, updating key on the way */
 436:C:/Users/stapi/OneDrive/Desktop/GD32VW553/GD32VW55X_Wifi_BLE_SDK/GD32VW55x_RELEASE_V1.0.2/MSDK/lwip/libcoap-4.3.4/src\coap_subscribe.c ****   while (1) {
 437:C:/Users/stapi/OneDrive/Desktop/GD32VW553/GD32VW55X_Wifi_BLE_SDK/GD32VW55x_RELEASE_V1.0.2/MSDK/lwip/libcoap-4.3.4/src\coap_subscribe.c ****     if (!coap_op_observe_read(fp_orig, &observe_key, &e_proto, &e_listen_addr,
 438:C:/Users/stapi/OneDrive/Desktop/GD32VW553/GD32VW55X_Wifi_BLE_SDK/GD32VW55x_RELEASE_V1.0.2/MSDK/lwip/libcoap-4.3.4/src\coap_subscribe.c ****                               &s_addr_info, &raw_packet, &oscore_info))
 439:C:/Users/stapi/OneDrive/Desktop/GD32VW553/GD32VW55X_Wifi_BLE_SDK/GD32VW55x_RELEASE_V1.0.2/MSDK/lwip/libcoap-4.3.4/src\coap_subscribe.c ****       break;
 440:C:/Users/stapi/OneDrive/Desktop/GD32VW553/GD32VW55X_Wifi_BLE_SDK/GD32VW55x_RELEASE_V1.0.2/MSDK/lwip/libcoap-4.3.4/src\coap_subscribe.c ****     coap_log_debug("persist: New session/observe being created\n");
 441:C:/Users/stapi/OneDrive/Desktop/GD32VW553/GD32VW55X_Wifi_BLE_SDK/GD32VW55x_RELEASE_V1.0.2/MSDK/lwip/libcoap-4.3.4/src\coap_subscribe.c ****     observe_key = coap_persist_observe_add(ctx, e_proto,
 442:C:/Users/stapi/OneDrive/Desktop/GD32VW553/GD32VW55X_Wifi_BLE_SDK/GD32VW55x_RELEASE_V1.0.2/MSDK/lwip/libcoap-4.3.4/src\coap_subscribe.c ****                                            &e_listen_addr,
 443:C:/Users/stapi/OneDrive/Desktop/GD32VW553/GD32VW55X_Wifi_BLE_SDK/GD32VW55x_RELEASE_V1.0.2/MSDK/lwip/libcoap-4.3.4/src\coap_subscribe.c ****                                            &s_addr_info,
 444:C:/Users/stapi/OneDrive/Desktop/GD32VW553/GD32VW55X_Wifi_BLE_SDK/GD32VW55x_RELEASE_V1.0.2/MSDK/lwip/libcoap-4.3.4/src\coap_subscribe.c ****                                            raw_packet,
 445:C:/Users/stapi/OneDrive/Desktop/GD32VW553/GD32VW55X_Wifi_BLE_SDK/GD32VW55x_RELEASE_V1.0.2/MSDK/lwip/libcoap-4.3.4/src\coap_subscribe.c ****                                            oscore_info);
 446:C:/Users/stapi/OneDrive/Desktop/GD32VW553/GD32VW55X_Wifi_BLE_SDK/GD32VW55x_RELEASE_V1.0.2/MSDK/lwip/libcoap-4.3.4/src\coap_subscribe.c ****     if (observe_key) {
 447:C:/Users/stapi/OneDrive/Desktop/GD32VW553/GD32VW55X_Wifi_BLE_SDK/GD32VW55x_RELEASE_V1.0.2/MSDK/lwip/libcoap-4.3.4/src\coap_subscribe.c ****       if (!coap_op_observe_write(fp_new, observe_key, e_proto, e_listen_addr,
 448:C:/Users/stapi/OneDrive/Desktop/GD32VW553/GD32VW55X_Wifi_BLE_SDK/GD32VW55x_RELEASE_V1.0.2/MSDK/lwip/libcoap-4.3.4/src\coap_subscribe.c ****                                  s_addr_info, raw_packet, oscore_info))
 449:C:/Users/stapi/OneDrive/Desktop/GD32VW553/GD32VW55X_Wifi_BLE_SDK/GD32VW55x_RELEASE_V1.0.2/MSDK/lwip/libcoap-4.3.4/src\coap_subscribe.c ****         goto fail;
 450:C:/Users/stapi/OneDrive/Desktop/GD32VW553/GD32VW55X_Wifi_BLE_SDK/GD32VW55x_RELEASE_V1.0.2/MSDK/lwip/libcoap-4.3.4/src\coap_subscribe.c ****       coap_delete_bin_const(raw_packet);
 451:C:/Users/stapi/OneDrive/Desktop/GD32VW553/GD32VW55X_Wifi_BLE_SDK/GD32VW55x_RELEASE_V1.0.2/MSDK/lwip/libcoap-4.3.4/src\coap_subscribe.c ****       raw_packet = NULL;
 452:C:/Users/stapi/OneDrive/Desktop/GD32VW553/GD32VW55X_Wifi_BLE_SDK/GD32VW55x_RELEASE_V1.0.2/MSDK/lwip/libcoap-4.3.4/src\coap_subscribe.c ****       coap_delete_bin_const(oscore_info);
 453:C:/Users/stapi/OneDrive/Desktop/GD32VW553/GD32VW55X_Wifi_BLE_SDK/GD32VW55x_RELEASE_V1.0.2/MSDK/lwip/libcoap-4.3.4/src\coap_subscribe.c ****       oscore_info = NULL;
 454:C:/Users/stapi/OneDrive/Desktop/GD32VW553/GD32VW55X_Wifi_BLE_SDK/GD32VW55x_RELEASE_V1.0.2/MSDK/lwip/libcoap-4.3.4/src\coap_subscribe.c ****     }
 455:C:/Users/stapi/OneDrive/Desktop/GD32VW553/GD32VW55X_Wifi_BLE_SDK/GD32VW55x_RELEASE_V1.0.2/MSDK/lwip/libcoap-4.3.4/src\coap_subscribe.c ****   }
 456:C:/Users/stapi/OneDrive/Desktop/GD32VW553/GD32VW55X_Wifi_BLE_SDK/GD32VW55x_RELEASE_V1.0.2/MSDK/lwip/libcoap-4.3.4/src\coap_subscribe.c ****   coap_delete_bin_const(raw_packet);
 457:C:/Users/stapi/OneDrive/Desktop/GD32VW553/GD32VW55X_Wifi_BLE_SDK/GD32VW55x_RELEASE_V1.0.2/MSDK/lwip/libcoap-4.3.4/src\coap_subscribe.c ****   raw_packet = NULL;
 458:C:/Users/stapi/OneDrive/Desktop/GD32VW553/GD32VW55X_Wifi_BLE_SDK/GD32VW55x_RELEASE_V1.0.2/MSDK/lwip/libcoap-4.3.4/src\coap_subscribe.c ****   coap_delete_bin_const(oscore_info);
 459:C:/Users/stapi/OneDrive/Desktop/GD32VW553/GD32VW55X_Wifi_BLE_SDK/GD32VW55x_RELEASE_V1.0.2/MSDK/lwip/libcoap-4.3.4/src\coap_subscribe.c ****   oscore_info = NULL;
 460:C:/Users/stapi/OneDrive/Desktop/GD32VW553/GD32VW55X_Wifi_BLE_SDK/GD32VW55x_RELEASE_V1.0.2/MSDK/lwip/libcoap-4.3.4/src\coap_subscribe.c **** 
 461:C:/Users/stapi/OneDrive/Desktop/GD32VW553/GD32VW55X_Wifi_BLE_SDK/GD32VW55x_RELEASE_V1.0.2/MSDK/lwip/libcoap-4.3.4/src\coap_subscribe.c ****   if (fflush(fp_new) == EOF)
 462:C:/Users/stapi/OneDrive/Desktop/GD32VW553/GD32VW55X_Wifi_BLE_SDK/GD32VW55x_RELEASE_V1.0.2/MSDK/lwip/libcoap-4.3.4/src\coap_subscribe.c ****     goto fail;
 463:C:/Users/stapi/OneDrive/Desktop/GD32VW553/GD32VW55X_Wifi_BLE_SDK/GD32VW55x_RELEASE_V1.0.2/MSDK/lwip/libcoap-4.3.4/src\coap_subscribe.c ****   fclose(fp_new);
 464:C:/Users/stapi/OneDrive/Desktop/GD32VW553/GD32VW55X_Wifi_BLE_SDK/GD32VW55x_RELEASE_V1.0.2/MSDK/lwip/libcoap-4.3.4/src\coap_subscribe.c ****   fclose(fp_orig);
 465:C:/Users/stapi/OneDrive/Desktop/GD32VW553/GD32VW55X_Wifi_BLE_SDK/GD32VW55x_RELEASE_V1.0.2/MSDK/lwip/libcoap-4.3.4/src\coap_subscribe.c ****   /* Either old or new is in place */
 466:C:/Users/stapi/OneDrive/Desktop/GD32VW553/GD32VW55X_Wifi_BLE_SDK/GD32VW55x_RELEASE_V1.0.2/MSDK/lwip/libcoap-4.3.4/src\coap_subscribe.c ****   (void)rename(new, (const char *)ctx->observe_save_file->s);
 467:C:/Users/stapi/OneDrive/Desktop/GD32VW553/GD32VW55X_Wifi_BLE_SDK/GD32VW55x_RELEASE_V1.0.2/MSDK/lwip/libcoap-4.3.4/src\coap_subscribe.c ****   coap_free_type(COAP_STRING, new);
 468:C:/Users/stapi/OneDrive/Desktop/GD32VW553/GD32VW55X_Wifi_BLE_SDK/GD32VW55x_RELEASE_V1.0.2/MSDK/lwip/libcoap-4.3.4/src\coap_subscribe.c ****   return;
 469:C:/Users/stapi/OneDrive/Desktop/GD32VW553/GD32VW55X_Wifi_BLE_SDK/GD32VW55x_RELEASE_V1.0.2/MSDK/lwip/libcoap-4.3.4/src\coap_subscribe.c **** 
 470:C:/Users/stapi/OneDrive/Desktop/GD32VW553/GD32VW55X_Wifi_BLE_SDK/GD32VW55x_RELEASE_V1.0.2/MSDK/lwip/libcoap-4.3.4/src\coap_subscribe.c **** fail:
 471:C:/Users/stapi/OneDrive/Desktop/GD32VW553/GD32VW55X_Wifi_BLE_SDK/GD32VW55x_RELEASE_V1.0.2/MSDK/lwip/libcoap-4.3.4/src\coap_subscribe.c ****   coap_delete_bin_const(raw_packet);
 472:C:/Users/stapi/OneDrive/Desktop/GD32VW553/GD32VW55X_Wifi_BLE_SDK/GD32VW55x_RELEASE_V1.0.2/MSDK/lwip/libcoap-4.3.4/src\coap_subscribe.c ****   coap_delete_bin_const(oscore_info);
 473:C:/Users/stapi/OneDrive/Desktop/GD32VW553/GD32VW55X_Wifi_BLE_SDK/GD32VW55x_RELEASE_V1.0.2/MSDK/lwip/libcoap-4.3.4/src\coap_subscribe.c ****   if (fp_new)
 474:C:/Users/stapi/OneDrive/Desktop/GD32VW553/GD32VW55X_Wifi_BLE_SDK/GD32VW55x_RELEASE_V1.0.2/MSDK/lwip/libcoap-4.3.4/src\coap_subscribe.c ****     fclose(fp_new);
 475:C:/Users/stapi/OneDrive/Desktop/GD32VW553/GD32VW55X_Wifi_BLE_SDK/GD32VW55x_RELEASE_V1.0.2/MSDK/lwip/libcoap-4.3.4/src\coap_subscribe.c ****   if (fp_orig)
 476:C:/Users/stapi/OneDrive/Desktop/GD32VW553/GD32VW55X_Wifi_BLE_SDK/GD32VW55x_RELEASE_V1.0.2/MSDK/lwip/libcoap-4.3.4/src\coap_subscribe.c ****     fclose(fp_orig);
 477:C:/Users/stapi/OneDrive/Desktop/GD32VW553/GD32VW55X_Wifi_BLE_SDK/GD32VW55x_RELEASE_V1.0.2/MSDK/lwip/libcoap-4.3.4/src\coap_subscribe.c ****   if (new) {
 478:C:/Users/stapi/OneDrive/Desktop/GD32VW553/GD32VW55X_Wifi_BLE_SDK/GD32VW55x_RELEASE_V1.0.2/MSDK/lwip/libcoap-4.3.4/src\coap_subscribe.c ****     (void)remove(new);
 479:C:/Users/stapi/OneDrive/Desktop/GD32VW553/GD32VW55X_Wifi_BLE_SDK/GD32VW55x_RELEASE_V1.0.2/MSDK/lwip/libcoap-4.3.4/src\coap_subscribe.c ****   }
 480:C:/Users/stapi/OneDrive/Desktop/GD32VW553/GD32VW55X_Wifi_BLE_SDK/GD32VW55x_RELEASE_V1.0.2/MSDK/lwip/libcoap-4.3.4/src\coap_subscribe.c ****   coap_free_type(COAP_STRING, new);
 481:C:/Users/stapi/OneDrive/Desktop/GD32VW553/GD32VW55X_Wifi_BLE_SDK/GD32VW55x_RELEASE_V1.0.2/MSDK/lwip/libcoap-4.3.4/src\coap_subscribe.c ****   return;
 482:C:/Users/stapi/OneDrive/Desktop/GD32VW553/GD32VW55X_Wifi_BLE_SDK/GD32VW55x_RELEASE_V1.0.2/MSDK/lwip/libcoap-4.3.4/src\coap_subscribe.c **** }
 483:C:/Users/stapi/OneDrive/Desktop/GD32VW553/GD32VW55X_Wifi_BLE_SDK/GD32VW55x_RELEASE_V1.0.2/MSDK/lwip/libcoap-4.3.4/src\coap_subscribe.c **** 
 484:C:/Users/stapi/OneDrive/Desktop/GD32VW553/GD32VW55X_Wifi_BLE_SDK/GD32VW55x_RELEASE_V1.0.2/MSDK/lwip/libcoap-4.3.4/src\coap_subscribe.c **** /*
 485:C:/Users/stapi/OneDrive/Desktop/GD32VW553/GD32VW55X_Wifi_BLE_SDK/GD32VW55x_RELEASE_V1.0.2/MSDK/lwip/libcoap-4.3.4/src\coap_subscribe.c ****  * client has registered a new observe subscription request.
 486:C:/Users/stapi/OneDrive/Desktop/GD32VW553/GD32VW55X_Wifi_BLE_SDK/GD32VW55x_RELEASE_V1.0.2/MSDK/lwip/libcoap-4.3.4/src\coap_subscribe.c ****  */
 487:C:/Users/stapi/OneDrive/Desktop/GD32VW553/GD32VW55X_Wifi_BLE_SDK/GD32VW55x_RELEASE_V1.0.2/MSDK/lwip/libcoap-4.3.4/src\coap_subscribe.c **** static int
 488:C:/Users/stapi/OneDrive/Desktop/GD32VW553/GD32VW55X_Wifi_BLE_SDK/GD32VW55x_RELEASE_V1.0.2/MSDK/lwip/libcoap-4.3.4/src\coap_subscribe.c **** coap_op_observe_added(coap_session_t *session,
 489:C:/Users/stapi/OneDrive/Desktop/GD32VW553/GD32VW55X_Wifi_BLE_SDK/GD32VW55x_RELEASE_V1.0.2/MSDK/lwip/libcoap-4.3.4/src\coap_subscribe.c ****                       coap_subscription_t *a_observe_key,
 490:C:/Users/stapi/OneDrive/Desktop/GD32VW553/GD32VW55X_Wifi_BLE_SDK/GD32VW55x_RELEASE_V1.0.2/MSDK/lwip/libcoap-4.3.4/src\coap_subscribe.c ****                       coap_proto_t a_e_proto, coap_address_t *a_e_listen_addr,
 491:C:/Users/stapi/OneDrive/Desktop/GD32VW553/GD32VW55X_Wifi_BLE_SDK/GD32VW55x_RELEASE_V1.0.2/MSDK/lwip/libcoap-4.3.4/src\coap_subscribe.c ****                       coap_addr_tuple_t *a_s_addr_info,
 492:C:/Users/stapi/OneDrive/Desktop/GD32VW553/GD32VW55X_Wifi_BLE_SDK/GD32VW55x_RELEASE_V1.0.2/MSDK/lwip/libcoap-4.3.4/src\coap_subscribe.c ****                       coap_bin_const_t *a_raw_packet,
 493:C:/Users/stapi/OneDrive/Desktop/GD32VW553/GD32VW55X_Wifi_BLE_SDK/GD32VW55x_RELEASE_V1.0.2/MSDK/lwip/libcoap-4.3.4/src\coap_subscribe.c ****                       coap_bin_const_t *a_oscore_info, void *user_data) {
 494:C:/Users/stapi/OneDrive/Desktop/GD32VW553/GD32VW55X_Wifi_BLE_SDK/GD32VW55x_RELEASE_V1.0.2/MSDK/lwip/libcoap-4.3.4/src\coap_subscribe.c ****   FILE *fp_orig = fopen((const char *)session->context->observe_save_file->s,
 495:C:/Users/stapi/OneDrive/Desktop/GD32VW553/GD32VW55X_Wifi_BLE_SDK/GD32VW55x_RELEASE_V1.0.2/MSDK/lwip/libcoap-4.3.4/src\coap_subscribe.c ****                         "r");
 496:C:/Users/stapi/OneDrive/Desktop/GD32VW553/GD32VW55X_Wifi_BLE_SDK/GD32VW55x_RELEASE_V1.0.2/MSDK/lwip/libcoap-4.3.4/src\coap_subscribe.c ****   FILE *fp_new = NULL;
 497:C:/Users/stapi/OneDrive/Desktop/GD32VW553/GD32VW55X_Wifi_BLE_SDK/GD32VW55x_RELEASE_V1.0.2/MSDK/lwip/libcoap-4.3.4/src\coap_subscribe.c ****   coap_subscription_t *observe_key = NULL;
 498:C:/Users/stapi/OneDrive/Desktop/GD32VW553/GD32VW55X_Wifi_BLE_SDK/GD32VW55x_RELEASE_V1.0.2/MSDK/lwip/libcoap-4.3.4/src\coap_subscribe.c ****   coap_proto_t e_proto;
 499:C:/Users/stapi/OneDrive/Desktop/GD32VW553/GD32VW55X_Wifi_BLE_SDK/GD32VW55x_RELEASE_V1.0.2/MSDK/lwip/libcoap-4.3.4/src\coap_subscribe.c ****   coap_address_t e_listen_addr;
 500:C:/Users/stapi/OneDrive/Desktop/GD32VW553/GD32VW55X_Wifi_BLE_SDK/GD32VW55x_RELEASE_V1.0.2/MSDK/lwip/libcoap-4.3.4/src\coap_subscribe.c ****   coap_addr_tuple_t s_addr_info;
 501:C:/Users/stapi/OneDrive/Desktop/GD32VW553/GD32VW55X_Wifi_BLE_SDK/GD32VW55x_RELEASE_V1.0.2/MSDK/lwip/libcoap-4.3.4/src\coap_subscribe.c ****   coap_bin_const_t *raw_packet = NULL;
 502:C:/Users/stapi/OneDrive/Desktop/GD32VW553/GD32VW55X_Wifi_BLE_SDK/GD32VW55x_RELEASE_V1.0.2/MSDK/lwip/libcoap-4.3.4/src\coap_subscribe.c ****   coap_bin_const_t *oscore_info = NULL;
 503:C:/Users/stapi/OneDrive/Desktop/GD32VW553/GD32VW55X_Wifi_BLE_SDK/GD32VW55x_RELEASE_V1.0.2/MSDK/lwip/libcoap-4.3.4/src\coap_subscribe.c ****   char *new = NULL;
 504:C:/Users/stapi/OneDrive/Desktop/GD32VW553/GD32VW55X_Wifi_BLE_SDK/GD32VW55x_RELEASE_V1.0.2/MSDK/lwip/libcoap-4.3.4/src\coap_subscribe.c **** 
 505:C:/Users/stapi/OneDrive/Desktop/GD32VW553/GD32VW55X_Wifi_BLE_SDK/GD32VW55x_RELEASE_V1.0.2/MSDK/lwip/libcoap-4.3.4/src\coap_subscribe.c ****   (void)user_data;
 506:C:/Users/stapi/OneDrive/Desktop/GD32VW553/GD32VW55X_Wifi_BLE_SDK/GD32VW55x_RELEASE_V1.0.2/MSDK/lwip/libcoap-4.3.4/src\coap_subscribe.c **** 
 507:C:/Users/stapi/OneDrive/Desktop/GD32VW553/GD32VW55X_Wifi_BLE_SDK/GD32VW55x_RELEASE_V1.0.2/MSDK/lwip/libcoap-4.3.4/src\coap_subscribe.c ****   new = coap_malloc_type(COAP_STRING,
 508:C:/Users/stapi/OneDrive/Desktop/GD32VW553/GD32VW55X_Wifi_BLE_SDK/GD32VW55x_RELEASE_V1.0.2/MSDK/lwip/libcoap-4.3.4/src\coap_subscribe.c ****                          session->context->observe_save_file->length + 5);
 509:C:/Users/stapi/OneDrive/Desktop/GD32VW553/GD32VW55X_Wifi_BLE_SDK/GD32VW55x_RELEASE_V1.0.2/MSDK/lwip/libcoap-4.3.4/src\coap_subscribe.c ****   if (!new)
 510:C:/Users/stapi/OneDrive/Desktop/GD32VW553/GD32VW55X_Wifi_BLE_SDK/GD32VW55x_RELEASE_V1.0.2/MSDK/lwip/libcoap-4.3.4/src\coap_subscribe.c ****     goto fail;
 511:C:/Users/stapi/OneDrive/Desktop/GD32VW553/GD32VW55X_Wifi_BLE_SDK/GD32VW55x_RELEASE_V1.0.2/MSDK/lwip/libcoap-4.3.4/src\coap_subscribe.c **** 
 512:C:/Users/stapi/OneDrive/Desktop/GD32VW553/GD32VW55X_Wifi_BLE_SDK/GD32VW55x_RELEASE_V1.0.2/MSDK/lwip/libcoap-4.3.4/src\coap_subscribe.c ****   strcpy(new, (const char *)session->context->observe_save_file->s);
 513:C:/Users/stapi/OneDrive/Desktop/GD32VW553/GD32VW55X_Wifi_BLE_SDK/GD32VW55x_RELEASE_V1.0.2/MSDK/lwip/libcoap-4.3.4/src\coap_subscribe.c ****   strcat(new, ".tmp");
 514:C:/Users/stapi/OneDrive/Desktop/GD32VW553/GD32VW55X_Wifi_BLE_SDK/GD32VW55x_RELEASE_V1.0.2/MSDK/lwip/libcoap-4.3.4/src\coap_subscribe.c ****   fp_new = fopen(new, "w+");
 515:C:/Users/stapi/OneDrive/Desktop/GD32VW553/GD32VW55X_Wifi_BLE_SDK/GD32VW55x_RELEASE_V1.0.2/MSDK/lwip/libcoap-4.3.4/src\coap_subscribe.c ****   if (fp_new == NULL)
 516:C:/Users/stapi/OneDrive/Desktop/GD32VW553/GD32VW55X_Wifi_BLE_SDK/GD32VW55x_RELEASE_V1.0.2/MSDK/lwip/libcoap-4.3.4/src\coap_subscribe.c ****     goto fail;
 517:C:/Users/stapi/OneDrive/Desktop/GD32VW553/GD32VW55X_Wifi_BLE_SDK/GD32VW55x_RELEASE_V1.0.2/MSDK/lwip/libcoap-4.3.4/src\coap_subscribe.c **** 
 518:C:/Users/stapi/OneDrive/Desktop/GD32VW553/GD32VW55X_Wifi_BLE_SDK/GD32VW55x_RELEASE_V1.0.2/MSDK/lwip/libcoap-4.3.4/src\coap_subscribe.c ****   /* Go through and delete observe entry if it exists */
 519:C:/Users/stapi/OneDrive/Desktop/GD32VW553/GD32VW55X_Wifi_BLE_SDK/GD32VW55x_RELEASE_V1.0.2/MSDK/lwip/libcoap-4.3.4/src\coap_subscribe.c ****   while (fp_orig) {
 520:C:/Users/stapi/OneDrive/Desktop/GD32VW553/GD32VW55X_Wifi_BLE_SDK/GD32VW55x_RELEASE_V1.0.2/MSDK/lwip/libcoap-4.3.4/src\coap_subscribe.c ****     if (!coap_op_observe_read(fp_orig, &observe_key, &e_proto, &e_listen_addr,
 521:C:/Users/stapi/OneDrive/Desktop/GD32VW553/GD32VW55X_Wifi_BLE_SDK/GD32VW55x_RELEASE_V1.0.2/MSDK/lwip/libcoap-4.3.4/src\coap_subscribe.c ****                               &s_addr_info, &raw_packet, &oscore_info))
 522:C:/Users/stapi/OneDrive/Desktop/GD32VW553/GD32VW55X_Wifi_BLE_SDK/GD32VW55x_RELEASE_V1.0.2/MSDK/lwip/libcoap-4.3.4/src\coap_subscribe.c ****       break;
 523:C:/Users/stapi/OneDrive/Desktop/GD32VW553/GD32VW55X_Wifi_BLE_SDK/GD32VW55x_RELEASE_V1.0.2/MSDK/lwip/libcoap-4.3.4/src\coap_subscribe.c ****     if (observe_key != a_observe_key) {
 524:C:/Users/stapi/OneDrive/Desktop/GD32VW553/GD32VW55X_Wifi_BLE_SDK/GD32VW55x_RELEASE_V1.0.2/MSDK/lwip/libcoap-4.3.4/src\coap_subscribe.c ****       if (!coap_op_observe_write(fp_new, observe_key, e_proto, e_listen_addr,
 525:C:/Users/stapi/OneDrive/Desktop/GD32VW553/GD32VW55X_Wifi_BLE_SDK/GD32VW55x_RELEASE_V1.0.2/MSDK/lwip/libcoap-4.3.4/src\coap_subscribe.c ****                                  s_addr_info, raw_packet, oscore_info))
 526:C:/Users/stapi/OneDrive/Desktop/GD32VW553/GD32VW55X_Wifi_BLE_SDK/GD32VW55x_RELEASE_V1.0.2/MSDK/lwip/libcoap-4.3.4/src\coap_subscribe.c ****         goto fail;
 527:C:/Users/stapi/OneDrive/Desktop/GD32VW553/GD32VW55X_Wifi_BLE_SDK/GD32VW55x_RELEASE_V1.0.2/MSDK/lwip/libcoap-4.3.4/src\coap_subscribe.c ****     }
 528:C:/Users/stapi/OneDrive/Desktop/GD32VW553/GD32VW55X_Wifi_BLE_SDK/GD32VW55x_RELEASE_V1.0.2/MSDK/lwip/libcoap-4.3.4/src\coap_subscribe.c ****     coap_delete_bin_const(raw_packet);
 529:C:/Users/stapi/OneDrive/Desktop/GD32VW553/GD32VW55X_Wifi_BLE_SDK/GD32VW55x_RELEASE_V1.0.2/MSDK/lwip/libcoap-4.3.4/src\coap_subscribe.c ****     raw_packet = NULL;
 530:C:/Users/stapi/OneDrive/Desktop/GD32VW553/GD32VW55X_Wifi_BLE_SDK/GD32VW55x_RELEASE_V1.0.2/MSDK/lwip/libcoap-4.3.4/src\coap_subscribe.c ****     coap_delete_bin_const(oscore_info);
 531:C:/Users/stapi/OneDrive/Desktop/GD32VW553/GD32VW55X_Wifi_BLE_SDK/GD32VW55x_RELEASE_V1.0.2/MSDK/lwip/libcoap-4.3.4/src\coap_subscribe.c ****     oscore_info = NULL;
 532:C:/Users/stapi/OneDrive/Desktop/GD32VW553/GD32VW55X_Wifi_BLE_SDK/GD32VW55x_RELEASE_V1.0.2/MSDK/lwip/libcoap-4.3.4/src\coap_subscribe.c ****   }
 533:C:/Users/stapi/OneDrive/Desktop/GD32VW553/GD32VW55X_Wifi_BLE_SDK/GD32VW55x_RELEASE_V1.0.2/MSDK/lwip/libcoap-4.3.4/src\coap_subscribe.c ****   coap_delete_bin_const(raw_packet);
 534:C:/Users/stapi/OneDrive/Desktop/GD32VW553/GD32VW55X_Wifi_BLE_SDK/GD32VW55x_RELEASE_V1.0.2/MSDK/lwip/libcoap-4.3.4/src\coap_subscribe.c ****   raw_packet = NULL;
 535:C:/Users/stapi/OneDrive/Desktop/GD32VW553/GD32VW55X_Wifi_BLE_SDK/GD32VW55x_RELEASE_V1.0.2/MSDK/lwip/libcoap-4.3.4/src\coap_subscribe.c ****   coap_delete_bin_const(oscore_info);
 536:C:/Users/stapi/OneDrive/Desktop/GD32VW553/GD32VW55X_Wifi_BLE_SDK/GD32VW55x_RELEASE_V1.0.2/MSDK/lwip/libcoap-4.3.4/src\coap_subscribe.c ****   oscore_info = NULL;
 537:C:/Users/stapi/OneDrive/Desktop/GD32VW553/GD32VW55X_Wifi_BLE_SDK/GD32VW55x_RELEASE_V1.0.2/MSDK/lwip/libcoap-4.3.4/src\coap_subscribe.c **** 
 538:C:/Users/stapi/OneDrive/Desktop/GD32VW553/GD32VW55X_Wifi_BLE_SDK/GD32VW55x_RELEASE_V1.0.2/MSDK/lwip/libcoap-4.3.4/src\coap_subscribe.c ****   /* Add in new entry to the end */
 539:C:/Users/stapi/OneDrive/Desktop/GD32VW553/GD32VW55X_Wifi_BLE_SDK/GD32VW55x_RELEASE_V1.0.2/MSDK/lwip/libcoap-4.3.4/src\coap_subscribe.c ****   if (!coap_op_observe_write(fp_new, a_observe_key, a_e_proto, *a_e_listen_addr,
 540:C:/Users/stapi/OneDrive/Desktop/GD32VW553/GD32VW55X_Wifi_BLE_SDK/GD32VW55x_RELEASE_V1.0.2/MSDK/lwip/libcoap-4.3.4/src\coap_subscribe.c ****                              *a_s_addr_info, a_raw_packet, a_oscore_info))
 541:C:/Users/stapi/OneDrive/Desktop/GD32VW553/GD32VW55X_Wifi_BLE_SDK/GD32VW55x_RELEASE_V1.0.2/MSDK/lwip/libcoap-4.3.4/src\coap_subscribe.c ****     goto fail;
 542:C:/Users/stapi/OneDrive/Desktop/GD32VW553/GD32VW55X_Wifi_BLE_SDK/GD32VW55x_RELEASE_V1.0.2/MSDK/lwip/libcoap-4.3.4/src\coap_subscribe.c **** 
 543:C:/Users/stapi/OneDrive/Desktop/GD32VW553/GD32VW55X_Wifi_BLE_SDK/GD32VW55x_RELEASE_V1.0.2/MSDK/lwip/libcoap-4.3.4/src\coap_subscribe.c ****   if (fflush(fp_new) == EOF)
 544:C:/Users/stapi/OneDrive/Desktop/GD32VW553/GD32VW55X_Wifi_BLE_SDK/GD32VW55x_RELEASE_V1.0.2/MSDK/lwip/libcoap-4.3.4/src\coap_subscribe.c ****     goto fail;
 545:C:/Users/stapi/OneDrive/Desktop/GD32VW553/GD32VW55X_Wifi_BLE_SDK/GD32VW55x_RELEASE_V1.0.2/MSDK/lwip/libcoap-4.3.4/src\coap_subscribe.c ****   fclose(fp_new);
 546:C:/Users/stapi/OneDrive/Desktop/GD32VW553/GD32VW55X_Wifi_BLE_SDK/GD32VW55x_RELEASE_V1.0.2/MSDK/lwip/libcoap-4.3.4/src\coap_subscribe.c ****   if (fp_orig)
 547:C:/Users/stapi/OneDrive/Desktop/GD32VW553/GD32VW55X_Wifi_BLE_SDK/GD32VW55x_RELEASE_V1.0.2/MSDK/lwip/libcoap-4.3.4/src\coap_subscribe.c ****     fclose(fp_orig);
 548:C:/Users/stapi/OneDrive/Desktop/GD32VW553/GD32VW55X_Wifi_BLE_SDK/GD32VW55x_RELEASE_V1.0.2/MSDK/lwip/libcoap-4.3.4/src\coap_subscribe.c ****   /* Either old or new is in place */
 549:C:/Users/stapi/OneDrive/Desktop/GD32VW553/GD32VW55X_Wifi_BLE_SDK/GD32VW55x_RELEASE_V1.0.2/MSDK/lwip/libcoap-4.3.4/src\coap_subscribe.c ****   (void)rename(new, (const char *)session->context->observe_save_file->s);
 550:C:/Users/stapi/OneDrive/Desktop/GD32VW553/GD32VW55X_Wifi_BLE_SDK/GD32VW55x_RELEASE_V1.0.2/MSDK/lwip/libcoap-4.3.4/src\coap_subscribe.c ****   coap_free_type(COAP_STRING, new);
 551:C:/Users/stapi/OneDrive/Desktop/GD32VW553/GD32VW55X_Wifi_BLE_SDK/GD32VW55x_RELEASE_V1.0.2/MSDK/lwip/libcoap-4.3.4/src\coap_subscribe.c ****   return 1;
 552:C:/Users/stapi/OneDrive/Desktop/GD32VW553/GD32VW55X_Wifi_BLE_SDK/GD32VW55x_RELEASE_V1.0.2/MSDK/lwip/libcoap-4.3.4/src\coap_subscribe.c **** 
 553:C:/Users/stapi/OneDrive/Desktop/GD32VW553/GD32VW55X_Wifi_BLE_SDK/GD32VW55x_RELEASE_V1.0.2/MSDK/lwip/libcoap-4.3.4/src\coap_subscribe.c **** fail:
 554:C:/Users/stapi/OneDrive/Desktop/GD32VW553/GD32VW55X_Wifi_BLE_SDK/GD32VW55x_RELEASE_V1.0.2/MSDK/lwip/libcoap-4.3.4/src\coap_subscribe.c ****   coap_delete_bin_const(raw_packet);
 555:C:/Users/stapi/OneDrive/Desktop/GD32VW553/GD32VW55X_Wifi_BLE_SDK/GD32VW55x_RELEASE_V1.0.2/MSDK/lwip/libcoap-4.3.4/src\coap_subscribe.c ****   coap_delete_bin_const(oscore_info);
 556:C:/Users/stapi/OneDrive/Desktop/GD32VW553/GD32VW55X_Wifi_BLE_SDK/GD32VW55x_RELEASE_V1.0.2/MSDK/lwip/libcoap-4.3.4/src\coap_subscribe.c ****   if (fp_new)
 557:C:/Users/stapi/OneDrive/Desktop/GD32VW553/GD32VW55X_Wifi_BLE_SDK/GD32VW55x_RELEASE_V1.0.2/MSDK/lwip/libcoap-4.3.4/src\coap_subscribe.c ****     fclose(fp_new);
 558:C:/Users/stapi/OneDrive/Desktop/GD32VW553/GD32VW55X_Wifi_BLE_SDK/GD32VW55x_RELEASE_V1.0.2/MSDK/lwip/libcoap-4.3.4/src\coap_subscribe.c ****   if (fp_orig)
 559:C:/Users/stapi/OneDrive/Desktop/GD32VW553/GD32VW55X_Wifi_BLE_SDK/GD32VW55x_RELEASE_V1.0.2/MSDK/lwip/libcoap-4.3.4/src\coap_subscribe.c ****     fclose(fp_orig);
 560:C:/Users/stapi/OneDrive/Desktop/GD32VW553/GD32VW55X_Wifi_BLE_SDK/GD32VW55x_RELEASE_V1.0.2/MSDK/lwip/libcoap-4.3.4/src\coap_subscribe.c ****   if (new) {
 561:C:/Users/stapi/OneDrive/Desktop/GD32VW553/GD32VW55X_Wifi_BLE_SDK/GD32VW55x_RELEASE_V1.0.2/MSDK/lwip/libcoap-4.3.4/src\coap_subscribe.c ****     (void)remove(new);
 562:C:/Users/stapi/OneDrive/Desktop/GD32VW553/GD32VW55X_Wifi_BLE_SDK/GD32VW55x_RELEASE_V1.0.2/MSDK/lwip/libcoap-4.3.4/src\coap_subscribe.c ****   }
 563:C:/Users/stapi/OneDrive/Desktop/GD32VW553/GD32VW55X_Wifi_BLE_SDK/GD32VW55x_RELEASE_V1.0.2/MSDK/lwip/libcoap-4.3.4/src\coap_subscribe.c ****   coap_free_type(COAP_STRING, new);
 564:C:/Users/stapi/OneDrive/Desktop/GD32VW553/GD32VW55X_Wifi_BLE_SDK/GD32VW55x_RELEASE_V1.0.2/MSDK/lwip/libcoap-4.3.4/src\coap_subscribe.c ****   return 0;
 565:C:/Users/stapi/OneDrive/Desktop/GD32VW553/GD32VW55X_Wifi_BLE_SDK/GD32VW55x_RELEASE_V1.0.2/MSDK/lwip/libcoap-4.3.4/src\coap_subscribe.c **** }
 566:C:/Users/stapi/OneDrive/Desktop/GD32VW553/GD32VW55X_Wifi_BLE_SDK/GD32VW55x_RELEASE_V1.0.2/MSDK/lwip/libcoap-4.3.4/src\coap_subscribe.c **** 
 567:C:/Users/stapi/OneDrive/Desktop/GD32VW553/GD32VW55X_Wifi_BLE_SDK/GD32VW55x_RELEASE_V1.0.2/MSDK/lwip/libcoap-4.3.4/src\coap_subscribe.c **** /*
 568:C:/Users/stapi/OneDrive/Desktop/GD32VW553/GD32VW55X_Wifi_BLE_SDK/GD32VW55x_RELEASE_V1.0.2/MSDK/lwip/libcoap-4.3.4/src\coap_subscribe.c ****  * client has de-registered a observe subscription request.
 569:C:/Users/stapi/OneDrive/Desktop/GD32VW553/GD32VW55X_Wifi_BLE_SDK/GD32VW55x_RELEASE_V1.0.2/MSDK/lwip/libcoap-4.3.4/src\coap_subscribe.c ****  */
 570:C:/Users/stapi/OneDrive/Desktop/GD32VW553/GD32VW55X_Wifi_BLE_SDK/GD32VW55x_RELEASE_V1.0.2/MSDK/lwip/libcoap-4.3.4/src\coap_subscribe.c **** static int
 571:C:/Users/stapi/OneDrive/Desktop/GD32VW553/GD32VW55X_Wifi_BLE_SDK/GD32VW55x_RELEASE_V1.0.2/MSDK/lwip/libcoap-4.3.4/src\coap_subscribe.c **** coap_op_observe_deleted(coap_session_t *session,
 572:C:/Users/stapi/OneDrive/Desktop/GD32VW553/GD32VW55X_Wifi_BLE_SDK/GD32VW55x_RELEASE_V1.0.2/MSDK/lwip/libcoap-4.3.4/src\coap_subscribe.c ****                         coap_subscription_t *d_observe_key,
 573:C:/Users/stapi/OneDrive/Desktop/GD32VW553/GD32VW55X_Wifi_BLE_SDK/GD32VW55x_RELEASE_V1.0.2/MSDK/lwip/libcoap-4.3.4/src\coap_subscribe.c ****                         void *user_data) {
 574:C:/Users/stapi/OneDrive/Desktop/GD32VW553/GD32VW55X_Wifi_BLE_SDK/GD32VW55x_RELEASE_V1.0.2/MSDK/lwip/libcoap-4.3.4/src\coap_subscribe.c ****   FILE *fp_orig = fopen((const char *)session->context->observe_save_file->s,
 575:C:/Users/stapi/OneDrive/Desktop/GD32VW553/GD32VW55X_Wifi_BLE_SDK/GD32VW55x_RELEASE_V1.0.2/MSDK/lwip/libcoap-4.3.4/src\coap_subscribe.c ****                         "r");
 576:C:/Users/stapi/OneDrive/Desktop/GD32VW553/GD32VW55X_Wifi_BLE_SDK/GD32VW55x_RELEASE_V1.0.2/MSDK/lwip/libcoap-4.3.4/src\coap_subscribe.c ****   FILE *fp_new = NULL;
 577:C:/Users/stapi/OneDrive/Desktop/GD32VW553/GD32VW55X_Wifi_BLE_SDK/GD32VW55x_RELEASE_V1.0.2/MSDK/lwip/libcoap-4.3.4/src\coap_subscribe.c ****   coap_subscription_t *observe_key = NULL;
 578:C:/Users/stapi/OneDrive/Desktop/GD32VW553/GD32VW55X_Wifi_BLE_SDK/GD32VW55x_RELEASE_V1.0.2/MSDK/lwip/libcoap-4.3.4/src\coap_subscribe.c ****   coap_proto_t e_proto;
 579:C:/Users/stapi/OneDrive/Desktop/GD32VW553/GD32VW55X_Wifi_BLE_SDK/GD32VW55x_RELEASE_V1.0.2/MSDK/lwip/libcoap-4.3.4/src\coap_subscribe.c ****   coap_address_t e_listen_addr;
 580:C:/Users/stapi/OneDrive/Desktop/GD32VW553/GD32VW55X_Wifi_BLE_SDK/GD32VW55x_RELEASE_V1.0.2/MSDK/lwip/libcoap-4.3.4/src\coap_subscribe.c ****   coap_addr_tuple_t s_addr_info;
 581:C:/Users/stapi/OneDrive/Desktop/GD32VW553/GD32VW55X_Wifi_BLE_SDK/GD32VW55x_RELEASE_V1.0.2/MSDK/lwip/libcoap-4.3.4/src\coap_subscribe.c ****   coap_bin_const_t *raw_packet = NULL;
 582:C:/Users/stapi/OneDrive/Desktop/GD32VW553/GD32VW55X_Wifi_BLE_SDK/GD32VW55x_RELEASE_V1.0.2/MSDK/lwip/libcoap-4.3.4/src\coap_subscribe.c ****   coap_bin_const_t *oscore_info = NULL;
 583:C:/Users/stapi/OneDrive/Desktop/GD32VW553/GD32VW55X_Wifi_BLE_SDK/GD32VW55x_RELEASE_V1.0.2/MSDK/lwip/libcoap-4.3.4/src\coap_subscribe.c ****   char *new = NULL;
 584:C:/Users/stapi/OneDrive/Desktop/GD32VW553/GD32VW55X_Wifi_BLE_SDK/GD32VW55x_RELEASE_V1.0.2/MSDK/lwip/libcoap-4.3.4/src\coap_subscribe.c **** 
 585:C:/Users/stapi/OneDrive/Desktop/GD32VW553/GD32VW55X_Wifi_BLE_SDK/GD32VW55x_RELEASE_V1.0.2/MSDK/lwip/libcoap-4.3.4/src\coap_subscribe.c ****   (void)user_data;
 586:C:/Users/stapi/OneDrive/Desktop/GD32VW553/GD32VW55X_Wifi_BLE_SDK/GD32VW55x_RELEASE_V1.0.2/MSDK/lwip/libcoap-4.3.4/src\coap_subscribe.c **** 
 587:C:/Users/stapi/OneDrive/Desktop/GD32VW553/GD32VW55X_Wifi_BLE_SDK/GD32VW55x_RELEASE_V1.0.2/MSDK/lwip/libcoap-4.3.4/src\coap_subscribe.c ****   if (fp_orig == NULL)
 588:C:/Users/stapi/OneDrive/Desktop/GD32VW553/GD32VW55X_Wifi_BLE_SDK/GD32VW55x_RELEASE_V1.0.2/MSDK/lwip/libcoap-4.3.4/src\coap_subscribe.c ****     goto fail;
 589:C:/Users/stapi/OneDrive/Desktop/GD32VW553/GD32VW55X_Wifi_BLE_SDK/GD32VW55x_RELEASE_V1.0.2/MSDK/lwip/libcoap-4.3.4/src\coap_subscribe.c ****   new = coap_malloc_type(COAP_STRING,
 590:C:/Users/stapi/OneDrive/Desktop/GD32VW553/GD32VW55X_Wifi_BLE_SDK/GD32VW55x_RELEASE_V1.0.2/MSDK/lwip/libcoap-4.3.4/src\coap_subscribe.c ****                          session->context->observe_save_file->length + 5);
 591:C:/Users/stapi/OneDrive/Desktop/GD32VW553/GD32VW55X_Wifi_BLE_SDK/GD32VW55x_RELEASE_V1.0.2/MSDK/lwip/libcoap-4.3.4/src\coap_subscribe.c ****   if (!new)
 592:C:/Users/stapi/OneDrive/Desktop/GD32VW553/GD32VW55X_Wifi_BLE_SDK/GD32VW55x_RELEASE_V1.0.2/MSDK/lwip/libcoap-4.3.4/src\coap_subscribe.c ****     goto fail;
 593:C:/Users/stapi/OneDrive/Desktop/GD32VW553/GD32VW55X_Wifi_BLE_SDK/GD32VW55x_RELEASE_V1.0.2/MSDK/lwip/libcoap-4.3.4/src\coap_subscribe.c **** 
 594:C:/Users/stapi/OneDrive/Desktop/GD32VW553/GD32VW55X_Wifi_BLE_SDK/GD32VW55x_RELEASE_V1.0.2/MSDK/lwip/libcoap-4.3.4/src\coap_subscribe.c ****   strcpy(new, (const char *)session->context->observe_save_file->s);
 595:C:/Users/stapi/OneDrive/Desktop/GD32VW553/GD32VW55X_Wifi_BLE_SDK/GD32VW55x_RELEASE_V1.0.2/MSDK/lwip/libcoap-4.3.4/src\coap_subscribe.c ****   strcat(new, ".tmp");
 596:C:/Users/stapi/OneDrive/Desktop/GD32VW553/GD32VW55X_Wifi_BLE_SDK/GD32VW55x_RELEASE_V1.0.2/MSDK/lwip/libcoap-4.3.4/src\coap_subscribe.c ****   fp_new = fopen(new, "w+");
 597:C:/Users/stapi/OneDrive/Desktop/GD32VW553/GD32VW55X_Wifi_BLE_SDK/GD32VW55x_RELEASE_V1.0.2/MSDK/lwip/libcoap-4.3.4/src\coap_subscribe.c ****   if (fp_new == NULL)
 598:C:/Users/stapi/OneDrive/Desktop/GD32VW553/GD32VW55X_Wifi_BLE_SDK/GD32VW55x_RELEASE_V1.0.2/MSDK/lwip/libcoap-4.3.4/src\coap_subscribe.c ****     goto fail;
 599:C:/Users/stapi/OneDrive/Desktop/GD32VW553/GD32VW55X_Wifi_BLE_SDK/GD32VW55x_RELEASE_V1.0.2/MSDK/lwip/libcoap-4.3.4/src\coap_subscribe.c **** 
 600:C:/Users/stapi/OneDrive/Desktop/GD32VW553/GD32VW55X_Wifi_BLE_SDK/GD32VW55x_RELEASE_V1.0.2/MSDK/lwip/libcoap-4.3.4/src\coap_subscribe.c ****   /* Go through and locate observe entry to delete and not copy it across */
 601:C:/Users/stapi/OneDrive/Desktop/GD32VW553/GD32VW55X_Wifi_BLE_SDK/GD32VW55x_RELEASE_V1.0.2/MSDK/lwip/libcoap-4.3.4/src\coap_subscribe.c ****   while (1) {
 602:C:/Users/stapi/OneDrive/Desktop/GD32VW553/GD32VW55X_Wifi_BLE_SDK/GD32VW55x_RELEASE_V1.0.2/MSDK/lwip/libcoap-4.3.4/src\coap_subscribe.c ****     if (!coap_op_observe_read(fp_orig, &observe_key, &e_proto, &e_listen_addr,
 603:C:/Users/stapi/OneDrive/Desktop/GD32VW553/GD32VW55X_Wifi_BLE_SDK/GD32VW55x_RELEASE_V1.0.2/MSDK/lwip/libcoap-4.3.4/src\coap_subscribe.c ****                               &s_addr_info, &raw_packet, &oscore_info))
 604:C:/Users/stapi/OneDrive/Desktop/GD32VW553/GD32VW55X_Wifi_BLE_SDK/GD32VW55x_RELEASE_V1.0.2/MSDK/lwip/libcoap-4.3.4/src\coap_subscribe.c ****       break;
 605:C:/Users/stapi/OneDrive/Desktop/GD32VW553/GD32VW55X_Wifi_BLE_SDK/GD32VW55x_RELEASE_V1.0.2/MSDK/lwip/libcoap-4.3.4/src\coap_subscribe.c ****     if (observe_key != d_observe_key) {
 606:C:/Users/stapi/OneDrive/Desktop/GD32VW553/GD32VW55X_Wifi_BLE_SDK/GD32VW55x_RELEASE_V1.0.2/MSDK/lwip/libcoap-4.3.4/src\coap_subscribe.c ****       if (!coap_op_observe_write(fp_new, observe_key, e_proto, e_listen_addr,
 607:C:/Users/stapi/OneDrive/Desktop/GD32VW553/GD32VW55X_Wifi_BLE_SDK/GD32VW55x_RELEASE_V1.0.2/MSDK/lwip/libcoap-4.3.4/src\coap_subscribe.c ****                                  s_addr_info, (coap_bin_const_t *)raw_packet,
 608:C:/Users/stapi/OneDrive/Desktop/GD32VW553/GD32VW55X_Wifi_BLE_SDK/GD32VW55x_RELEASE_V1.0.2/MSDK/lwip/libcoap-4.3.4/src\coap_subscribe.c ****                                  (coap_bin_const_t *)oscore_info))
 609:C:/Users/stapi/OneDrive/Desktop/GD32VW553/GD32VW55X_Wifi_BLE_SDK/GD32VW55x_RELEASE_V1.0.2/MSDK/lwip/libcoap-4.3.4/src\coap_subscribe.c ****         goto fail;
 610:C:/Users/stapi/OneDrive/Desktop/GD32VW553/GD32VW55X_Wifi_BLE_SDK/GD32VW55x_RELEASE_V1.0.2/MSDK/lwip/libcoap-4.3.4/src\coap_subscribe.c ****     }
 611:C:/Users/stapi/OneDrive/Desktop/GD32VW553/GD32VW55X_Wifi_BLE_SDK/GD32VW55x_RELEASE_V1.0.2/MSDK/lwip/libcoap-4.3.4/src\coap_subscribe.c ****     coap_delete_bin_const(raw_packet);
 612:C:/Users/stapi/OneDrive/Desktop/GD32VW553/GD32VW55X_Wifi_BLE_SDK/GD32VW55x_RELEASE_V1.0.2/MSDK/lwip/libcoap-4.3.4/src\coap_subscribe.c ****     raw_packet = NULL;
 613:C:/Users/stapi/OneDrive/Desktop/GD32VW553/GD32VW55X_Wifi_BLE_SDK/GD32VW55x_RELEASE_V1.0.2/MSDK/lwip/libcoap-4.3.4/src\coap_subscribe.c ****     coap_delete_bin_const(oscore_info);
 614:C:/Users/stapi/OneDrive/Desktop/GD32VW553/GD32VW55X_Wifi_BLE_SDK/GD32VW55x_RELEASE_V1.0.2/MSDK/lwip/libcoap-4.3.4/src\coap_subscribe.c ****     oscore_info = NULL;
 615:C:/Users/stapi/OneDrive/Desktop/GD32VW553/GD32VW55X_Wifi_BLE_SDK/GD32VW55x_RELEASE_V1.0.2/MSDK/lwip/libcoap-4.3.4/src\coap_subscribe.c ****   }
 616:C:/Users/stapi/OneDrive/Desktop/GD32VW553/GD32VW55X_Wifi_BLE_SDK/GD32VW55x_RELEASE_V1.0.2/MSDK/lwip/libcoap-4.3.4/src\coap_subscribe.c ****   coap_delete_bin_const(raw_packet);
 617:C:/Users/stapi/OneDrive/Desktop/GD32VW553/GD32VW55X_Wifi_BLE_SDK/GD32VW55x_RELEASE_V1.0.2/MSDK/lwip/libcoap-4.3.4/src\coap_subscribe.c ****   raw_packet = NULL;
 618:C:/Users/stapi/OneDrive/Desktop/GD32VW553/GD32VW55X_Wifi_BLE_SDK/GD32VW55x_RELEASE_V1.0.2/MSDK/lwip/libcoap-4.3.4/src\coap_subscribe.c ****   coap_delete_bin_const(oscore_info);
 619:C:/Users/stapi/OneDrive/Desktop/GD32VW553/GD32VW55X_Wifi_BLE_SDK/GD32VW55x_RELEASE_V1.0.2/MSDK/lwip/libcoap-4.3.4/src\coap_subscribe.c ****   oscore_info = NULL;
 620:C:/Users/stapi/OneDrive/Desktop/GD32VW553/GD32VW55X_Wifi_BLE_SDK/GD32VW55x_RELEASE_V1.0.2/MSDK/lwip/libcoap-4.3.4/src\coap_subscribe.c **** 
 621:C:/Users/stapi/OneDrive/Desktop/GD32VW553/GD32VW55X_Wifi_BLE_SDK/GD32VW55x_RELEASE_V1.0.2/MSDK/lwip/libcoap-4.3.4/src\coap_subscribe.c ****   if (fflush(fp_new) == EOF)
 622:C:/Users/stapi/OneDrive/Desktop/GD32VW553/GD32VW55X_Wifi_BLE_SDK/GD32VW55x_RELEASE_V1.0.2/MSDK/lwip/libcoap-4.3.4/src\coap_subscribe.c ****     goto fail;
 623:C:/Users/stapi/OneDrive/Desktop/GD32VW553/GD32VW55X_Wifi_BLE_SDK/GD32VW55x_RELEASE_V1.0.2/MSDK/lwip/libcoap-4.3.4/src\coap_subscribe.c ****   fclose(fp_new);
 624:C:/Users/stapi/OneDrive/Desktop/GD32VW553/GD32VW55X_Wifi_BLE_SDK/GD32VW55x_RELEASE_V1.0.2/MSDK/lwip/libcoap-4.3.4/src\coap_subscribe.c ****   fclose(fp_orig);
 625:C:/Users/stapi/OneDrive/Desktop/GD32VW553/GD32VW55X_Wifi_BLE_SDK/GD32VW55x_RELEASE_V1.0.2/MSDK/lwip/libcoap-4.3.4/src\coap_subscribe.c ****   /* Either old or new is in place */
 626:C:/Users/stapi/OneDrive/Desktop/GD32VW553/GD32VW55X_Wifi_BLE_SDK/GD32VW55x_RELEASE_V1.0.2/MSDK/lwip/libcoap-4.3.4/src\coap_subscribe.c ****   (void)rename(new, (const char *)session->context->observe_save_file->s);
 627:C:/Users/stapi/OneDrive/Desktop/GD32VW553/GD32VW55X_Wifi_BLE_SDK/GD32VW55x_RELEASE_V1.0.2/MSDK/lwip/libcoap-4.3.4/src\coap_subscribe.c ****   coap_free_type(COAP_STRING, new);
 628:C:/Users/stapi/OneDrive/Desktop/GD32VW553/GD32VW55X_Wifi_BLE_SDK/GD32VW55x_RELEASE_V1.0.2/MSDK/lwip/libcoap-4.3.4/src\coap_subscribe.c ****   return 1;
 629:C:/Users/stapi/OneDrive/Desktop/GD32VW553/GD32VW55X_Wifi_BLE_SDK/GD32VW55x_RELEASE_V1.0.2/MSDK/lwip/libcoap-4.3.4/src\coap_subscribe.c **** 
 630:C:/Users/stapi/OneDrive/Desktop/GD32VW553/GD32VW55X_Wifi_BLE_SDK/GD32VW55x_RELEASE_V1.0.2/MSDK/lwip/libcoap-4.3.4/src\coap_subscribe.c **** fail:
 631:C:/Users/stapi/OneDrive/Desktop/GD32VW553/GD32VW55X_Wifi_BLE_SDK/GD32VW55x_RELEASE_V1.0.2/MSDK/lwip/libcoap-4.3.4/src\coap_subscribe.c ****   coap_delete_bin_const(raw_packet);
 632:C:/Users/stapi/OneDrive/Desktop/GD32VW553/GD32VW55X_Wifi_BLE_SDK/GD32VW55x_RELEASE_V1.0.2/MSDK/lwip/libcoap-4.3.4/src\coap_subscribe.c ****   coap_delete_bin_const(oscore_info);
 633:C:/Users/stapi/OneDrive/Desktop/GD32VW553/GD32VW55X_Wifi_BLE_SDK/GD32VW55x_RELEASE_V1.0.2/MSDK/lwip/libcoap-4.3.4/src\coap_subscribe.c ****   if (fp_new)
 634:C:/Users/stapi/OneDrive/Desktop/GD32VW553/GD32VW55X_Wifi_BLE_SDK/GD32VW55x_RELEASE_V1.0.2/MSDK/lwip/libcoap-4.3.4/src\coap_subscribe.c ****     fclose(fp_new);
 635:C:/Users/stapi/OneDrive/Desktop/GD32VW553/GD32VW55X_Wifi_BLE_SDK/GD32VW55x_RELEASE_V1.0.2/MSDK/lwip/libcoap-4.3.4/src\coap_subscribe.c ****   if (fp_orig)
 636:C:/Users/stapi/OneDrive/Desktop/GD32VW553/GD32VW55X_Wifi_BLE_SDK/GD32VW55x_RELEASE_V1.0.2/MSDK/lwip/libcoap-4.3.4/src\coap_subscribe.c ****     fclose(fp_orig);
 637:C:/Users/stapi/OneDrive/Desktop/GD32VW553/GD32VW55X_Wifi_BLE_SDK/GD32VW55x_RELEASE_V1.0.2/MSDK/lwip/libcoap-4.3.4/src\coap_subscribe.c ****   if (new) {
 638:C:/Users/stapi/OneDrive/Desktop/GD32VW553/GD32VW55X_Wifi_BLE_SDK/GD32VW55x_RELEASE_V1.0.2/MSDK/lwip/libcoap-4.3.4/src\coap_subscribe.c ****     (void)remove(new);
 639:C:/Users/stapi/OneDrive/Desktop/GD32VW553/GD32VW55X_Wifi_BLE_SDK/GD32VW55x_RELEASE_V1.0.2/MSDK/lwip/libcoap-4.3.4/src\coap_subscribe.c ****   }
 640:C:/Users/stapi/OneDrive/Desktop/GD32VW553/GD32VW55X_Wifi_BLE_SDK/GD32VW55x_RELEASE_V1.0.2/MSDK/lwip/libcoap-4.3.4/src\coap_subscribe.c ****   coap_free_type(COAP_STRING, new);
 641:C:/Users/stapi/OneDrive/Desktop/GD32VW553/GD32VW55X_Wifi_BLE_SDK/GD32VW55x_RELEASE_V1.0.2/MSDK/lwip/libcoap-4.3.4/src\coap_subscribe.c ****   return 0;
 642:C:/Users/stapi/OneDrive/Desktop/GD32VW553/GD32VW55X_Wifi_BLE_SDK/GD32VW55x_RELEASE_V1.0.2/MSDK/lwip/libcoap-4.3.4/src\coap_subscribe.c **** }
 643:C:/Users/stapi/OneDrive/Desktop/GD32VW553/GD32VW55X_Wifi_BLE_SDK/GD32VW55x_RELEASE_V1.0.2/MSDK/lwip/libcoap-4.3.4/src\coap_subscribe.c **** 
 644:C:/Users/stapi/OneDrive/Desktop/GD32VW553/GD32VW55X_Wifi_BLE_SDK/GD32VW55x_RELEASE_V1.0.2/MSDK/lwip/libcoap-4.3.4/src\coap_subscribe.c **** /*
 645:C:/Users/stapi/OneDrive/Desktop/GD32VW553/GD32VW55X_Wifi_BLE_SDK/GD32VW55x_RELEASE_V1.0.2/MSDK/lwip/libcoap-4.3.4/src\coap_subscribe.c ****  * This should be called before coap_persist_track_funcs() to prevent
 646:C:/Users/stapi/OneDrive/Desktop/GD32VW553/GD32VW55X_Wifi_BLE_SDK/GD32VW55x_RELEASE_V1.0.2/MSDK/lwip/libcoap-4.3.4/src\coap_subscribe.c ****  * coap_op_obs_cnt_track_observe() getting unnecessarily called.
 647:C:/Users/stapi/OneDrive/Desktop/GD32VW553/GD32VW55X_Wifi_BLE_SDK/GD32VW55x_RELEASE_V1.0.2/MSDK/lwip/libcoap-4.3.4/src\coap_subscribe.c ****  * Should be called after coap_op_dyn_resource_load_disk() to make sure that
 648:C:/Users/stapi/OneDrive/Desktop/GD32VW553/GD32VW55X_Wifi_BLE_SDK/GD32VW55x_RELEASE_V1.0.2/MSDK/lwip/libcoap-4.3.4/src\coap_subscribe.c ****  * all the resources are in the right place.
 649:C:/Users/stapi/OneDrive/Desktop/GD32VW553/GD32VW55X_Wifi_BLE_SDK/GD32VW55x_RELEASE_V1.0.2/MSDK/lwip/libcoap-4.3.4/src\coap_subscribe.c ****  */
 650:C:/Users/stapi/OneDrive/Desktop/GD32VW553/GD32VW55X_Wifi_BLE_SDK/GD32VW55x_RELEASE_V1.0.2/MSDK/lwip/libcoap-4.3.4/src\coap_subscribe.c **** static void
 651:C:/Users/stapi/OneDrive/Desktop/GD32VW553/GD32VW55X_Wifi_BLE_SDK/GD32VW55x_RELEASE_V1.0.2/MSDK/lwip/libcoap-4.3.4/src\coap_subscribe.c **** coap_op_obs_cnt_load_disk(coap_context_t *context) {
 652:C:/Users/stapi/OneDrive/Desktop/GD32VW553/GD32VW55X_Wifi_BLE_SDK/GD32VW55x_RELEASE_V1.0.2/MSDK/lwip/libcoap-4.3.4/src\coap_subscribe.c ****   FILE *fp = fopen((const char *)context->obs_cnt_save_file->s, "r");
 653:C:/Users/stapi/OneDrive/Desktop/GD32VW553/GD32VW55X_Wifi_BLE_SDK/GD32VW55x_RELEASE_V1.0.2/MSDK/lwip/libcoap-4.3.4/src\coap_subscribe.c ****   char buf[1500];
 654:C:/Users/stapi/OneDrive/Desktop/GD32VW553/GD32VW55X_Wifi_BLE_SDK/GD32VW55x_RELEASE_V1.0.2/MSDK/lwip/libcoap-4.3.4/src\coap_subscribe.c **** 
 655:C:/Users/stapi/OneDrive/Desktop/GD32VW553/GD32VW55X_Wifi_BLE_SDK/GD32VW55x_RELEASE_V1.0.2/MSDK/lwip/libcoap-4.3.4/src\coap_subscribe.c ****   if (fp == NULL)
 656:C:/Users/stapi/OneDrive/Desktop/GD32VW553/GD32VW55X_Wifi_BLE_SDK/GD32VW55x_RELEASE_V1.0.2/MSDK/lwip/libcoap-4.3.4/src\coap_subscribe.c ****     return;
 657:C:/Users/stapi/OneDrive/Desktop/GD32VW553/GD32VW55X_Wifi_BLE_SDK/GD32VW55x_RELEASE_V1.0.2/MSDK/lwip/libcoap-4.3.4/src\coap_subscribe.c **** 
 658:C:/Users/stapi/OneDrive/Desktop/GD32VW553/GD32VW55X_Wifi_BLE_SDK/GD32VW55x_RELEASE_V1.0.2/MSDK/lwip/libcoap-4.3.4/src\coap_subscribe.c ****   while (fgets(buf, sizeof(buf), fp) != NULL) {
 659:C:/Users/stapi/OneDrive/Desktop/GD32VW553/GD32VW55X_Wifi_BLE_SDK/GD32VW55x_RELEASE_V1.0.2/MSDK/lwip/libcoap-4.3.4/src\coap_subscribe.c ****     char *cp = strchr(buf, ' ');
 660:C:/Users/stapi/OneDrive/Desktop/GD32VW553/GD32VW55X_Wifi_BLE_SDK/GD32VW55x_RELEASE_V1.0.2/MSDK/lwip/libcoap-4.3.4/src\coap_subscribe.c ****     coap_str_const_t resource_key;
 661:C:/Users/stapi/OneDrive/Desktop/GD32VW553/GD32VW55X_Wifi_BLE_SDK/GD32VW55x_RELEASE_V1.0.2/MSDK/lwip/libcoap-4.3.4/src\coap_subscribe.c ****     uint32_t observe_num;
 662:C:/Users/stapi/OneDrive/Desktop/GD32VW553/GD32VW55X_Wifi_BLE_SDK/GD32VW55x_RELEASE_V1.0.2/MSDK/lwip/libcoap-4.3.4/src\coap_subscribe.c ****     coap_resource_t *r;
 663:C:/Users/stapi/OneDrive/Desktop/GD32VW553/GD32VW55X_Wifi_BLE_SDK/GD32VW55x_RELEASE_V1.0.2/MSDK/lwip/libcoap-4.3.4/src\coap_subscribe.c **** 
 664:C:/Users/stapi/OneDrive/Desktop/GD32VW553/GD32VW55X_Wifi_BLE_SDK/GD32VW55x_RELEASE_V1.0.2/MSDK/lwip/libcoap-4.3.4/src\coap_subscribe.c ****     if (!cp)
 665:C:/Users/stapi/OneDrive/Desktop/GD32VW553/GD32VW55X_Wifi_BLE_SDK/GD32VW55x_RELEASE_V1.0.2/MSDK/lwip/libcoap-4.3.4/src\coap_subscribe.c ****       break;
 666:C:/Users/stapi/OneDrive/Desktop/GD32VW553/GD32VW55X_Wifi_BLE_SDK/GD32VW55x_RELEASE_V1.0.2/MSDK/lwip/libcoap-4.3.4/src\coap_subscribe.c **** 
 667:C:/Users/stapi/OneDrive/Desktop/GD32VW553/GD32VW55X_Wifi_BLE_SDK/GD32VW55x_RELEASE_V1.0.2/MSDK/lwip/libcoap-4.3.4/src\coap_subscribe.c ****     *cp = '\000';
 668:C:/Users/stapi/OneDrive/Desktop/GD32VW553/GD32VW55X_Wifi_BLE_SDK/GD32VW55x_RELEASE_V1.0.2/MSDK/lwip/libcoap-4.3.4/src\coap_subscribe.c ****     cp++;
 669:C:/Users/stapi/OneDrive/Desktop/GD32VW553/GD32VW55X_Wifi_BLE_SDK/GD32VW55x_RELEASE_V1.0.2/MSDK/lwip/libcoap-4.3.4/src\coap_subscribe.c ****     observe_num = atoi(cp);
 670:C:/Users/stapi/OneDrive/Desktop/GD32VW553/GD32VW55X_Wifi_BLE_SDK/GD32VW55x_RELEASE_V1.0.2/MSDK/lwip/libcoap-4.3.4/src\coap_subscribe.c ****     /*
 671:C:/Users/stapi/OneDrive/Desktop/GD32VW553/GD32VW55X_Wifi_BLE_SDK/GD32VW55x_RELEASE_V1.0.2/MSDK/lwip/libcoap-4.3.4/src\coap_subscribe.c ****      * Need to assume 0 .. (context->observe_save_freq-1) have in addition
 672:C:/Users/stapi/OneDrive/Desktop/GD32VW553/GD32VW55X_Wifi_BLE_SDK/GD32VW55x_RELEASE_V1.0.2/MSDK/lwip/libcoap-4.3.4/src\coap_subscribe.c ****      * been sent so need to round up to latest possible send value
 673:C:/Users/stapi/OneDrive/Desktop/GD32VW553/GD32VW55X_Wifi_BLE_SDK/GD32VW55x_RELEASE_V1.0.2/MSDK/lwip/libcoap-4.3.4/src\coap_subscribe.c ****      */
 674:C:/Users/stapi/OneDrive/Desktop/GD32VW553/GD32VW55X_Wifi_BLE_SDK/GD32VW55x_RELEASE_V1.0.2/MSDK/lwip/libcoap-4.3.4/src\coap_subscribe.c ****     observe_num = ((observe_num + context->observe_save_freq) /
 675:C:/Users/stapi/OneDrive/Desktop/GD32VW553/GD32VW55X_Wifi_BLE_SDK/GD32VW55x_RELEASE_V1.0.2/MSDK/lwip/libcoap-4.3.4/src\coap_subscribe.c ****                    context->observe_save_freq) *
 676:C:/Users/stapi/OneDrive/Desktop/GD32VW553/GD32VW55X_Wifi_BLE_SDK/GD32VW55x_RELEASE_V1.0.2/MSDK/lwip/libcoap-4.3.4/src\coap_subscribe.c ****                   context->observe_save_freq - 1;
 677:C:/Users/stapi/OneDrive/Desktop/GD32VW553/GD32VW55X_Wifi_BLE_SDK/GD32VW55x_RELEASE_V1.0.2/MSDK/lwip/libcoap-4.3.4/src\coap_subscribe.c ****     resource_key.s = (uint8_t *)buf;
 678:C:/Users/stapi/OneDrive/Desktop/GD32VW553/GD32VW55X_Wifi_BLE_SDK/GD32VW55x_RELEASE_V1.0.2/MSDK/lwip/libcoap-4.3.4/src\coap_subscribe.c ****     resource_key.length = strlen(buf);
 679:C:/Users/stapi/OneDrive/Desktop/GD32VW553/GD32VW55X_Wifi_BLE_SDK/GD32VW55x_RELEASE_V1.0.2/MSDK/lwip/libcoap-4.3.4/src\coap_subscribe.c ****     r = coap_get_resource_from_uri_path(context, &resource_key);
 680:C:/Users/stapi/OneDrive/Desktop/GD32VW553/GD32VW55X_Wifi_BLE_SDK/GD32VW55x_RELEASE_V1.0.2/MSDK/lwip/libcoap-4.3.4/src\coap_subscribe.c ****     if (r) {
 681:C:/Users/stapi/OneDrive/Desktop/GD32VW553/GD32VW55X_Wifi_BLE_SDK/GD32VW55x_RELEASE_V1.0.2/MSDK/lwip/libcoap-4.3.4/src\coap_subscribe.c ****       coap_log_debug("persist: Initial observe number being updated\n");
 682:C:/Users/stapi/OneDrive/Desktop/GD32VW553/GD32VW55X_Wifi_BLE_SDK/GD32VW55x_RELEASE_V1.0.2/MSDK/lwip/libcoap-4.3.4/src\coap_subscribe.c ****       coap_persist_set_observe_num(r, observe_num);
 683:C:/Users/stapi/OneDrive/Desktop/GD32VW553/GD32VW55X_Wifi_BLE_SDK/GD32VW55x_RELEASE_V1.0.2/MSDK/lwip/libcoap-4.3.4/src\coap_subscribe.c ****     }
 684:C:/Users/stapi/OneDrive/Desktop/GD32VW553/GD32VW55X_Wifi_BLE_SDK/GD32VW55x_RELEASE_V1.0.2/MSDK/lwip/libcoap-4.3.4/src\coap_subscribe.c ****   }
 685:C:/Users/stapi/OneDrive/Desktop/GD32VW553/GD32VW55X_Wifi_BLE_SDK/GD32VW55x_RELEASE_V1.0.2/MSDK/lwip/libcoap-4.3.4/src\coap_subscribe.c ****   fclose(fp);
 686:C:/Users/stapi/OneDrive/Desktop/GD32VW553/GD32VW55X_Wifi_BLE_SDK/GD32VW55x_RELEASE_V1.0.2/MSDK/lwip/libcoap-4.3.4/src\coap_subscribe.c **** }
 687:C:/Users/stapi/OneDrive/Desktop/GD32VW553/GD32VW55X_Wifi_BLE_SDK/GD32VW55x_RELEASE_V1.0.2/MSDK/lwip/libcoap-4.3.4/src\coap_subscribe.c **** 
 688:C:/Users/stapi/OneDrive/Desktop/GD32VW553/GD32VW55X_Wifi_BLE_SDK/GD32VW55x_RELEASE_V1.0.2/MSDK/lwip/libcoap-4.3.4/src\coap_subscribe.c **** /*
 689:C:/Users/stapi/OneDrive/Desktop/GD32VW553/GD32VW55X_Wifi_BLE_SDK/GD32VW55x_RELEASE_V1.0.2/MSDK/lwip/libcoap-4.3.4/src\coap_subscribe.c ****  * Called when the observe value of a resource has been changed, but limited
 690:C:/Users/stapi/OneDrive/Desktop/GD32VW553/GD32VW55X_Wifi_BLE_SDK/GD32VW55x_RELEASE_V1.0.2/MSDK/lwip/libcoap-4.3.4/src\coap_subscribe.c ****  * to be called every context->context->observe_save_freq to reduce update
 691:C:/Users/stapi/OneDrive/Desktop/GD32VW553/GD32VW55X_Wifi_BLE_SDK/GD32VW55x_RELEASE_V1.0.2/MSDK/lwip/libcoap-4.3.4/src\coap_subscribe.c ****  * overheads.
 692:C:/Users/stapi/OneDrive/Desktop/GD32VW553/GD32VW55X_Wifi_BLE_SDK/GD32VW55x_RELEASE_V1.0.2/MSDK/lwip/libcoap-4.3.4/src\coap_subscribe.c ****  */
 693:C:/Users/stapi/OneDrive/Desktop/GD32VW553/GD32VW55X_Wifi_BLE_SDK/GD32VW55x_RELEASE_V1.0.2/MSDK/lwip/libcoap-4.3.4/src\coap_subscribe.c **** static int
 694:C:/Users/stapi/OneDrive/Desktop/GD32VW553/GD32VW55X_Wifi_BLE_SDK/GD32VW55x_RELEASE_V1.0.2/MSDK/lwip/libcoap-4.3.4/src\coap_subscribe.c **** coap_op_obs_cnt_track_observe(coap_context_t *context,
 695:C:/Users/stapi/OneDrive/Desktop/GD32VW553/GD32VW55X_Wifi_BLE_SDK/GD32VW55x_RELEASE_V1.0.2/MSDK/lwip/libcoap-4.3.4/src\coap_subscribe.c ****                               coap_str_const_t *resource_name,
 696:C:/Users/stapi/OneDrive/Desktop/GD32VW553/GD32VW55X_Wifi_BLE_SDK/GD32VW55x_RELEASE_V1.0.2/MSDK/lwip/libcoap-4.3.4/src\coap_subscribe.c ****                               uint32_t n_observe_num,
 697:C:/Users/stapi/OneDrive/Desktop/GD32VW553/GD32VW55X_Wifi_BLE_SDK/GD32VW55x_RELEASE_V1.0.2/MSDK/lwip/libcoap-4.3.4/src\coap_subscribe.c ****                               void *user_data) {
 698:C:/Users/stapi/OneDrive/Desktop/GD32VW553/GD32VW55X_Wifi_BLE_SDK/GD32VW55x_RELEASE_V1.0.2/MSDK/lwip/libcoap-4.3.4/src\coap_subscribe.c ****   FILE *fp_orig = fopen((const char *)context->obs_cnt_save_file->s, "r");
 699:C:/Users/stapi/OneDrive/Desktop/GD32VW553/GD32VW55X_Wifi_BLE_SDK/GD32VW55x_RELEASE_V1.0.2/MSDK/lwip/libcoap-4.3.4/src\coap_subscribe.c ****   FILE *fp_new = NULL;
 700:C:/Users/stapi/OneDrive/Desktop/GD32VW553/GD32VW55X_Wifi_BLE_SDK/GD32VW55x_RELEASE_V1.0.2/MSDK/lwip/libcoap-4.3.4/src\coap_subscribe.c ****   char buf[1500];
 701:C:/Users/stapi/OneDrive/Desktop/GD32VW553/GD32VW55X_Wifi_BLE_SDK/GD32VW55x_RELEASE_V1.0.2/MSDK/lwip/libcoap-4.3.4/src\coap_subscribe.c ****   char *new = NULL;
 702:C:/Users/stapi/OneDrive/Desktop/GD32VW553/GD32VW55X_Wifi_BLE_SDK/GD32VW55x_RELEASE_V1.0.2/MSDK/lwip/libcoap-4.3.4/src\coap_subscribe.c **** 
 703:C:/Users/stapi/OneDrive/Desktop/GD32VW553/GD32VW55X_Wifi_BLE_SDK/GD32VW55x_RELEASE_V1.0.2/MSDK/lwip/libcoap-4.3.4/src\coap_subscribe.c ****   (void)user_data;
 704:C:/Users/stapi/OneDrive/Desktop/GD32VW553/GD32VW55X_Wifi_BLE_SDK/GD32VW55x_RELEASE_V1.0.2/MSDK/lwip/libcoap-4.3.4/src\coap_subscribe.c **** 
 705:C:/Users/stapi/OneDrive/Desktop/GD32VW553/GD32VW55X_Wifi_BLE_SDK/GD32VW55x_RELEASE_V1.0.2/MSDK/lwip/libcoap-4.3.4/src\coap_subscribe.c ****   new = coap_malloc_type(COAP_STRING, context->obs_cnt_save_file->length + 5);
 706:C:/Users/stapi/OneDrive/Desktop/GD32VW553/GD32VW55X_Wifi_BLE_SDK/GD32VW55x_RELEASE_V1.0.2/MSDK/lwip/libcoap-4.3.4/src\coap_subscribe.c ****   if (!new)
 707:C:/Users/stapi/OneDrive/Desktop/GD32VW553/GD32VW55X_Wifi_BLE_SDK/GD32VW55x_RELEASE_V1.0.2/MSDK/lwip/libcoap-4.3.4/src\coap_subscribe.c ****     goto fail;
 708:C:/Users/stapi/OneDrive/Desktop/GD32VW553/GD32VW55X_Wifi_BLE_SDK/GD32VW55x_RELEASE_V1.0.2/MSDK/lwip/libcoap-4.3.4/src\coap_subscribe.c **** 
 709:C:/Users/stapi/OneDrive/Desktop/GD32VW553/GD32VW55X_Wifi_BLE_SDK/GD32VW55x_RELEASE_V1.0.2/MSDK/lwip/libcoap-4.3.4/src\coap_subscribe.c ****   strcpy(new, (const char *)context->obs_cnt_save_file->s);
 710:C:/Users/stapi/OneDrive/Desktop/GD32VW553/GD32VW55X_Wifi_BLE_SDK/GD32VW55x_RELEASE_V1.0.2/MSDK/lwip/libcoap-4.3.4/src\coap_subscribe.c ****   strcat(new, ".tmp");
 711:C:/Users/stapi/OneDrive/Desktop/GD32VW553/GD32VW55X_Wifi_BLE_SDK/GD32VW55x_RELEASE_V1.0.2/MSDK/lwip/libcoap-4.3.4/src\coap_subscribe.c ****   fp_new = fopen(new, "w+");
 712:C:/Users/stapi/OneDrive/Desktop/GD32VW553/GD32VW55X_Wifi_BLE_SDK/GD32VW55x_RELEASE_V1.0.2/MSDK/lwip/libcoap-4.3.4/src\coap_subscribe.c ****   if (fp_new == NULL)
 713:C:/Users/stapi/OneDrive/Desktop/GD32VW553/GD32VW55X_Wifi_BLE_SDK/GD32VW55x_RELEASE_V1.0.2/MSDK/lwip/libcoap-4.3.4/src\coap_subscribe.c ****     goto fail;
 714:C:/Users/stapi/OneDrive/Desktop/GD32VW553/GD32VW55X_Wifi_BLE_SDK/GD32VW55x_RELEASE_V1.0.2/MSDK/lwip/libcoap-4.3.4/src\coap_subscribe.c **** 
 715:C:/Users/stapi/OneDrive/Desktop/GD32VW553/GD32VW55X_Wifi_BLE_SDK/GD32VW55x_RELEASE_V1.0.2/MSDK/lwip/libcoap-4.3.4/src\coap_subscribe.c ****   /* Go through and locate resource entry to update */
 716:C:/Users/stapi/OneDrive/Desktop/GD32VW553/GD32VW55X_Wifi_BLE_SDK/GD32VW55x_RELEASE_V1.0.2/MSDK/lwip/libcoap-4.3.4/src\coap_subscribe.c ****   while (fp_orig && fgets(buf, sizeof(buf), fp_orig) != NULL) {
 717:C:/Users/stapi/OneDrive/Desktop/GD32VW553/GD32VW55X_Wifi_BLE_SDK/GD32VW55x_RELEASE_V1.0.2/MSDK/lwip/libcoap-4.3.4/src\coap_subscribe.c ****     char *cp = strchr(buf, ' ');
 718:C:/Users/stapi/OneDrive/Desktop/GD32VW553/GD32VW55X_Wifi_BLE_SDK/GD32VW55x_RELEASE_V1.0.2/MSDK/lwip/libcoap-4.3.4/src\coap_subscribe.c ****     uint32_t observe_num;
 719:C:/Users/stapi/OneDrive/Desktop/GD32VW553/GD32VW55X_Wifi_BLE_SDK/GD32VW55x_RELEASE_V1.0.2/MSDK/lwip/libcoap-4.3.4/src\coap_subscribe.c ****     coap_bin_const_t resource_key;
 720:C:/Users/stapi/OneDrive/Desktop/GD32VW553/GD32VW55X_Wifi_BLE_SDK/GD32VW55x_RELEASE_V1.0.2/MSDK/lwip/libcoap-4.3.4/src\coap_subscribe.c **** 
 721:C:/Users/stapi/OneDrive/Desktop/GD32VW553/GD32VW55X_Wifi_BLE_SDK/GD32VW55x_RELEASE_V1.0.2/MSDK/lwip/libcoap-4.3.4/src\coap_subscribe.c ****     if (!cp)
 722:C:/Users/stapi/OneDrive/Desktop/GD32VW553/GD32VW55X_Wifi_BLE_SDK/GD32VW55x_RELEASE_V1.0.2/MSDK/lwip/libcoap-4.3.4/src\coap_subscribe.c ****       break;
 723:C:/Users/stapi/OneDrive/Desktop/GD32VW553/GD32VW55X_Wifi_BLE_SDK/GD32VW55x_RELEASE_V1.0.2/MSDK/lwip/libcoap-4.3.4/src\coap_subscribe.c **** 
 724:C:/Users/stapi/OneDrive/Desktop/GD32VW553/GD32VW55X_Wifi_BLE_SDK/GD32VW55x_RELEASE_V1.0.2/MSDK/lwip/libcoap-4.3.4/src\coap_subscribe.c ****     *cp = '\000';
 725:C:/Users/stapi/OneDrive/Desktop/GD32VW553/GD32VW55X_Wifi_BLE_SDK/GD32VW55x_RELEASE_V1.0.2/MSDK/lwip/libcoap-4.3.4/src\coap_subscribe.c ****     cp++;
 726:C:/Users/stapi/OneDrive/Desktop/GD32VW553/GD32VW55X_Wifi_BLE_SDK/GD32VW55x_RELEASE_V1.0.2/MSDK/lwip/libcoap-4.3.4/src\coap_subscribe.c ****     observe_num = atoi(cp);
 727:C:/Users/stapi/OneDrive/Desktop/GD32VW553/GD32VW55X_Wifi_BLE_SDK/GD32VW55x_RELEASE_V1.0.2/MSDK/lwip/libcoap-4.3.4/src\coap_subscribe.c ****     resource_key.s = (uint8_t *)buf;
 728:C:/Users/stapi/OneDrive/Desktop/GD32VW553/GD32VW55X_Wifi_BLE_SDK/GD32VW55x_RELEASE_V1.0.2/MSDK/lwip/libcoap-4.3.4/src\coap_subscribe.c ****     resource_key.length = strlen(buf);
 729:C:/Users/stapi/OneDrive/Desktop/GD32VW553/GD32VW55X_Wifi_BLE_SDK/GD32VW55x_RELEASE_V1.0.2/MSDK/lwip/libcoap-4.3.4/src\coap_subscribe.c ****     if (!coap_binary_equal(resource_name, &resource_key)) {
 730:C:/Users/stapi/OneDrive/Desktop/GD32VW553/GD32VW55X_Wifi_BLE_SDK/GD32VW55x_RELEASE_V1.0.2/MSDK/lwip/libcoap-4.3.4/src\coap_subscribe.c ****       if (fprintf(fp_new, "%s %u\n", resource_key.s, observe_num) < 0)
 731:C:/Users/stapi/OneDrive/Desktop/GD32VW553/GD32VW55X_Wifi_BLE_SDK/GD32VW55x_RELEASE_V1.0.2/MSDK/lwip/libcoap-4.3.4/src\coap_subscribe.c ****         goto fail;
 732:C:/Users/stapi/OneDrive/Desktop/GD32VW553/GD32VW55X_Wifi_BLE_SDK/GD32VW55x_RELEASE_V1.0.2/MSDK/lwip/libcoap-4.3.4/src\coap_subscribe.c ****     }
 733:C:/Users/stapi/OneDrive/Desktop/GD32VW553/GD32VW55X_Wifi_BLE_SDK/GD32VW55x_RELEASE_V1.0.2/MSDK/lwip/libcoap-4.3.4/src\coap_subscribe.c ****   }
 734:C:/Users/stapi/OneDrive/Desktop/GD32VW553/GD32VW55X_Wifi_BLE_SDK/GD32VW55x_RELEASE_V1.0.2/MSDK/lwip/libcoap-4.3.4/src\coap_subscribe.c ****   if (fprintf(fp_new, "%s %u\n", resource_name->s, n_observe_num) < 0)
 735:C:/Users/stapi/OneDrive/Desktop/GD32VW553/GD32VW55X_Wifi_BLE_SDK/GD32VW55x_RELEASE_V1.0.2/MSDK/lwip/libcoap-4.3.4/src\coap_subscribe.c ****     goto fail;
 736:C:/Users/stapi/OneDrive/Desktop/GD32VW553/GD32VW55X_Wifi_BLE_SDK/GD32VW55x_RELEASE_V1.0.2/MSDK/lwip/libcoap-4.3.4/src\coap_subscribe.c ****   if (fflush(fp_new) == EOF)
 737:C:/Users/stapi/OneDrive/Desktop/GD32VW553/GD32VW55X_Wifi_BLE_SDK/GD32VW55x_RELEASE_V1.0.2/MSDK/lwip/libcoap-4.3.4/src\coap_subscribe.c ****     goto fail;
 738:C:/Users/stapi/OneDrive/Desktop/GD32VW553/GD32VW55X_Wifi_BLE_SDK/GD32VW55x_RELEASE_V1.0.2/MSDK/lwip/libcoap-4.3.4/src\coap_subscribe.c ****   fclose(fp_new);
 739:C:/Users/stapi/OneDrive/Desktop/GD32VW553/GD32VW55X_Wifi_BLE_SDK/GD32VW55x_RELEASE_V1.0.2/MSDK/lwip/libcoap-4.3.4/src\coap_subscribe.c ****   if (fp_orig)
 740:C:/Users/stapi/OneDrive/Desktop/GD32VW553/GD32VW55X_Wifi_BLE_SDK/GD32VW55x_RELEASE_V1.0.2/MSDK/lwip/libcoap-4.3.4/src\coap_subscribe.c ****     fclose(fp_orig);
 741:C:/Users/stapi/OneDrive/Desktop/GD32VW553/GD32VW55X_Wifi_BLE_SDK/GD32VW55x_RELEASE_V1.0.2/MSDK/lwip/libcoap-4.3.4/src\coap_subscribe.c ****   /* Either old or new is in place */
 742:C:/Users/stapi/OneDrive/Desktop/GD32VW553/GD32VW55X_Wifi_BLE_SDK/GD32VW55x_RELEASE_V1.0.2/MSDK/lwip/libcoap-4.3.4/src\coap_subscribe.c ****   (void)rename(new, (const char *)context->obs_cnt_save_file->s);
 743:C:/Users/stapi/OneDrive/Desktop/GD32VW553/GD32VW55X_Wifi_BLE_SDK/GD32VW55x_RELEASE_V1.0.2/MSDK/lwip/libcoap-4.3.4/src\coap_subscribe.c ****   coap_free_type(COAP_STRING, new);
 744:C:/Users/stapi/OneDrive/Desktop/GD32VW553/GD32VW55X_Wifi_BLE_SDK/GD32VW55x_RELEASE_V1.0.2/MSDK/lwip/libcoap-4.3.4/src\coap_subscribe.c ****   return 1;
 745:C:/Users/stapi/OneDrive/Desktop/GD32VW553/GD32VW55X_Wifi_BLE_SDK/GD32VW55x_RELEASE_V1.0.2/MSDK/lwip/libcoap-4.3.4/src\coap_subscribe.c **** 
 746:C:/Users/stapi/OneDrive/Desktop/GD32VW553/GD32VW55X_Wifi_BLE_SDK/GD32VW55x_RELEASE_V1.0.2/MSDK/lwip/libcoap-4.3.4/src\coap_subscribe.c **** fail:
 747:C:/Users/stapi/OneDrive/Desktop/GD32VW553/GD32VW55X_Wifi_BLE_SDK/GD32VW55x_RELEASE_V1.0.2/MSDK/lwip/libcoap-4.3.4/src\coap_subscribe.c ****   if (fp_new)
 748:C:/Users/stapi/OneDrive/Desktop/GD32VW553/GD32VW55X_Wifi_BLE_SDK/GD32VW55x_RELEASE_V1.0.2/MSDK/lwip/libcoap-4.3.4/src\coap_subscribe.c ****     fclose(fp_new);
 749:C:/Users/stapi/OneDrive/Desktop/GD32VW553/GD32VW55X_Wifi_BLE_SDK/GD32VW55x_RELEASE_V1.0.2/MSDK/lwip/libcoap-4.3.4/src\coap_subscribe.c ****   if (fp_orig)
 750:C:/Users/stapi/OneDrive/Desktop/GD32VW553/GD32VW55X_Wifi_BLE_SDK/GD32VW55x_RELEASE_V1.0.2/MSDK/lwip/libcoap-4.3.4/src\coap_subscribe.c ****     fclose(fp_orig);
 751:C:/Users/stapi/OneDrive/Desktop/GD32VW553/GD32VW55X_Wifi_BLE_SDK/GD32VW55x_RELEASE_V1.0.2/MSDK/lwip/libcoap-4.3.4/src\coap_subscribe.c ****   if (new) {
 752:C:/Users/stapi/OneDrive/Desktop/GD32VW553/GD32VW55X_Wifi_BLE_SDK/GD32VW55x_RELEASE_V1.0.2/MSDK/lwip/libcoap-4.3.4/src\coap_subscribe.c ****     (void)remove(new);
 753:C:/Users/stapi/OneDrive/Desktop/GD32VW553/GD32VW55X_Wifi_BLE_SDK/GD32VW55x_RELEASE_V1.0.2/MSDK/lwip/libcoap-4.3.4/src\coap_subscribe.c ****   }
 754:C:/Users/stapi/OneDrive/Desktop/GD32VW553/GD32VW55X_Wifi_BLE_SDK/GD32VW55x_RELEASE_V1.0.2/MSDK/lwip/libcoap-4.3.4/src\coap_subscribe.c ****   coap_free_type(COAP_STRING, new);
 755:C:/Users/stapi/OneDrive/Desktop/GD32VW553/GD32VW55X_Wifi_BLE_SDK/GD32VW55x_RELEASE_V1.0.2/MSDK/lwip/libcoap-4.3.4/src\coap_subscribe.c ****   return 0;
 756:C:/Users/stapi/OneDrive/Desktop/GD32VW553/GD32VW55X_Wifi_BLE_SDK/GD32VW55x_RELEASE_V1.0.2/MSDK/lwip/libcoap-4.3.4/src\coap_subscribe.c **** }
 757:C:/Users/stapi/OneDrive/Desktop/GD32VW553/GD32VW55X_Wifi_BLE_SDK/GD32VW55x_RELEASE_V1.0.2/MSDK/lwip/libcoap-4.3.4/src\coap_subscribe.c **** 
 758:C:/Users/stapi/OneDrive/Desktop/GD32VW553/GD32VW55X_Wifi_BLE_SDK/GD32VW55x_RELEASE_V1.0.2/MSDK/lwip/libcoap-4.3.4/src\coap_subscribe.c **** /*
 759:C:/Users/stapi/OneDrive/Desktop/GD32VW553/GD32VW55X_Wifi_BLE_SDK/GD32VW55x_RELEASE_V1.0.2/MSDK/lwip/libcoap-4.3.4/src\coap_subscribe.c ****  * Called when a resource has been deleted.
 760:C:/Users/stapi/OneDrive/Desktop/GD32VW553/GD32VW55X_Wifi_BLE_SDK/GD32VW55x_RELEASE_V1.0.2/MSDK/lwip/libcoap-4.3.4/src\coap_subscribe.c ****  */
 761:C:/Users/stapi/OneDrive/Desktop/GD32VW553/GD32VW55X_Wifi_BLE_SDK/GD32VW55x_RELEASE_V1.0.2/MSDK/lwip/libcoap-4.3.4/src\coap_subscribe.c **** static int
 762:C:/Users/stapi/OneDrive/Desktop/GD32VW553/GD32VW55X_Wifi_BLE_SDK/GD32VW55x_RELEASE_V1.0.2/MSDK/lwip/libcoap-4.3.4/src\coap_subscribe.c **** coap_op_obs_cnt_deleted(coap_context_t *context,
 763:C:/Users/stapi/OneDrive/Desktop/GD32VW553/GD32VW55X_Wifi_BLE_SDK/GD32VW55x_RELEASE_V1.0.2/MSDK/lwip/libcoap-4.3.4/src\coap_subscribe.c ****                         coap_str_const_t *resource_name) {
 764:C:/Users/stapi/OneDrive/Desktop/GD32VW553/GD32VW55X_Wifi_BLE_SDK/GD32VW55x_RELEASE_V1.0.2/MSDK/lwip/libcoap-4.3.4/src\coap_subscribe.c ****   FILE *fp_orig = fopen((const char *)context->obs_cnt_save_file->s, "r");
 765:C:/Users/stapi/OneDrive/Desktop/GD32VW553/GD32VW55X_Wifi_BLE_SDK/GD32VW55x_RELEASE_V1.0.2/MSDK/lwip/libcoap-4.3.4/src\coap_subscribe.c ****   FILE *fp_new = NULL;
 766:C:/Users/stapi/OneDrive/Desktop/GD32VW553/GD32VW55X_Wifi_BLE_SDK/GD32VW55x_RELEASE_V1.0.2/MSDK/lwip/libcoap-4.3.4/src\coap_subscribe.c ****   char buf[1500];
 767:C:/Users/stapi/OneDrive/Desktop/GD32VW553/GD32VW55X_Wifi_BLE_SDK/GD32VW55x_RELEASE_V1.0.2/MSDK/lwip/libcoap-4.3.4/src\coap_subscribe.c ****   char *new = NULL;
 768:C:/Users/stapi/OneDrive/Desktop/GD32VW553/GD32VW55X_Wifi_BLE_SDK/GD32VW55x_RELEASE_V1.0.2/MSDK/lwip/libcoap-4.3.4/src\coap_subscribe.c **** 
 769:C:/Users/stapi/OneDrive/Desktop/GD32VW553/GD32VW55X_Wifi_BLE_SDK/GD32VW55x_RELEASE_V1.0.2/MSDK/lwip/libcoap-4.3.4/src\coap_subscribe.c ****   if (fp_orig == NULL)
 770:C:/Users/stapi/OneDrive/Desktop/GD32VW553/GD32VW55X_Wifi_BLE_SDK/GD32VW55x_RELEASE_V1.0.2/MSDK/lwip/libcoap-4.3.4/src\coap_subscribe.c ****     goto fail;
 771:C:/Users/stapi/OneDrive/Desktop/GD32VW553/GD32VW55X_Wifi_BLE_SDK/GD32VW55x_RELEASE_V1.0.2/MSDK/lwip/libcoap-4.3.4/src\coap_subscribe.c ****   new = coap_malloc_type(COAP_STRING, context->obs_cnt_save_file->length + 5);
 772:C:/Users/stapi/OneDrive/Desktop/GD32VW553/GD32VW55X_Wifi_BLE_SDK/GD32VW55x_RELEASE_V1.0.2/MSDK/lwip/libcoap-4.3.4/src\coap_subscribe.c ****   if (!new)
 773:C:/Users/stapi/OneDrive/Desktop/GD32VW553/GD32VW55X_Wifi_BLE_SDK/GD32VW55x_RELEASE_V1.0.2/MSDK/lwip/libcoap-4.3.4/src\coap_subscribe.c ****     goto fail;
 774:C:/Users/stapi/OneDrive/Desktop/GD32VW553/GD32VW55X_Wifi_BLE_SDK/GD32VW55x_RELEASE_V1.0.2/MSDK/lwip/libcoap-4.3.4/src\coap_subscribe.c **** 
 775:C:/Users/stapi/OneDrive/Desktop/GD32VW553/GD32VW55X_Wifi_BLE_SDK/GD32VW55x_RELEASE_V1.0.2/MSDK/lwip/libcoap-4.3.4/src\coap_subscribe.c ****   strcpy(new, (const char *)context->obs_cnt_save_file->s);
 776:C:/Users/stapi/OneDrive/Desktop/GD32VW553/GD32VW55X_Wifi_BLE_SDK/GD32VW55x_RELEASE_V1.0.2/MSDK/lwip/libcoap-4.3.4/src\coap_subscribe.c ****   strcat(new, ".tmp");
 777:C:/Users/stapi/OneDrive/Desktop/GD32VW553/GD32VW55X_Wifi_BLE_SDK/GD32VW55x_RELEASE_V1.0.2/MSDK/lwip/libcoap-4.3.4/src\coap_subscribe.c ****   fp_new = fopen(new, "w+");
 778:C:/Users/stapi/OneDrive/Desktop/GD32VW553/GD32VW55X_Wifi_BLE_SDK/GD32VW55x_RELEASE_V1.0.2/MSDK/lwip/libcoap-4.3.4/src\coap_subscribe.c ****   if (fp_new == NULL)
 779:C:/Users/stapi/OneDrive/Desktop/GD32VW553/GD32VW55X_Wifi_BLE_SDK/GD32VW55x_RELEASE_V1.0.2/MSDK/lwip/libcoap-4.3.4/src\coap_subscribe.c ****     goto fail;
 780:C:/Users/stapi/OneDrive/Desktop/GD32VW553/GD32VW55X_Wifi_BLE_SDK/GD32VW55x_RELEASE_V1.0.2/MSDK/lwip/libcoap-4.3.4/src\coap_subscribe.c **** 
 781:C:/Users/stapi/OneDrive/Desktop/GD32VW553/GD32VW55X_Wifi_BLE_SDK/GD32VW55x_RELEASE_V1.0.2/MSDK/lwip/libcoap-4.3.4/src\coap_subscribe.c ****   /* Go through and locate resource entry to delete */
 782:C:/Users/stapi/OneDrive/Desktop/GD32VW553/GD32VW55X_Wifi_BLE_SDK/GD32VW55x_RELEASE_V1.0.2/MSDK/lwip/libcoap-4.3.4/src\coap_subscribe.c ****   while (fgets(buf, sizeof(buf), fp_orig) != NULL) {
 783:C:/Users/stapi/OneDrive/Desktop/GD32VW553/GD32VW55X_Wifi_BLE_SDK/GD32VW55x_RELEASE_V1.0.2/MSDK/lwip/libcoap-4.3.4/src\coap_subscribe.c ****     char *cp = strchr(buf, ' ');
 784:C:/Users/stapi/OneDrive/Desktop/GD32VW553/GD32VW55X_Wifi_BLE_SDK/GD32VW55x_RELEASE_V1.0.2/MSDK/lwip/libcoap-4.3.4/src\coap_subscribe.c ****     uint32_t observe_num;
 785:C:/Users/stapi/OneDrive/Desktop/GD32VW553/GD32VW55X_Wifi_BLE_SDK/GD32VW55x_RELEASE_V1.0.2/MSDK/lwip/libcoap-4.3.4/src\coap_subscribe.c ****     coap_bin_const_t resource_key;
 786:C:/Users/stapi/OneDrive/Desktop/GD32VW553/GD32VW55X_Wifi_BLE_SDK/GD32VW55x_RELEASE_V1.0.2/MSDK/lwip/libcoap-4.3.4/src\coap_subscribe.c **** 
 787:C:/Users/stapi/OneDrive/Desktop/GD32VW553/GD32VW55X_Wifi_BLE_SDK/GD32VW55x_RELEASE_V1.0.2/MSDK/lwip/libcoap-4.3.4/src\coap_subscribe.c ****     if (!cp)
 788:C:/Users/stapi/OneDrive/Desktop/GD32VW553/GD32VW55X_Wifi_BLE_SDK/GD32VW55x_RELEASE_V1.0.2/MSDK/lwip/libcoap-4.3.4/src\coap_subscribe.c ****       break;
 789:C:/Users/stapi/OneDrive/Desktop/GD32VW553/GD32VW55X_Wifi_BLE_SDK/GD32VW55x_RELEASE_V1.0.2/MSDK/lwip/libcoap-4.3.4/src\coap_subscribe.c **** 
 790:C:/Users/stapi/OneDrive/Desktop/GD32VW553/GD32VW55X_Wifi_BLE_SDK/GD32VW55x_RELEASE_V1.0.2/MSDK/lwip/libcoap-4.3.4/src\coap_subscribe.c ****     *cp = '\000';
 791:C:/Users/stapi/OneDrive/Desktop/GD32VW553/GD32VW55X_Wifi_BLE_SDK/GD32VW55x_RELEASE_V1.0.2/MSDK/lwip/libcoap-4.3.4/src\coap_subscribe.c ****     cp++;
 792:C:/Users/stapi/OneDrive/Desktop/GD32VW553/GD32VW55X_Wifi_BLE_SDK/GD32VW55x_RELEASE_V1.0.2/MSDK/lwip/libcoap-4.3.4/src\coap_subscribe.c ****     observe_num = atoi(cp);
 793:C:/Users/stapi/OneDrive/Desktop/GD32VW553/GD32VW55X_Wifi_BLE_SDK/GD32VW55x_RELEASE_V1.0.2/MSDK/lwip/libcoap-4.3.4/src\coap_subscribe.c ****     resource_key.s = (uint8_t *)buf;
 794:C:/Users/stapi/OneDrive/Desktop/GD32VW553/GD32VW55X_Wifi_BLE_SDK/GD32VW55x_RELEASE_V1.0.2/MSDK/lwip/libcoap-4.3.4/src\coap_subscribe.c ****     resource_key.length = strlen(buf);
 795:C:/Users/stapi/OneDrive/Desktop/GD32VW553/GD32VW55X_Wifi_BLE_SDK/GD32VW55x_RELEASE_V1.0.2/MSDK/lwip/libcoap-4.3.4/src\coap_subscribe.c ****     if (!coap_binary_equal(resource_name, &resource_key)) {
 796:C:/Users/stapi/OneDrive/Desktop/GD32VW553/GD32VW55X_Wifi_BLE_SDK/GD32VW55x_RELEASE_V1.0.2/MSDK/lwip/libcoap-4.3.4/src\coap_subscribe.c ****       if (fprintf(fp_new, "%s %u\n", resource_key.s, observe_num) < 0)
 797:C:/Users/stapi/OneDrive/Desktop/GD32VW553/GD32VW55X_Wifi_BLE_SDK/GD32VW55x_RELEASE_V1.0.2/MSDK/lwip/libcoap-4.3.4/src\coap_subscribe.c ****         goto fail;
 798:C:/Users/stapi/OneDrive/Desktop/GD32VW553/GD32VW55X_Wifi_BLE_SDK/GD32VW55x_RELEASE_V1.0.2/MSDK/lwip/libcoap-4.3.4/src\coap_subscribe.c ****     }
 799:C:/Users/stapi/OneDrive/Desktop/GD32VW553/GD32VW55X_Wifi_BLE_SDK/GD32VW55x_RELEASE_V1.0.2/MSDK/lwip/libcoap-4.3.4/src\coap_subscribe.c ****   }
 800:C:/Users/stapi/OneDrive/Desktop/GD32VW553/GD32VW55X_Wifi_BLE_SDK/GD32VW55x_RELEASE_V1.0.2/MSDK/lwip/libcoap-4.3.4/src\coap_subscribe.c ****   if (fflush(fp_new) == EOF)
 801:C:/Users/stapi/OneDrive/Desktop/GD32VW553/GD32VW55X_Wifi_BLE_SDK/GD32VW55x_RELEASE_V1.0.2/MSDK/lwip/libcoap-4.3.4/src\coap_subscribe.c ****     goto fail;
 802:C:/Users/stapi/OneDrive/Desktop/GD32VW553/GD32VW55X_Wifi_BLE_SDK/GD32VW55x_RELEASE_V1.0.2/MSDK/lwip/libcoap-4.3.4/src\coap_subscribe.c ****   fclose(fp_new);
 803:C:/Users/stapi/OneDrive/Desktop/GD32VW553/GD32VW55X_Wifi_BLE_SDK/GD32VW55x_RELEASE_V1.0.2/MSDK/lwip/libcoap-4.3.4/src\coap_subscribe.c ****   fclose(fp_orig);
 804:C:/Users/stapi/OneDrive/Desktop/GD32VW553/GD32VW55X_Wifi_BLE_SDK/GD32VW55x_RELEASE_V1.0.2/MSDK/lwip/libcoap-4.3.4/src\coap_subscribe.c ****   /* Either old or new is in place */
 805:C:/Users/stapi/OneDrive/Desktop/GD32VW553/GD32VW55X_Wifi_BLE_SDK/GD32VW55x_RELEASE_V1.0.2/MSDK/lwip/libcoap-4.3.4/src\coap_subscribe.c ****   (void)rename(new, (const char *)context->obs_cnt_save_file->s);
 806:C:/Users/stapi/OneDrive/Desktop/GD32VW553/GD32VW55X_Wifi_BLE_SDK/GD32VW55x_RELEASE_V1.0.2/MSDK/lwip/libcoap-4.3.4/src\coap_subscribe.c ****   coap_free_type(COAP_STRING, new);
 807:C:/Users/stapi/OneDrive/Desktop/GD32VW553/GD32VW55X_Wifi_BLE_SDK/GD32VW55x_RELEASE_V1.0.2/MSDK/lwip/libcoap-4.3.4/src\coap_subscribe.c ****   return 1;
 808:C:/Users/stapi/OneDrive/Desktop/GD32VW553/GD32VW55X_Wifi_BLE_SDK/GD32VW55x_RELEASE_V1.0.2/MSDK/lwip/libcoap-4.3.4/src\coap_subscribe.c **** 
 809:C:/Users/stapi/OneDrive/Desktop/GD32VW553/GD32VW55X_Wifi_BLE_SDK/GD32VW55x_RELEASE_V1.0.2/MSDK/lwip/libcoap-4.3.4/src\coap_subscribe.c **** fail:
 810:C:/Users/stapi/OneDrive/Desktop/GD32VW553/GD32VW55X_Wifi_BLE_SDK/GD32VW55x_RELEASE_V1.0.2/MSDK/lwip/libcoap-4.3.4/src\coap_subscribe.c ****   if (fp_new)
 811:C:/Users/stapi/OneDrive/Desktop/GD32VW553/GD32VW55X_Wifi_BLE_SDK/GD32VW55x_RELEASE_V1.0.2/MSDK/lwip/libcoap-4.3.4/src\coap_subscribe.c ****     fclose(fp_new);
 812:C:/Users/stapi/OneDrive/Desktop/GD32VW553/GD32VW55X_Wifi_BLE_SDK/GD32VW55x_RELEASE_V1.0.2/MSDK/lwip/libcoap-4.3.4/src\coap_subscribe.c ****   if (fp_orig)
 813:C:/Users/stapi/OneDrive/Desktop/GD32VW553/GD32VW55X_Wifi_BLE_SDK/GD32VW55x_RELEASE_V1.0.2/MSDK/lwip/libcoap-4.3.4/src\coap_subscribe.c ****     fclose(fp_orig);
 814:C:/Users/stapi/OneDrive/Desktop/GD32VW553/GD32VW55X_Wifi_BLE_SDK/GD32VW55x_RELEASE_V1.0.2/MSDK/lwip/libcoap-4.3.4/src\coap_subscribe.c ****   if (new) {
 815:C:/Users/stapi/OneDrive/Desktop/GD32VW553/GD32VW55X_Wifi_BLE_SDK/GD32VW55x_RELEASE_V1.0.2/MSDK/lwip/libcoap-4.3.4/src\coap_subscribe.c ****     (void)remove(new);
 816:C:/Users/stapi/OneDrive/Desktop/GD32VW553/GD32VW55X_Wifi_BLE_SDK/GD32VW55x_RELEASE_V1.0.2/MSDK/lwip/libcoap-4.3.4/src\coap_subscribe.c ****   }
 817:C:/Users/stapi/OneDrive/Desktop/GD32VW553/GD32VW55X_Wifi_BLE_SDK/GD32VW55x_RELEASE_V1.0.2/MSDK/lwip/libcoap-4.3.4/src\coap_subscribe.c ****   coap_free_type(COAP_STRING, new);
 818:C:/Users/stapi/OneDrive/Desktop/GD32VW553/GD32VW55X_Wifi_BLE_SDK/GD32VW55x_RELEASE_V1.0.2/MSDK/lwip/libcoap-4.3.4/src\coap_subscribe.c ****   return 0;
 819:C:/Users/stapi/OneDrive/Desktop/GD32VW553/GD32VW55X_Wifi_BLE_SDK/GD32VW55x_RELEASE_V1.0.2/MSDK/lwip/libcoap-4.3.4/src\coap_subscribe.c **** }
 820:C:/Users/stapi/OneDrive/Desktop/GD32VW553/GD32VW55X_Wifi_BLE_SDK/GD32VW55x_RELEASE_V1.0.2/MSDK/lwip/libcoap-4.3.4/src\coap_subscribe.c **** 
 821:C:/Users/stapi/OneDrive/Desktop/GD32VW553/GD32VW55X_Wifi_BLE_SDK/GD32VW55x_RELEASE_V1.0.2/MSDK/lwip/libcoap-4.3.4/src\coap_subscribe.c **** /*
 822:C:/Users/stapi/OneDrive/Desktop/GD32VW553/GD32VW55X_Wifi_BLE_SDK/GD32VW55x_RELEASE_V1.0.2/MSDK/lwip/libcoap-4.3.4/src\coap_subscribe.c ****  * read in dynamic resource entry, allocating name & raw_packet
 823:C:/Users/stapi/OneDrive/Desktop/GD32VW553/GD32VW55X_Wifi_BLE_SDK/GD32VW55x_RELEASE_V1.0.2/MSDK/lwip/libcoap-4.3.4/src\coap_subscribe.c ****  * which need to be freed off by caller.
 824:C:/Users/stapi/OneDrive/Desktop/GD32VW553/GD32VW55X_Wifi_BLE_SDK/GD32VW55x_RELEASE_V1.0.2/MSDK/lwip/libcoap-4.3.4/src\coap_subscribe.c ****  */
 825:C:/Users/stapi/OneDrive/Desktop/GD32VW553/GD32VW55X_Wifi_BLE_SDK/GD32VW55x_RELEASE_V1.0.2/MSDK/lwip/libcoap-4.3.4/src\coap_subscribe.c **** static int
 826:C:/Users/stapi/OneDrive/Desktop/GD32VW553/GD32VW55X_Wifi_BLE_SDK/GD32VW55x_RELEASE_V1.0.2/MSDK/lwip/libcoap-4.3.4/src\coap_subscribe.c **** coap_op_dyn_resource_read(FILE *fp, coap_proto_t *e_proto,
 827:C:/Users/stapi/OneDrive/Desktop/GD32VW553/GD32VW55X_Wifi_BLE_SDK/GD32VW55x_RELEASE_V1.0.2/MSDK/lwip/libcoap-4.3.4/src\coap_subscribe.c ****                           coap_string_t **name,
 828:C:/Users/stapi/OneDrive/Desktop/GD32VW553/GD32VW55X_Wifi_BLE_SDK/GD32VW55x_RELEASE_V1.0.2/MSDK/lwip/libcoap-4.3.4/src\coap_subscribe.c ****                           coap_binary_t **raw_packet) {
 829:C:/Users/stapi/OneDrive/Desktop/GD32VW553/GD32VW55X_Wifi_BLE_SDK/GD32VW55x_RELEASE_V1.0.2/MSDK/lwip/libcoap-4.3.4/src\coap_subscribe.c ****   ssize_t size;
 830:C:/Users/stapi/OneDrive/Desktop/GD32VW553/GD32VW55X_Wifi_BLE_SDK/GD32VW55x_RELEASE_V1.0.2/MSDK/lwip/libcoap-4.3.4/src\coap_subscribe.c **** 
 831:C:/Users/stapi/OneDrive/Desktop/GD32VW553/GD32VW55X_Wifi_BLE_SDK/GD32VW55x_RELEASE_V1.0.2/MSDK/lwip/libcoap-4.3.4/src\coap_subscribe.c ****   *name = NULL;
 832:C:/Users/stapi/OneDrive/Desktop/GD32VW553/GD32VW55X_Wifi_BLE_SDK/GD32VW55x_RELEASE_V1.0.2/MSDK/lwip/libcoap-4.3.4/src\coap_subscribe.c ****   *raw_packet = NULL;
 833:C:/Users/stapi/OneDrive/Desktop/GD32VW553/GD32VW55X_Wifi_BLE_SDK/GD32VW55x_RELEASE_V1.0.2/MSDK/lwip/libcoap-4.3.4/src\coap_subscribe.c **** 
 834:C:/Users/stapi/OneDrive/Desktop/GD32VW553/GD32VW55X_Wifi_BLE_SDK/GD32VW55x_RELEASE_V1.0.2/MSDK/lwip/libcoap-4.3.4/src\coap_subscribe.c ****   if (fread(e_proto, sizeof(*e_proto), 1, fp) == 1) {
 835:C:/Users/stapi/OneDrive/Desktop/GD32VW553/GD32VW55X_Wifi_BLE_SDK/GD32VW55x_RELEASE_V1.0.2/MSDK/lwip/libcoap-4.3.4/src\coap_subscribe.c ****     /* New record 'proto len resource_name len raw_packet' */
 836:C:/Users/stapi/OneDrive/Desktop/GD32VW553/GD32VW55X_Wifi_BLE_SDK/GD32VW55x_RELEASE_V1.0.2/MSDK/lwip/libcoap-4.3.4/src\coap_subscribe.c ****     if (fread(&size, sizeof(size), 1, fp) != 1)
 837:C:/Users/stapi/OneDrive/Desktop/GD32VW553/GD32VW55X_Wifi_BLE_SDK/GD32VW55x_RELEASE_V1.0.2/MSDK/lwip/libcoap-4.3.4/src\coap_subscribe.c ****       goto fail;
 838:C:/Users/stapi/OneDrive/Desktop/GD32VW553/GD32VW55X_Wifi_BLE_SDK/GD32VW55x_RELEASE_V1.0.2/MSDK/lwip/libcoap-4.3.4/src\coap_subscribe.c ****     if (size < 0 || size > 0x10000)
 839:C:/Users/stapi/OneDrive/Desktop/GD32VW553/GD32VW55X_Wifi_BLE_SDK/GD32VW55x_RELEASE_V1.0.2/MSDK/lwip/libcoap-4.3.4/src\coap_subscribe.c ****       goto fail;
 840:C:/Users/stapi/OneDrive/Desktop/GD32VW553/GD32VW55X_Wifi_BLE_SDK/GD32VW55x_RELEASE_V1.0.2/MSDK/lwip/libcoap-4.3.4/src\coap_subscribe.c ****     *name = coap_new_string(size);
 841:C:/Users/stapi/OneDrive/Desktop/GD32VW553/GD32VW55X_Wifi_BLE_SDK/GD32VW55x_RELEASE_V1.0.2/MSDK/lwip/libcoap-4.3.4/src\coap_subscribe.c ****     if (!(*name))
 842:C:/Users/stapi/OneDrive/Desktop/GD32VW553/GD32VW55X_Wifi_BLE_SDK/GD32VW55x_RELEASE_V1.0.2/MSDK/lwip/libcoap-4.3.4/src\coap_subscribe.c ****       goto fail;
 843:C:/Users/stapi/OneDrive/Desktop/GD32VW553/GD32VW55X_Wifi_BLE_SDK/GD32VW55x_RELEASE_V1.0.2/MSDK/lwip/libcoap-4.3.4/src\coap_subscribe.c ****     if (fread((*name)->s, size, 1, fp) != 1)
 844:C:/Users/stapi/OneDrive/Desktop/GD32VW553/GD32VW55X_Wifi_BLE_SDK/GD32VW55x_RELEASE_V1.0.2/MSDK/lwip/libcoap-4.3.4/src\coap_subscribe.c ****       goto fail;
 845:C:/Users/stapi/OneDrive/Desktop/GD32VW553/GD32VW55X_Wifi_BLE_SDK/GD32VW55x_RELEASE_V1.0.2/MSDK/lwip/libcoap-4.3.4/src\coap_subscribe.c ****     if (fread(&size, sizeof(size), 1, fp) != 1)
 846:C:/Users/stapi/OneDrive/Desktop/GD32VW553/GD32VW55X_Wifi_BLE_SDK/GD32VW55x_RELEASE_V1.0.2/MSDK/lwip/libcoap-4.3.4/src\coap_subscribe.c ****       goto fail;
 847:C:/Users/stapi/OneDrive/Desktop/GD32VW553/GD32VW55X_Wifi_BLE_SDK/GD32VW55x_RELEASE_V1.0.2/MSDK/lwip/libcoap-4.3.4/src\coap_subscribe.c ****     if (size < 0 || size > 0x10000)
 848:C:/Users/stapi/OneDrive/Desktop/GD32VW553/GD32VW55X_Wifi_BLE_SDK/GD32VW55x_RELEASE_V1.0.2/MSDK/lwip/libcoap-4.3.4/src\coap_subscribe.c ****       goto fail;
 849:C:/Users/stapi/OneDrive/Desktop/GD32VW553/GD32VW55X_Wifi_BLE_SDK/GD32VW55x_RELEASE_V1.0.2/MSDK/lwip/libcoap-4.3.4/src\coap_subscribe.c ****     *raw_packet = coap_new_binary(size);
 850:C:/Users/stapi/OneDrive/Desktop/GD32VW553/GD32VW55X_Wifi_BLE_SDK/GD32VW55x_RELEASE_V1.0.2/MSDK/lwip/libcoap-4.3.4/src\coap_subscribe.c ****     if (!(*raw_packet))
 851:C:/Users/stapi/OneDrive/Desktop/GD32VW553/GD32VW55X_Wifi_BLE_SDK/GD32VW55x_RELEASE_V1.0.2/MSDK/lwip/libcoap-4.3.4/src\coap_subscribe.c ****       goto fail;
 852:C:/Users/stapi/OneDrive/Desktop/GD32VW553/GD32VW55X_Wifi_BLE_SDK/GD32VW55x_RELEASE_V1.0.2/MSDK/lwip/libcoap-4.3.4/src\coap_subscribe.c ****     if (fread((*raw_packet)->s, size, 1, fp) != 1)
 853:C:/Users/stapi/OneDrive/Desktop/GD32VW553/GD32VW55X_Wifi_BLE_SDK/GD32VW55x_RELEASE_V1.0.2/MSDK/lwip/libcoap-4.3.4/src\coap_subscribe.c ****       goto fail;
 854:C:/Users/stapi/OneDrive/Desktop/GD32VW553/GD32VW55X_Wifi_BLE_SDK/GD32VW55x_RELEASE_V1.0.2/MSDK/lwip/libcoap-4.3.4/src\coap_subscribe.c ****     return 1;
 855:C:/Users/stapi/OneDrive/Desktop/GD32VW553/GD32VW55X_Wifi_BLE_SDK/GD32VW55x_RELEASE_V1.0.2/MSDK/lwip/libcoap-4.3.4/src\coap_subscribe.c ****   }
 856:C:/Users/stapi/OneDrive/Desktop/GD32VW553/GD32VW55X_Wifi_BLE_SDK/GD32VW55x_RELEASE_V1.0.2/MSDK/lwip/libcoap-4.3.4/src\coap_subscribe.c **** fail:
 857:C:/Users/stapi/OneDrive/Desktop/GD32VW553/GD32VW55X_Wifi_BLE_SDK/GD32VW55x_RELEASE_V1.0.2/MSDK/lwip/libcoap-4.3.4/src\coap_subscribe.c ****   return 0;
 858:C:/Users/stapi/OneDrive/Desktop/GD32VW553/GD32VW55X_Wifi_BLE_SDK/GD32VW55x_RELEASE_V1.0.2/MSDK/lwip/libcoap-4.3.4/src\coap_subscribe.c **** }
 859:C:/Users/stapi/OneDrive/Desktop/GD32VW553/GD32VW55X_Wifi_BLE_SDK/GD32VW55x_RELEASE_V1.0.2/MSDK/lwip/libcoap-4.3.4/src\coap_subscribe.c **** 
 860:C:/Users/stapi/OneDrive/Desktop/GD32VW553/GD32VW55X_Wifi_BLE_SDK/GD32VW55x_RELEASE_V1.0.2/MSDK/lwip/libcoap-4.3.4/src\coap_subscribe.c **** /*
 861:C:/Users/stapi/OneDrive/Desktop/GD32VW553/GD32VW55X_Wifi_BLE_SDK/GD32VW55x_RELEASE_V1.0.2/MSDK/lwip/libcoap-4.3.4/src\coap_subscribe.c ****  * write out dynamic resource entry.
 862:C:/Users/stapi/OneDrive/Desktop/GD32VW553/GD32VW55X_Wifi_BLE_SDK/GD32VW55x_RELEASE_V1.0.2/MSDK/lwip/libcoap-4.3.4/src\coap_subscribe.c ****  */
 863:C:/Users/stapi/OneDrive/Desktop/GD32VW553/GD32VW55X_Wifi_BLE_SDK/GD32VW55x_RELEASE_V1.0.2/MSDK/lwip/libcoap-4.3.4/src\coap_subscribe.c **** static int
 864:C:/Users/stapi/OneDrive/Desktop/GD32VW553/GD32VW55X_Wifi_BLE_SDK/GD32VW55x_RELEASE_V1.0.2/MSDK/lwip/libcoap-4.3.4/src\coap_subscribe.c **** coap_op_dyn_resource_write(FILE *fp, coap_proto_t e_proto,
 865:C:/Users/stapi/OneDrive/Desktop/GD32VW553/GD32VW55X_Wifi_BLE_SDK/GD32VW55x_RELEASE_V1.0.2/MSDK/lwip/libcoap-4.3.4/src\coap_subscribe.c ****                            coap_str_const_t *name,
 866:C:/Users/stapi/OneDrive/Desktop/GD32VW553/GD32VW55X_Wifi_BLE_SDK/GD32VW55x_RELEASE_V1.0.2/MSDK/lwip/libcoap-4.3.4/src\coap_subscribe.c ****                            coap_bin_const_t *raw_packet) {
 867:C:/Users/stapi/OneDrive/Desktop/GD32VW553/GD32VW55X_Wifi_BLE_SDK/GD32VW55x_RELEASE_V1.0.2/MSDK/lwip/libcoap-4.3.4/src\coap_subscribe.c ****   if (fwrite(&e_proto, sizeof(e_proto), 1, fp) != 1)
 868:C:/Users/stapi/OneDrive/Desktop/GD32VW553/GD32VW55X_Wifi_BLE_SDK/GD32VW55x_RELEASE_V1.0.2/MSDK/lwip/libcoap-4.3.4/src\coap_subscribe.c ****     goto fail;
 869:C:/Users/stapi/OneDrive/Desktop/GD32VW553/GD32VW55X_Wifi_BLE_SDK/GD32VW55x_RELEASE_V1.0.2/MSDK/lwip/libcoap-4.3.4/src\coap_subscribe.c ****   if (fwrite(&name->length, sizeof(name->length), 1, fp) != 1)
 870:C:/Users/stapi/OneDrive/Desktop/GD32VW553/GD32VW55X_Wifi_BLE_SDK/GD32VW55x_RELEASE_V1.0.2/MSDK/lwip/libcoap-4.3.4/src\coap_subscribe.c ****     goto fail;
 871:C:/Users/stapi/OneDrive/Desktop/GD32VW553/GD32VW55X_Wifi_BLE_SDK/GD32VW55x_RELEASE_V1.0.2/MSDK/lwip/libcoap-4.3.4/src\coap_subscribe.c ****   if (fwrite(name->s, name->length, 1, fp) != 1)
 872:C:/Users/stapi/OneDrive/Desktop/GD32VW553/GD32VW55X_Wifi_BLE_SDK/GD32VW55x_RELEASE_V1.0.2/MSDK/lwip/libcoap-4.3.4/src\coap_subscribe.c ****     goto fail;
 873:C:/Users/stapi/OneDrive/Desktop/GD32VW553/GD32VW55X_Wifi_BLE_SDK/GD32VW55x_RELEASE_V1.0.2/MSDK/lwip/libcoap-4.3.4/src\coap_subscribe.c ****   if (fwrite(&raw_packet->length, sizeof(raw_packet->length), 1, fp) != 1)
 874:C:/Users/stapi/OneDrive/Desktop/GD32VW553/GD32VW55X_Wifi_BLE_SDK/GD32VW55x_RELEASE_V1.0.2/MSDK/lwip/libcoap-4.3.4/src\coap_subscribe.c ****     goto fail;
 875:C:/Users/stapi/OneDrive/Desktop/GD32VW553/GD32VW55X_Wifi_BLE_SDK/GD32VW55x_RELEASE_V1.0.2/MSDK/lwip/libcoap-4.3.4/src\coap_subscribe.c ****   if (fwrite(raw_packet->s, raw_packet->length, 1, fp) != 1)
 876:C:/Users/stapi/OneDrive/Desktop/GD32VW553/GD32VW55X_Wifi_BLE_SDK/GD32VW55x_RELEASE_V1.0.2/MSDK/lwip/libcoap-4.3.4/src\coap_subscribe.c ****     goto fail;
 877:C:/Users/stapi/OneDrive/Desktop/GD32VW553/GD32VW55X_Wifi_BLE_SDK/GD32VW55x_RELEASE_V1.0.2/MSDK/lwip/libcoap-4.3.4/src\coap_subscribe.c ****   return 1;
 878:C:/Users/stapi/OneDrive/Desktop/GD32VW553/GD32VW55X_Wifi_BLE_SDK/GD32VW55x_RELEASE_V1.0.2/MSDK/lwip/libcoap-4.3.4/src\coap_subscribe.c **** fail:
 879:C:/Users/stapi/OneDrive/Desktop/GD32VW553/GD32VW55X_Wifi_BLE_SDK/GD32VW55x_RELEASE_V1.0.2/MSDK/lwip/libcoap-4.3.4/src\coap_subscribe.c ****   return 0;
 880:C:/Users/stapi/OneDrive/Desktop/GD32VW553/GD32VW55X_Wifi_BLE_SDK/GD32VW55x_RELEASE_V1.0.2/MSDK/lwip/libcoap-4.3.4/src\coap_subscribe.c **** }
 881:C:/Users/stapi/OneDrive/Desktop/GD32VW553/GD32VW55X_Wifi_BLE_SDK/GD32VW55x_RELEASE_V1.0.2/MSDK/lwip/libcoap-4.3.4/src\coap_subscribe.c **** 
 882:C:/Users/stapi/OneDrive/Desktop/GD32VW553/GD32VW55X_Wifi_BLE_SDK/GD32VW55x_RELEASE_V1.0.2/MSDK/lwip/libcoap-4.3.4/src\coap_subscribe.c **** /*
 883:C:/Users/stapi/OneDrive/Desktop/GD32VW553/GD32VW55X_Wifi_BLE_SDK/GD32VW55x_RELEASE_V1.0.2/MSDK/lwip/libcoap-4.3.4/src\coap_subscribe.c ****  * This should be called before coap_persist_track_funcs() to prevent
 884:C:/Users/stapi/OneDrive/Desktop/GD32VW553/GD32VW55X_Wifi_BLE_SDK/GD32VW55x_RELEASE_V1.0.2/MSDK/lwip/libcoap-4.3.4/src\coap_subscribe.c ****  * coap_op_dyn_resource_added() getting unnecessarily called.
 885:C:/Users/stapi/OneDrive/Desktop/GD32VW553/GD32VW55X_Wifi_BLE_SDK/GD32VW55x_RELEASE_V1.0.2/MSDK/lwip/libcoap-4.3.4/src\coap_subscribe.c ****  *
 886:C:/Users/stapi/OneDrive/Desktop/GD32VW553/GD32VW55X_Wifi_BLE_SDK/GD32VW55x_RELEASE_V1.0.2/MSDK/lwip/libcoap-4.3.4/src\coap_subscribe.c ****  * Each record 'proto len resource_name len raw_packet'
 887:C:/Users/stapi/OneDrive/Desktop/GD32VW553/GD32VW55X_Wifi_BLE_SDK/GD32VW55x_RELEASE_V1.0.2/MSDK/lwip/libcoap-4.3.4/src\coap_subscribe.c ****  */
 888:C:/Users/stapi/OneDrive/Desktop/GD32VW553/GD32VW55X_Wifi_BLE_SDK/GD32VW55x_RELEASE_V1.0.2/MSDK/lwip/libcoap-4.3.4/src\coap_subscribe.c **** static void
 889:C:/Users/stapi/OneDrive/Desktop/GD32VW553/GD32VW55X_Wifi_BLE_SDK/GD32VW55x_RELEASE_V1.0.2/MSDK/lwip/libcoap-4.3.4/src\coap_subscribe.c **** coap_op_dyn_resource_load_disk(coap_context_t *ctx) {
 890:C:/Users/stapi/OneDrive/Desktop/GD32VW553/GD32VW55X_Wifi_BLE_SDK/GD32VW55x_RELEASE_V1.0.2/MSDK/lwip/libcoap-4.3.4/src\coap_subscribe.c ****   FILE *fp_orig = NULL;
 891:C:/Users/stapi/OneDrive/Desktop/GD32VW553/GD32VW55X_Wifi_BLE_SDK/GD32VW55x_RELEASE_V1.0.2/MSDK/lwip/libcoap-4.3.4/src\coap_subscribe.c ****   coap_proto_t e_proto;
 892:C:/Users/stapi/OneDrive/Desktop/GD32VW553/GD32VW55X_Wifi_BLE_SDK/GD32VW55x_RELEASE_V1.0.2/MSDK/lwip/libcoap-4.3.4/src\coap_subscribe.c ****   coap_string_t *name = NULL;
 893:C:/Users/stapi/OneDrive/Desktop/GD32VW553/GD32VW55X_Wifi_BLE_SDK/GD32VW55x_RELEASE_V1.0.2/MSDK/lwip/libcoap-4.3.4/src\coap_subscribe.c ****   coap_binary_t *raw_packet = NULL;
 894:C:/Users/stapi/OneDrive/Desktop/GD32VW553/GD32VW55X_Wifi_BLE_SDK/GD32VW55x_RELEASE_V1.0.2/MSDK/lwip/libcoap-4.3.4/src\coap_subscribe.c ****   coap_resource_t *r;
 895:C:/Users/stapi/OneDrive/Desktop/GD32VW553/GD32VW55X_Wifi_BLE_SDK/GD32VW55x_RELEASE_V1.0.2/MSDK/lwip/libcoap-4.3.4/src\coap_subscribe.c ****   coap_session_t *session = NULL;
 896:C:/Users/stapi/OneDrive/Desktop/GD32VW553/GD32VW55X_Wifi_BLE_SDK/GD32VW55x_RELEASE_V1.0.2/MSDK/lwip/libcoap-4.3.4/src\coap_subscribe.c ****   coap_pdu_t *request = NULL;
 897:C:/Users/stapi/OneDrive/Desktop/GD32VW553/GD32VW55X_Wifi_BLE_SDK/GD32VW55x_RELEASE_V1.0.2/MSDK/lwip/libcoap-4.3.4/src\coap_subscribe.c ****   coap_pdu_t *response = NULL;
 898:C:/Users/stapi/OneDrive/Desktop/GD32VW553/GD32VW55X_Wifi_BLE_SDK/GD32VW55x_RELEASE_V1.0.2/MSDK/lwip/libcoap-4.3.4/src\coap_subscribe.c ****   coap_string_t *query = NULL;
 899:C:/Users/stapi/OneDrive/Desktop/GD32VW553/GD32VW55X_Wifi_BLE_SDK/GD32VW55x_RELEASE_V1.0.2/MSDK/lwip/libcoap-4.3.4/src\coap_subscribe.c **** 
 900:C:/Users/stapi/OneDrive/Desktop/GD32VW553/GD32VW55X_Wifi_BLE_SDK/GD32VW55x_RELEASE_V1.0.2/MSDK/lwip/libcoap-4.3.4/src\coap_subscribe.c ****   if (!ctx->unknown_resource)
 901:C:/Users/stapi/OneDrive/Desktop/GD32VW553/GD32VW55X_Wifi_BLE_SDK/GD32VW55x_RELEASE_V1.0.2/MSDK/lwip/libcoap-4.3.4/src\coap_subscribe.c ****     return;
 902:C:/Users/stapi/OneDrive/Desktop/GD32VW553/GD32VW55X_Wifi_BLE_SDK/GD32VW55x_RELEASE_V1.0.2/MSDK/lwip/libcoap-4.3.4/src\coap_subscribe.c **** 
 903:C:/Users/stapi/OneDrive/Desktop/GD32VW553/GD32VW55X_Wifi_BLE_SDK/GD32VW55x_RELEASE_V1.0.2/MSDK/lwip/libcoap-4.3.4/src\coap_subscribe.c ****   fp_orig = fopen((const char *)ctx->dyn_resource_save_file->s, "r");
 904:C:/Users/stapi/OneDrive/Desktop/GD32VW553/GD32VW55X_Wifi_BLE_SDK/GD32VW55x_RELEASE_V1.0.2/MSDK/lwip/libcoap-4.3.4/src\coap_subscribe.c ****   if (fp_orig == NULL)
 905:C:/Users/stapi/OneDrive/Desktop/GD32VW553/GD32VW55X_Wifi_BLE_SDK/GD32VW55x_RELEASE_V1.0.2/MSDK/lwip/libcoap-4.3.4/src\coap_subscribe.c ****     return;
 906:C:/Users/stapi/OneDrive/Desktop/GD32VW553/GD32VW55X_Wifi_BLE_SDK/GD32VW55x_RELEASE_V1.0.2/MSDK/lwip/libcoap-4.3.4/src\coap_subscribe.c ****   session = (coap_session_t *)coap_malloc_type(COAP_SESSION,
 907:C:/Users/stapi/OneDrive/Desktop/GD32VW553/GD32VW55X_Wifi_BLE_SDK/GD32VW55x_RELEASE_V1.0.2/MSDK/lwip/libcoap-4.3.4/src\coap_subscribe.c ****                                                sizeof(coap_session_t));
 908:C:/Users/stapi/OneDrive/Desktop/GD32VW553/GD32VW55X_Wifi_BLE_SDK/GD32VW55x_RELEASE_V1.0.2/MSDK/lwip/libcoap-4.3.4/src\coap_subscribe.c ****   if (!session)
 909:C:/Users/stapi/OneDrive/Desktop/GD32VW553/GD32VW55X_Wifi_BLE_SDK/GD32VW55x_RELEASE_V1.0.2/MSDK/lwip/libcoap-4.3.4/src\coap_subscribe.c ****     goto fail;
 910:C:/Users/stapi/OneDrive/Desktop/GD32VW553/GD32VW55X_Wifi_BLE_SDK/GD32VW55x_RELEASE_V1.0.2/MSDK/lwip/libcoap-4.3.4/src\coap_subscribe.c ****   memset(session, 0, sizeof(coap_session_t));
 911:C:/Users/stapi/OneDrive/Desktop/GD32VW553/GD32VW55X_Wifi_BLE_SDK/GD32VW55x_RELEASE_V1.0.2/MSDK/lwip/libcoap-4.3.4/src\coap_subscribe.c ****   session->context = ctx;
 912:C:/Users/stapi/OneDrive/Desktop/GD32VW553/GD32VW55X_Wifi_BLE_SDK/GD32VW55x_RELEASE_V1.0.2/MSDK/lwip/libcoap-4.3.4/src\coap_subscribe.c **** 
 913:C:/Users/stapi/OneDrive/Desktop/GD32VW553/GD32VW55X_Wifi_BLE_SDK/GD32VW55x_RELEASE_V1.0.2/MSDK/lwip/libcoap-4.3.4/src\coap_subscribe.c ****   /* Go through and create each dynamic resource if it does not exist*/
 914:C:/Users/stapi/OneDrive/Desktop/GD32VW553/GD32VW55X_Wifi_BLE_SDK/GD32VW55x_RELEASE_V1.0.2/MSDK/lwip/libcoap-4.3.4/src\coap_subscribe.c ****   while (1) {
 915:C:/Users/stapi/OneDrive/Desktop/GD32VW553/GD32VW55X_Wifi_BLE_SDK/GD32VW55x_RELEASE_V1.0.2/MSDK/lwip/libcoap-4.3.4/src\coap_subscribe.c ****     if (!coap_op_dyn_resource_read(fp_orig, &e_proto, &name, &raw_packet))
 916:C:/Users/stapi/OneDrive/Desktop/GD32VW553/GD32VW55X_Wifi_BLE_SDK/GD32VW55x_RELEASE_V1.0.2/MSDK/lwip/libcoap-4.3.4/src\coap_subscribe.c ****       break;
 917:C:/Users/stapi/OneDrive/Desktop/GD32VW553/GD32VW55X_Wifi_BLE_SDK/GD32VW55x_RELEASE_V1.0.2/MSDK/lwip/libcoap-4.3.4/src\coap_subscribe.c ****     r = coap_get_resource_from_uri_path(ctx, (coap_str_const_t *)name);
 918:C:/Users/stapi/OneDrive/Desktop/GD32VW553/GD32VW55X_Wifi_BLE_SDK/GD32VW55x_RELEASE_V1.0.2/MSDK/lwip/libcoap-4.3.4/src\coap_subscribe.c ****     if (!r) {
 919:C:/Users/stapi/OneDrive/Desktop/GD32VW553/GD32VW55X_Wifi_BLE_SDK/GD32VW55x_RELEASE_V1.0.2/MSDK/lwip/libcoap-4.3.4/src\coap_subscribe.c ****       /* Create the new resource using the application logic */
 920:C:/Users/stapi/OneDrive/Desktop/GD32VW553/GD32VW55X_Wifi_BLE_SDK/GD32VW55x_RELEASE_V1.0.2/MSDK/lwip/libcoap-4.3.4/src\coap_subscribe.c **** 
 921:C:/Users/stapi/OneDrive/Desktop/GD32VW553/GD32VW55X_Wifi_BLE_SDK/GD32VW55x_RELEASE_V1.0.2/MSDK/lwip/libcoap-4.3.4/src\coap_subscribe.c ****       coap_log_debug("persist: dynamic resource being re-created\n");
 922:C:/Users/stapi/OneDrive/Desktop/GD32VW553/GD32VW55X_Wifi_BLE_SDK/GD32VW55x_RELEASE_V1.0.2/MSDK/lwip/libcoap-4.3.4/src\coap_subscribe.c ****       /*
 923:C:/Users/stapi/OneDrive/Desktop/GD32VW553/GD32VW55X_Wifi_BLE_SDK/GD32VW55x_RELEASE_V1.0.2/MSDK/lwip/libcoap-4.3.4/src\coap_subscribe.c ****        * Need max space incase PDU is updated with updated token,
 924:C:/Users/stapi/OneDrive/Desktop/GD32VW553/GD32VW55X_Wifi_BLE_SDK/GD32VW55x_RELEASE_V1.0.2/MSDK/lwip/libcoap-4.3.4/src\coap_subscribe.c ****        * huge size etc.
 925:C:/Users/stapi/OneDrive/Desktop/GD32VW553/GD32VW55X_Wifi_BLE_SDK/GD32VW55x_RELEASE_V1.0.2/MSDK/lwip/libcoap-4.3.4/src\coap_subscribe.c ****        * */
 926:C:/Users/stapi/OneDrive/Desktop/GD32VW553/GD32VW55X_Wifi_BLE_SDK/GD32VW55x_RELEASE_V1.0.2/MSDK/lwip/libcoap-4.3.4/src\coap_subscribe.c ****       request = coap_pdu_init(0, 0, 0, 0);
 927:C:/Users/stapi/OneDrive/Desktop/GD32VW553/GD32VW55X_Wifi_BLE_SDK/GD32VW55x_RELEASE_V1.0.2/MSDK/lwip/libcoap-4.3.4/src\coap_subscribe.c ****       if (!request)
 928:C:/Users/stapi/OneDrive/Desktop/GD32VW553/GD32VW55X_Wifi_BLE_SDK/GD32VW55x_RELEASE_V1.0.2/MSDK/lwip/libcoap-4.3.4/src\coap_subscribe.c ****         goto fail;
 929:C:/Users/stapi/OneDrive/Desktop/GD32VW553/GD32VW55X_Wifi_BLE_SDK/GD32VW55x_RELEASE_V1.0.2/MSDK/lwip/libcoap-4.3.4/src\coap_subscribe.c **** 
 930:C:/Users/stapi/OneDrive/Desktop/GD32VW553/GD32VW55X_Wifi_BLE_SDK/GD32VW55x_RELEASE_V1.0.2/MSDK/lwip/libcoap-4.3.4/src\coap_subscribe.c ****       session->proto = e_proto;
 931:C:/Users/stapi/OneDrive/Desktop/GD32VW553/GD32VW55X_Wifi_BLE_SDK/GD32VW55x_RELEASE_V1.0.2/MSDK/lwip/libcoap-4.3.4/src\coap_subscribe.c ****       if (!coap_pdu_parse(session->proto, raw_packet->s,
 932:C:/Users/stapi/OneDrive/Desktop/GD32VW553/GD32VW55X_Wifi_BLE_SDK/GD32VW55x_RELEASE_V1.0.2/MSDK/lwip/libcoap-4.3.4/src\coap_subscribe.c ****                           raw_packet->length, request)) {
 933:C:/Users/stapi/OneDrive/Desktop/GD32VW553/GD32VW55X_Wifi_BLE_SDK/GD32VW55x_RELEASE_V1.0.2/MSDK/lwip/libcoap-4.3.4/src\coap_subscribe.c ****         goto fail;
 934:C:/Users/stapi/OneDrive/Desktop/GD32VW553/GD32VW55X_Wifi_BLE_SDK/GD32VW55x_RELEASE_V1.0.2/MSDK/lwip/libcoap-4.3.4/src\coap_subscribe.c ****       }
 935:C:/Users/stapi/OneDrive/Desktop/GD32VW553/GD32VW55X_Wifi_BLE_SDK/GD32VW55x_RELEASE_V1.0.2/MSDK/lwip/libcoap-4.3.4/src\coap_subscribe.c ****       if (!ctx->unknown_resource->handler[request->code-1])
 936:C:/Users/stapi/OneDrive/Desktop/GD32VW553/GD32VW55X_Wifi_BLE_SDK/GD32VW55x_RELEASE_V1.0.2/MSDK/lwip/libcoap-4.3.4/src\coap_subscribe.c ****         goto fail;
 937:C:/Users/stapi/OneDrive/Desktop/GD32VW553/GD32VW55X_Wifi_BLE_SDK/GD32VW55x_RELEASE_V1.0.2/MSDK/lwip/libcoap-4.3.4/src\coap_subscribe.c ****       response = coap_pdu_init(0, 0, 0, 0);
 938:C:/Users/stapi/OneDrive/Desktop/GD32VW553/GD32VW55X_Wifi_BLE_SDK/GD32VW55x_RELEASE_V1.0.2/MSDK/lwip/libcoap-4.3.4/src\coap_subscribe.c ****       if (!response)
 939:C:/Users/stapi/OneDrive/Desktop/GD32VW553/GD32VW55X_Wifi_BLE_SDK/GD32VW55x_RELEASE_V1.0.2/MSDK/lwip/libcoap-4.3.4/src\coap_subscribe.c ****         goto fail;
 940:C:/Users/stapi/OneDrive/Desktop/GD32VW553/GD32VW55X_Wifi_BLE_SDK/GD32VW55x_RELEASE_V1.0.2/MSDK/lwip/libcoap-4.3.4/src\coap_subscribe.c ****       query = coap_get_query(request);
 941:C:/Users/stapi/OneDrive/Desktop/GD32VW553/GD32VW55X_Wifi_BLE_SDK/GD32VW55x_RELEASE_V1.0.2/MSDK/lwip/libcoap-4.3.4/src\coap_subscribe.c ****       /* Call the application handler to set up this dynamic resource */
 942:C:/Users/stapi/OneDrive/Desktop/GD32VW553/GD32VW55X_Wifi_BLE_SDK/GD32VW55x_RELEASE_V1.0.2/MSDK/lwip/libcoap-4.3.4/src\coap_subscribe.c ****       ctx->unknown_resource->handler[request->code-1](ctx->unknown_resource,
 943:C:/Users/stapi/OneDrive/Desktop/GD32VW553/GD32VW55X_Wifi_BLE_SDK/GD32VW55x_RELEASE_V1.0.2/MSDK/lwip/libcoap-4.3.4/src\coap_subscribe.c ****                                                       session, request,
 944:C:/Users/stapi/OneDrive/Desktop/GD32VW553/GD32VW55X_Wifi_BLE_SDK/GD32VW55x_RELEASE_V1.0.2/MSDK/lwip/libcoap-4.3.4/src\coap_subscribe.c ****                                                       query, response);
 945:C:/Users/stapi/OneDrive/Desktop/GD32VW553/GD32VW55X_Wifi_BLE_SDK/GD32VW55x_RELEASE_V1.0.2/MSDK/lwip/libcoap-4.3.4/src\coap_subscribe.c ****       coap_delete_string(query);
 946:C:/Users/stapi/OneDrive/Desktop/GD32VW553/GD32VW55X_Wifi_BLE_SDK/GD32VW55x_RELEASE_V1.0.2/MSDK/lwip/libcoap-4.3.4/src\coap_subscribe.c ****       query = NULL;
 947:C:/Users/stapi/OneDrive/Desktop/GD32VW553/GD32VW55X_Wifi_BLE_SDK/GD32VW55x_RELEASE_V1.0.2/MSDK/lwip/libcoap-4.3.4/src\coap_subscribe.c ****       coap_delete_pdu(request);
 948:C:/Users/stapi/OneDrive/Desktop/GD32VW553/GD32VW55X_Wifi_BLE_SDK/GD32VW55x_RELEASE_V1.0.2/MSDK/lwip/libcoap-4.3.4/src\coap_subscribe.c ****       request = NULL;
 949:C:/Users/stapi/OneDrive/Desktop/GD32VW553/GD32VW55X_Wifi_BLE_SDK/GD32VW55x_RELEASE_V1.0.2/MSDK/lwip/libcoap-4.3.4/src\coap_subscribe.c ****       coap_delete_pdu(response);
 950:C:/Users/stapi/OneDrive/Desktop/GD32VW553/GD32VW55X_Wifi_BLE_SDK/GD32VW55x_RELEASE_V1.0.2/MSDK/lwip/libcoap-4.3.4/src\coap_subscribe.c ****       response = NULL;
 951:C:/Users/stapi/OneDrive/Desktop/GD32VW553/GD32VW55X_Wifi_BLE_SDK/GD32VW55x_RELEASE_V1.0.2/MSDK/lwip/libcoap-4.3.4/src\coap_subscribe.c ****     }
 952:C:/Users/stapi/OneDrive/Desktop/GD32VW553/GD32VW55X_Wifi_BLE_SDK/GD32VW55x_RELEASE_V1.0.2/MSDK/lwip/libcoap-4.3.4/src\coap_subscribe.c ****     coap_delete_string(name);
 953:C:/Users/stapi/OneDrive/Desktop/GD32VW553/GD32VW55X_Wifi_BLE_SDK/GD32VW55x_RELEASE_V1.0.2/MSDK/lwip/libcoap-4.3.4/src\coap_subscribe.c ****     coap_delete_binary(raw_packet);
 954:C:/Users/stapi/OneDrive/Desktop/GD32VW553/GD32VW55X_Wifi_BLE_SDK/GD32VW55x_RELEASE_V1.0.2/MSDK/lwip/libcoap-4.3.4/src\coap_subscribe.c ****   }
 955:C:/Users/stapi/OneDrive/Desktop/GD32VW553/GD32VW55X_Wifi_BLE_SDK/GD32VW55x_RELEASE_V1.0.2/MSDK/lwip/libcoap-4.3.4/src\coap_subscribe.c **** fail:
 956:C:/Users/stapi/OneDrive/Desktop/GD32VW553/GD32VW55X_Wifi_BLE_SDK/GD32VW55x_RELEASE_V1.0.2/MSDK/lwip/libcoap-4.3.4/src\coap_subscribe.c ****   coap_delete_string(name);
 957:C:/Users/stapi/OneDrive/Desktop/GD32VW553/GD32VW55X_Wifi_BLE_SDK/GD32VW55x_RELEASE_V1.0.2/MSDK/lwip/libcoap-4.3.4/src\coap_subscribe.c ****   coap_delete_binary(raw_packet);
 958:C:/Users/stapi/OneDrive/Desktop/GD32VW553/GD32VW55X_Wifi_BLE_SDK/GD32VW55x_RELEASE_V1.0.2/MSDK/lwip/libcoap-4.3.4/src\coap_subscribe.c ****   coap_delete_string(query);
 959:C:/Users/stapi/OneDrive/Desktop/GD32VW553/GD32VW55X_Wifi_BLE_SDK/GD32VW55x_RELEASE_V1.0.2/MSDK/lwip/libcoap-4.3.4/src\coap_subscribe.c ****   coap_delete_pdu(request);
 960:C:/Users/stapi/OneDrive/Desktop/GD32VW553/GD32VW55X_Wifi_BLE_SDK/GD32VW55x_RELEASE_V1.0.2/MSDK/lwip/libcoap-4.3.4/src\coap_subscribe.c ****   coap_delete_pdu(response);
 961:C:/Users/stapi/OneDrive/Desktop/GD32VW553/GD32VW55X_Wifi_BLE_SDK/GD32VW55x_RELEASE_V1.0.2/MSDK/lwip/libcoap-4.3.4/src\coap_subscribe.c ****   fclose(fp_orig);
 962:C:/Users/stapi/OneDrive/Desktop/GD32VW553/GD32VW55X_Wifi_BLE_SDK/GD32VW55x_RELEASE_V1.0.2/MSDK/lwip/libcoap-4.3.4/src\coap_subscribe.c ****   coap_free_type(COAP_SESSION, session);
 963:C:/Users/stapi/OneDrive/Desktop/GD32VW553/GD32VW55X_Wifi_BLE_SDK/GD32VW55x_RELEASE_V1.0.2/MSDK/lwip/libcoap-4.3.4/src\coap_subscribe.c **** }
 964:C:/Users/stapi/OneDrive/Desktop/GD32VW553/GD32VW55X_Wifi_BLE_SDK/GD32VW55x_RELEASE_V1.0.2/MSDK/lwip/libcoap-4.3.4/src\coap_subscribe.c **** 
 965:C:/Users/stapi/OneDrive/Desktop/GD32VW553/GD32VW55X_Wifi_BLE_SDK/GD32VW55x_RELEASE_V1.0.2/MSDK/lwip/libcoap-4.3.4/src\coap_subscribe.c **** /*
 966:C:/Users/stapi/OneDrive/Desktop/GD32VW553/GD32VW55X_Wifi_BLE_SDK/GD32VW55x_RELEASE_V1.0.2/MSDK/lwip/libcoap-4.3.4/src\coap_subscribe.c ****  * Server has set up a new dynamic resource agains a request for an unknown
 967:C:/Users/stapi/OneDrive/Desktop/GD32VW553/GD32VW55X_Wifi_BLE_SDK/GD32VW55x_RELEASE_V1.0.2/MSDK/lwip/libcoap-4.3.4/src\coap_subscribe.c ****  * resource.
 968:C:/Users/stapi/OneDrive/Desktop/GD32VW553/GD32VW55X_Wifi_BLE_SDK/GD32VW55x_RELEASE_V1.0.2/MSDK/lwip/libcoap-4.3.4/src\coap_subscribe.c ****  */
 969:C:/Users/stapi/OneDrive/Desktop/GD32VW553/GD32VW55X_Wifi_BLE_SDK/GD32VW55x_RELEASE_V1.0.2/MSDK/lwip/libcoap-4.3.4/src\coap_subscribe.c **** static int
 970:C:/Users/stapi/OneDrive/Desktop/GD32VW553/GD32VW55X_Wifi_BLE_SDK/GD32VW55x_RELEASE_V1.0.2/MSDK/lwip/libcoap-4.3.4/src\coap_subscribe.c **** coap_op_dyn_resource_added(coap_session_t *session,
 971:C:/Users/stapi/OneDrive/Desktop/GD32VW553/GD32VW55X_Wifi_BLE_SDK/GD32VW55x_RELEASE_V1.0.2/MSDK/lwip/libcoap-4.3.4/src\coap_subscribe.c ****                            coap_str_const_t *resource_name,
 972:C:/Users/stapi/OneDrive/Desktop/GD32VW553/GD32VW55X_Wifi_BLE_SDK/GD32VW55x_RELEASE_V1.0.2/MSDK/lwip/libcoap-4.3.4/src\coap_subscribe.c ****                            coap_bin_const_t *packet,
 973:C:/Users/stapi/OneDrive/Desktop/GD32VW553/GD32VW55X_Wifi_BLE_SDK/GD32VW55x_RELEASE_V1.0.2/MSDK/lwip/libcoap-4.3.4/src\coap_subscribe.c ****                            void *user_data) {
 974:C:/Users/stapi/OneDrive/Desktop/GD32VW553/GD32VW55X_Wifi_BLE_SDK/GD32VW55x_RELEASE_V1.0.2/MSDK/lwip/libcoap-4.3.4/src\coap_subscribe.c ****   FILE *fp_orig;
 975:C:/Users/stapi/OneDrive/Desktop/GD32VW553/GD32VW55X_Wifi_BLE_SDK/GD32VW55x_RELEASE_V1.0.2/MSDK/lwip/libcoap-4.3.4/src\coap_subscribe.c ****   FILE *fp_new = NULL;
 976:C:/Users/stapi/OneDrive/Desktop/GD32VW553/GD32VW55X_Wifi_BLE_SDK/GD32VW55x_RELEASE_V1.0.2/MSDK/lwip/libcoap-4.3.4/src\coap_subscribe.c ****   char *new = NULL;
 977:C:/Users/stapi/OneDrive/Desktop/GD32VW553/GD32VW55X_Wifi_BLE_SDK/GD32VW55x_RELEASE_V1.0.2/MSDK/lwip/libcoap-4.3.4/src\coap_subscribe.c ****   coap_context_t *context = session->context;
 978:C:/Users/stapi/OneDrive/Desktop/GD32VW553/GD32VW55X_Wifi_BLE_SDK/GD32VW55x_RELEASE_V1.0.2/MSDK/lwip/libcoap-4.3.4/src\coap_subscribe.c ****   coap_string_t *name = NULL;
 979:C:/Users/stapi/OneDrive/Desktop/GD32VW553/GD32VW55X_Wifi_BLE_SDK/GD32VW55x_RELEASE_V1.0.2/MSDK/lwip/libcoap-4.3.4/src\coap_subscribe.c ****   coap_binary_t *raw_packet = NULL;
 980:C:/Users/stapi/OneDrive/Desktop/GD32VW553/GD32VW55X_Wifi_BLE_SDK/GD32VW55x_RELEASE_V1.0.2/MSDK/lwip/libcoap-4.3.4/src\coap_subscribe.c ****   coap_proto_t e_proto;
 981:C:/Users/stapi/OneDrive/Desktop/GD32VW553/GD32VW55X_Wifi_BLE_SDK/GD32VW55x_RELEASE_V1.0.2/MSDK/lwip/libcoap-4.3.4/src\coap_subscribe.c **** 
 982:C:/Users/stapi/OneDrive/Desktop/GD32VW553/GD32VW55X_Wifi_BLE_SDK/GD32VW55x_RELEASE_V1.0.2/MSDK/lwip/libcoap-4.3.4/src\coap_subscribe.c ****   (void)user_data;
 983:C:/Users/stapi/OneDrive/Desktop/GD32VW553/GD32VW55X_Wifi_BLE_SDK/GD32VW55x_RELEASE_V1.0.2/MSDK/lwip/libcoap-4.3.4/src\coap_subscribe.c **** 
 984:C:/Users/stapi/OneDrive/Desktop/GD32VW553/GD32VW55X_Wifi_BLE_SDK/GD32VW55x_RELEASE_V1.0.2/MSDK/lwip/libcoap-4.3.4/src\coap_subscribe.c ****   fp_orig = fopen((const char *)context->dyn_resource_save_file->s, "a");
 985:C:/Users/stapi/OneDrive/Desktop/GD32VW553/GD32VW55X_Wifi_BLE_SDK/GD32VW55x_RELEASE_V1.0.2/MSDK/lwip/libcoap-4.3.4/src\coap_subscribe.c ****   if (fp_orig == NULL)
 986:C:/Users/stapi/OneDrive/Desktop/GD32VW553/GD32VW55X_Wifi_BLE_SDK/GD32VW55x_RELEASE_V1.0.2/MSDK/lwip/libcoap-4.3.4/src\coap_subscribe.c ****     return 0;
 987:C:/Users/stapi/OneDrive/Desktop/GD32VW553/GD32VW55X_Wifi_BLE_SDK/GD32VW55x_RELEASE_V1.0.2/MSDK/lwip/libcoap-4.3.4/src\coap_subscribe.c **** 
 988:C:/Users/stapi/OneDrive/Desktop/GD32VW553/GD32VW55X_Wifi_BLE_SDK/GD32VW55x_RELEASE_V1.0.2/MSDK/lwip/libcoap-4.3.4/src\coap_subscribe.c ****   new = coap_malloc_type(COAP_STRING,
 989:C:/Users/stapi/OneDrive/Desktop/GD32VW553/GD32VW55X_Wifi_BLE_SDK/GD32VW55x_RELEASE_V1.0.2/MSDK/lwip/libcoap-4.3.4/src\coap_subscribe.c ****                          context->dyn_resource_save_file->length + 5);
 990:C:/Users/stapi/OneDrive/Desktop/GD32VW553/GD32VW55X_Wifi_BLE_SDK/GD32VW55x_RELEASE_V1.0.2/MSDK/lwip/libcoap-4.3.4/src\coap_subscribe.c ****   if (!new)
 991:C:/Users/stapi/OneDrive/Desktop/GD32VW553/GD32VW55X_Wifi_BLE_SDK/GD32VW55x_RELEASE_V1.0.2/MSDK/lwip/libcoap-4.3.4/src\coap_subscribe.c ****     goto fail;
 992:C:/Users/stapi/OneDrive/Desktop/GD32VW553/GD32VW55X_Wifi_BLE_SDK/GD32VW55x_RELEASE_V1.0.2/MSDK/lwip/libcoap-4.3.4/src\coap_subscribe.c **** 
 993:C:/Users/stapi/OneDrive/Desktop/GD32VW553/GD32VW55X_Wifi_BLE_SDK/GD32VW55x_RELEASE_V1.0.2/MSDK/lwip/libcoap-4.3.4/src\coap_subscribe.c ****   strcpy(new, (const char *)context->dyn_resource_save_file->s);
 994:C:/Users/stapi/OneDrive/Desktop/GD32VW553/GD32VW55X_Wifi_BLE_SDK/GD32VW55x_RELEASE_V1.0.2/MSDK/lwip/libcoap-4.3.4/src\coap_subscribe.c ****   strcat(new, ".tmp");
 995:C:/Users/stapi/OneDrive/Desktop/GD32VW553/GD32VW55X_Wifi_BLE_SDK/GD32VW55x_RELEASE_V1.0.2/MSDK/lwip/libcoap-4.3.4/src\coap_subscribe.c ****   fp_new = fopen(new, "w+");
 996:C:/Users/stapi/OneDrive/Desktop/GD32VW553/GD32VW55X_Wifi_BLE_SDK/GD32VW55x_RELEASE_V1.0.2/MSDK/lwip/libcoap-4.3.4/src\coap_subscribe.c ****   if (fp_new == NULL)
 997:C:/Users/stapi/OneDrive/Desktop/GD32VW553/GD32VW55X_Wifi_BLE_SDK/GD32VW55x_RELEASE_V1.0.2/MSDK/lwip/libcoap-4.3.4/src\coap_subscribe.c ****     goto fail;
 998:C:/Users/stapi/OneDrive/Desktop/GD32VW553/GD32VW55X_Wifi_BLE_SDK/GD32VW55x_RELEASE_V1.0.2/MSDK/lwip/libcoap-4.3.4/src\coap_subscribe.c **** 
 999:C:/Users/stapi/OneDrive/Desktop/GD32VW553/GD32VW55X_Wifi_BLE_SDK/GD32VW55x_RELEASE_V1.0.2/MSDK/lwip/libcoap-4.3.4/src\coap_subscribe.c ****   /* Go through and locate duplicate resource to delete */
1000:C:/Users/stapi/OneDrive/Desktop/GD32VW553/GD32VW55X_Wifi_BLE_SDK/GD32VW55x_RELEASE_V1.0.2/MSDK/lwip/libcoap-4.3.4/src\coap_subscribe.c ****   while (1) {
1001:C:/Users/stapi/OneDrive/Desktop/GD32VW553/GD32VW55X_Wifi_BLE_SDK/GD32VW55x_RELEASE_V1.0.2/MSDK/lwip/libcoap-4.3.4/src\coap_subscribe.c ****     if (!coap_op_dyn_resource_read(fp_orig, &e_proto, &name, &raw_packet))
1002:C:/Users/stapi/OneDrive/Desktop/GD32VW553/GD32VW55X_Wifi_BLE_SDK/GD32VW55x_RELEASE_V1.0.2/MSDK/lwip/libcoap-4.3.4/src\coap_subscribe.c ****       break;
1003:C:/Users/stapi/OneDrive/Desktop/GD32VW553/GD32VW55X_Wifi_BLE_SDK/GD32VW55x_RELEASE_V1.0.2/MSDK/lwip/libcoap-4.3.4/src\coap_subscribe.c ****     if (!coap_string_equal(resource_name, name)) {
1004:C:/Users/stapi/OneDrive/Desktop/GD32VW553/GD32VW55X_Wifi_BLE_SDK/GD32VW55x_RELEASE_V1.0.2/MSDK/lwip/libcoap-4.3.4/src\coap_subscribe.c ****       /* Copy across non-matching entry */
1005:C:/Users/stapi/OneDrive/Desktop/GD32VW553/GD32VW55X_Wifi_BLE_SDK/GD32VW55x_RELEASE_V1.0.2/MSDK/lwip/libcoap-4.3.4/src\coap_subscribe.c ****       if (!coap_op_dyn_resource_write(fp_new, e_proto, (coap_str_const_t *)name,
1006:C:/Users/stapi/OneDrive/Desktop/GD32VW553/GD32VW55X_Wifi_BLE_SDK/GD32VW55x_RELEASE_V1.0.2/MSDK/lwip/libcoap-4.3.4/src\coap_subscribe.c ****                                       (coap_bin_const_t *)raw_packet))
1007:C:/Users/stapi/OneDrive/Desktop/GD32VW553/GD32VW55X_Wifi_BLE_SDK/GD32VW55x_RELEASE_V1.0.2/MSDK/lwip/libcoap-4.3.4/src\coap_subscribe.c ****         break;
1008:C:/Users/stapi/OneDrive/Desktop/GD32VW553/GD32VW55X_Wifi_BLE_SDK/GD32VW55x_RELEASE_V1.0.2/MSDK/lwip/libcoap-4.3.4/src\coap_subscribe.c ****     }
1009:C:/Users/stapi/OneDrive/Desktop/GD32VW553/GD32VW55X_Wifi_BLE_SDK/GD32VW55x_RELEASE_V1.0.2/MSDK/lwip/libcoap-4.3.4/src\coap_subscribe.c ****     coap_delete_string(name);
1010:C:/Users/stapi/OneDrive/Desktop/GD32VW553/GD32VW55X_Wifi_BLE_SDK/GD32VW55x_RELEASE_V1.0.2/MSDK/lwip/libcoap-4.3.4/src\coap_subscribe.c ****     name = NULL;
1011:C:/Users/stapi/OneDrive/Desktop/GD32VW553/GD32VW55X_Wifi_BLE_SDK/GD32VW55x_RELEASE_V1.0.2/MSDK/lwip/libcoap-4.3.4/src\coap_subscribe.c ****     coap_delete_binary(raw_packet);
1012:C:/Users/stapi/OneDrive/Desktop/GD32VW553/GD32VW55X_Wifi_BLE_SDK/GD32VW55x_RELEASE_V1.0.2/MSDK/lwip/libcoap-4.3.4/src\coap_subscribe.c ****     raw_packet = NULL;
1013:C:/Users/stapi/OneDrive/Desktop/GD32VW553/GD32VW55X_Wifi_BLE_SDK/GD32VW55x_RELEASE_V1.0.2/MSDK/lwip/libcoap-4.3.4/src\coap_subscribe.c ****   }
1014:C:/Users/stapi/OneDrive/Desktop/GD32VW553/GD32VW55X_Wifi_BLE_SDK/GD32VW55x_RELEASE_V1.0.2/MSDK/lwip/libcoap-4.3.4/src\coap_subscribe.c ****   coap_delete_string(name);
1015:C:/Users/stapi/OneDrive/Desktop/GD32VW553/GD32VW55X_Wifi_BLE_SDK/GD32VW55x_RELEASE_V1.0.2/MSDK/lwip/libcoap-4.3.4/src\coap_subscribe.c ****   coap_delete_binary(raw_packet);
1016:C:/Users/stapi/OneDrive/Desktop/GD32VW553/GD32VW55X_Wifi_BLE_SDK/GD32VW55x_RELEASE_V1.0.2/MSDK/lwip/libcoap-4.3.4/src\coap_subscribe.c ****   /* Add new entry to the end */
1017:C:/Users/stapi/OneDrive/Desktop/GD32VW553/GD32VW55X_Wifi_BLE_SDK/GD32VW55x_RELEASE_V1.0.2/MSDK/lwip/libcoap-4.3.4/src\coap_subscribe.c ****   if (!coap_op_dyn_resource_write(fp_new, session->proto,
1018:C:/Users/stapi/OneDrive/Desktop/GD32VW553/GD32VW55X_Wifi_BLE_SDK/GD32VW55x_RELEASE_V1.0.2/MSDK/lwip/libcoap-4.3.4/src\coap_subscribe.c ****                                   resource_name, packet))
1019:C:/Users/stapi/OneDrive/Desktop/GD32VW553/GD32VW55X_Wifi_BLE_SDK/GD32VW55x_RELEASE_V1.0.2/MSDK/lwip/libcoap-4.3.4/src\coap_subscribe.c ****     goto fail;
1020:C:/Users/stapi/OneDrive/Desktop/GD32VW553/GD32VW55X_Wifi_BLE_SDK/GD32VW55x_RELEASE_V1.0.2/MSDK/lwip/libcoap-4.3.4/src\coap_subscribe.c **** 
1021:C:/Users/stapi/OneDrive/Desktop/GD32VW553/GD32VW55X_Wifi_BLE_SDK/GD32VW55x_RELEASE_V1.0.2/MSDK/lwip/libcoap-4.3.4/src\coap_subscribe.c ****   if (fflush(fp_new) == EOF)
1022:C:/Users/stapi/OneDrive/Desktop/GD32VW553/GD32VW55X_Wifi_BLE_SDK/GD32VW55x_RELEASE_V1.0.2/MSDK/lwip/libcoap-4.3.4/src\coap_subscribe.c ****     goto fail;
1023:C:/Users/stapi/OneDrive/Desktop/GD32VW553/GD32VW55X_Wifi_BLE_SDK/GD32VW55x_RELEASE_V1.0.2/MSDK/lwip/libcoap-4.3.4/src\coap_subscribe.c ****   fclose(fp_new);
1024:C:/Users/stapi/OneDrive/Desktop/GD32VW553/GD32VW55X_Wifi_BLE_SDK/GD32VW55x_RELEASE_V1.0.2/MSDK/lwip/libcoap-4.3.4/src\coap_subscribe.c ****   fclose(fp_orig);
1025:C:/Users/stapi/OneDrive/Desktop/GD32VW553/GD32VW55X_Wifi_BLE_SDK/GD32VW55x_RELEASE_V1.0.2/MSDK/lwip/libcoap-4.3.4/src\coap_subscribe.c ****   /* Either old or new is in place */
1026:C:/Users/stapi/OneDrive/Desktop/GD32VW553/GD32VW55X_Wifi_BLE_SDK/GD32VW55x_RELEASE_V1.0.2/MSDK/lwip/libcoap-4.3.4/src\coap_subscribe.c ****   (void)rename(new, (const char *)context->dyn_resource_save_file->s);
1027:C:/Users/stapi/OneDrive/Desktop/GD32VW553/GD32VW55X_Wifi_BLE_SDK/GD32VW55x_RELEASE_V1.0.2/MSDK/lwip/libcoap-4.3.4/src\coap_subscribe.c ****   coap_free_type(COAP_STRING, new);
1028:C:/Users/stapi/OneDrive/Desktop/GD32VW553/GD32VW55X_Wifi_BLE_SDK/GD32VW55x_RELEASE_V1.0.2/MSDK/lwip/libcoap-4.3.4/src\coap_subscribe.c ****   return 1;
1029:C:/Users/stapi/OneDrive/Desktop/GD32VW553/GD32VW55X_Wifi_BLE_SDK/GD32VW55x_RELEASE_V1.0.2/MSDK/lwip/libcoap-4.3.4/src\coap_subscribe.c **** 
1030:C:/Users/stapi/OneDrive/Desktop/GD32VW553/GD32VW55X_Wifi_BLE_SDK/GD32VW55x_RELEASE_V1.0.2/MSDK/lwip/libcoap-4.3.4/src\coap_subscribe.c **** fail:
1031:C:/Users/stapi/OneDrive/Desktop/GD32VW553/GD32VW55X_Wifi_BLE_SDK/GD32VW55x_RELEASE_V1.0.2/MSDK/lwip/libcoap-4.3.4/src\coap_subscribe.c ****   if (fp_new)
1032:C:/Users/stapi/OneDrive/Desktop/GD32VW553/GD32VW55X_Wifi_BLE_SDK/GD32VW55x_RELEASE_V1.0.2/MSDK/lwip/libcoap-4.3.4/src\coap_subscribe.c ****     fclose(fp_new);
1033:C:/Users/stapi/OneDrive/Desktop/GD32VW553/GD32VW55X_Wifi_BLE_SDK/GD32VW55x_RELEASE_V1.0.2/MSDK/lwip/libcoap-4.3.4/src\coap_subscribe.c ****   if (fp_orig)
1034:C:/Users/stapi/OneDrive/Desktop/GD32VW553/GD32VW55X_Wifi_BLE_SDK/GD32VW55x_RELEASE_V1.0.2/MSDK/lwip/libcoap-4.3.4/src\coap_subscribe.c ****     fclose(fp_orig);
1035:C:/Users/stapi/OneDrive/Desktop/GD32VW553/GD32VW55X_Wifi_BLE_SDK/GD32VW55x_RELEASE_V1.0.2/MSDK/lwip/libcoap-4.3.4/src\coap_subscribe.c ****   if (new) {
1036:C:/Users/stapi/OneDrive/Desktop/GD32VW553/GD32VW55X_Wifi_BLE_SDK/GD32VW55x_RELEASE_V1.0.2/MSDK/lwip/libcoap-4.3.4/src\coap_subscribe.c ****     (void)remove(new);
1037:C:/Users/stapi/OneDrive/Desktop/GD32VW553/GD32VW55X_Wifi_BLE_SDK/GD32VW55x_RELEASE_V1.0.2/MSDK/lwip/libcoap-4.3.4/src\coap_subscribe.c ****   }
1038:C:/Users/stapi/OneDrive/Desktop/GD32VW553/GD32VW55X_Wifi_BLE_SDK/GD32VW55x_RELEASE_V1.0.2/MSDK/lwip/libcoap-4.3.4/src\coap_subscribe.c ****   coap_free_type(COAP_STRING, new);
1039:C:/Users/stapi/OneDrive/Desktop/GD32VW553/GD32VW55X_Wifi_BLE_SDK/GD32VW55x_RELEASE_V1.0.2/MSDK/lwip/libcoap-4.3.4/src\coap_subscribe.c ****   return 0;
1040:C:/Users/stapi/OneDrive/Desktop/GD32VW553/GD32VW55X_Wifi_BLE_SDK/GD32VW55x_RELEASE_V1.0.2/MSDK/lwip/libcoap-4.3.4/src\coap_subscribe.c **** }
1041:C:/Users/stapi/OneDrive/Desktop/GD32VW553/GD32VW55X_Wifi_BLE_SDK/GD32VW55x_RELEASE_V1.0.2/MSDK/lwip/libcoap-4.3.4/src\coap_subscribe.c **** 
1042:C:/Users/stapi/OneDrive/Desktop/GD32VW553/GD32VW55X_Wifi_BLE_SDK/GD32VW55x_RELEASE_V1.0.2/MSDK/lwip/libcoap-4.3.4/src\coap_subscribe.c **** /*
1043:C:/Users/stapi/OneDrive/Desktop/GD32VW553/GD32VW55X_Wifi_BLE_SDK/GD32VW55x_RELEASE_V1.0.2/MSDK/lwip/libcoap-4.3.4/src\coap_subscribe.c ****  * Server has deleted a resource
1044:C:/Users/stapi/OneDrive/Desktop/GD32VW553/GD32VW55X_Wifi_BLE_SDK/GD32VW55x_RELEASE_V1.0.2/MSDK/lwip/libcoap-4.3.4/src\coap_subscribe.c ****  */
1045:C:/Users/stapi/OneDrive/Desktop/GD32VW553/GD32VW55X_Wifi_BLE_SDK/GD32VW55x_RELEASE_V1.0.2/MSDK/lwip/libcoap-4.3.4/src\coap_subscribe.c **** static int
1046:C:/Users/stapi/OneDrive/Desktop/GD32VW553/GD32VW55X_Wifi_BLE_SDK/GD32VW55x_RELEASE_V1.0.2/MSDK/lwip/libcoap-4.3.4/src\coap_subscribe.c **** coap_op_resource_deleted(coap_context_t *context,
1047:C:/Users/stapi/OneDrive/Desktop/GD32VW553/GD32VW55X_Wifi_BLE_SDK/GD32VW55x_RELEASE_V1.0.2/MSDK/lwip/libcoap-4.3.4/src\coap_subscribe.c ****                          coap_str_const_t *resource_name,
1048:C:/Users/stapi/OneDrive/Desktop/GD32VW553/GD32VW55X_Wifi_BLE_SDK/GD32VW55x_RELEASE_V1.0.2/MSDK/lwip/libcoap-4.3.4/src\coap_subscribe.c ****                          void *user_data) {
1049:C:/Users/stapi/OneDrive/Desktop/GD32VW553/GD32VW55X_Wifi_BLE_SDK/GD32VW55x_RELEASE_V1.0.2/MSDK/lwip/libcoap-4.3.4/src\coap_subscribe.c ****   FILE *fp_orig = NULL;
1050:C:/Users/stapi/OneDrive/Desktop/GD32VW553/GD32VW55X_Wifi_BLE_SDK/GD32VW55x_RELEASE_V1.0.2/MSDK/lwip/libcoap-4.3.4/src\coap_subscribe.c ****   FILE *fp_new = NULL;
1051:C:/Users/stapi/OneDrive/Desktop/GD32VW553/GD32VW55X_Wifi_BLE_SDK/GD32VW55x_RELEASE_V1.0.2/MSDK/lwip/libcoap-4.3.4/src\coap_subscribe.c ****   char *new = NULL;
1052:C:/Users/stapi/OneDrive/Desktop/GD32VW553/GD32VW55X_Wifi_BLE_SDK/GD32VW55x_RELEASE_V1.0.2/MSDK/lwip/libcoap-4.3.4/src\coap_subscribe.c ****   coap_proto_t e_proto;
1053:C:/Users/stapi/OneDrive/Desktop/GD32VW553/GD32VW55X_Wifi_BLE_SDK/GD32VW55x_RELEASE_V1.0.2/MSDK/lwip/libcoap-4.3.4/src\coap_subscribe.c ****   coap_string_t *name = NULL;
1054:C:/Users/stapi/OneDrive/Desktop/GD32VW553/GD32VW55X_Wifi_BLE_SDK/GD32VW55x_RELEASE_V1.0.2/MSDK/lwip/libcoap-4.3.4/src\coap_subscribe.c ****   coap_binary_t *raw_packet = NULL;
1055:C:/Users/stapi/OneDrive/Desktop/GD32VW553/GD32VW55X_Wifi_BLE_SDK/GD32VW55x_RELEASE_V1.0.2/MSDK/lwip/libcoap-4.3.4/src\coap_subscribe.c ****   (void)user_data;
1056:C:/Users/stapi/OneDrive/Desktop/GD32VW553/GD32VW55X_Wifi_BLE_SDK/GD32VW55x_RELEASE_V1.0.2/MSDK/lwip/libcoap-4.3.4/src\coap_subscribe.c **** 
1057:C:/Users/stapi/OneDrive/Desktop/GD32VW553/GD32VW55X_Wifi_BLE_SDK/GD32VW55x_RELEASE_V1.0.2/MSDK/lwip/libcoap-4.3.4/src\coap_subscribe.c ****   coap_op_obs_cnt_deleted(context, resource_name);
1058:C:/Users/stapi/OneDrive/Desktop/GD32VW553/GD32VW55X_Wifi_BLE_SDK/GD32VW55x_RELEASE_V1.0.2/MSDK/lwip/libcoap-4.3.4/src\coap_subscribe.c **** 
1059:C:/Users/stapi/OneDrive/Desktop/GD32VW553/GD32VW55X_Wifi_BLE_SDK/GD32VW55x_RELEASE_V1.0.2/MSDK/lwip/libcoap-4.3.4/src\coap_subscribe.c ****   fp_orig = fopen((const char *)context->dyn_resource_save_file->s, "r");
1060:C:/Users/stapi/OneDrive/Desktop/GD32VW553/GD32VW55X_Wifi_BLE_SDK/GD32VW55x_RELEASE_V1.0.2/MSDK/lwip/libcoap-4.3.4/src\coap_subscribe.c ****   if (fp_orig == NULL)
1061:C:/Users/stapi/OneDrive/Desktop/GD32VW553/GD32VW55X_Wifi_BLE_SDK/GD32VW55x_RELEASE_V1.0.2/MSDK/lwip/libcoap-4.3.4/src\coap_subscribe.c ****     return 1;
1062:C:/Users/stapi/OneDrive/Desktop/GD32VW553/GD32VW55X_Wifi_BLE_SDK/GD32VW55x_RELEASE_V1.0.2/MSDK/lwip/libcoap-4.3.4/src\coap_subscribe.c **** 
1063:C:/Users/stapi/OneDrive/Desktop/GD32VW553/GD32VW55X_Wifi_BLE_SDK/GD32VW55x_RELEASE_V1.0.2/MSDK/lwip/libcoap-4.3.4/src\coap_subscribe.c ****   new = coap_malloc_type(COAP_STRING,
1064:C:/Users/stapi/OneDrive/Desktop/GD32VW553/GD32VW55X_Wifi_BLE_SDK/GD32VW55x_RELEASE_V1.0.2/MSDK/lwip/libcoap-4.3.4/src\coap_subscribe.c ****                          context->dyn_resource_save_file->length + 5);
1065:C:/Users/stapi/OneDrive/Desktop/GD32VW553/GD32VW55X_Wifi_BLE_SDK/GD32VW55x_RELEASE_V1.0.2/MSDK/lwip/libcoap-4.3.4/src\coap_subscribe.c ****   if (!new)
1066:C:/Users/stapi/OneDrive/Desktop/GD32VW553/GD32VW55X_Wifi_BLE_SDK/GD32VW55x_RELEASE_V1.0.2/MSDK/lwip/libcoap-4.3.4/src\coap_subscribe.c ****     goto fail;
1067:C:/Users/stapi/OneDrive/Desktop/GD32VW553/GD32VW55X_Wifi_BLE_SDK/GD32VW55x_RELEASE_V1.0.2/MSDK/lwip/libcoap-4.3.4/src\coap_subscribe.c **** 
1068:C:/Users/stapi/OneDrive/Desktop/GD32VW553/GD32VW55X_Wifi_BLE_SDK/GD32VW55x_RELEASE_V1.0.2/MSDK/lwip/libcoap-4.3.4/src\coap_subscribe.c ****   strcpy(new, (const char *)context->dyn_resource_save_file->s);
1069:C:/Users/stapi/OneDrive/Desktop/GD32VW553/GD32VW55X_Wifi_BLE_SDK/GD32VW55x_RELEASE_V1.0.2/MSDK/lwip/libcoap-4.3.4/src\coap_subscribe.c ****   strcat(new, ".tmp");
1070:C:/Users/stapi/OneDrive/Desktop/GD32VW553/GD32VW55X_Wifi_BLE_SDK/GD32VW55x_RELEASE_V1.0.2/MSDK/lwip/libcoap-4.3.4/src\coap_subscribe.c ****   fp_new = fopen(new, "w+");
1071:C:/Users/stapi/OneDrive/Desktop/GD32VW553/GD32VW55X_Wifi_BLE_SDK/GD32VW55x_RELEASE_V1.0.2/MSDK/lwip/libcoap-4.3.4/src\coap_subscribe.c ****   if (fp_new == NULL)
1072:C:/Users/stapi/OneDrive/Desktop/GD32VW553/GD32VW55X_Wifi_BLE_SDK/GD32VW55x_RELEASE_V1.0.2/MSDK/lwip/libcoap-4.3.4/src\coap_subscribe.c ****     goto fail;
1073:C:/Users/stapi/OneDrive/Desktop/GD32VW553/GD32VW55X_Wifi_BLE_SDK/GD32VW55x_RELEASE_V1.0.2/MSDK/lwip/libcoap-4.3.4/src\coap_subscribe.c **** 
1074:C:/Users/stapi/OneDrive/Desktop/GD32VW553/GD32VW55X_Wifi_BLE_SDK/GD32VW55x_RELEASE_V1.0.2/MSDK/lwip/libcoap-4.3.4/src\coap_subscribe.c ****   /* Go through and locate resource to delete and not copy it across */
1075:C:/Users/stapi/OneDrive/Desktop/GD32VW553/GD32VW55X_Wifi_BLE_SDK/GD32VW55x_RELEASE_V1.0.2/MSDK/lwip/libcoap-4.3.4/src\coap_subscribe.c ****   while (1) {
1076:C:/Users/stapi/OneDrive/Desktop/GD32VW553/GD32VW55X_Wifi_BLE_SDK/GD32VW55x_RELEASE_V1.0.2/MSDK/lwip/libcoap-4.3.4/src\coap_subscribe.c ****     if (!coap_op_dyn_resource_read(fp_orig, &e_proto, &name, &raw_packet))
1077:C:/Users/stapi/OneDrive/Desktop/GD32VW553/GD32VW55X_Wifi_BLE_SDK/GD32VW55x_RELEASE_V1.0.2/MSDK/lwip/libcoap-4.3.4/src\coap_subscribe.c ****       break;
1078:C:/Users/stapi/OneDrive/Desktop/GD32VW553/GD32VW55X_Wifi_BLE_SDK/GD32VW55x_RELEASE_V1.0.2/MSDK/lwip/libcoap-4.3.4/src\coap_subscribe.c ****     if (!coap_string_equal(resource_name, name)) {
1079:C:/Users/stapi/OneDrive/Desktop/GD32VW553/GD32VW55X_Wifi_BLE_SDK/GD32VW55x_RELEASE_V1.0.2/MSDK/lwip/libcoap-4.3.4/src\coap_subscribe.c ****       /* Copy across non-matching entry */
1080:C:/Users/stapi/OneDrive/Desktop/GD32VW553/GD32VW55X_Wifi_BLE_SDK/GD32VW55x_RELEASE_V1.0.2/MSDK/lwip/libcoap-4.3.4/src\coap_subscribe.c ****       if (!coap_op_dyn_resource_write(fp_new, e_proto, (coap_str_const_t *)name,
1081:C:/Users/stapi/OneDrive/Desktop/GD32VW553/GD32VW55X_Wifi_BLE_SDK/GD32VW55x_RELEASE_V1.0.2/MSDK/lwip/libcoap-4.3.4/src\coap_subscribe.c ****                                       (coap_bin_const_t *)raw_packet))
1082:C:/Users/stapi/OneDrive/Desktop/GD32VW553/GD32VW55X_Wifi_BLE_SDK/GD32VW55x_RELEASE_V1.0.2/MSDK/lwip/libcoap-4.3.4/src\coap_subscribe.c ****         break;
1083:C:/Users/stapi/OneDrive/Desktop/GD32VW553/GD32VW55X_Wifi_BLE_SDK/GD32VW55x_RELEASE_V1.0.2/MSDK/lwip/libcoap-4.3.4/src\coap_subscribe.c ****     }
1084:C:/Users/stapi/OneDrive/Desktop/GD32VW553/GD32VW55X_Wifi_BLE_SDK/GD32VW55x_RELEASE_V1.0.2/MSDK/lwip/libcoap-4.3.4/src\coap_subscribe.c ****     coap_delete_string(name);
1085:C:/Users/stapi/OneDrive/Desktop/GD32VW553/GD32VW55X_Wifi_BLE_SDK/GD32VW55x_RELEASE_V1.0.2/MSDK/lwip/libcoap-4.3.4/src\coap_subscribe.c ****     name = NULL;
1086:C:/Users/stapi/OneDrive/Desktop/GD32VW553/GD32VW55X_Wifi_BLE_SDK/GD32VW55x_RELEASE_V1.0.2/MSDK/lwip/libcoap-4.3.4/src\coap_subscribe.c ****     coap_delete_binary(raw_packet);
1087:C:/Users/stapi/OneDrive/Desktop/GD32VW553/GD32VW55X_Wifi_BLE_SDK/GD32VW55x_RELEASE_V1.0.2/MSDK/lwip/libcoap-4.3.4/src\coap_subscribe.c ****     raw_packet = NULL;
1088:C:/Users/stapi/OneDrive/Desktop/GD32VW553/GD32VW55X_Wifi_BLE_SDK/GD32VW55x_RELEASE_V1.0.2/MSDK/lwip/libcoap-4.3.4/src\coap_subscribe.c ****   }
1089:C:/Users/stapi/OneDrive/Desktop/GD32VW553/GD32VW55X_Wifi_BLE_SDK/GD32VW55x_RELEASE_V1.0.2/MSDK/lwip/libcoap-4.3.4/src\coap_subscribe.c ****   coap_delete_string(name);
1090:C:/Users/stapi/OneDrive/Desktop/GD32VW553/GD32VW55X_Wifi_BLE_SDK/GD32VW55x_RELEASE_V1.0.2/MSDK/lwip/libcoap-4.3.4/src\coap_subscribe.c ****   coap_delete_binary(raw_packet);
1091:C:/Users/stapi/OneDrive/Desktop/GD32VW553/GD32VW55X_Wifi_BLE_SDK/GD32VW55x_RELEASE_V1.0.2/MSDK/lwip/libcoap-4.3.4/src\coap_subscribe.c **** 
1092:C:/Users/stapi/OneDrive/Desktop/GD32VW553/GD32VW55X_Wifi_BLE_SDK/GD32VW55x_RELEASE_V1.0.2/MSDK/lwip/libcoap-4.3.4/src\coap_subscribe.c ****   if (fflush(fp_new) == EOF)
1093:C:/Users/stapi/OneDrive/Desktop/GD32VW553/GD32VW55X_Wifi_BLE_SDK/GD32VW55x_RELEASE_V1.0.2/MSDK/lwip/libcoap-4.3.4/src\coap_subscribe.c ****     goto fail;
1094:C:/Users/stapi/OneDrive/Desktop/GD32VW553/GD32VW55X_Wifi_BLE_SDK/GD32VW55x_RELEASE_V1.0.2/MSDK/lwip/libcoap-4.3.4/src\coap_subscribe.c ****   fclose(fp_new);
1095:C:/Users/stapi/OneDrive/Desktop/GD32VW553/GD32VW55X_Wifi_BLE_SDK/GD32VW55x_RELEASE_V1.0.2/MSDK/lwip/libcoap-4.3.4/src\coap_subscribe.c ****   fclose(fp_orig);
1096:C:/Users/stapi/OneDrive/Desktop/GD32VW553/GD32VW55X_Wifi_BLE_SDK/GD32VW55x_RELEASE_V1.0.2/MSDK/lwip/libcoap-4.3.4/src\coap_subscribe.c ****   /* Either old or new is in place */
1097:C:/Users/stapi/OneDrive/Desktop/GD32VW553/GD32VW55X_Wifi_BLE_SDK/GD32VW55x_RELEASE_V1.0.2/MSDK/lwip/libcoap-4.3.4/src\coap_subscribe.c ****   (void)rename(new, (const char *)context->dyn_resource_save_file->s);
1098:C:/Users/stapi/OneDrive/Desktop/GD32VW553/GD32VW55X_Wifi_BLE_SDK/GD32VW55x_RELEASE_V1.0.2/MSDK/lwip/libcoap-4.3.4/src\coap_subscribe.c ****   coap_free_type(COAP_STRING, new);
1099:C:/Users/stapi/OneDrive/Desktop/GD32VW553/GD32VW55X_Wifi_BLE_SDK/GD32VW55x_RELEASE_V1.0.2/MSDK/lwip/libcoap-4.3.4/src\coap_subscribe.c ****   return 1;
1100:C:/Users/stapi/OneDrive/Desktop/GD32VW553/GD32VW55X_Wifi_BLE_SDK/GD32VW55x_RELEASE_V1.0.2/MSDK/lwip/libcoap-4.3.4/src\coap_subscribe.c **** 
1101:C:/Users/stapi/OneDrive/Desktop/GD32VW553/GD32VW55X_Wifi_BLE_SDK/GD32VW55x_RELEASE_V1.0.2/MSDK/lwip/libcoap-4.3.4/src\coap_subscribe.c **** fail:
1102:C:/Users/stapi/OneDrive/Desktop/GD32VW553/GD32VW55X_Wifi_BLE_SDK/GD32VW55x_RELEASE_V1.0.2/MSDK/lwip/libcoap-4.3.4/src\coap_subscribe.c ****   if (fp_new)
1103:C:/Users/stapi/OneDrive/Desktop/GD32VW553/GD32VW55X_Wifi_BLE_SDK/GD32VW55x_RELEASE_V1.0.2/MSDK/lwip/libcoap-4.3.4/src\coap_subscribe.c ****     fclose(fp_new);
1104:C:/Users/stapi/OneDrive/Desktop/GD32VW553/GD32VW55X_Wifi_BLE_SDK/GD32VW55x_RELEASE_V1.0.2/MSDK/lwip/libcoap-4.3.4/src\coap_subscribe.c ****   if (fp_orig)
1105:C:/Users/stapi/OneDrive/Desktop/GD32VW553/GD32VW55X_Wifi_BLE_SDK/GD32VW55x_RELEASE_V1.0.2/MSDK/lwip/libcoap-4.3.4/src\coap_subscribe.c ****     fclose(fp_orig);
1106:C:/Users/stapi/OneDrive/Desktop/GD32VW553/GD32VW55X_Wifi_BLE_SDK/GD32VW55x_RELEASE_V1.0.2/MSDK/lwip/libcoap-4.3.4/src\coap_subscribe.c ****   if (new) {
1107:C:/Users/stapi/OneDrive/Desktop/GD32VW553/GD32VW55X_Wifi_BLE_SDK/GD32VW55x_RELEASE_V1.0.2/MSDK/lwip/libcoap-4.3.4/src\coap_subscribe.c ****     (void)remove(new);
1108:C:/Users/stapi/OneDrive/Desktop/GD32VW553/GD32VW55X_Wifi_BLE_SDK/GD32VW55x_RELEASE_V1.0.2/MSDK/lwip/libcoap-4.3.4/src\coap_subscribe.c ****   }
1109:C:/Users/stapi/OneDrive/Desktop/GD32VW553/GD32VW55X_Wifi_BLE_SDK/GD32VW55x_RELEASE_V1.0.2/MSDK/lwip/libcoap-4.3.4/src\coap_subscribe.c ****   coap_free_type(COAP_STRING, new);
1110:C:/Users/stapi/OneDrive/Desktop/GD32VW553/GD32VW55X_Wifi_BLE_SDK/GD32VW55x_RELEASE_V1.0.2/MSDK/lwip/libcoap-4.3.4/src\coap_subscribe.c ****   return 0;
1111:C:/Users/stapi/OneDrive/Desktop/GD32VW553/GD32VW55X_Wifi_BLE_SDK/GD32VW55x_RELEASE_V1.0.2/MSDK/lwip/libcoap-4.3.4/src\coap_subscribe.c **** }
1112:C:/Users/stapi/OneDrive/Desktop/GD32VW553/GD32VW55X_Wifi_BLE_SDK/GD32VW55x_RELEASE_V1.0.2/MSDK/lwip/libcoap-4.3.4/src\coap_subscribe.c **** 
1113:C:/Users/stapi/OneDrive/Desktop/GD32VW553/GD32VW55X_Wifi_BLE_SDK/GD32VW55x_RELEASE_V1.0.2/MSDK/lwip/libcoap-4.3.4/src\coap_subscribe.c **** int
1114:C:/Users/stapi/OneDrive/Desktop/GD32VW553/GD32VW55X_Wifi_BLE_SDK/GD32VW55x_RELEASE_V1.0.2/MSDK/lwip/libcoap-4.3.4/src\coap_subscribe.c **** coap_persist_startup(coap_context_t *context,
1115:C:/Users/stapi/OneDrive/Desktop/GD32VW553/GD32VW55X_Wifi_BLE_SDK/GD32VW55x_RELEASE_V1.0.2/MSDK/lwip/libcoap-4.3.4/src\coap_subscribe.c ****                      const char *dyn_resource_save_file,
1116:C:/Users/stapi/OneDrive/Desktop/GD32VW553/GD32VW55X_Wifi_BLE_SDK/GD32VW55x_RELEASE_V1.0.2/MSDK/lwip/libcoap-4.3.4/src\coap_subscribe.c ****                      const char *observe_save_file,
1117:C:/Users/stapi/OneDrive/Desktop/GD32VW553/GD32VW55X_Wifi_BLE_SDK/GD32VW55x_RELEASE_V1.0.2/MSDK/lwip/libcoap-4.3.4/src\coap_subscribe.c ****                      const char *obs_cnt_save_file,
1118:C:/Users/stapi/OneDrive/Desktop/GD32VW553/GD32VW55X_Wifi_BLE_SDK/GD32VW55x_RELEASE_V1.0.2/MSDK/lwip/libcoap-4.3.4/src\coap_subscribe.c ****                      uint32_t save_freq) {
1119:C:/Users/stapi/OneDrive/Desktop/GD32VW553/GD32VW55X_Wifi_BLE_SDK/GD32VW55x_RELEASE_V1.0.2/MSDK/lwip/libcoap-4.3.4/src\coap_subscribe.c ****   if (dyn_resource_save_file) {
1120:C:/Users/stapi/OneDrive/Desktop/GD32VW553/GD32VW55X_Wifi_BLE_SDK/GD32VW55x_RELEASE_V1.0.2/MSDK/lwip/libcoap-4.3.4/src\coap_subscribe.c ****     context->dyn_resource_save_file =
1121:C:/Users/stapi/OneDrive/Desktop/GD32VW553/GD32VW55X_Wifi_BLE_SDK/GD32VW55x_RELEASE_V1.0.2/MSDK/lwip/libcoap-4.3.4/src\coap_subscribe.c ****         coap_new_bin_const((const uint8_t *)dyn_resource_save_file,
1122:C:/Users/stapi/OneDrive/Desktop/GD32VW553/GD32VW55X_Wifi_BLE_SDK/GD32VW55x_RELEASE_V1.0.2/MSDK/lwip/libcoap-4.3.4/src\coap_subscribe.c ****                            strlen(dyn_resource_save_file));
1123:C:/Users/stapi/OneDrive/Desktop/GD32VW553/GD32VW55X_Wifi_BLE_SDK/GD32VW55x_RELEASE_V1.0.2/MSDK/lwip/libcoap-4.3.4/src\coap_subscribe.c ****     if (!context->dyn_resource_save_file)
1124:C:/Users/stapi/OneDrive/Desktop/GD32VW553/GD32VW55X_Wifi_BLE_SDK/GD32VW55x_RELEASE_V1.0.2/MSDK/lwip/libcoap-4.3.4/src\coap_subscribe.c ****       return 0;
1125:C:/Users/stapi/OneDrive/Desktop/GD32VW553/GD32VW55X_Wifi_BLE_SDK/GD32VW55x_RELEASE_V1.0.2/MSDK/lwip/libcoap-4.3.4/src\coap_subscribe.c ****     coap_op_dyn_resource_load_disk(context);
1126:C:/Users/stapi/OneDrive/Desktop/GD32VW553/GD32VW55X_Wifi_BLE_SDK/GD32VW55x_RELEASE_V1.0.2/MSDK/lwip/libcoap-4.3.4/src\coap_subscribe.c ****     context->dyn_resource_added = coap_op_dyn_resource_added;
1127:C:/Users/stapi/OneDrive/Desktop/GD32VW553/GD32VW55X_Wifi_BLE_SDK/GD32VW55x_RELEASE_V1.0.2/MSDK/lwip/libcoap-4.3.4/src\coap_subscribe.c ****     context->resource_deleted = coap_op_resource_deleted;
1128:C:/Users/stapi/OneDrive/Desktop/GD32VW553/GD32VW55X_Wifi_BLE_SDK/GD32VW55x_RELEASE_V1.0.2/MSDK/lwip/libcoap-4.3.4/src\coap_subscribe.c ****   }
1129:C:/Users/stapi/OneDrive/Desktop/GD32VW553/GD32VW55X_Wifi_BLE_SDK/GD32VW55x_RELEASE_V1.0.2/MSDK/lwip/libcoap-4.3.4/src\coap_subscribe.c ****   if (obs_cnt_save_file) {
1130:C:/Users/stapi/OneDrive/Desktop/GD32VW553/GD32VW55X_Wifi_BLE_SDK/GD32VW55x_RELEASE_V1.0.2/MSDK/lwip/libcoap-4.3.4/src\coap_subscribe.c ****     context->obs_cnt_save_file =
1131:C:/Users/stapi/OneDrive/Desktop/GD32VW553/GD32VW55X_Wifi_BLE_SDK/GD32VW55x_RELEASE_V1.0.2/MSDK/lwip/libcoap-4.3.4/src\coap_subscribe.c ****         coap_new_bin_const((const uint8_t *)obs_cnt_save_file,
1132:C:/Users/stapi/OneDrive/Desktop/GD32VW553/GD32VW55X_Wifi_BLE_SDK/GD32VW55x_RELEASE_V1.0.2/MSDK/lwip/libcoap-4.3.4/src\coap_subscribe.c ****                            strlen(obs_cnt_save_file));
1133:C:/Users/stapi/OneDrive/Desktop/GD32VW553/GD32VW55X_Wifi_BLE_SDK/GD32VW55x_RELEASE_V1.0.2/MSDK/lwip/libcoap-4.3.4/src\coap_subscribe.c ****     if (!context->obs_cnt_save_file)
1134:C:/Users/stapi/OneDrive/Desktop/GD32VW553/GD32VW55X_Wifi_BLE_SDK/GD32VW55x_RELEASE_V1.0.2/MSDK/lwip/libcoap-4.3.4/src\coap_subscribe.c ****       return 0;
1135:C:/Users/stapi/OneDrive/Desktop/GD32VW553/GD32VW55X_Wifi_BLE_SDK/GD32VW55x_RELEASE_V1.0.2/MSDK/lwip/libcoap-4.3.4/src\coap_subscribe.c ****     context->observe_save_freq = save_freq ? save_freq : 1;
1136:C:/Users/stapi/OneDrive/Desktop/GD32VW553/GD32VW55X_Wifi_BLE_SDK/GD32VW55x_RELEASE_V1.0.2/MSDK/lwip/libcoap-4.3.4/src\coap_subscribe.c ****     coap_op_obs_cnt_load_disk(context);
1137:C:/Users/stapi/OneDrive/Desktop/GD32VW553/GD32VW55X_Wifi_BLE_SDK/GD32VW55x_RELEASE_V1.0.2/MSDK/lwip/libcoap-4.3.4/src\coap_subscribe.c ****     context->track_observe_value = coap_op_obs_cnt_track_observe;
1138:C:/Users/stapi/OneDrive/Desktop/GD32VW553/GD32VW55X_Wifi_BLE_SDK/GD32VW55x_RELEASE_V1.0.2/MSDK/lwip/libcoap-4.3.4/src\coap_subscribe.c ****     context->resource_deleted = coap_op_resource_deleted;
1139:C:/Users/stapi/OneDrive/Desktop/GD32VW553/GD32VW55X_Wifi_BLE_SDK/GD32VW55x_RELEASE_V1.0.2/MSDK/lwip/libcoap-4.3.4/src\coap_subscribe.c ****   }
1140:C:/Users/stapi/OneDrive/Desktop/GD32VW553/GD32VW55X_Wifi_BLE_SDK/GD32VW55x_RELEASE_V1.0.2/MSDK/lwip/libcoap-4.3.4/src\coap_subscribe.c ****   if (observe_save_file) {
1141:C:/Users/stapi/OneDrive/Desktop/GD32VW553/GD32VW55X_Wifi_BLE_SDK/GD32VW55x_RELEASE_V1.0.2/MSDK/lwip/libcoap-4.3.4/src\coap_subscribe.c ****     context->observe_save_file =
1142:C:/Users/stapi/OneDrive/Desktop/GD32VW553/GD32VW55X_Wifi_BLE_SDK/GD32VW55x_RELEASE_V1.0.2/MSDK/lwip/libcoap-4.3.4/src\coap_subscribe.c ****         coap_new_bin_const((const uint8_t *)observe_save_file,
1143:C:/Users/stapi/OneDrive/Desktop/GD32VW553/GD32VW55X_Wifi_BLE_SDK/GD32VW55x_RELEASE_V1.0.2/MSDK/lwip/libcoap-4.3.4/src\coap_subscribe.c ****                            strlen(observe_save_file));
1144:C:/Users/stapi/OneDrive/Desktop/GD32VW553/GD32VW55X_Wifi_BLE_SDK/GD32VW55x_RELEASE_V1.0.2/MSDK/lwip/libcoap-4.3.4/src\coap_subscribe.c ****     if (!context->observe_save_file)
1145:C:/Users/stapi/OneDrive/Desktop/GD32VW553/GD32VW55X_Wifi_BLE_SDK/GD32VW55x_RELEASE_V1.0.2/MSDK/lwip/libcoap-4.3.4/src\coap_subscribe.c ****       return 0;
1146:C:/Users/stapi/OneDrive/Desktop/GD32VW553/GD32VW55X_Wifi_BLE_SDK/GD32VW55x_RELEASE_V1.0.2/MSDK/lwip/libcoap-4.3.4/src\coap_subscribe.c ****     coap_op_observe_load_disk(context);
1147:C:/Users/stapi/OneDrive/Desktop/GD32VW553/GD32VW55X_Wifi_BLE_SDK/GD32VW55x_RELEASE_V1.0.2/MSDK/lwip/libcoap-4.3.4/src\coap_subscribe.c ****     context->observe_added = coap_op_observe_added;
1148:C:/Users/stapi/OneDrive/Desktop/GD32VW553/GD32VW55X_Wifi_BLE_SDK/GD32VW55x_RELEASE_V1.0.2/MSDK/lwip/libcoap-4.3.4/src\coap_subscribe.c ****     context->observe_deleted = coap_op_observe_deleted;
1149:C:/Users/stapi/OneDrive/Desktop/GD32VW553/GD32VW55X_Wifi_BLE_SDK/GD32VW55x_RELEASE_V1.0.2/MSDK/lwip/libcoap-4.3.4/src\coap_subscribe.c ****   }
1150:C:/Users/stapi/OneDrive/Desktop/GD32VW553/GD32VW55X_Wifi_BLE_SDK/GD32VW55x_RELEASE_V1.0.2/MSDK/lwip/libcoap-4.3.4/src\coap_subscribe.c ****   return 1;
1151:C:/Users/stapi/OneDrive/Desktop/GD32VW553/GD32VW55X_Wifi_BLE_SDK/GD32VW55x_RELEASE_V1.0.2/MSDK/lwip/libcoap-4.3.4/src\coap_subscribe.c **** }
1152:C:/Users/stapi/OneDrive/Desktop/GD32VW553/GD32VW55X_Wifi_BLE_SDK/GD32VW55x_RELEASE_V1.0.2/MSDK/lwip/libcoap-4.3.4/src\coap_subscribe.c **** 
1153:C:/Users/stapi/OneDrive/Desktop/GD32VW553/GD32VW55X_Wifi_BLE_SDK/GD32VW55x_RELEASE_V1.0.2/MSDK/lwip/libcoap-4.3.4/src\coap_subscribe.c **** void
1154:C:/Users/stapi/OneDrive/Desktop/GD32VW553/GD32VW55X_Wifi_BLE_SDK/GD32VW55x_RELEASE_V1.0.2/MSDK/lwip/libcoap-4.3.4/src\coap_subscribe.c **** coap_persist_cleanup(coap_context_t *context) {
1155:C:/Users/stapi/OneDrive/Desktop/GD32VW553/GD32VW55X_Wifi_BLE_SDK/GD32VW55x_RELEASE_V1.0.2/MSDK/lwip/libcoap-4.3.4/src\coap_subscribe.c ****   coap_delete_bin_const(context->dyn_resource_save_file);
1156:C:/Users/stapi/OneDrive/Desktop/GD32VW553/GD32VW55X_Wifi_BLE_SDK/GD32VW55x_RELEASE_V1.0.2/MSDK/lwip/libcoap-4.3.4/src\coap_subscribe.c ****   coap_delete_bin_const(context->obs_cnt_save_file);
1157:C:/Users/stapi/OneDrive/Desktop/GD32VW553/GD32VW55X_Wifi_BLE_SDK/GD32VW55x_RELEASE_V1.0.2/MSDK/lwip/libcoap-4.3.4/src\coap_subscribe.c ****   coap_delete_bin_const(context->observe_save_file);
1158:C:/Users/stapi/OneDrive/Desktop/GD32VW553/GD32VW55X_Wifi_BLE_SDK/GD32VW55x_RELEASE_V1.0.2/MSDK/lwip/libcoap-4.3.4/src\coap_subscribe.c ****   context->dyn_resource_save_file = NULL;
1159:C:/Users/stapi/OneDrive/Desktop/GD32VW553/GD32VW55X_Wifi_BLE_SDK/GD32VW55x_RELEASE_V1.0.2/MSDK/lwip/libcoap-4.3.4/src\coap_subscribe.c ****   context->obs_cnt_save_file = NULL;
1160:C:/Users/stapi/OneDrive/Desktop/GD32VW553/GD32VW55X_Wifi_BLE_SDK/GD32VW55x_RELEASE_V1.0.2/MSDK/lwip/libcoap-4.3.4/src\coap_subscribe.c ****   context->observe_save_file = NULL;
1161:C:/Users/stapi/OneDrive/Desktop/GD32VW553/GD32VW55X_Wifi_BLE_SDK/GD32VW55x_RELEASE_V1.0.2/MSDK/lwip/libcoap-4.3.4/src\coap_subscribe.c **** 
1162:C:/Users/stapi/OneDrive/Desktop/GD32VW553/GD32VW55X_Wifi_BLE_SDK/GD32VW55x_RELEASE_V1.0.2/MSDK/lwip/libcoap-4.3.4/src\coap_subscribe.c ****   /* Close down any tracking */
1163:C:/Users/stapi/OneDrive/Desktop/GD32VW553/GD32VW55X_Wifi_BLE_SDK/GD32VW55x_RELEASE_V1.0.2/MSDK/lwip/libcoap-4.3.4/src\coap_subscribe.c ****   coap_persist_track_funcs(context, NULL, NULL, NULL, NULL,
1164:C:/Users/stapi/OneDrive/Desktop/GD32VW553/GD32VW55X_Wifi_BLE_SDK/GD32VW55x_RELEASE_V1.0.2/MSDK/lwip/libcoap-4.3.4/src\coap_subscribe.c ****                            NULL, 0, NULL);
1165:C:/Users/stapi/OneDrive/Desktop/GD32VW553/GD32VW55X_Wifi_BLE_SDK/GD32VW55x_RELEASE_V1.0.2/MSDK/lwip/libcoap-4.3.4/src\coap_subscribe.c **** }
1166:C:/Users/stapi/OneDrive/Desktop/GD32VW553/GD32VW55X_Wifi_BLE_SDK/GD32VW55x_RELEASE_V1.0.2/MSDK/lwip/libcoap-4.3.4/src\coap_subscribe.c **** 
1167:C:/Users/stapi/OneDrive/Desktop/GD32VW553/GD32VW55X_Wifi_BLE_SDK/GD32VW55x_RELEASE_V1.0.2/MSDK/lwip/libcoap-4.3.4/src\coap_subscribe.c **** void
1168:C:/Users/stapi/OneDrive/Desktop/GD32VW553/GD32VW55X_Wifi_BLE_SDK/GD32VW55x_RELEASE_V1.0.2/MSDK/lwip/libcoap-4.3.4/src\coap_subscribe.c **** coap_persist_stop(coap_context_t *context) {
1169:C:/Users/stapi/OneDrive/Desktop/GD32VW553/GD32VW55X_Wifi_BLE_SDK/GD32VW55x_RELEASE_V1.0.2/MSDK/lwip/libcoap-4.3.4/src\coap_subscribe.c ****   if (context == NULL)
1170:C:/Users/stapi/OneDrive/Desktop/GD32VW553/GD32VW55X_Wifi_BLE_SDK/GD32VW55x_RELEASE_V1.0.2/MSDK/lwip/libcoap-4.3.4/src\coap_subscribe.c ****     return;
1171:C:/Users/stapi/OneDrive/Desktop/GD32VW553/GD32VW55X_Wifi_BLE_SDK/GD32VW55x_RELEASE_V1.0.2/MSDK/lwip/libcoap-4.3.4/src\coap_subscribe.c ****   context->observe_no_clear = 1;
1172:C:/Users/stapi/OneDrive/Desktop/GD32VW553/GD32VW55X_Wifi_BLE_SDK/GD32VW55x_RELEASE_V1.0.2/MSDK/lwip/libcoap-4.3.4/src\coap_subscribe.c ****   coap_persist_cleanup(context);
1173:C:/Users/stapi/OneDrive/Desktop/GD32VW553/GD32VW55X_Wifi_BLE_SDK/GD32VW55x_RELEASE_V1.0.2/MSDK/lwip/libcoap-4.3.4/src\coap_subscribe.c **** }
1174:C:/Users/stapi/OneDrive/Desktop/GD32VW553/GD32VW55X_Wifi_BLE_SDK/GD32VW55x_RELEASE_V1.0.2/MSDK/lwip/libcoap-4.3.4/src\coap_subscribe.c **** #else /* ! COAP_WITH_OBSERVE_PERSIST */
1175:C:/Users/stapi/OneDrive/Desktop/GD32VW553/GD32VW55X_Wifi_BLE_SDK/GD32VW55x_RELEASE_V1.0.2/MSDK/lwip/libcoap-4.3.4/src\coap_subscribe.c **** int
1176:C:/Users/stapi/OneDrive/Desktop/GD32VW553/GD32VW55X_Wifi_BLE_SDK/GD32VW55x_RELEASE_V1.0.2/MSDK/lwip/libcoap-4.3.4/src\coap_subscribe.c **** coap_persist_startup(coap_context_t *context,
1177:C:/Users/stapi/OneDrive/Desktop/GD32VW553/GD32VW55X_Wifi_BLE_SDK/GD32VW55x_RELEASE_V1.0.2/MSDK/lwip/libcoap-4.3.4/src\coap_subscribe.c ****                      const char *dyn_resource_save_file,
1178:C:/Users/stapi/OneDrive/Desktop/GD32VW553/GD32VW55X_Wifi_BLE_SDK/GD32VW55x_RELEASE_V1.0.2/MSDK/lwip/libcoap-4.3.4/src\coap_subscribe.c ****                      const char *observe_save_file,
1179:C:/Users/stapi/OneDrive/Desktop/GD32VW553/GD32VW55X_Wifi_BLE_SDK/GD32VW55x_RELEASE_V1.0.2/MSDK/lwip/libcoap-4.3.4/src\coap_subscribe.c ****                      const char *obs_cnt_save_file,
1180:C:/Users/stapi/OneDrive/Desktop/GD32VW553/GD32VW55X_Wifi_BLE_SDK/GD32VW55x_RELEASE_V1.0.2/MSDK/lwip/libcoap-4.3.4/src\coap_subscribe.c ****                      uint32_t save_freq) {
 475              		.loc 1 1180 42
 476              		.cfi_startproc
 477              	.LVL66:
1181:C:/Users/stapi/OneDrive/Desktop/GD32VW553/GD32VW55X_Wifi_BLE_SDK/GD32VW55x_RELEASE_V1.0.2/MSDK/lwip/libcoap-4.3.4/src\coap_subscribe.c ****   (void)context;
 478              		.loc 1 1181 3
1182:C:/Users/stapi/OneDrive/Desktop/GD32VW553/GD32VW55X_Wifi_BLE_SDK/GD32VW55x_RELEASE_V1.0.2/MSDK/lwip/libcoap-4.3.4/src\coap_subscribe.c ****   (void)dyn_resource_save_file;
 479              		.loc 1 1182 3
1183:C:/Users/stapi/OneDrive/Desktop/GD32VW553/GD32VW55X_Wifi_BLE_SDK/GD32VW55x_RELEASE_V1.0.2/MSDK/lwip/libcoap-4.3.4/src\coap_subscribe.c ****   (void)observe_save_file;
 480              		.loc 1 1183 3
1184:C:/Users/stapi/OneDrive/Desktop/GD32VW553/GD32VW55X_Wifi_BLE_SDK/GD32VW55x_RELEASE_V1.0.2/MSDK/lwip/libcoap-4.3.4/src\coap_subscribe.c ****   (void)obs_cnt_save_file;
 481              		.loc 1 1184 3
1185:C:/Users/stapi/OneDrive/Desktop/GD32VW553/GD32VW55X_Wifi_BLE_SDK/GD32VW55x_RELEASE_V1.0.2/MSDK/lwip/libcoap-4.3.4/src\coap_subscribe.c ****   (void)save_freq;
 482              		.loc 1 1185 3
1186:C:/Users/stapi/OneDrive/Desktop/GD32VW553/GD32VW55X_Wifi_BLE_SDK/GD32VW55x_RELEASE_V1.0.2/MSDK/lwip/libcoap-4.3.4/src\coap_subscribe.c ****   return 0;
 483              		.loc 1 1186 3
1187:C:/Users/stapi/OneDrive/Desktop/GD32VW553/GD32VW55X_Wifi_BLE_SDK/GD32VW55x_RELEASE_V1.0.2/MSDK/lwip/libcoap-4.3.4/src\coap_subscribe.c **** }
 484              		.loc 1 1187 1 is_stmt 0
 485 0000 0145     		li	a0,0
 486              	.LVL67:
 487 0002 8280     		ret
 488              		.cfi_endproc
 489              	.LFE34:
 491              		.section	.text.coap_persist_stop,"ax",@progbits
 492              		.align	1
 493              		.globl	coap_persist_stop
 495              	coap_persist_stop:
 496              	.LFB35:
1188:C:/Users/stapi/OneDrive/Desktop/GD32VW553/GD32VW55X_Wifi_BLE_SDK/GD32VW55x_RELEASE_V1.0.2/MSDK/lwip/libcoap-4.3.4/src\coap_subscribe.c **** 
1189:C:/Users/stapi/OneDrive/Desktop/GD32VW553/GD32VW55X_Wifi_BLE_SDK/GD32VW55x_RELEASE_V1.0.2/MSDK/lwip/libcoap-4.3.4/src\coap_subscribe.c **** void
1190:C:/Users/stapi/OneDrive/Desktop/GD32VW553/GD32VW55X_Wifi_BLE_SDK/GD32VW55x_RELEASE_V1.0.2/MSDK/lwip/libcoap-4.3.4/src\coap_subscribe.c **** coap_persist_stop(coap_context_t *context) {
 497              		.loc 1 1190 44 is_stmt 1
 498              		.cfi_startproc
 499              	.LVL68:
1191:C:/Users/stapi/OneDrive/Desktop/GD32VW553/GD32VW55X_Wifi_BLE_SDK/GD32VW55x_RELEASE_V1.0.2/MSDK/lwip/libcoap-4.3.4/src\coap_subscribe.c ****   context->observe_no_clear = 1;
 500              		.loc 1 1191 3
 501              		.loc 1 1191 29 is_stmt 0
 502 0000 8547     		li	a5,1
 503 0002 A30CF51C 		sb	a5,473(a0)
1192:C:/Users/stapi/OneDrive/Desktop/GD32VW553/GD32VW55X_Wifi_BLE_SDK/GD32VW55x_RELEASE_V1.0.2/MSDK/lwip/libcoap-4.3.4/src\coap_subscribe.c ****   /* Close down any tracking */
1193:C:/Users/stapi/OneDrive/Desktop/GD32VW553/GD32VW55X_Wifi_BLE_SDK/GD32VW55x_RELEASE_V1.0.2/MSDK/lwip/libcoap-4.3.4/src\coap_subscribe.c ****   coap_persist_track_funcs(context, NULL, NULL, NULL, NULL,
 504              		.loc 1 1193 3 is_stmt 1
 505              	.LVL69:
 506              	.LBB8:
 507              	.LBB9:
  39:C:/Users/stapi/OneDrive/Desktop/GD32VW553/GD32VW55X_Wifi_BLE_SDK/GD32VW55x_RELEASE_V1.0.2/MSDK/lwip/libcoap-4.3.4/src\coap_subscribe.c ****   context->observe_deleted = observe_deleted;
 508              		.loc 1 39 3
  39:C:/Users/stapi/OneDrive/Desktop/GD32VW553/GD32VW55X_Wifi_BLE_SDK/GD32VW55x_RELEASE_V1.0.2/MSDK/lwip/libcoap-4.3.4/src\coap_subscribe.c ****   context->observe_deleted = observe_deleted;
 509              		.loc 1 39 26 is_stmt 0
 510 0006 23260504 		sw	zero,76(a0)
  40:C:/Users/stapi/OneDrive/Desktop/GD32VW553/GD32VW55X_Wifi_BLE_SDK/GD32VW55x_RELEASE_V1.0.2/MSDK/lwip/libcoap-4.3.4/src\coap_subscribe.c ****   context->observe_user_data = user_data;
 511              		.loc 1 40 3 is_stmt 1
  40:C:/Users/stapi/OneDrive/Desktop/GD32VW553/GD32VW55X_Wifi_BLE_SDK/GD32VW55x_RELEASE_V1.0.2/MSDK/lwip/libcoap-4.3.4/src\coap_subscribe.c ****   context->observe_user_data = user_data;
 512              		.loc 1 40 28 is_stmt 0
 513 000a 23280504 		sw	zero,80(a0)
  41:C:/Users/stapi/OneDrive/Desktop/GD32VW553/GD32VW55X_Wifi_BLE_SDK/GD32VW55x_RELEASE_V1.0.2/MSDK/lwip/libcoap-4.3.4/src\coap_subscribe.c ****   context->observe_save_freq = save_freq ? save_freq : 1;
 514              		.loc 1 41 3 is_stmt 1
  41:C:/Users/stapi/OneDrive/Desktop/GD32VW553/GD32VW55X_Wifi_BLE_SDK/GD32VW55x_RELEASE_V1.0.2/MSDK/lwip/libcoap-4.3.4/src\coap_subscribe.c ****   context->observe_save_freq = save_freq ? save_freq : 1;
 515              		.loc 1 41 30 is_stmt 0
 516 000e 232A0504 		sw	zero,84(a0)
  42:C:/Users/stapi/OneDrive/Desktop/GD32VW553/GD32VW55X_Wifi_BLE_SDK/GD32VW55x_RELEASE_V1.0.2/MSDK/lwip/libcoap-4.3.4/src\coap_subscribe.c ****   context->track_observe_value = track_observe_value;
 517              		.loc 1 42 3 is_stmt 1
  42:C:/Users/stapi/OneDrive/Desktop/GD32VW553/GD32VW55X_Wifi_BLE_SDK/GD32VW55x_RELEASE_V1.0.2/MSDK/lwip/libcoap-4.3.4/src\coap_subscribe.c ****   context->track_observe_value = track_observe_value;
 518              		.loc 1 42 30 is_stmt 0
 519 0012 3CCD     		sw	a5,88(a0)
  43:C:/Users/stapi/OneDrive/Desktop/GD32VW553/GD32VW55X_Wifi_BLE_SDK/GD32VW55x_RELEASE_V1.0.2/MSDK/lwip/libcoap-4.3.4/src\coap_subscribe.c ****   context->dyn_resource_added = dyn_resource_added;
 520              		.loc 1 43 3 is_stmt 1
  43:C:/Users/stapi/OneDrive/Desktop/GD32VW553/GD32VW55X_Wifi_BLE_SDK/GD32VW55x_RELEASE_V1.0.2/MSDK/lwip/libcoap-4.3.4/src\coap_subscribe.c ****   context->dyn_resource_added = dyn_resource_added;
 521              		.loc 1 43 32 is_stmt 0
 522 0014 232E0504 		sw	zero,92(a0)
  44:C:/Users/stapi/OneDrive/Desktop/GD32VW553/GD32VW55X_Wifi_BLE_SDK/GD32VW55x_RELEASE_V1.0.2/MSDK/lwip/libcoap-4.3.4/src\coap_subscribe.c ****   context->resource_deleted = resource_deleted;
 523              		.loc 1 44 3 is_stmt 1
  44:C:/Users/stapi/OneDrive/Desktop/GD32VW553/GD32VW55X_Wifi_BLE_SDK/GD32VW55x_RELEASE_V1.0.2/MSDK/lwip/libcoap-4.3.4/src\coap_subscribe.c ****   context->resource_deleted = resource_deleted;
 524              		.loc 1 44 31 is_stmt 0
 525 0018 23200506 		sw	zero,96(a0)
  45:C:/Users/stapi/OneDrive/Desktop/GD32VW553/GD32VW55X_Wifi_BLE_SDK/GD32VW55x_RELEASE_V1.0.2/MSDK/lwip/libcoap-4.3.4/src\coap_subscribe.c **** }
 526              		.loc 1 45 3 is_stmt 1
  45:C:/Users/stapi/OneDrive/Desktop/GD32VW553/GD32VW55X_Wifi_BLE_SDK/GD32VW55x_RELEASE_V1.0.2/MSDK/lwip/libcoap-4.3.4/src\coap_subscribe.c **** }
 527              		.loc 1 45 29 is_stmt 0
 528 001c 23220506 		sw	zero,100(a0)
 529              	.LVL70:
 530              	.LBE9:
 531              	.LBE8:
1194:C:/Users/stapi/OneDrive/Desktop/GD32VW553/GD32VW55X_Wifi_BLE_SDK/GD32VW55x_RELEASE_V1.0.2/MSDK/lwip/libcoap-4.3.4/src\coap_subscribe.c ****                            NULL, 0, NULL);
1195:C:/Users/stapi/OneDrive/Desktop/GD32VW553/GD32VW55X_Wifi_BLE_SDK/GD32VW55x_RELEASE_V1.0.2/MSDK/lwip/libcoap-4.3.4/src\coap_subscribe.c **** }
 532              		.loc 1 1195 1
 533 0020 8280     		ret
 534              		.cfi_endproc
 535              	.LFE35:
 537              		.section	.rodata.__func__.0,"a"
 538              		.align	2
 539              		.set	.LANCHOR0,. + 0
 542              	__func__.0:
 543 0000 636F6170 		.string	"coap_subscription_init"
 543      5F737562 
 543      73637269 
 543      7074696F 
 543      6E5F696E 
 544              		.text
 545              	.Letext0:
 546              		.file 3 "c:\\users\\stapi\\onedrive\\desktop\\gd32vw553\\embeddedbuilder_v1.4.7.26843\\tools\\nucl
 547              		.file 4 "c:\\users\\stapi\\onedrive\\desktop\\gd32vw553\\embeddedbuilder_v1.4.7.26843\\tools\\nucl
 548              		.file 5 "c:\\users\\stapi\\onedrive\\desktop\\gd32vw553\\embeddedbuilder_v1.4.7.26843\\tools\\nucl
 549              		.file 6 "c:\\users\\stapi\\onedrive\\desktop\\gd32vw553\\embeddedbuilder_v1.4.7.26843\\tools\\nucl
 550              		.file 7 "c:\\users\\stapi\\onedrive\\desktop\\gd32vw553\\embeddedbuilder_v1.4.7.26843\\tools\\nucl
 551              		.file 8 "..\\..\\..\\..\\lwip\\lwip-2.1.2\\src\\include/lwip/arch.h"
 552              		.file 9 "..\\..\\..\\..\\lwip\\libcoap-4.3.4\\include/coap3/coap_forward_decls.h"
 553              		.file 10 "..\\..\\..\\..\\lwip\\libcoap-4.3.4\\include/coap3/coap_address.h"
 554              		.file 11 "..\\..\\..\\..\\lwip\\libcoap-4.3.4\\include/coap3/coap_async_internal.h"
 555              		.file 12 "..\\..\\..\\..\\lwip\\libcoap-4.3.4\\include/coap3/coap_block_internal.h"
 556              		.file 13 "..\\..\\..\\..\\lwip\\libcoap-4.3.4\\include/coap3/coap_cache_internal.h"
 557              		.file 14 "..\\..\\..\\..\\lwip\\libcoap-4.3.4\\include/coap3/coap_io_internal.h"
 558              		.file 15 "..\\..\\..\\..\\lwip\\libcoap-4.3.4\\include/coap3/coap_net_internal.h"
 559              		.file 16 "..\\..\\..\\..\\lwip\\libcoap-4.3.4\\include/coap3/coap_pdu_internal.h"
 560              		.file 17 "..\\..\\..\\..\\lwip\\libcoap-4.3.4\\include/coap3/coap_resource_internal.h"
 561              		.file 18 "..\\..\\..\\..\\lwip\\libcoap-4.3.4\\include/coap3/coap_session_internal.h"
 562              		.file 19 "..\\..\\..\\..\\lwip\\libcoap-4.3.4\\include/coap3/coap_subscribe_internal.h"
 563              		.file 20 "..\\..\\..\\..\\lwip\\libcoap-4.3.4\\include/coap3/coap_option.h"
 564              		.file 21 "..\\..\\..\\..\\lwip\\libcoap-4.3.4\\include/coap3/coap_str.h"
 565              		.file 22 "..\\..\\..\\..\\lwip\\lwip-2.1.2\\src\\include/lwip/pbuf.h"
 566              		.file 23 "..\\..\\..\\..\\lwip\\libcoap-4.3.4\\include/coap3/coap_pdu.h"
 567              		.file 24 "..\\..\\..\\..\\lwip\\lwip-2.1.2\\src\\include/lwip/ip4_addr.h"
 568              		.file 25 "..\\..\\..\\..\\lwip\\lwip-2.1.2\\src\\include/lwip/ip_addr.h"
 569              		.file 26 "..\\..\\..\\..\\lwip\\lwip-2.1.2\\src\\include/lwip/sockets.h"
 570              		.file 27 "..\\..\\..\\..\\lwip\\libcoap-4.3.4\\include/coap3/coap_io.h"
 571              		.file 28 "..\\..\\..\\..\\lwip\\libcoap-4.3.4\\include/coap3/coap_dtls.h"
 572              		.file 29 "..\\..\\..\\..\\lwip\\libcoap-4.3.4\\include/coap3/coap_event.h"
 573              		.file 30 "..\\..\\..\\..\\lwip\\libcoap-4.3.4\\include/coap3/coap_session.h"
 574              		.file 31 "..\\..\\..\\..\\lwip\\libcoap-4.3.4\\include/coap3/coap_debug.h"
 575              		.file 32 "..\\..\\..\\..\\lwip\\libcoap-4.3.4\\include/coap3/coap_net.h"
 576              		.file 33 "..\\..\\..\\..\\lwip\\libcoap-4.3.4\\include/coap3/coap_block.h"
 577              		.file 34 "..\\..\\..\\..\\lwip\\libcoap-4.3.4\\include/coap3/coap_cache.h"
 578              		.file 35 "..\\..\\..\\..\\lwip\\libcoap-4.3.4\\include/coap3/coap_resource.h"
 579              		.file 36 "..\\..\\..\\..\\lwip\\libcoap-4.3.4\\include/coap3/coap_subscribe.h"
 580              		.file 37 "..\\..\\..\\..\\lwip\\libcoap-4.3.4\\include/coap3/coap_uthash_internal.h"
 581              		.file 38 "..\\..\\..\\..\\lwip\\libcoap-4.3.4\\include/coap3/coap_layers_internal.h"
 582              		.file 39 "..\\..\\..\\..\\lwip\\lwip-2.1.2\\src\\include/lwip/sys.h"
 583              		.file 40 "c:\\users\\stapi\\onedrive\\desktop\\gd32vw553\\embeddedbuilder_v1.4.7.26843\\tools\\nuc
 584              		.file 41 "..\\..\\..\\..\\lwip\\libcoap-4.3.4\\include/coap3/coap_encode.h"
 585              		.file 42 "..\\..\\..\\..\\lwip\\libcoap-4.3.4\\include/coap3/coap_uri.h"
 586              		.file 43 "c:\\users\\stapi\\onedrive\\desktop\\gd32vw553\\embeddedbuilder_v1.4.7.26843\\tools\\nuc
 587              		.file 44 "<built-in>"
DEFINED SYMBOLS
                            *ABS*:0000000000000000 coap_subscribe.c
C:\Users\stapi\AppData\Local\Temp\ccbI3tQa.s:20     .text.coap_subscription_init:0000000000000000 coap_subscription_init
C:\Users\stapi\AppData\Local\Temp\ccbI3tQa.s:24     .text.coap_subscription_init:0000000000000000 .L0 
C:\Users\stapi\AppData\Local\Temp\ccbI3tQa.s:26     .text.coap_subscription_init:0000000000000000 .L0 
C:\Users\stapi\AppData\Local\Temp\ccbI3tQa.s:27     .text.coap_subscription_init:0000000000000008 .L0 
C:\Users\stapi\AppData\Local\Temp\ccbI3tQa.s:28     .text.coap_subscription_init:0000000000000008 .L0 
C:\Users\stapi\AppData\Local\Temp\ccbI3tQa.s:30     .text.coap_subscription_init:0000000000000008 .L0 
C:\Users\stapi\AppData\Local\Temp\ccbI3tQa.s:32     .text.coap_subscription_init:000000000000000a .L0 
C:\Users\stapi\AppData\Local\Temp\ccbI3tQa.s:44     .text.coap_subscription_init:000000000000002c .L0 
C:\Users\stapi\AppData\Local\Temp\ccbI3tQa.s:49     .text.coap_subscription_init:0000000000000038 .L0 
C:\Users\stapi\AppData\Local\Temp\ccbI3tQa.s:50     .text.coap_subscription_init:0000000000000040 .L0 
C:\Users\stapi\AppData\Local\Temp\ccbI3tQa.s:51     .text.coap_subscription_init:0000000000000040 .L0 
C:\Users\stapi\AppData\Local\Temp\ccbI3tQa.s:52     .text.coap_subscription_init:0000000000000040 .L0 
C:\Users\stapi\AppData\Local\Temp\ccbI3tQa.s:59     .text.coap_persist_track_funcs:0000000000000000 coap_persist_track_funcs
C:\Users\stapi\AppData\Local\Temp\ccbI3tQa.s:62     .text.coap_persist_track_funcs:0000000000000000 .L0 
C:\Users\stapi\AppData\Local\Temp\ccbI3tQa.s:64     .text.coap_persist_track_funcs:0000000000000000 .L0 
C:\Users\stapi\AppData\Local\Temp\ccbI3tQa.s:65     .text.coap_persist_track_funcs:0000000000000000 .L0 
C:\Users\stapi\AppData\Local\Temp\ccbI3tQa.s:66     .text.coap_persist_track_funcs:0000000000000000 .L0 
C:\Users\stapi\AppData\Local\Temp\ccbI3tQa.s:68     .text.coap_persist_track_funcs:0000000000000002 .L0 
C:\Users\stapi\AppData\Local\Temp\ccbI3tQa.s:73     .text.coap_persist_track_funcs:0000000000000008 .L0 
C:\Users\stapi\AppData\Local\Temp\ccbI3tQa.s:75     .text.coap_persist_track_funcs:000000000000000a .L0 
C:\Users\stapi\AppData\Local\Temp\ccbI3tQa.s:76     .text.coap_persist_track_funcs:000000000000000a .L0 
C:\Users\stapi\AppData\Local\Temp\ccbI3tQa.s:77     .text.coap_persist_track_funcs:000000000000000a .L0 
C:\Users\stapi\AppData\Local\Temp\ccbI3tQa.s:79     .text.coap_persist_track_funcs:000000000000000e .L0 
C:\Users\stapi\AppData\Local\Temp\ccbI3tQa.s:80     .text.coap_persist_track_funcs:000000000000000e .L0 
C:\Users\stapi\AppData\Local\Temp\ccbI3tQa.s:82     .text.coap_persist_track_funcs:0000000000000012 .L0 
C:\Users\stapi\AppData\Local\Temp\ccbI3tQa.s:83     .text.coap_persist_track_funcs:0000000000000012 .L0 
C:\Users\stapi\AppData\Local\Temp\ccbI3tQa.s:85     .text.coap_persist_track_funcs:0000000000000014 .L0 
C:\Users\stapi\AppData\Local\Temp\ccbI3tQa.s:86     .text.coap_persist_track_funcs:0000000000000014 .L0 
C:\Users\stapi\AppData\Local\Temp\ccbI3tQa.s:88     .text.coap_persist_track_funcs:0000000000000016 .L0 
C:\Users\stapi\AppData\Local\Temp\ccbI3tQa.s:89     .text.coap_persist_track_funcs:0000000000000016 .L0 
C:\Users\stapi\AppData\Local\Temp\ccbI3tQa.s:91     .text.coap_persist_track_funcs:0000000000000018 .L0 
C:\Users\stapi\AppData\Local\Temp\ccbI3tQa.s:92     .text.coap_persist_track_funcs:000000000000001a .L0 
C:\Users\stapi\AppData\Local\Temp\ccbI3tQa.s:109    .text.coap_persist_observe_add:0000000000000000 coap_persist_observe_add
C:\Users\stapi\AppData\Local\Temp\ccbI3tQa.s:112    .text.coap_persist_observe_add:0000000000000000 .L0 
C:\Users\stapi\AppData\Local\Temp\ccbI3tQa.s:114    .text.coap_persist_observe_add:0000000000000000 .L0 
C:\Users\stapi\AppData\Local\Temp\ccbI3tQa.s:115    .text.coap_persist_observe_add:0000000000000008 .L0 
C:\Users\stapi\AppData\Local\Temp\ccbI3tQa.s:116    .text.coap_persist_observe_add:0000000000000008 .L0 
C:\Users\stapi\AppData\Local\Temp\ccbI3tQa.s:117    .text.coap_persist_observe_add:0000000000000008 .L0 
C:\Users\stapi\AppData\Local\Temp\ccbI3tQa.s:118    .text.coap_persist_observe_add:0000000000000008 .L0 
C:\Users\stapi\AppData\Local\Temp\ccbI3tQa.s:119    .text.coap_persist_observe_add:0000000000000008 .L0 
C:\Users\stapi\AppData\Local\Temp\ccbI3tQa.s:120    .text.coap_persist_observe_add:0000000000000008 .L0 
C:\Users\stapi\AppData\Local\Temp\ccbI3tQa.s:121    .text.coap_persist_observe_add:0000000000000008 .L0 
C:\Users\stapi\AppData\Local\Temp\ccbI3tQa.s:122    .text.coap_persist_observe_add:0000000000000008 .L0 
C:\Users\stapi\AppData\Local\Temp\ccbI3tQa.s:125    .text.coap_persist_observe_add:0000000000000008 .L0 
C:\Users\stapi\AppData\Local\Temp\ccbI3tQa.s:126    .text.coap_persist_observe_add:0000000000000008 .L0 
C:\Users\stapi\AppData\Local\Temp\ccbI3tQa.s:127    .text.coap_persist_observe_add:0000000000000008 .L0 
C:\Users\stapi\AppData\Local\Temp\ccbI3tQa.s:128    .text.coap_persist_observe_add:0000000000000008 .L0 
C:\Users\stapi\AppData\Local\Temp\ccbI3tQa.s:129    .text.coap_persist_observe_add:0000000000000008 .L0 
C:\Users\stapi\AppData\Local\Temp\ccbI3tQa.s:130    .text.coap_persist_observe_add:0000000000000008 .L0 
C:\Users\stapi\AppData\Local\Temp\ccbI3tQa.s:131    .text.coap_persist_observe_add:0000000000000008 .L0 
C:\Users\stapi\AppData\Local\Temp\ccbI3tQa.s:132    .text.coap_persist_observe_add:000000000000000a .L0 
C:\Users\stapi\AppData\Local\Temp\ccbI3tQa.s:135    .text.coap_persist_observe_add:000000000000000a .L0 
C:\Users\stapi\AppData\Local\Temp\ccbI3tQa.s:136    .text.coap_persist_observe_add:000000000000000a .L0 
C:\Users\stapi\AppData\Local\Temp\ccbI3tQa.s:137    .text.coap_persist_observe_add:000000000000000a .L0 
C:\Users\stapi\AppData\Local\Temp\ccbI3tQa.s:138    .text.coap_persist_observe_add:000000000000000a .L0 
C:\Users\stapi\AppData\Local\Temp\ccbI3tQa.s:139    .text.coap_persist_observe_add:000000000000000a .L0 
C:\Users\stapi\AppData\Local\Temp\ccbI3tQa.s:140    .text.coap_persist_observe_add:000000000000000a .L0 
C:\Users\stapi\AppData\Local\Temp\ccbI3tQa.s:141    .text.coap_persist_observe_add:000000000000000a .L0 
C:\Users\stapi\AppData\Local\Temp\ccbI3tQa.s:142    .text.coap_persist_observe_add:000000000000000a .L0 
C:\Users\stapi\AppData\Local\Temp\ccbI3tQa.s:143    .text.coap_persist_observe_add:000000000000000a .L0 
C:\Users\stapi\AppData\Local\Temp\ccbI3tQa.s:144    .text.coap_persist_observe_add:000000000000000a .L0 
C:\Users\stapi\AppData\Local\Temp\ccbI3tQa.s:147    .text.coap_persist_observe_add:000000000000000e .L0 
C:\Users\stapi\AppData\Local\Temp\ccbI3tQa.s:149    .text.coap_persist_observe_add:0000000000000010 .L0 
C:\Users\stapi\AppData\Local\Temp\ccbI3tQa.s:152    .text.coap_persist_observe_add:0000000000000014 .L0 
C:\Users\stapi\AppData\Local\Temp\ccbI3tQa.s:154    .text.coap_persist_observe_add:0000000000000016 .L0 
C:\Users\stapi\AppData\Local\Temp\ccbI3tQa.s:155    .text.coap_persist_observe_add:0000000000000016 .L0 
C:\Users\stapi\AppData\Local\Temp\ccbI3tQa.s:159    .text.coap_persist_observe_add:000000000000001c .L0 
C:\Users\stapi\AppData\Local\Temp\ccbI3tQa.s:163    .text.coap_persist_observe_add:0000000000000020 .L0 
C:\Users\stapi\AppData\Local\Temp\ccbI3tQa.s:164    .text.coap_persist_observe_add:0000000000000020 .L0 
C:\Users\stapi\AppData\Local\Temp\ccbI3tQa.s:165    .text.coap_persist_observe_add:0000000000000020 .L0 
C:\Users\stapi\AppData\Local\Temp\ccbI3tQa.s:169    .text.coap_persist_observe_add:0000000000000022 .L0 
C:\Users\stapi\AppData\Local\Temp\ccbI3tQa.s:173    .text.coap_persist_observe_add:0000000000000024 .L0 
C:\Users\stapi\AppData\Local\Temp\ccbI3tQa.s:175    .text.coap_persist_observe_add:0000000000000028 .L0 
C:\Users\stapi\AppData\Local\Temp\ccbI3tQa.s:176    .text.coap_persist_observe_add:0000000000000028 .L0 
C:\Users\stapi\AppData\Local\Temp\ccbI3tQa.s:179    .text.coap_persist_observe_add:0000000000000030 .L0 
C:\Users\stapi\AppData\Local\Temp\ccbI3tQa.s:180    .text.coap_persist_observe_add:0000000000000030 .L0 
C:\Users\stapi\AppData\Local\Temp\ccbI3tQa.s:181    .text.coap_persist_observe_add:0000000000000030 .L0 
C:\Users\stapi\AppData\Local\Temp\ccbI3tQa.s:182    .text.coap_persist_observe_add:0000000000000030 .L0 
C:\Users\stapi\AppData\Local\Temp\ccbI3tQa.s:183    .text.coap_persist_observe_add:0000000000000030 .L0 
C:\Users\stapi\AppData\Local\Temp\ccbI3tQa.s:184    .text.coap_persist_observe_add:0000000000000030 .L0 
C:\Users\stapi\AppData\Local\Temp\ccbI3tQa.s:185    .text.coap_persist_observe_add:0000000000000030 .L0 
C:\Users\stapi\AppData\Local\Temp\ccbI3tQa.s:186    .text.coap_persist_observe_add:0000000000000030 .L0 
C:\Users\stapi\AppData\Local\Temp\ccbI3tQa.s:189    .text.coap_persist_observe_add:0000000000000030 .L0 
C:\Users\stapi\AppData\Local\Temp\ccbI3tQa.s:191    .text.coap_persist_observe_add:0000000000000030 .L0 
C:\Users\stapi\AppData\Local\Temp\ccbI3tQa.s:192    .text.coap_persist_observe_add:0000000000000030 .L0 
C:\Users\stapi\AppData\Local\Temp\ccbI3tQa.s:195    .text.coap_persist_observe_add:0000000000000036 .L0 
C:\Users\stapi\AppData\Local\Temp\ccbI3tQa.s:201    .text.coap_persist_observe_add:0000000000000046 .L0 
C:\Users\stapi\AppData\Local\Temp\ccbI3tQa.s:204    .text.coap_persist_observe_add:000000000000004a .L0 
C:\Users\stapi\AppData\Local\Temp\ccbI3tQa.s:205    .text.coap_persist_observe_add:000000000000004a .L0 
C:\Users\stapi\AppData\Local\Temp\ccbI3tQa.s:211    .text.coap_persist_observe_add:000000000000004e .L0 
C:\Users\stapi\AppData\Local\Temp\ccbI3tQa.s:217    .text.coap_persist_observe_add:0000000000000052 .L0 
C:\Users\stapi\AppData\Local\Temp\ccbI3tQa.s:218    .text.coap_persist_observe_add:0000000000000052 .L0 
C:\Users\stapi\AppData\Local\Temp\ccbI3tQa.s:219    .text.coap_persist_observe_add:0000000000000052 .L0 
C:\Users\stapi\AppData\Local\Temp\ccbI3tQa.s:226    .text.coap_persist_observe_add:000000000000005c .L0 
C:\Users\stapi\AppData\Local\Temp\ccbI3tQa.s:227    .text.coap_persist_observe_add:000000000000005c .L0 
C:\Users\stapi\AppData\Local\Temp\ccbI3tQa.s:236    .text.coap_persist_observe_add:000000000000006a .L0 
C:\Users\stapi\AppData\Local\Temp\ccbI3tQa.s:237    .text.coap_persist_observe_add:000000000000006a .L0 
C:\Users\stapi\AppData\Local\Temp\ccbI3tQa.s:241    .text.coap_persist_observe_add:000000000000006c .L0 
C:\Users\stapi\AppData\Local\Temp\ccbI3tQa.s:244    .text.coap_persist_observe_add:000000000000006e .L0 
C:\Users\stapi\AppData\Local\Temp\ccbI3tQa.s:248    .text.coap_persist_observe_add:0000000000000070 .L0 
C:\Users\stapi\AppData\Local\Temp\ccbI3tQa.s:249    .text.coap_persist_observe_add:0000000000000070 .L0 
C:\Users\stapi\AppData\Local\Temp\ccbI3tQa.s:253    .text.coap_persist_observe_add:000000000000007a .L0 
C:\Users\stapi\AppData\Local\Temp\ccbI3tQa.s:258    .text.coap_persist_observe_add:0000000000000084 .L0 
C:\Users\stapi\AppData\Local\Temp\ccbI3tQa.s:259    .text.coap_persist_observe_add:0000000000000084 .L0 
C:\Users\stapi\AppData\Local\Temp\ccbI3tQa.s:264    .text.coap_persist_observe_add:0000000000000088 .L0 
C:\Users\stapi\AppData\Local\Temp\ccbI3tQa.s:265    .text.coap_persist_observe_add:0000000000000088 .L0 
C:\Users\stapi\AppData\Local\Temp\ccbI3tQa.s:275    .text.coap_persist_observe_add:000000000000009a .L0 
C:\Users\stapi\AppData\Local\Temp\ccbI3tQa.s:276    .text.coap_persist_observe_add:000000000000009a .L0 
C:\Users\stapi\AppData\Local\Temp\ccbI3tQa.s:278    .text.coap_persist_observe_add:000000000000009c .L0 
C:\Users\stapi\AppData\Local\Temp\ccbI3tQa.s:279    .text.coap_persist_observe_add:000000000000009c .L0 
C:\Users\stapi\AppData\Local\Temp\ccbI3tQa.s:286    .text.coap_persist_observe_add:00000000000000ae .L0 
C:\Users\stapi\AppData\Local\Temp\ccbI3tQa.s:288    .text.coap_persist_observe_add:00000000000000b2 .L0 
C:\Users\stapi\AppData\Local\Temp\ccbI3tQa.s:289    .text.coap_persist_observe_add:00000000000000b2 .L0 
C:\Users\stapi\AppData\Local\Temp\ccbI3tQa.s:292    .text.coap_persist_observe_add:00000000000000b6 .L0 
C:\Users\stapi\AppData\Local\Temp\ccbI3tQa.s:293    .text.coap_persist_observe_add:00000000000000b6 .L0 
C:\Users\stapi\AppData\Local\Temp\ccbI3tQa.s:297    .text.coap_persist_observe_add:00000000000000be .L0 
C:\Users\stapi\AppData\Local\Temp\ccbI3tQa.s:298    .text.coap_persist_observe_add:00000000000000be .L0 
C:\Users\stapi\AppData\Local\Temp\ccbI3tQa.s:306    .text.coap_persist_observe_add:00000000000000ce .L0 
C:\Users\stapi\AppData\Local\Temp\ccbI3tQa.s:307    .text.coap_persist_observe_add:00000000000000ce .L0 
C:\Users\stapi\AppData\Local\Temp\ccbI3tQa.s:309    .text.coap_persist_observe_add:00000000000000d0 .L0 
C:\Users\stapi\AppData\Local\Temp\ccbI3tQa.s:310    .text.coap_persist_observe_add:00000000000000d0 .L0 
C:\Users\stapi\AppData\Local\Temp\ccbI3tQa.s:315    .text.coap_persist_observe_add:00000000000000da .L0 
C:\Users\stapi\AppData\Local\Temp\ccbI3tQa.s:320    .text.coap_persist_observe_add:00000000000000e6 .L0 
C:\Users\stapi\AppData\Local\Temp\ccbI3tQa.s:324    .text.coap_persist_observe_add:00000000000000f0 .L0 
C:\Users\stapi\AppData\Local\Temp\ccbI3tQa.s:325    .text.coap_persist_observe_add:00000000000000f0 .L0 
C:\Users\stapi\AppData\Local\Temp\ccbI3tQa.s:327    .text.coap_persist_observe_add:00000000000000f2 .L0 
C:\Users\stapi\AppData\Local\Temp\ccbI3tQa.s:328    .text.coap_persist_observe_add:00000000000000f2 .L0 
C:\Users\stapi\AppData\Local\Temp\ccbI3tQa.s:335    .text.coap_persist_observe_add:00000000000000fe .L0 
C:\Users\stapi\AppData\Local\Temp\ccbI3tQa.s:336    .text.coap_persist_observe_add:00000000000000fe .L0 
C:\Users\stapi\AppData\Local\Temp\ccbI3tQa.s:338    .text.coap_persist_observe_add:0000000000000100 .L0 
C:\Users\stapi\AppData\Local\Temp\ccbI3tQa.s:339    .text.coap_persist_observe_add:0000000000000100 .L0 
C:\Users\stapi\AppData\Local\Temp\ccbI3tQa.s:346    .text.coap_persist_observe_add:0000000000000110 .L0 
C:\Users\stapi\AppData\Local\Temp\ccbI3tQa.s:347    .text.coap_persist_observe_add:0000000000000110 .L0 
C:\Users\stapi\AppData\Local\Temp\ccbI3tQa.s:349    .text.coap_persist_observe_add:0000000000000112 .L0 
C:\Users\stapi\AppData\Local\Temp\ccbI3tQa.s:350    .text.coap_persist_observe_add:0000000000000112 .L0 
C:\Users\stapi\AppData\Local\Temp\ccbI3tQa.s:355    .text.coap_persist_observe_add:0000000000000120 .L0 
C:\Users\stapi\AppData\Local\Temp\ccbI3tQa.s:360    .text.coap_persist_observe_add:000000000000012a .L0 
C:\Users\stapi\AppData\Local\Temp\ccbI3tQa.s:367    .text.coap_persist_observe_add:0000000000000136 .L0 
C:\Users\stapi\AppData\Local\Temp\ccbI3tQa.s:368    .text.coap_persist_observe_add:0000000000000136 .L0 
C:\Users\stapi\AppData\Local\Temp\ccbI3tQa.s:370    .text.coap_persist_observe_add:000000000000013a .L0 
C:\Users\stapi\AppData\Local\Temp\ccbI3tQa.s:373    .text.coap_persist_observe_add:000000000000013e .L0 
C:\Users\stapi\AppData\Local\Temp\ccbI3tQa.s:374    .text.coap_persist_observe_add:000000000000013e .L0 
C:\Users\stapi\AppData\Local\Temp\ccbI3tQa.s:379    .text.coap_persist_observe_add:000000000000014c .L0 
C:\Users\stapi\AppData\Local\Temp\ccbI3tQa.s:386    .text.coap_persist_observe_add:0000000000000158 .L0 
C:\Users\stapi\AppData\Local\Temp\ccbI3tQa.s:391    .text.coap_persist_observe_add:0000000000000162 .L0 
C:\Users\stapi\AppData\Local\Temp\ccbI3tQa.s:392    .text.coap_persist_observe_add:0000000000000162 .L0 
C:\Users\stapi\AppData\Local\Temp\ccbI3tQa.s:393    .text.coap_persist_observe_add:0000000000000162 .L0 
C:\Users\stapi\AppData\Local\Temp\ccbI3tQa.s:402    .text.coap_persist_observe_add:0000000000000176 .L0 
C:\Users\stapi\AppData\Local\Temp\ccbI3tQa.s:403    .text.coap_persist_observe_add:0000000000000176 .L0 
C:\Users\stapi\AppData\Local\Temp\ccbI3tQa.s:405    .text.coap_persist_observe_add:000000000000017a .L0 
C:\Users\stapi\AppData\Local\Temp\ccbI3tQa.s:406    .text.coap_persist_observe_add:000000000000017a .L0 
C:\Users\stapi\AppData\Local\Temp\ccbI3tQa.s:410    .text.coap_persist_observe_add:0000000000000184 .L0 
C:\Users\stapi\AppData\Local\Temp\ccbI3tQa.s:411    .text.coap_persist_observe_add:0000000000000184 .L0 
C:\Users\stapi\AppData\Local\Temp\ccbI3tQa.s:415    .text.coap_persist_observe_add:0000000000000186 .L0 
C:\Users\stapi\AppData\Local\Temp\ccbI3tQa.s:416    .text.coap_persist_observe_add:0000000000000186 .L0 
C:\Users\stapi\AppData\Local\Temp\ccbI3tQa.s:423    .text.coap_persist_observe_add:0000000000000194 .L0 
C:\Users\stapi\AppData\Local\Temp\ccbI3tQa.s:424    .text.coap_persist_observe_add:0000000000000194 .L0 
C:\Users\stapi\AppData\Local\Temp\ccbI3tQa.s:428    .text.coap_persist_observe_add:000000000000019c .L0 
C:\Users\stapi\AppData\Local\Temp\ccbI3tQa.s:430    .text.coap_persist_observe_add:000000000000019e .L0 
C:\Users\stapi\AppData\Local\Temp\ccbI3tQa.s:433    .text.coap_persist_observe_add:00000000000001a6 .L0 
C:\Users\stapi\AppData\Local\Temp\ccbI3tQa.s:434    .text.coap_persist_observe_add:00000000000001a6 .L0 
C:\Users\stapi\AppData\Local\Temp\ccbI3tQa.s:437    .text.coap_persist_observe_add:00000000000001aa .L0 
C:\Users\stapi\AppData\Local\Temp\ccbI3tQa.s:439    .text.coap_persist_observe_add:00000000000001ac .L0 
C:\Users\stapi\AppData\Local\Temp\ccbI3tQa.s:442    .text.coap_persist_observe_add:00000000000001ae .L0 
C:\Users\stapi\AppData\Local\Temp\ccbI3tQa.s:443    .text.coap_persist_observe_add:00000000000001ae .L0 
C:\Users\stapi\AppData\Local\Temp\ccbI3tQa.s:444    .text.coap_persist_observe_add:00000000000001ae .L0 
C:\Users\stapi\AppData\Local\Temp\ccbI3tQa.s:445    .text.coap_persist_observe_add:00000000000001ae .L0 
C:\Users\stapi\AppData\Local\Temp\ccbI3tQa.s:447    .text.coap_persist_observe_add:00000000000001b2 .L0 
C:\Users\stapi\AppData\Local\Temp\ccbI3tQa.s:451    .text.coap_persist_observe_add:00000000000001b4 .L0 
C:\Users\stapi\AppData\Local\Temp\ccbI3tQa.s:452    .text.coap_persist_observe_add:00000000000001b4 .L0 
C:\Users\stapi\AppData\Local\Temp\ccbI3tQa.s:456    .text.coap_persist_observe_add:00000000000001be .L0 
C:\Users\stapi\AppData\Local\Temp\ccbI3tQa.s:458    .text.coap_persist_observe_add:00000000000001c0 .L0 
C:\Users\stapi\AppData\Local\Temp\ccbI3tQa.s:460    .text.coap_persist_observe_add:00000000000001c4 .L0 
C:\Users\stapi\AppData\Local\Temp\ccbI3tQa.s:466    .text.coap_persist_observe_add:00000000000001d8 .L0 
C:\Users\stapi\AppData\Local\Temp\ccbI3tQa.s:473    .text.coap_persist_startup:0000000000000000 coap_persist_startup
C:\Users\stapi\AppData\Local\Temp\ccbI3tQa.s:476    .text.coap_persist_startup:0000000000000000 .L0 
C:\Users\stapi\AppData\Local\Temp\ccbI3tQa.s:478    .text.coap_persist_startup:0000000000000000 .L0 
C:\Users\stapi\AppData\Local\Temp\ccbI3tQa.s:479    .text.coap_persist_startup:0000000000000000 .L0 
C:\Users\stapi\AppData\Local\Temp\ccbI3tQa.s:480    .text.coap_persist_startup:0000000000000000 .L0 
C:\Users\stapi\AppData\Local\Temp\ccbI3tQa.s:481    .text.coap_persist_startup:0000000000000000 .L0 
C:\Users\stapi\AppData\Local\Temp\ccbI3tQa.s:482    .text.coap_persist_startup:0000000000000000 .L0 
C:\Users\stapi\AppData\Local\Temp\ccbI3tQa.s:483    .text.coap_persist_startup:0000000000000000 .L0 
C:\Users\stapi\AppData\Local\Temp\ccbI3tQa.s:484    .text.coap_persist_startup:0000000000000000 .L0 
C:\Users\stapi\AppData\Local\Temp\ccbI3tQa.s:485    .text.coap_persist_startup:0000000000000000 .L0 
C:\Users\stapi\AppData\Local\Temp\ccbI3tQa.s:488    .text.coap_persist_startup:0000000000000004 .L0 
C:\Users\stapi\AppData\Local\Temp\ccbI3tQa.s:495    .text.coap_persist_stop:0000000000000000 coap_persist_stop
C:\Users\stapi\AppData\Local\Temp\ccbI3tQa.s:498    .text.coap_persist_stop:0000000000000000 .L0 
C:\Users\stapi\AppData\Local\Temp\ccbI3tQa.s:500    .text.coap_persist_stop:0000000000000000 .L0 
C:\Users\stapi\AppData\Local\Temp\ccbI3tQa.s:501    .text.coap_persist_stop:0000000000000000 .L0 
C:\Users\stapi\AppData\Local\Temp\ccbI3tQa.s:502    .text.coap_persist_stop:0000000000000000 .L0 
C:\Users\stapi\AppData\Local\Temp\ccbI3tQa.s:508    .text.coap_persist_stop:0000000000000006 .L0 
C:\Users\stapi\AppData\Local\Temp\ccbI3tQa.s:509    .text.coap_persist_stop:0000000000000006 .L0 
C:\Users\stapi\AppData\Local\Temp\ccbI3tQa.s:510    .text.coap_persist_stop:0000000000000006 .L0 
C:\Users\stapi\AppData\Local\Temp\ccbI3tQa.s:512    .text.coap_persist_stop:000000000000000a .L0 
C:\Users\stapi\AppData\Local\Temp\ccbI3tQa.s:513    .text.coap_persist_stop:000000000000000a .L0 
C:\Users\stapi\AppData\Local\Temp\ccbI3tQa.s:515    .text.coap_persist_stop:000000000000000e .L0 
C:\Users\stapi\AppData\Local\Temp\ccbI3tQa.s:516    .text.coap_persist_stop:000000000000000e .L0 
C:\Users\stapi\AppData\Local\Temp\ccbI3tQa.s:518    .text.coap_persist_stop:0000000000000012 .L0 
C:\Users\stapi\AppData\Local\Temp\ccbI3tQa.s:519    .text.coap_persist_stop:0000000000000012 .L0 
C:\Users\stapi\AppData\Local\Temp\ccbI3tQa.s:521    .text.coap_persist_stop:0000000000000014 .L0 
C:\Users\stapi\AppData\Local\Temp\ccbI3tQa.s:522    .text.coap_persist_stop:0000000000000014 .L0 
C:\Users\stapi\AppData\Local\Temp\ccbI3tQa.s:524    .text.coap_persist_stop:0000000000000018 .L0 
C:\Users\stapi\AppData\Local\Temp\ccbI3tQa.s:525    .text.coap_persist_stop:0000000000000018 .L0 
C:\Users\stapi\AppData\Local\Temp\ccbI3tQa.s:527    .text.coap_persist_stop:000000000000001c .L0 
C:\Users\stapi\AppData\Local\Temp\ccbI3tQa.s:528    .text.coap_persist_stop:000000000000001c .L0 
C:\Users\stapi\AppData\Local\Temp\ccbI3tQa.s:533    .text.coap_persist_stop:0000000000000020 .L0 
C:\Users\stapi\AppData\Local\Temp\ccbI3tQa.s:534    .text.coap_persist_stop:0000000000000022 .L0 
C:\Users\stapi\AppData\Local\Temp\ccbI3tQa.s:539    .rodata.__func__.0:0000000000000000 .LANCHOR0
C:\Users\stapi\AppData\Local\Temp\ccbI3tQa.s:542    .rodata.__func__.0:0000000000000000 __func__.0
C:\Users\stapi\AppData\Local\Temp\ccbI3tQa.s:55     .text.coap_subscription_init:0000000000000040 .L0 
C:\Users\stapi\AppData\Local\Temp\ccbI3tQa.s:95     .text.coap_persist_track_funcs:000000000000001a .L0 
C:\Users\stapi\AppData\Local\Temp\ccbI3tQa.s:469    .text.coap_persist_observe_add:00000000000001d8 .L0 
C:\Users\stapi\AppData\Local\Temp\ccbI3tQa.s:491    .text.coap_persist_startup:0000000000000004 .L0 
C:\Users\stapi\AppData\Local\Temp\ccbI3tQa.s:537    .text.coap_persist_stop:0000000000000022 .L0 
                     .debug_frame:0000000000000000 .L0 
C:\Users\stapi\AppData\Local\Temp\ccbI3tQa.s:11     .rodata.coap_subscription_init.str1.4:0000000000000000 .LC0
C:\Users\stapi\AppData\Local\Temp\ccbI3tQa.s:14     .rodata.coap_subscription_init.str1.4:0000000000000004 .LC1
C:\Users\stapi\AppData\Local\Temp\ccbI3tQa.s:42     .text.coap_subscription_init:000000000000002c .L2
C:\Users\stapi\AppData\Local\Temp\ccbI3tQa.s:97     .rodata.coap_persist_observe_add.str1.4:0000000000000000 .LC2
C:\Users\stapi\AppData\Local\Temp\ccbI3tQa.s:100    .rodata.coap_persist_observe_add.str1.4:0000000000000038 .LC3
C:\Users\stapi\AppData\Local\Temp\ccbI3tQa.s:103    .rodata.coap_persist_observe_add.str1.4:0000000000000070 .LC4
C:\Users\stapi\AppData\Local\Temp\ccbI3tQa.s:257    .text.coap_persist_observe_add:0000000000000084 .L18
C:\Users\stapi\AppData\Local\Temp\ccbI3tQa.s:171    .text.coap_persist_observe_add:0000000000000024 .L5
C:\Users\stapi\AppData\Local\Temp\ccbI3tQa.s:188    .text.coap_persist_observe_add:0000000000000030 .L10
C:\Users\stapi\AppData\Local\Temp\ccbI3tQa.s:202    .text.coap_persist_observe_add:000000000000004a .L8
C:\Users\stapi\AppData\Local\Temp\ccbI3tQa.s:413    .text.coap_persist_observe_add:0000000000000186 .L9
C:\Users\stapi\AppData\Local\Temp\ccbI3tQa.s:167    .text.coap_persist_observe_add:0000000000000022 .L7
C:\Users\stapi\AppData\Local\Temp\ccbI3tQa.s:262    .text.coap_persist_observe_add:0000000000000088 .L11
C:\Users\stapi\AppData\Local\Temp\ccbI3tQa.s:239    .text.coap_persist_observe_add:000000000000006c .L13
C:\Users\stapi\AppData\Local\Temp\ccbI3tQa.s:449    .text.coap_persist_observe_add:00000000000001b4 .L14
C:\Users\stapi\AppData\Local\Temp\ccbI3tQa.s:365    .text.coap_persist_observe_add:0000000000000136 .L15
C:\Users\stapi\AppData\Local\Temp\ccbI3tQa.s:246    .text.coap_persist_observe_add:0000000000000070 .L12
C:\Users\stapi\AppData\Local\Temp\ccbI3tQa.s:384    .text.coap_persist_observe_add:0000000000000158 .L16
C:\Users\stapi\AppData\Local\Temp\ccbI3tQa.s:358    .text.coap_persist_observe_add:000000000000012a .L41
C:\Users\stapi\AppData\Local\Temp\ccbI3tQa.s:209    .text.coap_persist_observe_add:000000000000004e .L39
C:\Users\stapi\AppData\Local\Temp\ccbI3tQa.s:5832   .debug_abbrev:0000000000000000 .Ldebug_abbrev0
C:\Users\stapi\AppData\Local\Temp\ccbI3tQa.s:7778   .debug_str:0000000000000c7d .LASF499
C:\Users\stapi\AppData\Local\Temp\ccbI3tQa.s:7606   .debug_str:000000000000070f .LASF500
C:\Users\stapi\AppData\Local\Temp\ccbI3tQa.s:7926   .debug_str:000000000000123d .LASF501
C:\Users\stapi\AppData\Local\Temp\ccbI3tQa.s:7342   .debug_ranges:0000000000000000 .Ldebug_ranges0
C:\Users\stapi\AppData\Local\Temp\ccbI3tQa.s:7356   .debug_line:0000000000000000 .Ldebug_line0
C:\Users\stapi\AppData\Local\Temp\ccbI3tQa.s:7562   .debug_str:00000000000005c6 .LASF0
C:\Users\stapi\AppData\Local\Temp\ccbI3tQa.s:7498   .debug_str:00000000000003d0 .LASF3
C:\Users\stapi\AppData\Local\Temp\ccbI3tQa.s:7588   .debug_str:0000000000000669 .LASF1
C:\Users\stapi\AppData\Local\Temp\ccbI3tQa.s:8160   .debug_str:00000000000019d6 .LASF2
C:\Users\stapi\AppData\Local\Temp\ccbI3tQa.s:7652   .debug_str:00000000000008c3 .LASF4
C:\Users\stapi\AppData\Local\Temp\ccbI3tQa.s:8304   .debug_str:0000000000001e7b .LASF5
C:\Users\stapi\AppData\Local\Temp\ccbI3tQa.s:7522   .debug_str:000000000000049b .LASF6
C:\Users\stapi\AppData\Local\Temp\ccbI3tQa.s:7854   .debug_str:0000000000000fdc .LASF7
C:\Users\stapi\AppData\Local\Temp\ccbI3tQa.s:7760   .debug_str:0000000000000bf8 .LASF8
C:\Users\stapi\AppData\Local\Temp\ccbI3tQa.s:7856   .debug_str:0000000000000fe7 .LASF9
C:\Users\stapi\AppData\Local\Temp\ccbI3tQa.s:7758   .debug_str:0000000000000bed .LASF10
C:\Users\stapi\AppData\Local\Temp\ccbI3tQa.s:8046   .debug_str:000000000000167f .LASF11
C:\Users\stapi\AppData\Local\Temp\ccbI3tQa.s:7918   .debug_str:00000000000011fc .LASF12
C:\Users\stapi\AppData\Local\Temp\ccbI3tQa.s:7564   .debug_str:00000000000005d2 .LASF13
C:\Users\stapi\AppData\Local\Temp\ccbI3tQa.s:8054   .debug_str:00000000000016b9 .LASF14
C:\Users\stapi\AppData\Local\Temp\ccbI3tQa.s:8272   .debug_str:0000000000001d86 .LASF15
C:\Users\stapi\AppData\Local\Temp\ccbI3tQa.s:8170   .debug_str:0000000000001a39 .LASF16
C:\Users\stapi\AppData\Local\Temp\ccbI3tQa.s:7372   .debug_str:0000000000000058 .LASF17
C:\Users\stapi\AppData\Local\Temp\ccbI3tQa.s:7676   .debug_str:0000000000000962 .LASF18
C:\Users\stapi\AppData\Local\Temp\ccbI3tQa.s:7370   .debug_str:000000000000004f .LASF19
C:\Users\stapi\AppData\Local\Temp\ccbI3tQa.s:7624   .debug_str:000000000000080e .LASF20
C:\Users\stapi\AppData\Local\Temp\ccbI3tQa.s:7486   .debug_str:0000000000000363 .LASF21
C:\Users\stapi\AppData\Local\Temp\ccbI3tQa.s:8312   .debug_str:0000000000001ec4 .LASF22
C:\Users\stapi\AppData\Local\Temp\ccbI3tQa.s:7930   .debug_str:00000000000012c8 .LASF23
C:\Users\stapi\AppData\Local\Temp\ccbI3tQa.s:8104   .debug_str:0000000000001812 .LASF24
C:\Users\stapi\AppData\Local\Temp\ccbI3tQa.s:8194   .debug_str:0000000000001aef .LASF25
C:\Users\stapi\AppData\Local\Temp\ccbI3tQa.s:8144   .debug_str:0000000000001942 .LASF26
C:\Users\stapi\AppData\Local\Temp\ccbI3tQa.s:7914   .debug_str:00000000000011ef .LASF27
C:\Users\stapi\AppData\Local\Temp\ccbI3tQa.s:8128   .debug_str:00000000000018e0 .LASF28
C:\Users\stapi\AppData\Local\Temp\ccbI3tQa.s:8344   .debug_str:0000000000001fe8 .LASF29
C:\Users\stapi\AppData\Local\Temp\ccbI3tQa.s:7482   .debug_str:0000000000000354 .LASF30
C:\Users\stapi\AppData\Local\Temp\ccbI3tQa.s:7798   .debug_str:0000000000000e2f .LASF31
C:\Users\stapi\AppData\Local\Temp\ccbI3tQa.s:7740   .debug_str:0000000000000b79 .LASF32
C:\Users\stapi\AppData\Local\Temp\ccbI3tQa.s:7552   .debug_str:0000000000000564 .LASF33
C:\Users\stapi\AppData\Local\Temp\ccbI3tQa.s:7724   .debug_str:0000000000000af6 .LASF34
C:\Users\stapi\AppData\Local\Temp\ccbI3tQa.s:7796   .debug_str:0000000000000e28 .LASF35
C:\Users\stapi\AppData\Local\Temp\ccbI3tQa.s:7378   .debug_str:0000000000000079 .LASF36
C:\Users\stapi\AppData\Local\Temp\ccbI3tQa.s:8346   .debug_str:0000000000001fed .LASF37
C:\Users\stapi\AppData\Local\Temp\ccbI3tQa.s:8052   .debug_str:00000000000016b2 .LASF38
C:\Users\stapi\AppData\Local\Temp\ccbI3tQa.s:7956   .debug_str:0000000000001395 .LASF39
C:\Users\stapi\AppData\Local\Temp\ccbI3tQa.s:7900   .debug_str:0000000000001178 .LASF40
C:\Users\stapi\AppData\Local\Temp\ccbI3tQa.s:7974   .debug_str:000000000000141d .LASF41
C:\Users\stapi\AppData\Local\Temp\ccbI3tQa.s:7596   .debug_str:00000000000006b3 .LASF42
C:\Users\stapi\AppData\Local\Temp\ccbI3tQa.s:7836   .debug_str:0000000000000f5a .LASF43
C:\Users\stapi\AppData\Local\Temp\ccbI3tQa.s:7528   .debug_str:00000000000004c3 .LASF44
C:\Users\stapi\AppData\Local\Temp\ccbI3tQa.s:8270   .debug_str:0000000000001d7e .LASF45
C:\Users\stapi\AppData\Local\Temp\ccbI3tQa.s:7944   .debug_str:000000000000132f .LASF46
C:\Users\stapi\AppData\Local\Temp\ccbI3tQa.s:7406   .debug_str:000000000000013b .LASF47
C:\Users\stapi\AppData\Local\Temp\ccbI3tQa.s:7866   .debug_str:0000000000001042 .LASF48
C:\Users\stapi\AppData\Local\Temp\ccbI3tQa.s:7824   .debug_str:0000000000000ef4 .LASF49
C:\Users\stapi\AppData\Local\Temp\ccbI3tQa.s:8224   .debug_str:0000000000001bf5 .LASF50
C:\Users\stapi\AppData\Local\Temp\ccbI3tQa.s:8020   .debug_str:00000000000015c5 .LASF51
C:\Users\stapi\AppData\Local\Temp\ccbI3tQa.s:8048   .debug_str:0000000000001696 .LASF52
C:\Users\stapi\AppData\Local\Temp\ccbI3tQa.s:7584   .debug_str:000000000000064e .LASF53
C:\Users\stapi\AppData\Local\Temp\ccbI3tQa.s:7570   .debug_str:00000000000005f3 .LASF54
C:\Users\stapi\AppData\Local\Temp\ccbI3tQa.s:8068   .debug_str:0000000000001701 .LASF55
C:\Users\stapi\AppData\Local\Temp\ccbI3tQa.s:7958   .debug_str:000000000000139c .LASF56
C:\Users\stapi\AppData\Local\Temp\ccbI3tQa.s:7818   .debug_str:0000000000000ecf .LASF57
C:\Users\stapi\AppData\Local\Temp\ccbI3tQa.s:7396   .debug_str:00000000000000e4 .LASF58
C:\Users\stapi\AppData\Local\Temp\ccbI3tQa.s:7478   .debug_str:0000000000000344 .LASF59
C:\Users\stapi\AppData\Local\Temp\ccbI3tQa.s:8028   .debug_str:00000000000015fc .LASF60
C:\Users\stapi\AppData\Local\Temp\ccbI3tQa.s:7718   .debug_str:0000000000000ad6 .LASF61
C:\Users\stapi\AppData\Local\Temp\ccbI3tQa.s:7416   .debug_str:0000000000000195 .LASF62
C:\Users\stapi\AppData\Local\Temp\ccbI3tQa.s:7464   .debug_str:0000000000000305 .LASF63
C:\Users\stapi\AppData\Local\Temp\ccbI3tQa.s:7646   .debug_str:0000000000000894 .LASF64
C:\Users\stapi\AppData\Local\Temp\ccbI3tQa.s:7524   .debug_str:00000000000004a4 .LASF65
C:\Users\stapi\AppData\Local\Temp\ccbI3tQa.s:7432   .debug_str:000000000000021c .LASF66
C:\Users\stapi\AppData\Local\Temp\ccbI3tQa.s:8118   .debug_str:000000000000186c .LASF67
C:\Users\stapi\AppData\Local\Temp\ccbI3tQa.s:8044   .debug_str:0000000000001673 .LASF68
C:\Users\stapi\AppData\Local\Temp\ccbI3tQa.s:7936   .debug_str:00000000000012f0 .LASF69
C:\Users\stapi\AppData\Local\Temp\ccbI3tQa.s:7376   .debug_str:000000000000006b .LASF70
C:\Users\stapi\AppData\Local\Temp\ccbI3tQa.s:7696   .debug_str:0000000000000a08 .LASF71
C:\Users\stapi\AppData\Local\Temp\ccbI3tQa.s:8210   .debug_str:0000000000001b8d .LASF72
C:\Users\stapi\AppData\Local\Temp\ccbI3tQa.s:7660   .debug_str:00000000000008f9 .LASF73
C:\Users\stapi\AppData\Local\Temp\ccbI3tQa.s:7656   .debug_str:00000000000008de .LASF74
C:\Users\stapi\AppData\Local\Temp\ccbI3tQa.s:8062   .debug_str:00000000000016da .LASF75
C:\Users\stapi\AppData\Local\Temp\ccbI3tQa.s:7636   .debug_str:0000000000000860 .LASF76
C:\Users\stapi\AppData\Local\Temp\ccbI3tQa.s:8228   .debug_str:0000000000001c10 .LASF77
C:\Users\stapi\AppData\Local\Temp\ccbI3tQa.s:8202   .debug_str:0000000000001b43 .LASF78
C:\Users\stapi\AppData\Local\Temp\ccbI3tQa.s:7484   .debug_str:000000000000035a .LASF79
C:\Users\stapi\AppData\Local\Temp\ccbI3tQa.s:8198   .debug_str:0000000000001b27 .LASF80
C:\Users\stapi\AppData\Local\Temp\ccbI3tQa.s:8114   .debug_str:0000000000001859 .LASF81
C:\Users\stapi\AppData\Local\Temp\ccbI3tQa.s:8184   .debug_str:0000000000001aae .LASF82
C:\Users\stapi\AppData\Local\Temp\ccbI3tQa.s:7608   .debug_str:0000000000000796 .LASF83
C:\Users\stapi\AppData\Local\Temp\ccbI3tQa.s:7822   .debug_str:0000000000000eec .LASF84
C:\Users\stapi\AppData\Local\Temp\ccbI3tQa.s:8066   .debug_str:00000000000016f3 .LASF85
C:\Users\stapi\AppData\Local\Temp\ccbI3tQa.s:7666   .debug_str:000000000000092d .LASF86
C:\Users\stapi\AppData\Local\Temp\ccbI3tQa.s:8058   .debug_str:00000000000016c9 .LASF87
C:\Users\stapi\AppData\Local\Temp\ccbI3tQa.s:8074   .debug_str:000000000000173b .LASF88
C:\Users\stapi\AppData\Local\Temp\ccbI3tQa.s:7954   .debug_str:000000000000138f .LASF89
C:\Users\stapi\AppData\Local\Temp\ccbI3tQa.s:8064   .debug_str:00000000000016e4 .LASF90
C:\Users\stapi\AppData\Local\Temp\ccbI3tQa.s:7726   .debug_str:0000000000000aff .LASF91
C:\Users\stapi\AppData\Local\Temp\ccbI3tQa.s:7838   .debug_str:0000000000000f63 .LASF92
C:\Users\stapi\AppData\Local\Temp\ccbI3tQa.s:7488   .debug_str:000000000000036b .LASF93
C:\Users\stapi\AppData\Local\Temp\ccbI3tQa.s:7422   .debug_str:00000000000001cd .LASF94
C:\Users\stapi\AppData\Local\Temp\ccbI3tQa.s:8334   .debug_str:0000000000001f82 .LASF95
C:\Users\stapi\AppData\Local\Temp\ccbI3tQa.s:8282   .debug_str:0000000000001dbb .LASF96
C:\Users\stapi\AppData\Local\Temp\ccbI3tQa.s:8180   .debug_str:0000000000001a81 .LASF97
C:\Users\stapi\AppData\Local\Temp\ccbI3tQa.s:7800   .debug_str:0000000000000e37 .LASF98
C:\Users\stapi\AppData\Local\Temp\ccbI3tQa.s:7426   .debug_str:00000000000001ee .LASF99
C:\Users\stapi\AppData\Local\Temp\ccbI3tQa.s:8200   .debug_str:0000000000001b38 .LASF100
C:\Users\stapi\AppData\Local\Temp\ccbI3tQa.s:8354   .debug_str:0000000000002020 .LASF101
C:\Users\stapi\AppData\Local\Temp\ccbI3tQa.s:8360   .debug_str:0000000000002045 .LASF102
C:\Users\stapi\AppData\Local\Temp\ccbI3tQa.s:8030   .debug_str:0000000000001606 .LASF103
C:\Users\stapi\AppData\Local\Temp\ccbI3tQa.s:7756   .debug_str:0000000000000be0 .LASF104
C:\Users\stapi\AppData\Local\Temp\ccbI3tQa.s:7928   .debug_str:00000000000012bb .LASF105
C:\Users\stapi\AppData\Local\Temp\ccbI3tQa.s:7472   .debug_str:0000000000000327 .LASF106
C:\Users\stapi\AppData\Local\Temp\ccbI3tQa.s:8102   .debug_str:0000000000001804 .LASF107
C:\Users\stapi\AppData\Local\Temp\ccbI3tQa.s:8266   .debug_str:0000000000001d53 .LASF108
C:\Users\stapi\AppData\Local\Temp\ccbI3tQa.s:7968   .debug_str:00000000000013f5 .LASF109
C:\Users\stapi\AppData\Local\Temp\ccbI3tQa.s:7934   .debug_str:00000000000012de .LASF110
C:\Users\stapi\AppData\Local\Temp\ccbI3tQa.s:7826   .debug_str:0000000000000f00 .LASF111
C:\Users\stapi\AppData\Local\Temp\ccbI3tQa.s:7862   .debug_str:0000000000001012 .LASF112
C:\Users\stapi\AppData\Local\Temp\ccbI3tQa.s:8350   .debug_str:0000000000001ffd .LASF113
C:\Users\stapi\AppData\Local\Temp\ccbI3tQa.s:8236   .debug_str:0000000000001c58 .LASF114
C:\Users\stapi\AppData\Local\Temp\ccbI3tQa.s:7454   .debug_str:00000000000002b7 .LASF115
C:\Users\stapi\AppData\Local\Temp\ccbI3tQa.s:8154   .debug_str:000000000000198b .LASF116
C:\Users\stapi\AppData\Local\Temp\ccbI3tQa.s:7804   .debug_str:0000000000000e52 .LASF117
C:\Users\stapi\AppData\Local\Temp\ccbI3tQa.s:8298   .debug_str:0000000000001e4d .LASF118
C:\Users\stapi\AppData\Local\Temp\ccbI3tQa.s:7434   .debug_str:000000000000022b .LASF119
C:\Users\stapi\AppData\Local\Temp\ccbI3tQa.s:8208   .debug_str:0000000000001b80 .LASF120
C:\Users\stapi\AppData\Local\Temp\ccbI3tQa.s:8220   .debug_str:0000000000001bdf .LASF121
C:\Users\stapi\AppData\Local\Temp\ccbI3tQa.s:7680   .debug_str:000000000000097e .LASF122
C:\Users\stapi\AppData\Local\Temp\ccbI3tQa.s:8002   .debug_str:000000000000150a .LASF123
C:\Users\stapi\AppData\Local\Temp\ccbI3tQa.s:8026   .debug_str:00000000000015e7 .LASF124
C:\Users\stapi\AppData\Local\Temp\ccbI3tQa.s:8138   .debug_str:0000000000001922 .LASF125
C:\Users\stapi\AppData\Local\Temp\ccbI3tQa.s:8364   .debug_str:0000000000002070 .LASF126
C:\Users\stapi\AppData\Local\Temp\ccbI3tQa.s:7992   .debug_str:00000000000014cc .LASF127
C:\Users\stapi\AppData\Local\Temp\ccbI3tQa.s:7500   .debug_str:00000000000003da .LASF128
C:\Users\stapi\AppData\Local\Temp\ccbI3tQa.s:7808   .debug_str:0000000000000e72 .LASF129
C:\Users\stapi\AppData\Local\Temp\ccbI3tQa.s:7720   .debug_str:0000000000000ae0 .LASF130
C:\Users\stapi\AppData\Local\Temp\ccbI3tQa.s:7742   .debug_str:0000000000000b81 .LASF131
C:\Users\stapi\AppData\Local\Temp\ccbI3tQa.s:7462   .debug_str:00000000000002f5 .LASF132
C:\Users\stapi\AppData\Local\Temp\ccbI3tQa.s:8124   .debug_str:00000000000018a8 .LASF133
C:\Users\stapi\AppData\Local\Temp\ccbI3tQa.s:7842   .debug_str:0000000000000f7f .LASF134
C:\Users\stapi\AppData\Local\Temp\ccbI3tQa.s:7576   .debug_str:0000000000000617 .LASF135
C:\Users\stapi\AppData\Local\Temp\ccbI3tQa.s:7550   .debug_str:0000000000000557 .LASF136
C:\Users\stapi\AppData\Local\Temp\ccbI3tQa.s:7830   .debug_str:0000000000000f25 .LASF137
C:\Users\stapi\AppData\Local\Temp\ccbI3tQa.s:7506   .debug_str:0000000000000414 .LASF138
C:\Users\stapi\AppData\Local\Temp\ccbI3tQa.s:7908   .debug_str:00000000000011c1 .LASF139
C:\Users\stapi\AppData\Local\Temp\ccbI3tQa.s:7670   .debug_str:000000000000093a .LASF140
C:\Users\stapi\AppData\Local\Temp\ccbI3tQa.s:7468   .debug_str:000000000000031a .LASF141
C:\Users\stapi\AppData\Local\Temp\ccbI3tQa.s:8100   .debug_str:00000000000017ff .LASF142
C:\Users\stapi\AppData\Local\Temp\ccbI3tQa.s:8146   .debug_str:0000000000001947 .LASF143
C:\Users\stapi\AppData\Local\Temp\ccbI3tQa.s:7450   .debug_str:00000000000002a8 .LASF144
C:\Users\stapi\AppData\Local\Temp\ccbI3tQa.s:7962   .debug_str:00000000000013cb .LASF145
C:\Users\stapi\AppData\Local\Temp\ccbI3tQa.s:7744   .debug_str:0000000000000b8d .LASF146
C:\Users\stapi\AppData\Local\Temp\ccbI3tQa.s:8300   .debug_str:0000000000001e5f .LASF147
C:\Users\stapi\AppData\Local\Temp\ccbI3tQa.s:8252   .debug_str:0000000000001cd8 .LASF148
C:\Users\stapi\AppData\Local\Temp\ccbI3tQa.s:7430   .debug_str:0000000000000211 .LASF149
C:\Users\stapi\AppData\Local\Temp\ccbI3tQa.s:7382   .debug_str:000000000000008e .LASF150
C:\Users\stapi\AppData\Local\Temp\ccbI3tQa.s:7602   .debug_str:00000000000006ea .LASF151
C:\Users\stapi\AppData\Local\Temp\ccbI3tQa.s:8294   .debug_str:0000000000001e37 .LASF152
C:\Users\stapi\AppData\Local\Temp\ccbI3tQa.s:7638   .debug_str:0000000000000869 .LASF153
C:\Users\stapi\AppData\Local\Temp\ccbI3tQa.s:7438   .debug_str:0000000000000250 .LASF154
C:\Users\stapi\AppData\Local\Temp\ccbI3tQa.s:8340   .debug_str:0000000000001fd3 .LASF155
C:\Users\stapi\AppData\Local\Temp\ccbI3tQa.s:7924   .debug_str:0000000000001232 .LASF156
C:\Users\stapi\AppData\Local\Temp\ccbI3tQa.s:7916   .debug_str:00000000000011f4 .LASF157
C:\Users\stapi\AppData\Local\Temp\ccbI3tQa.s:8176   .debug_str:0000000000001a59 .LASF158
C:\Users\stapi\AppData\Local\Temp\ccbI3tQa.s:8140   .debug_str:0000000000001935 .LASF159
C:\Users\stapi\AppData\Local\Temp\ccbI3tQa.s:7618   .debug_str:00000000000007d5 .LASF160
C:\Users\stapi\AppData\Local\Temp\ccbI3tQa.s:7806   .debug_str:0000000000000e62 .LASF161
C:\Users\stapi\AppData\Local\Temp\ccbI3tQa.s:8332   .debug_str:0000000000001f7c .LASF162
C:\Users\stapi\AppData\Local\Temp\ccbI3tQa.s:7970   .debug_str:0000000000001407 .LASF163
C:\Users\stapi\AppData\Local\Temp\ccbI3tQa.s:7644   .debug_str:0000000000000889 .LASF164
C:\Users\stapi\AppData\Local\Temp\ccbI3tQa.s:7502   .debug_str:00000000000003e3 .LASF165
C:\Users\stapi\AppData\Local\Temp\ccbI3tQa.s:7384   .debug_str:0000000000000098 .LASF166
C:\Users\stapi\AppData\Local\Temp\ccbI3tQa.s:8164   .debug_str:0000000000001a05 .LASF167
C:\Users\stapi\AppData\Local\Temp\ccbI3tQa.s:7612   .debug_str:00000000000007ac .LASF168
C:\Users\stapi\AppData\Local\Temp\ccbI3tQa.s:7458   .debug_str:00000000000002d8 .LASF169
C:\Users\stapi\AppData\Local\Temp\ccbI3tQa.s:7442   .debug_str:0000000000000265 .LASF170
C:\Users\stapi\AppData\Local\Temp\ccbI3tQa.s:7574   .debug_str:000000000000060f .LASF171
C:\Users\stapi\AppData\Local\Temp\ccbI3tQa.s:8080   .debug_str:0000000000001768 .LASF172
C:\Users\stapi\AppData\Local\Temp\ccbI3tQa.s:7886   .debug_str:00000000000010f7 .LASF173
C:\Users\stapi\AppData\Local\Temp\ccbI3tQa.s:7380   .debug_str:0000000000000084 .LASF174
C:\Users\stapi\AppData\Local\Temp\ccbI3tQa.s:7700   .debug_str:0000000000000a2c .LASF175
C:\Users\stapi\AppData\Local\Temp\ccbI3tQa.s:7520   .debug_str:0000000000000494 .LASF176
C:\Users\stapi\AppData\Local\Temp\ccbI3tQa.s:7938   .debug_str:00000000000012f5 .LASF177
C:\Users\stapi\AppData\Local\Temp\ccbI3tQa.s:7402   .debug_str:000000000000011f .LASF178
C:\Users\stapi\AppData\Local\Temp\ccbI3tQa.s:8284   .debug_str:0000000000001dc7 .LASF179
C:\Users\stapi\AppData\Local\Temp\ccbI3tQa.s:7754   .debug_str:0000000000000bd4 .LASF180
C:\Users\stapi\AppData\Local\Temp\ccbI3tQa.s:7518   .debug_str:000000000000048f .LASF181
C:\Users\stapi\AppData\Local\Temp\ccbI3tQa.s:7532   .debug_str:00000000000004d7 .LASF182
C:\Users\stapi\AppData\Local\Temp\ccbI3tQa.s:8368   .debug_str:000000000000208c .LASF183
C:\Users\stapi\AppData\Local\Temp\ccbI3tQa.s:7452   .debug_str:00000000000002b1 .LASF184
C:\Users\stapi\AppData\Local\Temp\ccbI3tQa.s:8076   .debug_str:0000000000001746 .LASF185
C:\Users\stapi\AppData\Local\Temp\ccbI3tQa.s:8248   .debug_str:0000000000001cc0 .LASF186
C:\Users\stapi\AppData\Local\Temp\ccbI3tQa.s:7614   .debug_str:00000000000007b4 .LASF187
C:\Users\stapi\AppData\Local\Temp\ccbI3tQa.s:7950   .debug_str:0000000000001373 .LASF188
C:\Users\stapi\AppData\Local\Temp\ccbI3tQa.s:7734   .debug_str:0000000000000b48 .LASF189
C:\Users\stapi\AppData\Local\Temp\ccbI3tQa.s:7994   .debug_str:00000000000014d4 .LASF190
C:\Users\stapi\AppData\Local\Temp\ccbI3tQa.s:8308   .debug_str:0000000000001eab .LASF191
C:\Users\stapi\AppData\Local\Temp\ccbI3tQa.s:8186   .debug_str:0000000000001ab8 .LASF192
C:\Users\stapi\AppData\Local\Temp\ccbI3tQa.s:8096   .debug_str:00000000000017e2 .LASF193
C:\Users\stapi\AppData\Local\Temp\ccbI3tQa.s:8192   .debug_str:0000000000001ae7 .LASF194
C:\Users\stapi\AppData\Local\Temp\ccbI3tQa.s:7620   .debug_str:00000000000007db .LASF195
C:\Users\stapi\AppData\Local\Temp\ccbI3tQa.s:7412   .debug_str:0000000000000180 .LASF196
C:\Users\stapi\AppData\Local\Temp\ccbI3tQa.s:8190   .debug_str:0000000000001ada .LASF197
C:\Users\stapi\AppData\Local\Temp\ccbI3tQa.s:7586   .debug_str:000000000000065d .LASF198
C:\Users\stapi\AppData\Local\Temp\ccbI3tQa.s:8310   .debug_str:0000000000001eb9 .LASF199
C:\Users\stapi\AppData\Local\Temp\ccbI3tQa.s:7728   .debug_str:0000000000000b0d .LASF200
C:\Users\stapi\AppData\Local\Temp\ccbI3tQa.s:8276   .debug_str:0000000000001d98 .LASF201
C:\Users\stapi\AppData\Local\Temp\ccbI3tQa.s:7492   .debug_str:0000000000000385 .LASF202
C:\Users\stapi\AppData\Local\Temp\ccbI3tQa.s:8278   .debug_str:0000000000001da2 .LASF203
C:\Users\stapi\AppData\Local\Temp\ccbI3tQa.s:7882   .debug_str:00000000000010d5 .LASF204
C:\Users\stapi\AppData\Local\Temp\ccbI3tQa.s:7712   .debug_str:0000000000000a91 .LASF205
C:\Users\stapi\AppData\Local\Temp\ccbI3tQa.s:7470   .debug_str:000000000000031f .LASF206
C:\Users\stapi\AppData\Local\Temp\ccbI3tQa.s:8016   .debug_str:00000000000015b2 .LASF207
C:\Users\stapi\AppData\Local\Temp\ccbI3tQa.s:8136   .debug_str:0000000000001916 .LASF208
C:\Users\stapi\AppData\Local\Temp\ccbI3tQa.s:7748   .debug_str:0000000000000ba5 .LASF209
C:\Users\stapi\AppData\Local\Temp\ccbI3tQa.s:8134   .debug_str:0000000000001907 .LASF210
C:\Users\stapi\AppData\Local\Temp\ccbI3tQa.s:8056   .debug_str:00000000000016c2 .LASF211
C:\Users\stapi\AppData\Local\Temp\ccbI3tQa.s:7690   .debug_str:00000000000009d0 .LASF212
C:\Users\stapi\AppData\Local\Temp\ccbI3tQa.s:8302   .debug_str:0000000000001e6e .LASF213
C:\Users\stapi\AppData\Local\Temp\ccbI3tQa.s:7878   .debug_str:000000000000109e .LASF214
C:\Users\stapi\AppData\Local\Temp\ccbI3tQa.s:8106   .debug_str:0000000000001818 .LASF215
C:\Users\stapi\AppData\Local\Temp\ccbI3tQa.s:7848   .debug_str:0000000000000fb6 .LASF216
C:\Users\stapi\AppData\Local\Temp\ccbI3tQa.s:7952   .debug_str:000000000000137a .LASF217
C:\Users\stapi\AppData\Local\Temp\ccbI3tQa.s:8078   .debug_str:0000000000001753 .LASF218
C:\Users\stapi\AppData\Local\Temp\ccbI3tQa.s:8084   .debug_str:000000000000179a .LASF219
C:\Users\stapi\AppData\Local\Temp\ccbI3tQa.s:7610   .debug_str:000000000000079e .LASF220
C:\Users\stapi\AppData\Local\Temp\ccbI3tQa.s:7784   .debug_str:0000000000000d9d .LASF221
C:\Users\stapi\AppData\Local\Temp\ccbI3tQa.s:8318   .debug_str:0000000000001eef .LASF222
C:\Users\stapi\AppData\Local\Temp\ccbI3tQa.s:7776   .debug_str:0000000000000c6b .LASF223
C:\Users\stapi\AppData\Local\Temp\ccbI3tQa.s:7932   .debug_str:00000000000012ce .LASF224
C:\Users\stapi\AppData\Local\Temp\ccbI3tQa.s:7466   .debug_str:0000000000000311 .LASF225
C:\Users\stapi\AppData\Local\Temp\ccbI3tQa.s:7362   .debug_str:0000000000000020 .LASF226
C:\Users\stapi\AppData\Local\Temp\ccbI3tQa.s:7858   .debug_str:0000000000000ff5 .LASF227
C:\Users\stapi\AppData\Local\Temp\ccbI3tQa.s:7544   .debug_str:0000000000000527 .LASF228
C:\Users\stapi\AppData\Local\Temp\ccbI3tQa.s:8130   .debug_str:00000000000018ed .LASF229
C:\Users\stapi\AppData\Local\Temp\ccbI3tQa.s:7872   .debug_str:0000000000001072 .LASF230
C:\Users\stapi\AppData\Local\Temp\ccbI3tQa.s:8092   .debug_str:00000000000017cc .LASF231
C:\Users\stapi\AppData\Local\Temp\ccbI3tQa.s:7770   .debug_str:0000000000000c57 .LASF232
C:\Users\stapi\AppData\Local\Temp\ccbI3tQa.s:7790   .debug_str:0000000000000de1 .LASF233
C:\Users\stapi\AppData\Local\Temp\ccbI3tQa.s:7686   .debug_str:00000000000009b2 .LASF234
C:\Users\stapi\AppData\Local\Temp\ccbI3tQa.s:7572   .debug_str:00000000000005fd .LASF235
C:\Users\stapi\AppData\Local\Temp\ccbI3tQa.s:7892   .debug_str:0000000000001136 .LASF236
C:\Users\stapi\AppData\Local\Temp\ccbI3tQa.s:7984   .debug_str:000000000000148a .LASF237
C:\Users\stapi\AppData\Local\Temp\ccbI3tQa.s:8326   .debug_str:0000000000001f48 .LASF238
C:\Users\stapi\AppData\Local\Temp\ccbI3tQa.s:7634   .debug_str:0000000000000859 .LASF239
C:\Users\stapi\AppData\Local\Temp\ccbI3tQa.s:7870   .debug_str:0000000000001069 .LASF240
C:\Users\stapi\AppData\Local\Temp\ccbI3tQa.s:8264   .debug_str:0000000000001d47 .LASF241
C:\Users\stapi\AppData\Local\Temp\ccbI3tQa.s:8216   .debug_str:0000000000001bc4 .LASF242
C:\Users\stapi\AppData\Local\Temp\ccbI3tQa.s:7366   .debug_str:0000000000000033 .LASF243
C:\Users\stapi\AppData\Local\Temp\ccbI3tQa.s:7424   .debug_str:00000000000001e0 .LASF244
C:\Users\stapi\AppData\Local\Temp\ccbI3tQa.s:7976   .debug_str:0000000000001427 .LASF245
C:\Users\stapi\AppData\Local\Temp\ccbI3tQa.s:8166   .debug_str:0000000000001a12 .LASF246
C:\Users\stapi\AppData\Local\Temp\ccbI3tQa.s:7816   .debug_str:0000000000000ebe .LASF247
C:\Users\stapi\AppData\Local\Temp\ccbI3tQa.s:7988   .debug_str:00000000000014ad .LASF248
C:\Users\stapi\AppData\Local\Temp\ccbI3tQa.s:7782   .debug_str:0000000000000d8f .LASF249
C:\Users\stapi\AppData\Local\Temp\ccbI3tQa.s:8034   .debug_str:0000000000001630 .LASF250
C:\Users\stapi\AppData\Local\Temp\ccbI3tQa.s:8296   .debug_str:0000000000001e3d .LASF255
C:\Users\stapi\AppData\Local\Temp\ccbI3tQa.s:8148   .debug_str:0000000000001954 .LASF251
C:\Users\stapi\AppData\Local\Temp\ccbI3tQa.s:7394   .debug_str:00000000000000d3 .LASF252
C:\Users\stapi\AppData\Local\Temp\ccbI3tQa.s:7964   .debug_str:00000000000013d4 .LASF253
C:\Users\stapi\AppData\Local\Temp\ccbI3tQa.s:7920   .debug_str:0000000000001209 .LASF254
C:\Users\stapi\AppData\Local\Temp\ccbI3tQa.s:8232   .debug_str:0000000000001c37 .LASF256
C:\Users\stapi\AppData\Local\Temp\ccbI3tQa.s:8132   .debug_str:00000000000018fa .LASF257
C:\Users\stapi\AppData\Local\Temp\ccbI3tQa.s:8022   .debug_str:00000000000015d1 .LASF258
C:\Users\stapi\AppData\Local\Temp\ccbI3tQa.s:7766   .debug_str:0000000000000c38 .LASF259
C:\Users\stapi\AppData\Local\Temp\ccbI3tQa.s:8070   .debug_str:0000000000001709 .LASF260
C:\Users\stapi\AppData\Local\Temp\ccbI3tQa.s:7546   .debug_str:0000000000000534 .LASF261
C:\Users\stapi\AppData\Local\Temp\ccbI3tQa.s:7844   .debug_str:0000000000000f92 .LASF262
C:\Users\stapi\AppData\Local\Temp\ccbI3tQa.s:8094   .debug_str:00000000000017d4 .LASF263
C:\Users\stapi\AppData\Local\Temp\ccbI3tQa.s:7674   .debug_str:0000000000000953 .LASF264
C:\Users\stapi\AppData\Local\Temp\ccbI3tQa.s:7358   .debug_str:0000000000000000 .LASF265
C:\Users\stapi\AppData\Local\Temp\ccbI3tQa.s:7360   .debug_str:0000000000000010 .LASF266
C:\Users\stapi\AppData\Local\Temp\ccbI3tQa.s:8086   .debug_str:00000000000017a6 .LASF267
C:\Users\stapi\AppData\Local\Temp\ccbI3tQa.s:8322   .debug_str:0000000000001f1f .LASF268
C:\Users\stapi\AppData\Local\Temp\ccbI3tQa.s:7514   .debug_str:000000000000045a .LASF269
C:\Users\stapi\AppData\Local\Temp\ccbI3tQa.s:7650   .debug_str:00000000000008ad .LASF270
C:\Users\stapi\AppData\Local\Temp\ccbI3tQa.s:8032   .debug_str:0000000000001617 .LASF271
C:\Users\stapi\AppData\Local\Temp\ccbI3tQa.s:7810   .debug_str:0000000000000e7c .LASF272
C:\Users\stapi\AppData\Local\Temp\ccbI3tQa.s:8240   .debug_str:0000000000001c7d .LASF273
C:\Users\stapi\AppData\Local\Temp\ccbI3tQa.s:7986   .debug_str:0000000000001494 .LASF274
C:\Users\stapi\AppData\Local\Temp\ccbI3tQa.s:8268   .debug_str:0000000000001d63 .LASF275
C:\Users\stapi\AppData\Local\Temp\ccbI3tQa.s:7940   .debug_str:00000000000012fb .LASF276
C:\Users\stapi\AppData\Local\Temp\ccbI3tQa.s:7906   .debug_str:00000000000011a8 .LASF277
C:\Users\stapi\AppData\Local\Temp\ccbI3tQa.s:7698   .debug_str:0000000000000a11 .LASF278
C:\Users\stapi\AppData\Local\Temp\ccbI3tQa.s:7902   .debug_str:0000000000001185 .LASF279
C:\Users\stapi\AppData\Local\Temp\ccbI3tQa.s:8006   .debug_str:000000000000152d .LASF280
C:\Users\stapi\AppData\Local\Temp\ccbI3tQa.s:8328   .debug_str:0000000000001f53 .LASF281
C:\Users\stapi\AppData\Local\Temp\ccbI3tQa.s:7910   .debug_str:00000000000011c9 .LASF282
C:\Users\stapi\AppData\Local\Temp\ccbI3tQa.s:8320   .debug_str:0000000000001f01 .LASF283
C:\Users\stapi\AppData\Local\Temp\ccbI3tQa.s:8110   .debug_str:0000000000001834 .LASF284
C:\Users\stapi\AppData\Local\Temp\ccbI3tQa.s:7864   .debug_str:0000000000001025 .LASF285
C:\Users\stapi\AppData\Local\Temp\ccbI3tQa.s:7730   .debug_str:0000000000000b19 .LASF286
C:\Users\stapi\AppData\Local\Temp\ccbI3tQa.s:8072   .debug_str:0000000000001719 .LASF287
C:\Users\stapi\AppData\Local\Temp\ccbI3tQa.s:7594   .debug_str:0000000000000695 .LASF288
C:\Users\stapi\AppData\Local\Temp\ccbI3tQa.s:8178   .debug_str:0000000000001a65 .LASF289
C:\Users\stapi\AppData\Local\Temp\ccbI3tQa.s:8126   .debug_str:00000000000018b9 .LASF290
C:\Users\stapi\AppData\Local\Temp\ccbI3tQa.s:7978   .debug_str:0000000000001438 .LASF291
C:\Users\stapi\AppData\Local\Temp\ccbI3tQa.s:7496   .debug_str:00000000000003a2 .LASF292
C:\Users\stapi\AppData\Local\Temp\ccbI3tQa.s:7890   .debug_str:0000000000001115 .LASF293
C:\Users\stapi\AppData\Local\Temp\ccbI3tQa.s:8010   .debug_str:0000000000001559 .LASF294
C:\Users\stapi\AppData\Local\Temp\ccbI3tQa.s:7960   .debug_str:00000000000013a9 .LASF295
C:\Users\stapi\AppData\Local\Temp\ccbI3tQa.s:7788   .debug_str:0000000000000dbe .LASF296
C:\Users\stapi\AppData\Local\Temp\ccbI3tQa.s:8120   .debug_str:0000000000001875 .LASF297
C:\Users\stapi\AppData\Local\Temp\ccbI3tQa.s:7504   .debug_str:00000000000003ed .LASF298
C:\Users\stapi\AppData\Local\Temp\ccbI3tQa.s:7410   .debug_str:000000000000015d .LASF299
C:\Users\stapi\AppData\Local\Temp\ccbI3tQa.s:8338   .debug_str:0000000000001fa9 .LASF300
C:\Users\stapi\AppData\Local\Temp\ccbI3tQa.s:8162   .debug_str:00000000000019e0 .LASF301
C:\Users\stapi\AppData\Local\Temp\ccbI3tQa.s:8238   .debug_str:0000000000001c65 .LASF302
C:\Users\stapi\AppData\Local\Temp\ccbI3tQa.s:8212   .debug_str:0000000000001b96 .LASF303
C:\Users\stapi\AppData\Local\Temp\ccbI3tQa.s:7444   .debug_str:0000000000000271 .LASF304
C:\Users\stapi\AppData\Local\Temp\ccbI3tQa.s:7560   .debug_str:00000000000005aa .LASF305
C:\Users\stapi\AppData\Local\Temp\ccbI3tQa.s:7428   .debug_str:00000000000001f7 .LASF306
C:\Users\stapi\AppData\Local\Temp\ccbI3tQa.s:7534   .debug_str:00000000000004e1 .LASF307
C:\Users\stapi\AppData\Local\Temp\ccbI3tQa.s:7874   .debug_str:0000000000001086 .LASF308
C:\Users\stapi\AppData\Local\Temp\ccbI3tQa.s:7998   .debug_str:00000000000014ee .LASF309
C:\Users\stapi\AppData\Local\Temp\ccbI3tQa.s:7580   .debug_str:000000000000063d .LASF310
C:\Users\stapi\AppData\Local\Temp\ccbI3tQa.s:7896   .debug_str:000000000000115a .LASF311
C:\Users\stapi\AppData\Local\Temp\ccbI3tQa.s:8218   .debug_str:0000000000001bcb .LASF312
C:\Users\stapi\AppData\Local\Temp\ccbI3tQa.s:8000   .debug_str:00000000000014f8 .LASF313
C:\Users\stapi\AppData\Local\Temp\ccbI3tQa.s:7474   .debug_str:0000000000000334 .LASF314
C:\Users\stapi\AppData\Local\Temp\ccbI3tQa.s:7578   .debug_str:0000000000000622 .LASF315
C:\Users\stapi\AppData\Local\Temp\ccbI3tQa.s:7814   .debug_str:0000000000000ea4 .LASF316
C:\Users\stapi\AppData\Local\Temp\ccbI3tQa.s:7708   .debug_str:0000000000000a72 .LASF317
C:\Users\stapi\AppData\Local\Temp\ccbI3tQa.s:7852   .debug_str:0000000000000fc7 .LASF318
C:\Users\stapi\AppData\Local\Temp\ccbI3tQa.s:7682   .debug_str:0000000000000993 .LASF319
C:\Users\stapi\AppData\Local\Temp\ccbI3tQa.s:7386   .debug_str:00000000000000a3 .LASF320
C:\Users\stapi\AppData\Local\Temp\ccbI3tQa.s:8292   .debug_str:0000000000001e1c .LASF321
C:\Users\stapi\AppData\Local\Temp\ccbI3tQa.s:8362   .debug_str:0000000000002056 .LASF322
C:\Users\stapi\AppData\Local\Temp\ccbI3tQa.s:7456   .debug_str:00000000000002c4 .LASF323
C:\Users\stapi\AppData\Local\Temp\ccbI3tQa.s:7542   .debug_str:0000000000000514 .LASF324
C:\Users\stapi\AppData\Local\Temp\ccbI3tQa.s:7536   .debug_str:00000000000004ea .LASF325
C:\Users\stapi\AppData\Local\Temp\ccbI3tQa.s:7374   .debug_str:000000000000005f .LASF326
C:\Users\stapi\AppData\Local\Temp\ccbI3tQa.s:8356   .debug_str:000000000000202a .LASF327
C:\Users\stapi\AppData\Local\Temp\ccbI3tQa.s:7750   .debug_str:0000000000000bb7 .LASF328
C:\Users\stapi\AppData\Local\Temp\ccbI3tQa.s:8262   .debug_str:0000000000001d2f .LASF329
C:\Users\stapi\AppData\Local\Temp\ccbI3tQa.s:7710   .debug_str:0000000000000a80 .LASF330
C:\Users\stapi\AppData\Local\Temp\ccbI3tQa.s:8088   .debug_str:00000000000017b6 .LASF331
C:\Users\stapi\AppData\Local\Temp\ccbI3tQa.s:8342   .debug_str:0000000000001fdf .LASF332
C:\Users\stapi\AppData\Local\Temp\ccbI3tQa.s:7510   .debug_str:0000000000000438 .LASF333
C:\Users\stapi\AppData\Local\Temp\ccbI3tQa.s:7786   .debug_str:0000000000000dad .LASF334
C:\Users\stapi\AppData\Local\Temp\ccbI3tQa.s:8348   .debug_str:0000000000001ff2 .LASF335
C:\Users\stapi\AppData\Local\Temp\ccbI3tQa.s:8274   .debug_str:0000000000001d8f .LASF336
C:\Users\stapi\AppData\Local\Temp\ccbI3tQa.s:8014   .debug_str:000000000000159c .LASF337
C:\Users\stapi\AppData\Local\Temp\ccbI3tQa.s:7772   .debug_str:0000000000000c60 .LASF338
C:\Users\stapi\AppData\Local\Temp\ccbI3tQa.s:8038   .debug_str:0000000000001645 .LASF339
C:\Users\stapi\AppData\Local\Temp\ccbI3tQa.s:8306   .debug_str:0000000000001e8e .LASF340
C:\Users\stapi\AppData\Local\Temp\ccbI3tQa.s:8172   .debug_str:0000000000001a42 .LASF341
C:\Users\stapi\AppData\Local\Temp\ccbI3tQa.s:8256   .debug_str:0000000000001cf4 .LASF342
C:\Users\stapi\AppData\Local\Temp\ccbI3tQa.s:7398   .debug_str:00000000000000ee .LASF343
C:\Users\stapi\AppData\Local\Temp\ccbI3tQa.s:7632   .debug_str:0000000000000842 .LASF344
C:\Users\stapi\AppData\Local\Temp\ccbI3tQa.s:8280   .debug_str:0000000000001da9 .LASF345
C:\Users\stapi\AppData\Local\Temp\ccbI3tQa.s:7420   .debug_str:00000000000001b6 .LASF346
C:\Users\stapi\AppData\Local\Temp\ccbI3tQa.s:7716   .debug_str:0000000000000abc .LASF347
C:\Users\stapi\AppData\Local\Temp\ccbI3tQa.s:7604   .debug_str:00000000000006f3 .LASF348
C:\Users\stapi\AppData\Local\Temp\ccbI3tQa.s:8290   .debug_str:0000000000001e06 .LASF349
C:\Users\stapi\AppData\Local\Temp\ccbI3tQa.s:7558   .debug_str:0000000000000591 .LASF350
C:\Users\stapi\AppData\Local\Temp\ccbI3tQa.s:7898   .debug_str:0000000000001162 .LASF351
C:\Users\stapi\AppData\Local\Temp\ccbI3tQa.s:8336   .debug_str:0000000000001f93 .LASF352
C:\Users\stapi\AppData\Local\Temp\ccbI3tQa.s:7598   .debug_str:00000000000006c1 .LASF353
C:\Users\stapi\AppData\Local\Temp\ccbI3tQa.s:7794   .debug_str:0000000000000e0e .LASF354
C:\Users\stapi\AppData\Local\Temp\ccbI3tQa.s:8230   .debug_str:0000000000001c1d .LASF355
C:\Users\stapi\AppData\Local\Temp\ccbI3tQa.s:7694   .debug_str:00000000000009ef .LASF356
C:\Users\stapi\AppData\Local\Temp\ccbI3tQa.s:7792   .debug_str:0000000000000df3 .LASF357
C:\Users\stapi\AppData\Local\Temp\ccbI3tQa.s:7516   .debug_str:0000000000000471 .LASF358
C:\Users\stapi\AppData\Local\Temp\ccbI3tQa.s:8156   .debug_str:000000000000199b .LASF359
C:\Users\stapi\AppData\Local\Temp\ccbI3tQa.s:7404   .debug_str:0000000000000125 .LASF360
C:\Users\stapi\AppData\Local\Temp\ccbI3tQa.s:8204   .debug_str:0000000000001b50 .LASF361
C:\Users\stapi\AppData\Local\Temp\ccbI3tQa.s:7622   .debug_str:00000000000007e9 .LASF362
C:\Users\stapi\AppData\Local\Temp\ccbI3tQa.s:8012   .debug_str:000000000000157e .LASF363
C:\Users\stapi\AppData\Local\Temp\ccbI3tQa.s:7946   .debug_str:000000000000133e .LASF364
C:\Users\stapi\AppData\Local\Temp\ccbI3tQa.s:8150   .debug_str:0000000000001965 .LASF365
C:\Users\stapi\AppData\Local\Temp\ccbI3tQa.s:8082   .debug_str:0000000000001779 .LASF366
C:\Users\stapi\AppData\Local\Temp\ccbI3tQa.s:7762   .debug_str:0000000000000c0a .LASF367
C:\Users\stapi\AppData\Local\Temp\ccbI3tQa.s:7408   .debug_str:0000000000000143 .LASF368
C:\Users\stapi\AppData\Local\Temp\ccbI3tQa.s:8288   .debug_str:0000000000001dee .LASF369
C:\Users\stapi\AppData\Local\Temp\ccbI3tQa.s:7846   .debug_str:0000000000000fa1 .LASF370
C:\Users\stapi\AppData\Local\Temp\ccbI3tQa.s:8004   .debug_str:0000000000001510 .LASF371
C:\Users\stapi\AppData\Local\Temp\ccbI3tQa.s:8042   .debug_str:0000000000001666 .LASF372
C:\Users\stapi\AppData\Local\Temp\ccbI3tQa.s:7526   .debug_str:00000000000004ae .LASF373
C:\Users\stapi\AppData\Local\Temp\ccbI3tQa.s:7460   .debug_str:00000000000002e2 .LASF374
C:\Users\stapi\AppData\Local\Temp\ccbI3tQa.s:7876   .debug_str:0000000000001091 .LASF375
C:\Users\stapi\AppData\Local\Temp\ccbI3tQa.s:7654   .debug_str:00000000000008ce .LASF376
C:\Users\stapi\AppData\Local\Temp\ccbI3tQa.s:7752   .debug_str:0000000000000bc0 .LASF377
C:\Users\stapi\AppData\Local\Temp\ccbI3tQa.s:8188   .debug_str:0000000000001ac3 .LASF378
C:\Users\stapi\AppData\Local\Temp\ccbI3tQa.s:7942   .debug_str:0000000000001316 .LASF379
C:\Users\stapi\AppData\Local\Temp\ccbI3tQa.s:8168   .debug_str:0000000000001a20 .LASF380
C:\Users\stapi\AppData\Local\Temp\ccbI3tQa.s:7860   .debug_str:0000000000000ffa .LASF381
C:\Users\stapi\AppData\Local\Temp\ccbI3tQa.s:7630   .debug_str:000000000000082d .LASF382
C:\Users\stapi\AppData\Local\Temp\ccbI3tQa.s:7868   .debug_str:0000000000001051 .LASF383
C:\Users\stapi\AppData\Local\Temp\ccbI3tQa.s:7714   .debug_str:0000000000000a9e .LASF384
C:\Users\stapi\AppData\Local\Temp\ccbI3tQa.s:8158   .debug_str:00000000000019b9 .LASF385
C:\Users\stapi\AppData\Local\Temp\ccbI3tQa.s:7616   .debug_str:00000000000007be .LASF386
C:\Users\stapi\AppData\Local\Temp\ccbI3tQa.s:7894   .debug_str:000000000000113b .LASF387
C:\Users\stapi\AppData\Local\Temp\ccbI3tQa.s:7692   .debug_str:00000000000009e0 .LASF388
C:\Users\stapi\AppData\Local\Temp\ccbI3tQa.s:7820   .debug_str:0000000000000edd .LASF389
C:\Users\stapi\AppData\Local\Temp\ccbI3tQa.s:7672   .debug_str:0000000000000945 .LASF390
C:\Users\stapi\AppData\Local\Temp\ccbI3tQa.s:8366   .debug_str:000000000000207f .LASF391
C:\Users\stapi\AppData\Local\Temp\ccbI3tQa.s:7648   .debug_str:000000000000089f .LASF392
C:\Users\stapi\AppData\Local\Temp\ccbI3tQa.s:7732   .debug_str:0000000000000b38 .LASF393
C:\Users\stapi\AppData\Local\Temp\ccbI3tQa.s:7948   .debug_str:0000000000001365 .LASF394
C:\Users\stapi\AppData\Local\Temp\ccbI3tQa.s:8314   .debug_str:0000000000001ec9 .LASF395
C:\Users\stapi\AppData\Local\Temp\ccbI3tQa.s:7966   .debug_str:00000000000013e5 .LASF396
C:\Users\stapi\AppData\Local\Temp\ccbI3tQa.s:7688   .debug_str:00000000000009bd .LASF397
C:\Users\stapi\AppData\Local\Temp\ccbI3tQa.s:7540   .debug_str:0000000000000504 .LASF398
C:\Users\stapi\AppData\Local\Temp\ccbI3tQa.s:7418   .debug_str:00000000000001a3 .LASF399
C:\Users\stapi\AppData\Local\Temp\ccbI3tQa.s:7802   .debug_str:0000000000000e41 .LASF400
C:\Users\stapi\AppData\Local\Temp\ccbI3tQa.s:7922   .debug_str:000000000000121a .LASF401
C:\Users\stapi\AppData\Local\Temp\ccbI3tQa.s:8122   .debug_str:0000000000001894 .LASF402
C:\Users\stapi\AppData\Local\Temp\ccbI3tQa.s:7548   .debug_str:0000000000000543 .LASF403
C:\Users\stapi\AppData\Local\Temp\ccbI3tQa.s:7702   .debug_str:0000000000000a3d .LASF404
C:\Users\stapi\AppData\Local\Temp\ccbI3tQa.s:7834   .debug_str:0000000000000f3b .LASF405
C:\Users\stapi\AppData\Local\Temp\ccbI3tQa.s:7982   .debug_str:0000000000001470 .LASF406
C:\Users\stapi\AppData\Local\Temp\ccbI3tQa.s:7880   .debug_str:00000000000010b1 .LASF407
C:\Users\stapi\AppData\Local\Temp\ccbI3tQa.s:7556   .debug_str:000000000000057b .LASF408
C:\Users\stapi\AppData\Local\Temp\ccbI3tQa.s:8196   .debug_str:0000000000001afe .LASF409
C:\Users\stapi\AppData\Local\Temp\ccbI3tQa.s:8214   .debug_str:0000000000001baf .LASF410
C:\Users\stapi\AppData\Local\Temp\ccbI3tQa.s:8316   .debug_str:0000000000001ed8 .LASF411
C:\Users\stapi\AppData\Local\Temp\ccbI3tQa.s:7508   .debug_str:000000000000041d .LASF412
C:\Users\stapi\AppData\Local\Temp\ccbI3tQa.s:8182   .debug_str:0000000000001a94 .LASF413
C:\Users\stapi\AppData\Local\Temp\ccbI3tQa.s:7738   .debug_str:0000000000000b61 .LASF414
C:\Users\stapi\AppData\Local\Temp\ccbI3tQa.s:7722   .debug_str:0000000000000ae8 .LASF415
C:\Users\stapi\AppData\Local\Temp\ccbI3tQa.s:8024   .debug_str:00000000000015e1 .LASF416
C:\Users\stapi\AppData\Local\Temp\ccbI3tQa.s:7538   .debug_str:00000000000004f6 .LASF417
C:\Users\stapi\AppData\Local\Temp\ccbI3tQa.s:7388   .debug_str:00000000000000ba .LASF418
C:\Users\stapi\AppData\Local\Temp\ccbI3tQa.s:7774   .debug_str:0000000000000c65 .LASF419
C:\Users\stapi\AppData\Local\Temp\ccbI3tQa.s:8174   .debug_str:0000000000001a53 .LASF420
C:\Users\stapi\AppData\Local\Temp\ccbI3tQa.s:7684   .debug_str:00000000000009a8 .LASF421
C:\Users\stapi\AppData\Local\Temp\ccbI3tQa.s:7812   .debug_str:0000000000000e94 .LASF422
C:\Users\stapi\AppData\Local\Temp\ccbI3tQa.s:7476   .debug_str:000000000000033a .LASF423
C:\Users\stapi\AppData\Local\Temp\ccbI3tQa.s:7912   .debug_str:00000000000011e9 .LASF424
C:\Users\stapi\AppData\Local\Temp\ccbI3tQa.s:8008   .debug_str:0000000000001549 .LASF425
C:\Users\stapi\AppData\Local\Temp\ccbI3tQa.s:7996   .debug_str:00000000000014e8 .LASF426
C:\Users\stapi\AppData\Local\Temp\ccbI3tQa.s:7590   .debug_str:0000000000000677 .LASF427
C:\Users\stapi\AppData\Local\Temp\ccbI3tQa.s:7888   .debug_str:0000000000001107 .LASF428
C:\Users\stapi\AppData\Local\Temp\ccbI3tQa.s:8254   .debug_str:0000000000001ce5 .LASF429
C:\Users\stapi\AppData\Local\Temp\ccbI3tQa.s:7368   .debug_str:0000000000000047 .LASF430
C:\Users\stapi\AppData\Local\Temp\ccbI3tQa.s:7640   .debug_str:000000000000086e .LASF431
C:\Users\stapi\AppData\Local\Temp\ccbI3tQa.s:7764   .debug_str:0000000000000c29 .LASF432
C:\Users\stapi\AppData\Local\Temp\ccbI3tQa.s:8358   .debug_str:0000000000002040 .LASF433
C:\Users\stapi\AppData\Local\Temp\ccbI3tQa.s:8152   .debug_str:0000000000001983 .LASF434
C:\Users\stapi\AppData\Local\Temp\ccbI3tQa.s:8142   .debug_str:000000000000193a .LASF435
C:\Users\stapi\AppData\Local\Temp\ccbI3tQa.s:7530   .debug_str:00000000000004d0 .LASF436
C:\Users\stapi\AppData\Local\Temp\ccbI3tQa.s:7480   .debug_str:000000000000034e .LASF437
C:\Users\stapi\AppData\Local\Temp\ccbI3tQa.s:7436   .debug_str:0000000000000242 .LASF438
C:\Users\stapi\AppData\Local\Temp\ccbI3tQa.s:7904   .debug_str:00000000000011a0 .LASF439
C:\Users\stapi\AppData\Local\Temp\ccbI3tQa.s:7600   .debug_str:00000000000006de .LASF440
C:\Users\stapi\AppData\Local\Temp\ccbI3tQa.s:8108   .debug_str:0000000000001823 .LASF441
C:\Users\stapi\AppData\Local\Temp\ccbI3tQa.s:8222   .debug_str:0000000000001beb .LASF442
C:\Users\stapi\AppData\Local\Temp\ccbI3tQa.s:7392   .debug_str:00000000000000ce .LASF443
C:\Users\stapi\AppData\Local\Temp\ccbI3tQa.s:7980   .debug_str:000000000000145d .LASF444
C:\Users\stapi\AppData\Local\Temp\ccbI3tQa.s:7390   .debug_str:00000000000000bf .LASF445
C:\Users\stapi\AppData\Local\Temp\ccbI3tQa.s:7446   .debug_str:000000000000028a .LASF446
C:\Users\stapi\AppData\Local\Temp\ccbI3tQa.s:7440   .debug_str:000000000000025c .LASF447
C:\Users\stapi\AppData\Local\Temp\ccbI3tQa.s:8330   .debug_str:0000000000001f72 .LASF448
C:\Users\stapi\AppData\Local\Temp\ccbI3tQa.s:7678   .debug_str:000000000000096c .LASF449
C:\Users\stapi\AppData\Local\Temp\ccbI3tQa.s:8324   .debug_str:0000000000001f35 .LASF450
C:\Users\stapi\AppData\Local\Temp\ccbI3tQa.s:8286   .debug_str:0000000000001dd7 .LASF451
C:\Users\stapi\AppData\Local\Temp\ccbI3tQa.s:8206   .debug_str:0000000000001b6d .LASF452
C:\Users\stapi\AppData\Local\Temp\ccbI3tQa.s:7972   .debug_str:0000000000001416 .LASF453
C:\Users\stapi\AppData\Local\Temp\ccbI3tQa.s:8112   .debug_str:0000000000001851 .LASF454
C:\Users\stapi\AppData\Local\Temp\ccbI3tQa.s:8258   .debug_str:0000000000001d0a .LASF455
C:\Users\stapi\AppData\Local\Temp\ccbI3tQa.s:8060   .debug_str:00000000000016d2 .LASF456
C:\Users\stapi\AppData\Local\Temp\ccbI3tQa.s:7884   .debug_str:00000000000010e5 .LASF457
C:\Users\stapi\AppData\Local\Temp\ccbI3tQa.s:7658   .debug_str:00000000000008f1 .LASF502
C:\Users\stapi\AppData\Local\Temp\ccbI3tQa.s:7706   .debug_str:0000000000000a60 .LASF476
C:\Users\stapi\AppData\Local\Temp\ccbI3tQa.s:496    .text.coap_persist_stop:0000000000000000 .LFB35
C:\Users\stapi\AppData\Local\Temp\ccbI3tQa.s:535    .text.coap_persist_stop:0000000000000022 .LFE35
C:\Users\stapi\AppData\Local\Temp\ccbI3tQa.s:506    .text.coap_persist_stop:0000000000000006 .LBB8
C:\Users\stapi\AppData\Local\Temp\ccbI3tQa.s:531    .text.coap_persist_stop:0000000000000020 .LBE8
C:\Users\stapi\AppData\Local\Temp\ccbI3tQa.s:6812   .debug_loc:0000000000000000 .LLST23
C:\Users\stapi\AppData\Local\Temp\ccbI3tQa.s:6820   .debug_loc:0000000000000014 .LLST30
C:\Users\stapi\AppData\Local\Temp\ccbI3tQa.s:8098   .debug_str:00000000000017ea .LASF462
C:\Users\stapi\AppData\Local\Temp\ccbI3tQa.s:474    .text.coap_persist_startup:0000000000000000 .LFB34
C:\Users\stapi\AppData\Local\Temp\ccbI3tQa.s:489    .text.coap_persist_startup:0000000000000004 .LFE34
C:\Users\stapi\AppData\Local\Temp\ccbI3tQa.s:6827   .debug_loc:0000000000000027 .LLST22
C:\Users\stapi\AppData\Local\Temp\ccbI3tQa.s:8050   .debug_str:000000000000169b .LASF458
C:\Users\stapi\AppData\Local\Temp\ccbI3tQa.s:8352   .debug_str:000000000000200e .LASF459
C:\Users\stapi\AppData\Local\Temp\ccbI3tQa.s:7840   .debug_str:0000000000000f6d .LASF460
C:\Users\stapi\AppData\Local\Temp\ccbI3tQa.s:7582   .debug_str:0000000000000644 .LASF461
C:\Users\stapi\AppData\Local\Temp\ccbI3tQa.s:8260   .debug_str:0000000000001d16 .LASF463
C:\Users\stapi\AppData\Local\Temp\ccbI3tQa.s:110    .text.coap_persist_observe_add:0000000000000000 .LFB33
C:\Users\stapi\AppData\Local\Temp\ccbI3tQa.s:467    .text.coap_persist_observe_add:00000000000001d8 .LFE33
C:\Users\stapi\AppData\Local\Temp\ccbI3tQa.s:6841   .debug_loc:0000000000000048 .LLST3
C:\Users\stapi\AppData\Local\Temp\ccbI3tQa.s:7554   .debug_str:0000000000000573 .LASF464
C:\Users\stapi\AppData\Local\Temp\ccbI3tQa.s:6855   .debug_loc:0000000000000069 .LLST4
C:\Users\stapi\AppData\Local\Temp\ccbI3tQa.s:7566   .debug_str:00000000000005da .LASF465
C:\Users\stapi\AppData\Local\Temp\ccbI3tQa.s:6869   .debug_loc:000000000000008a .LLST5
C:\Users\stapi\AppData\Local\Temp\ccbI3tQa.s:8250   .debug_str:0000000000001ccc .LASF466
C:\Users\stapi\AppData\Local\Temp\ccbI3tQa.s:6909   .debug_loc:00000000000000e8 .LLST6
C:\Users\stapi\AppData\Local\Temp\ccbI3tQa.s:7568   .debug_str:00000000000005e8 .LASF467
C:\Users\stapi\AppData\Local\Temp\ccbI3tQa.s:6949   .debug_loc:0000000000000146 .LLST7
C:\Users\stapi\AppData\Local\Temp\ccbI3tQa.s:7512   .debug_str:000000000000044e .LASF468
C:\Users\stapi\AppData\Local\Temp\ccbI3tQa.s:7000   .debug_loc:00000000000001bd .LLST8
C:\Users\stapi\AppData\Local\Temp\ccbI3tQa.s:7014   .debug_loc:00000000000001de .LLST9
C:\Users\stapi\AppData\Local\Temp\ccbI3tQa.s:7048   .debug_loc:0000000000000236 .LLST10
C:\Users\stapi\AppData\Local\Temp\ccbI3tQa.s:7490   .debug_str:000000000000037c .LASF469
C:\Users\stapi\AppData\Local\Temp\ccbI3tQa.s:7061   .debug_loc:0000000000000256 .LLST11
C:\Users\stapi\AppData\Local\Temp\ccbI3tQa.s:7076   .debug_loc:000000000000027f .LLST12
C:\Users\stapi\AppData\Local\Temp\ccbI3tQa.s:8040   .debug_str:000000000000165d .LASF470
C:\Users\stapi\AppData\Local\Temp\ccbI3tQa.s:7832   .debug_str:0000000000000f34 .LASF471
C:\Users\stapi\AppData\Local\Temp\ccbI3tQa.s:7111   .debug_loc:00000000000002d8 .LLST13
C:\Users\stapi\AppData\Local\Temp\ccbI3tQa.s:7152   .debug_loc:0000000000000337 .LLST14
C:\Users\stapi\AppData\Local\Temp\ccbI3tQa.s:7163   .debug_loc:0000000000000355 .LLST15
C:\Users\stapi\AppData\Local\Temp\ccbI3tQa.s:7850   .debug_str:0000000000000fbe .LASF472
C:\Users\stapi\AppData\Local\Temp\ccbI3tQa.s:7194   .debug_loc:00000000000003a3 .LLST16
C:\Users\stapi\AppData\Local\Temp\ccbI3tQa.s:7592   .debug_str:0000000000000686 .LASF473
C:\Users\stapi\AppData\Local\Temp\ccbI3tQa.s:7201   .debug_loc:00000000000003b6 .LLST17
C:\Users\stapi\AppData\Local\Temp\ccbI3tQa.s:7208   .debug_loc:00000000000003c9 .LLST18
C:\Users\stapi\AppData\Local\Temp\ccbI3tQa.s:7235   .debug_loc:0000000000000413 .LLST19
C:\Users\stapi\AppData\Local\Temp\ccbI3tQa.s:7242   .debug_loc:0000000000000426 .LLST20
C:\Users\stapi\AppData\Local\Temp\ccbI3tQa.s:8018   .debug_str:00000000000015bb .LASF474
C:\Users\stapi\AppData\Local\Temp\ccbI3tQa.s:8116   .debug_str:0000000000001867 .LASF475
C:\Users\stapi\AppData\Local\Temp\ccbI3tQa.s:214    .text.coap_persist_observe_add:0000000000000052 .LBB6
C:\Users\stapi\AppData\Local\Temp\ccbI3tQa.s:224    .text.coap_persist_observe_add:000000000000005c .LBE6
C:\Users\stapi\AppData\Local\Temp\ccbI3tQa.s:7261   .debug_loc:000000000000045a .LLST21
C:\Users\stapi\AppData\Local\Temp\ccbI3tQa.s:220    .text.coap_persist_observe_add:000000000000005a .LVL20
C:\Users\stapi\AppData\Local\Temp\ccbI3tQa.s:199    .text.coap_persist_observe_add:0000000000000046 .LVL16
C:\Users\stapi\AppData\Local\Temp\ccbI3tQa.s:232    .text.coap_persist_observe_add:0000000000000068 .LVL24
C:\Users\stapi\AppData\Local\Temp\ccbI3tQa.s:251    .text.coap_persist_observe_add:000000000000007a .LVL29
C:\Users\stapi\AppData\Local\Temp\ccbI3tQa.s:255    .text.coap_persist_observe_add:0000000000000084 .LVL30
C:\Users\stapi\AppData\Local\Temp\ccbI3tQa.s:271    .text.coap_persist_observe_add:0000000000000098 .LVL33
C:\Users\stapi\AppData\Local\Temp\ccbI3tQa.s:284    .text.coap_persist_observe_add:00000000000000ae .LVL35
C:\Users\stapi\AppData\Local\Temp\ccbI3tQa.s:302    .text.coap_persist_observe_add:00000000000000cc .LVL36
C:\Users\stapi\AppData\Local\Temp\ccbI3tQa.s:311    .text.coap_persist_observe_add:00000000000000d8 .LVL38
C:\Users\stapi\AppData\Local\Temp\ccbI3tQa.s:317    .text.coap_persist_observe_add:00000000000000e4 .LVL40
C:\Users\stapi\AppData\Local\Temp\ccbI3tQa.s:322    .text.coap_persist_observe_add:00000000000000f0 .LVL41
C:\Users\stapi\AppData\Local\Temp\ccbI3tQa.s:331    .text.coap_persist_observe_add:00000000000000fc .LVL43
C:\Users\stapi\AppData\Local\Temp\ccbI3tQa.s:342    .text.coap_persist_observe_add:000000000000010e .LVL45
C:\Users\stapi\AppData\Local\Temp\ccbI3tQa.s:351    .text.coap_persist_observe_add:000000000000011a .LVL47
C:\Users\stapi\AppData\Local\Temp\ccbI3tQa.s:362    .text.coap_persist_observe_add:0000000000000134 .LVL48
C:\Users\stapi\AppData\Local\Temp\ccbI3tQa.s:375    .text.coap_persist_observe_add:0000000000000146 .LVL50
C:\Users\stapi\AppData\Local\Temp\ccbI3tQa.s:389    .text.coap_persist_observe_add:0000000000000162 .LVL53
C:\Users\stapi\AppData\Local\Temp\ccbI3tQa.s:398    .text.coap_persist_observe_add:0000000000000174 .LVL54
C:\Users\stapi\AppData\Local\Temp\ccbI3tQa.s:408    .text.coap_persist_observe_add:0000000000000184 .LVL56
C:\Users\stapi\AppData\Local\Temp\ccbI3tQa.s:421    .text.coap_persist_observe_add:0000000000000194 .LVL59
C:\Users\stapi\AppData\Local\Temp\ccbI3tQa.s:431    .text.coap_persist_observe_add:00000000000001a6 .LVL60
C:\Users\stapi\AppData\Local\Temp\ccbI3tQa.s:453    .text.coap_persist_observe_add:00000000000001bc .LVL64
C:\Users\stapi\AppData\Local\Temp\ccbI3tQa.s:464    .text.coap_persist_observe_add:00000000000001d6 .LVL65
C:\Users\stapi\AppData\Local\Temp\ccbI3tQa.s:7780   .debug_str:0000000000000d76 .LASF503
C:\Users\stapi\AppData\Local\Temp\ccbI3tQa.s:7990   .debug_str:00000000000014b5 .LASF477
C:\Users\stapi\AppData\Local\Temp\ccbI3tQa.s:21     .text.coap_subscription_init:0000000000000000 .LFB31
C:\Users\stapi\AppData\Local\Temp\ccbI3tQa.s:53     .text.coap_subscription_init:0000000000000040 .LFE31
C:\Users\stapi\AppData\Local\Temp\ccbI3tQa.s:7270   .debug_loc:0000000000000472 .LLST0
C:\Users\stapi\AppData\Local\Temp\ccbI3tQa.s:7414   .debug_str:000000000000018c .LASF504
C:\Users\stapi\AppData\Local\Temp\ccbI3tQa.s:41     .text.coap_subscription_init:000000000000002c .LVL2
C:\Users\stapi\AppData\Local\Temp\ccbI3tQa.s:47     .text.coap_subscription_init:0000000000000038 .LVL3
C:\Users\stapi\AppData\Local\Temp\ccbI3tQa.s:7768   .debug_str:0000000000000c47 .LASF505
C:\Users\stapi\AppData\Local\Temp\ccbI3tQa.s:60     .text.coap_persist_track_funcs:0000000000000000 .LFB32
C:\Users\stapi\AppData\Local\Temp\ccbI3tQa.s:93     .text.coap_persist_track_funcs:000000000000001a .LFE32
C:\Users\stapi\AppData\Local\Temp\ccbI3tQa.s:7295   .debug_loc:00000000000004ac .LLST1
C:\Users\stapi\AppData\Local\Temp\ccbI3tQa.s:7307   .debug_loc:00000000000004cc .LLST2
C:\Users\stapi\AppData\Local\Temp\ccbI3tQa.s:7364   .debug_str:000000000000002b .LASF478
C:\Users\stapi\AppData\Local\Temp\ccbI3tQa.s:7668   .debug_str:0000000000000933 .LASF479
C:\Users\stapi\AppData\Local\Temp\ccbI3tQa.s:7664   .debug_str:0000000000000913 .LASF480
C:\Users\stapi\AppData\Local\Temp\ccbI3tQa.s:7626   .debug_str:0000000000000813 .LASF481
C:\Users\stapi\AppData\Local\Temp\ccbI3tQa.s:7448   .debug_str:0000000000000298 .LASF482
C:\Users\stapi\AppData\Local\Temp\ccbI3tQa.s:8036   .debug_str:0000000000001637 .LASF483
C:\Users\stapi\AppData\Local\Temp\ccbI3tQa.s:7704   .debug_str:0000000000000a51 .LASF484
C:\Users\stapi\AppData\Local\Temp\ccbI3tQa.s:8226   .debug_str:0000000000001bfe .LASF485
C:\Users\stapi\AppData\Local\Temp\ccbI3tQa.s:7642   .debug_str:000000000000087a .LASF486
C:\Users\stapi\AppData\Local\Temp\ccbI3tQa.s:7746   .debug_str:0000000000000b95 .LASF487
C:\Users\stapi\AppData\Local\Temp\ccbI3tQa.s:8234   .debug_str:0000000000001c42 .LASF488
C:\Users\stapi\AppData\Local\Temp\ccbI3tQa.s:8242   .debug_str:0000000000001c95 .LASF489
C:\Users\stapi\AppData\Local\Temp\ccbI3tQa.s:7400   .debug_str:00000000000000ff .LASF490
C:\Users\stapi\AppData\Local\Temp\ccbI3tQa.s:7494   .debug_str:000000000000038f .LASF491
C:\Users\stapi\AppData\Local\Temp\ccbI3tQa.s:8090   .debug_str:00000000000017be .LASF492
C:\Users\stapi\AppData\Local\Temp\ccbI3tQa.s:8246   .debug_str:0000000000001cae .LASF493
C:\Users\stapi\AppData\Local\Temp\ccbI3tQa.s:8244   .debug_str:0000000000001ca7 .LASF495
C:\Users\stapi\AppData\Local\Temp\ccbI3tQa.s:7662   .debug_str:0000000000000902 .LASF497
C:\Users\stapi\AppData\Local\Temp\ccbI3tQa.s:7736   .debug_str:0000000000000b53 .LASF494
C:\Users\stapi\AppData\Local\Temp\ccbI3tQa.s:7628   .debug_str:0000000000000826 .LASF496
C:\Users\stapi\AppData\Local\Temp\ccbI3tQa.s:7828   .debug_str:0000000000000f14 .LASF498
C:\Users\stapi\AppData\Local\Temp\ccbI3tQa.s:505    .text.coap_persist_stop:0000000000000006 .LVL69
C:\Users\stapi\AppData\Local\Temp\ccbI3tQa.s:529    .text.coap_persist_stop:0000000000000020 .LVL70
C:\Users\stapi\AppData\Local\Temp\ccbI3tQa.s:477    .text.coap_persist_startup:0000000000000000 .LVL66
C:\Users\stapi\AppData\Local\Temp\ccbI3tQa.s:486    .text.coap_persist_startup:0000000000000002 .LVL67
C:\Users\stapi\AppData\Local\Temp\ccbI3tQa.s:113    .text.coap_persist_observe_add:0000000000000000 .LVL7
C:\Users\stapi\AppData\Local\Temp\ccbI3tQa.s:166    .text.coap_persist_observe_add:0000000000000022 .LVL12
C:\Users\stapi\AppData\Local\Temp\ccbI3tQa.s:170    .text.coap_persist_observe_add:0000000000000024 .LVL13
C:\Users\stapi\AppData\Local\Temp\ccbI3tQa.s:187    .text.coap_persist_observe_add:0000000000000030 .LVL15
C:\Users\stapi\AppData\Local\Temp\ccbI3tQa.s:208    .text.coap_persist_observe_add:000000000000004e .LVL18
C:\Users\stapi\AppData\Local\Temp\ccbI3tQa.s:412    .text.coap_persist_observe_add:0000000000000186 .LVL57
C:\Users\stapi\AppData\Local\Temp\ccbI3tQa.s:435    .text.coap_persist_observe_add:00000000000001aa .LVL61
C:\Users\stapi\AppData\Local\Temp\ccbI3tQa.s:234    .text.coap_persist_observe_add:000000000000006a .LVL25
C:\Users\stapi\AppData\Local\Temp\ccbI3tQa.s:448    .text.coap_persist_observe_add:00000000000001b4 .LVL63
C:\Users\stapi\AppData\Local\Temp\ccbI3tQa.s:238    .text.coap_persist_observe_add:000000000000006c .LVL26
C:\Users\stapi\AppData\Local\Temp\ccbI3tQa.s:261    .text.coap_persist_observe_add:0000000000000088 .LVL31
C:\Users\stapi\AppData\Local\Temp\ccbI3tQa.s:273    .text.coap_persist_observe_add:000000000000009a .LVL34
C:\Users\stapi\AppData\Local\Temp\ccbI3tQa.s:156    .text.coap_persist_observe_add:0000000000000018 .LVL10
C:\Users\stapi\AppData\Local\Temp\ccbI3tQa.s:124    .text.coap_persist_observe_add:0000000000000008 .LVL8
C:\Users\stapi\AppData\Local\Temp\ccbI3tQa.s:245    .text.coap_persist_observe_add:0000000000000070 .LVL28
C:\Users\stapi\AppData\Local\Temp\ccbI3tQa.s:269    .text.coap_persist_observe_add:0000000000000090 .LVL32
C:\Users\stapi\AppData\Local\Temp\ccbI3tQa.s:441    .text.coap_persist_observe_add:00000000000001ae .LVL62
C:\Users\stapi\AppData\Local\Temp\ccbI3tQa.s:313    .text.coap_persist_observe_add:00000000000000da .LVL39
C:\Users\stapi\AppData\Local\Temp\ccbI3tQa.s:133    .text.coap_persist_observe_add:000000000000000a .LVL9
C:\Users\stapi\AppData\Local\Temp\ccbI3tQa.s:177    .text.coap_persist_observe_add:0000000000000028 .LVL14
C:\Users\stapi\AppData\Local\Temp\ccbI3tQa.s:228    .text.coap_persist_observe_add:000000000000005e .LVL22
C:\Users\stapi\AppData\Local\Temp\ccbI3tQa.s:419    .text.coap_persist_observe_add:000000000000018c .LVL58
C:\Users\stapi\AppData\Local\Temp\ccbI3tQa.s:222    .text.coap_persist_observe_add:000000000000005c .LVL21
C:\Users\stapi\AppData\Local\Temp\ccbI3tQa.s:230    .text.coap_persist_observe_add:0000000000000060 .LVL23
C:\Users\stapi\AppData\Local\Temp\ccbI3tQa.s:333    .text.coap_persist_observe_add:00000000000000fe .LVL44
C:\Users\stapi\AppData\Local\Temp\ccbI3tQa.s:304    .text.coap_persist_observe_add:00000000000000ce .LVL37
C:\Users\stapi\AppData\Local\Temp\ccbI3tQa.s:329    .text.coap_persist_observe_add:00000000000000f4 .LVL42
C:\Users\stapi\AppData\Local\Temp\ccbI3tQa.s:344    .text.coap_persist_observe_add:0000000000000110 .LVL46
C:\Users\stapi\AppData\Local\Temp\ccbI3tQa.s:364    .text.coap_persist_observe_add:0000000000000136 .LVL49
C:\Users\stapi\AppData\Local\Temp\ccbI3tQa.s:383    .text.coap_persist_observe_add:0000000000000158 .LVL51
C:\Users\stapi\AppData\Local\Temp\ccbI3tQa.s:387    .text.coap_persist_observe_add:000000000000015a .LVL52
C:\Users\stapi\AppData\Local\Temp\ccbI3tQa.s:400    .text.coap_persist_observe_add:0000000000000176 .LVL55
C:\Users\stapi\AppData\Local\Temp\ccbI3tQa.s:162    .text.coap_persist_observe_add:0000000000000020 .LVL11
C:\Users\stapi\AppData\Local\Temp\ccbI3tQa.s:242    .text.coap_persist_observe_add:000000000000006e .LVL27
C:\Users\stapi\AppData\Local\Temp\ccbI3tQa.s:213    .text.coap_persist_observe_add:0000000000000052 .LVL19
C:\Users\stapi\AppData\Local\Temp\ccbI3tQa.s:589    .debug_info:0000000000000000 .Ldebug_info0
C:\Users\stapi\AppData\Local\Temp\ccbI3tQa.s:25     .text.coap_subscription_init:0000000000000000 .LVL0
C:\Users\stapi\AppData\Local\Temp\ccbI3tQa.s:35     .text.coap_subscription_init:0000000000000016 .LVL1
C:\Users\stapi\AppData\Local\Temp\ccbI3tQa.s:63     .text.coap_persist_track_funcs:0000000000000000 .LVL4
C:\Users\stapi\AppData\Local\Temp\ccbI3tQa.s:69     .text.coap_persist_track_funcs:0000000000000004 .LVL5
C:\Users\stapi\AppData\Local\Temp\ccbI3tQa.s:71     .text.coap_persist_track_funcs:0000000000000008 .LVL6

UNDEFINED SYMBOLS
__riscv_save_0
__assert_func
memset
__riscv_restore_0
__riscv_save_6
__riscv_restore_6
memcmp
sys_now
coap_endpoint_get_session
coap_delete_string
coap_delete_pdu
coap_pdu_init
coap_pdu_parse
coap_check_option
coap_opt_value
coap_opt_length
coap_decode_var_bytes
coap_get_uri_path
coap_get_resource_from_uri_path
coap_get_log_level
coap_log_impl
coap_add_observer
memcpy
