   1              		.file	"coap_io_lwip.c"
   2              		.option nopic
   3              		.attribute arch, "rv32i2p0_m2p0_a2p0_f2p0_c2p0_b_p0p94"
   4              		.attribute unaligned_access, 0
   5              		.attribute stack_align, 16
   6              		.text
   7              	.Ltext0:
   8              		.cfi_sections	.debug_frame
   9              		.section	.text.coap_io_process_timeout,"ax",@progbits
  10              		.align	1
  11              		.globl	coap_io_process_timeout
  13              	coap_io_process_timeout:
  14              	.LFB33:
  15              		.file 1 "C:/Users/stapi/OneDrive/Desktop/GD32VW553/GD32VW55X_Wifi_BLE_SDK/GD32VW55x_RELEASE_V1.0.2
   1:C:/Users/stapi/OneDrive/Desktop/GD32VW553/GD32VW55X_Wifi_BLE_SDK/GD32VW55x_RELEASE_V1.0.2/MSDK/lwip/libcoap-4.3.4/src\coap_io_lwip.c **** /*
   2:C:/Users/stapi/OneDrive/Desktop/GD32VW553/GD32VW55X_Wifi_BLE_SDK/GD32VW55x_RELEASE_V1.0.2/MSDK/lwip/libcoap-4.3.4/src\coap_io_lwip.c ****  * Copyright (C) 2012,2014 Olaf Bergmann <bergmann@tzi.org>
   3:C:/Users/stapi/OneDrive/Desktop/GD32VW553/GD32VW55X_Wifi_BLE_SDK/GD32VW55x_RELEASE_V1.0.2/MSDK/lwip/libcoap-4.3.4/src\coap_io_lwip.c ****  *               2014 chrysn <chrysn@fsfe.org>
   4:C:/Users/stapi/OneDrive/Desktop/GD32VW553/GD32VW55X_Wifi_BLE_SDK/GD32VW55x_RELEASE_V1.0.2/MSDK/lwip/libcoap-4.3.4/src\coap_io_lwip.c ****  *               2022-2023 Jon Shallow <supjps-libcoap@jpshallow.com>
   5:C:/Users/stapi/OneDrive/Desktop/GD32VW553/GD32VW55X_Wifi_BLE_SDK/GD32VW55x_RELEASE_V1.0.2/MSDK/lwip/libcoap-4.3.4/src\coap_io_lwip.c ****  *
   6:C:/Users/stapi/OneDrive/Desktop/GD32VW553/GD32VW55X_Wifi_BLE_SDK/GD32VW55x_RELEASE_V1.0.2/MSDK/lwip/libcoap-4.3.4/src\coap_io_lwip.c ****  * SPDX-License-Identifier: BSD-2-Clause
   7:C:/Users/stapi/OneDrive/Desktop/GD32VW553/GD32VW55X_Wifi_BLE_SDK/GD32VW55x_RELEASE_V1.0.2/MSDK/lwip/libcoap-4.3.4/src\coap_io_lwip.c ****  *
   8:C:/Users/stapi/OneDrive/Desktop/GD32VW553/GD32VW55X_Wifi_BLE_SDK/GD32VW55x_RELEASE_V1.0.2/MSDK/lwip/libcoap-4.3.4/src\coap_io_lwip.c ****  * This file is part of the CoAP library libcoap. Please see
   9:C:/Users/stapi/OneDrive/Desktop/GD32VW553/GD32VW55X_Wifi_BLE_SDK/GD32VW55x_RELEASE_V1.0.2/MSDK/lwip/libcoap-4.3.4/src\coap_io_lwip.c ****  * README for terms of use.
  10:C:/Users/stapi/OneDrive/Desktop/GD32VW553/GD32VW55X_Wifi_BLE_SDK/GD32VW55x_RELEASE_V1.0.2/MSDK/lwip/libcoap-4.3.4/src\coap_io_lwip.c ****  */
  11:C:/Users/stapi/OneDrive/Desktop/GD32VW553/GD32VW55X_Wifi_BLE_SDK/GD32VW55x_RELEASE_V1.0.2/MSDK/lwip/libcoap-4.3.4/src\coap_io_lwip.c **** 
  12:C:/Users/stapi/OneDrive/Desktop/GD32VW553/GD32VW55X_Wifi_BLE_SDK/GD32VW55x_RELEASE_V1.0.2/MSDK/lwip/libcoap-4.3.4/src\coap_io_lwip.c **** /**
  13:C:/Users/stapi/OneDrive/Desktop/GD32VW553/GD32VW55X_Wifi_BLE_SDK/GD32VW55x_RELEASE_V1.0.2/MSDK/lwip/libcoap-4.3.4/src\coap_io_lwip.c ****  * @file coap_io_lwip.c
  14:C:/Users/stapi/OneDrive/Desktop/GD32VW553/GD32VW55X_Wifi_BLE_SDK/GD32VW55x_RELEASE_V1.0.2/MSDK/lwip/libcoap-4.3.4/src\coap_io_lwip.c ****  * @brief LwIP specific functions
  15:C:/Users/stapi/OneDrive/Desktop/GD32VW553/GD32VW55X_Wifi_BLE_SDK/GD32VW55x_RELEASE_V1.0.2/MSDK/lwip/libcoap-4.3.4/src\coap_io_lwip.c ****  */
  16:C:/Users/stapi/OneDrive/Desktop/GD32VW553/GD32VW55X_Wifi_BLE_SDK/GD32VW55x_RELEASE_V1.0.2/MSDK/lwip/libcoap-4.3.4/src\coap_io_lwip.c **** 
  17:C:/Users/stapi/OneDrive/Desktop/GD32VW553/GD32VW55X_Wifi_BLE_SDK/GD32VW55x_RELEASE_V1.0.2/MSDK/lwip/libcoap-4.3.4/src\coap_io_lwip.c **** #include "coap3/coap_internal.h"
  18:C:/Users/stapi/OneDrive/Desktop/GD32VW553/GD32VW55X_Wifi_BLE_SDK/GD32VW55x_RELEASE_V1.0.2/MSDK/lwip/libcoap-4.3.4/src\coap_io_lwip.c **** #include <lwip/udp.h>
  19:C:/Users/stapi/OneDrive/Desktop/GD32VW553/GD32VW55X_Wifi_BLE_SDK/GD32VW55x_RELEASE_V1.0.2/MSDK/lwip/libcoap-4.3.4/src\coap_io_lwip.c **** #include <lwip/timeouts.h>
  20:C:/Users/stapi/OneDrive/Desktop/GD32VW553/GD32VW55X_Wifi_BLE_SDK/GD32VW55x_RELEASE_V1.0.2/MSDK/lwip/libcoap-4.3.4/src\coap_io_lwip.c **** #include <lwip/tcpip.h>
  21:C:/Users/stapi/OneDrive/Desktop/GD32VW553/GD32VW55X_Wifi_BLE_SDK/GD32VW55x_RELEASE_V1.0.2/MSDK/lwip/libcoap-4.3.4/src\coap_io_lwip.c **** 
  22:C:/Users/stapi/OneDrive/Desktop/GD32VW553/GD32VW55X_Wifi_BLE_SDK/GD32VW55x_RELEASE_V1.0.2/MSDK/lwip/libcoap-4.3.4/src\coap_io_lwip.c **** void
  23:C:/Users/stapi/OneDrive/Desktop/GD32VW553/GD32VW55X_Wifi_BLE_SDK/GD32VW55x_RELEASE_V1.0.2/MSDK/lwip/libcoap-4.3.4/src\coap_io_lwip.c **** coap_lwip_dump_memory_pools(coap_log_t log_level) {
  24:C:/Users/stapi/OneDrive/Desktop/GD32VW553/GD32VW55X_Wifi_BLE_SDK/GD32VW55x_RELEASE_V1.0.2/MSDK/lwip/libcoap-4.3.4/src\coap_io_lwip.c **** #if MEMP_STATS && LWIP_STATS_DISPLAY
  25:C:/Users/stapi/OneDrive/Desktop/GD32VW553/GD32VW55X_Wifi_BLE_SDK/GD32VW55x_RELEASE_V1.0.2/MSDK/lwip/libcoap-4.3.4/src\coap_io_lwip.c ****   int i;
  26:C:/Users/stapi/OneDrive/Desktop/GD32VW553/GD32VW55X_Wifi_BLE_SDK/GD32VW55x_RELEASE_V1.0.2/MSDK/lwip/libcoap-4.3.4/src\coap_io_lwip.c **** 
  27:C:/Users/stapi/OneDrive/Desktop/GD32VW553/GD32VW55X_Wifi_BLE_SDK/GD32VW55x_RELEASE_V1.0.2/MSDK/lwip/libcoap-4.3.4/src\coap_io_lwip.c ****   /* Save time if not needed */
  28:C:/Users/stapi/OneDrive/Desktop/GD32VW553/GD32VW55X_Wifi_BLE_SDK/GD32VW55x_RELEASE_V1.0.2/MSDK/lwip/libcoap-4.3.4/src\coap_io_lwip.c ****   if (log_level > coap_get_log_level())
  29:C:/Users/stapi/OneDrive/Desktop/GD32VW553/GD32VW55X_Wifi_BLE_SDK/GD32VW55x_RELEASE_V1.0.2/MSDK/lwip/libcoap-4.3.4/src\coap_io_lwip.c ****     return;
  30:C:/Users/stapi/OneDrive/Desktop/GD32VW553/GD32VW55X_Wifi_BLE_SDK/GD32VW55x_RELEASE_V1.0.2/MSDK/lwip/libcoap-4.3.4/src\coap_io_lwip.c **** 
  31:C:/Users/stapi/OneDrive/Desktop/GD32VW553/GD32VW55X_Wifi_BLE_SDK/GD32VW55x_RELEASE_V1.0.2/MSDK/lwip/libcoap-4.3.4/src\coap_io_lwip.c ****   coap_log(log_level, "*   LwIP custom memory pools information\n");
  32:C:/Users/stapi/OneDrive/Desktop/GD32VW553/GD32VW55X_Wifi_BLE_SDK/GD32VW55x_RELEASE_V1.0.2/MSDK/lwip/libcoap-4.3.4/src\coap_io_lwip.c ****   /*
  33:C:/Users/stapi/OneDrive/Desktop/GD32VW553/GD32VW55X_Wifi_BLE_SDK/GD32VW55x_RELEASE_V1.0.2/MSDK/lwip/libcoap-4.3.4/src\coap_io_lwip.c ****    * Make sure LwIP and libcoap have been built with the same
  34:C:/Users/stapi/OneDrive/Desktop/GD32VW553/GD32VW55X_Wifi_BLE_SDK/GD32VW55x_RELEASE_V1.0.2/MSDK/lwip/libcoap-4.3.4/src\coap_io_lwip.c ****    * -DCOAP_CLIENT_ONLY or -DCOAP_SERVER_ONLY options for
  35:C:/Users/stapi/OneDrive/Desktop/GD32VW553/GD32VW55X_Wifi_BLE_SDK/GD32VW55x_RELEASE_V1.0.2/MSDK/lwip/libcoap-4.3.4/src\coap_io_lwip.c ****    * MEMP_MAX to be correct.
  36:C:/Users/stapi/OneDrive/Desktop/GD32VW553/GD32VW55X_Wifi_BLE_SDK/GD32VW55x_RELEASE_V1.0.2/MSDK/lwip/libcoap-4.3.4/src\coap_io_lwip.c ****    */
  37:C:/Users/stapi/OneDrive/Desktop/GD32VW553/GD32VW55X_Wifi_BLE_SDK/GD32VW55x_RELEASE_V1.0.2/MSDK/lwip/libcoap-4.3.4/src\coap_io_lwip.c ****   for (i = 0; i < MEMP_MAX; i++) {
  38:C:/Users/stapi/OneDrive/Desktop/GD32VW553/GD32VW55X_Wifi_BLE_SDK/GD32VW55x_RELEASE_V1.0.2/MSDK/lwip/libcoap-4.3.4/src\coap_io_lwip.c ****     coap_log(log_level, "*    %-17s avail %3d  in-use %3d  peak %3d failed %3d\n",
  39:C:/Users/stapi/OneDrive/Desktop/GD32VW553/GD32VW55X_Wifi_BLE_SDK/GD32VW55x_RELEASE_V1.0.2/MSDK/lwip/libcoap-4.3.4/src\coap_io_lwip.c ****              memp_pools[i]->stats->name, memp_pools[i]->stats->avail,
  40:C:/Users/stapi/OneDrive/Desktop/GD32VW553/GD32VW55X_Wifi_BLE_SDK/GD32VW55x_RELEASE_V1.0.2/MSDK/lwip/libcoap-4.3.4/src\coap_io_lwip.c ****              memp_pools[i]->stats->used, memp_pools[i]->stats->max,
  41:C:/Users/stapi/OneDrive/Desktop/GD32VW553/GD32VW55X_Wifi_BLE_SDK/GD32VW55x_RELEASE_V1.0.2/MSDK/lwip/libcoap-4.3.4/src\coap_io_lwip.c ****              memp_pools[i]->stats->err);
  42:C:/Users/stapi/OneDrive/Desktop/GD32VW553/GD32VW55X_Wifi_BLE_SDK/GD32VW55x_RELEASE_V1.0.2/MSDK/lwip/libcoap-4.3.4/src\coap_io_lwip.c ****   }
  43:C:/Users/stapi/OneDrive/Desktop/GD32VW553/GD32VW55X_Wifi_BLE_SDK/GD32VW55x_RELEASE_V1.0.2/MSDK/lwip/libcoap-4.3.4/src\coap_io_lwip.c **** #endif /* MEMP_STATS && LWIP_STATS_DISPLAY */
  44:C:/Users/stapi/OneDrive/Desktop/GD32VW553/GD32VW55X_Wifi_BLE_SDK/GD32VW55x_RELEASE_V1.0.2/MSDK/lwip/libcoap-4.3.4/src\coap_io_lwip.c **** }
  45:C:/Users/stapi/OneDrive/Desktop/GD32VW553/GD32VW55X_Wifi_BLE_SDK/GD32VW55x_RELEASE_V1.0.2/MSDK/lwip/libcoap-4.3.4/src\coap_io_lwip.c **** 
  46:C:/Users/stapi/OneDrive/Desktop/GD32VW553/GD32VW55X_Wifi_BLE_SDK/GD32VW55x_RELEASE_V1.0.2/MSDK/lwip/libcoap-4.3.4/src\coap_io_lwip.c **** void
  47:C:/Users/stapi/OneDrive/Desktop/GD32VW553/GD32VW55X_Wifi_BLE_SDK/GD32VW55x_RELEASE_V1.0.2/MSDK/lwip/libcoap-4.3.4/src\coap_io_lwip.c **** coap_lwip_set_input_wait_handler(coap_context_t *context,
  48:C:/Users/stapi/OneDrive/Desktop/GD32VW553/GD32VW55X_Wifi_BLE_SDK/GD32VW55x_RELEASE_V1.0.2/MSDK/lwip/libcoap-4.3.4/src\coap_io_lwip.c ****                                  coap_lwip_input_wait_handler_t handler,
  49:C:/Users/stapi/OneDrive/Desktop/GD32VW553/GD32VW55X_Wifi_BLE_SDK/GD32VW55x_RELEASE_V1.0.2/MSDK/lwip/libcoap-4.3.4/src\coap_io_lwip.c ****                                  void *input_arg) {
  50:C:/Users/stapi/OneDrive/Desktop/GD32VW553/GD32VW55X_Wifi_BLE_SDK/GD32VW55x_RELEASE_V1.0.2/MSDK/lwip/libcoap-4.3.4/src\coap_io_lwip.c ****   context->input_wait = handler;
  51:C:/Users/stapi/OneDrive/Desktop/GD32VW553/GD32VW55X_Wifi_BLE_SDK/GD32VW55x_RELEASE_V1.0.2/MSDK/lwip/libcoap-4.3.4/src\coap_io_lwip.c ****   context->input_arg = input_arg;
  52:C:/Users/stapi/OneDrive/Desktop/GD32VW553/GD32VW55X_Wifi_BLE_SDK/GD32VW55x_RELEASE_V1.0.2/MSDK/lwip/libcoap-4.3.4/src\coap_io_lwip.c **** }
  53:C:/Users/stapi/OneDrive/Desktop/GD32VW553/GD32VW55X_Wifi_BLE_SDK/GD32VW55x_RELEASE_V1.0.2/MSDK/lwip/libcoap-4.3.4/src\coap_io_lwip.c **** 
  54:C:/Users/stapi/OneDrive/Desktop/GD32VW553/GD32VW55X_Wifi_BLE_SDK/GD32VW55x_RELEASE_V1.0.2/MSDK/lwip/libcoap-4.3.4/src\coap_io_lwip.c **** void
  55:C:/Users/stapi/OneDrive/Desktop/GD32VW553/GD32VW55X_Wifi_BLE_SDK/GD32VW55x_RELEASE_V1.0.2/MSDK/lwip/libcoap-4.3.4/src\coap_io_lwip.c **** coap_io_process_timeout(void *arg) {
  16              		.loc 1 55 36
  17              		.cfi_startproc
  18              	.LVL0:
  19 0000 17030000 		call	t0,__riscv_save_3
  19      E7020300 
  20              		.cfi_offset 18, -16
  21              		.cfi_offset 9, -12
  22              		.cfi_offset 8, -8
  23              		.cfi_offset 1, -4
  24              		.cfi_def_cfa_offset 16
  56:C:/Users/stapi/OneDrive/Desktop/GD32VW553/GD32VW55X_Wifi_BLE_SDK/GD32VW55x_RELEASE_V1.0.2/MSDK/lwip/libcoap-4.3.4/src\coap_io_lwip.c ****   coap_context_t *context = (coap_context_t *)arg;
  25              		.loc 1 56 3
  55:C:/Users/stapi/OneDrive/Desktop/GD32VW553/GD32VW55X_Wifi_BLE_SDK/GD32VW55x_RELEASE_V1.0.2/MSDK/lwip/libcoap-4.3.4/src\coap_io_lwip.c ****   coap_context_t *context = (coap_context_t *)arg;
  26              		.loc 1 55 36 is_stmt 0
  27 0008 4111     		addi	sp,sp,-16
  28              		.cfi_def_cfa_offset 32
  55:C:/Users/stapi/OneDrive/Desktop/GD32VW553/GD32VW55X_Wifi_BLE_SDK/GD32VW55x_RELEASE_V1.0.2/MSDK/lwip/libcoap-4.3.4/src\coap_io_lwip.c ****   coap_context_t *context = (coap_context_t *)arg;
  29              		.loc 1 55 36
  30 000a 2A84     		mv	s0,a0
  31              	.LVL1:
  57:C:/Users/stapi/OneDrive/Desktop/GD32VW553/GD32VW55X_Wifi_BLE_SDK/GD32VW55x_RELEASE_V1.0.2/MSDK/lwip/libcoap-4.3.4/src\coap_io_lwip.c ****   coap_tick_t before;
  32              		.loc 1 57 3 is_stmt 1
  58:C:/Users/stapi/OneDrive/Desktop/GD32VW553/GD32VW55X_Wifi_BLE_SDK/GD32VW55x_RELEASE_V1.0.2/MSDK/lwip/libcoap-4.3.4/src\coap_io_lwip.c ****   unsigned int num_sockets;
  33              		.loc 1 58 3
  59:C:/Users/stapi/OneDrive/Desktop/GD32VW553/GD32VW55X_Wifi_BLE_SDK/GD32VW55x_RELEASE_V1.0.2/MSDK/lwip/libcoap-4.3.4/src\coap_io_lwip.c ****   unsigned int timeout;
  34              		.loc 1 59 3
  60:C:/Users/stapi/OneDrive/Desktop/GD32VW553/GD32VW55X_Wifi_BLE_SDK/GD32VW55x_RELEASE_V1.0.2/MSDK/lwip/libcoap-4.3.4/src\coap_io_lwip.c **** 
  61:C:/Users/stapi/OneDrive/Desktop/GD32VW553/GD32VW55X_Wifi_BLE_SDK/GD32VW55x_RELEASE_V1.0.2/MSDK/lwip/libcoap-4.3.4/src\coap_io_lwip.c ****   coap_ticks(&before);
  35              		.loc 1 61 3
  36              	.LBB4:
  37              	.LBB5:
  38              		.file 2 "..\\..\\..\\..\\lwip\\libcoap-4.3.4\\include/coap3/coap_time.h"
   1:..\..\..\..\lwip\libcoap-4.3.4\include/coap3/coap_time.h **** /*
   2:..\..\..\..\lwip\libcoap-4.3.4\include/coap3/coap_time.h ****  * coap_time.h -- Clock Handling
   3:..\..\..\..\lwip\libcoap-4.3.4\include/coap3/coap_time.h ****  *
   4:..\..\..\..\lwip\libcoap-4.3.4\include/coap3/coap_time.h ****  * Copyright (C) 2010-2023 Olaf Bergmann <bergmann@tzi.org>
   5:..\..\..\..\lwip\libcoap-4.3.4\include/coap3/coap_time.h ****  *
   6:..\..\..\..\lwip\libcoap-4.3.4\include/coap3/coap_time.h ****  * SPDX-License-Identifier: BSD-2-Clause
   7:..\..\..\..\lwip\libcoap-4.3.4\include/coap3/coap_time.h ****  *
   8:..\..\..\..\lwip\libcoap-4.3.4\include/coap3/coap_time.h ****  * This file is part of the CoAP library libcoap. Please see README for terms
   9:..\..\..\..\lwip\libcoap-4.3.4\include/coap3/coap_time.h ****  * of use.
  10:..\..\..\..\lwip\libcoap-4.3.4\include/coap3/coap_time.h ****  */
  11:..\..\..\..\lwip\libcoap-4.3.4\include/coap3/coap_time.h **** 
  12:..\..\..\..\lwip\libcoap-4.3.4\include/coap3/coap_time.h **** /**
  13:..\..\..\..\lwip\libcoap-4.3.4\include/coap3/coap_time.h ****  * @file coap_time.h
  14:..\..\..\..\lwip\libcoap-4.3.4\include/coap3/coap_time.h ****  * @brief Clock Handling
  15:..\..\..\..\lwip\libcoap-4.3.4\include/coap3/coap_time.h ****  */
  16:..\..\..\..\lwip\libcoap-4.3.4\include/coap3/coap_time.h **** 
  17:..\..\..\..\lwip\libcoap-4.3.4\include/coap3/coap_time.h **** #ifndef COAP_TIME_H_
  18:..\..\..\..\lwip\libcoap-4.3.4\include/coap3/coap_time.h **** #define COAP_TIME_H_
  19:..\..\..\..\lwip\libcoap-4.3.4\include/coap3/coap_time.h **** 
  20:..\..\..\..\lwip\libcoap-4.3.4\include/coap3/coap_time.h **** /**
  21:..\..\..\..\lwip\libcoap-4.3.4\include/coap3/coap_time.h ****  * @ingroup application_api
  22:..\..\..\..\lwip\libcoap-4.3.4\include/coap3/coap_time.h ****  * @defgroup clock Clock Handling
  23:..\..\..\..\lwip\libcoap-4.3.4\include/coap3/coap_time.h ****  * API for internal clock assess
  24:..\..\..\..\lwip\libcoap-4.3.4\include/coap3/coap_time.h ****  * @{
  25:..\..\..\..\lwip\libcoap-4.3.4\include/coap3/coap_time.h ****  */
  26:..\..\..\..\lwip\libcoap-4.3.4\include/coap3/coap_time.h **** 
  27:..\..\..\..\lwip\libcoap-4.3.4\include/coap3/coap_time.h **** #if defined(WITH_LWIP)
  28:..\..\..\..\lwip\libcoap-4.3.4\include/coap3/coap_time.h **** 
  29:..\..\..\..\lwip\libcoap-4.3.4\include/coap3/coap_time.h **** #include <stdint.h>
  30:..\..\..\..\lwip\libcoap-4.3.4\include/coap3/coap_time.h **** #include <lwip/sys.h>
  31:..\..\..\..\lwip\libcoap-4.3.4\include/coap3/coap_time.h **** 
  32:..\..\..\..\lwip\libcoap-4.3.4\include/coap3/coap_time.h **** /* lwIP provides ms in sys_now */
  33:..\..\..\..\lwip\libcoap-4.3.4\include/coap3/coap_time.h **** #define COAP_TICKS_PER_SECOND 1000
  34:..\..\..\..\lwip\libcoap-4.3.4\include/coap3/coap_time.h **** 
  35:..\..\..\..\lwip\libcoap-4.3.4\include/coap3/coap_time.h **** typedef uint32_t coap_tick_t;
  36:..\..\..\..\lwip\libcoap-4.3.4\include/coap3/coap_time.h **** typedef uint32_t coap_time_t;
  37:..\..\..\..\lwip\libcoap-4.3.4\include/coap3/coap_time.h **** typedef int32_t coap_tick_diff_t;
  38:..\..\..\..\lwip\libcoap-4.3.4\include/coap3/coap_time.h **** 
  39:..\..\..\..\lwip\libcoap-4.3.4\include/coap3/coap_time.h **** COAP_STATIC_INLINE void
  40:..\..\..\..\lwip\libcoap-4.3.4\include/coap3/coap_time.h **** coap_ticks_impl(coap_tick_t *t) {
  41:..\..\..\..\lwip\libcoap-4.3.4\include/coap3/coap_time.h ****   *t = sys_now();
  39              		.loc 2 41 3
  40              		.loc 2 41 8 is_stmt 0
  41 000c 97000000 		call	sys_now
  41      E7800000 
  42              	.LVL2:
  43 0014 2A87     		mv	a4,a0
  44              	.LVL3:
  45              	.LBE5:
  46              	.LBE4:
  62:C:/Users/stapi/OneDrive/Desktop/GD32VW553/GD32VW55X_Wifi_BLE_SDK/GD32VW55x_RELEASE_V1.0.2/MSDK/lwip/libcoap-4.3.4/src\coap_io_lwip.c ****   timeout = coap_io_prepare_io(context, NULL, 0, &num_sockets, before);
  47              		.loc 1 62 3 is_stmt 1
  48              		.loc 1 62 13 is_stmt 0
  49 0016 7400     		addi	a3,sp,12
  50 0018 0146     		li	a2,0
  51 001a 8145     		li	a1,0
  52 001c 2285     		mv	a0,s0
  53              	.LVL4:
  54 001e 97000000 		call	coap_io_prepare_io
  54      E7800000 
  55              	.LVL5:
  63:C:/Users/stapi/OneDrive/Desktop/GD32VW553/GD32VW55X_Wifi_BLE_SDK/GD32VW55x_RELEASE_V1.0.2/MSDK/lwip/libcoap-4.3.4/src\coap_io_lwip.c ****   if (context->timer_configured) {
  56              		.loc 1 63 6
  57 0026 83478403 		lbu	a5,56(s0)
  62:C:/Users/stapi/OneDrive/Desktop/GD32VW553/GD32VW55X_Wifi_BLE_SDK/GD32VW55x_RELEASE_V1.0.2/MSDK/lwip/libcoap-4.3.4/src\coap_io_lwip.c ****   timeout = coap_io_prepare_io(context, NULL, 0, &num_sockets, before);
  58              		.loc 1 62 13
  59 002a AA84     		mv	s1,a0
  60              	.LVL6:
  61              		.loc 1 63 3 is_stmt 1
  62 002c 37090000 		lui	s2,%hi(coap_io_process_timeout)
  63              		.loc 1 63 6 is_stmt 0
  64 0030 91CB     		beq	a5,zero,.L2
  64:C:/Users/stapi/OneDrive/Desktop/GD32VW553/GD32VW55X_Wifi_BLE_SDK/GD32VW55x_RELEASE_V1.0.2/MSDK/lwip/libcoap-4.3.4/src\coap_io_lwip.c ****     sys_untimeout(coap_io_process_timeout, (void *)context);
  65              		.loc 1 64 5 is_stmt 1
  66 0032 A285     		mv	a1,s0
  67 0034 13050900 		addi	a0,s2,%lo(coap_io_process_timeout)
  68 0038 97000000 		call	sys_untimeout
  68      E7800000 
  69              	.LVL7:
  65:C:/Users/stapi/OneDrive/Desktop/GD32VW553/GD32VW55X_Wifi_BLE_SDK/GD32VW55x_RELEASE_V1.0.2/MSDK/lwip/libcoap-4.3.4/src\coap_io_lwip.c ****     context->timer_configured = 0;
  70              		.loc 1 65 5
  71              		.loc 1 65 31 is_stmt 0
  72 0040 230C0402 		sb	zero,56(s0)
  73              	.L2:
  66:C:/Users/stapi/OneDrive/Desktop/GD32VW553/GD32VW55X_Wifi_BLE_SDK/GD32VW55x_RELEASE_V1.0.2/MSDK/lwip/libcoap-4.3.4/src\coap_io_lwip.c ****   }
  67:C:/Users/stapi/OneDrive/Desktop/GD32VW553/GD32VW55X_Wifi_BLE_SDK/GD32VW55x_RELEASE_V1.0.2/MSDK/lwip/libcoap-4.3.4/src\coap_io_lwip.c ****   if (timeout == 0) {
  74              		.loc 1 67 3 is_stmt 1
  75              		.loc 1 67 6 is_stmt 0
  76 0044 99E0     		bne	s1,zero,.L3
  68:C:/Users/stapi/OneDrive/Desktop/GD32VW553/GD32VW55X_Wifi_BLE_SDK/GD32VW55x_RELEASE_V1.0.2/MSDK/lwip/libcoap-4.3.4/src\coap_io_lwip.c ****     /* Garbage collect 1 sec hence */
  69:C:/Users/stapi/OneDrive/Desktop/GD32VW553/GD32VW55X_Wifi_BLE_SDK/GD32VW55x_RELEASE_V1.0.2/MSDK/lwip/libcoap-4.3.4/src\coap_io_lwip.c ****     timeout = 1000;
  77              		.loc 1 69 13
  78 0046 9304803E 		li	s1,1000
  79              	.LVL8:
  80              	.L3:
  70:C:/Users/stapi/OneDrive/Desktop/GD32VW553/GD32VW55X_Wifi_BLE_SDK/GD32VW55x_RELEASE_V1.0.2/MSDK/lwip/libcoap-4.3.4/src\coap_io_lwip.c ****   }
  71:C:/Users/stapi/OneDrive/Desktop/GD32VW553/GD32VW55X_Wifi_BLE_SDK/GD32VW55x_RELEASE_V1.0.2/MSDK/lwip/libcoap-4.3.4/src\coap_io_lwip.c **** #ifdef COAP_DEBUG_WAKEUP_TIMES
  72:C:/Users/stapi/OneDrive/Desktop/GD32VW553/GD32VW55X_Wifi_BLE_SDK/GD32VW55x_RELEASE_V1.0.2/MSDK/lwip/libcoap-4.3.4/src\coap_io_lwip.c ****   coap_log_info("****** Next wakeup msecs %u (1)\n",
  73:C:/Users/stapi/OneDrive/Desktop/GD32VW553/GD32VW55X_Wifi_BLE_SDK/GD32VW55x_RELEASE_V1.0.2/MSDK/lwip/libcoap-4.3.4/src\coap_io_lwip.c ****                 timeout);
  74:C:/Users/stapi/OneDrive/Desktop/GD32VW553/GD32VW55X_Wifi_BLE_SDK/GD32VW55x_RELEASE_V1.0.2/MSDK/lwip/libcoap-4.3.4/src\coap_io_lwip.c **** #endif /* COAP_DEBUG_WAKEUP_TIMES */
  75:C:/Users/stapi/OneDrive/Desktop/GD32VW553/GD32VW55X_Wifi_BLE_SDK/GD32VW55x_RELEASE_V1.0.2/MSDK/lwip/libcoap-4.3.4/src\coap_io_lwip.c ****   sys_timeout(timeout, coap_io_process_timeout, context);
  81              		.loc 1 75 3 is_stmt 1
  82 004a 2286     		mv	a2,s0
  83 004c 93050900 		addi	a1,s2,%lo(coap_io_process_timeout)
  84 0050 2685     		mv	a0,s1
  85 0052 97000000 		call	sys_timeout
  85      E7800000 
  86              	.LVL9:
  76:C:/Users/stapi/OneDrive/Desktop/GD32VW553/GD32VW55X_Wifi_BLE_SDK/GD32VW55x_RELEASE_V1.0.2/MSDK/lwip/libcoap-4.3.4/src\coap_io_lwip.c ****   context->timer_configured = 1;
  87              		.loc 1 76 3
  88              		.loc 1 76 29 is_stmt 0
  89 005a 8547     		li	a5,1
  90 005c 230CF402 		sb	a5,56(s0)
  77:C:/Users/stapi/OneDrive/Desktop/GD32VW553/GD32VW55X_Wifi_BLE_SDK/GD32VW55x_RELEASE_V1.0.2/MSDK/lwip/libcoap-4.3.4/src\coap_io_lwip.c **** }
  91              		.loc 1 77 1
  92 0060 4101     		addi	sp,sp,16
  93              		.cfi_def_cfa_offset 0
  94 0062 17030000 		tail	__riscv_restore_3
  94      67000300 
  95              		.cfi_restore 18
  96              		.cfi_restore 9
  97              		.cfi_restore 8
  98              		.cfi_restore 1
  99              		.cfi_def_cfa_offset -16
 100              		.cfi_endproc
 101              	.LFE33:
 103              		.section	.rodata.coap_recvc.str1.4,"aMS",@progbits,1
 104              		.align	2
 105              	.LC0:
 106 0000 73657373 		.string	"session"
 106      696F6E00 
 107              		.align	2
 108              	.LC1:
 109 0008 433A2F55 		.string	"C:/Users/stapi/OneDrive/Desktop/GD32VW553/GD32VW55X_Wifi_BLE_SDK/GD32VW55x_RELEASE_V1.0.2
 109      73657273 
 109      2F737461 
 109      70692F4F 
 109      6E654472 
 110 008d 000000   		.align	2
 111              	.LC2:
 112 0090 50726F74 		.string	"Proto not supported for LWIP"
 112      6F206E6F 
 112      74207375 
 112      70706F72 
 112      74656420 
 113 00ad 000000   		.align	2
 114              	.LC3:
 115 00b0 41737365 		.string	"Assertion \"%s\" failed at line %d in %s\n"
 115      7274696F 
 115      6E202225 
 115      73222066 
 115      61696C65 
 116              		.align	2
 117              	.LC4:
 118 00d8 2A202025 		.string	"*  %s: lwip:  recv %4d bytes\n"
 118      733A206C 
 118      7769703A 
 118      20207265 
 118      63762025 
 119              		.section	.text.coap_recvc,"ax",@progbits
 120              		.align	1
 122              	coap_recvc:
 123              	.LFB36:
  78:C:/Users/stapi/OneDrive/Desktop/GD32VW553/GD32VW55X_Wifi_BLE_SDK/GD32VW55x_RELEASE_V1.0.2/MSDK/lwip/libcoap-4.3.4/src\coap_io_lwip.c **** 
  79:C:/Users/stapi/OneDrive/Desktop/GD32VW553/GD32VW55X_Wifi_BLE_SDK/GD32VW55x_RELEASE_V1.0.2/MSDK/lwip/libcoap-4.3.4/src\coap_io_lwip.c **** int
  80:C:/Users/stapi/OneDrive/Desktop/GD32VW553/GD32VW55X_Wifi_BLE_SDK/GD32VW55x_RELEASE_V1.0.2/MSDK/lwip/libcoap-4.3.4/src\coap_io_lwip.c **** coap_io_process(coap_context_t *context, uint32_t timeout_ms) {
  81:C:/Users/stapi/OneDrive/Desktop/GD32VW553/GD32VW55X_Wifi_BLE_SDK/GD32VW55x_RELEASE_V1.0.2/MSDK/lwip/libcoap-4.3.4/src\coap_io_lwip.c ****   coap_tick_t before;
  82:C:/Users/stapi/OneDrive/Desktop/GD32VW553/GD32VW55X_Wifi_BLE_SDK/GD32VW55x_RELEASE_V1.0.2/MSDK/lwip/libcoap-4.3.4/src\coap_io_lwip.c ****   coap_tick_t now;
  83:C:/Users/stapi/OneDrive/Desktop/GD32VW553/GD32VW55X_Wifi_BLE_SDK/GD32VW55x_RELEASE_V1.0.2/MSDK/lwip/libcoap-4.3.4/src\coap_io_lwip.c ****   unsigned int num_sockets;
  84:C:/Users/stapi/OneDrive/Desktop/GD32VW553/GD32VW55X_Wifi_BLE_SDK/GD32VW55x_RELEASE_V1.0.2/MSDK/lwip/libcoap-4.3.4/src\coap_io_lwip.c ****   unsigned int timeout;
  85:C:/Users/stapi/OneDrive/Desktop/GD32VW553/GD32VW55X_Wifi_BLE_SDK/GD32VW55x_RELEASE_V1.0.2/MSDK/lwip/libcoap-4.3.4/src\coap_io_lwip.c **** 
  86:C:/Users/stapi/OneDrive/Desktop/GD32VW553/GD32VW55X_Wifi_BLE_SDK/GD32VW55x_RELEASE_V1.0.2/MSDK/lwip/libcoap-4.3.4/src\coap_io_lwip.c ****   coap_ticks(&before);
  87:C:/Users/stapi/OneDrive/Desktop/GD32VW553/GD32VW55X_Wifi_BLE_SDK/GD32VW55x_RELEASE_V1.0.2/MSDK/lwip/libcoap-4.3.4/src\coap_io_lwip.c ****   timeout = coap_io_prepare_io(context, NULL, 0, &num_sockets, before);
  88:C:/Users/stapi/OneDrive/Desktop/GD32VW553/GD32VW55X_Wifi_BLE_SDK/GD32VW55x_RELEASE_V1.0.2/MSDK/lwip/libcoap-4.3.4/src\coap_io_lwip.c ****   if (timeout_ms != 0 && timeout_ms != COAP_IO_NO_WAIT &&
  89:C:/Users/stapi/OneDrive/Desktop/GD32VW553/GD32VW55X_Wifi_BLE_SDK/GD32VW55x_RELEASE_V1.0.2/MSDK/lwip/libcoap-4.3.4/src\coap_io_lwip.c ****       timeout > timeout_ms) {
  90:C:/Users/stapi/OneDrive/Desktop/GD32VW553/GD32VW55X_Wifi_BLE_SDK/GD32VW55x_RELEASE_V1.0.2/MSDK/lwip/libcoap-4.3.4/src\coap_io_lwip.c ****     timeout = timeout_ms;
  91:C:/Users/stapi/OneDrive/Desktop/GD32VW553/GD32VW55X_Wifi_BLE_SDK/GD32VW55x_RELEASE_V1.0.2/MSDK/lwip/libcoap-4.3.4/src\coap_io_lwip.c ****   }
  92:C:/Users/stapi/OneDrive/Desktop/GD32VW553/GD32VW55X_Wifi_BLE_SDK/GD32VW55x_RELEASE_V1.0.2/MSDK/lwip/libcoap-4.3.4/src\coap_io_lwip.c **** 
  93:C:/Users/stapi/OneDrive/Desktop/GD32VW553/GD32VW55X_Wifi_BLE_SDK/GD32VW55x_RELEASE_V1.0.2/MSDK/lwip/libcoap-4.3.4/src\coap_io_lwip.c ****   LOCK_TCPIP_CORE();
  94:C:/Users/stapi/OneDrive/Desktop/GD32VW553/GD32VW55X_Wifi_BLE_SDK/GD32VW55x_RELEASE_V1.0.2/MSDK/lwip/libcoap-4.3.4/src\coap_io_lwip.c **** 
  95:C:/Users/stapi/OneDrive/Desktop/GD32VW553/GD32VW55X_Wifi_BLE_SDK/GD32VW55x_RELEASE_V1.0.2/MSDK/lwip/libcoap-4.3.4/src\coap_io_lwip.c ****   if (context->timer_configured) {
  96:C:/Users/stapi/OneDrive/Desktop/GD32VW553/GD32VW55X_Wifi_BLE_SDK/GD32VW55x_RELEASE_V1.0.2/MSDK/lwip/libcoap-4.3.4/src\coap_io_lwip.c ****     sys_untimeout(coap_io_process_timeout, (void *)context);
  97:C:/Users/stapi/OneDrive/Desktop/GD32VW553/GD32VW55X_Wifi_BLE_SDK/GD32VW55x_RELEASE_V1.0.2/MSDK/lwip/libcoap-4.3.4/src\coap_io_lwip.c ****     context->timer_configured = 0;
  98:C:/Users/stapi/OneDrive/Desktop/GD32VW553/GD32VW55X_Wifi_BLE_SDK/GD32VW55x_RELEASE_V1.0.2/MSDK/lwip/libcoap-4.3.4/src\coap_io_lwip.c ****   }
  99:C:/Users/stapi/OneDrive/Desktop/GD32VW553/GD32VW55X_Wifi_BLE_SDK/GD32VW55x_RELEASE_V1.0.2/MSDK/lwip/libcoap-4.3.4/src\coap_io_lwip.c ****   if (timeout == 0) {
 100:C:/Users/stapi/OneDrive/Desktop/GD32VW553/GD32VW55X_Wifi_BLE_SDK/GD32VW55x_RELEASE_V1.0.2/MSDK/lwip/libcoap-4.3.4/src\coap_io_lwip.c ****     /* Garbage collect 1 sec hence */
 101:C:/Users/stapi/OneDrive/Desktop/GD32VW553/GD32VW55X_Wifi_BLE_SDK/GD32VW55x_RELEASE_V1.0.2/MSDK/lwip/libcoap-4.3.4/src\coap_io_lwip.c ****     timeout = 1000;
 102:C:/Users/stapi/OneDrive/Desktop/GD32VW553/GD32VW55X_Wifi_BLE_SDK/GD32VW55x_RELEASE_V1.0.2/MSDK/lwip/libcoap-4.3.4/src\coap_io_lwip.c ****   }
 103:C:/Users/stapi/OneDrive/Desktop/GD32VW553/GD32VW55X_Wifi_BLE_SDK/GD32VW55x_RELEASE_V1.0.2/MSDK/lwip/libcoap-4.3.4/src\coap_io_lwip.c **** #ifdef COAP_DEBUG_WAKEUP_TIMES
 104:C:/Users/stapi/OneDrive/Desktop/GD32VW553/GD32VW55X_Wifi_BLE_SDK/GD32VW55x_RELEASE_V1.0.2/MSDK/lwip/libcoap-4.3.4/src\coap_io_lwip.c ****   coap_log_info("****** Next wakeup msecs %u (2)\n",
 105:C:/Users/stapi/OneDrive/Desktop/GD32VW553/GD32VW55X_Wifi_BLE_SDK/GD32VW55x_RELEASE_V1.0.2/MSDK/lwip/libcoap-4.3.4/src\coap_io_lwip.c ****                 timeout);
 106:C:/Users/stapi/OneDrive/Desktop/GD32VW553/GD32VW55X_Wifi_BLE_SDK/GD32VW55x_RELEASE_V1.0.2/MSDK/lwip/libcoap-4.3.4/src\coap_io_lwip.c **** #endif /* COAP_DEBUG_WAKEUP_TIMES */
 107:C:/Users/stapi/OneDrive/Desktop/GD32VW553/GD32VW55X_Wifi_BLE_SDK/GD32VW55x_RELEASE_V1.0.2/MSDK/lwip/libcoap-4.3.4/src\coap_io_lwip.c ****   sys_timeout(timeout, coap_io_process_timeout, context);
 108:C:/Users/stapi/OneDrive/Desktop/GD32VW553/GD32VW55X_Wifi_BLE_SDK/GD32VW55x_RELEASE_V1.0.2/MSDK/lwip/libcoap-4.3.4/src\coap_io_lwip.c ****   context->timer_configured = 1;
 109:C:/Users/stapi/OneDrive/Desktop/GD32VW553/GD32VW55X_Wifi_BLE_SDK/GD32VW55x_RELEASE_V1.0.2/MSDK/lwip/libcoap-4.3.4/src\coap_io_lwip.c **** 
 110:C:/Users/stapi/OneDrive/Desktop/GD32VW553/GD32VW55X_Wifi_BLE_SDK/GD32VW55x_RELEASE_V1.0.2/MSDK/lwip/libcoap-4.3.4/src\coap_io_lwip.c ****   UNLOCK_TCPIP_CORE();
 111:C:/Users/stapi/OneDrive/Desktop/GD32VW553/GD32VW55X_Wifi_BLE_SDK/GD32VW55x_RELEASE_V1.0.2/MSDK/lwip/libcoap-4.3.4/src\coap_io_lwip.c **** 
 112:C:/Users/stapi/OneDrive/Desktop/GD32VW553/GD32VW55X_Wifi_BLE_SDK/GD32VW55x_RELEASE_V1.0.2/MSDK/lwip/libcoap-4.3.4/src\coap_io_lwip.c ****   if (context->input_wait) {
 113:C:/Users/stapi/OneDrive/Desktop/GD32VW553/GD32VW55X_Wifi_BLE_SDK/GD32VW55x_RELEASE_V1.0.2/MSDK/lwip/libcoap-4.3.4/src\coap_io_lwip.c ****     context->input_wait(context->input_arg, timeout);
 114:C:/Users/stapi/OneDrive/Desktop/GD32VW553/GD32VW55X_Wifi_BLE_SDK/GD32VW55x_RELEASE_V1.0.2/MSDK/lwip/libcoap-4.3.4/src\coap_io_lwip.c ****   }
 115:C:/Users/stapi/OneDrive/Desktop/GD32VW553/GD32VW55X_Wifi_BLE_SDK/GD32VW55x_RELEASE_V1.0.2/MSDK/lwip/libcoap-4.3.4/src\coap_io_lwip.c **** 
 116:C:/Users/stapi/OneDrive/Desktop/GD32VW553/GD32VW55X_Wifi_BLE_SDK/GD32VW55x_RELEASE_V1.0.2/MSDK/lwip/libcoap-4.3.4/src\coap_io_lwip.c ****   LOCK_TCPIP_CORE();
 117:C:/Users/stapi/OneDrive/Desktop/GD32VW553/GD32VW55X_Wifi_BLE_SDK/GD32VW55x_RELEASE_V1.0.2/MSDK/lwip/libcoap-4.3.4/src\coap_io_lwip.c **** 
 118:C:/Users/stapi/OneDrive/Desktop/GD32VW553/GD32VW55X_Wifi_BLE_SDK/GD32VW55x_RELEASE_V1.0.2/MSDK/lwip/libcoap-4.3.4/src\coap_io_lwip.c ****   sys_check_timeouts();
 119:C:/Users/stapi/OneDrive/Desktop/GD32VW553/GD32VW55X_Wifi_BLE_SDK/GD32VW55x_RELEASE_V1.0.2/MSDK/lwip/libcoap-4.3.4/src\coap_io_lwip.c **** 
 120:C:/Users/stapi/OneDrive/Desktop/GD32VW553/GD32VW55X_Wifi_BLE_SDK/GD32VW55x_RELEASE_V1.0.2/MSDK/lwip/libcoap-4.3.4/src\coap_io_lwip.c ****   UNLOCK_TCPIP_CORE();
 121:C:/Users/stapi/OneDrive/Desktop/GD32VW553/GD32VW55X_Wifi_BLE_SDK/GD32VW55x_RELEASE_V1.0.2/MSDK/lwip/libcoap-4.3.4/src\coap_io_lwip.c **** 
 122:C:/Users/stapi/OneDrive/Desktop/GD32VW553/GD32VW55X_Wifi_BLE_SDK/GD32VW55x_RELEASE_V1.0.2/MSDK/lwip/libcoap-4.3.4/src\coap_io_lwip.c ****   coap_ticks(&now);
 123:C:/Users/stapi/OneDrive/Desktop/GD32VW553/GD32VW55X_Wifi_BLE_SDK/GD32VW55x_RELEASE_V1.0.2/MSDK/lwip/libcoap-4.3.4/src\coap_io_lwip.c ****   return (int)(((now - before) * 1000) / COAP_TICKS_PER_SECOND);
 124:C:/Users/stapi/OneDrive/Desktop/GD32VW553/GD32VW55X_Wifi_BLE_SDK/GD32VW55x_RELEASE_V1.0.2/MSDK/lwip/libcoap-4.3.4/src\coap_io_lwip.c **** }
 125:C:/Users/stapi/OneDrive/Desktop/GD32VW553/GD32VW55X_Wifi_BLE_SDK/GD32VW55x_RELEASE_V1.0.2/MSDK/lwip/libcoap-4.3.4/src\coap_io_lwip.c **** 
 126:C:/Users/stapi/OneDrive/Desktop/GD32VW553/GD32VW55X_Wifi_BLE_SDK/GD32VW55x_RELEASE_V1.0.2/MSDK/lwip/libcoap-4.3.4/src\coap_io_lwip.c **** /*
 127:C:/Users/stapi/OneDrive/Desktop/GD32VW553/GD32VW55X_Wifi_BLE_SDK/GD32VW55x_RELEASE_V1.0.2/MSDK/lwip/libcoap-4.3.4/src\coap_io_lwip.c ****  * Not used for LwIP (done with coap_recvc()), but need dummy function.
 128:C:/Users/stapi/OneDrive/Desktop/GD32VW553/GD32VW55X_Wifi_BLE_SDK/GD32VW55x_RELEASE_V1.0.2/MSDK/lwip/libcoap-4.3.4/src\coap_io_lwip.c ****  */
 129:C:/Users/stapi/OneDrive/Desktop/GD32VW553/GD32VW55X_Wifi_BLE_SDK/GD32VW55x_RELEASE_V1.0.2/MSDK/lwip/libcoap-4.3.4/src\coap_io_lwip.c **** ssize_t
 130:C:/Users/stapi/OneDrive/Desktop/GD32VW553/GD32VW55X_Wifi_BLE_SDK/GD32VW55x_RELEASE_V1.0.2/MSDK/lwip/libcoap-4.3.4/src\coap_io_lwip.c **** coap_socket_recv(coap_socket_t *sock, coap_packet_t *packet) {
 131:C:/Users/stapi/OneDrive/Desktop/GD32VW553/GD32VW55X_Wifi_BLE_SDK/GD32VW55x_RELEASE_V1.0.2/MSDK/lwip/libcoap-4.3.4/src\coap_io_lwip.c ****   (void)sock;
 132:C:/Users/stapi/OneDrive/Desktop/GD32VW553/GD32VW55X_Wifi_BLE_SDK/GD32VW55x_RELEASE_V1.0.2/MSDK/lwip/libcoap-4.3.4/src\coap_io_lwip.c ****   (void)packet;
 133:C:/Users/stapi/OneDrive/Desktop/GD32VW553/GD32VW55X_Wifi_BLE_SDK/GD32VW55x_RELEASE_V1.0.2/MSDK/lwip/libcoap-4.3.4/src\coap_io_lwip.c ****   assert(0);
 134:C:/Users/stapi/OneDrive/Desktop/GD32VW553/GD32VW55X_Wifi_BLE_SDK/GD32VW55x_RELEASE_V1.0.2/MSDK/lwip/libcoap-4.3.4/src\coap_io_lwip.c ****   return -1;
 135:C:/Users/stapi/OneDrive/Desktop/GD32VW553/GD32VW55X_Wifi_BLE_SDK/GD32VW55x_RELEASE_V1.0.2/MSDK/lwip/libcoap-4.3.4/src\coap_io_lwip.c **** }
 136:C:/Users/stapi/OneDrive/Desktop/GD32VW553/GD32VW55X_Wifi_BLE_SDK/GD32VW55x_RELEASE_V1.0.2/MSDK/lwip/libcoap-4.3.4/src\coap_io_lwip.c **** 
 137:C:/Users/stapi/OneDrive/Desktop/GD32VW553/GD32VW55X_Wifi_BLE_SDK/GD32VW55x_RELEASE_V1.0.2/MSDK/lwip/libcoap-4.3.4/src\coap_io_lwip.c **** #if COAP_CLIENT_SUPPORT
 138:C:/Users/stapi/OneDrive/Desktop/GD32VW553/GD32VW55X_Wifi_BLE_SDK/GD32VW55x_RELEASE_V1.0.2/MSDK/lwip/libcoap-4.3.4/src\coap_io_lwip.c **** /** Callback from lwIP when a package was received for a client.
 139:C:/Users/stapi/OneDrive/Desktop/GD32VW553/GD32VW55X_Wifi_BLE_SDK/GD32VW55x_RELEASE_V1.0.2/MSDK/lwip/libcoap-4.3.4/src\coap_io_lwip.c ****  *
 140:C:/Users/stapi/OneDrive/Desktop/GD32VW553/GD32VW55X_Wifi_BLE_SDK/GD32VW55x_RELEASE_V1.0.2/MSDK/lwip/libcoap-4.3.4/src\coap_io_lwip.c ****  * The current implementation deals this to coap_dispatch immediately, but
 141:C:/Users/stapi/OneDrive/Desktop/GD32VW553/GD32VW55X_Wifi_BLE_SDK/GD32VW55x_RELEASE_V1.0.2/MSDK/lwip/libcoap-4.3.4/src\coap_io_lwip.c ****  * other mechanisms (as storing the package in a queue and later fetching it
 142:C:/Users/stapi/OneDrive/Desktop/GD32VW553/GD32VW55X_Wifi_BLE_SDK/GD32VW55x_RELEASE_V1.0.2/MSDK/lwip/libcoap-4.3.4/src\coap_io_lwip.c ****  * when coap_io_do_io is called) can be envisioned.
 143:C:/Users/stapi/OneDrive/Desktop/GD32VW553/GD32VW55X_Wifi_BLE_SDK/GD32VW55x_RELEASE_V1.0.2/MSDK/lwip/libcoap-4.3.4/src\coap_io_lwip.c ****  *
 144:C:/Users/stapi/OneDrive/Desktop/GD32VW553/GD32VW55X_Wifi_BLE_SDK/GD32VW55x_RELEASE_V1.0.2/MSDK/lwip/libcoap-4.3.4/src\coap_io_lwip.c ****  * It handles everything coap_io_do_io does on other implementations.
 145:C:/Users/stapi/OneDrive/Desktop/GD32VW553/GD32VW55X_Wifi_BLE_SDK/GD32VW55x_RELEASE_V1.0.2/MSDK/lwip/libcoap-4.3.4/src\coap_io_lwip.c ****  */
 146:C:/Users/stapi/OneDrive/Desktop/GD32VW553/GD32VW55X_Wifi_BLE_SDK/GD32VW55x_RELEASE_V1.0.2/MSDK/lwip/libcoap-4.3.4/src\coap_io_lwip.c **** static void
 147:C:/Users/stapi/OneDrive/Desktop/GD32VW553/GD32VW55X_Wifi_BLE_SDK/GD32VW55x_RELEASE_V1.0.2/MSDK/lwip/libcoap-4.3.4/src\coap_io_lwip.c **** coap_recvc(void *arg, struct udp_pcb *upcb, struct pbuf *p,
 148:C:/Users/stapi/OneDrive/Desktop/GD32VW553/GD32VW55X_Wifi_BLE_SDK/GD32VW55x_RELEASE_V1.0.2/MSDK/lwip/libcoap-4.3.4/src\coap_io_lwip.c ****            const ip_addr_t *addr, u16_t port) {
 124              		.loc 1 148 47 is_stmt 1
 125              		.cfi_startproc
 126              	.LVL10:
 127 0000 17030000 		call	t0,__riscv_save_3
 127      E7020300 
 128              		.cfi_offset 18, -16
 129              		.cfi_offset 9, -12
 130              		.cfi_offset 8, -8
 131              		.cfi_offset 1, -4
 132              		.cfi_def_cfa_offset 16
 149:C:/Users/stapi/OneDrive/Desktop/GD32VW553/GD32VW55X_Wifi_BLE_SDK/GD32VW55x_RELEASE_V1.0.2/MSDK/lwip/libcoap-4.3.4/src\coap_io_lwip.c ****   coap_pdu_t *pdu = NULL;
 133              		.loc 1 149 3
 134              	.LVL11:
 150:C:/Users/stapi/OneDrive/Desktop/GD32VW553/GD32VW55X_Wifi_BLE_SDK/GD32VW55x_RELEASE_V1.0.2/MSDK/lwip/libcoap-4.3.4/src\coap_io_lwip.c ****   coap_session_t *session = (coap_session_t *)arg;
 135              		.loc 1 150 3
 151:C:/Users/stapi/OneDrive/Desktop/GD32VW553/GD32VW55X_Wifi_BLE_SDK/GD32VW55x_RELEASE_V1.0.2/MSDK/lwip/libcoap-4.3.4/src\coap_io_lwip.c ****   int result = -1;
 136              		.loc 1 151 3
 152:C:/Users/stapi/OneDrive/Desktop/GD32VW553/GD32VW55X_Wifi_BLE_SDK/GD32VW55x_RELEASE_V1.0.2/MSDK/lwip/libcoap-4.3.4/src\coap_io_lwip.c ****   (void)upcb;
 137              		.loc 1 152 3
 153:C:/Users/stapi/OneDrive/Desktop/GD32VW553/GD32VW55X_Wifi_BLE_SDK/GD32VW55x_RELEASE_V1.0.2/MSDK/lwip/libcoap-4.3.4/src\coap_io_lwip.c ****   (void)addr;
 138              		.loc 1 153 3
 154:C:/Users/stapi/OneDrive/Desktop/GD32VW553/GD32VW55X_Wifi_BLE_SDK/GD32VW55x_RELEASE_V1.0.2/MSDK/lwip/libcoap-4.3.4/src\coap_io_lwip.c ****   (void)port;
 139              		.loc 1 154 3
 155:C:/Users/stapi/OneDrive/Desktop/GD32VW553/GD32VW55X_Wifi_BLE_SDK/GD32VW55x_RELEASE_V1.0.2/MSDK/lwip/libcoap-4.3.4/src\coap_io_lwip.c **** 
 156:C:/Users/stapi/OneDrive/Desktop/GD32VW553/GD32VW55X_Wifi_BLE_SDK/GD32VW55x_RELEASE_V1.0.2/MSDK/lwip/libcoap-4.3.4/src\coap_io_lwip.c ****   assert(session);
 140              		.loc 1 156 3
 141 0008 1DE1     		bne	a0,zero,.L9
 142              		.loc 1 156 3 is_stmt 0 discriminator 1
 143 000a B7060000 		lui	a3,%hi(.LC0)
 144              	.LVL12:
 145 000e 37060000 		lui	a2,%hi(.LANCHOR0)
 146              	.LVL13:
 147 0012 37050000 		lui	a0,%hi(.LC1)
 148              	.LVL14:
 149 0016 93860600 		addi	a3,a3,%lo(.LC0)
 150 001a 13060600 		addi	a2,a2,%lo(.LANCHOR0)
 151 001e 9305C009 		li	a1,156
 152              	.LVL15:
 153 0022 13050500 		addi	a0,a0,%lo(.LC1)
 154 0026 97000000 		call	__assert_func
 154      E7800000 
 155              	.LVL16:
 156              	.L9:
 157:C:/Users/stapi/OneDrive/Desktop/GD32VW553/GD32VW55X_Wifi_BLE_SDK/GD32VW55x_RELEASE_V1.0.2/MSDK/lwip/libcoap-4.3.4/src\coap_io_lwip.c ****   LWIP_ASSERT("Proto not supported for LWIP", COAP_PROTO_NOT_RELIABLE(session->proto));
 157              		.loc 1 157 3
 158 002e 1C41     		lw	a5,0(a0)
 159 0030 0547     		li	a4,1
 160              	.LVL17:
 161 0032 2A84     		mv	s0,a0
 162              		.loc 1 157 3 is_stmt 1
 163              		.loc 1 157 3
 164 0034 FD17     		addi	a5,a5,-1
 165 0036 6375F702 		bleu	a5,a4,.L10
 166              	.LVL18:
 167              		.loc 1 157 3 discriminator 1
 168              		.loc 1 157 3 discriminator 1
 169 003a B7060000 		lui	a3,%hi(.LC1)
 170              	.LVL19:
 171 003e B7050000 		lui	a1,%hi(.LC2)
 172              	.LVL20:
 173 0042 37050000 		lui	a0,%hi(.LC3)
 174 0046 93860600 		addi	a3,a3,%lo(.LC1)
 175 004a 1306D009 		li	a2,157
 176              	.LVL21:
 177 004e 93850500 		addi	a1,a1,%lo(.LC2)
 178 0052 13050500 		addi	a0,a0,%lo(.LC3)
 179 0056 97000000 		call	printf
 179      E7800000 
 180              	.LVL22:
 181              	.L11:
 182              		.loc 1 157 3 discriminator 1
 183              		.loc 1 157 3 discriminator 1
 184              		.loc 1 157 3 discriminator 1
 185 005e 01A0     		j	.L11
 186              	.LVL23:
 187              	.L10:
 158:C:/Users/stapi/OneDrive/Desktop/GD32VW553/GD32VW55X_Wifi_BLE_SDK/GD32VW55x_RELEASE_V1.0.2/MSDK/lwip/libcoap-4.3.4/src\coap_io_lwip.c **** 
 159:C:/Users/stapi/OneDrive/Desktop/GD32VW553/GD32VW55X_Wifi_BLE_SDK/GD32VW55x_RELEASE_V1.0.2/MSDK/lwip/libcoap-4.3.4/src\coap_io_lwip.c ****   if (p->len < 4) {
 188              		.loc 1 159 6 is_stmt 0 discriminator 2
 189 0060 0357A600 		lhu	a4,10(a2)
 190 0064 8D47     		li	a5,3
 191 0066 3289     		mv	s2,a2
 157:C:/Users/stapi/OneDrive/Desktop/GD32VW553/GD32VW55X_Wifi_BLE_SDK/GD32VW55x_RELEASE_V1.0.2/MSDK/lwip/libcoap-4.3.4/src\coap_io_lwip.c ****   LWIP_ASSERT("Proto not supported for LWIP", COAP_PROTO_NOT_RELIABLE(session->proto));
 192              		.loc 1 157 3 is_stmt 1 discriminator 2
 157:C:/Users/stapi/OneDrive/Desktop/GD32VW553/GD32VW55X_Wifi_BLE_SDK/GD32VW55x_RELEASE_V1.0.2/MSDK/lwip/libcoap-4.3.4/src\coap_io_lwip.c ****   LWIP_ASSERT("Proto not supported for LWIP", COAP_PROTO_NOT_RELIABLE(session->proto));
 193              		.loc 1 157 3 discriminator 2
 194              		.loc 1 159 3 discriminator 2
 195              		.loc 1 159 6 is_stmt 0 discriminator 2
 196 0068 63FCE704 		bleu	a4,a5,.L8
 197              	.LVL24:
 198              	.LBB10:
 199              	.LBB11:
 160:C:/Users/stapi/OneDrive/Desktop/GD32VW553/GD32VW55X_Wifi_BLE_SDK/GD32VW55x_RELEASE_V1.0.2/MSDK/lwip/libcoap-4.3.4/src\coap_io_lwip.c ****     /* Minimum size of CoAP header - ignore runt */
 161:C:/Users/stapi/OneDrive/Desktop/GD32VW553/GD32VW55X_Wifi_BLE_SDK/GD32VW55x_RELEASE_V1.0.2/MSDK/lwip/libcoap-4.3.4/src\coap_io_lwip.c ****     return;
 162:C:/Users/stapi/OneDrive/Desktop/GD32VW553/GD32VW55X_Wifi_BLE_SDK/GD32VW55x_RELEASE_V1.0.2/MSDK/lwip/libcoap-4.3.4/src\coap_io_lwip.c ****   }
 163:C:/Users/stapi/OneDrive/Desktop/GD32VW553/GD32VW55X_Wifi_BLE_SDK/GD32VW55x_RELEASE_V1.0.2/MSDK/lwip/libcoap-4.3.4/src\coap_io_lwip.c **** 
 164:C:/Users/stapi/OneDrive/Desktop/GD32VW553/GD32VW55X_Wifi_BLE_SDK/GD32VW55x_RELEASE_V1.0.2/MSDK/lwip/libcoap-4.3.4/src\coap_io_lwip.c ****   coap_log_debug("*  %s: lwip:  recv %4d bytes\n",
 200              		.loc 1 164 3 is_stmt 1
 201              		.loc 1 164 3
 202 006c 97000000 		call	coap_get_log_level
 202      E7800000 
 203              	.LVL25:
 204 0074 9947     		li	a5,6
 205 0076 63D3A702 		ble	a0,a5,.L13
 206              		.loc 1 164 3
 207 007a 2285     		mv	a0,s0
 208 007c 97000000 		call	coap_session_str
 208      E7800000 
 209              	.LVL26:
 210 0084 8356A900 		lhu	a3,10(s2)
 211 0088 B7050000 		lui	a1,%hi(.LC4)
 212 008c 2A86     		mv	a2,a0
 213 008e 93850500 		addi	a1,a1,%lo(.LC4)
 214 0092 1D45     		li	a0,7
 215 0094 97000000 		call	coap_log_impl
 215      E7800000 
 216              	.LVL27:
 217              	.L13:
 218              		.loc 1 164 3
 165:C:/Users/stapi/OneDrive/Desktop/GD32VW553/GD32VW55X_Wifi_BLE_SDK/GD32VW55x_RELEASE_V1.0.2/MSDK/lwip/libcoap-4.3.4/src\coap_io_lwip.c ****                  coap_session_str(session), p->len);
 166:C:/Users/stapi/OneDrive/Desktop/GD32VW553/GD32VW55X_Wifi_BLE_SDK/GD32VW55x_RELEASE_V1.0.2/MSDK/lwip/libcoap-4.3.4/src\coap_io_lwip.c ****   if (session->proto == COAP_PROTO_DTLS) {
 219              		.loc 1 166 3
 220              		.loc 1 166 6 is_stmt 0
 221 009c 1840     		lw	a4,0(s0)
 222 009e 8947     		li	a5,2
 223 00a0 6318F704 		bne	a4,a5,.L14
 167:C:/Users/stapi/OneDrive/Desktop/GD32VW553/GD32VW55X_Wifi_BLE_SDK/GD32VW55x_RELEASE_V1.0.2/MSDK/lwip/libcoap-4.3.4/src\coap_io_lwip.c ****     if (session->tls) {
 224              		.loc 1 167 5 is_stmt 1
 225              		.loc 1 167 8 is_stmt 0
 226 00a4 8327040B 		lw	a5,176(s0)
 227 00a8 85E3     		bne	a5,zero,.L15
 228              	.L18:
 168:C:/Users/stapi/OneDrive/Desktop/GD32VW553/GD32VW55X_Wifi_BLE_SDK/GD32VW55x_RELEASE_V1.0.2/MSDK/lwip/libcoap-4.3.4/src\coap_io_lwip.c ****       result = coap_dtls_receive(session, p->payload, p->len);
 169:C:/Users/stapi/OneDrive/Desktop/GD32VW553/GD32VW55X_Wifi_BLE_SDK/GD32VW55x_RELEASE_V1.0.2/MSDK/lwip/libcoap-4.3.4/src\coap_io_lwip.c ****       if (result < 0)
 170:C:/Users/stapi/OneDrive/Desktop/GD32VW553/GD32VW55X_Wifi_BLE_SDK/GD32VW55x_RELEASE_V1.0.2/MSDK/lwip/libcoap-4.3.4/src\coap_io_lwip.c ****         goto error;
 171:C:/Users/stapi/OneDrive/Desktop/GD32VW553/GD32VW55X_Wifi_BLE_SDK/GD32VW55x_RELEASE_V1.0.2/MSDK/lwip/libcoap-4.3.4/src\coap_io_lwip.c ****     }
 172:C:/Users/stapi/OneDrive/Desktop/GD32VW553/GD32VW55X_Wifi_BLE_SDK/GD32VW55x_RELEASE_V1.0.2/MSDK/lwip/libcoap-4.3.4/src\coap_io_lwip.c ****     pbuf_free(p);
 229              		.loc 1 172 5 is_stmt 1
 230 00aa 4A85     		mv	a0,s2
 231 00ac 97000000 		call	pbuf_free
 231      E7800000 
 232              	.LVL28:
 149:C:/Users/stapi/OneDrive/Desktop/GD32VW553/GD32VW55X_Wifi_BLE_SDK/GD32VW55x_RELEASE_V1.0.2/MSDK/lwip/libcoap-4.3.4/src\coap_io_lwip.c ****   coap_session_t *session = (coap_session_t *)arg;
 233              		.loc 1 149 15 is_stmt 0
 234 00b4 8144     		li	s1,0
 235              	.L27:
 173:C:/Users/stapi/OneDrive/Desktop/GD32VW553/GD32VW55X_Wifi_BLE_SDK/GD32VW55x_RELEASE_V1.0.2/MSDK/lwip/libcoap-4.3.4/src\coap_io_lwip.c ****   } else {
 174:C:/Users/stapi/OneDrive/Desktop/GD32VW553/GD32VW55X_Wifi_BLE_SDK/GD32VW55x_RELEASE_V1.0.2/MSDK/lwip/libcoap-4.3.4/src\coap_io_lwip.c ****     pdu = coap_pdu_from_pbuf(p);
 175:C:/Users/stapi/OneDrive/Desktop/GD32VW553/GD32VW55X_Wifi_BLE_SDK/GD32VW55x_RELEASE_V1.0.2/MSDK/lwip/libcoap-4.3.4/src\coap_io_lwip.c ****     if (!pdu)
 176:C:/Users/stapi/OneDrive/Desktop/GD32VW553/GD32VW55X_Wifi_BLE_SDK/GD32VW55x_RELEASE_V1.0.2/MSDK/lwip/libcoap-4.3.4/src\coap_io_lwip.c ****       goto error;
 177:C:/Users/stapi/OneDrive/Desktop/GD32VW553/GD32VW55X_Wifi_BLE_SDK/GD32VW55x_RELEASE_V1.0.2/MSDK/lwip/libcoap-4.3.4/src\coap_io_lwip.c **** 
 178:C:/Users/stapi/OneDrive/Desktop/GD32VW553/GD32VW55X_Wifi_BLE_SDK/GD32VW55x_RELEASE_V1.0.2/MSDK/lwip/libcoap-4.3.4/src\coap_io_lwip.c ****     if (!coap_pdu_parse(session->proto, p->payload, p->len, pdu)) {
 179:C:/Users/stapi/OneDrive/Desktop/GD32VW553/GD32VW55X_Wifi_BLE_SDK/GD32VW55x_RELEASE_V1.0.2/MSDK/lwip/libcoap-4.3.4/src\coap_io_lwip.c ****       goto error;
 180:C:/Users/stapi/OneDrive/Desktop/GD32VW553/GD32VW55X_Wifi_BLE_SDK/GD32VW55x_RELEASE_V1.0.2/MSDK/lwip/libcoap-4.3.4/src\coap_io_lwip.c ****     }
 181:C:/Users/stapi/OneDrive/Desktop/GD32VW553/GD32VW55X_Wifi_BLE_SDK/GD32VW55x_RELEASE_V1.0.2/MSDK/lwip/libcoap-4.3.4/src\coap_io_lwip.c ****     coap_dispatch(session->context, session, pdu);
 182:C:/Users/stapi/OneDrive/Desktop/GD32VW553/GD32VW55X_Wifi_BLE_SDK/GD32VW55x_RELEASE_V1.0.2/MSDK/lwip/libcoap-4.3.4/src\coap_io_lwip.c ****   }
 183:C:/Users/stapi/OneDrive/Desktop/GD32VW553/GD32VW55X_Wifi_BLE_SDK/GD32VW55x_RELEASE_V1.0.2/MSDK/lwip/libcoap-4.3.4/src\coap_io_lwip.c ****   coap_delete_pdu(pdu);
 184:C:/Users/stapi/OneDrive/Desktop/GD32VW553/GD32VW55X_Wifi_BLE_SDK/GD32VW55x_RELEASE_V1.0.2/MSDK/lwip/libcoap-4.3.4/src\coap_io_lwip.c ****   return;
 185:C:/Users/stapi/OneDrive/Desktop/GD32VW553/GD32VW55X_Wifi_BLE_SDK/GD32VW55x_RELEASE_V1.0.2/MSDK/lwip/libcoap-4.3.4/src\coap_io_lwip.c **** 
 186:C:/Users/stapi/OneDrive/Desktop/GD32VW553/GD32VW55X_Wifi_BLE_SDK/GD32VW55x_RELEASE_V1.0.2/MSDK/lwip/libcoap-4.3.4/src\coap_io_lwip.c **** error:
 187:C:/Users/stapi/OneDrive/Desktop/GD32VW553/GD32VW55X_Wifi_BLE_SDK/GD32VW55x_RELEASE_V1.0.2/MSDK/lwip/libcoap-4.3.4/src\coap_io_lwip.c ****   /*
 188:C:/Users/stapi/OneDrive/Desktop/GD32VW553/GD32VW55X_Wifi_BLE_SDK/GD32VW55x_RELEASE_V1.0.2/MSDK/lwip/libcoap-4.3.4/src\coap_io_lwip.c ****    * https://rfc-editor.org/rfc/rfc7252#section-4.2 MUST send RST
 189:C:/Users/stapi/OneDrive/Desktop/GD32VW553/GD32VW55X_Wifi_BLE_SDK/GD32VW55x_RELEASE_V1.0.2/MSDK/lwip/libcoap-4.3.4/src\coap_io_lwip.c ****    * https://rfc-editor.org/rfc/rfc7252#section-4.3 MAY send RST
 190:C:/Users/stapi/OneDrive/Desktop/GD32VW553/GD32VW55X_Wifi_BLE_SDK/GD32VW55x_RELEASE_V1.0.2/MSDK/lwip/libcoap-4.3.4/src\coap_io_lwip.c ****    */
 191:C:/Users/stapi/OneDrive/Desktop/GD32VW553/GD32VW55X_Wifi_BLE_SDK/GD32VW55x_RELEASE_V1.0.2/MSDK/lwip/libcoap-4.3.4/src\coap_io_lwip.c ****   if (session)
 192:C:/Users/stapi/OneDrive/Desktop/GD32VW553/GD32VW55X_Wifi_BLE_SDK/GD32VW55x_RELEASE_V1.0.2/MSDK/lwip/libcoap-4.3.4/src\coap_io_lwip.c ****     coap_send_rst(session, pdu);
 193:C:/Users/stapi/OneDrive/Desktop/GD32VW553/GD32VW55X_Wifi_BLE_SDK/GD32VW55x_RELEASE_V1.0.2/MSDK/lwip/libcoap-4.3.4/src\coap_io_lwip.c ****   coap_delete_pdu(pdu);
 236              		.loc 1 193 3 is_stmt 1
 237 00b6 2685     		mv	a0,s1
 238 00b8 97000000 		call	coap_delete_pdu
 238      E7800000 
 239              	.LVL29:
 194:C:/Users/stapi/OneDrive/Desktop/GD32VW553/GD32VW55X_Wifi_BLE_SDK/GD32VW55x_RELEASE_V1.0.2/MSDK/lwip/libcoap-4.3.4/src\coap_io_lwip.c ****   return;
 240              		.loc 1 194 3
 241              	.L8:
 242              	.LBE11:
 243              	.LBE10:
 195:C:/Users/stapi/OneDrive/Desktop/GD32VW553/GD32VW55X_Wifi_BLE_SDK/GD32VW55x_RELEASE_V1.0.2/MSDK/lwip/libcoap-4.3.4/src\coap_io_lwip.c **** }
 244              		.loc 1 195 1 is_stmt 0
 245 00c0 17030000 		tail	__riscv_restore_3
 245      67000300 
 246              		.cfi_remember_state
 247              		.cfi_restore 18
 248              		.cfi_restore 9
 249              		.cfi_restore 8
 250              		.cfi_restore 1
 251              		.cfi_def_cfa_offset 0
 252              	.LVL30:
 253              	.L15:
 254              		.cfi_restore_state
 255              	.LBB15:
 256              	.LBB14:
 168:C:/Users/stapi/OneDrive/Desktop/GD32VW553/GD32VW55X_Wifi_BLE_SDK/GD32VW55x_RELEASE_V1.0.2/MSDK/lwip/libcoap-4.3.4/src\coap_io_lwip.c ****       if (result < 0)
 257              		.loc 1 168 7 is_stmt 1
 168:C:/Users/stapi/OneDrive/Desktop/GD32VW553/GD32VW55X_Wifi_BLE_SDK/GD32VW55x_RELEASE_V1.0.2/MSDK/lwip/libcoap-4.3.4/src\coap_io_lwip.c ****       if (result < 0)
 258              		.loc 1 168 16 is_stmt 0
 259 00c8 0356A900 		lhu	a2,10(s2)
 260 00cc 83254900 		lw	a1,4(s2)
 261 00d0 2285     		mv	a0,s0
 262 00d2 97000000 		call	coap_dtls_receive
 262      E7800000 
 263              	.LVL31:
 169:C:/Users/stapi/OneDrive/Desktop/GD32VW553/GD32VW55X_Wifi_BLE_SDK/GD32VW55x_RELEASE_V1.0.2/MSDK/lwip/libcoap-4.3.4/src\coap_io_lwip.c ****         goto error;
 264              		.loc 1 169 7 is_stmt 1
 169:C:/Users/stapi/OneDrive/Desktop/GD32VW553/GD32VW55X_Wifi_BLE_SDK/GD32VW55x_RELEASE_V1.0.2/MSDK/lwip/libcoap-4.3.4/src\coap_io_lwip.c ****         goto error;
 265              		.loc 1 169 10 is_stmt 0
 266 00da E35805FC 		bge	a0,zero,.L18
 267              	.LVL32:
 268              	.L17:
 149:C:/Users/stapi/OneDrive/Desktop/GD32VW553/GD32VW55X_Wifi_BLE_SDK/GD32VW55x_RELEASE_V1.0.2/MSDK/lwip/libcoap-4.3.4/src\coap_io_lwip.c ****   coap_session_t *session = (coap_session_t *)arg;
 269              		.loc 1 149 15
 270 00de 8144     		li	s1,0
 271              	.L19:
 272              	.LVL33:
 191:C:/Users/stapi/OneDrive/Desktop/GD32VW553/GD32VW55X_Wifi_BLE_SDK/GD32VW55x_RELEASE_V1.0.2/MSDK/lwip/libcoap-4.3.4/src\coap_io_lwip.c ****     coap_send_rst(session, pdu);
 273              		.loc 1 191 3 is_stmt 1
 192:C:/Users/stapi/OneDrive/Desktop/GD32VW553/GD32VW55X_Wifi_BLE_SDK/GD32VW55x_RELEASE_V1.0.2/MSDK/lwip/libcoap-4.3.4/src\coap_io_lwip.c ****   coap_delete_pdu(pdu);
 274              		.loc 1 192 5
 275              	.LBB12:
 276              	.LBB13:
 277              		.file 3 "..\\..\\..\\..\\lwip\\libcoap-4.3.4\\include/coap3/coap_net.h"
   1:..\..\..\..\lwip\libcoap-4.3.4\include/coap3/coap_net.h **** /*
   2:..\..\..\..\lwip\libcoap-4.3.4\include/coap3/coap_net.h ****  * coap_net.h -- CoAP context interface
   3:..\..\..\..\lwip\libcoap-4.3.4\include/coap3/coap_net.h ****  *
   4:..\..\..\..\lwip\libcoap-4.3.4\include/coap3/coap_net.h ****  * Copyright (C) 2010-2023 Olaf Bergmann <bergmann@tzi.org>
   5:..\..\..\..\lwip\libcoap-4.3.4\include/coap3/coap_net.h ****  * Copyright (c) 2024, GigaDevice Semiconductor Inc.
   6:..\..\..\..\lwip\libcoap-4.3.4\include/coap3/coap_net.h ****  *
   7:..\..\..\..\lwip\libcoap-4.3.4\include/coap3/coap_net.h ****  * SPDX-License-Identifier: BSD-2-Clause
   8:..\..\..\..\lwip\libcoap-4.3.4\include/coap3/coap_net.h ****  *
   9:..\..\..\..\lwip\libcoap-4.3.4\include/coap3/coap_net.h ****  * This file is part of the CoAP library libcoap. Please see README for terms
  10:..\..\..\..\lwip\libcoap-4.3.4\include/coap3/coap_net.h ****  * of use.
  11:..\..\..\..\lwip\libcoap-4.3.4\include/coap3/coap_net.h ****  */
  12:..\..\..\..\lwip\libcoap-4.3.4\include/coap3/coap_net.h **** 
  13:..\..\..\..\lwip\libcoap-4.3.4\include/coap3/coap_net.h **** /**
  14:..\..\..\..\lwip\libcoap-4.3.4\include/coap3/coap_net.h ****  * @file coap_net.h
  15:..\..\..\..\lwip\libcoap-4.3.4\include/coap3/coap_net.h ****  * @brief CoAP context interface
  16:..\..\..\..\lwip\libcoap-4.3.4\include/coap3/coap_net.h ****  */
  17:..\..\..\..\lwip\libcoap-4.3.4\include/coap3/coap_net.h **** 
  18:..\..\..\..\lwip\libcoap-4.3.4\include/coap3/coap_net.h **** #ifndef COAP_NET_H_
  19:..\..\..\..\lwip\libcoap-4.3.4\include/coap3/coap_net.h **** #define COAP_NET_H_
  20:..\..\..\..\lwip\libcoap-4.3.4\include/coap3/coap_net.h **** 
  21:..\..\..\..\lwip\libcoap-4.3.4\include/coap3/coap_net.h **** #include <stdlib.h>
  22:..\..\..\..\lwip\libcoap-4.3.4\include/coap3/coap_net.h **** #include <string.h>
  23:..\..\..\..\lwip\libcoap-4.3.4\include/coap3/coap_net.h **** #ifndef _WIN32
  24:..\..\..\..\lwip\libcoap-4.3.4\include/coap3/coap_net.h **** // #include <sys/select.h>
  25:..\..\..\..\lwip\libcoap-4.3.4\include/coap3/coap_net.h **** // #include <sys/time.h>
  26:..\..\..\..\lwip\libcoap-4.3.4\include/coap3/coap_net.h **** #include "lwip/sockets.h"
  27:..\..\..\..\lwip\libcoap-4.3.4\include/coap3/coap_net.h **** #endif
  28:..\..\..\..\lwip\libcoap-4.3.4\include/coap3/coap_net.h **** #include <time.h>
  29:..\..\..\..\lwip\libcoap-4.3.4\include/coap3/coap_net.h **** 
  30:..\..\..\..\lwip\libcoap-4.3.4\include/coap3/coap_net.h **** #ifdef WITH_LWIP
  31:..\..\..\..\lwip\libcoap-4.3.4\include/coap3/coap_net.h **** #include <lwip/ip_addr.h>
  32:..\..\..\..\lwip\libcoap-4.3.4\include/coap3/coap_net.h **** #endif
  33:..\..\..\..\lwip\libcoap-4.3.4\include/coap3/coap_net.h **** 
  34:..\..\..\..\lwip\libcoap-4.3.4\include/coap3/coap_net.h **** #include "coap_io.h"
  35:..\..\..\..\lwip\libcoap-4.3.4\include/coap3/coap_net.h **** #include "coap_dtls.h"
  36:..\..\..\..\lwip\libcoap-4.3.4\include/coap3/coap_net.h **** #include "coap_event.h"
  37:..\..\..\..\lwip\libcoap-4.3.4\include/coap3/coap_net.h **** #include "coap_pdu.h"
  38:..\..\..\..\lwip\libcoap-4.3.4\include/coap3/coap_net.h **** #include "coap_session.h"
  39:..\..\..\..\lwip\libcoap-4.3.4\include/coap3/coap_net.h **** #include "coap_debug.h"
  40:..\..\..\..\lwip\libcoap-4.3.4\include/coap3/coap_net.h **** 
  41:..\..\..\..\lwip\libcoap-4.3.4\include/coap3/coap_net.h **** /**
  42:..\..\..\..\lwip\libcoap-4.3.4\include/coap3/coap_net.h ****  * @ingroup application_api
  43:..\..\..\..\lwip\libcoap-4.3.4\include/coap3/coap_net.h ****  * @defgroup context Context Handling
  44:..\..\..\..\lwip\libcoap-4.3.4\include/coap3/coap_net.h ****  * API for handling PDUs using CoAP Contexts
  45:..\..\..\..\lwip\libcoap-4.3.4\include/coap3/coap_net.h ****  * @{
  46:..\..\..\..\lwip\libcoap-4.3.4\include/coap3/coap_net.h ****  */
  47:..\..\..\..\lwip\libcoap-4.3.4\include/coap3/coap_net.h **** 
  48:..\..\..\..\lwip\libcoap-4.3.4\include/coap3/coap_net.h **** typedef enum coap_response_t {
  49:..\..\..\..\lwip\libcoap-4.3.4\include/coap3/coap_net.h ****   COAP_RESPONSE_FAIL, /**< Response not liked - send CoAP RST packet */
  50:..\..\..\..\lwip\libcoap-4.3.4\include/coap3/coap_net.h ****   COAP_RESPONSE_OK    /**< Response is fine */
  51:..\..\..\..\lwip\libcoap-4.3.4\include/coap3/coap_net.h **** } coap_response_t;
  52:..\..\..\..\lwip\libcoap-4.3.4\include/coap3/coap_net.h **** 
  53:..\..\..\..\lwip\libcoap-4.3.4\include/coap3/coap_net.h **** /**
  54:..\..\..\..\lwip\libcoap-4.3.4\include/coap3/coap_net.h ****  * Response handler that is used as callback in coap_context_t.
  55:..\..\..\..\lwip\libcoap-4.3.4\include/coap3/coap_net.h ****  *
  56:..\..\..\..\lwip\libcoap-4.3.4\include/coap3/coap_net.h ****  * @param session CoAP session.
  57:..\..\..\..\lwip\libcoap-4.3.4\include/coap3/coap_net.h ****  * @param sent The PDU that was transmitted.
  58:..\..\..\..\lwip\libcoap-4.3.4\include/coap3/coap_net.h ****  * @param received The PDU that was received.
  59:..\..\..\..\lwip\libcoap-4.3.4\include/coap3/coap_net.h ****  * @param mid CoAP transaction ID.
  60:..\..\..\..\lwip\libcoap-4.3.4\include/coap3/coap_net.h **** 
  61:..\..\..\..\lwip\libcoap-4.3.4\include/coap3/coap_net.h ****  * @return @c COAP_RESPONSE_OK if successful, else @c COAP_RESPONSE_FAIL which
  62:..\..\..\..\lwip\libcoap-4.3.4\include/coap3/coap_net.h ****  *         triggers sending a RST packet.
  63:..\..\..\..\lwip\libcoap-4.3.4\include/coap3/coap_net.h ****  */
  64:..\..\..\..\lwip\libcoap-4.3.4\include/coap3/coap_net.h **** typedef coap_response_t (*coap_response_handler_t)(coap_session_t *session,
  65:..\..\..\..\lwip\libcoap-4.3.4\include/coap3/coap_net.h ****                                                    const coap_pdu_t *sent,
  66:..\..\..\..\lwip\libcoap-4.3.4\include/coap3/coap_net.h ****                                                    const coap_pdu_t *received,
  67:..\..\..\..\lwip\libcoap-4.3.4\include/coap3/coap_net.h ****                                                    const coap_mid_t mid);
  68:..\..\..\..\lwip\libcoap-4.3.4\include/coap3/coap_net.h **** 
  69:..\..\..\..\lwip\libcoap-4.3.4\include/coap3/coap_net.h **** /**
  70:..\..\..\..\lwip\libcoap-4.3.4\include/coap3/coap_net.h ****  * Negative Acknowedge handler that is used as callback in coap_context_t.
  71:..\..\..\..\lwip\libcoap-4.3.4\include/coap3/coap_net.h ****  *
  72:..\..\..\..\lwip\libcoap-4.3.4\include/coap3/coap_net.h ****  * @param session CoAP session.
  73:..\..\..\..\lwip\libcoap-4.3.4\include/coap3/coap_net.h ****  * @param sent The PDU that was transmitted.
  74:..\..\..\..\lwip\libcoap-4.3.4\include/coap3/coap_net.h ****  * @param reason The reason for the NACK.
  75:..\..\..\..\lwip\libcoap-4.3.4\include/coap3/coap_net.h ****  * @param mid CoAP message ID.
  76:..\..\..\..\lwip\libcoap-4.3.4\include/coap3/coap_net.h ****  */
  77:..\..\..\..\lwip\libcoap-4.3.4\include/coap3/coap_net.h **** typedef void (*coap_nack_handler_t)(coap_session_t *session,
  78:..\..\..\..\lwip\libcoap-4.3.4\include/coap3/coap_net.h ****                                     const coap_pdu_t *sent,
  79:..\..\..\..\lwip\libcoap-4.3.4\include/coap3/coap_net.h ****                                     const coap_nack_reason_t reason,
  80:..\..\..\..\lwip\libcoap-4.3.4\include/coap3/coap_net.h ****                                     const coap_mid_t mid);
  81:..\..\..\..\lwip\libcoap-4.3.4\include/coap3/coap_net.h **** 
  82:..\..\..\..\lwip\libcoap-4.3.4\include/coap3/coap_net.h **** /**
  83:..\..\..\..\lwip\libcoap-4.3.4\include/coap3/coap_net.h ****  * Received Ping handler that is used as callback in coap_context_t.
  84:..\..\..\..\lwip\libcoap-4.3.4\include/coap3/coap_net.h ****  *
  85:..\..\..\..\lwip\libcoap-4.3.4\include/coap3/coap_net.h ****  * @param session CoAP session.
  86:..\..\..\..\lwip\libcoap-4.3.4\include/coap3/coap_net.h ****  * @param received The PDU that was received.
  87:..\..\..\..\lwip\libcoap-4.3.4\include/coap3/coap_net.h ****  * @param mid CoAP message ID.
  88:..\..\..\..\lwip\libcoap-4.3.4\include/coap3/coap_net.h ****  */
  89:..\..\..\..\lwip\libcoap-4.3.4\include/coap3/coap_net.h **** typedef void (*coap_ping_handler_t)(coap_session_t *session,
  90:..\..\..\..\lwip\libcoap-4.3.4\include/coap3/coap_net.h ****                                     const coap_pdu_t *received,
  91:..\..\..\..\lwip\libcoap-4.3.4\include/coap3/coap_net.h ****                                     const coap_mid_t mid);
  92:..\..\..\..\lwip\libcoap-4.3.4\include/coap3/coap_net.h **** 
  93:..\..\..\..\lwip\libcoap-4.3.4\include/coap3/coap_net.h **** /**
  94:..\..\..\..\lwip\libcoap-4.3.4\include/coap3/coap_net.h ****  * Received Pong handler that is used as callback in coap_context_t.
  95:..\..\..\..\lwip\libcoap-4.3.4\include/coap3/coap_net.h ****  *
  96:..\..\..\..\lwip\libcoap-4.3.4\include/coap3/coap_net.h ****  * @param session CoAP session.
  97:..\..\..\..\lwip\libcoap-4.3.4\include/coap3/coap_net.h ****  * @param received The PDU that was received.
  98:..\..\..\..\lwip\libcoap-4.3.4\include/coap3/coap_net.h ****  * @param mid CoAP message ID.
  99:..\..\..\..\lwip\libcoap-4.3.4\include/coap3/coap_net.h ****  */
 100:..\..\..\..\lwip\libcoap-4.3.4\include/coap3/coap_net.h **** typedef void (*coap_pong_handler_t)(coap_session_t *session,
 101:..\..\..\..\lwip\libcoap-4.3.4\include/coap3/coap_net.h ****                                     const coap_pdu_t *received,
 102:..\..\..\..\lwip\libcoap-4.3.4\include/coap3/coap_net.h ****                                     const coap_mid_t mid);
 103:..\..\..\..\lwip\libcoap-4.3.4\include/coap3/coap_net.h **** 
 104:..\..\..\..\lwip\libcoap-4.3.4\include/coap3/coap_net.h **** /**
 105:..\..\..\..\lwip\libcoap-4.3.4\include/coap3/coap_net.h ****  * Registers a new message handler that is called whenever a response is
 106:..\..\..\..\lwip\libcoap-4.3.4\include/coap3/coap_net.h ****  * received.
 107:..\..\..\..\lwip\libcoap-4.3.4\include/coap3/coap_net.h ****  *
 108:..\..\..\..\lwip\libcoap-4.3.4\include/coap3/coap_net.h ****  * @param context The context to register the handler for.
 109:..\..\..\..\lwip\libcoap-4.3.4\include/coap3/coap_net.h ****  * @param handler The response handler to register.
 110:..\..\..\..\lwip\libcoap-4.3.4\include/coap3/coap_net.h ****  */
 111:..\..\..\..\lwip\libcoap-4.3.4\include/coap3/coap_net.h **** void coap_register_response_handler(coap_context_t *context,
 112:..\..\..\..\lwip\libcoap-4.3.4\include/coap3/coap_net.h ****                                     coap_response_handler_t handler);
 113:..\..\..\..\lwip\libcoap-4.3.4\include/coap3/coap_net.h **** 
 114:..\..\..\..\lwip\libcoap-4.3.4\include/coap3/coap_net.h **** /**
 115:..\..\..\..\lwip\libcoap-4.3.4\include/coap3/coap_net.h ****  * Registers a new message handler that is called whenever a confirmable
 116:..\..\..\..\lwip\libcoap-4.3.4\include/coap3/coap_net.h ****  * message (request or response) is dropped after all retries have been
 117:..\..\..\..\lwip\libcoap-4.3.4\include/coap3/coap_net.h ****  * exhausted, or a rst message was received, or a network or TLS level
 118:..\..\..\..\lwip\libcoap-4.3.4\include/coap3/coap_net.h ****  * event was received that indicates delivering the message is not possible.
 119:..\..\..\..\lwip\libcoap-4.3.4\include/coap3/coap_net.h ****  *
 120:..\..\..\..\lwip\libcoap-4.3.4\include/coap3/coap_net.h ****  * @param context The context to register the handler for.
 121:..\..\..\..\lwip\libcoap-4.3.4\include/coap3/coap_net.h ****  * @param handler The nack handler to register.
 122:..\..\..\..\lwip\libcoap-4.3.4\include/coap3/coap_net.h ****  */
 123:..\..\..\..\lwip\libcoap-4.3.4\include/coap3/coap_net.h **** void coap_register_nack_handler(coap_context_t *context,
 124:..\..\..\..\lwip\libcoap-4.3.4\include/coap3/coap_net.h ****                                 coap_nack_handler_t handler);
 125:..\..\..\..\lwip\libcoap-4.3.4\include/coap3/coap_net.h **** 
 126:..\..\..\..\lwip\libcoap-4.3.4\include/coap3/coap_net.h **** /**
 127:..\..\..\..\lwip\libcoap-4.3.4\include/coap3/coap_net.h ****  * Registers a new message handler that is called whenever a CoAP Ping
 128:..\..\..\..\lwip\libcoap-4.3.4\include/coap3/coap_net.h ****  * message is received.
 129:..\..\..\..\lwip\libcoap-4.3.4\include/coap3/coap_net.h ****  *
 130:..\..\..\..\lwip\libcoap-4.3.4\include/coap3/coap_net.h ****  * @param context The context to register the handler for.
 131:..\..\..\..\lwip\libcoap-4.3.4\include/coap3/coap_net.h ****  * @param handler The ping handler to register.
 132:..\..\..\..\lwip\libcoap-4.3.4\include/coap3/coap_net.h ****  */
 133:..\..\..\..\lwip\libcoap-4.3.4\include/coap3/coap_net.h **** void coap_register_ping_handler(coap_context_t *context,
 134:..\..\..\..\lwip\libcoap-4.3.4\include/coap3/coap_net.h ****                                 coap_ping_handler_t handler);
 135:..\..\..\..\lwip\libcoap-4.3.4\include/coap3/coap_net.h **** 
 136:..\..\..\..\lwip\libcoap-4.3.4\include/coap3/coap_net.h **** /**
 137:..\..\..\..\lwip\libcoap-4.3.4\include/coap3/coap_net.h ****  * Registers a new message handler that is called whenever a CoAP Pong
 138:..\..\..\..\lwip\libcoap-4.3.4\include/coap3/coap_net.h ****  * message is received.
 139:..\..\..\..\lwip\libcoap-4.3.4\include/coap3/coap_net.h ****  *
 140:..\..\..\..\lwip\libcoap-4.3.4\include/coap3/coap_net.h ****  * @param context The context to register the handler for.
 141:..\..\..\..\lwip\libcoap-4.3.4\include/coap3/coap_net.h ****  * @param handler The pong handler to register.
 142:..\..\..\..\lwip\libcoap-4.3.4\include/coap3/coap_net.h ****  */
 143:..\..\..\..\lwip\libcoap-4.3.4\include/coap3/coap_net.h **** void coap_register_pong_handler(coap_context_t *context,
 144:..\..\..\..\lwip\libcoap-4.3.4\include/coap3/coap_net.h ****                                 coap_pong_handler_t handler);
 145:..\..\..\..\lwip\libcoap-4.3.4\include/coap3/coap_net.h **** 
 146:..\..\..\..\lwip\libcoap-4.3.4\include/coap3/coap_net.h **** /**
 147:..\..\..\..\lwip\libcoap-4.3.4\include/coap3/coap_net.h ****  * Registers the option type @p type with the given context object @p ctx.
 148:..\..\..\..\lwip\libcoap-4.3.4\include/coap3/coap_net.h ****  *
 149:..\..\..\..\lwip\libcoap-4.3.4\include/coap3/coap_net.h ****  * @param ctx  The context to use.
 150:..\..\..\..\lwip\libcoap-4.3.4\include/coap3/coap_net.h ****  * @param type The option type to register.
 151:..\..\..\..\lwip\libcoap-4.3.4\include/coap3/coap_net.h ****  */
 152:..\..\..\..\lwip\libcoap-4.3.4\include/coap3/coap_net.h **** void coap_register_option(coap_context_t *ctx, uint16_t type);
 153:..\..\..\..\lwip\libcoap-4.3.4\include/coap3/coap_net.h **** 
 154:..\..\..\..\lwip\libcoap-4.3.4\include/coap3/coap_net.h **** /**
 155:..\..\..\..\lwip\libcoap-4.3.4\include/coap3/coap_net.h ****  * Creates a new coap_context_t object that will hold the CoAP stack status.
 156:..\..\..\..\lwip\libcoap-4.3.4\include/coap3/coap_net.h ****  */
 157:..\..\..\..\lwip\libcoap-4.3.4\include/coap3/coap_net.h **** coap_context_t *coap_new_context(const coap_address_t *listen_addr);
 158:..\..\..\..\lwip\libcoap-4.3.4\include/coap3/coap_net.h **** 
 159:..\..\..\..\lwip\libcoap-4.3.4\include/coap3/coap_net.h **** /**
 160:..\..\..\..\lwip\libcoap-4.3.4\include/coap3/coap_net.h ****  * Set the context's default PSK hint and/or key for a server.
 161:..\..\..\..\lwip\libcoap-4.3.4\include/coap3/coap_net.h ****  *
 162:..\..\..\..\lwip\libcoap-4.3.4\include/coap3/coap_net.h ****  * @deprecated Use coap_context_set_psk2() instead.
 163:..\..\..\..\lwip\libcoap-4.3.4\include/coap3/coap_net.h ****  *
 164:..\..\..\..\lwip\libcoap-4.3.4\include/coap3/coap_net.h ****  * @param context The current coap_context_t object.
 165:..\..\..\..\lwip\libcoap-4.3.4\include/coap3/coap_net.h ****  * @param hint    The default PSK server hint sent to a client. If NULL, PSK
 166:..\..\..\..\lwip\libcoap-4.3.4\include/coap3/coap_net.h ****  *                authentication is disabled. Empty string is a valid hint.
 167:..\..\..\..\lwip\libcoap-4.3.4\include/coap3/coap_net.h ****  * @param key     The default PSK key. If NULL, PSK authentication will fail.
 168:..\..\..\..\lwip\libcoap-4.3.4\include/coap3/coap_net.h ****  * @param key_len The default PSK key's length. If @p 0, PSK authentication will
 169:..\..\..\..\lwip\libcoap-4.3.4\include/coap3/coap_net.h ****  *                fail.
 170:..\..\..\..\lwip\libcoap-4.3.4\include/coap3/coap_net.h ****  *
 171:..\..\..\..\lwip\libcoap-4.3.4\include/coap3/coap_net.h ****  * @return @c 1 if successful, else @c 0.
 172:..\..\..\..\lwip\libcoap-4.3.4\include/coap3/coap_net.h ****  */
 173:..\..\..\..\lwip\libcoap-4.3.4\include/coap3/coap_net.h **** int coap_context_set_psk(coap_context_t *context, const char *hint,
 174:..\..\..\..\lwip\libcoap-4.3.4\include/coap3/coap_net.h ****                          const uint8_t *key, size_t key_len);
 175:..\..\..\..\lwip\libcoap-4.3.4\include/coap3/coap_net.h **** 
 176:..\..\..\..\lwip\libcoap-4.3.4\include/coap3/coap_net.h **** /**
 177:..\..\..\..\lwip\libcoap-4.3.4\include/coap3/coap_net.h ****  * Set the context's default PSK hint and/or key for a server.
 178:..\..\..\..\lwip\libcoap-4.3.4\include/coap3/coap_net.h ****  *
 179:..\..\..\..\lwip\libcoap-4.3.4\include/coap3/coap_net.h ****  * @param context    The current coap_context_t object.
 180:..\..\..\..\lwip\libcoap-4.3.4\include/coap3/coap_net.h ****  * @param setup_data If NULL, PSK authentication will fail. PSK
 181:..\..\..\..\lwip\libcoap-4.3.4\include/coap3/coap_net.h ****  *                   information required.
 182:..\..\..\..\lwip\libcoap-4.3.4\include/coap3/coap_net.h ****  *
 183:..\..\..\..\lwip\libcoap-4.3.4\include/coap3/coap_net.h ****  * @return @c 1 if successful, else @c 0.
 184:..\..\..\..\lwip\libcoap-4.3.4\include/coap3/coap_net.h ****  */
 185:..\..\..\..\lwip\libcoap-4.3.4\include/coap3/coap_net.h **** int coap_context_set_psk2(coap_context_t *context,
 186:..\..\..\..\lwip\libcoap-4.3.4\include/coap3/coap_net.h ****                           coap_dtls_spsk_t *setup_data);
 187:..\..\..\..\lwip\libcoap-4.3.4\include/coap3/coap_net.h **** 
 188:..\..\..\..\lwip\libcoap-4.3.4\include/coap3/coap_net.h **** /**
 189:..\..\..\..\lwip\libcoap-4.3.4\include/coap3/coap_net.h ****  * Set the context's default PKI information for a server.
 190:..\..\..\..\lwip\libcoap-4.3.4\include/coap3/coap_net.h ****  *
 191:..\..\..\..\lwip\libcoap-4.3.4\include/coap3/coap_net.h ****  * @param context        The current coap_context_t object.
 192:..\..\..\..\lwip\libcoap-4.3.4\include/coap3/coap_net.h ****  * @param setup_data     If NULL, PKI authentication will fail. Certificate
 193:..\..\..\..\lwip\libcoap-4.3.4\include/coap3/coap_net.h ****  *                       information required.
 194:..\..\..\..\lwip\libcoap-4.3.4\include/coap3/coap_net.h ****  *
 195:..\..\..\..\lwip\libcoap-4.3.4\include/coap3/coap_net.h ****  * @return @c 1 if successful, else @c 0.
 196:..\..\..\..\lwip\libcoap-4.3.4\include/coap3/coap_net.h ****  */
 197:..\..\..\..\lwip\libcoap-4.3.4\include/coap3/coap_net.h **** int coap_context_set_pki(coap_context_t *context,
 198:..\..\..\..\lwip\libcoap-4.3.4\include/coap3/coap_net.h ****                          const coap_dtls_pki_t *setup_data);
 199:..\..\..\..\lwip\libcoap-4.3.4\include/coap3/coap_net.h **** 
 200:..\..\..\..\lwip\libcoap-4.3.4\include/coap3/coap_net.h **** /**
 201:..\..\..\..\lwip\libcoap-4.3.4\include/coap3/coap_net.h ****  * Set the context's default Root CA information for a client or server.
 202:..\..\..\..\lwip\libcoap-4.3.4\include/coap3/coap_net.h ****  *
 203:..\..\..\..\lwip\libcoap-4.3.4\include/coap3/coap_net.h ****  * @param context        The current coap_context_t object.
 204:..\..\..\..\lwip\libcoap-4.3.4\include/coap3/coap_net.h ****  * @param ca_file        If not NULL, is the full path name of a PEM encoded
 205:..\..\..\..\lwip\libcoap-4.3.4\include/coap3/coap_net.h ****  *                       file containing all the Root CAs to be used.
 206:..\..\..\..\lwip\libcoap-4.3.4\include/coap3/coap_net.h ****  * @param ca_dir         If not NULL, points to a directory containing PEM
 207:..\..\..\..\lwip\libcoap-4.3.4\include/coap3/coap_net.h ****  *                       encoded files containing all the Root CAs to be used.
 208:..\..\..\..\lwip\libcoap-4.3.4\include/coap3/coap_net.h ****  *
 209:..\..\..\..\lwip\libcoap-4.3.4\include/coap3/coap_net.h ****  * @return @c 1 if successful, else @c 0.
 210:..\..\..\..\lwip\libcoap-4.3.4\include/coap3/coap_net.h ****  */
 211:..\..\..\..\lwip\libcoap-4.3.4\include/coap3/coap_net.h **** int coap_context_set_pki_root_cas(coap_context_t *context,
 212:..\..\..\..\lwip\libcoap-4.3.4\include/coap3/coap_net.h ****                                   const char *ca_file,
 213:..\..\..\..\lwip\libcoap-4.3.4\include/coap3/coap_net.h ****                                   const char *ca_dir);
 214:..\..\..\..\lwip\libcoap-4.3.4\include/coap3/coap_net.h **** 
 215:..\..\..\..\lwip\libcoap-4.3.4\include/coap3/coap_net.h **** /**
 216:..\..\..\..\lwip\libcoap-4.3.4\include/coap3/coap_net.h ****  * Set the context keepalive timer for sessions.
 217:..\..\..\..\lwip\libcoap-4.3.4\include/coap3/coap_net.h ****  * A keepalive message will be sent after if a session has been inactive,
 218:..\..\..\..\lwip\libcoap-4.3.4\include/coap3/coap_net.h ****  * i.e. no packet sent or received, for the given number of seconds.
 219:..\..\..\..\lwip\libcoap-4.3.4\include/coap3/coap_net.h ****  * For unreliable protocols, a CoAP Empty message will be sent. If a
 220:..\..\..\..\lwip\libcoap-4.3.4\include/coap3/coap_net.h ****  * CoAP RST is not received, the CoAP Empty messages will get resent based
 221:..\..\..\..\lwip\libcoap-4.3.4\include/coap3/coap_net.h ****  * on the Confirmable retry parameters until there is a failure timeout,
 222:..\..\..\..\lwip\libcoap-4.3.4\include/coap3/coap_net.h ****  * at which point the session will be considered as disconnected.
 223:..\..\..\..\lwip\libcoap-4.3.4\include/coap3/coap_net.h ****  * For reliable protocols, a CoAP PING message will be sent. If a CoAP PONG
 224:..\..\..\..\lwip\libcoap-4.3.4\include/coap3/coap_net.h ****  * has not been received before the next PING is due to be sent, the session
 225:..\..\..\..\lwip\libcoap-4.3.4\include/coap3/coap_net.h ****  * will be considered as disconnected.
 226:..\..\..\..\lwip\libcoap-4.3.4\include/coap3/coap_net.h ****  *
 227:..\..\..\..\lwip\libcoap-4.3.4\include/coap3/coap_net.h ****  * @param context        The coap_context_t object.
 228:..\..\..\..\lwip\libcoap-4.3.4\include/coap3/coap_net.h ****  * @param seconds        Number of seconds for the inactivity timer, or zero
 229:..\..\..\..\lwip\libcoap-4.3.4\include/coap3/coap_net.h ****  *                       to disable CoAP-level keepalive messages.
 230:..\..\..\..\lwip\libcoap-4.3.4\include/coap3/coap_net.h ****  */
 231:..\..\..\..\lwip\libcoap-4.3.4\include/coap3/coap_net.h **** void coap_context_set_keepalive(coap_context_t *context, unsigned int seconds);
 232:..\..\..\..\lwip\libcoap-4.3.4\include/coap3/coap_net.h **** 
 233:..\..\..\..\lwip\libcoap-4.3.4\include/coap3/coap_net.h **** /**
 234:..\..\..\..\lwip\libcoap-4.3.4\include/coap3/coap_net.h ****  * Set the maximum token size (RFC8974).
 235:..\..\..\..\lwip\libcoap-4.3.4\include/coap3/coap_net.h ****  *
 236:..\..\..\..\lwip\libcoap-4.3.4\include/coap3/coap_net.h ****  * @param context        The coap_context_t object.
 237:..\..\..\..\lwip\libcoap-4.3.4\include/coap3/coap_net.h ****  * @param max_token_size The maximum token size.  A value between 8 and 65804
 238:..\..\..\..\lwip\libcoap-4.3.4\include/coap3/coap_net.h ****  *                       inclusive.
 239:..\..\..\..\lwip\libcoap-4.3.4\include/coap3/coap_net.h ****  */
 240:..\..\..\..\lwip\libcoap-4.3.4\include/coap3/coap_net.h **** void coap_context_set_max_token_size(coap_context_t *context,
 241:..\..\..\..\lwip\libcoap-4.3.4\include/coap3/coap_net.h ****                                      size_t max_token_size);
 242:..\..\..\..\lwip\libcoap-4.3.4\include/coap3/coap_net.h **** 
 243:..\..\..\..\lwip\libcoap-4.3.4\include/coap3/coap_net.h **** /**
 244:..\..\..\..\lwip\libcoap-4.3.4\include/coap3/coap_net.h ****  * Get the libcoap internal file descriptor for using in an application's
 245:..\..\..\..\lwip\libcoap-4.3.4\include/coap3/coap_net.h ****  * select() or returned as an event in an application's epoll_wait() call.
 246:..\..\..\..\lwip\libcoap-4.3.4\include/coap3/coap_net.h ****  *
 247:..\..\..\..\lwip\libcoap-4.3.4\include/coap3/coap_net.h ****  * @param context        The coap_context_t object.
 248:..\..\..\..\lwip\libcoap-4.3.4\include/coap3/coap_net.h ****  *
 249:..\..\..\..\lwip\libcoap-4.3.4\include/coap3/coap_net.h ****  * @return The libcoap file descriptor or @c -1 if epoll is not available.
 250:..\..\..\..\lwip\libcoap-4.3.4\include/coap3/coap_net.h ****  */
 251:..\..\..\..\lwip\libcoap-4.3.4\include/coap3/coap_net.h **** int coap_context_get_coap_fd(const coap_context_t *context);
 252:..\..\..\..\lwip\libcoap-4.3.4\include/coap3/coap_net.h **** 
 253:..\..\..\..\lwip\libcoap-4.3.4\include/coap3/coap_net.h **** /**
 254:..\..\..\..\lwip\libcoap-4.3.4\include/coap3/coap_net.h ****  * Set the maximum idle sessions count. The number of server sessions that
 255:..\..\..\..\lwip\libcoap-4.3.4\include/coap3/coap_net.h ****  * are currently not in use. If this number is exceeded, the least recently
 256:..\..\..\..\lwip\libcoap-4.3.4\include/coap3/coap_net.h ****  * used server session is completely removed.
 257:..\..\..\..\lwip\libcoap-4.3.4\include/coap3/coap_net.h ****  * 0 (the default) means that the number is not monitored.
 258:..\..\..\..\lwip\libcoap-4.3.4\include/coap3/coap_net.h ****  *
 259:..\..\..\..\lwip\libcoap-4.3.4\include/coap3/coap_net.h ****  * @param context           The coap_context_t object.
 260:..\..\..\..\lwip\libcoap-4.3.4\include/coap3/coap_net.h ****  * @param max_idle_sessions The maximum idle session count.
 261:..\..\..\..\lwip\libcoap-4.3.4\include/coap3/coap_net.h ****  */
 262:..\..\..\..\lwip\libcoap-4.3.4\include/coap3/coap_net.h **** void coap_context_set_max_idle_sessions(coap_context_t *context,
 263:..\..\..\..\lwip\libcoap-4.3.4\include/coap3/coap_net.h ****                                         unsigned int max_idle_sessions);
 264:..\..\..\..\lwip\libcoap-4.3.4\include/coap3/coap_net.h **** 
 265:..\..\..\..\lwip\libcoap-4.3.4\include/coap3/coap_net.h **** /**
 266:..\..\..\..\lwip\libcoap-4.3.4\include/coap3/coap_net.h ****  * Get the maximum idle sessions count.
 267:..\..\..\..\lwip\libcoap-4.3.4\include/coap3/coap_net.h ****  *
 268:..\..\..\..\lwip\libcoap-4.3.4\include/coap3/coap_net.h ****  * @param context The coap_context_t object.
 269:..\..\..\..\lwip\libcoap-4.3.4\include/coap3/coap_net.h ****  *
 270:..\..\..\..\lwip\libcoap-4.3.4\include/coap3/coap_net.h ****  * @return The count of max idle sessions.
 271:..\..\..\..\lwip\libcoap-4.3.4\include/coap3/coap_net.h ****  */
 272:..\..\..\..\lwip\libcoap-4.3.4\include/coap3/coap_net.h **** unsigned int coap_context_get_max_idle_sessions(const coap_context_t *context);
 273:..\..\..\..\lwip\libcoap-4.3.4\include/coap3/coap_net.h **** 
 274:..\..\..\..\lwip\libcoap-4.3.4\include/coap3/coap_net.h **** /**
 275:..\..\..\..\lwip\libcoap-4.3.4\include/coap3/coap_net.h ****  * Set the session timeout value. The number of seconds of inactivity after
 276:..\..\..\..\lwip\libcoap-4.3.4\include/coap3/coap_net.h ****  * which an unused server session will be closed.
 277:..\..\..\..\lwip\libcoap-4.3.4\include/coap3/coap_net.h ****  * 0 means use default (300 secs).
 278:..\..\..\..\lwip\libcoap-4.3.4\include/coap3/coap_net.h ****  *
 279:..\..\..\..\lwip\libcoap-4.3.4\include/coap3/coap_net.h ****  * @param context         The coap_context_t object.
 280:..\..\..\..\lwip\libcoap-4.3.4\include/coap3/coap_net.h ****  * @param session_timeout The session timeout value.
 281:..\..\..\..\lwip\libcoap-4.3.4\include/coap3/coap_net.h ****  */
 282:..\..\..\..\lwip\libcoap-4.3.4\include/coap3/coap_net.h **** void coap_context_set_session_timeout(coap_context_t *context,
 283:..\..\..\..\lwip\libcoap-4.3.4\include/coap3/coap_net.h ****                                       unsigned int session_timeout);
 284:..\..\..\..\lwip\libcoap-4.3.4\include/coap3/coap_net.h **** 
 285:..\..\..\..\lwip\libcoap-4.3.4\include/coap3/coap_net.h **** /**
 286:..\..\..\..\lwip\libcoap-4.3.4\include/coap3/coap_net.h ****  * Get the session timeout value
 287:..\..\..\..\lwip\libcoap-4.3.4\include/coap3/coap_net.h ****  *
 288:..\..\..\..\lwip\libcoap-4.3.4\include/coap3/coap_net.h ****  * @param context The coap_context_t object.
 289:..\..\..\..\lwip\libcoap-4.3.4\include/coap3/coap_net.h ****  *
 290:..\..\..\..\lwip\libcoap-4.3.4\include/coap3/coap_net.h ****  * @return The session timeout value.
 291:..\..\..\..\lwip\libcoap-4.3.4\include/coap3/coap_net.h ****  */
 292:..\..\..\..\lwip\libcoap-4.3.4\include/coap3/coap_net.h **** unsigned int coap_context_get_session_timeout(const coap_context_t *context);
 293:..\..\..\..\lwip\libcoap-4.3.4\include/coap3/coap_net.h **** 
 294:..\..\..\..\lwip\libcoap-4.3.4\include/coap3/coap_net.h **** /**
 295:..\..\..\..\lwip\libcoap-4.3.4\include/coap3/coap_net.h ****  * Set the CSM timeout value. The number of seconds to wait for a (TCP) CSM
 296:..\..\..\..\lwip\libcoap-4.3.4\include/coap3/coap_net.h ****  * negotiation response from the peer.
 297:..\..\..\..\lwip\libcoap-4.3.4\include/coap3/coap_net.h ****  * 0 (the default) means use wait forever.
 298:..\..\..\..\lwip\libcoap-4.3.4\include/coap3/coap_net.h ****  *
 299:..\..\..\..\lwip\libcoap-4.3.4\include/coap3/coap_net.h ****  * @param context    The coap_context_t object.
 300:..\..\..\..\lwip\libcoap-4.3.4\include/coap3/coap_net.h ****  * @param csm_tmeout The CSM timeout value.
 301:..\..\..\..\lwip\libcoap-4.3.4\include/coap3/coap_net.h ****  */
 302:..\..\..\..\lwip\libcoap-4.3.4\include/coap3/coap_net.h **** void coap_context_set_csm_timeout(coap_context_t *context,
 303:..\..\..\..\lwip\libcoap-4.3.4\include/coap3/coap_net.h ****                                   unsigned int csm_tmeout);
 304:..\..\..\..\lwip\libcoap-4.3.4\include/coap3/coap_net.h **** 
 305:..\..\..\..\lwip\libcoap-4.3.4\include/coap3/coap_net.h **** /**
 306:..\..\..\..\lwip\libcoap-4.3.4\include/coap3/coap_net.h ****  * Get the CSM timeout value
 307:..\..\..\..\lwip\libcoap-4.3.4\include/coap3/coap_net.h ****  *
 308:..\..\..\..\lwip\libcoap-4.3.4\include/coap3/coap_net.h ****  * @param context The coap_context_t object.
 309:..\..\..\..\lwip\libcoap-4.3.4\include/coap3/coap_net.h ****  *
 310:..\..\..\..\lwip\libcoap-4.3.4\include/coap3/coap_net.h ****  * @return The CSM timeout value.
 311:..\..\..\..\lwip\libcoap-4.3.4\include/coap3/coap_net.h ****  */
 312:..\..\..\..\lwip\libcoap-4.3.4\include/coap3/coap_net.h **** unsigned int coap_context_get_csm_timeout(const coap_context_t *context);
 313:..\..\..\..\lwip\libcoap-4.3.4\include/coap3/coap_net.h **** 
 314:..\..\..\..\lwip\libcoap-4.3.4\include/coap3/coap_net.h **** /**
 315:..\..\..\..\lwip\libcoap-4.3.4\include/coap3/coap_net.h ****  * Set the CSM max session size value. The largest PDU that can be received.
 316:..\..\..\..\lwip\libcoap-4.3.4\include/coap3/coap_net.h ****  *
 317:..\..\..\..\lwip\libcoap-4.3.4\include/coap3/coap_net.h ****  * @param context    The coap_context_t object.
 318:..\..\..\..\lwip\libcoap-4.3.4\include/coap3/coap_net.h ****  * @param csm_max_message_size The CSM max message size value.
 319:..\..\..\..\lwip\libcoap-4.3.4\include/coap3/coap_net.h ****  */
 320:..\..\..\..\lwip\libcoap-4.3.4\include/coap3/coap_net.h **** void coap_context_set_csm_max_message_size(coap_context_t *context,
 321:..\..\..\..\lwip\libcoap-4.3.4\include/coap3/coap_net.h ****                                            uint32_t csm_max_message_size);
 322:..\..\..\..\lwip\libcoap-4.3.4\include/coap3/coap_net.h **** 
 323:..\..\..\..\lwip\libcoap-4.3.4\include/coap3/coap_net.h **** /**
 324:..\..\..\..\lwip\libcoap-4.3.4\include/coap3/coap_net.h ****  * Get the CSM max session size  value
 325:..\..\..\..\lwip\libcoap-4.3.4\include/coap3/coap_net.h ****  *
 326:..\..\..\..\lwip\libcoap-4.3.4\include/coap3/coap_net.h ****  * @param context The coap_context_t object.
 327:..\..\..\..\lwip\libcoap-4.3.4\include/coap3/coap_net.h ****  *
 328:..\..\..\..\lwip\libcoap-4.3.4\include/coap3/coap_net.h ****  * @return The CSM max session size  value.
 329:..\..\..\..\lwip\libcoap-4.3.4\include/coap3/coap_net.h ****  */
 330:..\..\..\..\lwip\libcoap-4.3.4\include/coap3/coap_net.h **** uint32_t coap_context_get_csm_max_message_size(const coap_context_t *context);
 331:..\..\..\..\lwip\libcoap-4.3.4\include/coap3/coap_net.h **** 
 332:..\..\..\..\lwip\libcoap-4.3.4\include/coap3/coap_net.h **** /**
 333:..\..\..\..\lwip\libcoap-4.3.4\include/coap3/coap_net.h ****  * Set the maximum number of sessions in (D)TLS handshake value. If this number
 334:..\..\..\..\lwip\libcoap-4.3.4\include/coap3/coap_net.h ****  * is exceeded, the least recently used server session in handshake is
 335:..\..\..\..\lwip\libcoap-4.3.4\include/coap3/coap_net.h ****  * completely removed.
 336:..\..\..\..\lwip\libcoap-4.3.4\include/coap3/coap_net.h ****  * 0 (the default) means that the number is not monitored.
 337:..\..\..\..\lwip\libcoap-4.3.4\include/coap3/coap_net.h ****  *
 338:..\..\..\..\lwip\libcoap-4.3.4\include/coap3/coap_net.h ****  * @param context         The coap_context_t object.
 339:..\..\..\..\lwip\libcoap-4.3.4\include/coap3/coap_net.h ****  * @param max_handshake_sessions The maximum number of sessions in handshake.
 340:..\..\..\..\lwip\libcoap-4.3.4\include/coap3/coap_net.h ****  */
 341:..\..\..\..\lwip\libcoap-4.3.4\include/coap3/coap_net.h **** void coap_context_set_max_handshake_sessions(coap_context_t *context,
 342:..\..\..\..\lwip\libcoap-4.3.4\include/coap3/coap_net.h ****                                              unsigned int max_handshake_sessions);
 343:..\..\..\..\lwip\libcoap-4.3.4\include/coap3/coap_net.h **** 
 344:..\..\..\..\lwip\libcoap-4.3.4\include/coap3/coap_net.h **** /**
 345:..\..\..\..\lwip\libcoap-4.3.4\include/coap3/coap_net.h ****  * Get the session timeout value
 346:..\..\..\..\lwip\libcoap-4.3.4\include/coap3/coap_net.h ****  *
 347:..\..\..\..\lwip\libcoap-4.3.4\include/coap3/coap_net.h ****  * @param context The coap_context_t object.
 348:..\..\..\..\lwip\libcoap-4.3.4\include/coap3/coap_net.h ****  *
 349:..\..\..\..\lwip\libcoap-4.3.4\include/coap3/coap_net.h ****  * @return The maximim number of sessions in (D)TLS handshake value.
 350:..\..\..\..\lwip\libcoap-4.3.4\include/coap3/coap_net.h ****  */
 351:..\..\..\..\lwip\libcoap-4.3.4\include/coap3/coap_net.h **** unsigned int coap_context_get_max_handshake_sessions(const coap_context_t *context);
 352:..\..\..\..\lwip\libcoap-4.3.4\include/coap3/coap_net.h **** 
 353:..\..\..\..\lwip\libcoap-4.3.4\include/coap3/coap_net.h **** /**
 354:..\..\..\..\lwip\libcoap-4.3.4\include/coap3/coap_net.h ****  * Returns a new message id and updates @p session->tx_mid accordingly. The
 355:..\..\..\..\lwip\libcoap-4.3.4\include/coap3/coap_net.h ****  * message id is returned in network byte order to make it easier to read in
 356:..\..\..\..\lwip\libcoap-4.3.4\include/coap3/coap_net.h ****  * tracing tools.
 357:..\..\..\..\lwip\libcoap-4.3.4\include/coap3/coap_net.h ****  *
 358:..\..\..\..\lwip\libcoap-4.3.4\include/coap3/coap_net.h ****  * @param session The current coap_session_t object.
 359:..\..\..\..\lwip\libcoap-4.3.4\include/coap3/coap_net.h ****  *
 360:..\..\..\..\lwip\libcoap-4.3.4\include/coap3/coap_net.h ****  * @return        Incremented message id in network byte order.
 361:..\..\..\..\lwip\libcoap-4.3.4\include/coap3/coap_net.h ****  */
 362:..\..\..\..\lwip\libcoap-4.3.4\include/coap3/coap_net.h **** uint16_t coap_new_message_id(coap_session_t *session);
 363:..\..\..\..\lwip\libcoap-4.3.4\include/coap3/coap_net.h **** 
 364:..\..\..\..\lwip\libcoap-4.3.4\include/coap3/coap_net.h **** /**
 365:..\..\..\..\lwip\libcoap-4.3.4\include/coap3/coap_net.h ****  * CoAP stack context must be released with coap_free_context(). This function
 366:..\..\..\..\lwip\libcoap-4.3.4\include/coap3/coap_net.h ****  * clears all entries from the receive queue and send queue and deletes the
 367:..\..\..\..\lwip\libcoap-4.3.4\include/coap3/coap_net.h ****  * resources that have been registered with @p context, and frees the attached
 368:..\..\..\..\lwip\libcoap-4.3.4\include/coap3/coap_net.h ****  * endpoints.
 369:..\..\..\..\lwip\libcoap-4.3.4\include/coap3/coap_net.h ****  *
 370:..\..\..\..\lwip\libcoap-4.3.4\include/coap3/coap_net.h ****  * @param context The current coap_context_t object to free off.
 371:..\..\..\..\lwip\libcoap-4.3.4\include/coap3/coap_net.h ****  */
 372:..\..\..\..\lwip\libcoap-4.3.4\include/coap3/coap_net.h **** void coap_free_context(coap_context_t *context);
 373:..\..\..\..\lwip\libcoap-4.3.4\include/coap3/coap_net.h **** 
 374:..\..\..\..\lwip\libcoap-4.3.4\include/coap3/coap_net.h **** /**
 375:..\..\..\..\lwip\libcoap-4.3.4\include/coap3/coap_net.h ****  * Stores @p data with the given CoAP context. This function
 376:..\..\..\..\lwip\libcoap-4.3.4\include/coap3/coap_net.h ****  * overwrites any value that has previously been stored with @p
 377:..\..\..\..\lwip\libcoap-4.3.4\include/coap3/coap_net.h ****  * context.
 378:..\..\..\..\lwip\libcoap-4.3.4\include/coap3/coap_net.h ****  *
 379:..\..\..\..\lwip\libcoap-4.3.4\include/coap3/coap_net.h ****  * @param context The CoAP context.
 380:..\..\..\..\lwip\libcoap-4.3.4\include/coap3/coap_net.h ****  * @param data The data to store with wih the context. Note that this data
 381:..\..\..\..\lwip\libcoap-4.3.4\include/coap3/coap_net.h ****  *             must be valid during the lifetime of @p context.
 382:..\..\..\..\lwip\libcoap-4.3.4\include/coap3/coap_net.h ****  */
 383:..\..\..\..\lwip\libcoap-4.3.4\include/coap3/coap_net.h **** void coap_set_app_data(coap_context_t *context, void *data);
 384:..\..\..\..\lwip\libcoap-4.3.4\include/coap3/coap_net.h **** 
 385:..\..\..\..\lwip\libcoap-4.3.4\include/coap3/coap_net.h **** /**
 386:..\..\..\..\lwip\libcoap-4.3.4\include/coap3/coap_net.h ****  * Returns any application-specific data that has been stored with @p
 387:..\..\..\..\lwip\libcoap-4.3.4\include/coap3/coap_net.h ****  * context using the function coap_set_app_data(). This function will
 388:..\..\..\..\lwip\libcoap-4.3.4\include/coap3/coap_net.h ****  * return @c NULL if no data has been stored.
 389:..\..\..\..\lwip\libcoap-4.3.4\include/coap3/coap_net.h ****  *
 390:..\..\..\..\lwip\libcoap-4.3.4\include/coap3/coap_net.h ****  * @param context The CoAP context.
 391:..\..\..\..\lwip\libcoap-4.3.4\include/coap3/coap_net.h ****  *
 392:..\..\..\..\lwip\libcoap-4.3.4\include/coap3/coap_net.h ****  * @return The data previously stored or @c NULL if not data stored.
 393:..\..\..\..\lwip\libcoap-4.3.4\include/coap3/coap_net.h ****  */
 394:..\..\..\..\lwip\libcoap-4.3.4\include/coap3/coap_net.h **** void *coap_get_app_data(const coap_context_t *context);
 395:..\..\..\..\lwip\libcoap-4.3.4\include/coap3/coap_net.h **** 
 396:..\..\..\..\lwip\libcoap-4.3.4\include/coap3/coap_net.h **** /**
 397:..\..\..\..\lwip\libcoap-4.3.4\include/coap3/coap_net.h ****  * Creates a new ACK PDU with specified error @p code. The options specified by
 398:..\..\..\..\lwip\libcoap-4.3.4\include/coap3/coap_net.h ****  * the filter expression @p opts will be copied from the original request
 399:..\..\..\..\lwip\libcoap-4.3.4\include/coap3/coap_net.h ****  * contained in @p request. Unless @c SHORT_ERROR_RESPONSE was defined at build
 400:..\..\..\..\lwip\libcoap-4.3.4\include/coap3/coap_net.h ****  * time, the textual reason phrase for @p code will be added as payload, with
 401:..\..\..\..\lwip\libcoap-4.3.4\include/coap3/coap_net.h ****  * Content-Type @c 0.
 402:..\..\..\..\lwip\libcoap-4.3.4\include/coap3/coap_net.h ****  * This function returns a pointer to the new response message, or @c NULL on
 403:..\..\..\..\lwip\libcoap-4.3.4\include/coap3/coap_net.h ****  * error. The storage allocated for the new message must be released with
 404:..\..\..\..\lwip\libcoap-4.3.4\include/coap3/coap_net.h ****  * coap_free().
 405:..\..\..\..\lwip\libcoap-4.3.4\include/coap3/coap_net.h ****  *
 406:..\..\..\..\lwip\libcoap-4.3.4\include/coap3/coap_net.h ****  * @param request Specification of the received (confirmable) request.
 407:..\..\..\..\lwip\libcoap-4.3.4\include/coap3/coap_net.h ****  * @param code    The error code to set.
 408:..\..\..\..\lwip\libcoap-4.3.4\include/coap3/coap_net.h ****  * @param opts    An option filter that specifies which options to copy from
 409:..\..\..\..\lwip\libcoap-4.3.4\include/coap3/coap_net.h ****  *                the original request in @p node.
 410:..\..\..\..\lwip\libcoap-4.3.4\include/coap3/coap_net.h ****  *
 411:..\..\..\..\lwip\libcoap-4.3.4\include/coap3/coap_net.h ****  * @return        A pointer to the new message or @c NULL on error.
 412:..\..\..\..\lwip\libcoap-4.3.4\include/coap3/coap_net.h ****  */
 413:..\..\..\..\lwip\libcoap-4.3.4\include/coap3/coap_net.h **** coap_pdu_t *coap_new_error_response(const coap_pdu_t *request,
 414:..\..\..\..\lwip\libcoap-4.3.4\include/coap3/coap_net.h ****                                     coap_pdu_code_t code,
 415:..\..\..\..\lwip\libcoap-4.3.4\include/coap3/coap_net.h ****                                     coap_opt_filter_t *opts);
 416:..\..\..\..\lwip\libcoap-4.3.4\include/coap3/coap_net.h **** 
 417:..\..\..\..\lwip\libcoap-4.3.4\include/coap3/coap_net.h **** /**
 418:..\..\..\..\lwip\libcoap-4.3.4\include/coap3/coap_net.h ****  * Sends an error response with code @p code for request @p request to @p dst.
 419:..\..\..\..\lwip\libcoap-4.3.4\include/coap3/coap_net.h ****  * @p opts will be passed to coap_new_error_response() to copy marked options
 420:..\..\..\..\lwip\libcoap-4.3.4\include/coap3/coap_net.h ****  * from the request. This function returns the message id if the message was
 421:..\..\..\..\lwip\libcoap-4.3.4\include/coap3/coap_net.h ****  * sent, or @c COAP_INVALID_MID otherwise.
 422:..\..\..\..\lwip\libcoap-4.3.4\include/coap3/coap_net.h ****  *
 423:..\..\..\..\lwip\libcoap-4.3.4\include/coap3/coap_net.h ****  * @param session         The CoAP session.
 424:..\..\..\..\lwip\libcoap-4.3.4\include/coap3/coap_net.h ****  * @param request         The original request to respond to.
 425:..\..\..\..\lwip\libcoap-4.3.4\include/coap3/coap_net.h ****  * @param code            The response code.
 426:..\..\..\..\lwip\libcoap-4.3.4\include/coap3/coap_net.h ****  * @param opts            A filter that specifies the options to copy from the
 427:..\..\..\..\lwip\libcoap-4.3.4\include/coap3/coap_net.h ****  *                        @p request.
 428:..\..\..\..\lwip\libcoap-4.3.4\include/coap3/coap_net.h ****  *
 429:..\..\..\..\lwip\libcoap-4.3.4\include/coap3/coap_net.h ****  * @return                The message id if the message was sent, or @c
 430:..\..\..\..\lwip\libcoap-4.3.4\include/coap3/coap_net.h ****  *                        COAP_INVALID_MID otherwise.
 431:..\..\..\..\lwip\libcoap-4.3.4\include/coap3/coap_net.h ****  */
 432:..\..\..\..\lwip\libcoap-4.3.4\include/coap3/coap_net.h **** coap_mid_t coap_send_error(coap_session_t *session,
 433:..\..\..\..\lwip\libcoap-4.3.4\include/coap3/coap_net.h ****                            const coap_pdu_t *request,
 434:..\..\..\..\lwip\libcoap-4.3.4\include/coap3/coap_net.h ****                            coap_pdu_code_t code,
 435:..\..\..\..\lwip\libcoap-4.3.4\include/coap3/coap_net.h ****                            coap_opt_filter_t *opts);
 436:..\..\..\..\lwip\libcoap-4.3.4\include/coap3/coap_net.h **** 
 437:..\..\..\..\lwip\libcoap-4.3.4\include/coap3/coap_net.h **** /**
 438:..\..\..\..\lwip\libcoap-4.3.4\include/coap3/coap_net.h ****  * Helper function to create and send a message with @p type (usually ACK or
 439:..\..\..\..\lwip\libcoap-4.3.4\include/coap3/coap_net.h ****  * RST). This function returns @c COAP_INVALID_MID when the message was not
 440:..\..\..\..\lwip\libcoap-4.3.4\include/coap3/coap_net.h ****  * sent, a valid transaction id otherwise.
 441:..\..\..\..\lwip\libcoap-4.3.4\include/coap3/coap_net.h ****  *
 442:..\..\..\..\lwip\libcoap-4.3.4\include/coap3/coap_net.h ****  * @param session         The CoAP session.
 443:..\..\..\..\lwip\libcoap-4.3.4\include/coap3/coap_net.h ****  * @param request         The request that should be responded to.
 444:..\..\..\..\lwip\libcoap-4.3.4\include/coap3/coap_net.h ****  * @param type            Which type to set.
 445:..\..\..\..\lwip\libcoap-4.3.4\include/coap3/coap_net.h ****  * @return                message id on success or @c COAP_INVALID_MID
 446:..\..\..\..\lwip\libcoap-4.3.4\include/coap3/coap_net.h ****  *                        otherwise.
 447:..\..\..\..\lwip\libcoap-4.3.4\include/coap3/coap_net.h ****  */
 448:..\..\..\..\lwip\libcoap-4.3.4\include/coap3/coap_net.h **** coap_mid_t coap_send_message_type(coap_session_t *session, const coap_pdu_t *request,
 449:..\..\..\..\lwip\libcoap-4.3.4\include/coap3/coap_net.h ****                                   coap_pdu_type_t type);
 450:..\..\..\..\lwip\libcoap-4.3.4\include/coap3/coap_net.h **** 
 451:..\..\..\..\lwip\libcoap-4.3.4\include/coap3/coap_net.h **** /**
 452:..\..\..\..\lwip\libcoap-4.3.4\include/coap3/coap_net.h ****  * Sends an ACK message with code @c 0 for the specified @p request to @p dst.
 453:..\..\..\..\lwip\libcoap-4.3.4\include/coap3/coap_net.h ****  * This function returns the corresponding message id if the message was
 454:..\..\..\..\lwip\libcoap-4.3.4\include/coap3/coap_net.h ****  * sent or @c COAP_INVALID_MID on error.
 455:..\..\..\..\lwip\libcoap-4.3.4\include/coap3/coap_net.h ****  *
 456:..\..\..\..\lwip\libcoap-4.3.4\include/coap3/coap_net.h ****  * @param session         The CoAP session.
 457:..\..\..\..\lwip\libcoap-4.3.4\include/coap3/coap_net.h ****  * @param request         The request to be acknowledged.
 458:..\..\..\..\lwip\libcoap-4.3.4\include/coap3/coap_net.h ****  *
 459:..\..\..\..\lwip\libcoap-4.3.4\include/coap3/coap_net.h ****  * @return                The message id if ACK was sent or @c
 460:..\..\..\..\lwip\libcoap-4.3.4\include/coap3/coap_net.h ****  *                        COAP_INVALID_MID on error.
 461:..\..\..\..\lwip\libcoap-4.3.4\include/coap3/coap_net.h ****  */
 462:..\..\..\..\lwip\libcoap-4.3.4\include/coap3/coap_net.h **** coap_mid_t coap_send_ack(coap_session_t *session, const coap_pdu_t *request);
 463:..\..\..\..\lwip\libcoap-4.3.4\include/coap3/coap_net.h **** 
 464:..\..\..\..\lwip\libcoap-4.3.4\include/coap3/coap_net.h **** /**
 465:..\..\..\..\lwip\libcoap-4.3.4\include/coap3/coap_net.h ****  * Sends an RST message with code @c 0 for the specified @p request to @p dst.
 466:..\..\..\..\lwip\libcoap-4.3.4\include/coap3/coap_net.h ****  * This function returns the corresponding message id if the message was
 467:..\..\..\..\lwip\libcoap-4.3.4\include/coap3/coap_net.h ****  * sent or @c COAP_INVALID_MID on error.
 468:..\..\..\..\lwip\libcoap-4.3.4\include/coap3/coap_net.h ****  *
 469:..\..\..\..\lwip\libcoap-4.3.4\include/coap3/coap_net.h ****  * @param session         The CoAP session.
 470:..\..\..\..\lwip\libcoap-4.3.4\include/coap3/coap_net.h ****  * @param request         The request to be reset.
 471:..\..\..\..\lwip\libcoap-4.3.4\include/coap3/coap_net.h ****  *
 472:..\..\..\..\lwip\libcoap-4.3.4\include/coap3/coap_net.h ****  * @return                The message id if RST was sent or @c
 473:..\..\..\..\lwip\libcoap-4.3.4\include/coap3/coap_net.h ****  *                        COAP_INVALID_MID on error.
 474:..\..\..\..\lwip\libcoap-4.3.4\include/coap3/coap_net.h ****  */
 475:..\..\..\..\lwip\libcoap-4.3.4\include/coap3/coap_net.h **** COAP_STATIC_INLINE coap_mid_t
 476:..\..\..\..\lwip\libcoap-4.3.4\include/coap3/coap_net.h **** coap_send_rst(coap_session_t *session, const coap_pdu_t *request) {
 477:..\..\..\..\lwip\libcoap-4.3.4\include/coap3/coap_net.h ****   return coap_send_message_type(session, request, COAP_MESSAGE_RST);
 278              		.loc 3 477 3
 279              		.loc 3 477 10 is_stmt 0
 280 00e0 0D46     		li	a2,3
 281 00e2 A685     		mv	a1,s1
 282 00e4 2285     		mv	a0,s0
 283 00e6 97000000 		call	coap_send_message_type
 283      E7800000 
 284              	.LVL34:
 285 00ee E1B7     		j	.L27
 286              	.LVL35:
 287              	.L14:
 288              	.LBE13:
 289              	.LBE12:
 174:C:/Users/stapi/OneDrive/Desktop/GD32VW553/GD32VW55X_Wifi_BLE_SDK/GD32VW55x_RELEASE_V1.0.2/MSDK/lwip/libcoap-4.3.4/src\coap_io_lwip.c ****     if (!pdu)
 290              		.loc 1 174 5 is_stmt 1
 174:C:/Users/stapi/OneDrive/Desktop/GD32VW553/GD32VW55X_Wifi_BLE_SDK/GD32VW55x_RELEASE_V1.0.2/MSDK/lwip/libcoap-4.3.4/src\coap_io_lwip.c ****     if (!pdu)
 291              		.loc 1 174 11 is_stmt 0
 292 00f0 4A85     		mv	a0,s2
 293 00f2 97000000 		call	coap_pdu_from_pbuf
 293      E7800000 
 294              	.LVL36:
 295 00fa AA84     		mv	s1,a0
 296              	.LVL37:
 175:C:/Users/stapi/OneDrive/Desktop/GD32VW553/GD32VW55X_Wifi_BLE_SDK/GD32VW55x_RELEASE_V1.0.2/MSDK/lwip/libcoap-4.3.4/src\coap_io_lwip.c ****       goto error;
 297              		.loc 1 175 5 is_stmt 1
 175:C:/Users/stapi/OneDrive/Desktop/GD32VW553/GD32VW55X_Wifi_BLE_SDK/GD32VW55x_RELEASE_V1.0.2/MSDK/lwip/libcoap-4.3.4/src\coap_io_lwip.c ****       goto error;
 298              		.loc 1 175 8 is_stmt 0
 299 00fc 6DD1     		beq	a0,zero,.L17
 178:C:/Users/stapi/OneDrive/Desktop/GD32VW553/GD32VW55X_Wifi_BLE_SDK/GD32VW55x_RELEASE_V1.0.2/MSDK/lwip/libcoap-4.3.4/src\coap_io_lwip.c ****       goto error;
 300              		.loc 1 178 5 is_stmt 1
 178:C:/Users/stapi/OneDrive/Desktop/GD32VW553/GD32VW55X_Wifi_BLE_SDK/GD32VW55x_RELEASE_V1.0.2/MSDK/lwip/libcoap-4.3.4/src\coap_io_lwip.c ****       goto error;
 301              		.loc 1 178 10 is_stmt 0
 302 00fe AA86     		mv	a3,a0
 303 0100 0356A900 		lhu	a2,10(s2)
 304 0104 83254900 		lw	a1,4(s2)
 305 0108 0840     		lw	a0,0(s0)
 306 010a 97000000 		call	coap_pdu_parse
 306      E7800000 
 307              	.LVL38:
 178:C:/Users/stapi/OneDrive/Desktop/GD32VW553/GD32VW55X_Wifi_BLE_SDK/GD32VW55x_RELEASE_V1.0.2/MSDK/lwip/libcoap-4.3.4/src\coap_io_lwip.c ****       goto error;
 308              		.loc 1 178 8
 309 0112 79D5     		beq	a0,zero,.L19
 181:C:/Users/stapi/OneDrive/Desktop/GD32VW553/GD32VW55X_Wifi_BLE_SDK/GD32VW55x_RELEASE_V1.0.2/MSDK/lwip/libcoap-4.3.4/src\coap_io_lwip.c ****   }
 310              		.loc 1 181 5 is_stmt 1
 311 0114 0325C40A 		lw	a0,172(s0)
 312 0118 2686     		mv	a2,s1
 313 011a A285     		mv	a1,s0
 314 011c 97000000 		call	coap_dispatch
 314      E7800000 
 315              	.LVL39:
 183:C:/Users/stapi/OneDrive/Desktop/GD32VW553/GD32VW55X_Wifi_BLE_SDK/GD32VW55x_RELEASE_V1.0.2/MSDK/lwip/libcoap-4.3.4/src\coap_io_lwip.c ****   return;
 316              		.loc 1 183 3
 317 0124 49BF     		j	.L27
 318              	.LBE14:
 319              	.LBE15:
 320              		.cfi_endproc
 321              	.LFE36:
 323              		.section	.rodata.coap_recvs.str1.4,"aMS",@progbits,1
 324              		.align	2
 325              	.LC5:
 326 0000 496E7375 		.string	"Insufficient coap_packet_t resources."
 326      66666963 
 326      69656E74 
 326      20636F61 
 326      705F7061 
 327              		.section	.text.coap_recvs,"ax",@progbits
 328              		.align	1
 330              	coap_recvs:
 331              	.LFB38:
 196:C:/Users/stapi/OneDrive/Desktop/GD32VW553/GD32VW55X_Wifi_BLE_SDK/GD32VW55x_RELEASE_V1.0.2/MSDK/lwip/libcoap-4.3.4/src\coap_io_lwip.c **** #endif /* ! COAP_CLIENT_SUPPORT */
 197:C:/Users/stapi/OneDrive/Desktop/GD32VW553/GD32VW55X_Wifi_BLE_SDK/GD32VW55x_RELEASE_V1.0.2/MSDK/lwip/libcoap-4.3.4/src\coap_io_lwip.c **** 
 198:C:/Users/stapi/OneDrive/Desktop/GD32VW553/GD32VW55X_Wifi_BLE_SDK/GD32VW55x_RELEASE_V1.0.2/MSDK/lwip/libcoap-4.3.4/src\coap_io_lwip.c **** #if COAP_SERVER_SUPPORT
 199:C:/Users/stapi/OneDrive/Desktop/GD32VW553/GD32VW55X_Wifi_BLE_SDK/GD32VW55x_RELEASE_V1.0.2/MSDK/lwip/libcoap-4.3.4/src\coap_io_lwip.c **** 
 200:C:/Users/stapi/OneDrive/Desktop/GD32VW553/GD32VW55X_Wifi_BLE_SDK/GD32VW55x_RELEASE_V1.0.2/MSDK/lwip/libcoap-4.3.4/src\coap_io_lwip.c **** static void
 201:C:/Users/stapi/OneDrive/Desktop/GD32VW553/GD32VW55X_Wifi_BLE_SDK/GD32VW55x_RELEASE_V1.0.2/MSDK/lwip/libcoap-4.3.4/src\coap_io_lwip.c **** coap_free_packet(coap_packet_t *packet) {
 202:C:/Users/stapi/OneDrive/Desktop/GD32VW553/GD32VW55X_Wifi_BLE_SDK/GD32VW55x_RELEASE_V1.0.2/MSDK/lwip/libcoap-4.3.4/src\coap_io_lwip.c ****   coap_free_type(COAP_PACKET, packet);
 203:C:/Users/stapi/OneDrive/Desktop/GD32VW553/GD32VW55X_Wifi_BLE_SDK/GD32VW55x_RELEASE_V1.0.2/MSDK/lwip/libcoap-4.3.4/src\coap_io_lwip.c **** }
 204:C:/Users/stapi/OneDrive/Desktop/GD32VW553/GD32VW55X_Wifi_BLE_SDK/GD32VW55x_RELEASE_V1.0.2/MSDK/lwip/libcoap-4.3.4/src\coap_io_lwip.c **** 
 205:C:/Users/stapi/OneDrive/Desktop/GD32VW553/GD32VW55X_Wifi_BLE_SDK/GD32VW55x_RELEASE_V1.0.2/MSDK/lwip/libcoap-4.3.4/src\coap_io_lwip.c **** /** Callback from lwIP when a package was received for a server.
 206:C:/Users/stapi/OneDrive/Desktop/GD32VW553/GD32VW55X_Wifi_BLE_SDK/GD32VW55x_RELEASE_V1.0.2/MSDK/lwip/libcoap-4.3.4/src\coap_io_lwip.c ****  *
 207:C:/Users/stapi/OneDrive/Desktop/GD32VW553/GD32VW55X_Wifi_BLE_SDK/GD32VW55x_RELEASE_V1.0.2/MSDK/lwip/libcoap-4.3.4/src\coap_io_lwip.c ****  * The current implementation deals this to coap_dispatch immediately, but
 208:C:/Users/stapi/OneDrive/Desktop/GD32VW553/GD32VW55X_Wifi_BLE_SDK/GD32VW55x_RELEASE_V1.0.2/MSDK/lwip/libcoap-4.3.4/src\coap_io_lwip.c ****  * other mechanisms (as storing the package in a queue and later fetching it
 209:C:/Users/stapi/OneDrive/Desktop/GD32VW553/GD32VW55X_Wifi_BLE_SDK/GD32VW55x_RELEASE_V1.0.2/MSDK/lwip/libcoap-4.3.4/src\coap_io_lwip.c ****  * when coap_io_do_io is called) can be envisioned.
 210:C:/Users/stapi/OneDrive/Desktop/GD32VW553/GD32VW55X_Wifi_BLE_SDK/GD32VW55x_RELEASE_V1.0.2/MSDK/lwip/libcoap-4.3.4/src\coap_io_lwip.c ****  *
 211:C:/Users/stapi/OneDrive/Desktop/GD32VW553/GD32VW55X_Wifi_BLE_SDK/GD32VW55x_RELEASE_V1.0.2/MSDK/lwip/libcoap-4.3.4/src\coap_io_lwip.c ****  * It handles everything coap_io_do_io does on other implementations.
 212:C:/Users/stapi/OneDrive/Desktop/GD32VW553/GD32VW55X_Wifi_BLE_SDK/GD32VW55x_RELEASE_V1.0.2/MSDK/lwip/libcoap-4.3.4/src\coap_io_lwip.c ****  */
 213:C:/Users/stapi/OneDrive/Desktop/GD32VW553/GD32VW55X_Wifi_BLE_SDK/GD32VW55x_RELEASE_V1.0.2/MSDK/lwip/libcoap-4.3.4/src\coap_io_lwip.c **** static void
 214:C:/Users/stapi/OneDrive/Desktop/GD32VW553/GD32VW55X_Wifi_BLE_SDK/GD32VW55x_RELEASE_V1.0.2/MSDK/lwip/libcoap-4.3.4/src\coap_io_lwip.c **** coap_recvs(void *arg, struct udp_pcb *upcb, struct pbuf *p,
 215:C:/Users/stapi/OneDrive/Desktop/GD32VW553/GD32VW55X_Wifi_BLE_SDK/GD32VW55x_RELEASE_V1.0.2/MSDK/lwip/libcoap-4.3.4/src\coap_io_lwip.c ****            const ip_addr_t *addr, u16_t port) {
 332              		.loc 1 215 47
 333              		.cfi_startproc
 334              	.LVL40:
 335 0000 17030000 		call	t0,__riscv_save_6
 335      E7020300 
 336              		.cfi_offset 21, -28
 337              		.cfi_offset 20, -24
 338              		.cfi_offset 19, -20
 339              		.cfi_offset 18, -16
 340              		.cfi_offset 9, -12
 341              		.cfi_offset 8, -8
 342              		.cfi_offset 1, -4
 343              		.cfi_def_cfa_offset 32
 216:C:/Users/stapi/OneDrive/Desktop/GD32VW553/GD32VW55X_Wifi_BLE_SDK/GD32VW55x_RELEASE_V1.0.2/MSDK/lwip/libcoap-4.3.4/src\coap_io_lwip.c ****   coap_endpoint_t *ep = (coap_endpoint_t *)arg;
 344              		.loc 1 216 3
 345              	.LVL41:
 217:C:/Users/stapi/OneDrive/Desktop/GD32VW553/GD32VW55X_Wifi_BLE_SDK/GD32VW55x_RELEASE_V1.0.2/MSDK/lwip/libcoap-4.3.4/src\coap_io_lwip.c ****   coap_pdu_t *pdu = NULL;
 346              		.loc 1 217 3
 218:C:/Users/stapi/OneDrive/Desktop/GD32VW553/GD32VW55X_Wifi_BLE_SDK/GD32VW55x_RELEASE_V1.0.2/MSDK/lwip/libcoap-4.3.4/src\coap_io_lwip.c ****   coap_session_t *session = NULL;
 347              		.loc 1 218 3
 219:C:/Users/stapi/OneDrive/Desktop/GD32VW553/GD32VW55X_Wifi_BLE_SDK/GD32VW55x_RELEASE_V1.0.2/MSDK/lwip/libcoap-4.3.4/src\coap_io_lwip.c ****   coap_tick_t now;
 348              		.loc 1 219 3
 220:C:/Users/stapi/OneDrive/Desktop/GD32VW553/GD32VW55X_Wifi_BLE_SDK/GD32VW55x_RELEASE_V1.0.2/MSDK/lwip/libcoap-4.3.4/src\coap_io_lwip.c ****   coap_packet_t *packet;
 349              		.loc 1 220 3
 221:C:/Users/stapi/OneDrive/Desktop/GD32VW553/GD32VW55X_Wifi_BLE_SDK/GD32VW55x_RELEASE_V1.0.2/MSDK/lwip/libcoap-4.3.4/src\coap_io_lwip.c ****   int result = -1;
 350              		.loc 1 221 3
 222:C:/Users/stapi/OneDrive/Desktop/GD32VW553/GD32VW55X_Wifi_BLE_SDK/GD32VW55x_RELEASE_V1.0.2/MSDK/lwip/libcoap-4.3.4/src\coap_io_lwip.c **** 
 223:C:/Users/stapi/OneDrive/Desktop/GD32VW553/GD32VW55X_Wifi_BLE_SDK/GD32VW55x_RELEASE_V1.0.2/MSDK/lwip/libcoap-4.3.4/src\coap_io_lwip.c ****   if (p->len < 4) {
 351              		.loc 1 223 3
 215:C:/Users/stapi/OneDrive/Desktop/GD32VW553/GD32VW55X_Wifi_BLE_SDK/GD32VW55x_RELEASE_V1.0.2/MSDK/lwip/libcoap-4.3.4/src\coap_io_lwip.c ****   coap_endpoint_t *ep = (coap_endpoint_t *)arg;
 352              		.loc 1 215 47 is_stmt 0
 353 0008 BA8A     		mv	s5,a4
 354              		.loc 1 223 6
 355 000a 0357A600 		lhu	a4,10(a2)
 356              	.LVL42:
 357 000e 8D47     		li	a5,3
 358 0010 63F4E716 		bleu	a4,a5,.L28
 359 0014 2A8A     		mv	s4,a0
 360 0016 2E84     		mv	s0,a1
 361              	.LBB26:
 362              	.LBB27:
 224:C:/Users/stapi/OneDrive/Desktop/GD32VW553/GD32VW55X_Wifi_BLE_SDK/GD32VW55x_RELEASE_V1.0.2/MSDK/lwip/libcoap-4.3.4/src\coap_io_lwip.c ****     /* Minimum size of CoAP header - ignore runt */
 225:C:/Users/stapi/OneDrive/Desktop/GD32VW553/GD32VW55X_Wifi_BLE_SDK/GD32VW55x_RELEASE_V1.0.2/MSDK/lwip/libcoap-4.3.4/src\coap_io_lwip.c ****     return;
 226:C:/Users/stapi/OneDrive/Desktop/GD32VW553/GD32VW55X_Wifi_BLE_SDK/GD32VW55x_RELEASE_V1.0.2/MSDK/lwip/libcoap-4.3.4/src\coap_io_lwip.c ****   }
 227:C:/Users/stapi/OneDrive/Desktop/GD32VW553/GD32VW55X_Wifi_BLE_SDK/GD32VW55x_RELEASE_V1.0.2/MSDK/lwip/libcoap-4.3.4/src\coap_io_lwip.c **** 
 228:C:/Users/stapi/OneDrive/Desktop/GD32VW553/GD32VW55X_Wifi_BLE_SDK/GD32VW55x_RELEASE_V1.0.2/MSDK/lwip/libcoap-4.3.4/src\coap_io_lwip.c ****   packet = coap_malloc_type(COAP_PACKET, sizeof(coap_packet_t));
 363              		.loc 1 228 12
 364 0018 0D45     		li	a0,3
 365              	.LVL43:
 366 001a F145     		li	a1,28
 367              	.LVL44:
 368 001c B284     		mv	s1,a2
 369 001e B689     		mv	s3,a3
 370              	.LVL45:
 371              		.loc 1 228 3 is_stmt 1
 372              		.loc 1 228 12 is_stmt 0
 373 0020 97000000 		call	coap_malloc_type
 373      E7800000 
 374              	.LVL46:
 375 0028 2A89     		mv	s2,a0
 376              	.LVL47:
 229:C:/Users/stapi/OneDrive/Desktop/GD32VW553/GD32VW55X_Wifi_BLE_SDK/GD32VW55x_RELEASE_V1.0.2/MSDK/lwip/libcoap-4.3.4/src\coap_io_lwip.c **** 
 230:C:/Users/stapi/OneDrive/Desktop/GD32VW553/GD32VW55X_Wifi_BLE_SDK/GD32VW55x_RELEASE_V1.0.2/MSDK/lwip/libcoap-4.3.4/src\coap_io_lwip.c ****   /* this is fatal because due to the short life of the packet, never should
 231:C:/Users/stapi/OneDrive/Desktop/GD32VW553/GD32VW55X_Wifi_BLE_SDK/GD32VW55x_RELEASE_V1.0.2/MSDK/lwip/libcoap-4.3.4/src\coap_io_lwip.c ****      there be more than one coap_packet_t required */
 232:C:/Users/stapi/OneDrive/Desktop/GD32VW553/GD32VW55X_Wifi_BLE_SDK/GD32VW55x_RELEASE_V1.0.2/MSDK/lwip/libcoap-4.3.4/src\coap_io_lwip.c ****   LWIP_ASSERT("Insufficient coap_packet_t resources.", packet != NULL);
 377              		.loc 1 232 3 is_stmt 1
 378              		.loc 1 232 3
 379 002a 05E5     		bne	a0,zero,.L30
 380              		.loc 1 232 3
 381              		.loc 1 232 3
 382 002c B7060000 		lui	a3,%hi(.LC1)
 383 0030 B7050000 		lui	a1,%hi(.LC5)
 384 0034 37050000 		lui	a0,%hi(.LC3)
 385              	.LVL48:
 386 0038 93860600 		addi	a3,a3,%lo(.LC1)
 387 003c 1306800E 		li	a2,232
 388 0040 93850500 		addi	a1,a1,%lo(.LC5)
 389 0044 13050500 		addi	a0,a0,%lo(.LC3)
 390 0048 97000000 		call	printf
 390      E7800000 
 391              	.LVL49:
 392              	.L31:
 393              		.loc 1 232 3
 394              		.loc 1 232 3
 395              		.loc 1 232 3
 396 0050 01A0     		j	.L31
 397              	.LVL50:
 398              	.L30:
 399              		.loc 1 232 3
 400              		.loc 1 232 3
 233:C:/Users/stapi/OneDrive/Desktop/GD32VW553/GD32VW55X_Wifi_BLE_SDK/GD32VW55x_RELEASE_V1.0.2/MSDK/lwip/libcoap-4.3.4/src\coap_io_lwip.c ****   /* Need to do this as there may be holes in addr_info */
 234:C:/Users/stapi/OneDrive/Desktop/GD32VW553/GD32VW55X_Wifi_BLE_SDK/GD32VW55x_RELEASE_V1.0.2/MSDK/lwip/libcoap-4.3.4/src\coap_io_lwip.c ****   memset(&packet->addr_info, 0, sizeof(packet->addr_info));
 401              		.loc 1 234 3
 402 0052 4146     		li	a2,16
 403 0054 8145     		li	a1,0
 404 0056 97000000 		call	memset
 404      E7800000 
 405              	.LVL51:
 235:C:/Users/stapi/OneDrive/Desktop/GD32VW553/GD32VW55X_Wifi_BLE_SDK/GD32VW55x_RELEASE_V1.0.2/MSDK/lwip/libcoap-4.3.4/src\coap_io_lwip.c ****   packet->length = p->len;
 406              		.loc 1 235 3
 407              		.loc 1 235 21 is_stmt 0
 408 005e 83D7A400 		lhu	a5,10(s1)
 409 0062 232AF900 		sw	a5,20(s2)
 236:C:/Users/stapi/OneDrive/Desktop/GD32VW553/GD32VW55X_Wifi_BLE_SDK/GD32VW55x_RELEASE_V1.0.2/MSDK/lwip/libcoap-4.3.4/src\coap_io_lwip.c ****   packet->payload = p->payload;
 410              		.loc 1 236 3 is_stmt 1
 411              		.loc 1 236 19 is_stmt 0
 412 0066 DC40     		lw	a5,4(s1)
 237:C:/Users/stapi/OneDrive/Desktop/GD32VW553/GD32VW55X_Wifi_BLE_SDK/GD32VW55x_RELEASE_V1.0.2/MSDK/lwip/libcoap-4.3.4/src\coap_io_lwip.c ****   packet->addr_info.remote.port = port;
 413              		.loc 1 237 33
 414 0068 23105901 		sh	s5,0(s2)
 236:C:/Users/stapi/OneDrive/Desktop/GD32VW553/GD32VW55X_Wifi_BLE_SDK/GD32VW55x_RELEASE_V1.0.2/MSDK/lwip/libcoap-4.3.4/src\coap_io_lwip.c ****   packet->payload = p->payload;
 415              		.loc 1 236 19
 416 006c 232CF900 		sw	a5,24(s2)
 417              		.loc 1 237 3 is_stmt 1
 238:C:/Users/stapi/OneDrive/Desktop/GD32VW553/GD32VW55X_Wifi_BLE_SDK/GD32VW55x_RELEASE_V1.0.2/MSDK/lwip/libcoap-4.3.4/src\coap_io_lwip.c ****   packet->addr_info.remote.addr = *addr;
 418              		.loc 1 238 3
 419              		.loc 1 238 33 is_stmt 0
 420 0070 83A70900 		lw	a5,0(s3)
 421 0074 2322F900 		sw	a5,4(s2)
 239:C:/Users/stapi/OneDrive/Desktop/GD32VW553/GD32VW55X_Wifi_BLE_SDK/GD32VW55x_RELEASE_V1.0.2/MSDK/lwip/libcoap-4.3.4/src\coap_io_lwip.c ****   packet->addr_info.local.port = upcb->local_port;
 422              		.loc 1 239 3 is_stmt 1
 423              		.loc 1 239 32 is_stmt 0
 424 0078 83572401 		lhu	a5,18(s0)
 425 007c 2314F900 		sh	a5,8(s2)
 240:C:/Users/stapi/OneDrive/Desktop/GD32VW553/GD32VW55X_Wifi_BLE_SDK/GD32VW55x_RELEASE_V1.0.2/MSDK/lwip/libcoap-4.3.4/src\coap_io_lwip.c ****   packet->addr_info.local.addr = *ip_current_dest_addr();
 426              		.loc 1 240 3 is_stmt 1
 427              		.loc 1 240 32 is_stmt 0
 428 0080 B7070000 		lui	a5,%hi(ip_data)
 429 0084 93870700 		addi	a5,a5,%lo(ip_data)
 430 0088 D84B     		lw	a4,20(a5)
 241:C:/Users/stapi/OneDrive/Desktop/GD32VW553/GD32VW55X_Wifi_BLE_SDK/GD32VW55x_RELEASE_V1.0.2/MSDK/lwip/libcoap-4.3.4/src\coap_io_lwip.c ****   packet->ifindex = netif_get_index(ip_current_netif());
 431              		.loc 1 241 21
 432 008a 9C43     		lw	a5,0(a5)
 240:C:/Users/stapi/OneDrive/Desktop/GD32VW553/GD32VW55X_Wifi_BLE_SDK/GD32VW55x_RELEASE_V1.0.2/MSDK/lwip/libcoap-4.3.4/src\coap_io_lwip.c ****   packet->addr_info.local.addr = *ip_current_dest_addr();
 433              		.loc 1 240 32
 434 008c 2326E900 		sw	a4,12(s2)
 435              		.loc 1 241 3 is_stmt 1
 436              		.loc 1 241 21 is_stmt 0
 437 0090 83C74703 		lbu	a5,52(a5)
 438 0094 8507     		addi	a5,a5,1
 439 0096 93F7F70F 		andi	a5,a5,0xff
 440 009a 2328F900 		sw	a5,16(s2)
 242:C:/Users/stapi/OneDrive/Desktop/GD32VW553/GD32VW55X_Wifi_BLE_SDK/GD32VW55x_RELEASE_V1.0.2/MSDK/lwip/libcoap-4.3.4/src\coap_io_lwip.c **** 
 243:C:/Users/stapi/OneDrive/Desktop/GD32VW553/GD32VW55X_Wifi_BLE_SDK/GD32VW55x_RELEASE_V1.0.2/MSDK/lwip/libcoap-4.3.4/src\coap_io_lwip.c ****   coap_ticks(&now);
 441              		.loc 1 243 3 is_stmt 1
 442              	.LVL52:
 443              	.LBB28:
 444              	.LBB29:
 445              		.loc 2 41 3
 446              		.loc 2 41 8 is_stmt 0
 447 009e 97000000 		call	sys_now
 447      E7800000 
 448              	.LVL53:
 449              	.LBE29:
 450              	.LBE28:
 244:C:/Users/stapi/OneDrive/Desktop/GD32VW553/GD32VW55X_Wifi_BLE_SDK/GD32VW55x_RELEASE_V1.0.2/MSDK/lwip/libcoap-4.3.4/src\coap_io_lwip.c **** 
 245:C:/Users/stapi/OneDrive/Desktop/GD32VW553/GD32VW55X_Wifi_BLE_SDK/GD32VW55x_RELEASE_V1.0.2/MSDK/lwip/libcoap-4.3.4/src\coap_io_lwip.c ****   session = coap_endpoint_get_session(ep, packet, now);
 451              		.loc 1 245 13
 452 00a6 2A86     		mv	a2,a0
 453              	.LBB31:
 454              	.LBB30:
 455              		.loc 2 41 8
 456 00a8 AA89     		mv	s3,a0
 457              	.LVL54:
 458              	.LBE30:
 459              	.LBE31:
 460              		.loc 1 245 3 is_stmt 1
 461              		.loc 1 245 13 is_stmt 0
 462 00aa CA85     		mv	a1,s2
 463 00ac 5285     		mv	a0,s4
 464              	.LVL55:
 465 00ae 97000000 		call	coap_endpoint_get_session
 465      E7800000 
 466              	.LVL56:
 467 00b6 2A84     		mv	s0,a0
 468              	.LVL57:
 246:C:/Users/stapi/OneDrive/Desktop/GD32VW553/GD32VW55X_Wifi_BLE_SDK/GD32VW55x_RELEASE_V1.0.2/MSDK/lwip/libcoap-4.3.4/src\coap_io_lwip.c ****   if (!session)
 469              		.loc 1 246 3 is_stmt 1
 470              		.loc 1 246 6 is_stmt 0
 471 00b8 63040512 		beq	a0,zero,.L32
 247:C:/Users/stapi/OneDrive/Desktop/GD32VW553/GD32VW55X_Wifi_BLE_SDK/GD32VW55x_RELEASE_V1.0.2/MSDK/lwip/libcoap-4.3.4/src\coap_io_lwip.c ****     goto error;
 248:C:/Users/stapi/OneDrive/Desktop/GD32VW553/GD32VW55X_Wifi_BLE_SDK/GD32VW55x_RELEASE_V1.0.2/MSDK/lwip/libcoap-4.3.4/src\coap_io_lwip.c ****   LWIP_ASSERT("Proto not supported for LWIP", COAP_PROTO_NOT_RELIABLE(session->proto));
 472              		.loc 1 248 3 is_stmt 1
 473              		.loc 1 248 3
 474 00bc 1C41     		lw	a5,0(a0)
 475 00be 0547     		li	a4,1
 476 00c0 FD17     		addi	a5,a5,-1
 477 00c2 6375F702 		bleu	a5,a4,.L33
 478              		.loc 1 248 3
 479              		.loc 1 248 3
 480 00c6 B7060000 		lui	a3,%hi(.LC1)
 481 00ca B7050000 		lui	a1,%hi(.LC2)
 482 00ce 37050000 		lui	a0,%hi(.LC3)
 483 00d2 93860600 		addi	a3,a3,%lo(.LC1)
 484 00d6 1306800F 		li	a2,248
 485 00da 93850500 		addi	a1,a1,%lo(.LC2)
 486 00de 13050500 		addi	a0,a0,%lo(.LC3)
 487 00e2 97000000 		call	printf
 487      E7800000 
 488              	.LVL58:
 489              	.L34:
 490              		.loc 1 248 3
 491              		.loc 1 248 3
 492              		.loc 1 248 3
 493 00ea 01A0     		j	.L34
 494              	.L33:
 495              		.loc 1 248 3
 496              		.loc 1 248 3
 249:C:/Users/stapi/OneDrive/Desktop/GD32VW553/GD32VW55X_Wifi_BLE_SDK/GD32VW55x_RELEASE_V1.0.2/MSDK/lwip/libcoap-4.3.4/src\coap_io_lwip.c **** 
 250:C:/Users/stapi/OneDrive/Desktop/GD32VW553/GD32VW55X_Wifi_BLE_SDK/GD32VW55x_RELEASE_V1.0.2/MSDK/lwip/libcoap-4.3.4/src\coap_io_lwip.c ****   coap_log_debug("*  %s: lwip:  recv %4d bytes\n",
 497              		.loc 1 250 3
 498              		.loc 1 250 3
 499 00ec 97000000 		call	coap_get_log_level
 499      E7800000 
 500              	.LVL59:
 501 00f4 9947     		li	a5,6
 502 00f6 63D3A702 		ble	a0,a5,.L35
 503              		.loc 1 250 3
 504 00fa 2285     		mv	a0,s0
 505 00fc 97000000 		call	coap_session_str
 505      E7800000 
 506              	.LVL60:
 507 0104 83D6A400 		lhu	a3,10(s1)
 508 0108 B7050000 		lui	a1,%hi(.LC4)
 509 010c 2A86     		mv	a2,a0
 510 010e 93850500 		addi	a1,a1,%lo(.LC4)
 511 0112 1D45     		li	a0,7
 512 0114 97000000 		call	coap_log_impl
 512      E7800000 
 513              	.LVL61:
 514              	.L35:
 515              		.loc 1 250 3
 251:C:/Users/stapi/OneDrive/Desktop/GD32VW553/GD32VW55X_Wifi_BLE_SDK/GD32VW55x_RELEASE_V1.0.2/MSDK/lwip/libcoap-4.3.4/src\coap_io_lwip.c ****                  coap_session_str(session), p->len);
 252:C:/Users/stapi/OneDrive/Desktop/GD32VW553/GD32VW55X_Wifi_BLE_SDK/GD32VW55x_RELEASE_V1.0.2/MSDK/lwip/libcoap-4.3.4/src\coap_io_lwip.c **** 
 253:C:/Users/stapi/OneDrive/Desktop/GD32VW553/GD32VW55X_Wifi_BLE_SDK/GD32VW55x_RELEASE_V1.0.2/MSDK/lwip/libcoap-4.3.4/src\coap_io_lwip.c ****   if (session->proto == COAP_PROTO_DTLS) {
 516              		.loc 1 253 3
 517              		.loc 1 253 6 is_stmt 0
 518 011c 1840     		lw	a4,0(s0)
 519 011e 8947     		li	a5,2
 520 0120 631DF706 		bne	a4,a5,.L36
 254:C:/Users/stapi/OneDrive/Desktop/GD32VW553/GD32VW55X_Wifi_BLE_SDK/GD32VW55x_RELEASE_V1.0.2/MSDK/lwip/libcoap-4.3.4/src\coap_io_lwip.c ****     if (session->type == COAP_SESSION_TYPE_HELLO)
 521              		.loc 1 254 5 is_stmt 1
 522              		.loc 1 254 8 is_stmt 0
 523 0124 5840     		lw	a4,4(s0)
 524 0126 8D47     		li	a5,3
 525 0128 631CF704 		bne	a4,a5,.L37
 255:C:/Users/stapi/OneDrive/Desktop/GD32VW553/GD32VW55X_Wifi_BLE_SDK/GD32VW55x_RELEASE_V1.0.2/MSDK/lwip/libcoap-4.3.4/src\coap_io_lwip.c ****       result = coap_dtls_hello(session, p->payload, p->len);
 526              		.loc 1 255 7 is_stmt 1
 527              		.loc 1 255 16 is_stmt 0
 528 012c 03D6A400 		lhu	a2,10(s1)
 529 0130 CC40     		lw	a1,4(s1)
 530 0132 2285     		mv	a0,s0
 531 0134 97000000 		call	coap_dtls_hello
 531      E7800000 
 532              	.LVL62:
 533              	.L38:
 256:C:/Users/stapi/OneDrive/Desktop/GD32VW553/GD32VW55X_Wifi_BLE_SDK/GD32VW55x_RELEASE_V1.0.2/MSDK/lwip/libcoap-4.3.4/src\coap_io_lwip.c ****     else if (session->tls)
 257:C:/Users/stapi/OneDrive/Desktop/GD32VW553/GD32VW55X_Wifi_BLE_SDK/GD32VW55x_RELEASE_V1.0.2/MSDK/lwip/libcoap-4.3.4/src\coap_io_lwip.c ****       result = coap_dtls_receive(session, p->payload, p->len);
 258:C:/Users/stapi/OneDrive/Desktop/GD32VW553/GD32VW55X_Wifi_BLE_SDK/GD32VW55x_RELEASE_V1.0.2/MSDK/lwip/libcoap-4.3.4/src\coap_io_lwip.c ****     if (session->type == COAP_SESSION_TYPE_HELLO && result == 1)
 534              		.loc 1 258 5 is_stmt 1
 535              		.loc 1 258 8 is_stmt 0
 536 013c 5840     		lw	a4,4(s0)
 537 013e 8D47     		li	a5,3
 538 0140 631BF700 		bne	a4,a5,.L39
 539              		.loc 1 258 50
 540 0144 8547     		li	a5,1
 541 0146 6318F500 		bne	a0,a5,.L39
 259:C:/Users/stapi/OneDrive/Desktop/GD32VW553/GD32VW55X_Wifi_BLE_SDK/GD32VW55x_RELEASE_V1.0.2/MSDK/lwip/libcoap-4.3.4/src\coap_io_lwip.c ****       coap_session_new_dtls_session(session, now);
 542              		.loc 1 259 7 is_stmt 1
 543 014a CE85     		mv	a1,s3
 544 014c 2285     		mv	a0,s0
 545              	.LVL63:
 546 014e 97000000 		call	coap_session_new_dtls_session
 546      E7800000 
 547              	.LVL64:
 548              	.L39:
 260:C:/Users/stapi/OneDrive/Desktop/GD32VW553/GD32VW55X_Wifi_BLE_SDK/GD32VW55x_RELEASE_V1.0.2/MSDK/lwip/libcoap-4.3.4/src\coap_io_lwip.c ****     pbuf_free(p);
 549              		.loc 1 260 5
 550 0156 2685     		mv	a0,s1
 551 0158 97000000 		call	pbuf_free
 551      E7800000 
 552              	.LVL65:
 217:C:/Users/stapi/OneDrive/Desktop/GD32VW553/GD32VW55X_Wifi_BLE_SDK/GD32VW55x_RELEASE_V1.0.2/MSDK/lwip/libcoap-4.3.4/src\coap_io_lwip.c ****   coap_session_t *session = NULL;
 553              		.loc 1 217 15 is_stmt 0
 554 0160 8149     		li	s3,0
 555              	.LVL66:
 556              	.L40:
 261:C:/Users/stapi/OneDrive/Desktop/GD32VW553/GD32VW55X_Wifi_BLE_SDK/GD32VW55x_RELEASE_V1.0.2/MSDK/lwip/libcoap-4.3.4/src\coap_io_lwip.c ****   } else {
 262:C:/Users/stapi/OneDrive/Desktop/GD32VW553/GD32VW55X_Wifi_BLE_SDK/GD32VW55x_RELEASE_V1.0.2/MSDK/lwip/libcoap-4.3.4/src\coap_io_lwip.c ****     pdu = coap_pdu_from_pbuf(p);
 263:C:/Users/stapi/OneDrive/Desktop/GD32VW553/GD32VW55X_Wifi_BLE_SDK/GD32VW55x_RELEASE_V1.0.2/MSDK/lwip/libcoap-4.3.4/src\coap_io_lwip.c ****     if (!pdu)
 264:C:/Users/stapi/OneDrive/Desktop/GD32VW553/GD32VW55X_Wifi_BLE_SDK/GD32VW55x_RELEASE_V1.0.2/MSDK/lwip/libcoap-4.3.4/src\coap_io_lwip.c ****       goto error;
 265:C:/Users/stapi/OneDrive/Desktop/GD32VW553/GD32VW55X_Wifi_BLE_SDK/GD32VW55x_RELEASE_V1.0.2/MSDK/lwip/libcoap-4.3.4/src\coap_io_lwip.c **** 
 266:C:/Users/stapi/OneDrive/Desktop/GD32VW553/GD32VW55X_Wifi_BLE_SDK/GD32VW55x_RELEASE_V1.0.2/MSDK/lwip/libcoap-4.3.4/src\coap_io_lwip.c ****     if (!coap_pdu_parse(ep->proto, p->payload, p->len, pdu)) {
 267:C:/Users/stapi/OneDrive/Desktop/GD32VW553/GD32VW55X_Wifi_BLE_SDK/GD32VW55x_RELEASE_V1.0.2/MSDK/lwip/libcoap-4.3.4/src\coap_io_lwip.c ****       goto error;
 268:C:/Users/stapi/OneDrive/Desktop/GD32VW553/GD32VW55X_Wifi_BLE_SDK/GD32VW55x_RELEASE_V1.0.2/MSDK/lwip/libcoap-4.3.4/src\coap_io_lwip.c ****     }
 269:C:/Users/stapi/OneDrive/Desktop/GD32VW553/GD32VW55X_Wifi_BLE_SDK/GD32VW55x_RELEASE_V1.0.2/MSDK/lwip/libcoap-4.3.4/src\coap_io_lwip.c ****     coap_dispatch(ep->context, session, pdu);
 270:C:/Users/stapi/OneDrive/Desktop/GD32VW553/GD32VW55X_Wifi_BLE_SDK/GD32VW55x_RELEASE_V1.0.2/MSDK/lwip/libcoap-4.3.4/src\coap_io_lwip.c ****   }
 271:C:/Users/stapi/OneDrive/Desktop/GD32VW553/GD32VW55X_Wifi_BLE_SDK/GD32VW55x_RELEASE_V1.0.2/MSDK/lwip/libcoap-4.3.4/src\coap_io_lwip.c **** 
 272:C:/Users/stapi/OneDrive/Desktop/GD32VW553/GD32VW55X_Wifi_BLE_SDK/GD32VW55x_RELEASE_V1.0.2/MSDK/lwip/libcoap-4.3.4/src\coap_io_lwip.c ****   coap_delete_pdu(pdu);
 557              		.loc 1 272 3 is_stmt 1
 558 0162 4E85     		mv	a0,s3
 559              	.LVL67:
 560              	.L54:
 273:C:/Users/stapi/OneDrive/Desktop/GD32VW553/GD32VW55X_Wifi_BLE_SDK/GD32VW55x_RELEASE_V1.0.2/MSDK/lwip/libcoap-4.3.4/src\coap_io_lwip.c ****   coap_free_packet(packet);
 274:C:/Users/stapi/OneDrive/Desktop/GD32VW553/GD32VW55X_Wifi_BLE_SDK/GD32VW55x_RELEASE_V1.0.2/MSDK/lwip/libcoap-4.3.4/src\coap_io_lwip.c ****   return;
 275:C:/Users/stapi/OneDrive/Desktop/GD32VW553/GD32VW55X_Wifi_BLE_SDK/GD32VW55x_RELEASE_V1.0.2/MSDK/lwip/libcoap-4.3.4/src\coap_io_lwip.c **** 
 276:C:/Users/stapi/OneDrive/Desktop/GD32VW553/GD32VW55X_Wifi_BLE_SDK/GD32VW55x_RELEASE_V1.0.2/MSDK/lwip/libcoap-4.3.4/src\coap_io_lwip.c **** error:
 277:C:/Users/stapi/OneDrive/Desktop/GD32VW553/GD32VW55X_Wifi_BLE_SDK/GD32VW55x_RELEASE_V1.0.2/MSDK/lwip/libcoap-4.3.4/src\coap_io_lwip.c ****   /*
 278:C:/Users/stapi/OneDrive/Desktop/GD32VW553/GD32VW55X_Wifi_BLE_SDK/GD32VW55x_RELEASE_V1.0.2/MSDK/lwip/libcoap-4.3.4/src\coap_io_lwip.c ****    * https://rfc-editor.org/rfc/rfc7252#section-4.2 MUST send RST
 279:C:/Users/stapi/OneDrive/Desktop/GD32VW553/GD32VW55X_Wifi_BLE_SDK/GD32VW55x_RELEASE_V1.0.2/MSDK/lwip/libcoap-4.3.4/src\coap_io_lwip.c ****    * https://rfc-editor.org/rfc/rfc7252#section-4.3 MAY send RST
 280:C:/Users/stapi/OneDrive/Desktop/GD32VW553/GD32VW55X_Wifi_BLE_SDK/GD32VW55x_RELEASE_V1.0.2/MSDK/lwip/libcoap-4.3.4/src\coap_io_lwip.c ****    */
 281:C:/Users/stapi/OneDrive/Desktop/GD32VW553/GD32VW55X_Wifi_BLE_SDK/GD32VW55x_RELEASE_V1.0.2/MSDK/lwip/libcoap-4.3.4/src\coap_io_lwip.c ****   if (session)
 282:C:/Users/stapi/OneDrive/Desktop/GD32VW553/GD32VW55X_Wifi_BLE_SDK/GD32VW55x_RELEASE_V1.0.2/MSDK/lwip/libcoap-4.3.4/src\coap_io_lwip.c ****     coap_send_rst(session, pdu);
 283:C:/Users/stapi/OneDrive/Desktop/GD32VW553/GD32VW55X_Wifi_BLE_SDK/GD32VW55x_RELEASE_V1.0.2/MSDK/lwip/libcoap-4.3.4/src\coap_io_lwip.c ****   coap_delete_pdu(pdu);
 561              		.loc 1 283 3 is_stmt 0
 562 0164 97000000 		call	coap_delete_pdu
 562      E7800000 
 563              	.LVL68:
 284:C:/Users/stapi/OneDrive/Desktop/GD32VW553/GD32VW55X_Wifi_BLE_SDK/GD32VW55x_RELEASE_V1.0.2/MSDK/lwip/libcoap-4.3.4/src\coap_io_lwip.c ****   coap_free_packet(packet);
 564              		.loc 1 284 3 is_stmt 1
 565              	.LBB32:
 566              	.LBB33:
 202:C:/Users/stapi/OneDrive/Desktop/GD32VW553/GD32VW55X_Wifi_BLE_SDK/GD32VW55x_RELEASE_V1.0.2/MSDK/lwip/libcoap-4.3.4/src\coap_io_lwip.c **** }
 567              		.loc 1 202 3
 568 016c CA85     		mv	a1,s2
 569 016e 0D45     		li	a0,3
 570 0170 97000000 		call	coap_free_type
 570      E7800000 
 571              	.LVL69:
 572              	.L28:
 573              	.LBE33:
 574              	.LBE32:
 575              	.LBE27:
 576              	.LBE26:
 285:C:/Users/stapi/OneDrive/Desktop/GD32VW553/GD32VW55X_Wifi_BLE_SDK/GD32VW55x_RELEASE_V1.0.2/MSDK/lwip/libcoap-4.3.4/src\coap_io_lwip.c ****   return;
 286:C:/Users/stapi/OneDrive/Desktop/GD32VW553/GD32VW55X_Wifi_BLE_SDK/GD32VW55x_RELEASE_V1.0.2/MSDK/lwip/libcoap-4.3.4/src\coap_io_lwip.c **** }
 577              		.loc 1 286 1 is_stmt 0
 578 0178 17030000 		tail	__riscv_restore_6
 578      67000300 
 579              		.cfi_remember_state
 580              		.cfi_restore 21
 581              		.cfi_restore 20
 582              		.cfi_restore 19
 583              		.cfi_restore 18
 584              		.cfi_restore 9
 585              		.cfi_restore 8
 586              		.cfi_restore 1
 587              		.cfi_def_cfa_offset 0
 588              	.LVL70:
 589              	.L37:
 590              		.cfi_restore_state
 591              	.LBB37:
 592              	.LBB36:
 256:C:/Users/stapi/OneDrive/Desktop/GD32VW553/GD32VW55X_Wifi_BLE_SDK/GD32VW55x_RELEASE_V1.0.2/MSDK/lwip/libcoap-4.3.4/src\coap_io_lwip.c ****       result = coap_dtls_receive(session, p->payload, p->len);
 593              		.loc 1 256 10 is_stmt 1
 256:C:/Users/stapi/OneDrive/Desktop/GD32VW553/GD32VW55X_Wifi_BLE_SDK/GD32VW55x_RELEASE_V1.0.2/MSDK/lwip/libcoap-4.3.4/src\coap_io_lwip.c ****       result = coap_dtls_receive(session, p->payload, p->len);
 594              		.loc 1 256 13 is_stmt 0
 595 0180 8327040B 		lw	a5,176(s0)
 221:C:/Users/stapi/OneDrive/Desktop/GD32VW553/GD32VW55X_Wifi_BLE_SDK/GD32VW55x_RELEASE_V1.0.2/MSDK/lwip/libcoap-4.3.4/src\coap_io_lwip.c **** 
 596              		.loc 1 221 7
 597 0184 7D55     		li	a0,-1
 256:C:/Users/stapi/OneDrive/Desktop/GD32VW553/GD32VW55X_Wifi_BLE_SDK/GD32VW55x_RELEASE_V1.0.2/MSDK/lwip/libcoap-4.3.4/src\coap_io_lwip.c ****       result = coap_dtls_receive(session, p->payload, p->len);
 598              		.loc 1 256 13
 599 0186 DDDB     		beq	a5,zero,.L38
 257:C:/Users/stapi/OneDrive/Desktop/GD32VW553/GD32VW55X_Wifi_BLE_SDK/GD32VW55x_RELEASE_V1.0.2/MSDK/lwip/libcoap-4.3.4/src\coap_io_lwip.c ****     if (session->type == COAP_SESSION_TYPE_HELLO && result == 1)
 600              		.loc 1 257 7 is_stmt 1
 257:C:/Users/stapi/OneDrive/Desktop/GD32VW553/GD32VW55X_Wifi_BLE_SDK/GD32VW55x_RELEASE_V1.0.2/MSDK/lwip/libcoap-4.3.4/src\coap_io_lwip.c ****     if (session->type == COAP_SESSION_TYPE_HELLO && result == 1)
 601              		.loc 1 257 16 is_stmt 0
 602 0188 03D6A400 		lhu	a2,10(s1)
 603 018c CC40     		lw	a1,4(s1)
 604 018e 2285     		mv	a0,s0
 605 0190 97000000 		call	coap_dtls_receive
 605      E7800000 
 606              	.LVL71:
 607 0198 55B7     		j	.L38
 608              	.LVL72:
 609              	.L36:
 262:C:/Users/stapi/OneDrive/Desktop/GD32VW553/GD32VW55X_Wifi_BLE_SDK/GD32VW55x_RELEASE_V1.0.2/MSDK/lwip/libcoap-4.3.4/src\coap_io_lwip.c ****     if (!pdu)
 610              		.loc 1 262 5 is_stmt 1
 262:C:/Users/stapi/OneDrive/Desktop/GD32VW553/GD32VW55X_Wifi_BLE_SDK/GD32VW55x_RELEASE_V1.0.2/MSDK/lwip/libcoap-4.3.4/src\coap_io_lwip.c ****     if (!pdu)
 611              		.loc 1 262 11 is_stmt 0
 612 019a 2685     		mv	a0,s1
 613 019c 97000000 		call	coap_pdu_from_pbuf
 613      E7800000 
 614              	.LVL73:
 615 01a4 AA89     		mv	s3,a0
 616              	.LVL74:
 263:C:/Users/stapi/OneDrive/Desktop/GD32VW553/GD32VW55X_Wifi_BLE_SDK/GD32VW55x_RELEASE_V1.0.2/MSDK/lwip/libcoap-4.3.4/src\coap_io_lwip.c ****       goto error;
 617              		.loc 1 263 5 is_stmt 1
 263:C:/Users/stapi/OneDrive/Desktop/GD32VW553/GD32VW55X_Wifi_BLE_SDK/GD32VW55x_RELEASE_V1.0.2/MSDK/lwip/libcoap-4.3.4/src\coap_io_lwip.c ****       goto error;
 618              		.loc 1 263 8 is_stmt 0
 619 01a6 0DC5     		beq	a0,zero,.L41
 266:C:/Users/stapi/OneDrive/Desktop/GD32VW553/GD32VW55X_Wifi_BLE_SDK/GD32VW55x_RELEASE_V1.0.2/MSDK/lwip/libcoap-4.3.4/src\coap_io_lwip.c ****       goto error;
 620              		.loc 1 266 5 is_stmt 1
 266:C:/Users/stapi/OneDrive/Desktop/GD32VW553/GD32VW55X_Wifi_BLE_SDK/GD32VW55x_RELEASE_V1.0.2/MSDK/lwip/libcoap-4.3.4/src\coap_io_lwip.c ****       goto error;
 621              		.loc 1 266 10 is_stmt 0
 622 01a8 AA86     		mv	a3,a0
 623 01aa 03D6A400 		lhu	a2,10(s1)
 624 01ae CC40     		lw	a1,4(s1)
 625 01b0 03258A00 		lw	a0,8(s4)
 626              	.LVL75:
 627 01b4 97000000 		call	coap_pdu_parse
 627      E7800000 
 628              	.LVL76:
 266:C:/Users/stapi/OneDrive/Desktop/GD32VW553/GD32VW55X_Wifi_BLE_SDK/GD32VW55x_RELEASE_V1.0.2/MSDK/lwip/libcoap-4.3.4/src\coap_io_lwip.c ****       goto error;
 629              		.loc 1 266 8
 630 01bc 11C9     		beq	a0,zero,.L41
 269:C:/Users/stapi/OneDrive/Desktop/GD32VW553/GD32VW55X_Wifi_BLE_SDK/GD32VW55x_RELEASE_V1.0.2/MSDK/lwip/libcoap-4.3.4/src\coap_io_lwip.c ****   }
 631              		.loc 1 269 5 is_stmt 1
 632 01be 03254A00 		lw	a0,4(s4)
 633 01c2 4E86     		mv	a2,s3
 634 01c4 A285     		mv	a1,s0
 635 01c6 97000000 		call	coap_dispatch
 635      E7800000 
 636              	.LVL77:
 637 01ce 51BF     		j	.L40
 638              	.L41:
 281:C:/Users/stapi/OneDrive/Desktop/GD32VW553/GD32VW55X_Wifi_BLE_SDK/GD32VW55x_RELEASE_V1.0.2/MSDK/lwip/libcoap-4.3.4/src\coap_io_lwip.c ****     coap_send_rst(session, pdu);
 639              		.loc 1 281 3
 282:C:/Users/stapi/OneDrive/Desktop/GD32VW553/GD32VW55X_Wifi_BLE_SDK/GD32VW55x_RELEASE_V1.0.2/MSDK/lwip/libcoap-4.3.4/src\coap_io_lwip.c ****   coap_delete_pdu(pdu);
 640              		.loc 1 282 5
 641              	.LVL78:
 642              	.LBB34:
 643              	.LBB35:
 644              		.loc 3 477 3
 645              		.loc 3 477 10 is_stmt 0
 646 01d0 2285     		mv	a0,s0
 647 01d2 0D46     		li	a2,3
 648 01d4 CE85     		mv	a1,s3
 649 01d6 97000000 		call	coap_send_message_type
 649      E7800000 
 650              	.LVL79:
 651 01de 4E84     		mv	s0,s3
 652              	.LVL80:
 653              	.L32:
 654              	.LBE35:
 655              	.LBE34:
 283:C:/Users/stapi/OneDrive/Desktop/GD32VW553/GD32VW55X_Wifi_BLE_SDK/GD32VW55x_RELEASE_V1.0.2/MSDK/lwip/libcoap-4.3.4/src\coap_io_lwip.c ****   coap_free_packet(packet);
 656              		.loc 1 283 3 is_stmt 1
 657 01e0 2285     		mv	a0,s0
 658 01e2 49B7     		j	.L54
 659              	.LBE36:
 660              	.LBE37:
 661              		.cfi_endproc
 662              	.LFE38:
 664              		.section	.text.coap_lwip_dump_memory_pools,"ax",@progbits
 665              		.align	1
 666              		.globl	coap_lwip_dump_memory_pools
 668              	coap_lwip_dump_memory_pools:
 669              	.LFB31:
  23:C:/Users/stapi/OneDrive/Desktop/GD32VW553/GD32VW55X_Wifi_BLE_SDK/GD32VW55x_RELEASE_V1.0.2/MSDK/lwip/libcoap-4.3.4/src\coap_io_lwip.c **** #if MEMP_STATS && LWIP_STATS_DISPLAY
 670              		.loc 1 23 51
 671              		.cfi_startproc
 672              	.LVL81:
  44:C:/Users/stapi/OneDrive/Desktop/GD32VW553/GD32VW55X_Wifi_BLE_SDK/GD32VW55x_RELEASE_V1.0.2/MSDK/lwip/libcoap-4.3.4/src\coap_io_lwip.c **** 
 673              		.loc 1 44 1
 674 0000 8280     		ret
 675              		.cfi_endproc
 676              	.LFE31:
 678              		.section	.text.coap_lwip_set_input_wait_handler,"ax",@progbits
 679              		.align	1
 680              		.globl	coap_lwip_set_input_wait_handler
 682              	coap_lwip_set_input_wait_handler:
 683              	.LFB32:
  49:C:/Users/stapi/OneDrive/Desktop/GD32VW553/GD32VW55X_Wifi_BLE_SDK/GD32VW55x_RELEASE_V1.0.2/MSDK/lwip/libcoap-4.3.4/src\coap_io_lwip.c ****   context->input_wait = handler;
 684              		.loc 1 49 51
 685              		.cfi_startproc
 686              	.LVL82:
  50:C:/Users/stapi/OneDrive/Desktop/GD32VW553/GD32VW55X_Wifi_BLE_SDK/GD32VW55x_RELEASE_V1.0.2/MSDK/lwip/libcoap-4.3.4/src\coap_io_lwip.c ****   context->input_arg = input_arg;
 687              		.loc 1 50 3
  50:C:/Users/stapi/OneDrive/Desktop/GD32VW553/GD32VW55X_Wifi_BLE_SDK/GD32VW55x_RELEASE_V1.0.2/MSDK/lwip/libcoap-4.3.4/src\coap_io_lwip.c ****   context->input_arg = input_arg;
 688              		.loc 1 50 23 is_stmt 0
 689 0000 0CD9     		sw	a1,48(a0)
  51:C:/Users/stapi/OneDrive/Desktop/GD32VW553/GD32VW55X_Wifi_BLE_SDK/GD32VW55x_RELEASE_V1.0.2/MSDK/lwip/libcoap-4.3.4/src\coap_io_lwip.c **** }
 690              		.loc 1 51 3 is_stmt 1
  51:C:/Users/stapi/OneDrive/Desktop/GD32VW553/GD32VW55X_Wifi_BLE_SDK/GD32VW55x_RELEASE_V1.0.2/MSDK/lwip/libcoap-4.3.4/src\coap_io_lwip.c **** }
 691              		.loc 1 51 22 is_stmt 0
 692 0002 50D9     		sw	a2,52(a0)
  52:C:/Users/stapi/OneDrive/Desktop/GD32VW553/GD32VW55X_Wifi_BLE_SDK/GD32VW55x_RELEASE_V1.0.2/MSDK/lwip/libcoap-4.3.4/src\coap_io_lwip.c **** 
 693              		.loc 1 52 1
 694 0004 8280     		ret
 695              		.cfi_endproc
 696              	.LFE32:
 698              		.section	.text.coap_io_process,"ax",@progbits
 699              		.align	1
 700              		.globl	coap_io_process
 702              	coap_io_process:
 703              	.LFB34:
  80:C:/Users/stapi/OneDrive/Desktop/GD32VW553/GD32VW55X_Wifi_BLE_SDK/GD32VW55x_RELEASE_V1.0.2/MSDK/lwip/libcoap-4.3.4/src\coap_io_lwip.c ****   coap_tick_t before;
 704              		.loc 1 80 63 is_stmt 1
 705              		.cfi_startproc
 706              	.LVL83:
 707 0000 17030000 		call	t0,__riscv_save_5
 707      E7020300 
 708              		.cfi_offset 20, -24
 709              		.cfi_offset 19, -20
 710              		.cfi_offset 18, -16
 711              		.cfi_offset 9, -12
 712              		.cfi_offset 8, -8
 713              		.cfi_offset 1, -4
 714              		.cfi_def_cfa_offset 32
  81:C:/Users/stapi/OneDrive/Desktop/GD32VW553/GD32VW55X_Wifi_BLE_SDK/GD32VW55x_RELEASE_V1.0.2/MSDK/lwip/libcoap-4.3.4/src\coap_io_lwip.c ****   coap_tick_t now;
 715              		.loc 1 81 3
  82:C:/Users/stapi/OneDrive/Desktop/GD32VW553/GD32VW55X_Wifi_BLE_SDK/GD32VW55x_RELEASE_V1.0.2/MSDK/lwip/libcoap-4.3.4/src\coap_io_lwip.c ****   unsigned int num_sockets;
 716              		.loc 1 82 3
  83:C:/Users/stapi/OneDrive/Desktop/GD32VW553/GD32VW55X_Wifi_BLE_SDK/GD32VW55x_RELEASE_V1.0.2/MSDK/lwip/libcoap-4.3.4/src\coap_io_lwip.c ****   unsigned int timeout;
 717              		.loc 1 83 3
  84:C:/Users/stapi/OneDrive/Desktop/GD32VW553/GD32VW55X_Wifi_BLE_SDK/GD32VW55x_RELEASE_V1.0.2/MSDK/lwip/libcoap-4.3.4/src\coap_io_lwip.c **** 
 718              		.loc 1 84 3
  86:C:/Users/stapi/OneDrive/Desktop/GD32VW553/GD32VW55X_Wifi_BLE_SDK/GD32VW55x_RELEASE_V1.0.2/MSDK/lwip/libcoap-4.3.4/src\coap_io_lwip.c ****   timeout = coap_io_prepare_io(context, NULL, 0, &num_sockets, before);
 719              		.loc 1 86 3
 720              	.LVL84:
 721              	.LBB42:
 722              	.LBB43:
 723              		.loc 2 41 3
 724              	.LBE43:
 725              	.LBE42:
  80:C:/Users/stapi/OneDrive/Desktop/GD32VW553/GD32VW55X_Wifi_BLE_SDK/GD32VW55x_RELEASE_V1.0.2/MSDK/lwip/libcoap-4.3.4/src\coap_io_lwip.c ****   coap_tick_t before;
 726              		.loc 1 80 63 is_stmt 0
 727 0008 4111     		addi	sp,sp,-16
 728              		.cfi_def_cfa_offset 48
  80:C:/Users/stapi/OneDrive/Desktop/GD32VW553/GD32VW55X_Wifi_BLE_SDK/GD32VW55x_RELEASE_V1.0.2/MSDK/lwip/libcoap-4.3.4/src\coap_io_lwip.c ****   coap_tick_t before;
 729              		.loc 1 80 63
 730 000a 2E89     		mv	s2,a1
 731 000c 2A84     		mv	s0,a0
 732              	.LBB46:
 733              	.LBB44:
 734              		.loc 2 41 8
 735 000e 97000000 		call	sys_now
 735      E7800000 
 736              	.LVL85:
 737              	.LBE44:
 738              	.LBE46:
  87:C:/Users/stapi/OneDrive/Desktop/GD32VW553/GD32VW55X_Wifi_BLE_SDK/GD32VW55x_RELEASE_V1.0.2/MSDK/lwip/libcoap-4.3.4/src\coap_io_lwip.c ****   if (timeout_ms != 0 && timeout_ms != COAP_IO_NO_WAIT &&
 739              		.loc 1 87 13
 740 0016 2A87     		mv	a4,a0
 741              	.LBB47:
 742              	.LBB45:
 743              		.loc 2 41 8
 744 0018 AA89     		mv	s3,a0
 745              	.LVL86:
 746              	.LBE45:
 747              	.LBE47:
  87:C:/Users/stapi/OneDrive/Desktop/GD32VW553/GD32VW55X_Wifi_BLE_SDK/GD32VW55x_RELEASE_V1.0.2/MSDK/lwip/libcoap-4.3.4/src\coap_io_lwip.c ****   if (timeout_ms != 0 && timeout_ms != COAP_IO_NO_WAIT &&
 748              		.loc 1 87 3 is_stmt 1
  87:C:/Users/stapi/OneDrive/Desktop/GD32VW553/GD32VW55X_Wifi_BLE_SDK/GD32VW55x_RELEASE_V1.0.2/MSDK/lwip/libcoap-4.3.4/src\coap_io_lwip.c ****   if (timeout_ms != 0 && timeout_ms != COAP_IO_NO_WAIT &&
 749              		.loc 1 87 13 is_stmt 0
 750 001a 7400     		addi	a3,sp,12
 751 001c 0146     		li	a2,0
 752 001e 8145     		li	a1,0
 753 0020 2285     		mv	a0,s0
 754              	.LVL87:
 755 0022 97000000 		call	coap_io_prepare_io
 755      E7800000 
 756              	.LVL88:
  88:C:/Users/stapi/OneDrive/Desktop/GD32VW553/GD32VW55X_Wifi_BLE_SDK/GD32VW55x_RELEASE_V1.0.2/MSDK/lwip/libcoap-4.3.4/src\coap_io_lwip.c ****       timeout > timeout_ms) {
 757              		.loc 1 88 23
 758 002a 1307F9FF 		addi	a4,s2,-1
  88:C:/Users/stapi/OneDrive/Desktop/GD32VW553/GD32VW55X_Wifi_BLE_SDK/GD32VW55x_RELEASE_V1.0.2/MSDK/lwip/libcoap-4.3.4/src\coap_io_lwip.c ****       timeout > timeout_ms) {
 759              		.loc 1 88 6
 760 002e F557     		li	a5,-3
  87:C:/Users/stapi/OneDrive/Desktop/GD32VW553/GD32VW55X_Wifi_BLE_SDK/GD32VW55x_RELEASE_V1.0.2/MSDK/lwip/libcoap-4.3.4/src\coap_io_lwip.c ****   if (timeout_ms != 0 && timeout_ms != COAP_IO_NO_WAIT &&
 761              		.loc 1 87 13
 762 0030 AA84     		mv	s1,a0
 763              	.LVL89:
  88:C:/Users/stapi/OneDrive/Desktop/GD32VW553/GD32VW55X_Wifi_BLE_SDK/GD32VW55x_RELEASE_V1.0.2/MSDK/lwip/libcoap-4.3.4/src\coap_io_lwip.c ****       timeout > timeout_ms) {
 764              		.loc 1 88 3 is_stmt 1
  88:C:/Users/stapi/OneDrive/Desktop/GD32VW553/GD32VW55X_Wifi_BLE_SDK/GD32VW55x_RELEASE_V1.0.2/MSDK/lwip/libcoap-4.3.4/src\coap_io_lwip.c ****       timeout > timeout_ms) {
 765              		.loc 1 88 6 is_stmt 0
 766 0032 63E4E700 		bgtu	a4,a5,.L58
 767 0036 B354250B 		minu	s1,a0,s2
 768              	.LVL90:
 769              	.L58:
  93:C:/Users/stapi/OneDrive/Desktop/GD32VW553/GD32VW55X_Wifi_BLE_SDK/GD32VW55x_RELEASE_V1.0.2/MSDK/lwip/libcoap-4.3.4/src\coap_io_lwip.c **** 
 770              		.loc 1 93 3 is_stmt 1
 771 003a 37090000 		lui	s2,%hi(lock_tcpip_core)
 772              	.LVL91:
 773 003e 13050900 		addi	a0,s2,%lo(lock_tcpip_core)
 774 0042 97000000 		call	sys_mutex_get
 774      E7800000 
 775              	.LVL92:
  95:C:/Users/stapi/OneDrive/Desktop/GD32VW553/GD32VW55X_Wifi_BLE_SDK/GD32VW55x_RELEASE_V1.0.2/MSDK/lwip/libcoap-4.3.4/src\coap_io_lwip.c ****     sys_untimeout(coap_io_process_timeout, (void *)context);
 776              		.loc 1 95 3
  95:C:/Users/stapi/OneDrive/Desktop/GD32VW553/GD32VW55X_Wifi_BLE_SDK/GD32VW55x_RELEASE_V1.0.2/MSDK/lwip/libcoap-4.3.4/src\coap_io_lwip.c ****     sys_untimeout(coap_io_process_timeout, (void *)context);
 777              		.loc 1 95 6 is_stmt 0
 778 004a 83478403 		lbu	a5,56(s0)
 779 004e 370A0000 		lui	s4,%hi(coap_io_process_timeout)
 780 0052 91CB     		beq	a5,zero,.L59
  96:C:/Users/stapi/OneDrive/Desktop/GD32VW553/GD32VW55X_Wifi_BLE_SDK/GD32VW55x_RELEASE_V1.0.2/MSDK/lwip/libcoap-4.3.4/src\coap_io_lwip.c ****     context->timer_configured = 0;
 781              		.loc 1 96 5 is_stmt 1
 782 0054 A285     		mv	a1,s0
 783 0056 13050A00 		addi	a0,s4,%lo(coap_io_process_timeout)
 784 005a 97000000 		call	sys_untimeout
 784      E7800000 
 785              	.LVL93:
  97:C:/Users/stapi/OneDrive/Desktop/GD32VW553/GD32VW55X_Wifi_BLE_SDK/GD32VW55x_RELEASE_V1.0.2/MSDK/lwip/libcoap-4.3.4/src\coap_io_lwip.c ****   }
 786              		.loc 1 97 5
  97:C:/Users/stapi/OneDrive/Desktop/GD32VW553/GD32VW55X_Wifi_BLE_SDK/GD32VW55x_RELEASE_V1.0.2/MSDK/lwip/libcoap-4.3.4/src\coap_io_lwip.c ****   }
 787              		.loc 1 97 31 is_stmt 0
 788 0062 230C0402 		sb	zero,56(s0)
 789              	.L59:
  99:C:/Users/stapi/OneDrive/Desktop/GD32VW553/GD32VW55X_Wifi_BLE_SDK/GD32VW55x_RELEASE_V1.0.2/MSDK/lwip/libcoap-4.3.4/src\coap_io_lwip.c ****     /* Garbage collect 1 sec hence */
 790              		.loc 1 99 3 is_stmt 1
  99:C:/Users/stapi/OneDrive/Desktop/GD32VW553/GD32VW55X_Wifi_BLE_SDK/GD32VW55x_RELEASE_V1.0.2/MSDK/lwip/libcoap-4.3.4/src\coap_io_lwip.c ****     /* Garbage collect 1 sec hence */
 791              		.loc 1 99 6 is_stmt 0
 792 0066 99E0     		bne	s1,zero,.L60
 101:C:/Users/stapi/OneDrive/Desktop/GD32VW553/GD32VW55X_Wifi_BLE_SDK/GD32VW55x_RELEASE_V1.0.2/MSDK/lwip/libcoap-4.3.4/src\coap_io_lwip.c ****   }
 793              		.loc 1 101 13
 794 0068 9304803E 		li	s1,1000
 795              	.LVL94:
 796              	.L60:
 107:C:/Users/stapi/OneDrive/Desktop/GD32VW553/GD32VW55X_Wifi_BLE_SDK/GD32VW55x_RELEASE_V1.0.2/MSDK/lwip/libcoap-4.3.4/src\coap_io_lwip.c ****   context->timer_configured = 1;
 797              		.loc 1 107 3 is_stmt 1
 798 006c 2286     		mv	a2,s0
 799 006e 93050A00 		addi	a1,s4,%lo(coap_io_process_timeout)
 800 0072 2685     		mv	a0,s1
 801 0074 97000000 		call	sys_timeout
 801      E7800000 
 802              	.LVL95:
 108:C:/Users/stapi/OneDrive/Desktop/GD32VW553/GD32VW55X_Wifi_BLE_SDK/GD32VW55x_RELEASE_V1.0.2/MSDK/lwip/libcoap-4.3.4/src\coap_io_lwip.c **** 
 803              		.loc 1 108 3
 108:C:/Users/stapi/OneDrive/Desktop/GD32VW553/GD32VW55X_Wifi_BLE_SDK/GD32VW55x_RELEASE_V1.0.2/MSDK/lwip/libcoap-4.3.4/src\coap_io_lwip.c **** 
 804              		.loc 1 108 29 is_stmt 0
 805 007c 8547     		li	a5,1
 806 007e 230CF402 		sb	a5,56(s0)
 110:C:/Users/stapi/OneDrive/Desktop/GD32VW553/GD32VW55X_Wifi_BLE_SDK/GD32VW55x_RELEASE_V1.0.2/MSDK/lwip/libcoap-4.3.4/src\coap_io_lwip.c **** 
 807              		.loc 1 110 3 is_stmt 1
 808 0082 13050900 		addi	a0,s2,%lo(lock_tcpip_core)
 809 0086 97000000 		call	sys_mutex_put
 809      E7800000 
 810              	.LVL96:
 112:C:/Users/stapi/OneDrive/Desktop/GD32VW553/GD32VW55X_Wifi_BLE_SDK/GD32VW55x_RELEASE_V1.0.2/MSDK/lwip/libcoap-4.3.4/src\coap_io_lwip.c ****     context->input_wait(context->input_arg, timeout);
 811              		.loc 1 112 3
 112:C:/Users/stapi/OneDrive/Desktop/GD32VW553/GD32VW55X_Wifi_BLE_SDK/GD32VW55x_RELEASE_V1.0.2/MSDK/lwip/libcoap-4.3.4/src\coap_io_lwip.c ****     context->input_wait(context->input_arg, timeout);
 812              		.loc 1 112 14 is_stmt 0
 813 008e 1C58     		lw	a5,48(s0)
 112:C:/Users/stapi/OneDrive/Desktop/GD32VW553/GD32VW55X_Wifi_BLE_SDK/GD32VW55x_RELEASE_V1.0.2/MSDK/lwip/libcoap-4.3.4/src\coap_io_lwip.c ****     context->input_wait(context->input_arg, timeout);
 814              		.loc 1 112 6
 815 0090 81C7     		beq	a5,zero,.L61
 113:C:/Users/stapi/OneDrive/Desktop/GD32VW553/GD32VW55X_Wifi_BLE_SDK/GD32VW55x_RELEASE_V1.0.2/MSDK/lwip/libcoap-4.3.4/src\coap_io_lwip.c ****   }
 816              		.loc 1 113 5 is_stmt 1
 817 0092 4858     		lw	a0,52(s0)
 818 0094 A685     		mv	a1,s1
 819 0096 8297     		jalr	a5
 820              	.LVL97:
 821              	.L61:
 116:C:/Users/stapi/OneDrive/Desktop/GD32VW553/GD32VW55X_Wifi_BLE_SDK/GD32VW55x_RELEASE_V1.0.2/MSDK/lwip/libcoap-4.3.4/src\coap_io_lwip.c **** 
 822              		.loc 1 116 3
 823 0098 13050900 		addi	a0,s2,%lo(lock_tcpip_core)
 824 009c 97000000 		call	sys_mutex_get
 824      E7800000 
 825              	.LVL98:
 118:C:/Users/stapi/OneDrive/Desktop/GD32VW553/GD32VW55X_Wifi_BLE_SDK/GD32VW55x_RELEASE_V1.0.2/MSDK/lwip/libcoap-4.3.4/src\coap_io_lwip.c **** 
 826              		.loc 1 118 3
 827 00a4 97000000 		call	sys_check_timeouts
 827      E7800000 
 828              	.LVL99:
 120:C:/Users/stapi/OneDrive/Desktop/GD32VW553/GD32VW55X_Wifi_BLE_SDK/GD32VW55x_RELEASE_V1.0.2/MSDK/lwip/libcoap-4.3.4/src\coap_io_lwip.c **** 
 829              		.loc 1 120 3
 830 00ac 13050900 		addi	a0,s2,%lo(lock_tcpip_core)
 831 00b0 97000000 		call	sys_mutex_put
 831      E7800000 
 832              	.LVL100:
 122:C:/Users/stapi/OneDrive/Desktop/GD32VW553/GD32VW55X_Wifi_BLE_SDK/GD32VW55x_RELEASE_V1.0.2/MSDK/lwip/libcoap-4.3.4/src\coap_io_lwip.c ****   return (int)(((now - before) * 1000) / COAP_TICKS_PER_SECOND);
 833              		.loc 1 122 3
 834              	.LBB48:
 835              	.LBB49:
 836              		.loc 2 41 3
 837              		.loc 2 41 8 is_stmt 0
 838 00b8 97000000 		call	sys_now
 838      E7800000 
 839              	.LVL101:
 840              	.LBE49:
 841              	.LBE48:
 123:C:/Users/stapi/OneDrive/Desktop/GD32VW553/GD32VW55X_Wifi_BLE_SDK/GD32VW55x_RELEASE_V1.0.2/MSDK/lwip/libcoap-4.3.4/src\coap_io_lwip.c **** }
 842              		.loc 1 123 3 is_stmt 1
 123:C:/Users/stapi/OneDrive/Desktop/GD32VW553/GD32VW55X_Wifi_BLE_SDK/GD32VW55x_RELEASE_V1.0.2/MSDK/lwip/libcoap-4.3.4/src\coap_io_lwip.c **** }
 843              		.loc 1 123 32 is_stmt 0
 844 00c0 9307803E 		li	a5,1000
 123:C:/Users/stapi/OneDrive/Desktop/GD32VW553/GD32VW55X_Wifi_BLE_SDK/GD32VW55x_RELEASE_V1.0.2/MSDK/lwip/libcoap-4.3.4/src\coap_io_lwip.c **** }
 845              		.loc 1 123 22
 846 00c4 33053541 		sub	a0,a0,s3
 123:C:/Users/stapi/OneDrive/Desktop/GD32VW553/GD32VW55X_Wifi_BLE_SDK/GD32VW55x_RELEASE_V1.0.2/MSDK/lwip/libcoap-4.3.4/src\coap_io_lwip.c **** }
 847              		.loc 1 123 32
 848 00c8 3305F502 		mul	a0,a0,a5
 124:C:/Users/stapi/OneDrive/Desktop/GD32VW553/GD32VW55X_Wifi_BLE_SDK/GD32VW55x_RELEASE_V1.0.2/MSDK/lwip/libcoap-4.3.4/src\coap_io_lwip.c **** 
 849              		.loc 1 124 1
 850 00cc 4101     		addi	sp,sp,16
 851              		.cfi_def_cfa_offset 0
 852 00ce 3355F502 		divu	a0,a0,a5
 853 00d2 17030000 		tail	__riscv_restore_5
 853      67000300 
 854              		.cfi_restore 20
 855              		.cfi_restore 19
 856              		.cfi_restore 18
 857              		.cfi_restore 9
 858              		.cfi_restore 8
 859              		.cfi_restore 1
 860              		.cfi_def_cfa_offset -32
 861              		.cfi_endproc
 862              	.LFE34:
 864              		.section	.rodata.coap_socket_recv.str1.4,"aMS",@progbits,1
 865              		.align	2
 866              	.LC6:
 867 0000 3000     		.string	"0"
 868              		.section	.text.coap_socket_recv,"ax",@progbits
 869              		.align	1
 870              		.globl	coap_socket_recv
 872              	coap_socket_recv:
 873              	.LFB35:
 130:C:/Users/stapi/OneDrive/Desktop/GD32VW553/GD32VW55X_Wifi_BLE_SDK/GD32VW55x_RELEASE_V1.0.2/MSDK/lwip/libcoap-4.3.4/src\coap_io_lwip.c ****   (void)sock;
 874              		.loc 1 130 62 is_stmt 1
 875              		.cfi_startproc
 876              	.LVL102:
 877 0000 17030000 		call	t0,__riscv_save_0
 877      E7020300 
 878              		.cfi_offset 1, -4
 879              		.cfi_def_cfa_offset 16
 131:C:/Users/stapi/OneDrive/Desktop/GD32VW553/GD32VW55X_Wifi_BLE_SDK/GD32VW55x_RELEASE_V1.0.2/MSDK/lwip/libcoap-4.3.4/src\coap_io_lwip.c ****   (void)packet;
 880              		.loc 1 131 3
 132:C:/Users/stapi/OneDrive/Desktop/GD32VW553/GD32VW55X_Wifi_BLE_SDK/GD32VW55x_RELEASE_V1.0.2/MSDK/lwip/libcoap-4.3.4/src\coap_io_lwip.c ****   assert(0);
 881              		.loc 1 132 3
 133:C:/Users/stapi/OneDrive/Desktop/GD32VW553/GD32VW55X_Wifi_BLE_SDK/GD32VW55x_RELEASE_V1.0.2/MSDK/lwip/libcoap-4.3.4/src\coap_io_lwip.c ****   return -1;
 882              		.loc 1 133 3
 883 0008 B7060000 		lui	a3,%hi(.LC6)
 884 000c 37060000 		lui	a2,%hi(.LANCHOR1)
 885 0010 37050000 		lui	a0,%hi(.LC1)
 886              	.LVL103:
 887 0014 93860600 		addi	a3,a3,%lo(.LC6)
 888 0018 13060600 		addi	a2,a2,%lo(.LANCHOR1)
 889 001c 93055008 		li	a1,133
 890              	.LVL104:
 891 0020 13050500 		addi	a0,a0,%lo(.LC1)
 892 0024 97000000 		call	__assert_func
 892      E7800000 
 893              	.LVL105:
 894              		.cfi_endproc
 895              	.LFE35:
 897              		.section	.text.coap_socket_send_pdu,"ax",@progbits
 898              		.align	1
 899              		.globl	coap_socket_send_pdu
 901              	coap_socket_send_pdu:
 902              	.LFB39:
 287:C:/Users/stapi/OneDrive/Desktop/GD32VW553/GD32VW55X_Wifi_BLE_SDK/GD32VW55x_RELEASE_V1.0.2/MSDK/lwip/libcoap-4.3.4/src\coap_io_lwip.c **** 
 288:C:/Users/stapi/OneDrive/Desktop/GD32VW553/GD32VW55X_Wifi_BLE_SDK/GD32VW55x_RELEASE_V1.0.2/MSDK/lwip/libcoap-4.3.4/src\coap_io_lwip.c **** #endif /* ! COAP_SERVER_SUPPORT */
 289:C:/Users/stapi/OneDrive/Desktop/GD32VW553/GD32VW55X_Wifi_BLE_SDK/GD32VW55x_RELEASE_V1.0.2/MSDK/lwip/libcoap-4.3.4/src\coap_io_lwip.c **** 
 290:C:/Users/stapi/OneDrive/Desktop/GD32VW553/GD32VW55X_Wifi_BLE_SDK/GD32VW55x_RELEASE_V1.0.2/MSDK/lwip/libcoap-4.3.4/src\coap_io_lwip.c **** ssize_t
 291:C:/Users/stapi/OneDrive/Desktop/GD32VW553/GD32VW55X_Wifi_BLE_SDK/GD32VW55x_RELEASE_V1.0.2/MSDK/lwip/libcoap-4.3.4/src\coap_io_lwip.c **** coap_socket_send_pdu(coap_socket_t *sock, coap_session_t *session,
 292:C:/Users/stapi/OneDrive/Desktop/GD32VW553/GD32VW55X_Wifi_BLE_SDK/GD32VW55x_RELEASE_V1.0.2/MSDK/lwip/libcoap-4.3.4/src\coap_io_lwip.c ****                      coap_pdu_t *pdu) {
 903              		.loc 1 292 39
 904              		.cfi_startproc
 905              	.LVL106:
 906 0000 17030000 		call	t0,__riscv_save_5
 906      E7020300 
 907              		.cfi_offset 20, -24
 908              		.cfi_offset 19, -20
 909              		.cfi_offset 18, -16
 910              		.cfi_offset 9, -12
 911              		.cfi_offset 8, -8
 912              		.cfi_offset 1, -4
 913              		.cfi_def_cfa_offset 32
 293:C:/Users/stapi/OneDrive/Desktop/GD32VW553/GD32VW55X_Wifi_BLE_SDK/GD32VW55x_RELEASE_V1.0.2/MSDK/lwip/libcoap-4.3.4/src\coap_io_lwip.c ****   /* FIXME: we can't check this here with the existing infrastructure, but we
 294:C:/Users/stapi/OneDrive/Desktop/GD32VW553/GD32VW55X_Wifi_BLE_SDK/GD32VW55x_RELEASE_V1.0.2/MSDK/lwip/libcoap-4.3.4/src\coap_io_lwip.c ****   * should actually check that the pdu is not held by anyone but us. the
 295:C:/Users/stapi/OneDrive/Desktop/GD32VW553/GD32VW55X_Wifi_BLE_SDK/GD32VW55x_RELEASE_V1.0.2/MSDK/lwip/libcoap-4.3.4/src\coap_io_lwip.c ****   * respective pbuf is already exclusively owned by the pdu. */
 296:C:/Users/stapi/OneDrive/Desktop/GD32VW553/GD32VW55X_Wifi_BLE_SDK/GD32VW55x_RELEASE_V1.0.2/MSDK/lwip/libcoap-4.3.4/src\coap_io_lwip.c ****   struct pbuf *pbuf;
 914              		.loc 1 296 3
 297:C:/Users/stapi/OneDrive/Desktop/GD32VW553/GD32VW55X_Wifi_BLE_SDK/GD32VW55x_RELEASE_V1.0.2/MSDK/lwip/libcoap-4.3.4/src\coap_io_lwip.c ****   int err;
 915              		.loc 1 297 3
 298:C:/Users/stapi/OneDrive/Desktop/GD32VW553/GD32VW55X_Wifi_BLE_SDK/GD32VW55x_RELEASE_V1.0.2/MSDK/lwip/libcoap-4.3.4/src\coap_io_lwip.c **** 
 299:C:/Users/stapi/OneDrive/Desktop/GD32VW553/GD32VW55X_Wifi_BLE_SDK/GD32VW55x_RELEASE_V1.0.2/MSDK/lwip/libcoap-4.3.4/src\coap_io_lwip.c ****   pbuf_realloc(pdu->pbuf, pdu->used_size + coap_pdu_parse_header_size(session->proto,
 916              		.loc 1 299 3
 917 0008 032A4603 		lw	s4,52(a2)
 292:C:/Users/stapi/OneDrive/Desktop/GD32VW553/GD32VW55X_Wifi_BLE_SDK/GD32VW55x_RELEASE_V1.0.2/MSDK/lwip/libcoap-4.3.4/src\coap_io_lwip.c ****   /* FIXME: we can't check this here with the existing infrastructure, but we
 918              		.loc 1 292 39 is_stmt 0
 919 000c 2E89     		mv	s2,a1
 920 000e AA89     		mv	s3,a0
 921              		.loc 1 299 44
 922 0010 83254A00 		lw	a1,4(s4)
 923              	.LVL107:
 924 0014 03250900 		lw	a0,0(s2)
 925              	.LVL108:
 926              		.loc 1 299 3
 927 0018 83544602 		lhu	s1,36(a2)
 292:C:/Users/stapi/OneDrive/Desktop/GD32VW553/GD32VW55X_Wifi_BLE_SDK/GD32VW55x_RELEASE_V1.0.2/MSDK/lwip/libcoap-4.3.4/src\coap_io_lwip.c ****   /* FIXME: we can't check this here with the existing infrastructure, but we
 928              		.loc 1 292 39
 929 001c 3284     		mv	s0,a2
 930              		.loc 1 299 44
 931 001e 97000000 		call	coap_pdu_parse_header_size
 931      E7800000 
 932              	.LVL109:
 933              		.loc 1 299 3
 934 0026 B385A400 		add	a1,s1,a0
 935 002a 5285     		mv	a0,s4
 936 002c B3C50508 		zext.h	a1,a1
 937 0030 97000000 		call	pbuf_realloc
 937      E7800000 
 938              	.LVL110:
 300:C:/Users/stapi/OneDrive/Desktop/GD32VW553/GD32VW55X_Wifi_BLE_SDK/GD32VW55x_RELEASE_V1.0.2/MSDK/lwip/libcoap-4.3.4/src\coap_io_lwip.c ****                pdu->pbuf->payload));
 301:C:/Users/stapi/OneDrive/Desktop/GD32VW553/GD32VW55X_Wifi_BLE_SDK/GD32VW55x_RELEASE_V1.0.2/MSDK/lwip/libcoap-4.3.4/src\coap_io_lwip.c **** 
 302:C:/Users/stapi/OneDrive/Desktop/GD32VW553/GD32VW55X_Wifi_BLE_SDK/GD32VW55x_RELEASE_V1.0.2/MSDK/lwip/libcoap-4.3.4/src\coap_io_lwip.c ****   if (coap_debug_send_packet()) {
 939              		.loc 1 302 3 is_stmt 1
 940              		.loc 1 302 7 is_stmt 0
 941 0038 97000000 		call	coap_debug_send_packet
 941      E7800000 
 942              	.LVL111:
 943              		.loc 1 302 6
 944 0040 11E5     		bne	a0,zero,.L72
 945              	.LVL112:
 946              	.L76:
 303:C:/Users/stapi/OneDrive/Desktop/GD32VW553/GD32VW55X_Wifi_BLE_SDK/GD32VW55x_RELEASE_V1.0.2/MSDK/lwip/libcoap-4.3.4/src\coap_io_lwip.c ****     /* Need to take a copy as we may be re-using the origin in a retransmit */
 304:C:/Users/stapi/OneDrive/Desktop/GD32VW553/GD32VW55X_Wifi_BLE_SDK/GD32VW55x_RELEASE_V1.0.2/MSDK/lwip/libcoap-4.3.4/src\coap_io_lwip.c ****     pbuf = pbuf_clone(PBUF_TRANSPORT, PBUF_RAM, pdu->pbuf);
 305:C:/Users/stapi/OneDrive/Desktop/GD32VW553/GD32VW55X_Wifi_BLE_SDK/GD32VW55x_RELEASE_V1.0.2/MSDK/lwip/libcoap-4.3.4/src\coap_io_lwip.c ****     if (pbuf == NULL)
 306:C:/Users/stapi/OneDrive/Desktop/GD32VW553/GD32VW55X_Wifi_BLE_SDK/GD32VW55x_RELEASE_V1.0.2/MSDK/lwip/libcoap-4.3.4/src\coap_io_lwip.c ****       return -1;
 307:C:/Users/stapi/OneDrive/Desktop/GD32VW553/GD32VW55X_Wifi_BLE_SDK/GD32VW55x_RELEASE_V1.0.2/MSDK/lwip/libcoap-4.3.4/src\coap_io_lwip.c ****     err = udp_sendto(sock->pcb, pbuf, &session->addr_info.remote.addr,
 308:C:/Users/stapi/OneDrive/Desktop/GD32VW553/GD32VW55X_Wifi_BLE_SDK/GD32VW55x_RELEASE_V1.0.2/MSDK/lwip/libcoap-4.3.4/src\coap_io_lwip.c ****                      session->addr_info.remote.port);
 309:C:/Users/stapi/OneDrive/Desktop/GD32VW553/GD32VW55X_Wifi_BLE_SDK/GD32VW55x_RELEASE_V1.0.2/MSDK/lwip/libcoap-4.3.4/src\coap_io_lwip.c ****     pbuf_free(pbuf);
 310:C:/Users/stapi/OneDrive/Desktop/GD32VW553/GD32VW55X_Wifi_BLE_SDK/GD32VW55x_RELEASE_V1.0.2/MSDK/lwip/libcoap-4.3.4/src\coap_io_lwip.c ****     if (err < 0)
 311:C:/Users/stapi/OneDrive/Desktop/GD32VW553/GD32VW55X_Wifi_BLE_SDK/GD32VW55x_RELEASE_V1.0.2/MSDK/lwip/libcoap-4.3.4/src\coap_io_lwip.c ****       return -1;
 312:C:/Users/stapi/OneDrive/Desktop/GD32VW553/GD32VW55X_Wifi_BLE_SDK/GD32VW55x_RELEASE_V1.0.2/MSDK/lwip/libcoap-4.3.4/src\coap_io_lwip.c ****   }
 313:C:/Users/stapi/OneDrive/Desktop/GD32VW553/GD32VW55X_Wifi_BLE_SDK/GD32VW55x_RELEASE_V1.0.2/MSDK/lwip/libcoap-4.3.4/src\coap_io_lwip.c ****   return pdu->used_size;
 947              		.loc 1 313 3 is_stmt 1
 948              		.loc 1 313 13 is_stmt 0
 949 0042 4850     		lw	a0,36(s0)
 950              	.L71:
 314:C:/Users/stapi/OneDrive/Desktop/GD32VW553/GD32VW55X_Wifi_BLE_SDK/GD32VW55x_RELEASE_V1.0.2/MSDK/lwip/libcoap-4.3.4/src\coap_io_lwip.c **** }
 951              		.loc 1 314 1
 952 0044 17030000 		tail	__riscv_restore_5
 952      67000300 
 953              		.cfi_remember_state
 954              		.cfi_restore 20
 955              		.cfi_restore 19
 956              		.cfi_restore 18
 957              		.cfi_restore 9
 958              		.cfi_restore 8
 959              		.cfi_restore 1
 960              		.cfi_def_cfa_offset 0
 961              	.LVL113:
 962              	.L72:
 963              		.cfi_restore_state
 304:C:/Users/stapi/OneDrive/Desktop/GD32VW553/GD32VW55X_Wifi_BLE_SDK/GD32VW55x_RELEASE_V1.0.2/MSDK/lwip/libcoap-4.3.4/src\coap_io_lwip.c ****     if (pbuf == NULL)
 964              		.loc 1 304 5 is_stmt 1
 304:C:/Users/stapi/OneDrive/Desktop/GD32VW553/GD32VW55X_Wifi_BLE_SDK/GD32VW55x_RELEASE_V1.0.2/MSDK/lwip/libcoap-4.3.4/src\coap_io_lwip.c ****     if (pbuf == NULL)
 965              		.loc 1 304 12 is_stmt 0
 966 004c 5058     		lw	a2,52(s0)
 967 004e 93050028 		li	a1,640
 968 0052 13052019 		li	a0,402
 969 0056 97000000 		call	pbuf_clone
 969      E7800000 
 970              	.LVL114:
 971 005e AA84     		mv	s1,a0
 972              	.LVL115:
 305:C:/Users/stapi/OneDrive/Desktop/GD32VW553/GD32VW55X_Wifi_BLE_SDK/GD32VW55x_RELEASE_V1.0.2/MSDK/lwip/libcoap-4.3.4/src\coap_io_lwip.c ****       return -1;
 973              		.loc 1 305 5 is_stmt 1
 305:C:/Users/stapi/OneDrive/Desktop/GD32VW553/GD32VW55X_Wifi_BLE_SDK/GD32VW55x_RELEASE_V1.0.2/MSDK/lwip/libcoap-4.3.4/src\coap_io_lwip.c ****       return -1;
 974              		.loc 1 305 8 is_stmt 0
 975 0060 19E1     		bne	a0,zero,.L74
 976              	.LVL116:
 977              	.L75:
 306:C:/Users/stapi/OneDrive/Desktop/GD32VW553/GD32VW55X_Wifi_BLE_SDK/GD32VW55x_RELEASE_V1.0.2/MSDK/lwip/libcoap-4.3.4/src\coap_io_lwip.c ****     err = udp_sendto(sock->pcb, pbuf, &session->addr_info.remote.addr,
 978              		.loc 1 306 14
 979 0062 7D55     		li	a0,-1
 980 0064 C5B7     		j	.L71
 981              	.LVL117:
 982              	.L74:
 307:C:/Users/stapi/OneDrive/Desktop/GD32VW553/GD32VW55X_Wifi_BLE_SDK/GD32VW55x_RELEASE_V1.0.2/MSDK/lwip/libcoap-4.3.4/src\coap_io_lwip.c ****                      session->addr_info.remote.port);
 983              		.loc 1 307 5 is_stmt 1
 307:C:/Users/stapi/OneDrive/Desktop/GD32VW553/GD32VW55X_Wifi_BLE_SDK/GD32VW55x_RELEASE_V1.0.2/MSDK/lwip/libcoap-4.3.4/src\coap_io_lwip.c ****                      session->addr_info.remote.port);
 984              		.loc 1 307 11 is_stmt 0
 985 0066 8356C904 		lhu	a3,76(s2)
 986 006a AA85     		mv	a1,a0
 987 006c 03A50900 		lw	a0,0(s3)
 988 0070 13060905 		addi	a2,s2,80
 989 0074 97000000 		call	udp_sendto
 989      E7800000 
 990              	.LVL118:
 991 007c 2A89     		mv	s2,a0
 992              	.LVL119:
 309:C:/Users/stapi/OneDrive/Desktop/GD32VW553/GD32VW55X_Wifi_BLE_SDK/GD32VW55x_RELEASE_V1.0.2/MSDK/lwip/libcoap-4.3.4/src\coap_io_lwip.c ****     if (err < 0)
 993              		.loc 1 309 5 is_stmt 1
 994 007e 2685     		mv	a0,s1
 995 0080 97000000 		call	pbuf_free
 995      E7800000 
 996              	.LVL120:
 310:C:/Users/stapi/OneDrive/Desktop/GD32VW553/GD32VW55X_Wifi_BLE_SDK/GD32VW55x_RELEASE_V1.0.2/MSDK/lwip/libcoap-4.3.4/src\coap_io_lwip.c ****       return -1;
 997              		.loc 1 310 5
 310:C:/Users/stapi/OneDrive/Desktop/GD32VW553/GD32VW55X_Wifi_BLE_SDK/GD32VW55x_RELEASE_V1.0.2/MSDK/lwip/libcoap-4.3.4/src\coap_io_lwip.c ****       return -1;
 998              		.loc 1 310 8 is_stmt 0
 999 0088 E35D09FA 		bge	s2,zero,.L76
 1000 008c D9BF     		j	.L75
 1001              		.cfi_endproc
 1002              	.LFE39:
 1004              		.section	.text.coap_socket_send,"ax",@progbits
 1005              		.align	1
 1006              		.globl	coap_socket_send
 1008              	coap_socket_send:
 1009              	.LFB40:
 315:C:/Users/stapi/OneDrive/Desktop/GD32VW553/GD32VW55X_Wifi_BLE_SDK/GD32VW55x_RELEASE_V1.0.2/MSDK/lwip/libcoap-4.3.4/src\coap_io_lwip.c **** 
 316:C:/Users/stapi/OneDrive/Desktop/GD32VW553/GD32VW55X_Wifi_BLE_SDK/GD32VW55x_RELEASE_V1.0.2/MSDK/lwip/libcoap-4.3.4/src\coap_io_lwip.c **** /*
 317:C:/Users/stapi/OneDrive/Desktop/GD32VW553/GD32VW55X_Wifi_BLE_SDK/GD32VW55x_RELEASE_V1.0.2/MSDK/lwip/libcoap-4.3.4/src\coap_io_lwip.c ****  * dgram
 318:C:/Users/stapi/OneDrive/Desktop/GD32VW553/GD32VW55X_Wifi_BLE_SDK/GD32VW55x_RELEASE_V1.0.2/MSDK/lwip/libcoap-4.3.4/src\coap_io_lwip.c ****  * return +ve Number of bytes written.
 319:C:/Users/stapi/OneDrive/Desktop/GD32VW553/GD32VW55X_Wifi_BLE_SDK/GD32VW55x_RELEASE_V1.0.2/MSDK/lwip/libcoap-4.3.4/src\coap_io_lwip.c ****  *         -1 Error error in errno).
 320:C:/Users/stapi/OneDrive/Desktop/GD32VW553/GD32VW55X_Wifi_BLE_SDK/GD32VW55x_RELEASE_V1.0.2/MSDK/lwip/libcoap-4.3.4/src\coap_io_lwip.c ****  */
 321:C:/Users/stapi/OneDrive/Desktop/GD32VW553/GD32VW55X_Wifi_BLE_SDK/GD32VW55x_RELEASE_V1.0.2/MSDK/lwip/libcoap-4.3.4/src\coap_io_lwip.c **** ssize_t
 322:C:/Users/stapi/OneDrive/Desktop/GD32VW553/GD32VW55X_Wifi_BLE_SDK/GD32VW55x_RELEASE_V1.0.2/MSDK/lwip/libcoap-4.3.4/src\coap_io_lwip.c **** coap_socket_send(coap_socket_t *sock, const coap_session_t *session,
 323:C:/Users/stapi/OneDrive/Desktop/GD32VW553/GD32VW55X_Wifi_BLE_SDK/GD32VW55x_RELEASE_V1.0.2/MSDK/lwip/libcoap-4.3.4/src\coap_io_lwip.c ****                  const uint8_t *data, size_t data_len) {
 1010              		.loc 1 323 56 is_stmt 1
 1011              		.cfi_startproc
 1012              	.LVL121:
 1013 0000 17030000 		call	t0,__riscv_save_5
 1013      E7020300 
 1014              		.cfi_offset 20, -24
 1015              		.cfi_offset 19, -20
 1016              		.cfi_offset 18, -16
 1017              		.cfi_offset 9, -12
 1018              		.cfi_offset 8, -8
 1019              		.cfi_offset 1, -4
 1020              		.cfi_def_cfa_offset 32
 324:C:/Users/stapi/OneDrive/Desktop/GD32VW553/GD32VW55X_Wifi_BLE_SDK/GD32VW55x_RELEASE_V1.0.2/MSDK/lwip/libcoap-4.3.4/src\coap_io_lwip.c ****   struct pbuf *pbuf;
 1021              		.loc 1 324 3
 325:C:/Users/stapi/OneDrive/Desktop/GD32VW553/GD32VW55X_Wifi_BLE_SDK/GD32VW55x_RELEASE_V1.0.2/MSDK/lwip/libcoap-4.3.4/src\coap_io_lwip.c ****   int err;
 1022              		.loc 1 325 3
 326:C:/Users/stapi/OneDrive/Desktop/GD32VW553/GD32VW55X_Wifi_BLE_SDK/GD32VW55x_RELEASE_V1.0.2/MSDK/lwip/libcoap-4.3.4/src\coap_io_lwip.c **** 
 327:C:/Users/stapi/OneDrive/Desktop/GD32VW553/GD32VW55X_Wifi_BLE_SDK/GD32VW55x_RELEASE_V1.0.2/MSDK/lwip/libcoap-4.3.4/src\coap_io_lwip.c ****   if (coap_debug_send_packet()) {
 1023              		.loc 1 327 3
 323:C:/Users/stapi/OneDrive/Desktop/GD32VW553/GD32VW55X_Wifi_BLE_SDK/GD32VW55x_RELEASE_V1.0.2/MSDK/lwip/libcoap-4.3.4/src\coap_io_lwip.c ****   struct pbuf *pbuf;
 1024              		.loc 1 323 56 is_stmt 0
 1025 0008 AA89     		mv	s3,a0
 1026 000a 2E89     		mv	s2,a1
 1027 000c 328A     		mv	s4,a2
 1028 000e 3684     		mv	s0,a3
 1029              		.loc 1 327 7
 1030 0010 97000000 		call	coap_debug_send_packet
 1030      E7800000 
 1031              	.LVL122:
 1032              		.loc 1 327 6
 1033 0018 11E5     		bne	a0,zero,.L79
 1034              	.LVL123:
 1035              	.L83:
 328:C:/Users/stapi/OneDrive/Desktop/GD32VW553/GD32VW55X_Wifi_BLE_SDK/GD32VW55x_RELEASE_V1.0.2/MSDK/lwip/libcoap-4.3.4/src\coap_io_lwip.c ****     pbuf = pbuf_alloc(PBUF_TRANSPORT, data_len, PBUF_RAM);
 329:C:/Users/stapi/OneDrive/Desktop/GD32VW553/GD32VW55X_Wifi_BLE_SDK/GD32VW55x_RELEASE_V1.0.2/MSDK/lwip/libcoap-4.3.4/src\coap_io_lwip.c ****     if (pbuf == NULL)
 330:C:/Users/stapi/OneDrive/Desktop/GD32VW553/GD32VW55X_Wifi_BLE_SDK/GD32VW55x_RELEASE_V1.0.2/MSDK/lwip/libcoap-4.3.4/src\coap_io_lwip.c ****       return -1;
 331:C:/Users/stapi/OneDrive/Desktop/GD32VW553/GD32VW55X_Wifi_BLE_SDK/GD32VW55x_RELEASE_V1.0.2/MSDK/lwip/libcoap-4.3.4/src\coap_io_lwip.c ****     memcpy(pbuf->payload, data, data_len);
 332:C:/Users/stapi/OneDrive/Desktop/GD32VW553/GD32VW55X_Wifi_BLE_SDK/GD32VW55x_RELEASE_V1.0.2/MSDK/lwip/libcoap-4.3.4/src\coap_io_lwip.c **** 
 333:C:/Users/stapi/OneDrive/Desktop/GD32VW553/GD32VW55X_Wifi_BLE_SDK/GD32VW55x_RELEASE_V1.0.2/MSDK/lwip/libcoap-4.3.4/src\coap_io_lwip.c ****     LOCK_TCPIP_CORE();
 334:C:/Users/stapi/OneDrive/Desktop/GD32VW553/GD32VW55X_Wifi_BLE_SDK/GD32VW55x_RELEASE_V1.0.2/MSDK/lwip/libcoap-4.3.4/src\coap_io_lwip.c **** 
 335:C:/Users/stapi/OneDrive/Desktop/GD32VW553/GD32VW55X_Wifi_BLE_SDK/GD32VW55x_RELEASE_V1.0.2/MSDK/lwip/libcoap-4.3.4/src\coap_io_lwip.c ****     err = udp_sendto(sock->pcb, pbuf, &session->addr_info.remote.addr,
 336:C:/Users/stapi/OneDrive/Desktop/GD32VW553/GD32VW55X_Wifi_BLE_SDK/GD32VW55x_RELEASE_V1.0.2/MSDK/lwip/libcoap-4.3.4/src\coap_io_lwip.c ****                      session->addr_info.remote.port);
 337:C:/Users/stapi/OneDrive/Desktop/GD32VW553/GD32VW55X_Wifi_BLE_SDK/GD32VW55x_RELEASE_V1.0.2/MSDK/lwip/libcoap-4.3.4/src\coap_io_lwip.c **** 
 338:C:/Users/stapi/OneDrive/Desktop/GD32VW553/GD32VW55X_Wifi_BLE_SDK/GD32VW55x_RELEASE_V1.0.2/MSDK/lwip/libcoap-4.3.4/src\coap_io_lwip.c ****     UNLOCK_TCPIP_CORE();
 339:C:/Users/stapi/OneDrive/Desktop/GD32VW553/GD32VW55X_Wifi_BLE_SDK/GD32VW55x_RELEASE_V1.0.2/MSDK/lwip/libcoap-4.3.4/src\coap_io_lwip.c **** 
 340:C:/Users/stapi/OneDrive/Desktop/GD32VW553/GD32VW55X_Wifi_BLE_SDK/GD32VW55x_RELEASE_V1.0.2/MSDK/lwip/libcoap-4.3.4/src\coap_io_lwip.c ****     pbuf_free(pbuf);
 341:C:/Users/stapi/OneDrive/Desktop/GD32VW553/GD32VW55X_Wifi_BLE_SDK/GD32VW55x_RELEASE_V1.0.2/MSDK/lwip/libcoap-4.3.4/src\coap_io_lwip.c ****     if (err < 0)
 342:C:/Users/stapi/OneDrive/Desktop/GD32VW553/GD32VW55X_Wifi_BLE_SDK/GD32VW55x_RELEASE_V1.0.2/MSDK/lwip/libcoap-4.3.4/src\coap_io_lwip.c ****       return -1;
 343:C:/Users/stapi/OneDrive/Desktop/GD32VW553/GD32VW55X_Wifi_BLE_SDK/GD32VW55x_RELEASE_V1.0.2/MSDK/lwip/libcoap-4.3.4/src\coap_io_lwip.c ****   }
 344:C:/Users/stapi/OneDrive/Desktop/GD32VW553/GD32VW55X_Wifi_BLE_SDK/GD32VW55x_RELEASE_V1.0.2/MSDK/lwip/libcoap-4.3.4/src\coap_io_lwip.c ****   return data_len;
 1036              		.loc 1 344 3 is_stmt 1
 1037              		.loc 1 344 10 is_stmt 0
 1038 001a 2285     		mv	a0,s0
 1039              	.L78:
 345:C:/Users/stapi/OneDrive/Desktop/GD32VW553/GD32VW55X_Wifi_BLE_SDK/GD32VW55x_RELEASE_V1.0.2/MSDK/lwip/libcoap-4.3.4/src\coap_io_lwip.c **** }
 1040              		.loc 1 345 1
 1041 001c 17030000 		tail	__riscv_restore_5
 1041      67000300 
 1042              		.cfi_remember_state
 1043              		.cfi_restore 20
 1044              		.cfi_restore 19
 1045              		.cfi_restore 18
 1046              		.cfi_restore 9
 1047              		.cfi_restore 8
 1048              		.cfi_restore 1
 1049              		.cfi_def_cfa_offset 0
 1050              	.LVL124:
 1051              	.L79:
 1052              		.cfi_restore_state
 328:C:/Users/stapi/OneDrive/Desktop/GD32VW553/GD32VW55X_Wifi_BLE_SDK/GD32VW55x_RELEASE_V1.0.2/MSDK/lwip/libcoap-4.3.4/src\coap_io_lwip.c ****     pbuf = pbuf_alloc(PBUF_TRANSPORT, data_len, PBUF_RAM);
 1053              		.loc 1 328 5 is_stmt 1
 328:C:/Users/stapi/OneDrive/Desktop/GD32VW553/GD32VW55X_Wifi_BLE_SDK/GD32VW55x_RELEASE_V1.0.2/MSDK/lwip/libcoap-4.3.4/src\coap_io_lwip.c ****     pbuf = pbuf_alloc(PBUF_TRANSPORT, data_len, PBUF_RAM);
 1054              		.loc 1 328 12 is_stmt 0
 1055 0024 13060028 		li	a2,640
 1056 0028 13052019 		li	a0,402
 1057 002c B3450408 		zext.h	a1,s0
 1058 0030 97000000 		call	pbuf_alloc
 1058      E7800000 
 1059              	.LVL125:
 1060 0038 AA84     		mv	s1,a0
 1061              	.LVL126:
 329:C:/Users/stapi/OneDrive/Desktop/GD32VW553/GD32VW55X_Wifi_BLE_SDK/GD32VW55x_RELEASE_V1.0.2/MSDK/lwip/libcoap-4.3.4/src\coap_io_lwip.c ****       return -1;
 1062              		.loc 1 329 5 is_stmt 1
 329:C:/Users/stapi/OneDrive/Desktop/GD32VW553/GD32VW55X_Wifi_BLE_SDK/GD32VW55x_RELEASE_V1.0.2/MSDK/lwip/libcoap-4.3.4/src\coap_io_lwip.c ****       return -1;
 1063              		.loc 1 329 8 is_stmt 0
 1064 003a 19E1     		bne	a0,zero,.L81
 1065              	.LVL127:
 1066              	.L82:
 330:C:/Users/stapi/OneDrive/Desktop/GD32VW553/GD32VW55X_Wifi_BLE_SDK/GD32VW55x_RELEASE_V1.0.2/MSDK/lwip/libcoap-4.3.4/src\coap_io_lwip.c ****     memcpy(pbuf->payload, data, data_len);
 1067              		.loc 1 330 14
 1068 003c 7D55     		li	a0,-1
 1069 003e F9BF     		j	.L78
 1070              	.LVL128:
 1071              	.L81:
 331:C:/Users/stapi/OneDrive/Desktop/GD32VW553/GD32VW55X_Wifi_BLE_SDK/GD32VW55x_RELEASE_V1.0.2/MSDK/lwip/libcoap-4.3.4/src\coap_io_lwip.c **** 
 1072              		.loc 1 331 5 is_stmt 1
 1073 0040 4841     		lw	a0,4(a0)
 1074 0042 D285     		mv	a1,s4
 1075 0044 2286     		mv	a2,s0
 1076 0046 97000000 		call	memcpy
 1076      E7800000 
 1077              	.LVL129:
 333:C:/Users/stapi/OneDrive/Desktop/GD32VW553/GD32VW55X_Wifi_BLE_SDK/GD32VW55x_RELEASE_V1.0.2/MSDK/lwip/libcoap-4.3.4/src\coap_io_lwip.c **** 
 1078              		.loc 1 333 5
 1079 004e 370A0000 		lui	s4,%hi(lock_tcpip_core)
 1080              	.LVL130:
 1081 0052 13050A00 		addi	a0,s4,%lo(lock_tcpip_core)
 1082 0056 97000000 		call	sys_mutex_get
 1082      E7800000 
 1083              	.LVL131:
 335:C:/Users/stapi/OneDrive/Desktop/GD32VW553/GD32VW55X_Wifi_BLE_SDK/GD32VW55x_RELEASE_V1.0.2/MSDK/lwip/libcoap-4.3.4/src\coap_io_lwip.c ****                      session->addr_info.remote.port);
 1084              		.loc 1 335 5
 335:C:/Users/stapi/OneDrive/Desktop/GD32VW553/GD32VW55X_Wifi_BLE_SDK/GD32VW55x_RELEASE_V1.0.2/MSDK/lwip/libcoap-4.3.4/src\coap_io_lwip.c ****                      session->addr_info.remote.port);
 1085              		.loc 1 335 11 is_stmt 0
 1086 005e 8356C904 		lhu	a3,76(s2)
 1087 0062 03A50900 		lw	a0,0(s3)
 1088 0066 13060905 		addi	a2,s2,80
 1089 006a A685     		mv	a1,s1
 1090 006c 97000000 		call	udp_sendto
 1090      E7800000 
 1091              	.LVL132:
 1092 0074 2A89     		mv	s2,a0
 1093              	.LVL133:
 338:C:/Users/stapi/OneDrive/Desktop/GD32VW553/GD32VW55X_Wifi_BLE_SDK/GD32VW55x_RELEASE_V1.0.2/MSDK/lwip/libcoap-4.3.4/src\coap_io_lwip.c **** 
 1094              		.loc 1 338 5 is_stmt 1
 1095 0076 13050A00 		addi	a0,s4,%lo(lock_tcpip_core)
 1096 007a 97000000 		call	sys_mutex_put
 1096      E7800000 
 1097              	.LVL134:
 340:C:/Users/stapi/OneDrive/Desktop/GD32VW553/GD32VW55X_Wifi_BLE_SDK/GD32VW55x_RELEASE_V1.0.2/MSDK/lwip/libcoap-4.3.4/src\coap_io_lwip.c ****     if (err < 0)
 1098              		.loc 1 340 5
 1099 0082 2685     		mv	a0,s1
 1100 0084 97000000 		call	pbuf_free
 1100      E7800000 
 1101              	.LVL135:
 341:C:/Users/stapi/OneDrive/Desktop/GD32VW553/GD32VW55X_Wifi_BLE_SDK/GD32VW55x_RELEASE_V1.0.2/MSDK/lwip/libcoap-4.3.4/src\coap_io_lwip.c ****       return -1;
 1102              		.loc 1 341 5
 341:C:/Users/stapi/OneDrive/Desktop/GD32VW553/GD32VW55X_Wifi_BLE_SDK/GD32VW55x_RELEASE_V1.0.2/MSDK/lwip/libcoap-4.3.4/src\coap_io_lwip.c ****       return -1;
 1103              		.loc 1 341 8 is_stmt 0
 1104 008c E35709F8 		bge	s2,zero,.L83
 1105 0090 75B7     		j	.L82
 1106              		.cfi_endproc
 1107              	.LFE40:
 1109              		.section	.text.coap_socket_bind_udp,"ax",@progbits
 1110              		.align	1
 1111              		.globl	coap_socket_bind_udp
 1113              	coap_socket_bind_udp:
 1114              	.LFB41:
 346:C:/Users/stapi/OneDrive/Desktop/GD32VW553/GD32VW55X_Wifi_BLE_SDK/GD32VW55x_RELEASE_V1.0.2/MSDK/lwip/libcoap-4.3.4/src\coap_io_lwip.c **** 
 347:C:/Users/stapi/OneDrive/Desktop/GD32VW553/GD32VW55X_Wifi_BLE_SDK/GD32VW55x_RELEASE_V1.0.2/MSDK/lwip/libcoap-4.3.4/src\coap_io_lwip.c **** #if COAP_SERVER_SUPPORT
 348:C:/Users/stapi/OneDrive/Desktop/GD32VW553/GD32VW55X_Wifi_BLE_SDK/GD32VW55x_RELEASE_V1.0.2/MSDK/lwip/libcoap-4.3.4/src\coap_io_lwip.c **** int
 349:C:/Users/stapi/OneDrive/Desktop/GD32VW553/GD32VW55X_Wifi_BLE_SDK/GD32VW55x_RELEASE_V1.0.2/MSDK/lwip/libcoap-4.3.4/src\coap_io_lwip.c **** coap_socket_bind_udp(coap_socket_t *sock,
 350:C:/Users/stapi/OneDrive/Desktop/GD32VW553/GD32VW55X_Wifi_BLE_SDK/GD32VW55x_RELEASE_V1.0.2/MSDK/lwip/libcoap-4.3.4/src\coap_io_lwip.c ****                      const coap_address_t *listen_addr,
 351:C:/Users/stapi/OneDrive/Desktop/GD32VW553/GD32VW55X_Wifi_BLE_SDK/GD32VW55x_RELEASE_V1.0.2/MSDK/lwip/libcoap-4.3.4/src\coap_io_lwip.c ****                      coap_address_t *bound_addr) {
 1115              		.loc 1 351 50 is_stmt 1
 1116              		.cfi_startproc
 1117              	.LVL136:
 1118 0000 17030000 		call	t0,__riscv_save_3
 1118      E7020300 
 1119              		.cfi_offset 18, -16
 1120              		.cfi_offset 9, -12
 1121              		.cfi_offset 8, -8
 1122              		.cfi_offset 1, -4
 1123              		.cfi_def_cfa_offset 16
 352:C:/Users/stapi/OneDrive/Desktop/GD32VW553/GD32VW55X_Wifi_BLE_SDK/GD32VW55x_RELEASE_V1.0.2/MSDK/lwip/libcoap-4.3.4/src\coap_io_lwip.c ****   int err;
 1124              		.loc 1 352 3
 353:C:/Users/stapi/OneDrive/Desktop/GD32VW553/GD32VW55X_Wifi_BLE_SDK/GD32VW55x_RELEASE_V1.0.2/MSDK/lwip/libcoap-4.3.4/src\coap_io_lwip.c ****   coap_address_t l_listen = *listen_addr;
 1125              		.loc 1 353 3
 1126              		.loc 1 353 18 is_stmt 0
 1127 0008 9C41     		lw	a5,0(a1)
 351:C:/Users/stapi/OneDrive/Desktop/GD32VW553/GD32VW55X_Wifi_BLE_SDK/GD32VW55x_RELEASE_V1.0.2/MSDK/lwip/libcoap-4.3.4/src\coap_io_lwip.c ****   int err;
 1128              		.loc 1 351 50
 1129 000a 4111     		addi	sp,sp,-16
 1130              		.cfi_def_cfa_offset 32
 351:C:/Users/stapi/OneDrive/Desktop/GD32VW553/GD32VW55X_Wifi_BLE_SDK/GD32VW55x_RELEASE_V1.0.2/MSDK/lwip/libcoap-4.3.4/src\coap_io_lwip.c ****   int err;
 1131              		.loc 1 351 50
 1132 000c AA84     		mv	s1,a0
 1133              		.loc 1 353 18
 1134 000e 3EC4     		sw	a5,8(sp)
 1135 0010 DC41     		lw	a5,4(a1)
 354:C:/Users/stapi/OneDrive/Desktop/GD32VW553/GD32VW55X_Wifi_BLE_SDK/GD32VW55x_RELEASE_V1.0.2/MSDK/lwip/libcoap-4.3.4/src\coap_io_lwip.c **** 
 355:C:/Users/stapi/OneDrive/Desktop/GD32VW553/GD32VW55X_Wifi_BLE_SDK/GD32VW55x_RELEASE_V1.0.2/MSDK/lwip/libcoap-4.3.4/src\coap_io_lwip.c ****   sock->pcb = udp_new_ip_type(IPADDR_TYPE_ANY);
 1136              		.loc 1 355 15
 1137 0012 1305E002 		li	a0,46
 1138              	.LVL137:
 351:C:/Users/stapi/OneDrive/Desktop/GD32VW553/GD32VW55X_Wifi_BLE_SDK/GD32VW55x_RELEASE_V1.0.2/MSDK/lwip/libcoap-4.3.4/src\coap_io_lwip.c ****   int err;
 1139              		.loc 1 351 50
 1140 0016 3289     		mv	s2,a2
 353:C:/Users/stapi/OneDrive/Desktop/GD32VW553/GD32VW55X_Wifi_BLE_SDK/GD32VW55x_RELEASE_V1.0.2/MSDK/lwip/libcoap-4.3.4/src\coap_io_lwip.c **** 
 1141              		.loc 1 353 18
 1142 0018 3EC6     		sw	a5,12(sp)
 1143              		.loc 1 355 3 is_stmt 1
 1144              		.loc 1 355 15 is_stmt 0
 1145 001a 97000000 		call	udp_new_ip_type
 1145      E7800000 
 1146              	.LVL138:
 1147              		.loc 1 355 13
 1148 0022 88C0     		sw	a0,0(s1)
 356:C:/Users/stapi/OneDrive/Desktop/GD32VW553/GD32VW55X_Wifi_BLE_SDK/GD32VW55x_RELEASE_V1.0.2/MSDK/lwip/libcoap-4.3.4/src\coap_io_lwip.c ****   if (sock->pcb == NULL)
 1149              		.loc 1 356 3 is_stmt 1
 1150              		.loc 1 356 6 is_stmt 0
 1151 0024 21C9     		beq	a0,zero,.L88
 357:C:/Users/stapi/OneDrive/Desktop/GD32VW553/GD32VW55X_Wifi_BLE_SDK/GD32VW55x_RELEASE_V1.0.2/MSDK/lwip/libcoap-4.3.4/src\coap_io_lwip.c ****     return 0;
 358:C:/Users/stapi/OneDrive/Desktop/GD32VW553/GD32VW55X_Wifi_BLE_SDK/GD32VW55x_RELEASE_V1.0.2/MSDK/lwip/libcoap-4.3.4/src\coap_io_lwip.c **** 
 359:C:/Users/stapi/OneDrive/Desktop/GD32VW553/GD32VW55X_Wifi_BLE_SDK/GD32VW55x_RELEASE_V1.0.2/MSDK/lwip/libcoap-4.3.4/src\coap_io_lwip.c **** #if LWIP_IPV6 && LWIP_IPV4
 360:C:/Users/stapi/OneDrive/Desktop/GD32VW553/GD32VW55X_Wifi_BLE_SDK/GD32VW55x_RELEASE_V1.0.2/MSDK/lwip/libcoap-4.3.4/src\coap_io_lwip.c ****   if (l_listen.addr.type == IPADDR_TYPE_V6)
 361:C:/Users/stapi/OneDrive/Desktop/GD32VW553/GD32VW55X_Wifi_BLE_SDK/GD32VW55x_RELEASE_V1.0.2/MSDK/lwip/libcoap-4.3.4/src\coap_io_lwip.c ****     l_listen.addr.type = IPADDR_TYPE_ANY;
 362:C:/Users/stapi/OneDrive/Desktop/GD32VW553/GD32VW55X_Wifi_BLE_SDK/GD32VW55x_RELEASE_V1.0.2/MSDK/lwip/libcoap-4.3.4/src\coap_io_lwip.c **** #endif /* LWIP_IPV6 && LWIP_IPV4 */
 363:C:/Users/stapi/OneDrive/Desktop/GD32VW553/GD32VW55X_Wifi_BLE_SDK/GD32VW55x_RELEASE_V1.0.2/MSDK/lwip/libcoap-4.3.4/src\coap_io_lwip.c ****   udp_recv(sock->pcb, coap_recvs, (void *)sock->endpoint);
 1152              		.loc 1 363 3 is_stmt 1
 1153 0026 D044     		lw	a2,12(s1)
 1154 0028 B7050000 		lui	a1,%hi(coap_recvs)
 1155 002c 93850500 		addi	a1,a1,%lo(coap_recvs)
 1156 0030 97000000 		call	udp_recv
 1156      E7800000 
 1157              	.LVL139:
 364:C:/Users/stapi/OneDrive/Desktop/GD32VW553/GD32VW55X_Wifi_BLE_SDK/GD32VW55x_RELEASE_V1.0.2/MSDK/lwip/libcoap-4.3.4/src\coap_io_lwip.c ****   err = udp_bind(sock->pcb, &l_listen.addr, l_listen.port);
 1158              		.loc 1 364 3
 1159              		.loc 1 364 9 is_stmt 0
 1160 0038 03568100 		lhu	a2,8(sp)
 1161 003c 8840     		lw	a0,0(s1)
 1162 003e 6C00     		addi	a1,sp,12
 1163 0040 97000000 		call	udp_bind
 1163      E7800000 
 1164              	.LVL140:
 1165 0048 2A84     		mv	s0,a0
 1166              	.LVL141:
 365:C:/Users/stapi/OneDrive/Desktop/GD32VW553/GD32VW55X_Wifi_BLE_SDK/GD32VW55x_RELEASE_V1.0.2/MSDK/lwip/libcoap-4.3.4/src\coap_io_lwip.c ****   if (err) {
 1167              		.loc 1 365 3 is_stmt 1
 1168              		.loc 1 365 6 is_stmt 0
 1169 004a 01C9     		beq	a0,zero,.L87
 366:C:/Users/stapi/OneDrive/Desktop/GD32VW553/GD32VW55X_Wifi_BLE_SDK/GD32VW55x_RELEASE_V1.0.2/MSDK/lwip/libcoap-4.3.4/src\coap_io_lwip.c ****     udp_remove(sock->pcb);
 1170              		.loc 1 366 5 is_stmt 1
 1171 004c 8840     		lw	a0,0(s1)
 1172 004e 97000000 		call	udp_remove
 1172      E7800000 
 1173              	.LVL142:
 367:C:/Users/stapi/OneDrive/Desktop/GD32VW553/GD32VW55X_Wifi_BLE_SDK/GD32VW55x_RELEASE_V1.0.2/MSDK/lwip/libcoap-4.3.4/src\coap_io_lwip.c ****     sock->pcb = NULL;
 1174              		.loc 1 367 5
 1175              		.loc 1 367 15 is_stmt 0
 1176 0056 23A00400 		sw	zero,0(s1)
 1177              	.L87:
 368:C:/Users/stapi/OneDrive/Desktop/GD32VW553/GD32VW55X_Wifi_BLE_SDK/GD32VW55x_RELEASE_V1.0.2/MSDK/lwip/libcoap-4.3.4/src\coap_io_lwip.c ****   }
 369:C:/Users/stapi/OneDrive/Desktop/GD32VW553/GD32VW55X_Wifi_BLE_SDK/GD32VW55x_RELEASE_V1.0.2/MSDK/lwip/libcoap-4.3.4/src\coap_io_lwip.c ****   *bound_addr = l_listen;
 1178              		.loc 1 369 3 is_stmt 1
 1179              		.loc 1 369 15 is_stmt 0
 1180 005a A247     		lw	a5,8(sp)
 370:C:/Users/stapi/OneDrive/Desktop/GD32VW553/GD32VW55X_Wifi_BLE_SDK/GD32VW55x_RELEASE_V1.0.2/MSDK/lwip/libcoap-4.3.4/src\coap_io_lwip.c ****   return err ? 0 : 1;
 1181              		.loc 1 370 18
 1182 005c 13351400 		seqz	a0,s0
 369:C:/Users/stapi/OneDrive/Desktop/GD32VW553/GD32VW55X_Wifi_BLE_SDK/GD32VW55x_RELEASE_V1.0.2/MSDK/lwip/libcoap-4.3.4/src\coap_io_lwip.c ****   return err ? 0 : 1;
 1183              		.loc 1 369 15
 1184 0060 2320F900 		sw	a5,0(s2)
 1185 0064 B247     		lw	a5,12(sp)
 1186 0066 2322F900 		sw	a5,4(s2)
 1187              		.loc 1 370 3 is_stmt 1
 1188              	.LVL143:
 1189              	.L85:
 371:C:/Users/stapi/OneDrive/Desktop/GD32VW553/GD32VW55X_Wifi_BLE_SDK/GD32VW55x_RELEASE_V1.0.2/MSDK/lwip/libcoap-4.3.4/src\coap_io_lwip.c **** }
 1190              		.loc 1 371 1 is_stmt 0
 1191 006a 4101     		addi	sp,sp,16
 1192              		.cfi_remember_state
 1193              		.cfi_def_cfa_offset 0
 1194 006c 17030000 		tail	__riscv_restore_3
 1194      67000300 
 1195              		.cfi_restore 18
 1196              		.cfi_restore 9
 1197              		.cfi_restore 8
 1198              		.cfi_restore 1
 1199              		.cfi_def_cfa_offset -16
 1200              	.L88:
 1201              		.cfi_restore_state
 357:C:/Users/stapi/OneDrive/Desktop/GD32VW553/GD32VW55X_Wifi_BLE_SDK/GD32VW55x_RELEASE_V1.0.2/MSDK/lwip/libcoap-4.3.4/src\coap_io_lwip.c **** 
 1202              		.loc 1 357 12
 1203 0074 0145     		li	a0,0
 1204 0076 D5BF     		j	.L85
 1205              		.cfi_endproc
 1206              	.LFE41:
 1208              		.section	.text.coap_socket_connect_udp,"ax",@progbits
 1209              		.align	1
 1210              		.globl	coap_socket_connect_udp
 1212              	coap_socket_connect_udp:
 1213              	.LFB42:
 372:C:/Users/stapi/OneDrive/Desktop/GD32VW553/GD32VW55X_Wifi_BLE_SDK/GD32VW55x_RELEASE_V1.0.2/MSDK/lwip/libcoap-4.3.4/src\coap_io_lwip.c **** #endif /* COAP_SERVER_SUPPORT */
 373:C:/Users/stapi/OneDrive/Desktop/GD32VW553/GD32VW55X_Wifi_BLE_SDK/GD32VW55x_RELEASE_V1.0.2/MSDK/lwip/libcoap-4.3.4/src\coap_io_lwip.c **** 
 374:C:/Users/stapi/OneDrive/Desktop/GD32VW553/GD32VW55X_Wifi_BLE_SDK/GD32VW55x_RELEASE_V1.0.2/MSDK/lwip/libcoap-4.3.4/src\coap_io_lwip.c **** #if COAP_CLIENT_SUPPORT
 375:C:/Users/stapi/OneDrive/Desktop/GD32VW553/GD32VW55X_Wifi_BLE_SDK/GD32VW55x_RELEASE_V1.0.2/MSDK/lwip/libcoap-4.3.4/src\coap_io_lwip.c **** int
 376:C:/Users/stapi/OneDrive/Desktop/GD32VW553/GD32VW55X_Wifi_BLE_SDK/GD32VW55x_RELEASE_V1.0.2/MSDK/lwip/libcoap-4.3.4/src\coap_io_lwip.c **** coap_socket_connect_udp(coap_socket_t *sock,
 377:C:/Users/stapi/OneDrive/Desktop/GD32VW553/GD32VW55X_Wifi_BLE_SDK/GD32VW55x_RELEASE_V1.0.2/MSDK/lwip/libcoap-4.3.4/src\coap_io_lwip.c ****                         const coap_address_t *local_if,
 378:C:/Users/stapi/OneDrive/Desktop/GD32VW553/GD32VW55X_Wifi_BLE_SDK/GD32VW55x_RELEASE_V1.0.2/MSDK/lwip/libcoap-4.3.4/src\coap_io_lwip.c ****                         const coap_address_t *server,
 379:C:/Users/stapi/OneDrive/Desktop/GD32VW553/GD32VW55X_Wifi_BLE_SDK/GD32VW55x_RELEASE_V1.0.2/MSDK/lwip/libcoap-4.3.4/src\coap_io_lwip.c ****                         int default_port,
 380:C:/Users/stapi/OneDrive/Desktop/GD32VW553/GD32VW55X_Wifi_BLE_SDK/GD32VW55x_RELEASE_V1.0.2/MSDK/lwip/libcoap-4.3.4/src\coap_io_lwip.c ****                         coap_address_t *local_addr,
 381:C:/Users/stapi/OneDrive/Desktop/GD32VW553/GD32VW55X_Wifi_BLE_SDK/GD32VW55x_RELEASE_V1.0.2/MSDK/lwip/libcoap-4.3.4/src\coap_io_lwip.c ****                         coap_address_t *remote_addr) {
 1214              		.loc 1 381 54 is_stmt 1
 1215              		.cfi_startproc
 1216              	.LVL144:
 1217 0000 17030000 		call	t0,__riscv_save_5
 1217      E7020300 
 1218              		.cfi_offset 20, -24
 1219              		.cfi_offset 19, -20
 1220              		.cfi_offset 18, -16
 1221              		.cfi_offset 9, -12
 1222              		.cfi_offset 8, -8
 1223              		.cfi_offset 1, -4
 1224              		.cfi_def_cfa_offset 32
 382:C:/Users/stapi/OneDrive/Desktop/GD32VW553/GD32VW55X_Wifi_BLE_SDK/GD32VW55x_RELEASE_V1.0.2/MSDK/lwip/libcoap-4.3.4/src\coap_io_lwip.c ****   err_t err;
 1225              		.loc 1 382 3
 383:C:/Users/stapi/OneDrive/Desktop/GD32VW553/GD32VW55X_Wifi_BLE_SDK/GD32VW55x_RELEASE_V1.0.2/MSDK/lwip/libcoap-4.3.4/src\coap_io_lwip.c ****   struct udp_pcb *pcb;
 1226              		.loc 1 383 3
 384:C:/Users/stapi/OneDrive/Desktop/GD32VW553/GD32VW55X_Wifi_BLE_SDK/GD32VW55x_RELEASE_V1.0.2/MSDK/lwip/libcoap-4.3.4/src\coap_io_lwip.c **** 
 385:C:/Users/stapi/OneDrive/Desktop/GD32VW553/GD32VW55X_Wifi_BLE_SDK/GD32VW55x_RELEASE_V1.0.2/MSDK/lwip/libcoap-4.3.4/src\coap_io_lwip.c ****   (void)local_if;
 1227              		.loc 1 385 3
 386:C:/Users/stapi/OneDrive/Desktop/GD32VW553/GD32VW55X_Wifi_BLE_SDK/GD32VW55x_RELEASE_V1.0.2/MSDK/lwip/libcoap-4.3.4/src\coap_io_lwip.c ****   (void)default_port;
 1228              		.loc 1 386 3
 387:C:/Users/stapi/OneDrive/Desktop/GD32VW553/GD32VW55X_Wifi_BLE_SDK/GD32VW55x_RELEASE_V1.0.2/MSDK/lwip/libcoap-4.3.4/src\coap_io_lwip.c ****   (void)local_addr;
 1229              		.loc 1 387 3
 388:C:/Users/stapi/OneDrive/Desktop/GD32VW553/GD32VW55X_Wifi_BLE_SDK/GD32VW55x_RELEASE_V1.0.2/MSDK/lwip/libcoap-4.3.4/src\coap_io_lwip.c ****   (void)remote_addr;
 1230              		.loc 1 388 3
 389:C:/Users/stapi/OneDrive/Desktop/GD32VW553/GD32VW55X_Wifi_BLE_SDK/GD32VW55x_RELEASE_V1.0.2/MSDK/lwip/libcoap-4.3.4/src\coap_io_lwip.c **** 
 390:C:/Users/stapi/OneDrive/Desktop/GD32VW553/GD32VW55X_Wifi_BLE_SDK/GD32VW55x_RELEASE_V1.0.2/MSDK/lwip/libcoap-4.3.4/src\coap_io_lwip.c ****   LOCK_TCPIP_CORE();
 1231              		.loc 1 390 3
 1232 0008 B7090000 		lui	s3,%hi(lock_tcpip_core)
 381:C:/Users/stapi/OneDrive/Desktop/GD32VW553/GD32VW55X_Wifi_BLE_SDK/GD32VW55x_RELEASE_V1.0.2/MSDK/lwip/libcoap-4.3.4/src\coap_io_lwip.c ****   err_t err;
 1233              		.loc 1 381 54 is_stmt 0
 1234 000c AA84     		mv	s1,a0
 1235              		.loc 1 390 3
 1236 000e 13850900 		addi	a0,s3,%lo(lock_tcpip_core)
 1237              	.LVL145:
 381:C:/Users/stapi/OneDrive/Desktop/GD32VW553/GD32VW55X_Wifi_BLE_SDK/GD32VW55x_RELEASE_V1.0.2/MSDK/lwip/libcoap-4.3.4/src\coap_io_lwip.c ****   err_t err;
 1238              		.loc 1 381 54
 1239 0012 3289     		mv	s2,a2
 1240              		.loc 1 390 3
 1241 0014 97000000 		call	sys_mutex_get
 1241      E7800000 
 1242              	.LVL146:
 391:C:/Users/stapi/OneDrive/Desktop/GD32VW553/GD32VW55X_Wifi_BLE_SDK/GD32VW55x_RELEASE_V1.0.2/MSDK/lwip/libcoap-4.3.4/src\coap_io_lwip.c **** 
 392:C:/Users/stapi/OneDrive/Desktop/GD32VW553/GD32VW55X_Wifi_BLE_SDK/GD32VW55x_RELEASE_V1.0.2/MSDK/lwip/libcoap-4.3.4/src\coap_io_lwip.c ****   pcb = udp_new();
 1243              		.loc 1 392 3 is_stmt 1
 1244              		.loc 1 392 9 is_stmt 0
 1245 001c 97000000 		call	udp_new
 1245      E7800000 
 1246              	.LVL147:
 393:C:/Users/stapi/OneDrive/Desktop/GD32VW553/GD32VW55X_Wifi_BLE_SDK/GD32VW55x_RELEASE_V1.0.2/MSDK/lwip/libcoap-4.3.4/src\coap_io_lwip.c **** 
 394:C:/Users/stapi/OneDrive/Desktop/GD32VW553/GD32VW55X_Wifi_BLE_SDK/GD32VW55x_RELEASE_V1.0.2/MSDK/lwip/libcoap-4.3.4/src\coap_io_lwip.c ****   if (!pcb) {
 1247              		.loc 1 394 3 is_stmt 1
 1248 0024 4E8A     		mv	s4,s3
 1249              		.loc 1 394 6 is_stmt 0
 1250 0026 25C5     		beq	a0,zero,.L94
 395:C:/Users/stapi/OneDrive/Desktop/GD32VW553/GD32VW55X_Wifi_BLE_SDK/GD32VW55x_RELEASE_V1.0.2/MSDK/lwip/libcoap-4.3.4/src\coap_io_lwip.c ****     goto err_unlock;
 396:C:/Users/stapi/OneDrive/Desktop/GD32VW553/GD32VW55X_Wifi_BLE_SDK/GD32VW55x_RELEASE_V1.0.2/MSDK/lwip/libcoap-4.3.4/src\coap_io_lwip.c ****   }
 397:C:/Users/stapi/OneDrive/Desktop/GD32VW553/GD32VW55X_Wifi_BLE_SDK/GD32VW55x_RELEASE_V1.0.2/MSDK/lwip/libcoap-4.3.4/src\coap_io_lwip.c **** 
 398:C:/Users/stapi/OneDrive/Desktop/GD32VW553/GD32VW55X_Wifi_BLE_SDK/GD32VW55x_RELEASE_V1.0.2/MSDK/lwip/libcoap-4.3.4/src\coap_io_lwip.c ****   err = udp_bind(pcb, &pcb->local_ip, pcb->local_port);
 1251              		.loc 1 398 9
 1252 0028 03562501 		lhu	a2,18(a0)
 1253 002c AA85     		mv	a1,a0
 1254 002e 2A84     		mv	s0,a0
 1255              		.loc 1 398 3 is_stmt 1
 1256              		.loc 1 398 9 is_stmt 0
 1257 0030 97000000 		call	udp_bind
 1257      E7800000 
 1258              	.LVL148:
 399:C:/Users/stapi/OneDrive/Desktop/GD32VW553/GD32VW55X_Wifi_BLE_SDK/GD32VW55x_RELEASE_V1.0.2/MSDK/lwip/libcoap-4.3.4/src\coap_io_lwip.c ****   if (err) {
 1259              		.loc 1 399 3 is_stmt 1
 1260              		.loc 1 399 6 is_stmt 0
 1261 0038 31E5     		bne	a0,zero,.L95
 400:C:/Users/stapi/OneDrive/Desktop/GD32VW553/GD32VW55X_Wifi_BLE_SDK/GD32VW55x_RELEASE_V1.0.2/MSDK/lwip/libcoap-4.3.4/src\coap_io_lwip.c ****     LWIP_DEBUGF(UDP_DEBUG | LWIP_DBG_TRACE | LWIP_DBG_LEVEL_SERIOUS,
 401:C:/Users/stapi/OneDrive/Desktop/GD32VW553/GD32VW55X_Wifi_BLE_SDK/GD32VW55x_RELEASE_V1.0.2/MSDK/lwip/libcoap-4.3.4/src\coap_io_lwip.c ****                 ("coap_socket_connect_udp: port bind failed\n"));
 402:C:/Users/stapi/OneDrive/Desktop/GD32VW553/GD32VW55X_Wifi_BLE_SDK/GD32VW55x_RELEASE_V1.0.2/MSDK/lwip/libcoap-4.3.4/src\coap_io_lwip.c ****     goto err_udp_remove;
 403:C:/Users/stapi/OneDrive/Desktop/GD32VW553/GD32VW55X_Wifi_BLE_SDK/GD32VW55x_RELEASE_V1.0.2/MSDK/lwip/libcoap-4.3.4/src\coap_io_lwip.c ****   }
 404:C:/Users/stapi/OneDrive/Desktop/GD32VW553/GD32VW55X_Wifi_BLE_SDK/GD32VW55x_RELEASE_V1.0.2/MSDK/lwip/libcoap-4.3.4/src\coap_io_lwip.c **** 
 405:C:/Users/stapi/OneDrive/Desktop/GD32VW553/GD32VW55X_Wifi_BLE_SDK/GD32VW55x_RELEASE_V1.0.2/MSDK/lwip/libcoap-4.3.4/src\coap_io_lwip.c ****   sock->session->addr_info.local.port = pcb->local_port;
 1262              		.loc 1 405 3 is_stmt 1
 1263              		.loc 1 405 39 is_stmt 0
 1264 003a 9C44     		lw	a5,8(s1)
 1265 003c 03572401 		lhu	a4,18(s0)
 406:C:/Users/stapi/OneDrive/Desktop/GD32VW553/GD32VW55X_Wifi_BLE_SDK/GD32VW55x_RELEASE_V1.0.2/MSDK/lwip/libcoap-4.3.4/src\coap_io_lwip.c **** 
 407:C:/Users/stapi/OneDrive/Desktop/GD32VW553/GD32VW55X_Wifi_BLE_SDK/GD32VW55x_RELEASE_V1.0.2/MSDK/lwip/libcoap-4.3.4/src\coap_io_lwip.c ****   err = udp_connect(pcb, &server->addr, server->port);
 1266              		.loc 1 407 9
 1267 0040 93054900 		addi	a1,s2,4
 1268 0044 2285     		mv	a0,s0
 1269              	.LVL149:
 405:C:/Users/stapi/OneDrive/Desktop/GD32VW553/GD32VW55X_Wifi_BLE_SDK/GD32VW55x_RELEASE_V1.0.2/MSDK/lwip/libcoap-4.3.4/src\coap_io_lwip.c **** 
 1270              		.loc 1 405 39
 1271 0046 239AE704 		sh	a4,84(a5)
 1272              		.loc 1 407 3 is_stmt 1
 1273              		.loc 1 407 9 is_stmt 0
 1274 004a 03560900 		lhu	a2,0(s2)
 1275 004e 97000000 		call	udp_connect
 1275      E7800000 
 1276              	.LVL150:
 408:C:/Users/stapi/OneDrive/Desktop/GD32VW553/GD32VW55X_Wifi_BLE_SDK/GD32VW55x_RELEASE_V1.0.2/MSDK/lwip/libcoap-4.3.4/src\coap_io_lwip.c ****   if (err) {
 1277              		.loc 1 408 3 is_stmt 1
 1278              		.loc 1 408 6 is_stmt 0
 1279 0056 1DE5     		bne	a0,zero,.L95
 409:C:/Users/stapi/OneDrive/Desktop/GD32VW553/GD32VW55X_Wifi_BLE_SDK/GD32VW55x_RELEASE_V1.0.2/MSDK/lwip/libcoap-4.3.4/src\coap_io_lwip.c ****     goto err_udp_unbind;
 410:C:/Users/stapi/OneDrive/Desktop/GD32VW553/GD32VW55X_Wifi_BLE_SDK/GD32VW55x_RELEASE_V1.0.2/MSDK/lwip/libcoap-4.3.4/src\coap_io_lwip.c ****   }
 411:C:/Users/stapi/OneDrive/Desktop/GD32VW553/GD32VW55X_Wifi_BLE_SDK/GD32VW55x_RELEASE_V1.0.2/MSDK/lwip/libcoap-4.3.4/src\coap_io_lwip.c **** 
 412:C:/Users/stapi/OneDrive/Desktop/GD32VW553/GD32VW55X_Wifi_BLE_SDK/GD32VW55x_RELEASE_V1.0.2/MSDK/lwip/libcoap-4.3.4/src\coap_io_lwip.c **** #if LWIP_IPV6 && LWIP_IPV4
 413:C:/Users/stapi/OneDrive/Desktop/GD32VW553/GD32VW55X_Wifi_BLE_SDK/GD32VW55x_RELEASE_V1.0.2/MSDK/lwip/libcoap-4.3.4/src\coap_io_lwip.c ****   pcb->local_ip.type = pcb->remote_ip.type;
 414:C:/Users/stapi/OneDrive/Desktop/GD32VW553/GD32VW55X_Wifi_BLE_SDK/GD32VW55x_RELEASE_V1.0.2/MSDK/lwip/libcoap-4.3.4/src\coap_io_lwip.c **** #endif /* LWIP_IPV6 && LWIP_IPV4 */
 415:C:/Users/stapi/OneDrive/Desktop/GD32VW553/GD32VW55X_Wifi_BLE_SDK/GD32VW55x_RELEASE_V1.0.2/MSDK/lwip/libcoap-4.3.4/src\coap_io_lwip.c **** 
 416:C:/Users/stapi/OneDrive/Desktop/GD32VW553/GD32VW55X_Wifi_BLE_SDK/GD32VW55x_RELEASE_V1.0.2/MSDK/lwip/libcoap-4.3.4/src\coap_io_lwip.c ****   sock->pcb = pcb;
 1280              		.loc 1 416 3 is_stmt 1
 417:C:/Users/stapi/OneDrive/Desktop/GD32VW553/GD32VW55X_Wifi_BLE_SDK/GD32VW55x_RELEASE_V1.0.2/MSDK/lwip/libcoap-4.3.4/src\coap_io_lwip.c **** 
 418:C:/Users/stapi/OneDrive/Desktop/GD32VW553/GD32VW55X_Wifi_BLE_SDK/GD32VW55x_RELEASE_V1.0.2/MSDK/lwip/libcoap-4.3.4/src\coap_io_lwip.c ****   udp_recv(sock->pcb, coap_recvc, (void *)sock->session);
 1281              		.loc 1 418 3 is_stmt 0
 1282 0058 9044     		lw	a2,8(s1)
 1283 005a B7050000 		lui	a1,%hi(coap_recvc)
 1284 005e 93850500 		addi	a1,a1,%lo(coap_recvc)
 1285 0062 2285     		mv	a0,s0
 1286              	.LVL151:
 416:C:/Users/stapi/OneDrive/Desktop/GD32VW553/GD32VW55X_Wifi_BLE_SDK/GD32VW55x_RELEASE_V1.0.2/MSDK/lwip/libcoap-4.3.4/src\coap_io_lwip.c **** 
 1287              		.loc 1 416 13
 1288 0064 80C0     		sw	s0,0(s1)
 1289              		.loc 1 418 3 is_stmt 1
 1290 0066 97000000 		call	udp_recv
 1290      E7800000 
 1291              	.LVL152:
 419:C:/Users/stapi/OneDrive/Desktop/GD32VW553/GD32VW55X_Wifi_BLE_SDK/GD32VW55x_RELEASE_V1.0.2/MSDK/lwip/libcoap-4.3.4/src\coap_io_lwip.c **** 
 420:C:/Users/stapi/OneDrive/Desktop/GD32VW553/GD32VW55X_Wifi_BLE_SDK/GD32VW55x_RELEASE_V1.0.2/MSDK/lwip/libcoap-4.3.4/src\coap_io_lwip.c ****   UNLOCK_TCPIP_CORE();
 1292              		.loc 1 420 3
 1293 006e 13850900 		addi	a0,s3,%lo(lock_tcpip_core)
 1294 0072 97000000 		call	sys_mutex_put
 1294      E7800000 
 1295              	.LVL153:
 421:C:/Users/stapi/OneDrive/Desktop/GD32VW553/GD32VW55X_Wifi_BLE_SDK/GD32VW55x_RELEASE_V1.0.2/MSDK/lwip/libcoap-4.3.4/src\coap_io_lwip.c **** 
 422:C:/Users/stapi/OneDrive/Desktop/GD32VW553/GD32VW55X_Wifi_BLE_SDK/GD32VW55x_RELEASE_V1.0.2/MSDK/lwip/libcoap-4.3.4/src\coap_io_lwip.c ****   return 1;
 1296              		.loc 1 422 3
 1297              		.loc 1 422 10 is_stmt 0
 1298 007a 0545     		li	a0,1
 1299              	.LVL154:
 1300              	.L93:
 423:C:/Users/stapi/OneDrive/Desktop/GD32VW553/GD32VW55X_Wifi_BLE_SDK/GD32VW55x_RELEASE_V1.0.2/MSDK/lwip/libcoap-4.3.4/src\coap_io_lwip.c **** 
 424:C:/Users/stapi/OneDrive/Desktop/GD32VW553/GD32VW55X_Wifi_BLE_SDK/GD32VW55x_RELEASE_V1.0.2/MSDK/lwip/libcoap-4.3.4/src\coap_io_lwip.c **** err_udp_unbind:
 425:C:/Users/stapi/OneDrive/Desktop/GD32VW553/GD32VW55X_Wifi_BLE_SDK/GD32VW55x_RELEASE_V1.0.2/MSDK/lwip/libcoap-4.3.4/src\coap_io_lwip.c **** err_udp_remove:
 426:C:/Users/stapi/OneDrive/Desktop/GD32VW553/GD32VW55X_Wifi_BLE_SDK/GD32VW55x_RELEASE_V1.0.2/MSDK/lwip/libcoap-4.3.4/src\coap_io_lwip.c ****   udp_remove(pcb);
 427:C:/Users/stapi/OneDrive/Desktop/GD32VW553/GD32VW55X_Wifi_BLE_SDK/GD32VW55x_RELEASE_V1.0.2/MSDK/lwip/libcoap-4.3.4/src\coap_io_lwip.c **** err_unlock:
 428:C:/Users/stapi/OneDrive/Desktop/GD32VW553/GD32VW55X_Wifi_BLE_SDK/GD32VW55x_RELEASE_V1.0.2/MSDK/lwip/libcoap-4.3.4/src\coap_io_lwip.c ****   UNLOCK_TCPIP_CORE();
 429:C:/Users/stapi/OneDrive/Desktop/GD32VW553/GD32VW55X_Wifi_BLE_SDK/GD32VW55x_RELEASE_V1.0.2/MSDK/lwip/libcoap-4.3.4/src\coap_io_lwip.c ****   return 0;
 430:C:/Users/stapi/OneDrive/Desktop/GD32VW553/GD32VW55X_Wifi_BLE_SDK/GD32VW55x_RELEASE_V1.0.2/MSDK/lwip/libcoap-4.3.4/src\coap_io_lwip.c **** }
 1301              		.loc 1 430 1
 1302 007c 17030000 		tail	__riscv_restore_5
 1302      67000300 
 1303              		.cfi_remember_state
 1304              		.cfi_restore 20
 1305              		.cfi_restore 19
 1306              		.cfi_restore 18
 1307              		.cfi_restore 9
 1308              		.cfi_restore 8
 1309              		.cfi_restore 1
 1310              		.cfi_def_cfa_offset 0
 1311              	.LVL155:
 1312              	.L95:
 1313              		.cfi_restore_state
 1314              	.LDL1:
 1315              	.LDL2:
 426:C:/Users/stapi/OneDrive/Desktop/GD32VW553/GD32VW55X_Wifi_BLE_SDK/GD32VW55x_RELEASE_V1.0.2/MSDK/lwip/libcoap-4.3.4/src\coap_io_lwip.c **** err_unlock:
 1316              		.loc 1 426 3 is_stmt 1
 1317 0084 2285     		mv	a0,s0
 1318              	.LVL156:
 1319 0086 97000000 		call	udp_remove
 1319      E7800000 
 1320              	.LVL157:
 1321              	.L94:
 428:C:/Users/stapi/OneDrive/Desktop/GD32VW553/GD32VW55X_Wifi_BLE_SDK/GD32VW55x_RELEASE_V1.0.2/MSDK/lwip/libcoap-4.3.4/src\coap_io_lwip.c ****   return 0;
 1322              		.loc 1 428 3
 1323 008e 13050A00 		addi	a0,s4,%lo(lock_tcpip_core)
 1324 0092 97000000 		call	sys_mutex_put
 1324      E7800000 
 1325              	.LVL158:
 429:C:/Users/stapi/OneDrive/Desktop/GD32VW553/GD32VW55X_Wifi_BLE_SDK/GD32VW55x_RELEASE_V1.0.2/MSDK/lwip/libcoap-4.3.4/src\coap_io_lwip.c **** }
 1326              		.loc 1 429 3
 429:C:/Users/stapi/OneDrive/Desktop/GD32VW553/GD32VW55X_Wifi_BLE_SDK/GD32VW55x_RELEASE_V1.0.2/MSDK/lwip/libcoap-4.3.4/src\coap_io_lwip.c **** }
 1327              		.loc 1 429 10 is_stmt 0
 1328 009a 0145     		li	a0,0
 1329 009c C5B7     		j	.L93
 1330              		.cfi_endproc
 1331              	.LFE42:
 1333              		.section	.text.coap_socket_write,"ax",@progbits
 1334              		.align	1
 1335              		.globl	coap_socket_write
 1337              	coap_socket_write:
 1338              	.LFB43:
 431:C:/Users/stapi/OneDrive/Desktop/GD32VW553/GD32VW55X_Wifi_BLE_SDK/GD32VW55x_RELEASE_V1.0.2/MSDK/lwip/libcoap-4.3.4/src\coap_io_lwip.c **** #endif /* ! COAP_CLIENT_SUPPORT */
 432:C:/Users/stapi/OneDrive/Desktop/GD32VW553/GD32VW55X_Wifi_BLE_SDK/GD32VW55x_RELEASE_V1.0.2/MSDK/lwip/libcoap-4.3.4/src\coap_io_lwip.c **** 
 433:C:/Users/stapi/OneDrive/Desktop/GD32VW553/GD32VW55X_Wifi_BLE_SDK/GD32VW55x_RELEASE_V1.0.2/MSDK/lwip/libcoap-4.3.4/src\coap_io_lwip.c **** #if ! COAP_DISABLE_TCP
 434:C:/Users/stapi/OneDrive/Desktop/GD32VW553/GD32VW55X_Wifi_BLE_SDK/GD32VW55x_RELEASE_V1.0.2/MSDK/lwip/libcoap-4.3.4/src\coap_io_lwip.c **** int
 435:C:/Users/stapi/OneDrive/Desktop/GD32VW553/GD32VW55X_Wifi_BLE_SDK/GD32VW55x_RELEASE_V1.0.2/MSDK/lwip/libcoap-4.3.4/src\coap_io_lwip.c **** coap_socket_connect_tcp1(coap_socket_t *sock,
 436:C:/Users/stapi/OneDrive/Desktop/GD32VW553/GD32VW55X_Wifi_BLE_SDK/GD32VW55x_RELEASE_V1.0.2/MSDK/lwip/libcoap-4.3.4/src\coap_io_lwip.c ****                          const coap_address_t *local_if,
 437:C:/Users/stapi/OneDrive/Desktop/GD32VW553/GD32VW55X_Wifi_BLE_SDK/GD32VW55x_RELEASE_V1.0.2/MSDK/lwip/libcoap-4.3.4/src\coap_io_lwip.c ****                          const coap_address_t *server,
 438:C:/Users/stapi/OneDrive/Desktop/GD32VW553/GD32VW55X_Wifi_BLE_SDK/GD32VW55x_RELEASE_V1.0.2/MSDK/lwip/libcoap-4.3.4/src\coap_io_lwip.c ****                          int default_port,
 439:C:/Users/stapi/OneDrive/Desktop/GD32VW553/GD32VW55X_Wifi_BLE_SDK/GD32VW55x_RELEASE_V1.0.2/MSDK/lwip/libcoap-4.3.4/src\coap_io_lwip.c ****                          coap_address_t *local_addr,
 440:C:/Users/stapi/OneDrive/Desktop/GD32VW553/GD32VW55X_Wifi_BLE_SDK/GD32VW55x_RELEASE_V1.0.2/MSDK/lwip/libcoap-4.3.4/src\coap_io_lwip.c ****                          coap_address_t *remote_addr) {
 441:C:/Users/stapi/OneDrive/Desktop/GD32VW553/GD32VW55X_Wifi_BLE_SDK/GD32VW55x_RELEASE_V1.0.2/MSDK/lwip/libcoap-4.3.4/src\coap_io_lwip.c ****   (void)sock;
 442:C:/Users/stapi/OneDrive/Desktop/GD32VW553/GD32VW55X_Wifi_BLE_SDK/GD32VW55x_RELEASE_V1.0.2/MSDK/lwip/libcoap-4.3.4/src\coap_io_lwip.c ****   (void)local_if;
 443:C:/Users/stapi/OneDrive/Desktop/GD32VW553/GD32VW55X_Wifi_BLE_SDK/GD32VW55x_RELEASE_V1.0.2/MSDK/lwip/libcoap-4.3.4/src\coap_io_lwip.c ****   (void)server;
 444:C:/Users/stapi/OneDrive/Desktop/GD32VW553/GD32VW55X_Wifi_BLE_SDK/GD32VW55x_RELEASE_V1.0.2/MSDK/lwip/libcoap-4.3.4/src\coap_io_lwip.c ****   (void)default_port;
 445:C:/Users/stapi/OneDrive/Desktop/GD32VW553/GD32VW55X_Wifi_BLE_SDK/GD32VW55x_RELEASE_V1.0.2/MSDK/lwip/libcoap-4.3.4/src\coap_io_lwip.c ****   (void)local_addr;
 446:C:/Users/stapi/OneDrive/Desktop/GD32VW553/GD32VW55X_Wifi_BLE_SDK/GD32VW55x_RELEASE_V1.0.2/MSDK/lwip/libcoap-4.3.4/src\coap_io_lwip.c ****   (void)remote_addr;
 447:C:/Users/stapi/OneDrive/Desktop/GD32VW553/GD32VW55X_Wifi_BLE_SDK/GD32VW55x_RELEASE_V1.0.2/MSDK/lwip/libcoap-4.3.4/src\coap_io_lwip.c ****   return 0;
 448:C:/Users/stapi/OneDrive/Desktop/GD32VW553/GD32VW55X_Wifi_BLE_SDK/GD32VW55x_RELEASE_V1.0.2/MSDK/lwip/libcoap-4.3.4/src\coap_io_lwip.c **** }
 449:C:/Users/stapi/OneDrive/Desktop/GD32VW553/GD32VW55X_Wifi_BLE_SDK/GD32VW55x_RELEASE_V1.0.2/MSDK/lwip/libcoap-4.3.4/src\coap_io_lwip.c **** 
 450:C:/Users/stapi/OneDrive/Desktop/GD32VW553/GD32VW55X_Wifi_BLE_SDK/GD32VW55x_RELEASE_V1.0.2/MSDK/lwip/libcoap-4.3.4/src\coap_io_lwip.c **** int
 451:C:/Users/stapi/OneDrive/Desktop/GD32VW553/GD32VW55X_Wifi_BLE_SDK/GD32VW55x_RELEASE_V1.0.2/MSDK/lwip/libcoap-4.3.4/src\coap_io_lwip.c **** coap_socket_connect_tcp2(coap_socket_t *sock,
 452:C:/Users/stapi/OneDrive/Desktop/GD32VW553/GD32VW55X_Wifi_BLE_SDK/GD32VW55x_RELEASE_V1.0.2/MSDK/lwip/libcoap-4.3.4/src\coap_io_lwip.c ****                          coap_address_t *local_addr,
 453:C:/Users/stapi/OneDrive/Desktop/GD32VW553/GD32VW55X_Wifi_BLE_SDK/GD32VW55x_RELEASE_V1.0.2/MSDK/lwip/libcoap-4.3.4/src\coap_io_lwip.c ****                          coap_address_t *remote_addr) {
 454:C:/Users/stapi/OneDrive/Desktop/GD32VW553/GD32VW55X_Wifi_BLE_SDK/GD32VW55x_RELEASE_V1.0.2/MSDK/lwip/libcoap-4.3.4/src\coap_io_lwip.c ****   (void)sock;
 455:C:/Users/stapi/OneDrive/Desktop/GD32VW553/GD32VW55X_Wifi_BLE_SDK/GD32VW55x_RELEASE_V1.0.2/MSDK/lwip/libcoap-4.3.4/src\coap_io_lwip.c ****   (void)local_addr;
 456:C:/Users/stapi/OneDrive/Desktop/GD32VW553/GD32VW55X_Wifi_BLE_SDK/GD32VW55x_RELEASE_V1.0.2/MSDK/lwip/libcoap-4.3.4/src\coap_io_lwip.c ****   (void)remote_addr;
 457:C:/Users/stapi/OneDrive/Desktop/GD32VW553/GD32VW55X_Wifi_BLE_SDK/GD32VW55x_RELEASE_V1.0.2/MSDK/lwip/libcoap-4.3.4/src\coap_io_lwip.c ****   return 0;
 458:C:/Users/stapi/OneDrive/Desktop/GD32VW553/GD32VW55X_Wifi_BLE_SDK/GD32VW55x_RELEASE_V1.0.2/MSDK/lwip/libcoap-4.3.4/src\coap_io_lwip.c **** }
 459:C:/Users/stapi/OneDrive/Desktop/GD32VW553/GD32VW55X_Wifi_BLE_SDK/GD32VW55x_RELEASE_V1.0.2/MSDK/lwip/libcoap-4.3.4/src\coap_io_lwip.c **** 
 460:C:/Users/stapi/OneDrive/Desktop/GD32VW553/GD32VW55X_Wifi_BLE_SDK/GD32VW55x_RELEASE_V1.0.2/MSDK/lwip/libcoap-4.3.4/src\coap_io_lwip.c **** int
 461:C:/Users/stapi/OneDrive/Desktop/GD32VW553/GD32VW55X_Wifi_BLE_SDK/GD32VW55x_RELEASE_V1.0.2/MSDK/lwip/libcoap-4.3.4/src\coap_io_lwip.c **** coap_socket_bind_tcp(coap_socket_t *sock,
 462:C:/Users/stapi/OneDrive/Desktop/GD32VW553/GD32VW55X_Wifi_BLE_SDK/GD32VW55x_RELEASE_V1.0.2/MSDK/lwip/libcoap-4.3.4/src\coap_io_lwip.c ****                      const coap_address_t *listen_addr,
 463:C:/Users/stapi/OneDrive/Desktop/GD32VW553/GD32VW55X_Wifi_BLE_SDK/GD32VW55x_RELEASE_V1.0.2/MSDK/lwip/libcoap-4.3.4/src\coap_io_lwip.c ****                      coap_address_t *bound_addr) {
 464:C:/Users/stapi/OneDrive/Desktop/GD32VW553/GD32VW55X_Wifi_BLE_SDK/GD32VW55x_RELEASE_V1.0.2/MSDK/lwip/libcoap-4.3.4/src\coap_io_lwip.c ****   (void)sock;
 465:C:/Users/stapi/OneDrive/Desktop/GD32VW553/GD32VW55X_Wifi_BLE_SDK/GD32VW55x_RELEASE_V1.0.2/MSDK/lwip/libcoap-4.3.4/src\coap_io_lwip.c ****   (void)listen_addr;
 466:C:/Users/stapi/OneDrive/Desktop/GD32VW553/GD32VW55X_Wifi_BLE_SDK/GD32VW55x_RELEASE_V1.0.2/MSDK/lwip/libcoap-4.3.4/src\coap_io_lwip.c ****   (void)bound_addr;
 467:C:/Users/stapi/OneDrive/Desktop/GD32VW553/GD32VW55X_Wifi_BLE_SDK/GD32VW55x_RELEASE_V1.0.2/MSDK/lwip/libcoap-4.3.4/src\coap_io_lwip.c ****   return 0;
 468:C:/Users/stapi/OneDrive/Desktop/GD32VW553/GD32VW55X_Wifi_BLE_SDK/GD32VW55x_RELEASE_V1.0.2/MSDK/lwip/libcoap-4.3.4/src\coap_io_lwip.c **** }
 469:C:/Users/stapi/OneDrive/Desktop/GD32VW553/GD32VW55X_Wifi_BLE_SDK/GD32VW55x_RELEASE_V1.0.2/MSDK/lwip/libcoap-4.3.4/src\coap_io_lwip.c **** 
 470:C:/Users/stapi/OneDrive/Desktop/GD32VW553/GD32VW55X_Wifi_BLE_SDK/GD32VW55x_RELEASE_V1.0.2/MSDK/lwip/libcoap-4.3.4/src\coap_io_lwip.c **** int
 471:C:/Users/stapi/OneDrive/Desktop/GD32VW553/GD32VW55X_Wifi_BLE_SDK/GD32VW55x_RELEASE_V1.0.2/MSDK/lwip/libcoap-4.3.4/src\coap_io_lwip.c **** coap_socket_accept_tcp(coap_socket_t *server,
 472:C:/Users/stapi/OneDrive/Desktop/GD32VW553/GD32VW55X_Wifi_BLE_SDK/GD32VW55x_RELEASE_V1.0.2/MSDK/lwip/libcoap-4.3.4/src\coap_io_lwip.c ****                        coap_socket_t *new_client,
 473:C:/Users/stapi/OneDrive/Desktop/GD32VW553/GD32VW55X_Wifi_BLE_SDK/GD32VW55x_RELEASE_V1.0.2/MSDK/lwip/libcoap-4.3.4/src\coap_io_lwip.c ****                        coap_address_t *local_addr,
 474:C:/Users/stapi/OneDrive/Desktop/GD32VW553/GD32VW55X_Wifi_BLE_SDK/GD32VW55x_RELEASE_V1.0.2/MSDK/lwip/libcoap-4.3.4/src\coap_io_lwip.c ****                        coap_address_t *remote_addr) {
 475:C:/Users/stapi/OneDrive/Desktop/GD32VW553/GD32VW55X_Wifi_BLE_SDK/GD32VW55x_RELEASE_V1.0.2/MSDK/lwip/libcoap-4.3.4/src\coap_io_lwip.c ****   (void)server;
 476:C:/Users/stapi/OneDrive/Desktop/GD32VW553/GD32VW55X_Wifi_BLE_SDK/GD32VW55x_RELEASE_V1.0.2/MSDK/lwip/libcoap-4.3.4/src\coap_io_lwip.c ****   (void)new_client;
 477:C:/Users/stapi/OneDrive/Desktop/GD32VW553/GD32VW55X_Wifi_BLE_SDK/GD32VW55x_RELEASE_V1.0.2/MSDK/lwip/libcoap-4.3.4/src\coap_io_lwip.c ****   (void)local_addr;
 478:C:/Users/stapi/OneDrive/Desktop/GD32VW553/GD32VW55X_Wifi_BLE_SDK/GD32VW55x_RELEASE_V1.0.2/MSDK/lwip/libcoap-4.3.4/src\coap_io_lwip.c ****   (void)remote_addr;
 479:C:/Users/stapi/OneDrive/Desktop/GD32VW553/GD32VW55X_Wifi_BLE_SDK/GD32VW55x_RELEASE_V1.0.2/MSDK/lwip/libcoap-4.3.4/src\coap_io_lwip.c ****   return 0;
 480:C:/Users/stapi/OneDrive/Desktop/GD32VW553/GD32VW55X_Wifi_BLE_SDK/GD32VW55x_RELEASE_V1.0.2/MSDK/lwip/libcoap-4.3.4/src\coap_io_lwip.c **** }
 481:C:/Users/stapi/OneDrive/Desktop/GD32VW553/GD32VW55X_Wifi_BLE_SDK/GD32VW55x_RELEASE_V1.0.2/MSDK/lwip/libcoap-4.3.4/src\coap_io_lwip.c **** #endif /* !COAP_DISABLE_TCP */
 482:C:/Users/stapi/OneDrive/Desktop/GD32VW553/GD32VW55X_Wifi_BLE_SDK/GD32VW55x_RELEASE_V1.0.2/MSDK/lwip/libcoap-4.3.4/src\coap_io_lwip.c **** 
 483:C:/Users/stapi/OneDrive/Desktop/GD32VW553/GD32VW55X_Wifi_BLE_SDK/GD32VW55x_RELEASE_V1.0.2/MSDK/lwip/libcoap-4.3.4/src\coap_io_lwip.c **** ssize_t
 484:C:/Users/stapi/OneDrive/Desktop/GD32VW553/GD32VW55X_Wifi_BLE_SDK/GD32VW55x_RELEASE_V1.0.2/MSDK/lwip/libcoap-4.3.4/src\coap_io_lwip.c **** coap_socket_write(coap_socket_t *sock, const uint8_t *data, size_t data_len) {
 1339              		.loc 1 484 78 is_stmt 1
 1340              		.cfi_startproc
 1341              	.LVL159:
 485:C:/Users/stapi/OneDrive/Desktop/GD32VW553/GD32VW55X_Wifi_BLE_SDK/GD32VW55x_RELEASE_V1.0.2/MSDK/lwip/libcoap-4.3.4/src\coap_io_lwip.c ****   (void)sock;
 1342              		.loc 1 485 3
 486:C:/Users/stapi/OneDrive/Desktop/GD32VW553/GD32VW55X_Wifi_BLE_SDK/GD32VW55x_RELEASE_V1.0.2/MSDK/lwip/libcoap-4.3.4/src\coap_io_lwip.c ****   (void)data;
 1343              		.loc 1 486 3
 487:C:/Users/stapi/OneDrive/Desktop/GD32VW553/GD32VW55X_Wifi_BLE_SDK/GD32VW55x_RELEASE_V1.0.2/MSDK/lwip/libcoap-4.3.4/src\coap_io_lwip.c ****   (void)data_len;
 1344              		.loc 1 487 3
 488:C:/Users/stapi/OneDrive/Desktop/GD32VW553/GD32VW55X_Wifi_BLE_SDK/GD32VW55x_RELEASE_V1.0.2/MSDK/lwip/libcoap-4.3.4/src\coap_io_lwip.c ****   return -1;
 1345              		.loc 1 488 3
 489:C:/Users/stapi/OneDrive/Desktop/GD32VW553/GD32VW55X_Wifi_BLE_SDK/GD32VW55x_RELEASE_V1.0.2/MSDK/lwip/libcoap-4.3.4/src\coap_io_lwip.c **** }
 1346              		.loc 1 489 1 is_stmt 0
 1347 0000 7D55     		li	a0,-1
 1348              	.LVL160:
 1349 0002 8280     		ret
 1350              		.cfi_endproc
 1351              	.LFE43:
 1353              		.section	.text.coap_socket_read,"ax",@progbits
 1354              		.align	1
 1355              		.globl	coap_socket_read
 1357              	coap_socket_read:
 1358              	.LFB49:
 1359              		.cfi_startproc
 1360 0000 7D55     		li	a0,-1
 1361 0002 8280     		ret
 1362              		.cfi_endproc
 1363              	.LFE49:
 1365              		.section	.text.coap_socket_close,"ax",@progbits
 1366              		.align	1
 1367              		.globl	coap_socket_close
 1369              	coap_socket_close:
 1370              	.LFB45:
 490:C:/Users/stapi/OneDrive/Desktop/GD32VW553/GD32VW55X_Wifi_BLE_SDK/GD32VW55x_RELEASE_V1.0.2/MSDK/lwip/libcoap-4.3.4/src\coap_io_lwip.c **** 
 491:C:/Users/stapi/OneDrive/Desktop/GD32VW553/GD32VW55X_Wifi_BLE_SDK/GD32VW55x_RELEASE_V1.0.2/MSDK/lwip/libcoap-4.3.4/src\coap_io_lwip.c **** ssize_t
 492:C:/Users/stapi/OneDrive/Desktop/GD32VW553/GD32VW55X_Wifi_BLE_SDK/GD32VW55x_RELEASE_V1.0.2/MSDK/lwip/libcoap-4.3.4/src\coap_io_lwip.c **** coap_socket_read(coap_socket_t *sock, uint8_t *data, size_t data_len) {
 493:C:/Users/stapi/OneDrive/Desktop/GD32VW553/GD32VW55X_Wifi_BLE_SDK/GD32VW55x_RELEASE_V1.0.2/MSDK/lwip/libcoap-4.3.4/src\coap_io_lwip.c ****   (void)sock;
 494:C:/Users/stapi/OneDrive/Desktop/GD32VW553/GD32VW55X_Wifi_BLE_SDK/GD32VW55x_RELEASE_V1.0.2/MSDK/lwip/libcoap-4.3.4/src\coap_io_lwip.c ****   (void)data;
 495:C:/Users/stapi/OneDrive/Desktop/GD32VW553/GD32VW55X_Wifi_BLE_SDK/GD32VW55x_RELEASE_V1.0.2/MSDK/lwip/libcoap-4.3.4/src\coap_io_lwip.c ****   (void)data_len;
 496:C:/Users/stapi/OneDrive/Desktop/GD32VW553/GD32VW55X_Wifi_BLE_SDK/GD32VW55x_RELEASE_V1.0.2/MSDK/lwip/libcoap-4.3.4/src\coap_io_lwip.c ****   return -1;
 497:C:/Users/stapi/OneDrive/Desktop/GD32VW553/GD32VW55X_Wifi_BLE_SDK/GD32VW55x_RELEASE_V1.0.2/MSDK/lwip/libcoap-4.3.4/src\coap_io_lwip.c **** }
 498:C:/Users/stapi/OneDrive/Desktop/GD32VW553/GD32VW55X_Wifi_BLE_SDK/GD32VW55x_RELEASE_V1.0.2/MSDK/lwip/libcoap-4.3.4/src\coap_io_lwip.c **** 
 499:C:/Users/stapi/OneDrive/Desktop/GD32VW553/GD32VW55X_Wifi_BLE_SDK/GD32VW55x_RELEASE_V1.0.2/MSDK/lwip/libcoap-4.3.4/src\coap_io_lwip.c **** void
 500:C:/Users/stapi/OneDrive/Desktop/GD32VW553/GD32VW55X_Wifi_BLE_SDK/GD32VW55x_RELEASE_V1.0.2/MSDK/lwip/libcoap-4.3.4/src\coap_io_lwip.c **** coap_socket_close(coap_socket_t *sock) {
 1371              		.loc 1 500 40 is_stmt 1
 1372              		.cfi_startproc
 1373              	.LVL161:
 1374              		.loc 1 500 40 is_stmt 0
 1375 0000 17030000 		call	t0,__riscv_save_2
 1375      E7020300 
 1376              		.cfi_offset 9, -12
 1377              		.cfi_offset 8, -8
 1378              		.cfi_offset 1, -4
 1379              		.cfi_def_cfa_offset 16
 501:C:/Users/stapi/OneDrive/Desktop/GD32VW553/GD32VW55X_Wifi_BLE_SDK/GD32VW55x_RELEASE_V1.0.2/MSDK/lwip/libcoap-4.3.4/src\coap_io_lwip.c ****   if (sock->pcb) {
 1380              		.loc 1 501 3 is_stmt 1
 1381              		.loc 1 501 6 is_stmt 0
 1382 0008 1C41     		lw	a5,0(a0)
 500:C:/Users/stapi/OneDrive/Desktop/GD32VW553/GD32VW55X_Wifi_BLE_SDK/GD32VW55x_RELEASE_V1.0.2/MSDK/lwip/libcoap-4.3.4/src\coap_io_lwip.c ****   if (sock->pcb) {
 1383              		.loc 1 500 40
 1384 000a 2A84     		mv	s0,a0
 1385              		.loc 1 501 6
 1386 000c 85C7     		beq	a5,zero,.L104
 502:C:/Users/stapi/OneDrive/Desktop/GD32VW553/GD32VW55X_Wifi_BLE_SDK/GD32VW55x_RELEASE_V1.0.2/MSDK/lwip/libcoap-4.3.4/src\coap_io_lwip.c ****     LOCK_TCPIP_CORE();
 1387              		.loc 1 502 5 is_stmt 1
 1388 000e B7040000 		lui	s1,%hi(lock_tcpip_core)
 1389 0012 13850400 		addi	a0,s1,%lo(lock_tcpip_core)
 1390              	.LVL162:
 1391 0016 97000000 		call	sys_mutex_get
 1391      E7800000 
 1392              	.LVL163:
 503:C:/Users/stapi/OneDrive/Desktop/GD32VW553/GD32VW55X_Wifi_BLE_SDK/GD32VW55x_RELEASE_V1.0.2/MSDK/lwip/libcoap-4.3.4/src\coap_io_lwip.c ****     udp_remove(sock->pcb);
 1393              		.loc 1 503 5
 1394 001e 0840     		lw	a0,0(s0)
 1395 0020 97000000 		call	udp_remove
 1395      E7800000 
 1396              	.LVL164:
 504:C:/Users/stapi/OneDrive/Desktop/GD32VW553/GD32VW55X_Wifi_BLE_SDK/GD32VW55x_RELEASE_V1.0.2/MSDK/lwip/libcoap-4.3.4/src\coap_io_lwip.c ****     UNLOCK_TCPIP_CORE();
 1397              		.loc 1 504 5
 1398 0028 13850400 		addi	a0,s1,%lo(lock_tcpip_core)
 1399 002c 97000000 		call	sys_mutex_put
 1399      E7800000 
 1400              	.LVL165:
 1401              	.L104:
 505:C:/Users/stapi/OneDrive/Desktop/GD32VW553/GD32VW55X_Wifi_BLE_SDK/GD32VW55x_RELEASE_V1.0.2/MSDK/lwip/libcoap-4.3.4/src\coap_io_lwip.c ****   }
 506:C:/Users/stapi/OneDrive/Desktop/GD32VW553/GD32VW55X_Wifi_BLE_SDK/GD32VW55x_RELEASE_V1.0.2/MSDK/lwip/libcoap-4.3.4/src\coap_io_lwip.c ****   sock->pcb = NULL;
 1402              		.loc 1 506 3
 1403              		.loc 1 506 13 is_stmt 0
 1404 0034 23200400 		sw	zero,0(s0)
 507:C:/Users/stapi/OneDrive/Desktop/GD32VW553/GD32VW55X_Wifi_BLE_SDK/GD32VW55x_RELEASE_V1.0.2/MSDK/lwip/libcoap-4.3.4/src\coap_io_lwip.c ****   return;
 1405              		.loc 1 507 3 is_stmt 1
 508:C:/Users/stapi/OneDrive/Desktop/GD32VW553/GD32VW55X_Wifi_BLE_SDK/GD32VW55x_RELEASE_V1.0.2/MSDK/lwip/libcoap-4.3.4/src\coap_io_lwip.c **** }
 1406              		.loc 1 508 1 is_stmt 0
 1407 0038 17030000 		tail	__riscv_restore_2
 1407      67000300 
 1408              		.cfi_restore 9
 1409              		.cfi_restore 8
 1410              		.cfi_restore 1
 1411              		.cfi_def_cfa_offset 0
 1412              		.cfi_endproc
 1413              	.LFE45:
 1415              		.section	.rodata.__func__.0,"a"
 1416              		.align	2
 1417              		.set	.LANCHOR0,. + 0
 1420              	__func__.0:
 1421 0000 636F6170 		.string	"coap_recvc"
 1421      5F726563 
 1421      766300
 1422              		.section	.rodata.__func__.1,"a"
 1423              		.align	2
 1424              		.set	.LANCHOR1,. + 0
 1427              	__func__.1:
 1428 0000 636F6170 		.string	"coap_socket_recv"
 1428      5F736F63 
 1428      6B65745F 
 1428      72656376 
 1428      00
 1429              		.text
 1430              	.Letext0:
 1431              		.file 4 "c:\\users\\stapi\\onedrive\\desktop\\gd32vw553\\embeddedbuilder_v1.4.7.26843\\tools\\nucl
 1432              		.file 5 "c:\\users\\stapi\\onedrive\\desktop\\gd32vw553\\embeddedbuilder_v1.4.7.26843\\tools\\nucl
 1433              		.file 6 "c:\\users\\stapi\\onedrive\\desktop\\gd32vw553\\embeddedbuilder_v1.4.7.26843\\tools\\nucl
 1434              		.file 7 "c:\\users\\stapi\\onedrive\\desktop\\gd32vw553\\embeddedbuilder_v1.4.7.26843\\tools\\nucl
 1435              		.file 8 "c:\\users\\stapi\\onedrive\\desktop\\gd32vw553\\embeddedbuilder_v1.4.7.26843\\tools\\nucl
 1436              		.file 9 "..\\..\\..\\..\\lwip\\lwip-2.1.2\\src\\include/lwip/arch.h"
 1437              		.file 10 "..\\..\\..\\..\\lwip\\libcoap-4.3.4\\include/coap3/coap_forward_decls.h"
 1438              		.file 11 "..\\..\\..\\..\\lwip\\libcoap-4.3.4\\include/coap3/coap_address.h"
 1439              		.file 12 "..\\..\\..\\..\\lwip\\libcoap-4.3.4\\include/coap3/coap_async_internal.h"
 1440              		.file 13 "..\\..\\..\\..\\lwip\\libcoap-4.3.4\\include/coap3/coap_block_internal.h"
 1441              		.file 14 "..\\..\\..\\..\\lwip\\libcoap-4.3.4\\include/coap3/coap_cache_internal.h"
 1442              		.file 15 "..\\..\\..\\..\\lwip\\libcoap-4.3.4\\include/coap3/coap_io_internal.h"
 1443              		.file 16 "..\\..\\..\\..\\lwip\\libcoap-4.3.4\\include/coap3/coap_net_internal.h"
 1444              		.file 17 "..\\..\\..\\..\\lwip\\libcoap-4.3.4\\include/coap3/coap_pdu_internal.h"
 1445              		.file 18 "..\\..\\..\\..\\lwip\\libcoap-4.3.4\\include/coap3/coap_resource_internal.h"
 1446              		.file 19 "..\\..\\..\\..\\lwip\\libcoap-4.3.4\\include/coap3/coap_session_internal.h"
 1447              		.file 20 "..\\..\\..\\..\\lwip\\libcoap-4.3.4\\include/coap3/coap_subscribe_internal.h"
 1448              		.file 21 "..\\..\\..\\..\\lwip\\libcoap-4.3.4\\include/coap3/coap_option.h"
 1449              		.file 22 "..\\..\\..\\..\\lwip\\libcoap-4.3.4\\include/coap3/coap_str.h"
 1450              		.file 23 "..\\..\\..\\..\\lwip\\lwip-2.1.2\\src\\include/lwip/err.h"
 1451              		.file 24 "..\\..\\..\\..\\lwip\\lwip-2.1.2\\src\\include/lwip/pbuf.h"
 1452              		.file 25 "..\\..\\..\\..\\lwip\\libcoap-4.3.4\\include/coap3/coap_pdu.h"
 1453              		.file 26 "..\\..\\..\\..\\lwip\\lwip-2.1.2\\src\\include/lwip/ip4_addr.h"
 1454              		.file 27 "..\\..\\..\\..\\lwip\\lwip-2.1.2\\src\\include/lwip/ip_addr.h"
 1455              		.file 28 "..\\..\\..\\..\\lwip\\lwip-2.1.2\\src\\include/lwip/netif.h"
 1456              		.file 29 "..\\..\\..\\..\\lwip\\lwip-2.1.2\\src\\include/lwip/sockets.h"
 1457              		.file 30 "..\\..\\..\\..\\lwip\\libcoap-4.3.4\\include/coap3/coap_io.h"
 1458              		.file 31 "..\\..\\..\\..\\rtos\\rtos_wrapper/wrapper_os.h"
 1459              		.file 32 "..\\..\\..\\..\\lwip\\lwip-2.1.2\\port/arch/sys_arch.h"
 1460              		.file 33 "..\\..\\..\\..\\lwip\\libcoap-4.3.4\\include/coap3/coap_dtls.h"
 1461              		.file 34 "..\\..\\..\\..\\lwip\\libcoap-4.3.4\\include/coap3/coap_event.h"
 1462              		.file 35 "..\\..\\..\\..\\lwip\\libcoap-4.3.4\\include/coap3/coap_session.h"
 1463              		.file 36 "..\\..\\..\\..\\lwip\\libcoap-4.3.4\\include/coap3/coap_debug.h"
 1464              		.file 37 "..\\..\\..\\..\\lwip\\libcoap-4.3.4\\include/coap3/coap_block.h"
 1465              		.file 38 "..\\..\\..\\..\\lwip\\libcoap-4.3.4\\include/coap3/coap_cache.h"
 1466              		.file 39 "..\\..\\..\\..\\lwip\\libcoap-4.3.4\\include/coap3/coap_mem.h"
 1467              		.file 40 "..\\..\\..\\..\\lwip\\libcoap-4.3.4\\include/coap3/coap_resource.h"
 1468              		.file 41 "..\\..\\..\\..\\lwip\\libcoap-4.3.4\\include/coap3/coap_subscribe.h"
 1469              		.file 42 "..\\..\\..\\..\\lwip\\libcoap-4.3.4\\include/coap3/coap_uthash_internal.h"
 1470              		.file 43 "..\\..\\..\\..\\lwip\\libcoap-4.3.4\\include/coap3/coap_layers_internal.h"
 1471              		.file 44 "..\\..\\..\\..\\lwip\\lwip-2.1.2\\src\\include/lwip/udp.h"
 1472              		.file 45 "..\\..\\..\\..\\lwip\\lwip-2.1.2\\src\\include/lwip/prot/ip4.h"
 1473              		.file 46 "..\\..\\..\\..\\lwip\\lwip-2.1.2\\src\\include/lwip/ip.h"
 1474              		.file 47 "..\\..\\..\\..\\lwip\\lwip-2.1.2\\src\\include/lwip/tcpip.h"
 1475              		.file 48 "..\\..\\..\\..\\lwip\\libcoap-4.3.4\\include/coap3/coap_debug_internal.h"
 1476              		.file 49 "c:\\users\\stapi\\onedrive\\desktop\\gd32vw553\\embeddedbuilder_v1.4.7.26843\\tools\\nuc
 1477              		.file 50 "..\\..\\..\\..\\lwip\\lwip-2.1.2\\src\\include/lwip/sys.h"
 1478              		.file 51 "..\\..\\..\\..\\lwip\\lwip-2.1.2\\src\\include/lwip/timeouts.h"
 1479              		.file 52 "..\\..\\..\\..\\lwip\\libcoap-4.3.4\\include/coap3/coap_dtls_internal.h"
 1480              		.file 53 "c:\\users\\stapi\\onedrive\\desktop\\gd32vw553\\embeddedbuilder_v1.4.7.26843\\tools\\nuc
 1481              		.file 54 "<built-in>"
DEFINED SYMBOLS
                            *ABS*:0000000000000000 coap_io_lwip.c
C:\Users\stapi\AppData\Local\Temp\ccDvGSFU.s:13     .text.coap_io_process_timeout:0000000000000000 coap_io_process_timeout
C:\Users\stapi\AppData\Local\Temp\ccDvGSFU.s:17     .text.coap_io_process_timeout:0000000000000000 .L0 
C:\Users\stapi\AppData\Local\Temp\ccDvGSFU.s:19     .text.coap_io_process_timeout:0000000000000000 .L0 
C:\Users\stapi\AppData\Local\Temp\ccDvGSFU.s:20     .text.coap_io_process_timeout:0000000000000008 .L0 
C:\Users\stapi\AppData\Local\Temp\ccDvGSFU.s:21     .text.coap_io_process_timeout:0000000000000008 .L0 
C:\Users\stapi\AppData\Local\Temp\ccDvGSFU.s:22     .text.coap_io_process_timeout:0000000000000008 .L0 
C:\Users\stapi\AppData\Local\Temp\ccDvGSFU.s:23     .text.coap_io_process_timeout:0000000000000008 .L0 
C:\Users\stapi\AppData\Local\Temp\ccDvGSFU.s:24     .text.coap_io_process_timeout:0000000000000008 .L0 
C:\Users\stapi\AppData\Local\Temp\ccDvGSFU.s:26     .text.coap_io_process_timeout:0000000000000008 .L0 
C:\Users\stapi\AppData\Local\Temp\ccDvGSFU.s:27     .text.coap_io_process_timeout:0000000000000008 .L0 
C:\Users\stapi\AppData\Local\Temp\ccDvGSFU.s:28     .text.coap_io_process_timeout:000000000000000a .L0 
C:\Users\stapi\AppData\Local\Temp\ccDvGSFU.s:30     .text.coap_io_process_timeout:000000000000000a .L0 
C:\Users\stapi\AppData\Local\Temp\ccDvGSFU.s:33     .text.coap_io_process_timeout:000000000000000c .L0 
C:\Users\stapi\AppData\Local\Temp\ccDvGSFU.s:34     .text.coap_io_process_timeout:000000000000000c .L0 
C:\Users\stapi\AppData\Local\Temp\ccDvGSFU.s:35     .text.coap_io_process_timeout:000000000000000c .L0 
C:\Users\stapi\AppData\Local\Temp\ccDvGSFU.s:39     .text.coap_io_process_timeout:000000000000000c .L0 
C:\Users\stapi\AppData\Local\Temp\ccDvGSFU.s:40     .text.coap_io_process_timeout:000000000000000c .L0 
C:\Users\stapi\AppData\Local\Temp\ccDvGSFU.s:41     .text.coap_io_process_timeout:000000000000000c .L0 
C:\Users\stapi\AppData\Local\Temp\ccDvGSFU.s:48     .text.coap_io_process_timeout:0000000000000016 .L0 
C:\Users\stapi\AppData\Local\Temp\ccDvGSFU.s:49     .text.coap_io_process_timeout:0000000000000016 .L0 
C:\Users\stapi\AppData\Local\Temp\ccDvGSFU.s:57     .text.coap_io_process_timeout:0000000000000026 .L0 
C:\Users\stapi\AppData\Local\Temp\ccDvGSFU.s:59     .text.coap_io_process_timeout:000000000000002a .L0 
C:\Users\stapi\AppData\Local\Temp\ccDvGSFU.s:62     .text.coap_io_process_timeout:000000000000002c .L0 
C:\Users\stapi\AppData\Local\Temp\ccDvGSFU.s:64     .text.coap_io_process_timeout:0000000000000030 .L0 
C:\Users\stapi\AppData\Local\Temp\ccDvGSFU.s:66     .text.coap_io_process_timeout:0000000000000032 .L0 
C:\Users\stapi\AppData\Local\Temp\ccDvGSFU.s:71     .text.coap_io_process_timeout:0000000000000040 .L0 
C:\Users\stapi\AppData\Local\Temp\ccDvGSFU.s:72     .text.coap_io_process_timeout:0000000000000040 .L0 
C:\Users\stapi\AppData\Local\Temp\ccDvGSFU.s:75     .text.coap_io_process_timeout:0000000000000044 .L0 
C:\Users\stapi\AppData\Local\Temp\ccDvGSFU.s:76     .text.coap_io_process_timeout:0000000000000044 .L0 
C:\Users\stapi\AppData\Local\Temp\ccDvGSFU.s:78     .text.coap_io_process_timeout:0000000000000046 .L0 
C:\Users\stapi\AppData\Local\Temp\ccDvGSFU.s:82     .text.coap_io_process_timeout:000000000000004a .L0 
C:\Users\stapi\AppData\Local\Temp\ccDvGSFU.s:88     .text.coap_io_process_timeout:000000000000005a .L0 
C:\Users\stapi\AppData\Local\Temp\ccDvGSFU.s:89     .text.coap_io_process_timeout:000000000000005a .L0 
C:\Users\stapi\AppData\Local\Temp\ccDvGSFU.s:92     .text.coap_io_process_timeout:0000000000000060 .L0 
C:\Users\stapi\AppData\Local\Temp\ccDvGSFU.s:93     .text.coap_io_process_timeout:0000000000000062 .L0 
C:\Users\stapi\AppData\Local\Temp\ccDvGSFU.s:95     .text.coap_io_process_timeout:000000000000006a .L0 
C:\Users\stapi\AppData\Local\Temp\ccDvGSFU.s:96     .text.coap_io_process_timeout:000000000000006a .L0 
C:\Users\stapi\AppData\Local\Temp\ccDvGSFU.s:97     .text.coap_io_process_timeout:000000000000006a .L0 
C:\Users\stapi\AppData\Local\Temp\ccDvGSFU.s:98     .text.coap_io_process_timeout:000000000000006a .L0 
C:\Users\stapi\AppData\Local\Temp\ccDvGSFU.s:99     .text.coap_io_process_timeout:000000000000006a .L0 
C:\Users\stapi\AppData\Local\Temp\ccDvGSFU.s:100    .text.coap_io_process_timeout:000000000000006a .L0 
C:\Users\stapi\AppData\Local\Temp\ccDvGSFU.s:122    .text.coap_recvc:0000000000000000 coap_recvc
C:\Users\stapi\AppData\Local\Temp\ccDvGSFU.s:125    .text.coap_recvc:0000000000000000 .L0 
C:\Users\stapi\AppData\Local\Temp\ccDvGSFU.s:127    .text.coap_recvc:0000000000000000 .L0 
C:\Users\stapi\AppData\Local\Temp\ccDvGSFU.s:128    .text.coap_recvc:0000000000000008 .L0 
C:\Users\stapi\AppData\Local\Temp\ccDvGSFU.s:129    .text.coap_recvc:0000000000000008 .L0 
C:\Users\stapi\AppData\Local\Temp\ccDvGSFU.s:130    .text.coap_recvc:0000000000000008 .L0 
C:\Users\stapi\AppData\Local\Temp\ccDvGSFU.s:131    .text.coap_recvc:0000000000000008 .L0 
C:\Users\stapi\AppData\Local\Temp\ccDvGSFU.s:132    .text.coap_recvc:0000000000000008 .L0 
C:\Users\stapi\AppData\Local\Temp\ccDvGSFU.s:135    .text.coap_recvc:0000000000000008 .L0 
C:\Users\stapi\AppData\Local\Temp\ccDvGSFU.s:136    .text.coap_recvc:0000000000000008 .L0 
C:\Users\stapi\AppData\Local\Temp\ccDvGSFU.s:137    .text.coap_recvc:0000000000000008 .L0 
C:\Users\stapi\AppData\Local\Temp\ccDvGSFU.s:138    .text.coap_recvc:0000000000000008 .L0 
C:\Users\stapi\AppData\Local\Temp\ccDvGSFU.s:139    .text.coap_recvc:0000000000000008 .L0 
C:\Users\stapi\AppData\Local\Temp\ccDvGSFU.s:140    .text.coap_recvc:0000000000000008 .L0 
C:\Users\stapi\AppData\Local\Temp\ccDvGSFU.s:141    .text.coap_recvc:0000000000000008 .L0 
C:\Users\stapi\AppData\Local\Temp\ccDvGSFU.s:143    .text.coap_recvc:000000000000000a .L0 
C:\Users\stapi\AppData\Local\Temp\ccDvGSFU.s:158    .text.coap_recvc:000000000000002e .L0 
C:\Users\stapi\AppData\Local\Temp\ccDvGSFU.s:163    .text.coap_recvc:0000000000000034 .L0 
C:\Users\stapi\AppData\Local\Temp\ccDvGSFU.s:164    .text.coap_recvc:0000000000000034 .L0 
C:\Users\stapi\AppData\Local\Temp\ccDvGSFU.s:168    .text.coap_recvc:000000000000003a .L0 
C:\Users\stapi\AppData\Local\Temp\ccDvGSFU.s:169    .text.coap_recvc:000000000000003a .L0 
C:\Users\stapi\AppData\Local\Temp\ccDvGSFU.s:183    .text.coap_recvc:000000000000005e .L0 
C:\Users\stapi\AppData\Local\Temp\ccDvGSFU.s:184    .text.coap_recvc:000000000000005e .L0 
C:\Users\stapi\AppData\Local\Temp\ccDvGSFU.s:185    .text.coap_recvc:000000000000005e .L0 
C:\Users\stapi\AppData\Local\Temp\ccDvGSFU.s:189    .text.coap_recvc:0000000000000060 .L0 
C:\Users\stapi\AppData\Local\Temp\ccDvGSFU.s:193    .text.coap_recvc:0000000000000068 .L0 
C:\Users\stapi\AppData\Local\Temp\ccDvGSFU.s:194    .text.coap_recvc:0000000000000068 .L0 
C:\Users\stapi\AppData\Local\Temp\ccDvGSFU.s:195    .text.coap_recvc:0000000000000068 .L0 
C:\Users\stapi\AppData\Local\Temp\ccDvGSFU.s:196    .text.coap_recvc:0000000000000068 .L0 
C:\Users\stapi\AppData\Local\Temp\ccDvGSFU.s:201    .text.coap_recvc:000000000000006c .L0 
C:\Users\stapi\AppData\Local\Temp\ccDvGSFU.s:202    .text.coap_recvc:000000000000006c .L0 
C:\Users\stapi\AppData\Local\Temp\ccDvGSFU.s:207    .text.coap_recvc:000000000000007a .L0 
C:\Users\stapi\AppData\Local\Temp\ccDvGSFU.s:219    .text.coap_recvc:000000000000009c .L0 
C:\Users\stapi\AppData\Local\Temp\ccDvGSFU.s:220    .text.coap_recvc:000000000000009c .L0 
C:\Users\stapi\AppData\Local\Temp\ccDvGSFU.s:221    .text.coap_recvc:000000000000009c .L0 
C:\Users\stapi\AppData\Local\Temp\ccDvGSFU.s:225    .text.coap_recvc:00000000000000a4 .L0 
C:\Users\stapi\AppData\Local\Temp\ccDvGSFU.s:226    .text.coap_recvc:00000000000000a4 .L0 
C:\Users\stapi\AppData\Local\Temp\ccDvGSFU.s:230    .text.coap_recvc:00000000000000aa .L0 
C:\Users\stapi\AppData\Local\Temp\ccDvGSFU.s:234    .text.coap_recvc:00000000000000b4 .L0 
C:\Users\stapi\AppData\Local\Temp\ccDvGSFU.s:237    .text.coap_recvc:00000000000000b6 .L0 
C:\Users\stapi\AppData\Local\Temp\ccDvGSFU.s:244    .text.coap_recvc:00000000000000c0 .L0 
C:\Users\stapi\AppData\Local\Temp\ccDvGSFU.s:245    .text.coap_recvc:00000000000000c0 .L0 
C:\Users\stapi\AppData\Local\Temp\ccDvGSFU.s:246    .text.coap_recvc:00000000000000c8 .L0 
C:\Users\stapi\AppData\Local\Temp\ccDvGSFU.s:247    .text.coap_recvc:00000000000000c8 .L0 
C:\Users\stapi\AppData\Local\Temp\ccDvGSFU.s:248    .text.coap_recvc:00000000000000c8 .L0 
C:\Users\stapi\AppData\Local\Temp\ccDvGSFU.s:249    .text.coap_recvc:00000000000000c8 .L0 
C:\Users\stapi\AppData\Local\Temp\ccDvGSFU.s:250    .text.coap_recvc:00000000000000c8 .L0 
C:\Users\stapi\AppData\Local\Temp\ccDvGSFU.s:251    .text.coap_recvc:00000000000000c8 .L0 
C:\Users\stapi\AppData\Local\Temp\ccDvGSFU.s:254    .text.coap_recvc:00000000000000c8 .L0 
C:\Users\stapi\AppData\Local\Temp\ccDvGSFU.s:258    .text.coap_recvc:00000000000000c8 .L0 
C:\Users\stapi\AppData\Local\Temp\ccDvGSFU.s:259    .text.coap_recvc:00000000000000c8 .L0 
C:\Users\stapi\AppData\Local\Temp\ccDvGSFU.s:265    .text.coap_recvc:00000000000000da .L0 
C:\Users\stapi\AppData\Local\Temp\ccDvGSFU.s:266    .text.coap_recvc:00000000000000da .L0 
C:\Users\stapi\AppData\Local\Temp\ccDvGSFU.s:270    .text.coap_recvc:00000000000000de .L0 
C:\Users\stapi\AppData\Local\Temp\ccDvGSFU.s:274    .text.coap_recvc:00000000000000e0 .L0 
C:\Users\stapi\AppData\Local\Temp\ccDvGSFU.s:278    .text.coap_recvc:00000000000000e0 .L0 
C:\Users\stapi\AppData\Local\Temp\ccDvGSFU.s:279    .text.coap_recvc:00000000000000e0 .L0 
C:\Users\stapi\AppData\Local\Temp\ccDvGSFU.s:280    .text.coap_recvc:00000000000000e0 .L0 
C:\Users\stapi\AppData\Local\Temp\ccDvGSFU.s:291    .text.coap_recvc:00000000000000f0 .L0 
C:\Users\stapi\AppData\Local\Temp\ccDvGSFU.s:292    .text.coap_recvc:00000000000000f0 .L0 
C:\Users\stapi\AppData\Local\Temp\ccDvGSFU.s:298    .text.coap_recvc:00000000000000fc .L0 
C:\Users\stapi\AppData\Local\Temp\ccDvGSFU.s:299    .text.coap_recvc:00000000000000fc .L0 
C:\Users\stapi\AppData\Local\Temp\ccDvGSFU.s:301    .text.coap_recvc:00000000000000fe .L0 
C:\Users\stapi\AppData\Local\Temp\ccDvGSFU.s:302    .text.coap_recvc:00000000000000fe .L0 
C:\Users\stapi\AppData\Local\Temp\ccDvGSFU.s:309    .text.coap_recvc:0000000000000112 .L0 
C:\Users\stapi\AppData\Local\Temp\ccDvGSFU.s:311    .text.coap_recvc:0000000000000114 .L0 
C:\Users\stapi\AppData\Local\Temp\ccDvGSFU.s:317    .text.coap_recvc:0000000000000124 .L0 
C:\Users\stapi\AppData\Local\Temp\ccDvGSFU.s:320    .text.coap_recvc:0000000000000126 .L0 
C:\Users\stapi\AppData\Local\Temp\ccDvGSFU.s:330    .text.coap_recvs:0000000000000000 coap_recvs
C:\Users\stapi\AppData\Local\Temp\ccDvGSFU.s:333    .text.coap_recvs:0000000000000000 .L0 
C:\Users\stapi\AppData\Local\Temp\ccDvGSFU.s:335    .text.coap_recvs:0000000000000000 .L0 
C:\Users\stapi\AppData\Local\Temp\ccDvGSFU.s:336    .text.coap_recvs:0000000000000008 .L0 
C:\Users\stapi\AppData\Local\Temp\ccDvGSFU.s:337    .text.coap_recvs:0000000000000008 .L0 
C:\Users\stapi\AppData\Local\Temp\ccDvGSFU.s:338    .text.coap_recvs:0000000000000008 .L0 
C:\Users\stapi\AppData\Local\Temp\ccDvGSFU.s:339    .text.coap_recvs:0000000000000008 .L0 
C:\Users\stapi\AppData\Local\Temp\ccDvGSFU.s:340    .text.coap_recvs:0000000000000008 .L0 
C:\Users\stapi\AppData\Local\Temp\ccDvGSFU.s:341    .text.coap_recvs:0000000000000008 .L0 
C:\Users\stapi\AppData\Local\Temp\ccDvGSFU.s:342    .text.coap_recvs:0000000000000008 .L0 
C:\Users\stapi\AppData\Local\Temp\ccDvGSFU.s:343    .text.coap_recvs:0000000000000008 .L0 
C:\Users\stapi\AppData\Local\Temp\ccDvGSFU.s:346    .text.coap_recvs:0000000000000008 .L0 
C:\Users\stapi\AppData\Local\Temp\ccDvGSFU.s:347    .text.coap_recvs:0000000000000008 .L0 
C:\Users\stapi\AppData\Local\Temp\ccDvGSFU.s:348    .text.coap_recvs:0000000000000008 .L0 
C:\Users\stapi\AppData\Local\Temp\ccDvGSFU.s:349    .text.coap_recvs:0000000000000008 .L0 
C:\Users\stapi\AppData\Local\Temp\ccDvGSFU.s:350    .text.coap_recvs:0000000000000008 .L0 
C:\Users\stapi\AppData\Local\Temp\ccDvGSFU.s:351    .text.coap_recvs:0000000000000008 .L0 
C:\Users\stapi\AppData\Local\Temp\ccDvGSFU.s:352    .text.coap_recvs:0000000000000008 .L0 
C:\Users\stapi\AppData\Local\Temp\ccDvGSFU.s:353    .text.coap_recvs:0000000000000008 .L0 
C:\Users\stapi\AppData\Local\Temp\ccDvGSFU.s:355    .text.coap_recvs:000000000000000a .L0 
C:\Users\stapi\AppData\Local\Temp\ccDvGSFU.s:364    .text.coap_recvs:0000000000000018 .L0 
C:\Users\stapi\AppData\Local\Temp\ccDvGSFU.s:372    .text.coap_recvs:0000000000000020 .L0 
C:\Users\stapi\AppData\Local\Temp\ccDvGSFU.s:373    .text.coap_recvs:0000000000000020 .L0 
C:\Users\stapi\AppData\Local\Temp\ccDvGSFU.s:378    .text.coap_recvs:000000000000002a .L0 
C:\Users\stapi\AppData\Local\Temp\ccDvGSFU.s:379    .text.coap_recvs:000000000000002a .L0 
C:\Users\stapi\AppData\Local\Temp\ccDvGSFU.s:381    .text.coap_recvs:000000000000002c .L0 
C:\Users\stapi\AppData\Local\Temp\ccDvGSFU.s:382    .text.coap_recvs:000000000000002c .L0 
C:\Users\stapi\AppData\Local\Temp\ccDvGSFU.s:394    .text.coap_recvs:0000000000000050 .L0 
C:\Users\stapi\AppData\Local\Temp\ccDvGSFU.s:395    .text.coap_recvs:0000000000000050 .L0 
C:\Users\stapi\AppData\Local\Temp\ccDvGSFU.s:396    .text.coap_recvs:0000000000000050 .L0 
C:\Users\stapi\AppData\Local\Temp\ccDvGSFU.s:400    .text.coap_recvs:0000000000000052 .L0 
C:\Users\stapi\AppData\Local\Temp\ccDvGSFU.s:401    .text.coap_recvs:0000000000000052 .L0 
C:\Users\stapi\AppData\Local\Temp\ccDvGSFU.s:402    .text.coap_recvs:0000000000000052 .L0 
C:\Users\stapi\AppData\Local\Temp\ccDvGSFU.s:407    .text.coap_recvs:000000000000005e .L0 
C:\Users\stapi\AppData\Local\Temp\ccDvGSFU.s:408    .text.coap_recvs:000000000000005e .L0 
C:\Users\stapi\AppData\Local\Temp\ccDvGSFU.s:411    .text.coap_recvs:0000000000000066 .L0 
C:\Users\stapi\AppData\Local\Temp\ccDvGSFU.s:412    .text.coap_recvs:0000000000000066 .L0 
C:\Users\stapi\AppData\Local\Temp\ccDvGSFU.s:414    .text.coap_recvs:0000000000000068 .L0 
C:\Users\stapi\AppData\Local\Temp\ccDvGSFU.s:416    .text.coap_recvs:000000000000006c .L0 
C:\Users\stapi\AppData\Local\Temp\ccDvGSFU.s:418    .text.coap_recvs:0000000000000070 .L0 
C:\Users\stapi\AppData\Local\Temp\ccDvGSFU.s:419    .text.coap_recvs:0000000000000070 .L0 
C:\Users\stapi\AppData\Local\Temp\ccDvGSFU.s:420    .text.coap_recvs:0000000000000070 .L0 
C:\Users\stapi\AppData\Local\Temp\ccDvGSFU.s:423    .text.coap_recvs:0000000000000078 .L0 
C:\Users\stapi\AppData\Local\Temp\ccDvGSFU.s:424    .text.coap_recvs:0000000000000078 .L0 
C:\Users\stapi\AppData\Local\Temp\ccDvGSFU.s:427    .text.coap_recvs:0000000000000080 .L0 
C:\Users\stapi\AppData\Local\Temp\ccDvGSFU.s:428    .text.coap_recvs:0000000000000080 .L0 
C:\Users\stapi\AppData\Local\Temp\ccDvGSFU.s:432    .text.coap_recvs:000000000000008a .L0 
C:\Users\stapi\AppData\Local\Temp\ccDvGSFU.s:434    .text.coap_recvs:000000000000008c .L0 
C:\Users\stapi\AppData\Local\Temp\ccDvGSFU.s:436    .text.coap_recvs:0000000000000090 .L0 
C:\Users\stapi\AppData\Local\Temp\ccDvGSFU.s:437    .text.coap_recvs:0000000000000090 .L0 
C:\Users\stapi\AppData\Local\Temp\ccDvGSFU.s:445    .text.coap_recvs:000000000000009e .L0 
C:\Users\stapi\AppData\Local\Temp\ccDvGSFU.s:446    .text.coap_recvs:000000000000009e .L0 
C:\Users\stapi\AppData\Local\Temp\ccDvGSFU.s:447    .text.coap_recvs:000000000000009e .L0 
C:\Users\stapi\AppData\Local\Temp\ccDvGSFU.s:452    .text.coap_recvs:00000000000000a6 .L0 
C:\Users\stapi\AppData\Local\Temp\ccDvGSFU.s:456    .text.coap_recvs:00000000000000a8 .L0 
C:\Users\stapi\AppData\Local\Temp\ccDvGSFU.s:461    .text.coap_recvs:00000000000000aa .L0 
C:\Users\stapi\AppData\Local\Temp\ccDvGSFU.s:462    .text.coap_recvs:00000000000000aa .L0 
C:\Users\stapi\AppData\Local\Temp\ccDvGSFU.s:470    .text.coap_recvs:00000000000000b8 .L0 
C:\Users\stapi\AppData\Local\Temp\ccDvGSFU.s:471    .text.coap_recvs:00000000000000b8 .L0 
C:\Users\stapi\AppData\Local\Temp\ccDvGSFU.s:473    .text.coap_recvs:00000000000000bc .L0 
C:\Users\stapi\AppData\Local\Temp\ccDvGSFU.s:474    .text.coap_recvs:00000000000000bc .L0 
C:\Users\stapi\AppData\Local\Temp\ccDvGSFU.s:479    .text.coap_recvs:00000000000000c6 .L0 
C:\Users\stapi\AppData\Local\Temp\ccDvGSFU.s:480    .text.coap_recvs:00000000000000c6 .L0 
C:\Users\stapi\AppData\Local\Temp\ccDvGSFU.s:491    .text.coap_recvs:00000000000000ea .L0 
C:\Users\stapi\AppData\Local\Temp\ccDvGSFU.s:492    .text.coap_recvs:00000000000000ea .L0 
C:\Users\stapi\AppData\Local\Temp\ccDvGSFU.s:493    .text.coap_recvs:00000000000000ea .L0 
C:\Users\stapi\AppData\Local\Temp\ccDvGSFU.s:496    .text.coap_recvs:00000000000000ec .L0 
C:\Users\stapi\AppData\Local\Temp\ccDvGSFU.s:497    .text.coap_recvs:00000000000000ec .L0 
C:\Users\stapi\AppData\Local\Temp\ccDvGSFU.s:498    .text.coap_recvs:00000000000000ec .L0 
C:\Users\stapi\AppData\Local\Temp\ccDvGSFU.s:499    .text.coap_recvs:00000000000000ec .L0 
C:\Users\stapi\AppData\Local\Temp\ccDvGSFU.s:504    .text.coap_recvs:00000000000000fa .L0 
C:\Users\stapi\AppData\Local\Temp\ccDvGSFU.s:516    .text.coap_recvs:000000000000011c .L0 
C:\Users\stapi\AppData\Local\Temp\ccDvGSFU.s:517    .text.coap_recvs:000000000000011c .L0 
C:\Users\stapi\AppData\Local\Temp\ccDvGSFU.s:518    .text.coap_recvs:000000000000011c .L0 
C:\Users\stapi\AppData\Local\Temp\ccDvGSFU.s:522    .text.coap_recvs:0000000000000124 .L0 
C:\Users\stapi\AppData\Local\Temp\ccDvGSFU.s:523    .text.coap_recvs:0000000000000124 .L0 
C:\Users\stapi\AppData\Local\Temp\ccDvGSFU.s:527    .text.coap_recvs:000000000000012c .L0 
C:\Users\stapi\AppData\Local\Temp\ccDvGSFU.s:528    .text.coap_recvs:000000000000012c .L0 
C:\Users\stapi\AppData\Local\Temp\ccDvGSFU.s:535    .text.coap_recvs:000000000000013c .L0 
C:\Users\stapi\AppData\Local\Temp\ccDvGSFU.s:536    .text.coap_recvs:000000000000013c .L0 
C:\Users\stapi\AppData\Local\Temp\ccDvGSFU.s:540    .text.coap_recvs:0000000000000144 .L0 
C:\Users\stapi\AppData\Local\Temp\ccDvGSFU.s:543    .text.coap_recvs:000000000000014a .L0 
C:\Users\stapi\AppData\Local\Temp\ccDvGSFU.s:550    .text.coap_recvs:0000000000000156 .L0 
C:\Users\stapi\AppData\Local\Temp\ccDvGSFU.s:554    .text.coap_recvs:0000000000000160 .L0 
C:\Users\stapi\AppData\Local\Temp\ccDvGSFU.s:558    .text.coap_recvs:0000000000000162 .L0 
C:\Users\stapi\AppData\Local\Temp\ccDvGSFU.s:562    .text.coap_recvs:0000000000000164 .L0 
C:\Users\stapi\AppData\Local\Temp\ccDvGSFU.s:567    .text.coap_recvs:000000000000016c .L0 
C:\Users\stapi\AppData\Local\Temp\ccDvGSFU.s:568    .text.coap_recvs:000000000000016c .L0 
C:\Users\stapi\AppData\Local\Temp\ccDvGSFU.s:578    .text.coap_recvs:0000000000000178 .L0 
C:\Users\stapi\AppData\Local\Temp\ccDvGSFU.s:579    .text.coap_recvs:0000000000000180 .L0 
C:\Users\stapi\AppData\Local\Temp\ccDvGSFU.s:580    .text.coap_recvs:0000000000000180 .L0 
C:\Users\stapi\AppData\Local\Temp\ccDvGSFU.s:581    .text.coap_recvs:0000000000000180 .L0 
C:\Users\stapi\AppData\Local\Temp\ccDvGSFU.s:582    .text.coap_recvs:0000000000000180 .L0 
C:\Users\stapi\AppData\Local\Temp\ccDvGSFU.s:583    .text.coap_recvs:0000000000000180 .L0 
C:\Users\stapi\AppData\Local\Temp\ccDvGSFU.s:584    .text.coap_recvs:0000000000000180 .L0 
C:\Users\stapi\AppData\Local\Temp\ccDvGSFU.s:585    .text.coap_recvs:0000000000000180 .L0 
C:\Users\stapi\AppData\Local\Temp\ccDvGSFU.s:586    .text.coap_recvs:0000000000000180 .L0 
C:\Users\stapi\AppData\Local\Temp\ccDvGSFU.s:587    .text.coap_recvs:0000000000000180 .L0 
C:\Users\stapi\AppData\Local\Temp\ccDvGSFU.s:590    .text.coap_recvs:0000000000000180 .L0 
C:\Users\stapi\AppData\Local\Temp\ccDvGSFU.s:594    .text.coap_recvs:0000000000000180 .L0 
C:\Users\stapi\AppData\Local\Temp\ccDvGSFU.s:595    .text.coap_recvs:0000000000000180 .L0 
C:\Users\stapi\AppData\Local\Temp\ccDvGSFU.s:597    .text.coap_recvs:0000000000000184 .L0 
C:\Users\stapi\AppData\Local\Temp\ccDvGSFU.s:599    .text.coap_recvs:0000000000000186 .L0 
C:\Users\stapi\AppData\Local\Temp\ccDvGSFU.s:601    .text.coap_recvs:0000000000000188 .L0 
C:\Users\stapi\AppData\Local\Temp\ccDvGSFU.s:602    .text.coap_recvs:0000000000000188 .L0 
C:\Users\stapi\AppData\Local\Temp\ccDvGSFU.s:611    .text.coap_recvs:000000000000019a .L0 
C:\Users\stapi\AppData\Local\Temp\ccDvGSFU.s:612    .text.coap_recvs:000000000000019a .L0 
C:\Users\stapi\AppData\Local\Temp\ccDvGSFU.s:618    .text.coap_recvs:00000000000001a6 .L0 
C:\Users\stapi\AppData\Local\Temp\ccDvGSFU.s:619    .text.coap_recvs:00000000000001a6 .L0 
C:\Users\stapi\AppData\Local\Temp\ccDvGSFU.s:621    .text.coap_recvs:00000000000001a8 .L0 
C:\Users\stapi\AppData\Local\Temp\ccDvGSFU.s:622    .text.coap_recvs:00000000000001a8 .L0 
C:\Users\stapi\AppData\Local\Temp\ccDvGSFU.s:630    .text.coap_recvs:00000000000001bc .L0 
C:\Users\stapi\AppData\Local\Temp\ccDvGSFU.s:632    .text.coap_recvs:00000000000001be .L0 
C:\Users\stapi\AppData\Local\Temp\ccDvGSFU.s:640    .text.coap_recvs:00000000000001d0 .L0 
C:\Users\stapi\AppData\Local\Temp\ccDvGSFU.s:644    .text.coap_recvs:00000000000001d0 .L0 
C:\Users\stapi\AppData\Local\Temp\ccDvGSFU.s:645    .text.coap_recvs:00000000000001d0 .L0 
C:\Users\stapi\AppData\Local\Temp\ccDvGSFU.s:646    .text.coap_recvs:00000000000001d0 .L0 
C:\Users\stapi\AppData\Local\Temp\ccDvGSFU.s:657    .text.coap_recvs:00000000000001e0 .L0 
C:\Users\stapi\AppData\Local\Temp\ccDvGSFU.s:661    .text.coap_recvs:00000000000001e4 .L0 
C:\Users\stapi\AppData\Local\Temp\ccDvGSFU.s:668    .text.coap_lwip_dump_memory_pools:0000000000000000 coap_lwip_dump_memory_pools
C:\Users\stapi\AppData\Local\Temp\ccDvGSFU.s:671    .text.coap_lwip_dump_memory_pools:0000000000000000 .L0 
C:\Users\stapi\AppData\Local\Temp\ccDvGSFU.s:673    .text.coap_lwip_dump_memory_pools:0000000000000000 .L0 
C:\Users\stapi\AppData\Local\Temp\ccDvGSFU.s:674    .text.coap_lwip_dump_memory_pools:0000000000000000 .L0 
C:\Users\stapi\AppData\Local\Temp\ccDvGSFU.s:675    .text.coap_lwip_dump_memory_pools:0000000000000002 .L0 
C:\Users\stapi\AppData\Local\Temp\ccDvGSFU.s:682    .text.coap_lwip_set_input_wait_handler:0000000000000000 coap_lwip_set_input_wait_handler
C:\Users\stapi\AppData\Local\Temp\ccDvGSFU.s:685    .text.coap_lwip_set_input_wait_handler:0000000000000000 .L0 
C:\Users\stapi\AppData\Local\Temp\ccDvGSFU.s:687    .text.coap_lwip_set_input_wait_handler:0000000000000000 .L0 
C:\Users\stapi\AppData\Local\Temp\ccDvGSFU.s:688    .text.coap_lwip_set_input_wait_handler:0000000000000000 .L0 
C:\Users\stapi\AppData\Local\Temp\ccDvGSFU.s:689    .text.coap_lwip_set_input_wait_handler:0000000000000000 .L0 
C:\Users\stapi\AppData\Local\Temp\ccDvGSFU.s:691    .text.coap_lwip_set_input_wait_handler:0000000000000002 .L0 
C:\Users\stapi\AppData\Local\Temp\ccDvGSFU.s:692    .text.coap_lwip_set_input_wait_handler:0000000000000002 .L0 
C:\Users\stapi\AppData\Local\Temp\ccDvGSFU.s:694    .text.coap_lwip_set_input_wait_handler:0000000000000004 .L0 
C:\Users\stapi\AppData\Local\Temp\ccDvGSFU.s:695    .text.coap_lwip_set_input_wait_handler:0000000000000006 .L0 
C:\Users\stapi\AppData\Local\Temp\ccDvGSFU.s:702    .text.coap_io_process:0000000000000000 coap_io_process
C:\Users\stapi\AppData\Local\Temp\ccDvGSFU.s:705    .text.coap_io_process:0000000000000000 .L0 
C:\Users\stapi\AppData\Local\Temp\ccDvGSFU.s:707    .text.coap_io_process:0000000000000000 .L0 
C:\Users\stapi\AppData\Local\Temp\ccDvGSFU.s:708    .text.coap_io_process:0000000000000008 .L0 
C:\Users\stapi\AppData\Local\Temp\ccDvGSFU.s:709    .text.coap_io_process:0000000000000008 .L0 
C:\Users\stapi\AppData\Local\Temp\ccDvGSFU.s:710    .text.coap_io_process:0000000000000008 .L0 
C:\Users\stapi\AppData\Local\Temp\ccDvGSFU.s:711    .text.coap_io_process:0000000000000008 .L0 
C:\Users\stapi\AppData\Local\Temp\ccDvGSFU.s:712    .text.coap_io_process:0000000000000008 .L0 
C:\Users\stapi\AppData\Local\Temp\ccDvGSFU.s:713    .text.coap_io_process:0000000000000008 .L0 
C:\Users\stapi\AppData\Local\Temp\ccDvGSFU.s:714    .text.coap_io_process:0000000000000008 .L0 
C:\Users\stapi\AppData\Local\Temp\ccDvGSFU.s:716    .text.coap_io_process:0000000000000008 .L0 
C:\Users\stapi\AppData\Local\Temp\ccDvGSFU.s:717    .text.coap_io_process:0000000000000008 .L0 
C:\Users\stapi\AppData\Local\Temp\ccDvGSFU.s:718    .text.coap_io_process:0000000000000008 .L0 
C:\Users\stapi\AppData\Local\Temp\ccDvGSFU.s:719    .text.coap_io_process:0000000000000008 .L0 
C:\Users\stapi\AppData\Local\Temp\ccDvGSFU.s:723    .text.coap_io_process:0000000000000008 .L0 
C:\Users\stapi\AppData\Local\Temp\ccDvGSFU.s:726    .text.coap_io_process:0000000000000008 .L0 
C:\Users\stapi\AppData\Local\Temp\ccDvGSFU.s:727    .text.coap_io_process:0000000000000008 .L0 
C:\Users\stapi\AppData\Local\Temp\ccDvGSFU.s:728    .text.coap_io_process:000000000000000a .L0 
C:\Users\stapi\AppData\Local\Temp\ccDvGSFU.s:730    .text.coap_io_process:000000000000000a .L0 
C:\Users\stapi\AppData\Local\Temp\ccDvGSFU.s:735    .text.coap_io_process:000000000000000e .L0 
C:\Users\stapi\AppData\Local\Temp\ccDvGSFU.s:740    .text.coap_io_process:0000000000000016 .L0 
C:\Users\stapi\AppData\Local\Temp\ccDvGSFU.s:744    .text.coap_io_process:0000000000000018 .L0 
C:\Users\stapi\AppData\Local\Temp\ccDvGSFU.s:749    .text.coap_io_process:000000000000001a .L0 
C:\Users\stapi\AppData\Local\Temp\ccDvGSFU.s:750    .text.coap_io_process:000000000000001a .L0 
C:\Users\stapi\AppData\Local\Temp\ccDvGSFU.s:758    .text.coap_io_process:000000000000002a .L0 
C:\Users\stapi\AppData\Local\Temp\ccDvGSFU.s:760    .text.coap_io_process:000000000000002e .L0 
C:\Users\stapi\AppData\Local\Temp\ccDvGSFU.s:762    .text.coap_io_process:0000000000000030 .L0 
C:\Users\stapi\AppData\Local\Temp\ccDvGSFU.s:765    .text.coap_io_process:0000000000000032 .L0 
C:\Users\stapi\AppData\Local\Temp\ccDvGSFU.s:766    .text.coap_io_process:0000000000000032 .L0 
C:\Users\stapi\AppData\Local\Temp\ccDvGSFU.s:771    .text.coap_io_process:000000000000003a .L0 
C:\Users\stapi\AppData\Local\Temp\ccDvGSFU.s:777    .text.coap_io_process:000000000000004a .L0 
C:\Users\stapi\AppData\Local\Temp\ccDvGSFU.s:778    .text.coap_io_process:000000000000004a .L0 
C:\Users\stapi\AppData\Local\Temp\ccDvGSFU.s:782    .text.coap_io_process:0000000000000054 .L0 
C:\Users\stapi\AppData\Local\Temp\ccDvGSFU.s:787    .text.coap_io_process:0000000000000062 .L0 
C:\Users\stapi\AppData\Local\Temp\ccDvGSFU.s:788    .text.coap_io_process:0000000000000062 .L0 
C:\Users\stapi\AppData\Local\Temp\ccDvGSFU.s:791    .text.coap_io_process:0000000000000066 .L0 
C:\Users\stapi\AppData\Local\Temp\ccDvGSFU.s:792    .text.coap_io_process:0000000000000066 .L0 
C:\Users\stapi\AppData\Local\Temp\ccDvGSFU.s:794    .text.coap_io_process:0000000000000068 .L0 
C:\Users\stapi\AppData\Local\Temp\ccDvGSFU.s:798    .text.coap_io_process:000000000000006c .L0 
C:\Users\stapi\AppData\Local\Temp\ccDvGSFU.s:804    .text.coap_io_process:000000000000007c .L0 
C:\Users\stapi\AppData\Local\Temp\ccDvGSFU.s:805    .text.coap_io_process:000000000000007c .L0 
C:\Users\stapi\AppData\Local\Temp\ccDvGSFU.s:808    .text.coap_io_process:0000000000000082 .L0 
C:\Users\stapi\AppData\Local\Temp\ccDvGSFU.s:812    .text.coap_io_process:000000000000008e .L0 
C:\Users\stapi\AppData\Local\Temp\ccDvGSFU.s:813    .text.coap_io_process:000000000000008e .L0 
C:\Users\stapi\AppData\Local\Temp\ccDvGSFU.s:815    .text.coap_io_process:0000000000000090 .L0 
C:\Users\stapi\AppData\Local\Temp\ccDvGSFU.s:817    .text.coap_io_process:0000000000000092 .L0 
C:\Users\stapi\AppData\Local\Temp\ccDvGSFU.s:823    .text.coap_io_process:0000000000000098 .L0 
C:\Users\stapi\AppData\Local\Temp\ccDvGSFU.s:827    .text.coap_io_process:00000000000000a4 .L0 
C:\Users\stapi\AppData\Local\Temp\ccDvGSFU.s:830    .text.coap_io_process:00000000000000ac .L0 
C:\Users\stapi\AppData\Local\Temp\ccDvGSFU.s:836    .text.coap_io_process:00000000000000b8 .L0 
C:\Users\stapi\AppData\Local\Temp\ccDvGSFU.s:837    .text.coap_io_process:00000000000000b8 .L0 
C:\Users\stapi\AppData\Local\Temp\ccDvGSFU.s:838    .text.coap_io_process:00000000000000b8 .L0 
C:\Users\stapi\AppData\Local\Temp\ccDvGSFU.s:843    .text.coap_io_process:00000000000000c0 .L0 
C:\Users\stapi\AppData\Local\Temp\ccDvGSFU.s:844    .text.coap_io_process:00000000000000c0 .L0 
C:\Users\stapi\AppData\Local\Temp\ccDvGSFU.s:846    .text.coap_io_process:00000000000000c4 .L0 
C:\Users\stapi\AppData\Local\Temp\ccDvGSFU.s:848    .text.coap_io_process:00000000000000c8 .L0 
C:\Users\stapi\AppData\Local\Temp\ccDvGSFU.s:850    .text.coap_io_process:00000000000000cc .L0 
C:\Users\stapi\AppData\Local\Temp\ccDvGSFU.s:851    .text.coap_io_process:00000000000000ce .L0 
C:\Users\stapi\AppData\Local\Temp\ccDvGSFU.s:854    .text.coap_io_process:00000000000000da .L0 
C:\Users\stapi\AppData\Local\Temp\ccDvGSFU.s:855    .text.coap_io_process:00000000000000da .L0 
C:\Users\stapi\AppData\Local\Temp\ccDvGSFU.s:856    .text.coap_io_process:00000000000000da .L0 
C:\Users\stapi\AppData\Local\Temp\ccDvGSFU.s:857    .text.coap_io_process:00000000000000da .L0 
C:\Users\stapi\AppData\Local\Temp\ccDvGSFU.s:858    .text.coap_io_process:00000000000000da .L0 
C:\Users\stapi\AppData\Local\Temp\ccDvGSFU.s:859    .text.coap_io_process:00000000000000da .L0 
C:\Users\stapi\AppData\Local\Temp\ccDvGSFU.s:860    .text.coap_io_process:00000000000000da .L0 
C:\Users\stapi\AppData\Local\Temp\ccDvGSFU.s:861    .text.coap_io_process:00000000000000da .L0 
C:\Users\stapi\AppData\Local\Temp\ccDvGSFU.s:872    .text.coap_socket_recv:0000000000000000 coap_socket_recv
C:\Users\stapi\AppData\Local\Temp\ccDvGSFU.s:875    .text.coap_socket_recv:0000000000000000 .L0 
C:\Users\stapi\AppData\Local\Temp\ccDvGSFU.s:877    .text.coap_socket_recv:0000000000000000 .L0 
C:\Users\stapi\AppData\Local\Temp\ccDvGSFU.s:878    .text.coap_socket_recv:0000000000000008 .L0 
C:\Users\stapi\AppData\Local\Temp\ccDvGSFU.s:879    .text.coap_socket_recv:0000000000000008 .L0 
C:\Users\stapi\AppData\Local\Temp\ccDvGSFU.s:881    .text.coap_socket_recv:0000000000000008 .L0 
C:\Users\stapi\AppData\Local\Temp\ccDvGSFU.s:882    .text.coap_socket_recv:0000000000000008 .L0 
C:\Users\stapi\AppData\Local\Temp\ccDvGSFU.s:883    .text.coap_socket_recv:0000000000000008 .L0 
C:\Users\stapi\AppData\Local\Temp\ccDvGSFU.s:894    .text.coap_socket_recv:000000000000002c .L0 
C:\Users\stapi\AppData\Local\Temp\ccDvGSFU.s:901    .text.coap_socket_send_pdu:0000000000000000 coap_socket_send_pdu
C:\Users\stapi\AppData\Local\Temp\ccDvGSFU.s:904    .text.coap_socket_send_pdu:0000000000000000 .L0 
C:\Users\stapi\AppData\Local\Temp\ccDvGSFU.s:906    .text.coap_socket_send_pdu:0000000000000000 .L0 
C:\Users\stapi\AppData\Local\Temp\ccDvGSFU.s:907    .text.coap_socket_send_pdu:0000000000000008 .L0 
C:\Users\stapi\AppData\Local\Temp\ccDvGSFU.s:908    .text.coap_socket_send_pdu:0000000000000008 .L0 
C:\Users\stapi\AppData\Local\Temp\ccDvGSFU.s:909    .text.coap_socket_send_pdu:0000000000000008 .L0 
C:\Users\stapi\AppData\Local\Temp\ccDvGSFU.s:910    .text.coap_socket_send_pdu:0000000000000008 .L0 
C:\Users\stapi\AppData\Local\Temp\ccDvGSFU.s:911    .text.coap_socket_send_pdu:0000000000000008 .L0 
C:\Users\stapi\AppData\Local\Temp\ccDvGSFU.s:912    .text.coap_socket_send_pdu:0000000000000008 .L0 
C:\Users\stapi\AppData\Local\Temp\ccDvGSFU.s:913    .text.coap_socket_send_pdu:0000000000000008 .L0 
C:\Users\stapi\AppData\Local\Temp\ccDvGSFU.s:915    .text.coap_socket_send_pdu:0000000000000008 .L0 
C:\Users\stapi\AppData\Local\Temp\ccDvGSFU.s:916    .text.coap_socket_send_pdu:0000000000000008 .L0 
C:\Users\stapi\AppData\Local\Temp\ccDvGSFU.s:917    .text.coap_socket_send_pdu:0000000000000008 .L0 
C:\Users\stapi\AppData\Local\Temp\ccDvGSFU.s:919    .text.coap_socket_send_pdu:000000000000000c .L0 
C:\Users\stapi\AppData\Local\Temp\ccDvGSFU.s:922    .text.coap_socket_send_pdu:0000000000000010 .L0 
C:\Users\stapi\AppData\Local\Temp\ccDvGSFU.s:927    .text.coap_socket_send_pdu:0000000000000018 .L0 
C:\Users\stapi\AppData\Local\Temp\ccDvGSFU.s:929    .text.coap_socket_send_pdu:000000000000001c .L0 
C:\Users\stapi\AppData\Local\Temp\ccDvGSFU.s:931    .text.coap_socket_send_pdu:000000000000001e .L0 
C:\Users\stapi\AppData\Local\Temp\ccDvGSFU.s:934    .text.coap_socket_send_pdu:0000000000000026 .L0 
C:\Users\stapi\AppData\Local\Temp\ccDvGSFU.s:940    .text.coap_socket_send_pdu:0000000000000038 .L0 
C:\Users\stapi\AppData\Local\Temp\ccDvGSFU.s:941    .text.coap_socket_send_pdu:0000000000000038 .L0 
C:\Users\stapi\AppData\Local\Temp\ccDvGSFU.s:944    .text.coap_socket_send_pdu:0000000000000040 .L0 
C:\Users\stapi\AppData\Local\Temp\ccDvGSFU.s:948    .text.coap_socket_send_pdu:0000000000000042 .L0 
C:\Users\stapi\AppData\Local\Temp\ccDvGSFU.s:949    .text.coap_socket_send_pdu:0000000000000042 .L0 
C:\Users\stapi\AppData\Local\Temp\ccDvGSFU.s:952    .text.coap_socket_send_pdu:0000000000000044 .L0 
C:\Users\stapi\AppData\Local\Temp\ccDvGSFU.s:953    .text.coap_socket_send_pdu:000000000000004c .L0 
C:\Users\stapi\AppData\Local\Temp\ccDvGSFU.s:954    .text.coap_socket_send_pdu:000000000000004c .L0 
C:\Users\stapi\AppData\Local\Temp\ccDvGSFU.s:955    .text.coap_socket_send_pdu:000000000000004c .L0 
C:\Users\stapi\AppData\Local\Temp\ccDvGSFU.s:956    .text.coap_socket_send_pdu:000000000000004c .L0 
C:\Users\stapi\AppData\Local\Temp\ccDvGSFU.s:957    .text.coap_socket_send_pdu:000000000000004c .L0 
C:\Users\stapi\AppData\Local\Temp\ccDvGSFU.s:958    .text.coap_socket_send_pdu:000000000000004c .L0 
C:\Users\stapi\AppData\Local\Temp\ccDvGSFU.s:959    .text.coap_socket_send_pdu:000000000000004c .L0 
C:\Users\stapi\AppData\Local\Temp\ccDvGSFU.s:960    .text.coap_socket_send_pdu:000000000000004c .L0 
C:\Users\stapi\AppData\Local\Temp\ccDvGSFU.s:963    .text.coap_socket_send_pdu:000000000000004c .L0 
C:\Users\stapi\AppData\Local\Temp\ccDvGSFU.s:965    .text.coap_socket_send_pdu:000000000000004c .L0 
C:\Users\stapi\AppData\Local\Temp\ccDvGSFU.s:966    .text.coap_socket_send_pdu:000000000000004c .L0 
C:\Users\stapi\AppData\Local\Temp\ccDvGSFU.s:974    .text.coap_socket_send_pdu:0000000000000060 .L0 
C:\Users\stapi\AppData\Local\Temp\ccDvGSFU.s:975    .text.coap_socket_send_pdu:0000000000000060 .L0 
C:\Users\stapi\AppData\Local\Temp\ccDvGSFU.s:979    .text.coap_socket_send_pdu:0000000000000062 .L0 
C:\Users\stapi\AppData\Local\Temp\ccDvGSFU.s:984    .text.coap_socket_send_pdu:0000000000000066 .L0 
C:\Users\stapi\AppData\Local\Temp\ccDvGSFU.s:985    .text.coap_socket_send_pdu:0000000000000066 .L0 
C:\Users\stapi\AppData\Local\Temp\ccDvGSFU.s:994    .text.coap_socket_send_pdu:000000000000007e .L0 
C:\Users\stapi\AppData\Local\Temp\ccDvGSFU.s:998    .text.coap_socket_send_pdu:0000000000000088 .L0 
C:\Users\stapi\AppData\Local\Temp\ccDvGSFU.s:999    .text.coap_socket_send_pdu:0000000000000088 .L0 
C:\Users\stapi\AppData\Local\Temp\ccDvGSFU.s:1001   .text.coap_socket_send_pdu:000000000000008e .L0 
C:\Users\stapi\AppData\Local\Temp\ccDvGSFU.s:1008   .text.coap_socket_send:0000000000000000 coap_socket_send
C:\Users\stapi\AppData\Local\Temp\ccDvGSFU.s:1011   .text.coap_socket_send:0000000000000000 .L0 
C:\Users\stapi\AppData\Local\Temp\ccDvGSFU.s:1013   .text.coap_socket_send:0000000000000000 .L0 
C:\Users\stapi\AppData\Local\Temp\ccDvGSFU.s:1014   .text.coap_socket_send:0000000000000008 .L0 
C:\Users\stapi\AppData\Local\Temp\ccDvGSFU.s:1015   .text.coap_socket_send:0000000000000008 .L0 
C:\Users\stapi\AppData\Local\Temp\ccDvGSFU.s:1016   .text.coap_socket_send:0000000000000008 .L0 
C:\Users\stapi\AppData\Local\Temp\ccDvGSFU.s:1017   .text.coap_socket_send:0000000000000008 .L0 
C:\Users\stapi\AppData\Local\Temp\ccDvGSFU.s:1018   .text.coap_socket_send:0000000000000008 .L0 
C:\Users\stapi\AppData\Local\Temp\ccDvGSFU.s:1019   .text.coap_socket_send:0000000000000008 .L0 
C:\Users\stapi\AppData\Local\Temp\ccDvGSFU.s:1020   .text.coap_socket_send:0000000000000008 .L0 
C:\Users\stapi\AppData\Local\Temp\ccDvGSFU.s:1022   .text.coap_socket_send:0000000000000008 .L0 
C:\Users\stapi\AppData\Local\Temp\ccDvGSFU.s:1023   .text.coap_socket_send:0000000000000008 .L0 
C:\Users\stapi\AppData\Local\Temp\ccDvGSFU.s:1024   .text.coap_socket_send:0000000000000008 .L0 
C:\Users\stapi\AppData\Local\Temp\ccDvGSFU.s:1025   .text.coap_socket_send:0000000000000008 .L0 
C:\Users\stapi\AppData\Local\Temp\ccDvGSFU.s:1030   .text.coap_socket_send:0000000000000010 .L0 
C:\Users\stapi\AppData\Local\Temp\ccDvGSFU.s:1033   .text.coap_socket_send:0000000000000018 .L0 
C:\Users\stapi\AppData\Local\Temp\ccDvGSFU.s:1037   .text.coap_socket_send:000000000000001a .L0 
C:\Users\stapi\AppData\Local\Temp\ccDvGSFU.s:1038   .text.coap_socket_send:000000000000001a .L0 
C:\Users\stapi\AppData\Local\Temp\ccDvGSFU.s:1041   .text.coap_socket_send:000000000000001c .L0 
C:\Users\stapi\AppData\Local\Temp\ccDvGSFU.s:1042   .text.coap_socket_send:0000000000000024 .L0 
C:\Users\stapi\AppData\Local\Temp\ccDvGSFU.s:1043   .text.coap_socket_send:0000000000000024 .L0 
C:\Users\stapi\AppData\Local\Temp\ccDvGSFU.s:1044   .text.coap_socket_send:0000000000000024 .L0 
C:\Users\stapi\AppData\Local\Temp\ccDvGSFU.s:1045   .text.coap_socket_send:0000000000000024 .L0 
C:\Users\stapi\AppData\Local\Temp\ccDvGSFU.s:1046   .text.coap_socket_send:0000000000000024 .L0 
C:\Users\stapi\AppData\Local\Temp\ccDvGSFU.s:1047   .text.coap_socket_send:0000000000000024 .L0 
C:\Users\stapi\AppData\Local\Temp\ccDvGSFU.s:1048   .text.coap_socket_send:0000000000000024 .L0 
C:\Users\stapi\AppData\Local\Temp\ccDvGSFU.s:1049   .text.coap_socket_send:0000000000000024 .L0 
C:\Users\stapi\AppData\Local\Temp\ccDvGSFU.s:1052   .text.coap_socket_send:0000000000000024 .L0 
C:\Users\stapi\AppData\Local\Temp\ccDvGSFU.s:1054   .text.coap_socket_send:0000000000000024 .L0 
C:\Users\stapi\AppData\Local\Temp\ccDvGSFU.s:1055   .text.coap_socket_send:0000000000000024 .L0 
C:\Users\stapi\AppData\Local\Temp\ccDvGSFU.s:1063   .text.coap_socket_send:000000000000003a .L0 
C:\Users\stapi\AppData\Local\Temp\ccDvGSFU.s:1064   .text.coap_socket_send:000000000000003a .L0 
C:\Users\stapi\AppData\Local\Temp\ccDvGSFU.s:1068   .text.coap_socket_send:000000000000003c .L0 
C:\Users\stapi\AppData\Local\Temp\ccDvGSFU.s:1073   .text.coap_socket_send:0000000000000040 .L0 
C:\Users\stapi\AppData\Local\Temp\ccDvGSFU.s:1079   .text.coap_socket_send:000000000000004e .L0 
C:\Users\stapi\AppData\Local\Temp\ccDvGSFU.s:1085   .text.coap_socket_send:000000000000005e .L0 
C:\Users\stapi\AppData\Local\Temp\ccDvGSFU.s:1086   .text.coap_socket_send:000000000000005e .L0 
C:\Users\stapi\AppData\Local\Temp\ccDvGSFU.s:1095   .text.coap_socket_send:0000000000000076 .L0 
C:\Users\stapi\AppData\Local\Temp\ccDvGSFU.s:1099   .text.coap_socket_send:0000000000000082 .L0 
C:\Users\stapi\AppData\Local\Temp\ccDvGSFU.s:1103   .text.coap_socket_send:000000000000008c .L0 
C:\Users\stapi\AppData\Local\Temp\ccDvGSFU.s:1104   .text.coap_socket_send:000000000000008c .L0 
C:\Users\stapi\AppData\Local\Temp\ccDvGSFU.s:1106   .text.coap_socket_send:0000000000000092 .L0 
C:\Users\stapi\AppData\Local\Temp\ccDvGSFU.s:1113   .text.coap_socket_bind_udp:0000000000000000 coap_socket_bind_udp
C:\Users\stapi\AppData\Local\Temp\ccDvGSFU.s:1116   .text.coap_socket_bind_udp:0000000000000000 .L0 
C:\Users\stapi\AppData\Local\Temp\ccDvGSFU.s:1118   .text.coap_socket_bind_udp:0000000000000000 .L0 
C:\Users\stapi\AppData\Local\Temp\ccDvGSFU.s:1119   .text.coap_socket_bind_udp:0000000000000008 .L0 
C:\Users\stapi\AppData\Local\Temp\ccDvGSFU.s:1120   .text.coap_socket_bind_udp:0000000000000008 .L0 
C:\Users\stapi\AppData\Local\Temp\ccDvGSFU.s:1121   .text.coap_socket_bind_udp:0000000000000008 .L0 
C:\Users\stapi\AppData\Local\Temp\ccDvGSFU.s:1122   .text.coap_socket_bind_udp:0000000000000008 .L0 
C:\Users\stapi\AppData\Local\Temp\ccDvGSFU.s:1123   .text.coap_socket_bind_udp:0000000000000008 .L0 
C:\Users\stapi\AppData\Local\Temp\ccDvGSFU.s:1125   .text.coap_socket_bind_udp:0000000000000008 .L0 
C:\Users\stapi\AppData\Local\Temp\ccDvGSFU.s:1126   .text.coap_socket_bind_udp:0000000000000008 .L0 
C:\Users\stapi\AppData\Local\Temp\ccDvGSFU.s:1127   .text.coap_socket_bind_udp:0000000000000008 .L0 
C:\Users\stapi\AppData\Local\Temp\ccDvGSFU.s:1129   .text.coap_socket_bind_udp:000000000000000a .L0 
C:\Users\stapi\AppData\Local\Temp\ccDvGSFU.s:1130   .text.coap_socket_bind_udp:000000000000000c .L0 
C:\Users\stapi\AppData\Local\Temp\ccDvGSFU.s:1132   .text.coap_socket_bind_udp:000000000000000c .L0 
C:\Users\stapi\AppData\Local\Temp\ccDvGSFU.s:1134   .text.coap_socket_bind_udp:000000000000000e .L0 
C:\Users\stapi\AppData\Local\Temp\ccDvGSFU.s:1137   .text.coap_socket_bind_udp:0000000000000012 .L0 
C:\Users\stapi\AppData\Local\Temp\ccDvGSFU.s:1140   .text.coap_socket_bind_udp:0000000000000016 .L0 
C:\Users\stapi\AppData\Local\Temp\ccDvGSFU.s:1142   .text.coap_socket_bind_udp:0000000000000018 .L0 
C:\Users\stapi\AppData\Local\Temp\ccDvGSFU.s:1144   .text.coap_socket_bind_udp:000000000000001a .L0 
C:\Users\stapi\AppData\Local\Temp\ccDvGSFU.s:1145   .text.coap_socket_bind_udp:000000000000001a .L0 
C:\Users\stapi\AppData\Local\Temp\ccDvGSFU.s:1148   .text.coap_socket_bind_udp:0000000000000022 .L0 
C:\Users\stapi\AppData\Local\Temp\ccDvGSFU.s:1150   .text.coap_socket_bind_udp:0000000000000024 .L0 
C:\Users\stapi\AppData\Local\Temp\ccDvGSFU.s:1151   .text.coap_socket_bind_udp:0000000000000024 .L0 
C:\Users\stapi\AppData\Local\Temp\ccDvGSFU.s:1153   .text.coap_socket_bind_udp:0000000000000026 .L0 
C:\Users\stapi\AppData\Local\Temp\ccDvGSFU.s:1159   .text.coap_socket_bind_udp:0000000000000038 .L0 
C:\Users\stapi\AppData\Local\Temp\ccDvGSFU.s:1160   .text.coap_socket_bind_udp:0000000000000038 .L0 
C:\Users\stapi\AppData\Local\Temp\ccDvGSFU.s:1168   .text.coap_socket_bind_udp:000000000000004a .L0 
C:\Users\stapi\AppData\Local\Temp\ccDvGSFU.s:1169   .text.coap_socket_bind_udp:000000000000004a .L0 
C:\Users\stapi\AppData\Local\Temp\ccDvGSFU.s:1171   .text.coap_socket_bind_udp:000000000000004c .L0 
C:\Users\stapi\AppData\Local\Temp\ccDvGSFU.s:1175   .text.coap_socket_bind_udp:0000000000000056 .L0 
C:\Users\stapi\AppData\Local\Temp\ccDvGSFU.s:1176   .text.coap_socket_bind_udp:0000000000000056 .L0 
C:\Users\stapi\AppData\Local\Temp\ccDvGSFU.s:1179   .text.coap_socket_bind_udp:000000000000005a .L0 
C:\Users\stapi\AppData\Local\Temp\ccDvGSFU.s:1180   .text.coap_socket_bind_udp:000000000000005a .L0 
C:\Users\stapi\AppData\Local\Temp\ccDvGSFU.s:1182   .text.coap_socket_bind_udp:000000000000005c .L0 
C:\Users\stapi\AppData\Local\Temp\ccDvGSFU.s:1184   .text.coap_socket_bind_udp:0000000000000060 .L0 
C:\Users\stapi\AppData\Local\Temp\ccDvGSFU.s:1190   .text.coap_socket_bind_udp:000000000000006a .L0 
C:\Users\stapi\AppData\Local\Temp\ccDvGSFU.s:1191   .text.coap_socket_bind_udp:000000000000006a .L0 
C:\Users\stapi\AppData\Local\Temp\ccDvGSFU.s:1192   .text.coap_socket_bind_udp:000000000000006c .L0 
C:\Users\stapi\AppData\Local\Temp\ccDvGSFU.s:1193   .text.coap_socket_bind_udp:000000000000006c .L0 
C:\Users\stapi\AppData\Local\Temp\ccDvGSFU.s:1195   .text.coap_socket_bind_udp:0000000000000074 .L0 
C:\Users\stapi\AppData\Local\Temp\ccDvGSFU.s:1196   .text.coap_socket_bind_udp:0000000000000074 .L0 
C:\Users\stapi\AppData\Local\Temp\ccDvGSFU.s:1197   .text.coap_socket_bind_udp:0000000000000074 .L0 
C:\Users\stapi\AppData\Local\Temp\ccDvGSFU.s:1198   .text.coap_socket_bind_udp:0000000000000074 .L0 
C:\Users\stapi\AppData\Local\Temp\ccDvGSFU.s:1199   .text.coap_socket_bind_udp:0000000000000074 .L0 
C:\Users\stapi\AppData\Local\Temp\ccDvGSFU.s:1201   .text.coap_socket_bind_udp:0000000000000074 .L0 
C:\Users\stapi\AppData\Local\Temp\ccDvGSFU.s:1203   .text.coap_socket_bind_udp:0000000000000074 .L0 
C:\Users\stapi\AppData\Local\Temp\ccDvGSFU.s:1205   .text.coap_socket_bind_udp:0000000000000078 .L0 
C:\Users\stapi\AppData\Local\Temp\ccDvGSFU.s:1212   .text.coap_socket_connect_udp:0000000000000000 coap_socket_connect_udp
C:\Users\stapi\AppData\Local\Temp\ccDvGSFU.s:1215   .text.coap_socket_connect_udp:0000000000000000 .L0 
C:\Users\stapi\AppData\Local\Temp\ccDvGSFU.s:1217   .text.coap_socket_connect_udp:0000000000000000 .L0 
C:\Users\stapi\AppData\Local\Temp\ccDvGSFU.s:1218   .text.coap_socket_connect_udp:0000000000000008 .L0 
C:\Users\stapi\AppData\Local\Temp\ccDvGSFU.s:1219   .text.coap_socket_connect_udp:0000000000000008 .L0 
C:\Users\stapi\AppData\Local\Temp\ccDvGSFU.s:1220   .text.coap_socket_connect_udp:0000000000000008 .L0 
C:\Users\stapi\AppData\Local\Temp\ccDvGSFU.s:1221   .text.coap_socket_connect_udp:0000000000000008 .L0 
C:\Users\stapi\AppData\Local\Temp\ccDvGSFU.s:1222   .text.coap_socket_connect_udp:0000000000000008 .L0 
C:\Users\stapi\AppData\Local\Temp\ccDvGSFU.s:1223   .text.coap_socket_connect_udp:0000000000000008 .L0 
C:\Users\stapi\AppData\Local\Temp\ccDvGSFU.s:1224   .text.coap_socket_connect_udp:0000000000000008 .L0 
C:\Users\stapi\AppData\Local\Temp\ccDvGSFU.s:1226   .text.coap_socket_connect_udp:0000000000000008 .L0 
C:\Users\stapi\AppData\Local\Temp\ccDvGSFU.s:1227   .text.coap_socket_connect_udp:0000000000000008 .L0 
C:\Users\stapi\AppData\Local\Temp\ccDvGSFU.s:1228   .text.coap_socket_connect_udp:0000000000000008 .L0 
C:\Users\stapi\AppData\Local\Temp\ccDvGSFU.s:1229   .text.coap_socket_connect_udp:0000000000000008 .L0 
C:\Users\stapi\AppData\Local\Temp\ccDvGSFU.s:1230   .text.coap_socket_connect_udp:0000000000000008 .L0 
C:\Users\stapi\AppData\Local\Temp\ccDvGSFU.s:1231   .text.coap_socket_connect_udp:0000000000000008 .L0 
C:\Users\stapi\AppData\Local\Temp\ccDvGSFU.s:1232   .text.coap_socket_connect_udp:0000000000000008 .L0 
C:\Users\stapi\AppData\Local\Temp\ccDvGSFU.s:1234   .text.coap_socket_connect_udp:000000000000000c .L0 
C:\Users\stapi\AppData\Local\Temp\ccDvGSFU.s:1236   .text.coap_socket_connect_udp:000000000000000e .L0 
C:\Users\stapi\AppData\Local\Temp\ccDvGSFU.s:1239   .text.coap_socket_connect_udp:0000000000000012 .L0 
C:\Users\stapi\AppData\Local\Temp\ccDvGSFU.s:1241   .text.coap_socket_connect_udp:0000000000000014 .L0 
C:\Users\stapi\AppData\Local\Temp\ccDvGSFU.s:1244   .text.coap_socket_connect_udp:000000000000001c .L0 
C:\Users\stapi\AppData\Local\Temp\ccDvGSFU.s:1245   .text.coap_socket_connect_udp:000000000000001c .L0 
C:\Users\stapi\AppData\Local\Temp\ccDvGSFU.s:1248   .text.coap_socket_connect_udp:0000000000000024 .L0 
C:\Users\stapi\AppData\Local\Temp\ccDvGSFU.s:1250   .text.coap_socket_connect_udp:0000000000000026 .L0 
C:\Users\stapi\AppData\Local\Temp\ccDvGSFU.s:1252   .text.coap_socket_connect_udp:0000000000000028 .L0 
C:\Users\stapi\AppData\Local\Temp\ccDvGSFU.s:1256   .text.coap_socket_connect_udp:0000000000000030 .L0 
C:\Users\stapi\AppData\Local\Temp\ccDvGSFU.s:1257   .text.coap_socket_connect_udp:0000000000000030 .L0 
C:\Users\stapi\AppData\Local\Temp\ccDvGSFU.s:1260   .text.coap_socket_connect_udp:0000000000000038 .L0 
C:\Users\stapi\AppData\Local\Temp\ccDvGSFU.s:1261   .text.coap_socket_connect_udp:0000000000000038 .L0 
C:\Users\stapi\AppData\Local\Temp\ccDvGSFU.s:1263   .text.coap_socket_connect_udp:000000000000003a .L0 
C:\Users\stapi\AppData\Local\Temp\ccDvGSFU.s:1264   .text.coap_socket_connect_udp:000000000000003a .L0 
C:\Users\stapi\AppData\Local\Temp\ccDvGSFU.s:1267   .text.coap_socket_connect_udp:0000000000000040 .L0 
C:\Users\stapi\AppData\Local\Temp\ccDvGSFU.s:1271   .text.coap_socket_connect_udp:0000000000000046 .L0 
C:\Users\stapi\AppData\Local\Temp\ccDvGSFU.s:1273   .text.coap_socket_connect_udp:000000000000004a .L0 
C:\Users\stapi\AppData\Local\Temp\ccDvGSFU.s:1274   .text.coap_socket_connect_udp:000000000000004a .L0 
C:\Users\stapi\AppData\Local\Temp\ccDvGSFU.s:1278   .text.coap_socket_connect_udp:0000000000000056 .L0 
C:\Users\stapi\AppData\Local\Temp\ccDvGSFU.s:1279   .text.coap_socket_connect_udp:0000000000000056 .L0 
C:\Users\stapi\AppData\Local\Temp\ccDvGSFU.s:1281   .text.coap_socket_connect_udp:0000000000000058 .L0 
C:\Users\stapi\AppData\Local\Temp\ccDvGSFU.s:1282   .text.coap_socket_connect_udp:0000000000000058 .L0 
C:\Users\stapi\AppData\Local\Temp\ccDvGSFU.s:1288   .text.coap_socket_connect_udp:0000000000000064 .L0 
C:\Users\stapi\AppData\Local\Temp\ccDvGSFU.s:1290   .text.coap_socket_connect_udp:0000000000000066 .L0 
C:\Users\stapi\AppData\Local\Temp\ccDvGSFU.s:1293   .text.coap_socket_connect_udp:000000000000006e .L0 
C:\Users\stapi\AppData\Local\Temp\ccDvGSFU.s:1297   .text.coap_socket_connect_udp:000000000000007a .L0 
C:\Users\stapi\AppData\Local\Temp\ccDvGSFU.s:1298   .text.coap_socket_connect_udp:000000000000007a .L0 
C:\Users\stapi\AppData\Local\Temp\ccDvGSFU.s:1302   .text.coap_socket_connect_udp:000000000000007c .L0 
C:\Users\stapi\AppData\Local\Temp\ccDvGSFU.s:1303   .text.coap_socket_connect_udp:0000000000000084 .L0 
C:\Users\stapi\AppData\Local\Temp\ccDvGSFU.s:1304   .text.coap_socket_connect_udp:0000000000000084 .L0 
C:\Users\stapi\AppData\Local\Temp\ccDvGSFU.s:1305   .text.coap_socket_connect_udp:0000000000000084 .L0 
C:\Users\stapi\AppData\Local\Temp\ccDvGSFU.s:1306   .text.coap_socket_connect_udp:0000000000000084 .L0 
C:\Users\stapi\AppData\Local\Temp\ccDvGSFU.s:1307   .text.coap_socket_connect_udp:0000000000000084 .L0 
C:\Users\stapi\AppData\Local\Temp\ccDvGSFU.s:1308   .text.coap_socket_connect_udp:0000000000000084 .L0 
C:\Users\stapi\AppData\Local\Temp\ccDvGSFU.s:1309   .text.coap_socket_connect_udp:0000000000000084 .L0 
C:\Users\stapi\AppData\Local\Temp\ccDvGSFU.s:1310   .text.coap_socket_connect_udp:0000000000000084 .L0 
C:\Users\stapi\AppData\Local\Temp\ccDvGSFU.s:1313   .text.coap_socket_connect_udp:0000000000000084 .L0 
C:\Users\stapi\AppData\Local\Temp\ccDvGSFU.s:1317   .text.coap_socket_connect_udp:0000000000000084 .L0 
C:\Users\stapi\AppData\Local\Temp\ccDvGSFU.s:1323   .text.coap_socket_connect_udp:000000000000008e .L0 
C:\Users\stapi\AppData\Local\Temp\ccDvGSFU.s:1327   .text.coap_socket_connect_udp:000000000000009a .L0 
C:\Users\stapi\AppData\Local\Temp\ccDvGSFU.s:1328   .text.coap_socket_connect_udp:000000000000009a .L0 
C:\Users\stapi\AppData\Local\Temp\ccDvGSFU.s:1330   .text.coap_socket_connect_udp:000000000000009e .L0 
C:\Users\stapi\AppData\Local\Temp\ccDvGSFU.s:1337   .text.coap_socket_write:0000000000000000 coap_socket_write
C:\Users\stapi\AppData\Local\Temp\ccDvGSFU.s:1340   .text.coap_socket_write:0000000000000000 .L0 
C:\Users\stapi\AppData\Local\Temp\ccDvGSFU.s:1342   .text.coap_socket_write:0000000000000000 .L0 
C:\Users\stapi\AppData\Local\Temp\ccDvGSFU.s:1343   .text.coap_socket_write:0000000000000000 .L0 
C:\Users\stapi\AppData\Local\Temp\ccDvGSFU.s:1344   .text.coap_socket_write:0000000000000000 .L0 
C:\Users\stapi\AppData\Local\Temp\ccDvGSFU.s:1345   .text.coap_socket_write:0000000000000000 .L0 
C:\Users\stapi\AppData\Local\Temp\ccDvGSFU.s:1346   .text.coap_socket_write:0000000000000000 .L0 
C:\Users\stapi\AppData\Local\Temp\ccDvGSFU.s:1347   .text.coap_socket_write:0000000000000000 .L0 
C:\Users\stapi\AppData\Local\Temp\ccDvGSFU.s:1350   .text.coap_socket_write:0000000000000004 .L0 
C:\Users\stapi\AppData\Local\Temp\ccDvGSFU.s:1357   .text.coap_socket_read:0000000000000000 coap_socket_read
C:\Users\stapi\AppData\Local\Temp\ccDvGSFU.s:1359   .text.coap_socket_read:0000000000000000 .L0 
C:\Users\stapi\AppData\Local\Temp\ccDvGSFU.s:1362   .text.coap_socket_read:0000000000000004 .L0 
C:\Users\stapi\AppData\Local\Temp\ccDvGSFU.s:1369   .text.coap_socket_close:0000000000000000 coap_socket_close
C:\Users\stapi\AppData\Local\Temp\ccDvGSFU.s:1372   .text.coap_socket_close:0000000000000000 .L0 
C:\Users\stapi\AppData\Local\Temp\ccDvGSFU.s:1374   .text.coap_socket_close:0000000000000000 .L0 
C:\Users\stapi\AppData\Local\Temp\ccDvGSFU.s:1375   .text.coap_socket_close:0000000000000000 .L0 
C:\Users\stapi\AppData\Local\Temp\ccDvGSFU.s:1376   .text.coap_socket_close:0000000000000008 .L0 
C:\Users\stapi\AppData\Local\Temp\ccDvGSFU.s:1377   .text.coap_socket_close:0000000000000008 .L0 
C:\Users\stapi\AppData\Local\Temp\ccDvGSFU.s:1378   .text.coap_socket_close:0000000000000008 .L0 
C:\Users\stapi\AppData\Local\Temp\ccDvGSFU.s:1379   .text.coap_socket_close:0000000000000008 .L0 
C:\Users\stapi\AppData\Local\Temp\ccDvGSFU.s:1381   .text.coap_socket_close:0000000000000008 .L0 
C:\Users\stapi\AppData\Local\Temp\ccDvGSFU.s:1382   .text.coap_socket_close:0000000000000008 .L0 
C:\Users\stapi\AppData\Local\Temp\ccDvGSFU.s:1384   .text.coap_socket_close:000000000000000a .L0 
C:\Users\stapi\AppData\Local\Temp\ccDvGSFU.s:1386   .text.coap_socket_close:000000000000000c .L0 
C:\Users\stapi\AppData\Local\Temp\ccDvGSFU.s:1388   .text.coap_socket_close:000000000000000e .L0 
C:\Users\stapi\AppData\Local\Temp\ccDvGSFU.s:1394   .text.coap_socket_close:000000000000001e .L0 
C:\Users\stapi\AppData\Local\Temp\ccDvGSFU.s:1398   .text.coap_socket_close:0000000000000028 .L0 
C:\Users\stapi\AppData\Local\Temp\ccDvGSFU.s:1403   .text.coap_socket_close:0000000000000034 .L0 
C:\Users\stapi\AppData\Local\Temp\ccDvGSFU.s:1404   .text.coap_socket_close:0000000000000034 .L0 
C:\Users\stapi\AppData\Local\Temp\ccDvGSFU.s:1406   .text.coap_socket_close:0000000000000038 .L0 
C:\Users\stapi\AppData\Local\Temp\ccDvGSFU.s:1407   .text.coap_socket_close:0000000000000038 .L0 
C:\Users\stapi\AppData\Local\Temp\ccDvGSFU.s:1408   .text.coap_socket_close:0000000000000040 .L0 
C:\Users\stapi\AppData\Local\Temp\ccDvGSFU.s:1409   .text.coap_socket_close:0000000000000040 .L0 
C:\Users\stapi\AppData\Local\Temp\ccDvGSFU.s:1410   .text.coap_socket_close:0000000000000040 .L0 
C:\Users\stapi\AppData\Local\Temp\ccDvGSFU.s:1411   .text.coap_socket_close:0000000000000040 .L0 
C:\Users\stapi\AppData\Local\Temp\ccDvGSFU.s:1412   .text.coap_socket_close:0000000000000040 .L0 
C:\Users\stapi\AppData\Local\Temp\ccDvGSFU.s:1417   .rodata.__func__.0:0000000000000000 .LANCHOR0
C:\Users\stapi\AppData\Local\Temp\ccDvGSFU.s:1420   .rodata.__func__.0:0000000000000000 __func__.0
C:\Users\stapi\AppData\Local\Temp\ccDvGSFU.s:1424   .rodata.__func__.1:0000000000000000 .LANCHOR1
C:\Users\stapi\AppData\Local\Temp\ccDvGSFU.s:1427   .rodata.__func__.1:0000000000000000 __func__.1
C:\Users\stapi\AppData\Local\Temp\ccDvGSFU.s:103    .text.coap_io_process_timeout:000000000000006a .L0 
C:\Users\stapi\AppData\Local\Temp\ccDvGSFU.s:323    .text.coap_recvc:0000000000000126 .L0 
C:\Users\stapi\AppData\Local\Temp\ccDvGSFU.s:664    .text.coap_recvs:00000000000001e4 .L0 
C:\Users\stapi\AppData\Local\Temp\ccDvGSFU.s:678    .text.coap_lwip_dump_memory_pools:0000000000000002 .L0 
C:\Users\stapi\AppData\Local\Temp\ccDvGSFU.s:698    .text.coap_lwip_set_input_wait_handler:0000000000000006 .L0 
C:\Users\stapi\AppData\Local\Temp\ccDvGSFU.s:864    .text.coap_io_process:00000000000000da .L0 
C:\Users\stapi\AppData\Local\Temp\ccDvGSFU.s:897    .text.coap_socket_recv:000000000000002c .L0 
C:\Users\stapi\AppData\Local\Temp\ccDvGSFU.s:1004   .text.coap_socket_send_pdu:000000000000008e .L0 
C:\Users\stapi\AppData\Local\Temp\ccDvGSFU.s:1109   .text.coap_socket_send:0000000000000092 .L0 
C:\Users\stapi\AppData\Local\Temp\ccDvGSFU.s:1208   .text.coap_socket_bind_udp:0000000000000078 .L0 
C:\Users\stapi\AppData\Local\Temp\ccDvGSFU.s:1333   .text.coap_socket_connect_udp:000000000000009e .L0 
C:\Users\stapi\AppData\Local\Temp\ccDvGSFU.s:1353   .text.coap_socket_write:0000000000000004 .L0 
C:\Users\stapi\AppData\Local\Temp\ccDvGSFU.s:1415   .text.coap_socket_close:0000000000000040 .L0 
                     .debug_frame:0000000000000000 .L0 
C:\Users\stapi\AppData\Local\Temp\ccDvGSFU.s:73     .text.coap_io_process_timeout:0000000000000044 .L2
C:\Users\stapi\AppData\Local\Temp\ccDvGSFU.s:80     .text.coap_io_process_timeout:000000000000004a .L3
C:\Users\stapi\AppData\Local\Temp\ccDvGSFU.s:105    .rodata.coap_recvc.str1.4:0000000000000000 .LC0
C:\Users\stapi\AppData\Local\Temp\ccDvGSFU.s:108    .rodata.coap_recvc.str1.4:0000000000000008 .LC1
C:\Users\stapi\AppData\Local\Temp\ccDvGSFU.s:111    .rodata.coap_recvc.str1.4:0000000000000090 .LC2
C:\Users\stapi\AppData\Local\Temp\ccDvGSFU.s:114    .rodata.coap_recvc.str1.4:00000000000000b0 .LC3
C:\Users\stapi\AppData\Local\Temp\ccDvGSFU.s:117    .rodata.coap_recvc.str1.4:00000000000000d8 .LC4
C:\Users\stapi\AppData\Local\Temp\ccDvGSFU.s:156    .text.coap_recvc:000000000000002e .L9
C:\Users\stapi\AppData\Local\Temp\ccDvGSFU.s:187    .text.coap_recvc:0000000000000060 .L10
C:\Users\stapi\AppData\Local\Temp\ccDvGSFU.s:181    .text.coap_recvc:000000000000005e .L11
C:\Users\stapi\AppData\Local\Temp\ccDvGSFU.s:241    .text.coap_recvc:00000000000000c0 .L8
C:\Users\stapi\AppData\Local\Temp\ccDvGSFU.s:217    .text.coap_recvc:000000000000009c .L13
C:\Users\stapi\AppData\Local\Temp\ccDvGSFU.s:287    .text.coap_recvc:00000000000000f0 .L14
C:\Users\stapi\AppData\Local\Temp\ccDvGSFU.s:253    .text.coap_recvc:00000000000000c8 .L15
C:\Users\stapi\AppData\Local\Temp\ccDvGSFU.s:228    .text.coap_recvc:00000000000000aa .L18
C:\Users\stapi\AppData\Local\Temp\ccDvGSFU.s:235    .text.coap_recvc:00000000000000b6 .L27
C:\Users\stapi\AppData\Local\Temp\ccDvGSFU.s:268    .text.coap_recvc:00000000000000de .L17
C:\Users\stapi\AppData\Local\Temp\ccDvGSFU.s:271    .text.coap_recvc:00000000000000e0 .L19
C:\Users\stapi\AppData\Local\Temp\ccDvGSFU.s:325    .rodata.coap_recvs.str1.4:0000000000000000 .LC5
C:\Users\stapi\AppData\Local\Temp\ccDvGSFU.s:572    .text.coap_recvs:0000000000000178 .L28
C:\Users\stapi\AppData\Local\Temp\ccDvGSFU.s:398    .text.coap_recvs:0000000000000052 .L30
C:\Users\stapi\AppData\Local\Temp\ccDvGSFU.s:392    .text.coap_recvs:0000000000000050 .L31
C:\Users\stapi\AppData\Local\Temp\ccDvGSFU.s:653    .text.coap_recvs:00000000000001e0 .L32
C:\Users\stapi\AppData\Local\Temp\ccDvGSFU.s:494    .text.coap_recvs:00000000000000ec .L33
C:\Users\stapi\AppData\Local\Temp\ccDvGSFU.s:489    .text.coap_recvs:00000000000000ea .L34
C:\Users\stapi\AppData\Local\Temp\ccDvGSFU.s:514    .text.coap_recvs:000000000000011c .L35
C:\Users\stapi\AppData\Local\Temp\ccDvGSFU.s:609    .text.coap_recvs:000000000000019a .L36
C:\Users\stapi\AppData\Local\Temp\ccDvGSFU.s:589    .text.coap_recvs:0000000000000180 .L37
C:\Users\stapi\AppData\Local\Temp\ccDvGSFU.s:548    .text.coap_recvs:0000000000000156 .L39
C:\Users\stapi\AppData\Local\Temp\ccDvGSFU.s:533    .text.coap_recvs:000000000000013c .L38
C:\Users\stapi\AppData\Local\Temp\ccDvGSFU.s:638    .text.coap_recvs:00000000000001d0 .L41
C:\Users\stapi\AppData\Local\Temp\ccDvGSFU.s:556    .text.coap_recvs:0000000000000162 .L40
C:\Users\stapi\AppData\Local\Temp\ccDvGSFU.s:560    .text.coap_recvs:0000000000000164 .L54
C:\Users\stapi\AppData\Local\Temp\ccDvGSFU.s:769    .text.coap_io_process:000000000000003a .L58
C:\Users\stapi\AppData\Local\Temp\ccDvGSFU.s:789    .text.coap_io_process:0000000000000066 .L59
C:\Users\stapi\AppData\Local\Temp\ccDvGSFU.s:796    .text.coap_io_process:000000000000006c .L60
C:\Users\stapi\AppData\Local\Temp\ccDvGSFU.s:821    .text.coap_io_process:0000000000000098 .L61
C:\Users\stapi\AppData\Local\Temp\ccDvGSFU.s:866    .rodata.coap_socket_recv.str1.4:0000000000000000 .LC6
C:\Users\stapi\AppData\Local\Temp\ccDvGSFU.s:962    .text.coap_socket_send_pdu:000000000000004c .L72
C:\Users\stapi\AppData\Local\Temp\ccDvGSFU.s:982    .text.coap_socket_send_pdu:0000000000000066 .L74
C:\Users\stapi\AppData\Local\Temp\ccDvGSFU.s:950    .text.coap_socket_send_pdu:0000000000000044 .L71
C:\Users\stapi\AppData\Local\Temp\ccDvGSFU.s:946    .text.coap_socket_send_pdu:0000000000000042 .L76
C:\Users\stapi\AppData\Local\Temp\ccDvGSFU.s:977    .text.coap_socket_send_pdu:0000000000000062 .L75
C:\Users\stapi\AppData\Local\Temp\ccDvGSFU.s:1051   .text.coap_socket_send:0000000000000024 .L79
C:\Users\stapi\AppData\Local\Temp\ccDvGSFU.s:1071   .text.coap_socket_send:0000000000000040 .L81
C:\Users\stapi\AppData\Local\Temp\ccDvGSFU.s:1039   .text.coap_socket_send:000000000000001c .L78
C:\Users\stapi\AppData\Local\Temp\ccDvGSFU.s:1035   .text.coap_socket_send:000000000000001a .L83
C:\Users\stapi\AppData\Local\Temp\ccDvGSFU.s:1066   .text.coap_socket_send:000000000000003c .L82
C:\Users\stapi\AppData\Local\Temp\ccDvGSFU.s:1200   .text.coap_socket_bind_udp:0000000000000074 .L88
C:\Users\stapi\AppData\Local\Temp\ccDvGSFU.s:1177   .text.coap_socket_bind_udp:000000000000005a .L87
C:\Users\stapi\AppData\Local\Temp\ccDvGSFU.s:1189   .text.coap_socket_bind_udp:000000000000006a .L85
C:\Users\stapi\AppData\Local\Temp\ccDvGSFU.s:1321   .text.coap_socket_connect_udp:000000000000008e .L94
C:\Users\stapi\AppData\Local\Temp\ccDvGSFU.s:1312   .text.coap_socket_connect_udp:0000000000000084 .L95
C:\Users\stapi\AppData\Local\Temp\ccDvGSFU.s:1300   .text.coap_socket_connect_udp:000000000000007c .L93
C:\Users\stapi\AppData\Local\Temp\ccDvGSFU.s:1401   .text.coap_socket_close:0000000000000034 .L104
C:\Users\stapi\AppData\Local\Temp\ccDvGSFU.s:8642   .debug_abbrev:0000000000000000 .Ldebug_abbrev0
C:\Users\stapi\AppData\Local\Temp\ccDvGSFU.s:11593  .debug_str:0000000000000f49 .LASF628
C:\Users\stapi\AppData\Local\Temp\ccDvGSFU.s:11201  .debug_str:00000000000003cb .LASF629
C:\Users\stapi\AppData\Local\Temp\ccDvGSFU.s:11775  .debug_str:000000000000164b .LASF630
C:\Users\stapi\AppData\Local\Temp\ccDvGSFU.s:10997  .debug_ranges:0000000000000000 .Ldebug_ranges0
C:\Users\stapi\AppData\Local\Temp\ccDvGSFU.s:11053  .debug_line:0000000000000000 .Ldebug_line0
C:\Users\stapi\AppData\Local\Temp\ccDvGSFU.s:11927  .debug_str:0000000000001b50 .LASF0
C:\Users\stapi\AppData\Local\Temp\ccDvGSFU.s:11319  .debug_str:000000000000079f .LASF2
C:\Users\stapi\AppData\Local\Temp\ccDvGSFU.s:11231  .debug_str:0000000000000507 .LASF1
C:\Users\stapi\AppData\Local\Temp\ccDvGSFU.s:11347  .debug_str:0000000000000853 .LASF3
C:\Users\stapi\AppData\Local\Temp\ccDvGSFU.s:12081  .debug_str:0000000000001f9c .LASF4
C:\Users\stapi\AppData\Local\Temp\ccDvGSFU.s:11425  .debug_str:0000000000000aa7 .LASF5
C:\Users\stapi\AppData\Local\Temp\ccDvGSFU.s:12235  .debug_str:000000000000248f .LASF6
C:\Users\stapi\AppData\Local\Temp\ccDvGSFU.s:11261  .debug_str:00000000000005f2 .LASF7
C:\Users\stapi\AppData\Local\Temp\ccDvGSFU.s:11679  .debug_str:00000000000012ed .LASF8
C:\Users\stapi\AppData\Local\Temp\ccDvGSFU.s:11569  .debug_str:0000000000000ea6 .LASF9
C:\Users\stapi\AppData\Local\Temp\ccDvGSFU.s:11683  .debug_str:0000000000001302 .LASF10
C:\Users\stapi\AppData\Local\Temp\ccDvGSFU.s:11565  .debug_str:0000000000000e91 .LASF11
C:\Users\stapi\AppData\Local\Temp\ccDvGSFU.s:11935  .debug_str:0000000000001b8a .LASF12
C:\Users\stapi\AppData\Local\Temp\ccDvGSFU.s:11763  .debug_str:00000000000015ed .LASF13
C:\Users\stapi\AppData\Local\Temp\ccDvGSFU.s:11063  .debug_str:000000000000003e .LASF14
C:\Users\stapi\AppData\Local\Temp\ccDvGSFU.s:11323  .debug_str:00000000000007be .LASF15
C:\Users\stapi\AppData\Local\Temp\ccDvGSFU.s:11943  .debug_str:0000000000001bb4 .LASF16
C:\Users\stapi\AppData\Local\Temp\ccDvGSFU.s:12193  .debug_str:000000000000235b .LASF17
C:\Users\stapi\AppData\Local\Temp\ccDvGSFU.s:12091  .debug_str:0000000000001fff .LASF18
C:\Users\stapi\AppData\Local\Temp\ccDvGSFU.s:11073  .debug_str:0000000000000067 .LASF19
C:\Users\stapi\AppData\Local\Temp\ccDvGSFU.s:11453  .debug_str:0000000000000b65 .LASF20
C:\Users\stapi\AppData\Local\Temp\ccDvGSFU.s:11071  .debug_str:000000000000005e .LASF21
C:\Users\stapi\AppData\Local\Temp\ccDvGSFU.s:11395  .debug_str:00000000000009db .LASF22
C:\Users\stapi\AppData\Local\Temp\ccDvGSFU.s:11219  .debug_str:000000000000049a .LASF23
C:\Users\stapi\AppData\Local\Temp\ccDvGSFU.s:12249  .debug_str:00000000000024fa .LASF24
C:\Users\stapi\AppData\Local\Temp\ccDvGSFU.s:12237  .debug_str:00000000000024a2 .LASF25
C:\Users\stapi\AppData\Local\Temp\ccDvGSFU.s:11779  .debug_str:00000000000016d6 .LASF26
C:\Users\stapi\AppData\Local\Temp\ccDvGSFU.s:12017  .debug_str:0000000000001d8b .LASF27
C:\Users\stapi\AppData\Local\Temp\ccDvGSFU.s:12121  .debug_str:00000000000020e9 .LASF28
C:\Users\stapi\AppData\Local\Temp\ccDvGSFU.s:12063  .debug_str:0000000000001ef1 .LASF29
C:\Users\stapi\AppData\Local\Temp\ccDvGSFU.s:11757  .debug_str:00000000000015c6 .LASF30
C:\Users\stapi\AppData\Local\Temp\ccDvGSFU.s:12045  .debug_str:0000000000001e8a .LASF31
C:\Users\stapi\AppData\Local\Temp\ccDvGSFU.s:12297  .debug_str:0000000000002658 .LASF32
C:\Users\stapi\AppData\Local\Temp\ccDvGSFU.s:11213  .debug_str:000000000000047d .LASF33
C:\Users\stapi\AppData\Local\Temp\ccDvGSFU.s:11613  .debug_str:00000000000010e7 .LASF34
C:\Users\stapi\AppData\Local\Temp\ccDvGSFU.s:11547  .debug_str:0000000000000e21 .LASF35
C:\Users\stapi\AppData\Local\Temp\ccDvGSFU.s:11305  .debug_str:000000000000071d .LASF36
C:\Users\stapi\AppData\Local\Temp\ccDvGSFU.s:11519  .debug_str:0000000000000d5b .LASF37
C:\Users\stapi\AppData\Local\Temp\ccDvGSFU.s:11609  .debug_str:00000000000010d4 .LASF38
C:\Users\stapi\AppData\Local\Temp\ccDvGSFU.s:11081  .debug_str:0000000000000098 .LASF39
C:\Users\stapi\AppData\Local\Temp\ccDvGSFU.s:12299  .debug_str:000000000000265d .LASF40
C:\Users\stapi\AppData\Local\Temp\ccDvGSFU.s:11941  .debug_str:0000000000001bad .LASF41
C:\Users\stapi\AppData\Local\Temp\ccDvGSFU.s:11819  .debug_str:00000000000017fd .LASF42
C:\Users\stapi\AppData\Local\Temp\ccDvGSFU.s:11735  .debug_str:00000000000014e6 .LASF43
C:\Users\stapi\AppData\Local\Temp\ccDvGSFU.s:11843  .debug_str:00000000000018b4 .LASF44
C:\Users\stapi\AppData\Local\Temp\ccDvGSFU.s:11353  .debug_str:000000000000088e .LASF45
C:\Users\stapi\AppData\Local\Temp\ccDvGSFU.s:11661  .debug_str:000000000000125f .LASF46
C:\Users\stapi\AppData\Local\Temp\ccDvGSFU.s:11269  .debug_str:0000000000000627 .LASF47
C:\Users\stapi\AppData\Local\Temp\ccDvGSFU.s:12191  .debug_str:0000000000002353 .LASF48
C:\Users\stapi\AppData\Local\Temp\ccDvGSFU.s:11803  .debug_str:0000000000001778 .LASF49
C:\Users\stapi\AppData\Local\Temp\ccDvGSFU.s:11109  .debug_str:0000000000000147 .LASF50
C:\Users\stapi\AppData\Local\Temp\ccDvGSFU.s:11693  .debug_str:000000000000135d .LASF51
C:\Users\stapi\AppData\Local\Temp\ccDvGSFU.s:11643  .debug_str:00000000000011c0 .LASF52
C:\Users\stapi\AppData\Local\Temp\ccDvGSFU.s:12151  .debug_str:00000000000021f9 .LASF53
C:\Users\stapi\AppData\Local\Temp\ccDvGSFU.s:11903  .debug_str:0000000000001a9f .LASF54
C:\Users\stapi\AppData\Local\Temp\ccDvGSFU.s:11937  .debug_str:0000000000001ba1 .LASF55
C:\Users\stapi\AppData\Local\Temp\ccDvGSFU.s:11341  .debug_str:0000000000000828 .LASF56
C:\Users\stapi\AppData\Local\Temp\ccDvGSFU.s:11329  .debug_str:00000000000007d7 .LASF57
C:\Users\stapi\AppData\Local\Temp\ccDvGSFU.s:11961  .debug_str:0000000000001c13 .LASF58
C:\Users\stapi\AppData\Local\Temp\ccDvGSFU.s:11821  .debug_str:0000000000001804 .LASF59
C:\Users\stapi\AppData\Local\Temp\ccDvGSFU.s:11637  .debug_str:000000000000119b .LASF60
C:\Users\stapi\AppData\Local\Temp\ccDvGSFU.s:11101  .debug_str:0000000000000110 .LASF61
C:\Users\stapi\AppData\Local\Temp\ccDvGSFU.s:11209  .debug_str:000000000000046d .LASF62
C:\Users\stapi\AppData\Local\Temp\ccDvGSFU.s:11915  .debug_str:0000000000001aed .LASF63
C:\Users\stapi\AppData\Local\Temp\ccDvGSFU.s:11509  .debug_str:0000000000000d18 .LASF64
C:\Users\stapi\AppData\Local\Temp\ccDvGSFU.s:11125  .debug_str:00000000000001c2 .LASF65
C:\Users\stapi\AppData\Local\Temp\ccDvGSFU.s:11185  .debug_str:0000000000000375 .LASF66
C:\Users\stapi\AppData\Local\Temp\ccDvGSFU.s:11419  .debug_str:0000000000000a78 .LASF67
C:\Users\stapi\AppData\Local\Temp\ccDvGSFU.s:11265  .debug_str:0000000000000608 .LASF68
C:\Users\stapi\AppData\Local\Temp\ccDvGSFU.s:11149  .debug_str:000000000000027c .LASF69
C:\Users\stapi\AppData\Local\Temp\ccDvGSFU.s:12031  .debug_str:0000000000001df1 .LASF70
C:\Users\stapi\AppData\Local\Temp\ccDvGSFU.s:11933  .debug_str:0000000000001b7e .LASF71
C:\Users\stapi\AppData\Local\Temp\ccDvGSFU.s:11787  .debug_str:0000000000001706 .LASF72
C:\Users\stapi\AppData\Local\Temp\ccDvGSFU.s:11079  .debug_str:000000000000008a .LASF73
C:\Users\stapi\AppData\Local\Temp\ccDvGSFU.s:11477  .debug_str:0000000000000c19 .LASF74
C:\Users\stapi\AppData\Local\Temp\ccDvGSFU.s:12139  .debug_str:0000000000002198 .LASF75
C:\Users\stapi\AppData\Local\Temp\ccDvGSFU.s:11435  .debug_str:0000000000000af2 .LASF76
C:\Users\stapi\AppData\Local\Temp\ccDvGSFU.s:11431  .debug_str:0000000000000ad7 .LASF77
C:\Users\stapi\AppData\Local\Temp\ccDvGSFU.s:11955  .debug_str:0000000000001bec .LASF78
C:\Users\stapi\AppData\Local\Temp\ccDvGSFU.s:11407  .debug_str:0000000000000a31 .LASF79
C:\Users\stapi\AppData\Local\Temp\ccDvGSFU.s:12153  .debug_str:0000000000002202 .LASF80
C:\Users\stapi\AppData\Local\Temp\ccDvGSFU.s:12131  .debug_str:000000000000214e .LASF81
C:\Users\stapi\AppData\Local\Temp\ccDvGSFU.s:11217  .debug_str:0000000000000491 .LASF82
C:\Users\stapi\AppData\Local\Temp\ccDvGSFU.s:12125  .debug_str:0000000000002121 .LASF83
C:\Users\stapi\AppData\Local\Temp\ccDvGSFU.s:12029  .debug_str:0000000000001de3 .LASF84
C:\Users\stapi\AppData\Local\Temp\ccDvGSFU.s:12107  .debug_str:0000000000002086 .LASF85
C:\Users\stapi\AppData\Local\Temp\ccDvGSFU.s:11365  .debug_str:0000000000000902 .LASF86
C:\Users\stapi\AppData\Local\Temp\ccDvGSFU.s:11641  .debug_str:00000000000011b8 .LASF87
C:\Users\stapi\AppData\Local\Temp\ccDvGSFU.s:11959  .debug_str:0000000000001c05 .LASF88
C:\Users\stapi\AppData\Local\Temp\ccDvGSFU.s:11443  .debug_str:0000000000000b31 .LASF89
C:\Users\stapi\AppData\Local\Temp\ccDvGSFU.s:11949  .debug_str:0000000000001bd0 .LASF90
C:\Users\stapi\AppData\Local\Temp\ccDvGSFU.s:11969  .debug_str:0000000000001c57 .LASF91
C:\Users\stapi\AppData\Local\Temp\ccDvGSFU.s:11815  .debug_str:00000000000017ec .LASF92
C:\Users\stapi\AppData\Local\Temp\ccDvGSFU.s:11957  .debug_str:0000000000001bf6 .LASF93
C:\Users\stapi\AppData\Local\Temp\ccDvGSFU.s:11521  .debug_str:0000000000000d64 .LASF94
C:\Users\stapi\AppData\Local\Temp\ccDvGSFU.s:11663  .debug_str:0000000000001268 .LASF95
C:\Users\stapi\AppData\Local\Temp\ccDvGSFU.s:11221  .debug_str:00000000000004a2 .LASF96
C:\Users\stapi\AppData\Local\Temp\ccDvGSFU.s:11135  .debug_str:0000000000000214 .LASF97
C:\Users\stapi\AppData\Local\Temp\ccDvGSFU.s:12277  .debug_str:00000000000025d8 .LASF98
C:\Users\stapi\AppData\Local\Temp\ccDvGSFU.s:12203  .debug_str:000000000000238d .LASF99
C:\Users\stapi\AppData\Local\Temp\ccDvGSFU.s:12103  .debug_str:0000000000002059 .LASF100
C:\Users\stapi\AppData\Local\Temp\ccDvGSFU.s:11615  .debug_str:00000000000010ef .LASF101
C:\Users\stapi\AppData\Local\Temp\ccDvGSFU.s:11143  .debug_str:000000000000024e .LASF102
C:\Users\stapi\AppData\Local\Temp\ccDvGSFU.s:12129  .debug_str:0000000000002143 .LASF103
C:\Users\stapi\AppData\Local\Temp\ccDvGSFU.s:12305  .debug_str:000000000000267e .LASF104
C:\Users\stapi\AppData\Local\Temp\ccDvGSFU.s:12311  .debug_str:00000000000026a3 .LASF105
C:\Users\stapi\AppData\Local\Temp\ccDvGSFU.s:11917  .debug_str:0000000000001af7 .LASF106
C:\Users\stapi\AppData\Local\Temp\ccDvGSFU.s:11563  .debug_str:0000000000000e84 .LASF107
C:\Users\stapi\AppData\Local\Temp\ccDvGSFU.s:11777  .debug_str:00000000000016c9 .LASF108
C:\Users\stapi\AppData\Local\Temp\ccDvGSFU.s:11195  .debug_str:00000000000003a7 .LASF109
C:\Users\stapi\AppData\Local\Temp\ccDvGSFU.s:12015  .debug_str:0000000000001d7d .LASF110
C:\Users\stapi\AppData\Local\Temp\ccDvGSFU.s:12187  .debug_str:0000000000002328 .LASF111
C:\Users\stapi\AppData\Local\Temp\ccDvGSFU.s:11835  .debug_str:0000000000001879 .LASF112
C:\Users\stapi\AppData\Local\Temp\ccDvGSFU.s:11783  .debug_str:00000000000016ec .LASF113
C:\Users\stapi\AppData\Local\Temp\ccDvGSFU.s:11645  .debug_str:00000000000011cc .LASF114
C:\Users\stapi\AppData\Local\Temp\ccDvGSFU.s:11689  .debug_str:000000000000132d .LASF115
C:\Users\stapi\AppData\Local\Temp\ccDvGSFU.s:12303  .debug_str:000000000000266d .LASF116
C:\Users\stapi\AppData\Local\Temp\ccDvGSFU.s:12161  .debug_str:000000000000224d .LASF117
C:\Users\stapi\AppData\Local\Temp\ccDvGSFU.s:11175  .debug_str:0000000000000327 .LASF118
C:\Users\stapi\AppData\Local\Temp\ccDvGSFU.s:12075  .debug_str:0000000000001f51 .LASF119
C:\Users\stapi\AppData\Local\Temp\ccDvGSFU.s:11619  .debug_str:000000000000110a .LASF120
C:\Users\stapi\AppData\Local\Temp\ccDvGSFU.s:12223  .debug_str:0000000000002439 .LASF121
C:\Users\stapi\AppData\Local\Temp\ccDvGSFU.s:11151  .debug_str:000000000000028b .LASF122
C:\Users\stapi\AppData\Local\Temp\ccDvGSFU.s:12137  .debug_str:000000000000218b .LASF123
C:\Users\stapi\AppData\Local\Temp\ccDvGSFU.s:12147  .debug_str:00000000000021e3 .LASF124
C:\Users\stapi\AppData\Local\Temp\ccDvGSFU.s:11457  .debug_str:0000000000000b81 .LASF125
C:\Users\stapi\AppData\Local\Temp\ccDvGSFU.s:11885  .debug_str:00000000000019e9 .LASF126
C:\Users\stapi\AppData\Local\Temp\ccDvGSFU.s:11913  .debug_str:0000000000001ad8 .LASF127
C:\Users\stapi\AppData\Local\Temp\ccDvGSFU.s:12057  .debug_str:0000000000001ed1 .LASF128
C:\Users\stapi\AppData\Local\Temp\ccDvGSFU.s:12315  .debug_str:00000000000026ce .LASF129
C:\Users\stapi\AppData\Local\Temp\ccDvGSFU.s:11875  .debug_str:00000000000019ab .LASF130
C:\Users\stapi\AppData\Local\Temp\ccDvGSFU.s:11233  .debug_str:0000000000000511 .LASF131
C:\Users\stapi\AppData\Local\Temp\ccDvGSFU.s:11623  .debug_str:000000000000112a .LASF132
C:\Users\stapi\AppData\Local\Temp\ccDvGSFU.s:11513  .debug_str:0000000000000d32 .LASF133
C:\Users\stapi\AppData\Local\Temp\ccDvGSFU.s:11549  .debug_str:0000000000000e29 .LASF134
C:\Users\stapi\AppData\Local\Temp\ccDvGSFU.s:11183  .debug_str:0000000000000365 .LASF135
C:\Users\stapi\AppData\Local\Temp\ccDvGSFU.s:12041  .debug_str:0000000000001e52 .LASF136
C:\Users\stapi\AppData\Local\Temp\ccDvGSFU.s:11665  .debug_str:0000000000001272 .LASF137
C:\Users\stapi\AppData\Local\Temp\ccDvGSFU.s:11335  .debug_str:00000000000007fb .LASF138
C:\Users\stapi\AppData\Local\Temp\ccDvGSFU.s:11303  .debug_str:0000000000000710 .LASF139
C:\Users\stapi\AppData\Local\Temp\ccDvGSFU.s:11649  .debug_str:00000000000011f1 .LASF140
C:\Users\stapi\AppData\Local\Temp\ccDvGSFU.s:11239  .debug_str:000000000000054b .LASF141
C:\Users\stapi\AppData\Local\Temp\ccDvGSFU.s:11747  .debug_str:000000000000154d .LASF142
C:\Users\stapi\AppData\Local\Temp\ccDvGSFU.s:11445  .debug_str:0000000000000b37 .LASF143
C:\Users\stapi\AppData\Local\Temp\ccDvGSFU.s:11189  .debug_str:000000000000038a .LASF144
C:\Users\stapi\AppData\Local\Temp\ccDvGSFU.s:12013  .debug_str:0000000000001d78 .LASF145
C:\Users\stapi\AppData\Local\Temp\ccDvGSFU.s:12065  .debug_str:0000000000001ef6 .LASF146
C:\Users\stapi\AppData\Local\Temp\ccDvGSFU.s:11169  .debug_str:0000000000000311 .LASF147
C:\Users\stapi\AppData\Local\Temp\ccDvGSFU.s:11827  .debug_str:000000000000183b .LASF148
C:\Users\stapi\AppData\Local\Temp\ccDvGSFU.s:11551  .debug_str:0000000000000e35 .LASF149
C:\Users\stapi\AppData\Local\Temp\ccDvGSFU.s:12229  .debug_str:0000000000002463 .LASF150
C:\Users\stapi\AppData\Local\Temp\ccDvGSFU.s:12175  .debug_str:00000000000022bb .LASF151
C:\Users\stapi\AppData\Local\Temp\ccDvGSFU.s:11147  .debug_str:0000000000000271 .LASF152
C:\Users\stapi\AppData\Local\Temp\ccDvGSFU.s:11087  .debug_str:00000000000000ba .LASF153
C:\Users\stapi\AppData\Local\Temp\ccDvGSFU.s:11361  .debug_str:00000000000008dd .LASF154
C:\Users\stapi\AppData\Local\Temp\ccDvGSFU.s:12217  .debug_str:0000000000002412 .LASF155
C:\Users\stapi\AppData\Local\Temp\ccDvGSFU.s:11409  .debug_str:0000000000000a3a .LASF156
C:\Users\stapi\AppData\Local\Temp\ccDvGSFU.s:11155  .debug_str:00000000000002b0 .LASF157
C:\Users\stapi\AppData\Local\Temp\ccDvGSFU.s:12291  .debug_str:0000000000002638 .LASF158
C:\Users\stapi\AppData\Local\Temp\ccDvGSFU.s:11773  .debug_str:0000000000001640 .LASF159
C:\Users\stapi\AppData\Local\Temp\ccDvGSFU.s:11761  .debug_str:00000000000015e5 .LASF160
C:\Users\stapi\AppData\Local\Temp\ccDvGSFU.s:12097  .debug_str:000000000000201f .LASF161
C:\Users\stapi\AppData\Local\Temp\ccDvGSFU.s:12059  .debug_str:0000000000001ee4 .LASF162
C:\Users\stapi\AppData\Local\Temp\ccDvGSFU.s:11387  .debug_str:0000000000000994 .LASF163
C:\Users\stapi\AppData\Local\Temp\ccDvGSFU.s:11621  .debug_str:000000000000111a .LASF164
C:\Users\stapi\AppData\Local\Temp\ccDvGSFU.s:12273  .debug_str:00000000000025c3 .LASF165
C:\Users\stapi\AppData\Local\Temp\ccDvGSFU.s:11839  .debug_str:000000000000189e .LASF166
C:\Users\stapi\AppData\Local\Temp\ccDvGSFU.s:11417  .debug_str:0000000000000a6d .LASF167
C:\Users\stapi\AppData\Local\Temp\ccDvGSFU.s:11235  .debug_str:000000000000051a .LASF168
C:\Users\stapi\AppData\Local\Temp\ccDvGSFU.s:11089  .debug_str:00000000000000c4 .LASF169
C:\Users\stapi\AppData\Local\Temp\ccDvGSFU.s:12085  .debug_str:0000000000001fcb .LASF170
C:\Users\stapi\AppData\Local\Temp\ccDvGSFU.s:11379  .debug_str:0000000000000961 .LASF171
C:\Users\stapi\AppData\Local\Temp\ccDvGSFU.s:11179  .debug_str:0000000000000348 .LASF172
C:\Users\stapi\AppData\Local\Temp\ccDvGSFU.s:11161  .debug_str:00000000000002cc .LASF173
C:\Users\stapi\AppData\Local\Temp\ccDvGSFU.s:11333  .debug_str:00000000000007f3 .LASF174
C:\Users\stapi\AppData\Local\Temp\ccDvGSFU.s:11979  .debug_str:0000000000001ca9 .LASF175
C:\Users\stapi\AppData\Local\Temp\ccDvGSFU.s:11719  .debug_str:0000000000001452 .LASF176
C:\Users\stapi\AppData\Local\Temp\ccDvGSFU.s:11085  .debug_str:00000000000000b0 .LASF177
C:\Users\stapi\AppData\Local\Temp\ccDvGSFU.s:11481  .debug_str:0000000000000c3d .LASF178
C:\Users\stapi\AppData\Local\Temp\ccDvGSFU.s:11259  .debug_str:00000000000005eb .LASF179
C:\Users\stapi\AppData\Local\Temp\ccDvGSFU.s:11789  .debug_str:000000000000170b .LASF180
C:\Users\stapi\AppData\Local\Temp\ccDvGSFU.s:11105  .debug_str:000000000000012b .LASF181
C:\Users\stapi\AppData\Local\Temp\ccDvGSFU.s:12205  .debug_str:0000000000002399 .LASF182
C:\Users\stapi\AppData\Local\Temp\ccDvGSFU.s:11561  .debug_str:0000000000000e78 .LASF183
C:\Users\stapi\AppData\Local\Temp\ccDvGSFU.s:11257  .debug_str:00000000000005e6 .LASF184
C:\Users\stapi\AppData\Local\Temp\ccDvGSFU.s:11275  .debug_str:000000000000064d .LASF185
C:\Users\stapi\AppData\Local\Temp\ccDvGSFU.s:12321  .debug_str:00000000000026f4 .LASF186
C:\Users\stapi\AppData\Local\Temp\ccDvGSFU.s:11171  .debug_str:000000000000031a .LASF187
C:\Users\stapi\AppData\Local\Temp\ccDvGSFU.s:11971  .debug_str:0000000000001c62 .LASF188
C:\Users\stapi\AppData\Local\Temp\ccDvGSFU.s:12173  .debug_str:00000000000022af .LASF189
C:\Users\stapi\AppData\Local\Temp\ccDvGSFU.s:11381  .debug_str:0000000000000969 .LASF190
C:\Users\stapi\AppData\Local\Temp\ccDvGSFU.s:11811  .debug_str:00000000000017d0 .LASF191
C:\Users\stapi\AppData\Local\Temp\ccDvGSFU.s:11541  .debug_str:0000000000000df0 .LASF192
C:\Users\stapi\AppData\Local\Temp\ccDvGSFU.s:11877  .debug_str:00000000000019b3 .LASF193
C:\Users\stapi\AppData\Local\Temp\ccDvGSFU.s:12241  .debug_str:00000000000024c4 .LASF194
C:\Users\stapi\AppData\Local\Temp\ccDvGSFU.s:12109  .debug_str:0000000000002090 .LASF195
C:\Users\stapi\AppData\Local\Temp\ccDvGSFU.s:12009  .debug_str:0000000000001d66 .LASF196
C:\Users\stapi\AppData\Local\Temp\ccDvGSFU.s:12119  .debug_str:00000000000020e1 .LASF197
C:\Users\stapi\AppData\Local\Temp\ccDvGSFU.s:11389  .debug_str:000000000000099a .LASF198
C:\Users\stapi\AppData\Local\Temp\ccDvGSFU.s:11119  .debug_str:00000000000001a2 .LASF199
C:\Users\stapi\AppData\Local\Temp\ccDvGSFU.s:12117  .debug_str:00000000000020d4 .LASF200
C:\Users\stapi\AppData\Local\Temp\ccDvGSFU.s:11343  .debug_str:0000000000000837 .LASF201
C:\Users\stapi\AppData\Local\Temp\ccDvGSFU.s:12247  .debug_str:00000000000024ef .LASF202
C:\Users\stapi\AppData\Local\Temp\ccDvGSFU.s:11527  .debug_str:0000000000000d85 .LASF203
C:\Users\stapi\AppData\Local\Temp\ccDvGSFU.s:12197  .debug_str:000000000000236d .LASF204
C:\Users\stapi\AppData\Local\Temp\ccDvGSFU.s:11225  .debug_str:00000000000004bc .LASF205
C:\Users\stapi\AppData\Local\Temp\ccDvGSFU.s:12199  .debug_str:0000000000002377 .LASF206
C:\Users\stapi\AppData\Local\Temp\ccDvGSFU.s:11715  .debug_str:0000000000001430 .LASF207
C:\Users\stapi\AppData\Local\Temp\ccDvGSFU.s:11503  .debug_str:0000000000000ce6 .LASF208
C:\Users\stapi\AppData\Local\Temp\ccDvGSFU.s:11191  .debug_str:000000000000038f .LASF209
C:\Users\stapi\AppData\Local\Temp\ccDvGSFU.s:11901  .debug_str:0000000000001a96 .LASF210
C:\Users\stapi\AppData\Local\Temp\ccDvGSFU.s:12053  .debug_str:0000000000001ec0 .LASF211
C:\Users\stapi\AppData\Local\Temp\ccDvGSFU.s:11553  .debug_str:0000000000000e3d .LASF212
C:\Users\stapi\AppData\Local\Temp\ccDvGSFU.s:12051  .debug_str:0000000000001eb1 .LASF213
C:\Users\stapi\AppData\Local\Temp\ccDvGSFU.s:11947  .debug_str:0000000000001bc9 .LASF214
C:\Users\stapi\AppData\Local\Temp\ccDvGSFU.s:11467  .debug_str:0000000000000bd4 .LASF215
C:\Users\stapi\AppData\Local\Temp\ccDvGSFU.s:12231  .debug_str:0000000000002472 .LASF216
C:\Users\stapi\AppData\Local\Temp\ccDvGSFU.s:11707  .debug_str:00000000000013df .LASF217
C:\Users\stapi\AppData\Local\Temp\ccDvGSFU.s:12019  .debug_str:0000000000001d91 .LASF218
C:\Users\stapi\AppData\Local\Temp\ccDvGSFU.s:11671  .debug_str:00000000000012a9 .LASF219
C:\Users\stapi\AppData\Local\Temp\ccDvGSFU.s:11813  .debug_str:00000000000017d7 .LASF220
C:\Users\stapi\AppData\Local\Temp\ccDvGSFU.s:11977  .debug_str:0000000000001c94 .LASF221
C:\Users\stapi\AppData\Local\Temp\ccDvGSFU.s:11983  .debug_str:0000000000001cdb .LASF222
C:\Users\stapi\AppData\Local\Temp\ccDvGSFU.s:11373  .debug_str:0000000000000935 .LASF223
C:\Users\stapi\AppData\Local\Temp\ccDvGSFU.s:11597  .debug_str:0000000000001050 .LASF224
C:\Users\stapi\AppData\Local\Temp\ccDvGSFU.s:12255  .debug_str:0000000000002525 .LASF225
C:\Users\stapi\AppData\Local\Temp\ccDvGSFU.s:11589  .debug_str:0000000000000f2e .LASF226
C:\Users\stapi\AppData\Local\Temp\ccDvGSFU.s:11781  .debug_str:00000000000016dc .LASF227
C:\Users\stapi\AppData\Local\Temp\ccDvGSFU.s:11187  .debug_str:0000000000000381 .LASF228
C:\Users\stapi\AppData\Local\Temp\ccDvGSFU.s:11061  .debug_str:0000000000000033 .LASF229
C:\Users\stapi\AppData\Local\Temp\ccDvGSFU.s:11685  .debug_str:0000000000001310 .LASF230
C:\Users\stapi\AppData\Local\Temp\ccDvGSFU.s:11293  .debug_str:00000000000006d5 .LASF231
C:\Users\stapi\AppData\Local\Temp\ccDvGSFU.s:12047  .debug_str:0000000000001e97 .LASF232
C:\Users\stapi\AppData\Local\Temp\ccDvGSFU.s:11701  .debug_str:00000000000013b3 .LASF233
C:\Users\stapi\AppData\Local\Temp\ccDvGSFU.s:11995  .debug_str:0000000000001d22 .LASF234
C:\Users\stapi\AppData\Local\Temp\ccDvGSFU.s:11583  .debug_str:0000000000000f1a .LASF235
C:\Users\stapi\AppData\Local\Temp\ccDvGSFU.s:11331  .debug_str:00000000000007e1 .LASF236
C:\Users\stapi\AppData\Local\Temp\ccDvGSFU.s:11727  .debug_str:000000000000149a .LASF237
C:\Users\stapi\AppData\Local\Temp\ccDvGSFU.s:11867  .debug_str:0000000000001975 .LASF238
C:\Users\stapi\AppData\Local\Temp\ccDvGSFU.s:12265  .debug_str:000000000000258a .LASF239
C:\Users\stapi\AppData\Local\Temp\ccDvGSFU.s:11141  .debug_str:0000000000000240 .LASF240
C:\Users\stapi\AppData\Local\Temp\ccDvGSFU.s:11849  .debug_str:00000000000018d1 .LASF241
C:\Users\stapi\AppData\Local\Temp\ccDvGSFU.s:12087  .debug_str:0000000000001fd8 .LASF242
C:\Users\stapi\AppData\Local\Temp\ccDvGSFU.s:11633  .debug_str:0000000000001181 .LASF243
C:\Users\stapi\AppData\Local\Temp\ccDvGSFU.s:11899  .debug_str:0000000000001a90 .LASF244
C:\Users\stapi\AppData\Local\Temp\ccDvGSFU.s:12201  .debug_str:000000000000237e .LASF245
C:\Users\stapi\AppData\Local\Temp\ccDvGSFU.s:11785  .debug_str:00000000000016fe .LASF246
C:\Users\stapi\AppData\Local\Temp\ccDvGSFU.s:12317  .debug_str:00000000000026dd .LASF247
C:\Users\stapi\AppData\Local\Temp\ccDvGSFU.s:12167  .debug_str:0000000000002284 .LASF248
C:\Users\stapi\AppData\Local\Temp\ccDvGSFU.s:11723  .debug_str:0000000000001470 .LASF249
C:\Users\stapi\AppData\Local\Temp\ccDvGSFU.s:12287  .debug_str:0000000000002625 .LASF250
C:\Users\stapi\AppData\Local\Temp\ccDvGSFU.s:11591  .debug_str:0000000000000f40 .LASF251
C:\Users\stapi\AppData\Local\Temp\ccDvGSFU.s:11203  .debug_str:0000000000000450 .LASF252
C:\Users\stapi\AppData\Local\Temp\ccDvGSFU.s:11383  .debug_str:0000000000000973 .LASF253
C:\Users\stapi\AppData\Local\Temp\ccDvGSFU.s:11871  .debug_str:0000000000001998 .LASF254
C:\Users\stapi\AppData\Local\Temp\ccDvGSFU.s:11595  .debug_str:0000000000001042 .LASF255
C:\Users\stapi\AppData\Local\Temp\ccDvGSFU.s:11925  .debug_str:0000000000001b49 .LASF256
C:\Users\stapi\AppData\Local\Temp\ccDvGSFU.s:12219  .debug_str:0000000000002418 .LASF261
C:\Users\stapi\AppData\Local\Temp\ccDvGSFU.s:12067  .debug_str:0000000000001f03 .LASF257
C:\Users\stapi\AppData\Local\Temp\ccDvGSFU.s:11099  .debug_str:00000000000000ff .LASF258
C:\Users\stapi\AppData\Local\Temp\ccDvGSFU.s:11829  .debug_str:0000000000001844 .LASF259
C:\Users\stapi\AppData\Local\Temp\ccDvGSFU.s:11765  .debug_str:00000000000015fa .LASF260
C:\Users\stapi\AppData\Local\Temp\ccDvGSFU.s:12159  .debug_str:0000000000002242 .LASF262
C:\Users\stapi\AppData\Local\Temp\ccDvGSFU.s:12049  .debug_str:0000000000001ea4 .LASF263
C:\Users\stapi\AppData\Local\Temp\ccDvGSFU.s:11907  .debug_str:0000000000001ab7 .LASF264
C:\Users\stapi\AppData\Local\Temp\ccDvGSFU.s:11577  .debug_str:0000000000000ef5 .LASF265
C:\Users\stapi\AppData\Local\Temp\ccDvGSFU.s:11965  .debug_str:0000000000001c25 .LASF266
C:\Users\stapi\AppData\Local\Temp\ccDvGSFU.s:11299  .debug_str:00000000000006ed .LASF267
C:\Users\stapi\AppData\Local\Temp\ccDvGSFU.s:11667  .debug_str:0000000000001285 .LASF268
C:\Users\stapi\AppData\Local\Temp\ccDvGSFU.s:11999  .debug_str:0000000000001d32 .LASF269
C:\Users\stapi\AppData\Local\Temp\ccDvGSFU.s:11451  .debug_str:0000000000000b56 .LASF270
C:\Users\stapi\AppData\Local\Temp\ccDvGSFU.s:11055  .debug_str:0000000000000000 .LASF271
C:\Users\stapi\AppData\Local\Temp\ccDvGSFU.s:11057  .debug_str:0000000000000010 .LASF272
C:\Users\stapi\AppData\Local\Temp\ccDvGSFU.s:11985  .debug_str:0000000000001ce7 .LASF273
C:\Users\stapi\AppData\Local\Temp\ccDvGSFU.s:12259  .debug_str:0000000000002555 .LASF274
C:\Users\stapi\AppData\Local\Temp\ccDvGSFU.s:11251  .debug_str:00000000000005a5 .LASF275
C:\Users\stapi\AppData\Local\Temp\ccDvGSFU.s:11423  .debug_str:0000000000000a91 .LASF276
C:\Users\stapi\AppData\Local\Temp\ccDvGSFU.s:11923  .debug_str:0000000000001b30 .LASF277
C:\Users\stapi\AppData\Local\Temp\ccDvGSFU.s:11625  .debug_str:0000000000001134 .LASF278
C:\Users\stapi\AppData\Local\Temp\ccDvGSFU.s:12169  .debug_str:0000000000002290 .LASF279
C:\Users\stapi\AppData\Local\Temp\ccDvGSFU.s:11869  .debug_str:000000000000197f .LASF280
C:\Users\stapi\AppData\Local\Temp\ccDvGSFU.s:12189  .debug_str:0000000000002338 .LASF281
C:\Users\stapi\AppData\Local\Temp\ccDvGSFU.s:11795  .debug_str:0000000000001725 .LASF282
C:\Users\stapi\AppData\Local\Temp\ccDvGSFU.s:11743  .debug_str:0000000000001526 .LASF283
C:\Users\stapi\AppData\Local\Temp\ccDvGSFU.s:11479  .debug_str:0000000000000c22 .LASF284
C:\Users\stapi\AppData\Local\Temp\ccDvGSFU.s:11737  .debug_str:00000000000014f3 .LASF285
C:\Users\stapi\AppData\Local\Temp\ccDvGSFU.s:11889  .debug_str:0000000000001a0c .LASF286
C:\Users\stapi\AppData\Local\Temp\ccDvGSFU.s:12267  .debug_str:0000000000002595 .LASF287
C:\Users\stapi\AppData\Local\Temp\ccDvGSFU.s:11751  .debug_str:000000000000157f .LASF288
C:\Users\stapi\AppData\Local\Temp\ccDvGSFU.s:12257  .debug_str:0000000000002537 .LASF289
C:\Users\stapi\AppData\Local\Temp\ccDvGSFU.s:12023  .debug_str:0000000000001dad .LASF290
C:\Users\stapi\AppData\Local\Temp\ccDvGSFU.s:11691  .debug_str:0000000000001340 .LASF291
C:\Users\stapi\AppData\Local\Temp\ccDvGSFU.s:11535  .debug_str:0000000000000db4 .LASF292
C:\Users\stapi\AppData\Local\Temp\ccDvGSFU.s:11967  .debug_str:0000000000001c35 .LASF293
C:\Users\stapi\AppData\Local\Temp\ccDvGSFU.s:11351  .debug_str:0000000000000870 .LASF294
C:\Users\stapi\AppData\Local\Temp\ccDvGSFU.s:12101  .debug_str:000000000000203d .LASF295
C:\Users\stapi\AppData\Local\Temp\ccDvGSFU.s:12043  .debug_str:0000000000001e63 .LASF296
C:\Users\stapi\AppData\Local\Temp\ccDvGSFU.s:11853  .debug_str:00000000000018f2 .LASF297
C:\Users\stapi\AppData\Local\Temp\ccDvGSFU.s:11229  .debug_str:00000000000004d9 .LASF298
C:\Users\stapi\AppData\Local\Temp\ccDvGSFU.s:11725  .debug_str:0000000000001479 .LASF299
C:\Users\stapi\AppData\Local\Temp\ccDvGSFU.s:11893  .debug_str:0000000000001a38 .LASF300
C:\Users\stapi\AppData\Local\Temp\ccDvGSFU.s:11823  .debug_str:0000000000001811 .LASF301
C:\Users\stapi\AppData\Local\Temp\ccDvGSFU.s:11601  .debug_str:0000000000001071 .LASF302
C:\Users\stapi\AppData\Local\Temp\ccDvGSFU.s:12035  .debug_str:0000000000001e0a .LASF303
C:\Users\stapi\AppData\Local\Temp\ccDvGSFU.s:11237  .debug_str:0000000000000524 .LASF304
C:\Users\stapi\AppData\Local\Temp\ccDvGSFU.s:11117  .debug_str:000000000000017f .LASF305
C:\Users\stapi\AppData\Local\Temp\ccDvGSFU.s:11749  .debug_str:0000000000001555 .LASF306
C:\Users\stapi\AppData\Local\Temp\ccDvGSFU.s:12083  .debug_str:0000000000001fa6 .LASF307
C:\Users\stapi\AppData\Local\Temp\ccDvGSFU.s:12165  .debug_str:000000000000226c .LASF308
C:\Users\stapi\AppData\Local\Temp\ccDvGSFU.s:12141  .debug_str:00000000000021a1 .LASF309
C:\Users\stapi\AppData\Local\Temp\ccDvGSFU.s:11163  .debug_str:00000000000002d8 .LASF310
C:\Users\stapi\AppData\Local\Temp\ccDvGSFU.s:11315  .debug_str:0000000000000778 .LASF311
C:\Users\stapi\AppData\Local\Temp\ccDvGSFU.s:11145  .debug_str:0000000000000257 .LASF312
C:\Users\stapi\AppData\Local\Temp\ccDvGSFU.s:11281  .debug_str:000000000000067a .LASF313
C:\Users\stapi\AppData\Local\Temp\ccDvGSFU.s:11703  .debug_str:00000000000013c7 .LASF314
C:\Users\stapi\AppData\Local\Temp\ccDvGSFU.s:11731  .debug_str:00000000000014be .LASF315
C:\Users\stapi\AppData\Local\Temp\ccDvGSFU.s:11367  .debug_str:000000000000090a .LASF316
C:\Users\stapi\AppData\Local\Temp\ccDvGSFU.s:11369  .debug_str:0000000000000919 .LASF317
C:\Users\stapi\AppData\Local\Temp\ccDvGSFU.s:11075  .debug_str:000000000000006e .LASF318
C:\Users\stapi\AppData\Local\Temp\ccDvGSFU.s:11881  .debug_str:00000000000019cd .LASF319
C:\Users\stapi\AppData\Local\Temp\ccDvGSFU.s:11653  .debug_str:0000000000001207 .LASF320
C:\Users\stapi\AppData\Local\Temp\ccDvGSFU.s:11897  .debug_str:0000000000001a7b .LASF321
C:\Users\stapi\AppData\Local\Temp\ccDvGSFU.s:12039  .debug_str:0000000000001e3d .LASF322
C:\Users\stapi\AppData\Local\Temp\ccDvGSFU.s:11579  .debug_str:0000000000000f04 .LASF323
C:\Users\stapi\AppData\Local\Temp\ccDvGSFU.s:11461  .debug_str:0000000000000bab .LASF324
C:\Users\stapi\AppData\Local\Temp\ccDvGSFU.s:11713  .debug_str:0000000000001428 .LASF325
C:\Users\stapi\AppData\Local\Temp\ccDvGSFU.s:11473  .debug_str:0000000000000bfa .LASF326
C:\Users\stapi\AppData\Local\Temp\ccDvGSFU.s:11939  .debug_str:0000000000001ba6 .LASF327
C:\Users\stapi\AppData\Local\Temp\ccDvGSFU.s:11309  .debug_str:000000000000073e .LASF328
C:\Users\stapi\AppData\Local\Temp\ccDvGSFU.s:12261  .debug_str:000000000000256b .LASF329
C:\Users\stapi\AppData\Local\Temp\ccDvGSFU.s:11157  .debug_str:00000000000002bc .LASF330
C:\Users\stapi\AppData\Local\Temp\ccDvGSFU.s:11317  .debug_str:0000000000000794 .LASF331
C:\Users\stapi\AppData\Local\Temp\ccDvGSFU.s:11791  .debug_str:0000000000001711 .LASF332
C:\Users\stapi\AppData\Local\Temp\ccDvGSFU.s:11193  .debug_str:0000000000000397 .LASF333
C:\Users\stapi\AppData\Local\Temp\ccDvGSFU.s:11131  .debug_str:00000000000001f2 .LASF334
C:\Users\stapi\AppData\Local\Temp\ccDvGSFU.s:12289  .debug_str:000000000000262e .LASF335
C:\Users\stapi\AppData\Local\Temp\ccDvGSFU.s:11801  .debug_str:0000000000001769 .LASF336
C:\Users\stapi\AppData\Local\Temp\ccDvGSFU.s:11851  .debug_str:00000000000018e2 .LASF337
C:\Users\stapi\AppData\Local\Temp\ccDvGSFU.s:11831  .debug_str:0000000000001855 .LASF338
C:\Users\stapi\AppData\Local\Temp\ccDvGSFU.s:12157  .debug_str:0000000000002229 .LASF339
C:\Users\stapi\AppData\Local\Temp\ccDvGSFU.s:11339  .debug_str:0000000000000821 .LASF340
C:\Users\stapi\AppData\Local\Temp\ccDvGSFU.s:11845  .debug_str:00000000000018be .LASF341
C:\Users\stapi\AppData\Local\Temp\ccDvGSFU.s:12145  .debug_str:00000000000021cf .LASF342
C:\Users\stapi\AppData\Local\Temp\ccDvGSFU.s:11883  .debug_str:00000000000019d7 .LASF343
C:\Users\stapi\AppData\Local\Temp\ccDvGSFU.s:11199  .debug_str:00000000000003c5 .LASF344
C:\Users\stapi\AppData\Local\Temp\ccDvGSFU.s:11337  .debug_str:0000000000000806 .LASF345
C:\Users\stapi\AppData\Local\Temp\ccDvGSFU.s:11631  .debug_str:0000000000001167 .LASF346
C:\Users\stapi\AppData\Local\Temp\ccDvGSFU.s:11497  .debug_str:0000000000000cc2 .LASF347
C:\Users\stapi\AppData\Local\Temp\ccDvGSFU.s:11675  .debug_str:00000000000012bc .LASF348
C:\Users\stapi\AppData\Local\Temp\ccDvGSFU.s:11459  .debug_str:0000000000000b96 .LASF349
C:\Users\stapi\AppData\Local\Temp\ccDvGSFU.s:11091  .debug_str:00000000000000cf .LASF350
C:\Users\stapi\AppData\Local\Temp\ccDvGSFU.s:12215  .debug_str:00000000000023f7 .LASF351
C:\Users\stapi\AppData\Local\Temp\ccDvGSFU.s:12313  .debug_str:00000000000026b4 .LASF352
C:\Users\stapi\AppData\Local\Temp\ccDvGSFU.s:11177  .debug_str:0000000000000334 .LASF353
C:\Users\stapi\AppData\Local\Temp\ccDvGSFU.s:11291  .debug_str:00000000000006c2 .LASF354
C:\Users\stapi\AppData\Local\Temp\ccDvGSFU.s:11793  .debug_str:000000000000171a .LASF355
C:\Users\stapi\AppData\Local\Temp\ccDvGSFU.s:11987  .debug_str:0000000000001cf7 .LASF356
C:\Users\stapi\AppData\Local\Temp\ccDvGSFU.s:11283  .debug_str:0000000000000683 .LASF357
C:\Users\stapi\AppData\Local\Temp\ccDvGSFU.s:11077  .debug_str:000000000000007e .LASF358
C:\Users\stapi\AppData\Local\Temp\ccDvGSFU.s:12307  .debug_str:0000000000002688 .LASF359
C:\Users\stapi\AppData\Local\Temp\ccDvGSFU.s:11557  .debug_str:0000000000000e5b .LASF360
C:\Users\stapi\AppData\Local\Temp\ccDvGSFU.s:12185  .debug_str:0000000000002310 .LASF361
C:\Users\stapi\AppData\Local\Temp\ccDvGSFU.s:11501  .debug_str:0000000000000cd5 .LASF362
C:\Users\stapi\AppData\Local\Temp\ccDvGSFU.s:11989  .debug_str:0000000000001d03 .LASF363
C:\Users\stapi\AppData\Local\Temp\ccDvGSFU.s:12295  .debug_str:000000000000264f .LASF364
C:\Users\stapi\AppData\Local\Temp\ccDvGSFU.s:11247  .debug_str:0000000000000583 .LASF365
C:\Users\stapi\AppData\Local\Temp\ccDvGSFU.s:11599  .debug_str:0000000000001060 .LASF366
C:\Users\stapi\AppData\Local\Temp\ccDvGSFU.s:12301  .debug_str:0000000000002662 .LASF367
C:\Users\stapi\AppData\Local\Temp\ccDvGSFU.s:12195  .debug_str:0000000000002364 .LASF368
C:\Users\stapi\AppData\Local\Temp\ccDvGSFU.s:12115  .debug_str:00000000000020be .LASF369
C:\Users\stapi\AppData\Local\Temp\ccDvGSFU.s:11585  .debug_str:0000000000000f23 .LASF370
C:\Users\stapi\AppData\Local\Temp\ccDvGSFU.s:11929  .debug_str:0000000000001b59 .LASF371
C:\Users\stapi\AppData\Local\Temp\ccDvGSFU.s:12239  .debug_str:00000000000024a7 .LASF372
C:\Users\stapi\AppData\Local\Temp\ccDvGSFU.s:12093  .debug_str:0000000000002008 .LASF373
C:\Users\stapi\AppData\Local\Temp\ccDvGSFU.s:12181  .debug_str:00000000000022ee .LASF374
C:\Users\stapi\AppData\Local\Temp\ccDvGSFU.s:11103  .debug_str:000000000000011a .LASF375
C:\Users\stapi\AppData\Local\Temp\ccDvGSFU.s:11405  .debug_str:0000000000000a1a .LASF376
C:\Users\stapi\AppData\Local\Temp\ccDvGSFU.s:12163  .debug_str:000000000000225a .LASF377
C:\Users\stapi\AppData\Local\Temp\ccDvGSFU.s:11133  .debug_str:00000000000001fd .LASF378
C:\Users\stapi\AppData\Local\Temp\ccDvGSFU.s:11697  .debug_str:0000000000001384 .LASF379
C:\Users\stapi\AppData\Local\Temp\ccDvGSFU.s:11363  .debug_str:00000000000008e6 .LASF380
C:\Users\stapi\AppData\Local\Temp\ccDvGSFU.s:12213  .debug_str:00000000000023e1 .LASF381
C:\Users\stapi\AppData\Local\Temp\ccDvGSFU.s:11313  .debug_str:000000000000075f .LASF382
C:\Users\stapi\AppData\Local\Temp\ccDvGSFU.s:11733  .debug_str:00000000000014d0 .LASF383
C:\Users\stapi\AppData\Local\Temp\ccDvGSFU.s:12281  .debug_str:00000000000025f8 .LASF384
C:\Users\stapi\AppData\Local\Temp\ccDvGSFU.s:11355  .debug_str:000000000000089c .LASF385
C:\Users\stapi\AppData\Local\Temp\ccDvGSFU.s:11607  .debug_str:00000000000010ba .LASF386
C:\Users\stapi\AppData\Local\Temp\ccDvGSFU.s:12155  .debug_str:000000000000220f .LASF387
C:\Users\stapi\AppData\Local\Temp\ccDvGSFU.s:11475  .debug_str:0000000000000c00 .LASF388
C:\Users\stapi\AppData\Local\Temp\ccDvGSFU.s:11605  .debug_str:000000000000109f .LASF389
C:\Users\stapi\AppData\Local\Temp\ccDvGSFU.s:11255  .debug_str:00000000000005c8 .LASF390
C:\Users\stapi\AppData\Local\Temp\ccDvGSFU.s:12077  .debug_str:0000000000001f61 .LASF391
C:\Users\stapi\AppData\Local\Temp\ccDvGSFU.s:11107  .debug_str:0000000000000131 .LASF392
C:\Users\stapi\AppData\Local\Temp\ccDvGSFU.s:12133  .debug_str:000000000000215b .LASF393
C:\Users\stapi\AppData\Local\Temp\ccDvGSFU.s:11391  .debug_str:00000000000009a8 .LASF394
C:\Users\stapi\AppData\Local\Temp\ccDvGSFU.s:11895  .debug_str:0000000000001a5d .LASF395
C:\Users\stapi\AppData\Local\Temp\ccDvGSFU.s:11807  .debug_str:000000000000179b .LASF396
C:\Users\stapi\AppData\Local\Temp\ccDvGSFU.s:12069  .debug_str:0000000000001f14 .LASF397
C:\Users\stapi\AppData\Local\Temp\ccDvGSFU.s:11981  .debug_str:0000000000001cba .LASF398
C:\Users\stapi\AppData\Local\Temp\ccDvGSFU.s:11571  .debug_str:0000000000000eb8 .LASF399
C:\Users\stapi\AppData\Local\Temp\ccDvGSFU.s:11115  .debug_str:0000000000000165 .LASF400
C:\Users\stapi\AppData\Local\Temp\ccDvGSFU.s:12211  .debug_str:00000000000023c9 .LASF401
C:\Users\stapi\AppData\Local\Temp\ccDvGSFU.s:11669  .debug_str:0000000000001294 .LASF402
C:\Users\stapi\AppData\Local\Temp\ccDvGSFU.s:11887  .debug_str:00000000000019ef .LASF403
C:\Users\stapi\AppData\Local\Temp\ccDvGSFU.s:11931  .debug_str:0000000000001b71 .LASF404
C:\Users\stapi\AppData\Local\Temp\ccDvGSFU.s:11267  .debug_str:0000000000000612 .LASF405
C:\Users\stapi\AppData\Local\Temp\ccDvGSFU.s:11181  .debug_str:0000000000000352 .LASF406
C:\Users\stapi\AppData\Local\Temp\ccDvGSFU.s:11705  .debug_str:00000000000013d2 .LASF407
C:\Users\stapi\AppData\Local\Temp\ccDvGSFU.s:11427  .debug_str:0000000000000ab2 .LASF408
C:\Users\stapi\AppData\Local\Temp\ccDvGSFU.s:11559  .debug_str:0000000000000e64 .LASF409
C:\Users\stapi\AppData\Local\Temp\ccDvGSFU.s:12111  .debug_str:000000000000209b .LASF410
C:\Users\stapi\AppData\Local\Temp\ccDvGSFU.s:11799  .debug_str:0000000000001750 .LASF411
C:\Users\stapi\AppData\Local\Temp\ccDvGSFU.s:12089  .debug_str:0000000000001fe6 .LASF412
C:\Users\stapi\AppData\Local\Temp\ccDvGSFU.s:11687  .debug_str:0000000000001315 .LASF413
C:\Users\stapi\AppData\Local\Temp\ccDvGSFU.s:11403  .debug_str:0000000000000a05 .LASF414
C:\Users\stapi\AppData\Local\Temp\ccDvGSFU.s:11695  .debug_str:000000000000136c .LASF415
C:\Users\stapi\AppData\Local\Temp\ccDvGSFU.s:11507  .debug_str:0000000000000cfa .LASF416
C:\Users\stapi\AppData\Local\Temp\ccDvGSFU.s:12079  .debug_str:0000000000001f7f .LASF417
C:\Users\stapi\AppData\Local\Temp\ccDvGSFU.s:11385  .debug_str:000000000000097d .LASF418
C:\Users\stapi\AppData\Local\Temp\ccDvGSFU.s:11729  .debug_str:000000000000149f .LASF419
C:\Users\stapi\AppData\Local\Temp\ccDvGSFU.s:11471  .debug_str:0000000000000beb .LASF420
C:\Users\stapi\AppData\Local\Temp\ccDvGSFU.s:11639  .debug_str:00000000000011a9 .LASF421
C:\Users\stapi\AppData\Local\Temp\ccDvGSFU.s:11449  .debug_str:0000000000000b48 .LASF422
C:\Users\stapi\AppData\Local\Temp\ccDvGSFU.s:12319  .debug_str:00000000000026e7 .LASF423
C:\Users\stapi\AppData\Local\Temp\ccDvGSFU.s:11421  .debug_str:0000000000000a83 .LASF424
C:\Users\stapi\AppData\Local\Temp\ccDvGSFU.s:11537  .debug_str:0000000000000dd3 .LASF425
C:\Users\stapi\AppData\Local\Temp\ccDvGSFU.s:11809  .debug_str:00000000000017c2 .LASF426
C:\Users\stapi\AppData\Local\Temp\ccDvGSFU.s:12251  .debug_str:00000000000024ff .LASF427
C:\Users\stapi\AppData\Local\Temp\ccDvGSFU.s:11833  .debug_str:0000000000001869 .LASF428
C:\Users\stapi\AppData\Local\Temp\ccDvGSFU.s:11465  .debug_str:0000000000000bc1 .LASF429
C:\Users\stapi\AppData\Local\Temp\ccDvGSFU.s:11911  .debug_str:0000000000001acd .LASF430
C:\Users\stapi\AppData\Local\Temp\ccDvGSFU.s:11287  .debug_str:000000000000069d .LASF431
C:\Users\stapi\AppData\Local\Temp\ccDvGSFU.s:11127  .debug_str:00000000000001d0 .LASF432
C:\Users\stapi\AppData\Local\Temp\ccDvGSFU.s:11617  .debug_str:00000000000010f9 .LASF433
C:\Users\stapi\AppData\Local\Temp\ccDvGSFU.s:11769  .debug_str:0000000000001618 .LASF434
C:\Users\stapi\AppData\Local\Temp\ccDvGSFU.s:12037  .debug_str:0000000000001e29 .LASF435
C:\Users\stapi\AppData\Local\Temp\ccDvGSFU.s:11301  .debug_str:00000000000006fc .LASF436
C:\Users\stapi\AppData\Local\Temp\ccDvGSFU.s:11485  .debug_str:0000000000000c5c .LASF437
C:\Users\stapi\AppData\Local\Temp\ccDvGSFU.s:11659  .debug_str:0000000000001240 .LASF438
C:\Users\stapi\AppData\Local\Temp\ccDvGSFU.s:11865  .debug_str:000000000000195b .LASF439
C:\Users\stapi\AppData\Local\Temp\ccDvGSFU.s:11711  .debug_str:0000000000001404 .LASF440
C:\Users\stapi\AppData\Local\Temp\ccDvGSFU.s:11397  .debug_str:00000000000009e0 .LASF441
C:\Users\stapi\AppData\Local\Temp\ccDvGSFU.s:11277  .debug_str:0000000000000657 .LASF442
C:\Users\stapi\AppData\Local\Temp\ccDvGSFU.s:11289  .debug_str:00000000000006ad .LASF443
C:\Users\stapi\AppData\Local\Temp\ccDvGSFU.s:12113  .debug_str:00000000000020b2 .LASF444
C:\Users\stapi\AppData\Local\Temp\ccDvGSFU.s:11567  .debug_str:0000000000000e9c .LASF445
C:\Users\stapi\AppData\Local\Temp\ccDvGSFU.s:11377  .debug_str:0000000000000954 .LASF446
C:\Users\stapi\AppData\Local\Temp\ccDvGSFU.s:11139  .debug_str:0000000000000232 .LASF447
C:\Users\stapi\AppData\Local\Temp\ccDvGSFU.s:12207  .debug_str:00000000000023a9 .LASF448
C:\Users\stapi\AppData\Local\Temp\ccDvGSFU.s:11083  .debug_str:00000000000000a3 .LASF449
C:\Users\stapi\AppData\Local\Temp\ccDvGSFU.s:11463  .debug_str:0000000000000bb3 .LASF450
C:\Users\stapi\AppData\Local\Temp\ccDvGSFU.s:11167  .debug_str:00000000000002ff .LASF451
C:\Users\stapi\AppData\Local\Temp\ccDvGSFU.s:11415  .debug_str:0000000000000a5b .LASF452
C:\Users\stapi\AppData\Local\Temp\ccDvGSFU.s:11371  .debug_str:0000000000000928 .LASF453
C:\Users\stapi\AppData\Local\Temp\ccDvGSFU.s:11767  .debug_str:000000000000160b .LASF454
C:\Users\stapi\AppData\Local\Temp\ccDvGSFU.s:11129  .debug_str:00000000000001e3 .LASF455
C:\Users\stapi\AppData\Local\Temp\ccDvGSFU.s:11197  .debug_str:00000000000003b4 .LASF456
C:\Users\stapi\AppData\Local\Temp\ccDvGSFU.s:11975  .debug_str:0000000000001c87 .LASF457
C:\Users\stapi\AppData\Local\Temp\ccDvGSFU.s:12245  .debug_str:00000000000024e2 .LASF458
C:\Users\stapi\AppData\Local\Temp\ccDvGSFU.s:11263  .debug_str:00000000000005fb .LASF459
C:\Users\stapi\AppData\Local\Temp\ccDvGSFU.s:11741  .debug_str:0000000000001516 .LASF460
C:\Users\stapi\AppData\Local\Temp\ccDvGSFU.s:11273  .debug_str:000000000000063b .LASF461
C:\Users\stapi\AppData\Local\Temp\ccDvGSFU.s:11529  .debug_str:0000000000000d91 .LASF462
C:\Users\stapi\AppData\Local\Temp\ccDvGSFU.s:12243  .debug_str:00000000000024d2 .LASF463
C:\Users\stapi\AppData\Local\Temp\ccDvGSFU.s:11771  .debug_str:0000000000001630 .LASF464
C:\Users\stapi\AppData\Local\Temp\ccDvGSFU.s:11855  .debug_str:0000000000001917 .LASF465
C:\Users\stapi\AppData\Local\Temp\ccDvGSFU.s:12279  .debug_str:00000000000025e9 .LASF466
C:\Users\stapi\AppData\Local\Temp\ccDvGSFU.s:12275  .debug_str:00000000000025c9 .LASF467
C:\Users\stapi\AppData\Local\Temp\ccDvGSFU.s:12233  .debug_str:000000000000247f .LASF468
C:\Users\stapi\AppData\Local\Temp\ccDvGSFU.s:11493  .debug_str:0000000000000c9a .LASF469
C:\Users\stapi\AppData\Local\Temp\ccDvGSFU.s:11311  .debug_str:0000000000000749 .LASF470
C:\Users\stapi\AppData\Local\Temp\ccDvGSFU.s:12123  .debug_str:00000000000020f8 .LASF471
C:\Users\stapi\AppData\Local\Temp\ccDvGSFU.s:12143  .debug_str:00000000000021ba .LASF472
C:\Users\stapi\AppData\Local\Temp\ccDvGSFU.s:12253  .debug_str:000000000000250e .LASF473
C:\Users\stapi\AppData\Local\Temp\ccDvGSFU.s:11241  .debug_str:0000000000000554 .LASF474
C:\Users\stapi\AppData\Local\Temp\ccDvGSFU.s:12105  .debug_str:000000000000206c .LASF475
C:\Users\stapi\AppData\Local\Temp\ccDvGSFU.s:11545  .debug_str:0000000000000e09 .LASF476
C:\Users\stapi\AppData\Local\Temp\ccDvGSFU.s:11517  .debug_str:0000000000000d4d .LASF477
C:\Users\stapi\AppData\Local\Temp\ccDvGSFU.s:11909  .debug_str:0000000000001ac7 .LASF478
C:\Users\stapi\AppData\Local\Temp\ccDvGSFU.s:11285  .debug_str:000000000000068f .LASF479
C:\Users\stapi\AppData\Local\Temp\ccDvGSFU.s:11093  .debug_str:00000000000000e6 .LASF480
C:\Users\stapi\AppData\Local\Temp\ccDvGSFU.s:11587  .debug_str:0000000000000f28 .LASF481
C:\Users\stapi\AppData\Local\Temp\ccDvGSFU.s:12095  .debug_str:0000000000002019 .LASF482
C:\Users\stapi\AppData\Local\Temp\ccDvGSFU.s:11963  .debug_str:0000000000001c1b .LASF483
C:\Users\stapi\AppData\Local\Temp\ccDvGSFU.s:11627  .debug_str:000000000000114c .LASF484
C:\Users\stapi\AppData\Local\Temp\ccDvGSFU.s:11205  .debug_str:0000000000000459 .LASF485
C:\Users\stapi\AppData\Local\Temp\ccDvGSFU.s:11755  .debug_str:00000000000015c0 .LASF486
C:\Users\stapi\AppData\Local\Temp\ccDvGSFU.s:11891  .debug_str:0000000000001a28 .LASF487
C:\Users\stapi\AppData\Local\Temp\ccDvGSFU.s:11879  .debug_str:00000000000019c7 .LASF488
C:\Users\stapi\AppData\Local\Temp\ccDvGSFU.s:11349  .debug_str:0000000000000861 .LASF489
C:\Users\stapi\AppData\Local\Temp\ccDvGSFU.s:11721  .debug_str:0000000000001462 .LASF490
C:\Users\stapi\AppData\Local\Temp\ccDvGSFU.s:12177  .debug_str:00000000000022c8 .LASF491
C:\Users\stapi\AppData\Local\Temp\ccDvGSFU.s:11069  .debug_str:0000000000000056 .LASF492
C:\Users\stapi\AppData\Local\Temp\ccDvGSFU.s:11413  .debug_str:0000000000000a4f .LASF493
C:\Users\stapi\AppData\Local\Temp\ccDvGSFU.s:11575  .debug_str:0000000000000ee6 .LASF494
C:\Users\stapi\AppData\Local\Temp\ccDvGSFU.s:12309  .debug_str:000000000000269e .LASF495
C:\Users\stapi\AppData\Local\Temp\ccDvGSFU.s:12071  .debug_str:0000000000001f32 .LASF496
C:\Users\stapi\AppData\Local\Temp\ccDvGSFU.s:12061  .debug_str:0000000000001ee9 .LASF497
C:\Users\stapi\AppData\Local\Temp\ccDvGSFU.s:11271  .debug_str:0000000000000634 .LASF498
C:\Users\stapi\AppData\Local\Temp\ccDvGSFU.s:11211  .debug_str:0000000000000477 .LASF499
C:\Users\stapi\AppData\Local\Temp\ccDvGSFU.s:11153  .debug_str:00000000000002a2 .LASF500
C:\Users\stapi\AppData\Local\Temp\ccDvGSFU.s:11739  .debug_str:000000000000150e .LASF501
C:\Users\stapi\AppData\Local\Temp\ccDvGSFU.s:11359  .debug_str:00000000000008d1 .LASF502
C:\Users\stapi\AppData\Local\Temp\ccDvGSFU.s:12021  .debug_str:0000000000001d9c .LASF503
C:\Users\stapi\AppData\Local\Temp\ccDvGSFU.s:12149  .debug_str:00000000000021ef .LASF504
C:\Users\stapi\AppData\Local\Temp\ccDvGSFU.s:11097  .debug_str:00000000000000fa .LASF505
C:\Users\stapi\AppData\Local\Temp\ccDvGSFU.s:11857  .debug_str:0000000000001927 .LASF506
C:\Users\stapi\AppData\Local\Temp\ccDvGSFU.s:11095  .debug_str:00000000000000eb .LASF507
C:\Users\stapi\AppData\Local\Temp\ccDvGSFU.s:11165  .debug_str:00000000000002f1 .LASF508
C:\Users\stapi\AppData\Local\Temp\ccDvGSFU.s:11159  .debug_str:00000000000002c3 .LASF509
C:\Users\stapi\AppData\Local\Temp\ccDvGSFU.s:12269  .debug_str:00000000000025b4 .LASF510
C:\Users\stapi\AppData\Local\Temp\ccDvGSFU.s:11455  .debug_str:0000000000000b6f .LASF511
C:\Users\stapi\AppData\Local\Temp\ccDvGSFU.s:12263  .debug_str:0000000000002577 .LASF512
C:\Users\stapi\AppData\Local\Temp\ccDvGSFU.s:12209  .debug_str:00000000000023b2 .LASF513
C:\Users\stapi\AppData\Local\Temp\ccDvGSFU.s:12135  .debug_str:0000000000002178 .LASF514
C:\Users\stapi\AppData\Local\Temp\ccDvGSFU.s:11841  .debug_str:00000000000018ad .LASF515
C:\Users\stapi\AppData\Local\Temp\ccDvGSFU.s:12027  .debug_str:0000000000001ddb .LASF516
C:\Users\stapi\AppData\Local\Temp\ccDvGSFU.s:12183  .debug_str:0000000000002304 .LASF517
C:\Users\stapi\AppData\Local\Temp\ccDvGSFU.s:11951  .debug_str:0000000000001bd9 .LASF518
C:\Users\stapi\AppData\Local\Temp\ccDvGSFU.s:11717  .debug_str:0000000000001440 .LASF519
C:\Users\stapi\AppData\Local\Temp\ccDvGSFU.s:11433  .debug_str:0000000000000aea .LASF520
C:\Users\stapi\AppData\Local\Temp\ccDvGSFU.s:12001  .debug_str:0000000000001d40 .LASF521
C:\Users\stapi\AppData\Local\Temp\ccDvGSFU.s:12011  .debug_str:0000000000001d6e .LASF522
C:\Users\stapi\AppData\Local\Temp\ccDvGSFU.s:11325  .debug_str:00000000000007c6 .LASF523
C:\Users\stapi\AppData\Local\Temp\ccDvGSFU.s:11137  .debug_str:0000000000000227 .LASF524
C:\Users\stapi\AppData\Local\Temp\ccDvGSFU.s:11437  .debug_str:0000000000000afb .LASF525
C:\Users\stapi\AppData\Local\Temp\ccDvGSFU.s:11249  .debug_str:0000000000000599 .LASF526
C:\Users\stapi\AppData\Local\Temp\ccDvGSFU.s:11525  .debug_str:0000000000000d7b .LASF527
C:\Users\stapi\AppData\Local\Temp\ccDvGSFU.s:12005  .debug_str:0000000000001d53 .LASF528
C:\Users\stapi\AppData\Local\Temp\ccDvGSFU.s:11681  .debug_str:00000000000012f8 .LASF529
C:\Users\stapi\AppData\Local\Temp\ccDvGSFU.s:11859  .debug_str:000000000000193a .LASF530
C:\Users\stapi\AppData\Local\Temp\ccDvGSFU.s:11531  .debug_str:0000000000000da3 .LASF531
C:\Users\stapi\AppData\Local\Temp\ccDvGSFU.s:11797  .debug_str:0000000000001740 .LASF532
C:\Users\stapi\AppData\Local\Temp\ccDvGSFU.s:11539  .debug_str:0000000000000de3 .LASF533
C:\Users\stapi\AppData\Local\Temp\ccDvGSFU.s:12227  .debug_str:000000000000245c .LASF534
C:\Users\stapi\AppData\Local\Temp\ccDvGSFU.s:11447  .debug_str:0000000000000b42 .LASF535
C:\Users\stapi\AppData\Local\Temp\ccDvGSFU.s:12055  .debug_str:0000000000001ecc .LASF536
C:\Users\stapi\AppData\Local\Temp\ccDvGSFU.s:11297  .debug_str:00000000000006e8 .LASF537
C:\Users\stapi\AppData\Local\Temp\ccDvGSFU.s:11533  .debug_str:0000000000000dac .LASF538
C:\Users\stapi\AppData\Local\Temp\ccDvGSFU.s:12271  .debug_str:00000000000025be .LASF539
C:\Users\stapi\AppData\Local\Temp\ccDvGSFU.s:11469  .debug_str:0000000000000be4 .LASF540
C:\Users\stapi\AppData\Local\Temp\ccDvGSFU.s:11825  .debug_str:0000000000001833 .LASF541
C:\Users\stapi\AppData\Local\Temp\ccDvGSFU.s:12007  .debug_str:0000000000001d61 .LASF542
C:\Users\stapi\AppData\Local\Temp\ccDvGSFU.s:11873  .debug_str:00000000000019a0 .LASF543
C:\Users\stapi\AppData\Local\Temp\ccDvGSFU.s:11113  .debug_str:0000000000000157 .LASF544
C:\Users\stapi\AppData\Local\Temp\ccDvGSFU.s:11805  .debug_str:0000000000001787 .LASF545
C:\Users\stapi\AppData\Local\Temp\ccDvGSFU.s:11515  .debug_str:0000000000000d3a .LASF546
C:\Users\stapi\AppData\Local\Temp\ccDvGSFU.s:11759  .debug_str:00000000000015cb .LASF547
C:\Users\stapi\AppData\Local\Temp\ccDvGSFU.s:11307  .debug_str:000000000000072c .LASF548
C:\Users\stapi\AppData\Local\Temp\ccDvGSFU.s:11321  .debug_str:00000000000007ab .LASF549
C:\Users\stapi\AppData\Local\Temp\ccDvGSFU.s:11997  .debug_str:0000000000001d2a .LASF551
C:\Users\stapi\AppData\Local\Temp\ccDvGSFU.s:11905  .debug_str:0000000000001aab .LASF550
C:\Users\stapi\AppData\Local\Temp\ccDvGSFU.s:11411  .debug_str:0000000000000a3f .LASF552
C:\Users\stapi\AppData\Local\Temp\ccDvGSFU.s:11709  .debug_str:00000000000013f2 .LASF581
C:\Users\stapi\AppData\Local\Temp\ccDvGSFU.s:1370   .text.coap_socket_close:0000000000000000 .LFB45
C:\Users\stapi\AppData\Local\Temp\ccDvGSFU.s:1413   .text.coap_socket_close:0000000000000040 .LFE45
C:\Users\stapi\AppData\Local\Temp\ccDvGSFU.s:9879   .debug_loc:0000000000000000 .LLST66
C:\Users\stapi\AppData\Local\Temp\ccDvGSFU.s:1392   .text.coap_socket_close:000000000000001e .LVL163
C:\Users\stapi\AppData\Local\Temp\ccDvGSFU.s:1396   .text.coap_socket_close:0000000000000028 .LVL164
C:\Users\stapi\AppData\Local\Temp\ccDvGSFU.s:1400   .text.coap_socket_close:0000000000000034 .LVL165
C:\Users\stapi\AppData\Local\Temp\ccDvGSFU.s:12127  .debug_str:0000000000002132 .LASF631
C:\Users\stapi\AppData\Local\Temp\ccDvGSFU.s:11223  .debug_str:00000000000004b3 .LASF553
C:\Users\stapi\AppData\Local\Temp\ccDvGSFU.s:11401  .debug_str:00000000000009f3 .LASF632
C:\Users\stapi\AppData\Local\Temp\ccDvGSFU.s:11357  .debug_str:00000000000008b9 .LASF562
C:\Users\stapi\AppData\Local\Temp\ccDvGSFU.s:1213   .text.coap_socket_connect_udp:0000000000000000 .LFB42
C:\Users\stapi\AppData\Local\Temp\ccDvGSFU.s:1331   .text.coap_socket_connect_udp:000000000000009e .LFE42
C:\Users\stapi\AppData\Local\Temp\ccDvGSFU.s:9890   .debug_loc:000000000000001e .LLST57
C:\Users\stapi\AppData\Local\Temp\ccDvGSFU.s:11991  .debug_str:0000000000001d0b .LASF554
C:\Users\stapi\AppData\Local\Temp\ccDvGSFU.s:9901   .debug_loc:000000000000003c .LLST58
C:\Users\stapi\AppData\Local\Temp\ccDvGSFU.s:11327  .debug_str:00000000000007d0 .LASF555
C:\Users\stapi\AppData\Local\Temp\ccDvGSFU.s:9915   .debug_loc:000000000000005d .LLST59
C:\Users\stapi\AppData\Local\Temp\ccDvGSFU.s:11245  .debug_str:0000000000000576 .LASF556
C:\Users\stapi\AppData\Local\Temp\ccDvGSFU.s:9926   .debug_loc:000000000000007b .LLST60
C:\Users\stapi\AppData\Local\Temp\ccDvGSFU.s:11121  .debug_str:00000000000001ae .LASF557
C:\Users\stapi\AppData\Local\Temp\ccDvGSFU.s:9940   .debug_loc:000000000000009c .LLST61
C:\Users\stapi\AppData\Local\Temp\ccDvGSFU.s:11611  .debug_str:00000000000010db .LASF558
C:\Users\stapi\AppData\Local\Temp\ccDvGSFU.s:9954   .debug_loc:00000000000000bd .LLST62
C:\Users\stapi\AppData\Local\Temp\ccDvGSFU.s:9968   .debug_loc:00000000000000de .LLST63
C:\Users\stapi\AppData\Local\Temp\ccDvGSFU.s:9983   .debug_loc:0000000000000107 .LLST64
C:\Users\stapi\AppData\Local\Temp\ccDvGSFU.s:11629  .debug_str:000000000000115c .LASF559
C:\Users\stapi\AppData\Local\Temp\ccDvGSFU.s:11573  .debug_str:0000000000000ed7 .LASF560
C:\Users\stapi\AppData\Local\Temp\ccDvGSFU.s:1314   .text.coap_socket_connect_udp:0000000000000084 .LDL1
C:\Users\stapi\AppData\Local\Temp\ccDvGSFU.s:11279  .debug_str:000000000000066b .LASF561
C:\Users\stapi\AppData\Local\Temp\ccDvGSFU.s:1315   .text.coap_socket_connect_udp:0000000000000084 .LDL2
C:\Users\stapi\AppData\Local\Temp\ccDvGSFU.s:1242   .text.coap_socket_connect_udp:000000000000001c .LVL146
C:\Users\stapi\AppData\Local\Temp\ccDvGSFU.s:1246   .text.coap_socket_connect_udp:0000000000000024 .LVL147
C:\Users\stapi\AppData\Local\Temp\ccDvGSFU.s:1258   .text.coap_socket_connect_udp:0000000000000038 .LVL148
C:\Users\stapi\AppData\Local\Temp\ccDvGSFU.s:1276   .text.coap_socket_connect_udp:0000000000000056 .LVL150
C:\Users\stapi\AppData\Local\Temp\ccDvGSFU.s:1291   .text.coap_socket_connect_udp:000000000000006e .LVL152
C:\Users\stapi\AppData\Local\Temp\ccDvGSFU.s:1295   .text.coap_socket_connect_udp:000000000000007a .LVL153
C:\Users\stapi\AppData\Local\Temp\ccDvGSFU.s:1320   .text.coap_socket_connect_udp:000000000000008e .LVL157
C:\Users\stapi\AppData\Local\Temp\ccDvGSFU.s:1325   .text.coap_socket_connect_udp:000000000000009a .LVL158
C:\Users\stapi\AppData\Local\Temp\ccDvGSFU.s:11429  .debug_str:0000000000000ac2 .LASF563
C:\Users\stapi\AppData\Local\Temp\ccDvGSFU.s:1114   .text.coap_socket_bind_udp:0000000000000000 .LFB41
C:\Users\stapi\AppData\Local\Temp\ccDvGSFU.s:1206   .text.coap_socket_bind_udp:0000000000000078 .LFE41
C:\Users\stapi\AppData\Local\Temp\ccDvGSFU.s:9998   .debug_loc:0000000000000130 .LLST53
C:\Users\stapi\AppData\Local\Temp\ccDvGSFU.s:11253  .debug_str:00000000000005bc .LASF564
C:\Users\stapi\AppData\Local\Temp\ccDvGSFU.s:10009  .debug_loc:000000000000014e .LLST54
C:\Users\stapi\AppData\Local\Temp\ccDvGSFU.s:11487  .debug_str:0000000000000c70 .LASF565
C:\Users\stapi\AppData\Local\Temp\ccDvGSFU.s:10023  .debug_loc:000000000000016f .LLST55
C:\Users\stapi\AppData\Local\Temp\ccDvGSFU.s:10034  .debug_loc:000000000000018d .LLST56
C:\Users\stapi\AppData\Local\Temp\ccDvGSFU.s:11067  .debug_str:000000000000004d .LASF566
C:\Users\stapi\AppData\Local\Temp\ccDvGSFU.s:1146   .text.coap_socket_bind_udp:0000000000000022 .LVL138
C:\Users\stapi\AppData\Local\Temp\ccDvGSFU.s:1157   .text.coap_socket_bind_udp:0000000000000038 .LVL139
C:\Users\stapi\AppData\Local\Temp\ccDvGSFU.s:1164   .text.coap_socket_bind_udp:0000000000000048 .LVL140
C:\Users\stapi\AppData\Local\Temp\ccDvGSFU.s:1173   .text.coap_socket_bind_udp:0000000000000056 .LVL142
C:\Users\stapi\AppData\Local\Temp\ccDvGSFU.s:12025  .debug_str:0000000000001dca .LASF567
C:\Users\stapi\AppData\Local\Temp\ccDvGSFU.s:1009   .text.coap_socket_send:0000000000000000 .LFB40
C:\Users\stapi\AppData\Local\Temp\ccDvGSFU.s:1107   .text.coap_socket_send:0000000000000092 .LFE40
C:\Users\stapi\AppData\Local\Temp\ccDvGSFU.s:10041  .debug_loc:00000000000001a0 .LLST49
C:\Users\stapi\AppData\Local\Temp\ccDvGSFU.s:10052  .debug_loc:00000000000001be .LLST50
C:\Users\stapi\AppData\Local\Temp\ccDvGSFU.s:10092  .debug_loc:000000000000021c .LLST51
C:\Users\stapi\AppData\Local\Temp\ccDvGSFU.s:10132  .debug_loc:000000000000027a .LLST52
C:\Users\stapi\AppData\Local\Temp\ccDvGSFU.s:1031   .text.coap_socket_send:0000000000000018 .LVL122
C:\Users\stapi\AppData\Local\Temp\ccDvGSFU.s:1059   .text.coap_socket_send:0000000000000038 .LVL125
C:\Users\stapi\AppData\Local\Temp\ccDvGSFU.s:1077   .text.coap_socket_send:000000000000004e .LVL129
C:\Users\stapi\AppData\Local\Temp\ccDvGSFU.s:1083   .text.coap_socket_send:000000000000005e .LVL131
C:\Users\stapi\AppData\Local\Temp\ccDvGSFU.s:1091   .text.coap_socket_send:0000000000000074 .LVL132
C:\Users\stapi\AppData\Local\Temp\ccDvGSFU.s:1097   .text.coap_socket_send:0000000000000082 .LVL134
C:\Users\stapi\AppData\Local\Temp\ccDvGSFU.s:1101   .text.coap_socket_send:000000000000008c .LVL135
C:\Users\stapi\AppData\Local\Temp\ccDvGSFU.s:11699  .debug_str:000000000000139e .LASF568
C:\Users\stapi\AppData\Local\Temp\ccDvGSFU.s:902    .text.coap_socket_send_pdu:0000000000000000 .LFB39
C:\Users\stapi\AppData\Local\Temp\ccDvGSFU.s:1002   .text.coap_socket_send_pdu:000000000000008e .LFE39
C:\Users\stapi\AppData\Local\Temp\ccDvGSFU.s:10143  .debug_loc:0000000000000298 .LLST46
C:\Users\stapi\AppData\Local\Temp\ccDvGSFU.s:10154  .debug_loc:00000000000002b6 .LLST47
C:\Users\stapi\AppData\Local\Temp\ccDvGSFU.s:10194  .debug_loc:0000000000000314 .LLST48
C:\Users\stapi\AppData\Local\Temp\ccDvGSFU.s:932    .text.coap_socket_send_pdu:0000000000000026 .LVL109
C:\Users\stapi\AppData\Local\Temp\ccDvGSFU.s:938    .text.coap_socket_send_pdu:0000000000000038 .LVL110
C:\Users\stapi\AppData\Local\Temp\ccDvGSFU.s:942    .text.coap_socket_send_pdu:0000000000000040 .LVL111
C:\Users\stapi\AppData\Local\Temp\ccDvGSFU.s:970    .text.coap_socket_send_pdu:000000000000005e .LVL114
C:\Users\stapi\AppData\Local\Temp\ccDvGSFU.s:990    .text.coap_socket_send_pdu:000000000000007c .LVL118
C:\Users\stapi\AppData\Local\Temp\ccDvGSFU.s:996    .text.coap_socket_send_pdu:0000000000000088 .LVL120
C:\Users\stapi\AppData\Local\Temp\ccDvGSFU.s:11861  .debug_str:000000000000193f .LASF572
C:\Users\stapi\AppData\Local\Temp\ccDvGSFU.s:11499  .debug_str:0000000000000cd0 .LASF569
C:\Users\stapi\AppData\Local\Temp\ccDvGSFU.s:11651  .debug_str:0000000000001200 .LASF570
C:\Users\stapi\AppData\Local\Temp\ccDvGSFU.s:11243  .debug_str:000000000000056f .LASF571
C:\Users\stapi\AppData\Local\Temp\ccDvGSFU.s:11295  .debug_str:00000000000006e2 .LASF575
C:\Users\stapi\AppData\Local\Temp\ccDvGSFU.s:11863  .debug_str:000000000000194a .LASF573
C:\Users\stapi\AppData\Local\Temp\ccDvGSFU.s:11847  .debug_str:00000000000018c6 .LASF574
C:\Users\stapi\AppData\Local\Temp\ccDvGSFU.s:11123  .debug_str:00000000000001b9 .LASF577
C:\Users\stapi\AppData\Local\Temp\ccDvGSFU.s:12221  .debug_str:0000000000002428 .LASF576
C:\Users\stapi\AppData\Local\Temp\ccDvGSFU.s:873    .text.coap_socket_recv:0000000000000000 .LFB35
C:\Users\stapi\AppData\Local\Temp\ccDvGSFU.s:895    .text.coap_socket_recv:000000000000002c .LFE35
C:\Users\stapi\AppData\Local\Temp\ccDvGSFU.s:10205  .debug_loc:0000000000000332 .LLST44
C:\Users\stapi\AppData\Local\Temp\ccDvGSFU.s:10219  .debug_loc:0000000000000353 .LLST45
C:\Users\stapi\AppData\Local\Temp\ccDvGSFU.s:893    .text.coap_socket_recv:000000000000002c .LVL105
C:\Users\stapi\AppData\Local\Temp\ccDvGSFU.s:11345  .debug_str:0000000000000843 .LASF578
C:\Users\stapi\AppData\Local\Temp\ccDvGSFU.s:703    .text.coap_io_process:0000000000000000 .LFB34
C:\Users\stapi\AppData\Local\Temp\ccDvGSFU.s:862    .text.coap_io_process:00000000000000da .LFE34
C:\Users\stapi\AppData\Local\Temp\ccDvGSFU.s:10233  .debug_loc:0000000000000374 .LLST39
C:\Users\stapi\AppData\Local\Temp\ccDvGSFU.s:11673  .debug_str:00000000000012b1 .LASF579
C:\Users\stapi\AppData\Local\Temp\ccDvGSFU.s:10244  .debug_loc:0000000000000392 .LLST40
C:\Users\stapi\AppData\Local\Temp\ccDvGSFU.s:11173  .debug_str:0000000000000320 .LASF580
C:\Users\stapi\AppData\Local\Temp\ccDvGSFU.s:10268  .debug_loc:00000000000003cb .LLST41
C:\Users\stapi\AppData\Local\Temp\ccDvGSFU.s:721    .text.coap_io_process:0000000000000008 .LBB42
C:\Users\stapi\AppData\Local\Temp\ccDvGSFU.s:10283  .debug_loc:00000000000003f4 .LLST42
C:\Users\stapi\AppData\Local\Temp\ccDvGSFU.s:736    .text.coap_io_process:0000000000000016 .LVL85
C:\Users\stapi\AppData\Local\Temp\ccDvGSFU.s:834    .text.coap_io_process:00000000000000b8 .LBB48
C:\Users\stapi\AppData\Local\Temp\ccDvGSFU.s:841    .text.coap_io_process:00000000000000c0 .LBE48
C:\Users\stapi\AppData\Local\Temp\ccDvGSFU.s:10292  .debug_loc:000000000000040c .LLST43
C:\Users\stapi\AppData\Local\Temp\ccDvGSFU.s:839    .text.coap_io_process:00000000000000c0 .LVL101
C:\Users\stapi\AppData\Local\Temp\ccDvGSFU.s:756    .text.coap_io_process:000000000000002a .LVL88
C:\Users\stapi\AppData\Local\Temp\ccDvGSFU.s:775    .text.coap_io_process:000000000000004a .LVL92
C:\Users\stapi\AppData\Local\Temp\ccDvGSFU.s:785    .text.coap_io_process:0000000000000062 .LVL93
C:\Users\stapi\AppData\Local\Temp\ccDvGSFU.s:802    .text.coap_io_process:000000000000007c .LVL95
C:\Users\stapi\AppData\Local\Temp\ccDvGSFU.s:810    .text.coap_io_process:000000000000008e .LVL96
C:\Users\stapi\AppData\Local\Temp\ccDvGSFU.s:820    .text.coap_io_process:0000000000000098 .LVL97
C:\Users\stapi\AppData\Local\Temp\ccDvGSFU.s:825    .text.coap_io_process:00000000000000a4 .LVL98
C:\Users\stapi\AppData\Local\Temp\ccDvGSFU.s:828    .text.coap_io_process:00000000000000ac .LVL99
C:\Users\stapi\AppData\Local\Temp\ccDvGSFU.s:832    .text.coap_io_process:00000000000000b8 .LVL100
C:\Users\stapi\AppData\Local\Temp\ccDvGSFU.s:11973  .debug_str:0000000000001c6f .LASF582
C:\Users\stapi\AppData\Local\Temp\ccDvGSFU.s:14     .text.coap_io_process_timeout:0000000000000000 .LFB33
C:\Users\stapi\AppData\Local\Temp\ccDvGSFU.s:101    .text.coap_io_process_timeout:000000000000006a .LFE33
C:\Users\stapi\AppData\Local\Temp\ccDvGSFU.s:10301  .debug_loc:0000000000000424 .LLST0
C:\Users\stapi\AppData\Local\Temp\ccDvGSFU.s:10312  .debug_loc:0000000000000442 .LLST1
C:\Users\stapi\AppData\Local\Temp\ccDvGSFU.s:10323  .debug_loc:0000000000000460 .LLST2
C:\Users\stapi\AppData\Local\Temp\ccDvGSFU.s:36     .text.coap_io_process_timeout:000000000000000c .LBB4
C:\Users\stapi\AppData\Local\Temp\ccDvGSFU.s:46     .text.coap_io_process_timeout:0000000000000016 .LBE4
C:\Users\stapi\AppData\Local\Temp\ccDvGSFU.s:10334  .debug_loc:000000000000047e .LLST3
C:\Users\stapi\AppData\Local\Temp\ccDvGSFU.s:42     .text.coap_io_process_timeout:0000000000000014 .LVL2
C:\Users\stapi\AppData\Local\Temp\ccDvGSFU.s:55     .text.coap_io_process_timeout:0000000000000026 .LVL5
C:\Users\stapi\AppData\Local\Temp\ccDvGSFU.s:69     .text.coap_io_process_timeout:0000000000000040 .LVL7
C:\Users\stapi\AppData\Local\Temp\ccDvGSFU.s:86     .text.coap_io_process_timeout:000000000000005a .LVL9
C:\Users\stapi\AppData\Local\Temp\ccDvGSFU.s:11753  .debug_str:000000000000159f .LASF583
C:\Users\stapi\AppData\Local\Temp\ccDvGSFU.s:683    .text.coap_lwip_set_input_wait_handler:0000000000000000 .LFB32
C:\Users\stapi\AppData\Local\Temp\ccDvGSFU.s:696    .text.coap_lwip_set_input_wait_handler:0000000000000006 .LFE32
C:\Users\stapi\AppData\Local\Temp\ccDvGSFU.s:11677  .debug_str:00000000000012d1 .LASF584
C:\Users\stapi\AppData\Local\Temp\ccDvGSFU.s:669    .text.coap_lwip_dump_memory_pools:0000000000000000 .LFB31
C:\Users\stapi\AppData\Local\Temp\ccDvGSFU.s:676    .text.coap_lwip_dump_memory_pools:0000000000000002 .LFE31
C:\Users\stapi\AppData\Local\Temp\ccDvGSFU.s:11207  .debug_str:0000000000000463 .LASF585
C:\Users\stapi\AppData\Local\Temp\ccDvGSFU.s:11393  .debug_str:00000000000009cd .LASF633
C:\Users\stapi\AppData\Local\Temp\ccDvGSFU.s:11111  .debug_str:000000000000014f .LASF586
C:\Users\stapi\AppData\Local\Temp\ccDvGSFU.s:11581  .debug_str:0000000000000f0a .LASF587
C:\Users\stapi\AppData\Local\Temp\ccDvGSFU.s:123    .text.coap_recvc:0000000000000000 .LFB36
C:\Users\stapi\AppData\Local\Temp\ccDvGSFU.s:321    .text.coap_recvc:0000000000000126 .LFE36
C:\Users\stapi\AppData\Local\Temp\ccDvGSFU.s:10343  .debug_loc:0000000000000496 .LLST4
C:\Users\stapi\AppData\Local\Temp\ccDvGSFU.s:10365  .debug_loc:00000000000004cd .LLST5
C:\Users\stapi\AppData\Local\Temp\ccDvGSFU.s:10401  .debug_loc:0000000000000520 .LLST6
C:\Users\stapi\AppData\Local\Temp\ccDvGSFU.s:10434  .debug_loc:0000000000000570 .LLST7
C:\Users\stapi\AppData\Local\Temp\ccDvGSFU.s:10470  .debug_loc:00000000000005c3 .LLST8
C:\Users\stapi\AppData\Local\Temp\ccDvGSFU.s:10495  .debug_loc:00000000000005fd .LLST9
C:\Users\stapi\AppData\Local\Temp\ccDvGSFU.s:198    .text.coap_recvc:000000000000006c .LBB10
C:\Users\stapi\AppData\Local\Temp\ccDvGSFU.s:10517  .debug_loc:0000000000000634 .LLST10
C:\Users\stapi\AppData\Local\Temp\ccDvGSFU.s:10538  .debug_loc:0000000000000663 .LLST11
C:\Users\stapi\AppData\Local\Temp\ccDvGSFU.s:10559  .debug_loc:0000000000000692 .LLST12
C:\Users\stapi\AppData\Local\Temp\ccDvGSFU.s:10576  .debug_loc:00000000000006b6 .LLST13
C:\Users\stapi\AppData\Local\Temp\ccDvGSFU.s:10591  .debug_loc:00000000000006df .LLST14
C:\Users\stapi\AppData\Local\Temp\ccDvGSFU.s:10602  .debug_loc:00000000000006fd .LLST15
C:\Users\stapi\AppData\Local\Temp\ccDvGSFU.s:10613  .debug_loc:000000000000071b .LLST16
C:\Users\stapi\AppData\Local\Temp\ccDvGSFU.s:275    .text.coap_recvc:00000000000000e0 .LBB12
C:\Users\stapi\AppData\Local\Temp\ccDvGSFU.s:289    .text.coap_recvc:00000000000000f0 .LBE12
C:\Users\stapi\AppData\Local\Temp\ccDvGSFU.s:10620  .debug_loc:000000000000072e .LLST17
C:\Users\stapi\AppData\Local\Temp\ccDvGSFU.s:10627  .debug_loc:0000000000000741 .LLST18
C:\Users\stapi\AppData\Local\Temp\ccDvGSFU.s:284    .text.coap_recvc:00000000000000ee .LVL34
C:\Users\stapi\AppData\Local\Temp\ccDvGSFU.s:203    .text.coap_recvc:0000000000000074 .LVL25
C:\Users\stapi\AppData\Local\Temp\ccDvGSFU.s:209    .text.coap_recvc:0000000000000084 .LVL26
C:\Users\stapi\AppData\Local\Temp\ccDvGSFU.s:216    .text.coap_recvc:000000000000009c .LVL27
C:\Users\stapi\AppData\Local\Temp\ccDvGSFU.s:232    .text.coap_recvc:00000000000000b4 .LVL28
C:\Users\stapi\AppData\Local\Temp\ccDvGSFU.s:239    .text.coap_recvc:00000000000000c0 .LVL29
C:\Users\stapi\AppData\Local\Temp\ccDvGSFU.s:263    .text.coap_recvc:00000000000000da .LVL31
C:\Users\stapi\AppData\Local\Temp\ccDvGSFU.s:294    .text.coap_recvc:00000000000000fa .LVL36
C:\Users\stapi\AppData\Local\Temp\ccDvGSFU.s:307    .text.coap_recvc:0000000000000112 .LVL38
C:\Users\stapi\AppData\Local\Temp\ccDvGSFU.s:315    .text.coap_recvc:0000000000000124 .LVL39
C:\Users\stapi\AppData\Local\Temp\ccDvGSFU.s:155    .text.coap_recvc:000000000000002e .LVL16
C:\Users\stapi\AppData\Local\Temp\ccDvGSFU.s:180    .text.coap_recvc:000000000000005e .LVL22
C:\Users\stapi\AppData\Local\Temp\ccDvGSFU.s:331    .text.coap_recvs:0000000000000000 .LFB38
C:\Users\stapi\AppData\Local\Temp\ccDvGSFU.s:662    .text.coap_recvs:00000000000001e4 .LFE38
C:\Users\stapi\AppData\Local\Temp\ccDvGSFU.s:10634  .debug_loc:0000000000000754 .LLST19
C:\Users\stapi\AppData\Local\Temp\ccDvGSFU.s:10656  .debug_loc:000000000000078b .LLST20
C:\Users\stapi\AppData\Local\Temp\ccDvGSFU.s:10674  .debug_loc:00000000000007b7 .LLST21
C:\Users\stapi\AppData\Local\Temp\ccDvGSFU.s:10696  .debug_loc:00000000000007ee .LLST22
C:\Users\stapi\AppData\Local\Temp\ccDvGSFU.s:10714  .debug_loc:000000000000081a .LLST23
C:\Users\stapi\AppData\Local\Temp\ccDvGSFU.s:10728  .debug_loc:000000000000083b .LLST24
C:\Users\stapi\AppData\Local\Temp\ccDvGSFU.s:361    .text.coap_recvs:0000000000000018 .LBB26
C:\Users\stapi\AppData\Local\Temp\ccDvGSFU.s:10750  .debug_loc:0000000000000872 .LLST25
C:\Users\stapi\AppData\Local\Temp\ccDvGSFU.s:10761  .debug_loc:0000000000000890 .LLST26
C:\Users\stapi\AppData\Local\Temp\ccDvGSFU.s:10786  .debug_loc:00000000000008ca .LLST27
C:\Users\stapi\AppData\Local\Temp\ccDvGSFU.s:10801  .debug_loc:00000000000008f3 .LLST28
C:\Users\stapi\AppData\Local\Temp\ccDvGSFU.s:10822  .debug_loc:0000000000000922 .LLST29
C:\Users\stapi\AppData\Local\Temp\ccDvGSFU.s:10833  .debug_loc:0000000000000940 .LLST30
C:\Users\stapi\AppData\Local\Temp\ccDvGSFU.s:10852  .debug_loc:0000000000000974 .LLST31
C:\Users\stapi\AppData\Local\Temp\ccDvGSFU.s:10863  .debug_loc:0000000000000992 .LLST32
C:\Users\stapi\AppData\Local\Temp\ccDvGSFU.s:10882  .debug_loc:00000000000009c6 .LLST33
C:\Users\stapi\AppData\Local\Temp\ccDvGSFU.s:10905  .debug_loc:0000000000000a05 .LLST34
C:\Users\stapi\AppData\Local\Temp\ccDvGSFU.s:443    .text.coap_recvs:000000000000009e .LBB28
C:\Users\stapi\AppData\Local\Temp\ccDvGSFU.s:10916  .debug_loc:0000000000000a23 .LLST35
C:\Users\stapi\AppData\Local\Temp\ccDvGSFU.s:448    .text.coap_recvs:00000000000000a6 .LVL53
C:\Users\stapi\AppData\Local\Temp\ccDvGSFU.s:565    .text.coap_recvs:000000000000016c .LBB32
C:\Users\stapi\AppData\Local\Temp\ccDvGSFU.s:574    .text.coap_recvs:0000000000000178 .LBE32
C:\Users\stapi\AppData\Local\Temp\ccDvGSFU.s:10925  .debug_loc:0000000000000a3b .LLST36
C:\Users\stapi\AppData\Local\Temp\ccDvGSFU.s:571    .text.coap_recvs:0000000000000178 .LVL69
C:\Users\stapi\AppData\Local\Temp\ccDvGSFU.s:642    .text.coap_recvs:00000000000001d0 .LBB34
C:\Users\stapi\AppData\Local\Temp\ccDvGSFU.s:655    .text.coap_recvs:00000000000001e0 .LBE34
C:\Users\stapi\AppData\Local\Temp\ccDvGSFU.s:10932  .debug_loc:0000000000000a4e .LLST37
C:\Users\stapi\AppData\Local\Temp\ccDvGSFU.s:10939  .debug_loc:0000000000000a61 .LLST38
C:\Users\stapi\AppData\Local\Temp\ccDvGSFU.s:650    .text.coap_recvs:00000000000001de .LVL79
C:\Users\stapi\AppData\Local\Temp\ccDvGSFU.s:374    .text.coap_recvs:0000000000000028 .LVL46
C:\Users\stapi\AppData\Local\Temp\ccDvGSFU.s:391    .text.coap_recvs:0000000000000050 .LVL49
C:\Users\stapi\AppData\Local\Temp\ccDvGSFU.s:405    .text.coap_recvs:000000000000005e .LVL51
C:\Users\stapi\AppData\Local\Temp\ccDvGSFU.s:466    .text.coap_recvs:00000000000000b6 .LVL56
C:\Users\stapi\AppData\Local\Temp\ccDvGSFU.s:488    .text.coap_recvs:00000000000000ea .LVL58
C:\Users\stapi\AppData\Local\Temp\ccDvGSFU.s:500    .text.coap_recvs:00000000000000f4 .LVL59
C:\Users\stapi\AppData\Local\Temp\ccDvGSFU.s:506    .text.coap_recvs:0000000000000104 .LVL60
C:\Users\stapi\AppData\Local\Temp\ccDvGSFU.s:513    .text.coap_recvs:000000000000011c .LVL61
C:\Users\stapi\AppData\Local\Temp\ccDvGSFU.s:532    .text.coap_recvs:000000000000013c .LVL62
C:\Users\stapi\AppData\Local\Temp\ccDvGSFU.s:547    .text.coap_recvs:0000000000000156 .LVL64
C:\Users\stapi\AppData\Local\Temp\ccDvGSFU.s:552    .text.coap_recvs:0000000000000160 .LVL65
C:\Users\stapi\AppData\Local\Temp\ccDvGSFU.s:563    .text.coap_recvs:000000000000016c .LVL68
C:\Users\stapi\AppData\Local\Temp\ccDvGSFU.s:606    .text.coap_recvs:0000000000000198 .LVL71
C:\Users\stapi\AppData\Local\Temp\ccDvGSFU.s:614    .text.coap_recvs:00000000000001a4 .LVL73
C:\Users\stapi\AppData\Local\Temp\ccDvGSFU.s:628    .text.coap_recvs:00000000000001bc .LVL76
C:\Users\stapi\AppData\Local\Temp\ccDvGSFU.s:636    .text.coap_recvs:00000000000001ce .LVL77
C:\Users\stapi\AppData\Local\Temp\ccDvGSFU.s:1338   .text.coap_socket_write:0000000000000000 .LFB43
C:\Users\stapi\AppData\Local\Temp\ccDvGSFU.s:1351   .text.coap_socket_write:0000000000000004 .LFE43
C:\Users\stapi\AppData\Local\Temp\ccDvGSFU.s:10946  .debug_loc:0000000000000a74 .LLST65
C:\Users\stapi\AppData\Local\Temp\ccDvGSFU.s:11657  .debug_str:0000000000001232 .LASF588
C:\Users\stapi\AppData\Local\Temp\ccDvGSFU.s:11603  .debug_str:0000000000001094 .LASF589
C:\Users\stapi\AppData\Local\Temp\ccDvGSFU.s:11745  .debug_str:000000000000153f .LASF590
C:\Users\stapi\AppData\Local\Temp\ccDvGSFU.s:12285  .debug_str:000000000000261d .LASF591
C:\Users\stapi\AppData\Local\Temp\ccDvGSFU.s:11635  .debug_str:0000000000001192 .LASF592
C:\Users\stapi\AppData\Local\Temp\ccDvGSFU.s:11945  .debug_str:0000000000001bbd .LASF593
C:\Users\stapi\AppData\Local\Temp\ccDvGSFU.s:11523  .debug_str:0000000000000d72 .LASF594
C:\Users\stapi\AppData\Local\Temp\ccDvGSFU.s:12033  .debug_str:0000000000001dfa .LASF595
C:\Users\stapi\AppData\Local\Temp\ccDvGSFU.s:12179  .debug_str:00000000000022d7 .LASF596
C:\Users\stapi\AppData\Local\Temp\ccDvGSFU.s:11953  .debug_str:0000000000001be1 .LASF597
C:\Users\stapi\AppData\Local\Temp\ccDvGSFU.s:12171  .debug_str:00000000000022a8 .LASF621
C:\Users\stapi\AppData\Local\Temp\ccDvGSFU.s:11439  .debug_str:0000000000000b06 .LASF623
C:\Users\stapi\AppData\Local\Temp\ccDvGSFU.s:11817  .debug_str:00000000000017f2 .LASF598
C:\Users\stapi\AppData\Local\Temp\ccDvGSFU.s:12003  .debug_str:0000000000001d49 .LASF599
C:\Users\stapi\AppData\Local\Temp\ccDvGSFU.s:11921  .debug_str:0000000000001b15 .LASF600
C:\Users\stapi\AppData\Local\Temp\ccDvGSFU.s:11919  .debug_str:0000000000001b08 .LASF601
C:\Users\stapi\AppData\Local\Temp\ccDvGSFU.s:12293  .debug_str:0000000000002644 .LASF602
C:\Users\stapi\AppData\Local\Temp\ccDvGSFU.s:11543  .debug_str:0000000000000dfb .LASF603
C:\Users\stapi\AppData\Local\Temp\ccDvGSFU.s:11065  .debug_str:0000000000000045 .LASF604
C:\Users\stapi\AppData\Local\Temp\ccDvGSFU.s:11837  .debug_str:000000000000188b .LASF605
C:\Users\stapi\AppData\Local\Temp\ccDvGSFU.s:11483  .debug_str:0000000000000c4e .LASF606
C:\Users\stapi\AppData\Local\Temp\ccDvGSFU.s:11555  .debug_str:0000000000000e4f .LASF607
C:\Users\stapi\AppData\Local\Temp\ccDvGSFU.s:11655  .debug_str:000000000000121f .LASF608
C:\Users\stapi\AppData\Local\Temp\ccDvGSFU.s:12073  .debug_str:0000000000001f3a .LASF609
C:\Users\stapi\AppData\Local\Temp\ccDvGSFU.s:11227  .debug_str:00000000000004c6 .LASF610
C:\Users\stapi\AppData\Local\Temp\ccDvGSFU.s:11375  .debug_str:0000000000000943 .LASF611
C:\Users\stapi\AppData\Local\Temp\ccDvGSFU.s:11993  .debug_str:0000000000001d14 .LASF612
C:\Users\stapi\AppData\Local\Temp\ccDvGSFU.s:11511  .debug_str:0000000000000d22 .LASF613
C:\Users\stapi\AppData\Local\Temp\ccDvGSFU.s:12099  .debug_str:000000000000202b .LASF614
C:\Users\stapi\AppData\Local\Temp\ccDvGSFU.s:11059  .debug_str:0000000000000020 .LASF615
C:\Users\stapi\AppData\Local\Temp\ccDvGSFU.s:11489  .debug_str:0000000000000c7b .LASF616
C:\Users\stapi\AppData\Local\Temp\ccDvGSFU.s:11215  .debug_str:0000000000000483 .LASF617
C:\Users\stapi\AppData\Local\Temp\ccDvGSFU.s:11505  .debug_str:0000000000000cf3 .LASF618
C:\Users\stapi\AppData\Local\Temp\ccDvGSFU.s:12283  .debug_str:000000000000260e .LASF619
C:\Users\stapi\AppData\Local\Temp\ccDvGSFU.s:12225  .debug_str:000000000000244b .LASF620
C:\Users\stapi\AppData\Local\Temp\ccDvGSFU.s:11399  .debug_str:00000000000009ec .LASF622
C:\Users\stapi\AppData\Local\Temp\ccDvGSFU.s:11647  .debug_str:00000000000011e0 .LASF624
C:\Users\stapi\AppData\Local\Temp\ccDvGSFU.s:11441  .debug_str:0000000000000b17 .LASF625
C:\Users\stapi\AppData\Local\Temp\ccDvGSFU.s:11491  .debug_str:0000000000000c8a .LASF626
C:\Users\stapi\AppData\Local\Temp\ccDvGSFU.s:11495  .debug_str:0000000000000ca4 .LASF627
C:\Users\stapi\AppData\Local\Temp\ccDvGSFU.s:1373   .text.coap_socket_close:0000000000000000 .LVL161
C:\Users\stapi\AppData\Local\Temp\ccDvGSFU.s:1390   .text.coap_socket_close:0000000000000016 .LVL162
C:\Users\stapi\AppData\Local\Temp\ccDvGSFU.s:1216   .text.coap_socket_connect_udp:0000000000000000 .LVL144
C:\Users\stapi\AppData\Local\Temp\ccDvGSFU.s:1237   .text.coap_socket_connect_udp:0000000000000012 .LVL145
C:\Users\stapi\AppData\Local\Temp\ccDvGSFU.s:1269   .text.coap_socket_connect_udp:0000000000000046 .LVL149
C:\Users\stapi\AppData\Local\Temp\ccDvGSFU.s:1286   .text.coap_socket_connect_udp:0000000000000064 .LVL151
C:\Users\stapi\AppData\Local\Temp\ccDvGSFU.s:1311   .text.coap_socket_connect_udp:0000000000000084 .LVL155
C:\Users\stapi\AppData\Local\Temp\ccDvGSFU.s:1318   .text.coap_socket_connect_udp:0000000000000086 .LVL156
C:\Users\stapi\AppData\Local\Temp\ccDvGSFU.s:1299   .text.coap_socket_connect_udp:000000000000007c .LVL154
C:\Users\stapi\AppData\Local\Temp\ccDvGSFU.s:1117   .text.coap_socket_bind_udp:0000000000000000 .LVL136
C:\Users\stapi\AppData\Local\Temp\ccDvGSFU.s:1138   .text.coap_socket_bind_udp:0000000000000016 .LVL137
C:\Users\stapi\AppData\Local\Temp\ccDvGSFU.s:1166   .text.coap_socket_bind_udp:000000000000004a .LVL141
C:\Users\stapi\AppData\Local\Temp\ccDvGSFU.s:1188   .text.coap_socket_bind_udp:000000000000006a .LVL143
C:\Users\stapi\AppData\Local\Temp\ccDvGSFU.s:1012   .text.coap_socket_send:0000000000000000 .LVL121
C:\Users\stapi\AppData\Local\Temp\ccDvGSFU.s:1034   .text.coap_socket_send:000000000000001a .LVL123
C:\Users\stapi\AppData\Local\Temp\ccDvGSFU.s:1050   .text.coap_socket_send:0000000000000024 .LVL124
C:\Users\stapi\AppData\Local\Temp\ccDvGSFU.s:1065   .text.coap_socket_send:000000000000003c .LVL127
C:\Users\stapi\AppData\Local\Temp\ccDvGSFU.s:1070   .text.coap_socket_send:0000000000000040 .LVL128
C:\Users\stapi\AppData\Local\Temp\ccDvGSFU.s:1093   .text.coap_socket_send:0000000000000076 .LVL133
C:\Users\stapi\AppData\Local\Temp\ccDvGSFU.s:1080   .text.coap_socket_send:0000000000000052 .LVL130
C:\Users\stapi\AppData\Local\Temp\ccDvGSFU.s:905    .text.coap_socket_send_pdu:0000000000000000 .LVL106
C:\Users\stapi\AppData\Local\Temp\ccDvGSFU.s:925    .text.coap_socket_send_pdu:0000000000000018 .LVL108
C:\Users\stapi\AppData\Local\Temp\ccDvGSFU.s:923    .text.coap_socket_send_pdu:0000000000000014 .LVL107
C:\Users\stapi\AppData\Local\Temp\ccDvGSFU.s:945    .text.coap_socket_send_pdu:0000000000000042 .LVL112
C:\Users\stapi\AppData\Local\Temp\ccDvGSFU.s:961    .text.coap_socket_send_pdu:000000000000004c .LVL113
C:\Users\stapi\AppData\Local\Temp\ccDvGSFU.s:976    .text.coap_socket_send_pdu:0000000000000062 .LVL116
C:\Users\stapi\AppData\Local\Temp\ccDvGSFU.s:981    .text.coap_socket_send_pdu:0000000000000066 .LVL117
C:\Users\stapi\AppData\Local\Temp\ccDvGSFU.s:992    .text.coap_socket_send_pdu:000000000000007e .LVL119
C:\Users\stapi\AppData\Local\Temp\ccDvGSFU.s:876    .text.coap_socket_recv:0000000000000000 .LVL102
C:\Users\stapi\AppData\Local\Temp\ccDvGSFU.s:886    .text.coap_socket_recv:0000000000000014 .LVL103
C:\Users\stapi\AppData\Local\Temp\ccDvGSFU.s:890    .text.coap_socket_recv:0000000000000020 .LVL104
C:\Users\stapi\AppData\Local\Temp\ccDvGSFU.s:706    .text.coap_io_process:0000000000000000 .LVL83
C:\Users\stapi\AppData\Local\Temp\ccDvGSFU.s:772    .text.coap_io_process:000000000000003e .LVL91
C:\Users\stapi\AppData\Local\Temp\ccDvGSFU.s:745    .text.coap_io_process:000000000000001a .LVL86
C:\Users\stapi\AppData\Local\Temp\ccDvGSFU.s:754    .text.coap_io_process:0000000000000022 .LVL87
C:\Users\stapi\AppData\Local\Temp\ccDvGSFU.s:720    .text.coap_io_process:0000000000000008 .LVL84
C:\Users\stapi\AppData\Local\Temp\ccDvGSFU.s:1483   .debug_info:0000000000000000 .Ldebug_info0
C:\Users\stapi\AppData\Local\Temp\ccDvGSFU.s:18     .text.coap_io_process_timeout:0000000000000000 .LVL0
C:\Users\stapi\AppData\Local\Temp\ccDvGSFU.s:31     .text.coap_io_process_timeout:000000000000000c .LVL1
C:\Users\stapi\AppData\Local\Temp\ccDvGSFU.s:44     .text.coap_io_process_timeout:0000000000000016 .LVL3
C:\Users\stapi\AppData\Local\Temp\ccDvGSFU.s:53     .text.coap_io_process_timeout:000000000000001e .LVL4
C:\Users\stapi\AppData\Local\Temp\ccDvGSFU.s:126    .text.coap_recvc:0000000000000000 .LVL10
C:\Users\stapi\AppData\Local\Temp\ccDvGSFU.s:148    .text.coap_recvc:0000000000000016 .LVL14
C:\Users\stapi\AppData\Local\Temp\ccDvGSFU.s:166    .text.coap_recvc:000000000000003a .LVL18
C:\Users\stapi\AppData\Local\Temp\ccDvGSFU.s:152    .text.coap_recvc:0000000000000022 .LVL15
C:\Users\stapi\AppData\Local\Temp\ccDvGSFU.s:172    .text.coap_recvc:0000000000000042 .LVL20
C:\Users\stapi\AppData\Local\Temp\ccDvGSFU.s:186    .text.coap_recvc:0000000000000060 .LVL23
C:\Users\stapi\AppData\Local\Temp\ccDvGSFU.s:146    .text.coap_recvc:0000000000000012 .LVL13
C:\Users\stapi\AppData\Local\Temp\ccDvGSFU.s:176    .text.coap_recvc:000000000000004e .LVL21
C:\Users\stapi\AppData\Local\Temp\ccDvGSFU.s:144    .text.coap_recvc:000000000000000e .LVL12
C:\Users\stapi\AppData\Local\Temp\ccDvGSFU.s:170    .text.coap_recvc:000000000000003e .LVL19
C:\Users\stapi\AppData\Local\Temp\ccDvGSFU.s:160    .text.coap_recvc:0000000000000032 .LVL17
C:\Users\stapi\AppData\Local\Temp\ccDvGSFU.s:134    .text.coap_recvc:0000000000000008 .LVL11
C:\Users\stapi\AppData\Local\Temp\ccDvGSFU.s:197    .text.coap_recvc:000000000000006c .LVL24
C:\Users\stapi\AppData\Local\Temp\ccDvGSFU.s:252    .text.coap_recvc:00000000000000c8 .LVL30
C:\Users\stapi\AppData\Local\Temp\ccDvGSFU.s:272    .text.coap_recvc:00000000000000e0 .LVL33
C:\Users\stapi\AppData\Local\Temp\ccDvGSFU.s:286    .text.coap_recvc:00000000000000f0 .LVL35
C:\Users\stapi\AppData\Local\Temp\ccDvGSFU.s:296    .text.coap_recvc:00000000000000fc .LVL37
C:\Users\stapi\AppData\Local\Temp\ccDvGSFU.s:267    .text.coap_recvc:00000000000000de .LVL32
C:\Users\stapi\AppData\Local\Temp\ccDvGSFU.s:334    .text.coap_recvs:0000000000000000 .LVL40
C:\Users\stapi\AppData\Local\Temp\ccDvGSFU.s:365    .text.coap_recvs:000000000000001a .LVL43
C:\Users\stapi\AppData\Local\Temp\ccDvGSFU.s:588    .text.coap_recvs:0000000000000180 .LVL70
C:\Users\stapi\AppData\Local\Temp\ccDvGSFU.s:367    .text.coap_recvs:000000000000001c .LVL44
C:\Users\stapi\AppData\Local\Temp\ccDvGSFU.s:468    .text.coap_recvs:00000000000000b8 .LVL57
C:\Users\stapi\AppData\Local\Temp\ccDvGSFU.s:457    .text.coap_recvs:00000000000000aa .LVL54
C:\Users\stapi\AppData\Local\Temp\ccDvGSFU.s:356    .text.coap_recvs:000000000000000e .LVL42
C:\Users\stapi\AppData\Local\Temp\ccDvGSFU.s:345    .text.coap_recvs:0000000000000008 .LVL41
C:\Users\stapi\AppData\Local\Temp\ccDvGSFU.s:370    .text.coap_recvs:0000000000000020 .LVL45
C:\Users\stapi\AppData\Local\Temp\ccDvGSFU.s:555    .text.coap_recvs:0000000000000162 .LVL66
C:\Users\stapi\AppData\Local\Temp\ccDvGSFU.s:559    .text.coap_recvs:0000000000000164 .LVL67
C:\Users\stapi\AppData\Local\Temp\ccDvGSFU.s:616    .text.coap_recvs:00000000000001a6 .LVL74
C:\Users\stapi\AppData\Local\Temp\ccDvGSFU.s:626    .text.coap_recvs:00000000000001b4 .LVL75
C:\Users\stapi\AppData\Local\Temp\ccDvGSFU.s:652    .text.coap_recvs:00000000000001e0 .LVL80
C:\Users\stapi\AppData\Local\Temp\ccDvGSFU.s:464    .text.coap_recvs:00000000000000ae .LVL55
C:\Users\stapi\AppData\Local\Temp\ccDvGSFU.s:376    .text.coap_recvs:000000000000002a .LVL47
C:\Users\stapi\AppData\Local\Temp\ccDvGSFU.s:385    .text.coap_recvs:0000000000000038 .LVL48
C:\Users\stapi\AppData\Local\Temp\ccDvGSFU.s:397    .text.coap_recvs:0000000000000052 .LVL50
C:\Users\stapi\AppData\Local\Temp\ccDvGSFU.s:545    .text.coap_recvs:000000000000014e .LVL63
C:\Users\stapi\AppData\Local\Temp\ccDvGSFU.s:608    .text.coap_recvs:000000000000019a .LVL72
C:\Users\stapi\AppData\Local\Temp\ccDvGSFU.s:442    .text.coap_recvs:000000000000009e .LVL52
C:\Users\stapi\AppData\Local\Temp\ccDvGSFU.s:641    .text.coap_recvs:00000000000001d0 .LVL78
C:\Users\stapi\AppData\Local\Temp\ccDvGSFU.s:1341   .text.coap_socket_write:0000000000000000 .LVL159
C:\Users\stapi\AppData\Local\Temp\ccDvGSFU.s:1348   .text.coap_socket_write:0000000000000002 .LVL160
C:\Users\stapi\AppData\Local\Temp\ccDvGSFU.s:243    .text.coap_recvc:00000000000000c0 .LBE10
C:\Users\stapi\AppData\Local\Temp\ccDvGSFU.s:255    .text.coap_recvc:00000000000000c8 .LBB15
C:\Users\stapi\AppData\Local\Temp\ccDvGSFU.s:319    .text.coap_recvc:0000000000000126 .LBE15
C:\Users\stapi\AppData\Local\Temp\ccDvGSFU.s:576    .text.coap_recvs:0000000000000178 .LBE26
C:\Users\stapi\AppData\Local\Temp\ccDvGSFU.s:591    .text.coap_recvs:0000000000000180 .LBB37
C:\Users\stapi\AppData\Local\Temp\ccDvGSFU.s:660    .text.coap_recvs:00000000000001e4 .LBE37
C:\Users\stapi\AppData\Local\Temp\ccDvGSFU.s:450    .text.coap_recvs:00000000000000a6 .LBE28
C:\Users\stapi\AppData\Local\Temp\ccDvGSFU.s:453    .text.coap_recvs:00000000000000a8 .LBB31
C:\Users\stapi\AppData\Local\Temp\ccDvGSFU.s:459    .text.coap_recvs:00000000000000aa .LBE31
C:\Users\stapi\AppData\Local\Temp\ccDvGSFU.s:725    .text.coap_io_process:0000000000000008 .LBE42
C:\Users\stapi\AppData\Local\Temp\ccDvGSFU.s:732    .text.coap_io_process:000000000000000e .LBB46
C:\Users\stapi\AppData\Local\Temp\ccDvGSFU.s:738    .text.coap_io_process:0000000000000016 .LBE46
C:\Users\stapi\AppData\Local\Temp\ccDvGSFU.s:741    .text.coap_io_process:0000000000000018 .LBB47
C:\Users\stapi\AppData\Local\Temp\ccDvGSFU.s:747    .text.coap_io_process:000000000000001a .LBE47

UNDEFINED SYMBOLS
__riscv_save_3
sys_now
coap_io_prepare_io
sys_untimeout
sys_timeout
__riscv_restore_3
__assert_func
printf
coap_get_log_level
coap_session_str
coap_log_impl
pbuf_free
coap_delete_pdu
coap_dtls_receive
coap_send_message_type
coap_pdu_from_pbuf
coap_pdu_parse
coap_dispatch
__riscv_save_6
coap_malloc_type
memset
ip_data
coap_endpoint_get_session
coap_dtls_hello
coap_session_new_dtls_session
coap_free_type
__riscv_restore_6
__riscv_save_5
lock_tcpip_core
sys_mutex_get
sys_mutex_put
sys_check_timeouts
__riscv_restore_5
__riscv_save_0
coap_pdu_parse_header_size
pbuf_realloc
coap_debug_send_packet
pbuf_clone
udp_sendto
pbuf_alloc
memcpy
udp_new_ip_type
udp_recv
udp_bind
udp_remove
udp_new
udp_connect
__riscv_save_2
__riscv_restore_2
