   1              		.file	"coap_asn1.c"
   2              		.option nopic
   3              		.attribute arch, "rv32i2p0_m2p0_a2p0_f2p0_c2p0_b_p0p94"
   4              		.attribute unaligned_access, 0
   5              		.attribute stack_align, 16
   6              		.text
   7              	.Ltext0:
   8              		.cfi_sections	.debug_frame
   9              		.section	.text.asn1_len,"ax",@progbits
  10              		.align	1
  11              		.globl	asn1_len
  13              	asn1_len:
  14              	.LFB31:
  15              		.file 1 "C:/Users/stapi/OneDrive/Desktop/GD32VW553/V1_MQTT_OK/GD32VW55X_Wifi_BLE_SDK/GD32VW55x_REL
   1:C:/Users/stapi/OneDrive/Desktop/GD32VW553/V1_MQTT_OK/GD32VW55X_Wifi_BLE_SDK/GD32VW55x_RELEASE_V1.0.2/MSDK/lwip/libcoap-4.3.4/src\coap_asn1.c **** /* coap_asn1.c -- ASN.1 handling functions
   2:C:/Users/stapi/OneDrive/Desktop/GD32VW553/V1_MQTT_OK/GD32VW55X_Wifi_BLE_SDK/GD32VW55x_RELEASE_V1.0.2/MSDK/lwip/libcoap-4.3.4/src\coap_asn1.c **** *
   3:C:/Users/stapi/OneDrive/Desktop/GD32VW553/V1_MQTT_OK/GD32VW55X_Wifi_BLE_SDK/GD32VW55x_RELEASE_V1.0.2/MSDK/lwip/libcoap-4.3.4/src\coap_asn1.c **** * Copyright (C) 2020-2023 Jon Shallow <supjps-libcoap@jpshallow.com>
   4:C:/Users/stapi/OneDrive/Desktop/GD32VW553/V1_MQTT_OK/GD32VW55X_Wifi_BLE_SDK/GD32VW55x_RELEASE_V1.0.2/MSDK/lwip/libcoap-4.3.4/src\coap_asn1.c **** *
   5:C:/Users/stapi/OneDrive/Desktop/GD32VW553/V1_MQTT_OK/GD32VW55X_Wifi_BLE_SDK/GD32VW55x_RELEASE_V1.0.2/MSDK/lwip/libcoap-4.3.4/src\coap_asn1.c ****  * SPDX-License-Identifier: BSD-2-Clause
   6:C:/Users/stapi/OneDrive/Desktop/GD32VW553/V1_MQTT_OK/GD32VW55X_Wifi_BLE_SDK/GD32VW55x_RELEASE_V1.0.2/MSDK/lwip/libcoap-4.3.4/src\coap_asn1.c ****  *
   7:C:/Users/stapi/OneDrive/Desktop/GD32VW553/V1_MQTT_OK/GD32VW55X_Wifi_BLE_SDK/GD32VW55x_RELEASE_V1.0.2/MSDK/lwip/libcoap-4.3.4/src\coap_asn1.c **** * This file is part of the CoAP library libcoap. Please see
   8:C:/Users/stapi/OneDrive/Desktop/GD32VW553/V1_MQTT_OK/GD32VW55X_Wifi_BLE_SDK/GD32VW55x_RELEASE_V1.0.2/MSDK/lwip/libcoap-4.3.4/src\coap_asn1.c **** * README for terms of use.
   9:C:/Users/stapi/OneDrive/Desktop/GD32VW553/V1_MQTT_OK/GD32VW55X_Wifi_BLE_SDK/GD32VW55x_RELEASE_V1.0.2/MSDK/lwip/libcoap-4.3.4/src\coap_asn1.c **** */
  10:C:/Users/stapi/OneDrive/Desktop/GD32VW553/V1_MQTT_OK/GD32VW55X_Wifi_BLE_SDK/GD32VW55x_RELEASE_V1.0.2/MSDK/lwip/libcoap-4.3.4/src\coap_asn1.c **** 
  11:C:/Users/stapi/OneDrive/Desktop/GD32VW553/V1_MQTT_OK/GD32VW55X_Wifi_BLE_SDK/GD32VW55x_RELEASE_V1.0.2/MSDK/lwip/libcoap-4.3.4/src\coap_asn1.c **** /**
  12:C:/Users/stapi/OneDrive/Desktop/GD32VW553/V1_MQTT_OK/GD32VW55X_Wifi_BLE_SDK/GD32VW55x_RELEASE_V1.0.2/MSDK/lwip/libcoap-4.3.4/src\coap_asn1.c ****  * @file coap_asn1.c
  13:C:/Users/stapi/OneDrive/Desktop/GD32VW553/V1_MQTT_OK/GD32VW55X_Wifi_BLE_SDK/GD32VW55x_RELEASE_V1.0.2/MSDK/lwip/libcoap-4.3.4/src\coap_asn1.c ****  * @brief CoAP specific ASN.1 handling
  14:C:/Users/stapi/OneDrive/Desktop/GD32VW553/V1_MQTT_OK/GD32VW55X_Wifi_BLE_SDK/GD32VW55x_RELEASE_V1.0.2/MSDK/lwip/libcoap-4.3.4/src\coap_asn1.c ****  */
  15:C:/Users/stapi/OneDrive/Desktop/GD32VW553/V1_MQTT_OK/GD32VW55X_Wifi_BLE_SDK/GD32VW55x_RELEASE_V1.0.2/MSDK/lwip/libcoap-4.3.4/src\coap_asn1.c **** 
  16:C:/Users/stapi/OneDrive/Desktop/GD32VW553/V1_MQTT_OK/GD32VW55X_Wifi_BLE_SDK/GD32VW55x_RELEASE_V1.0.2/MSDK/lwip/libcoap-4.3.4/src\coap_asn1.c **** #include "coap3/coap_internal.h"
  17:C:/Users/stapi/OneDrive/Desktop/GD32VW553/V1_MQTT_OK/GD32VW55X_Wifi_BLE_SDK/GD32VW55x_RELEASE_V1.0.2/MSDK/lwip/libcoap-4.3.4/src\coap_asn1.c **** 
  18:C:/Users/stapi/OneDrive/Desktop/GD32VW553/V1_MQTT_OK/GD32VW55X_Wifi_BLE_SDK/GD32VW55x_RELEASE_V1.0.2/MSDK/lwip/libcoap-4.3.4/src\coap_asn1.c **** size_t
  19:C:/Users/stapi/OneDrive/Desktop/GD32VW553/V1_MQTT_OK/GD32VW55X_Wifi_BLE_SDK/GD32VW55x_RELEASE_V1.0.2/MSDK/lwip/libcoap-4.3.4/src\coap_asn1.c **** asn1_len(const uint8_t **ptr) {
  16              		.loc 1 19 31
  17              		.cfi_startproc
  18              	.LVL0:
  20:C:/Users/stapi/OneDrive/Desktop/GD32VW553/V1_MQTT_OK/GD32VW55X_Wifi_BLE_SDK/GD32VW55x_RELEASE_V1.0.2/MSDK/lwip/libcoap-4.3.4/src\coap_asn1.c ****   size_t len = 0;
  19              		.loc 1 20 3
  21:C:/Users/stapi/OneDrive/Desktop/GD32VW553/V1_MQTT_OK/GD32VW55X_Wifi_BLE_SDK/GD32VW55x_RELEASE_V1.0.2/MSDK/lwip/libcoap-4.3.4/src\coap_asn1.c **** 
  22:C:/Users/stapi/OneDrive/Desktop/GD32VW553/V1_MQTT_OK/GD32VW55X_Wifi_BLE_SDK/GD32VW55x_RELEASE_V1.0.2/MSDK/lwip/libcoap-4.3.4/src\coap_asn1.c ****   if ((**ptr) & 0x80) {
  20              		.loc 1 22 3
  21              		.loc 1 22 9 is_stmt 0
  22 0000 1C41     		lw	a5,0(a0)
  19:C:/Users/stapi/OneDrive/Desktop/GD32VW553/V1_MQTT_OK/GD32VW55X_Wifi_BLE_SDK/GD32VW55x_RELEASE_V1.0.2/MSDK/lwip/libcoap-4.3.4/src\coap_asn1.c ****   size_t len = 0;
  23              		.loc 1 19 31
  24 0002 2A87     		mv	a4,a0
  25              		.loc 1 22 8
  26 0004 03C50700 		lbu	a0,0(a5)
  27              	.LVL1:
  28              	.LBB2:
  23:C:/Users/stapi/OneDrive/Desktop/GD32VW553/V1_MQTT_OK/GD32VW55X_Wifi_BLE_SDK/GD32VW55x_RELEASE_V1.0.2/MSDK/lwip/libcoap-4.3.4/src\coap_asn1.c ****     size_t octets = (**ptr) & 0x7f;
  24:C:/Users/stapi/OneDrive/Desktop/GD32VW553/V1_MQTT_OK/GD32VW55X_Wifi_BLE_SDK/GD32VW55x_RELEASE_V1.0.2/MSDK/lwip/libcoap-4.3.4/src\coap_asn1.c ****     (*ptr)++;
  29              		.loc 1 24 11
  30 0008 8507     		addi	a5,a5,1
  31              	.LBE2:
  22:C:/Users/stapi/OneDrive/Desktop/GD32VW553/V1_MQTT_OK/GD32VW55X_Wifi_BLE_SDK/GD32VW55x_RELEASE_V1.0.2/MSDK/lwip/libcoap-4.3.4/src\coap_asn1.c ****     size_t octets = (**ptr) & 0x7f;
  32              		.loc 1 22 6
  33 000a 93164560 		sext.b	a3,a0
  34 000e 63D20602 		bge	a3,zero,.L2
  35              	.LBB3:
  23:C:/Users/stapi/OneDrive/Desktop/GD32VW553/V1_MQTT_OK/GD32VW55X_Wifi_BLE_SDK/GD32VW55x_RELEASE_V1.0.2/MSDK/lwip/libcoap-4.3.4/src\coap_asn1.c ****     size_t octets = (**ptr) & 0x7f;
  36              		.loc 1 23 5 is_stmt 1
  23:C:/Users/stapi/OneDrive/Desktop/GD32VW553/V1_MQTT_OK/GD32VW55X_Wifi_BLE_SDK/GD32VW55x_RELEASE_V1.0.2/MSDK/lwip/libcoap-4.3.4/src\coap_asn1.c ****     size_t octets = (**ptr) & 0x7f;
  37              		.loc 1 23 12 is_stmt 0
  38 0012 1376F507 		andi	a2,a0,127
  39              	.LVL2:
  40              		.loc 1 24 5 is_stmt 1
  41              		.loc 1 24 11 is_stmt 0
  42 0016 1CC3     		sw	a5,0(a4)
  25:C:/Users/stapi/OneDrive/Desktop/GD32VW553/V1_MQTT_OK/GD32VW55X_Wifi_BLE_SDK/GD32VW55x_RELEASE_V1.0.2/MSDK/lwip/libcoap-4.3.4/src\coap_asn1.c ****     while (octets) {
  43              		.loc 1 25 5 is_stmt 1
  44              	.LBE3:
  20:C:/Users/stapi/OneDrive/Desktop/GD32VW553/V1_MQTT_OK/GD32VW55X_Wifi_BLE_SDK/GD32VW55x_RELEASE_V1.0.2/MSDK/lwip/libcoap-4.3.4/src\coap_asn1.c **** 
  45              		.loc 1 20 10 is_stmt 0
  46 0018 0145     		li	a0,0
  47              	.LVL3:
  48              	.L3:
  49              	.LBB4:
  50              		.loc 1 25 11 is_stmt 1
  51 001a 11E2     		bne	a2,zero,.L4
  52 001c 8280     		ret
  53              	.L4:
  26:C:/Users/stapi/OneDrive/Desktop/GD32VW553/V1_MQTT_OK/GD32VW55X_Wifi_BLE_SDK/GD32VW55x_RELEASE_V1.0.2/MSDK/lwip/libcoap-4.3.4/src\coap_asn1.c ****       len = (len << 8) + (**ptr);
  54              		.loc 1 26 7
  55              		.loc 1 26 28 is_stmt 0
  56 001e 1443     		lw	a3,0(a4)
  57              		.loc 1 26 18
  58 0020 93178500 		slli	a5,a0,8
  27:C:/Users/stapi/OneDrive/Desktop/GD32VW553/V1_MQTT_OK/GD32VW55X_Wifi_BLE_SDK/GD32VW55x_RELEASE_V1.0.2/MSDK/lwip/libcoap-4.3.4/src\coap_asn1.c ****       (*ptr)++;
  28:C:/Users/stapi/OneDrive/Desktop/GD32VW553/V1_MQTT_OK/GD32VW55X_Wifi_BLE_SDK/GD32VW55x_RELEASE_V1.0.2/MSDK/lwip/libcoap-4.3.4/src\coap_asn1.c ****       octets--;
  59              		.loc 1 28 13
  60 0024 7D16     		addi	a2,a2,-1
  61              	.LVL4:
  26:C:/Users/stapi/OneDrive/Desktop/GD32VW553/V1_MQTT_OK/GD32VW55X_Wifi_BLE_SDK/GD32VW55x_RELEASE_V1.0.2/MSDK/lwip/libcoap-4.3.4/src\coap_asn1.c ****       len = (len << 8) + (**ptr);
  62              		.loc 1 26 27
  63 0026 03C50600 		lbu	a0,0(a3)
  64              	.LVL5:
  27:C:/Users/stapi/OneDrive/Desktop/GD32VW553/V1_MQTT_OK/GD32VW55X_Wifi_BLE_SDK/GD32VW55x_RELEASE_V1.0.2/MSDK/lwip/libcoap-4.3.4/src\coap_asn1.c ****       (*ptr)++;
  65              		.loc 1 27 13
  66 002a 8506     		addi	a3,a3,1
  67 002c 14C3     		sw	a3,0(a4)
  26:C:/Users/stapi/OneDrive/Desktop/GD32VW553/V1_MQTT_OK/GD32VW55X_Wifi_BLE_SDK/GD32VW55x_RELEASE_V1.0.2/MSDK/lwip/libcoap-4.3.4/src\coap_asn1.c ****       len = (len << 8) + (**ptr);
  68              		.loc 1 26 11
  69 002e 3E95     		add	a0,a0,a5
  70              	.LVL6:
  27:C:/Users/stapi/OneDrive/Desktop/GD32VW553/V1_MQTT_OK/GD32VW55X_Wifi_BLE_SDK/GD32VW55x_RELEASE_V1.0.2/MSDK/lwip/libcoap-4.3.4/src\coap_asn1.c ****       (*ptr)++;
  71              		.loc 1 27 7 is_stmt 1
  72              		.loc 1 28 7
  73 0030 EDB7     		j	.L3
  74              	.LVL7:
  75              	.L2:
  76              	.LBE4:
  29:C:/Users/stapi/OneDrive/Desktop/GD32VW553/V1_MQTT_OK/GD32VW55X_Wifi_BLE_SDK/GD32VW55x_RELEASE_V1.0.2/MSDK/lwip/libcoap-4.3.4/src\coap_asn1.c ****     }
  30:C:/Users/stapi/OneDrive/Desktop/GD32VW553/V1_MQTT_OK/GD32VW55X_Wifi_BLE_SDK/GD32VW55x_RELEASE_V1.0.2/MSDK/lwip/libcoap-4.3.4/src\coap_asn1.c ****   } else {
  31:C:/Users/stapi/OneDrive/Desktop/GD32VW553/V1_MQTT_OK/GD32VW55X_Wifi_BLE_SDK/GD32VW55x_RELEASE_V1.0.2/MSDK/lwip/libcoap-4.3.4/src\coap_asn1.c ****     len = (**ptr) & 0x7f;
  77              		.loc 1 31 5
  32:C:/Users/stapi/OneDrive/Desktop/GD32VW553/V1_MQTT_OK/GD32VW55X_Wifi_BLE_SDK/GD32VW55x_RELEASE_V1.0.2/MSDK/lwip/libcoap-4.3.4/src\coap_asn1.c ****     (*ptr)++;
  78              		.loc 1 32 5
  79              		.loc 1 32 11 is_stmt 0
  80 0032 1CC3     		sw	a5,0(a4)
  33:C:/Users/stapi/OneDrive/Desktop/GD32VW553/V1_MQTT_OK/GD32VW55X_Wifi_BLE_SDK/GD32VW55x_RELEASE_V1.0.2/MSDK/lwip/libcoap-4.3.4/src\coap_asn1.c ****   }
  34:C:/Users/stapi/OneDrive/Desktop/GD32VW553/V1_MQTT_OK/GD32VW55X_Wifi_BLE_SDK/GD32VW55x_RELEASE_V1.0.2/MSDK/lwip/libcoap-4.3.4/src\coap_asn1.c ****   return len;
  81              		.loc 1 34 3 is_stmt 1
  35:C:/Users/stapi/OneDrive/Desktop/GD32VW553/V1_MQTT_OK/GD32VW55X_Wifi_BLE_SDK/GD32VW55x_RELEASE_V1.0.2/MSDK/lwip/libcoap-4.3.4/src\coap_asn1.c **** }
  82              		.loc 1 35 1 is_stmt 0
  83 0034 8280     		ret
  84              		.cfi_endproc
  85              	.LFE31:
  87              		.section	.text.asn1_tag_c,"ax",@progbits
  88              		.align	1
  89              		.globl	asn1_tag_c
  91              	asn1_tag_c:
  92              	.LFB32:
  36:C:/Users/stapi/OneDrive/Desktop/GD32VW553/V1_MQTT_OK/GD32VW55X_Wifi_BLE_SDK/GD32VW55x_RELEASE_V1.0.2/MSDK/lwip/libcoap-4.3.4/src\coap_asn1.c **** 
  37:C:/Users/stapi/OneDrive/Desktop/GD32VW553/V1_MQTT_OK/GD32VW55X_Wifi_BLE_SDK/GD32VW55x_RELEASE_V1.0.2/MSDK/lwip/libcoap-4.3.4/src\coap_asn1.c **** coap_asn1_tag_t
  38:C:/Users/stapi/OneDrive/Desktop/GD32VW553/V1_MQTT_OK/GD32VW55X_Wifi_BLE_SDK/GD32VW55x_RELEASE_V1.0.2/MSDK/lwip/libcoap-4.3.4/src\coap_asn1.c **** asn1_tag_c(const uint8_t **ptr, int *constructed, int *cls) {
  93              		.loc 1 38 61 is_stmt 1
  94              		.cfi_startproc
  95              	.LVL8:
  39:C:/Users/stapi/OneDrive/Desktop/GD32VW553/V1_MQTT_OK/GD32VW55X_Wifi_BLE_SDK/GD32VW55x_RELEASE_V1.0.2/MSDK/lwip/libcoap-4.3.4/src\coap_asn1.c ****   coap_asn1_tag_t tag = 0;
  96              		.loc 1 39 3
  40:C:/Users/stapi/OneDrive/Desktop/GD32VW553/V1_MQTT_OK/GD32VW55X_Wifi_BLE_SDK/GD32VW55x_RELEASE_V1.0.2/MSDK/lwip/libcoap-4.3.4/src\coap_asn1.c ****   uint8_t byte;
  97              		.loc 1 40 3
  41:C:/Users/stapi/OneDrive/Desktop/GD32VW553/V1_MQTT_OK/GD32VW55X_Wifi_BLE_SDK/GD32VW55x_RELEASE_V1.0.2/MSDK/lwip/libcoap-4.3.4/src\coap_asn1.c **** 
  42:C:/Users/stapi/OneDrive/Desktop/GD32VW553/V1_MQTT_OK/GD32VW55X_Wifi_BLE_SDK/GD32VW55x_RELEASE_V1.0.2/MSDK/lwip/libcoap-4.3.4/src\coap_asn1.c ****   byte = (**ptr);
  98              		.loc 1 42 3
  99              		.loc 1 42 12 is_stmt 0
 100 0000 1441     		lw	a3,0(a0)
  38:C:/Users/stapi/OneDrive/Desktop/GD32VW553/V1_MQTT_OK/GD32VW55X_Wifi_BLE_SDK/GD32VW55x_RELEASE_V1.0.2/MSDK/lwip/libcoap-4.3.4/src\coap_asn1.c ****   coap_asn1_tag_t tag = 0;
 101              		.loc 1 38 61
 102 0002 2A87     		mv	a4,a0
 103              		.loc 1 42 8
 104 0004 83C70600 		lbu	a5,0(a3)
 105              	.LVL9:
  43:C:/Users/stapi/OneDrive/Desktop/GD32VW553/V1_MQTT_OK/GD32VW55X_Wifi_BLE_SDK/GD32VW55x_RELEASE_V1.0.2/MSDK/lwip/libcoap-4.3.4/src\coap_asn1.c ****   *constructed = (byte & 0x20) ? 1 : 0;
 106              		.loc 1 43 3 is_stmt 1
 107              		.loc 1 43 36 is_stmt 0
 108 0008 13D55748 		bexti	a0,a5,5
 109              	.LVL10:
 110              		.loc 1 43 16
 111 000c 88C1     		sw	a0,0(a1)
  44:C:/Users/stapi/OneDrive/Desktop/GD32VW553/V1_MQTT_OK/GD32VW55X_Wifi_BLE_SDK/GD32VW55x_RELEASE_V1.0.2/MSDK/lwip/libcoap-4.3.4/src\coap_asn1.c ****   *cls = byte >> 6;
 112              		.loc 1 44 3 is_stmt 1
 113              		.loc 1 44 15 is_stmt 0
 114 000e 93D56700 		srli	a1,a5,6
 115              	.LVL11:
 116 0012 0CC2     		sw	a1,0(a2)
  45:C:/Users/stapi/OneDrive/Desktop/GD32VW553/V1_MQTT_OK/GD32VW55X_Wifi_BLE_SDK/GD32VW55x_RELEASE_V1.0.2/MSDK/lwip/libcoap-4.3.4/src\coap_asn1.c ****   tag = byte & 0x1F;
 117              		.loc 1 45 3 is_stmt 1
  46:C:/Users/stapi/OneDrive/Desktop/GD32VW553/V1_MQTT_OK/GD32VW55X_Wifi_BLE_SDK/GD32VW55x_RELEASE_V1.0.2/MSDK/lwip/libcoap-4.3.4/src\coap_asn1.c ****   (*ptr)++;
 118              		.loc 1 46 9 is_stmt 0
 119 0014 13861600 		addi	a2,a3,1
 120              	.LVL12:
 121 0018 10C3     		sw	a2,0(a4)
 122 001a FD8B     		andi	a5,a5,31
 123              	.LVL13:
 124              		.loc 1 46 3 is_stmt 1
  47:C:/Users/stapi/OneDrive/Desktop/GD32VW553/V1_MQTT_OK/GD32VW55X_Wifi_BLE_SDK/GD32VW55x_RELEASE_V1.0.2/MSDK/lwip/libcoap-4.3.4/src\coap_asn1.c ****   if (tag < 0x1F)
 125              		.loc 1 47 3
 126              		.loc 1 47 6 is_stmt 0
 127 001c 7D46     		li	a2,31
 128 001e 6384C700 		beq	a5,a2,.L7
  45:C:/Users/stapi/OneDrive/Desktop/GD32VW553/V1_MQTT_OK/GD32VW55X_Wifi_BLE_SDK/GD32VW55x_RELEASE_V1.0.2/MSDK/lwip/libcoap-4.3.4/src\coap_asn1.c ****   tag = byte & 0x1F;
 129              		.loc 1 45 7
 130 0022 3E85     		mv	a0,a5
 131 0024 8280     		ret
 132              	.L7:
  48:C:/Users/stapi/OneDrive/Desktop/GD32VW553/V1_MQTT_OK/GD32VW55X_Wifi_BLE_SDK/GD32VW55x_RELEASE_V1.0.2/MSDK/lwip/libcoap-4.3.4/src\coap_asn1.c ****     return tag;
  49:C:/Users/stapi/OneDrive/Desktop/GD32VW553/V1_MQTT_OK/GD32VW55X_Wifi_BLE_SDK/GD32VW55x_RELEASE_V1.0.2/MSDK/lwip/libcoap-4.3.4/src\coap_asn1.c **** 
  50:C:/Users/stapi/OneDrive/Desktop/GD32VW553/V1_MQTT_OK/GD32VW55X_Wifi_BLE_SDK/GD32VW55x_RELEASE_V1.0.2/MSDK/lwip/libcoap-4.3.4/src\coap_asn1.c ****   /* Tag can be one byte or more based on B8 */
  51:C:/Users/stapi/OneDrive/Desktop/GD32VW553/V1_MQTT_OK/GD32VW55X_Wifi_BLE_SDK/GD32VW55x_RELEASE_V1.0.2/MSDK/lwip/libcoap-4.3.4/src\coap_asn1.c ****   byte = (**ptr);
 133              		.loc 1 51 3 is_stmt 1
 134              		.loc 1 51 8 is_stmt 0
 135 0026 83C71600 		lbu	a5,1(a3)
 136              	.LVL14:
  52:C:/Users/stapi/OneDrive/Desktop/GD32VW553/V1_MQTT_OK/GD32VW55X_Wifi_BLE_SDK/GD32VW55x_RELEASE_V1.0.2/MSDK/lwip/libcoap-4.3.4/src\coap_asn1.c ****   while (byte & 0x80) {
 137              		.loc 1 52 3 is_stmt 1
  45:C:/Users/stapi/OneDrive/Desktop/GD32VW553/V1_MQTT_OK/GD32VW55X_Wifi_BLE_SDK/GD32VW55x_RELEASE_V1.0.2/MSDK/lwip/libcoap-4.3.4/src\coap_asn1.c ****   (*ptr)++;
 138              		.loc 1 45 7 is_stmt 0
 139 002a 7D45     		li	a0,31
 140              	.L9:
 141              	.LVL15:
 142              		.loc 1 52 9 is_stmt 1
  53:C:/Users/stapi/OneDrive/Desktop/GD32VW553/V1_MQTT_OK/GD32VW55X_Wifi_BLE_SDK/GD32VW55x_RELEASE_V1.0.2/MSDK/lwip/libcoap-4.3.4/src\coap_asn1.c ****     tag = (tag << 7) + (byte & 0x7F);
  54:C:/Users/stapi/OneDrive/Desktop/GD32VW553/V1_MQTT_OK/GD32VW55X_Wifi_BLE_SDK/GD32VW55x_RELEASE_V1.0.2/MSDK/lwip/libcoap-4.3.4/src\coap_asn1.c ****     (*ptr)++;
 143              		.loc 1 54 6 is_stmt 0
 144 002c 1043     		lw	a2,0(a4)
  53:C:/Users/stapi/OneDrive/Desktop/GD32VW553/V1_MQTT_OK/GD32VW55X_Wifi_BLE_SDK/GD32VW55x_RELEASE_V1.0.2/MSDK/lwip/libcoap-4.3.4/src\coap_asn1.c ****     tag = (tag << 7) + (byte & 0x7F);
 145              		.loc 1 53 16
 146 002e 1E05     		slli	a0,a0,7
 147              	.LVL16:
  52:C:/Users/stapi/OneDrive/Desktop/GD32VW553/V1_MQTT_OK/GD32VW55X_Wifi_BLE_SDK/GD32VW55x_RELEASE_V1.0.2/MSDK/lwip/libcoap-4.3.4/src\coap_asn1.c ****     tag = (tag << 7) + (byte & 0x7F);
 148              		.loc 1 52 9
 149 0030 93954760 		sext.b	a1,a5
 150              		.loc 1 54 11
 151 0034 93061600 		addi	a3,a2,1
  52:C:/Users/stapi/OneDrive/Desktop/GD32VW553/V1_MQTT_OK/GD32VW55X_Wifi_BLE_SDK/GD32VW55x_RELEASE_V1.0.2/MSDK/lwip/libcoap-4.3.4/src\coap_asn1.c ****     tag = (tag << 7) + (byte & 0x7F);
 152              		.loc 1 52 9
 153 0038 63C50500 		blt	a1,zero,.L10
  55:C:/Users/stapi/OneDrive/Desktop/GD32VW553/V1_MQTT_OK/GD32VW55X_Wifi_BLE_SDK/GD32VW55x_RELEASE_V1.0.2/MSDK/lwip/libcoap-4.3.4/src\coap_asn1.c ****     byte = (**ptr);
  56:C:/Users/stapi/OneDrive/Desktop/GD32VW553/V1_MQTT_OK/GD32VW55X_Wifi_BLE_SDK/GD32VW55x_RELEASE_V1.0.2/MSDK/lwip/libcoap-4.3.4/src\coap_asn1.c ****   }
  57:C:/Users/stapi/OneDrive/Desktop/GD32VW553/V1_MQTT_OK/GD32VW55X_Wifi_BLE_SDK/GD32VW55x_RELEASE_V1.0.2/MSDK/lwip/libcoap-4.3.4/src\coap_asn1.c ****   /* Do the final one */
  58:C:/Users/stapi/OneDrive/Desktop/GD32VW553/V1_MQTT_OK/GD32VW55X_Wifi_BLE_SDK/GD32VW55x_RELEASE_V1.0.2/MSDK/lwip/libcoap-4.3.4/src\coap_asn1.c ****   tag = (tag << 7) + (byte & 0x7F);
 154              		.loc 1 58 3 is_stmt 1
 155              		.loc 1 58 7 is_stmt 0
 156 003c 3E95     		add	a0,a5,a0
 157              	.LVL17:
  59:C:/Users/stapi/OneDrive/Desktop/GD32VW553/V1_MQTT_OK/GD32VW55X_Wifi_BLE_SDK/GD32VW55x_RELEASE_V1.0.2/MSDK/lwip/libcoap-4.3.4/src\coap_asn1.c ****   (*ptr)++;
 158              		.loc 1 59 3 is_stmt 1
 159              		.loc 1 59 9 is_stmt 0
 160 003e 14C3     		sw	a3,0(a4)
  60:C:/Users/stapi/OneDrive/Desktop/GD32VW553/V1_MQTT_OK/GD32VW55X_Wifi_BLE_SDK/GD32VW55x_RELEASE_V1.0.2/MSDK/lwip/libcoap-4.3.4/src\coap_asn1.c ****   return tag;
 161              		.loc 1 60 3 is_stmt 1
  61:C:/Users/stapi/OneDrive/Desktop/GD32VW553/V1_MQTT_OK/GD32VW55X_Wifi_BLE_SDK/GD32VW55x_RELEASE_V1.0.2/MSDK/lwip/libcoap-4.3.4/src\coap_asn1.c **** }
 162              		.loc 1 61 1 is_stmt 0
 163 0040 8280     		ret
 164              	.LVL18:
 165              	.L10:
  53:C:/Users/stapi/OneDrive/Desktop/GD32VW553/V1_MQTT_OK/GD32VW55X_Wifi_BLE_SDK/GD32VW55x_RELEASE_V1.0.2/MSDK/lwip/libcoap-4.3.4/src\coap_asn1.c ****     (*ptr)++;
 166              		.loc 1 53 5 is_stmt 1
  53:C:/Users/stapi/OneDrive/Desktop/GD32VW553/V1_MQTT_OK/GD32VW55X_Wifi_BLE_SDK/GD32VW55x_RELEASE_V1.0.2/MSDK/lwip/libcoap-4.3.4/src\coap_asn1.c ****     (*ptr)++;
 167              		.loc 1 53 30 is_stmt 0
 168 0042 93F7F707 		andi	a5,a5,127
 169              	.LVL19:
  54:C:/Users/stapi/OneDrive/Desktop/GD32VW553/V1_MQTT_OK/GD32VW55X_Wifi_BLE_SDK/GD32VW55x_RELEASE_V1.0.2/MSDK/lwip/libcoap-4.3.4/src\coap_asn1.c ****     byte = (**ptr);
 170              		.loc 1 54 11
 171 0046 14C3     		sw	a3,0(a4)
  53:C:/Users/stapi/OneDrive/Desktop/GD32VW553/V1_MQTT_OK/GD32VW55X_Wifi_BLE_SDK/GD32VW55x_RELEASE_V1.0.2/MSDK/lwip/libcoap-4.3.4/src\coap_asn1.c ****     (*ptr)++;
 172              		.loc 1 53 9
 173 0048 3E95     		add	a0,a5,a0
 174              	.LVL20:
  54:C:/Users/stapi/OneDrive/Desktop/GD32VW553/V1_MQTT_OK/GD32VW55X_Wifi_BLE_SDK/GD32VW55x_RELEASE_V1.0.2/MSDK/lwip/libcoap-4.3.4/src\coap_asn1.c ****     byte = (**ptr);
 175              		.loc 1 54 5 is_stmt 1
  55:C:/Users/stapi/OneDrive/Desktop/GD32VW553/V1_MQTT_OK/GD32VW55X_Wifi_BLE_SDK/GD32VW55x_RELEASE_V1.0.2/MSDK/lwip/libcoap-4.3.4/src\coap_asn1.c ****   }
 176              		.loc 1 55 5
  55:C:/Users/stapi/OneDrive/Desktop/GD32VW553/V1_MQTT_OK/GD32VW55X_Wifi_BLE_SDK/GD32VW55x_RELEASE_V1.0.2/MSDK/lwip/libcoap-4.3.4/src\coap_asn1.c ****   }
 177              		.loc 1 55 10 is_stmt 0
 178 004a 83471600 		lbu	a5,1(a2)
 179              	.LVL21:
 180 004e F9BF     		j	.L9
 181              		.cfi_endproc
 182              	.LFE32:
 184              		.section	.text.get_asn1_tag,"ax",@progbits
 185              		.align	1
 186              		.globl	get_asn1_tag
 188              	get_asn1_tag:
 189              	.LFB33:
  62:C:/Users/stapi/OneDrive/Desktop/GD32VW553/V1_MQTT_OK/GD32VW55X_Wifi_BLE_SDK/GD32VW55x_RELEASE_V1.0.2/MSDK/lwip/libcoap-4.3.4/src\coap_asn1.c **** 
  63:C:/Users/stapi/OneDrive/Desktop/GD32VW553/V1_MQTT_OK/GD32VW55X_Wifi_BLE_SDK/GD32VW55x_RELEASE_V1.0.2/MSDK/lwip/libcoap-4.3.4/src\coap_asn1.c **** /* caller must free off returned coap_binary_t* */
  64:C:/Users/stapi/OneDrive/Desktop/GD32VW553/V1_MQTT_OK/GD32VW55X_Wifi_BLE_SDK/GD32VW55x_RELEASE_V1.0.2/MSDK/lwip/libcoap-4.3.4/src\coap_asn1.c **** coap_binary_t *
  65:C:/Users/stapi/OneDrive/Desktop/GD32VW553/V1_MQTT_OK/GD32VW55X_Wifi_BLE_SDK/GD32VW55x_RELEASE_V1.0.2/MSDK/lwip/libcoap-4.3.4/src\coap_asn1.c **** get_asn1_tag(coap_asn1_tag_t ltag, const uint8_t *ptr, size_t tlen,
  66:C:/Users/stapi/OneDrive/Desktop/GD32VW553/V1_MQTT_OK/GD32VW55X_Wifi_BLE_SDK/GD32VW55x_RELEASE_V1.0.2/MSDK/lwip/libcoap-4.3.4/src\coap_asn1.c ****              asn1_validate validate) {
 190              		.loc 1 66 38 is_stmt 1
 191              		.cfi_startproc
 192              	.LVL22:
 193 0000 17030000 		call	t0,__riscv_save_8
 193      E7020300 
 194              		.cfi_offset 23, -36
 195              		.cfi_offset 22, -32
 196              		.cfi_offset 21, -28
 197              		.cfi_offset 20, -24
 198              		.cfi_offset 19, -20
 199              		.cfi_offset 18, -16
 200              		.cfi_offset 9, -12
 201              		.cfi_offset 8, -8
 202              		.cfi_offset 1, -4
 203              		.cfi_def_cfa_offset 48
  67:C:/Users/stapi/OneDrive/Desktop/GD32VW553/V1_MQTT_OK/GD32VW55X_Wifi_BLE_SDK/GD32VW55x_RELEASE_V1.0.2/MSDK/lwip/libcoap-4.3.4/src\coap_asn1.c ****   int constructed;
 204              		.loc 1 67 3
  68:C:/Users/stapi/OneDrive/Desktop/GD32VW553/V1_MQTT_OK/GD32VW55X_Wifi_BLE_SDK/GD32VW55x_RELEASE_V1.0.2/MSDK/lwip/libcoap-4.3.4/src\coap_asn1.c ****   int class;
 205              		.loc 1 68 3
  69:C:/Users/stapi/OneDrive/Desktop/GD32VW553/V1_MQTT_OK/GD32VW55X_Wifi_BLE_SDK/GD32VW55x_RELEASE_V1.0.2/MSDK/lwip/libcoap-4.3.4/src\coap_asn1.c ****   const uint8_t *acp = ptr;
 206              		.loc 1 69 3
  66:C:/Users/stapi/OneDrive/Desktop/GD32VW553/V1_MQTT_OK/GD32VW55X_Wifi_BLE_SDK/GD32VW55x_RELEASE_V1.0.2/MSDK/lwip/libcoap-4.3.4/src\coap_asn1.c ****   int constructed;
 207              		.loc 1 66 38 is_stmt 0
 208 0008 4111     		addi	sp,sp,-16
 209              		.cfi_def_cfa_offset 64
 210              		.loc 1 69 18
 211 000a 2EC6     		sw	a1,12(sp)
  70:C:/Users/stapi/OneDrive/Desktop/GD32VW553/V1_MQTT_OK/GD32VW55X_Wifi_BLE_SDK/GD32VW55x_RELEASE_V1.0.2/MSDK/lwip/libcoap-4.3.4/src\coap_asn1.c ****   uint8_t tag = asn1_tag_c(&acp, &constructed, &class);
 212              		.loc 1 70 3 is_stmt 1
  66:C:/Users/stapi/OneDrive/Desktop/GD32VW553/V1_MQTT_OK/GD32VW55X_Wifi_BLE_SDK/GD32VW55x_RELEASE_V1.0.2/MSDK/lwip/libcoap-4.3.4/src\coap_asn1.c ****   int constructed;
 213              		.loc 1 66 38 is_stmt 0
 214 000c 2A8A     		mv	s4,a0
 215              		.loc 1 70 17
 216 000e 4C00     		addi	a1,sp,4
 217              	.LVL23:
  66:C:/Users/stapi/OneDrive/Desktop/GD32VW553/V1_MQTT_OK/GD32VW55X_Wifi_BLE_SDK/GD32VW55x_RELEASE_V1.0.2/MSDK/lwip/libcoap-4.3.4/src\coap_asn1.c ****   int constructed;
 218              		.loc 1 66 38
 219 0010 3289     		mv	s2,a2
 220              		.loc 1 70 17
 221 0012 6800     		addi	a0,sp,12
 222              	.LVL24:
 223 0014 3000     		addi	a2,sp,8
 224              	.LVL25:
  66:C:/Users/stapi/OneDrive/Desktop/GD32VW553/V1_MQTT_OK/GD32VW55X_Wifi_BLE_SDK/GD32VW55x_RELEASE_V1.0.2/MSDK/lwip/libcoap-4.3.4/src\coap_asn1.c ****   int constructed;
 225              		.loc 1 66 38
 226 0016 B689     		mv	s3,a3
 227              		.loc 1 70 17
 228 0018 97000000 		call	asn1_tag_c
 228      E7800000 
 229              	.LVL26:
 230              		.loc 1 70 11
 231 0020 9374F50F 		andi	s1,a0,0xff
 232              	.LVL27:
  71:C:/Users/stapi/OneDrive/Desktop/GD32VW553/V1_MQTT_OK/GD32VW55X_Wifi_BLE_SDK/GD32VW55x_RELEASE_V1.0.2/MSDK/lwip/libcoap-4.3.4/src\coap_asn1.c ****   size_t len = asn1_len(&acp);
 233              		.loc 1 71 3 is_stmt 1
 234              		.loc 1 71 16 is_stmt 0
 235 0024 6800     		addi	a0,sp,12
 236 0026 97000000 		call	asn1_len
 236      E7800000 
 237              	.LVL28:
 238 002e 2A84     		mv	s0,a0
 239              	.LVL29:
  72:C:/Users/stapi/OneDrive/Desktop/GD32VW553/V1_MQTT_OK/GD32VW55X_Wifi_BLE_SDK/GD32VW55x_RELEASE_V1.0.2/MSDK/lwip/libcoap-4.3.4/src\coap_asn1.c ****   coap_binary_t *tag_data;
 240              		.loc 1 72 3 is_stmt 1
  73:C:/Users/stapi/OneDrive/Desktop/GD32VW553/V1_MQTT_OK/GD32VW55X_Wifi_BLE_SDK/GD32VW55x_RELEASE_V1.0.2/MSDK/lwip/libcoap-4.3.4/src\coap_asn1.c **** 
  74:C:/Users/stapi/OneDrive/Desktop/GD32VW553/V1_MQTT_OK/GD32VW55X_Wifi_BLE_SDK/GD32VW55x_RELEASE_V1.0.2/MSDK/lwip/libcoap-4.3.4/src\coap_asn1.c ****   while (tlen > 0 && len <= tlen) {
 241              		.loc 1 74 3
  75:C:/Users/stapi/OneDrive/Desktop/GD32VW553/V1_MQTT_OK/GD32VW55X_Wifi_BLE_SDK/GD32VW55x_RELEASE_V1.0.2/MSDK/lwip/libcoap-4.3.4/src\coap_asn1.c ****     if (class == 2 && constructed == 1) {
 242              		.loc 1 75 8 is_stmt 0
 243 0030 094B     		li	s6,2
 244              		.loc 1 75 20
 245 0032 854A     		li	s5,1
  76:C:/Users/stapi/OneDrive/Desktop/GD32VW553/V1_MQTT_OK/GD32VW55X_Wifi_BLE_SDK/GD32VW55x_RELEASE_V1.0.2/MSDK/lwip/libcoap-4.3.4/src\coap_asn1.c ****       /* Skip over element description */
  77:C:/Users/stapi/OneDrive/Desktop/GD32VW553/V1_MQTT_OK/GD32VW55X_Wifi_BLE_SDK/GD32VW55x_RELEASE_V1.0.2/MSDK/lwip/libcoap-4.3.4/src\coap_asn1.c ****       tag = asn1_tag_c(&acp, &constructed, &class);
  78:C:/Users/stapi/OneDrive/Desktop/GD32VW553/V1_MQTT_OK/GD32VW55X_Wifi_BLE_SDK/GD32VW55x_RELEASE_V1.0.2/MSDK/lwip/libcoap-4.3.4/src\coap_asn1.c ****       len = asn1_len(&acp);
  79:C:/Users/stapi/OneDrive/Desktop/GD32VW553/V1_MQTT_OK/GD32VW55X_Wifi_BLE_SDK/GD32VW55x_RELEASE_V1.0.2/MSDK/lwip/libcoap-4.3.4/src\coap_asn1.c ****     }
  80:C:/Users/stapi/OneDrive/Desktop/GD32VW553/V1_MQTT_OK/GD32VW55X_Wifi_BLE_SDK/GD32VW55x_RELEASE_V1.0.2/MSDK/lwip/libcoap-4.3.4/src\coap_asn1.c ****     if (tag == ltag) {
  81:C:/Users/stapi/OneDrive/Desktop/GD32VW553/V1_MQTT_OK/GD32VW55X_Wifi_BLE_SDK/GD32VW55x_RELEASE_V1.0.2/MSDK/lwip/libcoap-4.3.4/src\coap_asn1.c ****       if (!validate || validate(acp, len)) {
  82:C:/Users/stapi/OneDrive/Desktop/GD32VW553/V1_MQTT_OK/GD32VW55X_Wifi_BLE_SDK/GD32VW55x_RELEASE_V1.0.2/MSDK/lwip/libcoap-4.3.4/src\coap_asn1.c ****         tag_data = coap_new_binary(len);
  83:C:/Users/stapi/OneDrive/Desktop/GD32VW553/V1_MQTT_OK/GD32VW55X_Wifi_BLE_SDK/GD32VW55x_RELEASE_V1.0.2/MSDK/lwip/libcoap-4.3.4/src\coap_asn1.c ****         if (tag_data == NULL)
  84:C:/Users/stapi/OneDrive/Desktop/GD32VW553/V1_MQTT_OK/GD32VW55X_Wifi_BLE_SDK/GD32VW55x_RELEASE_V1.0.2/MSDK/lwip/libcoap-4.3.4/src\coap_asn1.c ****           return NULL;
  85:C:/Users/stapi/OneDrive/Desktop/GD32VW553/V1_MQTT_OK/GD32VW55X_Wifi_BLE_SDK/GD32VW55x_RELEASE_V1.0.2/MSDK/lwip/libcoap-4.3.4/src\coap_asn1.c ****         tag_data->length = len;
  86:C:/Users/stapi/OneDrive/Desktop/GD32VW553/V1_MQTT_OK/GD32VW55X_Wifi_BLE_SDK/GD32VW55x_RELEASE_V1.0.2/MSDK/lwip/libcoap-4.3.4/src\coap_asn1.c ****         memcpy(tag_data->s, acp, len);
  87:C:/Users/stapi/OneDrive/Desktop/GD32VW553/V1_MQTT_OK/GD32VW55X_Wifi_BLE_SDK/GD32VW55x_RELEASE_V1.0.2/MSDK/lwip/libcoap-4.3.4/src\coap_asn1.c ****         return tag_data;
  88:C:/Users/stapi/OneDrive/Desktop/GD32VW553/V1_MQTT_OK/GD32VW55X_Wifi_BLE_SDK/GD32VW55x_RELEASE_V1.0.2/MSDK/lwip/libcoap-4.3.4/src\coap_asn1.c ****       }
  89:C:/Users/stapi/OneDrive/Desktop/GD32VW553/V1_MQTT_OK/GD32VW55X_Wifi_BLE_SDK/GD32VW55x_RELEASE_V1.0.2/MSDK/lwip/libcoap-4.3.4/src\coap_asn1.c ****     }
  90:C:/Users/stapi/OneDrive/Desktop/GD32VW553/V1_MQTT_OK/GD32VW55X_Wifi_BLE_SDK/GD32VW55x_RELEASE_V1.0.2/MSDK/lwip/libcoap-4.3.4/src\coap_asn1.c ****     if (tag == 0x10 && constructed == 1) {
 246              		.loc 1 90 8
 247 0034 C14B     		li	s7,16
 248              	.L12:
  74:C:/Users/stapi/OneDrive/Desktop/GD32VW553/V1_MQTT_OK/GD32VW55X_Wifi_BLE_SDK/GD32VW55x_RELEASE_V1.0.2/MSDK/lwip/libcoap-4.3.4/src\coap_asn1.c ****     if (class == 2 && constructed == 1) {
 249              		.loc 1 74 9 is_stmt 1
 250 0036 63040900 		beq	s2,zero,.L22
  74:C:/Users/stapi/OneDrive/Desktop/GD32VW553/V1_MQTT_OK/GD32VW55X_Wifi_BLE_SDK/GD32VW55x_RELEASE_V1.0.2/MSDK/lwip/libcoap-4.3.4/src\coap_asn1.c ****     if (class == 2 && constructed == 1) {
 251              		.loc 1 74 19 is_stmt 0 discriminator 1
 252 003a 63748900 		bgeu	s2,s0,.L21
 253              	.L22:
  91:C:/Users/stapi/OneDrive/Desktop/GD32VW553/V1_MQTT_OK/GD32VW55X_Wifi_BLE_SDK/GD32VW55x_RELEASE_V1.0.2/MSDK/lwip/libcoap-4.3.4/src\coap_asn1.c ****       /* SEQUENCE or SEQUENCE OF */
  92:C:/Users/stapi/OneDrive/Desktop/GD32VW553/V1_MQTT_OK/GD32VW55X_Wifi_BLE_SDK/GD32VW55x_RELEASE_V1.0.2/MSDK/lwip/libcoap-4.3.4/src\coap_asn1.c ****       tag_data = get_asn1_tag(ltag, acp, len, validate);
  93:C:/Users/stapi/OneDrive/Desktop/GD32VW553/V1_MQTT_OK/GD32VW55X_Wifi_BLE_SDK/GD32VW55x_RELEASE_V1.0.2/MSDK/lwip/libcoap-4.3.4/src\coap_asn1.c ****       if (tag_data)
  94:C:/Users/stapi/OneDrive/Desktop/GD32VW553/V1_MQTT_OK/GD32VW55X_Wifi_BLE_SDK/GD32VW55x_RELEASE_V1.0.2/MSDK/lwip/libcoap-4.3.4/src\coap_asn1.c ****         return tag_data;
  95:C:/Users/stapi/OneDrive/Desktop/GD32VW553/V1_MQTT_OK/GD32VW55X_Wifi_BLE_SDK/GD32VW55x_RELEASE_V1.0.2/MSDK/lwip/libcoap-4.3.4/src\coap_asn1.c ****     }
  96:C:/Users/stapi/OneDrive/Desktop/GD32VW553/V1_MQTT_OK/GD32VW55X_Wifi_BLE_SDK/GD32VW55x_RELEASE_V1.0.2/MSDK/lwip/libcoap-4.3.4/src\coap_asn1.c ****     acp += len;
  97:C:/Users/stapi/OneDrive/Desktop/GD32VW553/V1_MQTT_OK/GD32VW55X_Wifi_BLE_SDK/GD32VW55x_RELEASE_V1.0.2/MSDK/lwip/libcoap-4.3.4/src\coap_asn1.c ****     tlen -= len;
  98:C:/Users/stapi/OneDrive/Desktop/GD32VW553/V1_MQTT_OK/GD32VW55X_Wifi_BLE_SDK/GD32VW55x_RELEASE_V1.0.2/MSDK/lwip/libcoap-4.3.4/src\coap_asn1.c ****     tag = asn1_tag_c(&acp, &constructed, &class);
  99:C:/Users/stapi/OneDrive/Desktop/GD32VW553/V1_MQTT_OK/GD32VW55X_Wifi_BLE_SDK/GD32VW55x_RELEASE_V1.0.2/MSDK/lwip/libcoap-4.3.4/src\coap_asn1.c ****     len = asn1_len(&acp);
 100:C:/Users/stapi/OneDrive/Desktop/GD32VW553/V1_MQTT_OK/GD32VW55X_Wifi_BLE_SDK/GD32VW55x_RELEASE_V1.0.2/MSDK/lwip/libcoap-4.3.4/src\coap_asn1.c ****   }
 101:C:/Users/stapi/OneDrive/Desktop/GD32VW553/V1_MQTT_OK/GD32VW55X_Wifi_BLE_SDK/GD32VW55x_RELEASE_V1.0.2/MSDK/lwip/libcoap-4.3.4/src\coap_asn1.c ****   return NULL;
 254              		.loc 1 101 10
 255 003e 8144     		li	s1,0
 256              	.LVL30:
 257 0040 89A0     		j	.L11
 258              	.LVL31:
 259              	.L21:
  75:C:/Users/stapi/OneDrive/Desktop/GD32VW553/V1_MQTT_OK/GD32VW55X_Wifi_BLE_SDK/GD32VW55x_RELEASE_V1.0.2/MSDK/lwip/libcoap-4.3.4/src\coap_asn1.c ****       /* Skip over element description */
 260              		.loc 1 75 5 is_stmt 1
  75:C:/Users/stapi/OneDrive/Desktop/GD32VW553/V1_MQTT_OK/GD32VW55X_Wifi_BLE_SDK/GD32VW55x_RELEASE_V1.0.2/MSDK/lwip/libcoap-4.3.4/src\coap_asn1.c ****       /* Skip over element description */
 261              		.loc 1 75 8 is_stmt 0
 262 0042 A247     		lw	a5,8(sp)
 263 0044 63946703 		bne	a5,s6,.L13
  75:C:/Users/stapi/OneDrive/Desktop/GD32VW553/V1_MQTT_OK/GD32VW55X_Wifi_BLE_SDK/GD32VW55x_RELEASE_V1.0.2/MSDK/lwip/libcoap-4.3.4/src\coap_asn1.c ****       /* Skip over element description */
 264              		.loc 1 75 20 discriminator 1
 265 0048 9247     		lw	a5,4(sp)
 266 004a 63915703 		bne	a5,s5,.L13
  77:C:/Users/stapi/OneDrive/Desktop/GD32VW553/V1_MQTT_OK/GD32VW55X_Wifi_BLE_SDK/GD32VW55x_RELEASE_V1.0.2/MSDK/lwip/libcoap-4.3.4/src\coap_asn1.c ****       len = asn1_len(&acp);
 267              		.loc 1 77 7 is_stmt 1
  77:C:/Users/stapi/OneDrive/Desktop/GD32VW553/V1_MQTT_OK/GD32VW55X_Wifi_BLE_SDK/GD32VW55x_RELEASE_V1.0.2/MSDK/lwip/libcoap-4.3.4/src\coap_asn1.c ****       len = asn1_len(&acp);
 268              		.loc 1 77 13 is_stmt 0
 269 004e 3000     		addi	a2,sp,8
 270 0050 4C00     		addi	a1,sp,4
 271 0052 6800     		addi	a0,sp,12
 272 0054 97000000 		call	asn1_tag_c
 272      E7800000 
 273              	.LVL32:
  77:C:/Users/stapi/OneDrive/Desktop/GD32VW553/V1_MQTT_OK/GD32VW55X_Wifi_BLE_SDK/GD32VW55x_RELEASE_V1.0.2/MSDK/lwip/libcoap-4.3.4/src\coap_asn1.c ****       len = asn1_len(&acp);
 274              		.loc 1 77 11
 275 005c 9374F50F 		andi	s1,a0,0xff
 276              	.LVL33:
  78:C:/Users/stapi/OneDrive/Desktop/GD32VW553/V1_MQTT_OK/GD32VW55X_Wifi_BLE_SDK/GD32VW55x_RELEASE_V1.0.2/MSDK/lwip/libcoap-4.3.4/src\coap_asn1.c ****     }
 277              		.loc 1 78 7 is_stmt 1
  78:C:/Users/stapi/OneDrive/Desktop/GD32VW553/V1_MQTT_OK/GD32VW55X_Wifi_BLE_SDK/GD32VW55x_RELEASE_V1.0.2/MSDK/lwip/libcoap-4.3.4/src\coap_asn1.c ****     }
 278              		.loc 1 78 13 is_stmt 0
 279 0060 6800     		addi	a0,sp,12
 280 0062 97000000 		call	asn1_len
 280      E7800000 
 281              	.LVL34:
 282 006a 2A84     		mv	s0,a0
 283              	.LVL35:
 284              	.L13:
  80:C:/Users/stapi/OneDrive/Desktop/GD32VW553/V1_MQTT_OK/GD32VW55X_Wifi_BLE_SDK/GD32VW55x_RELEASE_V1.0.2/MSDK/lwip/libcoap-4.3.4/src\coap_asn1.c ****       if (!validate || validate(acp, len)) {
 285              		.loc 1 80 5 is_stmt 1
  80:C:/Users/stapi/OneDrive/Desktop/GD32VW553/V1_MQTT_OK/GD32VW55X_Wifi_BLE_SDK/GD32VW55x_RELEASE_V1.0.2/MSDK/lwip/libcoap-4.3.4/src\coap_asn1.c ****       if (!validate || validate(acp, len)) {
 286              		.loc 1 80 8 is_stmt 0
 287 006c 63954403 		bne	s1,s4,.L14
  81:C:/Users/stapi/OneDrive/Desktop/GD32VW553/V1_MQTT_OK/GD32VW55X_Wifi_BLE_SDK/GD32VW55x_RELEASE_V1.0.2/MSDK/lwip/libcoap-4.3.4/src\coap_asn1.c ****         tag_data = coap_new_binary(len);
 288              		.loc 1 81 7 is_stmt 1
  81:C:/Users/stapi/OneDrive/Desktop/GD32VW553/V1_MQTT_OK/GD32VW55X_Wifi_BLE_SDK/GD32VW55x_RELEASE_V1.0.2/MSDK/lwip/libcoap-4.3.4/src\coap_asn1.c ****         tag_data = coap_new_binary(len);
 289              		.loc 1 81 10 is_stmt 0
 290 0070 639F0900 		bne	s3,zero,.L15
 291              	.L18:
  82:C:/Users/stapi/OneDrive/Desktop/GD32VW553/V1_MQTT_OK/GD32VW55X_Wifi_BLE_SDK/GD32VW55x_RELEASE_V1.0.2/MSDK/lwip/libcoap-4.3.4/src\coap_asn1.c ****         if (tag_data == NULL)
 292              		.loc 1 82 9 is_stmt 1
  82:C:/Users/stapi/OneDrive/Desktop/GD32VW553/V1_MQTT_OK/GD32VW55X_Wifi_BLE_SDK/GD32VW55x_RELEASE_V1.0.2/MSDK/lwip/libcoap-4.3.4/src\coap_asn1.c ****         if (tag_data == NULL)
 293              		.loc 1 82 20 is_stmt 0
 294 0074 2285     		mv	a0,s0
 295 0076 97000000 		call	coap_new_binary
 295      E7800000 
 296              	.LVL36:
 297 007e AA84     		mv	s1,a0
 298              	.LVL37:
  83:C:/Users/stapi/OneDrive/Desktop/GD32VW553/V1_MQTT_OK/GD32VW55X_Wifi_BLE_SDK/GD32VW55x_RELEASE_V1.0.2/MSDK/lwip/libcoap-4.3.4/src\coap_asn1.c ****           return NULL;
 299              		.loc 1 83 9 is_stmt 1
  83:C:/Users/stapi/OneDrive/Desktop/GD32VW553/V1_MQTT_OK/GD32VW55X_Wifi_BLE_SDK/GD32VW55x_RELEASE_V1.0.2/MSDK/lwip/libcoap-4.3.4/src\coap_asn1.c ****           return NULL;
 300              		.loc 1 83 12 is_stmt 0
 301 0080 31E1     		bne	a0,zero,.L26
 302              	.LVL38:
 303              	.L11:
 102:C:/Users/stapi/OneDrive/Desktop/GD32VW553/V1_MQTT_OK/GD32VW55X_Wifi_BLE_SDK/GD32VW55x_RELEASE_V1.0.2/MSDK/lwip/libcoap-4.3.4/src\coap_asn1.c **** }
 304              		.loc 1 102 1
 305 0082 2685     		mv	a0,s1
 306 0084 4101     		addi	sp,sp,16
 307              		.cfi_remember_state
 308              		.cfi_def_cfa_offset 0
 309 0086 17030000 		tail	__riscv_restore_8
 309      67000300 
 310              		.cfi_restore 23
 311              		.cfi_restore 22
 312              		.cfi_restore 21
 313              		.cfi_restore 20
 314              		.cfi_restore 19
 315              		.cfi_restore 18
 316              		.cfi_restore 9
 317              		.cfi_restore 8
 318              		.cfi_restore 1
 319              		.cfi_def_cfa_offset -48
 320              	.LVL39:
 321              	.L15:
 322              		.cfi_restore_state
  81:C:/Users/stapi/OneDrive/Desktop/GD32VW553/V1_MQTT_OK/GD32VW55X_Wifi_BLE_SDK/GD32VW55x_RELEASE_V1.0.2/MSDK/lwip/libcoap-4.3.4/src\coap_asn1.c ****         tag_data = coap_new_binary(len);
 323              		.loc 1 81 24 discriminator 1
 324 008e 3245     		lw	a0,12(sp)
 325 0090 A285     		mv	a1,s0
 326 0092 8299     		jalr	s3
 327              	.LVL40:
  81:C:/Users/stapi/OneDrive/Desktop/GD32VW553/V1_MQTT_OK/GD32VW55X_Wifi_BLE_SDK/GD32VW55x_RELEASE_V1.0.2/MSDK/lwip/libcoap-4.3.4/src\coap_asn1.c ****         tag_data = coap_new_binary(len);
 328              		.loc 1 81 21 discriminator 1
 329 0094 65F1     		bne	a0,zero,.L18
 330              	.L14:
  90:C:/Users/stapi/OneDrive/Desktop/GD32VW553/V1_MQTT_OK/GD32VW55X_Wifi_BLE_SDK/GD32VW55x_RELEASE_V1.0.2/MSDK/lwip/libcoap-4.3.4/src\coap_asn1.c ****       /* SEQUENCE or SEQUENCE OF */
 331              		.loc 1 90 5 is_stmt 1
  90:C:/Users/stapi/OneDrive/Desktop/GD32VW553/V1_MQTT_OK/GD32VW55X_Wifi_BLE_SDK/GD32VW55x_RELEASE_V1.0.2/MSDK/lwip/libcoap-4.3.4/src\coap_asn1.c ****       /* SEQUENCE or SEQUENCE OF */
 332              		.loc 1 90 8 is_stmt 0
 333 0096 63807405 		beq	s1,s7,.L19
 334              	.LVL41:
 335              	.L20:
  96:C:/Users/stapi/OneDrive/Desktop/GD32VW553/V1_MQTT_OK/GD32VW55X_Wifi_BLE_SDK/GD32VW55x_RELEASE_V1.0.2/MSDK/lwip/libcoap-4.3.4/src\coap_asn1.c ****     tlen -= len;
 336              		.loc 1 96 5 is_stmt 1
  96:C:/Users/stapi/OneDrive/Desktop/GD32VW553/V1_MQTT_OK/GD32VW55X_Wifi_BLE_SDK/GD32VW55x_RELEASE_V1.0.2/MSDK/lwip/libcoap-4.3.4/src\coap_asn1.c ****     tlen -= len;
 337              		.loc 1 96 9 is_stmt 0
 338 009a B247     		lw	a5,12(sp)
  98:C:/Users/stapi/OneDrive/Desktop/GD32VW553/V1_MQTT_OK/GD32VW55X_Wifi_BLE_SDK/GD32VW55x_RELEASE_V1.0.2/MSDK/lwip/libcoap-4.3.4/src\coap_asn1.c ****     len = asn1_len(&acp);
 339              		.loc 1 98 11
 340 009c 3000     		addi	a2,sp,8
 341 009e 4C00     		addi	a1,sp,4
  96:C:/Users/stapi/OneDrive/Desktop/GD32VW553/V1_MQTT_OK/GD32VW55X_Wifi_BLE_SDK/GD32VW55x_RELEASE_V1.0.2/MSDK/lwip/libcoap-4.3.4/src\coap_asn1.c ****     tlen -= len;
 342              		.loc 1 96 9
 343 00a0 A297     		add	a5,a5,s0
  98:C:/Users/stapi/OneDrive/Desktop/GD32VW553/V1_MQTT_OK/GD32VW55X_Wifi_BLE_SDK/GD32VW55x_RELEASE_V1.0.2/MSDK/lwip/libcoap-4.3.4/src\coap_asn1.c ****     len = asn1_len(&acp);
 344              		.loc 1 98 11
 345 00a2 6800     		addi	a0,sp,12
  96:C:/Users/stapi/OneDrive/Desktop/GD32VW553/V1_MQTT_OK/GD32VW55X_Wifi_BLE_SDK/GD32VW55x_RELEASE_V1.0.2/MSDK/lwip/libcoap-4.3.4/src\coap_asn1.c ****     tlen -= len;
 346              		.loc 1 96 9
 347 00a4 3EC6     		sw	a5,12(sp)
  97:C:/Users/stapi/OneDrive/Desktop/GD32VW553/V1_MQTT_OK/GD32VW55X_Wifi_BLE_SDK/GD32VW55x_RELEASE_V1.0.2/MSDK/lwip/libcoap-4.3.4/src\coap_asn1.c ****     tag = asn1_tag_c(&acp, &constructed, &class);
 348              		.loc 1 97 5 is_stmt 1
  98:C:/Users/stapi/OneDrive/Desktop/GD32VW553/V1_MQTT_OK/GD32VW55X_Wifi_BLE_SDK/GD32VW55x_RELEASE_V1.0.2/MSDK/lwip/libcoap-4.3.4/src\coap_asn1.c ****     len = asn1_len(&acp);
 349              		.loc 1 98 11 is_stmt 0
 350 00a6 97000000 		call	asn1_tag_c
 350      E7800000 
 351              	.LVL42:
  98:C:/Users/stapi/OneDrive/Desktop/GD32VW553/V1_MQTT_OK/GD32VW55X_Wifi_BLE_SDK/GD32VW55x_RELEASE_V1.0.2/MSDK/lwip/libcoap-4.3.4/src\coap_asn1.c ****     len = asn1_len(&acp);
 352              		.loc 1 98 9
 353 00ae 9374F50F 		andi	s1,a0,0xff
  99:C:/Users/stapi/OneDrive/Desktop/GD32VW553/V1_MQTT_OK/GD32VW55X_Wifi_BLE_SDK/GD32VW55x_RELEASE_V1.0.2/MSDK/lwip/libcoap-4.3.4/src\coap_asn1.c ****   }
 354              		.loc 1 99 11
 355 00b2 6800     		addi	a0,sp,12
 356 00b4 97000000 		call	asn1_len
 356      E7800000 
 357              	.LVL43:
  97:C:/Users/stapi/OneDrive/Desktop/GD32VW553/V1_MQTT_OK/GD32VW55X_Wifi_BLE_SDK/GD32VW55x_RELEASE_V1.0.2/MSDK/lwip/libcoap-4.3.4/src\coap_asn1.c ****     tag = asn1_tag_c(&acp, &constructed, &class);
 358              		.loc 1 97 10
 359 00bc 33098940 		sub	s2,s2,s0
 360              	.LVL44:
  98:C:/Users/stapi/OneDrive/Desktop/GD32VW553/V1_MQTT_OK/GD32VW55X_Wifi_BLE_SDK/GD32VW55x_RELEASE_V1.0.2/MSDK/lwip/libcoap-4.3.4/src\coap_asn1.c ****     len = asn1_len(&acp);
 361              		.loc 1 98 5 is_stmt 1
  99:C:/Users/stapi/OneDrive/Desktop/GD32VW553/V1_MQTT_OK/GD32VW55X_Wifi_BLE_SDK/GD32VW55x_RELEASE_V1.0.2/MSDK/lwip/libcoap-4.3.4/src\coap_asn1.c ****   }
 362              		.loc 1 99 5
  99:C:/Users/stapi/OneDrive/Desktop/GD32VW553/V1_MQTT_OK/GD32VW55X_Wifi_BLE_SDK/GD32VW55x_RELEASE_V1.0.2/MSDK/lwip/libcoap-4.3.4/src\coap_asn1.c ****   }
 363              		.loc 1 99 11 is_stmt 0
 364 00c0 2A84     		mv	s0,a0
 365              	.LVL45:
 366 00c2 95BF     		j	.L12
 367              	.LVL46:
 368              	.L26:
  85:C:/Users/stapi/OneDrive/Desktop/GD32VW553/V1_MQTT_OK/GD32VW55X_Wifi_BLE_SDK/GD32VW55x_RELEASE_V1.0.2/MSDK/lwip/libcoap-4.3.4/src\coap_asn1.c ****         memcpy(tag_data->s, acp, len);
 369              		.loc 1 85 9 is_stmt 1
  85:C:/Users/stapi/OneDrive/Desktop/GD32VW553/V1_MQTT_OK/GD32VW55X_Wifi_BLE_SDK/GD32VW55x_RELEASE_V1.0.2/MSDK/lwip/libcoap-4.3.4/src\coap_asn1.c ****         memcpy(tag_data->s, acp, len);
 370              		.loc 1 85 26 is_stmt 0
 371 00c4 00C1     		sw	s0,0(a0)
  86:C:/Users/stapi/OneDrive/Desktop/GD32VW553/V1_MQTT_OK/GD32VW55X_Wifi_BLE_SDK/GD32VW55x_RELEASE_V1.0.2/MSDK/lwip/libcoap-4.3.4/src\coap_asn1.c ****         return tag_data;
 372              		.loc 1 86 9 is_stmt 1
 373 00c6 B245     		lw	a1,12(sp)
 374 00c8 4841     		lw	a0,4(a0)
 375 00ca 2286     		mv	a2,s0
 376 00cc 97000000 		call	memcpy
 376      E7800000 
 377              	.LVL47:
  87:C:/Users/stapi/OneDrive/Desktop/GD32VW553/V1_MQTT_OK/GD32VW55X_Wifi_BLE_SDK/GD32VW55x_RELEASE_V1.0.2/MSDK/lwip/libcoap-4.3.4/src\coap_asn1.c ****       }
 378              		.loc 1 87 9
  87:C:/Users/stapi/OneDrive/Desktop/GD32VW553/V1_MQTT_OK/GD32VW55X_Wifi_BLE_SDK/GD32VW55x_RELEASE_V1.0.2/MSDK/lwip/libcoap-4.3.4/src\coap_asn1.c ****       }
 379              		.loc 1 87 16 is_stmt 0
 380 00d4 7DB7     		j	.L11
 381              	.LVL48:
 382              	.L19:
  90:C:/Users/stapi/OneDrive/Desktop/GD32VW553/V1_MQTT_OK/GD32VW55X_Wifi_BLE_SDK/GD32VW55x_RELEASE_V1.0.2/MSDK/lwip/libcoap-4.3.4/src\coap_asn1.c ****       /* SEQUENCE or SEQUENCE OF */
 383              		.loc 1 90 21 discriminator 1
 384 00d6 9247     		lw	a5,4(sp)
 385 00d8 E39157FD 		bne	a5,s5,.L20
  92:C:/Users/stapi/OneDrive/Desktop/GD32VW553/V1_MQTT_OK/GD32VW55X_Wifi_BLE_SDK/GD32VW55x_RELEASE_V1.0.2/MSDK/lwip/libcoap-4.3.4/src\coap_asn1.c ****       if (tag_data)
 386              		.loc 1 92 7 is_stmt 1
  92:C:/Users/stapi/OneDrive/Desktop/GD32VW553/V1_MQTT_OK/GD32VW55X_Wifi_BLE_SDK/GD32VW55x_RELEASE_V1.0.2/MSDK/lwip/libcoap-4.3.4/src\coap_asn1.c ****       if (tag_data)
 387              		.loc 1 92 18 is_stmt 0
 388 00dc B245     		lw	a1,12(sp)
 389 00de CE86     		mv	a3,s3
 390 00e0 2286     		mv	a2,s0
 391 00e2 5285     		mv	a0,s4
 392 00e4 97000000 		call	get_asn1_tag
 392      E7800000 
 393              	.LVL49:
 394 00ec AA84     		mv	s1,a0
 395              	.LVL50:
  93:C:/Users/stapi/OneDrive/Desktop/GD32VW553/V1_MQTT_OK/GD32VW55X_Wifi_BLE_SDK/GD32VW55x_RELEASE_V1.0.2/MSDK/lwip/libcoap-4.3.4/src\coap_asn1.c ****         return tag_data;
 396              		.loc 1 93 7 is_stmt 1
  93:C:/Users/stapi/OneDrive/Desktop/GD32VW553/V1_MQTT_OK/GD32VW55X_Wifi_BLE_SDK/GD32VW55x_RELEASE_V1.0.2/MSDK/lwip/libcoap-4.3.4/src\coap_asn1.c ****         return tag_data;
 397              		.loc 1 93 10 is_stmt 0
 398 00ee 55D5     		beq	a0,zero,.L20
 399 00f0 49BF     		j	.L11
 400              		.cfi_endproc
 401              	.LFE33:
 403              		.text
 404              	.Letext0:
 405              		.file 2 "c:\\users\\stapi\\onedrive\\desktop\\gd32vw553\\embeddedbuilder_v1.4.7.26843\\tools\\nucl
 406              		.file 3 "c:\\users\\stapi\\onedrive\\desktop\\gd32vw553\\embeddedbuilder_v1.4.7.26843\\tools\\nucl
 407              		.file 4 "c:\\users\\stapi\\onedrive\\desktop\\gd32vw553\\embeddedbuilder_v1.4.7.26843\\tools\\nucl
 408              		.file 5 "..\\..\\..\\..\\lwip\\libcoap-4.3.4\\include/coap3/coap_str.h"
 409              		.file 6 "..\\..\\..\\..\\lwip\\libcoap-4.3.4\\include/coap3/coap_asn1_internal.h"
 410              		.file 7 "<built-in>"
DEFINED SYMBOLS
                            *ABS*:0000000000000000 coap_asn1.c
C:\Users\stapi\AppData\Local\Temp\cc19bfMQ.s:13     .text.asn1_len:0000000000000000 asn1_len
C:\Users\stapi\AppData\Local\Temp\cc19bfMQ.s:17     .text.asn1_len:0000000000000000 .L0 
C:\Users\stapi\AppData\Local\Temp\cc19bfMQ.s:19     .text.asn1_len:0000000000000000 .L0 
C:\Users\stapi\AppData\Local\Temp\cc19bfMQ.s:20     .text.asn1_len:0000000000000000 .L0 
C:\Users\stapi\AppData\Local\Temp\cc19bfMQ.s:21     .text.asn1_len:0000000000000000 .L0 
C:\Users\stapi\AppData\Local\Temp\cc19bfMQ.s:22     .text.asn1_len:0000000000000000 .L0 
C:\Users\stapi\AppData\Local\Temp\cc19bfMQ.s:24     .text.asn1_len:0000000000000002 .L0 
C:\Users\stapi\AppData\Local\Temp\cc19bfMQ.s:26     .text.asn1_len:0000000000000004 .L0 
C:\Users\stapi\AppData\Local\Temp\cc19bfMQ.s:30     .text.asn1_len:0000000000000008 .L0 
C:\Users\stapi\AppData\Local\Temp\cc19bfMQ.s:33     .text.asn1_len:000000000000000a .L0 
C:\Users\stapi\AppData\Local\Temp\cc19bfMQ.s:37     .text.asn1_len:0000000000000012 .L0 
C:\Users\stapi\AppData\Local\Temp\cc19bfMQ.s:38     .text.asn1_len:0000000000000012 .L0 
C:\Users\stapi\AppData\Local\Temp\cc19bfMQ.s:41     .text.asn1_len:0000000000000016 .L0 
C:\Users\stapi\AppData\Local\Temp\cc19bfMQ.s:42     .text.asn1_len:0000000000000016 .L0 
C:\Users\stapi\AppData\Local\Temp\cc19bfMQ.s:45     .text.asn1_len:0000000000000018 .L0 
C:\Users\stapi\AppData\Local\Temp\cc19bfMQ.s:46     .text.asn1_len:0000000000000018 .L0 
C:\Users\stapi\AppData\Local\Temp\cc19bfMQ.s:51     .text.asn1_len:000000000000001a .L0 
C:\Users\stapi\AppData\Local\Temp\cc19bfMQ.s:55     .text.asn1_len:000000000000001e .L0 
C:\Users\stapi\AppData\Local\Temp\cc19bfMQ.s:56     .text.asn1_len:000000000000001e .L0 
C:\Users\stapi\AppData\Local\Temp\cc19bfMQ.s:58     .text.asn1_len:0000000000000020 .L0 
C:\Users\stapi\AppData\Local\Temp\cc19bfMQ.s:60     .text.asn1_len:0000000000000024 .L0 
C:\Users\stapi\AppData\Local\Temp\cc19bfMQ.s:63     .text.asn1_len:0000000000000026 .L0 
C:\Users\stapi\AppData\Local\Temp\cc19bfMQ.s:66     .text.asn1_len:000000000000002a .L0 
C:\Users\stapi\AppData\Local\Temp\cc19bfMQ.s:69     .text.asn1_len:000000000000002e .L0 
C:\Users\stapi\AppData\Local\Temp\cc19bfMQ.s:72     .text.asn1_len:0000000000000030 .L0 
C:\Users\stapi\AppData\Local\Temp\cc19bfMQ.s:73     .text.asn1_len:0000000000000030 .L0 
C:\Users\stapi\AppData\Local\Temp\cc19bfMQ.s:78     .text.asn1_len:0000000000000032 .L0 
C:\Users\stapi\AppData\Local\Temp\cc19bfMQ.s:79     .text.asn1_len:0000000000000032 .L0 
C:\Users\stapi\AppData\Local\Temp\cc19bfMQ.s:80     .text.asn1_len:0000000000000032 .L0 
C:\Users\stapi\AppData\Local\Temp\cc19bfMQ.s:82     .text.asn1_len:0000000000000034 .L0 
C:\Users\stapi\AppData\Local\Temp\cc19bfMQ.s:83     .text.asn1_len:0000000000000034 .L0 
C:\Users\stapi\AppData\Local\Temp\cc19bfMQ.s:84     .text.asn1_len:0000000000000036 .L0 
C:\Users\stapi\AppData\Local\Temp\cc19bfMQ.s:91     .text.asn1_tag_c:0000000000000000 asn1_tag_c
C:\Users\stapi\AppData\Local\Temp\cc19bfMQ.s:94     .text.asn1_tag_c:0000000000000000 .L0 
C:\Users\stapi\AppData\Local\Temp\cc19bfMQ.s:96     .text.asn1_tag_c:0000000000000000 .L0 
C:\Users\stapi\AppData\Local\Temp\cc19bfMQ.s:97     .text.asn1_tag_c:0000000000000000 .L0 
C:\Users\stapi\AppData\Local\Temp\cc19bfMQ.s:98     .text.asn1_tag_c:0000000000000000 .L0 
C:\Users\stapi\AppData\Local\Temp\cc19bfMQ.s:99     .text.asn1_tag_c:0000000000000000 .L0 
C:\Users\stapi\AppData\Local\Temp\cc19bfMQ.s:100    .text.asn1_tag_c:0000000000000000 .L0 
C:\Users\stapi\AppData\Local\Temp\cc19bfMQ.s:102    .text.asn1_tag_c:0000000000000002 .L0 
C:\Users\stapi\AppData\Local\Temp\cc19bfMQ.s:104    .text.asn1_tag_c:0000000000000004 .L0 
C:\Users\stapi\AppData\Local\Temp\cc19bfMQ.s:107    .text.asn1_tag_c:0000000000000008 .L0 
C:\Users\stapi\AppData\Local\Temp\cc19bfMQ.s:108    .text.asn1_tag_c:0000000000000008 .L0 
C:\Users\stapi\AppData\Local\Temp\cc19bfMQ.s:111    .text.asn1_tag_c:000000000000000c .L0 
C:\Users\stapi\AppData\Local\Temp\cc19bfMQ.s:113    .text.asn1_tag_c:000000000000000e .L0 
C:\Users\stapi\AppData\Local\Temp\cc19bfMQ.s:114    .text.asn1_tag_c:000000000000000e .L0 
C:\Users\stapi\AppData\Local\Temp\cc19bfMQ.s:118    .text.asn1_tag_c:0000000000000014 .L0 
C:\Users\stapi\AppData\Local\Temp\cc19bfMQ.s:119    .text.asn1_tag_c:0000000000000014 .L0 
C:\Users\stapi\AppData\Local\Temp\cc19bfMQ.s:125    .text.asn1_tag_c:000000000000001c .L0 
C:\Users\stapi\AppData\Local\Temp\cc19bfMQ.s:126    .text.asn1_tag_c:000000000000001c .L0 
C:\Users\stapi\AppData\Local\Temp\cc19bfMQ.s:127    .text.asn1_tag_c:000000000000001c .L0 
C:\Users\stapi\AppData\Local\Temp\cc19bfMQ.s:130    .text.asn1_tag_c:0000000000000022 .L0 
C:\Users\stapi\AppData\Local\Temp\cc19bfMQ.s:134    .text.asn1_tag_c:0000000000000026 .L0 
C:\Users\stapi\AppData\Local\Temp\cc19bfMQ.s:135    .text.asn1_tag_c:0000000000000026 .L0 
C:\Users\stapi\AppData\Local\Temp\cc19bfMQ.s:138    .text.asn1_tag_c:000000000000002a .L0 
C:\Users\stapi\AppData\Local\Temp\cc19bfMQ.s:139    .text.asn1_tag_c:000000000000002a .L0 
C:\Users\stapi\AppData\Local\Temp\cc19bfMQ.s:143    .text.asn1_tag_c:000000000000002c .L0 
C:\Users\stapi\AppData\Local\Temp\cc19bfMQ.s:144    .text.asn1_tag_c:000000000000002c .L0 
C:\Users\stapi\AppData\Local\Temp\cc19bfMQ.s:146    .text.asn1_tag_c:000000000000002e .L0 
C:\Users\stapi\AppData\Local\Temp\cc19bfMQ.s:149    .text.asn1_tag_c:0000000000000030 .L0 
C:\Users\stapi\AppData\Local\Temp\cc19bfMQ.s:151    .text.asn1_tag_c:0000000000000034 .L0 
C:\Users\stapi\AppData\Local\Temp\cc19bfMQ.s:153    .text.asn1_tag_c:0000000000000038 .L0 
C:\Users\stapi\AppData\Local\Temp\cc19bfMQ.s:155    .text.asn1_tag_c:000000000000003c .L0 
C:\Users\stapi\AppData\Local\Temp\cc19bfMQ.s:156    .text.asn1_tag_c:000000000000003c .L0 
C:\Users\stapi\AppData\Local\Temp\cc19bfMQ.s:159    .text.asn1_tag_c:000000000000003e .L0 
C:\Users\stapi\AppData\Local\Temp\cc19bfMQ.s:160    .text.asn1_tag_c:000000000000003e .L0 
C:\Users\stapi\AppData\Local\Temp\cc19bfMQ.s:162    .text.asn1_tag_c:0000000000000040 .L0 
C:\Users\stapi\AppData\Local\Temp\cc19bfMQ.s:163    .text.asn1_tag_c:0000000000000040 .L0 
C:\Users\stapi\AppData\Local\Temp\cc19bfMQ.s:167    .text.asn1_tag_c:0000000000000042 .L0 
C:\Users\stapi\AppData\Local\Temp\cc19bfMQ.s:168    .text.asn1_tag_c:0000000000000042 .L0 
C:\Users\stapi\AppData\Local\Temp\cc19bfMQ.s:171    .text.asn1_tag_c:0000000000000046 .L0 
C:\Users\stapi\AppData\Local\Temp\cc19bfMQ.s:173    .text.asn1_tag_c:0000000000000048 .L0 
C:\Users\stapi\AppData\Local\Temp\cc19bfMQ.s:176    .text.asn1_tag_c:000000000000004a .L0 
C:\Users\stapi\AppData\Local\Temp\cc19bfMQ.s:177    .text.asn1_tag_c:000000000000004a .L0 
C:\Users\stapi\AppData\Local\Temp\cc19bfMQ.s:178    .text.asn1_tag_c:000000000000004a .L0 
C:\Users\stapi\AppData\Local\Temp\cc19bfMQ.s:181    .text.asn1_tag_c:0000000000000050 .L0 
C:\Users\stapi\AppData\Local\Temp\cc19bfMQ.s:188    .text.get_asn1_tag:0000000000000000 get_asn1_tag
C:\Users\stapi\AppData\Local\Temp\cc19bfMQ.s:191    .text.get_asn1_tag:0000000000000000 .L0 
C:\Users\stapi\AppData\Local\Temp\cc19bfMQ.s:193    .text.get_asn1_tag:0000000000000000 .L0 
C:\Users\stapi\AppData\Local\Temp\cc19bfMQ.s:194    .text.get_asn1_tag:0000000000000008 .L0 
C:\Users\stapi\AppData\Local\Temp\cc19bfMQ.s:195    .text.get_asn1_tag:0000000000000008 .L0 
C:\Users\stapi\AppData\Local\Temp\cc19bfMQ.s:196    .text.get_asn1_tag:0000000000000008 .L0 
C:\Users\stapi\AppData\Local\Temp\cc19bfMQ.s:197    .text.get_asn1_tag:0000000000000008 .L0 
C:\Users\stapi\AppData\Local\Temp\cc19bfMQ.s:198    .text.get_asn1_tag:0000000000000008 .L0 
C:\Users\stapi\AppData\Local\Temp\cc19bfMQ.s:199    .text.get_asn1_tag:0000000000000008 .L0 
C:\Users\stapi\AppData\Local\Temp\cc19bfMQ.s:200    .text.get_asn1_tag:0000000000000008 .L0 
C:\Users\stapi\AppData\Local\Temp\cc19bfMQ.s:201    .text.get_asn1_tag:0000000000000008 .L0 
C:\Users\stapi\AppData\Local\Temp\cc19bfMQ.s:202    .text.get_asn1_tag:0000000000000008 .L0 
C:\Users\stapi\AppData\Local\Temp\cc19bfMQ.s:203    .text.get_asn1_tag:0000000000000008 .L0 
C:\Users\stapi\AppData\Local\Temp\cc19bfMQ.s:205    .text.get_asn1_tag:0000000000000008 .L0 
C:\Users\stapi\AppData\Local\Temp\cc19bfMQ.s:206    .text.get_asn1_tag:0000000000000008 .L0 
C:\Users\stapi\AppData\Local\Temp\cc19bfMQ.s:207    .text.get_asn1_tag:0000000000000008 .L0 
C:\Users\stapi\AppData\Local\Temp\cc19bfMQ.s:208    .text.get_asn1_tag:0000000000000008 .L0 
C:\Users\stapi\AppData\Local\Temp\cc19bfMQ.s:209    .text.get_asn1_tag:000000000000000a .L0 
C:\Users\stapi\AppData\Local\Temp\cc19bfMQ.s:211    .text.get_asn1_tag:000000000000000a .L0 
C:\Users\stapi\AppData\Local\Temp\cc19bfMQ.s:213    .text.get_asn1_tag:000000000000000c .L0 
C:\Users\stapi\AppData\Local\Temp\cc19bfMQ.s:214    .text.get_asn1_tag:000000000000000c .L0 
C:\Users\stapi\AppData\Local\Temp\cc19bfMQ.s:216    .text.get_asn1_tag:000000000000000e .L0 
C:\Users\stapi\AppData\Local\Temp\cc19bfMQ.s:219    .text.get_asn1_tag:0000000000000010 .L0 
C:\Users\stapi\AppData\Local\Temp\cc19bfMQ.s:221    .text.get_asn1_tag:0000000000000012 .L0 
C:\Users\stapi\AppData\Local\Temp\cc19bfMQ.s:226    .text.get_asn1_tag:0000000000000016 .L0 
C:\Users\stapi\AppData\Local\Temp\cc19bfMQ.s:228    .text.get_asn1_tag:0000000000000018 .L0 
C:\Users\stapi\AppData\Local\Temp\cc19bfMQ.s:231    .text.get_asn1_tag:0000000000000020 .L0 
C:\Users\stapi\AppData\Local\Temp\cc19bfMQ.s:234    .text.get_asn1_tag:0000000000000024 .L0 
C:\Users\stapi\AppData\Local\Temp\cc19bfMQ.s:235    .text.get_asn1_tag:0000000000000024 .L0 
C:\Users\stapi\AppData\Local\Temp\cc19bfMQ.s:241    .text.get_asn1_tag:0000000000000030 .L0 
C:\Users\stapi\AppData\Local\Temp\cc19bfMQ.s:242    .text.get_asn1_tag:0000000000000030 .L0 
C:\Users\stapi\AppData\Local\Temp\cc19bfMQ.s:243    .text.get_asn1_tag:0000000000000030 .L0 
C:\Users\stapi\AppData\Local\Temp\cc19bfMQ.s:245    .text.get_asn1_tag:0000000000000032 .L0 
C:\Users\stapi\AppData\Local\Temp\cc19bfMQ.s:247    .text.get_asn1_tag:0000000000000034 .L0 
C:\Users\stapi\AppData\Local\Temp\cc19bfMQ.s:250    .text.get_asn1_tag:0000000000000036 .L0 
C:\Users\stapi\AppData\Local\Temp\cc19bfMQ.s:252    .text.get_asn1_tag:000000000000003a .L0 
C:\Users\stapi\AppData\Local\Temp\cc19bfMQ.s:255    .text.get_asn1_tag:000000000000003e .L0 
C:\Users\stapi\AppData\Local\Temp\cc19bfMQ.s:261    .text.get_asn1_tag:0000000000000042 .L0 
C:\Users\stapi\AppData\Local\Temp\cc19bfMQ.s:262    .text.get_asn1_tag:0000000000000042 .L0 
C:\Users\stapi\AppData\Local\Temp\cc19bfMQ.s:265    .text.get_asn1_tag:0000000000000048 .L0 
C:\Users\stapi\AppData\Local\Temp\cc19bfMQ.s:268    .text.get_asn1_tag:000000000000004e .L0 
C:\Users\stapi\AppData\Local\Temp\cc19bfMQ.s:269    .text.get_asn1_tag:000000000000004e .L0 
C:\Users\stapi\AppData\Local\Temp\cc19bfMQ.s:275    .text.get_asn1_tag:000000000000005c .L0 
C:\Users\stapi\AppData\Local\Temp\cc19bfMQ.s:278    .text.get_asn1_tag:0000000000000060 .L0 
C:\Users\stapi\AppData\Local\Temp\cc19bfMQ.s:279    .text.get_asn1_tag:0000000000000060 .L0 
C:\Users\stapi\AppData\Local\Temp\cc19bfMQ.s:286    .text.get_asn1_tag:000000000000006c .L0 
C:\Users\stapi\AppData\Local\Temp\cc19bfMQ.s:287    .text.get_asn1_tag:000000000000006c .L0 
C:\Users\stapi\AppData\Local\Temp\cc19bfMQ.s:289    .text.get_asn1_tag:0000000000000070 .L0 
C:\Users\stapi\AppData\Local\Temp\cc19bfMQ.s:290    .text.get_asn1_tag:0000000000000070 .L0 
C:\Users\stapi\AppData\Local\Temp\cc19bfMQ.s:293    .text.get_asn1_tag:0000000000000074 .L0 
C:\Users\stapi\AppData\Local\Temp\cc19bfMQ.s:294    .text.get_asn1_tag:0000000000000074 .L0 
C:\Users\stapi\AppData\Local\Temp\cc19bfMQ.s:300    .text.get_asn1_tag:0000000000000080 .L0 
C:\Users\stapi\AppData\Local\Temp\cc19bfMQ.s:301    .text.get_asn1_tag:0000000000000080 .L0 
C:\Users\stapi\AppData\Local\Temp\cc19bfMQ.s:305    .text.get_asn1_tag:0000000000000082 .L0 
C:\Users\stapi\AppData\Local\Temp\cc19bfMQ.s:307    .text.get_asn1_tag:0000000000000086 .L0 
C:\Users\stapi\AppData\Local\Temp\cc19bfMQ.s:308    .text.get_asn1_tag:0000000000000086 .L0 
C:\Users\stapi\AppData\Local\Temp\cc19bfMQ.s:310    .text.get_asn1_tag:000000000000008e .L0 
C:\Users\stapi\AppData\Local\Temp\cc19bfMQ.s:311    .text.get_asn1_tag:000000000000008e .L0 
C:\Users\stapi\AppData\Local\Temp\cc19bfMQ.s:312    .text.get_asn1_tag:000000000000008e .L0 
C:\Users\stapi\AppData\Local\Temp\cc19bfMQ.s:313    .text.get_asn1_tag:000000000000008e .L0 
C:\Users\stapi\AppData\Local\Temp\cc19bfMQ.s:314    .text.get_asn1_tag:000000000000008e .L0 
C:\Users\stapi\AppData\Local\Temp\cc19bfMQ.s:315    .text.get_asn1_tag:000000000000008e .L0 
C:\Users\stapi\AppData\Local\Temp\cc19bfMQ.s:316    .text.get_asn1_tag:000000000000008e .L0 
C:\Users\stapi\AppData\Local\Temp\cc19bfMQ.s:317    .text.get_asn1_tag:000000000000008e .L0 
C:\Users\stapi\AppData\Local\Temp\cc19bfMQ.s:318    .text.get_asn1_tag:000000000000008e .L0 
C:\Users\stapi\AppData\Local\Temp\cc19bfMQ.s:319    .text.get_asn1_tag:000000000000008e .L0 
C:\Users\stapi\AppData\Local\Temp\cc19bfMQ.s:322    .text.get_asn1_tag:000000000000008e .L0 
C:\Users\stapi\AppData\Local\Temp\cc19bfMQ.s:324    .text.get_asn1_tag:000000000000008e .L0 
C:\Users\stapi\AppData\Local\Temp\cc19bfMQ.s:329    .text.get_asn1_tag:0000000000000094 .L0 
C:\Users\stapi\AppData\Local\Temp\cc19bfMQ.s:332    .text.get_asn1_tag:0000000000000096 .L0 
C:\Users\stapi\AppData\Local\Temp\cc19bfMQ.s:333    .text.get_asn1_tag:0000000000000096 .L0 
C:\Users\stapi\AppData\Local\Temp\cc19bfMQ.s:337    .text.get_asn1_tag:000000000000009a .L0 
C:\Users\stapi\AppData\Local\Temp\cc19bfMQ.s:338    .text.get_asn1_tag:000000000000009a .L0 
C:\Users\stapi\AppData\Local\Temp\cc19bfMQ.s:340    .text.get_asn1_tag:000000000000009c .L0 
C:\Users\stapi\AppData\Local\Temp\cc19bfMQ.s:343    .text.get_asn1_tag:00000000000000a0 .L0 
C:\Users\stapi\AppData\Local\Temp\cc19bfMQ.s:345    .text.get_asn1_tag:00000000000000a2 .L0 
C:\Users\stapi\AppData\Local\Temp\cc19bfMQ.s:347    .text.get_asn1_tag:00000000000000a4 .L0 
C:\Users\stapi\AppData\Local\Temp\cc19bfMQ.s:349    .text.get_asn1_tag:00000000000000a6 .L0 
C:\Users\stapi\AppData\Local\Temp\cc19bfMQ.s:350    .text.get_asn1_tag:00000000000000a6 .L0 
C:\Users\stapi\AppData\Local\Temp\cc19bfMQ.s:353    .text.get_asn1_tag:00000000000000ae .L0 
C:\Users\stapi\AppData\Local\Temp\cc19bfMQ.s:355    .text.get_asn1_tag:00000000000000b2 .L0 
C:\Users\stapi\AppData\Local\Temp\cc19bfMQ.s:359    .text.get_asn1_tag:00000000000000bc .L0 
C:\Users\stapi\AppData\Local\Temp\cc19bfMQ.s:362    .text.get_asn1_tag:00000000000000c0 .L0 
C:\Users\stapi\AppData\Local\Temp\cc19bfMQ.s:363    .text.get_asn1_tag:00000000000000c0 .L0 
C:\Users\stapi\AppData\Local\Temp\cc19bfMQ.s:364    .text.get_asn1_tag:00000000000000c0 .L0 
C:\Users\stapi\AppData\Local\Temp\cc19bfMQ.s:370    .text.get_asn1_tag:00000000000000c4 .L0 
C:\Users\stapi\AppData\Local\Temp\cc19bfMQ.s:371    .text.get_asn1_tag:00000000000000c4 .L0 
C:\Users\stapi\AppData\Local\Temp\cc19bfMQ.s:373    .text.get_asn1_tag:00000000000000c6 .L0 
C:\Users\stapi\AppData\Local\Temp\cc19bfMQ.s:379    .text.get_asn1_tag:00000000000000d4 .L0 
C:\Users\stapi\AppData\Local\Temp\cc19bfMQ.s:380    .text.get_asn1_tag:00000000000000d4 .L0 
C:\Users\stapi\AppData\Local\Temp\cc19bfMQ.s:384    .text.get_asn1_tag:00000000000000d6 .L0 
C:\Users\stapi\AppData\Local\Temp\cc19bfMQ.s:387    .text.get_asn1_tag:00000000000000dc .L0 
C:\Users\stapi\AppData\Local\Temp\cc19bfMQ.s:388    .text.get_asn1_tag:00000000000000dc .L0 
C:\Users\stapi\AppData\Local\Temp\cc19bfMQ.s:397    .text.get_asn1_tag:00000000000000ee .L0 
C:\Users\stapi\AppData\Local\Temp\cc19bfMQ.s:398    .text.get_asn1_tag:00000000000000ee .L0 
C:\Users\stapi\AppData\Local\Temp\cc19bfMQ.s:400    .text.get_asn1_tag:00000000000000f2 .L0 
C:\Users\stapi\AppData\Local\Temp\cc19bfMQ.s:87     .text.asn1_len:0000000000000036 .L0 
C:\Users\stapi\AppData\Local\Temp\cc19bfMQ.s:184    .text.asn1_tag_c:0000000000000050 .L0 
C:\Users\stapi\AppData\Local\Temp\cc19bfMQ.s:403    .text.get_asn1_tag:00000000000000f2 .L0 
                     .debug_frame:0000000000000000 .L0 
C:\Users\stapi\AppData\Local\Temp\cc19bfMQ.s:75     .text.asn1_len:0000000000000032 .L2
C:\Users\stapi\AppData\Local\Temp\cc19bfMQ.s:53     .text.asn1_len:000000000000001e .L4
C:\Users\stapi\AppData\Local\Temp\cc19bfMQ.s:48     .text.asn1_len:000000000000001a .L3
C:\Users\stapi\AppData\Local\Temp\cc19bfMQ.s:132    .text.asn1_tag_c:0000000000000026 .L7
C:\Users\stapi\AppData\Local\Temp\cc19bfMQ.s:165    .text.asn1_tag_c:0000000000000042 .L10
C:\Users\stapi\AppData\Local\Temp\cc19bfMQ.s:140    .text.asn1_tag_c:000000000000002c .L9
C:\Users\stapi\AppData\Local\Temp\cc19bfMQ.s:253    .text.get_asn1_tag:000000000000003e .L22
C:\Users\stapi\AppData\Local\Temp\cc19bfMQ.s:259    .text.get_asn1_tag:0000000000000042 .L21
C:\Users\stapi\AppData\Local\Temp\cc19bfMQ.s:303    .text.get_asn1_tag:0000000000000082 .L11
C:\Users\stapi\AppData\Local\Temp\cc19bfMQ.s:284    .text.get_asn1_tag:000000000000006c .L13
C:\Users\stapi\AppData\Local\Temp\cc19bfMQ.s:330    .text.get_asn1_tag:0000000000000096 .L14
C:\Users\stapi\AppData\Local\Temp\cc19bfMQ.s:321    .text.get_asn1_tag:000000000000008e .L15
C:\Users\stapi\AppData\Local\Temp\cc19bfMQ.s:368    .text.get_asn1_tag:00000000000000c4 .L26
C:\Users\stapi\AppData\Local\Temp\cc19bfMQ.s:291    .text.get_asn1_tag:0000000000000074 .L18
C:\Users\stapi\AppData\Local\Temp\cc19bfMQ.s:382    .text.get_asn1_tag:00000000000000d6 .L19
C:\Users\stapi\AppData\Local\Temp\cc19bfMQ.s:248    .text.get_asn1_tag:0000000000000036 .L12
C:\Users\stapi\AppData\Local\Temp\cc19bfMQ.s:335    .text.get_asn1_tag:000000000000009a .L20
C:\Users\stapi\AppData\Local\Temp\cc19bfMQ.s:920    .debug_abbrev:0000000000000000 .Ldebug_abbrev0
C:\Users\stapi\AppData\Local\Temp\cc19bfMQ.s:1602   .debug_str:00000000000000e4 .LASF33
C:\Users\stapi\AppData\Local\Temp\cc19bfMQ.s:1608   .debug_str:00000000000001f7 .LASF34
C:\Users\stapi\AppData\Local\Temp\cc19bfMQ.s:1626   .debug_str:00000000000002d6 .LASF35
C:\Users\stapi\AppData\Local\Temp\cc19bfMQ.s:1548   .debug_ranges:0000000000000000 .Ldebug_ranges0
C:\Users\stapi\AppData\Local\Temp\cc19bfMQ.s:1566   .debug_line:0000000000000000 .Ldebug_line0
C:\Users\stapi\AppData\Local\Temp\cc19bfMQ.s:1642   .debug_str:00000000000003b4 .LASF0
C:\Users\stapi\AppData\Local\Temp\cc19bfMQ.s:1570   .debug_str:0000000000000010 .LASF9
C:\Users\stapi\AppData\Local\Temp\cc19bfMQ.s:1594   .debug_str:00000000000000a5 .LASF1
C:\Users\stapi\AppData\Local\Temp\cc19bfMQ.s:1634   .debug_str:0000000000000388 .LASF2
C:\Users\stapi\AppData\Local\Temp\cc19bfMQ.s:1580   .debug_str:0000000000000049 .LASF3
C:\Users\stapi\AppData\Local\Temp\cc19bfMQ.s:1640   .debug_str:00000000000003ab .LASF4
C:\Users\stapi\AppData\Local\Temp\cc19bfMQ.s:1600   .debug_str:00000000000000d2 .LASF5
C:\Users\stapi\AppData\Local\Temp\cc19bfMQ.s:1628   .debug_str:000000000000035f .LASF6
C:\Users\stapi\AppData\Local\Temp\cc19bfMQ.s:1590   .debug_str:0000000000000082 .LASF7
C:\Users\stapi\AppData\Local\Temp\cc19bfMQ.s:1614   .debug_str:0000000000000297 .LASF8
C:\Users\stapi\AppData\Local\Temp\cc19bfMQ.s:1618   .debug_str:00000000000002a9 .LASF10
C:\Users\stapi\AppData\Local\Temp\cc19bfMQ.s:1572   .debug_str:000000000000001a .LASF11
C:\Users\stapi\AppData\Local\Temp\cc19bfMQ.s:1616   .debug_str:00000000000002a4 .LASF12
C:\Users\stapi\AppData\Local\Temp\cc19bfMQ.s:1610   .debug_str:0000000000000284 .LASF14
C:\Users\stapi\AppData\Local\Temp\cc19bfMQ.s:1644   .debug_str:00000000000003c0 .LASF13
C:\Users\stapi\AppData\Local\Temp\cc19bfMQ.s:1578   .debug_str:000000000000003a .LASF15
C:\Users\stapi\AppData\Local\Temp\cc19bfMQ.s:1576   .debug_str:0000000000000028 .LASF16
C:\Users\stapi\AppData\Local\Temp\cc19bfMQ.s:1632   .debug_str:0000000000000374 .LASF17
C:\Users\stapi\AppData\Local\Temp\cc19bfMQ.s:1596   .debug_str:00000000000000b3 .LASF18
C:\Users\stapi\AppData\Local\Temp\cc19bfMQ.s:1604   .debug_str:00000000000001dd .LASF19
C:\Users\stapi\AppData\Local\Temp\cc19bfMQ.s:1636   .debug_str:0000000000000392 .LASF20
C:\Users\stapi\AppData\Local\Temp\cc19bfMQ.s:1588   .debug_str:0000000000000074 .LASF21
C:\Users\stapi\AppData\Local\Temp\cc19bfMQ.s:1586   .debug_str:0000000000000067 .LASF28
C:\Users\stapi\AppData\Local\Temp\cc19bfMQ.s:189    .text.get_asn1_tag:0000000000000000 .LFB33
C:\Users\stapi\AppData\Local\Temp\cc19bfMQ.s:401    .text.get_asn1_tag:00000000000000f2 .LFE33
C:\Users\stapi\AppData\Local\Temp\cc19bfMQ.s:1606   .debug_str:00000000000001f2 .LASF22
C:\Users\stapi\AppData\Local\Temp\cc19bfMQ.s:1305   .debug_loc:0000000000000000 .LLST8
C:\Users\stapi\AppData\Local\Temp\cc19bfMQ.s:1316   .debug_loc:000000000000001e .LLST9
C:\Users\stapi\AppData\Local\Temp\cc19bfMQ.s:1612   .debug_str:0000000000000292 .LASF23
C:\Users\stapi\AppData\Local\Temp\cc19bfMQ.s:1340   .debug_loc:0000000000000057 .LLST10
C:\Users\stapi\AppData\Local\Temp\cc19bfMQ.s:1598   .debug_str:00000000000000c9 .LASF24
C:\Users\stapi\AppData\Local\Temp\cc19bfMQ.s:1351   .debug_loc:0000000000000075 .LLST11
C:\Users\stapi\AppData\Local\Temp\cc19bfMQ.s:1592   .debug_str:0000000000000099 .LASF25
C:\Users\stapi\AppData\Local\Temp\cc19bfMQ.s:1582   .debug_str:000000000000005c .LASF26
C:\Users\stapi\AppData\Local\Temp\cc19bfMQ.s:1362   .debug_loc:0000000000000093 .LLST12
C:\Users\stapi\AppData\Local\Temp\cc19bfMQ.s:1624   .debug_str:00000000000002cd .LASF27
C:\Users\stapi\AppData\Local\Temp\cc19bfMQ.s:1385   .debug_loc:00000000000000d2 .LLST13
C:\Users\stapi\AppData\Local\Temp\cc19bfMQ.s:229    .text.get_asn1_tag:0000000000000020 .LVL26
C:\Users\stapi\AppData\Local\Temp\cc19bfMQ.s:237    .text.get_asn1_tag:000000000000002e .LVL28
C:\Users\stapi\AppData\Local\Temp\cc19bfMQ.s:273    .text.get_asn1_tag:000000000000005c .LVL32
C:\Users\stapi\AppData\Local\Temp\cc19bfMQ.s:281    .text.get_asn1_tag:000000000000006a .LVL34
C:\Users\stapi\AppData\Local\Temp\cc19bfMQ.s:296    .text.get_asn1_tag:000000000000007e .LVL36
C:\Users\stapi\AppData\Local\Temp\cc19bfMQ.s:327    .text.get_asn1_tag:0000000000000094 .LVL40
C:\Users\stapi\AppData\Local\Temp\cc19bfMQ.s:351    .text.get_asn1_tag:00000000000000ae .LVL42
C:\Users\stapi\AppData\Local\Temp\cc19bfMQ.s:357    .text.get_asn1_tag:00000000000000bc .LVL43
C:\Users\stapi\AppData\Local\Temp\cc19bfMQ.s:377    .text.get_asn1_tag:00000000000000d4 .LVL47
C:\Users\stapi\AppData\Local\Temp\cc19bfMQ.s:393    .text.get_asn1_tag:00000000000000ec .LVL49
C:\Users\stapi\AppData\Local\Temp\cc19bfMQ.s:1622   .debug_str:00000000000002c2 .LASF29
C:\Users\stapi\AppData\Local\Temp\cc19bfMQ.s:92     .text.asn1_tag_c:0000000000000000 .LFB32
C:\Users\stapi\AppData\Local\Temp\cc19bfMQ.s:182    .text.asn1_tag_c:0000000000000050 .LFE32
C:\Users\stapi\AppData\Local\Temp\cc19bfMQ.s:1400   .debug_loc:00000000000000fb .LLST3
C:\Users\stapi\AppData\Local\Temp\cc19bfMQ.s:1411   .debug_loc:0000000000000119 .LLST4
C:\Users\stapi\AppData\Local\Temp\cc19bfMQ.s:1425   .debug_loc:000000000000013a .LLST5
C:\Users\stapi\AppData\Local\Temp\cc19bfMQ.s:1439   .debug_loc:000000000000015b .LLST6
C:\Users\stapi\AppData\Local\Temp\cc19bfMQ.s:1584   .debug_str:0000000000000062 .LASF30
C:\Users\stapi\AppData\Local\Temp\cc19bfMQ.s:1468   .debug_loc:00000000000001a0 .LLST7
C:\Users\stapi\AppData\Local\Temp\cc19bfMQ.s:1638   .debug_str:00000000000003a2 .LASF31
C:\Users\stapi\AppData\Local\Temp\cc19bfMQ.s:14     .text.asn1_len:0000000000000000 .LFB31
C:\Users\stapi\AppData\Local\Temp\cc19bfMQ.s:85     .text.asn1_len:0000000000000036 .LFE31
C:\Users\stapi\AppData\Local\Temp\cc19bfMQ.s:1487   .debug_loc:00000000000001d4 .LLST0
C:\Users\stapi\AppData\Local\Temp\cc19bfMQ.s:1498   .debug_loc:00000000000001f2 .LLST1
C:\Users\stapi\AppData\Local\Temp\cc19bfMQ.s:1574   .debug_str:0000000000000021 .LASF32
C:\Users\stapi\AppData\Local\Temp\cc19bfMQ.s:1514   .debug_loc:000000000000021c .LLST2
C:\Users\stapi\AppData\Local\Temp\cc19bfMQ.s:1568   .debug_str:0000000000000000 .LASF36
C:\Users\stapi\AppData\Local\Temp\cc19bfMQ.s:1630   .debug_str:000000000000036d .LASF37
C:\Users\stapi\AppData\Local\Temp\cc19bfMQ.s:1620   .debug_str:00000000000002b1 .LASF38
C:\Users\stapi\AppData\Local\Temp\cc19bfMQ.s:192    .text.get_asn1_tag:0000000000000000 .LVL22
C:\Users\stapi\AppData\Local\Temp\cc19bfMQ.s:222    .text.get_asn1_tag:0000000000000014 .LVL24
C:\Users\stapi\AppData\Local\Temp\cc19bfMQ.s:217    .text.get_asn1_tag:0000000000000010 .LVL23
C:\Users\stapi\AppData\Local\Temp\cc19bfMQ.s:224    .text.get_asn1_tag:0000000000000016 .LVL25
C:\Users\stapi\AppData\Local\Temp\cc19bfMQ.s:232    .text.get_asn1_tag:0000000000000024 .LVL27
C:\Users\stapi\AppData\Local\Temp\cc19bfMQ.s:256    .text.get_asn1_tag:0000000000000040 .LVL30
C:\Users\stapi\AppData\Local\Temp\cc19bfMQ.s:258    .text.get_asn1_tag:0000000000000042 .LVL31
C:\Users\stapi\AppData\Local\Temp\cc19bfMQ.s:298    .text.get_asn1_tag:0000000000000080 .LVL37
C:\Users\stapi\AppData\Local\Temp\cc19bfMQ.s:320    .text.get_asn1_tag:000000000000008e .LVL39
C:\Users\stapi\AppData\Local\Temp\cc19bfMQ.s:334    .text.get_asn1_tag:000000000000009a .LVL41
C:\Users\stapi\AppData\Local\Temp\cc19bfMQ.s:360    .text.get_asn1_tag:00000000000000c0 .LVL44
C:\Users\stapi\AppData\Local\Temp\cc19bfMQ.s:367    .text.get_asn1_tag:00000000000000c4 .LVL46
C:\Users\stapi\AppData\Local\Temp\cc19bfMQ.s:381    .text.get_asn1_tag:00000000000000d6 .LVL48
C:\Users\stapi\AppData\Local\Temp\cc19bfMQ.s:395    .text.get_asn1_tag:00000000000000ee .LVL50
C:\Users\stapi\AppData\Local\Temp\cc19bfMQ.s:302    .text.get_asn1_tag:0000000000000082 .LVL38
C:\Users\stapi\AppData\Local\Temp\cc19bfMQ.s:95     .text.asn1_tag_c:0000000000000000 .LVL8
C:\Users\stapi\AppData\Local\Temp\cc19bfMQ.s:109    .text.asn1_tag_c:000000000000000c .LVL10
C:\Users\stapi\AppData\Local\Temp\cc19bfMQ.s:115    .text.asn1_tag_c:0000000000000012 .LVL11
C:\Users\stapi\AppData\Local\Temp\cc19bfMQ.s:120    .text.asn1_tag_c:0000000000000018 .LVL12
C:\Users\stapi\AppData\Local\Temp\cc19bfMQ.s:123    .text.asn1_tag_c:000000000000001c .LVL13
C:\Users\stapi\AppData\Local\Temp\cc19bfMQ.s:136    .text.asn1_tag_c:000000000000002a .LVL14
C:\Users\stapi\AppData\Local\Temp\cc19bfMQ.s:141    .text.asn1_tag_c:000000000000002c .LVL15
C:\Users\stapi\AppData\Local\Temp\cc19bfMQ.s:147    .text.asn1_tag_c:0000000000000030 .LVL16
C:\Users\stapi\AppData\Local\Temp\cc19bfMQ.s:157    .text.asn1_tag_c:000000000000003e .LVL17
C:\Users\stapi\AppData\Local\Temp\cc19bfMQ.s:164    .text.asn1_tag_c:0000000000000042 .LVL18
C:\Users\stapi\AppData\Local\Temp\cc19bfMQ.s:174    .text.asn1_tag_c:000000000000004a .LVL20
C:\Users\stapi\AppData\Local\Temp\cc19bfMQ.s:105    .text.asn1_tag_c:0000000000000008 .LVL9
C:\Users\stapi\AppData\Local\Temp\cc19bfMQ.s:169    .text.asn1_tag_c:0000000000000046 .LVL19
C:\Users\stapi\AppData\Local\Temp\cc19bfMQ.s:179    .text.asn1_tag_c:000000000000004e .LVL21
C:\Users\stapi\AppData\Local\Temp\cc19bfMQ.s:18     .text.asn1_len:0000000000000000 .LVL0
C:\Users\stapi\AppData\Local\Temp\cc19bfMQ.s:27     .text.asn1_len:0000000000000008 .LVL1
C:\Users\stapi\AppData\Local\Temp\cc19bfMQ.s:47     .text.asn1_len:000000000000001a .LVL3
C:\Users\stapi\AppData\Local\Temp\cc19bfMQ.s:64     .text.asn1_len:000000000000002a .LVL5
C:\Users\stapi\AppData\Local\Temp\cc19bfMQ.s:70     .text.asn1_len:0000000000000030 .LVL6
C:\Users\stapi\AppData\Local\Temp\cc19bfMQ.s:39     .text.asn1_len:0000000000000016 .LVL2
C:\Users\stapi\AppData\Local\Temp\cc19bfMQ.s:61     .text.asn1_len:0000000000000026 .LVL4
C:\Users\stapi\AppData\Local\Temp\cc19bfMQ.s:74     .text.asn1_len:0000000000000032 .LVL7
C:\Users\stapi\AppData\Local\Temp\cc19bfMQ.s:412    .debug_info:0000000000000000 .Ldebug_info0
C:\Users\stapi\AppData\Local\Temp\cc19bfMQ.s:28     .text.asn1_len:0000000000000008 .LBB2
C:\Users\stapi\AppData\Local\Temp\cc19bfMQ.s:31     .text.asn1_len:000000000000000a .LBE2
C:\Users\stapi\AppData\Local\Temp\cc19bfMQ.s:35     .text.asn1_len:0000000000000012 .LBB3
C:\Users\stapi\AppData\Local\Temp\cc19bfMQ.s:44     .text.asn1_len:0000000000000018 .LBE3
C:\Users\stapi\AppData\Local\Temp\cc19bfMQ.s:49     .text.asn1_len:000000000000001a .LBB4
C:\Users\stapi\AppData\Local\Temp\cc19bfMQ.s:76     .text.asn1_len:0000000000000032 .LBE4

UNDEFINED SYMBOLS
__riscv_save_8
coap_new_binary
__riscv_restore_8
memcpy
