   1              		.file	"coap_async.c"
   2              		.option nopic
   3              		.attribute arch, "rv32i2p0_m2p0_a2p0_f2p0_c2p0_b_p0p94"
   4              		.attribute unaligned_access, 0
   5              		.attribute stack_align, 16
   6              		.text
   7              	.Ltext0:
   8              		.cfi_sections	.debug_frame
   9              		.section	.text.coap_free_async_sub,"ax",@progbits
  10              		.align	1
  12              	coap_free_async_sub:
  13              	.LFB36:
  14              		.file 1 "C:/Users/stapi/OneDrive/Desktop/GD32VW553/GD32VW55X_Wifi_BLE_SDK/GD32VW55x_RELEASE_V1.0.2
   1:C:/Users/stapi/OneDrive/Desktop/GD32VW553/GD32VW55X_Wifi_BLE_SDK/GD32VW55x_RELEASE_V1.0.2/MSDK/lwip/libcoap-4.3.4/src\coap_async.c **** /* coap_async.c -- state management for asynchronous messages
   2:C:/Users/stapi/OneDrive/Desktop/GD32VW553/GD32VW55X_Wifi_BLE_SDK/GD32VW55x_RELEASE_V1.0.2/MSDK/lwip/libcoap-4.3.4/src\coap_async.c ****  *
   3:C:/Users/stapi/OneDrive/Desktop/GD32VW553/GD32VW55X_Wifi_BLE_SDK/GD32VW55x_RELEASE_V1.0.2/MSDK/lwip/libcoap-4.3.4/src\coap_async.c ****  * Copyright (C) 2010,2011,2021-2023 Olaf Bergmann <bergmann@tzi.org>
   4:C:/Users/stapi/OneDrive/Desktop/GD32VW553/GD32VW55X_Wifi_BLE_SDK/GD32VW55x_RELEASE_V1.0.2/MSDK/lwip/libcoap-4.3.4/src\coap_async.c ****  *
   5:C:/Users/stapi/OneDrive/Desktop/GD32VW553/GD32VW55X_Wifi_BLE_SDK/GD32VW55x_RELEASE_V1.0.2/MSDK/lwip/libcoap-4.3.4/src\coap_async.c ****  * SPDX-License-Identifier: BSD-2-Clause
   6:C:/Users/stapi/OneDrive/Desktop/GD32VW553/GD32VW55X_Wifi_BLE_SDK/GD32VW55x_RELEASE_V1.0.2/MSDK/lwip/libcoap-4.3.4/src\coap_async.c ****  *
   7:C:/Users/stapi/OneDrive/Desktop/GD32VW553/GD32VW55X_Wifi_BLE_SDK/GD32VW55x_RELEASE_V1.0.2/MSDK/lwip/libcoap-4.3.4/src\coap_async.c ****  * This file is part of the CoAP library libcoap. Please see
   8:C:/Users/stapi/OneDrive/Desktop/GD32VW553/GD32VW55X_Wifi_BLE_SDK/GD32VW55x_RELEASE_V1.0.2/MSDK/lwip/libcoap-4.3.4/src\coap_async.c ****  * README for terms of use.
   9:C:/Users/stapi/OneDrive/Desktop/GD32VW553/GD32VW55X_Wifi_BLE_SDK/GD32VW55x_RELEASE_V1.0.2/MSDK/lwip/libcoap-4.3.4/src\coap_async.c ****  */
  10:C:/Users/stapi/OneDrive/Desktop/GD32VW553/GD32VW55X_Wifi_BLE_SDK/GD32VW55x_RELEASE_V1.0.2/MSDK/lwip/libcoap-4.3.4/src\coap_async.c **** 
  11:C:/Users/stapi/OneDrive/Desktop/GD32VW553/GD32VW55X_Wifi_BLE_SDK/GD32VW55x_RELEASE_V1.0.2/MSDK/lwip/libcoap-4.3.4/src\coap_async.c **** /**
  12:C:/Users/stapi/OneDrive/Desktop/GD32VW553/GD32VW55X_Wifi_BLE_SDK/GD32VW55x_RELEASE_V1.0.2/MSDK/lwip/libcoap-4.3.4/src\coap_async.c ****  * @file coap_async.c
  13:C:/Users/stapi/OneDrive/Desktop/GD32VW553/GD32VW55X_Wifi_BLE_SDK/GD32VW55x_RELEASE_V1.0.2/MSDK/lwip/libcoap-4.3.4/src\coap_async.c ****  * @brief State handling for asynchronous messages
  14:C:/Users/stapi/OneDrive/Desktop/GD32VW553/GD32VW55X_Wifi_BLE_SDK/GD32VW55x_RELEASE_V1.0.2/MSDK/lwip/libcoap-4.3.4/src\coap_async.c ****  */
  15:C:/Users/stapi/OneDrive/Desktop/GD32VW553/GD32VW55X_Wifi_BLE_SDK/GD32VW55x_RELEASE_V1.0.2/MSDK/lwip/libcoap-4.3.4/src\coap_async.c **** 
  16:C:/Users/stapi/OneDrive/Desktop/GD32VW553/GD32VW55X_Wifi_BLE_SDK/GD32VW55x_RELEASE_V1.0.2/MSDK/lwip/libcoap-4.3.4/src\coap_async.c **** #include "coap3/coap_internal.h"
  17:C:/Users/stapi/OneDrive/Desktop/GD32VW553/GD32VW55X_Wifi_BLE_SDK/GD32VW55x_RELEASE_V1.0.2/MSDK/lwip/libcoap-4.3.4/src\coap_async.c **** 
  18:C:/Users/stapi/OneDrive/Desktop/GD32VW553/GD32VW55X_Wifi_BLE_SDK/GD32VW55x_RELEASE_V1.0.2/MSDK/lwip/libcoap-4.3.4/src\coap_async.c **** #if COAP_ASYNC_SUPPORT
  19:C:/Users/stapi/OneDrive/Desktop/GD32VW553/GD32VW55X_Wifi_BLE_SDK/GD32VW55x_RELEASE_V1.0.2/MSDK/lwip/libcoap-4.3.4/src\coap_async.c **** #include <stdio.h>
  20:C:/Users/stapi/OneDrive/Desktop/GD32VW553/GD32VW55X_Wifi_BLE_SDK/GD32VW55x_RELEASE_V1.0.2/MSDK/lwip/libcoap-4.3.4/src\coap_async.c **** 
  21:C:/Users/stapi/OneDrive/Desktop/GD32VW553/GD32VW55X_Wifi_BLE_SDK/GD32VW55x_RELEASE_V1.0.2/MSDK/lwip/libcoap-4.3.4/src\coap_async.c **** /* utlist-style macros for searching pairs in linked lists */
  22:C:/Users/stapi/OneDrive/Desktop/GD32VW553/GD32VW55X_Wifi_BLE_SDK/GD32VW55x_RELEASE_V1.0.2/MSDK/lwip/libcoap-4.3.4/src\coap_async.c **** #define SEARCH_PAIR(head,out,field1,val1,field2,val2,field3,val3)   \
  23:C:/Users/stapi/OneDrive/Desktop/GD32VW553/GD32VW55X_Wifi_BLE_SDK/GD32VW55x_RELEASE_V1.0.2/MSDK/lwip/libcoap-4.3.4/src\coap_async.c ****   SEARCH_PAIR3(head,out,field1,val1,field2,val2,field3,val3,next)
  24:C:/Users/stapi/OneDrive/Desktop/GD32VW553/GD32VW55X_Wifi_BLE_SDK/GD32VW55x_RELEASE_V1.0.2/MSDK/lwip/libcoap-4.3.4/src\coap_async.c **** 
  25:C:/Users/stapi/OneDrive/Desktop/GD32VW553/GD32VW55X_Wifi_BLE_SDK/GD32VW55x_RELEASE_V1.0.2/MSDK/lwip/libcoap-4.3.4/src\coap_async.c **** #define SEARCH_PAIR3(head,out,field1,val1,field2,val2,field3,val3,next) \
  26:C:/Users/stapi/OneDrive/Desktop/GD32VW553/GD32VW55X_Wifi_BLE_SDK/GD32VW55x_RELEASE_V1.0.2/MSDK/lwip/libcoap-4.3.4/src\coap_async.c ****   do {                                                                  \
  27:C:/Users/stapi/OneDrive/Desktop/GD32VW553/GD32VW55X_Wifi_BLE_SDK/GD32VW55x_RELEASE_V1.0.2/MSDK/lwip/libcoap-4.3.4/src\coap_async.c ****     LL_FOREACH2(head,out,next) {                                        \
  28:C:/Users/stapi/OneDrive/Desktop/GD32VW553/GD32VW55X_Wifi_BLE_SDK/GD32VW55x_RELEASE_V1.0.2/MSDK/lwip/libcoap-4.3.4/src\coap_async.c ****       if ((out)->field1 == (val1) && (out)->field2 == (val2) &&         \
  29:C:/Users/stapi/OneDrive/Desktop/GD32VW553/GD32VW55X_Wifi_BLE_SDK/GD32VW55x_RELEASE_V1.0.2/MSDK/lwip/libcoap-4.3.4/src\coap_async.c ****           ((val2) == 0 || memcmp((out)->field3, (val3), (val2)) == 0)) break; \
  30:C:/Users/stapi/OneDrive/Desktop/GD32VW553/GD32VW55X_Wifi_BLE_SDK/GD32VW55x_RELEASE_V1.0.2/MSDK/lwip/libcoap-4.3.4/src\coap_async.c ****     }                                                                   \
  31:C:/Users/stapi/OneDrive/Desktop/GD32VW553/GD32VW55X_Wifi_BLE_SDK/GD32VW55x_RELEASE_V1.0.2/MSDK/lwip/libcoap-4.3.4/src\coap_async.c ****   } while(0)
  32:C:/Users/stapi/OneDrive/Desktop/GD32VW553/GD32VW55X_Wifi_BLE_SDK/GD32VW55x_RELEASE_V1.0.2/MSDK/lwip/libcoap-4.3.4/src\coap_async.c **** 
  33:C:/Users/stapi/OneDrive/Desktop/GD32VW553/GD32VW55X_Wifi_BLE_SDK/GD32VW55x_RELEASE_V1.0.2/MSDK/lwip/libcoap-4.3.4/src\coap_async.c **** int
  34:C:/Users/stapi/OneDrive/Desktop/GD32VW553/GD32VW55X_Wifi_BLE_SDK/GD32VW55x_RELEASE_V1.0.2/MSDK/lwip/libcoap-4.3.4/src\coap_async.c **** coap_async_is_supported(void) {
  35:C:/Users/stapi/OneDrive/Desktop/GD32VW553/GD32VW55X_Wifi_BLE_SDK/GD32VW55x_RELEASE_V1.0.2/MSDK/lwip/libcoap-4.3.4/src\coap_async.c ****   return 1;
  36:C:/Users/stapi/OneDrive/Desktop/GD32VW553/GD32VW55X_Wifi_BLE_SDK/GD32VW55x_RELEASE_V1.0.2/MSDK/lwip/libcoap-4.3.4/src\coap_async.c **** }
  37:C:/Users/stapi/OneDrive/Desktop/GD32VW553/GD32VW55X_Wifi_BLE_SDK/GD32VW55x_RELEASE_V1.0.2/MSDK/lwip/libcoap-4.3.4/src\coap_async.c **** 
  38:C:/Users/stapi/OneDrive/Desktop/GD32VW553/GD32VW55X_Wifi_BLE_SDK/GD32VW55x_RELEASE_V1.0.2/MSDK/lwip/libcoap-4.3.4/src\coap_async.c **** coap_async_t *
  39:C:/Users/stapi/OneDrive/Desktop/GD32VW553/GD32VW55X_Wifi_BLE_SDK/GD32VW55x_RELEASE_V1.0.2/MSDK/lwip/libcoap-4.3.4/src\coap_async.c **** coap_register_async(coap_session_t *session,
  40:C:/Users/stapi/OneDrive/Desktop/GD32VW553/GD32VW55X_Wifi_BLE_SDK/GD32VW55x_RELEASE_V1.0.2/MSDK/lwip/libcoap-4.3.4/src\coap_async.c ****                     const coap_pdu_t *request, coap_tick_t delay) {
  41:C:/Users/stapi/OneDrive/Desktop/GD32VW553/GD32VW55X_Wifi_BLE_SDK/GD32VW55x_RELEASE_V1.0.2/MSDK/lwip/libcoap-4.3.4/src\coap_async.c ****   coap_async_t *s;
  42:C:/Users/stapi/OneDrive/Desktop/GD32VW553/GD32VW55X_Wifi_BLE_SDK/GD32VW55x_RELEASE_V1.0.2/MSDK/lwip/libcoap-4.3.4/src\coap_async.c ****   size_t len;
  43:C:/Users/stapi/OneDrive/Desktop/GD32VW553/GD32VW55X_Wifi_BLE_SDK/GD32VW55x_RELEASE_V1.0.2/MSDK/lwip/libcoap-4.3.4/src\coap_async.c ****   const uint8_t *data;
  44:C:/Users/stapi/OneDrive/Desktop/GD32VW553/GD32VW55X_Wifi_BLE_SDK/GD32VW55x_RELEASE_V1.0.2/MSDK/lwip/libcoap-4.3.4/src\coap_async.c **** 
  45:C:/Users/stapi/OneDrive/Desktop/GD32VW553/GD32VW55X_Wifi_BLE_SDK/GD32VW55x_RELEASE_V1.0.2/MSDK/lwip/libcoap-4.3.4/src\coap_async.c ****   if (!COAP_PDU_IS_REQUEST(request))
  46:C:/Users/stapi/OneDrive/Desktop/GD32VW553/GD32VW55X_Wifi_BLE_SDK/GD32VW55x_RELEASE_V1.0.2/MSDK/lwip/libcoap-4.3.4/src\coap_async.c ****     return NULL;
  47:C:/Users/stapi/OneDrive/Desktop/GD32VW553/GD32VW55X_Wifi_BLE_SDK/GD32VW55x_RELEASE_V1.0.2/MSDK/lwip/libcoap-4.3.4/src\coap_async.c **** 
  48:C:/Users/stapi/OneDrive/Desktop/GD32VW553/GD32VW55X_Wifi_BLE_SDK/GD32VW55x_RELEASE_V1.0.2/MSDK/lwip/libcoap-4.3.4/src\coap_async.c ****   SEARCH_PAIR(session->context->async_state, s,
  49:C:/Users/stapi/OneDrive/Desktop/GD32VW553/GD32VW55X_Wifi_BLE_SDK/GD32VW55x_RELEASE_V1.0.2/MSDK/lwip/libcoap-4.3.4/src\coap_async.c ****               session, session,
  50:C:/Users/stapi/OneDrive/Desktop/GD32VW553/GD32VW55X_Wifi_BLE_SDK/GD32VW55x_RELEASE_V1.0.2/MSDK/lwip/libcoap-4.3.4/src\coap_async.c ****               pdu->actual_token.length, request->actual_token.length,
  51:C:/Users/stapi/OneDrive/Desktop/GD32VW553/GD32VW55X_Wifi_BLE_SDK/GD32VW55x_RELEASE_V1.0.2/MSDK/lwip/libcoap-4.3.4/src\coap_async.c ****               pdu->actual_token.s, request->actual_token.s);
  52:C:/Users/stapi/OneDrive/Desktop/GD32VW553/GD32VW55X_Wifi_BLE_SDK/GD32VW55x_RELEASE_V1.0.2/MSDK/lwip/libcoap-4.3.4/src\coap_async.c **** 
  53:C:/Users/stapi/OneDrive/Desktop/GD32VW553/GD32VW55X_Wifi_BLE_SDK/GD32VW55x_RELEASE_V1.0.2/MSDK/lwip/libcoap-4.3.4/src\coap_async.c ****   if (s != NULL) {
  54:C:/Users/stapi/OneDrive/Desktop/GD32VW553/GD32VW55X_Wifi_BLE_SDK/GD32VW55x_RELEASE_V1.0.2/MSDK/lwip/libcoap-4.3.4/src\coap_async.c ****     size_t i;
  55:C:/Users/stapi/OneDrive/Desktop/GD32VW553/GD32VW55X_Wifi_BLE_SDK/GD32VW55x_RELEASE_V1.0.2/MSDK/lwip/libcoap-4.3.4/src\coap_async.c ****     char outbuf[2*8 + 1];
  56:C:/Users/stapi/OneDrive/Desktop/GD32VW553/GD32VW55X_Wifi_BLE_SDK/GD32VW55x_RELEASE_V1.0.2/MSDK/lwip/libcoap-4.3.4/src\coap_async.c ****     size_t outbuflen;
  57:C:/Users/stapi/OneDrive/Desktop/GD32VW553/GD32VW55X_Wifi_BLE_SDK/GD32VW55x_RELEASE_V1.0.2/MSDK/lwip/libcoap-4.3.4/src\coap_async.c **** 
  58:C:/Users/stapi/OneDrive/Desktop/GD32VW553/GD32VW55X_Wifi_BLE_SDK/GD32VW55x_RELEASE_V1.0.2/MSDK/lwip/libcoap-4.3.4/src\coap_async.c ****     outbuf[0] = '\000';
  59:C:/Users/stapi/OneDrive/Desktop/GD32VW553/GD32VW55X_Wifi_BLE_SDK/GD32VW55x_RELEASE_V1.0.2/MSDK/lwip/libcoap-4.3.4/src\coap_async.c ****     for (i = 0; i < request->actual_token.length; i++) {
  60:C:/Users/stapi/OneDrive/Desktop/GD32VW553/GD32VW55X_Wifi_BLE_SDK/GD32VW55x_RELEASE_V1.0.2/MSDK/lwip/libcoap-4.3.4/src\coap_async.c ****       /* Output maybe truncated */
  61:C:/Users/stapi/OneDrive/Desktop/GD32VW553/GD32VW55X_Wifi_BLE_SDK/GD32VW55x_RELEASE_V1.0.2/MSDK/lwip/libcoap-4.3.4/src\coap_async.c ****       outbuflen = strlen(outbuf);
  62:C:/Users/stapi/OneDrive/Desktop/GD32VW553/GD32VW55X_Wifi_BLE_SDK/GD32VW55x_RELEASE_V1.0.2/MSDK/lwip/libcoap-4.3.4/src\coap_async.c ****       snprintf(&outbuf[outbuflen], sizeof(outbuf)-outbuflen,
  63:C:/Users/stapi/OneDrive/Desktop/GD32VW553/GD32VW55X_Wifi_BLE_SDK/GD32VW55x_RELEASE_V1.0.2/MSDK/lwip/libcoap-4.3.4/src\coap_async.c ****                "%02x", request->token[i]);
  64:C:/Users/stapi/OneDrive/Desktop/GD32VW553/GD32VW55X_Wifi_BLE_SDK/GD32VW55x_RELEASE_V1.0.2/MSDK/lwip/libcoap-4.3.4/src\coap_async.c ****     }
  65:C:/Users/stapi/OneDrive/Desktop/GD32VW553/GD32VW55X_Wifi_BLE_SDK/GD32VW55x_RELEASE_V1.0.2/MSDK/lwip/libcoap-4.3.4/src\coap_async.c ****     coap_log_debug("asynchronous state for token '%s' already registered\n", outbuf);
  66:C:/Users/stapi/OneDrive/Desktop/GD32VW553/GD32VW55X_Wifi_BLE_SDK/GD32VW55x_RELEASE_V1.0.2/MSDK/lwip/libcoap-4.3.4/src\coap_async.c ****     return NULL;
  67:C:/Users/stapi/OneDrive/Desktop/GD32VW553/GD32VW55X_Wifi_BLE_SDK/GD32VW55x_RELEASE_V1.0.2/MSDK/lwip/libcoap-4.3.4/src\coap_async.c ****   }
  68:C:/Users/stapi/OneDrive/Desktop/GD32VW553/GD32VW55X_Wifi_BLE_SDK/GD32VW55x_RELEASE_V1.0.2/MSDK/lwip/libcoap-4.3.4/src\coap_async.c **** 
  69:C:/Users/stapi/OneDrive/Desktop/GD32VW553/GD32VW55X_Wifi_BLE_SDK/GD32VW55x_RELEASE_V1.0.2/MSDK/lwip/libcoap-4.3.4/src\coap_async.c ****   /* store information for handling the asynchronous task */
  70:C:/Users/stapi/OneDrive/Desktop/GD32VW553/GD32VW55X_Wifi_BLE_SDK/GD32VW55x_RELEASE_V1.0.2/MSDK/lwip/libcoap-4.3.4/src\coap_async.c ****   s = (coap_async_t *)coap_malloc_type(COAP_STRING, sizeof(coap_async_t));
  71:C:/Users/stapi/OneDrive/Desktop/GD32VW553/GD32VW55X_Wifi_BLE_SDK/GD32VW55x_RELEASE_V1.0.2/MSDK/lwip/libcoap-4.3.4/src\coap_async.c ****   if (!s) {
  72:C:/Users/stapi/OneDrive/Desktop/GD32VW553/GD32VW55X_Wifi_BLE_SDK/GD32VW55x_RELEASE_V1.0.2/MSDK/lwip/libcoap-4.3.4/src\coap_async.c ****     coap_log_crit("coap_register_async: insufficient memory\n");
  73:C:/Users/stapi/OneDrive/Desktop/GD32VW553/GD32VW55X_Wifi_BLE_SDK/GD32VW55x_RELEASE_V1.0.2/MSDK/lwip/libcoap-4.3.4/src\coap_async.c ****     return NULL;
  74:C:/Users/stapi/OneDrive/Desktop/GD32VW553/GD32VW55X_Wifi_BLE_SDK/GD32VW55x_RELEASE_V1.0.2/MSDK/lwip/libcoap-4.3.4/src\coap_async.c ****   }
  75:C:/Users/stapi/OneDrive/Desktop/GD32VW553/GD32VW55X_Wifi_BLE_SDK/GD32VW55x_RELEASE_V1.0.2/MSDK/lwip/libcoap-4.3.4/src\coap_async.c **** 
  76:C:/Users/stapi/OneDrive/Desktop/GD32VW553/GD32VW55X_Wifi_BLE_SDK/GD32VW55x_RELEASE_V1.0.2/MSDK/lwip/libcoap-4.3.4/src\coap_async.c ****   memset(s, 0, sizeof(coap_async_t));
  77:C:/Users/stapi/OneDrive/Desktop/GD32VW553/GD32VW55X_Wifi_BLE_SDK/GD32VW55x_RELEASE_V1.0.2/MSDK/lwip/libcoap-4.3.4/src\coap_async.c ****   LL_PREPEND(session->context->async_state, s);
  78:C:/Users/stapi/OneDrive/Desktop/GD32VW553/GD32VW55X_Wifi_BLE_SDK/GD32VW55x_RELEASE_V1.0.2/MSDK/lwip/libcoap-4.3.4/src\coap_async.c **** 
  79:C:/Users/stapi/OneDrive/Desktop/GD32VW553/GD32VW55X_Wifi_BLE_SDK/GD32VW55x_RELEASE_V1.0.2/MSDK/lwip/libcoap-4.3.4/src\coap_async.c ****   /* Note that this generates a new MID */
  80:C:/Users/stapi/OneDrive/Desktop/GD32VW553/GD32VW55X_Wifi_BLE_SDK/GD32VW55x_RELEASE_V1.0.2/MSDK/lwip/libcoap-4.3.4/src\coap_async.c ****   s->pdu = coap_pdu_duplicate(request, session, request->actual_token.length,
  81:C:/Users/stapi/OneDrive/Desktop/GD32VW553/GD32VW55X_Wifi_BLE_SDK/GD32VW55x_RELEASE_V1.0.2/MSDK/lwip/libcoap-4.3.4/src\coap_async.c ****                               request->actual_token.s, NULL);
  82:C:/Users/stapi/OneDrive/Desktop/GD32VW553/GD32VW55X_Wifi_BLE_SDK/GD32VW55x_RELEASE_V1.0.2/MSDK/lwip/libcoap-4.3.4/src\coap_async.c ****   if (s->pdu == NULL) {
  83:C:/Users/stapi/OneDrive/Desktop/GD32VW553/GD32VW55X_Wifi_BLE_SDK/GD32VW55x_RELEASE_V1.0.2/MSDK/lwip/libcoap-4.3.4/src\coap_async.c ****     coap_free_async(session, s);
  84:C:/Users/stapi/OneDrive/Desktop/GD32VW553/GD32VW55X_Wifi_BLE_SDK/GD32VW55x_RELEASE_V1.0.2/MSDK/lwip/libcoap-4.3.4/src\coap_async.c ****     coap_log_crit("coap_register_async: insufficient memory\n");
  85:C:/Users/stapi/OneDrive/Desktop/GD32VW553/GD32VW55X_Wifi_BLE_SDK/GD32VW55x_RELEASE_V1.0.2/MSDK/lwip/libcoap-4.3.4/src\coap_async.c ****     return NULL;
  86:C:/Users/stapi/OneDrive/Desktop/GD32VW553/GD32VW55X_Wifi_BLE_SDK/GD32VW55x_RELEASE_V1.0.2/MSDK/lwip/libcoap-4.3.4/src\coap_async.c ****   }
  87:C:/Users/stapi/OneDrive/Desktop/GD32VW553/GD32VW55X_Wifi_BLE_SDK/GD32VW55x_RELEASE_V1.0.2/MSDK/lwip/libcoap-4.3.4/src\coap_async.c **** 
  88:C:/Users/stapi/OneDrive/Desktop/GD32VW553/GD32VW55X_Wifi_BLE_SDK/GD32VW55x_RELEASE_V1.0.2/MSDK/lwip/libcoap-4.3.4/src\coap_async.c ****   if (coap_get_data(request, &len, &data)) {
  89:C:/Users/stapi/OneDrive/Desktop/GD32VW553/GD32VW55X_Wifi_BLE_SDK/GD32VW55x_RELEASE_V1.0.2/MSDK/lwip/libcoap-4.3.4/src\coap_async.c ****     coap_add_data(s->pdu, len, data);
  90:C:/Users/stapi/OneDrive/Desktop/GD32VW553/GD32VW55X_Wifi_BLE_SDK/GD32VW55x_RELEASE_V1.0.2/MSDK/lwip/libcoap-4.3.4/src\coap_async.c ****   }
  91:C:/Users/stapi/OneDrive/Desktop/GD32VW553/GD32VW55X_Wifi_BLE_SDK/GD32VW55x_RELEASE_V1.0.2/MSDK/lwip/libcoap-4.3.4/src\coap_async.c **** 
  92:C:/Users/stapi/OneDrive/Desktop/GD32VW553/GD32VW55X_Wifi_BLE_SDK/GD32VW55x_RELEASE_V1.0.2/MSDK/lwip/libcoap-4.3.4/src\coap_async.c ****   s->session = coap_session_reference(session);
  93:C:/Users/stapi/OneDrive/Desktop/GD32VW553/GD32VW55X_Wifi_BLE_SDK/GD32VW55x_RELEASE_V1.0.2/MSDK/lwip/libcoap-4.3.4/src\coap_async.c **** 
  94:C:/Users/stapi/OneDrive/Desktop/GD32VW553/GD32VW55X_Wifi_BLE_SDK/GD32VW55x_RELEASE_V1.0.2/MSDK/lwip/libcoap-4.3.4/src\coap_async.c ****   coap_async_set_delay(s, delay);
  95:C:/Users/stapi/OneDrive/Desktop/GD32VW553/GD32VW55X_Wifi_BLE_SDK/GD32VW55x_RELEASE_V1.0.2/MSDK/lwip/libcoap-4.3.4/src\coap_async.c **** 
  96:C:/Users/stapi/OneDrive/Desktop/GD32VW553/GD32VW55X_Wifi_BLE_SDK/GD32VW55x_RELEASE_V1.0.2/MSDK/lwip/libcoap-4.3.4/src\coap_async.c ****   return s;
  97:C:/Users/stapi/OneDrive/Desktop/GD32VW553/GD32VW55X_Wifi_BLE_SDK/GD32VW55x_RELEASE_V1.0.2/MSDK/lwip/libcoap-4.3.4/src\coap_async.c **** }
  98:C:/Users/stapi/OneDrive/Desktop/GD32VW553/GD32VW55X_Wifi_BLE_SDK/GD32VW55x_RELEASE_V1.0.2/MSDK/lwip/libcoap-4.3.4/src\coap_async.c **** 
  99:C:/Users/stapi/OneDrive/Desktop/GD32VW553/GD32VW55X_Wifi_BLE_SDK/GD32VW55x_RELEASE_V1.0.2/MSDK/lwip/libcoap-4.3.4/src\coap_async.c **** void
 100:C:/Users/stapi/OneDrive/Desktop/GD32VW553/GD32VW55X_Wifi_BLE_SDK/GD32VW55x_RELEASE_V1.0.2/MSDK/lwip/libcoap-4.3.4/src\coap_async.c **** coap_async_trigger(coap_async_t *async) {
 101:C:/Users/stapi/OneDrive/Desktop/GD32VW553/GD32VW55X_Wifi_BLE_SDK/GD32VW55x_RELEASE_V1.0.2/MSDK/lwip/libcoap-4.3.4/src\coap_async.c ****   assert(async != NULL);
 102:C:/Users/stapi/OneDrive/Desktop/GD32VW553/GD32VW55X_Wifi_BLE_SDK/GD32VW55x_RELEASE_V1.0.2/MSDK/lwip/libcoap-4.3.4/src\coap_async.c ****   coap_ticks(&async->delay);
 103:C:/Users/stapi/OneDrive/Desktop/GD32VW553/GD32VW55X_Wifi_BLE_SDK/GD32VW55x_RELEASE_V1.0.2/MSDK/lwip/libcoap-4.3.4/src\coap_async.c **** 
 104:C:/Users/stapi/OneDrive/Desktop/GD32VW553/GD32VW55X_Wifi_BLE_SDK/GD32VW55x_RELEASE_V1.0.2/MSDK/lwip/libcoap-4.3.4/src\coap_async.c ****   coap_log_debug("   %s: Async request triggered\n",
 105:C:/Users/stapi/OneDrive/Desktop/GD32VW553/GD32VW55X_Wifi_BLE_SDK/GD32VW55x_RELEASE_V1.0.2/MSDK/lwip/libcoap-4.3.4/src\coap_async.c ****                  coap_session_str(async->session));
 106:C:/Users/stapi/OneDrive/Desktop/GD32VW553/GD32VW55X_Wifi_BLE_SDK/GD32VW55x_RELEASE_V1.0.2/MSDK/lwip/libcoap-4.3.4/src\coap_async.c **** #ifdef COAP_EPOLL_SUPPORT
 107:C:/Users/stapi/OneDrive/Desktop/GD32VW553/GD32VW55X_Wifi_BLE_SDK/GD32VW55x_RELEASE_V1.0.2/MSDK/lwip/libcoap-4.3.4/src\coap_async.c ****   coap_update_epoll_timer(async->session->context, 0);
 108:C:/Users/stapi/OneDrive/Desktop/GD32VW553/GD32VW55X_Wifi_BLE_SDK/GD32VW55x_RELEASE_V1.0.2/MSDK/lwip/libcoap-4.3.4/src\coap_async.c **** #endif /* COAP_EPOLL_SUPPORT */
 109:C:/Users/stapi/OneDrive/Desktop/GD32VW553/GD32VW55X_Wifi_BLE_SDK/GD32VW55x_RELEASE_V1.0.2/MSDK/lwip/libcoap-4.3.4/src\coap_async.c **** }
 110:C:/Users/stapi/OneDrive/Desktop/GD32VW553/GD32VW55X_Wifi_BLE_SDK/GD32VW55x_RELEASE_V1.0.2/MSDK/lwip/libcoap-4.3.4/src\coap_async.c **** 
 111:C:/Users/stapi/OneDrive/Desktop/GD32VW553/GD32VW55X_Wifi_BLE_SDK/GD32VW55x_RELEASE_V1.0.2/MSDK/lwip/libcoap-4.3.4/src\coap_async.c **** 
 112:C:/Users/stapi/OneDrive/Desktop/GD32VW553/GD32VW55X_Wifi_BLE_SDK/GD32VW55x_RELEASE_V1.0.2/MSDK/lwip/libcoap-4.3.4/src\coap_async.c **** void
 113:C:/Users/stapi/OneDrive/Desktop/GD32VW553/GD32VW55X_Wifi_BLE_SDK/GD32VW55x_RELEASE_V1.0.2/MSDK/lwip/libcoap-4.3.4/src\coap_async.c **** coap_async_set_delay(coap_async_t *async, coap_tick_t delay) {
 114:C:/Users/stapi/OneDrive/Desktop/GD32VW553/GD32VW55X_Wifi_BLE_SDK/GD32VW55x_RELEASE_V1.0.2/MSDK/lwip/libcoap-4.3.4/src\coap_async.c ****   coap_tick_t now;
 115:C:/Users/stapi/OneDrive/Desktop/GD32VW553/GD32VW55X_Wifi_BLE_SDK/GD32VW55x_RELEASE_V1.0.2/MSDK/lwip/libcoap-4.3.4/src\coap_async.c **** 
 116:C:/Users/stapi/OneDrive/Desktop/GD32VW553/GD32VW55X_Wifi_BLE_SDK/GD32VW55x_RELEASE_V1.0.2/MSDK/lwip/libcoap-4.3.4/src\coap_async.c ****   assert(async != NULL);
 117:C:/Users/stapi/OneDrive/Desktop/GD32VW553/GD32VW55X_Wifi_BLE_SDK/GD32VW55x_RELEASE_V1.0.2/MSDK/lwip/libcoap-4.3.4/src\coap_async.c ****   coap_ticks(&now);
 118:C:/Users/stapi/OneDrive/Desktop/GD32VW553/GD32VW55X_Wifi_BLE_SDK/GD32VW55x_RELEASE_V1.0.2/MSDK/lwip/libcoap-4.3.4/src\coap_async.c **** 
 119:C:/Users/stapi/OneDrive/Desktop/GD32VW553/GD32VW55X_Wifi_BLE_SDK/GD32VW55x_RELEASE_V1.0.2/MSDK/lwip/libcoap-4.3.4/src\coap_async.c ****   if (delay) {
 120:C:/Users/stapi/OneDrive/Desktop/GD32VW553/GD32VW55X_Wifi_BLE_SDK/GD32VW55x_RELEASE_V1.0.2/MSDK/lwip/libcoap-4.3.4/src\coap_async.c ****     async->delay = now + delay;
 121:C:/Users/stapi/OneDrive/Desktop/GD32VW553/GD32VW55X_Wifi_BLE_SDK/GD32VW55x_RELEASE_V1.0.2/MSDK/lwip/libcoap-4.3.4/src\coap_async.c **** #ifdef COAP_EPOLL_SUPPORT
 122:C:/Users/stapi/OneDrive/Desktop/GD32VW553/GD32VW55X_Wifi_BLE_SDK/GD32VW55x_RELEASE_V1.0.2/MSDK/lwip/libcoap-4.3.4/src\coap_async.c ****     coap_update_epoll_timer(async->session->context, delay);
 123:C:/Users/stapi/OneDrive/Desktop/GD32VW553/GD32VW55X_Wifi_BLE_SDK/GD32VW55x_RELEASE_V1.0.2/MSDK/lwip/libcoap-4.3.4/src\coap_async.c **** #endif /* COAP_EPOLL_SUPPORT */
 124:C:/Users/stapi/OneDrive/Desktop/GD32VW553/GD32VW55X_Wifi_BLE_SDK/GD32VW55x_RELEASE_V1.0.2/MSDK/lwip/libcoap-4.3.4/src\coap_async.c ****     coap_log_debug("   %s: Async request delayed for %u.%03u secs\n",
 125:C:/Users/stapi/OneDrive/Desktop/GD32VW553/GD32VW55X_Wifi_BLE_SDK/GD32VW55x_RELEASE_V1.0.2/MSDK/lwip/libcoap-4.3.4/src\coap_async.c ****                    coap_session_str(async->session),
 126:C:/Users/stapi/OneDrive/Desktop/GD32VW553/GD32VW55X_Wifi_BLE_SDK/GD32VW55x_RELEASE_V1.0.2/MSDK/lwip/libcoap-4.3.4/src\coap_async.c ****                    (unsigned int)(delay / COAP_TICKS_PER_SECOND),
 127:C:/Users/stapi/OneDrive/Desktop/GD32VW553/GD32VW55X_Wifi_BLE_SDK/GD32VW55x_RELEASE_V1.0.2/MSDK/lwip/libcoap-4.3.4/src\coap_async.c ****                    (unsigned int)((delay % COAP_TICKS_PER_SECOND) *
 128:C:/Users/stapi/OneDrive/Desktop/GD32VW553/GD32VW55X_Wifi_BLE_SDK/GD32VW55x_RELEASE_V1.0.2/MSDK/lwip/libcoap-4.3.4/src\coap_async.c ****                                   1000 / COAP_TICKS_PER_SECOND));
 129:C:/Users/stapi/OneDrive/Desktop/GD32VW553/GD32VW55X_Wifi_BLE_SDK/GD32VW55x_RELEASE_V1.0.2/MSDK/lwip/libcoap-4.3.4/src\coap_async.c ****   } else {
 130:C:/Users/stapi/OneDrive/Desktop/GD32VW553/GD32VW55X_Wifi_BLE_SDK/GD32VW55x_RELEASE_V1.0.2/MSDK/lwip/libcoap-4.3.4/src\coap_async.c ****     async->delay = 0;
 131:C:/Users/stapi/OneDrive/Desktop/GD32VW553/GD32VW55X_Wifi_BLE_SDK/GD32VW55x_RELEASE_V1.0.2/MSDK/lwip/libcoap-4.3.4/src\coap_async.c ****     coap_log_debug("   %s: Async request indefinately delayed\n",
 132:C:/Users/stapi/OneDrive/Desktop/GD32VW553/GD32VW55X_Wifi_BLE_SDK/GD32VW55x_RELEASE_V1.0.2/MSDK/lwip/libcoap-4.3.4/src\coap_async.c ****                    coap_session_str(async->session));
 133:C:/Users/stapi/OneDrive/Desktop/GD32VW553/GD32VW55X_Wifi_BLE_SDK/GD32VW55x_RELEASE_V1.0.2/MSDK/lwip/libcoap-4.3.4/src\coap_async.c ****   }
 134:C:/Users/stapi/OneDrive/Desktop/GD32VW553/GD32VW55X_Wifi_BLE_SDK/GD32VW55x_RELEASE_V1.0.2/MSDK/lwip/libcoap-4.3.4/src\coap_async.c **** }
 135:C:/Users/stapi/OneDrive/Desktop/GD32VW553/GD32VW55X_Wifi_BLE_SDK/GD32VW55x_RELEASE_V1.0.2/MSDK/lwip/libcoap-4.3.4/src\coap_async.c **** 
 136:C:/Users/stapi/OneDrive/Desktop/GD32VW553/GD32VW55X_Wifi_BLE_SDK/GD32VW55x_RELEASE_V1.0.2/MSDK/lwip/libcoap-4.3.4/src\coap_async.c **** coap_async_t *
 137:C:/Users/stapi/OneDrive/Desktop/GD32VW553/GD32VW55X_Wifi_BLE_SDK/GD32VW55x_RELEASE_V1.0.2/MSDK/lwip/libcoap-4.3.4/src\coap_async.c **** coap_find_async(coap_session_t *session, coap_bin_const_t token) {
 138:C:/Users/stapi/OneDrive/Desktop/GD32VW553/GD32VW55X_Wifi_BLE_SDK/GD32VW55x_RELEASE_V1.0.2/MSDK/lwip/libcoap-4.3.4/src\coap_async.c ****   coap_async_t *tmp;
 139:C:/Users/stapi/OneDrive/Desktop/GD32VW553/GD32VW55X_Wifi_BLE_SDK/GD32VW55x_RELEASE_V1.0.2/MSDK/lwip/libcoap-4.3.4/src\coap_async.c **** 
 140:C:/Users/stapi/OneDrive/Desktop/GD32VW553/GD32VW55X_Wifi_BLE_SDK/GD32VW55x_RELEASE_V1.0.2/MSDK/lwip/libcoap-4.3.4/src\coap_async.c ****   SEARCH_PAIR(session->context->async_state, tmp,
 141:C:/Users/stapi/OneDrive/Desktop/GD32VW553/GD32VW55X_Wifi_BLE_SDK/GD32VW55x_RELEASE_V1.0.2/MSDK/lwip/libcoap-4.3.4/src\coap_async.c ****               session, session,
 142:C:/Users/stapi/OneDrive/Desktop/GD32VW553/GD32VW55X_Wifi_BLE_SDK/GD32VW55x_RELEASE_V1.0.2/MSDK/lwip/libcoap-4.3.4/src\coap_async.c ****               pdu->actual_token.length, token.length,
 143:C:/Users/stapi/OneDrive/Desktop/GD32VW553/GD32VW55X_Wifi_BLE_SDK/GD32VW55x_RELEASE_V1.0.2/MSDK/lwip/libcoap-4.3.4/src\coap_async.c ****               pdu->actual_token.s, token.s);
 144:C:/Users/stapi/OneDrive/Desktop/GD32VW553/GD32VW55X_Wifi_BLE_SDK/GD32VW55x_RELEASE_V1.0.2/MSDK/lwip/libcoap-4.3.4/src\coap_async.c ****   return tmp;
 145:C:/Users/stapi/OneDrive/Desktop/GD32VW553/GD32VW55X_Wifi_BLE_SDK/GD32VW55x_RELEASE_V1.0.2/MSDK/lwip/libcoap-4.3.4/src\coap_async.c **** }
 146:C:/Users/stapi/OneDrive/Desktop/GD32VW553/GD32VW55X_Wifi_BLE_SDK/GD32VW55x_RELEASE_V1.0.2/MSDK/lwip/libcoap-4.3.4/src\coap_async.c **** 
 147:C:/Users/stapi/OneDrive/Desktop/GD32VW553/GD32VW55X_Wifi_BLE_SDK/GD32VW55x_RELEASE_V1.0.2/MSDK/lwip/libcoap-4.3.4/src\coap_async.c **** static void
 148:C:/Users/stapi/OneDrive/Desktop/GD32VW553/GD32VW55X_Wifi_BLE_SDK/GD32VW55x_RELEASE_V1.0.2/MSDK/lwip/libcoap-4.3.4/src\coap_async.c **** coap_free_async_sub(coap_context_t *context, coap_async_t *s) {
  15              		.loc 1 148 63
  16              		.cfi_startproc
  17              	.LVL0:
 149:C:/Users/stapi/OneDrive/Desktop/GD32VW553/GD32VW55X_Wifi_BLE_SDK/GD32VW55x_RELEASE_V1.0.2/MSDK/lwip/libcoap-4.3.4/src\coap_async.c ****   if (s) {
  18              		.loc 1 149 3
  19              		.loc 1 149 6 is_stmt 0
  20 0000 B9C9     		beq	a1,zero,.L24
 148:C:/Users/stapi/OneDrive/Desktop/GD32VW553/GD32VW55X_Wifi_BLE_SDK/GD32VW55x_RELEASE_V1.0.2/MSDK/lwip/libcoap-4.3.4/src\coap_async.c ****   if (s) {
  21              		.loc 1 148 63
  22 0002 17030000 		call	t0,__riscv_save_1
  22      E7020300 
  23              		.cfi_offset 8, -8
  24              		.cfi_offset 1, -4
  25              		.cfi_def_cfa_offset 16
  26              	.LBB2:
 150:C:/Users/stapi/OneDrive/Desktop/GD32VW553/GD32VW55X_Wifi_BLE_SDK/GD32VW55x_RELEASE_V1.0.2/MSDK/lwip/libcoap-4.3.4/src\coap_async.c ****     LL_DELETE(context->async_state,s);
  27              		.loc 1 150 5
  28 000a 5C4D     		lw	a5,28(a0)
  29 000c 2E84     		mv	s0,a1
  30              	.LBE2:
  31              		.loc 1 150 5 is_stmt 1
  32              	.LBB3:
  33              		.loc 1 150 5
  34              		.loc 1 150 5
  35 000e 639CB702 		bne	a5,a1,.L3
  36              		.loc 1 150 5 discriminator 1
  37 0012 9C41     		lw	a5,0(a1)
  38 0014 5CCD     		sw	a5,28(a0)
  39              	.L4:
  40              	.LBE3:
  41              		.loc 1 150 5 discriminator 12
 151:C:/Users/stapi/OneDrive/Desktop/GD32VW553/GD32VW55X_Wifi_BLE_SDK/GD32VW55x_RELEASE_V1.0.2/MSDK/lwip/libcoap-4.3.4/src\coap_async.c ****     if (s->session) {
  42              		.loc 1 151 5 discriminator 12
  43              		.loc 1 151 10 is_stmt 0 discriminator 12
  44 0016 0844     		lw	a0,8(s0)
  45              	.LVL1:
  46              		.loc 1 151 8 discriminator 12
  47 0018 09C5     		beq	a0,zero,.L6
 152:C:/Users/stapi/OneDrive/Desktop/GD32VW553/GD32VW55X_Wifi_BLE_SDK/GD32VW55x_RELEASE_V1.0.2/MSDK/lwip/libcoap-4.3.4/src\coap_async.c ****       coap_session_release(s->session);
  48              		.loc 1 152 7 is_stmt 1
  49 001a 97000000 		call	coap_session_release
  49      E7800000 
  50              	.LVL2:
  51              	.L6:
 153:C:/Users/stapi/OneDrive/Desktop/GD32VW553/GD32VW55X_Wifi_BLE_SDK/GD32VW55x_RELEASE_V1.0.2/MSDK/lwip/libcoap-4.3.4/src\coap_async.c ****     }
 154:C:/Users/stapi/OneDrive/Desktop/GD32VW553/GD32VW55X_Wifi_BLE_SDK/GD32VW55x_RELEASE_V1.0.2/MSDK/lwip/libcoap-4.3.4/src\coap_async.c ****     if (s->pdu) {
  52              		.loc 1 154 5
  53              		.loc 1 154 10 is_stmt 0
  54 0022 4844     		lw	a0,12(s0)
  55              		.loc 1 154 8
  56 0024 19C5     		beq	a0,zero,.L7
 155:C:/Users/stapi/OneDrive/Desktop/GD32VW553/GD32VW55X_Wifi_BLE_SDK/GD32VW55x_RELEASE_V1.0.2/MSDK/lwip/libcoap-4.3.4/src\coap_async.c ****       coap_delete_pdu(s->pdu);
  57              		.loc 1 155 7 is_stmt 1
  58 0026 97000000 		call	coap_delete_pdu
  58      E7800000 
  59              	.LVL3:
 156:C:/Users/stapi/OneDrive/Desktop/GD32VW553/GD32VW55X_Wifi_BLE_SDK/GD32VW55x_RELEASE_V1.0.2/MSDK/lwip/libcoap-4.3.4/src\coap_async.c ****       s->pdu = NULL;
  60              		.loc 1 156 7
  61              		.loc 1 156 14 is_stmt 0
  62 002e 23260400 		sw	zero,12(s0)
  63              	.L7:
 157:C:/Users/stapi/OneDrive/Desktop/GD32VW553/GD32VW55X_Wifi_BLE_SDK/GD32VW55x_RELEASE_V1.0.2/MSDK/lwip/libcoap-4.3.4/src\coap_async.c ****     }
 158:C:/Users/stapi/OneDrive/Desktop/GD32VW553/GD32VW55X_Wifi_BLE_SDK/GD32VW55x_RELEASE_V1.0.2/MSDK/lwip/libcoap-4.3.4/src\coap_async.c ****     coap_free_type(COAP_STRING, s);
  64              		.loc 1 158 5 is_stmt 1
  65 0032 A285     		mv	a1,s0
  66 0034 0145     		li	a0,0
  67 0036 97000000 		call	coap_free_type
  67      E7800000 
  68              	.LVL4:
 159:C:/Users/stapi/OneDrive/Desktop/GD32VW553/GD32VW55X_Wifi_BLE_SDK/GD32VW55x_RELEASE_V1.0.2/MSDK/lwip/libcoap-4.3.4/src\coap_async.c ****   }
 160:C:/Users/stapi/OneDrive/Desktop/GD32VW553/GD32VW55X_Wifi_BLE_SDK/GD32VW55x_RELEASE_V1.0.2/MSDK/lwip/libcoap-4.3.4/src\coap_async.c **** }
  69              		.loc 1 160 1 is_stmt 0
  70 003e 17030000 		tail	__riscv_restore_1
  70      67000300 
  71              		.cfi_remember_state
  72              		.cfi_restore 8
  73              		.cfi_restore 1
  74              		.cfi_def_cfa_offset 0
  75              	.LVL5:
  76              	.L3:
  77              		.cfi_restore_state
  78              	.LBB4:
 150:C:/Users/stapi/OneDrive/Desktop/GD32VW553/GD32VW55X_Wifi_BLE_SDK/GD32VW55x_RELEASE_V1.0.2/MSDK/lwip/libcoap-4.3.4/src\coap_async.c ****     if (s->session) {
  79              		.loc 1 150 5 is_stmt 1 discriminator 4
  80 0046 3E87     		mv	a4,a5
  81 0048 9C43     		lw	a5,0(a5)
  82              	.LVL6:
  83 004a F1D7     		beq	a5,zero,.L4
 150:C:/Users/stapi/OneDrive/Desktop/GD32VW553/GD32VW55X_Wifi_BLE_SDK/GD32VW55x_RELEASE_V1.0.2/MSDK/lwip/libcoap-4.3.4/src\coap_async.c ****     if (s->session) {
  84              		.loc 1 150 5 is_stmt 0 discriminator 6
  85 004c E39D87FE 		bne	a5,s0,.L3
 150:C:/Users/stapi/OneDrive/Desktop/GD32VW553/GD32VW55X_Wifi_BLE_SDK/GD32VW55x_RELEASE_V1.0.2/MSDK/lwip/libcoap-4.3.4/src\coap_async.c ****     if (s->session) {
  86              		.loc 1 150 5 is_stmt 1
 150:C:/Users/stapi/OneDrive/Desktop/GD32VW553/GD32VW55X_Wifi_BLE_SDK/GD32VW55x_RELEASE_V1.0.2/MSDK/lwip/libcoap-4.3.4/src\coap_async.c ****     if (s->session) {
  87              		.loc 1 150 5
  88 0050 1C40     		lw	a5,0(s0)
  89 0052 1CC3     		sw	a5,0(a4)
  90 0054 C9B7     		j	.L4
  91              	.LVL7:
  92              	.L24:
  93              		.cfi_def_cfa_offset 0
  94              		.cfi_restore 1
  95              		.cfi_restore 8
  96 0056 8280     		ret
  97              	.LBE4:
  98              		.cfi_endproc
  99              	.LFE36:
 101              		.section	.text.coap_async_is_supported,"ax",@progbits
 102              		.align	1
 103              		.globl	coap_async_is_supported
 105              	coap_async_is_supported:
 106              	.LFB31:
  34:C:/Users/stapi/OneDrive/Desktop/GD32VW553/GD32VW55X_Wifi_BLE_SDK/GD32VW55x_RELEASE_V1.0.2/MSDK/lwip/libcoap-4.3.4/src\coap_async.c ****   return 1;
 107              		.loc 1 34 31
 108              		.cfi_startproc
  35:C:/Users/stapi/OneDrive/Desktop/GD32VW553/GD32VW55X_Wifi_BLE_SDK/GD32VW55x_RELEASE_V1.0.2/MSDK/lwip/libcoap-4.3.4/src\coap_async.c **** }
 109              		.loc 1 35 3
  36:C:/Users/stapi/OneDrive/Desktop/GD32VW553/GD32VW55X_Wifi_BLE_SDK/GD32VW55x_RELEASE_V1.0.2/MSDK/lwip/libcoap-4.3.4/src\coap_async.c **** 
 110              		.loc 1 36 1 is_stmt 0
 111 0000 0545     		li	a0,1
 112 0002 8280     		ret
 113              		.cfi_endproc
 114              	.LFE31:
 116              		.section	.rodata.coap_async_trigger.str1.4,"aMS",@progbits,1
 117              		.align	2
 118              	.LC0:
 119 0000 6173796E 		.string	"async != NULL"
 119      6320213D 
 119      204E554C 
 119      4C00
 120 000e 0000     		.align	2
 121              	.LC1:
 122 0010 433A2F55 		.string	"C:/Users/stapi/OneDrive/Desktop/GD32VW553/GD32VW55X_Wifi_BLE_SDK/GD32VW55x_RELEASE_V1.0.2
 122      73657273 
 122      2F737461 
 122      70692F4F 
 122      6E654472 
 123 0093 00       		.align	2
 124              	.LC2:
 125 0094 20202025 		.string	"   %s: Async request triggered\n"
 125      733A2041 
 125      73796E63 
 125      20726571 
 125      75657374 
 126              		.section	.text.coap_async_trigger,"ax",@progbits
 127              		.align	1
 128              		.globl	coap_async_trigger
 130              	coap_async_trigger:
 131              	.LFB33:
 100:C:/Users/stapi/OneDrive/Desktop/GD32VW553/GD32VW55X_Wifi_BLE_SDK/GD32VW55x_RELEASE_V1.0.2/MSDK/lwip/libcoap-4.3.4/src\coap_async.c ****   assert(async != NULL);
 132              		.loc 1 100 41 is_stmt 1
 133              		.cfi_startproc
 134              	.LVL8:
 135 0000 17030000 		call	t0,__riscv_save_1
 135      E7020300 
 136              		.cfi_offset 8, -8
 137              		.cfi_offset 1, -4
 138              		.cfi_def_cfa_offset 16
 101:C:/Users/stapi/OneDrive/Desktop/GD32VW553/GD32VW55X_Wifi_BLE_SDK/GD32VW55x_RELEASE_V1.0.2/MSDK/lwip/libcoap-4.3.4/src\coap_async.c ****   coap_ticks(&async->delay);
 139              		.loc 1 101 3
 140 0008 1DE1     		bne	a0,zero,.L29
 101:C:/Users/stapi/OneDrive/Desktop/GD32VW553/GD32VW55X_Wifi_BLE_SDK/GD32VW55x_RELEASE_V1.0.2/MSDK/lwip/libcoap-4.3.4/src\coap_async.c ****   coap_ticks(&async->delay);
 141              		.loc 1 101 3 is_stmt 0 discriminator 1
 142 000a B7060000 		lui	a3,%hi(.LC0)
 143 000e 37060000 		lui	a2,%hi(.LANCHOR0)
 144 0012 37050000 		lui	a0,%hi(.LC1)
 145              	.LVL9:
 146 0016 93860600 		addi	a3,a3,%lo(.LC0)
 147 001a 13060600 		addi	a2,a2,%lo(.LANCHOR0)
 148 001e 93055006 		li	a1,101
 149 0022 13050500 		addi	a0,a0,%lo(.LC1)
 150 0026 97000000 		call	__assert_func
 150      E7800000 
 151              	.LVL10:
 152              	.L29:
 153 002e 2A84     		mv	s0,a0
 102:C:/Users/stapi/OneDrive/Desktop/GD32VW553/GD32VW55X_Wifi_BLE_SDK/GD32VW55x_RELEASE_V1.0.2/MSDK/lwip/libcoap-4.3.4/src\coap_async.c **** 
 154              		.loc 1 102 3 is_stmt 1
 155              	.LVL11:
 156              	.LBB7:
 157              	.LBB8:
 158              		.file 2 "..\\..\\..\\..\\lwip\\libcoap-4.3.4\\include/coap3/coap_time.h"
   1:..\..\..\..\lwip\libcoap-4.3.4\include/coap3/coap_time.h **** /*
   2:..\..\..\..\lwip\libcoap-4.3.4\include/coap3/coap_time.h ****  * coap_time.h -- Clock Handling
   3:..\..\..\..\lwip\libcoap-4.3.4\include/coap3/coap_time.h ****  *
   4:..\..\..\..\lwip\libcoap-4.3.4\include/coap3/coap_time.h ****  * Copyright (C) 2010-2023 Olaf Bergmann <bergmann@tzi.org>
   5:..\..\..\..\lwip\libcoap-4.3.4\include/coap3/coap_time.h ****  *
   6:..\..\..\..\lwip\libcoap-4.3.4\include/coap3/coap_time.h ****  * SPDX-License-Identifier: BSD-2-Clause
   7:..\..\..\..\lwip\libcoap-4.3.4\include/coap3/coap_time.h ****  *
   8:..\..\..\..\lwip\libcoap-4.3.4\include/coap3/coap_time.h ****  * This file is part of the CoAP library libcoap. Please see README for terms
   9:..\..\..\..\lwip\libcoap-4.3.4\include/coap3/coap_time.h ****  * of use.
  10:..\..\..\..\lwip\libcoap-4.3.4\include/coap3/coap_time.h ****  */
  11:..\..\..\..\lwip\libcoap-4.3.4\include/coap3/coap_time.h **** 
  12:..\..\..\..\lwip\libcoap-4.3.4\include/coap3/coap_time.h **** /**
  13:..\..\..\..\lwip\libcoap-4.3.4\include/coap3/coap_time.h ****  * @file coap_time.h
  14:..\..\..\..\lwip\libcoap-4.3.4\include/coap3/coap_time.h ****  * @brief Clock Handling
  15:..\..\..\..\lwip\libcoap-4.3.4\include/coap3/coap_time.h ****  */
  16:..\..\..\..\lwip\libcoap-4.3.4\include/coap3/coap_time.h **** 
  17:..\..\..\..\lwip\libcoap-4.3.4\include/coap3/coap_time.h **** #ifndef COAP_TIME_H_
  18:..\..\..\..\lwip\libcoap-4.3.4\include/coap3/coap_time.h **** #define COAP_TIME_H_
  19:..\..\..\..\lwip\libcoap-4.3.4\include/coap3/coap_time.h **** 
  20:..\..\..\..\lwip\libcoap-4.3.4\include/coap3/coap_time.h **** /**
  21:..\..\..\..\lwip\libcoap-4.3.4\include/coap3/coap_time.h ****  * @ingroup application_api
  22:..\..\..\..\lwip\libcoap-4.3.4\include/coap3/coap_time.h ****  * @defgroup clock Clock Handling
  23:..\..\..\..\lwip\libcoap-4.3.4\include/coap3/coap_time.h ****  * API for internal clock assess
  24:..\..\..\..\lwip\libcoap-4.3.4\include/coap3/coap_time.h ****  * @{
  25:..\..\..\..\lwip\libcoap-4.3.4\include/coap3/coap_time.h ****  */
  26:..\..\..\..\lwip\libcoap-4.3.4\include/coap3/coap_time.h **** 
  27:..\..\..\..\lwip\libcoap-4.3.4\include/coap3/coap_time.h **** #if defined(WITH_LWIP)
  28:..\..\..\..\lwip\libcoap-4.3.4\include/coap3/coap_time.h **** 
  29:..\..\..\..\lwip\libcoap-4.3.4\include/coap3/coap_time.h **** #include <stdint.h>
  30:..\..\..\..\lwip\libcoap-4.3.4\include/coap3/coap_time.h **** #include <lwip/sys.h>
  31:..\..\..\..\lwip\libcoap-4.3.4\include/coap3/coap_time.h **** 
  32:..\..\..\..\lwip\libcoap-4.3.4\include/coap3/coap_time.h **** /* lwIP provides ms in sys_now */
  33:..\..\..\..\lwip\libcoap-4.3.4\include/coap3/coap_time.h **** #define COAP_TICKS_PER_SECOND 1000
  34:..\..\..\..\lwip\libcoap-4.3.4\include/coap3/coap_time.h **** 
  35:..\..\..\..\lwip\libcoap-4.3.4\include/coap3/coap_time.h **** typedef uint32_t coap_tick_t;
  36:..\..\..\..\lwip\libcoap-4.3.4\include/coap3/coap_time.h **** typedef uint32_t coap_time_t;
  37:..\..\..\..\lwip\libcoap-4.3.4\include/coap3/coap_time.h **** typedef int32_t coap_tick_diff_t;
  38:..\..\..\..\lwip\libcoap-4.3.4\include/coap3/coap_time.h **** 
  39:..\..\..\..\lwip\libcoap-4.3.4\include/coap3/coap_time.h **** COAP_STATIC_INLINE void
  40:..\..\..\..\lwip\libcoap-4.3.4\include/coap3/coap_time.h **** coap_ticks_impl(coap_tick_t *t) {
  41:..\..\..\..\lwip\libcoap-4.3.4\include/coap3/coap_time.h ****   *t = sys_now();
 159              		.loc 2 41 3
 160              		.loc 2 41 8 is_stmt 0
 161 0030 97000000 		call	sys_now
 161      E7800000 
 162              	.LVL12:
 163              		.loc 2 41 6
 164 0038 48C0     		sw	a0,4(s0)
 165              	.LVL13:
 166              	.LBE8:
 167              	.LBE7:
 104:C:/Users/stapi/OneDrive/Desktop/GD32VW553/GD32VW55X_Wifi_BLE_SDK/GD32VW55x_RELEASE_V1.0.2/MSDK/lwip/libcoap-4.3.4/src\coap_async.c ****                  coap_session_str(async->session));
 168              		.loc 1 104 3 is_stmt 1
 104:C:/Users/stapi/OneDrive/Desktop/GD32VW553/GD32VW55X_Wifi_BLE_SDK/GD32VW55x_RELEASE_V1.0.2/MSDK/lwip/libcoap-4.3.4/src\coap_async.c ****                  coap_session_str(async->session));
 169              		.loc 1 104 3
 170 003a 97000000 		call	coap_get_log_level
 170      E7800000 
 171              	.LVL14:
 172 0042 9947     		li	a5,6
 173 0044 63D1A702 		ble	a0,a5,.L28
 104:C:/Users/stapi/OneDrive/Desktop/GD32VW553/GD32VW55X_Wifi_BLE_SDK/GD32VW55x_RELEASE_V1.0.2/MSDK/lwip/libcoap-4.3.4/src\coap_async.c ****                  coap_session_str(async->session));
 174              		.loc 1 104 3 discriminator 1
 175 0048 0844     		lw	a0,8(s0)
 176 004a 97000000 		call	coap_session_str
 176      E7800000 
 177              	.LVL15:
 178 0052 B7050000 		lui	a1,%hi(.LC2)
 179 0056 2A86     		mv	a2,a0
 180 0058 93850500 		addi	a1,a1,%lo(.LC2)
 181 005c 1D45     		li	a0,7
 182 005e 97000000 		call	coap_log_impl
 182      E7800000 
 183              	.LVL16:
 104:C:/Users/stapi/OneDrive/Desktop/GD32VW553/GD32VW55X_Wifi_BLE_SDK/GD32VW55x_RELEASE_V1.0.2/MSDK/lwip/libcoap-4.3.4/src\coap_async.c ****                  coap_session_str(async->session));
 184              		.loc 1 104 3 discriminator 1
 185              	.L28:
 109:C:/Users/stapi/OneDrive/Desktop/GD32VW553/GD32VW55X_Wifi_BLE_SDK/GD32VW55x_RELEASE_V1.0.2/MSDK/lwip/libcoap-4.3.4/src\coap_async.c **** 
 186              		.loc 1 109 1 is_stmt 0
 187 0066 17030000 		tail	__riscv_restore_1
 187      67000300 
 188              		.cfi_restore 8
 189              		.cfi_restore 1
 190              		.cfi_def_cfa_offset 0
 191              		.cfi_endproc
 192              	.LFE33:
 194              		.section	.rodata.coap_async_set_delay.str1.4,"aMS",@progbits,1
 195              		.align	2
 196              	.LC3:
 197 0000 20202025 		.string	"   %s: Async request delayed for %u.%03u secs\n"
 197      733A2041 
 197      73796E63 
 197      20726571 
 197      75657374 
 198 002f 00       		.align	2
 199              	.LC4:
 200 0030 20202025 		.string	"   %s: Async request indefinately delayed\n"
 200      733A2041 
 200      73796E63 
 200      20726571 
 200      75657374 
 201              		.section	.text.coap_async_set_delay,"ax",@progbits
 202              		.align	1
 203              		.globl	coap_async_set_delay
 205              	coap_async_set_delay:
 206              	.LFB34:
 113:C:/Users/stapi/OneDrive/Desktop/GD32VW553/GD32VW55X_Wifi_BLE_SDK/GD32VW55x_RELEASE_V1.0.2/MSDK/lwip/libcoap-4.3.4/src\coap_async.c ****   coap_tick_t now;
 207              		.loc 1 113 62 is_stmt 1
 208              		.cfi_startproc
 209              	.LVL17:
 210 0000 17030000 		call	t0,__riscv_save_2
 210      E7020300 
 211              		.cfi_offset 9, -12
 212              		.cfi_offset 8, -8
 213              		.cfi_offset 1, -4
 214              		.cfi_def_cfa_offset 16
 114:C:/Users/stapi/OneDrive/Desktop/GD32VW553/GD32VW55X_Wifi_BLE_SDK/GD32VW55x_RELEASE_V1.0.2/MSDK/lwip/libcoap-4.3.4/src\coap_async.c **** 
 215              		.loc 1 114 3
 116:C:/Users/stapi/OneDrive/Desktop/GD32VW553/GD32VW55X_Wifi_BLE_SDK/GD32VW55x_RELEASE_V1.0.2/MSDK/lwip/libcoap-4.3.4/src\coap_async.c ****   coap_ticks(&now);
 216              		.loc 1 116 3
 217 0008 1DE1     		bne	a0,zero,.L33
 116:C:/Users/stapi/OneDrive/Desktop/GD32VW553/GD32VW55X_Wifi_BLE_SDK/GD32VW55x_RELEASE_V1.0.2/MSDK/lwip/libcoap-4.3.4/src\coap_async.c ****   coap_ticks(&now);
 218              		.loc 1 116 3 is_stmt 0 discriminator 1
 219 000a B7060000 		lui	a3,%hi(.LC0)
 220 000e 37060000 		lui	a2,%hi(.LANCHOR1)
 221 0012 37050000 		lui	a0,%hi(.LC1)
 222              	.LVL18:
 223 0016 93860600 		addi	a3,a3,%lo(.LC0)
 224 001a 13060600 		addi	a2,a2,%lo(.LANCHOR1)
 225 001e 93054007 		li	a1,116
 226              	.LVL19:
 227 0022 13050500 		addi	a0,a0,%lo(.LC1)
 228 0026 97000000 		call	__assert_func
 228      E7800000 
 229              	.LVL20:
 230              	.L33:
 231 002e AE84     		mv	s1,a1
 117:C:/Users/stapi/OneDrive/Desktop/GD32VW553/GD32VW55X_Wifi_BLE_SDK/GD32VW55x_RELEASE_V1.0.2/MSDK/lwip/libcoap-4.3.4/src\coap_async.c **** 
 232              		.loc 1 117 3 is_stmt 1
 233              	.LVL21:
 234              	.LBB11:
 235              	.LBB12:
 236              		.loc 2 41 3
 237 0030 2A84     		mv	s0,a0
 238              		.loc 2 41 8 is_stmt 0
 239 0032 97000000 		call	sys_now
 239      E7800000 
 240              	.LVL22:
 241              	.LBE12:
 242              	.LBE11:
 119:C:/Users/stapi/OneDrive/Desktop/GD32VW553/GD32VW55X_Wifi_BLE_SDK/GD32VW55x_RELEASE_V1.0.2/MSDK/lwip/libcoap-4.3.4/src\coap_async.c ****     async->delay = now + delay;
 243              		.loc 1 119 3 is_stmt 1
 119:C:/Users/stapi/OneDrive/Desktop/GD32VW553/GD32VW55X_Wifi_BLE_SDK/GD32VW55x_RELEASE_V1.0.2/MSDK/lwip/libcoap-4.3.4/src\coap_async.c ****     async->delay = now + delay;
 244              		.loc 1 119 6 is_stmt 0
 245 003a B9C4     		beq	s1,zero,.L34
 120:C:/Users/stapi/OneDrive/Desktop/GD32VW553/GD32VW55X_Wifi_BLE_SDK/GD32VW55x_RELEASE_V1.0.2/MSDK/lwip/libcoap-4.3.4/src\coap_async.c **** #ifdef COAP_EPOLL_SUPPORT
 246              		.loc 1 120 5 is_stmt 1
 120:C:/Users/stapi/OneDrive/Desktop/GD32VW553/GD32VW55X_Wifi_BLE_SDK/GD32VW55x_RELEASE_V1.0.2/MSDK/lwip/libcoap-4.3.4/src\coap_async.c **** #ifdef COAP_EPOLL_SUPPORT
 247              		.loc 1 120 24 is_stmt 0
 248 003c 2695     		add	a0,s1,a0
 249              	.LVL23:
 120:C:/Users/stapi/OneDrive/Desktop/GD32VW553/GD32VW55X_Wifi_BLE_SDK/GD32VW55x_RELEASE_V1.0.2/MSDK/lwip/libcoap-4.3.4/src\coap_async.c **** #ifdef COAP_EPOLL_SUPPORT
 250              		.loc 1 120 18
 251 003e 48C0     		sw	a0,4(s0)
 124:C:/Users/stapi/OneDrive/Desktop/GD32VW553/GD32VW55X_Wifi_BLE_SDK/GD32VW55x_RELEASE_V1.0.2/MSDK/lwip/libcoap-4.3.4/src\coap_async.c ****                    coap_session_str(async->session),
 252              		.loc 1 124 5 is_stmt 1
 124:C:/Users/stapi/OneDrive/Desktop/GD32VW553/GD32VW55X_Wifi_BLE_SDK/GD32VW55x_RELEASE_V1.0.2/MSDK/lwip/libcoap-4.3.4/src\coap_async.c ****                    coap_session_str(async->session),
 253              		.loc 1 124 5
 254 0040 97000000 		call	coap_get_log_level
 254      E7800000 
 255              	.LVL24:
 256 0048 9947     		li	a5,6
 257 004a 63DBA702 		ble	a0,a5,.L32
 124:C:/Users/stapi/OneDrive/Desktop/GD32VW553/GD32VW55X_Wifi_BLE_SDK/GD32VW55x_RELEASE_V1.0.2/MSDK/lwip/libcoap-4.3.4/src\coap_async.c ****                    coap_session_str(async->session),
 258              		.loc 1 124 5 discriminator 1
 259 004e 0844     		lw	a0,8(s0)
 260 0050 97000000 		call	coap_session_str
 260      E7800000 
 261              	.LVL25:
 262 0058 9306803E 		li	a3,1000
 263 005c 33F7D402 		remu	a4,s1,a3
 264 0060 B7050000 		lui	a1,%hi(.LC3)
 265 0064 2A86     		mv	a2,a0
 266 0066 93850500 		addi	a1,a1,%lo(.LC3)
 267 006a 1D45     		li	a0,7
 268 006c 3307D702 		mul	a4,a4,a3
 269 0070 3357D702 		divu	a4,a4,a3
 270 0074 B3D6D402 		divu	a3,s1,a3
 271 0078 97000000 		call	coap_log_impl
 271      E7800000 
 272              	.LVL26:
 273              	.L32:
 134:C:/Users/stapi/OneDrive/Desktop/GD32VW553/GD32VW55X_Wifi_BLE_SDK/GD32VW55x_RELEASE_V1.0.2/MSDK/lwip/libcoap-4.3.4/src\coap_async.c **** 
 274              		.loc 1 134 1 is_stmt 0
 275 0080 17030000 		tail	__riscv_restore_2
 275      67000300 
 276              		.cfi_remember_state
 277              		.cfi_restore 9
 278              		.cfi_restore 8
 279              		.cfi_restore 1
 280              		.cfi_def_cfa_offset 0
 281              	.LVL27:
 282              	.L34:
 283              		.cfi_restore_state
 130:C:/Users/stapi/OneDrive/Desktop/GD32VW553/GD32VW55X_Wifi_BLE_SDK/GD32VW55x_RELEASE_V1.0.2/MSDK/lwip/libcoap-4.3.4/src\coap_async.c ****     coap_log_debug("   %s: Async request indefinately delayed\n",
 284              		.loc 1 130 5 is_stmt 1
 130:C:/Users/stapi/OneDrive/Desktop/GD32VW553/GD32VW55X_Wifi_BLE_SDK/GD32VW55x_RELEASE_V1.0.2/MSDK/lwip/libcoap-4.3.4/src\coap_async.c ****     coap_log_debug("   %s: Async request indefinately delayed\n",
 285              		.loc 1 130 18 is_stmt 0
 286 0088 23220400 		sw	zero,4(s0)
 131:C:/Users/stapi/OneDrive/Desktop/GD32VW553/GD32VW55X_Wifi_BLE_SDK/GD32VW55x_RELEASE_V1.0.2/MSDK/lwip/libcoap-4.3.4/src\coap_async.c ****                    coap_session_str(async->session));
 287              		.loc 1 131 5 is_stmt 1
 131:C:/Users/stapi/OneDrive/Desktop/GD32VW553/GD32VW55X_Wifi_BLE_SDK/GD32VW55x_RELEASE_V1.0.2/MSDK/lwip/libcoap-4.3.4/src\coap_async.c ****                    coap_session_str(async->session));
 288              		.loc 1 131 5
 289 008c 97000000 		call	coap_get_log_level
 289      E7800000 
 290              	.LVL28:
 291 0094 9947     		li	a5,6
 292 0096 E3D5A7FE 		ble	a0,a5,.L32
 131:C:/Users/stapi/OneDrive/Desktop/GD32VW553/GD32VW55X_Wifi_BLE_SDK/GD32VW55x_RELEASE_V1.0.2/MSDK/lwip/libcoap-4.3.4/src\coap_async.c ****                    coap_session_str(async->session));
 293              		.loc 1 131 5 discriminator 1
 294 009a 0844     		lw	a0,8(s0)
 295 009c 97000000 		call	coap_session_str
 295      E7800000 
 296              	.LVL29:
 297 00a4 B7050000 		lui	a1,%hi(.LC4)
 298 00a8 2A86     		mv	a2,a0
 299 00aa 93850500 		addi	a1,a1,%lo(.LC4)
 300 00ae 1D45     		li	a0,7
 301 00b0 97000000 		call	coap_log_impl
 301      E7800000 
 302              	.LVL30:
 131:C:/Users/stapi/OneDrive/Desktop/GD32VW553/GD32VW55X_Wifi_BLE_SDK/GD32VW55x_RELEASE_V1.0.2/MSDK/lwip/libcoap-4.3.4/src\coap_async.c ****                    coap_session_str(async->session));
 303              		.loc 1 131 5 discriminator 1
 134:C:/Users/stapi/OneDrive/Desktop/GD32VW553/GD32VW55X_Wifi_BLE_SDK/GD32VW55x_RELEASE_V1.0.2/MSDK/lwip/libcoap-4.3.4/src\coap_async.c **** 
 304              		.loc 1 134 1 is_stmt 0 discriminator 1
 305 00b8 E1B7     		j	.L32
 306              		.cfi_endproc
 307              	.LFE34:
 309              		.section	.text.coap_find_async,"ax",@progbits
 310              		.align	1
 311              		.globl	coap_find_async
 313              	coap_find_async:
 314              	.LFB35:
 137:C:/Users/stapi/OneDrive/Desktop/GD32VW553/GD32VW55X_Wifi_BLE_SDK/GD32VW55x_RELEASE_V1.0.2/MSDK/lwip/libcoap-4.3.4/src\coap_async.c ****   coap_async_t *tmp;
 315              		.loc 1 137 66 is_stmt 1
 316              		.cfi_startproc
 317              	.LVL31:
 318 0000 17030000 		call	t0,__riscv_save_4
 318      E7020300 
 319              		.cfi_offset 19, -20
 320              		.cfi_offset 18, -16
 321              		.cfi_offset 9, -12
 322              		.cfi_offset 8, -8
 323              		.cfi_offset 1, -4
 324              		.cfi_def_cfa_offset 32
 140:C:/Users/stapi/OneDrive/Desktop/GD32VW553/GD32VW55X_Wifi_BLE_SDK/GD32VW55x_RELEASE_V1.0.2/MSDK/lwip/libcoap-4.3.4/src\coap_async.c ****               session, session,
 325              		.loc 1 140 3 is_stmt 0
 326 0008 8327C50A 		lw	a5,172(a0)
 137:C:/Users/stapi/OneDrive/Desktop/GD32VW553/GD32VW55X_Wifi_BLE_SDK/GD32VW55x_RELEASE_V1.0.2/MSDK/lwip/libcoap-4.3.4/src\coap_async.c ****   coap_async_t *tmp;
 327              		.loc 1 137 66
 328 000c 4111     		addi	sp,sp,-16
 329              		.cfi_def_cfa_offset 48
 137:C:/Users/stapi/OneDrive/Desktop/GD32VW553/GD32VW55X_Wifi_BLE_SDK/GD32VW55x_RELEASE_V1.0.2/MSDK/lwip/libcoap-4.3.4/src\coap_async.c ****   coap_async_t *tmp;
 330              		.loc 1 137 66
 331 000e 2A89     		mv	s2,a0
 140:C:/Users/stapi/OneDrive/Desktop/GD32VW553/GD32VW55X_Wifi_BLE_SDK/GD32VW55x_RELEASE_V1.0.2/MSDK/lwip/libcoap-4.3.4/src\coap_async.c ****               session, session,
 332              		.loc 1 140 3
 333 0010 C04F     		lw	s0,28(a5)
 137:C:/Users/stapi/OneDrive/Desktop/GD32VW553/GD32VW55X_Wifi_BLE_SDK/GD32VW55x_RELEASE_V1.0.2/MSDK/lwip/libcoap-4.3.4/src\coap_async.c ****   coap_async_t *tmp;
 334              		.loc 1 137 66
 335 0012 2EC4     		sw	a1,8(sp)
 336 0014 32C6     		sw	a2,12(sp)
 337 0016 AE84     		mv	s1,a1
 338              	.LVL32:
 138:C:/Users/stapi/OneDrive/Desktop/GD32VW553/GD32VW55X_Wifi_BLE_SDK/GD32VW55x_RELEASE_V1.0.2/MSDK/lwip/libcoap-4.3.4/src\coap_async.c **** 
 339              		.loc 1 138 3 is_stmt 1
 140:C:/Users/stapi/OneDrive/Desktop/GD32VW553/GD32VW55X_Wifi_BLE_SDK/GD32VW55x_RELEASE_V1.0.2/MSDK/lwip/libcoap-4.3.4/src\coap_async.c ****               session, session,
 340              		.loc 1 140 3
 140:C:/Users/stapi/OneDrive/Desktop/GD32VW553/GD32VW55X_Wifi_BLE_SDK/GD32VW55x_RELEASE_V1.0.2/MSDK/lwip/libcoap-4.3.4/src\coap_async.c ****               session, session,
 341              		.loc 1 140 3
 342 0018 B289     		mv	s3,a2
 343              	.LVL33:
 344              	.L40:
 140:C:/Users/stapi/OneDrive/Desktop/GD32VW553/GD32VW55X_Wifi_BLE_SDK/GD32VW55x_RELEASE_V1.0.2/MSDK/lwip/libcoap-4.3.4/src\coap_async.c ****               session, session,
 345              		.loc 1 140 3 discriminator 10
 346 001a 19E4     		bne	s0,zero,.L43
 347              	.L39:
 145:C:/Users/stapi/OneDrive/Desktop/GD32VW553/GD32VW55X_Wifi_BLE_SDK/GD32VW55x_RELEASE_V1.0.2/MSDK/lwip/libcoap-4.3.4/src\coap_async.c **** 
 348              		.loc 1 145 1 is_stmt 0
 349 001c 2285     		mv	a0,s0
 350 001e 4101     		addi	sp,sp,16
 351              		.cfi_remember_state
 352              		.cfi_def_cfa_offset 0
 353 0020 17030000 		tail	__riscv_restore_4
 353      67000300 
 354              		.cfi_restore 19
 355              		.cfi_restore 18
 356              		.cfi_restore 9
 357              		.cfi_restore 8
 358              		.cfi_restore 1
 359              		.cfi_def_cfa_offset -32
 360              	.L43:
 361              		.cfi_restore_state
 140:C:/Users/stapi/OneDrive/Desktop/GD32VW553/GD32VW55X_Wifi_BLE_SDK/GD32VW55x_RELEASE_V1.0.2/MSDK/lwip/libcoap-4.3.4/src\coap_async.c ****               session, session,
 362              		.loc 1 140 3 is_stmt 1 discriminator 11
 363 0028 1C44     		lw	a5,8(s0)
 364 002a 639F2701 		bne	a5,s2,.L41
 140:C:/Users/stapi/OneDrive/Desktop/GD32VW553/GD32VW55X_Wifi_BLE_SDK/GD32VW55x_RELEASE_V1.0.2/MSDK/lwip/libcoap-4.3.4/src\coap_async.c ****               session, session,
 365              		.loc 1 140 3 is_stmt 0 discriminator 2
 366 002e 5C44     		lw	a5,12(s0)
 367 0030 984F     		lw	a4,24(a5)
 368 0032 631B9700 		bne	a4,s1,.L41
 140:C:/Users/stapi/OneDrive/Desktop/GD32VW553/GD32VW55X_Wifi_BLE_SDK/GD32VW55x_RELEASE_V1.0.2/MSDK/lwip/libcoap-4.3.4/src\coap_async.c ****               session, session,
 369              		.loc 1 140 3 discriminator 4
 370 0036 FDD0     		beq	s1,zero,.L39
 140:C:/Users/stapi/OneDrive/Desktop/GD32VW553/GD32VW55X_Wifi_BLE_SDK/GD32VW55x_RELEASE_V1.0.2/MSDK/lwip/libcoap-4.3.4/src\coap_async.c ****               session, session,
 371              		.loc 1 140 3 discriminator 7
 372 0038 C84F     		lw	a0,28(a5)
 373 003a 2686     		mv	a2,s1
 374 003c CE85     		mv	a1,s3
 375 003e 97000000 		call	memcmp
 375      E7800000 
 376              	.LVL34:
 377 0046 79D9     		beq	a0,zero,.L39
 378              	.L41:
 140:C:/Users/stapi/OneDrive/Desktop/GD32VW553/GD32VW55X_Wifi_BLE_SDK/GD32VW55x_RELEASE_V1.0.2/MSDK/lwip/libcoap-4.3.4/src\coap_async.c ****               session, session,
 379              		.loc 1 140 3 is_stmt 1 discriminator 9
 380 0048 0040     		lw	s0,0(s0)
 381              	.LVL35:
 382 004a C1BF     		j	.L40
 383              		.cfi_endproc
 384              	.LFE35:
 386              		.section	.text.coap_free_async,"ax",@progbits
 387              		.align	1
 388              		.globl	coap_free_async
 390              	coap_free_async:
 391              	.LFB37:
 161:C:/Users/stapi/OneDrive/Desktop/GD32VW553/GD32VW55X_Wifi_BLE_SDK/GD32VW55x_RELEASE_V1.0.2/MSDK/lwip/libcoap-4.3.4/src\coap_async.c **** 
 162:C:/Users/stapi/OneDrive/Desktop/GD32VW553/GD32VW55X_Wifi_BLE_SDK/GD32VW55x_RELEASE_V1.0.2/MSDK/lwip/libcoap-4.3.4/src\coap_async.c **** void
 163:C:/Users/stapi/OneDrive/Desktop/GD32VW553/GD32VW55X_Wifi_BLE_SDK/GD32VW55x_RELEASE_V1.0.2/MSDK/lwip/libcoap-4.3.4/src\coap_async.c **** coap_free_async(coap_session_t *session, coap_async_t *s) {
 392              		.loc 1 163 59
 393              		.cfi_startproc
 394              	.LVL36:
 164:C:/Users/stapi/OneDrive/Desktop/GD32VW553/GD32VW55X_Wifi_BLE_SDK/GD32VW55x_RELEASE_V1.0.2/MSDK/lwip/libcoap-4.3.4/src\coap_async.c ****   coap_free_async_sub(session->context, s);
 395              		.loc 1 164 3
 396 0000 0325C50A 		lw	a0,172(a0)
 397              	.LVL37:
 398 0004 17030000 		tail	coap_free_async_sub
 398      67000300 
 399              	.LVL38:
 400              		.cfi_endproc
 401              	.LFE37:
 403              		.section	.rodata.coap_register_async.str1.4,"aMS",@progbits,1
 404              		.align	2
 405              	.LC5:
 406 0000 25303278 		.string	"%02x"
 406      00
 407 0005 000000   		.align	2
 408              	.LC6:
 409 0008 6173796E 		.string	"asynchronous state for token '%s' already registered\n"
 409      6368726F 
 409      6E6F7573 
 409      20737461 
 409      74652066 
 410 003e 0000     		.align	2
 411              	.LC7:
 412 0040 636F6170 		.string	"coap_register_async: insufficient memory\n"
 412      5F726567 
 412      69737465 
 412      725F6173 
 412      796E633A 
 413              		.section	.text.coap_register_async,"ax",@progbits
 414              		.align	1
 415              		.globl	coap_register_async
 417              	coap_register_async:
 418              	.LFB32:
  40:C:/Users/stapi/OneDrive/Desktop/GD32VW553/GD32VW55X_Wifi_BLE_SDK/GD32VW55x_RELEASE_V1.0.2/MSDK/lwip/libcoap-4.3.4/src\coap_async.c ****   coap_async_t *s;
 419              		.loc 1 40 67
 420              		.cfi_startproc
 421              	.LVL39:
 422 0000 17030000 		call	t0,__riscv_save_5
 422      E7020300 
 423              		.cfi_offset 20, -24
 424              		.cfi_offset 19, -20
 425              		.cfi_offset 18, -16
 426              		.cfi_offset 9, -12
 427              		.cfi_offset 8, -8
 428              		.cfi_offset 1, -4
 429              		.cfi_def_cfa_offset 32
  41:C:/Users/stapi/OneDrive/Desktop/GD32VW553/GD32VW55X_Wifi_BLE_SDK/GD32VW55x_RELEASE_V1.0.2/MSDK/lwip/libcoap-4.3.4/src\coap_async.c ****   size_t len;
 430              		.loc 1 41 3
  42:C:/Users/stapi/OneDrive/Desktop/GD32VW553/GD32VW55X_Wifi_BLE_SDK/GD32VW55x_RELEASE_V1.0.2/MSDK/lwip/libcoap-4.3.4/src\coap_async.c ****   const uint8_t *data;
 431              		.loc 1 42 3
  43:C:/Users/stapi/OneDrive/Desktop/GD32VW553/GD32VW55X_Wifi_BLE_SDK/GD32VW55x_RELEASE_V1.0.2/MSDK/lwip/libcoap-4.3.4/src\coap_async.c **** 
 432              		.loc 1 43 3
  45:C:/Users/stapi/OneDrive/Desktop/GD32VW553/GD32VW55X_Wifi_BLE_SDK/GD32VW55x_RELEASE_V1.0.2/MSDK/lwip/libcoap-4.3.4/src\coap_async.c ****     return NULL;
 433              		.loc 1 45 3
  45:C:/Users/stapi/OneDrive/Desktop/GD32VW553/GD32VW55X_Wifi_BLE_SDK/GD32VW55x_RELEASE_V1.0.2/MSDK/lwip/libcoap-4.3.4/src\coap_async.c ****     return NULL;
 434              		.loc 1 45 7 is_stmt 0
 435 0008 DC41     		lw	a5,4(a1)
  45:C:/Users/stapi/OneDrive/Desktop/GD32VW553/GD32VW55X_Wifi_BLE_SDK/GD32VW55x_RELEASE_V1.0.2/MSDK/lwip/libcoap-4.3.4/src\coap_async.c ****     return NULL;
 436              		.loc 1 45 6
 437 000a 7947     		li	a4,30
  40:C:/Users/stapi/OneDrive/Desktop/GD32VW553/GD32VW55X_Wifi_BLE_SDK/GD32VW55x_RELEASE_V1.0.2/MSDK/lwip/libcoap-4.3.4/src\coap_async.c ****   coap_async_t *s;
 438              		.loc 1 40 67
 439 000c 0111     		addi	sp,sp,-32
 440              		.cfi_def_cfa_offset 64
  45:C:/Users/stapi/OneDrive/Desktop/GD32VW553/GD32VW55X_Wifi_BLE_SDK/GD32VW55x_RELEASE_V1.0.2/MSDK/lwip/libcoap-4.3.4/src\coap_async.c ****     return NULL;
 441              		.loc 1 45 7
 442 000e FD17     		addi	a5,a5,-1
  45:C:/Users/stapi/OneDrive/Desktop/GD32VW553/GD32VW55X_Wifi_BLE_SDK/GD32VW55x_RELEASE_V1.0.2/MSDK/lwip/libcoap-4.3.4/src\coap_async.c ****     return NULL;
 443              		.loc 1 45 6
 444 0010 6379F700 		bleu	a5,a4,.L54
 445              	.LVL40:
 446              	.L62:
 447              	.LBB13:
  65:C:/Users/stapi/OneDrive/Desktop/GD32VW553/GD32VW55X_Wifi_BLE_SDK/GD32VW55x_RELEASE_V1.0.2/MSDK/lwip/libcoap-4.3.4/src\coap_async.c ****     return NULL;
 448              		.loc 1 65 5 is_stmt 1 discriminator 3
  66:C:/Users/stapi/OneDrive/Desktop/GD32VW553/GD32VW55X_Wifi_BLE_SDK/GD32VW55x_RELEASE_V1.0.2/MSDK/lwip/libcoap-4.3.4/src\coap_async.c ****   }
 449              		.loc 1 66 5 discriminator 3
  66:C:/Users/stapi/OneDrive/Desktop/GD32VW553/GD32VW55X_Wifi_BLE_SDK/GD32VW55x_RELEASE_V1.0.2/MSDK/lwip/libcoap-4.3.4/src\coap_async.c ****   }
 450              		.loc 1 66 12 is_stmt 0 discriminator 3
 451 0014 0149     		li	s2,0
 452              	.L53:
 453              	.LBE13:
  97:C:/Users/stapi/OneDrive/Desktop/GD32VW553/GD32VW55X_Wifi_BLE_SDK/GD32VW55x_RELEASE_V1.0.2/MSDK/lwip/libcoap-4.3.4/src\coap_async.c **** 
 454              		.loc 1 97 1
 455 0016 4A85     		mv	a0,s2
 456 0018 0561     		addi	sp,sp,32
 457              		.cfi_remember_state
 458              		.cfi_def_cfa_offset 0
 459 001a 17030000 		tail	__riscv_restore_5
 459      67000300 
 460              		.cfi_restore 20
 461              		.cfi_restore 19
 462              		.cfi_restore 18
 463              		.cfi_restore 9
 464              		.cfi_restore 8
 465              		.cfi_restore 1
 466              		.cfi_def_cfa_offset -32
 467              	.LVL41:
 468              	.L54:
 469              		.cfi_restore_state
  48:C:/Users/stapi/OneDrive/Desktop/GD32VW553/GD32VW55X_Wifi_BLE_SDK/GD32VW55x_RELEASE_V1.0.2/MSDK/lwip/libcoap-4.3.4/src\coap_async.c ****               session, session,
 470              		.loc 1 48 3
 471 0022 8327C50A 		lw	a5,172(a0)
 472 0026 AA89     		mv	s3,a0
 473 0028 2E84     		mv	s0,a1
 474 002a 03A9C701 		lw	s2,28(a5)
 475 002e 328A     		mv	s4,a2
  48:C:/Users/stapi/OneDrive/Desktop/GD32VW553/GD32VW55X_Wifi_BLE_SDK/GD32VW55x_RELEASE_V1.0.2/MSDK/lwip/libcoap-4.3.4/src\coap_async.c ****               session, session,
 476              		.loc 1 48 3 is_stmt 1
  48:C:/Users/stapi/OneDrive/Desktop/GD32VW553/GD32VW55X_Wifi_BLE_SDK/GD32VW55x_RELEASE_V1.0.2/MSDK/lwip/libcoap-4.3.4/src\coap_async.c ****               session, session,
 477              		.loc 1 48 3
 478              	.LVL42:
 479              	.L56:
  48:C:/Users/stapi/OneDrive/Desktop/GD32VW553/GD32VW55X_Wifi_BLE_SDK/GD32VW55x_RELEASE_V1.0.2/MSDK/lwip/libcoap-4.3.4/src\coap_async.c ****               session, session,
 480              		.loc 1 48 3 discriminator 10
 481 0030 63170906 		bne	s2,zero,.L59
  48:C:/Users/stapi/OneDrive/Desktop/GD32VW553/GD32VW55X_Wifi_BLE_SDK/GD32VW55x_RELEASE_V1.0.2/MSDK/lwip/libcoap-4.3.4/src\coap_async.c ****               session, session,
 482              		.loc 1 48 3
  53:C:/Users/stapi/OneDrive/Desktop/GD32VW553/GD32VW55X_Wifi_BLE_SDK/GD32VW55x_RELEASE_V1.0.2/MSDK/lwip/libcoap-4.3.4/src\coap_async.c ****     size_t i;
 483              		.loc 1 53 3
  70:C:/Users/stapi/OneDrive/Desktop/GD32VW553/GD32VW55X_Wifi_BLE_SDK/GD32VW55x_RELEASE_V1.0.2/MSDK/lwip/libcoap-4.3.4/src\coap_async.c ****   if (!s) {
 484              		.loc 1 70 3
  70:C:/Users/stapi/OneDrive/Desktop/GD32VW553/GD32VW55X_Wifi_BLE_SDK/GD32VW55x_RELEASE_V1.0.2/MSDK/lwip/libcoap-4.3.4/src\coap_async.c ****   if (!s) {
 485              		.loc 1 70 23 is_stmt 0
 486 0034 D145     		li	a1,20
 487 0036 0145     		li	a0,0
 488 0038 97000000 		call	coap_malloc_type
 488      E7800000 
 489              	.LVL43:
 490 0040 AA84     		mv	s1,a0
 491              	.LVL44:
  71:C:/Users/stapi/OneDrive/Desktop/GD32VW553/GD32VW55X_Wifi_BLE_SDK/GD32VW55x_RELEASE_V1.0.2/MSDK/lwip/libcoap-4.3.4/src\coap_async.c ****     coap_log_crit("coap_register_async: insufficient memory\n");
 492              		.loc 1 71 3 is_stmt 1
  71:C:/Users/stapi/OneDrive/Desktop/GD32VW553/GD32VW55X_Wifi_BLE_SDK/GD32VW55x_RELEASE_V1.0.2/MSDK/lwip/libcoap-4.3.4/src\coap_async.c ****     coap_log_crit("coap_register_async: insufficient memory\n");
 493              		.loc 1 71 6 is_stmt 0
 494 0042 0DCD     		beq	a0,zero,.L67
  76:C:/Users/stapi/OneDrive/Desktop/GD32VW553/GD32VW55X_Wifi_BLE_SDK/GD32VW55x_RELEASE_V1.0.2/MSDK/lwip/libcoap-4.3.4/src\coap_async.c ****   LL_PREPEND(session->context->async_state, s);
 495              		.loc 1 76 3 is_stmt 1
 496 0044 5146     		li	a2,20
 497 0046 8145     		li	a1,0
 498 0048 97000000 		call	memset
 498      E7800000 
 499              	.LVL45:
  77:C:/Users/stapi/OneDrive/Desktop/GD32VW553/GD32VW55X_Wifi_BLE_SDK/GD32VW55x_RELEASE_V1.0.2/MSDK/lwip/libcoap-4.3.4/src\coap_async.c **** 
 500              		.loc 1 77 3
  77:C:/Users/stapi/OneDrive/Desktop/GD32VW553/GD32VW55X_Wifi_BLE_SDK/GD32VW55x_RELEASE_V1.0.2/MSDK/lwip/libcoap-4.3.4/src\coap_async.c **** 
 501              		.loc 1 77 3
 502 0050 83A7C90A 		lw	a5,172(s3)
  80:C:/Users/stapi/OneDrive/Desktop/GD32VW553/GD32VW55X_Wifi_BLE_SDK/GD32VW55x_RELEASE_V1.0.2/MSDK/lwip/libcoap-4.3.4/src\coap_async.c ****                               request->actual_token.s, NULL);
 503              		.loc 1 80 12 is_stmt 0
 504 0054 544C     		lw	a3,28(s0)
 505 0056 104C     		lw	a2,24(s0)
  77:C:/Users/stapi/OneDrive/Desktop/GD32VW553/GD32VW55X_Wifi_BLE_SDK/GD32VW55x_RELEASE_V1.0.2/MSDK/lwip/libcoap-4.3.4/src\coap_async.c **** 
 506              		.loc 1 77 3
 507 0058 D84F     		lw	a4,28(a5)
  80:C:/Users/stapi/OneDrive/Desktop/GD32VW553/GD32VW55X_Wifi_BLE_SDK/GD32VW55x_RELEASE_V1.0.2/MSDK/lwip/libcoap-4.3.4/src\coap_async.c ****                               request->actual_token.s, NULL);
 508              		.loc 1 80 12
 509 005a CE85     		mv	a1,s3
 510 005c 2285     		mv	a0,s0
  77:C:/Users/stapi/OneDrive/Desktop/GD32VW553/GD32VW55X_Wifi_BLE_SDK/GD32VW55x_RELEASE_V1.0.2/MSDK/lwip/libcoap-4.3.4/src\coap_async.c **** 
 511              		.loc 1 77 3
 512 005e 98C0     		sw	a4,0(s1)
  77:C:/Users/stapi/OneDrive/Desktop/GD32VW553/GD32VW55X_Wifi_BLE_SDK/GD32VW55x_RELEASE_V1.0.2/MSDK/lwip/libcoap-4.3.4/src\coap_async.c **** 
 513              		.loc 1 77 3 is_stmt 1
 514 0060 C4CF     		sw	s1,28(a5)
  77:C:/Users/stapi/OneDrive/Desktop/GD32VW553/GD32VW55X_Wifi_BLE_SDK/GD32VW55x_RELEASE_V1.0.2/MSDK/lwip/libcoap-4.3.4/src\coap_async.c **** 
 515              		.loc 1 77 3
  80:C:/Users/stapi/OneDrive/Desktop/GD32VW553/GD32VW55X_Wifi_BLE_SDK/GD32VW55x_RELEASE_V1.0.2/MSDK/lwip/libcoap-4.3.4/src\coap_async.c ****                               request->actual_token.s, NULL);
 516              		.loc 1 80 3
  80:C:/Users/stapi/OneDrive/Desktop/GD32VW553/GD32VW55X_Wifi_BLE_SDK/GD32VW55x_RELEASE_V1.0.2/MSDK/lwip/libcoap-4.3.4/src\coap_async.c ****                               request->actual_token.s, NULL);
 517              		.loc 1 80 12 is_stmt 0
 518 0062 0147     		li	a4,0
 519 0064 97000000 		call	coap_pdu_duplicate
 519      E7800000 
 520              	.LVL46:
  80:C:/Users/stapi/OneDrive/Desktop/GD32VW553/GD32VW55X_Wifi_BLE_SDK/GD32VW55x_RELEASE_V1.0.2/MSDK/lwip/libcoap-4.3.4/src\coap_async.c ****                               request->actual_token.s, NULL);
 521              		.loc 1 80 10
 522 006c C8C4     		sw	a0,12(s1)
  82:C:/Users/stapi/OneDrive/Desktop/GD32VW553/GD32VW55X_Wifi_BLE_SDK/GD32VW55x_RELEASE_V1.0.2/MSDK/lwip/libcoap-4.3.4/src\coap_async.c ****     coap_free_async(session, s);
 523              		.loc 1 82 3 is_stmt 1
  82:C:/Users/stapi/OneDrive/Desktop/GD32VW553/GD32VW55X_Wifi_BLE_SDK/GD32VW55x_RELEASE_V1.0.2/MSDK/lwip/libcoap-4.3.4/src\coap_async.c ****     coap_free_async(session, s);
 524              		.loc 1 82 6 is_stmt 0
 525 006e 55E5     		bne	a0,zero,.L64
  83:C:/Users/stapi/OneDrive/Desktop/GD32VW553/GD32VW55X_Wifi_BLE_SDK/GD32VW55x_RELEASE_V1.0.2/MSDK/lwip/libcoap-4.3.4/src\coap_async.c ****     coap_log_crit("coap_register_async: insufficient memory\n");
 526              		.loc 1 83 5 is_stmt 1
 527 0070 A685     		mv	a1,s1
 528 0072 4E85     		mv	a0,s3
 529 0074 97000000 		call	coap_free_async
 529      E7800000 
 530              	.LVL47:
  84:C:/Users/stapi/OneDrive/Desktop/GD32VW553/GD32VW55X_Wifi_BLE_SDK/GD32VW55x_RELEASE_V1.0.2/MSDK/lwip/libcoap-4.3.4/src\coap_async.c ****     return NULL;
 531              		.loc 1 84 5
  84:C:/Users/stapi/OneDrive/Desktop/GD32VW553/GD32VW55X_Wifi_BLE_SDK/GD32VW55x_RELEASE_V1.0.2/MSDK/lwip/libcoap-4.3.4/src\coap_async.c ****     return NULL;
 532              		.loc 1 84 5
 533              	.L67:
  72:C:/Users/stapi/OneDrive/Desktop/GD32VW553/GD32VW55X_Wifi_BLE_SDK/GD32VW55x_RELEASE_V1.0.2/MSDK/lwip/libcoap-4.3.4/src\coap_async.c ****     return NULL;
 534              		.loc 1 72 5
  72:C:/Users/stapi/OneDrive/Desktop/GD32VW553/GD32VW55X_Wifi_BLE_SDK/GD32VW55x_RELEASE_V1.0.2/MSDK/lwip/libcoap-4.3.4/src\coap_async.c ****     return NULL;
 535              		.loc 1 72 5
 536 007c 97000000 		call	coap_get_log_level
 536      E7800000 
 537              	.LVL48:
 538 0084 8547     		li	a5,1
 539 0086 E3D7A7F8 		ble	a0,a5,.L62
  72:C:/Users/stapi/OneDrive/Desktop/GD32VW553/GD32VW55X_Wifi_BLE_SDK/GD32VW55x_RELEASE_V1.0.2/MSDK/lwip/libcoap-4.3.4/src\coap_async.c ****     return NULL;
 540              		.loc 1 72 5 discriminator 1
 541 008a B7050000 		lui	a1,%hi(.LC7)
 542 008e 93850500 		addi	a1,a1,%lo(.LC7)
 543 0092 0945     		li	a0,2
 544 0094 97000000 		call	coap_log_impl
 544      E7800000 
 545              	.LVL49:
 546 009c ADBF     		j	.L53
 547              	.LVL50:
 548              	.L59:
  48:C:/Users/stapi/OneDrive/Desktop/GD32VW553/GD32VW55X_Wifi_BLE_SDK/GD32VW55x_RELEASE_V1.0.2/MSDK/lwip/libcoap-4.3.4/src\coap_async.c ****               session, session,
 549              		.loc 1 48 3 discriminator 11
 550 009e 83278900 		lw	a5,8(s2)
 551 00a2 63903703 		bne	a5,s3,.L57
  48:C:/Users/stapi/OneDrive/Desktop/GD32VW553/GD32VW55X_Wifi_BLE_SDK/GD32VW55x_RELEASE_V1.0.2/MSDK/lwip/libcoap-4.3.4/src\coap_async.c ****               session, session,
 552              		.loc 1 48 3 is_stmt 0 discriminator 2
 553 00a6 8327C900 		lw	a5,12(s2)
 554 00aa 184C     		lw	a4,24(s0)
 555 00ac 904F     		lw	a2,24(a5)
 556 00ae 631AE600 		bne	a2,a4,.L57
  48:C:/Users/stapi/OneDrive/Desktop/GD32VW553/GD32VW55X_Wifi_BLE_SDK/GD32VW55x_RELEASE_V1.0.2/MSDK/lwip/libcoap-4.3.4/src\coap_async.c ****               session, session,
 557              		.loc 1 48 3 discriminator 4
 558 00b2 4DC2     		beq	a2,zero,.L58
  48:C:/Users/stapi/OneDrive/Desktop/GD32VW553/GD32VW55X_Wifi_BLE_SDK/GD32VW55x_RELEASE_V1.0.2/MSDK/lwip/libcoap-4.3.4/src\coap_async.c ****               session, session,
 559              		.loc 1 48 3 discriminator 7
 560 00b4 4C4C     		lw	a1,28(s0)
 561 00b6 C84F     		lw	a0,28(a5)
 562 00b8 97000000 		call	memcmp
 562      E7800000 
 563              	.LVL51:
 564 00c0 51C9     		beq	a0,zero,.L58
 565              	.L57:
  48:C:/Users/stapi/OneDrive/Desktop/GD32VW553/GD32VW55X_Wifi_BLE_SDK/GD32VW55x_RELEASE_V1.0.2/MSDK/lwip/libcoap-4.3.4/src\coap_async.c ****               session, session,
 566              		.loc 1 48 3 is_stmt 1 discriminator 9
 567 00c2 03290900 		lw	s2,0(s2)
 568              	.LVL52:
 569 00c6 ADB7     		j	.L56
 570              	.LVL53:
 571              	.L61:
 572              	.LBB14:
  61:C:/Users/stapi/OneDrive/Desktop/GD32VW553/GD32VW55X_Wifi_BLE_SDK/GD32VW55x_RELEASE_V1.0.2/MSDK/lwip/libcoap-4.3.4/src\coap_async.c ****       snprintf(&outbuf[outbuflen], sizeof(outbuf)-outbuflen,
 573              		.loc 1 61 7 discriminator 3
  61:C:/Users/stapi/OneDrive/Desktop/GD32VW553/GD32VW55X_Wifi_BLE_SDK/GD32VW55x_RELEASE_V1.0.2/MSDK/lwip/libcoap-4.3.4/src\coap_async.c ****       snprintf(&outbuf[outbuflen], sizeof(outbuf)-outbuflen,
 574              		.loc 1 61 19 is_stmt 0 discriminator 3
 575 00c8 6800     		addi	a0,sp,12
 576 00ca 97000000 		call	strlen
 576      E7800000 
 577              	.LVL54:
  62:C:/Users/stapi/OneDrive/Desktop/GD32VW553/GD32VW55X_Wifi_BLE_SDK/GD32VW55x_RELEASE_V1.0.2/MSDK/lwip/libcoap-4.3.4/src\coap_async.c ****                "%02x", request->token[i]);
 578              		.loc 1 62 7 is_stmt 1 discriminator 3
  63:C:/Users/stapi/OneDrive/Desktop/GD32VW553/GD32VW55X_Wifi_BLE_SDK/GD32VW55x_RELEASE_V1.0.2/MSDK/lwip/libcoap-4.3.4/src\coap_async.c ****     }
 579              		.loc 1 63 38 is_stmt 0 discriminator 3
 580 00d2 5C54     		lw	a5,44(s0)
  62:C:/Users/stapi/OneDrive/Desktop/GD32VW553/GD32VW55X_Wifi_BLE_SDK/GD32VW55x_RELEASE_V1.0.2/MSDK/lwip/libcoap-4.3.4/src\coap_async.c ****                "%02x", request->token[i]);
 581              		.loc 1 62 7 discriminator 3
 582 00d4 B385A940 		sub	a1,s3,a0
 583 00d8 13060900 		addi	a2,s2,%lo(.LC5)
  63:C:/Users/stapi/OneDrive/Desktop/GD32VW553/GD32VW55X_Wifi_BLE_SDK/GD32VW55x_RELEASE_V1.0.2/MSDK/lwip/libcoap-4.3.4/src\coap_async.c ****     }
 584              		.loc 1 63 38 discriminator 3
 585 00dc A697     		add	a5,a5,s1
  62:C:/Users/stapi/OneDrive/Desktop/GD32VW553/GD32VW55X_Wifi_BLE_SDK/GD32VW55x_RELEASE_V1.0.2/MSDK/lwip/libcoap-4.3.4/src\coap_async.c ****                "%02x", request->token[i]);
 586              		.loc 1 62 7 discriminator 3
 587 00de 83C60700 		lbu	a3,0(a5)
 588 00e2 7C00     		addi	a5,sp,12
 589 00e4 3E95     		add	a0,a5,a0
 590              	.LVL55:
 591 00e6 97000000 		call	snprintf
 591      E7800000 
 592              	.LVL56:
  59:C:/Users/stapi/OneDrive/Desktop/GD32VW553/GD32VW55X_Wifi_BLE_SDK/GD32VW55x_RELEASE_V1.0.2/MSDK/lwip/libcoap-4.3.4/src\coap_async.c ****       /* Output maybe truncated */
 593              		.loc 1 59 51 is_stmt 1 discriminator 3
  59:C:/Users/stapi/OneDrive/Desktop/GD32VW553/GD32VW55X_Wifi_BLE_SDK/GD32VW55x_RELEASE_V1.0.2/MSDK/lwip/libcoap-4.3.4/src\coap_async.c ****       /* Output maybe truncated */
 594              		.loc 1 59 52 is_stmt 0 discriminator 3
 595 00ee 8504     		addi	s1,s1,1
 596              	.LVL57:
 597              	.L69:
  59:C:/Users/stapi/OneDrive/Desktop/GD32VW553/GD32VW55X_Wifi_BLE_SDK/GD32VW55x_RELEASE_V1.0.2/MSDK/lwip/libcoap-4.3.4/src\coap_async.c ****       /* Output maybe truncated */
 598              		.loc 1 59 17 is_stmt 1 discriminator 1
  59:C:/Users/stapi/OneDrive/Desktop/GD32VW553/GD32VW55X_Wifi_BLE_SDK/GD32VW55x_RELEASE_V1.0.2/MSDK/lwip/libcoap-4.3.4/src\coap_async.c ****       /* Output maybe truncated */
 599              		.loc 1 59 5 is_stmt 0 discriminator 1
 600 00f0 1C4C     		lw	a5,24(s0)
 601 00f2 E3EBF4FC 		bgtu	a5,s1,.L61
  65:C:/Users/stapi/OneDrive/Desktop/GD32VW553/GD32VW55X_Wifi_BLE_SDK/GD32VW55x_RELEASE_V1.0.2/MSDK/lwip/libcoap-4.3.4/src\coap_async.c ****     return NULL;
 602              		.loc 1 65 5 is_stmt 1
  65:C:/Users/stapi/OneDrive/Desktop/GD32VW553/GD32VW55X_Wifi_BLE_SDK/GD32VW55x_RELEASE_V1.0.2/MSDK/lwip/libcoap-4.3.4/src\coap_async.c ****     return NULL;
 603              		.loc 1 65 5
 604 00f6 97000000 		call	coap_get_log_level
 604      E7800000 
 605              	.LVL58:
 606 00fe 9947     		li	a5,6
 607 0100 E3DAA7F0 		ble	a0,a5,.L62
  65:C:/Users/stapi/OneDrive/Desktop/GD32VW553/GD32VW55X_Wifi_BLE_SDK/GD32VW55x_RELEASE_V1.0.2/MSDK/lwip/libcoap-4.3.4/src\coap_async.c ****     return NULL;
 608              		.loc 1 65 5 discriminator 1
 609 0104 B7050000 		lui	a1,%hi(.LC6)
 610 0108 7000     		addi	a2,sp,12
 611 010a 93850500 		addi	a1,a1,%lo(.LC6)
 612 010e 1D45     		li	a0,7
 613 0110 97000000 		call	coap_log_impl
 613      E7800000 
 614              	.LVL59:
 615 0118 F5BD     		j	.L62
 616              	.LVL60:
 617              	.L64:
 618              	.LBE14:
  88:C:/Users/stapi/OneDrive/Desktop/GD32VW553/GD32VW55X_Wifi_BLE_SDK/GD32VW55x_RELEASE_V1.0.2/MSDK/lwip/libcoap-4.3.4/src\coap_async.c ****     coap_add_data(s->pdu, len, data);
 619              		.loc 1 88 3
  88:C:/Users/stapi/OneDrive/Desktop/GD32VW553/GD32VW55X_Wifi_BLE_SDK/GD32VW55x_RELEASE_V1.0.2/MSDK/lwip/libcoap-4.3.4/src\coap_async.c ****     coap_add_data(s->pdu, len, data);
 620              		.loc 1 88 7 is_stmt 0
 621 011a 7000     		addi	a2,sp,12
 622 011c 2C00     		addi	a1,sp,8
 623 011e 2285     		mv	a0,s0
 624 0120 97000000 		call	coap_get_data
 624      E7800000 
 625              	.LVL61:
  88:C:/Users/stapi/OneDrive/Desktop/GD32VW553/GD32VW55X_Wifi_BLE_SDK/GD32VW55x_RELEASE_V1.0.2/MSDK/lwip/libcoap-4.3.4/src\coap_async.c ****     coap_add_data(s->pdu, len, data);
 626              		.loc 1 88 6
 627 0128 01C9     		beq	a0,zero,.L66
  89:C:/Users/stapi/OneDrive/Desktop/GD32VW553/GD32VW55X_Wifi_BLE_SDK/GD32VW55x_RELEASE_V1.0.2/MSDK/lwip/libcoap-4.3.4/src\coap_async.c ****   }
 628              		.loc 1 89 5 is_stmt 1
 629 012a 3246     		lw	a2,12(sp)
 630 012c A245     		lw	a1,8(sp)
 631 012e C844     		lw	a0,12(s1)
 632 0130 97000000 		call	coap_add_data
 632      E7800000 
 633              	.LVL62:
 634              	.L66:
  92:C:/Users/stapi/OneDrive/Desktop/GD32VW553/GD32VW55X_Wifi_BLE_SDK/GD32VW55x_RELEASE_V1.0.2/MSDK/lwip/libcoap-4.3.4/src\coap_async.c **** 
 635              		.loc 1 92 3
  92:C:/Users/stapi/OneDrive/Desktop/GD32VW553/GD32VW55X_Wifi_BLE_SDK/GD32VW55x_RELEASE_V1.0.2/MSDK/lwip/libcoap-4.3.4/src\coap_async.c **** 
 636              		.loc 1 92 16 is_stmt 0
 637 0138 4E85     		mv	a0,s3
 638 013a 97000000 		call	coap_session_reference
 638      E7800000 
 639              	.LVL63:
  92:C:/Users/stapi/OneDrive/Desktop/GD32VW553/GD32VW55X_Wifi_BLE_SDK/GD32VW55x_RELEASE_V1.0.2/MSDK/lwip/libcoap-4.3.4/src\coap_async.c **** 
 640              		.loc 1 92 14
 641 0142 88C4     		sw	a0,8(s1)
  94:C:/Users/stapi/OneDrive/Desktop/GD32VW553/GD32VW55X_Wifi_BLE_SDK/GD32VW55x_RELEASE_V1.0.2/MSDK/lwip/libcoap-4.3.4/src\coap_async.c **** 
 642              		.loc 1 94 3 is_stmt 1
 643 0144 D285     		mv	a1,s4
 644 0146 2685     		mv	a0,s1
 645 0148 97000000 		call	coap_async_set_delay
 645      E7800000 
 646              	.LVL64:
  96:C:/Users/stapi/OneDrive/Desktop/GD32VW553/GD32VW55X_Wifi_BLE_SDK/GD32VW55x_RELEASE_V1.0.2/MSDK/lwip/libcoap-4.3.4/src\coap_async.c **** }
 647              		.loc 1 96 3
  96:C:/Users/stapi/OneDrive/Desktop/GD32VW553/GD32VW55X_Wifi_BLE_SDK/GD32VW55x_RELEASE_V1.0.2/MSDK/lwip/libcoap-4.3.4/src\coap_async.c **** }
 648              		.loc 1 96 10 is_stmt 0
 649 0150 2689     		mv	s2,s1
 650 0152 D1B5     		j	.L53
 651              	.LVL65:
 652              	.L58:
  48:C:/Users/stapi/OneDrive/Desktop/GD32VW553/GD32VW55X_Wifi_BLE_SDK/GD32VW55x_RELEASE_V1.0.2/MSDK/lwip/libcoap-4.3.4/src\coap_async.c ****               session, session,
 653              		.loc 1 48 3 is_stmt 1
  53:C:/Users/stapi/OneDrive/Desktop/GD32VW553/GD32VW55X_Wifi_BLE_SDK/GD32VW55x_RELEASE_V1.0.2/MSDK/lwip/libcoap-4.3.4/src\coap_async.c ****     size_t i;
 654              		.loc 1 53 3
 655              	.LBB15:
  54:C:/Users/stapi/OneDrive/Desktop/GD32VW553/GD32VW55X_Wifi_BLE_SDK/GD32VW55x_RELEASE_V1.0.2/MSDK/lwip/libcoap-4.3.4/src\coap_async.c ****     char outbuf[2*8 + 1];
 656              		.loc 1 54 5
  55:C:/Users/stapi/OneDrive/Desktop/GD32VW553/GD32VW55X_Wifi_BLE_SDK/GD32VW55x_RELEASE_V1.0.2/MSDK/lwip/libcoap-4.3.4/src\coap_async.c ****     size_t outbuflen;
 657              		.loc 1 55 5
  56:C:/Users/stapi/OneDrive/Desktop/GD32VW553/GD32VW55X_Wifi_BLE_SDK/GD32VW55x_RELEASE_V1.0.2/MSDK/lwip/libcoap-4.3.4/src\coap_async.c **** 
 658              		.loc 1 56 5
  58:C:/Users/stapi/OneDrive/Desktop/GD32VW553/GD32VW55X_Wifi_BLE_SDK/GD32VW55x_RELEASE_V1.0.2/MSDK/lwip/libcoap-4.3.4/src\coap_async.c ****     for (i = 0; i < request->actual_token.length; i++) {
 659              		.loc 1 58 5
  58:C:/Users/stapi/OneDrive/Desktop/GD32VW553/GD32VW55X_Wifi_BLE_SDK/GD32VW55x_RELEASE_V1.0.2/MSDK/lwip/libcoap-4.3.4/src\coap_async.c ****     for (i = 0; i < request->actual_token.length; i++) {
 660              		.loc 1 58 15 is_stmt 0
 661 0154 23060100 		sb	zero,12(sp)
  59:C:/Users/stapi/OneDrive/Desktop/GD32VW553/GD32VW55X_Wifi_BLE_SDK/GD32VW55x_RELEASE_V1.0.2/MSDK/lwip/libcoap-4.3.4/src\coap_async.c ****       /* Output maybe truncated */
 662              		.loc 1 59 5 is_stmt 1
 663              	.LVL66:
  59:C:/Users/stapi/OneDrive/Desktop/GD32VW553/GD32VW55X_Wifi_BLE_SDK/GD32VW55x_RELEASE_V1.0.2/MSDK/lwip/libcoap-4.3.4/src\coap_async.c ****       /* Output maybe truncated */
 664              		.loc 1 59 12 is_stmt 0
 665 0158 8144     		li	s1,0
  62:C:/Users/stapi/OneDrive/Desktop/GD32VW553/GD32VW55X_Wifi_BLE_SDK/GD32VW55x_RELEASE_V1.0.2/MSDK/lwip/libcoap-4.3.4/src\coap_async.c ****                "%02x", request->token[i]);
 666              		.loc 1 62 7
 667 015a C549     		li	s3,17
 668              	.LVL67:
 669 015c 37090000 		lui	s2,%hi(.LC5)
 670              	.LVL68:
  59:C:/Users/stapi/OneDrive/Desktop/GD32VW553/GD32VW55X_Wifi_BLE_SDK/GD32VW55x_RELEASE_V1.0.2/MSDK/lwip/libcoap-4.3.4/src\coap_async.c ****       /* Output maybe truncated */
 671              		.loc 1 59 5
 672 0160 41BF     		j	.L69
 673              	.LBE15:
 674              		.cfi_endproc
 675              	.LFE32:
 677              		.section	.text.coap_delete_all_async,"ax",@progbits
 678              		.align	1
 679              		.globl	coap_delete_all_async
 681              	coap_delete_all_async:
 682              	.LFB38:
 165:C:/Users/stapi/OneDrive/Desktop/GD32VW553/GD32VW55X_Wifi_BLE_SDK/GD32VW55x_RELEASE_V1.0.2/MSDK/lwip/libcoap-4.3.4/src\coap_async.c **** }
 166:C:/Users/stapi/OneDrive/Desktop/GD32VW553/GD32VW55X_Wifi_BLE_SDK/GD32VW55x_RELEASE_V1.0.2/MSDK/lwip/libcoap-4.3.4/src\coap_async.c **** 
 167:C:/Users/stapi/OneDrive/Desktop/GD32VW553/GD32VW55X_Wifi_BLE_SDK/GD32VW55x_RELEASE_V1.0.2/MSDK/lwip/libcoap-4.3.4/src\coap_async.c **** void
 168:C:/Users/stapi/OneDrive/Desktop/GD32VW553/GD32VW55X_Wifi_BLE_SDK/GD32VW55x_RELEASE_V1.0.2/MSDK/lwip/libcoap-4.3.4/src\coap_async.c **** coap_delete_all_async(coap_context_t *context) {
 683              		.loc 1 168 48 is_stmt 1
 684              		.cfi_startproc
 685              	.LVL69:
 686 0000 17030000 		call	t0,__riscv_save_2
 686      E7020300 
 687              		.cfi_offset 9, -12
 688              		.cfi_offset 8, -8
 689              		.cfi_offset 1, -4
 690              		.cfi_def_cfa_offset 16
 169:C:/Users/stapi/OneDrive/Desktop/GD32VW553/GD32VW55X_Wifi_BLE_SDK/GD32VW55x_RELEASE_V1.0.2/MSDK/lwip/libcoap-4.3.4/src\coap_async.c ****   coap_async_t *astate, *tmp;
 691              		.loc 1 169 3
 170:C:/Users/stapi/OneDrive/Desktop/GD32VW553/GD32VW55X_Wifi_BLE_SDK/GD32VW55x_RELEASE_V1.0.2/MSDK/lwip/libcoap-4.3.4/src\coap_async.c **** 
 171:C:/Users/stapi/OneDrive/Desktop/GD32VW553/GD32VW55X_Wifi_BLE_SDK/GD32VW55x_RELEASE_V1.0.2/MSDK/lwip/libcoap-4.3.4/src\coap_async.c ****   LL_FOREACH_SAFE(context->async_state, astate, tmp) {
 692              		.loc 1 171 3
 693 0008 4C4D     		lw	a1,28(a0)
 694              	.LVL70:
 168:C:/Users/stapi/OneDrive/Desktop/GD32VW553/GD32VW55X_Wifi_BLE_SDK/GD32VW55x_RELEASE_V1.0.2/MSDK/lwip/libcoap-4.3.4/src\coap_async.c ****   coap_async_t *astate, *tmp;
 695              		.loc 1 168 48 is_stmt 0
 696 000a 2A84     		mv	s0,a0
 697              	.LVL71:
 698              	.L85:
 699              		.loc 1 171 3 is_stmt 1 discriminator 1
 700 000c 89C9     		beq	a1,zero,.L84
 701              		.loc 1 171 3 is_stmt 0 discriminator 3
 702 000e 8441     		lw	s1,0(a1)
 703              	.LVL72:
 172:C:/Users/stapi/OneDrive/Desktop/GD32VW553/GD32VW55X_Wifi_BLE_SDK/GD32VW55x_RELEASE_V1.0.2/MSDK/lwip/libcoap-4.3.4/src\coap_async.c ****     coap_free_async_sub(context, astate);
 704              		.loc 1 172 5 is_stmt 1 discriminator 3
 705 0010 2285     		mv	a0,s0
 706 0012 97000000 		call	coap_free_async_sub
 706      E7800000 
 707              	.LVL73:
 171:C:/Users/stapi/OneDrive/Desktop/GD32VW553/GD32VW55X_Wifi_BLE_SDK/GD32VW55x_RELEASE_V1.0.2/MSDK/lwip/libcoap-4.3.4/src\coap_async.c ****     coap_free_async_sub(context, astate);
 708              		.loc 1 171 3 discriminator 3
 709 001a A685     		mv	a1,s1
 710 001c C5BF     		j	.L85
 711              	.LVL74:
 712              	.L84:
 173:C:/Users/stapi/OneDrive/Desktop/GD32VW553/GD32VW55X_Wifi_BLE_SDK/GD32VW55x_RELEASE_V1.0.2/MSDK/lwip/libcoap-4.3.4/src\coap_async.c ****   }
 174:C:/Users/stapi/OneDrive/Desktop/GD32VW553/GD32VW55X_Wifi_BLE_SDK/GD32VW55x_RELEASE_V1.0.2/MSDK/lwip/libcoap-4.3.4/src\coap_async.c ****   context->async_state = NULL;
 713              		.loc 1 174 3
 714              		.loc 1 174 24 is_stmt 0
 715 001e 232E0400 		sw	zero,28(s0)
 175:C:/Users/stapi/OneDrive/Desktop/GD32VW553/GD32VW55X_Wifi_BLE_SDK/GD32VW55x_RELEASE_V1.0.2/MSDK/lwip/libcoap-4.3.4/src\coap_async.c **** }
 716              		.loc 1 175 1
 717 0022 17030000 		tail	__riscv_restore_2
 717      67000300 
 718              		.cfi_restore 9
 719              		.cfi_restore 8
 720              		.cfi_restore 1
 721              		.cfi_def_cfa_offset 0
 722              		.cfi_endproc
 723              	.LFE38:
 725              		.section	.text.coap_async_set_app_data,"ax",@progbits
 726              		.align	1
 727              		.globl	coap_async_set_app_data
 729              	coap_async_set_app_data:
 730              	.LFB39:
 176:C:/Users/stapi/OneDrive/Desktop/GD32VW553/GD32VW55X_Wifi_BLE_SDK/GD32VW55x_RELEASE_V1.0.2/MSDK/lwip/libcoap-4.3.4/src\coap_async.c **** 
 177:C:/Users/stapi/OneDrive/Desktop/GD32VW553/GD32VW55X_Wifi_BLE_SDK/GD32VW55x_RELEASE_V1.0.2/MSDK/lwip/libcoap-4.3.4/src\coap_async.c **** void
 178:C:/Users/stapi/OneDrive/Desktop/GD32VW553/GD32VW55X_Wifi_BLE_SDK/GD32VW55x_RELEASE_V1.0.2/MSDK/lwip/libcoap-4.3.4/src\coap_async.c **** coap_async_set_app_data(coap_async_t *async, void *app_data) {
 731              		.loc 1 178 62 is_stmt 1
 732              		.cfi_startproc
 733              	.LVL75:
 179:C:/Users/stapi/OneDrive/Desktop/GD32VW553/GD32VW55X_Wifi_BLE_SDK/GD32VW55x_RELEASE_V1.0.2/MSDK/lwip/libcoap-4.3.4/src\coap_async.c ****   async->appdata = app_data;
 734              		.loc 1 179 3
 735              		.loc 1 179 18 is_stmt 0
 736 0000 0CC9     		sw	a1,16(a0)
 180:C:/Users/stapi/OneDrive/Desktop/GD32VW553/GD32VW55X_Wifi_BLE_SDK/GD32VW55x_RELEASE_V1.0.2/MSDK/lwip/libcoap-4.3.4/src\coap_async.c **** }
 737              		.loc 1 180 1
 738 0002 8280     		ret
 739              		.cfi_endproc
 740              	.LFE39:
 742              		.section	.text.coap_async_get_app_data,"ax",@progbits
 743              		.align	1
 744              		.globl	coap_async_get_app_data
 746              	coap_async_get_app_data:
 747              	.LFB40:
 181:C:/Users/stapi/OneDrive/Desktop/GD32VW553/GD32VW55X_Wifi_BLE_SDK/GD32VW55x_RELEASE_V1.0.2/MSDK/lwip/libcoap-4.3.4/src\coap_async.c **** 
 182:C:/Users/stapi/OneDrive/Desktop/GD32VW553/GD32VW55X_Wifi_BLE_SDK/GD32VW55x_RELEASE_V1.0.2/MSDK/lwip/libcoap-4.3.4/src\coap_async.c **** void *
 183:C:/Users/stapi/OneDrive/Desktop/GD32VW553/GD32VW55X_Wifi_BLE_SDK/GD32VW55x_RELEASE_V1.0.2/MSDK/lwip/libcoap-4.3.4/src\coap_async.c **** coap_async_get_app_data(const coap_async_t *async) {
 748              		.loc 1 183 52 is_stmt 1
 749              		.cfi_startproc
 750              	.LVL76:
 184:C:/Users/stapi/OneDrive/Desktop/GD32VW553/GD32VW55X_Wifi_BLE_SDK/GD32VW55x_RELEASE_V1.0.2/MSDK/lwip/libcoap-4.3.4/src\coap_async.c ****   return async->appdata;
 751              		.loc 1 184 3
 185:C:/Users/stapi/OneDrive/Desktop/GD32VW553/GD32VW55X_Wifi_BLE_SDK/GD32VW55x_RELEASE_V1.0.2/MSDK/lwip/libcoap-4.3.4/src\coap_async.c **** }
 752              		.loc 1 185 1 is_stmt 0
 753 0000 0849     		lw	a0,16(a0)
 754              	.LVL77:
 755 0002 8280     		ret
 756              		.cfi_endproc
 757              	.LFE40:
 759              		.section	.rodata.__func__.0,"a"
 760              		.align	2
 761              		.set	.LANCHOR1,. + 0
 764              	__func__.0:
 765 0000 636F6170 		.string	"coap_async_set_delay"
 765      5F617379 
 765      6E635F73 
 765      65745F64 
 765      656C6179 
 766              		.section	.rodata.__func__.1,"a"
 767              		.align	2
 768              		.set	.LANCHOR0,. + 0
 771              	__func__.1:
 772 0000 636F6170 		.string	"coap_async_trigger"
 772      5F617379 
 772      6E635F74 
 772      72696767 
 772      657200
 773              		.text
 774              	.Letext0:
 775              		.file 3 "c:\\users\\stapi\\onedrive\\desktop\\gd32vw553\\embeddedbuilder_v1.4.7.26843\\tools\\nucl
 776              		.file 4 "c:\\users\\stapi\\onedrive\\desktop\\gd32vw553\\embeddedbuilder_v1.4.7.26843\\tools\\nucl
 777              		.file 5 "c:\\users\\stapi\\onedrive\\desktop\\gd32vw553\\embeddedbuilder_v1.4.7.26843\\tools\\nucl
 778              		.file 6 "c:\\users\\stapi\\onedrive\\desktop\\gd32vw553\\embeddedbuilder_v1.4.7.26843\\tools\\nucl
 779              		.file 7 "c:\\users\\stapi\\onedrive\\desktop\\gd32vw553\\embeddedbuilder_v1.4.7.26843\\tools\\nucl
 780              		.file 8 "..\\..\\..\\..\\lwip\\lwip-2.1.2\\src\\include/lwip/arch.h"
 781              		.file 9 "..\\..\\..\\..\\lwip\\libcoap-4.3.4\\include/coap3/coap_forward_decls.h"
 782              		.file 10 "..\\..\\..\\..\\lwip\\libcoap-4.3.4\\include/coap3/coap_address.h"
 783              		.file 11 "..\\..\\..\\..\\lwip\\libcoap-4.3.4\\include/coap3/coap_async_internal.h"
 784              		.file 12 "..\\..\\..\\..\\lwip\\libcoap-4.3.4\\include/coap3/coap_block_internal.h"
 785              		.file 13 "..\\..\\..\\..\\lwip\\libcoap-4.3.4\\include/coap3/coap_cache_internal.h"
 786              		.file 14 "..\\..\\..\\..\\lwip\\libcoap-4.3.4\\include/coap3/coap_io_internal.h"
 787              		.file 15 "..\\..\\..\\..\\lwip\\libcoap-4.3.4\\include/coap3/coap_net_internal.h"
 788              		.file 16 "..\\..\\..\\..\\lwip\\libcoap-4.3.4\\include/coap3/coap_pdu_internal.h"
 789              		.file 17 "..\\..\\..\\..\\lwip\\libcoap-4.3.4\\include/coap3/coap_resource_internal.h"
 790              		.file 18 "..\\..\\..\\..\\lwip\\libcoap-4.3.4\\include/coap3/coap_session_internal.h"
 791              		.file 19 "..\\..\\..\\..\\lwip\\libcoap-4.3.4\\include/coap3/coap_subscribe_internal.h"
 792              		.file 20 "..\\..\\..\\..\\lwip\\libcoap-4.3.4\\include/coap3/coap_option.h"
 793              		.file 21 "..\\..\\..\\..\\lwip\\libcoap-4.3.4\\include/coap3/coap_str.h"
 794              		.file 22 "..\\..\\..\\..\\lwip\\lwip-2.1.2\\src\\include/lwip/pbuf.h"
 795              		.file 23 "..\\..\\..\\..\\lwip\\libcoap-4.3.4\\include/coap3/coap_pdu.h"
 796              		.file 24 "..\\..\\..\\..\\lwip\\lwip-2.1.2\\src\\include/lwip/ip4_addr.h"
 797              		.file 25 "..\\..\\..\\..\\lwip\\lwip-2.1.2\\src\\include/lwip/ip_addr.h"
 798              		.file 26 "..\\..\\..\\..\\lwip\\lwip-2.1.2\\src\\include/lwip/sockets.h"
 799              		.file 27 "..\\..\\..\\..\\lwip\\libcoap-4.3.4\\include/coap3/coap_io.h"
 800              		.file 28 "..\\..\\..\\..\\lwip\\libcoap-4.3.4\\include/coap3/coap_dtls.h"
 801              		.file 29 "..\\..\\..\\..\\lwip\\libcoap-4.3.4\\include/coap3/coap_event.h"
 802              		.file 30 "..\\..\\..\\..\\lwip\\libcoap-4.3.4\\include/coap3/coap_session.h"
 803              		.file 31 "..\\..\\..\\..\\lwip\\libcoap-4.3.4\\include/coap3/coap_debug.h"
 804              		.file 32 "..\\..\\..\\..\\lwip\\libcoap-4.3.4\\include/coap3/coap_net.h"
 805              		.file 33 "..\\..\\..\\..\\lwip\\libcoap-4.3.4\\include/coap3/coap_block.h"
 806              		.file 34 "..\\..\\..\\..\\lwip\\libcoap-4.3.4\\include/coap3/coap_cache.h"
 807              		.file 35 "..\\..\\..\\..\\lwip\\libcoap-4.3.4\\include/coap3/coap_mem.h"
 808              		.file 36 "..\\..\\..\\..\\lwip\\libcoap-4.3.4\\include/coap3/coap_resource.h"
 809              		.file 37 "..\\..\\..\\..\\lwip\\libcoap-4.3.4\\include/coap3/coap_subscribe.h"
 810              		.file 38 "..\\..\\..\\..\\lwip\\libcoap-4.3.4\\include/coap3/coap_uthash_internal.h"
 811              		.file 39 "..\\..\\..\\..\\lwip\\libcoap-4.3.4\\include/coap3/coap_layers_internal.h"
 812              		.file 40 "c:\\users\\stapi\\onedrive\\desktop\\gd32vw553\\embeddedbuilder_v1.4.7.26843\\tools\\nuc
 813              		.file 41 "..\\..\\..\\..\\lwip\\lwip-2.1.2\\src\\include/lwip/sys.h"
 814              		.file 42 "c:\\users\\stapi\\onedrive\\desktop\\gd32vw553\\embeddedbuilder_v1.4.7.26843\\tools\\nuc
 815              		.file 43 "c:\\users\\stapi\\onedrive\\desktop\\gd32vw553\\embeddedbuilder_v1.4.7.26843\\tools\\nuc
 816              		.file 44 "<built-in>"