   1              		.file	"coap_dtls.c"
   2              		.option nopic
   3              		.attribute arch, "rv32i2p0_m2p0_a2p0_f2p0_c2p0_b_p0p94"
   4              		.attribute unaligned_access, 0
   5              		.attribute stack_align, 16
   6              		.text
   7              	.Ltext0:
   8              		.cfi_sections	.debug_frame
   9              		.section	.text.coap_dtls_establish,"ax",@progbits
  10              		.align	1
  11              		.globl	coap_dtls_establish
  13              	coap_dtls_establish:
  14              	.LFB31:
  15              		.file 1 "C:/Users/stapi/OneDrive/Desktop/GD32VW553/GD32VW55X_Wifi_BLE_SDK/GD32VW55x_RELEASE_V1.0.2
   1:C:/Users/stapi/OneDrive/Desktop/GD32VW553/GD32VW55X_Wifi_BLE_SDK/GD32VW55x_RELEASE_V1.0.2/MSDK/lwip/libcoap-4.3.4/src\coap_dtls.c **** /*
   2:C:/Users/stapi/OneDrive/Desktop/GD32VW553/GD32VW55X_Wifi_BLE_SDK/GD32VW55x_RELEASE_V1.0.2/MSDK/lwip/libcoap-4.3.4/src\coap_dtls.c ****  * coap_dtls.c -- (D)TLS functions for libcoap
   3:C:/Users/stapi/OneDrive/Desktop/GD32VW553/GD32VW55X_Wifi_BLE_SDK/GD32VW55x_RELEASE_V1.0.2/MSDK/lwip/libcoap-4.3.4/src\coap_dtls.c ****  *
   4:C:/Users/stapi/OneDrive/Desktop/GD32VW553/GD32VW55X_Wifi_BLE_SDK/GD32VW55x_RELEASE_V1.0.2/MSDK/lwip/libcoap-4.3.4/src\coap_dtls.c ****  * Copyright (C) 2023 Olaf Bergmann <bergmann@tzi.org>
   5:C:/Users/stapi/OneDrive/Desktop/GD32VW553/GD32VW55X_Wifi_BLE_SDK/GD32VW55x_RELEASE_V1.0.2/MSDK/lwip/libcoap-4.3.4/src\coap_dtls.c ****  * Copyright (C) 2023 Jon Shallow <supjps-libcoap@jpshallow.com>
   6:C:/Users/stapi/OneDrive/Desktop/GD32VW553/GD32VW55X_Wifi_BLE_SDK/GD32VW55x_RELEASE_V1.0.2/MSDK/lwip/libcoap-4.3.4/src\coap_dtls.c ****  *
   7:C:/Users/stapi/OneDrive/Desktop/GD32VW553/GD32VW55X_Wifi_BLE_SDK/GD32VW55x_RELEASE_V1.0.2/MSDK/lwip/libcoap-4.3.4/src\coap_dtls.c ****  * SPDX-License-Identifier: BSD-2-Clause
   8:C:/Users/stapi/OneDrive/Desktop/GD32VW553/GD32VW55X_Wifi_BLE_SDK/GD32VW55x_RELEASE_V1.0.2/MSDK/lwip/libcoap-4.3.4/src\coap_dtls.c ****  *
   9:C:/Users/stapi/OneDrive/Desktop/GD32VW553/GD32VW55X_Wifi_BLE_SDK/GD32VW55x_RELEASE_V1.0.2/MSDK/lwip/libcoap-4.3.4/src\coap_dtls.c ****  * This file is part of the CoAP library libcoap. Please see README for terms
  10:C:/Users/stapi/OneDrive/Desktop/GD32VW553/GD32VW55X_Wifi_BLE_SDK/GD32VW55x_RELEASE_V1.0.2/MSDK/lwip/libcoap-4.3.4/src\coap_dtls.c ****  * of use.
  11:C:/Users/stapi/OneDrive/Desktop/GD32VW553/GD32VW55X_Wifi_BLE_SDK/GD32VW55x_RELEASE_V1.0.2/MSDK/lwip/libcoap-4.3.4/src\coap_dtls.c ****  */
  12:C:/Users/stapi/OneDrive/Desktop/GD32VW553/GD32VW55X_Wifi_BLE_SDK/GD32VW55x_RELEASE_V1.0.2/MSDK/lwip/libcoap-4.3.4/src\coap_dtls.c **** 
  13:C:/Users/stapi/OneDrive/Desktop/GD32VW553/GD32VW55X_Wifi_BLE_SDK/GD32VW55x_RELEASE_V1.0.2/MSDK/lwip/libcoap-4.3.4/src\coap_dtls.c **** /**
  14:C:/Users/stapi/OneDrive/Desktop/GD32VW553/GD32VW55X_Wifi_BLE_SDK/GD32VW55x_RELEASE_V1.0.2/MSDK/lwip/libcoap-4.3.4/src\coap_dtls.c ****  * @file coap_dtls.c
  15:C:/Users/stapi/OneDrive/Desktop/GD32VW553/GD32VW55X_Wifi_BLE_SDK/GD32VW55x_RELEASE_V1.0.2/MSDK/lwip/libcoap-4.3.4/src\coap_dtls.c ****  * @brief CoAP (D)TLS handling functions
  16:C:/Users/stapi/OneDrive/Desktop/GD32VW553/GD32VW55X_Wifi_BLE_SDK/GD32VW55x_RELEASE_V1.0.2/MSDK/lwip/libcoap-4.3.4/src\coap_dtls.c ****  */
  17:C:/Users/stapi/OneDrive/Desktop/GD32VW553/GD32VW55X_Wifi_BLE_SDK/GD32VW55x_RELEASE_V1.0.2/MSDK/lwip/libcoap-4.3.4/src\coap_dtls.c **** 
  18:C:/Users/stapi/OneDrive/Desktop/GD32VW553/GD32VW55X_Wifi_BLE_SDK/GD32VW55x_RELEASE_V1.0.2/MSDK/lwip/libcoap-4.3.4/src\coap_dtls.c **** #include "coap3/coap_internal.h"
  19:C:/Users/stapi/OneDrive/Desktop/GD32VW553/GD32VW55X_Wifi_BLE_SDK/GD32VW55x_RELEASE_V1.0.2/MSDK/lwip/libcoap-4.3.4/src\coap_dtls.c **** 
  20:C:/Users/stapi/OneDrive/Desktop/GD32VW553/GD32VW55X_Wifi_BLE_SDK/GD32VW55x_RELEASE_V1.0.2/MSDK/lwip/libcoap-4.3.4/src\coap_dtls.c **** void
  21:C:/Users/stapi/OneDrive/Desktop/GD32VW553/GD32VW55X_Wifi_BLE_SDK/GD32VW55x_RELEASE_V1.0.2/MSDK/lwip/libcoap-4.3.4/src\coap_dtls.c **** coap_dtls_establish(coap_session_t *session) {
  16              		.loc 1 21 46
  17              		.cfi_startproc
  18              	.LVL0:
  19 0000 17030000 		call	t0,__riscv_save_2
  19      E7020300 
  20              		.cfi_offset 9, -12
  21              		.cfi_offset 8, -8
  22              		.cfi_offset 1, -4
  23              		.cfi_def_cfa_offset 16
  22:C:/Users/stapi/OneDrive/Desktop/GD32VW553/GD32VW55X_Wifi_BLE_SDK/GD32VW55x_RELEASE_V1.0.2/MSDK/lwip/libcoap-4.3.4/src\coap_dtls.c ****   session->state = COAP_SESSION_STATE_HANDSHAKE;
  24              		.loc 1 22 3
  23:C:/Users/stapi/OneDrive/Desktop/GD32VW553/GD32VW55X_Wifi_BLE_SDK/GD32VW55x_RELEASE_V1.0.2/MSDK/lwip/libcoap-4.3.4/src\coap_dtls.c **** #if COAP_CLIENT_SUPPORT
  24:C:/Users/stapi/OneDrive/Desktop/GD32VW553/GD32VW55X_Wifi_BLE_SDK/GD32VW55x_RELEASE_V1.0.2/MSDK/lwip/libcoap-4.3.4/src\coap_dtls.c ****   if (session->type == COAP_SESSION_TYPE_CLIENT)
  25              		.loc 1 24 6 is_stmt 0
  26 0008 4441     		lw	s1,4(a0)
  22:C:/Users/stapi/OneDrive/Desktop/GD32VW553/GD32VW55X_Wifi_BLE_SDK/GD32VW55x_RELEASE_V1.0.2/MSDK/lwip/libcoap-4.3.4/src\coap_dtls.c ****   session->state = COAP_SESSION_STATE_HANDSHAKE;
  27              		.loc 1 22 18
  28 000a 8947     		li	a5,2
  29 000c 1CC5     		sw	a5,8(a0)
  30              		.loc 1 24 3 is_stmt 1
  31              		.loc 1 24 6 is_stmt 0
  32 000e 8547     		li	a5,1
  21:C:/Users/stapi/OneDrive/Desktop/GD32VW553/GD32VW55X_Wifi_BLE_SDK/GD32VW55x_RELEASE_V1.0.2/MSDK/lwip/libcoap-4.3.4/src\coap_dtls.c ****   session->state = COAP_SESSION_STATE_HANDSHAKE;
  33              		.loc 1 21 46
  34 0010 2A84     		mv	s0,a0
  35              		.loc 1 24 6
  36 0012 6386F402 		beq	s1,a5,.L2
  37              	.LVL1:
  38              	.L4:
  25:C:/Users/stapi/OneDrive/Desktop/GD32VW553/GD32VW55X_Wifi_BLE_SDK/GD32VW55x_RELEASE_V1.0.2/MSDK/lwip/libcoap-4.3.4/src\coap_dtls.c ****     session->tls = coap_dtls_new_client_session(session);
  26:C:/Users/stapi/OneDrive/Desktop/GD32VW553/GD32VW55X_Wifi_BLE_SDK/GD32VW55x_RELEASE_V1.0.2/MSDK/lwip/libcoap-4.3.4/src\coap_dtls.c **** #endif /* COAP_CLIENT_SUPPORT */
  27:C:/Users/stapi/OneDrive/Desktop/GD32VW553/GD32VW55X_Wifi_BLE_SDK/GD32VW55x_RELEASE_V1.0.2/MSDK/lwip/libcoap-4.3.4/src\coap_dtls.c **** #if COAP_SERVER_SUPPORT
  28:C:/Users/stapi/OneDrive/Desktop/GD32VW553/GD32VW55X_Wifi_BLE_SDK/GD32VW55x_RELEASE_V1.0.2/MSDK/lwip/libcoap-4.3.4/src\coap_dtls.c ****   if (session->type != COAP_SESSION_TYPE_CLIENT)
  29:C:/Users/stapi/OneDrive/Desktop/GD32VW553/GD32VW55X_Wifi_BLE_SDK/GD32VW55x_RELEASE_V1.0.2/MSDK/lwip/libcoap-4.3.4/src\coap_dtls.c ****     session->tls = coap_dtls_new_server_session(session);
  39              		.loc 1 29 5 is_stmt 1
  40              		.loc 1 29 20 is_stmt 0
  41 0016 2285     		mv	a0,s0
  42 0018 97000000 		call	coap_dtls_new_server_session
  42      E7800000 
  43              	.LVL2:
  44              		.loc 1 29 18
  45 0020 2328A40A 		sw	a0,176(s0)
  46              	.L3:
  30:C:/Users/stapi/OneDrive/Desktop/GD32VW553/GD32VW55X_Wifi_BLE_SDK/GD32VW55x_RELEASE_V1.0.2/MSDK/lwip/libcoap-4.3.4/src\coap_dtls.c **** #endif /* COAP_SERVER_SUPPORT */
  31:C:/Users/stapi/OneDrive/Desktop/GD32VW553/GD32VW55X_Wifi_BLE_SDK/GD32VW55x_RELEASE_V1.0.2/MSDK/lwip/libcoap-4.3.4/src\coap_dtls.c **** 
  32:C:/Users/stapi/OneDrive/Desktop/GD32VW553/GD32VW55X_Wifi_BLE_SDK/GD32VW55x_RELEASE_V1.0.2/MSDK/lwip/libcoap-4.3.4/src\coap_dtls.c ****   if (!session->tls) {
  47              		.loc 1 32 3 is_stmt 1
  48              		.loc 1 32 6 is_stmt 0
  49 0024 8327040B 		lw	a5,176(s0)
  50 0028 8DE7     		bne	a5,zero,.L5
  33:C:/Users/stapi/OneDrive/Desktop/GD32VW553/GD32VW55X_Wifi_BLE_SDK/GD32VW55x_RELEASE_V1.0.2/MSDK/lwip/libcoap-4.3.4/src\coap_dtls.c ****     coap_session_disconnected(session, COAP_NACK_TLS_LAYER_FAILED);
  51              		.loc 1 33 5 is_stmt 1
  52 002a 9945     		li	a1,6
  53 002c 2285     		mv	a0,s0
  54 002e 97000000 		call	coap_session_disconnected
  54      E7800000 
  55              	.LVL3:
  34:C:/Users/stapi/OneDrive/Desktop/GD32VW553/GD32VW55X_Wifi_BLE_SDK/GD32VW55x_RELEASE_V1.0.2/MSDK/lwip/libcoap-4.3.4/src\coap_dtls.c ****     return;
  56              		.loc 1 34 5
  57              	.L1:
  35:C:/Users/stapi/OneDrive/Desktop/GD32VW553/GD32VW55X_Wifi_BLE_SDK/GD32VW55x_RELEASE_V1.0.2/MSDK/lwip/libcoap-4.3.4/src\coap_dtls.c ****   }
  36:C:/Users/stapi/OneDrive/Desktop/GD32VW553/GD32VW55X_Wifi_BLE_SDK/GD32VW55x_RELEASE_V1.0.2/MSDK/lwip/libcoap-4.3.4/src\coap_dtls.c ****   coap_ticks(&session->last_rx_tx);
  37:C:/Users/stapi/OneDrive/Desktop/GD32VW553/GD32VW55X_Wifi_BLE_SDK/GD32VW55x_RELEASE_V1.0.2/MSDK/lwip/libcoap-4.3.4/src\coap_dtls.c **** }
  58              		.loc 1 37 1 is_stmt 0
  59 0036 17030000 		tail	__riscv_restore_2
  59      67000300 
  60              		.cfi_remember_state
  61              		.cfi_restore 9
  62              		.cfi_restore 8
  63              		.cfi_restore 1
  64              		.cfi_def_cfa_offset 0
  65              	.L2:
  66              		.cfi_restore_state
  25:C:/Users/stapi/OneDrive/Desktop/GD32VW553/GD32VW55X_Wifi_BLE_SDK/GD32VW55x_RELEASE_V1.0.2/MSDK/lwip/libcoap-4.3.4/src\coap_dtls.c **** #endif /* COAP_CLIENT_SUPPORT */
  67              		.loc 1 25 5 is_stmt 1
  25:C:/Users/stapi/OneDrive/Desktop/GD32VW553/GD32VW55X_Wifi_BLE_SDK/GD32VW55x_RELEASE_V1.0.2/MSDK/lwip/libcoap-4.3.4/src\coap_dtls.c **** #endif /* COAP_CLIENT_SUPPORT */
  68              		.loc 1 25 20 is_stmt 0
  69 003e 97000000 		call	coap_dtls_new_client_session
  69      E7800000 
  70              	.LVL4:
  28:C:/Users/stapi/OneDrive/Desktop/GD32VW553/GD32VW55X_Wifi_BLE_SDK/GD32VW55x_RELEASE_V1.0.2/MSDK/lwip/libcoap-4.3.4/src\coap_dtls.c ****     session->tls = coap_dtls_new_server_session(session);
  71              		.loc 1 28 6
  72 0046 5C40     		lw	a5,4(s0)
  25:C:/Users/stapi/OneDrive/Desktop/GD32VW553/GD32VW55X_Wifi_BLE_SDK/GD32VW55x_RELEASE_V1.0.2/MSDK/lwip/libcoap-4.3.4/src\coap_dtls.c **** #endif /* COAP_CLIENT_SUPPORT */
  73              		.loc 1 25 18
  74 0048 2328A40A 		sw	a0,176(s0)
  28:C:/Users/stapi/OneDrive/Desktop/GD32VW553/GD32VW55X_Wifi_BLE_SDK/GD32VW55x_RELEASE_V1.0.2/MSDK/lwip/libcoap-4.3.4/src\coap_dtls.c ****     session->tls = coap_dtls_new_server_session(session);
  75              		.loc 1 28 3 is_stmt 1
  28:C:/Users/stapi/OneDrive/Desktop/GD32VW553/GD32VW55X_Wifi_BLE_SDK/GD32VW55x_RELEASE_V1.0.2/MSDK/lwip/libcoap-4.3.4/src\coap_dtls.c ****     session->tls = coap_dtls_new_server_session(session);
  76              		.loc 1 28 6 is_stmt 0
  77 004c E38C97FC 		beq	a5,s1,.L3
  78 0050 D9B7     		j	.L4
  79              	.L5:
  36:C:/Users/stapi/OneDrive/Desktop/GD32VW553/GD32VW55X_Wifi_BLE_SDK/GD32VW55x_RELEASE_V1.0.2/MSDK/lwip/libcoap-4.3.4/src\coap_dtls.c **** }
  80              		.loc 1 36 3 is_stmt 1
  81              	.LVL5:
  82              	.LBB4:
  83              	.LBB5:
  84              		.file 2 "..\\..\\..\\..\\lwip\\libcoap-4.3.4\\include/coap3/coap_time.h"
   1:..\..\..\..\lwip\libcoap-4.3.4\include/coap3/coap_time.h **** /*
   2:..\..\..\..\lwip\libcoap-4.3.4\include/coap3/coap_time.h ****  * coap_time.h -- Clock Handling
   3:..\..\..\..\lwip\libcoap-4.3.4\include/coap3/coap_time.h ****  *
   4:..\..\..\..\lwip\libcoap-4.3.4\include/coap3/coap_time.h ****  * Copyright (C) 2010-2023 Olaf Bergmann <bergmann@tzi.org>
   5:..\..\..\..\lwip\libcoap-4.3.4\include/coap3/coap_time.h ****  *
   6:..\..\..\..\lwip\libcoap-4.3.4\include/coap3/coap_time.h ****  * SPDX-License-Identifier: BSD-2-Clause
   7:..\..\..\..\lwip\libcoap-4.3.4\include/coap3/coap_time.h ****  *
   8:..\..\..\..\lwip\libcoap-4.3.4\include/coap3/coap_time.h ****  * This file is part of the CoAP library libcoap. Please see README for terms
   9:..\..\..\..\lwip\libcoap-4.3.4\include/coap3/coap_time.h ****  * of use.
  10:..\..\..\..\lwip\libcoap-4.3.4\include/coap3/coap_time.h ****  */
  11:..\..\..\..\lwip\libcoap-4.3.4\include/coap3/coap_time.h **** 
  12:..\..\..\..\lwip\libcoap-4.3.4\include/coap3/coap_time.h **** /**
  13:..\..\..\..\lwip\libcoap-4.3.4\include/coap3/coap_time.h ****  * @file coap_time.h
  14:..\..\..\..\lwip\libcoap-4.3.4\include/coap3/coap_time.h ****  * @brief Clock Handling
  15:..\..\..\..\lwip\libcoap-4.3.4\include/coap3/coap_time.h ****  */
  16:..\..\..\..\lwip\libcoap-4.3.4\include/coap3/coap_time.h **** 
  17:..\..\..\..\lwip\libcoap-4.3.4\include/coap3/coap_time.h **** #ifndef COAP_TIME_H_
  18:..\..\..\..\lwip\libcoap-4.3.4\include/coap3/coap_time.h **** #define COAP_TIME_H_
  19:..\..\..\..\lwip\libcoap-4.3.4\include/coap3/coap_time.h **** 
  20:..\..\..\..\lwip\libcoap-4.3.4\include/coap3/coap_time.h **** /**
  21:..\..\..\..\lwip\libcoap-4.3.4\include/coap3/coap_time.h ****  * @ingroup application_api
  22:..\..\..\..\lwip\libcoap-4.3.4\include/coap3/coap_time.h ****  * @defgroup clock Clock Handling
  23:..\..\..\..\lwip\libcoap-4.3.4\include/coap3/coap_time.h ****  * API for internal clock assess
  24:..\..\..\..\lwip\libcoap-4.3.4\include/coap3/coap_time.h ****  * @{
  25:..\..\..\..\lwip\libcoap-4.3.4\include/coap3/coap_time.h ****  */
  26:..\..\..\..\lwip\libcoap-4.3.4\include/coap3/coap_time.h **** 
  27:..\..\..\..\lwip\libcoap-4.3.4\include/coap3/coap_time.h **** #if defined(WITH_LWIP)
  28:..\..\..\..\lwip\libcoap-4.3.4\include/coap3/coap_time.h **** 
  29:..\..\..\..\lwip\libcoap-4.3.4\include/coap3/coap_time.h **** #include <stdint.h>
  30:..\..\..\..\lwip\libcoap-4.3.4\include/coap3/coap_time.h **** #include <lwip/sys.h>
  31:..\..\..\..\lwip\libcoap-4.3.4\include/coap3/coap_time.h **** 
  32:..\..\..\..\lwip\libcoap-4.3.4\include/coap3/coap_time.h **** /* lwIP provides ms in sys_now */
  33:..\..\..\..\lwip\libcoap-4.3.4\include/coap3/coap_time.h **** #define COAP_TICKS_PER_SECOND 1000
  34:..\..\..\..\lwip\libcoap-4.3.4\include/coap3/coap_time.h **** 
  35:..\..\..\..\lwip\libcoap-4.3.4\include/coap3/coap_time.h **** typedef uint32_t coap_tick_t;
  36:..\..\..\..\lwip\libcoap-4.3.4\include/coap3/coap_time.h **** typedef uint32_t coap_time_t;
  37:..\..\..\..\lwip\libcoap-4.3.4\include/coap3/coap_time.h **** typedef int32_t coap_tick_diff_t;
  38:..\..\..\..\lwip\libcoap-4.3.4\include/coap3/coap_time.h **** 
  39:..\..\..\..\lwip\libcoap-4.3.4\include/coap3/coap_time.h **** COAP_STATIC_INLINE void
  40:..\..\..\..\lwip\libcoap-4.3.4\include/coap3/coap_time.h **** coap_ticks_impl(coap_tick_t *t) {
  41:..\..\..\..\lwip\libcoap-4.3.4\include/coap3/coap_time.h ****   *t = sys_now();
  85              		.loc 2 41 3
  86              		.loc 2 41 8 is_stmt 0
  87 0052 97000000 		call	sys_now
  87      E7800000 
  88              	.LVL6:
  89              		.loc 2 41 6
  90 005a 2320A40E 		sw	a0,224(s0)
  91              	.LVL7:
  42:..\..\..\..\lwip\libcoap-4.3.4\include/coap3/coap_time.h **** }
  92              		.loc 2 42 1
  93 005e E1BF     		j	.L1
  94              	.LBE5:
  95              	.LBE4:
  96              		.cfi_endproc
  97              	.LFE31:
  99              		.section	.text.coap_dtls_close,"ax",@progbits
 100              		.align	1
 101              		.globl	coap_dtls_close
 103              	coap_dtls_close:
 104              	.LFB32:
  38:C:/Users/stapi/OneDrive/Desktop/GD32VW553/GD32VW55X_Wifi_BLE_SDK/GD32VW55x_RELEASE_V1.0.2/MSDK/lwip/libcoap-4.3.4/src\coap_dtls.c **** 
  39:C:/Users/stapi/OneDrive/Desktop/GD32VW553/GD32VW55X_Wifi_BLE_SDK/GD32VW55x_RELEASE_V1.0.2/MSDK/lwip/libcoap-4.3.4/src\coap_dtls.c **** void
  40:C:/Users/stapi/OneDrive/Desktop/GD32VW553/GD32VW55X_Wifi_BLE_SDK/GD32VW55x_RELEASE_V1.0.2/MSDK/lwip/libcoap-4.3.4/src\coap_dtls.c **** coap_dtls_close(coap_session_t *session) {
 105              		.loc 1 40 42 is_stmt 1
 106              		.cfi_startproc
 107              	.LVL8:
 108 0000 17030000 		call	t0,__riscv_save_1
 108      E7020300 
 109              		.cfi_offset 8, -8
 110              		.cfi_offset 1, -4
 111              		.cfi_def_cfa_offset 16
  41:C:/Users/stapi/OneDrive/Desktop/GD32VW553/GD32VW55X_Wifi_BLE_SDK/GD32VW55x_RELEASE_V1.0.2/MSDK/lwip/libcoap-4.3.4/src\coap_dtls.c ****   if (session->tls) {
 112              		.loc 1 41 3
 113              		.loc 1 41 6 is_stmt 0
 114 0008 8327050B 		lw	a5,176(a0)
  40:C:/Users/stapi/OneDrive/Desktop/GD32VW553/GD32VW55X_Wifi_BLE_SDK/GD32VW55x_RELEASE_V1.0.2/MSDK/lwip/libcoap-4.3.4/src\coap_dtls.c ****   if (session->tls) {
 115              		.loc 1 40 42
 116 000c 2A84     		mv	s0,a0
 117              		.loc 1 41 6
 118 000e 99C7     		beq	a5,zero,.L9
  42:C:/Users/stapi/OneDrive/Desktop/GD32VW553/GD32VW55X_Wifi_BLE_SDK/GD32VW55x_RELEASE_V1.0.2/MSDK/lwip/libcoap-4.3.4/src\coap_dtls.c ****     coap_dtls_free_session(session);
 119              		.loc 1 42 5 is_stmt 1
 120 0010 97000000 		call	coap_dtls_free_session
 120      E7800000 
 121              	.LVL9:
  43:C:/Users/stapi/OneDrive/Desktop/GD32VW553/GD32VW55X_Wifi_BLE_SDK/GD32VW55x_RELEASE_V1.0.2/MSDK/lwip/libcoap-4.3.4/src\coap_dtls.c ****     session->tls = NULL;
 122              		.loc 1 43 5
 123              		.loc 1 43 18 is_stmt 0
 124 0018 2328040A 		sw	zero,176(s0)
 125              	.L9:
  44:C:/Users/stapi/OneDrive/Desktop/GD32VW553/GD32VW55X_Wifi_BLE_SDK/GD32VW55x_RELEASE_V1.0.2/MSDK/lwip/libcoap-4.3.4/src\coap_dtls.c ****   }
  45:C:/Users/stapi/OneDrive/Desktop/GD32VW553/GD32VW55X_Wifi_BLE_SDK/GD32VW55x_RELEASE_V1.0.2/MSDK/lwip/libcoap-4.3.4/src\coap_dtls.c ****   session->sock.lfunc[COAP_LAYER_TLS].l_close(session);
 126              		.loc 1 45 3 is_stmt 1
 127 001c 8327440A 		lw	a5,164(s0)
 128 0020 2285     		mv	a0,s0
 129 0022 8297     		jalr	a5
 130              	.LVL10:
  46:C:/Users/stapi/OneDrive/Desktop/GD32VW553/GD32VW55X_Wifi_BLE_SDK/GD32VW55x_RELEASE_V1.0.2/MSDK/lwip/libcoap-4.3.4/src\coap_dtls.c **** }
 131              		.loc 1 46 1 is_stmt 0
 132 0024 17030000 		tail	__riscv_restore_1
 132      67000300 
 133              		.cfi_restore 8
 134              		.cfi_restore 1
 135              		.cfi_def_cfa_offset 0
 136              		.cfi_endproc
 137              	.LFE32:
 139              		.text
 140              	.Letext0:
 141              		.file 3 "c:\\users\\stapi\\onedrive\\desktop\\gd32vw553\\embeddedbuilder_v1.4.7.26843\\tools\\nucl
 142              		.file 4 "c:\\users\\stapi\\onedrive\\desktop\\gd32vw553\\embeddedbuilder_v1.4.7.26843\\tools\\nucl
 143              		.file 5 "c:\\users\\stapi\\onedrive\\desktop\\gd32vw553\\embeddedbuilder_v1.4.7.26843\\tools\\nucl
 144              		.file 6 "c:\\users\\stapi\\onedrive\\desktop\\gd32vw553\\embeddedbuilder_v1.4.7.26843\\tools\\nucl
 145              		.file 7 "c:\\users\\stapi\\onedrive\\desktop\\gd32vw553\\embeddedbuilder_v1.4.7.26843\\tools\\nucl
 146              		.file 8 "..\\..\\..\\..\\lwip\\lwip-2.1.2\\src\\include/lwip/arch.h"
 147              		.file 9 "..\\..\\..\\..\\lwip\\libcoap-4.3.4\\include/coap3/coap_forward_decls.h"
 148              		.file 10 "..\\..\\..\\..\\lwip\\libcoap-4.3.4\\include/coap3/coap_address.h"
 149              		.file 11 "..\\..\\..\\..\\lwip\\libcoap-4.3.4\\include/coap3/coap_async_internal.h"
 150              		.file 12 "..\\..\\..\\..\\lwip\\libcoap-4.3.4\\include/coap3/coap_block_internal.h"
 151              		.file 13 "..\\..\\..\\..\\lwip\\libcoap-4.3.4\\include/coap3/coap_cache_internal.h"
 152              		.file 14 "..\\..\\..\\..\\lwip\\libcoap-4.3.4\\include/coap3/coap_io_internal.h"
 153              		.file 15 "..\\..\\..\\..\\lwip\\libcoap-4.3.4\\include/coap3/coap_net_internal.h"
 154              		.file 16 "..\\..\\..\\..\\lwip\\libcoap-4.3.4\\include/coap3/coap_pdu_internal.h"
 155              		.file 17 "..\\..\\..\\..\\lwip\\libcoap-4.3.4\\include/coap3/coap_resource_internal.h"
 156              		.file 18 "..\\..\\..\\..\\lwip\\libcoap-4.3.4\\include/coap3/coap_session_internal.h"
 157              		.file 19 "..\\..\\..\\..\\lwip\\libcoap-4.3.4\\include/coap3/coap_subscribe_internal.h"
 158              		.file 20 "..\\..\\..\\..\\lwip\\libcoap-4.3.4\\include/coap3/coap_option.h"
 159              		.file 21 "..\\..\\..\\..\\lwip\\libcoap-4.3.4\\include/coap3/coap_str.h"
 160              		.file 22 "..\\..\\..\\..\\lwip\\lwip-2.1.2\\src\\include/lwip/pbuf.h"
 161              		.file 23 "..\\..\\..\\..\\lwip\\libcoap-4.3.4\\include/coap3/coap_pdu.h"
 162              		.file 24 "..\\..\\..\\..\\lwip\\lwip-2.1.2\\src\\include/lwip/ip4_addr.h"
 163              		.file 25 "..\\..\\..\\..\\lwip\\lwip-2.1.2\\src\\include/lwip/ip_addr.h"
 164              		.file 26 "..\\..\\..\\..\\lwip\\lwip-2.1.2\\src\\include/lwip/sockets.h"
 165              		.file 27 "..\\..\\..\\..\\lwip\\libcoap-4.3.4\\include/coap3/coap_io.h"
 166              		.file 28 "..\\..\\..\\..\\lwip\\libcoap-4.3.4\\include/coap3/coap_dtls.h"
 167              		.file 29 "..\\..\\..\\..\\lwip\\libcoap-4.3.4\\include/coap3/coap_event.h"
 168              		.file 30 "..\\..\\..\\..\\lwip\\libcoap-4.3.4\\include/coap3/coap_session.h"
 169              		.file 31 "..\\..\\..\\..\\lwip\\libcoap-4.3.4\\include/coap3/coap_net.h"
 170              		.file 32 "..\\..\\..\\..\\lwip\\libcoap-4.3.4\\include/coap3/coap_block.h"
 171              		.file 33 "..\\..\\..\\..\\lwip\\libcoap-4.3.4\\include/coap3/coap_cache.h"
 172              		.file 34 "..\\..\\..\\..\\lwip\\libcoap-4.3.4\\include/coap3/coap_resource.h"
 173              		.file 35 "..\\..\\..\\..\\lwip\\libcoap-4.3.4\\include/coap3/coap_subscribe.h"
 174              		.file 36 "..\\..\\..\\..\\lwip\\libcoap-4.3.4\\include/coap3/coap_uthash_internal.h"
 175              		.file 37 "..\\..\\..\\..\\lwip\\libcoap-4.3.4\\include/coap3/coap_layers_internal.h"
 176              		.file 38 "..\\..\\..\\..\\lwip\\libcoap-4.3.4\\include/coap3/coap_dtls_internal.h"
 177              		.file 39 "..\\..\\..\\..\\lwip\\lwip-2.1.2\\src\\include/lwip/sys.h"
DEFINED SYMBOLS
                            *ABS*:0000000000000000 coap_dtls.c
C:\Users\stapi\AppData\Local\Temp\cct4hVhk.s:13     .text.coap_dtls_establish:0000000000000000 coap_dtls_establish
C:\Users\stapi\AppData\Local\Temp\cct4hVhk.s:17     .text.coap_dtls_establish:0000000000000000 .L0 
C:\Users\stapi\AppData\Local\Temp\cct4hVhk.s:19     .text.coap_dtls_establish:0000000000000000 .L0 
C:\Users\stapi\AppData\Local\Temp\cct4hVhk.s:20     .text.coap_dtls_establish:0000000000000008 .L0 
C:\Users\stapi\AppData\Local\Temp\cct4hVhk.s:21     .text.coap_dtls_establish:0000000000000008 .L0 
C:\Users\stapi\AppData\Local\Temp\cct4hVhk.s:22     .text.coap_dtls_establish:0000000000000008 .L0 
C:\Users\stapi\AppData\Local\Temp\cct4hVhk.s:23     .text.coap_dtls_establish:0000000000000008 .L0 
C:\Users\stapi\AppData\Local\Temp\cct4hVhk.s:25     .text.coap_dtls_establish:0000000000000008 .L0 
C:\Users\stapi\AppData\Local\Temp\cct4hVhk.s:26     .text.coap_dtls_establish:0000000000000008 .L0 
C:\Users\stapi\AppData\Local\Temp\cct4hVhk.s:28     .text.coap_dtls_establish:000000000000000a .L0 
C:\Users\stapi\AppData\Local\Temp\cct4hVhk.s:31     .text.coap_dtls_establish:000000000000000e .L0 
C:\Users\stapi\AppData\Local\Temp\cct4hVhk.s:32     .text.coap_dtls_establish:000000000000000e .L0 
C:\Users\stapi\AppData\Local\Temp\cct4hVhk.s:34     .text.coap_dtls_establish:0000000000000010 .L0 
C:\Users\stapi\AppData\Local\Temp\cct4hVhk.s:36     .text.coap_dtls_establish:0000000000000012 .L0 
C:\Users\stapi\AppData\Local\Temp\cct4hVhk.s:40     .text.coap_dtls_establish:0000000000000016 .L0 
C:\Users\stapi\AppData\Local\Temp\cct4hVhk.s:41     .text.coap_dtls_establish:0000000000000016 .L0 
C:\Users\stapi\AppData\Local\Temp\cct4hVhk.s:45     .text.coap_dtls_establish:0000000000000020 .L0 
C:\Users\stapi\AppData\Local\Temp\cct4hVhk.s:48     .text.coap_dtls_establish:0000000000000024 .L0 
C:\Users\stapi\AppData\Local\Temp\cct4hVhk.s:49     .text.coap_dtls_establish:0000000000000024 .L0 
C:\Users\stapi\AppData\Local\Temp\cct4hVhk.s:52     .text.coap_dtls_establish:000000000000002a .L0 
C:\Users\stapi\AppData\Local\Temp\cct4hVhk.s:58     .text.coap_dtls_establish:0000000000000036 .L0 
C:\Users\stapi\AppData\Local\Temp\cct4hVhk.s:59     .text.coap_dtls_establish:0000000000000036 .L0 
C:\Users\stapi\AppData\Local\Temp\cct4hVhk.s:60     .text.coap_dtls_establish:000000000000003e .L0 
C:\Users\stapi\AppData\Local\Temp\cct4hVhk.s:61     .text.coap_dtls_establish:000000000000003e .L0 
C:\Users\stapi\AppData\Local\Temp\cct4hVhk.s:62     .text.coap_dtls_establish:000000000000003e .L0 
C:\Users\stapi\AppData\Local\Temp\cct4hVhk.s:63     .text.coap_dtls_establish:000000000000003e .L0 
C:\Users\stapi\AppData\Local\Temp\cct4hVhk.s:64     .text.coap_dtls_establish:000000000000003e .L0 
C:\Users\stapi\AppData\Local\Temp\cct4hVhk.s:66     .text.coap_dtls_establish:000000000000003e .L0 
C:\Users\stapi\AppData\Local\Temp\cct4hVhk.s:68     .text.coap_dtls_establish:000000000000003e .L0 
C:\Users\stapi\AppData\Local\Temp\cct4hVhk.s:69     .text.coap_dtls_establish:000000000000003e .L0 
C:\Users\stapi\AppData\Local\Temp\cct4hVhk.s:72     .text.coap_dtls_establish:0000000000000046 .L0 
C:\Users\stapi\AppData\Local\Temp\cct4hVhk.s:74     .text.coap_dtls_establish:0000000000000048 .L0 
C:\Users\stapi\AppData\Local\Temp\cct4hVhk.s:76     .text.coap_dtls_establish:000000000000004c .L0 
C:\Users\stapi\AppData\Local\Temp\cct4hVhk.s:77     .text.coap_dtls_establish:000000000000004c .L0 
C:\Users\stapi\AppData\Local\Temp\cct4hVhk.s:85     .text.coap_dtls_establish:0000000000000052 .L0 
C:\Users\stapi\AppData\Local\Temp\cct4hVhk.s:86     .text.coap_dtls_establish:0000000000000052 .L0 
C:\Users\stapi\AppData\Local\Temp\cct4hVhk.s:87     .text.coap_dtls_establish:0000000000000052 .L0 
C:\Users\stapi\AppData\Local\Temp\cct4hVhk.s:90     .text.coap_dtls_establish:000000000000005a .L0 
C:\Users\stapi\AppData\Local\Temp\cct4hVhk.s:93     .text.coap_dtls_establish:000000000000005e .L0 
C:\Users\stapi\AppData\Local\Temp\cct4hVhk.s:96     .text.coap_dtls_establish:0000000000000060 .L0 
C:\Users\stapi\AppData\Local\Temp\cct4hVhk.s:103    .text.coap_dtls_close:0000000000000000 coap_dtls_close
C:\Users\stapi\AppData\Local\Temp\cct4hVhk.s:106    .text.coap_dtls_close:0000000000000000 .L0 
C:\Users\stapi\AppData\Local\Temp\cct4hVhk.s:108    .text.coap_dtls_close:0000000000000000 .L0 
C:\Users\stapi\AppData\Local\Temp\cct4hVhk.s:109    .text.coap_dtls_close:0000000000000008 .L0 
C:\Users\stapi\AppData\Local\Temp\cct4hVhk.s:110    .text.coap_dtls_close:0000000000000008 .L0 
C:\Users\stapi\AppData\Local\Temp\cct4hVhk.s:111    .text.coap_dtls_close:0000000000000008 .L0 
C:\Users\stapi\AppData\Local\Temp\cct4hVhk.s:113    .text.coap_dtls_close:0000000000000008 .L0 
C:\Users\stapi\AppData\Local\Temp\cct4hVhk.s:114    .text.coap_dtls_close:0000000000000008 .L0 
C:\Users\stapi\AppData\Local\Temp\cct4hVhk.s:116    .text.coap_dtls_close:000000000000000c .L0 
C:\Users\stapi\AppData\Local\Temp\cct4hVhk.s:118    .text.coap_dtls_close:000000000000000e .L0 
C:\Users\stapi\AppData\Local\Temp\cct4hVhk.s:120    .text.coap_dtls_close:0000000000000010 .L0 
C:\Users\stapi\AppData\Local\Temp\cct4hVhk.s:123    .text.coap_dtls_close:0000000000000018 .L0 
C:\Users\stapi\AppData\Local\Temp\cct4hVhk.s:124    .text.coap_dtls_close:0000000000000018 .L0 
C:\Users\stapi\AppData\Local\Temp\cct4hVhk.s:127    .text.coap_dtls_close:000000000000001c .L0 
C:\Users\stapi\AppData\Local\Temp\cct4hVhk.s:132    .text.coap_dtls_close:0000000000000024 .L0 
C:\Users\stapi\AppData\Local\Temp\cct4hVhk.s:133    .text.coap_dtls_close:000000000000002c .L0 
C:\Users\stapi\AppData\Local\Temp\cct4hVhk.s:134    .text.coap_dtls_close:000000000000002c .L0 
C:\Users\stapi\AppData\Local\Temp\cct4hVhk.s:135    .text.coap_dtls_close:000000000000002c .L0 
C:\Users\stapi\AppData\Local\Temp\cct4hVhk.s:136    .text.coap_dtls_close:000000000000002c .L0 
C:\Users\stapi\AppData\Local\Temp\cct4hVhk.s:99     .text.coap_dtls_establish:0000000000000060 .L0 
C:\Users\stapi\AppData\Local\Temp\cct4hVhk.s:139    .text.coap_dtls_close:000000000000002c .L0 
                     .debug_frame:0000000000000000 .L0 
C:\Users\stapi\AppData\Local\Temp\cct4hVhk.s:65     .text.coap_dtls_establish:000000000000003e .L2
C:\Users\stapi\AppData\Local\Temp\cct4hVhk.s:79     .text.coap_dtls_establish:0000000000000052 .L5
C:\Users\stapi\AppData\Local\Temp\cct4hVhk.s:46     .text.coap_dtls_establish:0000000000000024 .L3
C:\Users\stapi\AppData\Local\Temp\cct4hVhk.s:38     .text.coap_dtls_establish:0000000000000016 .L4
C:\Users\stapi\AppData\Local\Temp\cct4hVhk.s:57     .text.coap_dtls_establish:0000000000000036 .L1
C:\Users\stapi\AppData\Local\Temp\cct4hVhk.s:125    .text.coap_dtls_close:000000000000001c .L9
C:\Users\stapi\AppData\Local\Temp\cct4hVhk.s:4520   .debug_abbrev:0000000000000000 .Ldebug_abbrev0
C:\Users\stapi\AppData\Local\Temp\cct4hVhk.s:5586   .debug_str:0000000000000aea .LASF451
C:\Users\stapi\AppData\Local\Temp\cct4hVhk.s:5574   .debug_str:0000000000000a32 .LASF452
C:\Users\stapi\AppData\Local\Temp\cct4hVhk.s:5722   .debug_str:0000000000001059 .LASF453
C:\Users\stapi\AppData\Local\Temp\cct4hVhk.s:5210   .debug_ranges:0000000000000000 .Ldebug_ranges0
C:\Users\stapi\AppData\Local\Temp\cct4hVhk.s:5218   .debug_line:0000000000000000 .Ldebug_line0
C:\Users\stapi\AppData\Local\Temp\cct4hVhk.s:5414   .debug_str:000000000000057e .LASF0
C:\Users\stapi\AppData\Local\Temp\cct4hVhk.s:5352   .debug_str:0000000000000385 .LASF3
C:\Users\stapi\AppData\Local\Temp\cct4hVhk.s:5434   .debug_str:00000000000005fe .LASF1
C:\Users\stapi\AppData\Local\Temp\cct4hVhk.s:5942   .debug_str:00000000000017b1 .LASF2
C:\Users\stapi\AppData\Local\Temp\cct4hVhk.s:5484   .debug_str:0000000000000784 .LASF4
C:\Users\stapi\AppData\Local\Temp\cct4hVhk.s:6072   .debug_str:0000000000001bf8 .LASF5
C:\Users\stapi\AppData\Local\Temp\cct4hVhk.s:5376   .debug_str:000000000000045b .LASF6
C:\Users\stapi\AppData\Local\Temp\cct4hVhk.s:5652   .debug_str:0000000000000dff .LASF7
C:\Users\stapi\AppData\Local\Temp\cct4hVhk.s:5566   .debug_str:00000000000009e3 .LASF8
C:\Users\stapi\AppData\Local\Temp\cct4hVhk.s:5654   .debug_str:0000000000000e0a .LASF9
C:\Users\stapi\AppData\Local\Temp\cct4hVhk.s:5564   .debug_str:00000000000009d8 .LASF10
C:\Users\stapi\AppData\Local\Temp\cct4hVhk.s:5834   .debug_str:000000000000147f .LASF11
C:\Users\stapi\AppData\Local\Temp\cct4hVhk.s:5716   .debug_str:0000000000001030 .LASF12
C:\Users\stapi\AppData\Local\Temp\cct4hVhk.s:5416   .debug_str:000000000000058a .LASF13
C:\Users\stapi\AppData\Local\Temp\cct4hVhk.s:5840   .debug_str:00000000000014a2 .LASF14
C:\Users\stapi\AppData\Local\Temp\cct4hVhk.s:6040   .debug_str:0000000000001b03 .LASF15
C:\Users\stapi\AppData\Local\Temp\cct4hVhk.s:5952   .debug_str:0000000000001814 .LASF16
C:\Users\stapi\AppData\Local\Temp\cct4hVhk.s:5234   .debug_str:0000000000000052 .LASF17
C:\Users\stapi\AppData\Local\Temp\cct4hVhk.s:5500   .debug_str:00000000000007e3 .LASF18
C:\Users\stapi\AppData\Local\Temp\cct4hVhk.s:5232   .debug_str:0000000000000049 .LASF19
C:\Users\stapi\AppData\Local\Temp\cct4hVhk.s:5466   .debug_str:000000000000070d .LASF20
C:\Users\stapi\AppData\Local\Temp\cct4hVhk.s:5344   .debug_str:0000000000000334 .LASF21
C:\Users\stapi\AppData\Local\Temp\cct4hVhk.s:6080   .debug_str:0000000000001c41 .LASF22
C:\Users\stapi\AppData\Local\Temp\cct4hVhk.s:5726   .debug_str:00000000000010e4 .LASF23
C:\Users\stapi\AppData\Local\Temp\cct4hVhk.s:5888   .debug_str:00000000000015e8 .LASF24
C:\Users\stapi\AppData\Local\Temp\cct4hVhk.s:5980   .debug_str:00000000000018f7 .LASF25
C:\Users\stapi\AppData\Local\Temp\cct4hVhk.s:5926   .debug_str:000000000000171d .LASF26
C:\Users\stapi\AppData\Local\Temp\cct4hVhk.s:5712   .debug_str:0000000000001023 .LASF27
C:\Users\stapi\AppData\Local\Temp\cct4hVhk.s:5910   .debug_str:00000000000016bb .LASF28
C:\Users\stapi\AppData\Local\Temp\cct4hVhk.s:6110   .debug_str:0000000000001d56 .LASF29
C:\Users\stapi\AppData\Local\Temp\cct4hVhk.s:5340   .debug_str:0000000000000325 .LASF30
C:\Users\stapi\AppData\Local\Temp\cct4hVhk.s:5602   .debug_str:0000000000000c71 .LASF31
C:\Users\stapi\AppData\Local\Temp\cct4hVhk.s:5548   .debug_str:0000000000000974 .LASF32
C:\Users\stapi\AppData\Local\Temp\cct4hVhk.s:5406   .debug_str:0000000000000524 .LASF33
C:\Users\stapi\AppData\Local\Temp\cct4hVhk.s:5536   .debug_str:000000000000090f .LASF34
C:\Users\stapi\AppData\Local\Temp\cct4hVhk.s:5600   .debug_str:0000000000000c6a .LASF35
C:\Users\stapi\AppData\Local\Temp\cct4hVhk.s:5240   .debug_str:0000000000000073 .LASF36
C:\Users\stapi\AppData\Local\Temp\cct4hVhk.s:6112   .debug_str:0000000000001d5b .LASF37
C:\Users\stapi\AppData\Local\Temp\cct4hVhk.s:5838   .debug_str:000000000000149b .LASF38
C:\Users\stapi\AppData\Local\Temp\cct4hVhk.s:5752   .debug_str:00000000000011c0 .LASF39
C:\Users\stapi\AppData\Local\Temp\cct4hVhk.s:5698   .debug_str:0000000000000fac .LASF40
C:\Users\stapi\AppData\Local\Temp\cct4hVhk.s:5768   .debug_str:0000000000001238 .LASF41
C:\Users\stapi\AppData\Local\Temp\cct4hVhk.s:5440   .debug_str:0000000000000639 .LASF42
C:\Users\stapi\AppData\Local\Temp\cct4hVhk.s:5636   .debug_str:0000000000000d89 .LASF43
C:\Users\stapi\AppData\Local\Temp\cct4hVhk.s:5382   .debug_str:0000000000000483 .LASF44
C:\Users\stapi\AppData\Local\Temp\cct4hVhk.s:6038   .debug_str:0000000000001afb .LASF45
C:\Users\stapi\AppData\Local\Temp\cct4hVhk.s:5742   .debug_str:0000000000001168 .LASF46
C:\Users\stapi\AppData\Local\Temp\cct4hVhk.s:5266   .debug_str:0000000000000115 .LASF47
C:\Users\stapi\AppData\Local\Temp\cct4hVhk.s:5664   .debug_str:0000000000000e65 .LASF48
C:\Users\stapi\AppData\Local\Temp\cct4hVhk.s:5628   .debug_str:0000000000000d3b .LASF49
C:\Users\stapi\AppData\Local\Temp\cct4hVhk.s:6008   .debug_str:00000000000019f6 .LASF50
C:\Users\stapi\AppData\Local\Temp\cct4hVhk.s:5812   .debug_str:00000000000013dc .LASF51
C:\Users\stapi\AppData\Local\Temp\cct4hVhk.s:5836   .debug_str:0000000000001496 .LASF52
C:\Users\stapi\AppData\Local\Temp\cct4hVhk.s:5430   .debug_str:00000000000005e3 .LASF53
C:\Users\stapi\AppData\Local\Temp\cct4hVhk.s:5418   .debug_str:0000000000000592 .LASF54
C:\Users\stapi\AppData\Local\Temp\cct4hVhk.s:5854   .debug_str:00000000000014ea .LASF55
C:\Users\stapi\AppData\Local\Temp\cct4hVhk.s:5754   .debug_str:00000000000011c7 .LASF56
C:\Users\stapi\AppData\Local\Temp\cct4hVhk.s:5622   .debug_str:0000000000000d11 .LASF57
C:\Users\stapi\AppData\Local\Temp\cct4hVhk.s:5258   .debug_str:00000000000000de .LASF58
C:\Users\stapi\AppData\Local\Temp\cct4hVhk.s:5336   .debug_str:0000000000000315 .LASF59
C:\Users\stapi\AppData\Local\Temp\cct4hVhk.s:5820   .debug_str:0000000000001413 .LASF60
C:\Users\stapi\AppData\Local\Temp\cct4hVhk.s:5530   .debug_str:00000000000008ef .LASF61
C:\Users\stapi\AppData\Local\Temp\cct4hVhk.s:5274   .debug_str:0000000000000166 .LASF62
C:\Users\stapi\AppData\Local\Temp\cct4hVhk.s:5322   .debug_str:00000000000002d6 .LASF63
C:\Users\stapi\AppData\Local\Temp\cct4hVhk.s:5480   .debug_str:0000000000000763 .LASF64
C:\Users\stapi\AppData\Local\Temp\cct4hVhk.s:5378   .debug_str:0000000000000464 .LASF65
C:\Users\stapi\AppData\Local\Temp\cct4hVhk.s:5290   .debug_str:00000000000001ed .LASF66
C:\Users\stapi\AppData\Local\Temp\cct4hVhk.s:5900   .debug_str:0000000000001647 .LASF67
C:\Users\stapi\AppData\Local\Temp\cct4hVhk.s:5832   .debug_str:0000000000001473 .LASF68
C:\Users\stapi\AppData\Local\Temp\cct4hVhk.s:5732   .debug_str:000000000000110c .LASF69
C:\Users\stapi\AppData\Local\Temp\cct4hVhk.s:5238   .debug_str:0000000000000065 .LASF70
C:\Users\stapi\AppData\Local\Temp\cct4hVhk.s:5514   .debug_str:000000000000085c .LASF71
C:\Users\stapi\AppData\Local\Temp\cct4hVhk.s:5996   .debug_str:0000000000001995 .LASF72
C:\Users\stapi\AppData\Local\Temp\cct4hVhk.s:5492   .debug_str:00000000000007ba .LASF73
C:\Users\stapi\AppData\Local\Temp\cct4hVhk.s:5488   .debug_str:000000000000079f .LASF74
C:\Users\stapi\AppData\Local\Temp\cct4hVhk.s:5848   .debug_str:00000000000014c3 .LASF75
C:\Users\stapi\AppData\Local\Temp\cct4hVhk.s:5472   .debug_str:000000000000073e .LASF76
C:\Users\stapi\AppData\Local\Temp\cct4hVhk.s:6010   .debug_str:00000000000019ff .LASF77
C:\Users\stapi\AppData\Local\Temp\cct4hVhk.s:5988   .debug_str:000000000000194b .LASF78
C:\Users\stapi\AppData\Local\Temp\cct4hVhk.s:5342   .debug_str:000000000000032b .LASF79
C:\Users\stapi\AppData\Local\Temp\cct4hVhk.s:5984   .debug_str:000000000000192f .LASF80
C:\Users\stapi\AppData\Local\Temp\cct4hVhk.s:5852   .debug_str:00000000000014dc .LASF81
C:\Users\stapi\AppData\Local\Temp\cct4hVhk.s:5494   .debug_str:00000000000007c3 .LASF82
C:\Users\stapi\AppData\Local\Temp\cct4hVhk.s:5844   .debug_str:00000000000014b2 .LASF83
C:\Users\stapi\AppData\Local\Temp\cct4hVhk.s:5860   .debug_str:0000000000001524 .LASF84
C:\Users\stapi\AppData\Local\Temp\cct4hVhk.s:5750   .debug_str:00000000000011ba .LASF85
C:\Users\stapi\AppData\Local\Temp\cct4hVhk.s:5850   .debug_str:00000000000014cd .LASF86
C:\Users\stapi\AppData\Local\Temp\cct4hVhk.s:5538   .debug_str:0000000000000918 .LASF87
C:\Users\stapi\AppData\Local\Temp\cct4hVhk.s:5638   .debug_str:0000000000000d92 .LASF88
C:\Users\stapi\AppData\Local\Temp\cct4hVhk.s:5346   .debug_str:000000000000033c .LASF89
C:\Users\stapi\AppData\Local\Temp\cct4hVhk.s:5280   .debug_str:000000000000019e .LASF90
C:\Users\stapi\AppData\Local\Temp\cct4hVhk.s:6100   .debug_str:0000000000001cf0 .LASF91
C:\Users\stapi\AppData\Local\Temp\cct4hVhk.s:6050   .debug_str:0000000000001b38 .LASF92
C:\Users\stapi\AppData\Local\Temp\cct4hVhk.s:5964   .debug_str:000000000000186f .LASF93
C:\Users\stapi\AppData\Local\Temp\cct4hVhk.s:5604   .debug_str:0000000000000c79 .LASF94
C:\Users\stapi\AppData\Local\Temp\cct4hVhk.s:5284   .debug_str:00000000000001bf .LASF95
C:\Users\stapi\AppData\Local\Temp\cct4hVhk.s:5986   .debug_str:0000000000001940 .LASF96
C:\Users\stapi\AppData\Local\Temp\cct4hVhk.s:6118   .debug_str:0000000000001d7c .LASF97
C:\Users\stapi\AppData\Local\Temp\cct4hVhk.s:6124   .debug_str:0000000000001da1 .LASF98
C:\Users\stapi\AppData\Local\Temp\cct4hVhk.s:5822   .debug_str:000000000000141d .LASF99
C:\Users\stapi\AppData\Local\Temp\cct4hVhk.s:5562   .debug_str:00000000000009cb .LASF100
C:\Users\stapi\AppData\Local\Temp\cct4hVhk.s:5724   .debug_str:00000000000010d7 .LASF101
C:\Users\stapi\AppData\Local\Temp\cct4hVhk.s:5330   .debug_str:00000000000002f8 .LASF102
C:\Users\stapi\AppData\Local\Temp\cct4hVhk.s:5886   .debug_str:00000000000015da .LASF103
C:\Users\stapi\AppData\Local\Temp\cct4hVhk.s:6034   .debug_str:0000000000001ad0 .LASF104
C:\Users\stapi\AppData\Local\Temp\cct4hVhk.s:5762   .debug_str:0000000000001210 .LASF105
C:\Users\stapi\AppData\Local\Temp\cct4hVhk.s:5730   .debug_str:00000000000010fa .LASF106
C:\Users\stapi\AppData\Local\Temp\cct4hVhk.s:5630   .debug_str:0000000000000d47 .LASF107
C:\Users\stapi\AppData\Local\Temp\cct4hVhk.s:5660   .debug_str:0000000000000e35 .LASF108
C:\Users\stapi\AppData\Local\Temp\cct4hVhk.s:6116   .debug_str:0000000000001d6b .LASF109
C:\Users\stapi\AppData\Local\Temp\cct4hVhk.s:6016   .debug_str:0000000000001a31 .LASF110
C:\Users\stapi\AppData\Local\Temp\cct4hVhk.s:5310   .debug_str:0000000000000278 .LASF111
C:\Users\stapi\AppData\Local\Temp\cct4hVhk.s:5936   .debug_str:0000000000001766 .LASF112
C:\Users\stapi\AppData\Local\Temp\cct4hVhk.s:5608   .debug_str:0000000000000c94 .LASF113
C:\Users\stapi\AppData\Local\Temp\cct4hVhk.s:6066   .debug_str:0000000000001bca .LASF114
C:\Users\stapi\AppData\Local\Temp\cct4hVhk.s:5292   .debug_str:00000000000001fc .LASF115
C:\Users\stapi\AppData\Local\Temp\cct4hVhk.s:5994   .debug_str:0000000000001988 .LASF116
C:\Users\stapi\AppData\Local\Temp\cct4hVhk.s:6004   .debug_str:00000000000019e0 .LASF117
C:\Users\stapi\AppData\Local\Temp\cct4hVhk.s:5504   .debug_str:00000000000007ff .LASF118
C:\Users\stapi\AppData\Local\Temp\cct4hVhk.s:5794   .debug_str:000000000000130e .LASF119
C:\Users\stapi\AppData\Local\Temp\cct4hVhk.s:5818   .debug_str:00000000000013fe .LASF120
C:\Users\stapi\AppData\Local\Temp\cct4hVhk.s:5920   .debug_str:00000000000016fd .LASF121
C:\Users\stapi\AppData\Local\Temp\cct4hVhk.s:6128   .debug_str:0000000000001dcc .LASF122
C:\Users\stapi\AppData\Local\Temp\cct4hVhk.s:5784   .debug_str:00000000000012d0 .LASF123
C:\Users\stapi\AppData\Local\Temp\cct4hVhk.s:5354   .debug_str:000000000000038f .LASF124
C:\Users\stapi\AppData\Local\Temp\cct4hVhk.s:5612   .debug_str:0000000000000cb4 .LASF125
C:\Users\stapi\AppData\Local\Temp\cct4hVhk.s:5532   .debug_str:00000000000008f9 .LASF126
C:\Users\stapi\AppData\Local\Temp\cct4hVhk.s:5550   .debug_str:000000000000097c .LASF127
C:\Users\stapi\AppData\Local\Temp\cct4hVhk.s:5320   .debug_str:00000000000002c6 .LASF128
C:\Users\stapi\AppData\Local\Temp\cct4hVhk.s:5906   .debug_str:0000000000001683 .LASF129
C:\Users\stapi\AppData\Local\Temp\cct4hVhk.s:5640   .debug_str:0000000000000d9c .LASF130
C:\Users\stapi\AppData\Local\Temp\cct4hVhk.s:5424   .debug_str:00000000000005b6 .LASF131
C:\Users\stapi\AppData\Local\Temp\cct4hVhk.s:5404   .debug_str:0000000000000517 .LASF132
C:\Users\stapi\AppData\Local\Temp\cct4hVhk.s:5632   .debug_str:0000000000000d5b .LASF133
C:\Users\stapi\AppData\Local\Temp\cct4hVhk.s:5360   .debug_str:00000000000003c9 .LASF134
C:\Users\stapi\AppData\Local\Temp\cct4hVhk.s:5706   .debug_str:0000000000000ff5 .LASF135
C:\Users\stapi\AppData\Local\Temp\cct4hVhk.s:5496   .debug_str:00000000000007c9 .LASF136
C:\Users\stapi\AppData\Local\Temp\cct4hVhk.s:5326   .debug_str:00000000000002eb .LASF137
C:\Users\stapi\AppData\Local\Temp\cct4hVhk.s:5884   .debug_str:00000000000015d5 .LASF138
C:\Users\stapi\AppData\Local\Temp\cct4hVhk.s:5928   .debug_str:0000000000001722 .LASF139
C:\Users\stapi\AppData\Local\Temp\cct4hVhk.s:5306   .debug_str:0000000000000269 .LASF140
C:\Users\stapi\AppData\Local\Temp\cct4hVhk.s:5758   .debug_str:00000000000011f6 .LASF141
C:\Users\stapi\AppData\Local\Temp\cct4hVhk.s:5552   .debug_str:0000000000000988 .LASF142
C:\Users\stapi\AppData\Local\Temp\cct4hVhk.s:6068   .debug_str:0000000000001bdc .LASF143
C:\Users\stapi\AppData\Local\Temp\cct4hVhk.s:6024   .debug_str:0000000000001a7a .LASF144
C:\Users\stapi\AppData\Local\Temp\cct4hVhk.s:5288   .debug_str:00000000000001e2 .LASF145
C:\Users\stapi\AppData\Local\Temp\cct4hVhk.s:5244   .debug_str:0000000000000088 .LASF146
C:\Users\stapi\AppData\Local\Temp\cct4hVhk.s:5446   .debug_str:0000000000000670 .LASF147
C:\Users\stapi\AppData\Local\Temp\cct4hVhk.s:6062   .debug_str:0000000000001bb4 .LASF148
C:\Users\stapi\AppData\Local\Temp\cct4hVhk.s:5474   .debug_str:0000000000000747 .LASF149
C:\Users\stapi\AppData\Local\Temp\cct4hVhk.s:5296   .debug_str:0000000000000221 .LASF150
C:\Users\stapi\AppData\Local\Temp\cct4hVhk.s:6106   .debug_str:0000000000001d41 .LASF151
C:\Users\stapi\AppData\Local\Temp\cct4hVhk.s:5720   .debug_str:000000000000104e .LASF152
C:\Users\stapi\AppData\Local\Temp\cct4hVhk.s:5714   .debug_str:0000000000001028 .LASF153
C:\Users\stapi\AppData\Local\Temp\cct4hVhk.s:5958   .debug_str:0000000000001834 .LASF154
C:\Users\stapi\AppData\Local\Temp\cct4hVhk.s:5922   .debug_str:0000000000001710 .LASF155
C:\Users\stapi\AppData\Local\Temp\cct4hVhk.s:5460   .debug_str:00000000000006d4 .LASF156
C:\Users\stapi\AppData\Local\Temp\cct4hVhk.s:5610   .debug_str:0000000000000ca4 .LASF157
C:\Users\stapi\AppData\Local\Temp\cct4hVhk.s:6098   .debug_str:0000000000001cea .LASF158
C:\Users\stapi\AppData\Local\Temp\cct4hVhk.s:5764   .debug_str:0000000000001222 .LASF159
C:\Users\stapi\AppData\Local\Temp\cct4hVhk.s:5478   .debug_str:0000000000000758 .LASF160
C:\Users\stapi\AppData\Local\Temp\cct4hVhk.s:5356   .debug_str:0000000000000398 .LASF161
C:\Users\stapi\AppData\Local\Temp\cct4hVhk.s:5246   .debug_str:0000000000000092 .LASF162
C:\Users\stapi\AppData\Local\Temp\cct4hVhk.s:5946   .debug_str:00000000000017e0 .LASF163
C:\Users\stapi\AppData\Local\Temp\cct4hVhk.s:5454   .debug_str:00000000000006ab .LASF164
C:\Users\stapi\AppData\Local\Temp\cct4hVhk.s:5316   .debug_str:00000000000002a9 .LASF165
C:\Users\stapi\AppData\Local\Temp\cct4hVhk.s:5300   .debug_str:0000000000000236 .LASF166
C:\Users\stapi\AppData\Local\Temp\cct4hVhk.s:5422   .debug_str:00000000000005ae .LASF167
C:\Users\stapi\AppData\Local\Temp\cct4hVhk.s:5866   .debug_str:0000000000001551 .LASF168
C:\Users\stapi\AppData\Local\Temp\cct4hVhk.s:5684   .debug_str:0000000000000f2b .LASF169
C:\Users\stapi\AppData\Local\Temp\cct4hVhk.s:5242   .debug_str:000000000000007e .LASF170
C:\Users\stapi\AppData\Local\Temp\cct4hVhk.s:5518   .debug_str:0000000000000880 .LASF171
C:\Users\stapi\AppData\Local\Temp\cct4hVhk.s:5374   .debug_str:0000000000000454 .LASF172
C:\Users\stapi\AppData\Local\Temp\cct4hVhk.s:5734   .debug_str:0000000000001111 .LASF173
C:\Users\stapi\AppData\Local\Temp\cct4hVhk.s:5262   .debug_str:00000000000000f9 .LASF174
C:\Users\stapi\AppData\Local\Temp\cct4hVhk.s:6052   .debug_str:0000000000001b44 .LASF175
C:\Users\stapi\AppData\Local\Temp\cct4hVhk.s:5560   .debug_str:00000000000009bf .LASF176
C:\Users\stapi\AppData\Local\Temp\cct4hVhk.s:5372   .debug_str:000000000000044f .LASF177
C:\Users\stapi\AppData\Local\Temp\cct4hVhk.s:5386   .debug_str:0000000000000497 .LASF178
C:\Users\stapi\AppData\Local\Temp\cct4hVhk.s:6130   .debug_str:0000000000001ddb .LASF179
C:\Users\stapi\AppData\Local\Temp\cct4hVhk.s:5308   .debug_str:0000000000000272 .LASF180
C:\Users\stapi\AppData\Local\Temp\cct4hVhk.s:5862   .debug_str:000000000000152f .LASF181
C:\Users\stapi\AppData\Local\Temp\cct4hVhk.s:6022   .debug_str:0000000000001a6e .LASF182
C:\Users\stapi\AppData\Local\Temp\cct4hVhk.s:5456   .debug_str:00000000000006b3 .LASF183
C:\Users\stapi\AppData\Local\Temp\cct4hVhk.s:5968   .debug_str:000000000000189c .LASF184
C:\Users\stapi\AppData\Local\Temp\cct4hVhk.s:5450   .debug_str:0000000000000695 .LASF185
C:\Users\stapi\AppData\Local\Temp\cct4hVhk.s:5746   .debug_str:000000000000119e .LASF186
C:\Users\stapi\AppData\Local\Temp\cct4hVhk.s:5544   .debug_str:0000000000000951 .LASF187
C:\Users\stapi\AppData\Local\Temp\cct4hVhk.s:5786   .debug_str:00000000000012d8 .LASF188
C:\Users\stapi\AppData\Local\Temp\cct4hVhk.s:6076   .debug_str:0000000000001c28 .LASF189
C:\Users\stapi\AppData\Local\Temp\cct4hVhk.s:5970   .debug_str:00000000000018a6 .LASF190
C:\Users\stapi\AppData\Local\Temp\cct4hVhk.s:5882   .debug_str:00000000000015cd .LASF191
C:\Users\stapi\AppData\Local\Temp\cct4hVhk.s:5978   .debug_str:00000000000018ef .LASF192
C:\Users\stapi\AppData\Local\Temp\cct4hVhk.s:5462   .debug_str:00000000000006da .LASF193
C:\Users\stapi\AppData\Local\Temp\cct4hVhk.s:5272   .debug_str:000000000000015a .LASF194
C:\Users\stapi\AppData\Local\Temp\cct4hVhk.s:5976   .debug_str:00000000000018e2 .LASF195
C:\Users\stapi\AppData\Local\Temp\cct4hVhk.s:5432   .debug_str:00000000000005f2 .LASF196
C:\Users\stapi\AppData\Local\Temp\cct4hVhk.s:6078   .debug_str:0000000000001c36 .LASF197
C:\Users\stapi\AppData\Local\Temp\cct4hVhk.s:5540   .debug_str:0000000000000926 .LASF198
C:\Users\stapi\AppData\Local\Temp\cct4hVhk.s:6044   .debug_str:0000000000001b15 .LASF199
C:\Users\stapi\AppData\Local\Temp\cct4hVhk.s:5348   .debug_str:000000000000034d .LASF200
C:\Users\stapi\AppData\Local\Temp\cct4hVhk.s:6046   .debug_str:0000000000001b1f .LASF201
C:\Users\stapi\AppData\Local\Temp\cct4hVhk.s:5680   .debug_str:0000000000000f09 .LASF202
C:\Users\stapi\AppData\Local\Temp\cct4hVhk.s:5526   .debug_str:00000000000008c4 .LASF203
C:\Users\stapi\AppData\Local\Temp\cct4hVhk.s:5328   .debug_str:00000000000002f0 .LASF204
C:\Users\stapi\AppData\Local\Temp\cct4hVhk.s:5810   .debug_str:00000000000013d3 .LASF205
C:\Users\stapi\AppData\Local\Temp\cct4hVhk.s:5918   .debug_str:00000000000016f1 .LASF206
C:\Users\stapi\AppData\Local\Temp\cct4hVhk.s:5554   .debug_str:0000000000000990 .LASF207
C:\Users\stapi\AppData\Local\Temp\cct4hVhk.s:5916   .debug_str:00000000000016e2 .LASF208
C:\Users\stapi\AppData\Local\Temp\cct4hVhk.s:5842   .debug_str:00000000000014ab .LASF209
C:\Users\stapi\AppData\Local\Temp\cct4hVhk.s:5510   .debug_str:0000000000000833 .LASF210
C:\Users\stapi\AppData\Local\Temp\cct4hVhk.s:6070   .debug_str:0000000000001beb .LASF211
C:\Users\stapi\AppData\Local\Temp\cct4hVhk.s:5676   .debug_str:0000000000000ed2 .LASF212
C:\Users\stapi\AppData\Local\Temp\cct4hVhk.s:5890   .debug_str:00000000000015ee .LASF213
C:\Users\stapi\AppData\Local\Temp\cct4hVhk.s:5646   .debug_str:0000000000000dd3 .LASF214
C:\Users\stapi\AppData\Local\Temp\cct4hVhk.s:5748   .debug_str:00000000000011a5 .LASF215
C:\Users\stapi\AppData\Local\Temp\cct4hVhk.s:5864   .debug_str:000000000000153c .LASF216
C:\Users\stapi\AppData\Local\Temp\cct4hVhk.s:5870   .debug_str:0000000000001583 .LASF217
C:\Users\stapi\AppData\Local\Temp\cct4hVhk.s:5452   .debug_str:000000000000069d .LASF218
C:\Users\stapi\AppData\Local\Temp\cct4hVhk.s:5590   .debug_str:0000000000000bf1 .LASF219
C:\Users\stapi\AppData\Local\Temp\cct4hVhk.s:6084   .debug_str:0000000000001c5d .LASF220
C:\Users\stapi\AppData\Local\Temp\cct4hVhk.s:5584   .debug_str:0000000000000ad8 .LASF221
C:\Users\stapi\AppData\Local\Temp\cct4hVhk.s:5728   .debug_str:00000000000010ea .LASF222
C:\Users\stapi\AppData\Local\Temp\cct4hVhk.s:5324   .debug_str:00000000000002e2 .LASF223
C:\Users\stapi\AppData\Local\Temp\cct4hVhk.s:5226   .debug_str:000000000000002e .LASF224
C:\Users\stapi\AppData\Local\Temp\cct4hVhk.s:5656   .debug_str:0000000000000e18 .LASF225
C:\Users\stapi\AppData\Local\Temp\cct4hVhk.s:5398   .debug_str:00000000000004e7 .LASF226
C:\Users\stapi\AppData\Local\Temp\cct4hVhk.s:5912   .debug_str:00000000000016c8 .LASF227
C:\Users\stapi\AppData\Local\Temp\cct4hVhk.s:5670   .debug_str:0000000000000ea6 .LASF228
C:\Users\stapi\AppData\Local\Temp\cct4hVhk.s:5878   .debug_str:00000000000015b7 .LASF229
C:\Users\stapi\AppData\Local\Temp\cct4hVhk.s:5578   .debug_str:0000000000000ac4 .LASF230
C:\Users\stapi\AppData\Local\Temp\cct4hVhk.s:5420   .debug_str:000000000000059c .LASF231
C:\Users\stapi\AppData\Local\Temp\cct4hVhk.s:5690   .debug_str:0000000000000f6a .LASF232
C:\Users\stapi\AppData\Local\Temp\cct4hVhk.s:5778   .debug_str:00000000000012a5 .LASF233
C:\Users\stapi\AppData\Local\Temp\cct4hVhk.s:6092   .debug_str:0000000000001cb6 .LASF234
C:\Users\stapi\AppData\Local\Temp\cct4hVhk.s:5282   .debug_str:00000000000001b1 .LASF235
C:\Users\stapi\AppData\Local\Temp\cct4hVhk.s:5770   .debug_str:0000000000001242 .LASF236
C:\Users\stapi\AppData\Local\Temp\cct4hVhk.s:5948   .debug_str:00000000000017ed .LASF237
C:\Users\stapi\AppData\Local\Temp\cct4hVhk.s:5620   .debug_str:0000000000000d00 .LASF238
C:\Users\stapi\AppData\Local\Temp\cct4hVhk.s:5624   .debug_str:0000000000000d1f .LASF239
C:\Users\stapi\AppData\Local\Temp\cct4hVhk.s:5782   .debug_str:00000000000012c8 .LASF240
C:\Users\stapi\AppData\Local\Temp\cct4hVhk.s:5588   .debug_str:0000000000000be3 .LASF241
C:\Users\stapi\AppData\Local\Temp\cct4hVhk.s:5826   .debug_str:0000000000001447 .LASF242
C:\Users\stapi\AppData\Local\Temp\cct4hVhk.s:6064   .debug_str:0000000000001bba .LASF247
C:\Users\stapi\AppData\Local\Temp\cct4hVhk.s:5930   .debug_str:000000000000172f .LASF243
C:\Users\stapi\AppData\Local\Temp\cct4hVhk.s:5256   .debug_str:00000000000000cd .LASF244
C:\Users\stapi\AppData\Local\Temp\cct4hVhk.s:5760   .debug_str:00000000000011ff .LASF245
C:\Users\stapi\AppData\Local\Temp\cct4hVhk.s:5718   .debug_str:000000000000103d .LASF246
C:\Users\stapi\AppData\Local\Temp\cct4hVhk.s:6014   .debug_str:0000000000001a26 .LASF248
C:\Users\stapi\AppData\Local\Temp\cct4hVhk.s:5914   .debug_str:00000000000016d5 .LASF249
C:\Users\stapi\AppData\Local\Temp\cct4hVhk.s:5814   .debug_str:00000000000013e8 .LASF250
C:\Users\stapi\AppData\Local\Temp\cct4hVhk.s:5572   .debug_str:0000000000000a23 .LASF251
C:\Users\stapi\AppData\Local\Temp\cct4hVhk.s:5856   .debug_str:00000000000014f2 .LASF252
C:\Users\stapi\AppData\Local\Temp\cct4hVhk.s:5400   .debug_str:00000000000004f4 .LASF253
C:\Users\stapi\AppData\Local\Temp\cct4hVhk.s:5642   .debug_str:0000000000000daf .LASF254
C:\Users\stapi\AppData\Local\Temp\cct4hVhk.s:5880   .debug_str:00000000000015bf .LASF255
C:\Users\stapi\AppData\Local\Temp\cct4hVhk.s:5498   .debug_str:00000000000007d4 .LASF256
C:\Users\stapi\AppData\Local\Temp\cct4hVhk.s:5220   .debug_str:0000000000000000 .LASF257
C:\Users\stapi\AppData\Local\Temp\cct4hVhk.s:5222   .debug_str:0000000000000010 .LASF258
C:\Users\stapi\AppData\Local\Temp\cct4hVhk.s:5872   .debug_str:000000000000158f .LASF259
C:\Users\stapi\AppData\Local\Temp\cct4hVhk.s:6088   .debug_str:0000000000001c8d .LASF260
C:\Users\stapi\AppData\Local\Temp\cct4hVhk.s:5366   .debug_str:0000000000000403 .LASF261
C:\Users\stapi\AppData\Local\Temp\cct4hVhk.s:5482   .debug_str:000000000000076e .LASF262
C:\Users\stapi\AppData\Local\Temp\cct4hVhk.s:5824   .debug_str:000000000000142e .LASF263
C:\Users\stapi\AppData\Local\Temp\cct4hVhk.s:5614   .debug_str:0000000000000cbe .LASF264
C:\Users\stapi\AppData\Local\Temp\cct4hVhk.s:6020   .debug_str:0000000000001a56 .LASF265
C:\Users\stapi\AppData\Local\Temp\cct4hVhk.s:5780   .debug_str:00000000000012af .LASF266
C:\Users\stapi\AppData\Local\Temp\cct4hVhk.s:6036   .debug_str:0000000000001ae0 .LASF267
C:\Users\stapi\AppData\Local\Temp\cct4hVhk.s:5738   .debug_str:0000000000001134 .LASF268
C:\Users\stapi\AppData\Local\Temp\cct4hVhk.s:5704   .debug_str:0000000000000fdc .LASF269
C:\Users\stapi\AppData\Local\Temp\cct4hVhk.s:5516   .debug_str:0000000000000865 .LASF270
C:\Users\stapi\AppData\Local\Temp\cct4hVhk.s:5700   .debug_str:0000000000000fb9 .LASF271
C:\Users\stapi\AppData\Local\Temp\cct4hVhk.s:5798   .debug_str:0000000000001331 .LASF272
C:\Users\stapi\AppData\Local\Temp\cct4hVhk.s:6094   .debug_str:0000000000001cc1 .LASF273
C:\Users\stapi\AppData\Local\Temp\cct4hVhk.s:5708   .debug_str:0000000000000ffd .LASF274
C:\Users\stapi\AppData\Local\Temp\cct4hVhk.s:6086   .debug_str:0000000000001c6f .LASF275
C:\Users\stapi\AppData\Local\Temp\cct4hVhk.s:5894   .debug_str:000000000000160a .LASF276
C:\Users\stapi\AppData\Local\Temp\cct4hVhk.s:5662   .debug_str:0000000000000e48 .LASF277
C:\Users\stapi\AppData\Local\Temp\cct4hVhk.s:5542   .debug_str:0000000000000932 .LASF278
C:\Users\stapi\AppData\Local\Temp\cct4hVhk.s:5858   .debug_str:0000000000001502 .LASF279
C:\Users\stapi\AppData\Local\Temp\cct4hVhk.s:5438   .debug_str:000000000000061b .LASF280
C:\Users\stapi\AppData\Local\Temp\cct4hVhk.s:5960   .debug_str:0000000000001840 .LASF281
C:\Users\stapi\AppData\Local\Temp\cct4hVhk.s:5908   .debug_str:0000000000001694 .LASF282
C:\Users\stapi\AppData\Local\Temp\cct4hVhk.s:5772   .debug_str:0000000000001253 .LASF283
C:\Users\stapi\AppData\Local\Temp\cct4hVhk.s:5350   .debug_str:0000000000000357 .LASF284
C:\Users\stapi\AppData\Local\Temp\cct4hVhk.s:5688   .debug_str:0000000000000f49 .LASF285
C:\Users\stapi\AppData\Local\Temp\cct4hVhk.s:5804   .debug_str:000000000000137a .LASF286
C:\Users\stapi\AppData\Local\Temp\cct4hVhk.s:5756   .debug_str:00000000000011d4 .LASF287
C:\Users\stapi\AppData\Local\Temp\cct4hVhk.s:5594   .debug_str:0000000000000c12 .LASF288
C:\Users\stapi\AppData\Local\Temp\cct4hVhk.s:5902   .debug_str:0000000000001650 .LASF289
C:\Users\stapi\AppData\Local\Temp\cct4hVhk.s:5358   .debug_str:00000000000003a2 .LASF290
C:\Users\stapi\AppData\Local\Temp\cct4hVhk.s:5270   .debug_str:0000000000000137 .LASF291
C:\Users\stapi\AppData\Local\Temp\cct4hVhk.s:6104   .debug_str:0000000000001d17 .LASF292
C:\Users\stapi\AppData\Local\Temp\cct4hVhk.s:5944   .debug_str:00000000000017bb .LASF293
C:\Users\stapi\AppData\Local\Temp\cct4hVhk.s:6018   .debug_str:0000000000001a3e .LASF294
C:\Users\stapi\AppData\Local\Temp\cct4hVhk.s:5998   .debug_str:000000000000199e .LASF295
C:\Users\stapi\AppData\Local\Temp\cct4hVhk.s:5302   .debug_str:0000000000000242 .LASF296
C:\Users\stapi\AppData\Local\Temp\cct4hVhk.s:5412   .debug_str:0000000000000562 .LASF297
C:\Users\stapi\AppData\Local\Temp\cct4hVhk.s:5286   .debug_str:00000000000001c8 .LASF298
C:\Users\stapi\AppData\Local\Temp\cct4hVhk.s:5388   .debug_str:00000000000004a1 .LASF299
C:\Users\stapi\AppData\Local\Temp\cct4hVhk.s:5672   .debug_str:0000000000000eba .LASF300
C:\Users\stapi\AppData\Local\Temp\cct4hVhk.s:5790   .debug_str:00000000000012f2 .LASF301
C:\Users\stapi\AppData\Local\Temp\cct4hVhk.s:5428   .debug_str:00000000000005dc .LASF302
C:\Users\stapi\AppData\Local\Temp\cct4hVhk.s:5694   .debug_str:0000000000000f8e .LASF303
C:\Users\stapi\AppData\Local\Temp\cct4hVhk.s:6002   .debug_str:00000000000019cc .LASF304
C:\Users\stapi\AppData\Local\Temp\cct4hVhk.s:5792   .debug_str:00000000000012fc .LASF305
C:\Users\stapi\AppData\Local\Temp\cct4hVhk.s:5332   .debug_str:0000000000000305 .LASF306
C:\Users\stapi\AppData\Local\Temp\cct4hVhk.s:5426   .debug_str:00000000000005c1 .LASF307
C:\Users\stapi\AppData\Local\Temp\cct4hVhk.s:5618   .debug_str:0000000000000ce6 .LASF308
C:\Users\stapi\AppData\Local\Temp\cct4hVhk.s:5522   .debug_str:00000000000008a5 .LASF309
C:\Users\stapi\AppData\Local\Temp\cct4hVhk.s:5650   .debug_str:0000000000000dea .LASF310
C:\Users\stapi\AppData\Local\Temp\cct4hVhk.s:5506   .debug_str:0000000000000814 .LASF311
C:\Users\stapi\AppData\Local\Temp\cct4hVhk.s:5248   .debug_str:000000000000009d .LASF312
C:\Users\stapi\AppData\Local\Temp\cct4hVhk.s:6060   .debug_str:0000000000001b99 .LASF313
C:\Users\stapi\AppData\Local\Temp\cct4hVhk.s:6126   .debug_str:0000000000001db2 .LASF314
C:\Users\stapi\AppData\Local\Temp\cct4hVhk.s:5314   .debug_str:0000000000000295 .LASF315
C:\Users\stapi\AppData\Local\Temp\cct4hVhk.s:5396   .debug_str:00000000000004d4 .LASF316
C:\Users\stapi\AppData\Local\Temp\cct4hVhk.s:5390   .debug_str:00000000000004aa .LASF317
C:\Users\stapi\AppData\Local\Temp\cct4hVhk.s:5236   .debug_str:0000000000000059 .LASF318
C:\Users\stapi\AppData\Local\Temp\cct4hVhk.s:6120   .debug_str:0000000000001d86 .LASF319
C:\Users\stapi\AppData\Local\Temp\cct4hVhk.s:5556   .debug_str:00000000000009a2 .LASF320
C:\Users\stapi\AppData\Local\Temp\cct4hVhk.s:6032   .debug_str:0000000000001ab8 .LASF321
C:\Users\stapi\AppData\Local\Temp\cct4hVhk.s:5524   .debug_str:00000000000008b3 .LASF322
C:\Users\stapi\AppData\Local\Temp\cct4hVhk.s:5874   .debug_str:000000000000159f .LASF323
C:\Users\stapi\AppData\Local\Temp\cct4hVhk.s:6108   .debug_str:0000000000001d4d .LASF324
C:\Users\stapi\AppData\Local\Temp\cct4hVhk.s:5364   .debug_str:00000000000003ed .LASF325
C:\Users\stapi\AppData\Local\Temp\cct4hVhk.s:5592   .debug_str:0000000000000c01 .LASF326
C:\Users\stapi\AppData\Local\Temp\cct4hVhk.s:6114   .debug_str:0000000000001d60 .LASF327
C:\Users\stapi\AppData\Local\Temp\cct4hVhk.s:6042   .debug_str:0000000000001b0c .LASF328
C:\Users\stapi\AppData\Local\Temp\cct4hVhk.s:5808   .debug_str:00000000000013bd .LASF329
C:\Users\stapi\AppData\Local\Temp\cct4hVhk.s:5580   .debug_str:0000000000000acd .LASF330
C:\Users\stapi\AppData\Local\Temp\cct4hVhk.s:5828   .debug_str:000000000000144e .LASF331
C:\Users\stapi\AppData\Local\Temp\cct4hVhk.s:6074   .debug_str:0000000000001c0b .LASF332
C:\Users\stapi\AppData\Local\Temp\cct4hVhk.s:5954   .debug_str:000000000000181d .LASF333
C:\Users\stapi\AppData\Local\Temp\cct4hVhk.s:6028   .debug_str:0000000000001a96 .LASF334
C:\Users\stapi\AppData\Local\Temp\cct4hVhk.s:5260   .debug_str:00000000000000e8 .LASF335
C:\Users\stapi\AppData\Local\Temp\cct4hVhk.s:5470   .debug_str:0000000000000727 .LASF336
C:\Users\stapi\AppData\Local\Temp\cct4hVhk.s:6048   .debug_str:0000000000001b26 .LASF337
C:\Users\stapi\AppData\Local\Temp\cct4hVhk.s:5278   .debug_str:0000000000000187 .LASF338
C:\Users\stapi\AppData\Local\Temp\cct4hVhk.s:5668   .debug_str:0000000000000e8c .LASF339
C:\Users\stapi\AppData\Local\Temp\cct4hVhk.s:5448   .debug_str:0000000000000679 .LASF340
C:\Users\stapi\AppData\Local\Temp\cct4hVhk.s:6058   .debug_str:0000000000001b83 .LASF341
C:\Users\stapi\AppData\Local\Temp\cct4hVhk.s:5410   .debug_str:0000000000000549 .LASF342
C:\Users\stapi\AppData\Local\Temp\cct4hVhk.s:5696   .debug_str:0000000000000f96 .LASF343
C:\Users\stapi\AppData\Local\Temp\cct4hVhk.s:6102   .debug_str:0000000000001d01 .LASF344
C:\Users\stapi\AppData\Local\Temp\cct4hVhk.s:5442   .debug_str:0000000000000647 .LASF345
C:\Users\stapi\AppData\Local\Temp\cct4hVhk.s:5598   .debug_str:0000000000000c50 .LASF346
C:\Users\stapi\AppData\Local\Temp\cct4hVhk.s:6012   .debug_str:0000000000001a0c .LASF347
C:\Users\stapi\AppData\Local\Temp\cct4hVhk.s:5512   .debug_str:0000000000000843 .LASF348
C:\Users\stapi\AppData\Local\Temp\cct4hVhk.s:5596   .debug_str:0000000000000c35 .LASF349
C:\Users\stapi\AppData\Local\Temp\cct4hVhk.s:5368   .debug_str:000000000000041a .LASF350
C:\Users\stapi\AppData\Local\Temp\cct4hVhk.s:5938   .debug_str:0000000000001776 .LASF351
C:\Users\stapi\AppData\Local\Temp\cct4hVhk.s:5264   .debug_str:00000000000000ff .LASF352
C:\Users\stapi\AppData\Local\Temp\cct4hVhk.s:5990   .debug_str:0000000000001958 .LASF353
C:\Users\stapi\AppData\Local\Temp\cct4hVhk.s:5464   .debug_str:00000000000006e8 .LASF354
C:\Users\stapi\AppData\Local\Temp\cct4hVhk.s:5806   .debug_str:000000000000139f .LASF355
C:\Users\stapi\AppData\Local\Temp\cct4hVhk.s:5744   .debug_str:0000000000001177 .LASF356
C:\Users\stapi\AppData\Local\Temp\cct4hVhk.s:5932   .debug_str:0000000000001740 .LASF357
C:\Users\stapi\AppData\Local\Temp\cct4hVhk.s:5868   .debug_str:0000000000001562 .LASF358
C:\Users\stapi\AppData\Local\Temp\cct4hVhk.s:5568   .debug_str:00000000000009f5 .LASF359
C:\Users\stapi\AppData\Local\Temp\cct4hVhk.s:5268   .debug_str:000000000000011d .LASF360
C:\Users\stapi\AppData\Local\Temp\cct4hVhk.s:6056   .debug_str:0000000000001b6b .LASF361
C:\Users\stapi\AppData\Local\Temp\cct4hVhk.s:5644   .debug_str:0000000000000dbe .LASF362
C:\Users\stapi\AppData\Local\Temp\cct4hVhk.s:5796   .debug_str:0000000000001314 .LASF363
C:\Users\stapi\AppData\Local\Temp\cct4hVhk.s:5830   .debug_str:0000000000001466 .LASF364
C:\Users\stapi\AppData\Local\Temp\cct4hVhk.s:5380   .debug_str:000000000000046e .LASF365
C:\Users\stapi\AppData\Local\Temp\cct4hVhk.s:5318   .debug_str:00000000000002b3 .LASF366
C:\Users\stapi\AppData\Local\Temp\cct4hVhk.s:5674   .debug_str:0000000000000ec5 .LASF367
C:\Users\stapi\AppData\Local\Temp\cct4hVhk.s:5486   .debug_str:000000000000078f .LASF368
C:\Users\stapi\AppData\Local\Temp\cct4hVhk.s:5558   .debug_str:00000000000009ab .LASF369
C:\Users\stapi\AppData\Local\Temp\cct4hVhk.s:5974   .debug_str:00000000000018cb .LASF370
C:\Users\stapi\AppData\Local\Temp\cct4hVhk.s:5740   .debug_str:000000000000114f .LASF371
C:\Users\stapi\AppData\Local\Temp\cct4hVhk.s:5950   .debug_str:00000000000017fb .LASF372
C:\Users\stapi\AppData\Local\Temp\cct4hVhk.s:5658   .debug_str:0000000000000e1d .LASF373
C:\Users\stapi\AppData\Local\Temp\cct4hVhk.s:5468   .debug_str:0000000000000712 .LASF374
C:\Users\stapi\AppData\Local\Temp\cct4hVhk.s:5666   .debug_str:0000000000000e74 .LASF375
C:\Users\stapi\AppData\Local\Temp\cct4hVhk.s:5528   .debug_str:00000000000008d1 .LASF376
C:\Users\stapi\AppData\Local\Temp\cct4hVhk.s:5940   .debug_str:0000000000001794 .LASF377
C:\Users\stapi\AppData\Local\Temp\cct4hVhk.s:5458   .debug_str:00000000000006bd .LASF378
C:\Users\stapi\AppData\Local\Temp\cct4hVhk.s:5692   .debug_str:0000000000000f6f .LASF379
C:\Users\stapi\AppData\Local\Temp\cct4hVhk.s:5394   .debug_str:00000000000004c4 .LASF380
C:\Users\stapi\AppData\Local\Temp\cct4hVhk.s:5276   .debug_str:0000000000000174 .LASF381
C:\Users\stapi\AppData\Local\Temp\cct4hVhk.s:5606   .debug_str:0000000000000c83 .LASF382
C:\Users\stapi\AppData\Local\Temp\cct4hVhk.s:5898   .debug_str:000000000000162f .LASF383
C:\Users\stapi\AppData\Local\Temp\cct4hVhk.s:5904   .debug_str:000000000000166f .LASF384
C:\Users\stapi\AppData\Local\Temp\cct4hVhk.s:5402   .debug_str:0000000000000503 .LASF385
C:\Users\stapi\AppData\Local\Temp\cct4hVhk.s:5520   .debug_str:0000000000000891 .LASF386
C:\Users\stapi\AppData\Local\Temp\cct4hVhk.s:5634   .debug_str:0000000000000d6a .LASF387
C:\Users\stapi\AppData\Local\Temp\cct4hVhk.s:5776   .debug_str:000000000000128b .LASF388
C:\Users\stapi\AppData\Local\Temp\cct4hVhk.s:5678   .debug_str:0000000000000ee5 .LASF389
C:\Users\stapi\AppData\Local\Temp\cct4hVhk.s:5408   .debug_str:0000000000000533 .LASF390
C:\Users\stapi\AppData\Local\Temp\cct4hVhk.s:5982   .debug_str:0000000000001906 .LASF391
C:\Users\stapi\AppData\Local\Temp\cct4hVhk.s:6000   .debug_str:00000000000019b7 .LASF392
C:\Users\stapi\AppData\Local\Temp\cct4hVhk.s:6082   .debug_str:0000000000001c46 .LASF393
C:\Users\stapi\AppData\Local\Temp\cct4hVhk.s:5362   .debug_str:00000000000003d2 .LASF394
C:\Users\stapi\AppData\Local\Temp\cct4hVhk.s:5966   .debug_str:0000000000001882 .LASF395
C:\Users\stapi\AppData\Local\Temp\cct4hVhk.s:5546   .debug_str:000000000000095c .LASF396
C:\Users\stapi\AppData\Local\Temp\cct4hVhk.s:5534   .debug_str:0000000000000901 .LASF397
C:\Users\stapi\AppData\Local\Temp\cct4hVhk.s:5816   .debug_str:00000000000013f8 .LASF398
C:\Users\stapi\AppData\Local\Temp\cct4hVhk.s:5392   .debug_str:00000000000004b6 .LASF399
C:\Users\stapi\AppData\Local\Temp\cct4hVhk.s:5250   .debug_str:00000000000000b4 .LASF400
C:\Users\stapi\AppData\Local\Temp\cct4hVhk.s:5582   .debug_str:0000000000000ad2 .LASF401
C:\Users\stapi\AppData\Local\Temp\cct4hVhk.s:5956   .debug_str:000000000000182e .LASF402
C:\Users\stapi\AppData\Local\Temp\cct4hVhk.s:5508   .debug_str:0000000000000829 .LASF403
C:\Users\stapi\AppData\Local\Temp\cct4hVhk.s:5616   .debug_str:0000000000000cd6 .LASF404
C:\Users\stapi\AppData\Local\Temp\cct4hVhk.s:5334   .debug_str:000000000000030b .LASF405
C:\Users\stapi\AppData\Local\Temp\cct4hVhk.s:5710   .debug_str:000000000000101d .LASF406
C:\Users\stapi\AppData\Local\Temp\cct4hVhk.s:5802   .debug_str:000000000000136a .LASF407
C:\Users\stapi\AppData\Local\Temp\cct4hVhk.s:5788   .debug_str:00000000000012ec .LASF408
C:\Users\stapi\AppData\Local\Temp\cct4hVhk.s:5436   .debug_str:000000000000060c .LASF409
C:\Users\stapi\AppData\Local\Temp\cct4hVhk.s:5686   .debug_str:0000000000000f3b .LASF410
C:\Users\stapi\AppData\Local\Temp\cct4hVhk.s:6026   .debug_str:0000000000001a87 .LASF411
C:\Users\stapi\AppData\Local\Temp\cct4hVhk.s:5230   .debug_str:0000000000000041 .LASF412
C:\Users\stapi\AppData\Local\Temp\cct4hVhk.s:5476   .debug_str:000000000000074c .LASF413
C:\Users\stapi\AppData\Local\Temp\cct4hVhk.s:5570   .debug_str:0000000000000a14 .LASF414
C:\Users\stapi\AppData\Local\Temp\cct4hVhk.s:6122   .debug_str:0000000000001d9c .LASF415
C:\Users\stapi\AppData\Local\Temp\cct4hVhk.s:5934   .debug_str:000000000000175e .LASF416
C:\Users\stapi\AppData\Local\Temp\cct4hVhk.s:5924   .debug_str:0000000000001715 .LASF417
C:\Users\stapi\AppData\Local\Temp\cct4hVhk.s:5384   .debug_str:0000000000000490 .LASF418
C:\Users\stapi\AppData\Local\Temp\cct4hVhk.s:5338   .debug_str:000000000000031f .LASF419
C:\Users\stapi\AppData\Local\Temp\cct4hVhk.s:5294   .debug_str:0000000000000213 .LASF420
C:\Users\stapi\AppData\Local\Temp\cct4hVhk.s:5702   .debug_str:0000000000000fd4 .LASF421
C:\Users\stapi\AppData\Local\Temp\cct4hVhk.s:5444   .debug_str:0000000000000664 .LASF422
C:\Users\stapi\AppData\Local\Temp\cct4hVhk.s:5892   .debug_str:00000000000015f9 .LASF423
C:\Users\stapi\AppData\Local\Temp\cct4hVhk.s:6006   .debug_str:00000000000019ec .LASF424
C:\Users\stapi\AppData\Local\Temp\cct4hVhk.s:5254   .debug_str:00000000000000c8 .LASF425
C:\Users\stapi\AppData\Local\Temp\cct4hVhk.s:5774   .debug_str:0000000000001278 .LASF426
C:\Users\stapi\AppData\Local\Temp\cct4hVhk.s:5252   .debug_str:00000000000000b9 .LASF427
C:\Users\stapi\AppData\Local\Temp\cct4hVhk.s:5304   .debug_str:000000000000025b .LASF428
C:\Users\stapi\AppData\Local\Temp\cct4hVhk.s:5298   .debug_str:000000000000022d .LASF429
C:\Users\stapi\AppData\Local\Temp\cct4hVhk.s:6096   .debug_str:0000000000001ce0 .LASF430
C:\Users\stapi\AppData\Local\Temp\cct4hVhk.s:5962   .debug_str:000000000000185c .LASF431
C:\Users\stapi\AppData\Local\Temp\cct4hVhk.s:5224   .debug_str:0000000000000020 .LASF432
C:\Users\stapi\AppData\Local\Temp\cct4hVhk.s:5648   .debug_str:0000000000000ddb .LASF433
C:\Users\stapi\AppData\Local\Temp\cct4hVhk.s:5876   .debug_str:00000000000015a7 .LASF434
C:\Users\stapi\AppData\Local\Temp\cct4hVhk.s:5502   .debug_str:00000000000007ed .LASF435
C:\Users\stapi\AppData\Local\Temp\cct4hVhk.s:6090   .debug_str:0000000000001ca3 .LASF436
C:\Users\stapi\AppData\Local\Temp\cct4hVhk.s:6054   .debug_str:0000000000001b54 .LASF437
C:\Users\stapi\AppData\Local\Temp\cct4hVhk.s:5992   .debug_str:0000000000001975 .LASF438
C:\Users\stapi\AppData\Local\Temp\cct4hVhk.s:5766   .debug_str:0000000000001231 .LASF439
C:\Users\stapi\AppData\Local\Temp\cct4hVhk.s:5896   .debug_str:0000000000001627 .LASF440
C:\Users\stapi\AppData\Local\Temp\cct4hVhk.s:6030   .debug_str:0000000000001aac .LASF441
C:\Users\stapi\AppData\Local\Temp\cct4hVhk.s:5846   .debug_str:00000000000014bb .LASF442
C:\Users\stapi\AppData\Local\Temp\cct4hVhk.s:5682   .debug_str:0000000000000f19 .LASF443
C:\Users\stapi\AppData\Local\Temp\cct4hVhk.s:5490   .debug_str:00000000000007b2 .LASF454
C:\Users\stapi\AppData\Local\Temp\cct4hVhk.s:5312   .debug_str:0000000000000285 .LASF444
C:\Users\stapi\AppData\Local\Temp\cct4hVhk.s:104    .text.coap_dtls_close:0000000000000000 .LFB32
C:\Users\stapi\AppData\Local\Temp\cct4hVhk.s:137    .text.coap_dtls_close:000000000000002c .LFE32
C:\Users\stapi\AppData\Local\Temp\cct4hVhk.s:5164   .debug_loc:0000000000000000 .LLST2
C:\Users\stapi\AppData\Local\Temp\cct4hVhk.s:121    .text.coap_dtls_close:0000000000000018 .LVL9
C:\Users\stapi\AppData\Local\Temp\cct4hVhk.s:130    .text.coap_dtls_close:0000000000000024 .LVL10
C:\Users\stapi\AppData\Local\Temp\cct4hVhk.s:5626   .debug_str:0000000000000d27 .LASF445
C:\Users\stapi\AppData\Local\Temp\cct4hVhk.s:14     .text.coap_dtls_establish:0000000000000000 .LFB31
C:\Users\stapi\AppData\Local\Temp\cct4hVhk.s:97     .text.coap_dtls_establish:0000000000000060 .LFE31
C:\Users\stapi\AppData\Local\Temp\cct4hVhk.s:5175   .debug_loc:000000000000001e .LLST0
C:\Users\stapi\AppData\Local\Temp\cct4hVhk.s:82     .text.coap_dtls_establish:0000000000000052 .LBB4
C:\Users\stapi\AppData\Local\Temp\cct4hVhk.s:95     .text.coap_dtls_establish:0000000000000060 .LBE4
C:\Users\stapi\AppData\Local\Temp\cct4hVhk.s:5186   .debug_loc:000000000000003c .LLST1
C:\Users\stapi\AppData\Local\Temp\cct4hVhk.s:88     .text.coap_dtls_establish:000000000000005a .LVL6
C:\Users\stapi\AppData\Local\Temp\cct4hVhk.s:43     .text.coap_dtls_establish:0000000000000020 .LVL2
C:\Users\stapi\AppData\Local\Temp\cct4hVhk.s:55     .text.coap_dtls_establish:0000000000000036 .LVL3
C:\Users\stapi\AppData\Local\Temp\cct4hVhk.s:70     .text.coap_dtls_establish:0000000000000046 .LVL4
C:\Users\stapi\AppData\Local\Temp\cct4hVhk.s:5576   .debug_str:0000000000000ab4 .LASF455
C:\Users\stapi\AppData\Local\Temp\cct4hVhk.s:5370   .debug_str:0000000000000438 .LASF446
C:\Users\stapi\AppData\Local\Temp\cct4hVhk.s:5228   .debug_str:0000000000000039 .LASF447
C:\Users\stapi\AppData\Local\Temp\cct4hVhk.s:5800   .debug_str:000000000000134d .LASF448
C:\Users\stapi\AppData\Local\Temp\cct4hVhk.s:5972   .debug_str:00000000000018b1 .LASF449
C:\Users\stapi\AppData\Local\Temp\cct4hVhk.s:5736   .debug_str:0000000000001117 .LASF450
C:\Users\stapi\AppData\Local\Temp\cct4hVhk.s:107    .text.coap_dtls_close:0000000000000000 .LVL8
C:\Users\stapi\AppData\Local\Temp\cct4hVhk.s:18     .text.coap_dtls_establish:0000000000000000 .LVL0
C:\Users\stapi\AppData\Local\Temp\cct4hVhk.s:37     .text.coap_dtls_establish:0000000000000016 .LVL1
C:\Users\stapi\AppData\Local\Temp\cct4hVhk.s:81     .text.coap_dtls_establish:0000000000000052 .LVL5
C:\Users\stapi\AppData\Local\Temp\cct4hVhk.s:91     .text.coap_dtls_establish:000000000000005e .LVL7
C:\Users\stapi\AppData\Local\Temp\cct4hVhk.s:179    .debug_info:0000000000000000 .Ldebug_info0

UNDEFINED SYMBOLS
__riscv_save_2
coap_dtls_new_server_session
coap_session_disconnected
__riscv_restore_2
coap_dtls_new_client_session
sys_now
__riscv_save_1
coap_dtls_free_session
__riscv_restore_1
