   1              		.file	"coap_debug.c"
   2              		.option nopic
   3              		.attribute arch, "rv32i2p0_m2p0_a2p0_f2p0_c2p0_b_p0p94"
   4              		.attribute unaligned_access, 0
   5              		.attribute stack_align, 16
   6              		.text
   7              	.Ltext0:
   8              		.cfi_sections	.debug_frame
   9              		.section	.rodata.print_readable.str1.4,"aMS",@progbits,1
  10              		.align	2
  11              	.LC1:
  12 0000 64617461 		.string	"data || len == 0"
  12      207C7C20 
  12      6C656E20 
  12      3D3D2030 
  12      00
  13 0011 000000   		.align	2
  14              	.LC2:
  15 0014 433A2F55 		.string	"C:/Users/stapi/OneDrive/Desktop/GD32VW553/GD32VW55X_Wifi_BLE_SDK/GD32VW55x_RELEASE_V1.0.2
  15      73657273 
  15      2F737461 
  15      70692F4F 
  15      6E654472 
  16 0097 00       		.align	2
  17              	.LC0:
  18 0098 30313233 		.string	"0123456789ABCDEF"
  18      34353637 
  18      38394142 
  18      43444546 
  18      00
  19              		.section	.text.print_readable,"ax",@progbits
  20              		.align	1
  22              	print_readable:
  23              	.LFB38:
  24              		.file 1 "C:/Users/stapi/OneDrive/Desktop/GD32VW553/GD32VW55X_Wifi_BLE_SDK/GD32VW55x_RELEASE_V1.0.2
   1:C:/Users/stapi/OneDrive/Desktop/GD32VW553/GD32VW55X_Wifi_BLE_SDK/GD32VW55x_RELEASE_V1.0.2/MSDK/lwip/libcoap-4.3.4/src\coap_debug.c **** /* coap_debug.c -- debug utilities
   2:C:/Users/stapi/OneDrive/Desktop/GD32VW553/GD32VW55X_Wifi_BLE_SDK/GD32VW55x_RELEASE_V1.0.2/MSDK/lwip/libcoap-4.3.4/src\coap_debug.c ****  *
   3:C:/Users/stapi/OneDrive/Desktop/GD32VW553/GD32VW55X_Wifi_BLE_SDK/GD32VW55x_RELEASE_V1.0.2/MSDK/lwip/libcoap-4.3.4/src\coap_debug.c ****  * Copyright (C) 2010--2012,2014--2023 Olaf Bergmann <bergmann@tzi.org> and others
   4:C:/Users/stapi/OneDrive/Desktop/GD32VW553/GD32VW55X_Wifi_BLE_SDK/GD32VW55x_RELEASE_V1.0.2/MSDK/lwip/libcoap-4.3.4/src\coap_debug.c ****  *
   5:C:/Users/stapi/OneDrive/Desktop/GD32VW553/GD32VW55X_Wifi_BLE_SDK/GD32VW55x_RELEASE_V1.0.2/MSDK/lwip/libcoap-4.3.4/src\coap_debug.c ****  * SPDX-License-Identifier: BSD-2-Clause
   6:C:/Users/stapi/OneDrive/Desktop/GD32VW553/GD32VW55X_Wifi_BLE_SDK/GD32VW55x_RELEASE_V1.0.2/MSDK/lwip/libcoap-4.3.4/src\coap_debug.c ****  *
   7:C:/Users/stapi/OneDrive/Desktop/GD32VW553/GD32VW55X_Wifi_BLE_SDK/GD32VW55x_RELEASE_V1.0.2/MSDK/lwip/libcoap-4.3.4/src\coap_debug.c ****  * This file is part of the CoAP library libcoap. Please see
   8:C:/Users/stapi/OneDrive/Desktop/GD32VW553/GD32VW55X_Wifi_BLE_SDK/GD32VW55x_RELEASE_V1.0.2/MSDK/lwip/libcoap-4.3.4/src\coap_debug.c ****  * README for terms of use.
   9:C:/Users/stapi/OneDrive/Desktop/GD32VW553/GD32VW55X_Wifi_BLE_SDK/GD32VW55x_RELEASE_V1.0.2/MSDK/lwip/libcoap-4.3.4/src\coap_debug.c ****  */
  10:C:/Users/stapi/OneDrive/Desktop/GD32VW553/GD32VW55X_Wifi_BLE_SDK/GD32VW55x_RELEASE_V1.0.2/MSDK/lwip/libcoap-4.3.4/src\coap_debug.c **** 
  11:C:/Users/stapi/OneDrive/Desktop/GD32VW553/GD32VW55X_Wifi_BLE_SDK/GD32VW55x_RELEASE_V1.0.2/MSDK/lwip/libcoap-4.3.4/src\coap_debug.c **** /**
  12:C:/Users/stapi/OneDrive/Desktop/GD32VW553/GD32VW55X_Wifi_BLE_SDK/GD32VW55x_RELEASE_V1.0.2/MSDK/lwip/libcoap-4.3.4/src\coap_debug.c ****  * @file coap_debug.c
  13:C:/Users/stapi/OneDrive/Desktop/GD32VW553/GD32VW55X_Wifi_BLE_SDK/GD32VW55x_RELEASE_V1.0.2/MSDK/lwip/libcoap-4.3.4/src\coap_debug.c ****  * @brief Debug utilities
  14:C:/Users/stapi/OneDrive/Desktop/GD32VW553/GD32VW55X_Wifi_BLE_SDK/GD32VW55x_RELEASE_V1.0.2/MSDK/lwip/libcoap-4.3.4/src\coap_debug.c ****  */
  15:C:/Users/stapi/OneDrive/Desktop/GD32VW553/GD32VW55X_Wifi_BLE_SDK/GD32VW55x_RELEASE_V1.0.2/MSDK/lwip/libcoap-4.3.4/src\coap_debug.c **** 
  16:C:/Users/stapi/OneDrive/Desktop/GD32VW553/GD32VW55X_Wifi_BLE_SDK/GD32VW55x_RELEASE_V1.0.2/MSDK/lwip/libcoap-4.3.4/src\coap_debug.c **** #include "coap3/coap_internal.h"
  17:C:/Users/stapi/OneDrive/Desktop/GD32VW553/GD32VW55X_Wifi_BLE_SDK/GD32VW55x_RELEASE_V1.0.2/MSDK/lwip/libcoap-4.3.4/src\coap_debug.c **** 
  18:C:/Users/stapi/OneDrive/Desktop/GD32VW553/GD32VW55X_Wifi_BLE_SDK/GD32VW55x_RELEASE_V1.0.2/MSDK/lwip/libcoap-4.3.4/src\coap_debug.c **** #if defined(HAVE_STRNLEN) && defined(__GNUC__) && !defined(_GNU_SOURCE)
  19:C:/Users/stapi/OneDrive/Desktop/GD32VW553/GD32VW55X_Wifi_BLE_SDK/GD32VW55x_RELEASE_V1.0.2/MSDK/lwip/libcoap-4.3.4/src\coap_debug.c **** #define _GNU_SOURCE 1
  20:C:/Users/stapi/OneDrive/Desktop/GD32VW553/GD32VW55X_Wifi_BLE_SDK/GD32VW55x_RELEASE_V1.0.2/MSDK/lwip/libcoap-4.3.4/src\coap_debug.c **** #endif
  21:C:/Users/stapi/OneDrive/Desktop/GD32VW553/GD32VW55X_Wifi_BLE_SDK/GD32VW55x_RELEASE_V1.0.2/MSDK/lwip/libcoap-4.3.4/src\coap_debug.c **** 
  22:C:/Users/stapi/OneDrive/Desktop/GD32VW553/GD32VW55X_Wifi_BLE_SDK/GD32VW55x_RELEASE_V1.0.2/MSDK/lwip/libcoap-4.3.4/src\coap_debug.c **** #include <stdarg.h>
  23:C:/Users/stapi/OneDrive/Desktop/GD32VW553/GD32VW55X_Wifi_BLE_SDK/GD32VW55x_RELEASE_V1.0.2/MSDK/lwip/libcoap-4.3.4/src\coap_debug.c **** #include <stdio.h>
  24:C:/Users/stapi/OneDrive/Desktop/GD32VW553/GD32VW55X_Wifi_BLE_SDK/GD32VW55x_RELEASE_V1.0.2/MSDK/lwip/libcoap-4.3.4/src\coap_debug.c **** #include <string.h>
  25:C:/Users/stapi/OneDrive/Desktop/GD32VW553/GD32VW55X_Wifi_BLE_SDK/GD32VW55x_RELEASE_V1.0.2/MSDK/lwip/libcoap-4.3.4/src\coap_debug.c **** #include <ctype.h>
  26:C:/Users/stapi/OneDrive/Desktop/GD32VW553/GD32VW55X_Wifi_BLE_SDK/GD32VW55x_RELEASE_V1.0.2/MSDK/lwip/libcoap-4.3.4/src\coap_debug.c **** 
  27:C:/Users/stapi/OneDrive/Desktop/GD32VW553/GD32VW55X_Wifi_BLE_SDK/GD32VW55x_RELEASE_V1.0.2/MSDK/lwip/libcoap-4.3.4/src\coap_debug.c **** #ifdef HAVE_ARPA_INET_H
  28:C:/Users/stapi/OneDrive/Desktop/GD32VW553/GD32VW55X_Wifi_BLE_SDK/GD32VW55x_RELEASE_V1.0.2/MSDK/lwip/libcoap-4.3.4/src\coap_debug.c **** #include <arpa/inet.h>
  29:C:/Users/stapi/OneDrive/Desktop/GD32VW553/GD32VW55X_Wifi_BLE_SDK/GD32VW55x_RELEASE_V1.0.2/MSDK/lwip/libcoap-4.3.4/src\coap_debug.c **** #endif
  30:C:/Users/stapi/OneDrive/Desktop/GD32VW553/GD32VW55X_Wifi_BLE_SDK/GD32VW55x_RELEASE_V1.0.2/MSDK/lwip/libcoap-4.3.4/src\coap_debug.c **** #ifdef HAVE_WS2TCPIP_H
  31:C:/Users/stapi/OneDrive/Desktop/GD32VW553/GD32VW55X_Wifi_BLE_SDK/GD32VW55x_RELEASE_V1.0.2/MSDK/lwip/libcoap-4.3.4/src\coap_debug.c **** #include <ws2tcpip.h>
  32:C:/Users/stapi/OneDrive/Desktop/GD32VW553/GD32VW55X_Wifi_BLE_SDK/GD32VW55x_RELEASE_V1.0.2/MSDK/lwip/libcoap-4.3.4/src\coap_debug.c **** #endif
  33:C:/Users/stapi/OneDrive/Desktop/GD32VW553/GD32VW55X_Wifi_BLE_SDK/GD32VW55x_RELEASE_V1.0.2/MSDK/lwip/libcoap-4.3.4/src\coap_debug.c **** 
  34:C:/Users/stapi/OneDrive/Desktop/GD32VW553/GD32VW55X_Wifi_BLE_SDK/GD32VW55x_RELEASE_V1.0.2/MSDK/lwip/libcoap-4.3.4/src\coap_debug.c **** #ifdef HAVE_TIME_H
  35:C:/Users/stapi/OneDrive/Desktop/GD32VW553/GD32VW55X_Wifi_BLE_SDK/GD32VW55x_RELEASE_V1.0.2/MSDK/lwip/libcoap-4.3.4/src\coap_debug.c **** #include <time.h>
  36:C:/Users/stapi/OneDrive/Desktop/GD32VW553/GD32VW55X_Wifi_BLE_SDK/GD32VW55x_RELEASE_V1.0.2/MSDK/lwip/libcoap-4.3.4/src\coap_debug.c **** #endif
  37:C:/Users/stapi/OneDrive/Desktop/GD32VW553/GD32VW55X_Wifi_BLE_SDK/GD32VW55x_RELEASE_V1.0.2/MSDK/lwip/libcoap-4.3.4/src\coap_debug.c **** 
  38:C:/Users/stapi/OneDrive/Desktop/GD32VW553/GD32VW55X_Wifi_BLE_SDK/GD32VW55x_RELEASE_V1.0.2/MSDK/lwip/libcoap-4.3.4/src\coap_debug.c **** #ifdef WITH_LWIP
  39:C:/Users/stapi/OneDrive/Desktop/GD32VW553/GD32VW55X_Wifi_BLE_SDK/GD32VW55x_RELEASE_V1.0.2/MSDK/lwip/libcoap-4.3.4/src\coap_debug.c **** # define fprintf(fd, ...) LWIP_PLATFORM_DIAG((__VA_ARGS__))
  40:C:/Users/stapi/OneDrive/Desktop/GD32VW553/GD32VW55X_Wifi_BLE_SDK/GD32VW55x_RELEASE_V1.0.2/MSDK/lwip/libcoap-4.3.4/src\coap_debug.c **** # define fflush(...)
  41:C:/Users/stapi/OneDrive/Desktop/GD32VW553/GD32VW55X_Wifi_BLE_SDK/GD32VW55x_RELEASE_V1.0.2/MSDK/lwip/libcoap-4.3.4/src\coap_debug.c **** #endif
  42:C:/Users/stapi/OneDrive/Desktop/GD32VW553/GD32VW55X_Wifi_BLE_SDK/GD32VW55x_RELEASE_V1.0.2/MSDK/lwip/libcoap-4.3.4/src\coap_debug.c **** 
  43:C:/Users/stapi/OneDrive/Desktop/GD32VW553/GD32VW55X_Wifi_BLE_SDK/GD32VW55x_RELEASE_V1.0.2/MSDK/lwip/libcoap-4.3.4/src\coap_debug.c **** #ifdef WITH_CONTIKI
  44:C:/Users/stapi/OneDrive/Desktop/GD32VW553/GD32VW55X_Wifi_BLE_SDK/GD32VW55x_RELEASE_V1.0.2/MSDK/lwip/libcoap-4.3.4/src\coap_debug.c **** # define fprintf(fd, ...) { (void)fd; printf(__VA_ARGS__); }
  45:C:/Users/stapi/OneDrive/Desktop/GD32VW553/GD32VW55X_Wifi_BLE_SDK/GD32VW55x_RELEASE_V1.0.2/MSDK/lwip/libcoap-4.3.4/src\coap_debug.c **** # define fflush(...)
  46:C:/Users/stapi/OneDrive/Desktop/GD32VW553/GD32VW55X_Wifi_BLE_SDK/GD32VW55x_RELEASE_V1.0.2/MSDK/lwip/libcoap-4.3.4/src\coap_debug.c **** # define vfprintf(fd, ...) { (void)fd; printf(__VA_ARGS__); }
  47:C:/Users/stapi/OneDrive/Desktop/GD32VW553/GD32VW55X_Wifi_BLE_SDK/GD32VW55x_RELEASE_V1.0.2/MSDK/lwip/libcoap-4.3.4/src\coap_debug.c **** 
  48:C:/Users/stapi/OneDrive/Desktop/GD32VW553/GD32VW55X_Wifi_BLE_SDK/GD32VW55x_RELEASE_V1.0.2/MSDK/lwip/libcoap-4.3.4/src\coap_debug.c **** # ifndef LOG_CONF_LEVEL_COAP
  49:C:/Users/stapi/OneDrive/Desktop/GD32VW553/GD32VW55X_Wifi_BLE_SDK/GD32VW55x_RELEASE_V1.0.2/MSDK/lwip/libcoap-4.3.4/src\coap_debug.c **** #  define LOG_CONF_LEVEL_COAP 2 /* = LOG_LEVEL_WARN */
  50:C:/Users/stapi/OneDrive/Desktop/GD32VW553/GD32VW55X_Wifi_BLE_SDK/GD32VW55x_RELEASE_V1.0.2/MSDK/lwip/libcoap-4.3.4/src\coap_debug.c **** # endif
  51:C:/Users/stapi/OneDrive/Desktop/GD32VW553/GD32VW55X_Wifi_BLE_SDK/GD32VW55x_RELEASE_V1.0.2/MSDK/lwip/libcoap-4.3.4/src\coap_debug.c **** static coap_log_t maxlog = LOG_CONF_LEVEL_COAP == 0 ? /* = LOG_LEVEL_NONE */
  52:C:/Users/stapi/OneDrive/Desktop/GD32VW553/GD32VW55X_Wifi_BLE_SDK/GD32VW55x_RELEASE_V1.0.2/MSDK/lwip/libcoap-4.3.4/src\coap_debug.c ****                            COAP_LOG_EMERG :
  53:C:/Users/stapi/OneDrive/Desktop/GD32VW553/GD32VW55X_Wifi_BLE_SDK/GD32VW55x_RELEASE_V1.0.2/MSDK/lwip/libcoap-4.3.4/src\coap_debug.c ****                            (LOG_CONF_LEVEL_COAP == 1 ?  /* = LOG_LEVEL_ERR */
  54:C:/Users/stapi/OneDrive/Desktop/GD32VW553/GD32VW55X_Wifi_BLE_SDK/GD32VW55x_RELEASE_V1.0.2/MSDK/lwip/libcoap-4.3.4/src\coap_debug.c ****                             COAP_LOG_ERR :
  55:C:/Users/stapi/OneDrive/Desktop/GD32VW553/GD32VW55X_Wifi_BLE_SDK/GD32VW55x_RELEASE_V1.0.2/MSDK/lwip/libcoap-4.3.4/src\coap_debug.c ****                             (LOG_CONF_LEVEL_COAP == 2 ?  /* = LOG_LEVEL_WARN */
  56:C:/Users/stapi/OneDrive/Desktop/GD32VW553/GD32VW55X_Wifi_BLE_SDK/GD32VW55x_RELEASE_V1.0.2/MSDK/lwip/libcoap-4.3.4/src\coap_debug.c ****                              COAP_LOG_WARN :
  57:C:/Users/stapi/OneDrive/Desktop/GD32VW553/GD32VW55X_Wifi_BLE_SDK/GD32VW55x_RELEASE_V1.0.2/MSDK/lwip/libcoap-4.3.4/src\coap_debug.c ****                              (LOG_CONF_LEVEL_COAP == 3 ? /* = LOG_LEVEL_INFO */
  58:C:/Users/stapi/OneDrive/Desktop/GD32VW553/GD32VW55X_Wifi_BLE_SDK/GD32VW55x_RELEASE_V1.0.2/MSDK/lwip/libcoap-4.3.4/src\coap_debug.c ****                               COAP_LOG_INFO :
  59:C:/Users/stapi/OneDrive/Desktop/GD32VW553/GD32VW55X_Wifi_BLE_SDK/GD32VW55x_RELEASE_V1.0.2/MSDK/lwip/libcoap-4.3.4/src\coap_debug.c ****                               COAP_LOG_DEBUG)));
  60:C:/Users/stapi/OneDrive/Desktop/GD32VW553/GD32VW55X_Wifi_BLE_SDK/GD32VW55x_RELEASE_V1.0.2/MSDK/lwip/libcoap-4.3.4/src\coap_debug.c **** #else /* WITH_CONTIKI */
  61:C:/Users/stapi/OneDrive/Desktop/GD32VW553/GD32VW55X_Wifi_BLE_SDK/GD32VW55x_RELEASE_V1.0.2/MSDK/lwip/libcoap-4.3.4/src\coap_debug.c **** static coap_log_t maxlog = COAP_LOG_WARN;  /* default maximum CoAP log level */
  62:C:/Users/stapi/OneDrive/Desktop/GD32VW553/GD32VW55X_Wifi_BLE_SDK/GD32VW55x_RELEASE_V1.0.2/MSDK/lwip/libcoap-4.3.4/src\coap_debug.c **** #endif /* WITH_CONTIKI */
  63:C:/Users/stapi/OneDrive/Desktop/GD32VW553/GD32VW55X_Wifi_BLE_SDK/GD32VW55x_RELEASE_V1.0.2/MSDK/lwip/libcoap-4.3.4/src\coap_debug.c **** 
  64:C:/Users/stapi/OneDrive/Desktop/GD32VW553/GD32VW55X_Wifi_BLE_SDK/GD32VW55x_RELEASE_V1.0.2/MSDK/lwip/libcoap-4.3.4/src\coap_debug.c **** static int use_fprintf_for_show_pdu = 1; /* non zero to output with fprintf */
  65:C:/Users/stapi/OneDrive/Desktop/GD32VW553/GD32VW55X_Wifi_BLE_SDK/GD32VW55x_RELEASE_V1.0.2/MSDK/lwip/libcoap-4.3.4/src\coap_debug.c **** 
  66:C:/Users/stapi/OneDrive/Desktop/GD32VW553/GD32VW55X_Wifi_BLE_SDK/GD32VW55x_RELEASE_V1.0.2/MSDK/lwip/libcoap-4.3.4/src\coap_debug.c **** const char *
  67:C:/Users/stapi/OneDrive/Desktop/GD32VW553/GD32VW55X_Wifi_BLE_SDK/GD32VW55x_RELEASE_V1.0.2/MSDK/lwip/libcoap-4.3.4/src\coap_debug.c **** coap_package_name(void) {
  68:C:/Users/stapi/OneDrive/Desktop/GD32VW553/GD32VW55X_Wifi_BLE_SDK/GD32VW55x_RELEASE_V1.0.2/MSDK/lwip/libcoap-4.3.4/src\coap_debug.c ****   return PACKAGE_NAME;
  69:C:/Users/stapi/OneDrive/Desktop/GD32VW553/GD32VW55X_Wifi_BLE_SDK/GD32VW55x_RELEASE_V1.0.2/MSDK/lwip/libcoap-4.3.4/src\coap_debug.c **** }
  70:C:/Users/stapi/OneDrive/Desktop/GD32VW553/GD32VW55X_Wifi_BLE_SDK/GD32VW55x_RELEASE_V1.0.2/MSDK/lwip/libcoap-4.3.4/src\coap_debug.c **** 
  71:C:/Users/stapi/OneDrive/Desktop/GD32VW553/GD32VW55X_Wifi_BLE_SDK/GD32VW55x_RELEASE_V1.0.2/MSDK/lwip/libcoap-4.3.4/src\coap_debug.c **** const char *
  72:C:/Users/stapi/OneDrive/Desktop/GD32VW553/GD32VW55X_Wifi_BLE_SDK/GD32VW55x_RELEASE_V1.0.2/MSDK/lwip/libcoap-4.3.4/src\coap_debug.c **** coap_package_version(void) {
  73:C:/Users/stapi/OneDrive/Desktop/GD32VW553/GD32VW55X_Wifi_BLE_SDK/GD32VW55x_RELEASE_V1.0.2/MSDK/lwip/libcoap-4.3.4/src\coap_debug.c ****   return PACKAGE_STRING;
  74:C:/Users/stapi/OneDrive/Desktop/GD32VW553/GD32VW55X_Wifi_BLE_SDK/GD32VW55x_RELEASE_V1.0.2/MSDK/lwip/libcoap-4.3.4/src\coap_debug.c **** }
  75:C:/Users/stapi/OneDrive/Desktop/GD32VW553/GD32VW55X_Wifi_BLE_SDK/GD32VW55x_RELEASE_V1.0.2/MSDK/lwip/libcoap-4.3.4/src\coap_debug.c **** 
  76:C:/Users/stapi/OneDrive/Desktop/GD32VW553/GD32VW55X_Wifi_BLE_SDK/GD32VW55x_RELEASE_V1.0.2/MSDK/lwip/libcoap-4.3.4/src\coap_debug.c **** const char *
  77:C:/Users/stapi/OneDrive/Desktop/GD32VW553/GD32VW55X_Wifi_BLE_SDK/GD32VW55x_RELEASE_V1.0.2/MSDK/lwip/libcoap-4.3.4/src\coap_debug.c **** coap_package_build(void) {
  78:C:/Users/stapi/OneDrive/Desktop/GD32VW553/GD32VW55X_Wifi_BLE_SDK/GD32VW55x_RELEASE_V1.0.2/MSDK/lwip/libcoap-4.3.4/src\coap_debug.c **** #ifdef LIBCOAP_PACKAGE_BUILD
  79:C:/Users/stapi/OneDrive/Desktop/GD32VW553/GD32VW55X_Wifi_BLE_SDK/GD32VW55x_RELEASE_V1.0.2/MSDK/lwip/libcoap-4.3.4/src\coap_debug.c ****   return LIBCOAP_PACKAGE_BUILD;
  80:C:/Users/stapi/OneDrive/Desktop/GD32VW553/GD32VW55X_Wifi_BLE_SDK/GD32VW55x_RELEASE_V1.0.2/MSDK/lwip/libcoap-4.3.4/src\coap_debug.c **** #else /* !LIBCOAP_PACKAGE_BUILD */
  81:C:/Users/stapi/OneDrive/Desktop/GD32VW553/GD32VW55X_Wifi_BLE_SDK/GD32VW55x_RELEASE_V1.0.2/MSDK/lwip/libcoap-4.3.4/src\coap_debug.c ****   return PACKAGE_STRING;
  82:C:/Users/stapi/OneDrive/Desktop/GD32VW553/GD32VW55X_Wifi_BLE_SDK/GD32VW55x_RELEASE_V1.0.2/MSDK/lwip/libcoap-4.3.4/src\coap_debug.c **** #endif /* !LIBCOAP_PACKAGE_BUILD */
  83:C:/Users/stapi/OneDrive/Desktop/GD32VW553/GD32VW55X_Wifi_BLE_SDK/GD32VW55x_RELEASE_V1.0.2/MSDK/lwip/libcoap-4.3.4/src\coap_debug.c **** }
  84:C:/Users/stapi/OneDrive/Desktop/GD32VW553/GD32VW55X_Wifi_BLE_SDK/GD32VW55x_RELEASE_V1.0.2/MSDK/lwip/libcoap-4.3.4/src\coap_debug.c **** 
  85:C:/Users/stapi/OneDrive/Desktop/GD32VW553/GD32VW55X_Wifi_BLE_SDK/GD32VW55x_RELEASE_V1.0.2/MSDK/lwip/libcoap-4.3.4/src\coap_debug.c **** void
  86:C:/Users/stapi/OneDrive/Desktop/GD32VW553/GD32VW55X_Wifi_BLE_SDK/GD32VW55x_RELEASE_V1.0.2/MSDK/lwip/libcoap-4.3.4/src\coap_debug.c **** coap_set_show_pdu_output(int use_fprintf) {
  87:C:/Users/stapi/OneDrive/Desktop/GD32VW553/GD32VW55X_Wifi_BLE_SDK/GD32VW55x_RELEASE_V1.0.2/MSDK/lwip/libcoap-4.3.4/src\coap_debug.c ****   use_fprintf_for_show_pdu = use_fprintf;
  88:C:/Users/stapi/OneDrive/Desktop/GD32VW553/GD32VW55X_Wifi_BLE_SDK/GD32VW55x_RELEASE_V1.0.2/MSDK/lwip/libcoap-4.3.4/src\coap_debug.c **** }
  89:C:/Users/stapi/OneDrive/Desktop/GD32VW553/GD32VW55X_Wifi_BLE_SDK/GD32VW55x_RELEASE_V1.0.2/MSDK/lwip/libcoap-4.3.4/src\coap_debug.c **** 
  90:C:/Users/stapi/OneDrive/Desktop/GD32VW553/GD32VW55X_Wifi_BLE_SDK/GD32VW55x_RELEASE_V1.0.2/MSDK/lwip/libcoap-4.3.4/src\coap_debug.c **** coap_log_t
  91:C:/Users/stapi/OneDrive/Desktop/GD32VW553/GD32VW55X_Wifi_BLE_SDK/GD32VW55x_RELEASE_V1.0.2/MSDK/lwip/libcoap-4.3.4/src\coap_debug.c **** coap_get_log_level(void) {
  92:C:/Users/stapi/OneDrive/Desktop/GD32VW553/GD32VW55X_Wifi_BLE_SDK/GD32VW55x_RELEASE_V1.0.2/MSDK/lwip/libcoap-4.3.4/src\coap_debug.c ****   return maxlog;
  93:C:/Users/stapi/OneDrive/Desktop/GD32VW553/GD32VW55X_Wifi_BLE_SDK/GD32VW55x_RELEASE_V1.0.2/MSDK/lwip/libcoap-4.3.4/src\coap_debug.c **** }
  94:C:/Users/stapi/OneDrive/Desktop/GD32VW553/GD32VW55X_Wifi_BLE_SDK/GD32VW55x_RELEASE_V1.0.2/MSDK/lwip/libcoap-4.3.4/src\coap_debug.c **** 
  95:C:/Users/stapi/OneDrive/Desktop/GD32VW553/GD32VW55X_Wifi_BLE_SDK/GD32VW55x_RELEASE_V1.0.2/MSDK/lwip/libcoap-4.3.4/src\coap_debug.c **** void
  96:C:/Users/stapi/OneDrive/Desktop/GD32VW553/GD32VW55X_Wifi_BLE_SDK/GD32VW55x_RELEASE_V1.0.2/MSDK/lwip/libcoap-4.3.4/src\coap_debug.c **** coap_set_log_level(coap_log_t level) {
  97:C:/Users/stapi/OneDrive/Desktop/GD32VW553/GD32VW55X_Wifi_BLE_SDK/GD32VW55x_RELEASE_V1.0.2/MSDK/lwip/libcoap-4.3.4/src\coap_debug.c ****   if (level > COAP_MAX_LOGGING_LEVEL)
  98:C:/Users/stapi/OneDrive/Desktop/GD32VW553/GD32VW55X_Wifi_BLE_SDK/GD32VW55x_RELEASE_V1.0.2/MSDK/lwip/libcoap-4.3.4/src\coap_debug.c ****     level = COAP_MAX_LOGGING_LEVEL;
  99:C:/Users/stapi/OneDrive/Desktop/GD32VW553/GD32VW55X_Wifi_BLE_SDK/GD32VW55x_RELEASE_V1.0.2/MSDK/lwip/libcoap-4.3.4/src\coap_debug.c ****   maxlog = level;
 100:C:/Users/stapi/OneDrive/Desktop/GD32VW553/GD32VW55X_Wifi_BLE_SDK/GD32VW55x_RELEASE_V1.0.2/MSDK/lwip/libcoap-4.3.4/src\coap_debug.c **** }
 101:C:/Users/stapi/OneDrive/Desktop/GD32VW553/GD32VW55X_Wifi_BLE_SDK/GD32VW55x_RELEASE_V1.0.2/MSDK/lwip/libcoap-4.3.4/src\coap_debug.c **** 
 102:C:/Users/stapi/OneDrive/Desktop/GD32VW553/GD32VW55X_Wifi_BLE_SDK/GD32VW55x_RELEASE_V1.0.2/MSDK/lwip/libcoap-4.3.4/src\coap_debug.c **** /* this array has the same order as the type coap_log_t with the (D)TLS
 103:C:/Users/stapi/OneDrive/Desktop/GD32VW553/GD32VW55X_Wifi_BLE_SDK/GD32VW55x_RELEASE_V1.0.2/MSDK/lwip/libcoap-4.3.4/src\coap_debug.c ****    entries added to the list with a COAP_LOG_DTLS_BASE offset */
 104:C:/Users/stapi/OneDrive/Desktop/GD32VW553/GD32VW55X_Wifi_BLE_SDK/GD32VW55x_RELEASE_V1.0.2/MSDK/lwip/libcoap-4.3.4/src\coap_debug.c **** static const char *loglevels[] = {
 105:C:/Users/stapi/OneDrive/Desktop/GD32VW553/GD32VW55X_Wifi_BLE_SDK/GD32VW55x_RELEASE_V1.0.2/MSDK/lwip/libcoap-4.3.4/src\coap_debug.c ****   /* General logging */
 106:C:/Users/stapi/OneDrive/Desktop/GD32VW553/GD32VW55X_Wifi_BLE_SDK/GD32VW55x_RELEASE_V1.0.2/MSDK/lwip/libcoap-4.3.4/src\coap_debug.c ****   "EMRG", "ALRT", "CRIT", "ERR ", "WARN", "NOTE", "INFO", "DEBG", "OSC ",
 107:C:/Users/stapi/OneDrive/Desktop/GD32VW553/GD32VW55X_Wifi_BLE_SDK/GD32VW55x_RELEASE_V1.0.2/MSDK/lwip/libcoap-4.3.4/src\coap_debug.c ****   /* (D)TLS logging */
 108:C:/Users/stapi/OneDrive/Desktop/GD32VW553/GD32VW55X_Wifi_BLE_SDK/GD32VW55x_RELEASE_V1.0.2/MSDK/lwip/libcoap-4.3.4/src\coap_debug.c ****   "Emrg", "Alrt", "Crit", "Err ", "Warn", "Note", "Info", "Debg"
 109:C:/Users/stapi/OneDrive/Desktop/GD32VW553/GD32VW55X_Wifi_BLE_SDK/GD32VW55x_RELEASE_V1.0.2/MSDK/lwip/libcoap-4.3.4/src\coap_debug.c **** };
 110:C:/Users/stapi/OneDrive/Desktop/GD32VW553/GD32VW55X_Wifi_BLE_SDK/GD32VW55x_RELEASE_V1.0.2/MSDK/lwip/libcoap-4.3.4/src\coap_debug.c **** 
 111:C:/Users/stapi/OneDrive/Desktop/GD32VW553/GD32VW55X_Wifi_BLE_SDK/GD32VW55x_RELEASE_V1.0.2/MSDK/lwip/libcoap-4.3.4/src\coap_debug.c **** #ifdef WITH_CONTIKI
 112:C:/Users/stapi/OneDrive/Desktop/GD32VW553/GD32VW55X_Wifi_BLE_SDK/GD32VW55x_RELEASE_V1.0.2/MSDK/lwip/libcoap-4.3.4/src\coap_debug.c **** void
 113:C:/Users/stapi/OneDrive/Desktop/GD32VW553/GD32VW55X_Wifi_BLE_SDK/GD32VW55x_RELEASE_V1.0.2/MSDK/lwip/libcoap-4.3.4/src\coap_debug.c **** coap_print_contiki_prefix(coap_log_t level) {
 114:C:/Users/stapi/OneDrive/Desktop/GD32VW553/GD32VW55X_Wifi_BLE_SDK/GD32VW55x_RELEASE_V1.0.2/MSDK/lwip/libcoap-4.3.4/src\coap_debug.c ****   printf("[%s: COAP      ] ", loglevels[level]);
 115:C:/Users/stapi/OneDrive/Desktop/GD32VW553/GD32VW55X_Wifi_BLE_SDK/GD32VW55x_RELEASE_V1.0.2/MSDK/lwip/libcoap-4.3.4/src\coap_debug.c **** }
 116:C:/Users/stapi/OneDrive/Desktop/GD32VW553/GD32VW55X_Wifi_BLE_SDK/GD32VW55x_RELEASE_V1.0.2/MSDK/lwip/libcoap-4.3.4/src\coap_debug.c **** #endif /* WITH_CONTIKI */
 117:C:/Users/stapi/OneDrive/Desktop/GD32VW553/GD32VW55X_Wifi_BLE_SDK/GD32VW55x_RELEASE_V1.0.2/MSDK/lwip/libcoap-4.3.4/src\coap_debug.c **** 
 118:C:/Users/stapi/OneDrive/Desktop/GD32VW553/GD32VW55X_Wifi_BLE_SDK/GD32VW55x_RELEASE_V1.0.2/MSDK/lwip/libcoap-4.3.4/src\coap_debug.c **** #ifdef HAVE_TIME_H
 119:C:/Users/stapi/OneDrive/Desktop/GD32VW553/GD32VW55X_Wifi_BLE_SDK/GD32VW55x_RELEASE_V1.0.2/MSDK/lwip/libcoap-4.3.4/src\coap_debug.c **** 
 120:C:/Users/stapi/OneDrive/Desktop/GD32VW553/GD32VW55X_Wifi_BLE_SDK/GD32VW55x_RELEASE_V1.0.2/MSDK/lwip/libcoap-4.3.4/src\coap_debug.c **** COAP_STATIC_INLINE size_t
 121:C:/Users/stapi/OneDrive/Desktop/GD32VW553/GD32VW55X_Wifi_BLE_SDK/GD32VW55x_RELEASE_V1.0.2/MSDK/lwip/libcoap-4.3.4/src\coap_debug.c **** print_timestamp(char *s, size_t len, coap_tick_t t) {
 122:C:/Users/stapi/OneDrive/Desktop/GD32VW553/GD32VW55X_Wifi_BLE_SDK/GD32VW55x_RELEASE_V1.0.2/MSDK/lwip/libcoap-4.3.4/src\coap_debug.c ****   struct tm *tmp;
 123:C:/Users/stapi/OneDrive/Desktop/GD32VW553/GD32VW55X_Wifi_BLE_SDK/GD32VW55x_RELEASE_V1.0.2/MSDK/lwip/libcoap-4.3.4/src\coap_debug.c ****   size_t lensofar;
 124:C:/Users/stapi/OneDrive/Desktop/GD32VW553/GD32VW55X_Wifi_BLE_SDK/GD32VW55x_RELEASE_V1.0.2/MSDK/lwip/libcoap-4.3.4/src\coap_debug.c ****   time_t now = coap_ticks_to_rt(t);
 125:C:/Users/stapi/OneDrive/Desktop/GD32VW553/GD32VW55X_Wifi_BLE_SDK/GD32VW55x_RELEASE_V1.0.2/MSDK/lwip/libcoap-4.3.4/src\coap_debug.c ****   tmp = localtime(&now);
 126:C:/Users/stapi/OneDrive/Desktop/GD32VW553/GD32VW55X_Wifi_BLE_SDK/GD32VW55x_RELEASE_V1.0.2/MSDK/lwip/libcoap-4.3.4/src\coap_debug.c ****   lensofar = strftime(s, len, "%b %d %H:%M:%S", tmp);
 127:C:/Users/stapi/OneDrive/Desktop/GD32VW553/GD32VW55X_Wifi_BLE_SDK/GD32VW55x_RELEASE_V1.0.2/MSDK/lwip/libcoap-4.3.4/src\coap_debug.c ****   if (len > lensofar + 4) {
 128:C:/Users/stapi/OneDrive/Desktop/GD32VW553/GD32VW55X_Wifi_BLE_SDK/GD32VW55x_RELEASE_V1.0.2/MSDK/lwip/libcoap-4.3.4/src\coap_debug.c ****     lensofar += snprintf(&s[lensofar], len-lensofar, ".%03u",
 129:C:/Users/stapi/OneDrive/Desktop/GD32VW553/GD32VW55X_Wifi_BLE_SDK/GD32VW55x_RELEASE_V1.0.2/MSDK/lwip/libcoap-4.3.4/src\coap_debug.c ****                          (unsigned int)((coap_ticks_to_rt_us(t) % 1000000)/1000));
 130:C:/Users/stapi/OneDrive/Desktop/GD32VW553/GD32VW55X_Wifi_BLE_SDK/GD32VW55x_RELEASE_V1.0.2/MSDK/lwip/libcoap-4.3.4/src\coap_debug.c ****   }
 131:C:/Users/stapi/OneDrive/Desktop/GD32VW553/GD32VW55X_Wifi_BLE_SDK/GD32VW55x_RELEASE_V1.0.2/MSDK/lwip/libcoap-4.3.4/src\coap_debug.c ****   return lensofar;
 132:C:/Users/stapi/OneDrive/Desktop/GD32VW553/GD32VW55X_Wifi_BLE_SDK/GD32VW55x_RELEASE_V1.0.2/MSDK/lwip/libcoap-4.3.4/src\coap_debug.c **** }
 133:C:/Users/stapi/OneDrive/Desktop/GD32VW553/GD32VW55X_Wifi_BLE_SDK/GD32VW55x_RELEASE_V1.0.2/MSDK/lwip/libcoap-4.3.4/src\coap_debug.c **** 
 134:C:/Users/stapi/OneDrive/Desktop/GD32VW553/GD32VW55X_Wifi_BLE_SDK/GD32VW55x_RELEASE_V1.0.2/MSDK/lwip/libcoap-4.3.4/src\coap_debug.c **** #else /* alternative implementation: just print the timestamp */
 135:C:/Users/stapi/OneDrive/Desktop/GD32VW553/GD32VW55X_Wifi_BLE_SDK/GD32VW55x_RELEASE_V1.0.2/MSDK/lwip/libcoap-4.3.4/src\coap_debug.c **** 
 136:C:/Users/stapi/OneDrive/Desktop/GD32VW553/GD32VW55X_Wifi_BLE_SDK/GD32VW55x_RELEASE_V1.0.2/MSDK/lwip/libcoap-4.3.4/src\coap_debug.c **** COAP_STATIC_INLINE size_t
 137:C:/Users/stapi/OneDrive/Desktop/GD32VW553/GD32VW55X_Wifi_BLE_SDK/GD32VW55x_RELEASE_V1.0.2/MSDK/lwip/libcoap-4.3.4/src\coap_debug.c **** print_timestamp(char *s, size_t len, coap_tick_t t) {
 138:C:/Users/stapi/OneDrive/Desktop/GD32VW553/GD32VW55X_Wifi_BLE_SDK/GD32VW55x_RELEASE_V1.0.2/MSDK/lwip/libcoap-4.3.4/src\coap_debug.c **** #ifdef HAVE_SNPRINTF
 139:C:/Users/stapi/OneDrive/Desktop/GD32VW553/GD32VW55X_Wifi_BLE_SDK/GD32VW55x_RELEASE_V1.0.2/MSDK/lwip/libcoap-4.3.4/src\coap_debug.c ****   return snprintf(s, len, "%u.%03u",
 140:C:/Users/stapi/OneDrive/Desktop/GD32VW553/GD32VW55X_Wifi_BLE_SDK/GD32VW55x_RELEASE_V1.0.2/MSDK/lwip/libcoap-4.3.4/src\coap_debug.c ****                   (unsigned int)coap_ticks_to_rt(t),
 141:C:/Users/stapi/OneDrive/Desktop/GD32VW553/GD32VW55X_Wifi_BLE_SDK/GD32VW55x_RELEASE_V1.0.2/MSDK/lwip/libcoap-4.3.4/src\coap_debug.c ****                   (unsigned int)((coap_ticks_to_rt_us(t) % 1000000)/1000));
 142:C:/Users/stapi/OneDrive/Desktop/GD32VW553/GD32VW55X_Wifi_BLE_SDK/GD32VW55x_RELEASE_V1.0.2/MSDK/lwip/libcoap-4.3.4/src\coap_debug.c **** #else /* HAVE_SNPRINTF */
 143:C:/Users/stapi/OneDrive/Desktop/GD32VW553/GD32VW55X_Wifi_BLE_SDK/GD32VW55x_RELEASE_V1.0.2/MSDK/lwip/libcoap-4.3.4/src\coap_debug.c ****   /* @todo do manual conversion of timestamp */
 144:C:/Users/stapi/OneDrive/Desktop/GD32VW553/GD32VW55X_Wifi_BLE_SDK/GD32VW55x_RELEASE_V1.0.2/MSDK/lwip/libcoap-4.3.4/src\coap_debug.c ****   return 0;
 145:C:/Users/stapi/OneDrive/Desktop/GD32VW553/GD32VW55X_Wifi_BLE_SDK/GD32VW55x_RELEASE_V1.0.2/MSDK/lwip/libcoap-4.3.4/src\coap_debug.c **** #endif /* HAVE_SNPRINTF */
 146:C:/Users/stapi/OneDrive/Desktop/GD32VW553/GD32VW55X_Wifi_BLE_SDK/GD32VW55x_RELEASE_V1.0.2/MSDK/lwip/libcoap-4.3.4/src\coap_debug.c **** }
 147:C:/Users/stapi/OneDrive/Desktop/GD32VW553/GD32VW55X_Wifi_BLE_SDK/GD32VW55x_RELEASE_V1.0.2/MSDK/lwip/libcoap-4.3.4/src\coap_debug.c **** 
 148:C:/Users/stapi/OneDrive/Desktop/GD32VW553/GD32VW55X_Wifi_BLE_SDK/GD32VW55x_RELEASE_V1.0.2/MSDK/lwip/libcoap-4.3.4/src\coap_debug.c **** #endif /* HAVE_TIME_H */
 149:C:/Users/stapi/OneDrive/Desktop/GD32VW553/GD32VW55X_Wifi_BLE_SDK/GD32VW55x_RELEASE_V1.0.2/MSDK/lwip/libcoap-4.3.4/src\coap_debug.c **** 
 150:C:/Users/stapi/OneDrive/Desktop/GD32VW553/GD32VW55X_Wifi_BLE_SDK/GD32VW55x_RELEASE_V1.0.2/MSDK/lwip/libcoap-4.3.4/src\coap_debug.c **** #if !defined(HAVE_STRNLEN) && !defined(__MINGW32__)
 151:C:/Users/stapi/OneDrive/Desktop/GD32VW553/GD32VW55X_Wifi_BLE_SDK/GD32VW55x_RELEASE_V1.0.2/MSDK/lwip/libcoap-4.3.4/src\coap_debug.c **** /**
 152:C:/Users/stapi/OneDrive/Desktop/GD32VW553/GD32VW55X_Wifi_BLE_SDK/GD32VW55x_RELEASE_V1.0.2/MSDK/lwip/libcoap-4.3.4/src\coap_debug.c ****  * A length-safe strlen() fake.
 153:C:/Users/stapi/OneDrive/Desktop/GD32VW553/GD32VW55X_Wifi_BLE_SDK/GD32VW55x_RELEASE_V1.0.2/MSDK/lwip/libcoap-4.3.4/src\coap_debug.c ****  *
 154:C:/Users/stapi/OneDrive/Desktop/GD32VW553/GD32VW55X_Wifi_BLE_SDK/GD32VW55x_RELEASE_V1.0.2/MSDK/lwip/libcoap-4.3.4/src\coap_debug.c ****  * @param s      The string to count characters != 0.
 155:C:/Users/stapi/OneDrive/Desktop/GD32VW553/GD32VW55X_Wifi_BLE_SDK/GD32VW55x_RELEASE_V1.0.2/MSDK/lwip/libcoap-4.3.4/src\coap_debug.c ****  * @param maxlen The maximum length of @p s.
 156:C:/Users/stapi/OneDrive/Desktop/GD32VW553/GD32VW55X_Wifi_BLE_SDK/GD32VW55x_RELEASE_V1.0.2/MSDK/lwip/libcoap-4.3.4/src\coap_debug.c ****  *
 157:C:/Users/stapi/OneDrive/Desktop/GD32VW553/GD32VW55X_Wifi_BLE_SDK/GD32VW55x_RELEASE_V1.0.2/MSDK/lwip/libcoap-4.3.4/src\coap_debug.c ****  * @return The length of @p s.
 158:C:/Users/stapi/OneDrive/Desktop/GD32VW553/GD32VW55X_Wifi_BLE_SDK/GD32VW55x_RELEASE_V1.0.2/MSDK/lwip/libcoap-4.3.4/src\coap_debug.c ****  */
 159:C:/Users/stapi/OneDrive/Desktop/GD32VW553/GD32VW55X_Wifi_BLE_SDK/GD32VW55x_RELEASE_V1.0.2/MSDK/lwip/libcoap-4.3.4/src\coap_debug.c **** static inline size_t
 160:C:/Users/stapi/OneDrive/Desktop/GD32VW553/GD32VW55X_Wifi_BLE_SDK/GD32VW55x_RELEASE_V1.0.2/MSDK/lwip/libcoap-4.3.4/src\coap_debug.c **** strnlen(const char *s, size_t maxlen) {
 161:C:/Users/stapi/OneDrive/Desktop/GD32VW553/GD32VW55X_Wifi_BLE_SDK/GD32VW55x_RELEASE_V1.0.2/MSDK/lwip/libcoap-4.3.4/src\coap_debug.c ****   size_t n = 0;
 162:C:/Users/stapi/OneDrive/Desktop/GD32VW553/GD32VW55X_Wifi_BLE_SDK/GD32VW55x_RELEASE_V1.0.2/MSDK/lwip/libcoap-4.3.4/src\coap_debug.c ****   while (*s++ && n < maxlen)
 163:C:/Users/stapi/OneDrive/Desktop/GD32VW553/GD32VW55X_Wifi_BLE_SDK/GD32VW55x_RELEASE_V1.0.2/MSDK/lwip/libcoap-4.3.4/src\coap_debug.c ****     ++n;
 164:C:/Users/stapi/OneDrive/Desktop/GD32VW553/GD32VW55X_Wifi_BLE_SDK/GD32VW55x_RELEASE_V1.0.2/MSDK/lwip/libcoap-4.3.4/src\coap_debug.c ****   return n;
 165:C:/Users/stapi/OneDrive/Desktop/GD32VW553/GD32VW55X_Wifi_BLE_SDK/GD32VW55x_RELEASE_V1.0.2/MSDK/lwip/libcoap-4.3.4/src\coap_debug.c **** }
 166:C:/Users/stapi/OneDrive/Desktop/GD32VW553/GD32VW55X_Wifi_BLE_SDK/GD32VW55x_RELEASE_V1.0.2/MSDK/lwip/libcoap-4.3.4/src\coap_debug.c **** #endif /* HAVE_STRNLEN && !__MINGW32__ */
 167:C:/Users/stapi/OneDrive/Desktop/GD32VW553/GD32VW55X_Wifi_BLE_SDK/GD32VW55x_RELEASE_V1.0.2/MSDK/lwip/libcoap-4.3.4/src\coap_debug.c **** 
 168:C:/Users/stapi/OneDrive/Desktop/GD32VW553/GD32VW55X_Wifi_BLE_SDK/GD32VW55x_RELEASE_V1.0.2/MSDK/lwip/libcoap-4.3.4/src\coap_debug.c **** static size_t
 169:C:/Users/stapi/OneDrive/Desktop/GD32VW553/GD32VW55X_Wifi_BLE_SDK/GD32VW55x_RELEASE_V1.0.2/MSDK/lwip/libcoap-4.3.4/src\coap_debug.c **** print_readable(const uint8_t *data, size_t len,
 170:C:/Users/stapi/OneDrive/Desktop/GD32VW553/GD32VW55X_Wifi_BLE_SDK/GD32VW55x_RELEASE_V1.0.2/MSDK/lwip/libcoap-4.3.4/src\coap_debug.c ****                unsigned char *result, size_t buflen, int encode_always) {
  25              		.loc 1 170 73
  26              		.cfi_startproc
  27              	.LVL0:
  28 0000 17030000 		call	t0,__riscv_save_5
  28      E7020300 
  29              		.cfi_offset 20, -24
  30              		.cfi_offset 19, -20
  31              		.cfi_offset 18, -16
  32              		.cfi_offset 9, -12
  33              		.cfi_offset 8, -8
  34              		.cfi_offset 1, -4
  35              		.cfi_def_cfa_offset 32
  36 0008 0111     		addi	sp,sp,-32
  37              		.cfi_def_cfa_offset 64
  38              		.loc 1 170 73 is_stmt 0
  39 000a 2E89     		mv	s2,a1
 171:C:/Users/stapi/OneDrive/Desktop/GD32VW553/GD32VW55X_Wifi_BLE_SDK/GD32VW55x_RELEASE_V1.0.2/MSDK/lwip/libcoap-4.3.4/src\coap_debug.c ****   const uint8_t hex[] = "0123456789ABCDEF";
  40              		.loc 1 171 17
  41 000c B7050000 		lui	a1,%hi(.LC0)
  42              	.LVL1:
 170:C:/Users/stapi/OneDrive/Desktop/GD32VW553/GD32VW55X_Wifi_BLE_SDK/GD32VW55x_RELEASE_V1.0.2/MSDK/lwip/libcoap-4.3.4/src\coap_debug.c ****   const uint8_t hex[] = "0123456789ABCDEF";
  43              		.loc 1 170 73
  44 0010 AA84     		mv	s1,a0
  45              		.loc 1 171 3 is_stmt 1
 170:C:/Users/stapi/OneDrive/Desktop/GD32VW553/GD32VW55X_Wifi_BLE_SDK/GD32VW55x_RELEASE_V1.0.2/MSDK/lwip/libcoap-4.3.4/src\coap_debug.c ****   const uint8_t hex[] = "0123456789ABCDEF";
  46              		.loc 1 170 73 is_stmt 0
  47 0012 3284     		mv	s0,a2
  48              		.loc 1 171 17
  49 0014 93850500 		addi	a1,a1,%lo(.LC0)
  50 0018 4546     		li	a2,17
  51              	.LVL2:
  52 001a 6800     		addi	a0,sp,12
  53              	.LVL3:
 170:C:/Users/stapi/OneDrive/Desktop/GD32VW553/GD32VW55X_Wifi_BLE_SDK/GD32VW55x_RELEASE_V1.0.2/MSDK/lwip/libcoap-4.3.4/src\coap_debug.c ****   const uint8_t hex[] = "0123456789ABCDEF";
  54              		.loc 1 170 73
  55 001c B689     		mv	s3,a3
  56 001e 3A8A     		mv	s4,a4
  57              		.loc 1 171 17
  58 0020 97000000 		call	memcpy
  58      E7800000 
  59              	.LVL4:
 172:C:/Users/stapi/OneDrive/Desktop/GD32VW553/GD32VW55X_Wifi_BLE_SDK/GD32VW55x_RELEASE_V1.0.2/MSDK/lwip/libcoap-4.3.4/src\coap_debug.c ****   size_t cnt = 0;
  60              		.loc 1 172 3 is_stmt 1
 173:C:/Users/stapi/OneDrive/Desktop/GD32VW553/GD32VW55X_Wifi_BLE_SDK/GD32VW55x_RELEASE_V1.0.2/MSDK/lwip/libcoap-4.3.4/src\coap_debug.c ****   assert(data || len == 0);
  61              		.loc 1 173 3
  62 0028 8DE4     		bne	s1,zero,.L2
  63              		.loc 1 173 3 is_stmt 0 discriminator 1
  64 002a 630C090A 		beq	s2,zero,.L3
  65              		.loc 1 173 3 discriminator 2
  66 002e B7060000 		lui	a3,%hi(.LC1)
  67 0032 37060000 		lui	a2,%hi(.LANCHOR0)
  68 0036 37050000 		lui	a0,%hi(.LC2)
  69 003a 93860600 		addi	a3,a3,%lo(.LC1)
  70 003e 13060600 		addi	a2,a2,%lo(.LANCHOR0)
  71 0042 9305D00A 		li	a1,173
  72 0046 13050500 		addi	a0,a0,%lo(.LC2)
  73 004a 97000000 		call	__assert_func
  73      E7800000 
  74              	.LVL5:
  75              	.L2:
 174:C:/Users/stapi/OneDrive/Desktop/GD32VW553/GD32VW55X_Wifi_BLE_SDK/GD32VW55x_RELEASE_V1.0.2/MSDK/lwip/libcoap-4.3.4/src\coap_debug.c **** 
 175:C:/Users/stapi/OneDrive/Desktop/GD32VW553/GD32VW55X_Wifi_BLE_SDK/GD32VW55x_RELEASE_V1.0.2/MSDK/lwip/libcoap-4.3.4/src\coap_debug.c ****   if (buflen == 0) { /* there is nothing we can do here but return */
  76              		.loc 1 175 3 is_stmt 1
  77              		.loc 1 175 6 is_stmt 0
  78 0052 63820902 		beq	s3,zero,.L13
 176:C:/Users/stapi/OneDrive/Desktop/GD32VW553/GD32VW55X_Wifi_BLE_SDK/GD32VW55x_RELEASE_V1.0.2/MSDK/lwip/libcoap-4.3.4/src\coap_debug.c ****     return 0;
 177:C:/Users/stapi/OneDrive/Desktop/GD32VW553/GD32VW55X_Wifi_BLE_SDK/GD32VW55x_RELEASE_V1.0.2/MSDK/lwip/libcoap-4.3.4/src\coap_debug.c ****   }
 178:C:/Users/stapi/OneDrive/Desktop/GD32VW553/GD32VW55X_Wifi_BLE_SDK/GD32VW55x_RELEASE_V1.0.2/MSDK/lwip/libcoap-4.3.4/src\coap_debug.c **** 
 179:C:/Users/stapi/OneDrive/Desktop/GD32VW553/GD32VW55X_Wifi_BLE_SDK/GD32VW55x_RELEASE_V1.0.2/MSDK/lwip/libcoap-4.3.4/src\coap_debug.c ****   while (len) {
 180:C:/Users/stapi/OneDrive/Desktop/GD32VW553/GD32VW55X_Wifi_BLE_SDK/GD32VW55x_RELEASE_V1.0.2/MSDK/lwip/libcoap-4.3.4/src\coap_debug.c ****     if (!encode_always && isprint(*data)) {
  79              		.loc 1 180 27
  80 0056 37070000 		lui	a4,%hi(_ctype_+1)
  81 005a B3852401 		add	a1,s1,s2
 181:C:/Users/stapi/OneDrive/Desktop/GD32VW553/GD32VW55X_Wifi_BLE_SDK/GD32VW55x_RELEASE_V1.0.2/MSDK/lwip/libcoap-4.3.4/src\coap_debug.c ****       if (cnt+1 < buflen) { /* keep one byte for terminating zero */
 182:C:/Users/stapi/OneDrive/Desktop/GD32VW553/GD32VW55X_Wifi_BLE_SDK/GD32VW55x_RELEASE_V1.0.2/MSDK/lwip/libcoap-4.3.4/src\coap_debug.c ****         *result++ = *data;
 183:C:/Users/stapi/OneDrive/Desktop/GD32VW553/GD32VW55X_Wifi_BLE_SDK/GD32VW55x_RELEASE_V1.0.2/MSDK/lwip/libcoap-4.3.4/src\coap_debug.c ****         ++cnt;
 184:C:/Users/stapi/OneDrive/Desktop/GD32VW553/GD32VW55X_Wifi_BLE_SDK/GD32VW55x_RELEASE_V1.0.2/MSDK/lwip/libcoap-4.3.4/src\coap_debug.c ****       } else {
 185:C:/Users/stapi/OneDrive/Desktop/GD32VW553/GD32VW55X_Wifi_BLE_SDK/GD32VW55x_RELEASE_V1.0.2/MSDK/lwip/libcoap-4.3.4/src\coap_debug.c ****         break;
 186:C:/Users/stapi/OneDrive/Desktop/GD32VW553/GD32VW55X_Wifi_BLE_SDK/GD32VW55x_RELEASE_V1.0.2/MSDK/lwip/libcoap-4.3.4/src\coap_debug.c ****       }
 187:C:/Users/stapi/OneDrive/Desktop/GD32VW553/GD32VW55X_Wifi_BLE_SDK/GD32VW55x_RELEASE_V1.0.2/MSDK/lwip/libcoap-4.3.4/src\coap_debug.c ****     } else {
 188:C:/Users/stapi/OneDrive/Desktop/GD32VW553/GD32VW55X_Wifi_BLE_SDK/GD32VW55x_RELEASE_V1.0.2/MSDK/lwip/libcoap-4.3.4/src\coap_debug.c ****       if (cnt+4 < buflen) { /* keep one byte for terminating zero */
 189:C:/Users/stapi/OneDrive/Desktop/GD32VW553/GD32VW55X_Wifi_BLE_SDK/GD32VW55x_RELEASE_V1.0.2/MSDK/lwip/libcoap-4.3.4/src\coap_debug.c ****         *result++ = '\\';
  82              		.loc 1 189 19
  83 005e 1305C005 		li	a0,92
 172:C:/Users/stapi/OneDrive/Desktop/GD32VW553/GD32VW55X_Wifi_BLE_SDK/GD32VW55x_RELEASE_V1.0.2/MSDK/lwip/libcoap-4.3.4/src\coap_debug.c ****   assert(data || len == 0);
  84              		.loc 1 172 10
  85 0062 0149     		li	s2,0
  86              	.LVL6:
 190:C:/Users/stapi/OneDrive/Desktop/GD32VW553/GD32VW55X_Wifi_BLE_SDK/GD32VW55x_RELEASE_V1.0.2/MSDK/lwip/libcoap-4.3.4/src\coap_debug.c ****         *result++ = 'x';
  87              		.loc 1 190 19
  88 0064 13088007 		li	a6,120
 180:C:/Users/stapi/OneDrive/Desktop/GD32VW553/GD32VW55X_Wifi_BLE_SDK/GD32VW55x_RELEASE_V1.0.2/MSDK/lwip/libcoap-4.3.4/src\coap_debug.c ****       if (cnt+1 < buflen) { /* keep one byte for terminating zero */
  89              		.loc 1 180 27
  90 0068 13071700 		addi	a4,a4,%lo(_ctype_+1)
  91              	.LVL7:
  92              	.L5:
 179:C:/Users/stapi/OneDrive/Desktop/GD32VW553/GD32VW55X_Wifi_BLE_SDK/GD32VW55x_RELEASE_V1.0.2/MSDK/lwip/libcoap-4.3.4/src\coap_debug.c ****     if (!encode_always && isprint(*data)) {
  93              		.loc 1 179 9 is_stmt 1
  94 006c 639BB400 		bne	s1,a1,.L9
  95              	.L7:
  96              	.LVL8:
 191:C:/Users/stapi/OneDrive/Desktop/GD32VW553/GD32VW55X_Wifi_BLE_SDK/GD32VW55x_RELEASE_V1.0.2/MSDK/lwip/libcoap-4.3.4/src\coap_debug.c ****         *result++ = hex[(*data & 0xf0) >> 4];
 192:C:/Users/stapi/OneDrive/Desktop/GD32VW553/GD32VW55X_Wifi_BLE_SDK/GD32VW55x_RELEASE_V1.0.2/MSDK/lwip/libcoap-4.3.4/src\coap_debug.c ****         *result++ = hex[*data & 0x0f];
 193:C:/Users/stapi/OneDrive/Desktop/GD32VW553/GD32VW55X_Wifi_BLE_SDK/GD32VW55x_RELEASE_V1.0.2/MSDK/lwip/libcoap-4.3.4/src\coap_debug.c ****         cnt += 4;
 194:C:/Users/stapi/OneDrive/Desktop/GD32VW553/GD32VW55X_Wifi_BLE_SDK/GD32VW55x_RELEASE_V1.0.2/MSDK/lwip/libcoap-4.3.4/src\coap_debug.c ****       } else
 195:C:/Users/stapi/OneDrive/Desktop/GD32VW553/GD32VW55X_Wifi_BLE_SDK/GD32VW55x_RELEASE_V1.0.2/MSDK/lwip/libcoap-4.3.4/src\coap_debug.c ****         break;
 196:C:/Users/stapi/OneDrive/Desktop/GD32VW553/GD32VW55X_Wifi_BLE_SDK/GD32VW55x_RELEASE_V1.0.2/MSDK/lwip/libcoap-4.3.4/src\coap_debug.c ****     }
 197:C:/Users/stapi/OneDrive/Desktop/GD32VW553/GD32VW55X_Wifi_BLE_SDK/GD32VW55x_RELEASE_V1.0.2/MSDK/lwip/libcoap-4.3.4/src\coap_debug.c **** 
 198:C:/Users/stapi/OneDrive/Desktop/GD32VW553/GD32VW55X_Wifi_BLE_SDK/GD32VW55x_RELEASE_V1.0.2/MSDK/lwip/libcoap-4.3.4/src\coap_debug.c ****     ++data;
 199:C:/Users/stapi/OneDrive/Desktop/GD32VW553/GD32VW55X_Wifi_BLE_SDK/GD32VW55x_RELEASE_V1.0.2/MSDK/lwip/libcoap-4.3.4/src\coap_debug.c ****     --len;
 200:C:/Users/stapi/OneDrive/Desktop/GD32VW553/GD32VW55X_Wifi_BLE_SDK/GD32VW55x_RELEASE_V1.0.2/MSDK/lwip/libcoap-4.3.4/src\coap_debug.c ****   }
 201:C:/Users/stapi/OneDrive/Desktop/GD32VW553/GD32VW55X_Wifi_BLE_SDK/GD32VW55x_RELEASE_V1.0.2/MSDK/lwip/libcoap-4.3.4/src\coap_debug.c **** 
 202:C:/Users/stapi/OneDrive/Desktop/GD32VW553/GD32VW55X_Wifi_BLE_SDK/GD32VW55x_RELEASE_V1.0.2/MSDK/lwip/libcoap-4.3.4/src\coap_debug.c ****   *result = '\0'; /* add a terminating zero */
  97              		.loc 1 202 3
  98              		.loc 1 202 11 is_stmt 0
  99 0070 23000400 		sb	zero,0(s0)
 203:C:/Users/stapi/OneDrive/Desktop/GD32VW553/GD32VW55X_Wifi_BLE_SDK/GD32VW55x_RELEASE_V1.0.2/MSDK/lwip/libcoap-4.3.4/src\coap_debug.c ****   return cnt;
 100              		.loc 1 203 3 is_stmt 1
 101              		.loc 1 203 10 is_stmt 0
 102 0074 CA89     		mv	s3,s2
 103              	.LVL9:
 104              	.L13:
 204:C:/Users/stapi/OneDrive/Desktop/GD32VW553/GD32VW55X_Wifi_BLE_SDK/GD32VW55x_RELEASE_V1.0.2/MSDK/lwip/libcoap-4.3.4/src\coap_debug.c **** }
 105              		.loc 1 204 1
 106 0076 4E85     		mv	a0,s3
 107 0078 0561     		addi	sp,sp,32
 108              		.cfi_remember_state
 109              		.cfi_def_cfa_offset 0
 110 007a 17030000 		tail	__riscv_restore_5
 110      67000300 
 111              		.cfi_restore 20
 112              		.cfi_restore 19
 113              		.cfi_restore 18
 114              		.cfi_restore 9
 115              		.cfi_restore 8
 116              		.cfi_restore 1
 117              		.cfi_def_cfa_offset -32
 118              	.LVL10:
 119              	.L9:
 120              		.cfi_restore_state
 180:C:/Users/stapi/OneDrive/Desktop/GD32VW553/GD32VW55X_Wifi_BLE_SDK/GD32VW55x_RELEASE_V1.0.2/MSDK/lwip/libcoap-4.3.4/src\coap_debug.c ****       if (cnt+1 < buflen) { /* keep one byte for terminating zero */
 121              		.loc 1 180 5 is_stmt 1
 180:C:/Users/stapi/OneDrive/Desktop/GD32VW553/GD32VW55X_Wifi_BLE_SDK/GD32VW55x_RELEASE_V1.0.2/MSDK/lwip/libcoap-4.3.4/src\coap_debug.c ****       if (cnt+1 < buflen) { /* keep one byte for terminating zero */
 122              		.loc 1 180 8 is_stmt 0
 123 0082 63150A02 		bne	s4,zero,.L6
 180:C:/Users/stapi/OneDrive/Desktop/GD32VW553/GD32VW55X_Wifi_BLE_SDK/GD32VW55x_RELEASE_V1.0.2/MSDK/lwip/libcoap-4.3.4/src\coap_debug.c ****       if (cnt+1 < buflen) { /* keep one byte for terminating zero */
 124              		.loc 1 180 27 discriminator 1
 125 0086 03C60400 		lbu	a2,0(s1)
 126 008a B307E600 		add	a5,a2,a4
 127 008e 83870700 		lb	a5,0(a5)
 128 0092 93F77709 		andi	a5,a5,151
 180:C:/Users/stapi/OneDrive/Desktop/GD32VW553/GD32VW55X_Wifi_BLE_SDK/GD32VW55x_RELEASE_V1.0.2/MSDK/lwip/libcoap-4.3.4/src\coap_debug.c ****       if (cnt+1 < buflen) { /* keep one byte for terminating zero */
 129              		.loc 1 180 24 discriminator 1
 130 0096 99CB     		beq	a5,zero,.L6
 181:C:/Users/stapi/OneDrive/Desktop/GD32VW553/GD32VW55X_Wifi_BLE_SDK/GD32VW55x_RELEASE_V1.0.2/MSDK/lwip/libcoap-4.3.4/src\coap_debug.c ****         *result++ = *data;
 131              		.loc 1 181 7 is_stmt 1
 181:C:/Users/stapi/OneDrive/Desktop/GD32VW553/GD32VW55X_Wifi_BLE_SDK/GD32VW55x_RELEASE_V1.0.2/MSDK/lwip/libcoap-4.3.4/src\coap_debug.c ****         *result++ = *data;
 132              		.loc 1 181 14 is_stmt 0
 133 0098 93061900 		addi	a3,s2,1
 181:C:/Users/stapi/OneDrive/Desktop/GD32VW553/GD32VW55X_Wifi_BLE_SDK/GD32VW55x_RELEASE_V1.0.2/MSDK/lwip/libcoap-4.3.4/src\coap_debug.c ****         *result++ = *data;
 134              		.loc 1 181 10
 135 009c E3FA36FD 		bgeu	a3,s3,.L7
 182:C:/Users/stapi/OneDrive/Desktop/GD32VW553/GD32VW55X_Wifi_BLE_SDK/GD32VW55x_RELEASE_V1.0.2/MSDK/lwip/libcoap-4.3.4/src\coap_debug.c ****         ++cnt;
 136              		.loc 1 182 9 is_stmt 1
 137              	.LVL11:
 182:C:/Users/stapi/OneDrive/Desktop/GD32VW553/GD32VW55X_Wifi_BLE_SDK/GD32VW55x_RELEASE_V1.0.2/MSDK/lwip/libcoap-4.3.4/src\coap_debug.c ****         ++cnt;
 138              		.loc 1 182 19 is_stmt 0
 139 00a0 2300C400 		sb	a2,0(s0)
 183:C:/Users/stapi/OneDrive/Desktop/GD32VW553/GD32VW55X_Wifi_BLE_SDK/GD32VW55x_RELEASE_V1.0.2/MSDK/lwip/libcoap-4.3.4/src\coap_debug.c ****       } else {
 140              		.loc 1 183 9 is_stmt 1
 141              	.LVL12:
 182:C:/Users/stapi/OneDrive/Desktop/GD32VW553/GD32VW55X_Wifi_BLE_SDK/GD32VW55x_RELEASE_V1.0.2/MSDK/lwip/libcoap-4.3.4/src\coap_debug.c ****         ++cnt;
 142              		.loc 1 182 16 is_stmt 0
 143 00a4 0504     		addi	s0,s0,1
 144              	.LVL13:
 145              	.L8:
 198:C:/Users/stapi/OneDrive/Desktop/GD32VW553/GD32VW55X_Wifi_BLE_SDK/GD32VW55x_RELEASE_V1.0.2/MSDK/lwip/libcoap-4.3.4/src\coap_debug.c ****     --len;
 146              		.loc 1 198 5 is_stmt 1
 147 00a6 8504     		addi	s1,s1,1
 148              	.LVL14:
 199:C:/Users/stapi/OneDrive/Desktop/GD32VW553/GD32VW55X_Wifi_BLE_SDK/GD32VW55x_RELEASE_V1.0.2/MSDK/lwip/libcoap-4.3.4/src\coap_debug.c ****   }
 149              		.loc 1 199 5
 198:C:/Users/stapi/OneDrive/Desktop/GD32VW553/GD32VW55X_Wifi_BLE_SDK/GD32VW55x_RELEASE_V1.0.2/MSDK/lwip/libcoap-4.3.4/src\coap_debug.c ****     --len;
 150              		.loc 1 198 5 is_stmt 0
 151 00a8 3689     		mv	s2,a3
 152 00aa C9B7     		j	.L5
 153              	.LVL15:
 154              	.L6:
 188:C:/Users/stapi/OneDrive/Desktop/GD32VW553/GD32VW55X_Wifi_BLE_SDK/GD32VW55x_RELEASE_V1.0.2/MSDK/lwip/libcoap-4.3.4/src\coap_debug.c ****         *result++ = '\\';
 155              		.loc 1 188 7 is_stmt 1
 188:C:/Users/stapi/OneDrive/Desktop/GD32VW553/GD32VW55X_Wifi_BLE_SDK/GD32VW55x_RELEASE_V1.0.2/MSDK/lwip/libcoap-4.3.4/src\coap_debug.c ****         *result++ = '\\';
 156              		.loc 1 188 14 is_stmt 0
 157 00ac 93064900 		addi	a3,s2,4
 188:C:/Users/stapi/OneDrive/Desktop/GD32VW553/GD32VW55X_Wifi_BLE_SDK/GD32VW55x_RELEASE_V1.0.2/MSDK/lwip/libcoap-4.3.4/src\coap_debug.c ****         *result++ = '\\';
 158              		.loc 1 188 10
 159 00b0 E3F036FD 		bgeu	a3,s3,.L7
 189:C:/Users/stapi/OneDrive/Desktop/GD32VW553/GD32VW55X_Wifi_BLE_SDK/GD32VW55x_RELEASE_V1.0.2/MSDK/lwip/libcoap-4.3.4/src\coap_debug.c ****         *result++ = 'x';
 160              		.loc 1 189 9 is_stmt 1
 161              	.LVL16:
 189:C:/Users/stapi/OneDrive/Desktop/GD32VW553/GD32VW55X_Wifi_BLE_SDK/GD32VW55x_RELEASE_V1.0.2/MSDK/lwip/libcoap-4.3.4/src\coap_debug.c ****         *result++ = 'x';
 162              		.loc 1 189 19 is_stmt 0
 163 00b4 2300A400 		sb	a0,0(s0)
 190:C:/Users/stapi/OneDrive/Desktop/GD32VW553/GD32VW55X_Wifi_BLE_SDK/GD32VW55x_RELEASE_V1.0.2/MSDK/lwip/libcoap-4.3.4/src\coap_debug.c ****         *result++ = hex[(*data & 0xf0) >> 4];
 164              		.loc 1 190 9 is_stmt 1
 165              	.LVL17:
 190:C:/Users/stapi/OneDrive/Desktop/GD32VW553/GD32VW55X_Wifi_BLE_SDK/GD32VW55x_RELEASE_V1.0.2/MSDK/lwip/libcoap-4.3.4/src\coap_debug.c ****         *result++ = hex[(*data & 0xf0) >> 4];
 166              		.loc 1 190 19 is_stmt 0
 167 00b8 A3000401 		sb	a6,1(s0)
 191:C:/Users/stapi/OneDrive/Desktop/GD32VW553/GD32VW55X_Wifi_BLE_SDK/GD32VW55x_RELEASE_V1.0.2/MSDK/lwip/libcoap-4.3.4/src\coap_debug.c ****         *result++ = hex[*data & 0x0f];
 168              		.loc 1 191 9 is_stmt 1
 169              	.LVL18:
 191:C:/Users/stapi/OneDrive/Desktop/GD32VW553/GD32VW55X_Wifi_BLE_SDK/GD32VW55x_RELEASE_V1.0.2/MSDK/lwip/libcoap-4.3.4/src\coap_debug.c ****         *result++ = hex[*data & 0x0f];
 170              		.loc 1 191 40 is_stmt 0
 171 00bc 83C70400 		lbu	a5,0(s1)
 191:C:/Users/stapi/OneDrive/Desktop/GD32VW553/GD32VW55X_Wifi_BLE_SDK/GD32VW55x_RELEASE_V1.0.2/MSDK/lwip/libcoap-4.3.4/src\coap_debug.c ****         *result++ = hex[*data & 0x0f];
 172              		.loc 1 191 24
 173 00c0 1010     		addi	a2,sp,32
 192:C:/Users/stapi/OneDrive/Desktop/GD32VW553/GD32VW55X_Wifi_BLE_SDK/GD32VW55x_RELEASE_V1.0.2/MSDK/lwip/libcoap-4.3.4/src\coap_debug.c ****         cnt += 4;
 174              		.loc 1 192 16
 175 00c2 1104     		addi	s0,s0,4
 176              	.LVL19:
 191:C:/Users/stapi/OneDrive/Desktop/GD32VW553/GD32VW55X_Wifi_BLE_SDK/GD32VW55x_RELEASE_V1.0.2/MSDK/lwip/libcoap-4.3.4/src\coap_debug.c ****         *result++ = hex[*data & 0x0f];
 177              		.loc 1 191 40
 178 00c4 9183     		srli	a5,a5,4
 191:C:/Users/stapi/OneDrive/Desktop/GD32VW553/GD32VW55X_Wifi_BLE_SDK/GD32VW55x_RELEASE_V1.0.2/MSDK/lwip/libcoap-4.3.4/src\coap_debug.c ****         *result++ = hex[*data & 0x0f];
 179              		.loc 1 191 24
 180 00c6 B297     		add	a5,a2,a5
 191:C:/Users/stapi/OneDrive/Desktop/GD32VW553/GD32VW55X_Wifi_BLE_SDK/GD32VW55x_RELEASE_V1.0.2/MSDK/lwip/libcoap-4.3.4/src\coap_debug.c ****         *result++ = hex[*data & 0x0f];
 181              		.loc 1 191 19
 182 00c8 83C7C7FE 		lbu	a5,-20(a5)
 183 00cc 230FF4FE 		sb	a5,-2(s0)
 192:C:/Users/stapi/OneDrive/Desktop/GD32VW553/GD32VW55X_Wifi_BLE_SDK/GD32VW55x_RELEASE_V1.0.2/MSDK/lwip/libcoap-4.3.4/src\coap_debug.c ****         cnt += 4;
 184              		.loc 1 192 9 is_stmt 1
 185              	.LVL20:
 192:C:/Users/stapi/OneDrive/Desktop/GD32VW553/GD32VW55X_Wifi_BLE_SDK/GD32VW55x_RELEASE_V1.0.2/MSDK/lwip/libcoap-4.3.4/src\coap_debug.c ****         cnt += 4;
 186              		.loc 1 192 31 is_stmt 0
 187 00d0 83C70400 		lbu	a5,0(s1)
 188 00d4 BD8B     		andi	a5,a5,15
 192:C:/Users/stapi/OneDrive/Desktop/GD32VW553/GD32VW55X_Wifi_BLE_SDK/GD32VW55x_RELEASE_V1.0.2/MSDK/lwip/libcoap-4.3.4/src\coap_debug.c ****         cnt += 4;
 189              		.loc 1 192 24
 190 00d6 B297     		add	a5,a2,a5
 192:C:/Users/stapi/OneDrive/Desktop/GD32VW553/GD32VW55X_Wifi_BLE_SDK/GD32VW55x_RELEASE_V1.0.2/MSDK/lwip/libcoap-4.3.4/src\coap_debug.c ****         cnt += 4;
 191              		.loc 1 192 19
 192 00d8 83C7C7FE 		lbu	a5,-20(a5)
 193 00dc A30FF4FE 		sb	a5,-1(s0)
 193:C:/Users/stapi/OneDrive/Desktop/GD32VW553/GD32VW55X_Wifi_BLE_SDK/GD32VW55x_RELEASE_V1.0.2/MSDK/lwip/libcoap-4.3.4/src\coap_debug.c ****       } else
 194              		.loc 1 193 9 is_stmt 1
 195              	.LVL21:
 196 00e0 D9B7     		j	.L8
 197              	.LVL22:
 198              	.L3:
 175:C:/Users/stapi/OneDrive/Desktop/GD32VW553/GD32VW55X_Wifi_BLE_SDK/GD32VW55x_RELEASE_V1.0.2/MSDK/lwip/libcoap-4.3.4/src\coap_debug.c ****     return 0;
 199              		.loc 1 175 3
 175:C:/Users/stapi/OneDrive/Desktop/GD32VW553/GD32VW55X_Wifi_BLE_SDK/GD32VW55x_RELEASE_V1.0.2/MSDK/lwip/libcoap-4.3.4/src\coap_debug.c ****     return 0;
 200              		.loc 1 175 6 is_stmt 0
 201 00e2 E39709F8 		bne	s3,zero,.L7
 202 00e6 41BF     		j	.L13
 203              		.cfi_endproc
 204              	.LFE38:
 206              		.section	.rodata.msg_code_string.str1.4,"aMS",@progbits,1
 207              		.align	2
 208              	.LC3:
 209 0000 25752E25 		.string	"%u.%02u"
 209      30327500 
 210              		.section	.text.msg_code_string,"ax",@progbits
 211              		.align	1
 213              	msg_code_string:
 214              	.LFB42:
 205:C:/Users/stapi/OneDrive/Desktop/GD32VW553/GD32VW55X_Wifi_BLE_SDK/GD32VW55x_RELEASE_V1.0.2/MSDK/lwip/libcoap-4.3.4/src\coap_debug.c **** 
 206:C:/Users/stapi/OneDrive/Desktop/GD32VW553/GD32VW55X_Wifi_BLE_SDK/GD32VW55x_RELEASE_V1.0.2/MSDK/lwip/libcoap-4.3.4/src\coap_debug.c **** #ifndef min
 207:C:/Users/stapi/OneDrive/Desktop/GD32VW553/GD32VW55X_Wifi_BLE_SDK/GD32VW55x_RELEASE_V1.0.2/MSDK/lwip/libcoap-4.3.4/src\coap_debug.c **** #define min(a,b) ((a) < (b) ? (a) : (b))
 208:C:/Users/stapi/OneDrive/Desktop/GD32VW553/GD32VW55X_Wifi_BLE_SDK/GD32VW55x_RELEASE_V1.0.2/MSDK/lwip/libcoap-4.3.4/src\coap_debug.c **** #endif
 209:C:/Users/stapi/OneDrive/Desktop/GD32VW553/GD32VW55X_Wifi_BLE_SDK/GD32VW55x_RELEASE_V1.0.2/MSDK/lwip/libcoap-4.3.4/src\coap_debug.c **** 
 210:C:/Users/stapi/OneDrive/Desktop/GD32VW553/GD32VW55X_Wifi_BLE_SDK/GD32VW55x_RELEASE_V1.0.2/MSDK/lwip/libcoap-4.3.4/src\coap_debug.c **** #ifndef INET6_ADDRSTRLEN
 211:C:/Users/stapi/OneDrive/Desktop/GD32VW553/GD32VW55X_Wifi_BLE_SDK/GD32VW55x_RELEASE_V1.0.2/MSDK/lwip/libcoap-4.3.4/src\coap_debug.c **** #define INET6_ADDRSTRLEN 46
 212:C:/Users/stapi/OneDrive/Desktop/GD32VW553/GD32VW55X_Wifi_BLE_SDK/GD32VW55x_RELEASE_V1.0.2/MSDK/lwip/libcoap-4.3.4/src\coap_debug.c **** #endif
 213:C:/Users/stapi/OneDrive/Desktop/GD32VW553/GD32VW55X_Wifi_BLE_SDK/GD32VW55x_RELEASE_V1.0.2/MSDK/lwip/libcoap-4.3.4/src\coap_debug.c **** /*
 214:C:/Users/stapi/OneDrive/Desktop/GD32VW553/GD32VW55X_Wifi_BLE_SDK/GD32VW55x_RELEASE_V1.0.2/MSDK/lwip/libcoap-4.3.4/src\coap_debug.c ****  * Returned buf is always NULL terminated.
 215:C:/Users/stapi/OneDrive/Desktop/GD32VW553/GD32VW55X_Wifi_BLE_SDK/GD32VW55x_RELEASE_V1.0.2/MSDK/lwip/libcoap-4.3.4/src\coap_debug.c ****  * Returned size is number of characters, not including NULL terminator.
 216:C:/Users/stapi/OneDrive/Desktop/GD32VW553/GD32VW55X_Wifi_BLE_SDK/GD32VW55x_RELEASE_V1.0.2/MSDK/lwip/libcoap-4.3.4/src\coap_debug.c ****  */
 217:C:/Users/stapi/OneDrive/Desktop/GD32VW553/GD32VW55X_Wifi_BLE_SDK/GD32VW55x_RELEASE_V1.0.2/MSDK/lwip/libcoap-4.3.4/src\coap_debug.c **** size_t
 218:C:/Users/stapi/OneDrive/Desktop/GD32VW553/GD32VW55X_Wifi_BLE_SDK/GD32VW55x_RELEASE_V1.0.2/MSDK/lwip/libcoap-4.3.4/src\coap_debug.c **** coap_print_addr(const coap_address_t *addr, unsigned char *buf, size_t len) {
 219:C:/Users/stapi/OneDrive/Desktop/GD32VW553/GD32VW55X_Wifi_BLE_SDK/GD32VW55x_RELEASE_V1.0.2/MSDK/lwip/libcoap-4.3.4/src\coap_debug.c **** #if defined( HAVE_ARPA_INET_H ) || defined( HAVE_WS2TCPIP_H )
 220:C:/Users/stapi/OneDrive/Desktop/GD32VW553/GD32VW55X_Wifi_BLE_SDK/GD32VW55x_RELEASE_V1.0.2/MSDK/lwip/libcoap-4.3.4/src\coap_debug.c ****   char scratch[INET6_ADDRSTRLEN];
 221:C:/Users/stapi/OneDrive/Desktop/GD32VW553/GD32VW55X_Wifi_BLE_SDK/GD32VW55x_RELEASE_V1.0.2/MSDK/lwip/libcoap-4.3.4/src\coap_debug.c **** 
 222:C:/Users/stapi/OneDrive/Desktop/GD32VW553/GD32VW55X_Wifi_BLE_SDK/GD32VW55x_RELEASE_V1.0.2/MSDK/lwip/libcoap-4.3.4/src\coap_debug.c ****   assert(buf);
 223:C:/Users/stapi/OneDrive/Desktop/GD32VW553/GD32VW55X_Wifi_BLE_SDK/GD32VW55x_RELEASE_V1.0.2/MSDK/lwip/libcoap-4.3.4/src\coap_debug.c ****   assert(len);
 224:C:/Users/stapi/OneDrive/Desktop/GD32VW553/GD32VW55X_Wifi_BLE_SDK/GD32VW55x_RELEASE_V1.0.2/MSDK/lwip/libcoap-4.3.4/src\coap_debug.c ****   buf[0] = '\000';
 225:C:/Users/stapi/OneDrive/Desktop/GD32VW553/GD32VW55X_Wifi_BLE_SDK/GD32VW55x_RELEASE_V1.0.2/MSDK/lwip/libcoap-4.3.4/src\coap_debug.c **** 
 226:C:/Users/stapi/OneDrive/Desktop/GD32VW553/GD32VW55X_Wifi_BLE_SDK/GD32VW55x_RELEASE_V1.0.2/MSDK/lwip/libcoap-4.3.4/src\coap_debug.c ****   switch (addr->addr.sa.sa_family) {
 227:C:/Users/stapi/OneDrive/Desktop/GD32VW553/GD32VW55X_Wifi_BLE_SDK/GD32VW55x_RELEASE_V1.0.2/MSDK/lwip/libcoap-4.3.4/src\coap_debug.c **** #if COAP_IPV4_SUPPORT
 228:C:/Users/stapi/OneDrive/Desktop/GD32VW553/GD32VW55X_Wifi_BLE_SDK/GD32VW55x_RELEASE_V1.0.2/MSDK/lwip/libcoap-4.3.4/src\coap_debug.c ****   case AF_INET:
 229:C:/Users/stapi/OneDrive/Desktop/GD32VW553/GD32VW55X_Wifi_BLE_SDK/GD32VW55x_RELEASE_V1.0.2/MSDK/lwip/libcoap-4.3.4/src\coap_debug.c ****     snprintf((char *)buf, len, "%s:%d",
 230:C:/Users/stapi/OneDrive/Desktop/GD32VW553/GD32VW55X_Wifi_BLE_SDK/GD32VW55x_RELEASE_V1.0.2/MSDK/lwip/libcoap-4.3.4/src\coap_debug.c ****              coap_print_ip_addr(addr, scratch, sizeof(scratch)),
 231:C:/Users/stapi/OneDrive/Desktop/GD32VW553/GD32VW55X_Wifi_BLE_SDK/GD32VW55x_RELEASE_V1.0.2/MSDK/lwip/libcoap-4.3.4/src\coap_debug.c ****              coap_address_get_port(addr));
 232:C:/Users/stapi/OneDrive/Desktop/GD32VW553/GD32VW55X_Wifi_BLE_SDK/GD32VW55x_RELEASE_V1.0.2/MSDK/lwip/libcoap-4.3.4/src\coap_debug.c ****     break;
 233:C:/Users/stapi/OneDrive/Desktop/GD32VW553/GD32VW55X_Wifi_BLE_SDK/GD32VW55x_RELEASE_V1.0.2/MSDK/lwip/libcoap-4.3.4/src\coap_debug.c **** #endif /* COAP_IPV4_SUPPORT */
 234:C:/Users/stapi/OneDrive/Desktop/GD32VW553/GD32VW55X_Wifi_BLE_SDK/GD32VW55x_RELEASE_V1.0.2/MSDK/lwip/libcoap-4.3.4/src\coap_debug.c **** #if COAP_IPV6_SUPPORT
 235:C:/Users/stapi/OneDrive/Desktop/GD32VW553/GD32VW55X_Wifi_BLE_SDK/GD32VW55x_RELEASE_V1.0.2/MSDK/lwip/libcoap-4.3.4/src\coap_debug.c ****   case AF_INET6:
 236:C:/Users/stapi/OneDrive/Desktop/GD32VW553/GD32VW55X_Wifi_BLE_SDK/GD32VW55x_RELEASE_V1.0.2/MSDK/lwip/libcoap-4.3.4/src\coap_debug.c ****     snprintf((char *)buf, len, "[%s]:%d",
 237:C:/Users/stapi/OneDrive/Desktop/GD32VW553/GD32VW55X_Wifi_BLE_SDK/GD32VW55x_RELEASE_V1.0.2/MSDK/lwip/libcoap-4.3.4/src\coap_debug.c ****              coap_print_ip_addr(addr, scratch, sizeof(scratch)),
 238:C:/Users/stapi/OneDrive/Desktop/GD32VW553/GD32VW55X_Wifi_BLE_SDK/GD32VW55x_RELEASE_V1.0.2/MSDK/lwip/libcoap-4.3.4/src\coap_debug.c ****              coap_address_get_port(addr));
 239:C:/Users/stapi/OneDrive/Desktop/GD32VW553/GD32VW55X_Wifi_BLE_SDK/GD32VW55x_RELEASE_V1.0.2/MSDK/lwip/libcoap-4.3.4/src\coap_debug.c ****     break;
 240:C:/Users/stapi/OneDrive/Desktop/GD32VW553/GD32VW55X_Wifi_BLE_SDK/GD32VW55x_RELEASE_V1.0.2/MSDK/lwip/libcoap-4.3.4/src\coap_debug.c **** #endif /* COAP_IPV6_SUPPORT */
 241:C:/Users/stapi/OneDrive/Desktop/GD32VW553/GD32VW55X_Wifi_BLE_SDK/GD32VW55x_RELEASE_V1.0.2/MSDK/lwip/libcoap-4.3.4/src\coap_debug.c **** #if COAP_AF_UNIX_SUPPORT
 242:C:/Users/stapi/OneDrive/Desktop/GD32VW553/GD32VW55X_Wifi_BLE_SDK/GD32VW55x_RELEASE_V1.0.2/MSDK/lwip/libcoap-4.3.4/src\coap_debug.c ****   case AF_UNIX:
 243:C:/Users/stapi/OneDrive/Desktop/GD32VW553/GD32VW55X_Wifi_BLE_SDK/GD32VW55x_RELEASE_V1.0.2/MSDK/lwip/libcoap-4.3.4/src\coap_debug.c ****     snprintf((char *)buf, len, "'%s'", addr->addr.cun.sun_path);
 244:C:/Users/stapi/OneDrive/Desktop/GD32VW553/GD32VW55X_Wifi_BLE_SDK/GD32VW55x_RELEASE_V1.0.2/MSDK/lwip/libcoap-4.3.4/src\coap_debug.c ****     break;
 245:C:/Users/stapi/OneDrive/Desktop/GD32VW553/GD32VW55X_Wifi_BLE_SDK/GD32VW55x_RELEASE_V1.0.2/MSDK/lwip/libcoap-4.3.4/src\coap_debug.c **** #endif /* COAP_AF_UNIX_SUPPORT */
 246:C:/Users/stapi/OneDrive/Desktop/GD32VW553/GD32VW55X_Wifi_BLE_SDK/GD32VW55x_RELEASE_V1.0.2/MSDK/lwip/libcoap-4.3.4/src\coap_debug.c ****   default:
 247:C:/Users/stapi/OneDrive/Desktop/GD32VW553/GD32VW55X_Wifi_BLE_SDK/GD32VW55x_RELEASE_V1.0.2/MSDK/lwip/libcoap-4.3.4/src\coap_debug.c ****     /* Include trailing NULL if possible */
 248:C:/Users/stapi/OneDrive/Desktop/GD32VW553/GD32VW55X_Wifi_BLE_SDK/GD32VW55x_RELEASE_V1.0.2/MSDK/lwip/libcoap-4.3.4/src\coap_debug.c ****     memcpy(buf, "(unknown address type)", min(22+1, len));
 249:C:/Users/stapi/OneDrive/Desktop/GD32VW553/GD32VW55X_Wifi_BLE_SDK/GD32VW55x_RELEASE_V1.0.2/MSDK/lwip/libcoap-4.3.4/src\coap_debug.c ****     buf[len-1] = '\000';
 250:C:/Users/stapi/OneDrive/Desktop/GD32VW553/GD32VW55X_Wifi_BLE_SDK/GD32VW55x_RELEASE_V1.0.2/MSDK/lwip/libcoap-4.3.4/src\coap_debug.c ****     break;
 251:C:/Users/stapi/OneDrive/Desktop/GD32VW553/GD32VW55X_Wifi_BLE_SDK/GD32VW55x_RELEASE_V1.0.2/MSDK/lwip/libcoap-4.3.4/src\coap_debug.c ****   }
 252:C:/Users/stapi/OneDrive/Desktop/GD32VW553/GD32VW55X_Wifi_BLE_SDK/GD32VW55x_RELEASE_V1.0.2/MSDK/lwip/libcoap-4.3.4/src\coap_debug.c ****   return strlen((char *)buf);
 253:C:/Users/stapi/OneDrive/Desktop/GD32VW553/GD32VW55X_Wifi_BLE_SDK/GD32VW55x_RELEASE_V1.0.2/MSDK/lwip/libcoap-4.3.4/src\coap_debug.c **** 
 254:C:/Users/stapi/OneDrive/Desktop/GD32VW553/GD32VW55X_Wifi_BLE_SDK/GD32VW55x_RELEASE_V1.0.2/MSDK/lwip/libcoap-4.3.4/src\coap_debug.c **** #else /* HAVE_ARPA_INET_H */
 255:C:/Users/stapi/OneDrive/Desktop/GD32VW553/GD32VW55X_Wifi_BLE_SDK/GD32VW55x_RELEASE_V1.0.2/MSDK/lwip/libcoap-4.3.4/src\coap_debug.c **** 
 256:C:/Users/stapi/OneDrive/Desktop/GD32VW553/GD32VW55X_Wifi_BLE_SDK/GD32VW55x_RELEASE_V1.0.2/MSDK/lwip/libcoap-4.3.4/src\coap_debug.c **** # if WITH_CONTIKI
 257:C:/Users/stapi/OneDrive/Desktop/GD32VW553/GD32VW55X_Wifi_BLE_SDK/GD32VW55x_RELEASE_V1.0.2/MSDK/lwip/libcoap-4.3.4/src\coap_debug.c **** 
 258:C:/Users/stapi/OneDrive/Desktop/GD32VW553/GD32VW55X_Wifi_BLE_SDK/GD32VW55x_RELEASE_V1.0.2/MSDK/lwip/libcoap-4.3.4/src\coap_debug.c ****   char scratch[INET6_ADDRSTRLEN];
 259:C:/Users/stapi/OneDrive/Desktop/GD32VW553/GD32VW55X_Wifi_BLE_SDK/GD32VW55x_RELEASE_V1.0.2/MSDK/lwip/libcoap-4.3.4/src\coap_debug.c **** #ifdef HAVE_SNPRINTF
 260:C:/Users/stapi/OneDrive/Desktop/GD32VW553/GD32VW55X_Wifi_BLE_SDK/GD32VW55x_RELEASE_V1.0.2/MSDK/lwip/libcoap-4.3.4/src\coap_debug.c **** 
 261:C:/Users/stapi/OneDrive/Desktop/GD32VW553/GD32VW55X_Wifi_BLE_SDK/GD32VW55x_RELEASE_V1.0.2/MSDK/lwip/libcoap-4.3.4/src\coap_debug.c ****   snprintf((char *)buf, len, "[%s]:%d",
 262:C:/Users/stapi/OneDrive/Desktop/GD32VW553/GD32VW55X_Wifi_BLE_SDK/GD32VW55x_RELEASE_V1.0.2/MSDK/lwip/libcoap-4.3.4/src\coap_debug.c ****            coap_print_ip_addr(addr, scratch, sizeof(scratch)),
 263:C:/Users/stapi/OneDrive/Desktop/GD32VW553/GD32VW55X_Wifi_BLE_SDK/GD32VW55x_RELEASE_V1.0.2/MSDK/lwip/libcoap-4.3.4/src\coap_debug.c ****            coap_address_get_port(addr));
 264:C:/Users/stapi/OneDrive/Desktop/GD32VW553/GD32VW55X_Wifi_BLE_SDK/GD32VW55x_RELEASE_V1.0.2/MSDK/lwip/libcoap-4.3.4/src\coap_debug.c ****   return strlen((char *)buf);
 265:C:/Users/stapi/OneDrive/Desktop/GD32VW553/GD32VW55X_Wifi_BLE_SDK/GD32VW55x_RELEASE_V1.0.2/MSDK/lwip/libcoap-4.3.4/src\coap_debug.c **** #else /* HAVE_SNPRINTF */
 266:C:/Users/stapi/OneDrive/Desktop/GD32VW553/GD32VW55X_Wifi_BLE_SDK/GD32VW55x_RELEASE_V1.0.2/MSDK/lwip/libcoap-4.3.4/src\coap_debug.c ****   unsigned char *p = buf;
 267:C:/Users/stapi/OneDrive/Desktop/GD32VW553/GD32VW55X_Wifi_BLE_SDK/GD32VW55x_RELEASE_V1.0.2/MSDK/lwip/libcoap-4.3.4/src\coap_debug.c **** #  if NETSTACK_CONF_WITH_IPV6
 268:C:/Users/stapi/OneDrive/Desktop/GD32VW553/GD32VW55X_Wifi_BLE_SDK/GD32VW55x_RELEASE_V1.0.2/MSDK/lwip/libcoap-4.3.4/src\coap_debug.c **** 
 269:C:/Users/stapi/OneDrive/Desktop/GD32VW553/GD32VW55X_Wifi_BLE_SDK/GD32VW55x_RELEASE_V1.0.2/MSDK/lwip/libcoap-4.3.4/src\coap_debug.c ****   assert(buf);
 270:C:/Users/stapi/OneDrive/Desktop/GD32VW553/GD32VW55X_Wifi_BLE_SDK/GD32VW55x_RELEASE_V1.0.2/MSDK/lwip/libcoap-4.3.4/src\coap_debug.c ****   assert(len);
 271:C:/Users/stapi/OneDrive/Desktop/GD32VW553/GD32VW55X_Wifi_BLE_SDK/GD32VW55x_RELEASE_V1.0.2/MSDK/lwip/libcoap-4.3.4/src\coap_debug.c ****   buf[0] = '\000';
 272:C:/Users/stapi/OneDrive/Desktop/GD32VW553/GD32VW55X_Wifi_BLE_SDK/GD32VW55x_RELEASE_V1.0.2/MSDK/lwip/libcoap-4.3.4/src\coap_debug.c ****   if (len < 40 + 2 + 6)
 273:C:/Users/stapi/OneDrive/Desktop/GD32VW553/GD32VW55X_Wifi_BLE_SDK/GD32VW55x_RELEASE_V1.0.2/MSDK/lwip/libcoap-4.3.4/src\coap_debug.c ****     return 0;
 274:C:/Users/stapi/OneDrive/Desktop/GD32VW553/GD32VW55X_Wifi_BLE_SDK/GD32VW55x_RELEASE_V1.0.2/MSDK/lwip/libcoap-4.3.4/src\coap_debug.c **** 
 275:C:/Users/stapi/OneDrive/Desktop/GD32VW553/GD32VW55X_Wifi_BLE_SDK/GD32VW55x_RELEASE_V1.0.2/MSDK/lwip/libcoap-4.3.4/src\coap_debug.c ****   *p++ = '[';
 276:C:/Users/stapi/OneDrive/Desktop/GD32VW553/GD32VW55X_Wifi_BLE_SDK/GD32VW55x_RELEASE_V1.0.2/MSDK/lwip/libcoap-4.3.4/src\coap_debug.c ****   memcpy(p, coap_print_ip_addr(addr, scratch, sizeof(scratch)), 40);
 277:C:/Users/stapi/OneDrive/Desktop/GD32VW553/GD32VW55X_Wifi_BLE_SDK/GD32VW55x_RELEASE_V1.0.2/MSDK/lwip/libcoap-4.3.4/src\coap_debug.c ****   p += 40 - 1;
 278:C:/Users/stapi/OneDrive/Desktop/GD32VW553/GD32VW55X_Wifi_BLE_SDK/GD32VW55x_RELEASE_V1.0.2/MSDK/lwip/libcoap-4.3.4/src\coap_debug.c ****   *p++ = ']';
 279:C:/Users/stapi/OneDrive/Desktop/GD32VW553/GD32VW55X_Wifi_BLE_SDK/GD32VW55x_RELEASE_V1.0.2/MSDK/lwip/libcoap-4.3.4/src\coap_debug.c **** #  else /* WITH_UIP6 */
 280:C:/Users/stapi/OneDrive/Desktop/GD32VW553/GD32VW55X_Wifi_BLE_SDK/GD32VW55x_RELEASE_V1.0.2/MSDK/lwip/libcoap-4.3.4/src\coap_debug.c **** #   warning "IPv4 network addresses will not be included in debug output"
 281:C:/Users/stapi/OneDrive/Desktop/GD32VW553/GD32VW55X_Wifi_BLE_SDK/GD32VW55x_RELEASE_V1.0.2/MSDK/lwip/libcoap-4.3.4/src\coap_debug.c **** 
 282:C:/Users/stapi/OneDrive/Desktop/GD32VW553/GD32VW55X_Wifi_BLE_SDK/GD32VW55x_RELEASE_V1.0.2/MSDK/lwip/libcoap-4.3.4/src\coap_debug.c ****   if (len < 21) {
 283:C:/Users/stapi/OneDrive/Desktop/GD32VW553/GD32VW55X_Wifi_BLE_SDK/GD32VW55x_RELEASE_V1.0.2/MSDK/lwip/libcoap-4.3.4/src\coap_debug.c ****     *p = '\000';
 284:C:/Users/stapi/OneDrive/Desktop/GD32VW553/GD32VW55X_Wifi_BLE_SDK/GD32VW55x_RELEASE_V1.0.2/MSDK/lwip/libcoap-4.3.4/src\coap_debug.c ****     return 0;
 285:C:/Users/stapi/OneDrive/Desktop/GD32VW553/GD32VW55X_Wifi_BLE_SDK/GD32VW55x_RELEASE_V1.0.2/MSDK/lwip/libcoap-4.3.4/src\coap_debug.c ****   }
 286:C:/Users/stapi/OneDrive/Desktop/GD32VW553/GD32VW55X_Wifi_BLE_SDK/GD32VW55x_RELEASE_V1.0.2/MSDK/lwip/libcoap-4.3.4/src\coap_debug.c **** #  endif /* WITH_UIP6 */
 287:C:/Users/stapi/OneDrive/Desktop/GD32VW553/GD32VW55X_Wifi_BLE_SDK/GD32VW55x_RELEASE_V1.0.2/MSDK/lwip/libcoap-4.3.4/src\coap_debug.c **** 
 288:C:/Users/stapi/OneDrive/Desktop/GD32VW553/GD32VW55X_Wifi_BLE_SDK/GD32VW55x_RELEASE_V1.0.2/MSDK/lwip/libcoap-4.3.4/src\coap_debug.c ****   *p++ = ':';
 289:C:/Users/stapi/OneDrive/Desktop/GD32VW553/GD32VW55X_Wifi_BLE_SDK/GD32VW55x_RELEASE_V1.0.2/MSDK/lwip/libcoap-4.3.4/src\coap_debug.c ****   *p++ = '0' + (coap_address_get_port(addr) / 10000) % 10;
 290:C:/Users/stapi/OneDrive/Desktop/GD32VW553/GD32VW55X_Wifi_BLE_SDK/GD32VW55x_RELEASE_V1.0.2/MSDK/lwip/libcoap-4.3.4/src\coap_debug.c ****   *p++ = '0' + (coap_address_get_port(addr) / 1000) % 10;
 291:C:/Users/stapi/OneDrive/Desktop/GD32VW553/GD32VW55X_Wifi_BLE_SDK/GD32VW55x_RELEASE_V1.0.2/MSDK/lwip/libcoap-4.3.4/src\coap_debug.c ****   *p++ = '0' + (coap_address_get_port(addr) / 100) % 10;
 292:C:/Users/stapi/OneDrive/Desktop/GD32VW553/GD32VW55X_Wifi_BLE_SDK/GD32VW55x_RELEASE_V1.0.2/MSDK/lwip/libcoap-4.3.4/src\coap_debug.c ****   *p++ = '0' + (coap_address_get_port(addr) / 10) % 10;
 293:C:/Users/stapi/OneDrive/Desktop/GD32VW553/GD32VW55X_Wifi_BLE_SDK/GD32VW55x_RELEASE_V1.0.2/MSDK/lwip/libcoap-4.3.4/src\coap_debug.c ****   *p++ = '0' + coap_address_get_port(addr) % 10;
 294:C:/Users/stapi/OneDrive/Desktop/GD32VW553/GD32VW55X_Wifi_BLE_SDK/GD32VW55x_RELEASE_V1.0.2/MSDK/lwip/libcoap-4.3.4/src\coap_debug.c ****   *p = '\000';
 295:C:/Users/stapi/OneDrive/Desktop/GD32VW553/GD32VW55X_Wifi_BLE_SDK/GD32VW55x_RELEASE_V1.0.2/MSDK/lwip/libcoap-4.3.4/src\coap_debug.c **** 
 296:C:/Users/stapi/OneDrive/Desktop/GD32VW553/GD32VW55X_Wifi_BLE_SDK/GD32VW55x_RELEASE_V1.0.2/MSDK/lwip/libcoap-4.3.4/src\coap_debug.c ****   return strlen((char *)buf);
 297:C:/Users/stapi/OneDrive/Desktop/GD32VW553/GD32VW55X_Wifi_BLE_SDK/GD32VW55x_RELEASE_V1.0.2/MSDK/lwip/libcoap-4.3.4/src\coap_debug.c **** #endif /* HAVE_SNPRINTF */
 298:C:/Users/stapi/OneDrive/Desktop/GD32VW553/GD32VW55X_Wifi_BLE_SDK/GD32VW55x_RELEASE_V1.0.2/MSDK/lwip/libcoap-4.3.4/src\coap_debug.c **** 
 299:C:/Users/stapi/OneDrive/Desktop/GD32VW553/GD32VW55X_Wifi_BLE_SDK/GD32VW55x_RELEASE_V1.0.2/MSDK/lwip/libcoap-4.3.4/src\coap_debug.c **** # elif WITH_LWIP
 300:C:/Users/stapi/OneDrive/Desktop/GD32VW553/GD32VW55X_Wifi_BLE_SDK/GD32VW55x_RELEASE_V1.0.2/MSDK/lwip/libcoap-4.3.4/src\coap_debug.c **** 
 301:C:/Users/stapi/OneDrive/Desktop/GD32VW553/GD32VW55X_Wifi_BLE_SDK/GD32VW55x_RELEASE_V1.0.2/MSDK/lwip/libcoap-4.3.4/src\coap_debug.c ****   char scratch[INET6_ADDRSTRLEN];
 302:C:/Users/stapi/OneDrive/Desktop/GD32VW553/GD32VW55X_Wifi_BLE_SDK/GD32VW55x_RELEASE_V1.0.2/MSDK/lwip/libcoap-4.3.4/src\coap_debug.c **** #ifdef HAVE_SNPRINTF
 303:C:/Users/stapi/OneDrive/Desktop/GD32VW553/GD32VW55X_Wifi_BLE_SDK/GD32VW55x_RELEASE_V1.0.2/MSDK/lwip/libcoap-4.3.4/src\coap_debug.c **** 
 304:C:/Users/stapi/OneDrive/Desktop/GD32VW553/GD32VW55X_Wifi_BLE_SDK/GD32VW55x_RELEASE_V1.0.2/MSDK/lwip/libcoap-4.3.4/src\coap_debug.c ****   snprintf((char *)buf, len, "[%s]:%d",
 305:C:/Users/stapi/OneDrive/Desktop/GD32VW553/GD32VW55X_Wifi_BLE_SDK/GD32VW55x_RELEASE_V1.0.2/MSDK/lwip/libcoap-4.3.4/src\coap_debug.c ****            coap_print_ip_addr(addr, scratch, sizeof(scratch)),
 306:C:/Users/stapi/OneDrive/Desktop/GD32VW553/GD32VW55X_Wifi_BLE_SDK/GD32VW55x_RELEASE_V1.0.2/MSDK/lwip/libcoap-4.3.4/src\coap_debug.c ****            addr->port);
 307:C:/Users/stapi/OneDrive/Desktop/GD32VW553/GD32VW55X_Wifi_BLE_SDK/GD32VW55x_RELEASE_V1.0.2/MSDK/lwip/libcoap-4.3.4/src\coap_debug.c ****   return strlen((char *)buf);
 308:C:/Users/stapi/OneDrive/Desktop/GD32VW553/GD32VW55X_Wifi_BLE_SDK/GD32VW55x_RELEASE_V1.0.2/MSDK/lwip/libcoap-4.3.4/src\coap_debug.c **** #else /* HAVE_SNPRINTF */
 309:C:/Users/stapi/OneDrive/Desktop/GD32VW553/GD32VW55X_Wifi_BLE_SDK/GD32VW55x_RELEASE_V1.0.2/MSDK/lwip/libcoap-4.3.4/src\coap_debug.c ****   unsigned char *p = buf;
 310:C:/Users/stapi/OneDrive/Desktop/GD32VW553/GD32VW55X_Wifi_BLE_SDK/GD32VW55x_RELEASE_V1.0.2/MSDK/lwip/libcoap-4.3.4/src\coap_debug.c **** 
 311:C:/Users/stapi/OneDrive/Desktop/GD32VW553/GD32VW55X_Wifi_BLE_SDK/GD32VW55x_RELEASE_V1.0.2/MSDK/lwip/libcoap-4.3.4/src\coap_debug.c ****   assert(buf);
 312:C:/Users/stapi/OneDrive/Desktop/GD32VW553/GD32VW55X_Wifi_BLE_SDK/GD32VW55x_RELEASE_V1.0.2/MSDK/lwip/libcoap-4.3.4/src\coap_debug.c ****   assert(len);
 313:C:/Users/stapi/OneDrive/Desktop/GD32VW553/GD32VW55X_Wifi_BLE_SDK/GD32VW55x_RELEASE_V1.0.2/MSDK/lwip/libcoap-4.3.4/src\coap_debug.c ****   buf[0] = '\000';
 314:C:/Users/stapi/OneDrive/Desktop/GD32VW553/GD32VW55X_Wifi_BLE_SDK/GD32VW55x_RELEASE_V1.0.2/MSDK/lwip/libcoap-4.3.4/src\coap_debug.c **** 
 315:C:/Users/stapi/OneDrive/Desktop/GD32VW553/GD32VW55X_Wifi_BLE_SDK/GD32VW55x_RELEASE_V1.0.2/MSDK/lwip/libcoap-4.3.4/src\coap_debug.c ****   switch (IP_GET_TYPE(addr->addr)) {
 316:C:/Users/stapi/OneDrive/Desktop/GD32VW553/GD32VW55X_Wifi_BLE_SDK/GD32VW55x_RELEASE_V1.0.2/MSDK/lwip/libcoap-4.3.4/src\coap_debug.c ****   case IPADDR_TYPE_V4:
 317:C:/Users/stapi/OneDrive/Desktop/GD32VW553/GD32VW55X_Wifi_BLE_SDK/GD32VW55x_RELEASE_V1.0.2/MSDK/lwip/libcoap-4.3.4/src\coap_debug.c ****     if (len < IP4ADDR_STRLEN_MAX + 6)
 318:C:/Users/stapi/OneDrive/Desktop/GD32VW553/GD32VW55X_Wifi_BLE_SDK/GD32VW55x_RELEASE_V1.0.2/MSDK/lwip/libcoap-4.3.4/src\coap_debug.c ****       return 0;
 319:C:/Users/stapi/OneDrive/Desktop/GD32VW553/GD32VW55X_Wifi_BLE_SDK/GD32VW55x_RELEASE_V1.0.2/MSDK/lwip/libcoap-4.3.4/src\coap_debug.c ****     memcpy(buf, coap_print_ip_addr(addr, scratch, sizeof(scratch)), IP4ADDR_STRLEN_MAX);
 320:C:/Users/stapi/OneDrive/Desktop/GD32VW553/GD32VW55X_Wifi_BLE_SDK/GD32VW55x_RELEASE_V1.0.2/MSDK/lwip/libcoap-4.3.4/src\coap_debug.c ****     p += strlen((char *)buf);
 321:C:/Users/stapi/OneDrive/Desktop/GD32VW553/GD32VW55X_Wifi_BLE_SDK/GD32VW55x_RELEASE_V1.0.2/MSDK/lwip/libcoap-4.3.4/src\coap_debug.c ****     break;
 322:C:/Users/stapi/OneDrive/Desktop/GD32VW553/GD32VW55X_Wifi_BLE_SDK/GD32VW55x_RELEASE_V1.0.2/MSDK/lwip/libcoap-4.3.4/src\coap_debug.c **** #if LWIP_IPV6
 323:C:/Users/stapi/OneDrive/Desktop/GD32VW553/GD32VW55X_Wifi_BLE_SDK/GD32VW55x_RELEASE_V1.0.2/MSDK/lwip/libcoap-4.3.4/src\coap_debug.c ****   case IPADDR_TYPE_V6:
 324:C:/Users/stapi/OneDrive/Desktop/GD32VW553/GD32VW55X_Wifi_BLE_SDK/GD32VW55x_RELEASE_V1.0.2/MSDK/lwip/libcoap-4.3.4/src\coap_debug.c ****   case IPADDR_TYPE_ANY:
 325:C:/Users/stapi/OneDrive/Desktop/GD32VW553/GD32VW55X_Wifi_BLE_SDK/GD32VW55x_RELEASE_V1.0.2/MSDK/lwip/libcoap-4.3.4/src\coap_debug.c ****     if (len < 40 + 2 + 6)
 326:C:/Users/stapi/OneDrive/Desktop/GD32VW553/GD32VW55X_Wifi_BLE_SDK/GD32VW55x_RELEASE_V1.0.2/MSDK/lwip/libcoap-4.3.4/src\coap_debug.c ****       return 0;
 327:C:/Users/stapi/OneDrive/Desktop/GD32VW553/GD32VW55X_Wifi_BLE_SDK/GD32VW55x_RELEASE_V1.0.2/MSDK/lwip/libcoap-4.3.4/src\coap_debug.c ****     *p++ = '[';
 328:C:/Users/stapi/OneDrive/Desktop/GD32VW553/GD32VW55X_Wifi_BLE_SDK/GD32VW55x_RELEASE_V1.0.2/MSDK/lwip/libcoap-4.3.4/src\coap_debug.c ****     memcpy(p, coap_print_ip_addr(addr, scratch, sizeof(scratch)), 40);
 329:C:/Users/stapi/OneDrive/Desktop/GD32VW553/GD32VW55X_Wifi_BLE_SDK/GD32VW55x_RELEASE_V1.0.2/MSDK/lwip/libcoap-4.3.4/src\coap_debug.c ****     p += strlen((char *)buf);
 330:C:/Users/stapi/OneDrive/Desktop/GD32VW553/GD32VW55X_Wifi_BLE_SDK/GD32VW55x_RELEASE_V1.0.2/MSDK/lwip/libcoap-4.3.4/src\coap_debug.c ****     *p++ = ']';
 331:C:/Users/stapi/OneDrive/Desktop/GD32VW553/GD32VW55X_Wifi_BLE_SDK/GD32VW55x_RELEASE_V1.0.2/MSDK/lwip/libcoap-4.3.4/src\coap_debug.c ****     break;
 332:C:/Users/stapi/OneDrive/Desktop/GD32VW553/GD32VW55X_Wifi_BLE_SDK/GD32VW55x_RELEASE_V1.0.2/MSDK/lwip/libcoap-4.3.4/src\coap_debug.c **** #endif /* LWIP_IPV6 */
 333:C:/Users/stapi/OneDrive/Desktop/GD32VW553/GD32VW55X_Wifi_BLE_SDK/GD32VW55x_RELEASE_V1.0.2/MSDK/lwip/libcoap-4.3.4/src\coap_debug.c ****   }
 334:C:/Users/stapi/OneDrive/Desktop/GD32VW553/GD32VW55X_Wifi_BLE_SDK/GD32VW55x_RELEASE_V1.0.2/MSDK/lwip/libcoap-4.3.4/src\coap_debug.c **** 
 335:C:/Users/stapi/OneDrive/Desktop/GD32VW553/GD32VW55X_Wifi_BLE_SDK/GD32VW55x_RELEASE_V1.0.2/MSDK/lwip/libcoap-4.3.4/src\coap_debug.c ****   *p++ = ':';
 336:C:/Users/stapi/OneDrive/Desktop/GD32VW553/GD32VW55X_Wifi_BLE_SDK/GD32VW55x_RELEASE_V1.0.2/MSDK/lwip/libcoap-4.3.4/src\coap_debug.c ****   *p++ = '0' + (addr->port / 10000) % 10;
 337:C:/Users/stapi/OneDrive/Desktop/GD32VW553/GD32VW55X_Wifi_BLE_SDK/GD32VW55x_RELEASE_V1.0.2/MSDK/lwip/libcoap-4.3.4/src\coap_debug.c ****   *p++ = '0' + (addr->port / 1000) % 10;
 338:C:/Users/stapi/OneDrive/Desktop/GD32VW553/GD32VW55X_Wifi_BLE_SDK/GD32VW55x_RELEASE_V1.0.2/MSDK/lwip/libcoap-4.3.4/src\coap_debug.c ****   *p++ = '0' + (addr->port / 100) % 10;
 339:C:/Users/stapi/OneDrive/Desktop/GD32VW553/GD32VW55X_Wifi_BLE_SDK/GD32VW55x_RELEASE_V1.0.2/MSDK/lwip/libcoap-4.3.4/src\coap_debug.c ****   *p++ = '0' + (addr->port / 10) % 10;
 340:C:/Users/stapi/OneDrive/Desktop/GD32VW553/GD32VW55X_Wifi_BLE_SDK/GD32VW55x_RELEASE_V1.0.2/MSDK/lwip/libcoap-4.3.4/src\coap_debug.c ****   *p++ = '0' + addr->port % 10;
 341:C:/Users/stapi/OneDrive/Desktop/GD32VW553/GD32VW55X_Wifi_BLE_SDK/GD32VW55x_RELEASE_V1.0.2/MSDK/lwip/libcoap-4.3.4/src\coap_debug.c ****   *p = '\000';
 342:C:/Users/stapi/OneDrive/Desktop/GD32VW553/GD32VW55X_Wifi_BLE_SDK/GD32VW55x_RELEASE_V1.0.2/MSDK/lwip/libcoap-4.3.4/src\coap_debug.c **** 
 343:C:/Users/stapi/OneDrive/Desktop/GD32VW553/GD32VW55X_Wifi_BLE_SDK/GD32VW55x_RELEASE_V1.0.2/MSDK/lwip/libcoap-4.3.4/src\coap_debug.c ****   return strlen((char *)buf);
 344:C:/Users/stapi/OneDrive/Desktop/GD32VW553/GD32VW55X_Wifi_BLE_SDK/GD32VW55x_RELEASE_V1.0.2/MSDK/lwip/libcoap-4.3.4/src\coap_debug.c **** #endif /* HAVE_SNPRINTF */
 345:C:/Users/stapi/OneDrive/Desktop/GD32VW553/GD32VW55X_Wifi_BLE_SDK/GD32VW55x_RELEASE_V1.0.2/MSDK/lwip/libcoap-4.3.4/src\coap_debug.c **** 
 346:C:/Users/stapi/OneDrive/Desktop/GD32VW553/GD32VW55X_Wifi_BLE_SDK/GD32VW55x_RELEASE_V1.0.2/MSDK/lwip/libcoap-4.3.4/src\coap_debug.c **** # else /* ! WITH_CONTIKI && ! WITH_LWIP */
 347:C:/Users/stapi/OneDrive/Desktop/GD32VW553/GD32VW55X_Wifi_BLE_SDK/GD32VW55x_RELEASE_V1.0.2/MSDK/lwip/libcoap-4.3.4/src\coap_debug.c **** 
 348:C:/Users/stapi/OneDrive/Desktop/GD32VW553/GD32VW55X_Wifi_BLE_SDK/GD32VW55x_RELEASE_V1.0.2/MSDK/lwip/libcoap-4.3.4/src\coap_debug.c ****   (void)addr;
 349:C:/Users/stapi/OneDrive/Desktop/GD32VW553/GD32VW55X_Wifi_BLE_SDK/GD32VW55x_RELEASE_V1.0.2/MSDK/lwip/libcoap-4.3.4/src\coap_debug.c ****   (void)len;
 350:C:/Users/stapi/OneDrive/Desktop/GD32VW553/GD32VW55X_Wifi_BLE_SDK/GD32VW55x_RELEASE_V1.0.2/MSDK/lwip/libcoap-4.3.4/src\coap_debug.c **** 
 351:C:/Users/stapi/OneDrive/Desktop/GD32VW553/GD32VW55X_Wifi_BLE_SDK/GD32VW55x_RELEASE_V1.0.2/MSDK/lwip/libcoap-4.3.4/src\coap_debug.c ****   /* TODO: output addresses manually */
 352:C:/Users/stapi/OneDrive/Desktop/GD32VW553/GD32VW55X_Wifi_BLE_SDK/GD32VW55x_RELEASE_V1.0.2/MSDK/lwip/libcoap-4.3.4/src\coap_debug.c **** #   warning "inet_ntop() not available, network addresses will not be included in debug output"
 353:C:/Users/stapi/OneDrive/Desktop/GD32VW553/GD32VW55X_Wifi_BLE_SDK/GD32VW55x_RELEASE_V1.0.2/MSDK/lwip/libcoap-4.3.4/src\coap_debug.c **** # endif /* ! WITH_CONTIKI  && ! WITH_LWIP */
 354:C:/Users/stapi/OneDrive/Desktop/GD32VW553/GD32VW55X_Wifi_BLE_SDK/GD32VW55x_RELEASE_V1.0.2/MSDK/lwip/libcoap-4.3.4/src\coap_debug.c ****   buf[0] = '\000';
 355:C:/Users/stapi/OneDrive/Desktop/GD32VW553/GD32VW55X_Wifi_BLE_SDK/GD32VW55x_RELEASE_V1.0.2/MSDK/lwip/libcoap-4.3.4/src\coap_debug.c ****   return 0;
 356:C:/Users/stapi/OneDrive/Desktop/GD32VW553/GD32VW55X_Wifi_BLE_SDK/GD32VW55x_RELEASE_V1.0.2/MSDK/lwip/libcoap-4.3.4/src\coap_debug.c **** #endif
 357:C:/Users/stapi/OneDrive/Desktop/GD32VW553/GD32VW55X_Wifi_BLE_SDK/GD32VW55x_RELEASE_V1.0.2/MSDK/lwip/libcoap-4.3.4/src\coap_debug.c **** }
 358:C:/Users/stapi/OneDrive/Desktop/GD32VW553/GD32VW55X_Wifi_BLE_SDK/GD32VW55x_RELEASE_V1.0.2/MSDK/lwip/libcoap-4.3.4/src\coap_debug.c **** 
 359:C:/Users/stapi/OneDrive/Desktop/GD32VW553/GD32VW55X_Wifi_BLE_SDK/GD32VW55x_RELEASE_V1.0.2/MSDK/lwip/libcoap-4.3.4/src\coap_debug.c **** /*
 360:C:/Users/stapi/OneDrive/Desktop/GD32VW553/GD32VW55X_Wifi_BLE_SDK/GD32VW55x_RELEASE_V1.0.2/MSDK/lwip/libcoap-4.3.4/src\coap_debug.c ****  * Returned buf is always NULL terminated with as much as possible of the
 361:C:/Users/stapi/OneDrive/Desktop/GD32VW553/GD32VW55X_Wifi_BLE_SDK/GD32VW55x_RELEASE_V1.0.2/MSDK/lwip/libcoap-4.3.4/src\coap_debug.c ****  * IP address filled in.
 362:C:/Users/stapi/OneDrive/Desktop/GD32VW553/GD32VW55X_Wifi_BLE_SDK/GD32VW55x_RELEASE_V1.0.2/MSDK/lwip/libcoap-4.3.4/src\coap_debug.c ****  */
 363:C:/Users/stapi/OneDrive/Desktop/GD32VW553/GD32VW55X_Wifi_BLE_SDK/GD32VW55x_RELEASE_V1.0.2/MSDK/lwip/libcoap-4.3.4/src\coap_debug.c **** const char *
 364:C:/Users/stapi/OneDrive/Desktop/GD32VW553/GD32VW55X_Wifi_BLE_SDK/GD32VW55x_RELEASE_V1.0.2/MSDK/lwip/libcoap-4.3.4/src\coap_debug.c **** coap_print_ip_addr(const coap_address_t *addr, char *buf, size_t len) {
 365:C:/Users/stapi/OneDrive/Desktop/GD32VW553/GD32VW55X_Wifi_BLE_SDK/GD32VW55x_RELEASE_V1.0.2/MSDK/lwip/libcoap-4.3.4/src\coap_debug.c **** #if defined( HAVE_ARPA_INET_H ) || defined( HAVE_WS2TCPIP_H )
 366:C:/Users/stapi/OneDrive/Desktop/GD32VW553/GD32VW55X_Wifi_BLE_SDK/GD32VW55x_RELEASE_V1.0.2/MSDK/lwip/libcoap-4.3.4/src\coap_debug.c ****   const void *addrptr = NULL;
 367:C:/Users/stapi/OneDrive/Desktop/GD32VW553/GD32VW55X_Wifi_BLE_SDK/GD32VW55x_RELEASE_V1.0.2/MSDK/lwip/libcoap-4.3.4/src\coap_debug.c **** 
 368:C:/Users/stapi/OneDrive/Desktop/GD32VW553/GD32VW55X_Wifi_BLE_SDK/GD32VW55x_RELEASE_V1.0.2/MSDK/lwip/libcoap-4.3.4/src\coap_debug.c ****   assert(buf);
 369:C:/Users/stapi/OneDrive/Desktop/GD32VW553/GD32VW55X_Wifi_BLE_SDK/GD32VW55x_RELEASE_V1.0.2/MSDK/lwip/libcoap-4.3.4/src\coap_debug.c ****   assert(len);
 370:C:/Users/stapi/OneDrive/Desktop/GD32VW553/GD32VW55X_Wifi_BLE_SDK/GD32VW55x_RELEASE_V1.0.2/MSDK/lwip/libcoap-4.3.4/src\coap_debug.c ****   buf[0] = '\000';
 371:C:/Users/stapi/OneDrive/Desktop/GD32VW553/GD32VW55X_Wifi_BLE_SDK/GD32VW55x_RELEASE_V1.0.2/MSDK/lwip/libcoap-4.3.4/src\coap_debug.c **** 
 372:C:/Users/stapi/OneDrive/Desktop/GD32VW553/GD32VW55X_Wifi_BLE_SDK/GD32VW55x_RELEASE_V1.0.2/MSDK/lwip/libcoap-4.3.4/src\coap_debug.c ****   switch (addr->addr.sa.sa_family) {
 373:C:/Users/stapi/OneDrive/Desktop/GD32VW553/GD32VW55X_Wifi_BLE_SDK/GD32VW55x_RELEASE_V1.0.2/MSDK/lwip/libcoap-4.3.4/src\coap_debug.c **** #if COAP_IPV4_SUPPORT
 374:C:/Users/stapi/OneDrive/Desktop/GD32VW553/GD32VW55X_Wifi_BLE_SDK/GD32VW55x_RELEASE_V1.0.2/MSDK/lwip/libcoap-4.3.4/src\coap_debug.c ****   case AF_INET:
 375:C:/Users/stapi/OneDrive/Desktop/GD32VW553/GD32VW55X_Wifi_BLE_SDK/GD32VW55x_RELEASE_V1.0.2/MSDK/lwip/libcoap-4.3.4/src\coap_debug.c ****     if (len < INET_ADDRSTRLEN)
 376:C:/Users/stapi/OneDrive/Desktop/GD32VW553/GD32VW55X_Wifi_BLE_SDK/GD32VW55x_RELEASE_V1.0.2/MSDK/lwip/libcoap-4.3.4/src\coap_debug.c ****       return buf;
 377:C:/Users/stapi/OneDrive/Desktop/GD32VW553/GD32VW55X_Wifi_BLE_SDK/GD32VW55x_RELEASE_V1.0.2/MSDK/lwip/libcoap-4.3.4/src\coap_debug.c ****     addrptr = &addr->addr.sin.sin_addr;
 378:C:/Users/stapi/OneDrive/Desktop/GD32VW553/GD32VW55X_Wifi_BLE_SDK/GD32VW55x_RELEASE_V1.0.2/MSDK/lwip/libcoap-4.3.4/src\coap_debug.c ****     break;
 379:C:/Users/stapi/OneDrive/Desktop/GD32VW553/GD32VW55X_Wifi_BLE_SDK/GD32VW55x_RELEASE_V1.0.2/MSDK/lwip/libcoap-4.3.4/src\coap_debug.c **** #endif /* COAP_IPV4_SUPPORT */
 380:C:/Users/stapi/OneDrive/Desktop/GD32VW553/GD32VW55X_Wifi_BLE_SDK/GD32VW55x_RELEASE_V1.0.2/MSDK/lwip/libcoap-4.3.4/src\coap_debug.c **** #if COAP_IPV6_SUPPORT
 381:C:/Users/stapi/OneDrive/Desktop/GD32VW553/GD32VW55X_Wifi_BLE_SDK/GD32VW55x_RELEASE_V1.0.2/MSDK/lwip/libcoap-4.3.4/src\coap_debug.c ****   case AF_INET6:
 382:C:/Users/stapi/OneDrive/Desktop/GD32VW553/GD32VW55X_Wifi_BLE_SDK/GD32VW55x_RELEASE_V1.0.2/MSDK/lwip/libcoap-4.3.4/src\coap_debug.c ****     if (len < INET6_ADDRSTRLEN)
 383:C:/Users/stapi/OneDrive/Desktop/GD32VW553/GD32VW55X_Wifi_BLE_SDK/GD32VW55x_RELEASE_V1.0.2/MSDK/lwip/libcoap-4.3.4/src\coap_debug.c ****       return buf;
 384:C:/Users/stapi/OneDrive/Desktop/GD32VW553/GD32VW55X_Wifi_BLE_SDK/GD32VW55x_RELEASE_V1.0.2/MSDK/lwip/libcoap-4.3.4/src\coap_debug.c ****     addrptr = &addr->addr.sin6.sin6_addr;
 385:C:/Users/stapi/OneDrive/Desktop/GD32VW553/GD32VW55X_Wifi_BLE_SDK/GD32VW55x_RELEASE_V1.0.2/MSDK/lwip/libcoap-4.3.4/src\coap_debug.c ****     break;
 386:C:/Users/stapi/OneDrive/Desktop/GD32VW553/GD32VW55X_Wifi_BLE_SDK/GD32VW55x_RELEASE_V1.0.2/MSDK/lwip/libcoap-4.3.4/src\coap_debug.c **** #endif /* COAP_IPV6_SUPPORT */
 387:C:/Users/stapi/OneDrive/Desktop/GD32VW553/GD32VW55X_Wifi_BLE_SDK/GD32VW55x_RELEASE_V1.0.2/MSDK/lwip/libcoap-4.3.4/src\coap_debug.c **** #if COAP_AF_UNIX_SUPPORT
 388:C:/Users/stapi/OneDrive/Desktop/GD32VW553/GD32VW55X_Wifi_BLE_SDK/GD32VW55x_RELEASE_V1.0.2/MSDK/lwip/libcoap-4.3.4/src\coap_debug.c ****   case AF_UNIX:
 389:C:/Users/stapi/OneDrive/Desktop/GD32VW553/GD32VW55X_Wifi_BLE_SDK/GD32VW55x_RELEASE_V1.0.2/MSDK/lwip/libcoap-4.3.4/src\coap_debug.c ****     snprintf(buf, len, "'%s'", addr->addr.cun.sun_path);
 390:C:/Users/stapi/OneDrive/Desktop/GD32VW553/GD32VW55X_Wifi_BLE_SDK/GD32VW55x_RELEASE_V1.0.2/MSDK/lwip/libcoap-4.3.4/src\coap_debug.c ****     return buf;
 391:C:/Users/stapi/OneDrive/Desktop/GD32VW553/GD32VW55X_Wifi_BLE_SDK/GD32VW55x_RELEASE_V1.0.2/MSDK/lwip/libcoap-4.3.4/src\coap_debug.c **** #endif /* COAP_AF_UNIX_SUPPORT */
 392:C:/Users/stapi/OneDrive/Desktop/GD32VW553/GD32VW55X_Wifi_BLE_SDK/GD32VW55x_RELEASE_V1.0.2/MSDK/lwip/libcoap-4.3.4/src\coap_debug.c ****   default:
 393:C:/Users/stapi/OneDrive/Desktop/GD32VW553/GD32VW55X_Wifi_BLE_SDK/GD32VW55x_RELEASE_V1.0.2/MSDK/lwip/libcoap-4.3.4/src\coap_debug.c ****     /* Include trailing NULL if possible */
 394:C:/Users/stapi/OneDrive/Desktop/GD32VW553/GD32VW55X_Wifi_BLE_SDK/GD32VW55x_RELEASE_V1.0.2/MSDK/lwip/libcoap-4.3.4/src\coap_debug.c ****     memcpy(buf, "(unknown address type)", min(22+1, len));
 395:C:/Users/stapi/OneDrive/Desktop/GD32VW553/GD32VW55X_Wifi_BLE_SDK/GD32VW55x_RELEASE_V1.0.2/MSDK/lwip/libcoap-4.3.4/src\coap_debug.c ****     buf[len-1] = '\000';
 396:C:/Users/stapi/OneDrive/Desktop/GD32VW553/GD32VW55X_Wifi_BLE_SDK/GD32VW55x_RELEASE_V1.0.2/MSDK/lwip/libcoap-4.3.4/src\coap_debug.c ****     return buf;
 397:C:/Users/stapi/OneDrive/Desktop/GD32VW553/GD32VW55X_Wifi_BLE_SDK/GD32VW55x_RELEASE_V1.0.2/MSDK/lwip/libcoap-4.3.4/src\coap_debug.c ****   }
 398:C:/Users/stapi/OneDrive/Desktop/GD32VW553/GD32VW55X_Wifi_BLE_SDK/GD32VW55x_RELEASE_V1.0.2/MSDK/lwip/libcoap-4.3.4/src\coap_debug.c **** 
 399:C:/Users/stapi/OneDrive/Desktop/GD32VW553/GD32VW55X_Wifi_BLE_SDK/GD32VW55x_RELEASE_V1.0.2/MSDK/lwip/libcoap-4.3.4/src\coap_debug.c ****   /* Cast needed for Windows, since it doesn't have the correct API signature. */
 400:C:/Users/stapi/OneDrive/Desktop/GD32VW553/GD32VW55X_Wifi_BLE_SDK/GD32VW55x_RELEASE_V1.0.2/MSDK/lwip/libcoap-4.3.4/src\coap_debug.c ****   if (inet_ntop(addr->addr.sa.sa_family, addrptr, (char *)buf, len) == 0) {
 401:C:/Users/stapi/OneDrive/Desktop/GD32VW553/GD32VW55X_Wifi_BLE_SDK/GD32VW55x_RELEASE_V1.0.2/MSDK/lwip/libcoap-4.3.4/src\coap_debug.c ****     coap_log_err("coap_print_ip_addr: inet_ntop\n");
 402:C:/Users/stapi/OneDrive/Desktop/GD32VW553/GD32VW55X_Wifi_BLE_SDK/GD32VW55x_RELEASE_V1.0.2/MSDK/lwip/libcoap-4.3.4/src\coap_debug.c ****     buf[0] = '\000';
 403:C:/Users/stapi/OneDrive/Desktop/GD32VW553/GD32VW55X_Wifi_BLE_SDK/GD32VW55x_RELEASE_V1.0.2/MSDK/lwip/libcoap-4.3.4/src\coap_debug.c ****     return buf;
 404:C:/Users/stapi/OneDrive/Desktop/GD32VW553/GD32VW55X_Wifi_BLE_SDK/GD32VW55x_RELEASE_V1.0.2/MSDK/lwip/libcoap-4.3.4/src\coap_debug.c ****   }
 405:C:/Users/stapi/OneDrive/Desktop/GD32VW553/GD32VW55X_Wifi_BLE_SDK/GD32VW55x_RELEASE_V1.0.2/MSDK/lwip/libcoap-4.3.4/src\coap_debug.c ****   return buf;
 406:C:/Users/stapi/OneDrive/Desktop/GD32VW553/GD32VW55X_Wifi_BLE_SDK/GD32VW55x_RELEASE_V1.0.2/MSDK/lwip/libcoap-4.3.4/src\coap_debug.c **** 
 407:C:/Users/stapi/OneDrive/Desktop/GD32VW553/GD32VW55X_Wifi_BLE_SDK/GD32VW55x_RELEASE_V1.0.2/MSDK/lwip/libcoap-4.3.4/src\coap_debug.c **** #else /* HAVE_ARPA_INET_H */
 408:C:/Users/stapi/OneDrive/Desktop/GD32VW553/GD32VW55X_Wifi_BLE_SDK/GD32VW55x_RELEASE_V1.0.2/MSDK/lwip/libcoap-4.3.4/src\coap_debug.c **** 
 409:C:/Users/stapi/OneDrive/Desktop/GD32VW553/GD32VW55X_Wifi_BLE_SDK/GD32VW55x_RELEASE_V1.0.2/MSDK/lwip/libcoap-4.3.4/src\coap_debug.c **** # if WITH_CONTIKI
 410:C:/Users/stapi/OneDrive/Desktop/GD32VW553/GD32VW55X_Wifi_BLE_SDK/GD32VW55x_RELEASE_V1.0.2/MSDK/lwip/libcoap-4.3.4/src\coap_debug.c ****   char *p = buf;
 411:C:/Users/stapi/OneDrive/Desktop/GD32VW553/GD32VW55X_Wifi_BLE_SDK/GD32VW55x_RELEASE_V1.0.2/MSDK/lwip/libcoap-4.3.4/src\coap_debug.c ****   uint8_t i;
 412:C:/Users/stapi/OneDrive/Desktop/GD32VW553/GD32VW55X_Wifi_BLE_SDK/GD32VW55x_RELEASE_V1.0.2/MSDK/lwip/libcoap-4.3.4/src\coap_debug.c **** #  if NETSTACK_CONF_WITH_IPV6
 413:C:/Users/stapi/OneDrive/Desktop/GD32VW553/GD32VW55X_Wifi_BLE_SDK/GD32VW55x_RELEASE_V1.0.2/MSDK/lwip/libcoap-4.3.4/src\coap_debug.c ****   const char hex[] = "0123456789ABCDEF";
 414:C:/Users/stapi/OneDrive/Desktop/GD32VW553/GD32VW55X_Wifi_BLE_SDK/GD32VW55x_RELEASE_V1.0.2/MSDK/lwip/libcoap-4.3.4/src\coap_debug.c **** 
 415:C:/Users/stapi/OneDrive/Desktop/GD32VW553/GD32VW55X_Wifi_BLE_SDK/GD32VW55x_RELEASE_V1.0.2/MSDK/lwip/libcoap-4.3.4/src\coap_debug.c ****   assert(buf);
 416:C:/Users/stapi/OneDrive/Desktop/GD32VW553/GD32VW55X_Wifi_BLE_SDK/GD32VW55x_RELEASE_V1.0.2/MSDK/lwip/libcoap-4.3.4/src\coap_debug.c ****   assert(len);
 417:C:/Users/stapi/OneDrive/Desktop/GD32VW553/GD32VW55X_Wifi_BLE_SDK/GD32VW55x_RELEASE_V1.0.2/MSDK/lwip/libcoap-4.3.4/src\coap_debug.c ****   buf[0] = '\000';
 418:C:/Users/stapi/OneDrive/Desktop/GD32VW553/GD32VW55X_Wifi_BLE_SDK/GD32VW55x_RELEASE_V1.0.2/MSDK/lwip/libcoap-4.3.4/src\coap_debug.c ****   if (len < 40)
 419:C:/Users/stapi/OneDrive/Desktop/GD32VW553/GD32VW55X_Wifi_BLE_SDK/GD32VW55x_RELEASE_V1.0.2/MSDK/lwip/libcoap-4.3.4/src\coap_debug.c ****     return 0;
 420:C:/Users/stapi/OneDrive/Desktop/GD32VW553/GD32VW55X_Wifi_BLE_SDK/GD32VW55x_RELEASE_V1.0.2/MSDK/lwip/libcoap-4.3.4/src\coap_debug.c **** 
 421:C:/Users/stapi/OneDrive/Desktop/GD32VW553/GD32VW55X_Wifi_BLE_SDK/GD32VW55x_RELEASE_V1.0.2/MSDK/lwip/libcoap-4.3.4/src\coap_debug.c ****   for (i=0; i < 16; i += 2) {
 422:C:/Users/stapi/OneDrive/Desktop/GD32VW553/GD32VW55X_Wifi_BLE_SDK/GD32VW55x_RELEASE_V1.0.2/MSDK/lwip/libcoap-4.3.4/src\coap_debug.c ****     if (i) {
 423:C:/Users/stapi/OneDrive/Desktop/GD32VW553/GD32VW55X_Wifi_BLE_SDK/GD32VW55x_RELEASE_V1.0.2/MSDK/lwip/libcoap-4.3.4/src\coap_debug.c ****       *p++ = ':';
 424:C:/Users/stapi/OneDrive/Desktop/GD32VW553/GD32VW55X_Wifi_BLE_SDK/GD32VW55x_RELEASE_V1.0.2/MSDK/lwip/libcoap-4.3.4/src\coap_debug.c ****     }
 425:C:/Users/stapi/OneDrive/Desktop/GD32VW553/GD32VW55X_Wifi_BLE_SDK/GD32VW55x_RELEASE_V1.0.2/MSDK/lwip/libcoap-4.3.4/src\coap_debug.c ****     *p++ = hex[(addr->addr.u8[i] & 0xf0) >> 4];
 426:C:/Users/stapi/OneDrive/Desktop/GD32VW553/GD32VW55X_Wifi_BLE_SDK/GD32VW55x_RELEASE_V1.0.2/MSDK/lwip/libcoap-4.3.4/src\coap_debug.c ****     *p++ = hex[(addr->addr.u8[i] & 0x0f)];
 427:C:/Users/stapi/OneDrive/Desktop/GD32VW553/GD32VW55X_Wifi_BLE_SDK/GD32VW55x_RELEASE_V1.0.2/MSDK/lwip/libcoap-4.3.4/src\coap_debug.c ****     *p++ = hex[(addr->addr.u8[i+1] & 0xf0) >> 4];
 428:C:/Users/stapi/OneDrive/Desktop/GD32VW553/GD32VW55X_Wifi_BLE_SDK/GD32VW55x_RELEASE_V1.0.2/MSDK/lwip/libcoap-4.3.4/src\coap_debug.c ****     *p++ = hex[(addr->addr.u8[i+1] & 0x0f)];
 429:C:/Users/stapi/OneDrive/Desktop/GD32VW553/GD32VW55X_Wifi_BLE_SDK/GD32VW55x_RELEASE_V1.0.2/MSDK/lwip/libcoap-4.3.4/src\coap_debug.c ****   }
 430:C:/Users/stapi/OneDrive/Desktop/GD32VW553/GD32VW55X_Wifi_BLE_SDK/GD32VW55x_RELEASE_V1.0.2/MSDK/lwip/libcoap-4.3.4/src\coap_debug.c ****   *p = '\000';
 431:C:/Users/stapi/OneDrive/Desktop/GD32VW553/GD32VW55X_Wifi_BLE_SDK/GD32VW55x_RELEASE_V1.0.2/MSDK/lwip/libcoap-4.3.4/src\coap_debug.c **** #  else /* WITH_UIP6 */
 432:C:/Users/stapi/OneDrive/Desktop/GD32VW553/GD32VW55X_Wifi_BLE_SDK/GD32VW55x_RELEASE_V1.0.2/MSDK/lwip/libcoap-4.3.4/src\coap_debug.c **** #   warning "IPv4 network addresses will not be included in debug output"
 433:C:/Users/stapi/OneDrive/Desktop/GD32VW553/GD32VW55X_Wifi_BLE_SDK/GD32VW55x_RELEASE_V1.0.2/MSDK/lwip/libcoap-4.3.4/src\coap_debug.c **** 
 434:C:/Users/stapi/OneDrive/Desktop/GD32VW553/GD32VW55X_Wifi_BLE_SDK/GD32VW55x_RELEASE_V1.0.2/MSDK/lwip/libcoap-4.3.4/src\coap_debug.c ****   if (len < 21) {
 435:C:/Users/stapi/OneDrive/Desktop/GD32VW553/GD32VW55X_Wifi_BLE_SDK/GD32VW55x_RELEASE_V1.0.2/MSDK/lwip/libcoap-4.3.4/src\coap_debug.c ****     return buf;
 436:C:/Users/stapi/OneDrive/Desktop/GD32VW553/GD32VW55X_Wifi_BLE_SDK/GD32VW55x_RELEASE_V1.0.2/MSDK/lwip/libcoap-4.3.4/src\coap_debug.c ****   }
 437:C:/Users/stapi/OneDrive/Desktop/GD32VW553/GD32VW55X_Wifi_BLE_SDK/GD32VW55x_RELEASE_V1.0.2/MSDK/lwip/libcoap-4.3.4/src\coap_debug.c **** #  endif /* WITH_UIP6 */
 438:C:/Users/stapi/OneDrive/Desktop/GD32VW553/GD32VW55X_Wifi_BLE_SDK/GD32VW55x_RELEASE_V1.0.2/MSDK/lwip/libcoap-4.3.4/src\coap_debug.c ****   return buf;
 439:C:/Users/stapi/OneDrive/Desktop/GD32VW553/GD32VW55X_Wifi_BLE_SDK/GD32VW55x_RELEASE_V1.0.2/MSDK/lwip/libcoap-4.3.4/src\coap_debug.c **** 
 440:C:/Users/stapi/OneDrive/Desktop/GD32VW553/GD32VW55X_Wifi_BLE_SDK/GD32VW55x_RELEASE_V1.0.2/MSDK/lwip/libcoap-4.3.4/src\coap_debug.c **** # elif WITH_LWIP
 441:C:/Users/stapi/OneDrive/Desktop/GD32VW553/GD32VW55X_Wifi_BLE_SDK/GD32VW55x_RELEASE_V1.0.2/MSDK/lwip/libcoap-4.3.4/src\coap_debug.c **** 
 442:C:/Users/stapi/OneDrive/Desktop/GD32VW553/GD32VW55X_Wifi_BLE_SDK/GD32VW55x_RELEASE_V1.0.2/MSDK/lwip/libcoap-4.3.4/src\coap_debug.c ****   assert(buf);
 443:C:/Users/stapi/OneDrive/Desktop/GD32VW553/GD32VW55X_Wifi_BLE_SDK/GD32VW55x_RELEASE_V1.0.2/MSDK/lwip/libcoap-4.3.4/src\coap_debug.c ****   assert(len);
 444:C:/Users/stapi/OneDrive/Desktop/GD32VW553/GD32VW55X_Wifi_BLE_SDK/GD32VW55x_RELEASE_V1.0.2/MSDK/lwip/libcoap-4.3.4/src\coap_debug.c ****   buf[0] = '\000';
 445:C:/Users/stapi/OneDrive/Desktop/GD32VW553/GD32VW55X_Wifi_BLE_SDK/GD32VW55x_RELEASE_V1.0.2/MSDK/lwip/libcoap-4.3.4/src\coap_debug.c **** 
 446:C:/Users/stapi/OneDrive/Desktop/GD32VW553/GD32VW55X_Wifi_BLE_SDK/GD32VW55x_RELEASE_V1.0.2/MSDK/lwip/libcoap-4.3.4/src\coap_debug.c ****   switch (IP_GET_TYPE(&addr->addr)) {
 447:C:/Users/stapi/OneDrive/Desktop/GD32VW553/GD32VW55X_Wifi_BLE_SDK/GD32VW55x_RELEASE_V1.0.2/MSDK/lwip/libcoap-4.3.4/src\coap_debug.c **** #if LWIP_IPV4
 448:C:/Users/stapi/OneDrive/Desktop/GD32VW553/GD32VW55X_Wifi_BLE_SDK/GD32VW55x_RELEASE_V1.0.2/MSDK/lwip/libcoap-4.3.4/src\coap_debug.c ****   case IPADDR_TYPE_V4:
 449:C:/Users/stapi/OneDrive/Desktop/GD32VW553/GD32VW55X_Wifi_BLE_SDK/GD32VW55x_RELEASE_V1.0.2/MSDK/lwip/libcoap-4.3.4/src\coap_debug.c ****     if (len < IP4ADDR_STRLEN_MAX)
 450:C:/Users/stapi/OneDrive/Desktop/GD32VW553/GD32VW55X_Wifi_BLE_SDK/GD32VW55x_RELEASE_V1.0.2/MSDK/lwip/libcoap-4.3.4/src\coap_debug.c ****       return buf;
 451:C:/Users/stapi/OneDrive/Desktop/GD32VW553/GD32VW55X_Wifi_BLE_SDK/GD32VW55x_RELEASE_V1.0.2/MSDK/lwip/libcoap-4.3.4/src\coap_debug.c ****     memcpy(buf, ip4addr_ntoa(ip_2_ip4(&addr->addr)), IP4ADDR_STRLEN_MAX);
 452:C:/Users/stapi/OneDrive/Desktop/GD32VW553/GD32VW55X_Wifi_BLE_SDK/GD32VW55x_RELEASE_V1.0.2/MSDK/lwip/libcoap-4.3.4/src\coap_debug.c ****     break;
 453:C:/Users/stapi/OneDrive/Desktop/GD32VW553/GD32VW55X_Wifi_BLE_SDK/GD32VW55x_RELEASE_V1.0.2/MSDK/lwip/libcoap-4.3.4/src\coap_debug.c **** #endif /* LWIP_IPV4 */
 454:C:/Users/stapi/OneDrive/Desktop/GD32VW553/GD32VW55X_Wifi_BLE_SDK/GD32VW55x_RELEASE_V1.0.2/MSDK/lwip/libcoap-4.3.4/src\coap_debug.c **** #if LWIP_IPV6
 455:C:/Users/stapi/OneDrive/Desktop/GD32VW553/GD32VW55X_Wifi_BLE_SDK/GD32VW55x_RELEASE_V1.0.2/MSDK/lwip/libcoap-4.3.4/src\coap_debug.c ****   case IPADDR_TYPE_V6:
 456:C:/Users/stapi/OneDrive/Desktop/GD32VW553/GD32VW55X_Wifi_BLE_SDK/GD32VW55x_RELEASE_V1.0.2/MSDK/lwip/libcoap-4.3.4/src\coap_debug.c ****   case IPADDR_TYPE_ANY:
 457:C:/Users/stapi/OneDrive/Desktop/GD32VW553/GD32VW55X_Wifi_BLE_SDK/GD32VW55x_RELEASE_V1.0.2/MSDK/lwip/libcoap-4.3.4/src\coap_debug.c ****     if (len < 40)
 458:C:/Users/stapi/OneDrive/Desktop/GD32VW553/GD32VW55X_Wifi_BLE_SDK/GD32VW55x_RELEASE_V1.0.2/MSDK/lwip/libcoap-4.3.4/src\coap_debug.c ****       return buf;
 459:C:/Users/stapi/OneDrive/Desktop/GD32VW553/GD32VW55X_Wifi_BLE_SDK/GD32VW55x_RELEASE_V1.0.2/MSDK/lwip/libcoap-4.3.4/src\coap_debug.c **** #if LWIP_IPV4
 460:C:/Users/stapi/OneDrive/Desktop/GD32VW553/GD32VW55X_Wifi_BLE_SDK/GD32VW55x_RELEASE_V1.0.2/MSDK/lwip/libcoap-4.3.4/src\coap_debug.c ****     memcpy(buf, ip6addr_ntoa(&addr->addr.u_addr.ip6), 40);
 461:C:/Users/stapi/OneDrive/Desktop/GD32VW553/GD32VW55X_Wifi_BLE_SDK/GD32VW55x_RELEASE_V1.0.2/MSDK/lwip/libcoap-4.3.4/src\coap_debug.c **** #else /* LWIP_IPV4 */
 462:C:/Users/stapi/OneDrive/Desktop/GD32VW553/GD32VW55X_Wifi_BLE_SDK/GD32VW55x_RELEASE_V1.0.2/MSDK/lwip/libcoap-4.3.4/src\coap_debug.c ****     memcpy(buf, ip6addr_ntoa(&addr->addr), 40);
 463:C:/Users/stapi/OneDrive/Desktop/GD32VW553/GD32VW55X_Wifi_BLE_SDK/GD32VW55x_RELEASE_V1.0.2/MSDK/lwip/libcoap-4.3.4/src\coap_debug.c **** #endif /* LWIP_IPV4 */
 464:C:/Users/stapi/OneDrive/Desktop/GD32VW553/GD32VW55X_Wifi_BLE_SDK/GD32VW55x_RELEASE_V1.0.2/MSDK/lwip/libcoap-4.3.4/src\coap_debug.c ****     break;
 465:C:/Users/stapi/OneDrive/Desktop/GD32VW553/GD32VW55X_Wifi_BLE_SDK/GD32VW55x_RELEASE_V1.0.2/MSDK/lwip/libcoap-4.3.4/src\coap_debug.c **** #endif /* LWIP_IPV6 */
 466:C:/Users/stapi/OneDrive/Desktop/GD32VW553/GD32VW55X_Wifi_BLE_SDK/GD32VW55x_RELEASE_V1.0.2/MSDK/lwip/libcoap-4.3.4/src\coap_debug.c ****   }
 467:C:/Users/stapi/OneDrive/Desktop/GD32VW553/GD32VW55X_Wifi_BLE_SDK/GD32VW55x_RELEASE_V1.0.2/MSDK/lwip/libcoap-4.3.4/src\coap_debug.c ****   return buf;
 468:C:/Users/stapi/OneDrive/Desktop/GD32VW553/GD32VW55X_Wifi_BLE_SDK/GD32VW55x_RELEASE_V1.0.2/MSDK/lwip/libcoap-4.3.4/src\coap_debug.c **** 
 469:C:/Users/stapi/OneDrive/Desktop/GD32VW553/GD32VW55X_Wifi_BLE_SDK/GD32VW55x_RELEASE_V1.0.2/MSDK/lwip/libcoap-4.3.4/src\coap_debug.c **** # else /* ! WITH_CONTIKI && ! WITH_LWIP */
 470:C:/Users/stapi/OneDrive/Desktop/GD32VW553/GD32VW55X_Wifi_BLE_SDK/GD32VW55x_RELEASE_V1.0.2/MSDK/lwip/libcoap-4.3.4/src\coap_debug.c **** 
 471:C:/Users/stapi/OneDrive/Desktop/GD32VW553/GD32VW55X_Wifi_BLE_SDK/GD32VW55x_RELEASE_V1.0.2/MSDK/lwip/libcoap-4.3.4/src\coap_debug.c ****   (void)addr;
 472:C:/Users/stapi/OneDrive/Desktop/GD32VW553/GD32VW55X_Wifi_BLE_SDK/GD32VW55x_RELEASE_V1.0.2/MSDK/lwip/libcoap-4.3.4/src\coap_debug.c ****   (void)len;
 473:C:/Users/stapi/OneDrive/Desktop/GD32VW553/GD32VW55X_Wifi_BLE_SDK/GD32VW55x_RELEASE_V1.0.2/MSDK/lwip/libcoap-4.3.4/src\coap_debug.c **** 
 474:C:/Users/stapi/OneDrive/Desktop/GD32VW553/GD32VW55X_Wifi_BLE_SDK/GD32VW55x_RELEASE_V1.0.2/MSDK/lwip/libcoap-4.3.4/src\coap_debug.c ****   /* TODO: output addresses manually */
 475:C:/Users/stapi/OneDrive/Desktop/GD32VW553/GD32VW55X_Wifi_BLE_SDK/GD32VW55x_RELEASE_V1.0.2/MSDK/lwip/libcoap-4.3.4/src\coap_debug.c **** #   warning "inet_ntop() not available, network addresses will not be included in debug output"
 476:C:/Users/stapi/OneDrive/Desktop/GD32VW553/GD32VW55X_Wifi_BLE_SDK/GD32VW55x_RELEASE_V1.0.2/MSDK/lwip/libcoap-4.3.4/src\coap_debug.c **** # endif /* WITH_CONTIKI */
 477:C:/Users/stapi/OneDrive/Desktop/GD32VW553/GD32VW55X_Wifi_BLE_SDK/GD32VW55x_RELEASE_V1.0.2/MSDK/lwip/libcoap-4.3.4/src\coap_debug.c ****   buf[0] = '\000';
 478:C:/Users/stapi/OneDrive/Desktop/GD32VW553/GD32VW55X_Wifi_BLE_SDK/GD32VW55x_RELEASE_V1.0.2/MSDK/lwip/libcoap-4.3.4/src\coap_debug.c ****   return buf;
 479:C:/Users/stapi/OneDrive/Desktop/GD32VW553/GD32VW55X_Wifi_BLE_SDK/GD32VW55x_RELEASE_V1.0.2/MSDK/lwip/libcoap-4.3.4/src\coap_debug.c **** #endif
 480:C:/Users/stapi/OneDrive/Desktop/GD32VW553/GD32VW55X_Wifi_BLE_SDK/GD32VW55x_RELEASE_V1.0.2/MSDK/lwip/libcoap-4.3.4/src\coap_debug.c **** }
 481:C:/Users/stapi/OneDrive/Desktop/GD32VW553/GD32VW55X_Wifi_BLE_SDK/GD32VW55x_RELEASE_V1.0.2/MSDK/lwip/libcoap-4.3.4/src\coap_debug.c **** 
 482:C:/Users/stapi/OneDrive/Desktop/GD32VW553/GD32VW55X_Wifi_BLE_SDK/GD32VW55x_RELEASE_V1.0.2/MSDK/lwip/libcoap-4.3.4/src\coap_debug.c **** /** Returns a textual description of the message type @p t. */
 483:C:/Users/stapi/OneDrive/Desktop/GD32VW553/GD32VW55X_Wifi_BLE_SDK/GD32VW55x_RELEASE_V1.0.2/MSDK/lwip/libcoap-4.3.4/src\coap_debug.c **** static const char *
 484:C:/Users/stapi/OneDrive/Desktop/GD32VW553/GD32VW55X_Wifi_BLE_SDK/GD32VW55x_RELEASE_V1.0.2/MSDK/lwip/libcoap-4.3.4/src\coap_debug.c **** msg_type_string(uint16_t t) {
 485:C:/Users/stapi/OneDrive/Desktop/GD32VW553/GD32VW55X_Wifi_BLE_SDK/GD32VW55x_RELEASE_V1.0.2/MSDK/lwip/libcoap-4.3.4/src\coap_debug.c ****   static const char *types[] = { "CON", "NON", "ACK", "RST", "???" };
 486:C:/Users/stapi/OneDrive/Desktop/GD32VW553/GD32VW55X_Wifi_BLE_SDK/GD32VW55x_RELEASE_V1.0.2/MSDK/lwip/libcoap-4.3.4/src\coap_debug.c **** 
 487:C:/Users/stapi/OneDrive/Desktop/GD32VW553/GD32VW55X_Wifi_BLE_SDK/GD32VW55x_RELEASE_V1.0.2/MSDK/lwip/libcoap-4.3.4/src\coap_debug.c ****   return types[min(t, sizeof(types)/sizeof(char *) - 1)];
 488:C:/Users/stapi/OneDrive/Desktop/GD32VW553/GD32VW55X_Wifi_BLE_SDK/GD32VW55x_RELEASE_V1.0.2/MSDK/lwip/libcoap-4.3.4/src\coap_debug.c **** }
 489:C:/Users/stapi/OneDrive/Desktop/GD32VW553/GD32VW55X_Wifi_BLE_SDK/GD32VW55x_RELEASE_V1.0.2/MSDK/lwip/libcoap-4.3.4/src\coap_debug.c **** 
 490:C:/Users/stapi/OneDrive/Desktop/GD32VW553/GD32VW55X_Wifi_BLE_SDK/GD32VW55x_RELEASE_V1.0.2/MSDK/lwip/libcoap-4.3.4/src\coap_debug.c **** /** Returns a textual description of the method or response code. */
 491:C:/Users/stapi/OneDrive/Desktop/GD32VW553/GD32VW55X_Wifi_BLE_SDK/GD32VW55x_RELEASE_V1.0.2/MSDK/lwip/libcoap-4.3.4/src\coap_debug.c **** static const char *
 492:C:/Users/stapi/OneDrive/Desktop/GD32VW553/GD32VW55X_Wifi_BLE_SDK/GD32VW55x_RELEASE_V1.0.2/MSDK/lwip/libcoap-4.3.4/src\coap_debug.c **** msg_code_string(uint16_t c) {
 215              		.loc 1 492 29 is_stmt 1
 216              		.cfi_startproc
 217              	.LVL23:
 493:C:/Users/stapi/OneDrive/Desktop/GD32VW553/GD32VW55X_Wifi_BLE_SDK/GD32VW55x_RELEASE_V1.0.2/MSDK/lwip/libcoap-4.3.4/src\coap_debug.c ****   static const char *methods[] = { "0.00", "GET", "POST", "PUT", "DELETE",
 218              		.loc 1 493 3
 494:C:/Users/stapi/OneDrive/Desktop/GD32VW553/GD32VW55X_Wifi_BLE_SDK/GD32VW55x_RELEASE_V1.0.2/MSDK/lwip/libcoap-4.3.4/src\coap_debug.c ****                                    "FETCH", "PATCH", "iPATCH"
 495:C:/Users/stapi/OneDrive/Desktop/GD32VW553/GD32VW55X_Wifi_BLE_SDK/GD32VW55x_RELEASE_V1.0.2/MSDK/lwip/libcoap-4.3.4/src\coap_debug.c ****                                  };
 496:C:/Users/stapi/OneDrive/Desktop/GD32VW553/GD32VW55X_Wifi_BLE_SDK/GD32VW55x_RELEASE_V1.0.2/MSDK/lwip/libcoap-4.3.4/src\coap_debug.c ****   static const char *signals[] = { "7.00", "CSM", "Ping", "Pong", "Release",
 219              		.loc 1 496 3
 497:C:/Users/stapi/OneDrive/Desktop/GD32VW553/GD32VW55X_Wifi_BLE_SDK/GD32VW55x_RELEASE_V1.0.2/MSDK/lwip/libcoap-4.3.4/src\coap_debug.c ****                                    "Abort"
 498:C:/Users/stapi/OneDrive/Desktop/GD32VW553/GD32VW55X_Wifi_BLE_SDK/GD32VW55x_RELEASE_V1.0.2/MSDK/lwip/libcoap-4.3.4/src\coap_debug.c ****                                  };
 499:C:/Users/stapi/OneDrive/Desktop/GD32VW553/GD32VW55X_Wifi_BLE_SDK/GD32VW55x_RELEASE_V1.0.2/MSDK/lwip/libcoap-4.3.4/src\coap_debug.c ****   static char buf[5];
 220              		.loc 1 499 3
 500:C:/Users/stapi/OneDrive/Desktop/GD32VW553/GD32VW55X_Wifi_BLE_SDK/GD32VW55x_RELEASE_V1.0.2/MSDK/lwip/libcoap-4.3.4/src\coap_debug.c **** 
 501:C:/Users/stapi/OneDrive/Desktop/GD32VW553/GD32VW55X_Wifi_BLE_SDK/GD32VW55x_RELEASE_V1.0.2/MSDK/lwip/libcoap-4.3.4/src\coap_debug.c ****   if (c < sizeof(methods)/sizeof(const char *)) {
 221              		.loc 1 501 3
 222              		.loc 1 501 6 is_stmt 0
 223 0000 9D47     		li	a5,7
 224 0002 63EAA700 		bgtu	a0,a5,.L22
 502:C:/Users/stapi/OneDrive/Desktop/GD32VW553/GD32VW55X_Wifi_BLE_SDK/GD32VW55x_RELEASE_V1.0.2/MSDK/lwip/libcoap-4.3.4/src\coap_debug.c ****     return methods[c];
 225              		.loc 1 502 5 is_stmt 1
 226              		.loc 1 502 19 is_stmt 0
 227 0006 37070000 		lui	a4,%hi(.LANCHOR2)
 228 000a 13070700 		addi	a4,a4,%lo(.LANCHOR2)
 229 000e 3345E520 		sh2add	a0,a0,a4
 230              	.LVL24:
 231 0012 0841     		lw	a0,0(a0)
 232 0014 8280     		ret
 233              	.LVL25:
 234              	.L22:
 503:C:/Users/stapi/OneDrive/Desktop/GD32VW553/GD32VW55X_Wifi_BLE_SDK/GD32VW55x_RELEASE_V1.0.2/MSDK/lwip/libcoap-4.3.4/src\coap_debug.c ****   } else if (c >= 224 && c - 224 < (int)(sizeof(signals)/sizeof(const char *))) {
 235              		.loc 1 503 10 is_stmt 1
 236              		.loc 1 503 23 is_stmt 0
 237 0016 930705F2 		addi	a5,a0,-224
 238              		.loc 1 503 13
 239 001a 1547     		li	a4,5
 240 001c B3C60708 		zext.h	a3,a5
 241 0020 636AD700 		bgtu	a3,a4,.L24
 504:C:/Users/stapi/OneDrive/Desktop/GD32VW553/GD32VW55X_Wifi_BLE_SDK/GD32VW55x_RELEASE_V1.0.2/MSDK/lwip/libcoap-4.3.4/src\coap_debug.c ****     return signals[c-224];
 242              		.loc 1 504 5 is_stmt 1
 243              		.loc 1 504 19 is_stmt 0
 244 0024 37070000 		lui	a4,%hi(.LANCHOR3)
 245 0028 13070700 		addi	a4,a4,%lo(.LANCHOR3)
 246 002c B3C7E720 		sh2add	a5,a5,a4
 247 0030 8843     		lw	a0,0(a5)
 248              	.LVL26:
 505:C:/Users/stapi/OneDrive/Desktop/GD32VW553/GD32VW55X_Wifi_BLE_SDK/GD32VW55x_RELEASE_V1.0.2/MSDK/lwip/libcoap-4.3.4/src\coap_debug.c ****   } else {
 506:C:/Users/stapi/OneDrive/Desktop/GD32VW553/GD32VW55X_Wifi_BLE_SDK/GD32VW55x_RELEASE_V1.0.2/MSDK/lwip/libcoap-4.3.4/src\coap_debug.c ****     snprintf(buf, sizeof(buf), "%u.%02u", (c >> 5) & 0x7, c & 0x1f);
 507:C:/Users/stapi/OneDrive/Desktop/GD32VW553/GD32VW55X_Wifi_BLE_SDK/GD32VW55x_RELEASE_V1.0.2/MSDK/lwip/libcoap-4.3.4/src\coap_debug.c ****     return buf;
 508:C:/Users/stapi/OneDrive/Desktop/GD32VW553/GD32VW55X_Wifi_BLE_SDK/GD32VW55x_RELEASE_V1.0.2/MSDK/lwip/libcoap-4.3.4/src\coap_debug.c ****   }
 509:C:/Users/stapi/OneDrive/Desktop/GD32VW553/GD32VW55X_Wifi_BLE_SDK/GD32VW55x_RELEASE_V1.0.2/MSDK/lwip/libcoap-4.3.4/src\coap_debug.c **** }
 249              		.loc 1 509 1
 250 0032 8280     		ret
 251              	.LVL27:
 252              	.L24:
 492:C:/Users/stapi/OneDrive/Desktop/GD32VW553/GD32VW55X_Wifi_BLE_SDK/GD32VW55x_RELEASE_V1.0.2/MSDK/lwip/libcoap-4.3.4/src\coap_debug.c ****   static const char *methods[] = { "0.00", "GET", "POST", "PUT", "DELETE",
 253              		.loc 1 492 29
 254 0034 17030000 		call	t0,__riscv_save_1
 254      E7020300 
 255              		.cfi_offset 8, -8
 256              		.cfi_offset 1, -4
 257              		.cfi_def_cfa_offset 16
 258              	.LVL28:
 259              	.LBB39:
 260              	.LBB40:
 506:C:/Users/stapi/OneDrive/Desktop/GD32VW553/GD32VW55X_Wifi_BLE_SDK/GD32VW55x_RELEASE_V1.0.2/MSDK/lwip/libcoap-4.3.4/src\coap_debug.c ****     return buf;
 261              		.loc 1 506 5 is_stmt 1
 262 003c 37040000 		lui	s0,%hi(.LANCHOR1)
 263 0040 93565500 		srli	a3,a0,5
 264 0044 37060000 		lui	a2,%hi(.LC3)
 265 0048 1377F501 		andi	a4,a0,31
 266 004c 9D8A     		andi	a3,a3,7
 267 004e 13060600 		addi	a2,a2,%lo(.LC3)
 268 0052 9545     		li	a1,5
 269 0054 13050400 		addi	a0,s0,%lo(.LANCHOR1)
 270              	.LVL29:
 271 0058 97000000 		call	snprintf
 271      E7800000 
 272              	.LVL30:
 507:C:/Users/stapi/OneDrive/Desktop/GD32VW553/GD32VW55X_Wifi_BLE_SDK/GD32VW55x_RELEASE_V1.0.2/MSDK/lwip/libcoap-4.3.4/src\coap_debug.c ****   }
 273              		.loc 1 507 5
 506:C:/Users/stapi/OneDrive/Desktop/GD32VW553/GD32VW55X_Wifi_BLE_SDK/GD32VW55x_RELEASE_V1.0.2/MSDK/lwip/libcoap-4.3.4/src\coap_debug.c ****     return buf;
 274              		.loc 1 506 5 is_stmt 0
 275 0060 13050400 		addi	a0,s0,%lo(.LANCHOR1)
 276              	.LBE40:
 277              	.LBE39:
 278              		.loc 1 509 1
 279 0064 17030000 		tail	__riscv_restore_1
 279      67000300 
 280              		.cfi_restore 8
 281              		.cfi_restore 1
 282              		.cfi_def_cfa_offset 0
 283              		.cfi_endproc
 284              	.LFE42:
 286              		.section	.rodata.coap_package_name.str1.4,"aMS",@progbits,1
 287              		.align	2
 288              	.LC4:
 289 0000 6C696263 		.string	"libcoap"
 289      6F617000 
 290              		.section	.text.coap_package_name,"ax",@progbits
 291              		.align	1
 292              		.globl	coap_package_name
 294              	coap_package_name:
 295              	.LFB31:
  67:C:/Users/stapi/OneDrive/Desktop/GD32VW553/GD32VW55X_Wifi_BLE_SDK/GD32VW55x_RELEASE_V1.0.2/MSDK/lwip/libcoap-4.3.4/src\coap_debug.c ****   return PACKAGE_NAME;
 296              		.loc 1 67 25 is_stmt 1
 297              		.cfi_startproc
  68:C:/Users/stapi/OneDrive/Desktop/GD32VW553/GD32VW55X_Wifi_BLE_SDK/GD32VW55x_RELEASE_V1.0.2/MSDK/lwip/libcoap-4.3.4/src\coap_debug.c **** }
 298              		.loc 1 68 3
  68:C:/Users/stapi/OneDrive/Desktop/GD32VW553/GD32VW55X_Wifi_BLE_SDK/GD32VW55x_RELEASE_V1.0.2/MSDK/lwip/libcoap-4.3.4/src\coap_debug.c **** }
 299              		.loc 1 68 10 is_stmt 0
 300 0000 37050000 		lui	a0,%hi(.LC4)
  69:C:/Users/stapi/OneDrive/Desktop/GD32VW553/GD32VW55X_Wifi_BLE_SDK/GD32VW55x_RELEASE_V1.0.2/MSDK/lwip/libcoap-4.3.4/src\coap_debug.c **** 
 301              		.loc 1 69 1
 302 0004 13050500 		addi	a0,a0,%lo(.LC4)
 303 0008 8280     		ret
 304              		.cfi_endproc
 305              	.LFE31:
 307              		.section	.rodata.coap_package_version.str1.4,"aMS",@progbits,1
 308              		.align	2
 309              	.LC5:
 310 0000 6C696263 		.string	"libcoap 4.3.4"
 310      6F617020 
 310      342E332E 
 310      3400
 311              		.section	.text.coap_package_version,"ax",@progbits
 312              		.align	1
 313              		.globl	coap_package_version
 315              	coap_package_version:
 316              	.LFB32:
  72:C:/Users/stapi/OneDrive/Desktop/GD32VW553/GD32VW55X_Wifi_BLE_SDK/GD32VW55x_RELEASE_V1.0.2/MSDK/lwip/libcoap-4.3.4/src\coap_debug.c ****   return PACKAGE_STRING;
 317              		.loc 1 72 28 is_stmt 1
 318              		.cfi_startproc
  73:C:/Users/stapi/OneDrive/Desktop/GD32VW553/GD32VW55X_Wifi_BLE_SDK/GD32VW55x_RELEASE_V1.0.2/MSDK/lwip/libcoap-4.3.4/src\coap_debug.c **** }
 319              		.loc 1 73 3
  73:C:/Users/stapi/OneDrive/Desktop/GD32VW553/GD32VW55X_Wifi_BLE_SDK/GD32VW55x_RELEASE_V1.0.2/MSDK/lwip/libcoap-4.3.4/src\coap_debug.c **** }
 320              		.loc 1 73 10 is_stmt 0
 321 0000 37050000 		lui	a0,%hi(.LC5)
  74:C:/Users/stapi/OneDrive/Desktop/GD32VW553/GD32VW55X_Wifi_BLE_SDK/GD32VW55x_RELEASE_V1.0.2/MSDK/lwip/libcoap-4.3.4/src\coap_debug.c **** 
 322              		.loc 1 74 1
 323 0004 13050500 		addi	a0,a0,%lo(.LC5)
 324 0008 8280     		ret
 325              		.cfi_endproc
 326              	.LFE32:
 328              		.section	.text.coap_package_build,"ax",@progbits
 329              		.align	1
 330              		.globl	coap_package_build
 332              	coap_package_build:
 333              	.LFB58:
 334              		.cfi_startproc
 335 0000 37050000 		lui	a0,%hi(.LC5)
 336 0004 13050500 		addi	a0,a0,%lo(.LC5)
 337 0008 8280     		ret
 338              		.cfi_endproc
 339              	.LFE58:
 341              		.section	.text.coap_set_show_pdu_output,"ax",@progbits
 342              		.align	1
 343              		.globl	coap_set_show_pdu_output
 345              	coap_set_show_pdu_output:
 346              	.LFB34:
  86:C:/Users/stapi/OneDrive/Desktop/GD32VW553/GD32VW55X_Wifi_BLE_SDK/GD32VW55x_RELEASE_V1.0.2/MSDK/lwip/libcoap-4.3.4/src\coap_debug.c ****   use_fprintf_for_show_pdu = use_fprintf;
 347              		.loc 1 86 43 is_stmt 1
 348              		.cfi_startproc
 349              	.LVL31:
  87:C:/Users/stapi/OneDrive/Desktop/GD32VW553/GD32VW55X_Wifi_BLE_SDK/GD32VW55x_RELEASE_V1.0.2/MSDK/lwip/libcoap-4.3.4/src\coap_debug.c **** }
 350              		.loc 1 87 3
  87:C:/Users/stapi/OneDrive/Desktop/GD32VW553/GD32VW55X_Wifi_BLE_SDK/GD32VW55x_RELEASE_V1.0.2/MSDK/lwip/libcoap-4.3.4/src\coap_debug.c **** }
 351              		.loc 1 87 28 is_stmt 0
 352 0000 B7070000 		lui	a5,%hi(.LANCHOR4)
 353 0004 23A0A700 		sw	a0,%lo(.LANCHOR4)(a5)
  88:C:/Users/stapi/OneDrive/Desktop/GD32VW553/GD32VW55X_Wifi_BLE_SDK/GD32VW55x_RELEASE_V1.0.2/MSDK/lwip/libcoap-4.3.4/src\coap_debug.c **** 
 354              		.loc 1 88 1
 355 0008 8280     		ret
 356              		.cfi_endproc
 357              	.LFE34:
 359              		.section	.text.coap_get_log_level,"ax",@progbits
 360              		.align	1
 361              		.globl	coap_get_log_level
 363              	coap_get_log_level:
 364              	.LFB35:
  91:C:/Users/stapi/OneDrive/Desktop/GD32VW553/GD32VW55X_Wifi_BLE_SDK/GD32VW55x_RELEASE_V1.0.2/MSDK/lwip/libcoap-4.3.4/src\coap_debug.c ****   return maxlog;
 365              		.loc 1 91 26 is_stmt 1
 366              		.cfi_startproc
  92:C:/Users/stapi/OneDrive/Desktop/GD32VW553/GD32VW55X_Wifi_BLE_SDK/GD32VW55x_RELEASE_V1.0.2/MSDK/lwip/libcoap-4.3.4/src\coap_debug.c **** }
 367              		.loc 1 92 3
  93:C:/Users/stapi/OneDrive/Desktop/GD32VW553/GD32VW55X_Wifi_BLE_SDK/GD32VW55x_RELEASE_V1.0.2/MSDK/lwip/libcoap-4.3.4/src\coap_debug.c **** 
 368              		.loc 1 93 1 is_stmt 0
 369 0000 B7070000 		lui	a5,%hi(.LANCHOR5)
 370 0004 03A50700 		lw	a0,%lo(.LANCHOR5)(a5)
 371 0008 8280     		ret
 372              		.cfi_endproc
 373              	.LFE35:
 375              		.section	.text.coap_set_log_level,"ax",@progbits
 376              		.align	1
 377              		.globl	coap_set_log_level
 379              	coap_set_log_level:
 380              	.LFB36:
  96:C:/Users/stapi/OneDrive/Desktop/GD32VW553/GD32VW55X_Wifi_BLE_SDK/GD32VW55x_RELEASE_V1.0.2/MSDK/lwip/libcoap-4.3.4/src\coap_debug.c ****   if (level > COAP_MAX_LOGGING_LEVEL)
 381              		.loc 1 96 38 is_stmt 1
 382              		.cfi_startproc
 383              	.LVL32:
  97:C:/Users/stapi/OneDrive/Desktop/GD32VW553/GD32VW55X_Wifi_BLE_SDK/GD32VW55x_RELEASE_V1.0.2/MSDK/lwip/libcoap-4.3.4/src\coap_debug.c ****     level = COAP_MAX_LOGGING_LEVEL;
 384              		.loc 1 97 3
  99:C:/Users/stapi/OneDrive/Desktop/GD32VW553/GD32VW55X_Wifi_BLE_SDK/GD32VW55x_RELEASE_V1.0.2/MSDK/lwip/libcoap-4.3.4/src\coap_debug.c **** }
 385              		.loc 1 99 3
  99:C:/Users/stapi/OneDrive/Desktop/GD32VW553/GD32VW55X_Wifi_BLE_SDK/GD32VW55x_RELEASE_V1.0.2/MSDK/lwip/libcoap-4.3.4/src\coap_debug.c **** }
 386              		.loc 1 99 10 is_stmt 0
 387 0000 A147     		li	a5,8
 388 0002 3355F50A 		minu	a0,a0,a5
 389              	.LVL33:
 390 0006 B7070000 		lui	a5,%hi(.LANCHOR5)
 391 000a 23A0A700 		sw	a0,%lo(.LANCHOR5)(a5)
 100:C:/Users/stapi/OneDrive/Desktop/GD32VW553/GD32VW55X_Wifi_BLE_SDK/GD32VW55x_RELEASE_V1.0.2/MSDK/lwip/libcoap-4.3.4/src\coap_debug.c **** 
 392              		.loc 1 100 1
 393 000e 8280     		ret
 394              		.cfi_endproc
 395              	.LFE36:
 397              		.section	.rodata.coap_print_ip_addr.str1.4,"aMS",@progbits,1
 398              		.align	2
 399              	.LC6:
 400 0000 62756600 		.string	"buf"
 401              		.align	2
 402              	.LC7:
 403 0004 6C656E00 		.string	"len"
 404              		.section	.text.coap_print_ip_addr,"ax",@progbits
 405              		.align	1
 406              		.globl	coap_print_ip_addr
 408              	coap_print_ip_addr:
 409              	.LFB40:
 364:C:/Users/stapi/OneDrive/Desktop/GD32VW553/GD32VW55X_Wifi_BLE_SDK/GD32VW55x_RELEASE_V1.0.2/MSDK/lwip/libcoap-4.3.4/src\coap_debug.c **** #if defined( HAVE_ARPA_INET_H ) || defined( HAVE_WS2TCPIP_H )
 410              		.loc 1 364 71 is_stmt 1
 411              		.cfi_startproc
 412              	.LVL34:
 413 0000 17030000 		call	t0,__riscv_save_1
 413      E7020300 
 414              		.cfi_offset 8, -8
 415              		.cfi_offset 1, -4
 416              		.cfi_def_cfa_offset 16
 442:C:/Users/stapi/OneDrive/Desktop/GD32VW553/GD32VW55X_Wifi_BLE_SDK/GD32VW55x_RELEASE_V1.0.2/MSDK/lwip/libcoap-4.3.4/src\coap_debug.c ****   assert(len);
 417              		.loc 1 442 3
 418 0008 9DE1     		bne	a1,zero,.L35
 442:C:/Users/stapi/OneDrive/Desktop/GD32VW553/GD32VW55X_Wifi_BLE_SDK/GD32VW55x_RELEASE_V1.0.2/MSDK/lwip/libcoap-4.3.4/src\coap_debug.c ****   assert(len);
 419              		.loc 1 442 3 is_stmt 0 discriminator 1
 420 000a B7060000 		lui	a3,%hi(.LC6)
 421 000e 37060000 		lui	a2,%hi(.LANCHOR6)
 422              	.LVL35:
 423 0012 93860600 		addi	a3,a3,%lo(.LC6)
 424 0016 13060600 		addi	a2,a2,%lo(.LANCHOR6)
 425 001a 9305A01B 		li	a1,442
 426              	.LVL36:
 427              	.L39:
 428              	.LBB43:
 429              	.LBB44:
 443:C:/Users/stapi/OneDrive/Desktop/GD32VW553/GD32VW55X_Wifi_BLE_SDK/GD32VW55x_RELEASE_V1.0.2/MSDK/lwip/libcoap-4.3.4/src\coap_debug.c ****   buf[0] = '\000';
 430              		.loc 1 443 3
 431 001e 37050000 		lui	a0,%hi(.LC2)
 432              	.LVL37:
 433 0022 13050500 		addi	a0,a0,%lo(.LC2)
 434 0026 97000000 		call	__assert_func
 434      E7800000 
 435              	.LVL38:
 436              	.L35:
 437              	.LBE44:
 438              	.LBE43:
 443:C:/Users/stapi/OneDrive/Desktop/GD32VW553/GD32VW55X_Wifi_BLE_SDK/GD32VW55x_RELEASE_V1.0.2/MSDK/lwip/libcoap-4.3.4/src\coap_debug.c ****   buf[0] = '\000';
 439              		.loc 1 443 3 is_stmt 1
 440 002e 01EE     		bne	a2,zero,.L36
 441              	.LVL39:
 442              	.LBB46:
 443              	.LBB45:
 444 0030 B7060000 		lui	a3,%hi(.LC7)
 445 0034 37060000 		lui	a2,%hi(.LANCHOR6)
 446              	.LVL40:
 447 0038 93860600 		addi	a3,a3,%lo(.LC7)
 448 003c 13060600 		addi	a2,a2,%lo(.LANCHOR6)
 449 0040 9305B01B 		li	a1,443
 450              	.LVL41:
 451 0044 E9BF     		j	.L39
 452              	.LVL42:
 453              	.L36:
 454              	.LBE45:
 455              	.LBE46:
 444:C:/Users/stapi/OneDrive/Desktop/GD32VW553/GD32VW55X_Wifi_BLE_SDK/GD32VW55x_RELEASE_V1.0.2/MSDK/lwip/libcoap-4.3.4/src\coap_debug.c **** 
 456              		.loc 1 444 10 is_stmt 0
 457 0046 23800500 		sb	zero,0(a1)
 449:C:/Users/stapi/OneDrive/Desktop/GD32VW553/GD32VW55X_Wifi_BLE_SDK/GD32VW55x_RELEASE_V1.0.2/MSDK/lwip/libcoap-4.3.4/src\coap_debug.c ****       return buf;
 458              		.loc 1 449 8
 459 004a BD47     		li	a5,15
 460 004c 2E84     		mv	s0,a1
 444:C:/Users/stapi/OneDrive/Desktop/GD32VW553/GD32VW55X_Wifi_BLE_SDK/GD32VW55x_RELEASE_V1.0.2/MSDK/lwip/libcoap-4.3.4/src\coap_debug.c **** 
 461              		.loc 1 444 3 is_stmt 1
 446:C:/Users/stapi/OneDrive/Desktop/GD32VW553/GD32VW55X_Wifi_BLE_SDK/GD32VW55x_RELEASE_V1.0.2/MSDK/lwip/libcoap-4.3.4/src\coap_debug.c **** #if LWIP_IPV4
 462              		.loc 1 446 3
 449:C:/Users/stapi/OneDrive/Desktop/GD32VW553/GD32VW55X_Wifi_BLE_SDK/GD32VW55x_RELEASE_V1.0.2/MSDK/lwip/libcoap-4.3.4/src\coap_debug.c ****       return buf;
 463              		.loc 1 449 5
 449:C:/Users/stapi/OneDrive/Desktop/GD32VW553/GD32VW55X_Wifi_BLE_SDK/GD32VW55x_RELEASE_V1.0.2/MSDK/lwip/libcoap-4.3.4/src\coap_debug.c ****       return buf;
 464              		.loc 1 449 8 is_stmt 0
 465 004e 63FEC700 		bleu	a2,a5,.L37
 466              	.LVL43:
 451:C:/Users/stapi/OneDrive/Desktop/GD32VW553/GD32VW55X_Wifi_BLE_SDK/GD32VW55x_RELEASE_V1.0.2/MSDK/lwip/libcoap-4.3.4/src\coap_debug.c ****     break;
 467              		.loc 1 451 5 is_stmt 1
 451:C:/Users/stapi/OneDrive/Desktop/GD32VW553/GD32VW55X_Wifi_BLE_SDK/GD32VW55x_RELEASE_V1.0.2/MSDK/lwip/libcoap-4.3.4/src\coap_debug.c ****     break;
 468              		.loc 1 451 17 is_stmt 0
 469 0052 1105     		addi	a0,a0,4
 470              	.LVL44:
 471 0054 97000000 		call	ip4addr_ntoa
 471      E7800000 
 472              	.LVL45:
 473 005c AA85     		mv	a1,a0
 451:C:/Users/stapi/OneDrive/Desktop/GD32VW553/GD32VW55X_Wifi_BLE_SDK/GD32VW55x_RELEASE_V1.0.2/MSDK/lwip/libcoap-4.3.4/src\coap_debug.c ****     break;
 474              		.loc 1 451 5
 475 005e 4146     		li	a2,16
 476 0060 2285     		mv	a0,s0
 477 0062 97000000 		call	memcpy
 477      E7800000 
 478              	.LVL46:
 452:C:/Users/stapi/OneDrive/Desktop/GD32VW553/GD32VW55X_Wifi_BLE_SDK/GD32VW55x_RELEASE_V1.0.2/MSDK/lwip/libcoap-4.3.4/src\coap_debug.c **** #endif /* LWIP_IPV4 */
 479              		.loc 1 452 5 is_stmt 1
 467:C:/Users/stapi/OneDrive/Desktop/GD32VW553/GD32VW55X_Wifi_BLE_SDK/GD32VW55x_RELEASE_V1.0.2/MSDK/lwip/libcoap-4.3.4/src\coap_debug.c **** 
 480              		.loc 1 467 3
 481              	.L37:
 480:C:/Users/stapi/OneDrive/Desktop/GD32VW553/GD32VW55X_Wifi_BLE_SDK/GD32VW55x_RELEASE_V1.0.2/MSDK/lwip/libcoap-4.3.4/src\coap_debug.c **** 
 482              		.loc 1 480 1 is_stmt 0
 483 006a 2285     		mv	a0,s0
 484 006c 17030000 		tail	__riscv_restore_1
 484      67000300 
 485              		.cfi_restore 8
 486              		.cfi_restore 1
 487              		.cfi_def_cfa_offset 0
 488              		.cfi_endproc
 489              	.LFE40:
 491              		.section	.rodata.coap_print_addr.str1.4,"aMS",@progbits,1
 492              		.align	2
 493              	.LC8:
 494 0000 5B25735D 		.string	"[%s]:%d"
 494      3A256400 
 495              		.section	.text.coap_print_addr,"ax",@progbits
 496              		.align	1
 497              		.globl	coap_print_addr
 499              	coap_print_addr:
 500              	.LFB39:
 218:C:/Users/stapi/OneDrive/Desktop/GD32VW553/GD32VW55X_Wifi_BLE_SDK/GD32VW55x_RELEASE_V1.0.2/MSDK/lwip/libcoap-4.3.4/src\coap_debug.c **** #if defined( HAVE_ARPA_INET_H ) || defined( HAVE_WS2TCPIP_H )
 501              		.loc 1 218 77 is_stmt 1
 502              		.cfi_startproc
 503              	.LVL47:
 504 0000 17030000 		call	t0,__riscv_save_3
 504      E7020300 
 505              		.cfi_offset 18, -16
 506              		.cfi_offset 9, -12
 507              		.cfi_offset 8, -8
 508              		.cfi_offset 1, -4
 509              		.cfi_def_cfa_offset 16
 301:C:/Users/stapi/OneDrive/Desktop/GD32VW553/GD32VW55X_Wifi_BLE_SDK/GD32VW55x_RELEASE_V1.0.2/MSDK/lwip/libcoap-4.3.4/src\coap_debug.c **** #ifdef HAVE_SNPRINTF
 510              		.loc 1 301 3
 304:C:/Users/stapi/OneDrive/Desktop/GD32VW553/GD32VW55X_Wifi_BLE_SDK/GD32VW55x_RELEASE_V1.0.2/MSDK/lwip/libcoap-4.3.4/src\coap_debug.c ****            coap_print_ip_addr(addr, scratch, sizeof(scratch)),
 511              		.loc 1 304 3
 218:C:/Users/stapi/OneDrive/Desktop/GD32VW553/GD32VW55X_Wifi_BLE_SDK/GD32VW55x_RELEASE_V1.0.2/MSDK/lwip/libcoap-4.3.4/src\coap_debug.c **** #if defined( HAVE_ARPA_INET_H ) || defined( HAVE_WS2TCPIP_H )
 512              		.loc 1 218 77 is_stmt 0
 513 0008 7971     		addi	sp,sp,-48
 514              		.cfi_def_cfa_offset 64
 218:C:/Users/stapi/OneDrive/Desktop/GD32VW553/GD32VW55X_Wifi_BLE_SDK/GD32VW55x_RELEASE_V1.0.2/MSDK/lwip/libcoap-4.3.4/src\coap_debug.c **** #if defined( HAVE_ARPA_INET_H ) || defined( HAVE_WS2TCPIP_H )
 515              		.loc 1 218 77
 516 000a 2E84     		mv	s0,a1
 517 000c B284     		mv	s1,a2
 304:C:/Users/stapi/OneDrive/Desktop/GD32VW553/GD32VW55X_Wifi_BLE_SDK/GD32VW55x_RELEASE_V1.0.2/MSDK/lwip/libcoap-4.3.4/src\coap_debug.c ****            coap_print_ip_addr(addr, scratch, sizeof(scratch)),
 518              		.loc 1 304 3
 519 000e 8A85     		mv	a1,sp
 520              	.LVL48:
 521 0010 1306E002 		li	a2,46
 522              	.LVL49:
 218:C:/Users/stapi/OneDrive/Desktop/GD32VW553/GD32VW55X_Wifi_BLE_SDK/GD32VW55x_RELEASE_V1.0.2/MSDK/lwip/libcoap-4.3.4/src\coap_debug.c **** #if defined( HAVE_ARPA_INET_H ) || defined( HAVE_WS2TCPIP_H )
 523              		.loc 1 218 77
 524 0014 2A89     		mv	s2,a0
 304:C:/Users/stapi/OneDrive/Desktop/GD32VW553/GD32VW55X_Wifi_BLE_SDK/GD32VW55x_RELEASE_V1.0.2/MSDK/lwip/libcoap-4.3.4/src\coap_debug.c ****            coap_print_ip_addr(addr, scratch, sizeof(scratch)),
 525              		.loc 1 304 3
 526 0016 97000000 		call	coap_print_ip_addr
 526      E7800000 
 527              	.LVL50:
 528 001e 03570900 		lhu	a4,0(s2)
 529 0022 37060000 		lui	a2,%hi(.LC8)
 530 0026 AA86     		mv	a3,a0
 531 0028 13060600 		addi	a2,a2,%lo(.LC8)
 532 002c A685     		mv	a1,s1
 533 002e 2285     		mv	a0,s0
 534 0030 97000000 		call	snprintf
 534      E7800000 
 535              	.LVL51:
 307:C:/Users/stapi/OneDrive/Desktop/GD32VW553/GD32VW55X_Wifi_BLE_SDK/GD32VW55x_RELEASE_V1.0.2/MSDK/lwip/libcoap-4.3.4/src\coap_debug.c **** #else /* HAVE_SNPRINTF */
 536              		.loc 1 307 3 is_stmt 1
 307:C:/Users/stapi/OneDrive/Desktop/GD32VW553/GD32VW55X_Wifi_BLE_SDK/GD32VW55x_RELEASE_V1.0.2/MSDK/lwip/libcoap-4.3.4/src\coap_debug.c **** #else /* HAVE_SNPRINTF */
 537              		.loc 1 307 10 is_stmt 0
 538 0038 2285     		mv	a0,s0
 539 003a 97000000 		call	strlen
 539      E7800000 
 540              	.LVL52:
 357:C:/Users/stapi/OneDrive/Desktop/GD32VW553/GD32VW55X_Wifi_BLE_SDK/GD32VW55x_RELEASE_V1.0.2/MSDK/lwip/libcoap-4.3.4/src\coap_debug.c **** 
 541              		.loc 1 357 1
 542 0042 4561     		addi	sp,sp,48
 543              		.cfi_def_cfa_offset 0
 544 0044 17030000 		tail	__riscv_restore_3
 544      67000300 
 545              		.cfi_restore 18
 546              		.cfi_restore 9
 547              		.cfi_restore 8
 548              		.cfi_restore 1
 549              		.cfi_def_cfa_offset -16
 550              		.cfi_endproc
 551              	.LFE39:
 553              		.section	.rodata.coap_string_tls_version.str1.4,"aMS",@progbits,1
 554              		.align	2
 555              	.LC9:
 556 0000 544C5320 		.string	"TLS Library: None"
 556      4C696272 
 556      6172793A 
 556      204E6F6E 
 556      6500
 557 0012 0000     		.align	2
 558              	.LC10:
 559 0014 544C5320 		.string	"TLS Library: TinyDTLS - runtime %lu.%lu.%lu, libcoap built for %lu.%lu.%lu"
 559      4C696272 
 559      6172793A 
 559      2054696E 
 559      7944544C 
 560 005f 00       		.align	2
 561              	.LC11:
 562 0060 2D646576 		.string	"-dev"
 562      00
 563 0065 000000   		.align	2
 564              	.LC12:
 565 0068 00       		.string	""
 566 0069 000000   		.align	2
 567              	.LC13:
 568 006c 2D626574 		.string	"-beta"
 568      6100
 569 0072 0000     		.align	2
 570              	.LC14:
 571 0074 544C5320 		.string	"TLS Library: OpenSSL - runtime %lu.%lu.%lu%s%s, libcoap built for %lu.%lu.%lu%s%s"
 571      4C696272 
 571      6172793A 
 571      204F7065 
 571      6E53534C 
 572 00c6 0000     		.align	2
 573              	.LC15:
 574 00c8 544C5320 		.string	"TLS Library: GnuTLS - runtime %lu.%lu.%lu, libcoap built for %lu.%lu.%lu"
 574      4C696272 
 574      6172793A 
 574      20476E75 
 574      544C5320 
 575 0111 000000   		.align	2
 576              	.LC16:
 577 0114 544C5320 		.string	"TLS Library: Mbed TLS - runtime %lu.%lu.%lu, libcoap built for %lu.%lu.%lu"
 577      4C696272 
 577      6172793A 
 577      204D6265 
 577      6420544C 
 578 015f 00       		.align	2
 579              	.LC17:
 580 0160 4C696272 		.string	"Library type %d unknown"
 580      61727920 
 580      74797065 
 580      20256420 
 580      756E6B6E 
 581              		.section	.text.coap_string_tls_version,"ax",@progbits
 582              		.align	1
 583              		.globl	coap_string_tls_version
 585              	coap_string_tls_version:
 586              	.LFB48:
 510:C:/Users/stapi/OneDrive/Desktop/GD32VW553/GD32VW55X_Wifi_BLE_SDK/GD32VW55x_RELEASE_V1.0.2/MSDK/lwip/libcoap-4.3.4/src\coap_debug.c **** 
 511:C:/Users/stapi/OneDrive/Desktop/GD32VW553/GD32VW55X_Wifi_BLE_SDK/GD32VW55x_RELEASE_V1.0.2/MSDK/lwip/libcoap-4.3.4/src\coap_debug.c **** /** Returns a textual description of the option name. */
 512:C:/Users/stapi/OneDrive/Desktop/GD32VW553/GD32VW55X_Wifi_BLE_SDK/GD32VW55x_RELEASE_V1.0.2/MSDK/lwip/libcoap-4.3.4/src\coap_debug.c **** static const char *
 513:C:/Users/stapi/OneDrive/Desktop/GD32VW553/GD32VW55X_Wifi_BLE_SDK/GD32VW55x_RELEASE_V1.0.2/MSDK/lwip/libcoap-4.3.4/src\coap_debug.c **** msg_option_string(uint8_t code, uint16_t option_type) {
 514:C:/Users/stapi/OneDrive/Desktop/GD32VW553/GD32VW55X_Wifi_BLE_SDK/GD32VW55x_RELEASE_V1.0.2/MSDK/lwip/libcoap-4.3.4/src\coap_debug.c ****   struct option_desc_t {
 515:C:/Users/stapi/OneDrive/Desktop/GD32VW553/GD32VW55X_Wifi_BLE_SDK/GD32VW55x_RELEASE_V1.0.2/MSDK/lwip/libcoap-4.3.4/src\coap_debug.c ****     uint16_t type;
 516:C:/Users/stapi/OneDrive/Desktop/GD32VW553/GD32VW55X_Wifi_BLE_SDK/GD32VW55x_RELEASE_V1.0.2/MSDK/lwip/libcoap-4.3.4/src\coap_debug.c ****     const char *name;
 517:C:/Users/stapi/OneDrive/Desktop/GD32VW553/GD32VW55X_Wifi_BLE_SDK/GD32VW55x_RELEASE_V1.0.2/MSDK/lwip/libcoap-4.3.4/src\coap_debug.c ****   };
 518:C:/Users/stapi/OneDrive/Desktop/GD32VW553/GD32VW55X_Wifi_BLE_SDK/GD32VW55x_RELEASE_V1.0.2/MSDK/lwip/libcoap-4.3.4/src\coap_debug.c **** 
 519:C:/Users/stapi/OneDrive/Desktop/GD32VW553/GD32VW55X_Wifi_BLE_SDK/GD32VW55x_RELEASE_V1.0.2/MSDK/lwip/libcoap-4.3.4/src\coap_debug.c ****   static struct option_desc_t options[] = {
 520:C:/Users/stapi/OneDrive/Desktop/GD32VW553/GD32VW55X_Wifi_BLE_SDK/GD32VW55x_RELEASE_V1.0.2/MSDK/lwip/libcoap-4.3.4/src\coap_debug.c ****     { COAP_OPTION_IF_MATCH, "If-Match" },
 521:C:/Users/stapi/OneDrive/Desktop/GD32VW553/GD32VW55X_Wifi_BLE_SDK/GD32VW55x_RELEASE_V1.0.2/MSDK/lwip/libcoap-4.3.4/src\coap_debug.c ****     { COAP_OPTION_URI_HOST, "Uri-Host" },
 522:C:/Users/stapi/OneDrive/Desktop/GD32VW553/GD32VW55X_Wifi_BLE_SDK/GD32VW55x_RELEASE_V1.0.2/MSDK/lwip/libcoap-4.3.4/src\coap_debug.c ****     { COAP_OPTION_ETAG, "ETag" },
 523:C:/Users/stapi/OneDrive/Desktop/GD32VW553/GD32VW55X_Wifi_BLE_SDK/GD32VW55x_RELEASE_V1.0.2/MSDK/lwip/libcoap-4.3.4/src\coap_debug.c ****     { COAP_OPTION_IF_NONE_MATCH, "If-None-Match" },
 524:C:/Users/stapi/OneDrive/Desktop/GD32VW553/GD32VW55X_Wifi_BLE_SDK/GD32VW55x_RELEASE_V1.0.2/MSDK/lwip/libcoap-4.3.4/src\coap_debug.c ****     { COAP_OPTION_OBSERVE, "Observe" },
 525:C:/Users/stapi/OneDrive/Desktop/GD32VW553/GD32VW55X_Wifi_BLE_SDK/GD32VW55x_RELEASE_V1.0.2/MSDK/lwip/libcoap-4.3.4/src\coap_debug.c ****     { COAP_OPTION_URI_PORT, "Uri-Port" },
 526:C:/Users/stapi/OneDrive/Desktop/GD32VW553/GD32VW55X_Wifi_BLE_SDK/GD32VW55x_RELEASE_V1.0.2/MSDK/lwip/libcoap-4.3.4/src\coap_debug.c ****     { COAP_OPTION_LOCATION_PATH, "Location-Path" },
 527:C:/Users/stapi/OneDrive/Desktop/GD32VW553/GD32VW55X_Wifi_BLE_SDK/GD32VW55x_RELEASE_V1.0.2/MSDK/lwip/libcoap-4.3.4/src\coap_debug.c ****     { COAP_OPTION_OSCORE, "Oscore" },
 528:C:/Users/stapi/OneDrive/Desktop/GD32VW553/GD32VW55X_Wifi_BLE_SDK/GD32VW55x_RELEASE_V1.0.2/MSDK/lwip/libcoap-4.3.4/src\coap_debug.c ****     { COAP_OPTION_URI_PATH, "Uri-Path" },
 529:C:/Users/stapi/OneDrive/Desktop/GD32VW553/GD32VW55X_Wifi_BLE_SDK/GD32VW55x_RELEASE_V1.0.2/MSDK/lwip/libcoap-4.3.4/src\coap_debug.c ****     { COAP_OPTION_CONTENT_FORMAT, "Content-Format" },
 530:C:/Users/stapi/OneDrive/Desktop/GD32VW553/GD32VW55X_Wifi_BLE_SDK/GD32VW55x_RELEASE_V1.0.2/MSDK/lwip/libcoap-4.3.4/src\coap_debug.c ****     { COAP_OPTION_MAXAGE, "Max-Age" },
 531:C:/Users/stapi/OneDrive/Desktop/GD32VW553/GD32VW55X_Wifi_BLE_SDK/GD32VW55x_RELEASE_V1.0.2/MSDK/lwip/libcoap-4.3.4/src\coap_debug.c ****     { COAP_OPTION_URI_QUERY, "Uri-Query" },
 532:C:/Users/stapi/OneDrive/Desktop/GD32VW553/GD32VW55X_Wifi_BLE_SDK/GD32VW55x_RELEASE_V1.0.2/MSDK/lwip/libcoap-4.3.4/src\coap_debug.c ****     { COAP_OPTION_HOP_LIMIT, "Hop-Limit" },
 533:C:/Users/stapi/OneDrive/Desktop/GD32VW553/GD32VW55X_Wifi_BLE_SDK/GD32VW55x_RELEASE_V1.0.2/MSDK/lwip/libcoap-4.3.4/src\coap_debug.c ****     { COAP_OPTION_ACCEPT, "Accept" },
 534:C:/Users/stapi/OneDrive/Desktop/GD32VW553/GD32VW55X_Wifi_BLE_SDK/GD32VW55x_RELEASE_V1.0.2/MSDK/lwip/libcoap-4.3.4/src\coap_debug.c ****     { COAP_OPTION_LOCATION_QUERY, "Location-Query" },
 535:C:/Users/stapi/OneDrive/Desktop/GD32VW553/GD32VW55X_Wifi_BLE_SDK/GD32VW55x_RELEASE_V1.0.2/MSDK/lwip/libcoap-4.3.4/src\coap_debug.c ****     { COAP_OPTION_BLOCK2, "Block2" },
 536:C:/Users/stapi/OneDrive/Desktop/GD32VW553/GD32VW55X_Wifi_BLE_SDK/GD32VW55x_RELEASE_V1.0.2/MSDK/lwip/libcoap-4.3.4/src\coap_debug.c ****     { COAP_OPTION_BLOCK1, "Block1" },
 537:C:/Users/stapi/OneDrive/Desktop/GD32VW553/GD32VW55X_Wifi_BLE_SDK/GD32VW55x_RELEASE_V1.0.2/MSDK/lwip/libcoap-4.3.4/src\coap_debug.c ****     { COAP_OPTION_SIZE2, "Size2" },
 538:C:/Users/stapi/OneDrive/Desktop/GD32VW553/GD32VW55X_Wifi_BLE_SDK/GD32VW55x_RELEASE_V1.0.2/MSDK/lwip/libcoap-4.3.4/src\coap_debug.c ****     { COAP_OPTION_PROXY_URI, "Proxy-Uri" },
 539:C:/Users/stapi/OneDrive/Desktop/GD32VW553/GD32VW55X_Wifi_BLE_SDK/GD32VW55x_RELEASE_V1.0.2/MSDK/lwip/libcoap-4.3.4/src\coap_debug.c ****     { COAP_OPTION_PROXY_SCHEME, "Proxy-Scheme" },
 540:C:/Users/stapi/OneDrive/Desktop/GD32VW553/GD32VW55X_Wifi_BLE_SDK/GD32VW55x_RELEASE_V1.0.2/MSDK/lwip/libcoap-4.3.4/src\coap_debug.c ****     { COAP_OPTION_SIZE1, "Size1" },
 541:C:/Users/stapi/OneDrive/Desktop/GD32VW553/GD32VW55X_Wifi_BLE_SDK/GD32VW55x_RELEASE_V1.0.2/MSDK/lwip/libcoap-4.3.4/src\coap_debug.c ****     { COAP_OPTION_ECHO, "Echo" },
 542:C:/Users/stapi/OneDrive/Desktop/GD32VW553/GD32VW55X_Wifi_BLE_SDK/GD32VW55x_RELEASE_V1.0.2/MSDK/lwip/libcoap-4.3.4/src\coap_debug.c ****     { COAP_OPTION_NORESPONSE, "No-Response" },
 543:C:/Users/stapi/OneDrive/Desktop/GD32VW553/GD32VW55X_Wifi_BLE_SDK/GD32VW55x_RELEASE_V1.0.2/MSDK/lwip/libcoap-4.3.4/src\coap_debug.c ****     { COAP_OPTION_RTAG, "Request-Tag" },
 544:C:/Users/stapi/OneDrive/Desktop/GD32VW553/GD32VW55X_Wifi_BLE_SDK/GD32VW55x_RELEASE_V1.0.2/MSDK/lwip/libcoap-4.3.4/src\coap_debug.c ****     { COAP_OPTION_Q_BLOCK1, "Q-Block1" },
 545:C:/Users/stapi/OneDrive/Desktop/GD32VW553/GD32VW55X_Wifi_BLE_SDK/GD32VW55x_RELEASE_V1.0.2/MSDK/lwip/libcoap-4.3.4/src\coap_debug.c ****     { COAP_OPTION_Q_BLOCK2, "Q-Block2" }
 546:C:/Users/stapi/OneDrive/Desktop/GD32VW553/GD32VW55X_Wifi_BLE_SDK/GD32VW55x_RELEASE_V1.0.2/MSDK/lwip/libcoap-4.3.4/src\coap_debug.c ****   };
 547:C:/Users/stapi/OneDrive/Desktop/GD32VW553/GD32VW55X_Wifi_BLE_SDK/GD32VW55x_RELEASE_V1.0.2/MSDK/lwip/libcoap-4.3.4/src\coap_debug.c **** 
 548:C:/Users/stapi/OneDrive/Desktop/GD32VW553/GD32VW55X_Wifi_BLE_SDK/GD32VW55x_RELEASE_V1.0.2/MSDK/lwip/libcoap-4.3.4/src\coap_debug.c ****   static struct option_desc_t options_csm[] = {
 549:C:/Users/stapi/OneDrive/Desktop/GD32VW553/GD32VW55X_Wifi_BLE_SDK/GD32VW55x_RELEASE_V1.0.2/MSDK/lwip/libcoap-4.3.4/src\coap_debug.c ****     { COAP_SIGNALING_OPTION_MAX_MESSAGE_SIZE, "Max-Message-Size" },
 550:C:/Users/stapi/OneDrive/Desktop/GD32VW553/GD32VW55X_Wifi_BLE_SDK/GD32VW55x_RELEASE_V1.0.2/MSDK/lwip/libcoap-4.3.4/src\coap_debug.c ****     { COAP_SIGNALING_OPTION_BLOCK_WISE_TRANSFER, "Block-Wise-Transfer" },
 551:C:/Users/stapi/OneDrive/Desktop/GD32VW553/GD32VW55X_Wifi_BLE_SDK/GD32VW55x_RELEASE_V1.0.2/MSDK/lwip/libcoap-4.3.4/src\coap_debug.c ****     { COAP_SIGNALING_OPTION_EXTENDED_TOKEN_LENGTH, "Extended-Token-Length" }
 552:C:/Users/stapi/OneDrive/Desktop/GD32VW553/GD32VW55X_Wifi_BLE_SDK/GD32VW55x_RELEASE_V1.0.2/MSDK/lwip/libcoap-4.3.4/src\coap_debug.c ****   };
 553:C:/Users/stapi/OneDrive/Desktop/GD32VW553/GD32VW55X_Wifi_BLE_SDK/GD32VW55x_RELEASE_V1.0.2/MSDK/lwip/libcoap-4.3.4/src\coap_debug.c **** 
 554:C:/Users/stapi/OneDrive/Desktop/GD32VW553/GD32VW55X_Wifi_BLE_SDK/GD32VW55x_RELEASE_V1.0.2/MSDK/lwip/libcoap-4.3.4/src\coap_debug.c ****   static struct option_desc_t options_pingpong[] = {
 555:C:/Users/stapi/OneDrive/Desktop/GD32VW553/GD32VW55X_Wifi_BLE_SDK/GD32VW55x_RELEASE_V1.0.2/MSDK/lwip/libcoap-4.3.4/src\coap_debug.c ****     { COAP_SIGNALING_OPTION_CUSTODY, "Custody" }
 556:C:/Users/stapi/OneDrive/Desktop/GD32VW553/GD32VW55X_Wifi_BLE_SDK/GD32VW55x_RELEASE_V1.0.2/MSDK/lwip/libcoap-4.3.4/src\coap_debug.c ****   };
 557:C:/Users/stapi/OneDrive/Desktop/GD32VW553/GD32VW55X_Wifi_BLE_SDK/GD32VW55x_RELEASE_V1.0.2/MSDK/lwip/libcoap-4.3.4/src\coap_debug.c **** 
 558:C:/Users/stapi/OneDrive/Desktop/GD32VW553/GD32VW55X_Wifi_BLE_SDK/GD32VW55x_RELEASE_V1.0.2/MSDK/lwip/libcoap-4.3.4/src\coap_debug.c ****   static struct option_desc_t options_release[] = {
 559:C:/Users/stapi/OneDrive/Desktop/GD32VW553/GD32VW55X_Wifi_BLE_SDK/GD32VW55x_RELEASE_V1.0.2/MSDK/lwip/libcoap-4.3.4/src\coap_debug.c ****     { COAP_SIGNALING_OPTION_ALTERNATIVE_ADDRESS, "Alternative-Address" },
 560:C:/Users/stapi/OneDrive/Desktop/GD32VW553/GD32VW55X_Wifi_BLE_SDK/GD32VW55x_RELEASE_V1.0.2/MSDK/lwip/libcoap-4.3.4/src\coap_debug.c ****     { COAP_SIGNALING_OPTION_HOLD_OFF, "Hold-Off" }
 561:C:/Users/stapi/OneDrive/Desktop/GD32VW553/GD32VW55X_Wifi_BLE_SDK/GD32VW55x_RELEASE_V1.0.2/MSDK/lwip/libcoap-4.3.4/src\coap_debug.c ****   };
 562:C:/Users/stapi/OneDrive/Desktop/GD32VW553/GD32VW55X_Wifi_BLE_SDK/GD32VW55x_RELEASE_V1.0.2/MSDK/lwip/libcoap-4.3.4/src\coap_debug.c **** 
 563:C:/Users/stapi/OneDrive/Desktop/GD32VW553/GD32VW55X_Wifi_BLE_SDK/GD32VW55x_RELEASE_V1.0.2/MSDK/lwip/libcoap-4.3.4/src\coap_debug.c ****   static struct option_desc_t options_abort[] = {
 564:C:/Users/stapi/OneDrive/Desktop/GD32VW553/GD32VW55X_Wifi_BLE_SDK/GD32VW55x_RELEASE_V1.0.2/MSDK/lwip/libcoap-4.3.4/src\coap_debug.c ****     { COAP_SIGNALING_OPTION_BAD_CSM_OPTION, "Bad-CSM-Option" }
 565:C:/Users/stapi/OneDrive/Desktop/GD32VW553/GD32VW55X_Wifi_BLE_SDK/GD32VW55x_RELEASE_V1.0.2/MSDK/lwip/libcoap-4.3.4/src\coap_debug.c ****   };
 566:C:/Users/stapi/OneDrive/Desktop/GD32VW553/GD32VW55X_Wifi_BLE_SDK/GD32VW55x_RELEASE_V1.0.2/MSDK/lwip/libcoap-4.3.4/src\coap_debug.c **** 
 567:C:/Users/stapi/OneDrive/Desktop/GD32VW553/GD32VW55X_Wifi_BLE_SDK/GD32VW55x_RELEASE_V1.0.2/MSDK/lwip/libcoap-4.3.4/src\coap_debug.c ****   static char buf[6];
 568:C:/Users/stapi/OneDrive/Desktop/GD32VW553/GD32VW55X_Wifi_BLE_SDK/GD32VW55x_RELEASE_V1.0.2/MSDK/lwip/libcoap-4.3.4/src\coap_debug.c ****   size_t i;
 569:C:/Users/stapi/OneDrive/Desktop/GD32VW553/GD32VW55X_Wifi_BLE_SDK/GD32VW55x_RELEASE_V1.0.2/MSDK/lwip/libcoap-4.3.4/src\coap_debug.c **** 
 570:C:/Users/stapi/OneDrive/Desktop/GD32VW553/GD32VW55X_Wifi_BLE_SDK/GD32VW55x_RELEASE_V1.0.2/MSDK/lwip/libcoap-4.3.4/src\coap_debug.c ****   if (code == COAP_SIGNALING_CSM) {
 571:C:/Users/stapi/OneDrive/Desktop/GD32VW553/GD32VW55X_Wifi_BLE_SDK/GD32VW55x_RELEASE_V1.0.2/MSDK/lwip/libcoap-4.3.4/src\coap_debug.c ****     for (i = 0; i < sizeof(options_csm)/sizeof(struct option_desc_t); i++) {
 572:C:/Users/stapi/OneDrive/Desktop/GD32VW553/GD32VW55X_Wifi_BLE_SDK/GD32VW55x_RELEASE_V1.0.2/MSDK/lwip/libcoap-4.3.4/src\coap_debug.c ****       if (option_type == options_csm[i].type) {
 573:C:/Users/stapi/OneDrive/Desktop/GD32VW553/GD32VW55X_Wifi_BLE_SDK/GD32VW55x_RELEASE_V1.0.2/MSDK/lwip/libcoap-4.3.4/src\coap_debug.c ****         return options_csm[i].name;
 574:C:/Users/stapi/OneDrive/Desktop/GD32VW553/GD32VW55X_Wifi_BLE_SDK/GD32VW55x_RELEASE_V1.0.2/MSDK/lwip/libcoap-4.3.4/src\coap_debug.c ****       }
 575:C:/Users/stapi/OneDrive/Desktop/GD32VW553/GD32VW55X_Wifi_BLE_SDK/GD32VW55x_RELEASE_V1.0.2/MSDK/lwip/libcoap-4.3.4/src\coap_debug.c ****     }
 576:C:/Users/stapi/OneDrive/Desktop/GD32VW553/GD32VW55X_Wifi_BLE_SDK/GD32VW55x_RELEASE_V1.0.2/MSDK/lwip/libcoap-4.3.4/src\coap_debug.c ****   } else if (code == COAP_SIGNALING_PING || code == COAP_SIGNALING_PONG) {
 577:C:/Users/stapi/OneDrive/Desktop/GD32VW553/GD32VW55X_Wifi_BLE_SDK/GD32VW55x_RELEASE_V1.0.2/MSDK/lwip/libcoap-4.3.4/src\coap_debug.c ****     for (i = 0; i < sizeof(options_pingpong)/sizeof(struct option_desc_t); i++) {
 578:C:/Users/stapi/OneDrive/Desktop/GD32VW553/GD32VW55X_Wifi_BLE_SDK/GD32VW55x_RELEASE_V1.0.2/MSDK/lwip/libcoap-4.3.4/src\coap_debug.c ****       if (option_type == options_pingpong[i].type) {
 579:C:/Users/stapi/OneDrive/Desktop/GD32VW553/GD32VW55X_Wifi_BLE_SDK/GD32VW55x_RELEASE_V1.0.2/MSDK/lwip/libcoap-4.3.4/src\coap_debug.c ****         return options_pingpong[i].name;
 580:C:/Users/stapi/OneDrive/Desktop/GD32VW553/GD32VW55X_Wifi_BLE_SDK/GD32VW55x_RELEASE_V1.0.2/MSDK/lwip/libcoap-4.3.4/src\coap_debug.c ****       }
 581:C:/Users/stapi/OneDrive/Desktop/GD32VW553/GD32VW55X_Wifi_BLE_SDK/GD32VW55x_RELEASE_V1.0.2/MSDK/lwip/libcoap-4.3.4/src\coap_debug.c ****     }
 582:C:/Users/stapi/OneDrive/Desktop/GD32VW553/GD32VW55X_Wifi_BLE_SDK/GD32VW55x_RELEASE_V1.0.2/MSDK/lwip/libcoap-4.3.4/src\coap_debug.c ****   } else if (code == COAP_SIGNALING_RELEASE) {
 583:C:/Users/stapi/OneDrive/Desktop/GD32VW553/GD32VW55X_Wifi_BLE_SDK/GD32VW55x_RELEASE_V1.0.2/MSDK/lwip/libcoap-4.3.4/src\coap_debug.c ****     for (i = 0; i < sizeof(options_release)/sizeof(struct option_desc_t); i++) {
 584:C:/Users/stapi/OneDrive/Desktop/GD32VW553/GD32VW55X_Wifi_BLE_SDK/GD32VW55x_RELEASE_V1.0.2/MSDK/lwip/libcoap-4.3.4/src\coap_debug.c ****       if (option_type == options_release[i].type) {
 585:C:/Users/stapi/OneDrive/Desktop/GD32VW553/GD32VW55X_Wifi_BLE_SDK/GD32VW55x_RELEASE_V1.0.2/MSDK/lwip/libcoap-4.3.4/src\coap_debug.c ****         return options_release[i].name;
 586:C:/Users/stapi/OneDrive/Desktop/GD32VW553/GD32VW55X_Wifi_BLE_SDK/GD32VW55x_RELEASE_V1.0.2/MSDK/lwip/libcoap-4.3.4/src\coap_debug.c ****       }
 587:C:/Users/stapi/OneDrive/Desktop/GD32VW553/GD32VW55X_Wifi_BLE_SDK/GD32VW55x_RELEASE_V1.0.2/MSDK/lwip/libcoap-4.3.4/src\coap_debug.c ****     }
 588:C:/Users/stapi/OneDrive/Desktop/GD32VW553/GD32VW55X_Wifi_BLE_SDK/GD32VW55x_RELEASE_V1.0.2/MSDK/lwip/libcoap-4.3.4/src\coap_debug.c ****   } else if (code == COAP_SIGNALING_ABORT) {
 589:C:/Users/stapi/OneDrive/Desktop/GD32VW553/GD32VW55X_Wifi_BLE_SDK/GD32VW55x_RELEASE_V1.0.2/MSDK/lwip/libcoap-4.3.4/src\coap_debug.c ****     for (i = 0; i < sizeof(options_abort)/sizeof(struct option_desc_t); i++) {
 590:C:/Users/stapi/OneDrive/Desktop/GD32VW553/GD32VW55X_Wifi_BLE_SDK/GD32VW55x_RELEASE_V1.0.2/MSDK/lwip/libcoap-4.3.4/src\coap_debug.c ****       if (option_type == options_abort[i].type) {
 591:C:/Users/stapi/OneDrive/Desktop/GD32VW553/GD32VW55X_Wifi_BLE_SDK/GD32VW55x_RELEASE_V1.0.2/MSDK/lwip/libcoap-4.3.4/src\coap_debug.c ****         return options_abort[i].name;
 592:C:/Users/stapi/OneDrive/Desktop/GD32VW553/GD32VW55X_Wifi_BLE_SDK/GD32VW55x_RELEASE_V1.0.2/MSDK/lwip/libcoap-4.3.4/src\coap_debug.c ****       }
 593:C:/Users/stapi/OneDrive/Desktop/GD32VW553/GD32VW55X_Wifi_BLE_SDK/GD32VW55x_RELEASE_V1.0.2/MSDK/lwip/libcoap-4.3.4/src\coap_debug.c ****     }
 594:C:/Users/stapi/OneDrive/Desktop/GD32VW553/GD32VW55X_Wifi_BLE_SDK/GD32VW55x_RELEASE_V1.0.2/MSDK/lwip/libcoap-4.3.4/src\coap_debug.c ****   } else {
 595:C:/Users/stapi/OneDrive/Desktop/GD32VW553/GD32VW55X_Wifi_BLE_SDK/GD32VW55x_RELEASE_V1.0.2/MSDK/lwip/libcoap-4.3.4/src\coap_debug.c ****     /* search option_type in list of known options */
 596:C:/Users/stapi/OneDrive/Desktop/GD32VW553/GD32VW55X_Wifi_BLE_SDK/GD32VW55x_RELEASE_V1.0.2/MSDK/lwip/libcoap-4.3.4/src\coap_debug.c ****     for (i = 0; i < sizeof(options)/sizeof(struct option_desc_t); i++) {
 597:C:/Users/stapi/OneDrive/Desktop/GD32VW553/GD32VW55X_Wifi_BLE_SDK/GD32VW55x_RELEASE_V1.0.2/MSDK/lwip/libcoap-4.3.4/src\coap_debug.c ****       if (option_type == options[i].type) {
 598:C:/Users/stapi/OneDrive/Desktop/GD32VW553/GD32VW55X_Wifi_BLE_SDK/GD32VW55x_RELEASE_V1.0.2/MSDK/lwip/libcoap-4.3.4/src\coap_debug.c ****         return options[i].name;
 599:C:/Users/stapi/OneDrive/Desktop/GD32VW553/GD32VW55X_Wifi_BLE_SDK/GD32VW55x_RELEASE_V1.0.2/MSDK/lwip/libcoap-4.3.4/src\coap_debug.c ****       }
 600:C:/Users/stapi/OneDrive/Desktop/GD32VW553/GD32VW55X_Wifi_BLE_SDK/GD32VW55x_RELEASE_V1.0.2/MSDK/lwip/libcoap-4.3.4/src\coap_debug.c ****     }
 601:C:/Users/stapi/OneDrive/Desktop/GD32VW553/GD32VW55X_Wifi_BLE_SDK/GD32VW55x_RELEASE_V1.0.2/MSDK/lwip/libcoap-4.3.4/src\coap_debug.c ****   }
 602:C:/Users/stapi/OneDrive/Desktop/GD32VW553/GD32VW55X_Wifi_BLE_SDK/GD32VW55x_RELEASE_V1.0.2/MSDK/lwip/libcoap-4.3.4/src\coap_debug.c ****   /* unknown option type, just print to buf */
 603:C:/Users/stapi/OneDrive/Desktop/GD32VW553/GD32VW55X_Wifi_BLE_SDK/GD32VW55x_RELEASE_V1.0.2/MSDK/lwip/libcoap-4.3.4/src\coap_debug.c ****   snprintf(buf, sizeof(buf), "%u", option_type);
 604:C:/Users/stapi/OneDrive/Desktop/GD32VW553/GD32VW55X_Wifi_BLE_SDK/GD32VW55x_RELEASE_V1.0.2/MSDK/lwip/libcoap-4.3.4/src\coap_debug.c ****   return buf;
 605:C:/Users/stapi/OneDrive/Desktop/GD32VW553/GD32VW55X_Wifi_BLE_SDK/GD32VW55x_RELEASE_V1.0.2/MSDK/lwip/libcoap-4.3.4/src\coap_debug.c **** }
 606:C:/Users/stapi/OneDrive/Desktop/GD32VW553/GD32VW55X_Wifi_BLE_SDK/GD32VW55x_RELEASE_V1.0.2/MSDK/lwip/libcoap-4.3.4/src\coap_debug.c **** 
 607:C:/Users/stapi/OneDrive/Desktop/GD32VW553/GD32VW55X_Wifi_BLE_SDK/GD32VW55x_RELEASE_V1.0.2/MSDK/lwip/libcoap-4.3.4/src\coap_debug.c **** static unsigned int
 608:C:/Users/stapi/OneDrive/Desktop/GD32VW553/GD32VW55X_Wifi_BLE_SDK/GD32VW55x_RELEASE_V1.0.2/MSDK/lwip/libcoap-4.3.4/src\coap_debug.c **** print_content_format(unsigned int format_type,
 609:C:/Users/stapi/OneDrive/Desktop/GD32VW553/GD32VW55X_Wifi_BLE_SDK/GD32VW55x_RELEASE_V1.0.2/MSDK/lwip/libcoap-4.3.4/src\coap_debug.c ****                      unsigned char *result, unsigned int buflen) {
 610:C:/Users/stapi/OneDrive/Desktop/GD32VW553/GD32VW55X_Wifi_BLE_SDK/GD32VW55x_RELEASE_V1.0.2/MSDK/lwip/libcoap-4.3.4/src\coap_debug.c ****   struct desc_t {
 611:C:/Users/stapi/OneDrive/Desktop/GD32VW553/GD32VW55X_Wifi_BLE_SDK/GD32VW55x_RELEASE_V1.0.2/MSDK/lwip/libcoap-4.3.4/src\coap_debug.c ****     unsigned int type;
 612:C:/Users/stapi/OneDrive/Desktop/GD32VW553/GD32VW55X_Wifi_BLE_SDK/GD32VW55x_RELEASE_V1.0.2/MSDK/lwip/libcoap-4.3.4/src\coap_debug.c ****     const char *name;
 613:C:/Users/stapi/OneDrive/Desktop/GD32VW553/GD32VW55X_Wifi_BLE_SDK/GD32VW55x_RELEASE_V1.0.2/MSDK/lwip/libcoap-4.3.4/src\coap_debug.c ****   };
 614:C:/Users/stapi/OneDrive/Desktop/GD32VW553/GD32VW55X_Wifi_BLE_SDK/GD32VW55x_RELEASE_V1.0.2/MSDK/lwip/libcoap-4.3.4/src\coap_debug.c **** 
 615:C:/Users/stapi/OneDrive/Desktop/GD32VW553/GD32VW55X_Wifi_BLE_SDK/GD32VW55x_RELEASE_V1.0.2/MSDK/lwip/libcoap-4.3.4/src\coap_debug.c ****   static struct desc_t formats[] = {
 616:C:/Users/stapi/OneDrive/Desktop/GD32VW553/GD32VW55X_Wifi_BLE_SDK/GD32VW55x_RELEASE_V1.0.2/MSDK/lwip/libcoap-4.3.4/src\coap_debug.c ****     { COAP_MEDIATYPE_TEXT_PLAIN, "text/plain" },
 617:C:/Users/stapi/OneDrive/Desktop/GD32VW553/GD32VW55X_Wifi_BLE_SDK/GD32VW55x_RELEASE_V1.0.2/MSDK/lwip/libcoap-4.3.4/src\coap_debug.c ****     { COAP_MEDIATYPE_APPLICATION_LINK_FORMAT, "application/link-format" },
 618:C:/Users/stapi/OneDrive/Desktop/GD32VW553/GD32VW55X_Wifi_BLE_SDK/GD32VW55x_RELEASE_V1.0.2/MSDK/lwip/libcoap-4.3.4/src\coap_debug.c ****     { COAP_MEDIATYPE_APPLICATION_XML, "application/xml" },
 619:C:/Users/stapi/OneDrive/Desktop/GD32VW553/GD32VW55X_Wifi_BLE_SDK/GD32VW55x_RELEASE_V1.0.2/MSDK/lwip/libcoap-4.3.4/src\coap_debug.c ****     { COAP_MEDIATYPE_APPLICATION_OCTET_STREAM, "application/octet-stream" },
 620:C:/Users/stapi/OneDrive/Desktop/GD32VW553/GD32VW55X_Wifi_BLE_SDK/GD32VW55x_RELEASE_V1.0.2/MSDK/lwip/libcoap-4.3.4/src\coap_debug.c ****     { COAP_MEDIATYPE_APPLICATION_RDF_XML, "application/rdf+xml" },
 621:C:/Users/stapi/OneDrive/Desktop/GD32VW553/GD32VW55X_Wifi_BLE_SDK/GD32VW55x_RELEASE_V1.0.2/MSDK/lwip/libcoap-4.3.4/src\coap_debug.c ****     { COAP_MEDIATYPE_APPLICATION_EXI, "application/exi" },
 622:C:/Users/stapi/OneDrive/Desktop/GD32VW553/GD32VW55X_Wifi_BLE_SDK/GD32VW55x_RELEASE_V1.0.2/MSDK/lwip/libcoap-4.3.4/src\coap_debug.c ****     { COAP_MEDIATYPE_APPLICATION_JSON, "application/json" },
 623:C:/Users/stapi/OneDrive/Desktop/GD32VW553/GD32VW55X_Wifi_BLE_SDK/GD32VW55x_RELEASE_V1.0.2/MSDK/lwip/libcoap-4.3.4/src\coap_debug.c ****     { COAP_MEDIATYPE_APPLICATION_CBOR, "application/cbor" },
 624:C:/Users/stapi/OneDrive/Desktop/GD32VW553/GD32VW55X_Wifi_BLE_SDK/GD32VW55x_RELEASE_V1.0.2/MSDK/lwip/libcoap-4.3.4/src\coap_debug.c ****     { COAP_MEDIATYPE_APPLICATION_CWT, "application/cwt" },
 625:C:/Users/stapi/OneDrive/Desktop/GD32VW553/GD32VW55X_Wifi_BLE_SDK/GD32VW55x_RELEASE_V1.0.2/MSDK/lwip/libcoap-4.3.4/src\coap_debug.c ****     { COAP_MEDIATYPE_APPLICATION_COAP_GROUP_JSON, "application/coap-group+json" },
 626:C:/Users/stapi/OneDrive/Desktop/GD32VW553/GD32VW55X_Wifi_BLE_SDK/GD32VW55x_RELEASE_V1.0.2/MSDK/lwip/libcoap-4.3.4/src\coap_debug.c ****     { COAP_MEDIATYPE_APPLICATION_COSE_SIGN, "application/cose; cose-type=\"cose-sign\"" },
 627:C:/Users/stapi/OneDrive/Desktop/GD32VW553/GD32VW55X_Wifi_BLE_SDK/GD32VW55x_RELEASE_V1.0.2/MSDK/lwip/libcoap-4.3.4/src\coap_debug.c ****     { COAP_MEDIATYPE_APPLICATION_COSE_SIGN1, "application/cose; cose-type=\"cose-sign1\"" },
 628:C:/Users/stapi/OneDrive/Desktop/GD32VW553/GD32VW55X_Wifi_BLE_SDK/GD32VW55x_RELEASE_V1.0.2/MSDK/lwip/libcoap-4.3.4/src\coap_debug.c ****     { COAP_MEDIATYPE_APPLICATION_COSE_ENCRYPT, "application/cose; cose-type=\"cose-encrypt\"" },
 629:C:/Users/stapi/OneDrive/Desktop/GD32VW553/GD32VW55X_Wifi_BLE_SDK/GD32VW55x_RELEASE_V1.0.2/MSDK/lwip/libcoap-4.3.4/src\coap_debug.c ****     { COAP_MEDIATYPE_APPLICATION_COSE_ENCRYPT0, "application/cose; cose-type=\"cose-encrypt0\"" },
 630:C:/Users/stapi/OneDrive/Desktop/GD32VW553/GD32VW55X_Wifi_BLE_SDK/GD32VW55x_RELEASE_V1.0.2/MSDK/lwip/libcoap-4.3.4/src\coap_debug.c ****     { COAP_MEDIATYPE_APPLICATION_COSE_MAC, "application/cose; cose-type=\"cose-mac\"" },
 631:C:/Users/stapi/OneDrive/Desktop/GD32VW553/GD32VW55X_Wifi_BLE_SDK/GD32VW55x_RELEASE_V1.0.2/MSDK/lwip/libcoap-4.3.4/src\coap_debug.c ****     { COAP_MEDIATYPE_APPLICATION_COSE_MAC0, "application/cose; cose-type=\"cose-mac0\"" },
 632:C:/Users/stapi/OneDrive/Desktop/GD32VW553/GD32VW55X_Wifi_BLE_SDK/GD32VW55x_RELEASE_V1.0.2/MSDK/lwip/libcoap-4.3.4/src\coap_debug.c ****     { COAP_MEDIATYPE_APPLICATION_COSE_KEY, "application/cose-key" },
 633:C:/Users/stapi/OneDrive/Desktop/GD32VW553/GD32VW55X_Wifi_BLE_SDK/GD32VW55x_RELEASE_V1.0.2/MSDK/lwip/libcoap-4.3.4/src\coap_debug.c ****     { COAP_MEDIATYPE_APPLICATION_COSE_KEY_SET, "application/cose-key-set" },
 634:C:/Users/stapi/OneDrive/Desktop/GD32VW553/GD32VW55X_Wifi_BLE_SDK/GD32VW55x_RELEASE_V1.0.2/MSDK/lwip/libcoap-4.3.4/src\coap_debug.c ****     { COAP_MEDIATYPE_APPLICATION_SENML_JSON, "application/senml+json" },
 635:C:/Users/stapi/OneDrive/Desktop/GD32VW553/GD32VW55X_Wifi_BLE_SDK/GD32VW55x_RELEASE_V1.0.2/MSDK/lwip/libcoap-4.3.4/src\coap_debug.c ****     { COAP_MEDIATYPE_APPLICATION_SENSML_JSON, "application/sensml+json" },
 636:C:/Users/stapi/OneDrive/Desktop/GD32VW553/GD32VW55X_Wifi_BLE_SDK/GD32VW55x_RELEASE_V1.0.2/MSDK/lwip/libcoap-4.3.4/src\coap_debug.c ****     { COAP_MEDIATYPE_APPLICATION_SENML_CBOR, "application/senml+cbor" },
 637:C:/Users/stapi/OneDrive/Desktop/GD32VW553/GD32VW55X_Wifi_BLE_SDK/GD32VW55x_RELEASE_V1.0.2/MSDK/lwip/libcoap-4.3.4/src\coap_debug.c ****     { COAP_MEDIATYPE_APPLICATION_SENSML_CBOR, "application/sensml+cbor" },
 638:C:/Users/stapi/OneDrive/Desktop/GD32VW553/GD32VW55X_Wifi_BLE_SDK/GD32VW55x_RELEASE_V1.0.2/MSDK/lwip/libcoap-4.3.4/src\coap_debug.c ****     { COAP_MEDIATYPE_APPLICATION_SENML_EXI, "application/senml-exi" },
 639:C:/Users/stapi/OneDrive/Desktop/GD32VW553/GD32VW55X_Wifi_BLE_SDK/GD32VW55x_RELEASE_V1.0.2/MSDK/lwip/libcoap-4.3.4/src\coap_debug.c ****     { COAP_MEDIATYPE_APPLICATION_SENSML_EXI, "application/sensml-exi" },
 640:C:/Users/stapi/OneDrive/Desktop/GD32VW553/GD32VW55X_Wifi_BLE_SDK/GD32VW55x_RELEASE_V1.0.2/MSDK/lwip/libcoap-4.3.4/src\coap_debug.c ****     { COAP_MEDIATYPE_APPLICATION_SENML_XML, "application/senml+xml" },
 641:C:/Users/stapi/OneDrive/Desktop/GD32VW553/GD32VW55X_Wifi_BLE_SDK/GD32VW55x_RELEASE_V1.0.2/MSDK/lwip/libcoap-4.3.4/src\coap_debug.c ****     { COAP_MEDIATYPE_APPLICATION_SENSML_XML, "application/sensml+xml" },
 642:C:/Users/stapi/OneDrive/Desktop/GD32VW553/GD32VW55X_Wifi_BLE_SDK/GD32VW55x_RELEASE_V1.0.2/MSDK/lwip/libcoap-4.3.4/src\coap_debug.c ****     { COAP_MEDIATYPE_APPLICATION_DOTS_CBOR, "application/dots+cbor" },
 643:C:/Users/stapi/OneDrive/Desktop/GD32VW553/GD32VW55X_Wifi_BLE_SDK/GD32VW55x_RELEASE_V1.0.2/MSDK/lwip/libcoap-4.3.4/src\coap_debug.c ****     { COAP_MEDIATYPE_APPLICATION_ACE_CBOR, "application/ace+cbor" },
 644:C:/Users/stapi/OneDrive/Desktop/GD32VW553/GD32VW55X_Wifi_BLE_SDK/GD32VW55x_RELEASE_V1.0.2/MSDK/lwip/libcoap-4.3.4/src\coap_debug.c ****     { COAP_MEDIATYPE_APPLICATION_MB_CBOR_SEQ, "application/missing-blocks+cbor-seq" },
 645:C:/Users/stapi/OneDrive/Desktop/GD32VW553/GD32VW55X_Wifi_BLE_SDK/GD32VW55x_RELEASE_V1.0.2/MSDK/lwip/libcoap-4.3.4/src\coap_debug.c ****     { COAP_MEDIATYPE_APPLICATION_OSCORE, "application/oscore" },
 646:C:/Users/stapi/OneDrive/Desktop/GD32VW553/GD32VW55X_Wifi_BLE_SDK/GD32VW55x_RELEASE_V1.0.2/MSDK/lwip/libcoap-4.3.4/src\coap_debug.c ****     { 75, "application/dcaf+cbor" }
 647:C:/Users/stapi/OneDrive/Desktop/GD32VW553/GD32VW55X_Wifi_BLE_SDK/GD32VW55x_RELEASE_V1.0.2/MSDK/lwip/libcoap-4.3.4/src\coap_debug.c ****   };
 648:C:/Users/stapi/OneDrive/Desktop/GD32VW553/GD32VW55X_Wifi_BLE_SDK/GD32VW55x_RELEASE_V1.0.2/MSDK/lwip/libcoap-4.3.4/src\coap_debug.c **** 
 649:C:/Users/stapi/OneDrive/Desktop/GD32VW553/GD32VW55X_Wifi_BLE_SDK/GD32VW55x_RELEASE_V1.0.2/MSDK/lwip/libcoap-4.3.4/src\coap_debug.c ****   size_t i;
 650:C:/Users/stapi/OneDrive/Desktop/GD32VW553/GD32VW55X_Wifi_BLE_SDK/GD32VW55x_RELEASE_V1.0.2/MSDK/lwip/libcoap-4.3.4/src\coap_debug.c **** 
 651:C:/Users/stapi/OneDrive/Desktop/GD32VW553/GD32VW55X_Wifi_BLE_SDK/GD32VW55x_RELEASE_V1.0.2/MSDK/lwip/libcoap-4.3.4/src\coap_debug.c ****   /* search format_type in list of known content formats */
 652:C:/Users/stapi/OneDrive/Desktop/GD32VW553/GD32VW55X_Wifi_BLE_SDK/GD32VW55x_RELEASE_V1.0.2/MSDK/lwip/libcoap-4.3.4/src\coap_debug.c ****   for (i = 0; i < sizeof(formats)/sizeof(struct desc_t); i++) {
 653:C:/Users/stapi/OneDrive/Desktop/GD32VW553/GD32VW55X_Wifi_BLE_SDK/GD32VW55x_RELEASE_V1.0.2/MSDK/lwip/libcoap-4.3.4/src\coap_debug.c ****     if (format_type == formats[i].type) {
 654:C:/Users/stapi/OneDrive/Desktop/GD32VW553/GD32VW55X_Wifi_BLE_SDK/GD32VW55x_RELEASE_V1.0.2/MSDK/lwip/libcoap-4.3.4/src\coap_debug.c ****       return snprintf((char *)result, buflen, "%s", formats[i].name);
 655:C:/Users/stapi/OneDrive/Desktop/GD32VW553/GD32VW55X_Wifi_BLE_SDK/GD32VW55x_RELEASE_V1.0.2/MSDK/lwip/libcoap-4.3.4/src\coap_debug.c ****     }
 656:C:/Users/stapi/OneDrive/Desktop/GD32VW553/GD32VW55X_Wifi_BLE_SDK/GD32VW55x_RELEASE_V1.0.2/MSDK/lwip/libcoap-4.3.4/src\coap_debug.c ****   }
 657:C:/Users/stapi/OneDrive/Desktop/GD32VW553/GD32VW55X_Wifi_BLE_SDK/GD32VW55x_RELEASE_V1.0.2/MSDK/lwip/libcoap-4.3.4/src\coap_debug.c **** 
 658:C:/Users/stapi/OneDrive/Desktop/GD32VW553/GD32VW55X_Wifi_BLE_SDK/GD32VW55x_RELEASE_V1.0.2/MSDK/lwip/libcoap-4.3.4/src\coap_debug.c ****   /* unknown content format, just print numeric value to buf */
 659:C:/Users/stapi/OneDrive/Desktop/GD32VW553/GD32VW55X_Wifi_BLE_SDK/GD32VW55x_RELEASE_V1.0.2/MSDK/lwip/libcoap-4.3.4/src\coap_debug.c ****   return snprintf((char *)result, buflen, "%d", format_type);
 660:C:/Users/stapi/OneDrive/Desktop/GD32VW553/GD32VW55X_Wifi_BLE_SDK/GD32VW55x_RELEASE_V1.0.2/MSDK/lwip/libcoap-4.3.4/src\coap_debug.c **** }
 661:C:/Users/stapi/OneDrive/Desktop/GD32VW553/GD32VW55X_Wifi_BLE_SDK/GD32VW55x_RELEASE_V1.0.2/MSDK/lwip/libcoap-4.3.4/src\coap_debug.c **** 
 662:C:/Users/stapi/OneDrive/Desktop/GD32VW553/GD32VW55X_Wifi_BLE_SDK/GD32VW55x_RELEASE_V1.0.2/MSDK/lwip/libcoap-4.3.4/src\coap_debug.c **** /**
 663:C:/Users/stapi/OneDrive/Desktop/GD32VW553/GD32VW55X_Wifi_BLE_SDK/GD32VW55x_RELEASE_V1.0.2/MSDK/lwip/libcoap-4.3.4/src\coap_debug.c ****  * Returns 1 if the given @p content_format is either unknown or known
 664:C:/Users/stapi/OneDrive/Desktop/GD32VW553/GD32VW55X_Wifi_BLE_SDK/GD32VW55x_RELEASE_V1.0.2/MSDK/lwip/libcoap-4.3.4/src\coap_debug.c ****  * to carry binary data. The return value @c 0 hence indicates
 665:C:/Users/stapi/OneDrive/Desktop/GD32VW553/GD32VW55X_Wifi_BLE_SDK/GD32VW55x_RELEASE_V1.0.2/MSDK/lwip/libcoap-4.3.4/src\coap_debug.c ****  * printable data which is also assumed if @p content_format is @c 01.
 666:C:/Users/stapi/OneDrive/Desktop/GD32VW553/GD32VW55X_Wifi_BLE_SDK/GD32VW55x_RELEASE_V1.0.2/MSDK/lwip/libcoap-4.3.4/src\coap_debug.c ****  */
 667:C:/Users/stapi/OneDrive/Desktop/GD32VW553/GD32VW55X_Wifi_BLE_SDK/GD32VW55x_RELEASE_V1.0.2/MSDK/lwip/libcoap-4.3.4/src\coap_debug.c **** COAP_STATIC_INLINE int
 668:C:/Users/stapi/OneDrive/Desktop/GD32VW553/GD32VW55X_Wifi_BLE_SDK/GD32VW55x_RELEASE_V1.0.2/MSDK/lwip/libcoap-4.3.4/src\coap_debug.c **** is_binary(int content_format) {
 669:C:/Users/stapi/OneDrive/Desktop/GD32VW553/GD32VW55X_Wifi_BLE_SDK/GD32VW55x_RELEASE_V1.0.2/MSDK/lwip/libcoap-4.3.4/src\coap_debug.c ****   return !(content_format == -1 ||
 670:C:/Users/stapi/OneDrive/Desktop/GD32VW553/GD32VW55X_Wifi_BLE_SDK/GD32VW55x_RELEASE_V1.0.2/MSDK/lwip/libcoap-4.3.4/src\coap_debug.c ****            content_format == COAP_MEDIATYPE_TEXT_PLAIN ||
 671:C:/Users/stapi/OneDrive/Desktop/GD32VW553/GD32VW55X_Wifi_BLE_SDK/GD32VW55x_RELEASE_V1.0.2/MSDK/lwip/libcoap-4.3.4/src\coap_debug.c ****            content_format == COAP_MEDIATYPE_APPLICATION_LINK_FORMAT ||
 672:C:/Users/stapi/OneDrive/Desktop/GD32VW553/GD32VW55X_Wifi_BLE_SDK/GD32VW55x_RELEASE_V1.0.2/MSDK/lwip/libcoap-4.3.4/src\coap_debug.c ****            content_format == COAP_MEDIATYPE_APPLICATION_XML ||
 673:C:/Users/stapi/OneDrive/Desktop/GD32VW553/GD32VW55X_Wifi_BLE_SDK/GD32VW55x_RELEASE_V1.0.2/MSDK/lwip/libcoap-4.3.4/src\coap_debug.c ****            content_format == COAP_MEDIATYPE_APPLICATION_JSON);
 674:C:/Users/stapi/OneDrive/Desktop/GD32VW553/GD32VW55X_Wifi_BLE_SDK/GD32VW55x_RELEASE_V1.0.2/MSDK/lwip/libcoap-4.3.4/src\coap_debug.c **** }
 675:C:/Users/stapi/OneDrive/Desktop/GD32VW553/GD32VW55X_Wifi_BLE_SDK/GD32VW55x_RELEASE_V1.0.2/MSDK/lwip/libcoap-4.3.4/src\coap_debug.c **** 
 676:C:/Users/stapi/OneDrive/Desktop/GD32VW553/GD32VW55X_Wifi_BLE_SDK/GD32VW55x_RELEASE_V1.0.2/MSDK/lwip/libcoap-4.3.4/src\coap_debug.c **** #define COAP_DO_SHOW_OUTPUT_LINE           \
 677:C:/Users/stapi/OneDrive/Desktop/GD32VW553/GD32VW55X_Wifi_BLE_SDK/GD32VW55x_RELEASE_V1.0.2/MSDK/lwip/libcoap-4.3.4/src\coap_debug.c ****   do {                                      \
 678:C:/Users/stapi/OneDrive/Desktop/GD32VW553/GD32VW55X_Wifi_BLE_SDK/GD32VW55x_RELEASE_V1.0.2/MSDK/lwip/libcoap-4.3.4/src\coap_debug.c ****     if (use_fprintf_for_show_pdu) {         \
 679:C:/Users/stapi/OneDrive/Desktop/GD32VW553/GD32VW55X_Wifi_BLE_SDK/GD32VW55x_RELEASE_V1.0.2/MSDK/lwip/libcoap-4.3.4/src\coap_debug.c ****       fprintf(COAP_DEBUG_FD, "%s", outbuf); \
 680:C:/Users/stapi/OneDrive/Desktop/GD32VW553/GD32VW55X_Wifi_BLE_SDK/GD32VW55x_RELEASE_V1.0.2/MSDK/lwip/libcoap-4.3.4/src\coap_debug.c ****     }                                       \
 681:C:/Users/stapi/OneDrive/Desktop/GD32VW553/GD32VW55X_Wifi_BLE_SDK/GD32VW55x_RELEASE_V1.0.2/MSDK/lwip/libcoap-4.3.4/src\coap_debug.c ****     else {                                  \
 682:C:/Users/stapi/OneDrive/Desktop/GD32VW553/GD32VW55X_Wifi_BLE_SDK/GD32VW55x_RELEASE_V1.0.2/MSDK/lwip/libcoap-4.3.4/src\coap_debug.c ****       coap_log(level, "%s", outbuf);        \
 683:C:/Users/stapi/OneDrive/Desktop/GD32VW553/GD32VW55X_Wifi_BLE_SDK/GD32VW55x_RELEASE_V1.0.2/MSDK/lwip/libcoap-4.3.4/src\coap_debug.c ****     }                                       \
 684:C:/Users/stapi/OneDrive/Desktop/GD32VW553/GD32VW55X_Wifi_BLE_SDK/GD32VW55x_RELEASE_V1.0.2/MSDK/lwip/libcoap-4.3.4/src\coap_debug.c ****   } while (0)
 685:C:/Users/stapi/OneDrive/Desktop/GD32VW553/GD32VW55X_Wifi_BLE_SDK/GD32VW55x_RELEASE_V1.0.2/MSDK/lwip/libcoap-4.3.4/src\coap_debug.c **** 
 686:C:/Users/stapi/OneDrive/Desktop/GD32VW553/GD32VW55X_Wifi_BLE_SDK/GD32VW55x_RELEASE_V1.0.2/MSDK/lwip/libcoap-4.3.4/src\coap_debug.c **** /*
 687:C:/Users/stapi/OneDrive/Desktop/GD32VW553/GD32VW55X_Wifi_BLE_SDK/GD32VW55x_RELEASE_V1.0.2/MSDK/lwip/libcoap-4.3.4/src\coap_debug.c ****  * It is possible to override the output debug buffer size and hence control
 688:C:/Users/stapi/OneDrive/Desktop/GD32VW553/GD32VW55X_Wifi_BLE_SDK/GD32VW55x_RELEASE_V1.0.2/MSDK/lwip/libcoap-4.3.4/src\coap_debug.c ****  * the amount of information printed out about a CoAP PDU.
 689:C:/Users/stapi/OneDrive/Desktop/GD32VW553/GD32VW55X_Wifi_BLE_SDK/GD32VW55x_RELEASE_V1.0.2/MSDK/lwip/libcoap-4.3.4/src\coap_debug.c ****  * Note: Adding a byte may be insufficient to output the next byte of the PDU.
 690:C:/Users/stapi/OneDrive/Desktop/GD32VW553/GD32VW55X_Wifi_BLE_SDK/GD32VW55x_RELEASE_V1.0.2/MSDK/lwip/libcoap-4.3.4/src\coap_debug.c ****  *
 691:C:/Users/stapi/OneDrive/Desktop/GD32VW553/GD32VW55X_Wifi_BLE_SDK/GD32VW55x_RELEASE_V1.0.2/MSDK/lwip/libcoap-4.3.4/src\coap_debug.c ****  * This is done by the adding of a -DCOAP_DEBUG_BUF_SIZE=nnnn option to the
 692:C:/Users/stapi/OneDrive/Desktop/GD32VW553/GD32VW55X_Wifi_BLE_SDK/GD32VW55x_RELEASE_V1.0.2/MSDK/lwip/libcoap-4.3.4/src\coap_debug.c ****  * CPPFLAGS parameter that is optionally used on the ./configure command line.
 693:C:/Users/stapi/OneDrive/Desktop/GD32VW553/GD32VW55X_Wifi_BLE_SDK/GD32VW55x_RELEASE_V1.0.2/MSDK/lwip/libcoap-4.3.4/src\coap_debug.c ****  *
 694:C:/Users/stapi/OneDrive/Desktop/GD32VW553/GD32VW55X_Wifi_BLE_SDK/GD32VW55x_RELEASE_V1.0.2/MSDK/lwip/libcoap-4.3.4/src\coap_debug.c ****  * E.g.  ./configure CPPFLAGS="-DCOAP_DEBUG_BUF_SIZE=4096"
 695:C:/Users/stapi/OneDrive/Desktop/GD32VW553/GD32VW55X_Wifi_BLE_SDK/GD32VW55x_RELEASE_V1.0.2/MSDK/lwip/libcoap-4.3.4/src\coap_debug.c ****  *
 696:C:/Users/stapi/OneDrive/Desktop/GD32VW553/GD32VW55X_Wifi_BLE_SDK/GD32VW55x_RELEASE_V1.0.2/MSDK/lwip/libcoap-4.3.4/src\coap_debug.c ****  */
 697:C:/Users/stapi/OneDrive/Desktop/GD32VW553/GD32VW55X_Wifi_BLE_SDK/GD32VW55x_RELEASE_V1.0.2/MSDK/lwip/libcoap-4.3.4/src\coap_debug.c **** 
 698:C:/Users/stapi/OneDrive/Desktop/GD32VW553/GD32VW55X_Wifi_BLE_SDK/GD32VW55x_RELEASE_V1.0.2/MSDK/lwip/libcoap-4.3.4/src\coap_debug.c **** #if COAP_DEBUG_BUF_SIZE < 5
 699:C:/Users/stapi/OneDrive/Desktop/GD32VW553/GD32VW55X_Wifi_BLE_SDK/GD32VW55x_RELEASE_V1.0.2/MSDK/lwip/libcoap-4.3.4/src\coap_debug.c **** #error "COAP_DEBUG_BUF_SIZE must be at least 5, should be >= 32 to be useful"
 700:C:/Users/stapi/OneDrive/Desktop/GD32VW553/GD32VW55X_Wifi_BLE_SDK/GD32VW55x_RELEASE_V1.0.2/MSDK/lwip/libcoap-4.3.4/src\coap_debug.c **** #endif /* COAP_DEBUG_BUF_SIZE < 5 */
 701:C:/Users/stapi/OneDrive/Desktop/GD32VW553/GD32VW55X_Wifi_BLE_SDK/GD32VW55x_RELEASE_V1.0.2/MSDK/lwip/libcoap-4.3.4/src\coap_debug.c **** 
 702:C:/Users/stapi/OneDrive/Desktop/GD32VW553/GD32VW55X_Wifi_BLE_SDK/GD32VW55x_RELEASE_V1.0.2/MSDK/lwip/libcoap-4.3.4/src\coap_debug.c **** void
 703:C:/Users/stapi/OneDrive/Desktop/GD32VW553/GD32VW55X_Wifi_BLE_SDK/GD32VW55x_RELEASE_V1.0.2/MSDK/lwip/libcoap-4.3.4/src\coap_debug.c **** coap_show_pdu(coap_log_t level, const coap_pdu_t *pdu) {
 704:C:/Users/stapi/OneDrive/Desktop/GD32VW553/GD32VW55X_Wifi_BLE_SDK/GD32VW55x_RELEASE_V1.0.2/MSDK/lwip/libcoap-4.3.4/src\coap_debug.c **** #if COAP_CONSTRAINED_STACK
 705:C:/Users/stapi/OneDrive/Desktop/GD32VW553/GD32VW55X_Wifi_BLE_SDK/GD32VW55x_RELEASE_V1.0.2/MSDK/lwip/libcoap-4.3.4/src\coap_debug.c ****   /* Proxy-Uri: can be 1034 bytes long */
 706:C:/Users/stapi/OneDrive/Desktop/GD32VW553/GD32VW55X_Wifi_BLE_SDK/GD32VW55x_RELEASE_V1.0.2/MSDK/lwip/libcoap-4.3.4/src\coap_debug.c ****   /* buf and outbuf protected by mutex m_show_pdu */
 707:C:/Users/stapi/OneDrive/Desktop/GD32VW553/GD32VW55X_Wifi_BLE_SDK/GD32VW55x_RELEASE_V1.0.2/MSDK/lwip/libcoap-4.3.4/src\coap_debug.c ****   static unsigned char buf[min(COAP_DEBUG_BUF_SIZE, 1035)];
 708:C:/Users/stapi/OneDrive/Desktop/GD32VW553/GD32VW55X_Wifi_BLE_SDK/GD32VW55x_RELEASE_V1.0.2/MSDK/lwip/libcoap-4.3.4/src\coap_debug.c ****   static char outbuf[COAP_DEBUG_BUF_SIZE];
 709:C:/Users/stapi/OneDrive/Desktop/GD32VW553/GD32VW55X_Wifi_BLE_SDK/GD32VW55x_RELEASE_V1.0.2/MSDK/lwip/libcoap-4.3.4/src\coap_debug.c **** #else /* ! COAP_CONSTRAINED_STACK */
 710:C:/Users/stapi/OneDrive/Desktop/GD32VW553/GD32VW55X_Wifi_BLE_SDK/GD32VW55x_RELEASE_V1.0.2/MSDK/lwip/libcoap-4.3.4/src\coap_debug.c ****   /* Proxy-Uri: can be 1034 bytes long */
 711:C:/Users/stapi/OneDrive/Desktop/GD32VW553/GD32VW55X_Wifi_BLE_SDK/GD32VW55x_RELEASE_V1.0.2/MSDK/lwip/libcoap-4.3.4/src\coap_debug.c ****   unsigned char buf[min(COAP_DEBUG_BUF_SIZE, 1035)];
 712:C:/Users/stapi/OneDrive/Desktop/GD32VW553/GD32VW55X_Wifi_BLE_SDK/GD32VW55x_RELEASE_V1.0.2/MSDK/lwip/libcoap-4.3.4/src\coap_debug.c ****   char outbuf[COAP_DEBUG_BUF_SIZE];
 713:C:/Users/stapi/OneDrive/Desktop/GD32VW553/GD32VW55X_Wifi_BLE_SDK/GD32VW55x_RELEASE_V1.0.2/MSDK/lwip/libcoap-4.3.4/src\coap_debug.c **** #endif /* ! COAP_CONSTRAINED_STACK */
 714:C:/Users/stapi/OneDrive/Desktop/GD32VW553/GD32VW55X_Wifi_BLE_SDK/GD32VW55x_RELEASE_V1.0.2/MSDK/lwip/libcoap-4.3.4/src\coap_debug.c ****   size_t buf_len = 0; /* takes the number of bytes written to buf */
 715:C:/Users/stapi/OneDrive/Desktop/GD32VW553/GD32VW55X_Wifi_BLE_SDK/GD32VW55x_RELEASE_V1.0.2/MSDK/lwip/libcoap-4.3.4/src\coap_debug.c ****   int encode = 0, have_options = 0;
 716:C:/Users/stapi/OneDrive/Desktop/GD32VW553/GD32VW55X_Wifi_BLE_SDK/GD32VW55x_RELEASE_V1.0.2/MSDK/lwip/libcoap-4.3.4/src\coap_debug.c ****   uint32_t i;
 717:C:/Users/stapi/OneDrive/Desktop/GD32VW553/GD32VW55X_Wifi_BLE_SDK/GD32VW55x_RELEASE_V1.0.2/MSDK/lwip/libcoap-4.3.4/src\coap_debug.c ****   coap_opt_iterator_t opt_iter;
 718:C:/Users/stapi/OneDrive/Desktop/GD32VW553/GD32VW55X_Wifi_BLE_SDK/GD32VW55x_RELEASE_V1.0.2/MSDK/lwip/libcoap-4.3.4/src\coap_debug.c ****   coap_opt_t *option;
 719:C:/Users/stapi/OneDrive/Desktop/GD32VW553/GD32VW55X_Wifi_BLE_SDK/GD32VW55x_RELEASE_V1.0.2/MSDK/lwip/libcoap-4.3.4/src\coap_debug.c ****   int content_format = -1;
 720:C:/Users/stapi/OneDrive/Desktop/GD32VW553/GD32VW55X_Wifi_BLE_SDK/GD32VW55x_RELEASE_V1.0.2/MSDK/lwip/libcoap-4.3.4/src\coap_debug.c ****   size_t data_len;
 721:C:/Users/stapi/OneDrive/Desktop/GD32VW553/GD32VW55X_Wifi_BLE_SDK/GD32VW55x_RELEASE_V1.0.2/MSDK/lwip/libcoap-4.3.4/src\coap_debug.c ****   const uint8_t *data;
 722:C:/Users/stapi/OneDrive/Desktop/GD32VW553/GD32VW55X_Wifi_BLE_SDK/GD32VW55x_RELEASE_V1.0.2/MSDK/lwip/libcoap-4.3.4/src\coap_debug.c ****   uint32_t opt_len;
 723:C:/Users/stapi/OneDrive/Desktop/GD32VW553/GD32VW55X_Wifi_BLE_SDK/GD32VW55x_RELEASE_V1.0.2/MSDK/lwip/libcoap-4.3.4/src\coap_debug.c ****   const uint8_t *opt_val;
 724:C:/Users/stapi/OneDrive/Desktop/GD32VW553/GD32VW55X_Wifi_BLE_SDK/GD32VW55x_RELEASE_V1.0.2/MSDK/lwip/libcoap-4.3.4/src\coap_debug.c ****   size_t outbuflen = 0;
 725:C:/Users/stapi/OneDrive/Desktop/GD32VW553/GD32VW55X_Wifi_BLE_SDK/GD32VW55x_RELEASE_V1.0.2/MSDK/lwip/libcoap-4.3.4/src\coap_debug.c ****   int is_oscore_payload = 0;
 726:C:/Users/stapi/OneDrive/Desktop/GD32VW553/GD32VW55X_Wifi_BLE_SDK/GD32VW55x_RELEASE_V1.0.2/MSDK/lwip/libcoap-4.3.4/src\coap_debug.c **** 
 727:C:/Users/stapi/OneDrive/Desktop/GD32VW553/GD32VW55X_Wifi_BLE_SDK/GD32VW55x_RELEASE_V1.0.2/MSDK/lwip/libcoap-4.3.4/src\coap_debug.c ****   /* Save time if not needed */
 728:C:/Users/stapi/OneDrive/Desktop/GD32VW553/GD32VW55X_Wifi_BLE_SDK/GD32VW55x_RELEASE_V1.0.2/MSDK/lwip/libcoap-4.3.4/src\coap_debug.c ****   if (level > coap_get_log_level())
 729:C:/Users/stapi/OneDrive/Desktop/GD32VW553/GD32VW55X_Wifi_BLE_SDK/GD32VW55x_RELEASE_V1.0.2/MSDK/lwip/libcoap-4.3.4/src\coap_debug.c ****     return;
 730:C:/Users/stapi/OneDrive/Desktop/GD32VW553/GD32VW55X_Wifi_BLE_SDK/GD32VW55x_RELEASE_V1.0.2/MSDK/lwip/libcoap-4.3.4/src\coap_debug.c **** 
 731:C:/Users/stapi/OneDrive/Desktop/GD32VW553/GD32VW55X_Wifi_BLE_SDK/GD32VW55x_RELEASE_V1.0.2/MSDK/lwip/libcoap-4.3.4/src\coap_debug.c **** #if COAP_CONSTRAINED_STACK
 732:C:/Users/stapi/OneDrive/Desktop/GD32VW553/GD32VW55X_Wifi_BLE_SDK/GD32VW55x_RELEASE_V1.0.2/MSDK/lwip/libcoap-4.3.4/src\coap_debug.c ****   coap_mutex_lock(&m_show_pdu);
 733:C:/Users/stapi/OneDrive/Desktop/GD32VW553/GD32VW55X_Wifi_BLE_SDK/GD32VW55x_RELEASE_V1.0.2/MSDK/lwip/libcoap-4.3.4/src\coap_debug.c **** #endif /* COAP_CONSTRAINED_STACK */
 734:C:/Users/stapi/OneDrive/Desktop/GD32VW553/GD32VW55X_Wifi_BLE_SDK/GD32VW55x_RELEASE_V1.0.2/MSDK/lwip/libcoap-4.3.4/src\coap_debug.c **** 
 735:C:/Users/stapi/OneDrive/Desktop/GD32VW553/GD32VW55X_Wifi_BLE_SDK/GD32VW55x_RELEASE_V1.0.2/MSDK/lwip/libcoap-4.3.4/src\coap_debug.c ****   if (!pdu->session || COAP_PROTO_NOT_RELIABLE(pdu->session->proto)) {
 736:C:/Users/stapi/OneDrive/Desktop/GD32VW553/GD32VW55X_Wifi_BLE_SDK/GD32VW55x_RELEASE_V1.0.2/MSDK/lwip/libcoap-4.3.4/src\coap_debug.c ****     snprintf(outbuf, sizeof(outbuf), "v:%d t:%s c:%s i:%04x {",
 737:C:/Users/stapi/OneDrive/Desktop/GD32VW553/GD32VW55X_Wifi_BLE_SDK/GD32VW55x_RELEASE_V1.0.2/MSDK/lwip/libcoap-4.3.4/src\coap_debug.c ****              COAP_DEFAULT_VERSION, msg_type_string(pdu->type),
 738:C:/Users/stapi/OneDrive/Desktop/GD32VW553/GD32VW55X_Wifi_BLE_SDK/GD32VW55x_RELEASE_V1.0.2/MSDK/lwip/libcoap-4.3.4/src\coap_debug.c ****              msg_code_string(pdu->code), pdu->mid);
 739:C:/Users/stapi/OneDrive/Desktop/GD32VW553/GD32VW55X_Wifi_BLE_SDK/GD32VW55x_RELEASE_V1.0.2/MSDK/lwip/libcoap-4.3.4/src\coap_debug.c ****   } else if (pdu->session->proto == COAP_PROTO_WS ||
 740:C:/Users/stapi/OneDrive/Desktop/GD32VW553/GD32VW55X_Wifi_BLE_SDK/GD32VW55x_RELEASE_V1.0.2/MSDK/lwip/libcoap-4.3.4/src\coap_debug.c ****              pdu->session->proto == COAP_PROTO_WSS) {
 741:C:/Users/stapi/OneDrive/Desktop/GD32VW553/GD32VW55X_Wifi_BLE_SDK/GD32VW55x_RELEASE_V1.0.2/MSDK/lwip/libcoap-4.3.4/src\coap_debug.c ****     if (pdu->type != COAP_MESSAGE_CON)
 742:C:/Users/stapi/OneDrive/Desktop/GD32VW553/GD32VW55X_Wifi_BLE_SDK/GD32VW55x_RELEASE_V1.0.2/MSDK/lwip/libcoap-4.3.4/src\coap_debug.c ****       coap_log_alert("WebSocket: type != CON\n");
 743:C:/Users/stapi/OneDrive/Desktop/GD32VW553/GD32VW55X_Wifi_BLE_SDK/GD32VW55x_RELEASE_V1.0.2/MSDK/lwip/libcoap-4.3.4/src\coap_debug.c ****     snprintf(outbuf, sizeof(outbuf), "v:WebSocket c:%s {",
 744:C:/Users/stapi/OneDrive/Desktop/GD32VW553/GD32VW55X_Wifi_BLE_SDK/GD32VW55x_RELEASE_V1.0.2/MSDK/lwip/libcoap-4.3.4/src\coap_debug.c ****              msg_code_string(pdu->code));
 745:C:/Users/stapi/OneDrive/Desktop/GD32VW553/GD32VW55X_Wifi_BLE_SDK/GD32VW55x_RELEASE_V1.0.2/MSDK/lwip/libcoap-4.3.4/src\coap_debug.c ****   } else {
 746:C:/Users/stapi/OneDrive/Desktop/GD32VW553/GD32VW55X_Wifi_BLE_SDK/GD32VW55x_RELEASE_V1.0.2/MSDK/lwip/libcoap-4.3.4/src\coap_debug.c ****     if (pdu->type != COAP_MESSAGE_CON)
 747:C:/Users/stapi/OneDrive/Desktop/GD32VW553/GD32VW55X_Wifi_BLE_SDK/GD32VW55x_RELEASE_V1.0.2/MSDK/lwip/libcoap-4.3.4/src\coap_debug.c ****       coap_log_alert("Reliable: type != CON\n");
 748:C:/Users/stapi/OneDrive/Desktop/GD32VW553/GD32VW55X_Wifi_BLE_SDK/GD32VW55x_RELEASE_V1.0.2/MSDK/lwip/libcoap-4.3.4/src\coap_debug.c ****     snprintf(outbuf, sizeof(outbuf), "v:Reliable c:%s {",
 749:C:/Users/stapi/OneDrive/Desktop/GD32VW553/GD32VW55X_Wifi_BLE_SDK/GD32VW55x_RELEASE_V1.0.2/MSDK/lwip/libcoap-4.3.4/src\coap_debug.c ****              msg_code_string(pdu->code));
 750:C:/Users/stapi/OneDrive/Desktop/GD32VW553/GD32VW55X_Wifi_BLE_SDK/GD32VW55x_RELEASE_V1.0.2/MSDK/lwip/libcoap-4.3.4/src\coap_debug.c ****   }
 751:C:/Users/stapi/OneDrive/Desktop/GD32VW553/GD32VW55X_Wifi_BLE_SDK/GD32VW55x_RELEASE_V1.0.2/MSDK/lwip/libcoap-4.3.4/src\coap_debug.c **** 
 752:C:/Users/stapi/OneDrive/Desktop/GD32VW553/GD32VW55X_Wifi_BLE_SDK/GD32VW55x_RELEASE_V1.0.2/MSDK/lwip/libcoap-4.3.4/src\coap_debug.c ****   for (i = 0; i < pdu->actual_token.length; i++) {
 753:C:/Users/stapi/OneDrive/Desktop/GD32VW553/GD32VW55X_Wifi_BLE_SDK/GD32VW55x_RELEASE_V1.0.2/MSDK/lwip/libcoap-4.3.4/src\coap_debug.c ****     outbuflen = strlen(outbuf);
 754:C:/Users/stapi/OneDrive/Desktop/GD32VW553/GD32VW55X_Wifi_BLE_SDK/GD32VW55x_RELEASE_V1.0.2/MSDK/lwip/libcoap-4.3.4/src\coap_debug.c ****     snprintf(&outbuf[outbuflen], sizeof(outbuf)-outbuflen,
 755:C:/Users/stapi/OneDrive/Desktop/GD32VW553/GD32VW55X_Wifi_BLE_SDK/GD32VW55x_RELEASE_V1.0.2/MSDK/lwip/libcoap-4.3.4/src\coap_debug.c ****              "%02x", pdu->actual_token.s[i]);
 756:C:/Users/stapi/OneDrive/Desktop/GD32VW553/GD32VW55X_Wifi_BLE_SDK/GD32VW55x_RELEASE_V1.0.2/MSDK/lwip/libcoap-4.3.4/src\coap_debug.c ****   }
 757:C:/Users/stapi/OneDrive/Desktop/GD32VW553/GD32VW55X_Wifi_BLE_SDK/GD32VW55x_RELEASE_V1.0.2/MSDK/lwip/libcoap-4.3.4/src\coap_debug.c ****   outbuflen = strlen(outbuf);
 758:C:/Users/stapi/OneDrive/Desktop/GD32VW553/GD32VW55X_Wifi_BLE_SDK/GD32VW55x_RELEASE_V1.0.2/MSDK/lwip/libcoap-4.3.4/src\coap_debug.c ****   snprintf(&outbuf[outbuflen], sizeof(outbuf)-outbuflen,  "}");
 759:C:/Users/stapi/OneDrive/Desktop/GD32VW553/GD32VW55X_Wifi_BLE_SDK/GD32VW55x_RELEASE_V1.0.2/MSDK/lwip/libcoap-4.3.4/src\coap_debug.c **** 
 760:C:/Users/stapi/OneDrive/Desktop/GD32VW553/GD32VW55X_Wifi_BLE_SDK/GD32VW55x_RELEASE_V1.0.2/MSDK/lwip/libcoap-4.3.4/src\coap_debug.c ****   /* show options, if any */
 761:C:/Users/stapi/OneDrive/Desktop/GD32VW553/GD32VW55X_Wifi_BLE_SDK/GD32VW55x_RELEASE_V1.0.2/MSDK/lwip/libcoap-4.3.4/src\coap_debug.c ****   coap_option_iterator_init(pdu, &opt_iter, COAP_OPT_ALL);
 762:C:/Users/stapi/OneDrive/Desktop/GD32VW553/GD32VW55X_Wifi_BLE_SDK/GD32VW55x_RELEASE_V1.0.2/MSDK/lwip/libcoap-4.3.4/src\coap_debug.c **** 
 763:C:/Users/stapi/OneDrive/Desktop/GD32VW553/GD32VW55X_Wifi_BLE_SDK/GD32VW55x_RELEASE_V1.0.2/MSDK/lwip/libcoap-4.3.4/src\coap_debug.c ****   outbuflen = strlen(outbuf);
 764:C:/Users/stapi/OneDrive/Desktop/GD32VW553/GD32VW55X_Wifi_BLE_SDK/GD32VW55x_RELEASE_V1.0.2/MSDK/lwip/libcoap-4.3.4/src\coap_debug.c ****   snprintf(&outbuf[outbuflen], sizeof(outbuf)-outbuflen,  " [");
 765:C:/Users/stapi/OneDrive/Desktop/GD32VW553/GD32VW55X_Wifi_BLE_SDK/GD32VW55x_RELEASE_V1.0.2/MSDK/lwip/libcoap-4.3.4/src\coap_debug.c ****   while ((option = coap_option_next(&opt_iter))) {
 766:C:/Users/stapi/OneDrive/Desktop/GD32VW553/GD32VW55X_Wifi_BLE_SDK/GD32VW55x_RELEASE_V1.0.2/MSDK/lwip/libcoap-4.3.4/src\coap_debug.c ****     buf[0] = '\000';
 767:C:/Users/stapi/OneDrive/Desktop/GD32VW553/GD32VW55X_Wifi_BLE_SDK/GD32VW55x_RELEASE_V1.0.2/MSDK/lwip/libcoap-4.3.4/src\coap_debug.c ****     if (!have_options) {
 768:C:/Users/stapi/OneDrive/Desktop/GD32VW553/GD32VW55X_Wifi_BLE_SDK/GD32VW55x_RELEASE_V1.0.2/MSDK/lwip/libcoap-4.3.4/src\coap_debug.c ****       have_options = 1;
 769:C:/Users/stapi/OneDrive/Desktop/GD32VW553/GD32VW55X_Wifi_BLE_SDK/GD32VW55x_RELEASE_V1.0.2/MSDK/lwip/libcoap-4.3.4/src\coap_debug.c ****     } else {
 770:C:/Users/stapi/OneDrive/Desktop/GD32VW553/GD32VW55X_Wifi_BLE_SDK/GD32VW55x_RELEASE_V1.0.2/MSDK/lwip/libcoap-4.3.4/src\coap_debug.c ****       outbuflen = strlen(outbuf);
 771:C:/Users/stapi/OneDrive/Desktop/GD32VW553/GD32VW55X_Wifi_BLE_SDK/GD32VW55x_RELEASE_V1.0.2/MSDK/lwip/libcoap-4.3.4/src\coap_debug.c ****       snprintf(&outbuf[outbuflen], sizeof(outbuf)-outbuflen,  ",");
 772:C:/Users/stapi/OneDrive/Desktop/GD32VW553/GD32VW55X_Wifi_BLE_SDK/GD32VW55x_RELEASE_V1.0.2/MSDK/lwip/libcoap-4.3.4/src\coap_debug.c ****     }
 773:C:/Users/stapi/OneDrive/Desktop/GD32VW553/GD32VW55X_Wifi_BLE_SDK/GD32VW55x_RELEASE_V1.0.2/MSDK/lwip/libcoap-4.3.4/src\coap_debug.c **** 
 774:C:/Users/stapi/OneDrive/Desktop/GD32VW553/GD32VW55X_Wifi_BLE_SDK/GD32VW55x_RELEASE_V1.0.2/MSDK/lwip/libcoap-4.3.4/src\coap_debug.c ****     if (pdu->code == COAP_SIGNALING_CODE_CSM) {
 775:C:/Users/stapi/OneDrive/Desktop/GD32VW553/GD32VW55X_Wifi_BLE_SDK/GD32VW55x_RELEASE_V1.0.2/MSDK/lwip/libcoap-4.3.4/src\coap_debug.c ****       switch (opt_iter.number) {
 776:C:/Users/stapi/OneDrive/Desktop/GD32VW553/GD32VW55X_Wifi_BLE_SDK/GD32VW55x_RELEASE_V1.0.2/MSDK/lwip/libcoap-4.3.4/src\coap_debug.c ****       case COAP_SIGNALING_OPTION_EXTENDED_TOKEN_LENGTH:
 777:C:/Users/stapi/OneDrive/Desktop/GD32VW553/GD32VW55X_Wifi_BLE_SDK/GD32VW55x_RELEASE_V1.0.2/MSDK/lwip/libcoap-4.3.4/src\coap_debug.c ****       case COAP_SIGNALING_OPTION_MAX_MESSAGE_SIZE:
 778:C:/Users/stapi/OneDrive/Desktop/GD32VW553/GD32VW55X_Wifi_BLE_SDK/GD32VW55x_RELEASE_V1.0.2/MSDK/lwip/libcoap-4.3.4/src\coap_debug.c ****         buf_len = snprintf((char *)buf, sizeof(buf), "%u",
 779:C:/Users/stapi/OneDrive/Desktop/GD32VW553/GD32VW55X_Wifi_BLE_SDK/GD32VW55x_RELEASE_V1.0.2/MSDK/lwip/libcoap-4.3.4/src\coap_debug.c ****                            coap_decode_var_bytes(coap_opt_value(option),
 780:C:/Users/stapi/OneDrive/Desktop/GD32VW553/GD32VW55X_Wifi_BLE_SDK/GD32VW55x_RELEASE_V1.0.2/MSDK/lwip/libcoap-4.3.4/src\coap_debug.c ****                                                  coap_opt_length(option)));
 781:C:/Users/stapi/OneDrive/Desktop/GD32VW553/GD32VW55X_Wifi_BLE_SDK/GD32VW55x_RELEASE_V1.0.2/MSDK/lwip/libcoap-4.3.4/src\coap_debug.c ****         break;
 782:C:/Users/stapi/OneDrive/Desktop/GD32VW553/GD32VW55X_Wifi_BLE_SDK/GD32VW55x_RELEASE_V1.0.2/MSDK/lwip/libcoap-4.3.4/src\coap_debug.c ****       default:
 783:C:/Users/stapi/OneDrive/Desktop/GD32VW553/GD32VW55X_Wifi_BLE_SDK/GD32VW55x_RELEASE_V1.0.2/MSDK/lwip/libcoap-4.3.4/src\coap_debug.c ****         buf_len = 0;
 784:C:/Users/stapi/OneDrive/Desktop/GD32VW553/GD32VW55X_Wifi_BLE_SDK/GD32VW55x_RELEASE_V1.0.2/MSDK/lwip/libcoap-4.3.4/src\coap_debug.c ****         break;
 785:C:/Users/stapi/OneDrive/Desktop/GD32VW553/GD32VW55X_Wifi_BLE_SDK/GD32VW55x_RELEASE_V1.0.2/MSDK/lwip/libcoap-4.3.4/src\coap_debug.c ****       }
 786:C:/Users/stapi/OneDrive/Desktop/GD32VW553/GD32VW55X_Wifi_BLE_SDK/GD32VW55x_RELEASE_V1.0.2/MSDK/lwip/libcoap-4.3.4/src\coap_debug.c ****     } else if (pdu->code == COAP_SIGNALING_CODE_PING ||
 787:C:/Users/stapi/OneDrive/Desktop/GD32VW553/GD32VW55X_Wifi_BLE_SDK/GD32VW55x_RELEASE_V1.0.2/MSDK/lwip/libcoap-4.3.4/src\coap_debug.c ****                pdu->code == COAP_SIGNALING_CODE_PONG) {
 788:C:/Users/stapi/OneDrive/Desktop/GD32VW553/GD32VW55X_Wifi_BLE_SDK/GD32VW55x_RELEASE_V1.0.2/MSDK/lwip/libcoap-4.3.4/src\coap_debug.c ****       buf_len = 0;
 789:C:/Users/stapi/OneDrive/Desktop/GD32VW553/GD32VW55X_Wifi_BLE_SDK/GD32VW55x_RELEASE_V1.0.2/MSDK/lwip/libcoap-4.3.4/src\coap_debug.c ****     } else if (pdu->code == COAP_SIGNALING_CODE_RELEASE) {
 790:C:/Users/stapi/OneDrive/Desktop/GD32VW553/GD32VW55X_Wifi_BLE_SDK/GD32VW55x_RELEASE_V1.0.2/MSDK/lwip/libcoap-4.3.4/src\coap_debug.c ****       switch (opt_iter.number) {
 791:C:/Users/stapi/OneDrive/Desktop/GD32VW553/GD32VW55X_Wifi_BLE_SDK/GD32VW55x_RELEASE_V1.0.2/MSDK/lwip/libcoap-4.3.4/src\coap_debug.c ****       case COAP_SIGNALING_OPTION_ALTERNATIVE_ADDRESS:
 792:C:/Users/stapi/OneDrive/Desktop/GD32VW553/GD32VW55X_Wifi_BLE_SDK/GD32VW55x_RELEASE_V1.0.2/MSDK/lwip/libcoap-4.3.4/src\coap_debug.c ****         buf_len = print_readable(coap_opt_value(option),
 793:C:/Users/stapi/OneDrive/Desktop/GD32VW553/GD32VW55X_Wifi_BLE_SDK/GD32VW55x_RELEASE_V1.0.2/MSDK/lwip/libcoap-4.3.4/src\coap_debug.c ****                                  coap_opt_length(option),
 794:C:/Users/stapi/OneDrive/Desktop/GD32VW553/GD32VW55X_Wifi_BLE_SDK/GD32VW55x_RELEASE_V1.0.2/MSDK/lwip/libcoap-4.3.4/src\coap_debug.c ****                                  buf, sizeof(buf), 0);
 795:C:/Users/stapi/OneDrive/Desktop/GD32VW553/GD32VW55X_Wifi_BLE_SDK/GD32VW55x_RELEASE_V1.0.2/MSDK/lwip/libcoap-4.3.4/src\coap_debug.c ****         break;
 796:C:/Users/stapi/OneDrive/Desktop/GD32VW553/GD32VW55X_Wifi_BLE_SDK/GD32VW55x_RELEASE_V1.0.2/MSDK/lwip/libcoap-4.3.4/src\coap_debug.c ****       case COAP_SIGNALING_OPTION_HOLD_OFF:
 797:C:/Users/stapi/OneDrive/Desktop/GD32VW553/GD32VW55X_Wifi_BLE_SDK/GD32VW55x_RELEASE_V1.0.2/MSDK/lwip/libcoap-4.3.4/src\coap_debug.c ****         buf_len = snprintf((char *)buf, sizeof(buf), "%u",
 798:C:/Users/stapi/OneDrive/Desktop/GD32VW553/GD32VW55X_Wifi_BLE_SDK/GD32VW55x_RELEASE_V1.0.2/MSDK/lwip/libcoap-4.3.4/src\coap_debug.c ****                            coap_decode_var_bytes(coap_opt_value(option),
 799:C:/Users/stapi/OneDrive/Desktop/GD32VW553/GD32VW55X_Wifi_BLE_SDK/GD32VW55x_RELEASE_V1.0.2/MSDK/lwip/libcoap-4.3.4/src\coap_debug.c ****                                                  coap_opt_length(option)));
 800:C:/Users/stapi/OneDrive/Desktop/GD32VW553/GD32VW55X_Wifi_BLE_SDK/GD32VW55x_RELEASE_V1.0.2/MSDK/lwip/libcoap-4.3.4/src\coap_debug.c ****         break;
 801:C:/Users/stapi/OneDrive/Desktop/GD32VW553/GD32VW55X_Wifi_BLE_SDK/GD32VW55x_RELEASE_V1.0.2/MSDK/lwip/libcoap-4.3.4/src\coap_debug.c ****       default:
 802:C:/Users/stapi/OneDrive/Desktop/GD32VW553/GD32VW55X_Wifi_BLE_SDK/GD32VW55x_RELEASE_V1.0.2/MSDK/lwip/libcoap-4.3.4/src\coap_debug.c ****         buf_len = 0;
 803:C:/Users/stapi/OneDrive/Desktop/GD32VW553/GD32VW55X_Wifi_BLE_SDK/GD32VW55x_RELEASE_V1.0.2/MSDK/lwip/libcoap-4.3.4/src\coap_debug.c ****         break;
 804:C:/Users/stapi/OneDrive/Desktop/GD32VW553/GD32VW55X_Wifi_BLE_SDK/GD32VW55x_RELEASE_V1.0.2/MSDK/lwip/libcoap-4.3.4/src\coap_debug.c ****       }
 805:C:/Users/stapi/OneDrive/Desktop/GD32VW553/GD32VW55X_Wifi_BLE_SDK/GD32VW55x_RELEASE_V1.0.2/MSDK/lwip/libcoap-4.3.4/src\coap_debug.c ****     } else if (pdu->code == COAP_SIGNALING_CODE_ABORT) {
 806:C:/Users/stapi/OneDrive/Desktop/GD32VW553/GD32VW55X_Wifi_BLE_SDK/GD32VW55x_RELEASE_V1.0.2/MSDK/lwip/libcoap-4.3.4/src\coap_debug.c ****       switch (opt_iter.number) {
 807:C:/Users/stapi/OneDrive/Desktop/GD32VW553/GD32VW55X_Wifi_BLE_SDK/GD32VW55x_RELEASE_V1.0.2/MSDK/lwip/libcoap-4.3.4/src\coap_debug.c ****       case COAP_SIGNALING_OPTION_BAD_CSM_OPTION:
 808:C:/Users/stapi/OneDrive/Desktop/GD32VW553/GD32VW55X_Wifi_BLE_SDK/GD32VW55x_RELEASE_V1.0.2/MSDK/lwip/libcoap-4.3.4/src\coap_debug.c ****         buf_len = snprintf((char *)buf, sizeof(buf), "%u",
 809:C:/Users/stapi/OneDrive/Desktop/GD32VW553/GD32VW55X_Wifi_BLE_SDK/GD32VW55x_RELEASE_V1.0.2/MSDK/lwip/libcoap-4.3.4/src\coap_debug.c ****                            coap_decode_var_bytes(coap_opt_value(option),
 810:C:/Users/stapi/OneDrive/Desktop/GD32VW553/GD32VW55X_Wifi_BLE_SDK/GD32VW55x_RELEASE_V1.0.2/MSDK/lwip/libcoap-4.3.4/src\coap_debug.c ****                                                  coap_opt_length(option)));
 811:C:/Users/stapi/OneDrive/Desktop/GD32VW553/GD32VW55X_Wifi_BLE_SDK/GD32VW55x_RELEASE_V1.0.2/MSDK/lwip/libcoap-4.3.4/src\coap_debug.c ****         break;
 812:C:/Users/stapi/OneDrive/Desktop/GD32VW553/GD32VW55X_Wifi_BLE_SDK/GD32VW55x_RELEASE_V1.0.2/MSDK/lwip/libcoap-4.3.4/src\coap_debug.c ****       default:
 813:C:/Users/stapi/OneDrive/Desktop/GD32VW553/GD32VW55X_Wifi_BLE_SDK/GD32VW55x_RELEASE_V1.0.2/MSDK/lwip/libcoap-4.3.4/src\coap_debug.c ****         buf_len = 0;
 814:C:/Users/stapi/OneDrive/Desktop/GD32VW553/GD32VW55X_Wifi_BLE_SDK/GD32VW55x_RELEASE_V1.0.2/MSDK/lwip/libcoap-4.3.4/src\coap_debug.c ****         break;
 815:C:/Users/stapi/OneDrive/Desktop/GD32VW553/GD32VW55X_Wifi_BLE_SDK/GD32VW55x_RELEASE_V1.0.2/MSDK/lwip/libcoap-4.3.4/src\coap_debug.c ****       }
 816:C:/Users/stapi/OneDrive/Desktop/GD32VW553/GD32VW55X_Wifi_BLE_SDK/GD32VW55x_RELEASE_V1.0.2/MSDK/lwip/libcoap-4.3.4/src\coap_debug.c ****     } else {
 817:C:/Users/stapi/OneDrive/Desktop/GD32VW553/GD32VW55X_Wifi_BLE_SDK/GD32VW55x_RELEASE_V1.0.2/MSDK/lwip/libcoap-4.3.4/src\coap_debug.c ****       switch (opt_iter.number) {
 818:C:/Users/stapi/OneDrive/Desktop/GD32VW553/GD32VW55X_Wifi_BLE_SDK/GD32VW55x_RELEASE_V1.0.2/MSDK/lwip/libcoap-4.3.4/src\coap_debug.c ****       case COAP_OPTION_CONTENT_FORMAT:
 819:C:/Users/stapi/OneDrive/Desktop/GD32VW553/GD32VW55X_Wifi_BLE_SDK/GD32VW55x_RELEASE_V1.0.2/MSDK/lwip/libcoap-4.3.4/src\coap_debug.c ****       case COAP_OPTION_ACCEPT:
 820:C:/Users/stapi/OneDrive/Desktop/GD32VW553/GD32VW55X_Wifi_BLE_SDK/GD32VW55x_RELEASE_V1.0.2/MSDK/lwip/libcoap-4.3.4/src\coap_debug.c ****         content_format = (int)coap_decode_var_bytes(coap_opt_value(option),
 821:C:/Users/stapi/OneDrive/Desktop/GD32VW553/GD32VW55X_Wifi_BLE_SDK/GD32VW55x_RELEASE_V1.0.2/MSDK/lwip/libcoap-4.3.4/src\coap_debug.c ****                                                     coap_opt_length(option));
 822:C:/Users/stapi/OneDrive/Desktop/GD32VW553/GD32VW55X_Wifi_BLE_SDK/GD32VW55x_RELEASE_V1.0.2/MSDK/lwip/libcoap-4.3.4/src\coap_debug.c **** 
 823:C:/Users/stapi/OneDrive/Desktop/GD32VW553/GD32VW55X_Wifi_BLE_SDK/GD32VW55x_RELEASE_V1.0.2/MSDK/lwip/libcoap-4.3.4/src\coap_debug.c ****         buf_len = print_content_format(content_format, buf, sizeof(buf));
 824:C:/Users/stapi/OneDrive/Desktop/GD32VW553/GD32VW55X_Wifi_BLE_SDK/GD32VW55x_RELEASE_V1.0.2/MSDK/lwip/libcoap-4.3.4/src\coap_debug.c ****         break;
 825:C:/Users/stapi/OneDrive/Desktop/GD32VW553/GD32VW55X_Wifi_BLE_SDK/GD32VW55x_RELEASE_V1.0.2/MSDK/lwip/libcoap-4.3.4/src\coap_debug.c **** 
 826:C:/Users/stapi/OneDrive/Desktop/GD32VW553/GD32VW55X_Wifi_BLE_SDK/GD32VW55x_RELEASE_V1.0.2/MSDK/lwip/libcoap-4.3.4/src\coap_debug.c ****       case COAP_OPTION_BLOCK1:
 827:C:/Users/stapi/OneDrive/Desktop/GD32VW553/GD32VW55X_Wifi_BLE_SDK/GD32VW55x_RELEASE_V1.0.2/MSDK/lwip/libcoap-4.3.4/src\coap_debug.c ****       case COAP_OPTION_BLOCK2:
 828:C:/Users/stapi/OneDrive/Desktop/GD32VW553/GD32VW55X_Wifi_BLE_SDK/GD32VW55x_RELEASE_V1.0.2/MSDK/lwip/libcoap-4.3.4/src\coap_debug.c ****       case COAP_OPTION_Q_BLOCK1:
 829:C:/Users/stapi/OneDrive/Desktop/GD32VW553/GD32VW55X_Wifi_BLE_SDK/GD32VW55x_RELEASE_V1.0.2/MSDK/lwip/libcoap-4.3.4/src\coap_debug.c ****       case COAP_OPTION_Q_BLOCK2:
 830:C:/Users/stapi/OneDrive/Desktop/GD32VW553/GD32VW55X_Wifi_BLE_SDK/GD32VW55x_RELEASE_V1.0.2/MSDK/lwip/libcoap-4.3.4/src\coap_debug.c ****         /* split block option into number/more/size where more is the
 831:C:/Users/stapi/OneDrive/Desktop/GD32VW553/GD32VW55X_Wifi_BLE_SDK/GD32VW55x_RELEASE_V1.0.2/MSDK/lwip/libcoap-4.3.4/src\coap_debug.c ****          * letter M if set, the _ otherwise */
 832:C:/Users/stapi/OneDrive/Desktop/GD32VW553/GD32VW55X_Wifi_BLE_SDK/GD32VW55x_RELEASE_V1.0.2/MSDK/lwip/libcoap-4.3.4/src\coap_debug.c ****         if (COAP_OPT_BLOCK_SZX(option) == 7) {
 833:C:/Users/stapi/OneDrive/Desktop/GD32VW553/GD32VW55X_Wifi_BLE_SDK/GD32VW55x_RELEASE_V1.0.2/MSDK/lwip/libcoap-4.3.4/src\coap_debug.c ****           if (coap_get_data(pdu, &data_len, &data))
 834:C:/Users/stapi/OneDrive/Desktop/GD32VW553/GD32VW55X_Wifi_BLE_SDK/GD32VW55x_RELEASE_V1.0.2/MSDK/lwip/libcoap-4.3.4/src\coap_debug.c ****             buf_len = snprintf((char *)buf, sizeof(buf), "%u/%c/BERT(%zu)",
 835:C:/Users/stapi/OneDrive/Desktop/GD32VW553/GD32VW55X_Wifi_BLE_SDK/GD32VW55x_RELEASE_V1.0.2/MSDK/lwip/libcoap-4.3.4/src\coap_debug.c ****                                coap_opt_block_num(option), /* block number */
 836:C:/Users/stapi/OneDrive/Desktop/GD32VW553/GD32VW55X_Wifi_BLE_SDK/GD32VW55x_RELEASE_V1.0.2/MSDK/lwip/libcoap-4.3.4/src\coap_debug.c ****                                COAP_OPT_BLOCK_MORE(option) ? 'M' : '_', /* M bit */
 837:C:/Users/stapi/OneDrive/Desktop/GD32VW553/GD32VW55X_Wifi_BLE_SDK/GD32VW55x_RELEASE_V1.0.2/MSDK/lwip/libcoap-4.3.4/src\coap_debug.c ****                                data_len);
 838:C:/Users/stapi/OneDrive/Desktop/GD32VW553/GD32VW55X_Wifi_BLE_SDK/GD32VW55x_RELEASE_V1.0.2/MSDK/lwip/libcoap-4.3.4/src\coap_debug.c ****           else
 839:C:/Users/stapi/OneDrive/Desktop/GD32VW553/GD32VW55X_Wifi_BLE_SDK/GD32VW55x_RELEASE_V1.0.2/MSDK/lwip/libcoap-4.3.4/src\coap_debug.c ****             buf_len = snprintf((char *)buf, sizeof(buf), "%u/%c/BERT",
 840:C:/Users/stapi/OneDrive/Desktop/GD32VW553/GD32VW55X_Wifi_BLE_SDK/GD32VW55x_RELEASE_V1.0.2/MSDK/lwip/libcoap-4.3.4/src\coap_debug.c ****                                coap_opt_block_num(option), /* block number */
 841:C:/Users/stapi/OneDrive/Desktop/GD32VW553/GD32VW55X_Wifi_BLE_SDK/GD32VW55x_RELEASE_V1.0.2/MSDK/lwip/libcoap-4.3.4/src\coap_debug.c ****                                COAP_OPT_BLOCK_MORE(option) ? 'M' : '_'); /* M bit */
 842:C:/Users/stapi/OneDrive/Desktop/GD32VW553/GD32VW55X_Wifi_BLE_SDK/GD32VW55x_RELEASE_V1.0.2/MSDK/lwip/libcoap-4.3.4/src\coap_debug.c ****         } else {
 843:C:/Users/stapi/OneDrive/Desktop/GD32VW553/GD32VW55X_Wifi_BLE_SDK/GD32VW55x_RELEASE_V1.0.2/MSDK/lwip/libcoap-4.3.4/src\coap_debug.c ****           buf_len = snprintf((char *)buf, sizeof(buf), "%u/%c/%u",
 844:C:/Users/stapi/OneDrive/Desktop/GD32VW553/GD32VW55X_Wifi_BLE_SDK/GD32VW55x_RELEASE_V1.0.2/MSDK/lwip/libcoap-4.3.4/src\coap_debug.c ****                              coap_opt_block_num(option), /* block number */
 845:C:/Users/stapi/OneDrive/Desktop/GD32VW553/GD32VW55X_Wifi_BLE_SDK/GD32VW55x_RELEASE_V1.0.2/MSDK/lwip/libcoap-4.3.4/src\coap_debug.c ****                              COAP_OPT_BLOCK_MORE(option) ? 'M' : '_', /* M bit */
 846:C:/Users/stapi/OneDrive/Desktop/GD32VW553/GD32VW55X_Wifi_BLE_SDK/GD32VW55x_RELEASE_V1.0.2/MSDK/lwip/libcoap-4.3.4/src\coap_debug.c ****                              (1 << (COAP_OPT_BLOCK_SZX(option) + 4))); /* block size */
 847:C:/Users/stapi/OneDrive/Desktop/GD32VW553/GD32VW55X_Wifi_BLE_SDK/GD32VW55x_RELEASE_V1.0.2/MSDK/lwip/libcoap-4.3.4/src\coap_debug.c ****         }
 848:C:/Users/stapi/OneDrive/Desktop/GD32VW553/GD32VW55X_Wifi_BLE_SDK/GD32VW55x_RELEASE_V1.0.2/MSDK/lwip/libcoap-4.3.4/src\coap_debug.c **** 
 849:C:/Users/stapi/OneDrive/Desktop/GD32VW553/GD32VW55X_Wifi_BLE_SDK/GD32VW55x_RELEASE_V1.0.2/MSDK/lwip/libcoap-4.3.4/src\coap_debug.c ****         break;
 850:C:/Users/stapi/OneDrive/Desktop/GD32VW553/GD32VW55X_Wifi_BLE_SDK/GD32VW55x_RELEASE_V1.0.2/MSDK/lwip/libcoap-4.3.4/src\coap_debug.c **** 
 851:C:/Users/stapi/OneDrive/Desktop/GD32VW553/GD32VW55X_Wifi_BLE_SDK/GD32VW55x_RELEASE_V1.0.2/MSDK/lwip/libcoap-4.3.4/src\coap_debug.c ****       case COAP_OPTION_OSCORE:
 852:C:/Users/stapi/OneDrive/Desktop/GD32VW553/GD32VW55X_Wifi_BLE_SDK/GD32VW55x_RELEASE_V1.0.2/MSDK/lwip/libcoap-4.3.4/src\coap_debug.c ****         opt_len = coap_opt_length(option);
 853:C:/Users/stapi/OneDrive/Desktop/GD32VW553/GD32VW55X_Wifi_BLE_SDK/GD32VW55x_RELEASE_V1.0.2/MSDK/lwip/libcoap-4.3.4/src\coap_debug.c ****         buf[0] = '\000';
 854:C:/Users/stapi/OneDrive/Desktop/GD32VW553/GD32VW55X_Wifi_BLE_SDK/GD32VW55x_RELEASE_V1.0.2/MSDK/lwip/libcoap-4.3.4/src\coap_debug.c ****         if (opt_len) {
 855:C:/Users/stapi/OneDrive/Desktop/GD32VW553/GD32VW55X_Wifi_BLE_SDK/GD32VW55x_RELEASE_V1.0.2/MSDK/lwip/libcoap-4.3.4/src\coap_debug.c ****           size_t ofs = 1;
 856:C:/Users/stapi/OneDrive/Desktop/GD32VW553/GD32VW55X_Wifi_BLE_SDK/GD32VW55x_RELEASE_V1.0.2/MSDK/lwip/libcoap-4.3.4/src\coap_debug.c ****           size_t cnt;
 857:C:/Users/stapi/OneDrive/Desktop/GD32VW553/GD32VW55X_Wifi_BLE_SDK/GD32VW55x_RELEASE_V1.0.2/MSDK/lwip/libcoap-4.3.4/src\coap_debug.c **** 
 858:C:/Users/stapi/OneDrive/Desktop/GD32VW553/GD32VW55X_Wifi_BLE_SDK/GD32VW55x_RELEASE_V1.0.2/MSDK/lwip/libcoap-4.3.4/src\coap_debug.c ****           opt_val = coap_opt_value(option);
 859:C:/Users/stapi/OneDrive/Desktop/GD32VW553/GD32VW55X_Wifi_BLE_SDK/GD32VW55x_RELEASE_V1.0.2/MSDK/lwip/libcoap-4.3.4/src\coap_debug.c ****           if (opt_val[0] & 0x20) {
 860:C:/Users/stapi/OneDrive/Desktop/GD32VW553/GD32VW55X_Wifi_BLE_SDK/GD32VW55x_RELEASE_V1.0.2/MSDK/lwip/libcoap-4.3.4/src\coap_debug.c ****             /* Group Flag */
 861:C:/Users/stapi/OneDrive/Desktop/GD32VW553/GD32VW55X_Wifi_BLE_SDK/GD32VW55x_RELEASE_V1.0.2/MSDK/lwip/libcoap-4.3.4/src\coap_debug.c ****             snprintf((char *)buf, sizeof(buf), "grp");
 862:C:/Users/stapi/OneDrive/Desktop/GD32VW553/GD32VW55X_Wifi_BLE_SDK/GD32VW55x_RELEASE_V1.0.2/MSDK/lwip/libcoap-4.3.4/src\coap_debug.c ****           }
 863:C:/Users/stapi/OneDrive/Desktop/GD32VW553/GD32VW55X_Wifi_BLE_SDK/GD32VW55x_RELEASE_V1.0.2/MSDK/lwip/libcoap-4.3.4/src\coap_debug.c ****           if (opt_val[0] & 0x07) {
 864:C:/Users/stapi/OneDrive/Desktop/GD32VW553/GD32VW55X_Wifi_BLE_SDK/GD32VW55x_RELEASE_V1.0.2/MSDK/lwip/libcoap-4.3.4/src\coap_debug.c ****             /* Partial IV */
 865:C:/Users/stapi/OneDrive/Desktop/GD32VW553/GD32VW55X_Wifi_BLE_SDK/GD32VW55x_RELEASE_V1.0.2/MSDK/lwip/libcoap-4.3.4/src\coap_debug.c ****             cnt = opt_val[0] & 0x07;
 866:C:/Users/stapi/OneDrive/Desktop/GD32VW553/GD32VW55X_Wifi_BLE_SDK/GD32VW55x_RELEASE_V1.0.2/MSDK/lwip/libcoap-4.3.4/src\coap_debug.c ****             if (cnt > opt_len - ofs)
 867:C:/Users/stapi/OneDrive/Desktop/GD32VW553/GD32VW55X_Wifi_BLE_SDK/GD32VW55x_RELEASE_V1.0.2/MSDK/lwip/libcoap-4.3.4/src\coap_debug.c ****               goto no_more;
 868:C:/Users/stapi/OneDrive/Desktop/GD32VW553/GD32VW55X_Wifi_BLE_SDK/GD32VW55x_RELEASE_V1.0.2/MSDK/lwip/libcoap-4.3.4/src\coap_debug.c ****             buf_len = strlen((char *)buf);
 869:C:/Users/stapi/OneDrive/Desktop/GD32VW553/GD32VW55X_Wifi_BLE_SDK/GD32VW55x_RELEASE_V1.0.2/MSDK/lwip/libcoap-4.3.4/src\coap_debug.c ****             snprintf((char *)&buf[buf_len], sizeof(buf)-buf_len, "%spIV=0x",
 870:C:/Users/stapi/OneDrive/Desktop/GD32VW553/GD32VW55X_Wifi_BLE_SDK/GD32VW55x_RELEASE_V1.0.2/MSDK/lwip/libcoap-4.3.4/src\coap_debug.c ****                      buf_len ? "," : "");
 871:C:/Users/stapi/OneDrive/Desktop/GD32VW553/GD32VW55X_Wifi_BLE_SDK/GD32VW55x_RELEASE_V1.0.2/MSDK/lwip/libcoap-4.3.4/src\coap_debug.c ****             for (i = 0; (uint32_t)i < cnt; i++) {
 872:C:/Users/stapi/OneDrive/Desktop/GD32VW553/GD32VW55X_Wifi_BLE_SDK/GD32VW55x_RELEASE_V1.0.2/MSDK/lwip/libcoap-4.3.4/src\coap_debug.c ****               buf_len = strlen((char *)buf);
 873:C:/Users/stapi/OneDrive/Desktop/GD32VW553/GD32VW55X_Wifi_BLE_SDK/GD32VW55x_RELEASE_V1.0.2/MSDK/lwip/libcoap-4.3.4/src\coap_debug.c ****               snprintf((char *)&buf[buf_len], sizeof(buf)-buf_len,
 874:C:/Users/stapi/OneDrive/Desktop/GD32VW553/GD32VW55X_Wifi_BLE_SDK/GD32VW55x_RELEASE_V1.0.2/MSDK/lwip/libcoap-4.3.4/src\coap_debug.c ****                        "%02x", opt_val[ofs + i]);
 875:C:/Users/stapi/OneDrive/Desktop/GD32VW553/GD32VW55X_Wifi_BLE_SDK/GD32VW55x_RELEASE_V1.0.2/MSDK/lwip/libcoap-4.3.4/src\coap_debug.c ****             }
 876:C:/Users/stapi/OneDrive/Desktop/GD32VW553/GD32VW55X_Wifi_BLE_SDK/GD32VW55x_RELEASE_V1.0.2/MSDK/lwip/libcoap-4.3.4/src\coap_debug.c ****             ofs += cnt;
 877:C:/Users/stapi/OneDrive/Desktop/GD32VW553/GD32VW55X_Wifi_BLE_SDK/GD32VW55x_RELEASE_V1.0.2/MSDK/lwip/libcoap-4.3.4/src\coap_debug.c ****           }
 878:C:/Users/stapi/OneDrive/Desktop/GD32VW553/GD32VW55X_Wifi_BLE_SDK/GD32VW55x_RELEASE_V1.0.2/MSDK/lwip/libcoap-4.3.4/src\coap_debug.c ****           if (opt_val[0] & 0x10) {
 879:C:/Users/stapi/OneDrive/Desktop/GD32VW553/GD32VW55X_Wifi_BLE_SDK/GD32VW55x_RELEASE_V1.0.2/MSDK/lwip/libcoap-4.3.4/src\coap_debug.c ****             /* kid context */
 880:C:/Users/stapi/OneDrive/Desktop/GD32VW553/GD32VW55X_Wifi_BLE_SDK/GD32VW55x_RELEASE_V1.0.2/MSDK/lwip/libcoap-4.3.4/src\coap_debug.c ****             if (ofs >= opt_len)
 881:C:/Users/stapi/OneDrive/Desktop/GD32VW553/GD32VW55X_Wifi_BLE_SDK/GD32VW55x_RELEASE_V1.0.2/MSDK/lwip/libcoap-4.3.4/src\coap_debug.c ****               goto no_more;
 882:C:/Users/stapi/OneDrive/Desktop/GD32VW553/GD32VW55X_Wifi_BLE_SDK/GD32VW55x_RELEASE_V1.0.2/MSDK/lwip/libcoap-4.3.4/src\coap_debug.c ****             cnt = opt_val[ofs];
 883:C:/Users/stapi/OneDrive/Desktop/GD32VW553/GD32VW55X_Wifi_BLE_SDK/GD32VW55x_RELEASE_V1.0.2/MSDK/lwip/libcoap-4.3.4/src\coap_debug.c ****             if (cnt > opt_len - ofs - 1)
 884:C:/Users/stapi/OneDrive/Desktop/GD32VW553/GD32VW55X_Wifi_BLE_SDK/GD32VW55x_RELEASE_V1.0.2/MSDK/lwip/libcoap-4.3.4/src\coap_debug.c ****               goto no_more;
 885:C:/Users/stapi/OneDrive/Desktop/GD32VW553/GD32VW55X_Wifi_BLE_SDK/GD32VW55x_RELEASE_V1.0.2/MSDK/lwip/libcoap-4.3.4/src\coap_debug.c ****             ofs++;
 886:C:/Users/stapi/OneDrive/Desktop/GD32VW553/GD32VW55X_Wifi_BLE_SDK/GD32VW55x_RELEASE_V1.0.2/MSDK/lwip/libcoap-4.3.4/src\coap_debug.c ****             buf_len = strlen((char *)buf);
 887:C:/Users/stapi/OneDrive/Desktop/GD32VW553/GD32VW55X_Wifi_BLE_SDK/GD32VW55x_RELEASE_V1.0.2/MSDK/lwip/libcoap-4.3.4/src\coap_debug.c ****             snprintf((char *)&buf[buf_len], sizeof(buf)-buf_len, "%skc=0x",
 888:C:/Users/stapi/OneDrive/Desktop/GD32VW553/GD32VW55X_Wifi_BLE_SDK/GD32VW55x_RELEASE_V1.0.2/MSDK/lwip/libcoap-4.3.4/src\coap_debug.c ****                      buf_len ? "," : "");
 889:C:/Users/stapi/OneDrive/Desktop/GD32VW553/GD32VW55X_Wifi_BLE_SDK/GD32VW55x_RELEASE_V1.0.2/MSDK/lwip/libcoap-4.3.4/src\coap_debug.c ****             for (i = 0; (uint32_t)i < cnt; i++) {
 890:C:/Users/stapi/OneDrive/Desktop/GD32VW553/GD32VW55X_Wifi_BLE_SDK/GD32VW55x_RELEASE_V1.0.2/MSDK/lwip/libcoap-4.3.4/src\coap_debug.c ****               buf_len = strlen((char *)buf);
 891:C:/Users/stapi/OneDrive/Desktop/GD32VW553/GD32VW55X_Wifi_BLE_SDK/GD32VW55x_RELEASE_V1.0.2/MSDK/lwip/libcoap-4.3.4/src\coap_debug.c ****               snprintf((char *)&buf[buf_len], sizeof(buf)-buf_len,
 892:C:/Users/stapi/OneDrive/Desktop/GD32VW553/GD32VW55X_Wifi_BLE_SDK/GD32VW55x_RELEASE_V1.0.2/MSDK/lwip/libcoap-4.3.4/src\coap_debug.c ****                        "%02x", opt_val[ofs + i]);
 893:C:/Users/stapi/OneDrive/Desktop/GD32VW553/GD32VW55X_Wifi_BLE_SDK/GD32VW55x_RELEASE_V1.0.2/MSDK/lwip/libcoap-4.3.4/src\coap_debug.c ****             }
 894:C:/Users/stapi/OneDrive/Desktop/GD32VW553/GD32VW55X_Wifi_BLE_SDK/GD32VW55x_RELEASE_V1.0.2/MSDK/lwip/libcoap-4.3.4/src\coap_debug.c ****             ofs += cnt;
 895:C:/Users/stapi/OneDrive/Desktop/GD32VW553/GD32VW55X_Wifi_BLE_SDK/GD32VW55x_RELEASE_V1.0.2/MSDK/lwip/libcoap-4.3.4/src\coap_debug.c ****           }
 896:C:/Users/stapi/OneDrive/Desktop/GD32VW553/GD32VW55X_Wifi_BLE_SDK/GD32VW55x_RELEASE_V1.0.2/MSDK/lwip/libcoap-4.3.4/src\coap_debug.c ****           if (opt_val[0] & 0x08) {
 897:C:/Users/stapi/OneDrive/Desktop/GD32VW553/GD32VW55X_Wifi_BLE_SDK/GD32VW55x_RELEASE_V1.0.2/MSDK/lwip/libcoap-4.3.4/src\coap_debug.c ****             /* kid */
 898:C:/Users/stapi/OneDrive/Desktop/GD32VW553/GD32VW55X_Wifi_BLE_SDK/GD32VW55x_RELEASE_V1.0.2/MSDK/lwip/libcoap-4.3.4/src\coap_debug.c ****             if (ofs >= opt_len)
 899:C:/Users/stapi/OneDrive/Desktop/GD32VW553/GD32VW55X_Wifi_BLE_SDK/GD32VW55x_RELEASE_V1.0.2/MSDK/lwip/libcoap-4.3.4/src\coap_debug.c ****               goto no_more;
 900:C:/Users/stapi/OneDrive/Desktop/GD32VW553/GD32VW55X_Wifi_BLE_SDK/GD32VW55x_RELEASE_V1.0.2/MSDK/lwip/libcoap-4.3.4/src\coap_debug.c ****             cnt = opt_len - ofs;
 901:C:/Users/stapi/OneDrive/Desktop/GD32VW553/GD32VW55X_Wifi_BLE_SDK/GD32VW55x_RELEASE_V1.0.2/MSDK/lwip/libcoap-4.3.4/src\coap_debug.c ****             buf_len = strlen((char *)buf);
 902:C:/Users/stapi/OneDrive/Desktop/GD32VW553/GD32VW55X_Wifi_BLE_SDK/GD32VW55x_RELEASE_V1.0.2/MSDK/lwip/libcoap-4.3.4/src\coap_debug.c ****             snprintf((char *)&buf[buf_len], sizeof(buf)-buf_len, "%skid=0x",
 903:C:/Users/stapi/OneDrive/Desktop/GD32VW553/GD32VW55X_Wifi_BLE_SDK/GD32VW55x_RELEASE_V1.0.2/MSDK/lwip/libcoap-4.3.4/src\coap_debug.c ****                      buf_len ? "," : "");
 904:C:/Users/stapi/OneDrive/Desktop/GD32VW553/GD32VW55X_Wifi_BLE_SDK/GD32VW55x_RELEASE_V1.0.2/MSDK/lwip/libcoap-4.3.4/src\coap_debug.c ****             for (i = 0; (uint32_t)i < cnt; i++) {
 905:C:/Users/stapi/OneDrive/Desktop/GD32VW553/GD32VW55X_Wifi_BLE_SDK/GD32VW55x_RELEASE_V1.0.2/MSDK/lwip/libcoap-4.3.4/src\coap_debug.c ****               buf_len = strlen((char *)buf);
 906:C:/Users/stapi/OneDrive/Desktop/GD32VW553/GD32VW55X_Wifi_BLE_SDK/GD32VW55x_RELEASE_V1.0.2/MSDK/lwip/libcoap-4.3.4/src\coap_debug.c ****               snprintf((char *)&buf[buf_len], sizeof(buf)-buf_len,
 907:C:/Users/stapi/OneDrive/Desktop/GD32VW553/GD32VW55X_Wifi_BLE_SDK/GD32VW55x_RELEASE_V1.0.2/MSDK/lwip/libcoap-4.3.4/src\coap_debug.c ****                        "%02x", opt_val[ofs + i]);
 908:C:/Users/stapi/OneDrive/Desktop/GD32VW553/GD32VW55X_Wifi_BLE_SDK/GD32VW55x_RELEASE_V1.0.2/MSDK/lwip/libcoap-4.3.4/src\coap_debug.c ****             }
 909:C:/Users/stapi/OneDrive/Desktop/GD32VW553/GD32VW55X_Wifi_BLE_SDK/GD32VW55x_RELEASE_V1.0.2/MSDK/lwip/libcoap-4.3.4/src\coap_debug.c ****           }
 910:C:/Users/stapi/OneDrive/Desktop/GD32VW553/GD32VW55X_Wifi_BLE_SDK/GD32VW55x_RELEASE_V1.0.2/MSDK/lwip/libcoap-4.3.4/src\coap_debug.c ****         }
 911:C:/Users/stapi/OneDrive/Desktop/GD32VW553/GD32VW55X_Wifi_BLE_SDK/GD32VW55x_RELEASE_V1.0.2/MSDK/lwip/libcoap-4.3.4/src\coap_debug.c **** no_more:
 912:C:/Users/stapi/OneDrive/Desktop/GD32VW553/GD32VW55X_Wifi_BLE_SDK/GD32VW55x_RELEASE_V1.0.2/MSDK/lwip/libcoap-4.3.4/src\coap_debug.c ****         buf_len = strlen((char *)buf);
 913:C:/Users/stapi/OneDrive/Desktop/GD32VW553/GD32VW55X_Wifi_BLE_SDK/GD32VW55x_RELEASE_V1.0.2/MSDK/lwip/libcoap-4.3.4/src\coap_debug.c ****         is_oscore_payload = 1;
 914:C:/Users/stapi/OneDrive/Desktop/GD32VW553/GD32VW55X_Wifi_BLE_SDK/GD32VW55x_RELEASE_V1.0.2/MSDK/lwip/libcoap-4.3.4/src\coap_debug.c ****         break;
 915:C:/Users/stapi/OneDrive/Desktop/GD32VW553/GD32VW55X_Wifi_BLE_SDK/GD32VW55x_RELEASE_V1.0.2/MSDK/lwip/libcoap-4.3.4/src\coap_debug.c **** 
 916:C:/Users/stapi/OneDrive/Desktop/GD32VW553/GD32VW55X_Wifi_BLE_SDK/GD32VW55x_RELEASE_V1.0.2/MSDK/lwip/libcoap-4.3.4/src\coap_debug.c ****       case COAP_OPTION_URI_PORT:
 917:C:/Users/stapi/OneDrive/Desktop/GD32VW553/GD32VW55X_Wifi_BLE_SDK/GD32VW55x_RELEASE_V1.0.2/MSDK/lwip/libcoap-4.3.4/src\coap_debug.c ****       case COAP_OPTION_MAXAGE:
 918:C:/Users/stapi/OneDrive/Desktop/GD32VW553/GD32VW55X_Wifi_BLE_SDK/GD32VW55x_RELEASE_V1.0.2/MSDK/lwip/libcoap-4.3.4/src\coap_debug.c ****       case COAP_OPTION_OBSERVE:
 919:C:/Users/stapi/OneDrive/Desktop/GD32VW553/GD32VW55X_Wifi_BLE_SDK/GD32VW55x_RELEASE_V1.0.2/MSDK/lwip/libcoap-4.3.4/src\coap_debug.c ****       case COAP_OPTION_SIZE1:
 920:C:/Users/stapi/OneDrive/Desktop/GD32VW553/GD32VW55X_Wifi_BLE_SDK/GD32VW55x_RELEASE_V1.0.2/MSDK/lwip/libcoap-4.3.4/src\coap_debug.c ****       case COAP_OPTION_SIZE2:
 921:C:/Users/stapi/OneDrive/Desktop/GD32VW553/GD32VW55X_Wifi_BLE_SDK/GD32VW55x_RELEASE_V1.0.2/MSDK/lwip/libcoap-4.3.4/src\coap_debug.c ****       case COAP_OPTION_HOP_LIMIT:
 922:C:/Users/stapi/OneDrive/Desktop/GD32VW553/GD32VW55X_Wifi_BLE_SDK/GD32VW55x_RELEASE_V1.0.2/MSDK/lwip/libcoap-4.3.4/src\coap_debug.c ****         if (coap_opt_length(option)) {
 923:C:/Users/stapi/OneDrive/Desktop/GD32VW553/GD32VW55X_Wifi_BLE_SDK/GD32VW55x_RELEASE_V1.0.2/MSDK/lwip/libcoap-4.3.4/src\coap_debug.c ****           /* show values as unsigned decimal value */
 924:C:/Users/stapi/OneDrive/Desktop/GD32VW553/GD32VW55X_Wifi_BLE_SDK/GD32VW55x_RELEASE_V1.0.2/MSDK/lwip/libcoap-4.3.4/src\coap_debug.c ****           buf_len = snprintf((char *)buf, sizeof(buf), "%u",
 925:C:/Users/stapi/OneDrive/Desktop/GD32VW553/GD32VW55X_Wifi_BLE_SDK/GD32VW55x_RELEASE_V1.0.2/MSDK/lwip/libcoap-4.3.4/src\coap_debug.c ****                              coap_decode_var_bytes(coap_opt_value(option),
 926:C:/Users/stapi/OneDrive/Desktop/GD32VW553/GD32VW55X_Wifi_BLE_SDK/GD32VW55x_RELEASE_V1.0.2/MSDK/lwip/libcoap-4.3.4/src\coap_debug.c ****                                                    coap_opt_length(option)));
 927:C:/Users/stapi/OneDrive/Desktop/GD32VW553/GD32VW55X_Wifi_BLE_SDK/GD32VW55x_RELEASE_V1.0.2/MSDK/lwip/libcoap-4.3.4/src\coap_debug.c ****         }
 928:C:/Users/stapi/OneDrive/Desktop/GD32VW553/GD32VW55X_Wifi_BLE_SDK/GD32VW55x_RELEASE_V1.0.2/MSDK/lwip/libcoap-4.3.4/src\coap_debug.c ****         break;
 929:C:/Users/stapi/OneDrive/Desktop/GD32VW553/GD32VW55X_Wifi_BLE_SDK/GD32VW55x_RELEASE_V1.0.2/MSDK/lwip/libcoap-4.3.4/src\coap_debug.c **** 
 930:C:/Users/stapi/OneDrive/Desktop/GD32VW553/GD32VW55X_Wifi_BLE_SDK/GD32VW55x_RELEASE_V1.0.2/MSDK/lwip/libcoap-4.3.4/src\coap_debug.c ****       case COAP_OPTION_IF_MATCH:
 931:C:/Users/stapi/OneDrive/Desktop/GD32VW553/GD32VW55X_Wifi_BLE_SDK/GD32VW55x_RELEASE_V1.0.2/MSDK/lwip/libcoap-4.3.4/src\coap_debug.c ****       case COAP_OPTION_ETAG:
 932:C:/Users/stapi/OneDrive/Desktop/GD32VW553/GD32VW55X_Wifi_BLE_SDK/GD32VW55x_RELEASE_V1.0.2/MSDK/lwip/libcoap-4.3.4/src\coap_debug.c ****       case COAP_OPTION_ECHO:
 933:C:/Users/stapi/OneDrive/Desktop/GD32VW553/GD32VW55X_Wifi_BLE_SDK/GD32VW55x_RELEASE_V1.0.2/MSDK/lwip/libcoap-4.3.4/src\coap_debug.c ****       case COAP_OPTION_NORESPONSE:
 934:C:/Users/stapi/OneDrive/Desktop/GD32VW553/GD32VW55X_Wifi_BLE_SDK/GD32VW55x_RELEASE_V1.0.2/MSDK/lwip/libcoap-4.3.4/src\coap_debug.c ****       case COAP_OPTION_RTAG:
 935:C:/Users/stapi/OneDrive/Desktop/GD32VW553/GD32VW55X_Wifi_BLE_SDK/GD32VW55x_RELEASE_V1.0.2/MSDK/lwip/libcoap-4.3.4/src\coap_debug.c ****         opt_len = coap_opt_length(option);
 936:C:/Users/stapi/OneDrive/Desktop/GD32VW553/GD32VW55X_Wifi_BLE_SDK/GD32VW55x_RELEASE_V1.0.2/MSDK/lwip/libcoap-4.3.4/src\coap_debug.c ****         opt_val = coap_opt_value(option);
 937:C:/Users/stapi/OneDrive/Desktop/GD32VW553/GD32VW55X_Wifi_BLE_SDK/GD32VW55x_RELEASE_V1.0.2/MSDK/lwip/libcoap-4.3.4/src\coap_debug.c ****         snprintf((char *)buf, sizeof(buf), "0x");
 938:C:/Users/stapi/OneDrive/Desktop/GD32VW553/GD32VW55X_Wifi_BLE_SDK/GD32VW55x_RELEASE_V1.0.2/MSDK/lwip/libcoap-4.3.4/src\coap_debug.c ****         for (i = 0; (uint32_t)i < opt_len; i++) {
 939:C:/Users/stapi/OneDrive/Desktop/GD32VW553/GD32VW55X_Wifi_BLE_SDK/GD32VW55x_RELEASE_V1.0.2/MSDK/lwip/libcoap-4.3.4/src\coap_debug.c ****           buf_len = strlen((char *)buf);
 940:C:/Users/stapi/OneDrive/Desktop/GD32VW553/GD32VW55X_Wifi_BLE_SDK/GD32VW55x_RELEASE_V1.0.2/MSDK/lwip/libcoap-4.3.4/src\coap_debug.c ****           snprintf((char *)&buf[buf_len], sizeof(buf)-buf_len,
 941:C:/Users/stapi/OneDrive/Desktop/GD32VW553/GD32VW55X_Wifi_BLE_SDK/GD32VW55x_RELEASE_V1.0.2/MSDK/lwip/libcoap-4.3.4/src\coap_debug.c ****                    "%02x", opt_val[i]);
 942:C:/Users/stapi/OneDrive/Desktop/GD32VW553/GD32VW55X_Wifi_BLE_SDK/GD32VW55x_RELEASE_V1.0.2/MSDK/lwip/libcoap-4.3.4/src\coap_debug.c ****         }
 943:C:/Users/stapi/OneDrive/Desktop/GD32VW553/GD32VW55X_Wifi_BLE_SDK/GD32VW55x_RELEASE_V1.0.2/MSDK/lwip/libcoap-4.3.4/src\coap_debug.c ****         buf_len = strlen((char *)buf);
 944:C:/Users/stapi/OneDrive/Desktop/GD32VW553/GD32VW55X_Wifi_BLE_SDK/GD32VW55x_RELEASE_V1.0.2/MSDK/lwip/libcoap-4.3.4/src\coap_debug.c ****         break;
 945:C:/Users/stapi/OneDrive/Desktop/GD32VW553/GD32VW55X_Wifi_BLE_SDK/GD32VW55x_RELEASE_V1.0.2/MSDK/lwip/libcoap-4.3.4/src\coap_debug.c ****       default:
 946:C:/Users/stapi/OneDrive/Desktop/GD32VW553/GD32VW55X_Wifi_BLE_SDK/GD32VW55x_RELEASE_V1.0.2/MSDK/lwip/libcoap-4.3.4/src\coap_debug.c ****         /* generic output function for all other option types */
 947:C:/Users/stapi/OneDrive/Desktop/GD32VW553/GD32VW55X_Wifi_BLE_SDK/GD32VW55x_RELEASE_V1.0.2/MSDK/lwip/libcoap-4.3.4/src\coap_debug.c ****         if (opt_iter.number == COAP_OPTION_URI_PATH ||
 948:C:/Users/stapi/OneDrive/Desktop/GD32VW553/GD32VW55X_Wifi_BLE_SDK/GD32VW55x_RELEASE_V1.0.2/MSDK/lwip/libcoap-4.3.4/src\coap_debug.c ****             opt_iter.number == COAP_OPTION_PROXY_URI ||
 949:C:/Users/stapi/OneDrive/Desktop/GD32VW553/GD32VW55X_Wifi_BLE_SDK/GD32VW55x_RELEASE_V1.0.2/MSDK/lwip/libcoap-4.3.4/src\coap_debug.c ****             opt_iter.number == COAP_OPTION_URI_HOST ||
 950:C:/Users/stapi/OneDrive/Desktop/GD32VW553/GD32VW55X_Wifi_BLE_SDK/GD32VW55x_RELEASE_V1.0.2/MSDK/lwip/libcoap-4.3.4/src\coap_debug.c ****             opt_iter.number == COAP_OPTION_LOCATION_PATH ||
 951:C:/Users/stapi/OneDrive/Desktop/GD32VW553/GD32VW55X_Wifi_BLE_SDK/GD32VW55x_RELEASE_V1.0.2/MSDK/lwip/libcoap-4.3.4/src\coap_debug.c ****             opt_iter.number == COAP_OPTION_LOCATION_QUERY ||
 952:C:/Users/stapi/OneDrive/Desktop/GD32VW553/GD32VW55X_Wifi_BLE_SDK/GD32VW55x_RELEASE_V1.0.2/MSDK/lwip/libcoap-4.3.4/src\coap_debug.c ****             opt_iter.number == COAP_OPTION_PROXY_SCHEME ||
 953:C:/Users/stapi/OneDrive/Desktop/GD32VW553/GD32VW55X_Wifi_BLE_SDK/GD32VW55x_RELEASE_V1.0.2/MSDK/lwip/libcoap-4.3.4/src\coap_debug.c ****             opt_iter.number == COAP_OPTION_URI_QUERY) {
 954:C:/Users/stapi/OneDrive/Desktop/GD32VW553/GD32VW55X_Wifi_BLE_SDK/GD32VW55x_RELEASE_V1.0.2/MSDK/lwip/libcoap-4.3.4/src\coap_debug.c ****           encode = 0;
 955:C:/Users/stapi/OneDrive/Desktop/GD32VW553/GD32VW55X_Wifi_BLE_SDK/GD32VW55x_RELEASE_V1.0.2/MSDK/lwip/libcoap-4.3.4/src\coap_debug.c ****         } else {
 956:C:/Users/stapi/OneDrive/Desktop/GD32VW553/GD32VW55X_Wifi_BLE_SDK/GD32VW55x_RELEASE_V1.0.2/MSDK/lwip/libcoap-4.3.4/src\coap_debug.c ****           encode = 1;
 957:C:/Users/stapi/OneDrive/Desktop/GD32VW553/GD32VW55X_Wifi_BLE_SDK/GD32VW55x_RELEASE_V1.0.2/MSDK/lwip/libcoap-4.3.4/src\coap_debug.c ****         }
 958:C:/Users/stapi/OneDrive/Desktop/GD32VW553/GD32VW55X_Wifi_BLE_SDK/GD32VW55x_RELEASE_V1.0.2/MSDK/lwip/libcoap-4.3.4/src\coap_debug.c ****         buf_len = print_readable(coap_opt_value(option),
 959:C:/Users/stapi/OneDrive/Desktop/GD32VW553/GD32VW55X_Wifi_BLE_SDK/GD32VW55x_RELEASE_V1.0.2/MSDK/lwip/libcoap-4.3.4/src\coap_debug.c ****                                  coap_opt_length(option),
 960:C:/Users/stapi/OneDrive/Desktop/GD32VW553/GD32VW55X_Wifi_BLE_SDK/GD32VW55x_RELEASE_V1.0.2/MSDK/lwip/libcoap-4.3.4/src\coap_debug.c ****                                  buf, sizeof(buf), encode);
 961:C:/Users/stapi/OneDrive/Desktop/GD32VW553/GD32VW55X_Wifi_BLE_SDK/GD32VW55x_RELEASE_V1.0.2/MSDK/lwip/libcoap-4.3.4/src\coap_debug.c ****       }
 962:C:/Users/stapi/OneDrive/Desktop/GD32VW553/GD32VW55X_Wifi_BLE_SDK/GD32VW55x_RELEASE_V1.0.2/MSDK/lwip/libcoap-4.3.4/src\coap_debug.c ****     }
 963:C:/Users/stapi/OneDrive/Desktop/GD32VW553/GD32VW55X_Wifi_BLE_SDK/GD32VW55x_RELEASE_V1.0.2/MSDK/lwip/libcoap-4.3.4/src\coap_debug.c ****     outbuflen = strlen(outbuf);
 964:C:/Users/stapi/OneDrive/Desktop/GD32VW553/GD32VW55X_Wifi_BLE_SDK/GD32VW55x_RELEASE_V1.0.2/MSDK/lwip/libcoap-4.3.4/src\coap_debug.c ****     snprintf(&outbuf[outbuflen], sizeof(outbuf)-outbuflen,
 965:C:/Users/stapi/OneDrive/Desktop/GD32VW553/GD32VW55X_Wifi_BLE_SDK/GD32VW55x_RELEASE_V1.0.2/MSDK/lwip/libcoap-4.3.4/src\coap_debug.c ****              " %s:%.*s", msg_option_string(pdu->code, opt_iter.number),
 966:C:/Users/stapi/OneDrive/Desktop/GD32VW553/GD32VW55X_Wifi_BLE_SDK/GD32VW55x_RELEASE_V1.0.2/MSDK/lwip/libcoap-4.3.4/src\coap_debug.c ****              (int)buf_len, buf);
 967:C:/Users/stapi/OneDrive/Desktop/GD32VW553/GD32VW55X_Wifi_BLE_SDK/GD32VW55x_RELEASE_V1.0.2/MSDK/lwip/libcoap-4.3.4/src\coap_debug.c ****   }
 968:C:/Users/stapi/OneDrive/Desktop/GD32VW553/GD32VW55X_Wifi_BLE_SDK/GD32VW55x_RELEASE_V1.0.2/MSDK/lwip/libcoap-4.3.4/src\coap_debug.c **** 
 969:C:/Users/stapi/OneDrive/Desktop/GD32VW553/GD32VW55X_Wifi_BLE_SDK/GD32VW55x_RELEASE_V1.0.2/MSDK/lwip/libcoap-4.3.4/src\coap_debug.c ****   outbuflen = strlen(outbuf);
 970:C:/Users/stapi/OneDrive/Desktop/GD32VW553/GD32VW55X_Wifi_BLE_SDK/GD32VW55x_RELEASE_V1.0.2/MSDK/lwip/libcoap-4.3.4/src\coap_debug.c ****   snprintf(&outbuf[outbuflen], sizeof(outbuf)-outbuflen,  " ]");
 971:C:/Users/stapi/OneDrive/Desktop/GD32VW553/GD32VW55X_Wifi_BLE_SDK/GD32VW55x_RELEASE_V1.0.2/MSDK/lwip/libcoap-4.3.4/src\coap_debug.c **** 
 972:C:/Users/stapi/OneDrive/Desktop/GD32VW553/GD32VW55X_Wifi_BLE_SDK/GD32VW55x_RELEASE_V1.0.2/MSDK/lwip/libcoap-4.3.4/src\coap_debug.c ****   if (coap_get_data(pdu, &data_len, &data)) {
 973:C:/Users/stapi/OneDrive/Desktop/GD32VW553/GD32VW55X_Wifi_BLE_SDK/GD32VW55x_RELEASE_V1.0.2/MSDK/lwip/libcoap-4.3.4/src\coap_debug.c **** 
 974:C:/Users/stapi/OneDrive/Desktop/GD32VW553/GD32VW55X_Wifi_BLE_SDK/GD32VW55x_RELEASE_V1.0.2/MSDK/lwip/libcoap-4.3.4/src\coap_debug.c ****     outbuflen = strlen(outbuf);
 975:C:/Users/stapi/OneDrive/Desktop/GD32VW553/GD32VW55X_Wifi_BLE_SDK/GD32VW55x_RELEASE_V1.0.2/MSDK/lwip/libcoap-4.3.4/src\coap_debug.c ****     snprintf(&outbuf[outbuflen], sizeof(outbuf)-outbuflen,  " :: ");
 976:C:/Users/stapi/OneDrive/Desktop/GD32VW553/GD32VW55X_Wifi_BLE_SDK/GD32VW55x_RELEASE_V1.0.2/MSDK/lwip/libcoap-4.3.4/src\coap_debug.c **** 
 977:C:/Users/stapi/OneDrive/Desktop/GD32VW553/GD32VW55X_Wifi_BLE_SDK/GD32VW55x_RELEASE_V1.0.2/MSDK/lwip/libcoap-4.3.4/src\coap_debug.c ****     if (is_binary(content_format) || !isprint(data[0]) || is_oscore_payload) {
 978:C:/Users/stapi/OneDrive/Desktop/GD32VW553/GD32VW55X_Wifi_BLE_SDK/GD32VW55x_RELEASE_V1.0.2/MSDK/lwip/libcoap-4.3.4/src\coap_debug.c ****       size_t keep_data_len = data_len;
 979:C:/Users/stapi/OneDrive/Desktop/GD32VW553/GD32VW55X_Wifi_BLE_SDK/GD32VW55x_RELEASE_V1.0.2/MSDK/lwip/libcoap-4.3.4/src\coap_debug.c ****       const uint8_t *keep_data = data;
 980:C:/Users/stapi/OneDrive/Desktop/GD32VW553/GD32VW55X_Wifi_BLE_SDK/GD32VW55x_RELEASE_V1.0.2/MSDK/lwip/libcoap-4.3.4/src\coap_debug.c **** 
 981:C:/Users/stapi/OneDrive/Desktop/GD32VW553/GD32VW55X_Wifi_BLE_SDK/GD32VW55x_RELEASE_V1.0.2/MSDK/lwip/libcoap-4.3.4/src\coap_debug.c ****       outbuflen = strlen(outbuf);
 982:C:/Users/stapi/OneDrive/Desktop/GD32VW553/GD32VW55X_Wifi_BLE_SDK/GD32VW55x_RELEASE_V1.0.2/MSDK/lwip/libcoap-4.3.4/src\coap_debug.c ****       snprintf(&outbuf[outbuflen], sizeof(outbuf)-outbuflen,
 983:C:/Users/stapi/OneDrive/Desktop/GD32VW553/GD32VW55X_Wifi_BLE_SDK/GD32VW55x_RELEASE_V1.0.2/MSDK/lwip/libcoap-4.3.4/src\coap_debug.c ****                "binary data length %zu\n", data_len);
 984:C:/Users/stapi/OneDrive/Desktop/GD32VW553/GD32VW55X_Wifi_BLE_SDK/GD32VW55x_RELEASE_V1.0.2/MSDK/lwip/libcoap-4.3.4/src\coap_debug.c ****       COAP_DO_SHOW_OUTPUT_LINE;
 985:C:/Users/stapi/OneDrive/Desktop/GD32VW553/GD32VW55X_Wifi_BLE_SDK/GD32VW55x_RELEASE_V1.0.2/MSDK/lwip/libcoap-4.3.4/src\coap_debug.c ****       /*
 986:C:/Users/stapi/OneDrive/Desktop/GD32VW553/GD32VW55X_Wifi_BLE_SDK/GD32VW55x_RELEASE_V1.0.2/MSDK/lwip/libcoap-4.3.4/src\coap_debug.c ****        * Output hex dump of binary data as a continuous entry
 987:C:/Users/stapi/OneDrive/Desktop/GD32VW553/GD32VW55X_Wifi_BLE_SDK/GD32VW55x_RELEASE_V1.0.2/MSDK/lwip/libcoap-4.3.4/src\coap_debug.c ****        */
 988:C:/Users/stapi/OneDrive/Desktop/GD32VW553/GD32VW55X_Wifi_BLE_SDK/GD32VW55x_RELEASE_V1.0.2/MSDK/lwip/libcoap-4.3.4/src\coap_debug.c ****       outbuf[0] = '\000';
 989:C:/Users/stapi/OneDrive/Desktop/GD32VW553/GD32VW55X_Wifi_BLE_SDK/GD32VW55x_RELEASE_V1.0.2/MSDK/lwip/libcoap-4.3.4/src\coap_debug.c ****       snprintf(outbuf, sizeof(outbuf),  "<<");
 990:C:/Users/stapi/OneDrive/Desktop/GD32VW553/GD32VW55X_Wifi_BLE_SDK/GD32VW55x_RELEASE_V1.0.2/MSDK/lwip/libcoap-4.3.4/src\coap_debug.c ****       while (data_len--) {
 991:C:/Users/stapi/OneDrive/Desktop/GD32VW553/GD32VW55X_Wifi_BLE_SDK/GD32VW55x_RELEASE_V1.0.2/MSDK/lwip/libcoap-4.3.4/src\coap_debug.c ****         outbuflen = strlen(outbuf);
 992:C:/Users/stapi/OneDrive/Desktop/GD32VW553/GD32VW55X_Wifi_BLE_SDK/GD32VW55x_RELEASE_V1.0.2/MSDK/lwip/libcoap-4.3.4/src\coap_debug.c ****         snprintf(&outbuf[outbuflen], sizeof(outbuf)-outbuflen,
 993:C:/Users/stapi/OneDrive/Desktop/GD32VW553/GD32VW55X_Wifi_BLE_SDK/GD32VW55x_RELEASE_V1.0.2/MSDK/lwip/libcoap-4.3.4/src\coap_debug.c ****                  "%02x", *data++);
 994:C:/Users/stapi/OneDrive/Desktop/GD32VW553/GD32VW55X_Wifi_BLE_SDK/GD32VW55x_RELEASE_V1.0.2/MSDK/lwip/libcoap-4.3.4/src\coap_debug.c ****       }
 995:C:/Users/stapi/OneDrive/Desktop/GD32VW553/GD32VW55X_Wifi_BLE_SDK/GD32VW55x_RELEASE_V1.0.2/MSDK/lwip/libcoap-4.3.4/src\coap_debug.c ****       outbuflen = strlen(outbuf);
 996:C:/Users/stapi/OneDrive/Desktop/GD32VW553/GD32VW55X_Wifi_BLE_SDK/GD32VW55x_RELEASE_V1.0.2/MSDK/lwip/libcoap-4.3.4/src\coap_debug.c ****       snprintf(&outbuf[outbuflen], sizeof(outbuf)-outbuflen,  ">>");
 997:C:/Users/stapi/OneDrive/Desktop/GD32VW553/GD32VW55X_Wifi_BLE_SDK/GD32VW55x_RELEASE_V1.0.2/MSDK/lwip/libcoap-4.3.4/src\coap_debug.c ****       data_len = keep_data_len;
 998:C:/Users/stapi/OneDrive/Desktop/GD32VW553/GD32VW55X_Wifi_BLE_SDK/GD32VW55x_RELEASE_V1.0.2/MSDK/lwip/libcoap-4.3.4/src\coap_debug.c ****       data = keep_data;
 999:C:/Users/stapi/OneDrive/Desktop/GD32VW553/GD32VW55X_Wifi_BLE_SDK/GD32VW55x_RELEASE_V1.0.2/MSDK/lwip/libcoap-4.3.4/src\coap_debug.c ****       outbuflen = strlen(outbuf);
1000:C:/Users/stapi/OneDrive/Desktop/GD32VW553/GD32VW55X_Wifi_BLE_SDK/GD32VW55x_RELEASE_V1.0.2/MSDK/lwip/libcoap-4.3.4/src\coap_debug.c ****       if (outbuflen == sizeof(outbuf)-1)
1001:C:/Users/stapi/OneDrive/Desktop/GD32VW553/GD32VW55X_Wifi_BLE_SDK/GD32VW55x_RELEASE_V1.0.2/MSDK/lwip/libcoap-4.3.4/src\coap_debug.c ****         outbuflen--;
1002:C:/Users/stapi/OneDrive/Desktop/GD32VW553/GD32VW55X_Wifi_BLE_SDK/GD32VW55x_RELEASE_V1.0.2/MSDK/lwip/libcoap-4.3.4/src\coap_debug.c ****       snprintf(&outbuf[outbuflen], sizeof(outbuf)-outbuflen,  "\n");
1003:C:/Users/stapi/OneDrive/Desktop/GD32VW553/GD32VW55X_Wifi_BLE_SDK/GD32VW55x_RELEASE_V1.0.2/MSDK/lwip/libcoap-4.3.4/src\coap_debug.c ****       COAP_DO_SHOW_OUTPUT_LINE;
1004:C:/Users/stapi/OneDrive/Desktop/GD32VW553/GD32VW55X_Wifi_BLE_SDK/GD32VW55x_RELEASE_V1.0.2/MSDK/lwip/libcoap-4.3.4/src\coap_debug.c ****       /*
1005:C:/Users/stapi/OneDrive/Desktop/GD32VW553/GD32VW55X_Wifi_BLE_SDK/GD32VW55x_RELEASE_V1.0.2/MSDK/lwip/libcoap-4.3.4/src\coap_debug.c ****        * Output ascii readable (if possible), immediately under the
1006:C:/Users/stapi/OneDrive/Desktop/GD32VW553/GD32VW55X_Wifi_BLE_SDK/GD32VW55x_RELEASE_V1.0.2/MSDK/lwip/libcoap-4.3.4/src\coap_debug.c ****        * hex value of the character output above to help binary debugging
1007:C:/Users/stapi/OneDrive/Desktop/GD32VW553/GD32VW55X_Wifi_BLE_SDK/GD32VW55x_RELEASE_V1.0.2/MSDK/lwip/libcoap-4.3.4/src\coap_debug.c ****        */
1008:C:/Users/stapi/OneDrive/Desktop/GD32VW553/GD32VW55X_Wifi_BLE_SDK/GD32VW55x_RELEASE_V1.0.2/MSDK/lwip/libcoap-4.3.4/src\coap_debug.c ****       outbuf[0] = '\000';
1009:C:/Users/stapi/OneDrive/Desktop/GD32VW553/GD32VW55X_Wifi_BLE_SDK/GD32VW55x_RELEASE_V1.0.2/MSDK/lwip/libcoap-4.3.4/src\coap_debug.c ****       snprintf(outbuf, sizeof(outbuf),  "<<");
1010:C:/Users/stapi/OneDrive/Desktop/GD32VW553/GD32VW55X_Wifi_BLE_SDK/GD32VW55x_RELEASE_V1.0.2/MSDK/lwip/libcoap-4.3.4/src\coap_debug.c ****       while (data_len--) {
1011:C:/Users/stapi/OneDrive/Desktop/GD32VW553/GD32VW55X_Wifi_BLE_SDK/GD32VW55x_RELEASE_V1.0.2/MSDK/lwip/libcoap-4.3.4/src\coap_debug.c ****         outbuflen = strlen(outbuf);
1012:C:/Users/stapi/OneDrive/Desktop/GD32VW553/GD32VW55X_Wifi_BLE_SDK/GD32VW55x_RELEASE_V1.0.2/MSDK/lwip/libcoap-4.3.4/src\coap_debug.c ****         snprintf(&outbuf[outbuflen], sizeof(outbuf)-outbuflen,
1013:C:/Users/stapi/OneDrive/Desktop/GD32VW553/GD32VW55X_Wifi_BLE_SDK/GD32VW55x_RELEASE_V1.0.2/MSDK/lwip/libcoap-4.3.4/src\coap_debug.c ****                  "%c ", isprint(*data) ? *data : '.');
1014:C:/Users/stapi/OneDrive/Desktop/GD32VW553/GD32VW55X_Wifi_BLE_SDK/GD32VW55x_RELEASE_V1.0.2/MSDK/lwip/libcoap-4.3.4/src\coap_debug.c ****         data++;
1015:C:/Users/stapi/OneDrive/Desktop/GD32VW553/GD32VW55X_Wifi_BLE_SDK/GD32VW55x_RELEASE_V1.0.2/MSDK/lwip/libcoap-4.3.4/src\coap_debug.c ****       }
1016:C:/Users/stapi/OneDrive/Desktop/GD32VW553/GD32VW55X_Wifi_BLE_SDK/GD32VW55x_RELEASE_V1.0.2/MSDK/lwip/libcoap-4.3.4/src\coap_debug.c ****       outbuflen = strlen(outbuf);
1017:C:/Users/stapi/OneDrive/Desktop/GD32VW553/GD32VW55X_Wifi_BLE_SDK/GD32VW55x_RELEASE_V1.0.2/MSDK/lwip/libcoap-4.3.4/src\coap_debug.c ****       snprintf(&outbuf[outbuflen], sizeof(outbuf)-outbuflen,  ">>");
1018:C:/Users/stapi/OneDrive/Desktop/GD32VW553/GD32VW55X_Wifi_BLE_SDK/GD32VW55x_RELEASE_V1.0.2/MSDK/lwip/libcoap-4.3.4/src\coap_debug.c ****     } else {
1019:C:/Users/stapi/OneDrive/Desktop/GD32VW553/GD32VW55X_Wifi_BLE_SDK/GD32VW55x_RELEASE_V1.0.2/MSDK/lwip/libcoap-4.3.4/src\coap_debug.c ****       size_t max_length;
1020:C:/Users/stapi/OneDrive/Desktop/GD32VW553/GD32VW55X_Wifi_BLE_SDK/GD32VW55x_RELEASE_V1.0.2/MSDK/lwip/libcoap-4.3.4/src\coap_debug.c **** 
1021:C:/Users/stapi/OneDrive/Desktop/GD32VW553/GD32VW55X_Wifi_BLE_SDK/GD32VW55x_RELEASE_V1.0.2/MSDK/lwip/libcoap-4.3.4/src\coap_debug.c ****       outbuflen = strlen(outbuf);
1022:C:/Users/stapi/OneDrive/Desktop/GD32VW553/GD32VW55X_Wifi_BLE_SDK/GD32VW55x_RELEASE_V1.0.2/MSDK/lwip/libcoap-4.3.4/src\coap_debug.c ****       max_length = sizeof(outbuf)-outbuflen;
1023:C:/Users/stapi/OneDrive/Desktop/GD32VW553/GD32VW55X_Wifi_BLE_SDK/GD32VW55x_RELEASE_V1.0.2/MSDK/lwip/libcoap-4.3.4/src\coap_debug.c ****       if (max_length > 1) {
1024:C:/Users/stapi/OneDrive/Desktop/GD32VW553/GD32VW55X_Wifi_BLE_SDK/GD32VW55x_RELEASE_V1.0.2/MSDK/lwip/libcoap-4.3.4/src\coap_debug.c ****         outbuf[outbuflen++] = '\'';
1025:C:/Users/stapi/OneDrive/Desktop/GD32VW553/GD32VW55X_Wifi_BLE_SDK/GD32VW55x_RELEASE_V1.0.2/MSDK/lwip/libcoap-4.3.4/src\coap_debug.c ****         outbuf[outbuflen] = '\000';
1026:C:/Users/stapi/OneDrive/Desktop/GD32VW553/GD32VW55X_Wifi_BLE_SDK/GD32VW55x_RELEASE_V1.0.2/MSDK/lwip/libcoap-4.3.4/src\coap_debug.c ****         max_length--;
1027:C:/Users/stapi/OneDrive/Desktop/GD32VW553/GD32VW55X_Wifi_BLE_SDK/GD32VW55x_RELEASE_V1.0.2/MSDK/lwip/libcoap-4.3.4/src\coap_debug.c ****       }
1028:C:/Users/stapi/OneDrive/Desktop/GD32VW553/GD32VW55X_Wifi_BLE_SDK/GD32VW55x_RELEASE_V1.0.2/MSDK/lwip/libcoap-4.3.4/src\coap_debug.c ****       if (max_length > 1) {
1029:C:/Users/stapi/OneDrive/Desktop/GD32VW553/GD32VW55X_Wifi_BLE_SDK/GD32VW55x_RELEASE_V1.0.2/MSDK/lwip/libcoap-4.3.4/src\coap_debug.c ****         outbuflen += print_readable(data, data_len,
1030:C:/Users/stapi/OneDrive/Desktop/GD32VW553/GD32VW55X_Wifi_BLE_SDK/GD32VW55x_RELEASE_V1.0.2/MSDK/lwip/libcoap-4.3.4/src\coap_debug.c ****                                     (unsigned char *)&outbuf[outbuflen],
1031:C:/Users/stapi/OneDrive/Desktop/GD32VW553/GD32VW55X_Wifi_BLE_SDK/GD32VW55x_RELEASE_V1.0.2/MSDK/lwip/libcoap-4.3.4/src\coap_debug.c ****                                     max_length, 0);
1032:C:/Users/stapi/OneDrive/Desktop/GD32VW553/GD32VW55X_Wifi_BLE_SDK/GD32VW55x_RELEASE_V1.0.2/MSDK/lwip/libcoap-4.3.4/src\coap_debug.c ****       }
1033:C:/Users/stapi/OneDrive/Desktop/GD32VW553/GD32VW55X_Wifi_BLE_SDK/GD32VW55x_RELEASE_V1.0.2/MSDK/lwip/libcoap-4.3.4/src\coap_debug.c ****       /* print_readable may be handling unprintables - hence headroom of 4 */
1034:C:/Users/stapi/OneDrive/Desktop/GD32VW553/GD32VW55X_Wifi_BLE_SDK/GD32VW55x_RELEASE_V1.0.2/MSDK/lwip/libcoap-4.3.4/src\coap_debug.c ****       if (outbuflen < sizeof(outbuf)-4-1) {
1035:C:/Users/stapi/OneDrive/Desktop/GD32VW553/GD32VW55X_Wifi_BLE_SDK/GD32VW55x_RELEASE_V1.0.2/MSDK/lwip/libcoap-4.3.4/src\coap_debug.c ****         outbuf[outbuflen++] = '\'';
1036:C:/Users/stapi/OneDrive/Desktop/GD32VW553/GD32VW55X_Wifi_BLE_SDK/GD32VW55x_RELEASE_V1.0.2/MSDK/lwip/libcoap-4.3.4/src\coap_debug.c ****         outbuf[outbuflen] = '\000';
1037:C:/Users/stapi/OneDrive/Desktop/GD32VW553/GD32VW55X_Wifi_BLE_SDK/GD32VW55x_RELEASE_V1.0.2/MSDK/lwip/libcoap-4.3.4/src\coap_debug.c ****       }
1038:C:/Users/stapi/OneDrive/Desktop/GD32VW553/GD32VW55X_Wifi_BLE_SDK/GD32VW55x_RELEASE_V1.0.2/MSDK/lwip/libcoap-4.3.4/src\coap_debug.c ****     }
1039:C:/Users/stapi/OneDrive/Desktop/GD32VW553/GD32VW55X_Wifi_BLE_SDK/GD32VW55x_RELEASE_V1.0.2/MSDK/lwip/libcoap-4.3.4/src\coap_debug.c ****   }
1040:C:/Users/stapi/OneDrive/Desktop/GD32VW553/GD32VW55X_Wifi_BLE_SDK/GD32VW55x_RELEASE_V1.0.2/MSDK/lwip/libcoap-4.3.4/src\coap_debug.c **** 
1041:C:/Users/stapi/OneDrive/Desktop/GD32VW553/GD32VW55X_Wifi_BLE_SDK/GD32VW55x_RELEASE_V1.0.2/MSDK/lwip/libcoap-4.3.4/src\coap_debug.c ****   outbuflen = strlen(outbuf);
1042:C:/Users/stapi/OneDrive/Desktop/GD32VW553/GD32VW55X_Wifi_BLE_SDK/GD32VW55x_RELEASE_V1.0.2/MSDK/lwip/libcoap-4.3.4/src\coap_debug.c ****   if (outbuflen == sizeof(outbuf)-1)
1043:C:/Users/stapi/OneDrive/Desktop/GD32VW553/GD32VW55X_Wifi_BLE_SDK/GD32VW55x_RELEASE_V1.0.2/MSDK/lwip/libcoap-4.3.4/src\coap_debug.c ****     outbuflen--;
1044:C:/Users/stapi/OneDrive/Desktop/GD32VW553/GD32VW55X_Wifi_BLE_SDK/GD32VW55x_RELEASE_V1.0.2/MSDK/lwip/libcoap-4.3.4/src\coap_debug.c ****   snprintf(&outbuf[outbuflen], sizeof(outbuf)-outbuflen,  "\n");
1045:C:/Users/stapi/OneDrive/Desktop/GD32VW553/GD32VW55X_Wifi_BLE_SDK/GD32VW55x_RELEASE_V1.0.2/MSDK/lwip/libcoap-4.3.4/src\coap_debug.c ****   COAP_DO_SHOW_OUTPUT_LINE;
1046:C:/Users/stapi/OneDrive/Desktop/GD32VW553/GD32VW55X_Wifi_BLE_SDK/GD32VW55x_RELEASE_V1.0.2/MSDK/lwip/libcoap-4.3.4/src\coap_debug.c **** 
1047:C:/Users/stapi/OneDrive/Desktop/GD32VW553/GD32VW55X_Wifi_BLE_SDK/GD32VW55x_RELEASE_V1.0.2/MSDK/lwip/libcoap-4.3.4/src\coap_debug.c **** #if COAP_CONSTRAINED_STACK
1048:C:/Users/stapi/OneDrive/Desktop/GD32VW553/GD32VW55X_Wifi_BLE_SDK/GD32VW55x_RELEASE_V1.0.2/MSDK/lwip/libcoap-4.3.4/src\coap_debug.c ****   coap_mutex_unlock(&m_show_pdu);
1049:C:/Users/stapi/OneDrive/Desktop/GD32VW553/GD32VW55X_Wifi_BLE_SDK/GD32VW55x_RELEASE_V1.0.2/MSDK/lwip/libcoap-4.3.4/src\coap_debug.c **** #endif /* COAP_CONSTRAINED_STACK */
1050:C:/Users/stapi/OneDrive/Desktop/GD32VW553/GD32VW55X_Wifi_BLE_SDK/GD32VW55x_RELEASE_V1.0.2/MSDK/lwip/libcoap-4.3.4/src\coap_debug.c **** }
1051:C:/Users/stapi/OneDrive/Desktop/GD32VW553/GD32VW55X_Wifi_BLE_SDK/GD32VW55x_RELEASE_V1.0.2/MSDK/lwip/libcoap-4.3.4/src\coap_debug.c **** 
1052:C:/Users/stapi/OneDrive/Desktop/GD32VW553/GD32VW55X_Wifi_BLE_SDK/GD32VW55x_RELEASE_V1.0.2/MSDK/lwip/libcoap-4.3.4/src\coap_debug.c **** void
1053:C:/Users/stapi/OneDrive/Desktop/GD32VW553/GD32VW55X_Wifi_BLE_SDK/GD32VW55x_RELEASE_V1.0.2/MSDK/lwip/libcoap-4.3.4/src\coap_debug.c **** coap_show_tls_version(coap_log_t level) {
1054:C:/Users/stapi/OneDrive/Desktop/GD32VW553/GD32VW55X_Wifi_BLE_SDK/GD32VW55x_RELEASE_V1.0.2/MSDK/lwip/libcoap-4.3.4/src\coap_debug.c ****   char buffer[128];
1055:C:/Users/stapi/OneDrive/Desktop/GD32VW553/GD32VW55X_Wifi_BLE_SDK/GD32VW55x_RELEASE_V1.0.2/MSDK/lwip/libcoap-4.3.4/src\coap_debug.c ****   coap_string_tls_version(buffer, sizeof(buffer));
1056:C:/Users/stapi/OneDrive/Desktop/GD32VW553/GD32VW55X_Wifi_BLE_SDK/GD32VW55x_RELEASE_V1.0.2/MSDK/lwip/libcoap-4.3.4/src\coap_debug.c ****   coap_log(level, "%s\n", buffer);
1057:C:/Users/stapi/OneDrive/Desktop/GD32VW553/GD32VW55X_Wifi_BLE_SDK/GD32VW55x_RELEASE_V1.0.2/MSDK/lwip/libcoap-4.3.4/src\coap_debug.c **** }
1058:C:/Users/stapi/OneDrive/Desktop/GD32VW553/GD32VW55X_Wifi_BLE_SDK/GD32VW55x_RELEASE_V1.0.2/MSDK/lwip/libcoap-4.3.4/src\coap_debug.c **** 
1059:C:/Users/stapi/OneDrive/Desktop/GD32VW553/GD32VW55X_Wifi_BLE_SDK/GD32VW55x_RELEASE_V1.0.2/MSDK/lwip/libcoap-4.3.4/src\coap_debug.c **** char *
1060:C:/Users/stapi/OneDrive/Desktop/GD32VW553/GD32VW55X_Wifi_BLE_SDK/GD32VW55x_RELEASE_V1.0.2/MSDK/lwip/libcoap-4.3.4/src\coap_debug.c **** coap_string_tls_version(char *buffer, size_t bufsize) {
 587              		.loc 1 1060 55 is_stmt 1
 588              		.cfi_startproc
 589              	.LVL53:
 590 0000 17030000 		call	t0,__riscv_save_3
 590      E7020300 
 591              		.cfi_offset 18, -16
 592              		.cfi_offset 9, -12
 593              		.cfi_offset 8, -8
 594              		.cfi_offset 1, -4
 595              		.cfi_def_cfa_offset 16
1061:C:/Users/stapi/OneDrive/Desktop/GD32VW553/GD32VW55X_Wifi_BLE_SDK/GD32VW55x_RELEASE_V1.0.2/MSDK/lwip/libcoap-4.3.4/src\coap_debug.c ****   coap_tls_version_t *tls_version = coap_get_tls_library_version();
 596              		.loc 1 1061 3
1060:C:/Users/stapi/OneDrive/Desktop/GD32VW553/GD32VW55X_Wifi_BLE_SDK/GD32VW55x_RELEASE_V1.0.2/MSDK/lwip/libcoap-4.3.4/src\coap_debug.c ****   coap_tls_version_t *tls_version = coap_get_tls_library_version();
 597              		.loc 1 1060 55 is_stmt 0
 598 0008 3971     		addi	sp,sp,-64
 599              		.cfi_def_cfa_offset 80
1060:C:/Users/stapi/OneDrive/Desktop/GD32VW553/GD32VW55X_Wifi_BLE_SDK/GD32VW55x_RELEASE_V1.0.2/MSDK/lwip/libcoap-4.3.4/src\coap_debug.c ****   coap_tls_version_t *tls_version = coap_get_tls_library_version();
 600              		.loc 1 1060 55
 601 000a AA84     		mv	s1,a0
 602 000c 2E89     		mv	s2,a1
 603              		.loc 1 1061 37
 604 000e 97000000 		call	coap_get_tls_library_version
 604      E7800000 
 605              	.LVL54:
1062:C:/Users/stapi/OneDrive/Desktop/GD32VW553/GD32VW55X_Wifi_BLE_SDK/GD32VW55x_RELEASE_V1.0.2/MSDK/lwip/libcoap-4.3.4/src\coap_debug.c ****   char beta[8];
 606              		.loc 1 1062 3 is_stmt 1
1063:C:/Users/stapi/OneDrive/Desktop/GD32VW553/GD32VW55X_Wifi_BLE_SDK/GD32VW55x_RELEASE_V1.0.2/MSDK/lwip/libcoap-4.3.4/src\coap_debug.c ****   char sub[2];
 607              		.loc 1 1063 3
1064:C:/Users/stapi/OneDrive/Desktop/GD32VW553/GD32VW55X_Wifi_BLE_SDK/GD32VW55x_RELEASE_V1.0.2/MSDK/lwip/libcoap-4.3.4/src\coap_debug.c ****   char b_beta[8];
 608              		.loc 1 1064 3
1065:C:/Users/stapi/OneDrive/Desktop/GD32VW553/GD32VW55X_Wifi_BLE_SDK/GD32VW55x_RELEASE_V1.0.2/MSDK/lwip/libcoap-4.3.4/src\coap_debug.c ****   char b_sub[2];
 609              		.loc 1 1065 3
1066:C:/Users/stapi/OneDrive/Desktop/GD32VW553/GD32VW55X_Wifi_BLE_SDK/GD32VW55x_RELEASE_V1.0.2/MSDK/lwip/libcoap-4.3.4/src\coap_debug.c **** 
1067:C:/Users/stapi/OneDrive/Desktop/GD32VW553/GD32VW55X_Wifi_BLE_SDK/GD32VW55x_RELEASE_V1.0.2/MSDK/lwip/libcoap-4.3.4/src\coap_debug.c ****   switch (tls_version->type) {
 610              		.loc 1 1067 3
 611              		.loc 1 1067 22 is_stmt 0
 612 0016 1445     		lw	a3,8(a0)
 613 0018 9147     		li	a5,4
 614 001a 63E4D724 		bgtu	a3,a5,.L43
 615 001e B7070000 		lui	a5,%hi(.L45)
 616 0022 93870700 		addi	a5,a5,%lo(.L45)
 617 0026 B3C6F620 		sh2add	a3,a3,a5
 618 002a 9C42     		lw	a5,0(a3)
 619 002c 2A84     		mv	s0,a0
 620 002e 8287     		jr	a5
 621              		.section	.rodata.coap_string_tls_version,"a",@progbits
 622              		.align	2
 623              		.align	2
 624              	.L45:
 625 0000 00000000 		.word	.L49
 626 0004 00000000 		.word	.L48
 627 0008 00000000 		.word	.L47
 628 000c 00000000 		.word	.L46
 629 0010 00000000 		.word	.L44
 630              		.section	.text.coap_string_tls_version
 631              	.L49:
1068:C:/Users/stapi/OneDrive/Desktop/GD32VW553/GD32VW55X_Wifi_BLE_SDK/GD32VW55x_RELEASE_V1.0.2/MSDK/lwip/libcoap-4.3.4/src\coap_debug.c ****   case COAP_TLS_LIBRARY_NOTLS:
1069:C:/Users/stapi/OneDrive/Desktop/GD32VW553/GD32VW55X_Wifi_BLE_SDK/GD32VW55x_RELEASE_V1.0.2/MSDK/lwip/libcoap-4.3.4/src\coap_debug.c ****     snprintf(buffer, bufsize, "TLS Library: None");
 632              		.loc 1 1069 5 is_stmt 1
 633 0030 37060000 		lui	a2,%hi(.LC9)
 634 0034 13060600 		addi	a2,a2,%lo(.LC9)
 635 0038 CA85     		mv	a1,s2
 636 003a 2685     		mv	a0,s1
 637              	.LVL55:
 638 003c 97000000 		call	snprintf
 638      E7800000 
 639              	.LVL56:
1070:C:/Users/stapi/OneDrive/Desktop/GD32VW553/GD32VW55X_Wifi_BLE_SDK/GD32VW55x_RELEASE_V1.0.2/MSDK/lwip/libcoap-4.3.4/src\coap_debug.c ****     break;
 640              		.loc 1 1070 5
 641              	.L50:
1071:C:/Users/stapi/OneDrive/Desktop/GD32VW553/GD32VW55X_Wifi_BLE_SDK/GD32VW55x_RELEASE_V1.0.2/MSDK/lwip/libcoap-4.3.4/src\coap_debug.c ****   case COAP_TLS_LIBRARY_TINYDTLS:
1072:C:/Users/stapi/OneDrive/Desktop/GD32VW553/GD32VW55X_Wifi_BLE_SDK/GD32VW55x_RELEASE_V1.0.2/MSDK/lwip/libcoap-4.3.4/src\coap_debug.c ****     snprintf(buffer, bufsize, "TLS Library: TinyDTLS - runtime %lu.%lu.%lu, "
1073:C:/Users/stapi/OneDrive/Desktop/GD32VW553/GD32VW55X_Wifi_BLE_SDK/GD32VW55x_RELEASE_V1.0.2/MSDK/lwip/libcoap-4.3.4/src\coap_debug.c ****              "libcoap built for %lu.%lu.%lu",
1074:C:/Users/stapi/OneDrive/Desktop/GD32VW553/GD32VW55X_Wifi_BLE_SDK/GD32VW55x_RELEASE_V1.0.2/MSDK/lwip/libcoap-4.3.4/src\coap_debug.c ****              (unsigned long)(tls_version->version >> 16),
1075:C:/Users/stapi/OneDrive/Desktop/GD32VW553/GD32VW55X_Wifi_BLE_SDK/GD32VW55x_RELEASE_V1.0.2/MSDK/lwip/libcoap-4.3.4/src\coap_debug.c ****              (unsigned long)((tls_version->version >> 8) & 0xff),
1076:C:/Users/stapi/OneDrive/Desktop/GD32VW553/GD32VW55X_Wifi_BLE_SDK/GD32VW55x_RELEASE_V1.0.2/MSDK/lwip/libcoap-4.3.4/src\coap_debug.c ****              (unsigned long)(tls_version->version & 0xff),
1077:C:/Users/stapi/OneDrive/Desktop/GD32VW553/GD32VW55X_Wifi_BLE_SDK/GD32VW55x_RELEASE_V1.0.2/MSDK/lwip/libcoap-4.3.4/src\coap_debug.c ****              (unsigned long)(tls_version->built_version >> 16),
1078:C:/Users/stapi/OneDrive/Desktop/GD32VW553/GD32VW55X_Wifi_BLE_SDK/GD32VW55x_RELEASE_V1.0.2/MSDK/lwip/libcoap-4.3.4/src\coap_debug.c ****              (unsigned long)((tls_version->built_version >> 8) & 0xff),
1079:C:/Users/stapi/OneDrive/Desktop/GD32VW553/GD32VW55X_Wifi_BLE_SDK/GD32VW55x_RELEASE_V1.0.2/MSDK/lwip/libcoap-4.3.4/src\coap_debug.c ****              (unsigned long)(tls_version->built_version & 0xff));
1080:C:/Users/stapi/OneDrive/Desktop/GD32VW553/GD32VW55X_Wifi_BLE_SDK/GD32VW55x_RELEASE_V1.0.2/MSDK/lwip/libcoap-4.3.4/src\coap_debug.c ****     break;
1081:C:/Users/stapi/OneDrive/Desktop/GD32VW553/GD32VW55X_Wifi_BLE_SDK/GD32VW55x_RELEASE_V1.0.2/MSDK/lwip/libcoap-4.3.4/src\coap_debug.c ****   case COAP_TLS_LIBRARY_OPENSSL:
1082:C:/Users/stapi/OneDrive/Desktop/GD32VW553/GD32VW55X_Wifi_BLE_SDK/GD32VW55x_RELEASE_V1.0.2/MSDK/lwip/libcoap-4.3.4/src\coap_debug.c ****     switch (tls_version->version &0xf) {
1083:C:/Users/stapi/OneDrive/Desktop/GD32VW553/GD32VW55X_Wifi_BLE_SDK/GD32VW55x_RELEASE_V1.0.2/MSDK/lwip/libcoap-4.3.4/src\coap_debug.c ****     case 0:
1084:C:/Users/stapi/OneDrive/Desktop/GD32VW553/GD32VW55X_Wifi_BLE_SDK/GD32VW55x_RELEASE_V1.0.2/MSDK/lwip/libcoap-4.3.4/src\coap_debug.c ****       strcpy(beta, "-dev");
1085:C:/Users/stapi/OneDrive/Desktop/GD32VW553/GD32VW55X_Wifi_BLE_SDK/GD32VW55x_RELEASE_V1.0.2/MSDK/lwip/libcoap-4.3.4/src\coap_debug.c ****       break;
1086:C:/Users/stapi/OneDrive/Desktop/GD32VW553/GD32VW55X_Wifi_BLE_SDK/GD32VW55x_RELEASE_V1.0.2/MSDK/lwip/libcoap-4.3.4/src\coap_debug.c ****     case 0xf:
1087:C:/Users/stapi/OneDrive/Desktop/GD32VW553/GD32VW55X_Wifi_BLE_SDK/GD32VW55x_RELEASE_V1.0.2/MSDK/lwip/libcoap-4.3.4/src\coap_debug.c ****       strcpy(beta, "");
1088:C:/Users/stapi/OneDrive/Desktop/GD32VW553/GD32VW55X_Wifi_BLE_SDK/GD32VW55x_RELEASE_V1.0.2/MSDK/lwip/libcoap-4.3.4/src\coap_debug.c ****       break;
1089:C:/Users/stapi/OneDrive/Desktop/GD32VW553/GD32VW55X_Wifi_BLE_SDK/GD32VW55x_RELEASE_V1.0.2/MSDK/lwip/libcoap-4.3.4/src\coap_debug.c ****     default:
1090:C:/Users/stapi/OneDrive/Desktop/GD32VW553/GD32VW55X_Wifi_BLE_SDK/GD32VW55x_RELEASE_V1.0.2/MSDK/lwip/libcoap-4.3.4/src\coap_debug.c ****       strcpy(beta, "-beta");
1091:C:/Users/stapi/OneDrive/Desktop/GD32VW553/GD32VW55X_Wifi_BLE_SDK/GD32VW55x_RELEASE_V1.0.2/MSDK/lwip/libcoap-4.3.4/src\coap_debug.c ****       beta[5] = (tls_version->version &0xf) + '0';
1092:C:/Users/stapi/OneDrive/Desktop/GD32VW553/GD32VW55X_Wifi_BLE_SDK/GD32VW55x_RELEASE_V1.0.2/MSDK/lwip/libcoap-4.3.4/src\coap_debug.c ****       beta[6] = '\000';
1093:C:/Users/stapi/OneDrive/Desktop/GD32VW553/GD32VW55X_Wifi_BLE_SDK/GD32VW55x_RELEASE_V1.0.2/MSDK/lwip/libcoap-4.3.4/src\coap_debug.c ****       break;
1094:C:/Users/stapi/OneDrive/Desktop/GD32VW553/GD32VW55X_Wifi_BLE_SDK/GD32VW55x_RELEASE_V1.0.2/MSDK/lwip/libcoap-4.3.4/src\coap_debug.c ****     }
1095:C:/Users/stapi/OneDrive/Desktop/GD32VW553/GD32VW55X_Wifi_BLE_SDK/GD32VW55x_RELEASE_V1.0.2/MSDK/lwip/libcoap-4.3.4/src\coap_debug.c ****     sub[0] = ((tls_version->version >> 4) & 0xff) ?
1096:C:/Users/stapi/OneDrive/Desktop/GD32VW553/GD32VW55X_Wifi_BLE_SDK/GD32VW55x_RELEASE_V1.0.2/MSDK/lwip/libcoap-4.3.4/src\coap_debug.c ****              ((tls_version->version >> 4) & 0xff) + 'a' -1 : '\000';
1097:C:/Users/stapi/OneDrive/Desktop/GD32VW553/GD32VW55X_Wifi_BLE_SDK/GD32VW55x_RELEASE_V1.0.2/MSDK/lwip/libcoap-4.3.4/src\coap_debug.c ****     sub[1] = '\000';
1098:C:/Users/stapi/OneDrive/Desktop/GD32VW553/GD32VW55X_Wifi_BLE_SDK/GD32VW55x_RELEASE_V1.0.2/MSDK/lwip/libcoap-4.3.4/src\coap_debug.c ****     switch (tls_version->built_version &0xf) {
1099:C:/Users/stapi/OneDrive/Desktop/GD32VW553/GD32VW55X_Wifi_BLE_SDK/GD32VW55x_RELEASE_V1.0.2/MSDK/lwip/libcoap-4.3.4/src\coap_debug.c ****     case 0:
1100:C:/Users/stapi/OneDrive/Desktop/GD32VW553/GD32VW55X_Wifi_BLE_SDK/GD32VW55x_RELEASE_V1.0.2/MSDK/lwip/libcoap-4.3.4/src\coap_debug.c ****       strcpy(b_beta, "-dev");
1101:C:/Users/stapi/OneDrive/Desktop/GD32VW553/GD32VW55X_Wifi_BLE_SDK/GD32VW55x_RELEASE_V1.0.2/MSDK/lwip/libcoap-4.3.4/src\coap_debug.c ****       break;
1102:C:/Users/stapi/OneDrive/Desktop/GD32VW553/GD32VW55X_Wifi_BLE_SDK/GD32VW55x_RELEASE_V1.0.2/MSDK/lwip/libcoap-4.3.4/src\coap_debug.c ****     case 0xf:
1103:C:/Users/stapi/OneDrive/Desktop/GD32VW553/GD32VW55X_Wifi_BLE_SDK/GD32VW55x_RELEASE_V1.0.2/MSDK/lwip/libcoap-4.3.4/src\coap_debug.c ****       strcpy(b_beta, "");
1104:C:/Users/stapi/OneDrive/Desktop/GD32VW553/GD32VW55X_Wifi_BLE_SDK/GD32VW55x_RELEASE_V1.0.2/MSDK/lwip/libcoap-4.3.4/src\coap_debug.c ****       break;
1105:C:/Users/stapi/OneDrive/Desktop/GD32VW553/GD32VW55X_Wifi_BLE_SDK/GD32VW55x_RELEASE_V1.0.2/MSDK/lwip/libcoap-4.3.4/src\coap_debug.c ****     default:
1106:C:/Users/stapi/OneDrive/Desktop/GD32VW553/GD32VW55X_Wifi_BLE_SDK/GD32VW55x_RELEASE_V1.0.2/MSDK/lwip/libcoap-4.3.4/src\coap_debug.c ****       strcpy(b_beta, "-beta");
1107:C:/Users/stapi/OneDrive/Desktop/GD32VW553/GD32VW55X_Wifi_BLE_SDK/GD32VW55x_RELEASE_V1.0.2/MSDK/lwip/libcoap-4.3.4/src\coap_debug.c ****       b_beta[5] = (tls_version->built_version &0xf) + '0';
1108:C:/Users/stapi/OneDrive/Desktop/GD32VW553/GD32VW55X_Wifi_BLE_SDK/GD32VW55x_RELEASE_V1.0.2/MSDK/lwip/libcoap-4.3.4/src\coap_debug.c ****       b_beta[6] = '\000';
1109:C:/Users/stapi/OneDrive/Desktop/GD32VW553/GD32VW55X_Wifi_BLE_SDK/GD32VW55x_RELEASE_V1.0.2/MSDK/lwip/libcoap-4.3.4/src\coap_debug.c ****       break;
1110:C:/Users/stapi/OneDrive/Desktop/GD32VW553/GD32VW55X_Wifi_BLE_SDK/GD32VW55x_RELEASE_V1.0.2/MSDK/lwip/libcoap-4.3.4/src\coap_debug.c ****     }
1111:C:/Users/stapi/OneDrive/Desktop/GD32VW553/GD32VW55X_Wifi_BLE_SDK/GD32VW55x_RELEASE_V1.0.2/MSDK/lwip/libcoap-4.3.4/src\coap_debug.c ****     b_sub[0] = ((tls_version->built_version >> 4) & 0xff) ?
1112:C:/Users/stapi/OneDrive/Desktop/GD32VW553/GD32VW55X_Wifi_BLE_SDK/GD32VW55x_RELEASE_V1.0.2/MSDK/lwip/libcoap-4.3.4/src\coap_debug.c ****                ((tls_version->built_version >> 4) & 0xff) + 'a' -1 : '\000';
1113:C:/Users/stapi/OneDrive/Desktop/GD32VW553/GD32VW55X_Wifi_BLE_SDK/GD32VW55x_RELEASE_V1.0.2/MSDK/lwip/libcoap-4.3.4/src\coap_debug.c ****     b_sub[1] = '\000';
1114:C:/Users/stapi/OneDrive/Desktop/GD32VW553/GD32VW55X_Wifi_BLE_SDK/GD32VW55x_RELEASE_V1.0.2/MSDK/lwip/libcoap-4.3.4/src\coap_debug.c ****     snprintf(buffer, bufsize, "TLS Library: OpenSSL - runtime "
1115:C:/Users/stapi/OneDrive/Desktop/GD32VW553/GD32VW55X_Wifi_BLE_SDK/GD32VW55x_RELEASE_V1.0.2/MSDK/lwip/libcoap-4.3.4/src\coap_debug.c ****              "%lu.%lu.%lu%s%s, libcoap built for %lu.%lu.%lu%s%s",
1116:C:/Users/stapi/OneDrive/Desktop/GD32VW553/GD32VW55X_Wifi_BLE_SDK/GD32VW55x_RELEASE_V1.0.2/MSDK/lwip/libcoap-4.3.4/src\coap_debug.c ****              (unsigned long)(tls_version->version >> 28),
1117:C:/Users/stapi/OneDrive/Desktop/GD32VW553/GD32VW55X_Wifi_BLE_SDK/GD32VW55x_RELEASE_V1.0.2/MSDK/lwip/libcoap-4.3.4/src\coap_debug.c ****              (unsigned long)((tls_version->version >> 20) & 0xff),
1118:C:/Users/stapi/OneDrive/Desktop/GD32VW553/GD32VW55X_Wifi_BLE_SDK/GD32VW55x_RELEASE_V1.0.2/MSDK/lwip/libcoap-4.3.4/src\coap_debug.c ****              (unsigned long)((tls_version->version >> 12) & 0xff), sub, beta,
1119:C:/Users/stapi/OneDrive/Desktop/GD32VW553/GD32VW55X_Wifi_BLE_SDK/GD32VW55x_RELEASE_V1.0.2/MSDK/lwip/libcoap-4.3.4/src\coap_debug.c ****              (unsigned long)(tls_version->built_version >> 28),
1120:C:/Users/stapi/OneDrive/Desktop/GD32VW553/GD32VW55X_Wifi_BLE_SDK/GD32VW55x_RELEASE_V1.0.2/MSDK/lwip/libcoap-4.3.4/src\coap_debug.c ****              (unsigned long)((tls_version->built_version >> 20) & 0xff),
1121:C:/Users/stapi/OneDrive/Desktop/GD32VW553/GD32VW55X_Wifi_BLE_SDK/GD32VW55x_RELEASE_V1.0.2/MSDK/lwip/libcoap-4.3.4/src\coap_debug.c ****              (unsigned long)((tls_version->built_version >> 12) & 0xff),
1122:C:/Users/stapi/OneDrive/Desktop/GD32VW553/GD32VW55X_Wifi_BLE_SDK/GD32VW55x_RELEASE_V1.0.2/MSDK/lwip/libcoap-4.3.4/src\coap_debug.c ****              b_sub, b_beta);
1123:C:/Users/stapi/OneDrive/Desktop/GD32VW553/GD32VW55X_Wifi_BLE_SDK/GD32VW55x_RELEASE_V1.0.2/MSDK/lwip/libcoap-4.3.4/src\coap_debug.c ****     break;
1124:C:/Users/stapi/OneDrive/Desktop/GD32VW553/GD32VW55X_Wifi_BLE_SDK/GD32VW55x_RELEASE_V1.0.2/MSDK/lwip/libcoap-4.3.4/src\coap_debug.c ****   case COAP_TLS_LIBRARY_GNUTLS:
1125:C:/Users/stapi/OneDrive/Desktop/GD32VW553/GD32VW55X_Wifi_BLE_SDK/GD32VW55x_RELEASE_V1.0.2/MSDK/lwip/libcoap-4.3.4/src\coap_debug.c ****     snprintf(buffer, bufsize, "TLS Library: GnuTLS - runtime %lu.%lu.%lu, "
1126:C:/Users/stapi/OneDrive/Desktop/GD32VW553/GD32VW55X_Wifi_BLE_SDK/GD32VW55x_RELEASE_V1.0.2/MSDK/lwip/libcoap-4.3.4/src\coap_debug.c ****              "libcoap built for %lu.%lu.%lu",
1127:C:/Users/stapi/OneDrive/Desktop/GD32VW553/GD32VW55X_Wifi_BLE_SDK/GD32VW55x_RELEASE_V1.0.2/MSDK/lwip/libcoap-4.3.4/src\coap_debug.c ****              (unsigned long)(tls_version->version >> 16),
1128:C:/Users/stapi/OneDrive/Desktop/GD32VW553/GD32VW55X_Wifi_BLE_SDK/GD32VW55x_RELEASE_V1.0.2/MSDK/lwip/libcoap-4.3.4/src\coap_debug.c ****              (unsigned long)((tls_version->version >> 8) & 0xff),
1129:C:/Users/stapi/OneDrive/Desktop/GD32VW553/GD32VW55X_Wifi_BLE_SDK/GD32VW55x_RELEASE_V1.0.2/MSDK/lwip/libcoap-4.3.4/src\coap_debug.c ****              (unsigned long)(tls_version->version & 0xff),
1130:C:/Users/stapi/OneDrive/Desktop/GD32VW553/GD32VW55X_Wifi_BLE_SDK/GD32VW55x_RELEASE_V1.0.2/MSDK/lwip/libcoap-4.3.4/src\coap_debug.c ****              (unsigned long)(tls_version->built_version >> 16),
1131:C:/Users/stapi/OneDrive/Desktop/GD32VW553/GD32VW55X_Wifi_BLE_SDK/GD32VW55x_RELEASE_V1.0.2/MSDK/lwip/libcoap-4.3.4/src\coap_debug.c ****              (unsigned long)((tls_version->built_version >> 8) & 0xff),
1132:C:/Users/stapi/OneDrive/Desktop/GD32VW553/GD32VW55X_Wifi_BLE_SDK/GD32VW55x_RELEASE_V1.0.2/MSDK/lwip/libcoap-4.3.4/src\coap_debug.c ****              (unsigned long)(tls_version->built_version & 0xff));
1133:C:/Users/stapi/OneDrive/Desktop/GD32VW553/GD32VW55X_Wifi_BLE_SDK/GD32VW55x_RELEASE_V1.0.2/MSDK/lwip/libcoap-4.3.4/src\coap_debug.c ****     break;
1134:C:/Users/stapi/OneDrive/Desktop/GD32VW553/GD32VW55X_Wifi_BLE_SDK/GD32VW55x_RELEASE_V1.0.2/MSDK/lwip/libcoap-4.3.4/src\coap_debug.c ****   case COAP_TLS_LIBRARY_MBEDTLS:
1135:C:/Users/stapi/OneDrive/Desktop/GD32VW553/GD32VW55X_Wifi_BLE_SDK/GD32VW55x_RELEASE_V1.0.2/MSDK/lwip/libcoap-4.3.4/src\coap_debug.c ****     snprintf(buffer, bufsize, "TLS Library: Mbed TLS - runtime %lu.%lu.%lu, "
1136:C:/Users/stapi/OneDrive/Desktop/GD32VW553/GD32VW55X_Wifi_BLE_SDK/GD32VW55x_RELEASE_V1.0.2/MSDK/lwip/libcoap-4.3.4/src\coap_debug.c ****              "libcoap built for %lu.%lu.%lu",
1137:C:/Users/stapi/OneDrive/Desktop/GD32VW553/GD32VW55X_Wifi_BLE_SDK/GD32VW55x_RELEASE_V1.0.2/MSDK/lwip/libcoap-4.3.4/src\coap_debug.c ****              (unsigned long)(tls_version->version >> 24),
1138:C:/Users/stapi/OneDrive/Desktop/GD32VW553/GD32VW55X_Wifi_BLE_SDK/GD32VW55x_RELEASE_V1.0.2/MSDK/lwip/libcoap-4.3.4/src\coap_debug.c ****              (unsigned long)((tls_version->version >> 16) & 0xff),
1139:C:/Users/stapi/OneDrive/Desktop/GD32VW553/GD32VW55X_Wifi_BLE_SDK/GD32VW55x_RELEASE_V1.0.2/MSDK/lwip/libcoap-4.3.4/src\coap_debug.c ****              (unsigned long)((tls_version->version >> 8) & 0xff),
1140:C:/Users/stapi/OneDrive/Desktop/GD32VW553/GD32VW55X_Wifi_BLE_SDK/GD32VW55x_RELEASE_V1.0.2/MSDK/lwip/libcoap-4.3.4/src\coap_debug.c ****              (unsigned long)(tls_version->built_version >> 24),
1141:C:/Users/stapi/OneDrive/Desktop/GD32VW553/GD32VW55X_Wifi_BLE_SDK/GD32VW55x_RELEASE_V1.0.2/MSDK/lwip/libcoap-4.3.4/src\coap_debug.c ****              (unsigned long)((tls_version->built_version >> 16) & 0xff),
1142:C:/Users/stapi/OneDrive/Desktop/GD32VW553/GD32VW55X_Wifi_BLE_SDK/GD32VW55x_RELEASE_V1.0.2/MSDK/lwip/libcoap-4.3.4/src\coap_debug.c ****              (unsigned long)((tls_version->built_version >> 8) & 0xff));
1143:C:/Users/stapi/OneDrive/Desktop/GD32VW553/GD32VW55X_Wifi_BLE_SDK/GD32VW55x_RELEASE_V1.0.2/MSDK/lwip/libcoap-4.3.4/src\coap_debug.c ****     break;
1144:C:/Users/stapi/OneDrive/Desktop/GD32VW553/GD32VW55X_Wifi_BLE_SDK/GD32VW55x_RELEASE_V1.0.2/MSDK/lwip/libcoap-4.3.4/src\coap_debug.c ****   default:
1145:C:/Users/stapi/OneDrive/Desktop/GD32VW553/GD32VW55X_Wifi_BLE_SDK/GD32VW55x_RELEASE_V1.0.2/MSDK/lwip/libcoap-4.3.4/src\coap_debug.c ****     snprintf(buffer, bufsize, "Library type %d unknown", tls_version->type);
1146:C:/Users/stapi/OneDrive/Desktop/GD32VW553/GD32VW55X_Wifi_BLE_SDK/GD32VW55x_RELEASE_V1.0.2/MSDK/lwip/libcoap-4.3.4/src\coap_debug.c ****     break;
1147:C:/Users/stapi/OneDrive/Desktop/GD32VW553/GD32VW55X_Wifi_BLE_SDK/GD32VW55x_RELEASE_V1.0.2/MSDK/lwip/libcoap-4.3.4/src\coap_debug.c ****   }
1148:C:/Users/stapi/OneDrive/Desktop/GD32VW553/GD32VW55X_Wifi_BLE_SDK/GD32VW55x_RELEASE_V1.0.2/MSDK/lwip/libcoap-4.3.4/src\coap_debug.c ****   return buffer;
 642              		.loc 1 1148 3
1149:C:/Users/stapi/OneDrive/Desktop/GD32VW553/GD32VW55X_Wifi_BLE_SDK/GD32VW55x_RELEASE_V1.0.2/MSDK/lwip/libcoap-4.3.4/src\coap_debug.c **** }
 643              		.loc 1 1149 1 is_stmt 0
 644 0044 2685     		mv	a0,s1
 645 0046 2161     		addi	sp,sp,64
 646              		.cfi_remember_state
 647              		.cfi_def_cfa_offset 0
 648 0048 17030000 		tail	__riscv_restore_3
 648      67000300 
 649              		.cfi_restore 18
 650              		.cfi_restore 9
 651              		.cfi_restore 8
 652              		.cfi_restore 1
 653              		.cfi_def_cfa_offset -16
 654              	.LVL57:
 655              	.L48:
 656              		.cfi_restore_state
1072:C:/Users/stapi/OneDrive/Desktop/GD32VW553/GD32VW55X_Wifi_BLE_SDK/GD32VW55x_RELEASE_V1.0.2/MSDK/lwip/libcoap-4.3.4/src\coap_debug.c ****              "libcoap built for %lu.%lu.%lu",
 657              		.loc 1 1072 5 is_stmt 1
1077:C:/Users/stapi/OneDrive/Desktop/GD32VW553/GD32VW55X_Wifi_BLE_SDK/GD32VW55x_RELEASE_V1.0.2/MSDK/lwip/libcoap-4.3.4/src\coap_debug.c ****              (unsigned long)((tls_version->built_version >> 8) & 0xff),
 658              		.loc 1 1077 41 is_stmt 0
 659 0050 1049     		lw	a2,16(a0)
1074:C:/Users/stapi/OneDrive/Desktop/GD32VW553/GD32VW55X_Wifi_BLE_SDK/GD32VW55x_RELEASE_V1.0.2/MSDK/lwip/libcoap-4.3.4/src\coap_debug.c ****              (unsigned long)((tls_version->version >> 8) & 0xff),
 660              		.loc 1 1074 41
 661 0052 1C41     		lw	a5,0(a0)
 662 0054 5441     		lw	a3,4(a0)
1077:C:/Users/stapi/OneDrive/Desktop/GD32VW553/GD32VW55X_Wifi_BLE_SDK/GD32VW55x_RELEASE_V1.0.2/MSDK/lwip/libcoap-4.3.4/src\coap_debug.c ****              (unsigned long)((tls_version->built_version >> 8) & 0xff),
 663              		.loc 1 1077 41
 664 0056 4C49     		lw	a1,20(a0)
1078:C:/Users/stapi/OneDrive/Desktop/GD32VW553/GD32VW55X_Wifi_BLE_SDK/GD32VW55x_RELEASE_V1.0.2/MSDK/lwip/libcoap-4.3.4/src\coap_debug.c ****              (unsigned long)(tls_version->built_version & 0xff));
 665              		.loc 1 1078 58
 666 0058 93588600 		srli	a7,a2,8
1077:C:/Users/stapi/OneDrive/Desktop/GD32VW553/GD32VW55X_Wifi_BLE_SDK/GD32VW55x_RELEASE_V1.0.2/MSDK/lwip/libcoap-4.3.4/src\coap_debug.c ****              (unsigned long)((tls_version->built_version >> 8) & 0xff),
 667              		.loc 1 1077 57
 668 005c 13580601 		srli	a6,a2,16
1072:C:/Users/stapi/OneDrive/Desktop/GD32VW553/GD32VW55X_Wifi_BLE_SDK/GD32VW55x_RELEASE_V1.0.2/MSDK/lwip/libcoap-4.3.4/src\coap_debug.c ****              "libcoap built for %lu.%lu.%lu",
 669              		.loc 1 1072 5
 670 0060 1376F60F 		andi	a2,a2,255
1075:C:/Users/stapi/OneDrive/Desktop/GD32VW553/GD32VW55X_Wifi_BLE_SDK/GD32VW55x_RELEASE_V1.0.2/MSDK/lwip/libcoap-4.3.4/src\coap_debug.c ****              (unsigned long)(tls_version->version & 0xff),
 671              		.loc 1 1075 52
 672 0064 13D78700 		srli	a4,a5,8
1074:C:/Users/stapi/OneDrive/Desktop/GD32VW553/GD32VW55X_Wifi_BLE_SDK/GD32VW55x_RELEASE_V1.0.2/MSDK/lwip/libcoap-4.3.4/src\coap_debug.c ****              (unsigned long)((tls_version->version >> 8) & 0xff),
 673              		.loc 1 1074 51
 674 0068 13D50701 		srli	a0,a5,16
1077:C:/Users/stapi/OneDrive/Desktop/GD32VW553/GD32VW55X_Wifi_BLE_SDK/GD32VW55x_RELEASE_V1.0.2/MSDK/lwip/libcoap-4.3.4/src\coap_debug.c ****              (unsigned long)((tls_version->built_version >> 8) & 0xff),
 675              		.loc 1 1077 57
 676 006c C205     		slli	a1,a1,16
1074:C:/Users/stapi/OneDrive/Desktop/GD32VW553/GD32VW55X_Wifi_BLE_SDK/GD32VW55x_RELEASE_V1.0.2/MSDK/lwip/libcoap-4.3.4/src\coap_debug.c ****              (unsigned long)((tls_version->version >> 8) & 0xff),
 677              		.loc 1 1074 51
 678 006e C206     		slli	a3,a3,16
1072:C:/Users/stapi/OneDrive/Desktop/GD32VW553/GD32VW55X_Wifi_BLE_SDK/GD32VW55x_RELEASE_V1.0.2/MSDK/lwip/libcoap-4.3.4/src\coap_debug.c ****              "libcoap built for %lu.%lu.%lu",
 679              		.loc 1 1072 5
 680 0070 32C0     		sw	a2,0(sp)
 681 0072 37060000 		lui	a2,%hi(.LC10)
 682 0076 93F8F80F 		andi	a7,a7,0xff
 683 007a 33E80501 		or	a6,a1,a6
 684 007e 93F7F70F 		andi	a5,a5,0xff
 685 0082 1377F70F 		andi	a4,a4,0xff
 686 0086 C98E     		or	a3,a3,a0
 687 0088 13060600 		addi	a2,a2,%lo(.LC10)
 688              	.L74:
1125:C:/Users/stapi/OneDrive/Desktop/GD32VW553/GD32VW55X_Wifi_BLE_SDK/GD32VW55x_RELEASE_V1.0.2/MSDK/lwip/libcoap-4.3.4/src\coap_debug.c ****              "libcoap built for %lu.%lu.%lu",
 689              		.loc 1 1125 5
 690 008c CA85     		mv	a1,s2
 691 008e 2685     		mv	a0,s1
 692 0090 97000000 		call	snprintf
 692      E7800000 
 693              	.LVL58:
1133:C:/Users/stapi/OneDrive/Desktop/GD32VW553/GD32VW55X_Wifi_BLE_SDK/GD32VW55x_RELEASE_V1.0.2/MSDK/lwip/libcoap-4.3.4/src\coap_debug.c ****   case COAP_TLS_LIBRARY_MBEDTLS:
 694              		.loc 1 1133 5 is_stmt 1
 695 0098 75B7     		j	.L50
 696              	.L47:
1082:C:/Users/stapi/OneDrive/Desktop/GD32VW553/GD32VW55X_Wifi_BLE_SDK/GD32VW55x_RELEASE_V1.0.2/MSDK/lwip/libcoap-4.3.4/src\coap_debug.c ****     case 0:
 697              		.loc 1 1082 5
1082:C:/Users/stapi/OneDrive/Desktop/GD32VW553/GD32VW55X_Wifi_BLE_SDK/GD32VW55x_RELEASE_V1.0.2/MSDK/lwip/libcoap-4.3.4/src\coap_debug.c ****     case 0:
 698              		.loc 1 1082 34 is_stmt 0
 699 009a 1C41     		lw	a5,0(a0)
 700 009c BD8B     		andi	a5,a5,15
 701 009e EDC3     		beq	a5,zero,.L51
 702 00a0 3D47     		li	a4,15
 703 00a2 6394E70E 		bne	a5,a4,.L55
1087:C:/Users/stapi/OneDrive/Desktop/GD32VW553/GD32VW55X_Wifi_BLE_SDK/GD32VW55x_RELEASE_V1.0.2/MSDK/lwip/libcoap-4.3.4/src\coap_debug.c ****       break;
 704              		.loc 1 1087 7 is_stmt 1
 705 00a6 B7050000 		lui	a1,%hi(.LC12)
 706 00aa 93850500 		addi	a1,a1,%lo(.LC12)
 707              	.L72:
1084:C:/Users/stapi/OneDrive/Desktop/GD32VW553/GD32VW55X_Wifi_BLE_SDK/GD32VW55x_RELEASE_V1.0.2/MSDK/lwip/libcoap-4.3.4/src\coap_debug.c ****       break;
 708              		.loc 1 1084 7 is_stmt 0
 709 00ae 0818     		addi	a0,sp,48
 710 00b0 97000000 		call	strcpy
 710      E7800000 
 711              	.LVL59:
1085:C:/Users/stapi/OneDrive/Desktop/GD32VW553/GD32VW55X_Wifi_BLE_SDK/GD32VW55x_RELEASE_V1.0.2/MSDK/lwip/libcoap-4.3.4/src\coap_debug.c ****     case 0xf:
 712              		.loc 1 1085 7 is_stmt 1
 713              	.L56:
1095:C:/Users/stapi/OneDrive/Desktop/GD32VW553/GD32VW55X_Wifi_BLE_SDK/GD32VW55x_RELEASE_V1.0.2/MSDK/lwip/libcoap-4.3.4/src\coap_debug.c ****              ((tls_version->version >> 4) & 0xff) + 'a' -1 : '\000';
 714              		.loc 1 1095 5
1095:C:/Users/stapi/OneDrive/Desktop/GD32VW553/GD32VW55X_Wifi_BLE_SDK/GD32VW55x_RELEASE_V1.0.2/MSDK/lwip/libcoap-4.3.4/src\coap_debug.c ****              ((tls_version->version >> 4) & 0xff) + 'a' -1 : '\000';
 715              		.loc 1 1095 37 is_stmt 0
 716 00b8 5840     		lw	a4,4(s0)
 717 00ba 1C40     		lw	a5,0(s0)
 718 00bc 7207     		slli	a4,a4,28
 719 00be 9183     		srli	a5,a5,4
 720 00c0 D98F     		or	a5,a4,a5
1095:C:/Users/stapi/OneDrive/Desktop/GD32VW553/GD32VW55X_Wifi_BLE_SDK/GD32VW55x_RELEASE_V1.0.2/MSDK/lwip/libcoap-4.3.4/src\coap_debug.c ****              ((tls_version->version >> 4) & 0xff) + 'a' -1 : '\000';
 721              		.loc 1 1095 43
 722 00c2 93F6F70F 		andi	a3,a5,255
1095:C:/Users/stapi/OneDrive/Desktop/GD32VW553/GD32VW55X_Wifi_BLE_SDK/GD32VW55x_RELEASE_V1.0.2/MSDK/lwip/libcoap-4.3.4/src\coap_debug.c ****              ((tls_version->version >> 4) & 0xff) + 'a' -1 : '\000';
 723              		.loc 1 1095 12
 724 00c6 0147     		li	a4,0
 725 00c8 89C6     		beq	a3,zero,.L57
1096:C:/Users/stapi/OneDrive/Desktop/GD32VW553/GD32VW55X_Wifi_BLE_SDK/GD32VW55x_RELEASE_V1.0.2/MSDK/lwip/libcoap-4.3.4/src\coap_debug.c ****     sub[1] = '\000';
 726              		.loc 1 1096 57
 727 00ca 93870706 		addi	a5,a5,96
1095:C:/Users/stapi/OneDrive/Desktop/GD32VW553/GD32VW55X_Wifi_BLE_SDK/GD32VW55x_RELEASE_V1.0.2/MSDK/lwip/libcoap-4.3.4/src\coap_debug.c ****              ((tls_version->version >> 4) & 0xff) + 'a' -1 : '\000';
 728              		.loc 1 1095 12
 729 00ce 13974760 		sext.b	a4,a5
 730              	.L57:
1098:C:/Users/stapi/OneDrive/Desktop/GD32VW553/GD32VW55X_Wifi_BLE_SDK/GD32VW55x_RELEASE_V1.0.2/MSDK/lwip/libcoap-4.3.4/src\coap_debug.c ****     case 0:
 731              		.loc 1 1098 40 discriminator 4
 732 00d2 1C48     		lw	a5,16(s0)
1095:C:/Users/stapi/OneDrive/Desktop/GD32VW553/GD32VW55X_Wifi_BLE_SDK/GD32VW55x_RELEASE_V1.0.2/MSDK/lwip/libcoap-4.3.4/src\coap_debug.c ****              ((tls_version->version >> 4) & 0xff) + 'a' -1 : '\000';
 733              		.loc 1 1095 12 discriminator 4
 734 00d4 2304E102 		sb	a4,40(sp)
1097:C:/Users/stapi/OneDrive/Desktop/GD32VW553/GD32VW55X_Wifi_BLE_SDK/GD32VW55x_RELEASE_V1.0.2/MSDK/lwip/libcoap-4.3.4/src\coap_debug.c ****     switch (tls_version->built_version &0xf) {
 735              		.loc 1 1097 5 is_stmt 1 discriminator 4
1097:C:/Users/stapi/OneDrive/Desktop/GD32VW553/GD32VW55X_Wifi_BLE_SDK/GD32VW55x_RELEASE_V1.0.2/MSDK/lwip/libcoap-4.3.4/src\coap_debug.c ****     switch (tls_version->built_version &0xf) {
 736              		.loc 1 1097 12 is_stmt 0 discriminator 4
 737 00d8 A3040102 		sb	zero,41(sp)
1098:C:/Users/stapi/OneDrive/Desktop/GD32VW553/GD32VW55X_Wifi_BLE_SDK/GD32VW55x_RELEASE_V1.0.2/MSDK/lwip/libcoap-4.3.4/src\coap_debug.c ****     case 0:
 738              		.loc 1 1098 5 is_stmt 1 discriminator 4
1098:C:/Users/stapi/OneDrive/Desktop/GD32VW553/GD32VW55X_Wifi_BLE_SDK/GD32VW55x_RELEASE_V1.0.2/MSDK/lwip/libcoap-4.3.4/src\coap_debug.c ****     case 0:
 739              		.loc 1 1098 40 is_stmt 0 discriminator 4
 740 00dc BD8B     		andi	a5,a5,15
 741 00de 13088103 		addi	a6,sp,56
 742 00e2 F9C7     		beq	a5,zero,.L59
 743 00e4 3D47     		li	a4,15
 744 00e6 639AE70C 		bne	a5,a4,.L63
1103:C:/Users/stapi/OneDrive/Desktop/GD32VW553/GD32VW55X_Wifi_BLE_SDK/GD32VW55x_RELEASE_V1.0.2/MSDK/lwip/libcoap-4.3.4/src\coap_debug.c ****       break;
 745              		.loc 1 1103 7 is_stmt 1
 746 00ea B7050000 		lui	a1,%hi(.LC12)
 747 00ee 93850500 		addi	a1,a1,%lo(.LC12)
 748              	.L73:
1100:C:/Users/stapi/OneDrive/Desktop/GD32VW553/GD32VW55X_Wifi_BLE_SDK/GD32VW55x_RELEASE_V1.0.2/MSDK/lwip/libcoap-4.3.4/src\coap_debug.c ****       break;
 749              		.loc 1 1100 7 is_stmt 0
 750 00f2 4285     		mv	a0,a6
 751 00f4 97000000 		call	strcpy
 751      E7800000 
 752              	.LVL60:
 753 00fc 2A88     		mv	a6,a0
1101:C:/Users/stapi/OneDrive/Desktop/GD32VW553/GD32VW55X_Wifi_BLE_SDK/GD32VW55x_RELEASE_V1.0.2/MSDK/lwip/libcoap-4.3.4/src\coap_debug.c ****     case 0xf:
 754              		.loc 1 1101 7 is_stmt 1
 755              	.L64:
1111:C:/Users/stapi/OneDrive/Desktop/GD32VW553/GD32VW55X_Wifi_BLE_SDK/GD32VW55x_RELEASE_V1.0.2/MSDK/lwip/libcoap-4.3.4/src\coap_debug.c ****                ((tls_version->built_version >> 4) & 0xff) + 'a' -1 : '\000';
 756              		.loc 1 1111 5
1111:C:/Users/stapi/OneDrive/Desktop/GD32VW553/GD32VW55X_Wifi_BLE_SDK/GD32VW55x_RELEASE_V1.0.2/MSDK/lwip/libcoap-4.3.4/src\coap_debug.c ****                ((tls_version->built_version >> 4) & 0xff) + 'a' -1 : '\000';
 757              		.loc 1 1111 29 is_stmt 0
 758 00fe 1048     		lw	a2,16(s0)
 759 0100 4848     		lw	a0,20(s0)
1111:C:/Users/stapi/OneDrive/Desktop/GD32VW553/GD32VW55X_Wifi_BLE_SDK/GD32VW55x_RELEASE_V1.0.2/MSDK/lwip/libcoap-4.3.4/src\coap_debug.c ****                ((tls_version->built_version >> 4) & 0xff) + 'a' -1 : '\000';
 760              		.loc 1 1111 45
 761 0102 93574600 		srli	a5,a2,4
 762 0106 1317C501 		slli	a4,a0,28
 763 010a D98F     		or	a5,a4,a5
1111:C:/Users/stapi/OneDrive/Desktop/GD32VW553/GD32VW55X_Wifi_BLE_SDK/GD32VW55x_RELEASE_V1.0.2/MSDK/lwip/libcoap-4.3.4/src\coap_debug.c ****                ((tls_version->built_version >> 4) & 0xff) + 'a' -1 : '\000';
 764              		.loc 1 1111 51
 765 010c 93F6F70F 		andi	a3,a5,255
1111:C:/Users/stapi/OneDrive/Desktop/GD32VW553/GD32VW55X_Wifi_BLE_SDK/GD32VW55x_RELEASE_V1.0.2/MSDK/lwip/libcoap-4.3.4/src\coap_debug.c ****                ((tls_version->built_version >> 4) & 0xff) + 'a' -1 : '\000';
 766              		.loc 1 1111 14
 767 0110 0147     		li	a4,0
 768 0112 89C6     		beq	a3,zero,.L65
1112:C:/Users/stapi/OneDrive/Desktop/GD32VW553/GD32VW55X_Wifi_BLE_SDK/GD32VW55x_RELEASE_V1.0.2/MSDK/lwip/libcoap-4.3.4/src\coap_debug.c ****     b_sub[1] = '\000';
 769              		.loc 1 1112 65
 770 0114 93870706 		addi	a5,a5,96
1111:C:/Users/stapi/OneDrive/Desktop/GD32VW553/GD32VW55X_Wifi_BLE_SDK/GD32VW55x_RELEASE_V1.0.2/MSDK/lwip/libcoap-4.3.4/src\coap_debug.c ****                ((tls_version->built_version >> 4) & 0xff) + 'a' -1 : '\000';
 771              		.loc 1 1111 14
 772 0118 13974760 		sext.b	a4,a5
 773              	.L65:
1111:C:/Users/stapi/OneDrive/Desktop/GD32VW553/GD32VW55X_Wifi_BLE_SDK/GD32VW55x_RELEASE_V1.0.2/MSDK/lwip/libcoap-4.3.4/src\coap_debug.c ****                ((tls_version->built_version >> 4) & 0xff) + 'a' -1 : '\000';
 774              		.loc 1 1111 14 discriminator 4
 775 011c 2306E102 		sb	a4,44(sp)
1113:C:/Users/stapi/OneDrive/Desktop/GD32VW553/GD32VW55X_Wifi_BLE_SDK/GD32VW55x_RELEASE_V1.0.2/MSDK/lwip/libcoap-4.3.4/src\coap_debug.c ****     snprintf(buffer, bufsize, "TLS Library: OpenSSL - runtime "
 776              		.loc 1 1113 5 is_stmt 1 discriminator 4
1113:C:/Users/stapi/OneDrive/Desktop/GD32VW553/GD32VW55X_Wifi_BLE_SDK/GD32VW55x_RELEASE_V1.0.2/MSDK/lwip/libcoap-4.3.4/src\coap_debug.c ****     snprintf(buffer, bufsize, "TLS Library: OpenSSL - runtime "
 777              		.loc 1 1113 14 is_stmt 0 discriminator 4
 778 0120 A3060102 		sb	zero,45(sp)
1114:C:/Users/stapi/OneDrive/Desktop/GD32VW553/GD32VW55X_Wifi_BLE_SDK/GD32VW55x_RELEASE_V1.0.2/MSDK/lwip/libcoap-4.3.4/src\coap_debug.c ****              "%lu.%lu.%lu%s%s, libcoap built for %lu.%lu.%lu%s%s",
 779              		.loc 1 1114 5 is_stmt 1 discriminator 4
1116:C:/Users/stapi/OneDrive/Desktop/GD32VW553/GD32VW55X_Wifi_BLE_SDK/GD32VW55x_RELEASE_V1.0.2/MSDK/lwip/libcoap-4.3.4/src\coap_debug.c ****              (unsigned long)((tls_version->version >> 20) & 0xff),
 780              		.loc 1 1116 41 is_stmt 0 discriminator 4
 781 0124 0C40     		lw	a1,0(s0)
 782 0126 5440     		lw	a3,4(s0)
1114:C:/Users/stapi/OneDrive/Desktop/GD32VW553/GD32VW55X_Wifi_BLE_SDK/GD32VW55x_RELEASE_V1.0.2/MSDK/lwip/libcoap-4.3.4/src\coap_debug.c ****              "%lu.%lu.%lu%s%s, libcoap built for %lu.%lu.%lu%s%s",
 783              		.loc 1 1114 5 discriminator 4
 784 0128 42C8     		sw	a6,16(sp)
 785 012a 1308C102 		addi	a6,sp,44
 786 012e 42C6     		sw	a6,12(sp)
1121:C:/Users/stapi/OneDrive/Desktop/GD32VW553/GD32VW55X_Wifi_BLE_SDK/GD32VW55x_RELEASE_V1.0.2/MSDK/lwip/libcoap-4.3.4/src\coap_debug.c ****              b_sub, b_beta);
 787              		.loc 1 1121 58 discriminator 4
 788 0130 1358C600 		srli	a6,a2,12
1114:C:/Users/stapi/OneDrive/Desktop/GD32VW553/GD32VW55X_Wifi_BLE_SDK/GD32VW55x_RELEASE_V1.0.2/MSDK/lwip/libcoap-4.3.4/src\coap_debug.c ****              "%lu.%lu.%lu%s%s, libcoap built for %lu.%lu.%lu%s%s",
 789              		.loc 1 1114 5 discriminator 4
 790 0134 1378F80F 		andi	a6,a6,0xff
 791 0138 42C4     		sw	a6,8(sp)
1119:C:/Users/stapi/OneDrive/Desktop/GD32VW553/GD32VW55X_Wifi_BLE_SDK/GD32VW55x_RELEASE_V1.0.2/MSDK/lwip/libcoap-4.3.4/src\coap_debug.c ****              (unsigned long)((tls_version->built_version >> 20) & 0xff),
 792              		.loc 1 1119 57 discriminator 4
 793 013a 1205     		slli	a0,a0,4
1120:C:/Users/stapi/OneDrive/Desktop/GD32VW553/GD32VW55X_Wifi_BLE_SDK/GD32VW55x_RELEASE_V1.0.2/MSDK/lwip/libcoap-4.3.4/src\coap_debug.c ****              (unsigned long)((tls_version->built_version >> 12) & 0xff),
 794              		.loc 1 1120 58 discriminator 4
 795 013c 13584601 		srli	a6,a2,20
1119:C:/Users/stapi/OneDrive/Desktop/GD32VW553/GD32VW55X_Wifi_BLE_SDK/GD32VW55x_RELEASE_V1.0.2/MSDK/lwip/libcoap-4.3.4/src\coap_debug.c ****              (unsigned long)((tls_version->built_version >> 20) & 0xff),
 796              		.loc 1 1119 57 discriminator 4
 797 0140 7182     		srli	a2,a2,28
 798 0142 498E     		or	a2,a0,a2
1118:C:/Users/stapi/OneDrive/Desktop/GD32VW553/GD32VW55X_Wifi_BLE_SDK/GD32VW55x_RELEASE_V1.0.2/MSDK/lwip/libcoap-4.3.4/src\coap_debug.c ****              (unsigned long)(tls_version->built_version >> 28),
 799              		.loc 1 1118 52 discriminator 4
 800 0144 93D7C500 		srli	a5,a1,12
1117:C:/Users/stapi/OneDrive/Desktop/GD32VW553/GD32VW55X_Wifi_BLE_SDK/GD32VW55x_RELEASE_V1.0.2/MSDK/lwip/libcoap-4.3.4/src\coap_debug.c ****              (unsigned long)((tls_version->version >> 12) & 0xff), sub, beta,
 801              		.loc 1 1117 52 discriminator 4
 802 0148 13D74501 		srli	a4,a1,20
1114:C:/Users/stapi/OneDrive/Desktop/GD32VW553/GD32VW55X_Wifi_BLE_SDK/GD32VW55x_RELEASE_V1.0.2/MSDK/lwip/libcoap-4.3.4/src\coap_debug.c ****              "%lu.%lu.%lu%s%s, libcoap built for %lu.%lu.%lu%s%s",
 803              		.loc 1 1114 5 discriminator 4
 804 014c 1378F80F 		andi	a6,a6,0xff
1116:C:/Users/stapi/OneDrive/Desktop/GD32VW553/GD32VW55X_Wifi_BLE_SDK/GD32VW55x_RELEASE_V1.0.2/MSDK/lwip/libcoap-4.3.4/src\coap_debug.c ****              (unsigned long)((tls_version->version >> 20) & 0xff),
 805              		.loc 1 1116 51 discriminator 4
 806 0150 F181     		srli	a1,a1,28
1114:C:/Users/stapi/OneDrive/Desktop/GD32VW553/GD32VW55X_Wifi_BLE_SDK/GD32VW55x_RELEASE_V1.0.2/MSDK/lwip/libcoap-4.3.4/src\coap_debug.c ****              "%lu.%lu.%lu%s%s, libcoap built for %lu.%lu.%lu%s%s",
 807              		.loc 1 1114 5 discriminator 4
 808 0152 32C0     		sw	a2,0(sp)
1116:C:/Users/stapi/OneDrive/Desktop/GD32VW553/GD32VW55X_Wifi_BLE_SDK/GD32VW55x_RELEASE_V1.0.2/MSDK/lwip/libcoap-4.3.4/src\coap_debug.c ****              (unsigned long)((tls_version->version >> 20) & 0xff),
 809              		.loc 1 1116 51 discriminator 4
 810 0154 9206     		slli	a3,a3,4
1114:C:/Users/stapi/OneDrive/Desktop/GD32VW553/GD32VW55X_Wifi_BLE_SDK/GD32VW55x_RELEASE_V1.0.2/MSDK/lwip/libcoap-4.3.4/src\coap_debug.c ****              "%lu.%lu.%lu%s%s, libcoap built for %lu.%lu.%lu%s%s",
 811              		.loc 1 1114 5 discriminator 4
 812 0156 37060000 		lui	a2,%hi(.LC14)
 813 015a 42C2     		sw	a6,4(sp)
 814 015c CD8E     		or	a3,a3,a1
 815 015e 93080103 		addi	a7,sp,48
 816 0162 13088102 		addi	a6,sp,40
 817 0166 93F7F70F 		andi	a5,a5,0xff
 818 016a 1377F70F 		andi	a4,a4,0xff
 819 016e 13060600 		addi	a2,a2,%lo(.LC14)
 820 0172 CA85     		mv	a1,s2
 821 0174 2685     		mv	a0,s1
 822 0176 97000000 		call	snprintf
 822      E7800000 
 823              	.LVL61:
1123:C:/Users/stapi/OneDrive/Desktop/GD32VW553/GD32VW55X_Wifi_BLE_SDK/GD32VW55x_RELEASE_V1.0.2/MSDK/lwip/libcoap-4.3.4/src\coap_debug.c ****   case COAP_TLS_LIBRARY_GNUTLS:
 824              		.loc 1 1123 5 is_stmt 1 discriminator 4
 825 017e D9B5     		j	.L50
 826              	.L51:
1084:C:/Users/stapi/OneDrive/Desktop/GD32VW553/GD32VW55X_Wifi_BLE_SDK/GD32VW55x_RELEASE_V1.0.2/MSDK/lwip/libcoap-4.3.4/src\coap_debug.c ****       break;
 827              		.loc 1 1084 7
 828 0180 B7050000 		lui	a1,%hi(.LC11)
 829 0184 93850500 		addi	a1,a1,%lo(.LC11)
 830 0188 1DB7     		j	.L72
 831              	.L55:
1090:C:/Users/stapi/OneDrive/Desktop/GD32VW553/GD32VW55X_Wifi_BLE_SDK/GD32VW55x_RELEASE_V1.0.2/MSDK/lwip/libcoap-4.3.4/src\coap_debug.c ****       beta[5] = (tls_version->version &0xf) + '0';
 832              		.loc 1 1090 7
 833 018a B7050000 		lui	a1,%hi(.LC13)
 834 018e 93850500 		addi	a1,a1,%lo(.LC13)
 835 0192 0818     		addi	a0,sp,48
 836 0194 97000000 		call	strcpy
 836      E7800000 
 837              	.LVL62:
1091:C:/Users/stapi/OneDrive/Desktop/GD32VW553/GD32VW55X_Wifi_BLE_SDK/GD32VW55x_RELEASE_V1.0.2/MSDK/lwip/libcoap-4.3.4/src\coap_debug.c ****       beta[6] = '\000';
 838              		.loc 1 1091 7
1091:C:/Users/stapi/OneDrive/Desktop/GD32VW553/GD32VW55X_Wifi_BLE_SDK/GD32VW55x_RELEASE_V1.0.2/MSDK/lwip/libcoap-4.3.4/src\coap_debug.c ****       beta[6] = '\000';
 839              		.loc 1 1091 39 is_stmt 0
 840 019c 83470400 		lbu	a5,0(s0)
1092:C:/Users/stapi/OneDrive/Desktop/GD32VW553/GD32VW55X_Wifi_BLE_SDK/GD32VW55x_RELEASE_V1.0.2/MSDK/lwip/libcoap-4.3.4/src\coap_debug.c ****       break;
 841              		.loc 1 1092 15
 842 01a0 230B0102 		sb	zero,54(sp)
1091:C:/Users/stapi/OneDrive/Desktop/GD32VW553/GD32VW55X_Wifi_BLE_SDK/GD32VW55x_RELEASE_V1.0.2/MSDK/lwip/libcoap-4.3.4/src\coap_debug.c ****       beta[6] = '\000';
 843              		.loc 1 1091 39
 844 01a4 BD8B     		andi	a5,a5,15
1091:C:/Users/stapi/OneDrive/Desktop/GD32VW553/GD32VW55X_Wifi_BLE_SDK/GD32VW55x_RELEASE_V1.0.2/MSDK/lwip/libcoap-4.3.4/src\coap_debug.c ****       beta[6] = '\000';
 845              		.loc 1 1091 45
 846 01a6 93870703 		addi	a5,a5,48
1091:C:/Users/stapi/OneDrive/Desktop/GD32VW553/GD32VW55X_Wifi_BLE_SDK/GD32VW55x_RELEASE_V1.0.2/MSDK/lwip/libcoap-4.3.4/src\coap_debug.c ****       beta[6] = '\000';
 847              		.loc 1 1091 15
 848 01aa A30AF102 		sb	a5,53(sp)
1092:C:/Users/stapi/OneDrive/Desktop/GD32VW553/GD32VW55X_Wifi_BLE_SDK/GD32VW55x_RELEASE_V1.0.2/MSDK/lwip/libcoap-4.3.4/src\coap_debug.c ****       break;
 849              		.loc 1 1092 7 is_stmt 1
1093:C:/Users/stapi/OneDrive/Desktop/GD32VW553/GD32VW55X_Wifi_BLE_SDK/GD32VW55x_RELEASE_V1.0.2/MSDK/lwip/libcoap-4.3.4/src\coap_debug.c ****     }
 850              		.loc 1 1093 7
 851 01ae 29B7     		j	.L56
 852              	.L59:
1100:C:/Users/stapi/OneDrive/Desktop/GD32VW553/GD32VW55X_Wifi_BLE_SDK/GD32VW55x_RELEASE_V1.0.2/MSDK/lwip/libcoap-4.3.4/src\coap_debug.c ****       break;
 853              		.loc 1 1100 7
 854 01b0 B7050000 		lui	a1,%hi(.LC11)
 855 01b4 93850500 		addi	a1,a1,%lo(.LC11)
 856 01b8 2DBF     		j	.L73
 857              	.L63:
1106:C:/Users/stapi/OneDrive/Desktop/GD32VW553/GD32VW55X_Wifi_BLE_SDK/GD32VW55x_RELEASE_V1.0.2/MSDK/lwip/libcoap-4.3.4/src\coap_debug.c ****       b_beta[5] = (tls_version->built_version &0xf) + '0';
 858              		.loc 1 1106 7
 859 01ba B7050000 		lui	a1,%hi(.LC13)
 860 01be 4285     		mv	a0,a6
 861 01c0 93850500 		addi	a1,a1,%lo(.LC13)
 862 01c4 97000000 		call	strcpy
 862      E7800000 
 863              	.LVL63:
1107:C:/Users/stapi/OneDrive/Desktop/GD32VW553/GD32VW55X_Wifi_BLE_SDK/GD32VW55x_RELEASE_V1.0.2/MSDK/lwip/libcoap-4.3.4/src\coap_debug.c ****       b_beta[6] = '\000';
 864              		.loc 1 1107 47 is_stmt 0
 865 01cc 83470401 		lbu	a5,16(s0)
1106:C:/Users/stapi/OneDrive/Desktop/GD32VW553/GD32VW55X_Wifi_BLE_SDK/GD32VW55x_RELEASE_V1.0.2/MSDK/lwip/libcoap-4.3.4/src\coap_debug.c ****       b_beta[5] = (tls_version->built_version &0xf) + '0';
 866              		.loc 1 1106 7
 867 01d0 2A88     		mv	a6,a0
1107:C:/Users/stapi/OneDrive/Desktop/GD32VW553/GD32VW55X_Wifi_BLE_SDK/GD32VW55x_RELEASE_V1.0.2/MSDK/lwip/libcoap-4.3.4/src\coap_debug.c ****       b_beta[6] = '\000';
 868              		.loc 1 1107 7 is_stmt 1
1108:C:/Users/stapi/OneDrive/Desktop/GD32VW553/GD32VW55X_Wifi_BLE_SDK/GD32VW55x_RELEASE_V1.0.2/MSDK/lwip/libcoap-4.3.4/src\coap_debug.c ****       break;
 869              		.loc 1 1108 17 is_stmt 0
 870 01d2 230F0102 		sb	zero,62(sp)
1107:C:/Users/stapi/OneDrive/Desktop/GD32VW553/GD32VW55X_Wifi_BLE_SDK/GD32VW55x_RELEASE_V1.0.2/MSDK/lwip/libcoap-4.3.4/src\coap_debug.c ****       b_beta[6] = '\000';
 871              		.loc 1 1107 47
 872 01d6 BD8B     		andi	a5,a5,15
1107:C:/Users/stapi/OneDrive/Desktop/GD32VW553/GD32VW55X_Wifi_BLE_SDK/GD32VW55x_RELEASE_V1.0.2/MSDK/lwip/libcoap-4.3.4/src\coap_debug.c ****       b_beta[6] = '\000';
 873              		.loc 1 1107 53
 874 01d8 93870703 		addi	a5,a5,48
1107:C:/Users/stapi/OneDrive/Desktop/GD32VW553/GD32VW55X_Wifi_BLE_SDK/GD32VW55x_RELEASE_V1.0.2/MSDK/lwip/libcoap-4.3.4/src\coap_debug.c ****       b_beta[6] = '\000';
 875              		.loc 1 1107 17
 876 01dc A30EF102 		sb	a5,61(sp)
1108:C:/Users/stapi/OneDrive/Desktop/GD32VW553/GD32VW55X_Wifi_BLE_SDK/GD32VW55x_RELEASE_V1.0.2/MSDK/lwip/libcoap-4.3.4/src\coap_debug.c ****       break;
 877              		.loc 1 1108 7 is_stmt 1
1109:C:/Users/stapi/OneDrive/Desktop/GD32VW553/GD32VW55X_Wifi_BLE_SDK/GD32VW55x_RELEASE_V1.0.2/MSDK/lwip/libcoap-4.3.4/src\coap_debug.c ****     }
 878              		.loc 1 1109 7
 879 01e0 39BF     		j	.L64
 880              	.L46:
1125:C:/Users/stapi/OneDrive/Desktop/GD32VW553/GD32VW55X_Wifi_BLE_SDK/GD32VW55x_RELEASE_V1.0.2/MSDK/lwip/libcoap-4.3.4/src\coap_debug.c ****              "libcoap built for %lu.%lu.%lu",
 881              		.loc 1 1125 5
1130:C:/Users/stapi/OneDrive/Desktop/GD32VW553/GD32VW55X_Wifi_BLE_SDK/GD32VW55x_RELEASE_V1.0.2/MSDK/lwip/libcoap-4.3.4/src\coap_debug.c ****              (unsigned long)((tls_version->built_version >> 8) & 0xff),
 882              		.loc 1 1130 41 is_stmt 0
 883 01e2 1049     		lw	a2,16(a0)
1127:C:/Users/stapi/OneDrive/Desktop/GD32VW553/GD32VW55X_Wifi_BLE_SDK/GD32VW55x_RELEASE_V1.0.2/MSDK/lwip/libcoap-4.3.4/src\coap_debug.c ****              (unsigned long)((tls_version->version >> 8) & 0xff),
 884              		.loc 1 1127 41
 885 01e4 1C41     		lw	a5,0(a0)
 886 01e6 5441     		lw	a3,4(a0)
1130:C:/Users/stapi/OneDrive/Desktop/GD32VW553/GD32VW55X_Wifi_BLE_SDK/GD32VW55x_RELEASE_V1.0.2/MSDK/lwip/libcoap-4.3.4/src\coap_debug.c ****              (unsigned long)((tls_version->built_version >> 8) & 0xff),
 887              		.loc 1 1130 41
 888 01e8 4C49     		lw	a1,20(a0)
1131:C:/Users/stapi/OneDrive/Desktop/GD32VW553/GD32VW55X_Wifi_BLE_SDK/GD32VW55x_RELEASE_V1.0.2/MSDK/lwip/libcoap-4.3.4/src\coap_debug.c ****              (unsigned long)(tls_version->built_version & 0xff));
 889              		.loc 1 1131 58
 890 01ea 93588600 		srli	a7,a2,8
1130:C:/Users/stapi/OneDrive/Desktop/GD32VW553/GD32VW55X_Wifi_BLE_SDK/GD32VW55x_RELEASE_V1.0.2/MSDK/lwip/libcoap-4.3.4/src\coap_debug.c ****              (unsigned long)((tls_version->built_version >> 8) & 0xff),
 891              		.loc 1 1130 57
 892 01ee 13580601 		srli	a6,a2,16
1125:C:/Users/stapi/OneDrive/Desktop/GD32VW553/GD32VW55X_Wifi_BLE_SDK/GD32VW55x_RELEASE_V1.0.2/MSDK/lwip/libcoap-4.3.4/src\coap_debug.c ****              "libcoap built for %lu.%lu.%lu",
 893              		.loc 1 1125 5
 894 01f2 1376F60F 		andi	a2,a2,255
1128:C:/Users/stapi/OneDrive/Desktop/GD32VW553/GD32VW55X_Wifi_BLE_SDK/GD32VW55x_RELEASE_V1.0.2/MSDK/lwip/libcoap-4.3.4/src\coap_debug.c ****              (unsigned long)(tls_version->version & 0xff),
 895              		.loc 1 1128 52
 896 01f6 13D78700 		srli	a4,a5,8
1127:C:/Users/stapi/OneDrive/Desktop/GD32VW553/GD32VW55X_Wifi_BLE_SDK/GD32VW55x_RELEASE_V1.0.2/MSDK/lwip/libcoap-4.3.4/src\coap_debug.c ****              (unsigned long)((tls_version->version >> 8) & 0xff),
 897              		.loc 1 1127 51
 898 01fa 13D50701 		srli	a0,a5,16
1130:C:/Users/stapi/OneDrive/Desktop/GD32VW553/GD32VW55X_Wifi_BLE_SDK/GD32VW55x_RELEASE_V1.0.2/MSDK/lwip/libcoap-4.3.4/src\coap_debug.c ****              (unsigned long)((tls_version->built_version >> 8) & 0xff),
 899              		.loc 1 1130 57
 900 01fe C205     		slli	a1,a1,16
1127:C:/Users/stapi/OneDrive/Desktop/GD32VW553/GD32VW55X_Wifi_BLE_SDK/GD32VW55x_RELEASE_V1.0.2/MSDK/lwip/libcoap-4.3.4/src\coap_debug.c ****              (unsigned long)((tls_version->version >> 8) & 0xff),
 901              		.loc 1 1127 51
 902 0200 C206     		slli	a3,a3,16
1125:C:/Users/stapi/OneDrive/Desktop/GD32VW553/GD32VW55X_Wifi_BLE_SDK/GD32VW55x_RELEASE_V1.0.2/MSDK/lwip/libcoap-4.3.4/src\coap_debug.c ****              "libcoap built for %lu.%lu.%lu",
 903              		.loc 1 1125 5
 904 0202 32C0     		sw	a2,0(sp)
 905 0204 37060000 		lui	a2,%hi(.LC15)
 906 0208 93F8F80F 		andi	a7,a7,0xff
 907 020c 33E80501 		or	a6,a1,a6
 908 0210 93F7F70F 		andi	a5,a5,0xff
 909 0214 1377F70F 		andi	a4,a4,0xff
 910 0218 C98E     		or	a3,a3,a0
 911 021a 13060600 		addi	a2,a2,%lo(.LC15)
 912 021e BDB5     		j	.L74
 913              	.L44:
1135:C:/Users/stapi/OneDrive/Desktop/GD32VW553/GD32VW55X_Wifi_BLE_SDK/GD32VW55x_RELEASE_V1.0.2/MSDK/lwip/libcoap-4.3.4/src\coap_debug.c ****              "libcoap built for %lu.%lu.%lu",
 914              		.loc 1 1135 5 is_stmt 1
1140:C:/Users/stapi/OneDrive/Desktop/GD32VW553/GD32VW55X_Wifi_BLE_SDK/GD32VW55x_RELEASE_V1.0.2/MSDK/lwip/libcoap-4.3.4/src\coap_debug.c ****              (unsigned long)((tls_version->built_version >> 16) & 0xff),
 915              		.loc 1 1140 41 is_stmt 0
 916 0220 1049     		lw	a2,16(a0)
1137:C:/Users/stapi/OneDrive/Desktop/GD32VW553/GD32VW55X_Wifi_BLE_SDK/GD32VW55x_RELEASE_V1.0.2/MSDK/lwip/libcoap-4.3.4/src\coap_debug.c ****              (unsigned long)((tls_version->version >> 16) & 0xff),
 917              		.loc 1 1137 41
 918 0222 0C41     		lw	a1,0(a0)
 919 0224 5441     		lw	a3,4(a0)
1140:C:/Users/stapi/OneDrive/Desktop/GD32VW553/GD32VW55X_Wifi_BLE_SDK/GD32VW55x_RELEASE_V1.0.2/MSDK/lwip/libcoap-4.3.4/src\coap_debug.c ****              (unsigned long)((tls_version->built_version >> 16) & 0xff),
 920              		.loc 1 1140 41
 921 0226 4849     		lw	a0,20(a0)
1141:C:/Users/stapi/OneDrive/Desktop/GD32VW553/GD32VW55X_Wifi_BLE_SDK/GD32VW55x_RELEASE_V1.0.2/MSDK/lwip/libcoap-4.3.4/src\coap_debug.c ****              (unsigned long)((tls_version->built_version >> 8) & 0xff));
 922              		.loc 1 1141 58
 923 0228 93580601 		srli	a7,a2,16
1140:C:/Users/stapi/OneDrive/Desktop/GD32VW553/GD32VW55X_Wifi_BLE_SDK/GD32VW55x_RELEASE_V1.0.2/MSDK/lwip/libcoap-4.3.4/src\coap_debug.c ****              (unsigned long)((tls_version->built_version >> 16) & 0xff),
 924              		.loc 1 1140 57
 925 022c 13588601 		srli	a6,a2,24
1142:C:/Users/stapi/OneDrive/Desktop/GD32VW553/GD32VW55X_Wifi_BLE_SDK/GD32VW55x_RELEASE_V1.0.2/MSDK/lwip/libcoap-4.3.4/src\coap_debug.c ****     break;
 926              		.loc 1 1142 58
 927 0230 2182     		srli	a2,a2,8
1135:C:/Users/stapi/OneDrive/Desktop/GD32VW553/GD32VW55X_Wifi_BLE_SDK/GD32VW55x_RELEASE_V1.0.2/MSDK/lwip/libcoap-4.3.4/src\coap_debug.c ****              "libcoap built for %lu.%lu.%lu",
 928              		.loc 1 1135 5
 929 0232 1376F60F 		andi	a2,a2,0xff
1139:C:/Users/stapi/OneDrive/Desktop/GD32VW553/GD32VW55X_Wifi_BLE_SDK/GD32VW55x_RELEASE_V1.0.2/MSDK/lwip/libcoap-4.3.4/src\coap_debug.c ****              (unsigned long)(tls_version->built_version >> 24),
 930              		.loc 1 1139 52
 931 0236 93D78500 		srli	a5,a1,8
1138:C:/Users/stapi/OneDrive/Desktop/GD32VW553/GD32VW55X_Wifi_BLE_SDK/GD32VW55x_RELEASE_V1.0.2/MSDK/lwip/libcoap-4.3.4/src\coap_debug.c ****              (unsigned long)((tls_version->version >> 8) & 0xff),
 932              		.loc 1 1138 52
 933 023a 13D70501 		srli	a4,a1,16
1140:C:/Users/stapi/OneDrive/Desktop/GD32VW553/GD32VW55X_Wifi_BLE_SDK/GD32VW55x_RELEASE_V1.0.2/MSDK/lwip/libcoap-4.3.4/src\coap_debug.c ****              (unsigned long)((tls_version->built_version >> 16) & 0xff),
 934              		.loc 1 1140 57
 935 023e 2205     		slli	a0,a0,8
1137:C:/Users/stapi/OneDrive/Desktop/GD32VW553/GD32VW55X_Wifi_BLE_SDK/GD32VW55x_RELEASE_V1.0.2/MSDK/lwip/libcoap-4.3.4/src\coap_debug.c ****              (unsigned long)((tls_version->version >> 16) & 0xff),
 936              		.loc 1 1137 51
 937 0240 A206     		slli	a3,a3,8
 938 0242 E181     		srli	a1,a1,24
1135:C:/Users/stapi/OneDrive/Desktop/GD32VW553/GD32VW55X_Wifi_BLE_SDK/GD32VW55x_RELEASE_V1.0.2/MSDK/lwip/libcoap-4.3.4/src\coap_debug.c ****              "libcoap built for %lu.%lu.%lu",
 939              		.loc 1 1135 5
 940 0244 32C0     		sw	a2,0(sp)
 941 0246 37060000 		lui	a2,%hi(.LC16)
 942 024a 93F8F80F 		andi	a7,a7,0xff
 943 024e 33680501 		or	a6,a0,a6
 944 0252 93F7F70F 		andi	a5,a5,0xff
 945 0256 1377F70F 		andi	a4,a4,0xff
 946 025a CD8E     		or	a3,a3,a1
 947 025c 13060600 		addi	a2,a2,%lo(.LC16)
 948 0260 35B5     		j	.L74
 949              	.LVL64:
 950              	.L43:
1145:C:/Users/stapi/OneDrive/Desktop/GD32VW553/GD32VW55X_Wifi_BLE_SDK/GD32VW55x_RELEASE_V1.0.2/MSDK/lwip/libcoap-4.3.4/src\coap_debug.c ****     break;
 951              		.loc 1 1145 5 is_stmt 1
 952 0262 37060000 		lui	a2,%hi(.LC17)
 953 0266 13060600 		addi	a2,a2,%lo(.LC17)
 954 026a CA85     		mv	a1,s2
 955 026c 2685     		mv	a0,s1
 956              	.LVL65:
 957 026e 97000000 		call	snprintf
 957      E7800000 
 958              	.LVL66:
1146:C:/Users/stapi/OneDrive/Desktop/GD32VW553/GD32VW55X_Wifi_BLE_SDK/GD32VW55x_RELEASE_V1.0.2/MSDK/lwip/libcoap-4.3.4/src\coap_debug.c ****   }
 959              		.loc 1 1146 5
 960 0276 F9B3     		j	.L50
 961              		.cfi_endproc
 962              	.LFE48:
 964              		.section	.rodata.coap_string_tls_support.str1.4,"aMS",@progbits,1
 965              		.align	2
 966              	.LC18:
 967 0000 4E6F2000 		.string	"No "
 968              		.align	2
 969              	.LC19:
 970 0004 6E6F2000 		.string	"no "
 971              		.align	2
 972              	.LC20:
 973 0008 48617665 		.string	"Have "
 973      2000
 974 000e 0000     		.align	2
 975              	.LC21:
 976 0010 284E6F20 		.string	"(No DTLS or TLS support)"
 976      44544C53 
 976      206F7220 
 976      544C5320 
 976      73757070 
 977 0029 000000   		.align	2
 978              	.LC22:
 979 002c 28257344 		.string	"(%sDTLS and %sTLS support; %sPSK, %sPKI, %sPKCS11, and %sRPK support)\n(%sOSCORE)\n(%sWeb
 979      544C5320 
 979      616E6420 
 979      2573544C 
 979      53207375 
 980              		.section	.text.coap_string_tls_support,"ax",@progbits
 981              		.align	1
 982              		.globl	coap_string_tls_support
 984              	coap_string_tls_support:
 985              	.LFB49:
1150:C:/Users/stapi/OneDrive/Desktop/GD32VW553/GD32VW55X_Wifi_BLE_SDK/GD32VW55x_RELEASE_V1.0.2/MSDK/lwip/libcoap-4.3.4/src\coap_debug.c **** 
1151:C:/Users/stapi/OneDrive/Desktop/GD32VW553/GD32VW55X_Wifi_BLE_SDK/GD32VW55x_RELEASE_V1.0.2/MSDK/lwip/libcoap-4.3.4/src\coap_debug.c **** char *
1152:C:/Users/stapi/OneDrive/Desktop/GD32VW553/GD32VW55X_Wifi_BLE_SDK/GD32VW55x_RELEASE_V1.0.2/MSDK/lwip/libcoap-4.3.4/src\coap_debug.c **** coap_string_tls_support(char *buffer, size_t bufsize) {
 986              		.loc 1 1152 55
 987              		.cfi_startproc
 988              	.LVL67:
 989 0000 17030000 		call	t0,__riscv_save_8
 989      E7020300 
 990              		.cfi_offset 23, -36
 991              		.cfi_offset 22, -32
 992              		.cfi_offset 21, -28
 993              		.cfi_offset 20, -24
 994              		.cfi_offset 19, -20
 995              		.cfi_offset 18, -16
 996              		.cfi_offset 9, -12
 997              		.cfi_offset 8, -8
 998              		.cfi_offset 1, -4
 999              		.cfi_def_cfa_offset 48
1153:C:/Users/stapi/OneDrive/Desktop/GD32VW553/GD32VW55X_Wifi_BLE_SDK/GD32VW55x_RELEASE_V1.0.2/MSDK/lwip/libcoap-4.3.4/src\coap_debug.c ****   const int have_tls = coap_tls_is_supported();
 1000              		.loc 1 1153 3
1152:C:/Users/stapi/OneDrive/Desktop/GD32VW553/GD32VW55X_Wifi_BLE_SDK/GD32VW55x_RELEASE_V1.0.2/MSDK/lwip/libcoap-4.3.4/src\coap_debug.c ****   const int have_tls = coap_tls_is_supported();
 1001              		.loc 1 1152 55 is_stmt 0
 1002 0008 0111     		addi	sp,sp,-32
 1003              		.cfi_def_cfa_offset 80
1152:C:/Users/stapi/OneDrive/Desktop/GD32VW553/GD32VW55X_Wifi_BLE_SDK/GD32VW55x_RELEASE_V1.0.2/MSDK/lwip/libcoap-4.3.4/src\coap_debug.c ****   const int have_tls = coap_tls_is_supported();
 1004              		.loc 1 1152 55
 1005 000a 2ECE     		sw	a1,28(sp)
 1006 000c 2A84     		mv	s0,a0
 1007              		.loc 1 1153 24
 1008 000e 97000000 		call	coap_tls_is_supported
 1008      E7800000 
 1009              	.LVL68:
 1010 0016 AA84     		mv	s1,a0
 1011              	.LVL69:
1154:C:/Users/stapi/OneDrive/Desktop/GD32VW553/GD32VW55X_Wifi_BLE_SDK/GD32VW55x_RELEASE_V1.0.2/MSDK/lwip/libcoap-4.3.4/src\coap_debug.c ****   const int have_dtls = coap_dtls_is_supported();
 1012              		.loc 1 1154 3 is_stmt 1
 1013              		.loc 1 1154 25 is_stmt 0
 1014 0018 97000000 		call	coap_dtls_is_supported
 1014      E7800000 
 1015              	.LVL70:
 1016 0020 AA8B     		mv	s7,a0
 1017              	.LVL71:
1155:C:/Users/stapi/OneDrive/Desktop/GD32VW553/GD32VW55X_Wifi_BLE_SDK/GD32VW55x_RELEASE_V1.0.2/MSDK/lwip/libcoap-4.3.4/src\coap_debug.c ****   const int have_psk = coap_dtls_psk_is_supported();
 1018              		.loc 1 1155 3 is_stmt 1
 1019              		.loc 1 1155 24 is_stmt 0
 1020 0022 97000000 		call	coap_dtls_psk_is_supported
 1020      E7800000 
 1021              	.LVL72:
 1022 002a 2A8B     		mv	s6,a0
 1023              	.LVL73:
1156:C:/Users/stapi/OneDrive/Desktop/GD32VW553/GD32VW55X_Wifi_BLE_SDK/GD32VW55x_RELEASE_V1.0.2/MSDK/lwip/libcoap-4.3.4/src\coap_debug.c ****   const int have_pki = coap_dtls_pki_is_supported();
 1024              		.loc 1 1156 3 is_stmt 1
 1025              		.loc 1 1156 24 is_stmt 0
 1026 002c 97000000 		call	coap_dtls_pki_is_supported
 1026      E7800000 
 1027              	.LVL74:
 1028 0034 AA8A     		mv	s5,a0
 1029              	.LVL75:
1157:C:/Users/stapi/OneDrive/Desktop/GD32VW553/GD32VW55X_Wifi_BLE_SDK/GD32VW55x_RELEASE_V1.0.2/MSDK/lwip/libcoap-4.3.4/src\coap_debug.c ****   const int have_pkcs11 = coap_dtls_pkcs11_is_supported();
 1030              		.loc 1 1157 3 is_stmt 1
 1031              		.loc 1 1157 27 is_stmt 0
 1032 0036 97000000 		call	coap_dtls_pkcs11_is_supported
 1032      E7800000 
 1033              	.LVL76:
 1034 003e 2A8A     		mv	s4,a0
 1035              	.LVL77:
1158:C:/Users/stapi/OneDrive/Desktop/GD32VW553/GD32VW55X_Wifi_BLE_SDK/GD32VW55x_RELEASE_V1.0.2/MSDK/lwip/libcoap-4.3.4/src\coap_debug.c ****   const int have_rpk = coap_dtls_rpk_is_supported();
 1036              		.loc 1 1158 3 is_stmt 1
 1037              		.loc 1 1158 24 is_stmt 0
 1038 0040 97000000 		call	coap_dtls_rpk_is_supported
 1038      E7800000 
 1039              	.LVL78:
 1040 0048 AA89     		mv	s3,a0
 1041              	.LVL79:
1159:C:/Users/stapi/OneDrive/Desktop/GD32VW553/GD32VW55X_Wifi_BLE_SDK/GD32VW55x_RELEASE_V1.0.2/MSDK/lwip/libcoap-4.3.4/src\coap_debug.c ****   const int have_oscore = coap_oscore_is_supported();
 1042              		.loc 1 1159 3 is_stmt 1
 1043              		.loc 1 1159 27 is_stmt 0
 1044 004a 97000000 		call	coap_oscore_is_supported
 1044      E7800000 
 1045              	.LVL80:
 1046 0052 2A89     		mv	s2,a0
 1047              	.LVL81:
1160:C:/Users/stapi/OneDrive/Desktop/GD32VW553/GD32VW55X_Wifi_BLE_SDK/GD32VW55x_RELEASE_V1.0.2/MSDK/lwip/libcoap-4.3.4/src\coap_debug.c ****   const int have_ws = coap_ws_is_supported();
 1048              		.loc 1 1160 3 is_stmt 1
 1049              		.loc 1 1160 23 is_stmt 0
 1050 0054 97000000 		call	coap_ws_is_supported
 1050      E7800000 
 1051              	.LVL82:
1161:C:/Users/stapi/OneDrive/Desktop/GD32VW553/GD32VW55X_Wifi_BLE_SDK/GD32VW55x_RELEASE_V1.0.2/MSDK/lwip/libcoap-4.3.4/src\coap_debug.c **** 
1162:C:/Users/stapi/OneDrive/Desktop/GD32VW553/GD32VW55X_Wifi_BLE_SDK/GD32VW55x_RELEASE_V1.0.2/MSDK/lwip/libcoap-4.3.4/src\coap_debug.c ****   if (have_dtls == 0 && have_tls == 0) {
 1052              		.loc 1 1162 6
 1053 005c F245     		lw	a1,28(sp)
1160:C:/Users/stapi/OneDrive/Desktop/GD32VW553/GD32VW55X_Wifi_BLE_SDK/GD32VW55x_RELEASE_V1.0.2/MSDK/lwip/libcoap-4.3.4/src\coap_debug.c ****   const int have_ws = coap_ws_is_supported();
 1054              		.loc 1 1160 23
 1055 005e 2A8E     		mv	t3,a0
 1056              	.LVL83:
 1057              		.loc 1 1162 3 is_stmt 1
 1058              		.loc 1 1162 6 is_stmt 0
 1059 0060 63920B02 		bne	s7,zero,.L76
 1060              		.loc 1 1162 22 discriminator 1
 1061 0064 D1E8     		bne	s1,zero,.L85
1163:C:/Users/stapi/OneDrive/Desktop/GD32VW553/GD32VW55X_Wifi_BLE_SDK/GD32VW55x_RELEASE_V1.0.2/MSDK/lwip/libcoap-4.3.4/src\coap_debug.c ****     snprintf(buffer, bufsize, "(No DTLS or TLS support)");
 1062              		.loc 1 1163 5 is_stmt 1
 1063 0066 37060000 		lui	a2,%hi(.LC21)
 1064 006a 13060600 		addi	a2,a2,%lo(.LC21)
 1065 006e 2285     		mv	a0,s0
 1066              	.LVL84:
 1067 0070 97000000 		call	snprintf
 1067      E7800000 
 1068              	.LVL85:
1164:C:/Users/stapi/OneDrive/Desktop/GD32VW553/GD32VW55X_Wifi_BLE_SDK/GD32VW55x_RELEASE_V1.0.2/MSDK/lwip/libcoap-4.3.4/src\coap_debug.c ****     return buffer;
 1069              		.loc 1 1164 5
 1070              	.L78:
1165:C:/Users/stapi/OneDrive/Desktop/GD32VW553/GD32VW55X_Wifi_BLE_SDK/GD32VW55x_RELEASE_V1.0.2/MSDK/lwip/libcoap-4.3.4/src\coap_debug.c ****   }
1166:C:/Users/stapi/OneDrive/Desktop/GD32VW553/GD32VW55X_Wifi_BLE_SDK/GD32VW55x_RELEASE_V1.0.2/MSDK/lwip/libcoap-4.3.4/src\coap_debug.c ****   snprintf(buffer, bufsize,
1167:C:/Users/stapi/OneDrive/Desktop/GD32VW553/GD32VW55X_Wifi_BLE_SDK/GD32VW55x_RELEASE_V1.0.2/MSDK/lwip/libcoap-4.3.4/src\coap_debug.c ****            "(%sDTLS and %sTLS support; %sPSK, %sPKI, %sPKCS11, and %sRPK support)\n(%sOSCORE)\n(%sW
1168:C:/Users/stapi/OneDrive/Desktop/GD32VW553/GD32VW55X_Wifi_BLE_SDK/GD32VW55x_RELEASE_V1.0.2/MSDK/lwip/libcoap-4.3.4/src\coap_debug.c ****            have_dtls ? "" : "No ",
1169:C:/Users/stapi/OneDrive/Desktop/GD32VW553/GD32VW55X_Wifi_BLE_SDK/GD32VW55x_RELEASE_V1.0.2/MSDK/lwip/libcoap-4.3.4/src\coap_debug.c ****            have_tls ? "" : "no ",
1170:C:/Users/stapi/OneDrive/Desktop/GD32VW553/GD32VW55X_Wifi_BLE_SDK/GD32VW55x_RELEASE_V1.0.2/MSDK/lwip/libcoap-4.3.4/src\coap_debug.c ****            have_psk ? "" : "no ",
1171:C:/Users/stapi/OneDrive/Desktop/GD32VW553/GD32VW55X_Wifi_BLE_SDK/GD32VW55x_RELEASE_V1.0.2/MSDK/lwip/libcoap-4.3.4/src\coap_debug.c ****            have_pki ? "" : "no ",
1172:C:/Users/stapi/OneDrive/Desktop/GD32VW553/GD32VW55X_Wifi_BLE_SDK/GD32VW55x_RELEASE_V1.0.2/MSDK/lwip/libcoap-4.3.4/src\coap_debug.c ****            have_pkcs11 ? "" : "no ",
1173:C:/Users/stapi/OneDrive/Desktop/GD32VW553/GD32VW55X_Wifi_BLE_SDK/GD32VW55x_RELEASE_V1.0.2/MSDK/lwip/libcoap-4.3.4/src\coap_debug.c ****            have_rpk ? "" : "no ",
1174:C:/Users/stapi/OneDrive/Desktop/GD32VW553/GD32VW55X_Wifi_BLE_SDK/GD32VW55x_RELEASE_V1.0.2/MSDK/lwip/libcoap-4.3.4/src\coap_debug.c ****            have_oscore ? "Have " : "No ",
1175:C:/Users/stapi/OneDrive/Desktop/GD32VW553/GD32VW55X_Wifi_BLE_SDK/GD32VW55x_RELEASE_V1.0.2/MSDK/lwip/libcoap-4.3.4/src\coap_debug.c ****            have_ws ? "Have " : "No ");
1176:C:/Users/stapi/OneDrive/Desktop/GD32VW553/GD32VW55X_Wifi_BLE_SDK/GD32VW55x_RELEASE_V1.0.2/MSDK/lwip/libcoap-4.3.4/src\coap_debug.c ****   return buffer;
1177:C:/Users/stapi/OneDrive/Desktop/GD32VW553/GD32VW55X_Wifi_BLE_SDK/GD32VW55x_RELEASE_V1.0.2/MSDK/lwip/libcoap-4.3.4/src\coap_debug.c **** }
 1071              		.loc 1 1177 1 is_stmt 0
 1072 0078 2285     		mv	a0,s0
 1073 007a 0561     		addi	sp,sp,32
 1074              		.cfi_remember_state
 1075              		.cfi_def_cfa_offset 0
 1076              	.LVL86:
 1077 007c 17030000 		tail	__riscv_restore_8
 1077      67000300 
 1078              		.cfi_restore 23
 1079              		.cfi_restore 22
 1080              		.cfi_restore 21
 1081              		.cfi_restore 20
 1082              		.cfi_restore 19
 1083              		.cfi_restore 18
 1084              		.cfi_restore 9
 1085              		.cfi_restore 8
 1086              		.cfi_restore 1
 1087              		.cfi_def_cfa_offset -48
 1088              	.LVL87:
 1089              	.L76:
 1090              		.cfi_restore_state
 1091 0084 37070000 		lui	a4,%hi(.LC12)
1166:C:/Users/stapi/OneDrive/Desktop/GD32VW553/GD32VW55X_Wifi_BLE_SDK/GD32VW55x_RELEASE_V1.0.2/MSDK/lwip/libcoap-4.3.4/src\coap_debug.c ****            "(%sDTLS and %sTLS support; %sPSK, %sPKI, %sPKCS11, and %sRPK support)\n(%sOSCORE)\n(%sW
 1092              		.loc 1 1166 3 discriminator 4
 1093 0088 93060700 		addi	a3,a4,%lo(.LC12)
 1094 008c A5EC     		bne	s1,zero,.L86
1166:C:/Users/stapi/OneDrive/Desktop/GD32VW553/GD32VW55X_Wifi_BLE_SDK/GD32VW55x_RELEASE_V1.0.2/MSDK/lwip/libcoap-4.3.4/src\coap_debug.c ****            "(%sDTLS and %sTLS support; %sPSK, %sPKI, %sPKCS11, and %sRPK support)\n(%sOSCORE)\n(%sW
 1095              		.loc 1 1166 3
 1096 008e 37070000 		lui	a4,%hi(.LC19)
 1097 0092 13070700 		addi	a4,a4,%lo(.LC19)
 1098              	.L77:
1166:C:/Users/stapi/OneDrive/Desktop/GD32VW553/GD32VW55X_Wifi_BLE_SDK/GD32VW55x_RELEASE_V1.0.2/MSDK/lwip/libcoap-4.3.4/src\coap_debug.c ****            "(%sDTLS and %sTLS support; %sPSK, %sPKI, %sPKCS11, and %sRPK support)\n(%sOSCORE)\n(%sW
 1099              		.loc 1 1166 3 discriminator 8
 1100 0096 631A0B06 		bne	s6,zero,.L87
1166:C:/Users/stapi/OneDrive/Desktop/GD32VW553/GD32VW55X_Wifi_BLE_SDK/GD32VW55x_RELEASE_V1.0.2/MSDK/lwip/libcoap-4.3.4/src\coap_debug.c ****            "(%sDTLS and %sTLS support; %sPSK, %sPKI, %sPKCS11, and %sRPK support)\n(%sOSCORE)\n(%sW
 1101              		.loc 1 1166 3
 1102 009a B7070000 		lui	a5,%hi(.LC19)
 1103 009e 93870700 		addi	a5,a5,%lo(.LC19)
 1104              	.L79:
1166:C:/Users/stapi/OneDrive/Desktop/GD32VW553/GD32VW55X_Wifi_BLE_SDK/GD32VW55x_RELEASE_V1.0.2/MSDK/lwip/libcoap-4.3.4/src\coap_debug.c ****            "(%sDTLS and %sTLS support; %sPSK, %sPKI, %sPKCS11, and %sRPK support)\n(%sOSCORE)\n(%sW
 1105              		.loc 1 1166 3 discriminator 12
 1106 00a2 63990A06 		bne	s5,zero,.L88
1166:C:/Users/stapi/OneDrive/Desktop/GD32VW553/GD32VW55X_Wifi_BLE_SDK/GD32VW55x_RELEASE_V1.0.2/MSDK/lwip/libcoap-4.3.4/src\coap_debug.c ****            "(%sDTLS and %sTLS support; %sPSK, %sPKI, %sPKCS11, and %sRPK support)\n(%sOSCORE)\n(%sW
 1107              		.loc 1 1166 3
 1108 00a6 37080000 		lui	a6,%hi(.LC19)
 1109 00aa 13080800 		addi	a6,a6,%lo(.LC19)
 1110              	.L80:
1166:C:/Users/stapi/OneDrive/Desktop/GD32VW553/GD32VW55X_Wifi_BLE_SDK/GD32VW55x_RELEASE_V1.0.2/MSDK/lwip/libcoap-4.3.4/src\coap_debug.c ****            "(%sDTLS and %sTLS support; %sPSK, %sPKI, %sPKCS11, and %sRPK support)\n(%sOSCORE)\n(%sW
 1111              		.loc 1 1166 3 discriminator 16
 1112 00ae 63180A06 		bne	s4,zero,.L89
1166:C:/Users/stapi/OneDrive/Desktop/GD32VW553/GD32VW55X_Wifi_BLE_SDK/GD32VW55x_RELEASE_V1.0.2/MSDK/lwip/libcoap-4.3.4/src\coap_debug.c ****            "(%sDTLS and %sTLS support; %sPSK, %sPKI, %sPKCS11, and %sRPK support)\n(%sOSCORE)\n(%sW
 1113              		.loc 1 1166 3
 1114 00b2 B7080000 		lui	a7,%hi(.LC19)
 1115 00b6 93880800 		addi	a7,a7,%lo(.LC19)
 1116              	.L81:
1166:C:/Users/stapi/OneDrive/Desktop/GD32VW553/GD32VW55X_Wifi_BLE_SDK/GD32VW55x_RELEASE_V1.0.2/MSDK/lwip/libcoap-4.3.4/src\coap_debug.c ****            "(%sDTLS and %sTLS support; %sPSK, %sPKI, %sPKCS11, and %sRPK support)\n(%sOSCORE)\n(%sW
 1117              		.loc 1 1166 3 discriminator 20
 1118 00ba 63970906 		bne	s3,zero,.L90
1166:C:/Users/stapi/OneDrive/Desktop/GD32VW553/GD32VW55X_Wifi_BLE_SDK/GD32VW55x_RELEASE_V1.0.2/MSDK/lwip/libcoap-4.3.4/src\coap_debug.c ****            "(%sDTLS and %sTLS support; %sPSK, %sPKI, %sPKCS11, and %sRPK support)\n(%sOSCORE)\n(%sW
 1119              		.loc 1 1166 3
 1120 00be 37060000 		lui	a2,%hi(.LC19)
 1121 00c2 13060600 		addi	a2,a2,%lo(.LC19)
 1122              	.L82:
1166:C:/Users/stapi/OneDrive/Desktop/GD32VW553/GD32VW55X_Wifi_BLE_SDK/GD32VW55x_RELEASE_V1.0.2/MSDK/lwip/libcoap-4.3.4/src\coap_debug.c ****            "(%sDTLS and %sTLS support; %sPSK, %sPKI, %sPKCS11, and %sRPK support)\n(%sOSCORE)\n(%sW
 1123              		.loc 1 1166 3 discriminator 24
 1124 00c6 63160906 		bne	s2,zero,.L91
1166:C:/Users/stapi/OneDrive/Desktop/GD32VW553/GD32VW55X_Wifi_BLE_SDK/GD32VW55x_RELEASE_V1.0.2/MSDK/lwip/libcoap-4.3.4/src\coap_debug.c ****            "(%sDTLS and %sTLS support; %sPSK, %sPKI, %sPKCS11, and %sRPK support)\n(%sOSCORE)\n(%sW
 1125              		.loc 1 1166 3
 1126 00ca 37030000 		lui	t1,%hi(.LC18)
 1127 00ce 13030300 		addi	t1,t1,%lo(.LC18)
 1128              	.L83:
1166:C:/Users/stapi/OneDrive/Desktop/GD32VW553/GD32VW55X_Wifi_BLE_SDK/GD32VW55x_RELEASE_V1.0.2/MSDK/lwip/libcoap-4.3.4/src\coap_debug.c ****            "(%sDTLS and %sTLS support; %sPSK, %sPKI, %sPKCS11, and %sRPK support)\n(%sOSCORE)\n(%sW
 1129              		.loc 1 1166 3 discriminator 28
 1130 00d2 63150E06 		bne	t3,zero,.L92
1166:C:/Users/stapi/OneDrive/Desktop/GD32VW553/GD32VW55X_Wifi_BLE_SDK/GD32VW55x_RELEASE_V1.0.2/MSDK/lwip/libcoap-4.3.4/src\coap_debug.c ****            "(%sDTLS and %sTLS support; %sPSK, %sPKI, %sPKCS11, and %sRPK support)\n(%sOSCORE)\n(%sW
 1131              		.loc 1 1166 3
 1132 00d6 37050000 		lui	a0,%hi(.LC18)
 1133              	.LVL88:
 1134 00da 13050500 		addi	a0,a0,%lo(.LC18)
 1135              	.L84:
1166:C:/Users/stapi/OneDrive/Desktop/GD32VW553/GD32VW55X_Wifi_BLE_SDK/GD32VW55x_RELEASE_V1.0.2/MSDK/lwip/libcoap-4.3.4/src\coap_debug.c ****            "(%sDTLS and %sTLS support; %sPSK, %sPKI, %sPKCS11, and %sRPK support)\n(%sOSCORE)\n(%sW
 1136              		.loc 1 1166 3 discriminator 32
 1137 00de 32C0     		sw	a2,0(sp)
 1138 00e0 37060000 		lui	a2,%hi(.LC22)
 1139 00e4 2AC4     		sw	a0,8(sp)
 1140 00e6 1AC2     		sw	t1,4(sp)
 1141 00e8 13060600 		addi	a2,a2,%lo(.LC22)
 1142 00ec 2285     		mv	a0,s0
 1143 00ee 97000000 		call	snprintf
 1143      E7800000 
 1144              	.LVL89:
1176:C:/Users/stapi/OneDrive/Desktop/GD32VW553/GD32VW55X_Wifi_BLE_SDK/GD32VW55x_RELEASE_V1.0.2/MSDK/lwip/libcoap-4.3.4/src\coap_debug.c **** }
 1145              		.loc 1 1176 3 is_stmt 1 discriminator 32
1176:C:/Users/stapi/OneDrive/Desktop/GD32VW553/GD32VW55X_Wifi_BLE_SDK/GD32VW55x_RELEASE_V1.0.2/MSDK/lwip/libcoap-4.3.4/src\coap_debug.c **** }
 1146              		.loc 1 1176 10 is_stmt 0 discriminator 32
 1147 00f6 49B7     		j	.L78
 1148              	.LVL90:
 1149              	.L85:
1166:C:/Users/stapi/OneDrive/Desktop/GD32VW553/GD32VW55X_Wifi_BLE_SDK/GD32VW55x_RELEASE_V1.0.2/MSDK/lwip/libcoap-4.3.4/src\coap_debug.c ****            "(%sDTLS and %sTLS support; %sPSK, %sPKI, %sPKCS11, and %sRPK support)\n(%sOSCORE)\n(%sW
 1150              		.loc 1 1166 3
 1151 00f8 B7060000 		lui	a3,%hi(.LC18)
 1152 00fc 93860600 		addi	a3,a3,%lo(.LC18)
 1153 0100 37070000 		lui	a4,%hi(.LC12)
 1154              	.L86:
 1155 0104 13070700 		addi	a4,a4,%lo(.LC12)
 1156 0108 79B7     		j	.L77
 1157              	.L87:
 1158 010a B7070000 		lui	a5,%hi(.LC12)
 1159 010e 93870700 		addi	a5,a5,%lo(.LC12)
 1160 0112 41BF     		j	.L79
 1161              	.L88:
 1162 0114 37080000 		lui	a6,%hi(.LC12)
 1163 0118 13080800 		addi	a6,a6,%lo(.LC12)
 1164 011c 49BF     		j	.L80
 1165              	.L89:
 1166 011e B7080000 		lui	a7,%hi(.LC12)
 1167 0122 93880800 		addi	a7,a7,%lo(.LC12)
 1168 0126 51BF     		j	.L81
 1169              	.L90:
 1170 0128 37060000 		lui	a2,%hi(.LC12)
 1171 012c 13060600 		addi	a2,a2,%lo(.LC12)
 1172 0130 59BF     		j	.L82
 1173              	.L91:
 1174 0132 37030000 		lui	t1,%hi(.LC20)
 1175 0136 13030300 		addi	t1,t1,%lo(.LC20)
 1176 013a 61BF     		j	.L83
 1177              	.L92:
 1178 013c 37050000 		lui	a0,%hi(.LC20)
 1179              	.LVL91:
 1180 0140 13050500 		addi	a0,a0,%lo(.LC20)
 1181 0144 69BF     		j	.L84
 1182              		.cfi_endproc
 1183              	.LFE49:
 1185              		.section	.text.coap_set_log_handler,"ax",@progbits
 1186              		.align	1
 1187              		.globl	coap_set_log_handler
 1189              	coap_set_log_handler:
 1190              	.LFB50:
1178:C:/Users/stapi/OneDrive/Desktop/GD32VW553/GD32VW55X_Wifi_BLE_SDK/GD32VW55x_RELEASE_V1.0.2/MSDK/lwip/libcoap-4.3.4/src\coap_debug.c **** 
1179:C:/Users/stapi/OneDrive/Desktop/GD32VW553/GD32VW55X_Wifi_BLE_SDK/GD32VW55x_RELEASE_V1.0.2/MSDK/lwip/libcoap-4.3.4/src\coap_debug.c **** static coap_log_handler_t log_handler = NULL;
1180:C:/Users/stapi/OneDrive/Desktop/GD32VW553/GD32VW55X_Wifi_BLE_SDK/GD32VW55x_RELEASE_V1.0.2/MSDK/lwip/libcoap-4.3.4/src\coap_debug.c **** 
1181:C:/Users/stapi/OneDrive/Desktop/GD32VW553/GD32VW55X_Wifi_BLE_SDK/GD32VW55x_RELEASE_V1.0.2/MSDK/lwip/libcoap-4.3.4/src\coap_debug.c **** void
1182:C:/Users/stapi/OneDrive/Desktop/GD32VW553/GD32VW55X_Wifi_BLE_SDK/GD32VW55x_RELEASE_V1.0.2/MSDK/lwip/libcoap-4.3.4/src\coap_debug.c **** coap_set_log_handler(coap_log_handler_t handler) {
 1191              		.loc 1 1182 50 is_stmt 1
 1192              		.cfi_startproc
 1193              	.LVL92:
1183:C:/Users/stapi/OneDrive/Desktop/GD32VW553/GD32VW55X_Wifi_BLE_SDK/GD32VW55x_RELEASE_V1.0.2/MSDK/lwip/libcoap-4.3.4/src\coap_debug.c ****   log_handler = handler;
 1194              		.loc 1 1183 3
 1195              		.loc 1 1183 15 is_stmt 0
 1196 0000 B7070000 		lui	a5,%hi(.LANCHOR7)
 1197 0004 23A0A700 		sw	a0,%lo(.LANCHOR7)(a5)
1184:C:/Users/stapi/OneDrive/Desktop/GD32VW553/GD32VW55X_Wifi_BLE_SDK/GD32VW55x_RELEASE_V1.0.2/MSDK/lwip/libcoap-4.3.4/src\coap_debug.c **** }
 1198              		.loc 1 1184 1
 1199 0008 8280     		ret
 1200              		.cfi_endproc
 1201              	.LFE50:
 1203              		.globl	__udivdi3
 1204              		.globl	__divdi3
 1205              		.globl	__umoddi3
 1206              		.globl	__moddi3
 1207              		.section	.rodata.coap_log_impl.str1.4,"aMS",@progbits,1
 1208              		.align	2
 1209              	.LC23:
 1210 0000 25752E25 		.string	"%u.%03u"
 1210      30337500 
 1211              		.align	2
 1212              	.LC24:
 1213 0008 252E2A73 		.string	"%.*s "
 1213      2000
 1214 000e 0000     		.align	2
 1215              	.LC25:
 1216 0010 25346420 		.string	"%4d "
 1216      00
 1217 0015 000000   		.align	2
 1218              	.LC26:
 1219 0018 25732000 		.string	"%s "
 1220              		.section	.text.coap_log_impl,"ax",@progbits
 1221              		.align	1
 1222              		.globl	coap_log_impl
 1224              	coap_log_impl:
 1225              	.LFB51:
1185:C:/Users/stapi/OneDrive/Desktop/GD32VW553/GD32VW55X_Wifi_BLE_SDK/GD32VW55x_RELEASE_V1.0.2/MSDK/lwip/libcoap-4.3.4/src\coap_debug.c **** 
1186:C:/Users/stapi/OneDrive/Desktop/GD32VW553/GD32VW55X_Wifi_BLE_SDK/GD32VW55x_RELEASE_V1.0.2/MSDK/lwip/libcoap-4.3.4/src\coap_debug.c **** void
1187:C:/Users/stapi/OneDrive/Desktop/GD32VW553/GD32VW55X_Wifi_BLE_SDK/GD32VW55x_RELEASE_V1.0.2/MSDK/lwip/libcoap-4.3.4/src\coap_debug.c **** coap_log_impl(coap_log_t level, const char *format, ...) {
 1226              		.loc 1 1187 58 is_stmt 1
 1227              		.cfi_startproc
 1228              	.LVL93:
1188:C:/Users/stapi/OneDrive/Desktop/GD32VW553/GD32VW55X_Wifi_BLE_SDK/GD32VW55x_RELEASE_V1.0.2/MSDK/lwip/libcoap-4.3.4/src\coap_debug.c **** 
1189:C:/Users/stapi/OneDrive/Desktop/GD32VW553/GD32VW55X_Wifi_BLE_SDK/GD32VW55x_RELEASE_V1.0.2/MSDK/lwip/libcoap-4.3.4/src\coap_debug.c ****   if (log_handler) {
 1229              		.loc 1 1189 3
1187:C:/Users/stapi/OneDrive/Desktop/GD32VW553/GD32VW55X_Wifi_BLE_SDK/GD32VW55x_RELEASE_V1.0.2/MSDK/lwip/libcoap-4.3.4/src\coap_debug.c **** 
 1230              		.loc 1 1187 58 is_stmt 0
 1231 0000 5571     		addi	sp,sp,-208
 1232              		.cfi_def_cfa_offset 208
 1233 0002 4AD1     		sw	s2,160(sp)
 1234              		.cfi_offset 18, -48
 1235              		.loc 1 1189 7
 1236 0004 37090000 		lui	s2,%hi(.LANCHOR7)
1187:C:/Users/stapi/OneDrive/Desktop/GD32VW553/GD32VW55X_Wifi_BLE_SDK/GD32VW55x_RELEASE_V1.0.2/MSDK/lwip/libcoap-4.3.4/src\coap_debug.c **** 
 1237              		.loc 1 1187 58
 1238 0008 32DD     		sw	a2,184(sp)
 1239 000a 36DF     		sw	a3,188(sp)
 1240 000c BAC1     		sw	a4,192(sp)
 1241 000e BEC3     		sw	a5,196(sp)
 1242 0010 C2C5     		sw	a6,200(sp)
 1243 0012 C6C7     		sw	a7,204(sp)
 1244              		.loc 1 1189 7
 1245 0014 13090900 		addi	s2,s2,%lo(.LANCHOR7)
 1246              		.loc 1 1189 6
 1247 0018 83270900 		lw	a5,0(s2)
1187:C:/Users/stapi/OneDrive/Desktop/GD32VW553/GD32VW55X_Wifi_BLE_SDK/GD32VW55x_RELEASE_V1.0.2/MSDK/lwip/libcoap-4.3.4/src\coap_debug.c **** 
 1248              		.loc 1 1187 58
 1249 001c 22D5     		sw	s0,168(sp)
 1250 001e 26D3     		sw	s1,164(sp)
 1251 0020 06D7     		sw	ra,172(sp)
 1252 0022 4ECF     		sw	s3,156(sp)
 1253              		.cfi_offset 8, -40
 1254              		.cfi_offset 9, -44
 1255              		.cfi_offset 1, -36
 1256              		.cfi_offset 19, -52
1187:C:/Users/stapi/OneDrive/Desktop/GD32VW553/GD32VW55X_Wifi_BLE_SDK/GD32VW55x_RELEASE_V1.0.2/MSDK/lwip/libcoap-4.3.4/src\coap_debug.c **** 
 1257              		.loc 1 1187 58
 1258 0024 2A84     		mv	s0,a0
 1259 0026 AE84     		mv	s1,a1
 1260              		.loc 1 1189 6
 1261 0028 85CB     		beq	a5,zero,.L96
 1262              	.LBB57:
1190:C:/Users/stapi/OneDrive/Desktop/GD32VW553/GD32VW55X_Wifi_BLE_SDK/GD32VW55x_RELEASE_V1.0.2/MSDK/lwip/libcoap-4.3.4/src\coap_debug.c **** #if COAP_CONSTRAINED_STACK
1191:C:/Users/stapi/OneDrive/Desktop/GD32VW553/GD32VW55X_Wifi_BLE_SDK/GD32VW55x_RELEASE_V1.0.2/MSDK/lwip/libcoap-4.3.4/src\coap_debug.c ****     /* message protected by mutex m_log_impl */
1192:C:/Users/stapi/OneDrive/Desktop/GD32VW553/GD32VW55X_Wifi_BLE_SDK/GD32VW55x_RELEASE_V1.0.2/MSDK/lwip/libcoap-4.3.4/src\coap_debug.c ****     static char message[COAP_DEBUG_BUF_SIZE];
1193:C:/Users/stapi/OneDrive/Desktop/GD32VW553/GD32VW55X_Wifi_BLE_SDK/GD32VW55x_RELEASE_V1.0.2/MSDK/lwip/libcoap-4.3.4/src\coap_debug.c **** #else /* ! COAP_CONSTRAINED_STACK */
1194:C:/Users/stapi/OneDrive/Desktop/GD32VW553/GD32VW55X_Wifi_BLE_SDK/GD32VW55x_RELEASE_V1.0.2/MSDK/lwip/libcoap-4.3.4/src\coap_debug.c ****     char message[COAP_DEBUG_BUF_SIZE];
 1263              		.loc 1 1194 5 is_stmt 1
1195:C:/Users/stapi/OneDrive/Desktop/GD32VW553/GD32VW55X_Wifi_BLE_SDK/GD32VW55x_RELEASE_V1.0.2/MSDK/lwip/libcoap-4.3.4/src\coap_debug.c **** #endif /* ! COAP_CONSTRAINED_STACK */
1196:C:/Users/stapi/OneDrive/Desktop/GD32VW553/GD32VW55X_Wifi_BLE_SDK/GD32VW55x_RELEASE_V1.0.2/MSDK/lwip/libcoap-4.3.4/src\coap_debug.c ****     va_list ap;
 1264              		.loc 1 1196 5
1197:C:/Users/stapi/OneDrive/Desktop/GD32VW553/GD32VW55X_Wifi_BLE_SDK/GD32VW55x_RELEASE_V1.0.2/MSDK/lwip/libcoap-4.3.4/src\coap_debug.c ****     va_start(ap, format);
 1265              		.loc 1 1197 5
 1266 002a 3C19     		addi	a5,sp,184
1198:C:/Users/stapi/OneDrive/Desktop/GD32VW553/GD32VW55X_Wifi_BLE_SDK/GD32VW55x_RELEASE_V1.0.2/MSDK/lwip/libcoap-4.3.4/src\coap_debug.c **** #if COAP_CONSTRAINED_STACK
1199:C:/Users/stapi/OneDrive/Desktop/GD32VW553/GD32VW55X_Wifi_BLE_SDK/GD32VW55x_RELEASE_V1.0.2/MSDK/lwip/libcoap-4.3.4/src\coap_debug.c ****     coap_mutex_lock(&m_log_impl);
1200:C:/Users/stapi/OneDrive/Desktop/GD32VW553/GD32VW55X_Wifi_BLE_SDK/GD32VW55x_RELEASE_V1.0.2/MSDK/lwip/libcoap-4.3.4/src\coap_debug.c **** #endif /* COAP_CONSTRAINED_STACK */
1201:C:/Users/stapi/OneDrive/Desktop/GD32VW553/GD32VW55X_Wifi_BLE_SDK/GD32VW55x_RELEASE_V1.0.2/MSDK/lwip/libcoap-4.3.4/src\coap_debug.c **** 
1202:C:/Users/stapi/OneDrive/Desktop/GD32VW553/GD32VW55X_Wifi_BLE_SDK/GD32VW55x_RELEASE_V1.0.2/MSDK/lwip/libcoap-4.3.4/src\coap_debug.c ****     vsnprintf(message, sizeof(message), format, ap);
 1267              		.loc 1 1202 5 is_stmt 0
 1268 002c BE86     		mv	a3,a5
 1269 002e 2E86     		mv	a2,a1
 1270 0030 0808     		addi	a0,sp,16
 1271              	.LVL94:
 1272 0032 93050008 		li	a1,128
 1273              	.LVL95:
1197:C:/Users/stapi/OneDrive/Desktop/GD32VW553/GD32VW55X_Wifi_BLE_SDK/GD32VW55x_RELEASE_V1.0.2/MSDK/lwip/libcoap-4.3.4/src\coap_debug.c ****     va_start(ap, format);
 1274              		.loc 1 1197 5
 1275 0036 3EC6     		sw	a5,12(sp)
 1276              		.loc 1 1202 5 is_stmt 1
 1277 0038 97000000 		call	vsnprintf
 1277      E7800000 
 1278              	.LVL96:
1203:C:/Users/stapi/OneDrive/Desktop/GD32VW553/GD32VW55X_Wifi_BLE_SDK/GD32VW55x_RELEASE_V1.0.2/MSDK/lwip/libcoap-4.3.4/src\coap_debug.c ****     va_end(ap);
 1279              		.loc 1 1203 5
1204:C:/Users/stapi/OneDrive/Desktop/GD32VW553/GD32VW55X_Wifi_BLE_SDK/GD32VW55x_RELEASE_V1.0.2/MSDK/lwip/libcoap-4.3.4/src\coap_debug.c ****     log_handler(level, message);
 1280              		.loc 1 1204 5
 1281 0040 83270900 		lw	a5,0(s2)
 1282 0044 0C08     		addi	a1,sp,16
 1283 0046 2285     		mv	a0,s0
 1284 0048 8297     		jalr	a5
 1285              	.LVL97:
 1286              	.L95:
 1287              	.LBE57:
1205:C:/Users/stapi/OneDrive/Desktop/GD32VW553/GD32VW55X_Wifi_BLE_SDK/GD32VW55x_RELEASE_V1.0.2/MSDK/lwip/libcoap-4.3.4/src\coap_debug.c **** #if COAP_CONSTRAINED_STACK
1206:C:/Users/stapi/OneDrive/Desktop/GD32VW553/GD32VW55X_Wifi_BLE_SDK/GD32VW55x_RELEASE_V1.0.2/MSDK/lwip/libcoap-4.3.4/src\coap_debug.c ****     coap_mutex_unlock(&m_log_impl);
1207:C:/Users/stapi/OneDrive/Desktop/GD32VW553/GD32VW55X_Wifi_BLE_SDK/GD32VW55x_RELEASE_V1.0.2/MSDK/lwip/libcoap-4.3.4/src\coap_debug.c **** #endif /* COAP_CONSTRAINED_STACK */
1208:C:/Users/stapi/OneDrive/Desktop/GD32VW553/GD32VW55X_Wifi_BLE_SDK/GD32VW55x_RELEASE_V1.0.2/MSDK/lwip/libcoap-4.3.4/src\coap_debug.c ****   } else {
1209:C:/Users/stapi/OneDrive/Desktop/GD32VW553/GD32VW55X_Wifi_BLE_SDK/GD32VW55x_RELEASE_V1.0.2/MSDK/lwip/libcoap-4.3.4/src\coap_debug.c ****     char timebuf[32];
1210:C:/Users/stapi/OneDrive/Desktop/GD32VW553/GD32VW55X_Wifi_BLE_SDK/GD32VW55x_RELEASE_V1.0.2/MSDK/lwip/libcoap-4.3.4/src\coap_debug.c ****     coap_tick_t now;
1211:C:/Users/stapi/OneDrive/Desktop/GD32VW553/GD32VW55X_Wifi_BLE_SDK/GD32VW55x_RELEASE_V1.0.2/MSDK/lwip/libcoap-4.3.4/src\coap_debug.c ****     va_list ap;
1212:C:/Users/stapi/OneDrive/Desktop/GD32VW553/GD32VW55X_Wifi_BLE_SDK/GD32VW55x_RELEASE_V1.0.2/MSDK/lwip/libcoap-4.3.4/src\coap_debug.c ****     FILE *log_fd;
1213:C:/Users/stapi/OneDrive/Desktop/GD32VW553/GD32VW55X_Wifi_BLE_SDK/GD32VW55x_RELEASE_V1.0.2/MSDK/lwip/libcoap-4.3.4/src\coap_debug.c ****     size_t len;
1214:C:/Users/stapi/OneDrive/Desktop/GD32VW553/GD32VW55X_Wifi_BLE_SDK/GD32VW55x_RELEASE_V1.0.2/MSDK/lwip/libcoap-4.3.4/src\coap_debug.c **** 
1215:C:/Users/stapi/OneDrive/Desktop/GD32VW553/GD32VW55X_Wifi_BLE_SDK/GD32VW55x_RELEASE_V1.0.2/MSDK/lwip/libcoap-4.3.4/src\coap_debug.c ****     log_fd = level <= COAP_LOG_CRIT ? COAP_ERR_FD : COAP_DEBUG_FD;
1216:C:/Users/stapi/OneDrive/Desktop/GD32VW553/GD32VW55X_Wifi_BLE_SDK/GD32VW55x_RELEASE_V1.0.2/MSDK/lwip/libcoap-4.3.4/src\coap_debug.c **** 
1217:C:/Users/stapi/OneDrive/Desktop/GD32VW553/GD32VW55X_Wifi_BLE_SDK/GD32VW55x_RELEASE_V1.0.2/MSDK/lwip/libcoap-4.3.4/src\coap_debug.c ****     coap_ticks(&now);
1218:C:/Users/stapi/OneDrive/Desktop/GD32VW553/GD32VW55X_Wifi_BLE_SDK/GD32VW55x_RELEASE_V1.0.2/MSDK/lwip/libcoap-4.3.4/src\coap_debug.c ****     len = print_timestamp(timebuf,sizeof(timebuf), now);
1219:C:/Users/stapi/OneDrive/Desktop/GD32VW553/GD32VW55X_Wifi_BLE_SDK/GD32VW55x_RELEASE_V1.0.2/MSDK/lwip/libcoap-4.3.4/src\coap_debug.c ****     if (len)
1220:C:/Users/stapi/OneDrive/Desktop/GD32VW553/GD32VW55X_Wifi_BLE_SDK/GD32VW55x_RELEASE_V1.0.2/MSDK/lwip/libcoap-4.3.4/src\coap_debug.c ****       fprintf(log_fd, "%.*s ", (int)len, timebuf);
1221:C:/Users/stapi/OneDrive/Desktop/GD32VW553/GD32VW55X_Wifi_BLE_SDK/GD32VW55x_RELEASE_V1.0.2/MSDK/lwip/libcoap-4.3.4/src\coap_debug.c **** 
1222:C:/Users/stapi/OneDrive/Desktop/GD32VW553/GD32VW55X_Wifi_BLE_SDK/GD32VW55x_RELEASE_V1.0.2/MSDK/lwip/libcoap-4.3.4/src\coap_debug.c ****     if (level >= sizeof(loglevels)/sizeof(loglevels[0])) {
1223:C:/Users/stapi/OneDrive/Desktop/GD32VW553/GD32VW55X_Wifi_BLE_SDK/GD32VW55x_RELEASE_V1.0.2/MSDK/lwip/libcoap-4.3.4/src\coap_debug.c ****       fprintf(log_fd, "%4d ", level);
1224:C:/Users/stapi/OneDrive/Desktop/GD32VW553/GD32VW55X_Wifi_BLE_SDK/GD32VW55x_RELEASE_V1.0.2/MSDK/lwip/libcoap-4.3.4/src\coap_debug.c ****     } else {
1225:C:/Users/stapi/OneDrive/Desktop/GD32VW553/GD32VW55X_Wifi_BLE_SDK/GD32VW55x_RELEASE_V1.0.2/MSDK/lwip/libcoap-4.3.4/src\coap_debug.c ****       fprintf(log_fd, "%s ", loglevels[level]);
1226:C:/Users/stapi/OneDrive/Desktop/GD32VW553/GD32VW55X_Wifi_BLE_SDK/GD32VW55x_RELEASE_V1.0.2/MSDK/lwip/libcoap-4.3.4/src\coap_debug.c ****     }
1227:C:/Users/stapi/OneDrive/Desktop/GD32VW553/GD32VW55X_Wifi_BLE_SDK/GD32VW55x_RELEASE_V1.0.2/MSDK/lwip/libcoap-4.3.4/src\coap_debug.c **** 
1228:C:/Users/stapi/OneDrive/Desktop/GD32VW553/GD32VW55X_Wifi_BLE_SDK/GD32VW55x_RELEASE_V1.0.2/MSDK/lwip/libcoap-4.3.4/src\coap_debug.c ****     va_start(ap, format);
1229:C:/Users/stapi/OneDrive/Desktop/GD32VW553/GD32VW55X_Wifi_BLE_SDK/GD32VW55x_RELEASE_V1.0.2/MSDK/lwip/libcoap-4.3.4/src\coap_debug.c ****     vfprintf(log_fd, format, ap);
1230:C:/Users/stapi/OneDrive/Desktop/GD32VW553/GD32VW55X_Wifi_BLE_SDK/GD32VW55x_RELEASE_V1.0.2/MSDK/lwip/libcoap-4.3.4/src\coap_debug.c ****     va_end(ap);
1231:C:/Users/stapi/OneDrive/Desktop/GD32VW553/GD32VW55X_Wifi_BLE_SDK/GD32VW55x_RELEASE_V1.0.2/MSDK/lwip/libcoap-4.3.4/src\coap_debug.c ****     fflush(log_fd);
1232:C:/Users/stapi/OneDrive/Desktop/GD32VW553/GD32VW55X_Wifi_BLE_SDK/GD32VW55x_RELEASE_V1.0.2/MSDK/lwip/libcoap-4.3.4/src\coap_debug.c ****   }
1233:C:/Users/stapi/OneDrive/Desktop/GD32VW553/GD32VW55X_Wifi_BLE_SDK/GD32VW55x_RELEASE_V1.0.2/MSDK/lwip/libcoap-4.3.4/src\coap_debug.c **** }
 1288              		.loc 1 1233 1 is_stmt 0
 1289 004a BA50     		lw	ra,172(sp)
 1290              		.cfi_remember_state
 1291              		.cfi_restore 1
 1292 004c 2A54     		lw	s0,168(sp)
 1293              		.cfi_restore 8
 1294 004e 9A54     		lw	s1,164(sp)
 1295              		.cfi_restore 9
 1296              	.LVL98:
 1297 0050 0A59     		lw	s2,160(sp)
 1298              		.cfi_restore 18
 1299 0052 FA49     		lw	s3,156(sp)
 1300              		.cfi_restore 19
 1301 0054 6961     		addi	sp,sp,208
 1302              		.cfi_def_cfa_offset 0
 1303 0056 8280     		jr	ra
 1304              	.LVL99:
 1305              	.L96:
 1306              		.cfi_restore_state
 1307              	.LBB58:
1209:C:/Users/stapi/OneDrive/Desktop/GD32VW553/GD32VW55X_Wifi_BLE_SDK/GD32VW55x_RELEASE_V1.0.2/MSDK/lwip/libcoap-4.3.4/src\coap_debug.c ****     coap_tick_t now;
 1308              		.loc 1 1209 5 is_stmt 1
1210:C:/Users/stapi/OneDrive/Desktop/GD32VW553/GD32VW55X_Wifi_BLE_SDK/GD32VW55x_RELEASE_V1.0.2/MSDK/lwip/libcoap-4.3.4/src\coap_debug.c ****     va_list ap;
 1309              		.loc 1 1210 5
1211:C:/Users/stapi/OneDrive/Desktop/GD32VW553/GD32VW55X_Wifi_BLE_SDK/GD32VW55x_RELEASE_V1.0.2/MSDK/lwip/libcoap-4.3.4/src\coap_debug.c ****     FILE *log_fd;
 1310              		.loc 1 1211 5
1212:C:/Users/stapi/OneDrive/Desktop/GD32VW553/GD32VW55X_Wifi_BLE_SDK/GD32VW55x_RELEASE_V1.0.2/MSDK/lwip/libcoap-4.3.4/src\coap_debug.c ****     size_t len;
 1311              		.loc 1 1212 5
1213:C:/Users/stapi/OneDrive/Desktop/GD32VW553/GD32VW55X_Wifi_BLE_SDK/GD32VW55x_RELEASE_V1.0.2/MSDK/lwip/libcoap-4.3.4/src\coap_debug.c **** 
 1312              		.loc 1 1213 5
1215:C:/Users/stapi/OneDrive/Desktop/GD32VW553/GD32VW55X_Wifi_BLE_SDK/GD32VW55x_RELEASE_V1.0.2/MSDK/lwip/libcoap-4.3.4/src\coap_debug.c **** 
 1313              		.loc 1 1215 5
1215:C:/Users/stapi/OneDrive/Desktop/GD32VW553/GD32VW55X_Wifi_BLE_SDK/GD32VW55x_RELEASE_V1.0.2/MSDK/lwip/libcoap-4.3.4/src\coap_debug.c **** 
 1314              		.loc 1 1215 39 is_stmt 0
 1315 0058 B7070000 		lui	a5,%hi(_impure_ptr)
1215:C:/Users/stapi/OneDrive/Desktop/GD32VW553/GD32VW55X_Wifi_BLE_SDK/GD32VW55x_RELEASE_V1.0.2/MSDK/lwip/libcoap-4.3.4/src\coap_debug.c **** 
 1316              		.loc 1 1215 12
 1317 005c 0947     		li	a4,2
1215:C:/Users/stapi/OneDrive/Desktop/GD32VW553/GD32VW55X_Wifi_BLE_SDK/GD32VW55x_RELEASE_V1.0.2/MSDK/lwip/libcoap-4.3.4/src\coap_debug.c **** 
 1318              		.loc 1 1215 39
 1319 005e 83A70700 		lw	a5,%lo(_impure_ptr)(a5)
1215:C:/Users/stapi/OneDrive/Desktop/GD32VW553/GD32VW55X_Wifi_BLE_SDK/GD32VW55x_RELEASE_V1.0.2/MSDK/lwip/libcoap-4.3.4/src\coap_debug.c **** 
 1320              		.loc 1 1215 12
 1321 0062 6366A70A 		bgtu	a0,a4,.L98
1215:C:/Users/stapi/OneDrive/Desktop/GD32VW553/GD32VW55X_Wifi_BLE_SDK/GD32VW55x_RELEASE_V1.0.2/MSDK/lwip/libcoap-4.3.4/src\coap_debug.c **** 
 1322              		.loc 1 1215 12 discriminator 1
 1323 0066 83A9C700 		lw	s3,12(a5)
 1324              	.L99:
 1325              	.LVL100:
1217:C:/Users/stapi/OneDrive/Desktop/GD32VW553/GD32VW55X_Wifi_BLE_SDK/GD32VW55x_RELEASE_V1.0.2/MSDK/lwip/libcoap-4.3.4/src\coap_debug.c ****     len = print_timestamp(timebuf,sizeof(timebuf), now);
 1326              		.loc 1 1217 5 is_stmt 1 discriminator 4
 1327              	.LBB59:
 1328              	.LBB60:
 1329              		.file 2 "..\\..\\..\\..\\lwip\\libcoap-4.3.4\\include/coap3/coap_time.h"
   1:..\..\..\..\lwip\libcoap-4.3.4\include/coap3/coap_time.h **** /*
   2:..\..\..\..\lwip\libcoap-4.3.4\include/coap3/coap_time.h ****  * coap_time.h -- Clock Handling
   3:..\..\..\..\lwip\libcoap-4.3.4\include/coap3/coap_time.h ****  *
   4:..\..\..\..\lwip\libcoap-4.3.4\include/coap3/coap_time.h ****  * Copyright (C) 2010-2023 Olaf Bergmann <bergmann@tzi.org>
   5:..\..\..\..\lwip\libcoap-4.3.4\include/coap3/coap_time.h ****  *
   6:..\..\..\..\lwip\libcoap-4.3.4\include/coap3/coap_time.h ****  * SPDX-License-Identifier: BSD-2-Clause
   7:..\..\..\..\lwip\libcoap-4.3.4\include/coap3/coap_time.h ****  *
   8:..\..\..\..\lwip\libcoap-4.3.4\include/coap3/coap_time.h ****  * This file is part of the CoAP library libcoap. Please see README for terms
   9:..\..\..\..\lwip\libcoap-4.3.4\include/coap3/coap_time.h ****  * of use.
  10:..\..\..\..\lwip\libcoap-4.3.4\include/coap3/coap_time.h ****  */
  11:..\..\..\..\lwip\libcoap-4.3.4\include/coap3/coap_time.h **** 
  12:..\..\..\..\lwip\libcoap-4.3.4\include/coap3/coap_time.h **** /**
  13:..\..\..\..\lwip\libcoap-4.3.4\include/coap3/coap_time.h ****  * @file coap_time.h
  14:..\..\..\..\lwip\libcoap-4.3.4\include/coap3/coap_time.h ****  * @brief Clock Handling
  15:..\..\..\..\lwip\libcoap-4.3.4\include/coap3/coap_time.h ****  */
  16:..\..\..\..\lwip\libcoap-4.3.4\include/coap3/coap_time.h **** 
  17:..\..\..\..\lwip\libcoap-4.3.4\include/coap3/coap_time.h **** #ifndef COAP_TIME_H_
  18:..\..\..\..\lwip\libcoap-4.3.4\include/coap3/coap_time.h **** #define COAP_TIME_H_
  19:..\..\..\..\lwip\libcoap-4.3.4\include/coap3/coap_time.h **** 
  20:..\..\..\..\lwip\libcoap-4.3.4\include/coap3/coap_time.h **** /**
  21:..\..\..\..\lwip\libcoap-4.3.4\include/coap3/coap_time.h ****  * @ingroup application_api
  22:..\..\..\..\lwip\libcoap-4.3.4\include/coap3/coap_time.h ****  * @defgroup clock Clock Handling
  23:..\..\..\..\lwip\libcoap-4.3.4\include/coap3/coap_time.h ****  * API for internal clock assess
  24:..\..\..\..\lwip\libcoap-4.3.4\include/coap3/coap_time.h ****  * @{
  25:..\..\..\..\lwip\libcoap-4.3.4\include/coap3/coap_time.h ****  */
  26:..\..\..\..\lwip\libcoap-4.3.4\include/coap3/coap_time.h **** 
  27:..\..\..\..\lwip\libcoap-4.3.4\include/coap3/coap_time.h **** #if defined(WITH_LWIP)
  28:..\..\..\..\lwip\libcoap-4.3.4\include/coap3/coap_time.h **** 
  29:..\..\..\..\lwip\libcoap-4.3.4\include/coap3/coap_time.h **** #include <stdint.h>
  30:..\..\..\..\lwip\libcoap-4.3.4\include/coap3/coap_time.h **** #include <lwip/sys.h>
  31:..\..\..\..\lwip\libcoap-4.3.4\include/coap3/coap_time.h **** 
  32:..\..\..\..\lwip\libcoap-4.3.4\include/coap3/coap_time.h **** /* lwIP provides ms in sys_now */
  33:..\..\..\..\lwip\libcoap-4.3.4\include/coap3/coap_time.h **** #define COAP_TICKS_PER_SECOND 1000
  34:..\..\..\..\lwip\libcoap-4.3.4\include/coap3/coap_time.h **** 
  35:..\..\..\..\lwip\libcoap-4.3.4\include/coap3/coap_time.h **** typedef uint32_t coap_tick_t;
  36:..\..\..\..\lwip\libcoap-4.3.4\include/coap3/coap_time.h **** typedef uint32_t coap_time_t;
  37:..\..\..\..\lwip\libcoap-4.3.4\include/coap3/coap_time.h **** typedef int32_t coap_tick_diff_t;
  38:..\..\..\..\lwip\libcoap-4.3.4\include/coap3/coap_time.h **** 
  39:..\..\..\..\lwip\libcoap-4.3.4\include/coap3/coap_time.h **** COAP_STATIC_INLINE void
  40:..\..\..\..\lwip\libcoap-4.3.4\include/coap3/coap_time.h **** coap_ticks_impl(coap_tick_t *t) {
  41:..\..\..\..\lwip\libcoap-4.3.4\include/coap3/coap_time.h ****   *t = sys_now();
 1330              		.loc 2 41 3 discriminator 4
 1331              		.loc 2 41 8 is_stmt 0 discriminator 4
 1332 006a 97000000 		call	sys_now
 1332      E7800000 
 1333              	.LVL101:
 1334 0072 2A89     		mv	s2,a0
 1335              	.LVL102:
 1336              	.LBE60:
 1337              	.LBE59:
1218:C:/Users/stapi/OneDrive/Desktop/GD32VW553/GD32VW55X_Wifi_BLE_SDK/GD32VW55x_RELEASE_V1.0.2/MSDK/lwip/libcoap-4.3.4/src\coap_debug.c ****     if (len)
 1338              		.loc 1 1218 5 is_stmt 1 discriminator 4
 1339              	.LBB61:
 1340              	.LBB62:
 139:C:/Users/stapi/OneDrive/Desktop/GD32VW553/GD32VW55X_Wifi_BLE_SDK/GD32VW55x_RELEASE_V1.0.2/MSDK/lwip/libcoap-4.3.4/src\coap_debug.c ****                   (unsigned int)coap_ticks_to_rt(t),
 1341              		.loc 1 139 3 discriminator 4
 1342              	.LBB63:
 1343              	.LBB64:
  42:..\..\..\..\lwip\libcoap-4.3.4\include/coap3/coap_time.h **** }
  43:..\..\..\..\lwip\libcoap-4.3.4\include/coap3/coap_time.h **** 
  44:..\..\..\..\lwip\libcoap-4.3.4\include/coap3/coap_time.h **** COAP_STATIC_INLINE void
  45:..\..\..\..\lwip\libcoap-4.3.4\include/coap3/coap_time.h **** coap_clock_init_impl(void) {
  46:..\..\..\..\lwip\libcoap-4.3.4\include/coap3/coap_time.h **** }
  47:..\..\..\..\lwip\libcoap-4.3.4\include/coap3/coap_time.h **** 
  48:..\..\..\..\lwip\libcoap-4.3.4\include/coap3/coap_time.h **** #define coap_clock_init coap_clock_init_impl
  49:..\..\..\..\lwip\libcoap-4.3.4\include/coap3/coap_time.h **** #define coap_ticks coap_ticks_impl
  50:..\..\..\..\lwip\libcoap-4.3.4\include/coap3/coap_time.h **** 
  51:..\..\..\..\lwip\libcoap-4.3.4\include/coap3/coap_time.h **** COAP_STATIC_INLINE coap_time_t
  52:..\..\..\..\lwip\libcoap-4.3.4\include/coap3/coap_time.h **** coap_ticks_to_rt(coap_tick_t t) {
  53:..\..\..\..\lwip\libcoap-4.3.4\include/coap3/coap_time.h ****   return t / COAP_TICKS_PER_SECOND;
 1344              		.loc 2 53 3 discriminator 4
 1345              	.LBE64:
 1346              	.LBE63:
 1347              	.LBB65:
 1348              	.LBB66:
  54:..\..\..\..\lwip\libcoap-4.3.4\include/coap3/coap_time.h **** }
  55:..\..\..\..\lwip\libcoap-4.3.4\include/coap3/coap_time.h **** 
  56:..\..\..\..\lwip\libcoap-4.3.4\include/coap3/coap_time.h **** COAP_STATIC_INLINE uint64_t
  57:..\..\..\..\lwip\libcoap-4.3.4\include/coap3/coap_time.h **** coap_ticks_to_rt_us(coap_tick_t t) {
  58:..\..\..\..\lwip\libcoap-4.3.4\include/coap3/coap_time.h ****   return (uint64_t)t * 1000000 / COAP_TICKS_PER_SECOND;
 1349              		.loc 2 58 3 discriminator 4
 1350              		.loc 2 58 32 is_stmt 0 discriminator 4
 1351 0074 37450F00 		li	a0,999424
 1352              	.LVL103:
 1353 0078 1306803E 		li	a2,1000
 1354 007c 8146     		li	a3,0
 1355 007e 13050524 		addi	a0,a0,576
 1356 0082 7F15A9F0 		mulr64	a0, s2, a0
 1357 0086 97000000 		call	__udivdi3
 1357      E7800000 
 1358              	.LVL104:
 1359              	.LBE66:
 1360              	.LBE65:
 141:C:/Users/stapi/OneDrive/Desktop/GD32VW553/GD32VW55X_Wifi_BLE_SDK/GD32VW55x_RELEASE_V1.0.2/MSDK/lwip/libcoap-4.3.4/src\coap_debug.c **** #else /* HAVE_SNPRINTF */
 1361              		.loc 1 141 58 discriminator 4
 1362 008e 37460F00 		li	a2,999424
 1363 0092 13060624 		addi	a2,a2,576
 1364 0096 8146     		li	a3,0
 1365 0098 97000000 		call	__umoddi3
 1365      E7800000 
 1366              	.LVL105:
 141:C:/Users/stapi/OneDrive/Desktop/GD32VW553/GD32VW55X_Wifi_BLE_SDK/GD32VW55x_RELEASE_V1.0.2/MSDK/lwip/libcoap-4.3.4/src\coap_debug.c **** #else /* HAVE_SNPRINTF */
 1367              		.loc 1 141 68 discriminator 4
 1368 00a0 1306803E 		li	a2,1000
 1369 00a4 8146     		li	a3,0
 1370 00a6 97000000 		call	__udivdi3
 1370      E7800000 
 1371              	.LVL106:
 139:C:/Users/stapi/OneDrive/Desktop/GD32VW553/GD32VW55X_Wifi_BLE_SDK/GD32VW55x_RELEASE_V1.0.2/MSDK/lwip/libcoap-4.3.4/src\coap_debug.c ****                   (unsigned int)coap_ticks_to_rt(t),
 1372              		.loc 1 139 10 discriminator 4
 1373 00ae 9306803E 		li	a3,1000
 1374 00b2 B356D902 		divu	a3,s2,a3
 1375 00b6 37060000 		lui	a2,%hi(.LC23)
 141:C:/Users/stapi/OneDrive/Desktop/GD32VW553/GD32VW55X_Wifi_BLE_SDK/GD32VW55x_RELEASE_V1.0.2/MSDK/lwip/libcoap-4.3.4/src\coap_debug.c **** #else /* HAVE_SNPRINTF */
 1376              		.loc 1 141 68 discriminator 4
 1377 00ba 2A87     		mv	a4,a0
 139:C:/Users/stapi/OneDrive/Desktop/GD32VW553/GD32VW55X_Wifi_BLE_SDK/GD32VW55x_RELEASE_V1.0.2/MSDK/lwip/libcoap-4.3.4/src\coap_debug.c ****                   (unsigned int)coap_ticks_to_rt(t),
 1378              		.loc 1 139 10 discriminator 4
 1379 00bc 13060600 		addi	a2,a2,%lo(.LC23)
 1380 00c0 93050002 		li	a1,32
 1381 00c4 0808     		addi	a0,sp,16
 1382              	.LVL107:
 1383 00c6 97000000 		call	snprintf
 1383      E7800000 
 1384              	.LVL108:
 1385 00ce AA85     		mv	a1,a0
 1386              	.LVL109:
 1387              	.LBE62:
 1388              	.LBE61:
1219:C:/Users/stapi/OneDrive/Desktop/GD32VW553/GD32VW55X_Wifi_BLE_SDK/GD32VW55x_RELEASE_V1.0.2/MSDK/lwip/libcoap-4.3.4/src\coap_debug.c ****       fprintf(log_fd, "%.*s ", (int)len, timebuf);
 1389              		.loc 1 1219 5 is_stmt 1 discriminator 4
1220:C:/Users/stapi/OneDrive/Desktop/GD32VW553/GD32VW55X_Wifi_BLE_SDK/GD32VW55x_RELEASE_V1.0.2/MSDK/lwip/libcoap-4.3.4/src\coap_debug.c **** 
 1390              		.loc 1 1220 7 discriminator 4
1220:C:/Users/stapi/OneDrive/Desktop/GD32VW553/GD32VW55X_Wifi_BLE_SDK/GD32VW55x_RELEASE_V1.0.2/MSDK/lwip/libcoap-4.3.4/src\coap_debug.c **** 
 1391              		.loc 1 1220 7 discriminator 4
 1392 00d0 37050000 		lui	a0,%hi(.LC24)
 1393              	.LVL110:
 1394 00d4 1008     		addi	a2,sp,16
 1395 00d6 13050500 		addi	a0,a0,%lo(.LC24)
 1396 00da 97000000 		call	printf
 1396      E7800000 
 1397              	.LVL111:
1220:C:/Users/stapi/OneDrive/Desktop/GD32VW553/GD32VW55X_Wifi_BLE_SDK/GD32VW55x_RELEASE_V1.0.2/MSDK/lwip/libcoap-4.3.4/src\coap_debug.c **** 
 1398              		.loc 1 1220 7 discriminator 4
1220:C:/Users/stapi/OneDrive/Desktop/GD32VW553/GD32VW55X_Wifi_BLE_SDK/GD32VW55x_RELEASE_V1.0.2/MSDK/lwip/libcoap-4.3.4/src\coap_debug.c **** 
 1399              		.loc 1 1220 50 discriminator 4
1222:C:/Users/stapi/OneDrive/Desktop/GD32VW553/GD32VW55X_Wifi_BLE_SDK/GD32VW55x_RELEASE_V1.0.2/MSDK/lwip/libcoap-4.3.4/src\coap_debug.c ****       fprintf(log_fd, "%4d ", level);
 1400              		.loc 1 1222 5 discriminator 4
1222:C:/Users/stapi/OneDrive/Desktop/GD32VW553/GD32VW55X_Wifi_BLE_SDK/GD32VW55x_RELEASE_V1.0.2/MSDK/lwip/libcoap-4.3.4/src\coap_debug.c ****       fprintf(log_fd, "%4d ", level);
 1401              		.loc 1 1222 8 is_stmt 0 discriminator 4
 1402 00e2 C147     		li	a5,16
 1403 00e4 63F88702 		bleu	s0,a5,.L100
1223:C:/Users/stapi/OneDrive/Desktop/GD32VW553/GD32VW55X_Wifi_BLE_SDK/GD32VW55x_RELEASE_V1.0.2/MSDK/lwip/libcoap-4.3.4/src\coap_debug.c ****     } else {
 1404              		.loc 1 1223 7 is_stmt 1
1223:C:/Users/stapi/OneDrive/Desktop/GD32VW553/GD32VW55X_Wifi_BLE_SDK/GD32VW55x_RELEASE_V1.0.2/MSDK/lwip/libcoap-4.3.4/src\coap_debug.c ****     } else {
 1405              		.loc 1 1223 7
 1406 00e8 37050000 		lui	a0,%hi(.LC25)
 1407 00ec A285     		mv	a1,s0
 1408 00ee 13050500 		addi	a0,a0,%lo(.LC25)
 1409              	.LVL112:
 1410              	.L103:
1225:C:/Users/stapi/OneDrive/Desktop/GD32VW553/GD32VW55X_Wifi_BLE_SDK/GD32VW55x_RELEASE_V1.0.2/MSDK/lwip/libcoap-4.3.4/src\coap_debug.c ****     }
 1411              		.loc 1 1225 7 is_stmt 0
 1412 00f2 97000000 		call	printf
 1412      E7800000 
 1413              	.LVL113:
1225:C:/Users/stapi/OneDrive/Desktop/GD32VW553/GD32VW55X_Wifi_BLE_SDK/GD32VW55x_RELEASE_V1.0.2/MSDK/lwip/libcoap-4.3.4/src\coap_debug.c ****     }
 1414              		.loc 1 1225 7 is_stmt 1
1225:C:/Users/stapi/OneDrive/Desktop/GD32VW553/GD32VW55X_Wifi_BLE_SDK/GD32VW55x_RELEASE_V1.0.2/MSDK/lwip/libcoap-4.3.4/src\coap_debug.c ****     }
 1415              		.loc 1 1225 47
1228:C:/Users/stapi/OneDrive/Desktop/GD32VW553/GD32VW55X_Wifi_BLE_SDK/GD32VW55x_RELEASE_V1.0.2/MSDK/lwip/libcoap-4.3.4/src\coap_debug.c ****     vfprintf(log_fd, format, ap);
 1416              		.loc 1 1228 5
 1417 00fa 3C19     		addi	a5,sp,184
1229:C:/Users/stapi/OneDrive/Desktop/GD32VW553/GD32VW55X_Wifi_BLE_SDK/GD32VW55x_RELEASE_V1.0.2/MSDK/lwip/libcoap-4.3.4/src\coap_debug.c ****     va_end(ap);
 1418              		.loc 1 1229 5 is_stmt 0
 1419 00fc 3E86     		mv	a2,a5
 1420 00fe A685     		mv	a1,s1
 1421 0100 4E85     		mv	a0,s3
1228:C:/Users/stapi/OneDrive/Desktop/GD32VW553/GD32VW55X_Wifi_BLE_SDK/GD32VW55x_RELEASE_V1.0.2/MSDK/lwip/libcoap-4.3.4/src\coap_debug.c ****     vfprintf(log_fd, format, ap);
 1422              		.loc 1 1228 5
 1423 0102 3EC6     		sw	a5,12(sp)
1229:C:/Users/stapi/OneDrive/Desktop/GD32VW553/GD32VW55X_Wifi_BLE_SDK/GD32VW55x_RELEASE_V1.0.2/MSDK/lwip/libcoap-4.3.4/src\coap_debug.c ****     va_end(ap);
 1424              		.loc 1 1229 5 is_stmt 1
 1425 0104 97000000 		call	vfprintf
 1425      E7800000 
 1426              	.LVL114:
1230:C:/Users/stapi/OneDrive/Desktop/GD32VW553/GD32VW55X_Wifi_BLE_SDK/GD32VW55x_RELEASE_V1.0.2/MSDK/lwip/libcoap-4.3.4/src\coap_debug.c ****     fflush(log_fd);
 1427              		.loc 1 1230 5
1231:C:/Users/stapi/OneDrive/Desktop/GD32VW553/GD32VW55X_Wifi_BLE_SDK/GD32VW55x_RELEASE_V1.0.2/MSDK/lwip/libcoap-4.3.4/src\coap_debug.c ****   }
 1428              		.loc 1 1231 19
 1429              	.LBE58:
 1430              		.loc 1 1233 1 is_stmt 0
 1431 010c 3DBF     		j	.L95
 1432              	.LVL115:
 1433              	.L98:
 1434              	.LBB67:
1215:C:/Users/stapi/OneDrive/Desktop/GD32VW553/GD32VW55X_Wifi_BLE_SDK/GD32VW55x_RELEASE_V1.0.2/MSDK/lwip/libcoap-4.3.4/src\coap_debug.c **** 
 1435              		.loc 1 1215 12 discriminator 2
 1436 010e 83A98700 		lw	s3,8(a5)
 1437 0112 A1BF     		j	.L99
 1438              	.LVL116:
 1439              	.L100:
1225:C:/Users/stapi/OneDrive/Desktop/GD32VW553/GD32VW55X_Wifi_BLE_SDK/GD32VW55x_RELEASE_V1.0.2/MSDK/lwip/libcoap-4.3.4/src\coap_debug.c ****     }
 1440              		.loc 1 1225 7 is_stmt 1
1225:C:/Users/stapi/OneDrive/Desktop/GD32VW553/GD32VW55X_Wifi_BLE_SDK/GD32VW55x_RELEASE_V1.0.2/MSDK/lwip/libcoap-4.3.4/src\coap_debug.c ****     }
 1441              		.loc 1 1225 7
 1442 0114 37050000 		lui	a0,%hi(.LANCHOR8)
 1443 0118 13050500 		addi	a0,a0,%lo(.LANCHOR8)
 1444 011c 3344A420 		sh2add	s0,s0,a0
 1445              	.LVL117:
 1446 0120 37050000 		lui	a0,%hi(.LC26)
 1447 0124 0C40     		lw	a1,0(s0)
 1448 0126 13050500 		addi	a0,a0,%lo(.LC26)
 1449 012a E1B7     		j	.L103
 1450              	.LBE67:
 1451              		.cfi_endproc
 1452              	.LFE51:
 1454              		.section	.rodata.coap_show_pdu.str1.4,"aMS",@progbits,1
 1455              		.align	2
 1456              	.LC27:
 1457 0000 2C00     		.string	","
 1458 0002 0000     		.align	2
 1459              	.LC28:
 1460 0004 43757374 		.string	"Custody"
 1460      6F647900 
 1461              		.align	2
 1462              	.LC29:
 1463 000c 4261642D 		.string	"Bad-CSM-Option"
 1463      43534D2D 
 1463      4F707469 
 1463      6F6E00
 1464 001b 00       		.align	2
 1465              	.LC30:
 1466 001c 763A2564 		.string	"v:%d t:%s c:%s i:%04x {"
 1466      20743A25 
 1466      7320633A 
 1466      25732069 
 1466      3A253034 
 1467              		.align	2
 1468              	.LC31:
 1469 0034 57656253 		.string	"WebSocket: type != CON\n"
 1469      6F636B65 
 1469      743A2074 
 1469      79706520 
 1469      213D2043 
 1470              		.align	2
 1471              	.LC32:
 1472 004c 763A5765 		.string	"v:WebSocket c:%s {"
 1472      62536F63 
 1472      6B657420 
 1472      633A2573 
 1472      207B00
 1473 005f 00       		.align	2
 1474              	.LC33:
 1475 0060 52656C69 		.string	"Reliable: type != CON\n"
 1475      61626C65 
 1475      3A207479 
 1475      70652021 
 1475      3D20434F 
 1476 0077 00       		.align	2
 1477              	.LC34:
 1478 0078 763A5265 		.string	"v:Reliable c:%s {"
 1478      6C696162 
 1478      6C652063 
 1478      3A257320 
 1478      7B00
 1479 008a 0000     		.align	2
 1480              	.LC35:
 1481 008c 25303278 		.string	"%02x"
 1481      00
 1482 0091 000000   		.align	2
 1483              	.LC36:
 1484 0094 7D00     		.string	"}"
 1485 0096 0000     		.align	2
 1486              	.LC37:
 1487 0098 205B00   		.string	" ["
 1488 009b 00       		.align	2
 1489              	.LC38:
 1490 009c 257500   		.string	"%u"
 1491 009f 00       		.align	2
 1492              	.LC39:
 1493 00a0 257300   		.string	"%s"
 1494 00a3 00       		.align	2
 1495              	.LC40:
 1496 00a4 256400   		.string	"%d"
 1497 00a7 00       		.align	2
 1498              	.LC41:
 1499 00a8 25752F25 		.string	"%u/%c/BERT(%zu)"
 1499      632F4245 
 1499      52542825 
 1499      7A752900 
 1500              		.align	2
 1501              	.LC42:
 1502 00b8 25752F25 		.string	"%u/%c/BERT"
 1502      632F4245 
 1502      525400
 1503 00c3 00       		.align	2
 1504              	.LC43:
 1505 00c4 25752F25 		.string	"%u/%c/%u"
 1505      632F2575 
 1505      00
 1506 00cd 000000   		.align	2
 1507              	.LC44:
 1508 00d0 67727000 		.string	"grp"
 1509              		.align	2
 1510              	.LC45:
 1511 00d4 25737049 		.string	"%spIV=0x"
 1511      563D3078 
 1511      00
 1512 00dd 000000   		.align	2
 1513              	.LC46:
 1514 00e0 25736B63 		.string	"%skc=0x"
 1514      3D307800 
 1515              		.align	2
 1516              	.LC47:
 1517 00e8 25736B69 		.string	"%skid=0x"
 1517      643D3078 
 1517      00
 1518 00f1 000000   		.align	2
 1519              	.LC48:
 1520 00f4 307800   		.string	"0x"
 1521 00f7 00       		.align	2
 1522              	.LC49:
 1523 00f8 2025733A 		.string	" %s:%.*s"
 1523      252E2A73 
 1523      00
 1524 0101 000000   		.align	2
 1525              	.LC50:
 1526 0104 205D00   		.string	" ]"
 1527 0107 00       		.align	2
 1528              	.LC51:
 1529 0108 203A3A20 		.string	" :: "
 1529      00
 1530 010d 000000   		.align	2
 1531              	.LC52:
 1532 0110 62696E61 		.string	"binary data length %zu\n"
 1532      72792064 
 1532      61746120 
 1532      6C656E67 
 1532      74682025 
 1533              		.align	2
 1534              	.LC53:
 1535 0128 3C3C00   		.string	"<<"
 1536 012b 00       		.align	2
 1537              	.LC54:
 1538 012c 3E3E00   		.string	">>"
 1539 012f 00       		.align	2
 1540              	.LC55:
 1541 0130 0A00     		.string	"\n"
 1542 0132 0000     		.align	2
 1543              	.LC56:
 1544 0134 25632000 		.string	"%c "
 1545              		.section	.text.coap_show_pdu,"ax",@progbits
 1546              		.align	1
 1547              		.globl	coap_show_pdu
 1549              	coap_show_pdu:
 1550              	.LFB46:
 703:C:/Users/stapi/OneDrive/Desktop/GD32VW553/GD32VW55X_Wifi_BLE_SDK/GD32VW55x_RELEASE_V1.0.2/MSDK/lwip/libcoap-4.3.4/src\coap_debug.c **** #if COAP_CONSTRAINED_STACK
 1551              		.loc 1 703 56
 1552              		.cfi_startproc
 1553              	.LVL118:
 1554 0000 17030000 		call	t0,__riscv_save_12
 1554      E7020300 
 1555              		.cfi_offset 27, -52
 1556              		.cfi_offset 26, -48
 1557              		.cfi_offset 25, -44
 1558              		.cfi_offset 24, -40
 1559              		.cfi_offset 23, -36
 1560              		.cfi_offset 22, -32
 1561              		.cfi_offset 21, -28
 1562              		.cfi_offset 20, -24
 1563              		.cfi_offset 19, -20
 1564              		.cfi_offset 18, -16
 1565              		.cfi_offset 9, -12
 1566              		.cfi_offset 8, -8
 1567              		.cfi_offset 1, -4
 1568              		.cfi_def_cfa_offset 64
 711:C:/Users/stapi/OneDrive/Desktop/GD32VW553/GD32VW55X_Wifi_BLE_SDK/GD32VW55x_RELEASE_V1.0.2/MSDK/lwip/libcoap-4.3.4/src\coap_debug.c ****   char outbuf[COAP_DEBUG_BUF_SIZE];
 1569              		.loc 1 711 3
 712:C:/Users/stapi/OneDrive/Desktop/GD32VW553/GD32VW55X_Wifi_BLE_SDK/GD32VW55x_RELEASE_V1.0.2/MSDK/lwip/libcoap-4.3.4/src\coap_debug.c **** #endif /* ! COAP_CONSTRAINED_STACK */
 1570              		.loc 1 712 3
 714:C:/Users/stapi/OneDrive/Desktop/GD32VW553/GD32VW55X_Wifi_BLE_SDK/GD32VW55x_RELEASE_V1.0.2/MSDK/lwip/libcoap-4.3.4/src\coap_debug.c ****   int encode = 0, have_options = 0;
 1571              		.loc 1 714 3
 1572              	.LVL119:
 715:C:/Users/stapi/OneDrive/Desktop/GD32VW553/GD32VW55X_Wifi_BLE_SDK/GD32VW55x_RELEASE_V1.0.2/MSDK/lwip/libcoap-4.3.4/src\coap_debug.c ****   uint32_t i;
 1573              		.loc 1 715 3
 716:C:/Users/stapi/OneDrive/Desktop/GD32VW553/GD32VW55X_Wifi_BLE_SDK/GD32VW55x_RELEASE_V1.0.2/MSDK/lwip/libcoap-4.3.4/src\coap_debug.c ****   coap_opt_iterator_t opt_iter;
 1574              		.loc 1 716 3
 717:C:/Users/stapi/OneDrive/Desktop/GD32VW553/GD32VW55X_Wifi_BLE_SDK/GD32VW55x_RELEASE_V1.0.2/MSDK/lwip/libcoap-4.3.4/src\coap_debug.c ****   coap_opt_t *option;
 1575              		.loc 1 717 3
 718:C:/Users/stapi/OneDrive/Desktop/GD32VW553/GD32VW55X_Wifi_BLE_SDK/GD32VW55x_RELEASE_V1.0.2/MSDK/lwip/libcoap-4.3.4/src\coap_debug.c ****   int content_format = -1;
 1576              		.loc 1 718 3
 719:C:/Users/stapi/OneDrive/Desktop/GD32VW553/GD32VW55X_Wifi_BLE_SDK/GD32VW55x_RELEASE_V1.0.2/MSDK/lwip/libcoap-4.3.4/src\coap_debug.c ****   size_t data_len;
 1577              		.loc 1 719 3
 720:C:/Users/stapi/OneDrive/Desktop/GD32VW553/GD32VW55X_Wifi_BLE_SDK/GD32VW55x_RELEASE_V1.0.2/MSDK/lwip/libcoap-4.3.4/src\coap_debug.c ****   const uint8_t *data;
 1578              		.loc 1 720 3
 721:C:/Users/stapi/OneDrive/Desktop/GD32VW553/GD32VW55X_Wifi_BLE_SDK/GD32VW55x_RELEASE_V1.0.2/MSDK/lwip/libcoap-4.3.4/src\coap_debug.c ****   uint32_t opt_len;
 1579              		.loc 1 721 3
 722:C:/Users/stapi/OneDrive/Desktop/GD32VW553/GD32VW55X_Wifi_BLE_SDK/GD32VW55x_RELEASE_V1.0.2/MSDK/lwip/libcoap-4.3.4/src\coap_debug.c ****   const uint8_t *opt_val;
 1580              		.loc 1 722 3
 723:C:/Users/stapi/OneDrive/Desktop/GD32VW553/GD32VW55X_Wifi_BLE_SDK/GD32VW55x_RELEASE_V1.0.2/MSDK/lwip/libcoap-4.3.4/src\coap_debug.c ****   size_t outbuflen = 0;
 1581              		.loc 1 723 3
 724:C:/Users/stapi/OneDrive/Desktop/GD32VW553/GD32VW55X_Wifi_BLE_SDK/GD32VW55x_RELEASE_V1.0.2/MSDK/lwip/libcoap-4.3.4/src\coap_debug.c ****   int is_oscore_payload = 0;
 1582              		.loc 1 724 3
 725:C:/Users/stapi/OneDrive/Desktop/GD32VW553/GD32VW55X_Wifi_BLE_SDK/GD32VW55x_RELEASE_V1.0.2/MSDK/lwip/libcoap-4.3.4/src\coap_debug.c **** 
 1583              		.loc 1 725 3
 728:C:/Users/stapi/OneDrive/Desktop/GD32VW553/GD32VW55X_Wifi_BLE_SDK/GD32VW55x_RELEASE_V1.0.2/MSDK/lwip/libcoap-4.3.4/src\coap_debug.c ****     return;
 1584              		.loc 1 728 3
 1585              	.LBB87:
 1586              	.LBB88:
  92:C:/Users/stapi/OneDrive/Desktop/GD32VW553/GD32VW55X_Wifi_BLE_SDK/GD32VW55x_RELEASE_V1.0.2/MSDK/lwip/libcoap-4.3.4/src\coap_debug.c **** }
 1587              		.loc 1 92 3
  92:C:/Users/stapi/OneDrive/Desktop/GD32VW553/GD32VW55X_Wifi_BLE_SDK/GD32VW55x_RELEASE_V1.0.2/MSDK/lwip/libcoap-4.3.4/src\coap_debug.c **** }
 1588              		.loc 1 92 10 is_stmt 0
 1589 0008 B70A0000 		lui	s5,%hi(.LANCHOR5)
 1590 000c 83A60A00 		lw	a3,%lo(.LANCHOR5)(s5)
 1591              	.LBE88:
 1592              	.LBE87:
 703:C:/Users/stapi/OneDrive/Desktop/GD32VW553/GD32VW55X_Wifi_BLE_SDK/GD32VW55x_RELEASE_V1.0.2/MSDK/lwip/libcoap-4.3.4/src\coap_debug.c **** #if COAP_CONSTRAINED_STACK
 1593              		.loc 1 703 56
 1594 0010 6971     		addi	sp,sp,-304
 1595              		.cfi_def_cfa_offset 368
 728:C:/Users/stapi/OneDrive/Desktop/GD32VW553/GD32VW55X_Wifi_BLE_SDK/GD32VW55x_RELEASE_V1.0.2/MSDK/lwip/libcoap-4.3.4/src\coap_debug.c ****     return;
 1596              		.loc 1 728 6
 1597 0012 63E8A638 		bgtu	a0,a3,.L104
 735:C:/Users/stapi/OneDrive/Desktop/GD32VW553/GD32VW55X_Wifi_BLE_SDK/GD32VW55x_RELEASE_V1.0.2/MSDK/lwip/libcoap-4.3.4/src\coap_debug.c ****     snprintf(outbuf, sizeof(outbuf), "v:%d t:%s c:%s i:%04x {",
 1598              		.loc 1 735 11
 1599 0016 F845     		lw	a4,76(a1)
 741:C:/Users/stapi/OneDrive/Desktop/GD32VW553/GD32VW55X_Wifi_BLE_SDK/GD32VW55x_RELEASE_V1.0.2/MSDK/lwip/libcoap-4.3.4/src\coap_debug.c ****       coap_log_alert("WebSocket: type != CON\n");
 1600              		.loc 1 741 12
 1601 0018 9C41     		lw	a5,0(a1)
 1602 001a AA89     		mv	s3,a0
 1603 001c AE84     		mv	s1,a1
 1604 001e 938A0A00 		addi	s5,s5,%lo(.LANCHOR5)
 735:C:/Users/stapi/OneDrive/Desktop/GD32VW553/GD32VW55X_Wifi_BLE_SDK/GD32VW55x_RELEASE_V1.0.2/MSDK/lwip/libcoap-4.3.4/src\coap_debug.c ****     snprintf(outbuf, sizeof(outbuf), "v:%d t:%s c:%s i:%04x {",
 1605              		.loc 1 735 3 is_stmt 1
 735:C:/Users/stapi/OneDrive/Desktop/GD32VW553/GD32VW55X_Wifi_BLE_SDK/GD32VW55x_RELEASE_V1.0.2/MSDK/lwip/libcoap-4.3.4/src\coap_debug.c ****     snprintf(outbuf, sizeof(outbuf), "v:%d t:%s c:%s i:%04x {",
 1606              		.loc 1 735 6 is_stmt 0
 1607 0022 19C7     		beq	a4,zero,.L106
 735:C:/Users/stapi/OneDrive/Desktop/GD32VW553/GD32VW55X_Wifi_BLE_SDK/GD32VW55x_RELEASE_V1.0.2/MSDK/lwip/libcoap-4.3.4/src\coap_debug.c ****     snprintf(outbuf, sizeof(outbuf), "v:%d t:%s c:%s i:%04x {",
 1608              		.loc 1 735 24 discriminator 1
 1609 0024 1843     		lw	a4,0(a4)
 735:C:/Users/stapi/OneDrive/Desktop/GD32VW553/GD32VW55X_Wifi_BLE_SDK/GD32VW55x_RELEASE_V1.0.2/MSDK/lwip/libcoap-4.3.4/src\coap_debug.c ****     snprintf(outbuf, sizeof(outbuf), "v:%d t:%s c:%s i:%04x {",
 1610              		.loc 1 735 21 discriminator 1
 1611 0026 0546     		li	a2,1
 735:C:/Users/stapi/OneDrive/Desktop/GD32VW553/GD32VW55X_Wifi_BLE_SDK/GD32VW55x_RELEASE_V1.0.2/MSDK/lwip/libcoap-4.3.4/src\coap_debug.c ****     snprintf(outbuf, sizeof(outbuf), "v:%d t:%s c:%s i:%04x {",
 1612              		.loc 1 735 24 discriminator 1
 1613 0028 9305F7FF 		addi	a1,a4,-1
 1614              	.LVL120:
 735:C:/Users/stapi/OneDrive/Desktop/GD32VW553/GD32VW55X_Wifi_BLE_SDK/GD32VW55x_RELEASE_V1.0.2/MSDK/lwip/libcoap-4.3.4/src\coap_debug.c ****     snprintf(outbuf, sizeof(outbuf), "v:%d t:%s c:%s i:%04x {",
 1615              		.loc 1 735 21 discriminator 1
 1616 002c 636BB604 		bgtu	a1,a2,.L107
 1617              	.L106:
 736:C:/Users/stapi/OneDrive/Desktop/GD32VW553/GD32VW55X_Wifi_BLE_SDK/GD32VW55x_RELEASE_V1.0.2/MSDK/lwip/libcoap-4.3.4/src\coap_debug.c ****              COAP_DEFAULT_VERSION, msg_type_string(pdu->type),
 1618              		.loc 1 736 5 is_stmt 1
 1619              	.LVL121:
 1620              	.LBB89:
 1621              	.LBB90:
 485:C:/Users/stapi/OneDrive/Desktop/GD32VW553/GD32VW55X_Wifi_BLE_SDK/GD32VW55x_RELEASE_V1.0.2/MSDK/lwip/libcoap-4.3.4/src\coap_debug.c **** 
 1622              		.loc 1 485 3
 487:C:/Users/stapi/OneDrive/Desktop/GD32VW553/GD32VW55X_Wifi_BLE_SDK/GD32VW55x_RELEASE_V1.0.2/MSDK/lwip/libcoap-4.3.4/src\coap_debug.c **** }
 1623              		.loc 1 487 3
 487:C:/Users/stapi/OneDrive/Desktop/GD32VW553/GD32VW55X_Wifi_BLE_SDK/GD32VW55x_RELEASE_V1.0.2/MSDK/lwip/libcoap-4.3.4/src\coap_debug.c **** }
 1624              		.loc 1 487 16 is_stmt 0
 1625 0030 1147     		li	a4,4
 1626 0032 B3C70708 		zext.h	a5,a5
 1627 0036 B3D7E70A 		minu	a5,a5,a4
 1628              	.LVL122:
 487:C:/Users/stapi/OneDrive/Desktop/GD32VW553/GD32VW55X_Wifi_BLE_SDK/GD32VW55x_RELEASE_V1.0.2/MSDK/lwip/libcoap-4.3.4/src\coap_debug.c **** }
 1629              		.loc 1 487 15
 1630 003a 37070000 		lui	a4,%hi(.LANCHOR10)
 1631 003e 13070700 		addi	a4,a4,%lo(.LANCHOR10)
 1632 0042 B3C7E720 		sh2add	a5,a5,a4
 1633              	.LBE90:
 1634              	.LBE89:
 736:C:/Users/stapi/OneDrive/Desktop/GD32VW553/GD32VW55X_Wifi_BLE_SDK/GD32VW55x_RELEASE_V1.0.2/MSDK/lwip/libcoap-4.3.4/src\coap_debug.c ****              COAP_DEFAULT_VERSION, msg_type_string(pdu->type),
 1635              		.loc 1 736 5
 1636 0046 03D54400 		lhu	a0,4(s1)
 1637              	.LVL123:
 1638              	.LBB92:
 1639              	.LBB91:
 487:C:/Users/stapi/OneDrive/Desktop/GD32VW553/GD32VW55X_Wifi_BLE_SDK/GD32VW55x_RELEASE_V1.0.2/MSDK/lwip/libcoap-4.3.4/src\coap_debug.c **** }
 1640              		.loc 1 487 15
 1641 004a 9843     		lw	a4,0(a5)
 1642 004c 3AC4     		sw	a4,8(sp)
 1643              	.LBE91:
 1644              	.LBE92:
 736:C:/Users/stapi/OneDrive/Desktop/GD32VW553/GD32VW55X_Wifi_BLE_SDK/GD32VW55x_RELEASE_V1.0.2/MSDK/lwip/libcoap-4.3.4/src\coap_debug.c ****              COAP_DEFAULT_VERSION, msg_type_string(pdu->type),
 1645              		.loc 1 736 5
 1646 004e 97000000 		call	msg_code_string
 1646      E7800000 
 1647              	.LVL124:
 1648 0056 03A88400 		lw	a6,8(s1)
 1649 005a 2247     		lw	a4,8(sp)
 1650 005c 37060000 		lui	a2,%hi(.LC30)
 1651 0060 AA87     		mv	a5,a0
 1652 0062 8546     		li	a3,1
 1653 0064 13060600 		addi	a2,a2,%lo(.LC30)
 1654 0068 93050008 		li	a1,128
 1655 006c 0819     		addi	a0,sp,176
 1656 006e 97000000 		call	snprintf
 1656      E7800000 
 1657              	.LVL125:
 1658              	.L108:
 703:C:/Users/stapi/OneDrive/Desktop/GD32VW553/GD32VW55X_Wifi_BLE_SDK/GD32VW55x_RELEASE_V1.0.2/MSDK/lwip/libcoap-4.3.4/src\coap_debug.c **** #if COAP_CONSTRAINED_STACK
 1659              		.loc 1 703 56 discriminator 1
 1660 0076 0144     		li	s0,0
 754:C:/Users/stapi/OneDrive/Desktop/GD32VW553/GD32VW55X_Wifi_BLE_SDK/GD32VW55x_RELEASE_V1.0.2/MSDK/lwip/libcoap-4.3.4/src\coap_debug.c ****              "%02x", pdu->actual_token.s[i]);
 1661              		.loc 1 754 5 discriminator 1
 1662 0078 13090008 		li	s2,128
 1663 007c 370A0000 		lui	s4,%hi(.LC35)
 1664 0080 71A0     		j	.L112
 1665              	.LVL126:
 1666              	.L107:
 739:C:/Users/stapi/OneDrive/Desktop/GD32VW553/GD32VW55X_Wifi_BLE_SDK/GD32VW55x_RELEASE_V1.0.2/MSDK/lwip/libcoap-4.3.4/src\coap_debug.c ****              pdu->session->proto == COAP_PROTO_WSS) {
 1667              		.loc 1 739 10 is_stmt 1
 739:C:/Users/stapi/OneDrive/Desktop/GD32VW553/GD32VW55X_Wifi_BLE_SDK/GD32VW55x_RELEASE_V1.0.2/MSDK/lwip/libcoap-4.3.4/src\coap_debug.c ****              pdu->session->proto == COAP_PROTO_WSS) {
 1668              		.loc 1 739 51 is_stmt 0
 1669 0082 6D17     		addi	a4,a4,-5
 739:C:/Users/stapi/OneDrive/Desktop/GD32VW553/GD32VW55X_Wifi_BLE_SDK/GD32VW55x_RELEASE_V1.0.2/MSDK/lwip/libcoap-4.3.4/src\coap_debug.c ****              pdu->session->proto == COAP_PROTO_WSS) {
 1670              		.loc 1 739 13
 1671 0084 6361E604 		bgtu	a4,a2,.L109
 741:C:/Users/stapi/OneDrive/Desktop/GD32VW553/GD32VW55X_Wifi_BLE_SDK/GD32VW55x_RELEASE_V1.0.2/MSDK/lwip/libcoap-4.3.4/src\coap_debug.c ****       coap_log_alert("WebSocket: type != CON\n");
 1672              		.loc 1 741 5 is_stmt 1
 741:C:/Users/stapi/OneDrive/Desktop/GD32VW553/GD32VW55X_Wifi_BLE_SDK/GD32VW55x_RELEASE_V1.0.2/MSDK/lwip/libcoap-4.3.4/src\coap_debug.c ****       coap_log_alert("WebSocket: type != CON\n");
 1673              		.loc 1 741 8 is_stmt 0
 1674 0088 81CF     		beq	a5,zero,.L110
 742:C:/Users/stapi/OneDrive/Desktop/GD32VW553/GD32VW55X_Wifi_BLE_SDK/GD32VW55x_RELEASE_V1.0.2/MSDK/lwip/libcoap-4.3.4/src\coap_debug.c ****     snprintf(outbuf, sizeof(outbuf), "v:WebSocket c:%s {",
 1675              		.loc 1 742 7 is_stmt 1
 742:C:/Users/stapi/OneDrive/Desktop/GD32VW553/GD32VW55X_Wifi_BLE_SDK/GD32VW55x_RELEASE_V1.0.2/MSDK/lwip/libcoap-4.3.4/src\coap_debug.c ****     snprintf(outbuf, sizeof(outbuf), "v:WebSocket c:%s {",
 1676              		.loc 1 742 7
  92:C:/Users/stapi/OneDrive/Desktop/GD32VW553/GD32VW55X_Wifi_BLE_SDK/GD32VW55x_RELEASE_V1.0.2/MSDK/lwip/libcoap-4.3.4/src\coap_debug.c **** }
 1677              		.loc 1 92 3
 742:C:/Users/stapi/OneDrive/Desktop/GD32VW553/GD32VW55X_Wifi_BLE_SDK/GD32VW55x_RELEASE_V1.0.2/MSDK/lwip/libcoap-4.3.4/src\coap_debug.c ****     snprintf(outbuf, sizeof(outbuf), "v:WebSocket c:%s {",
 1678              		.loc 1 742 7 is_stmt 0
 1679 008a 635BD000 		ble	a3,zero,.L110
 742:C:/Users/stapi/OneDrive/Desktop/GD32VW553/GD32VW55X_Wifi_BLE_SDK/GD32VW55x_RELEASE_V1.0.2/MSDK/lwip/libcoap-4.3.4/src\coap_debug.c ****     snprintf(outbuf, sizeof(outbuf), "v:WebSocket c:%s {",
 1680              		.loc 1 742 7 is_stmt 1 discriminator 1
 1681 008e B7050000 		lui	a1,%hi(.LC31)
 1682 0092 93850500 		addi	a1,a1,%lo(.LC31)
 1683 0096 0545     		li	a0,1
 1684              	.LVL127:
 1685 0098 97000000 		call	coap_log_impl
 1685      E7800000 
 1686              	.LVL128:
 1687              	.L110:
 742:C:/Users/stapi/OneDrive/Desktop/GD32VW553/GD32VW55X_Wifi_BLE_SDK/GD32VW55x_RELEASE_V1.0.2/MSDK/lwip/libcoap-4.3.4/src\coap_debug.c ****     snprintf(outbuf, sizeof(outbuf), "v:WebSocket c:%s {",
 1688              		.loc 1 742 7 discriminator 3
 743:C:/Users/stapi/OneDrive/Desktop/GD32VW553/GD32VW55X_Wifi_BLE_SDK/GD32VW55x_RELEASE_V1.0.2/MSDK/lwip/libcoap-4.3.4/src\coap_debug.c ****              msg_code_string(pdu->code));
 1689              		.loc 1 743 5 discriminator 3
 1690 00a0 03D54400 		lhu	a0,4(s1)
 1691 00a4 97000000 		call	msg_code_string
 1691      E7800000 
 1692              	.LVL129:
 1693 00ac 37060000 		lui	a2,%hi(.LC32)
 1694 00b0 AA86     		mv	a3,a0
 1695 00b2 13060600 		addi	a2,a2,%lo(.LC32)
 1696              	.L286:
 748:C:/Users/stapi/OneDrive/Desktop/GD32VW553/GD32VW55X_Wifi_BLE_SDK/GD32VW55x_RELEASE_V1.0.2/MSDK/lwip/libcoap-4.3.4/src\coap_debug.c ****              msg_code_string(pdu->code));
 1697              		.loc 1 748 5 is_stmt 0 discriminator 3
 1698 00b6 93050008 		li	a1,128
 1699 00ba 0819     		addi	a0,sp,176
 1700 00bc 97000000 		call	snprintf
 1700      E7800000 
 1701              	.LVL130:
 1702 00c4 4DBF     		j	.L108
 1703              	.LVL131:
 1704              	.L109:
 746:C:/Users/stapi/OneDrive/Desktop/GD32VW553/GD32VW55X_Wifi_BLE_SDK/GD32VW55x_RELEASE_V1.0.2/MSDK/lwip/libcoap-4.3.4/src\coap_debug.c ****       coap_log_alert("Reliable: type != CON\n");
 1705              		.loc 1 746 5 is_stmt 1
 746:C:/Users/stapi/OneDrive/Desktop/GD32VW553/GD32VW55X_Wifi_BLE_SDK/GD32VW55x_RELEASE_V1.0.2/MSDK/lwip/libcoap-4.3.4/src\coap_debug.c ****       coap_log_alert("Reliable: type != CON\n");
 1706              		.loc 1 746 8 is_stmt 0
 1707 00c6 81CF     		beq	a5,zero,.L111
 747:C:/Users/stapi/OneDrive/Desktop/GD32VW553/GD32VW55X_Wifi_BLE_SDK/GD32VW55x_RELEASE_V1.0.2/MSDK/lwip/libcoap-4.3.4/src\coap_debug.c ****     snprintf(outbuf, sizeof(outbuf), "v:Reliable c:%s {",
 1708              		.loc 1 747 7 is_stmt 1
 747:C:/Users/stapi/OneDrive/Desktop/GD32VW553/GD32VW55X_Wifi_BLE_SDK/GD32VW55x_RELEASE_V1.0.2/MSDK/lwip/libcoap-4.3.4/src\coap_debug.c ****     snprintf(outbuf, sizeof(outbuf), "v:Reliable c:%s {",
 1709              		.loc 1 747 7
  92:C:/Users/stapi/OneDrive/Desktop/GD32VW553/GD32VW55X_Wifi_BLE_SDK/GD32VW55x_RELEASE_V1.0.2/MSDK/lwip/libcoap-4.3.4/src\coap_debug.c **** }
 1710              		.loc 1 92 3
 747:C:/Users/stapi/OneDrive/Desktop/GD32VW553/GD32VW55X_Wifi_BLE_SDK/GD32VW55x_RELEASE_V1.0.2/MSDK/lwip/libcoap-4.3.4/src\coap_debug.c ****     snprintf(outbuf, sizeof(outbuf), "v:Reliable c:%s {",
 1711              		.loc 1 747 7 is_stmt 0
 1712 00c8 635BD000 		ble	a3,zero,.L111
 747:C:/Users/stapi/OneDrive/Desktop/GD32VW553/GD32VW55X_Wifi_BLE_SDK/GD32VW55x_RELEASE_V1.0.2/MSDK/lwip/libcoap-4.3.4/src\coap_debug.c ****     snprintf(outbuf, sizeof(outbuf), "v:Reliable c:%s {",
 1713              		.loc 1 747 7 is_stmt 1 discriminator 1
 1714 00cc B7050000 		lui	a1,%hi(.LC33)
 1715 00d0 93850500 		addi	a1,a1,%lo(.LC33)
 1716 00d4 0545     		li	a0,1
 1717              	.LVL132:
 1718 00d6 97000000 		call	coap_log_impl
 1718      E7800000 
 1719              	.LVL133:
 1720              	.L111:
 747:C:/Users/stapi/OneDrive/Desktop/GD32VW553/GD32VW55X_Wifi_BLE_SDK/GD32VW55x_RELEASE_V1.0.2/MSDK/lwip/libcoap-4.3.4/src\coap_debug.c ****     snprintf(outbuf, sizeof(outbuf), "v:Reliable c:%s {",
 1721              		.loc 1 747 7 discriminator 3
 748:C:/Users/stapi/OneDrive/Desktop/GD32VW553/GD32VW55X_Wifi_BLE_SDK/GD32VW55x_RELEASE_V1.0.2/MSDK/lwip/libcoap-4.3.4/src\coap_debug.c ****              msg_code_string(pdu->code));
 1722              		.loc 1 748 5 discriminator 3
 1723 00de 03D54400 		lhu	a0,4(s1)
 1724 00e2 97000000 		call	msg_code_string
 1724      E7800000 
 1725              	.LVL134:
 1726 00ea 37060000 		lui	a2,%hi(.LC34)
 1727 00ee AA86     		mv	a3,a0
 1728 00f0 13060600 		addi	a2,a2,%lo(.LC34)
 1729 00f4 C9B7     		j	.L286
 1730              	.LVL135:
 1731              	.L113:
 753:C:/Users/stapi/OneDrive/Desktop/GD32VW553/GD32VW55X_Wifi_BLE_SDK/GD32VW55x_RELEASE_V1.0.2/MSDK/lwip/libcoap-4.3.4/src\coap_debug.c ****     snprintf(&outbuf[outbuflen], sizeof(outbuf)-outbuflen,
 1732              		.loc 1 753 5 discriminator 3
 754:C:/Users/stapi/OneDrive/Desktop/GD32VW553/GD32VW55X_Wifi_BLE_SDK/GD32VW55x_RELEASE_V1.0.2/MSDK/lwip/libcoap-4.3.4/src\coap_debug.c ****              "%02x", pdu->actual_token.s[i]);
 1733              		.loc 1 754 5 discriminator 3
 755:C:/Users/stapi/OneDrive/Desktop/GD32VW553/GD32VW55X_Wifi_BLE_SDK/GD32VW55x_RELEASE_V1.0.2/MSDK/lwip/libcoap-4.3.4/src\coap_debug.c ****   }
 1734              		.loc 1 755 41 is_stmt 0 discriminator 3
 1735 00f6 DC4C     		lw	a5,28(s1)
 754:C:/Users/stapi/OneDrive/Desktop/GD32VW553/GD32VW55X_Wifi_BLE_SDK/GD32VW55x_RELEASE_V1.0.2/MSDK/lwip/libcoap-4.3.4/src\coap_debug.c ****              "%02x", pdu->actual_token.s[i]);
 1736              		.loc 1 754 5 discriminator 3
 1737 00f8 13060A00 		addi	a2,s4,%lo(.LC35)
 755:C:/Users/stapi/OneDrive/Desktop/GD32VW553/GD32VW55X_Wifi_BLE_SDK/GD32VW55x_RELEASE_V1.0.2/MSDK/lwip/libcoap-4.3.4/src\coap_debug.c ****   }
 1738              		.loc 1 755 41 discriminator 3
 1739 00fc A297     		add	a5,a5,s0
 754:C:/Users/stapi/OneDrive/Desktop/GD32VW553/GD32VW55X_Wifi_BLE_SDK/GD32VW55x_RELEASE_V1.0.2/MSDK/lwip/libcoap-4.3.4/src\coap_debug.c ****              "%02x", pdu->actual_token.s[i]);
 1740              		.loc 1 754 5 discriminator 3
 1741 00fe 83C60700 		lbu	a3,0(a5)
 752:C:/Users/stapi/OneDrive/Desktop/GD32VW553/GD32VW55X_Wifi_BLE_SDK/GD32VW55x_RELEASE_V1.0.2/MSDK/lwip/libcoap-4.3.4/src\coap_debug.c ****     outbuflen = strlen(outbuf);
 1742              		.loc 1 752 46 discriminator 3
 1743 0102 0504     		addi	s0,s0,1
 1744              	.LVL136:
 754:C:/Users/stapi/OneDrive/Desktop/GD32VW553/GD32VW55X_Wifi_BLE_SDK/GD32VW55x_RELEASE_V1.0.2/MSDK/lwip/libcoap-4.3.4/src\coap_debug.c ****              "%02x", pdu->actual_token.s[i]);
 1745              		.loc 1 754 5 discriminator 3
 1746 0104 97000000 		call	snprintf
 1746      E7800000 
 1747              	.LVL137:
 752:C:/Users/stapi/OneDrive/Desktop/GD32VW553/GD32VW55X_Wifi_BLE_SDK/GD32VW55x_RELEASE_V1.0.2/MSDK/lwip/libcoap-4.3.4/src\coap_debug.c ****     outbuflen = strlen(outbuf);
 1748              		.loc 1 752 45 is_stmt 1 discriminator 3
 1749              	.L112:
 752:C:/Users/stapi/OneDrive/Desktop/GD32VW553/GD32VW55X_Wifi_BLE_SDK/GD32VW55x_RELEASE_V1.0.2/MSDK/lwip/libcoap-4.3.4/src\coap_debug.c ****     outbuflen = strlen(outbuf);
 1750              		.loc 1 752 15 discriminator 1
 753:C:/Users/stapi/OneDrive/Desktop/GD32VW553/GD32VW55X_Wifi_BLE_SDK/GD32VW55x_RELEASE_V1.0.2/MSDK/lwip/libcoap-4.3.4/src\coap_debug.c ****     snprintf(&outbuf[outbuflen], sizeof(outbuf)-outbuflen,
 1751              		.loc 1 753 17 is_stmt 0 discriminator 1
 1752 010c 0819     		addi	a0,sp,176
 1753 010e 97000000 		call	strlen
 1753      E7800000 
 1754              	.LVL138:
 754:C:/Users/stapi/OneDrive/Desktop/GD32VW553/GD32VW55X_Wifi_BLE_SDK/GD32VW55x_RELEASE_V1.0.2/MSDK/lwip/libcoap-4.3.4/src\coap_debug.c ****              "%02x", pdu->actual_token.s[i]);
 1755              		.loc 1 754 5 discriminator 1
 1756 0116 1C19     		addi	a5,sp,176
 753:C:/Users/stapi/OneDrive/Desktop/GD32VW553/GD32VW55X_Wifi_BLE_SDK/GD32VW55x_RELEASE_V1.0.2/MSDK/lwip/libcoap-4.3.4/src\coap_debug.c ****     snprintf(&outbuf[outbuflen], sizeof(outbuf)-outbuflen,
 1757              		.loc 1 753 17 discriminator 1
 1758 0118 AA85     		mv	a1,a0
 754:C:/Users/stapi/OneDrive/Desktop/GD32VW553/GD32VW55X_Wifi_BLE_SDK/GD32VW55x_RELEASE_V1.0.2/MSDK/lwip/libcoap-4.3.4/src\coap_debug.c ****              "%02x", pdu->actual_token.s[i]);
 1759              		.loc 1 754 5 discriminator 1
 1760 011a 3E95     		add	a0,a5,a0
 752:C:/Users/stapi/OneDrive/Desktop/GD32VW553/GD32VW55X_Wifi_BLE_SDK/GD32VW55x_RELEASE_V1.0.2/MSDK/lwip/libcoap-4.3.4/src\coap_debug.c ****     outbuflen = strlen(outbuf);
 1761              		.loc 1 752 3 discriminator 1
 1762 011c 9C4C     		lw	a5,24(s1)
 754:C:/Users/stapi/OneDrive/Desktop/GD32VW553/GD32VW55X_Wifi_BLE_SDK/GD32VW55x_RELEASE_V1.0.2/MSDK/lwip/libcoap-4.3.4/src\coap_debug.c ****              "%02x", pdu->actual_token.s[i]);
 1763              		.loc 1 754 5 discriminator 1
 1764 011e B305B940 		sub	a1,s2,a1
 752:C:/Users/stapi/OneDrive/Desktop/GD32VW553/GD32VW55X_Wifi_BLE_SDK/GD32VW55x_RELEASE_V1.0.2/MSDK/lwip/libcoap-4.3.4/src\coap_debug.c ****     outbuflen = strlen(outbuf);
 1765              		.loc 1 752 3 discriminator 1
 1766 0122 E36AF4FC 		bgtu	a5,s0,.L113
 757:C:/Users/stapi/OneDrive/Desktop/GD32VW553/GD32VW55X_Wifi_BLE_SDK/GD32VW55x_RELEASE_V1.0.2/MSDK/lwip/libcoap-4.3.4/src\coap_debug.c ****   snprintf(&outbuf[outbuflen], sizeof(outbuf)-outbuflen,  "}");
 1767              		.loc 1 757 3 is_stmt 1
 758:C:/Users/stapi/OneDrive/Desktop/GD32VW553/GD32VW55X_Wifi_BLE_SDK/GD32VW55x_RELEASE_V1.0.2/MSDK/lwip/libcoap-4.3.4/src\coap_debug.c **** 
 1768              		.loc 1 758 3
 1769 0126 37060000 		lui	a2,%hi(.LC36)
 1770 012a 13060600 		addi	a2,a2,%lo(.LC36)
 1771 012e 97000000 		call	snprintf
 1771      E7800000 
 1772              	.LVL139:
 761:C:/Users/stapi/OneDrive/Desktop/GD32VW553/GD32VW55X_Wifi_BLE_SDK/GD32VW55x_RELEASE_V1.0.2/MSDK/lwip/libcoap-4.3.4/src\coap_debug.c **** 
 1773              		.loc 1 761 3
 1774 0136 0146     		li	a2,0
 1775 0138 2C08     		addi	a1,sp,24
 1776 013a 2685     		mv	a0,s1
 1777 013c 97000000 		call	coap_option_iterator_init
 1777      E7800000 
 1778              	.LVL140:
 763:C:/Users/stapi/OneDrive/Desktop/GD32VW553/GD32VW55X_Wifi_BLE_SDK/GD32VW55x_RELEASE_V1.0.2/MSDK/lwip/libcoap-4.3.4/src\coap_debug.c ****   snprintf(&outbuf[outbuflen], sizeof(outbuf)-outbuflen,  " [");
 1779              		.loc 1 763 3
 763:C:/Users/stapi/OneDrive/Desktop/GD32VW553/GD32VW55X_Wifi_BLE_SDK/GD32VW55x_RELEASE_V1.0.2/MSDK/lwip/libcoap-4.3.4/src\coap_debug.c ****   snprintf(&outbuf[outbuflen], sizeof(outbuf)-outbuflen,  " [");
 1780              		.loc 1 763 15 is_stmt 0
 1781 0144 0819     		addi	a0,sp,176
 1782 0146 97000000 		call	strlen
 1782      E7800000 
 1783              	.LVL141:
 764:C:/Users/stapi/OneDrive/Desktop/GD32VW553/GD32VW55X_Wifi_BLE_SDK/GD32VW55x_RELEASE_V1.0.2/MSDK/lwip/libcoap-4.3.4/src\coap_debug.c ****   while ((option = coap_option_next(&opt_iter))) {
 1784              		.loc 1 764 3 is_stmt 1
 1785 014e 1C19     		addi	a5,sp,176
 1786 0150 37060000 		lui	a2,%hi(.LC37)
 1787 0154 B305A940 		sub	a1,s2,a0
 1788 0158 13060600 		addi	a2,a2,%lo(.LC37)
 1789 015c 3E95     		add	a0,a5,a0
 1790              	.LVL142:
 1791 015e 97000000 		call	snprintf
 1791      E7800000 
 1792              	.LVL143:
 765:C:/Users/stapi/OneDrive/Desktop/GD32VW553/GD32VW55X_Wifi_BLE_SDK/GD32VW55x_RELEASE_V1.0.2/MSDK/lwip/libcoap-4.3.4/src\coap_debug.c ****     buf[0] = '\000';
 1793              		.loc 1 765 3
 1794 0166 B7070000 		lui	a5,%hi(.L125)
 1795 016a 93870700 		addi	a5,a5,%lo(.L125)
 1796              	.LBB93:
 902:C:/Users/stapi/OneDrive/Desktop/GD32VW553/GD32VW55X_Wifi_BLE_SDK/GD32VW55x_RELEASE_V1.0.2/MSDK/lwip/libcoap-4.3.4/src\coap_debug.c ****                      buf_len ? "," : "");
 1797              		.loc 1 902 13 is_stmt 0
 1798 016e B70B0000 		lui	s7,%hi(.LC12)
 1799              	.LBE93:
 725:C:/Users/stapi/OneDrive/Desktop/GD32VW553/GD32VW55X_Wifi_BLE_SDK/GD32VW55x_RELEASE_V1.0.2/MSDK/lwip/libcoap-4.3.4/src\coap_debug.c **** 
 1800              		.loc 1 725 7
 1801 0172 014A     		li	s4,0
 719:C:/Users/stapi/OneDrive/Desktop/GD32VW553/GD32VW55X_Wifi_BLE_SDK/GD32VW55x_RELEASE_V1.0.2/MSDK/lwip/libcoap-4.3.4/src\coap_debug.c ****   size_t data_len;
 1802              		.loc 1 719 7
 1803 0174 7D5C     		li	s8,-1
 715:C:/Users/stapi/OneDrive/Desktop/GD32VW553/GD32VW55X_Wifi_BLE_SDK/GD32VW55x_RELEASE_V1.0.2/MSDK/lwip/libcoap-4.3.4/src\coap_debug.c ****   uint32_t i;
 1804              		.loc 1 715 19
 1805 0176 0149     		li	s2,0
 714:C:/Users/stapi/OneDrive/Desktop/GD32VW553/GD32VW55X_Wifi_BLE_SDK/GD32VW55x_RELEASE_V1.0.2/MSDK/lwip/libcoap-4.3.4/src\coap_debug.c ****   int encode = 0, have_options = 0;
 1806              		.loc 1 714 10
 1807 0178 014D     		li	s10,0
 940:C:/Users/stapi/OneDrive/Desktop/GD32VW553/GD32VW55X_Wifi_BLE_SDK/GD32VW55x_RELEASE_V1.0.2/MSDK/lwip/libcoap-4.3.4/src\coap_debug.c ****                    "%02x", opt_val[i]);
 1808              		.loc 1 940 11
 1809 017a B70C0000 		lui	s9,%hi(.LC35)
 1810 017e 3EC6     		sw	a5,12(sp)
 1811              	.LBB94:
 902:C:/Users/stapi/OneDrive/Desktop/GD32VW553/GD32VW55X_Wifi_BLE_SDK/GD32VW55x_RELEASE_V1.0.2/MSDK/lwip/libcoap-4.3.4/src\coap_debug.c ****                      buf_len ? "," : "");
 1812              		.loc 1 902 13
 1813 0180 938B0B00 		addi	s7,s7,%lo(.LC12)
 1814 0184 B70D0000 		lui	s11,%hi(.LANCHOR11)
 1815              	.LVL144:
 1816              	.L114:
 1817              	.LBE94:
 765:C:/Users/stapi/OneDrive/Desktop/GD32VW553/GD32VW55X_Wifi_BLE_SDK/GD32VW55x_RELEASE_V1.0.2/MSDK/lwip/libcoap-4.3.4/src\coap_debug.c ****     buf[0] = '\000';
 1818              		.loc 1 765 9 is_stmt 1
 765:C:/Users/stapi/OneDrive/Desktop/GD32VW553/GD32VW55X_Wifi_BLE_SDK/GD32VW55x_RELEASE_V1.0.2/MSDK/lwip/libcoap-4.3.4/src\coap_debug.c ****     buf[0] = '\000';
 1819              		.loc 1 765 20 is_stmt 0
 1820 0188 2808     		addi	a0,sp,24
 1821 018a 97000000 		call	coap_option_next
 1821      E7800000 
 1822              	.LVL145:
 1823 0192 2A84     		mv	s0,a0
 1824              	.LVL146:
 765:C:/Users/stapi/OneDrive/Desktop/GD32VW553/GD32VW55X_Wifi_BLE_SDK/GD32VW55x_RELEASE_V1.0.2/MSDK/lwip/libcoap-4.3.4/src\coap_debug.c ****     buf[0] = '\000';
 1825              		.loc 1 765 9
 1826 0194 631C0520 		bne	a0,zero,.L174
 969:C:/Users/stapi/OneDrive/Desktop/GD32VW553/GD32VW55X_Wifi_BLE_SDK/GD32VW55x_RELEASE_V1.0.2/MSDK/lwip/libcoap-4.3.4/src\coap_debug.c ****   snprintf(&outbuf[outbuflen], sizeof(outbuf)-outbuflen,  " ]");
 1827              		.loc 1 969 3 is_stmt 1
 969:C:/Users/stapi/OneDrive/Desktop/GD32VW553/GD32VW55X_Wifi_BLE_SDK/GD32VW55x_RELEASE_V1.0.2/MSDK/lwip/libcoap-4.3.4/src\coap_debug.c ****   snprintf(&outbuf[outbuflen], sizeof(outbuf)-outbuflen,  " ]");
 1828              		.loc 1 969 15 is_stmt 0
 1829 0198 0819     		addi	a0,sp,176
 1830 019a 97000000 		call	strlen
 1830      E7800000 
 1831              	.LVL147:
 970:C:/Users/stapi/OneDrive/Desktop/GD32VW553/GD32VW55X_Wifi_BLE_SDK/GD32VW55x_RELEASE_V1.0.2/MSDK/lwip/libcoap-4.3.4/src\coap_debug.c **** 
 1832              		.loc 1 970 3 is_stmt 1
 1833 01a2 1C19     		addi	a5,sp,176
 1834 01a4 13040008 		li	s0,128
 1835              	.LVL148:
 1836 01a8 37060000 		lui	a2,%hi(.LC50)
 1837 01ac B305A440 		sub	a1,s0,a0
 1838 01b0 13060600 		addi	a2,a2,%lo(.LC50)
 1839 01b4 3E95     		add	a0,a5,a0
 1840              	.LVL149:
 1841 01b6 97000000 		call	snprintf
 1841      E7800000 
 1842              	.LVL150:
 972:C:/Users/stapi/OneDrive/Desktop/GD32VW553/GD32VW55X_Wifi_BLE_SDK/GD32VW55x_RELEASE_V1.0.2/MSDK/lwip/libcoap-4.3.4/src\coap_debug.c **** 
 1843              		.loc 1 972 3
 972:C:/Users/stapi/OneDrive/Desktop/GD32VW553/GD32VW55X_Wifi_BLE_SDK/GD32VW55x_RELEASE_V1.0.2/MSDK/lwip/libcoap-4.3.4/src\coap_debug.c **** 
 1844              		.loc 1 972 7 is_stmt 0
 1845 01be 2685     		mv	a0,s1
 1846 01c0 5008     		addi	a2,sp,20
 1847 01c2 0C08     		addi	a1,sp,16
 1848 01c4 B7040000 		lui	s1,%hi(.LANCHOR4)
 1849              	.LVL151:
 1850 01c8 97000000 		call	coap_get_data
 1850      E7800000 
 1851              	.LVL152:
 1852 01d0 93840400 		addi	s1,s1,%lo(.LANCHOR4)
 972:C:/Users/stapi/OneDrive/Desktop/GD32VW553/GD32VW55X_Wifi_BLE_SDK/GD32VW55x_RELEASE_V1.0.2/MSDK/lwip/libcoap-4.3.4/src\coap_debug.c **** 
 1853              		.loc 1 972 6
 1854 01d4 63030518 		beq	a0,zero,.L176
 974:C:/Users/stapi/OneDrive/Desktop/GD32VW553/GD32VW55X_Wifi_BLE_SDK/GD32VW55x_RELEASE_V1.0.2/MSDK/lwip/libcoap-4.3.4/src\coap_debug.c ****     snprintf(&outbuf[outbuflen], sizeof(outbuf)-outbuflen,  " :: ");
 1855              		.loc 1 974 5 is_stmt 1
 974:C:/Users/stapi/OneDrive/Desktop/GD32VW553/GD32VW55X_Wifi_BLE_SDK/GD32VW55x_RELEASE_V1.0.2/MSDK/lwip/libcoap-4.3.4/src\coap_debug.c ****     snprintf(&outbuf[outbuflen], sizeof(outbuf)-outbuflen,  " :: ");
 1856              		.loc 1 974 17 is_stmt 0
 1857 01d8 0819     		addi	a0,sp,176
 1858 01da 97000000 		call	strlen
 1858      E7800000 
 1859              	.LVL153:
 975:C:/Users/stapi/OneDrive/Desktop/GD32VW553/GD32VW55X_Wifi_BLE_SDK/GD32VW55x_RELEASE_V1.0.2/MSDK/lwip/libcoap-4.3.4/src\coap_debug.c **** 
 1860              		.loc 1 975 5 is_stmt 1
 1861 01e2 1C19     		addi	a5,sp,176
 1862 01e4 37060000 		lui	a2,%hi(.LC51)
 1863 01e8 B305A440 		sub	a1,s0,a0
 1864 01ec 13060600 		addi	a2,a2,%lo(.LC51)
 1865 01f0 3E95     		add	a0,a5,a0
 1866              	.LVL154:
 1867 01f2 97000000 		call	snprintf
 1867      E7800000 
 1868              	.LVL155:
 977:C:/Users/stapi/OneDrive/Desktop/GD32VW553/GD32VW55X_Wifi_BLE_SDK/GD32VW55x_RELEASE_V1.0.2/MSDK/lwip/libcoap-4.3.4/src\coap_debug.c ****       size_t keep_data_len = data_len;
 1869              		.loc 1 977 5
 1870              	.LBB95:
 1871              	.LBB96:
 669:C:/Users/stapi/OneDrive/Desktop/GD32VW553/GD32VW55X_Wifi_BLE_SDK/GD32VW55x_RELEASE_V1.0.2/MSDK/lwip/libcoap-4.3.4/src\coap_debug.c ****            content_format == COAP_MEDIATYPE_TEXT_PLAIN ||
 1872              		.loc 1 669 3
 669:C:/Users/stapi/OneDrive/Desktop/GD32VW553/GD32VW55X_Wifi_BLE_SDK/GD32VW55x_RELEASE_V1.0.2/MSDK/lwip/libcoap-4.3.4/src\coap_debug.c ****            content_format == COAP_MEDIATYPE_TEXT_PLAIN ||
 1873              		.loc 1 669 33 is_stmt 0
 1874 01fa 93071C00 		addi	a5,s8,1
 669:C:/Users/stapi/OneDrive/Desktop/GD32VW553/GD32VW55X_Wifi_BLE_SDK/GD32VW55x_RELEASE_V1.0.2/MSDK/lwip/libcoap-4.3.4/src\coap_debug.c ****            content_format == COAP_MEDIATYPE_TEXT_PLAIN ||
 1875              		.loc 1 669 10
 1876 01fe 0547     		li	a4,1
 1877 0200 524B     		lw	s6,20(sp)
 1878 0202 637AF700 		bleu	a5,a4,.L177
 670:C:/Users/stapi/OneDrive/Desktop/GD32VW553/GD32VW55X_Wifi_BLE_SDK/GD32VW55x_RELEASE_V1.0.2/MSDK/lwip/libcoap-4.3.4/src\coap_debug.c ****            content_format == COAP_MEDIATYPE_APPLICATION_LINK_FORMAT ||
 1879              		.loc 1 670 56
 1880 0206 93078CFD 		addi	a5,s8,-40
 1881 020a 6376F700 		bleu	a5,a4,.L177
 669:C:/Users/stapi/OneDrive/Desktop/GD32VW553/GD32VW55X_Wifi_BLE_SDK/GD32VW55x_RELEASE_V1.0.2/MSDK/lwip/libcoap-4.3.4/src\coap_debug.c ****            content_format == COAP_MEDIATYPE_TEXT_PLAIN ||
 1882              		.loc 1 669 10
 1883 020e 93072003 		li	a5,50
 1884 0212 6310FC02 		bne	s8,a5,.L178
 1885              	.L177:
 1886              	.LVL156:
 1887              	.LBE96:
 1888              	.LBE95:
 977:C:/Users/stapi/OneDrive/Desktop/GD32VW553/GD32VW55X_Wifi_BLE_SDK/GD32VW55x_RELEASE_V1.0.2/MSDK/lwip/libcoap-4.3.4/src\coap_debug.c ****       size_t keep_data_len = data_len;
 1889              		.loc 1 977 39
 1890 0216 83470B00 		lbu	a5,0(s6)
 1891 021a 37070000 		lui	a4,%hi(_ctype_+1)
 1892 021e 13071700 		addi	a4,a4,%lo(_ctype_+1)
 1893 0222 BA97     		add	a5,a5,a4
 1894 0224 83870700 		lb	a5,0(a5)
 1895 0228 93F77709 		andi	a5,a5,151
 977:C:/Users/stapi/OneDrive/Desktop/GD32VW553/GD32VW55X_Wifi_BLE_SDK/GD32VW55x_RELEASE_V1.0.2/MSDK/lwip/libcoap-4.3.4/src\coap_debug.c ****       size_t keep_data_len = data_len;
 1896              		.loc 1 977 35
 1897 022c 99C3     		beq	a5,zero,.L178
 977:C:/Users/stapi/OneDrive/Desktop/GD32VW553/GD32VW55X_Wifi_BLE_SDK/GD32VW55x_RELEASE_V1.0.2/MSDK/lwip/libcoap-4.3.4/src\coap_debug.c ****       size_t keep_data_len = data_len;
 1898              		.loc 1 977 56 discriminator 2
 1899 022e E3080A12 		beq	s4,zero,.L179
 1900              	.L178:
 1901              	.LBB97:
 978:C:/Users/stapi/OneDrive/Desktop/GD32VW553/GD32VW55X_Wifi_BLE_SDK/GD32VW55x_RELEASE_V1.0.2/MSDK/lwip/libcoap-4.3.4/src\coap_debug.c ****       const uint8_t *keep_data = data;
 1902              		.loc 1 978 7 is_stmt 1
 978:C:/Users/stapi/OneDrive/Desktop/GD32VW553/GD32VW55X_Wifi_BLE_SDK/GD32VW55x_RELEASE_V1.0.2/MSDK/lwip/libcoap-4.3.4/src\coap_debug.c ****       const uint8_t *keep_data = data;
 1903              		.loc 1 978 14 is_stmt 0
 1904 0232 424A     		lw	s4,16(sp)
 1905              	.LVL157:
 979:C:/Users/stapi/OneDrive/Desktop/GD32VW553/GD32VW55X_Wifi_BLE_SDK/GD32VW55x_RELEASE_V1.0.2/MSDK/lwip/libcoap-4.3.4/src\coap_debug.c **** 
 1906              		.loc 1 979 7 is_stmt 1
 981:C:/Users/stapi/OneDrive/Desktop/GD32VW553/GD32VW55X_Wifi_BLE_SDK/GD32VW55x_RELEASE_V1.0.2/MSDK/lwip/libcoap-4.3.4/src\coap_debug.c ****       snprintf(&outbuf[outbuflen], sizeof(outbuf)-outbuflen,
 1907              		.loc 1 981 7
 981:C:/Users/stapi/OneDrive/Desktop/GD32VW553/GD32VW55X_Wifi_BLE_SDK/GD32VW55x_RELEASE_V1.0.2/MSDK/lwip/libcoap-4.3.4/src\coap_debug.c ****       snprintf(&outbuf[outbuflen], sizeof(outbuf)-outbuflen,
 1908              		.loc 1 981 19 is_stmt 0
 1909 0234 0819     		addi	a0,sp,176
 1910 0236 97000000 		call	strlen
 1910      E7800000 
 1911              	.LVL158:
 982:C:/Users/stapi/OneDrive/Desktop/GD32VW553/GD32VW55X_Wifi_BLE_SDK/GD32VW55x_RELEASE_V1.0.2/MSDK/lwip/libcoap-4.3.4/src\coap_debug.c ****                "binary data length %zu\n", data_len);
 1912              		.loc 1 982 7 is_stmt 1
 1913 023e 1C19     		addi	a5,sp,176
 1914 0240 37060000 		lui	a2,%hi(.LC52)
 1915 0244 93050008 		li	a1,128
 1916 0248 898D     		sub	a1,a1,a0
 1917 024a D286     		mv	a3,s4
 1918 024c 3E95     		add	a0,a5,a0
 1919              	.LVL159:
 1920 024e 13060600 		addi	a2,a2,%lo(.LC52)
 1921 0252 97000000 		call	snprintf
 1921      E7800000 
 1922              	.LVL160:
 984:C:/Users/stapi/OneDrive/Desktop/GD32VW553/GD32VW55X_Wifi_BLE_SDK/GD32VW55x_RELEASE_V1.0.2/MSDK/lwip/libcoap-4.3.4/src\coap_debug.c ****       /*
 1923              		.loc 1 984 7
 984:C:/Users/stapi/OneDrive/Desktop/GD32VW553/GD32VW55X_Wifi_BLE_SDK/GD32VW55x_RELEASE_V1.0.2/MSDK/lwip/libcoap-4.3.4/src\coap_debug.c ****       /*
 1924              		.loc 1 984 7
 1925 025a 9C40     		lw	a5,0(s1)
 1926 025c E38B0704 		beq	a5,zero,.L180
 984:C:/Users/stapi/OneDrive/Desktop/GD32VW553/GD32VW55X_Wifi_BLE_SDK/GD32VW55x_RELEASE_V1.0.2/MSDK/lwip/libcoap-4.3.4/src\coap_debug.c ****       /*
 1927              		.loc 1 984 7 discriminator 1
 984:C:/Users/stapi/OneDrive/Desktop/GD32VW553/GD32VW55X_Wifi_BLE_SDK/GD32VW55x_RELEASE_V1.0.2/MSDK/lwip/libcoap-4.3.4/src\coap_debug.c ****       /*
 1928              		.loc 1 984 7 discriminator 1
 1929 0260 37050000 		lui	a0,%hi(.LC39)
 1930 0264 0C19     		addi	a1,sp,176
 1931 0266 13050500 		addi	a0,a0,%lo(.LC39)
 1932 026a 97000000 		call	printf
 1932      E7800000 
 1933              	.LVL161:
 984:C:/Users/stapi/OneDrive/Desktop/GD32VW553/GD32VW55X_Wifi_BLE_SDK/GD32VW55x_RELEASE_V1.0.2/MSDK/lwip/libcoap-4.3.4/src\coap_debug.c ****       /*
 1934              		.loc 1 984 7 discriminator 1
 984:C:/Users/stapi/OneDrive/Desktop/GD32VW553/GD32VW55X_Wifi_BLE_SDK/GD32VW55x_RELEASE_V1.0.2/MSDK/lwip/libcoap-4.3.4/src\coap_debug.c ****       /*
 1935              		.loc 1 984 7 discriminator 1
 1936              	.L181:
 984:C:/Users/stapi/OneDrive/Desktop/GD32VW553/GD32VW55X_Wifi_BLE_SDK/GD32VW55x_RELEASE_V1.0.2/MSDK/lwip/libcoap-4.3.4/src\coap_debug.c ****       /*
 1937              		.loc 1 984 7 discriminator 6
 984:C:/Users/stapi/OneDrive/Desktop/GD32VW553/GD32VW55X_Wifi_BLE_SDK/GD32VW55x_RELEASE_V1.0.2/MSDK/lwip/libcoap-4.3.4/src\coap_debug.c ****       /*
 1938              		.loc 1 984 7 discriminator 6
 988:C:/Users/stapi/OneDrive/Desktop/GD32VW553/GD32VW55X_Wifi_BLE_SDK/GD32VW55x_RELEASE_V1.0.2/MSDK/lwip/libcoap-4.3.4/src\coap_debug.c ****       snprintf(outbuf, sizeof(outbuf),  "<<");
 1939              		.loc 1 988 7 discriminator 6
 989:C:/Users/stapi/OneDrive/Desktop/GD32VW553/GD32VW55X_Wifi_BLE_SDK/GD32VW55x_RELEASE_V1.0.2/MSDK/lwip/libcoap-4.3.4/src\coap_debug.c ****       while (data_len--) {
 1940              		.loc 1 989 7 is_stmt 0 discriminator 6
 1941 0272 37090000 		lui	s2,%hi(.LC53)
 1942              	.LVL162:
 1943 0276 93050900 		addi	a1,s2,%lo(.LC53)
 1944 027a 0819     		addi	a0,sp,176
 988:C:/Users/stapi/OneDrive/Desktop/GD32VW553/GD32VW55X_Wifi_BLE_SDK/GD32VW55x_RELEASE_V1.0.2/MSDK/lwip/libcoap-4.3.4/src\coap_debug.c ****       snprintf(outbuf, sizeof(outbuf),  "<<");
 1945              		.loc 1 988 17 discriminator 6
 1946 027c 2308010A 		sb	zero,176(sp)
 989:C:/Users/stapi/OneDrive/Desktop/GD32VW553/GD32VW55X_Wifi_BLE_SDK/GD32VW55x_RELEASE_V1.0.2/MSDK/lwip/libcoap-4.3.4/src\coap_debug.c ****       while (data_len--) {
 1947              		.loc 1 989 7 is_stmt 1 discriminator 6
 992:C:/Users/stapi/OneDrive/Desktop/GD32VW553/GD32VW55X_Wifi_BLE_SDK/GD32VW55x_RELEASE_V1.0.2/MSDK/lwip/libcoap-4.3.4/src\coap_debug.c ****                  "%02x", *data++);
 1948              		.loc 1 992 9 is_stmt 0 discriminator 6
 1949 0280 13040008 		li	s0,128
 989:C:/Users/stapi/OneDrive/Desktop/GD32VW553/GD32VW55X_Wifi_BLE_SDK/GD32VW55x_RELEASE_V1.0.2/MSDK/lwip/libcoap-4.3.4/src\coap_debug.c ****       while (data_len--) {
 1950              		.loc 1 989 7 discriminator 6
 1951 0284 97000000 		call	strcpy
 1951      E7800000 
 1952              	.LVL163:
 990:C:/Users/stapi/OneDrive/Desktop/GD32VW553/GD32VW55X_Wifi_BLE_SDK/GD32VW55x_RELEASE_V1.0.2/MSDK/lwip/libcoap-4.3.4/src\coap_debug.c ****         outbuflen = strlen(outbuf);
 1953              		.loc 1 990 7 is_stmt 1 discriminator 6
 992:C:/Users/stapi/OneDrive/Desktop/GD32VW553/GD32VW55X_Wifi_BLE_SDK/GD32VW55x_RELEASE_V1.0.2/MSDK/lwip/libcoap-4.3.4/src\coap_debug.c ****                  "%02x", *data++);
 1954              		.loc 1 992 9 is_stmt 0 discriminator 6
 1955 028c B70B0000 		lui	s7,%hi(.LC35)
 1956              	.L182:
 990:C:/Users/stapi/OneDrive/Desktop/GD32VW553/GD32VW55X_Wifi_BLE_SDK/GD32VW55x_RELEASE_V1.0.2/MSDK/lwip/libcoap-4.3.4/src\coap_debug.c ****         outbuflen = strlen(outbuf);
 1957              		.loc 1 990 13 is_stmt 1
 990:C:/Users/stapi/OneDrive/Desktop/GD32VW553/GD32VW55X_Wifi_BLE_SDK/GD32VW55x_RELEASE_V1.0.2/MSDK/lwip/libcoap-4.3.4/src\coap_debug.c ****         outbuflen = strlen(outbuf);
 1958              		.loc 1 990 22 is_stmt 0
 1959 0290 C247     		lw	a5,16(sp)
 991:C:/Users/stapi/OneDrive/Desktop/GD32VW553/GD32VW55X_Wifi_BLE_SDK/GD32VW55x_RELEASE_V1.0.2/MSDK/lwip/libcoap-4.3.4/src\coap_debug.c ****         snprintf(&outbuf[outbuflen], sizeof(outbuf)-outbuflen,
 1960              		.loc 1 991 21
 1961 0292 0819     		addi	a0,sp,176
 990:C:/Users/stapi/OneDrive/Desktop/GD32VW553/GD32VW55X_Wifi_BLE_SDK/GD32VW55x_RELEASE_V1.0.2/MSDK/lwip/libcoap-4.3.4/src\coap_debug.c ****         outbuflen = strlen(outbuf);
 1962              		.loc 1 990 22
 1963 0294 1387F7FF 		addi	a4,a5,-1
 1964 0298 3AC8     		sw	a4,16(sp)
 990:C:/Users/stapi/OneDrive/Desktop/GD32VW553/GD32VW55X_Wifi_BLE_SDK/GD32VW55x_RELEASE_V1.0.2/MSDK/lwip/libcoap-4.3.4/src\coap_debug.c ****         outbuflen = strlen(outbuf);
 1965              		.loc 1 990 13
 1966 029a E39C0702 		bne	a5,zero,.L183
 995:C:/Users/stapi/OneDrive/Desktop/GD32VW553/GD32VW55X_Wifi_BLE_SDK/GD32VW55x_RELEASE_V1.0.2/MSDK/lwip/libcoap-4.3.4/src\coap_debug.c ****       snprintf(&outbuf[outbuflen], sizeof(outbuf)-outbuflen,  ">>");
 1967              		.loc 1 995 7 is_stmt 1
 995:C:/Users/stapi/OneDrive/Desktop/GD32VW553/GD32VW55X_Wifi_BLE_SDK/GD32VW55x_RELEASE_V1.0.2/MSDK/lwip/libcoap-4.3.4/src\coap_debug.c ****       snprintf(&outbuf[outbuflen], sizeof(outbuf)-outbuflen,  ">>");
 1968              		.loc 1 995 19 is_stmt 0
 1969 029e 97000000 		call	strlen
 1969      E7800000 
 1970              	.LVL164:
 996:C:/Users/stapi/OneDrive/Desktop/GD32VW553/GD32VW55X_Wifi_BLE_SDK/GD32VW55x_RELEASE_V1.0.2/MSDK/lwip/libcoap-4.3.4/src\coap_debug.c ****       data_len = keep_data_len;
 1971              		.loc 1 996 7 is_stmt 1
 1972 02a6 1C19     		addi	a5,sp,176
 1973 02a8 37040000 		lui	s0,%hi(.LC54)
 1974 02ac 93050008 		li	a1,128
 1975 02b0 898D     		sub	a1,a1,a0
 1976 02b2 13060400 		addi	a2,s0,%lo(.LC54)
 1977 02b6 3E95     		add	a0,a5,a0
 1978              	.LVL165:
 1979 02b8 97000000 		call	snprintf
 1979      E7800000 
 1980              	.LVL166:
 997:C:/Users/stapi/OneDrive/Desktop/GD32VW553/GD32VW55X_Wifi_BLE_SDK/GD32VW55x_RELEASE_V1.0.2/MSDK/lwip/libcoap-4.3.4/src\coap_debug.c ****       data = keep_data;
 1981              		.loc 1 997 7
 999:C:/Users/stapi/OneDrive/Desktop/GD32VW553/GD32VW55X_Wifi_BLE_SDK/GD32VW55x_RELEASE_V1.0.2/MSDK/lwip/libcoap-4.3.4/src\coap_debug.c ****       if (outbuflen == sizeof(outbuf)-1)
 1982              		.loc 1 999 19 is_stmt 0
 1983 02c0 0819     		addi	a0,sp,176
 997:C:/Users/stapi/OneDrive/Desktop/GD32VW553/GD32VW55X_Wifi_BLE_SDK/GD32VW55x_RELEASE_V1.0.2/MSDK/lwip/libcoap-4.3.4/src\coap_debug.c ****       data = keep_data;
 1984              		.loc 1 997 16
 1985 02c2 52C8     		sw	s4,16(sp)
 998:C:/Users/stapi/OneDrive/Desktop/GD32VW553/GD32VW55X_Wifi_BLE_SDK/GD32VW55x_RELEASE_V1.0.2/MSDK/lwip/libcoap-4.3.4/src\coap_debug.c ****       outbuflen = strlen(outbuf);
 1986              		.loc 1 998 7 is_stmt 1
 998:C:/Users/stapi/OneDrive/Desktop/GD32VW553/GD32VW55X_Wifi_BLE_SDK/GD32VW55x_RELEASE_V1.0.2/MSDK/lwip/libcoap-4.3.4/src\coap_debug.c ****       outbuflen = strlen(outbuf);
 1987              		.loc 1 998 12 is_stmt 0
 1988 02c4 5ACA     		sw	s6,20(sp)
 999:C:/Users/stapi/OneDrive/Desktop/GD32VW553/GD32VW55X_Wifi_BLE_SDK/GD32VW55x_RELEASE_V1.0.2/MSDK/lwip/libcoap-4.3.4/src\coap_debug.c ****       if (outbuflen == sizeof(outbuf)-1)
 1989              		.loc 1 999 7 is_stmt 1
 999:C:/Users/stapi/OneDrive/Desktop/GD32VW553/GD32VW55X_Wifi_BLE_SDK/GD32VW55x_RELEASE_V1.0.2/MSDK/lwip/libcoap-4.3.4/src\coap_debug.c ****       if (outbuflen == sizeof(outbuf)-1)
 1990              		.loc 1 999 19 is_stmt 0
 1991 02c6 97000000 		call	strlen
 1991      E7800000 
 1992              	.LVL167:
1000:C:/Users/stapi/OneDrive/Desktop/GD32VW553/GD32VW55X_Wifi_BLE_SDK/GD32VW55x_RELEASE_V1.0.2/MSDK/lwip/libcoap-4.3.4/src\coap_debug.c ****         outbuflen--;
 1993              		.loc 1 1000 7 is_stmt 1
1000:C:/Users/stapi/OneDrive/Desktop/GD32VW553/GD32VW55X_Wifi_BLE_SDK/GD32VW55x_RELEASE_V1.0.2/MSDK/lwip/libcoap-4.3.4/src\coap_debug.c ****         outbuflen--;
 1994              		.loc 1 1000 10 is_stmt 0
 1995 02ce 9307F007 		li	a5,127
 1996 02d2 6314F500 		bne	a0,a5,.L184
1001:C:/Users/stapi/OneDrive/Desktop/GD32VW553/GD32VW55X_Wifi_BLE_SDK/GD32VW55x_RELEASE_V1.0.2/MSDK/lwip/libcoap-4.3.4/src\coap_debug.c ****       snprintf(&outbuf[outbuflen], sizeof(outbuf)-outbuflen,  "\n");
 1997              		.loc 1 1001 18
 1998 02d6 1305E007 		li	a0,126
 1999              	.LVL168:
 2000              	.L184:
1002:C:/Users/stapi/OneDrive/Desktop/GD32VW553/GD32VW55X_Wifi_BLE_SDK/GD32VW55x_RELEASE_V1.0.2/MSDK/lwip/libcoap-4.3.4/src\coap_debug.c ****       COAP_DO_SHOW_OUTPUT_LINE;
 2001              		.loc 1 1002 7 is_stmt 1
 2002 02da 1C19     		addi	a5,sp,176
 2003 02dc 37060000 		lui	a2,%hi(.LC55)
 2004 02e0 93050008 		li	a1,128
 2005 02e4 898D     		sub	a1,a1,a0
 2006 02e6 13060600 		addi	a2,a2,%lo(.LC55)
 2007 02ea 3E95     		add	a0,a5,a0
 2008              	.LVL169:
 2009 02ec 97000000 		call	snprintf
 2009      E7800000 
 2010              	.LVL170:
1003:C:/Users/stapi/OneDrive/Desktop/GD32VW553/GD32VW55X_Wifi_BLE_SDK/GD32VW55x_RELEASE_V1.0.2/MSDK/lwip/libcoap-4.3.4/src\coap_debug.c ****       /*
 2011              		.loc 1 1003 7
1003:C:/Users/stapi/OneDrive/Desktop/GD32VW553/GD32VW55X_Wifi_BLE_SDK/GD32VW55x_RELEASE_V1.0.2/MSDK/lwip/libcoap-4.3.4/src\coap_debug.c ****       /*
 2012              		.loc 1 1003 7
 2013 02f4 9C40     		lw	a5,0(s1)
 2014 02f6 E3840700 		beq	a5,zero,.L185
1003:C:/Users/stapi/OneDrive/Desktop/GD32VW553/GD32VW55X_Wifi_BLE_SDK/GD32VW55x_RELEASE_V1.0.2/MSDK/lwip/libcoap-4.3.4/src\coap_debug.c ****       /*
 2015              		.loc 1 1003 7 discriminator 1
1003:C:/Users/stapi/OneDrive/Desktop/GD32VW553/GD32VW55X_Wifi_BLE_SDK/GD32VW55x_RELEASE_V1.0.2/MSDK/lwip/libcoap-4.3.4/src\coap_debug.c ****       /*
 2016              		.loc 1 1003 7 discriminator 1
 2017 02fa 37050000 		lui	a0,%hi(.LC39)
 2018 02fe 0C19     		addi	a1,sp,176
 2019 0300 13050500 		addi	a0,a0,%lo(.LC39)
 2020 0304 97000000 		call	printf
 2020      E7800000 
 2021              	.LVL171:
1003:C:/Users/stapi/OneDrive/Desktop/GD32VW553/GD32VW55X_Wifi_BLE_SDK/GD32VW55x_RELEASE_V1.0.2/MSDK/lwip/libcoap-4.3.4/src\coap_debug.c ****       /*
 2022              		.loc 1 1003 7 discriminator 1
1003:C:/Users/stapi/OneDrive/Desktop/GD32VW553/GD32VW55X_Wifi_BLE_SDK/GD32VW55x_RELEASE_V1.0.2/MSDK/lwip/libcoap-4.3.4/src\coap_debug.c ****       /*
 2023              		.loc 1 1003 7 discriminator 1
 2024              	.L186:
1003:C:/Users/stapi/OneDrive/Desktop/GD32VW553/GD32VW55X_Wifi_BLE_SDK/GD32VW55x_RELEASE_V1.0.2/MSDK/lwip/libcoap-4.3.4/src\coap_debug.c ****       /*
 2025              		.loc 1 1003 7 discriminator 6
1003:C:/Users/stapi/OneDrive/Desktop/GD32VW553/GD32VW55X_Wifi_BLE_SDK/GD32VW55x_RELEASE_V1.0.2/MSDK/lwip/libcoap-4.3.4/src\coap_debug.c ****       /*
 2026              		.loc 1 1003 7 discriminator 6
1008:C:/Users/stapi/OneDrive/Desktop/GD32VW553/GD32VW55X_Wifi_BLE_SDK/GD32VW55x_RELEASE_V1.0.2/MSDK/lwip/libcoap-4.3.4/src\coap_debug.c ****       snprintf(outbuf, sizeof(outbuf),  "<<");
 2027              		.loc 1 1008 7 discriminator 6
1009:C:/Users/stapi/OneDrive/Desktop/GD32VW553/GD32VW55X_Wifi_BLE_SDK/GD32VW55x_RELEASE_V1.0.2/MSDK/lwip/libcoap-4.3.4/src\coap_debug.c ****       while (data_len--) {
 2028              		.loc 1 1009 7 is_stmt 0 discriminator 6
 2029 030c 93050900 		addi	a1,s2,%lo(.LC53)
 2030 0310 0819     		addi	a0,sp,176
1013:C:/Users/stapi/OneDrive/Desktop/GD32VW553/GD32VW55X_Wifi_BLE_SDK/GD32VW55x_RELEASE_V1.0.2/MSDK/lwip/libcoap-4.3.4/src\coap_debug.c ****         data++;
 2031              		.loc 1 1013 25 discriminator 6
 2032 0312 37090000 		lui	s2,%hi(_ctype_+1)
1008:C:/Users/stapi/OneDrive/Desktop/GD32VW553/GD32VW55X_Wifi_BLE_SDK/GD32VW55x_RELEASE_V1.0.2/MSDK/lwip/libcoap-4.3.4/src\coap_debug.c ****       snprintf(outbuf, sizeof(outbuf),  "<<");
 2033              		.loc 1 1008 17 discriminator 6
 2034 0316 2308010A 		sb	zero,176(sp)
1009:C:/Users/stapi/OneDrive/Desktop/GD32VW553/GD32VW55X_Wifi_BLE_SDK/GD32VW55x_RELEASE_V1.0.2/MSDK/lwip/libcoap-4.3.4/src\coap_debug.c ****       while (data_len--) {
 2035              		.loc 1 1009 7 is_stmt 1 discriminator 6
1012:C:/Users/stapi/OneDrive/Desktop/GD32VW553/GD32VW55X_Wifi_BLE_SDK/GD32VW55x_RELEASE_V1.0.2/MSDK/lwip/libcoap-4.3.4/src\coap_debug.c ****                  "%c ", isprint(*data) ? *data : '.');
 2036              		.loc 1 1012 9 is_stmt 0 discriminator 6
 2037 031a 130A0008 		li	s4,128
 2038              	.LVL172:
1009:C:/Users/stapi/OneDrive/Desktop/GD32VW553/GD32VW55X_Wifi_BLE_SDK/GD32VW55x_RELEASE_V1.0.2/MSDK/lwip/libcoap-4.3.4/src\coap_debug.c ****       while (data_len--) {
 2039              		.loc 1 1009 7 discriminator 6
 2040 031e 97000000 		call	strcpy
 2040      E7800000 
 2041              	.LVL173:
1010:C:/Users/stapi/OneDrive/Desktop/GD32VW553/GD32VW55X_Wifi_BLE_SDK/GD32VW55x_RELEASE_V1.0.2/MSDK/lwip/libcoap-4.3.4/src\coap_debug.c ****         outbuflen = strlen(outbuf);
 2042              		.loc 1 1010 7 is_stmt 1 discriminator 6
1013:C:/Users/stapi/OneDrive/Desktop/GD32VW553/GD32VW55X_Wifi_BLE_SDK/GD32VW55x_RELEASE_V1.0.2/MSDK/lwip/libcoap-4.3.4/src\coap_debug.c ****         data++;
 2043              		.loc 1 1013 25 is_stmt 0 discriminator 6
 2044 0326 13091900 		addi	s2,s2,%lo(_ctype_+1)
1012:C:/Users/stapi/OneDrive/Desktop/GD32VW553/GD32VW55X_Wifi_BLE_SDK/GD32VW55x_RELEASE_V1.0.2/MSDK/lwip/libcoap-4.3.4/src\coap_debug.c ****                  "%c ", isprint(*data) ? *data : '.');
 2045              		.loc 1 1012 9 discriminator 6
 2046 032a 370B0000 		lui	s6,%hi(.LC56)
 2047              	.LVL174:
 2048              	.L187:
1010:C:/Users/stapi/OneDrive/Desktop/GD32VW553/GD32VW55X_Wifi_BLE_SDK/GD32VW55x_RELEASE_V1.0.2/MSDK/lwip/libcoap-4.3.4/src\coap_debug.c ****         outbuflen = strlen(outbuf);
 2049              		.loc 1 1010 13 is_stmt 1
1010:C:/Users/stapi/OneDrive/Desktop/GD32VW553/GD32VW55X_Wifi_BLE_SDK/GD32VW55x_RELEASE_V1.0.2/MSDK/lwip/libcoap-4.3.4/src\coap_debug.c ****         outbuflen = strlen(outbuf);
 2050              		.loc 1 1010 22 is_stmt 0
 2051 032e C247     		lw	a5,16(sp)
1011:C:/Users/stapi/OneDrive/Desktop/GD32VW553/GD32VW55X_Wifi_BLE_SDK/GD32VW55x_RELEASE_V1.0.2/MSDK/lwip/libcoap-4.3.4/src\coap_debug.c ****         snprintf(&outbuf[outbuflen], sizeof(outbuf)-outbuflen,
 2052              		.loc 1 1011 21
 2053 0330 0819     		addi	a0,sp,176
1010:C:/Users/stapi/OneDrive/Desktop/GD32VW553/GD32VW55X_Wifi_BLE_SDK/GD32VW55x_RELEASE_V1.0.2/MSDK/lwip/libcoap-4.3.4/src\coap_debug.c ****         outbuflen = strlen(outbuf);
 2054              		.loc 1 1010 22
 2055 0332 1387F7FF 		addi	a4,a5,-1
 2056 0336 3AC8     		sw	a4,16(sp)
1010:C:/Users/stapi/OneDrive/Desktop/GD32VW553/GD32VW55X_Wifi_BLE_SDK/GD32VW55x_RELEASE_V1.0.2/MSDK/lwip/libcoap-4.3.4/src\coap_debug.c ****         outbuflen = strlen(outbuf);
 2057              		.loc 1 1010 13
 2058 0338 6393077E 		bne	a5,zero,.L189
1016:C:/Users/stapi/OneDrive/Desktop/GD32VW553/GD32VW55X_Wifi_BLE_SDK/GD32VW55x_RELEASE_V1.0.2/MSDK/lwip/libcoap-4.3.4/src\coap_debug.c ****       snprintf(&outbuf[outbuflen], sizeof(outbuf)-outbuflen,  ">>");
 2059              		.loc 1 1016 7 is_stmt 1
1016:C:/Users/stapi/OneDrive/Desktop/GD32VW553/GD32VW55X_Wifi_BLE_SDK/GD32VW55x_RELEASE_V1.0.2/MSDK/lwip/libcoap-4.3.4/src\coap_debug.c ****       snprintf(&outbuf[outbuflen], sizeof(outbuf)-outbuflen,  ">>");
 2060              		.loc 1 1016 19 is_stmt 0
 2061 033c 97000000 		call	strlen
 2061      E7800000 
 2062              	.LVL175:
1017:C:/Users/stapi/OneDrive/Desktop/GD32VW553/GD32VW55X_Wifi_BLE_SDK/GD32VW55x_RELEASE_V1.0.2/MSDK/lwip/libcoap-4.3.4/src\coap_debug.c ****     } else {
 2063              		.loc 1 1017 7 is_stmt 1
 2064 0344 93050008 		li	a1,128
 2065 0348 1C19     		addi	a5,sp,176
 2066 034a 898D     		sub	a1,a1,a0
 2067 034c 13060400 		addi	a2,s0,%lo(.LC54)
 2068 0350 3E95     		add	a0,a5,a0
 2069              	.LVL176:
 2070 0352 97000000 		call	snprintf
 2070      E7800000 
 2071              	.LVL177:
 2072              	.L176:
 2073              	.LBE97:
1041:C:/Users/stapi/OneDrive/Desktop/GD32VW553/GD32VW55X_Wifi_BLE_SDK/GD32VW55x_RELEASE_V1.0.2/MSDK/lwip/libcoap-4.3.4/src\coap_debug.c ****   if (outbuflen == sizeof(outbuf)-1)
 2074              		.loc 1 1041 3
1041:C:/Users/stapi/OneDrive/Desktop/GD32VW553/GD32VW55X_Wifi_BLE_SDK/GD32VW55x_RELEASE_V1.0.2/MSDK/lwip/libcoap-4.3.4/src\coap_debug.c ****   if (outbuflen == sizeof(outbuf)-1)
 2075              		.loc 1 1041 15 is_stmt 0
 2076 035a 0819     		addi	a0,sp,176
 2077 035c 97000000 		call	strlen
 2077      E7800000 
 2078              	.LVL178:
1042:C:/Users/stapi/OneDrive/Desktop/GD32VW553/GD32VW55X_Wifi_BLE_SDK/GD32VW55x_RELEASE_V1.0.2/MSDK/lwip/libcoap-4.3.4/src\coap_debug.c ****     outbuflen--;
 2079              		.loc 1 1042 3 is_stmt 1
1042:C:/Users/stapi/OneDrive/Desktop/GD32VW553/GD32VW55X_Wifi_BLE_SDK/GD32VW55x_RELEASE_V1.0.2/MSDK/lwip/libcoap-4.3.4/src\coap_debug.c ****     outbuflen--;
 2080              		.loc 1 1042 6 is_stmt 0
 2081 0364 9307F007 		li	a5,127
 2082 0368 6314F500 		bne	a0,a5,.L192
1043:C:/Users/stapi/OneDrive/Desktop/GD32VW553/GD32VW55X_Wifi_BLE_SDK/GD32VW55x_RELEASE_V1.0.2/MSDK/lwip/libcoap-4.3.4/src\coap_debug.c ****   snprintf(&outbuf[outbuflen], sizeof(outbuf)-outbuflen,  "\n");
 2083              		.loc 1 1043 14
 2084 036c 1305E007 		li	a0,126
 2085              	.LVL179:
 2086              	.L192:
1044:C:/Users/stapi/OneDrive/Desktop/GD32VW553/GD32VW55X_Wifi_BLE_SDK/GD32VW55x_RELEASE_V1.0.2/MSDK/lwip/libcoap-4.3.4/src\coap_debug.c ****   COAP_DO_SHOW_OUTPUT_LINE;
 2087              		.loc 1 1044 3 is_stmt 1
 2088 0370 1C19     		addi	a5,sp,176
 2089 0372 37060000 		lui	a2,%hi(.LC55)
 2090 0376 93050008 		li	a1,128
 2091 037a 898D     		sub	a1,a1,a0
 2092 037c 13060600 		addi	a2,a2,%lo(.LC55)
 2093 0380 3E95     		add	a0,a5,a0
 2094              	.LVL180:
 2095 0382 97000000 		call	snprintf
 2095      E7800000 
 2096              	.LVL181:
1045:C:/Users/stapi/OneDrive/Desktop/GD32VW553/GD32VW55X_Wifi_BLE_SDK/GD32VW55x_RELEASE_V1.0.2/MSDK/lwip/libcoap-4.3.4/src\coap_debug.c **** 
 2097              		.loc 1 1045 3
1045:C:/Users/stapi/OneDrive/Desktop/GD32VW553/GD32VW55X_Wifi_BLE_SDK/GD32VW55x_RELEASE_V1.0.2/MSDK/lwip/libcoap-4.3.4/src\coap_debug.c **** 
 2098              		.loc 1 1045 3
 2099 038a 9C40     		lw	a5,0(s1)
 2100 038c E38E0702 		beq	a5,zero,.L193
1045:C:/Users/stapi/OneDrive/Desktop/GD32VW553/GD32VW55X_Wifi_BLE_SDK/GD32VW55x_RELEASE_V1.0.2/MSDK/lwip/libcoap-4.3.4/src\coap_debug.c **** 
 2101              		.loc 1 1045 3 discriminator 1
1045:C:/Users/stapi/OneDrive/Desktop/GD32VW553/GD32VW55X_Wifi_BLE_SDK/GD32VW55x_RELEASE_V1.0.2/MSDK/lwip/libcoap-4.3.4/src\coap_debug.c **** 
 2102              		.loc 1 1045 3 discriminator 1
 2103 0390 37050000 		lui	a0,%hi(.LC39)
 2104 0394 0C19     		addi	a1,sp,176
 2105 0396 13050500 		addi	a0,a0,%lo(.LC39)
 2106 039a 97000000 		call	printf
 2106      E7800000 
 2107              	.LVL182:
1045:C:/Users/stapi/OneDrive/Desktop/GD32VW553/GD32VW55X_Wifi_BLE_SDK/GD32VW55x_RELEASE_V1.0.2/MSDK/lwip/libcoap-4.3.4/src\coap_debug.c **** 
 2108              		.loc 1 1045 3 discriminator 1
1045:C:/Users/stapi/OneDrive/Desktop/GD32VW553/GD32VW55X_Wifi_BLE_SDK/GD32VW55x_RELEASE_V1.0.2/MSDK/lwip/libcoap-4.3.4/src\coap_debug.c **** 
 2109              		.loc 1 1045 3 discriminator 1
 2110              	.L104:
1050:C:/Users/stapi/OneDrive/Desktop/GD32VW553/GD32VW55X_Wifi_BLE_SDK/GD32VW55x_RELEASE_V1.0.2/MSDK/lwip/libcoap-4.3.4/src\coap_debug.c **** 
 2111              		.loc 1 1050 1 is_stmt 0
 2112 03a2 5561     		addi	sp,sp,304
 2113              		.cfi_remember_state
 2114              		.cfi_def_cfa_offset 0
 2115 03a4 17030000 		tail	__riscv_restore_12
 2115      67000300 
 2116              		.cfi_restore 27
 2117              		.cfi_restore 26
 2118              		.cfi_restore 25
 2119              		.cfi_restore 24
 2120              		.cfi_restore 23
 2121              		.cfi_restore 22
 2122              		.cfi_restore 21
 2123              		.cfi_restore 20
 2124              		.cfi_restore 19
 2125              		.cfi_restore 18
 2126              		.cfi_restore 9
 2127              		.cfi_restore 8
 2128              		.cfi_restore 1
 2129              		.cfi_def_cfa_offset -64
 2130              	.LVL183:
 2131              	.L174:
 2132              		.cfi_restore_state
 766:C:/Users/stapi/OneDrive/Desktop/GD32VW553/GD32VW55X_Wifi_BLE_SDK/GD32VW55x_RELEASE_V1.0.2/MSDK/lwip/libcoap-4.3.4/src\coap_debug.c ****     if (!have_options) {
 2133              		.loc 1 766 5 is_stmt 1
 766:C:/Users/stapi/OneDrive/Desktop/GD32VW553/GD32VW55X_Wifi_BLE_SDK/GD32VW55x_RELEASE_V1.0.2/MSDK/lwip/libcoap-4.3.4/src\coap_debug.c ****     if (!have_options) {
 2134              		.loc 1 766 12 is_stmt 0
 2135 03ac 23080102 		sb	zero,48(sp)
 767:C:/Users/stapi/OneDrive/Desktop/GD32VW553/GD32VW55X_Wifi_BLE_SDK/GD32VW55x_RELEASE_V1.0.2/MSDK/lwip/libcoap-4.3.4/src\coap_debug.c ****       have_options = 1;
 2136              		.loc 1 767 5 is_stmt 1
 767:C:/Users/stapi/OneDrive/Desktop/GD32VW553/GD32VW55X_Wifi_BLE_SDK/GD32VW55x_RELEASE_V1.0.2/MSDK/lwip/libcoap-4.3.4/src\coap_debug.c ****       have_options = 1;
 2137              		.loc 1 767 8 is_stmt 0
 2138 03b0 63040902 		beq	s2,zero,.L115
 770:C:/Users/stapi/OneDrive/Desktop/GD32VW553/GD32VW55X_Wifi_BLE_SDK/GD32VW55x_RELEASE_V1.0.2/MSDK/lwip/libcoap-4.3.4/src\coap_debug.c ****       snprintf(&outbuf[outbuflen], sizeof(outbuf)-outbuflen,  ",");
 2139              		.loc 1 770 7 is_stmt 1
 770:C:/Users/stapi/OneDrive/Desktop/GD32VW553/GD32VW55X_Wifi_BLE_SDK/GD32VW55x_RELEASE_V1.0.2/MSDK/lwip/libcoap-4.3.4/src\coap_debug.c ****       snprintf(&outbuf[outbuflen], sizeof(outbuf)-outbuflen,  ",");
 2140              		.loc 1 770 19 is_stmt 0
 2141 03b4 0819     		addi	a0,sp,176
 2142 03b6 97000000 		call	strlen
 2142      E7800000 
 2143              	.LVL184:
 771:C:/Users/stapi/OneDrive/Desktop/GD32VW553/GD32VW55X_Wifi_BLE_SDK/GD32VW55x_RELEASE_V1.0.2/MSDK/lwip/libcoap-4.3.4/src\coap_debug.c ****     }
 2144              		.loc 1 771 7 is_stmt 1
 2145 03be 37060000 		lui	a2,%hi(.LC27)
 2146 03c2 93050008 		li	a1,128
 2147 03c6 1C19     		addi	a5,sp,176
 2148 03c8 898D     		sub	a1,a1,a0
 2149 03ca 13060600 		addi	a2,a2,%lo(.LC27)
 2150 03ce 3E95     		add	a0,a5,a0
 2151              	.LVL185:
 2152 03d0 97000000 		call	snprintf
 2152      E7800000 
 2153              	.LVL186:
 2154              	.L115:
 774:C:/Users/stapi/OneDrive/Desktop/GD32VW553/GD32VW55X_Wifi_BLE_SDK/GD32VW55x_RELEASE_V1.0.2/MSDK/lwip/libcoap-4.3.4/src\coap_debug.c ****       switch (opt_iter.number) {
 2155              		.loc 1 774 5
 774:C:/Users/stapi/OneDrive/Desktop/GD32VW553/GD32VW55X_Wifi_BLE_SDK/GD32VW55x_RELEASE_V1.0.2/MSDK/lwip/libcoap-4.3.4/src\coap_debug.c ****       switch (opt_iter.number) {
 2156              		.loc 1 774 12 is_stmt 0
 2157 03d8 D840     		lw	a4,4(s1)
 774:C:/Users/stapi/OneDrive/Desktop/GD32VW553/GD32VW55X_Wifi_BLE_SDK/GD32VW55x_RELEASE_V1.0.2/MSDK/lwip/libcoap-4.3.4/src\coap_debug.c ****       switch (opt_iter.number) {
 2158              		.loc 1 774 8
 2159 03da 9306100E 		li	a3,225
 775:C:/Users/stapi/OneDrive/Desktop/GD32VW553/GD32VW55X_Wifi_BLE_SDK/GD32VW55x_RELEASE_V1.0.2/MSDK/lwip/libcoap-4.3.4/src\coap_debug.c ****       case COAP_SIGNALING_OPTION_EXTENDED_TOKEN_LENGTH:
 2160              		.loc 1 775 23
 2161 03de 8357C101 		lhu	a5,28(sp)
 774:C:/Users/stapi/OneDrive/Desktop/GD32VW553/GD32VW55X_Wifi_BLE_SDK/GD32VW55x_RELEASE_V1.0.2/MSDK/lwip/libcoap-4.3.4/src\coap_debug.c ****       switch (opt_iter.number) {
 2162              		.loc 1 774 8
 2163 03e2 631ED702 		bne	a4,a3,.L116
 775:C:/Users/stapi/OneDrive/Desktop/GD32VW553/GD32VW55X_Wifi_BLE_SDK/GD32VW55x_RELEASE_V1.0.2/MSDK/lwip/libcoap-4.3.4/src\coap_debug.c ****       case COAP_SIGNALING_OPTION_EXTENDED_TOKEN_LENGTH:
 2164              		.loc 1 775 7 is_stmt 1
 2165 03e6 ED9B     		andi	a5,a5,-5
 2166              	.L296:
 806:C:/Users/stapi/OneDrive/Desktop/GD32VW553/GD32VW55X_Wifi_BLE_SDK/GD32VW55x_RELEASE_V1.0.2/MSDK/lwip/libcoap-4.3.4/src\coap_debug.c ****       case COAP_SIGNALING_OPTION_BAD_CSM_OPTION:
 2167              		.loc 1 806 7
 2168 03e8 0947     		li	a4,2
 813:C:/Users/stapi/OneDrive/Desktop/GD32VW553/GD32VW55X_Wifi_BLE_SDK/GD32VW55x_RELEASE_V1.0.2/MSDK/lwip/libcoap-4.3.4/src\coap_debug.c ****         break;
 2169              		.loc 1 813 17 is_stmt 0
 2170 03ea 014D     		li	s10,0
 2171              	.LVL187:
 806:C:/Users/stapi/OneDrive/Desktop/GD32VW553/GD32VW55X_Wifi_BLE_SDK/GD32VW55x_RELEASE_V1.0.2/MSDK/lwip/libcoap-4.3.4/src\coap_debug.c ****       case COAP_SIGNALING_OPTION_BAD_CSM_OPTION:
 2172              		.loc 1 806 7
 2173 03ec 6394E718 		bne	a5,a4,.L117
 2174              	.L292:
 924:C:/Users/stapi/OneDrive/Desktop/GD32VW553/GD32VW55X_Wifi_BLE_SDK/GD32VW55x_RELEASE_V1.0.2/MSDK/lwip/libcoap-4.3.4/src\coap_debug.c ****                              coap_decode_var_bytes(coap_opt_value(option),
 2175              		.loc 1 924 11 is_stmt 1
 924:C:/Users/stapi/OneDrive/Desktop/GD32VW553/GD32VW55X_Wifi_BLE_SDK/GD32VW55x_RELEASE_V1.0.2/MSDK/lwip/libcoap-4.3.4/src\coap_debug.c ****                              coap_decode_var_bytes(coap_opt_value(option),
 2176              		.loc 1 924 21 is_stmt 0
 2177 03f0 2285     		mv	a0,s0
 2178 03f2 97000000 		call	coap_opt_value
 2178      E7800000 
 2179              	.LVL188:
 2180 03fa 2A89     		mv	s2,a0
 926:C:/Users/stapi/OneDrive/Desktop/GD32VW553/GD32VW55X_Wifi_BLE_SDK/GD32VW55x_RELEASE_V1.0.2/MSDK/lwip/libcoap-4.3.4/src\coap_debug.c ****         }
 2181              		.loc 1 926 52
 2182 03fc 2285     		mv	a0,s0
 2183 03fe 97000000 		call	coap_opt_length
 2183      E7800000 
 2184              	.LVL189:
 2185 0406 AA85     		mv	a1,a0
 924:C:/Users/stapi/OneDrive/Desktop/GD32VW553/GD32VW55X_Wifi_BLE_SDK/GD32VW55x_RELEASE_V1.0.2/MSDK/lwip/libcoap-4.3.4/src\coap_debug.c ****                              coap_decode_var_bytes(coap_opt_value(option),
 2186              		.loc 1 924 21
 2187 0408 4A85     		mv	a0,s2
 2188 040a 97000000 		call	coap_decode_var_bytes
 2188      E7800000 
 2189              	.LVL190:
 2190 0412 37060000 		lui	a2,%hi(.LC38)
 2191 0416 AA86     		mv	a3,a0
 2192 0418 13060600 		addi	a2,a2,%lo(.LC38)
 2193 041c A1A2     		j	.L289
 2194              	.LVL191:
 2195              	.L116:
 786:C:/Users/stapi/OneDrive/Desktop/GD32VW553/GD32VW55X_Wifi_BLE_SDK/GD32VW55x_RELEASE_V1.0.2/MSDK/lwip/libcoap-4.3.4/src\coap_debug.c ****                pdu->code == COAP_SIGNALING_CODE_PONG) {
 2196              		.loc 1 786 12 is_stmt 1
 786:C:/Users/stapi/OneDrive/Desktop/GD32VW553/GD32VW55X_Wifi_BLE_SDK/GD32VW55x_RELEASE_V1.0.2/MSDK/lwip/libcoap-4.3.4/src\coap_debug.c ****                pdu->code == COAP_SIGNALING_CODE_PONG) {
 2197              		.loc 1 786 54 is_stmt 0
 2198 041e 9306E7F1 		addi	a3,a4,-226
 786:C:/Users/stapi/OneDrive/Desktop/GD32VW553/GD32VW55X_Wifi_BLE_SDK/GD32VW55x_RELEASE_V1.0.2/MSDK/lwip/libcoap-4.3.4/src\coap_debug.c ****                pdu->code == COAP_SIGNALING_CODE_PONG) {
 2199              		.loc 1 786 15
 2200 0422 0546     		li	a2,1
 2201 0424 637CD600 		bleu	a3,a2,.L196
 789:C:/Users/stapi/OneDrive/Desktop/GD32VW553/GD32VW55X_Wifi_BLE_SDK/GD32VW55x_RELEASE_V1.0.2/MSDK/lwip/libcoap-4.3.4/src\coap_debug.c ****       switch (opt_iter.number) {
 2202              		.loc 1 789 12 is_stmt 1
 789:C:/Users/stapi/OneDrive/Desktop/GD32VW553/GD32VW55X_Wifi_BLE_SDK/GD32VW55x_RELEASE_V1.0.2/MSDK/lwip/libcoap-4.3.4/src\coap_debug.c ****       switch (opt_iter.number) {
 2203              		.loc 1 789 15 is_stmt 0
 2204 0428 9306400E 		li	a3,228
 2205 042c 6310D704 		bne	a4,a3,.L118
 790:C:/Users/stapi/OneDrive/Desktop/GD32VW553/GD32VW55X_Wifi_BLE_SDK/GD32VW55x_RELEASE_V1.0.2/MSDK/lwip/libcoap-4.3.4/src\coap_debug.c ****       case COAP_SIGNALING_OPTION_ALTERNATIVE_ADDRESS:
 2206              		.loc 1 790 7 is_stmt 1
 2207 0430 0947     		li	a4,2
 2208 0432 6387E700 		beq	a5,a4,.L119
 2209 0436 1147     		li	a4,4
 2210 0438 E38CE7FA 		beq	a5,a4,.L292
 2211              	.L196:
 788:C:/Users/stapi/OneDrive/Desktop/GD32VW553/GD32VW55X_Wifi_BLE_SDK/GD32VW55x_RELEASE_V1.0.2/MSDK/lwip/libcoap-4.3.4/src\coap_debug.c ****     } else if (pdu->code == COAP_SIGNALING_CODE_RELEASE) {
 2212              		.loc 1 788 15 is_stmt 0
 2213 043c 014D     		li	s10,0
 2214              	.LVL192:
 2215 043e 1DAA     		j	.L117
 2216              	.LVL193:
 2217              	.L119:
 792:C:/Users/stapi/OneDrive/Desktop/GD32VW553/GD32VW55X_Wifi_BLE_SDK/GD32VW55x_RELEASE_V1.0.2/MSDK/lwip/libcoap-4.3.4/src\coap_debug.c ****                                  coap_opt_length(option),
 2218              		.loc 1 792 9 is_stmt 1
 792:C:/Users/stapi/OneDrive/Desktop/GD32VW553/GD32VW55X_Wifi_BLE_SDK/GD32VW55x_RELEASE_V1.0.2/MSDK/lwip/libcoap-4.3.4/src\coap_debug.c ****                                  coap_opt_length(option),
 2219              		.loc 1 792 19 is_stmt 0
 2220 0440 2285     		mv	a0,s0
 2221 0442 97000000 		call	coap_opt_value
 2221      E7800000 
 2222              	.LVL194:
 2223 044a 2A89     		mv	s2,a0
 793:C:/Users/stapi/OneDrive/Desktop/GD32VW553/GD32VW55X_Wifi_BLE_SDK/GD32VW55x_RELEASE_V1.0.2/MSDK/lwip/libcoap-4.3.4/src\coap_debug.c ****                                  buf, sizeof(buf), 0);
 2224              		.loc 1 793 34
 2225 044c 2285     		mv	a0,s0
 2226 044e 97000000 		call	coap_opt_length
 2226      E7800000 
 2227              	.LVL195:
 2228 0456 AA85     		mv	a1,a0
 792:C:/Users/stapi/OneDrive/Desktop/GD32VW553/GD32VW55X_Wifi_BLE_SDK/GD32VW55x_RELEASE_V1.0.2/MSDK/lwip/libcoap-4.3.4/src\coap_debug.c ****                                  coap_opt_length(option),
 2229              		.loc 1 792 19
 2230 0458 0147     		li	a4,0
 2231              	.L293:
 958:C:/Users/stapi/OneDrive/Desktop/GD32VW553/GD32VW55X_Wifi_BLE_SDK/GD32VW55x_RELEASE_V1.0.2/MSDK/lwip/libcoap-4.3.4/src\coap_debug.c ****                                  coap_opt_length(option),
 2232              		.loc 1 958 19
 2233 045a 93060008 		li	a3,128
 2234 045e 1018     		addi	a2,sp,48
 2235 0460 4A85     		mv	a0,s2
 2236 0462 97000000 		call	print_readable
 2236      E7800000 
 2237              	.LVL196:
 2238 046a 21A2     		j	.L290
 2239              	.L118:
 805:C:/Users/stapi/OneDrive/Desktop/GD32VW553/GD32VW55X_Wifi_BLE_SDK/GD32VW55x_RELEASE_V1.0.2/MSDK/lwip/libcoap-4.3.4/src\coap_debug.c ****       switch (opt_iter.number) {
 2240              		.loc 1 805 12 is_stmt 1
 805:C:/Users/stapi/OneDrive/Desktop/GD32VW553/GD32VW55X_Wifi_BLE_SDK/GD32VW55x_RELEASE_V1.0.2/MSDK/lwip/libcoap-4.3.4/src\coap_debug.c ****       switch (opt_iter.number) {
 2241              		.loc 1 805 15 is_stmt 0
 2242 046c 9306500E 		li	a3,229
 2243 0470 E30CD7F6 		beq	a4,a3,.L296
 817:C:/Users/stapi/OneDrive/Desktop/GD32VW553/GD32VW55X_Wifi_BLE_SDK/GD32VW55x_RELEASE_V1.0.2/MSDK/lwip/libcoap-4.3.4/src\coap_debug.c ****       case COAP_OPTION_CONTENT_FORMAT:
 2244              		.loc 1 817 7 is_stmt 1
 2245 0474 7D47     		li	a4,31
 2246 0476 6360F702 		bgtu	a5,a4,.L122
 2247 047a 63870754 		beq	a5,zero,.L123
 2248 047e 1387F7FF 		addi	a4,a5,-1
 2249 0482 F946     		li	a3,30
 2250 0484 33470708 		zext.h	a4,a4
 2251 0488 63E0E654 		bgtu	a4,a3,.L123
 2252 048c B246     		lw	a3,12(sp)
 2253 048e 3347D720 		sh2add	a4,a4,a3
 2254 0492 1843     		lw	a4,0(a4)
 2255 0494 0287     		jr	a4
 2256              		.section	.rodata.coap_show_pdu,"a",@progbits
 2257              		.align	2
 2258              		.align	2
 2259              	.L125:
 2260 0000 00000000 		.word	.L129
 2261 0004 00000000 		.word	.L123
 2262 0008 00000000 		.word	.L123
 2263 000c 00000000 		.word	.L129
 2264 0010 00000000 		.word	.L123
 2265 0014 00000000 		.word	.L126
 2266 0018 00000000 		.word	.L126
 2267 001c 00000000 		.word	.L123
 2268 0020 00000000 		.word	.L128
 2269 0024 00000000 		.word	.L123
 2270 0028 00000000 		.word	.L123
 2271 002c 00000000 		.word	.L127
 2272 0030 00000000 		.word	.L123
 2273 0034 00000000 		.word	.L126
 2274 0038 00000000 		.word	.L123
 2275 003c 00000000 		.word	.L126
 2276 0040 00000000 		.word	.L127
 2277 0044 00000000 		.word	.L123
 2278 0048 00000000 		.word	.L124
 2279 004c 00000000 		.word	.L123
 2280 0050 00000000 		.word	.L123
 2281 0054 00000000 		.word	.L123
 2282 0058 00000000 		.word	.L124
 2283 005c 00000000 		.word	.L123
 2284 0060 00000000 		.word	.L123
 2285 0064 00000000 		.word	.L123
 2286 0068 00000000 		.word	.L124
 2287 006c 00000000 		.word	.L126
 2288 0070 00000000 		.word	.L123
 2289 0074 00000000 		.word	.L123
 2290 0078 00000000 		.word	.L124
 2291              		.section	.text.coap_show_pdu
 2292              	.L122:
 2293 0496 13072010 		li	a4,258
 2294 049a 638CE700 		beq	a5,a4,.L129
 2295 049e 636BF706 		bgtu	a5,a4,.L130
 2296 04a2 1307C003 		li	a4,60
 2297 04a6 6389E750 		beq	a5,a4,.L126
 2298 04aa 1307C00F 		li	a4,252
 2299              	.L288:
 2300 04ae 639DE750 		bne	a5,a4,.L123
 2301              	.L129:
 935:C:/Users/stapi/OneDrive/Desktop/GD32VW553/GD32VW55X_Wifi_BLE_SDK/GD32VW55x_RELEASE_V1.0.2/MSDK/lwip/libcoap-4.3.4/src\coap_debug.c ****         opt_val = coap_opt_value(option);
 2302              		.loc 1 935 9
 935:C:/Users/stapi/OneDrive/Desktop/GD32VW553/GD32VW55X_Wifi_BLE_SDK/GD32VW55x_RELEASE_V1.0.2/MSDK/lwip/libcoap-4.3.4/src\coap_debug.c ****         opt_val = coap_opt_value(option);
 2303              		.loc 1 935 19 is_stmt 0
 2304 04b2 2285     		mv	a0,s0
 2305 04b4 97000000 		call	coap_opt_length
 2305      E7800000 
 2306              	.LVL197:
 2307 04bc 2A89     		mv	s2,a0
 2308              	.LVL198:
 936:C:/Users/stapi/OneDrive/Desktop/GD32VW553/GD32VW55X_Wifi_BLE_SDK/GD32VW55x_RELEASE_V1.0.2/MSDK/lwip/libcoap-4.3.4/src\coap_debug.c ****         snprintf((char *)buf, sizeof(buf), "0x");
 2309              		.loc 1 936 9 is_stmt 1
 936:C:/Users/stapi/OneDrive/Desktop/GD32VW553/GD32VW55X_Wifi_BLE_SDK/GD32VW55x_RELEASE_V1.0.2/MSDK/lwip/libcoap-4.3.4/src\coap_debug.c ****         snprintf((char *)buf, sizeof(buf), "0x");
 2310              		.loc 1 936 19 is_stmt 0
 2311 04be 2285     		mv	a0,s0
 2312              	.LVL199:
 2313 04c0 97000000 		call	coap_opt_value
 2313      E7800000 
 2314              	.LVL200:
 937:C:/Users/stapi/OneDrive/Desktop/GD32VW553/GD32VW55X_Wifi_BLE_SDK/GD32VW55x_RELEASE_V1.0.2/MSDK/lwip/libcoap-4.3.4/src\coap_debug.c ****         for (i = 0; (uint32_t)i < opt_len; i++) {
 2315              		.loc 1 937 9
 2316 04c8 B7050000 		lui	a1,%hi(.LC48)
 936:C:/Users/stapi/OneDrive/Desktop/GD32VW553/GD32VW55X_Wifi_BLE_SDK/GD32VW55x_RELEASE_V1.0.2/MSDK/lwip/libcoap-4.3.4/src\coap_debug.c ****         snprintf((char *)buf, sizeof(buf), "0x");
 2317              		.loc 1 936 19
 2318 04cc 2AC4     		sw	a0,8(sp)
 2319              	.LVL201:
 937:C:/Users/stapi/OneDrive/Desktop/GD32VW553/GD32VW55X_Wifi_BLE_SDK/GD32VW55x_RELEASE_V1.0.2/MSDK/lwip/libcoap-4.3.4/src\coap_debug.c ****         for (i = 0; (uint32_t)i < opt_len; i++) {
 2320              		.loc 1 937 9 is_stmt 1
 2321 04ce 93850500 		addi	a1,a1,%lo(.LC48)
 2322 04d2 0818     		addi	a0,sp,48
 2323              	.LVL202:
 2324 04d4 97000000 		call	strcpy
 2324      E7800000 
 2325              	.LVL203:
 938:C:/Users/stapi/OneDrive/Desktop/GD32VW553/GD32VW55X_Wifi_BLE_SDK/GD32VW55x_RELEASE_V1.0.2/MSDK/lwip/libcoap-4.3.4/src\coap_debug.c ****           buf_len = strlen((char *)buf);
 2326              		.loc 1 938 9
 938:C:/Users/stapi/OneDrive/Desktop/GD32VW553/GD32VW55X_Wifi_BLE_SDK/GD32VW55x_RELEASE_V1.0.2/MSDK/lwip/libcoap-4.3.4/src\coap_debug.c ****           buf_len = strlen((char *)buf);
 2327              		.loc 1 938 16 is_stmt 0
 2328 04dc 0144     		li	s0,0
 2329              	.LVL204:
 940:C:/Users/stapi/OneDrive/Desktop/GD32VW553/GD32VW55X_Wifi_BLE_SDK/GD32VW55x_RELEASE_V1.0.2/MSDK/lwip/libcoap-4.3.4/src\coap_debug.c ****                    "%02x", opt_val[i]);
 2330              		.loc 1 940 11
 2331 04de 130B0008 		li	s6,128
 2332              	.LVL205:
 2333              	.L160:
 938:C:/Users/stapi/OneDrive/Desktop/GD32VW553/GD32VW55X_Wifi_BLE_SDK/GD32VW55x_RELEASE_V1.0.2/MSDK/lwip/libcoap-4.3.4/src\coap_debug.c ****           buf_len = strlen((char *)buf);
 2334              		.loc 1 938 21 is_stmt 1 discriminator 1
 939:C:/Users/stapi/OneDrive/Desktop/GD32VW553/GD32VW55X_Wifi_BLE_SDK/GD32VW55x_RELEASE_V1.0.2/MSDK/lwip/libcoap-4.3.4/src\coap_debug.c ****           snprintf((char *)&buf[buf_len], sizeof(buf)-buf_len,
 2335              		.loc 1 939 21 is_stmt 0 discriminator 1
 2336 04e2 0818     		addi	a0,sp,48
 2337 04e4 97000000 		call	strlen
 2337      E7800000 
 2338              	.LVL206:
 2339 04ec 2A8D     		mv	s10,a0
 938:C:/Users/stapi/OneDrive/Desktop/GD32VW553/GD32VW55X_Wifi_BLE_SDK/GD32VW55x_RELEASE_V1.0.2/MSDK/lwip/libcoap-4.3.4/src\coap_debug.c ****           buf_len = strlen((char *)buf);
 2340              		.loc 1 938 9 discriminator 1
 2341 04ee 63032409 		beq	s0,s2,.L117
 939:C:/Users/stapi/OneDrive/Desktop/GD32VW553/GD32VW55X_Wifi_BLE_SDK/GD32VW55x_RELEASE_V1.0.2/MSDK/lwip/libcoap-4.3.4/src\coap_debug.c ****           snprintf((char *)&buf[buf_len], sizeof(buf)-buf_len,
 2342              		.loc 1 939 11 is_stmt 1 discriminator 3
 940:C:/Users/stapi/OneDrive/Desktop/GD32VW553/GD32VW55X_Wifi_BLE_SDK/GD32VW55x_RELEASE_V1.0.2/MSDK/lwip/libcoap-4.3.4/src\coap_debug.c ****                    "%02x", opt_val[i]);
 2343              		.loc 1 940 11 discriminator 3
 941:C:/Users/stapi/OneDrive/Desktop/GD32VW553/GD32VW55X_Wifi_BLE_SDK/GD32VW55x_RELEASE_V1.0.2/MSDK/lwip/libcoap-4.3.4/src\coap_debug.c ****         }
 2344              		.loc 1 941 35 is_stmt 0 discriminator 3
 2345 04f2 A247     		lw	a5,8(sp)
 940:C:/Users/stapi/OneDrive/Desktop/GD32VW553/GD32VW55X_Wifi_BLE_SDK/GD32VW55x_RELEASE_V1.0.2/MSDK/lwip/libcoap-4.3.4/src\coap_debug.c ****                    "%02x", opt_val[i]);
 2346              		.loc 1 940 11 discriminator 3
 2347 04f4 B305AB40 		sub	a1,s6,a0
 2348 04f8 13860C00 		addi	a2,s9,%lo(.LC35)
 941:C:/Users/stapi/OneDrive/Desktop/GD32VW553/GD32VW55X_Wifi_BLE_SDK/GD32VW55x_RELEASE_V1.0.2/MSDK/lwip/libcoap-4.3.4/src\coap_debug.c ****         }
 2349              		.loc 1 941 35 discriminator 3
 2350 04fc 33878700 		add	a4,a5,s0
 940:C:/Users/stapi/OneDrive/Desktop/GD32VW553/GD32VW55X_Wifi_BLE_SDK/GD32VW55x_RELEASE_V1.0.2/MSDK/lwip/libcoap-4.3.4/src\coap_debug.c ****                    "%02x", opt_val[i]);
 2351              		.loc 1 940 11 discriminator 3
 2352 0500 83460700 		lbu	a3,0(a4)
 2353 0504 1C18     		addi	a5,sp,48
 2354 0506 3E95     		add	a0,a5,a0
 2355 0508 97000000 		call	snprintf
 2355      E7800000 
 2356              	.LVL207:
 938:C:/Users/stapi/OneDrive/Desktop/GD32VW553/GD32VW55X_Wifi_BLE_SDK/GD32VW55x_RELEASE_V1.0.2/MSDK/lwip/libcoap-4.3.4/src\coap_debug.c ****           buf_len = strlen((char *)buf);
 2357              		.loc 1 938 44 is_stmt 1 discriminator 3
 938:C:/Users/stapi/OneDrive/Desktop/GD32VW553/GD32VW55X_Wifi_BLE_SDK/GD32VW55x_RELEASE_V1.0.2/MSDK/lwip/libcoap-4.3.4/src\coap_debug.c ****           buf_len = strlen((char *)buf);
 2358              		.loc 1 938 45 is_stmt 0 discriminator 3
 2359 0510 0504     		addi	s0,s0,1
 2360              	.LVL208:
 2361 0512 C1BF     		j	.L160
 2362              	.LVL209:
 2363              	.L130:
 817:C:/Users/stapi/OneDrive/Desktop/GD32VW553/GD32VW55X_Wifi_BLE_SDK/GD32VW55x_RELEASE_V1.0.2/MSDK/lwip/libcoap-4.3.4/src\coap_debug.c ****       case COAP_OPTION_CONTENT_FORMAT:
 2364              		.loc 1 817 7
 2365 0514 13074012 		li	a4,292
 2366 0518 59BF     		j	.L288
 2367              	.L127:
 820:C:/Users/stapi/OneDrive/Desktop/GD32VW553/GD32VW55X_Wifi_BLE_SDK/GD32VW55x_RELEASE_V1.0.2/MSDK/lwip/libcoap-4.3.4/src\coap_debug.c ****                                                     coap_opt_length(option));
 2368              		.loc 1 820 9 is_stmt 1
 820:C:/Users/stapi/OneDrive/Desktop/GD32VW553/GD32VW55X_Wifi_BLE_SDK/GD32VW55x_RELEASE_V1.0.2/MSDK/lwip/libcoap-4.3.4/src\coap_debug.c ****                                                     coap_opt_length(option));
 2369              		.loc 1 820 31 is_stmt 0
 2370 051a 2285     		mv	a0,s0
 2371 051c 97000000 		call	coap_opt_value
 2371      E7800000 
 2372              	.LVL210:
 2373 0524 2A89     		mv	s2,a0
 821:C:/Users/stapi/OneDrive/Desktop/GD32VW553/GD32VW55X_Wifi_BLE_SDK/GD32VW55x_RELEASE_V1.0.2/MSDK/lwip/libcoap-4.3.4/src\coap_debug.c **** 
 2374              		.loc 1 821 53
 2375 0526 2285     		mv	a0,s0
 2376 0528 97000000 		call	coap_opt_length
 2376      E7800000 
 2377              	.LVL211:
 2378 0530 AA85     		mv	a1,a0
 820:C:/Users/stapi/OneDrive/Desktop/GD32VW553/GD32VW55X_Wifi_BLE_SDK/GD32VW55x_RELEASE_V1.0.2/MSDK/lwip/libcoap-4.3.4/src\coap_debug.c ****                                                     coap_opt_length(option));
 2379              		.loc 1 820 31
 2380 0532 4A85     		mv	a0,s2
 2381 0534 97000000 		call	coap_decode_var_bytes
 2381      E7800000 
 2382              	.LVL212:
 2383 053c AA86     		mv	a3,a0
 820:C:/Users/stapi/OneDrive/Desktop/GD32VW553/GD32VW55X_Wifi_BLE_SDK/GD32VW55x_RELEASE_V1.0.2/MSDK/lwip/libcoap-4.3.4/src\coap_debug.c ****                                                     coap_opt_length(option));
 2384              		.loc 1 820 24
 2385 053e 2A8C     		mv	s8,a0
 2386              	.LVL213:
 823:C:/Users/stapi/OneDrive/Desktop/GD32VW553/GD32VW55X_Wifi_BLE_SDK/GD32VW55x_RELEASE_V1.0.2/MSDK/lwip/libcoap-4.3.4/src\coap_debug.c ****         break;
 2387              		.loc 1 823 9 is_stmt 1
 2388              	.LBB102:
 2389              	.LBB103:
 652:C:/Users/stapi/OneDrive/Desktop/GD32VW553/GD32VW55X_Wifi_BLE_SDK/GD32VW55x_RELEASE_V1.0.2/MSDK/lwip/libcoap-4.3.4/src\coap_debug.c ****     if (format_type == formats[i].type) {
 2390              		.loc 1 652 15
 2391 0540 13870D00 		addi	a4,s11,%lo(.LANCHOR11)
 652:C:/Users/stapi/OneDrive/Desktop/GD32VW553/GD32VW55X_Wifi_BLE_SDK/GD32VW55x_RELEASE_V1.0.2/MSDK/lwip/libcoap-4.3.4/src\coap_debug.c ****     if (format_type == formats[i].type) {
 2392              		.loc 1 652 10 is_stmt 0
 2393 0544 8147     		li	a5,0
 652:C:/Users/stapi/OneDrive/Desktop/GD32VW553/GD32VW55X_Wifi_BLE_SDK/GD32VW55x_RELEASE_V1.0.2/MSDK/lwip/libcoap-4.3.4/src\coap_debug.c ****     if (format_type == formats[i].type) {
 2394              		.loc 1 652 3
 2395 0546 7D46     		li	a2,31
 2396              	.LVL214:
 2397              	.L132:
 653:C:/Users/stapi/OneDrive/Desktop/GD32VW553/GD32VW55X_Wifi_BLE_SDK/GD32VW55x_RELEASE_V1.0.2/MSDK/lwip/libcoap-4.3.4/src\coap_debug.c ****       return snprintf((char *)result, buflen, "%s", formats[i].name);
 2398              		.loc 1 653 5 is_stmt 1
 653:C:/Users/stapi/OneDrive/Desktop/GD32VW553/GD32VW55X_Wifi_BLE_SDK/GD32VW55x_RELEASE_V1.0.2/MSDK/lwip/libcoap-4.3.4/src\coap_debug.c ****       return snprintf((char *)result, buflen, "%s", formats[i].name);
 2399              		.loc 1 653 8 is_stmt 0
 2400 0548 0C43     		lw	a1,0(a4)
 2401 054a 6398B608 		bne	a3,a1,.L131
 654:C:/Users/stapi/OneDrive/Desktop/GD32VW553/GD32VW55X_Wifi_BLE_SDK/GD32VW55x_RELEASE_V1.0.2/MSDK/lwip/libcoap-4.3.4/src\coap_debug.c ****     }
 2402              		.loc 1 654 7 is_stmt 1
 654:C:/Users/stapi/OneDrive/Desktop/GD32VW553/GD32VW55X_Wifi_BLE_SDK/GD32VW55x_RELEASE_V1.0.2/MSDK/lwip/libcoap-4.3.4/src\coap_debug.c ****     }
 2403              		.loc 1 654 14 is_stmt 0
 2404 054e 37070000 		lui	a4,%hi(.LANCHOR11)
 2405 0552 13070700 		addi	a4,a4,%lo(.LANCHOR11)
 2406 0556 B3E7E720 		sh3add	a5,a5,a4
 2407              	.LVL215:
 2408 055a D443     		lw	a3,4(a5)
 2409 055c 37060000 		lui	a2,%hi(.LC39)
 2410 0560 13060600 		addi	a2,a2,%lo(.LC39)
 2411              	.LVL216:
 2412              	.L289:
 2413 0564 93050008 		li	a1,128
 2414 0568 0818     		addi	a0,sp,48
 2415 056a 97000000 		call	snprintf
 2415      E7800000 
 2416              	.LVL217:
 2417              	.L290:
 2418 0572 2A8D     		mv	s10,a0
 2419              	.LVL218:
 2420              	.L117:
 2421              	.LBE103:
 2422              	.LBE102:
 963:C:/Users/stapi/OneDrive/Desktop/GD32VW553/GD32VW55X_Wifi_BLE_SDK/GD32VW55x_RELEASE_V1.0.2/MSDK/lwip/libcoap-4.3.4/src\coap_debug.c ****     snprintf(&outbuf[outbuflen], sizeof(outbuf)-outbuflen,
 2423              		.loc 1 963 5 is_stmt 1
 963:C:/Users/stapi/OneDrive/Desktop/GD32VW553/GD32VW55X_Wifi_BLE_SDK/GD32VW55x_RELEASE_V1.0.2/MSDK/lwip/libcoap-4.3.4/src\coap_debug.c ****     snprintf(&outbuf[outbuflen], sizeof(outbuf)-outbuflen,
 2424              		.loc 1 963 17 is_stmt 0
 2425 0574 0819     		addi	a0,sp,176
 2426 0576 97000000 		call	strlen
 2426      E7800000 
 2427              	.LVL219:
 964:C:/Users/stapi/OneDrive/Desktop/GD32VW553/GD32VW55X_Wifi_BLE_SDK/GD32VW55x_RELEASE_V1.0.2/MSDK/lwip/libcoap-4.3.4/src\coap_debug.c ****              " %s:%.*s", msg_option_string(pdu->code, opt_iter.number),
 2428              		.loc 1 964 5 is_stmt 1
 2429 057e 1C19     		addi	a5,sp,176
 2430 0580 338BA700 		add	s6,a5,a0
 2431 0584 83C74400 		lbu	a5,4(s1)
 2432 0588 13090008 		li	s2,128
 2433              	.LBB105:
 2434              	.LBB106:
 570:C:/Users/stapi/OneDrive/Desktop/GD32VW553/GD32VW55X_Wifi_BLE_SDK/GD32VW55x_RELEASE_V1.0.2/MSDK/lwip/libcoap-4.3.4/src\coap_debug.c ****     for (i = 0; i < sizeof(options_csm)/sizeof(struct option_desc_t); i++) {
 2435              		.loc 1 570 6 is_stmt 0
 2436 058c 1307100E 		li	a4,225
 2437              	.LBE106:
 2438              	.LBE105:
 964:C:/Users/stapi/OneDrive/Desktop/GD32VW553/GD32VW55X_Wifi_BLE_SDK/GD32VW55x_RELEASE_V1.0.2/MSDK/lwip/libcoap-4.3.4/src\coap_debug.c ****              " %s:%.*s", msg_option_string(pdu->code, opt_iter.number),
 2439              		.loc 1 964 5
 2440 0590 8356C101 		lhu	a3,28(sp)
 2441              	.LVL220:
 2442              	.LBB110:
 2443              	.LBB107:
 514:C:/Users/stapi/OneDrive/Desktop/GD32VW553/GD32VW55X_Wifi_BLE_SDK/GD32VW55x_RELEASE_V1.0.2/MSDK/lwip/libcoap-4.3.4/src\coap_debug.c ****     uint16_t type;
 2444              		.loc 1 514 3 is_stmt 1
 519:C:/Users/stapi/OneDrive/Desktop/GD32VW553/GD32VW55X_Wifi_BLE_SDK/GD32VW55x_RELEASE_V1.0.2/MSDK/lwip/libcoap-4.3.4/src\coap_debug.c ****     { COAP_OPTION_IF_MATCH, "If-Match" },
 2445              		.loc 1 519 3
 548:C:/Users/stapi/OneDrive/Desktop/GD32VW553/GD32VW55X_Wifi_BLE_SDK/GD32VW55x_RELEASE_V1.0.2/MSDK/lwip/libcoap-4.3.4/src\coap_debug.c ****     { COAP_SIGNALING_OPTION_MAX_MESSAGE_SIZE, "Max-Message-Size" },
 2446              		.loc 1 548 3
 554:C:/Users/stapi/OneDrive/Desktop/GD32VW553/GD32VW55X_Wifi_BLE_SDK/GD32VW55x_RELEASE_V1.0.2/MSDK/lwip/libcoap-4.3.4/src\coap_debug.c ****     { COAP_SIGNALING_OPTION_CUSTODY, "Custody" }
 2447              		.loc 1 554 3
 558:C:/Users/stapi/OneDrive/Desktop/GD32VW553/GD32VW55X_Wifi_BLE_SDK/GD32VW55x_RELEASE_V1.0.2/MSDK/lwip/libcoap-4.3.4/src\coap_debug.c ****     { COAP_SIGNALING_OPTION_ALTERNATIVE_ADDRESS, "Alternative-Address" },
 2448              		.loc 1 558 3
 563:C:/Users/stapi/OneDrive/Desktop/GD32VW553/GD32VW55X_Wifi_BLE_SDK/GD32VW55x_RELEASE_V1.0.2/MSDK/lwip/libcoap-4.3.4/src\coap_debug.c ****     { COAP_SIGNALING_OPTION_BAD_CSM_OPTION, "Bad-CSM-Option" }
 2449              		.loc 1 563 3
 567:C:/Users/stapi/OneDrive/Desktop/GD32VW553/GD32VW55X_Wifi_BLE_SDK/GD32VW55x_RELEASE_V1.0.2/MSDK/lwip/libcoap-4.3.4/src\coap_debug.c ****   size_t i;
 2450              		.loc 1 567 3
 568:C:/Users/stapi/OneDrive/Desktop/GD32VW553/GD32VW55X_Wifi_BLE_SDK/GD32VW55x_RELEASE_V1.0.2/MSDK/lwip/libcoap-4.3.4/src\coap_debug.c **** 
 2451              		.loc 1 568 3
 570:C:/Users/stapi/OneDrive/Desktop/GD32VW553/GD32VW55X_Wifi_BLE_SDK/GD32VW55x_RELEASE_V1.0.2/MSDK/lwip/libcoap-4.3.4/src\coap_debug.c ****     for (i = 0; i < sizeof(options_csm)/sizeof(struct option_desc_t); i++) {
 2452              		.loc 1 570 3
 2453              	.LBE107:
 2454              	.LBE110:
 964:C:/Users/stapi/OneDrive/Desktop/GD32VW553/GD32VW55X_Wifi_BLE_SDK/GD32VW55x_RELEASE_V1.0.2/MSDK/lwip/libcoap-4.3.4/src\coap_debug.c ****              " %s:%.*s", msg_option_string(pdu->code, opt_iter.number),
 2455              		.loc 1 964 5 is_stmt 0
 2456 0594 3309A940 		sub	s2,s2,a0
 2457              	.LBB111:
 2458              	.LBB108:
 570:C:/Users/stapi/OneDrive/Desktop/GD32VW553/GD32VW55X_Wifi_BLE_SDK/GD32VW55x_RELEASE_V1.0.2/MSDK/lwip/libcoap-4.3.4/src\coap_debug.c ****     for (i = 0; i < sizeof(options_csm)/sizeof(struct option_desc_t); i++) {
 2459              		.loc 1 570 6
 2460 0598 639FE746 		bne	a5,a4,.L164
 2461              	.LVL221:
 571:C:/Users/stapi/OneDrive/Desktop/GD32VW553/GD32VW55X_Wifi_BLE_SDK/GD32VW55x_RELEASE_V1.0.2/MSDK/lwip/libcoap-4.3.4/src\coap_debug.c ****       if (option_type == options_csm[i].type) {
 2462              		.loc 1 571 17 is_stmt 1
 572:C:/Users/stapi/OneDrive/Desktop/GD32VW553/GD32VW55X_Wifi_BLE_SDK/GD32VW55x_RELEASE_V1.0.2/MSDK/lwip/libcoap-4.3.4/src\coap_debug.c ****         return options_csm[i].name;
 2463              		.loc 1 572 7
 572:C:/Users/stapi/OneDrive/Desktop/GD32VW553/GD32VW55X_Wifi_BLE_SDK/GD32VW55x_RELEASE_V1.0.2/MSDK/lwip/libcoap-4.3.4/src\coap_debug.c ****         return options_csm[i].name;
 2464              		.loc 1 572 10 is_stmt 0
 2465 059c 8947     		li	a5,2
 2466 059e 6388F646 		beq	a3,a5,.L204
 571:C:/Users/stapi/OneDrive/Desktop/GD32VW553/GD32VW55X_Wifi_BLE_SDK/GD32VW55x_RELEASE_V1.0.2/MSDK/lwip/libcoap-4.3.4/src\coap_debug.c ****       if (option_type == options_csm[i].type) {
 2467              		.loc 1 571 71 is_stmt 1
 2468              	.LVL222:
 571:C:/Users/stapi/OneDrive/Desktop/GD32VW553/GD32VW55X_Wifi_BLE_SDK/GD32VW55x_RELEASE_V1.0.2/MSDK/lwip/libcoap-4.3.4/src\coap_debug.c ****       if (option_type == options_csm[i].type) {
 2469              		.loc 1 571 17
 572:C:/Users/stapi/OneDrive/Desktop/GD32VW553/GD32VW55X_Wifi_BLE_SDK/GD32VW55x_RELEASE_V1.0.2/MSDK/lwip/libcoap-4.3.4/src\coap_debug.c ****         return options_csm[i].name;
 2470              		.loc 1 572 7
 572:C:/Users/stapi/OneDrive/Desktop/GD32VW553/GD32VW55X_Wifi_BLE_SDK/GD32VW55x_RELEASE_V1.0.2/MSDK/lwip/libcoap-4.3.4/src\coap_debug.c ****         return options_csm[i].name;
 2471              		.loc 1 572 10 is_stmt 0
 2472 05a2 9147     		li	a5,4
 2473 05a4 6387F646 		beq	a3,a5,.L205
 571:C:/Users/stapi/OneDrive/Desktop/GD32VW553/GD32VW55X_Wifi_BLE_SDK/GD32VW55x_RELEASE_V1.0.2/MSDK/lwip/libcoap-4.3.4/src\coap_debug.c ****       if (option_type == options_csm[i].type) {
 2474              		.loc 1 571 71 is_stmt 1
 2475              	.LVL223:
 571:C:/Users/stapi/OneDrive/Desktop/GD32VW553/GD32VW55X_Wifi_BLE_SDK/GD32VW55x_RELEASE_V1.0.2/MSDK/lwip/libcoap-4.3.4/src\coap_debug.c ****       if (option_type == options_csm[i].type) {
 2476              		.loc 1 571 17
 572:C:/Users/stapi/OneDrive/Desktop/GD32VW553/GD32VW55X_Wifi_BLE_SDK/GD32VW55x_RELEASE_V1.0.2/MSDK/lwip/libcoap-4.3.4/src\coap_debug.c ****         return options_csm[i].name;
 2477              		.loc 1 572 7
 572:C:/Users/stapi/OneDrive/Desktop/GD32VW553/GD32VW55X_Wifi_BLE_SDK/GD32VW55x_RELEASE_V1.0.2/MSDK/lwip/libcoap-4.3.4/src\coap_debug.c ****         return options_csm[i].name;
 2478              		.loc 1 572 10 is_stmt 0
 2479 05a8 9947     		li	a5,6
 2480 05aa 6390F648 		bne	a3,a5,.L166
 571:C:/Users/stapi/OneDrive/Desktop/GD32VW553/GD32VW55X_Wifi_BLE_SDK/GD32VW55x_RELEASE_V1.0.2/MSDK/lwip/libcoap-4.3.4/src\coap_debug.c ****       if (option_type == options_csm[i].type) {
 2481              		.loc 1 571 72
 2482 05ae 8947     		li	a5,2
 2483              	.LVL224:
 2484              	.L165:
 573:C:/Users/stapi/OneDrive/Desktop/GD32VW553/GD32VW55X_Wifi_BLE_SDK/GD32VW55x_RELEASE_V1.0.2/MSDK/lwip/libcoap-4.3.4/src\coap_debug.c ****       }
 2485              		.loc 1 573 9 is_stmt 1
 573:C:/Users/stapi/OneDrive/Desktop/GD32VW553/GD32VW55X_Wifi_BLE_SDK/GD32VW55x_RELEASE_V1.0.2/MSDK/lwip/libcoap-4.3.4/src\coap_debug.c ****       }
 2486              		.loc 1 573 30 is_stmt 0
 2487 05b0 37070000 		lui	a4,%hi(.LANCHOR12)
 2488 05b4 13070700 		addi	a4,a4,%lo(.LANCHOR12)
 2489              	.LVL225:
 2490              	.L291:
 598:C:/Users/stapi/OneDrive/Desktop/GD32VW553/GD32VW55X_Wifi_BLE_SDK/GD32VW55x_RELEASE_V1.0.2/MSDK/lwip/libcoap-4.3.4/src\coap_debug.c ****       }
 2491              		.loc 1 598 9 is_stmt 1
 598:C:/Users/stapi/OneDrive/Desktop/GD32VW553/GD32VW55X_Wifi_BLE_SDK/GD32VW55x_RELEASE_V1.0.2/MSDK/lwip/libcoap-4.3.4/src\coap_debug.c ****       }
 2492              		.loc 1 598 26 is_stmt 0
 2493 05b8 B3E7E720 		sh3add	a5,a5,a4
 2494 05bc D443     		lw	a3,4(a5)
 2495              	.LVL226:
 2496              	.L167:
 2497              	.LBE108:
 2498              	.LBE111:
 964:C:/Users/stapi/OneDrive/Desktop/GD32VW553/GD32VW55X_Wifi_BLE_SDK/GD32VW55x_RELEASE_V1.0.2/MSDK/lwip/libcoap-4.3.4/src\coap_debug.c ****              " %s:%.*s", msg_option_string(pdu->code, opt_iter.number),
 2499              		.loc 1 964 5
 2500 05be 37060000 		lui	a2,%hi(.LC49)
 2501 05c2 CA85     		mv	a1,s2
 2502 05c4 1C18     		addi	a5,sp,48
 2503 05c6 6A87     		mv	a4,s10
 2504 05c8 13060600 		addi	a2,a2,%lo(.LC49)
 2505 05cc 5A85     		mv	a0,s6
 2506 05ce 97000000 		call	snprintf
 2506      E7800000 
 2507              	.LVL227:
 2508 05d6 0549     		li	s2,1
 2509 05d8 45BE     		j	.L114
 2510              	.LVL228:
 2511              	.L131:
 2512              	.LBB112:
 2513              	.LBB104:
 652:C:/Users/stapi/OneDrive/Desktop/GD32VW553/GD32VW55X_Wifi_BLE_SDK/GD32VW55x_RELEASE_V1.0.2/MSDK/lwip/libcoap-4.3.4/src\coap_debug.c ****     if (format_type == formats[i].type) {
 2514              		.loc 1 652 58 is_stmt 1
 652:C:/Users/stapi/OneDrive/Desktop/GD32VW553/GD32VW55X_Wifi_BLE_SDK/GD32VW55x_RELEASE_V1.0.2/MSDK/lwip/libcoap-4.3.4/src\coap_debug.c ****     if (format_type == formats[i].type) {
 2515              		.loc 1 652 59 is_stmt 0
 2516 05da 8507     		addi	a5,a5,1
 2517              	.LVL229:
 652:C:/Users/stapi/OneDrive/Desktop/GD32VW553/GD32VW55X_Wifi_BLE_SDK/GD32VW55x_RELEASE_V1.0.2/MSDK/lwip/libcoap-4.3.4/src\coap_debug.c ****     if (format_type == formats[i].type) {
 2518              		.loc 1 652 15 is_stmt 1
 652:C:/Users/stapi/OneDrive/Desktop/GD32VW553/GD32VW55X_Wifi_BLE_SDK/GD32VW55x_RELEASE_V1.0.2/MSDK/lwip/libcoap-4.3.4/src\coap_debug.c ****     if (format_type == formats[i].type) {
 2519              		.loc 1 652 3 is_stmt 0
 2520 05dc 2107     		addi	a4,a4,8
 2521 05de E395C7F6 		bne	a5,a2,.L132
 659:C:/Users/stapi/OneDrive/Desktop/GD32VW553/GD32VW55X_Wifi_BLE_SDK/GD32VW55x_RELEASE_V1.0.2/MSDK/lwip/libcoap-4.3.4/src\coap_debug.c **** }
 2522              		.loc 1 659 3 is_stmt 1
 659:C:/Users/stapi/OneDrive/Desktop/GD32VW553/GD32VW55X_Wifi_BLE_SDK/GD32VW55x_RELEASE_V1.0.2/MSDK/lwip/libcoap-4.3.4/src\coap_debug.c **** }
 2523              		.loc 1 659 10 is_stmt 0
 2524 05e2 37060000 		lui	a2,%hi(.LC40)
 2525 05e6 13060600 		addi	a2,a2,%lo(.LC40)
 2526 05ea ADBF     		j	.L289
 2527              	.LVL230:
 2528              	.L124:
 2529              	.LBE104:
 2530              	.LBE112:
 832:C:/Users/stapi/OneDrive/Desktop/GD32VW553/GD32VW55X_Wifi_BLE_SDK/GD32VW55x_RELEASE_V1.0.2/MSDK/lwip/libcoap-4.3.4/src\coap_debug.c ****           if (coap_get_data(pdu, &data_len, &data))
 2531              		.loc 1 832 9 is_stmt 1
 832:C:/Users/stapi/OneDrive/Desktop/GD32VW553/GD32VW55X_Wifi_BLE_SDK/GD32VW55x_RELEASE_V1.0.2/MSDK/lwip/libcoap-4.3.4/src\coap_debug.c ****           if (coap_get_data(pdu, &data_len, &data))
 2532              		.loc 1 832 13 is_stmt 0
 2533 05ec 2285     		mv	a0,s0
 2534 05ee 97000000 		call	coap_opt_length
 2534      E7800000 
 2535              	.LVL231:
 832:C:/Users/stapi/OneDrive/Desktop/GD32VW553/GD32VW55X_Wifi_BLE_SDK/GD32VW55x_RELEASE_V1.0.2/MSDK/lwip/libcoap-4.3.4/src\coap_debug.c ****           if (coap_get_data(pdu, &data_len, &data))
 2536              		.loc 1 832 12
 2537 05f6 630F0512 		beq	a0,zero,.L133
 832:C:/Users/stapi/OneDrive/Desktop/GD32VW553/GD32VW55X_Wifi_BLE_SDK/GD32VW55x_RELEASE_V1.0.2/MSDK/lwip/libcoap-4.3.4/src\coap_debug.c ****           if (coap_get_data(pdu, &data_len, &data))
 2538              		.loc 1 832 13 discriminator 1
 2539 05fa 2285     		mv	a0,s0
 2540 05fc 97000000 		call	coap_opt_length
 2540      E7800000 
 2541              	.LVL232:
 832:C:/Users/stapi/OneDrive/Desktop/GD32VW553/GD32VW55X_Wifi_BLE_SDK/GD32VW55x_RELEASE_V1.0.2/MSDK/lwip/libcoap-4.3.4/src\coap_debug.c ****           if (coap_get_data(pdu, &data_len, &data))
 2542              		.loc 1 832 40 discriminator 1
 2543 0604 63080512 		beq	a0,zero,.L133
 832:C:/Users/stapi/OneDrive/Desktop/GD32VW553/GD32VW55X_Wifi_BLE_SDK/GD32VW55x_RELEASE_V1.0.2/MSDK/lwip/libcoap-4.3.4/src\coap_debug.c ****           if (coap_get_data(pdu, &data_len, &data))
 2544              		.loc 1 832 13 discriminator 2
 2545 0608 2285     		mv	a0,s0
 2546 060a 97000000 		call	coap_opt_value
 2546      E7800000 
 2547              	.LVL233:
 2548 0612 63010512 		beq	a0,zero,.L133
 832:C:/Users/stapi/OneDrive/Desktop/GD32VW553/GD32VW55X_Wifi_BLE_SDK/GD32VW55x_RELEASE_V1.0.2/MSDK/lwip/libcoap-4.3.4/src\coap_debug.c ****           if (coap_get_data(pdu, &data_len, &data))
 2549              		.loc 1 832 13 discriminator 3
 2550 0616 2285     		mv	a0,s0
 2551 0618 97000000 		call	coap_opt_value
 2551      E7800000 
 2552              	.LVL234:
 2553 0620 2A89     		mv	s2,a0
 2554 0622 2285     		mv	a0,s0
 2555 0624 97000000 		call	coap_opt_length
 2555      E7800000 
 2556              	.LVL235:
 2557 062c 2A99     		add	s2,s2,a0
 832:C:/Users/stapi/OneDrive/Desktop/GD32VW553/GD32VW55X_Wifi_BLE_SDK/GD32VW55x_RELEASE_V1.0.2/MSDK/lwip/libcoap-4.3.4/src\coap_debug.c ****           if (coap_get_data(pdu, &data_len, &data))
 2558              		.loc 1 832 40 discriminator 3
 2559 062e 8347F9FF 		lbu	a5,-1(s2)
 2560 0632 1D47     		li	a4,7
 2561 0634 9D8B     		andi	a5,a5,7
 2562 0636 639FE70E 		bne	a5,a4,.L133
 833:C:/Users/stapi/OneDrive/Desktop/GD32VW553/GD32VW55X_Wifi_BLE_SDK/GD32VW55x_RELEASE_V1.0.2/MSDK/lwip/libcoap-4.3.4/src\coap_debug.c ****             buf_len = snprintf((char *)buf, sizeof(buf), "%u/%c/BERT(%zu)",
 2563              		.loc 1 833 11 is_stmt 1
 833:C:/Users/stapi/OneDrive/Desktop/GD32VW553/GD32VW55X_Wifi_BLE_SDK/GD32VW55x_RELEASE_V1.0.2/MSDK/lwip/libcoap-4.3.4/src\coap_debug.c ****             buf_len = snprintf((char *)buf, sizeof(buf), "%u/%c/BERT(%zu)",
 2564              		.loc 1 833 15 is_stmt 0
 2565 063a 5008     		addi	a2,sp,20
 2566 063c 0C08     		addi	a1,sp,16
 2567 063e 2685     		mv	a0,s1
 2568 0640 97000000 		call	coap_get_data
 2568      E7800000 
 2569              	.LVL236:
 833:C:/Users/stapi/OneDrive/Desktop/GD32VW553/GD32VW55X_Wifi_BLE_SDK/GD32VW55x_RELEASE_V1.0.2/MSDK/lwip/libcoap-4.3.4/src\coap_debug.c ****             buf_len = snprintf((char *)buf, sizeof(buf), "%u/%c/BERT(%zu)",
 2570              		.loc 1 833 14
 2571 0648 25CD     		beq	a0,zero,.L134
 834:C:/Users/stapi/OneDrive/Desktop/GD32VW553/GD32VW55X_Wifi_BLE_SDK/GD32VW55x_RELEASE_V1.0.2/MSDK/lwip/libcoap-4.3.4/src\coap_debug.c ****                                coap_opt_block_num(option), /* block number */
 2572              		.loc 1 834 13 is_stmt 1
 834:C:/Users/stapi/OneDrive/Desktop/GD32VW553/GD32VW55X_Wifi_BLE_SDK/GD32VW55x_RELEASE_V1.0.2/MSDK/lwip/libcoap-4.3.4/src\coap_debug.c ****                                coap_opt_block_num(option), /* block number */
 2573              		.loc 1 834 23 is_stmt 0
 2574 064a 2285     		mv	a0,s0
 2575 064c 97000000 		call	coap_opt_block_num
 2575      E7800000 
 2576              	.LVL237:
 2577 0654 2A89     		mv	s2,a0
 836:C:/Users/stapi/OneDrive/Desktop/GD32VW553/GD32VW55X_Wifi_BLE_SDK/GD32VW55x_RELEASE_V1.0.2/MSDK/lwip/libcoap-4.3.4/src\coap_debug.c ****                                data_len);
 2578              		.loc 1 836 32
 2579 0656 2285     		mv	a0,s0
 2580 0658 97000000 		call	coap_opt_length
 2580      E7800000 
 2581              	.LVL238:
 834:C:/Users/stapi/OneDrive/Desktop/GD32VW553/GD32VW55X_Wifi_BLE_SDK/GD32VW55x_RELEASE_V1.0.2/MSDK/lwip/libcoap-4.3.4/src\coap_debug.c ****                                coap_opt_block_num(option), /* block number */
 2582              		.loc 1 834 23
 2583 0660 0DE1     		bne	a0,zero,.L135
 2584              	.L137:
 2585 0662 1307F005 		li	a4,95
 2586              	.L136:
 834:C:/Users/stapi/OneDrive/Desktop/GD32VW553/GD32VW55X_Wifi_BLE_SDK/GD32VW55x_RELEASE_V1.0.2/MSDK/lwip/libcoap-4.3.4/src\coap_debug.c ****                                coap_opt_block_num(option), /* block number */
 2587              		.loc 1 834 23 discriminator 3
 2588 0666 C247     		lw	a5,16(sp)
 2589 0668 37060000 		lui	a2,%hi(.LC41)
 2590 066c CA86     		mv	a3,s2
 2591 066e 13060600 		addi	a2,a2,%lo(.LC41)
 2592              	.LVL239:
 2593              	.L294:
 843:C:/Users/stapi/OneDrive/Desktop/GD32VW553/GD32VW55X_Wifi_BLE_SDK/GD32VW55x_RELEASE_V1.0.2/MSDK/lwip/libcoap-4.3.4/src\coap_debug.c ****                              coap_opt_block_num(option), /* block number */
 2594              		.loc 1 843 21 discriminator 6
 2595 0672 93050008 		li	a1,128
 2596 0676 0818     		addi	a0,sp,48
 2597 0678 97000000 		call	snprintf
 2597      E7800000 
 2598              	.LVL240:
 2599 0680 CDBD     		j	.L290
 2600              	.LVL241:
 2601              	.L135:
 836:C:/Users/stapi/OneDrive/Desktop/GD32VW553/GD32VW55X_Wifi_BLE_SDK/GD32VW55x_RELEASE_V1.0.2/MSDK/lwip/libcoap-4.3.4/src\coap_debug.c ****                                data_len);
 2602              		.loc 1 836 32
 2603 0682 2285     		mv	a0,s0
 2604 0684 97000000 		call	coap_opt_length
 2604      E7800000 
 2605              	.LVL242:
 836:C:/Users/stapi/OneDrive/Desktop/GD32VW553/GD32VW55X_Wifi_BLE_SDK/GD32VW55x_RELEASE_V1.0.2/MSDK/lwip/libcoap-4.3.4/src\coap_debug.c ****                                data_len);
 2606              		.loc 1 836 60
 2607 068c 79D9     		beq	a0,zero,.L137
 836:C:/Users/stapi/OneDrive/Desktop/GD32VW553/GD32VW55X_Wifi_BLE_SDK/GD32VW55x_RELEASE_V1.0.2/MSDK/lwip/libcoap-4.3.4/src\coap_debug.c ****                                data_len);
 2608              		.loc 1 836 32 discriminator 1
 2609 068e 2285     		mv	a0,s0
 2610 0690 97000000 		call	coap_opt_value
 2610      E7800000 
 2611              	.LVL243:
 2612 0698 69D5     		beq	a0,zero,.L137
 836:C:/Users/stapi/OneDrive/Desktop/GD32VW553/GD32VW55X_Wifi_BLE_SDK/GD32VW55x_RELEASE_V1.0.2/MSDK/lwip/libcoap-4.3.4/src\coap_debug.c ****                                data_len);
 2613              		.loc 1 836 32 discriminator 2
 2614 069a 2285     		mv	a0,s0
 2615 069c 97000000 		call	coap_opt_value
 2615      E7800000 
 2616              	.LVL244:
 2617 06a4 2A8B     		mv	s6,a0
 2618 06a6 2285     		mv	a0,s0
 2619 06a8 97000000 		call	coap_opt_length
 2619      E7800000 
 2620              	.LVL245:
 2621 06b0 2A9B     		add	s6,s6,a0
 836:C:/Users/stapi/OneDrive/Desktop/GD32VW553/GD32VW55X_Wifi_BLE_SDK/GD32VW55x_RELEASE_V1.0.2/MSDK/lwip/libcoap-4.3.4/src\coap_debug.c ****                                data_len);
 2622              		.loc 1 836 60 discriminator 2
 2623 06b2 8347FBFF 		lbu	a5,-1(s6)
 2624 06b6 A18B     		andi	a5,a5,8
 2625 06b8 CDD7     		beq	a5,zero,.L137
 834:C:/Users/stapi/OneDrive/Desktop/GD32VW553/GD32VW55X_Wifi_BLE_SDK/GD32VW55x_RELEASE_V1.0.2/MSDK/lwip/libcoap-4.3.4/src\coap_debug.c ****                                coap_opt_block_num(option), /* block number */
 2626              		.loc 1 834 23
 2627 06ba 1307D004 		li	a4,77
 2628 06be 65B7     		j	.L136
 2629              	.L134:
 839:C:/Users/stapi/OneDrive/Desktop/GD32VW553/GD32VW55X_Wifi_BLE_SDK/GD32VW55x_RELEASE_V1.0.2/MSDK/lwip/libcoap-4.3.4/src\coap_debug.c ****                                coap_opt_block_num(option), /* block number */
 2630              		.loc 1 839 13 is_stmt 1
 839:C:/Users/stapi/OneDrive/Desktop/GD32VW553/GD32VW55X_Wifi_BLE_SDK/GD32VW55x_RELEASE_V1.0.2/MSDK/lwip/libcoap-4.3.4/src\coap_debug.c ****                                coap_opt_block_num(option), /* block number */
 2631              		.loc 1 839 23 is_stmt 0
 2632 06c0 2285     		mv	a0,s0
 2633 06c2 97000000 		call	coap_opt_block_num
 2633      E7800000 
 2634              	.LVL246:
 2635 06ca 2A89     		mv	s2,a0
 841:C:/Users/stapi/OneDrive/Desktop/GD32VW553/GD32VW55X_Wifi_BLE_SDK/GD32VW55x_RELEASE_V1.0.2/MSDK/lwip/libcoap-4.3.4/src\coap_debug.c ****         } else {
 2636              		.loc 1 841 32
 2637 06cc 2285     		mv	a0,s0
 2638 06ce 97000000 		call	coap_opt_length
 2638      E7800000 
 2639              	.LVL247:
 839:C:/Users/stapi/OneDrive/Desktop/GD32VW553/GD32VW55X_Wifi_BLE_SDK/GD32VW55x_RELEASE_V1.0.2/MSDK/lwip/libcoap-4.3.4/src\coap_debug.c ****                                coap_opt_block_num(option), /* block number */
 2640              		.loc 1 839 23
 2641 06d6 05E1     		bne	a0,zero,.L138
 2642              	.L140:
 2643 06d8 1307F005 		li	a4,95
 2644              	.L139:
 839:C:/Users/stapi/OneDrive/Desktop/GD32VW553/GD32VW55X_Wifi_BLE_SDK/GD32VW55x_RELEASE_V1.0.2/MSDK/lwip/libcoap-4.3.4/src\coap_debug.c ****                                coap_opt_block_num(option), /* block number */
 2645              		.loc 1 839 23 discriminator 3
 2646 06dc 37060000 		lui	a2,%hi(.LC42)
 2647 06e0 CA86     		mv	a3,s2
 2648 06e2 13060600 		addi	a2,a2,%lo(.LC42)
 2649 06e6 93050008 		li	a1,128
 2650 06ea 0818     		addi	a0,sp,48
 2651 06ec 97000000 		call	snprintf
 2651      E7800000 
 2652              	.LVL248:
 2653 06f4 BDBD     		j	.L290
 2654              	.L138:
 841:C:/Users/stapi/OneDrive/Desktop/GD32VW553/GD32VW55X_Wifi_BLE_SDK/GD32VW55x_RELEASE_V1.0.2/MSDK/lwip/libcoap-4.3.4/src\coap_debug.c ****         } else {
 2655              		.loc 1 841 32
 2656 06f6 2285     		mv	a0,s0
 2657 06f8 97000000 		call	coap_opt_length
 2657      E7800000 
 2658              	.LVL249:
 841:C:/Users/stapi/OneDrive/Desktop/GD32VW553/GD32VW55X_Wifi_BLE_SDK/GD32VW55x_RELEASE_V1.0.2/MSDK/lwip/libcoap-4.3.4/src\coap_debug.c ****         } else {
 2659              		.loc 1 841 60
 2660 0700 61DD     		beq	a0,zero,.L140
 841:C:/Users/stapi/OneDrive/Desktop/GD32VW553/GD32VW55X_Wifi_BLE_SDK/GD32VW55x_RELEASE_V1.0.2/MSDK/lwip/libcoap-4.3.4/src\coap_debug.c ****         } else {
 2661              		.loc 1 841 32 discriminator 1
 2662 0702 2285     		mv	a0,s0
 2663 0704 97000000 		call	coap_opt_value
 2663      E7800000 
 2664              	.LVL250:
 2665 070c 71D5     		beq	a0,zero,.L140
 841:C:/Users/stapi/OneDrive/Desktop/GD32VW553/GD32VW55X_Wifi_BLE_SDK/GD32VW55x_RELEASE_V1.0.2/MSDK/lwip/libcoap-4.3.4/src\coap_debug.c ****         } else {
 2666              		.loc 1 841 32 discriminator 2
 2667 070e 2285     		mv	a0,s0
 2668 0710 97000000 		call	coap_opt_value
 2668      E7800000 
 2669              	.LVL251:
 2670 0718 2A8B     		mv	s6,a0
 2671 071a 2285     		mv	a0,s0
 2672 071c 97000000 		call	coap_opt_length
 2672      E7800000 
 2673              	.LVL252:
 2674 0724 2A9B     		add	s6,s6,a0
 841:C:/Users/stapi/OneDrive/Desktop/GD32VW553/GD32VW55X_Wifi_BLE_SDK/GD32VW55x_RELEASE_V1.0.2/MSDK/lwip/libcoap-4.3.4/src\coap_debug.c ****         } else {
 2675              		.loc 1 841 60 discriminator 2
 2676 0726 8347FBFF 		lbu	a5,-1(s6)
 2677 072a A18B     		andi	a5,a5,8
 2678 072c D5D7     		beq	a5,zero,.L140
 839:C:/Users/stapi/OneDrive/Desktop/GD32VW553/GD32VW55X_Wifi_BLE_SDK/GD32VW55x_RELEASE_V1.0.2/MSDK/lwip/libcoap-4.3.4/src\coap_debug.c ****                                coap_opt_block_num(option), /* block number */
 2679              		.loc 1 839 23
 2680 072e 1307D004 		li	a4,77
 2681 0732 6DB7     		j	.L139
 2682              	.L133:
 843:C:/Users/stapi/OneDrive/Desktop/GD32VW553/GD32VW55X_Wifi_BLE_SDK/GD32VW55x_RELEASE_V1.0.2/MSDK/lwip/libcoap-4.3.4/src\coap_debug.c ****                              coap_opt_block_num(option), /* block number */
 2683              		.loc 1 843 11 is_stmt 1
 843:C:/Users/stapi/OneDrive/Desktop/GD32VW553/GD32VW55X_Wifi_BLE_SDK/GD32VW55x_RELEASE_V1.0.2/MSDK/lwip/libcoap-4.3.4/src\coap_debug.c ****                              coap_opt_block_num(option), /* block number */
 2684              		.loc 1 843 21 is_stmt 0
 2685 0734 2285     		mv	a0,s0
 2686 0736 97000000 		call	coap_opt_block_num
 2686      E7800000 
 2687              	.LVL253:
 2688 073e 2A89     		mv	s2,a0
 845:C:/Users/stapi/OneDrive/Desktop/GD32VW553/GD32VW55X_Wifi_BLE_SDK/GD32VW55x_RELEASE_V1.0.2/MSDK/lwip/libcoap-4.3.4/src\coap_debug.c ****                              (1 << (COAP_OPT_BLOCK_SZX(option) + 4))); /* block size */
 2689              		.loc 1 845 30
 2690 0740 2285     		mv	a0,s0
 2691 0742 97000000 		call	coap_opt_length
 2691      E7800000 
 2692              	.LVL254:
 843:C:/Users/stapi/OneDrive/Desktop/GD32VW553/GD32VW55X_Wifi_BLE_SDK/GD32VW55x_RELEASE_V1.0.2/MSDK/lwip/libcoap-4.3.4/src\coap_debug.c ****                              coap_opt_block_num(option), /* block number */
 2693              		.loc 1 843 21
 2694 074a 0DE1     		bne	a0,zero,.L141
 2695              	.L143:
 2696 074c 130BF005 		li	s6,95
 2697              	.L142:
 846:C:/Users/stapi/OneDrive/Desktop/GD32VW553/GD32VW55X_Wifi_BLE_SDK/GD32VW55x_RELEASE_V1.0.2/MSDK/lwip/libcoap-4.3.4/src\coap_debug.c ****         }
 2698              		.loc 1 846 37 discriminator 3
 2699 0750 2285     		mv	a0,s0
 2700 0752 97000000 		call	coap_opt_length
 2700      E7800000 
 2701              	.LVL255:
 843:C:/Users/stapi/OneDrive/Desktop/GD32VW553/GD32VW55X_Wifi_BLE_SDK/GD32VW55x_RELEASE_V1.0.2/MSDK/lwip/libcoap-4.3.4/src\coap_debug.c ****                              coap_opt_block_num(option), /* block number */
 2702              		.loc 1 843 21 discriminator 3
 2703 075a 21E9     		bne	a0,zero,.L144
 2704              	.L146:
 843:C:/Users/stapi/OneDrive/Desktop/GD32VW553/GD32VW55X_Wifi_BLE_SDK/GD32VW55x_RELEASE_V1.0.2/MSDK/lwip/libcoap-4.3.4/src\coap_debug.c ****                              coap_opt_block_num(option), /* block number */
 2705              		.loc 1 843 21
 2706 075c C147     		li	a5,16
 2707              	.LVL256:
 2708              	.L145:
 843:C:/Users/stapi/OneDrive/Desktop/GD32VW553/GD32VW55X_Wifi_BLE_SDK/GD32VW55x_RELEASE_V1.0.2/MSDK/lwip/libcoap-4.3.4/src\coap_debug.c ****                              coap_opt_block_num(option), /* block number */
 2709              		.loc 1 843 21 discriminator 6
 2710 075e 37060000 		lui	a2,%hi(.LC43)
 2711 0762 5A87     		mv	a4,s6
 2712 0764 CA86     		mv	a3,s2
 2713 0766 13060600 		addi	a2,a2,%lo(.LC43)
 2714 076a 21B7     		j	.L294
 2715              	.LVL257:
 2716              	.L141:
 845:C:/Users/stapi/OneDrive/Desktop/GD32VW553/GD32VW55X_Wifi_BLE_SDK/GD32VW55x_RELEASE_V1.0.2/MSDK/lwip/libcoap-4.3.4/src\coap_debug.c ****                              (1 << (COAP_OPT_BLOCK_SZX(option) + 4))); /* block size */
 2717              		.loc 1 845 30
 2718 076c 2285     		mv	a0,s0
 2719 076e 97000000 		call	coap_opt_length
 2719      E7800000 
 2720              	.LVL258:
 845:C:/Users/stapi/OneDrive/Desktop/GD32VW553/GD32VW55X_Wifi_BLE_SDK/GD32VW55x_RELEASE_V1.0.2/MSDK/lwip/libcoap-4.3.4/src\coap_debug.c ****                              (1 << (COAP_OPT_BLOCK_SZX(option) + 4))); /* block size */
 2721              		.loc 1 845 58
 2722 0776 79D9     		beq	a0,zero,.L143
 845:C:/Users/stapi/OneDrive/Desktop/GD32VW553/GD32VW55X_Wifi_BLE_SDK/GD32VW55x_RELEASE_V1.0.2/MSDK/lwip/libcoap-4.3.4/src\coap_debug.c ****                              (1 << (COAP_OPT_BLOCK_SZX(option) + 4))); /* block size */
 2723              		.loc 1 845 30 discriminator 1
 2724 0778 2285     		mv	a0,s0
 2725 077a 97000000 		call	coap_opt_value
 2725      E7800000 
 2726              	.LVL259:
 2727 0782 69D5     		beq	a0,zero,.L143
 845:C:/Users/stapi/OneDrive/Desktop/GD32VW553/GD32VW55X_Wifi_BLE_SDK/GD32VW55x_RELEASE_V1.0.2/MSDK/lwip/libcoap-4.3.4/src\coap_debug.c ****                              (1 << (COAP_OPT_BLOCK_SZX(option) + 4))); /* block size */
 2728              		.loc 1 845 30 discriminator 2
 2729 0784 2285     		mv	a0,s0
 2730 0786 97000000 		call	coap_opt_value
 2730      E7800000 
 2731              	.LVL260:
 2732 078e 2A8B     		mv	s6,a0
 2733 0790 2285     		mv	a0,s0
 2734 0792 97000000 		call	coap_opt_length
 2734      E7800000 
 2735              	.LVL261:
 2736 079a 2A9B     		add	s6,s6,a0
 845:C:/Users/stapi/OneDrive/Desktop/GD32VW553/GD32VW55X_Wifi_BLE_SDK/GD32VW55x_RELEASE_V1.0.2/MSDK/lwip/libcoap-4.3.4/src\coap_debug.c ****                              (1 << (COAP_OPT_BLOCK_SZX(option) + 4))); /* block size */
 2737              		.loc 1 845 58 discriminator 2
 2738 079c 8347FBFF 		lbu	a5,-1(s6)
 2739 07a0 A18B     		andi	a5,a5,8
 2740 07a2 CDD7     		beq	a5,zero,.L143
 843:C:/Users/stapi/OneDrive/Desktop/GD32VW553/GD32VW55X_Wifi_BLE_SDK/GD32VW55x_RELEASE_V1.0.2/MSDK/lwip/libcoap-4.3.4/src\coap_debug.c ****                              coap_opt_block_num(option), /* block number */
 2741              		.loc 1 843 21
 2742 07a4 130BD004 		li	s6,77
 2743 07a8 65B7     		j	.L142
 2744              	.L144:
 846:C:/Users/stapi/OneDrive/Desktop/GD32VW553/GD32VW55X_Wifi_BLE_SDK/GD32VW55x_RELEASE_V1.0.2/MSDK/lwip/libcoap-4.3.4/src\coap_debug.c ****         }
 2745              		.loc 1 846 37
 2746 07aa 2285     		mv	a0,s0
 2747 07ac 97000000 		call	coap_opt_length
 2747      E7800000 
 2748              	.LVL262:
 846:C:/Users/stapi/OneDrive/Desktop/GD32VW553/GD32VW55X_Wifi_BLE_SDK/GD32VW55x_RELEASE_V1.0.2/MSDK/lwip/libcoap-4.3.4/src\coap_debug.c ****         }
 2749              		.loc 1 846 33
 2750 07b4 45D5     		beq	a0,zero,.L146
 846:C:/Users/stapi/OneDrive/Desktop/GD32VW553/GD32VW55X_Wifi_BLE_SDK/GD32VW55x_RELEASE_V1.0.2/MSDK/lwip/libcoap-4.3.4/src\coap_debug.c ****         }
 2751              		.loc 1 846 37 discriminator 1
 2752 07b6 2285     		mv	a0,s0
 2753 07b8 97000000 		call	coap_opt_value
 2753      E7800000 
 2754              	.LVL263:
 2755 07c0 51DD     		beq	a0,zero,.L146
 846:C:/Users/stapi/OneDrive/Desktop/GD32VW553/GD32VW55X_Wifi_BLE_SDK/GD32VW55x_RELEASE_V1.0.2/MSDK/lwip/libcoap-4.3.4/src\coap_debug.c ****         }
 2756              		.loc 1 846 37 discriminator 3
 2757 07c2 2285     		mv	a0,s0
 2758 07c4 97000000 		call	coap_opt_value
 2758      E7800000 
 2759              	.LVL264:
 2760 07cc 2A8D     		mv	s10,a0
 2761              	.LVL265:
 2762 07ce 2285     		mv	a0,s0
 2763 07d0 97000000 		call	coap_opt_length
 2763      E7800000 
 2764              	.LVL266:
 2765 07d8 2A9D     		add	s10,s10,a0
 846:C:/Users/stapi/OneDrive/Desktop/GD32VW553/GD32VW55X_Wifi_BLE_SDK/GD32VW55x_RELEASE_V1.0.2/MSDK/lwip/libcoap-4.3.4/src\coap_debug.c ****         }
 2766              		.loc 1 846 64 discriminator 3
 2767 07da 8347FDFF 		lbu	a5,-1(s10)
 2768 07de 9D8B     		andi	a5,a5,7
 2769 07e0 9107     		addi	a5,a5,4
 846:C:/Users/stapi/OneDrive/Desktop/GD32VW553/GD32VW55X_Wifi_BLE_SDK/GD32VW55x_RELEASE_V1.0.2/MSDK/lwip/libcoap-4.3.4/src\coap_debug.c ****         }
 2770              		.loc 1 846 33 discriminator 3
 2771 07e2 B317F028 		bset	a5,x0,a5
 2772 07e6 A5BF     		j	.L145
 2773              	.LVL267:
 2774              	.L128:
 852:C:/Users/stapi/OneDrive/Desktop/GD32VW553/GD32VW55X_Wifi_BLE_SDK/GD32VW55x_RELEASE_V1.0.2/MSDK/lwip/libcoap-4.3.4/src\coap_debug.c ****         buf[0] = '\000';
 2775              		.loc 1 852 9 is_stmt 1
 852:C:/Users/stapi/OneDrive/Desktop/GD32VW553/GD32VW55X_Wifi_BLE_SDK/GD32VW55x_RELEASE_V1.0.2/MSDK/lwip/libcoap-4.3.4/src\coap_debug.c ****         buf[0] = '\000';
 2776              		.loc 1 852 19 is_stmt 0
 2777 07e8 2285     		mv	a0,s0
 2778 07ea 97000000 		call	coap_opt_length
 2778      E7800000 
 2779              	.LVL268:
 853:C:/Users/stapi/OneDrive/Desktop/GD32VW553/GD32VW55X_Wifi_BLE_SDK/GD32VW55x_RELEASE_V1.0.2/MSDK/lwip/libcoap-4.3.4/src\coap_debug.c ****         if (opt_len) {
 2780              		.loc 1 853 16
 2781 07f2 23080102 		sb	zero,48(sp)
 852:C:/Users/stapi/OneDrive/Desktop/GD32VW553/GD32VW55X_Wifi_BLE_SDK/GD32VW55x_RELEASE_V1.0.2/MSDK/lwip/libcoap-4.3.4/src\coap_debug.c ****         buf[0] = '\000';
 2782              		.loc 1 852 19
 2783 07f6 2A89     		mv	s2,a0
 2784              	.LVL269:
 853:C:/Users/stapi/OneDrive/Desktop/GD32VW553/GD32VW55X_Wifi_BLE_SDK/GD32VW55x_RELEASE_V1.0.2/MSDK/lwip/libcoap-4.3.4/src\coap_debug.c ****         if (opt_len) {
 2785              		.loc 1 853 9 is_stmt 1
 854:C:/Users/stapi/OneDrive/Desktop/GD32VW553/GD32VW55X_Wifi_BLE_SDK/GD32VW55x_RELEASE_V1.0.2/MSDK/lwip/libcoap-4.3.4/src\coap_debug.c ****           size_t ofs = 1;
 2786              		.loc 1 854 9
 854:C:/Users/stapi/OneDrive/Desktop/GD32VW553/GD32VW55X_Wifi_BLE_SDK/GD32VW55x_RELEASE_V1.0.2/MSDK/lwip/libcoap-4.3.4/src\coap_debug.c ****           size_t ofs = 1;
 2787              		.loc 1 854 12 is_stmt 0
 2788 07f8 09E9     		bne	a0,zero,.L147
 2789              	.LVL270:
 2790              	.L150:
 2791              	.LDL1:
 912:C:/Users/stapi/OneDrive/Desktop/GD32VW553/GD32VW55X_Wifi_BLE_SDK/GD32VW55x_RELEASE_V1.0.2/MSDK/lwip/libcoap-4.3.4/src\coap_debug.c ****         is_oscore_payload = 1;
 2792              		.loc 1 912 9 is_stmt 1
 912:C:/Users/stapi/OneDrive/Desktop/GD32VW553/GD32VW55X_Wifi_BLE_SDK/GD32VW55x_RELEASE_V1.0.2/MSDK/lwip/libcoap-4.3.4/src\coap_debug.c ****         is_oscore_payload = 1;
 2793              		.loc 1 912 19 is_stmt 0
 2794 07fa 0818     		addi	a0,sp,48
 2795 07fc 97000000 		call	strlen
 2795      E7800000 
 2796              	.LVL271:
 2797 0804 2A8D     		mv	s10,a0
 2798              	.LVL272:
 913:C:/Users/stapi/OneDrive/Desktop/GD32VW553/GD32VW55X_Wifi_BLE_SDK/GD32VW55x_RELEASE_V1.0.2/MSDK/lwip/libcoap-4.3.4/src\coap_debug.c ****         break;
 2799              		.loc 1 913 9 is_stmt 1
 914:C:/Users/stapi/OneDrive/Desktop/GD32VW553/GD32VW55X_Wifi_BLE_SDK/GD32VW55x_RELEASE_V1.0.2/MSDK/lwip/libcoap-4.3.4/src\coap_debug.c **** 
 2800              		.loc 1 914 9
 913:C:/Users/stapi/OneDrive/Desktop/GD32VW553/GD32VW55X_Wifi_BLE_SDK/GD32VW55x_RELEASE_V1.0.2/MSDK/lwip/libcoap-4.3.4/src\coap_debug.c ****         break;
 2801              		.loc 1 913 27 is_stmt 0
 2802 0806 054A     		li	s4,1
 914:C:/Users/stapi/OneDrive/Desktop/GD32VW553/GD32VW55X_Wifi_BLE_SDK/GD32VW55x_RELEASE_V1.0.2/MSDK/lwip/libcoap-4.3.4/src\coap_debug.c **** 
 2803              		.loc 1 914 9
 2804 0808 B5B3     		j	.L117
 2805              	.LVL273:
 2806              	.L147:
 2807              	.LBB113:
 855:C:/Users/stapi/OneDrive/Desktop/GD32VW553/GD32VW55X_Wifi_BLE_SDK/GD32VW55x_RELEASE_V1.0.2/MSDK/lwip/libcoap-4.3.4/src\coap_debug.c ****           size_t cnt;
 2808              		.loc 1 855 11 is_stmt 1
 856:C:/Users/stapi/OneDrive/Desktop/GD32VW553/GD32VW55X_Wifi_BLE_SDK/GD32VW55x_RELEASE_V1.0.2/MSDK/lwip/libcoap-4.3.4/src\coap_debug.c **** 
 2809              		.loc 1 856 11
 858:C:/Users/stapi/OneDrive/Desktop/GD32VW553/GD32VW55X_Wifi_BLE_SDK/GD32VW55x_RELEASE_V1.0.2/MSDK/lwip/libcoap-4.3.4/src\coap_debug.c ****           if (opt_val[0] & 0x20) {
 2810              		.loc 1 858 11
 858:C:/Users/stapi/OneDrive/Desktop/GD32VW553/GD32VW55X_Wifi_BLE_SDK/GD32VW55x_RELEASE_V1.0.2/MSDK/lwip/libcoap-4.3.4/src\coap_debug.c ****           if (opt_val[0] & 0x20) {
 2811              		.loc 1 858 21 is_stmt 0
 2812 080a 2285     		mv	a0,s0
 2813              	.LVL274:
 2814 080c 97000000 		call	coap_opt_value
 2814      E7800000 
 2815              	.LVL275:
 859:C:/Users/stapi/OneDrive/Desktop/GD32VW553/GD32VW55X_Wifi_BLE_SDK/GD32VW55x_RELEASE_V1.0.2/MSDK/lwip/libcoap-4.3.4/src\coap_debug.c ****             /* Group Flag */
 2816              		.loc 1 859 14
 2817 0814 83470500 		lbu	a5,0(a0)
 858:C:/Users/stapi/OneDrive/Desktop/GD32VW553/GD32VW55X_Wifi_BLE_SDK/GD32VW55x_RELEASE_V1.0.2/MSDK/lwip/libcoap-4.3.4/src\coap_debug.c ****           if (opt_val[0] & 0x20) {
 2818              		.loc 1 858 21
 2819 0818 2A8A     		mv	s4,a0
 2820              	.LVL276:
 859:C:/Users/stapi/OneDrive/Desktop/GD32VW553/GD32VW55X_Wifi_BLE_SDK/GD32VW55x_RELEASE_V1.0.2/MSDK/lwip/libcoap-4.3.4/src\coap_debug.c ****             /* Group Flag */
 2821              		.loc 1 859 11 is_stmt 1
 859:C:/Users/stapi/OneDrive/Desktop/GD32VW553/GD32VW55X_Wifi_BLE_SDK/GD32VW55x_RELEASE_V1.0.2/MSDK/lwip/libcoap-4.3.4/src\coap_debug.c ****             /* Group Flag */
 2822              		.loc 1 859 14 is_stmt 0
 2823 081a 93F70702 		andi	a5,a5,32
 2824 081e 91CB     		beq	a5,zero,.L148
 861:C:/Users/stapi/OneDrive/Desktop/GD32VW553/GD32VW55X_Wifi_BLE_SDK/GD32VW55x_RELEASE_V1.0.2/MSDK/lwip/libcoap-4.3.4/src\coap_debug.c ****           }
 2825              		.loc 1 861 13 is_stmt 1
 2826 0820 B7050000 		lui	a1,%hi(.LC44)
 2827 0824 93850500 		addi	a1,a1,%lo(.LC44)
 2828 0828 0818     		addi	a0,sp,48
 2829              	.LVL277:
 2830 082a 97000000 		call	strcpy
 2830      E7800000 
 2831              	.LVL278:
 2832              	.L148:
 863:C:/Users/stapi/OneDrive/Desktop/GD32VW553/GD32VW55X_Wifi_BLE_SDK/GD32VW55x_RELEASE_V1.0.2/MSDK/lwip/libcoap-4.3.4/src\coap_debug.c ****             /* Partial IV */
 2833              		.loc 1 863 11
 2834 0832 03440A00 		lbu	s0,0(s4)
 2835              	.LVL279:
 2836 0836 1D88     		andi	s0,s0,7
 863:C:/Users/stapi/OneDrive/Desktop/GD32VW553/GD32VW55X_Wifi_BLE_SDK/GD32VW55x_RELEASE_V1.0.2/MSDK/lwip/libcoap-4.3.4/src\coap_debug.c ****             /* Partial IV */
 2837              		.loc 1 863 14 is_stmt 0
 2838 0838 630E0414 		beq	s0,zero,.L198
 865:C:/Users/stapi/OneDrive/Desktop/GD32VW553/GD32VW55X_Wifi_BLE_SDK/GD32VW55x_RELEASE_V1.0.2/MSDK/lwip/libcoap-4.3.4/src\coap_debug.c ****             if (cnt > opt_len - ofs)
 2839              		.loc 1 865 13 is_stmt 1
 2840              	.LVL280:
 866:C:/Users/stapi/OneDrive/Desktop/GD32VW553/GD32VW55X_Wifi_BLE_SDK/GD32VW55x_RELEASE_V1.0.2/MSDK/lwip/libcoap-4.3.4/src\coap_debug.c ****               goto no_more;
 2841              		.loc 1 866 13
 866:C:/Users/stapi/OneDrive/Desktop/GD32VW553/GD32VW55X_Wifi_BLE_SDK/GD32VW55x_RELEASE_V1.0.2/MSDK/lwip/libcoap-4.3.4/src\coap_debug.c ****               goto no_more;
 2842              		.loc 1 866 31 is_stmt 0
 2843 083c 9307F9FF 		addi	a5,s2,-1
 866:C:/Users/stapi/OneDrive/Desktop/GD32VW553/GD32VW55X_Wifi_BLE_SDK/GD32VW55x_RELEASE_V1.0.2/MSDK/lwip/libcoap-4.3.4/src\coap_debug.c ****               goto no_more;
 2844              		.loc 1 866 16
 2845 0840 E3ED87FA 		bltu	a5,s0,.L150
 868:C:/Users/stapi/OneDrive/Desktop/GD32VW553/GD32VW55X_Wifi_BLE_SDK/GD32VW55x_RELEASE_V1.0.2/MSDK/lwip/libcoap-4.3.4/src\coap_debug.c ****             snprintf((char *)&buf[buf_len], sizeof(buf)-buf_len, "%spIV=0x",
 2846              		.loc 1 868 23
 2847 0844 0818     		addi	a0,sp,48
 2848 0846 97000000 		call	strlen
 2848      E7800000 
 2849              	.LVL281:
 2850 084e AA87     		mv	a5,a0
 868:C:/Users/stapi/OneDrive/Desktop/GD32VW553/GD32VW55X_Wifi_BLE_SDK/GD32VW55x_RELEASE_V1.0.2/MSDK/lwip/libcoap-4.3.4/src\coap_debug.c ****             snprintf((char *)&buf[buf_len], sizeof(buf)-buf_len, "%spIV=0x",
 2851              		.loc 1 868 13 is_stmt 1
 2852              	.LVL282:
 869:C:/Users/stapi/OneDrive/Desktop/GD32VW553/GD32VW55X_Wifi_BLE_SDK/GD32VW55x_RELEASE_V1.0.2/MSDK/lwip/libcoap-4.3.4/src\coap_debug.c ****                      buf_len ? "," : "");
 2853              		.loc 1 869 13
 869:C:/Users/stapi/OneDrive/Desktop/GD32VW553/GD32VW55X_Wifi_BLE_SDK/GD32VW55x_RELEASE_V1.0.2/MSDK/lwip/libcoap-4.3.4/src\coap_debug.c ****                      buf_len ? "," : "");
 2854              		.loc 1 869 30 is_stmt 0
 2855 0850 1818     		addi	a4,sp,48
 869:C:/Users/stapi/OneDrive/Desktop/GD32VW553/GD32VW55X_Wifi_BLE_SDK/GD32VW55x_RELEASE_V1.0.2/MSDK/lwip/libcoap-4.3.4/src\coap_debug.c ****                      buf_len ? "," : "");
 2856              		.loc 1 869 13
 2857 0852 93050008 		li	a1,128
 869:C:/Users/stapi/OneDrive/Desktop/GD32VW553/GD32VW55X_Wifi_BLE_SDK/GD32VW55x_RELEASE_V1.0.2/MSDK/lwip/libcoap-4.3.4/src\coap_debug.c ****                      buf_len ? "," : "");
 2858              		.loc 1 869 30
 2859 0856 3A95     		add	a0,a4,a0
 869:C:/Users/stapi/OneDrive/Desktop/GD32VW553/GD32VW55X_Wifi_BLE_SDK/GD32VW55x_RELEASE_V1.0.2/MSDK/lwip/libcoap-4.3.4/src\coap_debug.c ****                      buf_len ? "," : "");
 2860              		.loc 1 869 13
 2861 0858 9D8D     		sub	a1,a1,a5
 2862 085a DE86     		mv	a3,s7
 2863 085c 89C7     		beq	a5,zero,.L151
 2864 085e B7060000 		lui	a3,%hi(.LC27)
 2865 0862 93860600 		addi	a3,a3,%lo(.LC27)
 2866              	.L151:
 869:C:/Users/stapi/OneDrive/Desktop/GD32VW553/GD32VW55X_Wifi_BLE_SDK/GD32VW55x_RELEASE_V1.0.2/MSDK/lwip/libcoap-4.3.4/src\coap_debug.c ****                      buf_len ? "," : "");
 2867              		.loc 1 869 13 discriminator 4
 2868 0866 37060000 		lui	a2,%hi(.LC45)
 2869 086a 13060600 		addi	a2,a2,%lo(.LC45)
 2870 086e 97000000 		call	snprintf
 2870      E7800000 
 2871              	.LVL283:
 871:C:/Users/stapi/OneDrive/Desktop/GD32VW553/GD32VW55X_Wifi_BLE_SDK/GD32VW55x_RELEASE_V1.0.2/MSDK/lwip/libcoap-4.3.4/src\coap_debug.c ****               buf_len = strlen((char *)buf);
 2872              		.loc 1 871 13 is_stmt 1 discriminator 4
 871:C:/Users/stapi/OneDrive/Desktop/GD32VW553/GD32VW55X_Wifi_BLE_SDK/GD32VW55x_RELEASE_V1.0.2/MSDK/lwip/libcoap-4.3.4/src\coap_debug.c ****               buf_len = strlen((char *)buf);
 2873              		.loc 1 871 25 discriminator 4
 871:C:/Users/stapi/OneDrive/Desktop/GD32VW553/GD32VW55X_Wifi_BLE_SDK/GD32VW55x_RELEASE_V1.0.2/MSDK/lwip/libcoap-4.3.4/src\coap_debug.c ****               buf_len = strlen((char *)buf);
 2874              		.loc 1 871 20 is_stmt 0 discriminator 4
 2875 0876 014D     		li	s10,0
 873:C:/Users/stapi/OneDrive/Desktop/GD32VW553/GD32VW55X_Wifi_BLE_SDK/GD32VW55x_RELEASE_V1.0.2/MSDK/lwip/libcoap-4.3.4/src\coap_debug.c ****                        "%02x", opt_val[ofs + i]);
 2876              		.loc 1 873 15 discriminator 4
 2877 0878 130B0008 		li	s6,128
 2878              	.LVL284:
 2879              	.L152:
 872:C:/Users/stapi/OneDrive/Desktop/GD32VW553/GD32VW55X_Wifi_BLE_SDK/GD32VW55x_RELEASE_V1.0.2/MSDK/lwip/libcoap-4.3.4/src\coap_debug.c ****               snprintf((char *)&buf[buf_len], sizeof(buf)-buf_len,
 2880              		.loc 1 872 15 is_stmt 1 discriminator 3
 872:C:/Users/stapi/OneDrive/Desktop/GD32VW553/GD32VW55X_Wifi_BLE_SDK/GD32VW55x_RELEASE_V1.0.2/MSDK/lwip/libcoap-4.3.4/src\coap_debug.c ****               snprintf((char *)&buf[buf_len], sizeof(buf)-buf_len,
 2881              		.loc 1 872 25 is_stmt 0 discriminator 3
 2882 087c 0818     		addi	a0,sp,48
 2883 087e 97000000 		call	strlen
 2883      E7800000 
 2884              	.LVL285:
 873:C:/Users/stapi/OneDrive/Desktop/GD32VW553/GD32VW55X_Wifi_BLE_SDK/GD32VW55x_RELEASE_V1.0.2/MSDK/lwip/libcoap-4.3.4/src\coap_debug.c ****                        "%02x", opt_val[ofs + i]);
 2885              		.loc 1 873 15 is_stmt 1 discriminator 3
 874:C:/Users/stapi/OneDrive/Desktop/GD32VW553/GD32VW55X_Wifi_BLE_SDK/GD32VW55x_RELEASE_V1.0.2/MSDK/lwip/libcoap-4.3.4/src\coap_debug.c ****             }
 2886              		.loc 1 874 44 is_stmt 0 discriminator 3
 2887 0886 050D     		addi	s10,s10,1
 2888              	.LVL286:
 874:C:/Users/stapi/OneDrive/Desktop/GD32VW553/GD32VW55X_Wifi_BLE_SDK/GD32VW55x_RELEASE_V1.0.2/MSDK/lwip/libcoap-4.3.4/src\coap_debug.c ****             }
 2889              		.loc 1 874 39 discriminator 3
 2890 0888 B307AA01 		add	a5,s4,s10
 873:C:/Users/stapi/OneDrive/Desktop/GD32VW553/GD32VW55X_Wifi_BLE_SDK/GD32VW55x_RELEASE_V1.0.2/MSDK/lwip/libcoap-4.3.4/src\coap_debug.c ****                        "%02x", opt_val[ofs + i]);
 2891              		.loc 1 873 15 discriminator 3
 2892 088c 83C60700 		lbu	a3,0(a5)
 2893 0890 1C18     		addi	a5,sp,48
 2894 0892 B305AB40 		sub	a1,s6,a0
 2895 0896 13860C00 		addi	a2,s9,%lo(.LC35)
 2896 089a 3E95     		add	a0,a5,a0
 2897              	.LVL287:
 2898 089c 97000000 		call	snprintf
 2898      E7800000 
 2899              	.LVL288:
 871:C:/Users/stapi/OneDrive/Desktop/GD32VW553/GD32VW55X_Wifi_BLE_SDK/GD32VW55x_RELEASE_V1.0.2/MSDK/lwip/libcoap-4.3.4/src\coap_debug.c ****               buf_len = strlen((char *)buf);
 2900              		.loc 1 871 44 is_stmt 1 discriminator 3
 871:C:/Users/stapi/OneDrive/Desktop/GD32VW553/GD32VW55X_Wifi_BLE_SDK/GD32VW55x_RELEASE_V1.0.2/MSDK/lwip/libcoap-4.3.4/src\coap_debug.c ****               buf_len = strlen((char *)buf);
 2901              		.loc 1 871 25 discriminator 3
 871:C:/Users/stapi/OneDrive/Desktop/GD32VW553/GD32VW55X_Wifi_BLE_SDK/GD32VW55x_RELEASE_V1.0.2/MSDK/lwip/libcoap-4.3.4/src\coap_debug.c ****               buf_len = strlen((char *)buf);
 2902              		.loc 1 871 13 is_stmt 0 discriminator 3
 2903 08a4 E36C8DFC 		bltu	s10,s0,.L152
 876:C:/Users/stapi/OneDrive/Desktop/GD32VW553/GD32VW55X_Wifi_BLE_SDK/GD32VW55x_RELEASE_V1.0.2/MSDK/lwip/libcoap-4.3.4/src\coap_debug.c ****           }
 2904              		.loc 1 876 13 is_stmt 1
 876:C:/Users/stapi/OneDrive/Desktop/GD32VW553/GD32VW55X_Wifi_BLE_SDK/GD32VW55x_RELEASE_V1.0.2/MSDK/lwip/libcoap-4.3.4/src\coap_debug.c ****           }
 2905              		.loc 1 876 17 is_stmt 0
 2906 08a8 0504     		addi	s0,s0,1
 2907              	.LVL289:
 2908              	.L149:
 878:C:/Users/stapi/OneDrive/Desktop/GD32VW553/GD32VW55X_Wifi_BLE_SDK/GD32VW55x_RELEASE_V1.0.2/MSDK/lwip/libcoap-4.3.4/src\coap_debug.c ****             /* kid context */
 2909              		.loc 1 878 11 is_stmt 1
 878:C:/Users/stapi/OneDrive/Desktop/GD32VW553/GD32VW55X_Wifi_BLE_SDK/GD32VW55x_RELEASE_V1.0.2/MSDK/lwip/libcoap-4.3.4/src\coap_debug.c ****             /* kid context */
 2910              		.loc 1 878 14 is_stmt 0
 2911 08aa 83470A00 		lbu	a5,0(s4)
 2912 08ae C18B     		andi	a5,a5,16
 2913 08b0 ADC7     		beq	a5,zero,.L153
 880:C:/Users/stapi/OneDrive/Desktop/GD32VW553/GD32VW55X_Wifi_BLE_SDK/GD32VW55x_RELEASE_V1.0.2/MSDK/lwip/libcoap-4.3.4/src\coap_debug.c ****               goto no_more;
 2914              		.loc 1 880 13 is_stmt 1
 880:C:/Users/stapi/OneDrive/Desktop/GD32VW553/GD32VW55X_Wifi_BLE_SDK/GD32VW55x_RELEASE_V1.0.2/MSDK/lwip/libcoap-4.3.4/src\coap_debug.c ****               goto no_more;
 2915              		.loc 1 880 16 is_stmt 0
 2916 08b2 E37424F5 		bgeu	s0,s2,.L150
 882:C:/Users/stapi/OneDrive/Desktop/GD32VW553/GD32VW55X_Wifi_BLE_SDK/GD32VW55x_RELEASE_V1.0.2/MSDK/lwip/libcoap-4.3.4/src\coap_debug.c ****             if (cnt > opt_len - ofs - 1)
 2917              		.loc 1 882 13 is_stmt 1
 882:C:/Users/stapi/OneDrive/Desktop/GD32VW553/GD32VW55X_Wifi_BLE_SDK/GD32VW55x_RELEASE_V1.0.2/MSDK/lwip/libcoap-4.3.4/src\coap_debug.c ****             if (cnt > opt_len - ofs - 1)
 2918              		.loc 1 882 26 is_stmt 0
 2919 08b6 330B8A00 		add	s6,s4,s0
 882:C:/Users/stapi/OneDrive/Desktop/GD32VW553/GD32VW55X_Wifi_BLE_SDK/GD32VW55x_RELEASE_V1.0.2/MSDK/lwip/libcoap-4.3.4/src\coap_debug.c ****             if (cnt > opt_len - ofs - 1)
 2920              		.loc 1 882 17
 2921 08ba 034D0B00 		lbu	s10,0(s6)
 2922              	.LVL290:
 883:C:/Users/stapi/OneDrive/Desktop/GD32VW553/GD32VW55X_Wifi_BLE_SDK/GD32VW55x_RELEASE_V1.0.2/MSDK/lwip/libcoap-4.3.4/src\coap_debug.c ****               goto no_more;
 2923              		.loc 1 883 13 is_stmt 1
 883:C:/Users/stapi/OneDrive/Desktop/GD32VW553/GD32VW55X_Wifi_BLE_SDK/GD32VW55x_RELEASE_V1.0.2/MSDK/lwip/libcoap-4.3.4/src\coap_debug.c ****               goto no_more;
 2924              		.loc 1 883 37 is_stmt 0
 2925 08be 9307F9FF 		addi	a5,s2,-1
 2926 08c2 818F     		sub	a5,a5,s0
 883:C:/Users/stapi/OneDrive/Desktop/GD32VW553/GD32VW55X_Wifi_BLE_SDK/GD32VW55x_RELEASE_V1.0.2/MSDK/lwip/libcoap-4.3.4/src\coap_debug.c ****               goto no_more;
 2927              		.loc 1 883 16
 2928 08c4 E3EBA7F3 		bltu	a5,s10,.L150
 886:C:/Users/stapi/OneDrive/Desktop/GD32VW553/GD32VW55X_Wifi_BLE_SDK/GD32VW55x_RELEASE_V1.0.2/MSDK/lwip/libcoap-4.3.4/src\coap_debug.c ****             snprintf((char *)&buf[buf_len], sizeof(buf)-buf_len, "%skc=0x",
 2929              		.loc 1 886 23
 2930 08c8 0818     		addi	a0,sp,48
 2931 08ca 97000000 		call	strlen
 2931      E7800000 
 2932              	.LVL291:
 885:C:/Users/stapi/OneDrive/Desktop/GD32VW553/GD32VW55X_Wifi_BLE_SDK/GD32VW55x_RELEASE_V1.0.2/MSDK/lwip/libcoap-4.3.4/src\coap_debug.c ****             buf_len = strlen((char *)buf);
 2933              		.loc 1 885 16
 2934 08d2 13071400 		addi	a4,s0,1
 886:C:/Users/stapi/OneDrive/Desktop/GD32VW553/GD32VW55X_Wifi_BLE_SDK/GD32VW55x_RELEASE_V1.0.2/MSDK/lwip/libcoap-4.3.4/src\coap_debug.c ****             snprintf((char *)&buf[buf_len], sizeof(buf)-buf_len, "%skc=0x",
 2935              		.loc 1 886 23
 2936 08d6 AA87     		mv	a5,a0
 885:C:/Users/stapi/OneDrive/Desktop/GD32VW553/GD32VW55X_Wifi_BLE_SDK/GD32VW55x_RELEASE_V1.0.2/MSDK/lwip/libcoap-4.3.4/src\coap_debug.c ****             buf_len = strlen((char *)buf);
 2937              		.loc 1 885 13 is_stmt 1
 885:C:/Users/stapi/OneDrive/Desktop/GD32VW553/GD32VW55X_Wifi_BLE_SDK/GD32VW55x_RELEASE_V1.0.2/MSDK/lwip/libcoap-4.3.4/src\coap_debug.c ****             buf_len = strlen((char *)buf);
 2938              		.loc 1 885 16 is_stmt 0
 2939 08d8 3AC4     		sw	a4,8(sp)
 2940              	.LVL292:
 886:C:/Users/stapi/OneDrive/Desktop/GD32VW553/GD32VW55X_Wifi_BLE_SDK/GD32VW55x_RELEASE_V1.0.2/MSDK/lwip/libcoap-4.3.4/src\coap_debug.c ****             snprintf((char *)&buf[buf_len], sizeof(buf)-buf_len, "%skc=0x",
 2941              		.loc 1 886 13 is_stmt 1
 887:C:/Users/stapi/OneDrive/Desktop/GD32VW553/GD32VW55X_Wifi_BLE_SDK/GD32VW55x_RELEASE_V1.0.2/MSDK/lwip/libcoap-4.3.4/src\coap_debug.c ****                      buf_len ? "," : "");
 2942              		.loc 1 887 13
 2943 08da 93050008 		li	a1,128
 887:C:/Users/stapi/OneDrive/Desktop/GD32VW553/GD32VW55X_Wifi_BLE_SDK/GD32VW55x_RELEASE_V1.0.2/MSDK/lwip/libcoap-4.3.4/src\coap_debug.c ****                      buf_len ? "," : "");
 2944              		.loc 1 887 30 is_stmt 0
 2945 08de 1818     		addi	a4,sp,48
 2946              	.LVL293:
 2947 08e0 3A95     		add	a0,a4,a0
 887:C:/Users/stapi/OneDrive/Desktop/GD32VW553/GD32VW55X_Wifi_BLE_SDK/GD32VW55x_RELEASE_V1.0.2/MSDK/lwip/libcoap-4.3.4/src\coap_debug.c ****                      buf_len ? "," : "");
 2948              		.loc 1 887 13
 2949 08e2 9D8D     		sub	a1,a1,a5
 2950 08e4 DE86     		mv	a3,s7
 2951 08e6 89C7     		beq	a5,zero,.L154
 2952 08e8 B7060000 		lui	a3,%hi(.LC27)
 2953 08ec 93860600 		addi	a3,a3,%lo(.LC27)
 2954              	.L154:
 887:C:/Users/stapi/OneDrive/Desktop/GD32VW553/GD32VW55X_Wifi_BLE_SDK/GD32VW55x_RELEASE_V1.0.2/MSDK/lwip/libcoap-4.3.4/src\coap_debug.c ****                      buf_len ? "," : "");
 2955              		.loc 1 887 13 discriminator 4
 2956 08f0 37060000 		lui	a2,%hi(.LC46)
 2957 08f4 13060600 		addi	a2,a2,%lo(.LC46)
 2958 08f8 5A84     		mv	s0,s6
 2959 08fa 97000000 		call	snprintf
 2959      E7800000 
 2960              	.LVL294:
 889:C:/Users/stapi/OneDrive/Desktop/GD32VW553/GD32VW55X_Wifi_BLE_SDK/GD32VW55x_RELEASE_V1.0.2/MSDK/lwip/libcoap-4.3.4/src\coap_debug.c ****               buf_len = strlen((char *)buf);
 2961              		.loc 1 889 13 is_stmt 1 discriminator 4
 889:C:/Users/stapi/OneDrive/Desktop/GD32VW553/GD32VW55X_Wifi_BLE_SDK/GD32VW55x_RELEASE_V1.0.2/MSDK/lwip/libcoap-4.3.4/src\coap_debug.c ****               buf_len = strlen((char *)buf);
 2962              		.loc 1 889 20 is_stmt 0 discriminator 4
 2963 0902 014B     		li	s6,0
 2964              	.LVL295:
 2965              	.L155:
 889:C:/Users/stapi/OneDrive/Desktop/GD32VW553/GD32VW55X_Wifi_BLE_SDK/GD32VW55x_RELEASE_V1.0.2/MSDK/lwip/libcoap-4.3.4/src\coap_debug.c ****               buf_len = strlen((char *)buf);
 2966              		.loc 1 889 25 is_stmt 1 discriminator 1
 890:C:/Users/stapi/OneDrive/Desktop/GD32VW553/GD32VW55X_Wifi_BLE_SDK/GD32VW55x_RELEASE_V1.0.2/MSDK/lwip/libcoap-4.3.4/src\coap_debug.c ****               snprintf((char *)&buf[buf_len], sizeof(buf)-buf_len,
 2967              		.loc 1 890 25 is_stmt 0 discriminator 1
 2968 0904 0818     		addi	a0,sp,48
 2969 0906 97000000 		call	strlen
 2969      E7800000 
 2970              	.LVL296:
 889:C:/Users/stapi/OneDrive/Desktop/GD32VW553/GD32VW55X_Wifi_BLE_SDK/GD32VW55x_RELEASE_V1.0.2/MSDK/lwip/libcoap-4.3.4/src\coap_debug.c ****               buf_len = strlen((char *)buf);
 2971              		.loc 1 889 13 discriminator 1
 2972 090e 0504     		addi	s0,s0,1
 2973 0910 6364AB09 		bltu	s6,s10,.L156
 894:C:/Users/stapi/OneDrive/Desktop/GD32VW553/GD32VW55X_Wifi_BLE_SDK/GD32VW55x_RELEASE_V1.0.2/MSDK/lwip/libcoap-4.3.4/src\coap_debug.c ****           }
 2974              		.loc 1 894 13 is_stmt 1
 894:C:/Users/stapi/OneDrive/Desktop/GD32VW553/GD32VW55X_Wifi_BLE_SDK/GD32VW55x_RELEASE_V1.0.2/MSDK/lwip/libcoap-4.3.4/src\coap_debug.c ****           }
 2975              		.loc 1 894 17 is_stmt 0
 2976 0914 A247     		lw	a5,8(sp)
 2977 0916 3304FD00 		add	s0,s10,a5
 2978              	.LVL297:
 2979              	.L153:
 896:C:/Users/stapi/OneDrive/Desktop/GD32VW553/GD32VW55X_Wifi_BLE_SDK/GD32VW55x_RELEASE_V1.0.2/MSDK/lwip/libcoap-4.3.4/src\coap_debug.c ****             /* kid */
 2980              		.loc 1 896 11 is_stmt 1
 896:C:/Users/stapi/OneDrive/Desktop/GD32VW553/GD32VW55X_Wifi_BLE_SDK/GD32VW55x_RELEASE_V1.0.2/MSDK/lwip/libcoap-4.3.4/src\coap_debug.c ****             /* kid */
 2981              		.loc 1 896 14 is_stmt 0
 2982 091a 83470A00 		lbu	a5,0(s4)
 2983 091e A18B     		andi	a5,a5,8
 2984 0920 E38D07EC 		beq	a5,zero,.L150
 898:C:/Users/stapi/OneDrive/Desktop/GD32VW553/GD32VW55X_Wifi_BLE_SDK/GD32VW55x_RELEASE_V1.0.2/MSDK/lwip/libcoap-4.3.4/src\coap_debug.c ****               goto no_more;
 2985              		.loc 1 898 13 is_stmt 1
 898:C:/Users/stapi/OneDrive/Desktop/GD32VW553/GD32VW55X_Wifi_BLE_SDK/GD32VW55x_RELEASE_V1.0.2/MSDK/lwip/libcoap-4.3.4/src\coap_debug.c ****               goto no_more;
 2986              		.loc 1 898 16 is_stmt 0
 2987 0924 E37B24ED 		bgeu	s0,s2,.L150
 901:C:/Users/stapi/OneDrive/Desktop/GD32VW553/GD32VW55X_Wifi_BLE_SDK/GD32VW55x_RELEASE_V1.0.2/MSDK/lwip/libcoap-4.3.4/src\coap_debug.c ****             snprintf((char *)&buf[buf_len], sizeof(buf)-buf_len, "%skid=0x",
 2988              		.loc 1 901 23
 2989 0928 0818     		addi	a0,sp,48
 2990 092a 97000000 		call	strlen
 2990      E7800000 
 2991              	.LVL298:
 2992 0932 AA87     		mv	a5,a0
 900:C:/Users/stapi/OneDrive/Desktop/GD32VW553/GD32VW55X_Wifi_BLE_SDK/GD32VW55x_RELEASE_V1.0.2/MSDK/lwip/libcoap-4.3.4/src\coap_debug.c ****             buf_len = strlen((char *)buf);
 2993              		.loc 1 900 13 is_stmt 1
 902:C:/Users/stapi/OneDrive/Desktop/GD32VW553/GD32VW55X_Wifi_BLE_SDK/GD32VW55x_RELEASE_V1.0.2/MSDK/lwip/libcoap-4.3.4/src\coap_debug.c ****                      buf_len ? "," : "");
 2994              		.loc 1 902 30 is_stmt 0
 2995 0934 1818     		addi	a4,sp,48
 902:C:/Users/stapi/OneDrive/Desktop/GD32VW553/GD32VW55X_Wifi_BLE_SDK/GD32VW55x_RELEASE_V1.0.2/MSDK/lwip/libcoap-4.3.4/src\coap_debug.c ****                      buf_len ? "," : "");
 2996              		.loc 1 902 13
 2997 0936 93050008 		li	a1,128
 900:C:/Users/stapi/OneDrive/Desktop/GD32VW553/GD32VW55X_Wifi_BLE_SDK/GD32VW55x_RELEASE_V1.0.2/MSDK/lwip/libcoap-4.3.4/src\coap_debug.c ****             buf_len = strlen((char *)buf);
 2998              		.loc 1 900 17
 2999 093a 33098940 		sub	s2,s2,s0
 3000              	.LVL299:
 901:C:/Users/stapi/OneDrive/Desktop/GD32VW553/GD32VW55X_Wifi_BLE_SDK/GD32VW55x_RELEASE_V1.0.2/MSDK/lwip/libcoap-4.3.4/src\coap_debug.c ****             snprintf((char *)&buf[buf_len], sizeof(buf)-buf_len, "%skid=0x",
 3001              		.loc 1 901 13 is_stmt 1
 902:C:/Users/stapi/OneDrive/Desktop/GD32VW553/GD32VW55X_Wifi_BLE_SDK/GD32VW55x_RELEASE_V1.0.2/MSDK/lwip/libcoap-4.3.4/src\coap_debug.c ****                      buf_len ? "," : "");
 3002              		.loc 1 902 13
 902:C:/Users/stapi/OneDrive/Desktop/GD32VW553/GD32VW55X_Wifi_BLE_SDK/GD32VW55x_RELEASE_V1.0.2/MSDK/lwip/libcoap-4.3.4/src\coap_debug.c ****                      buf_len ? "," : "");
 3003              		.loc 1 902 30 is_stmt 0
 3004 093e 3A95     		add	a0,a4,a0
 902:C:/Users/stapi/OneDrive/Desktop/GD32VW553/GD32VW55X_Wifi_BLE_SDK/GD32VW55x_RELEASE_V1.0.2/MSDK/lwip/libcoap-4.3.4/src\coap_debug.c ****                      buf_len ? "," : "");
 3005              		.loc 1 902 13
 3006 0940 9D8D     		sub	a1,a1,a5
 3007 0942 DE86     		mv	a3,s7
 3008 0944 89C7     		beq	a5,zero,.L157
 3009 0946 B7060000 		lui	a3,%hi(.LC27)
 3010 094a 93860600 		addi	a3,a3,%lo(.LC27)
 3011              	.L157:
 902:C:/Users/stapi/OneDrive/Desktop/GD32VW553/GD32VW55X_Wifi_BLE_SDK/GD32VW55x_RELEASE_V1.0.2/MSDK/lwip/libcoap-4.3.4/src\coap_debug.c ****                      buf_len ? "," : "");
 3012              		.loc 1 902 13 discriminator 4
 3013 094e 37060000 		lui	a2,%hi(.LC47)
 3014 0952 13060600 		addi	a2,a2,%lo(.LC47)
 3015 0956 97000000 		call	snprintf
 3015      E7800000 
 3016              	.LVL300:
 904:C:/Users/stapi/OneDrive/Desktop/GD32VW553/GD32VW55X_Wifi_BLE_SDK/GD32VW55x_RELEASE_V1.0.2/MSDK/lwip/libcoap-4.3.4/src\coap_debug.c ****               buf_len = strlen((char *)buf);
 3017              		.loc 1 904 13 is_stmt 1 discriminator 4
 904:C:/Users/stapi/OneDrive/Desktop/GD32VW553/GD32VW55X_Wifi_BLE_SDK/GD32VW55x_RELEASE_V1.0.2/MSDK/lwip/libcoap-4.3.4/src\coap_debug.c ****               buf_len = strlen((char *)buf);
 3018              		.loc 1 904 20 is_stmt 0 discriminator 4
 3019 095e 014D     		li	s10,0
 906:C:/Users/stapi/OneDrive/Desktop/GD32VW553/GD32VW55X_Wifi_BLE_SDK/GD32VW55x_RELEASE_V1.0.2/MSDK/lwip/libcoap-4.3.4/src\coap_debug.c ****                        "%02x", opt_val[ofs + i]);
 3020              		.loc 1 906 15 discriminator 4
 3021 0960 130B0008 		li	s6,128
 3022              	.LVL301:
 3023              	.L158:
 904:C:/Users/stapi/OneDrive/Desktop/GD32VW553/GD32VW55X_Wifi_BLE_SDK/GD32VW55x_RELEASE_V1.0.2/MSDK/lwip/libcoap-4.3.4/src\coap_debug.c ****               buf_len = strlen((char *)buf);
 3024              		.loc 1 904 25 is_stmt 1 discriminator 1
 905:C:/Users/stapi/OneDrive/Desktop/GD32VW553/GD32VW55X_Wifi_BLE_SDK/GD32VW55x_RELEASE_V1.0.2/MSDK/lwip/libcoap-4.3.4/src\coap_debug.c ****               snprintf((char *)&buf[buf_len], sizeof(buf)-buf_len,
 3025              		.loc 1 905 25 is_stmt 0 discriminator 1
 3026 0964 0818     		addi	a0,sp,48
 3027 0966 97000000 		call	strlen
 3027      E7800000 
 3028              	.LVL302:
 904:C:/Users/stapi/OneDrive/Desktop/GD32VW553/GD32VW55X_Wifi_BLE_SDK/GD32VW55x_RELEASE_V1.0.2/MSDK/lwip/libcoap-4.3.4/src\coap_debug.c ****               buf_len = strlen((char *)buf);
 3029              		.loc 1 904 13 discriminator 1
 3030 096e E3062DE9 		beq	s10,s2,.L150
 905:C:/Users/stapi/OneDrive/Desktop/GD32VW553/GD32VW55X_Wifi_BLE_SDK/GD32VW55x_RELEASE_V1.0.2/MSDK/lwip/libcoap-4.3.4/src\coap_debug.c ****               snprintf((char *)&buf[buf_len], sizeof(buf)-buf_len,
 3031              		.loc 1 905 15 is_stmt 1 discriminator 3
 906:C:/Users/stapi/OneDrive/Desktop/GD32VW553/GD32VW55X_Wifi_BLE_SDK/GD32VW55x_RELEASE_V1.0.2/MSDK/lwip/libcoap-4.3.4/src\coap_debug.c ****                        "%02x", opt_val[ofs + i]);
 3032              		.loc 1 906 15 discriminator 3
 907:C:/Users/stapi/OneDrive/Desktop/GD32VW553/GD32VW55X_Wifi_BLE_SDK/GD32VW55x_RELEASE_V1.0.2/MSDK/lwip/libcoap-4.3.4/src\coap_debug.c ****             }
 3033              		.loc 1 907 39 is_stmt 0 discriminator 3
 3034 0972 B3078D00 		add	a5,s10,s0
 3035 0976 D297     		add	a5,s4,a5
 906:C:/Users/stapi/OneDrive/Desktop/GD32VW553/GD32VW55X_Wifi_BLE_SDK/GD32VW55x_RELEASE_V1.0.2/MSDK/lwip/libcoap-4.3.4/src\coap_debug.c ****                        "%02x", opt_val[ofs + i]);
 3036              		.loc 1 906 15 discriminator 3
 3037 0978 83C60700 		lbu	a3,0(a5)
 3038 097c 1C18     		addi	a5,sp,48
 3039 097e B305AB40 		sub	a1,s6,a0
 3040 0982 13860C00 		addi	a2,s9,%lo(.LC35)
 3041 0986 3E95     		add	a0,a5,a0
 3042 0988 97000000 		call	snprintf
 3042      E7800000 
 3043              	.LVL303:
 904:C:/Users/stapi/OneDrive/Desktop/GD32VW553/GD32VW55X_Wifi_BLE_SDK/GD32VW55x_RELEASE_V1.0.2/MSDK/lwip/libcoap-4.3.4/src\coap_debug.c ****               buf_len = strlen((char *)buf);
 3044              		.loc 1 904 44 is_stmt 1 discriminator 3
 904:C:/Users/stapi/OneDrive/Desktop/GD32VW553/GD32VW55X_Wifi_BLE_SDK/GD32VW55x_RELEASE_V1.0.2/MSDK/lwip/libcoap-4.3.4/src\coap_debug.c ****               buf_len = strlen((char *)buf);
 3045              		.loc 1 904 45 is_stmt 0 discriminator 3
 3046 0990 050D     		addi	s10,s10,1
 3047              	.LVL304:
 3048 0992 C9BF     		j	.L158
 3049              	.LVL305:
 3050              	.L198:
 855:C:/Users/stapi/OneDrive/Desktop/GD32VW553/GD32VW55X_Wifi_BLE_SDK/GD32VW55x_RELEASE_V1.0.2/MSDK/lwip/libcoap-4.3.4/src\coap_debug.c ****           size_t cnt;
 3051              		.loc 1 855 18
 3052 0994 0544     		li	s0,1
 3053 0996 11BF     		j	.L149
 3054              	.LVL306:
 3055              	.L156:
 890:C:/Users/stapi/OneDrive/Desktop/GD32VW553/GD32VW55X_Wifi_BLE_SDK/GD32VW55x_RELEASE_V1.0.2/MSDK/lwip/libcoap-4.3.4/src\coap_debug.c ****               snprintf((char *)&buf[buf_len], sizeof(buf)-buf_len,
 3056              		.loc 1 890 15 is_stmt 1 discriminator 3
 891:C:/Users/stapi/OneDrive/Desktop/GD32VW553/GD32VW55X_Wifi_BLE_SDK/GD32VW55x_RELEASE_V1.0.2/MSDK/lwip/libcoap-4.3.4/src\coap_debug.c ****                        "%02x", opt_val[ofs + i]);
 3057              		.loc 1 891 15 discriminator 3
 3058 0998 93070008 		li	a5,128
 3059 099c 83460400 		lbu	a3,0(s0)
 3060 09a0 B385A740 		sub	a1,a5,a0
 3061 09a4 1C18     		addi	a5,sp,48
 3062 09a6 13860C00 		addi	a2,s9,%lo(.LC35)
 3063 09aa 3E95     		add	a0,a5,a0
 3064 09ac 97000000 		call	snprintf
 3064      E7800000 
 3065              	.LVL307:
 889:C:/Users/stapi/OneDrive/Desktop/GD32VW553/GD32VW55X_Wifi_BLE_SDK/GD32VW55x_RELEASE_V1.0.2/MSDK/lwip/libcoap-4.3.4/src\coap_debug.c ****               buf_len = strlen((char *)buf);
 3066              		.loc 1 889 44 discriminator 3
 889:C:/Users/stapi/OneDrive/Desktop/GD32VW553/GD32VW55X_Wifi_BLE_SDK/GD32VW55x_RELEASE_V1.0.2/MSDK/lwip/libcoap-4.3.4/src\coap_debug.c ****               buf_len = strlen((char *)buf);
 3067              		.loc 1 889 45 is_stmt 0 discriminator 3
 3068 09b4 050B     		addi	s6,s6,1
 3069              	.LVL308:
 3070 09b6 B9B7     		j	.L155
 3071              	.LVL309:
 3072              	.L126:
 3073              	.LBE113:
 922:C:/Users/stapi/OneDrive/Desktop/GD32VW553/GD32VW55X_Wifi_BLE_SDK/GD32VW55x_RELEASE_V1.0.2/MSDK/lwip/libcoap-4.3.4/src\coap_debug.c ****           /* show values as unsigned decimal value */
 3074              		.loc 1 922 9 is_stmt 1
 922:C:/Users/stapi/OneDrive/Desktop/GD32VW553/GD32VW55X_Wifi_BLE_SDK/GD32VW55x_RELEASE_V1.0.2/MSDK/lwip/libcoap-4.3.4/src\coap_debug.c ****           /* show values as unsigned decimal value */
 3075              		.loc 1 922 13 is_stmt 0
 3076 09b8 2285     		mv	a0,s0
 3077 09ba 97000000 		call	coap_opt_length
 3077      E7800000 
 3078              	.LVL310:
 922:C:/Users/stapi/OneDrive/Desktop/GD32VW553/GD32VW55X_Wifi_BLE_SDK/GD32VW55x_RELEASE_V1.0.2/MSDK/lwip/libcoap-4.3.4/src\coap_debug.c ****           /* show values as unsigned decimal value */
 3079              		.loc 1 922 12
 3080 09c2 E30905BA 		beq	a0,zero,.L117
 3081 09c6 2DB4     		j	.L292
 3082              	.L123:
 947:C:/Users/stapi/OneDrive/Desktop/GD32VW553/GD32VW55X_Wifi_BLE_SDK/GD32VW55x_RELEASE_V1.0.2/MSDK/lwip/libcoap-4.3.4/src\coap_debug.c ****             opt_iter.number == COAP_OPTION_PROXY_URI ||
 3083              		.loc 1 947 9 is_stmt 1 discriminator 1
 947:C:/Users/stapi/OneDrive/Desktop/GD32VW553/GD32VW55X_Wifi_BLE_SDK/GD32VW55x_RELEASE_V1.0.2/MSDK/lwip/libcoap-4.3.4/src\coap_debug.c ****             opt_iter.number == COAP_OPTION_PROXY_URI ||
 3084              		.loc 1 947 53 is_stmt 0 discriminator 1
 3085 09c8 93F6B7FF 		andi	a3,a5,-5
 3086 09cc 13063002 		li	a2,35
 954:C:/Users/stapi/OneDrive/Desktop/GD32VW553/GD32VW55X_Wifi_BLE_SDK/GD32VW55x_RELEASE_V1.0.2/MSDK/lwip/libcoap-4.3.4/src\coap_debug.c ****         } else {
 3087              		.loc 1 954 18 discriminator 1
 3088 09d0 0147     		li	a4,0
 947:C:/Users/stapi/OneDrive/Desktop/GD32VW553/GD32VW55X_Wifi_BLE_SDK/GD32VW55x_RELEASE_V1.0.2/MSDK/lwip/libcoap-4.3.4/src\coap_debug.c ****             opt_iter.number == COAP_OPTION_PROXY_URI ||
 3089              		.loc 1 947 53 discriminator 1
 3090 09d2 638FC600 		beq	a3,a2,.L162
 948:C:/Users/stapi/OneDrive/Desktop/GD32VW553/GD32VW55X_Wifi_BLE_SDK/GD32VW55x_RELEASE_V1.0.2/MSDK/lwip/libcoap-4.3.4/src\coap_debug.c ****             opt_iter.number == COAP_OPTION_URI_HOST ||
 3091              		.loc 1 948 54
 3092 09d6 D146     		li	a3,20
 3093 09d8 0547     		li	a4,1
 3094 09da 63EBF600 		bgtu	a5,a3,.L162
 3095 09de 37971000 		li	a4,1085440
 3096 09e2 13078790 		addi	a4,a4,-1784
 3097 09e6 3357F700 		srl	a4,a4,a5
 3098 09ea 1347F7FF 		not	a4,a4
 3099 09ee 058B     		andi	a4,a4,1
 3100              	.L162:
 958:C:/Users/stapi/OneDrive/Desktop/GD32VW553/GD32VW55X_Wifi_BLE_SDK/GD32VW55x_RELEASE_V1.0.2/MSDK/lwip/libcoap-4.3.4/src\coap_debug.c ****                                  coap_opt_length(option),
 3101              		.loc 1 958 19
 3102 09f0 2285     		mv	a0,s0
 3103 09f2 3AC4     		sw	a4,8(sp)
 3104              	.LVL311:
 958:C:/Users/stapi/OneDrive/Desktop/GD32VW553/GD32VW55X_Wifi_BLE_SDK/GD32VW55x_RELEASE_V1.0.2/MSDK/lwip/libcoap-4.3.4/src\coap_debug.c ****                                  coap_opt_length(option),
 3105              		.loc 1 958 9 is_stmt 1
 958:C:/Users/stapi/OneDrive/Desktop/GD32VW553/GD32VW55X_Wifi_BLE_SDK/GD32VW55x_RELEASE_V1.0.2/MSDK/lwip/libcoap-4.3.4/src\coap_debug.c ****                                  coap_opt_length(option),
 3106              		.loc 1 958 19 is_stmt 0
 3107 09f4 97000000 		call	coap_opt_value
 3107      E7800000 
 3108              	.LVL312:
 3109 09fc 2A89     		mv	s2,a0
 959:C:/Users/stapi/OneDrive/Desktop/GD32VW553/GD32VW55X_Wifi_BLE_SDK/GD32VW55x_RELEASE_V1.0.2/MSDK/lwip/libcoap-4.3.4/src\coap_debug.c ****                                  buf, sizeof(buf), encode);
 3110              		.loc 1 959 34
 3111 09fe 2285     		mv	a0,s0
 3112 0a00 97000000 		call	coap_opt_length
 3112      E7800000 
 3113              	.LVL313:
 958:C:/Users/stapi/OneDrive/Desktop/GD32VW553/GD32VW55X_Wifi_BLE_SDK/GD32VW55x_RELEASE_V1.0.2/MSDK/lwip/libcoap-4.3.4/src\coap_debug.c ****                                  coap_opt_length(option),
 3114              		.loc 1 958 19
 3115 0a08 2247     		lw	a4,8(sp)
 959:C:/Users/stapi/OneDrive/Desktop/GD32VW553/GD32VW55X_Wifi_BLE_SDK/GD32VW55x_RELEASE_V1.0.2/MSDK/lwip/libcoap-4.3.4/src\coap_debug.c ****                                  buf, sizeof(buf), encode);
 3116              		.loc 1 959 34
 3117 0a0a AA85     		mv	a1,a0
 3118 0a0c B9B4     		j	.L293
 3119              	.LVL314:
 3120              	.L204:
 3121              	.LBB114:
 3122              	.LBB109:
 571:C:/Users/stapi/OneDrive/Desktop/GD32VW553/GD32VW55X_Wifi_BLE_SDK/GD32VW55x_RELEASE_V1.0.2/MSDK/lwip/libcoap-4.3.4/src\coap_debug.c ****       if (option_type == options_csm[i].type) {
 3123              		.loc 1 571 12
 3124 0a0e 8147     		li	a5,0
 3125 0a10 45B6     		j	.L165
 3126              	.LVL315:
 3127              	.L205:
 571:C:/Users/stapi/OneDrive/Desktop/GD32VW553/GD32VW55X_Wifi_BLE_SDK/GD32VW55x_RELEASE_V1.0.2/MSDK/lwip/libcoap-4.3.4/src\coap_debug.c ****       if (option_type == options_csm[i].type) {
 3128              		.loc 1 571 72
 3129 0a12 8547     		li	a5,1
 3130 0a14 71BE     		j	.L165
 3131              	.LVL316:
 3132              	.L164:
 576:C:/Users/stapi/OneDrive/Desktop/GD32VW553/GD32VW55X_Wifi_BLE_SDK/GD32VW55x_RELEASE_V1.0.2/MSDK/lwip/libcoap-4.3.4/src\coap_debug.c ****     for (i = 0; i < sizeof(options_pingpong)/sizeof(struct option_desc_t); i++) {
 3133              		.loc 1 576 10 is_stmt 1
 576:C:/Users/stapi/OneDrive/Desktop/GD32VW553/GD32VW55X_Wifi_BLE_SDK/GD32VW55x_RELEASE_V1.0.2/MSDK/lwip/libcoap-4.3.4/src\coap_debug.c ****     for (i = 0; i < sizeof(options_pingpong)/sizeof(struct option_desc_t); i++) {
 3134              		.loc 1 576 42 is_stmt 0
 3135 0a16 1387E701 		addi	a4,a5,30
 576:C:/Users/stapi/OneDrive/Desktop/GD32VW553/GD32VW55X_Wifi_BLE_SDK/GD32VW55x_RELEASE_V1.0.2/MSDK/lwip/libcoap-4.3.4/src\coap_debug.c ****     for (i = 0; i < sizeof(options_pingpong)/sizeof(struct option_desc_t); i++) {
 3136              		.loc 1 576 13
 3137 0a1a 1377F70F 		andi	a4,a4,0xff
 3138 0a1e 0546     		li	a2,1
 3139 0a20 6365E602 		bgtu	a4,a2,.L168
 3140              	.LVL317:
 577:C:/Users/stapi/OneDrive/Desktop/GD32VW553/GD32VW55X_Wifi_BLE_SDK/GD32VW55x_RELEASE_V1.0.2/MSDK/lwip/libcoap-4.3.4/src\coap_debug.c ****       if (option_type == options_pingpong[i].type) {
 3141              		.loc 1 577 17 is_stmt 1
 578:C:/Users/stapi/OneDrive/Desktop/GD32VW553/GD32VW55X_Wifi_BLE_SDK/GD32VW55x_RELEASE_V1.0.2/MSDK/lwip/libcoap-4.3.4/src\coap_debug.c ****         return options_pingpong[i].name;
 3142              		.loc 1 578 7
 578:C:/Users/stapi/OneDrive/Desktop/GD32VW553/GD32VW55X_Wifi_BLE_SDK/GD32VW55x_RELEASE_V1.0.2/MSDK/lwip/libcoap-4.3.4/src\coap_debug.c ****         return options_pingpong[i].name;
 3143              		.loc 1 578 10 is_stmt 0
 3144 0a24 8947     		li	a5,2
 3145              	.LVL318:
 3146 0a26 6381F608 		beq	a3,a5,.L206
 3147              	.LVL319:
 3148              	.L166:
 603:C:/Users/stapi/OneDrive/Desktop/GD32VW553/GD32VW55X_Wifi_BLE_SDK/GD32VW55x_RELEASE_V1.0.2/MSDK/lwip/libcoap-4.3.4/src\coap_debug.c ****   return buf;
 3149              		.loc 1 603 3 is_stmt 1
 3150 0a2a 37040000 		lui	s0,%hi(.LANCHOR9)
 3151 0a2e 37060000 		lui	a2,%hi(.LC38)
 3152 0a32 13060600 		addi	a2,a2,%lo(.LC38)
 3153 0a36 9945     		li	a1,6
 3154 0a38 13050400 		addi	a0,s0,%lo(.LANCHOR9)
 3155 0a3c 97000000 		call	snprintf
 3155      E7800000 
 3156              	.LVL320:
 604:C:/Users/stapi/OneDrive/Desktop/GD32VW553/GD32VW55X_Wifi_BLE_SDK/GD32VW55x_RELEASE_V1.0.2/MSDK/lwip/libcoap-4.3.4/src\coap_debug.c **** }
 3157              		.loc 1 604 3
 604:C:/Users/stapi/OneDrive/Desktop/GD32VW553/GD32VW55X_Wifi_BLE_SDK/GD32VW55x_RELEASE_V1.0.2/MSDK/lwip/libcoap-4.3.4/src\coap_debug.c **** }
 3158              		.loc 1 604 10 is_stmt 0
 3159 0a44 93060400 		addi	a3,s0,%lo(.LANCHOR9)
 3160 0a48 9DBE     		j	.L167
 3161              	.LVL321:
 3162              	.L168:
 582:C:/Users/stapi/OneDrive/Desktop/GD32VW553/GD32VW55X_Wifi_BLE_SDK/GD32VW55x_RELEASE_V1.0.2/MSDK/lwip/libcoap-4.3.4/src\coap_debug.c ****     for (i = 0; i < sizeof(options_release)/sizeof(struct option_desc_t); i++) {
 3163              		.loc 1 582 10 is_stmt 1
 582:C:/Users/stapi/OneDrive/Desktop/GD32VW553/GD32VW55X_Wifi_BLE_SDK/GD32VW55x_RELEASE_V1.0.2/MSDK/lwip/libcoap-4.3.4/src\coap_debug.c ****     for (i = 0; i < sizeof(options_release)/sizeof(struct option_desc_t); i++) {
 3164              		.loc 1 582 13 is_stmt 0
 3165 0a4a 1307400E 		li	a4,228
 3166 0a4e 6390E702 		bne	a5,a4,.L169
 3167              	.LVL322:
 583:C:/Users/stapi/OneDrive/Desktop/GD32VW553/GD32VW55X_Wifi_BLE_SDK/GD32VW55x_RELEASE_V1.0.2/MSDK/lwip/libcoap-4.3.4/src\coap_debug.c ****       if (option_type == options_release[i].type) {
 3168              		.loc 1 583 17 is_stmt 1
 584:C:/Users/stapi/OneDrive/Desktop/GD32VW553/GD32VW55X_Wifi_BLE_SDK/GD32VW55x_RELEASE_V1.0.2/MSDK/lwip/libcoap-4.3.4/src\coap_debug.c ****         return options_release[i].name;
 3169              		.loc 1 584 7
 584:C:/Users/stapi/OneDrive/Desktop/GD32VW553/GD32VW55X_Wifi_BLE_SDK/GD32VW55x_RELEASE_V1.0.2/MSDK/lwip/libcoap-4.3.4/src\coap_debug.c ****         return options_release[i].name;
 3170              		.loc 1 584 10 is_stmt 0
 3171 0a52 8947     		li	a5,2
 3172              	.LVL323:
 3173 0a54 638BF600 		beq	a3,a5,.L207
 583:C:/Users/stapi/OneDrive/Desktop/GD32VW553/GD32VW55X_Wifi_BLE_SDK/GD32VW55x_RELEASE_V1.0.2/MSDK/lwip/libcoap-4.3.4/src\coap_debug.c ****       if (option_type == options_release[i].type) {
 3174              		.loc 1 583 75 is_stmt 1
 3175              	.LVL324:
 583:C:/Users/stapi/OneDrive/Desktop/GD32VW553/GD32VW55X_Wifi_BLE_SDK/GD32VW55x_RELEASE_V1.0.2/MSDK/lwip/libcoap-4.3.4/src\coap_debug.c ****       if (option_type == options_release[i].type) {
 3176              		.loc 1 583 17
 584:C:/Users/stapi/OneDrive/Desktop/GD32VW553/GD32VW55X_Wifi_BLE_SDK/GD32VW55x_RELEASE_V1.0.2/MSDK/lwip/libcoap-4.3.4/src\coap_debug.c ****         return options_release[i].name;
 3177              		.loc 1 584 7
 584:C:/Users/stapi/OneDrive/Desktop/GD32VW553/GD32VW55X_Wifi_BLE_SDK/GD32VW55x_RELEASE_V1.0.2/MSDK/lwip/libcoap-4.3.4/src\coap_debug.c ****         return options_release[i].name;
 3178              		.loc 1 584 10 is_stmt 0
 3179 0a58 9147     		li	a5,4
 3180 0a5a E398F6FC 		bne	a3,a5,.L166
 583:C:/Users/stapi/OneDrive/Desktop/GD32VW553/GD32VW55X_Wifi_BLE_SDK/GD32VW55x_RELEASE_V1.0.2/MSDK/lwip/libcoap-4.3.4/src\coap_debug.c ****       if (option_type == options_release[i].type) {
 3181              		.loc 1 583 76
 3182 0a5e 8547     		li	a5,1
 3183              	.LVL325:
 3184              	.L170:
 585:C:/Users/stapi/OneDrive/Desktop/GD32VW553/GD32VW55X_Wifi_BLE_SDK/GD32VW55x_RELEASE_V1.0.2/MSDK/lwip/libcoap-4.3.4/src\coap_debug.c ****       }
 3185              		.loc 1 585 9 is_stmt 1
 585:C:/Users/stapi/OneDrive/Desktop/GD32VW553/GD32VW55X_Wifi_BLE_SDK/GD32VW55x_RELEASE_V1.0.2/MSDK/lwip/libcoap-4.3.4/src\coap_debug.c ****       }
 3186              		.loc 1 585 34 is_stmt 0
 3187 0a60 37070000 		lui	a4,%hi(.LANCHOR13)
 3188 0a64 13070700 		addi	a4,a4,%lo(.LANCHOR13)
 3189 0a68 81BE     		j	.L291
 3190              	.LVL326:
 3191              	.L207:
 583:C:/Users/stapi/OneDrive/Desktop/GD32VW553/GD32VW55X_Wifi_BLE_SDK/GD32VW55x_RELEASE_V1.0.2/MSDK/lwip/libcoap-4.3.4/src\coap_debug.c ****       if (option_type == options_release[i].type) {
 3192              		.loc 1 583 12
 3193 0a6a 8147     		li	a5,0
 3194 0a6c D5BF     		j	.L170
 3195              	.LVL327:
 3196              	.L169:
 588:C:/Users/stapi/OneDrive/Desktop/GD32VW553/GD32VW55X_Wifi_BLE_SDK/GD32VW55x_RELEASE_V1.0.2/MSDK/lwip/libcoap-4.3.4/src\coap_debug.c ****     for (i = 0; i < sizeof(options_abort)/sizeof(struct option_desc_t); i++) {
 3197              		.loc 1 588 10 is_stmt 1
 588:C:/Users/stapi/OneDrive/Desktop/GD32VW553/GD32VW55X_Wifi_BLE_SDK/GD32VW55x_RELEASE_V1.0.2/MSDK/lwip/libcoap-4.3.4/src\coap_debug.c ****     for (i = 0; i < sizeof(options_abort)/sizeof(struct option_desc_t); i++) {
 3198              		.loc 1 588 13 is_stmt 0
 3199 0a6e 1307500E 		li	a4,229
 3200 0a72 639AE700 		bne	a5,a4,.L171
 3201              	.LVL328:
 589:C:/Users/stapi/OneDrive/Desktop/GD32VW553/GD32VW55X_Wifi_BLE_SDK/GD32VW55x_RELEASE_V1.0.2/MSDK/lwip/libcoap-4.3.4/src\coap_debug.c ****       if (option_type == options_abort[i].type) {
 3202              		.loc 1 589 17 is_stmt 1
 590:C:/Users/stapi/OneDrive/Desktop/GD32VW553/GD32VW55X_Wifi_BLE_SDK/GD32VW55x_RELEASE_V1.0.2/MSDK/lwip/libcoap-4.3.4/src\coap_debug.c ****         return options_abort[i].name;
 3203              		.loc 1 590 7
 590:C:/Users/stapi/OneDrive/Desktop/GD32VW553/GD32VW55X_Wifi_BLE_SDK/GD32VW55x_RELEASE_V1.0.2/MSDK/lwip/libcoap-4.3.4/src\coap_debug.c ****         return options_abort[i].name;
 3204              		.loc 1 590 10 is_stmt 0
 3205 0a76 8947     		li	a5,2
 3206              	.LVL329:
 3207 0a78 E399F6FA 		bne	a3,a5,.L166
 591:C:/Users/stapi/OneDrive/Desktop/GD32VW553/GD32VW55X_Wifi_BLE_SDK/GD32VW55x_RELEASE_V1.0.2/MSDK/lwip/libcoap-4.3.4/src\coap_debug.c ****       }
 3208              		.loc 1 591 32
 3209 0a7c B7060000 		lui	a3,%hi(.LC29)
 3210              	.LVL330:
 3211 0a80 93860600 		addi	a3,a3,%lo(.LC29)
 3212 0a84 2DBE     		j	.L167
 3213              	.LVL331:
 3214              	.L171:
 3215 0a86 37070000 		lui	a4,%hi(.LANCHOR14)
 3216 0a8a 13060700 		addi	a2,a4,%lo(.LANCHOR14)
 596:C:/Users/stapi/OneDrive/Desktop/GD32VW553/GD32VW55X_Wifi_BLE_SDK/GD32VW55x_RELEASE_V1.0.2/MSDK/lwip/libcoap-4.3.4/src\coap_debug.c ****       if (option_type == options[i].type) {
 3217              		.loc 1 596 12
 3218 0a8e 8147     		li	a5,0
 3219              	.LVL332:
 3220 0a90 13070700 		addi	a4,a4,%lo(.LANCHOR14)
 596:C:/Users/stapi/OneDrive/Desktop/GD32VW553/GD32VW55X_Wifi_BLE_SDK/GD32VW55x_RELEASE_V1.0.2/MSDK/lwip/libcoap-4.3.4/src\coap_debug.c ****       if (option_type == options[i].type) {
 3221              		.loc 1 596 5
 3222 0a94 E945     		li	a1,26
 3223              	.LVL333:
 3224              	.L173:
 597:C:/Users/stapi/OneDrive/Desktop/GD32VW553/GD32VW55X_Wifi_BLE_SDK/GD32VW55x_RELEASE_V1.0.2/MSDK/lwip/libcoap-4.3.4/src\coap_debug.c ****         return options[i].name;
 3225              		.loc 1 597 7 is_stmt 1
 597:C:/Users/stapi/OneDrive/Desktop/GD32VW553/GD32VW55X_Wifi_BLE_SDK/GD32VW55x_RELEASE_V1.0.2/MSDK/lwip/libcoap-4.3.4/src\coap_debug.c ****         return options[i].name;
 3226              		.loc 1 597 10 is_stmt 0
 3227 0a96 03550600 		lhu	a0,0(a2)
 3228 0a9a E30FD5B0 		beq	a0,a3,.L291
 596:C:/Users/stapi/OneDrive/Desktop/GD32VW553/GD32VW55X_Wifi_BLE_SDK/GD32VW55x_RELEASE_V1.0.2/MSDK/lwip/libcoap-4.3.4/src\coap_debug.c ****       if (option_type == options[i].type) {
 3229              		.loc 1 596 67 is_stmt 1
 596:C:/Users/stapi/OneDrive/Desktop/GD32VW553/GD32VW55X_Wifi_BLE_SDK/GD32VW55x_RELEASE_V1.0.2/MSDK/lwip/libcoap-4.3.4/src\coap_debug.c ****       if (option_type == options[i].type) {
 3230              		.loc 1 596 68 is_stmt 0
 3231 0a9e 8507     		addi	a5,a5,1
 3232              	.LVL334:
 596:C:/Users/stapi/OneDrive/Desktop/GD32VW553/GD32VW55X_Wifi_BLE_SDK/GD32VW55x_RELEASE_V1.0.2/MSDK/lwip/libcoap-4.3.4/src\coap_debug.c ****       if (option_type == options[i].type) {
 3233              		.loc 1 596 17 is_stmt 1
 596:C:/Users/stapi/OneDrive/Desktop/GD32VW553/GD32VW55X_Wifi_BLE_SDK/GD32VW55x_RELEASE_V1.0.2/MSDK/lwip/libcoap-4.3.4/src\coap_debug.c ****       if (option_type == options[i].type) {
 3234              		.loc 1 596 5 is_stmt 0
 3235 0aa0 2106     		addi	a2,a2,8
 3236 0aa2 E39AB7FE 		bne	a5,a1,.L173
 3237 0aa6 51B7     		j	.L166
 3238              	.LVL335:
 3239              	.L206:
 579:C:/Users/stapi/OneDrive/Desktop/GD32VW553/GD32VW55X_Wifi_BLE_SDK/GD32VW55x_RELEASE_V1.0.2/MSDK/lwip/libcoap-4.3.4/src\coap_debug.c ****       }
 3240              		.loc 1 579 35
 3241 0aa8 B7060000 		lui	a3,%hi(.LC28)
 3242              	.LVL336:
 3243 0aac 93860600 		addi	a3,a3,%lo(.LC28)
 3244 0ab0 39B6     		j	.L167
 3245              	.LVL337:
 3246              	.L180:
 3247              	.LBE109:
 3248              	.LBE114:
 3249              	.LBB115:
 984:C:/Users/stapi/OneDrive/Desktop/GD32VW553/GD32VW55X_Wifi_BLE_SDK/GD32VW55x_RELEASE_V1.0.2/MSDK/lwip/libcoap-4.3.4/src\coap_debug.c ****       /*
 3250              		.loc 1 984 7 is_stmt 1
 984:C:/Users/stapi/OneDrive/Desktop/GD32VW553/GD32VW55X_Wifi_BLE_SDK/GD32VW55x_RELEASE_V1.0.2/MSDK/lwip/libcoap-4.3.4/src\coap_debug.c ****       /*
 3251              		.loc 1 984 7
 3252              	.LBB98:
 3253              	.LBB99:
  92:C:/Users/stapi/OneDrive/Desktop/GD32VW553/GD32VW55X_Wifi_BLE_SDK/GD32VW55x_RELEASE_V1.0.2/MSDK/lwip/libcoap-4.3.4/src\coap_debug.c **** }
 3254              		.loc 1 92 3
 3255              	.LBE99:
 3256              	.LBE98:
 984:C:/Users/stapi/OneDrive/Desktop/GD32VW553/GD32VW55X_Wifi_BLE_SDK/GD32VW55x_RELEASE_V1.0.2/MSDK/lwip/libcoap-4.3.4/src\coap_debug.c ****       /*
 3257              		.loc 1 984 7 is_stmt 0
 3258 0ab2 83A70A00 		lw	a5,0(s5)
 3259 0ab6 63CE37FB 		blt	a5,s3,.L181
 984:C:/Users/stapi/OneDrive/Desktop/GD32VW553/GD32VW55X_Wifi_BLE_SDK/GD32VW55x_RELEASE_V1.0.2/MSDK/lwip/libcoap-4.3.4/src\coap_debug.c ****       /*
 3260              		.loc 1 984 7 is_stmt 1 discriminator 4
 3261 0aba B7050000 		lui	a1,%hi(.LC39)
 3262 0abe 1019     		addi	a2,sp,176
 3263 0ac0 93850500 		addi	a1,a1,%lo(.LC39)
 3264 0ac4 4E85     		mv	a0,s3
 3265 0ac6 97000000 		call	coap_log_impl
 3265      E7800000 
 3266              	.LVL338:
 3267 0ace 6FF04FFA 		j	.L181
 3268              	.LVL339:
 3269              	.L183:
 991:C:/Users/stapi/OneDrive/Desktop/GD32VW553/GD32VW55X_Wifi_BLE_SDK/GD32VW55x_RELEASE_V1.0.2/MSDK/lwip/libcoap-4.3.4/src\coap_debug.c ****         snprintf(&outbuf[outbuflen], sizeof(outbuf)-outbuflen,
 3270              		.loc 1 991 9
 991:C:/Users/stapi/OneDrive/Desktop/GD32VW553/GD32VW55X_Wifi_BLE_SDK/GD32VW55x_RELEASE_V1.0.2/MSDK/lwip/libcoap-4.3.4/src\coap_debug.c ****         snprintf(&outbuf[outbuflen], sizeof(outbuf)-outbuflen,
 3271              		.loc 1 991 21 is_stmt 0
 3272 0ad2 97000000 		call	strlen
 3272      E7800000 
 3273              	.LVL340:
 992:C:/Users/stapi/OneDrive/Desktop/GD32VW553/GD32VW55X_Wifi_BLE_SDK/GD32VW55x_RELEASE_V1.0.2/MSDK/lwip/libcoap-4.3.4/src\coap_debug.c ****                  "%02x", *data++);
 3274              		.loc 1 992 9 is_stmt 1
 993:C:/Users/stapi/OneDrive/Desktop/GD32VW553/GD32VW55X_Wifi_BLE_SDK/GD32VW55x_RELEASE_V1.0.2/MSDK/lwip/libcoap-4.3.4/src\coap_debug.c ****       }
 3275              		.loc 1 993 31 is_stmt 0
 3276 0ada D247     		lw	a5,20(sp)
 992:C:/Users/stapi/OneDrive/Desktop/GD32VW553/GD32VW55X_Wifi_BLE_SDK/GD32VW55x_RELEASE_V1.0.2/MSDK/lwip/libcoap-4.3.4/src\coap_debug.c ****                  "%02x", *data++);
 3277              		.loc 1 992 9
 3278 0adc B305A440 		sub	a1,s0,a0
 3279 0ae0 13860B00 		addi	a2,s7,%lo(.LC35)
 993:C:/Users/stapi/OneDrive/Desktop/GD32VW553/GD32VW55X_Wifi_BLE_SDK/GD32VW55x_RELEASE_V1.0.2/MSDK/lwip/libcoap-4.3.4/src\coap_debug.c ****       }
 3280              		.loc 1 993 31
 3281 0ae4 13871700 		addi	a4,a5,1
 3282 0ae8 3ACA     		sw	a4,20(sp)
 992:C:/Users/stapi/OneDrive/Desktop/GD32VW553/GD32VW55X_Wifi_BLE_SDK/GD32VW55x_RELEASE_V1.0.2/MSDK/lwip/libcoap-4.3.4/src\coap_debug.c ****                  "%02x", *data++);
 3283              		.loc 1 992 9
 3284 0aea 83C60700 		lbu	a3,0(a5)
 3285 0aee 1C19     		addi	a5,sp,176
 3286 0af0 3E95     		add	a0,a5,a0
 3287              	.LVL341:
 3288 0af2 97000000 		call	snprintf
 3288      E7800000 
 3289              	.LVL342:
 3290 0afa 6FF06FF9 		j	.L182
 3291              	.L185:
1003:C:/Users/stapi/OneDrive/Desktop/GD32VW553/GD32VW55X_Wifi_BLE_SDK/GD32VW55x_RELEASE_V1.0.2/MSDK/lwip/libcoap-4.3.4/src\coap_debug.c ****       /*
 3292              		.loc 1 1003 7 is_stmt 1
1003:C:/Users/stapi/OneDrive/Desktop/GD32VW553/GD32VW55X_Wifi_BLE_SDK/GD32VW55x_RELEASE_V1.0.2/MSDK/lwip/libcoap-4.3.4/src\coap_debug.c ****       /*
 3293              		.loc 1 1003 7
 3294              	.LBB100:
 3295              	.LBB101:
  92:C:/Users/stapi/OneDrive/Desktop/GD32VW553/GD32VW55X_Wifi_BLE_SDK/GD32VW55x_RELEASE_V1.0.2/MSDK/lwip/libcoap-4.3.4/src\coap_debug.c **** }
 3296              		.loc 1 92 3
 3297              	.LBE101:
 3298              	.LBE100:
1003:C:/Users/stapi/OneDrive/Desktop/GD32VW553/GD32VW55X_Wifi_BLE_SDK/GD32VW55x_RELEASE_V1.0.2/MSDK/lwip/libcoap-4.3.4/src\coap_debug.c ****       /*
 3299              		.loc 1 1003 7 is_stmt 0
 3300 0afe 83A70A00 		lw	a5,0(s5)
 3301 0b02 E3C53781 		blt	a5,s3,.L186
1003:C:/Users/stapi/OneDrive/Desktop/GD32VW553/GD32VW55X_Wifi_BLE_SDK/GD32VW55x_RELEASE_V1.0.2/MSDK/lwip/libcoap-4.3.4/src\coap_debug.c ****       /*
 3302              		.loc 1 1003 7 is_stmt 1 discriminator 4
 3303 0b06 B7050000 		lui	a1,%hi(.LC39)
 3304 0b0a 1019     		addi	a2,sp,176
 3305 0b0c 93850500 		addi	a1,a1,%lo(.LC39)
 3306 0b10 4E85     		mv	a0,s3
 3307 0b12 97000000 		call	coap_log_impl
 3307      E7800000 
 3308              	.LVL343:
 3309 0b1a 6FF02FFF 		j	.L186
 3310              	.LVL344:
 3311              	.L189:
1011:C:/Users/stapi/OneDrive/Desktop/GD32VW553/GD32VW55X_Wifi_BLE_SDK/GD32VW55x_RELEASE_V1.0.2/MSDK/lwip/libcoap-4.3.4/src\coap_debug.c ****         snprintf(&outbuf[outbuflen], sizeof(outbuf)-outbuflen,
 3312              		.loc 1 1011 9
1011:C:/Users/stapi/OneDrive/Desktop/GD32VW553/GD32VW55X_Wifi_BLE_SDK/GD32VW55x_RELEASE_V1.0.2/MSDK/lwip/libcoap-4.3.4/src\coap_debug.c ****         snprintf(&outbuf[outbuflen], sizeof(outbuf)-outbuflen,
 3313              		.loc 1 1011 21 is_stmt 0
 3314 0b1e 97000000 		call	strlen
 3314      E7800000 
 3315              	.LVL345:
1012:C:/Users/stapi/OneDrive/Desktop/GD32VW553/GD32VW55X_Wifi_BLE_SDK/GD32VW55x_RELEASE_V1.0.2/MSDK/lwip/libcoap-4.3.4/src\coap_debug.c ****                  "%c ", isprint(*data) ? *data : '.');
 3316              		.loc 1 1012 9
 3317 0b26 1C19     		addi	a5,sp,176
1011:C:/Users/stapi/OneDrive/Desktop/GD32VW553/GD32VW55X_Wifi_BLE_SDK/GD32VW55x_RELEASE_V1.0.2/MSDK/lwip/libcoap-4.3.4/src\coap_debug.c ****         snprintf(&outbuf[outbuflen], sizeof(outbuf)-outbuflen,
 3318              		.loc 1 1011 21
 3319 0b28 AA85     		mv	a1,a0
 3320              	.LVL346:
1012:C:/Users/stapi/OneDrive/Desktop/GD32VW553/GD32VW55X_Wifi_BLE_SDK/GD32VW55x_RELEASE_V1.0.2/MSDK/lwip/libcoap-4.3.4/src\coap_debug.c ****                  "%c ", isprint(*data) ? *data : '.');
 3321              		.loc 1 1012 9 is_stmt 1
 3322 0b2a 3E95     		add	a0,a5,a0
 3323              	.LVL347:
1013:C:/Users/stapi/OneDrive/Desktop/GD32VW553/GD32VW55X_Wifi_BLE_SDK/GD32VW55x_RELEASE_V1.0.2/MSDK/lwip/libcoap-4.3.4/src\coap_debug.c ****         data++;
 3324              		.loc 1 1013 25 is_stmt 0
 3325 0b2c D247     		lw	a5,20(sp)
1012:C:/Users/stapi/OneDrive/Desktop/GD32VW553/GD32VW55X_Wifi_BLE_SDK/GD32VW55x_RELEASE_V1.0.2/MSDK/lwip/libcoap-4.3.4/src\coap_debug.c ****                  "%c ", isprint(*data) ? *data : '.');
 3326              		.loc 1 1012 9
 3327 0b2e B305BA40 		sub	a1,s4,a1
 3328              	.LVL348:
1013:C:/Users/stapi/OneDrive/Desktop/GD32VW553/GD32VW55X_Wifi_BLE_SDK/GD32VW55x_RELEASE_V1.0.2/MSDK/lwip/libcoap-4.3.4/src\coap_debug.c ****         data++;
 3329              		.loc 1 1013 25
 3330 0b32 83C60700 		lbu	a3,0(a5)
 3331 0b36 B3872601 		add	a5,a3,s2
 3332 0b3a 83870700 		lb	a5,0(a5)
 3333 0b3e 93F77709 		andi	a5,a5,151
1012:C:/Users/stapi/OneDrive/Desktop/GD32VW553/GD32VW55X_Wifi_BLE_SDK/GD32VW55x_RELEASE_V1.0.2/MSDK/lwip/libcoap-4.3.4/src\coap_debug.c ****                  "%c ", isprint(*data) ? *data : '.');
 3334              		.loc 1 1012 9
 3335 0b42 99E3     		bne	a5,zero,.L188
 3336 0b44 9306E002 		li	a3,46
 3337              	.L188:
1012:C:/Users/stapi/OneDrive/Desktop/GD32VW553/GD32VW55X_Wifi_BLE_SDK/GD32VW55x_RELEASE_V1.0.2/MSDK/lwip/libcoap-4.3.4/src\coap_debug.c ****                  "%c ", isprint(*data) ? *data : '.');
 3338              		.loc 1 1012 9 discriminator 4
 3339 0b48 13060B00 		addi	a2,s6,%lo(.LC56)
 3340 0b4c 97000000 		call	snprintf
 3340      E7800000 
 3341              	.LVL349:
1014:C:/Users/stapi/OneDrive/Desktop/GD32VW553/GD32VW55X_Wifi_BLE_SDK/GD32VW55x_RELEASE_V1.0.2/MSDK/lwip/libcoap-4.3.4/src\coap_debug.c ****       }
 3342              		.loc 1 1014 9 is_stmt 1 discriminator 4
1014:C:/Users/stapi/OneDrive/Desktop/GD32VW553/GD32VW55X_Wifi_BLE_SDK/GD32VW55x_RELEASE_V1.0.2/MSDK/lwip/libcoap-4.3.4/src\coap_debug.c ****       }
 3343              		.loc 1 1014 13 is_stmt 0 discriminator 4
 3344 0b54 D247     		lw	a5,20(sp)
 3345 0b56 8507     		addi	a5,a5,1
 3346 0b58 3ECA     		sw	a5,20(sp)
 3347 0b5a 6FF04FFD 		j	.L187
 3348              	.LVL350:
 3349              	.L179:
 3350              	.LBE115:
 3351              	.LBB116:
1021:C:/Users/stapi/OneDrive/Desktop/GD32VW553/GD32VW55X_Wifi_BLE_SDK/GD32VW55x_RELEASE_V1.0.2/MSDK/lwip/libcoap-4.3.4/src\coap_debug.c ****       max_length = sizeof(outbuf)-outbuflen;
 3352              		.loc 1 1021 19
 3353 0b5e 0819     		addi	a0,sp,176
 3354 0b60 97000000 		call	strlen
 3354      E7800000 
 3355              	.LVL351:
1019:C:/Users/stapi/OneDrive/Desktop/GD32VW553/GD32VW55X_Wifi_BLE_SDK/GD32VW55x_RELEASE_V1.0.2/MSDK/lwip/libcoap-4.3.4/src\coap_debug.c **** 
 3356              		.loc 1 1019 7 is_stmt 1
1021:C:/Users/stapi/OneDrive/Desktop/GD32VW553/GD32VW55X_Wifi_BLE_SDK/GD32VW55x_RELEASE_V1.0.2/MSDK/lwip/libcoap-4.3.4/src\coap_debug.c ****       max_length = sizeof(outbuf)-outbuflen;
 3357              		.loc 1 1021 7
1022:C:/Users/stapi/OneDrive/Desktop/GD32VW553/GD32VW55X_Wifi_BLE_SDK/GD32VW55x_RELEASE_V1.0.2/MSDK/lwip/libcoap-4.3.4/src\coap_debug.c ****       if (max_length > 1) {
 3358              		.loc 1 1022 7
1023:C:/Users/stapi/OneDrive/Desktop/GD32VW553/GD32VW55X_Wifi_BLE_SDK/GD32VW55x_RELEASE_V1.0.2/MSDK/lwip/libcoap-4.3.4/src\coap_debug.c ****         outbuf[outbuflen++] = '\'';
 3359              		.loc 1 1023 7
1022:C:/Users/stapi/OneDrive/Desktop/GD32VW553/GD32VW55X_Wifi_BLE_SDK/GD32VW55x_RELEASE_V1.0.2/MSDK/lwip/libcoap-4.3.4/src\coap_debug.c ****       if (max_length > 1) {
 3360              		.loc 1 1022 18 is_stmt 0
 3361 0b68 93070008 		li	a5,128
 3362 0b6c 898F     		sub	a5,a5,a0
1023:C:/Users/stapi/OneDrive/Desktop/GD32VW553/GD32VW55X_Wifi_BLE_SDK/GD32VW55x_RELEASE_V1.0.2/MSDK/lwip/libcoap-4.3.4/src\coap_debug.c ****         outbuf[outbuflen++] = '\'';
 3363              		.loc 1 1023 10
 3364 0b6e 0547     		li	a4,1
 3365 0b70 6385E7FE 		beq	a5,a4,.L176
1024:C:/Users/stapi/OneDrive/Desktop/GD32VW553/GD32VW55X_Wifi_BLE_SDK/GD32VW55x_RELEASE_V1.0.2/MSDK/lwip/libcoap-4.3.4/src\coap_debug.c ****         outbuf[outbuflen] = '\000';
 3366              		.loc 1 1024 9 is_stmt 1
1024:C:/Users/stapi/OneDrive/Desktop/GD32VW553/GD32VW55X_Wifi_BLE_SDK/GD32VW55x_RELEASE_V1.0.2/MSDK/lwip/libcoap-4.3.4/src\coap_debug.c ****         outbuf[outbuflen] = '\000';
 3367              		.loc 1 1024 29 is_stmt 0
 3368 0b74 1C1A     		addi	a5,sp,304
 3369 0b76 AA97     		add	a5,a5,a0
 3370 0b78 93067002 		li	a3,39
 3371 0b7c 2380D7F8 		sb	a3,-128(a5)
1024:C:/Users/stapi/OneDrive/Desktop/GD32VW553/GD32VW55X_Wifi_BLE_SDK/GD32VW55x_RELEASE_V1.0.2/MSDK/lwip/libcoap-4.3.4/src\coap_debug.c ****         outbuf[outbuflen] = '\000';
 3372              		.loc 1 1024 25
 3373 0b80 13041500 		addi	s0,a0,1
 3374              	.LVL352:
1025:C:/Users/stapi/OneDrive/Desktop/GD32VW553/GD32VW55X_Wifi_BLE_SDK/GD32VW55x_RELEASE_V1.0.2/MSDK/lwip/libcoap-4.3.4/src\coap_debug.c ****         max_length--;
 3375              		.loc 1 1025 9 is_stmt 1
1025:C:/Users/stapi/OneDrive/Desktop/GD32VW553/GD32VW55X_Wifi_BLE_SDK/GD32VW55x_RELEASE_V1.0.2/MSDK/lwip/libcoap-4.3.4/src\coap_debug.c ****         max_length--;
 3376              		.loc 1 1025 27 is_stmt 0
 3377 0b84 1C1A     		addi	a5,sp,304
 3378 0b86 A297     		add	a5,a5,s0
1026:C:/Users/stapi/OneDrive/Desktop/GD32VW553/GD32VW55X_Wifi_BLE_SDK/GD32VW55x_RELEASE_V1.0.2/MSDK/lwip/libcoap-4.3.4/src\coap_debug.c ****       }
 3379              		.loc 1 1026 19
 3380 0b88 9306F007 		li	a3,127
1025:C:/Users/stapi/OneDrive/Desktop/GD32VW553/GD32VW55X_Wifi_BLE_SDK/GD32VW55x_RELEASE_V1.0.2/MSDK/lwip/libcoap-4.3.4/src\coap_debug.c ****         max_length--;
 3381              		.loc 1 1025 27
 3382 0b8c 238007F8 		sb	zero,-128(a5)
1026:C:/Users/stapi/OneDrive/Desktop/GD32VW553/GD32VW55X_Wifi_BLE_SDK/GD32VW55x_RELEASE_V1.0.2/MSDK/lwip/libcoap-4.3.4/src\coap_debug.c ****       }
 3383              		.loc 1 1026 9 is_stmt 1
1026:C:/Users/stapi/OneDrive/Desktop/GD32VW553/GD32VW55X_Wifi_BLE_SDK/GD32VW55x_RELEASE_V1.0.2/MSDK/lwip/libcoap-4.3.4/src\coap_debug.c ****       }
 3384              		.loc 1 1026 19 is_stmt 0
 3385 0b90 898E     		sub	a3,a3,a0
 3386              	.LVL353:
1028:C:/Users/stapi/OneDrive/Desktop/GD32VW553/GD32VW55X_Wifi_BLE_SDK/GD32VW55x_RELEASE_V1.0.2/MSDK/lwip/libcoap-4.3.4/src\coap_debug.c ****         outbuflen += print_readable(data, data_len,
 3387              		.loc 1 1028 7 is_stmt 1
1028:C:/Users/stapi/OneDrive/Desktop/GD32VW553/GD32VW55X_Wifi_BLE_SDK/GD32VW55x_RELEASE_V1.0.2/MSDK/lwip/libcoap-4.3.4/src\coap_debug.c ****         outbuflen += print_readable(data, data_len,
 3388              		.loc 1 1028 10 is_stmt 0
 3389 0b92 637DD700 		bleu	a3,a4,.L191
1029:C:/Users/stapi/OneDrive/Desktop/GD32VW553/GD32VW55X_Wifi_BLE_SDK/GD32VW55x_RELEASE_V1.0.2/MSDK/lwip/libcoap-4.3.4/src\coap_debug.c ****                                     (unsigned char *)&outbuf[outbuflen],
 3390              		.loc 1 1029 9 is_stmt 1
1029:C:/Users/stapi/OneDrive/Desktop/GD32VW553/GD32VW55X_Wifi_BLE_SDK/GD32VW55x_RELEASE_V1.0.2/MSDK/lwip/libcoap-4.3.4/src\coap_debug.c ****                                     (unsigned char *)&outbuf[outbuflen],
 3391              		.loc 1 1029 22 is_stmt 0
 3392 0b96 C245     		lw	a1,16(sp)
 3393 0b98 1C19     		addi	a5,sp,176
 3394 0b9a 33868700 		add	a2,a5,s0
 3395 0b9e 0147     		li	a4,0
 3396 0ba0 5A85     		mv	a0,s6
 3397 0ba2 97000000 		call	print_readable
 3397      E7800000 
 3398              	.LVL354:
1029:C:/Users/stapi/OneDrive/Desktop/GD32VW553/GD32VW55X_Wifi_BLE_SDK/GD32VW55x_RELEASE_V1.0.2/MSDK/lwip/libcoap-4.3.4/src\coap_debug.c ****                                     (unsigned char *)&outbuf[outbuflen],
 3399              		.loc 1 1029 19
 3400 0baa 2A94     		add	s0,s0,a0
 3401              	.LVL355:
 3402              	.L191:
1034:C:/Users/stapi/OneDrive/Desktop/GD32VW553/GD32VW55X_Wifi_BLE_SDK/GD32VW55x_RELEASE_V1.0.2/MSDK/lwip/libcoap-4.3.4/src\coap_debug.c ****         outbuf[outbuflen++] = '\'';
 3403              		.loc 1 1034 7 is_stmt 1
1034:C:/Users/stapi/OneDrive/Desktop/GD32VW553/GD32VW55X_Wifi_BLE_SDK/GD32VW55x_RELEASE_V1.0.2/MSDK/lwip/libcoap-4.3.4/src\coap_debug.c ****         outbuf[outbuflen++] = '\'';
 3404              		.loc 1 1034 10 is_stmt 0
 3405 0bac 9307A007 		li	a5,122
 3406 0bb0 63E587FA 		bgtu	s0,a5,.L176
1035:C:/Users/stapi/OneDrive/Desktop/GD32VW553/GD32VW55X_Wifi_BLE_SDK/GD32VW55x_RELEASE_V1.0.2/MSDK/lwip/libcoap-4.3.4/src\coap_debug.c ****         outbuf[outbuflen] = '\000';
 3407              		.loc 1 1035 9 is_stmt 1
 3408              	.LVL356:
1035:C:/Users/stapi/OneDrive/Desktop/GD32VW553/GD32VW55X_Wifi_BLE_SDK/GD32VW55x_RELEASE_V1.0.2/MSDK/lwip/libcoap-4.3.4/src\coap_debug.c ****         outbuf[outbuflen] = '\000';
 3409              		.loc 1 1035 29 is_stmt 0
 3410 0bb4 1C1A     		addi	a5,sp,304
 3411 0bb6 3E94     		add	s0,a5,s0
 3412              	.LVL357:
 3413 0bb8 93077002 		li	a5,39
 3414 0bbc 2300F4F8 		sb	a5,-128(s0)
1036:C:/Users/stapi/OneDrive/Desktop/GD32VW553/GD32VW55X_Wifi_BLE_SDK/GD32VW55x_RELEASE_V1.0.2/MSDK/lwip/libcoap-4.3.4/src\coap_debug.c ****       }
 3415              		.loc 1 1036 9 is_stmt 1
1036:C:/Users/stapi/OneDrive/Desktop/GD32VW553/GD32VW55X_Wifi_BLE_SDK/GD32VW55x_RELEASE_V1.0.2/MSDK/lwip/libcoap-4.3.4/src\coap_debug.c ****       }
 3416              		.loc 1 1036 27 is_stmt 0
 3417 0bc0 A30004F8 		sb	zero,-127(s0)
 3418 0bc4 6FF06FF9 		j	.L176
 3419              	.LVL358:
 3420              	.L193:
 3421              	.LBE116:
1045:C:/Users/stapi/OneDrive/Desktop/GD32VW553/GD32VW55X_Wifi_BLE_SDK/GD32VW55x_RELEASE_V1.0.2/MSDK/lwip/libcoap-4.3.4/src\coap_debug.c **** 
 3422              		.loc 1 1045 3 is_stmt 1
1045:C:/Users/stapi/OneDrive/Desktop/GD32VW553/GD32VW55X_Wifi_BLE_SDK/GD32VW55x_RELEASE_V1.0.2/MSDK/lwip/libcoap-4.3.4/src\coap_debug.c **** 
 3423              		.loc 1 1045 3
 3424              	.LBB117:
 3425              	.LBB118:
  92:C:/Users/stapi/OneDrive/Desktop/GD32VW553/GD32VW55X_Wifi_BLE_SDK/GD32VW55x_RELEASE_V1.0.2/MSDK/lwip/libcoap-4.3.4/src\coap_debug.c **** }
 3426              		.loc 1 92 3
 3427              	.LBE118:
 3428              	.LBE117:
1045:C:/Users/stapi/OneDrive/Desktop/GD32VW553/GD32VW55X_Wifi_BLE_SDK/GD32VW55x_RELEASE_V1.0.2/MSDK/lwip/libcoap-4.3.4/src\coap_debug.c **** 
 3429              		.loc 1 1045 3 is_stmt 0
 3430 0bc8 83A70A00 		lw	a5,0(s5)
 3431 0bcc 63CB37FD 		blt	a5,s3,.L104
1045:C:/Users/stapi/OneDrive/Desktop/GD32VW553/GD32VW55X_Wifi_BLE_SDK/GD32VW55x_RELEASE_V1.0.2/MSDK/lwip/libcoap-4.3.4/src\coap_debug.c **** 
 3432              		.loc 1 1045 3 is_stmt 1 discriminator 4
 3433 0bd0 B7050000 		lui	a1,%hi(.LC39)
 3434 0bd4 1019     		addi	a2,sp,176
 3435 0bd6 93850500 		addi	a1,a1,%lo(.LC39)
 3436 0bda 4E85     		mv	a0,s3
 3437 0bdc 97000000 		call	coap_log_impl
 3437      E7800000 
 3438              	.LVL359:
 3439 0be4 6FF0EFFB 		j	.L104
 3440              		.cfi_endproc
 3441              	.LFE46:
 3443              		.section	.rodata.coap_show_tls_version.str1.4,"aMS",@progbits,1
 3444              		.align	2
 3445              	.LC57:
 3446 0000 25730A00 		.string	"%s\n"
 3447              		.section	.text.coap_show_tls_version,"ax",@progbits
 3448              		.align	1
 3449              		.globl	coap_show_tls_version
 3451              	coap_show_tls_version:
 3452              	.LFB47:
1053:C:/Users/stapi/OneDrive/Desktop/GD32VW553/GD32VW55X_Wifi_BLE_SDK/GD32VW55x_RELEASE_V1.0.2/MSDK/lwip/libcoap-4.3.4/src\coap_debug.c ****   char buffer[128];
 3453              		.loc 1 1053 41
 3454              		.cfi_startproc
 3455              	.LVL360:
 3456 0000 17030000 		call	t0,__riscv_save_1
 3456      E7020300 
 3457              		.cfi_offset 8, -8
 3458              		.cfi_offset 1, -4
 3459              		.cfi_def_cfa_offset 16
1054:C:/Users/stapi/OneDrive/Desktop/GD32VW553/GD32VW55X_Wifi_BLE_SDK/GD32VW55x_RELEASE_V1.0.2/MSDK/lwip/libcoap-4.3.4/src\coap_debug.c ****   coap_string_tls_version(buffer, sizeof(buffer));
 3460              		.loc 1 1054 3
1055:C:/Users/stapi/OneDrive/Desktop/GD32VW553/GD32VW55X_Wifi_BLE_SDK/GD32VW55x_RELEASE_V1.0.2/MSDK/lwip/libcoap-4.3.4/src\coap_debug.c ****   coap_log(level, "%s\n", buffer);
 3461              		.loc 1 1055 3
1053:C:/Users/stapi/OneDrive/Desktop/GD32VW553/GD32VW55X_Wifi_BLE_SDK/GD32VW55x_RELEASE_V1.0.2/MSDK/lwip/libcoap-4.3.4/src\coap_debug.c ****   char buffer[128];
 3462              		.loc 1 1053 41 is_stmt 0
 3463 0008 1971     		addi	sp,sp,-128
 3464              		.cfi_def_cfa_offset 144
1053:C:/Users/stapi/OneDrive/Desktop/GD32VW553/GD32VW55X_Wifi_BLE_SDK/GD32VW55x_RELEASE_V1.0.2/MSDK/lwip/libcoap-4.3.4/src\coap_debug.c ****   char buffer[128];
 3465              		.loc 1 1053 41
 3466 000a 2A84     		mv	s0,a0
1055:C:/Users/stapi/OneDrive/Desktop/GD32VW553/GD32VW55X_Wifi_BLE_SDK/GD32VW55x_RELEASE_V1.0.2/MSDK/lwip/libcoap-4.3.4/src\coap_debug.c ****   coap_log(level, "%s\n", buffer);
 3467              		.loc 1 1055 3
 3468 000c 93050008 		li	a1,128
 3469 0010 0A85     		mv	a0,sp
 3470              	.LVL361:
 3471 0012 97000000 		call	coap_string_tls_version
 3471      E7800000 
 3472              	.LVL362:
1056:C:/Users/stapi/OneDrive/Desktop/GD32VW553/GD32VW55X_Wifi_BLE_SDK/GD32VW55x_RELEASE_V1.0.2/MSDK/lwip/libcoap-4.3.4/src\coap_debug.c **** }
 3473              		.loc 1 1056 3 is_stmt 1
1056:C:/Users/stapi/OneDrive/Desktop/GD32VW553/GD32VW55X_Wifi_BLE_SDK/GD32VW55x_RELEASE_V1.0.2/MSDK/lwip/libcoap-4.3.4/src\coap_debug.c **** }
 3474              		.loc 1 1056 3
 3475              	.LBB119:
 3476              	.LBB120:
  92:C:/Users/stapi/OneDrive/Desktop/GD32VW553/GD32VW55X_Wifi_BLE_SDK/GD32VW55x_RELEASE_V1.0.2/MSDK/lwip/libcoap-4.3.4/src\coap_debug.c **** }
 3477              		.loc 1 92 3
 3478              	.LBE120:
 3479              	.LBE119:
1056:C:/Users/stapi/OneDrive/Desktop/GD32VW553/GD32VW55X_Wifi_BLE_SDK/GD32VW55x_RELEASE_V1.0.2/MSDK/lwip/libcoap-4.3.4/src\coap_debug.c **** }
 3480              		.loc 1 1056 3 is_stmt 0
 3481 001a B7070000 		lui	a5,%hi(.LANCHOR5)
 3482 001e 83A70700 		lw	a5,%lo(.LANCHOR5)(a5)
 3483 0022 63CC8700 		blt	a5,s0,.L297
1056:C:/Users/stapi/OneDrive/Desktop/GD32VW553/GD32VW55X_Wifi_BLE_SDK/GD32VW55x_RELEASE_V1.0.2/MSDK/lwip/libcoap-4.3.4/src\coap_debug.c **** }
 3484              		.loc 1 1056 3 is_stmt 1 discriminator 1
 3485 0026 B7050000 		lui	a1,%hi(.LC57)
 3486 002a 0A86     		mv	a2,sp
 3487 002c 93850500 		addi	a1,a1,%lo(.LC57)
 3488 0030 2285     		mv	a0,s0
 3489 0032 97000000 		call	coap_log_impl
 3489      E7800000 
 3490              	.LVL363:
1056:C:/Users/stapi/OneDrive/Desktop/GD32VW553/GD32VW55X_Wifi_BLE_SDK/GD32VW55x_RELEASE_V1.0.2/MSDK/lwip/libcoap-4.3.4/src\coap_debug.c **** }
 3491              		.loc 1 1056 3 discriminator 1
 3492              	.L297:
1057:C:/Users/stapi/OneDrive/Desktop/GD32VW553/GD32VW55X_Wifi_BLE_SDK/GD32VW55x_RELEASE_V1.0.2/MSDK/lwip/libcoap-4.3.4/src\coap_debug.c **** 
 3493              		.loc 1 1057 1 is_stmt 0
 3494 003a 0961     		addi	sp,sp,128
 3495              		.cfi_def_cfa_offset 0
 3496 003c 17030000 		tail	__riscv_restore_1
 3496      67000300 
 3497              		.cfi_restore 8
 3498              		.cfi_restore 1
 3499              		.cfi_def_cfa_offset -16
 3500              		.cfi_endproc
 3501              	.LFE47:
 3503              		.section	.rodata.coap_debug_set_packet_loss.str1.4,"aMS",@progbits,1
 3504              		.align	2
 3505              	.LC58:
 3506 0000 7061636B 		.string	"packet loss level set to %d%%\n"
 3506      6574206C 
 3506      6F737320 
 3506      6C657665 
 3506      6C207365 
 3507              		.section	.text.coap_debug_set_packet_loss,"ax",@progbits
 3508              		.align	1
 3509              		.globl	coap_debug_set_packet_loss
 3511              	coap_debug_set_packet_loss:
 3512              	.LFB52:
1234:C:/Users/stapi/OneDrive/Desktop/GD32VW553/GD32VW55X_Wifi_BLE_SDK/GD32VW55x_RELEASE_V1.0.2/MSDK/lwip/libcoap-4.3.4/src\coap_debug.c **** 
1235:C:/Users/stapi/OneDrive/Desktop/GD32VW553/GD32VW55X_Wifi_BLE_SDK/GD32VW55x_RELEASE_V1.0.2/MSDK/lwip/libcoap-4.3.4/src\coap_debug.c **** static struct packet_num_interval {
1236:C:/Users/stapi/OneDrive/Desktop/GD32VW553/GD32VW55X_Wifi_BLE_SDK/GD32VW55x_RELEASE_V1.0.2/MSDK/lwip/libcoap-4.3.4/src\coap_debug.c ****   int start;
1237:C:/Users/stapi/OneDrive/Desktop/GD32VW553/GD32VW55X_Wifi_BLE_SDK/GD32VW55x_RELEASE_V1.0.2/MSDK/lwip/libcoap-4.3.4/src\coap_debug.c ****   int end;
1238:C:/Users/stapi/OneDrive/Desktop/GD32VW553/GD32VW55X_Wifi_BLE_SDK/GD32VW55x_RELEASE_V1.0.2/MSDK/lwip/libcoap-4.3.4/src\coap_debug.c **** } packet_loss_intervals[10];
1239:C:/Users/stapi/OneDrive/Desktop/GD32VW553/GD32VW55X_Wifi_BLE_SDK/GD32VW55x_RELEASE_V1.0.2/MSDK/lwip/libcoap-4.3.4/src\coap_debug.c **** static int num_packet_loss_intervals = 0;
1240:C:/Users/stapi/OneDrive/Desktop/GD32VW553/GD32VW55X_Wifi_BLE_SDK/GD32VW55x_RELEASE_V1.0.2/MSDK/lwip/libcoap-4.3.4/src\coap_debug.c **** static int packet_loss_level = 0;
1241:C:/Users/stapi/OneDrive/Desktop/GD32VW553/GD32VW55X_Wifi_BLE_SDK/GD32VW55x_RELEASE_V1.0.2/MSDK/lwip/libcoap-4.3.4/src\coap_debug.c **** static int send_packet_count = 0;
1242:C:/Users/stapi/OneDrive/Desktop/GD32VW553/GD32VW55X_Wifi_BLE_SDK/GD32VW55x_RELEASE_V1.0.2/MSDK/lwip/libcoap-4.3.4/src\coap_debug.c **** 
1243:C:/Users/stapi/OneDrive/Desktop/GD32VW553/GD32VW55X_Wifi_BLE_SDK/GD32VW55x_RELEASE_V1.0.2/MSDK/lwip/libcoap-4.3.4/src\coap_debug.c **** int
1244:C:/Users/stapi/OneDrive/Desktop/GD32VW553/GD32VW55X_Wifi_BLE_SDK/GD32VW55x_RELEASE_V1.0.2/MSDK/lwip/libcoap-4.3.4/src\coap_debug.c **** coap_debug_set_packet_loss(const char *loss_level) {
 3513              		.loc 1 1244 52 is_stmt 1
 3514              		.cfi_startproc
 3515              	.LVL364:
 3516 0000 17030000 		call	t0,__riscv_save_5
 3516      E7020300 
 3517              		.cfi_offset 20, -24
 3518              		.cfi_offset 19, -20
 3519              		.cfi_offset 18, -16
 3520              		.cfi_offset 9, -12
 3521              		.cfi_offset 8, -8
 3522              		.cfi_offset 1, -4
 3523              		.cfi_def_cfa_offset 32
1245:C:/Users/stapi/OneDrive/Desktop/GD32VW553/GD32VW55X_Wifi_BLE_SDK/GD32VW55x_RELEASE_V1.0.2/MSDK/lwip/libcoap-4.3.4/src\coap_debug.c ****   const char *p = loss_level;
 3524              		.loc 1 1245 3
1244:C:/Users/stapi/OneDrive/Desktop/GD32VW553/GD32VW55X_Wifi_BLE_SDK/GD32VW55x_RELEASE_V1.0.2/MSDK/lwip/libcoap-4.3.4/src\coap_debug.c ****   const char *p = loss_level;
 3525              		.loc 1 1244 52 is_stmt 0
 3526 0008 4111     		addi	sp,sp,-16
 3527              		.cfi_def_cfa_offset 48
1246:C:/Users/stapi/OneDrive/Desktop/GD32VW553/GD32VW55X_Wifi_BLE_SDK/GD32VW55x_RELEASE_V1.0.2/MSDK/lwip/libcoap-4.3.4/src\coap_debug.c ****   char *end = NULL;
1247:C:/Users/stapi/OneDrive/Desktop/GD32VW553/GD32VW55X_Wifi_BLE_SDK/GD32VW55x_RELEASE_V1.0.2/MSDK/lwip/libcoap-4.3.4/src\coap_debug.c ****   int n = (int)strtol(p, &end, 10), i = 0;
 3528              		.loc 1 1247 16
 3529 000a 2946     		li	a2,10
 3530 000c 6C00     		addi	a1,sp,12
1244:C:/Users/stapi/OneDrive/Desktop/GD32VW553/GD32VW55X_Wifi_BLE_SDK/GD32VW55x_RELEASE_V1.0.2/MSDK/lwip/libcoap-4.3.4/src\coap_debug.c ****   const char *p = loss_level;
 3531              		.loc 1 1244 52
 3532 000e 2A84     		mv	s0,a0
 3533              	.LVL365:
1246:C:/Users/stapi/OneDrive/Desktop/GD32VW553/GD32VW55X_Wifi_BLE_SDK/GD32VW55x_RELEASE_V1.0.2/MSDK/lwip/libcoap-4.3.4/src\coap_debug.c ****   char *end = NULL;
 3534              		.loc 1 1246 3 is_stmt 1
1246:C:/Users/stapi/OneDrive/Desktop/GD32VW553/GD32VW55X_Wifi_BLE_SDK/GD32VW55x_RELEASE_V1.0.2/MSDK/lwip/libcoap-4.3.4/src\coap_debug.c ****   char *end = NULL;
 3535              		.loc 1 1246 9 is_stmt 0
 3536 0010 02C6     		sw	zero,12(sp)
 3537              		.loc 1 1247 3 is_stmt 1
 3538              		.loc 1 1247 16 is_stmt 0
 3539 0012 97000000 		call	strtol
 3539      E7800000 
 3540              	.LVL366:
1248:C:/Users/stapi/OneDrive/Desktop/GD32VW553/GD32VW55X_Wifi_BLE_SDK/GD32VW55x_RELEASE_V1.0.2/MSDK/lwip/libcoap-4.3.4/src\coap_debug.c ****   if (end == p || n < 0)
 3541              		.loc 1 1248 3 is_stmt 1
 3542              		.loc 1 1248 11 is_stmt 0
 3543 001a B247     		lw	a5,12(sp)
 3544              		.loc 1 1248 6
 3545 001c 63988700 		bne	a5,s0,.L301
 3546              	.LVL367:
 3547              	.L303:
1249:C:/Users/stapi/OneDrive/Desktop/GD32VW553/GD32VW55X_Wifi_BLE_SDK/GD32VW55x_RELEASE_V1.0.2/MSDK/lwip/libcoap-4.3.4/src\coap_debug.c ****     return 0;
 3548              		.loc 1 1249 12
 3549 0020 0145     		li	a0,0
 3550              	.LVL368:
 3551              	.L300:
1250:C:/Users/stapi/OneDrive/Desktop/GD32VW553/GD32VW55X_Wifi_BLE_SDK/GD32VW55x_RELEASE_V1.0.2/MSDK/lwip/libcoap-4.3.4/src\coap_debug.c ****   if (*end == '%') {
1251:C:/Users/stapi/OneDrive/Desktop/GD32VW553/GD32VW55X_Wifi_BLE_SDK/GD32VW55x_RELEASE_V1.0.2/MSDK/lwip/libcoap-4.3.4/src\coap_debug.c ****     if (n > 100)
1252:C:/Users/stapi/OneDrive/Desktop/GD32VW553/GD32VW55X_Wifi_BLE_SDK/GD32VW55x_RELEASE_V1.0.2/MSDK/lwip/libcoap-4.3.4/src\coap_debug.c ****       n = 100;
1253:C:/Users/stapi/OneDrive/Desktop/GD32VW553/GD32VW55X_Wifi_BLE_SDK/GD32VW55x_RELEASE_V1.0.2/MSDK/lwip/libcoap-4.3.4/src\coap_debug.c ****     packet_loss_level = n * 65536 / 100;
1254:C:/Users/stapi/OneDrive/Desktop/GD32VW553/GD32VW55X_Wifi_BLE_SDK/GD32VW55x_RELEASE_V1.0.2/MSDK/lwip/libcoap-4.3.4/src\coap_debug.c ****     coap_log_debug("packet loss level set to %d%%\n", n);
1255:C:/Users/stapi/OneDrive/Desktop/GD32VW553/GD32VW55X_Wifi_BLE_SDK/GD32VW55x_RELEASE_V1.0.2/MSDK/lwip/libcoap-4.3.4/src\coap_debug.c ****   } else {
1256:C:/Users/stapi/OneDrive/Desktop/GD32VW553/GD32VW55X_Wifi_BLE_SDK/GD32VW55x_RELEASE_V1.0.2/MSDK/lwip/libcoap-4.3.4/src\coap_debug.c ****     if (n <= 0)
1257:C:/Users/stapi/OneDrive/Desktop/GD32VW553/GD32VW55X_Wifi_BLE_SDK/GD32VW55x_RELEASE_V1.0.2/MSDK/lwip/libcoap-4.3.4/src\coap_debug.c ****       return 0;
1258:C:/Users/stapi/OneDrive/Desktop/GD32VW553/GD32VW55X_Wifi_BLE_SDK/GD32VW55x_RELEASE_V1.0.2/MSDK/lwip/libcoap-4.3.4/src\coap_debug.c ****     while (i < 10) {
1259:C:/Users/stapi/OneDrive/Desktop/GD32VW553/GD32VW55X_Wifi_BLE_SDK/GD32VW55x_RELEASE_V1.0.2/MSDK/lwip/libcoap-4.3.4/src\coap_debug.c ****       packet_loss_intervals[i].start = n;
1260:C:/Users/stapi/OneDrive/Desktop/GD32VW553/GD32VW55X_Wifi_BLE_SDK/GD32VW55x_RELEASE_V1.0.2/MSDK/lwip/libcoap-4.3.4/src\coap_debug.c ****       if (*end == '-') {
1261:C:/Users/stapi/OneDrive/Desktop/GD32VW553/GD32VW55X_Wifi_BLE_SDK/GD32VW55x_RELEASE_V1.0.2/MSDK/lwip/libcoap-4.3.4/src\coap_debug.c ****         p = end + 1;
1262:C:/Users/stapi/OneDrive/Desktop/GD32VW553/GD32VW55X_Wifi_BLE_SDK/GD32VW55x_RELEASE_V1.0.2/MSDK/lwip/libcoap-4.3.4/src\coap_debug.c ****         n = (int)strtol(p, &end, 10);
1263:C:/Users/stapi/OneDrive/Desktop/GD32VW553/GD32VW55X_Wifi_BLE_SDK/GD32VW55x_RELEASE_V1.0.2/MSDK/lwip/libcoap-4.3.4/src\coap_debug.c ****         if (end == p || n <= 0)
1264:C:/Users/stapi/OneDrive/Desktop/GD32VW553/GD32VW55X_Wifi_BLE_SDK/GD32VW55x_RELEASE_V1.0.2/MSDK/lwip/libcoap-4.3.4/src\coap_debug.c ****           return 0;
1265:C:/Users/stapi/OneDrive/Desktop/GD32VW553/GD32VW55X_Wifi_BLE_SDK/GD32VW55x_RELEASE_V1.0.2/MSDK/lwip/libcoap-4.3.4/src\coap_debug.c ****       }
1266:C:/Users/stapi/OneDrive/Desktop/GD32VW553/GD32VW55X_Wifi_BLE_SDK/GD32VW55x_RELEASE_V1.0.2/MSDK/lwip/libcoap-4.3.4/src\coap_debug.c ****       packet_loss_intervals[i++].end = n;
1267:C:/Users/stapi/OneDrive/Desktop/GD32VW553/GD32VW55X_Wifi_BLE_SDK/GD32VW55x_RELEASE_V1.0.2/MSDK/lwip/libcoap-4.3.4/src\coap_debug.c ****       if (*end == 0)
1268:C:/Users/stapi/OneDrive/Desktop/GD32VW553/GD32VW55X_Wifi_BLE_SDK/GD32VW55x_RELEASE_V1.0.2/MSDK/lwip/libcoap-4.3.4/src\coap_debug.c ****         break;
1269:C:/Users/stapi/OneDrive/Desktop/GD32VW553/GD32VW55X_Wifi_BLE_SDK/GD32VW55x_RELEASE_V1.0.2/MSDK/lwip/libcoap-4.3.4/src\coap_debug.c ****       if (*end != ',')
1270:C:/Users/stapi/OneDrive/Desktop/GD32VW553/GD32VW55X_Wifi_BLE_SDK/GD32VW55x_RELEASE_V1.0.2/MSDK/lwip/libcoap-4.3.4/src\coap_debug.c ****         return 0;
1271:C:/Users/stapi/OneDrive/Desktop/GD32VW553/GD32VW55X_Wifi_BLE_SDK/GD32VW55x_RELEASE_V1.0.2/MSDK/lwip/libcoap-4.3.4/src\coap_debug.c ****       p = end + 1;
1272:C:/Users/stapi/OneDrive/Desktop/GD32VW553/GD32VW55X_Wifi_BLE_SDK/GD32VW55x_RELEASE_V1.0.2/MSDK/lwip/libcoap-4.3.4/src\coap_debug.c ****       n = (int)strtol(p, &end, 10);
1273:C:/Users/stapi/OneDrive/Desktop/GD32VW553/GD32VW55X_Wifi_BLE_SDK/GD32VW55x_RELEASE_V1.0.2/MSDK/lwip/libcoap-4.3.4/src\coap_debug.c ****       if (end == p || n <= 0)
1274:C:/Users/stapi/OneDrive/Desktop/GD32VW553/GD32VW55X_Wifi_BLE_SDK/GD32VW55x_RELEASE_V1.0.2/MSDK/lwip/libcoap-4.3.4/src\coap_debug.c ****         return 0;
1275:C:/Users/stapi/OneDrive/Desktop/GD32VW553/GD32VW55X_Wifi_BLE_SDK/GD32VW55x_RELEASE_V1.0.2/MSDK/lwip/libcoap-4.3.4/src\coap_debug.c ****     }
1276:C:/Users/stapi/OneDrive/Desktop/GD32VW553/GD32VW55X_Wifi_BLE_SDK/GD32VW55x_RELEASE_V1.0.2/MSDK/lwip/libcoap-4.3.4/src\coap_debug.c ****     if (i == 10)
1277:C:/Users/stapi/OneDrive/Desktop/GD32VW553/GD32VW55X_Wifi_BLE_SDK/GD32VW55x_RELEASE_V1.0.2/MSDK/lwip/libcoap-4.3.4/src\coap_debug.c ****       return 0;
1278:C:/Users/stapi/OneDrive/Desktop/GD32VW553/GD32VW55X_Wifi_BLE_SDK/GD32VW55x_RELEASE_V1.0.2/MSDK/lwip/libcoap-4.3.4/src\coap_debug.c ****     num_packet_loss_intervals = i;
1279:C:/Users/stapi/OneDrive/Desktop/GD32VW553/GD32VW55X_Wifi_BLE_SDK/GD32VW55x_RELEASE_V1.0.2/MSDK/lwip/libcoap-4.3.4/src\coap_debug.c ****   }
1280:C:/Users/stapi/OneDrive/Desktop/GD32VW553/GD32VW55X_Wifi_BLE_SDK/GD32VW55x_RELEASE_V1.0.2/MSDK/lwip/libcoap-4.3.4/src\coap_debug.c ****   send_packet_count = 0;
1281:C:/Users/stapi/OneDrive/Desktop/GD32VW553/GD32VW55X_Wifi_BLE_SDK/GD32VW55x_RELEASE_V1.0.2/MSDK/lwip/libcoap-4.3.4/src\coap_debug.c ****   return 1;
1282:C:/Users/stapi/OneDrive/Desktop/GD32VW553/GD32VW55X_Wifi_BLE_SDK/GD32VW55x_RELEASE_V1.0.2/MSDK/lwip/libcoap-4.3.4/src\coap_debug.c **** }
 3552              		.loc 1 1282 1
 3553 0022 4101     		addi	sp,sp,16
 3554              		.cfi_remember_state
 3555              		.cfi_def_cfa_offset 0
 3556 0024 17030000 		tail	__riscv_restore_5
 3556      67000300 
 3557              		.cfi_restore 20
 3558              		.cfi_restore 19
 3559              		.cfi_restore 18
 3560              		.cfi_restore 9
 3561              		.cfi_restore 8
 3562              		.cfi_restore 1
 3563              		.cfi_def_cfa_offset -32
 3564              	.LVL369:
 3565              	.L301:
 3566              		.cfi_restore_state
1248:C:/Users/stapi/OneDrive/Desktop/GD32VW553/GD32VW55X_Wifi_BLE_SDK/GD32VW55x_RELEASE_V1.0.2/MSDK/lwip/libcoap-4.3.4/src\coap_debug.c ****     return 0;
 3567              		.loc 1 1248 16 discriminator 1
 3568 002c E34A05FE 		blt	a0,zero,.L303
1250:C:/Users/stapi/OneDrive/Desktop/GD32VW553/GD32VW55X_Wifi_BLE_SDK/GD32VW55x_RELEASE_V1.0.2/MSDK/lwip/libcoap-4.3.4/src\coap_debug.c ****   if (*end == '%') {
 3569              		.loc 1 1250 3 is_stmt 1
1250:C:/Users/stapi/OneDrive/Desktop/GD32VW553/GD32VW55X_Wifi_BLE_SDK/GD32VW55x_RELEASE_V1.0.2/MSDK/lwip/libcoap-4.3.4/src\coap_debug.c ****   if (*end == '%') {
 3570              		.loc 1 1250 6 is_stmt 0
 3571 0030 03870700 		lb	a4,0(a5)
 3572 0034 93075002 		li	a5,37
 3573 0038 6314F704 		bne	a4,a5,.L304
1251:C:/Users/stapi/OneDrive/Desktop/GD32VW553/GD32VW55X_Wifi_BLE_SDK/GD32VW55x_RELEASE_V1.0.2/MSDK/lwip/libcoap-4.3.4/src\coap_debug.c ****       n = 100;
 3574              		.loc 1 1251 5 is_stmt 1
 3575 003c 13074006 		li	a4,100
 3576 0040 3346E50A 		min	a2,a0,a4
 3577              	.LVL370:
1253:C:/Users/stapi/OneDrive/Desktop/GD32VW553/GD32VW55X_Wifi_BLE_SDK/GD32VW55x_RELEASE_V1.0.2/MSDK/lwip/libcoap-4.3.4/src\coap_debug.c ****     coap_log_debug("packet loss level set to %d%%\n", n);
 3578              		.loc 1 1253 5
1253:C:/Users/stapi/OneDrive/Desktop/GD32VW553/GD32VW55X_Wifi_BLE_SDK/GD32VW55x_RELEASE_V1.0.2/MSDK/lwip/libcoap-4.3.4/src\coap_debug.c ****     coap_log_debug("packet loss level set to %d%%\n", n);
 3579              		.loc 1 1253 27 is_stmt 0
 3580 0044 93170601 		slli	a5,a2,16
1253:C:/Users/stapi/OneDrive/Desktop/GD32VW553/GD32VW55X_Wifi_BLE_SDK/GD32VW55x_RELEASE_V1.0.2/MSDK/lwip/libcoap-4.3.4/src\coap_debug.c ****     coap_log_debug("packet loss level set to %d%%\n", n);
 3581              		.loc 1 1253 35
 3582 0048 B3C7E702 		div	a5,a5,a4
1253:C:/Users/stapi/OneDrive/Desktop/GD32VW553/GD32VW55X_Wifi_BLE_SDK/GD32VW55x_RELEASE_V1.0.2/MSDK/lwip/libcoap-4.3.4/src\coap_debug.c ****     coap_log_debug("packet loss level set to %d%%\n", n);
 3583              		.loc 1 1253 23
 3584 004c 37070000 		lui	a4,%hi(.LANCHOR15)
 3585 0050 2320F700 		sw	a5,%lo(.LANCHOR15)(a4)
1254:C:/Users/stapi/OneDrive/Desktop/GD32VW553/GD32VW55X_Wifi_BLE_SDK/GD32VW55x_RELEASE_V1.0.2/MSDK/lwip/libcoap-4.3.4/src\coap_debug.c ****   } else {
 3586              		.loc 1 1254 5 is_stmt 1
1254:C:/Users/stapi/OneDrive/Desktop/GD32VW553/GD32VW55X_Wifi_BLE_SDK/GD32VW55x_RELEASE_V1.0.2/MSDK/lwip/libcoap-4.3.4/src\coap_debug.c ****   } else {
 3587              		.loc 1 1254 5
 3588              	.LBB121:
 3589              	.LBB122:
  92:C:/Users/stapi/OneDrive/Desktop/GD32VW553/GD32VW55X_Wifi_BLE_SDK/GD32VW55x_RELEASE_V1.0.2/MSDK/lwip/libcoap-4.3.4/src\coap_debug.c **** }
 3590              		.loc 1 92 3
 3591              	.LBE122:
 3592              	.LBE121:
1254:C:/Users/stapi/OneDrive/Desktop/GD32VW553/GD32VW55X_Wifi_BLE_SDK/GD32VW55x_RELEASE_V1.0.2/MSDK/lwip/libcoap-4.3.4/src\coap_debug.c ****   } else {
 3593              		.loc 1 1254 5 is_stmt 0
 3594 0054 B7070000 		lui	a5,%hi(.LANCHOR5)
 3595 0058 03A70700 		lw	a4,%lo(.LANCHOR5)(a5)
 3596 005c 9947     		li	a5,6
 3597 005e 63DBE700 		ble	a4,a5,.L305
1254:C:/Users/stapi/OneDrive/Desktop/GD32VW553/GD32VW55X_Wifi_BLE_SDK/GD32VW55x_RELEASE_V1.0.2/MSDK/lwip/libcoap-4.3.4/src\coap_debug.c ****   } else {
 3598              		.loc 1 1254 5 is_stmt 1 discriminator 1
 3599 0062 B7050000 		lui	a1,%hi(.LC58)
 3600 0066 93850500 		addi	a1,a1,%lo(.LC58)
 3601 006a 1D45     		li	a0,7
 3602 006c 97000000 		call	coap_log_impl
 3602      E7800000 
 3603              	.LVL371:
 3604              	.L305:
1280:C:/Users/stapi/OneDrive/Desktop/GD32VW553/GD32VW55X_Wifi_BLE_SDK/GD32VW55x_RELEASE_V1.0.2/MSDK/lwip/libcoap-4.3.4/src\coap_debug.c ****   return 1;
 3605              		.loc 1 1280 3
1280:C:/Users/stapi/OneDrive/Desktop/GD32VW553/GD32VW55X_Wifi_BLE_SDK/GD32VW55x_RELEASE_V1.0.2/MSDK/lwip/libcoap-4.3.4/src\coap_debug.c ****   return 1;
 3606              		.loc 1 1280 21 is_stmt 0
 3607 0074 B7070000 		lui	a5,%hi(.LANCHOR18)
 3608 0078 23A00700 		sw	zero,%lo(.LANCHOR18)(a5)
1281:C:/Users/stapi/OneDrive/Desktop/GD32VW553/GD32VW55X_Wifi_BLE_SDK/GD32VW55x_RELEASE_V1.0.2/MSDK/lwip/libcoap-4.3.4/src\coap_debug.c **** }
 3609              		.loc 1 1281 3 is_stmt 1
1281:C:/Users/stapi/OneDrive/Desktop/GD32VW553/GD32VW55X_Wifi_BLE_SDK/GD32VW55x_RELEASE_V1.0.2/MSDK/lwip/libcoap-4.3.4/src\coap_debug.c **** }
 3610              		.loc 1 1281 10 is_stmt 0
 3611 007c 0545     		li	a0,1
 3612 007e 55B7     		j	.L300
 3613              	.LVL372:
 3614              	.L304:
1256:C:/Users/stapi/OneDrive/Desktop/GD32VW553/GD32VW55X_Wifi_BLE_SDK/GD32VW55x_RELEASE_V1.0.2/MSDK/lwip/libcoap-4.3.4/src\coap_debug.c ****       return 0;
 3615              		.loc 1 1256 5 is_stmt 1
1256:C:/Users/stapi/OneDrive/Desktop/GD32VW553/GD32VW55X_Wifi_BLE_SDK/GD32VW55x_RELEASE_V1.0.2/MSDK/lwip/libcoap-4.3.4/src\coap_debug.c ****       return 0;
 3616              		.loc 1 1256 8 is_stmt 0
 3617 0080 45D1     		beq	a0,zero,.L303
 3618 0082 37040000 		lui	s0,%hi(.LANCHOR16)
 3619              	.LVL373:
 3620 0086 13040400 		addi	s0,s0,%lo(.LANCHOR16)
1247:C:/Users/stapi/OneDrive/Desktop/GD32VW553/GD32VW55X_Wifi_BLE_SDK/GD32VW55x_RELEASE_V1.0.2/MSDK/lwip/libcoap-4.3.4/src\coap_debug.c ****   if (end == p || n < 0)
 3621              		.loc 1 1247 37
 3622 008a 8144     		li	s1,0
1260:C:/Users/stapi/OneDrive/Desktop/GD32VW553/GD32VW55X_Wifi_BLE_SDK/GD32VW55x_RELEASE_V1.0.2/MSDK/lwip/libcoap-4.3.4/src\coap_debug.c ****         p = end + 1;
 3623              		.loc 1 1260 10
 3624 008c 9309D002 		li	s3,45
1269:C:/Users/stapi/OneDrive/Desktop/GD32VW553/GD32VW55X_Wifi_BLE_SDK/GD32VW55x_RELEASE_V1.0.2/MSDK/lwip/libcoap-4.3.4/src\coap_debug.c ****         return 0;
 3625              		.loc 1 1269 10
 3626 0090 130AC002 		li	s4,44
 3627              	.LVL374:
 3628              	.L308:
1259:C:/Users/stapi/OneDrive/Desktop/GD32VW553/GD32VW55X_Wifi_BLE_SDK/GD32VW55x_RELEASE_V1.0.2/MSDK/lwip/libcoap-4.3.4/src\coap_debug.c ****       if (*end == '-') {
 3629              		.loc 1 1259 7 is_stmt 1
1260:C:/Users/stapi/OneDrive/Desktop/GD32VW553/GD32VW55X_Wifi_BLE_SDK/GD32VW55x_RELEASE_V1.0.2/MSDK/lwip/libcoap-4.3.4/src\coap_debug.c ****         p = end + 1;
 3630              		.loc 1 1260 11 is_stmt 0
 3631 0094 3249     		lw	s2,12(sp)
1259:C:/Users/stapi/OneDrive/Desktop/GD32VW553/GD32VW55X_Wifi_BLE_SDK/GD32VW55x_RELEASE_V1.0.2/MSDK/lwip/libcoap-4.3.4/src\coap_debug.c ****       if (*end == '-') {
 3632              		.loc 1 1259 38
 3633 0096 08C0     		sw	a0,0(s0)
1260:C:/Users/stapi/OneDrive/Desktop/GD32VW553/GD32VW55X_Wifi_BLE_SDK/GD32VW55x_RELEASE_V1.0.2/MSDK/lwip/libcoap-4.3.4/src\coap_debug.c ****         p = end + 1;
 3634              		.loc 1 1260 7 is_stmt 1
1260:C:/Users/stapi/OneDrive/Desktop/GD32VW553/GD32VW55X_Wifi_BLE_SDK/GD32VW55x_RELEASE_V1.0.2/MSDK/lwip/libcoap-4.3.4/src\coap_debug.c ****         p = end + 1;
 3635              		.loc 1 1260 10 is_stmt 0
 3636 0098 83070900 		lb	a5,0(s2)
 3637 009c 639F3701 		bne	a5,s3,.L306
1261:C:/Users/stapi/OneDrive/Desktop/GD32VW553/GD32VW55X_Wifi_BLE_SDK/GD32VW55x_RELEASE_V1.0.2/MSDK/lwip/libcoap-4.3.4/src\coap_debug.c ****         n = (int)strtol(p, &end, 10);
 3638              		.loc 1 1261 9 is_stmt 1
1261:C:/Users/stapi/OneDrive/Desktop/GD32VW553/GD32VW55X_Wifi_BLE_SDK/GD32VW55x_RELEASE_V1.0.2/MSDK/lwip/libcoap-4.3.4/src\coap_debug.c ****         n = (int)strtol(p, &end, 10);
 3639              		.loc 1 1261 11 is_stmt 0
 3640 00a0 0509     		addi	s2,s2,1
 3641              	.LVL375:
1262:C:/Users/stapi/OneDrive/Desktop/GD32VW553/GD32VW55X_Wifi_BLE_SDK/GD32VW55x_RELEASE_V1.0.2/MSDK/lwip/libcoap-4.3.4/src\coap_debug.c ****         if (end == p || n <= 0)
 3642              		.loc 1 1262 9 is_stmt 1
1262:C:/Users/stapi/OneDrive/Desktop/GD32VW553/GD32VW55X_Wifi_BLE_SDK/GD32VW55x_RELEASE_V1.0.2/MSDK/lwip/libcoap-4.3.4/src\coap_debug.c ****         if (end == p || n <= 0)
 3643              		.loc 1 1262 18 is_stmt 0
 3644 00a2 2946     		li	a2,10
 3645 00a4 6C00     		addi	a1,sp,12
 3646 00a6 4A85     		mv	a0,s2
 3647              	.LVL376:
 3648 00a8 97000000 		call	strtol
 3648      E7800000 
 3649              	.LVL377:
1263:C:/Users/stapi/OneDrive/Desktop/GD32VW553/GD32VW55X_Wifi_BLE_SDK/GD32VW55x_RELEASE_V1.0.2/MSDK/lwip/libcoap-4.3.4/src\coap_debug.c ****           return 0;
 3650              		.loc 1 1263 9 is_stmt 1
1263:C:/Users/stapi/OneDrive/Desktop/GD32VW553/GD32VW55X_Wifi_BLE_SDK/GD32VW55x_RELEASE_V1.0.2/MSDK/lwip/libcoap-4.3.4/src\coap_debug.c ****           return 0;
 3651              		.loc 1 1263 12 is_stmt 0
 3652 00b0 B247     		lw	a5,12(sp)
 3653 00b2 E38727F7 		beq	a5,s2,.L303
1263:C:/Users/stapi/OneDrive/Desktop/GD32VW553/GD32VW55X_Wifi_BLE_SDK/GD32VW55x_RELEASE_V1.0.2/MSDK/lwip/libcoap-4.3.4/src\coap_debug.c ****           return 0;
 3654              		.loc 1 1263 22 discriminator 1
 3655 00b6 E355A0F6 		ble	a0,zero,.L303
 3656              	.LVL378:
 3657              	.L306:
1266:C:/Users/stapi/OneDrive/Desktop/GD32VW553/GD32VW55X_Wifi_BLE_SDK/GD32VW55x_RELEASE_V1.0.2/MSDK/lwip/libcoap-4.3.4/src\coap_debug.c ****       if (*end == 0)
 3658              		.loc 1 1266 7 is_stmt 1
1267:C:/Users/stapi/OneDrive/Desktop/GD32VW553/GD32VW55X_Wifi_BLE_SDK/GD32VW55x_RELEASE_V1.0.2/MSDK/lwip/libcoap-4.3.4/src\coap_debug.c ****         break;
 3659              		.loc 1 1267 11 is_stmt 0
 3660 00ba 3249     		lw	s2,12(sp)
1266:C:/Users/stapi/OneDrive/Desktop/GD32VW553/GD32VW55X_Wifi_BLE_SDK/GD32VW55x_RELEASE_V1.0.2/MSDK/lwip/libcoap-4.3.4/src\coap_debug.c ****       if (*end == 0)
 3661              		.loc 1 1266 38
 3662 00bc 48C0     		sw	a0,4(s0)
1266:C:/Users/stapi/OneDrive/Desktop/GD32VW553/GD32VW55X_Wifi_BLE_SDK/GD32VW55x_RELEASE_V1.0.2/MSDK/lwip/libcoap-4.3.4/src\coap_debug.c ****       if (*end == 0)
 3663              		.loc 1 1266 30
 3664 00be 8504     		addi	s1,s1,1
 3665              	.LVL379:
1267:C:/Users/stapi/OneDrive/Desktop/GD32VW553/GD32VW55X_Wifi_BLE_SDK/GD32VW55x_RELEASE_V1.0.2/MSDK/lwip/libcoap-4.3.4/src\coap_debug.c ****         break;
 3666              		.loc 1 1267 7 is_stmt 1
1267:C:/Users/stapi/OneDrive/Desktop/GD32VW553/GD32VW55X_Wifi_BLE_SDK/GD32VW55x_RELEASE_V1.0.2/MSDK/lwip/libcoap-4.3.4/src\coap_debug.c ****         break;
 3667              		.loc 1 1267 11 is_stmt 0
 3668 00c0 83070900 		lb	a5,0(s2)
1267:C:/Users/stapi/OneDrive/Desktop/GD32VW553/GD32VW55X_Wifi_BLE_SDK/GD32VW55x_RELEASE_V1.0.2/MSDK/lwip/libcoap-4.3.4/src\coap_debug.c ****         break;
 3669              		.loc 1 1267 10
 3670 00c4 8DC7     		beq	a5,zero,.L307
1269:C:/Users/stapi/OneDrive/Desktop/GD32VW553/GD32VW55X_Wifi_BLE_SDK/GD32VW55x_RELEASE_V1.0.2/MSDK/lwip/libcoap-4.3.4/src\coap_debug.c ****         return 0;
 3671              		.loc 1 1269 7 is_stmt 1
1269:C:/Users/stapi/OneDrive/Desktop/GD32VW553/GD32VW55X_Wifi_BLE_SDK/GD32VW55x_RELEASE_V1.0.2/MSDK/lwip/libcoap-4.3.4/src\coap_debug.c ****         return 0;
 3672              		.loc 1 1269 10 is_stmt 0
 3673 00c6 E39D47F5 		bne	a5,s4,.L303
1271:C:/Users/stapi/OneDrive/Desktop/GD32VW553/GD32VW55X_Wifi_BLE_SDK/GD32VW55x_RELEASE_V1.0.2/MSDK/lwip/libcoap-4.3.4/src\coap_debug.c ****       n = (int)strtol(p, &end, 10);
 3674              		.loc 1 1271 7 is_stmt 1
1271:C:/Users/stapi/OneDrive/Desktop/GD32VW553/GD32VW55X_Wifi_BLE_SDK/GD32VW55x_RELEASE_V1.0.2/MSDK/lwip/libcoap-4.3.4/src\coap_debug.c ****       n = (int)strtol(p, &end, 10);
 3675              		.loc 1 1271 9 is_stmt 0
 3676 00ca 0509     		addi	s2,s2,1
 3677              	.LVL380:
1272:C:/Users/stapi/OneDrive/Desktop/GD32VW553/GD32VW55X_Wifi_BLE_SDK/GD32VW55x_RELEASE_V1.0.2/MSDK/lwip/libcoap-4.3.4/src\coap_debug.c ****       if (end == p || n <= 0)
 3678              		.loc 1 1272 7 is_stmt 1
1272:C:/Users/stapi/OneDrive/Desktop/GD32VW553/GD32VW55X_Wifi_BLE_SDK/GD32VW55x_RELEASE_V1.0.2/MSDK/lwip/libcoap-4.3.4/src\coap_debug.c ****       if (end == p || n <= 0)
 3679              		.loc 1 1272 16 is_stmt 0
 3680 00cc 2946     		li	a2,10
 3681 00ce 6C00     		addi	a1,sp,12
 3682 00d0 4A85     		mv	a0,s2
 3683              	.LVL381:
 3684 00d2 97000000 		call	strtol
 3684      E7800000 
 3685              	.LVL382:
1273:C:/Users/stapi/OneDrive/Desktop/GD32VW553/GD32VW55X_Wifi_BLE_SDK/GD32VW55x_RELEASE_V1.0.2/MSDK/lwip/libcoap-4.3.4/src\coap_debug.c ****         return 0;
 3686              		.loc 1 1273 7 is_stmt 1
1273:C:/Users/stapi/OneDrive/Desktop/GD32VW553/GD32VW55X_Wifi_BLE_SDK/GD32VW55x_RELEASE_V1.0.2/MSDK/lwip/libcoap-4.3.4/src\coap_debug.c ****         return 0;
 3687              		.loc 1 1273 10 is_stmt 0
 3688 00da B247     		lw	a5,12(sp)
 3689 00dc E38227F5 		beq	a5,s2,.L303
1273:C:/Users/stapi/OneDrive/Desktop/GD32VW553/GD32VW55X_Wifi_BLE_SDK/GD32VW55x_RELEASE_V1.0.2/MSDK/lwip/libcoap-4.3.4/src\coap_debug.c ****         return 0;
 3690              		.loc 1 1273 20 discriminator 1
 3691 00e0 E350A0F4 		ble	a0,zero,.L303
1258:C:/Users/stapi/OneDrive/Desktop/GD32VW553/GD32VW55X_Wifi_BLE_SDK/GD32VW55x_RELEASE_V1.0.2/MSDK/lwip/libcoap-4.3.4/src\coap_debug.c ****       packet_loss_intervals[i].start = n;
 3692              		.loc 1 1258 11 is_stmt 1
 3693 00e4 A947     		li	a5,10
 3694 00e6 2104     		addi	s0,s0,8
 3695 00e8 E396F4FA 		bne	s1,a5,.L308
 3696 00ec 15BF     		j	.L303
 3697              	.LVL383:
 3698              	.L307:
1276:C:/Users/stapi/OneDrive/Desktop/GD32VW553/GD32VW55X_Wifi_BLE_SDK/GD32VW55x_RELEASE_V1.0.2/MSDK/lwip/libcoap-4.3.4/src\coap_debug.c ****       return 0;
 3699              		.loc 1 1276 5
1276:C:/Users/stapi/OneDrive/Desktop/GD32VW553/GD32VW55X_Wifi_BLE_SDK/GD32VW55x_RELEASE_V1.0.2/MSDK/lwip/libcoap-4.3.4/src\coap_debug.c ****       return 0;
 3700              		.loc 1 1276 8 is_stmt 0
 3701 00ee A947     		li	a5,10
 3702 00f0 E388F4F2 		beq	s1,a5,.L303
1278:C:/Users/stapi/OneDrive/Desktop/GD32VW553/GD32VW55X_Wifi_BLE_SDK/GD32VW55x_RELEASE_V1.0.2/MSDK/lwip/libcoap-4.3.4/src\coap_debug.c ****   }
 3703              		.loc 1 1278 5 is_stmt 1
1278:C:/Users/stapi/OneDrive/Desktop/GD32VW553/GD32VW55X_Wifi_BLE_SDK/GD32VW55x_RELEASE_V1.0.2/MSDK/lwip/libcoap-4.3.4/src\coap_debug.c ****   }
 3704              		.loc 1 1278 31 is_stmt 0
 3705 00f4 B7070000 		lui	a5,%hi(.LANCHOR17)
 3706 00f8 23A09700 		sw	s1,%lo(.LANCHOR17)(a5)
 3707 00fc A5BF     		j	.L305
 3708              		.cfi_endproc
 3709              	.LFE52:
 3711              		.section	.rodata.coap_debug_send_packet.str1.4,"aMS",@progbits,1
 3712              		.align	2
 3713              	.LC59:
 3714 0000 5061636B 		.string	"Packet %u dropped\n"
 3714      65742025 
 3714      75206472 
 3714      6F707065 
 3714      640A00
 3715              		.section	.text.coap_debug_send_packet,"ax",@progbits
 3716              		.align	1
 3717              		.globl	coap_debug_send_packet
 3719              	coap_debug_send_packet:
 3720              	.LFB53:
1283:C:/Users/stapi/OneDrive/Desktop/GD32VW553/GD32VW55X_Wifi_BLE_SDK/GD32VW55x_RELEASE_V1.0.2/MSDK/lwip/libcoap-4.3.4/src\coap_debug.c **** 
1284:C:/Users/stapi/OneDrive/Desktop/GD32VW553/GD32VW55X_Wifi_BLE_SDK/GD32VW55x_RELEASE_V1.0.2/MSDK/lwip/libcoap-4.3.4/src\coap_debug.c **** int
1285:C:/Users/stapi/OneDrive/Desktop/GD32VW553/GD32VW55X_Wifi_BLE_SDK/GD32VW55x_RELEASE_V1.0.2/MSDK/lwip/libcoap-4.3.4/src\coap_debug.c **** coap_debug_send_packet(void) {
 3721              		.loc 1 1285 30 is_stmt 1
 3722              		.cfi_startproc
 3723 0000 17030000 		call	t0,__riscv_save_2
 3723      E7020300 
 3724              		.cfi_offset 9, -12
 3725              		.cfi_offset 8, -8
 3726              		.cfi_offset 1, -4
 3727              		.cfi_def_cfa_offset 16
1286:C:/Users/stapi/OneDrive/Desktop/GD32VW553/GD32VW55X_Wifi_BLE_SDK/GD32VW55x_RELEASE_V1.0.2/MSDK/lwip/libcoap-4.3.4/src\coap_debug.c ****   ++send_packet_count;
 3728              		.loc 1 1286 3
 3729 0008 B7070000 		lui	a5,%hi(.LANCHOR18)
 3730 000c 13870700 		addi	a4,a5,%lo(.LANCHOR18)
 3731 0010 1043     		lw	a2,0(a4)
 3732 0012 13840700 		addi	s0,a5,%lo(.LANCHOR18)
 3733 0016 0506     		addi	a2,a2,1
 3734 0018 10C3     		sw	a2,0(a4)
1287:C:/Users/stapi/OneDrive/Desktop/GD32VW553/GD32VW55X_Wifi_BLE_SDK/GD32VW55x_RELEASE_V1.0.2/MSDK/lwip/libcoap-4.3.4/src\coap_debug.c ****   if (num_packet_loss_intervals > 0) {
 3735              		.loc 1 1287 3
 3736              		.loc 1 1287 33 is_stmt 0
 3737 001a 37070000 		lui	a4,%hi(.LANCHOR17)
 3738 001e 83260700 		lw	a3,%lo(.LANCHOR17)(a4)
 3739              		.loc 1 1287 6
 3740 0022 635AD002 		ble	a3,zero,.L315
 3741 0026 B7070000 		lui	a5,%hi(.LANCHOR16)
 3742 002a 93870700 		addi	a5,a5,%lo(.LANCHOR16)
 3743              	.LBB131:
1288:C:/Users/stapi/OneDrive/Desktop/GD32VW553/GD32VW55X_Wifi_BLE_SDK/GD32VW55x_RELEASE_V1.0.2/MSDK/lwip/libcoap-4.3.4/src\coap_debug.c ****     int i;
1289:C:/Users/stapi/OneDrive/Desktop/GD32VW553/GD32VW55X_Wifi_BLE_SDK/GD32VW55x_RELEASE_V1.0.2/MSDK/lwip/libcoap-4.3.4/src\coap_debug.c ****     for (i = 0; i < num_packet_loss_intervals; i++) {
 3744              		.loc 1 1289 12
 3745 002e 0147     		li	a4,0
 3746              	.L319:
 3747              	.LVL384:
1290:C:/Users/stapi/OneDrive/Desktop/GD32VW553/GD32VW55X_Wifi_BLE_SDK/GD32VW55x_RELEASE_V1.0.2/MSDK/lwip/libcoap-4.3.4/src\coap_debug.c ****       if (send_packet_count >= packet_loss_intervals[i].start &&
 3748              		.loc 1 1290 7 is_stmt 1
 3749              		.loc 1 1290 10 is_stmt 0
 3750 0030 8C43     		lw	a1,0(a5)
 3751 0032 634EB600 		blt	a2,a1,.L316
 3752              		.loc 1 1290 63 discriminator 1
 3753 0036 CC43     		lw	a1,4(a5)
 3754 0038 63CBC500 		bgt	a2,a1,.L316
1291:C:/Users/stapi/OneDrive/Desktop/GD32VW553/GD32VW55X_Wifi_BLE_SDK/GD32VW55x_RELEASE_V1.0.2/MSDK/lwip/libcoap-4.3.4/src\coap_debug.c ****           send_packet_count <= packet_loss_intervals[i].end) {
1292:C:/Users/stapi/OneDrive/Desktop/GD32VW553/GD32VW55X_Wifi_BLE_SDK/GD32VW55x_RELEASE_V1.0.2/MSDK/lwip/libcoap-4.3.4/src\coap_debug.c ****         coap_log_debug("Packet %u dropped\n", send_packet_count);
 3755              		.loc 1 1292 9 is_stmt 1
 3756              		.loc 1 1292 9
 3757              	.LBB132:
 3758              	.LBB133:
  92:C:/Users/stapi/OneDrive/Desktop/GD32VW553/GD32VW55X_Wifi_BLE_SDK/GD32VW55x_RELEASE_V1.0.2/MSDK/lwip/libcoap-4.3.4/src\coap_debug.c **** }
 3759              		.loc 1 92 3
 3760              	.LBE133:
 3761              	.LBE132:
 3762              		.loc 1 1292 9 is_stmt 0
 3763 003c B7070000 		lui	a5,%hi(.LANCHOR5)
 3764 0040 03A70700 		lw	a4,%lo(.LANCHOR5)(a5)
 3765              	.LVL385:
 3766 0044 9947     		li	a5,6
 3767 0046 63C5E704 		bgt	a4,a5,.L325
 3768              	.L326:
 3769              	.LBE131:
 3770              	.LBB134:
1293:C:/Users/stapi/OneDrive/Desktop/GD32VW553/GD32VW55X_Wifi_BLE_SDK/GD32VW55x_RELEASE_V1.0.2/MSDK/lwip/libcoap-4.3.4/src\coap_debug.c ****         return 0;
1294:C:/Users/stapi/OneDrive/Desktop/GD32VW553/GD32VW55X_Wifi_BLE_SDK/GD32VW55x_RELEASE_V1.0.2/MSDK/lwip/libcoap-4.3.4/src\coap_debug.c ****       }
1295:C:/Users/stapi/OneDrive/Desktop/GD32VW553/GD32VW55X_Wifi_BLE_SDK/GD32VW55x_RELEASE_V1.0.2/MSDK/lwip/libcoap-4.3.4/src\coap_debug.c ****     }
1296:C:/Users/stapi/OneDrive/Desktop/GD32VW553/GD32VW55X_Wifi_BLE_SDK/GD32VW55x_RELEASE_V1.0.2/MSDK/lwip/libcoap-4.3.4/src\coap_debug.c ****   }
1297:C:/Users/stapi/OneDrive/Desktop/GD32VW553/GD32VW55X_Wifi_BLE_SDK/GD32VW55x_RELEASE_V1.0.2/MSDK/lwip/libcoap-4.3.4/src\coap_debug.c ****   if (packet_loss_level > 0) {
1298:C:/Users/stapi/OneDrive/Desktop/GD32VW553/GD32VW55X_Wifi_BLE_SDK/GD32VW55x_RELEASE_V1.0.2/MSDK/lwip/libcoap-4.3.4/src\coap_debug.c ****     uint16_t r = 0;
1299:C:/Users/stapi/OneDrive/Desktop/GD32VW553/GD32VW55X_Wifi_BLE_SDK/GD32VW55x_RELEASE_V1.0.2/MSDK/lwip/libcoap-4.3.4/src\coap_debug.c ****     coap_prng((uint8_t *)&r, 2);
1300:C:/Users/stapi/OneDrive/Desktop/GD32VW553/GD32VW55X_Wifi_BLE_SDK/GD32VW55x_RELEASE_V1.0.2/MSDK/lwip/libcoap-4.3.4/src\coap_debug.c ****     if (r < packet_loss_level) {
1301:C:/Users/stapi/OneDrive/Desktop/GD32VW553/GD32VW55X_Wifi_BLE_SDK/GD32VW55x_RELEASE_V1.0.2/MSDK/lwip/libcoap-4.3.4/src\coap_debug.c ****       coap_log_debug("Packet %u dropped\n", send_packet_count);
1302:C:/Users/stapi/OneDrive/Desktop/GD32VW553/GD32VW55X_Wifi_BLE_SDK/GD32VW55x_RELEASE_V1.0.2/MSDK/lwip/libcoap-4.3.4/src\coap_debug.c ****       return 0;
 3771              		.loc 1 1302 14 discriminator 1
 3772 004a 0145     		li	a0,0
 3773 004c 29A8     		j	.L314
 3774              	.LVL386:
 3775              	.L316:
 3776              	.LBE134:
 3777              	.LBB139:
1289:C:/Users/stapi/OneDrive/Desktop/GD32VW553/GD32VW55X_Wifi_BLE_SDK/GD32VW55x_RELEASE_V1.0.2/MSDK/lwip/libcoap-4.3.4/src\coap_debug.c ****       if (send_packet_count >= packet_loss_intervals[i].start &&
 3778              		.loc 1 1289 48 is_stmt 1 discriminator 2
1289:C:/Users/stapi/OneDrive/Desktop/GD32VW553/GD32VW55X_Wifi_BLE_SDK/GD32VW55x_RELEASE_V1.0.2/MSDK/lwip/libcoap-4.3.4/src\coap_debug.c ****       if (send_packet_count >= packet_loss_intervals[i].start &&
 3779              		.loc 1 1289 49 is_stmt 0 discriminator 2
 3780 004e 0507     		addi	a4,a4,1
 3781              	.LVL387:
1289:C:/Users/stapi/OneDrive/Desktop/GD32VW553/GD32VW55X_Wifi_BLE_SDK/GD32VW55x_RELEASE_V1.0.2/MSDK/lwip/libcoap-4.3.4/src\coap_debug.c ****       if (send_packet_count >= packet_loss_intervals[i].start &&
 3782              		.loc 1 1289 17 is_stmt 1 discriminator 2
1289:C:/Users/stapi/OneDrive/Desktop/GD32VW553/GD32VW55X_Wifi_BLE_SDK/GD32VW55x_RELEASE_V1.0.2/MSDK/lwip/libcoap-4.3.4/src\coap_debug.c ****       if (send_packet_count >= packet_loss_intervals[i].start &&
 3783              		.loc 1 1289 5 is_stmt 0 discriminator 2
 3784 0050 A107     		addi	a5,a5,8
 3785 0052 E39FE6FC 		bne	a3,a4,.L319
 3786              	.LVL388:
 3787              	.L315:
 3788              	.LBE139:
1297:C:/Users/stapi/OneDrive/Desktop/GD32VW553/GD32VW55X_Wifi_BLE_SDK/GD32VW55x_RELEASE_V1.0.2/MSDK/lwip/libcoap-4.3.4/src\coap_debug.c ****     uint16_t r = 0;
 3789              		.loc 1 1297 3 is_stmt 1
1297:C:/Users/stapi/OneDrive/Desktop/GD32VW553/GD32VW55X_Wifi_BLE_SDK/GD32VW55x_RELEASE_V1.0.2/MSDK/lwip/libcoap-4.3.4/src\coap_debug.c ****     uint16_t r = 0;
 3790              		.loc 1 1297 25 is_stmt 0
 3791 0056 B7040000 		lui	s1,%hi(.LANCHOR15)
 3792 005a 93840400 		addi	s1,s1,%lo(.LANCHOR15)
1297:C:/Users/stapi/OneDrive/Desktop/GD32VW553/GD32VW55X_Wifi_BLE_SDK/GD32VW55x_RELEASE_V1.0.2/MSDK/lwip/libcoap-4.3.4/src\coap_debug.c ****     uint16_t r = 0;
 3793              		.loc 1 1297 6
 3794 005e 9C40     		lw	a5,0(s1)
 3795 0060 6347F000 		bgt	a5,zero,.L320
 3796              	.L321:
1303:C:/Users/stapi/OneDrive/Desktop/GD32VW553/GD32VW55X_Wifi_BLE_SDK/GD32VW55x_RELEASE_V1.0.2/MSDK/lwip/libcoap-4.3.4/src\coap_debug.c ****     }
1304:C:/Users/stapi/OneDrive/Desktop/GD32VW553/GD32VW55X_Wifi_BLE_SDK/GD32VW55x_RELEASE_V1.0.2/MSDK/lwip/libcoap-4.3.4/src\coap_debug.c ****   }
1305:C:/Users/stapi/OneDrive/Desktop/GD32VW553/GD32VW55X_Wifi_BLE_SDK/GD32VW55x_RELEASE_V1.0.2/MSDK/lwip/libcoap-4.3.4/src\coap_debug.c ****   return 1;
 3797              		.loc 1 1305 10
 3798 0064 0545     		li	a0,1
 3799              	.L314:
1306:C:/Users/stapi/OneDrive/Desktop/GD32VW553/GD32VW55X_Wifi_BLE_SDK/GD32VW55x_RELEASE_V1.0.2/MSDK/lwip/libcoap-4.3.4/src\coap_debug.c **** }
 3800              		.loc 1 1306 1
 3801 0066 17030000 		tail	__riscv_restore_2
 3801      67000300 
 3802              		.cfi_remember_state
 3803              		.cfi_restore 9
 3804              		.cfi_restore 8
 3805              		.cfi_restore 1
 3806              		.cfi_def_cfa_offset 0
 3807              	.L320:
 3808              		.cfi_restore_state
 3809              	.LBB140:
1298:C:/Users/stapi/OneDrive/Desktop/GD32VW553/GD32VW55X_Wifi_BLE_SDK/GD32VW55x_RELEASE_V1.0.2/MSDK/lwip/libcoap-4.3.4/src\coap_debug.c ****     coap_prng((uint8_t *)&r, 2);
 3810              		.loc 1 1298 5 is_stmt 1
 3811              	.LVL389:
1299:C:/Users/stapi/OneDrive/Desktop/GD32VW553/GD32VW55X_Wifi_BLE_SDK/GD32VW55x_RELEASE_V1.0.2/MSDK/lwip/libcoap-4.3.4/src\coap_debug.c ****     if (r < packet_loss_level) {
 3812              		.loc 1 1299 5
 3813              	.LBB135:
 3814              	.LBB136:
 3815              		.file 3 "..\\..\\..\\..\\lwip\\libcoap-4.3.4\\include/coap3/coap_prng.h"
   1:..\..\..\..\lwip\libcoap-4.3.4\include/coap3/coap_prng.h **** /*
   2:..\..\..\..\lwip\libcoap-4.3.4\include/coap3/coap_prng.h ****  * coap_prng.h -- Pseudo Random Numbers
   3:..\..\..\..\lwip\libcoap-4.3.4\include/coap3/coap_prng.h ****  *
   4:..\..\..\..\lwip\libcoap-4.3.4\include/coap3/coap_prng.h ****  * Copyright (C) 2010-2023 Olaf Bergmann <bergmann@tzi.org>
   5:..\..\..\..\lwip\libcoap-4.3.4\include/coap3/coap_prng.h ****  *
   6:..\..\..\..\lwip\libcoap-4.3.4\include/coap3/coap_prng.h ****  * SPDX-License-Identifier: BSD-2-Clause
   7:..\..\..\..\lwip\libcoap-4.3.4\include/coap3/coap_prng.h ****  *
   8:..\..\..\..\lwip\libcoap-4.3.4\include/coap3/coap_prng.h ****  * This file is part of the CoAP library libcoap. Please see README for terms
   9:..\..\..\..\lwip\libcoap-4.3.4\include/coap3/coap_prng.h ****  * of use.
  10:..\..\..\..\lwip\libcoap-4.3.4\include/coap3/coap_prng.h ****  */
  11:..\..\..\..\lwip\libcoap-4.3.4\include/coap3/coap_prng.h **** 
  12:..\..\..\..\lwip\libcoap-4.3.4\include/coap3/coap_prng.h **** /**
  13:..\..\..\..\lwip\libcoap-4.3.4\include/coap3/coap_prng.h ****  * @file coap_prng.h
  14:..\..\..\..\lwip\libcoap-4.3.4\include/coap3/coap_prng.h ****  * @brief Pseudo Random Numbers
  15:..\..\..\..\lwip\libcoap-4.3.4\include/coap3/coap_prng.h ****  */
  16:..\..\..\..\lwip\libcoap-4.3.4\include/coap3/coap_prng.h **** 
  17:..\..\..\..\lwip\libcoap-4.3.4\include/coap3/coap_prng.h **** #ifndef COAP_PRNG_H_
  18:..\..\..\..\lwip\libcoap-4.3.4\include/coap3/coap_prng.h **** #define COAP_PRNG_H_
  19:..\..\..\..\lwip\libcoap-4.3.4\include/coap3/coap_prng.h **** 
  20:..\..\..\..\lwip\libcoap-4.3.4\include/coap3/coap_prng.h **** /**
  21:..\..\..\..\lwip\libcoap-4.3.4\include/coap3/coap_prng.h ****  * @ingroup application_api
  22:..\..\..\..\lwip\libcoap-4.3.4\include/coap3/coap_prng.h ****  * @defgroup coap_prng Pseudo Random Numbers
  23:..\..\..\..\lwip\libcoap-4.3.4\include/coap3/coap_prng.h ****  * API for generating pseudo random numbers
  24:..\..\..\..\lwip\libcoap-4.3.4\include/coap3/coap_prng.h ****  * @{
  25:..\..\..\..\lwip\libcoap-4.3.4\include/coap3/coap_prng.h ****  */
  26:..\..\..\..\lwip\libcoap-4.3.4\include/coap3/coap_prng.h **** 
  27:..\..\..\..\lwip\libcoap-4.3.4\include/coap3/coap_prng.h **** #if defined(WITH_LWIP) && defined(LWIP_RAND)
  28:..\..\..\..\lwip\libcoap-4.3.4\include/coap3/coap_prng.h **** 
  29:..\..\..\..\lwip\libcoap-4.3.4\include/coap3/coap_prng.h **** COAP_STATIC_INLINE int
  30:..\..\..\..\lwip\libcoap-4.3.4\include/coap3/coap_prng.h **** lwip_prng_impl(unsigned char *buf, size_t len) {
  31:..\..\..\..\lwip\libcoap-4.3.4\include/coap3/coap_prng.h ****   u32_t v = LWIP_RAND();
 3816              		.loc 3 31 3
 3817              		.loc 3 31 13 is_stmt 0
 3818 006e 97000000 		call	rand
 3818      E7800000 
 3819              	.LVL390:
  32:..\..\..\..\lwip\libcoap-4.3.4\include/coap3/coap_prng.h ****   while (len > sizeof(v)) {
 3820              		.loc 3 32 3 is_stmt 1
 3821              		.loc 3 32 9
  33:..\..\..\..\lwip\libcoap-4.3.4\include/coap3/coap_prng.h ****     memcpy(buf, &v, sizeof(v));
  34:..\..\..\..\lwip\libcoap-4.3.4\include/coap3/coap_prng.h ****     len -= sizeof(v);
  35:..\..\..\..\lwip\libcoap-4.3.4\include/coap3/coap_prng.h ****     buf += sizeof(v);
  36:..\..\..\..\lwip\libcoap-4.3.4\include/coap3/coap_prng.h ****     v = LWIP_RAND();
  37:..\..\..\..\lwip\libcoap-4.3.4\include/coap3/coap_prng.h ****   }
  38:..\..\..\..\lwip\libcoap-4.3.4\include/coap3/coap_prng.h **** 
  39:..\..\..\..\lwip\libcoap-4.3.4\include/coap3/coap_prng.h ****   memcpy(buf, &v, len);
 3822              		.loc 3 39 3
  40:..\..\..\..\lwip\libcoap-4.3.4\include/coap3/coap_prng.h ****   return 1;
 3823              		.loc 3 40 3
 3824              	.LBE136:
 3825              	.LBE135:
1300:C:/Users/stapi/OneDrive/Desktop/GD32VW553/GD32VW55X_Wifi_BLE_SDK/GD32VW55x_RELEASE_V1.0.2/MSDK/lwip/libcoap-4.3.4/src\coap_debug.c ****       coap_log_debug("Packet %u dropped\n", send_packet_count);
 3826              		.loc 1 1300 5
1300:C:/Users/stapi/OneDrive/Desktop/GD32VW553/GD32VW55X_Wifi_BLE_SDK/GD32VW55x_RELEASE_V1.0.2/MSDK/lwip/libcoap-4.3.4/src\coap_debug.c ****       coap_log_debug("Packet %u dropped\n", send_packet_count);
 3827              		.loc 1 1300 8 is_stmt 0
 3828 0076 9C40     		lw	a5,0(s1)
 3829 0078 33450508 		zext.h	a0,a0
 3830 007c E354F5FE 		ble	a5,a0,.L321
1301:C:/Users/stapi/OneDrive/Desktop/GD32VW553/GD32VW55X_Wifi_BLE_SDK/GD32VW55x_RELEASE_V1.0.2/MSDK/lwip/libcoap-4.3.4/src\coap_debug.c ****       return 0;
 3831              		.loc 1 1301 7 is_stmt 1
1301:C:/Users/stapi/OneDrive/Desktop/GD32VW553/GD32VW55X_Wifi_BLE_SDK/GD32VW55x_RELEASE_V1.0.2/MSDK/lwip/libcoap-4.3.4/src\coap_debug.c ****       return 0;
 3832              		.loc 1 1301 7
 3833              	.LBB137:
 3834              	.LBB138:
  92:C:/Users/stapi/OneDrive/Desktop/GD32VW553/GD32VW55X_Wifi_BLE_SDK/GD32VW55x_RELEASE_V1.0.2/MSDK/lwip/libcoap-4.3.4/src\coap_debug.c **** }
 3835              		.loc 1 92 3
 3836              	.LBE138:
 3837              	.LBE137:
1301:C:/Users/stapi/OneDrive/Desktop/GD32VW553/GD32VW55X_Wifi_BLE_SDK/GD32VW55x_RELEASE_V1.0.2/MSDK/lwip/libcoap-4.3.4/src\coap_debug.c ****       return 0;
 3838              		.loc 1 1301 7 is_stmt 0
 3839 0080 B7070000 		lui	a5,%hi(.LANCHOR5)
 3840 0084 03A70700 		lw	a4,%lo(.LANCHOR5)(a5)
 3841 0088 9947     		li	a5,6
 3842 008a E3D0E7FC 		ble	a4,a5,.L326
1301:C:/Users/stapi/OneDrive/Desktop/GD32VW553/GD32VW55X_Wifi_BLE_SDK/GD32VW55x_RELEASE_V1.0.2/MSDK/lwip/libcoap-4.3.4/src\coap_debug.c ****       return 0;
 3843              		.loc 1 1301 7 is_stmt 1 discriminator 1
 3844 008e 1040     		lw	a2,0(s0)
 3845              	.LVL391:
 3846              	.L325:
 3847 0090 B7050000 		lui	a1,%hi(.LC59)
 3848 0094 93850500 		addi	a1,a1,%lo(.LC59)
 3849 0098 1D45     		li	a0,7
 3850 009a 97000000 		call	coap_log_impl
 3850      E7800000 
 3851              	.LVL392:
 3852 00a2 65B7     		j	.L326
 3853              	.LBE140:
 3854              		.cfi_endproc
 3855              	.LFE53:
 3857              		.section	.text.coap_debug_reset,"ax",@progbits
 3858              		.align	1
 3859              		.globl	coap_debug_reset
 3861              	coap_debug_reset:
 3862              	.LFB54:
1307:C:/Users/stapi/OneDrive/Desktop/GD32VW553/GD32VW55X_Wifi_BLE_SDK/GD32VW55x_RELEASE_V1.0.2/MSDK/lwip/libcoap-4.3.4/src\coap_debug.c **** 
1308:C:/Users/stapi/OneDrive/Desktop/GD32VW553/GD32VW55X_Wifi_BLE_SDK/GD32VW55x_RELEASE_V1.0.2/MSDK/lwip/libcoap-4.3.4/src\coap_debug.c **** void
1309:C:/Users/stapi/OneDrive/Desktop/GD32VW553/GD32VW55X_Wifi_BLE_SDK/GD32VW55x_RELEASE_V1.0.2/MSDK/lwip/libcoap-4.3.4/src\coap_debug.c **** coap_debug_reset(void) {
 3863              		.loc 1 1309 24
 3864              		.cfi_startproc
1310:C:/Users/stapi/OneDrive/Desktop/GD32VW553/GD32VW55X_Wifi_BLE_SDK/GD32VW55x_RELEASE_V1.0.2/MSDK/lwip/libcoap-4.3.4/src\coap_debug.c ****   maxlog = COAP_LOG_WARN;
 3865              		.loc 1 1310 3
 3866              		.loc 1 1310 10 is_stmt 0
 3867 0000 B7070000 		lui	a5,%hi(.LANCHOR5)
 3868 0004 1147     		li	a4,4
 3869 0006 23A0E700 		sw	a4,%lo(.LANCHOR5)(a5)
1311:C:/Users/stapi/OneDrive/Desktop/GD32VW553/GD32VW55X_Wifi_BLE_SDK/GD32VW55x_RELEASE_V1.0.2/MSDK/lwip/libcoap-4.3.4/src\coap_debug.c ****   use_fprintf_for_show_pdu = 1;
 3870              		.loc 1 1311 3 is_stmt 1
 3871              		.loc 1 1311 28 is_stmt 0
 3872 000a B7070000 		lui	a5,%hi(.LANCHOR4)
 3873 000e 0547     		li	a4,1
 3874 0010 23A0E700 		sw	a4,%lo(.LANCHOR4)(a5)
1312:C:/Users/stapi/OneDrive/Desktop/GD32VW553/GD32VW55X_Wifi_BLE_SDK/GD32VW55x_RELEASE_V1.0.2/MSDK/lwip/libcoap-4.3.4/src\coap_debug.c ****   num_packet_loss_intervals = 0;
 3875              		.loc 1 1312 3 is_stmt 1
 3876              		.loc 1 1312 29 is_stmt 0
 3877 0014 B7070000 		lui	a5,%hi(.LANCHOR17)
 3878 0018 23A00700 		sw	zero,%lo(.LANCHOR17)(a5)
1313:C:/Users/stapi/OneDrive/Desktop/GD32VW553/GD32VW55X_Wifi_BLE_SDK/GD32VW55x_RELEASE_V1.0.2/MSDK/lwip/libcoap-4.3.4/src\coap_debug.c ****   packet_loss_level = 0;
 3879              		.loc 1 1313 3 is_stmt 1
 3880              		.loc 1 1313 21 is_stmt 0
 3881 001c B7070000 		lui	a5,%hi(.LANCHOR15)
 3882 0020 23A00700 		sw	zero,%lo(.LANCHOR15)(a5)
1314:C:/Users/stapi/OneDrive/Desktop/GD32VW553/GD32VW55X_Wifi_BLE_SDK/GD32VW55x_RELEASE_V1.0.2/MSDK/lwip/libcoap-4.3.4/src\coap_debug.c ****   send_packet_count = 0;
 3883              		.loc 1 1314 3 is_stmt 1
 3884              		.loc 1 1314 21 is_stmt 0
 3885 0024 B7070000 		lui	a5,%hi(.LANCHOR18)
 3886 0028 23A00700 		sw	zero,%lo(.LANCHOR18)(a5)
1315:C:/Users/stapi/OneDrive/Desktop/GD32VW553/GD32VW55X_Wifi_BLE_SDK/GD32VW55x_RELEASE_V1.0.2/MSDK/lwip/libcoap-4.3.4/src\coap_debug.c **** }
 3887              		.loc 1 1315 1
 3888 002c 8280     		ret
 3889              		.cfi_endproc
 3890              	.LFE54:
 3892              		.section	.rodata.str1.4,"aMS",@progbits,1
 3893              		.align	2
 3894              	.LC60:
 3895 0000 49662D4D 		.string	"If-Match"
 3895      61746368 
 3895      00
 3896 0009 000000   		.align	2
 3897              	.LC61:
 3898 000c 5572692D 		.string	"Uri-Host"
 3898      486F7374 
 3898      00
 3899 0015 000000   		.align	2
 3900              	.LC62:
 3901 0018 45546167 		.string	"ETag"
 3901      00
 3902 001d 000000   		.align	2
 3903              	.LC63:
 3904 0020 49662D4E 		.string	"If-None-Match"
 3904      6F6E652D 
 3904      4D617463 
 3904      6800
 3905 002e 0000     		.align	2
 3906              	.LC64:
 3907 0030 4F627365 		.string	"Observe"
 3907      72766500 
 3908              		.align	2
 3909              	.LC65:
 3910 0038 5572692D 		.string	"Uri-Port"
 3910      506F7274 
 3910      00
 3911 0041 000000   		.align	2
 3912              	.LC66:
 3913 0044 4C6F6361 		.string	"Location-Path"
 3913      74696F6E 
 3913      2D506174 
 3913      6800
 3914 0052 0000     		.align	2
 3915              	.LC67:
 3916 0054 4F73636F 		.string	"Oscore"
 3916      726500
 3917 005b 00       		.align	2
 3918              	.LC68:
 3919 005c 5572692D 		.string	"Uri-Path"
 3919      50617468 
 3919      00
 3920 0065 000000   		.align	2
 3921              	.LC69:
 3922 0068 436F6E74 		.string	"Content-Format"
 3922      656E742D 
 3922      466F726D 
 3922      617400
 3923 0077 00       		.align	2
 3924              	.LC70:
 3925 0078 4D61782D 		.string	"Max-Age"
 3925      41676500 
 3926              		.align	2
 3927              	.LC71:
 3928 0080 5572692D 		.string	"Uri-Query"
 3928      51756572 
 3928      7900
 3929 008a 0000     		.align	2
 3930              	.LC72:
 3931 008c 486F702D 		.string	"Hop-Limit"
 3931      4C696D69 
 3931      7400
 3932 0096 0000     		.align	2
 3933              	.LC73:
 3934 0098 41636365 		.string	"Accept"
 3934      707400
 3935 009f 00       		.align	2
 3936              	.LC74:
 3937 00a0 4C6F6361 		.string	"Location-Query"
 3937      74696F6E 
 3937      2D517565 
 3937      727900
 3938 00af 00       		.align	2
 3939              	.LC75:
 3940 00b0 426C6F63 		.string	"Block2"
 3940      6B3200
 3941 00b7 00       		.align	2
 3942              	.LC76:
 3943 00b8 426C6F63 		.string	"Block1"
 3943      6B3100
 3944 00bf 00       		.align	2
 3945              	.LC77:
 3946 00c0 53697A65 		.string	"Size2"
 3946      3200
 3947 00c6 0000     		.align	2
 3948              	.LC78:
 3949 00c8 50726F78 		.string	"Proxy-Uri"
 3949      792D5572 
 3949      6900
 3950 00d2 0000     		.align	2
 3951              	.LC79:
 3952 00d4 50726F78 		.string	"Proxy-Scheme"
 3952      792D5363 
 3952      68656D65 
 3952      00
 3953 00e1 000000   		.align	2
 3954              	.LC80:
 3955 00e4 53697A65 		.string	"Size1"
 3955      3100
 3956 00ea 0000     		.align	2
 3957              	.LC81:
 3958 00ec 4563686F 		.string	"Echo"
 3958      00
 3959 00f1 000000   		.align	2
 3960              	.LC82:
 3961 00f4 4E6F2D52 		.string	"No-Response"
 3961      6573706F 
 3961      6E736500 
 3962              		.align	2
 3963              	.LC83:
 3964 0100 52657175 		.string	"Request-Tag"
 3964      6573742D 
 3964      54616700 
 3965              		.align	2
 3966              	.LC84:
 3967 010c 512D426C 		.string	"Q-Block1"
 3967      6F636B31 
 3967      00
 3968 0115 000000   		.align	2
 3969              	.LC85:
 3970 0118 512D426C 		.string	"Q-Block2"
 3970      6F636B32 
 3970      00
 3971 0121 000000   		.align	2
 3972              	.LC86:
 3973 0124 416C7465 		.string	"Alternative-Address"
 3973      726E6174 
 3973      6976652D 
 3973      41646472 
 3973      65737300 
 3974              		.align	2
 3975              	.LC87:
 3976 0138 486F6C64 		.string	"Hold-Off"
 3976      2D4F6666 
 3976      00
 3977 0141 000000   		.align	2
 3978              	.LC88:
 3979 0144 4D61782D 		.string	"Max-Message-Size"
 3979      4D657373 
 3979      6167652D 
 3979      53697A65 
 3979      00
 3980 0155 000000   		.align	2
 3981              	.LC89:
 3982 0158 426C6F63 		.string	"Block-Wise-Transfer"
 3982      6B2D5769 
 3982      73652D54 
 3982      72616E73 
 3982      66657200 
 3983              		.align	2
 3984              	.LC90:
 3985 016c 45787465 		.string	"Extended-Token-Length"
 3985      6E646564 
 3985      2D546F6B 
 3985      656E2D4C 
 3985      656E6774 
 3986 0182 0000     		.align	2
 3987              	.LC91:
 3988 0184 74657874 		.string	"text/plain"
 3988      2F706C61 
 3988      696E00
 3989 018f 00       		.align	2
 3990              	.LC92:
 3991 0190 6170706C 		.string	"application/link-format"
 3991      69636174 
 3991      696F6E2F 
 3991      6C696E6B 
 3991      2D666F72 
 3992              		.align	2
 3993              	.LC93:
 3994 01a8 6170706C 		.string	"application/xml"
 3994      69636174 
 3994      696F6E2F 
 3994      786D6C00 
 3995              		.align	2
 3996              	.LC94:
 3997 01b8 6170706C 		.string	"application/octet-stream"
 3997      69636174 
 3997      696F6E2F 
 3997      6F637465 
 3997      742D7374 
 3998 01d1 000000   		.align	2
 3999              	.LC95:
 4000 01d4 6170706C 		.string	"application/rdf+xml"
 4000      69636174 
 4000      696F6E2F 
 4000      7264662B 
 4000      786D6C00 
 4001              		.align	2
 4002              	.LC96:
 4003 01e8 6170706C 		.string	"application/exi"
 4003      69636174 
 4003      696F6E2F 
 4003      65786900 
 4004              		.align	2
 4005              	.LC97:
 4006 01f8 6170706C 		.string	"application/json"
 4006      69636174 
 4006      696F6E2F 
 4006      6A736F6E 
 4006      00
 4007 0209 000000   		.align	2
 4008              	.LC98:
 4009 020c 6170706C 		.string	"application/cbor"
 4009      69636174 
 4009      696F6E2F 
 4009      63626F72 
 4009      00
 4010 021d 000000   		.align	2
 4011              	.LC99:
 4012 0220 6170706C 		.string	"application/cwt"
 4012      69636174 
 4012      696F6E2F 
 4012      63777400 
 4013              		.align	2
 4014              	.LC100:
 4015 0230 6170706C 		.string	"application/coap-group+json"
 4015      69636174 
 4015      696F6E2F 
 4015      636F6170 
 4015      2D67726F 
 4016              		.align	2
 4017              	.LC101:
 4018 024c 6170706C 		.string	"application/cose; cose-type=\"cose-sign\""
 4018      69636174 
 4018      696F6E2F 
 4018      636F7365 
 4018      3B20636F 
 4019              		.align	2
 4020              	.LC102:
 4021 0274 6170706C 		.string	"application/cose; cose-type=\"cose-sign1\""
 4021      69636174 
 4021      696F6E2F 
 4021      636F7365 
 4021      3B20636F 
 4022 029d 000000   		.align	2
 4023              	.LC103:
 4024 02a0 6170706C 		.string	"application/cose; cose-type=\"cose-encrypt\""
 4024      69636174 
 4024      696F6E2F 
 4024      636F7365 
 4024      3B20636F 
 4025 02cb 00       		.align	2
 4026              	.LC104:
 4027 02cc 6170706C 		.string	"application/cose; cose-type=\"cose-encrypt0\""
 4027      69636174 
 4027      696F6E2F 
 4027      636F7365 
 4027      3B20636F 
 4028              		.align	2
 4029              	.LC105:
 4030 02f8 6170706C 		.string	"application/cose; cose-type=\"cose-mac\""
 4030      69636174 
 4030      696F6E2F 
 4030      636F7365 
 4030      3B20636F 
 4031 031f 00       		.align	2
 4032              	.LC106:
 4033 0320 6170706C 		.string	"application/cose; cose-type=\"cose-mac0\""
 4033      69636174 
 4033      696F6E2F 
 4033      636F7365 
 4033      3B20636F 
 4034              		.align	2
 4035              	.LC107:
 4036 0348 6170706C 		.string	"application/cose-key"
 4036      69636174 
 4036      696F6E2F 
 4036      636F7365 
 4036      2D6B6579 
 4037 035d 000000   		.align	2
 4038              	.LC108:
 4039 0360 6170706C 		.string	"application/cose-key-set"
 4039      69636174 
 4039      696F6E2F 
 4039      636F7365 
 4039      2D6B6579 
 4040 0379 000000   		.align	2
 4041              	.LC109:
 4042 037c 6170706C 		.string	"application/senml+json"
 4042      69636174 
 4042      696F6E2F 
 4042      73656E6D 
 4042      6C2B6A73 
 4043 0393 00       		.align	2
 4044              	.LC110:
 4045 0394 6170706C 		.string	"application/sensml+json"
 4045      69636174 
 4045      696F6E2F 
 4045      73656E73 
 4045      6D6C2B6A 
 4046              		.align	2
 4047              	.LC111:
 4048 03ac 6170706C 		.string	"application/senml+cbor"
 4048      69636174 
 4048      696F6E2F 
 4048      73656E6D 
 4048      6C2B6362 
 4049 03c3 00       		.align	2
 4050              	.LC112:
 4051 03c4 6170706C 		.string	"application/sensml+cbor"
 4051      69636174 
 4051      696F6E2F 
 4051      73656E73 
 4051      6D6C2B63 
 4052              		.align	2
 4053              	.LC113:
 4054 03dc 6170706C 		.string	"application/senml-exi"
 4054      69636174 
 4054      696F6E2F 
 4054      73656E6D 
 4054      6C2D6578 
 4055 03f2 0000     		.align	2
 4056              	.LC114:
 4057 03f4 6170706C 		.string	"application/sensml-exi"
 4057      69636174 
 4057      696F6E2F 
 4057      73656E73 
 4057      6D6C2D65 
 4058 040b 00       		.align	2
 4059              	.LC115:
 4060 040c 6170706C 		.string	"application/senml+xml"
 4060      69636174 
 4060      696F6E2F 
 4060      73656E6D 
 4060      6C2B786D 
 4061 0422 0000     		.align	2
 4062              	.LC116:
 4063 0424 6170706C 		.string	"application/sensml+xml"
 4063      69636174 
 4063      696F6E2F 
 4063      73656E73 
 4063      6D6C2B78 
 4064 043b 00       		.align	2
 4065              	.LC117:
 4066 043c 6170706C 		.string	"application/dots+cbor"
 4066      69636174 
 4066      696F6E2F 
 4066      646F7473 
 4066      2B63626F 
 4067 0452 0000     		.align	2
 4068              	.LC118:
 4069 0454 6170706C 		.string	"application/ace+cbor"
 4069      69636174 
 4069      696F6E2F 
 4069      6163652B 
 4069      63626F72 
 4070 0469 000000   		.align	2
 4071              	.LC119:
 4072 046c 6170706C 		.string	"application/missing-blocks+cbor-seq"
 4072      69636174 
 4072      696F6E2F 
 4072      6D697373 
 4072      696E672D 
 4073              		.align	2
 4074              	.LC120:
 4075 0490 6170706C 		.string	"application/oscore"
 4075      69636174 
 4075      696F6E2F 
 4075      6F73636F 
 4075      726500
 4076 04a3 00       		.align	2
 4077              	.LC121:
 4078 04a4 6170706C 		.string	"application/dcaf+cbor"
 4078      69636174 
 4078      696F6E2F 
 4078      64636166 
 4078      2B63626F 
 4079 04ba 0000     		.align	2
 4080              	.LC122:
 4081 04bc 372E3030 		.string	"7.00"
 4081      00
 4082 04c1 000000   		.align	2
 4083              	.LC123:
 4084 04c4 43534D00 		.string	"CSM"
 4085              		.align	2
 4086              	.LC124:
 4087 04c8 50696E67 		.string	"Ping"
 4087      00
 4088 04cd 000000   		.align	2
 4089              	.LC125:
 4090 04d0 506F6E67 		.string	"Pong"
 4090      00
 4091 04d5 000000   		.align	2
 4092              	.LC126:
 4093 04d8 52656C65 		.string	"Release"
 4093      61736500 
 4094              		.align	2
 4095              	.LC127:
 4096 04e0 41626F72 		.string	"Abort"
 4096      7400
 4097 04e6 0000     		.align	2
 4098              	.LC128:
 4099 04e8 302E3030 		.string	"0.00"
 4099      00
 4100 04ed 000000   		.align	2
 4101              	.LC129:
 4102 04f0 47455400 		.string	"GET"
 4103              		.align	2
 4104              	.LC130:
 4105 04f4 504F5354 		.string	"POST"
 4105      00
 4106 04f9 000000   		.align	2
 4107              	.LC131:
 4108 04fc 50555400 		.string	"PUT"
 4109              		.align	2
 4110              	.LC132:
 4111 0500 44454C45 		.string	"DELETE"
 4111      544500
 4112 0507 00       		.align	2
 4113              	.LC133:
 4114 0508 46455443 		.string	"FETCH"
 4114      4800
 4115 050e 0000     		.align	2
 4116              	.LC134:
 4117 0510 50415443 		.string	"PATCH"
 4117      4800
 4118 0516 0000     		.align	2
 4119              	.LC135:
 4120 0518 69504154 		.string	"iPATCH"
 4120      434800
 4121 051f 00       		.align	2
 4122              	.LC136:
 4123 0520 434F4E00 		.string	"CON"
 4124              		.align	2
 4125              	.LC137:
 4126 0524 4E4F4E00 		.string	"NON"
 4127              		.align	2
 4128              	.LC138:
 4129 0528 41434B00 		.string	"ACK"
 4130              		.align	2
 4131              	.LC139:
 4132 052c 52535400 		.string	"RST"
 4133              		.align	2
 4134              	.LC140:
 4135 0530 3F3F3F00 		.string	"???"
 4136              		.align	2
 4137              	.LC141:
 4138 0534 454D5247 		.string	"EMRG"
 4138      00
 4139 0539 000000   		.align	2
 4140              	.LC142:
 4141 053c 414C5254 		.string	"ALRT"
 4141      00
 4142 0541 000000   		.align	2
 4143              	.LC143:
 4144 0544 43524954 		.string	"CRIT"
 4144      00
 4145 0549 000000   		.align	2
 4146              	.LC144:
 4147 054c 45525220 		.string	"ERR "
 4147      00
 4148 0551 000000   		.align	2
 4149              	.LC145:
 4150 0554 5741524E 		.string	"WARN"
 4150      00
 4151 0559 000000   		.align	2
 4152              	.LC146:
 4153 055c 4E4F5445 		.string	"NOTE"
 4153      00
 4154 0561 000000   		.align	2
 4155              	.LC147:
 4156 0564 494E464F 		.string	"INFO"
 4156      00
 4157 0569 000000   		.align	2
 4158              	.LC148:
 4159 056c 44454247 		.string	"DEBG"
 4159      00
 4160 0571 000000   		.align	2
 4161              	.LC149:
 4162 0574 4F534320 		.string	"OSC "
 4162      00
 4163 0579 000000   		.align	2
 4164              	.LC150:
 4165 057c 456D7267 		.string	"Emrg"
 4165      00
 4166 0581 000000   		.align	2
 4167              	.LC151:
 4168 0584 416C7274 		.string	"Alrt"
 4168      00
 4169 0589 000000   		.align	2
 4170              	.LC152:
 4171 058c 43726974 		.string	"Crit"
 4171      00
 4172 0591 000000   		.align	2
 4173              	.LC153:
 4174 0594 45727220 		.string	"Err "
 4174      00
 4175 0599 000000   		.align	2
 4176              	.LC154:
 4177 059c 5761726E 		.string	"Warn"
 4177      00
 4178 05a1 000000   		.align	2
 4179              	.LC155:
 4180 05a4 4E6F7465 		.string	"Note"
 4180      00
 4181 05a9 000000   		.align	2
 4182              	.LC156:
 4183 05ac 496E666F 		.string	"Info"
 4183      00
 4184 05b1 000000   		.align	2
 4185              	.LC157:
 4186 05b4 44656267 		.string	"Debg"
 4186      00
 4187              		.section	.bss.packet_loss_intervals,"aw",@nobits
 4188              		.align	2
 4189              		.set	.LANCHOR16,. + 0
 4192              	packet_loss_intervals:
 4193 0000 00000000 		.zero	80
 4193      00000000 
 4193      00000000 
 4193      00000000 
 4193      00000000 
 4194              		.section	.rodata.__func__.0,"a"
 4195              		.align	2
 4196              		.set	.LANCHOR0,. + 0
 4199              	__func__.0:
 4200 0000 7072696E 		.string	"print_readable"
 4200      745F7265 
 4200      61646162 
 4200      6C6500
 4201              		.section	.rodata.__func__.12,"a"
 4202              		.align	2
 4203              		.set	.LANCHOR6,. + 0
 4206              	__func__.12:
 4207 0000 636F6170 		.string	"coap_print_ip_addr"
 4207      5F707269 
 4207      6E745F69 
 4207      705F6164 
 4207      647200
 4208              		.section	.rodata.formats.7,"a"
 4209              		.align	2
 4210              		.set	.LANCHOR11,. + 0
 4213              	formats.7:
 4214 0000 00000000 		.word	0
 4215 0004 00000000 		.word	.LC91
 4216 0008 28000000 		.word	40
 4217 000c 00000000 		.word	.LC92
 4218 0010 29000000 		.word	41
 4219 0014 00000000 		.word	.LC93
 4220 0018 2A000000 		.word	42
 4221 001c 00000000 		.word	.LC94
 4222 0020 2B000000 		.word	43
 4223 0024 00000000 		.word	.LC95
 4224 0028 2F000000 		.word	47
 4225 002c 00000000 		.word	.LC96
 4226 0030 32000000 		.word	50
 4227 0034 00000000 		.word	.LC97
 4228 0038 3C000000 		.word	60
 4229 003c 00000000 		.word	.LC98
 4230 0040 3D000000 		.word	61
 4231 0044 00000000 		.word	.LC99
 4232 0048 00010000 		.word	256
 4233 004c 00000000 		.word	.LC100
 4234 0050 62000000 		.word	98
 4235 0054 00000000 		.word	.LC101
 4236 0058 12000000 		.word	18
 4237 005c 00000000 		.word	.LC102
 4238 0060 60000000 		.word	96
 4239 0064 00000000 		.word	.LC103
 4240 0068 10000000 		.word	16
 4241 006c 00000000 		.word	.LC104
 4242 0070 61000000 		.word	97
 4243 0074 00000000 		.word	.LC105
 4244 0078 11000000 		.word	17
 4245 007c 00000000 		.word	.LC106
 4246 0080 65000000 		.word	101
 4247 0084 00000000 		.word	.LC107
 4248 0088 66000000 		.word	102
 4249 008c 00000000 		.word	.LC108
 4250 0090 6E000000 		.word	110
 4251 0094 00000000 		.word	.LC109
 4252 0098 6F000000 		.word	111
 4253 009c 00000000 		.word	.LC110
 4254 00a0 70000000 		.word	112
 4255 00a4 00000000 		.word	.LC111
 4256 00a8 71000000 		.word	113
 4257 00ac 00000000 		.word	.LC112
 4258 00b0 72000000 		.word	114
 4259 00b4 00000000 		.word	.LC113
 4260 00b8 73000000 		.word	115
 4261 00bc 00000000 		.word	.LC114
 4262 00c0 36010000 		.word	310
 4263 00c4 00000000 		.word	.LC115
 4264 00c8 37010000 		.word	311
 4265 00cc 00000000 		.word	.LC116
 4266 00d0 0F010000 		.word	271
 4267 00d4 00000000 		.word	.LC117
 4268 00d8 13000000 		.word	19
 4269 00dc 00000000 		.word	.LC118
 4270 00e0 10010000 		.word	272
 4271 00e4 00000000 		.word	.LC119
 4272 00e8 11270000 		.word	10001
 4273 00ec 00000000 		.word	.LC120
 4274 00f0 4B000000 		.word	75
 4275 00f4 00000000 		.word	.LC121
 4276              		.section	.rodata.loglevels,"a"
 4277              		.align	2
 4278              		.set	.LANCHOR8,. + 0
 4281              	loglevels:
 4282 0000 00000000 		.word	.LC141
 4283 0004 00000000 		.word	.LC142
 4284 0008 00000000 		.word	.LC143
 4285 000c 00000000 		.word	.LC144
 4286 0010 00000000 		.word	.LC145
 4287 0014 00000000 		.word	.LC146
 4288 0018 00000000 		.word	.LC147
 4289 001c 00000000 		.word	.LC148
 4290 0020 00000000 		.word	.LC149
 4291 0024 00000000 		.word	.LC150
 4292 0028 00000000 		.word	.LC151
 4293 002c 00000000 		.word	.LC152
 4294 0030 00000000 		.word	.LC153
 4295 0034 00000000 		.word	.LC154
 4296 0038 00000000 		.word	.LC155
 4297 003c 00000000 		.word	.LC156
 4298 0040 00000000 		.word	.LC157
 4299              		.section	.rodata.methods.10,"a"
 4300              		.align	2
 4301              		.set	.LANCHOR2,. + 0
 4304              	methods.10:
 4305 0000 00000000 		.word	.LC128
 4306 0004 00000000 		.word	.LC129
 4307 0008 00000000 		.word	.LC130
 4308 000c 00000000 		.word	.LC131
 4309 0010 00000000 		.word	.LC132
 4310 0014 00000000 		.word	.LC133
 4311 0018 00000000 		.word	.LC134
 4312 001c 00000000 		.word	.LC135
 4313              		.section	.rodata.options.2,"a"
 4314              		.align	2
 4315              		.set	.LANCHOR14,. + 0
 4318              	options.2:
 4319 0000 0100     		.half	1
 4320 0002 0000     		.zero	2
 4321 0004 00000000 		.word	.LC60
 4322 0008 0300     		.half	3
 4323 000a 0000     		.zero	2
 4324 000c 00000000 		.word	.LC61
 4325 0010 0400     		.half	4
 4326 0012 0000     		.zero	2
 4327 0014 00000000 		.word	.LC62
 4328 0018 0500     		.half	5
 4329 001a 0000     		.zero	2
 4330 001c 00000000 		.word	.LC63
 4331 0020 0600     		.half	6
 4332 0022 0000     		.zero	2
 4333 0024 00000000 		.word	.LC64
 4334 0028 0700     		.half	7
 4335 002a 0000     		.zero	2
 4336 002c 00000000 		.word	.LC65
 4337 0030 0800     		.half	8
 4338 0032 0000     		.zero	2
 4339 0034 00000000 		.word	.LC66
 4340 0038 0900     		.half	9
 4341 003a 0000     		.zero	2
 4342 003c 00000000 		.word	.LC67
 4343 0040 0B00     		.half	11
 4344 0042 0000     		.zero	2
 4345 0044 00000000 		.word	.LC68
 4346 0048 0C00     		.half	12
 4347 004a 0000     		.zero	2
 4348 004c 00000000 		.word	.LC69
 4349 0050 0E00     		.half	14
 4350 0052 0000     		.zero	2
 4351 0054 00000000 		.word	.LC70
 4352 0058 0F00     		.half	15
 4353 005a 0000     		.zero	2
 4354 005c 00000000 		.word	.LC71
 4355 0060 1000     		.half	16
 4356 0062 0000     		.zero	2
 4357 0064 00000000 		.word	.LC72
 4358 0068 1100     		.half	17
 4359 006a 0000     		.zero	2
 4360 006c 00000000 		.word	.LC73
 4361 0070 1400     		.half	20
 4362 0072 0000     		.zero	2
 4363 0074 00000000 		.word	.LC74
 4364 0078 1700     		.half	23
 4365 007a 0000     		.zero	2
 4366 007c 00000000 		.word	.LC75
 4367 0080 1B00     		.half	27
 4368 0082 0000     		.zero	2
 4369 0084 00000000 		.word	.LC76
 4370 0088 1C00     		.half	28
 4371 008a 0000     		.zero	2
 4372 008c 00000000 		.word	.LC77
 4373 0090 2300     		.half	35
 4374 0092 0000     		.zero	2
 4375 0094 00000000 		.word	.LC78
 4376 0098 2700     		.half	39
 4377 009a 0000     		.zero	2
 4378 009c 00000000 		.word	.LC79
 4379 00a0 3C00     		.half	60
 4380 00a2 0000     		.zero	2
 4381 00a4 00000000 		.word	.LC80
 4382 00a8 FC00     		.half	252
 4383 00aa 0000     		.zero	2
 4384 00ac 00000000 		.word	.LC81
 4385 00b0 0201     		.half	258
 4386 00b2 0000     		.zero	2
 4387 00b4 00000000 		.word	.LC82
 4388 00b8 2401     		.half	292
 4389 00ba 0000     		.zero	2
 4390 00bc 00000000 		.word	.LC83
 4391 00c0 1300     		.half	19
 4392 00c2 0000     		.zero	2
 4393 00c4 00000000 		.word	.LC84
 4394 00c8 1F00     		.half	31
 4395 00ca 0000     		.zero	2
 4396 00cc 00000000 		.word	.LC85
 4397              		.section	.rodata.options_csm.6,"a"
 4398              		.align	2
 4399              		.set	.LANCHOR12,. + 0
 4402              	options_csm.6:
 4403 0000 0200     		.half	2
 4404 0002 0000     		.zero	2
 4405 0004 00000000 		.word	.LC88
 4406 0008 0400     		.half	4
 4407 000a 0000     		.zero	2
 4408 000c 00000000 		.word	.LC89
 4409 0010 0600     		.half	6
 4410 0012 0000     		.zero	2
 4411 0014 00000000 		.word	.LC90
 4412              		.section	.rodata.options_release.4,"a"
 4413              		.align	2
 4414              		.set	.LANCHOR13,. + 0
 4417              	options_release.4:
 4418 0000 0200     		.half	2
 4419 0002 0000     		.zero	2
 4420 0004 00000000 		.word	.LC86
 4421 0008 0400     		.half	4
 4422 000a 0000     		.zero	2
 4423 000c 00000000 		.word	.LC87
 4424              		.section	.rodata.signals.9,"a"
 4425              		.align	2
 4426              		.set	.LANCHOR3,. + 0
 4429              	signals.9:
 4430 0000 00000000 		.word	.LC122
 4431 0004 00000000 		.word	.LC123
 4432 0008 00000000 		.word	.LC124
 4433 000c 00000000 		.word	.LC125
 4434 0010 00000000 		.word	.LC126
 4435 0014 00000000 		.word	.LC127
 4436              		.section	.rodata.types.11,"a"
 4437              		.align	2
 4438              		.set	.LANCHOR10,. + 0
 4441              	types.11:
 4442 0000 00000000 		.word	.LC136
 4443 0004 00000000 		.word	.LC137
 4444 0008 00000000 		.word	.LC138
 4445 000c 00000000 		.word	.LC139
 4446 0010 00000000 		.word	.LC140
 4447              		.section	.sbss.buf.1,"aw",@nobits
 4448              		.align	2
 4449              		.set	.LANCHOR9,. + 0
 4452              	buf.1:
 4453 0000 00000000 		.zero	6
 4453      0000
 4454              		.section	.sbss.buf.8,"aw",@nobits
 4455              		.align	2
 4456              		.set	.LANCHOR1,. + 0
 4459              	buf.8:
 4460 0000 00000000 		.zero	5
 4460      00
 4461              		.section	.sbss.log_handler,"aw",@nobits
 4462              		.align	2
 4463              		.set	.LANCHOR7,. + 0
 4466              	log_handler:
 4467 0000 00000000 		.zero	4
 4468              		.section	.sbss.num_packet_loss_intervals,"aw",@nobits
 4469              		.align	2
 4470              		.set	.LANCHOR17,. + 0
 4473              	num_packet_loss_intervals:
 4474 0000 00000000 		.zero	4
 4475              		.section	.sbss.packet_loss_level,"aw",@nobits
 4476              		.align	2
 4477              		.set	.LANCHOR15,. + 0
 4480              	packet_loss_level:
 4481 0000 00000000 		.zero	4
 4482              		.section	.sbss.send_packet_count,"aw",@nobits
 4483              		.align	2
 4484              		.set	.LANCHOR18,. + 0
 4487              	send_packet_count:
 4488 0000 00000000 		.zero	4
 4489              		.section	.sdata.maxlog,"aw"
 4490              		.align	2
 4491              		.set	.LANCHOR5,. + 0
 4494              	maxlog:
 4495 0000 04000000 		.word	4
 4496              		.section	.sdata.use_fprintf_for_show_pdu,"aw"
 4497              		.align	2
 4498              		.set	.LANCHOR4,. + 0
 4501              	use_fprintf_for_show_pdu:
 4502 0000 01000000 		.word	1
 4503              		.text
 4504              	.Letext0:
 4505              		.file 4 "c:\\users\\stapi\\onedrive\\desktop\\gd32vw553\\embeddedbuilder_v1.4.7.26843\\tools\\nucl
 4506              		.file 5 "c:\\users\\stapi\\onedrive\\desktop\\gd32vw553\\embeddedbuilder_v1.4.7.26843\\tools\\nucl
 4507              		.file 6 "c:\\users\\stapi\\onedrive\\desktop\\gd32vw553\\embeddedbuilder_v1.4.7.26843\\tools\\nucl
 4508              		.file 7 "c:\\users\\stapi\\onedrive\\desktop\\gd32vw553\\embeddedbuilder_v1.4.7.26843\\tools\\nucl
 4509              		.file 8 "c:\\users\\stapi\\onedrive\\desktop\\gd32vw553\\embeddedbuilder_v1.4.7.26843\\tools\\nucl
 4510              		.file 9 "c:\\users\\stapi\\onedrive\\desktop\\gd32vw553\\embeddedbuilder_v1.4.7.26843\\tools\\nucl
 4511              		.file 10 "c:\\users\\stapi\\onedrive\\desktop\\gd32vw553\\embeddedbuilder_v1.4.7.26843\\tools\\nuc
 4512              		.file 11 "c:\\users\\stapi\\onedrive\\desktop\\gd32vw553\\embeddedbuilder_v1.4.7.26843\\tools\\nuc
 4513              		.file 12 "c:\\users\\stapi\\onedrive\\desktop\\gd32vw553\\embeddedbuilder_v1.4.7.26843\\tools\\nuc
 4514              		.file 13 "..\\..\\..\\..\\lwip\\lwip-2.1.2\\src\\include/lwip/arch.h"
 4515              		.file 14 "c:\\users\\stapi\\onedrive\\desktop\\gd32vw553\\embeddedbuilder_v1.4.7.26843\\tools\\nuc
 4516              		.file 15 "..\\..\\..\\..\\lwip\\libcoap-4.3.4\\include/coap3/coap_forward_decls.h"
 4517              		.file 16 "..\\..\\..\\..\\lwip\\libcoap-4.3.4\\include/coap3/coap_address.h"
 4518              		.file 17 "..\\..\\..\\..\\lwip\\libcoap-4.3.4\\include/coap3/coap_async_internal.h"
 4519              		.file 18 "..\\..\\..\\..\\lwip\\libcoap-4.3.4\\include/coap3/coap_block_internal.h"
 4520              		.file 19 "..\\..\\..\\..\\lwip\\libcoap-4.3.4\\include/coap3/coap_cache_internal.h"
 4521              		.file 20 "..\\..\\..\\..\\lwip\\libcoap-4.3.4\\include/coap3/coap_io_internal.h"
 4522              		.file 21 "..\\..\\..\\..\\lwip\\libcoap-4.3.4\\include/coap3/coap_net_internal.h"
 4523              		.file 22 "..\\..\\..\\..\\lwip\\libcoap-4.3.4\\include/coap3/coap_pdu_internal.h"
 4524              		.file 23 "..\\..\\..\\..\\lwip\\libcoap-4.3.4\\include/coap3/coap_resource_internal.h"
 4525              		.file 24 "..\\..\\..\\..\\lwip\\libcoap-4.3.4\\include/coap3/coap_session_internal.h"
 4526              		.file 25 "..\\..\\..\\..\\lwip\\libcoap-4.3.4\\include/coap3/coap_subscribe_internal.h"
 4527              		.file 26 "..\\..\\..\\..\\lwip\\libcoap-4.3.4\\include/coap3/coap_option.h"
 4528              		.file 27 "..\\..\\..\\..\\lwip\\libcoap-4.3.4\\include/coap3/coap_str.h"
 4529              		.file 28 "..\\..\\..\\..\\lwip\\lwip-2.1.2\\src\\include/lwip/pbuf.h"
 4530              		.file 29 "..\\..\\..\\..\\lwip\\libcoap-4.3.4\\include/coap3/coap_uri.h"
 4531              		.file 30 "..\\..\\..\\..\\lwip\\libcoap-4.3.4\\include/coap3/coap_pdu.h"
 4532              		.file 31 "..\\..\\..\\..\\lwip\\lwip-2.1.2\\src\\include/lwip/ip4_addr.h"
 4533              		.file 32 "..\\..\\..\\..\\lwip\\lwip-2.1.2\\src\\include/lwip/ip_addr.h"
 4534              		.file 33 "..\\..\\..\\..\\lwip\\lwip-2.1.2\\src\\include/lwip/netif.h"
 4535              		.file 34 "..\\..\\..\\..\\lwip\\lwip-2.1.2\\src\\include/lwip/sockets.h"
 4536              		.file 35 "..\\..\\..\\..\\lwip\\libcoap-4.3.4\\include/coap3/coap_io.h"
 4537              		.file 36 "..\\..\\..\\..\\lwip\\lwip-2.1.2\\src\\include/lwip/memp.h"
 4538              		.file 37 "..\\..\\..\\..\\lwip\\libcoap-4.3.4\\include/coap3/coap_dtls.h"
 4539              		.file 38 "..\\..\\..\\..\\lwip\\libcoap-4.3.4\\include/coap3/coap_event.h"
 4540              		.file 39 "..\\..\\..\\..\\lwip\\libcoap-4.3.4\\include/coap3/coap_session.h"
 4541              		.file 40 "..\\..\\..\\..\\lwip\\libcoap-4.3.4\\include/coap3/coap_debug.h"
 4542              		.file 41 "..\\..\\..\\..\\lwip\\libcoap-4.3.4\\include/coap3/coap_net.h"
 4543              		.file 42 "..\\..\\..\\..\\lwip\\libcoap-4.3.4\\include/coap3/coap_block.h"
 4544              		.file 43 "..\\..\\..\\..\\lwip\\libcoap-4.3.4\\include/coap3/coap_cache.h"
 4545              		.file 44 "..\\..\\..\\..\\lwip\\libcoap-4.3.4\\include/coap3/coap_resource.h"
 4546              		.file 45 "..\\..\\..\\..\\lwip\\libcoap-4.3.4\\include/coap3/coap_subscribe.h"
 4547              		.file 46 "..\\..\\..\\..\\lwip\\libcoap-4.3.4\\include/coap3/coap_uthash_internal.h"
 4548              		.file 47 "..\\..\\..\\..\\lwip\\libcoap-4.3.4\\include/coap3/coap_layers_internal.h"
 4549              		.file 48 "c:\\users\\stapi\\onedrive\\desktop\\gd32vw553\\embeddedbuilder_v1.4.7.26843\\tools\\nuc
 4550              		.file 49 "..\\..\\..\\..\\lwip\\lwip-2.1.2\\src\\include/lwip/sys.h"
 4551              		.file 50 "..\\..\\..\\..\\lwip\\libcoap-4.3.4\\include/coap3/coap_oscore.h"
 4552              		.file 51 "..\\..\\..\\..\\lwip\\libcoap-4.3.4\\include/coap3/coap_ws.h"
 4553              		.file 52 "c:\\users\\stapi\\onedrive\\desktop\\gd32vw553\\embeddedbuilder_v1.4.7.26843\\tools\\nuc
 4554              		.file 53 "..\\..\\..\\..\\lwip\\libcoap-4.3.4\\include/coap3/coap_encode.h"
 4555              		.file 54 "<built-in>"
 4556              		.file 55 "c:\\users\\stapi\\onedrive\\desktop\\gd32vw553\\embeddedbuilder_v1.4.7.26843\\tools\\nuc
DEFINED SYMBOLS
                            *ABS*:0000000000000000 coap_debug.c
C:\Users\stapi\AppData\Local\Temp\cc7q2Fhd.s:22     .text.print_readable:0000000000000000 print_readable
C:\Users\stapi\AppData\Local\Temp\cc7q2Fhd.s:26     .text.print_readable:0000000000000000 .L0 
C:\Users\stapi\AppData\Local\Temp\cc7q2Fhd.s:28     .text.print_readable:0000000000000000 .L0 
C:\Users\stapi\AppData\Local\Temp\cc7q2Fhd.s:29     .text.print_readable:0000000000000008 .L0 
C:\Users\stapi\AppData\Local\Temp\cc7q2Fhd.s:30     .text.print_readable:0000000000000008 .L0 
C:\Users\stapi\AppData\Local\Temp\cc7q2Fhd.s:31     .text.print_readable:0000000000000008 .L0 
C:\Users\stapi\AppData\Local\Temp\cc7q2Fhd.s:32     .text.print_readable:0000000000000008 .L0 
C:\Users\stapi\AppData\Local\Temp\cc7q2Fhd.s:33     .text.print_readable:0000000000000008 .L0 
C:\Users\stapi\AppData\Local\Temp\cc7q2Fhd.s:34     .text.print_readable:0000000000000008 .L0 
C:\Users\stapi\AppData\Local\Temp\cc7q2Fhd.s:35     .text.print_readable:0000000000000008 .L0 
C:\Users\stapi\AppData\Local\Temp\cc7q2Fhd.s:37     .text.print_readable:000000000000000a .L0 
C:\Users\stapi\AppData\Local\Temp\cc7q2Fhd.s:39     .text.print_readable:000000000000000a .L0 
C:\Users\stapi\AppData\Local\Temp\cc7q2Fhd.s:41     .text.print_readable:000000000000000c .L0 
C:\Users\stapi\AppData\Local\Temp\cc7q2Fhd.s:44     .text.print_readable:0000000000000010 .L0 
C:\Users\stapi\AppData\Local\Temp\cc7q2Fhd.s:46     .text.print_readable:0000000000000012 .L0 
C:\Users\stapi\AppData\Local\Temp\cc7q2Fhd.s:47     .text.print_readable:0000000000000012 .L0 
C:\Users\stapi\AppData\Local\Temp\cc7q2Fhd.s:49     .text.print_readable:0000000000000014 .L0 
C:\Users\stapi\AppData\Local\Temp\cc7q2Fhd.s:55     .text.print_readable:000000000000001c .L0 
C:\Users\stapi\AppData\Local\Temp\cc7q2Fhd.s:58     .text.print_readable:0000000000000020 .L0 
C:\Users\stapi\AppData\Local\Temp\cc7q2Fhd.s:61     .text.print_readable:0000000000000028 .L0 
C:\Users\stapi\AppData\Local\Temp\cc7q2Fhd.s:62     .text.print_readable:0000000000000028 .L0 
C:\Users\stapi\AppData\Local\Temp\cc7q2Fhd.s:64     .text.print_readable:000000000000002a .L0 
C:\Users\stapi\AppData\Local\Temp\cc7q2Fhd.s:66     .text.print_readable:000000000000002e .L0 
C:\Users\stapi\AppData\Local\Temp\cc7q2Fhd.s:77     .text.print_readable:0000000000000052 .L0 
C:\Users\stapi\AppData\Local\Temp\cc7q2Fhd.s:78     .text.print_readable:0000000000000052 .L0 
C:\Users\stapi\AppData\Local\Temp\cc7q2Fhd.s:80     .text.print_readable:0000000000000056 .L0 
C:\Users\stapi\AppData\Local\Temp\cc7q2Fhd.s:83     .text.print_readable:000000000000005e .L0 
C:\Users\stapi\AppData\Local\Temp\cc7q2Fhd.s:85     .text.print_readable:0000000000000062 .L0 
C:\Users\stapi\AppData\Local\Temp\cc7q2Fhd.s:88     .text.print_readable:0000000000000064 .L0 
C:\Users\stapi\AppData\Local\Temp\cc7q2Fhd.s:90     .text.print_readable:0000000000000068 .L0 
C:\Users\stapi\AppData\Local\Temp\cc7q2Fhd.s:94     .text.print_readable:000000000000006c .L0 
C:\Users\stapi\AppData\Local\Temp\cc7q2Fhd.s:98     .text.print_readable:0000000000000070 .L0 
C:\Users\stapi\AppData\Local\Temp\cc7q2Fhd.s:99     .text.print_readable:0000000000000070 .L0 
C:\Users\stapi\AppData\Local\Temp\cc7q2Fhd.s:101    .text.print_readable:0000000000000074 .L0 
C:\Users\stapi\AppData\Local\Temp\cc7q2Fhd.s:102    .text.print_readable:0000000000000074 .L0 
C:\Users\stapi\AppData\Local\Temp\cc7q2Fhd.s:106    .text.print_readable:0000000000000076 .L0 
C:\Users\stapi\AppData\Local\Temp\cc7q2Fhd.s:108    .text.print_readable:000000000000007a .L0 
C:\Users\stapi\AppData\Local\Temp\cc7q2Fhd.s:109    .text.print_readable:000000000000007a .L0 
C:\Users\stapi\AppData\Local\Temp\cc7q2Fhd.s:111    .text.print_readable:0000000000000082 .L0 
C:\Users\stapi\AppData\Local\Temp\cc7q2Fhd.s:112    .text.print_readable:0000000000000082 .L0 
C:\Users\stapi\AppData\Local\Temp\cc7q2Fhd.s:113    .text.print_readable:0000000000000082 .L0 
C:\Users\stapi\AppData\Local\Temp\cc7q2Fhd.s:114    .text.print_readable:0000000000000082 .L0 
C:\Users\stapi\AppData\Local\Temp\cc7q2Fhd.s:115    .text.print_readable:0000000000000082 .L0 
C:\Users\stapi\AppData\Local\Temp\cc7q2Fhd.s:116    .text.print_readable:0000000000000082 .L0 
C:\Users\stapi\AppData\Local\Temp\cc7q2Fhd.s:117    .text.print_readable:0000000000000082 .L0 
C:\Users\stapi\AppData\Local\Temp\cc7q2Fhd.s:120    .text.print_readable:0000000000000082 .L0 
C:\Users\stapi\AppData\Local\Temp\cc7q2Fhd.s:122    .text.print_readable:0000000000000082 .L0 
C:\Users\stapi\AppData\Local\Temp\cc7q2Fhd.s:123    .text.print_readable:0000000000000082 .L0 
C:\Users\stapi\AppData\Local\Temp\cc7q2Fhd.s:125    .text.print_readable:0000000000000086 .L0 
C:\Users\stapi\AppData\Local\Temp\cc7q2Fhd.s:130    .text.print_readable:0000000000000096 .L0 
C:\Users\stapi\AppData\Local\Temp\cc7q2Fhd.s:132    .text.print_readable:0000000000000098 .L0 
C:\Users\stapi\AppData\Local\Temp\cc7q2Fhd.s:133    .text.print_readable:0000000000000098 .L0 
C:\Users\stapi\AppData\Local\Temp\cc7q2Fhd.s:135    .text.print_readable:000000000000009c .L0 
C:\Users\stapi\AppData\Local\Temp\cc7q2Fhd.s:138    .text.print_readable:00000000000000a0 .L0 
C:\Users\stapi\AppData\Local\Temp\cc7q2Fhd.s:139    .text.print_readable:00000000000000a0 .L0 
C:\Users\stapi\AppData\Local\Temp\cc7q2Fhd.s:142    .text.print_readable:00000000000000a4 .L0 
C:\Users\stapi\AppData\Local\Temp\cc7q2Fhd.s:143    .text.print_readable:00000000000000a4 .L0 
C:\Users\stapi\AppData\Local\Temp\cc7q2Fhd.s:147    .text.print_readable:00000000000000a6 .L0 
C:\Users\stapi\AppData\Local\Temp\cc7q2Fhd.s:150    .text.print_readable:00000000000000a8 .L0 
C:\Users\stapi\AppData\Local\Temp\cc7q2Fhd.s:151    .text.print_readable:00000000000000a8 .L0 
C:\Users\stapi\AppData\Local\Temp\cc7q2Fhd.s:156    .text.print_readable:00000000000000ac .L0 
C:\Users\stapi\AppData\Local\Temp\cc7q2Fhd.s:157    .text.print_readable:00000000000000ac .L0 
C:\Users\stapi\AppData\Local\Temp\cc7q2Fhd.s:159    .text.print_readable:00000000000000b0 .L0 
C:\Users\stapi\AppData\Local\Temp\cc7q2Fhd.s:162    .text.print_readable:00000000000000b4 .L0 
C:\Users\stapi\AppData\Local\Temp\cc7q2Fhd.s:163    .text.print_readable:00000000000000b4 .L0 
C:\Users\stapi\AppData\Local\Temp\cc7q2Fhd.s:166    .text.print_readable:00000000000000b8 .L0 
C:\Users\stapi\AppData\Local\Temp\cc7q2Fhd.s:167    .text.print_readable:00000000000000b8 .L0 
C:\Users\stapi\AppData\Local\Temp\cc7q2Fhd.s:170    .text.print_readable:00000000000000bc .L0 
C:\Users\stapi\AppData\Local\Temp\cc7q2Fhd.s:171    .text.print_readable:00000000000000bc .L0 
C:\Users\stapi\AppData\Local\Temp\cc7q2Fhd.s:173    .text.print_readable:00000000000000c0 .L0 
C:\Users\stapi\AppData\Local\Temp\cc7q2Fhd.s:175    .text.print_readable:00000000000000c2 .L0 
C:\Users\stapi\AppData\Local\Temp\cc7q2Fhd.s:178    .text.print_readable:00000000000000c4 .L0 
C:\Users\stapi\AppData\Local\Temp\cc7q2Fhd.s:180    .text.print_readable:00000000000000c6 .L0 
C:\Users\stapi\AppData\Local\Temp\cc7q2Fhd.s:182    .text.print_readable:00000000000000c8 .L0 
C:\Users\stapi\AppData\Local\Temp\cc7q2Fhd.s:186    .text.print_readable:00000000000000d0 .L0 
C:\Users\stapi\AppData\Local\Temp\cc7q2Fhd.s:187    .text.print_readable:00000000000000d0 .L0 
C:\Users\stapi\AppData\Local\Temp\cc7q2Fhd.s:190    .text.print_readable:00000000000000d6 .L0 
C:\Users\stapi\AppData\Local\Temp\cc7q2Fhd.s:192    .text.print_readable:00000000000000d8 .L0 
C:\Users\stapi\AppData\Local\Temp\cc7q2Fhd.s:196    .text.print_readable:00000000000000e0 .L0 
C:\Users\stapi\AppData\Local\Temp\cc7q2Fhd.s:200    .text.print_readable:00000000000000e2 .L0 
C:\Users\stapi\AppData\Local\Temp\cc7q2Fhd.s:201    .text.print_readable:00000000000000e2 .L0 
C:\Users\stapi\AppData\Local\Temp\cc7q2Fhd.s:203    .text.print_readable:00000000000000e8 .L0 
C:\Users\stapi\AppData\Local\Temp\cc7q2Fhd.s:213    .text.msg_code_string:0000000000000000 msg_code_string
C:\Users\stapi\AppData\Local\Temp\cc7q2Fhd.s:216    .text.msg_code_string:0000000000000000 .L0 
C:\Users\stapi\AppData\Local\Temp\cc7q2Fhd.s:218    .text.msg_code_string:0000000000000000 .L0 
C:\Users\stapi\AppData\Local\Temp\cc7q2Fhd.s:219    .text.msg_code_string:0000000000000000 .L0 
C:\Users\stapi\AppData\Local\Temp\cc7q2Fhd.s:220    .text.msg_code_string:0000000000000000 .L0 
C:\Users\stapi\AppData\Local\Temp\cc7q2Fhd.s:221    .text.msg_code_string:0000000000000000 .L0 
C:\Users\stapi\AppData\Local\Temp\cc7q2Fhd.s:222    .text.msg_code_string:0000000000000000 .L0 
C:\Users\stapi\AppData\Local\Temp\cc7q2Fhd.s:223    .text.msg_code_string:0000000000000000 .L0 
C:\Users\stapi\AppData\Local\Temp\cc7q2Fhd.s:226    .text.msg_code_string:0000000000000006 .L0 
C:\Users\stapi\AppData\Local\Temp\cc7q2Fhd.s:227    .text.msg_code_string:0000000000000006 .L0 
C:\Users\stapi\AppData\Local\Temp\cc7q2Fhd.s:236    .text.msg_code_string:0000000000000016 .L0 
C:\Users\stapi\AppData\Local\Temp\cc7q2Fhd.s:237    .text.msg_code_string:0000000000000016 .L0 
C:\Users\stapi\AppData\Local\Temp\cc7q2Fhd.s:239    .text.msg_code_string:000000000000001a .L0 
C:\Users\stapi\AppData\Local\Temp\cc7q2Fhd.s:243    .text.msg_code_string:0000000000000024 .L0 
C:\Users\stapi\AppData\Local\Temp\cc7q2Fhd.s:244    .text.msg_code_string:0000000000000024 .L0 
C:\Users\stapi\AppData\Local\Temp\cc7q2Fhd.s:250    .text.msg_code_string:0000000000000032 .L0 
C:\Users\stapi\AppData\Local\Temp\cc7q2Fhd.s:254    .text.msg_code_string:0000000000000034 .L0 
C:\Users\stapi\AppData\Local\Temp\cc7q2Fhd.s:255    .text.msg_code_string:000000000000003c .L0 
C:\Users\stapi\AppData\Local\Temp\cc7q2Fhd.s:256    .text.msg_code_string:000000000000003c .L0 
C:\Users\stapi\AppData\Local\Temp\cc7q2Fhd.s:257    .text.msg_code_string:000000000000003c .L0 
C:\Users\stapi\AppData\Local\Temp\cc7q2Fhd.s:262    .text.msg_code_string:000000000000003c .L0 
C:\Users\stapi\AppData\Local\Temp\cc7q2Fhd.s:274    .text.msg_code_string:0000000000000060 .L0 
C:\Users\stapi\AppData\Local\Temp\cc7q2Fhd.s:275    .text.msg_code_string:0000000000000060 .L0 
C:\Users\stapi\AppData\Local\Temp\cc7q2Fhd.s:279    .text.msg_code_string:0000000000000064 .L0 
C:\Users\stapi\AppData\Local\Temp\cc7q2Fhd.s:280    .text.msg_code_string:000000000000006c .L0 
C:\Users\stapi\AppData\Local\Temp\cc7q2Fhd.s:281    .text.msg_code_string:000000000000006c .L0 
C:\Users\stapi\AppData\Local\Temp\cc7q2Fhd.s:282    .text.msg_code_string:000000000000006c .L0 
C:\Users\stapi\AppData\Local\Temp\cc7q2Fhd.s:283    .text.msg_code_string:000000000000006c .L0 
C:\Users\stapi\AppData\Local\Temp\cc7q2Fhd.s:294    .text.coap_package_name:0000000000000000 coap_package_name
C:\Users\stapi\AppData\Local\Temp\cc7q2Fhd.s:297    .text.coap_package_name:0000000000000000 .L0 
C:\Users\stapi\AppData\Local\Temp\cc7q2Fhd.s:298    .text.coap_package_name:0000000000000000 .L0 
C:\Users\stapi\AppData\Local\Temp\cc7q2Fhd.s:299    .text.coap_package_name:0000000000000000 .L0 
C:\Users\stapi\AppData\Local\Temp\cc7q2Fhd.s:300    .text.coap_package_name:0000000000000000 .L0 
C:\Users\stapi\AppData\Local\Temp\cc7q2Fhd.s:302    .text.coap_package_name:0000000000000004 .L0 
C:\Users\stapi\AppData\Local\Temp\cc7q2Fhd.s:304    .text.coap_package_name:000000000000000a .L0 
C:\Users\stapi\AppData\Local\Temp\cc7q2Fhd.s:315    .text.coap_package_version:0000000000000000 coap_package_version
C:\Users\stapi\AppData\Local\Temp\cc7q2Fhd.s:318    .text.coap_package_version:0000000000000000 .L0 
C:\Users\stapi\AppData\Local\Temp\cc7q2Fhd.s:319    .text.coap_package_version:0000000000000000 .L0 
C:\Users\stapi\AppData\Local\Temp\cc7q2Fhd.s:320    .text.coap_package_version:0000000000000000 .L0 
C:\Users\stapi\AppData\Local\Temp\cc7q2Fhd.s:321    .text.coap_package_version:0000000000000000 .L0 
C:\Users\stapi\AppData\Local\Temp\cc7q2Fhd.s:323    .text.coap_package_version:0000000000000004 .L0 
C:\Users\stapi\AppData\Local\Temp\cc7q2Fhd.s:325    .text.coap_package_version:000000000000000a .L0 
C:\Users\stapi\AppData\Local\Temp\cc7q2Fhd.s:332    .text.coap_package_build:0000000000000000 coap_package_build
C:\Users\stapi\AppData\Local\Temp\cc7q2Fhd.s:334    .text.coap_package_build:0000000000000000 .L0 
C:\Users\stapi\AppData\Local\Temp\cc7q2Fhd.s:338    .text.coap_package_build:000000000000000a .L0 
C:\Users\stapi\AppData\Local\Temp\cc7q2Fhd.s:345    .text.coap_set_show_pdu_output:0000000000000000 coap_set_show_pdu_output
C:\Users\stapi\AppData\Local\Temp\cc7q2Fhd.s:348    .text.coap_set_show_pdu_output:0000000000000000 .L0 
C:\Users\stapi\AppData\Local\Temp\cc7q2Fhd.s:350    .text.coap_set_show_pdu_output:0000000000000000 .L0 
C:\Users\stapi\AppData\Local\Temp\cc7q2Fhd.s:351    .text.coap_set_show_pdu_output:0000000000000000 .L0 
C:\Users\stapi\AppData\Local\Temp\cc7q2Fhd.s:352    .text.coap_set_show_pdu_output:0000000000000000 .L0 
C:\Users\stapi\AppData\Local\Temp\cc7q2Fhd.s:355    .text.coap_set_show_pdu_output:0000000000000008 .L0 
C:\Users\stapi\AppData\Local\Temp\cc7q2Fhd.s:356    .text.coap_set_show_pdu_output:000000000000000a .L0 
C:\Users\stapi\AppData\Local\Temp\cc7q2Fhd.s:363    .text.coap_get_log_level:0000000000000000 coap_get_log_level
C:\Users\stapi\AppData\Local\Temp\cc7q2Fhd.s:366    .text.coap_get_log_level:0000000000000000 .L0 
C:\Users\stapi\AppData\Local\Temp\cc7q2Fhd.s:367    .text.coap_get_log_level:0000000000000000 .L0 
C:\Users\stapi\AppData\Local\Temp\cc7q2Fhd.s:368    .text.coap_get_log_level:0000000000000000 .L0 
C:\Users\stapi\AppData\Local\Temp\cc7q2Fhd.s:369    .text.coap_get_log_level:0000000000000000 .L0 
C:\Users\stapi\AppData\Local\Temp\cc7q2Fhd.s:372    .text.coap_get_log_level:000000000000000a .L0 
C:\Users\stapi\AppData\Local\Temp\cc7q2Fhd.s:379    .text.coap_set_log_level:0000000000000000 coap_set_log_level
C:\Users\stapi\AppData\Local\Temp\cc7q2Fhd.s:382    .text.coap_set_log_level:0000000000000000 .L0 
C:\Users\stapi\AppData\Local\Temp\cc7q2Fhd.s:384    .text.coap_set_log_level:0000000000000000 .L0 
C:\Users\stapi\AppData\Local\Temp\cc7q2Fhd.s:385    .text.coap_set_log_level:0000000000000000 .L0 
C:\Users\stapi\AppData\Local\Temp\cc7q2Fhd.s:386    .text.coap_set_log_level:0000000000000000 .L0 
C:\Users\stapi\AppData\Local\Temp\cc7q2Fhd.s:387    .text.coap_set_log_level:0000000000000000 .L0 
C:\Users\stapi\AppData\Local\Temp\cc7q2Fhd.s:393    .text.coap_set_log_level:000000000000000e .L0 
C:\Users\stapi\AppData\Local\Temp\cc7q2Fhd.s:394    .text.coap_set_log_level:0000000000000010 .L0 
C:\Users\stapi\AppData\Local\Temp\cc7q2Fhd.s:408    .text.coap_print_ip_addr:0000000000000000 coap_print_ip_addr
C:\Users\stapi\AppData\Local\Temp\cc7q2Fhd.s:411    .text.coap_print_ip_addr:0000000000000000 .L0 
C:\Users\stapi\AppData\Local\Temp\cc7q2Fhd.s:413    .text.coap_print_ip_addr:0000000000000000 .L0 
C:\Users\stapi\AppData\Local\Temp\cc7q2Fhd.s:414    .text.coap_print_ip_addr:0000000000000008 .L0 
C:\Users\stapi\AppData\Local\Temp\cc7q2Fhd.s:415    .text.coap_print_ip_addr:0000000000000008 .L0 
C:\Users\stapi\AppData\Local\Temp\cc7q2Fhd.s:416    .text.coap_print_ip_addr:0000000000000008 .L0 
C:\Users\stapi\AppData\Local\Temp\cc7q2Fhd.s:418    .text.coap_print_ip_addr:0000000000000008 .L0 
C:\Users\stapi\AppData\Local\Temp\cc7q2Fhd.s:420    .text.coap_print_ip_addr:000000000000000a .L0 
C:\Users\stapi\AppData\Local\Temp\cc7q2Fhd.s:431    .text.coap_print_ip_addr:000000000000001e .L0 
C:\Users\stapi\AppData\Local\Temp\cc7q2Fhd.s:440    .text.coap_print_ip_addr:000000000000002e .L0 
C:\Users\stapi\AppData\Local\Temp\cc7q2Fhd.s:457    .text.coap_print_ip_addr:0000000000000046 .L0 
C:\Users\stapi\AppData\Local\Temp\cc7q2Fhd.s:459    .text.coap_print_ip_addr:000000000000004a .L0 
C:\Users\stapi\AppData\Local\Temp\cc7q2Fhd.s:462    .text.coap_print_ip_addr:000000000000004e .L0 
C:\Users\stapi\AppData\Local\Temp\cc7q2Fhd.s:463    .text.coap_print_ip_addr:000000000000004e .L0 
C:\Users\stapi\AppData\Local\Temp\cc7q2Fhd.s:464    .text.coap_print_ip_addr:000000000000004e .L0 
C:\Users\stapi\AppData\Local\Temp\cc7q2Fhd.s:465    .text.coap_print_ip_addr:000000000000004e .L0 
C:\Users\stapi\AppData\Local\Temp\cc7q2Fhd.s:468    .text.coap_print_ip_addr:0000000000000052 .L0 
C:\Users\stapi\AppData\Local\Temp\cc7q2Fhd.s:469    .text.coap_print_ip_addr:0000000000000052 .L0 
C:\Users\stapi\AppData\Local\Temp\cc7q2Fhd.s:475    .text.coap_print_ip_addr:000000000000005e .L0 
C:\Users\stapi\AppData\Local\Temp\cc7q2Fhd.s:480    .text.coap_print_ip_addr:000000000000006a .L0 
C:\Users\stapi\AppData\Local\Temp\cc7q2Fhd.s:482    .text.coap_print_ip_addr:000000000000006a .L0 
C:\Users\stapi\AppData\Local\Temp\cc7q2Fhd.s:483    .text.coap_print_ip_addr:000000000000006a .L0 
C:\Users\stapi\AppData\Local\Temp\cc7q2Fhd.s:485    .text.coap_print_ip_addr:0000000000000074 .L0 
C:\Users\stapi\AppData\Local\Temp\cc7q2Fhd.s:486    .text.coap_print_ip_addr:0000000000000074 .L0 
C:\Users\stapi\AppData\Local\Temp\cc7q2Fhd.s:487    .text.coap_print_ip_addr:0000000000000074 .L0 
C:\Users\stapi\AppData\Local\Temp\cc7q2Fhd.s:488    .text.coap_print_ip_addr:0000000000000074 .L0 
C:\Users\stapi\AppData\Local\Temp\cc7q2Fhd.s:499    .text.coap_print_addr:0000000000000000 coap_print_addr
C:\Users\stapi\AppData\Local\Temp\cc7q2Fhd.s:502    .text.coap_print_addr:0000000000000000 .L0 
C:\Users\stapi\AppData\Local\Temp\cc7q2Fhd.s:504    .text.coap_print_addr:0000000000000000 .L0 
C:\Users\stapi\AppData\Local\Temp\cc7q2Fhd.s:505    .text.coap_print_addr:0000000000000008 .L0 
C:\Users\stapi\AppData\Local\Temp\cc7q2Fhd.s:506    .text.coap_print_addr:0000000000000008 .L0 
C:\Users\stapi\AppData\Local\Temp\cc7q2Fhd.s:507    .text.coap_print_addr:0000000000000008 .L0 
C:\Users\stapi\AppData\Local\Temp\cc7q2Fhd.s:508    .text.coap_print_addr:0000000000000008 .L0 
C:\Users\stapi\AppData\Local\Temp\cc7q2Fhd.s:509    .text.coap_print_addr:0000000000000008 .L0 
C:\Users\stapi\AppData\Local\Temp\cc7q2Fhd.s:511    .text.coap_print_addr:0000000000000008 .L0 
C:\Users\stapi\AppData\Local\Temp\cc7q2Fhd.s:512    .text.coap_print_addr:0000000000000008 .L0 
C:\Users\stapi\AppData\Local\Temp\cc7q2Fhd.s:513    .text.coap_print_addr:0000000000000008 .L0 
C:\Users\stapi\AppData\Local\Temp\cc7q2Fhd.s:514    .text.coap_print_addr:000000000000000a .L0 
C:\Users\stapi\AppData\Local\Temp\cc7q2Fhd.s:516    .text.coap_print_addr:000000000000000a .L0 
C:\Users\stapi\AppData\Local\Temp\cc7q2Fhd.s:519    .text.coap_print_addr:000000000000000e .L0 
C:\Users\stapi\AppData\Local\Temp\cc7q2Fhd.s:524    .text.coap_print_addr:0000000000000014 .L0 
C:\Users\stapi\AppData\Local\Temp\cc7q2Fhd.s:526    .text.coap_print_addr:0000000000000016 .L0 
C:\Users\stapi\AppData\Local\Temp\cc7q2Fhd.s:537    .text.coap_print_addr:0000000000000038 .L0 
C:\Users\stapi\AppData\Local\Temp\cc7q2Fhd.s:538    .text.coap_print_addr:0000000000000038 .L0 
C:\Users\stapi\AppData\Local\Temp\cc7q2Fhd.s:542    .text.coap_print_addr:0000000000000042 .L0 
C:\Users\stapi\AppData\Local\Temp\cc7q2Fhd.s:543    .text.coap_print_addr:0000000000000044 .L0 
C:\Users\stapi\AppData\Local\Temp\cc7q2Fhd.s:545    .text.coap_print_addr:000000000000004c .L0 
C:\Users\stapi\AppData\Local\Temp\cc7q2Fhd.s:546    .text.coap_print_addr:000000000000004c .L0 
C:\Users\stapi\AppData\Local\Temp\cc7q2Fhd.s:547    .text.coap_print_addr:000000000000004c .L0 
C:\Users\stapi\AppData\Local\Temp\cc7q2Fhd.s:548    .text.coap_print_addr:000000000000004c .L0 
C:\Users\stapi\AppData\Local\Temp\cc7q2Fhd.s:549    .text.coap_print_addr:000000000000004c .L0 
C:\Users\stapi\AppData\Local\Temp\cc7q2Fhd.s:550    .text.coap_print_addr:000000000000004c .L0 
C:\Users\stapi\AppData\Local\Temp\cc7q2Fhd.s:585    .text.coap_string_tls_version:0000000000000000 coap_string_tls_version
C:\Users\stapi\AppData\Local\Temp\cc7q2Fhd.s:588    .text.coap_string_tls_version:0000000000000000 .L0 
C:\Users\stapi\AppData\Local\Temp\cc7q2Fhd.s:590    .text.coap_string_tls_version:0000000000000000 .L0 
C:\Users\stapi\AppData\Local\Temp\cc7q2Fhd.s:591    .text.coap_string_tls_version:0000000000000008 .L0 
C:\Users\stapi\AppData\Local\Temp\cc7q2Fhd.s:592    .text.coap_string_tls_version:0000000000000008 .L0 
C:\Users\stapi\AppData\Local\Temp\cc7q2Fhd.s:593    .text.coap_string_tls_version:0000000000000008 .L0 
C:\Users\stapi\AppData\Local\Temp\cc7q2Fhd.s:594    .text.coap_string_tls_version:0000000000000008 .L0 
C:\Users\stapi\AppData\Local\Temp\cc7q2Fhd.s:595    .text.coap_string_tls_version:0000000000000008 .L0 
C:\Users\stapi\AppData\Local\Temp\cc7q2Fhd.s:597    .text.coap_string_tls_version:0000000000000008 .L0 
C:\Users\stapi\AppData\Local\Temp\cc7q2Fhd.s:598    .text.coap_string_tls_version:0000000000000008 .L0 
C:\Users\stapi\AppData\Local\Temp\cc7q2Fhd.s:599    .text.coap_string_tls_version:000000000000000a .L0 
C:\Users\stapi\AppData\Local\Temp\cc7q2Fhd.s:601    .text.coap_string_tls_version:000000000000000a .L0 
C:\Users\stapi\AppData\Local\Temp\cc7q2Fhd.s:604    .text.coap_string_tls_version:000000000000000e .L0 
C:\Users\stapi\AppData\Local\Temp\cc7q2Fhd.s:607    .text.coap_string_tls_version:0000000000000016 .L0 
C:\Users\stapi\AppData\Local\Temp\cc7q2Fhd.s:608    .text.coap_string_tls_version:0000000000000016 .L0 
C:\Users\stapi\AppData\Local\Temp\cc7q2Fhd.s:609    .text.coap_string_tls_version:0000000000000016 .L0 
C:\Users\stapi\AppData\Local\Temp\cc7q2Fhd.s:610    .text.coap_string_tls_version:0000000000000016 .L0 
C:\Users\stapi\AppData\Local\Temp\cc7q2Fhd.s:611    .text.coap_string_tls_version:0000000000000016 .L0 
C:\Users\stapi\AppData\Local\Temp\cc7q2Fhd.s:612    .text.coap_string_tls_version:0000000000000016 .L0 
C:\Users\stapi\AppData\Local\Temp\cc7q2Fhd.s:633    .text.coap_string_tls_version:0000000000000030 .L0 
C:\Users\stapi\AppData\Local\Temp\cc7q2Fhd.s:642    .text.coap_string_tls_version:0000000000000044 .L0 
C:\Users\stapi\AppData\Local\Temp\cc7q2Fhd.s:643    .text.coap_string_tls_version:0000000000000044 .L0 
C:\Users\stapi\AppData\Local\Temp\cc7q2Fhd.s:644    .text.coap_string_tls_version:0000000000000044 .L0 
C:\Users\stapi\AppData\Local\Temp\cc7q2Fhd.s:646    .text.coap_string_tls_version:0000000000000048 .L0 
C:\Users\stapi\AppData\Local\Temp\cc7q2Fhd.s:647    .text.coap_string_tls_version:0000000000000048 .L0 
C:\Users\stapi\AppData\Local\Temp\cc7q2Fhd.s:649    .text.coap_string_tls_version:0000000000000050 .L0 
C:\Users\stapi\AppData\Local\Temp\cc7q2Fhd.s:650    .text.coap_string_tls_version:0000000000000050 .L0 
C:\Users\stapi\AppData\Local\Temp\cc7q2Fhd.s:651    .text.coap_string_tls_version:0000000000000050 .L0 
C:\Users\stapi\AppData\Local\Temp\cc7q2Fhd.s:652    .text.coap_string_tls_version:0000000000000050 .L0 
C:\Users\stapi\AppData\Local\Temp\cc7q2Fhd.s:653    .text.coap_string_tls_version:0000000000000050 .L0 
C:\Users\stapi\AppData\Local\Temp\cc7q2Fhd.s:656    .text.coap_string_tls_version:0000000000000050 .L0 
C:\Users\stapi\AppData\Local\Temp\cc7q2Fhd.s:658    .text.coap_string_tls_version:0000000000000050 .L0 
C:\Users\stapi\AppData\Local\Temp\cc7q2Fhd.s:659    .text.coap_string_tls_version:0000000000000050 .L0 
C:\Users\stapi\AppData\Local\Temp\cc7q2Fhd.s:661    .text.coap_string_tls_version:0000000000000052 .L0 
C:\Users\stapi\AppData\Local\Temp\cc7q2Fhd.s:664    .text.coap_string_tls_version:0000000000000056 .L0 
C:\Users\stapi\AppData\Local\Temp\cc7q2Fhd.s:666    .text.coap_string_tls_version:0000000000000058 .L0 
C:\Users\stapi\AppData\Local\Temp\cc7q2Fhd.s:668    .text.coap_string_tls_version:000000000000005c .L0 
C:\Users\stapi\AppData\Local\Temp\cc7q2Fhd.s:670    .text.coap_string_tls_version:0000000000000060 .L0 
C:\Users\stapi\AppData\Local\Temp\cc7q2Fhd.s:672    .text.coap_string_tls_version:0000000000000064 .L0 
C:\Users\stapi\AppData\Local\Temp\cc7q2Fhd.s:674    .text.coap_string_tls_version:0000000000000068 .L0 
C:\Users\stapi\AppData\Local\Temp\cc7q2Fhd.s:676    .text.coap_string_tls_version:000000000000006c .L0 
C:\Users\stapi\AppData\Local\Temp\cc7q2Fhd.s:678    .text.coap_string_tls_version:000000000000006e .L0 
C:\Users\stapi\AppData\Local\Temp\cc7q2Fhd.s:680    .text.coap_string_tls_version:0000000000000070 .L0 
C:\Users\stapi\AppData\Local\Temp\cc7q2Fhd.s:690    .text.coap_string_tls_version:000000000000008c .L0 
C:\Users\stapi\AppData\Local\Temp\cc7q2Fhd.s:695    .text.coap_string_tls_version:0000000000000098 .L0 
C:\Users\stapi\AppData\Local\Temp\cc7q2Fhd.s:698    .text.coap_string_tls_version:000000000000009a .L0 
C:\Users\stapi\AppData\Local\Temp\cc7q2Fhd.s:699    .text.coap_string_tls_version:000000000000009a .L0 
C:\Users\stapi\AppData\Local\Temp\cc7q2Fhd.s:705    .text.coap_string_tls_version:00000000000000a6 .L0 
C:\Users\stapi\AppData\Local\Temp\cc7q2Fhd.s:709    .text.coap_string_tls_version:00000000000000ae .L0 
C:\Users\stapi\AppData\Local\Temp\cc7q2Fhd.s:714    .text.coap_string_tls_version:00000000000000b8 .L0 
C:\Users\stapi\AppData\Local\Temp\cc7q2Fhd.s:715    .text.coap_string_tls_version:00000000000000b8 .L0 
C:\Users\stapi\AppData\Local\Temp\cc7q2Fhd.s:716    .text.coap_string_tls_version:00000000000000b8 .L0 
C:\Users\stapi\AppData\Local\Temp\cc7q2Fhd.s:722    .text.coap_string_tls_version:00000000000000c2 .L0 
C:\Users\stapi\AppData\Local\Temp\cc7q2Fhd.s:724    .text.coap_string_tls_version:00000000000000c6 .L0 
C:\Users\stapi\AppData\Local\Temp\cc7q2Fhd.s:727    .text.coap_string_tls_version:00000000000000ca .L0 
C:\Users\stapi\AppData\Local\Temp\cc7q2Fhd.s:729    .text.coap_string_tls_version:00000000000000ce .L0 
C:\Users\stapi\AppData\Local\Temp\cc7q2Fhd.s:732    .text.coap_string_tls_version:00000000000000d2 .L0 
C:\Users\stapi\AppData\Local\Temp\cc7q2Fhd.s:734    .text.coap_string_tls_version:00000000000000d4 .L0 
C:\Users\stapi\AppData\Local\Temp\cc7q2Fhd.s:736    .text.coap_string_tls_version:00000000000000d8 .L0 
C:\Users\stapi\AppData\Local\Temp\cc7q2Fhd.s:737    .text.coap_string_tls_version:00000000000000d8 .L0 
C:\Users\stapi\AppData\Local\Temp\cc7q2Fhd.s:739    .text.coap_string_tls_version:00000000000000dc .L0 
C:\Users\stapi\AppData\Local\Temp\cc7q2Fhd.s:740    .text.coap_string_tls_version:00000000000000dc .L0 
C:\Users\stapi\AppData\Local\Temp\cc7q2Fhd.s:746    .text.coap_string_tls_version:00000000000000ea .L0 
C:\Users\stapi\AppData\Local\Temp\cc7q2Fhd.s:750    .text.coap_string_tls_version:00000000000000f2 .L0 
C:\Users\stapi\AppData\Local\Temp\cc7q2Fhd.s:756    .text.coap_string_tls_version:00000000000000fe .L0 
C:\Users\stapi\AppData\Local\Temp\cc7q2Fhd.s:757    .text.coap_string_tls_version:00000000000000fe .L0 
C:\Users\stapi\AppData\Local\Temp\cc7q2Fhd.s:758    .text.coap_string_tls_version:00000000000000fe .L0 
C:\Users\stapi\AppData\Local\Temp\cc7q2Fhd.s:761    .text.coap_string_tls_version:0000000000000102 .L0 
C:\Users\stapi\AppData\Local\Temp\cc7q2Fhd.s:765    .text.coap_string_tls_version:000000000000010c .L0 
C:\Users\stapi\AppData\Local\Temp\cc7q2Fhd.s:767    .text.coap_string_tls_version:0000000000000110 .L0 
C:\Users\stapi\AppData\Local\Temp\cc7q2Fhd.s:770    .text.coap_string_tls_version:0000000000000114 .L0 
C:\Users\stapi\AppData\Local\Temp\cc7q2Fhd.s:772    .text.coap_string_tls_version:0000000000000118 .L0 
C:\Users\stapi\AppData\Local\Temp\cc7q2Fhd.s:775    .text.coap_string_tls_version:000000000000011c .L0 
C:\Users\stapi\AppData\Local\Temp\cc7q2Fhd.s:777    .text.coap_string_tls_version:0000000000000120 .L0 
C:\Users\stapi\AppData\Local\Temp\cc7q2Fhd.s:778    .text.coap_string_tls_version:0000000000000120 .L0 
C:\Users\stapi\AppData\Local\Temp\cc7q2Fhd.s:780    .text.coap_string_tls_version:0000000000000124 .L0 
C:\Users\stapi\AppData\Local\Temp\cc7q2Fhd.s:781    .text.coap_string_tls_version:0000000000000124 .L0 
C:\Users\stapi\AppData\Local\Temp\cc7q2Fhd.s:784    .text.coap_string_tls_version:0000000000000128 .L0 
C:\Users\stapi\AppData\Local\Temp\cc7q2Fhd.s:788    .text.coap_string_tls_version:0000000000000130 .L0 
C:\Users\stapi\AppData\Local\Temp\cc7q2Fhd.s:790    .text.coap_string_tls_version:0000000000000134 .L0 
C:\Users\stapi\AppData\Local\Temp\cc7q2Fhd.s:793    .text.coap_string_tls_version:000000000000013a .L0 
C:\Users\stapi\AppData\Local\Temp\cc7q2Fhd.s:795    .text.coap_string_tls_version:000000000000013c .L0 
C:\Users\stapi\AppData\Local\Temp\cc7q2Fhd.s:797    .text.coap_string_tls_version:0000000000000140 .L0 
C:\Users\stapi\AppData\Local\Temp\cc7q2Fhd.s:800    .text.coap_string_tls_version:0000000000000144 .L0 
C:\Users\stapi\AppData\Local\Temp\cc7q2Fhd.s:802    .text.coap_string_tls_version:0000000000000148 .L0 
C:\Users\stapi\AppData\Local\Temp\cc7q2Fhd.s:804    .text.coap_string_tls_version:000000000000014c .L0 
C:\Users\stapi\AppData\Local\Temp\cc7q2Fhd.s:806    .text.coap_string_tls_version:0000000000000150 .L0 
C:\Users\stapi\AppData\Local\Temp\cc7q2Fhd.s:808    .text.coap_string_tls_version:0000000000000152 .L0 
C:\Users\stapi\AppData\Local\Temp\cc7q2Fhd.s:810    .text.coap_string_tls_version:0000000000000154 .L0 
C:\Users\stapi\AppData\Local\Temp\cc7q2Fhd.s:812    .text.coap_string_tls_version:0000000000000156 .L0 
C:\Users\stapi\AppData\Local\Temp\cc7q2Fhd.s:825    .text.coap_string_tls_version:000000000000017e .L0 
C:\Users\stapi\AppData\Local\Temp\cc7q2Fhd.s:828    .text.coap_string_tls_version:0000000000000180 .L0 
C:\Users\stapi\AppData\Local\Temp\cc7q2Fhd.s:833    .text.coap_string_tls_version:000000000000018a .L0 
C:\Users\stapi\AppData\Local\Temp\cc7q2Fhd.s:839    .text.coap_string_tls_version:000000000000019c .L0 
C:\Users\stapi\AppData\Local\Temp\cc7q2Fhd.s:840    .text.coap_string_tls_version:000000000000019c .L0 
C:\Users\stapi\AppData\Local\Temp\cc7q2Fhd.s:842    .text.coap_string_tls_version:00000000000001a0 .L0 
C:\Users\stapi\AppData\Local\Temp\cc7q2Fhd.s:844    .text.coap_string_tls_version:00000000000001a4 .L0 
C:\Users\stapi\AppData\Local\Temp\cc7q2Fhd.s:846    .text.coap_string_tls_version:00000000000001a6 .L0 
C:\Users\stapi\AppData\Local\Temp\cc7q2Fhd.s:848    .text.coap_string_tls_version:00000000000001aa .L0 
C:\Users\stapi\AppData\Local\Temp\cc7q2Fhd.s:850    .text.coap_string_tls_version:00000000000001ae .L0 
C:\Users\stapi\AppData\Local\Temp\cc7q2Fhd.s:851    .text.coap_string_tls_version:00000000000001ae .L0 
C:\Users\stapi\AppData\Local\Temp\cc7q2Fhd.s:854    .text.coap_string_tls_version:00000000000001b0 .L0 
C:\Users\stapi\AppData\Local\Temp\cc7q2Fhd.s:859    .text.coap_string_tls_version:00000000000001ba .L0 
C:\Users\stapi\AppData\Local\Temp\cc7q2Fhd.s:865    .text.coap_string_tls_version:00000000000001cc .L0 
C:\Users\stapi\AppData\Local\Temp\cc7q2Fhd.s:867    .text.coap_string_tls_version:00000000000001d0 .L0 
C:\Users\stapi\AppData\Local\Temp\cc7q2Fhd.s:869    .text.coap_string_tls_version:00000000000001d2 .L0 
C:\Users\stapi\AppData\Local\Temp\cc7q2Fhd.s:870    .text.coap_string_tls_version:00000000000001d2 .L0 
C:\Users\stapi\AppData\Local\Temp\cc7q2Fhd.s:872    .text.coap_string_tls_version:00000000000001d6 .L0 
C:\Users\stapi\AppData\Local\Temp\cc7q2Fhd.s:874    .text.coap_string_tls_version:00000000000001d8 .L0 
C:\Users\stapi\AppData\Local\Temp\cc7q2Fhd.s:876    .text.coap_string_tls_version:00000000000001dc .L0 
C:\Users\stapi\AppData\Local\Temp\cc7q2Fhd.s:878    .text.coap_string_tls_version:00000000000001e0 .L0 
C:\Users\stapi\AppData\Local\Temp\cc7q2Fhd.s:879    .text.coap_string_tls_version:00000000000001e0 .L0 
C:\Users\stapi\AppData\Local\Temp\cc7q2Fhd.s:882    .text.coap_string_tls_version:00000000000001e2 .L0 
C:\Users\stapi\AppData\Local\Temp\cc7q2Fhd.s:883    .text.coap_string_tls_version:00000000000001e2 .L0 
C:\Users\stapi\AppData\Local\Temp\cc7q2Fhd.s:885    .text.coap_string_tls_version:00000000000001e4 .L0 
C:\Users\stapi\AppData\Local\Temp\cc7q2Fhd.s:888    .text.coap_string_tls_version:00000000000001e8 .L0 
C:\Users\stapi\AppData\Local\Temp\cc7q2Fhd.s:890    .text.coap_string_tls_version:00000000000001ea .L0 
C:\Users\stapi\AppData\Local\Temp\cc7q2Fhd.s:892    .text.coap_string_tls_version:00000000000001ee .L0 
C:\Users\stapi\AppData\Local\Temp\cc7q2Fhd.s:894    .text.coap_string_tls_version:00000000000001f2 .L0 
C:\Users\stapi\AppData\Local\Temp\cc7q2Fhd.s:896    .text.coap_string_tls_version:00000000000001f6 .L0 
C:\Users\stapi\AppData\Local\Temp\cc7q2Fhd.s:898    .text.coap_string_tls_version:00000000000001fa .L0 
C:\Users\stapi\AppData\Local\Temp\cc7q2Fhd.s:900    .text.coap_string_tls_version:00000000000001fe .L0 
C:\Users\stapi\AppData\Local\Temp\cc7q2Fhd.s:902    .text.coap_string_tls_version:0000000000000200 .L0 
C:\Users\stapi\AppData\Local\Temp\cc7q2Fhd.s:904    .text.coap_string_tls_version:0000000000000202 .L0 
C:\Users\stapi\AppData\Local\Temp\cc7q2Fhd.s:915    .text.coap_string_tls_version:0000000000000220 .L0 
C:\Users\stapi\AppData\Local\Temp\cc7q2Fhd.s:916    .text.coap_string_tls_version:0000000000000220 .L0 
C:\Users\stapi\AppData\Local\Temp\cc7q2Fhd.s:918    .text.coap_string_tls_version:0000000000000222 .L0 
C:\Users\stapi\AppData\Local\Temp\cc7q2Fhd.s:921    .text.coap_string_tls_version:0000000000000226 .L0 
C:\Users\stapi\AppData\Local\Temp\cc7q2Fhd.s:923    .text.coap_string_tls_version:0000000000000228 .L0 
C:\Users\stapi\AppData\Local\Temp\cc7q2Fhd.s:925    .text.coap_string_tls_version:000000000000022c .L0 
C:\Users\stapi\AppData\Local\Temp\cc7q2Fhd.s:927    .text.coap_string_tls_version:0000000000000230 .L0 
C:\Users\stapi\AppData\Local\Temp\cc7q2Fhd.s:929    .text.coap_string_tls_version:0000000000000232 .L0 
C:\Users\stapi\AppData\Local\Temp\cc7q2Fhd.s:931    .text.coap_string_tls_version:0000000000000236 .L0 
C:\Users\stapi\AppData\Local\Temp\cc7q2Fhd.s:933    .text.coap_string_tls_version:000000000000023a .L0 
C:\Users\stapi\AppData\Local\Temp\cc7q2Fhd.s:935    .text.coap_string_tls_version:000000000000023e .L0 
C:\Users\stapi\AppData\Local\Temp\cc7q2Fhd.s:937    .text.coap_string_tls_version:0000000000000240 .L0 
C:\Users\stapi\AppData\Local\Temp\cc7q2Fhd.s:940    .text.coap_string_tls_version:0000000000000244 .L0 
C:\Users\stapi\AppData\Local\Temp\cc7q2Fhd.s:952    .text.coap_string_tls_version:0000000000000262 .L0 
C:\Users\stapi\AppData\Local\Temp\cc7q2Fhd.s:960    .text.coap_string_tls_version:0000000000000276 .L0 
C:\Users\stapi\AppData\Local\Temp\cc7q2Fhd.s:961    .text.coap_string_tls_version:0000000000000278 .L0 
C:\Users\stapi\AppData\Local\Temp\cc7q2Fhd.s:984    .text.coap_string_tls_support:0000000000000000 coap_string_tls_support
C:\Users\stapi\AppData\Local\Temp\cc7q2Fhd.s:987    .text.coap_string_tls_support:0000000000000000 .L0 
C:\Users\stapi\AppData\Local\Temp\cc7q2Fhd.s:989    .text.coap_string_tls_support:0000000000000000 .L0 
C:\Users\stapi\AppData\Local\Temp\cc7q2Fhd.s:990    .text.coap_string_tls_support:0000000000000008 .L0 
C:\Users\stapi\AppData\Local\Temp\cc7q2Fhd.s:991    .text.coap_string_tls_support:0000000000000008 .L0 
C:\Users\stapi\AppData\Local\Temp\cc7q2Fhd.s:992    .text.coap_string_tls_support:0000000000000008 .L0 
C:\Users\stapi\AppData\Local\Temp\cc7q2Fhd.s:993    .text.coap_string_tls_support:0000000000000008 .L0 
C:\Users\stapi\AppData\Local\Temp\cc7q2Fhd.s:994    .text.coap_string_tls_support:0000000000000008 .L0 
C:\Users\stapi\AppData\Local\Temp\cc7q2Fhd.s:995    .text.coap_string_tls_support:0000000000000008 .L0 
C:\Users\stapi\AppData\Local\Temp\cc7q2Fhd.s:996    .text.coap_string_tls_support:0000000000000008 .L0 
C:\Users\stapi\AppData\Local\Temp\cc7q2Fhd.s:997    .text.coap_string_tls_support:0000000000000008 .L0 
C:\Users\stapi\AppData\Local\Temp\cc7q2Fhd.s:998    .text.coap_string_tls_support:0000000000000008 .L0 
C:\Users\stapi\AppData\Local\Temp\cc7q2Fhd.s:999    .text.coap_string_tls_support:0000000000000008 .L0 
C:\Users\stapi\AppData\Local\Temp\cc7q2Fhd.s:1001   .text.coap_string_tls_support:0000000000000008 .L0 
C:\Users\stapi\AppData\Local\Temp\cc7q2Fhd.s:1002   .text.coap_string_tls_support:0000000000000008 .L0 
C:\Users\stapi\AppData\Local\Temp\cc7q2Fhd.s:1003   .text.coap_string_tls_support:000000000000000a .L0 
C:\Users\stapi\AppData\Local\Temp\cc7q2Fhd.s:1005   .text.coap_string_tls_support:000000000000000a .L0 
C:\Users\stapi\AppData\Local\Temp\cc7q2Fhd.s:1008   .text.coap_string_tls_support:000000000000000e .L0 
C:\Users\stapi\AppData\Local\Temp\cc7q2Fhd.s:1013   .text.coap_string_tls_support:0000000000000018 .L0 
C:\Users\stapi\AppData\Local\Temp\cc7q2Fhd.s:1014   .text.coap_string_tls_support:0000000000000018 .L0 
C:\Users\stapi\AppData\Local\Temp\cc7q2Fhd.s:1019   .text.coap_string_tls_support:0000000000000022 .L0 
C:\Users\stapi\AppData\Local\Temp\cc7q2Fhd.s:1020   .text.coap_string_tls_support:0000000000000022 .L0 
C:\Users\stapi\AppData\Local\Temp\cc7q2Fhd.s:1025   .text.coap_string_tls_support:000000000000002c .L0 
C:\Users\stapi\AppData\Local\Temp\cc7q2Fhd.s:1026   .text.coap_string_tls_support:000000000000002c .L0 
C:\Users\stapi\AppData\Local\Temp\cc7q2Fhd.s:1031   .text.coap_string_tls_support:0000000000000036 .L0 
C:\Users\stapi\AppData\Local\Temp\cc7q2Fhd.s:1032   .text.coap_string_tls_support:0000000000000036 .L0 
C:\Users\stapi\AppData\Local\Temp\cc7q2Fhd.s:1037   .text.coap_string_tls_support:0000000000000040 .L0 
C:\Users\stapi\AppData\Local\Temp\cc7q2Fhd.s:1038   .text.coap_string_tls_support:0000000000000040 .L0 
C:\Users\stapi\AppData\Local\Temp\cc7q2Fhd.s:1043   .text.coap_string_tls_support:000000000000004a .L0 
C:\Users\stapi\AppData\Local\Temp\cc7q2Fhd.s:1044   .text.coap_string_tls_support:000000000000004a .L0 
C:\Users\stapi\AppData\Local\Temp\cc7q2Fhd.s:1049   .text.coap_string_tls_support:0000000000000054 .L0 
C:\Users\stapi\AppData\Local\Temp\cc7q2Fhd.s:1050   .text.coap_string_tls_support:0000000000000054 .L0 
C:\Users\stapi\AppData\Local\Temp\cc7q2Fhd.s:1053   .text.coap_string_tls_support:000000000000005c .L0 
C:\Users\stapi\AppData\Local\Temp\cc7q2Fhd.s:1055   .text.coap_string_tls_support:000000000000005e .L0 
C:\Users\stapi\AppData\Local\Temp\cc7q2Fhd.s:1058   .text.coap_string_tls_support:0000000000000060 .L0 
C:\Users\stapi\AppData\Local\Temp\cc7q2Fhd.s:1059   .text.coap_string_tls_support:0000000000000060 .L0 
C:\Users\stapi\AppData\Local\Temp\cc7q2Fhd.s:1061   .text.coap_string_tls_support:0000000000000064 .L0 
C:\Users\stapi\AppData\Local\Temp\cc7q2Fhd.s:1063   .text.coap_string_tls_support:0000000000000066 .L0 
C:\Users\stapi\AppData\Local\Temp\cc7q2Fhd.s:1071   .text.coap_string_tls_support:0000000000000078 .L0 
C:\Users\stapi\AppData\Local\Temp\cc7q2Fhd.s:1072   .text.coap_string_tls_support:0000000000000078 .L0 
C:\Users\stapi\AppData\Local\Temp\cc7q2Fhd.s:1074   .text.coap_string_tls_support:000000000000007c .L0 
C:\Users\stapi\AppData\Local\Temp\cc7q2Fhd.s:1075   .text.coap_string_tls_support:000000000000007c .L0 
C:\Users\stapi\AppData\Local\Temp\cc7q2Fhd.s:1078   .text.coap_string_tls_support:0000000000000084 .L0 
C:\Users\stapi\AppData\Local\Temp\cc7q2Fhd.s:1079   .text.coap_string_tls_support:0000000000000084 .L0 
C:\Users\stapi\AppData\Local\Temp\cc7q2Fhd.s:1080   .text.coap_string_tls_support:0000000000000084 .L0 
C:\Users\stapi\AppData\Local\Temp\cc7q2Fhd.s:1081   .text.coap_string_tls_support:0000000000000084 .L0 
C:\Users\stapi\AppData\Local\Temp\cc7q2Fhd.s:1082   .text.coap_string_tls_support:0000000000000084 .L0 
C:\Users\stapi\AppData\Local\Temp\cc7q2Fhd.s:1083   .text.coap_string_tls_support:0000000000000084 .L0 
C:\Users\stapi\AppData\Local\Temp\cc7q2Fhd.s:1084   .text.coap_string_tls_support:0000000000000084 .L0 
C:\Users\stapi\AppData\Local\Temp\cc7q2Fhd.s:1085   .text.coap_string_tls_support:0000000000000084 .L0 
C:\Users\stapi\AppData\Local\Temp\cc7q2Fhd.s:1086   .text.coap_string_tls_support:0000000000000084 .L0 
C:\Users\stapi\AppData\Local\Temp\cc7q2Fhd.s:1087   .text.coap_string_tls_support:0000000000000084 .L0 
C:\Users\stapi\AppData\Local\Temp\cc7q2Fhd.s:1090   .text.coap_string_tls_support:0000000000000084 .L0 
C:\Users\stapi\AppData\Local\Temp\cc7q2Fhd.s:1093   .text.coap_string_tls_support:0000000000000088 .L0 
C:\Users\stapi\AppData\Local\Temp\cc7q2Fhd.s:1096   .text.coap_string_tls_support:000000000000008e .L0 
C:\Users\stapi\AppData\Local\Temp\cc7q2Fhd.s:1100   .text.coap_string_tls_support:0000000000000096 .L0 
C:\Users\stapi\AppData\Local\Temp\cc7q2Fhd.s:1102   .text.coap_string_tls_support:000000000000009a .L0 
C:\Users\stapi\AppData\Local\Temp\cc7q2Fhd.s:1106   .text.coap_string_tls_support:00000000000000a2 .L0 
C:\Users\stapi\AppData\Local\Temp\cc7q2Fhd.s:1108   .text.coap_string_tls_support:00000000000000a6 .L0 
C:\Users\stapi\AppData\Local\Temp\cc7q2Fhd.s:1112   .text.coap_string_tls_support:00000000000000ae .L0 
C:\Users\stapi\AppData\Local\Temp\cc7q2Fhd.s:1114   .text.coap_string_tls_support:00000000000000b2 .L0 
C:\Users\stapi\AppData\Local\Temp\cc7q2Fhd.s:1118   .text.coap_string_tls_support:00000000000000ba .L0 
C:\Users\stapi\AppData\Local\Temp\cc7q2Fhd.s:1120   .text.coap_string_tls_support:00000000000000be .L0 
C:\Users\stapi\AppData\Local\Temp\cc7q2Fhd.s:1124   .text.coap_string_tls_support:00000000000000c6 .L0 
C:\Users\stapi\AppData\Local\Temp\cc7q2Fhd.s:1126   .text.coap_string_tls_support:00000000000000ca .L0 
C:\Users\stapi\AppData\Local\Temp\cc7q2Fhd.s:1130   .text.coap_string_tls_support:00000000000000d2 .L0 
C:\Users\stapi\AppData\Local\Temp\cc7q2Fhd.s:1132   .text.coap_string_tls_support:00000000000000d6 .L0 
C:\Users\stapi\AppData\Local\Temp\cc7q2Fhd.s:1137   .text.coap_string_tls_support:00000000000000de .L0 
C:\Users\stapi\AppData\Local\Temp\cc7q2Fhd.s:1146   .text.coap_string_tls_support:00000000000000f6 .L0 
C:\Users\stapi\AppData\Local\Temp\cc7q2Fhd.s:1147   .text.coap_string_tls_support:00000000000000f6 .L0 
C:\Users\stapi\AppData\Local\Temp\cc7q2Fhd.s:1151   .text.coap_string_tls_support:00000000000000f8 .L0 
C:\Users\stapi\AppData\Local\Temp\cc7q2Fhd.s:1182   .text.coap_string_tls_support:0000000000000146 .L0 
C:\Users\stapi\AppData\Local\Temp\cc7q2Fhd.s:1189   .text.coap_set_log_handler:0000000000000000 coap_set_log_handler
C:\Users\stapi\AppData\Local\Temp\cc7q2Fhd.s:1192   .text.coap_set_log_handler:0000000000000000 .L0 
C:\Users\stapi\AppData\Local\Temp\cc7q2Fhd.s:1194   .text.coap_set_log_handler:0000000000000000 .L0 
C:\Users\stapi\AppData\Local\Temp\cc7q2Fhd.s:1195   .text.coap_set_log_handler:0000000000000000 .L0 
C:\Users\stapi\AppData\Local\Temp\cc7q2Fhd.s:1196   .text.coap_set_log_handler:0000000000000000 .L0 
C:\Users\stapi\AppData\Local\Temp\cc7q2Fhd.s:1199   .text.coap_set_log_handler:0000000000000008 .L0 
C:\Users\stapi\AppData\Local\Temp\cc7q2Fhd.s:1200   .text.coap_set_log_handler:000000000000000a .L0 
C:\Users\stapi\AppData\Local\Temp\cc7q2Fhd.s:1224   .text.coap_log_impl:0000000000000000 coap_log_impl
C:\Users\stapi\AppData\Local\Temp\cc7q2Fhd.s:1227   .text.coap_log_impl:0000000000000000 .L0 
C:\Users\stapi\AppData\Local\Temp\cc7q2Fhd.s:1229   .text.coap_log_impl:0000000000000000 .L0 
C:\Users\stapi\AppData\Local\Temp\cc7q2Fhd.s:1230   .text.coap_log_impl:0000000000000000 .L0 
C:\Users\stapi\AppData\Local\Temp\cc7q2Fhd.s:1231   .text.coap_log_impl:0000000000000000 .L0 
C:\Users\stapi\AppData\Local\Temp\cc7q2Fhd.s:1232   .text.coap_log_impl:0000000000000002 .L0 
C:\Users\stapi\AppData\Local\Temp\cc7q2Fhd.s:1234   .text.coap_log_impl:0000000000000004 .L0 
C:\Users\stapi\AppData\Local\Temp\cc7q2Fhd.s:1236   .text.coap_log_impl:0000000000000004 .L0 
C:\Users\stapi\AppData\Local\Temp\cc7q2Fhd.s:1238   .text.coap_log_impl:0000000000000008 .L0 
C:\Users\stapi\AppData\Local\Temp\cc7q2Fhd.s:1245   .text.coap_log_impl:0000000000000014 .L0 
C:\Users\stapi\AppData\Local\Temp\cc7q2Fhd.s:1247   .text.coap_log_impl:0000000000000018 .L0 
C:\Users\stapi\AppData\Local\Temp\cc7q2Fhd.s:1249   .text.coap_log_impl:000000000000001c .L0 
C:\Users\stapi\AppData\Local\Temp\cc7q2Fhd.s:1253   .text.coap_log_impl:0000000000000024 .L0 
C:\Users\stapi\AppData\Local\Temp\cc7q2Fhd.s:1254   .text.coap_log_impl:0000000000000024 .L0 
C:\Users\stapi\AppData\Local\Temp\cc7q2Fhd.s:1255   .text.coap_log_impl:0000000000000024 .L0 
C:\Users\stapi\AppData\Local\Temp\cc7q2Fhd.s:1256   .text.coap_log_impl:0000000000000024 .L0 
C:\Users\stapi\AppData\Local\Temp\cc7q2Fhd.s:1258   .text.coap_log_impl:0000000000000024 .L0 
C:\Users\stapi\AppData\Local\Temp\cc7q2Fhd.s:1261   .text.coap_log_impl:0000000000000028 .L0 
C:\Users\stapi\AppData\Local\Temp\cc7q2Fhd.s:1264   .text.coap_log_impl:000000000000002a .L0 
C:\Users\stapi\AppData\Local\Temp\cc7q2Fhd.s:1265   .text.coap_log_impl:000000000000002a .L0 
C:\Users\stapi\AppData\Local\Temp\cc7q2Fhd.s:1266   .text.coap_log_impl:000000000000002a .L0 
C:\Users\stapi\AppData\Local\Temp\cc7q2Fhd.s:1268   .text.coap_log_impl:000000000000002c .L0 
C:\Users\stapi\AppData\Local\Temp\cc7q2Fhd.s:1275   .text.coap_log_impl:0000000000000036 .L0 
C:\Users\stapi\AppData\Local\Temp\cc7q2Fhd.s:1277   .text.coap_log_impl:0000000000000038 .L0 
C:\Users\stapi\AppData\Local\Temp\cc7q2Fhd.s:1280   .text.coap_log_impl:0000000000000040 .L0 
C:\Users\stapi\AppData\Local\Temp\cc7q2Fhd.s:1281   .text.coap_log_impl:0000000000000040 .L0 
C:\Users\stapi\AppData\Local\Temp\cc7q2Fhd.s:1289   .text.coap_log_impl:000000000000004a .L0 
C:\Users\stapi\AppData\Local\Temp\cc7q2Fhd.s:1290   .text.coap_log_impl:000000000000004c .L0 
C:\Users\stapi\AppData\Local\Temp\cc7q2Fhd.s:1291   .text.coap_log_impl:000000000000004c .L0 
C:\Users\stapi\AppData\Local\Temp\cc7q2Fhd.s:1293   .text.coap_log_impl:000000000000004e .L0 
C:\Users\stapi\AppData\Local\Temp\cc7q2Fhd.s:1295   .text.coap_log_impl:0000000000000050 .L0 
C:\Users\stapi\AppData\Local\Temp\cc7q2Fhd.s:1298   .text.coap_log_impl:0000000000000052 .L0 
C:\Users\stapi\AppData\Local\Temp\cc7q2Fhd.s:1300   .text.coap_log_impl:0000000000000054 .L0 
C:\Users\stapi\AppData\Local\Temp\cc7q2Fhd.s:1302   .text.coap_log_impl:0000000000000056 .L0 
C:\Users\stapi\AppData\Local\Temp\cc7q2Fhd.s:1306   .text.coap_log_impl:0000000000000058 .L0 
C:\Users\stapi\AppData\Local\Temp\cc7q2Fhd.s:1309   .text.coap_log_impl:0000000000000058 .L0 
C:\Users\stapi\AppData\Local\Temp\cc7q2Fhd.s:1310   .text.coap_log_impl:0000000000000058 .L0 
C:\Users\stapi\AppData\Local\Temp\cc7q2Fhd.s:1311   .text.coap_log_impl:0000000000000058 .L0 
C:\Users\stapi\AppData\Local\Temp\cc7q2Fhd.s:1312   .text.coap_log_impl:0000000000000058 .L0 
C:\Users\stapi\AppData\Local\Temp\cc7q2Fhd.s:1313   .text.coap_log_impl:0000000000000058 .L0 
C:\Users\stapi\AppData\Local\Temp\cc7q2Fhd.s:1314   .text.coap_log_impl:0000000000000058 .L0 
C:\Users\stapi\AppData\Local\Temp\cc7q2Fhd.s:1315   .text.coap_log_impl:0000000000000058 .L0 
C:\Users\stapi\AppData\Local\Temp\cc7q2Fhd.s:1317   .text.coap_log_impl:000000000000005c .L0 
C:\Users\stapi\AppData\Local\Temp\cc7q2Fhd.s:1319   .text.coap_log_impl:000000000000005e .L0 
C:\Users\stapi\AppData\Local\Temp\cc7q2Fhd.s:1321   .text.coap_log_impl:0000000000000062 .L0 
C:\Users\stapi\AppData\Local\Temp\cc7q2Fhd.s:1323   .text.coap_log_impl:0000000000000066 .L0 
C:\Users\stapi\AppData\Local\Temp\cc7q2Fhd.s:1330   .text.coap_log_impl:000000000000006a .L0 
C:\Users\stapi\AppData\Local\Temp\cc7q2Fhd.s:1331   .text.coap_log_impl:000000000000006a .L0 
C:\Users\stapi\AppData\Local\Temp\cc7q2Fhd.s:1332   .text.coap_log_impl:000000000000006a .L0 
C:\Users\stapi\AppData\Local\Temp\cc7q2Fhd.s:1341   .text.coap_log_impl:0000000000000074 .L0 
C:\Users\stapi\AppData\Local\Temp\cc7q2Fhd.s:1344   .text.coap_log_impl:0000000000000074 .L0 
C:\Users\stapi\AppData\Local\Temp\cc7q2Fhd.s:1349   .text.coap_log_impl:0000000000000074 .L0 
C:\Users\stapi\AppData\Local\Temp\cc7q2Fhd.s:1350   .text.coap_log_impl:0000000000000074 .L0 
C:\Users\stapi\AppData\Local\Temp\cc7q2Fhd.s:1351   .text.coap_log_impl:0000000000000074 .L0 
C:\Users\stapi\AppData\Local\Temp\cc7q2Fhd.s:1362   .text.coap_log_impl:000000000000008e .L0 
C:\Users\stapi\AppData\Local\Temp\cc7q2Fhd.s:1368   .text.coap_log_impl:00000000000000a0 .L0 
C:\Users\stapi\AppData\Local\Temp\cc7q2Fhd.s:1373   .text.coap_log_impl:00000000000000ae .L0 
C:\Users\stapi\AppData\Local\Temp\cc7q2Fhd.s:1377   .text.coap_log_impl:00000000000000ba .L0 
C:\Users\stapi\AppData\Local\Temp\cc7q2Fhd.s:1379   .text.coap_log_impl:00000000000000bc .L0 
C:\Users\stapi\AppData\Local\Temp\cc7q2Fhd.s:1390   .text.coap_log_impl:00000000000000d0 .L0 
C:\Users\stapi\AppData\Local\Temp\cc7q2Fhd.s:1391   .text.coap_log_impl:00000000000000d0 .L0 
C:\Users\stapi\AppData\Local\Temp\cc7q2Fhd.s:1392   .text.coap_log_impl:00000000000000d0 .L0 
C:\Users\stapi\AppData\Local\Temp\cc7q2Fhd.s:1399   .text.coap_log_impl:00000000000000e2 .L0 
C:\Users\stapi\AppData\Local\Temp\cc7q2Fhd.s:1400   .text.coap_log_impl:00000000000000e2 .L0 
C:\Users\stapi\AppData\Local\Temp\cc7q2Fhd.s:1401   .text.coap_log_impl:00000000000000e2 .L0 
C:\Users\stapi\AppData\Local\Temp\cc7q2Fhd.s:1402   .text.coap_log_impl:00000000000000e2 .L0 
C:\Users\stapi\AppData\Local\Temp\cc7q2Fhd.s:1405   .text.coap_log_impl:00000000000000e8 .L0 
C:\Users\stapi\AppData\Local\Temp\cc7q2Fhd.s:1406   .text.coap_log_impl:00000000000000e8 .L0 
C:\Users\stapi\AppData\Local\Temp\cc7q2Fhd.s:1412   .text.coap_log_impl:00000000000000f2 .L0 
C:\Users\stapi\AppData\Local\Temp\cc7q2Fhd.s:1415   .text.coap_log_impl:00000000000000fa .L0 
C:\Users\stapi\AppData\Local\Temp\cc7q2Fhd.s:1416   .text.coap_log_impl:00000000000000fa .L0 
C:\Users\stapi\AppData\Local\Temp\cc7q2Fhd.s:1417   .text.coap_log_impl:00000000000000fa .L0 
C:\Users\stapi\AppData\Local\Temp\cc7q2Fhd.s:1419   .text.coap_log_impl:00000000000000fc .L0 
C:\Users\stapi\AppData\Local\Temp\cc7q2Fhd.s:1423   .text.coap_log_impl:0000000000000102 .L0 
C:\Users\stapi\AppData\Local\Temp\cc7q2Fhd.s:1425   .text.coap_log_impl:0000000000000104 .L0 
C:\Users\stapi\AppData\Local\Temp\cc7q2Fhd.s:1428   .text.coap_log_impl:000000000000010c .L0 
C:\Users\stapi\AppData\Local\Temp\cc7q2Fhd.s:1430   .text.coap_log_impl:000000000000010c .L0 
C:\Users\stapi\AppData\Local\Temp\cc7q2Fhd.s:1431   .text.coap_log_impl:000000000000010c .L0 
C:\Users\stapi\AppData\Local\Temp\cc7q2Fhd.s:1436   .text.coap_log_impl:000000000000010e .L0 
C:\Users\stapi\AppData\Local\Temp\cc7q2Fhd.s:1441   .text.coap_log_impl:0000000000000114 .L0 
C:\Users\stapi\AppData\Local\Temp\cc7q2Fhd.s:1442   .text.coap_log_impl:0000000000000114 .L0 
C:\Users\stapi\AppData\Local\Temp\cc7q2Fhd.s:1451   .text.coap_log_impl:000000000000012c .L0 
C:\Users\stapi\AppData\Local\Temp\cc7q2Fhd.s:1549   .text.coap_show_pdu:0000000000000000 coap_show_pdu
C:\Users\stapi\AppData\Local\Temp\cc7q2Fhd.s:1552   .text.coap_show_pdu:0000000000000000 .L0 
C:\Users\stapi\AppData\Local\Temp\cc7q2Fhd.s:1554   .text.coap_show_pdu:0000000000000000 .L0 
C:\Users\stapi\AppData\Local\Temp\cc7q2Fhd.s:1555   .text.coap_show_pdu:0000000000000008 .L0 
C:\Users\stapi\AppData\Local\Temp\cc7q2Fhd.s:1556   .text.coap_show_pdu:0000000000000008 .L0 
C:\Users\stapi\AppData\Local\Temp\cc7q2Fhd.s:1557   .text.coap_show_pdu:0000000000000008 .L0 
C:\Users\stapi\AppData\Local\Temp\cc7q2Fhd.s:1558   .text.coap_show_pdu:0000000000000008 .L0 
C:\Users\stapi\AppData\Local\Temp\cc7q2Fhd.s:1559   .text.coap_show_pdu:0000000000000008 .L0 
C:\Users\stapi\AppData\Local\Temp\cc7q2Fhd.s:1560   .text.coap_show_pdu:0000000000000008 .L0 
C:\Users\stapi\AppData\Local\Temp\cc7q2Fhd.s:1561   .text.coap_show_pdu:0000000000000008 .L0 
C:\Users\stapi\AppData\Local\Temp\cc7q2Fhd.s:1562   .text.coap_show_pdu:0000000000000008 .L0 
C:\Users\stapi\AppData\Local\Temp\cc7q2Fhd.s:1563   .text.coap_show_pdu:0000000000000008 .L0 
C:\Users\stapi\AppData\Local\Temp\cc7q2Fhd.s:1564   .text.coap_show_pdu:0000000000000008 .L0 
C:\Users\stapi\AppData\Local\Temp\cc7q2Fhd.s:1565   .text.coap_show_pdu:0000000000000008 .L0 
C:\Users\stapi\AppData\Local\Temp\cc7q2Fhd.s:1566   .text.coap_show_pdu:0000000000000008 .L0 
C:\Users\stapi\AppData\Local\Temp\cc7q2Fhd.s:1567   .text.coap_show_pdu:0000000000000008 .L0 
C:\Users\stapi\AppData\Local\Temp\cc7q2Fhd.s:1568   .text.coap_show_pdu:0000000000000008 .L0 
C:\Users\stapi\AppData\Local\Temp\cc7q2Fhd.s:1570   .text.coap_show_pdu:0000000000000008 .L0 
C:\Users\stapi\AppData\Local\Temp\cc7q2Fhd.s:1571   .text.coap_show_pdu:0000000000000008 .L0 
C:\Users\stapi\AppData\Local\Temp\cc7q2Fhd.s:1573   .text.coap_show_pdu:0000000000000008 .L0 
C:\Users\stapi\AppData\Local\Temp\cc7q2Fhd.s:1574   .text.coap_show_pdu:0000000000000008 .L0 
C:\Users\stapi\AppData\Local\Temp\cc7q2Fhd.s:1575   .text.coap_show_pdu:0000000000000008 .L0 
C:\Users\stapi\AppData\Local\Temp\cc7q2Fhd.s:1576   .text.coap_show_pdu:0000000000000008 .L0 
C:\Users\stapi\AppData\Local\Temp\cc7q2Fhd.s:1577   .text.coap_show_pdu:0000000000000008 .L0 
C:\Users\stapi\AppData\Local\Temp\cc7q2Fhd.s:1578   .text.coap_show_pdu:0000000000000008 .L0 
C:\Users\stapi\AppData\Local\Temp\cc7q2Fhd.s:1579   .text.coap_show_pdu:0000000000000008 .L0 
C:\Users\stapi\AppData\Local\Temp\cc7q2Fhd.s:1580   .text.coap_show_pdu:0000000000000008 .L0 
C:\Users\stapi\AppData\Local\Temp\cc7q2Fhd.s:1581   .text.coap_show_pdu:0000000000000008 .L0 
C:\Users\stapi\AppData\Local\Temp\cc7q2Fhd.s:1582   .text.coap_show_pdu:0000000000000008 .L0 
C:\Users\stapi\AppData\Local\Temp\cc7q2Fhd.s:1583   .text.coap_show_pdu:0000000000000008 .L0 
C:\Users\stapi\AppData\Local\Temp\cc7q2Fhd.s:1584   .text.coap_show_pdu:0000000000000008 .L0 
C:\Users\stapi\AppData\Local\Temp\cc7q2Fhd.s:1587   .text.coap_show_pdu:0000000000000008 .L0 
C:\Users\stapi\AppData\Local\Temp\cc7q2Fhd.s:1588   .text.coap_show_pdu:0000000000000008 .L0 
C:\Users\stapi\AppData\Local\Temp\cc7q2Fhd.s:1589   .text.coap_show_pdu:0000000000000008 .L0 
C:\Users\stapi\AppData\Local\Temp\cc7q2Fhd.s:1594   .text.coap_show_pdu:0000000000000010 .L0 
C:\Users\stapi\AppData\Local\Temp\cc7q2Fhd.s:1595   .text.coap_show_pdu:0000000000000012 .L0 
C:\Users\stapi\AppData\Local\Temp\cc7q2Fhd.s:1597   .text.coap_show_pdu:0000000000000012 .L0 
C:\Users\stapi\AppData\Local\Temp\cc7q2Fhd.s:1599   .text.coap_show_pdu:0000000000000016 .L0 
C:\Users\stapi\AppData\Local\Temp\cc7q2Fhd.s:1601   .text.coap_show_pdu:0000000000000018 .L0 
C:\Users\stapi\AppData\Local\Temp\cc7q2Fhd.s:1606   .text.coap_show_pdu:0000000000000022 .L0 
C:\Users\stapi\AppData\Local\Temp\cc7q2Fhd.s:1607   .text.coap_show_pdu:0000000000000022 .L0 
C:\Users\stapi\AppData\Local\Temp\cc7q2Fhd.s:1609   .text.coap_show_pdu:0000000000000024 .L0 
C:\Users\stapi\AppData\Local\Temp\cc7q2Fhd.s:1611   .text.coap_show_pdu:0000000000000026 .L0 
C:\Users\stapi\AppData\Local\Temp\cc7q2Fhd.s:1613   .text.coap_show_pdu:0000000000000028 .L0 
C:\Users\stapi\AppData\Local\Temp\cc7q2Fhd.s:1616   .text.coap_show_pdu:000000000000002c .L0 
C:\Users\stapi\AppData\Local\Temp\cc7q2Fhd.s:1622   .text.coap_show_pdu:0000000000000030 .L0 
C:\Users\stapi\AppData\Local\Temp\cc7q2Fhd.s:1623   .text.coap_show_pdu:0000000000000030 .L0 
C:\Users\stapi\AppData\Local\Temp\cc7q2Fhd.s:1624   .text.coap_show_pdu:0000000000000030 .L0 
C:\Users\stapi\AppData\Local\Temp\cc7q2Fhd.s:1625   .text.coap_show_pdu:0000000000000030 .L0 
C:\Users\stapi\AppData\Local\Temp\cc7q2Fhd.s:1630   .text.coap_show_pdu:000000000000003a .L0 
C:\Users\stapi\AppData\Local\Temp\cc7q2Fhd.s:1636   .text.coap_show_pdu:0000000000000046 .L0 
C:\Users\stapi\AppData\Local\Temp\cc7q2Fhd.s:1641   .text.coap_show_pdu:000000000000004a .L0 
C:\Users\stapi\AppData\Local\Temp\cc7q2Fhd.s:1646   .text.coap_show_pdu:000000000000004e .L0 
C:\Users\stapi\AppData\Local\Temp\cc7q2Fhd.s:1660   .text.coap_show_pdu:0000000000000076 .L0 
C:\Users\stapi\AppData\Local\Temp\cc7q2Fhd.s:1662   .text.coap_show_pdu:0000000000000078 .L0 
C:\Users\stapi\AppData\Local\Temp\cc7q2Fhd.s:1668   .text.coap_show_pdu:0000000000000082 .L0 
C:\Users\stapi\AppData\Local\Temp\cc7q2Fhd.s:1669   .text.coap_show_pdu:0000000000000082 .L0 
C:\Users\stapi\AppData\Local\Temp\cc7q2Fhd.s:1671   .text.coap_show_pdu:0000000000000084 .L0 
C:\Users\stapi\AppData\Local\Temp\cc7q2Fhd.s:1673   .text.coap_show_pdu:0000000000000088 .L0 
C:\Users\stapi\AppData\Local\Temp\cc7q2Fhd.s:1674   .text.coap_show_pdu:0000000000000088 .L0 
C:\Users\stapi\AppData\Local\Temp\cc7q2Fhd.s:1676   .text.coap_show_pdu:000000000000008a .L0 
C:\Users\stapi\AppData\Local\Temp\cc7q2Fhd.s:1677   .text.coap_show_pdu:000000000000008a .L0 
C:\Users\stapi\AppData\Local\Temp\cc7q2Fhd.s:1678   .text.coap_show_pdu:000000000000008a .L0 
C:\Users\stapi\AppData\Local\Temp\cc7q2Fhd.s:1679   .text.coap_show_pdu:000000000000008a .L0 
C:\Users\stapi\AppData\Local\Temp\cc7q2Fhd.s:1681   .text.coap_show_pdu:000000000000008e .L0 
C:\Users\stapi\AppData\Local\Temp\cc7q2Fhd.s:1689   .text.coap_show_pdu:00000000000000a0 .L0 
C:\Users\stapi\AppData\Local\Temp\cc7q2Fhd.s:1690   .text.coap_show_pdu:00000000000000a0 .L0 
C:\Users\stapi\AppData\Local\Temp\cc7q2Fhd.s:1698   .text.coap_show_pdu:00000000000000b6 .L0 
C:\Users\stapi\AppData\Local\Temp\cc7q2Fhd.s:1706   .text.coap_show_pdu:00000000000000c6 .L0 
C:\Users\stapi\AppData\Local\Temp\cc7q2Fhd.s:1707   .text.coap_show_pdu:00000000000000c6 .L0 
C:\Users\stapi\AppData\Local\Temp\cc7q2Fhd.s:1709   .text.coap_show_pdu:00000000000000c8 .L0 
C:\Users\stapi\AppData\Local\Temp\cc7q2Fhd.s:1710   .text.coap_show_pdu:00000000000000c8 .L0 
C:\Users\stapi\AppData\Local\Temp\cc7q2Fhd.s:1711   .text.coap_show_pdu:00000000000000c8 .L0 
C:\Users\stapi\AppData\Local\Temp\cc7q2Fhd.s:1712   .text.coap_show_pdu:00000000000000c8 .L0 
C:\Users\stapi\AppData\Local\Temp\cc7q2Fhd.s:1714   .text.coap_show_pdu:00000000000000cc .L0 
C:\Users\stapi\AppData\Local\Temp\cc7q2Fhd.s:1722   .text.coap_show_pdu:00000000000000de .L0 
C:\Users\stapi\AppData\Local\Temp\cc7q2Fhd.s:1723   .text.coap_show_pdu:00000000000000de .L0 
C:\Users\stapi\AppData\Local\Temp\cc7q2Fhd.s:1733   .text.coap_show_pdu:00000000000000f6 .L0 
C:\Users\stapi\AppData\Local\Temp\cc7q2Fhd.s:1734   .text.coap_show_pdu:00000000000000f6 .L0 
C:\Users\stapi\AppData\Local\Temp\cc7q2Fhd.s:1735   .text.coap_show_pdu:00000000000000f6 .L0 
C:\Users\stapi\AppData\Local\Temp\cc7q2Fhd.s:1737   .text.coap_show_pdu:00000000000000f8 .L0 
C:\Users\stapi\AppData\Local\Temp\cc7q2Fhd.s:1739   .text.coap_show_pdu:00000000000000fc .L0 
C:\Users\stapi\AppData\Local\Temp\cc7q2Fhd.s:1741   .text.coap_show_pdu:00000000000000fe .L0 
C:\Users\stapi\AppData\Local\Temp\cc7q2Fhd.s:1743   .text.coap_show_pdu:0000000000000102 .L0 
C:\Users\stapi\AppData\Local\Temp\cc7q2Fhd.s:1746   .text.coap_show_pdu:0000000000000104 .L0 
C:\Users\stapi\AppData\Local\Temp\cc7q2Fhd.s:1750   .text.coap_show_pdu:000000000000010c .L0 
C:\Users\stapi\AppData\Local\Temp\cc7q2Fhd.s:1751   .text.coap_show_pdu:000000000000010c .L0 
C:\Users\stapi\AppData\Local\Temp\cc7q2Fhd.s:1752   .text.coap_show_pdu:000000000000010c .L0 
C:\Users\stapi\AppData\Local\Temp\cc7q2Fhd.s:1756   .text.coap_show_pdu:0000000000000116 .L0 
C:\Users\stapi\AppData\Local\Temp\cc7q2Fhd.s:1758   .text.coap_show_pdu:0000000000000118 .L0 
C:\Users\stapi\AppData\Local\Temp\cc7q2Fhd.s:1760   .text.coap_show_pdu:000000000000011a .L0 
C:\Users\stapi\AppData\Local\Temp\cc7q2Fhd.s:1762   .text.coap_show_pdu:000000000000011c .L0 
C:\Users\stapi\AppData\Local\Temp\cc7q2Fhd.s:1764   .text.coap_show_pdu:000000000000011e .L0 
C:\Users\stapi\AppData\Local\Temp\cc7q2Fhd.s:1766   .text.coap_show_pdu:0000000000000122 .L0 
C:\Users\stapi\AppData\Local\Temp\cc7q2Fhd.s:1768   .text.coap_show_pdu:0000000000000126 .L0 
C:\Users\stapi\AppData\Local\Temp\cc7q2Fhd.s:1769   .text.coap_show_pdu:0000000000000126 .L0 
C:\Users\stapi\AppData\Local\Temp\cc7q2Fhd.s:1774   .text.coap_show_pdu:0000000000000136 .L0 
C:\Users\stapi\AppData\Local\Temp\cc7q2Fhd.s:1780   .text.coap_show_pdu:0000000000000144 .L0 
C:\Users\stapi\AppData\Local\Temp\cc7q2Fhd.s:1781   .text.coap_show_pdu:0000000000000144 .L0 
C:\Users\stapi\AppData\Local\Temp\cc7q2Fhd.s:1785   .text.coap_show_pdu:000000000000014e .L0 
C:\Users\stapi\AppData\Local\Temp\cc7q2Fhd.s:1794   .text.coap_show_pdu:0000000000000166 .L0 
C:\Users\stapi\AppData\Local\Temp\cc7q2Fhd.s:1798   .text.coap_show_pdu:000000000000016e .L0 
C:\Users\stapi\AppData\Local\Temp\cc7q2Fhd.s:1801   .text.coap_show_pdu:0000000000000172 .L0 
C:\Users\stapi\AppData\Local\Temp\cc7q2Fhd.s:1803   .text.coap_show_pdu:0000000000000174 .L0 
C:\Users\stapi\AppData\Local\Temp\cc7q2Fhd.s:1805   .text.coap_show_pdu:0000000000000176 .L0 
C:\Users\stapi\AppData\Local\Temp\cc7q2Fhd.s:1807   .text.coap_show_pdu:0000000000000178 .L0 
C:\Users\stapi\AppData\Local\Temp\cc7q2Fhd.s:1809   .text.coap_show_pdu:000000000000017a .L0 
C:\Users\stapi\AppData\Local\Temp\cc7q2Fhd.s:1813   .text.coap_show_pdu:0000000000000180 .L0 
C:\Users\stapi\AppData\Local\Temp\cc7q2Fhd.s:1819   .text.coap_show_pdu:0000000000000188 .L0 
C:\Users\stapi\AppData\Local\Temp\cc7q2Fhd.s:1820   .text.coap_show_pdu:0000000000000188 .L0 
C:\Users\stapi\AppData\Local\Temp\cc7q2Fhd.s:1826   .text.coap_show_pdu:0000000000000194 .L0 
C:\Users\stapi\AppData\Local\Temp\cc7q2Fhd.s:1828   .text.coap_show_pdu:0000000000000198 .L0 
C:\Users\stapi\AppData\Local\Temp\cc7q2Fhd.s:1829   .text.coap_show_pdu:0000000000000198 .L0 
C:\Users\stapi\AppData\Local\Temp\cc7q2Fhd.s:1833   .text.coap_show_pdu:00000000000001a2 .L0 
C:\Users\stapi\AppData\Local\Temp\cc7q2Fhd.s:1844   .text.coap_show_pdu:00000000000001be .L0 
C:\Users\stapi\AppData\Local\Temp\cc7q2Fhd.s:1845   .text.coap_show_pdu:00000000000001be .L0 
C:\Users\stapi\AppData\Local\Temp\cc7q2Fhd.s:1854   .text.coap_show_pdu:00000000000001d4 .L0 
C:\Users\stapi\AppData\Local\Temp\cc7q2Fhd.s:1856   .text.coap_show_pdu:00000000000001d8 .L0 
C:\Users\stapi\AppData\Local\Temp\cc7q2Fhd.s:1857   .text.coap_show_pdu:00000000000001d8 .L0 
C:\Users\stapi\AppData\Local\Temp\cc7q2Fhd.s:1861   .text.coap_show_pdu:00000000000001e2 .L0 
C:\Users\stapi\AppData\Local\Temp\cc7q2Fhd.s:1872   .text.coap_show_pdu:00000000000001fa .L0 
C:\Users\stapi\AppData\Local\Temp\cc7q2Fhd.s:1873   .text.coap_show_pdu:00000000000001fa .L0 
C:\Users\stapi\AppData\Local\Temp\cc7q2Fhd.s:1874   .text.coap_show_pdu:00000000000001fa .L0 
C:\Users\stapi\AppData\Local\Temp\cc7q2Fhd.s:1876   .text.coap_show_pdu:00000000000001fe .L0 
C:\Users\stapi\AppData\Local\Temp\cc7q2Fhd.s:1880   .text.coap_show_pdu:0000000000000206 .L0 
C:\Users\stapi\AppData\Local\Temp\cc7q2Fhd.s:1883   .text.coap_show_pdu:000000000000020e .L0 
C:\Users\stapi\AppData\Local\Temp\cc7q2Fhd.s:1890   .text.coap_show_pdu:0000000000000216 .L0 
C:\Users\stapi\AppData\Local\Temp\cc7q2Fhd.s:1897   .text.coap_show_pdu:000000000000022c .L0 
C:\Users\stapi\AppData\Local\Temp\cc7q2Fhd.s:1899   .text.coap_show_pdu:000000000000022e .L0 
C:\Users\stapi\AppData\Local\Temp\cc7q2Fhd.s:1903   .text.coap_show_pdu:0000000000000232 .L0 
C:\Users\stapi\AppData\Local\Temp\cc7q2Fhd.s:1904   .text.coap_show_pdu:0000000000000232 .L0 
C:\Users\stapi\AppData\Local\Temp\cc7q2Fhd.s:1907   .text.coap_show_pdu:0000000000000234 .L0 
C:\Users\stapi\AppData\Local\Temp\cc7q2Fhd.s:1908   .text.coap_show_pdu:0000000000000234 .L0 
C:\Users\stapi\AppData\Local\Temp\cc7q2Fhd.s:1909   .text.coap_show_pdu:0000000000000234 .L0 
C:\Users\stapi\AppData\Local\Temp\cc7q2Fhd.s:1913   .text.coap_show_pdu:000000000000023e .L0 
C:\Users\stapi\AppData\Local\Temp\cc7q2Fhd.s:1924   .text.coap_show_pdu:000000000000025a .L0 
C:\Users\stapi\AppData\Local\Temp\cc7q2Fhd.s:1925   .text.coap_show_pdu:000000000000025a .L0 
C:\Users\stapi\AppData\Local\Temp\cc7q2Fhd.s:1928   .text.coap_show_pdu:0000000000000260 .L0 
C:\Users\stapi\AppData\Local\Temp\cc7q2Fhd.s:1929   .text.coap_show_pdu:0000000000000260 .L0 
C:\Users\stapi\AppData\Local\Temp\cc7q2Fhd.s:1935   .text.coap_show_pdu:0000000000000272 .L0 
C:\Users\stapi\AppData\Local\Temp\cc7q2Fhd.s:1937   .text.coap_show_pdu:0000000000000272 .L0 
C:\Users\stapi\AppData\Local\Temp\cc7q2Fhd.s:1938   .text.coap_show_pdu:0000000000000272 .L0 
C:\Users\stapi\AppData\Local\Temp\cc7q2Fhd.s:1939   .text.coap_show_pdu:0000000000000272 .L0 
C:\Users\stapi\AppData\Local\Temp\cc7q2Fhd.s:1940   .text.coap_show_pdu:0000000000000272 .L0 
C:\Users\stapi\AppData\Local\Temp\cc7q2Fhd.s:1941   .text.coap_show_pdu:0000000000000272 .L0 
C:\Users\stapi\AppData\Local\Temp\cc7q2Fhd.s:1946   .text.coap_show_pdu:000000000000027c .L0 
C:\Users\stapi\AppData\Local\Temp\cc7q2Fhd.s:1948   .text.coap_show_pdu:0000000000000280 .L0 
C:\Users\stapi\AppData\Local\Temp\cc7q2Fhd.s:1949   .text.coap_show_pdu:0000000000000280 .L0 
C:\Users\stapi\AppData\Local\Temp\cc7q2Fhd.s:1951   .text.coap_show_pdu:0000000000000284 .L0 
C:\Users\stapi\AppData\Local\Temp\cc7q2Fhd.s:1954   .text.coap_show_pdu:000000000000028c .L0 
C:\Users\stapi\AppData\Local\Temp\cc7q2Fhd.s:1955   .text.coap_show_pdu:000000000000028c .L0 
C:\Users\stapi\AppData\Local\Temp\cc7q2Fhd.s:1958   .text.coap_show_pdu:0000000000000290 .L0 
C:\Users\stapi\AppData\Local\Temp\cc7q2Fhd.s:1959   .text.coap_show_pdu:0000000000000290 .L0 
C:\Users\stapi\AppData\Local\Temp\cc7q2Fhd.s:1961   .text.coap_show_pdu:0000000000000292 .L0 
C:\Users\stapi\AppData\Local\Temp\cc7q2Fhd.s:1963   .text.coap_show_pdu:0000000000000294 .L0 
C:\Users\stapi\AppData\Local\Temp\cc7q2Fhd.s:1966   .text.coap_show_pdu:000000000000029a .L0 
C:\Users\stapi\AppData\Local\Temp\cc7q2Fhd.s:1968   .text.coap_show_pdu:000000000000029e .L0 
C:\Users\stapi\AppData\Local\Temp\cc7q2Fhd.s:1969   .text.coap_show_pdu:000000000000029e .L0 
C:\Users\stapi\AppData\Local\Temp\cc7q2Fhd.s:1972   .text.coap_show_pdu:00000000000002a6 .L0 
C:\Users\stapi\AppData\Local\Temp\cc7q2Fhd.s:1982   .text.coap_show_pdu:00000000000002c0 .L0 
C:\Users\stapi\AppData\Local\Temp\cc7q2Fhd.s:1983   .text.coap_show_pdu:00000000000002c0 .L0 
C:\Users\stapi\AppData\Local\Temp\cc7q2Fhd.s:1985   .text.coap_show_pdu:00000000000002c2 .L0 
C:\Users\stapi\AppData\Local\Temp\cc7q2Fhd.s:1987   .text.coap_show_pdu:00000000000002c4 .L0 
C:\Users\stapi\AppData\Local\Temp\cc7q2Fhd.s:1988   .text.coap_show_pdu:00000000000002c4 .L0 
C:\Users\stapi\AppData\Local\Temp\cc7q2Fhd.s:1990   .text.coap_show_pdu:00000000000002c6 .L0 
C:\Users\stapi\AppData\Local\Temp\cc7q2Fhd.s:1991   .text.coap_show_pdu:00000000000002c6 .L0 
C:\Users\stapi\AppData\Local\Temp\cc7q2Fhd.s:1994   .text.coap_show_pdu:00000000000002ce .L0 
C:\Users\stapi\AppData\Local\Temp\cc7q2Fhd.s:1995   .text.coap_show_pdu:00000000000002ce .L0 
C:\Users\stapi\AppData\Local\Temp\cc7q2Fhd.s:1998   .text.coap_show_pdu:00000000000002d6 .L0 
C:\Users\stapi\AppData\Local\Temp\cc7q2Fhd.s:2002   .text.coap_show_pdu:00000000000002da .L0 
C:\Users\stapi\AppData\Local\Temp\cc7q2Fhd.s:2012   .text.coap_show_pdu:00000000000002f4 .L0 
C:\Users\stapi\AppData\Local\Temp\cc7q2Fhd.s:2013   .text.coap_show_pdu:00000000000002f4 .L0 
C:\Users\stapi\AppData\Local\Temp\cc7q2Fhd.s:2016   .text.coap_show_pdu:00000000000002fa .L0 
C:\Users\stapi\AppData\Local\Temp\cc7q2Fhd.s:2017   .text.coap_show_pdu:00000000000002fa .L0 
C:\Users\stapi\AppData\Local\Temp\cc7q2Fhd.s:2023   .text.coap_show_pdu:000000000000030c .L0 
C:\Users\stapi\AppData\Local\Temp\cc7q2Fhd.s:2025   .text.coap_show_pdu:000000000000030c .L0 
C:\Users\stapi\AppData\Local\Temp\cc7q2Fhd.s:2026   .text.coap_show_pdu:000000000000030c .L0 
C:\Users\stapi\AppData\Local\Temp\cc7q2Fhd.s:2027   .text.coap_show_pdu:000000000000030c .L0 
C:\Users\stapi\AppData\Local\Temp\cc7q2Fhd.s:2028   .text.coap_show_pdu:000000000000030c .L0 
C:\Users\stapi\AppData\Local\Temp\cc7q2Fhd.s:2029   .text.coap_show_pdu:000000000000030c .L0 
C:\Users\stapi\AppData\Local\Temp\cc7q2Fhd.s:2032   .text.coap_show_pdu:0000000000000312 .L0 
C:\Users\stapi\AppData\Local\Temp\cc7q2Fhd.s:2034   .text.coap_show_pdu:0000000000000316 .L0 
C:\Users\stapi\AppData\Local\Temp\cc7q2Fhd.s:2036   .text.coap_show_pdu:000000000000031a .L0 
C:\Users\stapi\AppData\Local\Temp\cc7q2Fhd.s:2037   .text.coap_show_pdu:000000000000031a .L0 
C:\Users\stapi\AppData\Local\Temp\cc7q2Fhd.s:2040   .text.coap_show_pdu:000000000000031e .L0 
C:\Users\stapi\AppData\Local\Temp\cc7q2Fhd.s:2043   .text.coap_show_pdu:0000000000000326 .L0 
C:\Users\stapi\AppData\Local\Temp\cc7q2Fhd.s:2044   .text.coap_show_pdu:0000000000000326 .L0 
C:\Users\stapi\AppData\Local\Temp\cc7q2Fhd.s:2046   .text.coap_show_pdu:000000000000032a .L0 
C:\Users\stapi\AppData\Local\Temp\cc7q2Fhd.s:2050   .text.coap_show_pdu:000000000000032e .L0 
C:\Users\stapi\AppData\Local\Temp\cc7q2Fhd.s:2051   .text.coap_show_pdu:000000000000032e .L0 
C:\Users\stapi\AppData\Local\Temp\cc7q2Fhd.s:2053   .text.coap_show_pdu:0000000000000330 .L0 
C:\Users\stapi\AppData\Local\Temp\cc7q2Fhd.s:2055   .text.coap_show_pdu:0000000000000332 .L0 
C:\Users\stapi\AppData\Local\Temp\cc7q2Fhd.s:2058   .text.coap_show_pdu:0000000000000338 .L0 
C:\Users\stapi\AppData\Local\Temp\cc7q2Fhd.s:2060   .text.coap_show_pdu:000000000000033c .L0 
C:\Users\stapi\AppData\Local\Temp\cc7q2Fhd.s:2061   .text.coap_show_pdu:000000000000033c .L0 
C:\Users\stapi\AppData\Local\Temp\cc7q2Fhd.s:2064   .text.coap_show_pdu:0000000000000344 .L0 
C:\Users\stapi\AppData\Local\Temp\cc7q2Fhd.s:2075   .text.coap_show_pdu:000000000000035a .L0 
C:\Users\stapi\AppData\Local\Temp\cc7q2Fhd.s:2076   .text.coap_show_pdu:000000000000035a .L0 
C:\Users\stapi\AppData\Local\Temp\cc7q2Fhd.s:2080   .text.coap_show_pdu:0000000000000364 .L0 
C:\Users\stapi\AppData\Local\Temp\cc7q2Fhd.s:2081   .text.coap_show_pdu:0000000000000364 .L0 
C:\Users\stapi\AppData\Local\Temp\cc7q2Fhd.s:2084   .text.coap_show_pdu:000000000000036c .L0 
C:\Users\stapi\AppData\Local\Temp\cc7q2Fhd.s:2088   .text.coap_show_pdu:0000000000000370 .L0 
C:\Users\stapi\AppData\Local\Temp\cc7q2Fhd.s:2098   .text.coap_show_pdu:000000000000038a .L0 
C:\Users\stapi\AppData\Local\Temp\cc7q2Fhd.s:2099   .text.coap_show_pdu:000000000000038a .L0 
C:\Users\stapi\AppData\Local\Temp\cc7q2Fhd.s:2102   .text.coap_show_pdu:0000000000000390 .L0 
C:\Users\stapi\AppData\Local\Temp\cc7q2Fhd.s:2103   .text.coap_show_pdu:0000000000000390 .L0 
C:\Users\stapi\AppData\Local\Temp\cc7q2Fhd.s:2109   .text.coap_show_pdu:00000000000003a2 .L0 
C:\Users\stapi\AppData\Local\Temp\cc7q2Fhd.s:2111   .text.coap_show_pdu:00000000000003a2 .L0 
C:\Users\stapi\AppData\Local\Temp\cc7q2Fhd.s:2112   .text.coap_show_pdu:00000000000003a2 .L0 
C:\Users\stapi\AppData\Local\Temp\cc7q2Fhd.s:2113   .text.coap_show_pdu:00000000000003a4 .L0 
C:\Users\stapi\AppData\Local\Temp\cc7q2Fhd.s:2114   .text.coap_show_pdu:00000000000003a4 .L0 
C:\Users\stapi\AppData\Local\Temp\cc7q2Fhd.s:2116   .text.coap_show_pdu:00000000000003ac .L0 
C:\Users\stapi\AppData\Local\Temp\cc7q2Fhd.s:2117   .text.coap_show_pdu:00000000000003ac .L0 
C:\Users\stapi\AppData\Local\Temp\cc7q2Fhd.s:2118   .text.coap_show_pdu:00000000000003ac .L0 
C:\Users\stapi\AppData\Local\Temp\cc7q2Fhd.s:2119   .text.coap_show_pdu:00000000000003ac .L0 
C:\Users\stapi\AppData\Local\Temp\cc7q2Fhd.s:2120   .text.coap_show_pdu:00000000000003ac .L0 
C:\Users\stapi\AppData\Local\Temp\cc7q2Fhd.s:2121   .text.coap_show_pdu:00000000000003ac .L0 
C:\Users\stapi\AppData\Local\Temp\cc7q2Fhd.s:2122   .text.coap_show_pdu:00000000000003ac .L0 
C:\Users\stapi\AppData\Local\Temp\cc7q2Fhd.s:2123   .text.coap_show_pdu:00000000000003ac .L0 
C:\Users\stapi\AppData\Local\Temp\cc7q2Fhd.s:2124   .text.coap_show_pdu:00000000000003ac .L0 
C:\Users\stapi\AppData\Local\Temp\cc7q2Fhd.s:2125   .text.coap_show_pdu:00000000000003ac .L0 
C:\Users\stapi\AppData\Local\Temp\cc7q2Fhd.s:2126   .text.coap_show_pdu:00000000000003ac .L0 
C:\Users\stapi\AppData\Local\Temp\cc7q2Fhd.s:2127   .text.coap_show_pdu:00000000000003ac .L0 
C:\Users\stapi\AppData\Local\Temp\cc7q2Fhd.s:2128   .text.coap_show_pdu:00000000000003ac .L0 
C:\Users\stapi\AppData\Local\Temp\cc7q2Fhd.s:2129   .text.coap_show_pdu:00000000000003ac .L0 
C:\Users\stapi\AppData\Local\Temp\cc7q2Fhd.s:2132   .text.coap_show_pdu:00000000000003ac .L0 
C:\Users\stapi\AppData\Local\Temp\cc7q2Fhd.s:2134   .text.coap_show_pdu:00000000000003ac .L0 
C:\Users\stapi\AppData\Local\Temp\cc7q2Fhd.s:2135   .text.coap_show_pdu:00000000000003ac .L0 
C:\Users\stapi\AppData\Local\Temp\cc7q2Fhd.s:2137   .text.coap_show_pdu:00000000000003b0 .L0 
C:\Users\stapi\AppData\Local\Temp\cc7q2Fhd.s:2138   .text.coap_show_pdu:00000000000003b0 .L0 
C:\Users\stapi\AppData\Local\Temp\cc7q2Fhd.s:2140   .text.coap_show_pdu:00000000000003b4 .L0 
C:\Users\stapi\AppData\Local\Temp\cc7q2Fhd.s:2141   .text.coap_show_pdu:00000000000003b4 .L0 
C:\Users\stapi\AppData\Local\Temp\cc7q2Fhd.s:2145   .text.coap_show_pdu:00000000000003be .L0 
C:\Users\stapi\AppData\Local\Temp\cc7q2Fhd.s:2156   .text.coap_show_pdu:00000000000003d8 .L0 
C:\Users\stapi\AppData\Local\Temp\cc7q2Fhd.s:2157   .text.coap_show_pdu:00000000000003d8 .L0 
C:\Users\stapi\AppData\Local\Temp\cc7q2Fhd.s:2159   .text.coap_show_pdu:00000000000003da .L0 
C:\Users\stapi\AppData\Local\Temp\cc7q2Fhd.s:2161   .text.coap_show_pdu:00000000000003de .L0 
C:\Users\stapi\AppData\Local\Temp\cc7q2Fhd.s:2163   .text.coap_show_pdu:00000000000003e2 .L0 
C:\Users\stapi\AppData\Local\Temp\cc7q2Fhd.s:2165   .text.coap_show_pdu:00000000000003e6 .L0 
C:\Users\stapi\AppData\Local\Temp\cc7q2Fhd.s:2168   .text.coap_show_pdu:00000000000003e8 .L0 
C:\Users\stapi\AppData\Local\Temp\cc7q2Fhd.s:2170   .text.coap_show_pdu:00000000000003ea .L0 
C:\Users\stapi\AppData\Local\Temp\cc7q2Fhd.s:2173   .text.coap_show_pdu:00000000000003ec .L0 
C:\Users\stapi\AppData\Local\Temp\cc7q2Fhd.s:2176   .text.coap_show_pdu:00000000000003f0 .L0 
C:\Users\stapi\AppData\Local\Temp\cc7q2Fhd.s:2177   .text.coap_show_pdu:00000000000003f0 .L0 
C:\Users\stapi\AppData\Local\Temp\cc7q2Fhd.s:2182   .text.coap_show_pdu:00000000000003fc .L0 
C:\Users\stapi\AppData\Local\Temp\cc7q2Fhd.s:2187   .text.coap_show_pdu:0000000000000408 .L0 
C:\Users\stapi\AppData\Local\Temp\cc7q2Fhd.s:2197   .text.coap_show_pdu:000000000000041e .L0 
C:\Users\stapi\AppData\Local\Temp\cc7q2Fhd.s:2198   .text.coap_show_pdu:000000000000041e .L0 
C:\Users\stapi\AppData\Local\Temp\cc7q2Fhd.s:2200   .text.coap_show_pdu:0000000000000422 .L0 
C:\Users\stapi\AppData\Local\Temp\cc7q2Fhd.s:2203   .text.coap_show_pdu:0000000000000428 .L0 
C:\Users\stapi\AppData\Local\Temp\cc7q2Fhd.s:2204   .text.coap_show_pdu:0000000000000428 .L0 
C:\Users\stapi\AppData\Local\Temp\cc7q2Fhd.s:2207   .text.coap_show_pdu:0000000000000430 .L0 
C:\Users\stapi\AppData\Local\Temp\cc7q2Fhd.s:2213   .text.coap_show_pdu:000000000000043c .L0 
C:\Users\stapi\AppData\Local\Temp\cc7q2Fhd.s:2219   .text.coap_show_pdu:0000000000000440 .L0 
C:\Users\stapi\AppData\Local\Temp\cc7q2Fhd.s:2220   .text.coap_show_pdu:0000000000000440 .L0 
C:\Users\stapi\AppData\Local\Temp\cc7q2Fhd.s:2225   .text.coap_show_pdu:000000000000044c .L0 
C:\Users\stapi\AppData\Local\Temp\cc7q2Fhd.s:2230   .text.coap_show_pdu:0000000000000458 .L0 
C:\Users\stapi\AppData\Local\Temp\cc7q2Fhd.s:2233   .text.coap_show_pdu:000000000000045a .L0 
C:\Users\stapi\AppData\Local\Temp\cc7q2Fhd.s:2241   .text.coap_show_pdu:000000000000046c .L0 
C:\Users\stapi\AppData\Local\Temp\cc7q2Fhd.s:2242   .text.coap_show_pdu:000000000000046c .L0 
C:\Users\stapi\AppData\Local\Temp\cc7q2Fhd.s:2245   .text.coap_show_pdu:0000000000000474 .L0 
C:\Users\stapi\AppData\Local\Temp\cc7q2Fhd.s:2303   .text.coap_show_pdu:00000000000004b2 .L0 
C:\Users\stapi\AppData\Local\Temp\cc7q2Fhd.s:2304   .text.coap_show_pdu:00000000000004b2 .L0 
C:\Users\stapi\AppData\Local\Temp\cc7q2Fhd.s:2310   .text.coap_show_pdu:00000000000004be .L0 
C:\Users\stapi\AppData\Local\Temp\cc7q2Fhd.s:2311   .text.coap_show_pdu:00000000000004be .L0 
C:\Users\stapi\AppData\Local\Temp\cc7q2Fhd.s:2316   .text.coap_show_pdu:00000000000004c8 .L0 
C:\Users\stapi\AppData\Local\Temp\cc7q2Fhd.s:2318   .text.coap_show_pdu:00000000000004cc .L0 
C:\Users\stapi\AppData\Local\Temp\cc7q2Fhd.s:2321   .text.coap_show_pdu:00000000000004ce .L0 
C:\Users\stapi\AppData\Local\Temp\cc7q2Fhd.s:2327   .text.coap_show_pdu:00000000000004dc .L0 
C:\Users\stapi\AppData\Local\Temp\cc7q2Fhd.s:2328   .text.coap_show_pdu:00000000000004dc .L0 
C:\Users\stapi\AppData\Local\Temp\cc7q2Fhd.s:2331   .text.coap_show_pdu:00000000000004de .L0 
C:\Users\stapi\AppData\Local\Temp\cc7q2Fhd.s:2335   .text.coap_show_pdu:00000000000004e2 .L0 
C:\Users\stapi\AppData\Local\Temp\cc7q2Fhd.s:2336   .text.coap_show_pdu:00000000000004e2 .L0 
C:\Users\stapi\AppData\Local\Temp\cc7q2Fhd.s:2341   .text.coap_show_pdu:00000000000004ee .L0 
C:\Users\stapi\AppData\Local\Temp\cc7q2Fhd.s:2343   .text.coap_show_pdu:00000000000004f2 .L0 
C:\Users\stapi\AppData\Local\Temp\cc7q2Fhd.s:2344   .text.coap_show_pdu:00000000000004f2 .L0 
C:\Users\stapi\AppData\Local\Temp\cc7q2Fhd.s:2345   .text.coap_show_pdu:00000000000004f2 .L0 
C:\Users\stapi\AppData\Local\Temp\cc7q2Fhd.s:2347   .text.coap_show_pdu:00000000000004f4 .L0 
C:\Users\stapi\AppData\Local\Temp\cc7q2Fhd.s:2350   .text.coap_show_pdu:00000000000004fc .L0 
C:\Users\stapi\AppData\Local\Temp\cc7q2Fhd.s:2352   .text.coap_show_pdu:0000000000000500 .L0 
C:\Users\stapi\AppData\Local\Temp\cc7q2Fhd.s:2358   .text.coap_show_pdu:0000000000000510 .L0 
C:\Users\stapi\AppData\Local\Temp\cc7q2Fhd.s:2359   .text.coap_show_pdu:0000000000000510 .L0 
C:\Users\stapi\AppData\Local\Temp\cc7q2Fhd.s:2365   .text.coap_show_pdu:0000000000000514 .L0 
C:\Users\stapi\AppData\Local\Temp\cc7q2Fhd.s:2369   .text.coap_show_pdu:000000000000051a .L0 
C:\Users\stapi\AppData\Local\Temp\cc7q2Fhd.s:2370   .text.coap_show_pdu:000000000000051a .L0 
C:\Users\stapi\AppData\Local\Temp\cc7q2Fhd.s:2375   .text.coap_show_pdu:0000000000000526 .L0 
C:\Users\stapi\AppData\Local\Temp\cc7q2Fhd.s:2380   .text.coap_show_pdu:0000000000000532 .L0 
C:\Users\stapi\AppData\Local\Temp\cc7q2Fhd.s:2385   .text.coap_show_pdu:000000000000053e .L0 
C:\Users\stapi\AppData\Local\Temp\cc7q2Fhd.s:2390   .text.coap_show_pdu:0000000000000540 .L0 
C:\Users\stapi\AppData\Local\Temp\cc7q2Fhd.s:2391   .text.coap_show_pdu:0000000000000540 .L0 
C:\Users\stapi\AppData\Local\Temp\cc7q2Fhd.s:2393   .text.coap_show_pdu:0000000000000544 .L0 
C:\Users\stapi\AppData\Local\Temp\cc7q2Fhd.s:2395   .text.coap_show_pdu:0000000000000546 .L0 
C:\Users\stapi\AppData\Local\Temp\cc7q2Fhd.s:2399   .text.coap_show_pdu:0000000000000548 .L0 
C:\Users\stapi\AppData\Local\Temp\cc7q2Fhd.s:2400   .text.coap_show_pdu:0000000000000548 .L0 
C:\Users\stapi\AppData\Local\Temp\cc7q2Fhd.s:2403   .text.coap_show_pdu:000000000000054e .L0 
C:\Users\stapi\AppData\Local\Temp\cc7q2Fhd.s:2404   .text.coap_show_pdu:000000000000054e .L0 
C:\Users\stapi\AppData\Local\Temp\cc7q2Fhd.s:2424   .text.coap_show_pdu:0000000000000574 .L0 
C:\Users\stapi\AppData\Local\Temp\cc7q2Fhd.s:2425   .text.coap_show_pdu:0000000000000574 .L0 
C:\Users\stapi\AppData\Local\Temp\cc7q2Fhd.s:2429   .text.coap_show_pdu:000000000000057e .L0 
C:\Users\stapi\AppData\Local\Temp\cc7q2Fhd.s:2436   .text.coap_show_pdu:000000000000058c .L0 
C:\Users\stapi\AppData\Local\Temp\cc7q2Fhd.s:2440   .text.coap_show_pdu:0000000000000590 .L0 
C:\Users\stapi\AppData\Local\Temp\cc7q2Fhd.s:2445   .text.coap_show_pdu:0000000000000594 .L0 
C:\Users\stapi\AppData\Local\Temp\cc7q2Fhd.s:2446   .text.coap_show_pdu:0000000000000594 .L0 
C:\Users\stapi\AppData\Local\Temp\cc7q2Fhd.s:2447   .text.coap_show_pdu:0000000000000594 .L0 
C:\Users\stapi\AppData\Local\Temp\cc7q2Fhd.s:2448   .text.coap_show_pdu:0000000000000594 .L0 
C:\Users\stapi\AppData\Local\Temp\cc7q2Fhd.s:2449   .text.coap_show_pdu:0000000000000594 .L0 
C:\Users\stapi\AppData\Local\Temp\cc7q2Fhd.s:2450   .text.coap_show_pdu:0000000000000594 .L0 
C:\Users\stapi\AppData\Local\Temp\cc7q2Fhd.s:2451   .text.coap_show_pdu:0000000000000594 .L0 
C:\Users\stapi\AppData\Local\Temp\cc7q2Fhd.s:2452   .text.coap_show_pdu:0000000000000594 .L0 
C:\Users\stapi\AppData\Local\Temp\cc7q2Fhd.s:2455   .text.coap_show_pdu:0000000000000594 .L0 
C:\Users\stapi\AppData\Local\Temp\cc7q2Fhd.s:2456   .text.coap_show_pdu:0000000000000594 .L0 
C:\Users\stapi\AppData\Local\Temp\cc7q2Fhd.s:2460   .text.coap_show_pdu:0000000000000598 .L0 
C:\Users\stapi\AppData\Local\Temp\cc7q2Fhd.s:2463   .text.coap_show_pdu:000000000000059c .L0 
C:\Users\stapi\AppData\Local\Temp\cc7q2Fhd.s:2464   .text.coap_show_pdu:000000000000059c .L0 
C:\Users\stapi\AppData\Local\Temp\cc7q2Fhd.s:2465   .text.coap_show_pdu:000000000000059c .L0 
C:\Users\stapi\AppData\Local\Temp\cc7q2Fhd.s:2469   .text.coap_show_pdu:00000000000005a2 .L0 
C:\Users\stapi\AppData\Local\Temp\cc7q2Fhd.s:2470   .text.coap_show_pdu:00000000000005a2 .L0 
C:\Users\stapi\AppData\Local\Temp\cc7q2Fhd.s:2471   .text.coap_show_pdu:00000000000005a2 .L0 
C:\Users\stapi\AppData\Local\Temp\cc7q2Fhd.s:2472   .text.coap_show_pdu:00000000000005a2 .L0 
C:\Users\stapi\AppData\Local\Temp\cc7q2Fhd.s:2476   .text.coap_show_pdu:00000000000005a8 .L0 
C:\Users\stapi\AppData\Local\Temp\cc7q2Fhd.s:2477   .text.coap_show_pdu:00000000000005a8 .L0 
C:\Users\stapi\AppData\Local\Temp\cc7q2Fhd.s:2478   .text.coap_show_pdu:00000000000005a8 .L0 
C:\Users\stapi\AppData\Local\Temp\cc7q2Fhd.s:2479   .text.coap_show_pdu:00000000000005a8 .L0 
C:\Users\stapi\AppData\Local\Temp\cc7q2Fhd.s:2482   .text.coap_show_pdu:00000000000005ae .L0 
C:\Users\stapi\AppData\Local\Temp\cc7q2Fhd.s:2486   .text.coap_show_pdu:00000000000005b0 .L0 
C:\Users\stapi\AppData\Local\Temp\cc7q2Fhd.s:2487   .text.coap_show_pdu:00000000000005b0 .L0 
C:\Users\stapi\AppData\Local\Temp\cc7q2Fhd.s:2492   .text.coap_show_pdu:00000000000005b8 .L0 
C:\Users\stapi\AppData\Local\Temp\cc7q2Fhd.s:2493   .text.coap_show_pdu:00000000000005b8 .L0 
C:\Users\stapi\AppData\Local\Temp\cc7q2Fhd.s:2500   .text.coap_show_pdu:00000000000005be .L0 
C:\Users\stapi\AppData\Local\Temp\cc7q2Fhd.s:2515   .text.coap_show_pdu:00000000000005da .L0 
C:\Users\stapi\AppData\Local\Temp\cc7q2Fhd.s:2516   .text.coap_show_pdu:00000000000005da .L0 
C:\Users\stapi\AppData\Local\Temp\cc7q2Fhd.s:2519   .text.coap_show_pdu:00000000000005dc .L0 
C:\Users\stapi\AppData\Local\Temp\cc7q2Fhd.s:2520   .text.coap_show_pdu:00000000000005dc .L0 
C:\Users\stapi\AppData\Local\Temp\cc7q2Fhd.s:2523   .text.coap_show_pdu:00000000000005e2 .L0 
C:\Users\stapi\AppData\Local\Temp\cc7q2Fhd.s:2524   .text.coap_show_pdu:00000000000005e2 .L0 
C:\Users\stapi\AppData\Local\Temp\cc7q2Fhd.s:2532   .text.coap_show_pdu:00000000000005ec .L0 
C:\Users\stapi\AppData\Local\Temp\cc7q2Fhd.s:2533   .text.coap_show_pdu:00000000000005ec .L0 
C:\Users\stapi\AppData\Local\Temp\cc7q2Fhd.s:2537   .text.coap_show_pdu:00000000000005f6 .L0 
C:\Users\stapi\AppData\Local\Temp\cc7q2Fhd.s:2539   .text.coap_show_pdu:00000000000005fa .L0 
C:\Users\stapi\AppData\Local\Temp\cc7q2Fhd.s:2543   .text.coap_show_pdu:0000000000000604 .L0 
C:\Users\stapi\AppData\Local\Temp\cc7q2Fhd.s:2545   .text.coap_show_pdu:0000000000000608 .L0 
C:\Users\stapi\AppData\Local\Temp\cc7q2Fhd.s:2550   .text.coap_show_pdu:0000000000000616 .L0 
C:\Users\stapi\AppData\Local\Temp\cc7q2Fhd.s:2559   .text.coap_show_pdu:000000000000062e .L0 
C:\Users\stapi\AppData\Local\Temp\cc7q2Fhd.s:2564   .text.coap_show_pdu:000000000000063a .L0 
C:\Users\stapi\AppData\Local\Temp\cc7q2Fhd.s:2565   .text.coap_show_pdu:000000000000063a .L0 
C:\Users\stapi\AppData\Local\Temp\cc7q2Fhd.s:2571   .text.coap_show_pdu:0000000000000648 .L0 
C:\Users\stapi\AppData\Local\Temp\cc7q2Fhd.s:2573   .text.coap_show_pdu:000000000000064a .L0 
C:\Users\stapi\AppData\Local\Temp\cc7q2Fhd.s:2574   .text.coap_show_pdu:000000000000064a .L0 
C:\Users\stapi\AppData\Local\Temp\cc7q2Fhd.s:2579   .text.coap_show_pdu:0000000000000656 .L0 
C:\Users\stapi\AppData\Local\Temp\cc7q2Fhd.s:2583   .text.coap_show_pdu:0000000000000660 .L0 
C:\Users\stapi\AppData\Local\Temp\cc7q2Fhd.s:2588   .text.coap_show_pdu:0000000000000666 .L0 
C:\Users\stapi\AppData\Local\Temp\cc7q2Fhd.s:2595   .text.coap_show_pdu:0000000000000672 .L0 
C:\Users\stapi\AppData\Local\Temp\cc7q2Fhd.s:2603   .text.coap_show_pdu:0000000000000682 .L0 
C:\Users\stapi\AppData\Local\Temp\cc7q2Fhd.s:2607   .text.coap_show_pdu:000000000000068c .L0 
C:\Users\stapi\AppData\Local\Temp\cc7q2Fhd.s:2609   .text.coap_show_pdu:000000000000068e .L0 
C:\Users\stapi\AppData\Local\Temp\cc7q2Fhd.s:2614   .text.coap_show_pdu:000000000000069a .L0 
C:\Users\stapi\AppData\Local\Temp\cc7q2Fhd.s:2623   .text.coap_show_pdu:00000000000006b2 .L0 
C:\Users\stapi\AppData\Local\Temp\cc7q2Fhd.s:2627   .text.coap_show_pdu:00000000000006ba .L0 
C:\Users\stapi\AppData\Local\Temp\cc7q2Fhd.s:2631   .text.coap_show_pdu:00000000000006c0 .L0 
C:\Users\stapi\AppData\Local\Temp\cc7q2Fhd.s:2632   .text.coap_show_pdu:00000000000006c0 .L0 
C:\Users\stapi\AppData\Local\Temp\cc7q2Fhd.s:2637   .text.coap_show_pdu:00000000000006cc .L0 
C:\Users\stapi\AppData\Local\Temp\cc7q2Fhd.s:2641   .text.coap_show_pdu:00000000000006d6 .L0 
C:\Users\stapi\AppData\Local\Temp\cc7q2Fhd.s:2646   .text.coap_show_pdu:00000000000006dc .L0 
C:\Users\stapi\AppData\Local\Temp\cc7q2Fhd.s:2656   .text.coap_show_pdu:00000000000006f6 .L0 
C:\Users\stapi\AppData\Local\Temp\cc7q2Fhd.s:2660   .text.coap_show_pdu:0000000000000700 .L0 
C:\Users\stapi\AppData\Local\Temp\cc7q2Fhd.s:2662   .text.coap_show_pdu:0000000000000702 .L0 
C:\Users\stapi\AppData\Local\Temp\cc7q2Fhd.s:2667   .text.coap_show_pdu:000000000000070e .L0 
C:\Users\stapi\AppData\Local\Temp\cc7q2Fhd.s:2676   .text.coap_show_pdu:0000000000000726 .L0 
C:\Users\stapi\AppData\Local\Temp\cc7q2Fhd.s:2680   .text.coap_show_pdu:000000000000072e .L0 
C:\Users\stapi\AppData\Local\Temp\cc7q2Fhd.s:2684   .text.coap_show_pdu:0000000000000734 .L0 
C:\Users\stapi\AppData\Local\Temp\cc7q2Fhd.s:2685   .text.coap_show_pdu:0000000000000734 .L0 
C:\Users\stapi\AppData\Local\Temp\cc7q2Fhd.s:2690   .text.coap_show_pdu:0000000000000740 .L0 
C:\Users\stapi\AppData\Local\Temp\cc7q2Fhd.s:2694   .text.coap_show_pdu:000000000000074a .L0 
C:\Users\stapi\AppData\Local\Temp\cc7q2Fhd.s:2699   .text.coap_show_pdu:0000000000000750 .L0 
C:\Users\stapi\AppData\Local\Temp\cc7q2Fhd.s:2703   .text.coap_show_pdu:000000000000075a .L0 
C:\Users\stapi\AppData\Local\Temp\cc7q2Fhd.s:2706   .text.coap_show_pdu:000000000000075c .L0 
C:\Users\stapi\AppData\Local\Temp\cc7q2Fhd.s:2710   .text.coap_show_pdu:000000000000075e .L0 
C:\Users\stapi\AppData\Local\Temp\cc7q2Fhd.s:2718   .text.coap_show_pdu:000000000000076c .L0 
C:\Users\stapi\AppData\Local\Temp\cc7q2Fhd.s:2722   .text.coap_show_pdu:0000000000000776 .L0 
C:\Users\stapi\AppData\Local\Temp\cc7q2Fhd.s:2724   .text.coap_show_pdu:0000000000000778 .L0 
C:\Users\stapi\AppData\Local\Temp\cc7q2Fhd.s:2729   .text.coap_show_pdu:0000000000000784 .L0 
C:\Users\stapi\AppData\Local\Temp\cc7q2Fhd.s:2738   .text.coap_show_pdu:000000000000079c .L0 
C:\Users\stapi\AppData\Local\Temp\cc7q2Fhd.s:2742   .text.coap_show_pdu:00000000000007a4 .L0 
C:\Users\stapi\AppData\Local\Temp\cc7q2Fhd.s:2746   .text.coap_show_pdu:00000000000007aa .L0 
C:\Users\stapi\AppData\Local\Temp\cc7q2Fhd.s:2750   .text.coap_show_pdu:00000000000007b4 .L0 
C:\Users\stapi\AppData\Local\Temp\cc7q2Fhd.s:2752   .text.coap_show_pdu:00000000000007b6 .L0 
C:\Users\stapi\AppData\Local\Temp\cc7q2Fhd.s:2757   .text.coap_show_pdu:00000000000007c2 .L0 
C:\Users\stapi\AppData\Local\Temp\cc7q2Fhd.s:2767   .text.coap_show_pdu:00000000000007da .L0 
C:\Users\stapi\AppData\Local\Temp\cc7q2Fhd.s:2771   .text.coap_show_pdu:00000000000007e2 .L0 
C:\Users\stapi\AppData\Local\Temp\cc7q2Fhd.s:2776   .text.coap_show_pdu:00000000000007e8 .L0 
C:\Users\stapi\AppData\Local\Temp\cc7q2Fhd.s:2777   .text.coap_show_pdu:00000000000007e8 .L0 
C:\Users\stapi\AppData\Local\Temp\cc7q2Fhd.s:2781   .text.coap_show_pdu:00000000000007f2 .L0 
C:\Users\stapi\AppData\Local\Temp\cc7q2Fhd.s:2783   .text.coap_show_pdu:00000000000007f6 .L0 
C:\Users\stapi\AppData\Local\Temp\cc7q2Fhd.s:2786   .text.coap_show_pdu:00000000000007f8 .L0 
C:\Users\stapi\AppData\Local\Temp\cc7q2Fhd.s:2787   .text.coap_show_pdu:00000000000007f8 .L0 
C:\Users\stapi\AppData\Local\Temp\cc7q2Fhd.s:2788   .text.coap_show_pdu:00000000000007f8 .L0 
C:\Users\stapi\AppData\Local\Temp\cc7q2Fhd.s:2793   .text.coap_show_pdu:00000000000007fa .L0 
C:\Users\stapi\AppData\Local\Temp\cc7q2Fhd.s:2794   .text.coap_show_pdu:00000000000007fa .L0 
C:\Users\stapi\AppData\Local\Temp\cc7q2Fhd.s:2800   .text.coap_show_pdu:0000000000000806 .L0 
C:\Users\stapi\AppData\Local\Temp\cc7q2Fhd.s:2801   .text.coap_show_pdu:0000000000000806 .L0 
C:\Users\stapi\AppData\Local\Temp\cc7q2Fhd.s:2802   .text.coap_show_pdu:0000000000000806 .L0 
C:\Users\stapi\AppData\Local\Temp\cc7q2Fhd.s:2804   .text.coap_show_pdu:0000000000000808 .L0 
C:\Users\stapi\AppData\Local\Temp\cc7q2Fhd.s:2809   .text.coap_show_pdu:000000000000080a .L0 
C:\Users\stapi\AppData\Local\Temp\cc7q2Fhd.s:2810   .text.coap_show_pdu:000000000000080a .L0 
C:\Users\stapi\AppData\Local\Temp\cc7q2Fhd.s:2811   .text.coap_show_pdu:000000000000080a .L0 
C:\Users\stapi\AppData\Local\Temp\cc7q2Fhd.s:2812   .text.coap_show_pdu:000000000000080a .L0 
C:\Users\stapi\AppData\Local\Temp\cc7q2Fhd.s:2817   .text.coap_show_pdu:0000000000000814 .L0 
C:\Users\stapi\AppData\Local\Temp\cc7q2Fhd.s:2819   .text.coap_show_pdu:0000000000000818 .L0 
C:\Users\stapi\AppData\Local\Temp\cc7q2Fhd.s:2822   .text.coap_show_pdu:000000000000081a .L0 
C:\Users\stapi\AppData\Local\Temp\cc7q2Fhd.s:2823   .text.coap_show_pdu:000000000000081a .L0 
C:\Users\stapi\AppData\Local\Temp\cc7q2Fhd.s:2826   .text.coap_show_pdu:0000000000000820 .L0 
C:\Users\stapi\AppData\Local\Temp\cc7q2Fhd.s:2834   .text.coap_show_pdu:0000000000000832 .L0 
C:\Users\stapi\AppData\Local\Temp\cc7q2Fhd.s:2838   .text.coap_show_pdu:0000000000000838 .L0 
C:\Users\stapi\AppData\Local\Temp\cc7q2Fhd.s:2841   .text.coap_show_pdu:000000000000083c .L0 
C:\Users\stapi\AppData\Local\Temp\cc7q2Fhd.s:2842   .text.coap_show_pdu:000000000000083c .L0 
C:\Users\stapi\AppData\Local\Temp\cc7q2Fhd.s:2843   .text.coap_show_pdu:000000000000083c .L0 
C:\Users\stapi\AppData\Local\Temp\cc7q2Fhd.s:2845   .text.coap_show_pdu:0000000000000840 .L0 
C:\Users\stapi\AppData\Local\Temp\cc7q2Fhd.s:2847   .text.coap_show_pdu:0000000000000844 .L0 
C:\Users\stapi\AppData\Local\Temp\cc7q2Fhd.s:2853   .text.coap_show_pdu:0000000000000850 .L0 
C:\Users\stapi\AppData\Local\Temp\cc7q2Fhd.s:2854   .text.coap_show_pdu:0000000000000850 .L0 
C:\Users\stapi\AppData\Local\Temp\cc7q2Fhd.s:2855   .text.coap_show_pdu:0000000000000850 .L0 
C:\Users\stapi\AppData\Local\Temp\cc7q2Fhd.s:2857   .text.coap_show_pdu:0000000000000852 .L0 
C:\Users\stapi\AppData\Local\Temp\cc7q2Fhd.s:2859   .text.coap_show_pdu:0000000000000856 .L0 
C:\Users\stapi\AppData\Local\Temp\cc7q2Fhd.s:2861   .text.coap_show_pdu:0000000000000858 .L0 
C:\Users\stapi\AppData\Local\Temp\cc7q2Fhd.s:2868   .text.coap_show_pdu:0000000000000866 .L0 
C:\Users\stapi\AppData\Local\Temp\cc7q2Fhd.s:2873   .text.coap_show_pdu:0000000000000876 .L0 
C:\Users\stapi\AppData\Local\Temp\cc7q2Fhd.s:2874   .text.coap_show_pdu:0000000000000876 .L0 
C:\Users\stapi\AppData\Local\Temp\cc7q2Fhd.s:2875   .text.coap_show_pdu:0000000000000876 .L0 
C:\Users\stapi\AppData\Local\Temp\cc7q2Fhd.s:2877   .text.coap_show_pdu:0000000000000878 .L0 
C:\Users\stapi\AppData\Local\Temp\cc7q2Fhd.s:2881   .text.coap_show_pdu:000000000000087c .L0 
C:\Users\stapi\AppData\Local\Temp\cc7q2Fhd.s:2882   .text.coap_show_pdu:000000000000087c .L0 
C:\Users\stapi\AppData\Local\Temp\cc7q2Fhd.s:2886   .text.coap_show_pdu:0000000000000886 .L0 
C:\Users\stapi\AppData\Local\Temp\cc7q2Fhd.s:2887   .text.coap_show_pdu:0000000000000886 .L0 
C:\Users\stapi\AppData\Local\Temp\cc7q2Fhd.s:2890   .text.coap_show_pdu:0000000000000888 .L0 
C:\Users\stapi\AppData\Local\Temp\cc7q2Fhd.s:2892   .text.coap_show_pdu:000000000000088c .L0 
C:\Users\stapi\AppData\Local\Temp\cc7q2Fhd.s:2901   .text.coap_show_pdu:00000000000008a4 .L0 
C:\Users\stapi\AppData\Local\Temp\cc7q2Fhd.s:2902   .text.coap_show_pdu:00000000000008a4 .L0 
C:\Users\stapi\AppData\Local\Temp\cc7q2Fhd.s:2903   .text.coap_show_pdu:00000000000008a4 .L0 
C:\Users\stapi\AppData\Local\Temp\cc7q2Fhd.s:2905   .text.coap_show_pdu:00000000000008a8 .L0 
C:\Users\stapi\AppData\Local\Temp\cc7q2Fhd.s:2906   .text.coap_show_pdu:00000000000008a8 .L0 
C:\Users\stapi\AppData\Local\Temp\cc7q2Fhd.s:2910   .text.coap_show_pdu:00000000000008aa .L0 
C:\Users\stapi\AppData\Local\Temp\cc7q2Fhd.s:2911   .text.coap_show_pdu:00000000000008aa .L0 
C:\Users\stapi\AppData\Local\Temp\cc7q2Fhd.s:2915   .text.coap_show_pdu:00000000000008b2 .L0 
C:\Users\stapi\AppData\Local\Temp\cc7q2Fhd.s:2916   .text.coap_show_pdu:00000000000008b2 .L0 
C:\Users\stapi\AppData\Local\Temp\cc7q2Fhd.s:2918   .text.coap_show_pdu:00000000000008b6 .L0 
C:\Users\stapi\AppData\Local\Temp\cc7q2Fhd.s:2919   .text.coap_show_pdu:00000000000008b6 .L0 
C:\Users\stapi\AppData\Local\Temp\cc7q2Fhd.s:2921   .text.coap_show_pdu:00000000000008ba .L0 
C:\Users\stapi\AppData\Local\Temp\cc7q2Fhd.s:2924   .text.coap_show_pdu:00000000000008be .L0 
C:\Users\stapi\AppData\Local\Temp\cc7q2Fhd.s:2925   .text.coap_show_pdu:00000000000008be .L0 
C:\Users\stapi\AppData\Local\Temp\cc7q2Fhd.s:2928   .text.coap_show_pdu:00000000000008c4 .L0 
C:\Users\stapi\AppData\Local\Temp\cc7q2Fhd.s:2930   .text.coap_show_pdu:00000000000008c8 .L0 
C:\Users\stapi\AppData\Local\Temp\cc7q2Fhd.s:2934   .text.coap_show_pdu:00000000000008d2 .L0 
C:\Users\stapi\AppData\Local\Temp\cc7q2Fhd.s:2936   .text.coap_show_pdu:00000000000008d6 .L0 
C:\Users\stapi\AppData\Local\Temp\cc7q2Fhd.s:2938   .text.coap_show_pdu:00000000000008d8 .L0 
C:\Users\stapi\AppData\Local\Temp\cc7q2Fhd.s:2939   .text.coap_show_pdu:00000000000008d8 .L0 
C:\Users\stapi\AppData\Local\Temp\cc7q2Fhd.s:2942   .text.coap_show_pdu:00000000000008da .L0 
C:\Users\stapi\AppData\Local\Temp\cc7q2Fhd.s:2943   .text.coap_show_pdu:00000000000008da .L0 
C:\Users\stapi\AppData\Local\Temp\cc7q2Fhd.s:2945   .text.coap_show_pdu:00000000000008de .L0 
C:\Users\stapi\AppData\Local\Temp\cc7q2Fhd.s:2949   .text.coap_show_pdu:00000000000008e2 .L0 
C:\Users\stapi\AppData\Local\Temp\cc7q2Fhd.s:2956   .text.coap_show_pdu:00000000000008f0 .L0 
C:\Users\stapi\AppData\Local\Temp\cc7q2Fhd.s:2962   .text.coap_show_pdu:0000000000000902 .L0 
C:\Users\stapi\AppData\Local\Temp\cc7q2Fhd.s:2963   .text.coap_show_pdu:0000000000000902 .L0 
C:\Users\stapi\AppData\Local\Temp\cc7q2Fhd.s:2967   .text.coap_show_pdu:0000000000000904 .L0 
C:\Users\stapi\AppData\Local\Temp\cc7q2Fhd.s:2968   .text.coap_show_pdu:0000000000000904 .L0 
C:\Users\stapi\AppData\Local\Temp\cc7q2Fhd.s:2972   .text.coap_show_pdu:000000000000090e .L0 
C:\Users\stapi\AppData\Local\Temp\cc7q2Fhd.s:2975   .text.coap_show_pdu:0000000000000914 .L0 
C:\Users\stapi\AppData\Local\Temp\cc7q2Fhd.s:2976   .text.coap_show_pdu:0000000000000914 .L0 
C:\Users\stapi\AppData\Local\Temp\cc7q2Fhd.s:2981   .text.coap_show_pdu:000000000000091a .L0 
C:\Users\stapi\AppData\Local\Temp\cc7q2Fhd.s:2982   .text.coap_show_pdu:000000000000091a .L0 
C:\Users\stapi\AppData\Local\Temp\cc7q2Fhd.s:2986   .text.coap_show_pdu:0000000000000924 .L0 
C:\Users\stapi\AppData\Local\Temp\cc7q2Fhd.s:2987   .text.coap_show_pdu:0000000000000924 .L0 
C:\Users\stapi\AppData\Local\Temp\cc7q2Fhd.s:2989   .text.coap_show_pdu:0000000000000928 .L0 
C:\Users\stapi\AppData\Local\Temp\cc7q2Fhd.s:2994   .text.coap_show_pdu:0000000000000934 .L0 
C:\Users\stapi\AppData\Local\Temp\cc7q2Fhd.s:2995   .text.coap_show_pdu:0000000000000934 .L0 
C:\Users\stapi\AppData\Local\Temp\cc7q2Fhd.s:2997   .text.coap_show_pdu:0000000000000936 .L0 
C:\Users\stapi\AppData\Local\Temp\cc7q2Fhd.s:2999   .text.coap_show_pdu:000000000000093a .L0 
C:\Users\stapi\AppData\Local\Temp\cc7q2Fhd.s:3002   .text.coap_show_pdu:000000000000093e .L0 
C:\Users\stapi\AppData\Local\Temp\cc7q2Fhd.s:3003   .text.coap_show_pdu:000000000000093e .L0 
C:\Users\stapi\AppData\Local\Temp\cc7q2Fhd.s:3004   .text.coap_show_pdu:000000000000093e .L0 
C:\Users\stapi\AppData\Local\Temp\cc7q2Fhd.s:3006   .text.coap_show_pdu:0000000000000940 .L0 
C:\Users\stapi\AppData\Local\Temp\cc7q2Fhd.s:3013   .text.coap_show_pdu:000000000000094e .L0 
C:\Users\stapi\AppData\Local\Temp\cc7q2Fhd.s:3018   .text.coap_show_pdu:000000000000095e .L0 
C:\Users\stapi\AppData\Local\Temp\cc7q2Fhd.s:3019   .text.coap_show_pdu:000000000000095e .L0 
C:\Users\stapi\AppData\Local\Temp\cc7q2Fhd.s:3021   .text.coap_show_pdu:0000000000000960 .L0 
C:\Users\stapi\AppData\Local\Temp\cc7q2Fhd.s:3025   .text.coap_show_pdu:0000000000000964 .L0 
C:\Users\stapi\AppData\Local\Temp\cc7q2Fhd.s:3026   .text.coap_show_pdu:0000000000000964 .L0 
C:\Users\stapi\AppData\Local\Temp\cc7q2Fhd.s:3030   .text.coap_show_pdu:000000000000096e .L0 
C:\Users\stapi\AppData\Local\Temp\cc7q2Fhd.s:3032   .text.coap_show_pdu:0000000000000972 .L0 
C:\Users\stapi\AppData\Local\Temp\cc7q2Fhd.s:3033   .text.coap_show_pdu:0000000000000972 .L0 
C:\Users\stapi\AppData\Local\Temp\cc7q2Fhd.s:3034   .text.coap_show_pdu:0000000000000972 .L0 
C:\Users\stapi\AppData\Local\Temp\cc7q2Fhd.s:3037   .text.coap_show_pdu:0000000000000978 .L0 
C:\Users\stapi\AppData\Local\Temp\cc7q2Fhd.s:3045   .text.coap_show_pdu:0000000000000990 .L0 
C:\Users\stapi\AppData\Local\Temp\cc7q2Fhd.s:3046   .text.coap_show_pdu:0000000000000990 .L0 
C:\Users\stapi\AppData\Local\Temp\cc7q2Fhd.s:3052   .text.coap_show_pdu:0000000000000994 .L0 
C:\Users\stapi\AppData\Local\Temp\cc7q2Fhd.s:3057   .text.coap_show_pdu:0000000000000998 .L0 
C:\Users\stapi\AppData\Local\Temp\cc7q2Fhd.s:3058   .text.coap_show_pdu:0000000000000998 .L0 
C:\Users\stapi\AppData\Local\Temp\cc7q2Fhd.s:3067   .text.coap_show_pdu:00000000000009b4 .L0 
C:\Users\stapi\AppData\Local\Temp\cc7q2Fhd.s:3068   .text.coap_show_pdu:00000000000009b4 .L0 
C:\Users\stapi\AppData\Local\Temp\cc7q2Fhd.s:3075   .text.coap_show_pdu:00000000000009b8 .L0 
C:\Users\stapi\AppData\Local\Temp\cc7q2Fhd.s:3076   .text.coap_show_pdu:00000000000009b8 .L0 
C:\Users\stapi\AppData\Local\Temp\cc7q2Fhd.s:3080   .text.coap_show_pdu:00000000000009c2 .L0 
C:\Users\stapi\AppData\Local\Temp\cc7q2Fhd.s:3084   .text.coap_show_pdu:00000000000009c8 .L0 
C:\Users\stapi\AppData\Local\Temp\cc7q2Fhd.s:3085   .text.coap_show_pdu:00000000000009c8 .L0 
C:\Users\stapi\AppData\Local\Temp\cc7q2Fhd.s:3088   .text.coap_show_pdu:00000000000009d0 .L0 
C:\Users\stapi\AppData\Local\Temp\cc7q2Fhd.s:3090   .text.coap_show_pdu:00000000000009d2 .L0 
C:\Users\stapi\AppData\Local\Temp\cc7q2Fhd.s:3092   .text.coap_show_pdu:00000000000009d6 .L0 
C:\Users\stapi\AppData\Local\Temp\cc7q2Fhd.s:3102   .text.coap_show_pdu:00000000000009f0 .L0 
C:\Users\stapi\AppData\Local\Temp\cc7q2Fhd.s:3106   .text.coap_show_pdu:00000000000009f4 .L0 
C:\Users\stapi\AppData\Local\Temp\cc7q2Fhd.s:3107   .text.coap_show_pdu:00000000000009f4 .L0 
C:\Users\stapi\AppData\Local\Temp\cc7q2Fhd.s:3111   .text.coap_show_pdu:00000000000009fe .L0 
C:\Users\stapi\AppData\Local\Temp\cc7q2Fhd.s:3115   .text.coap_show_pdu:0000000000000a08 .L0 
C:\Users\stapi\AppData\Local\Temp\cc7q2Fhd.s:3117   .text.coap_show_pdu:0000000000000a0a .L0 
C:\Users\stapi\AppData\Local\Temp\cc7q2Fhd.s:3124   .text.coap_show_pdu:0000000000000a0e .L0 
C:\Users\stapi\AppData\Local\Temp\cc7q2Fhd.s:3129   .text.coap_show_pdu:0000000000000a12 .L0 
C:\Users\stapi\AppData\Local\Temp\cc7q2Fhd.s:3134   .text.coap_show_pdu:0000000000000a16 .L0 
C:\Users\stapi\AppData\Local\Temp\cc7q2Fhd.s:3135   .text.coap_show_pdu:0000000000000a16 .L0 
C:\Users\stapi\AppData\Local\Temp\cc7q2Fhd.s:3137   .text.coap_show_pdu:0000000000000a1a .L0 
C:\Users\stapi\AppData\Local\Temp\cc7q2Fhd.s:3142   .text.coap_show_pdu:0000000000000a24 .L0 
C:\Users\stapi\AppData\Local\Temp\cc7q2Fhd.s:3143   .text.coap_show_pdu:0000000000000a24 .L0 
C:\Users\stapi\AppData\Local\Temp\cc7q2Fhd.s:3144   .text.coap_show_pdu:0000000000000a24 .L0 
C:\Users\stapi\AppData\Local\Temp\cc7q2Fhd.s:3150   .text.coap_show_pdu:0000000000000a2a .L0 
C:\Users\stapi\AppData\Local\Temp\cc7q2Fhd.s:3158   .text.coap_show_pdu:0000000000000a44 .L0 
C:\Users\stapi\AppData\Local\Temp\cc7q2Fhd.s:3159   .text.coap_show_pdu:0000000000000a44 .L0 
C:\Users\stapi\AppData\Local\Temp\cc7q2Fhd.s:3164   .text.coap_show_pdu:0000000000000a4a .L0 
C:\Users\stapi\AppData\Local\Temp\cc7q2Fhd.s:3165   .text.coap_show_pdu:0000000000000a4a .L0 
C:\Users\stapi\AppData\Local\Temp\cc7q2Fhd.s:3169   .text.coap_show_pdu:0000000000000a52 .L0 
C:\Users\stapi\AppData\Local\Temp\cc7q2Fhd.s:3170   .text.coap_show_pdu:0000000000000a52 .L0 
C:\Users\stapi\AppData\Local\Temp\cc7q2Fhd.s:3171   .text.coap_show_pdu:0000000000000a52 .L0 
C:\Users\stapi\AppData\Local\Temp\cc7q2Fhd.s:3176   .text.coap_show_pdu:0000000000000a58 .L0 
C:\Users\stapi\AppData\Local\Temp\cc7q2Fhd.s:3177   .text.coap_show_pdu:0000000000000a58 .L0 
C:\Users\stapi\AppData\Local\Temp\cc7q2Fhd.s:3178   .text.coap_show_pdu:0000000000000a58 .L0 
C:\Users\stapi\AppData\Local\Temp\cc7q2Fhd.s:3179   .text.coap_show_pdu:0000000000000a58 .L0 
C:\Users\stapi\AppData\Local\Temp\cc7q2Fhd.s:3182   .text.coap_show_pdu:0000000000000a5e .L0 
C:\Users\stapi\AppData\Local\Temp\cc7q2Fhd.s:3186   .text.coap_show_pdu:0000000000000a60 .L0 
C:\Users\stapi\AppData\Local\Temp\cc7q2Fhd.s:3187   .text.coap_show_pdu:0000000000000a60 .L0 
C:\Users\stapi\AppData\Local\Temp\cc7q2Fhd.s:3193   .text.coap_show_pdu:0000000000000a6a .L0 
C:\Users\stapi\AppData\Local\Temp\cc7q2Fhd.s:3198   .text.coap_show_pdu:0000000000000a6e .L0 
C:\Users\stapi\AppData\Local\Temp\cc7q2Fhd.s:3199   .text.coap_show_pdu:0000000000000a6e .L0 
C:\Users\stapi\AppData\Local\Temp\cc7q2Fhd.s:3203   .text.coap_show_pdu:0000000000000a76 .L0 
C:\Users\stapi\AppData\Local\Temp\cc7q2Fhd.s:3204   .text.coap_show_pdu:0000000000000a76 .L0 
C:\Users\stapi\AppData\Local\Temp\cc7q2Fhd.s:3205   .text.coap_show_pdu:0000000000000a76 .L0 
C:\Users\stapi\AppData\Local\Temp\cc7q2Fhd.s:3209   .text.coap_show_pdu:0000000000000a7c .L0 
C:\Users\stapi\AppData\Local\Temp\cc7q2Fhd.s:3218   .text.coap_show_pdu:0000000000000a8e .L0 
C:\Users\stapi\AppData\Local\Temp\cc7q2Fhd.s:3222   .text.coap_show_pdu:0000000000000a94 .L0 
C:\Users\stapi\AppData\Local\Temp\cc7q2Fhd.s:3226   .text.coap_show_pdu:0000000000000a96 .L0 
C:\Users\stapi\AppData\Local\Temp\cc7q2Fhd.s:3227   .text.coap_show_pdu:0000000000000a96 .L0 
C:\Users\stapi\AppData\Local\Temp\cc7q2Fhd.s:3230   .text.coap_show_pdu:0000000000000a9e .L0 
C:\Users\stapi\AppData\Local\Temp\cc7q2Fhd.s:3231   .text.coap_show_pdu:0000000000000a9e .L0 
C:\Users\stapi\AppData\Local\Temp\cc7q2Fhd.s:3234   .text.coap_show_pdu:0000000000000aa0 .L0 
C:\Users\stapi\AppData\Local\Temp\cc7q2Fhd.s:3235   .text.coap_show_pdu:0000000000000aa0 .L0 
C:\Users\stapi\AppData\Local\Temp\cc7q2Fhd.s:3241   .text.coap_show_pdu:0000000000000aa8 .L0 
C:\Users\stapi\AppData\Local\Temp\cc7q2Fhd.s:3251   .text.coap_show_pdu:0000000000000ab2 .L0 
C:\Users\stapi\AppData\Local\Temp\cc7q2Fhd.s:3254   .text.coap_show_pdu:0000000000000ab2 .L0 
C:\Users\stapi\AppData\Local\Temp\cc7q2Fhd.s:3257   .text.coap_show_pdu:0000000000000ab2 .L0 
C:\Users\stapi\AppData\Local\Temp\cc7q2Fhd.s:3258   .text.coap_show_pdu:0000000000000ab2 .L0 
C:\Users\stapi\AppData\Local\Temp\cc7q2Fhd.s:3261   .text.coap_show_pdu:0000000000000aba .L0 
C:\Users\stapi\AppData\Local\Temp\cc7q2Fhd.s:3271   .text.coap_show_pdu:0000000000000ad2 .L0 
C:\Users\stapi\AppData\Local\Temp\cc7q2Fhd.s:3272   .text.coap_show_pdu:0000000000000ad2 .L0 
C:\Users\stapi\AppData\Local\Temp\cc7q2Fhd.s:3275   .text.coap_show_pdu:0000000000000ada .L0 
C:\Users\stapi\AppData\Local\Temp\cc7q2Fhd.s:3276   .text.coap_show_pdu:0000000000000ada .L0 
C:\Users\stapi\AppData\Local\Temp\cc7q2Fhd.s:3278   .text.coap_show_pdu:0000000000000adc .L0 
C:\Users\stapi\AppData\Local\Temp\cc7q2Fhd.s:3281   .text.coap_show_pdu:0000000000000ae4 .L0 
C:\Users\stapi\AppData\Local\Temp\cc7q2Fhd.s:3284   .text.coap_show_pdu:0000000000000aea .L0 
C:\Users\stapi\AppData\Local\Temp\cc7q2Fhd.s:3293   .text.coap_show_pdu:0000000000000afe .L0 
C:\Users\stapi\AppData\Local\Temp\cc7q2Fhd.s:3296   .text.coap_show_pdu:0000000000000afe .L0 
C:\Users\stapi\AppData\Local\Temp\cc7q2Fhd.s:3299   .text.coap_show_pdu:0000000000000afe .L0 
C:\Users\stapi\AppData\Local\Temp\cc7q2Fhd.s:3300   .text.coap_show_pdu:0000000000000afe .L0 
C:\Users\stapi\AppData\Local\Temp\cc7q2Fhd.s:3303   .text.coap_show_pdu:0000000000000b06 .L0 
C:\Users\stapi\AppData\Local\Temp\cc7q2Fhd.s:3313   .text.coap_show_pdu:0000000000000b1e .L0 
C:\Users\stapi\AppData\Local\Temp\cc7q2Fhd.s:3314   .text.coap_show_pdu:0000000000000b1e .L0 
C:\Users\stapi\AppData\Local\Temp\cc7q2Fhd.s:3317   .text.coap_show_pdu:0000000000000b26 .L0 
C:\Users\stapi\AppData\Local\Temp\cc7q2Fhd.s:3319   .text.coap_show_pdu:0000000000000b28 .L0 
C:\Users\stapi\AppData\Local\Temp\cc7q2Fhd.s:3322   .text.coap_show_pdu:0000000000000b2a .L0 
C:\Users\stapi\AppData\Local\Temp\cc7q2Fhd.s:3325   .text.coap_show_pdu:0000000000000b2c .L0 
C:\Users\stapi\AppData\Local\Temp\cc7q2Fhd.s:3327   .text.coap_show_pdu:0000000000000b2e .L0 
C:\Users\stapi\AppData\Local\Temp\cc7q2Fhd.s:3330   .text.coap_show_pdu:0000000000000b32 .L0 
C:\Users\stapi\AppData\Local\Temp\cc7q2Fhd.s:3335   .text.coap_show_pdu:0000000000000b42 .L0 
C:\Users\stapi\AppData\Local\Temp\cc7q2Fhd.s:3339   .text.coap_show_pdu:0000000000000b48 .L0 
C:\Users\stapi\AppData\Local\Temp\cc7q2Fhd.s:3343   .text.coap_show_pdu:0000000000000b54 .L0 
C:\Users\stapi\AppData\Local\Temp\cc7q2Fhd.s:3344   .text.coap_show_pdu:0000000000000b54 .L0 
C:\Users\stapi\AppData\Local\Temp\cc7q2Fhd.s:3353   .text.coap_show_pdu:0000000000000b5e .L0 
C:\Users\stapi\AppData\Local\Temp\cc7q2Fhd.s:3357   .text.coap_show_pdu:0000000000000b68 .L0 
C:\Users\stapi\AppData\Local\Temp\cc7q2Fhd.s:3358   .text.coap_show_pdu:0000000000000b68 .L0 
C:\Users\stapi\AppData\Local\Temp\cc7q2Fhd.s:3359   .text.coap_show_pdu:0000000000000b68 .L0 
C:\Users\stapi\AppData\Local\Temp\cc7q2Fhd.s:3360   .text.coap_show_pdu:0000000000000b68 .L0 
C:\Users\stapi\AppData\Local\Temp\cc7q2Fhd.s:3361   .text.coap_show_pdu:0000000000000b68 .L0 
C:\Users\stapi\AppData\Local\Temp\cc7q2Fhd.s:3364   .text.coap_show_pdu:0000000000000b6e .L0 
C:\Users\stapi\AppData\Local\Temp\cc7q2Fhd.s:3367   .text.coap_show_pdu:0000000000000b74 .L0 
C:\Users\stapi\AppData\Local\Temp\cc7q2Fhd.s:3368   .text.coap_show_pdu:0000000000000b74 .L0 
C:\Users\stapi\AppData\Local\Temp\cc7q2Fhd.s:3373   .text.coap_show_pdu:0000000000000b80 .L0 
C:\Users\stapi\AppData\Local\Temp\cc7q2Fhd.s:3376   .text.coap_show_pdu:0000000000000b84 .L0 
C:\Users\stapi\AppData\Local\Temp\cc7q2Fhd.s:3377   .text.coap_show_pdu:0000000000000b84 .L0 
C:\Users\stapi\AppData\Local\Temp\cc7q2Fhd.s:3380   .text.coap_show_pdu:0000000000000b88 .L0 
C:\Users\stapi\AppData\Local\Temp\cc7q2Fhd.s:3382   .text.coap_show_pdu:0000000000000b8c .L0 
C:\Users\stapi\AppData\Local\Temp\cc7q2Fhd.s:3384   .text.coap_show_pdu:0000000000000b90 .L0 
C:\Users\stapi\AppData\Local\Temp\cc7q2Fhd.s:3385   .text.coap_show_pdu:0000000000000b90 .L0 
C:\Users\stapi\AppData\Local\Temp\cc7q2Fhd.s:3388   .text.coap_show_pdu:0000000000000b92 .L0 
C:\Users\stapi\AppData\Local\Temp\cc7q2Fhd.s:3389   .text.coap_show_pdu:0000000000000b92 .L0 
C:\Users\stapi\AppData\Local\Temp\cc7q2Fhd.s:3391   .text.coap_show_pdu:0000000000000b96 .L0 
C:\Users\stapi\AppData\Local\Temp\cc7q2Fhd.s:3392   .text.coap_show_pdu:0000000000000b96 .L0 
C:\Users\stapi\AppData\Local\Temp\cc7q2Fhd.s:3400   .text.coap_show_pdu:0000000000000baa .L0 
C:\Users\stapi\AppData\Local\Temp\cc7q2Fhd.s:3404   .text.coap_show_pdu:0000000000000bac .L0 
C:\Users\stapi\AppData\Local\Temp\cc7q2Fhd.s:3405   .text.coap_show_pdu:0000000000000bac .L0 
C:\Users\stapi\AppData\Local\Temp\cc7q2Fhd.s:3409   .text.coap_show_pdu:0000000000000bb4 .L0 
C:\Users\stapi\AppData\Local\Temp\cc7q2Fhd.s:3410   .text.coap_show_pdu:0000000000000bb4 .L0 
C:\Users\stapi\AppData\Local\Temp\cc7q2Fhd.s:3416   .text.coap_show_pdu:0000000000000bc0 .L0 
C:\Users\stapi\AppData\Local\Temp\cc7q2Fhd.s:3417   .text.coap_show_pdu:0000000000000bc0 .L0 
C:\Users\stapi\AppData\Local\Temp\cc7q2Fhd.s:3423   .text.coap_show_pdu:0000000000000bc8 .L0 
C:\Users\stapi\AppData\Local\Temp\cc7q2Fhd.s:3426   .text.coap_show_pdu:0000000000000bc8 .L0 
C:\Users\stapi\AppData\Local\Temp\cc7q2Fhd.s:3429   .text.coap_show_pdu:0000000000000bc8 .L0 
C:\Users\stapi\AppData\Local\Temp\cc7q2Fhd.s:3430   .text.coap_show_pdu:0000000000000bc8 .L0 
C:\Users\stapi\AppData\Local\Temp\cc7q2Fhd.s:3433   .text.coap_show_pdu:0000000000000bd0 .L0 
C:\Users\stapi\AppData\Local\Temp\cc7q2Fhd.s:3440   .text.coap_show_pdu:0000000000000be8 .L0 
C:\Users\stapi\AppData\Local\Temp\cc7q2Fhd.s:3451   .text.coap_show_tls_version:0000000000000000 coap_show_tls_version
C:\Users\stapi\AppData\Local\Temp\cc7q2Fhd.s:3454   .text.coap_show_tls_version:0000000000000000 .L0 
C:\Users\stapi\AppData\Local\Temp\cc7q2Fhd.s:3456   .text.coap_show_tls_version:0000000000000000 .L0 
C:\Users\stapi\AppData\Local\Temp\cc7q2Fhd.s:3457   .text.coap_show_tls_version:0000000000000008 .L0 
C:\Users\stapi\AppData\Local\Temp\cc7q2Fhd.s:3458   .text.coap_show_tls_version:0000000000000008 .L0 
C:\Users\stapi\AppData\Local\Temp\cc7q2Fhd.s:3459   .text.coap_show_tls_version:0000000000000008 .L0 
C:\Users\stapi\AppData\Local\Temp\cc7q2Fhd.s:3461   .text.coap_show_tls_version:0000000000000008 .L0 
C:\Users\stapi\AppData\Local\Temp\cc7q2Fhd.s:3462   .text.coap_show_tls_version:0000000000000008 .L0 
C:\Users\stapi\AppData\Local\Temp\cc7q2Fhd.s:3463   .text.coap_show_tls_version:0000000000000008 .L0 
C:\Users\stapi\AppData\Local\Temp\cc7q2Fhd.s:3464   .text.coap_show_tls_version:000000000000000a .L0 
C:\Users\stapi\AppData\Local\Temp\cc7q2Fhd.s:3466   .text.coap_show_tls_version:000000000000000a .L0 
C:\Users\stapi\AppData\Local\Temp\cc7q2Fhd.s:3468   .text.coap_show_tls_version:000000000000000c .L0 
C:\Users\stapi\AppData\Local\Temp\cc7q2Fhd.s:3474   .text.coap_show_tls_version:000000000000001a .L0 
C:\Users\stapi\AppData\Local\Temp\cc7q2Fhd.s:3477   .text.coap_show_tls_version:000000000000001a .L0 
C:\Users\stapi\AppData\Local\Temp\cc7q2Fhd.s:3480   .text.coap_show_tls_version:000000000000001a .L0 
C:\Users\stapi\AppData\Local\Temp\cc7q2Fhd.s:3481   .text.coap_show_tls_version:000000000000001a .L0 
C:\Users\stapi\AppData\Local\Temp\cc7q2Fhd.s:3485   .text.coap_show_tls_version:0000000000000026 .L0 
C:\Users\stapi\AppData\Local\Temp\cc7q2Fhd.s:3493   .text.coap_show_tls_version:000000000000003a .L0 
C:\Users\stapi\AppData\Local\Temp\cc7q2Fhd.s:3494   .text.coap_show_tls_version:000000000000003a .L0 
C:\Users\stapi\AppData\Local\Temp\cc7q2Fhd.s:3495   .text.coap_show_tls_version:000000000000003c .L0 
C:\Users\stapi\AppData\Local\Temp\cc7q2Fhd.s:3497   .text.coap_show_tls_version:0000000000000044 .L0 
C:\Users\stapi\AppData\Local\Temp\cc7q2Fhd.s:3498   .text.coap_show_tls_version:0000000000000044 .L0 
C:\Users\stapi\AppData\Local\Temp\cc7q2Fhd.s:3499   .text.coap_show_tls_version:0000000000000044 .L0 
C:\Users\stapi\AppData\Local\Temp\cc7q2Fhd.s:3500   .text.coap_show_tls_version:0000000000000044 .L0 
C:\Users\stapi\AppData\Local\Temp\cc7q2Fhd.s:3511   .text.coap_debug_set_packet_loss:0000000000000000 coap_debug_set_packet_loss
C:\Users\stapi\AppData\Local\Temp\cc7q2Fhd.s:3514   .text.coap_debug_set_packet_loss:0000000000000000 .L0 
C:\Users\stapi\AppData\Local\Temp\cc7q2Fhd.s:3516   .text.coap_debug_set_packet_loss:0000000000000000 .L0 
C:\Users\stapi\AppData\Local\Temp\cc7q2Fhd.s:3517   .text.coap_debug_set_packet_loss:0000000000000008 .L0 
C:\Users\stapi\AppData\Local\Temp\cc7q2Fhd.s:3518   .text.coap_debug_set_packet_loss:0000000000000008 .L0 
C:\Users\stapi\AppData\Local\Temp\cc7q2Fhd.s:3519   .text.coap_debug_set_packet_loss:0000000000000008 .L0 
C:\Users\stapi\AppData\Local\Temp\cc7q2Fhd.s:3520   .text.coap_debug_set_packet_loss:0000000000000008 .L0 
C:\Users\stapi\AppData\Local\Temp\cc7q2Fhd.s:3521   .text.coap_debug_set_packet_loss:0000000000000008 .L0 
C:\Users\stapi\AppData\Local\Temp\cc7q2Fhd.s:3522   .text.coap_debug_set_packet_loss:0000000000000008 .L0 
C:\Users\stapi\AppData\Local\Temp\cc7q2Fhd.s:3523   .text.coap_debug_set_packet_loss:0000000000000008 .L0 
C:\Users\stapi\AppData\Local\Temp\cc7q2Fhd.s:3525   .text.coap_debug_set_packet_loss:0000000000000008 .L0 
C:\Users\stapi\AppData\Local\Temp\cc7q2Fhd.s:3526   .text.coap_debug_set_packet_loss:0000000000000008 .L0 
C:\Users\stapi\AppData\Local\Temp\cc7q2Fhd.s:3527   .text.coap_debug_set_packet_loss:000000000000000a .L0 
C:\Users\stapi\AppData\Local\Temp\cc7q2Fhd.s:3529   .text.coap_debug_set_packet_loss:000000000000000a .L0 
C:\Users\stapi\AppData\Local\Temp\cc7q2Fhd.s:3532   .text.coap_debug_set_packet_loss:000000000000000e .L0 
C:\Users\stapi\AppData\Local\Temp\cc7q2Fhd.s:3535   .text.coap_debug_set_packet_loss:0000000000000010 .L0 
C:\Users\stapi\AppData\Local\Temp\cc7q2Fhd.s:3536   .text.coap_debug_set_packet_loss:0000000000000010 .L0 
C:\Users\stapi\AppData\Local\Temp\cc7q2Fhd.s:3538   .text.coap_debug_set_packet_loss:0000000000000012 .L0 
C:\Users\stapi\AppData\Local\Temp\cc7q2Fhd.s:3539   .text.coap_debug_set_packet_loss:0000000000000012 .L0 
C:\Users\stapi\AppData\Local\Temp\cc7q2Fhd.s:3542   .text.coap_debug_set_packet_loss:000000000000001a .L0 
C:\Users\stapi\AppData\Local\Temp\cc7q2Fhd.s:3543   .text.coap_debug_set_packet_loss:000000000000001a .L0 
C:\Users\stapi\AppData\Local\Temp\cc7q2Fhd.s:3545   .text.coap_debug_set_packet_loss:000000000000001c .L0 
C:\Users\stapi\AppData\Local\Temp\cc7q2Fhd.s:3549   .text.coap_debug_set_packet_loss:0000000000000020 .L0 
C:\Users\stapi\AppData\Local\Temp\cc7q2Fhd.s:3553   .text.coap_debug_set_packet_loss:0000000000000022 .L0 
C:\Users\stapi\AppData\Local\Temp\cc7q2Fhd.s:3554   .text.coap_debug_set_packet_loss:0000000000000024 .L0 
C:\Users\stapi\AppData\Local\Temp\cc7q2Fhd.s:3555   .text.coap_debug_set_packet_loss:0000000000000024 .L0 
C:\Users\stapi\AppData\Local\Temp\cc7q2Fhd.s:3557   .text.coap_debug_set_packet_loss:000000000000002c .L0 
C:\Users\stapi\AppData\Local\Temp\cc7q2Fhd.s:3558   .text.coap_debug_set_packet_loss:000000000000002c .L0 
C:\Users\stapi\AppData\Local\Temp\cc7q2Fhd.s:3559   .text.coap_debug_set_packet_loss:000000000000002c .L0 
C:\Users\stapi\AppData\Local\Temp\cc7q2Fhd.s:3560   .text.coap_debug_set_packet_loss:000000000000002c .L0 
C:\Users\stapi\AppData\Local\Temp\cc7q2Fhd.s:3561   .text.coap_debug_set_packet_loss:000000000000002c .L0 
C:\Users\stapi\AppData\Local\Temp\cc7q2Fhd.s:3562   .text.coap_debug_set_packet_loss:000000000000002c .L0 
C:\Users\stapi\AppData\Local\Temp\cc7q2Fhd.s:3563   .text.coap_debug_set_packet_loss:000000000000002c .L0 
C:\Users\stapi\AppData\Local\Temp\cc7q2Fhd.s:3566   .text.coap_debug_set_packet_loss:000000000000002c .L0 
C:\Users\stapi\AppData\Local\Temp\cc7q2Fhd.s:3568   .text.coap_debug_set_packet_loss:000000000000002c .L0 
C:\Users\stapi\AppData\Local\Temp\cc7q2Fhd.s:3570   .text.coap_debug_set_packet_loss:0000000000000030 .L0 
C:\Users\stapi\AppData\Local\Temp\cc7q2Fhd.s:3571   .text.coap_debug_set_packet_loss:0000000000000030 .L0 
C:\Users\stapi\AppData\Local\Temp\cc7q2Fhd.s:3575   .text.coap_debug_set_packet_loss:000000000000003c .L0 
C:\Users\stapi\AppData\Local\Temp\cc7q2Fhd.s:3579   .text.coap_debug_set_packet_loss:0000000000000044 .L0 
C:\Users\stapi\AppData\Local\Temp\cc7q2Fhd.s:3580   .text.coap_debug_set_packet_loss:0000000000000044 .L0 
C:\Users\stapi\AppData\Local\Temp\cc7q2Fhd.s:3582   .text.coap_debug_set_packet_loss:0000000000000048 .L0 
C:\Users\stapi\AppData\Local\Temp\cc7q2Fhd.s:3584   .text.coap_debug_set_packet_loss:000000000000004c .L0 
C:\Users\stapi\AppData\Local\Temp\cc7q2Fhd.s:3587   .text.coap_debug_set_packet_loss:0000000000000054 .L0 
C:\Users\stapi\AppData\Local\Temp\cc7q2Fhd.s:3590   .text.coap_debug_set_packet_loss:0000000000000054 .L0 
C:\Users\stapi\AppData\Local\Temp\cc7q2Fhd.s:3593   .text.coap_debug_set_packet_loss:0000000000000054 .L0 
C:\Users\stapi\AppData\Local\Temp\cc7q2Fhd.s:3594   .text.coap_debug_set_packet_loss:0000000000000054 .L0 
C:\Users\stapi\AppData\Local\Temp\cc7q2Fhd.s:3599   .text.coap_debug_set_packet_loss:0000000000000062 .L0 
C:\Users\stapi\AppData\Local\Temp\cc7q2Fhd.s:3606   .text.coap_debug_set_packet_loss:0000000000000074 .L0 
C:\Users\stapi\AppData\Local\Temp\cc7q2Fhd.s:3607   .text.coap_debug_set_packet_loss:0000000000000074 .L0 
C:\Users\stapi\AppData\Local\Temp\cc7q2Fhd.s:3610   .text.coap_debug_set_packet_loss:000000000000007c .L0 
C:\Users\stapi\AppData\Local\Temp\cc7q2Fhd.s:3611   .text.coap_debug_set_packet_loss:000000000000007c .L0 
C:\Users\stapi\AppData\Local\Temp\cc7q2Fhd.s:3616   .text.coap_debug_set_packet_loss:0000000000000080 .L0 
C:\Users\stapi\AppData\Local\Temp\cc7q2Fhd.s:3617   .text.coap_debug_set_packet_loss:0000000000000080 .L0 
C:\Users\stapi\AppData\Local\Temp\cc7q2Fhd.s:3622   .text.coap_debug_set_packet_loss:000000000000008a .L0 
C:\Users\stapi\AppData\Local\Temp\cc7q2Fhd.s:3624   .text.coap_debug_set_packet_loss:000000000000008c .L0 
C:\Users\stapi\AppData\Local\Temp\cc7q2Fhd.s:3626   .text.coap_debug_set_packet_loss:0000000000000090 .L0 
C:\Users\stapi\AppData\Local\Temp\cc7q2Fhd.s:3630   .text.coap_debug_set_packet_loss:0000000000000094 .L0 
C:\Users\stapi\AppData\Local\Temp\cc7q2Fhd.s:3631   .text.coap_debug_set_packet_loss:0000000000000094 .L0 
C:\Users\stapi\AppData\Local\Temp\cc7q2Fhd.s:3633   .text.coap_debug_set_packet_loss:0000000000000096 .L0 
C:\Users\stapi\AppData\Local\Temp\cc7q2Fhd.s:3635   .text.coap_debug_set_packet_loss:0000000000000098 .L0 
C:\Users\stapi\AppData\Local\Temp\cc7q2Fhd.s:3636   .text.coap_debug_set_packet_loss:0000000000000098 .L0 
C:\Users\stapi\AppData\Local\Temp\cc7q2Fhd.s:3639   .text.coap_debug_set_packet_loss:00000000000000a0 .L0 
C:\Users\stapi\AppData\Local\Temp\cc7q2Fhd.s:3640   .text.coap_debug_set_packet_loss:00000000000000a0 .L0 
C:\Users\stapi\AppData\Local\Temp\cc7q2Fhd.s:3643   .text.coap_debug_set_packet_loss:00000000000000a2 .L0 
C:\Users\stapi\AppData\Local\Temp\cc7q2Fhd.s:3644   .text.coap_debug_set_packet_loss:00000000000000a2 .L0 
C:\Users\stapi\AppData\Local\Temp\cc7q2Fhd.s:3651   .text.coap_debug_set_packet_loss:00000000000000b0 .L0 
C:\Users\stapi\AppData\Local\Temp\cc7q2Fhd.s:3652   .text.coap_debug_set_packet_loss:00000000000000b0 .L0 
C:\Users\stapi\AppData\Local\Temp\cc7q2Fhd.s:3655   .text.coap_debug_set_packet_loss:00000000000000b6 .L0 
C:\Users\stapi\AppData\Local\Temp\cc7q2Fhd.s:3659   .text.coap_debug_set_packet_loss:00000000000000ba .L0 
C:\Users\stapi\AppData\Local\Temp\cc7q2Fhd.s:3660   .text.coap_debug_set_packet_loss:00000000000000ba .L0 
C:\Users\stapi\AppData\Local\Temp\cc7q2Fhd.s:3662   .text.coap_debug_set_packet_loss:00000000000000bc .L0 
C:\Users\stapi\AppData\Local\Temp\cc7q2Fhd.s:3664   .text.coap_debug_set_packet_loss:00000000000000be .L0 
C:\Users\stapi\AppData\Local\Temp\cc7q2Fhd.s:3667   .text.coap_debug_set_packet_loss:00000000000000c0 .L0 
C:\Users\stapi\AppData\Local\Temp\cc7q2Fhd.s:3668   .text.coap_debug_set_packet_loss:00000000000000c0 .L0 
C:\Users\stapi\AppData\Local\Temp\cc7q2Fhd.s:3670   .text.coap_debug_set_packet_loss:00000000000000c4 .L0 
C:\Users\stapi\AppData\Local\Temp\cc7q2Fhd.s:3672   .text.coap_debug_set_packet_loss:00000000000000c6 .L0 
C:\Users\stapi\AppData\Local\Temp\cc7q2Fhd.s:3673   .text.coap_debug_set_packet_loss:00000000000000c6 .L0 
C:\Users\stapi\AppData\Local\Temp\cc7q2Fhd.s:3675   .text.coap_debug_set_packet_loss:00000000000000ca .L0 
C:\Users\stapi\AppData\Local\Temp\cc7q2Fhd.s:3676   .text.coap_debug_set_packet_loss:00000000000000ca .L0 
C:\Users\stapi\AppData\Local\Temp\cc7q2Fhd.s:3679   .text.coap_debug_set_packet_loss:00000000000000cc .L0 
C:\Users\stapi\AppData\Local\Temp\cc7q2Fhd.s:3680   .text.coap_debug_set_packet_loss:00000000000000cc .L0 
C:\Users\stapi\AppData\Local\Temp\cc7q2Fhd.s:3687   .text.coap_debug_set_packet_loss:00000000000000da .L0 
C:\Users\stapi\AppData\Local\Temp\cc7q2Fhd.s:3688   .text.coap_debug_set_packet_loss:00000000000000da .L0 
C:\Users\stapi\AppData\Local\Temp\cc7q2Fhd.s:3691   .text.coap_debug_set_packet_loss:00000000000000e0 .L0 
C:\Users\stapi\AppData\Local\Temp\cc7q2Fhd.s:3693   .text.coap_debug_set_packet_loss:00000000000000e4 .L0 
C:\Users\stapi\AppData\Local\Temp\cc7q2Fhd.s:3700   .text.coap_debug_set_packet_loss:00000000000000ee .L0 
C:\Users\stapi\AppData\Local\Temp\cc7q2Fhd.s:3701   .text.coap_debug_set_packet_loss:00000000000000ee .L0 
C:\Users\stapi\AppData\Local\Temp\cc7q2Fhd.s:3704   .text.coap_debug_set_packet_loss:00000000000000f4 .L0 
C:\Users\stapi\AppData\Local\Temp\cc7q2Fhd.s:3705   .text.coap_debug_set_packet_loss:00000000000000f4 .L0 
C:\Users\stapi\AppData\Local\Temp\cc7q2Fhd.s:3708   .text.coap_debug_set_packet_loss:00000000000000fe .L0 
C:\Users\stapi\AppData\Local\Temp\cc7q2Fhd.s:3719   .text.coap_debug_send_packet:0000000000000000 coap_debug_send_packet
C:\Users\stapi\AppData\Local\Temp\cc7q2Fhd.s:3722   .text.coap_debug_send_packet:0000000000000000 .L0 
C:\Users\stapi\AppData\Local\Temp\cc7q2Fhd.s:3723   .text.coap_debug_send_packet:0000000000000000 .L0 
C:\Users\stapi\AppData\Local\Temp\cc7q2Fhd.s:3724   .text.coap_debug_send_packet:0000000000000008 .L0 
C:\Users\stapi\AppData\Local\Temp\cc7q2Fhd.s:3725   .text.coap_debug_send_packet:0000000000000008 .L0 
C:\Users\stapi\AppData\Local\Temp\cc7q2Fhd.s:3726   .text.coap_debug_send_packet:0000000000000008 .L0 
C:\Users\stapi\AppData\Local\Temp\cc7q2Fhd.s:3727   .text.coap_debug_send_packet:0000000000000008 .L0 
C:\Users\stapi\AppData\Local\Temp\cc7q2Fhd.s:3729   .text.coap_debug_send_packet:0000000000000008 .L0 
C:\Users\stapi\AppData\Local\Temp\cc7q2Fhd.s:3736   .text.coap_debug_send_packet:000000000000001a .L0 
C:\Users\stapi\AppData\Local\Temp\cc7q2Fhd.s:3737   .text.coap_debug_send_packet:000000000000001a .L0 
C:\Users\stapi\AppData\Local\Temp\cc7q2Fhd.s:3740   .text.coap_debug_send_packet:0000000000000022 .L0 
C:\Users\stapi\AppData\Local\Temp\cc7q2Fhd.s:3745   .text.coap_debug_send_packet:000000000000002e .L0 
C:\Users\stapi\AppData\Local\Temp\cc7q2Fhd.s:3749   .text.coap_debug_send_packet:0000000000000030 .L0 
C:\Users\stapi\AppData\Local\Temp\cc7q2Fhd.s:3750   .text.coap_debug_send_packet:0000000000000030 .L0 
C:\Users\stapi\AppData\Local\Temp\cc7q2Fhd.s:3753   .text.coap_debug_send_packet:0000000000000036 .L0 
C:\Users\stapi\AppData\Local\Temp\cc7q2Fhd.s:3756   .text.coap_debug_send_packet:000000000000003c .L0 
C:\Users\stapi\AppData\Local\Temp\cc7q2Fhd.s:3759   .text.coap_debug_send_packet:000000000000003c .L0 
C:\Users\stapi\AppData\Local\Temp\cc7q2Fhd.s:3762   .text.coap_debug_send_packet:000000000000003c .L0 
C:\Users\stapi\AppData\Local\Temp\cc7q2Fhd.s:3763   .text.coap_debug_send_packet:000000000000003c .L0 
C:\Users\stapi\AppData\Local\Temp\cc7q2Fhd.s:3772   .text.coap_debug_send_packet:000000000000004a .L0 
C:\Users\stapi\AppData\Local\Temp\cc7q2Fhd.s:3779   .text.coap_debug_send_packet:000000000000004e .L0 
C:\Users\stapi\AppData\Local\Temp\cc7q2Fhd.s:3780   .text.coap_debug_send_packet:000000000000004e .L0 
C:\Users\stapi\AppData\Local\Temp\cc7q2Fhd.s:3783   .text.coap_debug_send_packet:0000000000000050 .L0 
C:\Users\stapi\AppData\Local\Temp\cc7q2Fhd.s:3784   .text.coap_debug_send_packet:0000000000000050 .L0 
C:\Users\stapi\AppData\Local\Temp\cc7q2Fhd.s:3790   .text.coap_debug_send_packet:0000000000000056 .L0 
C:\Users\stapi\AppData\Local\Temp\cc7q2Fhd.s:3791   .text.coap_debug_send_packet:0000000000000056 .L0 
C:\Users\stapi\AppData\Local\Temp\cc7q2Fhd.s:3794   .text.coap_debug_send_packet:000000000000005e .L0 
C:\Users\stapi\AppData\Local\Temp\cc7q2Fhd.s:3798   .text.coap_debug_send_packet:0000000000000064 .L0 
C:\Users\stapi\AppData\Local\Temp\cc7q2Fhd.s:3801   .text.coap_debug_send_packet:0000000000000066 .L0 
C:\Users\stapi\AppData\Local\Temp\cc7q2Fhd.s:3802   .text.coap_debug_send_packet:000000000000006e .L0 
C:\Users\stapi\AppData\Local\Temp\cc7q2Fhd.s:3803   .text.coap_debug_send_packet:000000000000006e .L0 
C:\Users\stapi\AppData\Local\Temp\cc7q2Fhd.s:3804   .text.coap_debug_send_packet:000000000000006e .L0 
C:\Users\stapi\AppData\Local\Temp\cc7q2Fhd.s:3805   .text.coap_debug_send_packet:000000000000006e .L0 
C:\Users\stapi\AppData\Local\Temp\cc7q2Fhd.s:3806   .text.coap_debug_send_packet:000000000000006e .L0 
C:\Users\stapi\AppData\Local\Temp\cc7q2Fhd.s:3808   .text.coap_debug_send_packet:000000000000006e .L0 
C:\Users\stapi\AppData\Local\Temp\cc7q2Fhd.s:3812   .text.coap_debug_send_packet:000000000000006e .L0 
C:\Users\stapi\AppData\Local\Temp\cc7q2Fhd.s:3816   .text.coap_debug_send_packet:000000000000006e .L0 
C:\Users\stapi\AppData\Local\Temp\cc7q2Fhd.s:3817   .text.coap_debug_send_packet:000000000000006e .L0 
C:\Users\stapi\AppData\Local\Temp\cc7q2Fhd.s:3818   .text.coap_debug_send_packet:000000000000006e .L0 
C:\Users\stapi\AppData\Local\Temp\cc7q2Fhd.s:3821   .text.coap_debug_send_packet:0000000000000076 .L0 
C:\Users\stapi\AppData\Local\Temp\cc7q2Fhd.s:3822   .text.coap_debug_send_packet:0000000000000076 .L0 
C:\Users\stapi\AppData\Local\Temp\cc7q2Fhd.s:3823   .text.coap_debug_send_packet:0000000000000076 .L0 
C:\Users\stapi\AppData\Local\Temp\cc7q2Fhd.s:3826   .text.coap_debug_send_packet:0000000000000076 .L0 
C:\Users\stapi\AppData\Local\Temp\cc7q2Fhd.s:3827   .text.coap_debug_send_packet:0000000000000076 .L0 
C:\Users\stapi\AppData\Local\Temp\cc7q2Fhd.s:3828   .text.coap_debug_send_packet:0000000000000076 .L0 
C:\Users\stapi\AppData\Local\Temp\cc7q2Fhd.s:3832   .text.coap_debug_send_packet:0000000000000080 .L0 
C:\Users\stapi\AppData\Local\Temp\cc7q2Fhd.s:3835   .text.coap_debug_send_packet:0000000000000080 .L0 
C:\Users\stapi\AppData\Local\Temp\cc7q2Fhd.s:3838   .text.coap_debug_send_packet:0000000000000080 .L0 
C:\Users\stapi\AppData\Local\Temp\cc7q2Fhd.s:3839   .text.coap_debug_send_packet:0000000000000080 .L0 
C:\Users\stapi\AppData\Local\Temp\cc7q2Fhd.s:3844   .text.coap_debug_send_packet:000000000000008e .L0 
C:\Users\stapi\AppData\Local\Temp\cc7q2Fhd.s:3854   .text.coap_debug_send_packet:00000000000000a4 .L0 
C:\Users\stapi\AppData\Local\Temp\cc7q2Fhd.s:3861   .text.coap_debug_reset:0000000000000000 coap_debug_reset
C:\Users\stapi\AppData\Local\Temp\cc7q2Fhd.s:3864   .text.coap_debug_reset:0000000000000000 .L0 
C:\Users\stapi\AppData\Local\Temp\cc7q2Fhd.s:3865   .text.coap_debug_reset:0000000000000000 .L0 
C:\Users\stapi\AppData\Local\Temp\cc7q2Fhd.s:3866   .text.coap_debug_reset:0000000000000000 .L0 
C:\Users\stapi\AppData\Local\Temp\cc7q2Fhd.s:3867   .text.coap_debug_reset:0000000000000000 .L0 
C:\Users\stapi\AppData\Local\Temp\cc7q2Fhd.s:3871   .text.coap_debug_reset:000000000000000a .L0 
C:\Users\stapi\AppData\Local\Temp\cc7q2Fhd.s:3872   .text.coap_debug_reset:000000000000000a .L0 
C:\Users\stapi\AppData\Local\Temp\cc7q2Fhd.s:3876   .text.coap_debug_reset:0000000000000014 .L0 
C:\Users\stapi\AppData\Local\Temp\cc7q2Fhd.s:3877   .text.coap_debug_reset:0000000000000014 .L0 
C:\Users\stapi\AppData\Local\Temp\cc7q2Fhd.s:3880   .text.coap_debug_reset:000000000000001c .L0 
C:\Users\stapi\AppData\Local\Temp\cc7q2Fhd.s:3881   .text.coap_debug_reset:000000000000001c .L0 
C:\Users\stapi\AppData\Local\Temp\cc7q2Fhd.s:3884   .text.coap_debug_reset:0000000000000024 .L0 
C:\Users\stapi\AppData\Local\Temp\cc7q2Fhd.s:3885   .text.coap_debug_reset:0000000000000024 .L0 
C:\Users\stapi\AppData\Local\Temp\cc7q2Fhd.s:3888   .text.coap_debug_reset:000000000000002c .L0 
C:\Users\stapi\AppData\Local\Temp\cc7q2Fhd.s:3889   .text.coap_debug_reset:000000000000002e .L0 
C:\Users\stapi\AppData\Local\Temp\cc7q2Fhd.s:4189   .bss.packet_loss_intervals:0000000000000000 .LANCHOR16
C:\Users\stapi\AppData\Local\Temp\cc7q2Fhd.s:4192   .bss.packet_loss_intervals:0000000000000000 packet_loss_intervals
C:\Users\stapi\AppData\Local\Temp\cc7q2Fhd.s:4196   .rodata.__func__.0:0000000000000000 .LANCHOR0
C:\Users\stapi\AppData\Local\Temp\cc7q2Fhd.s:4199   .rodata.__func__.0:0000000000000000 __func__.0
C:\Users\stapi\AppData\Local\Temp\cc7q2Fhd.s:4203   .rodata.__func__.12:0000000000000000 .LANCHOR6
C:\Users\stapi\AppData\Local\Temp\cc7q2Fhd.s:4206   .rodata.__func__.12:0000000000000000 __func__.12
C:\Users\stapi\AppData\Local\Temp\cc7q2Fhd.s:4210   .rodata.formats.7:0000000000000000 .LANCHOR11
C:\Users\stapi\AppData\Local\Temp\cc7q2Fhd.s:4213   .rodata.formats.7:0000000000000000 formats.7
C:\Users\stapi\AppData\Local\Temp\cc7q2Fhd.s:4278   .rodata.loglevels:0000000000000000 .LANCHOR8
C:\Users\stapi\AppData\Local\Temp\cc7q2Fhd.s:4281   .rodata.loglevels:0000000000000000 loglevels
C:\Users\stapi\AppData\Local\Temp\cc7q2Fhd.s:4301   .rodata.methods.10:0000000000000000 .LANCHOR2
C:\Users\stapi\AppData\Local\Temp\cc7q2Fhd.s:4304   .rodata.methods.10:0000000000000000 methods.10
C:\Users\stapi\AppData\Local\Temp\cc7q2Fhd.s:4315   .rodata.options.2:0000000000000000 .LANCHOR14
C:\Users\stapi\AppData\Local\Temp\cc7q2Fhd.s:4318   .rodata.options.2:0000000000000000 options.2
C:\Users\stapi\AppData\Local\Temp\cc7q2Fhd.s:4399   .rodata.options_csm.6:0000000000000000 .LANCHOR12
C:\Users\stapi\AppData\Local\Temp\cc7q2Fhd.s:4402   .rodata.options_csm.6:0000000000000000 options_csm.6
C:\Users\stapi\AppData\Local\Temp\cc7q2Fhd.s:4414   .rodata.options_release.4:0000000000000000 .LANCHOR13
C:\Users\stapi\AppData\Local\Temp\cc7q2Fhd.s:4417   .rodata.options_release.4:0000000000000000 options_release.4
C:\Users\stapi\AppData\Local\Temp\cc7q2Fhd.s:4426   .rodata.signals.9:0000000000000000 .LANCHOR3
C:\Users\stapi\AppData\Local\Temp\cc7q2Fhd.s:4429   .rodata.signals.9:0000000000000000 signals.9
C:\Users\stapi\AppData\Local\Temp\cc7q2Fhd.s:4438   .rodata.types.11:0000000000000000 .LANCHOR10
C:\Users\stapi\AppData\Local\Temp\cc7q2Fhd.s:4441   .rodata.types.11:0000000000000000 types.11
C:\Users\stapi\AppData\Local\Temp\cc7q2Fhd.s:4449   .sbss.buf.1:0000000000000000 .LANCHOR9
C:\Users\stapi\AppData\Local\Temp\cc7q2Fhd.s:4452   .sbss.buf.1:0000000000000000 buf.1
C:\Users\stapi\AppData\Local\Temp\cc7q2Fhd.s:4456   .sbss.buf.8:0000000000000000 .LANCHOR1
C:\Users\stapi\AppData\Local\Temp\cc7q2Fhd.s:4459   .sbss.buf.8:0000000000000000 buf.8
C:\Users\stapi\AppData\Local\Temp\cc7q2Fhd.s:4463   .sbss.log_handler:0000000000000000 .LANCHOR7
C:\Users\stapi\AppData\Local\Temp\cc7q2Fhd.s:4466   .sbss.log_handler:0000000000000000 log_handler
C:\Users\stapi\AppData\Local\Temp\cc7q2Fhd.s:4470   .sbss.num_packet_loss_intervals:0000000000000000 .LANCHOR17
C:\Users\stapi\AppData\Local\Temp\cc7q2Fhd.s:4473   .sbss.num_packet_loss_intervals:0000000000000000 num_packet_loss_intervals
C:\Users\stapi\AppData\Local\Temp\cc7q2Fhd.s:4477   .sbss.packet_loss_level:0000000000000000 .LANCHOR15
C:\Users\stapi\AppData\Local\Temp\cc7q2Fhd.s:4480   .sbss.packet_loss_level:0000000000000000 packet_loss_level
C:\Users\stapi\AppData\Local\Temp\cc7q2Fhd.s:4484   .sbss.send_packet_count:0000000000000000 .LANCHOR18
C:\Users\stapi\AppData\Local\Temp\cc7q2Fhd.s:4487   .sbss.send_packet_count:0000000000000000 send_packet_count
C:\Users\stapi\AppData\Local\Temp\cc7q2Fhd.s:4491   .sdata.maxlog:0000000000000000 .LANCHOR5
C:\Users\stapi\AppData\Local\Temp\cc7q2Fhd.s:4494   .sdata.maxlog:0000000000000000 maxlog
C:\Users\stapi\AppData\Local\Temp\cc7q2Fhd.s:4498   .sdata.use_fprintf_for_show_pdu:0000000000000000 .LANCHOR4
C:\Users\stapi\AppData\Local\Temp\cc7q2Fhd.s:4501   .sdata.use_fprintf_for_show_pdu:0000000000000000 use_fprintf_for_show_pdu
C:\Users\stapi\AppData\Local\Temp\cc7q2Fhd.s:206    .text.print_readable:00000000000000e8 .L0 
C:\Users\stapi\AppData\Local\Temp\cc7q2Fhd.s:286    .text.msg_code_string:000000000000006c .L0 
C:\Users\stapi\AppData\Local\Temp\cc7q2Fhd.s:307    .text.coap_package_name:000000000000000a .L0 
C:\Users\stapi\AppData\Local\Temp\cc7q2Fhd.s:328    .text.coap_package_version:000000000000000a .L0 
C:\Users\stapi\AppData\Local\Temp\cc7q2Fhd.s:359    .text.coap_set_show_pdu_output:000000000000000a .L0 
C:\Users\stapi\AppData\Local\Temp\cc7q2Fhd.s:375    .text.coap_get_log_level:000000000000000a .L0 
C:\Users\stapi\AppData\Local\Temp\cc7q2Fhd.s:397    .text.coap_set_log_level:0000000000000010 .L0 
C:\Users\stapi\AppData\Local\Temp\cc7q2Fhd.s:491    .text.coap_print_ip_addr:0000000000000074 .L0 
C:\Users\stapi\AppData\Local\Temp\cc7q2Fhd.s:553    .text.coap_print_addr:000000000000004c .L0 
C:\Users\stapi\AppData\Local\Temp\cc7q2Fhd.s:964    .text.coap_string_tls_version:0000000000000278 .L0 
C:\Users\stapi\AppData\Local\Temp\cc7q2Fhd.s:1185   .text.coap_string_tls_support:0000000000000146 .L0 
C:\Users\stapi\AppData\Local\Temp\cc7q2Fhd.s:1207   .text.coap_set_log_handler:000000000000000a .L0 
C:\Users\stapi\AppData\Local\Temp\cc7q2Fhd.s:1454   .text.coap_log_impl:000000000000012c .L0 
C:\Users\stapi\AppData\Local\Temp\cc7q2Fhd.s:3443   .text.coap_show_pdu:0000000000000be8 .L0 
C:\Users\stapi\AppData\Local\Temp\cc7q2Fhd.s:3503   .text.coap_show_tls_version:0000000000000044 .L0 
C:\Users\stapi\AppData\Local\Temp\cc7q2Fhd.s:3711   .text.coap_debug_set_packet_loss:00000000000000fe .L0 
C:\Users\stapi\AppData\Local\Temp\cc7q2Fhd.s:3857   .text.coap_debug_send_packet:00000000000000a4 .L0 
C:\Users\stapi\AppData\Local\Temp\cc7q2Fhd.s:3892   .text.coap_debug_reset:000000000000002e .L0 
                     .debug_frame:0000000000000000 .L0 
C:\Users\stapi\AppData\Local\Temp\cc7q2Fhd.s:17     .rodata.print_readable.str1.4:0000000000000098 .LC0
C:\Users\stapi\AppData\Local\Temp\cc7q2Fhd.s:11     .rodata.print_readable.str1.4:0000000000000000 .LC1
C:\Users\stapi\AppData\Local\Temp\cc7q2Fhd.s:14     .rodata.print_readable.str1.4:0000000000000014 .LC2
C:\Users\stapi\AppData\Local\Temp\cc7q2Fhd.s:75     .text.print_readable:0000000000000052 .L2
C:\Users\stapi\AppData\Local\Temp\cc7q2Fhd.s:198    .text.print_readable:00000000000000e2 .L3
C:\Users\stapi\AppData\Local\Temp\cc7q2Fhd.s:104    .text.print_readable:0000000000000076 .L13
C:\Users\stapi\AppData\Local\Temp\cc7q2Fhd.s:119    .text.print_readable:0000000000000082 .L9
C:\Users\stapi\AppData\Local\Temp\cc7q2Fhd.s:154    .text.print_readable:00000000000000ac .L6
C:\Users\stapi\AppData\Local\Temp\cc7q2Fhd.s:95     .text.print_readable:0000000000000070 .L7
C:\Users\stapi\AppData\Local\Temp\cc7q2Fhd.s:92     .text.print_readable:000000000000006c .L5
C:\Users\stapi\AppData\Local\Temp\cc7q2Fhd.s:145    .text.print_readable:00000000000000a6 .L8
C:\Users\stapi\AppData\Local\Temp\cc7q2Fhd.s:208    .rodata.msg_code_string.str1.4:0000000000000000 .LC3
C:\Users\stapi\AppData\Local\Temp\cc7q2Fhd.s:234    .text.msg_code_string:0000000000000016 .L22
C:\Users\stapi\AppData\Local\Temp\cc7q2Fhd.s:252    .text.msg_code_string:0000000000000034 .L24
C:\Users\stapi\AppData\Local\Temp\cc7q2Fhd.s:288    .rodata.coap_package_name.str1.4:0000000000000000 .LC4
C:\Users\stapi\AppData\Local\Temp\cc7q2Fhd.s:309    .rodata.coap_package_version.str1.4:0000000000000000 .LC5
C:\Users\stapi\AppData\Local\Temp\cc7q2Fhd.s:399    .rodata.coap_print_ip_addr.str1.4:0000000000000000 .LC6
C:\Users\stapi\AppData\Local\Temp\cc7q2Fhd.s:402    .rodata.coap_print_ip_addr.str1.4:0000000000000004 .LC7
C:\Users\stapi\AppData\Local\Temp\cc7q2Fhd.s:436    .text.coap_print_ip_addr:000000000000002e .L35
C:\Users\stapi\AppData\Local\Temp\cc7q2Fhd.s:453    .text.coap_print_ip_addr:0000000000000046 .L36
C:\Users\stapi\AppData\Local\Temp\cc7q2Fhd.s:427    .text.coap_print_ip_addr:000000000000001e .L39
C:\Users\stapi\AppData\Local\Temp\cc7q2Fhd.s:481    .text.coap_print_ip_addr:000000000000006a .L37
C:\Users\stapi\AppData\Local\Temp\cc7q2Fhd.s:493    .rodata.coap_print_addr.str1.4:0000000000000000 .LC8
C:\Users\stapi\AppData\Local\Temp\cc7q2Fhd.s:624    .rodata.coap_string_tls_version:0000000000000000 .L45
C:\Users\stapi\AppData\Local\Temp\cc7q2Fhd.s:555    .rodata.coap_string_tls_version.str1.4:0000000000000000 .LC9
C:\Users\stapi\AppData\Local\Temp\cc7q2Fhd.s:558    .rodata.coap_string_tls_version.str1.4:0000000000000014 .LC10
C:\Users\stapi\AppData\Local\Temp\cc7q2Fhd.s:564    .rodata.coap_string_tls_version.str1.4:0000000000000068 .LC12
C:\Users\stapi\AppData\Local\Temp\cc7q2Fhd.s:570    .rodata.coap_string_tls_version.str1.4:0000000000000074 .LC14
C:\Users\stapi\AppData\Local\Temp\cc7q2Fhd.s:561    .rodata.coap_string_tls_version.str1.4:0000000000000060 .LC11
C:\Users\stapi\AppData\Local\Temp\cc7q2Fhd.s:567    .rodata.coap_string_tls_version.str1.4:000000000000006c .LC13
C:\Users\stapi\AppData\Local\Temp\cc7q2Fhd.s:573    .rodata.coap_string_tls_version.str1.4:00000000000000c8 .LC15
C:\Users\stapi\AppData\Local\Temp\cc7q2Fhd.s:576    .rodata.coap_string_tls_version.str1.4:0000000000000114 .LC16
C:\Users\stapi\AppData\Local\Temp\cc7q2Fhd.s:579    .rodata.coap_string_tls_version.str1.4:0000000000000160 .LC17
C:\Users\stapi\AppData\Local\Temp\cc7q2Fhd.s:950    .text.coap_string_tls_version:0000000000000262 .L43
C:\Users\stapi\AppData\Local\Temp\cc7q2Fhd.s:641    .text.coap_string_tls_version:0000000000000044 .L50
C:\Users\stapi\AppData\Local\Temp\cc7q2Fhd.s:826    .text.coap_string_tls_version:0000000000000180 .L51
C:\Users\stapi\AppData\Local\Temp\cc7q2Fhd.s:831    .text.coap_string_tls_version:000000000000018a .L55
C:\Users\stapi\AppData\Local\Temp\cc7q2Fhd.s:730    .text.coap_string_tls_version:00000000000000d2 .L57
C:\Users\stapi\AppData\Local\Temp\cc7q2Fhd.s:852    .text.coap_string_tls_version:00000000000001b0 .L59
C:\Users\stapi\AppData\Local\Temp\cc7q2Fhd.s:857    .text.coap_string_tls_version:00000000000001ba .L63
C:\Users\stapi\AppData\Local\Temp\cc7q2Fhd.s:773    .text.coap_string_tls_version:000000000000011c .L65
C:\Users\stapi\AppData\Local\Temp\cc7q2Fhd.s:707    .text.coap_string_tls_version:00000000000000ae .L72
C:\Users\stapi\AppData\Local\Temp\cc7q2Fhd.s:713    .text.coap_string_tls_version:00000000000000b8 .L56
C:\Users\stapi\AppData\Local\Temp\cc7q2Fhd.s:748    .text.coap_string_tls_version:00000000000000f2 .L73
C:\Users\stapi\AppData\Local\Temp\cc7q2Fhd.s:755    .text.coap_string_tls_version:00000000000000fe .L64
C:\Users\stapi\AppData\Local\Temp\cc7q2Fhd.s:688    .text.coap_string_tls_version:000000000000008c .L74
C:\Users\stapi\AppData\Local\Temp\cc7q2Fhd.s:631    .text.coap_string_tls_version:0000000000000030 .L49
C:\Users\stapi\AppData\Local\Temp\cc7q2Fhd.s:655    .text.coap_string_tls_version:0000000000000050 .L48
C:\Users\stapi\AppData\Local\Temp\cc7q2Fhd.s:696    .text.coap_string_tls_version:000000000000009a .L47
C:\Users\stapi\AppData\Local\Temp\cc7q2Fhd.s:880    .text.coap_string_tls_version:00000000000001e2 .L46
C:\Users\stapi\AppData\Local\Temp\cc7q2Fhd.s:913    .text.coap_string_tls_version:0000000000000220 .L44
C:\Users\stapi\AppData\Local\Temp\cc7q2Fhd.s:975    .rodata.coap_string_tls_support.str1.4:0000000000000010 .LC21
C:\Users\stapi\AppData\Local\Temp\cc7q2Fhd.s:969    .rodata.coap_string_tls_support.str1.4:0000000000000004 .LC19
C:\Users\stapi\AppData\Local\Temp\cc7q2Fhd.s:966    .rodata.coap_string_tls_support.str1.4:0000000000000000 .LC18
C:\Users\stapi\AppData\Local\Temp\cc7q2Fhd.s:978    .rodata.coap_string_tls_support.str1.4:000000000000002c .LC22
C:\Users\stapi\AppData\Local\Temp\cc7q2Fhd.s:972    .rodata.coap_string_tls_support.str1.4:0000000000000008 .LC20
C:\Users\stapi\AppData\Local\Temp\cc7q2Fhd.s:1089   .text.coap_string_tls_support:0000000000000084 .L76
C:\Users\stapi\AppData\Local\Temp\cc7q2Fhd.s:1149   .text.coap_string_tls_support:00000000000000f8 .L85
C:\Users\stapi\AppData\Local\Temp\cc7q2Fhd.s:1154   .text.coap_string_tls_support:0000000000000104 .L86
C:\Users\stapi\AppData\Local\Temp\cc7q2Fhd.s:1157   .text.coap_string_tls_support:000000000000010a .L87
C:\Users\stapi\AppData\Local\Temp\cc7q2Fhd.s:1161   .text.coap_string_tls_support:0000000000000114 .L88
C:\Users\stapi\AppData\Local\Temp\cc7q2Fhd.s:1165   .text.coap_string_tls_support:000000000000011e .L89
C:\Users\stapi\AppData\Local\Temp\cc7q2Fhd.s:1169   .text.coap_string_tls_support:0000000000000128 .L90
C:\Users\stapi\AppData\Local\Temp\cc7q2Fhd.s:1173   .text.coap_string_tls_support:0000000000000132 .L91
C:\Users\stapi\AppData\Local\Temp\cc7q2Fhd.s:1177   .text.coap_string_tls_support:000000000000013c .L92
C:\Users\stapi\AppData\Local\Temp\cc7q2Fhd.s:1070   .text.coap_string_tls_support:0000000000000078 .L78
C:\Users\stapi\AppData\Local\Temp\cc7q2Fhd.s:1098   .text.coap_string_tls_support:0000000000000096 .L77
C:\Users\stapi\AppData\Local\Temp\cc7q2Fhd.s:1104   .text.coap_string_tls_support:00000000000000a2 .L79
C:\Users\stapi\AppData\Local\Temp\cc7q2Fhd.s:1110   .text.coap_string_tls_support:00000000000000ae .L80
C:\Users\stapi\AppData\Local\Temp\cc7q2Fhd.s:1116   .text.coap_string_tls_support:00000000000000ba .L81
C:\Users\stapi\AppData\Local\Temp\cc7q2Fhd.s:1122   .text.coap_string_tls_support:00000000000000c6 .L82
C:\Users\stapi\AppData\Local\Temp\cc7q2Fhd.s:1128   .text.coap_string_tls_support:00000000000000d2 .L83
C:\Users\stapi\AppData\Local\Temp\cc7q2Fhd.s:1135   .text.coap_string_tls_support:00000000000000de .L84
C:\Users\stapi\AppData\Local\Temp\cc7q2Fhd.s:1209   .rodata.coap_log_impl.str1.4:0000000000000000 .LC23
C:\Users\stapi\AppData\Local\Temp\cc7q2Fhd.s:1212   .rodata.coap_log_impl.str1.4:0000000000000008 .LC24
C:\Users\stapi\AppData\Local\Temp\cc7q2Fhd.s:1215   .rodata.coap_log_impl.str1.4:0000000000000010 .LC25
C:\Users\stapi\AppData\Local\Temp\cc7q2Fhd.s:1218   .rodata.coap_log_impl.str1.4:0000000000000018 .LC26
C:\Users\stapi\AppData\Local\Temp\cc7q2Fhd.s:1305   .text.coap_log_impl:0000000000000058 .L96
C:\Users\stapi\AppData\Local\Temp\cc7q2Fhd.s:1433   .text.coap_log_impl:000000000000010e .L98
C:\Users\stapi\AppData\Local\Temp\cc7q2Fhd.s:1439   .text.coap_log_impl:0000000000000114 .L100
C:\Users\stapi\AppData\Local\Temp\cc7q2Fhd.s:1286   .text.coap_log_impl:000000000000004a .L95
C:\Users\stapi\AppData\Local\Temp\cc7q2Fhd.s:1324   .text.coap_log_impl:000000000000006a .L99
C:\Users\stapi\AppData\Local\Temp\cc7q2Fhd.s:1410   .text.coap_log_impl:00000000000000f2 .L103
C:\Users\stapi\AppData\Local\Temp\cc7q2Fhd.s:1465   .rodata.coap_show_pdu.str1.4:000000000000001c .LC30
C:\Users\stapi\AppData\Local\Temp\cc7q2Fhd.s:1480   .rodata.coap_show_pdu.str1.4:000000000000008c .LC35
C:\Users\stapi\AppData\Local\Temp\cc7q2Fhd.s:1468   .rodata.coap_show_pdu.str1.4:0000000000000034 .LC31
C:\Users\stapi\AppData\Local\Temp\cc7q2Fhd.s:1471   .rodata.coap_show_pdu.str1.4:000000000000004c .LC32
C:\Users\stapi\AppData\Local\Temp\cc7q2Fhd.s:1474   .rodata.coap_show_pdu.str1.4:0000000000000060 .LC33
C:\Users\stapi\AppData\Local\Temp\cc7q2Fhd.s:1477   .rodata.coap_show_pdu.str1.4:0000000000000078 .LC34
C:\Users\stapi\AppData\Local\Temp\cc7q2Fhd.s:1483   .rodata.coap_show_pdu.str1.4:0000000000000094 .LC36
C:\Users\stapi\AppData\Local\Temp\cc7q2Fhd.s:1486   .rodata.coap_show_pdu.str1.4:0000000000000098 .LC37
C:\Users\stapi\AppData\Local\Temp\cc7q2Fhd.s:2259   .rodata.coap_show_pdu:0000000000000000 .L125
C:\Users\stapi\AppData\Local\Temp\cc7q2Fhd.s:1525   .rodata.coap_show_pdu.str1.4:0000000000000104 .LC50
C:\Users\stapi\AppData\Local\Temp\cc7q2Fhd.s:1528   .rodata.coap_show_pdu.str1.4:0000000000000108 .LC51
C:\Users\stapi\AppData\Local\Temp\cc7q2Fhd.s:1531   .rodata.coap_show_pdu.str1.4:0000000000000110 .LC52
C:\Users\stapi\AppData\Local\Temp\cc7q2Fhd.s:1492   .rodata.coap_show_pdu.str1.4:00000000000000a0 .LC39
C:\Users\stapi\AppData\Local\Temp\cc7q2Fhd.s:1534   .rodata.coap_show_pdu.str1.4:0000000000000128 .LC53
C:\Users\stapi\AppData\Local\Temp\cc7q2Fhd.s:1537   .rodata.coap_show_pdu.str1.4:000000000000012c .LC54
C:\Users\stapi\AppData\Local\Temp\cc7q2Fhd.s:1540   .rodata.coap_show_pdu.str1.4:0000000000000130 .LC55
C:\Users\stapi\AppData\Local\Temp\cc7q2Fhd.s:1543   .rodata.coap_show_pdu.str1.4:0000000000000134 .LC56
C:\Users\stapi\AppData\Local\Temp\cc7q2Fhd.s:1456   .rodata.coap_show_pdu.str1.4:0000000000000000 .LC27
C:\Users\stapi\AppData\Local\Temp\cc7q2Fhd.s:1489   .rodata.coap_show_pdu.str1.4:000000000000009c .LC38
C:\Users\stapi\AppData\Local\Temp\cc7q2Fhd.s:1519   .rodata.coap_show_pdu.str1.4:00000000000000f4 .LC48
C:\Users\stapi\AppData\Local\Temp\cc7q2Fhd.s:1522   .rodata.coap_show_pdu.str1.4:00000000000000f8 .LC49
C:\Users\stapi\AppData\Local\Temp\cc7q2Fhd.s:1495   .rodata.coap_show_pdu.str1.4:00000000000000a4 .LC40
C:\Users\stapi\AppData\Local\Temp\cc7q2Fhd.s:1498   .rodata.coap_show_pdu.str1.4:00000000000000a8 .LC41
C:\Users\stapi\AppData\Local\Temp\cc7q2Fhd.s:1501   .rodata.coap_show_pdu.str1.4:00000000000000b8 .LC42
C:\Users\stapi\AppData\Local\Temp\cc7q2Fhd.s:1504   .rodata.coap_show_pdu.str1.4:00000000000000c4 .LC43
C:\Users\stapi\AppData\Local\Temp\cc7q2Fhd.s:1507   .rodata.coap_show_pdu.str1.4:00000000000000d0 .LC44
C:\Users\stapi\AppData\Local\Temp\cc7q2Fhd.s:1510   .rodata.coap_show_pdu.str1.4:00000000000000d4 .LC45
C:\Users\stapi\AppData\Local\Temp\cc7q2Fhd.s:1513   .rodata.coap_show_pdu.str1.4:00000000000000e0 .LC46
C:\Users\stapi\AppData\Local\Temp\cc7q2Fhd.s:1516   .rodata.coap_show_pdu.str1.4:00000000000000e8 .LC47
C:\Users\stapi\AppData\Local\Temp\cc7q2Fhd.s:1462   .rodata.coap_show_pdu.str1.4:000000000000000c .LC29
C:\Users\stapi\AppData\Local\Temp\cc7q2Fhd.s:1459   .rodata.coap_show_pdu.str1.4:0000000000000004 .LC28
C:\Users\stapi\AppData\Local\Temp\cc7q2Fhd.s:2110   .text.coap_show_pdu:00000000000003a2 .L104
C:\Users\stapi\AppData\Local\Temp\cc7q2Fhd.s:1617   .text.coap_show_pdu:0000000000000030 .L106
C:\Users\stapi\AppData\Local\Temp\cc7q2Fhd.s:1666   .text.coap_show_pdu:0000000000000082 .L107
C:\Users\stapi\AppData\Local\Temp\cc7q2Fhd.s:1749   .text.coap_show_pdu:000000000000010c .L112
C:\Users\stapi\AppData\Local\Temp\cc7q2Fhd.s:1704   .text.coap_show_pdu:00000000000000c6 .L109
C:\Users\stapi\AppData\Local\Temp\cc7q2Fhd.s:1687   .text.coap_show_pdu:00000000000000a0 .L110
C:\Users\stapi\AppData\Local\Temp\cc7q2Fhd.s:1658   .text.coap_show_pdu:0000000000000076 .L108
C:\Users\stapi\AppData\Local\Temp\cc7q2Fhd.s:1720   .text.coap_show_pdu:00000000000000de .L111
C:\Users\stapi\AppData\Local\Temp\cc7q2Fhd.s:1696   .text.coap_show_pdu:00000000000000b6 .L286
C:\Users\stapi\AppData\Local\Temp\cc7q2Fhd.s:1731   .text.coap_show_pdu:00000000000000f6 .L113
C:\Users\stapi\AppData\Local\Temp\cc7q2Fhd.s:2131   .text.coap_show_pdu:00000000000003ac .L174
C:\Users\stapi\AppData\Local\Temp\cc7q2Fhd.s:2072   .text.coap_show_pdu:000000000000035a .L176
C:\Users\stapi\AppData\Local\Temp\cc7q2Fhd.s:1885   .text.coap_show_pdu:0000000000000216 .L177
C:\Users\stapi\AppData\Local\Temp\cc7q2Fhd.s:1900   .text.coap_show_pdu:0000000000000232 .L178
C:\Users\stapi\AppData\Local\Temp\cc7q2Fhd.s:3349   .text.coap_show_pdu:0000000000000b5e .L179
C:\Users\stapi\AppData\Local\Temp\cc7q2Fhd.s:3246   .text.coap_show_pdu:0000000000000ab2 .L180
C:\Users\stapi\AppData\Local\Temp\cc7q2Fhd.s:3269   .text.coap_show_pdu:0000000000000ad2 .L183
C:\Users\stapi\AppData\Local\Temp\cc7q2Fhd.s:2000   .text.coap_show_pdu:00000000000002da .L184
C:\Users\stapi\AppData\Local\Temp\cc7q2Fhd.s:3291   .text.coap_show_pdu:0000000000000afe .L185
C:\Users\stapi\AppData\Local\Temp\cc7q2Fhd.s:3311   .text.coap_show_pdu:0000000000000b1e .L189
C:\Users\stapi\AppData\Local\Temp\cc7q2Fhd.s:2086   .text.coap_show_pdu:0000000000000370 .L192
C:\Users\stapi\AppData\Local\Temp\cc7q2Fhd.s:3420   .text.coap_show_pdu:0000000000000bc8 .L193
C:\Users\stapi\AppData\Local\Temp\cc7q2Fhd.s:2154   .text.coap_show_pdu:00000000000003d8 .L115
C:\Users\stapi\AppData\Local\Temp\cc7q2Fhd.s:2195   .text.coap_show_pdu:000000000000041e .L116
C:\Users\stapi\AppData\Local\Temp\cc7q2Fhd.s:2420   .text.coap_show_pdu:0000000000000574 .L117
C:\Users\stapi\AppData\Local\Temp\cc7q2Fhd.s:2412   .text.coap_show_pdu:0000000000000564 .L289
C:\Users\stapi\AppData\Local\Temp\cc7q2Fhd.s:2211   .text.coap_show_pdu:000000000000043c .L196
C:\Users\stapi\AppData\Local\Temp\cc7q2Fhd.s:2239   .text.coap_show_pdu:000000000000046c .L118
C:\Users\stapi\AppData\Local\Temp\cc7q2Fhd.s:2217   .text.coap_show_pdu:0000000000000440 .L119
C:\Users\stapi\AppData\Local\Temp\cc7q2Fhd.s:2174   .text.coap_show_pdu:00000000000003f0 .L292
C:\Users\stapi\AppData\Local\Temp\cc7q2Fhd.s:2417   .text.coap_show_pdu:0000000000000572 .L290
C:\Users\stapi\AppData\Local\Temp\cc7q2Fhd.s:2166   .text.coap_show_pdu:00000000000003e8 .L296
C:\Users\stapi\AppData\Local\Temp\cc7q2Fhd.s:2292   .text.coap_show_pdu:0000000000000496 .L122
C:\Users\stapi\AppData\Local\Temp\cc7q2Fhd.s:3082   .text.coap_show_pdu:00000000000009c8 .L123
C:\Users\stapi\AppData\Local\Temp\cc7q2Fhd.s:2301   .text.coap_show_pdu:00000000000004b2 .L129
C:\Users\stapi\AppData\Local\Temp\cc7q2Fhd.s:2363   .text.coap_show_pdu:0000000000000514 .L130
C:\Users\stapi\AppData\Local\Temp\cc7q2Fhd.s:3072   .text.coap_show_pdu:00000000000009b8 .L126
C:\Users\stapi\AppData\Local\Temp\cc7q2Fhd.s:2333   .text.coap_show_pdu:00000000000004e2 .L160
C:\Users\stapi\AppData\Local\Temp\cc7q2Fhd.s:2299   .text.coap_show_pdu:00000000000004ae .L288
C:\Users\stapi\AppData\Local\Temp\cc7q2Fhd.s:2511   .text.coap_show_pdu:00000000000005da .L131
C:\Users\stapi\AppData\Local\Temp\cc7q2Fhd.s:3132   .text.coap_show_pdu:0000000000000a16 .L164
C:\Users\stapi\AppData\Local\Temp\cc7q2Fhd.s:3120   .text.coap_show_pdu:0000000000000a0e .L204
C:\Users\stapi\AppData\Local\Temp\cc7q2Fhd.s:3127   .text.coap_show_pdu:0000000000000a12 .L205
C:\Users\stapi\AppData\Local\Temp\cc7q2Fhd.s:3148   .text.coap_show_pdu:0000000000000a2a .L166
C:\Users\stapi\AppData\Local\Temp\cc7q2Fhd.s:1816   .text.coap_show_pdu:0000000000000188 .L114
C:\Users\stapi\AppData\Local\Temp\cc7q2Fhd.s:2397   .text.coap_show_pdu:0000000000000548 .L132
C:\Users\stapi\AppData\Local\Temp\cc7q2Fhd.s:2682   .text.coap_show_pdu:0000000000000734 .L133
C:\Users\stapi\AppData\Local\Temp\cc7q2Fhd.s:2629   .text.coap_show_pdu:00000000000006c0 .L134
C:\Users\stapi\AppData\Local\Temp\cc7q2Fhd.s:2601   .text.coap_show_pdu:0000000000000682 .L135
C:\Users\stapi\AppData\Local\Temp\cc7q2Fhd.s:2584   .text.coap_show_pdu:0000000000000662 .L137
C:\Users\stapi\AppData\Local\Temp\cc7q2Fhd.s:2586   .text.coap_show_pdu:0000000000000666 .L136
C:\Users\stapi\AppData\Local\Temp\cc7q2Fhd.s:2654   .text.coap_show_pdu:00000000000006f6 .L138
C:\Users\stapi\AppData\Local\Temp\cc7q2Fhd.s:2642   .text.coap_show_pdu:00000000000006d8 .L140
C:\Users\stapi\AppData\Local\Temp\cc7q2Fhd.s:2644   .text.coap_show_pdu:00000000000006dc .L139
C:\Users\stapi\AppData\Local\Temp\cc7q2Fhd.s:2716   .text.coap_show_pdu:000000000000076c .L141
C:\Users\stapi\AppData\Local\Temp\cc7q2Fhd.s:2744   .text.coap_show_pdu:00000000000007aa .L144
C:\Users\stapi\AppData\Local\Temp\cc7q2Fhd.s:2593   .text.coap_show_pdu:0000000000000672 .L294
C:\Users\stapi\AppData\Local\Temp\cc7q2Fhd.s:2695   .text.coap_show_pdu:000000000000074c .L143
C:\Users\stapi\AppData\Local\Temp\cc7q2Fhd.s:2697   .text.coap_show_pdu:0000000000000750 .L142
C:\Users\stapi\AppData\Local\Temp\cc7q2Fhd.s:2704   .text.coap_show_pdu:000000000000075c .L146
C:\Users\stapi\AppData\Local\Temp\cc7q2Fhd.s:2708   .text.coap_show_pdu:000000000000075e .L145
C:\Users\stapi\AppData\Local\Temp\cc7q2Fhd.s:2806   .text.coap_show_pdu:000000000000080a .L147
C:\Users\stapi\AppData\Local\Temp\cc7q2Fhd.s:2832   .text.coap_show_pdu:0000000000000832 .L148
C:\Users\stapi\AppData\Local\Temp\cc7q2Fhd.s:3050   .text.coap_show_pdu:0000000000000994 .L198
C:\Users\stapi\AppData\Local\Temp\cc7q2Fhd.s:2790   .text.coap_show_pdu:00000000000007fa .L150
C:\Users\stapi\AppData\Local\Temp\cc7q2Fhd.s:2866   .text.coap_show_pdu:0000000000000866 .L151
C:\Users\stapi\AppData\Local\Temp\cc7q2Fhd.s:2879   .text.coap_show_pdu:000000000000087c .L152
C:\Users\stapi\AppData\Local\Temp\cc7q2Fhd.s:2979   .text.coap_show_pdu:000000000000091a .L153
C:\Users\stapi\AppData\Local\Temp\cc7q2Fhd.s:2954   .text.coap_show_pdu:00000000000008f0 .L154
C:\Users\stapi\AppData\Local\Temp\cc7q2Fhd.s:3055   .text.coap_show_pdu:0000000000000998 .L156
C:\Users\stapi\AppData\Local\Temp\cc7q2Fhd.s:3011   .text.coap_show_pdu:000000000000094e .L157
C:\Users\stapi\AppData\Local\Temp\cc7q2Fhd.s:3023   .text.coap_show_pdu:0000000000000964 .L158
C:\Users\stapi\AppData\Local\Temp\cc7q2Fhd.s:2908   .text.coap_show_pdu:00000000000008aa .L149
C:\Users\stapi\AppData\Local\Temp\cc7q2Fhd.s:2965   .text.coap_show_pdu:0000000000000904 .L155
C:\Users\stapi\AppData\Local\Temp\cc7q2Fhd.s:3100   .text.coap_show_pdu:00000000000009f0 .L162
C:\Users\stapi\AppData\Local\Temp\cc7q2Fhd.s:2231   .text.coap_show_pdu:000000000000045a .L293
C:\Users\stapi\AppData\Local\Temp\cc7q2Fhd.s:2484   .text.coap_show_pdu:00000000000005b0 .L165
C:\Users\stapi\AppData\Local\Temp\cc7q2Fhd.s:3162   .text.coap_show_pdu:0000000000000a4a .L168
C:\Users\stapi\AppData\Local\Temp\cc7q2Fhd.s:3239   .text.coap_show_pdu:0000000000000aa8 .L206
C:\Users\stapi\AppData\Local\Temp\cc7q2Fhd.s:2496   .text.coap_show_pdu:00000000000005be .L167
C:\Users\stapi\AppData\Local\Temp\cc7q2Fhd.s:3196   .text.coap_show_pdu:0000000000000a6e .L169
C:\Users\stapi\AppData\Local\Temp\cc7q2Fhd.s:3191   .text.coap_show_pdu:0000000000000a6a .L207
C:\Users\stapi\AppData\Local\Temp\cc7q2Fhd.s:2490   .text.coap_show_pdu:00000000000005b8 .L291
C:\Users\stapi\AppData\Local\Temp\cc7q2Fhd.s:3184   .text.coap_show_pdu:0000000000000a60 .L170
C:\Users\stapi\AppData\Local\Temp\cc7q2Fhd.s:3214   .text.coap_show_pdu:0000000000000a86 .L171
C:\Users\stapi\AppData\Local\Temp\cc7q2Fhd.s:3224   .text.coap_show_pdu:0000000000000a96 .L173
C:\Users\stapi\AppData\Local\Temp\cc7q2Fhd.s:1936   .text.coap_show_pdu:0000000000000272 .L181
C:\Users\stapi\AppData\Local\Temp\cc7q2Fhd.s:1956   .text.coap_show_pdu:0000000000000290 .L182
C:\Users\stapi\AppData\Local\Temp\cc7q2Fhd.s:2024   .text.coap_show_pdu:000000000000030c .L186
C:\Users\stapi\AppData\Local\Temp\cc7q2Fhd.s:3337   .text.coap_show_pdu:0000000000000b48 .L188
C:\Users\stapi\AppData\Local\Temp\cc7q2Fhd.s:2048   .text.coap_show_pdu:000000000000032e .L187
C:\Users\stapi\AppData\Local\Temp\cc7q2Fhd.s:3402   .text.coap_show_pdu:0000000000000bac .L191
C:\Users\stapi\AppData\Local\Temp\cc7q2Fhd.s:2774   .text.coap_show_pdu:00000000000007e8 .L128
C:\Users\stapi\AppData\Local\Temp\cc7q2Fhd.s:2367   .text.coap_show_pdu:000000000000051a .L127
C:\Users\stapi\AppData\Local\Temp\cc7q2Fhd.s:2528   .text.coap_show_pdu:00000000000005ec .L124
C:\Users\stapi\AppData\Local\Temp\cc7q2Fhd.s:3445   .rodata.coap_show_tls_version.str1.4:0000000000000000 .LC57
C:\Users\stapi\AppData\Local\Temp\cc7q2Fhd.s:3492   .text.coap_show_tls_version:000000000000003a .L297
C:\Users\stapi\AppData\Local\Temp\cc7q2Fhd.s:3505   .rodata.coap_debug_set_packet_loss.str1.4:0000000000000000 .LC58
C:\Users\stapi\AppData\Local\Temp\cc7q2Fhd.s:3565   .text.coap_debug_set_packet_loss:000000000000002c .L301
C:\Users\stapi\AppData\Local\Temp\cc7q2Fhd.s:3547   .text.coap_debug_set_packet_loss:0000000000000020 .L303
C:\Users\stapi\AppData\Local\Temp\cc7q2Fhd.s:3614   .text.coap_debug_set_packet_loss:0000000000000080 .L304
C:\Users\stapi\AppData\Local\Temp\cc7q2Fhd.s:3604   .text.coap_debug_set_packet_loss:0000000000000074 .L305
C:\Users\stapi\AppData\Local\Temp\cc7q2Fhd.s:3551   .text.coap_debug_set_packet_loss:0000000000000022 .L300
C:\Users\stapi\AppData\Local\Temp\cc7q2Fhd.s:3657   .text.coap_debug_set_packet_loss:00000000000000ba .L306
C:\Users\stapi\AppData\Local\Temp\cc7q2Fhd.s:3698   .text.coap_debug_set_packet_loss:00000000000000ee .L307
C:\Users\stapi\AppData\Local\Temp\cc7q2Fhd.s:3628   .text.coap_debug_set_packet_loss:0000000000000094 .L308
C:\Users\stapi\AppData\Local\Temp\cc7q2Fhd.s:3713   .rodata.coap_debug_send_packet.str1.4:0000000000000000 .LC59
C:\Users\stapi\AppData\Local\Temp\cc7q2Fhd.s:3787   .text.coap_debug_send_packet:0000000000000056 .L315
C:\Users\stapi\AppData\Local\Temp\cc7q2Fhd.s:3775   .text.coap_debug_send_packet:000000000000004e .L316
C:\Users\stapi\AppData\Local\Temp\cc7q2Fhd.s:3846   .text.coap_debug_send_packet:0000000000000090 .L325
C:\Users\stapi\AppData\Local\Temp\cc7q2Fhd.s:3799   .text.coap_debug_send_packet:0000000000000066 .L314
C:\Users\stapi\AppData\Local\Temp\cc7q2Fhd.s:3746   .text.coap_debug_send_packet:0000000000000030 .L319
C:\Users\stapi\AppData\Local\Temp\cc7q2Fhd.s:3807   .text.coap_debug_send_packet:000000000000006e .L320
C:\Users\stapi\AppData\Local\Temp\cc7q2Fhd.s:3796   .text.coap_debug_send_packet:0000000000000064 .L321
C:\Users\stapi\AppData\Local\Temp\cc7q2Fhd.s:3768   .text.coap_debug_send_packet:000000000000004a .L326
C:\Users\stapi\AppData\Local\Temp\cc7q2Fhd.s:3987   .rodata.str1.4:0000000000000184 .LC91
C:\Users\stapi\AppData\Local\Temp\cc7q2Fhd.s:3990   .rodata.str1.4:0000000000000190 .LC92
C:\Users\stapi\AppData\Local\Temp\cc7q2Fhd.s:3993   .rodata.str1.4:00000000000001a8 .LC93
C:\Users\stapi\AppData\Local\Temp\cc7q2Fhd.s:3996   .rodata.str1.4:00000000000001b8 .LC94
C:\Users\stapi\AppData\Local\Temp\cc7q2Fhd.s:3999   .rodata.str1.4:00000000000001d4 .LC95
C:\Users\stapi\AppData\Local\Temp\cc7q2Fhd.s:4002   .rodata.str1.4:00000000000001e8 .LC96
C:\Users\stapi\AppData\Local\Temp\cc7q2Fhd.s:4005   .rodata.str1.4:00000000000001f8 .LC97
C:\Users\stapi\AppData\Local\Temp\cc7q2Fhd.s:4008   .rodata.str1.4:000000000000020c .LC98
C:\Users\stapi\AppData\Local\Temp\cc7q2Fhd.s:4011   .rodata.str1.4:0000000000000220 .LC99
C:\Users\stapi\AppData\Local\Temp\cc7q2Fhd.s:4014   .rodata.str1.4:0000000000000230 .LC100
C:\Users\stapi\AppData\Local\Temp\cc7q2Fhd.s:4017   .rodata.str1.4:000000000000024c .LC101
C:\Users\stapi\AppData\Local\Temp\cc7q2Fhd.s:4020   .rodata.str1.4:0000000000000274 .LC102
C:\Users\stapi\AppData\Local\Temp\cc7q2Fhd.s:4023   .rodata.str1.4:00000000000002a0 .LC103
C:\Users\stapi\AppData\Local\Temp\cc7q2Fhd.s:4026   .rodata.str1.4:00000000000002cc .LC104
C:\Users\stapi\AppData\Local\Temp\cc7q2Fhd.s:4029   .rodata.str1.4:00000000000002f8 .LC105
C:\Users\stapi\AppData\Local\Temp\cc7q2Fhd.s:4032   .rodata.str1.4:0000000000000320 .LC106
C:\Users\stapi\AppData\Local\Temp\cc7q2Fhd.s:4035   .rodata.str1.4:0000000000000348 .LC107
C:\Users\stapi\AppData\Local\Temp\cc7q2Fhd.s:4038   .rodata.str1.4:0000000000000360 .LC108
C:\Users\stapi\AppData\Local\Temp\cc7q2Fhd.s:4041   .rodata.str1.4:000000000000037c .LC109
C:\Users\stapi\AppData\Local\Temp\cc7q2Fhd.s:4044   .rodata.str1.4:0000000000000394 .LC110
C:\Users\stapi\AppData\Local\Temp\cc7q2Fhd.s:4047   .rodata.str1.4:00000000000003ac .LC111
C:\Users\stapi\AppData\Local\Temp\cc7q2Fhd.s:4050   .rodata.str1.4:00000000000003c4 .LC112
C:\Users\stapi\AppData\Local\Temp\cc7q2Fhd.s:4053   .rodata.str1.4:00000000000003dc .LC113
C:\Users\stapi\AppData\Local\Temp\cc7q2Fhd.s:4056   .rodata.str1.4:00000000000003f4 .LC114
C:\Users\stapi\AppData\Local\Temp\cc7q2Fhd.s:4059   .rodata.str1.4:000000000000040c .LC115
C:\Users\stapi\AppData\Local\Temp\cc7q2Fhd.s:4062   .rodata.str1.4:0000000000000424 .LC116
C:\Users\stapi\AppData\Local\Temp\cc7q2Fhd.s:4065   .rodata.str1.4:000000000000043c .LC117
C:\Users\stapi\AppData\Local\Temp\cc7q2Fhd.s:4068   .rodata.str1.4:0000000000000454 .LC118
C:\Users\stapi\AppData\Local\Temp\cc7q2Fhd.s:4071   .rodata.str1.4:000000000000046c .LC119
C:\Users\stapi\AppData\Local\Temp\cc7q2Fhd.s:4074   .rodata.str1.4:0000000000000490 .LC120
C:\Users\stapi\AppData\Local\Temp\cc7q2Fhd.s:4077   .rodata.str1.4:00000000000004a4 .LC121
C:\Users\stapi\AppData\Local\Temp\cc7q2Fhd.s:4137   .rodata.str1.4:0000000000000534 .LC141
C:\Users\stapi\AppData\Local\Temp\cc7q2Fhd.s:4140   .rodata.str1.4:000000000000053c .LC142
C:\Users\stapi\AppData\Local\Temp\cc7q2Fhd.s:4143   .rodata.str1.4:0000000000000544 .LC143
C:\Users\stapi\AppData\Local\Temp\cc7q2Fhd.s:4146   .rodata.str1.4:000000000000054c .LC144
C:\Users\stapi\AppData\Local\Temp\cc7q2Fhd.s:4149   .rodata.str1.4:0000000000000554 .LC145
C:\Users\stapi\AppData\Local\Temp\cc7q2Fhd.s:4152   .rodata.str1.4:000000000000055c .LC146
C:\Users\stapi\AppData\Local\Temp\cc7q2Fhd.s:4155   .rodata.str1.4:0000000000000564 .LC147
C:\Users\stapi\AppData\Local\Temp\cc7q2Fhd.s:4158   .rodata.str1.4:000000000000056c .LC148
C:\Users\stapi\AppData\Local\Temp\cc7q2Fhd.s:4161   .rodata.str1.4:0000000000000574 .LC149
C:\Users\stapi\AppData\Local\Temp\cc7q2Fhd.s:4164   .rodata.str1.4:000000000000057c .LC150
C:\Users\stapi\AppData\Local\Temp\cc7q2Fhd.s:4167   .rodata.str1.4:0000000000000584 .LC151
C:\Users\stapi\AppData\Local\Temp\cc7q2Fhd.s:4170   .rodata.str1.4:000000000000058c .LC152
C:\Users\stapi\AppData\Local\Temp\cc7q2Fhd.s:4173   .rodata.str1.4:0000000000000594 .LC153
C:\Users\stapi\AppData\Local\Temp\cc7q2Fhd.s:4176   .rodata.str1.4:000000000000059c .LC154
C:\Users\stapi\AppData\Local\Temp\cc7q2Fhd.s:4179   .rodata.str1.4:00000000000005a4 .LC155
C:\Users\stapi\AppData\Local\Temp\cc7q2Fhd.s:4182   .rodata.str1.4:00000000000005ac .LC156
C:\Users\stapi\AppData\Local\Temp\cc7q2Fhd.s:4185   .rodata.str1.4:00000000000005b4 .LC157
C:\Users\stapi\AppData\Local\Temp\cc7q2Fhd.s:4098   .rodata.str1.4:00000000000004e8 .LC128
C:\Users\stapi\AppData\Local\Temp\cc7q2Fhd.s:4101   .rodata.str1.4:00000000000004f0 .LC129
C:\Users\stapi\AppData\Local\Temp\cc7q2Fhd.s:4104   .rodata.str1.4:00000000000004f4 .LC130
C:\Users\stapi\AppData\Local\Temp\cc7q2Fhd.s:4107   .rodata.str1.4:00000000000004fc .LC131
C:\Users\stapi\AppData\Local\Temp\cc7q2Fhd.s:4110   .rodata.str1.4:0000000000000500 .LC132
C:\Users\stapi\AppData\Local\Temp\cc7q2Fhd.s:4113   .rodata.str1.4:0000000000000508 .LC133
C:\Users\stapi\AppData\Local\Temp\cc7q2Fhd.s:4116   .rodata.str1.4:0000000000000510 .LC134
C:\Users\stapi\AppData\Local\Temp\cc7q2Fhd.s:4119   .rodata.str1.4:0000000000000518 .LC135
C:\Users\stapi\AppData\Local\Temp\cc7q2Fhd.s:3894   .rodata.str1.4:0000000000000000 .LC60
C:\Users\stapi\AppData\Local\Temp\cc7q2Fhd.s:3897   .rodata.str1.4:000000000000000c .LC61
C:\Users\stapi\AppData\Local\Temp\cc7q2Fhd.s:3900   .rodata.str1.4:0000000000000018 .LC62
C:\Users\stapi\AppData\Local\Temp\cc7q2Fhd.s:3903   .rodata.str1.4:0000000000000020 .LC63
C:\Users\stapi\AppData\Local\Temp\cc7q2Fhd.s:3906   .rodata.str1.4:0000000000000030 .LC64
C:\Users\stapi\AppData\Local\Temp\cc7q2Fhd.s:3909   .rodata.str1.4:0000000000000038 .LC65
C:\Users\stapi\AppData\Local\Temp\cc7q2Fhd.s:3912   .rodata.str1.4:0000000000000044 .LC66
C:\Users\stapi\AppData\Local\Temp\cc7q2Fhd.s:3915   .rodata.str1.4:0000000000000054 .LC67
C:\Users\stapi\AppData\Local\Temp\cc7q2Fhd.s:3918   .rodata.str1.4:000000000000005c .LC68
C:\Users\stapi\AppData\Local\Temp\cc7q2Fhd.s:3921   .rodata.str1.4:0000000000000068 .LC69
C:\Users\stapi\AppData\Local\Temp\cc7q2Fhd.s:3924   .rodata.str1.4:0000000000000078 .LC70
C:\Users\stapi\AppData\Local\Temp\cc7q2Fhd.s:3927   .rodata.str1.4:0000000000000080 .LC71
C:\Users\stapi\AppData\Local\Temp\cc7q2Fhd.s:3930   .rodata.str1.4:000000000000008c .LC72
C:\Users\stapi\AppData\Local\Temp\cc7q2Fhd.s:3933   .rodata.str1.4:0000000000000098 .LC73
C:\Users\stapi\AppData\Local\Temp\cc7q2Fhd.s:3936   .rodata.str1.4:00000000000000a0 .LC74
C:\Users\stapi\AppData\Local\Temp\cc7q2Fhd.s:3939   .rodata.str1.4:00000000000000b0 .LC75
C:\Users\stapi\AppData\Local\Temp\cc7q2Fhd.s:3942   .rodata.str1.4:00000000000000b8 .LC76
C:\Users\stapi\AppData\Local\Temp\cc7q2Fhd.s:3945   .rodata.str1.4:00000000000000c0 .LC77
C:\Users\stapi\AppData\Local\Temp\cc7q2Fhd.s:3948   .rodata.str1.4:00000000000000c8 .LC78
C:\Users\stapi\AppData\Local\Temp\cc7q2Fhd.s:3951   .rodata.str1.4:00000000000000d4 .LC79
C:\Users\stapi\AppData\Local\Temp\cc7q2Fhd.s:3954   .rodata.str1.4:00000000000000e4 .LC80
C:\Users\stapi\AppData\Local\Temp\cc7q2Fhd.s:3957   .rodata.str1.4:00000000000000ec .LC81
C:\Users\stapi\AppData\Local\Temp\cc7q2Fhd.s:3960   .rodata.str1.4:00000000000000f4 .LC82
C:\Users\stapi\AppData\Local\Temp\cc7q2Fhd.s:3963   .rodata.str1.4:0000000000000100 .LC83
C:\Users\stapi\AppData\Local\Temp\cc7q2Fhd.s:3966   .rodata.str1.4:000000000000010c .LC84
C:\Users\stapi\AppData\Local\Temp\cc7q2Fhd.s:3969   .rodata.str1.4:0000000000000118 .LC85
C:\Users\stapi\AppData\Local\Temp\cc7q2Fhd.s:3978   .rodata.str1.4:0000000000000144 .LC88
C:\Users\stapi\AppData\Local\Temp\cc7q2Fhd.s:3981   .rodata.str1.4:0000000000000158 .LC89
C:\Users\stapi\AppData\Local\Temp\cc7q2Fhd.s:3984   .rodata.str1.4:000000000000016c .LC90
C:\Users\stapi\AppData\Local\Temp\cc7q2Fhd.s:3972   .rodata.str1.4:0000000000000124 .LC86
C:\Users\stapi\AppData\Local\Temp\cc7q2Fhd.s:3975   .rodata.str1.4:0000000000000138 .LC87
C:\Users\stapi\AppData\Local\Temp\cc7q2Fhd.s:4080   .rodata.str1.4:00000000000004bc .LC122
C:\Users\stapi\AppData\Local\Temp\cc7q2Fhd.s:4083   .rodata.str1.4:00000000000004c4 .LC123
C:\Users\stapi\AppData\Local\Temp\cc7q2Fhd.s:4086   .rodata.str1.4:00000000000004c8 .LC124
C:\Users\stapi\AppData\Local\Temp\cc7q2Fhd.s:4089   .rodata.str1.4:00000000000004d0 .LC125
C:\Users\stapi\AppData\Local\Temp\cc7q2Fhd.s:4092   .rodata.str1.4:00000000000004d8 .LC126
C:\Users\stapi\AppData\Local\Temp\cc7q2Fhd.s:4095   .rodata.str1.4:00000000000004e0 .LC127
C:\Users\stapi\AppData\Local\Temp\cc7q2Fhd.s:4122   .rodata.str1.4:0000000000000520 .LC136
C:\Users\stapi\AppData\Local\Temp\cc7q2Fhd.s:4125   .rodata.str1.4:0000000000000524 .LC137
C:\Users\stapi\AppData\Local\Temp\cc7q2Fhd.s:4128   .rodata.str1.4:0000000000000528 .LC138
C:\Users\stapi\AppData\Local\Temp\cc7q2Fhd.s:4131   .rodata.str1.4:000000000000052c .LC139
C:\Users\stapi\AppData\Local\Temp\cc7q2Fhd.s:4134   .rodata.str1.4:0000000000000530 .LC140
C:\Users\stapi\AppData\Local\Temp\cc7q2Fhd.s:14244  .debug_abbrev:0000000000000000 .Ldebug_abbrev0
C:\Users\stapi\AppData\Local\Temp\cc7q2Fhd.s:18243  .debug_str:000000000000104c .LASF750
C:\Users\stapi\AppData\Local\Temp\cc7q2Fhd.s:18309  .debug_str:0000000000001344 .LASF751
C:\Users\stapi\AppData\Local\Temp\cc7q2Fhd.s:18463  .debug_str:0000000000001828 .LASF752
C:\Users\stapi\AppData\Local\Temp\cc7q2Fhd.s:17563  .debug_ranges:0000000000000000 .Ldebug_ranges0
C:\Users\stapi\AppData\Local\Temp\cc7q2Fhd.s:17663  .debug_line:0000000000000000 .Ldebug_line0
C:\Users\stapi\AppData\Local\Temp\cc7q2Fhd.s:18453  .debug_str:00000000000017e6 .LASF0
C:\Users\stapi\AppData\Local\Temp\cc7q2Fhd.s:17943  .debug_str:0000000000000770 .LASF1
C:\Users\stapi\AppData\Local\Temp\cc7q2Fhd.s:17853  .debug_str:00000000000004e8 .LASF4
C:\Users\stapi\AppData\Local\Temp\cc7q2Fhd.s:17973  .debug_str:0000000000000845 .LASF2
C:\Users\stapi\AppData\Local\Temp\cc7q2Fhd.s:18847  .debug_str:000000000000233a .LASF3
C:\Users\stapi\AppData\Local\Temp\cc7q2Fhd.s:18069  .debug_str:0000000000000b17 .LASF5
C:\Users\stapi\AppData\Local\Temp\cc7q2Fhd.s:19075  .debug_str:0000000000002a01 .LASF6
C:\Users\stapi\AppData\Local\Temp\cc7q2Fhd.s:17885  .debug_str:00000000000005d2 .LASF7
C:\Users\stapi\AppData\Local\Temp\cc7q2Fhd.s:18353  .debug_str:00000000000014fa .LASF8
C:\Users\stapi\AppData\Local\Temp\cc7q2Fhd.s:18211  .debug_str:0000000000000f53 .LASF9
C:\Users\stapi\AppData\Local\Temp\cc7q2Fhd.s:18361  .debug_str:0000000000001529 .LASF10
C:\Users\stapi\AppData\Local\Temp\cc7q2Fhd.s:18203  .debug_str:0000000000000f31 .LASF11
C:\Users\stapi\AppData\Local\Temp\cc7q2Fhd.s:18655  .debug_str:0000000000001e06 .LASF12
C:\Users\stapi\AppData\Local\Temp\cc7q2Fhd.s:17945  .debug_str:000000000000077c .LASF13
C:\Users\stapi\AppData\Local\Temp\cc7q2Fhd.s:18669  .debug_str:0000000000001e69 .LASF14
C:\Users\stapi\AppData\Local\Temp\cc7q2Fhd.s:19023  .debug_str:000000000000288f .LASF15
C:\Users\stapi\AppData\Local\Temp\cc7q2Fhd.s:18859  .debug_str:00000000000023aa .LASF16
C:\Users\stapi\AppData\Local\Temp\cc7q2Fhd.s:17685  .debug_str:0000000000000073 .LASF17
C:\Users\stapi\AppData\Local\Temp\cc7q2Fhd.s:18095  .debug_str:0000000000000bd4 .LASF18
C:\Users\stapi\AppData\Local\Temp\cc7q2Fhd.s:18753  .debug_str:00000000000020b4 .LASF19
C:\Users\stapi\AppData\Local\Temp\cc7q2Fhd.s:19061  .debug_str:00000000000029b3 .LASF20
C:\Users\stapi\AppData\Local\Temp\cc7q2Fhd.s:18627  .debug_str:0000000000001d3c .LASF21
C:\Users\stapi\AppData\Local\Temp\cc7q2Fhd.s:17683  .debug_str:000000000000006a .LASF22
C:\Users\stapi\AppData\Local\Temp\cc7q2Fhd.s:17849  .debug_str:00000000000004b4 .LASF23
C:\Users\stapi\AppData\Local\Temp\cc7q2Fhd.s:18631  .debug_str:0000000000001d55 .LASF24
C:\Users\stapi\AppData\Local\Temp\cc7q2Fhd.s:18547  .debug_str:0000000000001ac3 .LASF25
C:\Users\stapi\AppData\Local\Temp\cc7q2Fhd.s:17693  .debug_str:00000000000000a1 .LASF26
C:\Users\stapi\AppData\Local\Temp\cc7q2Fhd.s:18743  .debug_str:000000000000207e .LASF27
C:\Users\stapi\AppData\Local\Temp\cc7q2Fhd.s:18003  .debug_str:0000000000000938 .LASF753
C:\Users\stapi\AppData\Local\Temp\cc7q2Fhd.s:19009  .debug_str:000000000000281d .LASF28
C:\Users\stapi\AppData\Local\Temp\cc7q2Fhd.s:18261  .debug_str:00000000000011e5 .LASF29
C:\Users\stapi\AppData\Local\Temp\cc7q2Fhd.s:18733  .debug_str:000000000000204e .LASF30
C:\Users\stapi\AppData\Local\Temp\cc7q2Fhd.s:18319  .debug_str:0000000000001409 .LASF35
C:\Users\stapi\AppData\Local\Temp\cc7q2Fhd.s:18763  .debug_str:00000000000020e2 .LASF31
C:\Users\stapi\AppData\Local\Temp\cc7q2Fhd.s:18325  .debug_str:0000000000001432 .LASF32
C:\Users\stapi\AppData\Local\Temp\cc7q2Fhd.s:18431  .debug_str:0000000000001743 .LASF33
C:\Users\stapi\AppData\Local\Temp\cc7q2Fhd.s:18159  .debug_str:0000000000000dee .LASF34
C:\Users\stapi\AppData\Local\Temp\cc7q2Fhd.s:17761  .debug_str:000000000000025e .LASF36
C:\Users\stapi\AppData\Local\Temp\cc7q2Fhd.s:17767  .debug_str:000000000000027a .LASF37
C:\Users\stapi\AppData\Local\Temp\cc7q2Fhd.s:19165  .debug_str:0000000000002cbb .LASF38
C:\Users\stapi\AppData\Local\Temp\cc7q2Fhd.s:19077  .debug_str:0000000000002a14 .LASF39
C:\Users\stapi\AppData\Local\Temp\cc7q2Fhd.s:18491  .debug_str:0000000000001948 .LASF40
C:\Users\stapi\AppData\Local\Temp\cc7q2Fhd.s:17921  .debug_str:00000000000006a9 .LASF41
C:\Users\stapi\AppData\Local\Temp\cc7q2Fhd.s:18909  .debug_str:0000000000002553 .LASF42
C:\Users\stapi\AppData\Local\Temp\cc7q2Fhd.s:18569  .debug_str:0000000000001b72 .LASF43
C:\Users\stapi\AppData\Local\Temp\cc7q2Fhd.s:18589  .debug_str:0000000000001c0b .LASF44
C:\Users\stapi\AppData\Local\Temp\cc7q2Fhd.s:19141  .debug_str:0000000000002c16 .LASF45
C:\Users\stapi\AppData\Local\Temp\cc7q2Fhd.s:17869  .debug_str:000000000000054c .LASF46
C:\Users\stapi\AppData\Local\Temp\cc7q2Fhd.s:19135  .debug_str:0000000000002bf0 .LASF47
C:\Users\stapi\AppData\Local\Temp\cc7q2Fhd.s:18675  .debug_str:0000000000001e87 .LASF48
C:\Users\stapi\AppData\Local\Temp\cc7q2Fhd.s:18893  .debug_str:00000000000024d1 .LASF49
C:\Users\stapi\AppData\Local\Temp\cc7q2Fhd.s:18979  .debug_str:0000000000002743 .LASF50
C:\Users\stapi\AppData\Local\Temp\cc7q2Fhd.s:18531  .debug_str:0000000000001a5c .LASF51
C:\Users\stapi\AppData\Local\Temp\cc7q2Fhd.s:18951  .debug_str:000000000000269a .LASF52
C:\Users\stapi\AppData\Local\Temp\cc7q2Fhd.s:18039  .debug_str:0000000000000a4d .LASF53
C:\Users\stapi\AppData\Local\Temp\cc7q2Fhd.s:18975  .debug_str:000000000000272e .LASF54
C:\Users\stapi\AppData\Local\Temp\cc7q2Fhd.s:18705  .debug_str:0000000000001f51 .LASF55
C:\Users\stapi\AppData\Local\Temp\cc7q2Fhd.s:17895  .debug_str:0000000000000608 .LASF56
C:\Users\stapi\AppData\Local\Temp\cc7q2Fhd.s:18229  .debug_str:0000000000000ff1 .LASF57
C:\Users\stapi\AppData\Local\Temp\cc7q2Fhd.s:18515  .debug_str:00000000000019e6 .LASF58
C:\Users\stapi\AppData\Local\Temp\cc7q2Fhd.s:17865  .debug_str:000000000000053f .LASF59
C:\Users\stapi\AppData\Local\Temp\cc7q2Fhd.s:18945  .debug_str:000000000000267f .LASF60
C:\Users\stapi\AppData\Local\Temp\cc7q2Fhd.s:18153  .debug_str:0000000000000dd0 .LASF61
C:\Users\stapi\AppData\Local\Temp\cc7q2Fhd.s:17707  .debug_str:00000000000000e6 .LASF62
C:\Users\stapi\AppData\Local\Temp\cc7q2Fhd.s:17723  .debug_str:0000000000000140 .LASF63
C:\Users\stapi\AppData\Local\Temp\cc7q2Fhd.s:18619  .debug_str:0000000000001cf9 .LASF64
C:\Users\stapi\AppData\Local\Temp\cc7q2Fhd.s:18051  .debug_str:0000000000000a95 .LASF65
C:\Users\stapi\AppData\Local\Temp\cc7q2Fhd.s:18497  .debug_str:0000000000001970 .LASF66
C:\Users\stapi\AppData\Local\Temp\cc7q2Fhd.s:17765  .debug_str:0000000000000274 .LASF67
C:\Users\stapi\AppData\Local\Temp\cc7q2Fhd.s:18695  .debug_str:0000000000001f14 .LASF68
C:\Users\stapi\AppData\Local\Temp\cc7q2Fhd.s:18169  .debug_str:0000000000000e2b .LASF69
C:\Users\stapi\AppData\Local\Temp\cc7q2Fhd.s:18767  .debug_str:00000000000020f0 .LASF70
C:\Users\stapi\AppData\Local\Temp\cc7q2Fhd.s:17801  .debug_str:0000000000000381 .LASF71
C:\Users\stapi\AppData\Local\Temp\cc7q2Fhd.s:18509  .debug_str:00000000000019cc .LASF72
C:\Users\stapi\AppData\Local\Temp\cc7q2Fhd.s:18233  .debug_str:0000000000001004 .LASF73
C:\Users\stapi\AppData\Local\Temp\cc7q2Fhd.s:17993  .debug_str:00000000000008f8 .LASF74
C:\Users\stapi\AppData\Local\Temp\cc7q2Fhd.s:18279  .debug_str:000000000000125a .LASF75
C:\Users\stapi\AppData\Local\Temp\cc7q2Fhd.s:18081  .debug_str:0000000000000b6b .LASF76
C:\Users\stapi\AppData\Local\Temp\cc7q2Fhd.s:18687  .debug_str:0000000000001ee3 .LASF77
C:\Users\stapi\AppData\Local\Temp\cc7q2Fhd.s:18501  .debug_str:000000000000199d .LASF78
C:\Users\stapi\AppData\Local\Temp\cc7q2Fhd.s:18949  .debug_str:0000000000002695 .LASF79
C:\Users\stapi\AppData\Local\Temp\cc7q2Fhd.s:18355  .debug_str:0000000000001505 .LASF80
C:\Users\stapi\AppData\Local\Temp\cc7q2Fhd.s:17987  .debug_str:00000000000008b4 .LASF81
C:\Users\stapi\AppData\Local\Temp\cc7q2Fhd.s:19007  .debug_str:0000000000002815 .LASF82
C:\Users\stapi\AppData\Local\Temp\cc7q2Fhd.s:18231  .debug_str:0000000000000ff9 .LASF83
C:\Users\stapi\AppData\Local\Temp\cc7q2Fhd.s:18331  .debug_str:0000000000001469 .LASF84
C:\Users\stapi\AppData\Local\Temp\cc7q2Fhd.s:19033  .debug_str:00000000000028cb .LASF85
C:\Users\stapi\AppData\Local\Temp\cc7q2Fhd.s:17891  .debug_str:00000000000005f1 .LASF86
C:\Users\stapi\AppData\Local\Temp\cc7q2Fhd.s:18209  .debug_str:0000000000000f4e .LASF87
C:\Users\stapi\AppData\Local\Temp\cc7q2Fhd.s:18421  .debug_str:0000000000001718 .LASF88
C:\Users\stapi\AppData\Local\Temp\cc7q2Fhd.s:17737  .debug_str:0000000000000197 .LASF89
C:\Users\stapi\AppData\Local\Temp\cc7q2Fhd.s:18175  .debug_str:0000000000000e62 .LASF90
C:\Users\stapi\AppData\Local\Temp\cc7q2Fhd.s:18495  .debug_str:000000000000196b .LASF91
C:\Users\stapi\AppData\Local\Temp\cc7q2Fhd.s:18335  .debug_str:000000000000147c .LASF92
C:\Users\stapi\AppData\Local\Temp\cc7q2Fhd.s:18165  .debug_str:0000000000000e15 .LASF93
C:\Users\stapi\AppData\Local\Temp\cc7q2Fhd.s:18387  .debug_str:00000000000015f5 .LASF94
C:\Users\stapi\AppData\Local\Temp\cc7q2Fhd.s:17699  .debug_str:00000000000000c2 .LASF95
C:\Users\stapi\AppData\Local\Temp\cc7q2Fhd.s:18035  .debug_str:0000000000000a33 .LASF96
C:\Users\stapi\AppData\Local\Temp\cc7q2Fhd.s:18737  .debug_str:000000000000205f .LASF97
C:\Users\stapi\AppData\Local\Temp\cc7q2Fhd.s:18427  .debug_str:0000000000001735 .LASF98
C:\Users\stapi\AppData\Local\Temp\cc7q2Fhd.s:18379  .debug_str:00000000000015bc .LASF99
C:\Users\stapi\AppData\Local\Temp\cc7q2Fhd.s:18425  .debug_str:000000000000172f .LASF100
C:\Users\stapi\AppData\Local\Temp\cc7q2Fhd.s:18683  .debug_str:0000000000001ec6 .LASF101
C:\Users\stapi\AppData\Local\Temp\cc7q2Fhd.s:18611  .debug_str:0000000000001cbf .LASF102
C:\Users\stapi\AppData\Local\Temp\cc7q2Fhd.s:17817  .debug_str:00000000000003f8 .LASF103
C:\Users\stapi\AppData\Local\Temp\cc7q2Fhd.s:19071  .debug_str:00000000000029ef .LASF104
C:\Users\stapi\AppData\Local\Temp\cc7q2Fhd.s:17941  .debug_str:0000000000000763 .LASF105
C:\Users\stapi\AppData\Local\Temp\cc7q2Fhd.s:18715  .debug_str:0000000000001f9d .LASF106
C:\Users\stapi\AppData\Local\Temp\cc7q2Fhd.s:17735  .debug_str:000000000000018a .LASF107
C:\Users\stapi\AppData\Local\Temp\cc7q2Fhd.s:17901  .debug_str:000000000000062f .LASF108
C:\Users\stapi\AppData\Local\Temp\cc7q2Fhd.s:18399  .debug_str:0000000000001636 .LASF109
C:\Users\stapi\AppData\Local\Temp\cc7q2Fhd.s:18513  .debug_str:00000000000019db .LASF110
C:\Users\stapi\AppData\Local\Temp\cc7q2Fhd.s:18747  .debug_str:0000000000002097 .LASF111
C:\Users\stapi\AppData\Local\Temp\cc7q2Fhd.s:18841  .debug_str:0000000000002303 .LASF112
C:\Users\stapi\AppData\Local\Temp\cc7q2Fhd.s:18641  .debug_str:0000000000001da8 .LASF113
C:\Users\stapi\AppData\Local\Temp\cc7q2Fhd.s:18507  .debug_str:00000000000019be .LASF114
C:\Users\stapi\AppData\Local\Temp\cc7q2Fhd.s:17771  .debug_str:000000000000029d .LASF115
C:\Users\stapi\AppData\Local\Temp\cc7q2Fhd.s:18295  .debug_str:00000000000012da .LASF116
C:\Users\stapi\AppData\Local\Temp\cc7q2Fhd.s:19171  .debug_str:0000000000002cea .LASF117
C:\Users\stapi\AppData\Local\Temp\cc7q2Fhd.s:17883  .debug_str:00000000000005c4 .LASF118
C:\Users\stapi\AppData\Local\Temp\cc7q2Fhd.s:18725  .debug_str:0000000000002007 .LASF119
C:\Users\stapi\AppData\Local\Temp\cc7q2Fhd.s:19097  .debug_str:0000000000002aa6 .LASF120
C:\Users\stapi\AppData\Local\Temp\cc7q2Fhd.s:18483  .debug_str:0000000000001908 .LASF121
C:\Users\stapi\AppData\Local\Temp\cc7q2Fhd.s:17763  .debug_str:0000000000000263 .LASF122
C:\Users\stapi\AppData\Local\Temp\cc7q2Fhd.s:18471  .debug_str:00000000000018c9 .LASF123
C:\Users\stapi\AppData\Local\Temp\cc7q2Fhd.s:18985  .debug_str:0000000000002772 .LASF124
C:\Users\stapi\AppData\Local\Temp\cc7q2Fhd.s:18395  .debug_str:0000000000001619 .LASF125
C:\Users\stapi\AppData\Local\Temp\cc7q2Fhd.s:17757  .debug_str:000000000000024d .LASF126
C:\Users\stapi\AppData\Local\Temp\cc7q2Fhd.s:17691  .debug_str:0000000000000096 .LASF631
C:\Users\stapi\AppData\Local\Temp\cc7q2Fhd.s:17889  .debug_str:00000000000005e5 .LASF133
C:\Users\stapi\AppData\Local\Temp\cc7q2Fhd.s:18017  .debug_str:00000000000009a4 .LASF127
C:\Users\stapi\AppData\Local\Temp\cc7q2Fhd.s:17835  .debug_str:0000000000000450 .LASF128
C:\Users\stapi\AppData\Local\Temp\cc7q2Fhd.s:18609  .debug_str:0000000000001cba .LASF129
C:\Users\stapi\AppData\Local\Temp\cc7q2Fhd.s:19091  .debug_str:0000000000002a7b .LASF130
C:\Users\stapi\AppData\Local\Temp\cc7q2Fhd.s:18467  .debug_str:00000000000018b3 .LASF131
C:\Users\stapi\AppData\Local\Temp\cc7q2Fhd.s:18773  .debug_str:0000000000002109 .LASF132
C:\Users\stapi\AppData\Local\Temp\cc7q2Fhd.s:18393  .debug_str:0000000000001611 .LASF134
C:\Users\stapi\AppData\Local\Temp\cc7q2Fhd.s:18903  .debug_str:000000000000250a .LASF135
C:\Users\stapi\AppData\Local\Temp\cc7q2Fhd.s:18825  .debug_str:0000000000002294 .LASF136
C:\Users\stapi\AppData\Local\Temp\cc7q2Fhd.s:18445  .debug_str:00000000000017aa .LASF137
C:\Users\stapi\AppData\Local\Temp\cc7q2Fhd.s:18803  .debug_str:0000000000002205 .LASF138
C:\Users\stapi\AppData\Local\Temp\cc7q2Fhd.s:19149  .debug_str:0000000000002c5b .LASF139
C:\Users\stapi\AppData\Local\Temp\cc7q2Fhd.s:17829  .debug_str:0000000000000439 .LASF140
C:\Users\stapi\AppData\Local\Temp\cc7q2Fhd.s:18265  .debug_str:0000000000001201 .LASF141
C:\Users\stapi\AppData\Local\Temp\cc7q2Fhd.s:18185  .debug_str:0000000000000eb3 .LASF142
C:\Users\stapi\AppData\Local\Temp\cc7q2Fhd.s:17929  .debug_str:00000000000006e2 .LASF143
C:\Users\stapi\AppData\Local\Temp\cc7q2Fhd.s:18161  .debug_str:0000000000000df3 .LASF144
C:\Users\stapi\AppData\Local\Temp\cc7q2Fhd.s:18259  .debug_str:00000000000011de .LASF145
C:\Users\stapi\AppData\Local\Temp\cc7q2Fhd.s:17697  .debug_str:00000000000000b7 .LASF146
C:\Users\stapi\AppData\Local\Temp\cc7q2Fhd.s:19151  .debug_str:0000000000002c60 .LASF147
C:\Users\stapi\AppData\Local\Temp\cc7q2Fhd.s:18667  .debug_str:0000000000001e62 .LASF148
C:\Users\stapi\AppData\Local\Temp\cc7q2Fhd.s:18517  .debug_str:00000000000019ed .LASF149
C:\Users\stapi\AppData\Local\Temp\cc7q2Fhd.s:18423  .debug_str:0000000000001722 .LASF150
C:\Users\stapi\AppData\Local\Temp\cc7q2Fhd.s:18543  .debug_str:0000000000001ab1 .LASF151
C:\Users\stapi\AppData\Local\Temp\cc7q2Fhd.s:17989  .debug_str:00000000000008cd .LASF152
C:\Users\stapi\AppData\Local\Temp\cc7q2Fhd.s:18333  .debug_str:0000000000001473 .LASF153
C:\Users\stapi\AppData\Local\Temp\cc7q2Fhd.s:17893  .debug_str:00000000000005fb .LASF154
C:\Users\stapi\AppData\Local\Temp\cc7q2Fhd.s:19019  .debug_str:0000000000002874 .LASF155
C:\Users\stapi\AppData\Local\Temp\cc7q2Fhd.s:18703  .debug_str:0000000000001f42 .LASF156
C:\Users\stapi\AppData\Local\Temp\cc7q2Fhd.s:17731  .debug_str:0000000000000173 .LASF157
C:\Users\stapi\AppData\Local\Temp\cc7q2Fhd.s:18373  .debug_str:000000000000158c .LASF158
C:\Users\stapi\AppData\Local\Temp\cc7q2Fhd.s:18315  .debug_str:00000000000013e9 .LASF159
C:\Users\stapi\AppData\Local\Temp\cc7q2Fhd.s:18943  .debug_str:0000000000002676 .LASF160
C:\Users\stapi\AppData\Local\Temp\cc7q2Fhd.s:19063  .debug_str:00000000000029ba .LASF161
C:\Users\stapi\AppData\Local\Temp\cc7q2Fhd.s:18657  .debug_str:0000000000001e1d .LASF162
C:\Users\stapi\AppData\Local\Temp\cc7q2Fhd.s:17967  .debug_str:000000000000081c .LASF163
C:\Users\stapi\AppData\Local\Temp\cc7q2Fhd.s:17953  .debug_str:00000000000007ba .LASF164
C:\Users\stapi\AppData\Local\Temp\cc7q2Fhd.s:18699  .debug_str:0000000000001f2a .LASF165
C:\Users\stapi\AppData\Local\Temp\cc7q2Fhd.s:18519  .debug_str:00000000000019f4 .LASF166
C:\Users\stapi\AppData\Local\Temp\cc7q2Fhd.s:18299  .debug_str:00000000000012f4 .LASF167
C:\Users\stapi\AppData\Local\Temp\cc7q2Fhd.s:17717  .debug_str:000000000000011e .LASF168
C:\Users\stapi\AppData\Local\Temp\cc7q2Fhd.s:17825  .debug_str:0000000000000429 .LASF169
C:\Users\stapi\AppData\Local\Temp\cc7q2Fhd.s:18665  .debug_str:0000000000001e58 .LASF170
C:\Users\stapi\AppData\Local\Temp\cc7q2Fhd.s:18151  .debug_str:0000000000000dc6 .LASF171
C:\Users\stapi\AppData\Local\Temp\cc7q2Fhd.s:17747  .debug_str:00000000000001f1 .LASF172
C:\Users\stapi\AppData\Local\Temp\cc7q2Fhd.s:17811  .debug_str:00000000000003de .LASF173
C:\Users\stapi\AppData\Local\Temp\cc7q2Fhd.s:18059  .debug_str:0000000000000ac2 .LASF174
C:\Users\stapi\AppData\Local\Temp\cc7q2Fhd.s:17887  .debug_str:00000000000005db .LASF175
C:\Users\stapi\AppData\Local\Temp\cc7q2Fhd.s:17775  .debug_str:00000000000002b2 .LASF176
C:\Users\stapi\AppData\Local\Temp\cc7q2Fhd.s:18793  .debug_str:0000000000002191 .LASF177
C:\Users\stapi\AppData\Local\Temp\cc7q2Fhd.s:18653  .debug_str:0000000000001dfa .LASF178
C:\Users\stapi\AppData\Local\Temp\cc7q2Fhd.s:18479  .debug_str:00000000000018fd .LASF179
C:\Users\stapi\AppData\Local\Temp\cc7q2Fhd.s:17695  .debug_str:00000000000000a9 .LASF180
C:\Users\stapi\AppData\Local\Temp\cc7q2Fhd.s:18117  .debug_str:0000000000000c95 .LASF181
C:\Users\stapi\AppData\Local\Temp\cc7q2Fhd.s:18925  .debug_str:00000000000025dc .LASF182
C:\Users\stapi\AppData\Local\Temp\cc7q2Fhd.s:18077  .debug_str:0000000000000b4d .LASF183
C:\Users\stapi\AppData\Local\Temp\cc7q2Fhd.s:18073  .debug_str:0000000000000b32 .LASF184
C:\Users\stapi\AppData\Local\Temp\cc7q2Fhd.s:17917  .debug_str:0000000000000692 .LASF185
C:\Users\stapi\AppData\Local\Temp\cc7q2Fhd.s:18045  .debug_str:0000000000000a70 .LASF186
C:\Users\stapi\AppData\Local\Temp\cc7q2Fhd.s:18947  .debug_str:0000000000002688 .LASF187
C:\Users\stapi\AppData\Local\Temp\cc7q2Fhd.s:18915  .debug_str:000000000000258a .LASF188
C:\Users\stapi\AppData\Local\Temp\cc7q2Fhd.s:17833  .debug_str:0000000000000447 .LASF189
C:\Users\stapi\AppData\Local\Temp\cc7q2Fhd.s:18907  .debug_str:0000000000002542 .LASF190
C:\Users\stapi\AppData\Local\Temp\cc7q2Fhd.s:18691  .debug_str:0000000000001efa .LASF191
C:\Users\stapi\AppData\Local\Temp\cc7q2Fhd.s:18083  .debug_str:0000000000000b72 .LASF192
C:\Users\stapi\AppData\Local\Temp\cc7q2Fhd.s:18679  .debug_str:0000000000001eb5 .LASF193
C:\Users\stapi\AppData\Local\Temp\cc7q2Fhd.s:18711  .debug_str:0000000000001f85 .LASF194
C:\Users\stapi\AppData\Local\Temp\cc7q2Fhd.s:18511  .debug_str:00000000000019d5 .LASF195
C:\Users\stapi\AppData\Local\Temp\cc7q2Fhd.s:18689  .debug_str:0000000000001eeb .LASF196
C:\Users\stapi\AppData\Local\Temp\cc7q2Fhd.s:18025  .debug_str:00000000000009dc .LASF197
C:\Users\stapi\AppData\Local\Temp\cc7q2Fhd.s:18779  .debug_str:000000000000211f .LASF198
C:\Users\stapi\AppData\Local\Temp\cc7q2Fhd.s:17839  .debug_str:000000000000046c .LASF199
C:\Users\stapi\AppData\Local\Temp\cc7q2Fhd.s:17753  .debug_str:0000000000000229 .LASF200
C:\Users\stapi\AppData\Local\Temp\cc7q2Fhd.s:19125  .debug_str:0000000000002b87 .LASF201
C:\Users\stapi\AppData\Local\Temp\cc7q2Fhd.s:19039  .debug_str:00000000000028f3 .LASF202
C:\Users\stapi\AppData\Local\Temp\cc7q2Fhd.s:18877  .debug_str:0000000000002444 .LASF203
C:\Users\stapi\AppData\Local\Temp\cc7q2Fhd.s:18267  .debug_str:0000000000001209 .LASF204
C:\Users\stapi\AppData\Local\Temp\cc7q2Fhd.s:17759  .debug_str:0000000000000255 .LASF205
C:\Users\stapi\AppData\Local\Temp\cc7q2Fhd.s:18911  .debug_str:000000000000255d .LASF206
C:\Users\stapi\AppData\Local\Temp\cc7q2Fhd.s:19161  .debug_str:0000000000002c9b .LASF207
C:\Users\stapi\AppData\Local\Temp\cc7q2Fhd.s:19169  .debug_str:0000000000002cd9 .LASF208
C:\Users\stapi\AppData\Local\Temp\cc7q2Fhd.s:18629  .debug_str:0000000000001d44 .LASF209
C:\Users\stapi\AppData\Local\Temp\cc7q2Fhd.s:18843  .debug_str:0000000000002310 .LASF210
C:\Users\stapi\AppData\Local\Temp\cc7q2Fhd.s:18465  .debug_str:00000000000018a6 .LASF211
C:\Users\stapi\AppData\Local\Temp\cc7q2Fhd.s:17857  .debug_str:00000000000004fb .LASF212
C:\Users\stapi\AppData\Local\Temp\cc7q2Fhd.s:18771  .debug_str:00000000000020fb .LASF213
C:\Users\stapi\AppData\Local\Temp\cc7q2Fhd.s:19015  .debug_str:0000000000002849 .LASF214
C:\Users\stapi\AppData\Local\Temp\cc7q2Fhd.s:18535  .debug_str:0000000000001a74 .LASF215
C:\Users\stapi\AppData\Local\Temp\cc7q2Fhd.s:18473  .debug_str:00000000000018d2 .LASF216
C:\Users\stapi\AppData\Local\Temp\cc7q2Fhd.s:18317  .debug_str:00000000000013f5 .LASF217
C:\Users\stapi\AppData\Local\Temp\cc7q2Fhd.s:18369  .debug_str:000000000000155c .LASF218
C:\Users\stapi\AppData\Local\Temp\cc7q2Fhd.s:19155  .debug_str:0000000000002c70 .LASF219
C:\Users\stapi\AppData\Local\Temp\cc7q2Fhd.s:18965  .debug_str:00000000000026e0 .LASF220
C:\Users\stapi\AppData\Local\Temp\cc7q2Fhd.s:18963  .debug_str:00000000000026d3 .LASF221
C:\Users\stapi\AppData\Local\Temp\cc7q2Fhd.s:18839  .debug_str:00000000000022f3 .LASF222
C:\Users\stapi\AppData\Local\Temp\cc7q2Fhd.s:18273  .debug_str:000000000000122d .LASF223
C:\Users\stapi\AppData\Local\Temp\cc7q2Fhd.s:19067  .debug_str:00000000000029ce .LASF224
C:\Users\stapi\AppData\Local\Temp\cc7q2Fhd.s:17777  .debug_str:00000000000002c1 .LASF225
C:\Users\stapi\AppData\Local\Temp\cc7q2Fhd.s:18923  .debug_str:00000000000025cf .LASF226
C:\Users\stapi\AppData\Local\Temp\cc7q2Fhd.s:18939  .debug_str:0000000000002660 .LASF227
C:\Users\stapi\AppData\Local\Temp\cc7q2Fhd.s:18099  .debug_str:0000000000000bf0 .LASF228
C:\Users\stapi\AppData\Local\Temp\cc7q2Fhd.s:18581  .debug_str:0000000000001bc5 .LASF229
C:\Users\stapi\AppData\Local\Temp\cc7q2Fhd.s:18621  .debug_str:0000000000001cff .LASF230
C:\Users\stapi\AppData\Local\Temp\cc7q2Fhd.s:18815  .debug_str:0000000000002250 .LASF231
C:\Users\stapi\AppData\Local\Temp\cc7q2Fhd.s:19177  .debug_str:0000000000002d23 .LASF232
C:\Users\stapi\AppData\Local\Temp\cc7q2Fhd.s:18567  .debug_str:0000000000001b6a .LASF233
C:\Users\stapi\AppData\Local\Temp\cc7q2Fhd.s:17855  .debug_str:00000000000004f2 .LASF234
C:\Users\stapi\AppData\Local\Temp\cc7q2Fhd.s:18285  .debug_str:000000000000128d .LASF235
C:\Users\stapi\AppData\Local\Temp\cc7q2Fhd.s:18155  .debug_str:0000000000000dd8 .LASF236
C:\Users\stapi\AppData\Local\Temp\cc7q2Fhd.s:18187  .debug_str:0000000000000ebb .LASF237
C:\Users\stapi\AppData\Local\Temp\cc7q2Fhd.s:18323  .debug_str:0000000000001422 .LASF238
C:\Users\stapi\AppData\Local\Temp\cc7q2Fhd.s:18799  .debug_str:00000000000021cd .LASF239
C:\Users\stapi\AppData\Local\Temp\cc7q2Fhd.s:18339  .debug_str:000000000000148e .LASF240
C:\Users\stapi\AppData\Local\Temp\cc7q2Fhd.s:17959  .debug_str:00000000000007de .LASF241
C:\Users\stapi\AppData\Local\Temp\cc7q2Fhd.s:17927  .debug_str:00000000000006d5 .LASF242
C:\Users\stapi\AppData\Local\Temp\cc7q2Fhd.s:19103  .debug_str:0000000000002ae7 .LASF243
C:\Users\stapi\AppData\Local\Temp\cc7q2Fhd.s:17861  .debug_str:000000000000052f .LASF244
C:\Users\stapi\AppData\Local\Temp\cc7q2Fhd.s:18437  .debug_str:0000000000001769 .LASF245
C:\Users\stapi\AppData\Local\Temp\cc7q2Fhd.s:18087  .debug_str:0000000000000b96 .LASF246
C:\Users\stapi\AppData\Local\Temp\cc7q2Fhd.s:17815  .debug_str:00000000000003f3 .LASF247
C:\Users\stapi\AppData\Local\Temp\cc7q2Fhd.s:18769  .debug_str:00000000000020f6 .LASF248
C:\Users\stapi\AppData\Local\Temp\cc7q2Fhd.s:18829  .debug_str:00000000000022a3 .LASF249
C:\Users\stapi\AppData\Local\Temp\cc7q2Fhd.s:17797  .debug_str:0000000000000372 .LASF250
C:\Users\stapi\AppData\Local\Temp\cc7q2Fhd.s:18523  .debug_str:0000000000001a23 .LASF251
C:\Users\stapi\AppData\Local\Temp\cc7q2Fhd.s:18189  .debug_str:0000000000000ec7 .LASF252
C:\Users\stapi\AppData\Local\Temp\cc7q2Fhd.s:19069  .debug_str:00000000000029e0 .LASF253
C:\Users\stapi\AppData\Local\Temp\cc7q2Fhd.s:18989  .debug_str:0000000000002781 .LASF254
C:\Users\stapi\AppData\Local\Temp\cc7q2Fhd.s:17773  .debug_str:00000000000002a7 .LASF255
C:\Users\stapi\AppData\Local\Temp\cc7q2Fhd.s:17703  .debug_str:00000000000000d1 .LASF256
C:\Users\stapi\AppData\Local\Temp\cc7q2Fhd.s:17997  .debug_str:000000000000090b .LASF257
C:\Users\stapi\AppData\Local\Temp\cc7q2Fhd.s:19055  .debug_str:0000000000002991 .LASF258
C:\Users\stapi\AppData\Local\Temp\cc7q2Fhd.s:18049  .debug_str:0000000000000a90 .LASF259
C:\Users\stapi\AppData\Local\Temp\cc7q2Fhd.s:17781  .debug_str:00000000000002ef .LASF260
C:\Users\stapi\AppData\Local\Temp\cc7q2Fhd.s:19137  .debug_str:0000000000002bf8 .LASF261
C:\Users\stapi\AppData\Local\Temp\cc7q2Fhd.s:18459  .debug_str:0000000000001815 .LASF262
C:\Users\stapi\AppData\Local\Temp\cc7q2Fhd.s:18451  .debug_str:00000000000017de .LASF263
C:\Users\stapi\AppData\Local\Temp\cc7q2Fhd.s:18867  .debug_str:00000000000023e5 .LASF264
C:\Users\stapi\AppData\Local\Temp\cc7q2Fhd.s:18819  .debug_str:0000000000002276 .LASF265
C:\Users\stapi\AppData\Local\Temp\cc7q2Fhd.s:18027  .debug_str:00000000000009ea .LASF266
C:\Users\stapi\AppData\Local\Temp\cc7q2Fhd.s:18275  .debug_str:000000000000123d .LASF267
C:\Users\stapi\AppData\Local\Temp\cc7q2Fhd.s:19119  .debug_str:0000000000002b71 .LASF268
C:\Users\stapi\AppData\Local\Temp\cc7q2Fhd.s:18539  .debug_str:0000000000001a9b .LASF269
C:\Users\stapi\AppData\Local\Temp\cc7q2Fhd.s:18057  .debug_str:0000000000000ab7 .LASF270
C:\Users\stapi\AppData\Local\Temp\cc7q2Fhd.s:18263  .debug_str:00000000000011f7 .LASF271
C:\Users\stapi\AppData\Local\Temp\cc7q2Fhd.s:17705  .debug_str:00000000000000db .LASF272
C:\Users\stapi\AppData\Local\Temp\cc7q2Fhd.s:18851  .debug_str:0000000000002369 .LASF273
C:\Users\stapi\AppData\Local\Temp\cc7q2Fhd.s:18019  .debug_str:00000000000009b3 .LASF274
C:\Users\stapi\AppData\Local\Temp\cc7q2Fhd.s:17805  .debug_str:000000000000039b .LASF275
C:\Users\stapi\AppData\Local\Temp\cc7q2Fhd.s:17789  .debug_str:0000000000000335 .LASF276
C:\Users\stapi\AppData\Local\Temp\cc7q2Fhd.s:17957  .debug_str:00000000000007d6 .LASF277
C:\Users\stapi\AppData\Local\Temp\cc7q2Fhd.s:18723  .debug_str:0000000000001ff6 .LASF278
C:\Users\stapi\AppData\Local\Temp\cc7q2Fhd.s:18407  .debug_str:000000000000168b .LASF279
C:\Users\stapi\AppData\Local\Temp\cc7q2Fhd.s:17701  .debug_str:00000000000000c7 .LASF280
C:\Users\stapi\AppData\Local\Temp\cc7q2Fhd.s:18121  .debug_str:0000000000000cb9 .LASF281
C:\Users\stapi\AppData\Local\Temp\cc7q2Fhd.s:17881  .debug_str:00000000000005bd .LASF282
C:\Users\stapi\AppData\Local\Temp\cc7q2Fhd.s:18481  .debug_str:0000000000001902 .LASF283
C:\Users\stapi\AppData\Local\Temp\cc7q2Fhd.s:17727  .debug_str:0000000000000157 .LASF284
C:\Users\stapi\AppData\Local\Temp\cc7q2Fhd.s:19041  .debug_str:00000000000028ff .LASF285
C:\Users\stapi\AppData\Local\Temp\cc7q2Fhd.s:18201  .debug_str:0000000000000f25 .LASF286
C:\Users\stapi\AppData\Local\Temp\cc7q2Fhd.s:17879  .debug_str:00000000000005b8 .LASF287
C:\Users\stapi\AppData\Local\Temp\cc7q2Fhd.s:17897  .debug_str:000000000000060e .LASF288
C:\Users\stapi\AppData\Local\Temp\cc7q2Fhd.s:19185  .debug_str:0000000000002d62 .LASF289
C:\Users\stapi\AppData\Local\Temp\cc7q2Fhd.s:17799  .debug_str:000000000000037b .LASF290
C:\Users\stapi\AppData\Local\Temp\cc7q2Fhd.s:18713  .debug_str:0000000000001f90 .LASF291
C:\Users\stapi\AppData\Local\Temp\cc7q2Fhd.s:18983  .debug_str:0000000000002766 .LASF292
C:\Users\stapi\AppData\Local\Temp\cc7q2Fhd.s:18021  .debug_str:00000000000009bb .LASF293
C:\Users\stapi\AppData\Local\Temp\cc7q2Fhd.s:18883  .debug_str:0000000000002480 .LASF294
C:\Users\stapi\AppData\Local\Temp\cc7q2Fhd.s:18001  .debug_str:0000000000000930 .LASF295
C:\Users\stapi\AppData\Local\Temp\cc7q2Fhd.s:18957  .debug_str:00000000000026bb .LASF296
C:\Users\stapi\AppData\Local\Temp\cc7q2Fhd.s:18177  .debug_str:0000000000000e6a .LASF297
C:\Users\stapi\AppData\Local\Temp\cc7q2Fhd.s:18571  .debug_str:0000000000001b7c .LASF298
C:\Users\stapi\AppData\Local\Temp\cc7q2Fhd.s:19085  .debug_str:0000000000002a5a .LASF299
C:\Users\stapi\AppData\Local\Temp\cc7q2Fhd.s:18885  .debug_str:000000000000248a .LASF300
C:\Users\stapi\AppData\Local\Temp\cc7q2Fhd.s:18759  .debug_str:00000000000020cc .LASF301
C:\Users\stapi\AppData\Local\Temp\cc7q2Fhd.s:18901  .debug_str:0000000000002502 .LASF302
C:\Users\stapi\AppData\Local\Temp\cc7q2Fhd.s:18029  .debug_str:00000000000009f0 .LASF303
C:\Users\stapi\AppData\Local\Temp\cc7q2Fhd.s:17743  .debug_str:00000000000001dc .LASF304
C:\Users\stapi\AppData\Local\Temp\cc7q2Fhd.s:18899  .debug_str:00000000000024f5 .LASF305
C:\Users\stapi\AppData\Local\Temp\cc7q2Fhd.s:17969  .debug_str:000000000000082b .LASF306
C:\Users\stapi\AppData\Local\Temp\cc7q2Fhd.s:19089  .debug_str:0000000000002a70 .LASF307
C:\Users\stapi\AppData\Local\Temp\cc7q2Fhd.s:18167  .debug_str:0000000000000e1f .LASF308
C:\Users\stapi\AppData\Local\Temp\cc7q2Fhd.s:19027  .debug_str:00000000000028a1 .LASF309
C:\Users\stapi\AppData\Local\Temp\cc7q2Fhd.s:17843  .debug_str:0000000000000486 .LASF310
C:\Users\stapi\AppData\Local\Temp\cc7q2Fhd.s:19029  .debug_str:00000000000028ab .LASF311
C:\Users\stapi\AppData\Local\Temp\cc7q2Fhd.s:18403  .debug_str:0000000000001669 .LASF312
C:\Users\stapi\AppData\Local\Temp\cc7q2Fhd.s:18139  .debug_str:0000000000000d5a .LASF313
C:\Users\stapi\AppData\Local\Temp\cc7q2Fhd.s:18755  .debug_str:00000000000020bb .LASF314
C:\Users\stapi\AppData\Local\Temp\cc7q2Fhd.s:18605  .debug_str:0000000000001cab .LASF315
C:\Users\stapi\AppData\Local\Temp\cc7q2Fhd.s:18813  .debug_str:0000000000002244 .LASF316
C:\Users\stapi\AppData\Local\Temp\cc7q2Fhd.s:18193  .debug_str:0000000000000edf .LASF317
C:\Users\stapi\AppData\Local\Temp\cc7q2Fhd.s:18811  .debug_str:0000000000002235 .LASF318
C:\Users\stapi\AppData\Local\Temp\cc7q2Fhd.s:18673  .debug_str:0000000000001e80 .LASF319
C:\Users\stapi\AppData\Local\Temp\cc7q2Fhd.s:18109  .debug_str:0000000000000c42 .LASF320
C:\Users\stapi\AppData\Local\Temp\cc7q2Fhd.s:19073  .debug_str:00000000000029f4 .LASF321
C:\Users\stapi\AppData\Local\Temp\cc7q2Fhd.s:19083  .debug_str:0000000000002a47 .LASF322
C:\Users\stapi\AppData\Local\Temp\cc7q2Fhd.s:18775  .debug_str:000000000000210f .LASF323
C:\Users\stapi\AppData\Local\Temp\cc7q2Fhd.s:18345  .debug_str:00000000000014c5 .LASF324
C:\Users\stapi\AppData\Local\Temp\cc7q2Fhd.s:18439  .debug_str:0000000000001771 .LASF325
C:\Users\stapi\AppData\Local\Temp\cc7q2Fhd.s:18721  .debug_str:0000000000001fe1 .LASF326
C:\Users\stapi\AppData\Local\Temp\cc7q2Fhd.s:18729  .debug_str:0000000000002037 .LASF327
C:\Users\stapi\AppData\Local\Temp\cc7q2Fhd.s:18015  .debug_str:0000000000000996 .LASF328
C:\Users\stapi\AppData\Local\Temp\cc7q2Fhd.s:18247  .debug_str:0000000000001153 .LASF329
C:\Users\stapi\AppData\Local\Temp\cc7q2Fhd.s:19099  .debug_str:0000000000002ab7 .LASF330
C:\Users\stapi\AppData\Local\Temp\cc7q2Fhd.s:18239  .debug_str:0000000000001027 .LASF331
C:\Users\stapi\AppData\Local\Temp\cc7q2Fhd.s:18469  .debug_str:00000000000018b9 .LASF332
C:\Users\stapi\AppData\Local\Temp\cc7q2Fhd.s:17813  .debug_str:00000000000003ea .LASF333
C:\Users\stapi\AppData\Local\Temp\cc7q2Fhd.s:17673  .debug_str:0000000000000034 .LASF334
C:\Users\stapi\AppData\Local\Temp\cc7q2Fhd.s:18363  .debug_str:0000000000001537 .LASF335
C:\Users\stapi\AppData\Local\Temp\cc7q2Fhd.s:17919  .debug_str:000000000000069c .LASF336
C:\Users\stapi\AppData\Local\Temp\cc7q2Fhd.s:18807  .debug_str:000000000000221b .LASF337
C:\Users\stapi\AppData\Local\Temp\cc7q2Fhd.s:18383  .debug_str:00000000000015d6 .LASF338
C:\Users\stapi\AppData\Local\Temp\cc7q2Fhd.s:18741  .debug_str:0000000000002076 .LASF339
C:\Users\stapi\AppData\Local\Temp\cc7q2Fhd.s:18227  .debug_str:0000000000000fe8 .LASF340
C:\Users\stapi\AppData\Local\Temp\cc7q2Fhd.s:18253  .debug_str:0000000000001197 .LASF341
C:\Users\stapi\AppData\Local\Temp\cc7q2Fhd.s:18105  .debug_str:0000000000000c24 .LASF342
C:\Users\stapi\AppData\Local\Temp\cc7q2Fhd.s:17955  .debug_str:00000000000007c4 .LASF343
C:\Users\stapi\AppData\Local\Temp\cc7q2Fhd.s:18415  .debug_str:00000000000016e2 .LASF344
C:\Users\stapi\AppData\Local\Temp\cc7q2Fhd.s:18561  .debug_str:0000000000001b3f .LASF345
C:\Users\stapi\AppData\Local\Temp\cc7q2Fhd.s:19111  .debug_str:0000000000002b35 .LASF346
C:\Users\stapi\AppData\Local\Temp\cc7q2Fhd.s:18043  .debug_str:0000000000000a69 .LASF347
C:\Users\stapi\AppData\Local\Temp\cc7q2Fhd.s:18377  .debug_str:00000000000015b3 .LASF348
C:\Users\stapi\AppData\Local\Temp\cc7q2Fhd.s:19013  .debug_str:000000000000283d .LASF349
C:\Users\stapi\AppData\Local\Temp\cc7q2Fhd.s:18933  .debug_str:000000000000262f .LASF350
C:\Users\stapi\AppData\Local\Temp\cc7q2Fhd.s:17679  .debug_str:000000000000004e .LASF351
C:\Users\stapi\AppData\Local\Temp\cc7q2Fhd.s:19127  .debug_str:0000000000002b98 .LASF352
C:\Users\stapi\AppData\Local\Temp\cc7q2Fhd.s:18549  .debug_str:0000000000001acb .LASF353
C:\Users\stapi\AppData\Local\Temp\cc7q2Fhd.s:18855  .debug_str:0000000000002383 .LASF354
C:\Users\stapi\AppData\Local\Temp\cc7q2Fhd.s:19001  .debug_str:00000000000027e6 .LASF355
C:\Users\stapi\AppData\Local\Temp\cc7q2Fhd.s:18477  .debug_str:00000000000018eb .LASF369
C:\Users\stapi\AppData\Local\Temp\cc7q2Fhd.s:18079  .debug_str:0000000000000b56 .LASF356
C:\Users\stapi\AppData\Local\Temp\cc7q2Fhd.s:18937  .debug_str:000000000000264a .LASF357
C:\Users\stapi\AppData\Local\Temp\cc7q2Fhd.s:18927  .debug_str:00000000000025e5 .LASF358
C:\Users\stapi\AppData\Local\Temp\cc7q2Fhd.s:18833  .debug_str:00000000000022c1 .LASF359
C:\Users\stapi\AppData\Local\Temp\cc7q2Fhd.s:18301  .debug_str:0000000000001302 .LASF360
C:\Users\stapi\AppData\Local\Temp\cc7q2Fhd.s:18281  .debug_str:0000000000001261 .LASF361
C:\Users\stapi\AppData\Local\Temp\cc7q2Fhd.s:17951  .debug_str:00000000000007a2 .LASF362
C:\Users\stapi\AppData\Local\Temp\cc7q2Fhd.s:18625  .debug_str:0000000000001d23 .LASF363
C:\Users\stapi\AppData\Local\Temp\cc7q2Fhd.s:18537  .debug_str:0000000000001a86 .LASF364
C:\Users\stapi\AppData\Local\Temp\cc7q2Fhd.s:18311  .debug_str:00000000000013c7 .LASF365
C:\Users\stapi\AppData\Local\Temp\cc7q2Fhd.s:18565  .debug_str:0000000000001b62 .LASF366
C:\Users\stapi\AppData\Local\Temp\cc7q2Fhd.s:18245  .debug_str:0000000000001145 .LASF367
C:\Users\stapi\AppData\Local\Temp\cc7q2Fhd.s:18643  .debug_str:0000000000001db6 .LASF368
C:\Users\stapi\AppData\Local\Temp\cc7q2Fhd.s:19057  .debug_str:0000000000002997 .LASF370
C:\Users\stapi\AppData\Local\Temp\cc7q2Fhd.s:18831  .debug_str:00000000000022b0 .LASF371
C:\Users\stapi\AppData\Local\Temp\cc7q2Fhd.s:17715  .debug_str:000000000000010d .LASF372
C:\Users\stapi\AppData\Local\Temp\cc7q2Fhd.s:18525  .debug_str:0000000000001a2c .LASF373
C:\Users\stapi\AppData\Local\Temp\cc7q2Fhd.s:18455  .debug_str:00000000000017f3 .LASF374
C:\Users\stapi\AppData\Local\Temp\cc7q2Fhd.s:18489  .debug_str:0000000000001939 .LASF375
C:\Users\stapi\AppData\Local\Temp\cc7q2Fhd.s:17965  .debug_str:000000000000080b .LASF376
C:\Users\stapi\AppData\Local\Temp\cc7q2Fhd.s:19003  .debug_str:00000000000027f7 .LASF377
C:\Users\stapi\AppData\Local\Temp\cc7q2Fhd.s:18457  .debug_str:0000000000001804 .LASF378
C:\Users\stapi\AppData\Local\Temp\cc7q2Fhd.s:18397  .debug_str:0000000000001622 .LASF379
C:\Users\stapi\AppData\Local\Temp\cc7q2Fhd.s:18817  .debug_str:0000000000002263 .LASF380
C:\Users\stapi\AppData\Local\Temp\cc7q2Fhd.s:17977  .debug_str:0000000000000862 .LASF381
C:\Users\stapi\AppData\Local\Temp\cc7q2Fhd.s:18287  .debug_str:0000000000001297 .LASF382
C:\Users\stapi\AppData\Local\Temp\cc7q2Fhd.s:18661  .debug_str:0000000000001e2f .LASF383
C:\Users\stapi\AppData\Local\Temp\cc7q2Fhd.s:19021  .debug_str:000000000000287c .LASF384
C:\Users\stapi\AppData\Local\Temp\cc7q2Fhd.s:18449  .debug_str:00000000000017ca .LASF385
C:\Users\stapi\AppData\Local\Temp\cc7q2Fhd.s:18635  .debug_str:0000000000001d61 .LASF386
C:\Users\stapi\AppData\Local\Temp\cc7q2Fhd.s:18199  .debug_str:0000000000000f0e .LASF387
C:\Users\stapi\AppData\Local\Temp\cc7q2Fhd.s:18891  .debug_str:00000000000024bc .LASF388
C:\Users\stapi\AppData\Local\Temp\cc7q2Fhd.s:18961  .debug_str:00000000000026c8 .LASF389
C:\Users\stapi\AppData\Local\Temp\cc7q2Fhd.s:18809  .debug_str:0000000000002228 .LASF390
C:\Users\stapi\AppData\Local\Temp\cc7q2Fhd.s:18613  .debug_str:0000000000001cc5 .LASF391
C:\Users\stapi\AppData\Local\Temp\cc7q2Fhd.s:18221  .debug_str:0000000000000fc2 .LASF392
C:\Users\stapi\AppData\Local\Temp\cc7q2Fhd.s:18701  .debug_str:0000000000001f32 .LASF393
C:\Users\stapi\AppData\Local\Temp\cc7q2Fhd.s:17923  .debug_str:00000000000006b2 .LASF394
C:\Users\stapi\AppData\Local\Temp\cc7q2Fhd.s:18341  .debug_str:00000000000014a1 .LASF395
C:\Users\stapi\AppData\Local\Temp\cc7q2Fhd.s:18745  .debug_str:0000000000002089 .LASF396
C:\Users\stapi\AppData\Local\Temp\cc7q2Fhd.s:18093  .debug_str:0000000000000bc5 .LASF397
C:\Users\stapi\AppData\Local\Temp\cc7q2Fhd.s:17665  .debug_str:0000000000000000 .LASF398
C:\Users\stapi\AppData\Local\Temp\cc7q2Fhd.s:17667  .debug_str:0000000000000010 .LASF399
C:\Users\stapi\AppData\Local\Temp\cc7q2Fhd.s:18329  .debug_str:0000000000001459 .LASF400
C:\Users\stapi\AppData\Local\Temp\cc7q2Fhd.s:19105  .debug_str:0000000000002af6 .LASF401
C:\Users\stapi\AppData\Local\Temp\cc7q2Fhd.s:17875  .debug_str:0000000000000583 .LASF402
C:\Users\stapi\AppData\Local\Temp\cc7q2Fhd.s:18067  .debug_str:0000000000000b01 .LASF403
C:\Users\stapi\AppData\Local\Temp\cc7q2Fhd.s:18639  .debug_str:0000000000001d8f .LASF404
C:\Users\stapi\AppData\Local\Temp\cc7q2Fhd.s:18931  .debug_str:0000000000002617 .LASF405
C:\Users\stapi\AppData\Local\Temp\cc7q2Fhd.s:18971  .debug_str:000000000000270c .LASF406
C:\Users\stapi\AppData\Local\Temp\cc7q2Fhd.s:18563  .debug_str:0000000000001b49 .LASF407
C:\Users\stapi\AppData\Local\Temp\cc7q2Fhd.s:19017  .debug_str:0000000000002859 .LASF408
C:\Users\stapi\AppData\Local\Temp\cc7q2Fhd.s:18013  .debug_str:000000000000097b .LASF409
C:\Users\stapi\AppData\Local\Temp\cc7q2Fhd.s:18435  .debug_str:0000000000001750 .LASF410
C:\Users\stapi\AppData\Local\Temp\cc7q2Fhd.s:18119  .debug_str:0000000000000c9e .LASF411
C:\Users\stapi\AppData\Local\Temp\cc7q2Fhd.s:18865  .debug_str:00000000000023ca .LASF412
C:\Users\stapi\AppData\Local\Temp\cc7q2Fhd.s:17783  .debug_str:00000000000002fb .LASF413
C:\Users\stapi\AppData\Local\Temp\cc7q2Fhd.s:19113  .debug_str:0000000000002b40 .LASF414
C:\Users\stapi\AppData\Local\Temp\cc7q2Fhd.s:18129  .debug_str:0000000000000cff .LASF415
C:\Users\stapi\AppData\Local\Temp\cc7q2Fhd.s:19101  .debug_str:0000000000002ac9 .LASF416
C:\Users\stapi\AppData\Local\Temp\cc7q2Fhd.s:18783  .debug_str:000000000000213a .LASF417
C:\Users\stapi\AppData\Local\Temp\cc7q2Fhd.s:18371  .debug_str:000000000000156f .LASF418
C:\Users\stapi\AppData\Local\Temp\cc7q2Fhd.s:18171  .debug_str:0000000000000e33 .LASF419
C:\Users\stapi\AppData\Local\Temp\cc7q2Fhd.s:18707  .debug_str:0000000000001f57 .LASF420
C:\Users\stapi\AppData\Local\Temp\cc7q2Fhd.s:17983  .debug_str:0000000000000888 .LASF421
C:\Users\stapi\AppData\Local\Temp\cc7q2Fhd.s:18869  .debug_str:00000000000023f1 .LASF422
C:\Users\stapi\AppData\Local\Temp\cc7q2Fhd.s:18801  .debug_str:00000000000021de .LASF423
C:\Users\stapi\AppData\Local\Temp\cc7q2Fhd.s:18551  .debug_str:0000000000001adc .LASF424
C:\Users\stapi\AppData\Local\Temp\cc7q2Fhd.s:17851  .debug_str:00000000000004ba .LASF425
C:\Users\stapi\AppData\Local\Temp\cc7q2Fhd.s:18413  .debug_str:00000000000016c1 .LASF426
C:\Users\stapi\AppData\Local\Temp\cc7q2Fhd.s:18595  .debug_str:0000000000001c2d .LASF427
C:\Users\stapi\AppData\Local\Temp\cc7q2Fhd.s:18521  .debug_str:0000000000001a01 .LASF428
C:\Users\stapi\AppData\Local\Temp\cc7q2Fhd.s:18251  .debug_str:0000000000001174 .LASF429
C:\Users\stapi\AppData\Local\Temp\cc7q2Fhd.s:18795  .debug_str:000000000000219a .LASF430
C:\Users\stapi\AppData\Local\Temp\cc7q2Fhd.s:17859  .debug_str:0000000000000508 .LASF431
C:\Users\stapi\AppData\Local\Temp\cc7q2Fhd.s:17741  .debug_str:00000000000001b9 .LASF432
C:\Users\stapi\AppData\Local\Temp\cc7q2Fhd.s:19133  .debug_str:0000000000002bc6 .LASF433
C:\Users\stapi\AppData\Local\Temp\cc7q2Fhd.s:18849  .debug_str:0000000000002344 .LASF434
C:\Users\stapi\AppData\Local\Temp\cc7q2Fhd.s:18969  .debug_str:00000000000026f4 .LASF435
C:\Users\stapi\AppData\Local\Temp\cc7q2Fhd.s:18929  .debug_str:00000000000025fe .LASF436
C:\Users\stapi\AppData\Local\Temp\cc7q2Fhd.s:17791  .debug_str:0000000000000341 .LASF437
C:\Users\stapi\AppData\Local\Temp\cc7q2Fhd.s:17939  .debug_str:0000000000000747 .LASF438
C:\Users\stapi\AppData\Local\Temp\cc7q2Fhd.s:17769  .debug_str:0000000000000283 .LASF439
C:\Users\stapi\AppData\Local\Temp\cc7q2Fhd.s:17905  .debug_str:0000000000000647 .LASF440
C:\Users\stapi\AppData\Local\Temp\cc7q2Fhd.s:18385  .debug_str:00000000000015ea .LASF441
C:\Users\stapi\AppData\Local\Temp\cc7q2Fhd.s:18419  .debug_str:0000000000001706 .LASF442
C:\Users\stapi\AppData\Local\Temp\cc7q2Fhd.s:18009  .debug_str:000000000000095d .LASF443
C:\Users\stapi\AppData\Local\Temp\cc7q2Fhd.s:18011  .debug_str:000000000000096c .LASF444
C:\Users\stapi\AppData\Local\Temp\cc7q2Fhd.s:17687  .debug_str:000000000000007a .LASF445
C:\Users\stapi\AppData\Local\Temp\cc7q2Fhd.s:18577  .debug_str:0000000000001ba9 .LASF446
C:\Users\stapi\AppData\Local\Temp\cc7q2Fhd.s:18065  .debug_str:0000000000000af4 .LASF447
C:\Users\stapi\AppData\Local\Temp\cc7q2Fhd.s:18659  .debug_str:0000000000001e22 .LASF448
C:\Users\stapi\AppData\Local\Temp\cc7q2Fhd.s:17713  .debug_str:0000000000000100 .LASF449
C:\Users\stapi\AppData\Local\Temp\cc7q2Fhd.s:19157  .debug_str:0000000000002c81 .LASF450
C:\Users\stapi\AppData\Local\Temp\cc7q2Fhd.s:18697  .debug_str:0000000000001f1d .LASF451
C:\Users\stapi\AppData\Local\Temp\cc7q2Fhd.s:19179  .debug_str:0000000000002d32 .LASF452
C:\Users\stapi\AppData\Local\Temp\cc7q2Fhd.s:18623  .debug_str:0000000000001d14 .LASF453
C:\Users\stapi\AppData\Local\Temp\cc7q2Fhd.s:18649  .debug_str:0000000000001dde .LASF454
C:\Users\stapi\AppData\Local\Temp\cc7q2Fhd.s:19081  .debug_str:0000000000002a3b .LASF455
C:\Users\stapi\AppData\Local\Temp\cc7q2Fhd.s:18149  .debug_str:0000000000000db9 .LASF456
C:\Users\stapi\AppData\Local\Temp\cc7q2Fhd.s:18143  .debug_str:0000000000000d6e .LASF457
C:\Users\stapi\AppData\Local\Temp\cc7q2Fhd.s:18685  .debug_str:0000000000001ece .LASF458
C:\Users\stapi\AppData\Local\Temp\cc7q2Fhd.s:18993  .debug_str:000000000000279d .LASF459
C:\Users\stapi\AppData\Local\Temp\cc7q2Fhd.s:17755  .debug_str:000000000000023c .LASF460
C:\Users\stapi\AppData\Local\Temp\cc7q2Fhd.s:19123  .debug_str:0000000000002b7c .LASF461
C:\Users\stapi\AppData\Local\Temp\cc7q2Fhd.s:18827  .debug_str:0000000000002299 .LASF462
C:\Users\stapi\AppData\Local\Temp\cc7q2Fhd.s:18881  .debug_str:0000000000002471 .LASF463
C:\Users\stapi\AppData\Local\Temp\cc7q2Fhd.s:18757  .debug_str:00000000000020c3 .LASF464
C:\Users\stapi\AppData\Local\Temp\cc7q2Fhd.s:17807  .debug_str:00000000000003a5 .LASF465
C:\Users\stapi\AppData\Local\Temp\cc7q2Fhd.s:18913  .debug_str:0000000000002568 .LASF466
C:\Users\stapi\AppData\Local\Temp\cc7q2Fhd.s:18677  .debug_str:0000000000001e93 .LASF467
C:\Users\stapi\AppData\Local\Temp\cc7q2Fhd.s:18717  .debug_str:0000000000001faa .LASF468
C:\Users\stapi\AppData\Local\Temp\cc7q2Fhd.s:17963  .debug_str:0000000000000804 .LASF469
C:\Users\stapi\AppData\Local\Temp\cc7q2Fhd.s:18545  .debug_str:0000000000001abb .LASF470
C:\Users\stapi\AppData\Local\Temp\cc7q2Fhd.s:18935  .debug_str:0000000000002636 .LASF471
C:\Users\stapi\AppData\Local\Temp\cc7q2Fhd.s:18579  .debug_str:0000000000001bb3 .LASF472
C:\Users\stapi\AppData\Local\Temp\cc7q2Fhd.s:17819  .debug_str:00000000000003fe .LASF473
C:\Users\stapi\AppData\Local\Temp\cc7q2Fhd.s:17961  .debug_str:00000000000007e9 .LASF474
C:\Users\stapi\AppData\Local\Temp\cc7q2Fhd.s:18293  .debug_str:00000000000012c0 .LASF475
C:\Users\stapi\AppData\Local\Temp\cc7q2Fhd.s:18133  .debug_str:0000000000000d29 .LASF476
C:\Users\stapi\AppData\Local\Temp\cc7q2Fhd.s:18351  .debug_str:00000000000014e5 .LASF477
C:\Users\stapi\AppData\Local\Temp\cc7q2Fhd.s:18101  .debug_str:0000000000000c05 .LASF478
C:\Users\stapi\AppData\Local\Temp\cc7q2Fhd.s:18047  .debug_str:0000000000000a79 .LASF479
C:\Users\stapi\AppData\Local\Temp\cc7q2Fhd.s:19053  .debug_str:0000000000002976 .LASF480
C:\Users\stapi\AppData\Local\Temp\cc7q2Fhd.s:19175  .debug_str:0000000000002d09 .LASF481
C:\Users\stapi\AppData\Local\Temp\cc7q2Fhd.s:17803  .debug_str:0000000000000387 .LASF482
C:\Users\stapi\AppData\Local\Temp\cc7q2Fhd.s:17915  .debug_str:000000000000067f .LASF483
C:\Users\stapi\AppData\Local\Temp\cc7q2Fhd.s:17907  .debug_str:0000000000000650 .LASF484
C:\Users\stapi\AppData\Local\Temp\cc7q2Fhd.s:17689  .debug_str:000000000000008a .LASF485
C:\Users\stapi\AppData\Local\Temp\cc7q2Fhd.s:18381  .debug_str:00000000000015c3 .LASF486
C:\Users\stapi\AppData\Local\Temp\cc7q2Fhd.s:17779  .debug_str:00000000000002d8 .LASF487
C:\Users\stapi\AppData\Local\Temp\cc7q2Fhd.s:18217  .debug_str:0000000000000f99 .LASF488
C:\Users\stapi\AppData\Local\Temp\cc7q2Fhd.s:18163  .debug_str:0000000000000dfc .LASF489
C:\Users\stapi\AppData\Local\Temp\cc7q2Fhd.s:18411  .debug_str:00000000000016a9 .LASF490
C:\Users\stapi\AppData\Local\Temp\cc7q2Fhd.s:18061  .debug_str:0000000000000acd .LASF491
C:\Users\stapi\AppData\Local\Temp\cc7q2Fhd.s:18527  .debug_str:0000000000001a3d .LASF492
C:\Users\stapi\AppData\Local\Temp\cc7q2Fhd.s:18735  .debug_str:0000000000002057 .LASF493
C:\Users\stapi\AppData\Local\Temp\cc7q2Fhd.s:17985  .debug_str:00000000000008a6 .LASF494
C:\Users\stapi\AppData\Local\Temp\cc7q2Fhd.s:19163  .debug_str:0000000000002ca5 .LASF495
C:\Users\stapi\AppData\Local\Temp\cc7q2Fhd.s:18195  .debug_str:0000000000000ef1 .LASF496
C:\Users\stapi\AppData\Local\Temp\cc7q2Fhd.s:19011  .debug_str:0000000000002825 .LASF497
C:\Users\stapi\AppData\Local\Temp\cc7q2Fhd.s:18137  .debug_str:0000000000000d49 .LASF498
C:\Users\stapi\AppData\Local\Temp\cc7q2Fhd.s:19145  .debug_str:0000000000002c37 .LASF499
C:\Users\stapi\AppData\Local\Temp\cc7q2Fhd.s:17873  .debug_str:000000000000056d .LASF500
C:\Users\stapi\AppData\Local\Temp\cc7q2Fhd.s:18249  .debug_str:0000000000001163 .LASF501
C:\Users\stapi\AppData\Local\Temp\cc7q2Fhd.s:19153  .debug_str:0000000000002c65 .LASF502
C:\Users\stapi\AppData\Local\Temp\cc7q2Fhd.s:19025  .debug_str:0000000000002898 .LASF503
C:\Users\stapi\AppData\Local\Temp\cc7q2Fhd.s:18601  .debug_str:0000000000001c82 .LASF504
C:\Users\stapi\AppData\Local\Temp\cc7q2Fhd.s:18633  .debug_str:0000000000001d5c .LASF505
C:\Users\stapi\AppData\Local\Temp\cc7q2Fhd.s:18647  .debug_str:0000000000001dc6 .LASF506
C:\Users\stapi\AppData\Local\Temp\cc7q2Fhd.s:19079  .debug_str:0000000000002a1e .LASF507
C:\Users\stapi\AppData\Local\Temp\cc7q2Fhd.s:18861  .debug_str:00000000000023b3 .LASF508
C:\Users\stapi\AppData\Local\Temp\cc7q2Fhd.s:18997  .debug_str:00000000000027c2 .LASF509
C:\Users\stapi\AppData\Local\Temp\cc7q2Fhd.s:17719  .debug_str:0000000000000128 .LASF510
C:\Users\stapi\AppData\Local\Temp\cc7q2Fhd.s:18041  .debug_str:0000000000000a52 .LASF511
C:\Users\stapi\AppData\Local\Temp\cc7q2Fhd.s:19037  .debug_str:00000000000028e1 .LASF512
C:\Users\stapi\AppData\Local\Temp\cc7q2Fhd.s:17751  .debug_str:0000000000000212 .LASF513
C:\Users\stapi\AppData\Local\Temp\cc7q2Fhd.s:18147  .debug_str:0000000000000d9f .LASF514
C:\Users\stapi\AppData\Local\Temp\cc7q2Fhd.s:17999  .debug_str:0000000000000914 .LASF515
C:\Users\stapi\AppData\Local\Temp\cc7q2Fhd.s:19051  .debug_str:0000000000002960 .LASF516
C:\Users\stapi\AppData\Local\Temp\cc7q2Fhd.s:17935  .debug_str:0000000000000715 .LASF517
C:\Users\stapi\AppData\Local\Temp\cc7q2Fhd.s:18091  .debug_str:0000000000000baf .LASF518
C:\Users\stapi\AppData\Local\Temp\cc7q2Fhd.s:19129  .debug_str:0000000000002ba6 .LASF519
C:\Users\stapi\AppData\Local\Temp\cc7q2Fhd.s:17991  .debug_str:00000000000008db .LASF520
C:\Users\stapi\AppData\Local\Temp\cc7q2Fhd.s:18257  .debug_str:00000000000011c4 .LASF521
C:\Users\stapi\AppData\Local\Temp\cc7q2Fhd.s:19043  .debug_str:000000000000290f .LASF522
C:\Users\stapi\AppData\Local\Temp\cc7q2Fhd.s:18115  .debug_str:0000000000000c7c .LASF523
C:\Users\stapi\AppData\Local\Temp\cc7q2Fhd.s:18255  .debug_str:00000000000011a9 .LASF524
C:\Users\stapi\AppData\Local\Temp\cc7q2Fhd.s:17877  .debug_str:000000000000059a .LASF525
C:\Users\stapi\AppData\Local\Temp\cc7q2Fhd.s:18617  .debug_str:0000000000001cdb .LASF526
C:\Users\stapi\AppData\Local\Temp\cc7q2Fhd.s:17729  .debug_str:000000000000015d .LASF527
C:\Users\stapi\AppData\Local\Temp\cc7q2Fhd.s:18919  .debug_str:000000000000259f .LASF528
C:\Users\stapi\AppData\Local\Temp\cc7q2Fhd.s:18031  .debug_str:00000000000009fe .LASF529
C:\Users\stapi\AppData\Local\Temp\cc7q2Fhd.s:18599  .debug_str:0000000000001c64 .LASF530
C:\Users\stapi\AppData\Local\Temp\cc7q2Fhd.s:18499  .debug_str:0000000000001976 .LASF531
C:\Users\stapi\AppData\Local\Temp\cc7q2Fhd.s:18085  .debug_str:0000000000000b78 .LASF532
C:\Users\stapi\AppData\Local\Temp\cc7q2Fhd.s:18727  .debug_str:0000000000002016 .LASF533
C:\Users\stapi\AppData\Local\Temp\cc7q2Fhd.s:18215  .debug_str:0000000000000f7a .LASF534
C:\Users\stapi\AppData\Local\Temp\cc7q2Fhd.s:17739  .debug_str:000000000000019f .LASF535
C:\Users\stapi\AppData\Local\Temp\cc7q2Fhd.s:19049  .debug_str:0000000000002948 .LASF536
C:\Users\stapi\AppData\Local\Temp\cc7q2Fhd.s:18343  .debug_str:00000000000014b0 .LASF537
C:\Users\stapi\AppData\Local\Temp\cc7q2Fhd.s:18585  .debug_str:0000000000001bdd .LASF538
C:\Users\stapi\AppData\Local\Temp\cc7q2Fhd.s:18651  .debug_str:0000000000001ded .LASF539
C:\Users\stapi\AppData\Local\Temp\cc7q2Fhd.s:18995  .debug_str:00000000000027ad .LASF540
C:\Users\stapi\AppData\Local\Temp\cc7q2Fhd.s:17809  .debug_str:00000000000003cb .LASF541
C:\Users\stapi\AppData\Local\Temp\cc7q2Fhd.s:18389  .debug_str:00000000000015fd .LASF542
C:\Users\stapi\AppData\Local\Temp\cc7q2Fhd.s:18071  .debug_str:0000000000000b22 .LASF543
C:\Users\stapi\AppData\Local\Temp\cc7q2Fhd.s:18197  .debug_str:0000000000000efa .LASF544
C:\Users\stapi\AppData\Local\Temp\cc7q2Fhd.s:18889  .debug_str:00000000000024a5 .LASF545
C:\Users\stapi\AppData\Local\Temp\cc7q2Fhd.s:18493  .debug_str:0000000000001952 .LASF546
C:\Users\stapi\AppData\Local\Temp\cc7q2Fhd.s:18857  .debug_str:0000000000002391 .LASF547
C:\Users\stapi\AppData\Local\Temp\cc7q2Fhd.s:18367  .debug_str:0000000000001544 .LASF548
C:\Users\stapi\AppData\Local\Temp\cc7q2Fhd.s:18037  .debug_str:0000000000000a38 .LASF549
C:\Users\stapi\AppData\Local\Temp\cc7q2Fhd.s:18375  .debug_str:000000000000159b .LASF550
C:\Users\stapi\AppData\Local\Temp\cc7q2Fhd.s:18145  .debug_str:0000000000000d81 .LASF551
C:\Users\stapi\AppData\Local\Temp\cc7q2Fhd.s:18845  .debug_str:000000000000231d .LASF552
C:\Users\stapi\AppData\Local\Temp\cc7q2Fhd.s:18023  .debug_str:00000000000009c5 .LASF553
C:\Users\stapi\AppData\Local\Temp\cc7q2Fhd.s:18417  .debug_str:00000000000016e7 .LASF554
C:\Users\stapi\AppData\Local\Temp\cc7q2Fhd.s:18113  .debug_str:0000000000000c6d .LASF555
C:\Users\stapi\AppData\Local\Temp\cc7q2Fhd.s:18305  .debug_str:0000000000001322 .LASF556
C:\Users\stapi\AppData\Local\Temp\cc7q2Fhd.s:18089  .debug_str:0000000000000ba1 .LASF557
C:\Users\stapi\AppData\Local\Temp\cc7q2Fhd.s:19183  .debug_str:0000000000002d55 .LASF558
C:\Users\stapi\AppData\Local\Temp\cc7q2Fhd.s:18063  .debug_str:0000000000000ae6 .LASF559
C:\Users\stapi\AppData\Local\Temp\cc7q2Fhd.s:18173  .debug_str:0000000000000e52 .LASF560
C:\Users\stapi\AppData\Local\Temp\cc7q2Fhd.s:19035  .debug_str:00000000000028d3 .LASF561
C:\Users\stapi\AppData\Local\Temp\cc7q2Fhd.s:19093  .debug_str:0000000000002a80 .LASF562
C:\Users\stapi\AppData\Local\Temp\cc7q2Fhd.s:18533  .debug_str:0000000000001a64 .LASF563
C:\Users\stapi\AppData\Local\Temp\cc7q2Fhd.s:18107  .debug_str:0000000000000c2f .LASF564
C:\Users\stapi\AppData\Local\Temp\cc7q2Fhd.s:18731  .debug_str:0000000000002043 .LASF565
C:\Users\stapi\AppData\Local\Temp\cc7q2Fhd.s:17871  .debug_str:000000000000055a .LASF566
C:\Users\stapi\AppData\Local\Temp\cc7q2Fhd.s:17911  .debug_str:000000000000066a .LASF567
C:\Users\stapi\AppData\Local\Temp\cc7q2Fhd.s:17749  .debug_str:00000000000001ff .LASF568
C:\Users\stapi\AppData\Local\Temp\cc7q2Fhd.s:18271  .debug_str:000000000000121c .LASF569
C:\Users\stapi\AppData\Local\Temp\cc7q2Fhd.s:18791  .debug_str:0000000000002179 .LASF570
C:\Users\stapi\AppData\Local\Temp\cc7q2Fhd.s:18797  .debug_str:00000000000021b9 .LASF571
C:\Users\stapi\AppData\Local\Temp\cc7q2Fhd.s:17925  .debug_str:00000000000006c1 .LASF572
C:\Users\stapi\AppData\Local\Temp\cc7q2Fhd.s:18123  .debug_str:0000000000000cca .LASF573
C:\Users\stapi\AppData\Local\Temp\cc7q2Fhd.s:18327  .debug_str:000000000000143a .LASF574
C:\Users\stapi\AppData\Local\Temp\cc7q2Fhd.s:18559  .debug_str:0000000000001b25 .LASF575
C:\Users\stapi\AppData\Local\Temp\cc7q2Fhd.s:18401  .debug_str:0000000000001645 .LASF576
C:\Users\stapi\AppData\Local\Temp\cc7q2Fhd.s:17933  .debug_str:00000000000006ff .LASF577
C:\Users\stapi\AppData\Local\Temp\cc7q2Fhd.s:18905  .debug_str:0000000000002519 .LASF578
C:\Users\stapi\AppData\Local\Temp\cc7q2Fhd.s:17785  .debug_str:0000000000000317 .LASF579
C:\Users\stapi\AppData\Local\Temp\cc7q2Fhd.s:19095  .debug_str:0000000000002a8f .LASF580
C:\Users\stapi\AppData\Local\Temp\cc7q2Fhd.s:18981  .debug_str:000000000000274b .LASF581
C:\Users\stapi\AppData\Local\Temp\cc7q2Fhd.s:18879  .debug_str:0000000000002457 .LASF582
C:\Users\stapi\AppData\Local\Temp\cc7q2Fhd.s:18181  .debug_str:0000000000000e83 .LASF583
C:\Users\stapi\AppData\Local\Temp\cc7q2Fhd.s:18157  .debug_str:0000000000000de0 .LASF584
C:\Users\stapi\AppData\Local\Temp\cc7q2Fhd.s:18615  .debug_str:0000000000001cd5 .LASF585
C:\Users\stapi\AppData\Local\Temp\cc7q2Fhd.s:17909  .debug_str:000000000000065c .LASF586
C:\Users\stapi\AppData\Local\Temp\cc7q2Fhd.s:17709  .debug_str:00000000000000ec .LASF587
C:\Users\stapi\AppData\Local\Temp\cc7q2Fhd.s:18235  .debug_str:000000000000100c .LASF588
C:\Users\stapi\AppData\Local\Temp\cc7q2Fhd.s:18863  .debug_str:00000000000023c4 .LASF589
C:\Users\stapi\AppData\Local\Temp\cc7q2Fhd.s:18103  .debug_str:0000000000000c1a .LASF590
C:\Users\stapi\AppData\Local\Temp\cc7q2Fhd.s:18289  .debug_str:00000000000012ab .LASF591
C:\Users\stapi\AppData\Local\Temp\cc7q2Fhd.s:17823  .debug_str:000000000000041f .LASF592
C:\Users\stapi\AppData\Local\Temp\cc7q2Fhd.s:18443  .debug_str:00000000000017a4 .LASF593
C:\Users\stapi\AppData\Local\Temp\cc7q2Fhd.s:18591  .debug_str:0000000000001c15 .LASF594
C:\Users\stapi\AppData\Local\Temp\cc7q2Fhd.s:18573  .debug_str:0000000000001b90 .LASF595
C:\Users\stapi\AppData\Local\Temp\cc7q2Fhd.s:17975  .debug_str:0000000000000853 .LASF596
C:\Users\stapi\AppData\Local\Temp\cc7q2Fhd.s:18409  .debug_str:000000000000169b .LASF597
C:\Users\stapi\AppData\Local\Temp\cc7q2Fhd.s:18991  .debug_str:000000000000278e .LASF598
C:\Users\stapi\AppData\Local\Temp\cc7q2Fhd.s:17681  .debug_str:0000000000000062 .LASF599
C:\Users\stapi\AppData\Local\Temp\cc7q2Fhd.s:18053  .debug_str:0000000000000a9c .LASF600
C:\Users\stapi\AppData\Local\Temp\cc7q2Fhd.s:18219  .debug_str:0000000000000fb3 .LASF601
C:\Users\stapi\AppData\Local\Temp\cc7q2Fhd.s:19121  .debug_str:0000000000002b77 .LASF602
C:\Users\stapi\AppData\Local\Temp\cc7q2Fhd.s:18837  .debug_str:00000000000022eb .LASF603
C:\Users\stapi\AppData\Local\Temp\cc7q2Fhd.s:18821  .debug_str:000000000000227b .LASF604
C:\Users\stapi\AppData\Local\Temp\cc7q2Fhd.s:18475  .debug_str:00000000000018e4 .LASF605
C:\Users\stapi\AppData\Local\Temp\cc7q2Fhd.s:17827  .debug_str:0000000000000433 .LASF606
C:\Users\stapi\AppData\Local\Temp\cc7q2Fhd.s:18761  .debug_str:00000000000020d4 .LASF607
C:\Users\stapi\AppData\Local\Temp\cc7q2Fhd.s:18429  .debug_str:000000000000173b .LASF608
C:\Users\stapi\AppData\Local\Temp\cc7q2Fhd.s:17995  .debug_str:00000000000008ff .LASF609
C:\Users\stapi\AppData\Local\Temp\cc7q2Fhd.s:18781  .debug_str:0000000000002129 .LASF610
C:\Users\stapi\AppData\Local\Temp\cc7q2Fhd.s:18941  .debug_str:000000000000266c .LASF611
C:\Users\stapi\AppData\Local\Temp\cc7q2Fhd.s:18291  .debug_str:00000000000012bb .LASF612
C:\Users\stapi\AppData\Local\Temp\cc7q2Fhd.s:18553  .debug_str:0000000000001b01 .LASF613
C:\Users\stapi\AppData\Local\Temp\cc7q2Fhd.s:17711  .debug_str:00000000000000f1 .LASF614
C:\Users\stapi\AppData\Local\Temp\cc7q2Fhd.s:17793  .debug_str:000000000000035a .LASF615
C:\Users\stapi\AppData\Local\Temp\cc7q2Fhd.s:17787  .debug_str:000000000000032c .LASF616
C:\Users\stapi\AppData\Local\Temp\cc7q2Fhd.s:19115  .debug_str:0000000000002b5f .LASF617
C:\Users\stapi\AppData\Local\Temp\cc7q2Fhd.s:18875  .debug_str:0000000000002431 .LASF618
C:\Users\stapi\AppData\Local\Temp\cc7q2Fhd.s:17669  .debug_str:0000000000000020 .LASF619
C:\Users\stapi\AppData\Local\Temp\cc7q2Fhd.s:18347  .debug_str:00000000000014cd .LASF620
C:\Users\stapi\AppData\Local\Temp\cc7q2Fhd.s:18739  .debug_str:0000000000002066 .LASF621
C:\Users\stapi\AppData\Local\Temp\cc7q2Fhd.s:18097  .debug_str:0000000000000bde .LASF622
C:\Users\stapi\AppData\Local\Temp\cc7q2Fhd.s:19109  .debug_str:0000000000002b22 .LASF623
C:\Users\stapi\AppData\Local\Temp\cc7q2Fhd.s:19047  .debug_str:0000000000002931 .LASF624
C:\Users\stapi\AppData\Local\Temp\cc7q2Fhd.s:18921  .debug_str:00000000000025bc .LASF625
C:\Users\stapi\AppData\Local\Temp\cc7q2Fhd.s:18541  .debug_str:0000000000001aaa .LASF626
C:\Users\stapi\AppData\Local\Temp\cc7q2Fhd.s:18787  .debug_str:0000000000002166 .LASF627
C:\Users\stapi\AppData\Local\Temp\cc7q2Fhd.s:19059  .debug_str:00000000000029a7 .LASF628
C:\Users\stapi\AppData\Local\Temp\cc7q2Fhd.s:18681  .debug_str:0000000000001ebe .LASF629
C:\Users\stapi\AppData\Local\Temp\cc7q2Fhd.s:18405  .debug_str:0000000000001679 .LASF630
C:\Users\stapi\AppData\Local\Temp\cc7q2Fhd.s:18075  .debug_str:0000000000000b45 .LASF632
C:\Users\stapi\AppData\Local\Temp\cc7q2Fhd.s:18365  .debug_str:000000000000153c .LASF633
C:\Users\stapi\AppData\Local\Temp\cc7q2Fhd.s:18873  .debug_str:000000000000242a .LASF634
C:\Users\stapi\AppData\Local\Temp\cc7q2Fhd.s:18125  .debug_str:0000000000000cde .LASF635
C:\Users\stapi\AppData\Local\Temp\cc7q2Fhd.s:18973  .debug_str:0000000000002724 .LASF636
C:\Users\stapi\AppData\Local\Temp\cc7q2Fhd.s:18751  .debug_str:00000000000020a8 .LASF637
C:\Users\stapi\AppData\Local\Temp\cc7q2Fhd.s:19181  .debug_str:0000000000002d41 .LASF638
C:\Users\stapi\AppData\Local\Temp\cc7q2Fhd.s:18607  .debug_str:0000000000001cb4 .LASF639
C:\Users\stapi\AppData\Local\Temp\cc7q2Fhd.s:18719  .debug_str:0000000000001fcb .LASF640
C:\Users\stapi\AppData\Local\Temp\cc7q2Fhd.s:18313  .debug_str:00000000000013cf .LASF641
C:\Users\stapi\AppData\Local\Temp\cc7q2Fhd.s:18135  .debug_str:0000000000000d37 .LASF642
C:\Users\stapi\AppData\Local\Temp\cc7q2Fhd.s:18597  .debug_str:0000000000001c52 .LASF643
C:\Users\stapi\AppData\Local\Temp\cc7q2Fhd.s:18823  .debug_str:0000000000002283 .LASF754
C:\Users\stapi\AppData\Local\Temp\cc7q2Fhd.s:3862   .text.coap_debug_reset:0000000000000000 .LFB54
C:\Users\stapi\AppData\Local\Temp\cc7q2Fhd.s:3890   .text.coap_debug_reset:000000000000002e .LFE54
C:\Users\stapi\AppData\Local\Temp\cc7q2Fhd.s:17947  .debug_str:0000000000000784 .LASF644
C:\Users\stapi\AppData\Local\Temp\cc7q2Fhd.s:3720   .text.coap_debug_send_packet:0000000000000000 .LFB53
C:\Users\stapi\AppData\Local\Temp\cc7q2Fhd.s:3855   .text.coap_debug_send_packet:00000000000000a4 .LFE53
C:\Users\stapi\AppData\Local\Temp\cc7q2Fhd.s:15845  .debug_loc:0000000000000000 .LLST70
C:\Users\stapi\AppData\Local\Temp\cc7q2Fhd.s:3757   .text.coap_debug_send_packet:000000000000003c .LBB132
C:\Users\stapi\AppData\Local\Temp\cc7q2Fhd.s:3761   .text.coap_debug_send_packet:000000000000003c .LBE132
C:\Users\stapi\AppData\Local\Temp\cc7q2Fhd.s:15856  .debug_loc:000000000000001e .LLST71
C:\Users\stapi\AppData\Local\Temp\cc7q2Fhd.s:3813   .text.coap_debug_send_packet:000000000000006e .LBB135
C:\Users\stapi\AppData\Local\Temp\cc7q2Fhd.s:3825   .text.coap_debug_send_packet:0000000000000076 .LBE135
C:\Users\stapi\AppData\Local\Temp\cc7q2Fhd.s:15868  .debug_loc:000000000000003d .LLST72
C:\Users\stapi\AppData\Local\Temp\cc7q2Fhd.s:15876  .debug_loc:0000000000000051 .LLST73
C:\Users\stapi\AppData\Local\Temp\cc7q2Fhd.s:3819   .text.coap_debug_send_packet:0000000000000076 .LVL390
C:\Users\stapi\AppData\Local\Temp\cc7q2Fhd.s:3833   .text.coap_debug_send_packet:0000000000000080 .LBB137
C:\Users\stapi\AppData\Local\Temp\cc7q2Fhd.s:3837   .text.coap_debug_send_packet:0000000000000080 .LBE137
C:\Users\stapi\AppData\Local\Temp\cc7q2Fhd.s:3851   .text.coap_debug_send_packet:00000000000000a2 .LVL392
C:\Users\stapi\AppData\Local\Temp\cc7q2Fhd.s:17821  .debug_str:0000000000000404 .LASF645
C:\Users\stapi\AppData\Local\Temp\cc7q2Fhd.s:3512   .text.coap_debug_set_packet_loss:0000000000000000 .LFB52
C:\Users\stapi\AppData\Local\Temp\cc7q2Fhd.s:3709   .text.coap_debug_set_packet_loss:00000000000000fe .LFE52
C:\Users\stapi\AppData\Local\Temp\cc7q2Fhd.s:18303  .debug_str:0000000000001317 .LASF646
C:\Users\stapi\AppData\Local\Temp\cc7q2Fhd.s:15885  .debug_loc:0000000000000069 .LLST66
C:\Users\stapi\AppData\Local\Temp\cc7q2Fhd.s:15925  .debug_loc:00000000000000c7 .LLST67
C:\Users\stapi\AppData\Local\Temp\cc7q2Fhd.s:15959  .debug_loc:000000000000011f .LLST68
C:\Users\stapi\AppData\Local\Temp\cc7q2Fhd.s:15996  .debug_loc:0000000000000181 .LLST69
C:\Users\stapi\AppData\Local\Temp\cc7q2Fhd.s:3588   .text.coap_debug_set_packet_loss:0000000000000054 .LBB121
C:\Users\stapi\AppData\Local\Temp\cc7q2Fhd.s:3592   .text.coap_debug_set_packet_loss:0000000000000054 .LBE121
C:\Users\stapi\AppData\Local\Temp\cc7q2Fhd.s:3540   .text.coap_debug_set_packet_loss:000000000000001a .LVL366
C:\Users\stapi\AppData\Local\Temp\cc7q2Fhd.s:3603   .text.coap_debug_set_packet_loss:0000000000000074 .LVL371
C:\Users\stapi\AppData\Local\Temp\cc7q2Fhd.s:3649   .text.coap_debug_set_packet_loss:00000000000000b0 .LVL377
C:\Users\stapi\AppData\Local\Temp\cc7q2Fhd.s:3685   .text.coap_debug_set_packet_loss:00000000000000da .LVL382
C:\Users\stapi\AppData\Local\Temp\cc7q2Fhd.s:18977  .debug_str:0000000000002735 .LASF652
C:\Users\stapi\AppData\Local\Temp\cc7q2Fhd.s:1225   .text.coap_log_impl:0000000000000000 .LFB51
C:\Users\stapi\AppData\Local\Temp\cc7q2Fhd.s:1452   .text.coap_log_impl:000000000000012c .LFE51
C:\Users\stapi\AppData\Local\Temp\cc7q2Fhd.s:17671  .debug_str:000000000000002e .LASF647
C:\Users\stapi\AppData\Local\Temp\cc7q2Fhd.s:16018  .debug_loc:00000000000001b8 .LLST30
C:\Users\stapi\AppData\Local\Temp\cc7q2Fhd.s:18223  .debug_str:0000000000000fd1 .LASF648
C:\Users\stapi\AppData\Local\Temp\cc7q2Fhd.s:16058  .debug_loc:0000000000000216 .LLST31
C:\Users\stapi\AppData\Local\Temp\cc7q2Fhd.s:1262   .text.coap_log_impl:000000000000002a .LBB57
C:\Users\stapi\AppData\Local\Temp\cc7q2Fhd.s:1287   .text.coap_log_impl:000000000000004a .LBE57
C:\Users\stapi\AppData\Local\Temp\cc7q2Fhd.s:19087  .debug_str:0000000000002a68 .LASF649
C:\Users\stapi\AppData\Local\Temp\cc7q2Fhd.s:1278   .text.coap_log_impl:0000000000000040 .LVL96
C:\Users\stapi\AppData\Local\Temp\cc7q2Fhd.s:1285   .text.coap_log_impl:000000000000004a .LVL97
C:\Users\stapi\AppData\Local\Temp\cc7q2Fhd.s:19045  .debug_str:0000000000002929 .LASF650
C:\Users\stapi\AppData\Local\Temp\cc7q2Fhd.s:16080  .debug_loc:000000000000024d .LLST32
C:\Users\stapi\AppData\Local\Temp\cc7q2Fhd.s:18433  .debug_str:0000000000001749 .LASF651
C:\Users\stapi\AppData\Local\Temp\cc7q2Fhd.s:16095  .debug_loc:0000000000000276 .LLST33
C:\Users\stapi\AppData\Local\Temp\cc7q2Fhd.s:16106  .debug_loc:0000000000000294 .LLST34
C:\Users\stapi\AppData\Local\Temp\cc7q2Fhd.s:1327   .text.coap_log_impl:000000000000006a .LBB59
C:\Users\stapi\AppData\Local\Temp\cc7q2Fhd.s:1337   .text.coap_log_impl:0000000000000074 .LBE59
C:\Users\stapi\AppData\Local\Temp\cc7q2Fhd.s:16117  .debug_loc:00000000000002b2 .LLST35
C:\Users\stapi\AppData\Local\Temp\cc7q2Fhd.s:1333   .text.coap_log_impl:0000000000000072 .LVL101
C:\Users\stapi\AppData\Local\Temp\cc7q2Fhd.s:1339   .text.coap_log_impl:0000000000000074 .LBB61
C:\Users\stapi\AppData\Local\Temp\cc7q2Fhd.s:1388   .text.coap_log_impl:00000000000000d0 .LBE61
C:\Users\stapi\AppData\Local\Temp\cc7q2Fhd.s:16126  .debug_loc:00000000000002ca .LLST36
C:\Users\stapi\AppData\Local\Temp\cc7q2Fhd.s:16135  .debug_loc:00000000000002df .LLST37
C:\Users\stapi\AppData\Local\Temp\cc7q2Fhd.s:16146  .debug_loc:00000000000002fd .LLST38
C:\Users\stapi\AppData\Local\Temp\cc7q2Fhd.s:1342   .text.coap_log_impl:0000000000000074 .LBB63
C:\Users\stapi\AppData\Local\Temp\cc7q2Fhd.s:1346   .text.coap_log_impl:0000000000000074 .LBE63
C:\Users\stapi\AppData\Local\Temp\cc7q2Fhd.s:1347   .text.coap_log_impl:0000000000000074 .LBB65
C:\Users\stapi\AppData\Local\Temp\cc7q2Fhd.s:1360   .text.coap_log_impl:000000000000008e .LBE65
C:\Users\stapi\AppData\Local\Temp\cc7q2Fhd.s:1358   .text.coap_log_impl:000000000000008e .LVL104
C:\Users\stapi\AppData\Local\Temp\cc7q2Fhd.s:1366   .text.coap_log_impl:00000000000000a0 .LVL105
C:\Users\stapi\AppData\Local\Temp\cc7q2Fhd.s:1371   .text.coap_log_impl:00000000000000ae .LVL106
C:\Users\stapi\AppData\Local\Temp\cc7q2Fhd.s:1384   .text.coap_log_impl:00000000000000ce .LVL108
C:\Users\stapi\AppData\Local\Temp\cc7q2Fhd.s:1397   .text.coap_log_impl:00000000000000e2 .LVL111
C:\Users\stapi\AppData\Local\Temp\cc7q2Fhd.s:1413   .text.coap_log_impl:00000000000000fa .LVL113
C:\Users\stapi\AppData\Local\Temp\cc7q2Fhd.s:1426   .text.coap_log_impl:000000000000010c .LVL114
C:\Users\stapi\AppData\Local\Temp\cc7q2Fhd.s:18955  .debug_str:00000000000026a6 .LASF653
C:\Users\stapi\AppData\Local\Temp\cc7q2Fhd.s:1190   .text.coap_set_log_handler:0000000000000000 .LFB50
C:\Users\stapi\AppData\Local\Temp\cc7q2Fhd.s:1201   .text.coap_set_log_handler:000000000000000a .LFE50
C:\Users\stapi\AppData\Local\Temp\cc7q2Fhd.s:18183  .debug_str:0000000000000e9b .LASF654
C:\Users\stapi\AppData\Local\Temp\cc7q2Fhd.s:985    .text.coap_string_tls_support:0000000000000000 .LFB49
C:\Users\stapi\AppData\Local\Temp\cc7q2Fhd.s:1183   .text.coap_string_tls_support:0000000000000146 .LFE49
C:\Users\stapi\AppData\Local\Temp\cc7q2Fhd.s:18005  .debug_str:000000000000094a .LASF655
C:\Users\stapi\AppData\Local\Temp\cc7q2Fhd.s:16165  .debug_loc:000000000000032c .LLST21
C:\Users\stapi\AppData\Local\Temp\cc7q2Fhd.s:17831  .debug_str:000000000000043f .LASF656
C:\Users\stapi\AppData\Local\Temp\cc7q2Fhd.s:16176  .debug_loc:000000000000034a .LLST22
C:\Users\stapi\AppData\Local\Temp\cc7q2Fhd.s:18269  .debug_str:0000000000001213 .LASF657
C:\Users\stapi\AppData\Local\Temp\cc7q2Fhd.s:18207  .debug_str:0000000000000f44 .LASF658
C:\Users\stapi\AppData\Local\Temp\cc7q2Fhd.s:16198  .debug_loc:0000000000000381 .LLST23
C:\Users\stapi\AppData\Local\Temp\cc7q2Fhd.s:18805  .debug_str:0000000000002212 .LASF659
C:\Users\stapi\AppData\Local\Temp\cc7q2Fhd.s:16209  .debug_loc:000000000000039f .LLST24
C:\Users\stapi\AppData\Local\Temp\cc7q2Fhd.s:18505  .debug_str:00000000000019b5 .LASF660
C:\Users\stapi\AppData\Local\Temp\cc7q2Fhd.s:16220  .debug_loc:00000000000003bd .LLST25
C:\Users\stapi\AppData\Local\Temp\cc7q2Fhd.s:17981  .debug_str:000000000000087c .LASF661
C:\Users\stapi\AppData\Local\Temp\cc7q2Fhd.s:16231  .debug_loc:00000000000003db .LLST26
C:\Users\stapi\AppData\Local\Temp\cc7q2Fhd.s:17903  .debug_str:000000000000063e .LASF662
C:\Users\stapi\AppData\Local\Temp\cc7q2Fhd.s:16242  .debug_loc:00000000000003f9 .LLST27
C:\Users\stapi\AppData\Local\Temp\cc7q2Fhd.s:18709  .debug_str:0000000000001f79 .LASF663
C:\Users\stapi\AppData\Local\Temp\cc7q2Fhd.s:16253  .debug_loc:0000000000000417 .LLST28
C:\Users\stapi\AppData\Local\Temp\cc7q2Fhd.s:18357  .debug_str:0000000000001510 .LASF664
C:\Users\stapi\AppData\Local\Temp\cc7q2Fhd.s:16264  .debug_loc:0000000000000435 .LLST29
C:\Users\stapi\AppData\Local\Temp\cc7q2Fhd.s:1009   .text.coap_string_tls_support:0000000000000016 .LVL68
C:\Users\stapi\AppData\Local\Temp\cc7q2Fhd.s:1015   .text.coap_string_tls_support:0000000000000020 .LVL70
C:\Users\stapi\AppData\Local\Temp\cc7q2Fhd.s:1021   .text.coap_string_tls_support:000000000000002a .LVL72
C:\Users\stapi\AppData\Local\Temp\cc7q2Fhd.s:1027   .text.coap_string_tls_support:0000000000000034 .LVL74
C:\Users\stapi\AppData\Local\Temp\cc7q2Fhd.s:1033   .text.coap_string_tls_support:000000000000003e .LVL76
C:\Users\stapi\AppData\Local\Temp\cc7q2Fhd.s:1039   .text.coap_string_tls_support:0000000000000048 .LVL78
C:\Users\stapi\AppData\Local\Temp\cc7q2Fhd.s:1045   .text.coap_string_tls_support:0000000000000052 .LVL80
C:\Users\stapi\AppData\Local\Temp\cc7q2Fhd.s:1051   .text.coap_string_tls_support:000000000000005c .LVL82
C:\Users\stapi\AppData\Local\Temp\cc7q2Fhd.s:1068   .text.coap_string_tls_support:0000000000000078 .LVL85
C:\Users\stapi\AppData\Local\Temp\cc7q2Fhd.s:1144   .text.coap_string_tls_support:00000000000000f6 .LVL89
C:\Users\stapi\AppData\Local\Temp\cc7q2Fhd.s:18487  .debug_str:0000000000001921 .LASF665
C:\Users\stapi\AppData\Local\Temp\cc7q2Fhd.s:586    .text.coap_string_tls_version:0000000000000000 .LFB48
C:\Users\stapi\AppData\Local\Temp\cc7q2Fhd.s:962    .text.coap_string_tls_version:0000000000000278 .LFE48
C:\Users\stapi\AppData\Local\Temp\cc7q2Fhd.s:16291  .debug_loc:000000000000047f .LLST18
C:\Users\stapi\AppData\Local\Temp\cc7q2Fhd.s:16302  .debug_loc:000000000000049d .LLST19
C:\Users\stapi\AppData\Local\Temp\cc7q2Fhd.s:18007  .debug_str:0000000000000951 .LASF666
C:\Users\stapi\AppData\Local\Temp\cc7q2Fhd.s:16313  .debug_loc:00000000000004bb .LLST20
C:\Users\stapi\AppData\Local\Temp\cc7q2Fhd.s:18777  .debug_str:000000000000211a .LASF667
C:\Users\stapi\AppData\Local\Temp\cc7q2Fhd.s:17721  .debug_str:0000000000000139 .LASF668
C:\Users\stapi\AppData\Local\Temp\cc7q2Fhd.s:18959  .debug_str:00000000000026c2 .LASF669
C:\Users\stapi\AppData\Local\Temp\cc7q2Fhd.s:605    .text.coap_string_tls_version:0000000000000016 .LVL54
C:\Users\stapi\AppData\Local\Temp\cc7q2Fhd.s:639    .text.coap_string_tls_version:0000000000000044 .LVL56
C:\Users\stapi\AppData\Local\Temp\cc7q2Fhd.s:693    .text.coap_string_tls_version:0000000000000098 .LVL58
C:\Users\stapi\AppData\Local\Temp\cc7q2Fhd.s:711    .text.coap_string_tls_version:00000000000000b8 .LVL59
C:\Users\stapi\AppData\Local\Temp\cc7q2Fhd.s:752    .text.coap_string_tls_version:00000000000000fc .LVL60
C:\Users\stapi\AppData\Local\Temp\cc7q2Fhd.s:823    .text.coap_string_tls_version:000000000000017e .LVL61
C:\Users\stapi\AppData\Local\Temp\cc7q2Fhd.s:837    .text.coap_string_tls_version:000000000000019c .LVL62
C:\Users\stapi\AppData\Local\Temp\cc7q2Fhd.s:863    .text.coap_string_tls_version:00000000000001cc .LVL63
C:\Users\stapi\AppData\Local\Temp\cc7q2Fhd.s:958    .text.coap_string_tls_version:0000000000000276 .LVL66
C:\Users\stapi\AppData\Local\Temp\cc7q2Fhd.s:19143  .debug_str:0000000000002c21 .LASF670
C:\Users\stapi\AppData\Local\Temp\cc7q2Fhd.s:3452   .text.coap_show_tls_version:0000000000000000 .LFB47
C:\Users\stapi\AppData\Local\Temp\cc7q2Fhd.s:3501   .text.coap_show_tls_version:0000000000000044 .LFE47
C:\Users\stapi\AppData\Local\Temp\cc7q2Fhd.s:16332  .debug_loc:00000000000004ef .LLST65
C:\Users\stapi\AppData\Local\Temp\cc7q2Fhd.s:3475   .text.coap_show_tls_version:000000000000001a .LBB119
C:\Users\stapi\AppData\Local\Temp\cc7q2Fhd.s:3479   .text.coap_show_tls_version:000000000000001a .LBE119
C:\Users\stapi\AppData\Local\Temp\cc7q2Fhd.s:3472   .text.coap_show_tls_version:000000000000001a .LVL362
C:\Users\stapi\AppData\Local\Temp\cc7q2Fhd.s:3490   .text.coap_show_tls_version:000000000000003a .LVL363
C:\Users\stapi\AppData\Local\Temp\cc7q2Fhd.s:17931  .debug_str:00000000000006f1 .LASF671
C:\Users\stapi\AppData\Local\Temp\cc7q2Fhd.s:1550   .text.coap_show_pdu:0000000000000000 .LFB46
C:\Users\stapi\AppData\Local\Temp\cc7q2Fhd.s:3441   .text.coap_show_pdu:0000000000000be8 .LFE46
C:\Users\stapi\AppData\Local\Temp\cc7q2Fhd.s:16343  .debug_loc:000000000000050d .LLST39
C:\Users\stapi\AppData\Local\Temp\cc7q2Fhd.s:16381  .debug_loc:0000000000000570 .LLST40
C:\Users\stapi\AppData\Local\Temp\cc7q2Fhd.s:17675  .debug_str:000000000000003f .LASF672
C:\Users\stapi\AppData\Local\Temp\cc7q2Fhd.s:19065  .debug_str:00000000000029c6 .LASF673
C:\Users\stapi\AppData\Local\Temp\cc7q2Fhd.s:16414  .debug_loc:00000000000005c0 .LLST41
C:\Users\stapi\AppData\Local\Temp\cc7q2Fhd.s:18967  .debug_str:00000000000026ed .LASF674
C:\Users\stapi\AppData\Local\Temp\cc7q2Fhd.s:16478  .debug_loc:000000000000066e .LLST42
C:\Users\stapi\AppData\Local\Temp\cc7q2Fhd.s:18277  .debug_str:000000000000124d .LASF675
C:\Users\stapi\AppData\Local\Temp\cc7q2Fhd.s:16495  .debug_loc:000000000000069a .LLST43
C:\Users\stapi\AppData\Local\Temp\cc7q2Fhd.s:16524  .debug_loc:00000000000006e6 .LLST44
C:\Users\stapi\AppData\Local\Temp\cc7q2Fhd.s:18349  .debug_str:00000000000014dc .LASF676
C:\Users\stapi\AppData\Local\Temp\cc7q2Fhd.s:16591  .debug_loc:0000000000000790 .LLST45
C:\Users\stapi\AppData\Local\Temp\cc7q2Fhd.s:16618  .debug_loc:00000000000007da .LLST46
C:\Users\stapi\AppData\Local\Temp\cc7q2Fhd.s:17841  .debug_str:000000000000047d .LASF677
C:\Users\stapi\AppData\Local\Temp\cc7q2Fhd.s:18205  .debug_str:0000000000000f3c .LASF678
C:\Users\stapi\AppData\Local\Temp\cc7q2Fhd.s:16651  .debug_loc:0000000000000831 .LLST47
C:\Users\stapi\AppData\Local\Temp\cc7q2Fhd.s:18987  .debug_str:0000000000002779 .LASF679
C:\Users\stapi\AppData\Local\Temp\cc7q2Fhd.s:16678  .debug_loc:000000000000087b .LLST48
C:\Users\stapi\AppData\Local\Temp\cc7q2Fhd.s:17795  .debug_str:0000000000000368 .LASF680
C:\Users\stapi\AppData\Local\Temp\cc7q2Fhd.s:16698  .debug_loc:00000000000008b1 .LLST49
C:\Users\stapi\AppData\Local\Temp\cc7q2Fhd.s:19139  .debug_str:0000000000002c04 .LASF681
C:\Users\stapi\AppData\Local\Temp\cc7q2Fhd.s:16780  .debug_loc:000000000000098d .LLST50
C:\Users\stapi\AppData\Local\Temp\cc7q2Fhd.s:18461  .debug_str:0000000000001820 .LASF755
C:\Users\stapi\AppData\Local\Temp\cc7q2Fhd.s:2791   .text.coap_show_pdu:00000000000007fa .LDL1
C:\Users\stapi\AppData\Local\Temp\cc7q2Fhd.s:16813  .debug_loc:00000000000009e4 .LLST52
C:\Users\stapi\AppData\Local\Temp\cc7q2Fhd.s:16848  .debug_loc:0000000000000a3f .LLST53
C:\Users\stapi\AppData\Local\Temp\cc7q2Fhd.s:2815   .text.coap_show_pdu:0000000000000814 .LVL275
C:\Users\stapi\AppData\Local\Temp\cc7q2Fhd.s:2831   .text.coap_show_pdu:0000000000000832 .LVL278
C:\Users\stapi\AppData\Local\Temp\cc7q2Fhd.s:2849   .text.coap_show_pdu:000000000000084e .LVL281
C:\Users\stapi\AppData\Local\Temp\cc7q2Fhd.s:2871   .text.coap_show_pdu:0000000000000876 .LVL283
C:\Users\stapi\AppData\Local\Temp\cc7q2Fhd.s:2884   .text.coap_show_pdu:0000000000000886 .LVL285
C:\Users\stapi\AppData\Local\Temp\cc7q2Fhd.s:2899   .text.coap_show_pdu:00000000000008a4 .LVL288
C:\Users\stapi\AppData\Local\Temp\cc7q2Fhd.s:2932   .text.coap_show_pdu:00000000000008d2 .LVL291
C:\Users\stapi\AppData\Local\Temp\cc7q2Fhd.s:2960   .text.coap_show_pdu:0000000000000902 .LVL294
C:\Users\stapi\AppData\Local\Temp\cc7q2Fhd.s:2970   .text.coap_show_pdu:000000000000090e .LVL296
C:\Users\stapi\AppData\Local\Temp\cc7q2Fhd.s:2991   .text.coap_show_pdu:0000000000000932 .LVL298
C:\Users\stapi\AppData\Local\Temp\cc7q2Fhd.s:3016   .text.coap_show_pdu:000000000000095e .LVL300
C:\Users\stapi\AppData\Local\Temp\cc7q2Fhd.s:3028   .text.coap_show_pdu:000000000000096e .LVL302
C:\Users\stapi\AppData\Local\Temp\cc7q2Fhd.s:3043   .text.coap_show_pdu:0000000000000990 .LVL303
C:\Users\stapi\AppData\Local\Temp\cc7q2Fhd.s:3065   .text.coap_show_pdu:00000000000009b4 .LVL307
C:\Users\stapi\AppData\Local\Temp\cc7q2Fhd.s:18999  .debug_str:00000000000027d8 .LASF682
C:\Users\stapi\AppData\Local\Temp\cc7q2Fhd.s:16867  .debug_loc:0000000000000a73 .LLST55
C:\Users\stapi\AppData\Local\Temp\cc7q2Fhd.s:18555  .debug_str:0000000000001b14 .LASF683
C:\Users\stapi\AppData\Local\Temp\cc7q2Fhd.s:16878  .debug_loc:0000000000000a91 .LLST56
C:\Users\stapi\AppData\Local\Temp\cc7q2Fhd.s:3252   .text.coap_show_pdu:0000000000000ab2 .LBB98
C:\Users\stapi\AppData\Local\Temp\cc7q2Fhd.s:3256   .text.coap_show_pdu:0000000000000ab2 .LBE98
C:\Users\stapi\AppData\Local\Temp\cc7q2Fhd.s:3294   .text.coap_show_pdu:0000000000000afe .LBB100
C:\Users\stapi\AppData\Local\Temp\cc7q2Fhd.s:3298   .text.coap_show_pdu:0000000000000afe .LBE100
C:\Users\stapi\AppData\Local\Temp\cc7q2Fhd.s:1911   .text.coap_show_pdu:000000000000023e .LVL158
C:\Users\stapi\AppData\Local\Temp\cc7q2Fhd.s:1922   .text.coap_show_pdu:000000000000025a .LVL160
C:\Users\stapi\AppData\Local\Temp\cc7q2Fhd.s:1933   .text.coap_show_pdu:0000000000000272 .LVL161
C:\Users\stapi\AppData\Local\Temp\cc7q2Fhd.s:1952   .text.coap_show_pdu:000000000000028c .LVL163
C:\Users\stapi\AppData\Local\Temp\cc7q2Fhd.s:1970   .text.coap_show_pdu:00000000000002a6 .LVL164
C:\Users\stapi\AppData\Local\Temp\cc7q2Fhd.s:1980   .text.coap_show_pdu:00000000000002c0 .LVL166
C:\Users\stapi\AppData\Local\Temp\cc7q2Fhd.s:1992   .text.coap_show_pdu:00000000000002ce .LVL167
C:\Users\stapi\AppData\Local\Temp\cc7q2Fhd.s:2010   .text.coap_show_pdu:00000000000002f4 .LVL170
C:\Users\stapi\AppData\Local\Temp\cc7q2Fhd.s:2021   .text.coap_show_pdu:000000000000030c .LVL171
C:\Users\stapi\AppData\Local\Temp\cc7q2Fhd.s:2041   .text.coap_show_pdu:0000000000000326 .LVL173
C:\Users\stapi\AppData\Local\Temp\cc7q2Fhd.s:2062   .text.coap_show_pdu:0000000000000344 .LVL175
C:\Users\stapi\AppData\Local\Temp\cc7q2Fhd.s:2071   .text.coap_show_pdu:000000000000035a .LVL177
C:\Users\stapi\AppData\Local\Temp\cc7q2Fhd.s:3266   .text.coap_show_pdu:0000000000000ace .LVL338
C:\Users\stapi\AppData\Local\Temp\cc7q2Fhd.s:3273   .text.coap_show_pdu:0000000000000ada .LVL340
C:\Users\stapi\AppData\Local\Temp\cc7q2Fhd.s:3289   .text.coap_show_pdu:0000000000000afa .LVL342
C:\Users\stapi\AppData\Local\Temp\cc7q2Fhd.s:3308   .text.coap_show_pdu:0000000000000b1a .LVL343
C:\Users\stapi\AppData\Local\Temp\cc7q2Fhd.s:3315   .text.coap_show_pdu:0000000000000b26 .LVL345
C:\Users\stapi\AppData\Local\Temp\cc7q2Fhd.s:3341   .text.coap_show_pdu:0000000000000b54 .LVL349
C:\Users\stapi\AppData\Local\Temp\cc7q2Fhd.s:3351   .text.coap_show_pdu:0000000000000b5e .LBB116
C:\Users\stapi\AppData\Local\Temp\cc7q2Fhd.s:3421   .text.coap_show_pdu:0000000000000bc8 .LBE116
C:\Users\stapi\AppData\Local\Temp\cc7q2Fhd.s:18789  .debug_str:000000000000216e .LASF684
C:\Users\stapi\AppData\Local\Temp\cc7q2Fhd.s:16889  .debug_loc:0000000000000aaf .LLST64
C:\Users\stapi\AppData\Local\Temp\cc7q2Fhd.s:3355   .text.coap_show_pdu:0000000000000b68 .LVL351
C:\Users\stapi\AppData\Local\Temp\cc7q2Fhd.s:3398   .text.coap_show_pdu:0000000000000baa .LVL354
C:\Users\stapi\AppData\Local\Temp\cc7q2Fhd.s:1585   .text.coap_show_pdu:0000000000000008 .LBB87
C:\Users\stapi\AppData\Local\Temp\cc7q2Fhd.s:1592   .text.coap_show_pdu:0000000000000010 .LBE87
C:\Users\stapi\AppData\Local\Temp\cc7q2Fhd.s:1620   .text.coap_show_pdu:0000000000000030 .LBB89
C:\Users\stapi\AppData\Local\Temp\cc7q2Fhd.s:16905  .debug_loc:0000000000000ad2 .LLST51
C:\Users\stapi\AppData\Local\Temp\cc7q2Fhd.s:1870   .text.coap_show_pdu:00000000000001fa .LBB95
C:\Users\stapi\AppData\Local\Temp\cc7q2Fhd.s:1888   .text.coap_show_pdu:0000000000000216 .LBE95
C:\Users\stapi\AppData\Local\Temp\cc7q2Fhd.s:16912  .debug_loc:0000000000000ae5 .LLST54
C:\Users\stapi\AppData\Local\Temp\cc7q2Fhd.s:2388   .text.coap_show_pdu:0000000000000540 .LBB102
C:\Users\stapi\AppData\Local\Temp\cc7q2Fhd.s:16919  .debug_loc:0000000000000af8 .LLST57
C:\Users\stapi\AppData\Local\Temp\cc7q2Fhd.s:16934  .debug_loc:0000000000000b1a .LLST58
C:\Users\stapi\AppData\Local\Temp\cc7q2Fhd.s:16949  .debug_loc:0000000000000b3e .LLST59
C:\Users\stapi\AppData\Local\Temp\cc7q2Fhd.s:16960  .debug_loc:0000000000000b5c .LLST60
C:\Users\stapi\AppData\Local\Temp\cc7q2Fhd.s:2416   .text.coap_show_pdu:0000000000000572 .LVL217
C:\Users\stapi\AppData\Local\Temp\cc7q2Fhd.s:2433   .text.coap_show_pdu:000000000000058c .LBB105
C:\Users\stapi\AppData\Local\Temp\cc7q2Fhd.s:16976  .debug_loc:0000000000000b86 .LLST61
C:\Users\stapi\AppData\Local\Temp\cc7q2Fhd.s:17005  .debug_loc:0000000000000bd4 .LLST62
C:\Users\stapi\AppData\Local\Temp\cc7q2Fhd.s:17060  .debug_loc:0000000000000c5d .LLST63
C:\Users\stapi\AppData\Local\Temp\cc7q2Fhd.s:3156   .text.coap_show_pdu:0000000000000a44 .LVL320
C:\Users\stapi\AppData\Local\Temp\cc7q2Fhd.s:3424   .text.coap_show_pdu:0000000000000bc8 .LBB117
C:\Users\stapi\AppData\Local\Temp\cc7q2Fhd.s:3428   .text.coap_show_pdu:0000000000000bc8 .LBE117
C:\Users\stapi\AppData\Local\Temp\cc7q2Fhd.s:1647   .text.coap_show_pdu:0000000000000056 .LVL124
C:\Users\stapi\AppData\Local\Temp\cc7q2Fhd.s:1657   .text.coap_show_pdu:0000000000000076 .LVL125
C:\Users\stapi\AppData\Local\Temp\cc7q2Fhd.s:1686   .text.coap_show_pdu:00000000000000a0 .LVL128
C:\Users\stapi\AppData\Local\Temp\cc7q2Fhd.s:1692   .text.coap_show_pdu:00000000000000ac .LVL129
C:\Users\stapi\AppData\Local\Temp\cc7q2Fhd.s:1701   .text.coap_show_pdu:00000000000000c4 .LVL130
C:\Users\stapi\AppData\Local\Temp\cc7q2Fhd.s:1719   .text.coap_show_pdu:00000000000000de .LVL133
C:\Users\stapi\AppData\Local\Temp\cc7q2Fhd.s:1725   .text.coap_show_pdu:00000000000000ea .LVL134
C:\Users\stapi\AppData\Local\Temp\cc7q2Fhd.s:1747   .text.coap_show_pdu:000000000000010c .LVL137
C:\Users\stapi\AppData\Local\Temp\cc7q2Fhd.s:1754   .text.coap_show_pdu:0000000000000116 .LVL138
C:\Users\stapi\AppData\Local\Temp\cc7q2Fhd.s:1772   .text.coap_show_pdu:0000000000000136 .LVL139
C:\Users\stapi\AppData\Local\Temp\cc7q2Fhd.s:1778   .text.coap_show_pdu:0000000000000144 .LVL140
C:\Users\stapi\AppData\Local\Temp\cc7q2Fhd.s:1783   .text.coap_show_pdu:000000000000014e .LVL141
C:\Users\stapi\AppData\Local\Temp\cc7q2Fhd.s:1792   .text.coap_show_pdu:0000000000000166 .LVL143
C:\Users\stapi\AppData\Local\Temp\cc7q2Fhd.s:1822   .text.coap_show_pdu:0000000000000192 .LVL145
C:\Users\stapi\AppData\Local\Temp\cc7q2Fhd.s:1831   .text.coap_show_pdu:00000000000001a2 .LVL147
C:\Users\stapi\AppData\Local\Temp\cc7q2Fhd.s:1842   .text.coap_show_pdu:00000000000001be .LVL150
C:\Users\stapi\AppData\Local\Temp\cc7q2Fhd.s:1851   .text.coap_show_pdu:00000000000001d0 .LVL152
C:\Users\stapi\AppData\Local\Temp\cc7q2Fhd.s:1859   .text.coap_show_pdu:00000000000001e2 .LVL153
C:\Users\stapi\AppData\Local\Temp\cc7q2Fhd.s:1868   .text.coap_show_pdu:00000000000001fa .LVL155
C:\Users\stapi\AppData\Local\Temp\cc7q2Fhd.s:2078   .text.coap_show_pdu:0000000000000364 .LVL178
C:\Users\stapi\AppData\Local\Temp\cc7q2Fhd.s:2096   .text.coap_show_pdu:000000000000038a .LVL181
C:\Users\stapi\AppData\Local\Temp\cc7q2Fhd.s:2107   .text.coap_show_pdu:00000000000003a2 .LVL182
C:\Users\stapi\AppData\Local\Temp\cc7q2Fhd.s:2143   .text.coap_show_pdu:00000000000003be .LVL184
C:\Users\stapi\AppData\Local\Temp\cc7q2Fhd.s:2153   .text.coap_show_pdu:00000000000003d8 .LVL186
C:\Users\stapi\AppData\Local\Temp\cc7q2Fhd.s:2179   .text.coap_show_pdu:00000000000003fa .LVL188
C:\Users\stapi\AppData\Local\Temp\cc7q2Fhd.s:2184   .text.coap_show_pdu:0000000000000406 .LVL189
C:\Users\stapi\AppData\Local\Temp\cc7q2Fhd.s:2189   .text.coap_show_pdu:0000000000000412 .LVL190
C:\Users\stapi\AppData\Local\Temp\cc7q2Fhd.s:2222   .text.coap_show_pdu:000000000000044a .LVL194
C:\Users\stapi\AppData\Local\Temp\cc7q2Fhd.s:2227   .text.coap_show_pdu:0000000000000456 .LVL195
C:\Users\stapi\AppData\Local\Temp\cc7q2Fhd.s:2237   .text.coap_show_pdu:000000000000046a .LVL196
C:\Users\stapi\AppData\Local\Temp\cc7q2Fhd.s:2306   .text.coap_show_pdu:00000000000004bc .LVL197
C:\Users\stapi\AppData\Local\Temp\cc7q2Fhd.s:2314   .text.coap_show_pdu:00000000000004c8 .LVL200
C:\Users\stapi\AppData\Local\Temp\cc7q2Fhd.s:2325   .text.coap_show_pdu:00000000000004dc .LVL203
C:\Users\stapi\AppData\Local\Temp\cc7q2Fhd.s:2338   .text.coap_show_pdu:00000000000004ec .LVL206
C:\Users\stapi\AppData\Local\Temp\cc7q2Fhd.s:2356   .text.coap_show_pdu:0000000000000510 .LVL207
C:\Users\stapi\AppData\Local\Temp\cc7q2Fhd.s:2372   .text.coap_show_pdu:0000000000000524 .LVL210
C:\Users\stapi\AppData\Local\Temp\cc7q2Fhd.s:2377   .text.coap_show_pdu:0000000000000530 .LVL211
C:\Users\stapi\AppData\Local\Temp\cc7q2Fhd.s:2382   .text.coap_show_pdu:000000000000053c .LVL212
C:\Users\stapi\AppData\Local\Temp\cc7q2Fhd.s:2427   .text.coap_show_pdu:000000000000057e .LVL219
C:\Users\stapi\AppData\Local\Temp\cc7q2Fhd.s:2507   .text.coap_show_pdu:00000000000005d6 .LVL227
C:\Users\stapi\AppData\Local\Temp\cc7q2Fhd.s:2535   .text.coap_show_pdu:00000000000005f6 .LVL231
C:\Users\stapi\AppData\Local\Temp\cc7q2Fhd.s:2541   .text.coap_show_pdu:0000000000000604 .LVL232
C:\Users\stapi\AppData\Local\Temp\cc7q2Fhd.s:2547   .text.coap_show_pdu:0000000000000612 .LVL233
C:\Users\stapi\AppData\Local\Temp\cc7q2Fhd.s:2552   .text.coap_show_pdu:0000000000000620 .LVL234
C:\Users\stapi\AppData\Local\Temp\cc7q2Fhd.s:2556   .text.coap_show_pdu:000000000000062c .LVL235
C:\Users\stapi\AppData\Local\Temp\cc7q2Fhd.s:2569   .text.coap_show_pdu:0000000000000648 .LVL236
C:\Users\stapi\AppData\Local\Temp\cc7q2Fhd.s:2576   .text.coap_show_pdu:0000000000000654 .LVL237
C:\Users\stapi\AppData\Local\Temp\cc7q2Fhd.s:2581   .text.coap_show_pdu:0000000000000660 .LVL238
C:\Users\stapi\AppData\Local\Temp\cc7q2Fhd.s:2598   .text.coap_show_pdu:0000000000000680 .LVL240
C:\Users\stapi\AppData\Local\Temp\cc7q2Fhd.s:2605   .text.coap_show_pdu:000000000000068c .LVL242
C:\Users\stapi\AppData\Local\Temp\cc7q2Fhd.s:2611   .text.coap_show_pdu:0000000000000698 .LVL243
C:\Users\stapi\AppData\Local\Temp\cc7q2Fhd.s:2616   .text.coap_show_pdu:00000000000006a4 .LVL244
C:\Users\stapi\AppData\Local\Temp\cc7q2Fhd.s:2620   .text.coap_show_pdu:00000000000006b0 .LVL245
C:\Users\stapi\AppData\Local\Temp\cc7q2Fhd.s:2634   .text.coap_show_pdu:00000000000006ca .LVL246
C:\Users\stapi\AppData\Local\Temp\cc7q2Fhd.s:2639   .text.coap_show_pdu:00000000000006d6 .LVL247
C:\Users\stapi\AppData\Local\Temp\cc7q2Fhd.s:2652   .text.coap_show_pdu:00000000000006f4 .LVL248
C:\Users\stapi\AppData\Local\Temp\cc7q2Fhd.s:2658   .text.coap_show_pdu:0000000000000700 .LVL249
C:\Users\stapi\AppData\Local\Temp\cc7q2Fhd.s:2664   .text.coap_show_pdu:000000000000070c .LVL250
C:\Users\stapi\AppData\Local\Temp\cc7q2Fhd.s:2669   .text.coap_show_pdu:0000000000000718 .LVL251
C:\Users\stapi\AppData\Local\Temp\cc7q2Fhd.s:2673   .text.coap_show_pdu:0000000000000724 .LVL252
C:\Users\stapi\AppData\Local\Temp\cc7q2Fhd.s:2687   .text.coap_show_pdu:000000000000073e .LVL253
C:\Users\stapi\AppData\Local\Temp\cc7q2Fhd.s:2692   .text.coap_show_pdu:000000000000074a .LVL254
C:\Users\stapi\AppData\Local\Temp\cc7q2Fhd.s:2701   .text.coap_show_pdu:000000000000075a .LVL255
C:\Users\stapi\AppData\Local\Temp\cc7q2Fhd.s:2720   .text.coap_show_pdu:0000000000000776 .LVL258
C:\Users\stapi\AppData\Local\Temp\cc7q2Fhd.s:2726   .text.coap_show_pdu:0000000000000782 .LVL259
C:\Users\stapi\AppData\Local\Temp\cc7q2Fhd.s:2731   .text.coap_show_pdu:000000000000078e .LVL260
C:\Users\stapi\AppData\Local\Temp\cc7q2Fhd.s:2735   .text.coap_show_pdu:000000000000079a .LVL261
C:\Users\stapi\AppData\Local\Temp\cc7q2Fhd.s:2748   .text.coap_show_pdu:00000000000007b4 .LVL262
C:\Users\stapi\AppData\Local\Temp\cc7q2Fhd.s:2754   .text.coap_show_pdu:00000000000007c0 .LVL263
C:\Users\stapi\AppData\Local\Temp\cc7q2Fhd.s:2759   .text.coap_show_pdu:00000000000007cc .LVL264
C:\Users\stapi\AppData\Local\Temp\cc7q2Fhd.s:2764   .text.coap_show_pdu:00000000000007d8 .LVL266
C:\Users\stapi\AppData\Local\Temp\cc7q2Fhd.s:2779   .text.coap_show_pdu:00000000000007f2 .LVL268
C:\Users\stapi\AppData\Local\Temp\cc7q2Fhd.s:2796   .text.coap_show_pdu:0000000000000804 .LVL271
C:\Users\stapi\AppData\Local\Temp\cc7q2Fhd.s:3078   .text.coap_show_pdu:00000000000009c2 .LVL310
C:\Users\stapi\AppData\Local\Temp\cc7q2Fhd.s:3108   .text.coap_show_pdu:00000000000009fc .LVL312
C:\Users\stapi\AppData\Local\Temp\cc7q2Fhd.s:3113   .text.coap_show_pdu:0000000000000a08 .LVL313
C:\Users\stapi\AppData\Local\Temp\cc7q2Fhd.s:3438   .text.coap_show_pdu:0000000000000be4 .LVL359
C:\Users\stapi\AppData\Local\Temp\cc7q2Fhd.s:19131  .debug_str:0000000000002bbc .LASF685
C:\Users\stapi\AppData\Local\Temp\cc7q2Fhd.s:19167  .debug_str:0000000000002cc4 .LASF686
C:\Users\stapi\AppData\Local\Temp\cc7q2Fhd.s:19005  .debug_str:0000000000002809 .LASF687
C:\Users\stapi\AppData\Local\Temp\cc7q2Fhd.s:17867  .debug_str:0000000000000545 .LASF688
C:\Users\stapi\AppData\Local\Temp\cc7q2Fhd.s:17979  .debug_str:0000000000000875 .LASF689
C:\Users\stapi\AppData\Local\Temp\cc7q2Fhd.s:18557  .debug_str:0000000000001b1e .LASF690
C:\Users\stapi\AppData\Local\Temp\cc7q2Fhd.s:18593  .debug_str:0000000000001c25 .LASF691
C:\Users\stapi\AppData\Local\Temp\cc7q2Fhd.s:19173  .debug_str:0000000000002cf7 .LASF692
C:\Users\stapi\AppData\Local\Temp\cc7q2Fhd.s:18749  .debug_str:000000000000209c .LASF693
C:\Users\stapi\AppData\Local\Temp\cc7q2Fhd.s:18671  .debug_str:0000000000001e72 .LASF694
C:\Users\stapi\AppData\Local\Temp\cc7q2Fhd.s:19117  .debug_str:0000000000002b69 .LASF695
C:\Users\stapi\AppData\Local\Temp\cc7q2Fhd.s:18693  .debug_str:0000000000001f08 .LASF696
C:\Users\stapi\AppData\Local\Temp\cc7q2Fhd.s:18359  .debug_str:0000000000001518 .LASF697
C:\Users\stapi\AppData\Local\Temp\cc7q2Fhd.s:18835  .debug_str:00000000000022db .LASF698
C:\Users\stapi\AppData\Local\Temp\cc7q2Fhd.s:18663  .debug_str:0000000000001e4a .LASF699
C:\Users\stapi\AppData\Local\Temp\cc7q2Fhd.s:17725  .debug_str:0000000000000147 .LASF700
C:\Users\stapi\AppData\Local\Temp\cc7q2Fhd.s:18127  .debug_str:0000000000000cf7 .LASF701
C:\Users\stapi\AppData\Local\Temp\cc7q2Fhd.s:18917  .debug_str:0000000000002597 .LASF702
C:\Users\stapi\AppData\Local\Temp\cc7q2Fhd.s:18887  .debug_str:0000000000002495 .LASF703
C:\Users\stapi\AppData\Local\Temp\cc7q2Fhd.s:19159  .debug_str:0000000000002c95 .LASF704
C:\Users\stapi\AppData\Local\Temp\cc7q2Fhd.s:18307  .debug_str:0000000000001331 .LASF756
C:\Users\stapi\AppData\Local\Temp\cc7q2Fhd.s:17745  .debug_str:00000000000001e8 .LASF708
C:\Users\stapi\AppData\Local\Temp\cc7q2Fhd.s:18033  .debug_str:0000000000000a23 .LASF705
C:\Users\stapi\AppData\Local\Temp\cc7q2Fhd.s:500    .text.coap_print_addr:0000000000000000 .LFB39
C:\Users\stapi\AppData\Local\Temp\cc7q2Fhd.s:551    .text.coap_print_addr:000000000000004c .LFE39
C:\Users\stapi\AppData\Local\Temp\cc7q2Fhd.s:17122  .debug_loc:0000000000000cf4 .LLST15
C:\Users\stapi\AppData\Local\Temp\cc7q2Fhd.s:17133  .debug_loc:0000000000000d12 .LLST16
C:\Users\stapi\AppData\Local\Temp\cc7q2Fhd.s:17144  .debug_loc:0000000000000d30 .LLST17
C:\Users\stapi\AppData\Local\Temp\cc7q2Fhd.s:18765  .debug_str:00000000000020e8 .LASF706
C:\Users\stapi\AppData\Local\Temp\cc7q2Fhd.s:527    .text.coap_print_addr:000000000000001e .LVL50
C:\Users\stapi\AppData\Local\Temp\cc7q2Fhd.s:535    .text.coap_print_addr:0000000000000038 .LVL51
C:\Users\stapi\AppData\Local\Temp\cc7q2Fhd.s:540    .text.coap_print_addr:0000000000000042 .LVL52
C:\Users\stapi\AppData\Local\Temp\cc7q2Fhd.s:17733  .debug_str:000000000000017b .LASF757
C:\Users\stapi\AppData\Local\Temp\cc7q2Fhd.s:23     .text.print_readable:0000000000000000 .LFB38
C:\Users\stapi\AppData\Local\Temp\cc7q2Fhd.s:204    .text.print_readable:00000000000000e8 .LFE38
C:\Users\stapi\AppData\Local\Temp\cc7q2Fhd.s:17155  .debug_loc:0000000000000d4e .LLST0
C:\Users\stapi\AppData\Local\Temp\cc7q2Fhd.s:17170  .debug_loc:0000000000000d77 .LLST1
C:\Users\stapi\AppData\Local\Temp\cc7q2Fhd.s:17196  .debug_loc:0000000000000db9 .LLST2
C:\Users\stapi\AppData\Local\Temp\cc7q2Fhd.s:17249  .debug_loc:0000000000000e39 .LLST3
C:\Users\stapi\AppData\Local\Temp\cc7q2Fhd.s:18297  .debug_str:00000000000012e6 .LASF707
C:\Users\stapi\AppData\Local\Temp\cc7q2Fhd.s:17271  .debug_loc:0000000000000e70 .LLST4
C:\Users\stapi\AppData\Local\Temp\cc7q2Fhd.s:17282  .debug_loc:0000000000000e8e .LLST5
C:\Users\stapi\AppData\Local\Temp\cc7q2Fhd.s:59     .text.print_readable:0000000000000028 .LVL4
C:\Users\stapi\AppData\Local\Temp\cc7q2Fhd.s:74     .text.print_readable:0000000000000052 .LVL5
C:\Users\stapi\AppData\Local\Temp\cc7q2Fhd.s:18503  .debug_str:00000000000019a5 .LASF709
C:\Users\stapi\AppData\Local\Temp\cc7q2Fhd.s:18241  .debug_str:0000000000001039 .LASF710
C:\Users\stapi\AppData\Local\Temp\cc7q2Fhd.s:380    .text.coap_set_log_level:0000000000000000 .LFB36
C:\Users\stapi\AppData\Local\Temp\cc7q2Fhd.s:395    .text.coap_set_log_level:0000000000000010 .LFE36
C:\Users\stapi\AppData\Local\Temp\cc7q2Fhd.s:17303  .debug_loc:0000000000000ec4 .LLST8
C:\Users\stapi\AppData\Local\Temp\cc7q2Fhd.s:17847  .debug_str:00000000000004a1 .LASF713
C:\Users\stapi\AppData\Local\Temp\cc7q2Fhd.s:17937  .debug_str:000000000000072e .LASF711
C:\Users\stapi\AppData\Local\Temp\cc7q2Fhd.s:346    .text.coap_set_show_pdu_output:0000000000000000 .LFB34
C:\Users\stapi\AppData\Local\Temp\cc7q2Fhd.s:357    .text.coap_set_show_pdu_output:000000000000000a .LFE34
C:\Users\stapi\AppData\Local\Temp\cc7q2Fhd.s:18529  .debug_str:0000000000001a50 .LASF712
C:\Users\stapi\AppData\Local\Temp\cc7q2Fhd.s:18603  .debug_str:0000000000001c98 .LASF758
C:\Users\stapi\AppData\Local\Temp\cc7q2Fhd.s:18213  .debug_str:0000000000000f65 .LASF714
C:\Users\stapi\AppData\Local\Temp\cc7q2Fhd.s:18583  .debug_str:0000000000001bcb .LASF759
C:\Users\stapi\AppData\Local\Temp\cc7q2Fhd.s:295    .text.coap_package_name:0000000000000000 .LFB31
C:\Users\stapi\AppData\Local\Temp\cc7q2Fhd.s:305    .text.coap_package_name:000000000000000a .LFE31
C:\Users\stapi\AppData\Local\Temp\cc7q2Fhd.s:18785  .debug_str:0000000000002157 .LASF715
C:\Users\stapi\AppData\Local\Temp\cc7q2Fhd.s:17837  .debug_str:0000000000000458 .LASF716
C:\Users\stapi\AppData\Local\Temp\cc7q2Fhd.s:18587  .debug_str:0000000000001bfa .LASF717
C:\Users\stapi\AppData\Local\Temp\cc7q2Fhd.s:18225  .debug_str:0000000000000fd8 .LASF760
C:\Users\stapi\AppData\Local\Temp\cc7q2Fhd.s:214    .text.msg_code_string:0000000000000000 .LFB42
C:\Users\stapi\AppData\Local\Temp\cc7q2Fhd.s:284    .text.msg_code_string:000000000000006c .LFE42
C:\Users\stapi\AppData\Local\Temp\cc7q2Fhd.s:17337  .debug_loc:0000000000000f01 .LLST6
C:\Users\stapi\AppData\Local\Temp\cc7q2Fhd.s:259    .text.msg_code_string:000000000000003c .LBB39
C:\Users\stapi\AppData\Local\Temp\cc7q2Fhd.s:277    .text.msg_code_string:0000000000000064 .LBE39
C:\Users\stapi\AppData\Local\Temp\cc7q2Fhd.s:17373  .debug_loc:0000000000000f54 .LLST7
C:\Users\stapi\AppData\Local\Temp\cc7q2Fhd.s:272    .text.msg_code_string:0000000000000060 .LVL30
C:\Users\stapi\AppData\Local\Temp\cc7q2Fhd.s:316    .text.coap_package_version:0000000000000000 .LFB32
C:\Users\stapi\AppData\Local\Temp\cc7q2Fhd.s:326    .text.coap_package_version:000000000000000a .LFE32
C:\Users\stapi\AppData\Local\Temp\cc7q2Fhd.s:364    .text.coap_get_log_level:0000000000000000 .LFB35
C:\Users\stapi\AppData\Local\Temp\cc7q2Fhd.s:373    .text.coap_get_log_level:000000000000000a .LFE35
C:\Users\stapi\AppData\Local\Temp\cc7q2Fhd.s:409    .text.coap_print_ip_addr:0000000000000000 .LFB40
C:\Users\stapi\AppData\Local\Temp\cc7q2Fhd.s:489    .text.coap_print_ip_addr:0000000000000074 .LFE40
C:\Users\stapi\AppData\Local\Temp\cc7q2Fhd.s:17387  .debug_loc:0000000000000f75 .LLST9
C:\Users\stapi\AppData\Local\Temp\cc7q2Fhd.s:17418  .debug_loc:0000000000000fbc .LLST10
C:\Users\stapi\AppData\Local\Temp\cc7q2Fhd.s:17451  .debug_loc:000000000000100c .LLST11
C:\Users\stapi\AppData\Local\Temp\cc7q2Fhd.s:428    .text.coap_print_ip_addr:000000000000001e .LBB43
C:\Users\stapi\AppData\Local\Temp\cc7q2Fhd.s:17487  .debug_loc:000000000000105f .LLST12
C:\Users\stapi\AppData\Local\Temp\cc7q2Fhd.s:17494  .debug_loc:0000000000001072 .LLST13
C:\Users\stapi\AppData\Local\Temp\cc7q2Fhd.s:17508  .debug_loc:0000000000001093 .LLST14
C:\Users\stapi\AppData\Local\Temp\cc7q2Fhd.s:435    .text.coap_print_ip_addr:000000000000002e .LVL38
C:\Users\stapi\AppData\Local\Temp\cc7q2Fhd.s:472    .text.coap_print_ip_addr:000000000000005c .LVL45
C:\Users\stapi\AppData\Local\Temp\cc7q2Fhd.s:478    .text.coap_print_ip_addr:000000000000006a .LVL46
C:\Users\stapi\AppData\Local\Temp\cc7q2Fhd.s:17913  .debug_str:000000000000067a .LASF718
C:\Users\stapi\AppData\Local\Temp\cc7q2Fhd.s:17863  .debug_str:0000000000000538 .LASF719
C:\Users\stapi\AppData\Local\Temp\cc7q2Fhd.s:18485  .debug_str:0000000000001917 .LASF720
C:\Users\stapi\AppData\Local\Temp\cc7q2Fhd.s:17677  .debug_str:0000000000000046 .LASF721
C:\Users\stapi\AppData\Local\Temp\cc7q2Fhd.s:18131  .debug_str:0000000000000d1f .LASF722
C:\Users\stapi\AppData\Local\Temp\cc7q2Fhd.s:18895  .debug_str:00000000000024da .LASF723
C:\Users\stapi\AppData\Local\Temp\cc7q2Fhd.s:18337  .debug_str:0000000000001485 .LASF724
C:\Users\stapi\AppData\Local\Temp\cc7q2Fhd.s:18141  .debug_str:0000000000000d67 .LASF725
C:\Users\stapi\AppData\Local\Temp\cc7q2Fhd.s:18645  .debug_str:0000000000001dbd .LASF726
C:\Users\stapi\AppData\Local\Temp\cc7q2Fhd.s:19107  .debug_str:0000000000002b0c .LASF727
C:\Users\stapi\AppData\Local\Temp\cc7q2Fhd.s:17899  .debug_str:0000000000000618 .LASF728
C:\Users\stapi\AppData\Local\Temp\cc7q2Fhd.s:18447  .debug_str:00000000000017af .LASF729
C:\Users\stapi\AppData\Local\Temp\cc7q2Fhd.s:19147  .debug_str:0000000000002c40 .LASF730
C:\Users\stapi\AppData\Local\Temp\cc7q2Fhd.s:18441  .debug_str:0000000000001786 .LASF731
C:\Users\stapi\AppData\Local\Temp\cc7q2Fhd.s:18111  .debug_str:0000000000000c52 .LASF732
C:\Users\stapi\AppData\Local\Temp\cc7q2Fhd.s:19031  .debug_str:00000000000028b2 .LASF733
C:\Users\stapi\AppData\Local\Temp\cc7q2Fhd.s:18237  .debug_str:0000000000001012 .LASF734
C:\Users\stapi\AppData\Local\Temp\cc7q2Fhd.s:18871  .debug_str:000000000000240d .LASF735
C:\Users\stapi\AppData\Local\Temp\cc7q2Fhd.s:17949  .debug_str:000000000000079b .LASF736
C:\Users\stapi\AppData\Local\Temp\cc7q2Fhd.s:18055  .debug_str:0000000000000aa8 .LASF737
C:\Users\stapi\AppData\Local\Temp\cc7q2Fhd.s:18897  .debug_str:00000000000024e4 .LASF746
C:\Users\stapi\AppData\Local\Temp\cc7q2Fhd.s:18953  .debug_str:000000000000269f .LASF738
C:\Users\stapi\AppData\Local\Temp\cc7q2Fhd.s:18637  .debug_str:0000000000001d75 .LASF739
C:\Users\stapi\AppData\Local\Temp\cc7q2Fhd.s:18321  .debug_str:0000000000001411 .LASF740
C:\Users\stapi\AppData\Local\Temp\cc7q2Fhd.s:17971  .debug_str:0000000000000837 .LASF741
C:\Users\stapi\AppData\Local\Temp\cc7q2Fhd.s:18191  .debug_str:0000000000000ecf .LASF742
C:\Users\stapi\AppData\Local\Temp\cc7q2Fhd.s:18283  .debug_str:0000000000001277 .LASF743
C:\Users\stapi\AppData\Local\Temp\cc7q2Fhd.s:18575  .debug_str:0000000000001b96 .LASF744
C:\Users\stapi\AppData\Local\Temp\cc7q2Fhd.s:18391  .debug_str:000000000000160a .LASF745
C:\Users\stapi\AppData\Local\Temp\cc7q2Fhd.s:17845  .debug_str:0000000000000490 .LASF747
C:\Users\stapi\AppData\Local\Temp\cc7q2Fhd.s:18179  .debug_str:0000000000000e75 .LASF748
C:\Users\stapi\AppData\Local\Temp\cc7q2Fhd.s:18853  .debug_str:0000000000002376 .LASF749
C:\Users\stapi\AppData\Local\Temp\cc7q2Fhd.s:3747   .text.coap_debug_send_packet:0000000000000030 .LVL384
C:\Users\stapi\AppData\Local\Temp\cc7q2Fhd.s:3765   .text.coap_debug_send_packet:0000000000000044 .LVL385
C:\Users\stapi\AppData\Local\Temp\cc7q2Fhd.s:3774   .text.coap_debug_send_packet:000000000000004e .LVL386
C:\Users\stapi\AppData\Local\Temp\cc7q2Fhd.s:3786   .text.coap_debug_send_packet:0000000000000056 .LVL388
C:\Users\stapi\AppData\Local\Temp\cc7q2Fhd.s:3811   .text.coap_debug_send_packet:000000000000006e .LVL389
C:\Users\stapi\AppData\Local\Temp\cc7q2Fhd.s:3845   .text.coap_debug_send_packet:0000000000000090 .LVL391
C:\Users\stapi\AppData\Local\Temp\cc7q2Fhd.s:4558   .debug_info:0000000000000000 .Ldebug_info0
C:\Users\stapi\AppData\Local\Temp\cc7q2Fhd.s:3515   .text.coap_debug_set_packet_loss:0000000000000000 .LVL364
C:\Users\stapi\AppData\Local\Temp\cc7q2Fhd.s:3546   .text.coap_debug_set_packet_loss:0000000000000020 .LVL367
C:\Users\stapi\AppData\Local\Temp\cc7q2Fhd.s:3564   .text.coap_debug_set_packet_loss:000000000000002c .LVL369
C:\Users\stapi\AppData\Local\Temp\cc7q2Fhd.s:3613   .text.coap_debug_set_packet_loss:0000000000000080 .LVL372
C:\Users\stapi\AppData\Local\Temp\cc7q2Fhd.s:3619   .text.coap_debug_set_packet_loss:0000000000000086 .LVL373
C:\Users\stapi\AppData\Local\Temp\cc7q2Fhd.s:3533   .text.coap_debug_set_packet_loss:0000000000000010 .LVL365
C:\Users\stapi\AppData\Local\Temp\cc7q2Fhd.s:3627   .text.coap_debug_set_packet_loss:0000000000000094 .LVL374
C:\Users\stapi\AppData\Local\Temp\cc7q2Fhd.s:3641   .text.coap_debug_set_packet_loss:00000000000000a2 .LVL375
C:\Users\stapi\AppData\Local\Temp\cc7q2Fhd.s:3656   .text.coap_debug_set_packet_loss:00000000000000ba .LVL378
C:\Users\stapi\AppData\Local\Temp\cc7q2Fhd.s:3677   .text.coap_debug_set_packet_loss:00000000000000cc .LVL380
C:\Users\stapi\AppData\Local\Temp\cc7q2Fhd.s:3697   .text.coap_debug_set_packet_loss:00000000000000ee .LVL383
C:\Users\stapi\AppData\Local\Temp\cc7q2Fhd.s:3550   .text.coap_debug_set_packet_loss:0000000000000022 .LVL368
C:\Users\stapi\AppData\Local\Temp\cc7q2Fhd.s:3577   .text.coap_debug_set_packet_loss:0000000000000044 .LVL370
C:\Users\stapi\AppData\Local\Temp\cc7q2Fhd.s:3647   .text.coap_debug_set_packet_loss:00000000000000a8 .LVL376
C:\Users\stapi\AppData\Local\Temp\cc7q2Fhd.s:3683   .text.coap_debug_set_packet_loss:00000000000000d2 .LVL381
C:\Users\stapi\AppData\Local\Temp\cc7q2Fhd.s:1228   .text.coap_log_impl:0000000000000000 .LVL93
C:\Users\stapi\AppData\Local\Temp\cc7q2Fhd.s:1271   .text.coap_log_impl:0000000000000032 .LVL94
C:\Users\stapi\AppData\Local\Temp\cc7q2Fhd.s:1304   .text.coap_log_impl:0000000000000058 .LVL99
C:\Users\stapi\AppData\Local\Temp\cc7q2Fhd.s:1409   .text.coap_log_impl:00000000000000f2 .LVL112
C:\Users\stapi\AppData\Local\Temp\cc7q2Fhd.s:1432   .text.coap_log_impl:000000000000010e .LVL115
C:\Users\stapi\AppData\Local\Temp\cc7q2Fhd.s:1445   .text.coap_log_impl:0000000000000120 .LVL117
C:\Users\stapi\AppData\Local\Temp\cc7q2Fhd.s:1273   .text.coap_log_impl:0000000000000036 .LVL95
C:\Users\stapi\AppData\Local\Temp\cc7q2Fhd.s:1296   .text.coap_log_impl:0000000000000050 .LVL98
C:\Users\stapi\AppData\Local\Temp\cc7q2Fhd.s:1335   .text.coap_log_impl:0000000000000074 .LVL102
C:\Users\stapi\AppData\Local\Temp\cc7q2Fhd.s:1352   .text.coap_log_impl:0000000000000078 .LVL103
C:\Users\stapi\AppData\Local\Temp\cc7q2Fhd.s:1438   .text.coap_log_impl:0000000000000114 .LVL116
C:\Users\stapi\AppData\Local\Temp\cc7q2Fhd.s:1325   .text.coap_log_impl:000000000000006a .LVL100
C:\Users\stapi\AppData\Local\Temp\cc7q2Fhd.s:1386   .text.coap_log_impl:00000000000000d0 .LVL109
C:\Users\stapi\AppData\Local\Temp\cc7q2Fhd.s:1393   .text.coap_log_impl:00000000000000d4 .LVL110
C:\Users\stapi\AppData\Local\Temp\cc7q2Fhd.s:1382   .text.coap_log_impl:00000000000000c6 .LVL107
C:\Users\stapi\AppData\Local\Temp\cc7q2Fhd.s:988    .text.coap_string_tls_support:0000000000000000 .LVL67
C:\Users\stapi\AppData\Local\Temp\cc7q2Fhd.s:1076   .text.coap_string_tls_support:000000000000007c .LVL86
C:\Users\stapi\AppData\Local\Temp\cc7q2Fhd.s:1088   .text.coap_string_tls_support:0000000000000084 .LVL87
C:\Users\stapi\AppData\Local\Temp\cc7q2Fhd.s:1017   .text.coap_string_tls_support:0000000000000022 .LVL71
C:\Users\stapi\AppData\Local\Temp\cc7q2Fhd.s:1023   .text.coap_string_tls_support:000000000000002c .LVL73
C:\Users\stapi\AppData\Local\Temp\cc7q2Fhd.s:1029   .text.coap_string_tls_support:0000000000000036 .LVL75
C:\Users\stapi\AppData\Local\Temp\cc7q2Fhd.s:1035   .text.coap_string_tls_support:0000000000000040 .LVL77
C:\Users\stapi\AppData\Local\Temp\cc7q2Fhd.s:1041   .text.coap_string_tls_support:000000000000004a .LVL79
C:\Users\stapi\AppData\Local\Temp\cc7q2Fhd.s:1047   .text.coap_string_tls_support:0000000000000054 .LVL81
C:\Users\stapi\AppData\Local\Temp\cc7q2Fhd.s:1056   .text.coap_string_tls_support:0000000000000060 .LVL83
C:\Users\stapi\AppData\Local\Temp\cc7q2Fhd.s:1066   .text.coap_string_tls_support:0000000000000070 .LVL84
C:\Users\stapi\AppData\Local\Temp\cc7q2Fhd.s:1133   .text.coap_string_tls_support:00000000000000da .LVL88
C:\Users\stapi\AppData\Local\Temp\cc7q2Fhd.s:1148   .text.coap_string_tls_support:00000000000000f8 .LVL90
C:\Users\stapi\AppData\Local\Temp\cc7q2Fhd.s:1179   .text.coap_string_tls_support:0000000000000140 .LVL91
C:\Users\stapi\AppData\Local\Temp\cc7q2Fhd.s:589    .text.coap_string_tls_version:0000000000000000 .LVL53
C:\Users\stapi\AppData\Local\Temp\cc7q2Fhd.s:637    .text.coap_string_tls_version:000000000000003c .LVL55
C:\Users\stapi\AppData\Local\Temp\cc7q2Fhd.s:654    .text.coap_string_tls_version:0000000000000050 .LVL57
C:\Users\stapi\AppData\Local\Temp\cc7q2Fhd.s:949    .text.coap_string_tls_version:0000000000000262 .LVL64
C:\Users\stapi\AppData\Local\Temp\cc7q2Fhd.s:956    .text.coap_string_tls_version:000000000000026e .LVL65
C:\Users\stapi\AppData\Local\Temp\cc7q2Fhd.s:3455   .text.coap_show_tls_version:0000000000000000 .LVL360
C:\Users\stapi\AppData\Local\Temp\cc7q2Fhd.s:3470   .text.coap_show_tls_version:0000000000000012 .LVL361
C:\Users\stapi\AppData\Local\Temp\cc7q2Fhd.s:1553   .text.coap_show_pdu:0000000000000000 .LVL118
C:\Users\stapi\AppData\Local\Temp\cc7q2Fhd.s:1637   .text.coap_show_pdu:000000000000004a .LVL123
C:\Users\stapi\AppData\Local\Temp\cc7q2Fhd.s:1665   .text.coap_show_pdu:0000000000000082 .LVL126
C:\Users\stapi\AppData\Local\Temp\cc7q2Fhd.s:1684   .text.coap_show_pdu:0000000000000098 .LVL127
C:\Users\stapi\AppData\Local\Temp\cc7q2Fhd.s:1703   .text.coap_show_pdu:00000000000000c6 .LVL131
C:\Users\stapi\AppData\Local\Temp\cc7q2Fhd.s:1717   .text.coap_show_pdu:00000000000000d6 .LVL132
C:\Users\stapi\AppData\Local\Temp\cc7q2Fhd.s:2130   .text.coap_show_pdu:00000000000003ac .LVL183
C:\Users\stapi\AppData\Local\Temp\cc7q2Fhd.s:1614   .text.coap_show_pdu:000000000000002c .LVL120
C:\Users\stapi\AppData\Local\Temp\cc7q2Fhd.s:1849   .text.coap_show_pdu:00000000000001c8 .LVL151
C:\Users\stapi\AppData\Local\Temp\cc7q2Fhd.s:3245   .text.coap_show_pdu:0000000000000ab2 .LVL337
C:\Users\stapi\AppData\Local\Temp\cc7q2Fhd.s:1572   .text.coap_show_pdu:0000000000000008 .LVL119
C:\Users\stapi\AppData\Local\Temp\cc7q2Fhd.s:1815   .text.coap_show_pdu:0000000000000188 .LVL144
C:\Users\stapi\AppData\Local\Temp\cc7q2Fhd.s:2171   .text.coap_show_pdu:00000000000003ec .LVL187
C:\Users\stapi\AppData\Local\Temp\cc7q2Fhd.s:2194   .text.coap_show_pdu:000000000000041e .LVL191
C:\Users\stapi\AppData\Local\Temp\cc7q2Fhd.s:2214   .text.coap_show_pdu:000000000000043e .LVL192
C:\Users\stapi\AppData\Local\Temp\cc7q2Fhd.s:2216   .text.coap_show_pdu:0000000000000440 .LVL193
C:\Users\stapi\AppData\Local\Temp\cc7q2Fhd.s:2332   .text.coap_show_pdu:00000000000004e2 .LVL205
C:\Users\stapi\AppData\Local\Temp\cc7q2Fhd.s:2362   .text.coap_show_pdu:0000000000000514 .LVL209
C:\Users\stapi\AppData\Local\Temp\cc7q2Fhd.s:2411   .text.coap_show_pdu:0000000000000564 .LVL216
C:\Users\stapi\AppData\Local\Temp\cc7q2Fhd.s:2419   .text.coap_show_pdu:0000000000000574 .LVL218
C:\Users\stapi\AppData\Local\Temp\cc7q2Fhd.s:2592   .text.coap_show_pdu:0000000000000672 .LVL239
C:\Users\stapi\AppData\Local\Temp\cc7q2Fhd.s:2600   .text.coap_show_pdu:0000000000000682 .LVL241
C:\Users\stapi\AppData\Local\Temp\cc7q2Fhd.s:2707   .text.coap_show_pdu:000000000000075e .LVL256
C:\Users\stapi\AppData\Local\Temp\cc7q2Fhd.s:2715   .text.coap_show_pdu:000000000000076c .LVL257
C:\Users\stapi\AppData\Local\Temp\cc7q2Fhd.s:2761   .text.coap_show_pdu:00000000000007ce .LVL265
C:\Users\stapi\AppData\Local\Temp\cc7q2Fhd.s:2773   .text.coap_show_pdu:00000000000007e8 .LVL267
C:\Users\stapi\AppData\Local\Temp\cc7q2Fhd.s:2789   .text.coap_show_pdu:00000000000007fa .LVL270
C:\Users\stapi\AppData\Local\Temp\cc7q2Fhd.s:2798   .text.coap_show_pdu:0000000000000806 .LVL272
C:\Users\stapi\AppData\Local\Temp\cc7q2Fhd.s:2805   .text.coap_show_pdu:000000000000080a .LVL273
C:\Users\stapi\AppData\Local\Temp\cc7q2Fhd.s:2852   .text.coap_show_pdu:0000000000000850 .LVL282
C:\Users\stapi\AppData\Local\Temp\cc7q2Fhd.s:2897   .text.coap_show_pdu:000000000000089c .LVL287
C:\Users\stapi\AppData\Local\Temp\cc7q2Fhd.s:3049   .text.coap_show_pdu:0000000000000994 .LVL305
C:\Users\stapi\AppData\Local\Temp\cc7q2Fhd.s:3054   .text.coap_show_pdu:0000000000000998 .LVL306
C:\Users\stapi\AppData\Local\Temp\cc7q2Fhd.s:3071   .text.coap_show_pdu:00000000000009b8 .LVL309
C:\Users\stapi\AppData\Local\Temp\cc7q2Fhd.s:3104   .text.coap_show_pdu:00000000000009f4 .LVL311
C:\Users\stapi\AppData\Local\Temp\cc7q2Fhd.s:3119   .text.coap_show_pdu:0000000000000a0e .LVL314
C:\Users\stapi\AppData\Local\Temp\cc7q2Fhd.s:1942   .text.coap_show_pdu:0000000000000276 .LVL162
C:\Users\stapi\AppData\Local\Temp\cc7q2Fhd.s:3268   .text.coap_show_pdu:0000000000000ad2 .LVL339
C:\Users\stapi\AppData\Local\Temp\cc7q2Fhd.s:3348   .text.coap_show_pdu:0000000000000b5e .LVL350
C:\Users\stapi\AppData\Local\Temp\cc7q2Fhd.s:3419   .text.coap_show_pdu:0000000000000bc8 .LVL358
C:\Users\stapi\AppData\Local\Temp\cc7q2Fhd.s:1730   .text.coap_show_pdu:00000000000000f6 .LVL135
C:\Users\stapi\AppData\Local\Temp\cc7q2Fhd.s:1744   .text.coap_show_pdu:0000000000000104 .LVL136
C:\Users\stapi\AppData\Local\Temp\cc7q2Fhd.s:2878   .text.coap_show_pdu:000000000000087c .LVL284
C:\Users\stapi\AppData\Local\Temp\cc7q2Fhd.s:2888   .text.coap_show_pdu:0000000000000888 .LVL286
C:\Users\stapi\AppData\Local\Temp\cc7q2Fhd.s:2907   .text.coap_show_pdu:00000000000008aa .LVL289
C:\Users\stapi\AppData\Local\Temp\cc7q2Fhd.s:2964   .text.coap_show_pdu:0000000000000904 .LVL295
C:\Users\stapi\AppData\Local\Temp\cc7q2Fhd.s:2978   .text.coap_show_pdu:000000000000091a .LVL297
C:\Users\stapi\AppData\Local\Temp\cc7q2Fhd.s:3022   .text.coap_show_pdu:0000000000000964 .LVL301
C:\Users\stapi\AppData\Local\Temp\cc7q2Fhd.s:1824   .text.coap_show_pdu:0000000000000194 .LVL146
C:\Users\stapi\AppData\Local\Temp\cc7q2Fhd.s:1835   .text.coap_show_pdu:00000000000001a8 .LVL148
C:\Users\stapi\AppData\Local\Temp\cc7q2Fhd.s:2329   .text.coap_show_pdu:00000000000004de .LVL204
C:\Users\stapi\AppData\Local\Temp\cc7q2Fhd.s:2510   .text.coap_show_pdu:00000000000005da .LVL228
C:\Users\stapi\AppData\Local\Temp\cc7q2Fhd.s:2835   .text.coap_show_pdu:0000000000000836 .LVL279
C:\Users\stapi\AppData\Local\Temp\cc7q2Fhd.s:2386   .text.coap_show_pdu:0000000000000540 .LVL213
C:\Users\stapi\AppData\Local\Temp\cc7q2Fhd.s:2527   .text.coap_show_pdu:00000000000005ec .LVL230
C:\Users\stapi\AppData\Local\Temp\cc7q2Fhd.s:2308   .text.coap_show_pdu:00000000000004be .LVL198
C:\Users\stapi\AppData\Local\Temp\cc7q2Fhd.s:2312   .text.coap_show_pdu:00000000000004c0 .LVL199
C:\Users\stapi\AppData\Local\Temp\cc7q2Fhd.s:2784   .text.coap_show_pdu:00000000000007f8 .LVL269
C:\Users\stapi\AppData\Local\Temp\cc7q2Fhd.s:2813   .text.coap_show_pdu:000000000000080c .LVL274
C:\Users\stapi\AppData\Local\Temp\cc7q2Fhd.s:3000   .text.coap_show_pdu:000000000000093e .LVL299
C:\Users\stapi\AppData\Local\Temp\cc7q2Fhd.s:2319   .text.coap_show_pdu:00000000000004ce .LVL201
C:\Users\stapi\AppData\Local\Temp\cc7q2Fhd.s:2323   .text.coap_show_pdu:00000000000004d4 .LVL202
C:\Users\stapi\AppData\Local\Temp\cc7q2Fhd.s:2820   .text.coap_show_pdu:000000000000081a .LVL276
C:\Users\stapi\AppData\Local\Temp\cc7q2Fhd.s:2829   .text.coap_show_pdu:000000000000082a .LVL277
C:\Users\stapi\AppData\Local\Temp\cc7q2Fhd.s:1790   .text.coap_show_pdu:000000000000015e .LVL142
C:\Users\stapi\AppData\Local\Temp\cc7q2Fhd.s:1840   .text.coap_show_pdu:00000000000001b6 .LVL149
C:\Users\stapi\AppData\Local\Temp\cc7q2Fhd.s:1866   .text.coap_show_pdu:00000000000001f2 .LVL154
C:\Users\stapi\AppData\Local\Temp\cc7q2Fhd.s:1919   .text.coap_show_pdu:000000000000024e .LVL159
C:\Users\stapi\AppData\Local\Temp\cc7q2Fhd.s:1978   .text.coap_show_pdu:00000000000002b8 .LVL165
C:\Users\stapi\AppData\Local\Temp\cc7q2Fhd.s:2008   .text.coap_show_pdu:00000000000002ec .LVL169
C:\Users\stapi\AppData\Local\Temp\cc7q2Fhd.s:2069   .text.coap_show_pdu:0000000000000352 .LVL176
C:\Users\stapi\AppData\Local\Temp\cc7q2Fhd.s:2094   .text.coap_show_pdu:0000000000000382 .LVL180
C:\Users\stapi\AppData\Local\Temp\cc7q2Fhd.s:2151   .text.coap_show_pdu:00000000000003d0 .LVL185
C:\Users\stapi\AppData\Local\Temp\cc7q2Fhd.s:2489   .text.coap_show_pdu:00000000000005b8 .LVL225
C:\Users\stapi\AppData\Local\Temp\cc7q2Fhd.s:3147   .text.coap_show_pdu:0000000000000a2a .LVL319
C:\Users\stapi\AppData\Local\Temp\cc7q2Fhd.s:3161   .text.coap_show_pdu:0000000000000a4a .LVL321
C:\Users\stapi\AppData\Local\Temp\cc7q2Fhd.s:3223   .text.coap_show_pdu:0000000000000a96 .LVL333
C:\Users\stapi\AppData\Local\Temp\cc7q2Fhd.s:3238   .text.coap_show_pdu:0000000000000aa8 .LVL335
C:\Users\stapi\AppData\Local\Temp\cc7q2Fhd.s:3287   .text.coap_show_pdu:0000000000000af2 .LVL341
C:\Users\stapi\AppData\Local\Temp\cc7q2Fhd.s:3320   .text.coap_show_pdu:0000000000000b2a .LVL346
C:\Users\stapi\AppData\Local\Temp\cc7q2Fhd.s:3323   .text.coap_show_pdu:0000000000000b2c .LVL347
C:\Users\stapi\AppData\Local\Temp\cc7q2Fhd.s:3328   .text.coap_show_pdu:0000000000000b32 .LVL348
C:\Users\stapi\AppData\Local\Temp\cc7q2Fhd.s:3374   .text.coap_show_pdu:0000000000000b84 .LVL352
C:\Users\stapi\AppData\Local\Temp\cc7q2Fhd.s:3408   .text.coap_show_pdu:0000000000000bb4 .LVL356
C:\Users\stapi\AppData\Local\Temp\cc7q2Fhd.s:3412   .text.coap_show_pdu:0000000000000bb8 .LVL357
C:\Users\stapi\AppData\Local\Temp\cc7q2Fhd.s:1905   .text.coap_show_pdu:0000000000000234 .LVL157
C:\Users\stapi\AppData\Local\Temp\cc7q2Fhd.s:2940   .text.coap_show_pdu:00000000000008da .LVL292
C:\Users\stapi\AppData\Local\Temp\cc7q2Fhd.s:2946   .text.coap_show_pdu:00000000000008e0 .LVL293
C:\Users\stapi\AppData\Local\Temp\cc7q2Fhd.s:2840   .text.coap_show_pdu:000000000000083c .LVL280
C:\Users\stapi\AppData\Local\Temp\cc7q2Fhd.s:2922   .text.coap_show_pdu:00000000000008be .LVL290
C:\Users\stapi\AppData\Local\Temp\cc7q2Fhd.s:2038   .text.coap_show_pdu:000000000000031e .LVL172
C:\Users\stapi\AppData\Local\Temp\cc7q2Fhd.s:3310   .text.coap_show_pdu:0000000000000b1e .LVL344
C:\Users\stapi\AppData\Local\Temp\cc7q2Fhd.s:2047   .text.coap_show_pdu:000000000000032e .LVL174
C:\Users\stapi\AppData\Local\Temp\cc7q2Fhd.s:3386   .text.coap_show_pdu:0000000000000b92 .LVL353
C:\Users\stapi\AppData\Local\Temp\cc7q2Fhd.s:3401   .text.coap_show_pdu:0000000000000bac .LVL355
C:\Users\stapi\AppData\Local\Temp\cc7q2Fhd.s:1619   .text.coap_show_pdu:0000000000000030 .LVL121
C:\Users\stapi\AppData\Local\Temp\cc7q2Fhd.s:1628   .text.coap_show_pdu:000000000000003a .LVL122
C:\Users\stapi\AppData\Local\Temp\cc7q2Fhd.s:1886   .text.coap_show_pdu:0000000000000216 .LVL156
C:\Users\stapi\AppData\Local\Temp\cc7q2Fhd.s:2396   .text.coap_show_pdu:0000000000000548 .LVL214
C:\Users\stapi\AppData\Local\Temp\cc7q2Fhd.s:2407   .text.coap_show_pdu:000000000000055a .LVL215
C:\Users\stapi\AppData\Local\Temp\cc7q2Fhd.s:2441   .text.coap_show_pdu:0000000000000594 .LVL220
C:\Users\stapi\AppData\Local\Temp\cc7q2Fhd.s:2495   .text.coap_show_pdu:00000000000005be .LVL226
C:\Users\stapi\AppData\Local\Temp\cc7q2Fhd.s:3210   .text.coap_show_pdu:0000000000000a80 .LVL330
C:\Users\stapi\AppData\Local\Temp\cc7q2Fhd.s:3213   .text.coap_show_pdu:0000000000000a86 .LVL331
C:\Users\stapi\AppData\Local\Temp\cc7q2Fhd.s:3242   .text.coap_show_pdu:0000000000000aac .LVL336
C:\Users\stapi\AppData\Local\Temp\cc7q2Fhd.s:2461   .text.coap_show_pdu:000000000000059c .LVL221
C:\Users\stapi\AppData\Local\Temp\cc7q2Fhd.s:3131   .text.coap_show_pdu:0000000000000a16 .LVL316
C:\Users\stapi\AppData\Local\Temp\cc7q2Fhd.s:3145   .text.coap_show_pdu:0000000000000a26 .LVL318
C:\Users\stapi\AppData\Local\Temp\cc7q2Fhd.s:3172   .text.coap_show_pdu:0000000000000a54 .LVL323
C:\Users\stapi\AppData\Local\Temp\cc7q2Fhd.s:3195   .text.coap_show_pdu:0000000000000a6e .LVL327
C:\Users\stapi\AppData\Local\Temp\cc7q2Fhd.s:3206   .text.coap_show_pdu:0000000000000a78 .LVL329
C:\Users\stapi\AppData\Local\Temp\cc7q2Fhd.s:3219   .text.coap_show_pdu:0000000000000a90 .LVL332
C:\Users\stapi\AppData\Local\Temp\cc7q2Fhd.s:2468   .text.coap_show_pdu:00000000000005a2 .LVL222
C:\Users\stapi\AppData\Local\Temp\cc7q2Fhd.s:2475   .text.coap_show_pdu:00000000000005a8 .LVL223
C:\Users\stapi\AppData\Local\Temp\cc7q2Fhd.s:2483   .text.coap_show_pdu:00000000000005b0 .LVL224
C:\Users\stapi\AppData\Local\Temp\cc7q2Fhd.s:3126   .text.coap_show_pdu:0000000000000a12 .LVL315
C:\Users\stapi\AppData\Local\Temp\cc7q2Fhd.s:3140   .text.coap_show_pdu:0000000000000a24 .LVL317
C:\Users\stapi\AppData\Local\Temp\cc7q2Fhd.s:3167   .text.coap_show_pdu:0000000000000a52 .LVL322
C:\Users\stapi\AppData\Local\Temp\cc7q2Fhd.s:3175   .text.coap_show_pdu:0000000000000a58 .LVL324
C:\Users\stapi\AppData\Local\Temp\cc7q2Fhd.s:3183   .text.coap_show_pdu:0000000000000a60 .LVL325
C:\Users\stapi\AppData\Local\Temp\cc7q2Fhd.s:3190   .text.coap_show_pdu:0000000000000a6a .LVL326
C:\Users\stapi\AppData\Local\Temp\cc7q2Fhd.s:3201   .text.coap_show_pdu:0000000000000a76 .LVL328
C:\Users\stapi\AppData\Local\Temp\cc7q2Fhd.s:503    .text.coap_print_addr:0000000000000000 .LVL47
C:\Users\stapi\AppData\Local\Temp\cc7q2Fhd.s:520    .text.coap_print_addr:0000000000000010 .LVL48
C:\Users\stapi\AppData\Local\Temp\cc7q2Fhd.s:522    .text.coap_print_addr:0000000000000014 .LVL49
C:\Users\stapi\AppData\Local\Temp\cc7q2Fhd.s:27     .text.print_readable:0000000000000000 .LVL0
C:\Users\stapi\AppData\Local\Temp\cc7q2Fhd.s:53     .text.print_readable:000000000000001c .LVL3
C:\Users\stapi\AppData\Local\Temp\cc7q2Fhd.s:96     .text.print_readable:0000000000000070 .LVL8
C:\Users\stapi\AppData\Local\Temp\cc7q2Fhd.s:118    .text.print_readable:0000000000000082 .LVL10
C:\Users\stapi\AppData\Local\Temp\cc7q2Fhd.s:42     .text.print_readable:0000000000000010 .LVL1
C:\Users\stapi\AppData\Local\Temp\cc7q2Fhd.s:86     .text.print_readable:0000000000000064 .LVL6
C:\Users\stapi\AppData\Local\Temp\cc7q2Fhd.s:91     .text.print_readable:000000000000006c .LVL7
C:\Users\stapi\AppData\Local\Temp\cc7q2Fhd.s:148    .text.print_readable:00000000000000a8 .LVL14
C:\Users\stapi\AppData\Local\Temp\cc7q2Fhd.s:153    .text.print_readable:00000000000000ac .LVL15
C:\Users\stapi\AppData\Local\Temp\cc7q2Fhd.s:197    .text.print_readable:00000000000000e2 .LVL22
C:\Users\stapi\AppData\Local\Temp\cc7q2Fhd.s:51     .text.print_readable:000000000000001a .LVL2
C:\Users\stapi\AppData\Local\Temp\cc7q2Fhd.s:137    .text.print_readable:00000000000000a0 .LVL11
C:\Users\stapi\AppData\Local\Temp\cc7q2Fhd.s:144    .text.print_readable:00000000000000a6 .LVL13
C:\Users\stapi\AppData\Local\Temp\cc7q2Fhd.s:161    .text.print_readable:00000000000000b4 .LVL16
C:\Users\stapi\AppData\Local\Temp\cc7q2Fhd.s:165    .text.print_readable:00000000000000b8 .LVL17
C:\Users\stapi\AppData\Local\Temp\cc7q2Fhd.s:169    .text.print_readable:00000000000000bc .LVL18
C:\Users\stapi\AppData\Local\Temp\cc7q2Fhd.s:176    .text.print_readable:00000000000000c4 .LVL19
C:\Users\stapi\AppData\Local\Temp\cc7q2Fhd.s:185    .text.print_readable:00000000000000d0 .LVL20
C:\Users\stapi\AppData\Local\Temp\cc7q2Fhd.s:103    .text.print_readable:0000000000000076 .LVL9
C:\Users\stapi\AppData\Local\Temp\cc7q2Fhd.s:141    .text.print_readable:00000000000000a4 .LVL12
C:\Users\stapi\AppData\Local\Temp\cc7q2Fhd.s:195    .text.print_readable:00000000000000e0 .LVL21
C:\Users\stapi\AppData\Local\Temp\cc7q2Fhd.s:383    .text.coap_set_log_level:0000000000000000 .LVL32
C:\Users\stapi\AppData\Local\Temp\cc7q2Fhd.s:389    .text.coap_set_log_level:0000000000000006 .LVL33
C:\Users\stapi\AppData\Local\Temp\cc7q2Fhd.s:217    .text.msg_code_string:0000000000000000 .LVL23
C:\Users\stapi\AppData\Local\Temp\cc7q2Fhd.s:230    .text.msg_code_string:0000000000000012 .LVL24
C:\Users\stapi\AppData\Local\Temp\cc7q2Fhd.s:233    .text.msg_code_string:0000000000000016 .LVL25
C:\Users\stapi\AppData\Local\Temp\cc7q2Fhd.s:248    .text.msg_code_string:0000000000000032 .LVL26
C:\Users\stapi\AppData\Local\Temp\cc7q2Fhd.s:251    .text.msg_code_string:0000000000000034 .LVL27
C:\Users\stapi\AppData\Local\Temp\cc7q2Fhd.s:270    .text.msg_code_string:0000000000000058 .LVL29
C:\Users\stapi\AppData\Local\Temp\cc7q2Fhd.s:258    .text.msg_code_string:000000000000003c .LVL28
C:\Users\stapi\AppData\Local\Temp\cc7q2Fhd.s:412    .text.coap_print_ip_addr:0000000000000000 .LVL34
C:\Users\stapi\AppData\Local\Temp\cc7q2Fhd.s:432    .text.coap_print_ip_addr:0000000000000022 .LVL37
C:\Users\stapi\AppData\Local\Temp\cc7q2Fhd.s:470    .text.coap_print_ip_addr:0000000000000054 .LVL44
C:\Users\stapi\AppData\Local\Temp\cc7q2Fhd.s:426    .text.coap_print_ip_addr:000000000000001e .LVL36
C:\Users\stapi\AppData\Local\Temp\cc7q2Fhd.s:450    .text.coap_print_ip_addr:0000000000000044 .LVL41
C:\Users\stapi\AppData\Local\Temp\cc7q2Fhd.s:452    .text.coap_print_ip_addr:0000000000000046 .LVL42
C:\Users\stapi\AppData\Local\Temp\cc7q2Fhd.s:466    .text.coap_print_ip_addr:0000000000000052 .LVL43
C:\Users\stapi\AppData\Local\Temp\cc7q2Fhd.s:422    .text.coap_print_ip_addr:0000000000000012 .LVL35
C:\Users\stapi\AppData\Local\Temp\cc7q2Fhd.s:446    .text.coap_print_ip_addr:0000000000000038 .LVL40
C:\Users\stapi\AppData\Local\Temp\cc7q2Fhd.s:441    .text.coap_print_ip_addr:0000000000000030 .LVL39
C:\Users\stapi\AppData\Local\Temp\cc7q2Fhd.s:438    .text.coap_print_ip_addr:000000000000002e .LBE43
C:\Users\stapi\AppData\Local\Temp\cc7q2Fhd.s:442    .text.coap_print_ip_addr:0000000000000030 .LBB46
C:\Users\stapi\AppData\Local\Temp\cc7q2Fhd.s:455    .text.coap_print_ip_addr:0000000000000046 .LBE46
C:\Users\stapi\AppData\Local\Temp\cc7q2Fhd.s:1307   .text.coap_log_impl:0000000000000058 .LBB58
C:\Users\stapi\AppData\Local\Temp\cc7q2Fhd.s:1429   .text.coap_log_impl:000000000000010c .LBE58
C:\Users\stapi\AppData\Local\Temp\cc7q2Fhd.s:1434   .text.coap_log_impl:000000000000010e .LBB67
C:\Users\stapi\AppData\Local\Temp\cc7q2Fhd.s:1450   .text.coap_log_impl:000000000000012c .LBE67
C:\Users\stapi\AppData\Local\Temp\cc7q2Fhd.s:1634   .text.coap_show_pdu:0000000000000046 .LBE89
C:\Users\stapi\AppData\Local\Temp\cc7q2Fhd.s:1638   .text.coap_show_pdu:000000000000004a .LBB92
C:\Users\stapi\AppData\Local\Temp\cc7q2Fhd.s:1644   .text.coap_show_pdu:000000000000004e .LBE92
C:\Users\stapi\AppData\Local\Temp\cc7q2Fhd.s:1796   .text.coap_show_pdu:000000000000016e .LBB93
C:\Users\stapi\AppData\Local\Temp\cc7q2Fhd.s:1799   .text.coap_show_pdu:0000000000000172 .LBE93
C:\Users\stapi\AppData\Local\Temp\cc7q2Fhd.s:1811   .text.coap_show_pdu:0000000000000180 .LBB94
C:\Users\stapi\AppData\Local\Temp\cc7q2Fhd.s:1817   .text.coap_show_pdu:0000000000000188 .LBE94
C:\Users\stapi\AppData\Local\Temp\cc7q2Fhd.s:2807   .text.coap_show_pdu:000000000000080a .LBB113
C:\Users\stapi\AppData\Local\Temp\cc7q2Fhd.s:3073   .text.coap_show_pdu:00000000000009b8 .LBE113
C:\Users\stapi\AppData\Local\Temp\cc7q2Fhd.s:1901   .text.coap_show_pdu:0000000000000232 .LBB97
C:\Users\stapi\AppData\Local\Temp\cc7q2Fhd.s:2073   .text.coap_show_pdu:000000000000035a .LBE97
C:\Users\stapi\AppData\Local\Temp\cc7q2Fhd.s:3249   .text.coap_show_pdu:0000000000000ab2 .LBB115
C:\Users\stapi\AppData\Local\Temp\cc7q2Fhd.s:3350   .text.coap_show_pdu:0000000000000b5e .LBE115
C:\Users\stapi\AppData\Local\Temp\cc7q2Fhd.s:2422   .text.coap_show_pdu:0000000000000574 .LBE102
C:\Users\stapi\AppData\Local\Temp\cc7q2Fhd.s:2512   .text.coap_show_pdu:00000000000005da .LBB112
C:\Users\stapi\AppData\Local\Temp\cc7q2Fhd.s:2530   .text.coap_show_pdu:00000000000005ec .LBE112
C:\Users\stapi\AppData\Local\Temp\cc7q2Fhd.s:2438   .text.coap_show_pdu:0000000000000590 .LBE105
C:\Users\stapi\AppData\Local\Temp\cc7q2Fhd.s:2442   .text.coap_show_pdu:0000000000000594 .LBB110
C:\Users\stapi\AppData\Local\Temp\cc7q2Fhd.s:2454   .text.coap_show_pdu:0000000000000594 .LBE110
C:\Users\stapi\AppData\Local\Temp\cc7q2Fhd.s:2457   .text.coap_show_pdu:0000000000000598 .LBB111
C:\Users\stapi\AppData\Local\Temp\cc7q2Fhd.s:2498   .text.coap_show_pdu:00000000000005be .LBE111
C:\Users\stapi\AppData\Local\Temp\cc7q2Fhd.s:3121   .text.coap_show_pdu:0000000000000a0e .LBB114
C:\Users\stapi\AppData\Local\Temp\cc7q2Fhd.s:3248   .text.coap_show_pdu:0000000000000ab2 .LBE114
C:\Users\stapi\AppData\Local\Temp\cc7q2Fhd.s:3743   .text.coap_debug_send_packet:000000000000002e .LBB131
C:\Users\stapi\AppData\Local\Temp\cc7q2Fhd.s:3769   .text.coap_debug_send_packet:000000000000004a .LBE131
C:\Users\stapi\AppData\Local\Temp\cc7q2Fhd.s:3777   .text.coap_debug_send_packet:000000000000004e .LBB139
C:\Users\stapi\AppData\Local\Temp\cc7q2Fhd.s:3788   .text.coap_debug_send_packet:0000000000000056 .LBE139
C:\Users\stapi\AppData\Local\Temp\cc7q2Fhd.s:3770   .text.coap_debug_send_packet:000000000000004a .LBB134
C:\Users\stapi\AppData\Local\Temp\cc7q2Fhd.s:3776   .text.coap_debug_send_packet:000000000000004e .LBE134
C:\Users\stapi\AppData\Local\Temp\cc7q2Fhd.s:3809   .text.coap_debug_send_packet:000000000000006e .LBB140
C:\Users\stapi\AppData\Local\Temp\cc7q2Fhd.s:3853   .text.coap_debug_send_packet:00000000000000a4 .LBE140

UNDEFINED SYMBOLS
__riscv_save_5
memcpy
__assert_func
_ctype_
__riscv_restore_5
__riscv_save_1
snprintf
__riscv_restore_1
ip4addr_ntoa
__riscv_save_3
strlen
__riscv_restore_3
coap_get_tls_library_version
strcpy
__riscv_save_8
coap_tls_is_supported
coap_dtls_is_supported
coap_dtls_psk_is_supported
coap_dtls_pki_is_supported
coap_dtls_pkcs11_is_supported
coap_dtls_rpk_is_supported
coap_oscore_is_supported
coap_ws_is_supported
__riscv_restore_8
__udivdi3
__divdi3
__umoddi3
__moddi3
vsnprintf
_impure_ptr
sys_now
printf
vfprintf
__riscv_save_12
coap_option_iterator_init
coap_option_next
coap_get_data
__riscv_restore_12
coap_opt_value
coap_opt_length
coap_decode_var_bytes
coap_opt_block_num
strtol
__riscv_save_2
__riscv_restore_2
rand
