   1              		.file	"coap_netif.c"
   2              		.option nopic
   3              		.attribute arch, "rv32i2p0_m2p0_a2p0_f2p0_c2p0_b_p0p94"
   4              		.attribute unaligned_access, 0
   5              		.attribute stack_align, 16
   6              		.text
   7              	.Ltext0:
   8              		.cfi_sections	.debug_frame
   9              		.section	.text.coap_netif_available,"ax",@progbits
  10              		.align	1
  11              		.globl	coap_netif_available
  13              	coap_netif_available:
  14              	.LFB31:
  15              		.file 1 "C:/Users/stapi/OneDrive/Desktop/GD32VW553/GD32VW55X_Wifi_BLE_SDK/GD32VW55x_RELEASE_V1.0.2
   1:C:/Users/stapi/OneDrive/Desktop/GD32VW553/GD32VW55X_Wifi_BLE_SDK/GD32VW55x_RELEASE_V1.0.2/MSDK/lwip/libcoap-4.3.4/src\coap_netif.c **** /*
   2:C:/Users/stapi/OneDrive/Desktop/GD32VW553/GD32VW55X_Wifi_BLE_SDK/GD32VW55x_RELEASE_V1.0.2/MSDK/lwip/libcoap-4.3.4/src\coap_netif.c ****  * coap_netif.c -- Netif functions for libcoap
   3:C:/Users/stapi/OneDrive/Desktop/GD32VW553/GD32VW55X_Wifi_BLE_SDK/GD32VW55x_RELEASE_V1.0.2/MSDK/lwip/libcoap-4.3.4/src\coap_netif.c ****  *
   4:C:/Users/stapi/OneDrive/Desktop/GD32VW553/GD32VW55X_Wifi_BLE_SDK/GD32VW55x_RELEASE_V1.0.2/MSDK/lwip/libcoap-4.3.4/src\coap_netif.c ****  * Copyright (C) 2023 Jon Shallow <supjps-libcoap@jpshallow.com>
   5:C:/Users/stapi/OneDrive/Desktop/GD32VW553/GD32VW55X_Wifi_BLE_SDK/GD32VW55x_RELEASE_V1.0.2/MSDK/lwip/libcoap-4.3.4/src\coap_netif.c ****  *
   6:C:/Users/stapi/OneDrive/Desktop/GD32VW553/GD32VW55X_Wifi_BLE_SDK/GD32VW55x_RELEASE_V1.0.2/MSDK/lwip/libcoap-4.3.4/src\coap_netif.c ****  * SPDX-License-Identifier: BSD-2-Clause
   7:C:/Users/stapi/OneDrive/Desktop/GD32VW553/GD32VW55X_Wifi_BLE_SDK/GD32VW55x_RELEASE_V1.0.2/MSDK/lwip/libcoap-4.3.4/src\coap_netif.c ****  *
   8:C:/Users/stapi/OneDrive/Desktop/GD32VW553/GD32VW55X_Wifi_BLE_SDK/GD32VW55x_RELEASE_V1.0.2/MSDK/lwip/libcoap-4.3.4/src\coap_netif.c ****  * This file is part of the CoAP library libcoap. Please see README for terms
   9:C:/Users/stapi/OneDrive/Desktop/GD32VW553/GD32VW55X_Wifi_BLE_SDK/GD32VW55x_RELEASE_V1.0.2/MSDK/lwip/libcoap-4.3.4/src\coap_netif.c ****  * of use.
  10:C:/Users/stapi/OneDrive/Desktop/GD32VW553/GD32VW55X_Wifi_BLE_SDK/GD32VW55x_RELEASE_V1.0.2/MSDK/lwip/libcoap-4.3.4/src\coap_netif.c ****  */
  11:C:/Users/stapi/OneDrive/Desktop/GD32VW553/GD32VW55X_Wifi_BLE_SDK/GD32VW55x_RELEASE_V1.0.2/MSDK/lwip/libcoap-4.3.4/src\coap_netif.c **** 
  12:C:/Users/stapi/OneDrive/Desktop/GD32VW553/GD32VW55X_Wifi_BLE_SDK/GD32VW55x_RELEASE_V1.0.2/MSDK/lwip/libcoap-4.3.4/src\coap_netif.c **** /**
  13:C:/Users/stapi/OneDrive/Desktop/GD32VW553/GD32VW55X_Wifi_BLE_SDK/GD32VW55x_RELEASE_V1.0.2/MSDK/lwip/libcoap-4.3.4/src\coap_netif.c ****  * @file coap_netif.c
  14:C:/Users/stapi/OneDrive/Desktop/GD32VW553/GD32VW55X_Wifi_BLE_SDK/GD32VW55x_RELEASE_V1.0.2/MSDK/lwip/libcoap-4.3.4/src\coap_netif.c ****  * @brief CoAP Netif handling functions
  15:C:/Users/stapi/OneDrive/Desktop/GD32VW553/GD32VW55X_Wifi_BLE_SDK/GD32VW55x_RELEASE_V1.0.2/MSDK/lwip/libcoap-4.3.4/src\coap_netif.c ****  */
  16:C:/Users/stapi/OneDrive/Desktop/GD32VW553/GD32VW55X_Wifi_BLE_SDK/GD32VW55x_RELEASE_V1.0.2/MSDK/lwip/libcoap-4.3.4/src\coap_netif.c **** 
  17:C:/Users/stapi/OneDrive/Desktop/GD32VW553/GD32VW55X_Wifi_BLE_SDK/GD32VW55x_RELEASE_V1.0.2/MSDK/lwip/libcoap-4.3.4/src\coap_netif.c **** #include "coap3/coap_internal.h"
  18:C:/Users/stapi/OneDrive/Desktop/GD32VW553/GD32VW55X_Wifi_BLE_SDK/GD32VW55x_RELEASE_V1.0.2/MSDK/lwip/libcoap-4.3.4/src\coap_netif.c **** #include "coap3/coap_session_internal.h"
  19:C:/Users/stapi/OneDrive/Desktop/GD32VW553/GD32VW55X_Wifi_BLE_SDK/GD32VW55x_RELEASE_V1.0.2/MSDK/lwip/libcoap-4.3.4/src\coap_netif.c **** 
  20:C:/Users/stapi/OneDrive/Desktop/GD32VW553/GD32VW55X_Wifi_BLE_SDK/GD32VW55x_RELEASE_V1.0.2/MSDK/lwip/libcoap-4.3.4/src\coap_netif.c **** /*
  21:C:/Users/stapi/OneDrive/Desktop/GD32VW553/GD32VW55X_Wifi_BLE_SDK/GD32VW55x_RELEASE_V1.0.2/MSDK/lwip/libcoap-4.3.4/src\coap_netif.c ****  * return 1 netif still in use.
  22:C:/Users/stapi/OneDrive/Desktop/GD32VW553/GD32VW55X_Wifi_BLE_SDK/GD32VW55x_RELEASE_V1.0.2/MSDK/lwip/libcoap-4.3.4/src\coap_netif.c ****  *        0 netif no longer available.
  23:C:/Users/stapi/OneDrive/Desktop/GD32VW553/GD32VW55X_Wifi_BLE_SDK/GD32VW55x_RELEASE_V1.0.2/MSDK/lwip/libcoap-4.3.4/src\coap_netif.c ****  */
  24:C:/Users/stapi/OneDrive/Desktop/GD32VW553/GD32VW55X_Wifi_BLE_SDK/GD32VW55x_RELEASE_V1.0.2/MSDK/lwip/libcoap-4.3.4/src\coap_netif.c **** int
  25:C:/Users/stapi/OneDrive/Desktop/GD32VW553/GD32VW55X_Wifi_BLE_SDK/GD32VW55x_RELEASE_V1.0.2/MSDK/lwip/libcoap-4.3.4/src\coap_netif.c **** coap_netif_available(coap_session_t *session) {
  16              		.loc 1 25 47
  17              		.cfi_startproc
  18              	.LVL0:
  26:C:/Users/stapi/OneDrive/Desktop/GD32VW553/GD32VW55X_Wifi_BLE_SDK/GD32VW55x_RELEASE_V1.0.2/MSDK/lwip/libcoap-4.3.4/src\coap_netif.c ****   return session->sock.flags != COAP_SOCKET_EMPTY;
  19              		.loc 1 26 3
  20              		.loc 1 26 30 is_stmt 0
  21 0000 03554506 		lhu	a0,100(a0)
  22              	.LVL1:
  27:C:/Users/stapi/OneDrive/Desktop/GD32VW553/GD32VW55X_Wifi_BLE_SDK/GD32VW55x_RELEASE_V1.0.2/MSDK/lwip/libcoap-4.3.4/src\coap_netif.c **** }
  23              		.loc 1 27 1
  24 0004 3335A000 		snez	a0,a0
  25 0008 8280     		ret
  26              		.cfi_endproc
  27              	.LFE31:
  29              		.section	.text.coap_netif_available_ep,"ax",@progbits
  30              		.align	1
  31              		.globl	coap_netif_available_ep
  33              	coap_netif_available_ep:
  34              	.LFB32:
  28:C:/Users/stapi/OneDrive/Desktop/GD32VW553/GD32VW55X_Wifi_BLE_SDK/GD32VW55x_RELEASE_V1.0.2/MSDK/lwip/libcoap-4.3.4/src\coap_netif.c **** 
  29:C:/Users/stapi/OneDrive/Desktop/GD32VW553/GD32VW55X_Wifi_BLE_SDK/GD32VW55x_RELEASE_V1.0.2/MSDK/lwip/libcoap-4.3.4/src\coap_netif.c **** #if COAP_SERVER_SUPPORT
  30:C:/Users/stapi/OneDrive/Desktop/GD32VW553/GD32VW55X_Wifi_BLE_SDK/GD32VW55x_RELEASE_V1.0.2/MSDK/lwip/libcoap-4.3.4/src\coap_netif.c **** /*
  31:C:/Users/stapi/OneDrive/Desktop/GD32VW553/GD32VW55X_Wifi_BLE_SDK/GD32VW55x_RELEASE_V1.0.2/MSDK/lwip/libcoap-4.3.4/src\coap_netif.c ****  * return 1 netif still in use.
  32:C:/Users/stapi/OneDrive/Desktop/GD32VW553/GD32VW55X_Wifi_BLE_SDK/GD32VW55x_RELEASE_V1.0.2/MSDK/lwip/libcoap-4.3.4/src\coap_netif.c ****  *        0 netif no longer available.
  33:C:/Users/stapi/OneDrive/Desktop/GD32VW553/GD32VW55X_Wifi_BLE_SDK/GD32VW55x_RELEASE_V1.0.2/MSDK/lwip/libcoap-4.3.4/src\coap_netif.c ****  */
  34:C:/Users/stapi/OneDrive/Desktop/GD32VW553/GD32VW55X_Wifi_BLE_SDK/GD32VW55x_RELEASE_V1.0.2/MSDK/lwip/libcoap-4.3.4/src\coap_netif.c **** int
  35:C:/Users/stapi/OneDrive/Desktop/GD32VW553/GD32VW55X_Wifi_BLE_SDK/GD32VW55x_RELEASE_V1.0.2/MSDK/lwip/libcoap-4.3.4/src\coap_netif.c **** coap_netif_available_ep(coap_endpoint_t *endpoint) {
  35              		.loc 1 35 52 is_stmt 1
  36              		.cfi_startproc
  37              	.LVL2:
  36:C:/Users/stapi/OneDrive/Desktop/GD32VW553/GD32VW55X_Wifi_BLE_SDK/GD32VW55x_RELEASE_V1.0.2/MSDK/lwip/libcoap-4.3.4/src\coap_netif.c ****   return endpoint->sock.flags != COAP_SOCKET_EMPTY;
  38              		.loc 1 36 3
  39              		.loc 1 36 31 is_stmt 0
  40 0000 03554501 		lhu	a0,20(a0)
  41              	.LVL3:
  37:C:/Users/stapi/OneDrive/Desktop/GD32VW553/GD32VW55X_Wifi_BLE_SDK/GD32VW55x_RELEASE_V1.0.2/MSDK/lwip/libcoap-4.3.4/src\coap_netif.c **** }
  42              		.loc 1 37 1
  43 0004 3335A000 		snez	a0,a0
  44 0008 8280     		ret
  45              		.cfi_endproc
  46              	.LFE32:
  48              		.section	.text.coap_netif_dgrm_listen,"ax",@progbits
  49              		.align	1
  50              		.globl	coap_netif_dgrm_listen
  52              	coap_netif_dgrm_listen:
  53              	.LFB33:
  38:C:/Users/stapi/OneDrive/Desktop/GD32VW553/GD32VW55X_Wifi_BLE_SDK/GD32VW55x_RELEASE_V1.0.2/MSDK/lwip/libcoap-4.3.4/src\coap_netif.c **** 
  39:C:/Users/stapi/OneDrive/Desktop/GD32VW553/GD32VW55X_Wifi_BLE_SDK/GD32VW55x_RELEASE_V1.0.2/MSDK/lwip/libcoap-4.3.4/src\coap_netif.c **** int
  40:C:/Users/stapi/OneDrive/Desktop/GD32VW553/GD32VW55X_Wifi_BLE_SDK/GD32VW55x_RELEASE_V1.0.2/MSDK/lwip/libcoap-4.3.4/src\coap_netif.c **** coap_netif_dgrm_listen(coap_endpoint_t *endpoint,
  41:C:/Users/stapi/OneDrive/Desktop/GD32VW553/GD32VW55X_Wifi_BLE_SDK/GD32VW55x_RELEASE_V1.0.2/MSDK/lwip/libcoap-4.3.4/src\coap_netif.c ****                        const coap_address_t *listen_addr) {
  54              		.loc 1 41 59 is_stmt 1
  55              		.cfi_startproc
  56              	.LVL4:
  57 0000 17030000 		call	t0,__riscv_save_1
  57      E7020300 
  58              		.cfi_offset 8, -8
  59              		.cfi_offset 1, -4
  60              		.cfi_def_cfa_offset 16
  42:C:/Users/stapi/OneDrive/Desktop/GD32VW553/GD32VW55X_Wifi_BLE_SDK/GD32VW55x_RELEASE_V1.0.2/MSDK/lwip/libcoap-4.3.4/src\coap_netif.c ****   if (!coap_socket_bind_udp(&endpoint->sock, listen_addr,
  61              		.loc 1 42 3
  41:C:/Users/stapi/OneDrive/Desktop/GD32VW553/GD32VW55X_Wifi_BLE_SDK/GD32VW55x_RELEASE_V1.0.2/MSDK/lwip/libcoap-4.3.4/src\coap_netif.c ****   if (!coap_socket_bind_udp(&endpoint->sock, listen_addr,
  62              		.loc 1 41 59 is_stmt 0
  63 0008 2A84     		mv	s0,a0
  64              		.loc 1 42 8
  65 000a 13068505 		addi	a2,a0,88
  66 000e 4105     		addi	a0,a0,16
  67              	.LVL5:
  68 0010 97000000 		call	coap_socket_bind_udp
  68      E7800000 
  69              	.LVL6:
  70              		.loc 1 42 6
  71 0018 01C9     		beq	a0,zero,.L3
  43:C:/Users/stapi/OneDrive/Desktop/GD32VW553/GD32VW55X_Wifi_BLE_SDK/GD32VW55x_RELEASE_V1.0.2/MSDK/lwip/libcoap-4.3.4/src\coap_netif.c ****                             &endpoint->bind_addr)) {
  44:C:/Users/stapi/OneDrive/Desktop/GD32VW553/GD32VW55X_Wifi_BLE_SDK/GD32VW55x_RELEASE_V1.0.2/MSDK/lwip/libcoap-4.3.4/src\coap_netif.c ****     return 0;
  45:C:/Users/stapi/OneDrive/Desktop/GD32VW553/GD32VW55X_Wifi_BLE_SDK/GD32VW55x_RELEASE_V1.0.2/MSDK/lwip/libcoap-4.3.4/src\coap_netif.c ****   }
  46:C:/Users/stapi/OneDrive/Desktop/GD32VW553/GD32VW55X_Wifi_BLE_SDK/GD32VW55x_RELEASE_V1.0.2/MSDK/lwip/libcoap-4.3.4/src\coap_netif.c ****   endpoint->sock.flags |= COAP_SOCKET_NOT_EMPTY | COAP_SOCKET_BOUND | COAP_SOCKET_WANT_READ;
  72              		.loc 1 46 3 is_stmt 1
  73              		.loc 1 46 24 is_stmt 0
  74 001a 83574401 		lhu	a5,20(s0)
  47:C:/Users/stapi/OneDrive/Desktop/GD32VW553/GD32VW55X_Wifi_BLE_SDK/GD32VW55x_RELEASE_V1.0.2/MSDK/lwip/libcoap-4.3.4/src\coap_netif.c ****   return 1;
  75              		.loc 1 47 10
  76 001e 0545     		li	a0,1
  46:C:/Users/stapi/OneDrive/Desktop/GD32VW553/GD32VW55X_Wifi_BLE_SDK/GD32VW55x_RELEASE_V1.0.2/MSDK/lwip/libcoap-4.3.4/src\coap_netif.c ****   return 1;
  77              		.loc 1 46 24
  78 0020 93E73701 		ori	a5,a5,19
  79 0024 231AF400 		sh	a5,20(s0)
  80              		.loc 1 47 3 is_stmt 1
  81              	.L3:
  48:C:/Users/stapi/OneDrive/Desktop/GD32VW553/GD32VW55X_Wifi_BLE_SDK/GD32VW55x_RELEASE_V1.0.2/MSDK/lwip/libcoap-4.3.4/src\coap_netif.c **** }
  82              		.loc 1 48 1 is_stmt 0
  83 0028 17030000 		tail	__riscv_restore_1
  83      67000300 
  84              		.cfi_restore 8
  85              		.cfi_restore 1
  86              		.cfi_def_cfa_offset 0
  87              		.cfi_endproc
  88              	.LFE33:
  90              		.section	.text.coap_netif_dgrm_connect,"ax",@progbits
  91              		.align	1
  92              		.globl	coap_netif_dgrm_connect
  94              	coap_netif_dgrm_connect:
  95              	.LFB34:
  49:C:/Users/stapi/OneDrive/Desktop/GD32VW553/GD32VW55X_Wifi_BLE_SDK/GD32VW55x_RELEASE_V1.0.2/MSDK/lwip/libcoap-4.3.4/src\coap_netif.c **** #endif /* COAP_SERVER_SUPPORT */
  50:C:/Users/stapi/OneDrive/Desktop/GD32VW553/GD32VW55X_Wifi_BLE_SDK/GD32VW55x_RELEASE_V1.0.2/MSDK/lwip/libcoap-4.3.4/src\coap_netif.c **** 
  51:C:/Users/stapi/OneDrive/Desktop/GD32VW553/GD32VW55X_Wifi_BLE_SDK/GD32VW55x_RELEASE_V1.0.2/MSDK/lwip/libcoap-4.3.4/src\coap_netif.c **** #if COAP_CLIENT_SUPPORT
  52:C:/Users/stapi/OneDrive/Desktop/GD32VW553/GD32VW55X_Wifi_BLE_SDK/GD32VW55x_RELEASE_V1.0.2/MSDK/lwip/libcoap-4.3.4/src\coap_netif.c **** int
  53:C:/Users/stapi/OneDrive/Desktop/GD32VW553/GD32VW55X_Wifi_BLE_SDK/GD32VW55x_RELEASE_V1.0.2/MSDK/lwip/libcoap-4.3.4/src\coap_netif.c **** coap_netif_dgrm_connect(coap_session_t *session, const coap_address_t *local_if,
  54:C:/Users/stapi/OneDrive/Desktop/GD32VW553/GD32VW55X_Wifi_BLE_SDK/GD32VW55x_RELEASE_V1.0.2/MSDK/lwip/libcoap-4.3.4/src\coap_netif.c ****                         const coap_address_t *server, int default_port) {
  96              		.loc 1 54 73 is_stmt 1
  97              		.cfi_startproc
  98              	.LVL7:
  99 0000 17030000 		call	t0,__riscv_save_0
  99      E7020300 
 100              		.cfi_offset 1, -4
 101              		.cfi_def_cfa_offset 16
  55:C:/Users/stapi/OneDrive/Desktop/GD32VW553/GD32VW55X_Wifi_BLE_SDK/GD32VW55x_RELEASE_V1.0.2/MSDK/lwip/libcoap-4.3.4/src\coap_netif.c ****   if (!coap_socket_connect_udp(&session->sock, local_if, server,
 102              		.loc 1 55 3
 103              		.loc 1 55 8 is_stmt 0
 104 0008 9307C504 		addi	a5,a0,76
 105 000c 13074505 		addi	a4,a0,84
 106 0010 13050506 		addi	a0,a0,96
 107              	.LVL8:
 108 0014 97000000 		call	coap_socket_connect_udp
 108      E7800000 
 109              	.LVL9:
  56:C:/Users/stapi/OneDrive/Desktop/GD32VW553/GD32VW55X_Wifi_BLE_SDK/GD32VW55x_RELEASE_V1.0.2/MSDK/lwip/libcoap-4.3.4/src\coap_netif.c ****                                default_port,
  57:C:/Users/stapi/OneDrive/Desktop/GD32VW553/GD32VW55X_Wifi_BLE_SDK/GD32VW55x_RELEASE_V1.0.2/MSDK/lwip/libcoap-4.3.4/src\coap_netif.c ****                                &session->addr_info.local,
  58:C:/Users/stapi/OneDrive/Desktop/GD32VW553/GD32VW55X_Wifi_BLE_SDK/GD32VW55x_RELEASE_V1.0.2/MSDK/lwip/libcoap-4.3.4/src\coap_netif.c ****                                &session->addr_info.remote)) {
  59:C:/Users/stapi/OneDrive/Desktop/GD32VW553/GD32VW55X_Wifi_BLE_SDK/GD32VW55x_RELEASE_V1.0.2/MSDK/lwip/libcoap-4.3.4/src\coap_netif.c ****     return 0;
  60:C:/Users/stapi/OneDrive/Desktop/GD32VW553/GD32VW55X_Wifi_BLE_SDK/GD32VW55x_RELEASE_V1.0.2/MSDK/lwip/libcoap-4.3.4/src\coap_netif.c ****   }
  61:C:/Users/stapi/OneDrive/Desktop/GD32VW553/GD32VW55X_Wifi_BLE_SDK/GD32VW55x_RELEASE_V1.0.2/MSDK/lwip/libcoap-4.3.4/src\coap_netif.c ****   return 1;
  62:C:/Users/stapi/OneDrive/Desktop/GD32VW553/GD32VW55X_Wifi_BLE_SDK/GD32VW55x_RELEASE_V1.0.2/MSDK/lwip/libcoap-4.3.4/src\coap_netif.c **** }
 110              		.loc 1 62 1
 111 001c 3335A000 		snez	a0,a0
 112 0020 17030000 		tail	__riscv_restore_0
 112      67000300 
 113              		.cfi_restore 1
 114              		.cfi_def_cfa_offset 0
 115              		.cfi_endproc
 116              	.LFE34:
 118              		.section	.rodata.coap_netif_dgrm_read.str1.4,"aMS",@progbits,1
 119              		.align	2
 120              	.LC0:
 121 0000 2A202025 		.string	"*  %s: netif: failed to read %zd bytes (%s) state %d\n"
 121      733A206E 
 121      65746966 
 121      3A206661 
 121      696C6564 
 122 0036 0000     		.align	2
 123              	.LC1:
 124 0038 2A202025 		.string	"*  %s: netif: recv %4zd bytes\n"
 124      733A206E 
 124      65746966 
 124      3A207265 
 124      63762025 
 125              		.section	.text.coap_netif_dgrm_read,"ax",@progbits
 126              		.align	1
 127              		.globl	coap_netif_dgrm_read
 129              	coap_netif_dgrm_read:
 130              	.LFB35:
  63:C:/Users/stapi/OneDrive/Desktop/GD32VW553/GD32VW55X_Wifi_BLE_SDK/GD32VW55x_RELEASE_V1.0.2/MSDK/lwip/libcoap-4.3.4/src\coap_netif.c **** #endif /* COAP_CLIENT_SUPPORT */
  64:C:/Users/stapi/OneDrive/Desktop/GD32VW553/GD32VW55X_Wifi_BLE_SDK/GD32VW55x_RELEASE_V1.0.2/MSDK/lwip/libcoap-4.3.4/src\coap_netif.c **** 
  65:C:/Users/stapi/OneDrive/Desktop/GD32VW553/GD32VW55X_Wifi_BLE_SDK/GD32VW55x_RELEASE_V1.0.2/MSDK/lwip/libcoap-4.3.4/src\coap_netif.c **** /*
  66:C:/Users/stapi/OneDrive/Desktop/GD32VW553/GD32VW55X_Wifi_BLE_SDK/GD32VW55x_RELEASE_V1.0.2/MSDK/lwip/libcoap-4.3.4/src\coap_netif.c ****  * dgram
  67:C:/Users/stapi/OneDrive/Desktop/GD32VW553/GD32VW55X_Wifi_BLE_SDK/GD32VW55x_RELEASE_V1.0.2/MSDK/lwip/libcoap-4.3.4/src\coap_netif.c ****  * return +ve Number of bytes written.
  68:C:/Users/stapi/OneDrive/Desktop/GD32VW553/GD32VW55X_Wifi_BLE_SDK/GD32VW55x_RELEASE_V1.0.2/MSDK/lwip/libcoap-4.3.4/src\coap_netif.c ****  *         -1 Error error in errno).
  69:C:/Users/stapi/OneDrive/Desktop/GD32VW553/GD32VW55X_Wifi_BLE_SDK/GD32VW55x_RELEASE_V1.0.2/MSDK/lwip/libcoap-4.3.4/src\coap_netif.c ****  *         -2 ICMP error response
  70:C:/Users/stapi/OneDrive/Desktop/GD32VW553/GD32VW55X_Wifi_BLE_SDK/GD32VW55x_RELEASE_V1.0.2/MSDK/lwip/libcoap-4.3.4/src\coap_netif.c ****  */
  71:C:/Users/stapi/OneDrive/Desktop/GD32VW553/GD32VW55X_Wifi_BLE_SDK/GD32VW55x_RELEASE_V1.0.2/MSDK/lwip/libcoap-4.3.4/src\coap_netif.c **** ssize_t
  72:C:/Users/stapi/OneDrive/Desktop/GD32VW553/GD32VW55X_Wifi_BLE_SDK/GD32VW55x_RELEASE_V1.0.2/MSDK/lwip/libcoap-4.3.4/src\coap_netif.c **** coap_netif_dgrm_read(coap_session_t *session, coap_packet_t *packet) {
 131              		.loc 1 72 70 is_stmt 1
 132              		.cfi_startproc
 133              	.LVL10:
 134 0000 17030000 		call	t0,__riscv_save_5
 134      E7020300 
 135              		.cfi_offset 20, -24
 136              		.cfi_offset 19, -20
 137              		.cfi_offset 18, -16
 138              		.cfi_offset 9, -12
 139              		.cfi_offset 8, -8
 140              		.cfi_offset 1, -4
 141              		.cfi_def_cfa_offset 32
  73:C:/Users/stapi/OneDrive/Desktop/GD32VW553/GD32VW55X_Wifi_BLE_SDK/GD32VW55x_RELEASE_V1.0.2/MSDK/lwip/libcoap-4.3.4/src\coap_netif.c ****   ssize_t bytes_read;
 142              		.loc 1 73 3
  74:C:/Users/stapi/OneDrive/Desktop/GD32VW553/GD32VW55X_Wifi_BLE_SDK/GD32VW55x_RELEASE_V1.0.2/MSDK/lwip/libcoap-4.3.4/src\coap_netif.c ****   int keep_errno;
 143              		.loc 1 74 3
  75:C:/Users/stapi/OneDrive/Desktop/GD32VW553/GD32VW55X_Wifi_BLE_SDK/GD32VW55x_RELEASE_V1.0.2/MSDK/lwip/libcoap-4.3.4/src\coap_netif.c **** 
  76:C:/Users/stapi/OneDrive/Desktop/GD32VW553/GD32VW55X_Wifi_BLE_SDK/GD32VW55x_RELEASE_V1.0.2/MSDK/lwip/libcoap-4.3.4/src\coap_netif.c ****   bytes_read = coap_socket_recv(&session->sock, packet);
 144              		.loc 1 76 3
  72:C:/Users/stapi/OneDrive/Desktop/GD32VW553/GD32VW55X_Wifi_BLE_SDK/GD32VW55x_RELEASE_V1.0.2/MSDK/lwip/libcoap-4.3.4/src\coap_netif.c ****   ssize_t bytes_read;
 145              		.loc 1 72 70 is_stmt 0
 146 0008 4111     		addi	sp,sp,-16
 147              		.cfi_def_cfa_offset 48
  72:C:/Users/stapi/OneDrive/Desktop/GD32VW553/GD32VW55X_Wifi_BLE_SDK/GD32VW55x_RELEASE_V1.0.2/MSDK/lwip/libcoap-4.3.4/src\coap_netif.c ****   ssize_t bytes_read;
 148              		.loc 1 72 70
 149 000a 2A84     		mv	s0,a0
 150              		.loc 1 76 16
 151 000c 13050506 		addi	a0,a0,96
 152              	.LVL11:
  72:C:/Users/stapi/OneDrive/Desktop/GD32VW553/GD32VW55X_Wifi_BLE_SDK/GD32VW55x_RELEASE_V1.0.2/MSDK/lwip/libcoap-4.3.4/src\coap_netif.c ****   ssize_t bytes_read;
 153              		.loc 1 72 70
 154 0010 AE89     		mv	s3,a1
 155              		.loc 1 76 16
 156 0012 97000000 		call	coap_socket_recv
 156      E7800000 
 157              	.LVL12:
  77:C:/Users/stapi/OneDrive/Desktop/GD32VW553/GD32VW55X_Wifi_BLE_SDK/GD32VW55x_RELEASE_V1.0.2/MSDK/lwip/libcoap-4.3.4/src\coap_netif.c ****   keep_errno = errno;
  78:C:/Users/stapi/OneDrive/Desktop/GD32VW553/GD32VW55X_Wifi_BLE_SDK/GD32VW55x_RELEASE_V1.0.2/MSDK/lwip/libcoap-4.3.4/src\coap_netif.c ****   if (bytes_read == -1) {
 158              		.loc 1 78 6
 159 001a FD57     		li	a5,-1
  76:C:/Users/stapi/OneDrive/Desktop/GD32VW553/GD32VW55X_Wifi_BLE_SDK/GD32VW55x_RELEASE_V1.0.2/MSDK/lwip/libcoap-4.3.4/src\coap_netif.c ****   keep_errno = errno;
 160              		.loc 1 76 16
 161 001c AA84     		mv	s1,a0
 162              	.LVL13:
  77:C:/Users/stapi/OneDrive/Desktop/GD32VW553/GD32VW55X_Wifi_BLE_SDK/GD32VW55x_RELEASE_V1.0.2/MSDK/lwip/libcoap-4.3.4/src\coap_netif.c ****   keep_errno = errno;
 163              		.loc 1 77 3 is_stmt 1
 164              		.loc 1 78 3
 165              		.loc 1 78 6 is_stmt 0
 166 001e 631FF504 		bne	a0,a5,.L12
  77:C:/Users/stapi/OneDrive/Desktop/GD32VW553/GD32VW55X_Wifi_BLE_SDK/GD32VW55x_RELEASE_V1.0.2/MSDK/lwip/libcoap-4.3.4/src\coap_netif.c ****   keep_errno = errno;
 167              		.loc 1 77 14
 168 0022 37090000 		lui	s2,%hi(errno)
 169 0026 032A0900 		lw	s4,%lo(errno)(s2)
  79:C:/Users/stapi/OneDrive/Desktop/GD32VW553/GD32VW55X_Wifi_BLE_SDK/GD32VW55x_RELEASE_V1.0.2/MSDK/lwip/libcoap-4.3.4/src\coap_netif.c ****     coap_log_debug("*  %s: netif: failed to read %zd bytes (%s) state %d\n",
 170              		.loc 1 79 5 is_stmt 1
 171              		.loc 1 79 5
 172 002a 97000000 		call	coap_get_log_level
 172      E7800000 
 173              	.LVL14:
 174 0032 9947     		li	a5,6
 175 0034 63DCA702 		ble	a0,a5,.L13
 176              		.loc 1 79 5 discriminator 1
 177 0038 2285     		mv	a0,s0
 178 003a 97000000 		call	coap_session_str
 178      E7800000 
 179              	.LVL15:
 180 0042 83A64901 		lw	a3,20(s3)
 181 0046 2AC6     		sw	a0,12(sp)
 182 0048 36C4     		sw	a3,8(sp)
 183 004a 97000000 		call	coap_socket_strerror
 183      E7800000 
 184              	.LVL16:
 185 0052 1C44     		lw	a5,8(s0)
 186 0054 A246     		lw	a3,8(sp)
 187 0056 3246     		lw	a2,12(sp)
 188 0058 B7050000 		lui	a1,%hi(.LC0)
 189 005c 2A87     		mv	a4,a0
 190 005e 93850500 		addi	a1,a1,%lo(.LC0)
 191 0062 1D45     		li	a0,7
 192 0064 97000000 		call	coap_log_impl
 192      E7800000 
 193              	.LVL17:
 194              	.L13:
 195              		.loc 1 79 5 discriminator 3
  80:C:/Users/stapi/OneDrive/Desktop/GD32VW553/GD32VW55X_Wifi_BLE_SDK/GD32VW55x_RELEASE_V1.0.2/MSDK/lwip/libcoap-4.3.4/src\coap_netif.c ****                    coap_session_str(session), packet->length,
  81:C:/Users/stapi/OneDrive/Desktop/GD32VW553/GD32VW55X_Wifi_BLE_SDK/GD32VW55x_RELEASE_V1.0.2/MSDK/lwip/libcoap-4.3.4/src\coap_netif.c ****                    coap_socket_strerror(), session->state);
  82:C:/Users/stapi/OneDrive/Desktop/GD32VW553/GD32VW55X_Wifi_BLE_SDK/GD32VW55x_RELEASE_V1.0.2/MSDK/lwip/libcoap-4.3.4/src\coap_netif.c ****     errno = keep_errno;
 196              		.loc 1 82 5 discriminator 3
 197              		.loc 1 82 11 is_stmt 0 discriminator 3
 198 006c 23204901 		sw	s4,%lo(errno)(s2)
 199              	.L11:
  83:C:/Users/stapi/OneDrive/Desktop/GD32VW553/GD32VW55X_Wifi_BLE_SDK/GD32VW55x_RELEASE_V1.0.2/MSDK/lwip/libcoap-4.3.4/src\coap_netif.c ****   } else if (bytes_read > 0) {
  84:C:/Users/stapi/OneDrive/Desktop/GD32VW553/GD32VW55X_Wifi_BLE_SDK/GD32VW55x_RELEASE_V1.0.2/MSDK/lwip/libcoap-4.3.4/src\coap_netif.c ****     coap_ticks(&session->last_rx_tx);
  85:C:/Users/stapi/OneDrive/Desktop/GD32VW553/GD32VW55X_Wifi_BLE_SDK/GD32VW55x_RELEASE_V1.0.2/MSDK/lwip/libcoap-4.3.4/src\coap_netif.c ****     coap_log_debug("*  %s: netif: recv %4zd bytes\n",
  86:C:/Users/stapi/OneDrive/Desktop/GD32VW553/GD32VW55X_Wifi_BLE_SDK/GD32VW55x_RELEASE_V1.0.2/MSDK/lwip/libcoap-4.3.4/src\coap_netif.c ****                    coap_session_str(session), bytes_read);
  87:C:/Users/stapi/OneDrive/Desktop/GD32VW553/GD32VW55X_Wifi_BLE_SDK/GD32VW55x_RELEASE_V1.0.2/MSDK/lwip/libcoap-4.3.4/src\coap_netif.c ****   }
  88:C:/Users/stapi/OneDrive/Desktop/GD32VW553/GD32VW55X_Wifi_BLE_SDK/GD32VW55x_RELEASE_V1.0.2/MSDK/lwip/libcoap-4.3.4/src\coap_netif.c ****   return bytes_read;
  89:C:/Users/stapi/OneDrive/Desktop/GD32VW553/GD32VW55X_Wifi_BLE_SDK/GD32VW55x_RELEASE_V1.0.2/MSDK/lwip/libcoap-4.3.4/src\coap_netif.c **** }
 200              		.loc 1 89 1
 201 0070 2685     		mv	a0,s1
 202 0072 4101     		addi	sp,sp,16
 203              		.cfi_remember_state
 204              		.cfi_def_cfa_offset 0
 205 0074 17030000 		tail	__riscv_restore_5
 205      67000300 
 206              		.cfi_restore 20
 207              		.cfi_restore 19
 208              		.cfi_restore 18
 209              		.cfi_restore 9
 210              		.cfi_restore 8
 211              		.cfi_restore 1
 212              		.cfi_def_cfa_offset -32
 213              	.LVL18:
 214              	.L12:
 215              		.cfi_restore_state
  83:C:/Users/stapi/OneDrive/Desktop/GD32VW553/GD32VW55X_Wifi_BLE_SDK/GD32VW55x_RELEASE_V1.0.2/MSDK/lwip/libcoap-4.3.4/src\coap_netif.c ****   } else if (bytes_read > 0) {
 216              		.loc 1 83 10 is_stmt 1
  83:C:/Users/stapi/OneDrive/Desktop/GD32VW553/GD32VW55X_Wifi_BLE_SDK/GD32VW55x_RELEASE_V1.0.2/MSDK/lwip/libcoap-4.3.4/src\coap_netif.c ****   } else if (bytes_read > 0) {
 217              		.loc 1 83 13 is_stmt 0
 218 007c E35AA0FE 		ble	a0,zero,.L11
  84:C:/Users/stapi/OneDrive/Desktop/GD32VW553/GD32VW55X_Wifi_BLE_SDK/GD32VW55x_RELEASE_V1.0.2/MSDK/lwip/libcoap-4.3.4/src\coap_netif.c ****     coap_log_debug("*  %s: netif: recv %4zd bytes\n",
 219              		.loc 1 84 5 is_stmt 1
 220              	.LVL19:
 221              	.LBB6:
 222              	.LBB7:
 223              		.file 2 "..\\..\\..\\..\\lwip\\libcoap-4.3.4\\include/coap3/coap_time.h"
   1:..\..\..\..\lwip\libcoap-4.3.4\include/coap3/coap_time.h **** /*
   2:..\..\..\..\lwip\libcoap-4.3.4\include/coap3/coap_time.h ****  * coap_time.h -- Clock Handling
   3:..\..\..\..\lwip\libcoap-4.3.4\include/coap3/coap_time.h ****  *
   4:..\..\..\..\lwip\libcoap-4.3.4\include/coap3/coap_time.h ****  * Copyright (C) 2010-2023 Olaf Bergmann <bergmann@tzi.org>
   5:..\..\..\..\lwip\libcoap-4.3.4\include/coap3/coap_time.h ****  *
   6:..\..\..\..\lwip\libcoap-4.3.4\include/coap3/coap_time.h ****  * SPDX-License-Identifier: BSD-2-Clause
   7:..\..\..\..\lwip\libcoap-4.3.4\include/coap3/coap_time.h ****  *
   8:..\..\..\..\lwip\libcoap-4.3.4\include/coap3/coap_time.h ****  * This file is part of the CoAP library libcoap. Please see README for terms
   9:..\..\..\..\lwip\libcoap-4.3.4\include/coap3/coap_time.h ****  * of use.
  10:..\..\..\..\lwip\libcoap-4.3.4\include/coap3/coap_time.h ****  */
  11:..\..\..\..\lwip\libcoap-4.3.4\include/coap3/coap_time.h **** 
  12:..\..\..\..\lwip\libcoap-4.3.4\include/coap3/coap_time.h **** /**
  13:..\..\..\..\lwip\libcoap-4.3.4\include/coap3/coap_time.h ****  * @file coap_time.h
  14:..\..\..\..\lwip\libcoap-4.3.4\include/coap3/coap_time.h ****  * @brief Clock Handling
  15:..\..\..\..\lwip\libcoap-4.3.4\include/coap3/coap_time.h ****  */
  16:..\..\..\..\lwip\libcoap-4.3.4\include/coap3/coap_time.h **** 
  17:..\..\..\..\lwip\libcoap-4.3.4\include/coap3/coap_time.h **** #ifndef COAP_TIME_H_
  18:..\..\..\..\lwip\libcoap-4.3.4\include/coap3/coap_time.h **** #define COAP_TIME_H_
  19:..\..\..\..\lwip\libcoap-4.3.4\include/coap3/coap_time.h **** 
  20:..\..\..\..\lwip\libcoap-4.3.4\include/coap3/coap_time.h **** /**
  21:..\..\..\..\lwip\libcoap-4.3.4\include/coap3/coap_time.h ****  * @ingroup application_api
  22:..\..\..\..\lwip\libcoap-4.3.4\include/coap3/coap_time.h ****  * @defgroup clock Clock Handling
  23:..\..\..\..\lwip\libcoap-4.3.4\include/coap3/coap_time.h ****  * API for internal clock assess
  24:..\..\..\..\lwip\libcoap-4.3.4\include/coap3/coap_time.h ****  * @{
  25:..\..\..\..\lwip\libcoap-4.3.4\include/coap3/coap_time.h ****  */
  26:..\..\..\..\lwip\libcoap-4.3.4\include/coap3/coap_time.h **** 
  27:..\..\..\..\lwip\libcoap-4.3.4\include/coap3/coap_time.h **** #if defined(WITH_LWIP)
  28:..\..\..\..\lwip\libcoap-4.3.4\include/coap3/coap_time.h **** 
  29:..\..\..\..\lwip\libcoap-4.3.4\include/coap3/coap_time.h **** #include <stdint.h>
  30:..\..\..\..\lwip\libcoap-4.3.4\include/coap3/coap_time.h **** #include <lwip/sys.h>
  31:..\..\..\..\lwip\libcoap-4.3.4\include/coap3/coap_time.h **** 
  32:..\..\..\..\lwip\libcoap-4.3.4\include/coap3/coap_time.h **** /* lwIP provides ms in sys_now */
  33:..\..\..\..\lwip\libcoap-4.3.4\include/coap3/coap_time.h **** #define COAP_TICKS_PER_SECOND 1000
  34:..\..\..\..\lwip\libcoap-4.3.4\include/coap3/coap_time.h **** 
  35:..\..\..\..\lwip\libcoap-4.3.4\include/coap3/coap_time.h **** typedef uint32_t coap_tick_t;
  36:..\..\..\..\lwip\libcoap-4.3.4\include/coap3/coap_time.h **** typedef uint32_t coap_time_t;
  37:..\..\..\..\lwip\libcoap-4.3.4\include/coap3/coap_time.h **** typedef int32_t coap_tick_diff_t;
  38:..\..\..\..\lwip\libcoap-4.3.4\include/coap3/coap_time.h **** 
  39:..\..\..\..\lwip\libcoap-4.3.4\include/coap3/coap_time.h **** COAP_STATIC_INLINE void
  40:..\..\..\..\lwip\libcoap-4.3.4\include/coap3/coap_time.h **** coap_ticks_impl(coap_tick_t *t) {
  41:..\..\..\..\lwip\libcoap-4.3.4\include/coap3/coap_time.h ****   *t = sys_now();
 224              		.loc 2 41 3
 225              		.loc 2 41 8 is_stmt 0
 226 0080 97000000 		call	sys_now
 226      E7800000 
 227              	.LVL20:
 228              		.loc 2 41 6
 229 0088 2320A40E 		sw	a0,224(s0)
 230              	.LVL21:
 231              	.LBE7:
 232              	.LBE6:
  85:C:/Users/stapi/OneDrive/Desktop/GD32VW553/GD32VW55X_Wifi_BLE_SDK/GD32VW55x_RELEASE_V1.0.2/MSDK/lwip/libcoap-4.3.4/src\coap_netif.c ****                    coap_session_str(session), bytes_read);
 233              		.loc 1 85 5 is_stmt 1
  85:C:/Users/stapi/OneDrive/Desktop/GD32VW553/GD32VW55X_Wifi_BLE_SDK/GD32VW55x_RELEASE_V1.0.2/MSDK/lwip/libcoap-4.3.4/src\coap_netif.c ****                    coap_session_str(session), bytes_read);
 234              		.loc 1 85 5
 235 008c 97000000 		call	coap_get_log_level
 235      E7800000 
 236              	.LVL22:
 237 0094 9947     		li	a5,6
 238 0096 E3DDA7FC 		ble	a0,a5,.L11
  85:C:/Users/stapi/OneDrive/Desktop/GD32VW553/GD32VW55X_Wifi_BLE_SDK/GD32VW55x_RELEASE_V1.0.2/MSDK/lwip/libcoap-4.3.4/src\coap_netif.c ****                    coap_session_str(session), bytes_read);
 239              		.loc 1 85 5 discriminator 1
 240 009a 2285     		mv	a0,s0
 241 009c 97000000 		call	coap_session_str
 241      E7800000 
 242              	.LVL23:
 243 00a4 B7050000 		lui	a1,%hi(.LC1)
 244 00a8 2A86     		mv	a2,a0
 245 00aa A686     		mv	a3,s1
 246 00ac 93850500 		addi	a1,a1,%lo(.LC1)
 247 00b0 1D45     		li	a0,7
 248 00b2 97000000 		call	coap_log_impl
 248      E7800000 
 249              	.LVL24:
  85:C:/Users/stapi/OneDrive/Desktop/GD32VW553/GD32VW55X_Wifi_BLE_SDK/GD32VW55x_RELEASE_V1.0.2/MSDK/lwip/libcoap-4.3.4/src\coap_netif.c ****                    coap_session_str(session), bytes_read);
 250              		.loc 1 85 5 discriminator 1
  88:C:/Users/stapi/OneDrive/Desktop/GD32VW553/GD32VW55X_Wifi_BLE_SDK/GD32VW55x_RELEASE_V1.0.2/MSDK/lwip/libcoap-4.3.4/src\coap_netif.c **** }
 251              		.loc 1 88 3 discriminator 1
  88:C:/Users/stapi/OneDrive/Desktop/GD32VW553/GD32VW55X_Wifi_BLE_SDK/GD32VW55x_RELEASE_V1.0.2/MSDK/lwip/libcoap-4.3.4/src\coap_netif.c **** }
 252              		.loc 1 88 10 is_stmt 0 discriminator 1
 253 00ba 5DBF     		j	.L11
 254              		.cfi_endproc
 255              	.LFE35:
 257              		.section	.rodata.coap_netif_dgrm_read_ep.str1.4,"aMS",@progbits,1
 258              		.align	2
 259              	.LC2:
 260 0000 2A202025 		.string	"*  %s: netif: failed to read %zd bytes (%s)\n"
 260      733A206E 
 260      65746966 
 260      3A206661 
 260      696C6564 
 261              		.section	.text.coap_netif_dgrm_read_ep,"ax",@progbits
 262              		.align	1
 263              		.globl	coap_netif_dgrm_read_ep
 265              	coap_netif_dgrm_read_ep:
 266              	.LFB36:
  90:C:/Users/stapi/OneDrive/Desktop/GD32VW553/GD32VW55X_Wifi_BLE_SDK/GD32VW55x_RELEASE_V1.0.2/MSDK/lwip/libcoap-4.3.4/src\coap_netif.c **** 
  91:C:/Users/stapi/OneDrive/Desktop/GD32VW553/GD32VW55X_Wifi_BLE_SDK/GD32VW55x_RELEASE_V1.0.2/MSDK/lwip/libcoap-4.3.4/src\coap_netif.c **** #if COAP_SERVER_SUPPORT
  92:C:/Users/stapi/OneDrive/Desktop/GD32VW553/GD32VW55X_Wifi_BLE_SDK/GD32VW55x_RELEASE_V1.0.2/MSDK/lwip/libcoap-4.3.4/src\coap_netif.c **** /*
  93:C:/Users/stapi/OneDrive/Desktop/GD32VW553/GD32VW55X_Wifi_BLE_SDK/GD32VW55x_RELEASE_V1.0.2/MSDK/lwip/libcoap-4.3.4/src\coap_netif.c ****  * dgram
  94:C:/Users/stapi/OneDrive/Desktop/GD32VW553/GD32VW55X_Wifi_BLE_SDK/GD32VW55x_RELEASE_V1.0.2/MSDK/lwip/libcoap-4.3.4/src\coap_netif.c ****  * return +ve Number of bytes written.
  95:C:/Users/stapi/OneDrive/Desktop/GD32VW553/GD32VW55X_Wifi_BLE_SDK/GD32VW55x_RELEASE_V1.0.2/MSDK/lwip/libcoap-4.3.4/src\coap_netif.c ****  *         -1 Error error in errno).
  96:C:/Users/stapi/OneDrive/Desktop/GD32VW553/GD32VW55X_Wifi_BLE_SDK/GD32VW55x_RELEASE_V1.0.2/MSDK/lwip/libcoap-4.3.4/src\coap_netif.c ****  *         -2 ICMP error response
  97:C:/Users/stapi/OneDrive/Desktop/GD32VW553/GD32VW55X_Wifi_BLE_SDK/GD32VW55x_RELEASE_V1.0.2/MSDK/lwip/libcoap-4.3.4/src\coap_netif.c ****  */
  98:C:/Users/stapi/OneDrive/Desktop/GD32VW553/GD32VW55X_Wifi_BLE_SDK/GD32VW55x_RELEASE_V1.0.2/MSDK/lwip/libcoap-4.3.4/src\coap_netif.c **** ssize_t
  99:C:/Users/stapi/OneDrive/Desktop/GD32VW553/GD32VW55X_Wifi_BLE_SDK/GD32VW55x_RELEASE_V1.0.2/MSDK/lwip/libcoap-4.3.4/src\coap_netif.c **** coap_netif_dgrm_read_ep(coap_endpoint_t *endpoint, coap_packet_t *packet) {
 267              		.loc 1 99 75 is_stmt 1
 268              		.cfi_startproc
 269              	.LVL25:
 270 0000 17030000 		call	t0,__riscv_save_5
 270      E7020300 
 271              		.cfi_offset 20, -24
 272              		.cfi_offset 19, -20
 273              		.cfi_offset 18, -16
 274              		.cfi_offset 9, -12
 275              		.cfi_offset 8, -8
 276              		.cfi_offset 1, -4
 277              		.cfi_def_cfa_offset 32
 100:C:/Users/stapi/OneDrive/Desktop/GD32VW553/GD32VW55X_Wifi_BLE_SDK/GD32VW55x_RELEASE_V1.0.2/MSDK/lwip/libcoap-4.3.4/src\coap_netif.c ****   ssize_t bytes_read;
 278              		.loc 1 100 3
 101:C:/Users/stapi/OneDrive/Desktop/GD32VW553/GD32VW55X_Wifi_BLE_SDK/GD32VW55x_RELEASE_V1.0.2/MSDK/lwip/libcoap-4.3.4/src\coap_netif.c ****   int keep_errno;
 279              		.loc 1 101 3
 102:C:/Users/stapi/OneDrive/Desktop/GD32VW553/GD32VW55X_Wifi_BLE_SDK/GD32VW55x_RELEASE_V1.0.2/MSDK/lwip/libcoap-4.3.4/src\coap_netif.c **** 
 103:C:/Users/stapi/OneDrive/Desktop/GD32VW553/GD32VW55X_Wifi_BLE_SDK/GD32VW55x_RELEASE_V1.0.2/MSDK/lwip/libcoap-4.3.4/src\coap_netif.c ****   bytes_read = coap_socket_recv(&endpoint->sock, packet);
 280              		.loc 1 103 3
  99:C:/Users/stapi/OneDrive/Desktop/GD32VW553/GD32VW55X_Wifi_BLE_SDK/GD32VW55x_RELEASE_V1.0.2/MSDK/lwip/libcoap-4.3.4/src\coap_netif.c ****   ssize_t bytes_read;
 281              		.loc 1 99 75 is_stmt 0
 282 0008 4111     		addi	sp,sp,-16
 283              		.cfi_def_cfa_offset 48
  99:C:/Users/stapi/OneDrive/Desktop/GD32VW553/GD32VW55X_Wifi_BLE_SDK/GD32VW55x_RELEASE_V1.0.2/MSDK/lwip/libcoap-4.3.4/src\coap_netif.c ****   ssize_t bytes_read;
 284              		.loc 1 99 75
 285 000a 2A89     		mv	s2,a0
 286              		.loc 1 103 16
 287 000c 4105     		addi	a0,a0,16
 288              	.LVL26:
  99:C:/Users/stapi/OneDrive/Desktop/GD32VW553/GD32VW55X_Wifi_BLE_SDK/GD32VW55x_RELEASE_V1.0.2/MSDK/lwip/libcoap-4.3.4/src\coap_netif.c ****   ssize_t bytes_read;
 289              		.loc 1 99 75
 290 000e AE89     		mv	s3,a1
 291              		.loc 1 103 16
 292 0010 97000000 		call	coap_socket_recv
 292      E7800000 
 293              	.LVL27:
 104:C:/Users/stapi/OneDrive/Desktop/GD32VW553/GD32VW55X_Wifi_BLE_SDK/GD32VW55x_RELEASE_V1.0.2/MSDK/lwip/libcoap-4.3.4/src\coap_netif.c ****   keep_errno = errno;
 105:C:/Users/stapi/OneDrive/Desktop/GD32VW553/GD32VW55X_Wifi_BLE_SDK/GD32VW55x_RELEASE_V1.0.2/MSDK/lwip/libcoap-4.3.4/src\coap_netif.c ****   if (bytes_read == -1) {
 294              		.loc 1 105 6
 295 0018 FD57     		li	a5,-1
 103:C:/Users/stapi/OneDrive/Desktop/GD32VW553/GD32VW55X_Wifi_BLE_SDK/GD32VW55x_RELEASE_V1.0.2/MSDK/lwip/libcoap-4.3.4/src\coap_netif.c ****   keep_errno = errno;
 296              		.loc 1 103 16
 297 001a 2A84     		mv	s0,a0
 298              	.LVL28:
 104:C:/Users/stapi/OneDrive/Desktop/GD32VW553/GD32VW55X_Wifi_BLE_SDK/GD32VW55x_RELEASE_V1.0.2/MSDK/lwip/libcoap-4.3.4/src\coap_netif.c ****   keep_errno = errno;
 299              		.loc 1 104 3 is_stmt 1
 300              		.loc 1 105 3
 301              		.loc 1 105 6 is_stmt 0
 302 001c 6318F504 		bne	a0,a5,.L18
 104:C:/Users/stapi/OneDrive/Desktop/GD32VW553/GD32VW55X_Wifi_BLE_SDK/GD32VW55x_RELEASE_V1.0.2/MSDK/lwip/libcoap-4.3.4/src\coap_netif.c ****   keep_errno = errno;
 303              		.loc 1 104 14
 304 0020 B7040000 		lui	s1,%hi(errno)
 305 0024 03AA0400 		lw	s4,%lo(errno)(s1)
 106:C:/Users/stapi/OneDrive/Desktop/GD32VW553/GD32VW55X_Wifi_BLE_SDK/GD32VW55x_RELEASE_V1.0.2/MSDK/lwip/libcoap-4.3.4/src\coap_netif.c ****     coap_log_debug("*  %s: netif: failed to read %zd bytes (%s)\n",
 306              		.loc 1 106 5 is_stmt 1
 307              		.loc 1 106 5
 308 0028 97000000 		call	coap_get_log_level
 308      E7800000 
 309              	.LVL29:
 310 0030 9947     		li	a5,6
 311 0032 63DBA702 		ble	a0,a5,.L20
 312              		.loc 1 106 5 discriminator 1
 313 0036 4A85     		mv	a0,s2
 314 0038 97000000 		call	coap_endpoint_str
 314      E7800000 
 315              	.LVL30:
 316 0040 83A64901 		lw	a3,20(s3)
 317 0044 2AC6     		sw	a0,12(sp)
 318 0046 36C4     		sw	a3,8(sp)
 319 0048 97000000 		call	coap_socket_strerror
 319      E7800000 
 320              	.LVL31:
 321 0050 A246     		lw	a3,8(sp)
 322 0052 3246     		lw	a2,12(sp)
 323 0054 B7050000 		lui	a1,%hi(.LC2)
 324 0058 2A87     		mv	a4,a0
 325 005a 93850500 		addi	a1,a1,%lo(.LC2)
 326 005e 1D45     		li	a0,7
 327 0060 97000000 		call	coap_log_impl
 327      E7800000 
 328              	.LVL32:
 329              	.L20:
 330              		.loc 1 106 5 discriminator 3
 107:C:/Users/stapi/OneDrive/Desktop/GD32VW553/GD32VW55X_Wifi_BLE_SDK/GD32VW55x_RELEASE_V1.0.2/MSDK/lwip/libcoap-4.3.4/src\coap_netif.c ****                    coap_endpoint_str(endpoint), packet->length,
 108:C:/Users/stapi/OneDrive/Desktop/GD32VW553/GD32VW55X_Wifi_BLE_SDK/GD32VW55x_RELEASE_V1.0.2/MSDK/lwip/libcoap-4.3.4/src\coap_netif.c ****                    coap_socket_strerror());
 109:C:/Users/stapi/OneDrive/Desktop/GD32VW553/GD32VW55X_Wifi_BLE_SDK/GD32VW55x_RELEASE_V1.0.2/MSDK/lwip/libcoap-4.3.4/src\coap_netif.c ****     errno = keep_errno;
 331              		.loc 1 109 5 discriminator 3
 332              		.loc 1 109 11 is_stmt 0 discriminator 3
 333 0068 23A04401 		sw	s4,%lo(errno)(s1)
 110:C:/Users/stapi/OneDrive/Desktop/GD32VW553/GD32VW55X_Wifi_BLE_SDK/GD32VW55x_RELEASE_V1.0.2/MSDK/lwip/libcoap-4.3.4/src\coap_netif.c ****   } else if (bytes_read > 0) {
 111:C:/Users/stapi/OneDrive/Desktop/GD32VW553/GD32VW55X_Wifi_BLE_SDK/GD32VW55x_RELEASE_V1.0.2/MSDK/lwip/libcoap-4.3.4/src\coap_netif.c ****     /* Let the caller do the logging as session available by then */
 112:C:/Users/stapi/OneDrive/Desktop/GD32VW553/GD32VW55X_Wifi_BLE_SDK/GD32VW55x_RELEASE_V1.0.2/MSDK/lwip/libcoap-4.3.4/src\coap_netif.c ****   }
 334              		.loc 1 112 3 is_stmt 1 discriminator 3
 113:C:/Users/stapi/OneDrive/Desktop/GD32VW553/GD32VW55X_Wifi_BLE_SDK/GD32VW55x_RELEASE_V1.0.2/MSDK/lwip/libcoap-4.3.4/src\coap_netif.c ****   return bytes_read;
 335              		.loc 1 113 3 discriminator 3
 336              	.L18:
 114:C:/Users/stapi/OneDrive/Desktop/GD32VW553/GD32VW55X_Wifi_BLE_SDK/GD32VW55x_RELEASE_V1.0.2/MSDK/lwip/libcoap-4.3.4/src\coap_netif.c **** }
 337              		.loc 1 114 1 is_stmt 0
 338 006c 2285     		mv	a0,s0
 339 006e 4101     		addi	sp,sp,16
 340              		.cfi_def_cfa_offset 0
 341 0070 17030000 		tail	__riscv_restore_5
 341      67000300 
 342              		.cfi_restore 20
 343              		.cfi_restore 19
 344              		.cfi_restore 18
 345              		.cfi_restore 9
 346              		.cfi_restore 8
 347              		.cfi_restore 1
 348              		.cfi_def_cfa_offset -32
 349              		.cfi_endproc
 350              	.LFE36:
 352              		.section	.rodata.coap_netif_dgrm_write.str1.4,"aMS",@progbits,1
 353              		.align	2
 354              	.LC3:
 355 0000 73657373 		.string	"session->endpoint != NULL"
 355      696F6E2D 
 355      3E656E64 
 355      706F696E 
 355      7420213D 
 356 001a 0000     		.align	2
 357              	.LC4:
 358 001c 433A2F55 		.string	"C:/Users/stapi/OneDrive/Desktop/GD32VW553/GD32VW55X_Wifi_BLE_SDK/GD32VW55x_RELEASE_V1.0.2
 358      73657273 
 358      2F737461 
 358      70692F4F 
 358      6E654472 
 359 009f 00       		.align	2
 360              	.LC5:
 361 00a0 2A202025 		.string	"*  %s: netif: failed to send %zd bytes (%s) state %d\n"
 361      733A206E 
 361      65746966 
 361      3A206661 
 361      696C6564 
 362 00d6 0000     		.align	2
 363              	.LC6:
 364 00d8 2A202025 		.string	"*  %s: netif: sent %4zd bytes\n"
 364      733A206E 
 364      65746966 
 364      3A207365 
 364      6E742025 
 365 00f7 00       		.align	2
 366              	.LC7:
 367 00f8 2A202025 		.string	"*  %s: netif: sent %4zd of %4zd bytes\n"
 367      733A206E 
 367      65746966 
 367      3A207365 
 367      6E742025 
 368              		.section	.text.coap_netif_dgrm_write,"ax",@progbits
 369              		.align	1
 370              		.globl	coap_netif_dgrm_write
 372              	coap_netif_dgrm_write:
 373              	.LFB37:
 115:C:/Users/stapi/OneDrive/Desktop/GD32VW553/GD32VW55X_Wifi_BLE_SDK/GD32VW55x_RELEASE_V1.0.2/MSDK/lwip/libcoap-4.3.4/src\coap_netif.c **** #endif /* COAP_SERVER_SUPPORT */
 116:C:/Users/stapi/OneDrive/Desktop/GD32VW553/GD32VW55X_Wifi_BLE_SDK/GD32VW55x_RELEASE_V1.0.2/MSDK/lwip/libcoap-4.3.4/src\coap_netif.c **** 
 117:C:/Users/stapi/OneDrive/Desktop/GD32VW553/GD32VW55X_Wifi_BLE_SDK/GD32VW55x_RELEASE_V1.0.2/MSDK/lwip/libcoap-4.3.4/src\coap_netif.c **** /*
 118:C:/Users/stapi/OneDrive/Desktop/GD32VW553/GD32VW55X_Wifi_BLE_SDK/GD32VW55x_RELEASE_V1.0.2/MSDK/lwip/libcoap-4.3.4/src\coap_netif.c ****  * dgram
 119:C:/Users/stapi/OneDrive/Desktop/GD32VW553/GD32VW55X_Wifi_BLE_SDK/GD32VW55x_RELEASE_V1.0.2/MSDK/lwip/libcoap-4.3.4/src\coap_netif.c ****  * return +ve Number of bytes written.
 120:C:/Users/stapi/OneDrive/Desktop/GD32VW553/GD32VW55X_Wifi_BLE_SDK/GD32VW55x_RELEASE_V1.0.2/MSDK/lwip/libcoap-4.3.4/src\coap_netif.c ****  *         -1 Error error in errno).
 121:C:/Users/stapi/OneDrive/Desktop/GD32VW553/GD32VW55X_Wifi_BLE_SDK/GD32VW55x_RELEASE_V1.0.2/MSDK/lwip/libcoap-4.3.4/src\coap_netif.c ****  */
 122:C:/Users/stapi/OneDrive/Desktop/GD32VW553/GD32VW55X_Wifi_BLE_SDK/GD32VW55x_RELEASE_V1.0.2/MSDK/lwip/libcoap-4.3.4/src\coap_netif.c **** ssize_t
 123:C:/Users/stapi/OneDrive/Desktop/GD32VW553/GD32VW55X_Wifi_BLE_SDK/GD32VW55x_RELEASE_V1.0.2/MSDK/lwip/libcoap-4.3.4/src\coap_netif.c **** coap_netif_dgrm_write(coap_session_t *session, const uint8_t *data,
 124:C:/Users/stapi/OneDrive/Desktop/GD32VW553/GD32VW55X_Wifi_BLE_SDK/GD32VW55x_RELEASE_V1.0.2/MSDK/lwip/libcoap-4.3.4/src\coap_netif.c ****                       size_t datalen) {
 374              		.loc 1 124 39 is_stmt 1
 375              		.cfi_startproc
 376              	.LVL33:
 377 0000 17030000 		call	t0,__riscv_save_5
 377      E7020300 
 378              		.cfi_offset 20, -24
 379              		.cfi_offset 19, -20
 380              		.cfi_offset 18, -16
 381              		.cfi_offset 9, -12
 382              		.cfi_offset 8, -8
 383              		.cfi_offset 1, -4
 384              		.cfi_def_cfa_offset 32
 125:C:/Users/stapi/OneDrive/Desktop/GD32VW553/GD32VW55X_Wifi_BLE_SDK/GD32VW55x_RELEASE_V1.0.2/MSDK/lwip/libcoap-4.3.4/src\coap_netif.c ****   ssize_t bytes_written;
 385              		.loc 1 125 3
 126:C:/Users/stapi/OneDrive/Desktop/GD32VW553/GD32VW55X_Wifi_BLE_SDK/GD32VW55x_RELEASE_V1.0.2/MSDK/lwip/libcoap-4.3.4/src\coap_netif.c ****   int keep_errno;
 386              		.loc 1 126 3
 127:C:/Users/stapi/OneDrive/Desktop/GD32VW553/GD32VW55X_Wifi_BLE_SDK/GD32VW55x_RELEASE_V1.0.2/MSDK/lwip/libcoap-4.3.4/src\coap_netif.c **** 
 128:C:/Users/stapi/OneDrive/Desktop/GD32VW553/GD32VW55X_Wifi_BLE_SDK/GD32VW55x_RELEASE_V1.0.2/MSDK/lwip/libcoap-4.3.4/src\coap_netif.c ****   coap_socket_t *sock = &session->sock;
 387              		.loc 1 128 3
 388              	.LVL34:
 129:C:/Users/stapi/OneDrive/Desktop/GD32VW553/GD32VW55X_Wifi_BLE_SDK/GD32VW55x_RELEASE_V1.0.2/MSDK/lwip/libcoap-4.3.4/src\coap_netif.c **** #if COAP_SERVER_SUPPORT
 130:C:/Users/stapi/OneDrive/Desktop/GD32VW553/GD32VW55X_Wifi_BLE_SDK/GD32VW55x_RELEASE_V1.0.2/MSDK/lwip/libcoap-4.3.4/src\coap_netif.c ****   if (sock->flags == COAP_SOCKET_EMPTY) {
 389              		.loc 1 130 3
 390              		.loc 1 130 6 is_stmt 0
 391 0008 83574506 		lhu	a5,100(a0)
 124:C:/Users/stapi/OneDrive/Desktop/GD32VW553/GD32VW55X_Wifi_BLE_SDK/GD32VW55x_RELEASE_V1.0.2/MSDK/lwip/libcoap-4.3.4/src\coap_netif.c ****   ssize_t bytes_written;
 392              		.loc 1 124 39
 393 000c 2A84     		mv	s0,a0
 394 000e 4111     		addi	sp,sp,-16
 395              		.cfi_def_cfa_offset 48
 124:C:/Users/stapi/OneDrive/Desktop/GD32VW553/GD32VW55X_Wifi_BLE_SDK/GD32VW55x_RELEASE_V1.0.2/MSDK/lwip/libcoap-4.3.4/src\coap_netif.c ****   ssize_t bytes_written;
 396              		.loc 1 124 39
 397 0010 3289     		mv	s2,a2
 128:C:/Users/stapi/OneDrive/Desktop/GD32VW553/GD32VW55X_Wifi_BLE_SDK/GD32VW55x_RELEASE_V1.0.2/MSDK/lwip/libcoap-4.3.4/src\coap_netif.c **** #if COAP_SERVER_SUPPORT
 398              		.loc 1 128 18
 399 0012 13050506 		addi	a0,a0,96
 400              	.LVL35:
 401              		.loc 1 130 6
 402 0016 85EB     		bne	a5,zero,.L24
 131:C:/Users/stapi/OneDrive/Desktop/GD32VW553/GD32VW55X_Wifi_BLE_SDK/GD32VW55x_RELEASE_V1.0.2/MSDK/lwip/libcoap-4.3.4/src\coap_netif.c ****     assert(session->endpoint != NULL);
 403              		.loc 1 131 5 is_stmt 1
 404 0018 8327840A 		lw	a5,168(s0)
 132:C:/Users/stapi/OneDrive/Desktop/GD32VW553/GD32VW55X_Wifi_BLE_SDK/GD32VW55x_RELEASE_V1.0.2/MSDK/lwip/libcoap-4.3.4/src\coap_netif.c ****     sock = &session->endpoint->sock;
 405              		.loc 1 132 10 is_stmt 0
 406 001c 13850701 		addi	a0,a5,16
 407              	.LVL36:
 131:C:/Users/stapi/OneDrive/Desktop/GD32VW553/GD32VW55X_Wifi_BLE_SDK/GD32VW55x_RELEASE_V1.0.2/MSDK/lwip/libcoap-4.3.4/src\coap_netif.c ****     assert(session->endpoint != NULL);
 408              		.loc 1 131 5
 409 0020 9DE3     		bne	a5,zero,.L24
 131:C:/Users/stapi/OneDrive/Desktop/GD32VW553/GD32VW55X_Wifi_BLE_SDK/GD32VW55x_RELEASE_V1.0.2/MSDK/lwip/libcoap-4.3.4/src\coap_netif.c ****     assert(session->endpoint != NULL);
 410              		.loc 1 131 5 discriminator 1
 411 0022 B7060000 		lui	a3,%hi(.LC3)
 412 0026 37060000 		lui	a2,%hi(.LANCHOR0)
 413              	.LVL37:
 414 002a 37050000 		lui	a0,%hi(.LC4)
 415 002e 93860600 		addi	a3,a3,%lo(.LC3)
 416 0032 13060600 		addi	a2,a2,%lo(.LANCHOR0)
 417 0036 93053008 		li	a1,131
 418              	.LVL38:
 419 003a 13050500 		addi	a0,a0,%lo(.LC4)
 420 003e 97000000 		call	__assert_func
 420      E7800000 
 421              	.LVL39:
 422              	.L24:
 133:C:/Users/stapi/OneDrive/Desktop/GD32VW553/GD32VW55X_Wifi_BLE_SDK/GD32VW55x_RELEASE_V1.0.2/MSDK/lwip/libcoap-4.3.4/src\coap_netif.c ****   }
 134:C:/Users/stapi/OneDrive/Desktop/GD32VW553/GD32VW55X_Wifi_BLE_SDK/GD32VW55x_RELEASE_V1.0.2/MSDK/lwip/libcoap-4.3.4/src\coap_netif.c **** #endif /* COAP_SERVER_SUPPORT */
 135:C:/Users/stapi/OneDrive/Desktop/GD32VW553/GD32VW55X_Wifi_BLE_SDK/GD32VW55x_RELEASE_V1.0.2/MSDK/lwip/libcoap-4.3.4/src\coap_netif.c **** 
 136:C:/Users/stapi/OneDrive/Desktop/GD32VW553/GD32VW55X_Wifi_BLE_SDK/GD32VW55x_RELEASE_V1.0.2/MSDK/lwip/libcoap-4.3.4/src\coap_netif.c ****   bytes_written = coap_socket_send(sock, session, data, datalen);
 423              		.loc 1 136 3 is_stmt 1
 424              		.loc 1 136 19 is_stmt 0
 425 0046 2E86     		mv	a2,a1
 426              	.LVL40:
 427 0048 CA86     		mv	a3,s2
 428 004a A285     		mv	a1,s0
 429              	.LVL41:
 430 004c 97000000 		call	coap_socket_send
 430      E7800000 
 431              	.LVL42:
 432 0054 AA84     		mv	s1,a0
 433              	.LVL43:
 137:C:/Users/stapi/OneDrive/Desktop/GD32VW553/GD32VW55X_Wifi_BLE_SDK/GD32VW55x_RELEASE_V1.0.2/MSDK/lwip/libcoap-4.3.4/src\coap_netif.c ****   keep_errno = errno;
 434              		.loc 1 137 3 is_stmt 1
 138:C:/Users/stapi/OneDrive/Desktop/GD32VW553/GD32VW55X_Wifi_BLE_SDK/GD32VW55x_RELEASE_V1.0.2/MSDK/lwip/libcoap-4.3.4/src\coap_netif.c ****   if (bytes_written <= 0) {
 435              		.loc 1 138 3
 436              		.loc 1 138 6 is_stmt 0
 437 0056 634CA004 		bgt	a0,zero,.L26
 137:C:/Users/stapi/OneDrive/Desktop/GD32VW553/GD32VW55X_Wifi_BLE_SDK/GD32VW55x_RELEASE_V1.0.2/MSDK/lwip/libcoap-4.3.4/src\coap_netif.c ****   keep_errno = errno;
 438              		.loc 1 137 14
 439 005a B7090000 		lui	s3,%hi(errno)
 440 005e 03AA0900 		lw	s4,%lo(errno)(s3)
 139:C:/Users/stapi/OneDrive/Desktop/GD32VW553/GD32VW55X_Wifi_BLE_SDK/GD32VW55x_RELEASE_V1.0.2/MSDK/lwip/libcoap-4.3.4/src\coap_netif.c ****     coap_log_debug("*  %s: netif: failed to send %zd bytes (%s) state %d\n",
 441              		.loc 1 139 5 is_stmt 1
 442              		.loc 1 139 5
 443 0062 97000000 		call	coap_get_log_level
 443      E7800000 
 444              	.LVL44:
 445 006a 9947     		li	a5,6
 446 006c 63D9A702 		ble	a0,a5,.L27
 447              		.loc 1 139 5 discriminator 1
 448 0070 2285     		mv	a0,s0
 449 0072 97000000 		call	coap_session_str
 449      E7800000 
 450              	.LVL45:
 451 007a 2AC6     		sw	a0,12(sp)
 452 007c 97000000 		call	coap_socket_strerror
 452      E7800000 
 453              	.LVL46:
 454 0084 1C44     		lw	a5,8(s0)
 455 0086 3246     		lw	a2,12(sp)
 456 0088 B7050000 		lui	a1,%hi(.LC5)
 457 008c 2A87     		mv	a4,a0
 458 008e CA86     		mv	a3,s2
 459 0090 93850500 		addi	a1,a1,%lo(.LC5)
 460 0094 1D45     		li	a0,7
 461 0096 97000000 		call	coap_log_impl
 461      E7800000 
 462              	.LVL47:
 463              	.L27:
 464              		.loc 1 139 5 discriminator 3
 140:C:/Users/stapi/OneDrive/Desktop/GD32VW553/GD32VW55X_Wifi_BLE_SDK/GD32VW55x_RELEASE_V1.0.2/MSDK/lwip/libcoap-4.3.4/src\coap_netif.c ****                    coap_session_str(session), datalen,
 141:C:/Users/stapi/OneDrive/Desktop/GD32VW553/GD32VW55X_Wifi_BLE_SDK/GD32VW55x_RELEASE_V1.0.2/MSDK/lwip/libcoap-4.3.4/src\coap_netif.c ****                    coap_socket_strerror(), session->state);
 142:C:/Users/stapi/OneDrive/Desktop/GD32VW553/GD32VW55X_Wifi_BLE_SDK/GD32VW55x_RELEASE_V1.0.2/MSDK/lwip/libcoap-4.3.4/src\coap_netif.c ****     errno = keep_errno;
 465              		.loc 1 142 5 discriminator 3
 466              		.loc 1 142 11 is_stmt 0 discriminator 3
 467 009e 23A04901 		sw	s4,%lo(errno)(s3)
 468              	.L22:
 143:C:/Users/stapi/OneDrive/Desktop/GD32VW553/GD32VW55X_Wifi_BLE_SDK/GD32VW55x_RELEASE_V1.0.2/MSDK/lwip/libcoap-4.3.4/src\coap_netif.c ****   } else {
 144:C:/Users/stapi/OneDrive/Desktop/GD32VW553/GD32VW55X_Wifi_BLE_SDK/GD32VW55x_RELEASE_V1.0.2/MSDK/lwip/libcoap-4.3.4/src\coap_netif.c ****     coap_ticks(&session->last_rx_tx);
 145:C:/Users/stapi/OneDrive/Desktop/GD32VW553/GD32VW55X_Wifi_BLE_SDK/GD32VW55x_RELEASE_V1.0.2/MSDK/lwip/libcoap-4.3.4/src\coap_netif.c ****     if (bytes_written == (ssize_t)datalen)
 146:C:/Users/stapi/OneDrive/Desktop/GD32VW553/GD32VW55X_Wifi_BLE_SDK/GD32VW55x_RELEASE_V1.0.2/MSDK/lwip/libcoap-4.3.4/src\coap_netif.c ****       coap_log_debug("*  %s: netif: sent %4zd bytes\n",
 147:C:/Users/stapi/OneDrive/Desktop/GD32VW553/GD32VW55X_Wifi_BLE_SDK/GD32VW55x_RELEASE_V1.0.2/MSDK/lwip/libcoap-4.3.4/src\coap_netif.c ****                      coap_session_str(session), bytes_written);
 148:C:/Users/stapi/OneDrive/Desktop/GD32VW553/GD32VW55X_Wifi_BLE_SDK/GD32VW55x_RELEASE_V1.0.2/MSDK/lwip/libcoap-4.3.4/src\coap_netif.c ****     else
 149:C:/Users/stapi/OneDrive/Desktop/GD32VW553/GD32VW55X_Wifi_BLE_SDK/GD32VW55x_RELEASE_V1.0.2/MSDK/lwip/libcoap-4.3.4/src\coap_netif.c ****       coap_log_debug("*  %s: netif: sent %4zd of %4zd bytes\n",
 150:C:/Users/stapi/OneDrive/Desktop/GD32VW553/GD32VW55X_Wifi_BLE_SDK/GD32VW55x_RELEASE_V1.0.2/MSDK/lwip/libcoap-4.3.4/src\coap_netif.c ****                      coap_session_str(session), bytes_written, datalen);
 151:C:/Users/stapi/OneDrive/Desktop/GD32VW553/GD32VW55X_Wifi_BLE_SDK/GD32VW55x_RELEASE_V1.0.2/MSDK/lwip/libcoap-4.3.4/src\coap_netif.c ****   }
 152:C:/Users/stapi/OneDrive/Desktop/GD32VW553/GD32VW55X_Wifi_BLE_SDK/GD32VW55x_RELEASE_V1.0.2/MSDK/lwip/libcoap-4.3.4/src\coap_netif.c ****   return bytes_written;
 153:C:/Users/stapi/OneDrive/Desktop/GD32VW553/GD32VW55X_Wifi_BLE_SDK/GD32VW55x_RELEASE_V1.0.2/MSDK/lwip/libcoap-4.3.4/src\coap_netif.c **** }
 469              		.loc 1 153 1
 470 00a2 2685     		mv	a0,s1
 471 00a4 4101     		addi	sp,sp,16
 472              		.cfi_remember_state
 473              		.cfi_def_cfa_offset 0
 474 00a6 17030000 		tail	__riscv_restore_5
 474      67000300 
 475              		.cfi_restore 20
 476              		.cfi_restore 19
 477              		.cfi_restore 18
 478              		.cfi_restore 9
 479              		.cfi_restore 8
 480              		.cfi_restore 1
 481              		.cfi_def_cfa_offset -32
 482              	.LVL48:
 483              	.L26:
 484              		.cfi_restore_state
 144:C:/Users/stapi/OneDrive/Desktop/GD32VW553/GD32VW55X_Wifi_BLE_SDK/GD32VW55x_RELEASE_V1.0.2/MSDK/lwip/libcoap-4.3.4/src\coap_netif.c ****     if (bytes_written == (ssize_t)datalen)
 485              		.loc 1 144 5 is_stmt 1
 486              	.LBB10:
 487              	.LBB11:
 488              		.loc 2 41 3
 489              		.loc 2 41 8 is_stmt 0
 490 00ae 97000000 		call	sys_now
 490      E7800000 
 491              	.LVL49:
 492              		.loc 2 41 6
 493 00b6 2320A40E 		sw	a0,224(s0)
 494              	.LVL50:
 495              	.LBE11:
 496              	.LBE10:
 145:C:/Users/stapi/OneDrive/Desktop/GD32VW553/GD32VW55X_Wifi_BLE_SDK/GD32VW55x_RELEASE_V1.0.2/MSDK/lwip/libcoap-4.3.4/src\coap_netif.c ****       coap_log_debug("*  %s: netif: sent %4zd bytes\n",
 497              		.loc 1 145 5 is_stmt 1
 145:C:/Users/stapi/OneDrive/Desktop/GD32VW553/GD32VW55X_Wifi_BLE_SDK/GD32VW55x_RELEASE_V1.0.2/MSDK/lwip/libcoap-4.3.4/src\coap_netif.c ****       coap_log_debug("*  %s: netif: sent %4zd bytes\n",
 498              		.loc 1 145 8 is_stmt 0
 499 00ba 631A9902 		bne	s2,s1,.L29
 146:C:/Users/stapi/OneDrive/Desktop/GD32VW553/GD32VW55X_Wifi_BLE_SDK/GD32VW55x_RELEASE_V1.0.2/MSDK/lwip/libcoap-4.3.4/src\coap_netif.c ****                      coap_session_str(session), bytes_written);
 500              		.loc 1 146 7 is_stmt 1
 146:C:/Users/stapi/OneDrive/Desktop/GD32VW553/GD32VW55X_Wifi_BLE_SDK/GD32VW55x_RELEASE_V1.0.2/MSDK/lwip/libcoap-4.3.4/src\coap_netif.c ****                      coap_session_str(session), bytes_written);
 501              		.loc 1 146 7
 502 00be 97000000 		call	coap_get_log_level
 502      E7800000 
 503              	.LVL51:
 504 00c6 9947     		li	a5,6
 505 00c8 E3DDA7FC 		ble	a0,a5,.L22
 146:C:/Users/stapi/OneDrive/Desktop/GD32VW553/GD32VW55X_Wifi_BLE_SDK/GD32VW55x_RELEASE_V1.0.2/MSDK/lwip/libcoap-4.3.4/src\coap_netif.c ****                      coap_session_str(session), bytes_written);
 506              		.loc 1 146 7 discriminator 1
 507 00cc 2285     		mv	a0,s0
 508 00ce 97000000 		call	coap_session_str
 508      E7800000 
 509              	.LVL52:
 510 00d6 B7050000 		lui	a1,%hi(.LC6)
 511 00da 2A86     		mv	a2,a0
 512 00dc A686     		mv	a3,s1
 513 00de 93850500 		addi	a1,a1,%lo(.LC6)
 514 00e2 1D45     		li	a0,7
 515 00e4 97000000 		call	coap_log_impl
 515      E7800000 
 516              	.LVL53:
 517 00ec 5DBF     		j	.L22
 518              	.L29:
 149:C:/Users/stapi/OneDrive/Desktop/GD32VW553/GD32VW55X_Wifi_BLE_SDK/GD32VW55x_RELEASE_V1.0.2/MSDK/lwip/libcoap-4.3.4/src\coap_netif.c ****                      coap_session_str(session), bytes_written, datalen);
 519              		.loc 1 149 7
 149:C:/Users/stapi/OneDrive/Desktop/GD32VW553/GD32VW55X_Wifi_BLE_SDK/GD32VW55x_RELEASE_V1.0.2/MSDK/lwip/libcoap-4.3.4/src\coap_netif.c ****                      coap_session_str(session), bytes_written, datalen);
 520              		.loc 1 149 7
 521 00ee 97000000 		call	coap_get_log_level
 521      E7800000 
 522              	.LVL54:
 523 00f6 9947     		li	a5,6
 524 00f8 E3D5A7FA 		ble	a0,a5,.L22
 149:C:/Users/stapi/OneDrive/Desktop/GD32VW553/GD32VW55X_Wifi_BLE_SDK/GD32VW55x_RELEASE_V1.0.2/MSDK/lwip/libcoap-4.3.4/src\coap_netif.c ****                      coap_session_str(session), bytes_written, datalen);
 525              		.loc 1 149 7 discriminator 1
 526 00fc 2285     		mv	a0,s0
 527 00fe 97000000 		call	coap_session_str
 527      E7800000 
 528              	.LVL55:
 529 0106 B7050000 		lui	a1,%hi(.LC7)
 530 010a 2A86     		mv	a2,a0
 531 010c 4A87     		mv	a4,s2
 532 010e A686     		mv	a3,s1
 533 0110 93850500 		addi	a1,a1,%lo(.LC7)
 534 0114 1D45     		li	a0,7
 535 0116 97000000 		call	coap_log_impl
 535      E7800000 
 536              	.LVL56:
 149:C:/Users/stapi/OneDrive/Desktop/GD32VW553/GD32VW55X_Wifi_BLE_SDK/GD32VW55x_RELEASE_V1.0.2/MSDK/lwip/libcoap-4.3.4/src\coap_netif.c ****                      coap_session_str(session), bytes_written, datalen);
 537              		.loc 1 149 7 discriminator 1
 152:C:/Users/stapi/OneDrive/Desktop/GD32VW553/GD32VW55X_Wifi_BLE_SDK/GD32VW55x_RELEASE_V1.0.2/MSDK/lwip/libcoap-4.3.4/src\coap_netif.c **** }
 538              		.loc 1 152 3 discriminator 1
 152:C:/Users/stapi/OneDrive/Desktop/GD32VW553/GD32VW55X_Wifi_BLE_SDK/GD32VW55x_RELEASE_V1.0.2/MSDK/lwip/libcoap-4.3.4/src\coap_netif.c **** }
 539              		.loc 1 152 10 is_stmt 0 discriminator 1
 540 011e 51B7     		j	.L22
 541              		.cfi_endproc
 542              	.LFE37:
 544              		.section	.text.coap_netif_close,"ax",@progbits
 545              		.align	1
 546              		.globl	coap_netif_close
 548              	coap_netif_close:
 549              	.LFB38:
 154:C:/Users/stapi/OneDrive/Desktop/GD32VW553/GD32VW55X_Wifi_BLE_SDK/GD32VW55x_RELEASE_V1.0.2/MSDK/lwip/libcoap-4.3.4/src\coap_netif.c **** 
 155:C:/Users/stapi/OneDrive/Desktop/GD32VW553/GD32VW55X_Wifi_BLE_SDK/GD32VW55x_RELEASE_V1.0.2/MSDK/lwip/libcoap-4.3.4/src\coap_netif.c **** #if !COAP_DISABLE_TCP
 156:C:/Users/stapi/OneDrive/Desktop/GD32VW553/GD32VW55X_Wifi_BLE_SDK/GD32VW55x_RELEASE_V1.0.2/MSDK/lwip/libcoap-4.3.4/src\coap_netif.c **** #if COAP_SERVER_SUPPORT
 157:C:/Users/stapi/OneDrive/Desktop/GD32VW553/GD32VW55X_Wifi_BLE_SDK/GD32VW55x_RELEASE_V1.0.2/MSDK/lwip/libcoap-4.3.4/src\coap_netif.c **** int
 158:C:/Users/stapi/OneDrive/Desktop/GD32VW553/GD32VW55X_Wifi_BLE_SDK/GD32VW55x_RELEASE_V1.0.2/MSDK/lwip/libcoap-4.3.4/src\coap_netif.c **** coap_netif_strm_listen(coap_endpoint_t *endpoint,
 159:C:/Users/stapi/OneDrive/Desktop/GD32VW553/GD32VW55X_Wifi_BLE_SDK/GD32VW55x_RELEASE_V1.0.2/MSDK/lwip/libcoap-4.3.4/src\coap_netif.c ****                        const coap_address_t *listen_addr) {
 160:C:/Users/stapi/OneDrive/Desktop/GD32VW553/GD32VW55X_Wifi_BLE_SDK/GD32VW55x_RELEASE_V1.0.2/MSDK/lwip/libcoap-4.3.4/src\coap_netif.c ****   if (!coap_socket_bind_tcp(&endpoint->sock, listen_addr,
 161:C:/Users/stapi/OneDrive/Desktop/GD32VW553/GD32VW55X_Wifi_BLE_SDK/GD32VW55x_RELEASE_V1.0.2/MSDK/lwip/libcoap-4.3.4/src\coap_netif.c ****                             &endpoint->bind_addr)) {
 162:C:/Users/stapi/OneDrive/Desktop/GD32VW553/GD32VW55X_Wifi_BLE_SDK/GD32VW55x_RELEASE_V1.0.2/MSDK/lwip/libcoap-4.3.4/src\coap_netif.c ****     return 0;
 163:C:/Users/stapi/OneDrive/Desktop/GD32VW553/GD32VW55X_Wifi_BLE_SDK/GD32VW55x_RELEASE_V1.0.2/MSDK/lwip/libcoap-4.3.4/src\coap_netif.c ****   }
 164:C:/Users/stapi/OneDrive/Desktop/GD32VW553/GD32VW55X_Wifi_BLE_SDK/GD32VW55x_RELEASE_V1.0.2/MSDK/lwip/libcoap-4.3.4/src\coap_netif.c ****   endpoint->sock.flags |= COAP_SOCKET_NOT_EMPTY | COAP_SOCKET_BOUND |
 165:C:/Users/stapi/OneDrive/Desktop/GD32VW553/GD32VW55X_Wifi_BLE_SDK/GD32VW55x_RELEASE_V1.0.2/MSDK/lwip/libcoap-4.3.4/src\coap_netif.c ****                           COAP_SOCKET_WANT_ACCEPT;
 166:C:/Users/stapi/OneDrive/Desktop/GD32VW553/GD32VW55X_Wifi_BLE_SDK/GD32VW55x_RELEASE_V1.0.2/MSDK/lwip/libcoap-4.3.4/src\coap_netif.c ****   return 1;
 167:C:/Users/stapi/OneDrive/Desktop/GD32VW553/GD32VW55X_Wifi_BLE_SDK/GD32VW55x_RELEASE_V1.0.2/MSDK/lwip/libcoap-4.3.4/src\coap_netif.c **** }
 168:C:/Users/stapi/OneDrive/Desktop/GD32VW553/GD32VW55X_Wifi_BLE_SDK/GD32VW55x_RELEASE_V1.0.2/MSDK/lwip/libcoap-4.3.4/src\coap_netif.c **** 
 169:C:/Users/stapi/OneDrive/Desktop/GD32VW553/GD32VW55X_Wifi_BLE_SDK/GD32VW55x_RELEASE_V1.0.2/MSDK/lwip/libcoap-4.3.4/src\coap_netif.c **** int
 170:C:/Users/stapi/OneDrive/Desktop/GD32VW553/GD32VW55X_Wifi_BLE_SDK/GD32VW55x_RELEASE_V1.0.2/MSDK/lwip/libcoap-4.3.4/src\coap_netif.c **** coap_netif_strm_accept(coap_endpoint_t *endpoint, coap_session_t *session) {
 171:C:/Users/stapi/OneDrive/Desktop/GD32VW553/GD32VW55X_Wifi_BLE_SDK/GD32VW55x_RELEASE_V1.0.2/MSDK/lwip/libcoap-4.3.4/src\coap_netif.c ****   if (!coap_socket_accept_tcp(&endpoint->sock, &session->sock,
 172:C:/Users/stapi/OneDrive/Desktop/GD32VW553/GD32VW55X_Wifi_BLE_SDK/GD32VW55x_RELEASE_V1.0.2/MSDK/lwip/libcoap-4.3.4/src\coap_netif.c ****                               &session->addr_info.local,
 173:C:/Users/stapi/OneDrive/Desktop/GD32VW553/GD32VW55X_Wifi_BLE_SDK/GD32VW55x_RELEASE_V1.0.2/MSDK/lwip/libcoap-4.3.4/src\coap_netif.c ****                               &session->addr_info.remote)) {
 174:C:/Users/stapi/OneDrive/Desktop/GD32VW553/GD32VW55X_Wifi_BLE_SDK/GD32VW55x_RELEASE_V1.0.2/MSDK/lwip/libcoap-4.3.4/src\coap_netif.c ****     return 0;
 175:C:/Users/stapi/OneDrive/Desktop/GD32VW553/GD32VW55X_Wifi_BLE_SDK/GD32VW55x_RELEASE_V1.0.2/MSDK/lwip/libcoap-4.3.4/src\coap_netif.c ****   }
 176:C:/Users/stapi/OneDrive/Desktop/GD32VW553/GD32VW55X_Wifi_BLE_SDK/GD32VW55x_RELEASE_V1.0.2/MSDK/lwip/libcoap-4.3.4/src\coap_netif.c ****   session->sock.flags |= COAP_SOCKET_NOT_EMPTY | COAP_SOCKET_CONNECTED |
 177:C:/Users/stapi/OneDrive/Desktop/GD32VW553/GD32VW55X_Wifi_BLE_SDK/GD32VW55x_RELEASE_V1.0.2/MSDK/lwip/libcoap-4.3.4/src\coap_netif.c ****                          COAP_SOCKET_WANT_READ;
 178:C:/Users/stapi/OneDrive/Desktop/GD32VW553/GD32VW55X_Wifi_BLE_SDK/GD32VW55x_RELEASE_V1.0.2/MSDK/lwip/libcoap-4.3.4/src\coap_netif.c ****   return 1;
 179:C:/Users/stapi/OneDrive/Desktop/GD32VW553/GD32VW55X_Wifi_BLE_SDK/GD32VW55x_RELEASE_V1.0.2/MSDK/lwip/libcoap-4.3.4/src\coap_netif.c **** }
 180:C:/Users/stapi/OneDrive/Desktop/GD32VW553/GD32VW55X_Wifi_BLE_SDK/GD32VW55x_RELEASE_V1.0.2/MSDK/lwip/libcoap-4.3.4/src\coap_netif.c **** #endif /* COAP_SERVER_SUPPORT */
 181:C:/Users/stapi/OneDrive/Desktop/GD32VW553/GD32VW55X_Wifi_BLE_SDK/GD32VW55x_RELEASE_V1.0.2/MSDK/lwip/libcoap-4.3.4/src\coap_netif.c **** 
 182:C:/Users/stapi/OneDrive/Desktop/GD32VW553/GD32VW55X_Wifi_BLE_SDK/GD32VW55x_RELEASE_V1.0.2/MSDK/lwip/libcoap-4.3.4/src\coap_netif.c **** #if COAP_CLIENT_SUPPORT
 183:C:/Users/stapi/OneDrive/Desktop/GD32VW553/GD32VW55X_Wifi_BLE_SDK/GD32VW55x_RELEASE_V1.0.2/MSDK/lwip/libcoap-4.3.4/src\coap_netif.c **** int
 184:C:/Users/stapi/OneDrive/Desktop/GD32VW553/GD32VW55X_Wifi_BLE_SDK/GD32VW55x_RELEASE_V1.0.2/MSDK/lwip/libcoap-4.3.4/src\coap_netif.c **** coap_netif_strm_connect1(coap_session_t *session,
 185:C:/Users/stapi/OneDrive/Desktop/GD32VW553/GD32VW55X_Wifi_BLE_SDK/GD32VW55x_RELEASE_V1.0.2/MSDK/lwip/libcoap-4.3.4/src\coap_netif.c ****                          const coap_address_t *local_if,
 186:C:/Users/stapi/OneDrive/Desktop/GD32VW553/GD32VW55X_Wifi_BLE_SDK/GD32VW55x_RELEASE_V1.0.2/MSDK/lwip/libcoap-4.3.4/src\coap_netif.c ****                          const coap_address_t *server, int default_port) {
 187:C:/Users/stapi/OneDrive/Desktop/GD32VW553/GD32VW55X_Wifi_BLE_SDK/GD32VW55x_RELEASE_V1.0.2/MSDK/lwip/libcoap-4.3.4/src\coap_netif.c ****   if (!coap_socket_connect_tcp1(&session->sock, local_if, server,
 188:C:/Users/stapi/OneDrive/Desktop/GD32VW553/GD32VW55X_Wifi_BLE_SDK/GD32VW55x_RELEASE_V1.0.2/MSDK/lwip/libcoap-4.3.4/src\coap_netif.c ****                                 default_port,
 189:C:/Users/stapi/OneDrive/Desktop/GD32VW553/GD32VW55X_Wifi_BLE_SDK/GD32VW55x_RELEASE_V1.0.2/MSDK/lwip/libcoap-4.3.4/src\coap_netif.c ****                                 &session->addr_info.local,
 190:C:/Users/stapi/OneDrive/Desktop/GD32VW553/GD32VW55X_Wifi_BLE_SDK/GD32VW55x_RELEASE_V1.0.2/MSDK/lwip/libcoap-4.3.4/src\coap_netif.c ****                                 &session->addr_info.remote)) {
 191:C:/Users/stapi/OneDrive/Desktop/GD32VW553/GD32VW55X_Wifi_BLE_SDK/GD32VW55x_RELEASE_V1.0.2/MSDK/lwip/libcoap-4.3.4/src\coap_netif.c ****     return 0;
 192:C:/Users/stapi/OneDrive/Desktop/GD32VW553/GD32VW55X_Wifi_BLE_SDK/GD32VW55x_RELEASE_V1.0.2/MSDK/lwip/libcoap-4.3.4/src\coap_netif.c ****   }
 193:C:/Users/stapi/OneDrive/Desktop/GD32VW553/GD32VW55X_Wifi_BLE_SDK/GD32VW55x_RELEASE_V1.0.2/MSDK/lwip/libcoap-4.3.4/src\coap_netif.c ****   return 1;
 194:C:/Users/stapi/OneDrive/Desktop/GD32VW553/GD32VW55X_Wifi_BLE_SDK/GD32VW55x_RELEASE_V1.0.2/MSDK/lwip/libcoap-4.3.4/src\coap_netif.c **** }
 195:C:/Users/stapi/OneDrive/Desktop/GD32VW553/GD32VW55X_Wifi_BLE_SDK/GD32VW55x_RELEASE_V1.0.2/MSDK/lwip/libcoap-4.3.4/src\coap_netif.c **** 
 196:C:/Users/stapi/OneDrive/Desktop/GD32VW553/GD32VW55X_Wifi_BLE_SDK/GD32VW55x_RELEASE_V1.0.2/MSDK/lwip/libcoap-4.3.4/src\coap_netif.c **** int
 197:C:/Users/stapi/OneDrive/Desktop/GD32VW553/GD32VW55X_Wifi_BLE_SDK/GD32VW55x_RELEASE_V1.0.2/MSDK/lwip/libcoap-4.3.4/src\coap_netif.c **** coap_netif_strm_connect2(coap_session_t *session) {
 198:C:/Users/stapi/OneDrive/Desktop/GD32VW553/GD32VW55X_Wifi_BLE_SDK/GD32VW55x_RELEASE_V1.0.2/MSDK/lwip/libcoap-4.3.4/src\coap_netif.c ****   if (!coap_socket_connect_tcp2(&session->sock,
 199:C:/Users/stapi/OneDrive/Desktop/GD32VW553/GD32VW55X_Wifi_BLE_SDK/GD32VW55x_RELEASE_V1.0.2/MSDK/lwip/libcoap-4.3.4/src\coap_netif.c ****                                 &session->addr_info.local,
 200:C:/Users/stapi/OneDrive/Desktop/GD32VW553/GD32VW55X_Wifi_BLE_SDK/GD32VW55x_RELEASE_V1.0.2/MSDK/lwip/libcoap-4.3.4/src\coap_netif.c ****                                 &session->addr_info.remote)) {
 201:C:/Users/stapi/OneDrive/Desktop/GD32VW553/GD32VW55X_Wifi_BLE_SDK/GD32VW55x_RELEASE_V1.0.2/MSDK/lwip/libcoap-4.3.4/src\coap_netif.c ****     return 0;
 202:C:/Users/stapi/OneDrive/Desktop/GD32VW553/GD32VW55X_Wifi_BLE_SDK/GD32VW55x_RELEASE_V1.0.2/MSDK/lwip/libcoap-4.3.4/src\coap_netif.c ****   }
 203:C:/Users/stapi/OneDrive/Desktop/GD32VW553/GD32VW55X_Wifi_BLE_SDK/GD32VW55x_RELEASE_V1.0.2/MSDK/lwip/libcoap-4.3.4/src\coap_netif.c ****   return 1;
 204:C:/Users/stapi/OneDrive/Desktop/GD32VW553/GD32VW55X_Wifi_BLE_SDK/GD32VW55x_RELEASE_V1.0.2/MSDK/lwip/libcoap-4.3.4/src\coap_netif.c **** }
 205:C:/Users/stapi/OneDrive/Desktop/GD32VW553/GD32VW55X_Wifi_BLE_SDK/GD32VW55x_RELEASE_V1.0.2/MSDK/lwip/libcoap-4.3.4/src\coap_netif.c **** #endif /* COAP_CLIENT_SUPPORT */
 206:C:/Users/stapi/OneDrive/Desktop/GD32VW553/GD32VW55X_Wifi_BLE_SDK/GD32VW55x_RELEASE_V1.0.2/MSDK/lwip/libcoap-4.3.4/src\coap_netif.c **** 
 207:C:/Users/stapi/OneDrive/Desktop/GD32VW553/GD32VW55X_Wifi_BLE_SDK/GD32VW55x_RELEASE_V1.0.2/MSDK/lwip/libcoap-4.3.4/src\coap_netif.c **** /*
 208:C:/Users/stapi/OneDrive/Desktop/GD32VW553/GD32VW55X_Wifi_BLE_SDK/GD32VW55x_RELEASE_V1.0.2/MSDK/lwip/libcoap-4.3.4/src\coap_netif.c ****  * strm
 209:C:/Users/stapi/OneDrive/Desktop/GD32VW553/GD32VW55X_Wifi_BLE_SDK/GD32VW55x_RELEASE_V1.0.2/MSDK/lwip/libcoap-4.3.4/src\coap_netif.c ****  * return >=0 Number of bytes read.
 210:C:/Users/stapi/OneDrive/Desktop/GD32VW553/GD32VW55X_Wifi_BLE_SDK/GD32VW55x_RELEASE_V1.0.2/MSDK/lwip/libcoap-4.3.4/src\coap_netif.c ****  *         -1 Error (error in errno).
 211:C:/Users/stapi/OneDrive/Desktop/GD32VW553/GD32VW55X_Wifi_BLE_SDK/GD32VW55x_RELEASE_V1.0.2/MSDK/lwip/libcoap-4.3.4/src\coap_netif.c ****  */
 212:C:/Users/stapi/OneDrive/Desktop/GD32VW553/GD32VW55X_Wifi_BLE_SDK/GD32VW55x_RELEASE_V1.0.2/MSDK/lwip/libcoap-4.3.4/src\coap_netif.c **** ssize_t
 213:C:/Users/stapi/OneDrive/Desktop/GD32VW553/GD32VW55X_Wifi_BLE_SDK/GD32VW55x_RELEASE_V1.0.2/MSDK/lwip/libcoap-4.3.4/src\coap_netif.c **** coap_netif_strm_read(coap_session_t *session, uint8_t *data, size_t datalen) {
 214:C:/Users/stapi/OneDrive/Desktop/GD32VW553/GD32VW55X_Wifi_BLE_SDK/GD32VW55x_RELEASE_V1.0.2/MSDK/lwip/libcoap-4.3.4/src\coap_netif.c ****   ssize_t bytes_read = coap_socket_read(&session->sock, data, datalen);
 215:C:/Users/stapi/OneDrive/Desktop/GD32VW553/GD32VW55X_Wifi_BLE_SDK/GD32VW55x_RELEASE_V1.0.2/MSDK/lwip/libcoap-4.3.4/src\coap_netif.c ****   int keep_errno = errno;
 216:C:/Users/stapi/OneDrive/Desktop/GD32VW553/GD32VW55X_Wifi_BLE_SDK/GD32VW55x_RELEASE_V1.0.2/MSDK/lwip/libcoap-4.3.4/src\coap_netif.c **** 
 217:C:/Users/stapi/OneDrive/Desktop/GD32VW553/GD32VW55X_Wifi_BLE_SDK/GD32VW55x_RELEASE_V1.0.2/MSDK/lwip/libcoap-4.3.4/src\coap_netif.c ****   if (bytes_read >= 0) {
 218:C:/Users/stapi/OneDrive/Desktop/GD32VW553/GD32VW55X_Wifi_BLE_SDK/GD32VW55x_RELEASE_V1.0.2/MSDK/lwip/libcoap-4.3.4/src\coap_netif.c ****     coap_log_debug("*  %s: netif: recv %4zd bytes\n",
 219:C:/Users/stapi/OneDrive/Desktop/GD32VW553/GD32VW55X_Wifi_BLE_SDK/GD32VW55x_RELEASE_V1.0.2/MSDK/lwip/libcoap-4.3.4/src\coap_netif.c ****                    coap_session_str(session), bytes_read);
 220:C:/Users/stapi/OneDrive/Desktop/GD32VW553/GD32VW55X_Wifi_BLE_SDK/GD32VW55x_RELEASE_V1.0.2/MSDK/lwip/libcoap-4.3.4/src\coap_netif.c ****   } else if (bytes_read == -1 && errno != EAGAIN) {
 221:C:/Users/stapi/OneDrive/Desktop/GD32VW553/GD32VW55X_Wifi_BLE_SDK/GD32VW55x_RELEASE_V1.0.2/MSDK/lwip/libcoap-4.3.4/src\coap_netif.c ****     coap_log_debug("*  %s: netif: failed to receive any bytes (%s) state %d\n",
 222:C:/Users/stapi/OneDrive/Desktop/GD32VW553/GD32VW55X_Wifi_BLE_SDK/GD32VW55x_RELEASE_V1.0.2/MSDK/lwip/libcoap-4.3.4/src\coap_netif.c ****                    coap_session_str(session), coap_socket_strerror(), session->state);
 223:C:/Users/stapi/OneDrive/Desktop/GD32VW553/GD32VW55X_Wifi_BLE_SDK/GD32VW55x_RELEASE_V1.0.2/MSDK/lwip/libcoap-4.3.4/src\coap_netif.c ****     errno = keep_errno;
 224:C:/Users/stapi/OneDrive/Desktop/GD32VW553/GD32VW55X_Wifi_BLE_SDK/GD32VW55x_RELEASE_V1.0.2/MSDK/lwip/libcoap-4.3.4/src\coap_netif.c ****   }
 225:C:/Users/stapi/OneDrive/Desktop/GD32VW553/GD32VW55X_Wifi_BLE_SDK/GD32VW55x_RELEASE_V1.0.2/MSDK/lwip/libcoap-4.3.4/src\coap_netif.c ****   return bytes_read;
 226:C:/Users/stapi/OneDrive/Desktop/GD32VW553/GD32VW55X_Wifi_BLE_SDK/GD32VW55x_RELEASE_V1.0.2/MSDK/lwip/libcoap-4.3.4/src\coap_netif.c **** }
 227:C:/Users/stapi/OneDrive/Desktop/GD32VW553/GD32VW55X_Wifi_BLE_SDK/GD32VW55x_RELEASE_V1.0.2/MSDK/lwip/libcoap-4.3.4/src\coap_netif.c **** 
 228:C:/Users/stapi/OneDrive/Desktop/GD32VW553/GD32VW55X_Wifi_BLE_SDK/GD32VW55x_RELEASE_V1.0.2/MSDK/lwip/libcoap-4.3.4/src\coap_netif.c **** /*
 229:C:/Users/stapi/OneDrive/Desktop/GD32VW553/GD32VW55X_Wifi_BLE_SDK/GD32VW55x_RELEASE_V1.0.2/MSDK/lwip/libcoap-4.3.4/src\coap_netif.c ****  * strm
 230:C:/Users/stapi/OneDrive/Desktop/GD32VW553/GD32VW55X_Wifi_BLE_SDK/GD32VW55x_RELEASE_V1.0.2/MSDK/lwip/libcoap-4.3.4/src\coap_netif.c ****  * return +ve Number of bytes written.
 231:C:/Users/stapi/OneDrive/Desktop/GD32VW553/GD32VW55X_Wifi_BLE_SDK/GD32VW55x_RELEASE_V1.0.2/MSDK/lwip/libcoap-4.3.4/src\coap_netif.c ****  *         -1 Error (error in errno).
 232:C:/Users/stapi/OneDrive/Desktop/GD32VW553/GD32VW55X_Wifi_BLE_SDK/GD32VW55x_RELEASE_V1.0.2/MSDK/lwip/libcoap-4.3.4/src\coap_netif.c ****  */
 233:C:/Users/stapi/OneDrive/Desktop/GD32VW553/GD32VW55X_Wifi_BLE_SDK/GD32VW55x_RELEASE_V1.0.2/MSDK/lwip/libcoap-4.3.4/src\coap_netif.c **** ssize_t
 234:C:/Users/stapi/OneDrive/Desktop/GD32VW553/GD32VW55X_Wifi_BLE_SDK/GD32VW55x_RELEASE_V1.0.2/MSDK/lwip/libcoap-4.3.4/src\coap_netif.c **** coap_netif_strm_write(coap_session_t *session, const uint8_t *data,
 235:C:/Users/stapi/OneDrive/Desktop/GD32VW553/GD32VW55X_Wifi_BLE_SDK/GD32VW55x_RELEASE_V1.0.2/MSDK/lwip/libcoap-4.3.4/src\coap_netif.c ****                       size_t datalen) {
 236:C:/Users/stapi/OneDrive/Desktop/GD32VW553/GD32VW55X_Wifi_BLE_SDK/GD32VW55x_RELEASE_V1.0.2/MSDK/lwip/libcoap-4.3.4/src\coap_netif.c ****   ssize_t bytes_written = coap_socket_write(&session->sock, data, datalen);
 237:C:/Users/stapi/OneDrive/Desktop/GD32VW553/GD32VW55X_Wifi_BLE_SDK/GD32VW55x_RELEASE_V1.0.2/MSDK/lwip/libcoap-4.3.4/src\coap_netif.c ****   int keep_errno = errno;
 238:C:/Users/stapi/OneDrive/Desktop/GD32VW553/GD32VW55X_Wifi_BLE_SDK/GD32VW55x_RELEASE_V1.0.2/MSDK/lwip/libcoap-4.3.4/src\coap_netif.c **** 
 239:C:/Users/stapi/OneDrive/Desktop/GD32VW553/GD32VW55X_Wifi_BLE_SDK/GD32VW55x_RELEASE_V1.0.2/MSDK/lwip/libcoap-4.3.4/src\coap_netif.c ****   if (bytes_written <= 0) {
 240:C:/Users/stapi/OneDrive/Desktop/GD32VW553/GD32VW55X_Wifi_BLE_SDK/GD32VW55x_RELEASE_V1.0.2/MSDK/lwip/libcoap-4.3.4/src\coap_netif.c ****     coap_log_debug("*  %s: netif: failed to send %zd bytes (%s) state %d\n",
 241:C:/Users/stapi/OneDrive/Desktop/GD32VW553/GD32VW55X_Wifi_BLE_SDK/GD32VW55x_RELEASE_V1.0.2/MSDK/lwip/libcoap-4.3.4/src\coap_netif.c ****                    coap_session_str(session), datalen,
 242:C:/Users/stapi/OneDrive/Desktop/GD32VW553/GD32VW55X_Wifi_BLE_SDK/GD32VW55x_RELEASE_V1.0.2/MSDK/lwip/libcoap-4.3.4/src\coap_netif.c ****                    coap_socket_strerror(), session->state);
 243:C:/Users/stapi/OneDrive/Desktop/GD32VW553/GD32VW55X_Wifi_BLE_SDK/GD32VW55x_RELEASE_V1.0.2/MSDK/lwip/libcoap-4.3.4/src\coap_netif.c ****     errno = keep_errno;
 244:C:/Users/stapi/OneDrive/Desktop/GD32VW553/GD32VW55X_Wifi_BLE_SDK/GD32VW55x_RELEASE_V1.0.2/MSDK/lwip/libcoap-4.3.4/src\coap_netif.c ****   } else {
 245:C:/Users/stapi/OneDrive/Desktop/GD32VW553/GD32VW55X_Wifi_BLE_SDK/GD32VW55x_RELEASE_V1.0.2/MSDK/lwip/libcoap-4.3.4/src\coap_netif.c ****     coap_ticks(&session->last_rx_tx);
 246:C:/Users/stapi/OneDrive/Desktop/GD32VW553/GD32VW55X_Wifi_BLE_SDK/GD32VW55x_RELEASE_V1.0.2/MSDK/lwip/libcoap-4.3.4/src\coap_netif.c ****     if (bytes_written == (ssize_t)datalen)
 247:C:/Users/stapi/OneDrive/Desktop/GD32VW553/GD32VW55X_Wifi_BLE_SDK/GD32VW55x_RELEASE_V1.0.2/MSDK/lwip/libcoap-4.3.4/src\coap_netif.c ****       coap_log_debug("*  %s: netif: sent %4zd bytes\n",
 248:C:/Users/stapi/OneDrive/Desktop/GD32VW553/GD32VW55X_Wifi_BLE_SDK/GD32VW55x_RELEASE_V1.0.2/MSDK/lwip/libcoap-4.3.4/src\coap_netif.c ****                      coap_session_str(session), bytes_written);
 249:C:/Users/stapi/OneDrive/Desktop/GD32VW553/GD32VW55X_Wifi_BLE_SDK/GD32VW55x_RELEASE_V1.0.2/MSDK/lwip/libcoap-4.3.4/src\coap_netif.c ****     else
 250:C:/Users/stapi/OneDrive/Desktop/GD32VW553/GD32VW55X_Wifi_BLE_SDK/GD32VW55x_RELEASE_V1.0.2/MSDK/lwip/libcoap-4.3.4/src\coap_netif.c ****       coap_log_debug("*  %s: netif: sent %4zd of %4zd bytes\n",
 251:C:/Users/stapi/OneDrive/Desktop/GD32VW553/GD32VW55X_Wifi_BLE_SDK/GD32VW55x_RELEASE_V1.0.2/MSDK/lwip/libcoap-4.3.4/src\coap_netif.c ****                      coap_session_str(session), bytes_written, datalen);
 252:C:/Users/stapi/OneDrive/Desktop/GD32VW553/GD32VW55X_Wifi_BLE_SDK/GD32VW55x_RELEASE_V1.0.2/MSDK/lwip/libcoap-4.3.4/src\coap_netif.c ****   }
 253:C:/Users/stapi/OneDrive/Desktop/GD32VW553/GD32VW55X_Wifi_BLE_SDK/GD32VW55x_RELEASE_V1.0.2/MSDK/lwip/libcoap-4.3.4/src\coap_netif.c ****   return bytes_written;
 254:C:/Users/stapi/OneDrive/Desktop/GD32VW553/GD32VW55X_Wifi_BLE_SDK/GD32VW55x_RELEASE_V1.0.2/MSDK/lwip/libcoap-4.3.4/src\coap_netif.c **** }
 255:C:/Users/stapi/OneDrive/Desktop/GD32VW553/GD32VW55X_Wifi_BLE_SDK/GD32VW55x_RELEASE_V1.0.2/MSDK/lwip/libcoap-4.3.4/src\coap_netif.c **** #endif /* COAP_DISABLE_TCP */
 256:C:/Users/stapi/OneDrive/Desktop/GD32VW553/GD32VW55X_Wifi_BLE_SDK/GD32VW55x_RELEASE_V1.0.2/MSDK/lwip/libcoap-4.3.4/src\coap_netif.c **** 
 257:C:/Users/stapi/OneDrive/Desktop/GD32VW553/GD32VW55X_Wifi_BLE_SDK/GD32VW55x_RELEASE_V1.0.2/MSDK/lwip/libcoap-4.3.4/src\coap_netif.c **** void
 258:C:/Users/stapi/OneDrive/Desktop/GD32VW553/GD32VW55X_Wifi_BLE_SDK/GD32VW55x_RELEASE_V1.0.2/MSDK/lwip/libcoap-4.3.4/src\coap_netif.c **** coap_netif_close(coap_session_t *session) {
 550              		.loc 1 258 43 is_stmt 1
 551              		.cfi_startproc
 552              	.LVL57:
 259:C:/Users/stapi/OneDrive/Desktop/GD32VW553/GD32VW55X_Wifi_BLE_SDK/GD32VW55x_RELEASE_V1.0.2/MSDK/lwip/libcoap-4.3.4/src\coap_netif.c ****   if (coap_netif_available(session))
 553              		.loc 1 259 3
 554              	.LBB12:
 555              	.LBB13:
  26:C:/Users/stapi/OneDrive/Desktop/GD32VW553/GD32VW55X_Wifi_BLE_SDK/GD32VW55x_RELEASE_V1.0.2/MSDK/lwip/libcoap-4.3.4/src\coap_netif.c **** }
 556              		.loc 1 26 3
 557              	.LBE13:
 558              	.LBE12:
 559              		.loc 1 259 6 is_stmt 0
 560 0000 83574506 		lhu	a5,100(a0)
 561 0004 99C7     		beq	a5,zero,.L39
 260:C:/Users/stapi/OneDrive/Desktop/GD32VW553/GD32VW55X_Wifi_BLE_SDK/GD32VW55x_RELEASE_V1.0.2/MSDK/lwip/libcoap-4.3.4/src\coap_netif.c ****     coap_socket_close(&session->sock);
 562              		.loc 1 260 5 is_stmt 1
 563 0006 13050506 		addi	a0,a0,96
 564              	.LVL58:
 565 000a 17030000 		tail	coap_socket_close
 565      67000300 
 566              	.LVL59:
 567              	.L39:
 568 0012 8280     		ret
 569              		.cfi_endproc
 570              	.LFE38:
 572              		.section	.text.coap_netif_close_ep,"ax",@progbits
 573              		.align	1
 574              		.globl	coap_netif_close_ep
 576              	coap_netif_close_ep:
 577              	.LFB39:
 261:C:/Users/stapi/OneDrive/Desktop/GD32VW553/GD32VW55X_Wifi_BLE_SDK/GD32VW55x_RELEASE_V1.0.2/MSDK/lwip/libcoap-4.3.4/src\coap_netif.c **** }
 262:C:/Users/stapi/OneDrive/Desktop/GD32VW553/GD32VW55X_Wifi_BLE_SDK/GD32VW55x_RELEASE_V1.0.2/MSDK/lwip/libcoap-4.3.4/src\coap_netif.c **** 
 263:C:/Users/stapi/OneDrive/Desktop/GD32VW553/GD32VW55X_Wifi_BLE_SDK/GD32VW55x_RELEASE_V1.0.2/MSDK/lwip/libcoap-4.3.4/src\coap_netif.c **** #if COAP_SERVER_SUPPORT
 264:C:/Users/stapi/OneDrive/Desktop/GD32VW553/GD32VW55X_Wifi_BLE_SDK/GD32VW55x_RELEASE_V1.0.2/MSDK/lwip/libcoap-4.3.4/src\coap_netif.c **** void
 265:C:/Users/stapi/OneDrive/Desktop/GD32VW553/GD32VW55X_Wifi_BLE_SDK/GD32VW55x_RELEASE_V1.0.2/MSDK/lwip/libcoap-4.3.4/src\coap_netif.c **** coap_netif_close_ep(coap_endpoint_t *endpoint) {
 578              		.loc 1 265 48
 579              		.cfi_startproc
 580              	.LVL60:
 266:C:/Users/stapi/OneDrive/Desktop/GD32VW553/GD32VW55X_Wifi_BLE_SDK/GD32VW55x_RELEASE_V1.0.2/MSDK/lwip/libcoap-4.3.4/src\coap_netif.c ****   coap_socket_close(&endpoint->sock);
 581              		.loc 1 266 3
 582 0000 4105     		addi	a0,a0,16
 583              	.LVL61:
 584 0002 17030000 		tail	coap_socket_close
 584      67000300 
 585              	.LVL62:
 586              		.cfi_endproc
 587              	.LFE39:
 589              		.section	.rodata.__func__.0,"a"
 590              		.align	2
 591              		.set	.LANCHOR0,. + 0
 594              	__func__.0:
 595 0000 636F6170 		.string	"coap_netif_dgrm_write"
 595      5F6E6574 
 595      69665F64 
 595      67726D5F 
 595      77726974 
 596              		.text
 597              	.Letext0:
 598              		.file 3 "c:\\users\\stapi\\onedrive\\desktop\\gd32vw553\\embeddedbuilder_v1.4.7.26843\\tools\\nucl
 599              		.file 4 "c:\\users\\stapi\\onedrive\\desktop\\gd32vw553\\embeddedbuilder_v1.4.7.26843\\tools\\nucl
 600              		.file 5 "c:\\users\\stapi\\onedrive\\desktop\\gd32vw553\\embeddedbuilder_v1.4.7.26843\\tools\\nucl
 601              		.file 6 "c:\\users\\stapi\\onedrive\\desktop\\gd32vw553\\embeddedbuilder_v1.4.7.26843\\tools\\nucl
 602              		.file 7 "c:\\users\\stapi\\onedrive\\desktop\\gd32vw553\\embeddedbuilder_v1.4.7.26843\\tools\\nucl
 603              		.file 8 "..\\..\\..\\..\\lwip\\lwip-2.1.2\\src\\include/lwip/arch.h"
 604              		.file 9 "..\\..\\..\\..\\lwip\\libcoap-4.3.4\\include/coap3/coap_forward_decls.h"
 605              		.file 10 "..\\..\\..\\..\\lwip\\libcoap-4.3.4\\include/coap3/coap_address.h"
 606              		.file 11 "..\\..\\..\\..\\lwip\\libcoap-4.3.4\\include/coap3/coap_async_internal.h"
 607              		.file 12 "..\\..\\..\\..\\lwip\\libcoap-4.3.4\\include/coap3/coap_block_internal.h"
 608              		.file 13 "..\\..\\..\\..\\lwip\\libcoap-4.3.4\\include/coap3/coap_cache_internal.h"
 609              		.file 14 "..\\..\\..\\..\\lwip\\libcoap-4.3.4\\include/coap3/coap_io_internal.h"
 610              		.file 15 "..\\..\\..\\..\\lwip\\libcoap-4.3.4\\include/coap3/coap_net_internal.h"
 611              		.file 16 "..\\..\\..\\..\\lwip\\libcoap-4.3.4\\include/coap3/coap_pdu_internal.h"
 612              		.file 17 "..\\..\\..\\..\\lwip\\libcoap-4.3.4\\include/coap3/coap_resource_internal.h"
 613              		.file 18 "..\\..\\..\\..\\lwip\\libcoap-4.3.4\\include/coap3/coap_session_internal.h"
 614              		.file 19 "..\\..\\..\\..\\lwip\\libcoap-4.3.4\\include/coap3/coap_subscribe_internal.h"
 615              		.file 20 "..\\..\\..\\..\\lwip\\libcoap-4.3.4\\include/coap3/coap_option.h"
 616              		.file 21 "..\\..\\..\\..\\lwip\\libcoap-4.3.4\\include/coap3/coap_str.h"
 617              		.file 22 "..\\..\\..\\..\\lwip\\lwip-2.1.2\\src\\include/lwip/pbuf.h"
 618              		.file 23 "..\\..\\..\\..\\lwip\\libcoap-4.3.4\\include/coap3/coap_pdu.h"
 619              		.file 24 "..\\..\\..\\..\\lwip\\lwip-2.1.2\\src\\include/lwip/ip4_addr.h"
 620              		.file 25 "..\\..\\..\\..\\lwip\\lwip-2.1.2\\src\\include/lwip/ip_addr.h"
 621              		.file 26 "..\\..\\..\\..\\lwip\\lwip-2.1.2\\src\\include/lwip/sockets.h"
 622              		.file 27 "..\\..\\..\\..\\lwip\\libcoap-4.3.4\\include/coap3/coap_io.h"
 623              		.file 28 "..\\..\\..\\..\\lwip\\libcoap-4.3.4\\include/coap3/coap_dtls.h"
 624              		.file 29 "..\\..\\..\\..\\lwip\\libcoap-4.3.4\\include/coap3/coap_event.h"
 625              		.file 30 "..\\..\\..\\..\\lwip\\libcoap-4.3.4\\include/coap3/coap_session.h"
 626              		.file 31 "..\\..\\..\\..\\lwip\\libcoap-4.3.4\\include/coap3/coap_debug.h"
 627              		.file 32 "..\\..\\..\\..\\lwip\\libcoap-4.3.4\\include/coap3/coap_net.h"
 628              		.file 33 "..\\..\\..\\..\\lwip\\libcoap-4.3.4\\include/coap3/coap_block.h"
 629              		.file 34 "..\\..\\..\\..\\lwip\\libcoap-4.3.4\\include/coap3/coap_cache.h"
 630              		.file 35 "..\\..\\..\\..\\lwip\\libcoap-4.3.4\\include/coap3/coap_resource.h"
 631              		.file 36 "..\\..\\..\\..\\lwip\\libcoap-4.3.4\\include/coap3/coap_subscribe.h"
 632              		.file 37 "..\\..\\..\\..\\lwip\\libcoap-4.3.4\\include/coap3/coap_uthash_internal.h"
 633              		.file 38 "..\\..\\..\\..\\lwip\\libcoap-4.3.4\\include/coap3/coap_layers_internal.h"
 634              		.file 39 "..\\..\\..\\..\\lwip\\lwip-2.1.2\\src\\include/lwip/sys.h"
 635              		.file 40 "c:\\users\\stapi\\onedrive\\desktop\\gd32vw553\\embeddedbuilder_v1.4.7.26843\\tools\\nuc
 636              		.file 41 "..\\..\\..\\..\\lwip\\lwip-2.1.2\\src\\include/lwip/errno.h"