   1              		.file	"coap_notls.c"
   2              		.option nopic
   3              		.attribute arch, "rv32i2p0_m2p0_a2p0_f2p0_c2p0_b_p0p94"
   4              		.attribute unaligned_access, 0
   5              		.attribute stack_align, 16
   6              		.text
   7              	.Ltext0:
   8              		.cfi_sections	.debug_frame
   9              		.section	.text.coap_dtls_is_supported,"ax",@progbits
  10              		.align	1
  11              		.globl	coap_dtls_is_supported
  13              	coap_dtls_is_supported:
  14              	.LFB31:
  15              		.file 1 "C:/Users/stapi/OneDrive/Desktop/GD32VW553/V1_MQTT_OK/GD32VW55X_Wifi_BLE_SDK/GD32VW55x_REL
   1:C:/Users/stapi/OneDrive/Desktop/GD32VW553/V1_MQTT_OK/GD32VW55X_Wifi_BLE_SDK/GD32VW55x_RELEASE_V1.0.2/MSDK/lwip/libcoap-4.3.4/src\coap_notls.c **** /*
   2:C:/Users/stapi/OneDrive/Desktop/GD32VW553/V1_MQTT_OK/GD32VW55X_Wifi_BLE_SDK/GD32VW55x_RELEASE_V1.0.2/MSDK/lwip/libcoap-4.3.4/src\coap_notls.c ****  * coap_notls.c -- Stub Datagram Transport Layer Support for libcoap
   3:C:/Users/stapi/OneDrive/Desktop/GD32VW553/V1_MQTT_OK/GD32VW55X_Wifi_BLE_SDK/GD32VW55x_RELEASE_V1.0.2/MSDK/lwip/libcoap-4.3.4/src\coap_notls.c ****  *
   4:C:/Users/stapi/OneDrive/Desktop/GD32VW553/V1_MQTT_OK/GD32VW55X_Wifi_BLE_SDK/GD32VW55x_RELEASE_V1.0.2/MSDK/lwip/libcoap-4.3.4/src\coap_notls.c ****  * Copyright (C) 2016      Olaf Bergmann <bergmann@tzi.org>
   5:C:/Users/stapi/OneDrive/Desktop/GD32VW553/V1_MQTT_OK/GD32VW55X_Wifi_BLE_SDK/GD32VW55x_RELEASE_V1.0.2/MSDK/lwip/libcoap-4.3.4/src\coap_notls.c ****  * Copyright (C) 2021-2023 Jon Shallow <supjps-libcoap@jpshallow.com>
   6:C:/Users/stapi/OneDrive/Desktop/GD32VW553/V1_MQTT_OK/GD32VW55X_Wifi_BLE_SDK/GD32VW55x_RELEASE_V1.0.2/MSDK/lwip/libcoap-4.3.4/src\coap_notls.c ****  *
   7:C:/Users/stapi/OneDrive/Desktop/GD32VW553/V1_MQTT_OK/GD32VW55X_Wifi_BLE_SDK/GD32VW55x_RELEASE_V1.0.2/MSDK/lwip/libcoap-4.3.4/src\coap_notls.c ****  * SPDX-License-Identifier: BSD-2-Clause
   8:C:/Users/stapi/OneDrive/Desktop/GD32VW553/V1_MQTT_OK/GD32VW55X_Wifi_BLE_SDK/GD32VW55x_RELEASE_V1.0.2/MSDK/lwip/libcoap-4.3.4/src\coap_notls.c ****  *
   9:C:/Users/stapi/OneDrive/Desktop/GD32VW553/V1_MQTT_OK/GD32VW55X_Wifi_BLE_SDK/GD32VW55x_RELEASE_V1.0.2/MSDK/lwip/libcoap-4.3.4/src\coap_notls.c ****  * This file is part of the CoAP library libcoap. Please see README for terms
  10:C:/Users/stapi/OneDrive/Desktop/GD32VW553/V1_MQTT_OK/GD32VW55X_Wifi_BLE_SDK/GD32VW55x_RELEASE_V1.0.2/MSDK/lwip/libcoap-4.3.4/src\coap_notls.c ****  * of use.
  11:C:/Users/stapi/OneDrive/Desktop/GD32VW553/V1_MQTT_OK/GD32VW55X_Wifi_BLE_SDK/GD32VW55x_RELEASE_V1.0.2/MSDK/lwip/libcoap-4.3.4/src\coap_notls.c ****  */
  12:C:/Users/stapi/OneDrive/Desktop/GD32VW553/V1_MQTT_OK/GD32VW55X_Wifi_BLE_SDK/GD32VW55x_RELEASE_V1.0.2/MSDK/lwip/libcoap-4.3.4/src\coap_notls.c **** 
  13:C:/Users/stapi/OneDrive/Desktop/GD32VW553/V1_MQTT_OK/GD32VW55X_Wifi_BLE_SDK/GD32VW55x_RELEASE_V1.0.2/MSDK/lwip/libcoap-4.3.4/src\coap_notls.c **** /**
  14:C:/Users/stapi/OneDrive/Desktop/GD32VW553/V1_MQTT_OK/GD32VW55X_Wifi_BLE_SDK/GD32VW55x_RELEASE_V1.0.2/MSDK/lwip/libcoap-4.3.4/src\coap_notls.c ****  * @file coap_notls.c
  15:C:/Users/stapi/OneDrive/Desktop/GD32VW553/V1_MQTT_OK/GD32VW55X_Wifi_BLE_SDK/GD32VW55x_RELEASE_V1.0.2/MSDK/lwip/libcoap-4.3.4/src\coap_notls.c ****  * @brief NoTLS specific interface functions
  16:C:/Users/stapi/OneDrive/Desktop/GD32VW553/V1_MQTT_OK/GD32VW55X_Wifi_BLE_SDK/GD32VW55x_RELEASE_V1.0.2/MSDK/lwip/libcoap-4.3.4/src\coap_notls.c ****  */
  17:C:/Users/stapi/OneDrive/Desktop/GD32VW553/V1_MQTT_OK/GD32VW55X_Wifi_BLE_SDK/GD32VW55x_RELEASE_V1.0.2/MSDK/lwip/libcoap-4.3.4/src\coap_notls.c **** 
  18:C:/Users/stapi/OneDrive/Desktop/GD32VW553/V1_MQTT_OK/GD32VW55X_Wifi_BLE_SDK/GD32VW55x_RELEASE_V1.0.2/MSDK/lwip/libcoap-4.3.4/src\coap_notls.c **** #include "coap3/coap_internal.h"
  19:C:/Users/stapi/OneDrive/Desktop/GD32VW553/V1_MQTT_OK/GD32VW55X_Wifi_BLE_SDK/GD32VW55x_RELEASE_V1.0.2/MSDK/lwip/libcoap-4.3.4/src\coap_notls.c **** 
  20:C:/Users/stapi/OneDrive/Desktop/GD32VW553/V1_MQTT_OK/GD32VW55X_Wifi_BLE_SDK/GD32VW55x_RELEASE_V1.0.2/MSDK/lwip/libcoap-4.3.4/src\coap_notls.c **** #if !defined(COAP_WITH_LIBTINYDTLS) && !defined(COAP_WITH_LIBOPENSSL) && !defined(COAP_WITH_LIBGNUT
  21:C:/Users/stapi/OneDrive/Desktop/GD32VW553/V1_MQTT_OK/GD32VW55X_Wifi_BLE_SDK/GD32VW55x_RELEASE_V1.0.2/MSDK/lwip/libcoap-4.3.4/src\coap_notls.c **** 
  22:C:/Users/stapi/OneDrive/Desktop/GD32VW553/V1_MQTT_OK/GD32VW55X_Wifi_BLE_SDK/GD32VW55x_RELEASE_V1.0.2/MSDK/lwip/libcoap-4.3.4/src\coap_notls.c **** int
  23:C:/Users/stapi/OneDrive/Desktop/GD32VW553/V1_MQTT_OK/GD32VW55X_Wifi_BLE_SDK/GD32VW55x_RELEASE_V1.0.2/MSDK/lwip/libcoap-4.3.4/src\coap_notls.c **** coap_dtls_is_supported(void) {
  16              		.loc 1 23 30
  17              		.cfi_startproc
  24:C:/Users/stapi/OneDrive/Desktop/GD32VW553/V1_MQTT_OK/GD32VW55X_Wifi_BLE_SDK/GD32VW55x_RELEASE_V1.0.2/MSDK/lwip/libcoap-4.3.4/src\coap_notls.c ****   return 0;
  18              		.loc 1 24 3
  25:C:/Users/stapi/OneDrive/Desktop/GD32VW553/V1_MQTT_OK/GD32VW55X_Wifi_BLE_SDK/GD32VW55x_RELEASE_V1.0.2/MSDK/lwip/libcoap-4.3.4/src\coap_notls.c **** }
  19              		.loc 1 25 1 is_stmt 0
  20 0000 0145     		li	a0,0
  21 0002 8280     		ret
  22              		.cfi_endproc
  23              	.LFE31:
  25              		.section	.text.coap_tls_is_supported,"ax",@progbits
  26              		.align	1
  27              		.globl	coap_tls_is_supported
  29              	coap_tls_is_supported:
  30              	.LFB72:
  31              		.cfi_startproc
  32 0000 0145     		li	a0,0
  33 0002 8280     		ret
  34              		.cfi_endproc
  35              	.LFE72:
  37              		.section	.text.coap_dtls_psk_is_supported,"ax",@progbits
  38              		.align	1
  39              		.globl	coap_dtls_psk_is_supported
  41              	coap_dtls_psk_is_supported:
  42              	.LFB74:
  43              		.cfi_startproc
  44 0000 0145     		li	a0,0
  45 0002 8280     		ret
  46              		.cfi_endproc
  47              	.LFE74:
  49              		.section	.text.coap_dtls_pki_is_supported,"ax",@progbits
  50              		.align	1
  51              		.globl	coap_dtls_pki_is_supported
  53              	coap_dtls_pki_is_supported:
  54              	.LFB76:
  55              		.cfi_startproc
  56 0000 0145     		li	a0,0
  57 0002 8280     		ret
  58              		.cfi_endproc
  59              	.LFE76:
  61              		.section	.text.coap_dtls_pkcs11_is_supported,"ax",@progbits
  62              		.align	1
  63              		.globl	coap_dtls_pkcs11_is_supported
  65              	coap_dtls_pkcs11_is_supported:
  66              	.LFB78:
  67              		.cfi_startproc
  68 0000 0145     		li	a0,0
  69 0002 8280     		ret
  70              		.cfi_endproc
  71              	.LFE78:
  73              		.section	.text.coap_dtls_rpk_is_supported,"ax",@progbits
  74              		.align	1
  75              		.globl	coap_dtls_rpk_is_supported
  77              	coap_dtls_rpk_is_supported:
  78              	.LFB80:
  79              		.cfi_startproc
  80 0000 0145     		li	a0,0
  81 0002 8280     		ret
  82              		.cfi_endproc
  83              	.LFE80:
  85              		.section	.text.coap_get_tls_library_version,"ax",@progbits
  86              		.align	1
  87              		.globl	coap_get_tls_library_version
  89              	coap_get_tls_library_version:
  90              	.LFB37:
  26:C:/Users/stapi/OneDrive/Desktop/GD32VW553/V1_MQTT_OK/GD32VW55X_Wifi_BLE_SDK/GD32VW55x_RELEASE_V1.0.2/MSDK/lwip/libcoap-4.3.4/src\coap_notls.c **** 
  27:C:/Users/stapi/OneDrive/Desktop/GD32VW553/V1_MQTT_OK/GD32VW55X_Wifi_BLE_SDK/GD32VW55x_RELEASE_V1.0.2/MSDK/lwip/libcoap-4.3.4/src\coap_notls.c **** int
  28:C:/Users/stapi/OneDrive/Desktop/GD32VW553/V1_MQTT_OK/GD32VW55X_Wifi_BLE_SDK/GD32VW55x_RELEASE_V1.0.2/MSDK/lwip/libcoap-4.3.4/src\coap_notls.c **** coap_tls_is_supported(void) {
  29:C:/Users/stapi/OneDrive/Desktop/GD32VW553/V1_MQTT_OK/GD32VW55X_Wifi_BLE_SDK/GD32VW55x_RELEASE_V1.0.2/MSDK/lwip/libcoap-4.3.4/src\coap_notls.c ****   return 0;
  30:C:/Users/stapi/OneDrive/Desktop/GD32VW553/V1_MQTT_OK/GD32VW55X_Wifi_BLE_SDK/GD32VW55x_RELEASE_V1.0.2/MSDK/lwip/libcoap-4.3.4/src\coap_notls.c **** }
  31:C:/Users/stapi/OneDrive/Desktop/GD32VW553/V1_MQTT_OK/GD32VW55X_Wifi_BLE_SDK/GD32VW55x_RELEASE_V1.0.2/MSDK/lwip/libcoap-4.3.4/src\coap_notls.c **** 
  32:C:/Users/stapi/OneDrive/Desktop/GD32VW553/V1_MQTT_OK/GD32VW55X_Wifi_BLE_SDK/GD32VW55x_RELEASE_V1.0.2/MSDK/lwip/libcoap-4.3.4/src\coap_notls.c **** /*
  33:C:/Users/stapi/OneDrive/Desktop/GD32VW553/V1_MQTT_OK/GD32VW55X_Wifi_BLE_SDK/GD32VW55x_RELEASE_V1.0.2/MSDK/lwip/libcoap-4.3.4/src\coap_notls.c ****  * return 0 failed
  34:C:/Users/stapi/OneDrive/Desktop/GD32VW553/V1_MQTT_OK/GD32VW55X_Wifi_BLE_SDK/GD32VW55x_RELEASE_V1.0.2/MSDK/lwip/libcoap-4.3.4/src\coap_notls.c ****  *        1 passed
  35:C:/Users/stapi/OneDrive/Desktop/GD32VW553/V1_MQTT_OK/GD32VW55X_Wifi_BLE_SDK/GD32VW55x_RELEASE_V1.0.2/MSDK/lwip/libcoap-4.3.4/src\coap_notls.c ****  */
  36:C:/Users/stapi/OneDrive/Desktop/GD32VW553/V1_MQTT_OK/GD32VW55X_Wifi_BLE_SDK/GD32VW55x_RELEASE_V1.0.2/MSDK/lwip/libcoap-4.3.4/src\coap_notls.c **** int
  37:C:/Users/stapi/OneDrive/Desktop/GD32VW553/V1_MQTT_OK/GD32VW55X_Wifi_BLE_SDK/GD32VW55x_RELEASE_V1.0.2/MSDK/lwip/libcoap-4.3.4/src\coap_notls.c **** coap_dtls_psk_is_supported(void) {
  38:C:/Users/stapi/OneDrive/Desktop/GD32VW553/V1_MQTT_OK/GD32VW55X_Wifi_BLE_SDK/GD32VW55x_RELEASE_V1.0.2/MSDK/lwip/libcoap-4.3.4/src\coap_notls.c ****   return 0;
  39:C:/Users/stapi/OneDrive/Desktop/GD32VW553/V1_MQTT_OK/GD32VW55X_Wifi_BLE_SDK/GD32VW55x_RELEASE_V1.0.2/MSDK/lwip/libcoap-4.3.4/src\coap_notls.c **** }
  40:C:/Users/stapi/OneDrive/Desktop/GD32VW553/V1_MQTT_OK/GD32VW55X_Wifi_BLE_SDK/GD32VW55x_RELEASE_V1.0.2/MSDK/lwip/libcoap-4.3.4/src\coap_notls.c **** 
  41:C:/Users/stapi/OneDrive/Desktop/GD32VW553/V1_MQTT_OK/GD32VW55X_Wifi_BLE_SDK/GD32VW55x_RELEASE_V1.0.2/MSDK/lwip/libcoap-4.3.4/src\coap_notls.c **** /*
  42:C:/Users/stapi/OneDrive/Desktop/GD32VW553/V1_MQTT_OK/GD32VW55X_Wifi_BLE_SDK/GD32VW55x_RELEASE_V1.0.2/MSDK/lwip/libcoap-4.3.4/src\coap_notls.c ****  * return 0 failed
  43:C:/Users/stapi/OneDrive/Desktop/GD32VW553/V1_MQTT_OK/GD32VW55X_Wifi_BLE_SDK/GD32VW55x_RELEASE_V1.0.2/MSDK/lwip/libcoap-4.3.4/src\coap_notls.c ****  *        1 passed
  44:C:/Users/stapi/OneDrive/Desktop/GD32VW553/V1_MQTT_OK/GD32VW55X_Wifi_BLE_SDK/GD32VW55x_RELEASE_V1.0.2/MSDK/lwip/libcoap-4.3.4/src\coap_notls.c ****  */
  45:C:/Users/stapi/OneDrive/Desktop/GD32VW553/V1_MQTT_OK/GD32VW55X_Wifi_BLE_SDK/GD32VW55x_RELEASE_V1.0.2/MSDK/lwip/libcoap-4.3.4/src\coap_notls.c **** int
  46:C:/Users/stapi/OneDrive/Desktop/GD32VW553/V1_MQTT_OK/GD32VW55X_Wifi_BLE_SDK/GD32VW55x_RELEASE_V1.0.2/MSDK/lwip/libcoap-4.3.4/src\coap_notls.c **** coap_dtls_pki_is_supported(void) {
  47:C:/Users/stapi/OneDrive/Desktop/GD32VW553/V1_MQTT_OK/GD32VW55X_Wifi_BLE_SDK/GD32VW55x_RELEASE_V1.0.2/MSDK/lwip/libcoap-4.3.4/src\coap_notls.c ****   return 0;
  48:C:/Users/stapi/OneDrive/Desktop/GD32VW553/V1_MQTT_OK/GD32VW55X_Wifi_BLE_SDK/GD32VW55x_RELEASE_V1.0.2/MSDK/lwip/libcoap-4.3.4/src\coap_notls.c **** }
  49:C:/Users/stapi/OneDrive/Desktop/GD32VW553/V1_MQTT_OK/GD32VW55X_Wifi_BLE_SDK/GD32VW55x_RELEASE_V1.0.2/MSDK/lwip/libcoap-4.3.4/src\coap_notls.c **** 
  50:C:/Users/stapi/OneDrive/Desktop/GD32VW553/V1_MQTT_OK/GD32VW55X_Wifi_BLE_SDK/GD32VW55x_RELEASE_V1.0.2/MSDK/lwip/libcoap-4.3.4/src\coap_notls.c **** /*
  51:C:/Users/stapi/OneDrive/Desktop/GD32VW553/V1_MQTT_OK/GD32VW55X_Wifi_BLE_SDK/GD32VW55x_RELEASE_V1.0.2/MSDK/lwip/libcoap-4.3.4/src\coap_notls.c ****  * return 0 failed
  52:C:/Users/stapi/OneDrive/Desktop/GD32VW553/V1_MQTT_OK/GD32VW55X_Wifi_BLE_SDK/GD32VW55x_RELEASE_V1.0.2/MSDK/lwip/libcoap-4.3.4/src\coap_notls.c ****  *        1 passed
  53:C:/Users/stapi/OneDrive/Desktop/GD32VW553/V1_MQTT_OK/GD32VW55X_Wifi_BLE_SDK/GD32VW55x_RELEASE_V1.0.2/MSDK/lwip/libcoap-4.3.4/src\coap_notls.c ****  */
  54:C:/Users/stapi/OneDrive/Desktop/GD32VW553/V1_MQTT_OK/GD32VW55X_Wifi_BLE_SDK/GD32VW55x_RELEASE_V1.0.2/MSDK/lwip/libcoap-4.3.4/src\coap_notls.c **** int
  55:C:/Users/stapi/OneDrive/Desktop/GD32VW553/V1_MQTT_OK/GD32VW55X_Wifi_BLE_SDK/GD32VW55x_RELEASE_V1.0.2/MSDK/lwip/libcoap-4.3.4/src\coap_notls.c **** coap_dtls_pkcs11_is_supported(void) {
  56:C:/Users/stapi/OneDrive/Desktop/GD32VW553/V1_MQTT_OK/GD32VW55X_Wifi_BLE_SDK/GD32VW55x_RELEASE_V1.0.2/MSDK/lwip/libcoap-4.3.4/src\coap_notls.c ****   return 0;
  57:C:/Users/stapi/OneDrive/Desktop/GD32VW553/V1_MQTT_OK/GD32VW55X_Wifi_BLE_SDK/GD32VW55x_RELEASE_V1.0.2/MSDK/lwip/libcoap-4.3.4/src\coap_notls.c **** }
  58:C:/Users/stapi/OneDrive/Desktop/GD32VW553/V1_MQTT_OK/GD32VW55X_Wifi_BLE_SDK/GD32VW55x_RELEASE_V1.0.2/MSDK/lwip/libcoap-4.3.4/src\coap_notls.c **** 
  59:C:/Users/stapi/OneDrive/Desktop/GD32VW553/V1_MQTT_OK/GD32VW55X_Wifi_BLE_SDK/GD32VW55x_RELEASE_V1.0.2/MSDK/lwip/libcoap-4.3.4/src\coap_notls.c **** /*
  60:C:/Users/stapi/OneDrive/Desktop/GD32VW553/V1_MQTT_OK/GD32VW55X_Wifi_BLE_SDK/GD32VW55x_RELEASE_V1.0.2/MSDK/lwip/libcoap-4.3.4/src\coap_notls.c ****  * return 0 failed
  61:C:/Users/stapi/OneDrive/Desktop/GD32VW553/V1_MQTT_OK/GD32VW55X_Wifi_BLE_SDK/GD32VW55x_RELEASE_V1.0.2/MSDK/lwip/libcoap-4.3.4/src\coap_notls.c ****  *        1 passed
  62:C:/Users/stapi/OneDrive/Desktop/GD32VW553/V1_MQTT_OK/GD32VW55X_Wifi_BLE_SDK/GD32VW55x_RELEASE_V1.0.2/MSDK/lwip/libcoap-4.3.4/src\coap_notls.c ****  */
  63:C:/Users/stapi/OneDrive/Desktop/GD32VW553/V1_MQTT_OK/GD32VW55X_Wifi_BLE_SDK/GD32VW55x_RELEASE_V1.0.2/MSDK/lwip/libcoap-4.3.4/src\coap_notls.c **** int
  64:C:/Users/stapi/OneDrive/Desktop/GD32VW553/V1_MQTT_OK/GD32VW55X_Wifi_BLE_SDK/GD32VW55x_RELEASE_V1.0.2/MSDK/lwip/libcoap-4.3.4/src\coap_notls.c **** coap_dtls_rpk_is_supported(void) {
  65:C:/Users/stapi/OneDrive/Desktop/GD32VW553/V1_MQTT_OK/GD32VW55X_Wifi_BLE_SDK/GD32VW55x_RELEASE_V1.0.2/MSDK/lwip/libcoap-4.3.4/src\coap_notls.c ****   return 0;
  66:C:/Users/stapi/OneDrive/Desktop/GD32VW553/V1_MQTT_OK/GD32VW55X_Wifi_BLE_SDK/GD32VW55x_RELEASE_V1.0.2/MSDK/lwip/libcoap-4.3.4/src\coap_notls.c **** }
  67:C:/Users/stapi/OneDrive/Desktop/GD32VW553/V1_MQTT_OK/GD32VW55X_Wifi_BLE_SDK/GD32VW55x_RELEASE_V1.0.2/MSDK/lwip/libcoap-4.3.4/src\coap_notls.c **** 
  68:C:/Users/stapi/OneDrive/Desktop/GD32VW553/V1_MQTT_OK/GD32VW55X_Wifi_BLE_SDK/GD32VW55x_RELEASE_V1.0.2/MSDK/lwip/libcoap-4.3.4/src\coap_notls.c **** coap_tls_version_t *
  69:C:/Users/stapi/OneDrive/Desktop/GD32VW553/V1_MQTT_OK/GD32VW55X_Wifi_BLE_SDK/GD32VW55x_RELEASE_V1.0.2/MSDK/lwip/libcoap-4.3.4/src\coap_notls.c **** coap_get_tls_library_version(void) {
  91              		.loc 1 69 36 is_stmt 1
  92              		.cfi_startproc
  70:C:/Users/stapi/OneDrive/Desktop/GD32VW553/V1_MQTT_OK/GD32VW55X_Wifi_BLE_SDK/GD32VW55x_RELEASE_V1.0.2/MSDK/lwip/libcoap-4.3.4/src\coap_notls.c ****   static coap_tls_version_t version;
  93              		.loc 1 70 3
  71:C:/Users/stapi/OneDrive/Desktop/GD32VW553/V1_MQTT_OK/GD32VW55X_Wifi_BLE_SDK/GD32VW55x_RELEASE_V1.0.2/MSDK/lwip/libcoap-4.3.4/src\coap_notls.c ****   version.version = 0;
  94              		.loc 1 71 3
  95              		.loc 1 71 19 is_stmt 0
  96 0000 37050000 		lui	a0,%hi(.LANCHOR0)
  97 0004 93070500 		addi	a5,a0,%lo(.LANCHOR0)
  98 0008 0146     		li	a2,0
  99 000a 8146     		li	a3,0
 100 000c 90C3     		sw	a2,0(a5)
 101 000e D4C3     		sw	a3,4(a5)
  72:C:/Users/stapi/OneDrive/Desktop/GD32VW553/V1_MQTT_OK/GD32VW55X_Wifi_BLE_SDK/GD32VW55x_RELEASE_V1.0.2/MSDK/lwip/libcoap-4.3.4/src\coap_notls.c ****   version.type = COAP_TLS_LIBRARY_NOTLS;
 102              		.loc 1 72 3 is_stmt 1
 103              		.loc 1 72 16 is_stmt 0
 104 0010 23A40700 		sw	zero,8(a5)
  73:C:/Users/stapi/OneDrive/Desktop/GD32VW553/V1_MQTT_OK/GD32VW55X_Wifi_BLE_SDK/GD32VW55x_RELEASE_V1.0.2/MSDK/lwip/libcoap-4.3.4/src\coap_notls.c ****   return &version;
 105              		.loc 1 73 3 is_stmt 1
  74:C:/Users/stapi/OneDrive/Desktop/GD32VW553/V1_MQTT_OK/GD32VW55X_Wifi_BLE_SDK/GD32VW55x_RELEASE_V1.0.2/MSDK/lwip/libcoap-4.3.4/src\coap_notls.c **** }
 106              		.loc 1 74 1 is_stmt 0
 107 0014 13050500 		addi	a0,a0,%lo(.LANCHOR0)
 108 0018 8280     		ret
 109              		.cfi_endproc
 110              	.LFE37:
 112              		.section	.text.coap_dtls_context_set_pki,"ax",@progbits
 113              		.align	1
 114              		.globl	coap_dtls_context_set_pki
 116              	coap_dtls_context_set_pki:
 117              	.LFB38:
  75:C:/Users/stapi/OneDrive/Desktop/GD32VW553/V1_MQTT_OK/GD32VW55X_Wifi_BLE_SDK/GD32VW55x_RELEASE_V1.0.2/MSDK/lwip/libcoap-4.3.4/src\coap_notls.c **** 
  76:C:/Users/stapi/OneDrive/Desktop/GD32VW553/V1_MQTT_OK/GD32VW55X_Wifi_BLE_SDK/GD32VW55x_RELEASE_V1.0.2/MSDK/lwip/libcoap-4.3.4/src\coap_notls.c **** int
  77:C:/Users/stapi/OneDrive/Desktop/GD32VW553/V1_MQTT_OK/GD32VW55X_Wifi_BLE_SDK/GD32VW55x_RELEASE_V1.0.2/MSDK/lwip/libcoap-4.3.4/src\coap_notls.c **** coap_dtls_context_set_pki(coap_context_t *ctx COAP_UNUSED,
  78:C:/Users/stapi/OneDrive/Desktop/GD32VW553/V1_MQTT_OK/GD32VW55X_Wifi_BLE_SDK/GD32VW55x_RELEASE_V1.0.2/MSDK/lwip/libcoap-4.3.4/src\coap_notls.c ****                           const coap_dtls_pki_t *setup_data COAP_UNUSED,
  79:C:/Users/stapi/OneDrive/Desktop/GD32VW553/V1_MQTT_OK/GD32VW55X_Wifi_BLE_SDK/GD32VW55x_RELEASE_V1.0.2/MSDK/lwip/libcoap-4.3.4/src\coap_notls.c ****                           const coap_dtls_role_t role COAP_UNUSED
  80:C:/Users/stapi/OneDrive/Desktop/GD32VW553/V1_MQTT_OK/GD32VW55X_Wifi_BLE_SDK/GD32VW55x_RELEASE_V1.0.2/MSDK/lwip/libcoap-4.3.4/src\coap_notls.c ****                          ) {
 118              		.loc 1 80 28 is_stmt 1
 119              		.cfi_startproc
 120              	.LVL0:
  81:C:/Users/stapi/OneDrive/Desktop/GD32VW553/V1_MQTT_OK/GD32VW55X_Wifi_BLE_SDK/GD32VW55x_RELEASE_V1.0.2/MSDK/lwip/libcoap-4.3.4/src\coap_notls.c ****   return 0;
 121              		.loc 1 81 3
  82:C:/Users/stapi/OneDrive/Desktop/GD32VW553/V1_MQTT_OK/GD32VW55X_Wifi_BLE_SDK/GD32VW55x_RELEASE_V1.0.2/MSDK/lwip/libcoap-4.3.4/src\coap_notls.c **** }
 122              		.loc 1 82 1 is_stmt 0
 123 0000 0145     		li	a0,0
 124              	.LVL1:
 125 0002 8280     		ret
 126              		.cfi_endproc
 127              	.LFE38:
 129              		.section	.text.coap_dtls_context_set_pki_root_cas,"ax",@progbits
 130              		.align	1
 131              		.globl	coap_dtls_context_set_pki_root_cas
 133              	coap_dtls_context_set_pki_root_cas:
 134              	.LFB39:
  83:C:/Users/stapi/OneDrive/Desktop/GD32VW553/V1_MQTT_OK/GD32VW55X_Wifi_BLE_SDK/GD32VW55x_RELEASE_V1.0.2/MSDK/lwip/libcoap-4.3.4/src\coap_notls.c **** 
  84:C:/Users/stapi/OneDrive/Desktop/GD32VW553/V1_MQTT_OK/GD32VW55X_Wifi_BLE_SDK/GD32VW55x_RELEASE_V1.0.2/MSDK/lwip/libcoap-4.3.4/src\coap_notls.c **** int
  85:C:/Users/stapi/OneDrive/Desktop/GD32VW553/V1_MQTT_OK/GD32VW55X_Wifi_BLE_SDK/GD32VW55x_RELEASE_V1.0.2/MSDK/lwip/libcoap-4.3.4/src\coap_notls.c **** coap_dtls_context_set_pki_root_cas(coap_context_t *ctx COAP_UNUSED,
  86:C:/Users/stapi/OneDrive/Desktop/GD32VW553/V1_MQTT_OK/GD32VW55X_Wifi_BLE_SDK/GD32VW55x_RELEASE_V1.0.2/MSDK/lwip/libcoap-4.3.4/src\coap_notls.c ****                                    const char *ca_file COAP_UNUSED,
  87:C:/Users/stapi/OneDrive/Desktop/GD32VW553/V1_MQTT_OK/GD32VW55X_Wifi_BLE_SDK/GD32VW55x_RELEASE_V1.0.2/MSDK/lwip/libcoap-4.3.4/src\coap_notls.c ****                                    const char *ca_path COAP_UNUSED
  88:C:/Users/stapi/OneDrive/Desktop/GD32VW553/V1_MQTT_OK/GD32VW55X_Wifi_BLE_SDK/GD32VW55x_RELEASE_V1.0.2/MSDK/lwip/libcoap-4.3.4/src\coap_notls.c ****                                   ) {
 135              		.loc 1 88 37 is_stmt 1
 136              		.cfi_startproc
 137              	.LVL2:
  89:C:/Users/stapi/OneDrive/Desktop/GD32VW553/V1_MQTT_OK/GD32VW55X_Wifi_BLE_SDK/GD32VW55x_RELEASE_V1.0.2/MSDK/lwip/libcoap-4.3.4/src\coap_notls.c ****   return 0;
 138              		.loc 1 89 3
  90:C:/Users/stapi/OneDrive/Desktop/GD32VW553/V1_MQTT_OK/GD32VW55X_Wifi_BLE_SDK/GD32VW55x_RELEASE_V1.0.2/MSDK/lwip/libcoap-4.3.4/src\coap_notls.c **** }
 139              		.loc 1 90 1 is_stmt 0
 140 0000 0145     		li	a0,0
 141              	.LVL3:
 142 0002 8280     		ret
 143              		.cfi_endproc
 144              	.LFE39:
 146              		.section	.text.coap_dtls_context_set_cpsk,"ax",@progbits
 147              		.align	1
 148              		.globl	coap_dtls_context_set_cpsk
 150              	coap_dtls_context_set_cpsk:
 151              	.LFB94:
 152              		.cfi_startproc
 153 0000 0145     		li	a0,0
 154 0002 8280     		ret
 155              		.cfi_endproc
 156              	.LFE94:
 158              		.section	.text.coap_dtls_context_set_spsk,"ax",@progbits
 159              		.align	1
 160              		.globl	coap_dtls_context_set_spsk
 162              	coap_dtls_context_set_spsk:
 163              	.LFB41:
  91:C:/Users/stapi/OneDrive/Desktop/GD32VW553/V1_MQTT_OK/GD32VW55X_Wifi_BLE_SDK/GD32VW55x_RELEASE_V1.0.2/MSDK/lwip/libcoap-4.3.4/src\coap_notls.c **** 
  92:C:/Users/stapi/OneDrive/Desktop/GD32VW553/V1_MQTT_OK/GD32VW55X_Wifi_BLE_SDK/GD32VW55x_RELEASE_V1.0.2/MSDK/lwip/libcoap-4.3.4/src\coap_notls.c **** #if COAP_CLIENT_SUPPORT
  93:C:/Users/stapi/OneDrive/Desktop/GD32VW553/V1_MQTT_OK/GD32VW55X_Wifi_BLE_SDK/GD32VW55x_RELEASE_V1.0.2/MSDK/lwip/libcoap-4.3.4/src\coap_notls.c **** int
  94:C:/Users/stapi/OneDrive/Desktop/GD32VW553/V1_MQTT_OK/GD32VW55X_Wifi_BLE_SDK/GD32VW55x_RELEASE_V1.0.2/MSDK/lwip/libcoap-4.3.4/src\coap_notls.c **** coap_dtls_context_set_cpsk(coap_context_t *ctx COAP_UNUSED,
  95:C:/Users/stapi/OneDrive/Desktop/GD32VW553/V1_MQTT_OK/GD32VW55X_Wifi_BLE_SDK/GD32VW55x_RELEASE_V1.0.2/MSDK/lwip/libcoap-4.3.4/src\coap_notls.c ****                            coap_dtls_cpsk_t *setup_data COAP_UNUSED
  96:C:/Users/stapi/OneDrive/Desktop/GD32VW553/V1_MQTT_OK/GD32VW55X_Wifi_BLE_SDK/GD32VW55x_RELEASE_V1.0.2/MSDK/lwip/libcoap-4.3.4/src\coap_notls.c ****                           ) {
  97:C:/Users/stapi/OneDrive/Desktop/GD32VW553/V1_MQTT_OK/GD32VW55X_Wifi_BLE_SDK/GD32VW55x_RELEASE_V1.0.2/MSDK/lwip/libcoap-4.3.4/src\coap_notls.c ****   return 0;
  98:C:/Users/stapi/OneDrive/Desktop/GD32VW553/V1_MQTT_OK/GD32VW55X_Wifi_BLE_SDK/GD32VW55x_RELEASE_V1.0.2/MSDK/lwip/libcoap-4.3.4/src\coap_notls.c **** }
  99:C:/Users/stapi/OneDrive/Desktop/GD32VW553/V1_MQTT_OK/GD32VW55X_Wifi_BLE_SDK/GD32VW55x_RELEASE_V1.0.2/MSDK/lwip/libcoap-4.3.4/src\coap_notls.c **** #endif /* COAP_CLIENT_SUPPORT */
 100:C:/Users/stapi/OneDrive/Desktop/GD32VW553/V1_MQTT_OK/GD32VW55X_Wifi_BLE_SDK/GD32VW55x_RELEASE_V1.0.2/MSDK/lwip/libcoap-4.3.4/src\coap_notls.c **** 
 101:C:/Users/stapi/OneDrive/Desktop/GD32VW553/V1_MQTT_OK/GD32VW55X_Wifi_BLE_SDK/GD32VW55x_RELEASE_V1.0.2/MSDK/lwip/libcoap-4.3.4/src\coap_notls.c **** #if COAP_SERVER_SUPPORT
 102:C:/Users/stapi/OneDrive/Desktop/GD32VW553/V1_MQTT_OK/GD32VW55X_Wifi_BLE_SDK/GD32VW55x_RELEASE_V1.0.2/MSDK/lwip/libcoap-4.3.4/src\coap_notls.c **** int
 103:C:/Users/stapi/OneDrive/Desktop/GD32VW553/V1_MQTT_OK/GD32VW55X_Wifi_BLE_SDK/GD32VW55x_RELEASE_V1.0.2/MSDK/lwip/libcoap-4.3.4/src\coap_notls.c **** coap_dtls_context_set_spsk(coap_context_t *ctx COAP_UNUSED,
 104:C:/Users/stapi/OneDrive/Desktop/GD32VW553/V1_MQTT_OK/GD32VW55X_Wifi_BLE_SDK/GD32VW55x_RELEASE_V1.0.2/MSDK/lwip/libcoap-4.3.4/src\coap_notls.c ****                            coap_dtls_spsk_t *setup_data COAP_UNUSED
 105:C:/Users/stapi/OneDrive/Desktop/GD32VW553/V1_MQTT_OK/GD32VW55X_Wifi_BLE_SDK/GD32VW55x_RELEASE_V1.0.2/MSDK/lwip/libcoap-4.3.4/src\coap_notls.c ****                           ) {
 164              		.loc 1 105 29 is_stmt 1
 165              		.cfi_startproc
 166              	.LVL4:
 106:C:/Users/stapi/OneDrive/Desktop/GD32VW553/V1_MQTT_OK/GD32VW55X_Wifi_BLE_SDK/GD32VW55x_RELEASE_V1.0.2/MSDK/lwip/libcoap-4.3.4/src\coap_notls.c ****   return 0;
 167              		.loc 1 106 3
 107:C:/Users/stapi/OneDrive/Desktop/GD32VW553/V1_MQTT_OK/GD32VW55X_Wifi_BLE_SDK/GD32VW55x_RELEASE_V1.0.2/MSDK/lwip/libcoap-4.3.4/src\coap_notls.c **** }
 168              		.loc 1 107 1 is_stmt 0
 169 0000 0145     		li	a0,0
 170              	.LVL5:
 171 0002 8280     		ret
 172              		.cfi_endproc
 173              	.LFE41:
 175              		.section	.text.coap_dtls_context_check_keys_enabled,"ax",@progbits
 176              		.align	1
 177              		.globl	coap_dtls_context_check_keys_enabled
 179              	coap_dtls_context_check_keys_enabled:
 180              	.LFB42:
 108:C:/Users/stapi/OneDrive/Desktop/GD32VW553/V1_MQTT_OK/GD32VW55X_Wifi_BLE_SDK/GD32VW55x_RELEASE_V1.0.2/MSDK/lwip/libcoap-4.3.4/src\coap_notls.c **** #endif /* COAP_SERVER_SUPPORT */
 109:C:/Users/stapi/OneDrive/Desktop/GD32VW553/V1_MQTT_OK/GD32VW55X_Wifi_BLE_SDK/GD32VW55x_RELEASE_V1.0.2/MSDK/lwip/libcoap-4.3.4/src\coap_notls.c **** 
 110:C:/Users/stapi/OneDrive/Desktop/GD32VW553/V1_MQTT_OK/GD32VW55X_Wifi_BLE_SDK/GD32VW55x_RELEASE_V1.0.2/MSDK/lwip/libcoap-4.3.4/src\coap_notls.c **** int
 111:C:/Users/stapi/OneDrive/Desktop/GD32VW553/V1_MQTT_OK/GD32VW55X_Wifi_BLE_SDK/GD32VW55x_RELEASE_V1.0.2/MSDK/lwip/libcoap-4.3.4/src\coap_notls.c **** coap_dtls_context_check_keys_enabled(coap_context_t *ctx COAP_UNUSED) {
 181              		.loc 1 111 71 is_stmt 1
 182              		.cfi_startproc
 183              	.LVL6:
 112:C:/Users/stapi/OneDrive/Desktop/GD32VW553/V1_MQTT_OK/GD32VW55X_Wifi_BLE_SDK/GD32VW55x_RELEASE_V1.0.2/MSDK/lwip/libcoap-4.3.4/src\coap_notls.c ****   return 0;
 184              		.loc 1 112 3
 113:C:/Users/stapi/OneDrive/Desktop/GD32VW553/V1_MQTT_OK/GD32VW55X_Wifi_BLE_SDK/GD32VW55x_RELEASE_V1.0.2/MSDK/lwip/libcoap-4.3.4/src\coap_notls.c **** }
 185              		.loc 1 113 1 is_stmt 0
 186 0000 0145     		li	a0,0
 187              	.LVL7:
 188 0002 8280     		ret
 189              		.cfi_endproc
 190              	.LFE42:
 192              		.section	.text.coap_dtls_startup,"ax",@progbits
 193              		.align	1
 194              		.globl	coap_dtls_startup
 196              	coap_dtls_startup:
 197              	.LFB43:
 114:C:/Users/stapi/OneDrive/Desktop/GD32VW553/V1_MQTT_OK/GD32VW55X_Wifi_BLE_SDK/GD32VW55x_RELEASE_V1.0.2/MSDK/lwip/libcoap-4.3.4/src\coap_notls.c **** 
 115:C:/Users/stapi/OneDrive/Desktop/GD32VW553/V1_MQTT_OK/GD32VW55X_Wifi_BLE_SDK/GD32VW55x_RELEASE_V1.0.2/MSDK/lwip/libcoap-4.3.4/src\coap_notls.c **** static coap_log_t dtls_log_level = COAP_LOG_EMERG;
 116:C:/Users/stapi/OneDrive/Desktop/GD32VW553/V1_MQTT_OK/GD32VW55X_Wifi_BLE_SDK/GD32VW55x_RELEASE_V1.0.2/MSDK/lwip/libcoap-4.3.4/src\coap_notls.c **** 
 117:C:/Users/stapi/OneDrive/Desktop/GD32VW553/V1_MQTT_OK/GD32VW55X_Wifi_BLE_SDK/GD32VW55x_RELEASE_V1.0.2/MSDK/lwip/libcoap-4.3.4/src\coap_notls.c **** void
 118:C:/Users/stapi/OneDrive/Desktop/GD32VW553/V1_MQTT_OK/GD32VW55X_Wifi_BLE_SDK/GD32VW55x_RELEASE_V1.0.2/MSDK/lwip/libcoap-4.3.4/src\coap_notls.c **** coap_dtls_startup(void) {
 198              		.loc 1 118 25 is_stmt 1
 199              		.cfi_startproc
 119:C:/Users/stapi/OneDrive/Desktop/GD32VW553/V1_MQTT_OK/GD32VW55X_Wifi_BLE_SDK/GD32VW55x_RELEASE_V1.0.2/MSDK/lwip/libcoap-4.3.4/src\coap_notls.c **** }
 200              		.loc 1 119 1
 201 0000 8280     		ret
 202              		.cfi_endproc
 203              	.LFE43:
 205              		.section	.text.coap_dtls_get_tls,"ax",@progbits
 206              		.align	1
 207              		.globl	coap_dtls_get_tls
 209              	coap_dtls_get_tls:
 210              	.LFB44:
 120:C:/Users/stapi/OneDrive/Desktop/GD32VW553/V1_MQTT_OK/GD32VW55X_Wifi_BLE_SDK/GD32VW55x_RELEASE_V1.0.2/MSDK/lwip/libcoap-4.3.4/src\coap_notls.c **** 
 121:C:/Users/stapi/OneDrive/Desktop/GD32VW553/V1_MQTT_OK/GD32VW55X_Wifi_BLE_SDK/GD32VW55x_RELEASE_V1.0.2/MSDK/lwip/libcoap-4.3.4/src\coap_notls.c **** void *
 122:C:/Users/stapi/OneDrive/Desktop/GD32VW553/V1_MQTT_OK/GD32VW55X_Wifi_BLE_SDK/GD32VW55x_RELEASE_V1.0.2/MSDK/lwip/libcoap-4.3.4/src\coap_notls.c **** coap_dtls_get_tls(const coap_session_t *c_session COAP_UNUSED,
 123:C:/Users/stapi/OneDrive/Desktop/GD32VW553/V1_MQTT_OK/GD32VW55X_Wifi_BLE_SDK/GD32VW55x_RELEASE_V1.0.2/MSDK/lwip/libcoap-4.3.4/src\coap_notls.c ****                   coap_tls_library_t *tls_lib) {
 211              		.loc 1 123 48
 212              		.cfi_startproc
 213              	.LVL8:
 124:C:/Users/stapi/OneDrive/Desktop/GD32VW553/V1_MQTT_OK/GD32VW55X_Wifi_BLE_SDK/GD32VW55x_RELEASE_V1.0.2/MSDK/lwip/libcoap-4.3.4/src\coap_notls.c ****   if (tls_lib)
 214              		.loc 1 124 3
 215              		.loc 1 124 6 is_stmt 0
 216 0000 99C1     		beq	a1,zero,.L15
 125:C:/Users/stapi/OneDrive/Desktop/GD32VW553/V1_MQTT_OK/GD32VW55X_Wifi_BLE_SDK/GD32VW55x_RELEASE_V1.0.2/MSDK/lwip/libcoap-4.3.4/src\coap_notls.c ****     *tls_lib = COAP_TLS_LIBRARY_NOTLS;
 217              		.loc 1 125 5 is_stmt 1
 218              		.loc 1 125 14 is_stmt 0
 219 0002 23A00500 		sw	zero,0(a1)
 220              	.L15:
 126:C:/Users/stapi/OneDrive/Desktop/GD32VW553/V1_MQTT_OK/GD32VW55X_Wifi_BLE_SDK/GD32VW55x_RELEASE_V1.0.2/MSDK/lwip/libcoap-4.3.4/src\coap_notls.c ****   return NULL;
 221              		.loc 1 126 3 is_stmt 1
 127:C:/Users/stapi/OneDrive/Desktop/GD32VW553/V1_MQTT_OK/GD32VW55X_Wifi_BLE_SDK/GD32VW55x_RELEASE_V1.0.2/MSDK/lwip/libcoap-4.3.4/src\coap_notls.c **** }
 222              		.loc 1 127 1 is_stmt 0
 223 0006 0145     		li	a0,0
 224              	.LVL9:
 225 0008 8280     		ret
 226              		.cfi_endproc
 227              	.LFE44:
 229              		.section	.text.coap_dtls_shutdown,"ax",@progbits
 230              		.align	1
 231              		.globl	coap_dtls_shutdown
 233              	coap_dtls_shutdown:
 234              	.LFB45:
 128:C:/Users/stapi/OneDrive/Desktop/GD32VW553/V1_MQTT_OK/GD32VW55X_Wifi_BLE_SDK/GD32VW55x_RELEASE_V1.0.2/MSDK/lwip/libcoap-4.3.4/src\coap_notls.c **** 
 129:C:/Users/stapi/OneDrive/Desktop/GD32VW553/V1_MQTT_OK/GD32VW55X_Wifi_BLE_SDK/GD32VW55x_RELEASE_V1.0.2/MSDK/lwip/libcoap-4.3.4/src\coap_notls.c **** void
 130:C:/Users/stapi/OneDrive/Desktop/GD32VW553/V1_MQTT_OK/GD32VW55X_Wifi_BLE_SDK/GD32VW55x_RELEASE_V1.0.2/MSDK/lwip/libcoap-4.3.4/src\coap_notls.c **** coap_dtls_shutdown(void) {
 235              		.loc 1 130 26 is_stmt 1
 236              		.cfi_startproc
 131:C:/Users/stapi/OneDrive/Desktop/GD32VW553/V1_MQTT_OK/GD32VW55X_Wifi_BLE_SDK/GD32VW55x_RELEASE_V1.0.2/MSDK/lwip/libcoap-4.3.4/src\coap_notls.c ****   coap_dtls_set_log_level(COAP_LOG_EMERG);
 237              		.loc 1 131 3
 238              	.LVL10:
 239              	.LBB4:
 240              	.LBB5:
 132:C:/Users/stapi/OneDrive/Desktop/GD32VW553/V1_MQTT_OK/GD32VW55X_Wifi_BLE_SDK/GD32VW55x_RELEASE_V1.0.2/MSDK/lwip/libcoap-4.3.4/src\coap_notls.c **** }
 133:C:/Users/stapi/OneDrive/Desktop/GD32VW553/V1_MQTT_OK/GD32VW55X_Wifi_BLE_SDK/GD32VW55x_RELEASE_V1.0.2/MSDK/lwip/libcoap-4.3.4/src\coap_notls.c **** 
 134:C:/Users/stapi/OneDrive/Desktop/GD32VW553/V1_MQTT_OK/GD32VW55X_Wifi_BLE_SDK/GD32VW55x_RELEASE_V1.0.2/MSDK/lwip/libcoap-4.3.4/src\coap_notls.c **** void
 135:C:/Users/stapi/OneDrive/Desktop/GD32VW553/V1_MQTT_OK/GD32VW55X_Wifi_BLE_SDK/GD32VW55x_RELEASE_V1.0.2/MSDK/lwip/libcoap-4.3.4/src\coap_notls.c **** coap_dtls_set_log_level(coap_log_t level) {
 136:C:/Users/stapi/OneDrive/Desktop/GD32VW553/V1_MQTT_OK/GD32VW55X_Wifi_BLE_SDK/GD32VW55x_RELEASE_V1.0.2/MSDK/lwip/libcoap-4.3.4/src\coap_notls.c ****   dtls_log_level = level;
 241              		.loc 1 136 3
 242              		.loc 1 136 18 is_stmt 0
 243 0000 B7070000 		lui	a5,%hi(.LANCHOR1)
 244 0004 23A00700 		sw	zero,%lo(.LANCHOR1)(a5)
 245              	.LVL11:
 246              	.LBE5:
 247              	.LBE4:
 132:C:/Users/stapi/OneDrive/Desktop/GD32VW553/V1_MQTT_OK/GD32VW55X_Wifi_BLE_SDK/GD32VW55x_RELEASE_V1.0.2/MSDK/lwip/libcoap-4.3.4/src\coap_notls.c **** }
 248              		.loc 1 132 1
 249 0008 8280     		ret
 250              		.cfi_endproc
 251              	.LFE45:
 253              		.section	.text.coap_dtls_set_log_level,"ax",@progbits
 254              		.align	1
 255              		.globl	coap_dtls_set_log_level
 257              	coap_dtls_set_log_level:
 258              	.LFB46:
 135:C:/Users/stapi/OneDrive/Desktop/GD32VW553/V1_MQTT_OK/GD32VW55X_Wifi_BLE_SDK/GD32VW55x_RELEASE_V1.0.2/MSDK/lwip/libcoap-4.3.4/src\coap_notls.c ****   dtls_log_level = level;
 259              		.loc 1 135 43 is_stmt 1
 260              		.cfi_startproc
 261              	.LVL12:
 262              		.loc 1 136 3
 263              		.loc 1 136 18 is_stmt 0
 264 0000 B7070000 		lui	a5,%hi(.LANCHOR1)
 265 0004 23A0A700 		sw	a0,%lo(.LANCHOR1)(a5)
 137:C:/Users/stapi/OneDrive/Desktop/GD32VW553/V1_MQTT_OK/GD32VW55X_Wifi_BLE_SDK/GD32VW55x_RELEASE_V1.0.2/MSDK/lwip/libcoap-4.3.4/src\coap_notls.c **** }
 266              		.loc 1 137 1
 267 0008 8280     		ret
 268              		.cfi_endproc
 269              	.LFE46:
 271              		.section	.text.coap_dtls_get_log_level,"ax",@progbits
 272              		.align	1
 273              		.globl	coap_dtls_get_log_level
 275              	coap_dtls_get_log_level:
 276              	.LFB47:
 138:C:/Users/stapi/OneDrive/Desktop/GD32VW553/V1_MQTT_OK/GD32VW55X_Wifi_BLE_SDK/GD32VW55x_RELEASE_V1.0.2/MSDK/lwip/libcoap-4.3.4/src\coap_notls.c **** 
 139:C:/Users/stapi/OneDrive/Desktop/GD32VW553/V1_MQTT_OK/GD32VW55X_Wifi_BLE_SDK/GD32VW55x_RELEASE_V1.0.2/MSDK/lwip/libcoap-4.3.4/src\coap_notls.c **** coap_log_t
 140:C:/Users/stapi/OneDrive/Desktop/GD32VW553/V1_MQTT_OK/GD32VW55X_Wifi_BLE_SDK/GD32VW55x_RELEASE_V1.0.2/MSDK/lwip/libcoap-4.3.4/src\coap_notls.c **** coap_dtls_get_log_level(void) {
 277              		.loc 1 140 31 is_stmt 1
 278              		.cfi_startproc
 141:C:/Users/stapi/OneDrive/Desktop/GD32VW553/V1_MQTT_OK/GD32VW55X_Wifi_BLE_SDK/GD32VW55x_RELEASE_V1.0.2/MSDK/lwip/libcoap-4.3.4/src\coap_notls.c ****   return dtls_log_level;
 279              		.loc 1 141 3
 142:C:/Users/stapi/OneDrive/Desktop/GD32VW553/V1_MQTT_OK/GD32VW55X_Wifi_BLE_SDK/GD32VW55x_RELEASE_V1.0.2/MSDK/lwip/libcoap-4.3.4/src\coap_notls.c **** }
 280              		.loc 1 142 1 is_stmt 0
 281 0000 B7070000 		lui	a5,%hi(.LANCHOR1)
 282 0004 03A50700 		lw	a0,%lo(.LANCHOR1)(a5)
 283 0008 8280     		ret
 284              		.cfi_endproc
 285              	.LFE47:
 287              		.section	.text.coap_dtls_new_context,"ax",@progbits
 288              		.align	1
 289              		.globl	coap_dtls_new_context
 291              	coap_dtls_new_context:
 292              	.LFB48:
 143:C:/Users/stapi/OneDrive/Desktop/GD32VW553/V1_MQTT_OK/GD32VW55X_Wifi_BLE_SDK/GD32VW55x_RELEASE_V1.0.2/MSDK/lwip/libcoap-4.3.4/src\coap_notls.c **** 
 144:C:/Users/stapi/OneDrive/Desktop/GD32VW553/V1_MQTT_OK/GD32VW55X_Wifi_BLE_SDK/GD32VW55x_RELEASE_V1.0.2/MSDK/lwip/libcoap-4.3.4/src\coap_notls.c **** void *
 145:C:/Users/stapi/OneDrive/Desktop/GD32VW553/V1_MQTT_OK/GD32VW55X_Wifi_BLE_SDK/GD32VW55x_RELEASE_V1.0.2/MSDK/lwip/libcoap-4.3.4/src\coap_notls.c **** coap_dtls_new_context(coap_context_t *coap_context COAP_UNUSED) {
 293              		.loc 1 145 65 is_stmt 1
 294              		.cfi_startproc
 295              	.LVL13:
 146:C:/Users/stapi/OneDrive/Desktop/GD32VW553/V1_MQTT_OK/GD32VW55X_Wifi_BLE_SDK/GD32VW55x_RELEASE_V1.0.2/MSDK/lwip/libcoap-4.3.4/src\coap_notls.c ****   return NULL;
 296              		.loc 1 146 3
 147:C:/Users/stapi/OneDrive/Desktop/GD32VW553/V1_MQTT_OK/GD32VW55X_Wifi_BLE_SDK/GD32VW55x_RELEASE_V1.0.2/MSDK/lwip/libcoap-4.3.4/src\coap_notls.c **** }
 297              		.loc 1 147 1 is_stmt 0
 298 0000 0145     		li	a0,0
 299              	.LVL14:
 300 0002 8280     		ret
 301              		.cfi_endproc
 302              	.LFE48:
 304              		.section	.text.coap_dtls_free_context,"ax",@progbits
 305              		.align	1
 306              		.globl	coap_dtls_free_context
 308              	coap_dtls_free_context:
 309              	.LFB49:
 148:C:/Users/stapi/OneDrive/Desktop/GD32VW553/V1_MQTT_OK/GD32VW55X_Wifi_BLE_SDK/GD32VW55x_RELEASE_V1.0.2/MSDK/lwip/libcoap-4.3.4/src\coap_notls.c **** 
 149:C:/Users/stapi/OneDrive/Desktop/GD32VW553/V1_MQTT_OK/GD32VW55X_Wifi_BLE_SDK/GD32VW55x_RELEASE_V1.0.2/MSDK/lwip/libcoap-4.3.4/src\coap_notls.c **** void
 150:C:/Users/stapi/OneDrive/Desktop/GD32VW553/V1_MQTT_OK/GD32VW55X_Wifi_BLE_SDK/GD32VW55x_RELEASE_V1.0.2/MSDK/lwip/libcoap-4.3.4/src\coap_notls.c **** coap_dtls_free_context(void *handle COAP_UNUSED) {
 310              		.loc 1 150 50 is_stmt 1
 311              		.cfi_startproc
 312              	.LVL15:
 151:C:/Users/stapi/OneDrive/Desktop/GD32VW553/V1_MQTT_OK/GD32VW55X_Wifi_BLE_SDK/GD32VW55x_RELEASE_V1.0.2/MSDK/lwip/libcoap-4.3.4/src\coap_notls.c **** }
 313              		.loc 1 151 1
 314 0000 8280     		ret
 315              		.cfi_endproc
 316              	.LFE49:
 318              		.section	.text.coap_dtls_new_server_session,"ax",@progbits
 319              		.align	1
 320              		.globl	coap_dtls_new_server_session
 322              	coap_dtls_new_server_session:
 323              	.LFB84:
 324              		.cfi_startproc
 325 0000 0145     		li	a0,0
 326 0002 8280     		ret
 327              		.cfi_endproc
 328              	.LFE84:
 330              		.section	.text.coap_dtls_new_client_session,"ax",@progbits
 331              		.align	1
 332              		.globl	coap_dtls_new_client_session
 334              	coap_dtls_new_client_session:
 335              	.LFB82:
 336              		.cfi_startproc
 337 0000 0145     		li	a0,0
 338 0002 8280     		ret
 339              		.cfi_endproc
 340              	.LFE82:
 342              		.section	.text.coap_dtls_free_session,"ax",@progbits
 343              		.align	1
 344              		.globl	coap_dtls_free_session
 346              	coap_dtls_free_session:
 347              	.LFB98:
 348              		.cfi_startproc
 349 0000 8280     		ret
 350              		.cfi_endproc
 351              	.LFE98:
 353              		.section	.text.coap_dtls_session_update_mtu,"ax",@progbits
 354              		.align	1
 355              		.globl	coap_dtls_session_update_mtu
 357              	coap_dtls_session_update_mtu:
 358              	.LFB100:
 359              		.cfi_startproc
 360 0000 8280     		ret
 361              		.cfi_endproc
 362              	.LFE100:
 364              		.section	.text.coap_dtls_send,"ax",@progbits
 365              		.align	1
 366              		.globl	coap_dtls_send
 368              	coap_dtls_send:
 369              	.LFB54:
 152:C:/Users/stapi/OneDrive/Desktop/GD32VW553/V1_MQTT_OK/GD32VW55X_Wifi_BLE_SDK/GD32VW55x_RELEASE_V1.0.2/MSDK/lwip/libcoap-4.3.4/src\coap_notls.c **** 
 153:C:/Users/stapi/OneDrive/Desktop/GD32VW553/V1_MQTT_OK/GD32VW55X_Wifi_BLE_SDK/GD32VW55x_RELEASE_V1.0.2/MSDK/lwip/libcoap-4.3.4/src\coap_notls.c **** #if COAP_SERVER_SUPPORT
 154:C:/Users/stapi/OneDrive/Desktop/GD32VW553/V1_MQTT_OK/GD32VW55X_Wifi_BLE_SDK/GD32VW55x_RELEASE_V1.0.2/MSDK/lwip/libcoap-4.3.4/src\coap_notls.c **** void *
 155:C:/Users/stapi/OneDrive/Desktop/GD32VW553/V1_MQTT_OK/GD32VW55X_Wifi_BLE_SDK/GD32VW55x_RELEASE_V1.0.2/MSDK/lwip/libcoap-4.3.4/src\coap_notls.c **** coap_dtls_new_server_session(coap_session_t *session COAP_UNUSED) {
 156:C:/Users/stapi/OneDrive/Desktop/GD32VW553/V1_MQTT_OK/GD32VW55X_Wifi_BLE_SDK/GD32VW55x_RELEASE_V1.0.2/MSDK/lwip/libcoap-4.3.4/src\coap_notls.c ****   return NULL;
 157:C:/Users/stapi/OneDrive/Desktop/GD32VW553/V1_MQTT_OK/GD32VW55X_Wifi_BLE_SDK/GD32VW55x_RELEASE_V1.0.2/MSDK/lwip/libcoap-4.3.4/src\coap_notls.c **** }
 158:C:/Users/stapi/OneDrive/Desktop/GD32VW553/V1_MQTT_OK/GD32VW55X_Wifi_BLE_SDK/GD32VW55x_RELEASE_V1.0.2/MSDK/lwip/libcoap-4.3.4/src\coap_notls.c **** #endif /* COAP_SERVER_SUPPORT */
 159:C:/Users/stapi/OneDrive/Desktop/GD32VW553/V1_MQTT_OK/GD32VW55X_Wifi_BLE_SDK/GD32VW55x_RELEASE_V1.0.2/MSDK/lwip/libcoap-4.3.4/src\coap_notls.c **** 
 160:C:/Users/stapi/OneDrive/Desktop/GD32VW553/V1_MQTT_OK/GD32VW55X_Wifi_BLE_SDK/GD32VW55x_RELEASE_V1.0.2/MSDK/lwip/libcoap-4.3.4/src\coap_notls.c **** #if COAP_CLIENT_SUPPORT
 161:C:/Users/stapi/OneDrive/Desktop/GD32VW553/V1_MQTT_OK/GD32VW55X_Wifi_BLE_SDK/GD32VW55x_RELEASE_V1.0.2/MSDK/lwip/libcoap-4.3.4/src\coap_notls.c **** void *
 162:C:/Users/stapi/OneDrive/Desktop/GD32VW553/V1_MQTT_OK/GD32VW55X_Wifi_BLE_SDK/GD32VW55x_RELEASE_V1.0.2/MSDK/lwip/libcoap-4.3.4/src\coap_notls.c **** coap_dtls_new_client_session(coap_session_t *session COAP_UNUSED) {
 163:C:/Users/stapi/OneDrive/Desktop/GD32VW553/V1_MQTT_OK/GD32VW55X_Wifi_BLE_SDK/GD32VW55x_RELEASE_V1.0.2/MSDK/lwip/libcoap-4.3.4/src\coap_notls.c ****   return NULL;
 164:C:/Users/stapi/OneDrive/Desktop/GD32VW553/V1_MQTT_OK/GD32VW55X_Wifi_BLE_SDK/GD32VW55x_RELEASE_V1.0.2/MSDK/lwip/libcoap-4.3.4/src\coap_notls.c **** }
 165:C:/Users/stapi/OneDrive/Desktop/GD32VW553/V1_MQTT_OK/GD32VW55X_Wifi_BLE_SDK/GD32VW55x_RELEASE_V1.0.2/MSDK/lwip/libcoap-4.3.4/src\coap_notls.c **** #endif /* COAP_CLIENT_SUPPORT */
 166:C:/Users/stapi/OneDrive/Desktop/GD32VW553/V1_MQTT_OK/GD32VW55X_Wifi_BLE_SDK/GD32VW55x_RELEASE_V1.0.2/MSDK/lwip/libcoap-4.3.4/src\coap_notls.c **** 
 167:C:/Users/stapi/OneDrive/Desktop/GD32VW553/V1_MQTT_OK/GD32VW55X_Wifi_BLE_SDK/GD32VW55x_RELEASE_V1.0.2/MSDK/lwip/libcoap-4.3.4/src\coap_notls.c **** void
 168:C:/Users/stapi/OneDrive/Desktop/GD32VW553/V1_MQTT_OK/GD32VW55X_Wifi_BLE_SDK/GD32VW55x_RELEASE_V1.0.2/MSDK/lwip/libcoap-4.3.4/src\coap_notls.c **** coap_dtls_free_session(coap_session_t *coap_session COAP_UNUSED) {
 169:C:/Users/stapi/OneDrive/Desktop/GD32VW553/V1_MQTT_OK/GD32VW55X_Wifi_BLE_SDK/GD32VW55x_RELEASE_V1.0.2/MSDK/lwip/libcoap-4.3.4/src\coap_notls.c **** }
 170:C:/Users/stapi/OneDrive/Desktop/GD32VW553/V1_MQTT_OK/GD32VW55X_Wifi_BLE_SDK/GD32VW55x_RELEASE_V1.0.2/MSDK/lwip/libcoap-4.3.4/src\coap_notls.c **** 
 171:C:/Users/stapi/OneDrive/Desktop/GD32VW553/V1_MQTT_OK/GD32VW55X_Wifi_BLE_SDK/GD32VW55x_RELEASE_V1.0.2/MSDK/lwip/libcoap-4.3.4/src\coap_notls.c **** void
 172:C:/Users/stapi/OneDrive/Desktop/GD32VW553/V1_MQTT_OK/GD32VW55X_Wifi_BLE_SDK/GD32VW55x_RELEASE_V1.0.2/MSDK/lwip/libcoap-4.3.4/src\coap_notls.c **** coap_dtls_session_update_mtu(coap_session_t *session COAP_UNUSED) {
 173:C:/Users/stapi/OneDrive/Desktop/GD32VW553/V1_MQTT_OK/GD32VW55X_Wifi_BLE_SDK/GD32VW55x_RELEASE_V1.0.2/MSDK/lwip/libcoap-4.3.4/src\coap_notls.c **** }
 174:C:/Users/stapi/OneDrive/Desktop/GD32VW553/V1_MQTT_OK/GD32VW55X_Wifi_BLE_SDK/GD32VW55x_RELEASE_V1.0.2/MSDK/lwip/libcoap-4.3.4/src\coap_notls.c **** 
 175:C:/Users/stapi/OneDrive/Desktop/GD32VW553/V1_MQTT_OK/GD32VW55X_Wifi_BLE_SDK/GD32VW55x_RELEASE_V1.0.2/MSDK/lwip/libcoap-4.3.4/src\coap_notls.c **** ssize_t
 176:C:/Users/stapi/OneDrive/Desktop/GD32VW553/V1_MQTT_OK/GD32VW55X_Wifi_BLE_SDK/GD32VW55x_RELEASE_V1.0.2/MSDK/lwip/libcoap-4.3.4/src\coap_notls.c **** coap_dtls_send(coap_session_t *session COAP_UNUSED,
 177:C:/Users/stapi/OneDrive/Desktop/GD32VW553/V1_MQTT_OK/GD32VW55X_Wifi_BLE_SDK/GD32VW55x_RELEASE_V1.0.2/MSDK/lwip/libcoap-4.3.4/src\coap_notls.c ****                const uint8_t *data COAP_UNUSED,
 178:C:/Users/stapi/OneDrive/Desktop/GD32VW553/V1_MQTT_OK/GD32VW55X_Wifi_BLE_SDK/GD32VW55x_RELEASE_V1.0.2/MSDK/lwip/libcoap-4.3.4/src\coap_notls.c ****                size_t data_len COAP_UNUSED) {
 370              		.loc 1 178 45
 371              		.cfi_startproc
 372              	.LVL16:
 179:C:/Users/stapi/OneDrive/Desktop/GD32VW553/V1_MQTT_OK/GD32VW55X_Wifi_BLE_SDK/GD32VW55x_RELEASE_V1.0.2/MSDK/lwip/libcoap-4.3.4/src\coap_notls.c ****   return -1;
 373              		.loc 1 179 3
 180:C:/Users/stapi/OneDrive/Desktop/GD32VW553/V1_MQTT_OK/GD32VW55X_Wifi_BLE_SDK/GD32VW55x_RELEASE_V1.0.2/MSDK/lwip/libcoap-4.3.4/src\coap_notls.c **** }
 374              		.loc 1 180 1 is_stmt 0
 375 0000 7D55     		li	a0,-1
 376              	.LVL17:
 377 0002 8280     		ret
 378              		.cfi_endproc
 379              	.LFE54:
 381              		.section	.text.coap_dtls_is_context_timeout,"ax",@progbits
 382              		.align	1
 383              		.globl	coap_dtls_is_context_timeout
 385              	coap_dtls_is_context_timeout:
 386              	.LFB55:
 181:C:/Users/stapi/OneDrive/Desktop/GD32VW553/V1_MQTT_OK/GD32VW55X_Wifi_BLE_SDK/GD32VW55x_RELEASE_V1.0.2/MSDK/lwip/libcoap-4.3.4/src\coap_notls.c **** 
 182:C:/Users/stapi/OneDrive/Desktop/GD32VW553/V1_MQTT_OK/GD32VW55X_Wifi_BLE_SDK/GD32VW55x_RELEASE_V1.0.2/MSDK/lwip/libcoap-4.3.4/src\coap_notls.c **** int
 183:C:/Users/stapi/OneDrive/Desktop/GD32VW553/V1_MQTT_OK/GD32VW55X_Wifi_BLE_SDK/GD32VW55x_RELEASE_V1.0.2/MSDK/lwip/libcoap-4.3.4/src\coap_notls.c **** coap_dtls_is_context_timeout(void) {
 387              		.loc 1 183 36 is_stmt 1
 388              		.cfi_startproc
 184:C:/Users/stapi/OneDrive/Desktop/GD32VW553/V1_MQTT_OK/GD32VW55X_Wifi_BLE_SDK/GD32VW55x_RELEASE_V1.0.2/MSDK/lwip/libcoap-4.3.4/src\coap_notls.c ****   return 1;
 389              		.loc 1 184 3
 185:C:/Users/stapi/OneDrive/Desktop/GD32VW553/V1_MQTT_OK/GD32VW55X_Wifi_BLE_SDK/GD32VW55x_RELEASE_V1.0.2/MSDK/lwip/libcoap-4.3.4/src\coap_notls.c **** }
 390              		.loc 1 185 1 is_stmt 0
 391 0000 0545     		li	a0,1
 392 0002 8280     		ret
 393              		.cfi_endproc
 394              	.LFE55:
 396              		.section	.text.coap_dtls_get_context_timeout,"ax",@progbits
 397              		.align	1
 398              		.globl	coap_dtls_get_context_timeout
 400              	coap_dtls_get_context_timeout:
 401              	.LFB56:
 186:C:/Users/stapi/OneDrive/Desktop/GD32VW553/V1_MQTT_OK/GD32VW55X_Wifi_BLE_SDK/GD32VW55x_RELEASE_V1.0.2/MSDK/lwip/libcoap-4.3.4/src\coap_notls.c **** 
 187:C:/Users/stapi/OneDrive/Desktop/GD32VW553/V1_MQTT_OK/GD32VW55X_Wifi_BLE_SDK/GD32VW55x_RELEASE_V1.0.2/MSDK/lwip/libcoap-4.3.4/src\coap_notls.c **** coap_tick_t
 188:C:/Users/stapi/OneDrive/Desktop/GD32VW553/V1_MQTT_OK/GD32VW55X_Wifi_BLE_SDK/GD32VW55x_RELEASE_V1.0.2/MSDK/lwip/libcoap-4.3.4/src\coap_notls.c **** coap_dtls_get_context_timeout(void *dtls_context COAP_UNUSED) {
 402              		.loc 1 188 63 is_stmt 1
 403              		.cfi_startproc
 404              	.LVL18:
 189:C:/Users/stapi/OneDrive/Desktop/GD32VW553/V1_MQTT_OK/GD32VW55X_Wifi_BLE_SDK/GD32VW55x_RELEASE_V1.0.2/MSDK/lwip/libcoap-4.3.4/src\coap_notls.c ****   return 0;
 405              		.loc 1 189 3
 190:C:/Users/stapi/OneDrive/Desktop/GD32VW553/V1_MQTT_OK/GD32VW55X_Wifi_BLE_SDK/GD32VW55x_RELEASE_V1.0.2/MSDK/lwip/libcoap-4.3.4/src\coap_notls.c **** }
 406              		.loc 1 190 1 is_stmt 0
 407 0000 0145     		li	a0,0
 408              	.LVL19:
 409 0002 8280     		ret
 410              		.cfi_endproc
 411              	.LFE56:
 413              		.section	.text.coap_dtls_get_timeout,"ax",@progbits
 414              		.align	1
 415              		.globl	coap_dtls_get_timeout
 417              	coap_dtls_get_timeout:
 418              	.LFB57:
 191:C:/Users/stapi/OneDrive/Desktop/GD32VW553/V1_MQTT_OK/GD32VW55X_Wifi_BLE_SDK/GD32VW55x_RELEASE_V1.0.2/MSDK/lwip/libcoap-4.3.4/src\coap_notls.c **** 
 192:C:/Users/stapi/OneDrive/Desktop/GD32VW553/V1_MQTT_OK/GD32VW55X_Wifi_BLE_SDK/GD32VW55x_RELEASE_V1.0.2/MSDK/lwip/libcoap-4.3.4/src\coap_notls.c **** coap_tick_t
 193:C:/Users/stapi/OneDrive/Desktop/GD32VW553/V1_MQTT_OK/GD32VW55X_Wifi_BLE_SDK/GD32VW55x_RELEASE_V1.0.2/MSDK/lwip/libcoap-4.3.4/src\coap_notls.c **** coap_dtls_get_timeout(coap_session_t *session COAP_UNUSED, coap_tick_t now COAP_UNUSED) {
 419              		.loc 1 193 89 is_stmt 1
 420              		.cfi_startproc
 421              	.LVL20:
 194:C:/Users/stapi/OneDrive/Desktop/GD32VW553/V1_MQTT_OK/GD32VW55X_Wifi_BLE_SDK/GD32VW55x_RELEASE_V1.0.2/MSDK/lwip/libcoap-4.3.4/src\coap_notls.c ****   return 0;
 422              		.loc 1 194 3
 195:C:/Users/stapi/OneDrive/Desktop/GD32VW553/V1_MQTT_OK/GD32VW55X_Wifi_BLE_SDK/GD32VW55x_RELEASE_V1.0.2/MSDK/lwip/libcoap-4.3.4/src\coap_notls.c **** }
 423              		.loc 1 195 1 is_stmt 0
 424 0000 0145     		li	a0,0
 425              	.LVL21:
 426 0002 8280     		ret
 427              		.cfi_endproc
 428              	.LFE57:
 430              		.section	.text.coap_dtls_handle_timeout,"ax",@progbits
 431              		.align	1
 432              		.globl	coap_dtls_handle_timeout
 434              	coap_dtls_handle_timeout:
 435              	.LFB90:
 436              		.cfi_startproc
 437 0000 0145     		li	a0,0
 438 0002 8280     		ret
 439              		.cfi_endproc
 440              	.LFE90:
 442              		.section	.text.coap_dtls_receive,"ax",@progbits
 443              		.align	1
 444              		.globl	coap_dtls_receive
 446              	coap_dtls_receive:
 447              	.LFB104:
 448              		.cfi_startproc
 449 0000 7D55     		li	a0,-1
 450 0002 8280     		ret
 451              		.cfi_endproc
 452              	.LFE104:
 454              		.section	.text.coap_dtls_hello,"ax",@progbits
 455              		.align	1
 456              		.globl	coap_dtls_hello
 458              	coap_dtls_hello:
 459              	.LFB96:
 460              		.cfi_startproc
 461 0000 0145     		li	a0,0
 462 0002 8280     		ret
 463              		.cfi_endproc
 464              	.LFE96:
 466              		.section	.text.coap_dtls_get_overhead,"ax",@progbits
 467              		.align	1
 468              		.globl	coap_dtls_get_overhead
 470              	coap_dtls_get_overhead:
 471              	.LFB92:
 472              		.cfi_startproc
 473 0000 0145     		li	a0,0
 474 0002 8280     		ret
 475              		.cfi_endproc
 476              	.LFE92:
 478              		.section	.text.coap_tls_new_client_session,"ax",@progbits
 479              		.align	1
 480              		.globl	coap_tls_new_client_session
 482              	coap_tls_new_client_session:
 483              	.LFB86:
 484              		.cfi_startproc
 485 0000 0145     		li	a0,0
 486 0002 8280     		ret
 487              		.cfi_endproc
 488              	.LFE86:
 490              		.section	.text.coap_tls_new_server_session,"ax",@progbits
 491              		.align	1
 492              		.globl	coap_tls_new_server_session
 494              	coap_tls_new_server_session:
 495              	.LFB88:
 496              		.cfi_startproc
 497 0000 0145     		li	a0,0
 498 0002 8280     		ret
 499              		.cfi_endproc
 500              	.LFE88:
 502              		.section	.text.coap_tls_free_session,"ax",@progbits
 503              		.align	1
 504              		.globl	coap_tls_free_session
 506              	coap_tls_free_session:
 507              	.LFB102:
 508              		.cfi_startproc
 509 0000 8280     		ret
 510              		.cfi_endproc
 511              	.LFE102:
 513              		.section	.text.coap_tls_write,"ax",@progbits
 514              		.align	1
 515              		.globl	coap_tls_write
 517              	coap_tls_write:
 518              	.LFB106:
 519              		.cfi_startproc
 520 0000 7D55     		li	a0,-1
 521 0002 8280     		ret
 522              		.cfi_endproc
 523              	.LFE106:
 525              		.section	.text.coap_tls_read,"ax",@progbits
 526              		.align	1
 527              		.globl	coap_tls_read
 529              	coap_tls_read:
 530              	.LFB108:
 531              		.cfi_startproc
 532 0000 7D55     		li	a0,-1
 533 0002 8280     		ret
 534              		.cfi_endproc
 535              	.LFE108:
 537              		.section	.text.coap_digest_setup,"ax",@progbits
 538              		.align	1
 539              		.globl	coap_digest_setup
 541              	coap_digest_setup:
 542              	.LFB67:
 196:C:/Users/stapi/OneDrive/Desktop/GD32VW553/V1_MQTT_OK/GD32VW55X_Wifi_BLE_SDK/GD32VW55x_RELEASE_V1.0.2/MSDK/lwip/libcoap-4.3.4/src\coap_notls.c **** 
 197:C:/Users/stapi/OneDrive/Desktop/GD32VW553/V1_MQTT_OK/GD32VW55X_Wifi_BLE_SDK/GD32VW55x_RELEASE_V1.0.2/MSDK/lwip/libcoap-4.3.4/src\coap_notls.c **** /*
 198:C:/Users/stapi/OneDrive/Desktop/GD32VW553/V1_MQTT_OK/GD32VW55X_Wifi_BLE_SDK/GD32VW55x_RELEASE_V1.0.2/MSDK/lwip/libcoap-4.3.4/src\coap_notls.c ****  * return 1 timed out
 199:C:/Users/stapi/OneDrive/Desktop/GD32VW553/V1_MQTT_OK/GD32VW55X_Wifi_BLE_SDK/GD32VW55x_RELEASE_V1.0.2/MSDK/lwip/libcoap-4.3.4/src\coap_notls.c ****  *        0 still timing out
 200:C:/Users/stapi/OneDrive/Desktop/GD32VW553/V1_MQTT_OK/GD32VW55X_Wifi_BLE_SDK/GD32VW55x_RELEASE_V1.0.2/MSDK/lwip/libcoap-4.3.4/src\coap_notls.c ****  */
 201:C:/Users/stapi/OneDrive/Desktop/GD32VW553/V1_MQTT_OK/GD32VW55X_Wifi_BLE_SDK/GD32VW55x_RELEASE_V1.0.2/MSDK/lwip/libcoap-4.3.4/src\coap_notls.c **** int
 202:C:/Users/stapi/OneDrive/Desktop/GD32VW553/V1_MQTT_OK/GD32VW55X_Wifi_BLE_SDK/GD32VW55x_RELEASE_V1.0.2/MSDK/lwip/libcoap-4.3.4/src\coap_notls.c **** coap_dtls_handle_timeout(coap_session_t *session COAP_UNUSED) {
 203:C:/Users/stapi/OneDrive/Desktop/GD32VW553/V1_MQTT_OK/GD32VW55X_Wifi_BLE_SDK/GD32VW55x_RELEASE_V1.0.2/MSDK/lwip/libcoap-4.3.4/src\coap_notls.c ****   return 0;
 204:C:/Users/stapi/OneDrive/Desktop/GD32VW553/V1_MQTT_OK/GD32VW55X_Wifi_BLE_SDK/GD32VW55x_RELEASE_V1.0.2/MSDK/lwip/libcoap-4.3.4/src\coap_notls.c **** }
 205:C:/Users/stapi/OneDrive/Desktop/GD32VW553/V1_MQTT_OK/GD32VW55X_Wifi_BLE_SDK/GD32VW55x_RELEASE_V1.0.2/MSDK/lwip/libcoap-4.3.4/src\coap_notls.c **** 
 206:C:/Users/stapi/OneDrive/Desktop/GD32VW553/V1_MQTT_OK/GD32VW55X_Wifi_BLE_SDK/GD32VW55x_RELEASE_V1.0.2/MSDK/lwip/libcoap-4.3.4/src\coap_notls.c **** int
 207:C:/Users/stapi/OneDrive/Desktop/GD32VW553/V1_MQTT_OK/GD32VW55X_Wifi_BLE_SDK/GD32VW55x_RELEASE_V1.0.2/MSDK/lwip/libcoap-4.3.4/src\coap_notls.c **** coap_dtls_receive(coap_session_t *session COAP_UNUSED,
 208:C:/Users/stapi/OneDrive/Desktop/GD32VW553/V1_MQTT_OK/GD32VW55X_Wifi_BLE_SDK/GD32VW55x_RELEASE_V1.0.2/MSDK/lwip/libcoap-4.3.4/src\coap_notls.c ****                   const uint8_t *data COAP_UNUSED,
 209:C:/Users/stapi/OneDrive/Desktop/GD32VW553/V1_MQTT_OK/GD32VW55X_Wifi_BLE_SDK/GD32VW55x_RELEASE_V1.0.2/MSDK/lwip/libcoap-4.3.4/src\coap_notls.c ****                   size_t data_len COAP_UNUSED
 210:C:/Users/stapi/OneDrive/Desktop/GD32VW553/V1_MQTT_OK/GD32VW55X_Wifi_BLE_SDK/GD32VW55x_RELEASE_V1.0.2/MSDK/lwip/libcoap-4.3.4/src\coap_notls.c ****                  ) {
 211:C:/Users/stapi/OneDrive/Desktop/GD32VW553/V1_MQTT_OK/GD32VW55X_Wifi_BLE_SDK/GD32VW55x_RELEASE_V1.0.2/MSDK/lwip/libcoap-4.3.4/src\coap_notls.c ****   return -1;
 212:C:/Users/stapi/OneDrive/Desktop/GD32VW553/V1_MQTT_OK/GD32VW55X_Wifi_BLE_SDK/GD32VW55x_RELEASE_V1.0.2/MSDK/lwip/libcoap-4.3.4/src\coap_notls.c **** }
 213:C:/Users/stapi/OneDrive/Desktop/GD32VW553/V1_MQTT_OK/GD32VW55X_Wifi_BLE_SDK/GD32VW55x_RELEASE_V1.0.2/MSDK/lwip/libcoap-4.3.4/src\coap_notls.c **** 
 214:C:/Users/stapi/OneDrive/Desktop/GD32VW553/V1_MQTT_OK/GD32VW55X_Wifi_BLE_SDK/GD32VW55x_RELEASE_V1.0.2/MSDK/lwip/libcoap-4.3.4/src\coap_notls.c **** #if COAP_SERVER_SUPPORT
 215:C:/Users/stapi/OneDrive/Desktop/GD32VW553/V1_MQTT_OK/GD32VW55X_Wifi_BLE_SDK/GD32VW55x_RELEASE_V1.0.2/MSDK/lwip/libcoap-4.3.4/src\coap_notls.c **** int
 216:C:/Users/stapi/OneDrive/Desktop/GD32VW553/V1_MQTT_OK/GD32VW55X_Wifi_BLE_SDK/GD32VW55x_RELEASE_V1.0.2/MSDK/lwip/libcoap-4.3.4/src\coap_notls.c **** coap_dtls_hello(coap_session_t *session COAP_UNUSED,
 217:C:/Users/stapi/OneDrive/Desktop/GD32VW553/V1_MQTT_OK/GD32VW55X_Wifi_BLE_SDK/GD32VW55x_RELEASE_V1.0.2/MSDK/lwip/libcoap-4.3.4/src\coap_notls.c ****                 const uint8_t *data COAP_UNUSED,
 218:C:/Users/stapi/OneDrive/Desktop/GD32VW553/V1_MQTT_OK/GD32VW55X_Wifi_BLE_SDK/GD32VW55x_RELEASE_V1.0.2/MSDK/lwip/libcoap-4.3.4/src\coap_notls.c ****                 size_t data_len COAP_UNUSED
 219:C:/Users/stapi/OneDrive/Desktop/GD32VW553/V1_MQTT_OK/GD32VW55X_Wifi_BLE_SDK/GD32VW55x_RELEASE_V1.0.2/MSDK/lwip/libcoap-4.3.4/src\coap_notls.c ****                ) {
 220:C:/Users/stapi/OneDrive/Desktop/GD32VW553/V1_MQTT_OK/GD32VW55X_Wifi_BLE_SDK/GD32VW55x_RELEASE_V1.0.2/MSDK/lwip/libcoap-4.3.4/src\coap_notls.c ****   return 0;
 221:C:/Users/stapi/OneDrive/Desktop/GD32VW553/V1_MQTT_OK/GD32VW55X_Wifi_BLE_SDK/GD32VW55x_RELEASE_V1.0.2/MSDK/lwip/libcoap-4.3.4/src\coap_notls.c **** }
 222:C:/Users/stapi/OneDrive/Desktop/GD32VW553/V1_MQTT_OK/GD32VW55X_Wifi_BLE_SDK/GD32VW55x_RELEASE_V1.0.2/MSDK/lwip/libcoap-4.3.4/src\coap_notls.c **** #endif /* COAP_SERVER_SUPPORT */
 223:C:/Users/stapi/OneDrive/Desktop/GD32VW553/V1_MQTT_OK/GD32VW55X_Wifi_BLE_SDK/GD32VW55x_RELEASE_V1.0.2/MSDK/lwip/libcoap-4.3.4/src\coap_notls.c **** 
 224:C:/Users/stapi/OneDrive/Desktop/GD32VW553/V1_MQTT_OK/GD32VW55X_Wifi_BLE_SDK/GD32VW55x_RELEASE_V1.0.2/MSDK/lwip/libcoap-4.3.4/src\coap_notls.c **** unsigned int
 225:C:/Users/stapi/OneDrive/Desktop/GD32VW553/V1_MQTT_OK/GD32VW55X_Wifi_BLE_SDK/GD32VW55x_RELEASE_V1.0.2/MSDK/lwip/libcoap-4.3.4/src\coap_notls.c **** coap_dtls_get_overhead(coap_session_t *session COAP_UNUSED) {
 226:C:/Users/stapi/OneDrive/Desktop/GD32VW553/V1_MQTT_OK/GD32VW55X_Wifi_BLE_SDK/GD32VW55x_RELEASE_V1.0.2/MSDK/lwip/libcoap-4.3.4/src\coap_notls.c ****   return 0;
 227:C:/Users/stapi/OneDrive/Desktop/GD32VW553/V1_MQTT_OK/GD32VW55X_Wifi_BLE_SDK/GD32VW55x_RELEASE_V1.0.2/MSDK/lwip/libcoap-4.3.4/src\coap_notls.c **** }
 228:C:/Users/stapi/OneDrive/Desktop/GD32VW553/V1_MQTT_OK/GD32VW55X_Wifi_BLE_SDK/GD32VW55x_RELEASE_V1.0.2/MSDK/lwip/libcoap-4.3.4/src\coap_notls.c **** 
 229:C:/Users/stapi/OneDrive/Desktop/GD32VW553/V1_MQTT_OK/GD32VW55X_Wifi_BLE_SDK/GD32VW55x_RELEASE_V1.0.2/MSDK/lwip/libcoap-4.3.4/src\coap_notls.c **** #if COAP_CLIENT_SUPPORT
 230:C:/Users/stapi/OneDrive/Desktop/GD32VW553/V1_MQTT_OK/GD32VW55X_Wifi_BLE_SDK/GD32VW55x_RELEASE_V1.0.2/MSDK/lwip/libcoap-4.3.4/src\coap_notls.c **** void *
 231:C:/Users/stapi/OneDrive/Desktop/GD32VW553/V1_MQTT_OK/GD32VW55X_Wifi_BLE_SDK/GD32VW55x_RELEASE_V1.0.2/MSDK/lwip/libcoap-4.3.4/src\coap_notls.c **** coap_tls_new_client_session(coap_session_t *session COAP_UNUSED) {
 232:C:/Users/stapi/OneDrive/Desktop/GD32VW553/V1_MQTT_OK/GD32VW55X_Wifi_BLE_SDK/GD32VW55x_RELEASE_V1.0.2/MSDK/lwip/libcoap-4.3.4/src\coap_notls.c ****   return NULL;
 233:C:/Users/stapi/OneDrive/Desktop/GD32VW553/V1_MQTT_OK/GD32VW55X_Wifi_BLE_SDK/GD32VW55x_RELEASE_V1.0.2/MSDK/lwip/libcoap-4.3.4/src\coap_notls.c **** }
 234:C:/Users/stapi/OneDrive/Desktop/GD32VW553/V1_MQTT_OK/GD32VW55X_Wifi_BLE_SDK/GD32VW55x_RELEASE_V1.0.2/MSDK/lwip/libcoap-4.3.4/src\coap_notls.c **** #endif /* COAP_CLIENT_SUPPORT */
 235:C:/Users/stapi/OneDrive/Desktop/GD32VW553/V1_MQTT_OK/GD32VW55X_Wifi_BLE_SDK/GD32VW55x_RELEASE_V1.0.2/MSDK/lwip/libcoap-4.3.4/src\coap_notls.c **** 
 236:C:/Users/stapi/OneDrive/Desktop/GD32VW553/V1_MQTT_OK/GD32VW55X_Wifi_BLE_SDK/GD32VW55x_RELEASE_V1.0.2/MSDK/lwip/libcoap-4.3.4/src\coap_notls.c **** #if COAP_SERVER_SUPPORT
 237:C:/Users/stapi/OneDrive/Desktop/GD32VW553/V1_MQTT_OK/GD32VW55X_Wifi_BLE_SDK/GD32VW55x_RELEASE_V1.0.2/MSDK/lwip/libcoap-4.3.4/src\coap_notls.c **** void *
 238:C:/Users/stapi/OneDrive/Desktop/GD32VW553/V1_MQTT_OK/GD32VW55X_Wifi_BLE_SDK/GD32VW55x_RELEASE_V1.0.2/MSDK/lwip/libcoap-4.3.4/src\coap_notls.c **** coap_tls_new_server_session(coap_session_t *session COAP_UNUSED) {
 239:C:/Users/stapi/OneDrive/Desktop/GD32VW553/V1_MQTT_OK/GD32VW55X_Wifi_BLE_SDK/GD32VW55x_RELEASE_V1.0.2/MSDK/lwip/libcoap-4.3.4/src\coap_notls.c ****   return NULL;
 240:C:/Users/stapi/OneDrive/Desktop/GD32VW553/V1_MQTT_OK/GD32VW55X_Wifi_BLE_SDK/GD32VW55x_RELEASE_V1.0.2/MSDK/lwip/libcoap-4.3.4/src\coap_notls.c **** }
 241:C:/Users/stapi/OneDrive/Desktop/GD32VW553/V1_MQTT_OK/GD32VW55X_Wifi_BLE_SDK/GD32VW55x_RELEASE_V1.0.2/MSDK/lwip/libcoap-4.3.4/src\coap_notls.c **** #endif /* COAP_SERVER_SUPPORT */
 242:C:/Users/stapi/OneDrive/Desktop/GD32VW553/V1_MQTT_OK/GD32VW55X_Wifi_BLE_SDK/GD32VW55x_RELEASE_V1.0.2/MSDK/lwip/libcoap-4.3.4/src\coap_notls.c **** 
 243:C:/Users/stapi/OneDrive/Desktop/GD32VW553/V1_MQTT_OK/GD32VW55X_Wifi_BLE_SDK/GD32VW55x_RELEASE_V1.0.2/MSDK/lwip/libcoap-4.3.4/src\coap_notls.c **** void
 244:C:/Users/stapi/OneDrive/Desktop/GD32VW553/V1_MQTT_OK/GD32VW55X_Wifi_BLE_SDK/GD32VW55x_RELEASE_V1.0.2/MSDK/lwip/libcoap-4.3.4/src\coap_notls.c **** coap_tls_free_session(coap_session_t *coap_session COAP_UNUSED) {
 245:C:/Users/stapi/OneDrive/Desktop/GD32VW553/V1_MQTT_OK/GD32VW55X_Wifi_BLE_SDK/GD32VW55x_RELEASE_V1.0.2/MSDK/lwip/libcoap-4.3.4/src\coap_notls.c **** }
 246:C:/Users/stapi/OneDrive/Desktop/GD32VW553/V1_MQTT_OK/GD32VW55X_Wifi_BLE_SDK/GD32VW55x_RELEASE_V1.0.2/MSDK/lwip/libcoap-4.3.4/src\coap_notls.c **** 
 247:C:/Users/stapi/OneDrive/Desktop/GD32VW553/V1_MQTT_OK/GD32VW55X_Wifi_BLE_SDK/GD32VW55x_RELEASE_V1.0.2/MSDK/lwip/libcoap-4.3.4/src\coap_notls.c **** /*
 248:C:/Users/stapi/OneDrive/Desktop/GD32VW553/V1_MQTT_OK/GD32VW55X_Wifi_BLE_SDK/GD32VW55x_RELEASE_V1.0.2/MSDK/lwip/libcoap-4.3.4/src\coap_notls.c ****  * strm
 249:C:/Users/stapi/OneDrive/Desktop/GD32VW553/V1_MQTT_OK/GD32VW55X_Wifi_BLE_SDK/GD32VW55x_RELEASE_V1.0.2/MSDK/lwip/libcoap-4.3.4/src\coap_notls.c ****  * return +ve Number of bytes written.
 250:C:/Users/stapi/OneDrive/Desktop/GD32VW553/V1_MQTT_OK/GD32VW55X_Wifi_BLE_SDK/GD32VW55x_RELEASE_V1.0.2/MSDK/lwip/libcoap-4.3.4/src\coap_notls.c ****  *         -1 Error (error in errno).
 251:C:/Users/stapi/OneDrive/Desktop/GD32VW553/V1_MQTT_OK/GD32VW55X_Wifi_BLE_SDK/GD32VW55x_RELEASE_V1.0.2/MSDK/lwip/libcoap-4.3.4/src\coap_notls.c ****  */
 252:C:/Users/stapi/OneDrive/Desktop/GD32VW553/V1_MQTT_OK/GD32VW55X_Wifi_BLE_SDK/GD32VW55x_RELEASE_V1.0.2/MSDK/lwip/libcoap-4.3.4/src\coap_notls.c **** ssize_t
 253:C:/Users/stapi/OneDrive/Desktop/GD32VW553/V1_MQTT_OK/GD32VW55X_Wifi_BLE_SDK/GD32VW55x_RELEASE_V1.0.2/MSDK/lwip/libcoap-4.3.4/src\coap_notls.c **** coap_tls_write(coap_session_t *session COAP_UNUSED,
 254:C:/Users/stapi/OneDrive/Desktop/GD32VW553/V1_MQTT_OK/GD32VW55X_Wifi_BLE_SDK/GD32VW55x_RELEASE_V1.0.2/MSDK/lwip/libcoap-4.3.4/src\coap_notls.c ****                const uint8_t *data COAP_UNUSED,
 255:C:/Users/stapi/OneDrive/Desktop/GD32VW553/V1_MQTT_OK/GD32VW55X_Wifi_BLE_SDK/GD32VW55x_RELEASE_V1.0.2/MSDK/lwip/libcoap-4.3.4/src\coap_notls.c ****                size_t data_len COAP_UNUSED) {
 256:C:/Users/stapi/OneDrive/Desktop/GD32VW553/V1_MQTT_OK/GD32VW55X_Wifi_BLE_SDK/GD32VW55x_RELEASE_V1.0.2/MSDK/lwip/libcoap-4.3.4/src\coap_notls.c ****   return -1;
 257:C:/Users/stapi/OneDrive/Desktop/GD32VW553/V1_MQTT_OK/GD32VW55X_Wifi_BLE_SDK/GD32VW55x_RELEASE_V1.0.2/MSDK/lwip/libcoap-4.3.4/src\coap_notls.c **** }
 258:C:/Users/stapi/OneDrive/Desktop/GD32VW553/V1_MQTT_OK/GD32VW55X_Wifi_BLE_SDK/GD32VW55x_RELEASE_V1.0.2/MSDK/lwip/libcoap-4.3.4/src\coap_notls.c **** 
 259:C:/Users/stapi/OneDrive/Desktop/GD32VW553/V1_MQTT_OK/GD32VW55X_Wifi_BLE_SDK/GD32VW55x_RELEASE_V1.0.2/MSDK/lwip/libcoap-4.3.4/src\coap_notls.c **** /*
 260:C:/Users/stapi/OneDrive/Desktop/GD32VW553/V1_MQTT_OK/GD32VW55X_Wifi_BLE_SDK/GD32VW55x_RELEASE_V1.0.2/MSDK/lwip/libcoap-4.3.4/src\coap_notls.c ****  * strm
 261:C:/Users/stapi/OneDrive/Desktop/GD32VW553/V1_MQTT_OK/GD32VW55X_Wifi_BLE_SDK/GD32VW55x_RELEASE_V1.0.2/MSDK/lwip/libcoap-4.3.4/src\coap_notls.c ****  * return >=0 Number of bytes read.
 262:C:/Users/stapi/OneDrive/Desktop/GD32VW553/V1_MQTT_OK/GD32VW55X_Wifi_BLE_SDK/GD32VW55x_RELEASE_V1.0.2/MSDK/lwip/libcoap-4.3.4/src\coap_notls.c ****  *         -1 Error (error in errno).
 263:C:/Users/stapi/OneDrive/Desktop/GD32VW553/V1_MQTT_OK/GD32VW55X_Wifi_BLE_SDK/GD32VW55x_RELEASE_V1.0.2/MSDK/lwip/libcoap-4.3.4/src\coap_notls.c ****  */
 264:C:/Users/stapi/OneDrive/Desktop/GD32VW553/V1_MQTT_OK/GD32VW55X_Wifi_BLE_SDK/GD32VW55x_RELEASE_V1.0.2/MSDK/lwip/libcoap-4.3.4/src\coap_notls.c **** ssize_t
 265:C:/Users/stapi/OneDrive/Desktop/GD32VW553/V1_MQTT_OK/GD32VW55X_Wifi_BLE_SDK/GD32VW55x_RELEASE_V1.0.2/MSDK/lwip/libcoap-4.3.4/src\coap_notls.c **** coap_tls_read(coap_session_t *session COAP_UNUSED,
 266:C:/Users/stapi/OneDrive/Desktop/GD32VW553/V1_MQTT_OK/GD32VW55X_Wifi_BLE_SDK/GD32VW55x_RELEASE_V1.0.2/MSDK/lwip/libcoap-4.3.4/src\coap_notls.c ****               uint8_t *data COAP_UNUSED,
 267:C:/Users/stapi/OneDrive/Desktop/GD32VW553/V1_MQTT_OK/GD32VW55X_Wifi_BLE_SDK/GD32VW55x_RELEASE_V1.0.2/MSDK/lwip/libcoap-4.3.4/src\coap_notls.c ****               size_t data_len COAP_UNUSED) {
 268:C:/Users/stapi/OneDrive/Desktop/GD32VW553/V1_MQTT_OK/GD32VW55X_Wifi_BLE_SDK/GD32VW55x_RELEASE_V1.0.2/MSDK/lwip/libcoap-4.3.4/src\coap_notls.c ****   return -1;
 269:C:/Users/stapi/OneDrive/Desktop/GD32VW553/V1_MQTT_OK/GD32VW55X_Wifi_BLE_SDK/GD32VW55x_RELEASE_V1.0.2/MSDK/lwip/libcoap-4.3.4/src\coap_notls.c **** }
 270:C:/Users/stapi/OneDrive/Desktop/GD32VW553/V1_MQTT_OK/GD32VW55X_Wifi_BLE_SDK/GD32VW55x_RELEASE_V1.0.2/MSDK/lwip/libcoap-4.3.4/src\coap_notls.c **** 
 271:C:/Users/stapi/OneDrive/Desktop/GD32VW553/V1_MQTT_OK/GD32VW55X_Wifi_BLE_SDK/GD32VW55x_RELEASE_V1.0.2/MSDK/lwip/libcoap-4.3.4/src\coap_notls.c **** #if COAP_SERVER_SUPPORT
 272:C:/Users/stapi/OneDrive/Desktop/GD32VW553/V1_MQTT_OK/GD32VW55X_Wifi_BLE_SDK/GD32VW55x_RELEASE_V1.0.2/MSDK/lwip/libcoap-4.3.4/src\coap_notls.c **** typedef struct coap_local_hash_t {
 273:C:/Users/stapi/OneDrive/Desktop/GD32VW553/V1_MQTT_OK/GD32VW55X_Wifi_BLE_SDK/GD32VW55x_RELEASE_V1.0.2/MSDK/lwip/libcoap-4.3.4/src\coap_notls.c ****   size_t ofs;
 274:C:/Users/stapi/OneDrive/Desktop/GD32VW553/V1_MQTT_OK/GD32VW55X_Wifi_BLE_SDK/GD32VW55x_RELEASE_V1.0.2/MSDK/lwip/libcoap-4.3.4/src\coap_notls.c ****   coap_key_t key[8];   /* 32 bytes in total */
 275:C:/Users/stapi/OneDrive/Desktop/GD32VW553/V1_MQTT_OK/GD32VW55X_Wifi_BLE_SDK/GD32VW55x_RELEASE_V1.0.2/MSDK/lwip/libcoap-4.3.4/src\coap_notls.c **** } coap_local_hash_t;
 276:C:/Users/stapi/OneDrive/Desktop/GD32VW553/V1_MQTT_OK/GD32VW55X_Wifi_BLE_SDK/GD32VW55x_RELEASE_V1.0.2/MSDK/lwip/libcoap-4.3.4/src\coap_notls.c **** 
 277:C:/Users/stapi/OneDrive/Desktop/GD32VW553/V1_MQTT_OK/GD32VW55X_Wifi_BLE_SDK/GD32VW55x_RELEASE_V1.0.2/MSDK/lwip/libcoap-4.3.4/src\coap_notls.c **** coap_digest_ctx_t *
 278:C:/Users/stapi/OneDrive/Desktop/GD32VW553/V1_MQTT_OK/GD32VW55X_Wifi_BLE_SDK/GD32VW55x_RELEASE_V1.0.2/MSDK/lwip/libcoap-4.3.4/src\coap_notls.c **** coap_digest_setup(void) {
 543              		.loc 1 278 25 is_stmt 1
 544              		.cfi_startproc
 545              		.loc 1 278 25 is_stmt 0
 546 0000 17030000 		call	t0,__riscv_save_1
 546      E7020300 
 547              		.cfi_offset 8, -8
 548              		.cfi_offset 1, -4
 549              		.cfi_def_cfa_offset 16
 279:C:/Users/stapi/OneDrive/Desktop/GD32VW553/V1_MQTT_OK/GD32VW55X_Wifi_BLE_SDK/GD32VW55x_RELEASE_V1.0.2/MSDK/lwip/libcoap-4.3.4/src\coap_notls.c ****   coap_key_t *digest_ctx = coap_malloc_type(COAP_DIGEST_CTX, sizeof(coap_local_hash_t));
 550              		.loc 1 279 3 is_stmt 1
 551              		.loc 1 279 28 is_stmt 0
 552 0008 93054002 		li	a1,36
 553 000c 4D45     		li	a0,19
 554 000e 97000000 		call	coap_malloc_type
 554      E7800000 
 555              	.LVL22:
 556 0016 2A84     		mv	s0,a0
 557              	.LVL23:
 280:C:/Users/stapi/OneDrive/Desktop/GD32VW553/V1_MQTT_OK/GD32VW55X_Wifi_BLE_SDK/GD32VW55x_RELEASE_V1.0.2/MSDK/lwip/libcoap-4.3.4/src\coap_notls.c **** 
 281:C:/Users/stapi/OneDrive/Desktop/GD32VW553/V1_MQTT_OK/GD32VW55X_Wifi_BLE_SDK/GD32VW55x_RELEASE_V1.0.2/MSDK/lwip/libcoap-4.3.4/src\coap_notls.c ****   if (digest_ctx) {
 558              		.loc 1 281 3 is_stmt 1
 559              		.loc 1 281 6 is_stmt 0
 560 0018 01C9     		beq	a0,zero,.L41
 282:C:/Users/stapi/OneDrive/Desktop/GD32VW553/V1_MQTT_OK/GD32VW55X_Wifi_BLE_SDK/GD32VW55x_RELEASE_V1.0.2/MSDK/lwip/libcoap-4.3.4/src\coap_notls.c ****     memset(digest_ctx, 0, sizeof(coap_local_hash_t));
 561              		.loc 1 282 5 is_stmt 1
 562 001a 13064002 		li	a2,36
 563 001e 8145     		li	a1,0
 564 0020 97000000 		call	memset
 564      E7800000 
 565              	.LVL24:
 283:C:/Users/stapi/OneDrive/Desktop/GD32VW553/V1_MQTT_OK/GD32VW55X_Wifi_BLE_SDK/GD32VW55x_RELEASE_V1.0.2/MSDK/lwip/libcoap-4.3.4/src\coap_notls.c ****   }
 284:C:/Users/stapi/OneDrive/Desktop/GD32VW553/V1_MQTT_OK/GD32VW55X_Wifi_BLE_SDK/GD32VW55x_RELEASE_V1.0.2/MSDK/lwip/libcoap-4.3.4/src\coap_notls.c **** 
 285:C:/Users/stapi/OneDrive/Desktop/GD32VW553/V1_MQTT_OK/GD32VW55X_Wifi_BLE_SDK/GD32VW55x_RELEASE_V1.0.2/MSDK/lwip/libcoap-4.3.4/src\coap_notls.c ****   return digest_ctx;
 566              		.loc 1 285 3
 567              	.L41:
 286:C:/Users/stapi/OneDrive/Desktop/GD32VW553/V1_MQTT_OK/GD32VW55X_Wifi_BLE_SDK/GD32VW55x_RELEASE_V1.0.2/MSDK/lwip/libcoap-4.3.4/src\coap_notls.c **** }
 568              		.loc 1 286 1 is_stmt 0
 569 0028 2285     		mv	a0,s0
 570 002a 17030000 		tail	__riscv_restore_1
 570      67000300 
 571              		.cfi_restore 8
 572              		.cfi_restore 1
 573              		.cfi_def_cfa_offset 0
 574              		.cfi_endproc
 575              	.LFE67:
 577              		.section	.text.coap_digest_free,"ax",@progbits
 578              		.align	1
 579              		.globl	coap_digest_free
 581              	coap_digest_free:
 582              	.LFB68:
 287:C:/Users/stapi/OneDrive/Desktop/GD32VW553/V1_MQTT_OK/GD32VW55X_Wifi_BLE_SDK/GD32VW55x_RELEASE_V1.0.2/MSDK/lwip/libcoap-4.3.4/src\coap_notls.c **** 
 288:C:/Users/stapi/OneDrive/Desktop/GD32VW553/V1_MQTT_OK/GD32VW55X_Wifi_BLE_SDK/GD32VW55x_RELEASE_V1.0.2/MSDK/lwip/libcoap-4.3.4/src\coap_notls.c **** void
 289:C:/Users/stapi/OneDrive/Desktop/GD32VW553/V1_MQTT_OK/GD32VW55X_Wifi_BLE_SDK/GD32VW55x_RELEASE_V1.0.2/MSDK/lwip/libcoap-4.3.4/src\coap_notls.c **** coap_digest_free(coap_digest_ctx_t *digest_ctx) {
 583              		.loc 1 289 49 is_stmt 1
 584              		.cfi_startproc
 585              	.LVL25:
 290:C:/Users/stapi/OneDrive/Desktop/GD32VW553/V1_MQTT_OK/GD32VW55X_Wifi_BLE_SDK/GD32VW55x_RELEASE_V1.0.2/MSDK/lwip/libcoap-4.3.4/src\coap_notls.c ****   coap_free_type(COAP_DIGEST_CTX, digest_ctx);
 586              		.loc 1 290 3
 289:C:/Users/stapi/OneDrive/Desktop/GD32VW553/V1_MQTT_OK/GD32VW55X_Wifi_BLE_SDK/GD32VW55x_RELEASE_V1.0.2/MSDK/lwip/libcoap-4.3.4/src\coap_notls.c ****   coap_free_type(COAP_DIGEST_CTX, digest_ctx);
 587              		.loc 1 289 49 is_stmt 0
 588 0000 AA85     		mv	a1,a0
 589              		.loc 1 290 3
 590 0002 4D45     		li	a0,19
 591              	.LVL26:
 592 0004 17030000 		tail	coap_free_type
 592      67000300 
 593              	.LVL27:
 594              		.cfi_endproc
 595              	.LFE68:
 597              		.section	.text.coap_digest_update,"ax",@progbits
 598              		.align	1
 599              		.globl	coap_digest_update
 601              	coap_digest_update:
 602              	.LFB69:
 291:C:/Users/stapi/OneDrive/Desktop/GD32VW553/V1_MQTT_OK/GD32VW55X_Wifi_BLE_SDK/GD32VW55x_RELEASE_V1.0.2/MSDK/lwip/libcoap-4.3.4/src\coap_notls.c **** }
 292:C:/Users/stapi/OneDrive/Desktop/GD32VW553/V1_MQTT_OK/GD32VW55X_Wifi_BLE_SDK/GD32VW55x_RELEASE_V1.0.2/MSDK/lwip/libcoap-4.3.4/src\coap_notls.c **** 
 293:C:/Users/stapi/OneDrive/Desktop/GD32VW553/V1_MQTT_OK/GD32VW55X_Wifi_BLE_SDK/GD32VW55x_RELEASE_V1.0.2/MSDK/lwip/libcoap-4.3.4/src\coap_notls.c **** int
 294:C:/Users/stapi/OneDrive/Desktop/GD32VW553/V1_MQTT_OK/GD32VW55X_Wifi_BLE_SDK/GD32VW55x_RELEASE_V1.0.2/MSDK/lwip/libcoap-4.3.4/src\coap_notls.c **** coap_digest_update(coap_digest_ctx_t *digest_ctx,
 295:C:/Users/stapi/OneDrive/Desktop/GD32VW553/V1_MQTT_OK/GD32VW55X_Wifi_BLE_SDK/GD32VW55x_RELEASE_V1.0.2/MSDK/lwip/libcoap-4.3.4/src\coap_notls.c ****                    const uint8_t *data,
 296:C:/Users/stapi/OneDrive/Desktop/GD32VW553/V1_MQTT_OK/GD32VW55X_Wifi_BLE_SDK/GD32VW55x_RELEASE_V1.0.2/MSDK/lwip/libcoap-4.3.4/src\coap_notls.c ****                    size_t data_len) {
 603              		.loc 1 296 37 is_stmt 1
 604              		.cfi_startproc
 605              	.LVL28:
 606 0000 17030000 		call	t0,__riscv_save_1
 606      E7020300 
 607              		.cfi_offset 8, -8
 608              		.cfi_offset 1, -4
 609              		.cfi_def_cfa_offset 16
 297:C:/Users/stapi/OneDrive/Desktop/GD32VW553/V1_MQTT_OK/GD32VW55X_Wifi_BLE_SDK/GD32VW55x_RELEASE_V1.0.2/MSDK/lwip/libcoap-4.3.4/src\coap_notls.c ****   coap_local_hash_t *local = (coap_local_hash_t *)digest_ctx;
 610              		.loc 1 297 3
 296:C:/Users/stapi/OneDrive/Desktop/GD32VW553/V1_MQTT_OK/GD32VW55X_Wifi_BLE_SDK/GD32VW55x_RELEASE_V1.0.2/MSDK/lwip/libcoap-4.3.4/src\coap_notls.c ****   coap_local_hash_t *local = (coap_local_hash_t *)digest_ctx;
 611              		.loc 1 296 37 is_stmt 0
 612 0008 2A84     		mv	s0,a0
 613              	.LVL29:
 298:C:/Users/stapi/OneDrive/Desktop/GD32VW553/V1_MQTT_OK/GD32VW55X_Wifi_BLE_SDK/GD32VW55x_RELEASE_V1.0.2/MSDK/lwip/libcoap-4.3.4/src\coap_notls.c **** 
 299:C:/Users/stapi/OneDrive/Desktop/GD32VW553/V1_MQTT_OK/GD32VW55X_Wifi_BLE_SDK/GD32VW55x_RELEASE_V1.0.2/MSDK/lwip/libcoap-4.3.4/src\coap_notls.c ****   coap_hash(data, data_len, local->key[local->ofs]);
 614              		.loc 1 299 3 is_stmt 1
 296:C:/Users/stapi/OneDrive/Desktop/GD32VW553/V1_MQTT_OK/GD32VW55X_Wifi_BLE_SDK/GD32VW55x_RELEASE_V1.0.2/MSDK/lwip/libcoap-4.3.4/src\coap_notls.c ****   coap_local_hash_t *local = (coap_local_hash_t *)digest_ctx;
 615              		.loc 1 296 37 is_stmt 0
 616 000a 2E85     		mv	a0,a1
 617              	.LVL30:
 618 000c B285     		mv	a1,a2
 619              	.LVL31:
 620              		.loc 1 299 3
 621 000e 1040     		lw	a2,0(s0)
 622              	.LVL32:
 623 0010 0506     		addi	a2,a2,1
 624 0012 33468620 		sh2add	a2,a2,s0
 625 0016 97000000 		call	coap_hash_impl
 625      E7800000 
 626              	.LVL33:
 300:C:/Users/stapi/OneDrive/Desktop/GD32VW553/V1_MQTT_OK/GD32VW55X_Wifi_BLE_SDK/GD32VW55x_RELEASE_V1.0.2/MSDK/lwip/libcoap-4.3.4/src\coap_notls.c **** 
 301:C:/Users/stapi/OneDrive/Desktop/GD32VW553/V1_MQTT_OK/GD32VW55X_Wifi_BLE_SDK/GD32VW55x_RELEASE_V1.0.2/MSDK/lwip/libcoap-4.3.4/src\coap_notls.c ****   local->ofs = (local->ofs + 1) % 7;
 627              		.loc 1 301 3 is_stmt 1
 628              		.loc 1 301 28 is_stmt 0
 629 001e 1C40     		lw	a5,0(s0)
 630              		.loc 1 301 33
 631 0020 1D47     		li	a4,7
 302:C:/Users/stapi/OneDrive/Desktop/GD32VW553/V1_MQTT_OK/GD32VW55X_Wifi_BLE_SDK/GD32VW55x_RELEASE_V1.0.2/MSDK/lwip/libcoap-4.3.4/src\coap_notls.c ****   return 1;
 303:C:/Users/stapi/OneDrive/Desktop/GD32VW553/V1_MQTT_OK/GD32VW55X_Wifi_BLE_SDK/GD32VW55x_RELEASE_V1.0.2/MSDK/lwip/libcoap-4.3.4/src\coap_notls.c **** }
 632              		.loc 1 303 1
 633 0022 0545     		li	a0,1
 301:C:/Users/stapi/OneDrive/Desktop/GD32VW553/V1_MQTT_OK/GD32VW55X_Wifi_BLE_SDK/GD32VW55x_RELEASE_V1.0.2/MSDK/lwip/libcoap-4.3.4/src\coap_notls.c ****   return 1;
 634              		.loc 1 301 28
 635 0024 8507     		addi	a5,a5,1
 301:C:/Users/stapi/OneDrive/Desktop/GD32VW553/V1_MQTT_OK/GD32VW55X_Wifi_BLE_SDK/GD32VW55x_RELEASE_V1.0.2/MSDK/lwip/libcoap-4.3.4/src\coap_notls.c ****   return 1;
 636              		.loc 1 301 33
 637 0026 B3F7E702 		remu	a5,a5,a4
 301:C:/Users/stapi/OneDrive/Desktop/GD32VW553/V1_MQTT_OK/GD32VW55X_Wifi_BLE_SDK/GD32VW55x_RELEASE_V1.0.2/MSDK/lwip/libcoap-4.3.4/src\coap_notls.c ****   return 1;
 638              		.loc 1 301 14
 639 002a 1CC0     		sw	a5,0(s0)
 302:C:/Users/stapi/OneDrive/Desktop/GD32VW553/V1_MQTT_OK/GD32VW55X_Wifi_BLE_SDK/GD32VW55x_RELEASE_V1.0.2/MSDK/lwip/libcoap-4.3.4/src\coap_notls.c ****   return 1;
 640              		.loc 1 302 3 is_stmt 1
 641              		.loc 1 303 1 is_stmt 0
 642 002c 17030000 		tail	__riscv_restore_1
 642      67000300 
 643              		.cfi_restore 8
 644              		.cfi_restore 1
 645              		.cfi_def_cfa_offset 0
 646              		.cfi_endproc
 647              	.LFE69:
 649              		.section	.text.coap_digest_final,"ax",@progbits
 650              		.align	1
 651              		.globl	coap_digest_final
 653              	coap_digest_final:
 654              	.LFB70:
 304:C:/Users/stapi/OneDrive/Desktop/GD32VW553/V1_MQTT_OK/GD32VW55X_Wifi_BLE_SDK/GD32VW55x_RELEASE_V1.0.2/MSDK/lwip/libcoap-4.3.4/src\coap_notls.c **** 
 305:C:/Users/stapi/OneDrive/Desktop/GD32VW553/V1_MQTT_OK/GD32VW55X_Wifi_BLE_SDK/GD32VW55x_RELEASE_V1.0.2/MSDK/lwip/libcoap-4.3.4/src\coap_notls.c **** int
 306:C:/Users/stapi/OneDrive/Desktop/GD32VW553/V1_MQTT_OK/GD32VW55X_Wifi_BLE_SDK/GD32VW55x_RELEASE_V1.0.2/MSDK/lwip/libcoap-4.3.4/src\coap_notls.c **** coap_digest_final(coap_digest_ctx_t *digest_ctx,
 307:C:/Users/stapi/OneDrive/Desktop/GD32VW553/V1_MQTT_OK/GD32VW55X_Wifi_BLE_SDK/GD32VW55x_RELEASE_V1.0.2/MSDK/lwip/libcoap-4.3.4/src\coap_notls.c ****                   coap_digest_t *digest_buffer) {
 655              		.loc 1 307 49 is_stmt 1
 656              		.cfi_startproc
 657              	.LVL34:
 658 0000 17030000 		call	t0,__riscv_save_1
 658      E7020300 
 659              		.cfi_offset 8, -8
 660              		.cfi_offset 1, -4
 661              		.cfi_def_cfa_offset 16
 308:C:/Users/stapi/OneDrive/Desktop/GD32VW553/V1_MQTT_OK/GD32VW55X_Wifi_BLE_SDK/GD32VW55x_RELEASE_V1.0.2/MSDK/lwip/libcoap-4.3.4/src\coap_notls.c ****   coap_local_hash_t *local = (coap_local_hash_t *)digest_ctx;
 662              		.loc 1 308 3
 307:C:/Users/stapi/OneDrive/Desktop/GD32VW553/V1_MQTT_OK/GD32VW55X_Wifi_BLE_SDK/GD32VW55x_RELEASE_V1.0.2/MSDK/lwip/libcoap-4.3.4/src\coap_notls.c ****   coap_local_hash_t *local = (coap_local_hash_t *)digest_ctx;
 663              		.loc 1 307 49 is_stmt 0
 664 0008 2A84     		mv	s0,a0
 665              	.LVL35:
 309:C:/Users/stapi/OneDrive/Desktop/GD32VW553/V1_MQTT_OK/GD32VW55X_Wifi_BLE_SDK/GD32VW55x_RELEASE_V1.0.2/MSDK/lwip/libcoap-4.3.4/src\coap_notls.c **** 
 310:C:/Users/stapi/OneDrive/Desktop/GD32VW553/V1_MQTT_OK/GD32VW55X_Wifi_BLE_SDK/GD32VW55x_RELEASE_V1.0.2/MSDK/lwip/libcoap-4.3.4/src\coap_notls.c ****   memcpy(digest_buffer, local->key, sizeof(coap_digest_t));
 666              		.loc 1 310 3 is_stmt 1
 667 000a 13060002 		li	a2,32
 307:C:/Users/stapi/OneDrive/Desktop/GD32VW553/V1_MQTT_OK/GD32VW55X_Wifi_BLE_SDK/GD32VW55x_RELEASE_V1.0.2/MSDK/lwip/libcoap-4.3.4/src\coap_notls.c ****   coap_local_hash_t *local = (coap_local_hash_t *)digest_ctx;
 668              		.loc 1 307 49 is_stmt 0
 669 000e 2E85     		mv	a0,a1
 670              	.LVL36:
 671              		.loc 1 310 3
 672 0010 93054400 		addi	a1,s0,4
 673              	.LVL37:
 674 0014 97000000 		call	memcpy
 674      E7800000 
 675              	.LVL38:
 311:C:/Users/stapi/OneDrive/Desktop/GD32VW553/V1_MQTT_OK/GD32VW55X_Wifi_BLE_SDK/GD32VW55x_RELEASE_V1.0.2/MSDK/lwip/libcoap-4.3.4/src\coap_notls.c **** 
 312:C:/Users/stapi/OneDrive/Desktop/GD32VW553/V1_MQTT_OK/GD32VW55X_Wifi_BLE_SDK/GD32VW55x_RELEASE_V1.0.2/MSDK/lwip/libcoap-4.3.4/src\coap_notls.c ****   coap_digest_free(digest_ctx);
 676              		.loc 1 312 3 is_stmt 1
 677 001c 2285     		mv	a0,s0
 678 001e 97000000 		call	coap_digest_free
 678      E7800000 
 679              	.LVL39:
 313:C:/Users/stapi/OneDrive/Desktop/GD32VW553/V1_MQTT_OK/GD32VW55X_Wifi_BLE_SDK/GD32VW55x_RELEASE_V1.0.2/MSDK/lwip/libcoap-4.3.4/src\coap_notls.c ****   return 1;
 680              		.loc 1 313 3
 314:C:/Users/stapi/OneDrive/Desktop/GD32VW553/V1_MQTT_OK/GD32VW55X_Wifi_BLE_SDK/GD32VW55x_RELEASE_V1.0.2/MSDK/lwip/libcoap-4.3.4/src\coap_notls.c **** }
 681              		.loc 1 314 1 is_stmt 0
 682 0026 0545     		li	a0,1
 683 0028 17030000 		tail	__riscv_restore_1
 683      67000300 
 684              		.cfi_restore 8
 685              		.cfi_restore 1
 686              		.cfi_def_cfa_offset 0
 687              		.cfi_endproc
 688              	.LFE70:
 690              		.section	.bss.version.0,"aw",@nobits
 691              		.align	3
 692              		.set	.LANCHOR0,. + 0
 695              	version.0:
 696 0000 00000000 		.zero	24
 696      00000000 
 696      00000000 
 696      00000000 
 696      00000000 
 697              		.section	.sbss.dtls_log_level,"aw",@nobits
 698              		.align	2
 699              		.set	.LANCHOR1,. + 0
 702              	dtls_log_level:
 703 0000 00000000 		.zero	4
 704              		.text
 705              	.Letext0:
 706              		.file 2 "c:\\users\\stapi\\onedrive\\desktop\\gd32vw553\\embeddedbuilder_v1.4.7.26843\\tools\\nucl
 707              		.file 3 "c:\\users\\stapi\\onedrive\\desktop\\gd32vw553\\embeddedbuilder_v1.4.7.26843\\tools\\nucl
 708              		.file 4 "c:\\users\\stapi\\onedrive\\desktop\\gd32vw553\\embeddedbuilder_v1.4.7.26843\\tools\\nucl
 709              		.file 5 "c:\\users\\stapi\\onedrive\\desktop\\gd32vw553\\embeddedbuilder_v1.4.7.26843\\tools\\nucl
 710              		.file 6 "c:\\users\\stapi\\onedrive\\desktop\\gd32vw553\\embeddedbuilder_v1.4.7.26843\\tools\\nucl
 711              		.file 7 "..\\..\\..\\..\\lwip\\lwip-2.1.2\\src\\include/lwip/arch.h"
 712              		.file 8 "..\\..\\..\\..\\lwip\\libcoap-4.3.4\\include/coap3/coap_forward_decls.h"
 713              		.file 9 "..\\..\\..\\..\\lwip\\libcoap-4.3.4\\include/coap3/coap_address.h"
 714              		.file 10 "..\\..\\..\\..\\lwip\\libcoap-4.3.4\\include/coap3/coap_async_internal.h"
 715              		.file 11 "..\\..\\..\\..\\lwip\\libcoap-4.3.4\\include/coap3/coap_block_internal.h"
 716              		.file 12 "..\\..\\..\\..\\lwip\\libcoap-4.3.4\\include/coap3/coap_cache_internal.h"
 717              		.file 13 "..\\..\\..\\..\\lwip\\libcoap-4.3.4\\include/coap3/coap_io_internal.h"
 718              		.file 14 "..\\..\\..\\..\\lwip\\libcoap-4.3.4\\include/coap3/coap_net_internal.h"
 719              		.file 15 "..\\..\\..\\..\\lwip\\libcoap-4.3.4\\include/coap3/coap_pdu_internal.h"
 720              		.file 16 "..\\..\\..\\..\\lwip\\libcoap-4.3.4\\include/coap3/coap_resource_internal.h"
 721              		.file 17 "..\\..\\..\\..\\lwip\\libcoap-4.3.4\\include/coap3/coap_session_internal.h"
 722              		.file 18 "..\\..\\..\\..\\lwip\\libcoap-4.3.4\\include/coap3/coap_subscribe_internal.h"
 723              		.file 19 "..\\..\\..\\..\\lwip\\libcoap-4.3.4\\include/coap3/coap_option.h"
 724              		.file 20 "..\\..\\..\\..\\lwip\\libcoap-4.3.4\\include/coap3/coap_str.h"
 725              		.file 21 "..\\..\\..\\..\\lwip\\lwip-2.1.2\\src\\include/lwip/pbuf.h"
 726              		.file 22 "..\\..\\..\\..\\lwip\\libcoap-4.3.4\\include/coap3/coap_uri.h"
 727              		.file 23 "..\\..\\..\\..\\lwip\\libcoap-4.3.4\\include/coap3/coap_pdu.h"
 728              		.file 24 "..\\..\\..\\..\\lwip\\lwip-2.1.2\\src\\include/lwip/ip4_addr.h"
 729              		.file 25 "..\\..\\..\\..\\lwip\\lwip-2.1.2\\src\\include/lwip/ip_addr.h"
 730              		.file 26 "..\\..\\..\\..\\lwip\\lwip-2.1.2\\src\\include/lwip/netif.h"
 731              		.file 27 "..\\..\\..\\..\\lwip\\lwip-2.1.2\\src\\include/lwip/sockets.h"
 732              		.file 28 "..\\..\\..\\..\\lwip\\libcoap-4.3.4\\include/coap3/coap_io.h"
 733              		.file 29 "..\\..\\..\\..\\lwip\\lwip-2.1.2\\src\\include/lwip/memp.h"
 734              		.file 30 "..\\..\\..\\..\\lwip\\libcoap-4.3.4\\include/coap3/coap_time.h"
 735              		.file 31 "..\\..\\..\\..\\lwip\\libcoap-4.3.4\\include/coap3/coap_dtls.h"
 736              		.file 32 "..\\..\\..\\..\\lwip\\libcoap-4.3.4\\include/coap3/coap_event.h"
 737              		.file 33 "..\\..\\..\\..\\lwip\\libcoap-4.3.4\\include/coap3/coap_session.h"
 738              		.file 34 "..\\..\\..\\..\\lwip\\libcoap-4.3.4\\include/coap3/coap_debug.h"
 739              		.file 35 "..\\..\\..\\..\\lwip\\libcoap-4.3.4\\include/coap3/coap_net.h"
 740              		.file 36 "..\\..\\..\\..\\lwip\\libcoap-4.3.4\\include/coap3/coap_block.h"
 741              		.file 37 "..\\..\\..\\..\\lwip\\libcoap-4.3.4\\include/coap3/coap_cache.h"
 742              		.file 38 "..\\..\\..\\..\\lwip\\libcoap-4.3.4\\include/coap3/coap_mem.h"
 743              		.file 39 "..\\..\\..\\..\\lwip\\libcoap-4.3.4\\include/coap3/coap_resource.h"
 744              		.file 40 "..\\..\\..\\..\\lwip\\libcoap-4.3.4\\include/coap3/coap_subscribe.h"
 745              		.file 41 "..\\..\\..\\..\\lwip\\libcoap-4.3.4\\include/coap3/coap_uthash_internal.h"
 746              		.file 42 "..\\..\\..\\..\\lwip\\libcoap-4.3.4\\include/coap3/coap_hashkey_internal.h"
 747              		.file 43 "..\\..\\..\\..\\lwip\\libcoap-4.3.4\\include/coap3/coap_layers_internal.h"
 748              		.file 44 "<built-in>"