   1              		.file	"coap_address.c"
   2              		.option nopic
   3              		.attribute arch, "rv32i2p0_m2p0_a2p0_f2p0_c2p0_b_p0p94"
   4              		.attribute unaligned_access, 0
   5              		.attribute stack_align, 16
   6              		.text
   7              	.Ltext0:
   8              		.cfi_sections	.debug_frame
   9              		.section	.rodata.coap_address_init.str1.4,"aMS",@progbits,1
  10              		.align	2
  11              	.LC0:
  12 0000 61646472 		.string	"addr"
  12      00
  13 0005 000000   		.align	2
  14              	.LC1:
  15 0008 433A2F55 		.string	"C:/Users/stapi/OneDrive/Desktop/GD32VW553/V1_MQTT_OK/GD32VW55X_Wifi_BLE_SDK/GD32VW55x_REL
  15      73657273 
  15      2F737461 
  15      70692F4F 
  15      6E654472 
  16              		.section	.text.coap_address_init,"ax",@progbits
  17              		.align	1
  18              		.globl	coap_address_init
  20              	coap_address_init:
  21              	.LFB31:
  22              		.file 1 "C:/Users/stapi/OneDrive/Desktop/GD32VW553/V1_MQTT_OK/GD32VW55X_Wifi_BLE_SDK/GD32VW55x_REL
   1:C:/Users/stapi/OneDrive/Desktop/GD32VW553/V1_MQTT_OK/GD32VW55X_Wifi_BLE_SDK/GD32VW55x_RELEASE_V1.0.2/MSDK/lwip/libcoap-4.3.4/src\coap_address.c **** /* coap_address.c -- representation of network addresses
   2:C:/Users/stapi/OneDrive/Desktop/GD32VW553/V1_MQTT_OK/GD32VW55X_Wifi_BLE_SDK/GD32VW55x_RELEASE_V1.0.2/MSDK/lwip/libcoap-4.3.4/src\coap_address.c ****  *
   3:C:/Users/stapi/OneDrive/Desktop/GD32VW553/V1_MQTT_OK/GD32VW55X_Wifi_BLE_SDK/GD32VW55x_RELEASE_V1.0.2/MSDK/lwip/libcoap-4.3.4/src\coap_address.c ****  * Copyright (C) 2015-2016,2019-2023 Olaf Bergmann <bergmann@tzi.org>
   4:C:/Users/stapi/OneDrive/Desktop/GD32VW553/V1_MQTT_OK/GD32VW55X_Wifi_BLE_SDK/GD32VW55x_RELEASE_V1.0.2/MSDK/lwip/libcoap-4.3.4/src\coap_address.c ****  *
   5:C:/Users/stapi/OneDrive/Desktop/GD32VW553/V1_MQTT_OK/GD32VW55X_Wifi_BLE_SDK/GD32VW55x_RELEASE_V1.0.2/MSDK/lwip/libcoap-4.3.4/src\coap_address.c ****  * SPDX-License-Identifier: BSD-2-Clause
   6:C:/Users/stapi/OneDrive/Desktop/GD32VW553/V1_MQTT_OK/GD32VW55X_Wifi_BLE_SDK/GD32VW55x_RELEASE_V1.0.2/MSDK/lwip/libcoap-4.3.4/src\coap_address.c ****  *
   7:C:/Users/stapi/OneDrive/Desktop/GD32VW553/V1_MQTT_OK/GD32VW55X_Wifi_BLE_SDK/GD32VW55x_RELEASE_V1.0.2/MSDK/lwip/libcoap-4.3.4/src\coap_address.c ****  * This file is part of the CoAP library libcoap. Please see
   8:C:/Users/stapi/OneDrive/Desktop/GD32VW553/V1_MQTT_OK/GD32VW55X_Wifi_BLE_SDK/GD32VW55x_RELEASE_V1.0.2/MSDK/lwip/libcoap-4.3.4/src\coap_address.c ****  * README for terms of use.
   9:C:/Users/stapi/OneDrive/Desktop/GD32VW553/V1_MQTT_OK/GD32VW55X_Wifi_BLE_SDK/GD32VW55x_RELEASE_V1.0.2/MSDK/lwip/libcoap-4.3.4/src\coap_address.c ****  */
  10:C:/Users/stapi/OneDrive/Desktop/GD32VW553/V1_MQTT_OK/GD32VW55X_Wifi_BLE_SDK/GD32VW55x_RELEASE_V1.0.2/MSDK/lwip/libcoap-4.3.4/src\coap_address.c **** 
  11:C:/Users/stapi/OneDrive/Desktop/GD32VW553/V1_MQTT_OK/GD32VW55X_Wifi_BLE_SDK/GD32VW55x_RELEASE_V1.0.2/MSDK/lwip/libcoap-4.3.4/src\coap_address.c **** /**
  12:C:/Users/stapi/OneDrive/Desktop/GD32VW553/V1_MQTT_OK/GD32VW55X_Wifi_BLE_SDK/GD32VW55x_RELEASE_V1.0.2/MSDK/lwip/libcoap-4.3.4/src\coap_address.c ****  * @file coap_address.c
  13:C:/Users/stapi/OneDrive/Desktop/GD32VW553/V1_MQTT_OK/GD32VW55X_Wifi_BLE_SDK/GD32VW55x_RELEASE_V1.0.2/MSDK/lwip/libcoap-4.3.4/src\coap_address.c ****  * @brief Handling of network addresses
  14:C:/Users/stapi/OneDrive/Desktop/GD32VW553/V1_MQTT_OK/GD32VW55X_Wifi_BLE_SDK/GD32VW55x_RELEASE_V1.0.2/MSDK/lwip/libcoap-4.3.4/src\coap_address.c ****  */
  15:C:/Users/stapi/OneDrive/Desktop/GD32VW553/V1_MQTT_OK/GD32VW55X_Wifi_BLE_SDK/GD32VW55x_RELEASE_V1.0.2/MSDK/lwip/libcoap-4.3.4/src\coap_address.c **** 
  16:C:/Users/stapi/OneDrive/Desktop/GD32VW553/V1_MQTT_OK/GD32VW55X_Wifi_BLE_SDK/GD32VW55x_RELEASE_V1.0.2/MSDK/lwip/libcoap-4.3.4/src\coap_address.c **** #include "coap3/coap_internal.h"
  17:C:/Users/stapi/OneDrive/Desktop/GD32VW553/V1_MQTT_OK/GD32VW55X_Wifi_BLE_SDK/GD32VW55x_RELEASE_V1.0.2/MSDK/lwip/libcoap-4.3.4/src\coap_address.c **** 
  18:C:/Users/stapi/OneDrive/Desktop/GD32VW553/V1_MQTT_OK/GD32VW55X_Wifi_BLE_SDK/GD32VW55x_RELEASE_V1.0.2/MSDK/lwip/libcoap-4.3.4/src\coap_address.c **** #if !defined(WITH_CONTIKI) && !defined(WITH_LWIP)
  19:C:/Users/stapi/OneDrive/Desktop/GD32VW553/V1_MQTT_OK/GD32VW55X_Wifi_BLE_SDK/GD32VW55x_RELEASE_V1.0.2/MSDK/lwip/libcoap-4.3.4/src\coap_address.c **** #ifdef HAVE_ARPA_INET_H
  20:C:/Users/stapi/OneDrive/Desktop/GD32VW553/V1_MQTT_OK/GD32VW55X_Wifi_BLE_SDK/GD32VW55x_RELEASE_V1.0.2/MSDK/lwip/libcoap-4.3.4/src\coap_address.c **** #include <arpa/inet.h>
  21:C:/Users/stapi/OneDrive/Desktop/GD32VW553/V1_MQTT_OK/GD32VW55X_Wifi_BLE_SDK/GD32VW55x_RELEASE_V1.0.2/MSDK/lwip/libcoap-4.3.4/src\coap_address.c **** #endif
  22:C:/Users/stapi/OneDrive/Desktop/GD32VW553/V1_MQTT_OK/GD32VW55X_Wifi_BLE_SDK/GD32VW55x_RELEASE_V1.0.2/MSDK/lwip/libcoap-4.3.4/src\coap_address.c **** #ifdef HAVE_NETINET_IN_H
  23:C:/Users/stapi/OneDrive/Desktop/GD32VW553/V1_MQTT_OK/GD32VW55X_Wifi_BLE_SDK/GD32VW55x_RELEASE_V1.0.2/MSDK/lwip/libcoap-4.3.4/src\coap_address.c **** #include <netinet/in.h>
  24:C:/Users/stapi/OneDrive/Desktop/GD32VW553/V1_MQTT_OK/GD32VW55X_Wifi_BLE_SDK/GD32VW55x_RELEASE_V1.0.2/MSDK/lwip/libcoap-4.3.4/src\coap_address.c **** #endif
  25:C:/Users/stapi/OneDrive/Desktop/GD32VW553/V1_MQTT_OK/GD32VW55X_Wifi_BLE_SDK/GD32VW55x_RELEASE_V1.0.2/MSDK/lwip/libcoap-4.3.4/src\coap_address.c **** #ifdef HAVE_SYS_SOCKET_H
  26:C:/Users/stapi/OneDrive/Desktop/GD32VW553/V1_MQTT_OK/GD32VW55X_Wifi_BLE_SDK/GD32VW55x_RELEASE_V1.0.2/MSDK/lwip/libcoap-4.3.4/src\coap_address.c **** #include <sys/socket.h>
  27:C:/Users/stapi/OneDrive/Desktop/GD32VW553/V1_MQTT_OK/GD32VW55X_Wifi_BLE_SDK/GD32VW55x_RELEASE_V1.0.2/MSDK/lwip/libcoap-4.3.4/src\coap_address.c **** #endif
  28:C:/Users/stapi/OneDrive/Desktop/GD32VW553/V1_MQTT_OK/GD32VW55X_Wifi_BLE_SDK/GD32VW55x_RELEASE_V1.0.2/MSDK/lwip/libcoap-4.3.4/src\coap_address.c **** #ifdef HAVE_NET_IF_H
  29:C:/Users/stapi/OneDrive/Desktop/GD32VW553/V1_MQTT_OK/GD32VW55X_Wifi_BLE_SDK/GD32VW55x_RELEASE_V1.0.2/MSDK/lwip/libcoap-4.3.4/src\coap_address.c **** #include <net/if.h>
  30:C:/Users/stapi/OneDrive/Desktop/GD32VW553/V1_MQTT_OK/GD32VW55X_Wifi_BLE_SDK/GD32VW55x_RELEASE_V1.0.2/MSDK/lwip/libcoap-4.3.4/src\coap_address.c **** #endif
  31:C:/Users/stapi/OneDrive/Desktop/GD32VW553/V1_MQTT_OK/GD32VW55X_Wifi_BLE_SDK/GD32VW55x_RELEASE_V1.0.2/MSDK/lwip/libcoap-4.3.4/src\coap_address.c **** #ifdef HAVE_IFADDRS_H
  32:C:/Users/stapi/OneDrive/Desktop/GD32VW553/V1_MQTT_OK/GD32VW55X_Wifi_BLE_SDK/GD32VW55x_RELEASE_V1.0.2/MSDK/lwip/libcoap-4.3.4/src\coap_address.c **** #include <ifaddrs.h>
  33:C:/Users/stapi/OneDrive/Desktop/GD32VW553/V1_MQTT_OK/GD32VW55X_Wifi_BLE_SDK/GD32VW55x_RELEASE_V1.0.2/MSDK/lwip/libcoap-4.3.4/src\coap_address.c **** #endif
  34:C:/Users/stapi/OneDrive/Desktop/GD32VW553/V1_MQTT_OK/GD32VW55X_Wifi_BLE_SDK/GD32VW55x_RELEASE_V1.0.2/MSDK/lwip/libcoap-4.3.4/src\coap_address.c **** #ifdef HAVE_WS2TCPIP_H
  35:C:/Users/stapi/OneDrive/Desktop/GD32VW553/V1_MQTT_OK/GD32VW55X_Wifi_BLE_SDK/GD32VW55x_RELEASE_V1.0.2/MSDK/lwip/libcoap-4.3.4/src\coap_address.c **** #include <ws2tcpip.h>
  36:C:/Users/stapi/OneDrive/Desktop/GD32VW553/V1_MQTT_OK/GD32VW55X_Wifi_BLE_SDK/GD32VW55x_RELEASE_V1.0.2/MSDK/lwip/libcoap-4.3.4/src\coap_address.c **** #endif
  37:C:/Users/stapi/OneDrive/Desktop/GD32VW553/V1_MQTT_OK/GD32VW55X_Wifi_BLE_SDK/GD32VW55x_RELEASE_V1.0.2/MSDK/lwip/libcoap-4.3.4/src\coap_address.c **** 
  38:C:/Users/stapi/OneDrive/Desktop/GD32VW553/V1_MQTT_OK/GD32VW55X_Wifi_BLE_SDK/GD32VW55x_RELEASE_V1.0.2/MSDK/lwip/libcoap-4.3.4/src\coap_address.c **** #ifdef RIOT_VERSION
  39:C:/Users/stapi/OneDrive/Desktop/GD32VW553/V1_MQTT_OK/GD32VW55X_Wifi_BLE_SDK/GD32VW55x_RELEASE_V1.0.2/MSDK/lwip/libcoap-4.3.4/src\coap_address.c **** /* FIXME */
  40:C:/Users/stapi/OneDrive/Desktop/GD32VW553/V1_MQTT_OK/GD32VW55X_Wifi_BLE_SDK/GD32VW55x_RELEASE_V1.0.2/MSDK/lwip/libcoap-4.3.4/src\coap_address.c **** #define IN_MULTICAST(Address) (0)
  41:C:/Users/stapi/OneDrive/Desktop/GD32VW553/V1_MQTT_OK/GD32VW55X_Wifi_BLE_SDK/GD32VW55x_RELEASE_V1.0.2/MSDK/lwip/libcoap-4.3.4/src\coap_address.c **** #endif /* RIOT_VERSION */
  42:C:/Users/stapi/OneDrive/Desktop/GD32VW553/V1_MQTT_OK/GD32VW55X_Wifi_BLE_SDK/GD32VW55x_RELEASE_V1.0.2/MSDK/lwip/libcoap-4.3.4/src\coap_address.c **** 
  43:C:/Users/stapi/OneDrive/Desktop/GD32VW553/V1_MQTT_OK/GD32VW55X_Wifi_BLE_SDK/GD32VW55x_RELEASE_V1.0.2/MSDK/lwip/libcoap-4.3.4/src\coap_address.c **** uint16_t
  44:C:/Users/stapi/OneDrive/Desktop/GD32VW553/V1_MQTT_OK/GD32VW55X_Wifi_BLE_SDK/GD32VW55x_RELEASE_V1.0.2/MSDK/lwip/libcoap-4.3.4/src\coap_address.c **** coap_address_get_port(const coap_address_t *addr) {
  45:C:/Users/stapi/OneDrive/Desktop/GD32VW553/V1_MQTT_OK/GD32VW55X_Wifi_BLE_SDK/GD32VW55x_RELEASE_V1.0.2/MSDK/lwip/libcoap-4.3.4/src\coap_address.c ****   assert(addr != NULL);
  46:C:/Users/stapi/OneDrive/Desktop/GD32VW553/V1_MQTT_OK/GD32VW55X_Wifi_BLE_SDK/GD32VW55x_RELEASE_V1.0.2/MSDK/lwip/libcoap-4.3.4/src\coap_address.c ****   switch (addr->addr.sa.sa_family) {
  47:C:/Users/stapi/OneDrive/Desktop/GD32VW553/V1_MQTT_OK/GD32VW55X_Wifi_BLE_SDK/GD32VW55x_RELEASE_V1.0.2/MSDK/lwip/libcoap-4.3.4/src\coap_address.c **** #if COAP_IPV4_SUPPORT
  48:C:/Users/stapi/OneDrive/Desktop/GD32VW553/V1_MQTT_OK/GD32VW55X_Wifi_BLE_SDK/GD32VW55x_RELEASE_V1.0.2/MSDK/lwip/libcoap-4.3.4/src\coap_address.c ****   case AF_INET:
  49:C:/Users/stapi/OneDrive/Desktop/GD32VW553/V1_MQTT_OK/GD32VW55X_Wifi_BLE_SDK/GD32VW55x_RELEASE_V1.0.2/MSDK/lwip/libcoap-4.3.4/src\coap_address.c ****     return ntohs(addr->addr.sin.sin_port);
  50:C:/Users/stapi/OneDrive/Desktop/GD32VW553/V1_MQTT_OK/GD32VW55X_Wifi_BLE_SDK/GD32VW55x_RELEASE_V1.0.2/MSDK/lwip/libcoap-4.3.4/src\coap_address.c **** #endif /* COAP_IPV4_SUPPORT */
  51:C:/Users/stapi/OneDrive/Desktop/GD32VW553/V1_MQTT_OK/GD32VW55X_Wifi_BLE_SDK/GD32VW55x_RELEASE_V1.0.2/MSDK/lwip/libcoap-4.3.4/src\coap_address.c **** #if COAP_IPV6_SUPPORT
  52:C:/Users/stapi/OneDrive/Desktop/GD32VW553/V1_MQTT_OK/GD32VW55X_Wifi_BLE_SDK/GD32VW55x_RELEASE_V1.0.2/MSDK/lwip/libcoap-4.3.4/src\coap_address.c ****   case AF_INET6:
  53:C:/Users/stapi/OneDrive/Desktop/GD32VW553/V1_MQTT_OK/GD32VW55X_Wifi_BLE_SDK/GD32VW55x_RELEASE_V1.0.2/MSDK/lwip/libcoap-4.3.4/src\coap_address.c ****     return ntohs(addr->addr.sin6.sin6_port);
  54:C:/Users/stapi/OneDrive/Desktop/GD32VW553/V1_MQTT_OK/GD32VW55X_Wifi_BLE_SDK/GD32VW55x_RELEASE_V1.0.2/MSDK/lwip/libcoap-4.3.4/src\coap_address.c **** #endif /* COAP_IPV6_SUPPORT */
  55:C:/Users/stapi/OneDrive/Desktop/GD32VW553/V1_MQTT_OK/GD32VW55X_Wifi_BLE_SDK/GD32VW55x_RELEASE_V1.0.2/MSDK/lwip/libcoap-4.3.4/src\coap_address.c ****   default: /* undefined */
  56:C:/Users/stapi/OneDrive/Desktop/GD32VW553/V1_MQTT_OK/GD32VW55X_Wifi_BLE_SDK/GD32VW55x_RELEASE_V1.0.2/MSDK/lwip/libcoap-4.3.4/src\coap_address.c ****     ;
  57:C:/Users/stapi/OneDrive/Desktop/GD32VW553/V1_MQTT_OK/GD32VW55X_Wifi_BLE_SDK/GD32VW55x_RELEASE_V1.0.2/MSDK/lwip/libcoap-4.3.4/src\coap_address.c ****   }
  58:C:/Users/stapi/OneDrive/Desktop/GD32VW553/V1_MQTT_OK/GD32VW55X_Wifi_BLE_SDK/GD32VW55x_RELEASE_V1.0.2/MSDK/lwip/libcoap-4.3.4/src\coap_address.c ****   return 0;
  59:C:/Users/stapi/OneDrive/Desktop/GD32VW553/V1_MQTT_OK/GD32VW55X_Wifi_BLE_SDK/GD32VW55x_RELEASE_V1.0.2/MSDK/lwip/libcoap-4.3.4/src\coap_address.c **** }
  60:C:/Users/stapi/OneDrive/Desktop/GD32VW553/V1_MQTT_OK/GD32VW55X_Wifi_BLE_SDK/GD32VW55x_RELEASE_V1.0.2/MSDK/lwip/libcoap-4.3.4/src\coap_address.c **** 
  61:C:/Users/stapi/OneDrive/Desktop/GD32VW553/V1_MQTT_OK/GD32VW55X_Wifi_BLE_SDK/GD32VW55x_RELEASE_V1.0.2/MSDK/lwip/libcoap-4.3.4/src\coap_address.c **** void
  62:C:/Users/stapi/OneDrive/Desktop/GD32VW553/V1_MQTT_OK/GD32VW55X_Wifi_BLE_SDK/GD32VW55x_RELEASE_V1.0.2/MSDK/lwip/libcoap-4.3.4/src\coap_address.c **** coap_address_set_port(coap_address_t *addr, uint16_t port) {
  63:C:/Users/stapi/OneDrive/Desktop/GD32VW553/V1_MQTT_OK/GD32VW55X_Wifi_BLE_SDK/GD32VW55x_RELEASE_V1.0.2/MSDK/lwip/libcoap-4.3.4/src\coap_address.c ****   assert(addr != NULL);
  64:C:/Users/stapi/OneDrive/Desktop/GD32VW553/V1_MQTT_OK/GD32VW55X_Wifi_BLE_SDK/GD32VW55x_RELEASE_V1.0.2/MSDK/lwip/libcoap-4.3.4/src\coap_address.c ****   switch (addr->addr.sa.sa_family) {
  65:C:/Users/stapi/OneDrive/Desktop/GD32VW553/V1_MQTT_OK/GD32VW55X_Wifi_BLE_SDK/GD32VW55x_RELEASE_V1.0.2/MSDK/lwip/libcoap-4.3.4/src\coap_address.c **** #if COAP_IPV4_SUPPORT
  66:C:/Users/stapi/OneDrive/Desktop/GD32VW553/V1_MQTT_OK/GD32VW55X_Wifi_BLE_SDK/GD32VW55x_RELEASE_V1.0.2/MSDK/lwip/libcoap-4.3.4/src\coap_address.c ****   case AF_INET:
  67:C:/Users/stapi/OneDrive/Desktop/GD32VW553/V1_MQTT_OK/GD32VW55X_Wifi_BLE_SDK/GD32VW55x_RELEASE_V1.0.2/MSDK/lwip/libcoap-4.3.4/src\coap_address.c ****     addr->addr.sin.sin_port = htons(port);
  68:C:/Users/stapi/OneDrive/Desktop/GD32VW553/V1_MQTT_OK/GD32VW55X_Wifi_BLE_SDK/GD32VW55x_RELEASE_V1.0.2/MSDK/lwip/libcoap-4.3.4/src\coap_address.c ****     break;
  69:C:/Users/stapi/OneDrive/Desktop/GD32VW553/V1_MQTT_OK/GD32VW55X_Wifi_BLE_SDK/GD32VW55x_RELEASE_V1.0.2/MSDK/lwip/libcoap-4.3.4/src\coap_address.c **** #endif /* COAP_IPV4_SUPPORT */
  70:C:/Users/stapi/OneDrive/Desktop/GD32VW553/V1_MQTT_OK/GD32VW55X_Wifi_BLE_SDK/GD32VW55x_RELEASE_V1.0.2/MSDK/lwip/libcoap-4.3.4/src\coap_address.c **** #if COAP_IPV6_SUPPORT
  71:C:/Users/stapi/OneDrive/Desktop/GD32VW553/V1_MQTT_OK/GD32VW55X_Wifi_BLE_SDK/GD32VW55x_RELEASE_V1.0.2/MSDK/lwip/libcoap-4.3.4/src\coap_address.c ****   case AF_INET6:
  72:C:/Users/stapi/OneDrive/Desktop/GD32VW553/V1_MQTT_OK/GD32VW55X_Wifi_BLE_SDK/GD32VW55x_RELEASE_V1.0.2/MSDK/lwip/libcoap-4.3.4/src\coap_address.c ****     addr->addr.sin6.sin6_port = htons(port);
  73:C:/Users/stapi/OneDrive/Desktop/GD32VW553/V1_MQTT_OK/GD32VW55X_Wifi_BLE_SDK/GD32VW55x_RELEASE_V1.0.2/MSDK/lwip/libcoap-4.3.4/src\coap_address.c ****     break;
  74:C:/Users/stapi/OneDrive/Desktop/GD32VW553/V1_MQTT_OK/GD32VW55X_Wifi_BLE_SDK/GD32VW55x_RELEASE_V1.0.2/MSDK/lwip/libcoap-4.3.4/src\coap_address.c **** #endif /* COAP_IPV6_SUPPORT */
  75:C:/Users/stapi/OneDrive/Desktop/GD32VW553/V1_MQTT_OK/GD32VW55X_Wifi_BLE_SDK/GD32VW55x_RELEASE_V1.0.2/MSDK/lwip/libcoap-4.3.4/src\coap_address.c ****   default: /* undefined */
  76:C:/Users/stapi/OneDrive/Desktop/GD32VW553/V1_MQTT_OK/GD32VW55X_Wifi_BLE_SDK/GD32VW55x_RELEASE_V1.0.2/MSDK/lwip/libcoap-4.3.4/src\coap_address.c ****     ;
  77:C:/Users/stapi/OneDrive/Desktop/GD32VW553/V1_MQTT_OK/GD32VW55X_Wifi_BLE_SDK/GD32VW55x_RELEASE_V1.0.2/MSDK/lwip/libcoap-4.3.4/src\coap_address.c ****   }
  78:C:/Users/stapi/OneDrive/Desktop/GD32VW553/V1_MQTT_OK/GD32VW55X_Wifi_BLE_SDK/GD32VW55x_RELEASE_V1.0.2/MSDK/lwip/libcoap-4.3.4/src\coap_address.c **** }
  79:C:/Users/stapi/OneDrive/Desktop/GD32VW553/V1_MQTT_OK/GD32VW55X_Wifi_BLE_SDK/GD32VW55x_RELEASE_V1.0.2/MSDK/lwip/libcoap-4.3.4/src\coap_address.c **** 
  80:C:/Users/stapi/OneDrive/Desktop/GD32VW553/V1_MQTT_OK/GD32VW55X_Wifi_BLE_SDK/GD32VW55x_RELEASE_V1.0.2/MSDK/lwip/libcoap-4.3.4/src\coap_address.c **** int
  81:C:/Users/stapi/OneDrive/Desktop/GD32VW553/V1_MQTT_OK/GD32VW55X_Wifi_BLE_SDK/GD32VW55x_RELEASE_V1.0.2/MSDK/lwip/libcoap-4.3.4/src\coap_address.c **** coap_address_equals(const coap_address_t *a, const coap_address_t *b) {
  82:C:/Users/stapi/OneDrive/Desktop/GD32VW553/V1_MQTT_OK/GD32VW55X_Wifi_BLE_SDK/GD32VW55x_RELEASE_V1.0.2/MSDK/lwip/libcoap-4.3.4/src\coap_address.c ****   assert(a);
  83:C:/Users/stapi/OneDrive/Desktop/GD32VW553/V1_MQTT_OK/GD32VW55X_Wifi_BLE_SDK/GD32VW55x_RELEASE_V1.0.2/MSDK/lwip/libcoap-4.3.4/src\coap_address.c ****   assert(b);
  84:C:/Users/stapi/OneDrive/Desktop/GD32VW553/V1_MQTT_OK/GD32VW55X_Wifi_BLE_SDK/GD32VW55x_RELEASE_V1.0.2/MSDK/lwip/libcoap-4.3.4/src\coap_address.c **** 
  85:C:/Users/stapi/OneDrive/Desktop/GD32VW553/V1_MQTT_OK/GD32VW55X_Wifi_BLE_SDK/GD32VW55x_RELEASE_V1.0.2/MSDK/lwip/libcoap-4.3.4/src\coap_address.c ****   if (a->size != b->size || a->addr.sa.sa_family != b->addr.sa.sa_family)
  86:C:/Users/stapi/OneDrive/Desktop/GD32VW553/V1_MQTT_OK/GD32VW55X_Wifi_BLE_SDK/GD32VW55x_RELEASE_V1.0.2/MSDK/lwip/libcoap-4.3.4/src\coap_address.c ****     return 0;
  87:C:/Users/stapi/OneDrive/Desktop/GD32VW553/V1_MQTT_OK/GD32VW55X_Wifi_BLE_SDK/GD32VW55x_RELEASE_V1.0.2/MSDK/lwip/libcoap-4.3.4/src\coap_address.c **** 
  88:C:/Users/stapi/OneDrive/Desktop/GD32VW553/V1_MQTT_OK/GD32VW55X_Wifi_BLE_SDK/GD32VW55x_RELEASE_V1.0.2/MSDK/lwip/libcoap-4.3.4/src\coap_address.c ****   /* need to compare only relevant parts of sockaddr_in6 */
  89:C:/Users/stapi/OneDrive/Desktop/GD32VW553/V1_MQTT_OK/GD32VW55X_Wifi_BLE_SDK/GD32VW55x_RELEASE_V1.0.2/MSDK/lwip/libcoap-4.3.4/src\coap_address.c ****   switch (a->addr.sa.sa_family) {
  90:C:/Users/stapi/OneDrive/Desktop/GD32VW553/V1_MQTT_OK/GD32VW55X_Wifi_BLE_SDK/GD32VW55x_RELEASE_V1.0.2/MSDK/lwip/libcoap-4.3.4/src\coap_address.c **** #if COAP_IPV4_SUPPORT
  91:C:/Users/stapi/OneDrive/Desktop/GD32VW553/V1_MQTT_OK/GD32VW55X_Wifi_BLE_SDK/GD32VW55x_RELEASE_V1.0.2/MSDK/lwip/libcoap-4.3.4/src\coap_address.c ****   case AF_INET:
  92:C:/Users/stapi/OneDrive/Desktop/GD32VW553/V1_MQTT_OK/GD32VW55X_Wifi_BLE_SDK/GD32VW55x_RELEASE_V1.0.2/MSDK/lwip/libcoap-4.3.4/src\coap_address.c ****     return a->addr.sin.sin_port == b->addr.sin.sin_port &&
  93:C:/Users/stapi/OneDrive/Desktop/GD32VW553/V1_MQTT_OK/GD32VW55X_Wifi_BLE_SDK/GD32VW55x_RELEASE_V1.0.2/MSDK/lwip/libcoap-4.3.4/src\coap_address.c ****            memcmp(&a->addr.sin.sin_addr, &b->addr.sin.sin_addr,
  94:C:/Users/stapi/OneDrive/Desktop/GD32VW553/V1_MQTT_OK/GD32VW55X_Wifi_BLE_SDK/GD32VW55x_RELEASE_V1.0.2/MSDK/lwip/libcoap-4.3.4/src\coap_address.c ****                   sizeof(struct in_addr)) == 0;
  95:C:/Users/stapi/OneDrive/Desktop/GD32VW553/V1_MQTT_OK/GD32VW55X_Wifi_BLE_SDK/GD32VW55x_RELEASE_V1.0.2/MSDK/lwip/libcoap-4.3.4/src\coap_address.c **** #endif /* COAP_IPV4_SUPPORT */
  96:C:/Users/stapi/OneDrive/Desktop/GD32VW553/V1_MQTT_OK/GD32VW55X_Wifi_BLE_SDK/GD32VW55x_RELEASE_V1.0.2/MSDK/lwip/libcoap-4.3.4/src\coap_address.c **** #if COAP_IPV6_SUPPORT
  97:C:/Users/stapi/OneDrive/Desktop/GD32VW553/V1_MQTT_OK/GD32VW55X_Wifi_BLE_SDK/GD32VW55x_RELEASE_V1.0.2/MSDK/lwip/libcoap-4.3.4/src\coap_address.c ****   case AF_INET6:
  98:C:/Users/stapi/OneDrive/Desktop/GD32VW553/V1_MQTT_OK/GD32VW55X_Wifi_BLE_SDK/GD32VW55x_RELEASE_V1.0.2/MSDK/lwip/libcoap-4.3.4/src\coap_address.c ****     return a->addr.sin6.sin6_port == b->addr.sin6.sin6_port &&
  99:C:/Users/stapi/OneDrive/Desktop/GD32VW553/V1_MQTT_OK/GD32VW55X_Wifi_BLE_SDK/GD32VW55x_RELEASE_V1.0.2/MSDK/lwip/libcoap-4.3.4/src\coap_address.c ****            memcmp(&a->addr.sin6.sin6_addr, &b->addr.sin6.sin6_addr,
 100:C:/Users/stapi/OneDrive/Desktop/GD32VW553/V1_MQTT_OK/GD32VW55X_Wifi_BLE_SDK/GD32VW55x_RELEASE_V1.0.2/MSDK/lwip/libcoap-4.3.4/src\coap_address.c ****                   sizeof(struct in6_addr)) == 0;
 101:C:/Users/stapi/OneDrive/Desktop/GD32VW553/V1_MQTT_OK/GD32VW55X_Wifi_BLE_SDK/GD32VW55x_RELEASE_V1.0.2/MSDK/lwip/libcoap-4.3.4/src\coap_address.c **** #endif /* COAP_IPV6_SUPPORT */
 102:C:/Users/stapi/OneDrive/Desktop/GD32VW553/V1_MQTT_OK/GD32VW55X_Wifi_BLE_SDK/GD32VW55x_RELEASE_V1.0.2/MSDK/lwip/libcoap-4.3.4/src\coap_address.c ****   default: /* fall through and signal error */
 103:C:/Users/stapi/OneDrive/Desktop/GD32VW553/V1_MQTT_OK/GD32VW55X_Wifi_BLE_SDK/GD32VW55x_RELEASE_V1.0.2/MSDK/lwip/libcoap-4.3.4/src\coap_address.c ****     ;
 104:C:/Users/stapi/OneDrive/Desktop/GD32VW553/V1_MQTT_OK/GD32VW55X_Wifi_BLE_SDK/GD32VW55x_RELEASE_V1.0.2/MSDK/lwip/libcoap-4.3.4/src\coap_address.c ****   }
 105:C:/Users/stapi/OneDrive/Desktop/GD32VW553/V1_MQTT_OK/GD32VW55X_Wifi_BLE_SDK/GD32VW55x_RELEASE_V1.0.2/MSDK/lwip/libcoap-4.3.4/src\coap_address.c ****   return 0;
 106:C:/Users/stapi/OneDrive/Desktop/GD32VW553/V1_MQTT_OK/GD32VW55X_Wifi_BLE_SDK/GD32VW55x_RELEASE_V1.0.2/MSDK/lwip/libcoap-4.3.4/src\coap_address.c **** }
 107:C:/Users/stapi/OneDrive/Desktop/GD32VW553/V1_MQTT_OK/GD32VW55X_Wifi_BLE_SDK/GD32VW55x_RELEASE_V1.0.2/MSDK/lwip/libcoap-4.3.4/src\coap_address.c **** 
 108:C:/Users/stapi/OneDrive/Desktop/GD32VW553/V1_MQTT_OK/GD32VW55X_Wifi_BLE_SDK/GD32VW55x_RELEASE_V1.0.2/MSDK/lwip/libcoap-4.3.4/src\coap_address.c **** int
 109:C:/Users/stapi/OneDrive/Desktop/GD32VW553/V1_MQTT_OK/GD32VW55X_Wifi_BLE_SDK/GD32VW55x_RELEASE_V1.0.2/MSDK/lwip/libcoap-4.3.4/src\coap_address.c **** coap_is_af_unix(const coap_address_t *a) {
 110:C:/Users/stapi/OneDrive/Desktop/GD32VW553/V1_MQTT_OK/GD32VW55X_Wifi_BLE_SDK/GD32VW55x_RELEASE_V1.0.2/MSDK/lwip/libcoap-4.3.4/src\coap_address.c **** #if COAP_AF_UNIX_SUPPORT
 111:C:/Users/stapi/OneDrive/Desktop/GD32VW553/V1_MQTT_OK/GD32VW55X_Wifi_BLE_SDK/GD32VW55x_RELEASE_V1.0.2/MSDK/lwip/libcoap-4.3.4/src\coap_address.c ****   return a->addr.sa.sa_family == AF_UNIX;
 112:C:/Users/stapi/OneDrive/Desktop/GD32VW553/V1_MQTT_OK/GD32VW55X_Wifi_BLE_SDK/GD32VW55x_RELEASE_V1.0.2/MSDK/lwip/libcoap-4.3.4/src\coap_address.c **** #else /* ! COAP_AF_UNIX_SUPPORT */
 113:C:/Users/stapi/OneDrive/Desktop/GD32VW553/V1_MQTT_OK/GD32VW55X_Wifi_BLE_SDK/GD32VW55x_RELEASE_V1.0.2/MSDK/lwip/libcoap-4.3.4/src\coap_address.c ****   (void)a;
 114:C:/Users/stapi/OneDrive/Desktop/GD32VW553/V1_MQTT_OK/GD32VW55X_Wifi_BLE_SDK/GD32VW55x_RELEASE_V1.0.2/MSDK/lwip/libcoap-4.3.4/src\coap_address.c ****   return 0;
 115:C:/Users/stapi/OneDrive/Desktop/GD32VW553/V1_MQTT_OK/GD32VW55X_Wifi_BLE_SDK/GD32VW55x_RELEASE_V1.0.2/MSDK/lwip/libcoap-4.3.4/src\coap_address.c **** #endif /* ! COAP_AF_UNIX_SUPPORT */
 116:C:/Users/stapi/OneDrive/Desktop/GD32VW553/V1_MQTT_OK/GD32VW55X_Wifi_BLE_SDK/GD32VW55x_RELEASE_V1.0.2/MSDK/lwip/libcoap-4.3.4/src\coap_address.c **** }
 117:C:/Users/stapi/OneDrive/Desktop/GD32VW553/V1_MQTT_OK/GD32VW55X_Wifi_BLE_SDK/GD32VW55x_RELEASE_V1.0.2/MSDK/lwip/libcoap-4.3.4/src\coap_address.c **** 
 118:C:/Users/stapi/OneDrive/Desktop/GD32VW553/V1_MQTT_OK/GD32VW55X_Wifi_BLE_SDK/GD32VW55x_RELEASE_V1.0.2/MSDK/lwip/libcoap-4.3.4/src\coap_address.c **** int
 119:C:/Users/stapi/OneDrive/Desktop/GD32VW553/V1_MQTT_OK/GD32VW55X_Wifi_BLE_SDK/GD32VW55x_RELEASE_V1.0.2/MSDK/lwip/libcoap-4.3.4/src\coap_address.c **** coap_is_mcast(const coap_address_t *a) {
 120:C:/Users/stapi/OneDrive/Desktop/GD32VW553/V1_MQTT_OK/GD32VW55X_Wifi_BLE_SDK/GD32VW55x_RELEASE_V1.0.2/MSDK/lwip/libcoap-4.3.4/src\coap_address.c ****   if (!a)
 121:C:/Users/stapi/OneDrive/Desktop/GD32VW553/V1_MQTT_OK/GD32VW55X_Wifi_BLE_SDK/GD32VW55x_RELEASE_V1.0.2/MSDK/lwip/libcoap-4.3.4/src\coap_address.c ****     return 0;
 122:C:/Users/stapi/OneDrive/Desktop/GD32VW553/V1_MQTT_OK/GD32VW55X_Wifi_BLE_SDK/GD32VW55x_RELEASE_V1.0.2/MSDK/lwip/libcoap-4.3.4/src\coap_address.c **** 
 123:C:/Users/stapi/OneDrive/Desktop/GD32VW553/V1_MQTT_OK/GD32VW55X_Wifi_BLE_SDK/GD32VW55x_RELEASE_V1.0.2/MSDK/lwip/libcoap-4.3.4/src\coap_address.c ****   /* Treat broadcast in same way as multicast */
 124:C:/Users/stapi/OneDrive/Desktop/GD32VW553/V1_MQTT_OK/GD32VW55X_Wifi_BLE_SDK/GD32VW55x_RELEASE_V1.0.2/MSDK/lwip/libcoap-4.3.4/src\coap_address.c ****   if (coap_is_bcast(a))
 125:C:/Users/stapi/OneDrive/Desktop/GD32VW553/V1_MQTT_OK/GD32VW55X_Wifi_BLE_SDK/GD32VW55x_RELEASE_V1.0.2/MSDK/lwip/libcoap-4.3.4/src\coap_address.c ****     return 1;
 126:C:/Users/stapi/OneDrive/Desktop/GD32VW553/V1_MQTT_OK/GD32VW55X_Wifi_BLE_SDK/GD32VW55x_RELEASE_V1.0.2/MSDK/lwip/libcoap-4.3.4/src\coap_address.c **** 
 127:C:/Users/stapi/OneDrive/Desktop/GD32VW553/V1_MQTT_OK/GD32VW55X_Wifi_BLE_SDK/GD32VW55x_RELEASE_V1.0.2/MSDK/lwip/libcoap-4.3.4/src\coap_address.c ****   switch (a->addr.sa.sa_family) {
 128:C:/Users/stapi/OneDrive/Desktop/GD32VW553/V1_MQTT_OK/GD32VW55X_Wifi_BLE_SDK/GD32VW55x_RELEASE_V1.0.2/MSDK/lwip/libcoap-4.3.4/src\coap_address.c **** #if COAP_IPV4_SUPPORT
 129:C:/Users/stapi/OneDrive/Desktop/GD32VW553/V1_MQTT_OK/GD32VW55X_Wifi_BLE_SDK/GD32VW55x_RELEASE_V1.0.2/MSDK/lwip/libcoap-4.3.4/src\coap_address.c ****   case AF_INET:
 130:C:/Users/stapi/OneDrive/Desktop/GD32VW553/V1_MQTT_OK/GD32VW55X_Wifi_BLE_SDK/GD32VW55x_RELEASE_V1.0.2/MSDK/lwip/libcoap-4.3.4/src\coap_address.c ****     return IN_MULTICAST(ntohl(a->addr.sin.sin_addr.s_addr));
 131:C:/Users/stapi/OneDrive/Desktop/GD32VW553/V1_MQTT_OK/GD32VW55X_Wifi_BLE_SDK/GD32VW55x_RELEASE_V1.0.2/MSDK/lwip/libcoap-4.3.4/src\coap_address.c **** #endif /* COAP_IPV4_SUPPORT */
 132:C:/Users/stapi/OneDrive/Desktop/GD32VW553/V1_MQTT_OK/GD32VW55X_Wifi_BLE_SDK/GD32VW55x_RELEASE_V1.0.2/MSDK/lwip/libcoap-4.3.4/src\coap_address.c **** #if COAP_IPV6_SUPPORT
 133:C:/Users/stapi/OneDrive/Desktop/GD32VW553/V1_MQTT_OK/GD32VW55X_Wifi_BLE_SDK/GD32VW55x_RELEASE_V1.0.2/MSDK/lwip/libcoap-4.3.4/src\coap_address.c ****   case  AF_INET6:
 134:C:/Users/stapi/OneDrive/Desktop/GD32VW553/V1_MQTT_OK/GD32VW55X_Wifi_BLE_SDK/GD32VW55x_RELEASE_V1.0.2/MSDK/lwip/libcoap-4.3.4/src\coap_address.c **** #if COAP_IPV4_SUPPORT
 135:C:/Users/stapi/OneDrive/Desktop/GD32VW553/V1_MQTT_OK/GD32VW55X_Wifi_BLE_SDK/GD32VW55x_RELEASE_V1.0.2/MSDK/lwip/libcoap-4.3.4/src\coap_address.c ****     return IN6_IS_ADDR_MULTICAST(&a->addr.sin6.sin6_addr) ||
 136:C:/Users/stapi/OneDrive/Desktop/GD32VW553/V1_MQTT_OK/GD32VW55X_Wifi_BLE_SDK/GD32VW55x_RELEASE_V1.0.2/MSDK/lwip/libcoap-4.3.4/src\coap_address.c ****            (IN6_IS_ADDR_V4MAPPED(&a->addr.sin6.sin6_addr) &&
 137:C:/Users/stapi/OneDrive/Desktop/GD32VW553/V1_MQTT_OK/GD32VW55X_Wifi_BLE_SDK/GD32VW55x_RELEASE_V1.0.2/MSDK/lwip/libcoap-4.3.4/src\coap_address.c ****             IN_MULTICAST(ntohl(a->addr.sin6.sin6_addr.s6_addr[12])));
 138:C:/Users/stapi/OneDrive/Desktop/GD32VW553/V1_MQTT_OK/GD32VW55X_Wifi_BLE_SDK/GD32VW55x_RELEASE_V1.0.2/MSDK/lwip/libcoap-4.3.4/src\coap_address.c **** #else /* ! COAP_IPV4_SUPPORT */
 139:C:/Users/stapi/OneDrive/Desktop/GD32VW553/V1_MQTT_OK/GD32VW55X_Wifi_BLE_SDK/GD32VW55x_RELEASE_V1.0.2/MSDK/lwip/libcoap-4.3.4/src\coap_address.c ****     return a->addr.sin6.sin6_addr.s6_addr[0] == 0xff;
 140:C:/Users/stapi/OneDrive/Desktop/GD32VW553/V1_MQTT_OK/GD32VW55X_Wifi_BLE_SDK/GD32VW55x_RELEASE_V1.0.2/MSDK/lwip/libcoap-4.3.4/src\coap_address.c **** #endif /* ! COAP_IPV4_SUPPORT */
 141:C:/Users/stapi/OneDrive/Desktop/GD32VW553/V1_MQTT_OK/GD32VW55X_Wifi_BLE_SDK/GD32VW55x_RELEASE_V1.0.2/MSDK/lwip/libcoap-4.3.4/src\coap_address.c **** #endif /* COAP_IPV6_SUPPORT */
 142:C:/Users/stapi/OneDrive/Desktop/GD32VW553/V1_MQTT_OK/GD32VW55X_Wifi_BLE_SDK/GD32VW55x_RELEASE_V1.0.2/MSDK/lwip/libcoap-4.3.4/src\coap_address.c ****   default:  /* fall through and signal not multicast */
 143:C:/Users/stapi/OneDrive/Desktop/GD32VW553/V1_MQTT_OK/GD32VW55X_Wifi_BLE_SDK/GD32VW55x_RELEASE_V1.0.2/MSDK/lwip/libcoap-4.3.4/src\coap_address.c ****     ;
 144:C:/Users/stapi/OneDrive/Desktop/GD32VW553/V1_MQTT_OK/GD32VW55X_Wifi_BLE_SDK/GD32VW55x_RELEASE_V1.0.2/MSDK/lwip/libcoap-4.3.4/src\coap_address.c ****   }
 145:C:/Users/stapi/OneDrive/Desktop/GD32VW553/V1_MQTT_OK/GD32VW55X_Wifi_BLE_SDK/GD32VW55x_RELEASE_V1.0.2/MSDK/lwip/libcoap-4.3.4/src\coap_address.c ****   return 0;
 146:C:/Users/stapi/OneDrive/Desktop/GD32VW553/V1_MQTT_OK/GD32VW55X_Wifi_BLE_SDK/GD32VW55x_RELEASE_V1.0.2/MSDK/lwip/libcoap-4.3.4/src\coap_address.c **** }
 147:C:/Users/stapi/OneDrive/Desktop/GD32VW553/V1_MQTT_OK/GD32VW55X_Wifi_BLE_SDK/GD32VW55x_RELEASE_V1.0.2/MSDK/lwip/libcoap-4.3.4/src\coap_address.c **** 
 148:C:/Users/stapi/OneDrive/Desktop/GD32VW553/V1_MQTT_OK/GD32VW55X_Wifi_BLE_SDK/GD32VW55x_RELEASE_V1.0.2/MSDK/lwip/libcoap-4.3.4/src\coap_address.c **** #ifndef COAP_BCST_CNT
 149:C:/Users/stapi/OneDrive/Desktop/GD32VW553/V1_MQTT_OK/GD32VW55X_Wifi_BLE_SDK/GD32VW55x_RELEASE_V1.0.2/MSDK/lwip/libcoap-4.3.4/src\coap_address.c **** #define COAP_BCST_CNT 15
 150:C:/Users/stapi/OneDrive/Desktop/GD32VW553/V1_MQTT_OK/GD32VW55X_Wifi_BLE_SDK/GD32VW55x_RELEASE_V1.0.2/MSDK/lwip/libcoap-4.3.4/src\coap_address.c **** #endif /* COAP_BCST_CNT */
 151:C:/Users/stapi/OneDrive/Desktop/GD32VW553/V1_MQTT_OK/GD32VW55X_Wifi_BLE_SDK/GD32VW55x_RELEASE_V1.0.2/MSDK/lwip/libcoap-4.3.4/src\coap_address.c **** 
 152:C:/Users/stapi/OneDrive/Desktop/GD32VW553/V1_MQTT_OK/GD32VW55X_Wifi_BLE_SDK/GD32VW55x_RELEASE_V1.0.2/MSDK/lwip/libcoap-4.3.4/src\coap_address.c **** /* How frequently to refresh the list of valid IPv4 broadcast addresses */
 153:C:/Users/stapi/OneDrive/Desktop/GD32VW553/V1_MQTT_OK/GD32VW55X_Wifi_BLE_SDK/GD32VW55x_RELEASE_V1.0.2/MSDK/lwip/libcoap-4.3.4/src\coap_address.c **** #ifndef COAP_BCST_REFRESH_SECS
 154:C:/Users/stapi/OneDrive/Desktop/GD32VW553/V1_MQTT_OK/GD32VW55X_Wifi_BLE_SDK/GD32VW55x_RELEASE_V1.0.2/MSDK/lwip/libcoap-4.3.4/src\coap_address.c **** #define COAP_BCST_REFRESH_SECS 30
 155:C:/Users/stapi/OneDrive/Desktop/GD32VW553/V1_MQTT_OK/GD32VW55X_Wifi_BLE_SDK/GD32VW55x_RELEASE_V1.0.2/MSDK/lwip/libcoap-4.3.4/src\coap_address.c **** #endif /* COAP_BCST_REFRESH_SECS */
 156:C:/Users/stapi/OneDrive/Desktop/GD32VW553/V1_MQTT_OK/GD32VW55X_Wifi_BLE_SDK/GD32VW55x_RELEASE_V1.0.2/MSDK/lwip/libcoap-4.3.4/src\coap_address.c **** 
 157:C:/Users/stapi/OneDrive/Desktop/GD32VW553/V1_MQTT_OK/GD32VW55X_Wifi_BLE_SDK/GD32VW55x_RELEASE_V1.0.2/MSDK/lwip/libcoap-4.3.4/src\coap_address.c **** #if COAP_IPV4_SUPPORT && defined(HAVE_IFADDRS_H)
 158:C:/Users/stapi/OneDrive/Desktop/GD32VW553/V1_MQTT_OK/GD32VW55X_Wifi_BLE_SDK/GD32VW55x_RELEASE_V1.0.2/MSDK/lwip/libcoap-4.3.4/src\coap_address.c **** static int bcst_cnt = -1;
 159:C:/Users/stapi/OneDrive/Desktop/GD32VW553/V1_MQTT_OK/GD32VW55X_Wifi_BLE_SDK/GD32VW55x_RELEASE_V1.0.2/MSDK/lwip/libcoap-4.3.4/src\coap_address.c **** static coap_tick_t last_refresh;
 160:C:/Users/stapi/OneDrive/Desktop/GD32VW553/V1_MQTT_OK/GD32VW55X_Wifi_BLE_SDK/GD32VW55x_RELEASE_V1.0.2/MSDK/lwip/libcoap-4.3.4/src\coap_address.c **** static struct in_addr b_ipv4[COAP_BCST_CNT];
 161:C:/Users/stapi/OneDrive/Desktop/GD32VW553/V1_MQTT_OK/GD32VW55X_Wifi_BLE_SDK/GD32VW55x_RELEASE_V1.0.2/MSDK/lwip/libcoap-4.3.4/src\coap_address.c **** #endif /* COAP_IPV4_SUPPORT && HAVE_IFADDRS_H */
 162:C:/Users/stapi/OneDrive/Desktop/GD32VW553/V1_MQTT_OK/GD32VW55X_Wifi_BLE_SDK/GD32VW55x_RELEASE_V1.0.2/MSDK/lwip/libcoap-4.3.4/src\coap_address.c **** 
 163:C:/Users/stapi/OneDrive/Desktop/GD32VW553/V1_MQTT_OK/GD32VW55X_Wifi_BLE_SDK/GD32VW55x_RELEASE_V1.0.2/MSDK/lwip/libcoap-4.3.4/src\coap_address.c **** int
 164:C:/Users/stapi/OneDrive/Desktop/GD32VW553/V1_MQTT_OK/GD32VW55X_Wifi_BLE_SDK/GD32VW55x_RELEASE_V1.0.2/MSDK/lwip/libcoap-4.3.4/src\coap_address.c **** coap_is_bcast(const coap_address_t *a) {
 165:C:/Users/stapi/OneDrive/Desktop/GD32VW553/V1_MQTT_OK/GD32VW55X_Wifi_BLE_SDK/GD32VW55x_RELEASE_V1.0.2/MSDK/lwip/libcoap-4.3.4/src\coap_address.c **** #if COAP_IPV4_SUPPORT
 166:C:/Users/stapi/OneDrive/Desktop/GD32VW553/V1_MQTT_OK/GD32VW55X_Wifi_BLE_SDK/GD32VW55x_RELEASE_V1.0.2/MSDK/lwip/libcoap-4.3.4/src\coap_address.c ****   struct in_addr ipv4;
 167:C:/Users/stapi/OneDrive/Desktop/GD32VW553/V1_MQTT_OK/GD32VW55X_Wifi_BLE_SDK/GD32VW55x_RELEASE_V1.0.2/MSDK/lwip/libcoap-4.3.4/src\coap_address.c **** #if defined(HAVE_IFADDRS_H)
 168:C:/Users/stapi/OneDrive/Desktop/GD32VW553/V1_MQTT_OK/GD32VW55X_Wifi_BLE_SDK/GD32VW55x_RELEASE_V1.0.2/MSDK/lwip/libcoap-4.3.4/src\coap_address.c ****   int i;
 169:C:/Users/stapi/OneDrive/Desktop/GD32VW553/V1_MQTT_OK/GD32VW55X_Wifi_BLE_SDK/GD32VW55x_RELEASE_V1.0.2/MSDK/lwip/libcoap-4.3.4/src\coap_address.c ****   coap_tick_t now;
 170:C:/Users/stapi/OneDrive/Desktop/GD32VW553/V1_MQTT_OK/GD32VW55X_Wifi_BLE_SDK/GD32VW55x_RELEASE_V1.0.2/MSDK/lwip/libcoap-4.3.4/src\coap_address.c **** #endif /* HAVE_IFADDRS_H */
 171:C:/Users/stapi/OneDrive/Desktop/GD32VW553/V1_MQTT_OK/GD32VW55X_Wifi_BLE_SDK/GD32VW55x_RELEASE_V1.0.2/MSDK/lwip/libcoap-4.3.4/src\coap_address.c **** #endif /* COAP_IPV4_SUPPORT */
 172:C:/Users/stapi/OneDrive/Desktop/GD32VW553/V1_MQTT_OK/GD32VW55X_Wifi_BLE_SDK/GD32VW55x_RELEASE_V1.0.2/MSDK/lwip/libcoap-4.3.4/src\coap_address.c **** 
 173:C:/Users/stapi/OneDrive/Desktop/GD32VW553/V1_MQTT_OK/GD32VW55X_Wifi_BLE_SDK/GD32VW55x_RELEASE_V1.0.2/MSDK/lwip/libcoap-4.3.4/src\coap_address.c ****   if (!a)
 174:C:/Users/stapi/OneDrive/Desktop/GD32VW553/V1_MQTT_OK/GD32VW55X_Wifi_BLE_SDK/GD32VW55x_RELEASE_V1.0.2/MSDK/lwip/libcoap-4.3.4/src\coap_address.c ****     return 0;
 175:C:/Users/stapi/OneDrive/Desktop/GD32VW553/V1_MQTT_OK/GD32VW55X_Wifi_BLE_SDK/GD32VW55x_RELEASE_V1.0.2/MSDK/lwip/libcoap-4.3.4/src\coap_address.c **** 
 176:C:/Users/stapi/OneDrive/Desktop/GD32VW553/V1_MQTT_OK/GD32VW55X_Wifi_BLE_SDK/GD32VW55x_RELEASE_V1.0.2/MSDK/lwip/libcoap-4.3.4/src\coap_address.c ****   switch (a->addr.sa.sa_family) {
 177:C:/Users/stapi/OneDrive/Desktop/GD32VW553/V1_MQTT_OK/GD32VW55X_Wifi_BLE_SDK/GD32VW55x_RELEASE_V1.0.2/MSDK/lwip/libcoap-4.3.4/src\coap_address.c **** #if COAP_IPV4_SUPPORT
 178:C:/Users/stapi/OneDrive/Desktop/GD32VW553/V1_MQTT_OK/GD32VW55X_Wifi_BLE_SDK/GD32VW55x_RELEASE_V1.0.2/MSDK/lwip/libcoap-4.3.4/src\coap_address.c ****   case AF_INET:
 179:C:/Users/stapi/OneDrive/Desktop/GD32VW553/V1_MQTT_OK/GD32VW55X_Wifi_BLE_SDK/GD32VW55x_RELEASE_V1.0.2/MSDK/lwip/libcoap-4.3.4/src\coap_address.c ****     ipv4.s_addr = a->addr.sin.sin_addr.s_addr;
 180:C:/Users/stapi/OneDrive/Desktop/GD32VW553/V1_MQTT_OK/GD32VW55X_Wifi_BLE_SDK/GD32VW55x_RELEASE_V1.0.2/MSDK/lwip/libcoap-4.3.4/src\coap_address.c ****     break;
 181:C:/Users/stapi/OneDrive/Desktop/GD32VW553/V1_MQTT_OK/GD32VW55X_Wifi_BLE_SDK/GD32VW55x_RELEASE_V1.0.2/MSDK/lwip/libcoap-4.3.4/src\coap_address.c **** #endif /* COAP_IPV4_SUPPORT */
 182:C:/Users/stapi/OneDrive/Desktop/GD32VW553/V1_MQTT_OK/GD32VW55X_Wifi_BLE_SDK/GD32VW55x_RELEASE_V1.0.2/MSDK/lwip/libcoap-4.3.4/src\coap_address.c **** #if COAP_IPV6_SUPPORT
 183:C:/Users/stapi/OneDrive/Desktop/GD32VW553/V1_MQTT_OK/GD32VW55X_Wifi_BLE_SDK/GD32VW55x_RELEASE_V1.0.2/MSDK/lwip/libcoap-4.3.4/src\coap_address.c ****   case  AF_INET6:
 184:C:/Users/stapi/OneDrive/Desktop/GD32VW553/V1_MQTT_OK/GD32VW55X_Wifi_BLE_SDK/GD32VW55x_RELEASE_V1.0.2/MSDK/lwip/libcoap-4.3.4/src\coap_address.c **** #if COAP_IPV4_SUPPORT
 185:C:/Users/stapi/OneDrive/Desktop/GD32VW553/V1_MQTT_OK/GD32VW55X_Wifi_BLE_SDK/GD32VW55x_RELEASE_V1.0.2/MSDK/lwip/libcoap-4.3.4/src\coap_address.c ****     if (IN6_IS_ADDR_V4MAPPED(&a->addr.sin6.sin6_addr)) {
 186:C:/Users/stapi/OneDrive/Desktop/GD32VW553/V1_MQTT_OK/GD32VW55X_Wifi_BLE_SDK/GD32VW55x_RELEASE_V1.0.2/MSDK/lwip/libcoap-4.3.4/src\coap_address.c ****       memcpy(&ipv4, &a->addr.sin6.sin6_addr.s6_addr[12], sizeof(ipv4));
 187:C:/Users/stapi/OneDrive/Desktop/GD32VW553/V1_MQTT_OK/GD32VW55X_Wifi_BLE_SDK/GD32VW55x_RELEASE_V1.0.2/MSDK/lwip/libcoap-4.3.4/src\coap_address.c ****       break;
 188:C:/Users/stapi/OneDrive/Desktop/GD32VW553/V1_MQTT_OK/GD32VW55X_Wifi_BLE_SDK/GD32VW55x_RELEASE_V1.0.2/MSDK/lwip/libcoap-4.3.4/src\coap_address.c ****     }
 189:C:/Users/stapi/OneDrive/Desktop/GD32VW553/V1_MQTT_OK/GD32VW55X_Wifi_BLE_SDK/GD32VW55x_RELEASE_V1.0.2/MSDK/lwip/libcoap-4.3.4/src\coap_address.c **** #endif /* COAP_IPV4_SUPPORT */
 190:C:/Users/stapi/OneDrive/Desktop/GD32VW553/V1_MQTT_OK/GD32VW55X_Wifi_BLE_SDK/GD32VW55x_RELEASE_V1.0.2/MSDK/lwip/libcoap-4.3.4/src\coap_address.c ****     /* IPv6 does not support broadcast */
 191:C:/Users/stapi/OneDrive/Desktop/GD32VW553/V1_MQTT_OK/GD32VW55X_Wifi_BLE_SDK/GD32VW55x_RELEASE_V1.0.2/MSDK/lwip/libcoap-4.3.4/src\coap_address.c ****     return 0;
 192:C:/Users/stapi/OneDrive/Desktop/GD32VW553/V1_MQTT_OK/GD32VW55X_Wifi_BLE_SDK/GD32VW55x_RELEASE_V1.0.2/MSDK/lwip/libcoap-4.3.4/src\coap_address.c **** #endif /* COAP_IPV6_SUPPORT */
 193:C:/Users/stapi/OneDrive/Desktop/GD32VW553/V1_MQTT_OK/GD32VW55X_Wifi_BLE_SDK/GD32VW55x_RELEASE_V1.0.2/MSDK/lwip/libcoap-4.3.4/src\coap_address.c ****   default:
 194:C:/Users/stapi/OneDrive/Desktop/GD32VW553/V1_MQTT_OK/GD32VW55X_Wifi_BLE_SDK/GD32VW55x_RELEASE_V1.0.2/MSDK/lwip/libcoap-4.3.4/src\coap_address.c ****     return 0;
 195:C:/Users/stapi/OneDrive/Desktop/GD32VW553/V1_MQTT_OK/GD32VW55X_Wifi_BLE_SDK/GD32VW55x_RELEASE_V1.0.2/MSDK/lwip/libcoap-4.3.4/src\coap_address.c ****   }
 196:C:/Users/stapi/OneDrive/Desktop/GD32VW553/V1_MQTT_OK/GD32VW55X_Wifi_BLE_SDK/GD32VW55x_RELEASE_V1.0.2/MSDK/lwip/libcoap-4.3.4/src\coap_address.c **** #if COAP_IPV4_SUPPORT
 197:C:/Users/stapi/OneDrive/Desktop/GD32VW553/V1_MQTT_OK/GD32VW55X_Wifi_BLE_SDK/GD32VW55x_RELEASE_V1.0.2/MSDK/lwip/libcoap-4.3.4/src\coap_address.c **** #ifndef INADDR_BROADCAST
 198:C:/Users/stapi/OneDrive/Desktop/GD32VW553/V1_MQTT_OK/GD32VW55X_Wifi_BLE_SDK/GD32VW55x_RELEASE_V1.0.2/MSDK/lwip/libcoap-4.3.4/src\coap_address.c **** #define INADDR_BROADCAST ((uint32_t)0xffffffffUL)
 199:C:/Users/stapi/OneDrive/Desktop/GD32VW553/V1_MQTT_OK/GD32VW55X_Wifi_BLE_SDK/GD32VW55x_RELEASE_V1.0.2/MSDK/lwip/libcoap-4.3.4/src\coap_address.c **** #endif /* !INADDR_BROADCAST */
 200:C:/Users/stapi/OneDrive/Desktop/GD32VW553/V1_MQTT_OK/GD32VW55X_Wifi_BLE_SDK/GD32VW55x_RELEASE_V1.0.2/MSDK/lwip/libcoap-4.3.4/src\coap_address.c ****   if (ipv4.s_addr == INADDR_BROADCAST)
 201:C:/Users/stapi/OneDrive/Desktop/GD32VW553/V1_MQTT_OK/GD32VW55X_Wifi_BLE_SDK/GD32VW55x_RELEASE_V1.0.2/MSDK/lwip/libcoap-4.3.4/src\coap_address.c ****     return 1;
 202:C:/Users/stapi/OneDrive/Desktop/GD32VW553/V1_MQTT_OK/GD32VW55X_Wifi_BLE_SDK/GD32VW55x_RELEASE_V1.0.2/MSDK/lwip/libcoap-4.3.4/src\coap_address.c **** 
 203:C:/Users/stapi/OneDrive/Desktop/GD32VW553/V1_MQTT_OK/GD32VW55X_Wifi_BLE_SDK/GD32VW55x_RELEASE_V1.0.2/MSDK/lwip/libcoap-4.3.4/src\coap_address.c **** #if defined(HAVE_IFADDRS_H)
 204:C:/Users/stapi/OneDrive/Desktop/GD32VW553/V1_MQTT_OK/GD32VW55X_Wifi_BLE_SDK/GD32VW55x_RELEASE_V1.0.2/MSDK/lwip/libcoap-4.3.4/src\coap_address.c ****   coap_ticks(&now);
 205:C:/Users/stapi/OneDrive/Desktop/GD32VW553/V1_MQTT_OK/GD32VW55X_Wifi_BLE_SDK/GD32VW55x_RELEASE_V1.0.2/MSDK/lwip/libcoap-4.3.4/src\coap_address.c ****   if (bcst_cnt == -1 ||
 206:C:/Users/stapi/OneDrive/Desktop/GD32VW553/V1_MQTT_OK/GD32VW55X_Wifi_BLE_SDK/GD32VW55x_RELEASE_V1.0.2/MSDK/lwip/libcoap-4.3.4/src\coap_address.c ****       (now - last_refresh) > (COAP_BCST_REFRESH_SECS * COAP_TICKS_PER_SECOND)) {
 207:C:/Users/stapi/OneDrive/Desktop/GD32VW553/V1_MQTT_OK/GD32VW55X_Wifi_BLE_SDK/GD32VW55x_RELEASE_V1.0.2/MSDK/lwip/libcoap-4.3.4/src\coap_address.c ****     /* Determine the list of broadcast interfaces */
 208:C:/Users/stapi/OneDrive/Desktop/GD32VW553/V1_MQTT_OK/GD32VW55X_Wifi_BLE_SDK/GD32VW55x_RELEASE_V1.0.2/MSDK/lwip/libcoap-4.3.4/src\coap_address.c ****     struct ifaddrs *ifa = NULL;
 209:C:/Users/stapi/OneDrive/Desktop/GD32VW553/V1_MQTT_OK/GD32VW55X_Wifi_BLE_SDK/GD32VW55x_RELEASE_V1.0.2/MSDK/lwip/libcoap-4.3.4/src\coap_address.c ****     struct ifaddrs *ife;
 210:C:/Users/stapi/OneDrive/Desktop/GD32VW553/V1_MQTT_OK/GD32VW55X_Wifi_BLE_SDK/GD32VW55x_RELEASE_V1.0.2/MSDK/lwip/libcoap-4.3.4/src\coap_address.c **** 
 211:C:/Users/stapi/OneDrive/Desktop/GD32VW553/V1_MQTT_OK/GD32VW55X_Wifi_BLE_SDK/GD32VW55x_RELEASE_V1.0.2/MSDK/lwip/libcoap-4.3.4/src\coap_address.c ****     if (getifaddrs(&ifa) != 0) {
 212:C:/Users/stapi/OneDrive/Desktop/GD32VW553/V1_MQTT_OK/GD32VW55X_Wifi_BLE_SDK/GD32VW55x_RELEASE_V1.0.2/MSDK/lwip/libcoap-4.3.4/src\coap_address.c ****       coap_log_warn("coap_is_bcst: Cannot determine any broadcast addresses\n");
 213:C:/Users/stapi/OneDrive/Desktop/GD32VW553/V1_MQTT_OK/GD32VW55X_Wifi_BLE_SDK/GD32VW55x_RELEASE_V1.0.2/MSDK/lwip/libcoap-4.3.4/src\coap_address.c ****       return 0;
 214:C:/Users/stapi/OneDrive/Desktop/GD32VW553/V1_MQTT_OK/GD32VW55X_Wifi_BLE_SDK/GD32VW55x_RELEASE_V1.0.2/MSDK/lwip/libcoap-4.3.4/src\coap_address.c ****     }
 215:C:/Users/stapi/OneDrive/Desktop/GD32VW553/V1_MQTT_OK/GD32VW55X_Wifi_BLE_SDK/GD32VW55x_RELEASE_V1.0.2/MSDK/lwip/libcoap-4.3.4/src\coap_address.c ****     bcst_cnt = 0;
 216:C:/Users/stapi/OneDrive/Desktop/GD32VW553/V1_MQTT_OK/GD32VW55X_Wifi_BLE_SDK/GD32VW55x_RELEASE_V1.0.2/MSDK/lwip/libcoap-4.3.4/src\coap_address.c ****     last_refresh = now;
 217:C:/Users/stapi/OneDrive/Desktop/GD32VW553/V1_MQTT_OK/GD32VW55X_Wifi_BLE_SDK/GD32VW55x_RELEASE_V1.0.2/MSDK/lwip/libcoap-4.3.4/src\coap_address.c ****     ife = ifa;
 218:C:/Users/stapi/OneDrive/Desktop/GD32VW553/V1_MQTT_OK/GD32VW55X_Wifi_BLE_SDK/GD32VW55x_RELEASE_V1.0.2/MSDK/lwip/libcoap-4.3.4/src\coap_address.c ****     while (ife && bcst_cnt < COAP_BCST_CNT) {
 219:C:/Users/stapi/OneDrive/Desktop/GD32VW553/V1_MQTT_OK/GD32VW55X_Wifi_BLE_SDK/GD32VW55x_RELEASE_V1.0.2/MSDK/lwip/libcoap-4.3.4/src\coap_address.c ****       if (ife->ifa_addr && ife->ifa_addr->sa_family == AF_INET &&
 220:C:/Users/stapi/OneDrive/Desktop/GD32VW553/V1_MQTT_OK/GD32VW55X_Wifi_BLE_SDK/GD32VW55x_RELEASE_V1.0.2/MSDK/lwip/libcoap-4.3.4/src\coap_address.c ****           ife->ifa_flags & IFF_BROADCAST) {
 221:C:/Users/stapi/OneDrive/Desktop/GD32VW553/V1_MQTT_OK/GD32VW55X_Wifi_BLE_SDK/GD32VW55x_RELEASE_V1.0.2/MSDK/lwip/libcoap-4.3.4/src\coap_address.c ****         b_ipv4[bcst_cnt].s_addr = ((struct sockaddr_in *)ife->ifa_broadaddr)->sin_addr.s_addr;
 222:C:/Users/stapi/OneDrive/Desktop/GD32VW553/V1_MQTT_OK/GD32VW55X_Wifi_BLE_SDK/GD32VW55x_RELEASE_V1.0.2/MSDK/lwip/libcoap-4.3.4/src\coap_address.c ****         bcst_cnt++;
 223:C:/Users/stapi/OneDrive/Desktop/GD32VW553/V1_MQTT_OK/GD32VW55X_Wifi_BLE_SDK/GD32VW55x_RELEASE_V1.0.2/MSDK/lwip/libcoap-4.3.4/src\coap_address.c ****       }
 224:C:/Users/stapi/OneDrive/Desktop/GD32VW553/V1_MQTT_OK/GD32VW55X_Wifi_BLE_SDK/GD32VW55x_RELEASE_V1.0.2/MSDK/lwip/libcoap-4.3.4/src\coap_address.c ****       ife = ife->ifa_next;
 225:C:/Users/stapi/OneDrive/Desktop/GD32VW553/V1_MQTT_OK/GD32VW55X_Wifi_BLE_SDK/GD32VW55x_RELEASE_V1.0.2/MSDK/lwip/libcoap-4.3.4/src\coap_address.c ****     }
 226:C:/Users/stapi/OneDrive/Desktop/GD32VW553/V1_MQTT_OK/GD32VW55X_Wifi_BLE_SDK/GD32VW55x_RELEASE_V1.0.2/MSDK/lwip/libcoap-4.3.4/src\coap_address.c ****     if (ife) {
 227:C:/Users/stapi/OneDrive/Desktop/GD32VW553/V1_MQTT_OK/GD32VW55X_Wifi_BLE_SDK/GD32VW55x_RELEASE_V1.0.2/MSDK/lwip/libcoap-4.3.4/src\coap_address.c ****       coap_log_warn("coap_is_bcst: Insufficient space for broadcast addresses\n");
 228:C:/Users/stapi/OneDrive/Desktop/GD32VW553/V1_MQTT_OK/GD32VW55X_Wifi_BLE_SDK/GD32VW55x_RELEASE_V1.0.2/MSDK/lwip/libcoap-4.3.4/src\coap_address.c ****     }
 229:C:/Users/stapi/OneDrive/Desktop/GD32VW553/V1_MQTT_OK/GD32VW55X_Wifi_BLE_SDK/GD32VW55x_RELEASE_V1.0.2/MSDK/lwip/libcoap-4.3.4/src\coap_address.c ****     freeifaddrs(ifa);
 230:C:/Users/stapi/OneDrive/Desktop/GD32VW553/V1_MQTT_OK/GD32VW55X_Wifi_BLE_SDK/GD32VW55x_RELEASE_V1.0.2/MSDK/lwip/libcoap-4.3.4/src\coap_address.c ****   }
 231:C:/Users/stapi/OneDrive/Desktop/GD32VW553/V1_MQTT_OK/GD32VW55X_Wifi_BLE_SDK/GD32VW55x_RELEASE_V1.0.2/MSDK/lwip/libcoap-4.3.4/src\coap_address.c ****   for (i = 0; i < bcst_cnt; i++) {
 232:C:/Users/stapi/OneDrive/Desktop/GD32VW553/V1_MQTT_OK/GD32VW55X_Wifi_BLE_SDK/GD32VW55x_RELEASE_V1.0.2/MSDK/lwip/libcoap-4.3.4/src\coap_address.c ****     if (ipv4.s_addr == b_ipv4[i].s_addr)
 233:C:/Users/stapi/OneDrive/Desktop/GD32VW553/V1_MQTT_OK/GD32VW55X_Wifi_BLE_SDK/GD32VW55x_RELEASE_V1.0.2/MSDK/lwip/libcoap-4.3.4/src\coap_address.c ****       return 1;
 234:C:/Users/stapi/OneDrive/Desktop/GD32VW553/V1_MQTT_OK/GD32VW55X_Wifi_BLE_SDK/GD32VW55x_RELEASE_V1.0.2/MSDK/lwip/libcoap-4.3.4/src\coap_address.c ****   }
 235:C:/Users/stapi/OneDrive/Desktop/GD32VW553/V1_MQTT_OK/GD32VW55X_Wifi_BLE_SDK/GD32VW55x_RELEASE_V1.0.2/MSDK/lwip/libcoap-4.3.4/src\coap_address.c **** #endif /* HAVE_IFADDRS_H */
 236:C:/Users/stapi/OneDrive/Desktop/GD32VW553/V1_MQTT_OK/GD32VW55X_Wifi_BLE_SDK/GD32VW55x_RELEASE_V1.0.2/MSDK/lwip/libcoap-4.3.4/src\coap_address.c ****   return 0;
 237:C:/Users/stapi/OneDrive/Desktop/GD32VW553/V1_MQTT_OK/GD32VW55X_Wifi_BLE_SDK/GD32VW55x_RELEASE_V1.0.2/MSDK/lwip/libcoap-4.3.4/src\coap_address.c **** #endif /* COAP_IPV4_SUPPORT */
 238:C:/Users/stapi/OneDrive/Desktop/GD32VW553/V1_MQTT_OK/GD32VW55X_Wifi_BLE_SDK/GD32VW55x_RELEASE_V1.0.2/MSDK/lwip/libcoap-4.3.4/src\coap_address.c **** }
 239:C:/Users/stapi/OneDrive/Desktop/GD32VW553/V1_MQTT_OK/GD32VW55X_Wifi_BLE_SDK/GD32VW55x_RELEASE_V1.0.2/MSDK/lwip/libcoap-4.3.4/src\coap_address.c **** 
 240:C:/Users/stapi/OneDrive/Desktop/GD32VW553/V1_MQTT_OK/GD32VW55X_Wifi_BLE_SDK/GD32VW55x_RELEASE_V1.0.2/MSDK/lwip/libcoap-4.3.4/src\coap_address.c **** #endif /* !defined(WITH_CONTIKI) && !defined(WITH_LWIP) */
 241:C:/Users/stapi/OneDrive/Desktop/GD32VW553/V1_MQTT_OK/GD32VW55X_Wifi_BLE_SDK/GD32VW55x_RELEASE_V1.0.2/MSDK/lwip/libcoap-4.3.4/src\coap_address.c **** 
 242:C:/Users/stapi/OneDrive/Desktop/GD32VW553/V1_MQTT_OK/GD32VW55X_Wifi_BLE_SDK/GD32VW55x_RELEASE_V1.0.2/MSDK/lwip/libcoap-4.3.4/src\coap_address.c **** void
 243:C:/Users/stapi/OneDrive/Desktop/GD32VW553/V1_MQTT_OK/GD32VW55X_Wifi_BLE_SDK/GD32VW55x_RELEASE_V1.0.2/MSDK/lwip/libcoap-4.3.4/src\coap_address.c **** coap_address_init(coap_address_t *addr) {
  23              		.loc 1 243 41
  24              		.cfi_startproc
  25              	.LVL0:
  26 0000 17030000 		call	t0,__riscv_save_0
  26      E7020300 
  27              		.cfi_offset 1, -4
  28              		.cfi_def_cfa_offset 16
 244:C:/Users/stapi/OneDrive/Desktop/GD32VW553/V1_MQTT_OK/GD32VW55X_Wifi_BLE_SDK/GD32VW55x_RELEASE_V1.0.2/MSDK/lwip/libcoap-4.3.4/src\coap_address.c ****   assert(addr);
  29              		.loc 1 244 3
  30 0008 1DE1     		bne	a0,zero,.L2
  31              	.LVL1:
  32              	.LBB39:
  33              	.LBB40:
  34 000a B7060000 		lui	a3,%hi(.LC0)
  35 000e 37060000 		lui	a2,%hi(.LANCHOR0)
  36 0012 37050000 		lui	a0,%hi(.LC1)
  37              	.LVL2:
  38 0016 93860600 		addi	a3,a3,%lo(.LC0)
  39 001a 13060600 		addi	a2,a2,%lo(.LANCHOR0)
  40 001e 9305400F 		li	a1,244
  41 0022 13050500 		addi	a0,a0,%lo(.LC1)
  42 0026 97000000 		call	__assert_func
  42      E7800000 
  43              	.LVL3:
  44              	.L2:
  45              	.LBE40:
  46              	.LBE39:
 245:C:/Users/stapi/OneDrive/Desktop/GD32VW553/V1_MQTT_OK/GD32VW55X_Wifi_BLE_SDK/GD32VW55x_RELEASE_V1.0.2/MSDK/lwip/libcoap-4.3.4/src\coap_address.c ****   memset(addr, 0, sizeof(coap_address_t));
  47              		.loc 1 245 3
  48 002e 2146     		li	a2,8
  49 0030 8145     		li	a1,0
  50 0032 97000000 		call	memset
  50      E7800000 
  51              	.LVL4:
 246:C:/Users/stapi/OneDrive/Desktop/GD32VW553/V1_MQTT_OK/GD32VW55X_Wifi_BLE_SDK/GD32VW55x_RELEASE_V1.0.2/MSDK/lwip/libcoap-4.3.4/src\coap_address.c **** #if !defined(WITH_LWIP) && !defined(WITH_CONTIKI)
 247:C:/Users/stapi/OneDrive/Desktop/GD32VW553/V1_MQTT_OK/GD32VW55X_Wifi_BLE_SDK/GD32VW55x_RELEASE_V1.0.2/MSDK/lwip/libcoap-4.3.4/src\coap_address.c ****   /* lwip and Contiki have constant address sizes and don't need the .size part */
 248:C:/Users/stapi/OneDrive/Desktop/GD32VW553/V1_MQTT_OK/GD32VW55X_Wifi_BLE_SDK/GD32VW55x_RELEASE_V1.0.2/MSDK/lwip/libcoap-4.3.4/src\coap_address.c ****   addr->size = sizeof(addr->addr);
 249:C:/Users/stapi/OneDrive/Desktop/GD32VW553/V1_MQTT_OK/GD32VW55X_Wifi_BLE_SDK/GD32VW55x_RELEASE_V1.0.2/MSDK/lwip/libcoap-4.3.4/src\coap_address.c **** #endif
 250:C:/Users/stapi/OneDrive/Desktop/GD32VW553/V1_MQTT_OK/GD32VW55X_Wifi_BLE_SDK/GD32VW55x_RELEASE_V1.0.2/MSDK/lwip/libcoap-4.3.4/src\coap_address.c **** }
  52              		.loc 1 250 1 is_stmt 0
  53 003a 17030000 		tail	__riscv_restore_0
  53      67000300 
  54              		.cfi_restore 1
  55              		.cfi_def_cfa_offset 0
  56              		.cfi_endproc
  57              	.LFE31:
  59              		.section	.text.coap_address_set_unix_domain,"ax",@progbits
  60              		.align	1
  61              		.globl	coap_address_set_unix_domain
  63              	coap_address_set_unix_domain:
  64              	.LFB32:
 251:C:/Users/stapi/OneDrive/Desktop/GD32VW553/V1_MQTT_OK/GD32VW55X_Wifi_BLE_SDK/GD32VW55x_RELEASE_V1.0.2/MSDK/lwip/libcoap-4.3.4/src\coap_address.c **** 
 252:C:/Users/stapi/OneDrive/Desktop/GD32VW553/V1_MQTT_OK/GD32VW55X_Wifi_BLE_SDK/GD32VW55x_RELEASE_V1.0.2/MSDK/lwip/libcoap-4.3.4/src\coap_address.c **** int
 253:C:/Users/stapi/OneDrive/Desktop/GD32VW553/V1_MQTT_OK/GD32VW55X_Wifi_BLE_SDK/GD32VW55x_RELEASE_V1.0.2/MSDK/lwip/libcoap-4.3.4/src\coap_address.c **** coap_address_set_unix_domain(coap_address_t *addr,
 254:C:/Users/stapi/OneDrive/Desktop/GD32VW553/V1_MQTT_OK/GD32VW55X_Wifi_BLE_SDK/GD32VW55x_RELEASE_V1.0.2/MSDK/lwip/libcoap-4.3.4/src\coap_address.c ****                              const uint8_t *host, size_t host_len) {
  65              		.loc 1 254 68 is_stmt 1
  66              		.cfi_startproc
  67              	.LVL5:
 255:C:/Users/stapi/OneDrive/Desktop/GD32VW553/V1_MQTT_OK/GD32VW55X_Wifi_BLE_SDK/GD32VW55x_RELEASE_V1.0.2/MSDK/lwip/libcoap-4.3.4/src\coap_address.c **** #if COAP_AF_UNIX_SUPPORT
 256:C:/Users/stapi/OneDrive/Desktop/GD32VW553/V1_MQTT_OK/GD32VW55X_Wifi_BLE_SDK/GD32VW55x_RELEASE_V1.0.2/MSDK/lwip/libcoap-4.3.4/src\coap_address.c ****   size_t i;
 257:C:/Users/stapi/OneDrive/Desktop/GD32VW553/V1_MQTT_OK/GD32VW55X_Wifi_BLE_SDK/GD32VW55x_RELEASE_V1.0.2/MSDK/lwip/libcoap-4.3.4/src\coap_address.c ****   size_t ofs = 0;
 258:C:/Users/stapi/OneDrive/Desktop/GD32VW553/V1_MQTT_OK/GD32VW55X_Wifi_BLE_SDK/GD32VW55x_RELEASE_V1.0.2/MSDK/lwip/libcoap-4.3.4/src\coap_address.c **** 
 259:C:/Users/stapi/OneDrive/Desktop/GD32VW553/V1_MQTT_OK/GD32VW55X_Wifi_BLE_SDK/GD32VW55x_RELEASE_V1.0.2/MSDK/lwip/libcoap-4.3.4/src\coap_address.c ****   coap_address_init(addr);
 260:C:/Users/stapi/OneDrive/Desktop/GD32VW553/V1_MQTT_OK/GD32VW55X_Wifi_BLE_SDK/GD32VW55x_RELEASE_V1.0.2/MSDK/lwip/libcoap-4.3.4/src\coap_address.c ****   addr->addr.cun.sun_family = AF_UNIX;
 261:C:/Users/stapi/OneDrive/Desktop/GD32VW553/V1_MQTT_OK/GD32VW55X_Wifi_BLE_SDK/GD32VW55x_RELEASE_V1.0.2/MSDK/lwip/libcoap-4.3.4/src\coap_address.c ****   for (i = 0; i < host_len; i++) {
 262:C:/Users/stapi/OneDrive/Desktop/GD32VW553/V1_MQTT_OK/GD32VW55X_Wifi_BLE_SDK/GD32VW55x_RELEASE_V1.0.2/MSDK/lwip/libcoap-4.3.4/src\coap_address.c ****     if ((host_len - i) >= 3 && host[i] == '%' && host[i+1] == '2' &&
 263:C:/Users/stapi/OneDrive/Desktop/GD32VW553/V1_MQTT_OK/GD32VW55X_Wifi_BLE_SDK/GD32VW55x_RELEASE_V1.0.2/MSDK/lwip/libcoap-4.3.4/src\coap_address.c ****         (host[i+2] == 'F' || host[i+2] == 'f')) {
 264:C:/Users/stapi/OneDrive/Desktop/GD32VW553/V1_MQTT_OK/GD32VW55X_Wifi_BLE_SDK/GD32VW55x_RELEASE_V1.0.2/MSDK/lwip/libcoap-4.3.4/src\coap_address.c ****       addr->addr.cun.sun_path[ofs++] = '/';
 265:C:/Users/stapi/OneDrive/Desktop/GD32VW553/V1_MQTT_OK/GD32VW55X_Wifi_BLE_SDK/GD32VW55x_RELEASE_V1.0.2/MSDK/lwip/libcoap-4.3.4/src\coap_address.c ****       i += 2;
 266:C:/Users/stapi/OneDrive/Desktop/GD32VW553/V1_MQTT_OK/GD32VW55X_Wifi_BLE_SDK/GD32VW55x_RELEASE_V1.0.2/MSDK/lwip/libcoap-4.3.4/src\coap_address.c ****     } else {
 267:C:/Users/stapi/OneDrive/Desktop/GD32VW553/V1_MQTT_OK/GD32VW55X_Wifi_BLE_SDK/GD32VW55x_RELEASE_V1.0.2/MSDK/lwip/libcoap-4.3.4/src\coap_address.c ****       addr->addr.cun.sun_path[ofs++] = host[i];
 268:C:/Users/stapi/OneDrive/Desktop/GD32VW553/V1_MQTT_OK/GD32VW55X_Wifi_BLE_SDK/GD32VW55x_RELEASE_V1.0.2/MSDK/lwip/libcoap-4.3.4/src\coap_address.c ****     }
 269:C:/Users/stapi/OneDrive/Desktop/GD32VW553/V1_MQTT_OK/GD32VW55X_Wifi_BLE_SDK/GD32VW55x_RELEASE_V1.0.2/MSDK/lwip/libcoap-4.3.4/src\coap_address.c ****     if (ofs == COAP_UNIX_PATH_MAX)
 270:C:/Users/stapi/OneDrive/Desktop/GD32VW553/V1_MQTT_OK/GD32VW55X_Wifi_BLE_SDK/GD32VW55x_RELEASE_V1.0.2/MSDK/lwip/libcoap-4.3.4/src\coap_address.c ****       break;
 271:C:/Users/stapi/OneDrive/Desktop/GD32VW553/V1_MQTT_OK/GD32VW55X_Wifi_BLE_SDK/GD32VW55x_RELEASE_V1.0.2/MSDK/lwip/libcoap-4.3.4/src\coap_address.c ****   }
 272:C:/Users/stapi/OneDrive/Desktop/GD32VW553/V1_MQTT_OK/GD32VW55X_Wifi_BLE_SDK/GD32VW55x_RELEASE_V1.0.2/MSDK/lwip/libcoap-4.3.4/src\coap_address.c ****   if (ofs < COAP_UNIX_PATH_MAX)
 273:C:/Users/stapi/OneDrive/Desktop/GD32VW553/V1_MQTT_OK/GD32VW55X_Wifi_BLE_SDK/GD32VW55x_RELEASE_V1.0.2/MSDK/lwip/libcoap-4.3.4/src\coap_address.c ****     addr->addr.cun.sun_path[ofs] = '\000';
 274:C:/Users/stapi/OneDrive/Desktop/GD32VW553/V1_MQTT_OK/GD32VW55X_Wifi_BLE_SDK/GD32VW55x_RELEASE_V1.0.2/MSDK/lwip/libcoap-4.3.4/src\coap_address.c ****   else
 275:C:/Users/stapi/OneDrive/Desktop/GD32VW553/V1_MQTT_OK/GD32VW55X_Wifi_BLE_SDK/GD32VW55x_RELEASE_V1.0.2/MSDK/lwip/libcoap-4.3.4/src\coap_address.c ****     addr->addr.cun.sun_path[ofs-1] = '\000';
 276:C:/Users/stapi/OneDrive/Desktop/GD32VW553/V1_MQTT_OK/GD32VW55X_Wifi_BLE_SDK/GD32VW55x_RELEASE_V1.0.2/MSDK/lwip/libcoap-4.3.4/src\coap_address.c ****   return 1;
 277:C:/Users/stapi/OneDrive/Desktop/GD32VW553/V1_MQTT_OK/GD32VW55X_Wifi_BLE_SDK/GD32VW55x_RELEASE_V1.0.2/MSDK/lwip/libcoap-4.3.4/src\coap_address.c **** #else /* ! COAP_AF_UNIX_SUPPORT */
 278:C:/Users/stapi/OneDrive/Desktop/GD32VW553/V1_MQTT_OK/GD32VW55X_Wifi_BLE_SDK/GD32VW55x_RELEASE_V1.0.2/MSDK/lwip/libcoap-4.3.4/src\coap_address.c ****   (void)addr;
  68              		.loc 1 278 3
 279:C:/Users/stapi/OneDrive/Desktop/GD32VW553/V1_MQTT_OK/GD32VW55X_Wifi_BLE_SDK/GD32VW55x_RELEASE_V1.0.2/MSDK/lwip/libcoap-4.3.4/src\coap_address.c ****   (void)host;
  69              		.loc 1 279 3
 280:C:/Users/stapi/OneDrive/Desktop/GD32VW553/V1_MQTT_OK/GD32VW55X_Wifi_BLE_SDK/GD32VW55x_RELEASE_V1.0.2/MSDK/lwip/libcoap-4.3.4/src\coap_address.c ****   (void)host_len;
  70              		.loc 1 280 3
 281:C:/Users/stapi/OneDrive/Desktop/GD32VW553/V1_MQTT_OK/GD32VW55X_Wifi_BLE_SDK/GD32VW55x_RELEASE_V1.0.2/MSDK/lwip/libcoap-4.3.4/src\coap_address.c ****   return 0;
  71              		.loc 1 281 3
 282:C:/Users/stapi/OneDrive/Desktop/GD32VW553/V1_MQTT_OK/GD32VW55X_Wifi_BLE_SDK/GD32VW55x_RELEASE_V1.0.2/MSDK/lwip/libcoap-4.3.4/src\coap_address.c **** #endif /* ! COAP_AF_UNIX_SUPPORT */
 283:C:/Users/stapi/OneDrive/Desktop/GD32VW553/V1_MQTT_OK/GD32VW55X_Wifi_BLE_SDK/GD32VW55x_RELEASE_V1.0.2/MSDK/lwip/libcoap-4.3.4/src\coap_address.c **** }
  72              		.loc 1 283 1 is_stmt 0
  73 0000 0145     		li	a0,0
  74              	.LVL6:
  75 0002 8280     		ret
  76              		.cfi_endproc
  77              	.LFE32:
  79              		.section	.text.coap_get_available_scheme_hint_bits,"ax",@progbits
  80              		.align	1
  81              		.globl	coap_get_available_scheme_hint_bits
  83              	coap_get_available_scheme_hint_bits:
  84              	.LFB34:
 284:C:/Users/stapi/OneDrive/Desktop/GD32VW553/V1_MQTT_OK/GD32VW55X_Wifi_BLE_SDK/GD32VW55x_RELEASE_V1.0.2/MSDK/lwip/libcoap-4.3.4/src\coap_address.c **** 
 285:C:/Users/stapi/OneDrive/Desktop/GD32VW553/V1_MQTT_OK/GD32VW55X_Wifi_BLE_SDK/GD32VW55x_RELEASE_V1.0.2/MSDK/lwip/libcoap-4.3.4/src\coap_address.c **** #if !defined(WITH_CONTIKI)
 286:C:/Users/stapi/OneDrive/Desktop/GD32VW553/V1_MQTT_OK/GD32VW55X_Wifi_BLE_SDK/GD32VW55x_RELEASE_V1.0.2/MSDK/lwip/libcoap-4.3.4/src\coap_address.c **** static void
 287:C:/Users/stapi/OneDrive/Desktop/GD32VW553/V1_MQTT_OK/GD32VW55X_Wifi_BLE_SDK/GD32VW55x_RELEASE_V1.0.2/MSDK/lwip/libcoap-4.3.4/src\coap_address.c **** update_port(coap_address_t *addr, uint16_t port, uint16_t default_port,
 288:C:/Users/stapi/OneDrive/Desktop/GD32VW553/V1_MQTT_OK/GD32VW55X_Wifi_BLE_SDK/GD32VW55x_RELEASE_V1.0.2/MSDK/lwip/libcoap-4.3.4/src\coap_address.c ****             int update_port0) {
 289:C:/Users/stapi/OneDrive/Desktop/GD32VW553/V1_MQTT_OK/GD32VW55X_Wifi_BLE_SDK/GD32VW55x_RELEASE_V1.0.2/MSDK/lwip/libcoap-4.3.4/src\coap_address.c ****   /* Client target port must be set if default of 0 */
 290:C:/Users/stapi/OneDrive/Desktop/GD32VW553/V1_MQTT_OK/GD32VW55X_Wifi_BLE_SDK/GD32VW55x_RELEASE_V1.0.2/MSDK/lwip/libcoap-4.3.4/src\coap_address.c ****   if (port == 0 && update_port0)
 291:C:/Users/stapi/OneDrive/Desktop/GD32VW553/V1_MQTT_OK/GD32VW55X_Wifi_BLE_SDK/GD32VW55x_RELEASE_V1.0.2/MSDK/lwip/libcoap-4.3.4/src\coap_address.c ****     port = default_port;
 292:C:/Users/stapi/OneDrive/Desktop/GD32VW553/V1_MQTT_OK/GD32VW55X_Wifi_BLE_SDK/GD32VW55x_RELEASE_V1.0.2/MSDK/lwip/libcoap-4.3.4/src\coap_address.c **** 
 293:C:/Users/stapi/OneDrive/Desktop/GD32VW553/V1_MQTT_OK/GD32VW55X_Wifi_BLE_SDK/GD32VW55x_RELEASE_V1.0.2/MSDK/lwip/libcoap-4.3.4/src\coap_address.c ****   coap_address_set_port(addr, port);
 294:C:/Users/stapi/OneDrive/Desktop/GD32VW553/V1_MQTT_OK/GD32VW55X_Wifi_BLE_SDK/GD32VW55x_RELEASE_V1.0.2/MSDK/lwip/libcoap-4.3.4/src\coap_address.c ****   return;
 295:C:/Users/stapi/OneDrive/Desktop/GD32VW553/V1_MQTT_OK/GD32VW55X_Wifi_BLE_SDK/GD32VW55x_RELEASE_V1.0.2/MSDK/lwip/libcoap-4.3.4/src\coap_address.c **** }
 296:C:/Users/stapi/OneDrive/Desktop/GD32VW553/V1_MQTT_OK/GD32VW55X_Wifi_BLE_SDK/GD32VW55x_RELEASE_V1.0.2/MSDK/lwip/libcoap-4.3.4/src\coap_address.c **** 
 297:C:/Users/stapi/OneDrive/Desktop/GD32VW553/V1_MQTT_OK/GD32VW55X_Wifi_BLE_SDK/GD32VW55x_RELEASE_V1.0.2/MSDK/lwip/libcoap-4.3.4/src\coap_address.c **** #ifdef HAVE_NETDB_H
 298:C:/Users/stapi/OneDrive/Desktop/GD32VW553/V1_MQTT_OK/GD32VW55X_Wifi_BLE_SDK/GD32VW55x_RELEASE_V1.0.2/MSDK/lwip/libcoap-4.3.4/src\coap_address.c **** #include <netdb.h>
 299:C:/Users/stapi/OneDrive/Desktop/GD32VW553/V1_MQTT_OK/GD32VW55X_Wifi_BLE_SDK/GD32VW55x_RELEASE_V1.0.2/MSDK/lwip/libcoap-4.3.4/src\coap_address.c **** #endif
 300:C:/Users/stapi/OneDrive/Desktop/GD32VW553/V1_MQTT_OK/GD32VW55X_Wifi_BLE_SDK/GD32VW55x_RELEASE_V1.0.2/MSDK/lwip/libcoap-4.3.4/src\coap_address.c **** 
 301:C:/Users/stapi/OneDrive/Desktop/GD32VW553/V1_MQTT_OK/GD32VW55X_Wifi_BLE_SDK/GD32VW55x_RELEASE_V1.0.2/MSDK/lwip/libcoap-4.3.4/src\coap_address.c **** uint32_t
 302:C:/Users/stapi/OneDrive/Desktop/GD32VW553/V1_MQTT_OK/GD32VW55X_Wifi_BLE_SDK/GD32VW55x_RELEASE_V1.0.2/MSDK/lwip/libcoap-4.3.4/src\coap_address.c **** coap_get_available_scheme_hint_bits(int have_pki_psk, int ws_check,
 303:C:/Users/stapi/OneDrive/Desktop/GD32VW553/V1_MQTT_OK/GD32VW55X_Wifi_BLE_SDK/GD32VW55x_RELEASE_V1.0.2/MSDK/lwip/libcoap-4.3.4/src\coap_address.c ****                                     coap_proto_t use_unix_proto) {
  85              		.loc 1 303 66 is_stmt 1
  86              		.cfi_startproc
  87              	.LVL7:
  88 0000 17030000 		call	t0,__riscv_save_8
  88      E7020300 
  89              		.cfi_offset 23, -36
  90              		.cfi_offset 22, -32
  91              		.cfi_offset 21, -28
  92              		.cfi_offset 20, -24
  93              		.cfi_offset 19, -20
  94              		.cfi_offset 18, -16
  95              		.cfi_offset 9, -12
  96              		.cfi_offset 8, -8
  97              		.cfi_offset 1, -4
  98              		.cfi_def_cfa_offset 48
 304:C:/Users/stapi/OneDrive/Desktop/GD32VW553/V1_MQTT_OK/GD32VW55X_Wifi_BLE_SDK/GD32VW55x_RELEASE_V1.0.2/MSDK/lwip/libcoap-4.3.4/src\coap_address.c ****   uint32_t scheme_hint_bits = 0;
  99              		.loc 1 304 3
 100              	.LVL8:
 305:C:/Users/stapi/OneDrive/Desktop/GD32VW553/V1_MQTT_OK/GD32VW55X_Wifi_BLE_SDK/GD32VW55x_RELEASE_V1.0.2/MSDK/lwip/libcoap-4.3.4/src\coap_address.c ****   coap_uri_scheme_t scheme;
 101              		.loc 1 305 3
 306:C:/Users/stapi/OneDrive/Desktop/GD32VW553/V1_MQTT_OK/GD32VW55X_Wifi_BLE_SDK/GD32VW55x_RELEASE_V1.0.2/MSDK/lwip/libcoap-4.3.4/src\coap_address.c **** 
 307:C:/Users/stapi/OneDrive/Desktop/GD32VW553/V1_MQTT_OK/GD32VW55X_Wifi_BLE_SDK/GD32VW55x_RELEASE_V1.0.2/MSDK/lwip/libcoap-4.3.4/src\coap_address.c ****   for (scheme = 0; scheme < COAP_URI_SCHEME_LAST; scheme++) {
 102              		.loc 1 307 3
 103              		.loc 1 307 20
 104 0008 B70A0000 		lui	s5,%hi(.L8)
 303:C:/Users/stapi/OneDrive/Desktop/GD32VW553/V1_MQTT_OK/GD32VW55X_Wifi_BLE_SDK/GD32VW55x_RELEASE_V1.0.2/MSDK/lwip/libcoap-4.3.4/src\coap_address.c ****   uint32_t scheme_hint_bits = 0;
 105              		.loc 1 303 66 is_stmt 0
 106 000c AA89     		mv	s3,a0
 107 000e 2E8A     		mv	s4,a1
 108 0010 B284     		mv	s1,a2
 109              		.loc 1 307 15
 110 0012 0149     		li	s2,0
 304:C:/Users/stapi/OneDrive/Desktop/GD32VW553/V1_MQTT_OK/GD32VW55X_Wifi_BLE_SDK/GD32VW55x_RELEASE_V1.0.2/MSDK/lwip/libcoap-4.3.4/src\coap_address.c ****   coap_uri_scheme_t scheme;
 111              		.loc 1 304 12
 112 0014 0144     		li	s0,0
 113 0016 9D4B     		li	s7,7
 114 0018 938A0A00 		addi	s5,s5,%lo(.L8)
 115              		.loc 1 307 3
 116 001c 214B     		li	s6,8
 117              	.LVL9:
 118              	.L14:
 308:C:/Users/stapi/OneDrive/Desktop/GD32VW553/V1_MQTT_OK/GD32VW55X_Wifi_BLE_SDK/GD32VW55x_RELEASE_V1.0.2/MSDK/lwip/libcoap-4.3.4/src\coap_address.c ****     switch (scheme) {
 119              		.loc 1 308 5 is_stmt 1
 120 001e 63E82B01 		bgtu	s2,s7,.L6
 121 0022 B3475921 		sh2add	a5,s2,s5
 122 0026 9C43     		lw	a5,0(a5)
 123 0028 8287     		jr	a5
 124              		.section	.rodata.coap_get_available_scheme_hint_bits,"a",@progbits
 125              		.align	2
 126              		.align	2
 127              	.L8:
 128 0000 00000000 		.word	.L13
 129 0004 00000000 		.word	.L12
 130 0008 00000000 		.word	.L11
 131 000c 00000000 		.word	.L10
 132 0010 00000000 		.word	.L6
 133 0014 00000000 		.word	.L6
 134 0018 00000000 		.word	.L9
 135 001c 00000000 		.word	.L7
 136              		.section	.text.coap_get_available_scheme_hint_bits
 137              	.L13:
 138              	.LVL10:
 309:C:/Users/stapi/OneDrive/Desktop/GD32VW553/V1_MQTT_OK/GD32VW55X_Wifi_BLE_SDK/GD32VW55x_RELEASE_V1.0.2/MSDK/lwip/libcoap-4.3.4/src\coap_address.c ****     case COAP_URI_SCHEME_COAP:
 310:C:/Users/stapi/OneDrive/Desktop/GD32VW553/V1_MQTT_OK/GD32VW55X_Wifi_BLE_SDK/GD32VW55x_RELEASE_V1.0.2/MSDK/lwip/libcoap-4.3.4/src\coap_address.c ****       scheme_hint_bits |= 1 << scheme;
 139              		.loc 1 310 7
 140              		.loc 1 310 24 is_stmt 0
 141 002a 13641400 		ori	s0,s0,1
 142              	.LVL11:
 311:C:/Users/stapi/OneDrive/Desktop/GD32VW553/V1_MQTT_OK/GD32VW55X_Wifi_BLE_SDK/GD32VW55x_RELEASE_V1.0.2/MSDK/lwip/libcoap-4.3.4/src\coap_address.c ****       break;
 143              		.loc 1 311 7 is_stmt 1
 144              	.L6:
 307:C:/Users/stapi/OneDrive/Desktop/GD32VW553/V1_MQTT_OK/GD32VW55X_Wifi_BLE_SDK/GD32VW55x_RELEASE_V1.0.2/MSDK/lwip/libcoap-4.3.4/src\coap_address.c ****     switch (scheme) {
 145              		.loc 1 307 51 discriminator 2
 307:C:/Users/stapi/OneDrive/Desktop/GD32VW553/V1_MQTT_OK/GD32VW55X_Wifi_BLE_SDK/GD32VW55x_RELEASE_V1.0.2/MSDK/lwip/libcoap-4.3.4/src\coap_address.c ****     switch (scheme) {
 146              		.loc 1 307 57 is_stmt 0 discriminator 2
 147 002e 0509     		addi	s2,s2,1
 148              	.LVL12:
 307:C:/Users/stapi/OneDrive/Desktop/GD32VW553/V1_MQTT_OK/GD32VW55X_Wifi_BLE_SDK/GD32VW55x_RELEASE_V1.0.2/MSDK/lwip/libcoap-4.3.4/src\coap_address.c ****     switch (scheme) {
 149              		.loc 1 307 20 is_stmt 1 discriminator 2
 307:C:/Users/stapi/OneDrive/Desktop/GD32VW553/V1_MQTT_OK/GD32VW55X_Wifi_BLE_SDK/GD32VW55x_RELEASE_V1.0.2/MSDK/lwip/libcoap-4.3.4/src\coap_address.c ****     switch (scheme) {
 150              		.loc 1 307 3 is_stmt 0 discriminator 2
 151 0030 E31769FF 		bne	s2,s6,.L14
 152              	.LVL13:
 312:C:/Users/stapi/OneDrive/Desktop/GD32VW553/V1_MQTT_OK/GD32VW55X_Wifi_BLE_SDK/GD32VW55x_RELEASE_V1.0.2/MSDK/lwip/libcoap-4.3.4/src\coap_address.c ****     case COAP_URI_SCHEME_COAPS:
 313:C:/Users/stapi/OneDrive/Desktop/GD32VW553/V1_MQTT_OK/GD32VW55X_Wifi_BLE_SDK/GD32VW55x_RELEASE_V1.0.2/MSDK/lwip/libcoap-4.3.4/src\coap_address.c ****       if (!(coap_dtls_is_supported() && have_pki_psk))
 314:C:/Users/stapi/OneDrive/Desktop/GD32VW553/V1_MQTT_OK/GD32VW55X_Wifi_BLE_SDK/GD32VW55x_RELEASE_V1.0.2/MSDK/lwip/libcoap-4.3.4/src\coap_address.c ****         continue;
 315:C:/Users/stapi/OneDrive/Desktop/GD32VW553/V1_MQTT_OK/GD32VW55X_Wifi_BLE_SDK/GD32VW55x_RELEASE_V1.0.2/MSDK/lwip/libcoap-4.3.4/src\coap_address.c ****       scheme_hint_bits |= 1 << scheme;
 316:C:/Users/stapi/OneDrive/Desktop/GD32VW553/V1_MQTT_OK/GD32VW55X_Wifi_BLE_SDK/GD32VW55x_RELEASE_V1.0.2/MSDK/lwip/libcoap-4.3.4/src\coap_address.c ****       break;
 317:C:/Users/stapi/OneDrive/Desktop/GD32VW553/V1_MQTT_OK/GD32VW55X_Wifi_BLE_SDK/GD32VW55x_RELEASE_V1.0.2/MSDK/lwip/libcoap-4.3.4/src\coap_address.c ****     case COAP_URI_SCHEME_COAP_TCP:
 318:C:/Users/stapi/OneDrive/Desktop/GD32VW553/V1_MQTT_OK/GD32VW55X_Wifi_BLE_SDK/GD32VW55x_RELEASE_V1.0.2/MSDK/lwip/libcoap-4.3.4/src\coap_address.c ****       if (!coap_tcp_is_supported())
 319:C:/Users/stapi/OneDrive/Desktop/GD32VW553/V1_MQTT_OK/GD32VW55X_Wifi_BLE_SDK/GD32VW55x_RELEASE_V1.0.2/MSDK/lwip/libcoap-4.3.4/src\coap_address.c ****         continue;
 320:C:/Users/stapi/OneDrive/Desktop/GD32VW553/V1_MQTT_OK/GD32VW55X_Wifi_BLE_SDK/GD32VW55x_RELEASE_V1.0.2/MSDK/lwip/libcoap-4.3.4/src\coap_address.c ****       scheme_hint_bits |= 1 << scheme;
 321:C:/Users/stapi/OneDrive/Desktop/GD32VW553/V1_MQTT_OK/GD32VW55X_Wifi_BLE_SDK/GD32VW55x_RELEASE_V1.0.2/MSDK/lwip/libcoap-4.3.4/src\coap_address.c ****       break;
 322:C:/Users/stapi/OneDrive/Desktop/GD32VW553/V1_MQTT_OK/GD32VW55X_Wifi_BLE_SDK/GD32VW55x_RELEASE_V1.0.2/MSDK/lwip/libcoap-4.3.4/src\coap_address.c ****     case COAP_URI_SCHEME_COAPS_TCP:
 323:C:/Users/stapi/OneDrive/Desktop/GD32VW553/V1_MQTT_OK/GD32VW55X_Wifi_BLE_SDK/GD32VW55x_RELEASE_V1.0.2/MSDK/lwip/libcoap-4.3.4/src\coap_address.c ****       if (!(coap_tls_is_supported() && have_pki_psk))
 324:C:/Users/stapi/OneDrive/Desktop/GD32VW553/V1_MQTT_OK/GD32VW55X_Wifi_BLE_SDK/GD32VW55x_RELEASE_V1.0.2/MSDK/lwip/libcoap-4.3.4/src\coap_address.c ****         continue;
 325:C:/Users/stapi/OneDrive/Desktop/GD32VW553/V1_MQTT_OK/GD32VW55X_Wifi_BLE_SDK/GD32VW55x_RELEASE_V1.0.2/MSDK/lwip/libcoap-4.3.4/src\coap_address.c ****       scheme_hint_bits |= 1 << scheme;
 326:C:/Users/stapi/OneDrive/Desktop/GD32VW553/V1_MQTT_OK/GD32VW55X_Wifi_BLE_SDK/GD32VW55x_RELEASE_V1.0.2/MSDK/lwip/libcoap-4.3.4/src\coap_address.c ****       break;
 327:C:/Users/stapi/OneDrive/Desktop/GD32VW553/V1_MQTT_OK/GD32VW55X_Wifi_BLE_SDK/GD32VW55x_RELEASE_V1.0.2/MSDK/lwip/libcoap-4.3.4/src\coap_address.c ****     case COAP_URI_SCHEME_COAP_WS:
 328:C:/Users/stapi/OneDrive/Desktop/GD32VW553/V1_MQTT_OK/GD32VW55X_Wifi_BLE_SDK/GD32VW55x_RELEASE_V1.0.2/MSDK/lwip/libcoap-4.3.4/src\coap_address.c ****       if (!ws_check || !coap_ws_is_supported())
 329:C:/Users/stapi/OneDrive/Desktop/GD32VW553/V1_MQTT_OK/GD32VW55X_Wifi_BLE_SDK/GD32VW55x_RELEASE_V1.0.2/MSDK/lwip/libcoap-4.3.4/src\coap_address.c ****         continue;
 330:C:/Users/stapi/OneDrive/Desktop/GD32VW553/V1_MQTT_OK/GD32VW55X_Wifi_BLE_SDK/GD32VW55x_RELEASE_V1.0.2/MSDK/lwip/libcoap-4.3.4/src\coap_address.c ****       scheme_hint_bits |= 1 << scheme;
 331:C:/Users/stapi/OneDrive/Desktop/GD32VW553/V1_MQTT_OK/GD32VW55X_Wifi_BLE_SDK/GD32VW55x_RELEASE_V1.0.2/MSDK/lwip/libcoap-4.3.4/src\coap_address.c ****       break;
 332:C:/Users/stapi/OneDrive/Desktop/GD32VW553/V1_MQTT_OK/GD32VW55X_Wifi_BLE_SDK/GD32VW55x_RELEASE_V1.0.2/MSDK/lwip/libcoap-4.3.4/src\coap_address.c ****     case COAP_URI_SCHEME_COAPS_WS:
 333:C:/Users/stapi/OneDrive/Desktop/GD32VW553/V1_MQTT_OK/GD32VW55X_Wifi_BLE_SDK/GD32VW55x_RELEASE_V1.0.2/MSDK/lwip/libcoap-4.3.4/src\coap_address.c ****       if (!ws_check || !(coap_wss_is_supported() && have_pki_psk))
 334:C:/Users/stapi/OneDrive/Desktop/GD32VW553/V1_MQTT_OK/GD32VW55X_Wifi_BLE_SDK/GD32VW55x_RELEASE_V1.0.2/MSDK/lwip/libcoap-4.3.4/src\coap_address.c ****         continue;
 335:C:/Users/stapi/OneDrive/Desktop/GD32VW553/V1_MQTT_OK/GD32VW55X_Wifi_BLE_SDK/GD32VW55x_RELEASE_V1.0.2/MSDK/lwip/libcoap-4.3.4/src\coap_address.c ****       scheme_hint_bits |= 1 << scheme;
 336:C:/Users/stapi/OneDrive/Desktop/GD32VW553/V1_MQTT_OK/GD32VW55X_Wifi_BLE_SDK/GD32VW55x_RELEASE_V1.0.2/MSDK/lwip/libcoap-4.3.4/src\coap_address.c ****       break;
 337:C:/Users/stapi/OneDrive/Desktop/GD32VW553/V1_MQTT_OK/GD32VW55X_Wifi_BLE_SDK/GD32VW55x_RELEASE_V1.0.2/MSDK/lwip/libcoap-4.3.4/src\coap_address.c ****     case COAP_URI_SCHEME_HTTP:
 338:C:/Users/stapi/OneDrive/Desktop/GD32VW553/V1_MQTT_OK/GD32VW55X_Wifi_BLE_SDK/GD32VW55x_RELEASE_V1.0.2/MSDK/lwip/libcoap-4.3.4/src\coap_address.c ****     case COAP_URI_SCHEME_HTTPS:
 339:C:/Users/stapi/OneDrive/Desktop/GD32VW553/V1_MQTT_OK/GD32VW55X_Wifi_BLE_SDK/GD32VW55x_RELEASE_V1.0.2/MSDK/lwip/libcoap-4.3.4/src\coap_address.c ****     case COAP_URI_SCHEME_LAST:
 340:C:/Users/stapi/OneDrive/Desktop/GD32VW553/V1_MQTT_OK/GD32VW55X_Wifi_BLE_SDK/GD32VW55x_RELEASE_V1.0.2/MSDK/lwip/libcoap-4.3.4/src\coap_address.c ****     default:
 341:C:/Users/stapi/OneDrive/Desktop/GD32VW553/V1_MQTT_OK/GD32VW55X_Wifi_BLE_SDK/GD32VW55x_RELEASE_V1.0.2/MSDK/lwip/libcoap-4.3.4/src\coap_address.c ****       continue;
 342:C:/Users/stapi/OneDrive/Desktop/GD32VW553/V1_MQTT_OK/GD32VW55X_Wifi_BLE_SDK/GD32VW55x_RELEASE_V1.0.2/MSDK/lwip/libcoap-4.3.4/src\coap_address.c ****     }
 343:C:/Users/stapi/OneDrive/Desktop/GD32VW553/V1_MQTT_OK/GD32VW55X_Wifi_BLE_SDK/GD32VW55x_RELEASE_V1.0.2/MSDK/lwip/libcoap-4.3.4/src\coap_address.c ****   }
 344:C:/Users/stapi/OneDrive/Desktop/GD32VW553/V1_MQTT_OK/GD32VW55X_Wifi_BLE_SDK/GD32VW55x_RELEASE_V1.0.2/MSDK/lwip/libcoap-4.3.4/src\coap_address.c **** 
 345:C:/Users/stapi/OneDrive/Desktop/GD32VW553/V1_MQTT_OK/GD32VW55X_Wifi_BLE_SDK/GD32VW55x_RELEASE_V1.0.2/MSDK/lwip/libcoap-4.3.4/src\coap_address.c ****   switch (use_unix_proto) {
 153              		.loc 1 345 3 is_stmt 1
 154 0034 9387F4FF 		addi	a5,s1,-1
 155 0038 1547     		li	a4,5
 156 003a 6369F700 		bgtu	a5,a4,.L5
 157 003e 37060000 		lui	a2,%hi(.LANCHOR1)
 158 0042 13060600 		addi	a2,a2,%lo(.LANCHOR1)
 159 0046 3E96     		add	a2,a2,a5
 160 0048 03440600 		lbu	s0,0(a2)
 161              	.LVL14:
 346:C:/Users/stapi/OneDrive/Desktop/GD32VW553/V1_MQTT_OK/GD32VW55X_Wifi_BLE_SDK/GD32VW55x_RELEASE_V1.0.2/MSDK/lwip/libcoap-4.3.4/src\coap_address.c ****   /* For AF_UNIX, can only listen on a single endpoint */
 347:C:/Users/stapi/OneDrive/Desktop/GD32VW553/V1_MQTT_OK/GD32VW55X_Wifi_BLE_SDK/GD32VW55x_RELEASE_V1.0.2/MSDK/lwip/libcoap-4.3.4/src\coap_address.c ****   case COAP_PROTO_UDP:
 348:C:/Users/stapi/OneDrive/Desktop/GD32VW553/V1_MQTT_OK/GD32VW55X_Wifi_BLE_SDK/GD32VW55x_RELEASE_V1.0.2/MSDK/lwip/libcoap-4.3.4/src\coap_address.c ****     scheme_hint_bits = 1 << COAP_URI_SCHEME_COAP;
 349:C:/Users/stapi/OneDrive/Desktop/GD32VW553/V1_MQTT_OK/GD32VW55X_Wifi_BLE_SDK/GD32VW55x_RELEASE_V1.0.2/MSDK/lwip/libcoap-4.3.4/src\coap_address.c ****     break;
 350:C:/Users/stapi/OneDrive/Desktop/GD32VW553/V1_MQTT_OK/GD32VW55X_Wifi_BLE_SDK/GD32VW55x_RELEASE_V1.0.2/MSDK/lwip/libcoap-4.3.4/src\coap_address.c ****   case COAP_PROTO_TCP:
 351:C:/Users/stapi/OneDrive/Desktop/GD32VW553/V1_MQTT_OK/GD32VW55X_Wifi_BLE_SDK/GD32VW55x_RELEASE_V1.0.2/MSDK/lwip/libcoap-4.3.4/src\coap_address.c ****     scheme_hint_bits = 1 << COAP_URI_SCHEME_COAP_TCP;
 352:C:/Users/stapi/OneDrive/Desktop/GD32VW553/V1_MQTT_OK/GD32VW55X_Wifi_BLE_SDK/GD32VW55x_RELEASE_V1.0.2/MSDK/lwip/libcoap-4.3.4/src\coap_address.c ****     break;
 353:C:/Users/stapi/OneDrive/Desktop/GD32VW553/V1_MQTT_OK/GD32VW55X_Wifi_BLE_SDK/GD32VW55x_RELEASE_V1.0.2/MSDK/lwip/libcoap-4.3.4/src\coap_address.c ****   case COAP_PROTO_DTLS:
 354:C:/Users/stapi/OneDrive/Desktop/GD32VW553/V1_MQTT_OK/GD32VW55X_Wifi_BLE_SDK/GD32VW55x_RELEASE_V1.0.2/MSDK/lwip/libcoap-4.3.4/src\coap_address.c ****     scheme_hint_bits = 1 << COAP_URI_SCHEME_COAPS;
 355:C:/Users/stapi/OneDrive/Desktop/GD32VW553/V1_MQTT_OK/GD32VW55X_Wifi_BLE_SDK/GD32VW55x_RELEASE_V1.0.2/MSDK/lwip/libcoap-4.3.4/src\coap_address.c ****     break;
 356:C:/Users/stapi/OneDrive/Desktop/GD32VW553/V1_MQTT_OK/GD32VW55X_Wifi_BLE_SDK/GD32VW55x_RELEASE_V1.0.2/MSDK/lwip/libcoap-4.3.4/src\coap_address.c ****   case COAP_PROTO_TLS:
 357:C:/Users/stapi/OneDrive/Desktop/GD32VW553/V1_MQTT_OK/GD32VW55X_Wifi_BLE_SDK/GD32VW55x_RELEASE_V1.0.2/MSDK/lwip/libcoap-4.3.4/src\coap_address.c ****     scheme_hint_bits = 1 << COAP_URI_SCHEME_COAPS_TCP;
 358:C:/Users/stapi/OneDrive/Desktop/GD32VW553/V1_MQTT_OK/GD32VW55X_Wifi_BLE_SDK/GD32VW55x_RELEASE_V1.0.2/MSDK/lwip/libcoap-4.3.4/src\coap_address.c ****     break;
 359:C:/Users/stapi/OneDrive/Desktop/GD32VW553/V1_MQTT_OK/GD32VW55X_Wifi_BLE_SDK/GD32VW55x_RELEASE_V1.0.2/MSDK/lwip/libcoap-4.3.4/src\coap_address.c ****   case COAP_PROTO_WS:
 360:C:/Users/stapi/OneDrive/Desktop/GD32VW553/V1_MQTT_OK/GD32VW55X_Wifi_BLE_SDK/GD32VW55x_RELEASE_V1.0.2/MSDK/lwip/libcoap-4.3.4/src\coap_address.c ****     scheme_hint_bits = 1 << COAP_URI_SCHEME_COAP_WS;
 361:C:/Users/stapi/OneDrive/Desktop/GD32VW553/V1_MQTT_OK/GD32VW55X_Wifi_BLE_SDK/GD32VW55x_RELEASE_V1.0.2/MSDK/lwip/libcoap-4.3.4/src\coap_address.c ****     break;
 362:C:/Users/stapi/OneDrive/Desktop/GD32VW553/V1_MQTT_OK/GD32VW55X_Wifi_BLE_SDK/GD32VW55x_RELEASE_V1.0.2/MSDK/lwip/libcoap-4.3.4/src\coap_address.c ****   case COAP_PROTO_WSS:
 363:C:/Users/stapi/OneDrive/Desktop/GD32VW553/V1_MQTT_OK/GD32VW55X_Wifi_BLE_SDK/GD32VW55x_RELEASE_V1.0.2/MSDK/lwip/libcoap-4.3.4/src\coap_address.c ****     scheme_hint_bits = 1 << COAP_URI_SCHEME_COAPS_WS;
 364:C:/Users/stapi/OneDrive/Desktop/GD32VW553/V1_MQTT_OK/GD32VW55X_Wifi_BLE_SDK/GD32VW55x_RELEASE_V1.0.2/MSDK/lwip/libcoap-4.3.4/src\coap_address.c ****     break;
 365:C:/Users/stapi/OneDrive/Desktop/GD32VW553/V1_MQTT_OK/GD32VW55X_Wifi_BLE_SDK/GD32VW55x_RELEASE_V1.0.2/MSDK/lwip/libcoap-4.3.4/src\coap_address.c ****   case COAP_PROTO_NONE: /* If use_unix_proto was not defined */
 366:C:/Users/stapi/OneDrive/Desktop/GD32VW553/V1_MQTT_OK/GD32VW55X_Wifi_BLE_SDK/GD32VW55x_RELEASE_V1.0.2/MSDK/lwip/libcoap-4.3.4/src\coap_address.c ****   case COAP_PROTO_LAST:
 367:C:/Users/stapi/OneDrive/Desktop/GD32VW553/V1_MQTT_OK/GD32VW55X_Wifi_BLE_SDK/GD32VW55x_RELEASE_V1.0.2/MSDK/lwip/libcoap-4.3.4/src\coap_address.c ****   default:
 368:C:/Users/stapi/OneDrive/Desktop/GD32VW553/V1_MQTT_OK/GD32VW55X_Wifi_BLE_SDK/GD32VW55x_RELEASE_V1.0.2/MSDK/lwip/libcoap-4.3.4/src\coap_address.c ****     break;
 369:C:/Users/stapi/OneDrive/Desktop/GD32VW553/V1_MQTT_OK/GD32VW55X_Wifi_BLE_SDK/GD32VW55x_RELEASE_V1.0.2/MSDK/lwip/libcoap-4.3.4/src\coap_address.c ****   }
 370:C:/Users/stapi/OneDrive/Desktop/GD32VW553/V1_MQTT_OK/GD32VW55X_Wifi_BLE_SDK/GD32VW55x_RELEASE_V1.0.2/MSDK/lwip/libcoap-4.3.4/src\coap_address.c ****   return scheme_hint_bits;
 162              		.loc 1 370 3
 163              	.L5:
 371:C:/Users/stapi/OneDrive/Desktop/GD32VW553/V1_MQTT_OK/GD32VW55X_Wifi_BLE_SDK/GD32VW55x_RELEASE_V1.0.2/MSDK/lwip/libcoap-4.3.4/src\coap_address.c **** }
 164              		.loc 1 371 1 is_stmt 0
 165 004c 2285     		mv	a0,s0
 166 004e 17030000 		tail	__riscv_restore_8
 166      67000300 
 167              		.cfi_remember_state
 168              		.cfi_restore 23
 169              		.cfi_restore 22
 170              		.cfi_restore 21
 171              		.cfi_restore 20
 172              		.cfi_restore 19
 173              		.cfi_restore 18
 174              		.cfi_restore 9
 175              		.cfi_restore 8
 176              		.cfi_restore 1
 177              		.cfi_def_cfa_offset 0
 178              	.LVL15:
 179              	.L12:
 180              		.cfi_restore_state
 313:C:/Users/stapi/OneDrive/Desktop/GD32VW553/V1_MQTT_OK/GD32VW55X_Wifi_BLE_SDK/GD32VW55x_RELEASE_V1.0.2/MSDK/lwip/libcoap-4.3.4/src\coap_address.c ****         continue;
 181              		.loc 1 313 7 is_stmt 1
 313:C:/Users/stapi/OneDrive/Desktop/GD32VW553/V1_MQTT_OK/GD32VW55X_Wifi_BLE_SDK/GD32VW55x_RELEASE_V1.0.2/MSDK/lwip/libcoap-4.3.4/src\coap_address.c ****         continue;
 182              		.loc 1 313 13 is_stmt 0
 183 0056 97000000 		call	coap_dtls_is_supported
 183      E7800000 
 184              	.LVL16:
 313:C:/Users/stapi/OneDrive/Desktop/GD32VW553/V1_MQTT_OK/GD32VW55X_Wifi_BLE_SDK/GD32VW55x_RELEASE_V1.0.2/MSDK/lwip/libcoap-4.3.4/src\coap_address.c ****         continue;
 185              		.loc 1 313 10
 186 005e 61D9     		beq	a0,zero,.L6
 313:C:/Users/stapi/OneDrive/Desktop/GD32VW553/V1_MQTT_OK/GD32VW55X_Wifi_BLE_SDK/GD32VW55x_RELEASE_V1.0.2/MSDK/lwip/libcoap-4.3.4/src\coap_address.c ****         continue;
 187              		.loc 1 313 11 discriminator 1
 188 0060 E38709FC 		beq	s3,zero,.L6
 315:C:/Users/stapi/OneDrive/Desktop/GD32VW553/V1_MQTT_OK/GD32VW55X_Wifi_BLE_SDK/GD32VW55x_RELEASE_V1.0.2/MSDK/lwip/libcoap-4.3.4/src\coap_address.c ****       break;
 189              		.loc 1 315 7 is_stmt 1
 315:C:/Users/stapi/OneDrive/Desktop/GD32VW553/V1_MQTT_OK/GD32VW55X_Wifi_BLE_SDK/GD32VW55x_RELEASE_V1.0.2/MSDK/lwip/libcoap-4.3.4/src\coap_address.c ****       break;
 190              		.loc 1 315 24 is_stmt 0
 191 0064 13642400 		ori	s0,s0,2
 192              	.LVL17:
 316:C:/Users/stapi/OneDrive/Desktop/GD32VW553/V1_MQTT_OK/GD32VW55X_Wifi_BLE_SDK/GD32VW55x_RELEASE_V1.0.2/MSDK/lwip/libcoap-4.3.4/src\coap_address.c ****     case COAP_URI_SCHEME_COAP_TCP:
 193              		.loc 1 316 7 is_stmt 1
 194 0068 D9B7     		j	.L6
 195              	.L11:
 318:C:/Users/stapi/OneDrive/Desktop/GD32VW553/V1_MQTT_OK/GD32VW55X_Wifi_BLE_SDK/GD32VW55x_RELEASE_V1.0.2/MSDK/lwip/libcoap-4.3.4/src\coap_address.c ****         continue;
 196              		.loc 1 318 7
 318:C:/Users/stapi/OneDrive/Desktop/GD32VW553/V1_MQTT_OK/GD32VW55X_Wifi_BLE_SDK/GD32VW55x_RELEASE_V1.0.2/MSDK/lwip/libcoap-4.3.4/src\coap_address.c ****         continue;
 197              		.loc 1 318 12 is_stmt 0
 198 006a 97000000 		call	coap_tcp_is_supported
 198      E7800000 
 199              	.LVL18:
 318:C:/Users/stapi/OneDrive/Desktop/GD32VW553/V1_MQTT_OK/GD32VW55X_Wifi_BLE_SDK/GD32VW55x_RELEASE_V1.0.2/MSDK/lwip/libcoap-4.3.4/src\coap_address.c ****         continue;
 200              		.loc 1 318 10
 201 0072 55DD     		beq	a0,zero,.L6
 320:C:/Users/stapi/OneDrive/Desktop/GD32VW553/V1_MQTT_OK/GD32VW55X_Wifi_BLE_SDK/GD32VW55x_RELEASE_V1.0.2/MSDK/lwip/libcoap-4.3.4/src\coap_address.c ****       break;
 202              		.loc 1 320 7 is_stmt 1
 320:C:/Users/stapi/OneDrive/Desktop/GD32VW553/V1_MQTT_OK/GD32VW55X_Wifi_BLE_SDK/GD32VW55x_RELEASE_V1.0.2/MSDK/lwip/libcoap-4.3.4/src\coap_address.c ****       break;
 203              		.loc 1 320 24 is_stmt 0
 204 0074 13644400 		ori	s0,s0,4
 205              	.LVL19:
 321:C:/Users/stapi/OneDrive/Desktop/GD32VW553/V1_MQTT_OK/GD32VW55X_Wifi_BLE_SDK/GD32VW55x_RELEASE_V1.0.2/MSDK/lwip/libcoap-4.3.4/src\coap_address.c ****     case COAP_URI_SCHEME_COAPS_TCP:
 206              		.loc 1 321 7 is_stmt 1
 207 0078 5DBF     		j	.L6
 208              	.L10:
 323:C:/Users/stapi/OneDrive/Desktop/GD32VW553/V1_MQTT_OK/GD32VW55X_Wifi_BLE_SDK/GD32VW55x_RELEASE_V1.0.2/MSDK/lwip/libcoap-4.3.4/src\coap_address.c ****         continue;
 209              		.loc 1 323 7
 323:C:/Users/stapi/OneDrive/Desktop/GD32VW553/V1_MQTT_OK/GD32VW55X_Wifi_BLE_SDK/GD32VW55x_RELEASE_V1.0.2/MSDK/lwip/libcoap-4.3.4/src\coap_address.c ****         continue;
 210              		.loc 1 323 13 is_stmt 0
 211 007a 97000000 		call	coap_tls_is_supported
 211      E7800000 
 212              	.LVL20:
 323:C:/Users/stapi/OneDrive/Desktop/GD32VW553/V1_MQTT_OK/GD32VW55X_Wifi_BLE_SDK/GD32VW55x_RELEASE_V1.0.2/MSDK/lwip/libcoap-4.3.4/src\coap_address.c ****         continue;
 213              		.loc 1 323 10
 214 0082 55D5     		beq	a0,zero,.L6
 323:C:/Users/stapi/OneDrive/Desktop/GD32VW553/V1_MQTT_OK/GD32VW55X_Wifi_BLE_SDK/GD32VW55x_RELEASE_V1.0.2/MSDK/lwip/libcoap-4.3.4/src\coap_address.c ****         continue;
 215              		.loc 1 323 11 discriminator 1
 216 0084 E38509FA 		beq	s3,zero,.L6
 325:C:/Users/stapi/OneDrive/Desktop/GD32VW553/V1_MQTT_OK/GD32VW55X_Wifi_BLE_SDK/GD32VW55x_RELEASE_V1.0.2/MSDK/lwip/libcoap-4.3.4/src\coap_address.c ****       break;
 217              		.loc 1 325 7 is_stmt 1
 325:C:/Users/stapi/OneDrive/Desktop/GD32VW553/V1_MQTT_OK/GD32VW55X_Wifi_BLE_SDK/GD32VW55x_RELEASE_V1.0.2/MSDK/lwip/libcoap-4.3.4/src\coap_address.c ****       break;
 218              		.loc 1 325 24 is_stmt 0
 219 0088 13648400 		ori	s0,s0,8
 220              	.LVL21:
 326:C:/Users/stapi/OneDrive/Desktop/GD32VW553/V1_MQTT_OK/GD32VW55X_Wifi_BLE_SDK/GD32VW55x_RELEASE_V1.0.2/MSDK/lwip/libcoap-4.3.4/src\coap_address.c ****     case COAP_URI_SCHEME_COAP_WS:
 221              		.loc 1 326 7 is_stmt 1
 222 008c 4DB7     		j	.L6
 223              	.L9:
 328:C:/Users/stapi/OneDrive/Desktop/GD32VW553/V1_MQTT_OK/GD32VW55X_Wifi_BLE_SDK/GD32VW55x_RELEASE_V1.0.2/MSDK/lwip/libcoap-4.3.4/src\coap_address.c ****         continue;
 224              		.loc 1 328 7
 328:C:/Users/stapi/OneDrive/Desktop/GD32VW553/V1_MQTT_OK/GD32VW55X_Wifi_BLE_SDK/GD32VW55x_RELEASE_V1.0.2/MSDK/lwip/libcoap-4.3.4/src\coap_address.c ****         continue;
 225              		.loc 1 328 10 is_stmt 0
 226 008e E3000AFA 		beq	s4,zero,.L6
 328:C:/Users/stapi/OneDrive/Desktop/GD32VW553/V1_MQTT_OK/GD32VW55X_Wifi_BLE_SDK/GD32VW55x_RELEASE_V1.0.2/MSDK/lwip/libcoap-4.3.4/src\coap_address.c ****         continue;
 227              		.loc 1 328 25 discriminator 1
 228 0092 97000000 		call	coap_ws_is_supported
 228      E7800000 
 229              	.LVL22:
 328:C:/Users/stapi/OneDrive/Desktop/GD32VW553/V1_MQTT_OK/GD32VW55X_Wifi_BLE_SDK/GD32VW55x_RELEASE_V1.0.2/MSDK/lwip/libcoap-4.3.4/src\coap_address.c ****         continue;
 230              		.loc 1 328 21 discriminator 1
 231 009a 51D9     		beq	a0,zero,.L6
 330:C:/Users/stapi/OneDrive/Desktop/GD32VW553/V1_MQTT_OK/GD32VW55X_Wifi_BLE_SDK/GD32VW55x_RELEASE_V1.0.2/MSDK/lwip/libcoap-4.3.4/src\coap_address.c ****       break;
 232              		.loc 1 330 7 is_stmt 1
 330:C:/Users/stapi/OneDrive/Desktop/GD32VW553/V1_MQTT_OK/GD32VW55X_Wifi_BLE_SDK/GD32VW55x_RELEASE_V1.0.2/MSDK/lwip/libcoap-4.3.4/src\coap_address.c ****       break;
 233              		.loc 1 330 24 is_stmt 0
 234 009c 13640404 		ori	s0,s0,64
 235              	.LVL23:
 331:C:/Users/stapi/OneDrive/Desktop/GD32VW553/V1_MQTT_OK/GD32VW55X_Wifi_BLE_SDK/GD32VW55x_RELEASE_V1.0.2/MSDK/lwip/libcoap-4.3.4/src\coap_address.c ****     case COAP_URI_SCHEME_COAPS_WS:
 236              		.loc 1 331 7 is_stmt 1
 237 00a0 79B7     		j	.L6
 238              	.L7:
 333:C:/Users/stapi/OneDrive/Desktop/GD32VW553/V1_MQTT_OK/GD32VW55X_Wifi_BLE_SDK/GD32VW55x_RELEASE_V1.0.2/MSDK/lwip/libcoap-4.3.4/src\coap_address.c ****         continue;
 239              		.loc 1 333 7
 333:C:/Users/stapi/OneDrive/Desktop/GD32VW553/V1_MQTT_OK/GD32VW55X_Wifi_BLE_SDK/GD32VW55x_RELEASE_V1.0.2/MSDK/lwip/libcoap-4.3.4/src\coap_address.c ****         continue;
 240              		.loc 1 333 10 is_stmt 0
 241 00a2 E3060AF8 		beq	s4,zero,.L6
 333:C:/Users/stapi/OneDrive/Desktop/GD32VW553/V1_MQTT_OK/GD32VW55X_Wifi_BLE_SDK/GD32VW55x_RELEASE_V1.0.2/MSDK/lwip/libcoap-4.3.4/src\coap_address.c ****         continue;
 242              		.loc 1 333 26 discriminator 1
 243 00a6 97000000 		call	coap_wss_is_supported
 243      E7800000 
 244              	.LVL24:
 333:C:/Users/stapi/OneDrive/Desktop/GD32VW553/V1_MQTT_OK/GD32VW55X_Wifi_BLE_SDK/GD32VW55x_RELEASE_V1.0.2/MSDK/lwip/libcoap-4.3.4/src\coap_address.c ****         continue;
 245              		.loc 1 333 21 discriminator 1
 246 00ae 41D1     		beq	a0,zero,.L6
 333:C:/Users/stapi/OneDrive/Desktop/GD32VW553/V1_MQTT_OK/GD32VW55X_Wifi_BLE_SDK/GD32VW55x_RELEASE_V1.0.2/MSDK/lwip/libcoap-4.3.4/src\coap_address.c ****         continue;
 247              		.loc 1 333 24 discriminator 2
 248 00b0 E38F09F6 		beq	s3,zero,.L6
 335:C:/Users/stapi/OneDrive/Desktop/GD32VW553/V1_MQTT_OK/GD32VW55X_Wifi_BLE_SDK/GD32VW55x_RELEASE_V1.0.2/MSDK/lwip/libcoap-4.3.4/src\coap_address.c ****       break;
 249              		.loc 1 335 7 is_stmt 1
 335:C:/Users/stapi/OneDrive/Desktop/GD32VW553/V1_MQTT_OK/GD32VW55X_Wifi_BLE_SDK/GD32VW55x_RELEASE_V1.0.2/MSDK/lwip/libcoap-4.3.4/src\coap_address.c ****       break;
 250              		.loc 1 335 24 is_stmt 0
 251 00b4 13640408 		ori	s0,s0,128
 252              	.LVL25:
 336:C:/Users/stapi/OneDrive/Desktop/GD32VW553/V1_MQTT_OK/GD32VW55X_Wifi_BLE_SDK/GD32VW55x_RELEASE_V1.0.2/MSDK/lwip/libcoap-4.3.4/src\coap_address.c ****     case COAP_URI_SCHEME_HTTP:
 253              		.loc 1 336 7 is_stmt 1
 254 00b8 9DBF     		j	.L6
 255              		.cfi_endproc
 256              	.LFE34:
 258              		.section	.rodata.coap_resolve_address_info.str1.4,"aMS",@progbits,1
 259              		.align	2
 260              	.LC2:
 261 0000 6C6F6361 		.string	"localhost"
 261      6C686F73 
 261      7400
 262 000a 0000     		.align	2
 263              	.LC3:
 264 000c 00       		.string	""
 265 000d 000000   		.align	2
 266              	.LC4:
 267 0010 67657461 		.string	"getaddrinfo: %s\n"
 267      64647269 
 267      6E666F3A 
 267      2025730A 
 267      00
 268              		.section	.text.coap_resolve_address_info,"ax",@progbits
 269              		.align	1
 270              		.globl	coap_resolve_address_info
 272              	coap_resolve_address_info:
 273              	.LFB35:
 372:C:/Users/stapi/OneDrive/Desktop/GD32VW553/V1_MQTT_OK/GD32VW55X_Wifi_BLE_SDK/GD32VW55x_RELEASE_V1.0.2/MSDK/lwip/libcoap-4.3.4/src\coap_address.c **** 
 373:C:/Users/stapi/OneDrive/Desktop/GD32VW553/V1_MQTT_OK/GD32VW55X_Wifi_BLE_SDK/GD32VW55x_RELEASE_V1.0.2/MSDK/lwip/libcoap-4.3.4/src\coap_address.c **** coap_addr_info_t *
 374:C:/Users/stapi/OneDrive/Desktop/GD32VW553/V1_MQTT_OK/GD32VW55X_Wifi_BLE_SDK/GD32VW55x_RELEASE_V1.0.2/MSDK/lwip/libcoap-4.3.4/src\coap_address.c **** coap_resolve_address_info(const coap_str_const_t *address,
 375:C:/Users/stapi/OneDrive/Desktop/GD32VW553/V1_MQTT_OK/GD32VW55X_Wifi_BLE_SDK/GD32VW55x_RELEASE_V1.0.2/MSDK/lwip/libcoap-4.3.4/src\coap_address.c ****                           uint16_t port,
 376:C:/Users/stapi/OneDrive/Desktop/GD32VW553/V1_MQTT_OK/GD32VW55X_Wifi_BLE_SDK/GD32VW55x_RELEASE_V1.0.2/MSDK/lwip/libcoap-4.3.4/src\coap_address.c ****                           uint16_t secure_port,
 377:C:/Users/stapi/OneDrive/Desktop/GD32VW553/V1_MQTT_OK/GD32VW55X_Wifi_BLE_SDK/GD32VW55x_RELEASE_V1.0.2/MSDK/lwip/libcoap-4.3.4/src\coap_address.c ****                           uint16_t ws_port,
 378:C:/Users/stapi/OneDrive/Desktop/GD32VW553/V1_MQTT_OK/GD32VW55X_Wifi_BLE_SDK/GD32VW55x_RELEASE_V1.0.2/MSDK/lwip/libcoap-4.3.4/src\coap_address.c ****                           uint16_t ws_secure_port,
 379:C:/Users/stapi/OneDrive/Desktop/GD32VW553/V1_MQTT_OK/GD32VW55X_Wifi_BLE_SDK/GD32VW55x_RELEASE_V1.0.2/MSDK/lwip/libcoap-4.3.4/src\coap_address.c ****                           int ai_hints_flags,
 380:C:/Users/stapi/OneDrive/Desktop/GD32VW553/V1_MQTT_OK/GD32VW55X_Wifi_BLE_SDK/GD32VW55x_RELEASE_V1.0.2/MSDK/lwip/libcoap-4.3.4/src\coap_address.c ****                           int scheme_hint_bits,
 381:C:/Users/stapi/OneDrive/Desktop/GD32VW553/V1_MQTT_OK/GD32VW55X_Wifi_BLE_SDK/GD32VW55x_RELEASE_V1.0.2/MSDK/lwip/libcoap-4.3.4/src\coap_address.c ****                           coap_resolve_type_t type) {
 274              		.loc 1 381 53
 275              		.cfi_startproc
 276              	.LVL26:
 277 0000 17030000 		call	t0,__riscv_save_12
 277      E7020300 
 278              		.cfi_offset 27, -52
 279              		.cfi_offset 26, -48
 280              		.cfi_offset 25, -44
 281              		.cfi_offset 24, -40
 282              		.cfi_offset 23, -36
 283              		.cfi_offset 22, -32
 284              		.cfi_offset 21, -28
 285              		.cfi_offset 20, -24
 286              		.cfi_offset 19, -20
 287              		.cfi_offset 18, -16
 288              		.cfi_offset 9, -12
 289              		.cfi_offset 8, -8
 290              		.cfi_offset 1, -4
 291              		.cfi_def_cfa_offset 64
 382:C:/Users/stapi/OneDrive/Desktop/GD32VW553/V1_MQTT_OK/GD32VW55X_Wifi_BLE_SDK/GD32VW55x_RELEASE_V1.0.2/MSDK/lwip/libcoap-4.3.4/src\coap_address.c **** #if !defined(RIOT_VERSION)
 383:C:/Users/stapi/OneDrive/Desktop/GD32VW553/V1_MQTT_OK/GD32VW55X_Wifi_BLE_SDK/GD32VW55x_RELEASE_V1.0.2/MSDK/lwip/libcoap-4.3.4/src\coap_address.c **** 
 384:C:/Users/stapi/OneDrive/Desktop/GD32VW553/V1_MQTT_OK/GD32VW55X_Wifi_BLE_SDK/GD32VW55x_RELEASE_V1.0.2/MSDK/lwip/libcoap-4.3.4/src\coap_address.c ****   struct addrinfo *res, *ainfo;
 292              		.loc 1 384 3
 385:C:/Users/stapi/OneDrive/Desktop/GD32VW553/V1_MQTT_OK/GD32VW55X_Wifi_BLE_SDK/GD32VW55x_RELEASE_V1.0.2/MSDK/lwip/libcoap-4.3.4/src\coap_address.c ****   struct addrinfo hints;
 293              		.loc 1 385 3
 386:C:/Users/stapi/OneDrive/Desktop/GD32VW553/V1_MQTT_OK/GD32VW55X_Wifi_BLE_SDK/GD32VW55x_RELEASE_V1.0.2/MSDK/lwip/libcoap-4.3.4/src\coap_address.c ****   static char addrstr[256];
 294              		.loc 1 386 3
 387:C:/Users/stapi/OneDrive/Desktop/GD32VW553/V1_MQTT_OK/GD32VW55X_Wifi_BLE_SDK/GD32VW55x_RELEASE_V1.0.2/MSDK/lwip/libcoap-4.3.4/src\coap_address.c ****   int error;
 295              		.loc 1 387 3
 388:C:/Users/stapi/OneDrive/Desktop/GD32VW553/V1_MQTT_OK/GD32VW55X_Wifi_BLE_SDK/GD32VW55x_RELEASE_V1.0.2/MSDK/lwip/libcoap-4.3.4/src\coap_address.c ****   coap_addr_info_t *info = NULL;
 296              		.loc 1 388 3
 297              	.LVL27:
 389:C:/Users/stapi/OneDrive/Desktop/GD32VW553/V1_MQTT_OK/GD32VW55X_Wifi_BLE_SDK/GD32VW55x_RELEASE_V1.0.2/MSDK/lwip/libcoap-4.3.4/src\coap_address.c ****   coap_addr_info_t *info_prev = NULL;
 298              		.loc 1 389 3
 390:C:/Users/stapi/OneDrive/Desktop/GD32VW553/V1_MQTT_OK/GD32VW55X_Wifi_BLE_SDK/GD32VW55x_RELEASE_V1.0.2/MSDK/lwip/libcoap-4.3.4/src\coap_address.c ****   coap_addr_info_t *info_list = NULL;
 299              		.loc 1 390 3
 391:C:/Users/stapi/OneDrive/Desktop/GD32VW553/V1_MQTT_OK/GD32VW55X_Wifi_BLE_SDK/GD32VW55x_RELEASE_V1.0.2/MSDK/lwip/libcoap-4.3.4/src\coap_address.c ****   coap_addr_info_t *info_tmp;
 300              		.loc 1 391 3
 392:C:/Users/stapi/OneDrive/Desktop/GD32VW553/V1_MQTT_OK/GD32VW55X_Wifi_BLE_SDK/GD32VW55x_RELEASE_V1.0.2/MSDK/lwip/libcoap-4.3.4/src\coap_address.c ****   coap_uri_scheme_t scheme;
 301              		.loc 1 392 3
 393:C:/Users/stapi/OneDrive/Desktop/GD32VW553/V1_MQTT_OK/GD32VW55X_Wifi_BLE_SDK/GD32VW55x_RELEASE_V1.0.2/MSDK/lwip/libcoap-4.3.4/src\coap_address.c ****   coap_proto_t proto = 0;
 302              		.loc 1 393 3
 394:C:/Users/stapi/OneDrive/Desktop/GD32VW553/V1_MQTT_OK/GD32VW55X_Wifi_BLE_SDK/GD32VW55x_RELEASE_V1.0.2/MSDK/lwip/libcoap-4.3.4/src\coap_address.c **** 
 395:C:/Users/stapi/OneDrive/Desktop/GD32VW553/V1_MQTT_OK/GD32VW55X_Wifi_BLE_SDK/GD32VW55x_RELEASE_V1.0.2/MSDK/lwip/libcoap-4.3.4/src\coap_address.c **** #if COAP_AF_UNIX_SUPPORT
 396:C:/Users/stapi/OneDrive/Desktop/GD32VW553/V1_MQTT_OK/GD32VW55X_Wifi_BLE_SDK/GD32VW55x_RELEASE_V1.0.2/MSDK/lwip/libcoap-4.3.4/src\coap_address.c ****   if (address && coap_host_is_unix_domain(address)) {
 397:C:/Users/stapi/OneDrive/Desktop/GD32VW553/V1_MQTT_OK/GD32VW55X_Wifi_BLE_SDK/GD32VW55x_RELEASE_V1.0.2/MSDK/lwip/libcoap-4.3.4/src\coap_address.c ****     /* There can only be one unique filename entry for AF_UNIX */
 398:C:/Users/stapi/OneDrive/Desktop/GD32VW553/V1_MQTT_OK/GD32VW55X_Wifi_BLE_SDK/GD32VW55x_RELEASE_V1.0.2/MSDK/lwip/libcoap-4.3.4/src\coap_address.c ****     if (address->length >= COAP_UNIX_PATH_MAX) {
 399:C:/Users/stapi/OneDrive/Desktop/GD32VW553/V1_MQTT_OK/GD32VW55X_Wifi_BLE_SDK/GD32VW55x_RELEASE_V1.0.2/MSDK/lwip/libcoap-4.3.4/src\coap_address.c ****       coap_log_err("Unix Domain host too long\n");
 400:C:/Users/stapi/OneDrive/Desktop/GD32VW553/V1_MQTT_OK/GD32VW55X_Wifi_BLE_SDK/GD32VW55x_RELEASE_V1.0.2/MSDK/lwip/libcoap-4.3.4/src\coap_address.c ****       return NULL;
 401:C:/Users/stapi/OneDrive/Desktop/GD32VW553/V1_MQTT_OK/GD32VW55X_Wifi_BLE_SDK/GD32VW55x_RELEASE_V1.0.2/MSDK/lwip/libcoap-4.3.4/src\coap_address.c ****     }
 402:C:/Users/stapi/OneDrive/Desktop/GD32VW553/V1_MQTT_OK/GD32VW55X_Wifi_BLE_SDK/GD32VW55x_RELEASE_V1.0.2/MSDK/lwip/libcoap-4.3.4/src\coap_address.c ****     /* Need to chose the first defined one  in scheme_hint_bits */
 403:C:/Users/stapi/OneDrive/Desktop/GD32VW553/V1_MQTT_OK/GD32VW55X_Wifi_BLE_SDK/GD32VW55x_RELEASE_V1.0.2/MSDK/lwip/libcoap-4.3.4/src\coap_address.c ****     for (scheme = 0; scheme < COAP_URI_SCHEME_LAST; scheme++) {
 404:C:/Users/stapi/OneDrive/Desktop/GD32VW553/V1_MQTT_OK/GD32VW55X_Wifi_BLE_SDK/GD32VW55x_RELEASE_V1.0.2/MSDK/lwip/libcoap-4.3.4/src\coap_address.c ****       if (scheme_hint_bits & (1 << scheme)) {
 405:C:/Users/stapi/OneDrive/Desktop/GD32VW553/V1_MQTT_OK/GD32VW55X_Wifi_BLE_SDK/GD32VW55x_RELEASE_V1.0.2/MSDK/lwip/libcoap-4.3.4/src\coap_address.c ****         break;
 406:C:/Users/stapi/OneDrive/Desktop/GD32VW553/V1_MQTT_OK/GD32VW55X_Wifi_BLE_SDK/GD32VW55x_RELEASE_V1.0.2/MSDK/lwip/libcoap-4.3.4/src\coap_address.c ****       }
 407:C:/Users/stapi/OneDrive/Desktop/GD32VW553/V1_MQTT_OK/GD32VW55X_Wifi_BLE_SDK/GD32VW55x_RELEASE_V1.0.2/MSDK/lwip/libcoap-4.3.4/src\coap_address.c ****     }
 408:C:/Users/stapi/OneDrive/Desktop/GD32VW553/V1_MQTT_OK/GD32VW55X_Wifi_BLE_SDK/GD32VW55x_RELEASE_V1.0.2/MSDK/lwip/libcoap-4.3.4/src\coap_address.c ****     if (scheme == COAP_URI_SCHEME_LAST) {
 409:C:/Users/stapi/OneDrive/Desktop/GD32VW553/V1_MQTT_OK/GD32VW55X_Wifi_BLE_SDK/GD32VW55x_RELEASE_V1.0.2/MSDK/lwip/libcoap-4.3.4/src\coap_address.c ****       return NULL;
 410:C:/Users/stapi/OneDrive/Desktop/GD32VW553/V1_MQTT_OK/GD32VW55X_Wifi_BLE_SDK/GD32VW55x_RELEASE_V1.0.2/MSDK/lwip/libcoap-4.3.4/src\coap_address.c ****     }
 411:C:/Users/stapi/OneDrive/Desktop/GD32VW553/V1_MQTT_OK/GD32VW55X_Wifi_BLE_SDK/GD32VW55x_RELEASE_V1.0.2/MSDK/lwip/libcoap-4.3.4/src\coap_address.c ****     switch (scheme) {
 412:C:/Users/stapi/OneDrive/Desktop/GD32VW553/V1_MQTT_OK/GD32VW55X_Wifi_BLE_SDK/GD32VW55x_RELEASE_V1.0.2/MSDK/lwip/libcoap-4.3.4/src\coap_address.c ****     case COAP_URI_SCHEME_COAP:
 413:C:/Users/stapi/OneDrive/Desktop/GD32VW553/V1_MQTT_OK/GD32VW55X_Wifi_BLE_SDK/GD32VW55x_RELEASE_V1.0.2/MSDK/lwip/libcoap-4.3.4/src\coap_address.c ****       proto = COAP_PROTO_UDP;
 414:C:/Users/stapi/OneDrive/Desktop/GD32VW553/V1_MQTT_OK/GD32VW55X_Wifi_BLE_SDK/GD32VW55x_RELEASE_V1.0.2/MSDK/lwip/libcoap-4.3.4/src\coap_address.c ****       break;
 415:C:/Users/stapi/OneDrive/Desktop/GD32VW553/V1_MQTT_OK/GD32VW55X_Wifi_BLE_SDK/GD32VW55x_RELEASE_V1.0.2/MSDK/lwip/libcoap-4.3.4/src\coap_address.c ****     case COAP_URI_SCHEME_COAPS:
 416:C:/Users/stapi/OneDrive/Desktop/GD32VW553/V1_MQTT_OK/GD32VW55X_Wifi_BLE_SDK/GD32VW55x_RELEASE_V1.0.2/MSDK/lwip/libcoap-4.3.4/src\coap_address.c ****       if (!coap_dtls_is_supported())
 417:C:/Users/stapi/OneDrive/Desktop/GD32VW553/V1_MQTT_OK/GD32VW55X_Wifi_BLE_SDK/GD32VW55x_RELEASE_V1.0.2/MSDK/lwip/libcoap-4.3.4/src\coap_address.c ****         return NULL;
 418:C:/Users/stapi/OneDrive/Desktop/GD32VW553/V1_MQTT_OK/GD32VW55X_Wifi_BLE_SDK/GD32VW55x_RELEASE_V1.0.2/MSDK/lwip/libcoap-4.3.4/src\coap_address.c ****       proto = COAP_PROTO_DTLS;
 419:C:/Users/stapi/OneDrive/Desktop/GD32VW553/V1_MQTT_OK/GD32VW55X_Wifi_BLE_SDK/GD32VW55x_RELEASE_V1.0.2/MSDK/lwip/libcoap-4.3.4/src\coap_address.c ****       break;
 420:C:/Users/stapi/OneDrive/Desktop/GD32VW553/V1_MQTT_OK/GD32VW55X_Wifi_BLE_SDK/GD32VW55x_RELEASE_V1.0.2/MSDK/lwip/libcoap-4.3.4/src\coap_address.c ****     case COAP_URI_SCHEME_COAP_TCP:
 421:C:/Users/stapi/OneDrive/Desktop/GD32VW553/V1_MQTT_OK/GD32VW55X_Wifi_BLE_SDK/GD32VW55x_RELEASE_V1.0.2/MSDK/lwip/libcoap-4.3.4/src\coap_address.c ****       if (!coap_tcp_is_supported())
 422:C:/Users/stapi/OneDrive/Desktop/GD32VW553/V1_MQTT_OK/GD32VW55X_Wifi_BLE_SDK/GD32VW55x_RELEASE_V1.0.2/MSDK/lwip/libcoap-4.3.4/src\coap_address.c ****         return NULL;
 423:C:/Users/stapi/OneDrive/Desktop/GD32VW553/V1_MQTT_OK/GD32VW55X_Wifi_BLE_SDK/GD32VW55x_RELEASE_V1.0.2/MSDK/lwip/libcoap-4.3.4/src\coap_address.c ****       proto = COAP_PROTO_TCP;
 424:C:/Users/stapi/OneDrive/Desktop/GD32VW553/V1_MQTT_OK/GD32VW55X_Wifi_BLE_SDK/GD32VW55x_RELEASE_V1.0.2/MSDK/lwip/libcoap-4.3.4/src\coap_address.c ****       break;
 425:C:/Users/stapi/OneDrive/Desktop/GD32VW553/V1_MQTT_OK/GD32VW55X_Wifi_BLE_SDK/GD32VW55x_RELEASE_V1.0.2/MSDK/lwip/libcoap-4.3.4/src\coap_address.c ****     case COAP_URI_SCHEME_COAPS_TCP:
 426:C:/Users/stapi/OneDrive/Desktop/GD32VW553/V1_MQTT_OK/GD32VW55X_Wifi_BLE_SDK/GD32VW55x_RELEASE_V1.0.2/MSDK/lwip/libcoap-4.3.4/src\coap_address.c ****       if (!coap_tls_is_supported())
 427:C:/Users/stapi/OneDrive/Desktop/GD32VW553/V1_MQTT_OK/GD32VW55X_Wifi_BLE_SDK/GD32VW55x_RELEASE_V1.0.2/MSDK/lwip/libcoap-4.3.4/src\coap_address.c ****         return NULL;
 428:C:/Users/stapi/OneDrive/Desktop/GD32VW553/V1_MQTT_OK/GD32VW55X_Wifi_BLE_SDK/GD32VW55x_RELEASE_V1.0.2/MSDK/lwip/libcoap-4.3.4/src\coap_address.c ****       proto = COAP_PROTO_TLS;
 429:C:/Users/stapi/OneDrive/Desktop/GD32VW553/V1_MQTT_OK/GD32VW55X_Wifi_BLE_SDK/GD32VW55x_RELEASE_V1.0.2/MSDK/lwip/libcoap-4.3.4/src\coap_address.c ****       break;
 430:C:/Users/stapi/OneDrive/Desktop/GD32VW553/V1_MQTT_OK/GD32VW55X_Wifi_BLE_SDK/GD32VW55x_RELEASE_V1.0.2/MSDK/lwip/libcoap-4.3.4/src\coap_address.c ****     case COAP_URI_SCHEME_HTTP:
 431:C:/Users/stapi/OneDrive/Desktop/GD32VW553/V1_MQTT_OK/GD32VW55X_Wifi_BLE_SDK/GD32VW55x_RELEASE_V1.0.2/MSDK/lwip/libcoap-4.3.4/src\coap_address.c ****       if (!coap_tcp_is_supported())
 432:C:/Users/stapi/OneDrive/Desktop/GD32VW553/V1_MQTT_OK/GD32VW55X_Wifi_BLE_SDK/GD32VW55x_RELEASE_V1.0.2/MSDK/lwip/libcoap-4.3.4/src\coap_address.c ****         return NULL;
 433:C:/Users/stapi/OneDrive/Desktop/GD32VW553/V1_MQTT_OK/GD32VW55X_Wifi_BLE_SDK/GD32VW55x_RELEASE_V1.0.2/MSDK/lwip/libcoap-4.3.4/src\coap_address.c ****       proto = COAP_PROTO_NONE;
 434:C:/Users/stapi/OneDrive/Desktop/GD32VW553/V1_MQTT_OK/GD32VW55X_Wifi_BLE_SDK/GD32VW55x_RELEASE_V1.0.2/MSDK/lwip/libcoap-4.3.4/src\coap_address.c ****       break;
 435:C:/Users/stapi/OneDrive/Desktop/GD32VW553/V1_MQTT_OK/GD32VW55X_Wifi_BLE_SDK/GD32VW55x_RELEASE_V1.0.2/MSDK/lwip/libcoap-4.3.4/src\coap_address.c ****     case COAP_URI_SCHEME_HTTPS:
 436:C:/Users/stapi/OneDrive/Desktop/GD32VW553/V1_MQTT_OK/GD32VW55X_Wifi_BLE_SDK/GD32VW55x_RELEASE_V1.0.2/MSDK/lwip/libcoap-4.3.4/src\coap_address.c ****       if (!coap_tls_is_supported())
 437:C:/Users/stapi/OneDrive/Desktop/GD32VW553/V1_MQTT_OK/GD32VW55X_Wifi_BLE_SDK/GD32VW55x_RELEASE_V1.0.2/MSDK/lwip/libcoap-4.3.4/src\coap_address.c ****         return NULL;
 438:C:/Users/stapi/OneDrive/Desktop/GD32VW553/V1_MQTT_OK/GD32VW55X_Wifi_BLE_SDK/GD32VW55x_RELEASE_V1.0.2/MSDK/lwip/libcoap-4.3.4/src\coap_address.c ****       proto = COAP_PROTO_NONE;
 439:C:/Users/stapi/OneDrive/Desktop/GD32VW553/V1_MQTT_OK/GD32VW55X_Wifi_BLE_SDK/GD32VW55x_RELEASE_V1.0.2/MSDK/lwip/libcoap-4.3.4/src\coap_address.c ****       break;
 440:C:/Users/stapi/OneDrive/Desktop/GD32VW553/V1_MQTT_OK/GD32VW55X_Wifi_BLE_SDK/GD32VW55x_RELEASE_V1.0.2/MSDK/lwip/libcoap-4.3.4/src\coap_address.c ****     case COAP_URI_SCHEME_COAP_WS:
 441:C:/Users/stapi/OneDrive/Desktop/GD32VW553/V1_MQTT_OK/GD32VW55X_Wifi_BLE_SDK/GD32VW55x_RELEASE_V1.0.2/MSDK/lwip/libcoap-4.3.4/src\coap_address.c ****       if (!coap_ws_is_supported())
 442:C:/Users/stapi/OneDrive/Desktop/GD32VW553/V1_MQTT_OK/GD32VW55X_Wifi_BLE_SDK/GD32VW55x_RELEASE_V1.0.2/MSDK/lwip/libcoap-4.3.4/src\coap_address.c ****         return NULL;
 443:C:/Users/stapi/OneDrive/Desktop/GD32VW553/V1_MQTT_OK/GD32VW55X_Wifi_BLE_SDK/GD32VW55x_RELEASE_V1.0.2/MSDK/lwip/libcoap-4.3.4/src\coap_address.c ****       proto = COAP_PROTO_WS;
 444:C:/Users/stapi/OneDrive/Desktop/GD32VW553/V1_MQTT_OK/GD32VW55X_Wifi_BLE_SDK/GD32VW55x_RELEASE_V1.0.2/MSDK/lwip/libcoap-4.3.4/src\coap_address.c ****       break;
 445:C:/Users/stapi/OneDrive/Desktop/GD32VW553/V1_MQTT_OK/GD32VW55X_Wifi_BLE_SDK/GD32VW55x_RELEASE_V1.0.2/MSDK/lwip/libcoap-4.3.4/src\coap_address.c ****     case COAP_URI_SCHEME_COAPS_WS:
 446:C:/Users/stapi/OneDrive/Desktop/GD32VW553/V1_MQTT_OK/GD32VW55X_Wifi_BLE_SDK/GD32VW55x_RELEASE_V1.0.2/MSDK/lwip/libcoap-4.3.4/src\coap_address.c ****       if (!coap_wss_is_supported())
 447:C:/Users/stapi/OneDrive/Desktop/GD32VW553/V1_MQTT_OK/GD32VW55X_Wifi_BLE_SDK/GD32VW55x_RELEASE_V1.0.2/MSDK/lwip/libcoap-4.3.4/src\coap_address.c ****         return NULL;
 448:C:/Users/stapi/OneDrive/Desktop/GD32VW553/V1_MQTT_OK/GD32VW55X_Wifi_BLE_SDK/GD32VW55x_RELEASE_V1.0.2/MSDK/lwip/libcoap-4.3.4/src\coap_address.c ****       proto = COAP_PROTO_WSS;
 449:C:/Users/stapi/OneDrive/Desktop/GD32VW553/V1_MQTT_OK/GD32VW55X_Wifi_BLE_SDK/GD32VW55x_RELEASE_V1.0.2/MSDK/lwip/libcoap-4.3.4/src\coap_address.c ****       break;
 450:C:/Users/stapi/OneDrive/Desktop/GD32VW553/V1_MQTT_OK/GD32VW55X_Wifi_BLE_SDK/GD32VW55x_RELEASE_V1.0.2/MSDK/lwip/libcoap-4.3.4/src\coap_address.c ****     case COAP_URI_SCHEME_LAST:
 451:C:/Users/stapi/OneDrive/Desktop/GD32VW553/V1_MQTT_OK/GD32VW55X_Wifi_BLE_SDK/GD32VW55x_RELEASE_V1.0.2/MSDK/lwip/libcoap-4.3.4/src\coap_address.c ****     default:
 452:C:/Users/stapi/OneDrive/Desktop/GD32VW553/V1_MQTT_OK/GD32VW55X_Wifi_BLE_SDK/GD32VW55x_RELEASE_V1.0.2/MSDK/lwip/libcoap-4.3.4/src\coap_address.c ****       return NULL;
 453:C:/Users/stapi/OneDrive/Desktop/GD32VW553/V1_MQTT_OK/GD32VW55X_Wifi_BLE_SDK/GD32VW55x_RELEASE_V1.0.2/MSDK/lwip/libcoap-4.3.4/src\coap_address.c ****     }
 454:C:/Users/stapi/OneDrive/Desktop/GD32VW553/V1_MQTT_OK/GD32VW55X_Wifi_BLE_SDK/GD32VW55x_RELEASE_V1.0.2/MSDK/lwip/libcoap-4.3.4/src\coap_address.c ****     info = coap_malloc_type(COAP_STRING, sizeof(coap_addr_info_t));
 455:C:/Users/stapi/OneDrive/Desktop/GD32VW553/V1_MQTT_OK/GD32VW55X_Wifi_BLE_SDK/GD32VW55x_RELEASE_V1.0.2/MSDK/lwip/libcoap-4.3.4/src\coap_address.c ****     if (info == NULL)
 456:C:/Users/stapi/OneDrive/Desktop/GD32VW553/V1_MQTT_OK/GD32VW55X_Wifi_BLE_SDK/GD32VW55x_RELEASE_V1.0.2/MSDK/lwip/libcoap-4.3.4/src\coap_address.c ****       return NULL;
 457:C:/Users/stapi/OneDrive/Desktop/GD32VW553/V1_MQTT_OK/GD32VW55X_Wifi_BLE_SDK/GD32VW55x_RELEASE_V1.0.2/MSDK/lwip/libcoap-4.3.4/src\coap_address.c ****     info->next = NULL;
 458:C:/Users/stapi/OneDrive/Desktop/GD32VW553/V1_MQTT_OK/GD32VW55X_Wifi_BLE_SDK/GD32VW55x_RELEASE_V1.0.2/MSDK/lwip/libcoap-4.3.4/src\coap_address.c ****     info->proto = proto;
 459:C:/Users/stapi/OneDrive/Desktop/GD32VW553/V1_MQTT_OK/GD32VW55X_Wifi_BLE_SDK/GD32VW55x_RELEASE_V1.0.2/MSDK/lwip/libcoap-4.3.4/src\coap_address.c ****     info->scheme = scheme;
 460:C:/Users/stapi/OneDrive/Desktop/GD32VW553/V1_MQTT_OK/GD32VW55X_Wifi_BLE_SDK/GD32VW55x_RELEASE_V1.0.2/MSDK/lwip/libcoap-4.3.4/src\coap_address.c **** 
 461:C:/Users/stapi/OneDrive/Desktop/GD32VW553/V1_MQTT_OK/GD32VW55X_Wifi_BLE_SDK/GD32VW55x_RELEASE_V1.0.2/MSDK/lwip/libcoap-4.3.4/src\coap_address.c ****     coap_address_init(&info->addr);
 462:C:/Users/stapi/OneDrive/Desktop/GD32VW553/V1_MQTT_OK/GD32VW55X_Wifi_BLE_SDK/GD32VW55x_RELEASE_V1.0.2/MSDK/lwip/libcoap-4.3.4/src\coap_address.c ****     if (!coap_address_set_unix_domain(&info->addr, address->s,
 463:C:/Users/stapi/OneDrive/Desktop/GD32VW553/V1_MQTT_OK/GD32VW55X_Wifi_BLE_SDK/GD32VW55x_RELEASE_V1.0.2/MSDK/lwip/libcoap-4.3.4/src\coap_address.c ****                                       address->length)) {
 464:C:/Users/stapi/OneDrive/Desktop/GD32VW553/V1_MQTT_OK/GD32VW55X_Wifi_BLE_SDK/GD32VW55x_RELEASE_V1.0.2/MSDK/lwip/libcoap-4.3.4/src\coap_address.c ****       coap_free_type(COAP_STRING, info);
 465:C:/Users/stapi/OneDrive/Desktop/GD32VW553/V1_MQTT_OK/GD32VW55X_Wifi_BLE_SDK/GD32VW55x_RELEASE_V1.0.2/MSDK/lwip/libcoap-4.3.4/src\coap_address.c ****       return NULL;
 466:C:/Users/stapi/OneDrive/Desktop/GD32VW553/V1_MQTT_OK/GD32VW55X_Wifi_BLE_SDK/GD32VW55x_RELEASE_V1.0.2/MSDK/lwip/libcoap-4.3.4/src\coap_address.c ****     }
 467:C:/Users/stapi/OneDrive/Desktop/GD32VW553/V1_MQTT_OK/GD32VW55X_Wifi_BLE_SDK/GD32VW55x_RELEASE_V1.0.2/MSDK/lwip/libcoap-4.3.4/src\coap_address.c ****     return info;
 468:C:/Users/stapi/OneDrive/Desktop/GD32VW553/V1_MQTT_OK/GD32VW55X_Wifi_BLE_SDK/GD32VW55x_RELEASE_V1.0.2/MSDK/lwip/libcoap-4.3.4/src\coap_address.c ****   }
 469:C:/Users/stapi/OneDrive/Desktop/GD32VW553/V1_MQTT_OK/GD32VW55X_Wifi_BLE_SDK/GD32VW55x_RELEASE_V1.0.2/MSDK/lwip/libcoap-4.3.4/src\coap_address.c **** #endif /* COAP_AF_UNIX_SUPPORT */
 470:C:/Users/stapi/OneDrive/Desktop/GD32VW553/V1_MQTT_OK/GD32VW55X_Wifi_BLE_SDK/GD32VW55x_RELEASE_V1.0.2/MSDK/lwip/libcoap-4.3.4/src\coap_address.c **** 
 471:C:/Users/stapi/OneDrive/Desktop/GD32VW553/V1_MQTT_OK/GD32VW55X_Wifi_BLE_SDK/GD32VW55x_RELEASE_V1.0.2/MSDK/lwip/libcoap-4.3.4/src\coap_address.c ****   memset(addrstr, 0, sizeof(addrstr));
 303              		.loc 1 471 3
 304 0008 B7090000 		lui	s3,%hi(.LANCHOR2)
 381:C:/Users/stapi/OneDrive/Desktop/GD32VW553/V1_MQTT_OK/GD32VW55X_Wifi_BLE_SDK/GD32VW55x_RELEASE_V1.0.2/MSDK/lwip/libcoap-4.3.4/src\coap_address.c **** #if !defined(RIOT_VERSION)
 305              		.loc 1 381 53 is_stmt 0
 306 000c 5D71     		addi	sp,sp,-80
 307              		.cfi_def_cfa_offset 144
 381:C:/Users/stapi/OneDrive/Desktop/GD32VW553/V1_MQTT_OK/GD32VW55X_Wifi_BLE_SDK/GD32VW55x_RELEASE_V1.0.2/MSDK/lwip/libcoap-4.3.4/src\coap_address.c **** #if !defined(RIOT_VERSION)
 308              		.loc 1 381 53
 309 000e 2A8A     		mv	s4,a0
 310 0010 AE84     		mv	s1,a1
 311 0012 3289     		mv	s2,a2
 312              		.loc 1 471 3
 313 0014 8145     		li	a1,0
 314              	.LVL28:
 315 0016 13060010 		li	a2,256
 316              	.LVL29:
 317 001a 13850900 		addi	a0,s3,%lo(.LANCHOR2)
 318              	.LVL30:
 381:C:/Users/stapi/OneDrive/Desktop/GD32VW553/V1_MQTT_OK/GD32VW55X_Wifi_BLE_SDK/GD32VW55x_RELEASE_V1.0.2/MSDK/lwip/libcoap-4.3.4/src\coap_address.c **** #if !defined(RIOT_VERSION)
 319              		.loc 1 381 53
 320 001e 36C4     		sw	a3,8(sp)
 321 0020 3AC6     		sw	a4,12(sp)
 322 0022 BE8A     		mv	s5,a5
 323 0024 42C8     		sw	a6,16(sp)
 324 0026 4684     		mv	s0,a7
 325              		.loc 1 471 3
 326 0028 97000000 		call	memset
 326      E7800000 
 327              	.LVL31:
 472:C:/Users/stapi/OneDrive/Desktop/GD32VW553/V1_MQTT_OK/GD32VW55X_Wifi_BLE_SDK/GD32VW55x_RELEASE_V1.0.2/MSDK/lwip/libcoap-4.3.4/src\coap_address.c ****   if (address && address->length)
 328              		.loc 1 472 3 is_stmt 1
 329              		.loc 1 472 6 is_stmt 0
 330 0030 630A0A06 		beq	s4,zero,.L49
 331              		.loc 1 472 25 discriminator 1
 332 0034 03260A00 		lw	a2,0(s4)
 333              		.loc 1 472 15 discriminator 1
 334 0038 35C6     		beq	a2,zero,.L49
 473:C:/Users/stapi/OneDrive/Desktop/GD32VW553/V1_MQTT_OK/GD32VW55X_Wifi_BLE_SDK/GD32VW55x_RELEASE_V1.0.2/MSDK/lwip/libcoap-4.3.4/src\coap_address.c ****     memcpy(addrstr, address->s, address->length);
 335              		.loc 1 473 5 is_stmt 1
 336 003a 83254A00 		lw	a1,4(s4)
 337              	.L146:
 474:C:/Users/stapi/OneDrive/Desktop/GD32VW553/V1_MQTT_OK/GD32VW55X_Wifi_BLE_SDK/GD32VW55x_RELEASE_V1.0.2/MSDK/lwip/libcoap-4.3.4/src\coap_address.c ****   else
 475:C:/Users/stapi/OneDrive/Desktop/GD32VW553/V1_MQTT_OK/GD32VW55X_Wifi_BLE_SDK/GD32VW55x_RELEASE_V1.0.2/MSDK/lwip/libcoap-4.3.4/src\coap_address.c ****     memcpy(addrstr, "localhost", 9);
 338              		.loc 1 475 5 is_stmt 0
 339 003e 13850900 		addi	a0,s3,%lo(.LANCHOR2)
 340 0042 97000000 		call	memcpy
 340      E7800000 
 341              	.LVL32:
 476:C:/Users/stapi/OneDrive/Desktop/GD32VW553/V1_MQTT_OK/GD32VW55X_Wifi_BLE_SDK/GD32VW55x_RELEASE_V1.0.2/MSDK/lwip/libcoap-4.3.4/src\coap_address.c **** 
 477:C:/Users/stapi/OneDrive/Desktop/GD32VW553/V1_MQTT_OK/GD32VW55X_Wifi_BLE_SDK/GD32VW55x_RELEASE_V1.0.2/MSDK/lwip/libcoap-4.3.4/src\coap_address.c ****   memset((char *)&hints, 0, sizeof(hints));
 342              		.loc 1 477 3 is_stmt 1
 343 004a 7146     		li	a2,28
 344 004c 8145     		li	a1,0
 345 004e 4818     		addi	a0,sp,52
 346 0050 97000000 		call	memset
 346      E7800000 
 347              	.LVL33:
 478:C:/Users/stapi/OneDrive/Desktop/GD32VW553/V1_MQTT_OK/GD32VW55X_Wifi_BLE_SDK/GD32VW55x_RELEASE_V1.0.2/MSDK/lwip/libcoap-4.3.4/src\coap_address.c ****   hints.ai_socktype = 0;
 348              		.loc 1 478 3
 479:C:/Users/stapi/OneDrive/Desktop/GD32VW553/V1_MQTT_OK/GD32VW55X_Wifi_BLE_SDK/GD32VW55x_RELEASE_V1.0.2/MSDK/lwip/libcoap-4.3.4/src\coap_address.c ****   hints.ai_family = AF_UNSPEC;
 349              		.loc 1 479 3
 480:C:/Users/stapi/OneDrive/Desktop/GD32VW553/V1_MQTT_OK/GD32VW55X_Wifi_BLE_SDK/GD32VW55x_RELEASE_V1.0.2/MSDK/lwip/libcoap-4.3.4/src\coap_address.c ****   hints.ai_flags = ai_hints_flags;
 350              		.loc 1 480 3
 481:C:/Users/stapi/OneDrive/Desktop/GD32VW553/V1_MQTT_OK/GD32VW55X_Wifi_BLE_SDK/GD32VW55x_RELEASE_V1.0.2/MSDK/lwip/libcoap-4.3.4/src\coap_address.c **** 
 482:C:/Users/stapi/OneDrive/Desktop/GD32VW553/V1_MQTT_OK/GD32VW55X_Wifi_BLE_SDK/GD32VW55x_RELEASE_V1.0.2/MSDK/lwip/libcoap-4.3.4/src\coap_address.c ****   error = getaddrinfo(addrstr, NULL, &hints, &res);
 351              		.loc 1 482 11 is_stmt 0
 352 0058 7410     		addi	a3,sp,44
 353 005a 1018     		addi	a2,sp,48
 354 005c 8145     		li	a1,0
 355 005e 13850900 		addi	a0,s3,%lo(.LANCHOR2)
 480:C:/Users/stapi/OneDrive/Desktop/GD32VW553/V1_MQTT_OK/GD32VW55X_Wifi_BLE_SDK/GD32VW55x_RELEASE_V1.0.2/MSDK/lwip/libcoap-4.3.4/src\coap_address.c ****   hints.ai_flags = ai_hints_flags;
 356              		.loc 1 480 18
 357 0062 56D8     		sw	s5,48(sp)
 358              		.loc 1 482 3 is_stmt 1
 359              		.loc 1 482 11 is_stmt 0
 360 0064 97000000 		call	lwip_getaddrinfo
 360      E7800000 
 361              	.LVL34:
 483:C:/Users/stapi/OneDrive/Desktop/GD32VW553/V1_MQTT_OK/GD32VW55X_Wifi_BLE_SDK/GD32VW55x_RELEASE_V1.0.2/MSDK/lwip/libcoap-4.3.4/src\coap_address.c **** 
 484:C:/Users/stapi/OneDrive/Desktop/GD32VW553/V1_MQTT_OK/GD32VW55X_Wifi_BLE_SDK/GD32VW55x_RELEASE_V1.0.2/MSDK/lwip/libcoap-4.3.4/src\coap_address.c ****   if (error != 0) {
 362              		.loc 1 484 3 is_stmt 1
 363              		.loc 1 484 6 is_stmt 0
 364 006c 31C1     		beq	a0,zero,.L51
 485:C:/Users/stapi/OneDrive/Desktop/GD32VW553/V1_MQTT_OK/GD32VW55X_Wifi_BLE_SDK/GD32VW55x_RELEASE_V1.0.2/MSDK/lwip/libcoap-4.3.4/src\coap_address.c ****     coap_log_warn("getaddrinfo: %s\n", gai_strerror(error));
 365              		.loc 1 485 5 is_stmt 1
 366              		.loc 1 485 5
 367 006e 97000000 		call	coap_get_log_level
 367      E7800000 
 368              	.LVL35:
 369 0076 8D47     		li	a5,3
 486:C:/Users/stapi/OneDrive/Desktop/GD32VW553/V1_MQTT_OK/GD32VW55X_Wifi_BLE_SDK/GD32VW55x_RELEASE_V1.0.2/MSDK/lwip/libcoap-4.3.4/src\coap_address.c ****     return NULL;
 370              		.loc 1 486 12 is_stmt 0
 371 0078 014B     		li	s6,0
 485:C:/Users/stapi/OneDrive/Desktop/GD32VW553/V1_MQTT_OK/GD32VW55X_Wifi_BLE_SDK/GD32VW55x_RELEASE_V1.0.2/MSDK/lwip/libcoap-4.3.4/src\coap_address.c ****     coap_log_warn("getaddrinfo: %s\n", gai_strerror(error));
 372              		.loc 1 485 5
 373 007a 63DFA700 		ble	a0,a5,.L48
 485:C:/Users/stapi/OneDrive/Desktop/GD32VW553/V1_MQTT_OK/GD32VW55X_Wifi_BLE_SDK/GD32VW55x_RELEASE_V1.0.2/MSDK/lwip/libcoap-4.3.4/src\coap_address.c ****     coap_log_warn("getaddrinfo: %s\n", gai_strerror(error));
 374              		.loc 1 485 5 is_stmt 1 discriminator 1
 375 007e 37060000 		lui	a2,%hi(.LC3)
 376 0082 B7050000 		lui	a1,%hi(.LC4)
 377 0086 13060600 		addi	a2,a2,%lo(.LC3)
 378 008a 93850500 		addi	a1,a1,%lo(.LC4)
 379 008e 1145     		li	a0,4
 380 0090 97000000 		call	coap_log_impl
 380      E7800000 
 381              	.LVL36:
 382              	.L48:
 487:C:/Users/stapi/OneDrive/Desktop/GD32VW553/V1_MQTT_OK/GD32VW55X_Wifi_BLE_SDK/GD32VW55x_RELEASE_V1.0.2/MSDK/lwip/libcoap-4.3.4/src\coap_address.c ****   }
 488:C:/Users/stapi/OneDrive/Desktop/GD32VW553/V1_MQTT_OK/GD32VW55X_Wifi_BLE_SDK/GD32VW55x_RELEASE_V1.0.2/MSDK/lwip/libcoap-4.3.4/src\coap_address.c **** 
 489:C:/Users/stapi/OneDrive/Desktop/GD32VW553/V1_MQTT_OK/GD32VW55X_Wifi_BLE_SDK/GD32VW55x_RELEASE_V1.0.2/MSDK/lwip/libcoap-4.3.4/src\coap_address.c ****   for (ainfo = res; ainfo != NULL; ainfo = ainfo->ai_next) {
 490:C:/Users/stapi/OneDrive/Desktop/GD32VW553/V1_MQTT_OK/GD32VW55X_Wifi_BLE_SDK/GD32VW55x_RELEASE_V1.0.2/MSDK/lwip/libcoap-4.3.4/src\coap_address.c **** #if !defined(WITH_LWIP)
 491:C:/Users/stapi/OneDrive/Desktop/GD32VW553/V1_MQTT_OK/GD32VW55X_Wifi_BLE_SDK/GD32VW55x_RELEASE_V1.0.2/MSDK/lwip/libcoap-4.3.4/src\coap_address.c ****     if (ainfo->ai_addrlen > (socklen_t)sizeof(info->addr.addr))
 492:C:/Users/stapi/OneDrive/Desktop/GD32VW553/V1_MQTT_OK/GD32VW55X_Wifi_BLE_SDK/GD32VW55x_RELEASE_V1.0.2/MSDK/lwip/libcoap-4.3.4/src\coap_address.c ****       continue;
 493:C:/Users/stapi/OneDrive/Desktop/GD32VW553/V1_MQTT_OK/GD32VW55X_Wifi_BLE_SDK/GD32VW55x_RELEASE_V1.0.2/MSDK/lwip/libcoap-4.3.4/src\coap_address.c **** #endif /* ! WITH_LWIP */
 494:C:/Users/stapi/OneDrive/Desktop/GD32VW553/V1_MQTT_OK/GD32VW55X_Wifi_BLE_SDK/GD32VW55x_RELEASE_V1.0.2/MSDK/lwip/libcoap-4.3.4/src\coap_address.c **** 
 495:C:/Users/stapi/OneDrive/Desktop/GD32VW553/V1_MQTT_OK/GD32VW55X_Wifi_BLE_SDK/GD32VW55x_RELEASE_V1.0.2/MSDK/lwip/libcoap-4.3.4/src\coap_address.c ****     switch (ainfo->ai_family) {
 496:C:/Users/stapi/OneDrive/Desktop/GD32VW553/V1_MQTT_OK/GD32VW55X_Wifi_BLE_SDK/GD32VW55x_RELEASE_V1.0.2/MSDK/lwip/libcoap-4.3.4/src\coap_address.c **** #if COAP_IPV4_SUPPORT
 497:C:/Users/stapi/OneDrive/Desktop/GD32VW553/V1_MQTT_OK/GD32VW55X_Wifi_BLE_SDK/GD32VW55x_RELEASE_V1.0.2/MSDK/lwip/libcoap-4.3.4/src\coap_address.c ****     case AF_INET:
 498:C:/Users/stapi/OneDrive/Desktop/GD32VW553/V1_MQTT_OK/GD32VW55X_Wifi_BLE_SDK/GD32VW55x_RELEASE_V1.0.2/MSDK/lwip/libcoap-4.3.4/src\coap_address.c **** #endif /* COAP_IPV4_SUPPORT */
 499:C:/Users/stapi/OneDrive/Desktop/GD32VW553/V1_MQTT_OK/GD32VW55X_Wifi_BLE_SDK/GD32VW55x_RELEASE_V1.0.2/MSDK/lwip/libcoap-4.3.4/src\coap_address.c **** #if COAP_IPV6_SUPPORT
 500:C:/Users/stapi/OneDrive/Desktop/GD32VW553/V1_MQTT_OK/GD32VW55X_Wifi_BLE_SDK/GD32VW55x_RELEASE_V1.0.2/MSDK/lwip/libcoap-4.3.4/src\coap_address.c ****     case AF_INET6:
 501:C:/Users/stapi/OneDrive/Desktop/GD32VW553/V1_MQTT_OK/GD32VW55X_Wifi_BLE_SDK/GD32VW55x_RELEASE_V1.0.2/MSDK/lwip/libcoap-4.3.4/src\coap_address.c **** #endif /* COAP_IPV6_SUPPORT */
 502:C:/Users/stapi/OneDrive/Desktop/GD32VW553/V1_MQTT_OK/GD32VW55X_Wifi_BLE_SDK/GD32VW55x_RELEASE_V1.0.2/MSDK/lwip/libcoap-4.3.4/src\coap_address.c ****       for (scheme = 0; scheme < COAP_URI_SCHEME_LAST; scheme++) {
 503:C:/Users/stapi/OneDrive/Desktop/GD32VW553/V1_MQTT_OK/GD32VW55X_Wifi_BLE_SDK/GD32VW55x_RELEASE_V1.0.2/MSDK/lwip/libcoap-4.3.4/src\coap_address.c ****         if (scheme_hint_bits & (1 << scheme)) {
 504:C:/Users/stapi/OneDrive/Desktop/GD32VW553/V1_MQTT_OK/GD32VW55X_Wifi_BLE_SDK/GD32VW55x_RELEASE_V1.0.2/MSDK/lwip/libcoap-4.3.4/src\coap_address.c ****           switch (scheme) {
 505:C:/Users/stapi/OneDrive/Desktop/GD32VW553/V1_MQTT_OK/GD32VW55X_Wifi_BLE_SDK/GD32VW55x_RELEASE_V1.0.2/MSDK/lwip/libcoap-4.3.4/src\coap_address.c ****           case COAP_URI_SCHEME_COAP:
 506:C:/Users/stapi/OneDrive/Desktop/GD32VW553/V1_MQTT_OK/GD32VW55X_Wifi_BLE_SDK/GD32VW55x_RELEASE_V1.0.2/MSDK/lwip/libcoap-4.3.4/src\coap_address.c ****             proto = COAP_PROTO_UDP;
 507:C:/Users/stapi/OneDrive/Desktop/GD32VW553/V1_MQTT_OK/GD32VW55X_Wifi_BLE_SDK/GD32VW55x_RELEASE_V1.0.2/MSDK/lwip/libcoap-4.3.4/src\coap_address.c ****             break;
 508:C:/Users/stapi/OneDrive/Desktop/GD32VW553/V1_MQTT_OK/GD32VW55X_Wifi_BLE_SDK/GD32VW55x_RELEASE_V1.0.2/MSDK/lwip/libcoap-4.3.4/src\coap_address.c ****           case COAP_URI_SCHEME_COAPS:
 509:C:/Users/stapi/OneDrive/Desktop/GD32VW553/V1_MQTT_OK/GD32VW55X_Wifi_BLE_SDK/GD32VW55x_RELEASE_V1.0.2/MSDK/lwip/libcoap-4.3.4/src\coap_address.c ****             if (!coap_dtls_is_supported())
 510:C:/Users/stapi/OneDrive/Desktop/GD32VW553/V1_MQTT_OK/GD32VW55X_Wifi_BLE_SDK/GD32VW55x_RELEASE_V1.0.2/MSDK/lwip/libcoap-4.3.4/src\coap_address.c ****               continue;
 511:C:/Users/stapi/OneDrive/Desktop/GD32VW553/V1_MQTT_OK/GD32VW55X_Wifi_BLE_SDK/GD32VW55x_RELEASE_V1.0.2/MSDK/lwip/libcoap-4.3.4/src\coap_address.c ****             proto = COAP_PROTO_DTLS;
 512:C:/Users/stapi/OneDrive/Desktop/GD32VW553/V1_MQTT_OK/GD32VW55X_Wifi_BLE_SDK/GD32VW55x_RELEASE_V1.0.2/MSDK/lwip/libcoap-4.3.4/src\coap_address.c ****             break;
 513:C:/Users/stapi/OneDrive/Desktop/GD32VW553/V1_MQTT_OK/GD32VW55X_Wifi_BLE_SDK/GD32VW55x_RELEASE_V1.0.2/MSDK/lwip/libcoap-4.3.4/src\coap_address.c ****           case COAP_URI_SCHEME_COAP_TCP:
 514:C:/Users/stapi/OneDrive/Desktop/GD32VW553/V1_MQTT_OK/GD32VW55X_Wifi_BLE_SDK/GD32VW55x_RELEASE_V1.0.2/MSDK/lwip/libcoap-4.3.4/src\coap_address.c ****             if (!coap_tcp_is_supported())
 515:C:/Users/stapi/OneDrive/Desktop/GD32VW553/V1_MQTT_OK/GD32VW55X_Wifi_BLE_SDK/GD32VW55x_RELEASE_V1.0.2/MSDK/lwip/libcoap-4.3.4/src\coap_address.c ****               continue;
 516:C:/Users/stapi/OneDrive/Desktop/GD32VW553/V1_MQTT_OK/GD32VW55X_Wifi_BLE_SDK/GD32VW55x_RELEASE_V1.0.2/MSDK/lwip/libcoap-4.3.4/src\coap_address.c ****             proto = COAP_PROTO_TCP;
 517:C:/Users/stapi/OneDrive/Desktop/GD32VW553/V1_MQTT_OK/GD32VW55X_Wifi_BLE_SDK/GD32VW55x_RELEASE_V1.0.2/MSDK/lwip/libcoap-4.3.4/src\coap_address.c ****             break;
 518:C:/Users/stapi/OneDrive/Desktop/GD32VW553/V1_MQTT_OK/GD32VW55X_Wifi_BLE_SDK/GD32VW55x_RELEASE_V1.0.2/MSDK/lwip/libcoap-4.3.4/src\coap_address.c ****           case COAP_URI_SCHEME_COAPS_TCP:
 519:C:/Users/stapi/OneDrive/Desktop/GD32VW553/V1_MQTT_OK/GD32VW55X_Wifi_BLE_SDK/GD32VW55x_RELEASE_V1.0.2/MSDK/lwip/libcoap-4.3.4/src\coap_address.c ****             if (!coap_tls_is_supported())
 520:C:/Users/stapi/OneDrive/Desktop/GD32VW553/V1_MQTT_OK/GD32VW55X_Wifi_BLE_SDK/GD32VW55x_RELEASE_V1.0.2/MSDK/lwip/libcoap-4.3.4/src\coap_address.c ****               continue;
 521:C:/Users/stapi/OneDrive/Desktop/GD32VW553/V1_MQTT_OK/GD32VW55X_Wifi_BLE_SDK/GD32VW55x_RELEASE_V1.0.2/MSDK/lwip/libcoap-4.3.4/src\coap_address.c ****             proto = COAP_PROTO_TLS;
 522:C:/Users/stapi/OneDrive/Desktop/GD32VW553/V1_MQTT_OK/GD32VW55X_Wifi_BLE_SDK/GD32VW55x_RELEASE_V1.0.2/MSDK/lwip/libcoap-4.3.4/src\coap_address.c ****             break;
 523:C:/Users/stapi/OneDrive/Desktop/GD32VW553/V1_MQTT_OK/GD32VW55X_Wifi_BLE_SDK/GD32VW55x_RELEASE_V1.0.2/MSDK/lwip/libcoap-4.3.4/src\coap_address.c ****           case COAP_URI_SCHEME_HTTP:
 524:C:/Users/stapi/OneDrive/Desktop/GD32VW553/V1_MQTT_OK/GD32VW55X_Wifi_BLE_SDK/GD32VW55x_RELEASE_V1.0.2/MSDK/lwip/libcoap-4.3.4/src\coap_address.c ****             if (!coap_tcp_is_supported())
 525:C:/Users/stapi/OneDrive/Desktop/GD32VW553/V1_MQTT_OK/GD32VW55X_Wifi_BLE_SDK/GD32VW55x_RELEASE_V1.0.2/MSDK/lwip/libcoap-4.3.4/src\coap_address.c ****               continue;
 526:C:/Users/stapi/OneDrive/Desktop/GD32VW553/V1_MQTT_OK/GD32VW55X_Wifi_BLE_SDK/GD32VW55x_RELEASE_V1.0.2/MSDK/lwip/libcoap-4.3.4/src\coap_address.c ****             proto = COAP_PROTO_NONE;
 527:C:/Users/stapi/OneDrive/Desktop/GD32VW553/V1_MQTT_OK/GD32VW55X_Wifi_BLE_SDK/GD32VW55x_RELEASE_V1.0.2/MSDK/lwip/libcoap-4.3.4/src\coap_address.c ****             break;
 528:C:/Users/stapi/OneDrive/Desktop/GD32VW553/V1_MQTT_OK/GD32VW55X_Wifi_BLE_SDK/GD32VW55x_RELEASE_V1.0.2/MSDK/lwip/libcoap-4.3.4/src\coap_address.c ****           case COAP_URI_SCHEME_HTTPS:
 529:C:/Users/stapi/OneDrive/Desktop/GD32VW553/V1_MQTT_OK/GD32VW55X_Wifi_BLE_SDK/GD32VW55x_RELEASE_V1.0.2/MSDK/lwip/libcoap-4.3.4/src\coap_address.c ****             if (!coap_tls_is_supported())
 530:C:/Users/stapi/OneDrive/Desktop/GD32VW553/V1_MQTT_OK/GD32VW55X_Wifi_BLE_SDK/GD32VW55x_RELEASE_V1.0.2/MSDK/lwip/libcoap-4.3.4/src\coap_address.c ****               continue;
 531:C:/Users/stapi/OneDrive/Desktop/GD32VW553/V1_MQTT_OK/GD32VW55X_Wifi_BLE_SDK/GD32VW55x_RELEASE_V1.0.2/MSDK/lwip/libcoap-4.3.4/src\coap_address.c ****             proto = COAP_PROTO_NONE;
 532:C:/Users/stapi/OneDrive/Desktop/GD32VW553/V1_MQTT_OK/GD32VW55X_Wifi_BLE_SDK/GD32VW55x_RELEASE_V1.0.2/MSDK/lwip/libcoap-4.3.4/src\coap_address.c ****             break;
 533:C:/Users/stapi/OneDrive/Desktop/GD32VW553/V1_MQTT_OK/GD32VW55X_Wifi_BLE_SDK/GD32VW55x_RELEASE_V1.0.2/MSDK/lwip/libcoap-4.3.4/src\coap_address.c ****           case COAP_URI_SCHEME_COAP_WS:
 534:C:/Users/stapi/OneDrive/Desktop/GD32VW553/V1_MQTT_OK/GD32VW55X_Wifi_BLE_SDK/GD32VW55x_RELEASE_V1.0.2/MSDK/lwip/libcoap-4.3.4/src\coap_address.c ****             if (!coap_ws_is_supported())
 535:C:/Users/stapi/OneDrive/Desktop/GD32VW553/V1_MQTT_OK/GD32VW55X_Wifi_BLE_SDK/GD32VW55x_RELEASE_V1.0.2/MSDK/lwip/libcoap-4.3.4/src\coap_address.c ****               continue;
 536:C:/Users/stapi/OneDrive/Desktop/GD32VW553/V1_MQTT_OK/GD32VW55X_Wifi_BLE_SDK/GD32VW55x_RELEASE_V1.0.2/MSDK/lwip/libcoap-4.3.4/src\coap_address.c ****             proto = COAP_PROTO_WS;
 537:C:/Users/stapi/OneDrive/Desktop/GD32VW553/V1_MQTT_OK/GD32VW55X_Wifi_BLE_SDK/GD32VW55x_RELEASE_V1.0.2/MSDK/lwip/libcoap-4.3.4/src\coap_address.c ****             break;
 538:C:/Users/stapi/OneDrive/Desktop/GD32VW553/V1_MQTT_OK/GD32VW55X_Wifi_BLE_SDK/GD32VW55x_RELEASE_V1.0.2/MSDK/lwip/libcoap-4.3.4/src\coap_address.c ****           case COAP_URI_SCHEME_COAPS_WS:
 539:C:/Users/stapi/OneDrive/Desktop/GD32VW553/V1_MQTT_OK/GD32VW55X_Wifi_BLE_SDK/GD32VW55x_RELEASE_V1.0.2/MSDK/lwip/libcoap-4.3.4/src\coap_address.c ****             if (!coap_wss_is_supported())
 540:C:/Users/stapi/OneDrive/Desktop/GD32VW553/V1_MQTT_OK/GD32VW55X_Wifi_BLE_SDK/GD32VW55x_RELEASE_V1.0.2/MSDK/lwip/libcoap-4.3.4/src\coap_address.c ****               continue;
 541:C:/Users/stapi/OneDrive/Desktop/GD32VW553/V1_MQTT_OK/GD32VW55X_Wifi_BLE_SDK/GD32VW55x_RELEASE_V1.0.2/MSDK/lwip/libcoap-4.3.4/src\coap_address.c ****             proto = COAP_PROTO_WSS;
 542:C:/Users/stapi/OneDrive/Desktop/GD32VW553/V1_MQTT_OK/GD32VW55X_Wifi_BLE_SDK/GD32VW55x_RELEASE_V1.0.2/MSDK/lwip/libcoap-4.3.4/src\coap_address.c ****             break;
 543:C:/Users/stapi/OneDrive/Desktop/GD32VW553/V1_MQTT_OK/GD32VW55X_Wifi_BLE_SDK/GD32VW55x_RELEASE_V1.0.2/MSDK/lwip/libcoap-4.3.4/src\coap_address.c ****           case COAP_URI_SCHEME_LAST:
 544:C:/Users/stapi/OneDrive/Desktop/GD32VW553/V1_MQTT_OK/GD32VW55X_Wifi_BLE_SDK/GD32VW55x_RELEASE_V1.0.2/MSDK/lwip/libcoap-4.3.4/src\coap_address.c ****           default:
 545:C:/Users/stapi/OneDrive/Desktop/GD32VW553/V1_MQTT_OK/GD32VW55X_Wifi_BLE_SDK/GD32VW55x_RELEASE_V1.0.2/MSDK/lwip/libcoap-4.3.4/src\coap_address.c ****             continue;
 546:C:/Users/stapi/OneDrive/Desktop/GD32VW553/V1_MQTT_OK/GD32VW55X_Wifi_BLE_SDK/GD32VW55x_RELEASE_V1.0.2/MSDK/lwip/libcoap-4.3.4/src\coap_address.c ****           }
 547:C:/Users/stapi/OneDrive/Desktop/GD32VW553/V1_MQTT_OK/GD32VW55X_Wifi_BLE_SDK/GD32VW55x_RELEASE_V1.0.2/MSDK/lwip/libcoap-4.3.4/src\coap_address.c **** 
 548:C:/Users/stapi/OneDrive/Desktop/GD32VW553/V1_MQTT_OK/GD32VW55X_Wifi_BLE_SDK/GD32VW55x_RELEASE_V1.0.2/MSDK/lwip/libcoap-4.3.4/src\coap_address.c ****           info = coap_malloc_type(COAP_STRING, sizeof(coap_addr_info_t));
 549:C:/Users/stapi/OneDrive/Desktop/GD32VW553/V1_MQTT_OK/GD32VW55X_Wifi_BLE_SDK/GD32VW55x_RELEASE_V1.0.2/MSDK/lwip/libcoap-4.3.4/src\coap_address.c ****           if (info == NULL) {
 550:C:/Users/stapi/OneDrive/Desktop/GD32VW553/V1_MQTT_OK/GD32VW55X_Wifi_BLE_SDK/GD32VW55x_RELEASE_V1.0.2/MSDK/lwip/libcoap-4.3.4/src\coap_address.c ****             freeaddrinfo(res);
 551:C:/Users/stapi/OneDrive/Desktop/GD32VW553/V1_MQTT_OK/GD32VW55X_Wifi_BLE_SDK/GD32VW55x_RELEASE_V1.0.2/MSDK/lwip/libcoap-4.3.4/src\coap_address.c ****             /* malloc failure - return what we have so far */
 552:C:/Users/stapi/OneDrive/Desktop/GD32VW553/V1_MQTT_OK/GD32VW55X_Wifi_BLE_SDK/GD32VW55x_RELEASE_V1.0.2/MSDK/lwip/libcoap-4.3.4/src\coap_address.c ****             return info_list;
 553:C:/Users/stapi/OneDrive/Desktop/GD32VW553/V1_MQTT_OK/GD32VW55X_Wifi_BLE_SDK/GD32VW55x_RELEASE_V1.0.2/MSDK/lwip/libcoap-4.3.4/src\coap_address.c ****           }
 554:C:/Users/stapi/OneDrive/Desktop/GD32VW553/V1_MQTT_OK/GD32VW55X_Wifi_BLE_SDK/GD32VW55x_RELEASE_V1.0.2/MSDK/lwip/libcoap-4.3.4/src\coap_address.c **** 
 555:C:/Users/stapi/OneDrive/Desktop/GD32VW553/V1_MQTT_OK/GD32VW55X_Wifi_BLE_SDK/GD32VW55x_RELEASE_V1.0.2/MSDK/lwip/libcoap-4.3.4/src\coap_address.c ****           info->next = NULL;
 556:C:/Users/stapi/OneDrive/Desktop/GD32VW553/V1_MQTT_OK/GD32VW55X_Wifi_BLE_SDK/GD32VW55x_RELEASE_V1.0.2/MSDK/lwip/libcoap-4.3.4/src\coap_address.c ****           info->scheme = scheme;
 557:C:/Users/stapi/OneDrive/Desktop/GD32VW553/V1_MQTT_OK/GD32VW55X_Wifi_BLE_SDK/GD32VW55x_RELEASE_V1.0.2/MSDK/lwip/libcoap-4.3.4/src\coap_address.c ****           info->proto = proto;
 558:C:/Users/stapi/OneDrive/Desktop/GD32VW553/V1_MQTT_OK/GD32VW55X_Wifi_BLE_SDK/GD32VW55x_RELEASE_V1.0.2/MSDK/lwip/libcoap-4.3.4/src\coap_address.c ****           coap_address_init(&info->addr);
 559:C:/Users/stapi/OneDrive/Desktop/GD32VW553/V1_MQTT_OK/GD32VW55X_Wifi_BLE_SDK/GD32VW55x_RELEASE_V1.0.2/MSDK/lwip/libcoap-4.3.4/src\coap_address.c **** #if !defined(WITH_LWIP)
 560:C:/Users/stapi/OneDrive/Desktop/GD32VW553/V1_MQTT_OK/GD32VW55X_Wifi_BLE_SDK/GD32VW55x_RELEASE_V1.0.2/MSDK/lwip/libcoap-4.3.4/src\coap_address.c ****           info->addr.size = (socklen_t)ainfo->ai_addrlen;
 561:C:/Users/stapi/OneDrive/Desktop/GD32VW553/V1_MQTT_OK/GD32VW55X_Wifi_BLE_SDK/GD32VW55x_RELEASE_V1.0.2/MSDK/lwip/libcoap-4.3.4/src\coap_address.c ****           memcpy(&info->addr.addr, ainfo->ai_addr, ainfo->ai_addrlen);
 562:C:/Users/stapi/OneDrive/Desktop/GD32VW553/V1_MQTT_OK/GD32VW55X_Wifi_BLE_SDK/GD32VW55x_RELEASE_V1.0.2/MSDK/lwip/libcoap-4.3.4/src\coap_address.c **** #else /* WITH_LWIP */
 563:C:/Users/stapi/OneDrive/Desktop/GD32VW553/V1_MQTT_OK/GD32VW55X_Wifi_BLE_SDK/GD32VW55x_RELEASE_V1.0.2/MSDK/lwip/libcoap-4.3.4/src\coap_address.c ****           memset(&info->addr, 0, sizeof(info->addr));
 564:C:/Users/stapi/OneDrive/Desktop/GD32VW553/V1_MQTT_OK/GD32VW55X_Wifi_BLE_SDK/GD32VW55x_RELEASE_V1.0.2/MSDK/lwip/libcoap-4.3.4/src\coap_address.c ****           switch (ainfo->ai_family) {
 565:C:/Users/stapi/OneDrive/Desktop/GD32VW553/V1_MQTT_OK/GD32VW55X_Wifi_BLE_SDK/GD32VW55x_RELEASE_V1.0.2/MSDK/lwip/libcoap-4.3.4/src\coap_address.c **** #if COAP_IPV6_SUPPORT
 566:C:/Users/stapi/OneDrive/Desktop/GD32VW553/V1_MQTT_OK/GD32VW55X_Wifi_BLE_SDK/GD32VW55x_RELEASE_V1.0.2/MSDK/lwip/libcoap-4.3.4/src\coap_address.c ****             struct sockaddr_in6 *sock6;
 567:C:/Users/stapi/OneDrive/Desktop/GD32VW553/V1_MQTT_OK/GD32VW55X_Wifi_BLE_SDK/GD32VW55x_RELEASE_V1.0.2/MSDK/lwip/libcoap-4.3.4/src\coap_address.c **** #endif /* COAP_IPV6_SUPPORT */
 568:C:/Users/stapi/OneDrive/Desktop/GD32VW553/V1_MQTT_OK/GD32VW55X_Wifi_BLE_SDK/GD32VW55x_RELEASE_V1.0.2/MSDK/lwip/libcoap-4.3.4/src\coap_address.c **** #if COAP_IPV4_SUPPORT
 569:C:/Users/stapi/OneDrive/Desktop/GD32VW553/V1_MQTT_OK/GD32VW55X_Wifi_BLE_SDK/GD32VW55x_RELEASE_V1.0.2/MSDK/lwip/libcoap-4.3.4/src\coap_address.c ****             struct sockaddr_in *sock4;
 570:C:/Users/stapi/OneDrive/Desktop/GD32VW553/V1_MQTT_OK/GD32VW55X_Wifi_BLE_SDK/GD32VW55x_RELEASE_V1.0.2/MSDK/lwip/libcoap-4.3.4/src\coap_address.c ****           case AF_INET:
 571:C:/Users/stapi/OneDrive/Desktop/GD32VW553/V1_MQTT_OK/GD32VW55X_Wifi_BLE_SDK/GD32VW55x_RELEASE_V1.0.2/MSDK/lwip/libcoap-4.3.4/src\coap_address.c ****             sock4 = (struct sockaddr_in *)ainfo->ai_addr;
 572:C:/Users/stapi/OneDrive/Desktop/GD32VW553/V1_MQTT_OK/GD32VW55X_Wifi_BLE_SDK/GD32VW55x_RELEASE_V1.0.2/MSDK/lwip/libcoap-4.3.4/src\coap_address.c ****             info->addr.port = ntohs(sock4->sin_port);
 573:C:/Users/stapi/OneDrive/Desktop/GD32VW553/V1_MQTT_OK/GD32VW55X_Wifi_BLE_SDK/GD32VW55x_RELEASE_V1.0.2/MSDK/lwip/libcoap-4.3.4/src\coap_address.c ****             memcpy(&info->addr.addr, &sock4->sin_addr, 4);
 574:C:/Users/stapi/OneDrive/Desktop/GD32VW553/V1_MQTT_OK/GD32VW55X_Wifi_BLE_SDK/GD32VW55x_RELEASE_V1.0.2/MSDK/lwip/libcoap-4.3.4/src\coap_address.c **** #if LWIP_IPV6
 575:C:/Users/stapi/OneDrive/Desktop/GD32VW553/V1_MQTT_OK/GD32VW55X_Wifi_BLE_SDK/GD32VW55x_RELEASE_V1.0.2/MSDK/lwip/libcoap-4.3.4/src\coap_address.c ****             info->addr.addr.type = IPADDR_TYPE_V4;
 576:C:/Users/stapi/OneDrive/Desktop/GD32VW553/V1_MQTT_OK/GD32VW55X_Wifi_BLE_SDK/GD32VW55x_RELEASE_V1.0.2/MSDK/lwip/libcoap-4.3.4/src\coap_address.c **** #endif /* LWIP_IPV6 */
 577:C:/Users/stapi/OneDrive/Desktop/GD32VW553/V1_MQTT_OK/GD32VW55X_Wifi_BLE_SDK/GD32VW55x_RELEASE_V1.0.2/MSDK/lwip/libcoap-4.3.4/src\coap_address.c ****             break;
 578:C:/Users/stapi/OneDrive/Desktop/GD32VW553/V1_MQTT_OK/GD32VW55X_Wifi_BLE_SDK/GD32VW55x_RELEASE_V1.0.2/MSDK/lwip/libcoap-4.3.4/src\coap_address.c **** #endif /* COAP_IPV4_SUPPORT */
 579:C:/Users/stapi/OneDrive/Desktop/GD32VW553/V1_MQTT_OK/GD32VW55X_Wifi_BLE_SDK/GD32VW55x_RELEASE_V1.0.2/MSDK/lwip/libcoap-4.3.4/src\coap_address.c **** #if COAP_IPV6_SUPPORT
 580:C:/Users/stapi/OneDrive/Desktop/GD32VW553/V1_MQTT_OK/GD32VW55X_Wifi_BLE_SDK/GD32VW55x_RELEASE_V1.0.2/MSDK/lwip/libcoap-4.3.4/src\coap_address.c ****           case AF_INET6:
 581:C:/Users/stapi/OneDrive/Desktop/GD32VW553/V1_MQTT_OK/GD32VW55X_Wifi_BLE_SDK/GD32VW55x_RELEASE_V1.0.2/MSDK/lwip/libcoap-4.3.4/src\coap_address.c ****             sock6 = (struct sockaddr_in6 *)ainfo->ai_addr;
 582:C:/Users/stapi/OneDrive/Desktop/GD32VW553/V1_MQTT_OK/GD32VW55X_Wifi_BLE_SDK/GD32VW55x_RELEASE_V1.0.2/MSDK/lwip/libcoap-4.3.4/src\coap_address.c ****             info->addr.port = ntohs(sock6->sin6_port);
 583:C:/Users/stapi/OneDrive/Desktop/GD32VW553/V1_MQTT_OK/GD32VW55X_Wifi_BLE_SDK/GD32VW55x_RELEASE_V1.0.2/MSDK/lwip/libcoap-4.3.4/src\coap_address.c ****             memcpy(&info->addr.addr, &sock6->sin6_addr, 16);
 584:C:/Users/stapi/OneDrive/Desktop/GD32VW553/V1_MQTT_OK/GD32VW55X_Wifi_BLE_SDK/GD32VW55x_RELEASE_V1.0.2/MSDK/lwip/libcoap-4.3.4/src\coap_address.c **** #if LWIP_IPV6 && LWIP_IPV4
 585:C:/Users/stapi/OneDrive/Desktop/GD32VW553/V1_MQTT_OK/GD32VW55X_Wifi_BLE_SDK/GD32VW55x_RELEASE_V1.0.2/MSDK/lwip/libcoap-4.3.4/src\coap_address.c ****             info->addr.addr.type = IPADDR_TYPE_V6;
 586:C:/Users/stapi/OneDrive/Desktop/GD32VW553/V1_MQTT_OK/GD32VW55X_Wifi_BLE_SDK/GD32VW55x_RELEASE_V1.0.2/MSDK/lwip/libcoap-4.3.4/src\coap_address.c **** #endif /* LWIP_IPV6 && LWIP_IPV4 */
 587:C:/Users/stapi/OneDrive/Desktop/GD32VW553/V1_MQTT_OK/GD32VW55X_Wifi_BLE_SDK/GD32VW55x_RELEASE_V1.0.2/MSDK/lwip/libcoap-4.3.4/src\coap_address.c ****             break;
 588:C:/Users/stapi/OneDrive/Desktop/GD32VW553/V1_MQTT_OK/GD32VW55X_Wifi_BLE_SDK/GD32VW55x_RELEASE_V1.0.2/MSDK/lwip/libcoap-4.3.4/src\coap_address.c **** #endif /* COAP_IPV6_SUPPORT */
 589:C:/Users/stapi/OneDrive/Desktop/GD32VW553/V1_MQTT_OK/GD32VW55X_Wifi_BLE_SDK/GD32VW55x_RELEASE_V1.0.2/MSDK/lwip/libcoap-4.3.4/src\coap_address.c ****           default:
 590:C:/Users/stapi/OneDrive/Desktop/GD32VW553/V1_MQTT_OK/GD32VW55X_Wifi_BLE_SDK/GD32VW55x_RELEASE_V1.0.2/MSDK/lwip/libcoap-4.3.4/src\coap_address.c ****             ;
 591:C:/Users/stapi/OneDrive/Desktop/GD32VW553/V1_MQTT_OK/GD32VW55X_Wifi_BLE_SDK/GD32VW55x_RELEASE_V1.0.2/MSDK/lwip/libcoap-4.3.4/src\coap_address.c ****           }
 592:C:/Users/stapi/OneDrive/Desktop/GD32VW553/V1_MQTT_OK/GD32VW55X_Wifi_BLE_SDK/GD32VW55x_RELEASE_V1.0.2/MSDK/lwip/libcoap-4.3.4/src\coap_address.c **** #endif /* WITH_LWIP */
 593:C:/Users/stapi/OneDrive/Desktop/GD32VW553/V1_MQTT_OK/GD32VW55X_Wifi_BLE_SDK/GD32VW55x_RELEASE_V1.0.2/MSDK/lwip/libcoap-4.3.4/src\coap_address.c ****           switch (scheme) {
 594:C:/Users/stapi/OneDrive/Desktop/GD32VW553/V1_MQTT_OK/GD32VW55X_Wifi_BLE_SDK/GD32VW55x_RELEASE_V1.0.2/MSDK/lwip/libcoap-4.3.4/src\coap_address.c ****           case COAP_URI_SCHEME_COAP:
 595:C:/Users/stapi/OneDrive/Desktop/GD32VW553/V1_MQTT_OK/GD32VW55X_Wifi_BLE_SDK/GD32VW55x_RELEASE_V1.0.2/MSDK/lwip/libcoap-4.3.4/src\coap_address.c ****             update_port(&info->addr, port, COAP_DEFAULT_PORT,
 596:C:/Users/stapi/OneDrive/Desktop/GD32VW553/V1_MQTT_OK/GD32VW55X_Wifi_BLE_SDK/GD32VW55x_RELEASE_V1.0.2/MSDK/lwip/libcoap-4.3.4/src\coap_address.c ****                         type == COAP_RESOLVE_TYPE_LOCAL);
 597:C:/Users/stapi/OneDrive/Desktop/GD32VW553/V1_MQTT_OK/GD32VW55X_Wifi_BLE_SDK/GD32VW55x_RELEASE_V1.0.2/MSDK/lwip/libcoap-4.3.4/src\coap_address.c ****             break;
 598:C:/Users/stapi/OneDrive/Desktop/GD32VW553/V1_MQTT_OK/GD32VW55X_Wifi_BLE_SDK/GD32VW55x_RELEASE_V1.0.2/MSDK/lwip/libcoap-4.3.4/src\coap_address.c ****           case COAP_URI_SCHEME_COAPS:
 599:C:/Users/stapi/OneDrive/Desktop/GD32VW553/V1_MQTT_OK/GD32VW55X_Wifi_BLE_SDK/GD32VW55x_RELEASE_V1.0.2/MSDK/lwip/libcoap-4.3.4/src\coap_address.c ****             update_port(&info->addr, secure_port, COAPS_DEFAULT_PORT,
 600:C:/Users/stapi/OneDrive/Desktop/GD32VW553/V1_MQTT_OK/GD32VW55X_Wifi_BLE_SDK/GD32VW55x_RELEASE_V1.0.2/MSDK/lwip/libcoap-4.3.4/src\coap_address.c ****                         type == COAP_RESOLVE_TYPE_LOCAL);
 601:C:/Users/stapi/OneDrive/Desktop/GD32VW553/V1_MQTT_OK/GD32VW55X_Wifi_BLE_SDK/GD32VW55x_RELEASE_V1.0.2/MSDK/lwip/libcoap-4.3.4/src\coap_address.c ****             break;
 602:C:/Users/stapi/OneDrive/Desktop/GD32VW553/V1_MQTT_OK/GD32VW55X_Wifi_BLE_SDK/GD32VW55x_RELEASE_V1.0.2/MSDK/lwip/libcoap-4.3.4/src\coap_address.c ****           case COAP_URI_SCHEME_COAP_TCP:
 603:C:/Users/stapi/OneDrive/Desktop/GD32VW553/V1_MQTT_OK/GD32VW55X_Wifi_BLE_SDK/GD32VW55x_RELEASE_V1.0.2/MSDK/lwip/libcoap-4.3.4/src\coap_address.c ****             update_port(&info->addr, port, COAP_DEFAULT_PORT,
 604:C:/Users/stapi/OneDrive/Desktop/GD32VW553/V1_MQTT_OK/GD32VW55X_Wifi_BLE_SDK/GD32VW55x_RELEASE_V1.0.2/MSDK/lwip/libcoap-4.3.4/src\coap_address.c ****                         type == COAP_RESOLVE_TYPE_LOCAL);
 605:C:/Users/stapi/OneDrive/Desktop/GD32VW553/V1_MQTT_OK/GD32VW55X_Wifi_BLE_SDK/GD32VW55x_RELEASE_V1.0.2/MSDK/lwip/libcoap-4.3.4/src\coap_address.c ****             break;
 606:C:/Users/stapi/OneDrive/Desktop/GD32VW553/V1_MQTT_OK/GD32VW55X_Wifi_BLE_SDK/GD32VW55x_RELEASE_V1.0.2/MSDK/lwip/libcoap-4.3.4/src\coap_address.c ****           case COAP_URI_SCHEME_COAPS_TCP:
 607:C:/Users/stapi/OneDrive/Desktop/GD32VW553/V1_MQTT_OK/GD32VW55X_Wifi_BLE_SDK/GD32VW55x_RELEASE_V1.0.2/MSDK/lwip/libcoap-4.3.4/src\coap_address.c ****             update_port(&info->addr, secure_port, COAPS_DEFAULT_PORT,
 608:C:/Users/stapi/OneDrive/Desktop/GD32VW553/V1_MQTT_OK/GD32VW55X_Wifi_BLE_SDK/GD32VW55x_RELEASE_V1.0.2/MSDK/lwip/libcoap-4.3.4/src\coap_address.c ****                         type == COAP_RESOLVE_TYPE_LOCAL);
 609:C:/Users/stapi/OneDrive/Desktop/GD32VW553/V1_MQTT_OK/GD32VW55X_Wifi_BLE_SDK/GD32VW55x_RELEASE_V1.0.2/MSDK/lwip/libcoap-4.3.4/src\coap_address.c ****             break;
 610:C:/Users/stapi/OneDrive/Desktop/GD32VW553/V1_MQTT_OK/GD32VW55X_Wifi_BLE_SDK/GD32VW55x_RELEASE_V1.0.2/MSDK/lwip/libcoap-4.3.4/src\coap_address.c ****           case COAP_URI_SCHEME_HTTP:
 611:C:/Users/stapi/OneDrive/Desktop/GD32VW553/V1_MQTT_OK/GD32VW55X_Wifi_BLE_SDK/GD32VW55x_RELEASE_V1.0.2/MSDK/lwip/libcoap-4.3.4/src\coap_address.c ****             update_port(&info->addr, port, 80,
 612:C:/Users/stapi/OneDrive/Desktop/GD32VW553/V1_MQTT_OK/GD32VW55X_Wifi_BLE_SDK/GD32VW55x_RELEASE_V1.0.2/MSDK/lwip/libcoap-4.3.4/src\coap_address.c ****                         type == COAP_RESOLVE_TYPE_LOCAL);
 613:C:/Users/stapi/OneDrive/Desktop/GD32VW553/V1_MQTT_OK/GD32VW55X_Wifi_BLE_SDK/GD32VW55x_RELEASE_V1.0.2/MSDK/lwip/libcoap-4.3.4/src\coap_address.c ****             break;
 614:C:/Users/stapi/OneDrive/Desktop/GD32VW553/V1_MQTT_OK/GD32VW55X_Wifi_BLE_SDK/GD32VW55x_RELEASE_V1.0.2/MSDK/lwip/libcoap-4.3.4/src\coap_address.c ****           case COAP_URI_SCHEME_HTTPS:
 615:C:/Users/stapi/OneDrive/Desktop/GD32VW553/V1_MQTT_OK/GD32VW55X_Wifi_BLE_SDK/GD32VW55x_RELEASE_V1.0.2/MSDK/lwip/libcoap-4.3.4/src\coap_address.c ****             update_port(&info->addr, secure_port, 443,
 616:C:/Users/stapi/OneDrive/Desktop/GD32VW553/V1_MQTT_OK/GD32VW55X_Wifi_BLE_SDK/GD32VW55x_RELEASE_V1.0.2/MSDK/lwip/libcoap-4.3.4/src\coap_address.c ****                         type == COAP_RESOLVE_TYPE_LOCAL);
 617:C:/Users/stapi/OneDrive/Desktop/GD32VW553/V1_MQTT_OK/GD32VW55X_Wifi_BLE_SDK/GD32VW55x_RELEASE_V1.0.2/MSDK/lwip/libcoap-4.3.4/src\coap_address.c ****             break;
 618:C:/Users/stapi/OneDrive/Desktop/GD32VW553/V1_MQTT_OK/GD32VW55X_Wifi_BLE_SDK/GD32VW55x_RELEASE_V1.0.2/MSDK/lwip/libcoap-4.3.4/src\coap_address.c ****           case COAP_URI_SCHEME_COAP_WS:
 619:C:/Users/stapi/OneDrive/Desktop/GD32VW553/V1_MQTT_OK/GD32VW55X_Wifi_BLE_SDK/GD32VW55x_RELEASE_V1.0.2/MSDK/lwip/libcoap-4.3.4/src\coap_address.c ****             update_port(&info->addr, ws_port, 80,
 620:C:/Users/stapi/OneDrive/Desktop/GD32VW553/V1_MQTT_OK/GD32VW55X_Wifi_BLE_SDK/GD32VW55x_RELEASE_V1.0.2/MSDK/lwip/libcoap-4.3.4/src\coap_address.c ****                         type == COAP_RESOLVE_TYPE_LOCAL);
 621:C:/Users/stapi/OneDrive/Desktop/GD32VW553/V1_MQTT_OK/GD32VW55X_Wifi_BLE_SDK/GD32VW55x_RELEASE_V1.0.2/MSDK/lwip/libcoap-4.3.4/src\coap_address.c ****             break;
 622:C:/Users/stapi/OneDrive/Desktop/GD32VW553/V1_MQTT_OK/GD32VW55X_Wifi_BLE_SDK/GD32VW55x_RELEASE_V1.0.2/MSDK/lwip/libcoap-4.3.4/src\coap_address.c ****           case COAP_URI_SCHEME_COAPS_WS:
 623:C:/Users/stapi/OneDrive/Desktop/GD32VW553/V1_MQTT_OK/GD32VW55X_Wifi_BLE_SDK/GD32VW55x_RELEASE_V1.0.2/MSDK/lwip/libcoap-4.3.4/src\coap_address.c ****             update_port(&info->addr, ws_secure_port, 443,
 624:C:/Users/stapi/OneDrive/Desktop/GD32VW553/V1_MQTT_OK/GD32VW55X_Wifi_BLE_SDK/GD32VW55x_RELEASE_V1.0.2/MSDK/lwip/libcoap-4.3.4/src\coap_address.c ****                         type == COAP_RESOLVE_TYPE_LOCAL);
 625:C:/Users/stapi/OneDrive/Desktop/GD32VW553/V1_MQTT_OK/GD32VW55X_Wifi_BLE_SDK/GD32VW55x_RELEASE_V1.0.2/MSDK/lwip/libcoap-4.3.4/src\coap_address.c ****             break;
 626:C:/Users/stapi/OneDrive/Desktop/GD32VW553/V1_MQTT_OK/GD32VW55X_Wifi_BLE_SDK/GD32VW55x_RELEASE_V1.0.2/MSDK/lwip/libcoap-4.3.4/src\coap_address.c ****           case COAP_URI_SCHEME_LAST:
 627:C:/Users/stapi/OneDrive/Desktop/GD32VW553/V1_MQTT_OK/GD32VW55X_Wifi_BLE_SDK/GD32VW55x_RELEASE_V1.0.2/MSDK/lwip/libcoap-4.3.4/src\coap_address.c ****           default:
 628:C:/Users/stapi/OneDrive/Desktop/GD32VW553/V1_MQTT_OK/GD32VW55X_Wifi_BLE_SDK/GD32VW55x_RELEASE_V1.0.2/MSDK/lwip/libcoap-4.3.4/src\coap_address.c ****             break;
 629:C:/Users/stapi/OneDrive/Desktop/GD32VW553/V1_MQTT_OK/GD32VW55X_Wifi_BLE_SDK/GD32VW55x_RELEASE_V1.0.2/MSDK/lwip/libcoap-4.3.4/src\coap_address.c ****           }
 630:C:/Users/stapi/OneDrive/Desktop/GD32VW553/V1_MQTT_OK/GD32VW55X_Wifi_BLE_SDK/GD32VW55x_RELEASE_V1.0.2/MSDK/lwip/libcoap-4.3.4/src\coap_address.c **** 
 631:C:/Users/stapi/OneDrive/Desktop/GD32VW553/V1_MQTT_OK/GD32VW55X_Wifi_BLE_SDK/GD32VW55x_RELEASE_V1.0.2/MSDK/lwip/libcoap-4.3.4/src\coap_address.c ****           /* Check there are no duplications */
 632:C:/Users/stapi/OneDrive/Desktop/GD32VW553/V1_MQTT_OK/GD32VW55X_Wifi_BLE_SDK/GD32VW55x_RELEASE_V1.0.2/MSDK/lwip/libcoap-4.3.4/src\coap_address.c ****           info_tmp = info_list;
 633:C:/Users/stapi/OneDrive/Desktop/GD32VW553/V1_MQTT_OK/GD32VW55X_Wifi_BLE_SDK/GD32VW55x_RELEASE_V1.0.2/MSDK/lwip/libcoap-4.3.4/src\coap_address.c ****           while (info_tmp) {
 634:C:/Users/stapi/OneDrive/Desktop/GD32VW553/V1_MQTT_OK/GD32VW55X_Wifi_BLE_SDK/GD32VW55x_RELEASE_V1.0.2/MSDK/lwip/libcoap-4.3.4/src\coap_address.c ****             if (info_tmp->proto == info->proto &&
 635:C:/Users/stapi/OneDrive/Desktop/GD32VW553/V1_MQTT_OK/GD32VW55X_Wifi_BLE_SDK/GD32VW55x_RELEASE_V1.0.2/MSDK/lwip/libcoap-4.3.4/src\coap_address.c ****                 info_tmp->scheme == info->scheme &&
 636:C:/Users/stapi/OneDrive/Desktop/GD32VW553/V1_MQTT_OK/GD32VW55X_Wifi_BLE_SDK/GD32VW55x_RELEASE_V1.0.2/MSDK/lwip/libcoap-4.3.4/src\coap_address.c ****                 coap_address_equals(&info_tmp->addr, &info->addr)) {
 637:C:/Users/stapi/OneDrive/Desktop/GD32VW553/V1_MQTT_OK/GD32VW55X_Wifi_BLE_SDK/GD32VW55x_RELEASE_V1.0.2/MSDK/lwip/libcoap-4.3.4/src\coap_address.c ****               break;
 638:C:/Users/stapi/OneDrive/Desktop/GD32VW553/V1_MQTT_OK/GD32VW55X_Wifi_BLE_SDK/GD32VW55x_RELEASE_V1.0.2/MSDK/lwip/libcoap-4.3.4/src\coap_address.c ****             }
 639:C:/Users/stapi/OneDrive/Desktop/GD32VW553/V1_MQTT_OK/GD32VW55X_Wifi_BLE_SDK/GD32VW55x_RELEASE_V1.0.2/MSDK/lwip/libcoap-4.3.4/src\coap_address.c ****             info_tmp = info_tmp->next;
 640:C:/Users/stapi/OneDrive/Desktop/GD32VW553/V1_MQTT_OK/GD32VW55X_Wifi_BLE_SDK/GD32VW55x_RELEASE_V1.0.2/MSDK/lwip/libcoap-4.3.4/src\coap_address.c ****           }
 641:C:/Users/stapi/OneDrive/Desktop/GD32VW553/V1_MQTT_OK/GD32VW55X_Wifi_BLE_SDK/GD32VW55x_RELEASE_V1.0.2/MSDK/lwip/libcoap-4.3.4/src\coap_address.c **** 
 642:C:/Users/stapi/OneDrive/Desktop/GD32VW553/V1_MQTT_OK/GD32VW55X_Wifi_BLE_SDK/GD32VW55x_RELEASE_V1.0.2/MSDK/lwip/libcoap-4.3.4/src\coap_address.c ****           if (info_tmp) {
 643:C:/Users/stapi/OneDrive/Desktop/GD32VW553/V1_MQTT_OK/GD32VW55X_Wifi_BLE_SDK/GD32VW55x_RELEASE_V1.0.2/MSDK/lwip/libcoap-4.3.4/src\coap_address.c ****             /* Duplicate */
 644:C:/Users/stapi/OneDrive/Desktop/GD32VW553/V1_MQTT_OK/GD32VW55X_Wifi_BLE_SDK/GD32VW55x_RELEASE_V1.0.2/MSDK/lwip/libcoap-4.3.4/src\coap_address.c ****             coap_free_type(COAP_STRING, info);
 645:C:/Users/stapi/OneDrive/Desktop/GD32VW553/V1_MQTT_OK/GD32VW55X_Wifi_BLE_SDK/GD32VW55x_RELEASE_V1.0.2/MSDK/lwip/libcoap-4.3.4/src\coap_address.c ****           } else {
 646:C:/Users/stapi/OneDrive/Desktop/GD32VW553/V1_MQTT_OK/GD32VW55X_Wifi_BLE_SDK/GD32VW55x_RELEASE_V1.0.2/MSDK/lwip/libcoap-4.3.4/src\coap_address.c ****             /* Need to return in same order as getaddrinfo() */
 647:C:/Users/stapi/OneDrive/Desktop/GD32VW553/V1_MQTT_OK/GD32VW55X_Wifi_BLE_SDK/GD32VW55x_RELEASE_V1.0.2/MSDK/lwip/libcoap-4.3.4/src\coap_address.c ****             if (!info_prev) {
 648:C:/Users/stapi/OneDrive/Desktop/GD32VW553/V1_MQTT_OK/GD32VW55X_Wifi_BLE_SDK/GD32VW55x_RELEASE_V1.0.2/MSDK/lwip/libcoap-4.3.4/src\coap_address.c ****               info_list = info;
 649:C:/Users/stapi/OneDrive/Desktop/GD32VW553/V1_MQTT_OK/GD32VW55X_Wifi_BLE_SDK/GD32VW55x_RELEASE_V1.0.2/MSDK/lwip/libcoap-4.3.4/src\coap_address.c ****               info_prev = info;
 650:C:/Users/stapi/OneDrive/Desktop/GD32VW553/V1_MQTT_OK/GD32VW55X_Wifi_BLE_SDK/GD32VW55x_RELEASE_V1.0.2/MSDK/lwip/libcoap-4.3.4/src\coap_address.c ****             } else {
 651:C:/Users/stapi/OneDrive/Desktop/GD32VW553/V1_MQTT_OK/GD32VW55X_Wifi_BLE_SDK/GD32VW55x_RELEASE_V1.0.2/MSDK/lwip/libcoap-4.3.4/src\coap_address.c ****               info_prev->next = info;
 652:C:/Users/stapi/OneDrive/Desktop/GD32VW553/V1_MQTT_OK/GD32VW55X_Wifi_BLE_SDK/GD32VW55x_RELEASE_V1.0.2/MSDK/lwip/libcoap-4.3.4/src\coap_address.c ****               info_prev = info;
 653:C:/Users/stapi/OneDrive/Desktop/GD32VW553/V1_MQTT_OK/GD32VW55X_Wifi_BLE_SDK/GD32VW55x_RELEASE_V1.0.2/MSDK/lwip/libcoap-4.3.4/src\coap_address.c ****             }
 654:C:/Users/stapi/OneDrive/Desktop/GD32VW553/V1_MQTT_OK/GD32VW55X_Wifi_BLE_SDK/GD32VW55x_RELEASE_V1.0.2/MSDK/lwip/libcoap-4.3.4/src\coap_address.c ****           }
 655:C:/Users/stapi/OneDrive/Desktop/GD32VW553/V1_MQTT_OK/GD32VW55X_Wifi_BLE_SDK/GD32VW55x_RELEASE_V1.0.2/MSDK/lwip/libcoap-4.3.4/src\coap_address.c ****         }
 656:C:/Users/stapi/OneDrive/Desktop/GD32VW553/V1_MQTT_OK/GD32VW55X_Wifi_BLE_SDK/GD32VW55x_RELEASE_V1.0.2/MSDK/lwip/libcoap-4.3.4/src\coap_address.c ****       }
 657:C:/Users/stapi/OneDrive/Desktop/GD32VW553/V1_MQTT_OK/GD32VW55X_Wifi_BLE_SDK/GD32VW55x_RELEASE_V1.0.2/MSDK/lwip/libcoap-4.3.4/src\coap_address.c ****       break;
 658:C:/Users/stapi/OneDrive/Desktop/GD32VW553/V1_MQTT_OK/GD32VW55X_Wifi_BLE_SDK/GD32VW55x_RELEASE_V1.0.2/MSDK/lwip/libcoap-4.3.4/src\coap_address.c ****     default:
 659:C:/Users/stapi/OneDrive/Desktop/GD32VW553/V1_MQTT_OK/GD32VW55X_Wifi_BLE_SDK/GD32VW55x_RELEASE_V1.0.2/MSDK/lwip/libcoap-4.3.4/src\coap_address.c ****       break;
 660:C:/Users/stapi/OneDrive/Desktop/GD32VW553/V1_MQTT_OK/GD32VW55X_Wifi_BLE_SDK/GD32VW55x_RELEASE_V1.0.2/MSDK/lwip/libcoap-4.3.4/src\coap_address.c ****     }
 661:C:/Users/stapi/OneDrive/Desktop/GD32VW553/V1_MQTT_OK/GD32VW55X_Wifi_BLE_SDK/GD32VW55x_RELEASE_V1.0.2/MSDK/lwip/libcoap-4.3.4/src\coap_address.c ****   }
 662:C:/Users/stapi/OneDrive/Desktop/GD32VW553/V1_MQTT_OK/GD32VW55X_Wifi_BLE_SDK/GD32VW55x_RELEASE_V1.0.2/MSDK/lwip/libcoap-4.3.4/src\coap_address.c **** 
 663:C:/Users/stapi/OneDrive/Desktop/GD32VW553/V1_MQTT_OK/GD32VW55X_Wifi_BLE_SDK/GD32VW55x_RELEASE_V1.0.2/MSDK/lwip/libcoap-4.3.4/src\coap_address.c ****   freeaddrinfo(res);
 664:C:/Users/stapi/OneDrive/Desktop/GD32VW553/V1_MQTT_OK/GD32VW55X_Wifi_BLE_SDK/GD32VW55x_RELEASE_V1.0.2/MSDK/lwip/libcoap-4.3.4/src\coap_address.c ****   return info_list;
 665:C:/Users/stapi/OneDrive/Desktop/GD32VW553/V1_MQTT_OK/GD32VW55X_Wifi_BLE_SDK/GD32VW55x_RELEASE_V1.0.2/MSDK/lwip/libcoap-4.3.4/src\coap_address.c **** #else /* RIOT_VERSION */
 666:C:/Users/stapi/OneDrive/Desktop/GD32VW553/V1_MQTT_OK/GD32VW55X_Wifi_BLE_SDK/GD32VW55x_RELEASE_V1.0.2/MSDK/lwip/libcoap-4.3.4/src\coap_address.c **** #if COAP_IPV6_SUPPORT
 667:C:/Users/stapi/OneDrive/Desktop/GD32VW553/V1_MQTT_OK/GD32VW55X_Wifi_BLE_SDK/GD32VW55x_RELEASE_V1.0.2/MSDK/lwip/libcoap-4.3.4/src\coap_address.c **** #include "net/utils.h"
 668:C:/Users/stapi/OneDrive/Desktop/GD32VW553/V1_MQTT_OK/GD32VW55X_Wifi_BLE_SDK/GD32VW55x_RELEASE_V1.0.2/MSDK/lwip/libcoap-4.3.4/src\coap_address.c ****   ipv6_addr_t addr_ipv6;
 669:C:/Users/stapi/OneDrive/Desktop/GD32VW553/V1_MQTT_OK/GD32VW55X_Wifi_BLE_SDK/GD32VW55x_RELEASE_V1.0.2/MSDK/lwip/libcoap-4.3.4/src\coap_address.c ****   netif_t *netif = NULL;
 670:C:/Users/stapi/OneDrive/Desktop/GD32VW553/V1_MQTT_OK/GD32VW55X_Wifi_BLE_SDK/GD32VW55x_RELEASE_V1.0.2/MSDK/lwip/libcoap-4.3.4/src\coap_address.c ****   coap_addr_info_t *info = NULL;
 671:C:/Users/stapi/OneDrive/Desktop/GD32VW553/V1_MQTT_OK/GD32VW55X_Wifi_BLE_SDK/GD32VW55x_RELEASE_V1.0.2/MSDK/lwip/libcoap-4.3.4/src\coap_address.c ****   coap_addr_info_t *info_prev = NULL;
 672:C:/Users/stapi/OneDrive/Desktop/GD32VW553/V1_MQTT_OK/GD32VW55X_Wifi_BLE_SDK/GD32VW55x_RELEASE_V1.0.2/MSDK/lwip/libcoap-4.3.4/src\coap_address.c ****   coap_addr_info_t *info_list = NULL;
 673:C:/Users/stapi/OneDrive/Desktop/GD32VW553/V1_MQTT_OK/GD32VW55X_Wifi_BLE_SDK/GD32VW55x_RELEASE_V1.0.2/MSDK/lwip/libcoap-4.3.4/src\coap_address.c ****   coap_uri_scheme_t scheme;
 674:C:/Users/stapi/OneDrive/Desktop/GD32VW553/V1_MQTT_OK/GD32VW55X_Wifi_BLE_SDK/GD32VW55x_RELEASE_V1.0.2/MSDK/lwip/libcoap-4.3.4/src\coap_address.c ****   coap_proto_t proto = 0;
 675:C:/Users/stapi/OneDrive/Desktop/GD32VW553/V1_MQTT_OK/GD32VW55X_Wifi_BLE_SDK/GD32VW55x_RELEASE_V1.0.2/MSDK/lwip/libcoap-4.3.4/src\coap_address.c ****   (void)ai_hints_flags;
 676:C:/Users/stapi/OneDrive/Desktop/GD32VW553/V1_MQTT_OK/GD32VW55X_Wifi_BLE_SDK/GD32VW55x_RELEASE_V1.0.2/MSDK/lwip/libcoap-4.3.4/src\coap_address.c **** 
 677:C:/Users/stapi/OneDrive/Desktop/GD32VW553/V1_MQTT_OK/GD32VW55X_Wifi_BLE_SDK/GD32VW55x_RELEASE_V1.0.2/MSDK/lwip/libcoap-4.3.4/src\coap_address.c ****   if (netutils_get_ipv6(&addr_ipv6, &netif, (const char *)address->s) >= 0) {
 678:C:/Users/stapi/OneDrive/Desktop/GD32VW553/V1_MQTT_OK/GD32VW55X_Wifi_BLE_SDK/GD32VW55x_RELEASE_V1.0.2/MSDK/lwip/libcoap-4.3.4/src\coap_address.c ****     for (scheme = 0; scheme < COAP_URI_SCHEME_LAST; scheme++) {
 679:C:/Users/stapi/OneDrive/Desktop/GD32VW553/V1_MQTT_OK/GD32VW55X_Wifi_BLE_SDK/GD32VW55x_RELEASE_V1.0.2/MSDK/lwip/libcoap-4.3.4/src\coap_address.c ****       if (scheme_hint_bits & (1 << scheme)) {
 680:C:/Users/stapi/OneDrive/Desktop/GD32VW553/V1_MQTT_OK/GD32VW55X_Wifi_BLE_SDK/GD32VW55x_RELEASE_V1.0.2/MSDK/lwip/libcoap-4.3.4/src\coap_address.c ****         switch (scheme) {
 681:C:/Users/stapi/OneDrive/Desktop/GD32VW553/V1_MQTT_OK/GD32VW55X_Wifi_BLE_SDK/GD32VW55x_RELEASE_V1.0.2/MSDK/lwip/libcoap-4.3.4/src\coap_address.c ****         case COAP_URI_SCHEME_COAP:
 682:C:/Users/stapi/OneDrive/Desktop/GD32VW553/V1_MQTT_OK/GD32VW55X_Wifi_BLE_SDK/GD32VW55x_RELEASE_V1.0.2/MSDK/lwip/libcoap-4.3.4/src\coap_address.c ****           proto = COAP_PROTO_UDP;
 683:C:/Users/stapi/OneDrive/Desktop/GD32VW553/V1_MQTT_OK/GD32VW55X_Wifi_BLE_SDK/GD32VW55x_RELEASE_V1.0.2/MSDK/lwip/libcoap-4.3.4/src\coap_address.c ****           break;
 684:C:/Users/stapi/OneDrive/Desktop/GD32VW553/V1_MQTT_OK/GD32VW55X_Wifi_BLE_SDK/GD32VW55x_RELEASE_V1.0.2/MSDK/lwip/libcoap-4.3.4/src\coap_address.c ****         case COAP_URI_SCHEME_COAPS:
 685:C:/Users/stapi/OneDrive/Desktop/GD32VW553/V1_MQTT_OK/GD32VW55X_Wifi_BLE_SDK/GD32VW55x_RELEASE_V1.0.2/MSDK/lwip/libcoap-4.3.4/src\coap_address.c ****           if (!coap_dtls_is_supported())
 686:C:/Users/stapi/OneDrive/Desktop/GD32VW553/V1_MQTT_OK/GD32VW55X_Wifi_BLE_SDK/GD32VW55x_RELEASE_V1.0.2/MSDK/lwip/libcoap-4.3.4/src\coap_address.c ****             continue;
 687:C:/Users/stapi/OneDrive/Desktop/GD32VW553/V1_MQTT_OK/GD32VW55X_Wifi_BLE_SDK/GD32VW55x_RELEASE_V1.0.2/MSDK/lwip/libcoap-4.3.4/src\coap_address.c ****           proto = COAP_PROTO_DTLS;
 688:C:/Users/stapi/OneDrive/Desktop/GD32VW553/V1_MQTT_OK/GD32VW55X_Wifi_BLE_SDK/GD32VW55x_RELEASE_V1.0.2/MSDK/lwip/libcoap-4.3.4/src\coap_address.c ****           break;
 689:C:/Users/stapi/OneDrive/Desktop/GD32VW553/V1_MQTT_OK/GD32VW55X_Wifi_BLE_SDK/GD32VW55x_RELEASE_V1.0.2/MSDK/lwip/libcoap-4.3.4/src\coap_address.c ****         case COAP_URI_SCHEME_COAP_TCP:
 690:C:/Users/stapi/OneDrive/Desktop/GD32VW553/V1_MQTT_OK/GD32VW55X_Wifi_BLE_SDK/GD32VW55x_RELEASE_V1.0.2/MSDK/lwip/libcoap-4.3.4/src\coap_address.c ****           if (!coap_tcp_is_supported())
 691:C:/Users/stapi/OneDrive/Desktop/GD32VW553/V1_MQTT_OK/GD32VW55X_Wifi_BLE_SDK/GD32VW55x_RELEASE_V1.0.2/MSDK/lwip/libcoap-4.3.4/src\coap_address.c ****             continue;
 692:C:/Users/stapi/OneDrive/Desktop/GD32VW553/V1_MQTT_OK/GD32VW55X_Wifi_BLE_SDK/GD32VW55x_RELEASE_V1.0.2/MSDK/lwip/libcoap-4.3.4/src\coap_address.c ****           proto = COAP_PROTO_TCP;
 693:C:/Users/stapi/OneDrive/Desktop/GD32VW553/V1_MQTT_OK/GD32VW55X_Wifi_BLE_SDK/GD32VW55x_RELEASE_V1.0.2/MSDK/lwip/libcoap-4.3.4/src\coap_address.c ****           break;
 694:C:/Users/stapi/OneDrive/Desktop/GD32VW553/V1_MQTT_OK/GD32VW55X_Wifi_BLE_SDK/GD32VW55x_RELEASE_V1.0.2/MSDK/lwip/libcoap-4.3.4/src\coap_address.c ****         case COAP_URI_SCHEME_COAPS_TCP:
 695:C:/Users/stapi/OneDrive/Desktop/GD32VW553/V1_MQTT_OK/GD32VW55X_Wifi_BLE_SDK/GD32VW55x_RELEASE_V1.0.2/MSDK/lwip/libcoap-4.3.4/src\coap_address.c ****           if (!coap_tls_is_supported())
 696:C:/Users/stapi/OneDrive/Desktop/GD32VW553/V1_MQTT_OK/GD32VW55X_Wifi_BLE_SDK/GD32VW55x_RELEASE_V1.0.2/MSDK/lwip/libcoap-4.3.4/src\coap_address.c ****             continue;
 697:C:/Users/stapi/OneDrive/Desktop/GD32VW553/V1_MQTT_OK/GD32VW55X_Wifi_BLE_SDK/GD32VW55x_RELEASE_V1.0.2/MSDK/lwip/libcoap-4.3.4/src\coap_address.c ****           proto = COAP_PROTO_TLS;
 698:C:/Users/stapi/OneDrive/Desktop/GD32VW553/V1_MQTT_OK/GD32VW55X_Wifi_BLE_SDK/GD32VW55x_RELEASE_V1.0.2/MSDK/lwip/libcoap-4.3.4/src\coap_address.c ****           break;
 699:C:/Users/stapi/OneDrive/Desktop/GD32VW553/V1_MQTT_OK/GD32VW55X_Wifi_BLE_SDK/GD32VW55x_RELEASE_V1.0.2/MSDK/lwip/libcoap-4.3.4/src\coap_address.c ****         case COAP_URI_SCHEME_HTTP:
 700:C:/Users/stapi/OneDrive/Desktop/GD32VW553/V1_MQTT_OK/GD32VW55X_Wifi_BLE_SDK/GD32VW55x_RELEASE_V1.0.2/MSDK/lwip/libcoap-4.3.4/src\coap_address.c ****           if (!coap_tcp_is_supported())
 701:C:/Users/stapi/OneDrive/Desktop/GD32VW553/V1_MQTT_OK/GD32VW55X_Wifi_BLE_SDK/GD32VW55x_RELEASE_V1.0.2/MSDK/lwip/libcoap-4.3.4/src\coap_address.c ****             continue;
 702:C:/Users/stapi/OneDrive/Desktop/GD32VW553/V1_MQTT_OK/GD32VW55X_Wifi_BLE_SDK/GD32VW55x_RELEASE_V1.0.2/MSDK/lwip/libcoap-4.3.4/src\coap_address.c ****           proto = COAP_PROTO_NONE;
 703:C:/Users/stapi/OneDrive/Desktop/GD32VW553/V1_MQTT_OK/GD32VW55X_Wifi_BLE_SDK/GD32VW55x_RELEASE_V1.0.2/MSDK/lwip/libcoap-4.3.4/src\coap_address.c ****           break;
 704:C:/Users/stapi/OneDrive/Desktop/GD32VW553/V1_MQTT_OK/GD32VW55X_Wifi_BLE_SDK/GD32VW55x_RELEASE_V1.0.2/MSDK/lwip/libcoap-4.3.4/src\coap_address.c ****         case COAP_URI_SCHEME_HTTPS:
 705:C:/Users/stapi/OneDrive/Desktop/GD32VW553/V1_MQTT_OK/GD32VW55X_Wifi_BLE_SDK/GD32VW55x_RELEASE_V1.0.2/MSDK/lwip/libcoap-4.3.4/src\coap_address.c ****           if (!coap_tls_is_supported())
 706:C:/Users/stapi/OneDrive/Desktop/GD32VW553/V1_MQTT_OK/GD32VW55X_Wifi_BLE_SDK/GD32VW55x_RELEASE_V1.0.2/MSDK/lwip/libcoap-4.3.4/src\coap_address.c ****             continue;
 707:C:/Users/stapi/OneDrive/Desktop/GD32VW553/V1_MQTT_OK/GD32VW55X_Wifi_BLE_SDK/GD32VW55x_RELEASE_V1.0.2/MSDK/lwip/libcoap-4.3.4/src\coap_address.c ****           proto = COAP_PROTO_NONE;
 708:C:/Users/stapi/OneDrive/Desktop/GD32VW553/V1_MQTT_OK/GD32VW55X_Wifi_BLE_SDK/GD32VW55x_RELEASE_V1.0.2/MSDK/lwip/libcoap-4.3.4/src\coap_address.c ****           break;
 709:C:/Users/stapi/OneDrive/Desktop/GD32VW553/V1_MQTT_OK/GD32VW55X_Wifi_BLE_SDK/GD32VW55x_RELEASE_V1.0.2/MSDK/lwip/libcoap-4.3.4/src\coap_address.c ****         case COAP_URI_SCHEME_COAP_WS:
 710:C:/Users/stapi/OneDrive/Desktop/GD32VW553/V1_MQTT_OK/GD32VW55X_Wifi_BLE_SDK/GD32VW55x_RELEASE_V1.0.2/MSDK/lwip/libcoap-4.3.4/src\coap_address.c ****           if (!coap_ws_is_supported())
 711:C:/Users/stapi/OneDrive/Desktop/GD32VW553/V1_MQTT_OK/GD32VW55X_Wifi_BLE_SDK/GD32VW55x_RELEASE_V1.0.2/MSDK/lwip/libcoap-4.3.4/src\coap_address.c ****             continue;
 712:C:/Users/stapi/OneDrive/Desktop/GD32VW553/V1_MQTT_OK/GD32VW55X_Wifi_BLE_SDK/GD32VW55x_RELEASE_V1.0.2/MSDK/lwip/libcoap-4.3.4/src\coap_address.c ****           proto = COAP_PROTO_WS;
 713:C:/Users/stapi/OneDrive/Desktop/GD32VW553/V1_MQTT_OK/GD32VW55X_Wifi_BLE_SDK/GD32VW55x_RELEASE_V1.0.2/MSDK/lwip/libcoap-4.3.4/src\coap_address.c ****           break;
 714:C:/Users/stapi/OneDrive/Desktop/GD32VW553/V1_MQTT_OK/GD32VW55X_Wifi_BLE_SDK/GD32VW55x_RELEASE_V1.0.2/MSDK/lwip/libcoap-4.3.4/src\coap_address.c ****         case COAP_URI_SCHEME_COAPS_WS:
 715:C:/Users/stapi/OneDrive/Desktop/GD32VW553/V1_MQTT_OK/GD32VW55X_Wifi_BLE_SDK/GD32VW55x_RELEASE_V1.0.2/MSDK/lwip/libcoap-4.3.4/src\coap_address.c ****           if (!coap_wss_is_supported())
 716:C:/Users/stapi/OneDrive/Desktop/GD32VW553/V1_MQTT_OK/GD32VW55X_Wifi_BLE_SDK/GD32VW55x_RELEASE_V1.0.2/MSDK/lwip/libcoap-4.3.4/src\coap_address.c ****             continue;
 717:C:/Users/stapi/OneDrive/Desktop/GD32VW553/V1_MQTT_OK/GD32VW55X_Wifi_BLE_SDK/GD32VW55x_RELEASE_V1.0.2/MSDK/lwip/libcoap-4.3.4/src\coap_address.c ****           proto = COAP_PROTO_WSS;
 718:C:/Users/stapi/OneDrive/Desktop/GD32VW553/V1_MQTT_OK/GD32VW55X_Wifi_BLE_SDK/GD32VW55x_RELEASE_V1.0.2/MSDK/lwip/libcoap-4.3.4/src\coap_address.c ****           break;
 719:C:/Users/stapi/OneDrive/Desktop/GD32VW553/V1_MQTT_OK/GD32VW55X_Wifi_BLE_SDK/GD32VW55x_RELEASE_V1.0.2/MSDK/lwip/libcoap-4.3.4/src\coap_address.c ****         case COAP_URI_SCHEME_LAST:
 720:C:/Users/stapi/OneDrive/Desktop/GD32VW553/V1_MQTT_OK/GD32VW55X_Wifi_BLE_SDK/GD32VW55x_RELEASE_V1.0.2/MSDK/lwip/libcoap-4.3.4/src\coap_address.c ****         default:
 721:C:/Users/stapi/OneDrive/Desktop/GD32VW553/V1_MQTT_OK/GD32VW55X_Wifi_BLE_SDK/GD32VW55x_RELEASE_V1.0.2/MSDK/lwip/libcoap-4.3.4/src\coap_address.c ****           continue;
 722:C:/Users/stapi/OneDrive/Desktop/GD32VW553/V1_MQTT_OK/GD32VW55X_Wifi_BLE_SDK/GD32VW55x_RELEASE_V1.0.2/MSDK/lwip/libcoap-4.3.4/src\coap_address.c ****         }
 723:C:/Users/stapi/OneDrive/Desktop/GD32VW553/V1_MQTT_OK/GD32VW55X_Wifi_BLE_SDK/GD32VW55x_RELEASE_V1.0.2/MSDK/lwip/libcoap-4.3.4/src\coap_address.c **** 
 724:C:/Users/stapi/OneDrive/Desktop/GD32VW553/V1_MQTT_OK/GD32VW55X_Wifi_BLE_SDK/GD32VW55x_RELEASE_V1.0.2/MSDK/lwip/libcoap-4.3.4/src\coap_address.c ****         info = coap_malloc_type(COAP_STRING, sizeof(coap_addr_info_t));
 725:C:/Users/stapi/OneDrive/Desktop/GD32VW553/V1_MQTT_OK/GD32VW55X_Wifi_BLE_SDK/GD32VW55x_RELEASE_V1.0.2/MSDK/lwip/libcoap-4.3.4/src\coap_address.c ****         if (info == NULL) {
 726:C:/Users/stapi/OneDrive/Desktop/GD32VW553/V1_MQTT_OK/GD32VW55X_Wifi_BLE_SDK/GD32VW55x_RELEASE_V1.0.2/MSDK/lwip/libcoap-4.3.4/src\coap_address.c ****           /* malloc failure - return what we have so far */
 727:C:/Users/stapi/OneDrive/Desktop/GD32VW553/V1_MQTT_OK/GD32VW55X_Wifi_BLE_SDK/GD32VW55x_RELEASE_V1.0.2/MSDK/lwip/libcoap-4.3.4/src\coap_address.c ****           return info_list;
 728:C:/Users/stapi/OneDrive/Desktop/GD32VW553/V1_MQTT_OK/GD32VW55X_Wifi_BLE_SDK/GD32VW55x_RELEASE_V1.0.2/MSDK/lwip/libcoap-4.3.4/src\coap_address.c ****         }
 729:C:/Users/stapi/OneDrive/Desktop/GD32VW553/V1_MQTT_OK/GD32VW55X_Wifi_BLE_SDK/GD32VW55x_RELEASE_V1.0.2/MSDK/lwip/libcoap-4.3.4/src\coap_address.c ****         info->next = NULL;
 730:C:/Users/stapi/OneDrive/Desktop/GD32VW553/V1_MQTT_OK/GD32VW55X_Wifi_BLE_SDK/GD32VW55x_RELEASE_V1.0.2/MSDK/lwip/libcoap-4.3.4/src\coap_address.c ****         /* Need to return in same order as getaddrinfo() */
 731:C:/Users/stapi/OneDrive/Desktop/GD32VW553/V1_MQTT_OK/GD32VW55X_Wifi_BLE_SDK/GD32VW55x_RELEASE_V1.0.2/MSDK/lwip/libcoap-4.3.4/src\coap_address.c ****         if (!info_prev) {
 732:C:/Users/stapi/OneDrive/Desktop/GD32VW553/V1_MQTT_OK/GD32VW55X_Wifi_BLE_SDK/GD32VW55x_RELEASE_V1.0.2/MSDK/lwip/libcoap-4.3.4/src\coap_address.c ****           info_list = info;
 733:C:/Users/stapi/OneDrive/Desktop/GD32VW553/V1_MQTT_OK/GD32VW55X_Wifi_BLE_SDK/GD32VW55x_RELEASE_V1.0.2/MSDK/lwip/libcoap-4.3.4/src\coap_address.c ****           info_prev = info;
 734:C:/Users/stapi/OneDrive/Desktop/GD32VW553/V1_MQTT_OK/GD32VW55X_Wifi_BLE_SDK/GD32VW55x_RELEASE_V1.0.2/MSDK/lwip/libcoap-4.3.4/src\coap_address.c ****         } else {
 735:C:/Users/stapi/OneDrive/Desktop/GD32VW553/V1_MQTT_OK/GD32VW55X_Wifi_BLE_SDK/GD32VW55x_RELEASE_V1.0.2/MSDK/lwip/libcoap-4.3.4/src\coap_address.c ****           info_prev->next = info;
 736:C:/Users/stapi/OneDrive/Desktop/GD32VW553/V1_MQTT_OK/GD32VW55X_Wifi_BLE_SDK/GD32VW55x_RELEASE_V1.0.2/MSDK/lwip/libcoap-4.3.4/src\coap_address.c ****           info_prev = info;
 737:C:/Users/stapi/OneDrive/Desktop/GD32VW553/V1_MQTT_OK/GD32VW55X_Wifi_BLE_SDK/GD32VW55x_RELEASE_V1.0.2/MSDK/lwip/libcoap-4.3.4/src\coap_address.c ****         }
 738:C:/Users/stapi/OneDrive/Desktop/GD32VW553/V1_MQTT_OK/GD32VW55X_Wifi_BLE_SDK/GD32VW55x_RELEASE_V1.0.2/MSDK/lwip/libcoap-4.3.4/src\coap_address.c **** 
 739:C:/Users/stapi/OneDrive/Desktop/GD32VW553/V1_MQTT_OK/GD32VW55X_Wifi_BLE_SDK/GD32VW55x_RELEASE_V1.0.2/MSDK/lwip/libcoap-4.3.4/src\coap_address.c ****         info->scheme = scheme;
 740:C:/Users/stapi/OneDrive/Desktop/GD32VW553/V1_MQTT_OK/GD32VW55X_Wifi_BLE_SDK/GD32VW55x_RELEASE_V1.0.2/MSDK/lwip/libcoap-4.3.4/src\coap_address.c ****         info->proto = proto;
 741:C:/Users/stapi/OneDrive/Desktop/GD32VW553/V1_MQTT_OK/GD32VW55X_Wifi_BLE_SDK/GD32VW55x_RELEASE_V1.0.2/MSDK/lwip/libcoap-4.3.4/src\coap_address.c ****         coap_address_init(&info->addr);
 742:C:/Users/stapi/OneDrive/Desktop/GD32VW553/V1_MQTT_OK/GD32VW55X_Wifi_BLE_SDK/GD32VW55x_RELEASE_V1.0.2/MSDK/lwip/libcoap-4.3.4/src\coap_address.c ****         info->addr.size = sizeof(struct sockaddr_in6);
 743:C:/Users/stapi/OneDrive/Desktop/GD32VW553/V1_MQTT_OK/GD32VW55X_Wifi_BLE_SDK/GD32VW55x_RELEASE_V1.0.2/MSDK/lwip/libcoap-4.3.4/src\coap_address.c ****         info->addr.addr.sin6.sin6_family = AF_INET6;
 744:C:/Users/stapi/OneDrive/Desktop/GD32VW553/V1_MQTT_OK/GD32VW55X_Wifi_BLE_SDK/GD32VW55x_RELEASE_V1.0.2/MSDK/lwip/libcoap-4.3.4/src\coap_address.c ****         memcpy(&info->addr.addr.sin6.sin6_addr, &addr_ipv6,
 745:C:/Users/stapi/OneDrive/Desktop/GD32VW553/V1_MQTT_OK/GD32VW55X_Wifi_BLE_SDK/GD32VW55x_RELEASE_V1.0.2/MSDK/lwip/libcoap-4.3.4/src\coap_address.c ****                sizeof(info->addr.addr.sin6.sin6_addr));
 746:C:/Users/stapi/OneDrive/Desktop/GD32VW553/V1_MQTT_OK/GD32VW55X_Wifi_BLE_SDK/GD32VW55x_RELEASE_V1.0.2/MSDK/lwip/libcoap-4.3.4/src\coap_address.c ****         info->addr.addr.sin6.sin6_scope_id = (uint32_t)netif_get_id(netif);
 747:C:/Users/stapi/OneDrive/Desktop/GD32VW553/V1_MQTT_OK/GD32VW55X_Wifi_BLE_SDK/GD32VW55x_RELEASE_V1.0.2/MSDK/lwip/libcoap-4.3.4/src\coap_address.c ****         switch (scheme) {
 748:C:/Users/stapi/OneDrive/Desktop/GD32VW553/V1_MQTT_OK/GD32VW55X_Wifi_BLE_SDK/GD32VW55x_RELEASE_V1.0.2/MSDK/lwip/libcoap-4.3.4/src\coap_address.c ****         case COAP_URI_SCHEME_COAP:
 749:C:/Users/stapi/OneDrive/Desktop/GD32VW553/V1_MQTT_OK/GD32VW55X_Wifi_BLE_SDK/GD32VW55x_RELEASE_V1.0.2/MSDK/lwip/libcoap-4.3.4/src\coap_address.c ****           update_port(&info->addr, port, COAP_DEFAULT_PORT,
 750:C:/Users/stapi/OneDrive/Desktop/GD32VW553/V1_MQTT_OK/GD32VW55X_Wifi_BLE_SDK/GD32VW55x_RELEASE_V1.0.2/MSDK/lwip/libcoap-4.3.4/src\coap_address.c ****                       type == COAP_RESOLVE_TYPE_LOCAL);
 751:C:/Users/stapi/OneDrive/Desktop/GD32VW553/V1_MQTT_OK/GD32VW55X_Wifi_BLE_SDK/GD32VW55x_RELEASE_V1.0.2/MSDK/lwip/libcoap-4.3.4/src\coap_address.c ****           break;
 752:C:/Users/stapi/OneDrive/Desktop/GD32VW553/V1_MQTT_OK/GD32VW55X_Wifi_BLE_SDK/GD32VW55x_RELEASE_V1.0.2/MSDK/lwip/libcoap-4.3.4/src\coap_address.c ****         case COAP_URI_SCHEME_COAPS:
 753:C:/Users/stapi/OneDrive/Desktop/GD32VW553/V1_MQTT_OK/GD32VW55X_Wifi_BLE_SDK/GD32VW55x_RELEASE_V1.0.2/MSDK/lwip/libcoap-4.3.4/src\coap_address.c ****           update_port(&info->addr, secure_port, COAPS_DEFAULT_PORT,
 754:C:/Users/stapi/OneDrive/Desktop/GD32VW553/V1_MQTT_OK/GD32VW55X_Wifi_BLE_SDK/GD32VW55x_RELEASE_V1.0.2/MSDK/lwip/libcoap-4.3.4/src\coap_address.c ****                       type == COAP_RESOLVE_TYPE_LOCAL);
 755:C:/Users/stapi/OneDrive/Desktop/GD32VW553/V1_MQTT_OK/GD32VW55X_Wifi_BLE_SDK/GD32VW55x_RELEASE_V1.0.2/MSDK/lwip/libcoap-4.3.4/src\coap_address.c ****           break;
 756:C:/Users/stapi/OneDrive/Desktop/GD32VW553/V1_MQTT_OK/GD32VW55X_Wifi_BLE_SDK/GD32VW55x_RELEASE_V1.0.2/MSDK/lwip/libcoap-4.3.4/src\coap_address.c ****         case COAP_URI_SCHEME_COAP_TCP:
 757:C:/Users/stapi/OneDrive/Desktop/GD32VW553/V1_MQTT_OK/GD32VW55X_Wifi_BLE_SDK/GD32VW55x_RELEASE_V1.0.2/MSDK/lwip/libcoap-4.3.4/src\coap_address.c ****           update_port(&info->addr, port, COAP_DEFAULT_PORT,
 758:C:/Users/stapi/OneDrive/Desktop/GD32VW553/V1_MQTT_OK/GD32VW55X_Wifi_BLE_SDK/GD32VW55x_RELEASE_V1.0.2/MSDK/lwip/libcoap-4.3.4/src\coap_address.c ****                       type == COAP_RESOLVE_TYPE_LOCAL);
 759:C:/Users/stapi/OneDrive/Desktop/GD32VW553/V1_MQTT_OK/GD32VW55X_Wifi_BLE_SDK/GD32VW55x_RELEASE_V1.0.2/MSDK/lwip/libcoap-4.3.4/src\coap_address.c ****           break;
 760:C:/Users/stapi/OneDrive/Desktop/GD32VW553/V1_MQTT_OK/GD32VW55X_Wifi_BLE_SDK/GD32VW55x_RELEASE_V1.0.2/MSDK/lwip/libcoap-4.3.4/src\coap_address.c ****         case COAP_URI_SCHEME_COAPS_TCP:
 761:C:/Users/stapi/OneDrive/Desktop/GD32VW553/V1_MQTT_OK/GD32VW55X_Wifi_BLE_SDK/GD32VW55x_RELEASE_V1.0.2/MSDK/lwip/libcoap-4.3.4/src\coap_address.c ****           update_port(&info->addr, secure_port, COAPS_DEFAULT_PORT,
 762:C:/Users/stapi/OneDrive/Desktop/GD32VW553/V1_MQTT_OK/GD32VW55X_Wifi_BLE_SDK/GD32VW55x_RELEASE_V1.0.2/MSDK/lwip/libcoap-4.3.4/src\coap_address.c ****                       type == COAP_RESOLVE_TYPE_LOCAL);
 763:C:/Users/stapi/OneDrive/Desktop/GD32VW553/V1_MQTT_OK/GD32VW55X_Wifi_BLE_SDK/GD32VW55x_RELEASE_V1.0.2/MSDK/lwip/libcoap-4.3.4/src\coap_address.c ****           break;
 764:C:/Users/stapi/OneDrive/Desktop/GD32VW553/V1_MQTT_OK/GD32VW55X_Wifi_BLE_SDK/GD32VW55x_RELEASE_V1.0.2/MSDK/lwip/libcoap-4.3.4/src\coap_address.c ****         case COAP_URI_SCHEME_HTTP:
 765:C:/Users/stapi/OneDrive/Desktop/GD32VW553/V1_MQTT_OK/GD32VW55X_Wifi_BLE_SDK/GD32VW55x_RELEASE_V1.0.2/MSDK/lwip/libcoap-4.3.4/src\coap_address.c ****           update_port(&info->addr, port, ws_port,
 766:C:/Users/stapi/OneDrive/Desktop/GD32VW553/V1_MQTT_OK/GD32VW55X_Wifi_BLE_SDK/GD32VW55x_RELEASE_V1.0.2/MSDK/lwip/libcoap-4.3.4/src\coap_address.c ****                       type == COAP_RESOLVE_TYPE_LOCAL);
 767:C:/Users/stapi/OneDrive/Desktop/GD32VW553/V1_MQTT_OK/GD32VW55X_Wifi_BLE_SDK/GD32VW55x_RELEASE_V1.0.2/MSDK/lwip/libcoap-4.3.4/src\coap_address.c ****           break;
 768:C:/Users/stapi/OneDrive/Desktop/GD32VW553/V1_MQTT_OK/GD32VW55X_Wifi_BLE_SDK/GD32VW55x_RELEASE_V1.0.2/MSDK/lwip/libcoap-4.3.4/src\coap_address.c ****         case COAP_URI_SCHEME_HTTPS:
 769:C:/Users/stapi/OneDrive/Desktop/GD32VW553/V1_MQTT_OK/GD32VW55X_Wifi_BLE_SDK/GD32VW55x_RELEASE_V1.0.2/MSDK/lwip/libcoap-4.3.4/src\coap_address.c ****           update_port(&info->addr, secure_port, ws_secure_port,
 770:C:/Users/stapi/OneDrive/Desktop/GD32VW553/V1_MQTT_OK/GD32VW55X_Wifi_BLE_SDK/GD32VW55x_RELEASE_V1.0.2/MSDK/lwip/libcoap-4.3.4/src\coap_address.c ****                       type == COAP_RESOLVE_TYPE_LOCAL);
 771:C:/Users/stapi/OneDrive/Desktop/GD32VW553/V1_MQTT_OK/GD32VW55X_Wifi_BLE_SDK/GD32VW55x_RELEASE_V1.0.2/MSDK/lwip/libcoap-4.3.4/src\coap_address.c ****           break;
 772:C:/Users/stapi/OneDrive/Desktop/GD32VW553/V1_MQTT_OK/GD32VW55X_Wifi_BLE_SDK/GD32VW55x_RELEASE_V1.0.2/MSDK/lwip/libcoap-4.3.4/src\coap_address.c ****         case COAP_URI_SCHEME_LAST:
 773:C:/Users/stapi/OneDrive/Desktop/GD32VW553/V1_MQTT_OK/GD32VW55X_Wifi_BLE_SDK/GD32VW55x_RELEASE_V1.0.2/MSDK/lwip/libcoap-4.3.4/src\coap_address.c ****         default:
 774:C:/Users/stapi/OneDrive/Desktop/GD32VW553/V1_MQTT_OK/GD32VW55X_Wifi_BLE_SDK/GD32VW55x_RELEASE_V1.0.2/MSDK/lwip/libcoap-4.3.4/src\coap_address.c ****           break;
 775:C:/Users/stapi/OneDrive/Desktop/GD32VW553/V1_MQTT_OK/GD32VW55X_Wifi_BLE_SDK/GD32VW55x_RELEASE_V1.0.2/MSDK/lwip/libcoap-4.3.4/src\coap_address.c ****         }
 776:C:/Users/stapi/OneDrive/Desktop/GD32VW553/V1_MQTT_OK/GD32VW55X_Wifi_BLE_SDK/GD32VW55x_RELEASE_V1.0.2/MSDK/lwip/libcoap-4.3.4/src\coap_address.c ****       }
 777:C:/Users/stapi/OneDrive/Desktop/GD32VW553/V1_MQTT_OK/GD32VW55X_Wifi_BLE_SDK/GD32VW55x_RELEASE_V1.0.2/MSDK/lwip/libcoap-4.3.4/src\coap_address.c ****     }
 778:C:/Users/stapi/OneDrive/Desktop/GD32VW553/V1_MQTT_OK/GD32VW55X_Wifi_BLE_SDK/GD32VW55x_RELEASE_V1.0.2/MSDK/lwip/libcoap-4.3.4/src\coap_address.c ****     return info_list;
 779:C:/Users/stapi/OneDrive/Desktop/GD32VW553/V1_MQTT_OK/GD32VW55X_Wifi_BLE_SDK/GD32VW55x_RELEASE_V1.0.2/MSDK/lwip/libcoap-4.3.4/src\coap_address.c ****   }
 780:C:/Users/stapi/OneDrive/Desktop/GD32VW553/V1_MQTT_OK/GD32VW55X_Wifi_BLE_SDK/GD32VW55x_RELEASE_V1.0.2/MSDK/lwip/libcoap-4.3.4/src\coap_address.c **** #endif /* COAP_IPV6_SUPPORT */
 781:C:/Users/stapi/OneDrive/Desktop/GD32VW553/V1_MQTT_OK/GD32VW55X_Wifi_BLE_SDK/GD32VW55x_RELEASE_V1.0.2/MSDK/lwip/libcoap-4.3.4/src\coap_address.c ****   return NULL;
 782:C:/Users/stapi/OneDrive/Desktop/GD32VW553/V1_MQTT_OK/GD32VW55X_Wifi_BLE_SDK/GD32VW55x_RELEASE_V1.0.2/MSDK/lwip/libcoap-4.3.4/src\coap_address.c **** #endif /* RIOT_VERSION */
 783:C:/Users/stapi/OneDrive/Desktop/GD32VW553/V1_MQTT_OK/GD32VW55X_Wifi_BLE_SDK/GD32VW55x_RELEASE_V1.0.2/MSDK/lwip/libcoap-4.3.4/src\coap_address.c **** }
 383              		.loc 1 783 1 is_stmt 0
 384 0098 5A85     		mv	a0,s6
 385 009a 6161     		addi	sp,sp,80
 386              		.cfi_remember_state
 387              		.cfi_def_cfa_offset 0
 388              	.LVL37:
 389 009c 17030000 		tail	__riscv_restore_12
 389      67000300 
 390              		.cfi_restore 27
 391              		.cfi_restore 26
 392              		.cfi_restore 25
 393              		.cfi_restore 24
 394              		.cfi_restore 23
 395              		.cfi_restore 22
 396              		.cfi_restore 21
 397              		.cfi_restore 20
 398              		.cfi_restore 19
 399              		.cfi_restore 18
 400              		.cfi_restore 9
 401              		.cfi_restore 8
 402              		.cfi_restore 1
 403              		.cfi_def_cfa_offset -64
 404              	.LVL38:
 405              	.L49:
 406              		.cfi_restore_state
 475:C:/Users/stapi/OneDrive/Desktop/GD32VW553/V1_MQTT_OK/GD32VW55X_Wifi_BLE_SDK/GD32VW55x_RELEASE_V1.0.2/MSDK/lwip/libcoap-4.3.4/src\coap_address.c **** 
 407              		.loc 1 475 5 is_stmt 1
 408 00a4 B7050000 		lui	a1,%hi(.LC2)
 409 00a8 2546     		li	a2,9
 410 00aa 93850500 		addi	a1,a1,%lo(.LC2)
 411 00ae 41BF     		j	.L146
 412              	.LVL39:
 413              	.L51:
 489:C:/Users/stapi/OneDrive/Desktop/GD32VW553/V1_MQTT_OK/GD32VW55X_Wifi_BLE_SDK/GD32VW55x_RELEASE_V1.0.2/MSDK/lwip/libcoap-4.3.4/src\coap_address.c **** #if !defined(WITH_LWIP)
 414              		.loc 1 489 3
 415 00b0 B7070000 		lui	a5,%hi(.L70)
 416 00b4 93870700 		addi	a5,a5,%lo(.L70)
 417 00b8 3ECA     		sw	a5,20(sp)
 489:C:/Users/stapi/OneDrive/Desktop/GD32VW553/V1_MQTT_OK/GD32VW55X_Wifi_BLE_SDK/GD32VW55x_RELEASE_V1.0.2/MSDK/lwip/libcoap-4.3.4/src\coap_address.c **** #if !defined(WITH_LWIP)
 418              		.loc 1 489 14 is_stmt 0
 419 00ba B259     		lw	s3,44(sp)
 420              	.LVL40:
 421 00bc B7070000 		lui	a5,%hi(.L58)
 422              	.LBB76:
 423              	.LBB77:
 291:C:/Users/stapi/OneDrive/Desktop/GD32VW553/V1_MQTT_OK/GD32VW55X_Wifi_BLE_SDK/GD32VW55x_RELEASE_V1.0.2/MSDK/lwip/libcoap-4.3.4/src\coap_address.c **** 
 424              		.loc 1 291 10
 425 00c0 056D     		li	s10,4096
 426 00c2 93870700 		addi	a5,a5,%lo(.L58)
 427              	.LBE77:
 428              	.LBE76:
 390:C:/Users/stapi/OneDrive/Desktop/GD32VW553/V1_MQTT_OK/GD32VW55X_Wifi_BLE_SDK/GD32VW55x_RELEASE_V1.0.2/MSDK/lwip/libcoap-4.3.4/src\coap_address.c ****   coap_addr_info_t *info_tmp;
 429              		.loc 1 390 21
 430 00c6 014B     		li	s6,0
 389:C:/Users/stapi/OneDrive/Desktop/GD32VW553/V1_MQTT_OK/GD32VW55X_Wifi_BLE_SDK/GD32VW55x_RELEASE_V1.0.2/MSDK/lwip/libcoap-4.3.4/src\coap_address.c ****   coap_addr_info_t *info_list = NULL;
 431              		.loc 1 389 21
 432 00c8 814B     		li	s7,0
 433              	.LBB79:
 434              	.LBB78:
 291:C:/Users/stapi/OneDrive/Desktop/GD32VW553/V1_MQTT_OK/GD32VW55X_Wifi_BLE_SDK/GD32VW55x_RELEASE_V1.0.2/MSDK/lwip/libcoap-4.3.4/src\coap_address.c **** 
 435              		.loc 1 291 10
 436 00ca 930D3D63 		addi	s11,s10,1587
 437 00ce 3ECC     		sw	a5,24(sp)
 438              	.LVL41:
 439              	.L53:
 440              	.LBE78:
 441              	.LBE79:
 489:C:/Users/stapi/OneDrive/Desktop/GD32VW553/V1_MQTT_OK/GD32VW55X_Wifi_BLE_SDK/GD32VW55x_RELEASE_V1.0.2/MSDK/lwip/libcoap-4.3.4/src\coap_address.c **** #if !defined(WITH_LWIP)
 442              		.loc 1 489 21 is_stmt 1 discriminator 1
 489:C:/Users/stapi/OneDrive/Desktop/GD32VW553/V1_MQTT_OK/GD32VW55X_Wifi_BLE_SDK/GD32VW55x_RELEASE_V1.0.2/MSDK/lwip/libcoap-4.3.4/src\coap_address.c **** #if !defined(WITH_LWIP)
 443              		.loc 1 489 3 is_stmt 0 discriminator 1
 444 00d0 63850906 		beq	s3,zero,.L149
 495:C:/Users/stapi/OneDrive/Desktop/GD32VW553/V1_MQTT_OK/GD32VW55X_Wifi_BLE_SDK/GD32VW55x_RELEASE_V1.0.2/MSDK/lwip/libcoap-4.3.4/src\coap_address.c **** #if COAP_IPV4_SUPPORT
 445              		.loc 1 495 5 is_stmt 1
 446 00d4 03A74900 		lw	a4,4(s3)
 447 00d8 8947     		li	a5,2
 448 00da 631DF702 		bne	a4,a5,.L54
 502:C:/Users/stapi/OneDrive/Desktop/GD32VW553/V1_MQTT_OK/GD32VW55X_Wifi_BLE_SDK/GD32VW55x_RELEASE_V1.0.2/MSDK/lwip/libcoap-4.3.4/src\coap_address.c ****         if (scheme_hint_bits & (1 << scheme)) {
 449              		.loc 1 502 19 is_stmt 0
 450 00de 014A     		li	s4,0
 451              	.LBB80:
 452              	.LBB81:
 291:C:/Users/stapi/OneDrive/Desktop/GD32VW553/V1_MQTT_OK/GD32VW55X_Wifi_BLE_SDK/GD32VW55x_RELEASE_V1.0.2/MSDK/lwip/libcoap-4.3.4/src\coap_address.c **** 
 453              		.loc 1 291 10
 454 00e0 930C4D63 		addi	s9,s10,1588
 455              	.L90:
 456              	.LVL42:
 457              	.LBE81:
 458              	.LBE80:
 503:C:/Users/stapi/OneDrive/Desktop/GD32VW553/V1_MQTT_OK/GD32VW55X_Wifi_BLE_SDK/GD32VW55x_RELEASE_V1.0.2/MSDK/lwip/libcoap-4.3.4/src\coap_address.c ****           switch (scheme) {
 459              		.loc 1 503 9 is_stmt 1
 503:C:/Users/stapi/OneDrive/Desktop/GD32VW553/V1_MQTT_OK/GD32VW55X_Wifi_BLE_SDK/GD32VW55x_RELEASE_V1.0.2/MSDK/lwip/libcoap-4.3.4/src\coap_address.c ****           switch (scheme) {
 460              		.loc 1 503 13 is_stmt 0
 461 00e4 C247     		lw	a5,16(sp)
 462 00e6 B3D74749 		bext	a5,a5,s4
 503:C:/Users/stapi/OneDrive/Desktop/GD32VW553/V1_MQTT_OK/GD32VW55X_Wifi_BLE_SDK/GD32VW55x_RELEASE_V1.0.2/MSDK/lwip/libcoap-4.3.4/src\coap_address.c ****           switch (scheme) {
 463              		.loc 1 503 12
 464 00ea 8DC3     		beq	a5,zero,.L55
 504:C:/Users/stapi/OneDrive/Desktop/GD32VW553/V1_MQTT_OK/GD32VW55X_Wifi_BLE_SDK/GD32VW55x_RELEASE_V1.0.2/MSDK/lwip/libcoap-4.3.4/src\coap_address.c ****           case COAP_URI_SCHEME_COAP:
 465              		.loc 1 504 11 is_stmt 1
 466 00ec 930AFAFF 		addi	s5,s4,-1
 467 00f0 9947     		li	a5,6
 468 00f2 63EB5709 		bgtu	s5,a5,.L94
 469 00f6 E247     		lw	a5,24(sp)
 470 00f8 B3C7FA20 		sh2add	a5,s5,a5
 471 00fc 9C43     		lw	a5,0(a5)
 472 00fe 8287     		jr	a5
 473              		.section	.rodata.coap_resolve_address_info,"a",@progbits
 474              		.align	2
 475              		.align	2
 476              	.L58:
 477 0000 00000000 		.word	.L64
 478 0004 00000000 		.word	.L63
 479 0008 00000000 		.word	.L62
 480 000c 00000000 		.word	.L61
 481 0010 00000000 		.word	.L60
 482 0014 00000000 		.word	.L59
 483 0018 00000000 		.word	.L57
 484              		.section	.text.coap_resolve_address_info
 485              	.L64:
 509:C:/Users/stapi/OneDrive/Desktop/GD32VW553/V1_MQTT_OK/GD32VW55X_Wifi_BLE_SDK/GD32VW55x_RELEASE_V1.0.2/MSDK/lwip/libcoap-4.3.4/src\coap_address.c ****               continue;
 486              		.loc 1 509 13
 509:C:/Users/stapi/OneDrive/Desktop/GD32VW553/V1_MQTT_OK/GD32VW55X_Wifi_BLE_SDK/GD32VW55x_RELEASE_V1.0.2/MSDK/lwip/libcoap-4.3.4/src\coap_address.c ****               continue;
 487              		.loc 1 509 18 is_stmt 0
 488 0100 97000000 		call	coap_dtls_is_supported
 488      E7800000 
 489              	.LVL43:
 511:C:/Users/stapi/OneDrive/Desktop/GD32VW553/V1_MQTT_OK/GD32VW55X_Wifi_BLE_SDK/GD32VW55x_RELEASE_V1.0.2/MSDK/lwip/libcoap-4.3.4/src\coap_address.c ****             break;
 490              		.loc 1 511 19
 491 0108 0947     		li	a4,2
 509:C:/Users/stapi/OneDrive/Desktop/GD32VW553/V1_MQTT_OK/GD32VW55X_Wifi_BLE_SDK/GD32VW55x_RELEASE_V1.0.2/MSDK/lwip/libcoap-4.3.4/src\coap_address.c ****               continue;
 492              		.loc 1 509 16
 493 010a 11ED     		bne	a0,zero,.L56
 494              	.LVL44:
 495              	.L55:
 502:C:/Users/stapi/OneDrive/Desktop/GD32VW553/V1_MQTT_OK/GD32VW55X_Wifi_BLE_SDK/GD32VW55x_RELEASE_V1.0.2/MSDK/lwip/libcoap-4.3.4/src\coap_address.c ****         if (scheme_hint_bits & (1 << scheme)) {
 496              		.loc 1 502 55 is_stmt 1 discriminator 2
 502:C:/Users/stapi/OneDrive/Desktop/GD32VW553/V1_MQTT_OK/GD32VW55X_Wifi_BLE_SDK/GD32VW55x_RELEASE_V1.0.2/MSDK/lwip/libcoap-4.3.4/src\coap_address.c ****         if (scheme_hint_bits & (1 << scheme)) {
 497              		.loc 1 502 61 is_stmt 0 discriminator 2
 498 010c 050A     		addi	s4,s4,1
 499              	.LVL45:
 502:C:/Users/stapi/OneDrive/Desktop/GD32VW553/V1_MQTT_OK/GD32VW55X_Wifi_BLE_SDK/GD32VW55x_RELEASE_V1.0.2/MSDK/lwip/libcoap-4.3.4/src\coap_address.c ****         if (scheme_hint_bits & (1 << scheme)) {
 500              		.loc 1 502 24 is_stmt 1 discriminator 2
 502:C:/Users/stapi/OneDrive/Desktop/GD32VW553/V1_MQTT_OK/GD32VW55X_Wifi_BLE_SDK/GD32VW55x_RELEASE_V1.0.2/MSDK/lwip/libcoap-4.3.4/src\coap_address.c ****         if (scheme_hint_bits & (1 << scheme)) {
 501              		.loc 1 502 7 is_stmt 0 discriminator 2
 502 010e A147     		li	a5,8
 503 0110 E31AFAFC 		bne	s4,a5,.L90
 504              	.LVL46:
 505              	.L54:
 489:C:/Users/stapi/OneDrive/Desktop/GD32VW553/V1_MQTT_OK/GD32VW55X_Wifi_BLE_SDK/GD32VW55x_RELEASE_V1.0.2/MSDK/lwip/libcoap-4.3.4/src\coap_address.c **** #if !defined(WITH_LWIP)
 506              		.loc 1 489 36 is_stmt 1 discriminator 2
 489:C:/Users/stapi/OneDrive/Desktop/GD32VW553/V1_MQTT_OK/GD32VW55X_Wifi_BLE_SDK/GD32VW55x_RELEASE_V1.0.2/MSDK/lwip/libcoap-4.3.4/src\coap_address.c **** #if !defined(WITH_LWIP)
 507              		.loc 1 489 42 is_stmt 0 discriminator 2
 508 0114 83A9C901 		lw	s3,28(s3)
 509              	.LVL47:
 510 0118 65BF     		j	.L53
 511              	.LVL48:
 512              	.L63:
 514:C:/Users/stapi/OneDrive/Desktop/GD32VW553/V1_MQTT_OK/GD32VW55X_Wifi_BLE_SDK/GD32VW55x_RELEASE_V1.0.2/MSDK/lwip/libcoap-4.3.4/src\coap_address.c ****               continue;
 513              		.loc 1 514 13 is_stmt 1
 514:C:/Users/stapi/OneDrive/Desktop/GD32VW553/V1_MQTT_OK/GD32VW55X_Wifi_BLE_SDK/GD32VW55x_RELEASE_V1.0.2/MSDK/lwip/libcoap-4.3.4/src\coap_address.c ****               continue;
 514              		.loc 1 514 18 is_stmt 0
 515 011a 97000000 		call	coap_tcp_is_supported
 515      E7800000 
 516              	.LVL49:
 516:C:/Users/stapi/OneDrive/Desktop/GD32VW553/V1_MQTT_OK/GD32VW55X_Wifi_BLE_SDK/GD32VW55x_RELEASE_V1.0.2/MSDK/lwip/libcoap-4.3.4/src\coap_address.c ****             break;
 517              		.loc 1 516 19
 518 0122 0D47     		li	a4,3
 514:C:/Users/stapi/OneDrive/Desktop/GD32VW553/V1_MQTT_OK/GD32VW55X_Wifi_BLE_SDK/GD32VW55x_RELEASE_V1.0.2/MSDK/lwip/libcoap-4.3.4/src\coap_address.c ****               continue;
 519              		.loc 1 514 16
 520 0124 65D5     		beq	a0,zero,.L55
 521              	.L56:
 548:C:/Users/stapi/OneDrive/Desktop/GD32VW553/V1_MQTT_OK/GD32VW55X_Wifi_BLE_SDK/GD32VW55x_RELEASE_V1.0.2/MSDK/lwip/libcoap-4.3.4/src\coap_address.c ****           if (info == NULL) {
 522              		.loc 1 548 18
 523 0126 D145     		li	a1,20
 524 0128 0145     		li	a0,0
 525 012a 3ACE     		sw	a4,28(sp)
 526              	.LVL50:
 548:C:/Users/stapi/OneDrive/Desktop/GD32VW553/V1_MQTT_OK/GD32VW55X_Wifi_BLE_SDK/GD32VW55x_RELEASE_V1.0.2/MSDK/lwip/libcoap-4.3.4/src\coap_address.c ****           if (info == NULL) {
 527              		.loc 1 548 11 is_stmt 1
 548:C:/Users/stapi/OneDrive/Desktop/GD32VW553/V1_MQTT_OK/GD32VW55X_Wifi_BLE_SDK/GD32VW55x_RELEASE_V1.0.2/MSDK/lwip/libcoap-4.3.4/src\coap_address.c ****           if (info == NULL) {
 528              		.loc 1 548 18 is_stmt 0
 529 012c 97000000 		call	coap_malloc_type
 529      E7800000 
 530              	.LVL51:
 549:C:/Users/stapi/OneDrive/Desktop/GD32VW553/V1_MQTT_OK/GD32VW55X_Wifi_BLE_SDK/GD32VW55x_RELEASE_V1.0.2/MSDK/lwip/libcoap-4.3.4/src\coap_address.c ****             freeaddrinfo(res);
 531              		.loc 1 549 14
 532 0134 7247     		lw	a4,28(sp)
 548:C:/Users/stapi/OneDrive/Desktop/GD32VW553/V1_MQTT_OK/GD32VW55X_Wifi_BLE_SDK/GD32VW55x_RELEASE_V1.0.2/MSDK/lwip/libcoap-4.3.4/src\coap_address.c ****           if (info == NULL) {
 533              		.loc 1 548 18
 534 0136 2A8C     		mv	s8,a0
 535              	.LVL52:
 549:C:/Users/stapi/OneDrive/Desktop/GD32VW553/V1_MQTT_OK/GD32VW55X_Wifi_BLE_SDK/GD32VW55x_RELEASE_V1.0.2/MSDK/lwip/libcoap-4.3.4/src\coap_address.c ****             freeaddrinfo(res);
 536              		.loc 1 549 11 is_stmt 1
 549:C:/Users/stapi/OneDrive/Desktop/GD32VW553/V1_MQTT_OK/GD32VW55X_Wifi_BLE_SDK/GD32VW55x_RELEASE_V1.0.2/MSDK/lwip/libcoap-4.3.4/src\coap_address.c ****             freeaddrinfo(res);
 537              		.loc 1 549 14 is_stmt 0
 538 0138 31E9     		bne	a0,zero,.L66
 539              	.LVL53:
 540              	.L149:
 663:C:/Users/stapi/OneDrive/Desktop/GD32VW553/V1_MQTT_OK/GD32VW55X_Wifi_BLE_SDK/GD32VW55x_RELEASE_V1.0.2/MSDK/lwip/libcoap-4.3.4/src\coap_address.c ****   return info_list;
 541              		.loc 1 663 3 is_stmt 1
 542 013a 3255     		lw	a0,44(sp)
 543 013c 97000000 		call	lwip_freeaddrinfo
 543      E7800000 
 544              	.LVL54:
 664:C:/Users/stapi/OneDrive/Desktop/GD32VW553/V1_MQTT_OK/GD32VW55X_Wifi_BLE_SDK/GD32VW55x_RELEASE_V1.0.2/MSDK/lwip/libcoap-4.3.4/src\coap_address.c **** #else /* RIOT_VERSION */
 545              		.loc 1 664 3
 664:C:/Users/stapi/OneDrive/Desktop/GD32VW553/V1_MQTT_OK/GD32VW55X_Wifi_BLE_SDK/GD32VW55x_RELEASE_V1.0.2/MSDK/lwip/libcoap-4.3.4/src\coap_address.c **** #else /* RIOT_VERSION */
 546              		.loc 1 664 10 is_stmt 0
 547 0144 91BF     		j	.L48
 548              	.LVL55:
 549              	.L62:
 519:C:/Users/stapi/OneDrive/Desktop/GD32VW553/V1_MQTT_OK/GD32VW55X_Wifi_BLE_SDK/GD32VW55x_RELEASE_V1.0.2/MSDK/lwip/libcoap-4.3.4/src\coap_address.c ****               continue;
 550              		.loc 1 519 13 is_stmt 1
 519:C:/Users/stapi/OneDrive/Desktop/GD32VW553/V1_MQTT_OK/GD32VW55X_Wifi_BLE_SDK/GD32VW55x_RELEASE_V1.0.2/MSDK/lwip/libcoap-4.3.4/src\coap_address.c ****               continue;
 551              		.loc 1 519 18 is_stmt 0
 552 0146 97000000 		call	coap_tls_is_supported
 552      E7800000 
 553              	.LVL56:
 521:C:/Users/stapi/OneDrive/Desktop/GD32VW553/V1_MQTT_OK/GD32VW55X_Wifi_BLE_SDK/GD32VW55x_RELEASE_V1.0.2/MSDK/lwip/libcoap-4.3.4/src\coap_address.c ****             break;
 554              		.loc 1 521 19
 555 014e 1147     		li	a4,4
 519:C:/Users/stapi/OneDrive/Desktop/GD32VW553/V1_MQTT_OK/GD32VW55X_Wifi_BLE_SDK/GD32VW55x_RELEASE_V1.0.2/MSDK/lwip/libcoap-4.3.4/src\coap_address.c ****               continue;
 556              		.loc 1 519 16
 557 0150 55DD     		beq	a0,zero,.L55
 558 0152 D1BF     		j	.L56
 559              	.L61:
 524:C:/Users/stapi/OneDrive/Desktop/GD32VW553/V1_MQTT_OK/GD32VW55X_Wifi_BLE_SDK/GD32VW55x_RELEASE_V1.0.2/MSDK/lwip/libcoap-4.3.4/src\coap_address.c ****               continue;
 560              		.loc 1 524 13 is_stmt 1
 524:C:/Users/stapi/OneDrive/Desktop/GD32VW553/V1_MQTT_OK/GD32VW55X_Wifi_BLE_SDK/GD32VW55x_RELEASE_V1.0.2/MSDK/lwip/libcoap-4.3.4/src\coap_address.c ****               continue;
 561              		.loc 1 524 18 is_stmt 0
 562 0154 97000000 		call	coap_tcp_is_supported
 562      E7800000 
 563              	.LVL57:
 564              	.L148:
 526:C:/Users/stapi/OneDrive/Desktop/GD32VW553/V1_MQTT_OK/GD32VW55X_Wifi_BLE_SDK/GD32VW55x_RELEASE_V1.0.2/MSDK/lwip/libcoap-4.3.4/src\coap_address.c ****             break;
 565              		.loc 1 526 19
 566 015c 0147     		li	a4,0
 524:C:/Users/stapi/OneDrive/Desktop/GD32VW553/V1_MQTT_OK/GD32VW55X_Wifi_BLE_SDK/GD32VW55x_RELEASE_V1.0.2/MSDK/lwip/libcoap-4.3.4/src\coap_address.c ****               continue;
 567              		.loc 1 524 16
 568 015e 5DD5     		beq	a0,zero,.L55
 569 0160 D9B7     		j	.L56
 570              	.L60:
 529:C:/Users/stapi/OneDrive/Desktop/GD32VW553/V1_MQTT_OK/GD32VW55X_Wifi_BLE_SDK/GD32VW55x_RELEASE_V1.0.2/MSDK/lwip/libcoap-4.3.4/src\coap_address.c ****               continue;
 571              		.loc 1 529 13 is_stmt 1
 529:C:/Users/stapi/OneDrive/Desktop/GD32VW553/V1_MQTT_OK/GD32VW55X_Wifi_BLE_SDK/GD32VW55x_RELEASE_V1.0.2/MSDK/lwip/libcoap-4.3.4/src\coap_address.c ****               continue;
 572              		.loc 1 529 18 is_stmt 0
 573 0162 97000000 		call	coap_tls_is_supported
 573      E7800000 
 574              	.LVL58:
 575 016a CDBF     		j	.L148
 576              	.L59:
 534:C:/Users/stapi/OneDrive/Desktop/GD32VW553/V1_MQTT_OK/GD32VW55X_Wifi_BLE_SDK/GD32VW55x_RELEASE_V1.0.2/MSDK/lwip/libcoap-4.3.4/src\coap_address.c ****               continue;
 577              		.loc 1 534 13 is_stmt 1
 534:C:/Users/stapi/OneDrive/Desktop/GD32VW553/V1_MQTT_OK/GD32VW55X_Wifi_BLE_SDK/GD32VW55x_RELEASE_V1.0.2/MSDK/lwip/libcoap-4.3.4/src\coap_address.c ****               continue;
 578              		.loc 1 534 18 is_stmt 0
 579 016c 97000000 		call	coap_ws_is_supported
 579      E7800000 
 580              	.LVL59:
 536:C:/Users/stapi/OneDrive/Desktop/GD32VW553/V1_MQTT_OK/GD32VW55X_Wifi_BLE_SDK/GD32VW55x_RELEASE_V1.0.2/MSDK/lwip/libcoap-4.3.4/src\coap_address.c ****             break;
 581              		.loc 1 536 19
 582 0174 1547     		li	a4,5
 534:C:/Users/stapi/OneDrive/Desktop/GD32VW553/V1_MQTT_OK/GD32VW55X_Wifi_BLE_SDK/GD32VW55x_RELEASE_V1.0.2/MSDK/lwip/libcoap-4.3.4/src\coap_address.c ****               continue;
 583              		.loc 1 534 16
 584 0176 59D9     		beq	a0,zero,.L55
 585 0178 7DB7     		j	.L56
 586              	.L57:
 539:C:/Users/stapi/OneDrive/Desktop/GD32VW553/V1_MQTT_OK/GD32VW55X_Wifi_BLE_SDK/GD32VW55x_RELEASE_V1.0.2/MSDK/lwip/libcoap-4.3.4/src\coap_address.c ****               continue;
 587              		.loc 1 539 13 is_stmt 1
 539:C:/Users/stapi/OneDrive/Desktop/GD32VW553/V1_MQTT_OK/GD32VW55X_Wifi_BLE_SDK/GD32VW55x_RELEASE_V1.0.2/MSDK/lwip/libcoap-4.3.4/src\coap_address.c ****               continue;
 588              		.loc 1 539 18 is_stmt 0
 589 017a 97000000 		call	coap_wss_is_supported
 589      E7800000 
 590              	.LVL60:
 541:C:/Users/stapi/OneDrive/Desktop/GD32VW553/V1_MQTT_OK/GD32VW55X_Wifi_BLE_SDK/GD32VW55x_RELEASE_V1.0.2/MSDK/lwip/libcoap-4.3.4/src\coap_address.c ****             break;
 591              		.loc 1 541 19
 592 0182 1947     		li	a4,6
 539:C:/Users/stapi/OneDrive/Desktop/GD32VW553/V1_MQTT_OK/GD32VW55X_Wifi_BLE_SDK/GD32VW55x_RELEASE_V1.0.2/MSDK/lwip/libcoap-4.3.4/src\coap_address.c ****               continue;
 593              		.loc 1 539 16
 594 0184 41D5     		beq	a0,zero,.L55
 595 0186 45B7     		j	.L56
 596              	.L94:
 503:C:/Users/stapi/OneDrive/Desktop/GD32VW553/V1_MQTT_OK/GD32VW55X_Wifi_BLE_SDK/GD32VW55x_RELEASE_V1.0.2/MSDK/lwip/libcoap-4.3.4/src\coap_address.c ****           switch (scheme) {
 597              		.loc 1 503 12
 598 0188 0547     		li	a4,1
 599 018a 71BF     		j	.L56
 600              	.LVL61:
 601              	.L66:
 555:C:/Users/stapi/OneDrive/Desktop/GD32VW553/V1_MQTT_OK/GD32VW55X_Wifi_BLE_SDK/GD32VW55x_RELEASE_V1.0.2/MSDK/lwip/libcoap-4.3.4/src\coap_address.c ****           info->scheme = scheme;
 602              		.loc 1 555 11 is_stmt 1
 557:C:/Users/stapi/OneDrive/Desktop/GD32VW553/V1_MQTT_OK/GD32VW55X_Wifi_BLE_SDK/GD32VW55x_RELEASE_V1.0.2/MSDK/lwip/libcoap-4.3.4/src\coap_address.c ****           coap_address_init(&info->addr);
 603              		.loc 1 557 23 is_stmt 0
 604 018c 18C5     		sw	a4,8(a0)
 555:C:/Users/stapi/OneDrive/Desktop/GD32VW553/V1_MQTT_OK/GD32VW55X_Wifi_BLE_SDK/GD32VW55x_RELEASE_V1.0.2/MSDK/lwip/libcoap-4.3.4/src\coap_address.c ****           info->scheme = scheme;
 605              		.loc 1 555 22
 606 018e 23200500 		sw	zero,0(a0)
 556:C:/Users/stapi/OneDrive/Desktop/GD32VW553/V1_MQTT_OK/GD32VW55X_Wifi_BLE_SDK/GD32VW55x_RELEASE_V1.0.2/MSDK/lwip/libcoap-4.3.4/src\coap_address.c ****           info->proto = proto;
 607              		.loc 1 556 11 is_stmt 1
 556:C:/Users/stapi/OneDrive/Desktop/GD32VW553/V1_MQTT_OK/GD32VW55X_Wifi_BLE_SDK/GD32VW55x_RELEASE_V1.0.2/MSDK/lwip/libcoap-4.3.4/src\coap_address.c ****           info->proto = proto;
 608              		.loc 1 556 24 is_stmt 0
 609 0192 23224501 		sw	s4,4(a0)
 557:C:/Users/stapi/OneDrive/Desktop/GD32VW553/V1_MQTT_OK/GD32VW55X_Wifi_BLE_SDK/GD32VW55x_RELEASE_V1.0.2/MSDK/lwip/libcoap-4.3.4/src\coap_address.c ****           coap_address_init(&info->addr);
 610              		.loc 1 557 11 is_stmt 1
 558:C:/Users/stapi/OneDrive/Desktop/GD32VW553/V1_MQTT_OK/GD32VW55X_Wifi_BLE_SDK/GD32VW55x_RELEASE_V1.0.2/MSDK/lwip/libcoap-4.3.4/src\coap_address.c **** #if !defined(WITH_LWIP)
 611              		.loc 1 558 11
 612 0196 3105     		addi	a0,a0,12
 613              	.LVL62:
 614 0198 2ACE     		sw	a0,28(sp)
 615              	.LVL63:
 616 019a 97000000 		call	coap_address_init
 616      E7800000 
 617              	.LVL64:
 563:C:/Users/stapi/OneDrive/Desktop/GD32VW553/V1_MQTT_OK/GD32VW55X_Wifi_BLE_SDK/GD32VW55x_RELEASE_V1.0.2/MSDK/lwip/libcoap-4.3.4/src\coap_address.c ****           switch (ainfo->ai_family) {
 618              		.loc 1 563 11
 619 01a2 7245     		lw	a0,28(sp)
 620 01a4 2146     		li	a2,8
 621 01a6 8145     		li	a1,0
 622 01a8 97000000 		call	memset
 622      E7800000 
 623              	.LVL65:
 564:C:/Users/stapi/OneDrive/Desktop/GD32VW553/V1_MQTT_OK/GD32VW55X_Wifi_BLE_SDK/GD32VW55x_RELEASE_V1.0.2/MSDK/lwip/libcoap-4.3.4/src\coap_address.c **** #if COAP_IPV6_SUPPORT
 624              		.loc 1 564 11
 625 01b0 83A64900 		lw	a3,4(s3)
 626 01b4 0947     		li	a4,2
 627 01b6 6396E602 		bne	a3,a4,.L67
 628              	.LBB82:
 569:C:/Users/stapi/OneDrive/Desktop/GD32VW553/V1_MQTT_OK/GD32VW55X_Wifi_BLE_SDK/GD32VW55x_RELEASE_V1.0.2/MSDK/lwip/libcoap-4.3.4/src\coap_address.c ****           case AF_INET:
 629              		.loc 1 569 13
 571:C:/Users/stapi/OneDrive/Desktop/GD32VW553/V1_MQTT_OK/GD32VW55X_Wifi_BLE_SDK/GD32VW55x_RELEASE_V1.0.2/MSDK/lwip/libcoap-4.3.4/src\coap_address.c ****             info->addr.port = ntohs(sock4->sin_port);
 630              		.loc 1 571 13
 571:C:/Users/stapi/OneDrive/Desktop/GD32VW553/V1_MQTT_OK/GD32VW55X_Wifi_BLE_SDK/GD32VW55x_RELEASE_V1.0.2/MSDK/lwip/libcoap-4.3.4/src\coap_address.c ****             info->addr.port = ntohs(sock4->sin_port);
 631              		.loc 1 571 19 is_stmt 0
 632 01ba 83A54901 		lw	a1,20(s3)
 633              	.LVL66:
 572:C:/Users/stapi/OneDrive/Desktop/GD32VW553/V1_MQTT_OK/GD32VW55X_Wifi_BLE_SDK/GD32VW55x_RELEASE_V1.0.2/MSDK/lwip/libcoap-4.3.4/src\coap_address.c ****             memcpy(&info->addr.addr, &sock4->sin_addr, 4);
 634              		.loc 1 572 13 is_stmt 1
 572:C:/Users/stapi/OneDrive/Desktop/GD32VW553/V1_MQTT_OK/GD32VW55X_Wifi_BLE_SDK/GD32VW55x_RELEASE_V1.0.2/MSDK/lwip/libcoap-4.3.4/src\coap_address.c ****             memcpy(&info->addr.addr, &sock4->sin_addr, 4);
 635              		.loc 1 572 31 is_stmt 0
 636 01be 03D52500 		lhu	a0,2(a1)
 637 01c2 2ECE     		sw	a1,28(sp)
 638 01c4 97000000 		call	lwip_htons
 638      E7800000 
 639              	.LVL67:
 573:C:/Users/stapi/OneDrive/Desktop/GD32VW553/V1_MQTT_OK/GD32VW55X_Wifi_BLE_SDK/GD32VW55x_RELEASE_V1.0.2/MSDK/lwip/libcoap-4.3.4/src\coap_address.c **** #if LWIP_IPV6
 640              		.loc 1 573 13
 641 01cc F245     		lw	a1,28(sp)
 572:C:/Users/stapi/OneDrive/Desktop/GD32VW553/V1_MQTT_OK/GD32VW55X_Wifi_BLE_SDK/GD32VW55x_RELEASE_V1.0.2/MSDK/lwip/libcoap-4.3.4/src\coap_address.c ****             memcpy(&info->addr.addr, &sock4->sin_addr, 4);
 642              		.loc 1 572 29
 643 01ce 2316AC00 		sh	a0,12(s8)
 573:C:/Users/stapi/OneDrive/Desktop/GD32VW553/V1_MQTT_OK/GD32VW55X_Wifi_BLE_SDK/GD32VW55x_RELEASE_V1.0.2/MSDK/lwip/libcoap-4.3.4/src\coap_address.c **** #if LWIP_IPV6
 644              		.loc 1 573 13 is_stmt 1
 645 01d2 1146     		li	a2,4
 646 01d4 9105     		addi	a1,a1,4
 647 01d6 13050C01 		addi	a0,s8,16
 648 01da 97000000 		call	memcpy
 648      E7800000 
 649              	.LVL68:
 577:C:/Users/stapi/OneDrive/Desktop/GD32VW553/V1_MQTT_OK/GD32VW55X_Wifi_BLE_SDK/GD32VW55x_RELEASE_V1.0.2/MSDK/lwip/libcoap-4.3.4/src\coap_address.c **** #endif /* COAP_IPV4_SUPPORT */
 650              		.loc 1 577 13
 651              	.L67:
 590:C:/Users/stapi/OneDrive/Desktop/GD32VW553/V1_MQTT_OK/GD32VW55X_Wifi_BLE_SDK/GD32VW55x_RELEASE_V1.0.2/MSDK/lwip/libcoap-4.3.4/src\coap_address.c ****           }
 652              		.loc 1 590 13 discriminator 1
 653              	.LBE82:
 593:C:/Users/stapi/OneDrive/Desktop/GD32VW553/V1_MQTT_OK/GD32VW55X_Wifi_BLE_SDK/GD32VW55x_RELEASE_V1.0.2/MSDK/lwip/libcoap-4.3.4/src\coap_address.c ****           case COAP_URI_SCHEME_COAP:
 654              		.loc 1 593 11 discriminator 1
 655 01e2 9947     		li	a5,6
 656 01e4 63E65703 		bgtu	s5,a5,.L75
 657 01e8 D247     		lw	a5,20(sp)
 658 01ea B3CAFA20 		sh2add	s5,s5,a5
 659 01ee 03A70A00 		lw	a4,0(s5)
 660 01f2 0287     		jr	a4
 661              		.section	.rodata.coap_resolve_address_info
 662              		.align	2
 663              		.align	2
 664              	.L70:
 665 001c 00000000 		.word	.L76
 666 0020 00000000 		.word	.L75
 667 0024 00000000 		.word	.L76
 668 0028 00000000 		.word	.L73
 669 002c 00000000 		.word	.L72
 670 0030 00000000 		.word	.L71
 671 0034 00000000 		.word	.L69
 672              		.section	.text.coap_resolve_address_info
 673              	.L76:
 599:C:/Users/stapi/OneDrive/Desktop/GD32VW553/V1_MQTT_OK/GD32VW55X_Wifi_BLE_SDK/GD32VW55x_RELEASE_V1.0.2/MSDK/lwip/libcoap-4.3.4/src\coap_address.c ****                         type == COAP_RESOLVE_TYPE_LOCAL);
 674              		.loc 1 599 13
 675              	.LVL69:
 676              	.LBB83:
 677              	.LBB84:
 290:C:/Users/stapi/OneDrive/Desktop/GD32VW553/V1_MQTT_OK/GD32VW55X_Wifi_BLE_SDK/GD32VW55x_RELEASE_V1.0.2/MSDK/lwip/libcoap-4.3.4/src\coap_address.c ****     port = default_port;
 678              		.loc 1 290 3
 679 01f4 4A87     		mv	a4,s2
 290:C:/Users/stapi/OneDrive/Desktop/GD32VW553/V1_MQTT_OK/GD32VW55X_Wifi_BLE_SDK/GD32VW55x_RELEASE_V1.0.2/MSDK/lwip/libcoap-4.3.4/src\coap_address.c ****     port = default_port;
 680              		.loc 1 290 6 is_stmt 0
 681 01f6 63140900 		bne	s2,zero,.L79
 290:C:/Users/stapi/OneDrive/Desktop/GD32VW553/V1_MQTT_OK/GD32VW55X_Wifi_BLE_SDK/GD32VW55x_RELEASE_V1.0.2/MSDK/lwip/libcoap-4.3.4/src\coap_address.c ****     port = default_port;
 682              		.loc 1 290 17
 683 01fa 11E0     		bne	s0,zero,.L79
 291:C:/Users/stapi/OneDrive/Desktop/GD32VW553/V1_MQTT_OK/GD32VW55X_Wifi_BLE_SDK/GD32VW55x_RELEASE_V1.0.2/MSDK/lwip/libcoap-4.3.4/src\coap_address.c **** 
 684              		.loc 1 291 10
 685 01fc 6687     		mv	a4,s9
 686              	.LVL70:
 687              	.L79:
 293:C:/Users/stapi/OneDrive/Desktop/GD32VW553/V1_MQTT_OK/GD32VW55X_Wifi_BLE_SDK/GD32VW55x_RELEASE_V1.0.2/MSDK/lwip/libcoap-4.3.4/src\coap_address.c ****   return;
 688              		.loc 1 293 3 is_stmt 1
 689              	.LBB85:
 690              	.LBB86:
 691              		.file 2 "..\\..\\..\\..\\lwip\\libcoap-4.3.4\\include/coap3/coap_address.h"
   1:..\..\..\..\lwip\libcoap-4.3.4\include/coap3/coap_address.h **** /*
   2:..\..\..\..\lwip\libcoap-4.3.4\include/coap3/coap_address.h ****  * coap_address.h -- representation of network addresses
   3:..\..\..\..\lwip\libcoap-4.3.4\include/coap3/coap_address.h ****  *
   4:..\..\..\..\lwip\libcoap-4.3.4\include/coap3/coap_address.h ****  * Copyright (C) 2010-2011,2015-2016,2022-2023 Olaf Bergmann <bergmann@tzi.org>
   5:..\..\..\..\lwip\libcoap-4.3.4\include/coap3/coap_address.h ****  *
   6:..\..\..\..\lwip\libcoap-4.3.4\include/coap3/coap_address.h ****  * SPDX-License-Identifier: BSD-2-Clause
   7:..\..\..\..\lwip\libcoap-4.3.4\include/coap3/coap_address.h ****  *
   8:..\..\..\..\lwip\libcoap-4.3.4\include/coap3/coap_address.h ****  * This file is part of the CoAP library libcoap. Please see README for terms
   9:..\..\..\..\lwip\libcoap-4.3.4\include/coap3/coap_address.h ****  * of use.
  10:..\..\..\..\lwip\libcoap-4.3.4\include/coap3/coap_address.h ****  */
  11:..\..\..\..\lwip\libcoap-4.3.4\include/coap3/coap_address.h **** 
  12:..\..\..\..\lwip\libcoap-4.3.4\include/coap3/coap_address.h **** /**
  13:..\..\..\..\lwip\libcoap-4.3.4\include/coap3/coap_address.h ****  * @file coap_address.h
  14:..\..\..\..\lwip\libcoap-4.3.4\include/coap3/coap_address.h ****  * @brief Representation of network addresses
  15:..\..\..\..\lwip\libcoap-4.3.4\include/coap3/coap_address.h ****  */
  16:..\..\..\..\lwip\libcoap-4.3.4\include/coap3/coap_address.h **** 
  17:..\..\..\..\lwip\libcoap-4.3.4\include/coap3/coap_address.h **** #ifndef COAP_ADDRESS_H_
  18:..\..\..\..\lwip\libcoap-4.3.4\include/coap3/coap_address.h **** #define COAP_ADDRESS_H_
  19:..\..\..\..\lwip\libcoap-4.3.4\include/coap3/coap_address.h **** 
  20:..\..\..\..\lwip\libcoap-4.3.4\include/coap3/coap_address.h **** #include <assert.h>
  21:..\..\..\..\lwip\libcoap-4.3.4\include/coap3/coap_address.h **** #include <stdint.h>
  22:..\..\..\..\lwip\libcoap-4.3.4\include/coap3/coap_address.h **** #include <string.h>
  23:..\..\..\..\lwip\libcoap-4.3.4\include/coap3/coap_address.h **** #include <sys/types.h>
  24:..\..\..\..\lwip\libcoap-4.3.4\include/coap3/coap_address.h **** #include "libcoap.h"
  25:..\..\..\..\lwip\libcoap-4.3.4\include/coap3/coap_address.h **** 
  26:..\..\..\..\lwip\libcoap-4.3.4\include/coap3/coap_address.h **** #include "coap3/coap_pdu.h"
  27:..\..\..\..\lwip\libcoap-4.3.4\include/coap3/coap_address.h **** 
  28:..\..\..\..\lwip\libcoap-4.3.4\include/coap3/coap_address.h **** #if defined(WITH_LWIP)
  29:..\..\..\..\lwip\libcoap-4.3.4\include/coap3/coap_address.h **** 
  30:..\..\..\..\lwip\libcoap-4.3.4\include/coap3/coap_address.h **** #include <lwip/ip_addr.h>
  31:..\..\..\..\lwip\libcoap-4.3.4\include/coap3/coap_address.h **** 
  32:..\..\..\..\lwip\libcoap-4.3.4\include/coap3/coap_address.h **** struct coap_address_t {
  33:..\..\..\..\lwip\libcoap-4.3.4\include/coap3/coap_address.h ****   uint16_t port;
  34:..\..\..\..\lwip\libcoap-4.3.4\include/coap3/coap_address.h ****   ip_addr_t addr;
  35:..\..\..\..\lwip\libcoap-4.3.4\include/coap3/coap_address.h **** };
  36:..\..\..\..\lwip\libcoap-4.3.4\include/coap3/coap_address.h **** 
  37:..\..\..\..\lwip\libcoap-4.3.4\include/coap3/coap_address.h **** /**
  38:..\..\..\..\lwip\libcoap-4.3.4\include/coap3/coap_address.h ****  * Returns the port from @p addr in host byte order.
  39:..\..\..\..\lwip\libcoap-4.3.4\include/coap3/coap_address.h ****  */
  40:..\..\..\..\lwip\libcoap-4.3.4\include/coap3/coap_address.h **** COAP_STATIC_INLINE uint16_t
  41:..\..\..\..\lwip\libcoap-4.3.4\include/coap3/coap_address.h **** coap_address_get_port(const coap_address_t *addr) {
  42:..\..\..\..\lwip\libcoap-4.3.4\include/coap3/coap_address.h ****   return addr->port;
  43:..\..\..\..\lwip\libcoap-4.3.4\include/coap3/coap_address.h **** }
  44:..\..\..\..\lwip\libcoap-4.3.4\include/coap3/coap_address.h **** 
  45:..\..\..\..\lwip\libcoap-4.3.4\include/coap3/coap_address.h **** /**
  46:..\..\..\..\lwip\libcoap-4.3.4\include/coap3/coap_address.h ****  * Sets the port field of @p addr to @p port (in host byte order).
  47:..\..\..\..\lwip\libcoap-4.3.4\include/coap3/coap_address.h ****  */
  48:..\..\..\..\lwip\libcoap-4.3.4\include/coap3/coap_address.h **** COAP_STATIC_INLINE void
  49:..\..\..\..\lwip\libcoap-4.3.4\include/coap3/coap_address.h **** coap_address_set_port(coap_address_t *addr, uint16_t port) {
  50:..\..\..\..\lwip\libcoap-4.3.4\include/coap3/coap_address.h ****   addr->port = port;
 692              		.loc 2 50 3
 693              		.loc 2 50 14 is_stmt 0
 694 01fe 2316EC00 		sh	a4,12(s8)
 695              	.LVL71:
 696              	.LBE86:
 697              	.LBE85:
 294:C:/Users/stapi/OneDrive/Desktop/GD32VW553/V1_MQTT_OK/GD32VW55X_Wifi_BLE_SDK/GD32VW55x_RELEASE_V1.0.2/MSDK/lwip/libcoap-4.3.4/src\coap_address.c **** }
 698              		.loc 1 294 3 is_stmt 1
 699              	.LBE84:
 700              	.LBE83:
 701              	.LBB87:
 702              	.LBB88:
 291:C:/Users/stapi/OneDrive/Desktop/GD32VW553/V1_MQTT_OK/GD32VW55X_Wifi_BLE_SDK/GD32VW55x_RELEASE_V1.0.2/MSDK/lwip/libcoap-4.3.4/src\coap_address.c **** 
 703              		.loc 1 291 10 is_stmt 0
 704 0202 5A87     		mv	a4,s6
 705              	.LVL72:
 706              	.L80:
 707              	.LBE88:
 708              	.LBE87:
 633:C:/Users/stapi/OneDrive/Desktop/GD32VW553/V1_MQTT_OK/GD32VW55X_Wifi_BLE_SDK/GD32VW55x_RELEASE_V1.0.2/MSDK/lwip/libcoap-4.3.4/src\coap_address.c ****             if (info_tmp->proto == info->proto &&
 709              		.loc 1 633 17 is_stmt 1
 710 0204 15EF     		bne	a4,zero,.L88
 642:C:/Users/stapi/OneDrive/Desktop/GD32VW553/V1_MQTT_OK/GD32VW55X_Wifi_BLE_SDK/GD32VW55x_RELEASE_V1.0.2/MSDK/lwip/libcoap-4.3.4/src\coap_address.c ****             /* Duplicate */
 711              		.loc 1 642 11
 647:C:/Users/stapi/OneDrive/Desktop/GD32VW553/V1_MQTT_OK/GD32VW55X_Wifi_BLE_SDK/GD32VW55x_RELEASE_V1.0.2/MSDK/lwip/libcoap-4.3.4/src\coap_address.c ****               info_list = info;
 712              		.loc 1 647 13
 647:C:/Users/stapi/OneDrive/Desktop/GD32VW553/V1_MQTT_OK/GD32VW55X_Wifi_BLE_SDK/GD32VW55x_RELEASE_V1.0.2/MSDK/lwip/libcoap-4.3.4/src\coap_address.c ****               info_list = info;
 713              		.loc 1 647 16 is_stmt 0
 714 0206 639B0B06 		bne	s7,zero,.L144
 715 020a 628B     		mv	s6,s8
 716              	.LVL73:
 717 020c E28B     		mv	s7,s8
 718              	.LVL74:
 719 020e FDBD     		j	.L55
 720              	.LVL75:
 721              	.L75:
 603:C:/Users/stapi/OneDrive/Desktop/GD32VW553/V1_MQTT_OK/GD32VW55X_Wifi_BLE_SDK/GD32VW55x_RELEASE_V1.0.2/MSDK/lwip/libcoap-4.3.4/src\coap_address.c ****                         type == COAP_RESOLVE_TYPE_LOCAL);
 722              		.loc 1 603 13 is_stmt 1
 723              	.LBB93:
 724              	.LBB94:
 290:C:/Users/stapi/OneDrive/Desktop/GD32VW553/V1_MQTT_OK/GD32VW55X_Wifi_BLE_SDK/GD32VW55x_RELEASE_V1.0.2/MSDK/lwip/libcoap-4.3.4/src\coap_address.c ****     port = default_port;
 725              		.loc 1 290 3
 726 0210 2687     		mv	a4,s1
 290:C:/Users/stapi/OneDrive/Desktop/GD32VW553/V1_MQTT_OK/GD32VW55X_Wifi_BLE_SDK/GD32VW55x_RELEASE_V1.0.2/MSDK/lwip/libcoap-4.3.4/src\coap_address.c ****     port = default_port;
 727              		.loc 1 290 6 is_stmt 0
 728 0212 F5F4     		bne	s1,zero,.L79
 290:C:/Users/stapi/OneDrive/Desktop/GD32VW553/V1_MQTT_OK/GD32VW55X_Wifi_BLE_SDK/GD32VW55x_RELEASE_V1.0.2/MSDK/lwip/libcoap-4.3.4/src\coap_address.c ****     port = default_port;
 729              		.loc 1 290 17
 730 0214 6DF4     		bne	s0,zero,.L79
 291:C:/Users/stapi/OneDrive/Desktop/GD32VW553/V1_MQTT_OK/GD32VW55X_Wifi_BLE_SDK/GD32VW55x_RELEASE_V1.0.2/MSDK/lwip/libcoap-4.3.4/src\coap_address.c **** 
 731              		.loc 1 291 10
 732 0216 6E87     		mv	a4,s11
 733              	.LVL76:
 293:C:/Users/stapi/OneDrive/Desktop/GD32VW553/V1_MQTT_OK/GD32VW55X_Wifi_BLE_SDK/GD32VW55x_RELEASE_V1.0.2/MSDK/lwip/libcoap-4.3.4/src\coap_address.c ****   return;
 734              		.loc 1 293 3 is_stmt 1
 735              	.LBB95:
 736              	.LBB96:
 737              		.loc 2 50 3
 738 0218 DDB7     		j	.L79
 739              	.LVL77:
 740              	.L73:
 741              	.LBE96:
 742              	.LBE95:
 743              	.LBE94:
 744              	.LBE93:
 611:C:/Users/stapi/OneDrive/Desktop/GD32VW553/V1_MQTT_OK/GD32VW55X_Wifi_BLE_SDK/GD32VW55x_RELEASE_V1.0.2/MSDK/lwip/libcoap-4.3.4/src\coap_address.c ****                         type == COAP_RESOLVE_TYPE_LOCAL);
 745              		.loc 1 611 13
 746              	.LBB97:
 747              	.LBB98:
 290:C:/Users/stapi/OneDrive/Desktop/GD32VW553/V1_MQTT_OK/GD32VW55X_Wifi_BLE_SDK/GD32VW55x_RELEASE_V1.0.2/MSDK/lwip/libcoap-4.3.4/src\coap_address.c ****     port = default_port;
 748              		.loc 1 290 3
 749 021a 2687     		mv	a4,s1
 290:C:/Users/stapi/OneDrive/Desktop/GD32VW553/V1_MQTT_OK/GD32VW55X_Wifi_BLE_SDK/GD32VW55x_RELEASE_V1.0.2/MSDK/lwip/libcoap-4.3.4/src\coap_address.c ****     port = default_port;
 750              		.loc 1 290 6 is_stmt 0
 751 021c EDF0     		bne	s1,zero,.L79
 752              	.LVL78:
 753              	.L157:
 754              	.LBE98:
 755              	.LBE97:
 756              	.LBB99:
 757              	.LBB100:
 290:C:/Users/stapi/OneDrive/Desktop/GD32VW553/V1_MQTT_OK/GD32VW55X_Wifi_BLE_SDK/GD32VW55x_RELEASE_V1.0.2/MSDK/lwip/libcoap-4.3.4/src\coap_address.c ****     port = default_port;
 758              		.loc 1 290 17
 759 021e 65F0     		bne	s0,zero,.L79
 291:C:/Users/stapi/OneDrive/Desktop/GD32VW553/V1_MQTT_OK/GD32VW55X_Wifi_BLE_SDK/GD32VW55x_RELEASE_V1.0.2/MSDK/lwip/libcoap-4.3.4/src\coap_address.c **** 
 760              		.loc 1 291 10
 761 0220 13070005 		li	a4,80
 762              	.LVL79:
 293:C:/Users/stapi/OneDrive/Desktop/GD32VW553/V1_MQTT_OK/GD32VW55X_Wifi_BLE_SDK/GD32VW55x_RELEASE_V1.0.2/MSDK/lwip/libcoap-4.3.4/src\coap_address.c ****   return;
 763              		.loc 1 293 3 is_stmt 1
 764              	.LBB101:
 765              	.LBB102:
 766              		.loc 2 50 3
 767 0224 E9BF     		j	.L79
 768              	.LVL80:
 769              	.L72:
 770              	.LBE102:
 771              	.LBE101:
 772              	.LBE100:
 773              	.LBE99:
 615:C:/Users/stapi/OneDrive/Desktop/GD32VW553/V1_MQTT_OK/GD32VW55X_Wifi_BLE_SDK/GD32VW55x_RELEASE_V1.0.2/MSDK/lwip/libcoap-4.3.4/src\coap_address.c ****                         type == COAP_RESOLVE_TYPE_LOCAL);
 774              		.loc 1 615 13
 775              	.LBB104:
 776              	.LBB105:
 290:C:/Users/stapi/OneDrive/Desktop/GD32VW553/V1_MQTT_OK/GD32VW55X_Wifi_BLE_SDK/GD32VW55x_RELEASE_V1.0.2/MSDK/lwip/libcoap-4.3.4/src\coap_address.c ****     port = default_port;
 777              		.loc 1 290 3
 778 0226 4A87     		mv	a4,s2
 290:C:/Users/stapi/OneDrive/Desktop/GD32VW553/V1_MQTT_OK/GD32VW55X_Wifi_BLE_SDK/GD32VW55x_RELEASE_V1.0.2/MSDK/lwip/libcoap-4.3.4/src\coap_address.c ****     port = default_port;
 779              		.loc 1 290 6 is_stmt 0
 780 0228 E31B09FC 		bne	s2,zero,.L79
 781              	.LVL81:
 782              	.L159:
 783              	.LBE105:
 784              	.LBE104:
 785              	.LBB106:
 786              	.LBB91:
 290:C:/Users/stapi/OneDrive/Desktop/GD32VW553/V1_MQTT_OK/GD32VW55X_Wifi_BLE_SDK/GD32VW55x_RELEASE_V1.0.2/MSDK/lwip/libcoap-4.3.4/src\coap_address.c ****     port = default_port;
 787              		.loc 1 290 17
 788 022c 69F8     		bne	s0,zero,.L79
 291:C:/Users/stapi/OneDrive/Desktop/GD32VW553/V1_MQTT_OK/GD32VW55X_Wifi_BLE_SDK/GD32VW55x_RELEASE_V1.0.2/MSDK/lwip/libcoap-4.3.4/src\coap_address.c **** 
 789              		.loc 1 291 10
 790 022e 1307B01B 		li	a4,443
 791              	.LVL82:
 293:C:/Users/stapi/OneDrive/Desktop/GD32VW553/V1_MQTT_OK/GD32VW55X_Wifi_BLE_SDK/GD32VW55x_RELEASE_V1.0.2/MSDK/lwip/libcoap-4.3.4/src\coap_address.c ****   return;
 792              		.loc 1 293 3 is_stmt 1
 793              	.LBB89:
 794              	.LBB90:
 795              		.loc 2 50 3
 796 0232 F1B7     		j	.L79
 797              	.LVL83:
 798              	.L71:
 799              	.LBE90:
 800              	.LBE89:
 801              	.LBE91:
 802              	.LBE106:
 619:C:/Users/stapi/OneDrive/Desktop/GD32VW553/V1_MQTT_OK/GD32VW55X_Wifi_BLE_SDK/GD32VW55x_RELEASE_V1.0.2/MSDK/lwip/libcoap-4.3.4/src\coap_address.c ****                         type == COAP_RESOLVE_TYPE_LOCAL);
 803              		.loc 1 619 13
 804              	.LBB107:
 805              	.LBB103:
 290:C:/Users/stapi/OneDrive/Desktop/GD32VW553/V1_MQTT_OK/GD32VW55X_Wifi_BLE_SDK/GD32VW55x_RELEASE_V1.0.2/MSDK/lwip/libcoap-4.3.4/src\coap_address.c ****     port = default_port;
 806              		.loc 1 290 3
 807 0234 2247     		lw	a4,8(sp)
 290:C:/Users/stapi/OneDrive/Desktop/GD32VW553/V1_MQTT_OK/GD32VW55X_Wifi_BLE_SDK/GD32VW55x_RELEASE_V1.0.2/MSDK/lwip/libcoap-4.3.4/src\coap_address.c ****     port = default_port;
 808              		.loc 1 290 6 is_stmt 0
 809 0236 61F7     		bne	a4,zero,.L79
 810 0238 DDB7     		j	.L157
 811              	.LVL84:
 812              	.L69:
 813              	.LBE103:
 814              	.LBE107:
 623:C:/Users/stapi/OneDrive/Desktop/GD32VW553/V1_MQTT_OK/GD32VW55X_Wifi_BLE_SDK/GD32VW55x_RELEASE_V1.0.2/MSDK/lwip/libcoap-4.3.4/src\coap_address.c ****                         type == COAP_RESOLVE_TYPE_LOCAL);
 815              		.loc 1 623 13 is_stmt 1
 816              	.LBB108:
 817              	.LBB92:
 290:C:/Users/stapi/OneDrive/Desktop/GD32VW553/V1_MQTT_OK/GD32VW55X_Wifi_BLE_SDK/GD32VW55x_RELEASE_V1.0.2/MSDK/lwip/libcoap-4.3.4/src\coap_address.c ****     port = default_port;
 818              		.loc 1 290 3
 819 023a 3247     		lw	a4,12(sp)
 290:C:/Users/stapi/OneDrive/Desktop/GD32VW553/V1_MQTT_OK/GD32VW55X_Wifi_BLE_SDK/GD32VW55x_RELEASE_V1.0.2/MSDK/lwip/libcoap-4.3.4/src\coap_address.c ****     port = default_port;
 820              		.loc 1 290 6 is_stmt 0
 821 023c 69F3     		bne	a4,zero,.L79
 822 023e FDB7     		j	.L159
 823              	.LVL85:
 824              	.L88:
 825              	.LBE92:
 826              	.LBE108:
 634:C:/Users/stapi/OneDrive/Desktop/GD32VW553/V1_MQTT_OK/GD32VW55X_Wifi_BLE_SDK/GD32VW55x_RELEASE_V1.0.2/MSDK/lwip/libcoap-4.3.4/src\coap_address.c ****                 info_tmp->scheme == info->scheme &&
 827              		.loc 1 634 13 is_stmt 1
 634:C:/Users/stapi/OneDrive/Desktop/GD32VW553/V1_MQTT_OK/GD32VW55X_Wifi_BLE_SDK/GD32VW55x_RELEASE_V1.0.2/MSDK/lwip/libcoap-4.3.4/src\coap_address.c ****                 info_tmp->scheme == info->scheme &&
 828              		.loc 1 634 16 is_stmt 0
 829 0240 1047     		lw	a2,8(a4)
 830 0242 83268C00 		lw	a3,8(s8)
 831 0246 6319D602 		bne	a2,a3,.L87
 634:C:/Users/stapi/OneDrive/Desktop/GD32VW553/V1_MQTT_OK/GD32VW55X_Wifi_BLE_SDK/GD32VW55x_RELEASE_V1.0.2/MSDK/lwip/libcoap-4.3.4/src\coap_address.c ****                 info_tmp->scheme == info->scheme &&
 832              		.loc 1 634 48 discriminator 1
 833 024a 5043     		lw	a2,4(a4)
 834 024c 83264C00 		lw	a3,4(s8)
 835 0250 6314D602 		bne	a2,a3,.L87
 836              	.LVL86:
 837              	.LBB109:
 838              	.LBB110:
  51:..\..\..\..\lwip\libcoap-4.3.4\include/coap3/coap_address.h **** }
  52:..\..\..\..\lwip\libcoap-4.3.4\include/coap3/coap_address.h **** 
  53:..\..\..\..\lwip\libcoap-4.3.4\include/coap3/coap_address.h **** #define _coap_address_equals_impl(A, B) \
  54:..\..\..\..\lwip\libcoap-4.3.4\include/coap3/coap_address.h ****   ((A)->port == (B)->port &&        \
  55:..\..\..\..\lwip\libcoap-4.3.4\include/coap3/coap_address.h ****    (!!ip_addr_cmp(&(A)->addr,&(B)->addr)))
  56:..\..\..\..\lwip\libcoap-4.3.4\include/coap3/coap_address.h **** 
  57:..\..\..\..\lwip\libcoap-4.3.4\include/coap3/coap_address.h **** #define _coap_address_isany_impl(A)  ip_addr_isany(&(A)->addr)
  58:..\..\..\..\lwip\libcoap-4.3.4\include/coap3/coap_address.h **** 
  59:..\..\..\..\lwip\libcoap-4.3.4\include/coap3/coap_address.h **** #define _coap_is_mcast_impl(Address) ip_addr_ismulticast(&(Address)->addr)
  60:..\..\..\..\lwip\libcoap-4.3.4\include/coap3/coap_address.h **** 
  61:..\..\..\..\lwip\libcoap-4.3.4\include/coap3/coap_address.h **** #elif defined(WITH_CONTIKI)
  62:..\..\..\..\lwip\libcoap-4.3.4\include/coap3/coap_address.h **** 
  63:..\..\..\..\lwip\libcoap-4.3.4\include/coap3/coap_address.h **** #include "uip.h"
  64:..\..\..\..\lwip\libcoap-4.3.4\include/coap3/coap_address.h **** 
  65:..\..\..\..\lwip\libcoap-4.3.4\include/coap3/coap_address.h **** struct coap_address_t {
  66:..\..\..\..\lwip\libcoap-4.3.4\include/coap3/coap_address.h ****   uip_ipaddr_t addr;
  67:..\..\..\..\lwip\libcoap-4.3.4\include/coap3/coap_address.h ****   uint16_t port;
  68:..\..\..\..\lwip\libcoap-4.3.4\include/coap3/coap_address.h **** };
  69:..\..\..\..\lwip\libcoap-4.3.4\include/coap3/coap_address.h **** 
  70:..\..\..\..\lwip\libcoap-4.3.4\include/coap3/coap_address.h **** /**
  71:..\..\..\..\lwip\libcoap-4.3.4\include/coap3/coap_address.h ****  * Returns the port from @p addr in host byte order.
  72:..\..\..\..\lwip\libcoap-4.3.4\include/coap3/coap_address.h ****  */
  73:..\..\..\..\lwip\libcoap-4.3.4\include/coap3/coap_address.h **** COAP_STATIC_INLINE uint16_t
  74:..\..\..\..\lwip\libcoap-4.3.4\include/coap3/coap_address.h **** coap_address_get_port(const coap_address_t *addr) {
  75:..\..\..\..\lwip\libcoap-4.3.4\include/coap3/coap_address.h ****   return uip_ntohs(addr->port);
  76:..\..\..\..\lwip\libcoap-4.3.4\include/coap3/coap_address.h **** }
  77:..\..\..\..\lwip\libcoap-4.3.4\include/coap3/coap_address.h **** 
  78:..\..\..\..\lwip\libcoap-4.3.4\include/coap3/coap_address.h **** /**
  79:..\..\..\..\lwip\libcoap-4.3.4\include/coap3/coap_address.h ****  * Sets the port field of @p addr to @p port (in host byte order).
  80:..\..\..\..\lwip\libcoap-4.3.4\include/coap3/coap_address.h ****  */
  81:..\..\..\..\lwip\libcoap-4.3.4\include/coap3/coap_address.h **** COAP_STATIC_INLINE void
  82:..\..\..\..\lwip\libcoap-4.3.4\include/coap3/coap_address.h **** coap_address_set_port(coap_address_t *addr, uint16_t port) {
  83:..\..\..\..\lwip\libcoap-4.3.4\include/coap3/coap_address.h ****   addr->port = uip_htons(port);
  84:..\..\..\..\lwip\libcoap-4.3.4\include/coap3/coap_address.h **** }
  85:..\..\..\..\lwip\libcoap-4.3.4\include/coap3/coap_address.h **** 
  86:..\..\..\..\lwip\libcoap-4.3.4\include/coap3/coap_address.h **** #define _coap_address_equals_impl(A,B) \
  87:..\..\..\..\lwip\libcoap-4.3.4\include/coap3/coap_address.h ****   ((A)->port == (B)->port &&     \
  88:..\..\..\..\lwip\libcoap-4.3.4\include/coap3/coap_address.h ****    uip_ipaddr_cmp(&((A)->addr),&((B)->addr)))
  89:..\..\..\..\lwip\libcoap-4.3.4\include/coap3/coap_address.h **** 
  90:..\..\..\..\lwip\libcoap-4.3.4\include/coap3/coap_address.h **** /** @todo implementation of _coap_address_isany_impl() for Contiki */
  91:..\..\..\..\lwip\libcoap-4.3.4\include/coap3/coap_address.h **** #define _coap_address_isany_impl(A)  0
  92:..\..\..\..\lwip\libcoap-4.3.4\include/coap3/coap_address.h **** 
  93:..\..\..\..\lwip\libcoap-4.3.4\include/coap3/coap_address.h **** #define _coap_is_mcast_impl(Address) uip_is_addr_mcast(&((Address)->addr))
  94:..\..\..\..\lwip\libcoap-4.3.4\include/coap3/coap_address.h **** 
  95:..\..\..\..\lwip\libcoap-4.3.4\include/coap3/coap_address.h **** #else /* ! WITH_LWIP && ! WITH_CONTIKI */
  96:..\..\..\..\lwip\libcoap-4.3.4\include/coap3/coap_address.h **** 
  97:..\..\..\..\lwip\libcoap-4.3.4\include/coap3/coap_address.h **** #ifdef _WIN32
  98:..\..\..\..\lwip\libcoap-4.3.4\include/coap3/coap_address.h **** #define sa_family_t short
  99:..\..\..\..\lwip\libcoap-4.3.4\include/coap3/coap_address.h **** #endif /* _WIN32 */
 100:..\..\..\..\lwip\libcoap-4.3.4\include/coap3/coap_address.h **** 
 101:..\..\..\..\lwip\libcoap-4.3.4\include/coap3/coap_address.h **** #define COAP_UNIX_PATH_MAX   (sizeof(struct sockaddr_in6) - sizeof(sa_family_t))
 102:..\..\..\..\lwip\libcoap-4.3.4\include/coap3/coap_address.h **** 
 103:..\..\..\..\lwip\libcoap-4.3.4\include/coap3/coap_address.h **** struct coap_sockaddr_un {
 104:..\..\..\..\lwip\libcoap-4.3.4\include/coap3/coap_address.h ****   sa_family_t sun_family; /* AF_UNIX */
 105:..\..\..\..\lwip\libcoap-4.3.4\include/coap3/coap_address.h ****   char sun_path[COAP_UNIX_PATH_MAX];   /* pathname max 26 with NUL byte */
 106:..\..\..\..\lwip\libcoap-4.3.4\include/coap3/coap_address.h **** };
 107:..\..\..\..\lwip\libcoap-4.3.4\include/coap3/coap_address.h **** 
 108:..\..\..\..\lwip\libcoap-4.3.4\include/coap3/coap_address.h **** /** Multi-purpose address abstraction */
 109:..\..\..\..\lwip\libcoap-4.3.4\include/coap3/coap_address.h **** struct coap_address_t {
 110:..\..\..\..\lwip\libcoap-4.3.4\include/coap3/coap_address.h ****   socklen_t size;           /**< size of addr */
 111:..\..\..\..\lwip\libcoap-4.3.4\include/coap3/coap_address.h ****   union {
 112:..\..\..\..\lwip\libcoap-4.3.4\include/coap3/coap_address.h ****     struct sockaddr         sa;
 113:..\..\..\..\lwip\libcoap-4.3.4\include/coap3/coap_address.h ****     struct sockaddr_in      sin;
 114:..\..\..\..\lwip\libcoap-4.3.4\include/coap3/coap_address.h ****     struct sockaddr_in6     sin6;
 115:..\..\..\..\lwip\libcoap-4.3.4\include/coap3/coap_address.h ****     struct coap_sockaddr_un cun; /* CoAP shortened special */
 116:..\..\..\..\lwip\libcoap-4.3.4\include/coap3/coap_address.h ****   } addr;
 117:..\..\..\..\lwip\libcoap-4.3.4\include/coap3/coap_address.h **** };
 118:..\..\..\..\lwip\libcoap-4.3.4\include/coap3/coap_address.h **** 
 119:..\..\..\..\lwip\libcoap-4.3.4\include/coap3/coap_address.h **** /**
 120:..\..\..\..\lwip\libcoap-4.3.4\include/coap3/coap_address.h ****  * Returns the port from @p addr in host byte order.
 121:..\..\..\..\lwip\libcoap-4.3.4\include/coap3/coap_address.h ****  */
 122:..\..\..\..\lwip\libcoap-4.3.4\include/coap3/coap_address.h **** uint16_t coap_address_get_port(const coap_address_t *addr);
 123:..\..\..\..\lwip\libcoap-4.3.4\include/coap3/coap_address.h **** 
 124:..\..\..\..\lwip\libcoap-4.3.4\include/coap3/coap_address.h **** /**
 125:..\..\..\..\lwip\libcoap-4.3.4\include/coap3/coap_address.h ****  * Set the port field of @p addr to @p port (in host byte order).
 126:..\..\..\..\lwip\libcoap-4.3.4\include/coap3/coap_address.h ****  */
 127:..\..\..\..\lwip\libcoap-4.3.4\include/coap3/coap_address.h **** void coap_address_set_port(coap_address_t *addr, uint16_t port);
 128:..\..\..\..\lwip\libcoap-4.3.4\include/coap3/coap_address.h **** 
 129:..\..\..\..\lwip\libcoap-4.3.4\include/coap3/coap_address.h **** /**
 130:..\..\..\..\lwip\libcoap-4.3.4\include/coap3/coap_address.h ****  * Compares given address objects @p a and @p b. This function returns @c 1 if
 131:..\..\..\..\lwip\libcoap-4.3.4\include/coap3/coap_address.h ****  * addresses are equal, @c 0 otherwise. The parameters @p a and @p b must not be
 132:..\..\..\..\lwip\libcoap-4.3.4\include/coap3/coap_address.h ****  * @c NULL;
 133:..\..\..\..\lwip\libcoap-4.3.4\include/coap3/coap_address.h ****  */
 134:..\..\..\..\lwip\libcoap-4.3.4\include/coap3/coap_address.h **** int coap_address_equals(const coap_address_t *a, const coap_address_t *b);
 135:..\..\..\..\lwip\libcoap-4.3.4\include/coap3/coap_address.h **** 
 136:..\..\..\..\lwip\libcoap-4.3.4\include/coap3/coap_address.h **** int _coap_address_isany_impl(const coap_address_t *a);
 137:..\..\..\..\lwip\libcoap-4.3.4\include/coap3/coap_address.h **** #endif /* ! WITH_LWIP && ! WITH_CONTIKI */
 138:..\..\..\..\lwip\libcoap-4.3.4\include/coap3/coap_address.h **** 
 139:..\..\..\..\lwip\libcoap-4.3.4\include/coap3/coap_address.h **** /** Resolved addresses information */
 140:..\..\..\..\lwip\libcoap-4.3.4\include/coap3/coap_address.h **** typedef struct coap_addr_info_t {
 141:..\..\..\..\lwip\libcoap-4.3.4\include/coap3/coap_address.h ****   struct coap_addr_info_t *next; /**< Next entry in the chain */
 142:..\..\..\..\lwip\libcoap-4.3.4\include/coap3/coap_address.h ****   coap_uri_scheme_t scheme;      /**< CoAP scheme to use */
 143:..\..\..\..\lwip\libcoap-4.3.4\include/coap3/coap_address.h ****   coap_proto_t proto;            /**< CoAP protocol to use */
 144:..\..\..\..\lwip\libcoap-4.3.4\include/coap3/coap_address.h ****   coap_address_t addr;           /**< The address to connect / bind to */
 145:..\..\..\..\lwip\libcoap-4.3.4\include/coap3/coap_address.h **** } coap_addr_info_t;
 146:..\..\..\..\lwip\libcoap-4.3.4\include/coap3/coap_address.h **** 
 147:..\..\..\..\lwip\libcoap-4.3.4\include/coap3/coap_address.h **** /**
 148:..\..\..\..\lwip\libcoap-4.3.4\include/coap3/coap_address.h ****  * Determine and set up scheme_hint_bits for a server that can be used in
 149:..\..\..\..\lwip\libcoap-4.3.4\include/coap3/coap_address.h ****  * a call to coap_resolve_address_info().
 150:..\..\..\..\lwip\libcoap-4.3.4\include/coap3/coap_address.h ****  *
 151:..\..\..\..\lwip\libcoap-4.3.4\include/coap3/coap_address.h ****  * @param have_pki_psk Set to @c 1 if PSK/PKI information is known else @c 0.
 152:..\..\..\..\lwip\libcoap-4.3.4\include/coap3/coap_address.h ****  * @param ws_check Set to @c 1 is WebSockets is to be included in the list
 153:..\..\..\..\lwip\libcoap-4.3.4\include/coap3/coap_address.h ****  *                  else @c 0.
 154:..\..\..\..\lwip\libcoap-4.3.4\include/coap3/coap_address.h ****  * @param use_unix_proto Set to the appropriate protocol to use for Unix
 155:..\..\..\..\lwip\libcoap-4.3.4\include/coap3/coap_address.h ****  *                       sockets, else set to COAP_PROTO_NONE for INET / INET6
 156:..\..\..\..\lwip\libcoap-4.3.4\include/coap3/coap_address.h ****  *                       sockets.
 157:..\..\..\..\lwip\libcoap-4.3.4\include/coap3/coap_address.h ****  * @return A bit mask of the available CoAP protocols (can be @c 0 if none)
 158:..\..\..\..\lwip\libcoap-4.3.4\include/coap3/coap_address.h ****  *         suitable for passing to coap_resolve_address_info().
 159:..\..\..\..\lwip\libcoap-4.3.4\include/coap3/coap_address.h ****  */
 160:..\..\..\..\lwip\libcoap-4.3.4\include/coap3/coap_address.h **** uint32_t coap_get_available_scheme_hint_bits(int have_pki_psk, int ws_check,
 161:..\..\..\..\lwip\libcoap-4.3.4\include/coap3/coap_address.h ****                                              coap_proto_t use_unix_proto);
 162:..\..\..\..\lwip\libcoap-4.3.4\include/coap3/coap_address.h **** 
 163:..\..\..\..\lwip\libcoap-4.3.4\include/coap3/coap_address.h **** /**
 164:..\..\..\..\lwip\libcoap-4.3.4\include/coap3/coap_address.h ****  * coap_resolve_type_t values
 165:..\..\..\..\lwip\libcoap-4.3.4\include/coap3/coap_address.h ****  */
 166:..\..\..\..\lwip\libcoap-4.3.4\include/coap3/coap_address.h **** typedef enum coap_resolve_type_t {
 167:..\..\..\..\lwip\libcoap-4.3.4\include/coap3/coap_address.h ****   COAP_RESOLVE_TYPE_LOCAL,   /**< local side of session */
 168:..\..\..\..\lwip\libcoap-4.3.4\include/coap3/coap_address.h ****   COAP_RESOLVE_TYPE_REMOTE,  /**< remote side of session */
 169:..\..\..\..\lwip\libcoap-4.3.4\include/coap3/coap_address.h **** } coap_resolve_type_t;
 170:..\..\..\..\lwip\libcoap-4.3.4\include/coap3/coap_address.h **** 
 171:..\..\..\..\lwip\libcoap-4.3.4\include/coap3/coap_address.h **** /**
 172:..\..\..\..\lwip\libcoap-4.3.4\include/coap3/coap_address.h ****  * Resolve the specified @p address into a set of coap_address_t that can
 173:..\..\..\..\lwip\libcoap-4.3.4\include/coap3/coap_address.h ****  * be used to bind() (local) or connect() (remote) to.
 174:..\..\..\..\lwip\libcoap-4.3.4\include/coap3/coap_address.h ****  *
 175:..\..\..\..\lwip\libcoap-4.3.4\include/coap3/coap_address.h ****  * @param address The Address to resolve.
 176:..\..\..\..\lwip\libcoap-4.3.4\include/coap3/coap_address.h ****  * @param port    The unsecured protocol port to use.
 177:..\..\..\..\lwip\libcoap-4.3.4\include/coap3/coap_address.h ****  * @param secure_port The secured protocol port to use.
 178:..\..\..\..\lwip\libcoap-4.3.4\include/coap3/coap_address.h ****  * @param ws_port The unsecured WebSockets port to use.
 179:..\..\..\..\lwip\libcoap-4.3.4\include/coap3/coap_address.h ****  * @param ws_secure_port The secured WebSockets port to use.
 180:..\..\..\..\lwip\libcoap-4.3.4\include/coap3/coap_address.h ****  * @param ai_hints_flags AI_* Hint flags to use for internal getaddrinfo().
 181:..\..\..\..\lwip\libcoap-4.3.4\include/coap3/coap_address.h ****  * @param scheme_hint_bits Which schemes to return information for. One or
 182:..\..\..\..\lwip\libcoap-4.3.4\include/coap3/coap_address.h ****  *                         more of COAP_URI_SCHEME_*_BIT or'd together.
 183:..\..\..\..\lwip\libcoap-4.3.4\include/coap3/coap_address.h ****  * @param type COAP_ADDRESS_TYPE_LOCAL or COAP_ADDRESS_TYPE_REMOTE
 184:..\..\..\..\lwip\libcoap-4.3.4\include/coap3/coap_address.h ****  *
 185:..\..\..\..\lwip\libcoap-4.3.4\include/coap3/coap_address.h ****  * @return One or more linked sets of coap_addr_info_t or @c NULL if error.
 186:..\..\..\..\lwip\libcoap-4.3.4\include/coap3/coap_address.h ****  */
 187:..\..\..\..\lwip\libcoap-4.3.4\include/coap3/coap_address.h **** coap_addr_info_t *coap_resolve_address_info(const coap_str_const_t *address,
 188:..\..\..\..\lwip\libcoap-4.3.4\include/coap3/coap_address.h ****                                             uint16_t port,
 189:..\..\..\..\lwip\libcoap-4.3.4\include/coap3/coap_address.h ****                                             uint16_t secure_port,
 190:..\..\..\..\lwip\libcoap-4.3.4\include/coap3/coap_address.h ****                                             uint16_t ws_port,
 191:..\..\..\..\lwip\libcoap-4.3.4\include/coap3/coap_address.h ****                                             uint16_t ws_secure_port,
 192:..\..\..\..\lwip\libcoap-4.3.4\include/coap3/coap_address.h ****                                             int ai_hints_flags,
 193:..\..\..\..\lwip\libcoap-4.3.4\include/coap3/coap_address.h ****                                             int scheme_hint_bits,
 194:..\..\..\..\lwip\libcoap-4.3.4\include/coap3/coap_address.h ****                                             coap_resolve_type_t type);
 195:..\..\..\..\lwip\libcoap-4.3.4\include/coap3/coap_address.h **** 
 196:..\..\..\..\lwip\libcoap-4.3.4\include/coap3/coap_address.h **** /**
 197:..\..\..\..\lwip\libcoap-4.3.4\include/coap3/coap_address.h ****  * Free off the one or more linked sets of coap_addr_info_t returned from
 198:..\..\..\..\lwip\libcoap-4.3.4\include/coap3/coap_address.h ****  * coap_resolve_address_info().
 199:..\..\..\..\lwip\libcoap-4.3.4\include/coap3/coap_address.h ****  *
 200:..\..\..\..\lwip\libcoap-4.3.4\include/coap3/coap_address.h ****  * @param info_list The set of coap_addr_info_t to free off.
 201:..\..\..\..\lwip\libcoap-4.3.4\include/coap3/coap_address.h ****  */
 202:..\..\..\..\lwip\libcoap-4.3.4\include/coap3/coap_address.h **** void coap_free_address_info(coap_addr_info_t *info_list);
 203:..\..\..\..\lwip\libcoap-4.3.4\include/coap3/coap_address.h **** 
 204:..\..\..\..\lwip\libcoap-4.3.4\include/coap3/coap_address.h **** /**
 205:..\..\..\..\lwip\libcoap-4.3.4\include/coap3/coap_address.h ****  * Resets the given coap_address_t object @p addr to its default values. In
 206:..\..\..\..\lwip\libcoap-4.3.4\include/coap3/coap_address.h ****  * particular, the member size must be initialized to the available size for
 207:..\..\..\..\lwip\libcoap-4.3.4\include/coap3/coap_address.h ****  * storing addresses.
 208:..\..\..\..\lwip\libcoap-4.3.4\include/coap3/coap_address.h ****  *
 209:..\..\..\..\lwip\libcoap-4.3.4\include/coap3/coap_address.h ****  * @param addr The coap_address_t object to initialize.
 210:..\..\..\..\lwip\libcoap-4.3.4\include/coap3/coap_address.h ****  */
 211:..\..\..\..\lwip\libcoap-4.3.4\include/coap3/coap_address.h **** void coap_address_init(coap_address_t *addr);
 212:..\..\..\..\lwip\libcoap-4.3.4\include/coap3/coap_address.h **** 
 213:..\..\..\..\lwip\libcoap-4.3.4\include/coap3/coap_address.h **** /**
 214:..\..\..\..\lwip\libcoap-4.3.4\include/coap3/coap_address.h ****  * Copy the parsed unix domain host into coap_address_t structure
 215:..\..\..\..\lwip\libcoap-4.3.4\include/coap3/coap_address.h ****  * translating %2F into / on the way. All other fields set as appropriate.
 216:..\..\..\..\lwip\libcoap-4.3.4\include/coap3/coap_address.h ****  *
 217:..\..\..\..\lwip\libcoap-4.3.4\include/coap3/coap_address.h ****  * @param addr coap_address_t to update.
 218:..\..\..\..\lwip\libcoap-4.3.4\include/coap3/coap_address.h ****  * @param host The parsed host from the CoAP URI with potential %2F encoding.
 219:..\..\..\..\lwip\libcoap-4.3.4\include/coap3/coap_address.h ****  * @param host_len The length of the parsed host from the CoAP URI with
 220:..\..\..\..\lwip\libcoap-4.3.4\include/coap3/coap_address.h ****  *                 potential %2F encoding.
 221:..\..\..\..\lwip\libcoap-4.3.4\include/coap3/coap_address.h ****  *
 222:..\..\..\..\lwip\libcoap-4.3.4\include/coap3/coap_address.h ****  * @return @c 1 success, @c 0 failure.
 223:..\..\..\..\lwip\libcoap-4.3.4\include/coap3/coap_address.h ****  */
 224:..\..\..\..\lwip\libcoap-4.3.4\include/coap3/coap_address.h **** int coap_address_set_unix_domain(coap_address_t *addr,
 225:..\..\..\..\lwip\libcoap-4.3.4\include/coap3/coap_address.h ****                                  const uint8_t *host, size_t host_len);
 226:..\..\..\..\lwip\libcoap-4.3.4\include/coap3/coap_address.h **** 
 227:..\..\..\..\lwip\libcoap-4.3.4\include/coap3/coap_address.h **** /* Convenience function to copy IPv6 addresses without garbage. */
 228:..\..\..\..\lwip\libcoap-4.3.4\include/coap3/coap_address.h **** #if defined(WITH_LWIP) || defined(WITH_CONTIKI)
 229:..\..\..\..\lwip\libcoap-4.3.4\include/coap3/coap_address.h **** COAP_STATIC_INLINE void
 230:..\..\..\..\lwip\libcoap-4.3.4\include/coap3/coap_address.h **** coap_address_copy(coap_address_t *dst, const coap_address_t *src) {
 231:..\..\..\..\lwip\libcoap-4.3.4\include/coap3/coap_address.h ****   memcpy(dst, src, sizeof(coap_address_t));
 232:..\..\..\..\lwip\libcoap-4.3.4\include/coap3/coap_address.h **** }
 233:..\..\..\..\lwip\libcoap-4.3.4\include/coap3/coap_address.h **** #else /* ! WITH_LWIP && ! WITH_CONTIKI */
 234:..\..\..\..\lwip\libcoap-4.3.4\include/coap3/coap_address.h **** void coap_address_copy(coap_address_t *dst, const coap_address_t *src);
 235:..\..\..\..\lwip\libcoap-4.3.4\include/coap3/coap_address.h **** #endif /* ! WITH_LWIP && ! WITH_CONTIKI */
 236:..\..\..\..\lwip\libcoap-4.3.4\include/coap3/coap_address.h **** 
 237:..\..\..\..\lwip\libcoap-4.3.4\include/coap3/coap_address.h **** #if defined(WITH_LWIP) || defined(WITH_CONTIKI)
 238:..\..\..\..\lwip\libcoap-4.3.4\include/coap3/coap_address.h **** /**
 239:..\..\..\..\lwip\libcoap-4.3.4\include/coap3/coap_address.h ****  * Compares given address objects @p a and @p b. This function returns @c 1 if
 240:..\..\..\..\lwip\libcoap-4.3.4\include/coap3/coap_address.h ****  * addresses are equal, @c 0 otherwise. The parameters @p a and @p b must not be
 241:..\..\..\..\lwip\libcoap-4.3.4\include/coap3/coap_address.h ****  * @c NULL;
 242:..\..\..\..\lwip\libcoap-4.3.4\include/coap3/coap_address.h ****  */
 243:..\..\..\..\lwip\libcoap-4.3.4\include/coap3/coap_address.h **** COAP_STATIC_INLINE int
 244:..\..\..\..\lwip\libcoap-4.3.4\include/coap3/coap_address.h **** coap_address_equals(const coap_address_t *a, const coap_address_t *b) {
 245:..\..\..\..\lwip\libcoap-4.3.4\include/coap3/coap_address.h ****   assert(a);
 839              		.loc 2 245 3 is_stmt 1
 246:..\..\..\..\lwip\libcoap-4.3.4\include/coap3/coap_address.h ****   assert(b);
 840              		.loc 2 246 3
 247:..\..\..\..\lwip\libcoap-4.3.4\include/coap3/coap_address.h ****   return _coap_address_equals_impl(a, b);
 841              		.loc 2 247 3
 842              		.loc 2 247 10 is_stmt 0
 843 0254 0356C700 		lhu	a2,12(a4)
 844 0258 8356CC00 		lhu	a3,12(s8)
 845 025c 631ED600 		bne	a2,a3,.L87
 846 0260 104B     		lw	a2,16(a4)
 847 0262 83260C01 		lw	a3,16(s8)
 848 0266 6319D600 		bne	a2,a3,.L87
 849              	.LVL87:
 850              	.LBE110:
 851              	.LBE109:
 642:C:/Users/stapi/OneDrive/Desktop/GD32VW553/V1_MQTT_OK/GD32VW55X_Wifi_BLE_SDK/GD32VW55x_RELEASE_V1.0.2/MSDK/lwip/libcoap-4.3.4/src\coap_address.c ****             /* Duplicate */
 852              		.loc 1 642 11 is_stmt 1
 644:C:/Users/stapi/OneDrive/Desktop/GD32VW553/V1_MQTT_OK/GD32VW55X_Wifi_BLE_SDK/GD32VW55x_RELEASE_V1.0.2/MSDK/lwip/libcoap-4.3.4/src\coap_address.c ****           } else {
 853              		.loc 1 644 13
 854 026a E285     		mv	a1,s8
 855 026c 0145     		li	a0,0
 856 026e 97000000 		call	coap_free_type
 856      E7800000 
 857              	.LVL88:
 858 0276 59BD     		j	.L55
 859              	.LVL89:
 860              	.L87:
 639:C:/Users/stapi/OneDrive/Desktop/GD32VW553/V1_MQTT_OK/GD32VW55X_Wifi_BLE_SDK/GD32VW55x_RELEASE_V1.0.2/MSDK/lwip/libcoap-4.3.4/src\coap_address.c ****           }
 861              		.loc 1 639 13
 639:C:/Users/stapi/OneDrive/Desktop/GD32VW553/V1_MQTT_OK/GD32VW55X_Wifi_BLE_SDK/GD32VW55x_RELEASE_V1.0.2/MSDK/lwip/libcoap-4.3.4/src\coap_address.c ****           }
 862              		.loc 1 639 22 is_stmt 0
 863 0278 1843     		lw	a4,0(a4)
 864              	.LVL90:
 865 027a 69B7     		j	.L80
 866              	.L144:
 651:C:/Users/stapi/OneDrive/Desktop/GD32VW553/V1_MQTT_OK/GD32VW55X_Wifi_BLE_SDK/GD32VW55x_RELEASE_V1.0.2/MSDK/lwip/libcoap-4.3.4/src\coap_address.c ****               info_prev = info;
 867              		.loc 1 651 15 is_stmt 1
 651:C:/Users/stapi/OneDrive/Desktop/GD32VW553/V1_MQTT_OK/GD32VW55X_Wifi_BLE_SDK/GD32VW55x_RELEASE_V1.0.2/MSDK/lwip/libcoap-4.3.4/src\coap_address.c ****               info_prev = info;
 868              		.loc 1 651 31 is_stmt 0
 869 027c 23A08B01 		sw	s8,0(s7)
 652:C:/Users/stapi/OneDrive/Desktop/GD32VW553/V1_MQTT_OK/GD32VW55X_Wifi_BLE_SDK/GD32VW55x_RELEASE_V1.0.2/MSDK/lwip/libcoap-4.3.4/src\coap_address.c ****             }
 870              		.loc 1 652 15 is_stmt 1
 871              	.LVL91:
 651:C:/Users/stapi/OneDrive/Desktop/GD32VW553/V1_MQTT_OK/GD32VW55X_Wifi_BLE_SDK/GD32VW55x_RELEASE_V1.0.2/MSDK/lwip/libcoap-4.3.4/src\coap_address.c ****               info_prev = info;
 872              		.loc 1 651 31 is_stmt 0
 873 0280 E28B     		mv	s7,s8
 874              	.LVL92:
 875 0282 69B5     		j	.L55
 876              		.cfi_endproc
 877              	.LFE35:
 879              		.section	.text.coap_free_address_info,"ax",@progbits
 880              		.align	1
 881              		.globl	coap_free_address_info
 883              	coap_free_address_info:
 884              	.LFB36:
 784:C:/Users/stapi/OneDrive/Desktop/GD32VW553/V1_MQTT_OK/GD32VW55X_Wifi_BLE_SDK/GD32VW55x_RELEASE_V1.0.2/MSDK/lwip/libcoap-4.3.4/src\coap_address.c **** #endif /* !WITH_CONTIKI */
 785:C:/Users/stapi/OneDrive/Desktop/GD32VW553/V1_MQTT_OK/GD32VW55X_Wifi_BLE_SDK/GD32VW55x_RELEASE_V1.0.2/MSDK/lwip/libcoap-4.3.4/src\coap_address.c **** 
 786:C:/Users/stapi/OneDrive/Desktop/GD32VW553/V1_MQTT_OK/GD32VW55X_Wifi_BLE_SDK/GD32VW55x_RELEASE_V1.0.2/MSDK/lwip/libcoap-4.3.4/src\coap_address.c **** void
 787:C:/Users/stapi/OneDrive/Desktop/GD32VW553/V1_MQTT_OK/GD32VW55X_Wifi_BLE_SDK/GD32VW55x_RELEASE_V1.0.2/MSDK/lwip/libcoap-4.3.4/src\coap_address.c **** coap_free_address_info(coap_addr_info_t *info) {
 885              		.loc 1 787 48 is_stmt 1
 886              		.cfi_startproc
 887              	.LVL93:
 788:C:/Users/stapi/OneDrive/Desktop/GD32VW553/V1_MQTT_OK/GD32VW55X_Wifi_BLE_SDK/GD32VW55x_RELEASE_V1.0.2/MSDK/lwip/libcoap-4.3.4/src\coap_address.c ****   while (info) {
 888              		.loc 1 788 3
 889              		.loc 1 788 9
 787:C:/Users/stapi/OneDrive/Desktop/GD32VW553/V1_MQTT_OK/GD32VW55X_Wifi_BLE_SDK/GD32VW55x_RELEASE_V1.0.2/MSDK/lwip/libcoap-4.3.4/src\coap_address.c ****   while (info) {
 890              		.loc 1 787 48 is_stmt 0
 891 0000 AA85     		mv	a1,a0
 892              		.loc 1 788 9
 893 0002 11E1     		bne	a0,zero,.L169
 894 0004 8280     		ret
 895              	.L169:
 787:C:/Users/stapi/OneDrive/Desktop/GD32VW553/V1_MQTT_OK/GD32VW55X_Wifi_BLE_SDK/GD32VW55x_RELEASE_V1.0.2/MSDK/lwip/libcoap-4.3.4/src\coap_address.c ****   while (info) {
 896              		.loc 1 787 48
 897 0006 17030000 		call	t0,__riscv_save_1
 897      E7020300 
 898              		.cfi_offset 8, -8
 899              		.cfi_offset 1, -4
 900              		.cfi_def_cfa_offset 16
 901              	.LVL94:
 902              	.L166:
 903              	.LBB111:
 789:C:/Users/stapi/OneDrive/Desktop/GD32VW553/V1_MQTT_OK/GD32VW55X_Wifi_BLE_SDK/GD32VW55x_RELEASE_V1.0.2/MSDK/lwip/libcoap-4.3.4/src\coap_address.c ****     coap_addr_info_t *info_next = info->next;
 904              		.loc 1 789 5 is_stmt 1
 905              		.loc 1 789 23 is_stmt 0
 906 000e 8041     		lw	s0,0(a1)
 907              	.LVL95:
 790:C:/Users/stapi/OneDrive/Desktop/GD32VW553/V1_MQTT_OK/GD32VW55X_Wifi_BLE_SDK/GD32VW55x_RELEASE_V1.0.2/MSDK/lwip/libcoap-4.3.4/src\coap_address.c **** 
 791:C:/Users/stapi/OneDrive/Desktop/GD32VW553/V1_MQTT_OK/GD32VW55X_Wifi_BLE_SDK/GD32VW55x_RELEASE_V1.0.2/MSDK/lwip/libcoap-4.3.4/src\coap_address.c ****     coap_free_type(COAP_STRING, info);
 908              		.loc 1 791 5 is_stmt 1
 909 0010 0145     		li	a0,0
 910 0012 97000000 		call	coap_free_type
 910      E7800000 
 911              	.LVL96:
 792:C:/Users/stapi/OneDrive/Desktop/GD32VW553/V1_MQTT_OK/GD32VW55X_Wifi_BLE_SDK/GD32VW55x_RELEASE_V1.0.2/MSDK/lwip/libcoap-4.3.4/src\coap_address.c ****     info = info_next;
 912              		.loc 1 792 5
 913              		.loc 1 792 10 is_stmt 0
 914 001a A285     		mv	a1,s0
 915              	.LBE111:
 788:C:/Users/stapi/OneDrive/Desktop/GD32VW553/V1_MQTT_OK/GD32VW55X_Wifi_BLE_SDK/GD32VW55x_RELEASE_V1.0.2/MSDK/lwip/libcoap-4.3.4/src\coap_address.c ****     coap_addr_info_t *info_next = info->next;
 916              		.loc 1 788 9 is_stmt 1
 917 001c 6DF8     		bne	s0,zero,.L166
 793:C:/Users/stapi/OneDrive/Desktop/GD32VW553/V1_MQTT_OK/GD32VW55X_Wifi_BLE_SDK/GD32VW55x_RELEASE_V1.0.2/MSDK/lwip/libcoap-4.3.4/src\coap_address.c ****   }
 794:C:/Users/stapi/OneDrive/Desktop/GD32VW553/V1_MQTT_OK/GD32VW55X_Wifi_BLE_SDK/GD32VW55x_RELEASE_V1.0.2/MSDK/lwip/libcoap-4.3.4/src\coap_address.c **** }
 918              		.loc 1 794 1 is_stmt 0
 919 001e 17030000 		tail	__riscv_restore_1
 919      67000300 
 920              		.cfi_restore 8
 921              		.cfi_restore 1
 922              		.cfi_def_cfa_offset 0
 923              		.cfi_endproc
 924              	.LFE36:
 926              		.section	.bss.addrstr.1,"aw",@nobits
 927              		.align	2
 928              		.set	.LANCHOR2,. + 0
 931              	addrstr.1:
 932 0000 00000000 		.zero	256
 932      00000000 
 932      00000000 
 932      00000000 
 932      00000000 
 933              		.section	.rodata.__func__.2,"a"
 934              		.align	2
 935              		.set	.LANCHOR0,. + 0
 938              	__func__.2:
 939 0000 636F6170 		.string	"coap_address_init"
 939      5F616464 
 939      72657373 
 939      5F696E69 
 939      7400
 940              		.section	.srodata.CSWTCH.9,"a"
 941              		.align	2
 942              		.set	.LANCHOR1,. + 0
 945              	CSWTCH.9:
 946 0000 01       		.byte	1
 947 0001 02       		.byte	2
 948 0002 04       		.byte	4
 949 0003 08       		.byte	8
 950 0004 40       		.byte	64
 951 0005 80       		.byte	-128
 952              		.text
 953              	.Letext0:
 954              		.file 3 "c:\\users\\stapi\\onedrive\\desktop\\gd32vw553\\embeddedbuilder_v1.4.7.26843\\tools\\nucl
 955              		.file 4 "c:\\users\\stapi\\onedrive\\desktop\\gd32vw553\\embeddedbuilder_v1.4.7.26843\\tools\\nucl
 956              		.file 5 "c:\\users\\stapi\\onedrive\\desktop\\gd32vw553\\embeddedbuilder_v1.4.7.26843\\tools\\nucl
 957              		.file 6 "..\\..\\..\\..\\lwip\\lwip-2.1.2\\src\\include/lwip/arch.h"
 958              		.file 7 "..\\..\\..\\..\\lwip\\libcoap-4.3.4\\include/coap3/coap_forward_decls.h"
 959              		.file 8 "..\\..\\..\\..\\lwip\\libcoap-4.3.4\\include/coap3/coap_str.h"
 960              		.file 9 "..\\..\\..\\..\\lwip\\libcoap-4.3.4\\include/coap3/coap_uri.h"
 961              		.file 10 "..\\..\\..\\..\\lwip\\libcoap-4.3.4\\include/coap3/coap_pdu.h"
 962              		.file 11 "..\\..\\..\\..\\lwip\\lwip-2.1.2\\src\\include/lwip/ip4_addr.h"
 963              		.file 12 "..\\..\\..\\..\\lwip\\lwip-2.1.2\\src\\include/lwip/ip_addr.h"
 964              		.file 13 "..\\..\\..\\..\\lwip\\lwip-2.1.2\\src\\include/lwip/inet.h"
 965              		.file 14 "..\\..\\..\\..\\lwip\\lwip-2.1.2\\src\\include/lwip/sockets.h"
 966              		.file 15 "..\\..\\..\\..\\lwip\\libcoap-4.3.4\\include/coap3/coap_debug.h"
 967              		.file 16 "..\\..\\..\\..\\lwip\\libcoap-4.3.4\\include/coap3/coap_mem.h"
 968              		.file 17 "..\\..\\..\\..\\lwip\\lwip-2.1.2\\src\\include/lwip/netdb.h"
 969              		.file 18 "..\\..\\..\\..\\lwip\\lwip-2.1.2\\src\\include/lwip/def.h"
 970              		.file 19 "<built-in>"
 971              		.file 20 "..\\..\\..\\..\\lwip\\libcoap-4.3.4\\include/coap3/coap_dtls.h"
 972              		.file 21 "..\\..\\..\\..\\lwip\\libcoap-4.3.4\\include/coap3/coap_io.h"
 973              		.file 22 "..\\..\\..\\..\\lwip\\libcoap-4.3.4\\include/coap3/coap_ws.h"
 974              		.file 23 "c:\\users\\stapi\\onedrive\\desktop\\gd32vw553\\embeddedbuilder_v1.4.7.26843\\tools\\nuc
DEFINED SYMBOLS
                            *ABS*:0000000000000000 coap_address.c
C:\Users\stapi\AppData\Local\Temp\ccnJwkqC.s:20     .text.coap_address_init:0000000000000000 coap_address_init
C:\Users\stapi\AppData\Local\Temp\ccnJwkqC.s:24     .text.coap_address_init:0000000000000000 .L0 
C:\Users\stapi\AppData\Local\Temp\ccnJwkqC.s:26     .text.coap_address_init:0000000000000000 .L0 
C:\Users\stapi\AppData\Local\Temp\ccnJwkqC.s:27     .text.coap_address_init:0000000000000008 .L0 
C:\Users\stapi\AppData\Local\Temp\ccnJwkqC.s:28     .text.coap_address_init:0000000000000008 .L0 
C:\Users\stapi\AppData\Local\Temp\ccnJwkqC.s:30     .text.coap_address_init:0000000000000008 .L0 
C:\Users\stapi\AppData\Local\Temp\ccnJwkqC.s:48     .text.coap_address_init:000000000000002e .L0 
C:\Users\stapi\AppData\Local\Temp\ccnJwkqC.s:53     .text.coap_address_init:000000000000003a .L0 
C:\Users\stapi\AppData\Local\Temp\ccnJwkqC.s:54     .text.coap_address_init:0000000000000042 .L0 
C:\Users\stapi\AppData\Local\Temp\ccnJwkqC.s:55     .text.coap_address_init:0000000000000042 .L0 
C:\Users\stapi\AppData\Local\Temp\ccnJwkqC.s:56     .text.coap_address_init:0000000000000042 .L0 
C:\Users\stapi\AppData\Local\Temp\ccnJwkqC.s:63     .text.coap_address_set_unix_domain:0000000000000000 coap_address_set_unix_domain
C:\Users\stapi\AppData\Local\Temp\ccnJwkqC.s:66     .text.coap_address_set_unix_domain:0000000000000000 .L0 
C:\Users\stapi\AppData\Local\Temp\ccnJwkqC.s:68     .text.coap_address_set_unix_domain:0000000000000000 .L0 
C:\Users\stapi\AppData\Local\Temp\ccnJwkqC.s:69     .text.coap_address_set_unix_domain:0000000000000000 .L0 
C:\Users\stapi\AppData\Local\Temp\ccnJwkqC.s:70     .text.coap_address_set_unix_domain:0000000000000000 .L0 
C:\Users\stapi\AppData\Local\Temp\ccnJwkqC.s:71     .text.coap_address_set_unix_domain:0000000000000000 .L0 
C:\Users\stapi\AppData\Local\Temp\ccnJwkqC.s:72     .text.coap_address_set_unix_domain:0000000000000000 .L0 
C:\Users\stapi\AppData\Local\Temp\ccnJwkqC.s:73     .text.coap_address_set_unix_domain:0000000000000000 .L0 
C:\Users\stapi\AppData\Local\Temp\ccnJwkqC.s:76     .text.coap_address_set_unix_domain:0000000000000004 .L0 
C:\Users\stapi\AppData\Local\Temp\ccnJwkqC.s:83     .text.coap_get_available_scheme_hint_bits:0000000000000000 coap_get_available_scheme_hint_bits
C:\Users\stapi\AppData\Local\Temp\ccnJwkqC.s:86     .text.coap_get_available_scheme_hint_bits:0000000000000000 .L0 
C:\Users\stapi\AppData\Local\Temp\ccnJwkqC.s:88     .text.coap_get_available_scheme_hint_bits:0000000000000000 .L0 
C:\Users\stapi\AppData\Local\Temp\ccnJwkqC.s:89     .text.coap_get_available_scheme_hint_bits:0000000000000008 .L0 
C:\Users\stapi\AppData\Local\Temp\ccnJwkqC.s:90     .text.coap_get_available_scheme_hint_bits:0000000000000008 .L0 
C:\Users\stapi\AppData\Local\Temp\ccnJwkqC.s:91     .text.coap_get_available_scheme_hint_bits:0000000000000008 .L0 
C:\Users\stapi\AppData\Local\Temp\ccnJwkqC.s:92     .text.coap_get_available_scheme_hint_bits:0000000000000008 .L0 
C:\Users\stapi\AppData\Local\Temp\ccnJwkqC.s:93     .text.coap_get_available_scheme_hint_bits:0000000000000008 .L0 
C:\Users\stapi\AppData\Local\Temp\ccnJwkqC.s:94     .text.coap_get_available_scheme_hint_bits:0000000000000008 .L0 
C:\Users\stapi\AppData\Local\Temp\ccnJwkqC.s:95     .text.coap_get_available_scheme_hint_bits:0000000000000008 .L0 
C:\Users\stapi\AppData\Local\Temp\ccnJwkqC.s:96     .text.coap_get_available_scheme_hint_bits:0000000000000008 .L0 
C:\Users\stapi\AppData\Local\Temp\ccnJwkqC.s:97     .text.coap_get_available_scheme_hint_bits:0000000000000008 .L0 
C:\Users\stapi\AppData\Local\Temp\ccnJwkqC.s:98     .text.coap_get_available_scheme_hint_bits:0000000000000008 .L0 
C:\Users\stapi\AppData\Local\Temp\ccnJwkqC.s:101    .text.coap_get_available_scheme_hint_bits:0000000000000008 .L0 
C:\Users\stapi\AppData\Local\Temp\ccnJwkqC.s:102    .text.coap_get_available_scheme_hint_bits:0000000000000008 .L0 
C:\Users\stapi\AppData\Local\Temp\ccnJwkqC.s:103    .text.coap_get_available_scheme_hint_bits:0000000000000008 .L0 
C:\Users\stapi\AppData\Local\Temp\ccnJwkqC.s:104    .text.coap_get_available_scheme_hint_bits:0000000000000008 .L0 
C:\Users\stapi\AppData\Local\Temp\ccnJwkqC.s:106    .text.coap_get_available_scheme_hint_bits:000000000000000c .L0 
C:\Users\stapi\AppData\Local\Temp\ccnJwkqC.s:110    .text.coap_get_available_scheme_hint_bits:0000000000000012 .L0 
C:\Users\stapi\AppData\Local\Temp\ccnJwkqC.s:112    .text.coap_get_available_scheme_hint_bits:0000000000000014 .L0 
C:\Users\stapi\AppData\Local\Temp\ccnJwkqC.s:116    .text.coap_get_available_scheme_hint_bits:000000000000001c .L0 
C:\Users\stapi\AppData\Local\Temp\ccnJwkqC.s:120    .text.coap_get_available_scheme_hint_bits:000000000000001e .L0 
C:\Users\stapi\AppData\Local\Temp\ccnJwkqC.s:140    .text.coap_get_available_scheme_hint_bits:000000000000002a .L0 
C:\Users\stapi\AppData\Local\Temp\ccnJwkqC.s:141    .text.coap_get_available_scheme_hint_bits:000000000000002a .L0 
C:\Users\stapi\AppData\Local\Temp\ccnJwkqC.s:145    .text.coap_get_available_scheme_hint_bits:000000000000002e .L0 
C:\Users\stapi\AppData\Local\Temp\ccnJwkqC.s:146    .text.coap_get_available_scheme_hint_bits:000000000000002e .L0 
C:\Users\stapi\AppData\Local\Temp\ccnJwkqC.s:147    .text.coap_get_available_scheme_hint_bits:000000000000002e .L0 
C:\Users\stapi\AppData\Local\Temp\ccnJwkqC.s:150    .text.coap_get_available_scheme_hint_bits:0000000000000030 .L0 
C:\Users\stapi\AppData\Local\Temp\ccnJwkqC.s:151    .text.coap_get_available_scheme_hint_bits:0000000000000030 .L0 
C:\Users\stapi\AppData\Local\Temp\ccnJwkqC.s:154    .text.coap_get_available_scheme_hint_bits:0000000000000034 .L0 
C:\Users\stapi\AppData\Local\Temp\ccnJwkqC.s:164    .text.coap_get_available_scheme_hint_bits:000000000000004c .L0 
C:\Users\stapi\AppData\Local\Temp\ccnJwkqC.s:165    .text.coap_get_available_scheme_hint_bits:000000000000004c .L0 
C:\Users\stapi\AppData\Local\Temp\ccnJwkqC.s:167    .text.coap_get_available_scheme_hint_bits:0000000000000056 .L0 
C:\Users\stapi\AppData\Local\Temp\ccnJwkqC.s:168    .text.coap_get_available_scheme_hint_bits:0000000000000056 .L0 
C:\Users\stapi\AppData\Local\Temp\ccnJwkqC.s:169    .text.coap_get_available_scheme_hint_bits:0000000000000056 .L0 
C:\Users\stapi\AppData\Local\Temp\ccnJwkqC.s:170    .text.coap_get_available_scheme_hint_bits:0000000000000056 .L0 
C:\Users\stapi\AppData\Local\Temp\ccnJwkqC.s:171    .text.coap_get_available_scheme_hint_bits:0000000000000056 .L0 
C:\Users\stapi\AppData\Local\Temp\ccnJwkqC.s:172    .text.coap_get_available_scheme_hint_bits:0000000000000056 .L0 
C:\Users\stapi\AppData\Local\Temp\ccnJwkqC.s:173    .text.coap_get_available_scheme_hint_bits:0000000000000056 .L0 
C:\Users\stapi\AppData\Local\Temp\ccnJwkqC.s:174    .text.coap_get_available_scheme_hint_bits:0000000000000056 .L0 
C:\Users\stapi\AppData\Local\Temp\ccnJwkqC.s:175    .text.coap_get_available_scheme_hint_bits:0000000000000056 .L0 
C:\Users\stapi\AppData\Local\Temp\ccnJwkqC.s:176    .text.coap_get_available_scheme_hint_bits:0000000000000056 .L0 
C:\Users\stapi\AppData\Local\Temp\ccnJwkqC.s:177    .text.coap_get_available_scheme_hint_bits:0000000000000056 .L0 
C:\Users\stapi\AppData\Local\Temp\ccnJwkqC.s:180    .text.coap_get_available_scheme_hint_bits:0000000000000056 .L0 
C:\Users\stapi\AppData\Local\Temp\ccnJwkqC.s:182    .text.coap_get_available_scheme_hint_bits:0000000000000056 .L0 
C:\Users\stapi\AppData\Local\Temp\ccnJwkqC.s:183    .text.coap_get_available_scheme_hint_bits:0000000000000056 .L0 
C:\Users\stapi\AppData\Local\Temp\ccnJwkqC.s:186    .text.coap_get_available_scheme_hint_bits:000000000000005e .L0 
C:\Users\stapi\AppData\Local\Temp\ccnJwkqC.s:188    .text.coap_get_available_scheme_hint_bits:0000000000000060 .L0 
C:\Users\stapi\AppData\Local\Temp\ccnJwkqC.s:190    .text.coap_get_available_scheme_hint_bits:0000000000000064 .L0 
C:\Users\stapi\AppData\Local\Temp\ccnJwkqC.s:191    .text.coap_get_available_scheme_hint_bits:0000000000000064 .L0 
C:\Users\stapi\AppData\Local\Temp\ccnJwkqC.s:194    .text.coap_get_available_scheme_hint_bits:0000000000000068 .L0 
C:\Users\stapi\AppData\Local\Temp\ccnJwkqC.s:197    .text.coap_get_available_scheme_hint_bits:000000000000006a .L0 
C:\Users\stapi\AppData\Local\Temp\ccnJwkqC.s:198    .text.coap_get_available_scheme_hint_bits:000000000000006a .L0 
C:\Users\stapi\AppData\Local\Temp\ccnJwkqC.s:201    .text.coap_get_available_scheme_hint_bits:0000000000000072 .L0 
C:\Users\stapi\AppData\Local\Temp\ccnJwkqC.s:203    .text.coap_get_available_scheme_hint_bits:0000000000000074 .L0 
C:\Users\stapi\AppData\Local\Temp\ccnJwkqC.s:204    .text.coap_get_available_scheme_hint_bits:0000000000000074 .L0 
C:\Users\stapi\AppData\Local\Temp\ccnJwkqC.s:207    .text.coap_get_available_scheme_hint_bits:0000000000000078 .L0 
C:\Users\stapi\AppData\Local\Temp\ccnJwkqC.s:210    .text.coap_get_available_scheme_hint_bits:000000000000007a .L0 
C:\Users\stapi\AppData\Local\Temp\ccnJwkqC.s:211    .text.coap_get_available_scheme_hint_bits:000000000000007a .L0 
C:\Users\stapi\AppData\Local\Temp\ccnJwkqC.s:214    .text.coap_get_available_scheme_hint_bits:0000000000000082 .L0 
C:\Users\stapi\AppData\Local\Temp\ccnJwkqC.s:216    .text.coap_get_available_scheme_hint_bits:0000000000000084 .L0 
C:\Users\stapi\AppData\Local\Temp\ccnJwkqC.s:218    .text.coap_get_available_scheme_hint_bits:0000000000000088 .L0 
C:\Users\stapi\AppData\Local\Temp\ccnJwkqC.s:219    .text.coap_get_available_scheme_hint_bits:0000000000000088 .L0 
C:\Users\stapi\AppData\Local\Temp\ccnJwkqC.s:222    .text.coap_get_available_scheme_hint_bits:000000000000008c .L0 
C:\Users\stapi\AppData\Local\Temp\ccnJwkqC.s:225    .text.coap_get_available_scheme_hint_bits:000000000000008e .L0 
C:\Users\stapi\AppData\Local\Temp\ccnJwkqC.s:226    .text.coap_get_available_scheme_hint_bits:000000000000008e .L0 
C:\Users\stapi\AppData\Local\Temp\ccnJwkqC.s:228    .text.coap_get_available_scheme_hint_bits:0000000000000092 .L0 
C:\Users\stapi\AppData\Local\Temp\ccnJwkqC.s:231    .text.coap_get_available_scheme_hint_bits:000000000000009a .L0 
C:\Users\stapi\AppData\Local\Temp\ccnJwkqC.s:233    .text.coap_get_available_scheme_hint_bits:000000000000009c .L0 
C:\Users\stapi\AppData\Local\Temp\ccnJwkqC.s:234    .text.coap_get_available_scheme_hint_bits:000000000000009c .L0 
C:\Users\stapi\AppData\Local\Temp\ccnJwkqC.s:237    .text.coap_get_available_scheme_hint_bits:00000000000000a0 .L0 
C:\Users\stapi\AppData\Local\Temp\ccnJwkqC.s:240    .text.coap_get_available_scheme_hint_bits:00000000000000a2 .L0 
C:\Users\stapi\AppData\Local\Temp\ccnJwkqC.s:241    .text.coap_get_available_scheme_hint_bits:00000000000000a2 .L0 
C:\Users\stapi\AppData\Local\Temp\ccnJwkqC.s:243    .text.coap_get_available_scheme_hint_bits:00000000000000a6 .L0 
C:\Users\stapi\AppData\Local\Temp\ccnJwkqC.s:246    .text.coap_get_available_scheme_hint_bits:00000000000000ae .L0 
C:\Users\stapi\AppData\Local\Temp\ccnJwkqC.s:248    .text.coap_get_available_scheme_hint_bits:00000000000000b0 .L0 
C:\Users\stapi\AppData\Local\Temp\ccnJwkqC.s:250    .text.coap_get_available_scheme_hint_bits:00000000000000b4 .L0 
C:\Users\stapi\AppData\Local\Temp\ccnJwkqC.s:251    .text.coap_get_available_scheme_hint_bits:00000000000000b4 .L0 
C:\Users\stapi\AppData\Local\Temp\ccnJwkqC.s:254    .text.coap_get_available_scheme_hint_bits:00000000000000b8 .L0 
C:\Users\stapi\AppData\Local\Temp\ccnJwkqC.s:255    .text.coap_get_available_scheme_hint_bits:00000000000000ba .L0 
C:\Users\stapi\AppData\Local\Temp\ccnJwkqC.s:272    .text.coap_resolve_address_info:0000000000000000 coap_resolve_address_info
C:\Users\stapi\AppData\Local\Temp\ccnJwkqC.s:275    .text.coap_resolve_address_info:0000000000000000 .L0 
C:\Users\stapi\AppData\Local\Temp\ccnJwkqC.s:277    .text.coap_resolve_address_info:0000000000000000 .L0 
C:\Users\stapi\AppData\Local\Temp\ccnJwkqC.s:278    .text.coap_resolve_address_info:0000000000000008 .L0 
C:\Users\stapi\AppData\Local\Temp\ccnJwkqC.s:279    .text.coap_resolve_address_info:0000000000000008 .L0 
C:\Users\stapi\AppData\Local\Temp\ccnJwkqC.s:280    .text.coap_resolve_address_info:0000000000000008 .L0 
C:\Users\stapi\AppData\Local\Temp\ccnJwkqC.s:281    .text.coap_resolve_address_info:0000000000000008 .L0 
C:\Users\stapi\AppData\Local\Temp\ccnJwkqC.s:282    .text.coap_resolve_address_info:0000000000000008 .L0 
C:\Users\stapi\AppData\Local\Temp\ccnJwkqC.s:283    .text.coap_resolve_address_info:0000000000000008 .L0 
C:\Users\stapi\AppData\Local\Temp\ccnJwkqC.s:284    .text.coap_resolve_address_info:0000000000000008 .L0 
C:\Users\stapi\AppData\Local\Temp\ccnJwkqC.s:285    .text.coap_resolve_address_info:0000000000000008 .L0 
C:\Users\stapi\AppData\Local\Temp\ccnJwkqC.s:286    .text.coap_resolve_address_info:0000000000000008 .L0 
C:\Users\stapi\AppData\Local\Temp\ccnJwkqC.s:287    .text.coap_resolve_address_info:0000000000000008 .L0 
C:\Users\stapi\AppData\Local\Temp\ccnJwkqC.s:288    .text.coap_resolve_address_info:0000000000000008 .L0 
C:\Users\stapi\AppData\Local\Temp\ccnJwkqC.s:289    .text.coap_resolve_address_info:0000000000000008 .L0 
C:\Users\stapi\AppData\Local\Temp\ccnJwkqC.s:290    .text.coap_resolve_address_info:0000000000000008 .L0 
C:\Users\stapi\AppData\Local\Temp\ccnJwkqC.s:291    .text.coap_resolve_address_info:0000000000000008 .L0 
C:\Users\stapi\AppData\Local\Temp\ccnJwkqC.s:293    .text.coap_resolve_address_info:0000000000000008 .L0 
C:\Users\stapi\AppData\Local\Temp\ccnJwkqC.s:294    .text.coap_resolve_address_info:0000000000000008 .L0 
C:\Users\stapi\AppData\Local\Temp\ccnJwkqC.s:295    .text.coap_resolve_address_info:0000000000000008 .L0 
C:\Users\stapi\AppData\Local\Temp\ccnJwkqC.s:296    .text.coap_resolve_address_info:0000000000000008 .L0 
C:\Users\stapi\AppData\Local\Temp\ccnJwkqC.s:298    .text.coap_resolve_address_info:0000000000000008 .L0 
C:\Users\stapi\AppData\Local\Temp\ccnJwkqC.s:299    .text.coap_resolve_address_info:0000000000000008 .L0 
C:\Users\stapi\AppData\Local\Temp\ccnJwkqC.s:300    .text.coap_resolve_address_info:0000000000000008 .L0 
C:\Users\stapi\AppData\Local\Temp\ccnJwkqC.s:301    .text.coap_resolve_address_info:0000000000000008 .L0 
C:\Users\stapi\AppData\Local\Temp\ccnJwkqC.s:302    .text.coap_resolve_address_info:0000000000000008 .L0 
C:\Users\stapi\AppData\Local\Temp\ccnJwkqC.s:303    .text.coap_resolve_address_info:0000000000000008 .L0 
C:\Users\stapi\AppData\Local\Temp\ccnJwkqC.s:304    .text.coap_resolve_address_info:0000000000000008 .L0 
C:\Users\stapi\AppData\Local\Temp\ccnJwkqC.s:306    .text.coap_resolve_address_info:000000000000000c .L0 
C:\Users\stapi\AppData\Local\Temp\ccnJwkqC.s:307    .text.coap_resolve_address_info:000000000000000e .L0 
C:\Users\stapi\AppData\Local\Temp\ccnJwkqC.s:309    .text.coap_resolve_address_info:000000000000000e .L0 
C:\Users\stapi\AppData\Local\Temp\ccnJwkqC.s:313    .text.coap_resolve_address_info:0000000000000014 .L0 
C:\Users\stapi\AppData\Local\Temp\ccnJwkqC.s:320    .text.coap_resolve_address_info:000000000000001e .L0 
C:\Users\stapi\AppData\Local\Temp\ccnJwkqC.s:326    .text.coap_resolve_address_info:0000000000000028 .L0 
C:\Users\stapi\AppData\Local\Temp\ccnJwkqC.s:329    .text.coap_resolve_address_info:0000000000000030 .L0 
C:\Users\stapi\AppData\Local\Temp\ccnJwkqC.s:330    .text.coap_resolve_address_info:0000000000000030 .L0 
C:\Users\stapi\AppData\Local\Temp\ccnJwkqC.s:332    .text.coap_resolve_address_info:0000000000000034 .L0 
C:\Users\stapi\AppData\Local\Temp\ccnJwkqC.s:334    .text.coap_resolve_address_info:0000000000000038 .L0 
C:\Users\stapi\AppData\Local\Temp\ccnJwkqC.s:336    .text.coap_resolve_address_info:000000000000003a .L0 
C:\Users\stapi\AppData\Local\Temp\ccnJwkqC.s:339    .text.coap_resolve_address_info:000000000000003e .L0 
C:\Users\stapi\AppData\Local\Temp\ccnJwkqC.s:343    .text.coap_resolve_address_info:000000000000004a .L0 
C:\Users\stapi\AppData\Local\Temp\ccnJwkqC.s:349    .text.coap_resolve_address_info:0000000000000058 .L0 
C:\Users\stapi\AppData\Local\Temp\ccnJwkqC.s:350    .text.coap_resolve_address_info:0000000000000058 .L0 
C:\Users\stapi\AppData\Local\Temp\ccnJwkqC.s:351    .text.coap_resolve_address_info:0000000000000058 .L0 
C:\Users\stapi\AppData\Local\Temp\ccnJwkqC.s:352    .text.coap_resolve_address_info:0000000000000058 .L0 
C:\Users\stapi\AppData\Local\Temp\ccnJwkqC.s:357    .text.coap_resolve_address_info:0000000000000062 .L0 
C:\Users\stapi\AppData\Local\Temp\ccnJwkqC.s:359    .text.coap_resolve_address_info:0000000000000064 .L0 
C:\Users\stapi\AppData\Local\Temp\ccnJwkqC.s:360    .text.coap_resolve_address_info:0000000000000064 .L0 
C:\Users\stapi\AppData\Local\Temp\ccnJwkqC.s:363    .text.coap_resolve_address_info:000000000000006c .L0 
C:\Users\stapi\AppData\Local\Temp\ccnJwkqC.s:364    .text.coap_resolve_address_info:000000000000006c .L0 
C:\Users\stapi\AppData\Local\Temp\ccnJwkqC.s:366    .text.coap_resolve_address_info:000000000000006e .L0 
C:\Users\stapi\AppData\Local\Temp\ccnJwkqC.s:367    .text.coap_resolve_address_info:000000000000006e .L0 
C:\Users\stapi\AppData\Local\Temp\ccnJwkqC.s:371    .text.coap_resolve_address_info:0000000000000078 .L0 
C:\Users\stapi\AppData\Local\Temp\ccnJwkqC.s:373    .text.coap_resolve_address_info:000000000000007a .L0 
C:\Users\stapi\AppData\Local\Temp\ccnJwkqC.s:375    .text.coap_resolve_address_info:000000000000007e .L0 
C:\Users\stapi\AppData\Local\Temp\ccnJwkqC.s:384    .text.coap_resolve_address_info:0000000000000098 .L0 
C:\Users\stapi\AppData\Local\Temp\ccnJwkqC.s:386    .text.coap_resolve_address_info:000000000000009c .L0 
C:\Users\stapi\AppData\Local\Temp\ccnJwkqC.s:387    .text.coap_resolve_address_info:000000000000009c .L0 
C:\Users\stapi\AppData\Local\Temp\ccnJwkqC.s:390    .text.coap_resolve_address_info:00000000000000a4 .L0 
C:\Users\stapi\AppData\Local\Temp\ccnJwkqC.s:391    .text.coap_resolve_address_info:00000000000000a4 .L0 
C:\Users\stapi\AppData\Local\Temp\ccnJwkqC.s:392    .text.coap_resolve_address_info:00000000000000a4 .L0 
C:\Users\stapi\AppData\Local\Temp\ccnJwkqC.s:393    .text.coap_resolve_address_info:00000000000000a4 .L0 
C:\Users\stapi\AppData\Local\Temp\ccnJwkqC.s:394    .text.coap_resolve_address_info:00000000000000a4 .L0 
C:\Users\stapi\AppData\Local\Temp\ccnJwkqC.s:395    .text.coap_resolve_address_info:00000000000000a4 .L0 
C:\Users\stapi\AppData\Local\Temp\ccnJwkqC.s:396    .text.coap_resolve_address_info:00000000000000a4 .L0 
C:\Users\stapi\AppData\Local\Temp\ccnJwkqC.s:397    .text.coap_resolve_address_info:00000000000000a4 .L0 
C:\Users\stapi\AppData\Local\Temp\ccnJwkqC.s:398    .text.coap_resolve_address_info:00000000000000a4 .L0 
C:\Users\stapi\AppData\Local\Temp\ccnJwkqC.s:399    .text.coap_resolve_address_info:00000000000000a4 .L0 
C:\Users\stapi\AppData\Local\Temp\ccnJwkqC.s:400    .text.coap_resolve_address_info:00000000000000a4 .L0 
C:\Users\stapi\AppData\Local\Temp\ccnJwkqC.s:401    .text.coap_resolve_address_info:00000000000000a4 .L0 
C:\Users\stapi\AppData\Local\Temp\ccnJwkqC.s:402    .text.coap_resolve_address_info:00000000000000a4 .L0 
C:\Users\stapi\AppData\Local\Temp\ccnJwkqC.s:403    .text.coap_resolve_address_info:00000000000000a4 .L0 
C:\Users\stapi\AppData\Local\Temp\ccnJwkqC.s:406    .text.coap_resolve_address_info:00000000000000a4 .L0 
C:\Users\stapi\AppData\Local\Temp\ccnJwkqC.s:408    .text.coap_resolve_address_info:00000000000000a4 .L0 
C:\Users\stapi\AppData\Local\Temp\ccnJwkqC.s:415    .text.coap_resolve_address_info:00000000000000b0 .L0 
C:\Users\stapi\AppData\Local\Temp\ccnJwkqC.s:419    .text.coap_resolve_address_info:00000000000000ba .L0 
C:\Users\stapi\AppData\Local\Temp\ccnJwkqC.s:425    .text.coap_resolve_address_info:00000000000000c0 .L0 
C:\Users\stapi\AppData\Local\Temp\ccnJwkqC.s:430    .text.coap_resolve_address_info:00000000000000c6 .L0 
C:\Users\stapi\AppData\Local\Temp\ccnJwkqC.s:432    .text.coap_resolve_address_info:00000000000000c8 .L0 
C:\Users\stapi\AppData\Local\Temp\ccnJwkqC.s:436    .text.coap_resolve_address_info:00000000000000ca .L0 
C:\Users\stapi\AppData\Local\Temp\ccnJwkqC.s:443    .text.coap_resolve_address_info:00000000000000d0 .L0 
C:\Users\stapi\AppData\Local\Temp\ccnJwkqC.s:444    .text.coap_resolve_address_info:00000000000000d0 .L0 
C:\Users\stapi\AppData\Local\Temp\ccnJwkqC.s:446    .text.coap_resolve_address_info:00000000000000d4 .L0 
C:\Users\stapi\AppData\Local\Temp\ccnJwkqC.s:450    .text.coap_resolve_address_info:00000000000000de .L0 
C:\Users\stapi\AppData\Local\Temp\ccnJwkqC.s:454    .text.coap_resolve_address_info:00000000000000e0 .L0 
C:\Users\stapi\AppData\Local\Temp\ccnJwkqC.s:460    .text.coap_resolve_address_info:00000000000000e4 .L0 
C:\Users\stapi\AppData\Local\Temp\ccnJwkqC.s:461    .text.coap_resolve_address_info:00000000000000e4 .L0 
C:\Users\stapi\AppData\Local\Temp\ccnJwkqC.s:464    .text.coap_resolve_address_info:00000000000000ea .L0 
C:\Users\stapi\AppData\Local\Temp\ccnJwkqC.s:466    .text.coap_resolve_address_info:00000000000000ec .L0 
C:\Users\stapi\AppData\Local\Temp\ccnJwkqC.s:487    .text.coap_resolve_address_info:0000000000000100 .L0 
C:\Users\stapi\AppData\Local\Temp\ccnJwkqC.s:488    .text.coap_resolve_address_info:0000000000000100 .L0 
C:\Users\stapi\AppData\Local\Temp\ccnJwkqC.s:491    .text.coap_resolve_address_info:0000000000000108 .L0 
C:\Users\stapi\AppData\Local\Temp\ccnJwkqC.s:493    .text.coap_resolve_address_info:000000000000010a .L0 
C:\Users\stapi\AppData\Local\Temp\ccnJwkqC.s:497    .text.coap_resolve_address_info:000000000000010c .L0 
C:\Users\stapi\AppData\Local\Temp\ccnJwkqC.s:498    .text.coap_resolve_address_info:000000000000010c .L0 
C:\Users\stapi\AppData\Local\Temp\ccnJwkqC.s:501    .text.coap_resolve_address_info:000000000000010e .L0 
C:\Users\stapi\AppData\Local\Temp\ccnJwkqC.s:502    .text.coap_resolve_address_info:000000000000010e .L0 
C:\Users\stapi\AppData\Local\Temp\ccnJwkqC.s:507    .text.coap_resolve_address_info:0000000000000114 .L0 
C:\Users\stapi\AppData\Local\Temp\ccnJwkqC.s:508    .text.coap_resolve_address_info:0000000000000114 .L0 
C:\Users\stapi\AppData\Local\Temp\ccnJwkqC.s:514    .text.coap_resolve_address_info:000000000000011a .L0 
C:\Users\stapi\AppData\Local\Temp\ccnJwkqC.s:515    .text.coap_resolve_address_info:000000000000011a .L0 
C:\Users\stapi\AppData\Local\Temp\ccnJwkqC.s:518    .text.coap_resolve_address_info:0000000000000122 .L0 
C:\Users\stapi\AppData\Local\Temp\ccnJwkqC.s:520    .text.coap_resolve_address_info:0000000000000124 .L0 
C:\Users\stapi\AppData\Local\Temp\ccnJwkqC.s:523    .text.coap_resolve_address_info:0000000000000126 .L0 
C:\Users\stapi\AppData\Local\Temp\ccnJwkqC.s:528    .text.coap_resolve_address_info:000000000000012c .L0 
C:\Users\stapi\AppData\Local\Temp\ccnJwkqC.s:529    .text.coap_resolve_address_info:000000000000012c .L0 
C:\Users\stapi\AppData\Local\Temp\ccnJwkqC.s:532    .text.coap_resolve_address_info:0000000000000134 .L0 
C:\Users\stapi\AppData\Local\Temp\ccnJwkqC.s:534    .text.coap_resolve_address_info:0000000000000136 .L0 
C:\Users\stapi\AppData\Local\Temp\ccnJwkqC.s:537    .text.coap_resolve_address_info:0000000000000138 .L0 
C:\Users\stapi\AppData\Local\Temp\ccnJwkqC.s:538    .text.coap_resolve_address_info:0000000000000138 .L0 
C:\Users\stapi\AppData\Local\Temp\ccnJwkqC.s:542    .text.coap_resolve_address_info:000000000000013a .L0 
C:\Users\stapi\AppData\Local\Temp\ccnJwkqC.s:546    .text.coap_resolve_address_info:0000000000000144 .L0 
C:\Users\stapi\AppData\Local\Temp\ccnJwkqC.s:547    .text.coap_resolve_address_info:0000000000000144 .L0 
C:\Users\stapi\AppData\Local\Temp\ccnJwkqC.s:551    .text.coap_resolve_address_info:0000000000000146 .L0 
C:\Users\stapi\AppData\Local\Temp\ccnJwkqC.s:552    .text.coap_resolve_address_info:0000000000000146 .L0 
C:\Users\stapi\AppData\Local\Temp\ccnJwkqC.s:555    .text.coap_resolve_address_info:000000000000014e .L0 
C:\Users\stapi\AppData\Local\Temp\ccnJwkqC.s:557    .text.coap_resolve_address_info:0000000000000150 .L0 
C:\Users\stapi\AppData\Local\Temp\ccnJwkqC.s:561    .text.coap_resolve_address_info:0000000000000154 .L0 
C:\Users\stapi\AppData\Local\Temp\ccnJwkqC.s:562    .text.coap_resolve_address_info:0000000000000154 .L0 
C:\Users\stapi\AppData\Local\Temp\ccnJwkqC.s:566    .text.coap_resolve_address_info:000000000000015c .L0 
C:\Users\stapi\AppData\Local\Temp\ccnJwkqC.s:568    .text.coap_resolve_address_info:000000000000015e .L0 
C:\Users\stapi\AppData\Local\Temp\ccnJwkqC.s:572    .text.coap_resolve_address_info:0000000000000162 .L0 
C:\Users\stapi\AppData\Local\Temp\ccnJwkqC.s:573    .text.coap_resolve_address_info:0000000000000162 .L0 
C:\Users\stapi\AppData\Local\Temp\ccnJwkqC.s:578    .text.coap_resolve_address_info:000000000000016c .L0 
C:\Users\stapi\AppData\Local\Temp\ccnJwkqC.s:579    .text.coap_resolve_address_info:000000000000016c .L0 
C:\Users\stapi\AppData\Local\Temp\ccnJwkqC.s:582    .text.coap_resolve_address_info:0000000000000174 .L0 
C:\Users\stapi\AppData\Local\Temp\ccnJwkqC.s:584    .text.coap_resolve_address_info:0000000000000176 .L0 
C:\Users\stapi\AppData\Local\Temp\ccnJwkqC.s:588    .text.coap_resolve_address_info:000000000000017a .L0 
C:\Users\stapi\AppData\Local\Temp\ccnJwkqC.s:589    .text.coap_resolve_address_info:000000000000017a .L0 
C:\Users\stapi\AppData\Local\Temp\ccnJwkqC.s:592    .text.coap_resolve_address_info:0000000000000182 .L0 
C:\Users\stapi\AppData\Local\Temp\ccnJwkqC.s:594    .text.coap_resolve_address_info:0000000000000184 .L0 
C:\Users\stapi\AppData\Local\Temp\ccnJwkqC.s:598    .text.coap_resolve_address_info:0000000000000188 .L0 
C:\Users\stapi\AppData\Local\Temp\ccnJwkqC.s:603    .text.coap_resolve_address_info:000000000000018c .L0 
C:\Users\stapi\AppData\Local\Temp\ccnJwkqC.s:604    .text.coap_resolve_address_info:000000000000018c .L0 
C:\Users\stapi\AppData\Local\Temp\ccnJwkqC.s:606    .text.coap_resolve_address_info:000000000000018e .L0 
C:\Users\stapi\AppData\Local\Temp\ccnJwkqC.s:608    .text.coap_resolve_address_info:0000000000000192 .L0 
C:\Users\stapi\AppData\Local\Temp\ccnJwkqC.s:609    .text.coap_resolve_address_info:0000000000000192 .L0 
C:\Users\stapi\AppData\Local\Temp\ccnJwkqC.s:611    .text.coap_resolve_address_info:0000000000000196 .L0 
C:\Users\stapi\AppData\Local\Temp\ccnJwkqC.s:612    .text.coap_resolve_address_info:0000000000000196 .L0 
C:\Users\stapi\AppData\Local\Temp\ccnJwkqC.s:619    .text.coap_resolve_address_info:00000000000001a2 .L0 
C:\Users\stapi\AppData\Local\Temp\ccnJwkqC.s:625    .text.coap_resolve_address_info:00000000000001b0 .L0 
C:\Users\stapi\AppData\Local\Temp\ccnJwkqC.s:630    .text.coap_resolve_address_info:00000000000001ba .L0 
C:\Users\stapi\AppData\Local\Temp\ccnJwkqC.s:631    .text.coap_resolve_address_info:00000000000001ba .L0 
C:\Users\stapi\AppData\Local\Temp\ccnJwkqC.s:632    .text.coap_resolve_address_info:00000000000001ba .L0 
C:\Users\stapi\AppData\Local\Temp\ccnJwkqC.s:635    .text.coap_resolve_address_info:00000000000001be .L0 
C:\Users\stapi\AppData\Local\Temp\ccnJwkqC.s:636    .text.coap_resolve_address_info:00000000000001be .L0 
C:\Users\stapi\AppData\Local\Temp\ccnJwkqC.s:641    .text.coap_resolve_address_info:00000000000001cc .L0 
C:\Users\stapi\AppData\Local\Temp\ccnJwkqC.s:643    .text.coap_resolve_address_info:00000000000001ce .L0 
C:\Users\stapi\AppData\Local\Temp\ccnJwkqC.s:645    .text.coap_resolve_address_info:00000000000001d2 .L0 
C:\Users\stapi\AppData\Local\Temp\ccnJwkqC.s:652    .text.coap_resolve_address_info:00000000000001e2 .L0 
C:\Users\stapi\AppData\Local\Temp\ccnJwkqC.s:654    .text.coap_resolve_address_info:00000000000001e2 .L0 
C:\Users\stapi\AppData\Local\Temp\ccnJwkqC.s:655    .text.coap_resolve_address_info:00000000000001e2 .L0 
C:\Users\stapi\AppData\Local\Temp\ccnJwkqC.s:678    .text.coap_resolve_address_info:00000000000001f4 .L0 
C:\Users\stapi\AppData\Local\Temp\ccnJwkqC.s:679    .text.coap_resolve_address_info:00000000000001f4 .L0 
C:\Users\stapi\AppData\Local\Temp\ccnJwkqC.s:681    .text.coap_resolve_address_info:00000000000001f6 .L0 
C:\Users\stapi\AppData\Local\Temp\ccnJwkqC.s:683    .text.coap_resolve_address_info:00000000000001fa .L0 
C:\Users\stapi\AppData\Local\Temp\ccnJwkqC.s:685    .text.coap_resolve_address_info:00000000000001fc .L0 
C:\Users\stapi\AppData\Local\Temp\ccnJwkqC.s:692    .text.coap_resolve_address_info:00000000000001fe .L0 
C:\Users\stapi\AppData\Local\Temp\ccnJwkqC.s:693    .text.coap_resolve_address_info:00000000000001fe .L0 
C:\Users\stapi\AppData\Local\Temp\ccnJwkqC.s:694    .text.coap_resolve_address_info:00000000000001fe .L0 
C:\Users\stapi\AppData\Local\Temp\ccnJwkqC.s:703    .text.coap_resolve_address_info:0000000000000202 .L0 
C:\Users\stapi\AppData\Local\Temp\ccnJwkqC.s:704    .text.coap_resolve_address_info:0000000000000202 .L0 
C:\Users\stapi\AppData\Local\Temp\ccnJwkqC.s:710    .text.coap_resolve_address_info:0000000000000204 .L0 
C:\Users\stapi\AppData\Local\Temp\ccnJwkqC.s:712    .text.coap_resolve_address_info:0000000000000206 .L0 
C:\Users\stapi\AppData\Local\Temp\ccnJwkqC.s:713    .text.coap_resolve_address_info:0000000000000206 .L0 
C:\Users\stapi\AppData\Local\Temp\ccnJwkqC.s:714    .text.coap_resolve_address_info:0000000000000206 .L0 
C:\Users\stapi\AppData\Local\Temp\ccnJwkqC.s:725    .text.coap_resolve_address_info:0000000000000210 .L0 
C:\Users\stapi\AppData\Local\Temp\ccnJwkqC.s:726    .text.coap_resolve_address_info:0000000000000210 .L0 
C:\Users\stapi\AppData\Local\Temp\ccnJwkqC.s:728    .text.coap_resolve_address_info:0000000000000212 .L0 
C:\Users\stapi\AppData\Local\Temp\ccnJwkqC.s:730    .text.coap_resolve_address_info:0000000000000214 .L0 
C:\Users\stapi\AppData\Local\Temp\ccnJwkqC.s:732    .text.coap_resolve_address_info:0000000000000216 .L0 
C:\Users\stapi\AppData\Local\Temp\ccnJwkqC.s:737    .text.coap_resolve_address_info:0000000000000218 .L0 
C:\Users\stapi\AppData\Local\Temp\ccnJwkqC.s:738    .text.coap_resolve_address_info:0000000000000218 .L0 
C:\Users\stapi\AppData\Local\Temp\ccnJwkqC.s:748    .text.coap_resolve_address_info:000000000000021a .L0 
C:\Users\stapi\AppData\Local\Temp\ccnJwkqC.s:749    .text.coap_resolve_address_info:000000000000021a .L0 
C:\Users\stapi\AppData\Local\Temp\ccnJwkqC.s:751    .text.coap_resolve_address_info:000000000000021c .L0 
C:\Users\stapi\AppData\Local\Temp\ccnJwkqC.s:759    .text.coap_resolve_address_info:000000000000021e .L0 
C:\Users\stapi\AppData\Local\Temp\ccnJwkqC.s:761    .text.coap_resolve_address_info:0000000000000220 .L0 
C:\Users\stapi\AppData\Local\Temp\ccnJwkqC.s:766    .text.coap_resolve_address_info:0000000000000224 .L0 
C:\Users\stapi\AppData\Local\Temp\ccnJwkqC.s:767    .text.coap_resolve_address_info:0000000000000224 .L0 
C:\Users\stapi\AppData\Local\Temp\ccnJwkqC.s:777    .text.coap_resolve_address_info:0000000000000226 .L0 
C:\Users\stapi\AppData\Local\Temp\ccnJwkqC.s:778    .text.coap_resolve_address_info:0000000000000226 .L0 
C:\Users\stapi\AppData\Local\Temp\ccnJwkqC.s:780    .text.coap_resolve_address_info:0000000000000228 .L0 
C:\Users\stapi\AppData\Local\Temp\ccnJwkqC.s:788    .text.coap_resolve_address_info:000000000000022c .L0 
C:\Users\stapi\AppData\Local\Temp\ccnJwkqC.s:790    .text.coap_resolve_address_info:000000000000022e .L0 
C:\Users\stapi\AppData\Local\Temp\ccnJwkqC.s:795    .text.coap_resolve_address_info:0000000000000232 .L0 
C:\Users\stapi\AppData\Local\Temp\ccnJwkqC.s:796    .text.coap_resolve_address_info:0000000000000232 .L0 
C:\Users\stapi\AppData\Local\Temp\ccnJwkqC.s:806    .text.coap_resolve_address_info:0000000000000234 .L0 
C:\Users\stapi\AppData\Local\Temp\ccnJwkqC.s:807    .text.coap_resolve_address_info:0000000000000234 .L0 
C:\Users\stapi\AppData\Local\Temp\ccnJwkqC.s:809    .text.coap_resolve_address_info:0000000000000236 .L0 
C:\Users\stapi\AppData\Local\Temp\ccnJwkqC.s:818    .text.coap_resolve_address_info:000000000000023a .L0 
C:\Users\stapi\AppData\Local\Temp\ccnJwkqC.s:819    .text.coap_resolve_address_info:000000000000023a .L0 
C:\Users\stapi\AppData\Local\Temp\ccnJwkqC.s:821    .text.coap_resolve_address_info:000000000000023c .L0 
C:\Users\stapi\AppData\Local\Temp\ccnJwkqC.s:828    .text.coap_resolve_address_info:0000000000000240 .L0 
C:\Users\stapi\AppData\Local\Temp\ccnJwkqC.s:829    .text.coap_resolve_address_info:0000000000000240 .L0 
C:\Users\stapi\AppData\Local\Temp\ccnJwkqC.s:833    .text.coap_resolve_address_info:000000000000024a .L0 
C:\Users\stapi\AppData\Local\Temp\ccnJwkqC.s:840    .text.coap_resolve_address_info:0000000000000254 .L0 
C:\Users\stapi\AppData\Local\Temp\ccnJwkqC.s:841    .text.coap_resolve_address_info:0000000000000254 .L0 
C:\Users\stapi\AppData\Local\Temp\ccnJwkqC.s:842    .text.coap_resolve_address_info:0000000000000254 .L0 
C:\Users\stapi\AppData\Local\Temp\ccnJwkqC.s:843    .text.coap_resolve_address_info:0000000000000254 .L0 
C:\Users\stapi\AppData\Local\Temp\ccnJwkqC.s:853    .text.coap_resolve_address_info:000000000000026a .L0 
C:\Users\stapi\AppData\Local\Temp\ccnJwkqC.s:854    .text.coap_resolve_address_info:000000000000026a .L0 
C:\Users\stapi\AppData\Local\Temp\ccnJwkqC.s:862    .text.coap_resolve_address_info:0000000000000278 .L0 
C:\Users\stapi\AppData\Local\Temp\ccnJwkqC.s:863    .text.coap_resolve_address_info:0000000000000278 .L0 
C:\Users\stapi\AppData\Local\Temp\ccnJwkqC.s:868    .text.coap_resolve_address_info:000000000000027c .L0 
C:\Users\stapi\AppData\Local\Temp\ccnJwkqC.s:869    .text.coap_resolve_address_info:000000000000027c .L0 
C:\Users\stapi\AppData\Local\Temp\ccnJwkqC.s:872    .text.coap_resolve_address_info:0000000000000280 .L0 
C:\Users\stapi\AppData\Local\Temp\ccnJwkqC.s:873    .text.coap_resolve_address_info:0000000000000280 .L0 
C:\Users\stapi\AppData\Local\Temp\ccnJwkqC.s:876    .text.coap_resolve_address_info:0000000000000284 .L0 
C:\Users\stapi\AppData\Local\Temp\ccnJwkqC.s:883    .text.coap_free_address_info:0000000000000000 coap_free_address_info
C:\Users\stapi\AppData\Local\Temp\ccnJwkqC.s:886    .text.coap_free_address_info:0000000000000000 .L0 
C:\Users\stapi\AppData\Local\Temp\ccnJwkqC.s:888    .text.coap_free_address_info:0000000000000000 .L0 
C:\Users\stapi\AppData\Local\Temp\ccnJwkqC.s:889    .text.coap_free_address_info:0000000000000000 .L0 
C:\Users\stapi\AppData\Local\Temp\ccnJwkqC.s:890    .text.coap_free_address_info:0000000000000000 .L0 
C:\Users\stapi\AppData\Local\Temp\ccnJwkqC.s:891    .text.coap_free_address_info:0000000000000000 .L0 
C:\Users\stapi\AppData\Local\Temp\ccnJwkqC.s:893    .text.coap_free_address_info:0000000000000002 .L0 
C:\Users\stapi\AppData\Local\Temp\ccnJwkqC.s:897    .text.coap_free_address_info:0000000000000006 .L0 
C:\Users\stapi\AppData\Local\Temp\ccnJwkqC.s:898    .text.coap_free_address_info:000000000000000e .L0 
C:\Users\stapi\AppData\Local\Temp\ccnJwkqC.s:899    .text.coap_free_address_info:000000000000000e .L0 
C:\Users\stapi\AppData\Local\Temp\ccnJwkqC.s:900    .text.coap_free_address_info:000000000000000e .L0 
C:\Users\stapi\AppData\Local\Temp\ccnJwkqC.s:905    .text.coap_free_address_info:000000000000000e .L0 
C:\Users\stapi\AppData\Local\Temp\ccnJwkqC.s:906    .text.coap_free_address_info:000000000000000e .L0 
C:\Users\stapi\AppData\Local\Temp\ccnJwkqC.s:909    .text.coap_free_address_info:0000000000000010 .L0 
C:\Users\stapi\AppData\Local\Temp\ccnJwkqC.s:913    .text.coap_free_address_info:000000000000001a .L0 
C:\Users\stapi\AppData\Local\Temp\ccnJwkqC.s:914    .text.coap_free_address_info:000000000000001a .L0 
C:\Users\stapi\AppData\Local\Temp\ccnJwkqC.s:917    .text.coap_free_address_info:000000000000001c .L0 
C:\Users\stapi\AppData\Local\Temp\ccnJwkqC.s:919    .text.coap_free_address_info:000000000000001e .L0 
C:\Users\stapi\AppData\Local\Temp\ccnJwkqC.s:920    .text.coap_free_address_info:0000000000000026 .L0 
C:\Users\stapi\AppData\Local\Temp\ccnJwkqC.s:921    .text.coap_free_address_info:0000000000000026 .L0 
C:\Users\stapi\AppData\Local\Temp\ccnJwkqC.s:922    .text.coap_free_address_info:0000000000000026 .L0 
C:\Users\stapi\AppData\Local\Temp\ccnJwkqC.s:923    .text.coap_free_address_info:0000000000000026 .L0 
C:\Users\stapi\AppData\Local\Temp\ccnJwkqC.s:928    .bss.addrstr.1:0000000000000000 .LANCHOR2
C:\Users\stapi\AppData\Local\Temp\ccnJwkqC.s:931    .bss.addrstr.1:0000000000000000 addrstr.1
C:\Users\stapi\AppData\Local\Temp\ccnJwkqC.s:935    .rodata.__func__.2:0000000000000000 .LANCHOR0
C:\Users\stapi\AppData\Local\Temp\ccnJwkqC.s:938    .rodata.__func__.2:0000000000000000 __func__.2
C:\Users\stapi\AppData\Local\Temp\ccnJwkqC.s:942    .srodata.CSWTCH.9:0000000000000000 .LANCHOR1
C:\Users\stapi\AppData\Local\Temp\ccnJwkqC.s:945    .srodata.CSWTCH.9:0000000000000000 CSWTCH.9
C:\Users\stapi\AppData\Local\Temp\ccnJwkqC.s:59     .text.coap_address_init:0000000000000042 .L0 
C:\Users\stapi\AppData\Local\Temp\ccnJwkqC.s:79     .text.coap_address_set_unix_domain:0000000000000004 .L0 
C:\Users\stapi\AppData\Local\Temp\ccnJwkqC.s:258    .text.coap_get_available_scheme_hint_bits:00000000000000ba .L0 
C:\Users\stapi\AppData\Local\Temp\ccnJwkqC.s:879    .text.coap_resolve_address_info:0000000000000284 .L0 
C:\Users\stapi\AppData\Local\Temp\ccnJwkqC.s:926    .text.coap_free_address_info:0000000000000026 .L0 
                     .debug_frame:0000000000000000 .L0 
C:\Users\stapi\AppData\Local\Temp\ccnJwkqC.s:11     .rodata.coap_address_init.str1.4:0000000000000000 .LC0
C:\Users\stapi\AppData\Local\Temp\ccnJwkqC.s:14     .rodata.coap_address_init.str1.4:0000000000000008 .LC1
C:\Users\stapi\AppData\Local\Temp\ccnJwkqC.s:44     .text.coap_address_init:000000000000002e .L2
C:\Users\stapi\AppData\Local\Temp\ccnJwkqC.s:127    .rodata.coap_get_available_scheme_hint_bits:0000000000000000 .L8
C:\Users\stapi\AppData\Local\Temp\ccnJwkqC.s:144    .text.coap_get_available_scheme_hint_bits:000000000000002e .L6
C:\Users\stapi\AppData\Local\Temp\ccnJwkqC.s:118    .text.coap_get_available_scheme_hint_bits:000000000000001e .L14
C:\Users\stapi\AppData\Local\Temp\ccnJwkqC.s:163    .text.coap_get_available_scheme_hint_bits:000000000000004c .L5
C:\Users\stapi\AppData\Local\Temp\ccnJwkqC.s:137    .text.coap_get_available_scheme_hint_bits:000000000000002a .L13
C:\Users\stapi\AppData\Local\Temp\ccnJwkqC.s:179    .text.coap_get_available_scheme_hint_bits:0000000000000056 .L12
C:\Users\stapi\AppData\Local\Temp\ccnJwkqC.s:195    .text.coap_get_available_scheme_hint_bits:000000000000006a .L11
C:\Users\stapi\AppData\Local\Temp\ccnJwkqC.s:208    .text.coap_get_available_scheme_hint_bits:000000000000007a .L10
C:\Users\stapi\AppData\Local\Temp\ccnJwkqC.s:223    .text.coap_get_available_scheme_hint_bits:000000000000008e .L9
C:\Users\stapi\AppData\Local\Temp\ccnJwkqC.s:238    .text.coap_get_available_scheme_hint_bits:00000000000000a2 .L7
C:\Users\stapi\AppData\Local\Temp\ccnJwkqC.s:263    .rodata.coap_resolve_address_info.str1.4:000000000000000c .LC3
C:\Users\stapi\AppData\Local\Temp\ccnJwkqC.s:266    .rodata.coap_resolve_address_info.str1.4:0000000000000010 .LC4
C:\Users\stapi\AppData\Local\Temp\ccnJwkqC.s:260    .rodata.coap_resolve_address_info.str1.4:0000000000000000 .LC2
C:\Users\stapi\AppData\Local\Temp\ccnJwkqC.s:664    .rodata.coap_resolve_address_info:000000000000001c .L70
C:\Users\stapi\AppData\Local\Temp\ccnJwkqC.s:476    .rodata.coap_resolve_address_info:0000000000000000 .L58
C:\Users\stapi\AppData\Local\Temp\ccnJwkqC.s:405    .text.coap_resolve_address_info:00000000000000a4 .L49
C:\Users\stapi\AppData\Local\Temp\ccnJwkqC.s:413    .text.coap_resolve_address_info:00000000000000b0 .L51
C:\Users\stapi\AppData\Local\Temp\ccnJwkqC.s:382    .text.coap_resolve_address_info:0000000000000098 .L48
C:\Users\stapi\AppData\Local\Temp\ccnJwkqC.s:337    .text.coap_resolve_address_info:000000000000003e .L146
C:\Users\stapi\AppData\Local\Temp\ccnJwkqC.s:540    .text.coap_resolve_address_info:000000000000013a .L149
C:\Users\stapi\AppData\Local\Temp\ccnJwkqC.s:505    .text.coap_resolve_address_info:0000000000000114 .L54
C:\Users\stapi\AppData\Local\Temp\ccnJwkqC.s:495    .text.coap_resolve_address_info:000000000000010c .L55
C:\Users\stapi\AppData\Local\Temp\ccnJwkqC.s:596    .text.coap_resolve_address_info:0000000000000188 .L94
C:\Users\stapi\AppData\Local\Temp\ccnJwkqC.s:521    .text.coap_resolve_address_info:0000000000000126 .L56
C:\Users\stapi\AppData\Local\Temp\ccnJwkqC.s:455    .text.coap_resolve_address_info:00000000000000e4 .L90
C:\Users\stapi\AppData\Local\Temp\ccnJwkqC.s:439    .text.coap_resolve_address_info:00000000000000d0 .L53
C:\Users\stapi\AppData\Local\Temp\ccnJwkqC.s:601    .text.coap_resolve_address_info:000000000000018c .L66
C:\Users\stapi\AppData\Local\Temp\ccnJwkqC.s:564    .text.coap_resolve_address_info:000000000000015c .L148
C:\Users\stapi\AppData\Local\Temp\ccnJwkqC.s:651    .text.coap_resolve_address_info:00000000000001e2 .L67
C:\Users\stapi\AppData\Local\Temp\ccnJwkqC.s:721    .text.coap_resolve_address_info:0000000000000210 .L75
C:\Users\stapi\AppData\Local\Temp\ccnJwkqC.s:687    .text.coap_resolve_address_info:00000000000001fe .L79
C:\Users\stapi\AppData\Local\Temp\ccnJwkqC.s:824    .text.coap_resolve_address_info:0000000000000240 .L88
C:\Users\stapi\AppData\Local\Temp\ccnJwkqC.s:866    .text.coap_resolve_address_info:000000000000027c .L144
C:\Users\stapi\AppData\Local\Temp\ccnJwkqC.s:753    .text.coap_resolve_address_info:000000000000021e .L157
C:\Users\stapi\AppData\Local\Temp\ccnJwkqC.s:782    .text.coap_resolve_address_info:000000000000022c .L159
C:\Users\stapi\AppData\Local\Temp\ccnJwkqC.s:860    .text.coap_resolve_address_info:0000000000000278 .L87
C:\Users\stapi\AppData\Local\Temp\ccnJwkqC.s:706    .text.coap_resolve_address_info:0000000000000204 .L80
C:\Users\stapi\AppData\Local\Temp\ccnJwkqC.s:485    .text.coap_resolve_address_info:0000000000000100 .L64
C:\Users\stapi\AppData\Local\Temp\ccnJwkqC.s:512    .text.coap_resolve_address_info:000000000000011a .L63
C:\Users\stapi\AppData\Local\Temp\ccnJwkqC.s:549    .text.coap_resolve_address_info:0000000000000146 .L62
C:\Users\stapi\AppData\Local\Temp\ccnJwkqC.s:559    .text.coap_resolve_address_info:0000000000000154 .L61
C:\Users\stapi\AppData\Local\Temp\ccnJwkqC.s:570    .text.coap_resolve_address_info:0000000000000162 .L60
C:\Users\stapi\AppData\Local\Temp\ccnJwkqC.s:576    .text.coap_resolve_address_info:000000000000016c .L59
C:\Users\stapi\AppData\Local\Temp\ccnJwkqC.s:586    .text.coap_resolve_address_info:000000000000017a .L57
C:\Users\stapi\AppData\Local\Temp\ccnJwkqC.s:673    .text.coap_resolve_address_info:00000000000001f4 .L76
C:\Users\stapi\AppData\Local\Temp\ccnJwkqC.s:740    .text.coap_resolve_address_info:000000000000021a .L73
C:\Users\stapi\AppData\Local\Temp\ccnJwkqC.s:769    .text.coap_resolve_address_info:0000000000000226 .L72
C:\Users\stapi\AppData\Local\Temp\ccnJwkqC.s:798    .text.coap_resolve_address_info:0000000000000234 .L71
C:\Users\stapi\AppData\Local\Temp\ccnJwkqC.s:812    .text.coap_resolve_address_info:000000000000023a .L69
C:\Users\stapi\AppData\Local\Temp\ccnJwkqC.s:895    .text.coap_free_address_info:0000000000000006 .L169
C:\Users\stapi\AppData\Local\Temp\ccnJwkqC.s:902    .text.coap_free_address_info:000000000000000e .L166
C:\Users\stapi\AppData\Local\Temp\ccnJwkqC.s:2715   .debug_abbrev:0000000000000000 .Ldebug_abbrev0
C:\Users\stapi\AppData\Local\Temp\ccnJwkqC.s:4419   .debug_str:00000000000003b6 .LASF164
C:\Users\stapi\AppData\Local\Temp\ccnJwkqC.s:4627   .debug_str:0000000000000a39 .LASF165
C:\Users\stapi\AppData\Local\Temp\ccnJwkqC.s:4349   .debug_str:0000000000000166 .LASF166
C:\Users\stapi\AppData\Local\Temp\ccnJwkqC.s:4259   .debug_ranges:0000000000000000 .Ldebug_ranges0
C:\Users\stapi\AppData\Local\Temp\ccnJwkqC.s:4293   .debug_line:0000000000000000 .Ldebug_line0
C:\Users\stapi\AppData\Local\Temp\ccnJwkqC.s:4313   .debug_str:0000000000000089 .LASF0
C:\Users\stapi\AppData\Local\Temp\ccnJwkqC.s:4315   .debug_str:0000000000000095 .LASF3
C:\Users\stapi\AppData\Local\Temp\ccnJwkqC.s:4525   .debug_str:00000000000007b2 .LASF1
C:\Users\stapi\AppData\Local\Temp\ccnJwkqC.s:4465   .debug_str:0000000000000635 .LASF2
C:\Users\stapi\AppData\Local\Temp\ccnJwkqC.s:4565   .debug_str:0000000000000888 .LASF4
C:\Users\stapi\AppData\Local\Temp\ccnJwkqC.s:4579   .debug_str:00000000000008e3 .LASF5
C:\Users\stapi\AppData\Local\Temp\ccnJwkqC.s:4361   .debug_str:0000000000000237 .LASF6
C:\Users\stapi\AppData\Local\Temp\ccnJwkqC.s:4389   .debug_str:00000000000002f5 .LASF7
C:\Users\stapi\AppData\Local\Temp\ccnJwkqC.s:4427   .debug_str:00000000000004e6 .LASF8
C:\Users\stapi\AppData\Local\Temp\ccnJwkqC.s:4351   .debug_str:00000000000001ef .LASF9
C:\Users\stapi\AppData\Local\Temp\ccnJwkqC.s:4331   .debug_str:0000000000000104 .LASF10
C:\Users\stapi\AppData\Local\Temp\ccnJwkqC.s:4413   .debug_str:0000000000000395 .LASF11
C:\Users\stapi\AppData\Local\Temp\ccnJwkqC.s:4603   .debug_str:0000000000000982 .LASF12
C:\Users\stapi\AppData\Local\Temp\ccnJwkqC.s:4377   .debug_str:000000000000029e .LASF13
C:\Users\stapi\AppData\Local\Temp\ccnJwkqC.s:4549   .debug_str:0000000000000831 .LASF14
C:\Users\stapi\AppData\Local\Temp\ccnJwkqC.s:4305   .debug_str:0000000000000050 .LASF15
C:\Users\stapi\AppData\Local\Temp\ccnJwkqC.s:4557   .debug_str:0000000000000859 .LASF16
C:\Users\stapi\AppData\Local\Temp\ccnJwkqC.s:4481   .debug_str:0000000000000696 .LASF17
C:\Users\stapi\AppData\Local\Temp\ccnJwkqC.s:4589   .debug_str:0000000000000930 .LASF18
C:\Users\stapi\AppData\Local\Temp\ccnJwkqC.s:4431   .debug_str:00000000000004ff .LASF19
C:\Users\stapi\AppData\Local\Temp\ccnJwkqC.s:4631   .debug_str:0000000000000ada .LASF20
C:\Users\stapi\AppData\Local\Temp\ccnJwkqC.s:4399   .debug_str:000000000000033d .LASF21
C:\Users\stapi\AppData\Local\Temp\ccnJwkqC.s:4335   .debug_str:0000000000000125 .LASF22
C:\Users\stapi\AppData\Local\Temp\ccnJwkqC.s:4593   .debug_str:000000000000093c .LASF23
C:\Users\stapi\AppData\Local\Temp\ccnJwkqC.s:4555   .debug_str:0000000000000852 .LASF24
C:\Users\stapi\AppData\Local\Temp\ccnJwkqC.s:4501   .debug_str:000000000000071a .LASF34
C:\Users\stapi\AppData\Local\Temp\ccnJwkqC.s:4411   .debug_str:0000000000000380 .LASF25
C:\Users\stapi\AppData\Local\Temp\ccnJwkqC.s:4375   .debug_str:0000000000000288 .LASF26
C:\Users\stapi\AppData\Local\Temp\ccnJwkqC.s:4307   .debug_str:0000000000000057 .LASF27
C:\Users\stapi\AppData\Local\Temp\ccnJwkqC.s:4485   .debug_str:00000000000006aa .LASF28
C:\Users\stapi\AppData\Local\Temp\ccnJwkqC.s:4437   .debug_str:000000000000052a .LASF29
C:\Users\stapi\AppData\Local\Temp\ccnJwkqC.s:4441   .debug_str:0000000000000563 .LASF30
C:\Users\stapi\AppData\Local\Temp\ccnJwkqC.s:4381   .debug_str:00000000000002b5 .LASF31
C:\Users\stapi\AppData\Local\Temp\ccnJwkqC.s:4297   .debug_str:0000000000000010 .LASF32
C:\Users\stapi\AppData\Local\Temp\ccnJwkqC.s:4633   .debug_str:0000000000000ae9 .LASF33
C:\Users\stapi\AppData\Local\Temp\ccnJwkqC.s:4493   .debug_str:00000000000006ec .LASF35
C:\Users\stapi\AppData\Local\Temp\ccnJwkqC.s:4325   .debug_str:00000000000000d6 .LASF36
C:\Users\stapi\AppData\Local\Temp\ccnJwkqC.s:4359   .debug_str:0000000000000228 .LASF37
C:\Users\stapi\AppData\Local\Temp\ccnJwkqC.s:4309   .debug_str:0000000000000070 .LASF38
C:\Users\stapi\AppData\Local\Temp\ccnJwkqC.s:4383   .debug_str:00000000000002cd .LASF39
C:\Users\stapi\AppData\Local\Temp\ccnJwkqC.s:4459   .debug_str:00000000000005ff .LASF40
C:\Users\stapi\AppData\Local\Temp\ccnJwkqC.s:4379   .debug_str:00000000000002a7 .LASF41
C:\Users\stapi\AppData\Local\Temp\ccnJwkqC.s:4521   .debug_str:0000000000000795 .LASF42
C:\Users\stapi\AppData\Local\Temp\ccnJwkqC.s:4487   .debug_str:00000000000006c4 .LASF43
C:\Users\stapi\AppData\Local\Temp\ccnJwkqC.s:4367   .debug_str:0000000000000256 .LASF44
C:\Users\stapi\AppData\Local\Temp\ccnJwkqC.s:4585   .debug_str:0000000000000910 .LASF45
C:\Users\stapi\AppData\Local\Temp\ccnJwkqC.s:4477   .debug_str:000000000000067c .LASF46
C:\Users\stapi\AppData\Local\Temp\ccnJwkqC.s:4613   .debug_str:00000000000009d4 .LASF47
C:\Users\stapi\AppData\Local\Temp\ccnJwkqC.s:4347   .debug_str:0000000000000161 .LASF48
C:\Users\stapi\AppData\Local\Temp\ccnJwkqC.s:4429   .debug_str:00000000000004f8 .LASF49
C:\Users\stapi\AppData\Local\Temp\ccnJwkqC.s:4543   .debug_str:0000000000000807 .LASF50
C:\Users\stapi\AppData\Local\Temp\ccnJwkqC.s:4513   .debug_str:0000000000000765 .LASF51
C:\Users\stapi\AppData\Local\Temp\ccnJwkqC.s:4395   .debug_str:000000000000031c .LASF52
C:\Users\stapi\AppData\Local\Temp\ccnJwkqC.s:4421   .debug_str:00000000000004af .LASF53
C:\Users\stapi\AppData\Local\Temp\ccnJwkqC.s:4333   .debug_str:000000000000011b .LASF54
C:\Users\stapi\AppData\Local\Temp\ccnJwkqC.s:4635   .debug_str:0000000000000afe .LASF55
C:\Users\stapi\AppData\Local\Temp\ccnJwkqC.s:4415   .debug_str:00000000000003a2 .LASF56
C:\Users\stapi\AppData\Local\Temp\ccnJwkqC.s:4505   .debug_str:000000000000073b .LASF57
C:\Users\stapi\AppData\Local\Temp\ccnJwkqC.s:4467   .debug_str:000000000000063f .LASF58
C:\Users\stapi\AppData\Local\Temp\ccnJwkqC.s:4599   .debug_str:0000000000000966 .LASF59
C:\Users\stapi\AppData\Local\Temp\ccnJwkqC.s:4499   .debug_str:0000000000000712 .LASF60
C:\Users\stapi\AppData\Local\Temp\ccnJwkqC.s:4475   .debug_str:0000000000000671 .LASF61
C:\Users\stapi\AppData\Local\Temp\ccnJwkqC.s:4509   .debug_str:0000000000000752 .LASF62
C:\Users\stapi\AppData\Local\Temp\ccnJwkqC.s:4447   .debug_str:00000000000005a7 .LASF63
C:\Users\stapi\AppData\Local\Temp\ccnJwkqC.s:4397   .debug_str:0000000000000334 .LASF64
C:\Users\stapi\AppData\Local\Temp\ccnJwkqC.s:4363   .debug_str:0000000000000240 .LASF65
C:\Users\stapi\AppData\Local\Temp\ccnJwkqC.s:4473   .debug_str:000000000000066a .LASF66
C:\Users\stapi\AppData\Local\Temp\ccnJwkqC.s:4511   .debug_str:000000000000075b .LASF67
C:\Users\stapi\AppData\Local\Temp\ccnJwkqC.s:4619   .debug_str:0000000000000a00 .LASF68
C:\Users\stapi\AppData\Local\Temp\ccnJwkqC.s:4341   .debug_str:0000000000000141 .LASF69
C:\Users\stapi\AppData\Local\Temp\ccnJwkqC.s:4551   .debug_str:000000000000083a .LASF70
C:\Users\stapi\AppData\Local\Temp\ccnJwkqC.s:4433   .debug_str:0000000000000505 .LASF71
C:\Users\stapi\AppData\Local\Temp\ccnJwkqC.s:4561   .debug_str:000000000000086d .LASF72
C:\Users\stapi\AppData\Local\Temp\ccnJwkqC.s:4497   .debug_str:0000000000000705 .LASF73
C:\Users\stapi\AppData\Local\Temp\ccnJwkqC.s:4573   .debug_str:00000000000008bd .LASF74
C:\Users\stapi\AppData\Local\Temp\ccnJwkqC.s:4479   .debug_str:0000000000000686 .LASF75
C:\Users\stapi\AppData\Local\Temp\ccnJwkqC.s:4457   .debug_str:00000000000005f1 .LASF76
C:\Users\stapi\AppData\Local\Temp\ccnJwkqC.s:4625   .debug_str:0000000000000a2a .LASF77
C:\Users\stapi\AppData\Local\Temp\ccnJwkqC.s:4601   .debug_str:0000000000000972 .LASF78
C:\Users\stapi\AppData\Local\Temp\ccnJwkqC.s:4569   .debug_str:00000000000008a0 .LASF79
C:\Users\stapi\AppData\Local\Temp\ccnJwkqC.s:4299   .debug_str:0000000000000029 .LASF80
C:\Users\stapi\AppData\Local\Temp\ccnJwkqC.s:4371   .debug_str:000000000000026c .LASF81
C:\Users\stapi\AppData\Local\Temp\ccnJwkqC.s:4621   .debug_str:0000000000000a08 .LASF82
C:\Users\stapi\AppData\Local\Temp\ccnJwkqC.s:4489   .debug_str:00000000000006d4 .LASF83
C:\Users\stapi\AppData\Local\Temp\ccnJwkqC.s:4609   .debug_str:00000000000009b8 .LASF84
C:\Users\stapi\AppData\Local\Temp\ccnJwkqC.s:4417   .debug_str:00000000000003a9 .LASF85
C:\Users\stapi\AppData\Local\Temp\ccnJwkqC.s:4615   .debug_str:00000000000009e5 .LASF86
C:\Users\stapi\AppData\Local\Temp\ccnJwkqC.s:4581   .debug_str:00000000000008f6 .LASF87
C:\Users\stapi\AppData\Local\Temp\ccnJwkqC.s:4327   .debug_str:00000000000000e6 .LASF88
C:\Users\stapi\AppData\Local\Temp\ccnJwkqC.s:4517   .debug_str:000000000000077f .LASF89
C:\Users\stapi\AppData\Local\Temp\ccnJwkqC.s:4545   .debug_str:000000000000080d .LASF90
C:\Users\stapi\AppData\Local\Temp\ccnJwkqC.s:4301   .debug_str:0000000000000035 .LASF91
C:\Users\stapi\AppData\Local\Temp\ccnJwkqC.s:4563   .debug_str:000000000000087b .LASF92
C:\Users\stapi\AppData\Local\Temp\ccnJwkqC.s:4365   .debug_str:0000000000000249 .LASF93
C:\Users\stapi\AppData\Local\Temp\ccnJwkqC.s:4401   .debug_str:0000000000000342 .LASF94
C:\Users\stapi\AppData\Local\Temp\ccnJwkqC.s:4629   .debug_str:0000000000000ac9 .LASF95
C:\Users\stapi\AppData\Local\Temp\ccnJwkqC.s:4369   .debug_str:000000000000025f .LASF96
C:\Users\stapi\AppData\Local\Temp\ccnJwkqC.s:4339   .debug_str:0000000000000134 .LASF97
C:\Users\stapi\AppData\Local\Temp\ccnJwkqC.s:4323   .debug_str:00000000000000c9 .LASF98
C:\Users\stapi\AppData\Local\Temp\ccnJwkqC.s:4295   .debug_str:0000000000000000 .LASF99
C:\Users\stapi\AppData\Local\Temp\ccnJwkqC.s:4611   .debug_str:00000000000009c2 .LASF100
C:\Users\stapi\AppData\Local\Temp\ccnJwkqC.s:4425   .debug_str:00000000000004d4 .LASF101
C:\Users\stapi\AppData\Local\Temp\ccnJwkqC.s:4391   .debug_str:0000000000000300 .LASF102
C:\Users\stapi\AppData\Local\Temp\ccnJwkqC.s:4455   .debug_str:00000000000005e1 .LASF103
C:\Users\stapi\AppData\Local\Temp\ccnJwkqC.s:4449   .debug_str:00000000000005b0 .LASF104
C:\Users\stapi\AppData\Local\Temp\ccnJwkqC.s:4387   .debug_str:00000000000002e6 .LASF105
C:\Users\stapi\AppData\Local\Temp\ccnJwkqC.s:4317   .debug_str:000000000000009f .LASF106
C:\Users\stapi\AppData\Local\Temp\ccnJwkqC.s:4357   .debug_str:0000000000000218 .LASF107
C:\Users\stapi\AppData\Local\Temp\ccnJwkqC.s:4337   .debug_str:000000000000012a .LASF108
C:\Users\stapi\AppData\Local\Temp\ccnJwkqC.s:4311   .debug_str:0000000000000080 .LASF109
C:\Users\stapi\AppData\Local\Temp\ccnJwkqC.s:4303   .debug_str:0000000000000047 .LASF110
C:\Users\stapi\AppData\Local\Temp\ccnJwkqC.s:4571   .debug_str:00000000000008b3 .LASF111
C:\Users\stapi\AppData\Local\Temp\ccnJwkqC.s:4423   .debug_str:00000000000004c8 .LASF112
C:\Users\stapi\AppData\Local\Temp\ccnJwkqC.s:4491   .debug_str:00000000000006e0 .LASF113
C:\Users\stapi\AppData\Local\Temp\ccnJwkqC.s:4507   .debug_str:0000000000000747 .LASF114
C:\Users\stapi\AppData\Local\Temp\ccnJwkqC.s:4529   .debug_str:00000000000007d4 .LASF115
C:\Users\stapi\AppData\Local\Temp\ccnJwkqC.s:4623   .debug_str:0000000000000a1d .LASF116
C:\Users\stapi\AppData\Local\Temp\ccnJwkqC.s:4537   .debug_str:00000000000007f0 .LASF117
C:\Users\stapi\AppData\Local\Temp\ccnJwkqC.s:4443   .debug_str:0000000000000579 .LASF167
C:\Users\stapi\AppData\Local\Temp\ccnJwkqC.s:884    .text.coap_free_address_info:0000000000000000 .LFB36
C:\Users\stapi\AppData\Local\Temp\ccnJwkqC.s:924    .text.coap_free_address_info:0000000000000026 .LFE36
C:\Users\stapi\AppData\Local\Temp\ccnJwkqC.s:4531   .debug_str:00000000000007dc .LASF118
C:\Users\stapi\AppData\Local\Temp\ccnJwkqC.s:3491   .debug_loc:0000000000000000 .LLST55
C:\Users\stapi\AppData\Local\Temp\ccnJwkqC.s:903    .text.coap_free_address_info:000000000000000e .LBB111
C:\Users\stapi\AppData\Local\Temp\ccnJwkqC.s:915    .text.coap_free_address_info:000000000000001c .LBE111
C:\Users\stapi\AppData\Local\Temp\ccnJwkqC.s:4403   .debug_str:0000000000000351 .LASF126
C:\Users\stapi\AppData\Local\Temp\ccnJwkqC.s:911    .text.coap_free_address_info:000000000000001a .LVL96
C:\Users\stapi\AppData\Local\Temp\ccnJwkqC.s:4451   .debug_str:00000000000005c0 .LASF135
C:\Users\stapi\AppData\Local\Temp\ccnJwkqC.s:273    .text.coap_resolve_address_info:0000000000000000 .LFB35
C:\Users\stapi\AppData\Local\Temp\ccnJwkqC.s:877    .text.coap_resolve_address_info:0000000000000284 .LFE35
C:\Users\stapi\AppData\Local\Temp\ccnJwkqC.s:4373   .debug_str:0000000000000280 .LASF119
C:\Users\stapi\AppData\Local\Temp\ccnJwkqC.s:3506   .debug_loc:0000000000000029 .LLST8
C:\Users\stapi\AppData\Local\Temp\ccnJwkqC.s:3535   .debug_loc:000000000000006e .LLST9
C:\Users\stapi\AppData\Local\Temp\ccnJwkqC.s:4393   .debug_str:0000000000000310 .LASF120
C:\Users\stapi\AppData\Local\Temp\ccnJwkqC.s:3549   .debug_loc:000000000000008f .LLST10
C:\Users\stapi\AppData\Local\Temp\ccnJwkqC.s:4519   .debug_str:000000000000078d .LASF121
C:\Users\stapi\AppData\Local\Temp\ccnJwkqC.s:3563   .debug_loc:00000000000000b0 .LLST11
C:\Users\stapi\AppData\Local\Temp\ccnJwkqC.s:4559   .debug_str:000000000000085e .LASF122
C:\Users\stapi\AppData\Local\Temp\ccnJwkqC.s:3577   .debug_loc:00000000000000d1 .LLST12
C:\Users\stapi\AppData\Local\Temp\ccnJwkqC.s:4503   .debug_str:000000000000072c .LASF123
C:\Users\stapi\AppData\Local\Temp\ccnJwkqC.s:3591   .debug_loc:00000000000000f2 .LLST13
C:\Users\stapi\AppData\Local\Temp\ccnJwkqC.s:4583   .debug_str:00000000000008ff .LASF124
C:\Users\stapi\AppData\Local\Temp\ccnJwkqC.s:3620   .debug_loc:0000000000000137 .LLST14
C:\Users\stapi\AppData\Local\Temp\ccnJwkqC.s:4321   .debug_str:00000000000000c4 .LASF125
C:\Users\stapi\AppData\Local\Temp\ccnJwkqC.s:3642   .debug_loc:000000000000016e .LLST15
C:\Users\stapi\AppData\Local\Temp\ccnJwkqC.s:4515   .debug_str:0000000000000779 .LASF127
C:\Users\stapi\AppData\Local\Temp\ccnJwkqC.s:4591   .debug_str:0000000000000936 .LASF128
C:\Users\stapi\AppData\Local\Temp\ccnJwkqC.s:4343   .debug_str:000000000000014b .LASF129
C:\Users\stapi\AppData\Local\Temp\ccnJwkqC.s:4541   .debug_str:0000000000000801 .LASF130
C:\Users\stapi\AppData\Local\Temp\ccnJwkqC.s:3653   .debug_loc:000000000000018c .LLST16
C:\Users\stapi\AppData\Local\Temp\ccnJwkqC.s:3664   .debug_loc:00000000000001aa .LLST17
C:\Users\stapi\AppData\Local\Temp\ccnJwkqC.s:4385   .debug_str:00000000000002dc .LASF131
C:\Users\stapi\AppData\Local\Temp\ccnJwkqC.s:3689   .debug_loc:00000000000001eb .LLST18
C:\Users\stapi\AppData\Local\Temp\ccnJwkqC.s:4355   .debug_str:000000000000020e .LASF132
C:\Users\stapi\AppData\Local\Temp\ccnJwkqC.s:3719   .debug_loc:0000000000000238 .LLST19
C:\Users\stapi\AppData\Local\Temp\ccnJwkqC.s:4533   .debug_str:00000000000007e1 .LASF133
C:\Users\stapi\AppData\Local\Temp\ccnJwkqC.s:3740   .debug_loc:000000000000026e .LLST20
C:\Users\stapi\AppData\Local\Temp\ccnJwkqC.s:3755   .debug_loc:0000000000000297 .LLST21
C:\Users\stapi\AppData\Local\Temp\ccnJwkqC.s:3770   .debug_loc:00000000000002c0 .LLST22
C:\Users\stapi\AppData\Local\Temp\ccnJwkqC.s:628    .text.coap_resolve_address_info:00000000000001ba .LBB82
C:\Users\stapi\AppData\Local\Temp\ccnJwkqC.s:653    .text.coap_resolve_address_info:00000000000001e2 .LBE82
C:\Users\stapi\AppData\Local\Temp\ccnJwkqC.s:4535   .debug_str:00000000000007ea .LASF134
C:\Users\stapi\AppData\Local\Temp\ccnJwkqC.s:3797   .debug_loc:0000000000000303 .LLST23
C:\Users\stapi\AppData\Local\Temp\ccnJwkqC.s:639    .text.coap_resolve_address_info:00000000000001cc .LVL67
C:\Users\stapi\AppData\Local\Temp\ccnJwkqC.s:649    .text.coap_resolve_address_info:00000000000001e2 .LVL68
C:\Users\stapi\AppData\Local\Temp\ccnJwkqC.s:422    .text.coap_resolve_address_info:00000000000000c0 .LBB76
C:\Users\stapi\AppData\Local\Temp\ccnJwkqC.s:451    .text.coap_resolve_address_info:00000000000000e0 .LBB80
C:\Users\stapi\AppData\Local\Temp\ccnJwkqC.s:458    .text.coap_resolve_address_info:00000000000000e4 .LBE80
C:\Users\stapi\AppData\Local\Temp\ccnJwkqC.s:676    .text.coap_resolve_address_info:00000000000001f4 .LBB83
C:\Users\stapi\AppData\Local\Temp\ccnJwkqC.s:700    .text.coap_resolve_address_info:0000000000000202 .LBE83
C:\Users\stapi\AppData\Local\Temp\ccnJwkqC.s:3809   .debug_loc:0000000000000322 .LLST24
C:\Users\stapi\AppData\Local\Temp\ccnJwkqC.s:3823   .debug_loc:000000000000033c .LLST25
C:\Users\stapi\AppData\Local\Temp\ccnJwkqC.s:3832   .debug_loc:0000000000000352 .LLST26
C:\Users\stapi\AppData\Local\Temp\ccnJwkqC.s:3843   .debug_loc:0000000000000370 .LLST27
C:\Users\stapi\AppData\Local\Temp\ccnJwkqC.s:689    .text.coap_resolve_address_info:00000000000001fe .LBB85
C:\Users\stapi\AppData\Local\Temp\ccnJwkqC.s:697    .text.coap_resolve_address_info:0000000000000202 .LBE85
C:\Users\stapi\AppData\Local\Temp\ccnJwkqC.s:3852   .debug_loc:0000000000000385 .LLST28
C:\Users\stapi\AppData\Local\Temp\ccnJwkqC.s:701    .text.coap_resolve_address_info:0000000000000202 .LBB87
C:\Users\stapi\AppData\Local\Temp\ccnJwkqC.s:3859   .debug_loc:0000000000000398 .LLST29
C:\Users\stapi\AppData\Local\Temp\ccnJwkqC.s:3873   .debug_loc:00000000000003b2 .LLST30
C:\Users\stapi\AppData\Local\Temp\ccnJwkqC.s:3882   .debug_loc:00000000000003c8 .LLST31
C:\Users\stapi\AppData\Local\Temp\ccnJwkqC.s:3894   .debug_loc:00000000000003e8 .LLST32
C:\Users\stapi\AppData\Local\Temp\ccnJwkqC.s:793    .text.coap_resolve_address_info:0000000000000232 .LBB89
C:\Users\stapi\AppData\Local\Temp\ccnJwkqC.s:800    .text.coap_resolve_address_info:0000000000000234 .LBE89
C:\Users\stapi\AppData\Local\Temp\ccnJwkqC.s:3903   .debug_loc:00000000000003fd .LLST33
C:\Users\stapi\AppData\Local\Temp\ccnJwkqC.s:723    .text.coap_resolve_address_info:0000000000000210 .LBB93
C:\Users\stapi\AppData\Local\Temp\ccnJwkqC.s:744    .text.coap_resolve_address_info:000000000000021a .LBE93
C:\Users\stapi\AppData\Local\Temp\ccnJwkqC.s:3910   .debug_loc:0000000000000410 .LLST34
C:\Users\stapi\AppData\Local\Temp\ccnJwkqC.s:3924   .debug_loc:000000000000042a .LLST35
C:\Users\stapi\AppData\Local\Temp\ccnJwkqC.s:3933   .debug_loc:0000000000000440 .LLST36
C:\Users\stapi\AppData\Local\Temp\ccnJwkqC.s:3944   .debug_loc:000000000000045e .LLST37
C:\Users\stapi\AppData\Local\Temp\ccnJwkqC.s:735    .text.coap_resolve_address_info:0000000000000218 .LBB95
C:\Users\stapi\AppData\Local\Temp\ccnJwkqC.s:742    .text.coap_resolve_address_info:000000000000021a .LBE95
C:\Users\stapi\AppData\Local\Temp\ccnJwkqC.s:3953   .debug_loc:0000000000000473 .LLST38
C:\Users\stapi\AppData\Local\Temp\ccnJwkqC.s:3960   .debug_loc:0000000000000486 .LLST39
C:\Users\stapi\AppData\Local\Temp\ccnJwkqC.s:746    .text.coap_resolve_address_info:000000000000021a .LBB97
C:\Users\stapi\AppData\Local\Temp\ccnJwkqC.s:755    .text.coap_resolve_address_info:000000000000021e .LBE97
C:\Users\stapi\AppData\Local\Temp\ccnJwkqC.s:3969   .debug_loc:000000000000049b .LLST40
C:\Users\stapi\AppData\Local\Temp\ccnJwkqC.s:3983   .debug_loc:00000000000004b5 .LLST41
C:\Users\stapi\AppData\Local\Temp\ccnJwkqC.s:3992   .debug_loc:00000000000004ca .LLST42
C:\Users\stapi\AppData\Local\Temp\ccnJwkqC.s:3999   .debug_loc:00000000000004dd .LLST43
C:\Users\stapi\AppData\Local\Temp\ccnJwkqC.s:756    .text.coap_resolve_address_info:000000000000021e .LBB99
C:\Users\stapi\AppData\Local\Temp\ccnJwkqC.s:4008   .debug_loc:00000000000004f2 .LLST44
C:\Users\stapi\AppData\Local\Temp\ccnJwkqC.s:4022   .debug_loc:000000000000050c .LLST45
C:\Users\stapi\AppData\Local\Temp\ccnJwkqC.s:4031   .debug_loc:0000000000000521 .LLST46
C:\Users\stapi\AppData\Local\Temp\ccnJwkqC.s:4043   .debug_loc:0000000000000541 .LLST47
C:\Users\stapi\AppData\Local\Temp\ccnJwkqC.s:764    .text.coap_resolve_address_info:0000000000000224 .LBB101
C:\Users\stapi\AppData\Local\Temp\ccnJwkqC.s:771    .text.coap_resolve_address_info:0000000000000226 .LBE101
C:\Users\stapi\AppData\Local\Temp\ccnJwkqC.s:4052   .debug_loc:0000000000000556 .LLST48
C:\Users\stapi\AppData\Local\Temp\ccnJwkqC.s:775    .text.coap_resolve_address_info:0000000000000226 .LBB104
C:\Users\stapi\AppData\Local\Temp\ccnJwkqC.s:784    .text.coap_resolve_address_info:000000000000022c .LBE104
C:\Users\stapi\AppData\Local\Temp\ccnJwkqC.s:4059   .debug_loc:0000000000000569 .LLST49
C:\Users\stapi\AppData\Local\Temp\ccnJwkqC.s:4073   .debug_loc:0000000000000583 .LLST50
C:\Users\stapi\AppData\Local\Temp\ccnJwkqC.s:4082   .debug_loc:0000000000000599 .LLST51
C:\Users\stapi\AppData\Local\Temp\ccnJwkqC.s:4089   .debug_loc:00000000000005ac .LLST52
C:\Users\stapi\AppData\Local\Temp\ccnJwkqC.s:837    .text.coap_resolve_address_info:0000000000000254 .LBB109
C:\Users\stapi\AppData\Local\Temp\ccnJwkqC.s:851    .text.coap_resolve_address_info:000000000000026a .LBE109
C:\Users\stapi\AppData\Local\Temp\ccnJwkqC.s:4098   .debug_loc:00000000000005c1 .LLST53
C:\Users\stapi\AppData\Local\Temp\ccnJwkqC.s:4107   .debug_loc:00000000000005d6 .LLST54
C:\Users\stapi\AppData\Local\Temp\ccnJwkqC.s:327    .text.coap_resolve_address_info:0000000000000030 .LVL31
C:\Users\stapi\AppData\Local\Temp\ccnJwkqC.s:341    .text.coap_resolve_address_info:000000000000004a .LVL32
C:\Users\stapi\AppData\Local\Temp\ccnJwkqC.s:347    .text.coap_resolve_address_info:0000000000000058 .LVL33
C:\Users\stapi\AppData\Local\Temp\ccnJwkqC.s:361    .text.coap_resolve_address_info:000000000000006c .LVL34
C:\Users\stapi\AppData\Local\Temp\ccnJwkqC.s:368    .text.coap_resolve_address_info:0000000000000076 .LVL35
C:\Users\stapi\AppData\Local\Temp\ccnJwkqC.s:381    .text.coap_resolve_address_info:0000000000000098 .LVL36
C:\Users\stapi\AppData\Local\Temp\ccnJwkqC.s:489    .text.coap_resolve_address_info:0000000000000108 .LVL43
C:\Users\stapi\AppData\Local\Temp\ccnJwkqC.s:516    .text.coap_resolve_address_info:0000000000000122 .LVL49
C:\Users\stapi\AppData\Local\Temp\ccnJwkqC.s:530    .text.coap_resolve_address_info:0000000000000134 .LVL51
C:\Users\stapi\AppData\Local\Temp\ccnJwkqC.s:544    .text.coap_resolve_address_info:0000000000000144 .LVL54
C:\Users\stapi\AppData\Local\Temp\ccnJwkqC.s:553    .text.coap_resolve_address_info:000000000000014e .LVL56
C:\Users\stapi\AppData\Local\Temp\ccnJwkqC.s:563    .text.coap_resolve_address_info:000000000000015c .LVL57
C:\Users\stapi\AppData\Local\Temp\ccnJwkqC.s:574    .text.coap_resolve_address_info:000000000000016a .LVL58
C:\Users\stapi\AppData\Local\Temp\ccnJwkqC.s:580    .text.coap_resolve_address_info:0000000000000174 .LVL59
C:\Users\stapi\AppData\Local\Temp\ccnJwkqC.s:590    .text.coap_resolve_address_info:0000000000000182 .LVL60
C:\Users\stapi\AppData\Local\Temp\ccnJwkqC.s:617    .text.coap_resolve_address_info:00000000000001a2 .LVL64
C:\Users\stapi\AppData\Local\Temp\ccnJwkqC.s:623    .text.coap_resolve_address_info:00000000000001b0 .LVL65
C:\Users\stapi\AppData\Local\Temp\ccnJwkqC.s:857    .text.coap_resolve_address_info:0000000000000276 .LVL88
C:\Users\stapi\AppData\Local\Temp\ccnJwkqC.s:4439   .debug_str:000000000000053f .LASF136
C:\Users\stapi\AppData\Local\Temp\ccnJwkqC.s:84     .text.coap_get_available_scheme_hint_bits:0000000000000000 .LFB34
C:\Users\stapi\AppData\Local\Temp\ccnJwkqC.s:256    .text.coap_get_available_scheme_hint_bits:00000000000000ba .LFE34
C:\Users\stapi\AppData\Local\Temp\ccnJwkqC.s:4617   .debug_str:00000000000009f3 .LASF137
C:\Users\stapi\AppData\Local\Temp\ccnJwkqC.s:4116   .debug_loc:00000000000005eb .LLST3
C:\Users\stapi\AppData\Local\Temp\ccnJwkqC.s:4553   .debug_str:0000000000000849 .LASF138
C:\Users\stapi\AppData\Local\Temp\ccnJwkqC.s:4127   .debug_loc:0000000000000609 .LLST4
C:\Users\stapi\AppData\Local\Temp\ccnJwkqC.s:4577   .debug_str:00000000000008d4 .LASF139
C:\Users\stapi\AppData\Local\Temp\ccnJwkqC.s:4138   .debug_loc:0000000000000627 .LLST5
C:\Users\stapi\AppData\Local\Temp\ccnJwkqC.s:4149   .debug_loc:0000000000000645 .LLST6
C:\Users\stapi\AppData\Local\Temp\ccnJwkqC.s:4161   .debug_loc:0000000000000664 .LLST7
C:\Users\stapi\AppData\Local\Temp\ccnJwkqC.s:184    .text.coap_get_available_scheme_hint_bits:000000000000005e .LVL16
C:\Users\stapi\AppData\Local\Temp\ccnJwkqC.s:199    .text.coap_get_available_scheme_hint_bits:0000000000000072 .LVL18
C:\Users\stapi\AppData\Local\Temp\ccnJwkqC.s:212    .text.coap_get_available_scheme_hint_bits:0000000000000082 .LVL20
C:\Users\stapi\AppData\Local\Temp\ccnJwkqC.s:229    .text.coap_get_available_scheme_hint_bits:000000000000009a .LVL22
C:\Users\stapi\AppData\Local\Temp\ccnJwkqC.s:244    .text.coap_get_available_scheme_hint_bits:00000000000000ae .LVL24
C:\Users\stapi\AppData\Local\Temp\ccnJwkqC.s:4495   .debug_str:00000000000006f9 .LASF145
C:\Users\stapi\AppData\Local\Temp\ccnJwkqC.s:4405   .debug_str:000000000000035b .LASF140
C:\Users\stapi\AppData\Local\Temp\ccnJwkqC.s:4567   .debug_str:0000000000000893 .LASF141
C:\Users\stapi\AppData\Local\Temp\ccnJwkqC.s:4607   .debug_str:000000000000099b .LASF142
C:\Users\stapi\AppData\Local\Temp\ccnJwkqC.s:64     .text.coap_address_set_unix_domain:0000000000000000 .LFB32
C:\Users\stapi\AppData\Local\Temp\ccnJwkqC.s:77     .text.coap_address_set_unix_domain:0000000000000004 .LFE32
C:\Users\stapi\AppData\Local\Temp\ccnJwkqC.s:4191   .debug_loc:00000000000006b1 .LLST2
C:\Users\stapi\AppData\Local\Temp\ccnJwkqC.s:4407   .debug_str:0000000000000368 .LASF143
C:\Users\stapi\AppData\Local\Temp\ccnJwkqC.s:4575   .debug_str:00000000000008cb .LASF144
C:\Users\stapi\AppData\Local\Temp\ccnJwkqC.s:4597   .debug_str:0000000000000954 .LASF168
C:\Users\stapi\AppData\Local\Temp\ccnJwkqC.s:4539   .debug_str:00000000000007f8 .LASF169
C:\Users\stapi\AppData\Local\Temp\ccnJwkqC.s:4527   .debug_str:00000000000007c0 .LASF170
C:\Users\stapi\AppData\Local\Temp\ccnJwkqC.s:4319   .debug_str:00000000000000ae .LASF146
C:\Users\stapi\AppData\Local\Temp\ccnJwkqC.s:21     .text.coap_address_init:0000000000000000 .LFB31
C:\Users\stapi\AppData\Local\Temp\ccnJwkqC.s:57     .text.coap_address_init:0000000000000042 .LFE31
C:\Users\stapi\AppData\Local\Temp\ccnJwkqC.s:4205   .debug_loc:00000000000006d2 .LLST0
C:\Users\stapi\AppData\Local\Temp\ccnJwkqC.s:32     .text.coap_address_init:000000000000000a .LBB39
C:\Users\stapi\AppData\Local\Temp\ccnJwkqC.s:46     .text.coap_address_init:000000000000002e .LBE39
C:\Users\stapi\AppData\Local\Temp\ccnJwkqC.s:4230   .debug_loc:000000000000070c .LLST1
C:\Users\stapi\AppData\Local\Temp\ccnJwkqC.s:43     .text.coap_address_init:000000000000002e .LVL3
C:\Users\stapi\AppData\Local\Temp\ccnJwkqC.s:51     .text.coap_address_init:000000000000003a .LVL4
C:\Users\stapi\AppData\Local\Temp\ccnJwkqC.s:4483   .debug_str:000000000000069b .LASF147
C:\Users\stapi\AppData\Local\Temp\ccnJwkqC.s:4469   .debug_str:0000000000000649 .LASF148
C:\Users\stapi\AppData\Local\Temp\ccnJwkqC.s:4453   .debug_str:00000000000005da .LASF149
C:\Users\stapi\AppData\Local\Temp\ccnJwkqC.s:4461   .debug_str:000000000000060e .LASF151
C:\Users\stapi\AppData\Local\Temp\ccnJwkqC.s:4595   .debug_str:000000000000094d .LASF150
C:\Users\stapi\AppData\Local\Temp\ccnJwkqC.s:4329   .debug_str:00000000000000f3 .LASF152
C:\Users\stapi\AppData\Local\Temp\ccnJwkqC.s:4605   .debug_str:000000000000098a .LASF153
C:\Users\stapi\AppData\Local\Temp\ccnJwkqC.s:4409   .debug_str:000000000000036d .LASF154
C:\Users\stapi\AppData\Local\Temp\ccnJwkqC.s:4345   .debug_str:0000000000000153 .LASF155
C:\Users\stapi\AppData\Local\Temp\ccnJwkqC.s:4445   .debug_str:0000000000000590 .LASF156
C:\Users\stapi\AppData\Local\Temp\ccnJwkqC.s:4463   .debug_str:000000000000061f .LASF157
C:\Users\stapi\AppData\Local\Temp\ccnJwkqC.s:4353   .debug_str:00000000000001fd .LASF158
C:\Users\stapi\AppData\Local\Temp\ccnJwkqC.s:4547   .debug_str:000000000000081f .LASF159
C:\Users\stapi\AppData\Local\Temp\ccnJwkqC.s:4435   .debug_str:0000000000000514 .LASF160
C:\Users\stapi\AppData\Local\Temp\ccnJwkqC.s:4587   .debug_str:000000000000091b .LASF161
C:\Users\stapi\AppData\Local\Temp\ccnJwkqC.s:4471   .debug_str:0000000000000654 .LASF162
C:\Users\stapi\AppData\Local\Temp\ccnJwkqC.s:4523   .debug_str:00000000000007a4 .LASF163
C:\Users\stapi\AppData\Local\Temp\ccnJwkqC.s:887    .text.coap_free_address_info:0000000000000000 .LVL93
C:\Users\stapi\AppData\Local\Temp\ccnJwkqC.s:901    .text.coap_free_address_info:000000000000000e .LVL94
C:\Users\stapi\AppData\Local\Temp\ccnJwkqC.s:276    .text.coap_resolve_address_info:0000000000000000 .LVL26
C:\Users\stapi\AppData\Local\Temp\ccnJwkqC.s:318    .text.coap_resolve_address_info:000000000000001e .LVL30
C:\Users\stapi\AppData\Local\Temp\ccnJwkqC.s:404    .text.coap_resolve_address_info:00000000000000a4 .LVL38
C:\Users\stapi\AppData\Local\Temp\ccnJwkqC.s:438    .text.coap_resolve_address_info:00000000000000d0 .LVL41
C:\Users\stapi\AppData\Local\Temp\ccnJwkqC.s:314    .text.coap_resolve_address_info:0000000000000016 .LVL28
C:\Users\stapi\AppData\Local\Temp\ccnJwkqC.s:316    .text.coap_resolve_address_info:000000000000001a .LVL29
C:\Users\stapi\AppData\Local\Temp\ccnJwkqC.s:388    .text.coap_resolve_address_info:000000000000009c .LVL37
C:\Users\stapi\AppData\Local\Temp\ccnJwkqC.s:412    .text.coap_resolve_address_info:00000000000000b0 .LVL39
C:\Users\stapi\AppData\Local\Temp\ccnJwkqC.s:297    .text.coap_resolve_address_info:0000000000000008 .LVL27
C:\Users\stapi\AppData\Local\Temp\ccnJwkqC.s:535    .text.coap_resolve_address_info:0000000000000138 .LVL52
C:\Users\stapi\AppData\Local\Temp\ccnJwkqC.s:539    .text.coap_resolve_address_info:000000000000013a .LVL53
C:\Users\stapi\AppData\Local\Temp\ccnJwkqC.s:600    .text.coap_resolve_address_info:000000000000018c .LVL61
C:\Users\stapi\AppData\Local\Temp\ccnJwkqC.s:613    .text.coap_resolve_address_info:0000000000000198 .LVL62
C:\Users\stapi\AppData\Local\Temp\ccnJwkqC.s:718    .text.coap_resolve_address_info:000000000000020e .LVL74
C:\Users\stapi\AppData\Local\Temp\ccnJwkqC.s:720    .text.coap_resolve_address_info:0000000000000210 .LVL75
C:\Users\stapi\AppData\Local\Temp\ccnJwkqC.s:871    .text.coap_resolve_address_info:0000000000000280 .LVL91
C:\Users\stapi\AppData\Local\Temp\ccnJwkqC.s:874    .text.coap_resolve_address_info:0000000000000282 .LVL92
C:\Users\stapi\AppData\Local\Temp\ccnJwkqC.s:716    .text.coap_resolve_address_info:000000000000020c .LVL73
C:\Users\stapi\AppData\Local\Temp\ccnJwkqC.s:705    .text.coap_resolve_address_info:0000000000000204 .LVL72
C:\Users\stapi\AppData\Local\Temp\ccnJwkqC.s:823    .text.coap_resolve_address_info:0000000000000240 .LVL85
C:\Users\stapi\AppData\Local\Temp\ccnJwkqC.s:859    .text.coap_resolve_address_info:0000000000000278 .LVL89
C:\Users\stapi\AppData\Local\Temp\ccnJwkqC.s:456    .text.coap_resolve_address_info:00000000000000e4 .LVL42
C:\Users\stapi\AppData\Local\Temp\ccnJwkqC.s:504    .text.coap_resolve_address_info:0000000000000114 .LVL46
C:\Users\stapi\AppData\Local\Temp\ccnJwkqC.s:511    .text.coap_resolve_address_info:000000000000011a .LVL48
C:\Users\stapi\AppData\Local\Temp\ccnJwkqC.s:548    .text.coap_resolve_address_info:0000000000000146 .LVL55
C:\Users\stapi\AppData\Local\Temp\ccnJwkqC.s:526    .text.coap_resolve_address_info:000000000000012c .LVL50
C:\Users\stapi\AppData\Local\Temp\ccnJwkqC.s:615    .text.coap_resolve_address_info:000000000000019a .LVL63
C:\Users\stapi\AppData\Local\Temp\ccnJwkqC.s:633    .text.coap_resolve_address_info:00000000000001be .LVL66
C:\Users\stapi\AppData\Local\Temp\ccnJwkqC.s:675    .text.coap_resolve_address_info:00000000000001f4 .LVL69
C:\Users\stapi\AppData\Local\Temp\ccnJwkqC.s:686    .text.coap_resolve_address_info:00000000000001fe .LVL70
C:\Users\stapi\AppData\Local\Temp\ccnJwkqC.s:695    .text.coap_resolve_address_info:0000000000000202 .LVL71
C:\Users\stapi\AppData\Local\Temp\ccnJwkqC.s:811    .text.coap_resolve_address_info:000000000000023a .LVL84
C:\Users\stapi\AppData\Local\Temp\ccnJwkqC.s:791    .text.coap_resolve_address_info:0000000000000232 .LVL82
C:\Users\stapi\AppData\Local\Temp\ccnJwkqC.s:797    .text.coap_resolve_address_info:0000000000000234 .LVL83
C:\Users\stapi\AppData\Local\Temp\ccnJwkqC.s:739    .text.coap_resolve_address_info:000000000000021a .LVL77
C:\Users\stapi\AppData\Local\Temp\ccnJwkqC.s:733    .text.coap_resolve_address_info:0000000000000218 .LVL76
C:\Users\stapi\AppData\Local\Temp\ccnJwkqC.s:752    .text.coap_resolve_address_info:000000000000021e .LVL78
C:\Users\stapi\AppData\Local\Temp\ccnJwkqC.s:762    .text.coap_resolve_address_info:0000000000000224 .LVL79
C:\Users\stapi\AppData\Local\Temp\ccnJwkqC.s:768    .text.coap_resolve_address_info:0000000000000226 .LVL80
C:\Users\stapi\AppData\Local\Temp\ccnJwkqC.s:781    .text.coap_resolve_address_info:000000000000022c .LVL81
C:\Users\stapi\AppData\Local\Temp\ccnJwkqC.s:836    .text.coap_resolve_address_info:0000000000000254 .LVL86
C:\Users\stapi\AppData\Local\Temp\ccnJwkqC.s:849    .text.coap_resolve_address_info:000000000000026a .LVL87
C:\Users\stapi\AppData\Local\Temp\ccnJwkqC.s:87     .text.coap_get_available_scheme_hint_bits:0000000000000000 .LVL7
C:\Users\stapi\AppData\Local\Temp\ccnJwkqC.s:117    .text.coap_get_available_scheme_hint_bits:000000000000001e .LVL9
C:\Users\stapi\AppData\Local\Temp\ccnJwkqC.s:100    .text.coap_get_available_scheme_hint_bits:0000000000000008 .LVL8
C:\Users\stapi\AppData\Local\Temp\ccnJwkqC.s:138    .text.coap_get_available_scheme_hint_bits:000000000000002a .LVL10
C:\Users\stapi\AppData\Local\Temp\ccnJwkqC.s:142    .text.coap_get_available_scheme_hint_bits:000000000000002e .LVL11
C:\Users\stapi\AppData\Local\Temp\ccnJwkqC.s:148    .text.coap_get_available_scheme_hint_bits:0000000000000030 .LVL12
C:\Users\stapi\AppData\Local\Temp\ccnJwkqC.s:152    .text.coap_get_available_scheme_hint_bits:0000000000000034 .LVL13
C:\Users\stapi\AppData\Local\Temp\ccnJwkqC.s:178    .text.coap_get_available_scheme_hint_bits:0000000000000056 .LVL15
C:\Users\stapi\AppData\Local\Temp\ccnJwkqC.s:67     .text.coap_address_set_unix_domain:0000000000000000 .LVL5
C:\Users\stapi\AppData\Local\Temp\ccnJwkqC.s:74     .text.coap_address_set_unix_domain:0000000000000002 .LVL6
C:\Users\stapi\AppData\Local\Temp\ccnJwkqC.s:25     .text.coap_address_init:0000000000000000 .LVL0
C:\Users\stapi\AppData\Local\Temp\ccnJwkqC.s:37     .text.coap_address_init:0000000000000016 .LVL2
C:\Users\stapi\AppData\Local\Temp\ccnJwkqC.s:31     .text.coap_address_init:000000000000000a .LVL1
C:\Users\stapi\AppData\Local\Temp\ccnJwkqC.s:976    .debug_info:0000000000000000 .Ldebug_info0
C:\Users\stapi\AppData\Local\Temp\ccnJwkqC.s:428    .text.coap_resolve_address_info:00000000000000c6 .LBE76
C:\Users\stapi\AppData\Local\Temp\ccnJwkqC.s:433    .text.coap_resolve_address_info:00000000000000ca .LBB79
C:\Users\stapi\AppData\Local\Temp\ccnJwkqC.s:441    .text.coap_resolve_address_info:00000000000000d0 .LBE79
C:\Users\stapi\AppData\Local\Temp\ccnJwkqC.s:708    .text.coap_resolve_address_info:0000000000000204 .LBE87
C:\Users\stapi\AppData\Local\Temp\ccnJwkqC.s:785    .text.coap_resolve_address_info:000000000000022c .LBB106
C:\Users\stapi\AppData\Local\Temp\ccnJwkqC.s:802    .text.coap_resolve_address_info:0000000000000234 .LBE106
C:\Users\stapi\AppData\Local\Temp\ccnJwkqC.s:816    .text.coap_resolve_address_info:000000000000023a .LBB108
C:\Users\stapi\AppData\Local\Temp\ccnJwkqC.s:826    .text.coap_resolve_address_info:0000000000000240 .LBE108
C:\Users\stapi\AppData\Local\Temp\ccnJwkqC.s:773    .text.coap_resolve_address_info:0000000000000226 .LBE99
C:\Users\stapi\AppData\Local\Temp\ccnJwkqC.s:804    .text.coap_resolve_address_info:0000000000000234 .LBB107
C:\Users\stapi\AppData\Local\Temp\ccnJwkqC.s:814    .text.coap_resolve_address_info:000000000000023a .LBE107

UNDEFINED SYMBOLS
__riscv_save_0
__assert_func
memset
__riscv_restore_0
__riscv_save_8
__riscv_restore_8
coap_dtls_is_supported
coap_tcp_is_supported
coap_tls_is_supported
coap_ws_is_supported
coap_wss_is_supported
__riscv_save_12
memcpy
lwip_getaddrinfo
coap_get_log_level
coap_log_impl
__riscv_restore_12
coap_malloc_type
lwip_freeaddrinfo
lwip_htons
coap_free_type
__riscv_save_1
__riscv_restore_1
