   1              		.file	"coap_uri.c"
   2              		.option nopic
   3              		.attribute arch, "rv32i2p0_m2p0_a2p0_f2p0_c2p0_b_p0p94"
   4              		.attribute unaligned_access, 0
   5              		.attribute stack_align, 16
   6              		.text
   7              	.Ltext0:
   8              		.cfi_sections	.debug_frame
   9              		.section	.rodata.coap_split_uri_sub.str1.4,"aMS",@progbits,1
  10              		.align	2
  11              	.LC0:
  12 0000 252E2A73 		.string	"%.*s URI scheme not enabled (not a proxy)\n"
  12      20555249 
  12      20736368 
  12      656D6520 
  12      6E6F7420 
  13 002b 00       		.align	2
  14              	.LC1:
  15 002c 252E2A73 		.string	"%.*s URI scheme unknown\n"
  15      20555249 
  15      20736368 
  15      656D6520 
  15      756E6B6E 
  16 0045 000000   		.align	2
  17              	.LC2:
  18 0048 636F6170 		.string	"coaps URI scheme not supported in this version of libcoap\n"
  18      73205552 
  18      49207363 
  18      68656D65 
  18      206E6F74 
  19 0083 00       		.align	2
  20              	.LC3:
  21 0084 636F6170 		.string	"coap+tcp URI scheme not supported in this version of libcoap\n"
  21      2B746370 
  21      20555249 
  21      20736368 
  21      656D6520 
  22 00c2 0000     		.align	2
  23              	.LC4:
  24 00c4 636F6170 		.string	"coaps+tcp URI scheme not supported in this version of libcoap\n"
  24      732B7463 
  24      70205552 
  24      49207363 
  24      68656D65 
  25 0103 00       		.align	2
  26              	.LC5:
  27 0104 636F6170 		.string	"coap+ws URI scheme not supported in this version of libcoap\n"
  27      2B777320 
  27      55524920 
  27      73636865 
  27      6D65206E 
  28 0141 000000   		.align	2
  29              	.LC6:
  30 0144 636F6170 		.string	"coaps+ws URI scheme not supported in this version of libcoap\n"
  30      732B7773 
  30      20555249 
  30      20736368 
  30      656D6520 
  31 0182 0000     		.align	2
  32              	.LC7:
  33 0184 556E7375 		.string	"Unsupported URI type %d\n"
  33      70706F72 
  33      74656420 
  33      55524920 
  33      74797065 
  34              		.section	.text.coap_split_uri_sub,"ax",@progbits
  35              		.align	1
  37              	coap_split_uri_sub:
  38              	.LFB32:
  39              		.file 1 "C:/Users/stapi/OneDrive/Desktop/GD32VW553/GD32VW55X_Wifi_BLE_SDK/GD32VW55x_RELEASE_V1.0.2
   1:C:/Users/stapi/OneDrive/Desktop/GD32VW553/GD32VW55X_Wifi_BLE_SDK/GD32VW55x_RELEASE_V1.0.2/MSDK/lwip/libcoap-4.3.4/src\coap_uri.c **** /* coap_uri.c -- helper functions for URI treatment
   2:C:/Users/stapi/OneDrive/Desktop/GD32VW553/GD32VW55X_Wifi_BLE_SDK/GD32VW55x_RELEASE_V1.0.2/MSDK/lwip/libcoap-4.3.4/src\coap_uri.c ****  *
   3:C:/Users/stapi/OneDrive/Desktop/GD32VW553/GD32VW55X_Wifi_BLE_SDK/GD32VW55x_RELEASE_V1.0.2/MSDK/lwip/libcoap-4.3.4/src\coap_uri.c ****  * Copyright (C) 2010--2012,2015-2016,2022-2023 Olaf Bergmann <bergmann@tzi.org>
   4:C:/Users/stapi/OneDrive/Desktop/GD32VW553/GD32VW55X_Wifi_BLE_SDK/GD32VW55x_RELEASE_V1.0.2/MSDK/lwip/libcoap-4.3.4/src\coap_uri.c ****  *
   5:C:/Users/stapi/OneDrive/Desktop/GD32VW553/GD32VW55X_Wifi_BLE_SDK/GD32VW55x_RELEASE_V1.0.2/MSDK/lwip/libcoap-4.3.4/src\coap_uri.c ****  * SPDX-License-Identifier: BSD-2-Clause
   6:C:/Users/stapi/OneDrive/Desktop/GD32VW553/GD32VW55X_Wifi_BLE_SDK/GD32VW55x_RELEASE_V1.0.2/MSDK/lwip/libcoap-4.3.4/src\coap_uri.c ****  *
   7:C:/Users/stapi/OneDrive/Desktop/GD32VW553/GD32VW55X_Wifi_BLE_SDK/GD32VW55x_RELEASE_V1.0.2/MSDK/lwip/libcoap-4.3.4/src\coap_uri.c ****  * This file is part of the CoAP library libcoap. Please see
   8:C:/Users/stapi/OneDrive/Desktop/GD32VW553/GD32VW55X_Wifi_BLE_SDK/GD32VW55x_RELEASE_V1.0.2/MSDK/lwip/libcoap-4.3.4/src\coap_uri.c ****  * README for terms of use.
   9:C:/Users/stapi/OneDrive/Desktop/GD32VW553/GD32VW55X_Wifi_BLE_SDK/GD32VW55x_RELEASE_V1.0.2/MSDK/lwip/libcoap-4.3.4/src\coap_uri.c ****  */
  10:C:/Users/stapi/OneDrive/Desktop/GD32VW553/GD32VW55X_Wifi_BLE_SDK/GD32VW55x_RELEASE_V1.0.2/MSDK/lwip/libcoap-4.3.4/src\coap_uri.c **** 
  11:C:/Users/stapi/OneDrive/Desktop/GD32VW553/GD32VW55X_Wifi_BLE_SDK/GD32VW55x_RELEASE_V1.0.2/MSDK/lwip/libcoap-4.3.4/src\coap_uri.c **** /**
  12:C:/Users/stapi/OneDrive/Desktop/GD32VW553/GD32VW55X_Wifi_BLE_SDK/GD32VW55x_RELEASE_V1.0.2/MSDK/lwip/libcoap-4.3.4/src\coap_uri.c ****  * @file coap_uri.c
  13:C:/Users/stapi/OneDrive/Desktop/GD32VW553/GD32VW55X_Wifi_BLE_SDK/GD32VW55x_RELEASE_V1.0.2/MSDK/lwip/libcoap-4.3.4/src\coap_uri.c ****  * @brief URI handling functions
  14:C:/Users/stapi/OneDrive/Desktop/GD32VW553/GD32VW55X_Wifi_BLE_SDK/GD32VW55x_RELEASE_V1.0.2/MSDK/lwip/libcoap-4.3.4/src\coap_uri.c ****  */
  15:C:/Users/stapi/OneDrive/Desktop/GD32VW553/GD32VW55X_Wifi_BLE_SDK/GD32VW55x_RELEASE_V1.0.2/MSDK/lwip/libcoap-4.3.4/src\coap_uri.c **** 
  16:C:/Users/stapi/OneDrive/Desktop/GD32VW553/GD32VW55X_Wifi_BLE_SDK/GD32VW55x_RELEASE_V1.0.2/MSDK/lwip/libcoap-4.3.4/src\coap_uri.c **** #include "coap3/coap_internal.h"
  17:C:/Users/stapi/OneDrive/Desktop/GD32VW553/GD32VW55X_Wifi_BLE_SDK/GD32VW55x_RELEASE_V1.0.2/MSDK/lwip/libcoap-4.3.4/src\coap_uri.c **** 
  18:C:/Users/stapi/OneDrive/Desktop/GD32VW553/GD32VW55X_Wifi_BLE_SDK/GD32VW55x_RELEASE_V1.0.2/MSDK/lwip/libcoap-4.3.4/src\coap_uri.c **** #if defined(HAVE_LIMITS_H)
  19:C:/Users/stapi/OneDrive/Desktop/GD32VW553/GD32VW55X_Wifi_BLE_SDK/GD32VW55x_RELEASE_V1.0.2/MSDK/lwip/libcoap-4.3.4/src\coap_uri.c **** #include <limits.h>
  20:C:/Users/stapi/OneDrive/Desktop/GD32VW553/GD32VW55X_Wifi_BLE_SDK/GD32VW55x_RELEASE_V1.0.2/MSDK/lwip/libcoap-4.3.4/src\coap_uri.c **** #endif
  21:C:/Users/stapi/OneDrive/Desktop/GD32VW553/GD32VW55X_Wifi_BLE_SDK/GD32VW55x_RELEASE_V1.0.2/MSDK/lwip/libcoap-4.3.4/src\coap_uri.c **** 
  22:C:/Users/stapi/OneDrive/Desktop/GD32VW553/GD32VW55X_Wifi_BLE_SDK/GD32VW55x_RELEASE_V1.0.2/MSDK/lwip/libcoap-4.3.4/src\coap_uri.c **** #include <stdint.h>
  23:C:/Users/stapi/OneDrive/Desktop/GD32VW553/GD32VW55X_Wifi_BLE_SDK/GD32VW55x_RELEASE_V1.0.2/MSDK/lwip/libcoap-4.3.4/src\coap_uri.c **** #include <stdio.h>
  24:C:/Users/stapi/OneDrive/Desktop/GD32VW553/GD32VW55X_Wifi_BLE_SDK/GD32VW55x_RELEASE_V1.0.2/MSDK/lwip/libcoap-4.3.4/src\coap_uri.c **** #include <string.h>
  25:C:/Users/stapi/OneDrive/Desktop/GD32VW553/GD32VW55X_Wifi_BLE_SDK/GD32VW55x_RELEASE_V1.0.2/MSDK/lwip/libcoap-4.3.4/src\coap_uri.c **** #include <ctype.h>
  26:C:/Users/stapi/OneDrive/Desktop/GD32VW553/GD32VW55X_Wifi_BLE_SDK/GD32VW55x_RELEASE_V1.0.2/MSDK/lwip/libcoap-4.3.4/src\coap_uri.c **** 
  27:C:/Users/stapi/OneDrive/Desktop/GD32VW553/GD32VW55X_Wifi_BLE_SDK/GD32VW55x_RELEASE_V1.0.2/MSDK/lwip/libcoap-4.3.4/src\coap_uri.c **** /**
  28:C:/Users/stapi/OneDrive/Desktop/GD32VW553/GD32VW55X_Wifi_BLE_SDK/GD32VW55x_RELEASE_V1.0.2/MSDK/lwip/libcoap-4.3.4/src\coap_uri.c ****  * A length-safe version of strchr(). This function returns a pointer
  29:C:/Users/stapi/OneDrive/Desktop/GD32VW553/GD32VW55X_Wifi_BLE_SDK/GD32VW55x_RELEASE_V1.0.2/MSDK/lwip/libcoap-4.3.4/src\coap_uri.c ****  * to the first occurrence of @p c  in @p s, or @c NULL if not found.
  30:C:/Users/stapi/OneDrive/Desktop/GD32VW553/GD32VW55X_Wifi_BLE_SDK/GD32VW55x_RELEASE_V1.0.2/MSDK/lwip/libcoap-4.3.4/src\coap_uri.c ****  *
  31:C:/Users/stapi/OneDrive/Desktop/GD32VW553/GD32VW55X_Wifi_BLE_SDK/GD32VW55x_RELEASE_V1.0.2/MSDK/lwip/libcoap-4.3.4/src\coap_uri.c ****  * @param s   The string to search for @p c.
  32:C:/Users/stapi/OneDrive/Desktop/GD32VW553/GD32VW55X_Wifi_BLE_SDK/GD32VW55x_RELEASE_V1.0.2/MSDK/lwip/libcoap-4.3.4/src\coap_uri.c ****  * @param len The length of @p s.
  33:C:/Users/stapi/OneDrive/Desktop/GD32VW553/GD32VW55X_Wifi_BLE_SDK/GD32VW55x_RELEASE_V1.0.2/MSDK/lwip/libcoap-4.3.4/src\coap_uri.c ****  * @param c   The character to search.
  34:C:/Users/stapi/OneDrive/Desktop/GD32VW553/GD32VW55X_Wifi_BLE_SDK/GD32VW55x_RELEASE_V1.0.2/MSDK/lwip/libcoap-4.3.4/src\coap_uri.c ****  *
  35:C:/Users/stapi/OneDrive/Desktop/GD32VW553/GD32VW55X_Wifi_BLE_SDK/GD32VW55x_RELEASE_V1.0.2/MSDK/lwip/libcoap-4.3.4/src\coap_uri.c ****  * @return A pointer to the first occurence of @p c, or @c NULL
  36:C:/Users/stapi/OneDrive/Desktop/GD32VW553/GD32VW55X_Wifi_BLE_SDK/GD32VW55x_RELEASE_V1.0.2/MSDK/lwip/libcoap-4.3.4/src\coap_uri.c ****  * if not found.
  37:C:/Users/stapi/OneDrive/Desktop/GD32VW553/GD32VW55X_Wifi_BLE_SDK/GD32VW55x_RELEASE_V1.0.2/MSDK/lwip/libcoap-4.3.4/src\coap_uri.c ****  */
  38:C:/Users/stapi/OneDrive/Desktop/GD32VW553/GD32VW55X_Wifi_BLE_SDK/GD32VW55x_RELEASE_V1.0.2/MSDK/lwip/libcoap-4.3.4/src\coap_uri.c **** COAP_STATIC_INLINE const uint8_t *
  39:C:/Users/stapi/OneDrive/Desktop/GD32VW553/GD32VW55X_Wifi_BLE_SDK/GD32VW55x_RELEASE_V1.0.2/MSDK/lwip/libcoap-4.3.4/src\coap_uri.c **** strnchr(const uint8_t *s, size_t len, unsigned char c) {
  40:C:/Users/stapi/OneDrive/Desktop/GD32VW553/GD32VW55X_Wifi_BLE_SDK/GD32VW55x_RELEASE_V1.0.2/MSDK/lwip/libcoap-4.3.4/src\coap_uri.c ****   while (len && *s++ != c)
  41:C:/Users/stapi/OneDrive/Desktop/GD32VW553/GD32VW55X_Wifi_BLE_SDK/GD32VW55x_RELEASE_V1.0.2/MSDK/lwip/libcoap-4.3.4/src\coap_uri.c ****     --len;
  42:C:/Users/stapi/OneDrive/Desktop/GD32VW553/GD32VW55X_Wifi_BLE_SDK/GD32VW55x_RELEASE_V1.0.2/MSDK/lwip/libcoap-4.3.4/src\coap_uri.c **** 
  43:C:/Users/stapi/OneDrive/Desktop/GD32VW553/GD32VW55X_Wifi_BLE_SDK/GD32VW55x_RELEASE_V1.0.2/MSDK/lwip/libcoap-4.3.4/src\coap_uri.c ****   return len ? s : NULL;
  44:C:/Users/stapi/OneDrive/Desktop/GD32VW553/GD32VW55X_Wifi_BLE_SDK/GD32VW55x_RELEASE_V1.0.2/MSDK/lwip/libcoap-4.3.4/src\coap_uri.c **** }
  45:C:/Users/stapi/OneDrive/Desktop/GD32VW553/GD32VW55X_Wifi_BLE_SDK/GD32VW55x_RELEASE_V1.0.2/MSDK/lwip/libcoap-4.3.4/src\coap_uri.c **** 
  46:C:/Users/stapi/OneDrive/Desktop/GD32VW553/GD32VW55X_Wifi_BLE_SDK/GD32VW55x_RELEASE_V1.0.2/MSDK/lwip/libcoap-4.3.4/src\coap_uri.c **** typedef enum coap_uri_check_t {
  47:C:/Users/stapi/OneDrive/Desktop/GD32VW553/GD32VW55X_Wifi_BLE_SDK/GD32VW55x_RELEASE_V1.0.2/MSDK/lwip/libcoap-4.3.4/src\coap_uri.c ****   COAP_URI_CHECK_URI,
  48:C:/Users/stapi/OneDrive/Desktop/GD32VW553/GD32VW55X_Wifi_BLE_SDK/GD32VW55x_RELEASE_V1.0.2/MSDK/lwip/libcoap-4.3.4/src\coap_uri.c ****   COAP_URI_CHECK_PROXY
  49:C:/Users/stapi/OneDrive/Desktop/GD32VW553/GD32VW55X_Wifi_BLE_SDK/GD32VW55x_RELEASE_V1.0.2/MSDK/lwip/libcoap-4.3.4/src\coap_uri.c **** } coap_uri_check_t;
  50:C:/Users/stapi/OneDrive/Desktop/GD32VW553/GD32VW55X_Wifi_BLE_SDK/GD32VW55x_RELEASE_V1.0.2/MSDK/lwip/libcoap-4.3.4/src\coap_uri.c **** 
  51:C:/Users/stapi/OneDrive/Desktop/GD32VW553/GD32VW55X_Wifi_BLE_SDK/GD32VW55x_RELEASE_V1.0.2/MSDK/lwip/libcoap-4.3.4/src\coap_uri.c **** coap_uri_info_t coap_uri_scheme[COAP_URI_SCHEME_LAST] = {
  52:C:/Users/stapi/OneDrive/Desktop/GD32VW553/GD32VW55X_Wifi_BLE_SDK/GD32VW55x_RELEASE_V1.0.2/MSDK/lwip/libcoap-4.3.4/src\coap_uri.c ****   { "coap",       COAP_DEFAULT_PORT,  0, COAP_URI_SCHEME_COAP },
  53:C:/Users/stapi/OneDrive/Desktop/GD32VW553/GD32VW55X_Wifi_BLE_SDK/GD32VW55x_RELEASE_V1.0.2/MSDK/lwip/libcoap-4.3.4/src\coap_uri.c ****   { "coaps",      COAPS_DEFAULT_PORT, 0, COAP_URI_SCHEME_COAPS },
  54:C:/Users/stapi/OneDrive/Desktop/GD32VW553/GD32VW55X_Wifi_BLE_SDK/GD32VW55x_RELEASE_V1.0.2/MSDK/lwip/libcoap-4.3.4/src\coap_uri.c ****   { "coap+tcp",   COAP_DEFAULT_PORT,  0, COAP_URI_SCHEME_COAP_TCP },
  55:C:/Users/stapi/OneDrive/Desktop/GD32VW553/GD32VW55X_Wifi_BLE_SDK/GD32VW55x_RELEASE_V1.0.2/MSDK/lwip/libcoap-4.3.4/src\coap_uri.c ****   { "coaps+tcp",  COAPS_DEFAULT_PORT, 0, COAP_URI_SCHEME_COAPS_TCP },
  56:C:/Users/stapi/OneDrive/Desktop/GD32VW553/GD32VW55X_Wifi_BLE_SDK/GD32VW55x_RELEASE_V1.0.2/MSDK/lwip/libcoap-4.3.4/src\coap_uri.c ****   { "http",         80,               1, COAP_URI_SCHEME_HTTP },
  57:C:/Users/stapi/OneDrive/Desktop/GD32VW553/GD32VW55X_Wifi_BLE_SDK/GD32VW55x_RELEASE_V1.0.2/MSDK/lwip/libcoap-4.3.4/src\coap_uri.c ****   { "https",       443,               1, COAP_URI_SCHEME_HTTPS },
  58:C:/Users/stapi/OneDrive/Desktop/GD32VW553/GD32VW55X_Wifi_BLE_SDK/GD32VW55x_RELEASE_V1.0.2/MSDK/lwip/libcoap-4.3.4/src\coap_uri.c ****   { "coap+ws",      80,               0, COAP_URI_SCHEME_COAP_WS },
  59:C:/Users/stapi/OneDrive/Desktop/GD32VW553/GD32VW55X_Wifi_BLE_SDK/GD32VW55x_RELEASE_V1.0.2/MSDK/lwip/libcoap-4.3.4/src\coap_uri.c ****   { "coaps+ws",    443,               0, COAP_URI_SCHEME_COAPS_WS }
  60:C:/Users/stapi/OneDrive/Desktop/GD32VW553/GD32VW55X_Wifi_BLE_SDK/GD32VW55x_RELEASE_V1.0.2/MSDK/lwip/libcoap-4.3.4/src\coap_uri.c **** };
  61:C:/Users/stapi/OneDrive/Desktop/GD32VW553/GD32VW55X_Wifi_BLE_SDK/GD32VW55x_RELEASE_V1.0.2/MSDK/lwip/libcoap-4.3.4/src\coap_uri.c **** 
  62:C:/Users/stapi/OneDrive/Desktop/GD32VW553/GD32VW55X_Wifi_BLE_SDK/GD32VW55x_RELEASE_V1.0.2/MSDK/lwip/libcoap-4.3.4/src\coap_uri.c **** static int
  63:C:/Users/stapi/OneDrive/Desktop/GD32VW553/GD32VW55X_Wifi_BLE_SDK/GD32VW55x_RELEASE_V1.0.2/MSDK/lwip/libcoap-4.3.4/src\coap_uri.c **** coap_split_uri_sub(const uint8_t *str_var,
  64:C:/Users/stapi/OneDrive/Desktop/GD32VW553/GD32VW55X_Wifi_BLE_SDK/GD32VW55x_RELEASE_V1.0.2/MSDK/lwip/libcoap-4.3.4/src\coap_uri.c ****                    size_t len,
  65:C:/Users/stapi/OneDrive/Desktop/GD32VW553/GD32VW55X_Wifi_BLE_SDK/GD32VW55x_RELEASE_V1.0.2/MSDK/lwip/libcoap-4.3.4/src\coap_uri.c ****                    coap_uri_t *uri,
  66:C:/Users/stapi/OneDrive/Desktop/GD32VW553/GD32VW55X_Wifi_BLE_SDK/GD32VW55x_RELEASE_V1.0.2/MSDK/lwip/libcoap-4.3.4/src\coap_uri.c ****                    coap_uri_check_t check_proxy) {
  40              		.loc 1 66 50
  41              		.cfi_startproc
  42              	.LVL0:
  67:C:/Users/stapi/OneDrive/Desktop/GD32VW553/GD32VW55X_Wifi_BLE_SDK/GD32VW55x_RELEASE_V1.0.2/MSDK/lwip/libcoap-4.3.4/src\coap_uri.c ****   const uint8_t *p, *q;
  43              		.loc 1 67 3
  68:C:/Users/stapi/OneDrive/Desktop/GD32VW553/GD32VW55X_Wifi_BLE_SDK/GD32VW55x_RELEASE_V1.0.2/MSDK/lwip/libcoap-4.3.4/src\coap_uri.c ****   int res = 0;
  44              		.loc 1 68 3
  69:C:/Users/stapi/OneDrive/Desktop/GD32VW553/GD32VW55X_Wifi_BLE_SDK/GD32VW55x_RELEASE_V1.0.2/MSDK/lwip/libcoap-4.3.4/src\coap_uri.c ****   size_t i;
  45              		.loc 1 69 3
  70:C:/Users/stapi/OneDrive/Desktop/GD32VW553/GD32VW55X_Wifi_BLE_SDK/GD32VW55x_RELEASE_V1.0.2/MSDK/lwip/libcoap-4.3.4/src\coap_uri.c ****   int is_unix_domain = 0;
  46              		.loc 1 70 3
  71:C:/Users/stapi/OneDrive/Desktop/GD32VW553/GD32VW55X_Wifi_BLE_SDK/GD32VW55x_RELEASE_V1.0.2/MSDK/lwip/libcoap-4.3.4/src\coap_uri.c **** 
  72:C:/Users/stapi/OneDrive/Desktop/GD32VW553/GD32VW55X_Wifi_BLE_SDK/GD32VW55x_RELEASE_V1.0.2/MSDK/lwip/libcoap-4.3.4/src\coap_uri.c ****   if (!str_var || !uri || len == 0)
  47              		.loc 1 72 3
  48              		.loc 1 72 6 is_stmt 0
  49 0000 19E1     		bne	a0,zero,.L2
  73:C:/Users/stapi/OneDrive/Desktop/GD32VW553/GD32VW55X_Wifi_BLE_SDK/GD32VW55x_RELEASE_V1.0.2/MSDK/lwip/libcoap-4.3.4/src\coap_uri.c ****     return -1;
  50              		.loc 1 73 12
  51 0002 7D55     		li	a0,-1
  52              	.LVL1:
  74:C:/Users/stapi/OneDrive/Desktop/GD32VW553/GD32VW55X_Wifi_BLE_SDK/GD32VW55x_RELEASE_V1.0.2/MSDK/lwip/libcoap-4.3.4/src\coap_uri.c **** 
  75:C:/Users/stapi/OneDrive/Desktop/GD32VW553/GD32VW55X_Wifi_BLE_SDK/GD32VW55x_RELEASE_V1.0.2/MSDK/lwip/libcoap-4.3.4/src\coap_uri.c ****   memset(uri, 0, sizeof(coap_uri_t));
  76:C:/Users/stapi/OneDrive/Desktop/GD32VW553/GD32VW55X_Wifi_BLE_SDK/GD32VW55x_RELEASE_V1.0.2/MSDK/lwip/libcoap-4.3.4/src\coap_uri.c ****   uri->port = COAP_DEFAULT_PORT;
  77:C:/Users/stapi/OneDrive/Desktop/GD32VW553/GD32VW55X_Wifi_BLE_SDK/GD32VW55x_RELEASE_V1.0.2/MSDK/lwip/libcoap-4.3.4/src\coap_uri.c **** 
  78:C:/Users/stapi/OneDrive/Desktop/GD32VW553/GD32VW55X_Wifi_BLE_SDK/GD32VW55x_RELEASE_V1.0.2/MSDK/lwip/libcoap-4.3.4/src\coap_uri.c ****   /* search for scheme */
  79:C:/Users/stapi/OneDrive/Desktop/GD32VW553/GD32VW55X_Wifi_BLE_SDK/GD32VW55x_RELEASE_V1.0.2/MSDK/lwip/libcoap-4.3.4/src\coap_uri.c ****   p = str_var;
  80:C:/Users/stapi/OneDrive/Desktop/GD32VW553/GD32VW55X_Wifi_BLE_SDK/GD32VW55x_RELEASE_V1.0.2/MSDK/lwip/libcoap-4.3.4/src\coap_uri.c ****   if (*p == '/') {
  81:C:/Users/stapi/OneDrive/Desktop/GD32VW553/GD32VW55X_Wifi_BLE_SDK/GD32VW55x_RELEASE_V1.0.2/MSDK/lwip/libcoap-4.3.4/src\coap_uri.c ****     /* no scheme, host or port */
  82:C:/Users/stapi/OneDrive/Desktop/GD32VW553/GD32VW55X_Wifi_BLE_SDK/GD32VW55x_RELEASE_V1.0.2/MSDK/lwip/libcoap-4.3.4/src\coap_uri.c ****     if (check_proxy == COAP_URI_CHECK_PROXY) {
  83:C:/Users/stapi/OneDrive/Desktop/GD32VW553/GD32VW55X_Wifi_BLE_SDK/GD32VW55x_RELEASE_V1.0.2/MSDK/lwip/libcoap-4.3.4/src\coap_uri.c ****       /* Must have ongoing host if proxy definition */
  84:C:/Users/stapi/OneDrive/Desktop/GD32VW553/GD32VW55X_Wifi_BLE_SDK/GD32VW55x_RELEASE_V1.0.2/MSDK/lwip/libcoap-4.3.4/src\coap_uri.c ****       return -1;
  85:C:/Users/stapi/OneDrive/Desktop/GD32VW553/GD32VW55X_Wifi_BLE_SDK/GD32VW55x_RELEASE_V1.0.2/MSDK/lwip/libcoap-4.3.4/src\coap_uri.c ****     }
  86:C:/Users/stapi/OneDrive/Desktop/GD32VW553/GD32VW55X_Wifi_BLE_SDK/GD32VW55x_RELEASE_V1.0.2/MSDK/lwip/libcoap-4.3.4/src\coap_uri.c ****     q = p;
  87:C:/Users/stapi/OneDrive/Desktop/GD32VW553/GD32VW55X_Wifi_BLE_SDK/GD32VW55x_RELEASE_V1.0.2/MSDK/lwip/libcoap-4.3.4/src\coap_uri.c ****     goto path;
  88:C:/Users/stapi/OneDrive/Desktop/GD32VW553/GD32VW55X_Wifi_BLE_SDK/GD32VW55x_RELEASE_V1.0.2/MSDK/lwip/libcoap-4.3.4/src\coap_uri.c ****   }
  89:C:/Users/stapi/OneDrive/Desktop/GD32VW553/GD32VW55X_Wifi_BLE_SDK/GD32VW55x_RELEASE_V1.0.2/MSDK/lwip/libcoap-4.3.4/src\coap_uri.c **** 
  90:C:/Users/stapi/OneDrive/Desktop/GD32VW553/GD32VW55X_Wifi_BLE_SDK/GD32VW55x_RELEASE_V1.0.2/MSDK/lwip/libcoap-4.3.4/src\coap_uri.c ****   /* find scheme terminating :// */
  91:C:/Users/stapi/OneDrive/Desktop/GD32VW553/GD32VW55X_Wifi_BLE_SDK/GD32VW55x_RELEASE_V1.0.2/MSDK/lwip/libcoap-4.3.4/src\coap_uri.c ****   while (len >= 3 && !(p[0] == ':' && p[1] == '/' && p[2] == '/')) {
  92:C:/Users/stapi/OneDrive/Desktop/GD32VW553/GD32VW55X_Wifi_BLE_SDK/GD32VW55x_RELEASE_V1.0.2/MSDK/lwip/libcoap-4.3.4/src\coap_uri.c ****     ++p;
  93:C:/Users/stapi/OneDrive/Desktop/GD32VW553/GD32VW55X_Wifi_BLE_SDK/GD32VW55x_RELEASE_V1.0.2/MSDK/lwip/libcoap-4.3.4/src\coap_uri.c ****     --len;
  94:C:/Users/stapi/OneDrive/Desktop/GD32VW553/GD32VW55X_Wifi_BLE_SDK/GD32VW55x_RELEASE_V1.0.2/MSDK/lwip/libcoap-4.3.4/src\coap_uri.c ****   }
  95:C:/Users/stapi/OneDrive/Desktop/GD32VW553/GD32VW55X_Wifi_BLE_SDK/GD32VW55x_RELEASE_V1.0.2/MSDK/lwip/libcoap-4.3.4/src\coap_uri.c ****   if (len < 3) {
  96:C:/Users/stapi/OneDrive/Desktop/GD32VW553/GD32VW55X_Wifi_BLE_SDK/GD32VW55x_RELEASE_V1.0.2/MSDK/lwip/libcoap-4.3.4/src\coap_uri.c ****     /* scheme not defined with a :// terminator */
  97:C:/Users/stapi/OneDrive/Desktop/GD32VW553/GD32VW55X_Wifi_BLE_SDK/GD32VW55x_RELEASE_V1.0.2/MSDK/lwip/libcoap-4.3.4/src\coap_uri.c ****     res = -2;
  98:C:/Users/stapi/OneDrive/Desktop/GD32VW553/GD32VW55X_Wifi_BLE_SDK/GD32VW55x_RELEASE_V1.0.2/MSDK/lwip/libcoap-4.3.4/src\coap_uri.c ****     goto error;
  99:C:/Users/stapi/OneDrive/Desktop/GD32VW553/GD32VW55X_Wifi_BLE_SDK/GD32VW55x_RELEASE_V1.0.2/MSDK/lwip/libcoap-4.3.4/src\coap_uri.c ****   }
 100:C:/Users/stapi/OneDrive/Desktop/GD32VW553/GD32VW55X_Wifi_BLE_SDK/GD32VW55x_RELEASE_V1.0.2/MSDK/lwip/libcoap-4.3.4/src\coap_uri.c ****   for (i = 0; i < COAP_URI_SCHEME_LAST; i++) {
 101:C:/Users/stapi/OneDrive/Desktop/GD32VW553/GD32VW55X_Wifi_BLE_SDK/GD32VW55x_RELEASE_V1.0.2/MSDK/lwip/libcoap-4.3.4/src\coap_uri.c ****     if ((p - str_var) == (int)strlen(coap_uri_scheme[i].name) &&
 102:C:/Users/stapi/OneDrive/Desktop/GD32VW553/GD32VW55X_Wifi_BLE_SDK/GD32VW55x_RELEASE_V1.0.2/MSDK/lwip/libcoap-4.3.4/src\coap_uri.c ****         memcmp(str_var, coap_uri_scheme[i].name, p - str_var) == 0) {
 103:C:/Users/stapi/OneDrive/Desktop/GD32VW553/GD32VW55X_Wifi_BLE_SDK/GD32VW55x_RELEASE_V1.0.2/MSDK/lwip/libcoap-4.3.4/src\coap_uri.c ****       if (check_proxy != COAP_URI_CHECK_PROXY && coap_uri_scheme[i].proxy_only) {
 104:C:/Users/stapi/OneDrive/Desktop/GD32VW553/GD32VW55X_Wifi_BLE_SDK/GD32VW55x_RELEASE_V1.0.2/MSDK/lwip/libcoap-4.3.4/src\coap_uri.c ****         coap_log_err("%.*s URI scheme not enabled (not a proxy)\n",
 105:C:/Users/stapi/OneDrive/Desktop/GD32VW553/GD32VW55X_Wifi_BLE_SDK/GD32VW55x_RELEASE_V1.0.2/MSDK/lwip/libcoap-4.3.4/src\coap_uri.c ****                      (int)(p - str_var), str_var);
 106:C:/Users/stapi/OneDrive/Desktop/GD32VW553/GD32VW55X_Wifi_BLE_SDK/GD32VW55x_RELEASE_V1.0.2/MSDK/lwip/libcoap-4.3.4/src\coap_uri.c ****         return -1;
 107:C:/Users/stapi/OneDrive/Desktop/GD32VW553/GD32VW55X_Wifi_BLE_SDK/GD32VW55x_RELEASE_V1.0.2/MSDK/lwip/libcoap-4.3.4/src\coap_uri.c ****       }
 108:C:/Users/stapi/OneDrive/Desktop/GD32VW553/GD32VW55X_Wifi_BLE_SDK/GD32VW55x_RELEASE_V1.0.2/MSDK/lwip/libcoap-4.3.4/src\coap_uri.c ****       uri->scheme = coap_uri_scheme[i].scheme;
 109:C:/Users/stapi/OneDrive/Desktop/GD32VW553/GD32VW55X_Wifi_BLE_SDK/GD32VW55x_RELEASE_V1.0.2/MSDK/lwip/libcoap-4.3.4/src\coap_uri.c ****       uri->port = coap_uri_scheme[i].port;
 110:C:/Users/stapi/OneDrive/Desktop/GD32VW553/GD32VW55X_Wifi_BLE_SDK/GD32VW55x_RELEASE_V1.0.2/MSDK/lwip/libcoap-4.3.4/src\coap_uri.c ****       break;
 111:C:/Users/stapi/OneDrive/Desktop/GD32VW553/GD32VW55X_Wifi_BLE_SDK/GD32VW55x_RELEASE_V1.0.2/MSDK/lwip/libcoap-4.3.4/src\coap_uri.c ****     }
 112:C:/Users/stapi/OneDrive/Desktop/GD32VW553/GD32VW55X_Wifi_BLE_SDK/GD32VW55x_RELEASE_V1.0.2/MSDK/lwip/libcoap-4.3.4/src\coap_uri.c ****   }
 113:C:/Users/stapi/OneDrive/Desktop/GD32VW553/GD32VW55X_Wifi_BLE_SDK/GD32VW55x_RELEASE_V1.0.2/MSDK/lwip/libcoap-4.3.4/src\coap_uri.c ****   if (i == COAP_URI_SCHEME_LAST) {
 114:C:/Users/stapi/OneDrive/Desktop/GD32VW553/GD32VW55X_Wifi_BLE_SDK/GD32VW55x_RELEASE_V1.0.2/MSDK/lwip/libcoap-4.3.4/src\coap_uri.c ****     /* scheme unknown */
 115:C:/Users/stapi/OneDrive/Desktop/GD32VW553/GD32VW55X_Wifi_BLE_SDK/GD32VW55x_RELEASE_V1.0.2/MSDK/lwip/libcoap-4.3.4/src\coap_uri.c ****     coap_log_err("%.*s URI scheme unknown\n", (int)(p - str_var), str_var);
 116:C:/Users/stapi/OneDrive/Desktop/GD32VW553/GD32VW55X_Wifi_BLE_SDK/GD32VW55x_RELEASE_V1.0.2/MSDK/lwip/libcoap-4.3.4/src\coap_uri.c ****     res = -1;
 117:C:/Users/stapi/OneDrive/Desktop/GD32VW553/GD32VW55X_Wifi_BLE_SDK/GD32VW55x_RELEASE_V1.0.2/MSDK/lwip/libcoap-4.3.4/src\coap_uri.c ****     goto error;
 118:C:/Users/stapi/OneDrive/Desktop/GD32VW553/GD32VW55X_Wifi_BLE_SDK/GD32VW55x_RELEASE_V1.0.2/MSDK/lwip/libcoap-4.3.4/src\coap_uri.c ****   }
 119:C:/Users/stapi/OneDrive/Desktop/GD32VW553/GD32VW55X_Wifi_BLE_SDK/GD32VW55x_RELEASE_V1.0.2/MSDK/lwip/libcoap-4.3.4/src\coap_uri.c ****   switch (uri->scheme) {
 120:C:/Users/stapi/OneDrive/Desktop/GD32VW553/GD32VW55X_Wifi_BLE_SDK/GD32VW55x_RELEASE_V1.0.2/MSDK/lwip/libcoap-4.3.4/src\coap_uri.c ****   case COAP_URI_SCHEME_COAP:
 121:C:/Users/stapi/OneDrive/Desktop/GD32VW553/GD32VW55X_Wifi_BLE_SDK/GD32VW55x_RELEASE_V1.0.2/MSDK/lwip/libcoap-4.3.4/src\coap_uri.c ****     break;
 122:C:/Users/stapi/OneDrive/Desktop/GD32VW553/GD32VW55X_Wifi_BLE_SDK/GD32VW55x_RELEASE_V1.0.2/MSDK/lwip/libcoap-4.3.4/src\coap_uri.c ****   case COAP_URI_SCHEME_COAPS:
 123:C:/Users/stapi/OneDrive/Desktop/GD32VW553/GD32VW55X_Wifi_BLE_SDK/GD32VW55x_RELEASE_V1.0.2/MSDK/lwip/libcoap-4.3.4/src\coap_uri.c ****     if (!coap_dtls_is_supported()) {
 124:C:/Users/stapi/OneDrive/Desktop/GD32VW553/GD32VW55X_Wifi_BLE_SDK/GD32VW55x_RELEASE_V1.0.2/MSDK/lwip/libcoap-4.3.4/src\coap_uri.c ****       coap_log_err("coaps URI scheme not supported in this version of libcoap\n");
 125:C:/Users/stapi/OneDrive/Desktop/GD32VW553/GD32VW55X_Wifi_BLE_SDK/GD32VW55x_RELEASE_V1.0.2/MSDK/lwip/libcoap-4.3.4/src\coap_uri.c ****       return -1;
 126:C:/Users/stapi/OneDrive/Desktop/GD32VW553/GD32VW55X_Wifi_BLE_SDK/GD32VW55x_RELEASE_V1.0.2/MSDK/lwip/libcoap-4.3.4/src\coap_uri.c ****     }
 127:C:/Users/stapi/OneDrive/Desktop/GD32VW553/GD32VW55X_Wifi_BLE_SDK/GD32VW55x_RELEASE_V1.0.2/MSDK/lwip/libcoap-4.3.4/src\coap_uri.c ****     break;
 128:C:/Users/stapi/OneDrive/Desktop/GD32VW553/GD32VW55X_Wifi_BLE_SDK/GD32VW55x_RELEASE_V1.0.2/MSDK/lwip/libcoap-4.3.4/src\coap_uri.c ****   case COAP_URI_SCHEME_COAP_TCP:
 129:C:/Users/stapi/OneDrive/Desktop/GD32VW553/GD32VW55X_Wifi_BLE_SDK/GD32VW55x_RELEASE_V1.0.2/MSDK/lwip/libcoap-4.3.4/src\coap_uri.c ****     if (!coap_tcp_is_supported()) {
 130:C:/Users/stapi/OneDrive/Desktop/GD32VW553/GD32VW55X_Wifi_BLE_SDK/GD32VW55x_RELEASE_V1.0.2/MSDK/lwip/libcoap-4.3.4/src\coap_uri.c ****       coap_log_err("coap+tcp URI scheme not supported in this version of libcoap\n");
 131:C:/Users/stapi/OneDrive/Desktop/GD32VW553/GD32VW55X_Wifi_BLE_SDK/GD32VW55x_RELEASE_V1.0.2/MSDK/lwip/libcoap-4.3.4/src\coap_uri.c ****       return -1;
 132:C:/Users/stapi/OneDrive/Desktop/GD32VW553/GD32VW55X_Wifi_BLE_SDK/GD32VW55x_RELEASE_V1.0.2/MSDK/lwip/libcoap-4.3.4/src\coap_uri.c ****     }
 133:C:/Users/stapi/OneDrive/Desktop/GD32VW553/GD32VW55X_Wifi_BLE_SDK/GD32VW55x_RELEASE_V1.0.2/MSDK/lwip/libcoap-4.3.4/src\coap_uri.c ****     break;
 134:C:/Users/stapi/OneDrive/Desktop/GD32VW553/GD32VW55X_Wifi_BLE_SDK/GD32VW55x_RELEASE_V1.0.2/MSDK/lwip/libcoap-4.3.4/src\coap_uri.c ****   case COAP_URI_SCHEME_COAPS_TCP:
 135:C:/Users/stapi/OneDrive/Desktop/GD32VW553/GD32VW55X_Wifi_BLE_SDK/GD32VW55x_RELEASE_V1.0.2/MSDK/lwip/libcoap-4.3.4/src\coap_uri.c ****     if (!coap_tcp_is_supported()) {
 136:C:/Users/stapi/OneDrive/Desktop/GD32VW553/GD32VW55X_Wifi_BLE_SDK/GD32VW55x_RELEASE_V1.0.2/MSDK/lwip/libcoap-4.3.4/src\coap_uri.c ****       coap_log_err("coaps+tcp URI scheme not supported in this version of libcoap\n");
 137:C:/Users/stapi/OneDrive/Desktop/GD32VW553/GD32VW55X_Wifi_BLE_SDK/GD32VW55x_RELEASE_V1.0.2/MSDK/lwip/libcoap-4.3.4/src\coap_uri.c ****       return -1;
 138:C:/Users/stapi/OneDrive/Desktop/GD32VW553/GD32VW55X_Wifi_BLE_SDK/GD32VW55x_RELEASE_V1.0.2/MSDK/lwip/libcoap-4.3.4/src\coap_uri.c ****     }
 139:C:/Users/stapi/OneDrive/Desktop/GD32VW553/GD32VW55X_Wifi_BLE_SDK/GD32VW55x_RELEASE_V1.0.2/MSDK/lwip/libcoap-4.3.4/src\coap_uri.c ****     break;
 140:C:/Users/stapi/OneDrive/Desktop/GD32VW553/GD32VW55X_Wifi_BLE_SDK/GD32VW55x_RELEASE_V1.0.2/MSDK/lwip/libcoap-4.3.4/src\coap_uri.c ****   case COAP_URI_SCHEME_COAP_WS:
 141:C:/Users/stapi/OneDrive/Desktop/GD32VW553/GD32VW55X_Wifi_BLE_SDK/GD32VW55x_RELEASE_V1.0.2/MSDK/lwip/libcoap-4.3.4/src\coap_uri.c ****     if (!coap_ws_is_supported()) {
 142:C:/Users/stapi/OneDrive/Desktop/GD32VW553/GD32VW55X_Wifi_BLE_SDK/GD32VW55x_RELEASE_V1.0.2/MSDK/lwip/libcoap-4.3.4/src\coap_uri.c ****       coap_log_err("coap+ws URI scheme not supported in this version of libcoap\n");
 143:C:/Users/stapi/OneDrive/Desktop/GD32VW553/GD32VW55X_Wifi_BLE_SDK/GD32VW55x_RELEASE_V1.0.2/MSDK/lwip/libcoap-4.3.4/src\coap_uri.c ****       return -1;
 144:C:/Users/stapi/OneDrive/Desktop/GD32VW553/GD32VW55X_Wifi_BLE_SDK/GD32VW55x_RELEASE_V1.0.2/MSDK/lwip/libcoap-4.3.4/src\coap_uri.c ****     }
 145:C:/Users/stapi/OneDrive/Desktop/GD32VW553/GD32VW55X_Wifi_BLE_SDK/GD32VW55x_RELEASE_V1.0.2/MSDK/lwip/libcoap-4.3.4/src\coap_uri.c ****     break;
 146:C:/Users/stapi/OneDrive/Desktop/GD32VW553/GD32VW55X_Wifi_BLE_SDK/GD32VW55x_RELEASE_V1.0.2/MSDK/lwip/libcoap-4.3.4/src\coap_uri.c ****   case COAP_URI_SCHEME_COAPS_WS:
 147:C:/Users/stapi/OneDrive/Desktop/GD32VW553/GD32VW55X_Wifi_BLE_SDK/GD32VW55x_RELEASE_V1.0.2/MSDK/lwip/libcoap-4.3.4/src\coap_uri.c ****     if (!coap_wss_is_supported()) {
 148:C:/Users/stapi/OneDrive/Desktop/GD32VW553/GD32VW55X_Wifi_BLE_SDK/GD32VW55x_RELEASE_V1.0.2/MSDK/lwip/libcoap-4.3.4/src\coap_uri.c ****       coap_log_err("coaps+ws URI scheme not supported in this version of libcoap\n");
 149:C:/Users/stapi/OneDrive/Desktop/GD32VW553/GD32VW55X_Wifi_BLE_SDK/GD32VW55x_RELEASE_V1.0.2/MSDK/lwip/libcoap-4.3.4/src\coap_uri.c ****       return -1;
 150:C:/Users/stapi/OneDrive/Desktop/GD32VW553/GD32VW55X_Wifi_BLE_SDK/GD32VW55x_RELEASE_V1.0.2/MSDK/lwip/libcoap-4.3.4/src\coap_uri.c ****     }
 151:C:/Users/stapi/OneDrive/Desktop/GD32VW553/GD32VW55X_Wifi_BLE_SDK/GD32VW55x_RELEASE_V1.0.2/MSDK/lwip/libcoap-4.3.4/src\coap_uri.c ****     break;
 152:C:/Users/stapi/OneDrive/Desktop/GD32VW553/GD32VW55X_Wifi_BLE_SDK/GD32VW55x_RELEASE_V1.0.2/MSDK/lwip/libcoap-4.3.4/src\coap_uri.c ****   case COAP_URI_SCHEME_HTTP:
 153:C:/Users/stapi/OneDrive/Desktop/GD32VW553/GD32VW55X_Wifi_BLE_SDK/GD32VW55x_RELEASE_V1.0.2/MSDK/lwip/libcoap-4.3.4/src\coap_uri.c ****   case COAP_URI_SCHEME_HTTPS:
 154:C:/Users/stapi/OneDrive/Desktop/GD32VW553/GD32VW55X_Wifi_BLE_SDK/GD32VW55x_RELEASE_V1.0.2/MSDK/lwip/libcoap-4.3.4/src\coap_uri.c ****   case COAP_URI_SCHEME_LAST:
 155:C:/Users/stapi/OneDrive/Desktop/GD32VW553/GD32VW55X_Wifi_BLE_SDK/GD32VW55x_RELEASE_V1.0.2/MSDK/lwip/libcoap-4.3.4/src\coap_uri.c ****   default:
 156:C:/Users/stapi/OneDrive/Desktop/GD32VW553/GD32VW55X_Wifi_BLE_SDK/GD32VW55x_RELEASE_V1.0.2/MSDK/lwip/libcoap-4.3.4/src\coap_uri.c ****     coap_log_warn("Unsupported URI type %d\n", uri->scheme);
 157:C:/Users/stapi/OneDrive/Desktop/GD32VW553/GD32VW55X_Wifi_BLE_SDK/GD32VW55x_RELEASE_V1.0.2/MSDK/lwip/libcoap-4.3.4/src\coap_uri.c ****     return -1;
 158:C:/Users/stapi/OneDrive/Desktop/GD32VW553/GD32VW55X_Wifi_BLE_SDK/GD32VW55x_RELEASE_V1.0.2/MSDK/lwip/libcoap-4.3.4/src\coap_uri.c ****   }
 159:C:/Users/stapi/OneDrive/Desktop/GD32VW553/GD32VW55X_Wifi_BLE_SDK/GD32VW55x_RELEASE_V1.0.2/MSDK/lwip/libcoap-4.3.4/src\coap_uri.c ****   /* skip :// */
 160:C:/Users/stapi/OneDrive/Desktop/GD32VW553/GD32VW55X_Wifi_BLE_SDK/GD32VW55x_RELEASE_V1.0.2/MSDK/lwip/libcoap-4.3.4/src\coap_uri.c ****   p += 3;
 161:C:/Users/stapi/OneDrive/Desktop/GD32VW553/GD32VW55X_Wifi_BLE_SDK/GD32VW55x_RELEASE_V1.0.2/MSDK/lwip/libcoap-4.3.4/src\coap_uri.c ****   len -= 3;
 162:C:/Users/stapi/OneDrive/Desktop/GD32VW553/GD32VW55X_Wifi_BLE_SDK/GD32VW55x_RELEASE_V1.0.2/MSDK/lwip/libcoap-4.3.4/src\coap_uri.c **** 
 163:C:/Users/stapi/OneDrive/Desktop/GD32VW553/GD32VW55X_Wifi_BLE_SDK/GD32VW55x_RELEASE_V1.0.2/MSDK/lwip/libcoap-4.3.4/src\coap_uri.c ****   /* p points to beginning of Uri-Host */
 164:C:/Users/stapi/OneDrive/Desktop/GD32VW553/GD32VW55X_Wifi_BLE_SDK/GD32VW55x_RELEASE_V1.0.2/MSDK/lwip/libcoap-4.3.4/src\coap_uri.c ****   q = p;
 165:C:/Users/stapi/OneDrive/Desktop/GD32VW553/GD32VW55X_Wifi_BLE_SDK/GD32VW55x_RELEASE_V1.0.2/MSDK/lwip/libcoap-4.3.4/src\coap_uri.c ****   if (len && *p == '[') {
 166:C:/Users/stapi/OneDrive/Desktop/GD32VW553/GD32VW55X_Wifi_BLE_SDK/GD32VW55x_RELEASE_V1.0.2/MSDK/lwip/libcoap-4.3.4/src\coap_uri.c ****     /* IPv6 address reference */
 167:C:/Users/stapi/OneDrive/Desktop/GD32VW553/GD32VW55X_Wifi_BLE_SDK/GD32VW55x_RELEASE_V1.0.2/MSDK/lwip/libcoap-4.3.4/src\coap_uri.c ****     ++p;
 168:C:/Users/stapi/OneDrive/Desktop/GD32VW553/GD32VW55X_Wifi_BLE_SDK/GD32VW55x_RELEASE_V1.0.2/MSDK/lwip/libcoap-4.3.4/src\coap_uri.c **** 
 169:C:/Users/stapi/OneDrive/Desktop/GD32VW553/GD32VW55X_Wifi_BLE_SDK/GD32VW55x_RELEASE_V1.0.2/MSDK/lwip/libcoap-4.3.4/src\coap_uri.c ****     while (len && *q != ']') {
 170:C:/Users/stapi/OneDrive/Desktop/GD32VW553/GD32VW55X_Wifi_BLE_SDK/GD32VW55x_RELEASE_V1.0.2/MSDK/lwip/libcoap-4.3.4/src\coap_uri.c ****       ++q;
 171:C:/Users/stapi/OneDrive/Desktop/GD32VW553/GD32VW55X_Wifi_BLE_SDK/GD32VW55x_RELEASE_V1.0.2/MSDK/lwip/libcoap-4.3.4/src\coap_uri.c ****       --len;
 172:C:/Users/stapi/OneDrive/Desktop/GD32VW553/GD32VW55X_Wifi_BLE_SDK/GD32VW55x_RELEASE_V1.0.2/MSDK/lwip/libcoap-4.3.4/src\coap_uri.c ****     }
 173:C:/Users/stapi/OneDrive/Desktop/GD32VW553/GD32VW55X_Wifi_BLE_SDK/GD32VW55x_RELEASE_V1.0.2/MSDK/lwip/libcoap-4.3.4/src\coap_uri.c **** 
 174:C:/Users/stapi/OneDrive/Desktop/GD32VW553/GD32VW55X_Wifi_BLE_SDK/GD32VW55x_RELEASE_V1.0.2/MSDK/lwip/libcoap-4.3.4/src\coap_uri.c ****     if (!len || *q != ']' || p == q) {
 175:C:/Users/stapi/OneDrive/Desktop/GD32VW553/GD32VW55X_Wifi_BLE_SDK/GD32VW55x_RELEASE_V1.0.2/MSDK/lwip/libcoap-4.3.4/src\coap_uri.c ****       res = -3;
 176:C:/Users/stapi/OneDrive/Desktop/GD32VW553/GD32VW55X_Wifi_BLE_SDK/GD32VW55x_RELEASE_V1.0.2/MSDK/lwip/libcoap-4.3.4/src\coap_uri.c ****       goto error;
 177:C:/Users/stapi/OneDrive/Desktop/GD32VW553/GD32VW55X_Wifi_BLE_SDK/GD32VW55x_RELEASE_V1.0.2/MSDK/lwip/libcoap-4.3.4/src\coap_uri.c ****     }
 178:C:/Users/stapi/OneDrive/Desktop/GD32VW553/GD32VW55X_Wifi_BLE_SDK/GD32VW55x_RELEASE_V1.0.2/MSDK/lwip/libcoap-4.3.4/src\coap_uri.c **** 
 179:C:/Users/stapi/OneDrive/Desktop/GD32VW553/GD32VW55X_Wifi_BLE_SDK/GD32VW55x_RELEASE_V1.0.2/MSDK/lwip/libcoap-4.3.4/src\coap_uri.c ****     COAP_SET_STR(&uri->host, q - p, p);
 180:C:/Users/stapi/OneDrive/Desktop/GD32VW553/GD32VW55X_Wifi_BLE_SDK/GD32VW55x_RELEASE_V1.0.2/MSDK/lwip/libcoap-4.3.4/src\coap_uri.c ****     ++q;
 181:C:/Users/stapi/OneDrive/Desktop/GD32VW553/GD32VW55X_Wifi_BLE_SDK/GD32VW55x_RELEASE_V1.0.2/MSDK/lwip/libcoap-4.3.4/src\coap_uri.c ****     --len;
 182:C:/Users/stapi/OneDrive/Desktop/GD32VW553/GD32VW55X_Wifi_BLE_SDK/GD32VW55x_RELEASE_V1.0.2/MSDK/lwip/libcoap-4.3.4/src\coap_uri.c ****   } else {
 183:C:/Users/stapi/OneDrive/Desktop/GD32VW553/GD32VW55X_Wifi_BLE_SDK/GD32VW55x_RELEASE_V1.0.2/MSDK/lwip/libcoap-4.3.4/src\coap_uri.c ****     /* IPv4 address, FQDN or Unix domain socket */
 184:C:/Users/stapi/OneDrive/Desktop/GD32VW553/GD32VW55X_Wifi_BLE_SDK/GD32VW55x_RELEASE_V1.0.2/MSDK/lwip/libcoap-4.3.4/src\coap_uri.c ****     if (len >= 3 && p[0] == '%' && p[1] == '2' &&
 185:C:/Users/stapi/OneDrive/Desktop/GD32VW553/GD32VW55X_Wifi_BLE_SDK/GD32VW55x_RELEASE_V1.0.2/MSDK/lwip/libcoap-4.3.4/src\coap_uri.c ****         (p[2] == 'F' || p[2] == 'f')) {
 186:C:/Users/stapi/OneDrive/Desktop/GD32VW553/GD32VW55X_Wifi_BLE_SDK/GD32VW55x_RELEASE_V1.0.2/MSDK/lwip/libcoap-4.3.4/src\coap_uri.c ****       /* Unix domain definition */
 187:C:/Users/stapi/OneDrive/Desktop/GD32VW553/GD32VW55X_Wifi_BLE_SDK/GD32VW55x_RELEASE_V1.0.2/MSDK/lwip/libcoap-4.3.4/src\coap_uri.c ****       uri->port = 0;
 188:C:/Users/stapi/OneDrive/Desktop/GD32VW553/GD32VW55X_Wifi_BLE_SDK/GD32VW55x_RELEASE_V1.0.2/MSDK/lwip/libcoap-4.3.4/src\coap_uri.c ****       is_unix_domain = 1;
 189:C:/Users/stapi/OneDrive/Desktop/GD32VW553/GD32VW55X_Wifi_BLE_SDK/GD32VW55x_RELEASE_V1.0.2/MSDK/lwip/libcoap-4.3.4/src\coap_uri.c ****     }
 190:C:/Users/stapi/OneDrive/Desktop/GD32VW553/GD32VW55X_Wifi_BLE_SDK/GD32VW55x_RELEASE_V1.0.2/MSDK/lwip/libcoap-4.3.4/src\coap_uri.c ****     while (len && *q != ':' && *q != '/' && *q != '?') {
 191:C:/Users/stapi/OneDrive/Desktop/GD32VW553/GD32VW55X_Wifi_BLE_SDK/GD32VW55x_RELEASE_V1.0.2/MSDK/lwip/libcoap-4.3.4/src\coap_uri.c ****       ++q;
 192:C:/Users/stapi/OneDrive/Desktop/GD32VW553/GD32VW55X_Wifi_BLE_SDK/GD32VW55x_RELEASE_V1.0.2/MSDK/lwip/libcoap-4.3.4/src\coap_uri.c ****       --len;
 193:C:/Users/stapi/OneDrive/Desktop/GD32VW553/GD32VW55X_Wifi_BLE_SDK/GD32VW55x_RELEASE_V1.0.2/MSDK/lwip/libcoap-4.3.4/src\coap_uri.c ****     }
 194:C:/Users/stapi/OneDrive/Desktop/GD32VW553/GD32VW55X_Wifi_BLE_SDK/GD32VW55x_RELEASE_V1.0.2/MSDK/lwip/libcoap-4.3.4/src\coap_uri.c **** 
 195:C:/Users/stapi/OneDrive/Desktop/GD32VW553/GD32VW55X_Wifi_BLE_SDK/GD32VW55x_RELEASE_V1.0.2/MSDK/lwip/libcoap-4.3.4/src\coap_uri.c ****     if (p == q) {
 196:C:/Users/stapi/OneDrive/Desktop/GD32VW553/GD32VW55X_Wifi_BLE_SDK/GD32VW55x_RELEASE_V1.0.2/MSDK/lwip/libcoap-4.3.4/src\coap_uri.c ****       res = -3;
 197:C:/Users/stapi/OneDrive/Desktop/GD32VW553/GD32VW55X_Wifi_BLE_SDK/GD32VW55x_RELEASE_V1.0.2/MSDK/lwip/libcoap-4.3.4/src\coap_uri.c ****       goto error;
 198:C:/Users/stapi/OneDrive/Desktop/GD32VW553/GD32VW55X_Wifi_BLE_SDK/GD32VW55x_RELEASE_V1.0.2/MSDK/lwip/libcoap-4.3.4/src\coap_uri.c ****     }
 199:C:/Users/stapi/OneDrive/Desktop/GD32VW553/GD32VW55X_Wifi_BLE_SDK/GD32VW55x_RELEASE_V1.0.2/MSDK/lwip/libcoap-4.3.4/src\coap_uri.c **** 
 200:C:/Users/stapi/OneDrive/Desktop/GD32VW553/GD32VW55X_Wifi_BLE_SDK/GD32VW55x_RELEASE_V1.0.2/MSDK/lwip/libcoap-4.3.4/src\coap_uri.c ****     COAP_SET_STR(&uri->host, q - p, p);
 201:C:/Users/stapi/OneDrive/Desktop/GD32VW553/GD32VW55X_Wifi_BLE_SDK/GD32VW55x_RELEASE_V1.0.2/MSDK/lwip/libcoap-4.3.4/src\coap_uri.c ****   }
 202:C:/Users/stapi/OneDrive/Desktop/GD32VW553/GD32VW55X_Wifi_BLE_SDK/GD32VW55x_RELEASE_V1.0.2/MSDK/lwip/libcoap-4.3.4/src\coap_uri.c **** 
 203:C:/Users/stapi/OneDrive/Desktop/GD32VW553/GD32VW55X_Wifi_BLE_SDK/GD32VW55x_RELEASE_V1.0.2/MSDK/lwip/libcoap-4.3.4/src\coap_uri.c ****   /* check for Uri-Port (invalid for Unix) */
 204:C:/Users/stapi/OneDrive/Desktop/GD32VW553/GD32VW55X_Wifi_BLE_SDK/GD32VW55x_RELEASE_V1.0.2/MSDK/lwip/libcoap-4.3.4/src\coap_uri.c ****   if (len && *q == ':') {
 205:C:/Users/stapi/OneDrive/Desktop/GD32VW553/GD32VW55X_Wifi_BLE_SDK/GD32VW55x_RELEASE_V1.0.2/MSDK/lwip/libcoap-4.3.4/src\coap_uri.c ****     if (is_unix_domain) {
 206:C:/Users/stapi/OneDrive/Desktop/GD32VW553/GD32VW55X_Wifi_BLE_SDK/GD32VW55x_RELEASE_V1.0.2/MSDK/lwip/libcoap-4.3.4/src\coap_uri.c ****       res = -5;
 207:C:/Users/stapi/OneDrive/Desktop/GD32VW553/GD32VW55X_Wifi_BLE_SDK/GD32VW55x_RELEASE_V1.0.2/MSDK/lwip/libcoap-4.3.4/src\coap_uri.c ****       goto error;
 208:C:/Users/stapi/OneDrive/Desktop/GD32VW553/GD32VW55X_Wifi_BLE_SDK/GD32VW55x_RELEASE_V1.0.2/MSDK/lwip/libcoap-4.3.4/src\coap_uri.c ****     }
 209:C:/Users/stapi/OneDrive/Desktop/GD32VW553/GD32VW55X_Wifi_BLE_SDK/GD32VW55x_RELEASE_V1.0.2/MSDK/lwip/libcoap-4.3.4/src\coap_uri.c ****     p = ++q;
 210:C:/Users/stapi/OneDrive/Desktop/GD32VW553/GD32VW55X_Wifi_BLE_SDK/GD32VW55x_RELEASE_V1.0.2/MSDK/lwip/libcoap-4.3.4/src\coap_uri.c ****     --len;
 211:C:/Users/stapi/OneDrive/Desktop/GD32VW553/GD32VW55X_Wifi_BLE_SDK/GD32VW55x_RELEASE_V1.0.2/MSDK/lwip/libcoap-4.3.4/src\coap_uri.c **** 
 212:C:/Users/stapi/OneDrive/Desktop/GD32VW553/GD32VW55X_Wifi_BLE_SDK/GD32VW55x_RELEASE_V1.0.2/MSDK/lwip/libcoap-4.3.4/src\coap_uri.c ****     while (len && isdigit(*q)) {
 213:C:/Users/stapi/OneDrive/Desktop/GD32VW553/GD32VW55X_Wifi_BLE_SDK/GD32VW55x_RELEASE_V1.0.2/MSDK/lwip/libcoap-4.3.4/src\coap_uri.c ****       ++q;
 214:C:/Users/stapi/OneDrive/Desktop/GD32VW553/GD32VW55X_Wifi_BLE_SDK/GD32VW55x_RELEASE_V1.0.2/MSDK/lwip/libcoap-4.3.4/src\coap_uri.c ****       --len;
 215:C:/Users/stapi/OneDrive/Desktop/GD32VW553/GD32VW55X_Wifi_BLE_SDK/GD32VW55x_RELEASE_V1.0.2/MSDK/lwip/libcoap-4.3.4/src\coap_uri.c ****     }
 216:C:/Users/stapi/OneDrive/Desktop/GD32VW553/GD32VW55X_Wifi_BLE_SDK/GD32VW55x_RELEASE_V1.0.2/MSDK/lwip/libcoap-4.3.4/src\coap_uri.c **** 
 217:C:/Users/stapi/OneDrive/Desktop/GD32VW553/GD32VW55X_Wifi_BLE_SDK/GD32VW55x_RELEASE_V1.0.2/MSDK/lwip/libcoap-4.3.4/src\coap_uri.c ****     if (p < q) {                /* explicit port number given */
 218:C:/Users/stapi/OneDrive/Desktop/GD32VW553/GD32VW55X_Wifi_BLE_SDK/GD32VW55x_RELEASE_V1.0.2/MSDK/lwip/libcoap-4.3.4/src\coap_uri.c ****       int uri_port = 0;
 219:C:/Users/stapi/OneDrive/Desktop/GD32VW553/GD32VW55X_Wifi_BLE_SDK/GD32VW55x_RELEASE_V1.0.2/MSDK/lwip/libcoap-4.3.4/src\coap_uri.c **** 
 220:C:/Users/stapi/OneDrive/Desktop/GD32VW553/GD32VW55X_Wifi_BLE_SDK/GD32VW55x_RELEASE_V1.0.2/MSDK/lwip/libcoap-4.3.4/src\coap_uri.c ****       while ((p < q) && (uri_port <= UINT16_MAX))
 221:C:/Users/stapi/OneDrive/Desktop/GD32VW553/GD32VW55X_Wifi_BLE_SDK/GD32VW55x_RELEASE_V1.0.2/MSDK/lwip/libcoap-4.3.4/src\coap_uri.c ****         uri_port = uri_port * 10 + (*p++ - '0');
 222:C:/Users/stapi/OneDrive/Desktop/GD32VW553/GD32VW55X_Wifi_BLE_SDK/GD32VW55x_RELEASE_V1.0.2/MSDK/lwip/libcoap-4.3.4/src\coap_uri.c **** 
 223:C:/Users/stapi/OneDrive/Desktop/GD32VW553/GD32VW55X_Wifi_BLE_SDK/GD32VW55x_RELEASE_V1.0.2/MSDK/lwip/libcoap-4.3.4/src\coap_uri.c ****       /* check if port number is in allowed range */
 224:C:/Users/stapi/OneDrive/Desktop/GD32VW553/GD32VW55X_Wifi_BLE_SDK/GD32VW55x_RELEASE_V1.0.2/MSDK/lwip/libcoap-4.3.4/src\coap_uri.c ****       if (uri_port > UINT16_MAX) {
 225:C:/Users/stapi/OneDrive/Desktop/GD32VW553/GD32VW55X_Wifi_BLE_SDK/GD32VW55x_RELEASE_V1.0.2/MSDK/lwip/libcoap-4.3.4/src\coap_uri.c ****         res = -4;
 226:C:/Users/stapi/OneDrive/Desktop/GD32VW553/GD32VW55X_Wifi_BLE_SDK/GD32VW55x_RELEASE_V1.0.2/MSDK/lwip/libcoap-4.3.4/src\coap_uri.c ****         goto error;
 227:C:/Users/stapi/OneDrive/Desktop/GD32VW553/GD32VW55X_Wifi_BLE_SDK/GD32VW55x_RELEASE_V1.0.2/MSDK/lwip/libcoap-4.3.4/src\coap_uri.c ****       }
 228:C:/Users/stapi/OneDrive/Desktop/GD32VW553/GD32VW55X_Wifi_BLE_SDK/GD32VW55x_RELEASE_V1.0.2/MSDK/lwip/libcoap-4.3.4/src\coap_uri.c **** 
 229:C:/Users/stapi/OneDrive/Desktop/GD32VW553/GD32VW55X_Wifi_BLE_SDK/GD32VW55x_RELEASE_V1.0.2/MSDK/lwip/libcoap-4.3.4/src\coap_uri.c ****       uri->port = (uint16_t)uri_port;
 230:C:/Users/stapi/OneDrive/Desktop/GD32VW553/GD32VW55X_Wifi_BLE_SDK/GD32VW55x_RELEASE_V1.0.2/MSDK/lwip/libcoap-4.3.4/src\coap_uri.c ****     }
 231:C:/Users/stapi/OneDrive/Desktop/GD32VW553/GD32VW55X_Wifi_BLE_SDK/GD32VW55x_RELEASE_V1.0.2/MSDK/lwip/libcoap-4.3.4/src\coap_uri.c ****   }
 232:C:/Users/stapi/OneDrive/Desktop/GD32VW553/GD32VW55X_Wifi_BLE_SDK/GD32VW55x_RELEASE_V1.0.2/MSDK/lwip/libcoap-4.3.4/src\coap_uri.c **** 
 233:C:/Users/stapi/OneDrive/Desktop/GD32VW553/GD32VW55X_Wifi_BLE_SDK/GD32VW55x_RELEASE_V1.0.2/MSDK/lwip/libcoap-4.3.4/src\coap_uri.c **** path:                 /* at this point, p must point to an absolute path */
 234:C:/Users/stapi/OneDrive/Desktop/GD32VW553/GD32VW55X_Wifi_BLE_SDK/GD32VW55x_RELEASE_V1.0.2/MSDK/lwip/libcoap-4.3.4/src\coap_uri.c **** 
 235:C:/Users/stapi/OneDrive/Desktop/GD32VW553/GD32VW55X_Wifi_BLE_SDK/GD32VW55x_RELEASE_V1.0.2/MSDK/lwip/libcoap-4.3.4/src\coap_uri.c ****   if (!len)
 236:C:/Users/stapi/OneDrive/Desktop/GD32VW553/GD32VW55X_Wifi_BLE_SDK/GD32VW55x_RELEASE_V1.0.2/MSDK/lwip/libcoap-4.3.4/src\coap_uri.c ****     goto end;
 237:C:/Users/stapi/OneDrive/Desktop/GD32VW553/GD32VW55X_Wifi_BLE_SDK/GD32VW55x_RELEASE_V1.0.2/MSDK/lwip/libcoap-4.3.4/src\coap_uri.c **** 
 238:C:/Users/stapi/OneDrive/Desktop/GD32VW553/GD32VW55X_Wifi_BLE_SDK/GD32VW55x_RELEASE_V1.0.2/MSDK/lwip/libcoap-4.3.4/src\coap_uri.c ****   if (*q == '/') {
 239:C:/Users/stapi/OneDrive/Desktop/GD32VW553/GD32VW55X_Wifi_BLE_SDK/GD32VW55x_RELEASE_V1.0.2/MSDK/lwip/libcoap-4.3.4/src\coap_uri.c ****     p = ++q;
 240:C:/Users/stapi/OneDrive/Desktop/GD32VW553/GD32VW55X_Wifi_BLE_SDK/GD32VW55x_RELEASE_V1.0.2/MSDK/lwip/libcoap-4.3.4/src\coap_uri.c ****     --len;
 241:C:/Users/stapi/OneDrive/Desktop/GD32VW553/GD32VW55X_Wifi_BLE_SDK/GD32VW55x_RELEASE_V1.0.2/MSDK/lwip/libcoap-4.3.4/src\coap_uri.c **** 
 242:C:/Users/stapi/OneDrive/Desktop/GD32VW553/GD32VW55X_Wifi_BLE_SDK/GD32VW55x_RELEASE_V1.0.2/MSDK/lwip/libcoap-4.3.4/src\coap_uri.c ****     while (len && *q != '?') {
 243:C:/Users/stapi/OneDrive/Desktop/GD32VW553/GD32VW55X_Wifi_BLE_SDK/GD32VW55x_RELEASE_V1.0.2/MSDK/lwip/libcoap-4.3.4/src\coap_uri.c ****       ++q;
 244:C:/Users/stapi/OneDrive/Desktop/GD32VW553/GD32VW55X_Wifi_BLE_SDK/GD32VW55x_RELEASE_V1.0.2/MSDK/lwip/libcoap-4.3.4/src\coap_uri.c ****       --len;
 245:C:/Users/stapi/OneDrive/Desktop/GD32VW553/GD32VW55X_Wifi_BLE_SDK/GD32VW55x_RELEASE_V1.0.2/MSDK/lwip/libcoap-4.3.4/src\coap_uri.c ****     }
 246:C:/Users/stapi/OneDrive/Desktop/GD32VW553/GD32VW55X_Wifi_BLE_SDK/GD32VW55x_RELEASE_V1.0.2/MSDK/lwip/libcoap-4.3.4/src\coap_uri.c **** 
 247:C:/Users/stapi/OneDrive/Desktop/GD32VW553/GD32VW55X_Wifi_BLE_SDK/GD32VW55x_RELEASE_V1.0.2/MSDK/lwip/libcoap-4.3.4/src\coap_uri.c ****     if (p < q) {
 248:C:/Users/stapi/OneDrive/Desktop/GD32VW553/GD32VW55X_Wifi_BLE_SDK/GD32VW55x_RELEASE_V1.0.2/MSDK/lwip/libcoap-4.3.4/src\coap_uri.c ****       COAP_SET_STR(&uri->path, q - p, p);
 249:C:/Users/stapi/OneDrive/Desktop/GD32VW553/GD32VW55X_Wifi_BLE_SDK/GD32VW55x_RELEASE_V1.0.2/MSDK/lwip/libcoap-4.3.4/src\coap_uri.c ****       p = q;
 250:C:/Users/stapi/OneDrive/Desktop/GD32VW553/GD32VW55X_Wifi_BLE_SDK/GD32VW55x_RELEASE_V1.0.2/MSDK/lwip/libcoap-4.3.4/src\coap_uri.c ****     }
 251:C:/Users/stapi/OneDrive/Desktop/GD32VW553/GD32VW55X_Wifi_BLE_SDK/GD32VW55x_RELEASE_V1.0.2/MSDK/lwip/libcoap-4.3.4/src\coap_uri.c ****   }
 252:C:/Users/stapi/OneDrive/Desktop/GD32VW553/GD32VW55X_Wifi_BLE_SDK/GD32VW55x_RELEASE_V1.0.2/MSDK/lwip/libcoap-4.3.4/src\coap_uri.c **** 
 253:C:/Users/stapi/OneDrive/Desktop/GD32VW553/GD32VW55X_Wifi_BLE_SDK/GD32VW55x_RELEASE_V1.0.2/MSDK/lwip/libcoap-4.3.4/src\coap_uri.c ****   /* Uri_Query */
 254:C:/Users/stapi/OneDrive/Desktop/GD32VW553/GD32VW55X_Wifi_BLE_SDK/GD32VW55x_RELEASE_V1.0.2/MSDK/lwip/libcoap-4.3.4/src\coap_uri.c ****   if (len && *p == '?') {
 255:C:/Users/stapi/OneDrive/Desktop/GD32VW553/GD32VW55X_Wifi_BLE_SDK/GD32VW55x_RELEASE_V1.0.2/MSDK/lwip/libcoap-4.3.4/src\coap_uri.c ****     ++p;
 256:C:/Users/stapi/OneDrive/Desktop/GD32VW553/GD32VW55X_Wifi_BLE_SDK/GD32VW55x_RELEASE_V1.0.2/MSDK/lwip/libcoap-4.3.4/src\coap_uri.c ****     --len;
 257:C:/Users/stapi/OneDrive/Desktop/GD32VW553/GD32VW55X_Wifi_BLE_SDK/GD32VW55x_RELEASE_V1.0.2/MSDK/lwip/libcoap-4.3.4/src\coap_uri.c ****     COAP_SET_STR(&uri->query, len, p);
 258:C:/Users/stapi/OneDrive/Desktop/GD32VW553/GD32VW55X_Wifi_BLE_SDK/GD32VW55x_RELEASE_V1.0.2/MSDK/lwip/libcoap-4.3.4/src\coap_uri.c ****     len = 0;
 259:C:/Users/stapi/OneDrive/Desktop/GD32VW553/GD32VW55X_Wifi_BLE_SDK/GD32VW55x_RELEASE_V1.0.2/MSDK/lwip/libcoap-4.3.4/src\coap_uri.c ****   }
 260:C:/Users/stapi/OneDrive/Desktop/GD32VW553/GD32VW55X_Wifi_BLE_SDK/GD32VW55x_RELEASE_V1.0.2/MSDK/lwip/libcoap-4.3.4/src\coap_uri.c **** 
 261:C:/Users/stapi/OneDrive/Desktop/GD32VW553/GD32VW55X_Wifi_BLE_SDK/GD32VW55x_RELEASE_V1.0.2/MSDK/lwip/libcoap-4.3.4/src\coap_uri.c **** end:
 262:C:/Users/stapi/OneDrive/Desktop/GD32VW553/GD32VW55X_Wifi_BLE_SDK/GD32VW55x_RELEASE_V1.0.2/MSDK/lwip/libcoap-4.3.4/src\coap_uri.c ****   return len ? -1 : 0;
 263:C:/Users/stapi/OneDrive/Desktop/GD32VW553/GD32VW55X_Wifi_BLE_SDK/GD32VW55x_RELEASE_V1.0.2/MSDK/lwip/libcoap-4.3.4/src\coap_uri.c **** 
 264:C:/Users/stapi/OneDrive/Desktop/GD32VW553/GD32VW55X_Wifi_BLE_SDK/GD32VW55x_RELEASE_V1.0.2/MSDK/lwip/libcoap-4.3.4/src\coap_uri.c **** error:
 265:C:/Users/stapi/OneDrive/Desktop/GD32VW553/GD32VW55X_Wifi_BLE_SDK/GD32VW55x_RELEASE_V1.0.2/MSDK/lwip/libcoap-4.3.4/src\coap_uri.c ****   return res;
 266:C:/Users/stapi/OneDrive/Desktop/GD32VW553/GD32VW55X_Wifi_BLE_SDK/GD32VW55x_RELEASE_V1.0.2/MSDK/lwip/libcoap-4.3.4/src\coap_uri.c **** }
  53              		.loc 1 266 1
  54 0004 8280     		ret
  55              	.LVL2:
  56              	.L2:
  66:C:/Users/stapi/OneDrive/Desktop/GD32VW553/GD32VW55X_Wifi_BLE_SDK/GD32VW55x_RELEASE_V1.0.2/MSDK/lwip/libcoap-4.3.4/src\coap_uri.c ****   const uint8_t *p, *q;
  57              		.loc 1 66 50 discriminator 1
  58 0006 17030000 		call	t0,__riscv_save_11
  58      E7020300 
  59              		.cfi_offset 26, -48
  60              		.cfi_offset 25, -44
  61              		.cfi_offset 24, -40
  62              		.cfi_offset 23, -36
  63              		.cfi_offset 22, -32
  64              		.cfi_offset 21, -28
  65              		.cfi_offset 20, -24
  66              		.cfi_offset 19, -20
  67              		.cfi_offset 18, -16
  68              		.cfi_offset 9, -12
  69              		.cfi_offset 8, -8
  70              		.cfi_offset 1, -4
  71              		.cfi_def_cfa_offset 48
  72 000e 4111     		addi	sp,sp,-16
  73              		.cfi_def_cfa_offset 64
  74 0010 3289     		mv	s2,a2
  72:C:/Users/stapi/OneDrive/Desktop/GD32VW553/GD32VW55X_Wifi_BLE_SDK/GD32VW55x_RELEASE_V1.0.2/MSDK/lwip/libcoap-4.3.4/src\coap_uri.c ****     return -1;
  75              		.loc 1 72 16 discriminator 1
  76 0012 79C2     		beq	a2,zero,.L84
  77 0014 AE84     		mv	s1,a1
  72:C:/Users/stapi/OneDrive/Desktop/GD32VW553/GD32VW55X_Wifi_BLE_SDK/GD32VW55x_RELEASE_V1.0.2/MSDK/lwip/libcoap-4.3.4/src\coap_uri.c ****     return -1;
  78              		.loc 1 72 24 discriminator 2
  79 0016 E9C1     		beq	a1,zero,.L84
  80              	.LVL3:
  81 0018 2A84     		mv	s0,a0
  75:C:/Users/stapi/OneDrive/Desktop/GD32VW553/GD32VW55X_Wifi_BLE_SDK/GD32VW55x_RELEASE_V1.0.2/MSDK/lwip/libcoap-4.3.4/src\coap_uri.c ****   uri->port = COAP_DEFAULT_PORT;
  82              		.loc 1 75 3
  83 001a 13060002 		li	a2,32
  84              	.LVL4:
  85 001e 8145     		li	a1,0
  86 0020 4A85     		mv	a0,s2
  87              	.LVL5:
  88 0022 368C     		mv	s8,a3
  75:C:/Users/stapi/OneDrive/Desktop/GD32VW553/GD32VW55X_Wifi_BLE_SDK/GD32VW55x_RELEASE_V1.0.2/MSDK/lwip/libcoap-4.3.4/src\coap_uri.c ****   uri->port = COAP_DEFAULT_PORT;
  89              		.loc 1 75 3 is_stmt 1
  90 0024 97000000 		call	memset
  90      E7800000 
  91              	.LVL6:
  76:C:/Users/stapi/OneDrive/Desktop/GD32VW553/GD32VW55X_Wifi_BLE_SDK/GD32VW55x_RELEASE_V1.0.2/MSDK/lwip/libcoap-4.3.4/src\coap_uri.c **** 
  92              		.loc 1 76 3
  76:C:/Users/stapi/OneDrive/Desktop/GD32VW553/GD32VW55X_Wifi_BLE_SDK/GD32VW55x_RELEASE_V1.0.2/MSDK/lwip/libcoap-4.3.4/src\coap_uri.c **** 
  93              		.loc 1 76 13 is_stmt 0
  94 002c 8567     		li	a5,4096
  95 002e 93873763 		addi	a5,a5,1587
  96 0032 2314F900 		sh	a5,8(s2)
  79:C:/Users/stapi/OneDrive/Desktop/GD32VW553/GD32VW55X_Wifi_BLE_SDK/GD32VW55x_RELEASE_V1.0.2/MSDK/lwip/libcoap-4.3.4/src\coap_uri.c ****   if (*p == '/') {
  97              		.loc 1 79 3 is_stmt 1
  98              	.LVL7:
  80:C:/Users/stapi/OneDrive/Desktop/GD32VW553/GD32VW55X_Wifi_BLE_SDK/GD32VW55x_RELEASE_V1.0.2/MSDK/lwip/libcoap-4.3.4/src\coap_uri.c ****     /* no scheme, host or port */
  99              		.loc 1 80 3
  80:C:/Users/stapi/OneDrive/Desktop/GD32VW553/GD32VW55X_Wifi_BLE_SDK/GD32VW55x_RELEASE_V1.0.2/MSDK/lwip/libcoap-4.3.4/src\coap_uri.c ****     /* no scheme, host or port */
 100              		.loc 1 80 6 is_stmt 0
 101 0036 03470400 		lbu	a4,0(s0)
 102 003a 9307F002 		li	a5,47
 103 003e A289     		mv	s3,s0
 104 0040 6302F70A 		beq	a4,a5,.L75
  91:C:/Users/stapi/OneDrive/Desktop/GD32VW553/GD32VW55X_Wifi_BLE_SDK/GD32VW55x_RELEASE_V1.0.2/MSDK/lwip/libcoap-4.3.4/src\coap_uri.c ****     ++p;
 105              		.loc 1 91 9
 106 0044 8946     		li	a3,2
  91:C:/Users/stapi/OneDrive/Desktop/GD32VW553/GD32VW55X_Wifi_BLE_SDK/GD32VW55x_RELEASE_V1.0.2/MSDK/lwip/libcoap-4.3.4/src\coap_uri.c ****     ++p;
 107              		.loc 1 91 19
 108 0046 1306A003 		li	a2,58
 109              	.LVL8:
 110              	.L5:
  91:C:/Users/stapi/OneDrive/Desktop/GD32VW553/GD32VW55X_Wifi_BLE_SDK/GD32VW55x_RELEASE_V1.0.2/MSDK/lwip/libcoap-4.3.4/src\coap_uri.c ****     ++p;
 111              		.loc 1 91 9 is_stmt 1
 112 004a 63F39632 		bleu	s1,a3,.L52
  91:C:/Users/stapi/OneDrive/Desktop/GD32VW553/GD32VW55X_Wifi_BLE_SDK/GD32VW55x_RELEASE_V1.0.2/MSDK/lwip/libcoap-4.3.4/src\coap_uri.c ****     ++p;
 113              		.loc 1 91 19 is_stmt 0 discriminator 1
 114 004e 03C70900 		lbu	a4,0(s3)
 115 0052 6312C70C 		bne	a4,a2,.L7
  91:C:/Users/stapi/OneDrive/Desktop/GD32VW553/GD32VW55X_Wifi_BLE_SDK/GD32VW55x_RELEASE_V1.0.2/MSDK/lwip/libcoap-4.3.4/src\coap_uri.c ****     ++p;
 116              		.loc 1 91 36 discriminator 2
 117 0056 03C71900 		lbu	a4,1(s3)
 118 005a 631EF70A 		bne	a4,a5,.L7
  91:C:/Users/stapi/OneDrive/Desktop/GD32VW553/GD32VW55X_Wifi_BLE_SDK/GD32VW55x_RELEASE_V1.0.2/MSDK/lwip/libcoap-4.3.4/src\coap_uri.c ****     ++p;
 119              		.loc 1 91 22 discriminator 3
 120 005e 03C72900 		lbu	a4,2(s3)
 121 0062 631AF70A 		bne	a4,a5,.L7
 122 0066 B70A0000 		lui	s5,%hi(.LANCHOR0)
 123 006a 938B0A00 		addi	s7,s5,%lo(.LANCHOR0)
 100:C:/Users/stapi/OneDrive/Desktop/GD32VW553/GD32VW55X_Wifi_BLE_SDK/GD32VW55x_RELEASE_V1.0.2/MSDK/lwip/libcoap-4.3.4/src\coap_uri.c ****     if ((p - str_var) == (int)strlen(coap_uri_scheme[i].name) &&
 124              		.loc 1 100 10
 125 006e 014B     		li	s6,0
 126 0070 938A0A00 		addi	s5,s5,%lo(.LANCHOR0)
 101:C:/Users/stapi/OneDrive/Desktop/GD32VW553/GD32VW55X_Wifi_BLE_SDK/GD32VW55x_RELEASE_V1.0.2/MSDK/lwip/libcoap-4.3.4/src\coap_uri.c ****         memcmp(str_var, coap_uri_scheme[i].name, p - str_var) == 0) {
 127              		.loc 1 101 12
 128 0074 B38C8940 		sub	s9,s3,s0
 100:C:/Users/stapi/OneDrive/Desktop/GD32VW553/GD32VW55X_Wifi_BLE_SDK/GD32VW55x_RELEASE_V1.0.2/MSDK/lwip/libcoap-4.3.4/src\coap_uri.c ****     if ((p - str_var) == (int)strlen(coap_uri_scheme[i].name) &&
 129              		.loc 1 100 3
 130 0078 214D     		li	s10,8
 131              	.L18:
 132              	.LVL9:
 101:C:/Users/stapi/OneDrive/Desktop/GD32VW553/GD32VW55X_Wifi_BLE_SDK/GD32VW55x_RELEASE_V1.0.2/MSDK/lwip/libcoap-4.3.4/src\coap_uri.c ****         memcmp(str_var, coap_uri_scheme[i].name, p - str_var) == 0) {
 133              		.loc 1 101 5 is_stmt 1
 101:C:/Users/stapi/OneDrive/Desktop/GD32VW553/GD32VW55X_Wifi_BLE_SDK/GD32VW55x_RELEASE_V1.0.2/MSDK/lwip/libcoap-4.3.4/src\coap_uri.c ****         memcmp(str_var, coap_uri_scheme[i].name, p - str_var) == 0) {
 134              		.loc 1 101 31 is_stmt 0
 135 007a 83A50B00 		lw	a1,0(s7)
 136 007e 2E85     		mv	a0,a1
 137 0080 2EC6     		sw	a1,12(sp)
 138 0082 97000000 		call	strlen
 138      E7800000 
 139              	.LVL10:
 101:C:/Users/stapi/OneDrive/Desktop/GD32VW553/GD32VW55X_Wifi_BLE_SDK/GD32VW55x_RELEASE_V1.0.2/MSDK/lwip/libcoap-4.3.4/src\coap_uri.c ****         memcmp(str_var, coap_uri_scheme[i].name, p - str_var) == 0) {
 140              		.loc 1 101 8
 141 008a B245     		lw	a1,12(sp)
 142 008c 639EAC0A 		bne	s9,a0,.L8
 102:C:/Users/stapi/OneDrive/Desktop/GD32VW553/GD32VW55X_Wifi_BLE_SDK/GD32VW55x_RELEASE_V1.0.2/MSDK/lwip/libcoap-4.3.4/src\coap_uri.c ****       if (check_proxy != COAP_URI_CHECK_PROXY && coap_uri_scheme[i].proxy_only) {
 143              		.loc 1 102 9 discriminator 1
 144 0090 6686     		mv	a2,s9
 145 0092 2285     		mv	a0,s0
 146 0094 97000000 		call	memcmp
 146      E7800000 
 147              	.LVL11:
 148 009c 2A8A     		mv	s4,a0
 101:C:/Users/stapi/OneDrive/Desktop/GD32VW553/GD32VW55X_Wifi_BLE_SDK/GD32VW55x_RELEASE_V1.0.2/MSDK/lwip/libcoap-4.3.4/src\coap_uri.c ****         memcmp(str_var, coap_uri_scheme[i].name, p - str_var) == 0) {
 149              		.loc 1 101 63 discriminator 1
 150 009e 4DE5     		bne	a0,zero,.L8
 103:C:/Users/stapi/OneDrive/Desktop/GD32VW553/GD32VW55X_Wifi_BLE_SDK/GD32VW55x_RELEASE_V1.0.2/MSDK/lwip/libcoap-4.3.4/src\coap_uri.c ****         coap_log_err("%.*s URI scheme not enabled (not a proxy)\n",
 151              		.loc 1 103 7 is_stmt 1
 103:C:/Users/stapi/OneDrive/Desktop/GD32VW553/GD32VW55X_Wifi_BLE_SDK/GD32VW55x_RELEASE_V1.0.2/MSDK/lwip/libcoap-4.3.4/src\coap_uri.c ****         coap_log_err("%.*s URI scheme not enabled (not a proxy)\n",
 152              		.loc 1 103 10 is_stmt 0
 153 00a0 8547     		li	a5,1
 154 00a2 630DFC06 		beq	s8,a5,.L9
 103:C:/Users/stapi/OneDrive/Desktop/GD32VW553/GD32VW55X_Wifi_BLE_SDK/GD32VW55x_RELEASE_V1.0.2/MSDK/lwip/libcoap-4.3.4/src\coap_uri.c ****         coap_log_err("%.*s URI scheme not enabled (not a proxy)\n",
 155              		.loc 1 103 68 discriminator 1
 156 00a6 3147     		li	a4,12
 157 00a8 D687     		mv	a5,s5
 158 00aa FF17EBC4 		maddr32	a5, s6, a4
 103:C:/Users/stapi/OneDrive/Desktop/GD32VW553/GD32VW55X_Wifi_BLE_SDK/GD32VW55x_RELEASE_V1.0.2/MSDK/lwip/libcoap-4.3.4/src\coap_uri.c ****         coap_log_err("%.*s URI scheme not enabled (not a proxy)\n",
 159              		.loc 1 103 47 discriminator 1
 160 00ae 83D76700 		lhu	a5,6(a5)
 161 00b2 ADC7     		beq	a5,zero,.L9
 104:C:/Users/stapi/OneDrive/Desktop/GD32VW553/GD32VW55X_Wifi_BLE_SDK/GD32VW55x_RELEASE_V1.0.2/MSDK/lwip/libcoap-4.3.4/src\coap_uri.c ****                      (int)(p - str_var), str_var);
 162              		.loc 1 104 9 is_stmt 1
 104:C:/Users/stapi/OneDrive/Desktop/GD32VW553/GD32VW55X_Wifi_BLE_SDK/GD32VW55x_RELEASE_V1.0.2/MSDK/lwip/libcoap-4.3.4/src\coap_uri.c ****                      (int)(p - str_var), str_var);
 163              		.loc 1 104 9
 164 00b4 97000000 		call	coap_get_log_level
 164      E7800000 
 165              	.LVL12:
 166 00bc 8947     		li	a5,2
 167 00be 63DDA700 		ble	a0,a5,.L84
 104:C:/Users/stapi/OneDrive/Desktop/GD32VW553/GD32VW55X_Wifi_BLE_SDK/GD32VW55x_RELEASE_V1.0.2/MSDK/lwip/libcoap-4.3.4/src\coap_uri.c ****                      (int)(p - str_var), str_var);
 168              		.loc 1 104 9 discriminator 1
 169 00c2 B7050000 		lui	a1,%hi(.LC0)
 170 00c6 A286     		mv	a3,s0
 171 00c8 6686     		mv	a2,s9
 172 00ca 93850500 		addi	a1,a1,%lo(.LC0)
 173              	.L85:
 174 00ce 0D45     		li	a0,3
 175 00d0 97000000 		call	coap_log_impl
 175      E7800000 
 176              	.LVL13:
 177              	.L84:
 106:C:/Users/stapi/OneDrive/Desktop/GD32VW553/GD32VW55X_Wifi_BLE_SDK/GD32VW55x_RELEASE_V1.0.2/MSDK/lwip/libcoap-4.3.4/src\coap_uri.c ****       }
 178              		.loc 1 106 16 is_stmt 0 discriminator 1
 179 00d8 7D55     		li	a0,-1
 180              	.L1:
 181              		.loc 1 266 1
 182 00da 4101     		addi	sp,sp,16
 183              		.cfi_remember_state
 184              		.cfi_def_cfa_offset 0
 185 00dc 17030000 		tail	__riscv_restore_11
 185      67000300 
 186              		.cfi_restore 26
 187              		.cfi_restore 25
 188              		.cfi_restore 24
 189              		.cfi_restore 23
 190              		.cfi_restore 22
 191              		.cfi_restore 21
 192              		.cfi_restore 20
 193              		.cfi_restore 19
 194              		.cfi_restore 18
 195              		.cfi_restore 9
 196              		.cfi_restore 8
 197              		.cfi_restore 1
 198              		.cfi_def_cfa_offset -48
 199              	.LVL14:
 200              	.L75:
 201              		.cfi_restore_state
  82:C:/Users/stapi/OneDrive/Desktop/GD32VW553/GD32VW55X_Wifi_BLE_SDK/GD32VW55x_RELEASE_V1.0.2/MSDK/lwip/libcoap-4.3.4/src\coap_uri.c ****       /* Must have ongoing host if proxy definition */
 202              		.loc 1 82 5 is_stmt 1
  82:C:/Users/stapi/OneDrive/Desktop/GD32VW553/GD32VW55X_Wifi_BLE_SDK/GD32VW55x_RELEASE_V1.0.2/MSDK/lwip/libcoap-4.3.4/src\coap_uri.c ****       /* Must have ongoing host if proxy definition */
 203              		.loc 1 82 8 is_stmt 0
 204 00e4 8547     		li	a5,1
 205 00e6 E309FCFE 		beq	s8,a5,.L84
 206 00ea A287     		mv	a5,s0
 207              	.LVL15:
 208              	.L6:
 238:C:/Users/stapi/OneDrive/Desktop/GD32VW553/GD32VW55X_Wifi_BLE_SDK/GD32VW55x_RELEASE_V1.0.2/MSDK/lwip/libcoap-4.3.4/src\coap_uri.c ****     p = ++q;
 209              		.loc 1 238 3 is_stmt 1
 238:C:/Users/stapi/OneDrive/Desktop/GD32VW553/GD32VW55X_Wifi_BLE_SDK/GD32VW55x_RELEASE_V1.0.2/MSDK/lwip/libcoap-4.3.4/src\coap_uri.c ****     p = ++q;
 210              		.loc 1 238 6 is_stmt 0
 211 00ec 83C60700 		lbu	a3,0(a5)
 212 00f0 1307F002 		li	a4,47
 213 00f4 639AE628 		bne	a3,a4,.L42
 239:C:/Users/stapi/OneDrive/Desktop/GD32VW553/GD32VW55X_Wifi_BLE_SDK/GD32VW55x_RELEASE_V1.0.2/MSDK/lwip/libcoap-4.3.4/src\coap_uri.c ****     --len;
 214              		.loc 1 239 5 is_stmt 1
 239:C:/Users/stapi/OneDrive/Desktop/GD32VW553/GD32VW55X_Wifi_BLE_SDK/GD32VW55x_RELEASE_V1.0.2/MSDK/lwip/libcoap-4.3.4/src\coap_uri.c ****     --len;
 215              		.loc 1 239 7 is_stmt 0
 216 00f8 8507     		addi	a5,a5,1
 217              	.LVL16:
 240:C:/Users/stapi/OneDrive/Desktop/GD32VW553/GD32VW55X_Wifi_BLE_SDK/GD32VW55x_RELEASE_V1.0.2/MSDK/lwip/libcoap-4.3.4/src\coap_uri.c **** 
 218              		.loc 1 240 5 is_stmt 1
 219 00fa FD14     		addi	s1,s1,-1
 220              	.LVL17:
 242:C:/Users/stapi/OneDrive/Desktop/GD32VW553/GD32VW55X_Wifi_BLE_SDK/GD32VW55x_RELEASE_V1.0.2/MSDK/lwip/libcoap-4.3.4/src\coap_uri.c ****       ++q;
 221              		.loc 1 242 5
 239:C:/Users/stapi/OneDrive/Desktop/GD32VW553/GD32VW55X_Wifi_BLE_SDK/GD32VW55x_RELEASE_V1.0.2/MSDK/lwip/libcoap-4.3.4/src\coap_uri.c ****     --len;
 222              		.loc 1 239 7 is_stmt 0
 223 00fc 3E84     		mv	s0,a5
 242:C:/Users/stapi/OneDrive/Desktop/GD32VW553/GD32VW55X_Wifi_BLE_SDK/GD32VW55x_RELEASE_V1.0.2/MSDK/lwip/libcoap-4.3.4/src\coap_uri.c ****       ++q;
 224              		.loc 1 242 16
 225 00fe 1307F003 		li	a4,63
 226              	.LVL18:
 227              	.L43:
 242:C:/Users/stapi/OneDrive/Desktop/GD32VW553/GD32VW55X_Wifi_BLE_SDK/GD32VW55x_RELEASE_V1.0.2/MSDK/lwip/libcoap-4.3.4/src\coap_uri.c ****       ++q;
 228              		.loc 1 242 11 is_stmt 1
 229 0102 63890426 		beq	s1,zero,.L44
 242:C:/Users/stapi/OneDrive/Desktop/GD32VW553/GD32VW55X_Wifi_BLE_SDK/GD32VW55x_RELEASE_V1.0.2/MSDK/lwip/libcoap-4.3.4/src\coap_uri.c ****       ++q;
 230              		.loc 1 242 16 is_stmt 0 discriminator 1
 231 0106 83460400 		lbu	a3,0(s0)
 232 010a 6390E626 		bne	a3,a4,.L45
 247:C:/Users/stapi/OneDrive/Desktop/GD32VW553/GD32VW55X_Wifi_BLE_SDK/GD32VW55x_RELEASE_V1.0.2/MSDK/lwip/libcoap-4.3.4/src\coap_uri.c ****       COAP_SET_STR(&uri->path, q - p, p);
 233              		.loc 1 247 5 is_stmt 1
 247:C:/Users/stapi/OneDrive/Desktop/GD32VW553/GD32VW55X_Wifi_BLE_SDK/GD32VW55x_RELEASE_V1.0.2/MSDK/lwip/libcoap-4.3.4/src\coap_uri.c ****       COAP_SET_STR(&uri->path, q - p, p);
 234              		.loc 1 247 8 is_stmt 0
 235 010e 63E58726 		bgtu	s0,a5,.L49
 236              	.LVL19:
 237 0112 3E84     		mv	s0,a5
 238 0114 95AC     		j	.L42
 239              	.LVL20:
 240              	.L7:
  92:C:/Users/stapi/OneDrive/Desktop/GD32VW553/GD32VW55X_Wifi_BLE_SDK/GD32VW55x_RELEASE_V1.0.2/MSDK/lwip/libcoap-4.3.4/src\coap_uri.c ****     --len;
 241              		.loc 1 92 5 is_stmt 1
 242 0116 8509     		addi	s3,s3,1
 243              	.LVL21:
  93:C:/Users/stapi/OneDrive/Desktop/GD32VW553/GD32VW55X_Wifi_BLE_SDK/GD32VW55x_RELEASE_V1.0.2/MSDK/lwip/libcoap-4.3.4/src\coap_uri.c ****   }
 244              		.loc 1 93 5
 245 0118 FD14     		addi	s1,s1,-1
 246              	.LVL22:
 247 011a 05BF     		j	.L5
 248              	.LVL23:
 249              	.L9:
 108:C:/Users/stapi/OneDrive/Desktop/GD32VW553/GD32VW55X_Wifi_BLE_SDK/GD32VW55x_RELEASE_V1.0.2/MSDK/lwip/libcoap-4.3.4/src\coap_uri.c ****       uri->port = coap_uri_scheme[i].port;
 250              		.loc 1 108 7
 108:C:/Users/stapi/OneDrive/Desktop/GD32VW553/GD32VW55X_Wifi_BLE_SDK/GD32VW55x_RELEASE_V1.0.2/MSDK/lwip/libcoap-4.3.4/src\coap_uri.c ****       uri->port = coap_uri_scheme[i].port;
 251              		.loc 1 108 39 is_stmt 0
 252 011c B147     		li	a5,12
 253 011e FF1AFBC4 		maddr32	s5, s6, a5
 254 0122 83A78A00 		lw	a5,8(s5)
 109:C:/Users/stapi/OneDrive/Desktop/GD32VW553/GD32VW55X_Wifi_BLE_SDK/GD32VW55x_RELEASE_V1.0.2/MSDK/lwip/libcoap-4.3.4/src\coap_uri.c ****       break;
 255              		.loc 1 109 17
 256 0126 03D74A00 		lhu	a4,4(s5)
 108:C:/Users/stapi/OneDrive/Desktop/GD32VW553/GD32VW55X_Wifi_BLE_SDK/GD32VW55x_RELEASE_V1.0.2/MSDK/lwip/libcoap-4.3.4/src\coap_uri.c ****       uri->port = coap_uri_scheme[i].port;
 257              		.loc 1 108 19
 258 012a 232EF900 		sw	a5,28(s2)
 109:C:/Users/stapi/OneDrive/Desktop/GD32VW553/GD32VW55X_Wifi_BLE_SDK/GD32VW55x_RELEASE_V1.0.2/MSDK/lwip/libcoap-4.3.4/src\coap_uri.c ****       break;
 259              		.loc 1 109 7 is_stmt 1
 109:C:/Users/stapi/OneDrive/Desktop/GD32VW553/GD32VW55X_Wifi_BLE_SDK/GD32VW55x_RELEASE_V1.0.2/MSDK/lwip/libcoap-4.3.4/src\coap_uri.c ****       break;
 260              		.loc 1 109 17 is_stmt 0
 261 012e 2314E900 		sh	a4,8(s2)
 110:C:/Users/stapi/OneDrive/Desktop/GD32VW553/GD32VW55X_Wifi_BLE_SDK/GD32VW55x_RELEASE_V1.0.2/MSDK/lwip/libcoap-4.3.4/src\coap_uri.c ****     }
 262              		.loc 1 110 7 is_stmt 1
 113:C:/Users/stapi/OneDrive/Desktop/GD32VW553/GD32VW55X_Wifi_BLE_SDK/GD32VW55x_RELEASE_V1.0.2/MSDK/lwip/libcoap-4.3.4/src\coap_uri.c ****     /* scheme unknown */
 263              		.loc 1 113 3
 119:C:/Users/stapi/OneDrive/Desktop/GD32VW553/GD32VW55X_Wifi_BLE_SDK/GD32VW55x_RELEASE_V1.0.2/MSDK/lwip/libcoap-4.3.4/src\coap_uri.c ****   case COAP_URI_SCHEME_COAP:
 264              		.loc 1 119 3
 265 0132 1D47     		li	a4,7
 266 0134 6366F70E 		bgtu	a5,a4,.L10
 267 0138 37070000 		lui	a4,%hi(.L12)
 268 013c 13070700 		addi	a4,a4,%lo(.L12)
 269 0140 B3C7E720 		sh2add	a5,a5,a4
 270 0144 9C43     		lw	a5,0(a5)
 271 0146 8287     		jr	a5
 272              		.section	.rodata.coap_split_uri_sub,"a",@progbits
 273              		.align	2
 274              		.align	2
 275              	.L12:
 276 0000 00000000 		.word	.L17
 277 0004 00000000 		.word	.L16
 278 0008 00000000 		.word	.L15
 279 000c 00000000 		.word	.L14
 280 0010 00000000 		.word	.L10
 281 0014 00000000 		.word	.L10
 282 0018 00000000 		.word	.L13
 283 001c 00000000 		.word	.L11
 284              		.section	.text.coap_split_uri_sub
 285              	.L8:
 100:C:/Users/stapi/OneDrive/Desktop/GD32VW553/GD32VW55X_Wifi_BLE_SDK/GD32VW55x_RELEASE_V1.0.2/MSDK/lwip/libcoap-4.3.4/src\coap_uri.c ****     if ((p - str_var) == (int)strlen(coap_uri_scheme[i].name) &&
 286              		.loc 1 100 41 discriminator 2
 100:C:/Users/stapi/OneDrive/Desktop/GD32VW553/GD32VW55X_Wifi_BLE_SDK/GD32VW55x_RELEASE_V1.0.2/MSDK/lwip/libcoap-4.3.4/src\coap_uri.c ****     if ((p - str_var) == (int)strlen(coap_uri_scheme[i].name) &&
 287              		.loc 1 100 42 is_stmt 0 discriminator 2
 288 0148 050B     		addi	s6,s6,1
 289              	.LVL24:
 100:C:/Users/stapi/OneDrive/Desktop/GD32VW553/GD32VW55X_Wifi_BLE_SDK/GD32VW55x_RELEASE_V1.0.2/MSDK/lwip/libcoap-4.3.4/src\coap_uri.c ****     if ((p - str_var) == (int)strlen(coap_uri_scheme[i].name) &&
 290              		.loc 1 100 15 is_stmt 1 discriminator 2
 100:C:/Users/stapi/OneDrive/Desktop/GD32VW553/GD32VW55X_Wifi_BLE_SDK/GD32VW55x_RELEASE_V1.0.2/MSDK/lwip/libcoap-4.3.4/src\coap_uri.c ****     if ((p - str_var) == (int)strlen(coap_uri_scheme[i].name) &&
 291              		.loc 1 100 3 is_stmt 0 discriminator 2
 292 014a B10B     		addi	s7,s7,12
 293 014c E317ABF3 		bne	s6,s10,.L18
 113:C:/Users/stapi/OneDrive/Desktop/GD32VW553/GD32VW55X_Wifi_BLE_SDK/GD32VW55x_RELEASE_V1.0.2/MSDK/lwip/libcoap-4.3.4/src\coap_uri.c ****     /* scheme unknown */
 294              		.loc 1 113 3 is_stmt 1
 115:C:/Users/stapi/OneDrive/Desktop/GD32VW553/GD32VW55X_Wifi_BLE_SDK/GD32VW55x_RELEASE_V1.0.2/MSDK/lwip/libcoap-4.3.4/src\coap_uri.c ****     res = -1;
 295              		.loc 1 115 5
 115:C:/Users/stapi/OneDrive/Desktop/GD32VW553/GD32VW55X_Wifi_BLE_SDK/GD32VW55x_RELEASE_V1.0.2/MSDK/lwip/libcoap-4.3.4/src\coap_uri.c ****     res = -1;
 296              		.loc 1 115 5
 297 0150 97000000 		call	coap_get_log_level
 297      E7800000 
 298              	.LVL25:
 299 0158 8947     		li	a5,2
 300 015a E3DFA7F6 		ble	a0,a5,.L84
 115:C:/Users/stapi/OneDrive/Desktop/GD32VW553/GD32VW55X_Wifi_BLE_SDK/GD32VW55x_RELEASE_V1.0.2/MSDK/lwip/libcoap-4.3.4/src\coap_uri.c ****     res = -1;
 301              		.loc 1 115 5 discriminator 1
 302 015e B7050000 		lui	a1,%hi(.LC1)
 303 0162 A286     		mv	a3,s0
 304 0164 6686     		mv	a2,s9
 305 0166 93850500 		addi	a1,a1,%lo(.LC1)
 306 016a 95B7     		j	.L85
 307              	.L16:
 123:C:/Users/stapi/OneDrive/Desktop/GD32VW553/GD32VW55X_Wifi_BLE_SDK/GD32VW55x_RELEASE_V1.0.2/MSDK/lwip/libcoap-4.3.4/src\coap_uri.c ****       coap_log_err("coaps URI scheme not supported in this version of libcoap\n");
 308              		.loc 1 123 5
 123:C:/Users/stapi/OneDrive/Desktop/GD32VW553/GD32VW55X_Wifi_BLE_SDK/GD32VW55x_RELEASE_V1.0.2/MSDK/lwip/libcoap-4.3.4/src\coap_uri.c ****       coap_log_err("coaps URI scheme not supported in this version of libcoap\n");
 309              		.loc 1 123 10 is_stmt 0
 310 016c 97000000 		call	coap_dtls_is_supported
 310      E7800000 
 311              	.LVL26:
 123:C:/Users/stapi/OneDrive/Desktop/GD32VW553/GD32VW55X_Wifi_BLE_SDK/GD32VW55x_RELEASE_V1.0.2/MSDK/lwip/libcoap-4.3.4/src\coap_uri.c ****       coap_log_err("coaps URI scheme not supported in this version of libcoap\n");
 312              		.loc 1 123 8
 313 0174 69E9     		bne	a0,zero,.L17
 124:C:/Users/stapi/OneDrive/Desktop/GD32VW553/GD32VW55X_Wifi_BLE_SDK/GD32VW55x_RELEASE_V1.0.2/MSDK/lwip/libcoap-4.3.4/src\coap_uri.c ****       return -1;
 314              		.loc 1 124 7 is_stmt 1
 124:C:/Users/stapi/OneDrive/Desktop/GD32VW553/GD32VW55X_Wifi_BLE_SDK/GD32VW55x_RELEASE_V1.0.2/MSDK/lwip/libcoap-4.3.4/src\coap_uri.c ****       return -1;
 315              		.loc 1 124 7
 316 0176 97000000 		call	coap_get_log_level
 316      E7800000 
 317              	.LVL27:
 318 017e 8947     		li	a5,2
 319 0180 E3DCA7F4 		ble	a0,a5,.L84
 124:C:/Users/stapi/OneDrive/Desktop/GD32VW553/GD32VW55X_Wifi_BLE_SDK/GD32VW55x_RELEASE_V1.0.2/MSDK/lwip/libcoap-4.3.4/src\coap_uri.c ****       return -1;
 320              		.loc 1 124 7 discriminator 1
 321 0184 B7050000 		lui	a1,%hi(.LC2)
 322 0188 93850500 		addi	a1,a1,%lo(.LC2)
 323              	.L87:
 130:C:/Users/stapi/OneDrive/Desktop/GD32VW553/GD32VW55X_Wifi_BLE_SDK/GD32VW55x_RELEASE_V1.0.2/MSDK/lwip/libcoap-4.3.4/src\coap_uri.c ****       return -1;
 324              		.loc 1 130 7 is_stmt 0 discriminator 1
 325 018c 0D45     		li	a0,3
 326 018e 97000000 		call	coap_log_impl
 326      E7800000 
 327              	.LVL28:
 328 0196 89B7     		j	.L84
 329              	.L15:
 129:C:/Users/stapi/OneDrive/Desktop/GD32VW553/GD32VW55X_Wifi_BLE_SDK/GD32VW55x_RELEASE_V1.0.2/MSDK/lwip/libcoap-4.3.4/src\coap_uri.c ****       coap_log_err("coap+tcp URI scheme not supported in this version of libcoap\n");
 330              		.loc 1 129 5 is_stmt 1
 129:C:/Users/stapi/OneDrive/Desktop/GD32VW553/GD32VW55X_Wifi_BLE_SDK/GD32VW55x_RELEASE_V1.0.2/MSDK/lwip/libcoap-4.3.4/src\coap_uri.c ****       coap_log_err("coap+tcp URI scheme not supported in this version of libcoap\n");
 331              		.loc 1 129 10 is_stmt 0
 332 0198 97000000 		call	coap_tcp_is_supported
 332      E7800000 
 333              	.LVL29:
 129:C:/Users/stapi/OneDrive/Desktop/GD32VW553/GD32VW55X_Wifi_BLE_SDK/GD32VW55x_RELEASE_V1.0.2/MSDK/lwip/libcoap-4.3.4/src\coap_uri.c ****       coap_log_err("coap+tcp URI scheme not supported in this version of libcoap\n");
 334              		.loc 1 129 8
 335 01a0 5DE1     		bne	a0,zero,.L17
 130:C:/Users/stapi/OneDrive/Desktop/GD32VW553/GD32VW55X_Wifi_BLE_SDK/GD32VW55x_RELEASE_V1.0.2/MSDK/lwip/libcoap-4.3.4/src\coap_uri.c ****       return -1;
 336              		.loc 1 130 7 is_stmt 1
 130:C:/Users/stapi/OneDrive/Desktop/GD32VW553/GD32VW55X_Wifi_BLE_SDK/GD32VW55x_RELEASE_V1.0.2/MSDK/lwip/libcoap-4.3.4/src\coap_uri.c ****       return -1;
 337              		.loc 1 130 7
 338 01a2 97000000 		call	coap_get_log_level
 338      E7800000 
 339              	.LVL30:
 340 01aa 8947     		li	a5,2
 341 01ac E3D6A7F2 		ble	a0,a5,.L84
 130:C:/Users/stapi/OneDrive/Desktop/GD32VW553/GD32VW55X_Wifi_BLE_SDK/GD32VW55x_RELEASE_V1.0.2/MSDK/lwip/libcoap-4.3.4/src\coap_uri.c ****       return -1;
 342              		.loc 1 130 7 discriminator 1
 343 01b0 B7050000 		lui	a1,%hi(.LC3)
 344 01b4 93850500 		addi	a1,a1,%lo(.LC3)
 345 01b8 D1BF     		j	.L87
 346              	.L14:
 135:C:/Users/stapi/OneDrive/Desktop/GD32VW553/GD32VW55X_Wifi_BLE_SDK/GD32VW55x_RELEASE_V1.0.2/MSDK/lwip/libcoap-4.3.4/src\coap_uri.c ****       coap_log_err("coaps+tcp URI scheme not supported in this version of libcoap\n");
 347              		.loc 1 135 5
 135:C:/Users/stapi/OneDrive/Desktop/GD32VW553/GD32VW55X_Wifi_BLE_SDK/GD32VW55x_RELEASE_V1.0.2/MSDK/lwip/libcoap-4.3.4/src\coap_uri.c ****       coap_log_err("coaps+tcp URI scheme not supported in this version of libcoap\n");
 348              		.loc 1 135 10 is_stmt 0
 349 01ba 97000000 		call	coap_tcp_is_supported
 349      E7800000 
 350              	.LVL31:
 135:C:/Users/stapi/OneDrive/Desktop/GD32VW553/GD32VW55X_Wifi_BLE_SDK/GD32VW55x_RELEASE_V1.0.2/MSDK/lwip/libcoap-4.3.4/src\coap_uri.c ****       coap_log_err("coaps+tcp URI scheme not supported in this version of libcoap\n");
 351              		.loc 1 135 8
 352 01c2 51E1     		bne	a0,zero,.L17
 136:C:/Users/stapi/OneDrive/Desktop/GD32VW553/GD32VW55X_Wifi_BLE_SDK/GD32VW55x_RELEASE_V1.0.2/MSDK/lwip/libcoap-4.3.4/src\coap_uri.c ****       return -1;
 353              		.loc 1 136 7 is_stmt 1
 136:C:/Users/stapi/OneDrive/Desktop/GD32VW553/GD32VW55X_Wifi_BLE_SDK/GD32VW55x_RELEASE_V1.0.2/MSDK/lwip/libcoap-4.3.4/src\coap_uri.c ****       return -1;
 354              		.loc 1 136 7
 355 01c4 97000000 		call	coap_get_log_level
 355      E7800000 
 356              	.LVL32:
 357 01cc 8947     		li	a5,2
 358 01ce E3D5A7F0 		ble	a0,a5,.L84
 136:C:/Users/stapi/OneDrive/Desktop/GD32VW553/GD32VW55X_Wifi_BLE_SDK/GD32VW55x_RELEASE_V1.0.2/MSDK/lwip/libcoap-4.3.4/src\coap_uri.c ****       return -1;
 359              		.loc 1 136 7 discriminator 1
 360 01d2 B7050000 		lui	a1,%hi(.LC4)
 361 01d6 93850500 		addi	a1,a1,%lo(.LC4)
 362 01da 4DBF     		j	.L87
 363              	.L13:
 141:C:/Users/stapi/OneDrive/Desktop/GD32VW553/GD32VW55X_Wifi_BLE_SDK/GD32VW55x_RELEASE_V1.0.2/MSDK/lwip/libcoap-4.3.4/src\coap_uri.c ****       coap_log_err("coap+ws URI scheme not supported in this version of libcoap\n");
 364              		.loc 1 141 5
 141:C:/Users/stapi/OneDrive/Desktop/GD32VW553/GD32VW55X_Wifi_BLE_SDK/GD32VW55x_RELEASE_V1.0.2/MSDK/lwip/libcoap-4.3.4/src\coap_uri.c ****       coap_log_err("coap+ws URI scheme not supported in this version of libcoap\n");
 365              		.loc 1 141 10 is_stmt 0
 366 01dc 97000000 		call	coap_ws_is_supported
 366      E7800000 
 367              	.LVL33:
 141:C:/Users/stapi/OneDrive/Desktop/GD32VW553/GD32VW55X_Wifi_BLE_SDK/GD32VW55x_RELEASE_V1.0.2/MSDK/lwip/libcoap-4.3.4/src\coap_uri.c ****       coap_log_err("coap+ws URI scheme not supported in this version of libcoap\n");
 368              		.loc 1 141 8
 369 01e4 2DE1     		bne	a0,zero,.L17
 142:C:/Users/stapi/OneDrive/Desktop/GD32VW553/GD32VW55X_Wifi_BLE_SDK/GD32VW55x_RELEASE_V1.0.2/MSDK/lwip/libcoap-4.3.4/src\coap_uri.c ****       return -1;
 370              		.loc 1 142 7 is_stmt 1
 142:C:/Users/stapi/OneDrive/Desktop/GD32VW553/GD32VW55X_Wifi_BLE_SDK/GD32VW55x_RELEASE_V1.0.2/MSDK/lwip/libcoap-4.3.4/src\coap_uri.c ****       return -1;
 371              		.loc 1 142 7
 372 01e6 97000000 		call	coap_get_log_level
 372      E7800000 
 373              	.LVL34:
 374 01ee 8947     		li	a5,2
 375 01f0 E3D4A7EE 		ble	a0,a5,.L84
 142:C:/Users/stapi/OneDrive/Desktop/GD32VW553/GD32VW55X_Wifi_BLE_SDK/GD32VW55x_RELEASE_V1.0.2/MSDK/lwip/libcoap-4.3.4/src\coap_uri.c ****       return -1;
 376              		.loc 1 142 7 discriminator 1
 377 01f4 B7050000 		lui	a1,%hi(.LC5)
 378 01f8 93850500 		addi	a1,a1,%lo(.LC5)
 379 01fc 41BF     		j	.L87
 380              	.L11:
 147:C:/Users/stapi/OneDrive/Desktop/GD32VW553/GD32VW55X_Wifi_BLE_SDK/GD32VW55x_RELEASE_V1.0.2/MSDK/lwip/libcoap-4.3.4/src\coap_uri.c ****       coap_log_err("coaps+ws URI scheme not supported in this version of libcoap\n");
 381              		.loc 1 147 5
 147:C:/Users/stapi/OneDrive/Desktop/GD32VW553/GD32VW55X_Wifi_BLE_SDK/GD32VW55x_RELEASE_V1.0.2/MSDK/lwip/libcoap-4.3.4/src\coap_uri.c ****       coap_log_err("coaps+ws URI scheme not supported in this version of libcoap\n");
 382              		.loc 1 147 10 is_stmt 0
 383 01fe 97000000 		call	coap_wss_is_supported
 383      E7800000 
 384              	.LVL35:
 147:C:/Users/stapi/OneDrive/Desktop/GD32VW553/GD32VW55X_Wifi_BLE_SDK/GD32VW55x_RELEASE_V1.0.2/MSDK/lwip/libcoap-4.3.4/src\coap_uri.c ****       coap_log_err("coaps+ws URI scheme not supported in this version of libcoap\n");
 385              		.loc 1 147 8
 386 0206 21E1     		bne	a0,zero,.L17
 148:C:/Users/stapi/OneDrive/Desktop/GD32VW553/GD32VW55X_Wifi_BLE_SDK/GD32VW55x_RELEASE_V1.0.2/MSDK/lwip/libcoap-4.3.4/src\coap_uri.c ****       return -1;
 387              		.loc 1 148 7 is_stmt 1
 148:C:/Users/stapi/OneDrive/Desktop/GD32VW553/GD32VW55X_Wifi_BLE_SDK/GD32VW55x_RELEASE_V1.0.2/MSDK/lwip/libcoap-4.3.4/src\coap_uri.c ****       return -1;
 388              		.loc 1 148 7
 389 0208 97000000 		call	coap_get_log_level
 389      E7800000 
 390              	.LVL36:
 391 0210 8947     		li	a5,2
 392 0212 E3D3A7EC 		ble	a0,a5,.L84
 148:C:/Users/stapi/OneDrive/Desktop/GD32VW553/GD32VW55X_Wifi_BLE_SDK/GD32VW55x_RELEASE_V1.0.2/MSDK/lwip/libcoap-4.3.4/src\coap_uri.c ****       return -1;
 393              		.loc 1 148 7 discriminator 1
 394 0216 B7050000 		lui	a1,%hi(.LC6)
 395 021a 93850500 		addi	a1,a1,%lo(.LC6)
 396 021e BDB7     		j	.L87
 397              	.L10:
 156:C:/Users/stapi/OneDrive/Desktop/GD32VW553/GD32VW55X_Wifi_BLE_SDK/GD32VW55x_RELEASE_V1.0.2/MSDK/lwip/libcoap-4.3.4/src\coap_uri.c ****     return -1;
 398              		.loc 1 156 5
 156:C:/Users/stapi/OneDrive/Desktop/GD32VW553/GD32VW55X_Wifi_BLE_SDK/GD32VW55x_RELEASE_V1.0.2/MSDK/lwip/libcoap-4.3.4/src\coap_uri.c ****     return -1;
 399              		.loc 1 156 5
 400 0220 97000000 		call	coap_get_log_level
 400      E7800000 
 401              	.LVL37:
 402 0228 8D47     		li	a5,3
 403 022a E3D7A7EA 		ble	a0,a5,.L84
 156:C:/Users/stapi/OneDrive/Desktop/GD32VW553/GD32VW55X_Wifi_BLE_SDK/GD32VW55x_RELEASE_V1.0.2/MSDK/lwip/libcoap-4.3.4/src\coap_uri.c ****     return -1;
 404              		.loc 1 156 5 discriminator 1
 405 022e 0326C901 		lw	a2,28(s2)
 406 0232 B7050000 		lui	a1,%hi(.LC7)
 407 0236 93850500 		addi	a1,a1,%lo(.LC7)
 408 023a 1145     		li	a0,4
 409 023c 97000000 		call	coap_log_impl
 409      E7800000 
 410              	.LVL38:
 411 0244 51BD     		j	.L84
 412              	.L17:
 160:C:/Users/stapi/OneDrive/Desktop/GD32VW553/GD32VW55X_Wifi_BLE_SDK/GD32VW55x_RELEASE_V1.0.2/MSDK/lwip/libcoap-4.3.4/src\coap_uri.c ****   len -= 3;
 413              		.loc 1 160 3
 161:C:/Users/stapi/OneDrive/Desktop/GD32VW553/GD32VW55X_Wifi_BLE_SDK/GD32VW55x_RELEASE_V1.0.2/MSDK/lwip/libcoap-4.3.4/src\coap_uri.c **** 
 414              		.loc 1 161 7 is_stmt 0
 415 0246 F514     		addi	s1,s1,-3
 416              	.LVL39:
 160:C:/Users/stapi/OneDrive/Desktop/GD32VW553/GD32VW55X_Wifi_BLE_SDK/GD32VW55x_RELEASE_V1.0.2/MSDK/lwip/libcoap-4.3.4/src\coap_uri.c ****   len -= 3;
 417              		.loc 1 160 5
 418 0248 13873900 		addi	a4,s3,3
 419              	.LVL40:
 161:C:/Users/stapi/OneDrive/Desktop/GD32VW553/GD32VW55X_Wifi_BLE_SDK/GD32VW55x_RELEASE_V1.0.2/MSDK/lwip/libcoap-4.3.4/src\coap_uri.c **** 
 420              		.loc 1 161 3 is_stmt 1
 164:C:/Users/stapi/OneDrive/Desktop/GD32VW553/GD32VW55X_Wifi_BLE_SDK/GD32VW55x_RELEASE_V1.0.2/MSDK/lwip/libcoap-4.3.4/src\coap_uri.c ****   if (len && *p == '[') {
 421              		.loc 1 164 3
 165:C:/Users/stapi/OneDrive/Desktop/GD32VW553/GD32VW55X_Wifi_BLE_SDK/GD32VW55x_RELEASE_V1.0.2/MSDK/lwip/libcoap-4.3.4/src\coap_uri.c ****     /* IPv6 address reference */
 422              		.loc 1 165 3
 165:C:/Users/stapi/OneDrive/Desktop/GD32VW553/GD32VW55X_Wifi_BLE_SDK/GD32VW55x_RELEASE_V1.0.2/MSDK/lwip/libcoap-4.3.4/src\coap_uri.c ****     /* IPv6 address reference */
 423              		.loc 1 165 6 is_stmt 0
 424 024c C1C0     		beq	s1,zero,.L53
 165:C:/Users/stapi/OneDrive/Desktop/GD32VW553/GD32VW55X_Wifi_BLE_SDK/GD32VW55x_RELEASE_V1.0.2/MSDK/lwip/libcoap-4.3.4/src\coap_uri.c ****     /* IPv6 address reference */
 425              		.loc 1 165 14 discriminator 1
 426 024e 83C73900 		lbu	a5,3(s3)
 165:C:/Users/stapi/OneDrive/Desktop/GD32VW553/GD32VW55X_Wifi_BLE_SDK/GD32VW55x_RELEASE_V1.0.2/MSDK/lwip/libcoap-4.3.4/src\coap_uri.c ****     /* IPv6 address reference */
 427              		.loc 1 165 11 discriminator 1
 428 0252 9306B005 		li	a3,91
 429 0256 639DD702 		bne	a5,a3,.L23
 167:C:/Users/stapi/OneDrive/Desktop/GD32VW553/GD32VW55X_Wifi_BLE_SDK/GD32VW55x_RELEASE_V1.0.2/MSDK/lwip/libcoap-4.3.4/src\coap_uri.c **** 
 430              		.loc 1 167 5 is_stmt 1
 431 025a 13844900 		addi	s0,s3,4
 432              	.LVL41:
 169:C:/Users/stapi/OneDrive/Desktop/GD32VW553/GD32VW55X_Wifi_BLE_SDK/GD32VW55x_RELEASE_V1.0.2/MSDK/lwip/libcoap-4.3.4/src\coap_uri.c ****       ++q;
 433              		.loc 1 169 5
 169:C:/Users/stapi/OneDrive/Desktop/GD32VW553/GD32VW55X_Wifi_BLE_SDK/GD32VW55x_RELEASE_V1.0.2/MSDK/lwip/libcoap-4.3.4/src\coap_uri.c ****       ++q;
 434              		.loc 1 169 11
 169:C:/Users/stapi/OneDrive/Desktop/GD32VW553/GD32VW55X_Wifi_BLE_SDK/GD32VW55x_RELEASE_V1.0.2/MSDK/lwip/libcoap-4.3.4/src\coap_uri.c ****       ++q;
 435              		.loc 1 169 16 is_stmt 0
 436 025e 9307D005 		li	a5,93
 437              	.L24:
 169:C:/Users/stapi/OneDrive/Desktop/GD32VW553/GD32VW55X_Wifi_BLE_SDK/GD32VW55x_RELEASE_V1.0.2/MSDK/lwip/libcoap-4.3.4/src\coap_uri.c ****       ++q;
 438              		.loc 1 169 16 discriminator 1
 439 0262 83460700 		lbu	a3,0(a4)
 440 0266 6390F602 		bne	a3,a5,.L25
 174:C:/Users/stapi/OneDrive/Desktop/GD32VW553/GD32VW55X_Wifi_BLE_SDK/GD32VW55x_RELEASE_V1.0.2/MSDK/lwip/libcoap-4.3.4/src\coap_uri.c ****       res = -3;
 441              		.loc 1 174 5 is_stmt 1
 174:C:/Users/stapi/OneDrive/Desktop/GD32VW553/GD32VW55X_Wifi_BLE_SDK/GD32VW55x_RELEASE_V1.0.2/MSDK/lwip/libcoap-4.3.4/src\coap_uri.c ****       res = -3;
 442              		.loc 1 174 27 is_stmt 0
 443 026a 6301E402 		beq	s0,a4,.L33
 179:C:/Users/stapi/OneDrive/Desktop/GD32VW553/GD32VW55X_Wifi_BLE_SDK/GD32VW55x_RELEASE_V1.0.2/MSDK/lwip/libcoap-4.3.4/src\coap_uri.c ****     ++q;
 444              		.loc 1 179 5 is_stmt 1
 445 026e B3078740 		sub	a5,a4,s0
 446 0272 2320F900 		sw	a5,0(s2)
 447 0276 23228900 		sw	s0,4(s2)
 179:C:/Users/stapi/OneDrive/Desktop/GD32VW553/GD32VW55X_Wifi_BLE_SDK/GD32VW55x_RELEASE_V1.0.2/MSDK/lwip/libcoap-4.3.4/src\coap_uri.c ****     ++q;
 448              		.loc 1 179 39
 180:C:/Users/stapi/OneDrive/Desktop/GD32VW553/GD32VW55X_Wifi_BLE_SDK/GD32VW55x_RELEASE_V1.0.2/MSDK/lwip/libcoap-4.3.4/src\coap_uri.c ****     --len;
 449              		.loc 1 180 5
 450 027a 93071700 		addi	a5,a4,1
 451              	.LVL42:
 181:C:/Users/stapi/OneDrive/Desktop/GD32VW553/GD32VW55X_Wifi_BLE_SDK/GD32VW55x_RELEASE_V1.0.2/MSDK/lwip/libcoap-4.3.4/src\coap_uri.c ****   } else {
 452              		.loc 1 181 5
 453 027e FD14     		addi	s1,s1,-1
 454              	.LVL43:
 455              	.L27:
 200:C:/Users/stapi/OneDrive/Desktop/GD32VW553/GD32VW55X_Wifi_BLE_SDK/GD32VW55x_RELEASE_V1.0.2/MSDK/lwip/libcoap-4.3.4/src\coap_uri.c ****   }
 456              		.loc 1 200 39 discriminator 1
 204:C:/Users/stapi/OneDrive/Desktop/GD32VW553/GD32VW55X_Wifi_BLE_SDK/GD32VW55x_RELEASE_V1.0.2/MSDK/lwip/libcoap-4.3.4/src\coap_uri.c ****     if (is_unix_domain) {
 457              		.loc 1 204 3 discriminator 1
 204:C:/Users/stapi/OneDrive/Desktop/GD32VW553/GD32VW55X_Wifi_BLE_SDK/GD32VW55x_RELEASE_V1.0.2/MSDK/lwip/libcoap-4.3.4/src\coap_uri.c ****     if (is_unix_domain) {
 458              		.loc 1 204 6 is_stmt 0 discriminator 1
 459 0280 B5EC     		bne	s1,zero,.L34
 460              	.LVL44:
 461              	.L86:
 257:C:/Users/stapi/OneDrive/Desktop/GD32VW553/GD32VW55X_Wifi_BLE_SDK/GD32VW55x_RELEASE_V1.0.2/MSDK/lwip/libcoap-4.3.4/src\coap_uri.c ****     len = 0;
 462              		.loc 1 257 38 is_stmt 1
 258:C:/Users/stapi/OneDrive/Desktop/GD32VW553/GD32VW55X_Wifi_BLE_SDK/GD32VW55x_RELEASE_V1.0.2/MSDK/lwip/libcoap-4.3.4/src\coap_uri.c ****   }
 463              		.loc 1 258 5
 262:C:/Users/stapi/OneDrive/Desktop/GD32VW553/GD32VW55X_Wifi_BLE_SDK/GD32VW55x_RELEASE_V1.0.2/MSDK/lwip/libcoap-4.3.4/src\coap_uri.c **** 
 464              		.loc 1 262 3
 262:C:/Users/stapi/OneDrive/Desktop/GD32VW553/GD32VW55X_Wifi_BLE_SDK/GD32VW55x_RELEASE_V1.0.2/MSDK/lwip/libcoap-4.3.4/src\coap_uri.c **** 
 465              		.loc 1 262 19 is_stmt 0
 466 0282 0145     		li	a0,0
 467 0284 99BD     		j	.L1
 468              	.LVL45:
 469              	.L25:
 170:C:/Users/stapi/OneDrive/Desktop/GD32VW553/GD32VW55X_Wifi_BLE_SDK/GD32VW55x_RELEASE_V1.0.2/MSDK/lwip/libcoap-4.3.4/src\coap_uri.c ****       --len;
 470              		.loc 1 170 7 is_stmt 1
 171:C:/Users/stapi/OneDrive/Desktop/GD32VW553/GD32VW55X_Wifi_BLE_SDK/GD32VW55x_RELEASE_V1.0.2/MSDK/lwip/libcoap-4.3.4/src\coap_uri.c ****     }
 471              		.loc 1 171 7 is_stmt 0
 472 0286 FD14     		addi	s1,s1,-1
 473              	.LVL46:
 170:C:/Users/stapi/OneDrive/Desktop/GD32VW553/GD32VW55X_Wifi_BLE_SDK/GD32VW55x_RELEASE_V1.0.2/MSDK/lwip/libcoap-4.3.4/src\coap_uri.c ****       --len;
 474              		.loc 1 170 7
 475 0288 0507     		addi	a4,a4,1
 476              	.LVL47:
 171:C:/Users/stapi/OneDrive/Desktop/GD32VW553/GD32VW55X_Wifi_BLE_SDK/GD32VW55x_RELEASE_V1.0.2/MSDK/lwip/libcoap-4.3.4/src\coap_uri.c ****     }
 477              		.loc 1 171 7 is_stmt 1
 169:C:/Users/stapi/OneDrive/Desktop/GD32VW553/GD32VW55X_Wifi_BLE_SDK/GD32VW55x_RELEASE_V1.0.2/MSDK/lwip/libcoap-4.3.4/src\coap_uri.c ****       ++q;
 478              		.loc 1 169 11
 479 028a E1FC     		bne	s1,zero,.L24
 480              	.LVL48:
 481              	.L33:
 175:C:/Users/stapi/OneDrive/Desktop/GD32VW553/GD32VW55X_Wifi_BLE_SDK/GD32VW55x_RELEASE_V1.0.2/MSDK/lwip/libcoap-4.3.4/src\coap_uri.c ****       goto error;
 482              		.loc 1 175 11 is_stmt 0
 483 028c 7555     		li	a0,-3
 484 028e B1B5     		j	.L1
 485              	.LVL49:
 486              	.L23:
 184:C:/Users/stapi/OneDrive/Desktop/GD32VW553/GD32VW55X_Wifi_BLE_SDK/GD32VW55x_RELEASE_V1.0.2/MSDK/lwip/libcoap-4.3.4/src\coap_uri.c ****         (p[2] == 'F' || p[2] == 'f')) {
 487              		.loc 1 184 5 is_stmt 1
 184:C:/Users/stapi/OneDrive/Desktop/GD32VW553/GD32VW55X_Wifi_BLE_SDK/GD32VW55x_RELEASE_V1.0.2/MSDK/lwip/libcoap-4.3.4/src\coap_uri.c ****         (p[2] == 'F' || p[2] == 'f')) {
 488              		.loc 1 184 8 is_stmt 0
 489 0290 8946     		li	a3,2
 490 0292 63F79602 		bleu	s1,a3,.L28
 184:C:/Users/stapi/OneDrive/Desktop/GD32VW553/GD32VW55X_Wifi_BLE_SDK/GD32VW55x_RELEASE_V1.0.2/MSDK/lwip/libcoap-4.3.4/src\coap_uri.c ****         (p[2] == 'F' || p[2] == 'f')) {
 491              		.loc 1 184 18 discriminator 1
 492 0296 93065002 		li	a3,37
 493 029a 6393D702 		bne	a5,a3,.L28
 184:C:/Users/stapi/OneDrive/Desktop/GD32VW553/GD32VW55X_Wifi_BLE_SDK/GD32VW55x_RELEASE_V1.0.2/MSDK/lwip/libcoap-4.3.4/src\coap_uri.c ****         (p[2] == 'F' || p[2] == 'f')) {
 494              		.loc 1 184 33 discriminator 2
 495 029e 83C64900 		lbu	a3,4(s3)
 496 02a2 93072003 		li	a5,50
 497 02a6 639DF600 		bne	a3,a5,.L28
 184:C:/Users/stapi/OneDrive/Desktop/GD32VW553/GD32VW55X_Wifi_BLE_SDK/GD32VW55x_RELEASE_V1.0.2/MSDK/lwip/libcoap-4.3.4/src\coap_uri.c ****         (p[2] == 'F' || p[2] == 'f')) {
 498              		.loc 1 184 48 discriminator 3
 499 02aa 83C75900 		lbu	a5,5(s3)
 500 02ae 93066004 		li	a3,70
 501 02b2 93F7F70D 		andi	a5,a5,223
 502 02b6 6395D700 		bne	a5,a3,.L28
 187:C:/Users/stapi/OneDrive/Desktop/GD32VW553/GD32VW55X_Wifi_BLE_SDK/GD32VW55x_RELEASE_V1.0.2/MSDK/lwip/libcoap-4.3.4/src\coap_uri.c ****       is_unix_domain = 1;
 503              		.loc 1 187 7 is_stmt 1
 187:C:/Users/stapi/OneDrive/Desktop/GD32VW553/GD32VW55X_Wifi_BLE_SDK/GD32VW55x_RELEASE_V1.0.2/MSDK/lwip/libcoap-4.3.4/src\coap_uri.c ****       is_unix_domain = 1;
 504              		.loc 1 187 17 is_stmt 0
 505 02ba 23140900 		sh	zero,8(s2)
 188:C:/Users/stapi/OneDrive/Desktop/GD32VW553/GD32VW55X_Wifi_BLE_SDK/GD32VW55x_RELEASE_V1.0.2/MSDK/lwip/libcoap-4.3.4/src\coap_uri.c ****     }
 506              		.loc 1 188 7 is_stmt 1
 507              	.LVL50:
 188:C:/Users/stapi/OneDrive/Desktop/GD32VW553/GD32VW55X_Wifi_BLE_SDK/GD32VW55x_RELEASE_V1.0.2/MSDK/lwip/libcoap-4.3.4/src\coap_uri.c ****     }
 508              		.loc 1 188 22 is_stmt 0
 509 02be 054A     		li	s4,1
 510              	.LVL51:
 511              	.L28:
 160:C:/Users/stapi/OneDrive/Desktop/GD32VW553/GD32VW55X_Wifi_BLE_SDK/GD32VW55x_RELEASE_V1.0.2/MSDK/lwip/libcoap-4.3.4/src\coap_uri.c ****   len -= 3;
 512              		.loc 1 160 5
 513 02c0 BA87     		mv	a5,a4
 190:C:/Users/stapi/OneDrive/Desktop/GD32VW553/GD32VW55X_Wifi_BLE_SDK/GD32VW55x_RELEASE_V1.0.2/MSDK/lwip/libcoap-4.3.4/src\coap_uri.c ****       ++q;
 514              		.loc 1 190 16
 515 02c2 9305A003 		li	a1,58
 190:C:/Users/stapi/OneDrive/Desktop/GD32VW553/GD32VW55X_Wifi_BLE_SDK/GD32VW55x_RELEASE_V1.0.2/MSDK/lwip/libcoap-4.3.4/src\coap_uri.c ****       ++q;
 516              		.loc 1 190 29
 517 02c6 1306F002 		li	a2,47
 518 02ca 29A8     		j	.L29
 519              	.LVL52:
 520              	.L53:
 160:C:/Users/stapi/OneDrive/Desktop/GD32VW553/GD32VW55X_Wifi_BLE_SDK/GD32VW55x_RELEASE_V1.0.2/MSDK/lwip/libcoap-4.3.4/src\coap_uri.c ****   len -= 3;
 521              		.loc 1 160 5
 522 02cc BA87     		mv	a5,a4
 523 02ce 21A8     		j	.L22
 524              	.LVL53:
 525              	.L30:
 190:C:/Users/stapi/OneDrive/Desktop/GD32VW553/GD32VW55X_Wifi_BLE_SDK/GD32VW55x_RELEASE_V1.0.2/MSDK/lwip/libcoap-4.3.4/src\coap_uri.c ****       ++q;
 526              		.loc 1 190 19 discriminator 1
 527 02d0 83C60700 		lbu	a3,0(a5)
 190:C:/Users/stapi/OneDrive/Desktop/GD32VW553/GD32VW55X_Wifi_BLE_SDK/GD32VW55x_RELEASE_V1.0.2/MSDK/lwip/libcoap-4.3.4/src\coap_uri.c ****       ++q;
 528              		.loc 1 190 16 discriminator 1
 529 02d4 638AB600 		beq	a3,a1,.L31
 190:C:/Users/stapi/OneDrive/Desktop/GD32VW553/GD32VW55X_Wifi_BLE_SDK/GD32VW55x_RELEASE_V1.0.2/MSDK/lwip/libcoap-4.3.4/src\coap_uri.c ****       ++q;
 530              		.loc 1 190 29 discriminator 2
 531 02d8 93F6F60E 		andi	a3,a3,239
 532 02dc 6386C600 		beq	a3,a2,.L31
 191:C:/Users/stapi/OneDrive/Desktop/GD32VW553/GD32VW55X_Wifi_BLE_SDK/GD32VW55x_RELEASE_V1.0.2/MSDK/lwip/libcoap-4.3.4/src\coap_uri.c ****       --len;
 533              		.loc 1 191 7 is_stmt 1
 534 02e0 8507     		addi	a5,a5,1
 535              	.LVL54:
 192:C:/Users/stapi/OneDrive/Desktop/GD32VW553/GD32VW55X_Wifi_BLE_SDK/GD32VW55x_RELEASE_V1.0.2/MSDK/lwip/libcoap-4.3.4/src\coap_uri.c ****     }
 536              		.loc 1 192 7
 537 02e2 FD14     		addi	s1,s1,-1
 538              	.LVL55:
 539              	.L29:
 190:C:/Users/stapi/OneDrive/Desktop/GD32VW553/GD32VW55X_Wifi_BLE_SDK/GD32VW55x_RELEASE_V1.0.2/MSDK/lwip/libcoap-4.3.4/src\coap_uri.c ****       ++q;
 540              		.loc 1 190 11
 541 02e4 F5F4     		bne	s1,zero,.L30
 542              	.LVL56:
 543              	.L22:
 160:C:/Users/stapi/OneDrive/Desktop/GD32VW553/GD32VW55X_Wifi_BLE_SDK/GD32VW55x_RELEASE_V1.0.2/MSDK/lwip/libcoap-4.3.4/src\coap_uri.c ****   len -= 3;
 544              		.loc 1 160 5 is_stmt 0
 545 02e6 8144     		li	s1,0
 546              	.L31:
 195:C:/Users/stapi/OneDrive/Desktop/GD32VW553/GD32VW55X_Wifi_BLE_SDK/GD32VW55x_RELEASE_V1.0.2/MSDK/lwip/libcoap-4.3.4/src\coap_uri.c ****       res = -3;
 547              		.loc 1 195 5 is_stmt 1
 195:C:/Users/stapi/OneDrive/Desktop/GD32VW553/GD32VW55X_Wifi_BLE_SDK/GD32VW55x_RELEASE_V1.0.2/MSDK/lwip/libcoap-4.3.4/src\coap_uri.c ****       res = -3;
 548              		.loc 1 195 8 is_stmt 0
 549 02e8 E382E7FA 		beq	a5,a4,.L33
 200:C:/Users/stapi/OneDrive/Desktop/GD32VW553/GD32VW55X_Wifi_BLE_SDK/GD32VW55x_RELEASE_V1.0.2/MSDK/lwip/libcoap-4.3.4/src\coap_uri.c ****   }
 550              		.loc 1 200 5 is_stmt 1
 551 02ec B386E740 		sub	a3,a5,a4
 552 02f0 2320D900 		sw	a3,0(s2)
 553 02f4 2322E900 		sw	a4,4(s2)
 554 02f8 3A84     		mv	s0,a4
 555              	.LVL57:
 556 02fa 59B7     		j	.L27
 557              	.LVL58:
 558              	.L34:
 204:C:/Users/stapi/OneDrive/Desktop/GD32VW553/GD32VW55X_Wifi_BLE_SDK/GD32VW55x_RELEASE_V1.0.2/MSDK/lwip/libcoap-4.3.4/src\coap_uri.c ****     if (is_unix_domain) {
 559              		.loc 1 204 11 is_stmt 0 discriminator 1
 560 02fc 83C60700 		lbu	a3,0(a5)
 561 0300 1307A003 		li	a4,58
 562 0304 E394E6DE 		bne	a3,a4,.L6
 205:C:/Users/stapi/OneDrive/Desktop/GD32VW553/GD32VW55X_Wifi_BLE_SDK/GD32VW55x_RELEASE_V1.0.2/MSDK/lwip/libcoap-4.3.4/src\coap_uri.c ****       res = -5;
 563              		.loc 1 205 5 is_stmt 1
 206:C:/Users/stapi/OneDrive/Desktop/GD32VW553/GD32VW55X_Wifi_BLE_SDK/GD32VW55x_RELEASE_V1.0.2/MSDK/lwip/libcoap-4.3.4/src\coap_uri.c ****       goto error;
 564              		.loc 1 206 11 is_stmt 0
 565 0308 6D55     		li	a0,-5
 205:C:/Users/stapi/OneDrive/Desktop/GD32VW553/GD32VW55X_Wifi_BLE_SDK/GD32VW55x_RELEASE_V1.0.2/MSDK/lwip/libcoap-4.3.4/src\coap_uri.c ****       res = -5;
 566              		.loc 1 205 8
 567 030a E3180ADC 		bne	s4,zero,.L1
 209:C:/Users/stapi/OneDrive/Desktop/GD32VW553/GD32VW55X_Wifi_BLE_SDK/GD32VW55x_RELEASE_V1.0.2/MSDK/lwip/libcoap-4.3.4/src\coap_uri.c ****     --len;
 568              		.loc 1 209 5 is_stmt 1
 569              	.LVL59:
 209:C:/Users/stapi/OneDrive/Desktop/GD32VW553/GD32VW55X_Wifi_BLE_SDK/GD32VW55x_RELEASE_V1.0.2/MSDK/lwip/libcoap-4.3.4/src\coap_uri.c ****     --len;
 570              		.loc 1 209 7 is_stmt 0
 571 030e 13841700 		addi	s0,a5,1
 572              	.LVL60:
 210:C:/Users/stapi/OneDrive/Desktop/GD32VW553/GD32VW55X_Wifi_BLE_SDK/GD32VW55x_RELEASE_V1.0.2/MSDK/lwip/libcoap-4.3.4/src\coap_uri.c **** 
 573              		.loc 1 210 5 is_stmt 1
 212:C:/Users/stapi/OneDrive/Desktop/GD32VW553/GD32VW55X_Wifi_BLE_SDK/GD32VW55x_RELEASE_V1.0.2/MSDK/lwip/libcoap-4.3.4/src\coap_uri.c ****       ++q;
 574              		.loc 1 212 19 is_stmt 0
 575 0312 B7060000 		lui	a3,%hi(_ctype_+1)
 210:C:/Users/stapi/OneDrive/Desktop/GD32VW553/GD32VW55X_Wifi_BLE_SDK/GD32VW55x_RELEASE_V1.0.2/MSDK/lwip/libcoap-4.3.4/src\coap_uri.c **** 
 576              		.loc 1 210 5
 577 0316 FD14     		addi	s1,s1,-1
 578              	.LVL61:
 212:C:/Users/stapi/OneDrive/Desktop/GD32VW553/GD32VW55X_Wifi_BLE_SDK/GD32VW55x_RELEASE_V1.0.2/MSDK/lwip/libcoap-4.3.4/src\coap_uri.c ****       ++q;
 579              		.loc 1 212 5 is_stmt 1
 209:C:/Users/stapi/OneDrive/Desktop/GD32VW553/GD32VW55X_Wifi_BLE_SDK/GD32VW55x_RELEASE_V1.0.2/MSDK/lwip/libcoap-4.3.4/src\coap_uri.c ****     --len;
 580              		.loc 1 209 7 is_stmt 0
 581 0318 A287     		mv	a5,s0
 212:C:/Users/stapi/OneDrive/Desktop/GD32VW553/GD32VW55X_Wifi_BLE_SDK/GD32VW55x_RELEASE_V1.0.2/MSDK/lwip/libcoap-4.3.4/src\coap_uri.c ****       ++q;
 582              		.loc 1 212 19
 583 031a 93861600 		addi	a3,a3,%lo(_ctype_+1)
 584              	.LVL62:
 585              	.L35:
 212:C:/Users/stapi/OneDrive/Desktop/GD32VW553/GD32VW55X_Wifi_BLE_SDK/GD32VW55x_RELEASE_V1.0.2/MSDK/lwip/libcoap-4.3.4/src\coap_uri.c ****       ++q;
 586              		.loc 1 212 11 is_stmt 1
 587 031e D1C0     		beq	s1,zero,.L36
 212:C:/Users/stapi/OneDrive/Desktop/GD32VW553/GD32VW55X_Wifi_BLE_SDK/GD32VW55x_RELEASE_V1.0.2/MSDK/lwip/libcoap-4.3.4/src\coap_uri.c ****       ++q;
 588              		.loc 1 212 19 is_stmt 0 discriminator 1
 589 0320 03C70700 		lbu	a4,0(a5)
 590 0324 3697     		add	a4,a4,a3
 212:C:/Users/stapi/OneDrive/Desktop/GD32VW553/GD32VW55X_Wifi_BLE_SDK/GD32VW55x_RELEASE_V1.0.2/MSDK/lwip/libcoap-4.3.4/src\coap_uri.c ****       ++q;
 591              		.loc 1 212 16 discriminator 1
 592 0326 03470700 		lbu	a4,0(a4)
 593 032a 118B     		andi	a4,a4,4
 594 032c 1DE3     		bne	a4,zero,.L37
 217:C:/Users/stapi/OneDrive/Desktop/GD32VW553/GD32VW55X_Wifi_BLE_SDK/GD32VW55x_RELEASE_V1.0.2/MSDK/lwip/libcoap-4.3.4/src\coap_uri.c ****       int uri_port = 0;
 595              		.loc 1 217 5 is_stmt 1
 217:C:/Users/stapi/OneDrive/Desktop/GD32VW553/GD32VW55X_Wifi_BLE_SDK/GD32VW55x_RELEASE_V1.0.2/MSDK/lwip/libcoap-4.3.4/src\coap_uri.c ****       int uri_port = 0;
 596              		.loc 1 217 8 is_stmt 0
 597 032e E37FF4DA 		bleu	a5,s0,.L6
 598              	.L50:
 599              	.LBB2:
 221:C:/Users/stapi/OneDrive/Desktop/GD32VW553/GD32VW55X_Wifi_BLE_SDK/GD32VW55x_RELEASE_V1.0.2/MSDK/lwip/libcoap-4.3.4/src\coap_uri.c **** 
 600              		.loc 1 221 29
 601 0332 2946     		li	a2,10
 220:C:/Users/stapi/OneDrive/Desktop/GD32VW553/GD32VW55X_Wifi_BLE_SDK/GD32VW55x_RELEASE_V1.0.2/MSDK/lwip/libcoap-4.3.4/src\coap_uri.c ****         uri_port = uri_port * 10 + (*p++ - '0');
 602              		.loc 1 220 22
 603 0334 C166     		li	a3,65536
 604              	.LVL63:
 605              	.L40:
 221:C:/Users/stapi/OneDrive/Desktop/GD32VW553/GD32VW55X_Wifi_BLE_SDK/GD32VW55x_RELEASE_V1.0.2/MSDK/lwip/libcoap-4.3.4/src\coap_uri.c **** 
 606              		.loc 1 221 9 is_stmt 1
 221:C:/Users/stapi/OneDrive/Desktop/GD32VW553/GD32VW55X_Wifi_BLE_SDK/GD32VW55x_RELEASE_V1.0.2/MSDK/lwip/libcoap-4.3.4/src\coap_uri.c **** 
 607              		.loc 1 221 37 is_stmt 0
 608 0336 03470400 		lbu	a4,0(s0)
 221:C:/Users/stapi/OneDrive/Desktop/GD32VW553/GD32VW55X_Wifi_BLE_SDK/GD32VW55x_RELEASE_V1.0.2/MSDK/lwip/libcoap-4.3.4/src\coap_uri.c **** 
 609              		.loc 1 221 39
 610 033a 0504     		addi	s0,s0,1
 611              	.LVL64:
 221:C:/Users/stapi/OneDrive/Desktop/GD32VW553/GD32VW55X_Wifi_BLE_SDK/GD32VW55x_RELEASE_V1.0.2/MSDK/lwip/libcoap-4.3.4/src\coap_uri.c **** 
 612              		.loc 1 221 42
 613 033c 130707FD 		addi	a4,a4,-48
 221:C:/Users/stapi/OneDrive/Desktop/GD32VW553/GD32VW55X_Wifi_BLE_SDK/GD32VW55x_RELEASE_V1.0.2/MSDK/lwip/libcoap-4.3.4/src\coap_uri.c **** 
 614              		.loc 1 221 18
 615 0340 7F17CAC4 		maddr32	a4, s4, a2
 616 0344 3A8A     		mv	s4,a4
 617              	.LVL65:
 220:C:/Users/stapi/OneDrive/Desktop/GD32VW553/GD32VW55X_Wifi_BLE_SDK/GD32VW55x_RELEASE_V1.0.2/MSDK/lwip/libcoap-4.3.4/src\coap_uri.c ****         uri_port = uri_port * 10 + (*p++ - '0');
 618              		.loc 1 220 13 is_stmt 1
 619 0346 63898700 		beq	a5,s0,.L39
 220:C:/Users/stapi/OneDrive/Desktop/GD32VW553/GD32VW55X_Wifi_BLE_SDK/GD32VW55x_RELEASE_V1.0.2/MSDK/lwip/libcoap-4.3.4/src\coap_uri.c ****         uri_port = uri_port * 10 + (*p++ - '0');
 620              		.loc 1 220 22 is_stmt 0 discriminator 1
 621 034a E346D7FE 		blt	a4,a3,.L40
 225:C:/Users/stapi/OneDrive/Desktop/GD32VW553/GD32VW55X_Wifi_BLE_SDK/GD32VW55x_RELEASE_V1.0.2/MSDK/lwip/libcoap-4.3.4/src\coap_uri.c ****         goto error;
 622              		.loc 1 225 13
 623 034e 7155     		li	a0,-4
 624 0350 69B3     		j	.L1
 625              	.LVL66:
 626              	.L37:
 627              	.LBE2:
 213:C:/Users/stapi/OneDrive/Desktop/GD32VW553/GD32VW55X_Wifi_BLE_SDK/GD32VW55x_RELEASE_V1.0.2/MSDK/lwip/libcoap-4.3.4/src\coap_uri.c ****       --len;
 628              		.loc 1 213 7 is_stmt 1
 629 0352 8507     		addi	a5,a5,1
 630              	.LVL67:
 214:C:/Users/stapi/OneDrive/Desktop/GD32VW553/GD32VW55X_Wifi_BLE_SDK/GD32VW55x_RELEASE_V1.0.2/MSDK/lwip/libcoap-4.3.4/src\coap_uri.c ****     }
 631              		.loc 1 214 7
 632 0354 FD14     		addi	s1,s1,-1
 633              	.LVL68:
 634 0356 E1B7     		j	.L35
 635              	.LVL69:
 636              	.L39:
 637              	.LBB3:
 224:C:/Users/stapi/OneDrive/Desktop/GD32VW553/GD32VW55X_Wifi_BLE_SDK/GD32VW55x_RELEASE_V1.0.2/MSDK/lwip/libcoap-4.3.4/src\coap_uri.c ****         res = -4;
 638              		.loc 1 224 7
 224:C:/Users/stapi/OneDrive/Desktop/GD32VW553/GD32VW55X_Wifi_BLE_SDK/GD32VW55x_RELEASE_V1.0.2/MSDK/lwip/libcoap-4.3.4/src\coap_uri.c ****         res = -4;
 639              		.loc 1 224 10 is_stmt 0
 640 0358 4167     		li	a4,65536
 641              	.LVL70:
 225:C:/Users/stapi/OneDrive/Desktop/GD32VW553/GD32VW55X_Wifi_BLE_SDK/GD32VW55x_RELEASE_V1.0.2/MSDK/lwip/libcoap-4.3.4/src\coap_uri.c ****         goto error;
 642              		.loc 1 225 13
 643 035a 7155     		li	a0,-4
 224:C:/Users/stapi/OneDrive/Desktop/GD32VW553/GD32VW55X_Wifi_BLE_SDK/GD32VW55x_RELEASE_V1.0.2/MSDK/lwip/libcoap-4.3.4/src\coap_uri.c ****         res = -4;
 644              		.loc 1 224 10
 645 035c E35FEAD6 		bge	s4,a4,.L1
 229:C:/Users/stapi/OneDrive/Desktop/GD32VW553/GD32VW55X_Wifi_BLE_SDK/GD32VW55x_RELEASE_V1.0.2/MSDK/lwip/libcoap-4.3.4/src\coap_uri.c ****     }
 646              		.loc 1 229 7 is_stmt 1
 229:C:/Users/stapi/OneDrive/Desktop/GD32VW553/GD32VW55X_Wifi_BLE_SDK/GD32VW55x_RELEASE_V1.0.2/MSDK/lwip/libcoap-4.3.4/src\coap_uri.c ****     }
 647              		.loc 1 229 19 is_stmt 0
 648 0360 23144901 		sh	s4,8(s2)
 649              	.LDL1:
 650              	.LBE3:
 235:C:/Users/stapi/OneDrive/Desktop/GD32VW553/GD32VW55X_Wifi_BLE_SDK/GD32VW55x_RELEASE_V1.0.2/MSDK/lwip/libcoap-4.3.4/src\coap_uri.c ****     goto end;
 651              		.loc 1 235 3 is_stmt 1
 235:C:/Users/stapi/OneDrive/Desktop/GD32VW553/GD32VW55X_Wifi_BLE_SDK/GD32VW55x_RELEASE_V1.0.2/MSDK/lwip/libcoap-4.3.4/src\coap_uri.c ****     goto end;
 652              		.loc 1 235 6 is_stmt 0
 653 0364 E39404D8 		bne	s1,zero,.L6
 654 0368 29BF     		j	.L86
 655              	.LVL71:
 656              	.L45:
 243:C:/Users/stapi/OneDrive/Desktop/GD32VW553/GD32VW55X_Wifi_BLE_SDK/GD32VW55x_RELEASE_V1.0.2/MSDK/lwip/libcoap-4.3.4/src\coap_uri.c ****       --len;
 657              		.loc 1 243 7 is_stmt 1
 658 036a 0504     		addi	s0,s0,1
 659              	.LVL72:
 244:C:/Users/stapi/OneDrive/Desktop/GD32VW553/GD32VW55X_Wifi_BLE_SDK/GD32VW55x_RELEASE_V1.0.2/MSDK/lwip/libcoap-4.3.4/src\coap_uri.c ****     }
 660              		.loc 1 244 7
 661 036c FD14     		addi	s1,s1,-1
 662              	.LVL73:
 663 036e 51BB     		j	.L43
 664              	.LVL74:
 665              	.L52:
  97:C:/Users/stapi/OneDrive/Desktop/GD32VW553/GD32VW55X_Wifi_BLE_SDK/GD32VW55x_RELEASE_V1.0.2/MSDK/lwip/libcoap-4.3.4/src\coap_uri.c ****     goto error;
 666              		.loc 1 97 9 is_stmt 0
 667 0370 7955     		li	a0,-2
 668 0372 A5B3     		j	.L1
 669              	.LVL75:
 670              	.L44:
 247:C:/Users/stapi/OneDrive/Desktop/GD32VW553/GD32VW55X_Wifi_BLE_SDK/GD32VW55x_RELEASE_V1.0.2/MSDK/lwip/libcoap-4.3.4/src\coap_uri.c ****       COAP_SET_STR(&uri->path, q - p, p);
 671              		.loc 1 247 5 is_stmt 1
 247:C:/Users/stapi/OneDrive/Desktop/GD32VW553/GD32VW55X_Wifi_BLE_SDK/GD32VW55x_RELEASE_V1.0.2/MSDK/lwip/libcoap-4.3.4/src\coap_uri.c ****       COAP_SET_STR(&uri->path, q - p, p);
 672              		.loc 1 247 8 is_stmt 0
 673 0374 E3F787F0 		bleu	s0,a5,.L86
 674              	.L49:
 248:C:/Users/stapi/OneDrive/Desktop/GD32VW553/GD32VW55X_Wifi_BLE_SDK/GD32VW55x_RELEASE_V1.0.2/MSDK/lwip/libcoap-4.3.4/src\coap_uri.c ****       p = q;
 675              		.loc 1 248 7 is_stmt 1
 676 0378 3307F440 		sub	a4,s0,a5
 677 037c 2326E900 		sw	a4,12(s2)
 678 0380 2328F900 		sw	a5,16(s2)
 248:C:/Users/stapi/OneDrive/Desktop/GD32VW553/GD32VW55X_Wifi_BLE_SDK/GD32VW55x_RELEASE_V1.0.2/MSDK/lwip/libcoap-4.3.4/src\coap_uri.c ****       p = q;
 679              		.loc 1 248 41
 249:C:/Users/stapi/OneDrive/Desktop/GD32VW553/GD32VW55X_Wifi_BLE_SDK/GD32VW55x_RELEASE_V1.0.2/MSDK/lwip/libcoap-4.3.4/src\coap_uri.c ****     }
 680              		.loc 1 249 7
 681              	.LVL76:
 254:C:/Users/stapi/OneDrive/Desktop/GD32VW553/GD32VW55X_Wifi_BLE_SDK/GD32VW55x_RELEASE_V1.0.2/MSDK/lwip/libcoap-4.3.4/src\coap_uri.c ****     ++p;
 682              		.loc 1 254 3
 254:C:/Users/stapi/OneDrive/Desktop/GD32VW553/GD32VW55X_Wifi_BLE_SDK/GD32VW55x_RELEASE_V1.0.2/MSDK/lwip/libcoap-4.3.4/src\coap_uri.c ****     ++p;
 683              		.loc 1 254 6 is_stmt 0
 684 0384 E38F04EE 		beq	s1,zero,.L86
 685              	.LVL77:
 686              	.L42:
 254:C:/Users/stapi/OneDrive/Desktop/GD32VW553/GD32VW55X_Wifi_BLE_SDK/GD32VW55x_RELEASE_V1.0.2/MSDK/lwip/libcoap-4.3.4/src\coap_uri.c ****     ++p;
 687              		.loc 1 254 11 discriminator 1
 688 0388 03470400 		lbu	a4,0(s0)
 689 038c 9307F003 		li	a5,63
 690 0390 E314F7D4 		bne	a4,a5,.L84
 255:C:/Users/stapi/OneDrive/Desktop/GD32VW553/GD32VW55X_Wifi_BLE_SDK/GD32VW55x_RELEASE_V1.0.2/MSDK/lwip/libcoap-4.3.4/src\coap_uri.c ****     --len;
 691              		.loc 1 255 5 is_stmt 1
 692              	.LVL78:
 256:C:/Users/stapi/OneDrive/Desktop/GD32VW553/GD32VW55X_Wifi_BLE_SDK/GD32VW55x_RELEASE_V1.0.2/MSDK/lwip/libcoap-4.3.4/src\coap_uri.c ****     COAP_SET_STR(&uri->query, len, p);
 693              		.loc 1 256 5
 257:C:/Users/stapi/OneDrive/Desktop/GD32VW553/GD32VW55X_Wifi_BLE_SDK/GD32VW55x_RELEASE_V1.0.2/MSDK/lwip/libcoap-4.3.4/src\coap_uri.c ****     len = 0;
 694              		.loc 1 257 5
 256:C:/Users/stapi/OneDrive/Desktop/GD32VW553/GD32VW55X_Wifi_BLE_SDK/GD32VW55x_RELEASE_V1.0.2/MSDK/lwip/libcoap-4.3.4/src\coap_uri.c ****     COAP_SET_STR(&uri->query, len, p);
 695              		.loc 1 256 5 is_stmt 0
 696 0394 FD14     		addi	s1,s1,-1
 697              	.LVL79:
 255:C:/Users/stapi/OneDrive/Desktop/GD32VW553/GD32VW55X_Wifi_BLE_SDK/GD32VW55x_RELEASE_V1.0.2/MSDK/lwip/libcoap-4.3.4/src\coap_uri.c ****     --len;
 698              		.loc 1 255 5
 699 0396 0504     		addi	s0,s0,1
 700              	.LVL80:
 257:C:/Users/stapi/OneDrive/Desktop/GD32VW553/GD32VW55X_Wifi_BLE_SDK/GD32VW55x_RELEASE_V1.0.2/MSDK/lwip/libcoap-4.3.4/src\coap_uri.c ****     len = 0;
 701              		.loc 1 257 5
 702 0398 232A9900 		sw	s1,20(s2)
 703 039c 232C8900 		sw	s0,24(s2)
 704 03a0 CDB5     		j	.L86
 705              	.LVL81:
 706              	.L36:
 217:C:/Users/stapi/OneDrive/Desktop/GD32VW553/GD32VW55X_Wifi_BLE_SDK/GD32VW55x_RELEASE_V1.0.2/MSDK/lwip/libcoap-4.3.4/src\coap_uri.c ****       int uri_port = 0;
 707              		.loc 1 217 5 is_stmt 1
 217:C:/Users/stapi/OneDrive/Desktop/GD32VW553/GD32VW55X_Wifi_BLE_SDK/GD32VW55x_RELEASE_V1.0.2/MSDK/lwip/libcoap-4.3.4/src\coap_uri.c ****       int uri_port = 0;
 708              		.loc 1 217 8 is_stmt 0
 709 03a2 E368F4F8 		bgtu	a5,s0,.L50
 710 03a6 F1BD     		j	.L86
 711              		.cfi_endproc
 712              	.LFE32:
 714              		.section	.rodata.write_option.str1.4,"aMS",@progbits,1
 715              		.align	2
 716              	.LC8:
 717 0000 73746174 		.string	"state"
 717      6500
 718 0006 0000     		.align	2
 719              	.LC9:
 720 0008 433A2F55 		.string	"C:/Users/stapi/OneDrive/Desktop/GD32VW553/GD32VW55X_Wifi_BLE_SDK/GD32VW55x_RELEASE_V1.0.2
 720      73657273 
 720      2F737461 
 720      70692F4F 
 720      6E654472 
 721 0089 000000   		.align	2
 722              	.LC10:
 723 008c 6D616B65 		.string	"make_decoded_option(): buflen is 0!\n"
 723      5F646563 
 723      6F646564 
 723      5F6F7074 
 723      696F6E28 
 724 00b1 000000   		.align	2
 725              	.LC11:
 726 00b4 77726974 		.string	"written <= buflen"
 726      74656E20 
 726      3C3D2062 
 726      75666C65 
 726      6E00
 727 00c6 0000     		.align	2
 728              	.LC12:
 729 00c8 62756666 		.string	"buffer too small for option\n"
 729      65722074 
 729      6F6F2073 
 729      6D616C6C 
 729      20666F72 
 730              		.section	.text.write_option,"ax",@progbits
 731              		.align	1
 733              	write_option:
 734              	.LFB42:
 267:C:/Users/stapi/OneDrive/Desktop/GD32VW553/GD32VW55X_Wifi_BLE_SDK/GD32VW55x_RELEASE_V1.0.2/MSDK/lwip/libcoap-4.3.4/src\coap_uri.c **** 
 268:C:/Users/stapi/OneDrive/Desktop/GD32VW553/GD32VW55X_Wifi_BLE_SDK/GD32VW55x_RELEASE_V1.0.2/MSDK/lwip/libcoap-4.3.4/src\coap_uri.c **** int
 269:C:/Users/stapi/OneDrive/Desktop/GD32VW553/GD32VW55X_Wifi_BLE_SDK/GD32VW55x_RELEASE_V1.0.2/MSDK/lwip/libcoap-4.3.4/src\coap_uri.c **** coap_split_uri(const uint8_t *str_var, size_t len, coap_uri_t *uri) {
 270:C:/Users/stapi/OneDrive/Desktop/GD32VW553/GD32VW55X_Wifi_BLE_SDK/GD32VW55x_RELEASE_V1.0.2/MSDK/lwip/libcoap-4.3.4/src\coap_uri.c ****   return coap_split_uri_sub(str_var, len, uri, COAP_URI_CHECK_URI);
 271:C:/Users/stapi/OneDrive/Desktop/GD32VW553/GD32VW55X_Wifi_BLE_SDK/GD32VW55x_RELEASE_V1.0.2/MSDK/lwip/libcoap-4.3.4/src\coap_uri.c **** }
 272:C:/Users/stapi/OneDrive/Desktop/GD32VW553/GD32VW55X_Wifi_BLE_SDK/GD32VW55x_RELEASE_V1.0.2/MSDK/lwip/libcoap-4.3.4/src\coap_uri.c **** 
 273:C:/Users/stapi/OneDrive/Desktop/GD32VW553/GD32VW55X_Wifi_BLE_SDK/GD32VW55x_RELEASE_V1.0.2/MSDK/lwip/libcoap-4.3.4/src\coap_uri.c **** int
 274:C:/Users/stapi/OneDrive/Desktop/GD32VW553/GD32VW55X_Wifi_BLE_SDK/GD32VW55x_RELEASE_V1.0.2/MSDK/lwip/libcoap-4.3.4/src\coap_uri.c **** coap_split_proxy_uri(const uint8_t *str_var, size_t len, coap_uri_t *uri) {
 275:C:/Users/stapi/OneDrive/Desktop/GD32VW553/GD32VW55X_Wifi_BLE_SDK/GD32VW55x_RELEASE_V1.0.2/MSDK/lwip/libcoap-4.3.4/src\coap_uri.c ****   return coap_split_uri_sub(str_var, len, uri, COAP_URI_CHECK_PROXY);
 276:C:/Users/stapi/OneDrive/Desktop/GD32VW553/GD32VW55X_Wifi_BLE_SDK/GD32VW55x_RELEASE_V1.0.2/MSDK/lwip/libcoap-4.3.4/src\coap_uri.c **** }
 277:C:/Users/stapi/OneDrive/Desktop/GD32VW553/GD32VW55X_Wifi_BLE_SDK/GD32VW55x_RELEASE_V1.0.2/MSDK/lwip/libcoap-4.3.4/src\coap_uri.c **** 
 278:C:/Users/stapi/OneDrive/Desktop/GD32VW553/GD32VW55X_Wifi_BLE_SDK/GD32VW55x_RELEASE_V1.0.2/MSDK/lwip/libcoap-4.3.4/src\coap_uri.c **** int
 279:C:/Users/stapi/OneDrive/Desktop/GD32VW553/GD32VW55X_Wifi_BLE_SDK/GD32VW55x_RELEASE_V1.0.2/MSDK/lwip/libcoap-4.3.4/src\coap_uri.c **** coap_uri_into_options(const coap_uri_t *uri, const coap_address_t *dst,
 280:C:/Users/stapi/OneDrive/Desktop/GD32VW553/GD32VW55X_Wifi_BLE_SDK/GD32VW55x_RELEASE_V1.0.2/MSDK/lwip/libcoap-4.3.4/src\coap_uri.c ****                       coap_optlist_t **optlist_chain, int create_port_host_opt,
 281:C:/Users/stapi/OneDrive/Desktop/GD32VW553/GD32VW55X_Wifi_BLE_SDK/GD32VW55x_RELEASE_V1.0.2/MSDK/lwip/libcoap-4.3.4/src\coap_uri.c ****                       uint8_t *_buf, size_t _buflen) {
 282:C:/Users/stapi/OneDrive/Desktop/GD32VW553/GD32VW55X_Wifi_BLE_SDK/GD32VW55x_RELEASE_V1.0.2/MSDK/lwip/libcoap-4.3.4/src\coap_uri.c ****   int res;
 283:C:/Users/stapi/OneDrive/Desktop/GD32VW553/GD32VW55X_Wifi_BLE_SDK/GD32VW55x_RELEASE_V1.0.2/MSDK/lwip/libcoap-4.3.4/src\coap_uri.c ****   unsigned char *buf = _buf;
 284:C:/Users/stapi/OneDrive/Desktop/GD32VW553/GD32VW55X_Wifi_BLE_SDK/GD32VW55x_RELEASE_V1.0.2/MSDK/lwip/libcoap-4.3.4/src\coap_uri.c ****   size_t buflen = _buflen;
 285:C:/Users/stapi/OneDrive/Desktop/GD32VW553/GD32VW55X_Wifi_BLE_SDK/GD32VW55x_RELEASE_V1.0.2/MSDK/lwip/libcoap-4.3.4/src\coap_uri.c **** 
 286:C:/Users/stapi/OneDrive/Desktop/GD32VW553/GD32VW55X_Wifi_BLE_SDK/GD32VW55x_RELEASE_V1.0.2/MSDK/lwip/libcoap-4.3.4/src\coap_uri.c ****   if (create_port_host_opt && !coap_host_is_unix_domain(&uri->host)) {
 287:C:/Users/stapi/OneDrive/Desktop/GD32VW553/GD32VW55X_Wifi_BLE_SDK/GD32VW55x_RELEASE_V1.0.2/MSDK/lwip/libcoap-4.3.4/src\coap_uri.c ****     int add_option = 0;
 288:C:/Users/stapi/OneDrive/Desktop/GD32VW553/GD32VW55X_Wifi_BLE_SDK/GD32VW55x_RELEASE_V1.0.2/MSDK/lwip/libcoap-4.3.4/src\coap_uri.c **** 
 289:C:/Users/stapi/OneDrive/Desktop/GD32VW553/GD32VW55X_Wifi_BLE_SDK/GD32VW55x_RELEASE_V1.0.2/MSDK/lwip/libcoap-4.3.4/src\coap_uri.c ****     if (dst && uri->host.length) {
 290:C:/Users/stapi/OneDrive/Desktop/GD32VW553/GD32VW55X_Wifi_BLE_SDK/GD32VW55x_RELEASE_V1.0.2/MSDK/lwip/libcoap-4.3.4/src\coap_uri.c **** #if !defined(WITH_LWIP) && !defined(WITH_CONTIKI)
 291:C:/Users/stapi/OneDrive/Desktop/GD32VW553/GD32VW55X_Wifi_BLE_SDK/GD32VW55x_RELEASE_V1.0.2/MSDK/lwip/libcoap-4.3.4/src\coap_uri.c ****       char addr[INET6_ADDRSTRLEN];
 292:C:/Users/stapi/OneDrive/Desktop/GD32VW553/GD32VW55X_Wifi_BLE_SDK/GD32VW55x_RELEASE_V1.0.2/MSDK/lwip/libcoap-4.3.4/src\coap_uri.c **** #else /* WITH_LWIP || WITH_CONTIKI */
 293:C:/Users/stapi/OneDrive/Desktop/GD32VW553/GD32VW55X_Wifi_BLE_SDK/GD32VW55x_RELEASE_V1.0.2/MSDK/lwip/libcoap-4.3.4/src\coap_uri.c ****       char addr[40];
 294:C:/Users/stapi/OneDrive/Desktop/GD32VW553/GD32VW55X_Wifi_BLE_SDK/GD32VW55x_RELEASE_V1.0.2/MSDK/lwip/libcoap-4.3.4/src\coap_uri.c **** #endif /* WITH_LWIP || WITH_CONTIKI */
 295:C:/Users/stapi/OneDrive/Desktop/GD32VW553/GD32VW55X_Wifi_BLE_SDK/GD32VW55x_RELEASE_V1.0.2/MSDK/lwip/libcoap-4.3.4/src\coap_uri.c **** 
 296:C:/Users/stapi/OneDrive/Desktop/GD32VW553/GD32VW55X_Wifi_BLE_SDK/GD32VW55x_RELEASE_V1.0.2/MSDK/lwip/libcoap-4.3.4/src\coap_uri.c ****       /* Add in UriHost if not match (need to strip off &iface) */
 297:C:/Users/stapi/OneDrive/Desktop/GD32VW553/GD32VW55X_Wifi_BLE_SDK/GD32VW55x_RELEASE_V1.0.2/MSDK/lwip/libcoap-4.3.4/src\coap_uri.c ****       size_t uri_host_len = uri->host.length;
 298:C:/Users/stapi/OneDrive/Desktop/GD32VW553/GD32VW55X_Wifi_BLE_SDK/GD32VW55x_RELEASE_V1.0.2/MSDK/lwip/libcoap-4.3.4/src\coap_uri.c ****       const uint8_t *cp = uri->host.s;
 299:C:/Users/stapi/OneDrive/Desktop/GD32VW553/GD32VW55X_Wifi_BLE_SDK/GD32VW55x_RELEASE_V1.0.2/MSDK/lwip/libcoap-4.3.4/src\coap_uri.c **** 
 300:C:/Users/stapi/OneDrive/Desktop/GD32VW553/GD32VW55X_Wifi_BLE_SDK/GD32VW55x_RELEASE_V1.0.2/MSDK/lwip/libcoap-4.3.4/src\coap_uri.c ****       /* Unfortunately not null terminated */
 301:C:/Users/stapi/OneDrive/Desktop/GD32VW553/GD32VW55X_Wifi_BLE_SDK/GD32VW55x_RELEASE_V1.0.2/MSDK/lwip/libcoap-4.3.4/src\coap_uri.c ****       for (size_t i = 0; i < uri_host_len; i++) {
 302:C:/Users/stapi/OneDrive/Desktop/GD32VW553/GD32VW55X_Wifi_BLE_SDK/GD32VW55x_RELEASE_V1.0.2/MSDK/lwip/libcoap-4.3.4/src\coap_uri.c ****         if (cp[i] == '%') {
 303:C:/Users/stapi/OneDrive/Desktop/GD32VW553/GD32VW55X_Wifi_BLE_SDK/GD32VW55x_RELEASE_V1.0.2/MSDK/lwip/libcoap-4.3.4/src\coap_uri.c ****           /* %iface specified in host name */
 304:C:/Users/stapi/OneDrive/Desktop/GD32VW553/GD32VW55X_Wifi_BLE_SDK/GD32VW55x_RELEASE_V1.0.2/MSDK/lwip/libcoap-4.3.4/src\coap_uri.c ****           uri_host_len = i;
 305:C:/Users/stapi/OneDrive/Desktop/GD32VW553/GD32VW55X_Wifi_BLE_SDK/GD32VW55x_RELEASE_V1.0.2/MSDK/lwip/libcoap-4.3.4/src\coap_uri.c ****           break;
 306:C:/Users/stapi/OneDrive/Desktop/GD32VW553/GD32VW55X_Wifi_BLE_SDK/GD32VW55x_RELEASE_V1.0.2/MSDK/lwip/libcoap-4.3.4/src\coap_uri.c ****         }
 307:C:/Users/stapi/OneDrive/Desktop/GD32VW553/GD32VW55X_Wifi_BLE_SDK/GD32VW55x_RELEASE_V1.0.2/MSDK/lwip/libcoap-4.3.4/src\coap_uri.c ****       }
 308:C:/Users/stapi/OneDrive/Desktop/GD32VW553/GD32VW55X_Wifi_BLE_SDK/GD32VW55x_RELEASE_V1.0.2/MSDK/lwip/libcoap-4.3.4/src\coap_uri.c **** 
 309:C:/Users/stapi/OneDrive/Desktop/GD32VW553/GD32VW55X_Wifi_BLE_SDK/GD32VW55x_RELEASE_V1.0.2/MSDK/lwip/libcoap-4.3.4/src\coap_uri.c ****       if (coap_print_ip_addr(dst, addr, sizeof(addr)) &&
 310:C:/Users/stapi/OneDrive/Desktop/GD32VW553/GD32VW55X_Wifi_BLE_SDK/GD32VW55x_RELEASE_V1.0.2/MSDK/lwip/libcoap-4.3.4/src\coap_uri.c ****           (strlen(addr) != uri_host_len ||
 311:C:/Users/stapi/OneDrive/Desktop/GD32VW553/GD32VW55X_Wifi_BLE_SDK/GD32VW55x_RELEASE_V1.0.2/MSDK/lwip/libcoap-4.3.4/src\coap_uri.c ****            memcmp(addr, uri->host.s, uri_host_len) != 0)) {
 312:C:/Users/stapi/OneDrive/Desktop/GD32VW553/GD32VW55X_Wifi_BLE_SDK/GD32VW55x_RELEASE_V1.0.2/MSDK/lwip/libcoap-4.3.4/src\coap_uri.c ****         /* add Uri-Host */
 313:C:/Users/stapi/OneDrive/Desktop/GD32VW553/GD32VW55X_Wifi_BLE_SDK/GD32VW55x_RELEASE_V1.0.2/MSDK/lwip/libcoap-4.3.4/src\coap_uri.c ****         coap_insert_optlist(optlist_chain,
 314:C:/Users/stapi/OneDrive/Desktop/GD32VW553/GD32VW55X_Wifi_BLE_SDK/GD32VW55x_RELEASE_V1.0.2/MSDK/lwip/libcoap-4.3.4/src\coap_uri.c ****                             coap_new_optlist(COAP_OPTION_URI_HOST,
 315:C:/Users/stapi/OneDrive/Desktop/GD32VW553/GD32VW55X_Wifi_BLE_SDK/GD32VW55x_RELEASE_V1.0.2/MSDK/lwip/libcoap-4.3.4/src\coap_uri.c ****                                              uri->host.length,
 316:C:/Users/stapi/OneDrive/Desktop/GD32VW553/GD32VW55X_Wifi_BLE_SDK/GD32VW55x_RELEASE_V1.0.2/MSDK/lwip/libcoap-4.3.4/src\coap_uri.c ****                                              uri->host.s));
 317:C:/Users/stapi/OneDrive/Desktop/GD32VW553/GD32VW55X_Wifi_BLE_SDK/GD32VW55x_RELEASE_V1.0.2/MSDK/lwip/libcoap-4.3.4/src\coap_uri.c ****       }
 318:C:/Users/stapi/OneDrive/Desktop/GD32VW553/GD32VW55X_Wifi_BLE_SDK/GD32VW55x_RELEASE_V1.0.2/MSDK/lwip/libcoap-4.3.4/src\coap_uri.c ****     }
 319:C:/Users/stapi/OneDrive/Desktop/GD32VW553/GD32VW55X_Wifi_BLE_SDK/GD32VW55x_RELEASE_V1.0.2/MSDK/lwip/libcoap-4.3.4/src\coap_uri.c ****     /* Add in UriPort if not default */
 320:C:/Users/stapi/OneDrive/Desktop/GD32VW553/GD32VW55X_Wifi_BLE_SDK/GD32VW55x_RELEASE_V1.0.2/MSDK/lwip/libcoap-4.3.4/src\coap_uri.c ****     switch ((int)uri->scheme) {
 321:C:/Users/stapi/OneDrive/Desktop/GD32VW553/GD32VW55X_Wifi_BLE_SDK/GD32VW55x_RELEASE_V1.0.2/MSDK/lwip/libcoap-4.3.4/src\coap_uri.c ****     case COAP_URI_SCHEME_HTTP:
 322:C:/Users/stapi/OneDrive/Desktop/GD32VW553/GD32VW55X_Wifi_BLE_SDK/GD32VW55x_RELEASE_V1.0.2/MSDK/lwip/libcoap-4.3.4/src\coap_uri.c ****     case COAP_URI_SCHEME_COAP_WS:
 323:C:/Users/stapi/OneDrive/Desktop/GD32VW553/GD32VW55X_Wifi_BLE_SDK/GD32VW55x_RELEASE_V1.0.2/MSDK/lwip/libcoap-4.3.4/src\coap_uri.c ****       if (uri->port != 80)
 324:C:/Users/stapi/OneDrive/Desktop/GD32VW553/GD32VW55X_Wifi_BLE_SDK/GD32VW55x_RELEASE_V1.0.2/MSDK/lwip/libcoap-4.3.4/src\coap_uri.c ****         add_option = 1;
 325:C:/Users/stapi/OneDrive/Desktop/GD32VW553/GD32VW55X_Wifi_BLE_SDK/GD32VW55x_RELEASE_V1.0.2/MSDK/lwip/libcoap-4.3.4/src\coap_uri.c ****       break;
 326:C:/Users/stapi/OneDrive/Desktop/GD32VW553/GD32VW55X_Wifi_BLE_SDK/GD32VW55x_RELEASE_V1.0.2/MSDK/lwip/libcoap-4.3.4/src\coap_uri.c ****     case COAP_URI_SCHEME_HTTPS:
 327:C:/Users/stapi/OneDrive/Desktop/GD32VW553/GD32VW55X_Wifi_BLE_SDK/GD32VW55x_RELEASE_V1.0.2/MSDK/lwip/libcoap-4.3.4/src\coap_uri.c ****     case COAP_URI_SCHEME_COAPS_WS:
 328:C:/Users/stapi/OneDrive/Desktop/GD32VW553/GD32VW55X_Wifi_BLE_SDK/GD32VW55x_RELEASE_V1.0.2/MSDK/lwip/libcoap-4.3.4/src\coap_uri.c ****       if (uri->port != 443)
 329:C:/Users/stapi/OneDrive/Desktop/GD32VW553/GD32VW55X_Wifi_BLE_SDK/GD32VW55x_RELEASE_V1.0.2/MSDK/lwip/libcoap-4.3.4/src\coap_uri.c ****         add_option = 1;
 330:C:/Users/stapi/OneDrive/Desktop/GD32VW553/GD32VW55X_Wifi_BLE_SDK/GD32VW55x_RELEASE_V1.0.2/MSDK/lwip/libcoap-4.3.4/src\coap_uri.c ****       break;
 331:C:/Users/stapi/OneDrive/Desktop/GD32VW553/GD32VW55X_Wifi_BLE_SDK/GD32VW55x_RELEASE_V1.0.2/MSDK/lwip/libcoap-4.3.4/src\coap_uri.c ****     default:
 332:C:/Users/stapi/OneDrive/Desktop/GD32VW553/GD32VW55X_Wifi_BLE_SDK/GD32VW55x_RELEASE_V1.0.2/MSDK/lwip/libcoap-4.3.4/src\coap_uri.c ****       if (uri->port != (coap_uri_scheme_is_secure(uri) ? COAPS_DEFAULT_PORT :
 333:C:/Users/stapi/OneDrive/Desktop/GD32VW553/GD32VW55X_Wifi_BLE_SDK/GD32VW55x_RELEASE_V1.0.2/MSDK/lwip/libcoap-4.3.4/src\coap_uri.c ****                         COAP_DEFAULT_PORT))
 334:C:/Users/stapi/OneDrive/Desktop/GD32VW553/GD32VW55X_Wifi_BLE_SDK/GD32VW55x_RELEASE_V1.0.2/MSDK/lwip/libcoap-4.3.4/src\coap_uri.c ****         add_option = 1;
 335:C:/Users/stapi/OneDrive/Desktop/GD32VW553/GD32VW55X_Wifi_BLE_SDK/GD32VW55x_RELEASE_V1.0.2/MSDK/lwip/libcoap-4.3.4/src\coap_uri.c ****       break;
 336:C:/Users/stapi/OneDrive/Desktop/GD32VW553/GD32VW55X_Wifi_BLE_SDK/GD32VW55x_RELEASE_V1.0.2/MSDK/lwip/libcoap-4.3.4/src\coap_uri.c ****     }
 337:C:/Users/stapi/OneDrive/Desktop/GD32VW553/GD32VW55X_Wifi_BLE_SDK/GD32VW55x_RELEASE_V1.0.2/MSDK/lwip/libcoap-4.3.4/src\coap_uri.c ****     if (add_option)
 338:C:/Users/stapi/OneDrive/Desktop/GD32VW553/GD32VW55X_Wifi_BLE_SDK/GD32VW55x_RELEASE_V1.0.2/MSDK/lwip/libcoap-4.3.4/src\coap_uri.c ****       coap_insert_optlist(optlist_chain,
 339:C:/Users/stapi/OneDrive/Desktop/GD32VW553/GD32VW55X_Wifi_BLE_SDK/GD32VW55x_RELEASE_V1.0.2/MSDK/lwip/libcoap-4.3.4/src\coap_uri.c ****                           coap_new_optlist(COAP_OPTION_URI_PORT,
 340:C:/Users/stapi/OneDrive/Desktop/GD32VW553/GD32VW55X_Wifi_BLE_SDK/GD32VW55x_RELEASE_V1.0.2/MSDK/lwip/libcoap-4.3.4/src\coap_uri.c ****                                            coap_encode_var_safe(buf, 4,
 341:C:/Users/stapi/OneDrive/Desktop/GD32VW553/GD32VW55X_Wifi_BLE_SDK/GD32VW55x_RELEASE_V1.0.2/MSDK/lwip/libcoap-4.3.4/src\coap_uri.c ****                                                                 (uri->port & 0xffff)),
 342:C:/Users/stapi/OneDrive/Desktop/GD32VW553/GD32VW55X_Wifi_BLE_SDK/GD32VW55x_RELEASE_V1.0.2/MSDK/lwip/libcoap-4.3.4/src\coap_uri.c ****                                            buf));
 343:C:/Users/stapi/OneDrive/Desktop/GD32VW553/GD32VW55X_Wifi_BLE_SDK/GD32VW55x_RELEASE_V1.0.2/MSDK/lwip/libcoap-4.3.4/src\coap_uri.c ****   }
 344:C:/Users/stapi/OneDrive/Desktop/GD32VW553/GD32VW55X_Wifi_BLE_SDK/GD32VW55x_RELEASE_V1.0.2/MSDK/lwip/libcoap-4.3.4/src\coap_uri.c **** 
 345:C:/Users/stapi/OneDrive/Desktop/GD32VW553/GD32VW55X_Wifi_BLE_SDK/GD32VW55x_RELEASE_V1.0.2/MSDK/lwip/libcoap-4.3.4/src\coap_uri.c ****   if (uri->path.length) {
 346:C:/Users/stapi/OneDrive/Desktop/GD32VW553/GD32VW55X_Wifi_BLE_SDK/GD32VW55x_RELEASE_V1.0.2/MSDK/lwip/libcoap-4.3.4/src\coap_uri.c ****     if (uri->path.length > buflen)
 347:C:/Users/stapi/OneDrive/Desktop/GD32VW553/GD32VW55X_Wifi_BLE_SDK/GD32VW55x_RELEASE_V1.0.2/MSDK/lwip/libcoap-4.3.4/src\coap_uri.c ****       coap_log_warn("URI path will be truncated (max buffer %zu)\n",
 348:C:/Users/stapi/OneDrive/Desktop/GD32VW553/GD32VW55X_Wifi_BLE_SDK/GD32VW55x_RELEASE_V1.0.2/MSDK/lwip/libcoap-4.3.4/src\coap_uri.c ****                     buflen);
 349:C:/Users/stapi/OneDrive/Desktop/GD32VW553/GD32VW55X_Wifi_BLE_SDK/GD32VW55x_RELEASE_V1.0.2/MSDK/lwip/libcoap-4.3.4/src\coap_uri.c ****     res = coap_split_path(uri->path.s, uri->path.length, buf, &buflen);
 350:C:/Users/stapi/OneDrive/Desktop/GD32VW553/GD32VW55X_Wifi_BLE_SDK/GD32VW55x_RELEASE_V1.0.2/MSDK/lwip/libcoap-4.3.4/src\coap_uri.c ****     if (res < 0)
 351:C:/Users/stapi/OneDrive/Desktop/GD32VW553/GD32VW55X_Wifi_BLE_SDK/GD32VW55x_RELEASE_V1.0.2/MSDK/lwip/libcoap-4.3.4/src\coap_uri.c ****       return -1;
 352:C:/Users/stapi/OneDrive/Desktop/GD32VW553/GD32VW55X_Wifi_BLE_SDK/GD32VW55x_RELEASE_V1.0.2/MSDK/lwip/libcoap-4.3.4/src\coap_uri.c **** 
 353:C:/Users/stapi/OneDrive/Desktop/GD32VW553/GD32VW55X_Wifi_BLE_SDK/GD32VW55x_RELEASE_V1.0.2/MSDK/lwip/libcoap-4.3.4/src\coap_uri.c ****     while (res--) {
 354:C:/Users/stapi/OneDrive/Desktop/GD32VW553/GD32VW55X_Wifi_BLE_SDK/GD32VW55x_RELEASE_V1.0.2/MSDK/lwip/libcoap-4.3.4/src\coap_uri.c ****       coap_insert_optlist(optlist_chain,
 355:C:/Users/stapi/OneDrive/Desktop/GD32VW553/GD32VW55X_Wifi_BLE_SDK/GD32VW55x_RELEASE_V1.0.2/MSDK/lwip/libcoap-4.3.4/src\coap_uri.c ****                           coap_new_optlist(COAP_OPTION_URI_PATH,
 356:C:/Users/stapi/OneDrive/Desktop/GD32VW553/GD32VW55X_Wifi_BLE_SDK/GD32VW55x_RELEASE_V1.0.2/MSDK/lwip/libcoap-4.3.4/src\coap_uri.c ****                                            coap_opt_length(buf),
 357:C:/Users/stapi/OneDrive/Desktop/GD32VW553/GD32VW55X_Wifi_BLE_SDK/GD32VW55x_RELEASE_V1.0.2/MSDK/lwip/libcoap-4.3.4/src\coap_uri.c ****                                            coap_opt_value(buf)));
 358:C:/Users/stapi/OneDrive/Desktop/GD32VW553/GD32VW55X_Wifi_BLE_SDK/GD32VW55x_RELEASE_V1.0.2/MSDK/lwip/libcoap-4.3.4/src\coap_uri.c **** 
 359:C:/Users/stapi/OneDrive/Desktop/GD32VW553/GD32VW55X_Wifi_BLE_SDK/GD32VW55x_RELEASE_V1.0.2/MSDK/lwip/libcoap-4.3.4/src\coap_uri.c ****       buf += coap_opt_size(buf);
 360:C:/Users/stapi/OneDrive/Desktop/GD32VW553/GD32VW55X_Wifi_BLE_SDK/GD32VW55x_RELEASE_V1.0.2/MSDK/lwip/libcoap-4.3.4/src\coap_uri.c ****     }
 361:C:/Users/stapi/OneDrive/Desktop/GD32VW553/GD32VW55X_Wifi_BLE_SDK/GD32VW55x_RELEASE_V1.0.2/MSDK/lwip/libcoap-4.3.4/src\coap_uri.c ****   }
 362:C:/Users/stapi/OneDrive/Desktop/GD32VW553/GD32VW55X_Wifi_BLE_SDK/GD32VW55x_RELEASE_V1.0.2/MSDK/lwip/libcoap-4.3.4/src\coap_uri.c **** 
 363:C:/Users/stapi/OneDrive/Desktop/GD32VW553/GD32VW55X_Wifi_BLE_SDK/GD32VW55x_RELEASE_V1.0.2/MSDK/lwip/libcoap-4.3.4/src\coap_uri.c ****   if (uri->query.length) {
 364:C:/Users/stapi/OneDrive/Desktop/GD32VW553/GD32VW55X_Wifi_BLE_SDK/GD32VW55x_RELEASE_V1.0.2/MSDK/lwip/libcoap-4.3.4/src\coap_uri.c ****     buflen = _buflen;
 365:C:/Users/stapi/OneDrive/Desktop/GD32VW553/GD32VW55X_Wifi_BLE_SDK/GD32VW55x_RELEASE_V1.0.2/MSDK/lwip/libcoap-4.3.4/src\coap_uri.c ****     buf = _buf;
 366:C:/Users/stapi/OneDrive/Desktop/GD32VW553/GD32VW55X_Wifi_BLE_SDK/GD32VW55x_RELEASE_V1.0.2/MSDK/lwip/libcoap-4.3.4/src\coap_uri.c ****     if (uri->query.length > buflen)
 367:C:/Users/stapi/OneDrive/Desktop/GD32VW553/GD32VW55X_Wifi_BLE_SDK/GD32VW55x_RELEASE_V1.0.2/MSDK/lwip/libcoap-4.3.4/src\coap_uri.c ****       coap_log_warn("URI query will be truncated (max buffer %zu)\n",
 368:C:/Users/stapi/OneDrive/Desktop/GD32VW553/GD32VW55X_Wifi_BLE_SDK/GD32VW55x_RELEASE_V1.0.2/MSDK/lwip/libcoap-4.3.4/src\coap_uri.c ****                     buflen);
 369:C:/Users/stapi/OneDrive/Desktop/GD32VW553/GD32VW55X_Wifi_BLE_SDK/GD32VW55x_RELEASE_V1.0.2/MSDK/lwip/libcoap-4.3.4/src\coap_uri.c ****     res = coap_split_query(uri->query.s, uri->query.length, buf, &buflen);
 370:C:/Users/stapi/OneDrive/Desktop/GD32VW553/GD32VW55X_Wifi_BLE_SDK/GD32VW55x_RELEASE_V1.0.2/MSDK/lwip/libcoap-4.3.4/src\coap_uri.c ****     if (res < 0)
 371:C:/Users/stapi/OneDrive/Desktop/GD32VW553/GD32VW55X_Wifi_BLE_SDK/GD32VW55x_RELEASE_V1.0.2/MSDK/lwip/libcoap-4.3.4/src\coap_uri.c ****       return -1;
 372:C:/Users/stapi/OneDrive/Desktop/GD32VW553/GD32VW55X_Wifi_BLE_SDK/GD32VW55x_RELEASE_V1.0.2/MSDK/lwip/libcoap-4.3.4/src\coap_uri.c **** 
 373:C:/Users/stapi/OneDrive/Desktop/GD32VW553/GD32VW55X_Wifi_BLE_SDK/GD32VW55x_RELEASE_V1.0.2/MSDK/lwip/libcoap-4.3.4/src\coap_uri.c ****     while (res--) {
 374:C:/Users/stapi/OneDrive/Desktop/GD32VW553/GD32VW55X_Wifi_BLE_SDK/GD32VW55x_RELEASE_V1.0.2/MSDK/lwip/libcoap-4.3.4/src\coap_uri.c ****       coap_insert_optlist(optlist_chain,
 375:C:/Users/stapi/OneDrive/Desktop/GD32VW553/GD32VW55X_Wifi_BLE_SDK/GD32VW55x_RELEASE_V1.0.2/MSDK/lwip/libcoap-4.3.4/src\coap_uri.c ****                           coap_new_optlist(COAP_OPTION_URI_QUERY,
 376:C:/Users/stapi/OneDrive/Desktop/GD32VW553/GD32VW55X_Wifi_BLE_SDK/GD32VW55x_RELEASE_V1.0.2/MSDK/lwip/libcoap-4.3.4/src\coap_uri.c ****                                            coap_opt_length(buf),
 377:C:/Users/stapi/OneDrive/Desktop/GD32VW553/GD32VW55X_Wifi_BLE_SDK/GD32VW55x_RELEASE_V1.0.2/MSDK/lwip/libcoap-4.3.4/src\coap_uri.c ****                                            coap_opt_value(buf)));
 378:C:/Users/stapi/OneDrive/Desktop/GD32VW553/GD32VW55X_Wifi_BLE_SDK/GD32VW55x_RELEASE_V1.0.2/MSDK/lwip/libcoap-4.3.4/src\coap_uri.c **** 
 379:C:/Users/stapi/OneDrive/Desktop/GD32VW553/GD32VW55X_Wifi_BLE_SDK/GD32VW55x_RELEASE_V1.0.2/MSDK/lwip/libcoap-4.3.4/src\coap_uri.c ****       buf += coap_opt_size(buf);
 380:C:/Users/stapi/OneDrive/Desktop/GD32VW553/GD32VW55X_Wifi_BLE_SDK/GD32VW55x_RELEASE_V1.0.2/MSDK/lwip/libcoap-4.3.4/src\coap_uri.c ****     }
 381:C:/Users/stapi/OneDrive/Desktop/GD32VW553/GD32VW55X_Wifi_BLE_SDK/GD32VW55x_RELEASE_V1.0.2/MSDK/lwip/libcoap-4.3.4/src\coap_uri.c ****   }
 382:C:/Users/stapi/OneDrive/Desktop/GD32VW553/GD32VW55X_Wifi_BLE_SDK/GD32VW55x_RELEASE_V1.0.2/MSDK/lwip/libcoap-4.3.4/src\coap_uri.c ****   return 0;
 383:C:/Users/stapi/OneDrive/Desktop/GD32VW553/GD32VW55X_Wifi_BLE_SDK/GD32VW55x_RELEASE_V1.0.2/MSDK/lwip/libcoap-4.3.4/src\coap_uri.c **** }
 384:C:/Users/stapi/OneDrive/Desktop/GD32VW553/GD32VW55X_Wifi_BLE_SDK/GD32VW55x_RELEASE_V1.0.2/MSDK/lwip/libcoap-4.3.4/src\coap_uri.c **** 
 385:C:/Users/stapi/OneDrive/Desktop/GD32VW553/GD32VW55X_Wifi_BLE_SDK/GD32VW55x_RELEASE_V1.0.2/MSDK/lwip/libcoap-4.3.4/src\coap_uri.c **** int
 386:C:/Users/stapi/OneDrive/Desktop/GD32VW553/GD32VW55X_Wifi_BLE_SDK/GD32VW55x_RELEASE_V1.0.2/MSDK/lwip/libcoap-4.3.4/src\coap_uri.c **** coap_host_is_unix_domain(const coap_str_const_t *host) {
 387:C:/Users/stapi/OneDrive/Desktop/GD32VW553/GD32VW55X_Wifi_BLE_SDK/GD32VW55x_RELEASE_V1.0.2/MSDK/lwip/libcoap-4.3.4/src\coap_uri.c ****   if (host->length >= 3 && host->s[0] == '%' &&
 388:C:/Users/stapi/OneDrive/Desktop/GD32VW553/GD32VW55X_Wifi_BLE_SDK/GD32VW55x_RELEASE_V1.0.2/MSDK/lwip/libcoap-4.3.4/src\coap_uri.c ****       host->s[1] == '2' &&
 389:C:/Users/stapi/OneDrive/Desktop/GD32VW553/GD32VW55X_Wifi_BLE_SDK/GD32VW55x_RELEASE_V1.0.2/MSDK/lwip/libcoap-4.3.4/src\coap_uri.c ****       (host->s[2] == 'F' || host->s[2] == 'f')) {
 390:C:/Users/stapi/OneDrive/Desktop/GD32VW553/GD32VW55X_Wifi_BLE_SDK/GD32VW55x_RELEASE_V1.0.2/MSDK/lwip/libcoap-4.3.4/src\coap_uri.c ****     return 1;
 391:C:/Users/stapi/OneDrive/Desktop/GD32VW553/GD32VW55X_Wifi_BLE_SDK/GD32VW55x_RELEASE_V1.0.2/MSDK/lwip/libcoap-4.3.4/src\coap_uri.c ****   }
 392:C:/Users/stapi/OneDrive/Desktop/GD32VW553/GD32VW55X_Wifi_BLE_SDK/GD32VW55x_RELEASE_V1.0.2/MSDK/lwip/libcoap-4.3.4/src\coap_uri.c ****   if (host->length >= 1 && host->s[0] == '/')
 393:C:/Users/stapi/OneDrive/Desktop/GD32VW553/GD32VW55X_Wifi_BLE_SDK/GD32VW55x_RELEASE_V1.0.2/MSDK/lwip/libcoap-4.3.4/src\coap_uri.c ****     return 1;
 394:C:/Users/stapi/OneDrive/Desktop/GD32VW553/GD32VW55X_Wifi_BLE_SDK/GD32VW55x_RELEASE_V1.0.2/MSDK/lwip/libcoap-4.3.4/src\coap_uri.c ****   return 0;
 395:C:/Users/stapi/OneDrive/Desktop/GD32VW553/GD32VW55X_Wifi_BLE_SDK/GD32VW55x_RELEASE_V1.0.2/MSDK/lwip/libcoap-4.3.4/src\coap_uri.c **** }
 396:C:/Users/stapi/OneDrive/Desktop/GD32VW553/GD32VW55X_Wifi_BLE_SDK/GD32VW55x_RELEASE_V1.0.2/MSDK/lwip/libcoap-4.3.4/src\coap_uri.c **** 
 397:C:/Users/stapi/OneDrive/Desktop/GD32VW553/GD32VW55X_Wifi_BLE_SDK/GD32VW55x_RELEASE_V1.0.2/MSDK/lwip/libcoap-4.3.4/src\coap_uri.c **** /**
 398:C:/Users/stapi/OneDrive/Desktop/GD32VW553/GD32VW55X_Wifi_BLE_SDK/GD32VW55x_RELEASE_V1.0.2/MSDK/lwip/libcoap-4.3.4/src\coap_uri.c ****  * Calculates decimal value from hexadecimal ASCII character given in
 399:C:/Users/stapi/OneDrive/Desktop/GD32VW553/GD32VW55X_Wifi_BLE_SDK/GD32VW55x_RELEASE_V1.0.2/MSDK/lwip/libcoap-4.3.4/src\coap_uri.c ****  * @p c. The caller must ensure that @p c actually represents a valid
 400:C:/Users/stapi/OneDrive/Desktop/GD32VW553/GD32VW55X_Wifi_BLE_SDK/GD32VW55x_RELEASE_V1.0.2/MSDK/lwip/libcoap-4.3.4/src\coap_uri.c ****  * heaxdecimal character, e.g. with isxdigit(3).
 401:C:/Users/stapi/OneDrive/Desktop/GD32VW553/GD32VW55X_Wifi_BLE_SDK/GD32VW55x_RELEASE_V1.0.2/MSDK/lwip/libcoap-4.3.4/src\coap_uri.c ****  *
 402:C:/Users/stapi/OneDrive/Desktop/GD32VW553/GD32VW55X_Wifi_BLE_SDK/GD32VW55x_RELEASE_V1.0.2/MSDK/lwip/libcoap-4.3.4/src\coap_uri.c ****  * @hideinitializer
 403:C:/Users/stapi/OneDrive/Desktop/GD32VW553/GD32VW55X_Wifi_BLE_SDK/GD32VW55x_RELEASE_V1.0.2/MSDK/lwip/libcoap-4.3.4/src\coap_uri.c ****  */
 404:C:/Users/stapi/OneDrive/Desktop/GD32VW553/GD32VW55X_Wifi_BLE_SDK/GD32VW55x_RELEASE_V1.0.2/MSDK/lwip/libcoap-4.3.4/src\coap_uri.c **** #define hexchar_to_dec(c) ((c) & 0x40 ? ((c) & 0x0F) + 9 : ((c) & 0x0F))
 405:C:/Users/stapi/OneDrive/Desktop/GD32VW553/GD32VW55X_Wifi_BLE_SDK/GD32VW55x_RELEASE_V1.0.2/MSDK/lwip/libcoap-4.3.4/src\coap_uri.c **** 
 406:C:/Users/stapi/OneDrive/Desktop/GD32VW553/GD32VW55X_Wifi_BLE_SDK/GD32VW55x_RELEASE_V1.0.2/MSDK/lwip/libcoap-4.3.4/src\coap_uri.c **** /**
 407:C:/Users/stapi/OneDrive/Desktop/GD32VW553/GD32VW55X_Wifi_BLE_SDK/GD32VW55x_RELEASE_V1.0.2/MSDK/lwip/libcoap-4.3.4/src\coap_uri.c ****  * Decodes percent-encoded characters while copying the string @p seg
 408:C:/Users/stapi/OneDrive/Desktop/GD32VW553/GD32VW55X_Wifi_BLE_SDK/GD32VW55x_RELEASE_V1.0.2/MSDK/lwip/libcoap-4.3.4/src\coap_uri.c ****  * of size @p length to @p buf. The caller of this function must
 409:C:/Users/stapi/OneDrive/Desktop/GD32VW553/GD32VW55X_Wifi_BLE_SDK/GD32VW55x_RELEASE_V1.0.2/MSDK/lwip/libcoap-4.3.4/src\coap_uri.c ****  * ensure that the percent-encodings are correct (i.e. the character
 410:C:/Users/stapi/OneDrive/Desktop/GD32VW553/GD32VW55X_Wifi_BLE_SDK/GD32VW55x_RELEASE_V1.0.2/MSDK/lwip/libcoap-4.3.4/src\coap_uri.c ****  * '%' is always followed by two hex digits. and that @p buf provides
 411:C:/Users/stapi/OneDrive/Desktop/GD32VW553/GD32VW55X_Wifi_BLE_SDK/GD32VW55x_RELEASE_V1.0.2/MSDK/lwip/libcoap-4.3.4/src\coap_uri.c ****  * sufficient space to hold the result. This function is supposed to
 412:C:/Users/stapi/OneDrive/Desktop/GD32VW553/GD32VW55X_Wifi_BLE_SDK/GD32VW55x_RELEASE_V1.0.2/MSDK/lwip/libcoap-4.3.4/src\coap_uri.c ****  * be called by make_decoded_option() only.
 413:C:/Users/stapi/OneDrive/Desktop/GD32VW553/GD32VW55X_Wifi_BLE_SDK/GD32VW55x_RELEASE_V1.0.2/MSDK/lwip/libcoap-4.3.4/src\coap_uri.c ****  *
 414:C:/Users/stapi/OneDrive/Desktop/GD32VW553/GD32VW55X_Wifi_BLE_SDK/GD32VW55x_RELEASE_V1.0.2/MSDK/lwip/libcoap-4.3.4/src\coap_uri.c ****  * @param seg     The segment to decode and copy.
 415:C:/Users/stapi/OneDrive/Desktop/GD32VW553/GD32VW55X_Wifi_BLE_SDK/GD32VW55x_RELEASE_V1.0.2/MSDK/lwip/libcoap-4.3.4/src\coap_uri.c ****  * @param length  Length of @p seg.
 416:C:/Users/stapi/OneDrive/Desktop/GD32VW553/GD32VW55X_Wifi_BLE_SDK/GD32VW55x_RELEASE_V1.0.2/MSDK/lwip/libcoap-4.3.4/src\coap_uri.c ****  * @param buf     The result buffer.
 417:C:/Users/stapi/OneDrive/Desktop/GD32VW553/GD32VW55X_Wifi_BLE_SDK/GD32VW55x_RELEASE_V1.0.2/MSDK/lwip/libcoap-4.3.4/src\coap_uri.c ****  */
 418:C:/Users/stapi/OneDrive/Desktop/GD32VW553/GD32VW55X_Wifi_BLE_SDK/GD32VW55x_RELEASE_V1.0.2/MSDK/lwip/libcoap-4.3.4/src\coap_uri.c **** static void
 419:C:/Users/stapi/OneDrive/Desktop/GD32VW553/GD32VW55X_Wifi_BLE_SDK/GD32VW55x_RELEASE_V1.0.2/MSDK/lwip/libcoap-4.3.4/src\coap_uri.c **** decode_segment(const uint8_t *seg, size_t length, unsigned char *buf) {
 420:C:/Users/stapi/OneDrive/Desktop/GD32VW553/GD32VW55X_Wifi_BLE_SDK/GD32VW55x_RELEASE_V1.0.2/MSDK/lwip/libcoap-4.3.4/src\coap_uri.c **** 
 421:C:/Users/stapi/OneDrive/Desktop/GD32VW553/GD32VW55X_Wifi_BLE_SDK/GD32VW55x_RELEASE_V1.0.2/MSDK/lwip/libcoap-4.3.4/src\coap_uri.c ****   while (length--) {
 422:C:/Users/stapi/OneDrive/Desktop/GD32VW553/GD32VW55X_Wifi_BLE_SDK/GD32VW55x_RELEASE_V1.0.2/MSDK/lwip/libcoap-4.3.4/src\coap_uri.c **** 
 423:C:/Users/stapi/OneDrive/Desktop/GD32VW553/GD32VW55X_Wifi_BLE_SDK/GD32VW55x_RELEASE_V1.0.2/MSDK/lwip/libcoap-4.3.4/src\coap_uri.c ****     if (*seg == '%') {
 424:C:/Users/stapi/OneDrive/Desktop/GD32VW553/GD32VW55X_Wifi_BLE_SDK/GD32VW55x_RELEASE_V1.0.2/MSDK/lwip/libcoap-4.3.4/src\coap_uri.c ****       *buf = (hexchar_to_dec(seg[1]) << 4) + hexchar_to_dec(seg[2]);
 425:C:/Users/stapi/OneDrive/Desktop/GD32VW553/GD32VW55X_Wifi_BLE_SDK/GD32VW55x_RELEASE_V1.0.2/MSDK/lwip/libcoap-4.3.4/src\coap_uri.c **** 
 426:C:/Users/stapi/OneDrive/Desktop/GD32VW553/GD32VW55X_Wifi_BLE_SDK/GD32VW55x_RELEASE_V1.0.2/MSDK/lwip/libcoap-4.3.4/src\coap_uri.c ****       seg += 2;
 427:C:/Users/stapi/OneDrive/Desktop/GD32VW553/GD32VW55X_Wifi_BLE_SDK/GD32VW55x_RELEASE_V1.0.2/MSDK/lwip/libcoap-4.3.4/src\coap_uri.c ****       length -= 2;
 428:C:/Users/stapi/OneDrive/Desktop/GD32VW553/GD32VW55X_Wifi_BLE_SDK/GD32VW55x_RELEASE_V1.0.2/MSDK/lwip/libcoap-4.3.4/src\coap_uri.c ****     } else {
 429:C:/Users/stapi/OneDrive/Desktop/GD32VW553/GD32VW55X_Wifi_BLE_SDK/GD32VW55x_RELEASE_V1.0.2/MSDK/lwip/libcoap-4.3.4/src\coap_uri.c ****       *buf = *seg;
 430:C:/Users/stapi/OneDrive/Desktop/GD32VW553/GD32VW55X_Wifi_BLE_SDK/GD32VW55x_RELEASE_V1.0.2/MSDK/lwip/libcoap-4.3.4/src\coap_uri.c ****     }
 431:C:/Users/stapi/OneDrive/Desktop/GD32VW553/GD32VW55X_Wifi_BLE_SDK/GD32VW55x_RELEASE_V1.0.2/MSDK/lwip/libcoap-4.3.4/src\coap_uri.c **** 
 432:C:/Users/stapi/OneDrive/Desktop/GD32VW553/GD32VW55X_Wifi_BLE_SDK/GD32VW55x_RELEASE_V1.0.2/MSDK/lwip/libcoap-4.3.4/src\coap_uri.c ****     ++buf;
 433:C:/Users/stapi/OneDrive/Desktop/GD32VW553/GD32VW55X_Wifi_BLE_SDK/GD32VW55x_RELEASE_V1.0.2/MSDK/lwip/libcoap-4.3.4/src\coap_uri.c ****     ++seg;
 434:C:/Users/stapi/OneDrive/Desktop/GD32VW553/GD32VW55X_Wifi_BLE_SDK/GD32VW55x_RELEASE_V1.0.2/MSDK/lwip/libcoap-4.3.4/src\coap_uri.c ****   }
 435:C:/Users/stapi/OneDrive/Desktop/GD32VW553/GD32VW55X_Wifi_BLE_SDK/GD32VW55x_RELEASE_V1.0.2/MSDK/lwip/libcoap-4.3.4/src\coap_uri.c **** }
 436:C:/Users/stapi/OneDrive/Desktop/GD32VW553/GD32VW55X_Wifi_BLE_SDK/GD32VW55x_RELEASE_V1.0.2/MSDK/lwip/libcoap-4.3.4/src\coap_uri.c **** 
 437:C:/Users/stapi/OneDrive/Desktop/GD32VW553/GD32VW55X_Wifi_BLE_SDK/GD32VW55x_RELEASE_V1.0.2/MSDK/lwip/libcoap-4.3.4/src\coap_uri.c **** /**
 438:C:/Users/stapi/OneDrive/Desktop/GD32VW553/GD32VW55X_Wifi_BLE_SDK/GD32VW55x_RELEASE_V1.0.2/MSDK/lwip/libcoap-4.3.4/src\coap_uri.c ****  * Runs through the given path (or query) segment and checks if
 439:C:/Users/stapi/OneDrive/Desktop/GD32VW553/GD32VW55X_Wifi_BLE_SDK/GD32VW55x_RELEASE_V1.0.2/MSDK/lwip/libcoap-4.3.4/src\coap_uri.c ****  * percent-encodings are correct. This function returns @c 0 on success
 440:C:/Users/stapi/OneDrive/Desktop/GD32VW553/GD32VW55X_Wifi_BLE_SDK/GD32VW55x_RELEASE_V1.0.2/MSDK/lwip/libcoap-4.3.4/src\coap_uri.c ****  * and @c -1 on error.
 441:C:/Users/stapi/OneDrive/Desktop/GD32VW553/GD32VW55X_Wifi_BLE_SDK/GD32VW55x_RELEASE_V1.0.2/MSDK/lwip/libcoap-4.3.4/src\coap_uri.c ****  */
 442:C:/Users/stapi/OneDrive/Desktop/GD32VW553/GD32VW55X_Wifi_BLE_SDK/GD32VW55x_RELEASE_V1.0.2/MSDK/lwip/libcoap-4.3.4/src\coap_uri.c **** static int
 443:C:/Users/stapi/OneDrive/Desktop/GD32VW553/GD32VW55X_Wifi_BLE_SDK/GD32VW55x_RELEASE_V1.0.2/MSDK/lwip/libcoap-4.3.4/src\coap_uri.c **** check_segment(const uint8_t *s, size_t length, size_t *segment_size) {
 444:C:/Users/stapi/OneDrive/Desktop/GD32VW553/GD32VW55X_Wifi_BLE_SDK/GD32VW55x_RELEASE_V1.0.2/MSDK/lwip/libcoap-4.3.4/src\coap_uri.c ****   size_t n = 0;
 445:C:/Users/stapi/OneDrive/Desktop/GD32VW553/GD32VW55X_Wifi_BLE_SDK/GD32VW55x_RELEASE_V1.0.2/MSDK/lwip/libcoap-4.3.4/src\coap_uri.c **** 
 446:C:/Users/stapi/OneDrive/Desktop/GD32VW553/GD32VW55X_Wifi_BLE_SDK/GD32VW55x_RELEASE_V1.0.2/MSDK/lwip/libcoap-4.3.4/src\coap_uri.c ****   while (length) {
 447:C:/Users/stapi/OneDrive/Desktop/GD32VW553/GD32VW55X_Wifi_BLE_SDK/GD32VW55x_RELEASE_V1.0.2/MSDK/lwip/libcoap-4.3.4/src\coap_uri.c ****     if (*s == '%') {
 448:C:/Users/stapi/OneDrive/Desktop/GD32VW553/GD32VW55X_Wifi_BLE_SDK/GD32VW55x_RELEASE_V1.0.2/MSDK/lwip/libcoap-4.3.4/src\coap_uri.c ****       if (length < 2 || !(isxdigit(s[1]) && isxdigit(s[2])))
 449:C:/Users/stapi/OneDrive/Desktop/GD32VW553/GD32VW55X_Wifi_BLE_SDK/GD32VW55x_RELEASE_V1.0.2/MSDK/lwip/libcoap-4.3.4/src\coap_uri.c ****         return -1;
 450:C:/Users/stapi/OneDrive/Desktop/GD32VW553/GD32VW55X_Wifi_BLE_SDK/GD32VW55x_RELEASE_V1.0.2/MSDK/lwip/libcoap-4.3.4/src\coap_uri.c **** 
 451:C:/Users/stapi/OneDrive/Desktop/GD32VW553/GD32VW55X_Wifi_BLE_SDK/GD32VW55x_RELEASE_V1.0.2/MSDK/lwip/libcoap-4.3.4/src\coap_uri.c ****       s += 2;
 452:C:/Users/stapi/OneDrive/Desktop/GD32VW553/GD32VW55X_Wifi_BLE_SDK/GD32VW55x_RELEASE_V1.0.2/MSDK/lwip/libcoap-4.3.4/src\coap_uri.c ****       length -= 2;
 453:C:/Users/stapi/OneDrive/Desktop/GD32VW553/GD32VW55X_Wifi_BLE_SDK/GD32VW55x_RELEASE_V1.0.2/MSDK/lwip/libcoap-4.3.4/src\coap_uri.c ****     }
 454:C:/Users/stapi/OneDrive/Desktop/GD32VW553/GD32VW55X_Wifi_BLE_SDK/GD32VW55x_RELEASE_V1.0.2/MSDK/lwip/libcoap-4.3.4/src\coap_uri.c **** 
 455:C:/Users/stapi/OneDrive/Desktop/GD32VW553/GD32VW55X_Wifi_BLE_SDK/GD32VW55x_RELEASE_V1.0.2/MSDK/lwip/libcoap-4.3.4/src\coap_uri.c ****     ++s;
 456:C:/Users/stapi/OneDrive/Desktop/GD32VW553/GD32VW55X_Wifi_BLE_SDK/GD32VW55x_RELEASE_V1.0.2/MSDK/lwip/libcoap-4.3.4/src\coap_uri.c ****     ++n;
 457:C:/Users/stapi/OneDrive/Desktop/GD32VW553/GD32VW55X_Wifi_BLE_SDK/GD32VW55x_RELEASE_V1.0.2/MSDK/lwip/libcoap-4.3.4/src\coap_uri.c ****     --length;
 458:C:/Users/stapi/OneDrive/Desktop/GD32VW553/GD32VW55X_Wifi_BLE_SDK/GD32VW55x_RELEASE_V1.0.2/MSDK/lwip/libcoap-4.3.4/src\coap_uri.c ****   }
 459:C:/Users/stapi/OneDrive/Desktop/GD32VW553/GD32VW55X_Wifi_BLE_SDK/GD32VW55x_RELEASE_V1.0.2/MSDK/lwip/libcoap-4.3.4/src\coap_uri.c **** 
 460:C:/Users/stapi/OneDrive/Desktop/GD32VW553/GD32VW55X_Wifi_BLE_SDK/GD32VW55x_RELEASE_V1.0.2/MSDK/lwip/libcoap-4.3.4/src\coap_uri.c ****   *segment_size = n;
 461:C:/Users/stapi/OneDrive/Desktop/GD32VW553/GD32VW55X_Wifi_BLE_SDK/GD32VW55x_RELEASE_V1.0.2/MSDK/lwip/libcoap-4.3.4/src\coap_uri.c **** 
 462:C:/Users/stapi/OneDrive/Desktop/GD32VW553/GD32VW55X_Wifi_BLE_SDK/GD32VW55x_RELEASE_V1.0.2/MSDK/lwip/libcoap-4.3.4/src\coap_uri.c ****   return 0;
 463:C:/Users/stapi/OneDrive/Desktop/GD32VW553/GD32VW55X_Wifi_BLE_SDK/GD32VW55x_RELEASE_V1.0.2/MSDK/lwip/libcoap-4.3.4/src\coap_uri.c **** }
 464:C:/Users/stapi/OneDrive/Desktop/GD32VW553/GD32VW55X_Wifi_BLE_SDK/GD32VW55x_RELEASE_V1.0.2/MSDK/lwip/libcoap-4.3.4/src\coap_uri.c **** 
 465:C:/Users/stapi/OneDrive/Desktop/GD32VW553/GD32VW55X_Wifi_BLE_SDK/GD32VW55x_RELEASE_V1.0.2/MSDK/lwip/libcoap-4.3.4/src\coap_uri.c **** /**
 466:C:/Users/stapi/OneDrive/Desktop/GD32VW553/GD32VW55X_Wifi_BLE_SDK/GD32VW55x_RELEASE_V1.0.2/MSDK/lwip/libcoap-4.3.4/src\coap_uri.c ****  * Writes a coap option from given string @p s to @p buf. @p s should
 467:C:/Users/stapi/OneDrive/Desktop/GD32VW553/GD32VW55X_Wifi_BLE_SDK/GD32VW55x_RELEASE_V1.0.2/MSDK/lwip/libcoap-4.3.4/src\coap_uri.c ****  * point to a (percent-encoded) path or query segment of a coap_uri_t
 468:C:/Users/stapi/OneDrive/Desktop/GD32VW553/GD32VW55X_Wifi_BLE_SDK/GD32VW55x_RELEASE_V1.0.2/MSDK/lwip/libcoap-4.3.4/src\coap_uri.c ****  * object.  The created option will have type @c 0, and the length
 469:C:/Users/stapi/OneDrive/Desktop/GD32VW553/GD32VW55X_Wifi_BLE_SDK/GD32VW55x_RELEASE_V1.0.2/MSDK/lwip/libcoap-4.3.4/src\coap_uri.c ****  * parameter will be set according to the size of the decoded string.
 470:C:/Users/stapi/OneDrive/Desktop/GD32VW553/GD32VW55X_Wifi_BLE_SDK/GD32VW55x_RELEASE_V1.0.2/MSDK/lwip/libcoap-4.3.4/src\coap_uri.c ****  * On success, this function returns @c 0 and sets @p optionsize to the option's
 471:C:/Users/stapi/OneDrive/Desktop/GD32VW553/GD32VW55X_Wifi_BLE_SDK/GD32VW55x_RELEASE_V1.0.2/MSDK/lwip/libcoap-4.3.4/src\coap_uri.c ****  * size. On error the function returns a value less than zero. This function
 472:C:/Users/stapi/OneDrive/Desktop/GD32VW553/GD32VW55X_Wifi_BLE_SDK/GD32VW55x_RELEASE_V1.0.2/MSDK/lwip/libcoap-4.3.4/src\coap_uri.c ****  * must be called from coap_split_path_impl() only.
 473:C:/Users/stapi/OneDrive/Desktop/GD32VW553/GD32VW55X_Wifi_BLE_SDK/GD32VW55x_RELEASE_V1.0.2/MSDK/lwip/libcoap-4.3.4/src\coap_uri.c ****  *
 474:C:/Users/stapi/OneDrive/Desktop/GD32VW553/GD32VW55X_Wifi_BLE_SDK/GD32VW55x_RELEASE_V1.0.2/MSDK/lwip/libcoap-4.3.4/src\coap_uri.c ****  * @param s           The string to decode.
 475:C:/Users/stapi/OneDrive/Desktop/GD32VW553/GD32VW55X_Wifi_BLE_SDK/GD32VW55x_RELEASE_V1.0.2/MSDK/lwip/libcoap-4.3.4/src\coap_uri.c ****  * @param length      The size of the percent-encoded string @p s.
 476:C:/Users/stapi/OneDrive/Desktop/GD32VW553/GD32VW55X_Wifi_BLE_SDK/GD32VW55x_RELEASE_V1.0.2/MSDK/lwip/libcoap-4.3.4/src\coap_uri.c ****  * @param buf         The buffer to store the new coap option.
 477:C:/Users/stapi/OneDrive/Desktop/GD32VW553/GD32VW55X_Wifi_BLE_SDK/GD32VW55x_RELEASE_V1.0.2/MSDK/lwip/libcoap-4.3.4/src\coap_uri.c ****  * @param buflen      The maximum size of @p buf.
 478:C:/Users/stapi/OneDrive/Desktop/GD32VW553/GD32VW55X_Wifi_BLE_SDK/GD32VW55x_RELEASE_V1.0.2/MSDK/lwip/libcoap-4.3.4/src\coap_uri.c ****  * @param optionsize  The option's size.
 479:C:/Users/stapi/OneDrive/Desktop/GD32VW553/GD32VW55X_Wifi_BLE_SDK/GD32VW55x_RELEASE_V1.0.2/MSDK/lwip/libcoap-4.3.4/src\coap_uri.c ****  *
 480:C:/Users/stapi/OneDrive/Desktop/GD32VW553/GD32VW55X_Wifi_BLE_SDK/GD32VW55x_RELEASE_V1.0.2/MSDK/lwip/libcoap-4.3.4/src\coap_uri.c ****  * @return @c 0 on success and @c -1 on error.
 481:C:/Users/stapi/OneDrive/Desktop/GD32VW553/GD32VW55X_Wifi_BLE_SDK/GD32VW55x_RELEASE_V1.0.2/MSDK/lwip/libcoap-4.3.4/src\coap_uri.c ****  *
 482:C:/Users/stapi/OneDrive/Desktop/GD32VW553/GD32VW55X_Wifi_BLE_SDK/GD32VW55x_RELEASE_V1.0.2/MSDK/lwip/libcoap-4.3.4/src\coap_uri.c ****  * @bug This function does not split segments that are bigger than 270
 483:C:/Users/stapi/OneDrive/Desktop/GD32VW553/GD32VW55X_Wifi_BLE_SDK/GD32VW55x_RELEASE_V1.0.2/MSDK/lwip/libcoap-4.3.4/src\coap_uri.c ****  * bytes.
 484:C:/Users/stapi/OneDrive/Desktop/GD32VW553/GD32VW55X_Wifi_BLE_SDK/GD32VW55x_RELEASE_V1.0.2/MSDK/lwip/libcoap-4.3.4/src\coap_uri.c ****  */
 485:C:/Users/stapi/OneDrive/Desktop/GD32VW553/GD32VW55X_Wifi_BLE_SDK/GD32VW55x_RELEASE_V1.0.2/MSDK/lwip/libcoap-4.3.4/src\coap_uri.c **** static int
 486:C:/Users/stapi/OneDrive/Desktop/GD32VW553/GD32VW55X_Wifi_BLE_SDK/GD32VW55x_RELEASE_V1.0.2/MSDK/lwip/libcoap-4.3.4/src\coap_uri.c **** make_decoded_option(const uint8_t *s, size_t length,
 487:C:/Users/stapi/OneDrive/Desktop/GD32VW553/GD32VW55X_Wifi_BLE_SDK/GD32VW55x_RELEASE_V1.0.2/MSDK/lwip/libcoap-4.3.4/src\coap_uri.c ****                     unsigned char *buf, size_t buflen, size_t *optionsize) {
 488:C:/Users/stapi/OneDrive/Desktop/GD32VW553/GD32VW55X_Wifi_BLE_SDK/GD32VW55x_RELEASE_V1.0.2/MSDK/lwip/libcoap-4.3.4/src\coap_uri.c ****   int res;
 489:C:/Users/stapi/OneDrive/Desktop/GD32VW553/GD32VW55X_Wifi_BLE_SDK/GD32VW55x_RELEASE_V1.0.2/MSDK/lwip/libcoap-4.3.4/src\coap_uri.c ****   size_t segmentlen;
 490:C:/Users/stapi/OneDrive/Desktop/GD32VW553/GD32VW55X_Wifi_BLE_SDK/GD32VW55x_RELEASE_V1.0.2/MSDK/lwip/libcoap-4.3.4/src\coap_uri.c ****   size_t written;
 491:C:/Users/stapi/OneDrive/Desktop/GD32VW553/GD32VW55X_Wifi_BLE_SDK/GD32VW55x_RELEASE_V1.0.2/MSDK/lwip/libcoap-4.3.4/src\coap_uri.c **** 
 492:C:/Users/stapi/OneDrive/Desktop/GD32VW553/GD32VW55X_Wifi_BLE_SDK/GD32VW55x_RELEASE_V1.0.2/MSDK/lwip/libcoap-4.3.4/src\coap_uri.c ****   if (!buflen) {
 493:C:/Users/stapi/OneDrive/Desktop/GD32VW553/GD32VW55X_Wifi_BLE_SDK/GD32VW55x_RELEASE_V1.0.2/MSDK/lwip/libcoap-4.3.4/src\coap_uri.c ****     coap_log_debug("make_decoded_option(): buflen is 0!\n");
 494:C:/Users/stapi/OneDrive/Desktop/GD32VW553/GD32VW55X_Wifi_BLE_SDK/GD32VW55x_RELEASE_V1.0.2/MSDK/lwip/libcoap-4.3.4/src\coap_uri.c ****     return -1;
 495:C:/Users/stapi/OneDrive/Desktop/GD32VW553/GD32VW55X_Wifi_BLE_SDK/GD32VW55x_RELEASE_V1.0.2/MSDK/lwip/libcoap-4.3.4/src\coap_uri.c ****   }
 496:C:/Users/stapi/OneDrive/Desktop/GD32VW553/GD32VW55X_Wifi_BLE_SDK/GD32VW55x_RELEASE_V1.0.2/MSDK/lwip/libcoap-4.3.4/src\coap_uri.c **** 
 497:C:/Users/stapi/OneDrive/Desktop/GD32VW553/GD32VW55X_Wifi_BLE_SDK/GD32VW55x_RELEASE_V1.0.2/MSDK/lwip/libcoap-4.3.4/src\coap_uri.c ****   res = check_segment(s, length, &segmentlen);
 498:C:/Users/stapi/OneDrive/Desktop/GD32VW553/GD32VW55X_Wifi_BLE_SDK/GD32VW55x_RELEASE_V1.0.2/MSDK/lwip/libcoap-4.3.4/src\coap_uri.c ****   if (res < 0)
 499:C:/Users/stapi/OneDrive/Desktop/GD32VW553/GD32VW55X_Wifi_BLE_SDK/GD32VW55x_RELEASE_V1.0.2/MSDK/lwip/libcoap-4.3.4/src\coap_uri.c ****     return -1;
 500:C:/Users/stapi/OneDrive/Desktop/GD32VW553/GD32VW55X_Wifi_BLE_SDK/GD32VW55x_RELEASE_V1.0.2/MSDK/lwip/libcoap-4.3.4/src\coap_uri.c **** 
 501:C:/Users/stapi/OneDrive/Desktop/GD32VW553/GD32VW55X_Wifi_BLE_SDK/GD32VW55x_RELEASE_V1.0.2/MSDK/lwip/libcoap-4.3.4/src\coap_uri.c ****   /* write option header using delta 0 and length res */
 502:C:/Users/stapi/OneDrive/Desktop/GD32VW553/GD32VW55X_Wifi_BLE_SDK/GD32VW55x_RELEASE_V1.0.2/MSDK/lwip/libcoap-4.3.4/src\coap_uri.c ****   written = coap_opt_setheader(buf, buflen, 0, segmentlen);
 503:C:/Users/stapi/OneDrive/Desktop/GD32VW553/GD32VW55X_Wifi_BLE_SDK/GD32VW55x_RELEASE_V1.0.2/MSDK/lwip/libcoap-4.3.4/src\coap_uri.c **** 
 504:C:/Users/stapi/OneDrive/Desktop/GD32VW553/GD32VW55X_Wifi_BLE_SDK/GD32VW55x_RELEASE_V1.0.2/MSDK/lwip/libcoap-4.3.4/src\coap_uri.c ****   assert(written <= buflen);
 505:C:/Users/stapi/OneDrive/Desktop/GD32VW553/GD32VW55X_Wifi_BLE_SDK/GD32VW55x_RELEASE_V1.0.2/MSDK/lwip/libcoap-4.3.4/src\coap_uri.c **** 
 506:C:/Users/stapi/OneDrive/Desktop/GD32VW553/GD32VW55X_Wifi_BLE_SDK/GD32VW55x_RELEASE_V1.0.2/MSDK/lwip/libcoap-4.3.4/src\coap_uri.c ****   if (!written)                        /* encoding error */
 507:C:/Users/stapi/OneDrive/Desktop/GD32VW553/GD32VW55X_Wifi_BLE_SDK/GD32VW55x_RELEASE_V1.0.2/MSDK/lwip/libcoap-4.3.4/src\coap_uri.c ****     return -1;
 508:C:/Users/stapi/OneDrive/Desktop/GD32VW553/GD32VW55X_Wifi_BLE_SDK/GD32VW55x_RELEASE_V1.0.2/MSDK/lwip/libcoap-4.3.4/src\coap_uri.c **** 
 509:C:/Users/stapi/OneDrive/Desktop/GD32VW553/GD32VW55X_Wifi_BLE_SDK/GD32VW55x_RELEASE_V1.0.2/MSDK/lwip/libcoap-4.3.4/src\coap_uri.c ****   buf += written;                /* advance past option type/length */
 510:C:/Users/stapi/OneDrive/Desktop/GD32VW553/GD32VW55X_Wifi_BLE_SDK/GD32VW55x_RELEASE_V1.0.2/MSDK/lwip/libcoap-4.3.4/src\coap_uri.c ****   buflen -= written;
 511:C:/Users/stapi/OneDrive/Desktop/GD32VW553/GD32VW55X_Wifi_BLE_SDK/GD32VW55x_RELEASE_V1.0.2/MSDK/lwip/libcoap-4.3.4/src\coap_uri.c **** 
 512:C:/Users/stapi/OneDrive/Desktop/GD32VW553/GD32VW55X_Wifi_BLE_SDK/GD32VW55x_RELEASE_V1.0.2/MSDK/lwip/libcoap-4.3.4/src\coap_uri.c ****   if (buflen < segmentlen) {
 513:C:/Users/stapi/OneDrive/Desktop/GD32VW553/GD32VW55X_Wifi_BLE_SDK/GD32VW55x_RELEASE_V1.0.2/MSDK/lwip/libcoap-4.3.4/src\coap_uri.c ****     coap_log_debug("buffer too small for option\n");
 514:C:/Users/stapi/OneDrive/Desktop/GD32VW553/GD32VW55X_Wifi_BLE_SDK/GD32VW55x_RELEASE_V1.0.2/MSDK/lwip/libcoap-4.3.4/src\coap_uri.c ****     return -1;
 515:C:/Users/stapi/OneDrive/Desktop/GD32VW553/GD32VW55X_Wifi_BLE_SDK/GD32VW55x_RELEASE_V1.0.2/MSDK/lwip/libcoap-4.3.4/src\coap_uri.c ****   }
 516:C:/Users/stapi/OneDrive/Desktop/GD32VW553/GD32VW55X_Wifi_BLE_SDK/GD32VW55x_RELEASE_V1.0.2/MSDK/lwip/libcoap-4.3.4/src\coap_uri.c **** 
 517:C:/Users/stapi/OneDrive/Desktop/GD32VW553/GD32VW55X_Wifi_BLE_SDK/GD32VW55x_RELEASE_V1.0.2/MSDK/lwip/libcoap-4.3.4/src\coap_uri.c ****   decode_segment(s, length, buf);
 518:C:/Users/stapi/OneDrive/Desktop/GD32VW553/GD32VW55X_Wifi_BLE_SDK/GD32VW55x_RELEASE_V1.0.2/MSDK/lwip/libcoap-4.3.4/src\coap_uri.c **** 
 519:C:/Users/stapi/OneDrive/Desktop/GD32VW553/GD32VW55X_Wifi_BLE_SDK/GD32VW55x_RELEASE_V1.0.2/MSDK/lwip/libcoap-4.3.4/src\coap_uri.c ****   *optionsize = written + segmentlen;
 520:C:/Users/stapi/OneDrive/Desktop/GD32VW553/GD32VW55X_Wifi_BLE_SDK/GD32VW55x_RELEASE_V1.0.2/MSDK/lwip/libcoap-4.3.4/src\coap_uri.c **** 
 521:C:/Users/stapi/OneDrive/Desktop/GD32VW553/GD32VW55X_Wifi_BLE_SDK/GD32VW55x_RELEASE_V1.0.2/MSDK/lwip/libcoap-4.3.4/src\coap_uri.c ****   return 0;
 522:C:/Users/stapi/OneDrive/Desktop/GD32VW553/GD32VW55X_Wifi_BLE_SDK/GD32VW55x_RELEASE_V1.0.2/MSDK/lwip/libcoap-4.3.4/src\coap_uri.c **** }
 523:C:/Users/stapi/OneDrive/Desktop/GD32VW553/GD32VW55X_Wifi_BLE_SDK/GD32VW55x_RELEASE_V1.0.2/MSDK/lwip/libcoap-4.3.4/src\coap_uri.c **** 
 524:C:/Users/stapi/OneDrive/Desktop/GD32VW553/GD32VW55X_Wifi_BLE_SDK/GD32VW55x_RELEASE_V1.0.2/MSDK/lwip/libcoap-4.3.4/src\coap_uri.c **** 
 525:C:/Users/stapi/OneDrive/Desktop/GD32VW553/GD32VW55X_Wifi_BLE_SDK/GD32VW55x_RELEASE_V1.0.2/MSDK/lwip/libcoap-4.3.4/src\coap_uri.c **** #ifndef min
 526:C:/Users/stapi/OneDrive/Desktop/GD32VW553/GD32VW55X_Wifi_BLE_SDK/GD32VW55x_RELEASE_V1.0.2/MSDK/lwip/libcoap-4.3.4/src\coap_uri.c **** #define min(a,b) ((a) < (b) ? (a) : (b))
 527:C:/Users/stapi/OneDrive/Desktop/GD32VW553/GD32VW55X_Wifi_BLE_SDK/GD32VW55x_RELEASE_V1.0.2/MSDK/lwip/libcoap-4.3.4/src\coap_uri.c **** #endif
 528:C:/Users/stapi/OneDrive/Desktop/GD32VW553/GD32VW55X_Wifi_BLE_SDK/GD32VW55x_RELEASE_V1.0.2/MSDK/lwip/libcoap-4.3.4/src\coap_uri.c **** 
 529:C:/Users/stapi/OneDrive/Desktop/GD32VW553/GD32VW55X_Wifi_BLE_SDK/GD32VW55x_RELEASE_V1.0.2/MSDK/lwip/libcoap-4.3.4/src\coap_uri.c **** typedef void (*segment_handler_t)(const uint8_t *, size_t, void *);
 530:C:/Users/stapi/OneDrive/Desktop/GD32VW553/GD32VW55X_Wifi_BLE_SDK/GD32VW55x_RELEASE_V1.0.2/MSDK/lwip/libcoap-4.3.4/src\coap_uri.c **** 
 531:C:/Users/stapi/OneDrive/Desktop/GD32VW553/GD32VW55X_Wifi_BLE_SDK/GD32VW55x_RELEASE_V1.0.2/MSDK/lwip/libcoap-4.3.4/src\coap_uri.c **** /**
 532:C:/Users/stapi/OneDrive/Desktop/GD32VW553/GD32VW55X_Wifi_BLE_SDK/GD32VW55x_RELEASE_V1.0.2/MSDK/lwip/libcoap-4.3.4/src\coap_uri.c ****  * Checks if path segment @p s consists of one or two dots.
 533:C:/Users/stapi/OneDrive/Desktop/GD32VW553/GD32VW55X_Wifi_BLE_SDK/GD32VW55x_RELEASE_V1.0.2/MSDK/lwip/libcoap-4.3.4/src\coap_uri.c ****  */
 534:C:/Users/stapi/OneDrive/Desktop/GD32VW553/GD32VW55X_Wifi_BLE_SDK/GD32VW55x_RELEASE_V1.0.2/MSDK/lwip/libcoap-4.3.4/src\coap_uri.c **** COAP_STATIC_INLINE int
 535:C:/Users/stapi/OneDrive/Desktop/GD32VW553/GD32VW55X_Wifi_BLE_SDK/GD32VW55x_RELEASE_V1.0.2/MSDK/lwip/libcoap-4.3.4/src\coap_uri.c **** dots(const uint8_t *s, size_t len) {
 536:C:/Users/stapi/OneDrive/Desktop/GD32VW553/GD32VW55X_Wifi_BLE_SDK/GD32VW55x_RELEASE_V1.0.2/MSDK/lwip/libcoap-4.3.4/src\coap_uri.c ****   return len && *s == '.' && (len == 1 || (len == 2 && *(s+1) == '.'));
 537:C:/Users/stapi/OneDrive/Desktop/GD32VW553/GD32VW55X_Wifi_BLE_SDK/GD32VW55x_RELEASE_V1.0.2/MSDK/lwip/libcoap-4.3.4/src\coap_uri.c **** }
 538:C:/Users/stapi/OneDrive/Desktop/GD32VW553/GD32VW55X_Wifi_BLE_SDK/GD32VW55x_RELEASE_V1.0.2/MSDK/lwip/libcoap-4.3.4/src\coap_uri.c **** 
 539:C:/Users/stapi/OneDrive/Desktop/GD32VW553/GD32VW55X_Wifi_BLE_SDK/GD32VW55x_RELEASE_V1.0.2/MSDK/lwip/libcoap-4.3.4/src\coap_uri.c **** /**
 540:C:/Users/stapi/OneDrive/Desktop/GD32VW553/GD32VW55X_Wifi_BLE_SDK/GD32VW55x_RELEASE_V1.0.2/MSDK/lwip/libcoap-4.3.4/src\coap_uri.c ****  * Splits the given string into segments. You should call one of the
 541:C:/Users/stapi/OneDrive/Desktop/GD32VW553/GD32VW55X_Wifi_BLE_SDK/GD32VW55x_RELEASE_V1.0.2/MSDK/lwip/libcoap-4.3.4/src\coap_uri.c ****  * macros coap_split_path() or coap_split_query() instead.
 542:C:/Users/stapi/OneDrive/Desktop/GD32VW553/GD32VW55X_Wifi_BLE_SDK/GD32VW55x_RELEASE_V1.0.2/MSDK/lwip/libcoap-4.3.4/src\coap_uri.c ****  *
 543:C:/Users/stapi/OneDrive/Desktop/GD32VW553/GD32VW55X_Wifi_BLE_SDK/GD32VW55x_RELEASE_V1.0.2/MSDK/lwip/libcoap-4.3.4/src\coap_uri.c ****  * @param s      The URI string to be tokenized.
 544:C:/Users/stapi/OneDrive/Desktop/GD32VW553/GD32VW55X_Wifi_BLE_SDK/GD32VW55x_RELEASE_V1.0.2/MSDK/lwip/libcoap-4.3.4/src\coap_uri.c ****  * @param length The length of @p s.
 545:C:/Users/stapi/OneDrive/Desktop/GD32VW553/GD32VW55X_Wifi_BLE_SDK/GD32VW55x_RELEASE_V1.0.2/MSDK/lwip/libcoap-4.3.4/src\coap_uri.c ****  * @param h      A handler that is called with every token.
 546:C:/Users/stapi/OneDrive/Desktop/GD32VW553/GD32VW55X_Wifi_BLE_SDK/GD32VW55x_RELEASE_V1.0.2/MSDK/lwip/libcoap-4.3.4/src\coap_uri.c ****  * @param data   Opaque data that is passed to @p h when called.
 547:C:/Users/stapi/OneDrive/Desktop/GD32VW553/GD32VW55X_Wifi_BLE_SDK/GD32VW55x_RELEASE_V1.0.2/MSDK/lwip/libcoap-4.3.4/src\coap_uri.c ****  *
 548:C:/Users/stapi/OneDrive/Desktop/GD32VW553/GD32VW55X_Wifi_BLE_SDK/GD32VW55x_RELEASE_V1.0.2/MSDK/lwip/libcoap-4.3.4/src\coap_uri.c ****  * @return The number of characters that have been parsed from @p s.
 549:C:/Users/stapi/OneDrive/Desktop/GD32VW553/GD32VW55X_Wifi_BLE_SDK/GD32VW55x_RELEASE_V1.0.2/MSDK/lwip/libcoap-4.3.4/src\coap_uri.c ****  */
 550:C:/Users/stapi/OneDrive/Desktop/GD32VW553/GD32VW55X_Wifi_BLE_SDK/GD32VW55x_RELEASE_V1.0.2/MSDK/lwip/libcoap-4.3.4/src\coap_uri.c **** static size_t
 551:C:/Users/stapi/OneDrive/Desktop/GD32VW553/GD32VW55X_Wifi_BLE_SDK/GD32VW55x_RELEASE_V1.0.2/MSDK/lwip/libcoap-4.3.4/src\coap_uri.c **** coap_split_path_impl(const uint8_t *s, size_t length,
 552:C:/Users/stapi/OneDrive/Desktop/GD32VW553/GD32VW55X_Wifi_BLE_SDK/GD32VW55x_RELEASE_V1.0.2/MSDK/lwip/libcoap-4.3.4/src\coap_uri.c ****                      segment_handler_t h, void *data) {
 553:C:/Users/stapi/OneDrive/Desktop/GD32VW553/GD32VW55X_Wifi_BLE_SDK/GD32VW55x_RELEASE_V1.0.2/MSDK/lwip/libcoap-4.3.4/src\coap_uri.c **** 
 554:C:/Users/stapi/OneDrive/Desktop/GD32VW553/GD32VW55X_Wifi_BLE_SDK/GD32VW55x_RELEASE_V1.0.2/MSDK/lwip/libcoap-4.3.4/src\coap_uri.c ****   const uint8_t *p, *q;
 555:C:/Users/stapi/OneDrive/Desktop/GD32VW553/GD32VW55X_Wifi_BLE_SDK/GD32VW55x_RELEASE_V1.0.2/MSDK/lwip/libcoap-4.3.4/src\coap_uri.c **** 
 556:C:/Users/stapi/OneDrive/Desktop/GD32VW553/GD32VW55X_Wifi_BLE_SDK/GD32VW55x_RELEASE_V1.0.2/MSDK/lwip/libcoap-4.3.4/src\coap_uri.c ****   p = q = s;
 557:C:/Users/stapi/OneDrive/Desktop/GD32VW553/GD32VW55X_Wifi_BLE_SDK/GD32VW55x_RELEASE_V1.0.2/MSDK/lwip/libcoap-4.3.4/src\coap_uri.c ****   while (length > 0 && !strnchr((const uint8_t *)"?#", 2, *q)) {
 558:C:/Users/stapi/OneDrive/Desktop/GD32VW553/GD32VW55X_Wifi_BLE_SDK/GD32VW55x_RELEASE_V1.0.2/MSDK/lwip/libcoap-4.3.4/src\coap_uri.c ****     if (*q == '/') {                /* start new segment */
 559:C:/Users/stapi/OneDrive/Desktop/GD32VW553/GD32VW55X_Wifi_BLE_SDK/GD32VW55x_RELEASE_V1.0.2/MSDK/lwip/libcoap-4.3.4/src\coap_uri.c **** 
 560:C:/Users/stapi/OneDrive/Desktop/GD32VW553/GD32VW55X_Wifi_BLE_SDK/GD32VW55x_RELEASE_V1.0.2/MSDK/lwip/libcoap-4.3.4/src\coap_uri.c ****       if (!dots(p, q - p)) {
 561:C:/Users/stapi/OneDrive/Desktop/GD32VW553/GD32VW55X_Wifi_BLE_SDK/GD32VW55x_RELEASE_V1.0.2/MSDK/lwip/libcoap-4.3.4/src\coap_uri.c ****         h(p, q - p, data);
 562:C:/Users/stapi/OneDrive/Desktop/GD32VW553/GD32VW55X_Wifi_BLE_SDK/GD32VW55x_RELEASE_V1.0.2/MSDK/lwip/libcoap-4.3.4/src\coap_uri.c ****       }
 563:C:/Users/stapi/OneDrive/Desktop/GD32VW553/GD32VW55X_Wifi_BLE_SDK/GD32VW55x_RELEASE_V1.0.2/MSDK/lwip/libcoap-4.3.4/src\coap_uri.c **** 
 564:C:/Users/stapi/OneDrive/Desktop/GD32VW553/GD32VW55X_Wifi_BLE_SDK/GD32VW55x_RELEASE_V1.0.2/MSDK/lwip/libcoap-4.3.4/src\coap_uri.c ****       p = q + 1;
 565:C:/Users/stapi/OneDrive/Desktop/GD32VW553/GD32VW55X_Wifi_BLE_SDK/GD32VW55x_RELEASE_V1.0.2/MSDK/lwip/libcoap-4.3.4/src\coap_uri.c ****     }
 566:C:/Users/stapi/OneDrive/Desktop/GD32VW553/GD32VW55X_Wifi_BLE_SDK/GD32VW55x_RELEASE_V1.0.2/MSDK/lwip/libcoap-4.3.4/src\coap_uri.c **** 
 567:C:/Users/stapi/OneDrive/Desktop/GD32VW553/GD32VW55X_Wifi_BLE_SDK/GD32VW55x_RELEASE_V1.0.2/MSDK/lwip/libcoap-4.3.4/src\coap_uri.c ****     q++;
 568:C:/Users/stapi/OneDrive/Desktop/GD32VW553/GD32VW55X_Wifi_BLE_SDK/GD32VW55x_RELEASE_V1.0.2/MSDK/lwip/libcoap-4.3.4/src\coap_uri.c ****     length--;
 569:C:/Users/stapi/OneDrive/Desktop/GD32VW553/GD32VW55X_Wifi_BLE_SDK/GD32VW55x_RELEASE_V1.0.2/MSDK/lwip/libcoap-4.3.4/src\coap_uri.c ****   }
 570:C:/Users/stapi/OneDrive/Desktop/GD32VW553/GD32VW55X_Wifi_BLE_SDK/GD32VW55x_RELEASE_V1.0.2/MSDK/lwip/libcoap-4.3.4/src\coap_uri.c **** 
 571:C:/Users/stapi/OneDrive/Desktop/GD32VW553/GD32VW55X_Wifi_BLE_SDK/GD32VW55x_RELEASE_V1.0.2/MSDK/lwip/libcoap-4.3.4/src\coap_uri.c ****   /* write last segment */
 572:C:/Users/stapi/OneDrive/Desktop/GD32VW553/GD32VW55X_Wifi_BLE_SDK/GD32VW55x_RELEASE_V1.0.2/MSDK/lwip/libcoap-4.3.4/src\coap_uri.c ****   if (!dots(p, q - p)) {
 573:C:/Users/stapi/OneDrive/Desktop/GD32VW553/GD32VW55X_Wifi_BLE_SDK/GD32VW55x_RELEASE_V1.0.2/MSDK/lwip/libcoap-4.3.4/src\coap_uri.c ****     h(p, q - p, data);
 574:C:/Users/stapi/OneDrive/Desktop/GD32VW553/GD32VW55X_Wifi_BLE_SDK/GD32VW55x_RELEASE_V1.0.2/MSDK/lwip/libcoap-4.3.4/src\coap_uri.c ****   }
 575:C:/Users/stapi/OneDrive/Desktop/GD32VW553/GD32VW55X_Wifi_BLE_SDK/GD32VW55x_RELEASE_V1.0.2/MSDK/lwip/libcoap-4.3.4/src\coap_uri.c **** 
 576:C:/Users/stapi/OneDrive/Desktop/GD32VW553/GD32VW55X_Wifi_BLE_SDK/GD32VW55x_RELEASE_V1.0.2/MSDK/lwip/libcoap-4.3.4/src\coap_uri.c ****   return q - s;
 577:C:/Users/stapi/OneDrive/Desktop/GD32VW553/GD32VW55X_Wifi_BLE_SDK/GD32VW55x_RELEASE_V1.0.2/MSDK/lwip/libcoap-4.3.4/src\coap_uri.c **** }
 578:C:/Users/stapi/OneDrive/Desktop/GD32VW553/GD32VW55X_Wifi_BLE_SDK/GD32VW55x_RELEASE_V1.0.2/MSDK/lwip/libcoap-4.3.4/src\coap_uri.c **** 
 579:C:/Users/stapi/OneDrive/Desktop/GD32VW553/GD32VW55X_Wifi_BLE_SDK/GD32VW55x_RELEASE_V1.0.2/MSDK/lwip/libcoap-4.3.4/src\coap_uri.c **** struct cnt_str {
 580:C:/Users/stapi/OneDrive/Desktop/GD32VW553/GD32VW55X_Wifi_BLE_SDK/GD32VW55x_RELEASE_V1.0.2/MSDK/lwip/libcoap-4.3.4/src\coap_uri.c ****   coap_string_t buf;
 581:C:/Users/stapi/OneDrive/Desktop/GD32VW553/GD32VW55X_Wifi_BLE_SDK/GD32VW55x_RELEASE_V1.0.2/MSDK/lwip/libcoap-4.3.4/src\coap_uri.c ****   int n;
 582:C:/Users/stapi/OneDrive/Desktop/GD32VW553/GD32VW55X_Wifi_BLE_SDK/GD32VW55x_RELEASE_V1.0.2/MSDK/lwip/libcoap-4.3.4/src\coap_uri.c **** };
 583:C:/Users/stapi/OneDrive/Desktop/GD32VW553/GD32VW55X_Wifi_BLE_SDK/GD32VW55x_RELEASE_V1.0.2/MSDK/lwip/libcoap-4.3.4/src\coap_uri.c **** 
 584:C:/Users/stapi/OneDrive/Desktop/GD32VW553/GD32VW55X_Wifi_BLE_SDK/GD32VW55x_RELEASE_V1.0.2/MSDK/lwip/libcoap-4.3.4/src\coap_uri.c **** static void
 585:C:/Users/stapi/OneDrive/Desktop/GD32VW553/GD32VW55X_Wifi_BLE_SDK/GD32VW55x_RELEASE_V1.0.2/MSDK/lwip/libcoap-4.3.4/src\coap_uri.c **** write_option(const uint8_t *s, size_t len, void *data) {
 735              		.loc 1 585 56 is_stmt 1
 736              		.cfi_startproc
 737              	.LVL82:
 738 0000 17030000 		call	t0,__riscv_save_6
 738      E7020300 
 739              		.cfi_offset 21, -28
 740              		.cfi_offset 20, -24
 741              		.cfi_offset 19, -20
 742              		.cfi_offset 18, -16
 743              		.cfi_offset 9, -12
 744              		.cfi_offset 8, -8
 745              		.cfi_offset 1, -4
 746              		.cfi_def_cfa_offset 32
 586:C:/Users/stapi/OneDrive/Desktop/GD32VW553/GD32VW55X_Wifi_BLE_SDK/GD32VW55x_RELEASE_V1.0.2/MSDK/lwip/libcoap-4.3.4/src\coap_uri.c ****   struct cnt_str *state = (struct cnt_str *)data;
 747              		.loc 1 586 3
 748              	.LVL83:
 587:C:/Users/stapi/OneDrive/Desktop/GD32VW553/GD32VW55X_Wifi_BLE_SDK/GD32VW55x_RELEASE_V1.0.2/MSDK/lwip/libcoap-4.3.4/src\coap_uri.c ****   int res;
 749              		.loc 1 587 3
 588:C:/Users/stapi/OneDrive/Desktop/GD32VW553/GD32VW55X_Wifi_BLE_SDK/GD32VW55x_RELEASE_V1.0.2/MSDK/lwip/libcoap-4.3.4/src\coap_uri.c ****   size_t optionsize;
 750              		.loc 1 588 3
 589:C:/Users/stapi/OneDrive/Desktop/GD32VW553/GD32VW55X_Wifi_BLE_SDK/GD32VW55x_RELEASE_V1.0.2/MSDK/lwip/libcoap-4.3.4/src\coap_uri.c ****   assert(state);
 751              		.loc 1 589 3
 752 0008 1DE2     		bne	a2,zero,.L89
 753              		.loc 1 589 3 is_stmt 0 discriminator 1
 754 000a B7060000 		lui	a3,%hi(.LC8)
 755 000e 37060000 		lui	a2,%hi(.LANCHOR1)
 756              	.LVL84:
 757 0012 93860600 		addi	a3,a3,%lo(.LC8)
 758 0016 13060600 		addi	a2,a2,%lo(.LANCHOR1)
 759 001a 9305D024 		li	a1,589
 760              	.LVL85:
 761              	.L120:
 762              	.LBB10:
 763              	.LBB11:
 504:C:/Users/stapi/OneDrive/Desktop/GD32VW553/GD32VW55X_Wifi_BLE_SDK/GD32VW55x_RELEASE_V1.0.2/MSDK/lwip/libcoap-4.3.4/src\coap_uri.c **** 
 764              		.loc 1 504 3
 765 001e 37050000 		lui	a0,%hi(.LC9)
 766 0022 13050500 		addi	a0,a0,%lo(.LC9)
 767 0026 97000000 		call	__assert_func
 767      E7800000 
 768              	.LVL86:
 769              	.L89:
 770              	.LBE11:
 771              	.LBE10:
 590:C:/Users/stapi/OneDrive/Desktop/GD32VW553/GD32VW55X_Wifi_BLE_SDK/GD32VW55x_RELEASE_V1.0.2/MSDK/lwip/libcoap-4.3.4/src\coap_uri.c **** 
 591:C:/Users/stapi/OneDrive/Desktop/GD32VW553/GD32VW55X_Wifi_BLE_SDK/GD32VW55x_RELEASE_V1.0.2/MSDK/lwip/libcoap-4.3.4/src\coap_uri.c ****   res = make_decoded_option(s, len, state->buf.s, state->buf.length, &optionsize);
 772              		.loc 1 591 9
 773 002e 032A0600 		lw	s4,0(a2)
 774              		.loc 1 591 47
 775 0032 83294600 		lw	s3,4(a2)
 776 0036 3284     		mv	s0,a2
 777              		.loc 1 591 3 is_stmt 1
 778              	.LVL87:
 779              	.LBB28:
 780              	.LBB24:
 488:C:/Users/stapi/OneDrive/Desktop/GD32VW553/GD32VW55X_Wifi_BLE_SDK/GD32VW55x_RELEASE_V1.0.2/MSDK/lwip/libcoap-4.3.4/src\coap_uri.c ****   size_t segmentlen;
 781              		.loc 1 488 3
 489:C:/Users/stapi/OneDrive/Desktop/GD32VW553/GD32VW55X_Wifi_BLE_SDK/GD32VW55x_RELEASE_V1.0.2/MSDK/lwip/libcoap-4.3.4/src\coap_uri.c ****   size_t written;
 782              		.loc 1 489 3
 490:C:/Users/stapi/OneDrive/Desktop/GD32VW553/GD32VW55X_Wifi_BLE_SDK/GD32VW55x_RELEASE_V1.0.2/MSDK/lwip/libcoap-4.3.4/src\coap_uri.c **** 
 783              		.loc 1 490 3
 492:C:/Users/stapi/OneDrive/Desktop/GD32VW553/GD32VW55X_Wifi_BLE_SDK/GD32VW55x_RELEASE_V1.0.2/MSDK/lwip/libcoap-4.3.4/src\coap_uri.c ****     coap_log_debug("make_decoded_option(): buflen is 0!\n");
 784              		.loc 1 492 3
 492:C:/Users/stapi/OneDrive/Desktop/GD32VW553/GD32VW55X_Wifi_BLE_SDK/GD32VW55x_RELEASE_V1.0.2/MSDK/lwip/libcoap-4.3.4/src\coap_uri.c ****     coap_log_debug("make_decoded_option(): buflen is 0!\n");
 785              		.loc 1 492 6 is_stmt 0
 786 0038 63170A08 		bne	s4,zero,.L104
 787              	.LVL88:
 493:C:/Users/stapi/OneDrive/Desktop/GD32VW553/GD32VW55X_Wifi_BLE_SDK/GD32VW55x_RELEASE_V1.0.2/MSDK/lwip/libcoap-4.3.4/src\coap_uri.c ****     return -1;
 788              		.loc 1 493 5 is_stmt 1
 493:C:/Users/stapi/OneDrive/Desktop/GD32VW553/GD32VW55X_Wifi_BLE_SDK/GD32VW55x_RELEASE_V1.0.2/MSDK/lwip/libcoap-4.3.4/src\coap_uri.c ****     return -1;
 789              		.loc 1 493 5
 790 003c 97000000 		call	coap_get_log_level
 790      E7800000 
 791              	.LVL89:
 792 0044 9947     		li	a5,6
 793 0046 63DBA700 		ble	a0,a5,.L88
 493:C:/Users/stapi/OneDrive/Desktop/GD32VW553/GD32VW55X_Wifi_BLE_SDK/GD32VW55x_RELEASE_V1.0.2/MSDK/lwip/libcoap-4.3.4/src\coap_uri.c ****     return -1;
 794              		.loc 1 493 5
 795 004a B7050000 		lui	a1,%hi(.LC10)
 796 004e 93850500 		addi	a1,a1,%lo(.LC10)
 797              	.LVL90:
 798              	.L119:
 513:C:/Users/stapi/OneDrive/Desktop/GD32VW553/GD32VW55X_Wifi_BLE_SDK/GD32VW55x_RELEASE_V1.0.2/MSDK/lwip/libcoap-4.3.4/src\coap_uri.c ****     return -1;
 799              		.loc 1 513 5 is_stmt 0
 800 0052 1D45     		li	a0,7
 801 0054 97000000 		call	coap_log_impl
 801      E7800000 
 802              	.LVL91:
 803              	.LBE24:
 804              	.LBE28:
 592:C:/Users/stapi/OneDrive/Desktop/GD32VW553/GD32VW55X_Wifi_BLE_SDK/GD32VW55x_RELEASE_V1.0.2/MSDK/lwip/libcoap-4.3.4/src\coap_uri.c ****   if (res == 0) {
 805              		.loc 1 592 3 is_stmt 1
 806              	.L88:
 593:C:/Users/stapi/OneDrive/Desktop/GD32VW553/GD32VW55X_Wifi_BLE_SDK/GD32VW55x_RELEASE_V1.0.2/MSDK/lwip/libcoap-4.3.4/src\coap_uri.c ****     state->buf.s += optionsize;
 594:C:/Users/stapi/OneDrive/Desktop/GD32VW553/GD32VW55X_Wifi_BLE_SDK/GD32VW55x_RELEASE_V1.0.2/MSDK/lwip/libcoap-4.3.4/src\coap_uri.c ****     state->buf.length -= optionsize;
 595:C:/Users/stapi/OneDrive/Desktop/GD32VW553/GD32VW55X_Wifi_BLE_SDK/GD32VW55x_RELEASE_V1.0.2/MSDK/lwip/libcoap-4.3.4/src\coap_uri.c ****     state->n++;
 596:C:/Users/stapi/OneDrive/Desktop/GD32VW553/GD32VW55X_Wifi_BLE_SDK/GD32VW55x_RELEASE_V1.0.2/MSDK/lwip/libcoap-4.3.4/src\coap_uri.c ****   }
 597:C:/Users/stapi/OneDrive/Desktop/GD32VW553/GD32VW55X_Wifi_BLE_SDK/GD32VW55x_RELEASE_V1.0.2/MSDK/lwip/libcoap-4.3.4/src\coap_uri.c **** }
 807              		.loc 1 597 1 is_stmt 0
 808 005c 17030000 		tail	__riscv_restore_6
 808      67000300 
 809              		.cfi_remember_state
 810              		.cfi_restore 21
 811              		.cfi_restore 20
 812              		.cfi_restore 19
 813              		.cfi_restore 18
 814              		.cfi_restore 9
 815              		.cfi_restore 8
 816              		.cfi_restore 1
 817              		.cfi_def_cfa_offset 0
 818              	.LVL92:
 819              	.L95:
 820              		.cfi_restore_state
 821              	.LBB29:
 822              	.LBB25:
 823              	.LBB12:
 824              	.LBB13:
 447:C:/Users/stapi/OneDrive/Desktop/GD32VW553/GD32VW55X_Wifi_BLE_SDK/GD32VW55x_RELEASE_V1.0.2/MSDK/lwip/libcoap-4.3.4/src\coap_uri.c ****       if (length < 2 || !(isxdigit(s[1]) && isxdigit(s[2])))
 825              		.loc 1 447 5 is_stmt 1
 447:C:/Users/stapi/OneDrive/Desktop/GD32VW553/GD32VW55X_Wifi_BLE_SDK/GD32VW55x_RELEASE_V1.0.2/MSDK/lwip/libcoap-4.3.4/src\coap_uri.c ****       if (length < 2 || !(isxdigit(s[1]) && isxdigit(s[2])))
 826              		.loc 1 447 8 is_stmt 0
 827 0064 03C60700 		lbu	a2,0(a5)
 828 0068 6316B602 		bne	a2,a1,.L93
 448:C:/Users/stapi/OneDrive/Desktop/GD32VW553/GD32VW55X_Wifi_BLE_SDK/GD32VW55x_RELEASE_V1.0.2/MSDK/lwip/libcoap-4.3.4/src\coap_uri.c ****         return -1;
 829              		.loc 1 448 7 is_stmt 1
 448:C:/Users/stapi/OneDrive/Desktop/GD32VW553/GD32VW55X_Wifi_BLE_SDK/GD32VW55x_RELEASE_V1.0.2/MSDK/lwip/libcoap-4.3.4/src\coap_uri.c ****         return -1;
 830              		.loc 1 448 10 is_stmt 0
 831 006c E308A7FE 		beq	a4,a0,.L88
 448:C:/Users/stapi/OneDrive/Desktop/GD32VW553/GD32VW55X_Wifi_BLE_SDK/GD32VW55x_RELEASE_V1.0.2/MSDK/lwip/libcoap-4.3.4/src\coap_uri.c ****         return -1;
 832              		.loc 1 448 27
 833 0070 03C61700 		lbu	a2,1(a5)
 834 0074 3696     		add	a2,a2,a3
 448:C:/Users/stapi/OneDrive/Desktop/GD32VW553/GD32VW55X_Wifi_BLE_SDK/GD32VW55x_RELEASE_V1.0.2/MSDK/lwip/libcoap-4.3.4/src\coap_uri.c ****         return -1;
 835              		.loc 1 448 22
 836 0076 03460600 		lbu	a2,0(a2)
 837 007a 13764604 		andi	a2,a2,68
 838 007e 79DE     		beq	a2,zero,.L88
 448:C:/Users/stapi/OneDrive/Desktop/GD32VW553/GD32VW55X_Wifi_BLE_SDK/GD32VW55x_RELEASE_V1.0.2/MSDK/lwip/libcoap-4.3.4/src\coap_uri.c ****         return -1;
 839              		.loc 1 448 45
 840 0080 03C62700 		lbu	a2,2(a5)
 841 0084 3696     		add	a2,a2,a3
 448:C:/Users/stapi/OneDrive/Desktop/GD32VW553/GD32VW55X_Wifi_BLE_SDK/GD32VW55x_RELEASE_V1.0.2/MSDK/lwip/libcoap-4.3.4/src\coap_uri.c ****         return -1;
 842              		.loc 1 448 25
 843 0086 03460600 		lbu	a2,0(a2)
 844 008a 13764604 		andi	a2,a2,68
 845 008e 79D6     		beq	a2,zero,.L88
 451:C:/Users/stapi/OneDrive/Desktop/GD32VW553/GD32VW55X_Wifi_BLE_SDK/GD32VW55x_RELEASE_V1.0.2/MSDK/lwip/libcoap-4.3.4/src\coap_uri.c ****       length -= 2;
 846              		.loc 1 451 7 is_stmt 1
 451:C:/Users/stapi/OneDrive/Desktop/GD32VW553/GD32VW55X_Wifi_BLE_SDK/GD32VW55x_RELEASE_V1.0.2/MSDK/lwip/libcoap-4.3.4/src\coap_uri.c ****       length -= 2;
 847              		.loc 1 451 9 is_stmt 0
 848 0090 8907     		addi	a5,a5,2
 849              	.LVL93:
 452:C:/Users/stapi/OneDrive/Desktop/GD32VW553/GD32VW55X_Wifi_BLE_SDK/GD32VW55x_RELEASE_V1.0.2/MSDK/lwip/libcoap-4.3.4/src\coap_uri.c ****     }
 850              		.loc 1 452 7 is_stmt 1
 452:C:/Users/stapi/OneDrive/Desktop/GD32VW553/GD32VW55X_Wifi_BLE_SDK/GD32VW55x_RELEASE_V1.0.2/MSDK/lwip/libcoap-4.3.4/src\coap_uri.c ****     }
 851              		.loc 1 452 14 is_stmt 0
 852 0092 7917     		addi	a4,a4,-2
 853              	.LVL94:
 854              	.L93:
 455:C:/Users/stapi/OneDrive/Desktop/GD32VW553/GD32VW55X_Wifi_BLE_SDK/GD32VW55x_RELEASE_V1.0.2/MSDK/lwip/libcoap-4.3.4/src\coap_uri.c ****     ++n;
 855              		.loc 1 455 5 is_stmt 1
 856 0094 8507     		addi	a5,a5,1
 857              	.LVL95:
 456:C:/Users/stapi/OneDrive/Desktop/GD32VW553/GD32VW55X_Wifi_BLE_SDK/GD32VW55x_RELEASE_V1.0.2/MSDK/lwip/libcoap-4.3.4/src\coap_uri.c ****     --length;
 858              		.loc 1 456 5
 859 0096 850A     		addi	s5,s5,1
 860              	.LVL96:
 457:C:/Users/stapi/OneDrive/Desktop/GD32VW553/GD32VW55X_Wifi_BLE_SDK/GD32VW55x_RELEASE_V1.0.2/MSDK/lwip/libcoap-4.3.4/src\coap_uri.c ****   }
 861              		.loc 1 457 5
 862 0098 7D17     		addi	a4,a4,-1
 863              	.LVL97:
 864              	.L90:
 446:C:/Users/stapi/OneDrive/Desktop/GD32VW553/GD32VW55X_Wifi_BLE_SDK/GD32VW55x_RELEASE_V1.0.2/MSDK/lwip/libcoap-4.3.4/src\coap_uri.c ****     if (*s == '%') {
 865              		.loc 1 446 9
 866 009a 69F7     		bne	a4,zero,.L95
 460:C:/Users/stapi/OneDrive/Desktop/GD32VW553/GD32VW55X_Wifi_BLE_SDK/GD32VW55x_RELEASE_V1.0.2/MSDK/lwip/libcoap-4.3.4/src\coap_uri.c **** 
 867              		.loc 1 460 3
 868              	.LVL98:
 462:C:/Users/stapi/OneDrive/Desktop/GD32VW553/GD32VW55X_Wifi_BLE_SDK/GD32VW55x_RELEASE_V1.0.2/MSDK/lwip/libcoap-4.3.4/src\coap_uri.c **** }
 869              		.loc 1 462 3
 870              	.LBE13:
 871              	.LBE12:
 498:C:/Users/stapi/OneDrive/Desktop/GD32VW553/GD32VW55X_Wifi_BLE_SDK/GD32VW55x_RELEASE_V1.0.2/MSDK/lwip/libcoap-4.3.4/src\coap_uri.c ****     return -1;
 872              		.loc 1 498 3
 502:C:/Users/stapi/OneDrive/Desktop/GD32VW553/GD32VW55X_Wifi_BLE_SDK/GD32VW55x_RELEASE_V1.0.2/MSDK/lwip/libcoap-4.3.4/src\coap_uri.c **** 
 873              		.loc 1 502 3
 502:C:/Users/stapi/OneDrive/Desktop/GD32VW553/GD32VW55X_Wifi_BLE_SDK/GD32VW55x_RELEASE_V1.0.2/MSDK/lwip/libcoap-4.3.4/src\coap_uri.c **** 
 874              		.loc 1 502 13 is_stmt 0
 875 009c D686     		mv	a3,s5
 876 009e 0146     		li	a2,0
 877 00a0 D285     		mv	a1,s4
 878 00a2 4E85     		mv	a0,s3
 879 00a4 97000000 		call	coap_opt_setheader
 879      E7800000 
 880              	.LVL99:
 504:C:/Users/stapi/OneDrive/Desktop/GD32VW553/GD32VW55X_Wifi_BLE_SDK/GD32VW55x_RELEASE_V1.0.2/MSDK/lwip/libcoap-4.3.4/src\coap_uri.c **** 
 881              		.loc 1 504 3 is_stmt 1
 882 00ac 637AAA02 		bgeu	s4,a0,.L96
 883 00b0 B7060000 		lui	a3,%hi(.LC11)
 884 00b4 37060000 		lui	a2,%hi(.LANCHOR2)
 885 00b8 93860600 		addi	a3,a3,%lo(.LC11)
 886 00bc 13060600 		addi	a2,a2,%lo(.LANCHOR2)
 887 00c0 9305801F 		li	a1,504
 888 00c4 A9BF     		j	.L120
 889              	.LVL100:
 890              	.L104:
 891              	.LBB16:
 892              	.LBB14:
 448:C:/Users/stapi/OneDrive/Desktop/GD32VW553/GD32VW55X_Wifi_BLE_SDK/GD32VW55x_RELEASE_V1.0.2/MSDK/lwip/libcoap-4.3.4/src\coap_uri.c ****         return -1;
 893              		.loc 1 448 27 is_stmt 0
 894 00c6 B7060000 		lui	a3,%hi(_ctype_+1)
 895 00ca AA84     		mv	s1,a0
 896 00cc 2E89     		mv	s2,a1
 897              	.LBE14:
 898              	.LBE16:
 899 00ce 2E87     		mv	a4,a1
 900 00d0 AA87     		mv	a5,a0
 901              	.LBB17:
 902              	.LBB15:
 444:C:/Users/stapi/OneDrive/Desktop/GD32VW553/GD32VW55X_Wifi_BLE_SDK/GD32VW55x_RELEASE_V1.0.2/MSDK/lwip/libcoap-4.3.4/src\coap_uri.c **** 
 903              		.loc 1 444 10
 904 00d2 814A     		li	s5,0
 447:C:/Users/stapi/OneDrive/Desktop/GD32VW553/GD32VW55X_Wifi_BLE_SDK/GD32VW55x_RELEASE_V1.0.2/MSDK/lwip/libcoap-4.3.4/src\coap_uri.c ****       if (length < 2 || !(isxdigit(s[1]) && isxdigit(s[2])))
 905              		.loc 1 447 8
 906 00d4 93055002 		li	a1,37
 907              	.LVL101:
 448:C:/Users/stapi/OneDrive/Desktop/GD32VW553/GD32VW55X_Wifi_BLE_SDK/GD32VW55x_RELEASE_V1.0.2/MSDK/lwip/libcoap-4.3.4/src\coap_uri.c ****         return -1;
 908              		.loc 1 448 10
 909 00d8 0545     		li	a0,1
 910              	.LVL102:
 448:C:/Users/stapi/OneDrive/Desktop/GD32VW553/GD32VW55X_Wifi_BLE_SDK/GD32VW55x_RELEASE_V1.0.2/MSDK/lwip/libcoap-4.3.4/src\coap_uri.c ****         return -1;
 911              		.loc 1 448 27
 912 00da 93861600 		addi	a3,a3,%lo(_ctype_+1)
 913 00de 75BF     		j	.L90
 914              	.LVL103:
 915              	.L96:
 916              	.LBE15:
 917              	.LBE17:
 506:C:/Users/stapi/OneDrive/Desktop/GD32VW553/GD32VW55X_Wifi_BLE_SDK/GD32VW55x_RELEASE_V1.0.2/MSDK/lwip/libcoap-4.3.4/src\coap_uri.c ****     return -1;
 918              		.loc 1 506 3 is_stmt 1
 506:C:/Users/stapi/OneDrive/Desktop/GD32VW553/GD32VW55X_Wifi_BLE_SDK/GD32VW55x_RELEASE_V1.0.2/MSDK/lwip/libcoap-4.3.4/src\coap_uri.c ****     return -1;
 919              		.loc 1 506 6 is_stmt 0
 920 00e0 35DD     		beq	a0,zero,.L88
 509:C:/Users/stapi/OneDrive/Desktop/GD32VW553/GD32VW55X_Wifi_BLE_SDK/GD32VW55x_RELEASE_V1.0.2/MSDK/lwip/libcoap-4.3.4/src\coap_uri.c ****   buflen -= written;
 921              		.loc 1 509 3 is_stmt 1
 510:C:/Users/stapi/OneDrive/Desktop/GD32VW553/GD32VW55X_Wifi_BLE_SDK/GD32VW55x_RELEASE_V1.0.2/MSDK/lwip/libcoap-4.3.4/src\coap_uri.c **** 
 922              		.loc 1 510 10 is_stmt 0
 923 00e2 330AAA40 		sub	s4,s4,a0
 924              	.LVL104:
 509:C:/Users/stapi/OneDrive/Desktop/GD32VW553/GD32VW55X_Wifi_BLE_SDK/GD32VW55x_RELEASE_V1.0.2/MSDK/lwip/libcoap-4.3.4/src\coap_uri.c ****   buflen -= written;
 925              		.loc 1 509 7
 926 00e6 3387A900 		add	a4,s3,a0
 927              	.LVL105:
 510:C:/Users/stapi/OneDrive/Desktop/GD32VW553/GD32VW55X_Wifi_BLE_SDK/GD32VW55x_RELEASE_V1.0.2/MSDK/lwip/libcoap-4.3.4/src\coap_uri.c **** 
 928              		.loc 1 510 3 is_stmt 1
 512:C:/Users/stapi/OneDrive/Desktop/GD32VW553/GD32VW55X_Wifi_BLE_SDK/GD32VW55x_RELEASE_V1.0.2/MSDK/lwip/libcoap-4.3.4/src\coap_uri.c ****     coap_log_debug("buffer too small for option\n");
 929              		.loc 1 512 3
 930              	.LBB18:
 931              	.LBB19:
 423:C:/Users/stapi/OneDrive/Desktop/GD32VW553/GD32VW55X_Wifi_BLE_SDK/GD32VW55x_RELEASE_V1.0.2/MSDK/lwip/libcoap-4.3.4/src\coap_uri.c ****       *buf = (hexchar_to_dec(seg[1]) << 4) + hexchar_to_dec(seg[2]);
 932              		.loc 1 423 8 is_stmt 0
 933 00ea 93055002 		li	a1,37
 934              	.LBE19:
 935              	.LBE18:
 512:C:/Users/stapi/OneDrive/Desktop/GD32VW553/GD32VW55X_Wifi_BLE_SDK/GD32VW55x_RELEASE_V1.0.2/MSDK/lwip/libcoap-4.3.4/src\coap_uri.c ****     coap_log_debug("buffer too small for option\n");
 936              		.loc 1 512 6
 937 00ee 637B5A05 		bgeu	s4,s5,.L97
 513:C:/Users/stapi/OneDrive/Desktop/GD32VW553/GD32VW55X_Wifi_BLE_SDK/GD32VW55x_RELEASE_V1.0.2/MSDK/lwip/libcoap-4.3.4/src\coap_uri.c ****     return -1;
 938              		.loc 1 513 5 is_stmt 1
 513:C:/Users/stapi/OneDrive/Desktop/GD32VW553/GD32VW55X_Wifi_BLE_SDK/GD32VW55x_RELEASE_V1.0.2/MSDK/lwip/libcoap-4.3.4/src\coap_uri.c ****     return -1;
 939              		.loc 1 513 5
 940 00f2 97000000 		call	coap_get_log_level
 940      E7800000 
 941              	.LVL106:
 942 00fa 9947     		li	a5,6
 943 00fc E3D0A7F6 		ble	a0,a5,.L88
 513:C:/Users/stapi/OneDrive/Desktop/GD32VW553/GD32VW55X_Wifi_BLE_SDK/GD32VW55x_RELEASE_V1.0.2/MSDK/lwip/libcoap-4.3.4/src\coap_uri.c ****     return -1;
 944              		.loc 1 513 5
 945 0100 B7050000 		lui	a1,%hi(.LC12)
 946 0104 93850500 		addi	a1,a1,%lo(.LC12)
 947 0108 A9B7     		j	.L119
 948              	.LVL107:
 949              	.L103:
 950              	.LBB22:
 951              	.LBB20:
 423:C:/Users/stapi/OneDrive/Desktop/GD32VW553/GD32VW55X_Wifi_BLE_SDK/GD32VW55x_RELEASE_V1.0.2/MSDK/lwip/libcoap-4.3.4/src\coap_uri.c ****       *buf = (hexchar_to_dec(seg[1]) << 4) + hexchar_to_dec(seg[2]);
 952              		.loc 1 423 5
 423:C:/Users/stapi/OneDrive/Desktop/GD32VW553/GD32VW55X_Wifi_BLE_SDK/GD32VW55x_RELEASE_V1.0.2/MSDK/lwip/libcoap-4.3.4/src\coap_uri.c ****       *buf = (hexchar_to_dec(seg[1]) << 4) + hexchar_to_dec(seg[2]);
 953              		.loc 1 423 9 is_stmt 0
 954 010a 83C70400 		lbu	a5,0(s1)
 423:C:/Users/stapi/OneDrive/Desktop/GD32VW553/GD32VW55X_Wifi_BLE_SDK/GD32VW55x_RELEASE_V1.0.2/MSDK/lwip/libcoap-4.3.4/src\coap_uri.c ****       *buf = (hexchar_to_dec(seg[1]) << 4) + hexchar_to_dec(seg[2]);
 955              		.loc 1 423 8
 956 010e 6399B704 		bne	a5,a1,.L98
 424:C:/Users/stapi/OneDrive/Desktop/GD32VW553/GD32VW55X_Wifi_BLE_SDK/GD32VW55x_RELEASE_V1.0.2/MSDK/lwip/libcoap-4.3.4/src\coap_uri.c **** 
 957              		.loc 1 424 7 is_stmt 1
 424:C:/Users/stapi/OneDrive/Desktop/GD32VW553/GD32VW55X_Wifi_BLE_SDK/GD32VW55x_RELEASE_V1.0.2/MSDK/lwip/libcoap-4.3.4/src\coap_uri.c **** 
 958              		.loc 1 424 15 is_stmt 0
 959 0112 83C71400 		lbu	a5,1(s1)
 424:C:/Users/stapi/OneDrive/Desktop/GD32VW553/GD32VW55X_Wifi_BLE_SDK/GD32VW55x_RELEASE_V1.0.2/MSDK/lwip/libcoap-4.3.4/src\coap_uri.c **** 
 960              		.loc 1 424 44
 961 0116 93F60704 		andi	a3,a5,64
 962 011a 99C2     		beq	a3,zero,.L99
 424:C:/Users/stapi/OneDrive/Desktop/GD32VW553/GD32VW55X_Wifi_BLE_SDK/GD32VW55x_RELEASE_V1.0.2/MSDK/lwip/libcoap-4.3.4/src\coap_uri.c **** 
 963              		.loc 1 424 15
 964 011c BD8B     		andi	a5,a5,15
 965 011e A507     		addi	a5,a5,9
 966              	.L99:
 424:C:/Users/stapi/OneDrive/Desktop/GD32VW553/GD32VW55X_Wifi_BLE_SDK/GD32VW55x_RELEASE_V1.0.2/MSDK/lwip/libcoap-4.3.4/src\coap_uri.c **** 
 967              		.loc 1 424 46
 968 0120 83C62400 		lbu	a3,2(s1)
 424:C:/Users/stapi/OneDrive/Desktop/GD32VW553/GD32VW55X_Wifi_BLE_SDK/GD32VW55x_RELEASE_V1.0.2/MSDK/lwip/libcoap-4.3.4/src\coap_uri.c **** 
 969              		.loc 1 424 38
 970 0124 9207     		slli	a5,a5,4
 424:C:/Users/stapi/OneDrive/Desktop/GD32VW553/GD32VW55X_Wifi_BLE_SDK/GD32VW55x_RELEASE_V1.0.2/MSDK/lwip/libcoap-4.3.4/src\coap_uri.c **** 
 971              		.loc 1 424 44
 972 0126 93F7F70F 		andi	a5,a5,0xff
 424:C:/Users/stapi/OneDrive/Desktop/GD32VW553/GD32VW55X_Wifi_BLE_SDK/GD32VW55x_RELEASE_V1.0.2/MSDK/lwip/libcoap-4.3.4/src\coap_uri.c **** 
 973              		.loc 1 424 46
 974 012a 13F6F600 		andi	a2,a3,15
 424:C:/Users/stapi/OneDrive/Desktop/GD32VW553/GD32VW55X_Wifi_BLE_SDK/GD32VW55x_RELEASE_V1.0.2/MSDK/lwip/libcoap-4.3.4/src\coap_uri.c **** 
 975              		.loc 1 424 44
 976 012e 93F60604 		andi	a3,a3,64
 977 0132 91C2     		beq	a3,zero,.L101
 978 0134 2506     		addi	a2,a2,9
 979              	.L101:
 980 0136 B297     		add	a5,a5,a2
 424:C:/Users/stapi/OneDrive/Desktop/GD32VW553/GD32VW55X_Wifi_BLE_SDK/GD32VW55x_RELEASE_V1.0.2/MSDK/lwip/libcoap-4.3.4/src\coap_uri.c **** 
 981              		.loc 1 424 12
 982 0138 2300F700 		sb	a5,0(a4)
 426:C:/Users/stapi/OneDrive/Desktop/GD32VW553/GD32VW55X_Wifi_BLE_SDK/GD32VW55x_RELEASE_V1.0.2/MSDK/lwip/libcoap-4.3.4/src\coap_uri.c ****       length -= 2;
 983              		.loc 1 426 7 is_stmt 1
 426:C:/Users/stapi/OneDrive/Desktop/GD32VW553/GD32VW55X_Wifi_BLE_SDK/GD32VW55x_RELEASE_V1.0.2/MSDK/lwip/libcoap-4.3.4/src\coap_uri.c ****       length -= 2;
 984              		.loc 1 426 11 is_stmt 0
 985 013c 8904     		addi	s1,s1,2
 986              	.LVL108:
 427:C:/Users/stapi/OneDrive/Desktop/GD32VW553/GD32VW55X_Wifi_BLE_SDK/GD32VW55x_RELEASE_V1.0.2/MSDK/lwip/libcoap-4.3.4/src\coap_uri.c ****     } else {
 987              		.loc 1 427 7 is_stmt 1
 427:C:/Users/stapi/OneDrive/Desktop/GD32VW553/GD32VW55X_Wifi_BLE_SDK/GD32VW55x_RELEASE_V1.0.2/MSDK/lwip/libcoap-4.3.4/src\coap_uri.c ****     } else {
 988              		.loc 1 427 14 is_stmt 0
 989 013e 7519     		addi	s2,s2,-3
 990              	.LVL109:
 991              	.L102:
 432:C:/Users/stapi/OneDrive/Desktop/GD32VW553/GD32VW55X_Wifi_BLE_SDK/GD32VW55x_RELEASE_V1.0.2/MSDK/lwip/libcoap-4.3.4/src\coap_uri.c ****     ++seg;
 992              		.loc 1 432 5 is_stmt 1
 993 0140 0507     		addi	a4,a4,1
 994              	.LVL110:
 433:C:/Users/stapi/OneDrive/Desktop/GD32VW553/GD32VW55X_Wifi_BLE_SDK/GD32VW55x_RELEASE_V1.0.2/MSDK/lwip/libcoap-4.3.4/src\coap_uri.c ****   }
 995              		.loc 1 433 5
 996 0142 8504     		addi	s1,s1,1
 997              	.LVL111:
 998              	.L97:
 421:C:/Users/stapi/OneDrive/Desktop/GD32VW553/GD32VW55X_Wifi_BLE_SDK/GD32VW55x_RELEASE_V1.0.2/MSDK/lwip/libcoap-4.3.4/src\coap_uri.c **** 
 999              		.loc 1 421 9
 1000 0144 E31309FC 		bne	s2,zero,.L103
 1001              	.LVL112:
 1002              	.LBE20:
 1003              	.LBE22:
 519:C:/Users/stapi/OneDrive/Desktop/GD32VW553/GD32VW55X_Wifi_BLE_SDK/GD32VW55x_RELEASE_V1.0.2/MSDK/lwip/libcoap-4.3.4/src\coap_uri.c **** 
 1004              		.loc 1 519 3
 1005              	.LBE25:
 1006              	.LBE29:
 593:C:/Users/stapi/OneDrive/Desktop/GD32VW553/GD32VW55X_Wifi_BLE_SDK/GD32VW55x_RELEASE_V1.0.2/MSDK/lwip/libcoap-4.3.4/src\coap_uri.c ****     state->buf.length -= optionsize;
 1007              		.loc 1 593 18 is_stmt 0
 1008 0148 5C40     		lw	a5,4(s0)
 1009              	.LBB30:
 1010              	.LBB26:
 519:C:/Users/stapi/OneDrive/Desktop/GD32VW553/GD32VW55X_Wifi_BLE_SDK/GD32VW55x_RELEASE_V1.0.2/MSDK/lwip/libcoap-4.3.4/src\coap_uri.c **** 
 1011              		.loc 1 519 25
 1012 014a 5695     		add	a0,a0,s5
 1013              	.LVL113:
 521:C:/Users/stapi/OneDrive/Desktop/GD32VW553/GD32VW55X_Wifi_BLE_SDK/GD32VW55x_RELEASE_V1.0.2/MSDK/lwip/libcoap-4.3.4/src\coap_uri.c **** }
 1014              		.loc 1 521 3 is_stmt 1
 1015              	.LBE26:
 1016              	.LBE30:
 592:C:/Users/stapi/OneDrive/Desktop/GD32VW553/GD32VW55X_Wifi_BLE_SDK/GD32VW55x_RELEASE_V1.0.2/MSDK/lwip/libcoap-4.3.4/src\coap_uri.c ****     state->buf.s += optionsize;
 1017              		.loc 1 592 3
 593:C:/Users/stapi/OneDrive/Desktop/GD32VW553/GD32VW55X_Wifi_BLE_SDK/GD32VW55x_RELEASE_V1.0.2/MSDK/lwip/libcoap-4.3.4/src\coap_uri.c ****     state->buf.length -= optionsize;
 1018              		.loc 1 593 5
 594:C:/Users/stapi/OneDrive/Desktop/GD32VW553/GD32VW55X_Wifi_BLE_SDK/GD32VW55x_RELEASE_V1.0.2/MSDK/lwip/libcoap-4.3.4/src\coap_uri.c ****     state->n++;
 1019              		.loc 1 594 23 is_stmt 0
 1020 014c 1440     		lw	a3,0(s0)
 593:C:/Users/stapi/OneDrive/Desktop/GD32VW553/GD32VW55X_Wifi_BLE_SDK/GD32VW55x_RELEASE_V1.0.2/MSDK/lwip/libcoap-4.3.4/src\coap_uri.c ****     state->buf.length -= optionsize;
 1021              		.loc 1 593 18
 1022 014e AA97     		add	a5,a5,a0
 1023 0150 5CC0     		sw	a5,4(s0)
 594:C:/Users/stapi/OneDrive/Desktop/GD32VW553/GD32VW55X_Wifi_BLE_SDK/GD32VW55x_RELEASE_V1.0.2/MSDK/lwip/libcoap-4.3.4/src\coap_uri.c ****     state->n++;
 1024              		.loc 1 594 5 is_stmt 1
 595:C:/Users/stapi/OneDrive/Desktop/GD32VW553/GD32VW55X_Wifi_BLE_SDK/GD32VW55x_RELEASE_V1.0.2/MSDK/lwip/libcoap-4.3.4/src\coap_uri.c ****   }
 1025              		.loc 1 595 13 is_stmt 0
 1026 0152 1C44     		lw	a5,8(s0)
 594:C:/Users/stapi/OneDrive/Desktop/GD32VW553/GD32VW55X_Wifi_BLE_SDK/GD32VW55x_RELEASE_V1.0.2/MSDK/lwip/libcoap-4.3.4/src\coap_uri.c ****     state->n++;
 1027              		.loc 1 594 23
 1028 0154 3385A640 		sub	a0,a3,a0
 1029              	.LVL114:
 1030 0158 08C0     		sw	a0,0(s0)
 595:C:/Users/stapi/OneDrive/Desktop/GD32VW553/GD32VW55X_Wifi_BLE_SDK/GD32VW55x_RELEASE_V1.0.2/MSDK/lwip/libcoap-4.3.4/src\coap_uri.c ****   }
 1031              		.loc 1 595 5 is_stmt 1
 595:C:/Users/stapi/OneDrive/Desktop/GD32VW553/GD32VW55X_Wifi_BLE_SDK/GD32VW55x_RELEASE_V1.0.2/MSDK/lwip/libcoap-4.3.4/src\coap_uri.c ****   }
 1032              		.loc 1 595 13 is_stmt 0
 1033 015a 8507     		addi	a5,a5,1
 1034 015c 1CC4     		sw	a5,8(s0)
 1035              	.LVL115:
 1036              		.loc 1 597 1
 1037 015e FDBD     		j	.L88
 1038              	.LVL116:
 1039              	.L98:
 1040              	.LBB31:
 1041              	.LBB27:
 1042              	.LBB23:
 1043              	.LBB21:
 421:C:/Users/stapi/OneDrive/Desktop/GD32VW553/GD32VW55X_Wifi_BLE_SDK/GD32VW55x_RELEASE_V1.0.2/MSDK/lwip/libcoap-4.3.4/src\coap_uri.c **** 
 1044              		.loc 1 421 16
 1045 0160 7D19     		addi	s2,s2,-1
 1046              	.LVL117:
 429:C:/Users/stapi/OneDrive/Desktop/GD32VW553/GD32VW55X_Wifi_BLE_SDK/GD32VW55x_RELEASE_V1.0.2/MSDK/lwip/libcoap-4.3.4/src\coap_uri.c ****     }
 1047              		.loc 1 429 7 is_stmt 1
 429:C:/Users/stapi/OneDrive/Desktop/GD32VW553/GD32VW55X_Wifi_BLE_SDK/GD32VW55x_RELEASE_V1.0.2/MSDK/lwip/libcoap-4.3.4/src\coap_uri.c ****     }
 1048              		.loc 1 429 12 is_stmt 0
 1049 0162 2300F700 		sb	a5,0(a4)
 1050 0166 E9BF     		j	.L102
 1051              	.LBE21:
 1052              	.LBE23:
 1053              	.LBE27:
 1054              	.LBE31:
 1055              		.cfi_endproc
 1056              	.LFE42:
 1058              		.section	.text.is_unescaped_in_path,"ax",@progbits
 1059              		.align	1
 1061              	is_unescaped_in_path:
 1062              	.LFB48:
 598:C:/Users/stapi/OneDrive/Desktop/GD32VW553/GD32VW55X_Wifi_BLE_SDK/GD32VW55x_RELEASE_V1.0.2/MSDK/lwip/libcoap-4.3.4/src\coap_uri.c **** 
 599:C:/Users/stapi/OneDrive/Desktop/GD32VW553/GD32VW55X_Wifi_BLE_SDK/GD32VW55x_RELEASE_V1.0.2/MSDK/lwip/libcoap-4.3.4/src\coap_uri.c **** int
 600:C:/Users/stapi/OneDrive/Desktop/GD32VW553/GD32VW55X_Wifi_BLE_SDK/GD32VW55x_RELEASE_V1.0.2/MSDK/lwip/libcoap-4.3.4/src\coap_uri.c **** coap_split_path(const uint8_t *s, size_t length,
 601:C:/Users/stapi/OneDrive/Desktop/GD32VW553/GD32VW55X_Wifi_BLE_SDK/GD32VW55x_RELEASE_V1.0.2/MSDK/lwip/libcoap-4.3.4/src\coap_uri.c ****                 unsigned char *buf, size_t *buflen) {
 602:C:/Users/stapi/OneDrive/Desktop/GD32VW553/GD32VW55X_Wifi_BLE_SDK/GD32VW55x_RELEASE_V1.0.2/MSDK/lwip/libcoap-4.3.4/src\coap_uri.c ****   struct cnt_str tmp = { { *buflen, buf }, 0 };
 603:C:/Users/stapi/OneDrive/Desktop/GD32VW553/GD32VW55X_Wifi_BLE_SDK/GD32VW55x_RELEASE_V1.0.2/MSDK/lwip/libcoap-4.3.4/src\coap_uri.c **** 
 604:C:/Users/stapi/OneDrive/Desktop/GD32VW553/GD32VW55X_Wifi_BLE_SDK/GD32VW55x_RELEASE_V1.0.2/MSDK/lwip/libcoap-4.3.4/src\coap_uri.c ****   coap_split_path_impl(s, length, write_option, &tmp);
 605:C:/Users/stapi/OneDrive/Desktop/GD32VW553/GD32VW55X_Wifi_BLE_SDK/GD32VW55x_RELEASE_V1.0.2/MSDK/lwip/libcoap-4.3.4/src\coap_uri.c **** 
 606:C:/Users/stapi/OneDrive/Desktop/GD32VW553/GD32VW55X_Wifi_BLE_SDK/GD32VW55x_RELEASE_V1.0.2/MSDK/lwip/libcoap-4.3.4/src\coap_uri.c ****   *buflen = *buflen - tmp.buf.length;
 607:C:/Users/stapi/OneDrive/Desktop/GD32VW553/GD32VW55X_Wifi_BLE_SDK/GD32VW55x_RELEASE_V1.0.2/MSDK/lwip/libcoap-4.3.4/src\coap_uri.c **** 
 608:C:/Users/stapi/OneDrive/Desktop/GD32VW553/GD32VW55X_Wifi_BLE_SDK/GD32VW55x_RELEASE_V1.0.2/MSDK/lwip/libcoap-4.3.4/src\coap_uri.c ****   return tmp.n;
 609:C:/Users/stapi/OneDrive/Desktop/GD32VW553/GD32VW55X_Wifi_BLE_SDK/GD32VW55x_RELEASE_V1.0.2/MSDK/lwip/libcoap-4.3.4/src\coap_uri.c **** }
 610:C:/Users/stapi/OneDrive/Desktop/GD32VW553/GD32VW55X_Wifi_BLE_SDK/GD32VW55x_RELEASE_V1.0.2/MSDK/lwip/libcoap-4.3.4/src\coap_uri.c **** 
 611:C:/Users/stapi/OneDrive/Desktop/GD32VW553/GD32VW55X_Wifi_BLE_SDK/GD32VW55x_RELEASE_V1.0.2/MSDK/lwip/libcoap-4.3.4/src\coap_uri.c **** int
 612:C:/Users/stapi/OneDrive/Desktop/GD32VW553/GD32VW55X_Wifi_BLE_SDK/GD32VW55x_RELEASE_V1.0.2/MSDK/lwip/libcoap-4.3.4/src\coap_uri.c **** coap_split_query(const uint8_t *s, size_t length,
 613:C:/Users/stapi/OneDrive/Desktop/GD32VW553/GD32VW55X_Wifi_BLE_SDK/GD32VW55x_RELEASE_V1.0.2/MSDK/lwip/libcoap-4.3.4/src\coap_uri.c ****                  unsigned char *buf, size_t *buflen) {
 614:C:/Users/stapi/OneDrive/Desktop/GD32VW553/GD32VW55X_Wifi_BLE_SDK/GD32VW55x_RELEASE_V1.0.2/MSDK/lwip/libcoap-4.3.4/src\coap_uri.c ****   struct cnt_str tmp = { { *buflen, buf }, 0 };
 615:C:/Users/stapi/OneDrive/Desktop/GD32VW553/GD32VW55X_Wifi_BLE_SDK/GD32VW55x_RELEASE_V1.0.2/MSDK/lwip/libcoap-4.3.4/src\coap_uri.c ****   const uint8_t *p;
 616:C:/Users/stapi/OneDrive/Desktop/GD32VW553/GD32VW55X_Wifi_BLE_SDK/GD32VW55x_RELEASE_V1.0.2/MSDK/lwip/libcoap-4.3.4/src\coap_uri.c **** 
 617:C:/Users/stapi/OneDrive/Desktop/GD32VW553/GD32VW55X_Wifi_BLE_SDK/GD32VW55x_RELEASE_V1.0.2/MSDK/lwip/libcoap-4.3.4/src\coap_uri.c ****   p = s;
 618:C:/Users/stapi/OneDrive/Desktop/GD32VW553/GD32VW55X_Wifi_BLE_SDK/GD32VW55x_RELEASE_V1.0.2/MSDK/lwip/libcoap-4.3.4/src\coap_uri.c ****   while (length > 0 && *s != '#') {
 619:C:/Users/stapi/OneDrive/Desktop/GD32VW553/GD32VW55X_Wifi_BLE_SDK/GD32VW55x_RELEASE_V1.0.2/MSDK/lwip/libcoap-4.3.4/src\coap_uri.c ****     if (*s == '&') {                /* start new query element */
 620:C:/Users/stapi/OneDrive/Desktop/GD32VW553/GD32VW55X_Wifi_BLE_SDK/GD32VW55x_RELEASE_V1.0.2/MSDK/lwip/libcoap-4.3.4/src\coap_uri.c ****       write_option(p, s - p, &tmp);
 621:C:/Users/stapi/OneDrive/Desktop/GD32VW553/GD32VW55X_Wifi_BLE_SDK/GD32VW55x_RELEASE_V1.0.2/MSDK/lwip/libcoap-4.3.4/src\coap_uri.c ****       p = s + 1;
 622:C:/Users/stapi/OneDrive/Desktop/GD32VW553/GD32VW55X_Wifi_BLE_SDK/GD32VW55x_RELEASE_V1.0.2/MSDK/lwip/libcoap-4.3.4/src\coap_uri.c ****     }
 623:C:/Users/stapi/OneDrive/Desktop/GD32VW553/GD32VW55X_Wifi_BLE_SDK/GD32VW55x_RELEASE_V1.0.2/MSDK/lwip/libcoap-4.3.4/src\coap_uri.c **** 
 624:C:/Users/stapi/OneDrive/Desktop/GD32VW553/GD32VW55X_Wifi_BLE_SDK/GD32VW55x_RELEASE_V1.0.2/MSDK/lwip/libcoap-4.3.4/src\coap_uri.c ****     s++;
 625:C:/Users/stapi/OneDrive/Desktop/GD32VW553/GD32VW55X_Wifi_BLE_SDK/GD32VW55x_RELEASE_V1.0.2/MSDK/lwip/libcoap-4.3.4/src\coap_uri.c ****     length--;
 626:C:/Users/stapi/OneDrive/Desktop/GD32VW553/GD32VW55X_Wifi_BLE_SDK/GD32VW55x_RELEASE_V1.0.2/MSDK/lwip/libcoap-4.3.4/src\coap_uri.c ****   }
 627:C:/Users/stapi/OneDrive/Desktop/GD32VW553/GD32VW55X_Wifi_BLE_SDK/GD32VW55x_RELEASE_V1.0.2/MSDK/lwip/libcoap-4.3.4/src\coap_uri.c **** 
 628:C:/Users/stapi/OneDrive/Desktop/GD32VW553/GD32VW55X_Wifi_BLE_SDK/GD32VW55x_RELEASE_V1.0.2/MSDK/lwip/libcoap-4.3.4/src\coap_uri.c ****   /* write last query element */
 629:C:/Users/stapi/OneDrive/Desktop/GD32VW553/GD32VW55X_Wifi_BLE_SDK/GD32VW55x_RELEASE_V1.0.2/MSDK/lwip/libcoap-4.3.4/src\coap_uri.c ****   write_option(p, s - p, &tmp);
 630:C:/Users/stapi/OneDrive/Desktop/GD32VW553/GD32VW55X_Wifi_BLE_SDK/GD32VW55x_RELEASE_V1.0.2/MSDK/lwip/libcoap-4.3.4/src\coap_uri.c **** 
 631:C:/Users/stapi/OneDrive/Desktop/GD32VW553/GD32VW55X_Wifi_BLE_SDK/GD32VW55x_RELEASE_V1.0.2/MSDK/lwip/libcoap-4.3.4/src\coap_uri.c ****   *buflen = *buflen - tmp.buf.length;
 632:C:/Users/stapi/OneDrive/Desktop/GD32VW553/GD32VW55X_Wifi_BLE_SDK/GD32VW55x_RELEASE_V1.0.2/MSDK/lwip/libcoap-4.3.4/src\coap_uri.c ****   return tmp.n;
 633:C:/Users/stapi/OneDrive/Desktop/GD32VW553/GD32VW55X_Wifi_BLE_SDK/GD32VW55x_RELEASE_V1.0.2/MSDK/lwip/libcoap-4.3.4/src\coap_uri.c **** }
 634:C:/Users/stapi/OneDrive/Desktop/GD32VW553/GD32VW55X_Wifi_BLE_SDK/GD32VW55x_RELEASE_V1.0.2/MSDK/lwip/libcoap-4.3.4/src\coap_uri.c **** 
 635:C:/Users/stapi/OneDrive/Desktop/GD32VW553/GD32VW55X_Wifi_BLE_SDK/GD32VW55x_RELEASE_V1.0.2/MSDK/lwip/libcoap-4.3.4/src\coap_uri.c **** #define URI_DATA(uriobj) ((unsigned char *)(uriobj) + sizeof(coap_uri_t))
 636:C:/Users/stapi/OneDrive/Desktop/GD32VW553/GD32VW55X_Wifi_BLE_SDK/GD32VW55x_RELEASE_V1.0.2/MSDK/lwip/libcoap-4.3.4/src\coap_uri.c **** 
 637:C:/Users/stapi/OneDrive/Desktop/GD32VW553/GD32VW55X_Wifi_BLE_SDK/GD32VW55x_RELEASE_V1.0.2/MSDK/lwip/libcoap-4.3.4/src\coap_uri.c **** coap_uri_t *
 638:C:/Users/stapi/OneDrive/Desktop/GD32VW553/GD32VW55X_Wifi_BLE_SDK/GD32VW55x_RELEASE_V1.0.2/MSDK/lwip/libcoap-4.3.4/src\coap_uri.c **** coap_new_uri(const uint8_t *uri, unsigned int length) {
 639:C:/Users/stapi/OneDrive/Desktop/GD32VW553/GD32VW55X_Wifi_BLE_SDK/GD32VW55x_RELEASE_V1.0.2/MSDK/lwip/libcoap-4.3.4/src\coap_uri.c ****   unsigned char *result;
 640:C:/Users/stapi/OneDrive/Desktop/GD32VW553/GD32VW55X_Wifi_BLE_SDK/GD32VW55x_RELEASE_V1.0.2/MSDK/lwip/libcoap-4.3.4/src\coap_uri.c **** 
 641:C:/Users/stapi/OneDrive/Desktop/GD32VW553/GD32VW55X_Wifi_BLE_SDK/GD32VW55x_RELEASE_V1.0.2/MSDK/lwip/libcoap-4.3.4/src\coap_uri.c ****   result = (unsigned char *)coap_malloc_type(COAP_STRING, length + 1 + sizeof(coap_uri_t));
 642:C:/Users/stapi/OneDrive/Desktop/GD32VW553/GD32VW55X_Wifi_BLE_SDK/GD32VW55x_RELEASE_V1.0.2/MSDK/lwip/libcoap-4.3.4/src\coap_uri.c **** 
 643:C:/Users/stapi/OneDrive/Desktop/GD32VW553/GD32VW55X_Wifi_BLE_SDK/GD32VW55x_RELEASE_V1.0.2/MSDK/lwip/libcoap-4.3.4/src\coap_uri.c ****   if (!result)
 644:C:/Users/stapi/OneDrive/Desktop/GD32VW553/GD32VW55X_Wifi_BLE_SDK/GD32VW55x_RELEASE_V1.0.2/MSDK/lwip/libcoap-4.3.4/src\coap_uri.c ****     return NULL;
 645:C:/Users/stapi/OneDrive/Desktop/GD32VW553/GD32VW55X_Wifi_BLE_SDK/GD32VW55x_RELEASE_V1.0.2/MSDK/lwip/libcoap-4.3.4/src\coap_uri.c **** 
 646:C:/Users/stapi/OneDrive/Desktop/GD32VW553/GD32VW55X_Wifi_BLE_SDK/GD32VW55x_RELEASE_V1.0.2/MSDK/lwip/libcoap-4.3.4/src\coap_uri.c ****   memcpy(URI_DATA(result), uri, length);
 647:C:/Users/stapi/OneDrive/Desktop/GD32VW553/GD32VW55X_Wifi_BLE_SDK/GD32VW55x_RELEASE_V1.0.2/MSDK/lwip/libcoap-4.3.4/src\coap_uri.c ****   URI_DATA(result)[length] = '\0'; /* make it zero-terminated */
 648:C:/Users/stapi/OneDrive/Desktop/GD32VW553/GD32VW55X_Wifi_BLE_SDK/GD32VW55x_RELEASE_V1.0.2/MSDK/lwip/libcoap-4.3.4/src\coap_uri.c **** 
 649:C:/Users/stapi/OneDrive/Desktop/GD32VW553/GD32VW55X_Wifi_BLE_SDK/GD32VW55x_RELEASE_V1.0.2/MSDK/lwip/libcoap-4.3.4/src\coap_uri.c ****   if (coap_split_uri(URI_DATA(result), length, (coap_uri_t *)result) < 0) {
 650:C:/Users/stapi/OneDrive/Desktop/GD32VW553/GD32VW55X_Wifi_BLE_SDK/GD32VW55x_RELEASE_V1.0.2/MSDK/lwip/libcoap-4.3.4/src\coap_uri.c ****     coap_free_type(COAP_STRING, result);
 651:C:/Users/stapi/OneDrive/Desktop/GD32VW553/GD32VW55X_Wifi_BLE_SDK/GD32VW55x_RELEASE_V1.0.2/MSDK/lwip/libcoap-4.3.4/src\coap_uri.c ****     return NULL;
 652:C:/Users/stapi/OneDrive/Desktop/GD32VW553/GD32VW55X_Wifi_BLE_SDK/GD32VW55x_RELEASE_V1.0.2/MSDK/lwip/libcoap-4.3.4/src\coap_uri.c ****   }
 653:C:/Users/stapi/OneDrive/Desktop/GD32VW553/GD32VW55X_Wifi_BLE_SDK/GD32VW55x_RELEASE_V1.0.2/MSDK/lwip/libcoap-4.3.4/src\coap_uri.c ****   return (coap_uri_t *)result;
 654:C:/Users/stapi/OneDrive/Desktop/GD32VW553/GD32VW55X_Wifi_BLE_SDK/GD32VW55x_RELEASE_V1.0.2/MSDK/lwip/libcoap-4.3.4/src\coap_uri.c **** }
 655:C:/Users/stapi/OneDrive/Desktop/GD32VW553/GD32VW55X_Wifi_BLE_SDK/GD32VW55x_RELEASE_V1.0.2/MSDK/lwip/libcoap-4.3.4/src\coap_uri.c **** 
 656:C:/Users/stapi/OneDrive/Desktop/GD32VW553/GD32VW55X_Wifi_BLE_SDK/GD32VW55x_RELEASE_V1.0.2/MSDK/lwip/libcoap-4.3.4/src\coap_uri.c **** coap_uri_t *
 657:C:/Users/stapi/OneDrive/Desktop/GD32VW553/GD32VW55X_Wifi_BLE_SDK/GD32VW55x_RELEASE_V1.0.2/MSDK/lwip/libcoap-4.3.4/src\coap_uri.c **** coap_clone_uri(const coap_uri_t *uri) {
 658:C:/Users/stapi/OneDrive/Desktop/GD32VW553/GD32VW55X_Wifi_BLE_SDK/GD32VW55x_RELEASE_V1.0.2/MSDK/lwip/libcoap-4.3.4/src\coap_uri.c ****   coap_uri_t *result;
 659:C:/Users/stapi/OneDrive/Desktop/GD32VW553/GD32VW55X_Wifi_BLE_SDK/GD32VW55x_RELEASE_V1.0.2/MSDK/lwip/libcoap-4.3.4/src\coap_uri.c ****   uint8_t *p;
 660:C:/Users/stapi/OneDrive/Desktop/GD32VW553/GD32VW55X_Wifi_BLE_SDK/GD32VW55x_RELEASE_V1.0.2/MSDK/lwip/libcoap-4.3.4/src\coap_uri.c **** 
 661:C:/Users/stapi/OneDrive/Desktop/GD32VW553/GD32VW55X_Wifi_BLE_SDK/GD32VW55x_RELEASE_V1.0.2/MSDK/lwip/libcoap-4.3.4/src\coap_uri.c ****   if (!uri)
 662:C:/Users/stapi/OneDrive/Desktop/GD32VW553/GD32VW55X_Wifi_BLE_SDK/GD32VW55x_RELEASE_V1.0.2/MSDK/lwip/libcoap-4.3.4/src\coap_uri.c ****     return  NULL;
 663:C:/Users/stapi/OneDrive/Desktop/GD32VW553/GD32VW55X_Wifi_BLE_SDK/GD32VW55x_RELEASE_V1.0.2/MSDK/lwip/libcoap-4.3.4/src\coap_uri.c **** 
 664:C:/Users/stapi/OneDrive/Desktop/GD32VW553/GD32VW55X_Wifi_BLE_SDK/GD32VW55x_RELEASE_V1.0.2/MSDK/lwip/libcoap-4.3.4/src\coap_uri.c ****   result = (coap_uri_t *)coap_malloc_type(COAP_STRING,  uri->query.length + uri->host.length +
 665:C:/Users/stapi/OneDrive/Desktop/GD32VW553/GD32VW55X_Wifi_BLE_SDK/GD32VW55x_RELEASE_V1.0.2/MSDK/lwip/libcoap-4.3.4/src\coap_uri.c ****                                           uri->path.length + sizeof(coap_uri_t) + 1);
 666:C:/Users/stapi/OneDrive/Desktop/GD32VW553/GD32VW55X_Wifi_BLE_SDK/GD32VW55x_RELEASE_V1.0.2/MSDK/lwip/libcoap-4.3.4/src\coap_uri.c **** 
 667:C:/Users/stapi/OneDrive/Desktop/GD32VW553/GD32VW55X_Wifi_BLE_SDK/GD32VW55x_RELEASE_V1.0.2/MSDK/lwip/libcoap-4.3.4/src\coap_uri.c ****   if (!result)
 668:C:/Users/stapi/OneDrive/Desktop/GD32VW553/GD32VW55X_Wifi_BLE_SDK/GD32VW55x_RELEASE_V1.0.2/MSDK/lwip/libcoap-4.3.4/src\coap_uri.c ****     return NULL;
 669:C:/Users/stapi/OneDrive/Desktop/GD32VW553/GD32VW55X_Wifi_BLE_SDK/GD32VW55x_RELEASE_V1.0.2/MSDK/lwip/libcoap-4.3.4/src\coap_uri.c **** 
 670:C:/Users/stapi/OneDrive/Desktop/GD32VW553/GD32VW55X_Wifi_BLE_SDK/GD32VW55x_RELEASE_V1.0.2/MSDK/lwip/libcoap-4.3.4/src\coap_uri.c ****   memset(result, 0, sizeof(coap_uri_t));
 671:C:/Users/stapi/OneDrive/Desktop/GD32VW553/GD32VW55X_Wifi_BLE_SDK/GD32VW55x_RELEASE_V1.0.2/MSDK/lwip/libcoap-4.3.4/src\coap_uri.c **** 
 672:C:/Users/stapi/OneDrive/Desktop/GD32VW553/GD32VW55X_Wifi_BLE_SDK/GD32VW55x_RELEASE_V1.0.2/MSDK/lwip/libcoap-4.3.4/src\coap_uri.c ****   result->port = uri->port;
 673:C:/Users/stapi/OneDrive/Desktop/GD32VW553/GD32VW55X_Wifi_BLE_SDK/GD32VW55x_RELEASE_V1.0.2/MSDK/lwip/libcoap-4.3.4/src\coap_uri.c **** 
 674:C:/Users/stapi/OneDrive/Desktop/GD32VW553/GD32VW55X_Wifi_BLE_SDK/GD32VW55x_RELEASE_V1.0.2/MSDK/lwip/libcoap-4.3.4/src\coap_uri.c ****   if (uri->host.length) {
 675:C:/Users/stapi/OneDrive/Desktop/GD32VW553/GD32VW55X_Wifi_BLE_SDK/GD32VW55x_RELEASE_V1.0.2/MSDK/lwip/libcoap-4.3.4/src\coap_uri.c ****     result->host.s = p = URI_DATA(result);
 676:C:/Users/stapi/OneDrive/Desktop/GD32VW553/GD32VW55X_Wifi_BLE_SDK/GD32VW55x_RELEASE_V1.0.2/MSDK/lwip/libcoap-4.3.4/src\coap_uri.c ****     result->host.length = uri->host.length;
 677:C:/Users/stapi/OneDrive/Desktop/GD32VW553/GD32VW55X_Wifi_BLE_SDK/GD32VW55x_RELEASE_V1.0.2/MSDK/lwip/libcoap-4.3.4/src\coap_uri.c **** 
 678:C:/Users/stapi/OneDrive/Desktop/GD32VW553/GD32VW55X_Wifi_BLE_SDK/GD32VW55x_RELEASE_V1.0.2/MSDK/lwip/libcoap-4.3.4/src\coap_uri.c ****     memcpy(p, uri->host.s, uri->host.length);
 679:C:/Users/stapi/OneDrive/Desktop/GD32VW553/GD32VW55X_Wifi_BLE_SDK/GD32VW55x_RELEASE_V1.0.2/MSDK/lwip/libcoap-4.3.4/src\coap_uri.c ****   }
 680:C:/Users/stapi/OneDrive/Desktop/GD32VW553/GD32VW55X_Wifi_BLE_SDK/GD32VW55x_RELEASE_V1.0.2/MSDK/lwip/libcoap-4.3.4/src\coap_uri.c **** 
 681:C:/Users/stapi/OneDrive/Desktop/GD32VW553/GD32VW55X_Wifi_BLE_SDK/GD32VW55x_RELEASE_V1.0.2/MSDK/lwip/libcoap-4.3.4/src\coap_uri.c ****   if (uri->path.length) {
 682:C:/Users/stapi/OneDrive/Desktop/GD32VW553/GD32VW55X_Wifi_BLE_SDK/GD32VW55x_RELEASE_V1.0.2/MSDK/lwip/libcoap-4.3.4/src\coap_uri.c ****     result->path.s = p = URI_DATA(result) + uri->host.length;
 683:C:/Users/stapi/OneDrive/Desktop/GD32VW553/GD32VW55X_Wifi_BLE_SDK/GD32VW55x_RELEASE_V1.0.2/MSDK/lwip/libcoap-4.3.4/src\coap_uri.c ****     result->path.length = uri->path.length;
 684:C:/Users/stapi/OneDrive/Desktop/GD32VW553/GD32VW55X_Wifi_BLE_SDK/GD32VW55x_RELEASE_V1.0.2/MSDK/lwip/libcoap-4.3.4/src\coap_uri.c **** 
 685:C:/Users/stapi/OneDrive/Desktop/GD32VW553/GD32VW55X_Wifi_BLE_SDK/GD32VW55x_RELEASE_V1.0.2/MSDK/lwip/libcoap-4.3.4/src\coap_uri.c ****     memcpy(p, uri->path.s, uri->path.length);
 686:C:/Users/stapi/OneDrive/Desktop/GD32VW553/GD32VW55X_Wifi_BLE_SDK/GD32VW55x_RELEASE_V1.0.2/MSDK/lwip/libcoap-4.3.4/src\coap_uri.c ****   }
 687:C:/Users/stapi/OneDrive/Desktop/GD32VW553/GD32VW55X_Wifi_BLE_SDK/GD32VW55x_RELEASE_V1.0.2/MSDK/lwip/libcoap-4.3.4/src\coap_uri.c **** 
 688:C:/Users/stapi/OneDrive/Desktop/GD32VW553/GD32VW55X_Wifi_BLE_SDK/GD32VW55x_RELEASE_V1.0.2/MSDK/lwip/libcoap-4.3.4/src\coap_uri.c ****   if (uri->query.length) {
 689:C:/Users/stapi/OneDrive/Desktop/GD32VW553/GD32VW55X_Wifi_BLE_SDK/GD32VW55x_RELEASE_V1.0.2/MSDK/lwip/libcoap-4.3.4/src\coap_uri.c ****     result->query.s = p = URI_DATA(result) + uri->host.length + uri->path.length;
 690:C:/Users/stapi/OneDrive/Desktop/GD32VW553/GD32VW55X_Wifi_BLE_SDK/GD32VW55x_RELEASE_V1.0.2/MSDK/lwip/libcoap-4.3.4/src\coap_uri.c ****     result->query.length = uri->query.length;
 691:C:/Users/stapi/OneDrive/Desktop/GD32VW553/GD32VW55X_Wifi_BLE_SDK/GD32VW55x_RELEASE_V1.0.2/MSDK/lwip/libcoap-4.3.4/src\coap_uri.c **** 
 692:C:/Users/stapi/OneDrive/Desktop/GD32VW553/GD32VW55X_Wifi_BLE_SDK/GD32VW55x_RELEASE_V1.0.2/MSDK/lwip/libcoap-4.3.4/src\coap_uri.c ****     memcpy(p, uri->query.s, uri->query.length);
 693:C:/Users/stapi/OneDrive/Desktop/GD32VW553/GD32VW55X_Wifi_BLE_SDK/GD32VW55x_RELEASE_V1.0.2/MSDK/lwip/libcoap-4.3.4/src\coap_uri.c ****   }
 694:C:/Users/stapi/OneDrive/Desktop/GD32VW553/GD32VW55X_Wifi_BLE_SDK/GD32VW55x_RELEASE_V1.0.2/MSDK/lwip/libcoap-4.3.4/src\coap_uri.c **** 
 695:C:/Users/stapi/OneDrive/Desktop/GD32VW553/GD32VW55X_Wifi_BLE_SDK/GD32VW55x_RELEASE_V1.0.2/MSDK/lwip/libcoap-4.3.4/src\coap_uri.c ****   return result;
 696:C:/Users/stapi/OneDrive/Desktop/GD32VW553/GD32VW55X_Wifi_BLE_SDK/GD32VW55x_RELEASE_V1.0.2/MSDK/lwip/libcoap-4.3.4/src\coap_uri.c **** }
 697:C:/Users/stapi/OneDrive/Desktop/GD32VW553/GD32VW55X_Wifi_BLE_SDK/GD32VW55x_RELEASE_V1.0.2/MSDK/lwip/libcoap-4.3.4/src\coap_uri.c **** 
 698:C:/Users/stapi/OneDrive/Desktop/GD32VW553/GD32VW55X_Wifi_BLE_SDK/GD32VW55x_RELEASE_V1.0.2/MSDK/lwip/libcoap-4.3.4/src\coap_uri.c **** void
 699:C:/Users/stapi/OneDrive/Desktop/GD32VW553/GD32VW55X_Wifi_BLE_SDK/GD32VW55x_RELEASE_V1.0.2/MSDK/lwip/libcoap-4.3.4/src\coap_uri.c **** coap_delete_uri(coap_uri_t *uri) {
 700:C:/Users/stapi/OneDrive/Desktop/GD32VW553/GD32VW55X_Wifi_BLE_SDK/GD32VW55x_RELEASE_V1.0.2/MSDK/lwip/libcoap-4.3.4/src\coap_uri.c ****   coap_free_type(COAP_STRING, uri);
 701:C:/Users/stapi/OneDrive/Desktop/GD32VW553/GD32VW55X_Wifi_BLE_SDK/GD32VW55x_RELEASE_V1.0.2/MSDK/lwip/libcoap-4.3.4/src\coap_uri.c **** }
 702:C:/Users/stapi/OneDrive/Desktop/GD32VW553/GD32VW55X_Wifi_BLE_SDK/GD32VW55x_RELEASE_V1.0.2/MSDK/lwip/libcoap-4.3.4/src\coap_uri.c **** 
 703:C:/Users/stapi/OneDrive/Desktop/GD32VW553/GD32VW55X_Wifi_BLE_SDK/GD32VW55x_RELEASE_V1.0.2/MSDK/lwip/libcoap-4.3.4/src\coap_uri.c **** COAP_STATIC_INLINE int
 704:C:/Users/stapi/OneDrive/Desktop/GD32VW553/GD32VW55X_Wifi_BLE_SDK/GD32VW55x_RELEASE_V1.0.2/MSDK/lwip/libcoap-4.3.4/src\coap_uri.c **** is_unescaped_in_path(const uint8_t c) {
 1063              		.loc 1 704 39 is_stmt 1
 1064              		.cfi_startproc
 1065              	.LVL118:
 705:C:/Users/stapi/OneDrive/Desktop/GD32VW553/GD32VW55X_Wifi_BLE_SDK/GD32VW55x_RELEASE_V1.0.2/MSDK/lwip/libcoap-4.3.4/src\coap_uri.c ****   return (c >= 'A' && c <= 'Z') || (c >= 'a' && c <= 'z') ||
 1066              		.loc 1 705 3
 706:C:/Users/stapi/OneDrive/Desktop/GD32VW553/GD32VW55X_Wifi_BLE_SDK/GD32VW55x_RELEASE_V1.0.2/MSDK/lwip/libcoap-4.3.4/src\coap_uri.c ****          (c >= '0' && c <= '9') || c == '-' || c == '.' || c == '_' ||
 1067              		.loc 1 706 57 is_stmt 0
 1068 0000 130715FA 		addi	a4,a0,-95
 1069 0004 9376F70F 		andi	a3,a4,0xff
 1070 0008 7D47     		li	a4,31
 704:C:/Users/stapi/OneDrive/Desktop/GD32VW553/GD32VW55X_Wifi_BLE_SDK/GD32VW55x_RELEASE_V1.0.2/MSDK/lwip/libcoap-4.3.4/src\coap_uri.c ****   return (c >= 'A' && c <= 'Z') || (c >= 'a' && c <= 'z') ||
 1071              		.loc 1 704 39
 1072 000a AA87     		mv	a5,a0
 1073              		.loc 1 706 57
 1074 000c 636BD700 		bgtu	a3,a4,.L122
 1075              		.loc 1 706 57 discriminator 2
 1076 0010 37070090 		li	a4,-1879048192
 1077 0014 7517     		addi	a4,a4,-3
 1078 0016 3357D700 		srl	a4,a4,a3
 707:C:/Users/stapi/OneDrive/Desktop/GD32VW553/GD32VW55X_Wifi_BLE_SDK/GD32VW55x_RELEASE_V1.0.2/MSDK/lwip/libcoap-4.3.4/src\coap_uri.c ****          c == '~' || c == '!' || c == '$' || c == '\'' || c == '(' ||
 708:C:/Users/stapi/OneDrive/Desktop/GD32VW553/GD32VW55X_Wifi_BLE_SDK/GD32VW55x_RELEASE_V1.0.2/MSDK/lwip/libcoap-4.3.4/src\coap_uri.c ****          c == ')' || c == '*' || c == '+' || c == ',' || c == ';' ||
 709:C:/Users/stapi/OneDrive/Desktop/GD32VW553/GD32VW55X_Wifi_BLE_SDK/GD32VW55x_RELEASE_V1.0.2/MSDK/lwip/libcoap-4.3.4/src\coap_uri.c ****          c=='=' || c==':' || c=='@' || c == '&';
 1079              		.loc 1 709 37 discriminator 2
 1080 001a 0545     		li	a0,1
 1081              	.LVL119:
 706:C:/Users/stapi/OneDrive/Desktop/GD32VW553/GD32VW55X_Wifi_BLE_SDK/GD32VW55x_RELEASE_V1.0.2/MSDK/lwip/libcoap-4.3.4/src\coap_uri.c ****          c == '~' || c == '!' || c == '$' || c == '\'' || c == '(' ||
 1082              		.loc 1 706 57 discriminator 2
 1083 001c 13570748 		bexti	a4,a4,0
 1084 0020 0DE7     		bne	a4,zero,.L121
 1085              	.L122:
 707:C:/Users/stapi/OneDrive/Desktop/GD32VW553/GD32VW55X_Wifi_BLE_SDK/GD32VW55x_RELEASE_V1.0.2/MSDK/lwip/libcoap-4.3.4/src\coap_uri.c ****          c == '~' || c == '!' || c == '$' || c == '\'' || c == '(' ||
 1086              		.loc 1 707 19
 1087 0022 1387F7FD 		addi	a4,a5,-33
 1088 0026 9376F70F 		andi	a3,a4,0xff
 1089 002a 7147     		li	a4,28
 1090 002c 636BD700 		bgtu	a3,a4,.L124
 1091 0030 37C7FF17 		li	a4,402636800
 1092 0034 2517     		addi	a4,a4,-23
 1093 0036 3357D700 		srl	a4,a4,a3
 1094              		.loc 1 709 37
 1095 003a 0545     		li	a0,1
 707:C:/Users/stapi/OneDrive/Desktop/GD32VW553/GD32VW55X_Wifi_BLE_SDK/GD32VW55x_RELEASE_V1.0.2/MSDK/lwip/libcoap-4.3.4/src\coap_uri.c ****          c == '~' || c == '!' || c == '$' || c == '\'' || c == '(' ||
 1096              		.loc 1 707 19
 1097 003c 13570748 		bexti	a4,a4,0
 1098 0040 09E7     		bne	a4,zero,.L121
 1099              	.L124:
 1100              	.LVL120:
 1101              	.LBB34:
 1102              	.LBB35:
 1103              		.loc 1 709 27
 1104 0042 938707FC 		addi	a5,a5,-64
 1105              	.LVL121:
 1106 0046 13B5B701 		sltiu	a0,a5,27
 1107              	.L121:
 1108              	.LBE35:
 1109              	.LBE34:
 710:C:/Users/stapi/OneDrive/Desktop/GD32VW553/GD32VW55X_Wifi_BLE_SDK/GD32VW55x_RELEASE_V1.0.2/MSDK/lwip/libcoap-4.3.4/src\coap_uri.c **** }
 1110              		.loc 1 710 1
 1111 004a 8280     		ret
 1112              		.cfi_endproc
 1113              	.LFE48:
 1115              		.section	.text.coap_split_uri,"ax",@progbits
 1116              		.align	1
 1117              		.globl	coap_split_uri
 1119              	coap_split_uri:
 1120              	.LFB33:
 269:C:/Users/stapi/OneDrive/Desktop/GD32VW553/GD32VW55X_Wifi_BLE_SDK/GD32VW55x_RELEASE_V1.0.2/MSDK/lwip/libcoap-4.3.4/src\coap_uri.c ****   return coap_split_uri_sub(str_var, len, uri, COAP_URI_CHECK_URI);
 1121              		.loc 1 269 69 is_stmt 1
 1122              		.cfi_startproc
 1123              	.LVL122:
 270:C:/Users/stapi/OneDrive/Desktop/GD32VW553/GD32VW55X_Wifi_BLE_SDK/GD32VW55x_RELEASE_V1.0.2/MSDK/lwip/libcoap-4.3.4/src\coap_uri.c **** }
 1124              		.loc 1 270 3
 270:C:/Users/stapi/OneDrive/Desktop/GD32VW553/GD32VW55X_Wifi_BLE_SDK/GD32VW55x_RELEASE_V1.0.2/MSDK/lwip/libcoap-4.3.4/src\coap_uri.c **** }
 1125              		.loc 1 270 10 is_stmt 0
 1126 0000 8146     		li	a3,0
 1127 0002 17030000 		tail	coap_split_uri_sub
 1127      67000300 
 1128              	.LVL123:
 1129              		.cfi_endproc
 1130              	.LFE33:
 1132              		.section	.text.coap_split_proxy_uri,"ax",@progbits
 1133              		.align	1
 1134              		.globl	coap_split_proxy_uri
 1136              	coap_split_proxy_uri:
 1137              	.LFB34:
 274:C:/Users/stapi/OneDrive/Desktop/GD32VW553/GD32VW55X_Wifi_BLE_SDK/GD32VW55x_RELEASE_V1.0.2/MSDK/lwip/libcoap-4.3.4/src\coap_uri.c ****   return coap_split_uri_sub(str_var, len, uri, COAP_URI_CHECK_PROXY);
 1138              		.loc 1 274 75 is_stmt 1
 1139              		.cfi_startproc
 1140              	.LVL124:
 275:C:/Users/stapi/OneDrive/Desktop/GD32VW553/GD32VW55X_Wifi_BLE_SDK/GD32VW55x_RELEASE_V1.0.2/MSDK/lwip/libcoap-4.3.4/src\coap_uri.c **** }
 1141              		.loc 1 275 3
 275:C:/Users/stapi/OneDrive/Desktop/GD32VW553/GD32VW55X_Wifi_BLE_SDK/GD32VW55x_RELEASE_V1.0.2/MSDK/lwip/libcoap-4.3.4/src\coap_uri.c **** }
 1142              		.loc 1 275 10 is_stmt 0
 1143 0000 8546     		li	a3,1
 1144 0002 17030000 		tail	coap_split_uri_sub
 1144      67000300 
 1145              	.LVL125:
 1146              		.cfi_endproc
 1147              	.LFE34:
 1149              		.section	.text.coap_host_is_unix_domain,"ax",@progbits
 1150              		.align	1
 1151              		.globl	coap_host_is_unix_domain
 1153              	coap_host_is_unix_domain:
 1154              	.LFB36:
 386:C:/Users/stapi/OneDrive/Desktop/GD32VW553/GD32VW55X_Wifi_BLE_SDK/GD32VW55x_RELEASE_V1.0.2/MSDK/lwip/libcoap-4.3.4/src\coap_uri.c ****   if (host->length >= 3 && host->s[0] == '%' &&
 1155              		.loc 1 386 56 is_stmt 1
 1156              		.cfi_startproc
 1157              	.LVL126:
 387:C:/Users/stapi/OneDrive/Desktop/GD32VW553/GD32VW55X_Wifi_BLE_SDK/GD32VW55x_RELEASE_V1.0.2/MSDK/lwip/libcoap-4.3.4/src\coap_uri.c ****       host->s[1] == '2' &&
 1158              		.loc 1 387 3
 387:C:/Users/stapi/OneDrive/Desktop/GD32VW553/GD32VW55X_Wifi_BLE_SDK/GD32VW55x_RELEASE_V1.0.2/MSDK/lwip/libcoap-4.3.4/src\coap_uri.c ****       host->s[1] == '2' &&
 1159              		.loc 1 387 11 is_stmt 0
 1160 0000 1841     		lw	a4,0(a0)
 387:C:/Users/stapi/OneDrive/Desktop/GD32VW553/GD32VW55X_Wifi_BLE_SDK/GD32VW55x_RELEASE_V1.0.2/MSDK/lwip/libcoap-4.3.4/src\coap_uri.c ****       host->s[1] == '2' &&
 1161              		.loc 1 387 6
 1162 0002 8946     		li	a3,2
 386:C:/Users/stapi/OneDrive/Desktop/GD32VW553/GD32VW55X_Wifi_BLE_SDK/GD32VW55x_RELEASE_V1.0.2/MSDK/lwip/libcoap-4.3.4/src\coap_uri.c ****   if (host->length >= 3 && host->s[0] == '%' &&
 1163              		.loc 1 386 56
 1164 0004 AA87     		mv	a5,a0
 387:C:/Users/stapi/OneDrive/Desktop/GD32VW553/GD32VW55X_Wifi_BLE_SDK/GD32VW55x_RELEASE_V1.0.2/MSDK/lwip/libcoap-4.3.4/src\coap_uri.c ****       host->s[1] == '2' &&
 1165              		.loc 1 387 6
 1166 0006 63F9E602 		bleu	a4,a3,.L133
 387:C:/Users/stapi/OneDrive/Desktop/GD32VW553/GD32VW55X_Wifi_BLE_SDK/GD32VW55x_RELEASE_V1.0.2/MSDK/lwip/libcoap-4.3.4/src\coap_uri.c ****       host->s[1] == '2' &&
 1167              		.loc 1 387 32 discriminator 1
 1168 000a 5841     		lw	a4,4(a0)
 387:C:/Users/stapi/OneDrive/Desktop/GD32VW553/GD32VW55X_Wifi_BLE_SDK/GD32VW55x_RELEASE_V1.0.2/MSDK/lwip/libcoap-4.3.4/src\coap_uri.c ****       host->s[1] == '2' &&
 1169              		.loc 1 387 25 discriminator 1
 1170 000c 93065002 		li	a3,37
 1171 0010 03460700 		lbu	a2,0(a4)
 1172 0014 6314D602 		bne	a2,a3,.L134
 387:C:/Users/stapi/OneDrive/Desktop/GD32VW553/GD32VW55X_Wifi_BLE_SDK/GD32VW55x_RELEASE_V1.0.2/MSDK/lwip/libcoap-4.3.4/src\coap_uri.c ****       host->s[1] == '2' &&
 1173              		.loc 1 387 46 discriminator 2
 1174 0018 03461700 		lbu	a2,1(a4)
 1175 001c 93062003 		li	a3,50
 1176 0020 631ED600 		bne	a2,a3,.L134
 388:C:/Users/stapi/OneDrive/Desktop/GD32VW553/GD32VW55X_Wifi_BLE_SDK/GD32VW55x_RELEASE_V1.0.2/MSDK/lwip/libcoap-4.3.4/src\coap_uri.c ****       (host->s[2] == 'F' || host->s[2] == 'f')) {
 1177              		.loc 1 388 25
 1178 0024 03472700 		lbu	a4,2(a4)
 1179 0028 93066004 		li	a3,70
 390:C:/Users/stapi/OneDrive/Desktop/GD32VW553/GD32VW55X_Wifi_BLE_SDK/GD32VW55x_RELEASE_V1.0.2/MSDK/lwip/libcoap-4.3.4/src\coap_uri.c ****   }
 1180              		.loc 1 390 12
 1181 002c 0545     		li	a0,1
 1182              	.LVL127:
 388:C:/Users/stapi/OneDrive/Desktop/GD32VW553/GD32VW55X_Wifi_BLE_SDK/GD32VW55x_RELEASE_V1.0.2/MSDK/lwip/libcoap-4.3.4/src\coap_uri.c ****       (host->s[2] == 'F' || host->s[2] == 'f')) {
 1183              		.loc 1 388 25
 1184 002e 1377F70D 		andi	a4,a4,223
 1185 0032 6315D700 		bne	a4,a3,.L134
 1186 0036 8280     		ret
 1187              	.LVL128:
 1188              	.L133:
 392:C:/Users/stapi/OneDrive/Desktop/GD32VW553/GD32VW55X_Wifi_BLE_SDK/GD32VW55x_RELEASE_V1.0.2/MSDK/lwip/libcoap-4.3.4/src\coap_uri.c ****     return 1;
 1189              		.loc 1 392 3 is_stmt 1
 394:C:/Users/stapi/OneDrive/Desktop/GD32VW553/GD32VW55X_Wifi_BLE_SDK/GD32VW55x_RELEASE_V1.0.2/MSDK/lwip/libcoap-4.3.4/src\coap_uri.c **** }
 1190              		.loc 1 394 10 is_stmt 0
 1191 0038 0145     		li	a0,0
 1192              	.LVL129:
 392:C:/Users/stapi/OneDrive/Desktop/GD32VW553/GD32VW55X_Wifi_BLE_SDK/GD32VW55x_RELEASE_V1.0.2/MSDK/lwip/libcoap-4.3.4/src\coap_uri.c ****     return 1;
 1193              		.loc 1 392 6
 1194 003a 01CB     		beq	a4,zero,.L132
 1195              	.L134:
 1196              	.LVL130:
 1197              	.LBB38:
 1198              	.LBB39:
 392:C:/Users/stapi/OneDrive/Desktop/GD32VW553/GD32VW55X_Wifi_BLE_SDK/GD32VW55x_RELEASE_V1.0.2/MSDK/lwip/libcoap-4.3.4/src\coap_uri.c ****     return 1;
 1199              		.loc 1 392 35 discriminator 1
 1200 003c DC43     		lw	a5,4(a5)
 1201              	.LVL131:
 392:C:/Users/stapi/OneDrive/Desktop/GD32VW553/GD32VW55X_Wifi_BLE_SDK/GD32VW55x_RELEASE_V1.0.2/MSDK/lwip/libcoap-4.3.4/src\coap_uri.c ****     return 1;
 1202              		.loc 1 392 25 discriminator 1
 1203 003e 03C50700 		lbu	a0,0(a5)
 1204 0042 130515FD 		addi	a0,a0,-47
 1205 0046 13351500 		seqz	a0,a0
 1206              	.L132:
 1207              	.LBE39:
 1208              	.LBE38:
 395:C:/Users/stapi/OneDrive/Desktop/GD32VW553/GD32VW55X_Wifi_BLE_SDK/GD32VW55x_RELEASE_V1.0.2/MSDK/lwip/libcoap-4.3.4/src\coap_uri.c **** 
 1209              		.loc 1 395 1
 1210 004a 8280     		ret
 1211              		.cfi_endproc
 1212              	.LFE36:
 1214              		.section	.text.coap_split_path,"ax",@progbits
 1215              		.align	1
 1216              		.globl	coap_split_path
 1218              	coap_split_path:
 1219              	.LFB43:
 601:C:/Users/stapi/OneDrive/Desktop/GD32VW553/GD32VW55X_Wifi_BLE_SDK/GD32VW55x_RELEASE_V1.0.2/MSDK/lwip/libcoap-4.3.4/src\coap_uri.c ****   struct cnt_str tmp = { { *buflen, buf }, 0 };
 1220              		.loc 1 601 53 is_stmt 1
 1221              		.cfi_startproc
 1222              	.LVL132:
 1223 0000 17030000 		call	t0,__riscv_save_9
 1223      E7020300 
 1224              		.cfi_offset 24, -40
 1225              		.cfi_offset 23, -36
 1226              		.cfi_offset 22, -32
 1227              		.cfi_offset 21, -28
 1228              		.cfi_offset 20, -24
 1229              		.cfi_offset 19, -20
 1230              		.cfi_offset 18, -16
 1231              		.cfi_offset 9, -12
 1232              		.cfi_offset 8, -8
 1233              		.cfi_offset 1, -4
 1234              		.cfi_def_cfa_offset 48
 602:C:/Users/stapi/OneDrive/Desktop/GD32VW553/GD32VW55X_Wifi_BLE_SDK/GD32VW55x_RELEASE_V1.0.2/MSDK/lwip/libcoap-4.3.4/src\coap_uri.c **** 
 1235              		.loc 1 602 3
 602:C:/Users/stapi/OneDrive/Desktop/GD32VW553/GD32VW55X_Wifi_BLE_SDK/GD32VW55x_RELEASE_V1.0.2/MSDK/lwip/libcoap-4.3.4/src\coap_uri.c **** 
 1236              		.loc 1 602 18 is_stmt 0
 1237 0008 9C42     		lw	a5,0(a3)
 601:C:/Users/stapi/OneDrive/Desktop/GD32VW553/GD32VW55X_Wifi_BLE_SDK/GD32VW55x_RELEASE_V1.0.2/MSDK/lwip/libcoap-4.3.4/src\coap_uri.c ****   struct cnt_str tmp = { { *buflen, buf }, 0 };
 1238              		.loc 1 601 53
 1239 000a 4111     		addi	sp,sp,-16
 1240              		.cfi_def_cfa_offset 64
 601:C:/Users/stapi/OneDrive/Desktop/GD32VW553/GD32VW55X_Wifi_BLE_SDK/GD32VW55x_RELEASE_V1.0.2/MSDK/lwip/libcoap-4.3.4/src\coap_uri.c ****   struct cnt_str tmp = { { *buflen, buf }, 0 };
 1241              		.loc 1 601 53
 1242 000c 3684     		mv	s0,a3
 602:C:/Users/stapi/OneDrive/Desktop/GD32VW553/GD32VW55X_Wifi_BLE_SDK/GD32VW55x_RELEASE_V1.0.2/MSDK/lwip/libcoap-4.3.4/src\coap_uri.c **** 
 1243              		.loc 1 602 18
 1244 000e 3EC2     		sw	a5,4(sp)
 1245 0010 32C4     		sw	a2,8(sp)
 1246 0012 02C6     		sw	zero,12(sp)
 604:C:/Users/stapi/OneDrive/Desktop/GD32VW553/GD32VW55X_Wifi_BLE_SDK/GD32VW55x_RELEASE_V1.0.2/MSDK/lwip/libcoap-4.3.4/src\coap_uri.c **** 
 1247              		.loc 1 604 3 is_stmt 1
 1248              	.LVL133:
 1249 0014 B304B500 		add	s1,a0,a1
 1250              	.LBB48:
 1251              	.LBB49:
 556:C:/Users/stapi/OneDrive/Desktop/GD32VW553/GD32VW55X_Wifi_BLE_SDK/GD32VW55x_RELEASE_V1.0.2/MSDK/lwip/libcoap-4.3.4/src\coap_uri.c ****   while (length > 0 && !strnchr((const uint8_t *)"?#", 2, *q)) {
 1252              		.loc 1 556 9 is_stmt 0
 1253 0018 AA87     		mv	a5,a0
 1254              	.LBB50:
 1255              	.LBB51:
  40:C:/Users/stapi/OneDrive/Desktop/GD32VW553/GD32VW55X_Wifi_BLE_SDK/GD32VW55x_RELEASE_V1.0.2/MSDK/lwip/libcoap-4.3.4/src\coap_uri.c ****     --len;
 1256              		.loc 1 40 14
 1257 001a 930AF003 		li	s5,63
 1258 001e 130A3002 		li	s4,35
 1259              	.LBE51:
 1260              	.LBE50:
 558:C:/Users/stapi/OneDrive/Desktop/GD32VW553/GD32VW55X_Wifi_BLE_SDK/GD32VW55x_RELEASE_V1.0.2/MSDK/lwip/libcoap-4.3.4/src\coap_uri.c **** 
 1261              		.loc 1 558 8
 1262 0022 130BF002 		li	s6,47
 1263              	.LBB53:
 1264              	.LBB54:
 536:C:/Users/stapi/OneDrive/Desktop/GD32VW553/GD32VW55X_Wifi_BLE_SDK/GD32VW55x_RELEASE_V1.0.2/MSDK/lwip/libcoap-4.3.4/src\coap_uri.c **** }
 1265              		.loc 1 536 14
 1266 0026 1309E002 		li	s2,46
 536:C:/Users/stapi/OneDrive/Desktop/GD32VW553/GD32VW55X_Wifi_BLE_SDK/GD32VW55x_RELEASE_V1.0.2/MSDK/lwip/libcoap-4.3.4/src\coap_uri.c **** }
 1267              		.loc 1 536 27
 1268 002a 854B     		li	s7,1
 536:C:/Users/stapi/OneDrive/Desktop/GD32VW553/GD32VW55X_Wifi_BLE_SDK/GD32VW55x_RELEASE_V1.0.2/MSDK/lwip/libcoap-4.3.4/src\coap_uri.c **** }
 1269              		.loc 1 536 40
 1270 002c 094C     		li	s8,2
 1271              	.LVL134:
 1272              	.L140:
 1273              	.LBE54:
 1274              	.LBE53:
 557:C:/Users/stapi/OneDrive/Desktop/GD32VW553/GD32VW55X_Wifi_BLE_SDK/GD32VW55x_RELEASE_V1.0.2/MSDK/lwip/libcoap-4.3.4/src\coap_uri.c ****     if (*q == '/') {                /* start new segment */
 1275              		.loc 1 557 9 is_stmt 1
 1276 002e 639C9700 		bne	a5,s1,.L144
 1277              	.L147:
 572:C:/Users/stapi/OneDrive/Desktop/GD32VW553/GD32VW55X_Wifi_BLE_SDK/GD32VW55x_RELEASE_V1.0.2/MSDK/lwip/libcoap-4.3.4/src\coap_uri.c ****     h(p, q - p, data);
 1278              		.loc 1 572 3
 572:C:/Users/stapi/OneDrive/Desktop/GD32VW553/GD32VW55X_Wifi_BLE_SDK/GD32VW55x_RELEASE_V1.0.2/MSDK/lwip/libcoap-4.3.4/src\coap_uri.c ****     h(p, q - p, data);
 1279              		.loc 1 572 18 is_stmt 0
 1280 0032 B385A740 		sub	a1,a5,a0
 1281              	.LVL135:
 1282              	.LBB56:
 1283              	.LBB57:
 536:C:/Users/stapi/OneDrive/Desktop/GD32VW553/GD32VW55X_Wifi_BLE_SDK/GD32VW55x_RELEASE_V1.0.2/MSDK/lwip/libcoap-4.3.4/src\coap_uri.c **** }
 1284              		.loc 1 536 3 is_stmt 1
 536:C:/Users/stapi/OneDrive/Desktop/GD32VW553/GD32VW55X_Wifi_BLE_SDK/GD32VW55x_RELEASE_V1.0.2/MSDK/lwip/libcoap-4.3.4/src\coap_uri.c **** }
 1285              		.loc 1 536 27 is_stmt 0
 1286 0036 639AA704 		bne	a5,a0,.L145
 1287              	.LVL136:
 1288              	.L146:
 1289              	.LBE57:
 1290              	.LBE56:
 573:C:/Users/stapi/OneDrive/Desktop/GD32VW553/GD32VW55X_Wifi_BLE_SDK/GD32VW55x_RELEASE_V1.0.2/MSDK/lwip/libcoap-4.3.4/src\coap_uri.c ****   }
 1291              		.loc 1 573 5 is_stmt 1
 1292 003a 5000     		addi	a2,sp,4
 1293              	.LVL137:
 1294 003c 97000000 		call	write_option
 1294      E7800000 
 1295              	.LVL138:
 1296 0044 9DA0     		j	.L149
 1297              	.LVL139:
 1298              	.L144:
 557:C:/Users/stapi/OneDrive/Desktop/GD32VW553/GD32VW55X_Wifi_BLE_SDK/GD32VW55x_RELEASE_V1.0.2/MSDK/lwip/libcoap-4.3.4/src\coap_uri.c ****     if (*q == '/') {                /* start new segment */
 1299              		.loc 1 557 25 is_stmt 0
 1300 0046 03C70700 		lbu	a4,0(a5)
 1301              	.LVL140:
 1302              	.LBB59:
 1303              	.LBB52:
  40:C:/Users/stapi/OneDrive/Desktop/GD32VW553/GD32VW55X_Wifi_BLE_SDK/GD32VW55x_RELEASE_V1.0.2/MSDK/lwip/libcoap-4.3.4/src\coap_uri.c ****     --len;
 1304              		.loc 1 40 9 is_stmt 1
  40:C:/Users/stapi/OneDrive/Desktop/GD32VW553/GD32VW55X_Wifi_BLE_SDK/GD32VW55x_RELEASE_V1.0.2/MSDK/lwip/libcoap-4.3.4/src\coap_uri.c ****     --len;
 1305              		.loc 1 40 14 is_stmt 0
 1306 004a E30457FF 		beq	a4,s5,.L147
  41:C:/Users/stapi/OneDrive/Desktop/GD32VW553/GD32VW55X_Wifi_BLE_SDK/GD32VW55x_RELEASE_V1.0.2/MSDK/lwip/libcoap-4.3.4/src\coap_uri.c **** 
 1307              		.loc 1 41 5 is_stmt 1
 1308              	.LVL141:
  40:C:/Users/stapi/OneDrive/Desktop/GD32VW553/GD32VW55X_Wifi_BLE_SDK/GD32VW55x_RELEASE_V1.0.2/MSDK/lwip/libcoap-4.3.4/src\coap_uri.c ****     --len;
 1309              		.loc 1 40 9
  40:C:/Users/stapi/OneDrive/Desktop/GD32VW553/GD32VW55X_Wifi_BLE_SDK/GD32VW55x_RELEASE_V1.0.2/MSDK/lwip/libcoap-4.3.4/src\coap_uri.c ****     --len;
 1310              		.loc 1 40 14 is_stmt 0
 1311 004e E30247FF 		beq	a4,s4,.L147
  41:C:/Users/stapi/OneDrive/Desktop/GD32VW553/GD32VW55X_Wifi_BLE_SDK/GD32VW55x_RELEASE_V1.0.2/MSDK/lwip/libcoap-4.3.4/src\coap_uri.c **** 
 1312              		.loc 1 41 5 is_stmt 1
 1313              	.LVL142:
  40:C:/Users/stapi/OneDrive/Desktop/GD32VW553/GD32VW55X_Wifi_BLE_SDK/GD32VW55x_RELEASE_V1.0.2/MSDK/lwip/libcoap-4.3.4/src\coap_uri.c ****     --len;
 1314              		.loc 1 40 9
  43:C:/Users/stapi/OneDrive/Desktop/GD32VW553/GD32VW55X_Wifi_BLE_SDK/GD32VW55x_RELEASE_V1.0.2/MSDK/lwip/libcoap-4.3.4/src\coap_uri.c **** }
 1315              		.loc 1 43 3
 1316              	.LBE52:
 1317              	.LBE59:
 558:C:/Users/stapi/OneDrive/Desktop/GD32VW553/GD32VW55X_Wifi_BLE_SDK/GD32VW55x_RELEASE_V1.0.2/MSDK/lwip/libcoap-4.3.4/src\coap_uri.c **** 
 1318              		.loc 1 558 5
 1319 0052 93891700 		addi	s3,a5,1
 558:C:/Users/stapi/OneDrive/Desktop/GD32VW553/GD32VW55X_Wifi_BLE_SDK/GD32VW55x_RELEASE_V1.0.2/MSDK/lwip/libcoap-4.3.4/src\coap_uri.c **** 
 1320              		.loc 1 558 8 is_stmt 0
 1321 0056 63186703 		bne	a4,s6,.L141
 560:C:/Users/stapi/OneDrive/Desktop/GD32VW553/GD32VW55X_Wifi_BLE_SDK/GD32VW55x_RELEASE_V1.0.2/MSDK/lwip/libcoap-4.3.4/src\coap_uri.c ****         h(p, q - p, data);
 1322              		.loc 1 560 7 is_stmt 1
 560:C:/Users/stapi/OneDrive/Desktop/GD32VW553/GD32VW55X_Wifi_BLE_SDK/GD32VW55x_RELEASE_V1.0.2/MSDK/lwip/libcoap-4.3.4/src\coap_uri.c ****         h(p, q - p, data);
 1323              		.loc 1 560 22 is_stmt 0
 1324 005a B385A740 		sub	a1,a5,a0
 1325              	.LVL143:
 1326              	.LBB60:
 1327              	.LBB55:
 536:C:/Users/stapi/OneDrive/Desktop/GD32VW553/GD32VW55X_Wifi_BLE_SDK/GD32VW55x_RELEASE_V1.0.2/MSDK/lwip/libcoap-4.3.4/src\coap_uri.c **** }
 1328              		.loc 1 536 3 is_stmt 1
 536:C:/Users/stapi/OneDrive/Desktop/GD32VW553/GD32VW55X_Wifi_BLE_SDK/GD32VW55x_RELEASE_V1.0.2/MSDK/lwip/libcoap-4.3.4/src\coap_uri.c **** }
 1329              		.loc 1 536 27 is_stmt 0
 1330 005e 638EA700 		beq	a5,a0,.L142
 536:C:/Users/stapi/OneDrive/Desktop/GD32VW553/GD32VW55X_Wifi_BLE_SDK/GD32VW55x_RELEASE_V1.0.2/MSDK/lwip/libcoap-4.3.4/src\coap_uri.c **** }
 1331              		.loc 1 536 14
 1332 0062 83470500 		lbu	a5,0(a0)
 1333              	.LVL144:
 1334 0066 639A2701 		bne	a5,s2,.L142
 536:C:/Users/stapi/OneDrive/Desktop/GD32VW553/GD32VW55X_Wifi_BLE_SDK/GD32VW55x_RELEASE_V1.0.2/MSDK/lwip/libcoap-4.3.4/src\coap_uri.c **** }
 1335              		.loc 1 536 27
 1336 006a 638D7501 		beq	a1,s7,.L143
 536:C:/Users/stapi/OneDrive/Desktop/GD32VW553/GD32VW55X_Wifi_BLE_SDK/GD32VW55x_RELEASE_V1.0.2/MSDK/lwip/libcoap-4.3.4/src\coap_uri.c **** }
 1337              		.loc 1 536 40
 1338 006e 63968501 		bne	a1,s8,.L142
 536:C:/Users/stapi/OneDrive/Desktop/GD32VW553/GD32VW55X_Wifi_BLE_SDK/GD32VW55x_RELEASE_V1.0.2/MSDK/lwip/libcoap-4.3.4/src\coap_uri.c **** }
 1339              		.loc 1 536 53
 1340 0072 83471500 		lbu	a5,1(a0)
 1341 0076 63872701 		beq	a5,s2,.L143
 1342              	.L142:
 1343              	.LVL145:
 1344              	.LBE55:
 1345              	.LBE60:
 561:C:/Users/stapi/OneDrive/Desktop/GD32VW553/GD32VW55X_Wifi_BLE_SDK/GD32VW55x_RELEASE_V1.0.2/MSDK/lwip/libcoap-4.3.4/src\coap_uri.c ****       }
 1346              		.loc 1 561 9 is_stmt 1
 1347 007a 5000     		addi	a2,sp,4
 1348              	.LVL146:
 1349 007c 97000000 		call	write_option
 1349      E7800000 
 1350              	.LVL147:
 1351              	.L143:
 564:C:/Users/stapi/OneDrive/Desktop/GD32VW553/GD32VW55X_Wifi_BLE_SDK/GD32VW55x_RELEASE_V1.0.2/MSDK/lwip/libcoap-4.3.4/src\coap_uri.c ****     }
 1352              		.loc 1 564 7
 1353 0084 4E85     		mv	a0,s3
 1354              	.LVL148:
 1355              	.L141:
 567:C:/Users/stapi/OneDrive/Desktop/GD32VW553/GD32VW55X_Wifi_BLE_SDK/GD32VW55x_RELEASE_V1.0.2/MSDK/lwip/libcoap-4.3.4/src\coap_uri.c ****     length--;
 1356              		.loc 1 567 5
 567:C:/Users/stapi/OneDrive/Desktop/GD32VW553/GD32VW55X_Wifi_BLE_SDK/GD32VW55x_RELEASE_V1.0.2/MSDK/lwip/libcoap-4.3.4/src\coap_uri.c ****     length--;
 1357              		.loc 1 567 6 is_stmt 0
 1358 0086 CE87     		mv	a5,s3
 1359              	.LVL149:
 568:C:/Users/stapi/OneDrive/Desktop/GD32VW553/GD32VW55X_Wifi_BLE_SDK/GD32VW55x_RELEASE_V1.0.2/MSDK/lwip/libcoap-4.3.4/src\coap_uri.c ****   }
 1360              		.loc 1 568 5 is_stmt 1
 1361 0088 5DB7     		j	.L140
 1362              	.LVL150:
 1363              	.L145:
 1364              	.LBB61:
 1365              	.LBB58:
 536:C:/Users/stapi/OneDrive/Desktop/GD32VW553/GD32VW55X_Wifi_BLE_SDK/GD32VW55x_RELEASE_V1.0.2/MSDK/lwip/libcoap-4.3.4/src\coap_uri.c **** }
 1366              		.loc 1 536 14 is_stmt 0
 1367 008a 83470500 		lbu	a5,0(a0)
 1368              	.LVL151:
 1369 008e 1307E002 		li	a4,46
 1370 0092 E394E7FA 		bne	a5,a4,.L146
 536:C:/Users/stapi/OneDrive/Desktop/GD32VW553/GD32VW55X_Wifi_BLE_SDK/GD32VW55x_RELEASE_V1.0.2/MSDK/lwip/libcoap-4.3.4/src\coap_uri.c **** }
 1371              		.loc 1 536 27
 1372 0096 0547     		li	a4,1
 1373 0098 6389E500 		beq	a1,a4,.L149
 536:C:/Users/stapi/OneDrive/Desktop/GD32VW553/GD32VW55X_Wifi_BLE_SDK/GD32VW55x_RELEASE_V1.0.2/MSDK/lwip/libcoap-4.3.4/src\coap_uri.c **** }
 1374              		.loc 1 536 40
 1375 009c 0947     		li	a4,2
 1376 009e E39EE5F8 		bne	a1,a4,.L146
 536:C:/Users/stapi/OneDrive/Desktop/GD32VW553/GD32VW55X_Wifi_BLE_SDK/GD32VW55x_RELEASE_V1.0.2/MSDK/lwip/libcoap-4.3.4/src\coap_uri.c **** }
 1377              		.loc 1 536 53
 1378 00a2 03471500 		lbu	a4,1(a0)
 1379 00a6 E31AF7F8 		bne	a4,a5,.L146
 1380              	.LVL152:
 1381              	.L149:
 1382              	.LBE58:
 1383              	.LBE61:
 576:C:/Users/stapi/OneDrive/Desktop/GD32VW553/GD32VW55X_Wifi_BLE_SDK/GD32VW55x_RELEASE_V1.0.2/MSDK/lwip/libcoap-4.3.4/src\coap_uri.c **** }
 1384              		.loc 1 576 3 is_stmt 1
 1385              	.LBE49:
 1386              	.LBE48:
 606:C:/Users/stapi/OneDrive/Desktop/GD32VW553/GD32VW55X_Wifi_BLE_SDK/GD32VW55x_RELEASE_V1.0.2/MSDK/lwip/libcoap-4.3.4/src\coap_uri.c **** 
 1387              		.loc 1 606 3
 606:C:/Users/stapi/OneDrive/Desktop/GD32VW553/GD32VW55X_Wifi_BLE_SDK/GD32VW55x_RELEASE_V1.0.2/MSDK/lwip/libcoap-4.3.4/src\coap_uri.c **** 
 1388              		.loc 1 606 21 is_stmt 0
 1389 00aa 1C40     		lw	a5,0(s0)
 1390 00ac 1247     		lw	a4,4(sp)
 609:C:/Users/stapi/OneDrive/Desktop/GD32VW553/GD32VW55X_Wifi_BLE_SDK/GD32VW55x_RELEASE_V1.0.2/MSDK/lwip/libcoap-4.3.4/src\coap_uri.c **** 
 1391              		.loc 1 609 1
 1392 00ae 3245     		lw	a0,12(sp)
 606:C:/Users/stapi/OneDrive/Desktop/GD32VW553/GD32VW55X_Wifi_BLE_SDK/GD32VW55x_RELEASE_V1.0.2/MSDK/lwip/libcoap-4.3.4/src\coap_uri.c **** 
 1393              		.loc 1 606 21
 1394 00b0 998F     		sub	a5,a5,a4
 606:C:/Users/stapi/OneDrive/Desktop/GD32VW553/GD32VW55X_Wifi_BLE_SDK/GD32VW55x_RELEASE_V1.0.2/MSDK/lwip/libcoap-4.3.4/src\coap_uri.c **** 
 1395              		.loc 1 606 11
 1396 00b2 1CC0     		sw	a5,0(s0)
 608:C:/Users/stapi/OneDrive/Desktop/GD32VW553/GD32VW55X_Wifi_BLE_SDK/GD32VW55x_RELEASE_V1.0.2/MSDK/lwip/libcoap-4.3.4/src\coap_uri.c **** }
 1397              		.loc 1 608 3 is_stmt 1
 609:C:/Users/stapi/OneDrive/Desktop/GD32VW553/GD32VW55X_Wifi_BLE_SDK/GD32VW55x_RELEASE_V1.0.2/MSDK/lwip/libcoap-4.3.4/src\coap_uri.c **** 
 1398              		.loc 1 609 1 is_stmt 0
 1399 00b4 4101     		addi	sp,sp,16
 1400              		.cfi_def_cfa_offset 0
 1401 00b6 17030000 		tail	__riscv_restore_9
 1401      67000300 
 1402              		.cfi_restore 24
 1403              		.cfi_restore 23
 1404              		.cfi_restore 22
 1405              		.cfi_restore 21
 1406              		.cfi_restore 20
 1407              		.cfi_restore 19
 1408              		.cfi_restore 18
 1409              		.cfi_restore 9
 1410              		.cfi_restore 8
 1411              		.cfi_restore 1
 1412              		.cfi_def_cfa_offset -48
 1413              		.cfi_endproc
 1414              	.LFE43:
 1416              		.section	.text.coap_split_query,"ax",@progbits
 1417              		.align	1
 1418              		.globl	coap_split_query
 1420              	coap_split_query:
 1421              	.LFB44:
 613:C:/Users/stapi/OneDrive/Desktop/GD32VW553/GD32VW55X_Wifi_BLE_SDK/GD32VW55x_RELEASE_V1.0.2/MSDK/lwip/libcoap-4.3.4/src\coap_uri.c ****   struct cnt_str tmp = { { *buflen, buf }, 0 };
 1422              		.loc 1 613 54 is_stmt 1
 1423              		.cfi_startproc
 1424              	.LVL153:
 1425 0000 17030000 		call	t0,__riscv_save_5
 1425      E7020300 
 1426              		.cfi_offset 20, -24
 1427              		.cfi_offset 19, -20
 1428              		.cfi_offset 18, -16
 1429              		.cfi_offset 9, -12
 1430              		.cfi_offset 8, -8
 1431              		.cfi_offset 1, -4
 1432              		.cfi_def_cfa_offset 32
 614:C:/Users/stapi/OneDrive/Desktop/GD32VW553/GD32VW55X_Wifi_BLE_SDK/GD32VW55x_RELEASE_V1.0.2/MSDK/lwip/libcoap-4.3.4/src\coap_uri.c ****   const uint8_t *p;
 1433              		.loc 1 614 18 is_stmt 0
 1434 0008 9842     		lw	a4,0(a3)
 613:C:/Users/stapi/OneDrive/Desktop/GD32VW553/GD32VW55X_Wifi_BLE_SDK/GD32VW55x_RELEASE_V1.0.2/MSDK/lwip/libcoap-4.3.4/src\coap_uri.c ****   struct cnt_str tmp = { { *buflen, buf }, 0 };
 1435              		.loc 1 613 54
 1436 000a 4111     		addi	sp,sp,-16
 1437              		.cfi_def_cfa_offset 48
 613:C:/Users/stapi/OneDrive/Desktop/GD32VW553/GD32VW55X_Wifi_BLE_SDK/GD32VW55x_RELEASE_V1.0.2/MSDK/lwip/libcoap-4.3.4/src\coap_uri.c ****   struct cnt_str tmp = { { *buflen, buf }, 0 };
 1438              		.loc 1 613 54
 1439 000c AA87     		mv	a5,a0
 614:C:/Users/stapi/OneDrive/Desktop/GD32VW553/GD32VW55X_Wifi_BLE_SDK/GD32VW55x_RELEASE_V1.0.2/MSDK/lwip/libcoap-4.3.4/src\coap_uri.c ****   const uint8_t *p;
 1440              		.loc 1 614 3 is_stmt 1
 613:C:/Users/stapi/OneDrive/Desktop/GD32VW553/GD32VW55X_Wifi_BLE_SDK/GD32VW55x_RELEASE_V1.0.2/MSDK/lwip/libcoap-4.3.4/src\coap_uri.c ****   struct cnt_str tmp = { { *buflen, buf }, 0 };
 1441              		.loc 1 613 54 is_stmt 0
 1442 000e 3684     		mv	s0,a3
 614:C:/Users/stapi/OneDrive/Desktop/GD32VW553/GD32VW55X_Wifi_BLE_SDK/GD32VW55x_RELEASE_V1.0.2/MSDK/lwip/libcoap-4.3.4/src\coap_uri.c ****   const uint8_t *p;
 1443              		.loc 1 614 18
 1444 0010 3AC2     		sw	a4,4(sp)
 1445 0012 32C4     		sw	a2,8(sp)
 1446 0014 02C6     		sw	zero,12(sp)
 615:C:/Users/stapi/OneDrive/Desktop/GD32VW553/GD32VW55X_Wifi_BLE_SDK/GD32VW55x_RELEASE_V1.0.2/MSDK/lwip/libcoap-4.3.4/src\coap_uri.c **** 
 1447              		.loc 1 615 3 is_stmt 1
 617:C:/Users/stapi/OneDrive/Desktop/GD32VW553/GD32VW55X_Wifi_BLE_SDK/GD32VW55x_RELEASE_V1.0.2/MSDK/lwip/libcoap-4.3.4/src\coap_uri.c ****   while (length > 0 && *s != '#') {
 1448              		.loc 1 617 3
 1449              	.LVL154:
 618:C:/Users/stapi/OneDrive/Desktop/GD32VW553/GD32VW55X_Wifi_BLE_SDK/GD32VW55x_RELEASE_V1.0.2/MSDK/lwip/libcoap-4.3.4/src\coap_uri.c ****     if (*s == '&') {                /* start new query element */
 1450              		.loc 1 618 3
 1451 0016 B304B500 		add	s1,a0,a1
 618:C:/Users/stapi/OneDrive/Desktop/GD32VW553/GD32VW55X_Wifi_BLE_SDK/GD32VW55x_RELEASE_V1.0.2/MSDK/lwip/libcoap-4.3.4/src\coap_uri.c ****     if (*s == '&') {                /* start new query element */
 1452              		.loc 1 618 21 is_stmt 0
 1453 001a 93093002 		li	s3,35
 619:C:/Users/stapi/OneDrive/Desktop/GD32VW553/GD32VW55X_Wifi_BLE_SDK/GD32VW55x_RELEASE_V1.0.2/MSDK/lwip/libcoap-4.3.4/src\coap_uri.c ****       write_option(p, s - p, &tmp);
 1454              		.loc 1 619 8
 1455 001e 130A6002 		li	s4,38
 1456              	.LVL155:
 1457              	.L155:
 618:C:/Users/stapi/OneDrive/Desktop/GD32VW553/GD32VW55X_Wifi_BLE_SDK/GD32VW55x_RELEASE_V1.0.2/MSDK/lwip/libcoap-4.3.4/src\coap_uri.c ****     if (*s == '&') {                /* start new query element */
 1458              		.loc 1 618 9 is_stmt 1
 1459 0022 63869700 		beq	a5,s1,.L157
 618:C:/Users/stapi/OneDrive/Desktop/GD32VW553/GD32VW55X_Wifi_BLE_SDK/GD32VW55x_RELEASE_V1.0.2/MSDK/lwip/libcoap-4.3.4/src\coap_uri.c ****     if (*s == '&') {                /* start new query element */
 1460              		.loc 1 618 24 is_stmt 0 discriminator 1
 1461 0026 03C70700 		lbu	a4,0(a5)
 618:C:/Users/stapi/OneDrive/Desktop/GD32VW553/GD32VW55X_Wifi_BLE_SDK/GD32VW55x_RELEASE_V1.0.2/MSDK/lwip/libcoap-4.3.4/src\coap_uri.c ****     if (*s == '&') {                /* start new query element */
 1462              		.loc 1 618 21 discriminator 1
 1463 002a 63133703 		bne	a4,s3,.L158
 1464              	.L157:
 629:C:/Users/stapi/OneDrive/Desktop/GD32VW553/GD32VW55X_Wifi_BLE_SDK/GD32VW55x_RELEASE_V1.0.2/MSDK/lwip/libcoap-4.3.4/src\coap_uri.c **** 
 1465              		.loc 1 629 3 is_stmt 1
 1466 002e B385A740 		sub	a1,a5,a0
 1467 0032 5000     		addi	a2,sp,4
 1468 0034 97000000 		call	write_option
 1468      E7800000 
 1469              	.LVL156:
 631:C:/Users/stapi/OneDrive/Desktop/GD32VW553/GD32VW55X_Wifi_BLE_SDK/GD32VW55x_RELEASE_V1.0.2/MSDK/lwip/libcoap-4.3.4/src\coap_uri.c ****   return tmp.n;
 1470              		.loc 1 631 3
 631:C:/Users/stapi/OneDrive/Desktop/GD32VW553/GD32VW55X_Wifi_BLE_SDK/GD32VW55x_RELEASE_V1.0.2/MSDK/lwip/libcoap-4.3.4/src\coap_uri.c ****   return tmp.n;
 1471              		.loc 1 631 21 is_stmt 0
 1472 003c 1C40     		lw	a5,0(s0)
 1473 003e 1247     		lw	a4,4(sp)
 633:C:/Users/stapi/OneDrive/Desktop/GD32VW553/GD32VW55X_Wifi_BLE_SDK/GD32VW55x_RELEASE_V1.0.2/MSDK/lwip/libcoap-4.3.4/src\coap_uri.c **** 
 1474              		.loc 1 633 1
 1475 0040 3245     		lw	a0,12(sp)
 631:C:/Users/stapi/OneDrive/Desktop/GD32VW553/GD32VW55X_Wifi_BLE_SDK/GD32VW55x_RELEASE_V1.0.2/MSDK/lwip/libcoap-4.3.4/src\coap_uri.c ****   return tmp.n;
 1476              		.loc 1 631 21
 1477 0042 998F     		sub	a5,a5,a4
 631:C:/Users/stapi/OneDrive/Desktop/GD32VW553/GD32VW55X_Wifi_BLE_SDK/GD32VW55x_RELEASE_V1.0.2/MSDK/lwip/libcoap-4.3.4/src\coap_uri.c ****   return tmp.n;
 1478              		.loc 1 631 11
 1479 0044 1CC0     		sw	a5,0(s0)
 632:C:/Users/stapi/OneDrive/Desktop/GD32VW553/GD32VW55X_Wifi_BLE_SDK/GD32VW55x_RELEASE_V1.0.2/MSDK/lwip/libcoap-4.3.4/src\coap_uri.c **** }
 1480              		.loc 1 632 3 is_stmt 1
 633:C:/Users/stapi/OneDrive/Desktop/GD32VW553/GD32VW55X_Wifi_BLE_SDK/GD32VW55x_RELEASE_V1.0.2/MSDK/lwip/libcoap-4.3.4/src\coap_uri.c **** 
 1481              		.loc 1 633 1 is_stmt 0
 1482 0046 4101     		addi	sp,sp,16
 1483              		.cfi_remember_state
 1484              		.cfi_def_cfa_offset 0
 1485 0048 17030000 		tail	__riscv_restore_5
 1485      67000300 
 1486              		.cfi_restore 20
 1487              		.cfi_restore 19
 1488              		.cfi_restore 18
 1489              		.cfi_restore 9
 1490              		.cfi_restore 8
 1491              		.cfi_restore 1
 1492              		.cfi_def_cfa_offset -32
 1493              	.LVL157:
 1494              	.L158:
 1495              		.cfi_restore_state
 619:C:/Users/stapi/OneDrive/Desktop/GD32VW553/GD32VW55X_Wifi_BLE_SDK/GD32VW55x_RELEASE_V1.0.2/MSDK/lwip/libcoap-4.3.4/src\coap_uri.c ****       write_option(p, s - p, &tmp);
 1496              		.loc 1 619 5 is_stmt 1
 621:C:/Users/stapi/OneDrive/Desktop/GD32VW553/GD32VW55X_Wifi_BLE_SDK/GD32VW55x_RELEASE_V1.0.2/MSDK/lwip/libcoap-4.3.4/src\coap_uri.c ****     }
 1497              		.loc 1 621 9 is_stmt 0
 1498 0050 13891700 		addi	s2,a5,1
 619:C:/Users/stapi/OneDrive/Desktop/GD32VW553/GD32VW55X_Wifi_BLE_SDK/GD32VW55x_RELEASE_V1.0.2/MSDK/lwip/libcoap-4.3.4/src\coap_uri.c ****       write_option(p, s - p, &tmp);
 1499              		.loc 1 619 8
 1500 0054 631A4701 		bne	a4,s4,.L156
 620:C:/Users/stapi/OneDrive/Desktop/GD32VW553/GD32VW55X_Wifi_BLE_SDK/GD32VW55x_RELEASE_V1.0.2/MSDK/lwip/libcoap-4.3.4/src\coap_uri.c ****       p = s + 1;
 1501              		.loc 1 620 7 is_stmt 1
 1502 0058 B385A740 		sub	a1,a5,a0
 1503 005c 5000     		addi	a2,sp,4
 1504 005e 97000000 		call	write_option
 1504      E7800000 
 1505              	.LVL158:
 621:C:/Users/stapi/OneDrive/Desktop/GD32VW553/GD32VW55X_Wifi_BLE_SDK/GD32VW55x_RELEASE_V1.0.2/MSDK/lwip/libcoap-4.3.4/src\coap_uri.c ****     }
 1506              		.loc 1 621 7
 621:C:/Users/stapi/OneDrive/Desktop/GD32VW553/GD32VW55X_Wifi_BLE_SDK/GD32VW55x_RELEASE_V1.0.2/MSDK/lwip/libcoap-4.3.4/src\coap_uri.c ****     }
 1507              		.loc 1 621 9 is_stmt 0
 1508 0066 4A85     		mv	a0,s2
 1509              	.LVL159:
 1510              	.L156:
 624:C:/Users/stapi/OneDrive/Desktop/GD32VW553/GD32VW55X_Wifi_BLE_SDK/GD32VW55x_RELEASE_V1.0.2/MSDK/lwip/libcoap-4.3.4/src\coap_uri.c ****     length--;
 1511              		.loc 1 624 5 is_stmt 1
 625:C:/Users/stapi/OneDrive/Desktop/GD32VW553/GD32VW55X_Wifi_BLE_SDK/GD32VW55x_RELEASE_V1.0.2/MSDK/lwip/libcoap-4.3.4/src\coap_uri.c ****   }
 1512              		.loc 1 625 5
 624:C:/Users/stapi/OneDrive/Desktop/GD32VW553/GD32VW55X_Wifi_BLE_SDK/GD32VW55x_RELEASE_V1.0.2/MSDK/lwip/libcoap-4.3.4/src\coap_uri.c ****     length--;
 1513              		.loc 1 624 6 is_stmt 0
 1514 0068 CA87     		mv	a5,s2
 1515 006a 65BF     		j	.L155
 1516              		.cfi_endproc
 1517              	.LFE44:
 1519              		.section	.rodata.coap_uri_into_options.str1.4,"aMS",@progbits,1
 1520              		.align	2
 1521              	.LC13:
 1522 0000 55524920 		.string	"URI path will be truncated (max buffer %zu)\n"
 1522      70617468 
 1522      2077696C 
 1522      6C206265 
 1522      20747275 
 1523 002d 000000   		.align	2
 1524              	.LC14:
 1525 0030 55524920 		.string	"URI query will be truncated (max buffer %zu)\n"
 1525      71756572 
 1525      79207769 
 1525      6C6C2062 
 1525      65207472 
 1526              		.section	.text.coap_uri_into_options,"ax",@progbits
 1527              		.align	1
 1528              		.globl	coap_uri_into_options
 1530              	coap_uri_into_options:
 1531              	.LFB35:
 281:C:/Users/stapi/OneDrive/Desktop/GD32VW553/GD32VW55X_Wifi_BLE_SDK/GD32VW55x_RELEASE_V1.0.2/MSDK/lwip/libcoap-4.3.4/src\coap_uri.c ****   int res;
 1532              		.loc 1 281 54 is_stmt 1
 1533              		.cfi_startproc
 1534              	.LVL160:
 1535 0000 17030000 		call	t0,__riscv_save_7
 1535      E7020300 
 1536              		.cfi_offset 22, -32
 1537              		.cfi_offset 21, -28
 1538              		.cfi_offset 20, -24
 1539              		.cfi_offset 19, -20
 1540              		.cfi_offset 18, -16
 1541              		.cfi_offset 9, -12
 1542              		.cfi_offset 8, -8
 1543              		.cfi_offset 1, -4
 1544              		.cfi_def_cfa_offset 32
 282:C:/Users/stapi/OneDrive/Desktop/GD32VW553/GD32VW55X_Wifi_BLE_SDK/GD32VW55x_RELEASE_V1.0.2/MSDK/lwip/libcoap-4.3.4/src\coap_uri.c ****   unsigned char *buf = _buf;
 1545              		.loc 1 282 3
 283:C:/Users/stapi/OneDrive/Desktop/GD32VW553/GD32VW55X_Wifi_BLE_SDK/GD32VW55x_RELEASE_V1.0.2/MSDK/lwip/libcoap-4.3.4/src\coap_uri.c ****   size_t buflen = _buflen;
 1546              		.loc 1 283 3
 281:C:/Users/stapi/OneDrive/Desktop/GD32VW553/GD32VW55X_Wifi_BLE_SDK/GD32VW55x_RELEASE_V1.0.2/MSDK/lwip/libcoap-4.3.4/src\coap_uri.c ****   int res;
 1547              		.loc 1 281 54 is_stmt 0
 1548 0008 3971     		addi	sp,sp,-64
 1549              		.cfi_def_cfa_offset 96
 284:C:/Users/stapi/OneDrive/Desktop/GD32VW553/GD32VW55X_Wifi_BLE_SDK/GD32VW55x_RELEASE_V1.0.2/MSDK/lwip/libcoap-4.3.4/src\coap_uri.c **** 
 1550              		.loc 1 284 10
 1551 000a 3ECA     		sw	a5,20(sp)
 281:C:/Users/stapi/OneDrive/Desktop/GD32VW553/GD32VW55X_Wifi_BLE_SDK/GD32VW55x_RELEASE_V1.0.2/MSDK/lwip/libcoap-4.3.4/src\coap_uri.c ****   int res;
 1552              		.loc 1 281 54
 1553 000c 2A84     		mv	s0,a0
 1554 000e 3289     		mv	s2,a2
 1555 0010 BA84     		mv	s1,a4
 1556              	.LVL161:
 284:C:/Users/stapi/OneDrive/Desktop/GD32VW553/GD32VW55X_Wifi_BLE_SDK/GD32VW55x_RELEASE_V1.0.2/MSDK/lwip/libcoap-4.3.4/src\coap_uri.c **** 
 1557              		.loc 1 284 3 is_stmt 1
 286:C:/Users/stapi/OneDrive/Desktop/GD32VW553/GD32VW55X_Wifi_BLE_SDK/GD32VW55x_RELEASE_V1.0.2/MSDK/lwip/libcoap-4.3.4/src\coap_uri.c ****     int add_option = 0;
 1558              		.loc 1 286 3
 281:C:/Users/stapi/OneDrive/Desktop/GD32VW553/GD32VW55X_Wifi_BLE_SDK/GD32VW55x_RELEASE_V1.0.2/MSDK/lwip/libcoap-4.3.4/src\coap_uri.c ****   int res;
 1559              		.loc 1 281 54 is_stmt 0
 1560 0012 3E8A     		mv	s4,a5
 286:C:/Users/stapi/OneDrive/Desktop/GD32VW553/GD32VW55X_Wifi_BLE_SDK/GD32VW55x_RELEASE_V1.0.2/MSDK/lwip/libcoap-4.3.4/src\coap_uri.c ****     int add_option = 0;
 1561              		.loc 1 286 6
 1562 0014 F1CE     		beq	a3,zero,.L162
 1563 0016 AE8A     		mv	s5,a1
 286:C:/Users/stapi/OneDrive/Desktop/GD32VW553/GD32VW55X_Wifi_BLE_SDK/GD32VW55x_RELEASE_V1.0.2/MSDK/lwip/libcoap-4.3.4/src\coap_uri.c ****     int add_option = 0;
 1564              		.loc 1 286 32 discriminator 1
 1565 0018 97000000 		call	coap_host_is_unix_domain
 1565      E7800000 
 1566              	.LVL162:
 286:C:/Users/stapi/OneDrive/Desktop/GD32VW553/GD32VW55X_Wifi_BLE_SDK/GD32VW55x_RELEASE_V1.0.2/MSDK/lwip/libcoap-4.3.4/src\coap_uri.c ****     int add_option = 0;
 1567              		.loc 1 286 28 discriminator 1
 1568 0020 61E9     		bne	a0,zero,.L162
 1569              	.LBB67:
 287:C:/Users/stapi/OneDrive/Desktop/GD32VW553/GD32VW55X_Wifi_BLE_SDK/GD32VW55x_RELEASE_V1.0.2/MSDK/lwip/libcoap-4.3.4/src\coap_uri.c **** 
 1570              		.loc 1 287 5 is_stmt 1
 1571              	.LVL163:
 289:C:/Users/stapi/OneDrive/Desktop/GD32VW553/GD32VW55X_Wifi_BLE_SDK/GD32VW55x_RELEASE_V1.0.2/MSDK/lwip/libcoap-4.3.4/src\coap_uri.c **** #if !defined(WITH_LWIP) && !defined(WITH_CONTIKI)
 1572              		.loc 1 289 5
 289:C:/Users/stapi/OneDrive/Desktop/GD32VW553/GD32VW55X_Wifi_BLE_SDK/GD32VW55x_RELEASE_V1.0.2/MSDK/lwip/libcoap-4.3.4/src\coap_uri.c **** #if !defined(WITH_LWIP) && !defined(WITH_CONTIKI)
 1573              		.loc 1 289 8 is_stmt 0
 1574 0022 63880A06 		beq	s5,zero,.L164
 289:C:/Users/stapi/OneDrive/Desktop/GD32VW553/GD32VW55X_Wifi_BLE_SDK/GD32VW55x_RELEASE_V1.0.2/MSDK/lwip/libcoap-4.3.4/src\coap_uri.c **** #if !defined(WITH_LWIP) && !defined(WITH_CONTIKI)
 1575              		.loc 1 289 25 discriminator 1
 1576 0026 1C40     		lw	a5,0(s0)
 289:C:/Users/stapi/OneDrive/Desktop/GD32VW553/GD32VW55X_Wifi_BLE_SDK/GD32VW55x_RELEASE_V1.0.2/MSDK/lwip/libcoap-4.3.4/src\coap_uri.c **** #if !defined(WITH_LWIP) && !defined(WITH_CONTIKI)
 1577              		.loc 1 289 13 discriminator 1
 1578 0028 ADC7     		beq	a5,zero,.L164
 1579              	.LBB68:
 293:C:/Users/stapi/OneDrive/Desktop/GD32VW553/GD32VW55X_Wifi_BLE_SDK/GD32VW55x_RELEASE_V1.0.2/MSDK/lwip/libcoap-4.3.4/src\coap_uri.c **** #endif /* WITH_LWIP || WITH_CONTIKI */
 1580              		.loc 1 293 7 is_stmt 1
 297:C:/Users/stapi/OneDrive/Desktop/GD32VW553/GD32VW55X_Wifi_BLE_SDK/GD32VW55x_RELEASE_V1.0.2/MSDK/lwip/libcoap-4.3.4/src\coap_uri.c ****       const uint8_t *cp = uri->host.s;
 1581              		.loc 1 297 7
 1582              	.LVL164:
 298:C:/Users/stapi/OneDrive/Desktop/GD32VW553/GD32VW55X_Wifi_BLE_SDK/GD32VW55x_RELEASE_V1.0.2/MSDK/lwip/libcoap-4.3.4/src\coap_uri.c **** 
 1583              		.loc 1 298 7
 298:C:/Users/stapi/OneDrive/Desktop/GD32VW553/GD32VW55X_Wifi_BLE_SDK/GD32VW55x_RELEASE_V1.0.2/MSDK/lwip/libcoap-4.3.4/src\coap_uri.c **** 
 1584              		.loc 1 298 22 is_stmt 0
 1585 002a 5840     		lw	a4,4(s0)
 1586              	.LVL165:
 301:C:/Users/stapi/OneDrive/Desktop/GD32VW553/GD32VW55X_Wifi_BLE_SDK/GD32VW55x_RELEASE_V1.0.2/MSDK/lwip/libcoap-4.3.4/src\coap_uri.c ****         if (cp[i] == '%') {
 1587              		.loc 1 301 7 is_stmt 1
 1588              	.LBB69:
 301:C:/Users/stapi/OneDrive/Desktop/GD32VW553/GD32VW55X_Wifi_BLE_SDK/GD32VW55x_RELEASE_V1.0.2/MSDK/lwip/libcoap-4.3.4/src\coap_uri.c ****         if (cp[i] == '%') {
 1589              		.loc 1 301 12
 301:C:/Users/stapi/OneDrive/Desktop/GD32VW553/GD32VW55X_Wifi_BLE_SDK/GD32VW55x_RELEASE_V1.0.2/MSDK/lwip/libcoap-4.3.4/src\coap_uri.c ****         if (cp[i] == '%') {
 1590              		.loc 1 301 26
 301:C:/Users/stapi/OneDrive/Desktop/GD32VW553/GD32VW55X_Wifi_BLE_SDK/GD32VW55x_RELEASE_V1.0.2/MSDK/lwip/libcoap-4.3.4/src\coap_uri.c ****         if (cp[i] == '%') {
 1591              		.loc 1 301 19 is_stmt 0
 1592 002c 8149     		li	s3,0
 302:C:/Users/stapi/OneDrive/Desktop/GD32VW553/GD32VW55X_Wifi_BLE_SDK/GD32VW55x_RELEASE_V1.0.2/MSDK/lwip/libcoap-4.3.4/src\coap_uri.c ****           /* %iface specified in host name */
 1593              		.loc 1 302 12
 1594 002e 93065002 		li	a3,37
 1595              	.LVL166:
 1596              	.L166:
 302:C:/Users/stapi/OneDrive/Desktop/GD32VW553/GD32VW55X_Wifi_BLE_SDK/GD32VW55x_RELEASE_V1.0.2/MSDK/lwip/libcoap-4.3.4/src\coap_uri.c ****           /* %iface specified in host name */
 1597              		.loc 1 302 9 is_stmt 1
 302:C:/Users/stapi/OneDrive/Desktop/GD32VW553/GD32VW55X_Wifi_BLE_SDK/GD32VW55x_RELEASE_V1.0.2/MSDK/lwip/libcoap-4.3.4/src\coap_uri.c ****           /* %iface specified in host name */
 1598              		.loc 1 302 15 is_stmt 0
 1599 0032 33063701 		add	a2,a4,s3
 302:C:/Users/stapi/OneDrive/Desktop/GD32VW553/GD32VW55X_Wifi_BLE_SDK/GD32VW55x_RELEASE_V1.0.2/MSDK/lwip/libcoap-4.3.4/src\coap_uri.c ****           /* %iface specified in host name */
 1600              		.loc 1 302 12
 1601 0036 03460600 		lbu	a2,0(a2)
 1602 003a 6305D600 		beq	a2,a3,.L165
 301:C:/Users/stapi/OneDrive/Desktop/GD32VW553/GD32VW55X_Wifi_BLE_SDK/GD32VW55x_RELEASE_V1.0.2/MSDK/lwip/libcoap-4.3.4/src\coap_uri.c ****         if (cp[i] == '%') {
 1603              		.loc 1 301 44 is_stmt 1 discriminator 2
 301:C:/Users/stapi/OneDrive/Desktop/GD32VW553/GD32VW55X_Wifi_BLE_SDK/GD32VW55x_RELEASE_V1.0.2/MSDK/lwip/libcoap-4.3.4/src\coap_uri.c ****         if (cp[i] == '%') {
 1604              		.loc 1 301 45 is_stmt 0 discriminator 2
 1605 003e 8509     		addi	s3,s3,1
 1606              	.LVL167:
 301:C:/Users/stapi/OneDrive/Desktop/GD32VW553/GD32VW55X_Wifi_BLE_SDK/GD32VW55x_RELEASE_V1.0.2/MSDK/lwip/libcoap-4.3.4/src\coap_uri.c ****         if (cp[i] == '%') {
 1607              		.loc 1 301 26 is_stmt 1 discriminator 2
 301:C:/Users/stapi/OneDrive/Desktop/GD32VW553/GD32VW55X_Wifi_BLE_SDK/GD32VW55x_RELEASE_V1.0.2/MSDK/lwip/libcoap-4.3.4/src\coap_uri.c ****         if (cp[i] == '%') {
 1608              		.loc 1 301 7 is_stmt 0 discriminator 2
 1609 0040 E39937FF 		bne	a5,s3,.L166
 1610              	.L165:
 1611              	.LVL168:
 1612              	.LBE69:
 309:C:/Users/stapi/OneDrive/Desktop/GD32VW553/GD32VW55X_Wifi_BLE_SDK/GD32VW55x_RELEASE_V1.0.2/MSDK/lwip/libcoap-4.3.4/src\coap_uri.c ****           (strlen(addr) != uri_host_len ||
 1613              		.loc 1 309 7 is_stmt 1
 309:C:/Users/stapi/OneDrive/Desktop/GD32VW553/GD32VW55X_Wifi_BLE_SDK/GD32VW55x_RELEASE_V1.0.2/MSDK/lwip/libcoap-4.3.4/src\coap_uri.c ****           (strlen(addr) != uri_host_len ||
 1614              		.loc 1 309 11 is_stmt 0
 1615 0044 13068002 		li	a2,40
 1616 0048 2C08     		addi	a1,sp,24
 1617 004a 5685     		mv	a0,s5
 1618 004c 97000000 		call	coap_print_ip_addr
 1618      E7800000 
 1619              	.LVL169:
 309:C:/Users/stapi/OneDrive/Desktop/GD32VW553/GD32VW55X_Wifi_BLE_SDK/GD32VW55x_RELEASE_V1.0.2/MSDK/lwip/libcoap-4.3.4/src\coap_uri.c ****           (strlen(addr) != uri_host_len ||
 1620              		.loc 1 309 10
 1621 0054 1DCD     		beq	a0,zero,.L164
 310:C:/Users/stapi/OneDrive/Desktop/GD32VW553/GD32VW55X_Wifi_BLE_SDK/GD32VW55x_RELEASE_V1.0.2/MSDK/lwip/libcoap-4.3.4/src\coap_uri.c ****            memcmp(addr, uri->host.s, uri_host_len) != 0)) {
 1622              		.loc 1 310 12 discriminator 1
 1623 0056 2808     		addi	a0,sp,24
 1624 0058 97000000 		call	strlen
 1624      E7800000 
 1625              	.LVL170:
 311:C:/Users/stapi/OneDrive/Desktop/GD32VW553/GD32VW55X_Wifi_BLE_SDK/GD32VW55x_RELEASE_V1.0.2/MSDK/lwip/libcoap-4.3.4/src\coap_uri.c ****         /* add Uri-Host */
 1626              		.loc 1 311 34 discriminator 1
 1627 0060 832A4400 		lw	s5,4(s0)
 1628              	.LVL171:
 309:C:/Users/stapi/OneDrive/Desktop/GD32VW553/GD32VW55X_Wifi_BLE_SDK/GD32VW55x_RELEASE_V1.0.2/MSDK/lwip/libcoap-4.3.4/src\coap_uri.c ****           (strlen(addr) != uri_host_len ||
 1629              		.loc 1 309 55 discriminator 1
 1630 0064 631A3501 		bne	a0,s3,.L168
 311:C:/Users/stapi/OneDrive/Desktop/GD32VW553/GD32VW55X_Wifi_BLE_SDK/GD32VW55x_RELEASE_V1.0.2/MSDK/lwip/libcoap-4.3.4/src\coap_uri.c ****         /* add Uri-Host */
 1631              		.loc 1 311 12
 1632 0068 4E86     		mv	a2,s3
 1633 006a D685     		mv	a1,s5
 1634 006c 2808     		addi	a0,sp,24
 1635 006e 97000000 		call	memcmp
 1635      E7800000 
 1636              	.LVL172:
 310:C:/Users/stapi/OneDrive/Desktop/GD32VW553/GD32VW55X_Wifi_BLE_SDK/GD32VW55x_RELEASE_V1.0.2/MSDK/lwip/libcoap-4.3.4/src\coap_uri.c ****            memcmp(addr, uri->host.s, uri_host_len) != 0)) {
 1637              		.loc 1 310 41
 1638 0076 11CD     		beq	a0,zero,.L164
 1639              	.L168:
 313:C:/Users/stapi/OneDrive/Desktop/GD32VW553/GD32VW55X_Wifi_BLE_SDK/GD32VW55x_RELEASE_V1.0.2/MSDK/lwip/libcoap-4.3.4/src\coap_uri.c ****                             coap_new_optlist(COAP_OPTION_URI_HOST,
 1640              		.loc 1 313 9 is_stmt 1
 1641 0078 0C40     		lw	a1,0(s0)
 1642 007a 5686     		mv	a2,s5
 1643 007c 0D45     		li	a0,3
 1644 007e 97000000 		call	coap_new_optlist
 1644      E7800000 
 1645              	.LVL173:
 1646 0086 AA85     		mv	a1,a0
 1647 0088 4A85     		mv	a0,s2
 1648 008a 97000000 		call	coap_insert_optlist
 1648      E7800000 
 1649              	.LVL174:
 1650              	.L164:
 1651              	.LBE68:
 320:C:/Users/stapi/OneDrive/Desktop/GD32VW553/GD32VW55X_Wifi_BLE_SDK/GD32VW55x_RELEASE_V1.0.2/MSDK/lwip/libcoap-4.3.4/src\coap_uri.c ****     case COAP_URI_SCHEME_HTTP:
 1652              		.loc 1 320 5
 320:C:/Users/stapi/OneDrive/Desktop/GD32VW553/GD32VW55X_Wifi_BLE_SDK/GD32VW55x_RELEASE_V1.0.2/MSDK/lwip/libcoap-4.3.4/src\coap_uri.c ****     case COAP_URI_SCHEME_HTTP:
 1653              		.loc 1 320 21 is_stmt 0
 1654 0092 584C     		lw	a4,28(s0)
 320:C:/Users/stapi/OneDrive/Desktop/GD32VW553/GD32VW55X_Wifi_BLE_SDK/GD32VW55x_RELEASE_V1.0.2/MSDK/lwip/libcoap-4.3.4/src\coap_uri.c ****     case COAP_URI_SCHEME_HTTP:
 1655              		.loc 1 320 5
 1656 0094 9947     		li	a5,6
 323:C:/Users/stapi/OneDrive/Desktop/GD32VW553/GD32VW55X_Wifi_BLE_SDK/GD32VW55x_RELEASE_V1.0.2/MSDK/lwip/libcoap-4.3.4/src\coap_uri.c ****         add_option = 1;
 1657              		.loc 1 323 14
 1658 0096 03568400 		lhu	a2,8(s0)
 320:C:/Users/stapi/OneDrive/Desktop/GD32VW553/GD32VW55X_Wifi_BLE_SDK/GD32VW55x_RELEASE_V1.0.2/MSDK/lwip/libcoap-4.3.4/src\coap_uri.c ****     case COAP_URI_SCHEME_HTTP:
 1659              		.loc 1 320 5
 1660 009a 6307F704 		beq	a4,a5,.L169
 1661 009e 63E3E704 		bgtu	a4,a5,.L170
 1662 00a2 9147     		li	a5,4
 1663 00a4 6302F704 		beq	a4,a5,.L169
 1664 00a8 9547     		li	a5,5
 1665              	.L207:
 1666 00aa 6309F704 		beq	a4,a5,.L171
 332:C:/Users/stapi/OneDrive/Desktop/GD32VW553/GD32VW55X_Wifi_BLE_SDK/GD32VW55x_RELEASE_V1.0.2/MSDK/lwip/libcoap-4.3.4/src\coap_uri.c ****                         COAP_DEFAULT_PORT))
 1667              		.loc 1 332 7 is_stmt 1
 1668              	.LVL175:
 1669              	.LBB70:
 1670              	.LBB71:
 1671              		.file 2 "..\\..\\..\\..\\lwip\\libcoap-4.3.4\\include/coap3/coap_uri.h"
   1:..\..\..\..\lwip\libcoap-4.3.4\include/coap3/coap_uri.h **** /*
   2:..\..\..\..\lwip\libcoap-4.3.4\include/coap3/coap_uri.h ****  * coap_uri.h -- helper functions for URI treatment
   3:..\..\..\..\lwip\libcoap-4.3.4\include/coap3/coap_uri.h ****  *
   4:..\..\..\..\lwip\libcoap-4.3.4\include/coap3/coap_uri.h ****  * Copyright (C) 2010-2023 Olaf Bergmann <bergmann@tzi.org>
   5:..\..\..\..\lwip\libcoap-4.3.4\include/coap3/coap_uri.h ****  *
   6:..\..\..\..\lwip\libcoap-4.3.4\include/coap3/coap_uri.h ****  * SPDX-License-Identifier: BSD-2-Clause
   7:..\..\..\..\lwip\libcoap-4.3.4\include/coap3/coap_uri.h ****  *
   8:..\..\..\..\lwip\libcoap-4.3.4\include/coap3/coap_uri.h ****  * This file is part of the CoAP library libcoap. Please see README for terms
   9:..\..\..\..\lwip\libcoap-4.3.4\include/coap3/coap_uri.h ****  * of use.
  10:..\..\..\..\lwip\libcoap-4.3.4\include/coap3/coap_uri.h ****  */
  11:..\..\..\..\lwip\libcoap-4.3.4\include/coap3/coap_uri.h **** 
  12:..\..\..\..\lwip\libcoap-4.3.4\include/coap3/coap_uri.h **** /**
  13:..\..\..\..\lwip\libcoap-4.3.4\include/coap3/coap_uri.h ****  * @file coap_uri.h
  14:..\..\..\..\lwip\libcoap-4.3.4\include/coap3/coap_uri.h ****  * @brief Helper functions for URI treatment
  15:..\..\..\..\lwip\libcoap-4.3.4\include/coap3/coap_uri.h ****  */
  16:..\..\..\..\lwip\libcoap-4.3.4\include/coap3/coap_uri.h **** 
  17:..\..\..\..\lwip\libcoap-4.3.4\include/coap3/coap_uri.h **** #ifndef COAP_URI_H_
  18:..\..\..\..\lwip\libcoap-4.3.4\include/coap3/coap_uri.h **** #define COAP_URI_H_
  19:..\..\..\..\lwip\libcoap-4.3.4\include/coap3/coap_uri.h **** 
  20:..\..\..\..\lwip\libcoap-4.3.4\include/coap3/coap_uri.h **** #include <stdint.h>
  21:..\..\..\..\lwip\libcoap-4.3.4\include/coap3/coap_uri.h **** 
  22:..\..\..\..\lwip\libcoap-4.3.4\include/coap3/coap_uri.h **** #include "coap_str.h"
  23:..\..\..\..\lwip\libcoap-4.3.4\include/coap3/coap_uri.h **** 
  24:..\..\..\..\lwip\libcoap-4.3.4\include/coap3/coap_uri.h **** /**
  25:..\..\..\..\lwip\libcoap-4.3.4\include/coap3/coap_uri.h ****  * The scheme specifiers. Secure schemes have an odd numeric value,
  26:..\..\..\..\lwip\libcoap-4.3.4\include/coap3/coap_uri.h ****  * others are even.
  27:..\..\..\..\lwip\libcoap-4.3.4\include/coap3/coap_uri.h ****  */
  28:..\..\..\..\lwip\libcoap-4.3.4\include/coap3/coap_uri.h **** typedef enum coap_uri_scheme_t {
  29:..\..\..\..\lwip\libcoap-4.3.4\include/coap3/coap_uri.h ****   COAP_URI_SCHEME_COAP = 0,
  30:..\..\..\..\lwip\libcoap-4.3.4\include/coap3/coap_uri.h ****   COAP_URI_SCHEME_COAPS,     /* 1 */
  31:..\..\..\..\lwip\libcoap-4.3.4\include/coap3/coap_uri.h ****   COAP_URI_SCHEME_COAP_TCP,  /* 2 */
  32:..\..\..\..\lwip\libcoap-4.3.4\include/coap3/coap_uri.h ****   COAP_URI_SCHEME_COAPS_TCP, /* 3 */
  33:..\..\..\..\lwip\libcoap-4.3.4\include/coap3/coap_uri.h ****   COAP_URI_SCHEME_HTTP,      /* 4 Proxy-Uri only */
  34:..\..\..\..\lwip\libcoap-4.3.4\include/coap3/coap_uri.h ****   COAP_URI_SCHEME_HTTPS,     /* 5 Proxy-Uri only */
  35:..\..\..\..\lwip\libcoap-4.3.4\include/coap3/coap_uri.h ****   COAP_URI_SCHEME_COAP_WS,   /* 6 */
  36:..\..\..\..\lwip\libcoap-4.3.4\include/coap3/coap_uri.h ****   COAP_URI_SCHEME_COAPS_WS,  /* 7 */
  37:..\..\..\..\lwip\libcoap-4.3.4\include/coap3/coap_uri.h ****   COAP_URI_SCHEME_LAST       /* 8 Size of scheme */
  38:..\..\..\..\lwip\libcoap-4.3.4\include/coap3/coap_uri.h **** } coap_uri_scheme_t;
  39:..\..\..\..\lwip\libcoap-4.3.4\include/coap3/coap_uri.h **** 
  40:..\..\..\..\lwip\libcoap-4.3.4\include/coap3/coap_uri.h **** /** This mask can be used to check if a parsed URI scheme is secure. */
  41:..\..\..\..\lwip\libcoap-4.3.4\include/coap3/coap_uri.h **** #define COAP_URI_SCHEME_SECURE_MASK 0x01
  42:..\..\..\..\lwip\libcoap-4.3.4\include/coap3/coap_uri.h **** 
  43:..\..\..\..\lwip\libcoap-4.3.4\include/coap3/coap_uri.h **** #define COAP_URI_SCHEME_COAP_BIT       (1 << COAP_URI_SCHEME_COAP)
  44:..\..\..\..\lwip\libcoap-4.3.4\include/coap3/coap_uri.h **** #define COAP_URI_SCHEME_COAPS_BIT      (1 << COAP_URI_SCHEME_COAPS)
  45:..\..\..\..\lwip\libcoap-4.3.4\include/coap3/coap_uri.h **** #define COAP_URI_SCHEME_COAP_TCP_BIT   (1 << COAP_URI_SCHEME_COAP_TCP)
  46:..\..\..\..\lwip\libcoap-4.3.4\include/coap3/coap_uri.h **** #define COAP_URI_SCHEME_COAPS_TCP_BIT  (1 << COAP_URI_SCHEME_COAPS_TCP)
  47:..\..\..\..\lwip\libcoap-4.3.4\include/coap3/coap_uri.h **** #define COAP_URI_SCHEME_HTTP_BIT       (1 << COAP_URI_SCHEME_HTTP)
  48:..\..\..\..\lwip\libcoap-4.3.4\include/coap3/coap_uri.h **** #define COAP_URI_SCHEME_HTTPS_BIT      (1 << COAP_URI_SCHEME_HTTPS)
  49:..\..\..\..\lwip\libcoap-4.3.4\include/coap3/coap_uri.h **** #define COAP_URI_SCHEME_COAP_WS_BIT    (1 << COAP_URI_SCHEME_COAP_WS)
  50:..\..\..\..\lwip\libcoap-4.3.4\include/coap3/coap_uri.h **** #define COAP_URI_SCHEME_COAPS_WS_BIT   (1 << COAP_URI_SCHEME_COAPS_WS)
  51:..\..\..\..\lwip\libcoap-4.3.4\include/coap3/coap_uri.h **** 
  52:..\..\..\..\lwip\libcoap-4.3.4\include/coap3/coap_uri.h **** #define COAP_URI_SCHEME_ALL_COAP_BITS (COAP_URI_SCHEME_COAP_BIT | \
  53:..\..\..\..\lwip\libcoap-4.3.4\include/coap3/coap_uri.h ****                                        COAP_URI_SCHEME_COAPS_BIT | \
  54:..\..\..\..\lwip\libcoap-4.3.4\include/coap3/coap_uri.h ****                                        COAP_URI_SCHEME_COAP_TCP_BIT | \
  55:..\..\..\..\lwip\libcoap-4.3.4\include/coap3/coap_uri.h ****                                        COAP_URI_SCHEME_COAPS_TCP_BIT | \
  56:..\..\..\..\lwip\libcoap-4.3.4\include/coap3/coap_uri.h ****                                        COAP_URI_SCHEME_COAP_WS_BIT | \
  57:..\..\..\..\lwip\libcoap-4.3.4\include/coap3/coap_uri.h ****                                        COAP_URI_SCHEME_COAPS_WS_BIT)
  58:..\..\..\..\lwip\libcoap-4.3.4\include/coap3/coap_uri.h **** 
  59:..\..\..\..\lwip\libcoap-4.3.4\include/coap3/coap_uri.h **** /**
  60:..\..\..\..\lwip\libcoap-4.3.4\include/coap3/coap_uri.h ****  * Representation of parsed URI. Components may be filled from a string with
  61:..\..\..\..\lwip\libcoap-4.3.4\include/coap3/coap_uri.h ****  * coap_split_uri() or coap_split_proxy_uri() and can be used as input for
  62:..\..\..\..\lwip\libcoap-4.3.4\include/coap3/coap_uri.h ****  * option-creation functions. Alternatively, coap_uri_into_options() can
  63:..\..\..\..\lwip\libcoap-4.3.4\include/coap3/coap_uri.h ****  * be used to convert coap_uri_t into CoAP options.
  64:..\..\..\..\lwip\libcoap-4.3.4\include/coap3/coap_uri.h ****  */
  65:..\..\..\..\lwip\libcoap-4.3.4\include/coap3/coap_uri.h **** typedef struct {
  66:..\..\..\..\lwip\libcoap-4.3.4\include/coap3/coap_uri.h ****   coap_str_const_t host;  /**< The host part of the URI */
  67:..\..\..\..\lwip\libcoap-4.3.4\include/coap3/coap_uri.h ****   uint16_t port;          /**< The port in host byte order */
  68:..\..\..\..\lwip\libcoap-4.3.4\include/coap3/coap_uri.h ****   coap_str_const_t path;  /**< The complete path if present or {0, NULL}.
  69:..\..\..\..\lwip\libcoap-4.3.4\include/coap3/coap_uri.h ****                                Needs to be split using coap_split_path()
  70:..\..\..\..\lwip\libcoap-4.3.4\include/coap3/coap_uri.h ****                                or coap_uri_into_options(). */
  71:..\..\..\..\lwip\libcoap-4.3.4\include/coap3/coap_uri.h ****   coap_str_const_t query; /**< The complete query if present or {0, NULL}.
  72:..\..\..\..\lwip\libcoap-4.3.4\include/coap3/coap_uri.h ****                                Needs to be split using coap_split_query()
  73:..\..\..\..\lwip\libcoap-4.3.4\include/coap3/coap_uri.h ****                                or coap_uri_into_options(). */
  74:..\..\..\..\lwip\libcoap-4.3.4\include/coap3/coap_uri.h ****   /** The parsed scheme specifier. */
  75:..\..\..\..\lwip\libcoap-4.3.4\include/coap3/coap_uri.h ****   enum coap_uri_scheme_t scheme;
  76:..\..\..\..\lwip\libcoap-4.3.4\include/coap3/coap_uri.h **** } coap_uri_t;
  77:..\..\..\..\lwip\libcoap-4.3.4\include/coap3/coap_uri.h **** 
  78:..\..\..\..\lwip\libcoap-4.3.4\include/coap3/coap_uri.h **** static inline int
  79:..\..\..\..\lwip\libcoap-4.3.4\include/coap3/coap_uri.h **** coap_uri_scheme_is_secure(const coap_uri_t *uri) {
  80:..\..\..\..\lwip\libcoap-4.3.4\include/coap3/coap_uri.h ****   return uri && ((uri->scheme & COAP_URI_SCHEME_SECURE_MASK) != 0);
 1672              		.loc 2 80 3
 1673              		.loc 2 80 14 is_stmt 0
 1674 00ae 8567     		li	a5,4096
 1675              		.loc 2 80 31
 1676 00b0 058B     		andi	a4,a4,1
 1677              		.loc 2 80 14
 1678 00b2 93873763 		addi	a5,a5,1587
 1679 00b6 3E97     		add	a4,a4,a5
 1680              	.LBE71:
 1681              	.LBE70:
 332:C:/Users/stapi/OneDrive/Desktop/GD32VW553/GD32VW55X_Wifi_BLE_SDK/GD32VW55x_RELEASE_V1.0.2/MSDK/lwip/libcoap-4.3.4/src\coap_uri.c ****                         COAP_DEFAULT_PORT))
 1682              		.loc 1 332 10
 1683 00b8 630CE602 		beq	a2,a4,.L162
 1684              	.L173:
 1685              	.LVL176:
 338:C:/Users/stapi/OneDrive/Desktop/GD32VW553/GD32VW55X_Wifi_BLE_SDK/GD32VW55x_RELEASE_V1.0.2/MSDK/lwip/libcoap-4.3.4/src\coap_uri.c ****                           coap_new_optlist(COAP_OPTION_URI_PORT,
 1686              		.loc 1 338 7 is_stmt 1
 1687 00bc 9145     		li	a1,4
 1688 00be 2685     		mv	a0,s1
 1689 00c0 97000000 		call	coap_encode_var_safe
 1689      E7800000 
 1690              	.LVL177:
 1691 00c8 AA85     		mv	a1,a0
 1692 00ca 2686     		mv	a2,s1
 1693 00cc 1D45     		li	a0,7
 1694 00ce 97000000 		call	coap_new_optlist
 1694      E7800000 
 1695              	.LVL178:
 1696 00d6 AA85     		mv	a1,a0
 1697 00d8 4A85     		mv	a0,s2
 1698 00da 97000000 		call	coap_insert_optlist
 1698      E7800000 
 1699              	.LVL179:
 1700 00e2 39A0     		j	.L162
 1701              	.LVL180:
 1702              	.L170:
 320:C:/Users/stapi/OneDrive/Desktop/GD32VW553/GD32VW55X_Wifi_BLE_SDK/GD32VW55x_RELEASE_V1.0.2/MSDK/lwip/libcoap-4.3.4/src\coap_uri.c ****     case COAP_URI_SCHEME_HTTP:
 1703              		.loc 1 320 5 is_stmt 0
 1704 00e4 9D47     		li	a5,7
 1705 00e6 D1B7     		j	.L207
 1706              	.L169:
 323:C:/Users/stapi/OneDrive/Desktop/GD32VW553/GD32VW55X_Wifi_BLE_SDK/GD32VW55x_RELEASE_V1.0.2/MSDK/lwip/libcoap-4.3.4/src\coap_uri.c ****         add_option = 1;
 1707              		.loc 1 323 7 is_stmt 1
 323:C:/Users/stapi/OneDrive/Desktop/GD32VW553/GD32VW55X_Wifi_BLE_SDK/GD32VW55x_RELEASE_V1.0.2/MSDK/lwip/libcoap-4.3.4/src\coap_uri.c ****         add_option = 1;
 1708              		.loc 1 323 10 is_stmt 0
 1709 00e8 93070005 		li	a5,80
 1710              	.L208:
 328:C:/Users/stapi/OneDrive/Desktop/GD32VW553/GD32VW55X_Wifi_BLE_SDK/GD32VW55x_RELEASE_V1.0.2/MSDK/lwip/libcoap-4.3.4/src\coap_uri.c ****         add_option = 1;
 1711              		.loc 1 328 10
 1712 00ec E318F6FC 		bne	a2,a5,.L173
 1713              	.LVL181:
 1714              	.L162:
 1715              	.LBE67:
 345:C:/Users/stapi/OneDrive/Desktop/GD32VW553/GD32VW55X_Wifi_BLE_SDK/GD32VW55x_RELEASE_V1.0.2/MSDK/lwip/libcoap-4.3.4/src\coap_uri.c ****     if (uri->path.length > buflen)
 1716              		.loc 1 345 3 is_stmt 1
 345:C:/Users/stapi/OneDrive/Desktop/GD32VW553/GD32VW55X_Wifi_BLE_SDK/GD32VW55x_RELEASE_V1.0.2/MSDK/lwip/libcoap-4.3.4/src\coap_uri.c ****     if (uri->path.length > buflen)
 1717              		.loc 1 345 16 is_stmt 0
 1718 00f0 5C44     		lw	a5,12(s0)
 345:C:/Users/stapi/OneDrive/Desktop/GD32VW553/GD32VW55X_Wifi_BLE_SDK/GD32VW55x_RELEASE_V1.0.2/MSDK/lwip/libcoap-4.3.4/src\coap_uri.c ****     if (uri->path.length > buflen)
 1719              		.loc 1 345 6
 1720 00f2 81EB     		bne	a5,zero,.L174
 1721              	.LVL182:
 1722              	.L183:
 363:C:/Users/stapi/OneDrive/Desktop/GD32VW553/GD32VW55X_Wifi_BLE_SDK/GD32VW55x_RELEASE_V1.0.2/MSDK/lwip/libcoap-4.3.4/src\coap_uri.c ****     buflen = _buflen;
 1723              		.loc 1 363 3 is_stmt 1
 363:C:/Users/stapi/OneDrive/Desktop/GD32VW553/GD32VW55X_Wifi_BLE_SDK/GD32VW55x_RELEASE_V1.0.2/MSDK/lwip/libcoap-4.3.4/src\coap_uri.c ****     buflen = _buflen;
 1724              		.loc 1 363 17 is_stmt 0
 1725 00f4 5C48     		lw	a5,20(s0)
 363:C:/Users/stapi/OneDrive/Desktop/GD32VW553/GD32VW55X_Wifi_BLE_SDK/GD32VW55x_RELEASE_V1.0.2/MSDK/lwip/libcoap-4.3.4/src\coap_uri.c ****     buflen = _buflen;
 1726              		.loc 1 363 6
 1727 00f6 D9EF     		bne	a5,zero,.L175
 1728              	.LVL183:
 1729              	.L176:
 382:C:/Users/stapi/OneDrive/Desktop/GD32VW553/GD32VW55X_Wifi_BLE_SDK/GD32VW55x_RELEASE_V1.0.2/MSDK/lwip/libcoap-4.3.4/src\coap_uri.c **** }
 1730              		.loc 1 382 10
 1731 00f8 0145     		li	a0,0
 1732 00fa B1A0     		j	.L160
 1733              	.LVL184:
 1734              	.L171:
 1735              	.LBB72:
 328:C:/Users/stapi/OneDrive/Desktop/GD32VW553/GD32VW55X_Wifi_BLE_SDK/GD32VW55x_RELEASE_V1.0.2/MSDK/lwip/libcoap-4.3.4/src\coap_uri.c ****         add_option = 1;
 1736              		.loc 1 328 7 is_stmt 1
 328:C:/Users/stapi/OneDrive/Desktop/GD32VW553/GD32VW55X_Wifi_BLE_SDK/GD32VW55x_RELEASE_V1.0.2/MSDK/lwip/libcoap-4.3.4/src\coap_uri.c ****         add_option = 1;
 1737              		.loc 1 328 10 is_stmt 0
 1738 00fc 9307B01B 		li	a5,443
 1739 0100 F5B7     		j	.L208
 1740              	.LVL185:
 1741              	.L174:
 1742              	.LBE72:
 346:C:/Users/stapi/OneDrive/Desktop/GD32VW553/GD32VW55X_Wifi_BLE_SDK/GD32VW55x_RELEASE_V1.0.2/MSDK/lwip/libcoap-4.3.4/src\coap_uri.c ****       coap_log_warn("URI path will be truncated (max buffer %zu)\n",
 1743              		.loc 1 346 5 is_stmt 1
 346:C:/Users/stapi/OneDrive/Desktop/GD32VW553/GD32VW55X_Wifi_BLE_SDK/GD32VW55x_RELEASE_V1.0.2/MSDK/lwip/libcoap-4.3.4/src\coap_uri.c ****       coap_log_warn("URI path will be truncated (max buffer %zu)\n",
 1744              		.loc 1 346 8 is_stmt 0
 1745 0102 5247     		lw	a4,20(sp)
 1746 0104 6373F702 		bleu	a5,a4,.L178
 347:C:/Users/stapi/OneDrive/Desktop/GD32VW553/GD32VW55X_Wifi_BLE_SDK/GD32VW55x_RELEASE_V1.0.2/MSDK/lwip/libcoap-4.3.4/src\coap_uri.c ****                     buflen);
 1747              		.loc 1 347 7 is_stmt 1
 347:C:/Users/stapi/OneDrive/Desktop/GD32VW553/GD32VW55X_Wifi_BLE_SDK/GD32VW55x_RELEASE_V1.0.2/MSDK/lwip/libcoap-4.3.4/src\coap_uri.c ****                     buflen);
 1748              		.loc 1 347 7
 1749 0108 97000000 		call	coap_get_log_level
 1749      E7800000 
 1750              	.LVL186:
 1751 0110 8D47     		li	a5,3
 1752 0112 63DCA700 		ble	a0,a5,.L178
 347:C:/Users/stapi/OneDrive/Desktop/GD32VW553/GD32VW55X_Wifi_BLE_SDK/GD32VW55x_RELEASE_V1.0.2/MSDK/lwip/libcoap-4.3.4/src\coap_uri.c ****                     buflen);
 1753              		.loc 1 347 7 discriminator 1
 1754 0116 5246     		lw	a2,20(sp)
 1755 0118 B7050000 		lui	a1,%hi(.LC13)
 1756 011c 93850500 		addi	a1,a1,%lo(.LC13)
 1757 0120 1145     		li	a0,4
 1758 0122 97000000 		call	coap_log_impl
 1758      E7800000 
 1759              	.LVL187:
 1760              	.L178:
 347:C:/Users/stapi/OneDrive/Desktop/GD32VW553/GD32VW55X_Wifi_BLE_SDK/GD32VW55x_RELEASE_V1.0.2/MSDK/lwip/libcoap-4.3.4/src\coap_uri.c ****                     buflen);
 1761              		.loc 1 347 7 discriminator 3
 349:C:/Users/stapi/OneDrive/Desktop/GD32VW553/GD32VW55X_Wifi_BLE_SDK/GD32VW55x_RELEASE_V1.0.2/MSDK/lwip/libcoap-4.3.4/src\coap_uri.c ****     if (res < 0)
 1762              		.loc 1 349 5 discriminator 3
 349:C:/Users/stapi/OneDrive/Desktop/GD32VW553/GD32VW55X_Wifi_BLE_SDK/GD32VW55x_RELEASE_V1.0.2/MSDK/lwip/libcoap-4.3.4/src\coap_uri.c ****     if (res < 0)
 1763              		.loc 1 349 11 is_stmt 0 discriminator 3
 1764 012a 4C44     		lw	a1,12(s0)
 1765 012c 0848     		lw	a0,16(s0)
 1766 012e 5408     		addi	a3,sp,20
 1767 0130 2686     		mv	a2,s1
 1768 0132 97000000 		call	coap_split_path
 1768      E7800000 
 1769              	.LVL188:
 1770 013a AA89     		mv	s3,a0
 1771              	.LVL189:
 350:C:/Users/stapi/OneDrive/Desktop/GD32VW553/GD32VW55X_Wifi_BLE_SDK/GD32VW55x_RELEASE_V1.0.2/MSDK/lwip/libcoap-4.3.4/src\coap_uri.c ****       return -1;
 1772              		.loc 1 350 5 is_stmt 1 discriminator 3
 283:C:/Users/stapi/OneDrive/Desktop/GD32VW553/GD32VW55X_Wifi_BLE_SDK/GD32VW55x_RELEASE_V1.0.2/MSDK/lwip/libcoap-4.3.4/src\coap_uri.c ****   size_t buflen = _buflen;
 1773              		.loc 1 283 18 is_stmt 0 discriminator 3
 1774 013c A68A     		mv	s5,s1
 353:C:/Users/stapi/OneDrive/Desktop/GD32VW553/GD32VW55X_Wifi_BLE_SDK/GD32VW55x_RELEASE_V1.0.2/MSDK/lwip/libcoap-4.3.4/src\coap_uri.c ****       coap_insert_optlist(optlist_chain,
 1775              		.loc 1 353 11 discriminator 3
 1776 013e 7D5B     		li	s6,-1
 350:C:/Users/stapi/OneDrive/Desktop/GD32VW553/GD32VW55X_Wifi_BLE_SDK/GD32VW55x_RELEASE_V1.0.2/MSDK/lwip/libcoap-4.3.4/src\coap_uri.c ****       return -1;
 1777              		.loc 1 350 8 discriminator 3
 1778 0140 63560504 		bge	a0,zero,.L180
 1779              	.LVL190:
 1780              	.L187:
 351:C:/Users/stapi/OneDrive/Desktop/GD32VW553/GD32VW55X_Wifi_BLE_SDK/GD32VW55x_RELEASE_V1.0.2/MSDK/lwip/libcoap-4.3.4/src\coap_uri.c **** 
 1781              		.loc 1 351 14
 1782 0144 7D55     		li	a0,-1
 1783              	.LVL191:
 1784              	.L160:
 383:C:/Users/stapi/OneDrive/Desktop/GD32VW553/GD32VW55X_Wifi_BLE_SDK/GD32VW55x_RELEASE_V1.0.2/MSDK/lwip/libcoap-4.3.4/src\coap_uri.c **** 
 1785              		.loc 1 383 1
 1786 0146 2161     		addi	sp,sp,64
 1787              		.cfi_remember_state
 1788              		.cfi_def_cfa_offset 0
 1789 0148 17030000 		tail	__riscv_restore_7
 1789      67000300 
 1790              		.cfi_restore 22
 1791              		.cfi_restore 21
 1792              		.cfi_restore 20
 1793              		.cfi_restore 19
 1794              		.cfi_restore 18
 1795              		.cfi_restore 9
 1796              		.cfi_restore 8
 1797              		.cfi_restore 1
 1798              		.cfi_def_cfa_offset -32
 1799              	.LVL192:
 1800              	.L182:
 1801              		.cfi_restore_state
 354:C:/Users/stapi/OneDrive/Desktop/GD32VW553/GD32VW55X_Wifi_BLE_SDK/GD32VW55x_RELEASE_V1.0.2/MSDK/lwip/libcoap-4.3.4/src\coap_uri.c ****                           coap_new_optlist(COAP_OPTION_URI_PATH,
 1802              		.loc 1 354 7 is_stmt 1
 356:C:/Users/stapi/OneDrive/Desktop/GD32VW553/GD32VW55X_Wifi_BLE_SDK/GD32VW55x_RELEASE_V1.0.2/MSDK/lwip/libcoap-4.3.4/src\coap_uri.c ****                                            coap_opt_value(buf)));
 1803              		.loc 1 356 44 is_stmt 0
 1804 0150 5685     		mv	a0,s5
 1805 0152 97000000 		call	coap_opt_length
 1805      E7800000 
 1806              	.LVL193:
 1807 015a 2AC6     		sw	a0,12(sp)
 354:C:/Users/stapi/OneDrive/Desktop/GD32VW553/GD32VW55X_Wifi_BLE_SDK/GD32VW55x_RELEASE_V1.0.2/MSDK/lwip/libcoap-4.3.4/src\coap_uri.c ****                           coap_new_optlist(COAP_OPTION_URI_PATH,
 1808              		.loc 1 354 7
 1809 015c 5685     		mv	a0,s5
 1810 015e 97000000 		call	coap_opt_value
 1810      E7800000 
 1811              	.LVL194:
 1812 0166 B245     		lw	a1,12(sp)
 1813 0168 2A86     		mv	a2,a0
 1814 016a 2D45     		li	a0,11
 1815 016c 97000000 		call	coap_new_optlist
 1815      E7800000 
 1816              	.LVL195:
 1817 0174 AA85     		mv	a1,a0
 1818 0176 4A85     		mv	a0,s2
 1819 0178 97000000 		call	coap_insert_optlist
 1819      E7800000 
 1820              	.LVL196:
 359:C:/Users/stapi/OneDrive/Desktop/GD32VW553/GD32VW55X_Wifi_BLE_SDK/GD32VW55x_RELEASE_V1.0.2/MSDK/lwip/libcoap-4.3.4/src\coap_uri.c ****     }
 1821              		.loc 1 359 7 is_stmt 1
 359:C:/Users/stapi/OneDrive/Desktop/GD32VW553/GD32VW55X_Wifi_BLE_SDK/GD32VW55x_RELEASE_V1.0.2/MSDK/lwip/libcoap-4.3.4/src\coap_uri.c ****     }
 1822              		.loc 1 359 14 is_stmt 0
 1823 0180 5685     		mv	a0,s5
 1824 0182 97000000 		call	coap_opt_size
 1824      E7800000 
 1825              	.LVL197:
 359:C:/Users/stapi/OneDrive/Desktop/GD32VW553/GD32VW55X_Wifi_BLE_SDK/GD32VW55x_RELEASE_V1.0.2/MSDK/lwip/libcoap-4.3.4/src\coap_uri.c ****     }
 1826              		.loc 1 359 11
 1827 018a AA9A     		add	s5,s5,a0
 1828              	.LVL198:
 1829              	.L180:
 353:C:/Users/stapi/OneDrive/Desktop/GD32VW553/GD32VW55X_Wifi_BLE_SDK/GD32VW55x_RELEASE_V1.0.2/MSDK/lwip/libcoap-4.3.4/src\coap_uri.c ****       coap_insert_optlist(optlist_chain,
 1830              		.loc 1 353 11 is_stmt 1
 353:C:/Users/stapi/OneDrive/Desktop/GD32VW553/GD32VW55X_Wifi_BLE_SDK/GD32VW55x_RELEASE_V1.0.2/MSDK/lwip/libcoap-4.3.4/src\coap_uri.c ****       coap_insert_optlist(optlist_chain,
 1831              		.loc 1 353 15 is_stmt 0
 1832 018c FD19     		addi	s3,s3,-1
 1833              	.LVL199:
 353:C:/Users/stapi/OneDrive/Desktop/GD32VW553/GD32VW55X_Wifi_BLE_SDK/GD32VW55x_RELEASE_V1.0.2/MSDK/lwip/libcoap-4.3.4/src\coap_uri.c ****       coap_insert_optlist(optlist_chain,
 1834              		.loc 1 353 11
 1835 018e E39169FD 		bne	s3,s6,.L182
 1836 0192 8DB7     		j	.L183
 1837              	.LVL200:
 1838              	.L175:
 364:C:/Users/stapi/OneDrive/Desktop/GD32VW553/GD32VW55X_Wifi_BLE_SDK/GD32VW55x_RELEASE_V1.0.2/MSDK/lwip/libcoap-4.3.4/src\coap_uri.c ****     buf = _buf;
 1839              		.loc 1 364 5 is_stmt 1
 364:C:/Users/stapi/OneDrive/Desktop/GD32VW553/GD32VW55X_Wifi_BLE_SDK/GD32VW55x_RELEASE_V1.0.2/MSDK/lwip/libcoap-4.3.4/src\coap_uri.c ****     buf = _buf;
 1840              		.loc 1 364 12 is_stmt 0
 1841 0194 52CA     		sw	s4,20(sp)
 365:C:/Users/stapi/OneDrive/Desktop/GD32VW553/GD32VW55X_Wifi_BLE_SDK/GD32VW55x_RELEASE_V1.0.2/MSDK/lwip/libcoap-4.3.4/src\coap_uri.c ****     if (uri->query.length > buflen)
 1842              		.loc 1 365 5 is_stmt 1
 1843              	.LVL201:
 366:C:/Users/stapi/OneDrive/Desktop/GD32VW553/GD32VW55X_Wifi_BLE_SDK/GD32VW55x_RELEASE_V1.0.2/MSDK/lwip/libcoap-4.3.4/src\coap_uri.c ****       coap_log_warn("URI query will be truncated (max buffer %zu)\n",
 1844              		.loc 1 366 5
 366:C:/Users/stapi/OneDrive/Desktop/GD32VW553/GD32VW55X_Wifi_BLE_SDK/GD32VW55x_RELEASE_V1.0.2/MSDK/lwip/libcoap-4.3.4/src\coap_uri.c ****       coap_log_warn("URI query will be truncated (max buffer %zu)\n",
 1845              		.loc 1 366 8 is_stmt 0
 1846 0196 6373FA02 		bleu	a5,s4,.L185
 367:C:/Users/stapi/OneDrive/Desktop/GD32VW553/GD32VW55X_Wifi_BLE_SDK/GD32VW55x_RELEASE_V1.0.2/MSDK/lwip/libcoap-4.3.4/src\coap_uri.c ****                     buflen);
 1847              		.loc 1 367 7 is_stmt 1
 367:C:/Users/stapi/OneDrive/Desktop/GD32VW553/GD32VW55X_Wifi_BLE_SDK/GD32VW55x_RELEASE_V1.0.2/MSDK/lwip/libcoap-4.3.4/src\coap_uri.c ****                     buflen);
 1848              		.loc 1 367 7
 1849 019a 97000000 		call	coap_get_log_level
 1849      E7800000 
 1850              	.LVL202:
 1851 01a2 8D47     		li	a5,3
 1852 01a4 63DCA700 		ble	a0,a5,.L185
 367:C:/Users/stapi/OneDrive/Desktop/GD32VW553/GD32VW55X_Wifi_BLE_SDK/GD32VW55x_RELEASE_V1.0.2/MSDK/lwip/libcoap-4.3.4/src\coap_uri.c ****                     buflen);
 1853              		.loc 1 367 7 discriminator 1
 1854 01a8 5246     		lw	a2,20(sp)
 1855 01aa B7050000 		lui	a1,%hi(.LC14)
 1856 01ae 93850500 		addi	a1,a1,%lo(.LC14)
 1857 01b2 1145     		li	a0,4
 1858 01b4 97000000 		call	coap_log_impl
 1858      E7800000 
 1859              	.LVL203:
 1860              	.L185:
 367:C:/Users/stapi/OneDrive/Desktop/GD32VW553/GD32VW55X_Wifi_BLE_SDK/GD32VW55x_RELEASE_V1.0.2/MSDK/lwip/libcoap-4.3.4/src\coap_uri.c ****                     buflen);
 1861              		.loc 1 367 7 discriminator 3
 369:C:/Users/stapi/OneDrive/Desktop/GD32VW553/GD32VW55X_Wifi_BLE_SDK/GD32VW55x_RELEASE_V1.0.2/MSDK/lwip/libcoap-4.3.4/src\coap_uri.c ****     if (res < 0)
 1862              		.loc 1 369 5 discriminator 3
 369:C:/Users/stapi/OneDrive/Desktop/GD32VW553/GD32VW55X_Wifi_BLE_SDK/GD32VW55x_RELEASE_V1.0.2/MSDK/lwip/libcoap-4.3.4/src\coap_uri.c ****     if (res < 0)
 1863              		.loc 1 369 11 is_stmt 0 discriminator 3
 1864 01bc 4C48     		lw	a1,20(s0)
 1865 01be 084C     		lw	a0,24(s0)
 1866 01c0 5408     		addi	a3,sp,20
 1867 01c2 2686     		mv	a2,s1
 1868 01c4 97000000 		call	coap_split_query
 1868      E7800000 
 1869              	.LVL204:
 1870 01cc 2A84     		mv	s0,a0
 1871              	.LVL205:
 370:C:/Users/stapi/OneDrive/Desktop/GD32VW553/GD32VW55X_Wifi_BLE_SDK/GD32VW55x_RELEASE_V1.0.2/MSDK/lwip/libcoap-4.3.4/src\coap_uri.c ****       return -1;
 1872              		.loc 1 370 5 is_stmt 1 discriminator 3
 370:C:/Users/stapi/OneDrive/Desktop/GD32VW553/GD32VW55X_Wifi_BLE_SDK/GD32VW55x_RELEASE_V1.0.2/MSDK/lwip/libcoap-4.3.4/src\coap_uri.c ****       return -1;
 1873              		.loc 1 370 8 is_stmt 0 discriminator 3
 1874 01ce E34B05F6 		blt	a0,zero,.L187
 373:C:/Users/stapi/OneDrive/Desktop/GD32VW553/GD32VW55X_Wifi_BLE_SDK/GD32VW55x_RELEASE_V1.0.2/MSDK/lwip/libcoap-4.3.4/src\coap_uri.c ****       coap_insert_optlist(optlist_chain,
 1875              		.loc 1 373 11
 1876 01d2 FD59     		li	s3,-1
 1877              	.LVL206:
 1878              	.L188:
 373:C:/Users/stapi/OneDrive/Desktop/GD32VW553/GD32VW55X_Wifi_BLE_SDK/GD32VW55x_RELEASE_V1.0.2/MSDK/lwip/libcoap-4.3.4/src\coap_uri.c ****       coap_insert_optlist(optlist_chain,
 1879              		.loc 1 373 11 is_stmt 1
 373:C:/Users/stapi/OneDrive/Desktop/GD32VW553/GD32VW55X_Wifi_BLE_SDK/GD32VW55x_RELEASE_V1.0.2/MSDK/lwip/libcoap-4.3.4/src\coap_uri.c ****       coap_insert_optlist(optlist_chain,
 1880              		.loc 1 373 15 is_stmt 0
 1881 01d4 7D14     		addi	s0,s0,-1
 1882              	.LVL207:
 373:C:/Users/stapi/OneDrive/Desktop/GD32VW553/GD32VW55X_Wifi_BLE_SDK/GD32VW55x_RELEASE_V1.0.2/MSDK/lwip/libcoap-4.3.4/src\coap_uri.c ****       coap_insert_optlist(optlist_chain,
 1883              		.loc 1 373 11
 1884 01d6 E30134F3 		beq	s0,s3,.L176
 374:C:/Users/stapi/OneDrive/Desktop/GD32VW553/GD32VW55X_Wifi_BLE_SDK/GD32VW55x_RELEASE_V1.0.2/MSDK/lwip/libcoap-4.3.4/src\coap_uri.c ****                           coap_new_optlist(COAP_OPTION_URI_QUERY,
 1885              		.loc 1 374 7 is_stmt 1
 376:C:/Users/stapi/OneDrive/Desktop/GD32VW553/GD32VW55X_Wifi_BLE_SDK/GD32VW55x_RELEASE_V1.0.2/MSDK/lwip/libcoap-4.3.4/src\coap_uri.c ****                                            coap_opt_value(buf)));
 1886              		.loc 1 376 44 is_stmt 0
 1887 01da 2685     		mv	a0,s1
 1888 01dc 97000000 		call	coap_opt_length
 1888      E7800000 
 1889              	.LVL208:
 1890 01e4 2AC6     		sw	a0,12(sp)
 374:C:/Users/stapi/OneDrive/Desktop/GD32VW553/GD32VW55X_Wifi_BLE_SDK/GD32VW55x_RELEASE_V1.0.2/MSDK/lwip/libcoap-4.3.4/src\coap_uri.c ****                           coap_new_optlist(COAP_OPTION_URI_QUERY,
 1891              		.loc 1 374 7
 1892 01e6 2685     		mv	a0,s1
 1893 01e8 97000000 		call	coap_opt_value
 1893      E7800000 
 1894              	.LVL209:
 1895 01f0 B245     		lw	a1,12(sp)
 1896 01f2 2A86     		mv	a2,a0
 1897 01f4 3D45     		li	a0,15
 1898 01f6 97000000 		call	coap_new_optlist
 1898      E7800000 
 1899              	.LVL210:
 1900 01fe AA85     		mv	a1,a0
 1901 0200 4A85     		mv	a0,s2
 1902 0202 97000000 		call	coap_insert_optlist
 1902      E7800000 
 1903              	.LVL211:
 379:C:/Users/stapi/OneDrive/Desktop/GD32VW553/GD32VW55X_Wifi_BLE_SDK/GD32VW55x_RELEASE_V1.0.2/MSDK/lwip/libcoap-4.3.4/src\coap_uri.c ****     }
 1904              		.loc 1 379 7 is_stmt 1
 379:C:/Users/stapi/OneDrive/Desktop/GD32VW553/GD32VW55X_Wifi_BLE_SDK/GD32VW55x_RELEASE_V1.0.2/MSDK/lwip/libcoap-4.3.4/src\coap_uri.c ****     }
 1905              		.loc 1 379 14 is_stmt 0
 1906 020a 2685     		mv	a0,s1
 1907 020c 97000000 		call	coap_opt_size
 1907      E7800000 
 1908              	.LVL212:
 379:C:/Users/stapi/OneDrive/Desktop/GD32VW553/GD32VW55X_Wifi_BLE_SDK/GD32VW55x_RELEASE_V1.0.2/MSDK/lwip/libcoap-4.3.4/src\coap_uri.c ****     }
 1909              		.loc 1 379 11
 1910 0214 AA94     		add	s1,s1,a0
 1911              	.LVL213:
 1912 0216 7DBF     		j	.L188
 1913              		.cfi_endproc
 1914              	.LFE35:
 1916              		.section	.text.coap_new_uri,"ax",@progbits
 1917              		.align	1
 1918              		.globl	coap_new_uri
 1920              	coap_new_uri:
 1921              	.LFB45:
 638:C:/Users/stapi/OneDrive/Desktop/GD32VW553/GD32VW55X_Wifi_BLE_SDK/GD32VW55x_RELEASE_V1.0.2/MSDK/lwip/libcoap-4.3.4/src\coap_uri.c ****   unsigned char *result;
 1922              		.loc 1 638 55 is_stmt 1
 1923              		.cfi_startproc
 1924              	.LVL214:
 1925 0000 17030000 		call	t0,__riscv_save_3
 1925      E7020300 
 1926              		.cfi_offset 18, -16
 1927              		.cfi_offset 9, -12
 1928              		.cfi_offset 8, -8
 1929              		.cfi_offset 1, -4
 1930              		.cfi_def_cfa_offset 16
 639:C:/Users/stapi/OneDrive/Desktop/GD32VW553/GD32VW55X_Wifi_BLE_SDK/GD32VW55x_RELEASE_V1.0.2/MSDK/lwip/libcoap-4.3.4/src\coap_uri.c **** 
 1931              		.loc 1 639 3
 641:C:/Users/stapi/OneDrive/Desktop/GD32VW553/GD32VW55X_Wifi_BLE_SDK/GD32VW55x_RELEASE_V1.0.2/MSDK/lwip/libcoap-4.3.4/src\coap_uri.c **** 
 1932              		.loc 1 641 3
 638:C:/Users/stapi/OneDrive/Desktop/GD32VW553/GD32VW55X_Wifi_BLE_SDK/GD32VW55x_RELEASE_V1.0.2/MSDK/lwip/libcoap-4.3.4/src\coap_uri.c ****   unsigned char *result;
 1933              		.loc 1 638 55 is_stmt 0
 1934 0008 2A89     		mv	s2,a0
 1935 000a AE84     		mv	s1,a1
 641:C:/Users/stapi/OneDrive/Desktop/GD32VW553/GD32VW55X_Wifi_BLE_SDK/GD32VW55x_RELEASE_V1.0.2/MSDK/lwip/libcoap-4.3.4/src\coap_uri.c **** 
 1936              		.loc 1 641 29
 1937 000c 0145     		li	a0,0
 1938              	.LVL215:
 1939 000e 93851502 		addi	a1,a1,33
 1940              	.LVL216:
 1941 0012 97000000 		call	coap_malloc_type
 1941      E7800000 
 1942              	.LVL217:
 1943 001a 2A84     		mv	s0,a0
 1944              	.LVL218:
 643:C:/Users/stapi/OneDrive/Desktop/GD32VW553/GD32VW55X_Wifi_BLE_SDK/GD32VW55x_RELEASE_V1.0.2/MSDK/lwip/libcoap-4.3.4/src\coap_uri.c ****     return NULL;
 1945              		.loc 1 643 3 is_stmt 1
 643:C:/Users/stapi/OneDrive/Desktop/GD32VW553/GD32VW55X_Wifi_BLE_SDK/GD32VW55x_RELEASE_V1.0.2/MSDK/lwip/libcoap-4.3.4/src\coap_uri.c ****     return NULL;
 1946              		.loc 1 643 6 is_stmt 0
 1947 001c 0DCD     		beq	a0,zero,.L209
 646:C:/Users/stapi/OneDrive/Desktop/GD32VW553/GD32VW55X_Wifi_BLE_SDK/GD32VW55x_RELEASE_V1.0.2/MSDK/lwip/libcoap-4.3.4/src\coap_uri.c ****   URI_DATA(result)[length] = '\0'; /* make it zero-terminated */
 1948              		.loc 1 646 3 is_stmt 1
 646:C:/Users/stapi/OneDrive/Desktop/GD32VW553/GD32VW55X_Wifi_BLE_SDK/GD32VW55x_RELEASE_V1.0.2/MSDK/lwip/libcoap-4.3.4/src\coap_uri.c ****   URI_DATA(result)[length] = '\0'; /* make it zero-terminated */
 1949              		.loc 1 646 10 is_stmt 0
 1950 001e 93070502 		addi	a5,a0,32
 646:C:/Users/stapi/OneDrive/Desktop/GD32VW553/GD32VW55X_Wifi_BLE_SDK/GD32VW55x_RELEASE_V1.0.2/MSDK/lwip/libcoap-4.3.4/src\coap_uri.c ****   URI_DATA(result)[length] = '\0'; /* make it zero-terminated */
 1951              		.loc 1 646 3
 1952 0022 2686     		mv	a2,s1
 1953 0024 CA85     		mv	a1,s2
 1954 0026 3E85     		mv	a0,a5
 1955 0028 97000000 		call	memcpy
 1955      E7800000 
 1956              	.LVL219:
 647:C:/Users/stapi/OneDrive/Desktop/GD32VW553/GD32VW55X_Wifi_BLE_SDK/GD32VW55x_RELEASE_V1.0.2/MSDK/lwip/libcoap-4.3.4/src\coap_uri.c **** 
 1957              		.loc 1 647 3 is_stmt 1
 647:C:/Users/stapi/OneDrive/Desktop/GD32VW553/GD32VW55X_Wifi_BLE_SDK/GD32VW55x_RELEASE_V1.0.2/MSDK/lwip/libcoap-4.3.4/src\coap_uri.c **** 
 1958              		.loc 1 647 28 is_stmt 0
 1959 0030 33079400 		add	a4,s0,s1
 1960 0034 23000702 		sb	zero,32(a4)
 649:C:/Users/stapi/OneDrive/Desktop/GD32VW553/GD32VW55X_Wifi_BLE_SDK/GD32VW55x_RELEASE_V1.0.2/MSDK/lwip/libcoap-4.3.4/src\coap_uri.c ****     coap_free_type(COAP_STRING, result);
 1961              		.loc 1 649 3 is_stmt 1
 649:C:/Users/stapi/OneDrive/Desktop/GD32VW553/GD32VW55X_Wifi_BLE_SDK/GD32VW55x_RELEASE_V1.0.2/MSDK/lwip/libcoap-4.3.4/src\coap_uri.c ****     coap_free_type(COAP_STRING, result);
 1962              		.loc 1 649 7 is_stmt 0
 1963 0038 2286     		mv	a2,s0
 1964 003a A685     		mv	a1,s1
 1965 003c 97000000 		call	coap_split_uri
 1965      E7800000 
 1966              	.LVL220:
 649:C:/Users/stapi/OneDrive/Desktop/GD32VW553/GD32VW55X_Wifi_BLE_SDK/GD32VW55x_RELEASE_V1.0.2/MSDK/lwip/libcoap-4.3.4/src\coap_uri.c ****     coap_free_type(COAP_STRING, result);
 1967              		.loc 1 649 6
 1968 0044 63590500 		bge	a0,zero,.L209
 650:C:/Users/stapi/OneDrive/Desktop/GD32VW553/GD32VW55X_Wifi_BLE_SDK/GD32VW55x_RELEASE_V1.0.2/MSDK/lwip/libcoap-4.3.4/src\coap_uri.c ****     return NULL;
 1969              		.loc 1 650 5 is_stmt 1
 1970 0048 A285     		mv	a1,s0
 1971 004a 0145     		li	a0,0
 1972 004c 97000000 		call	coap_free_type
 1972      E7800000 
 1973              	.LVL221:
 651:C:/Users/stapi/OneDrive/Desktop/GD32VW553/GD32VW55X_Wifi_BLE_SDK/GD32VW55x_RELEASE_V1.0.2/MSDK/lwip/libcoap-4.3.4/src\coap_uri.c ****   }
 1974              		.loc 1 651 5
 651:C:/Users/stapi/OneDrive/Desktop/GD32VW553/GD32VW55X_Wifi_BLE_SDK/GD32VW55x_RELEASE_V1.0.2/MSDK/lwip/libcoap-4.3.4/src\coap_uri.c ****   }
 1975              		.loc 1 651 12 is_stmt 0
 1976 0054 0144     		li	s0,0
 1977              	.LVL222:
 1978              	.L209:
 654:C:/Users/stapi/OneDrive/Desktop/GD32VW553/GD32VW55X_Wifi_BLE_SDK/GD32VW55x_RELEASE_V1.0.2/MSDK/lwip/libcoap-4.3.4/src\coap_uri.c **** 
 1979              		.loc 1 654 1
 1980 0056 2285     		mv	a0,s0
 1981 0058 17030000 		tail	__riscv_restore_3
 1981      67000300 
 1982              		.cfi_restore 18
 1983              		.cfi_restore 9
 1984              		.cfi_restore 8
 1985              		.cfi_restore 1
 1986              		.cfi_def_cfa_offset 0
 1987              		.cfi_endproc
 1988              	.LFE45:
 1990              		.section	.text.coap_clone_uri,"ax",@progbits
 1991              		.align	1
 1992              		.globl	coap_clone_uri
 1994              	coap_clone_uri:
 1995              	.LFB46:
 657:C:/Users/stapi/OneDrive/Desktop/GD32VW553/GD32VW55X_Wifi_BLE_SDK/GD32VW55x_RELEASE_V1.0.2/MSDK/lwip/libcoap-4.3.4/src\coap_uri.c ****   coap_uri_t *result;
 1996              		.loc 1 657 39 is_stmt 1
 1997              		.cfi_startproc
 1998              	.LVL223:
 1999 0000 17030000 		call	t0,__riscv_save_2
 1999      E7020300 
 2000              		.cfi_offset 9, -12
 2001              		.cfi_offset 8, -8
 2002              		.cfi_offset 1, -4
 2003              		.cfi_def_cfa_offset 16
 658:C:/Users/stapi/OneDrive/Desktop/GD32VW553/GD32VW55X_Wifi_BLE_SDK/GD32VW55x_RELEASE_V1.0.2/MSDK/lwip/libcoap-4.3.4/src\coap_uri.c ****   uint8_t *p;
 2004              		.loc 1 658 3
 659:C:/Users/stapi/OneDrive/Desktop/GD32VW553/GD32VW55X_Wifi_BLE_SDK/GD32VW55x_RELEASE_V1.0.2/MSDK/lwip/libcoap-4.3.4/src\coap_uri.c **** 
 2005              		.loc 1 659 3
 661:C:/Users/stapi/OneDrive/Desktop/GD32VW553/GD32VW55X_Wifi_BLE_SDK/GD32VW55x_RELEASE_V1.0.2/MSDK/lwip/libcoap-4.3.4/src\coap_uri.c ****     return  NULL;
 2006              		.loc 1 661 3
 661:C:/Users/stapi/OneDrive/Desktop/GD32VW553/GD32VW55X_Wifi_BLE_SDK/GD32VW55x_RELEASE_V1.0.2/MSDK/lwip/libcoap-4.3.4/src\coap_uri.c ****     return  NULL;
 2007              		.loc 1 661 6 is_stmt 0
 2008 0008 19E5     		bne	a0,zero,.L216
 2009              	.LVL224:
 2010              	.L218:
 662:C:/Users/stapi/OneDrive/Desktop/GD32VW553/GD32VW55X_Wifi_BLE_SDK/GD32VW55x_RELEASE_V1.0.2/MSDK/lwip/libcoap-4.3.4/src\coap_uri.c **** 
 2011              		.loc 1 662 13
 2012 000a 8144     		li	s1,0
 2013              	.L215:
 696:C:/Users/stapi/OneDrive/Desktop/GD32VW553/GD32VW55X_Wifi_BLE_SDK/GD32VW55x_RELEASE_V1.0.2/MSDK/lwip/libcoap-4.3.4/src\coap_uri.c **** 
 2014              		.loc 1 696 1
 2015 000c 2685     		mv	a0,s1
 2016 000e 17030000 		tail	__riscv_restore_2
 2016      67000300 
 2017              		.cfi_remember_state
 2018              		.cfi_restore 9
 2019              		.cfi_restore 8
 2020              		.cfi_restore 1
 2021              		.cfi_def_cfa_offset 0
 2022              	.LVL225:
 2023              	.L216:
 2024              		.cfi_restore_state
 664:C:/Users/stapi/OneDrive/Desktop/GD32VW553/GD32VW55X_Wifi_BLE_SDK/GD32VW55x_RELEASE_V1.0.2/MSDK/lwip/libcoap-4.3.4/src\coap_uri.c ****                                           uri->path.length + sizeof(coap_uri_t) + 1);
 2025              		.loc 1 664 75
 2026 0016 0C41     		lw	a1,0(a0)
 2027 0018 5C49     		lw	a5,20(a0)
 2028 001a 2A84     		mv	s0,a0
 664:C:/Users/stapi/OneDrive/Desktop/GD32VW553/GD32VW55X_Wifi_BLE_SDK/GD32VW55x_RELEASE_V1.0.2/MSDK/lwip/libcoap-4.3.4/src\coap_uri.c ****                                           uri->path.length + sizeof(coap_uri_t) + 1);
 2029              		.loc 1 664 3 is_stmt 1
 664:C:/Users/stapi/OneDrive/Desktop/GD32VW553/GD32VW55X_Wifi_BLE_SDK/GD32VW55x_RELEASE_V1.0.2/MSDK/lwip/libcoap-4.3.4/src\coap_uri.c ****                                           uri->path.length + sizeof(coap_uri_t) + 1);
 2030              		.loc 1 664 75 is_stmt 0
 2031 001c AE97     		add	a5,a5,a1
 664:C:/Users/stapi/OneDrive/Desktop/GD32VW553/GD32VW55X_Wifi_BLE_SDK/GD32VW55x_RELEASE_V1.0.2/MSDK/lwip/libcoap-4.3.4/src\coap_uri.c ****                                           uri->path.length + sizeof(coap_uri_t) + 1);
 2032              		.loc 1 664 26
 2033 001e 4C45     		lw	a1,12(a0)
 2034 0020 93871702 		addi	a5,a5,33
 2035 0024 0145     		li	a0,0
 2036              	.LVL226:
 2037 0026 BE95     		add	a1,a5,a1
 2038 0028 97000000 		call	coap_malloc_type
 2038      E7800000 
 2039              	.LVL227:
 2040 0030 AA84     		mv	s1,a0
 2041              	.LVL228:
 667:C:/Users/stapi/OneDrive/Desktop/GD32VW553/GD32VW55X_Wifi_BLE_SDK/GD32VW55x_RELEASE_V1.0.2/MSDK/lwip/libcoap-4.3.4/src\coap_uri.c ****     return NULL;
 2042              		.loc 1 667 3 is_stmt 1
 667:C:/Users/stapi/OneDrive/Desktop/GD32VW553/GD32VW55X_Wifi_BLE_SDK/GD32VW55x_RELEASE_V1.0.2/MSDK/lwip/libcoap-4.3.4/src\coap_uri.c ****     return NULL;
 2043              		.loc 1 667 6 is_stmt 0
 2044 0032 61DD     		beq	a0,zero,.L218
 670:C:/Users/stapi/OneDrive/Desktop/GD32VW553/GD32VW55X_Wifi_BLE_SDK/GD32VW55x_RELEASE_V1.0.2/MSDK/lwip/libcoap-4.3.4/src\coap_uri.c **** 
 2045              		.loc 1 670 3 is_stmt 1
 2046 0034 13060002 		li	a2,32
 2047 0038 8145     		li	a1,0
 2048 003a 97000000 		call	memset
 2048      E7800000 
 2049              	.LVL229:
 672:C:/Users/stapi/OneDrive/Desktop/GD32VW553/GD32VW55X_Wifi_BLE_SDK/GD32VW55x_RELEASE_V1.0.2/MSDK/lwip/libcoap-4.3.4/src\coap_uri.c **** 
 2050              		.loc 1 672 3
 672:C:/Users/stapi/OneDrive/Desktop/GD32VW553/GD32VW55X_Wifi_BLE_SDK/GD32VW55x_RELEASE_V1.0.2/MSDK/lwip/libcoap-4.3.4/src\coap_uri.c **** 
 2051              		.loc 1 672 21 is_stmt 0
 2052 0042 83578400 		lhu	a5,8(s0)
 672:C:/Users/stapi/OneDrive/Desktop/GD32VW553/GD32VW55X_Wifi_BLE_SDK/GD32VW55x_RELEASE_V1.0.2/MSDK/lwip/libcoap-4.3.4/src\coap_uri.c **** 
 2053              		.loc 1 672 16
 2054 0046 2394F400 		sh	a5,8(s1)
 674:C:/Users/stapi/OneDrive/Desktop/GD32VW553/GD32VW55X_Wifi_BLE_SDK/GD32VW55x_RELEASE_V1.0.2/MSDK/lwip/libcoap-4.3.4/src\coap_uri.c ****     result->host.s = p = URI_DATA(result);
 2055              		.loc 1 674 3 is_stmt 1
 674:C:/Users/stapi/OneDrive/Desktop/GD32VW553/GD32VW55X_Wifi_BLE_SDK/GD32VW55x_RELEASE_V1.0.2/MSDK/lwip/libcoap-4.3.4/src\coap_uri.c ****     result->host.s = p = URI_DATA(result);
 2056              		.loc 1 674 16 is_stmt 0
 2057 004a 1C40     		lw	a5,0(s0)
 674:C:/Users/stapi/OneDrive/Desktop/GD32VW553/GD32VW55X_Wifi_BLE_SDK/GD32VW55x_RELEASE_V1.0.2/MSDK/lwip/libcoap-4.3.4/src\coap_uri.c ****     result->host.s = p = URI_DATA(result);
 2058              		.loc 1 674 6
 2059 004c 99CB     		beq	a5,zero,.L219
 675:C:/Users/stapi/OneDrive/Desktop/GD32VW553/GD32VW55X_Wifi_BLE_SDK/GD32VW55x_RELEASE_V1.0.2/MSDK/lwip/libcoap-4.3.4/src\coap_uri.c ****     result->host.length = uri->host.length;
 2060              		.loc 1 675 5 is_stmt 1
 675:C:/Users/stapi/OneDrive/Desktop/GD32VW553/GD32VW55X_Wifi_BLE_SDK/GD32VW55x_RELEASE_V1.0.2/MSDK/lwip/libcoap-4.3.4/src\coap_uri.c ****     result->host.length = uri->host.length;
 2061              		.loc 1 675 24 is_stmt 0
 2062 004e 13850402 		addi	a0,s1,32
 2063              	.LVL230:
 675:C:/Users/stapi/OneDrive/Desktop/GD32VW553/GD32VW55X_Wifi_BLE_SDK/GD32VW55x_RELEASE_V1.0.2/MSDK/lwip/libcoap-4.3.4/src\coap_uri.c ****     result->host.length = uri->host.length;
 2064              		.loc 1 675 20
 2065 0052 C8C0     		sw	a0,4(s1)
 676:C:/Users/stapi/OneDrive/Desktop/GD32VW553/GD32VW55X_Wifi_BLE_SDK/GD32VW55x_RELEASE_V1.0.2/MSDK/lwip/libcoap-4.3.4/src\coap_uri.c **** 
 2066              		.loc 1 676 5 is_stmt 1
 676:C:/Users/stapi/OneDrive/Desktop/GD32VW553/GD32VW55X_Wifi_BLE_SDK/GD32VW55x_RELEASE_V1.0.2/MSDK/lwip/libcoap-4.3.4/src\coap_uri.c **** 
 2067              		.loc 1 676 25 is_stmt 0
 2068 0054 9CC0     		sw	a5,0(s1)
 678:C:/Users/stapi/OneDrive/Desktop/GD32VW553/GD32VW55X_Wifi_BLE_SDK/GD32VW55x_RELEASE_V1.0.2/MSDK/lwip/libcoap-4.3.4/src\coap_uri.c ****   }
 2069              		.loc 1 678 5 is_stmt 1
 2070 0056 1040     		lw	a2,0(s0)
 2071 0058 4C40     		lw	a1,4(s0)
 2072 005a 97000000 		call	memcpy
 2072      E7800000 
 2073              	.LVL231:
 2074              	.L219:
 681:C:/Users/stapi/OneDrive/Desktop/GD32VW553/GD32VW55X_Wifi_BLE_SDK/GD32VW55x_RELEASE_V1.0.2/MSDK/lwip/libcoap-4.3.4/src\coap_uri.c ****     result->path.s = p = URI_DATA(result) + uri->host.length;
 2075              		.loc 1 681 3
 681:C:/Users/stapi/OneDrive/Desktop/GD32VW553/GD32VW55X_Wifi_BLE_SDK/GD32VW55x_RELEASE_V1.0.2/MSDK/lwip/libcoap-4.3.4/src\coap_uri.c ****     result->path.s = p = URI_DATA(result) + uri->host.length;
 2076              		.loc 1 681 16 is_stmt 0
 2077 0062 5C44     		lw	a5,12(s0)
 681:C:/Users/stapi/OneDrive/Desktop/GD32VW553/GD32VW55X_Wifi_BLE_SDK/GD32VW55x_RELEASE_V1.0.2/MSDK/lwip/libcoap-4.3.4/src\coap_uri.c ****     result->path.s = p = URI_DATA(result) + uri->host.length;
 2078              		.loc 1 681 6
 2079 0064 89CF     		beq	a5,zero,.L220
 682:C:/Users/stapi/OneDrive/Desktop/GD32VW553/GD32VW55X_Wifi_BLE_SDK/GD32VW55x_RELEASE_V1.0.2/MSDK/lwip/libcoap-4.3.4/src\coap_uri.c ****     result->path.length = uri->path.length;
 2080              		.loc 1 682 5 is_stmt 1
 682:C:/Users/stapi/OneDrive/Desktop/GD32VW553/GD32VW55X_Wifi_BLE_SDK/GD32VW55x_RELEASE_V1.0.2/MSDK/lwip/libcoap-4.3.4/src\coap_uri.c ****     result->path.length = uri->path.length;
 2081              		.loc 1 682 43 is_stmt 0
 2082 0066 0840     		lw	a0,0(s0)
 683:C:/Users/stapi/OneDrive/Desktop/GD32VW553/GD32VW55X_Wifi_BLE_SDK/GD32VW55x_RELEASE_V1.0.2/MSDK/lwip/libcoap-4.3.4/src\coap_uri.c **** 
 2083              		.loc 1 683 25
 2084 0068 DCC4     		sw	a5,12(s1)
 685:C:/Users/stapi/OneDrive/Desktop/GD32VW553/GD32VW55X_Wifi_BLE_SDK/GD32VW55x_RELEASE_V1.0.2/MSDK/lwip/libcoap-4.3.4/src\coap_uri.c ****   }
 2085              		.loc 1 685 5
 2086 006a 5044     		lw	a2,12(s0)
 682:C:/Users/stapi/OneDrive/Desktop/GD32VW553/GD32VW55X_Wifi_BLE_SDK/GD32VW55x_RELEASE_V1.0.2/MSDK/lwip/libcoap-4.3.4/src\coap_uri.c ****     result->path.length = uri->path.length;
 2087              		.loc 1 682 43
 2088 006c 13050502 		addi	a0,a0,32
 682:C:/Users/stapi/OneDrive/Desktop/GD32VW553/GD32VW55X_Wifi_BLE_SDK/GD32VW55x_RELEASE_V1.0.2/MSDK/lwip/libcoap-4.3.4/src\coap_uri.c ****     result->path.length = uri->path.length;
 2089              		.loc 1 682 24
 2090 0070 2695     		add	a0,s1,a0
 2091              	.LVL232:
 682:C:/Users/stapi/OneDrive/Desktop/GD32VW553/GD32VW55X_Wifi_BLE_SDK/GD32VW55x_RELEASE_V1.0.2/MSDK/lwip/libcoap-4.3.4/src\coap_uri.c ****     result->path.length = uri->path.length;
 2092              		.loc 1 682 20
 2093 0072 88C8     		sw	a0,16(s1)
 683:C:/Users/stapi/OneDrive/Desktop/GD32VW553/GD32VW55X_Wifi_BLE_SDK/GD32VW55x_RELEASE_V1.0.2/MSDK/lwip/libcoap-4.3.4/src\coap_uri.c **** 
 2094              		.loc 1 683 5 is_stmt 1
 685:C:/Users/stapi/OneDrive/Desktop/GD32VW553/GD32VW55X_Wifi_BLE_SDK/GD32VW55x_RELEASE_V1.0.2/MSDK/lwip/libcoap-4.3.4/src\coap_uri.c ****   }
 2095              		.loc 1 685 5
 2096 0074 0C48     		lw	a1,16(s0)
 2097 0076 97000000 		call	memcpy
 2097      E7800000 
 2098              	.LVL233:
 2099              	.L220:
 688:C:/Users/stapi/OneDrive/Desktop/GD32VW553/GD32VW55X_Wifi_BLE_SDK/GD32VW55x_RELEASE_V1.0.2/MSDK/lwip/libcoap-4.3.4/src\coap_uri.c ****     result->query.s = p = URI_DATA(result) + uri->host.length + uri->path.length;
 2100              		.loc 1 688 3
 688:C:/Users/stapi/OneDrive/Desktop/GD32VW553/GD32VW55X_Wifi_BLE_SDK/GD32VW55x_RELEASE_V1.0.2/MSDK/lwip/libcoap-4.3.4/src\coap_uri.c ****     result->query.s = p = URI_DATA(result) + uri->host.length + uri->path.length;
 2101              		.loc 1 688 17 is_stmt 0
 2102 007e 5C48     		lw	a5,20(s0)
 688:C:/Users/stapi/OneDrive/Desktop/GD32VW553/GD32VW55X_Wifi_BLE_SDK/GD32VW55x_RELEASE_V1.0.2/MSDK/lwip/libcoap-4.3.4/src\coap_uri.c ****     result->query.s = p = URI_DATA(result) + uri->host.length + uri->path.length;
 2103              		.loc 1 688 6
 2104 0080 D1D7     		beq	a5,zero,.L215
 689:C:/Users/stapi/OneDrive/Desktop/GD32VW553/GD32VW55X_Wifi_BLE_SDK/GD32VW55x_RELEASE_V1.0.2/MSDK/lwip/libcoap-4.3.4/src\coap_uri.c ****     result->query.length = uri->query.length;
 2105              		.loc 1 689 5 is_stmt 1
 689:C:/Users/stapi/OneDrive/Desktop/GD32VW553/GD32VW55X_Wifi_BLE_SDK/GD32VW55x_RELEASE_V1.0.2/MSDK/lwip/libcoap-4.3.4/src\coap_uri.c ****     result->query.length = uri->query.length;
 2106              		.loc 1 689 63 is_stmt 0
 2107 0082 0840     		lw	a0,0(s0)
 2108 0084 5844     		lw	a4,12(s0)
 690:C:/Users/stapi/OneDrive/Desktop/GD32VW553/GD32VW55X_Wifi_BLE_SDK/GD32VW55x_RELEASE_V1.0.2/MSDK/lwip/libcoap-4.3.4/src\coap_uri.c **** 
 2109              		.loc 1 690 26
 2110 0086 DCC8     		sw	a5,20(s1)
 692:C:/Users/stapi/OneDrive/Desktop/GD32VW553/GD32VW55X_Wifi_BLE_SDK/GD32VW55x_RELEASE_V1.0.2/MSDK/lwip/libcoap-4.3.4/src\coap_uri.c ****   }
 2111              		.loc 1 692 5
 2112 0088 5048     		lw	a2,20(s0)
 689:C:/Users/stapi/OneDrive/Desktop/GD32VW553/GD32VW55X_Wifi_BLE_SDK/GD32VW55x_RELEASE_V1.0.2/MSDK/lwip/libcoap-4.3.4/src\coap_uri.c ****     result->query.length = uri->query.length;
 2113              		.loc 1 689 63
 2114 008a 3A95     		add	a0,a0,a4
 2115 008c 13050502 		addi	a0,a0,32
 689:C:/Users/stapi/OneDrive/Desktop/GD32VW553/GD32VW55X_Wifi_BLE_SDK/GD32VW55x_RELEASE_V1.0.2/MSDK/lwip/libcoap-4.3.4/src\coap_uri.c ****     result->query.length = uri->query.length;
 2116              		.loc 1 689 25
 2117 0090 2695     		add	a0,s1,a0
 2118              	.LVL234:
 689:C:/Users/stapi/OneDrive/Desktop/GD32VW553/GD32VW55X_Wifi_BLE_SDK/GD32VW55x_RELEASE_V1.0.2/MSDK/lwip/libcoap-4.3.4/src\coap_uri.c ****     result->query.length = uri->query.length;
 2119              		.loc 1 689 21
 2120 0092 88CC     		sw	a0,24(s1)
 690:C:/Users/stapi/OneDrive/Desktop/GD32VW553/GD32VW55X_Wifi_BLE_SDK/GD32VW55x_RELEASE_V1.0.2/MSDK/lwip/libcoap-4.3.4/src\coap_uri.c **** 
 2121              		.loc 1 690 5 is_stmt 1
 692:C:/Users/stapi/OneDrive/Desktop/GD32VW553/GD32VW55X_Wifi_BLE_SDK/GD32VW55x_RELEASE_V1.0.2/MSDK/lwip/libcoap-4.3.4/src\coap_uri.c ****   }
 2122              		.loc 1 692 5
 2123 0094 0C4C     		lw	a1,24(s0)
 2124 0096 97000000 		call	memcpy
 2124      E7800000 
 2125              	.LVL235:
 2126 009e BDB7     		j	.L215
 2127              		.cfi_endproc
 2128              	.LFE46:
 2130              		.section	.text.coap_delete_uri,"ax",@progbits
 2131              		.align	1
 2132              		.globl	coap_delete_uri
 2134              	coap_delete_uri:
 2135              	.LFB47:
 699:C:/Users/stapi/OneDrive/Desktop/GD32VW553/GD32VW55X_Wifi_BLE_SDK/GD32VW55x_RELEASE_V1.0.2/MSDK/lwip/libcoap-4.3.4/src\coap_uri.c ****   coap_free_type(COAP_STRING, uri);
 2136              		.loc 1 699 34
 2137              		.cfi_startproc
 2138              	.LVL236:
 700:C:/Users/stapi/OneDrive/Desktop/GD32VW553/GD32VW55X_Wifi_BLE_SDK/GD32VW55x_RELEASE_V1.0.2/MSDK/lwip/libcoap-4.3.4/src\coap_uri.c **** }
 2139              		.loc 1 700 3
 699:C:/Users/stapi/OneDrive/Desktop/GD32VW553/GD32VW55X_Wifi_BLE_SDK/GD32VW55x_RELEASE_V1.0.2/MSDK/lwip/libcoap-4.3.4/src\coap_uri.c ****   coap_free_type(COAP_STRING, uri);
 2140              		.loc 1 699 34 is_stmt 0
 2141 0000 AA85     		mv	a1,a0
 700:C:/Users/stapi/OneDrive/Desktop/GD32VW553/GD32VW55X_Wifi_BLE_SDK/GD32VW55x_RELEASE_V1.0.2/MSDK/lwip/libcoap-4.3.4/src\coap_uri.c **** }
 2142              		.loc 1 700 3
 2143 0002 0145     		li	a0,0
 2144              	.LVL237:
 2145 0004 17030000 		tail	coap_free_type
 2145      67000300 
 2146              	.LVL238:
 2147              		.cfi_endproc
 2148              	.LFE47:
 2150              		.section	.text.coap_get_query,"ax",@progbits
 2151              		.align	1
 2152              		.globl	coap_get_query
 2154              	coap_get_query:
 2155              	.LFB50:
 711:C:/Users/stapi/OneDrive/Desktop/GD32VW553/GD32VW55X_Wifi_BLE_SDK/GD32VW55x_RELEASE_V1.0.2/MSDK/lwip/libcoap-4.3.4/src\coap_uri.c **** 
 712:C:/Users/stapi/OneDrive/Desktop/GD32VW553/GD32VW55X_Wifi_BLE_SDK/GD32VW55x_RELEASE_V1.0.2/MSDK/lwip/libcoap-4.3.4/src\coap_uri.c **** COAP_STATIC_INLINE int
 713:C:/Users/stapi/OneDrive/Desktop/GD32VW553/GD32VW55X_Wifi_BLE_SDK/GD32VW55x_RELEASE_V1.0.2/MSDK/lwip/libcoap-4.3.4/src\coap_uri.c **** is_unescaped_in_query(const uint8_t c) {
 714:C:/Users/stapi/OneDrive/Desktop/GD32VW553/GD32VW55X_Wifi_BLE_SDK/GD32VW55x_RELEASE_V1.0.2/MSDK/lwip/libcoap-4.3.4/src\coap_uri.c ****   return is_unescaped_in_path(c) || c=='/' || c=='?';
 715:C:/Users/stapi/OneDrive/Desktop/GD32VW553/GD32VW55X_Wifi_BLE_SDK/GD32VW55x_RELEASE_V1.0.2/MSDK/lwip/libcoap-4.3.4/src\coap_uri.c **** }
 716:C:/Users/stapi/OneDrive/Desktop/GD32VW553/GD32VW55X_Wifi_BLE_SDK/GD32VW55x_RELEASE_V1.0.2/MSDK/lwip/libcoap-4.3.4/src\coap_uri.c **** 
 717:C:/Users/stapi/OneDrive/Desktop/GD32VW553/GD32VW55X_Wifi_BLE_SDK/GD32VW55x_RELEASE_V1.0.2/MSDK/lwip/libcoap-4.3.4/src\coap_uri.c **** coap_string_t *
 718:C:/Users/stapi/OneDrive/Desktop/GD32VW553/GD32VW55X_Wifi_BLE_SDK/GD32VW55x_RELEASE_V1.0.2/MSDK/lwip/libcoap-4.3.4/src\coap_uri.c **** coap_get_query(const coap_pdu_t *request) {
 2156              		.loc 1 718 43 is_stmt 1
 2157              		.cfi_startproc
 2158              	.LVL239:
 2159 0000 17030000 		call	t0,__riscv_save_10
 2159      E7020300 
 2160              		.cfi_offset 25, -44
 2161              		.cfi_offset 24, -40
 2162              		.cfi_offset 23, -36
 2163              		.cfi_offset 22, -32
 2164              		.cfi_offset 21, -28
 2165              		.cfi_offset 20, -24
 2166              		.cfi_offset 19, -20
 2167              		.cfi_offset 18, -16
 2168              		.cfi_offset 9, -12
 2169              		.cfi_offset 8, -8
 2170              		.cfi_offset 1, -4
 2171              		.cfi_def_cfa_offset 48
 719:C:/Users/stapi/OneDrive/Desktop/GD32VW553/GD32VW55X_Wifi_BLE_SDK/GD32VW55x_RELEASE_V1.0.2/MSDK/lwip/libcoap-4.3.4/src\coap_uri.c ****   coap_opt_iterator_t opt_iter;
 2172              		.loc 1 719 3
 720:C:/Users/stapi/OneDrive/Desktop/GD32VW553/GD32VW55X_Wifi_BLE_SDK/GD32VW55x_RELEASE_V1.0.2/MSDK/lwip/libcoap-4.3.4/src\coap_uri.c ****   coap_opt_filter_t f;
 2173              		.loc 1 720 3
 721:C:/Users/stapi/OneDrive/Desktop/GD32VW553/GD32VW55X_Wifi_BLE_SDK/GD32VW55x_RELEASE_V1.0.2/MSDK/lwip/libcoap-4.3.4/src\coap_uri.c ****   coap_opt_t *q;
 2174              		.loc 1 721 3
 722:C:/Users/stapi/OneDrive/Desktop/GD32VW553/GD32VW55X_Wifi_BLE_SDK/GD32VW55x_RELEASE_V1.0.2/MSDK/lwip/libcoap-4.3.4/src\coap_uri.c ****   coap_string_t *query = NULL;
 2175              		.loc 1 722 3
 2176              	.LVL240:
 723:C:/Users/stapi/OneDrive/Desktop/GD32VW553/GD32VW55X_Wifi_BLE_SDK/GD32VW55x_RELEASE_V1.0.2/MSDK/lwip/libcoap-4.3.4/src\coap_uri.c ****   size_t length = 0;
 2177              		.loc 1 723 3
 724:C:/Users/stapi/OneDrive/Desktop/GD32VW553/GD32VW55X_Wifi_BLE_SDK/GD32VW55x_RELEASE_V1.0.2/MSDK/lwip/libcoap-4.3.4/src\coap_uri.c ****   static const uint8_t hex[] = "0123456789ABCDEF";
 2178              		.loc 1 724 3
 725:C:/Users/stapi/OneDrive/Desktop/GD32VW553/GD32VW55X_Wifi_BLE_SDK/GD32VW55x_RELEASE_V1.0.2/MSDK/lwip/libcoap-4.3.4/src\coap_uri.c **** 
 726:C:/Users/stapi/OneDrive/Desktop/GD32VW553/GD32VW55X_Wifi_BLE_SDK/GD32VW55x_RELEASE_V1.0.2/MSDK/lwip/libcoap-4.3.4/src\coap_uri.c ****   coap_option_filter_clear(&f);
 2179              		.loc 1 726 3
 718:C:/Users/stapi/OneDrive/Desktop/GD32VW553/GD32VW55X_Wifi_BLE_SDK/GD32VW55x_RELEASE_V1.0.2/MSDK/lwip/libcoap-4.3.4/src\coap_uri.c ****   coap_opt_iterator_t opt_iter;
 2180              		.loc 1 718 43 is_stmt 0
 2181 0008 7971     		addi	sp,sp,-48
 2182              		.cfi_def_cfa_offset 96
 718:C:/Users/stapi/OneDrive/Desktop/GD32VW553/GD32VW55X_Wifi_BLE_SDK/GD32VW55x_RELEASE_V1.0.2/MSDK/lwip/libcoap-4.3.4/src\coap_uri.c ****   coap_opt_iterator_t opt_iter;
 2183              		.loc 1 718 43
 2184 000a 2A89     		mv	s2,a0
 2185              		.loc 1 726 3
 2186 000c 6800     		addi	a0,sp,12
 2187              	.LVL241:
 2188 000e 97000000 		call	coap_option_filter_clear
 2188      E7800000 
 2189              	.LVL242:
 727:C:/Users/stapi/OneDrive/Desktop/GD32VW553/GD32VW55X_Wifi_BLE_SDK/GD32VW55x_RELEASE_V1.0.2/MSDK/lwip/libcoap-4.3.4/src\coap_uri.c ****   coap_option_filter_set(&f, COAP_OPTION_URI_QUERY);
 2190              		.loc 1 727 3 is_stmt 1
 2191 0016 BD45     		li	a1,15
 2192 0018 6800     		addi	a0,sp,12
 2193 001a 97000000 		call	coap_option_filter_set
 2193      E7800000 
 2194              	.LVL243:
 728:C:/Users/stapi/OneDrive/Desktop/GD32VW553/GD32VW55X_Wifi_BLE_SDK/GD32VW55x_RELEASE_V1.0.2/MSDK/lwip/libcoap-4.3.4/src\coap_uri.c ****   coap_option_iterator_init(request, &opt_iter, &f);
 2195              		.loc 1 728 3
 2196 0022 7000     		addi	a2,sp,12
 2197 0024 2C08     		addi	a1,sp,24
 2198 0026 4A85     		mv	a0,s2
 2199 0028 97000000 		call	coap_option_iterator_init
 2199      E7800000 
 2200              	.LVL244:
 729:C:/Users/stapi/OneDrive/Desktop/GD32VW553/GD32VW55X_Wifi_BLE_SDK/GD32VW55x_RELEASE_V1.0.2/MSDK/lwip/libcoap-4.3.4/src\coap_uri.c ****   while ((q = coap_option_next(&opt_iter))) {
 2201              		.loc 1 729 3
 723:C:/Users/stapi/OneDrive/Desktop/GD32VW553/GD32VW55X_Wifi_BLE_SDK/GD32VW55x_RELEASE_V1.0.2/MSDK/lwip/libcoap-4.3.4/src\coap_uri.c ****   static const uint8_t hex[] = "0123456789ABCDEF";
 2202              		.loc 1 723 10 is_stmt 0
 2203 0030 0144     		li	s0,0
 2204              	.LBB84:
 2205              	.LBB85:
 2206              	.LBB86:
 2207              	.LBB87:
 2208              	.LBB88:
 714:C:/Users/stapi/OneDrive/Desktop/GD32VW553/GD32VW55X_Wifi_BLE_SDK/GD32VW55x_RELEASE_V1.0.2/MSDK/lwip/libcoap-4.3.4/src\coap_uri.c **** }
 2209              		.loc 1 714 34
 2210 0032 130BF002 		li	s6,47
 2211              	.LVL245:
 2212              	.L237:
 2213              	.LBE88:
 2214              	.LBE87:
 2215              	.LBE86:
 2216              	.LBE85:
 2217              	.LBE84:
 2218              		.loc 1 729 9 is_stmt 1
 2219              		.loc 1 729 15 is_stmt 0
 2220 0036 2808     		addi	a0,sp,24
 2221 0038 97000000 		call	coap_option_next
 2221      E7800000 
 2222              	.LVL246:
 2223 0040 AA84     		mv	s1,a0
 2224              	.LVL247:
 2225              		.loc 1 729 9
 2226 0042 09E9     		bne	a0,zero,.L242
 730:C:/Users/stapi/OneDrive/Desktop/GD32VW553/GD32VW55X_Wifi_BLE_SDK/GD32VW55x_RELEASE_V1.0.2/MSDK/lwip/libcoap-4.3.4/src\coap_uri.c ****     uint16_t seg_len = coap_opt_length(q), i;
 731:C:/Users/stapi/OneDrive/Desktop/GD32VW553/GD32VW55X_Wifi_BLE_SDK/GD32VW55x_RELEASE_V1.0.2/MSDK/lwip/libcoap-4.3.4/src\coap_uri.c ****     const uint8_t *seg= coap_opt_value(q);
 732:C:/Users/stapi/OneDrive/Desktop/GD32VW553/GD32VW55X_Wifi_BLE_SDK/GD32VW55x_RELEASE_V1.0.2/MSDK/lwip/libcoap-4.3.4/src\coap_uri.c ****     for (i = 0; i < seg_len; i++) {
 733:C:/Users/stapi/OneDrive/Desktop/GD32VW553/GD32VW55X_Wifi_BLE_SDK/GD32VW55x_RELEASE_V1.0.2/MSDK/lwip/libcoap-4.3.4/src\coap_uri.c ****       if (is_unescaped_in_query(seg[i]))
 734:C:/Users/stapi/OneDrive/Desktop/GD32VW553/GD32VW55X_Wifi_BLE_SDK/GD32VW55x_RELEASE_V1.0.2/MSDK/lwip/libcoap-4.3.4/src\coap_uri.c ****         length += 1;
 735:C:/Users/stapi/OneDrive/Desktop/GD32VW553/GD32VW55X_Wifi_BLE_SDK/GD32VW55x_RELEASE_V1.0.2/MSDK/lwip/libcoap-4.3.4/src\coap_uri.c ****       else
 736:C:/Users/stapi/OneDrive/Desktop/GD32VW553/GD32VW55X_Wifi_BLE_SDK/GD32VW55x_RELEASE_V1.0.2/MSDK/lwip/libcoap-4.3.4/src\coap_uri.c ****         length += 3;
 737:C:/Users/stapi/OneDrive/Desktop/GD32VW553/GD32VW55X_Wifi_BLE_SDK/GD32VW55x_RELEASE_V1.0.2/MSDK/lwip/libcoap-4.3.4/src\coap_uri.c ****     }
 738:C:/Users/stapi/OneDrive/Desktop/GD32VW553/GD32VW55X_Wifi_BLE_SDK/GD32VW55x_RELEASE_V1.0.2/MSDK/lwip/libcoap-4.3.4/src\coap_uri.c ****     length += 1;
 739:C:/Users/stapi/OneDrive/Desktop/GD32VW553/GD32VW55X_Wifi_BLE_SDK/GD32VW55x_RELEASE_V1.0.2/MSDK/lwip/libcoap-4.3.4/src\coap_uri.c ****   }
 740:C:/Users/stapi/OneDrive/Desktop/GD32VW553/GD32VW55X_Wifi_BLE_SDK/GD32VW55x_RELEASE_V1.0.2/MSDK/lwip/libcoap-4.3.4/src\coap_uri.c ****   if (length > 0)
 2227              		.loc 1 740 3 is_stmt 1
 2228              		.loc 1 740 6 is_stmt 0
 2229 0044 31EC     		bne	s0,zero,.L243
 2230              	.LVL248:
 2231              	.L245:
 722:C:/Users/stapi/OneDrive/Desktop/GD32VW553/GD32VW55X_Wifi_BLE_SDK/GD32VW55x_RELEASE_V1.0.2/MSDK/lwip/libcoap-4.3.4/src\coap_uri.c ****   size_t length = 0;
 2232              		.loc 1 722 18
 2233 0046 8144     		li	s1,0
 2234              	.LVL249:
 2235              	.L236:
 741:C:/Users/stapi/OneDrive/Desktop/GD32VW553/GD32VW55X_Wifi_BLE_SDK/GD32VW55x_RELEASE_V1.0.2/MSDK/lwip/libcoap-4.3.4/src\coap_uri.c ****     length -= 1;
 742:C:/Users/stapi/OneDrive/Desktop/GD32VW553/GD32VW55X_Wifi_BLE_SDK/GD32VW55x_RELEASE_V1.0.2/MSDK/lwip/libcoap-4.3.4/src\coap_uri.c ****   if (length > 0) {
 743:C:/Users/stapi/OneDrive/Desktop/GD32VW553/GD32VW55X_Wifi_BLE_SDK/GD32VW55x_RELEASE_V1.0.2/MSDK/lwip/libcoap-4.3.4/src\coap_uri.c ****     query = coap_new_string(length);
 744:C:/Users/stapi/OneDrive/Desktop/GD32VW553/GD32VW55X_Wifi_BLE_SDK/GD32VW55x_RELEASE_V1.0.2/MSDK/lwip/libcoap-4.3.4/src\coap_uri.c ****     if (query) {
 745:C:/Users/stapi/OneDrive/Desktop/GD32VW553/GD32VW55X_Wifi_BLE_SDK/GD32VW55x_RELEASE_V1.0.2/MSDK/lwip/libcoap-4.3.4/src\coap_uri.c ****       query->length = length;
 746:C:/Users/stapi/OneDrive/Desktop/GD32VW553/GD32VW55X_Wifi_BLE_SDK/GD32VW55x_RELEASE_V1.0.2/MSDK/lwip/libcoap-4.3.4/src\coap_uri.c ****       unsigned char *s = query->s;
 747:C:/Users/stapi/OneDrive/Desktop/GD32VW553/GD32VW55X_Wifi_BLE_SDK/GD32VW55x_RELEASE_V1.0.2/MSDK/lwip/libcoap-4.3.4/src\coap_uri.c ****       coap_option_iterator_init(request, &opt_iter, &f);
 748:C:/Users/stapi/OneDrive/Desktop/GD32VW553/GD32VW55X_Wifi_BLE_SDK/GD32VW55x_RELEASE_V1.0.2/MSDK/lwip/libcoap-4.3.4/src\coap_uri.c ****       while ((q = coap_option_next(&opt_iter))) {
 749:C:/Users/stapi/OneDrive/Desktop/GD32VW553/GD32VW55X_Wifi_BLE_SDK/GD32VW55x_RELEASE_V1.0.2/MSDK/lwip/libcoap-4.3.4/src\coap_uri.c ****         if (s != query->s)
 750:C:/Users/stapi/OneDrive/Desktop/GD32VW553/GD32VW55X_Wifi_BLE_SDK/GD32VW55x_RELEASE_V1.0.2/MSDK/lwip/libcoap-4.3.4/src\coap_uri.c ****           *s++ = '&';
 751:C:/Users/stapi/OneDrive/Desktop/GD32VW553/GD32VW55X_Wifi_BLE_SDK/GD32VW55x_RELEASE_V1.0.2/MSDK/lwip/libcoap-4.3.4/src\coap_uri.c ****         uint16_t seg_len = coap_opt_length(q), i;
 752:C:/Users/stapi/OneDrive/Desktop/GD32VW553/GD32VW55X_Wifi_BLE_SDK/GD32VW55x_RELEASE_V1.0.2/MSDK/lwip/libcoap-4.3.4/src\coap_uri.c ****         const uint8_t *seg= coap_opt_value(q);
 753:C:/Users/stapi/OneDrive/Desktop/GD32VW553/GD32VW55X_Wifi_BLE_SDK/GD32VW55x_RELEASE_V1.0.2/MSDK/lwip/libcoap-4.3.4/src\coap_uri.c ****         for (i = 0; i < seg_len; i++) {
 754:C:/Users/stapi/OneDrive/Desktop/GD32VW553/GD32VW55X_Wifi_BLE_SDK/GD32VW55x_RELEASE_V1.0.2/MSDK/lwip/libcoap-4.3.4/src\coap_uri.c ****           if (is_unescaped_in_query(seg[i])) {
 755:C:/Users/stapi/OneDrive/Desktop/GD32VW553/GD32VW55X_Wifi_BLE_SDK/GD32VW55x_RELEASE_V1.0.2/MSDK/lwip/libcoap-4.3.4/src\coap_uri.c ****             *s++ = seg[i];
 756:C:/Users/stapi/OneDrive/Desktop/GD32VW553/GD32VW55X_Wifi_BLE_SDK/GD32VW55x_RELEASE_V1.0.2/MSDK/lwip/libcoap-4.3.4/src\coap_uri.c ****           } else {
 757:C:/Users/stapi/OneDrive/Desktop/GD32VW553/GD32VW55X_Wifi_BLE_SDK/GD32VW55x_RELEASE_V1.0.2/MSDK/lwip/libcoap-4.3.4/src\coap_uri.c ****             *s++ = '%';
 758:C:/Users/stapi/OneDrive/Desktop/GD32VW553/GD32VW55X_Wifi_BLE_SDK/GD32VW55x_RELEASE_V1.0.2/MSDK/lwip/libcoap-4.3.4/src\coap_uri.c ****             *s++ = hex[seg[i]>>4];
 759:C:/Users/stapi/OneDrive/Desktop/GD32VW553/GD32VW55X_Wifi_BLE_SDK/GD32VW55x_RELEASE_V1.0.2/MSDK/lwip/libcoap-4.3.4/src\coap_uri.c ****             *s++ = hex[seg[i]&0x0F];
 760:C:/Users/stapi/OneDrive/Desktop/GD32VW553/GD32VW55X_Wifi_BLE_SDK/GD32VW55x_RELEASE_V1.0.2/MSDK/lwip/libcoap-4.3.4/src\coap_uri.c ****           }
 761:C:/Users/stapi/OneDrive/Desktop/GD32VW553/GD32VW55X_Wifi_BLE_SDK/GD32VW55x_RELEASE_V1.0.2/MSDK/lwip/libcoap-4.3.4/src\coap_uri.c ****         }
 762:C:/Users/stapi/OneDrive/Desktop/GD32VW553/GD32VW55X_Wifi_BLE_SDK/GD32VW55x_RELEASE_V1.0.2/MSDK/lwip/libcoap-4.3.4/src\coap_uri.c ****       }
 763:C:/Users/stapi/OneDrive/Desktop/GD32VW553/GD32VW55X_Wifi_BLE_SDK/GD32VW55x_RELEASE_V1.0.2/MSDK/lwip/libcoap-4.3.4/src\coap_uri.c ****     }
 764:C:/Users/stapi/OneDrive/Desktop/GD32VW553/GD32VW55X_Wifi_BLE_SDK/GD32VW55x_RELEASE_V1.0.2/MSDK/lwip/libcoap-4.3.4/src\coap_uri.c ****   }
 765:C:/Users/stapi/OneDrive/Desktop/GD32VW553/GD32VW55X_Wifi_BLE_SDK/GD32VW55x_RELEASE_V1.0.2/MSDK/lwip/libcoap-4.3.4/src\coap_uri.c ****   return query;
 766:C:/Users/stapi/OneDrive/Desktop/GD32VW553/GD32VW55X_Wifi_BLE_SDK/GD32VW55x_RELEASE_V1.0.2/MSDK/lwip/libcoap-4.3.4/src\coap_uri.c **** }
 2236              		.loc 1 766 1
 2237 0048 2685     		mv	a0,s1
 2238 004a 4561     		addi	sp,sp,48
 2239              		.cfi_remember_state
 2240              		.cfi_def_cfa_offset 0
 2241 004c 17030000 		tail	__riscv_restore_10
 2241      67000300 
 2242              		.cfi_restore 25
 2243              		.cfi_restore 24
 2244              		.cfi_restore 23
 2245              		.cfi_restore 22
 2246              		.cfi_restore 21
 2247              		.cfi_restore 20
 2248              		.cfi_restore 19
 2249              		.cfi_restore 18
 2250              		.cfi_restore 9
 2251              		.cfi_restore 8
 2252              		.cfi_restore 1
 2253              		.cfi_def_cfa_offset -48
 2254              	.LVL250:
 2255              	.L242:
 2256              		.cfi_restore_state
 2257              	.LBB93:
 730:C:/Users/stapi/OneDrive/Desktop/GD32VW553/GD32VW55X_Wifi_BLE_SDK/GD32VW55x_RELEASE_V1.0.2/MSDK/lwip/libcoap-4.3.4/src\coap_uri.c ****     const uint8_t *seg= coap_opt_value(q);
 2258              		.loc 1 730 5 is_stmt 1
 730:C:/Users/stapi/OneDrive/Desktop/GD32VW553/GD32VW55X_Wifi_BLE_SDK/GD32VW55x_RELEASE_V1.0.2/MSDK/lwip/libcoap-4.3.4/src\coap_uri.c ****     const uint8_t *seg= coap_opt_value(q);
 2259              		.loc 1 730 24 is_stmt 0
 2260 0054 97000000 		call	coap_opt_length
 2260      E7800000 
 2261              	.LVL251:
 730:C:/Users/stapi/OneDrive/Desktop/GD32VW553/GD32VW55X_Wifi_BLE_SDK/GD32VW55x_RELEASE_V1.0.2/MSDK/lwip/libcoap-4.3.4/src\coap_uri.c ****     const uint8_t *seg= coap_opt_value(q);
 2262              		.loc 1 730 14
 2263 005c 334A0508 		zext.h	s4,a0
 2264              	.LVL252:
 731:C:/Users/stapi/OneDrive/Desktop/GD32VW553/GD32VW55X_Wifi_BLE_SDK/GD32VW55x_RELEASE_V1.0.2/MSDK/lwip/libcoap-4.3.4/src\coap_uri.c ****     for (i = 0; i < seg_len; i++) {
 2265              		.loc 1 731 5 is_stmt 1
 731:C:/Users/stapi/OneDrive/Desktop/GD32VW553/GD32VW55X_Wifi_BLE_SDK/GD32VW55x_RELEASE_V1.0.2/MSDK/lwip/libcoap-4.3.4/src\coap_uri.c ****     for (i = 0; i < seg_len; i++) {
 2266              		.loc 1 731 25 is_stmt 0
 2267 0060 2685     		mv	a0,s1
 2268 0062 97000000 		call	coap_opt_value
 2268      E7800000 
 2269              	.LVL253:
 2270 006a AA8A     		mv	s5,a0
 2271              	.LVL254:
 732:C:/Users/stapi/OneDrive/Desktop/GD32VW553/GD32VW55X_Wifi_BLE_SDK/GD32VW55x_RELEASE_V1.0.2/MSDK/lwip/libcoap-4.3.4/src\coap_uri.c ****       if (is_unescaped_in_query(seg[i]))
 2272              		.loc 1 732 5 is_stmt 1
 2273 006c 8144     		li	s1,0
 2274              	.LVL255:
 2275              	.L238:
 732:C:/Users/stapi/OneDrive/Desktop/GD32VW553/GD32VW55X_Wifi_BLE_SDK/GD32VW55x_RELEASE_V1.0.2/MSDK/lwip/libcoap-4.3.4/src\coap_uri.c ****       if (is_unescaped_in_query(seg[i]))
 2276              		.loc 1 732 17 discriminator 1
 732:C:/Users/stapi/OneDrive/Desktop/GD32VW553/GD32VW55X_Wifi_BLE_SDK/GD32VW55x_RELEASE_V1.0.2/MSDK/lwip/libcoap-4.3.4/src\coap_uri.c ****       if (is_unescaped_in_query(seg[i]))
 2277              		.loc 1 732 5 is_stmt 0 discriminator 1
 2278 006e B3C70408 		zext.h	a5,s1
 2279 0072 63E44701 		bgtu	s4,a5,.L241
 738:C:/Users/stapi/OneDrive/Desktop/GD32VW553/GD32VW55X_Wifi_BLE_SDK/GD32VW55x_RELEASE_V1.0.2/MSDK/lwip/libcoap-4.3.4/src\coap_uri.c ****   }
 2280              		.loc 1 738 5 is_stmt 1
 738:C:/Users/stapi/OneDrive/Desktop/GD32VW553/GD32VW55X_Wifi_BLE_SDK/GD32VW55x_RELEASE_V1.0.2/MSDK/lwip/libcoap-4.3.4/src\coap_uri.c ****   }
 2281              		.loc 1 738 12 is_stmt 0
 2282 0076 0504     		addi	s0,s0,1
 2283              	.LVL256:
 2284 0078 7DBF     		j	.L237
 2285              	.L241:
 733:C:/Users/stapi/OneDrive/Desktop/GD32VW553/GD32VW55X_Wifi_BLE_SDK/GD32VW55x_RELEASE_V1.0.2/MSDK/lwip/libcoap-4.3.4/src\coap_uri.c ****         length += 1;
 2286              		.loc 1 733 7 is_stmt 1
 733:C:/Users/stapi/OneDrive/Desktop/GD32VW553/GD32VW55X_Wifi_BLE_SDK/GD32VW55x_RELEASE_V1.0.2/MSDK/lwip/libcoap-4.3.4/src\coap_uri.c ****         length += 1;
 2287              		.loc 1 733 11 is_stmt 0
 2288 007a B3879A00 		add	a5,s5,s1
 2289 007e 83C90700 		lbu	s3,0(a5)
 2290              	.LVL257:
 2291              	.LBB92:
 2292              	.LBB91:
 714:C:/Users/stapi/OneDrive/Desktop/GD32VW553/GD32VW55X_Wifi_BLE_SDK/GD32VW55x_RELEASE_V1.0.2/MSDK/lwip/libcoap-4.3.4/src\coap_uri.c **** }
 2293              		.loc 1 714 3 is_stmt 1
 714:C:/Users/stapi/OneDrive/Desktop/GD32VW553/GD32VW55X_Wifi_BLE_SDK/GD32VW55x_RELEASE_V1.0.2/MSDK/lwip/libcoap-4.3.4/src\coap_uri.c **** }
 2294              		.loc 1 714 10 is_stmt 0
 2295 0082 4E85     		mv	a0,s3
 2296 0084 97000000 		call	is_unescaped_in_path
 2296      E7800000 
 2297              	.LVL258:
 714:C:/Users/stapi/OneDrive/Desktop/GD32VW553/GD32VW55X_Wifi_BLE_SDK/GD32VW55x_RELEASE_V1.0.2/MSDK/lwip/libcoap-4.3.4/src\coap_uri.c **** }
 2298              		.loc 1 714 44
 2299 008c 01E9     		bne	a0,zero,.L239
 2300              	.LVL259:
 2301              	.LBB90:
 2302              	.LBB89:
 714:C:/Users/stapi/OneDrive/Desktop/GD32VW553/GD32VW55X_Wifi_BLE_SDK/GD32VW55x_RELEASE_V1.0.2/MSDK/lwip/libcoap-4.3.4/src\coap_uri.c **** }
 2303              		.loc 1 714 34
 2304 008e 93F9F90E 		andi	s3,s3,239
 2305              	.LVL260:
 2306 0092 63856901 		beq	s3,s6,.L239
 2307              	.LBE89:
 2308              	.LBE90:
 2309              	.LBE91:
 2310              	.LBE92:
 736:C:/Users/stapi/OneDrive/Desktop/GD32VW553/GD32VW55X_Wifi_BLE_SDK/GD32VW55x_RELEASE_V1.0.2/MSDK/lwip/libcoap-4.3.4/src\coap_uri.c ****     }
 2311              		.loc 1 736 9 is_stmt 1
 736:C:/Users/stapi/OneDrive/Desktop/GD32VW553/GD32VW55X_Wifi_BLE_SDK/GD32VW55x_RELEASE_V1.0.2/MSDK/lwip/libcoap-4.3.4/src\coap_uri.c ****     }
 2312              		.loc 1 736 16 is_stmt 0
 2313 0096 0D04     		addi	s0,s0,3
 2314              	.LVL261:
 2315              	.L240:
 732:C:/Users/stapi/OneDrive/Desktop/GD32VW553/GD32VW55X_Wifi_BLE_SDK/GD32VW55x_RELEASE_V1.0.2/MSDK/lwip/libcoap-4.3.4/src\coap_uri.c ****       if (is_unescaped_in_query(seg[i]))
 2316              		.loc 1 732 30 is_stmt 1 discriminator 2
 2317 0098 8504     		addi	s1,s1,1
 2318              	.LVL262:
 2319 009a D1BF     		j	.L238
 2320              	.LVL263:
 2321              	.L239:
 734:C:/Users/stapi/OneDrive/Desktop/GD32VW553/GD32VW55X_Wifi_BLE_SDK/GD32VW55x_RELEASE_V1.0.2/MSDK/lwip/libcoap-4.3.4/src\coap_uri.c ****       else
 2322              		.loc 1 734 9
 734:C:/Users/stapi/OneDrive/Desktop/GD32VW553/GD32VW55X_Wifi_BLE_SDK/GD32VW55x_RELEASE_V1.0.2/MSDK/lwip/libcoap-4.3.4/src\coap_uri.c ****       else
 2323              		.loc 1 734 16 is_stmt 0
 2324 009c 0504     		addi	s0,s0,1
 2325              	.LVL264:
 2326 009e EDBF     		j	.L240
 2327              	.LVL265:
 2328              	.L243:
 2329              	.LBE93:
 741:C:/Users/stapi/OneDrive/Desktop/GD32VW553/GD32VW55X_Wifi_BLE_SDK/GD32VW55x_RELEASE_V1.0.2/MSDK/lwip/libcoap-4.3.4/src\coap_uri.c ****   if (length > 0) {
 2330              		.loc 1 741 5 is_stmt 1
 741:C:/Users/stapi/OneDrive/Desktop/GD32VW553/GD32VW55X_Wifi_BLE_SDK/GD32VW55x_RELEASE_V1.0.2/MSDK/lwip/libcoap-4.3.4/src\coap_uri.c ****   if (length > 0) {
 2331              		.loc 1 741 12 is_stmt 0
 2332 00a0 7D14     		addi	s0,s0,-1
 2333              	.LVL266:
 742:C:/Users/stapi/OneDrive/Desktop/GD32VW553/GD32VW55X_Wifi_BLE_SDK/GD32VW55x_RELEASE_V1.0.2/MSDK/lwip/libcoap-4.3.4/src\coap_uri.c ****     query = coap_new_string(length);
 2334              		.loc 1 742 3 is_stmt 1
 742:C:/Users/stapi/OneDrive/Desktop/GD32VW553/GD32VW55X_Wifi_BLE_SDK/GD32VW55x_RELEASE_V1.0.2/MSDK/lwip/libcoap-4.3.4/src\coap_uri.c ****     query = coap_new_string(length);
 2335              		.loc 1 742 6 is_stmt 0
 2336 00a2 55D0     		beq	s0,zero,.L245
 743:C:/Users/stapi/OneDrive/Desktop/GD32VW553/GD32VW55X_Wifi_BLE_SDK/GD32VW55x_RELEASE_V1.0.2/MSDK/lwip/libcoap-4.3.4/src\coap_uri.c ****     if (query) {
 2337              		.loc 1 743 5 is_stmt 1
 743:C:/Users/stapi/OneDrive/Desktop/GD32VW553/GD32VW55X_Wifi_BLE_SDK/GD32VW55x_RELEASE_V1.0.2/MSDK/lwip/libcoap-4.3.4/src\coap_uri.c ****     if (query) {
 2338              		.loc 1 743 13 is_stmt 0
 2339 00a4 2285     		mv	a0,s0
 2340 00a6 97000000 		call	coap_new_string
 2340      E7800000 
 2341              	.LVL267:
 2342 00ae AA84     		mv	s1,a0
 2343              	.LVL268:
 744:C:/Users/stapi/OneDrive/Desktop/GD32VW553/GD32VW55X_Wifi_BLE_SDK/GD32VW55x_RELEASE_V1.0.2/MSDK/lwip/libcoap-4.3.4/src\coap_uri.c ****       query->length = length;
 2344              		.loc 1 744 5 is_stmt 1
 744:C:/Users/stapi/OneDrive/Desktop/GD32VW553/GD32VW55X_Wifi_BLE_SDK/GD32VW55x_RELEASE_V1.0.2/MSDK/lwip/libcoap-4.3.4/src\coap_uri.c ****       query->length = length;
 2345              		.loc 1 744 8 is_stmt 0
 2346 00b0 59D9     		beq	a0,zero,.L245
 2347              	.LBB94:
 745:C:/Users/stapi/OneDrive/Desktop/GD32VW553/GD32VW55X_Wifi_BLE_SDK/GD32VW55x_RELEASE_V1.0.2/MSDK/lwip/libcoap-4.3.4/src\coap_uri.c ****       unsigned char *s = query->s;
 2348              		.loc 1 745 7 is_stmt 1
 745:C:/Users/stapi/OneDrive/Desktop/GD32VW553/GD32VW55X_Wifi_BLE_SDK/GD32VW55x_RELEASE_V1.0.2/MSDK/lwip/libcoap-4.3.4/src\coap_uri.c ****       unsigned char *s = query->s;
 2349              		.loc 1 745 21 is_stmt 0
 2350 00b2 00C1     		sw	s0,0(a0)
 746:C:/Users/stapi/OneDrive/Desktop/GD32VW553/GD32VW55X_Wifi_BLE_SDK/GD32VW55x_RELEASE_V1.0.2/MSDK/lwip/libcoap-4.3.4/src\coap_uri.c ****       coap_option_iterator_init(request, &opt_iter, &f);
 2351              		.loc 1 746 7 is_stmt 1
 747:C:/Users/stapi/OneDrive/Desktop/GD32VW553/GD32VW55X_Wifi_BLE_SDK/GD32VW55x_RELEASE_V1.0.2/MSDK/lwip/libcoap-4.3.4/src\coap_uri.c ****       while ((q = coap_option_next(&opt_iter))) {
 2352              		.loc 1 747 7 is_stmt 0
 2353 00b4 7000     		addi	a2,sp,12
 746:C:/Users/stapi/OneDrive/Desktop/GD32VW553/GD32VW55X_Wifi_BLE_SDK/GD32VW55x_RELEASE_V1.0.2/MSDK/lwip/libcoap-4.3.4/src\coap_uri.c ****       coap_option_iterator_init(request, &opt_iter, &f);
 2354              		.loc 1 746 22
 2355 00b6 4041     		lw	s0,4(a0)
 2356              	.LVL269:
 747:C:/Users/stapi/OneDrive/Desktop/GD32VW553/GD32VW55X_Wifi_BLE_SDK/GD32VW55x_RELEASE_V1.0.2/MSDK/lwip/libcoap-4.3.4/src\coap_uri.c ****       while ((q = coap_option_next(&opt_iter))) {
 2357              		.loc 1 747 7 is_stmt 1
 2358 00b8 2C08     		addi	a1,sp,24
 2359 00ba 4A85     		mv	a0,s2
 2360              	.LBB95:
 758:C:/Users/stapi/OneDrive/Desktop/GD32VW553/GD32VW55X_Wifi_BLE_SDK/GD32VW55x_RELEASE_V1.0.2/MSDK/lwip/libcoap-4.3.4/src\coap_uri.c ****             *s++ = hex[seg[i]&0x0F];
 2361              		.loc 1 758 23 is_stmt 0
 2362 00bc B7090000 		lui	s3,%hi(.LANCHOR3)
 2363              	.LBE95:
 747:C:/Users/stapi/OneDrive/Desktop/GD32VW553/GD32VW55X_Wifi_BLE_SDK/GD32VW55x_RELEASE_V1.0.2/MSDK/lwip/libcoap-4.3.4/src\coap_uri.c ****       while ((q = coap_option_next(&opt_iter))) {
 2364              		.loc 1 747 7
 2365 00c0 97000000 		call	coap_option_iterator_init
 2365      E7800000 
 2366              	.LVL270:
 748:C:/Users/stapi/OneDrive/Desktop/GD32VW553/GD32VW55X_Wifi_BLE_SDK/GD32VW55x_RELEASE_V1.0.2/MSDK/lwip/libcoap-4.3.4/src\coap_uri.c ****         if (s != query->s)
 2367              		.loc 1 748 7 is_stmt 1
 2368              	.LBB104:
 750:C:/Users/stapi/OneDrive/Desktop/GD32VW553/GD32VW55X_Wifi_BLE_SDK/GD32VW55x_RELEASE_V1.0.2/MSDK/lwip/libcoap-4.3.4/src\coap_uri.c ****         uint16_t seg_len = coap_opt_length(q), i;
 2369              		.loc 1 750 16 is_stmt 0
 2370 00c8 130A6002 		li	s4,38
 2371              	.LBB96:
 2372              	.LBB97:
 2373              	.LBB98:
 2374              	.LBB99:
 714:C:/Users/stapi/OneDrive/Desktop/GD32VW553/GD32VW55X_Wifi_BLE_SDK/GD32VW55x_RELEASE_V1.0.2/MSDK/lwip/libcoap-4.3.4/src\coap_uri.c **** }
 2375              		.loc 1 714 34
 2376 00cc 930AF002 		li	s5,47
 2377              	.LBE99:
 2378              	.LBE98:
 2379              	.LBE97:
 2380              	.LBE96:
 757:C:/Users/stapi/OneDrive/Desktop/GD32VW553/GD32VW55X_Wifi_BLE_SDK/GD32VW55x_RELEASE_V1.0.2/MSDK/lwip/libcoap-4.3.4/src\coap_uri.c ****             *s++ = hex[seg[i]>>4];
 2381              		.loc 1 757 18
 2382 00d0 130B5002 		li	s6,37
 758:C:/Users/stapi/OneDrive/Desktop/GD32VW553/GD32VW55X_Wifi_BLE_SDK/GD32VW55x_RELEASE_V1.0.2/MSDK/lwip/libcoap-4.3.4/src\coap_uri.c ****             *s++ = hex[seg[i]&0x0F];
 2383              		.loc 1 758 23
 2384 00d4 93890900 		addi	s3,s3,%lo(.LANCHOR3)
 2385              	.LVL271:
 2386              	.L246:
 2387              	.LBE104:
 748:C:/Users/stapi/OneDrive/Desktop/GD32VW553/GD32VW55X_Wifi_BLE_SDK/GD32VW55x_RELEASE_V1.0.2/MSDK/lwip/libcoap-4.3.4/src\coap_uri.c ****         if (s != query->s)
 2388              		.loc 1 748 13 is_stmt 1
 748:C:/Users/stapi/OneDrive/Desktop/GD32VW553/GD32VW55X_Wifi_BLE_SDK/GD32VW55x_RELEASE_V1.0.2/MSDK/lwip/libcoap-4.3.4/src\coap_uri.c ****         if (s != query->s)
 2389              		.loc 1 748 19 is_stmt 0
 2390 00d8 2808     		addi	a0,sp,24
 2391 00da 97000000 		call	coap_option_next
 2391      E7800000 
 2392              	.LVL272:
 2393 00e2 2A89     		mv	s2,a0
 2394              	.LVL273:
 748:C:/Users/stapi/OneDrive/Desktop/GD32VW553/GD32VW55X_Wifi_BLE_SDK/GD32VW55x_RELEASE_V1.0.2/MSDK/lwip/libcoap-4.3.4/src\coap_uri.c ****         if (s != query->s)
 2395              		.loc 1 748 13
 2396 00e4 35D1     		beq	a0,zero,.L236
 2397              	.LBB105:
 749:C:/Users/stapi/OneDrive/Desktop/GD32VW553/GD32VW55X_Wifi_BLE_SDK/GD32VW55x_RELEASE_V1.0.2/MSDK/lwip/libcoap-4.3.4/src\coap_uri.c ****           *s++ = '&';
 2398              		.loc 1 749 9 is_stmt 1
 749:C:/Users/stapi/OneDrive/Desktop/GD32VW553/GD32VW55X_Wifi_BLE_SDK/GD32VW55x_RELEASE_V1.0.2/MSDK/lwip/libcoap-4.3.4/src\coap_uri.c ****           *s++ = '&';
 2399              		.loc 1 749 12 is_stmt 0
 2400 00e6 DC40     		lw	a5,4(s1)
 2401 00e8 63858700 		beq	a5,s0,.L247
 750:C:/Users/stapi/OneDrive/Desktop/GD32VW553/GD32VW55X_Wifi_BLE_SDK/GD32VW55x_RELEASE_V1.0.2/MSDK/lwip/libcoap-4.3.4/src\coap_uri.c ****         uint16_t seg_len = coap_opt_length(q), i;
 2402              		.loc 1 750 11 is_stmt 1
 2403              	.LVL274:
 750:C:/Users/stapi/OneDrive/Desktop/GD32VW553/GD32VW55X_Wifi_BLE_SDK/GD32VW55x_RELEASE_V1.0.2/MSDK/lwip/libcoap-4.3.4/src\coap_uri.c ****         uint16_t seg_len = coap_opt_length(q), i;
 2404              		.loc 1 750 16 is_stmt 0
 2405 00ec 23004401 		sb	s4,0(s0)
 750:C:/Users/stapi/OneDrive/Desktop/GD32VW553/GD32VW55X_Wifi_BLE_SDK/GD32VW55x_RELEASE_V1.0.2/MSDK/lwip/libcoap-4.3.4/src\coap_uri.c ****         uint16_t seg_len = coap_opt_length(q), i;
 2406              		.loc 1 750 13
 2407 00f0 0504     		addi	s0,s0,1
 2408              	.LVL275:
 2409              	.L247:
 751:C:/Users/stapi/OneDrive/Desktop/GD32VW553/GD32VW55X_Wifi_BLE_SDK/GD32VW55x_RELEASE_V1.0.2/MSDK/lwip/libcoap-4.3.4/src\coap_uri.c ****         const uint8_t *seg= coap_opt_value(q);
 2410              		.loc 1 751 9 is_stmt 1
 751:C:/Users/stapi/OneDrive/Desktop/GD32VW553/GD32VW55X_Wifi_BLE_SDK/GD32VW55x_RELEASE_V1.0.2/MSDK/lwip/libcoap-4.3.4/src\coap_uri.c ****         const uint8_t *seg= coap_opt_value(q);
 2411              		.loc 1 751 28 is_stmt 0
 2412 00f2 4A85     		mv	a0,s2
 2413              	.LVL276:
 2414 00f4 97000000 		call	coap_opt_length
 2414      E7800000 
 2415              	.LVL277:
 751:C:/Users/stapi/OneDrive/Desktop/GD32VW553/GD32VW55X_Wifi_BLE_SDK/GD32VW55x_RELEASE_V1.0.2/MSDK/lwip/libcoap-4.3.4/src\coap_uri.c ****         const uint8_t *seg= coap_opt_value(q);
 2416              		.loc 1 751 18
 2417 00fc B34B0508 		zext.h	s7,a0
 2418              	.LVL278:
 752:C:/Users/stapi/OneDrive/Desktop/GD32VW553/GD32VW55X_Wifi_BLE_SDK/GD32VW55x_RELEASE_V1.0.2/MSDK/lwip/libcoap-4.3.4/src\coap_uri.c ****         for (i = 0; i < seg_len; i++) {
 2419              		.loc 1 752 9 is_stmt 1
 752:C:/Users/stapi/OneDrive/Desktop/GD32VW553/GD32VW55X_Wifi_BLE_SDK/GD32VW55x_RELEASE_V1.0.2/MSDK/lwip/libcoap-4.3.4/src\coap_uri.c ****         for (i = 0; i < seg_len; i++) {
 2420              		.loc 1 752 29 is_stmt 0
 2421 0100 4A85     		mv	a0,s2
 2422 0102 97000000 		call	coap_opt_value
 2422      E7800000 
 2423              	.LVL279:
 2424 010a 2A8C     		mv	s8,a0
 2425              	.LVL280:
 753:C:/Users/stapi/OneDrive/Desktop/GD32VW553/GD32VW55X_Wifi_BLE_SDK/GD32VW55x_RELEASE_V1.0.2/MSDK/lwip/libcoap-4.3.4/src\coap_uri.c ****           if (is_unescaped_in_query(seg[i])) {
 2426              		.loc 1 753 9 is_stmt 1
 2427 010c 2A89     		mv	s2,a0
 2428              	.LVL281:
 2429              	.L248:
 753:C:/Users/stapi/OneDrive/Desktop/GD32VW553/GD32VW55X_Wifi_BLE_SDK/GD32VW55x_RELEASE_V1.0.2/MSDK/lwip/libcoap-4.3.4/src\coap_uri.c ****           if (is_unescaped_in_query(seg[i])) {
 2430              		.loc 1 753 21 discriminator 1
 753:C:/Users/stapi/OneDrive/Desktop/GD32VW553/GD32VW55X_Wifi_BLE_SDK/GD32VW55x_RELEASE_V1.0.2/MSDK/lwip/libcoap-4.3.4/src\coap_uri.c ****           if (is_unescaped_in_query(seg[i])) {
 2431              		.loc 1 753 9 is_stmt 0 discriminator 1
 2432 010e B3078941 		sub	a5,s2,s8
 2433 0112 B3C70708 		zext.h	a5,a5
 2434 0116 E3F177FD 		bgeu	a5,s7,.L246
 754:C:/Users/stapi/OneDrive/Desktop/GD32VW553/GD32VW55X_Wifi_BLE_SDK/GD32VW55x_RELEASE_V1.0.2/MSDK/lwip/libcoap-4.3.4/src\coap_uri.c ****             *s++ = seg[i];
 2435              		.loc 1 754 11 is_stmt 1
 754:C:/Users/stapi/OneDrive/Desktop/GD32VW553/GD32VW55X_Wifi_BLE_SDK/GD32VW55x_RELEASE_V1.0.2/MSDK/lwip/libcoap-4.3.4/src\coap_uri.c ****             *s++ = seg[i];
 2436              		.loc 1 754 15 is_stmt 0
 2437 011a 834C0900 		lbu	s9,0(s2)
 2438              	.LVL282:
 2439              	.LBB103:
 2440              	.LBB102:
 714:C:/Users/stapi/OneDrive/Desktop/GD32VW553/GD32VW55X_Wifi_BLE_SDK/GD32VW55x_RELEASE_V1.0.2/MSDK/lwip/libcoap-4.3.4/src\coap_uri.c **** }
 2441              		.loc 1 714 3 is_stmt 1
 714:C:/Users/stapi/OneDrive/Desktop/GD32VW553/GD32VW55X_Wifi_BLE_SDK/GD32VW55x_RELEASE_V1.0.2/MSDK/lwip/libcoap-4.3.4/src\coap_uri.c **** }
 2442              		.loc 1 714 10 is_stmt 0
 2443 011e 6685     		mv	a0,s9
 2444 0120 97000000 		call	is_unescaped_in_path
 2444      E7800000 
 2445              	.LVL283:
 714:C:/Users/stapi/OneDrive/Desktop/GD32VW553/GD32VW55X_Wifi_BLE_SDK/GD32VW55x_RELEASE_V1.0.2/MSDK/lwip/libcoap-4.3.4/src\coap_uri.c **** }
 2446              		.loc 1 714 44
 2447 0128 15E9     		bne	a0,zero,.L249
 2448              	.LVL284:
 2449              	.LBB101:
 2450              	.LBB100:
 714:C:/Users/stapi/OneDrive/Desktop/GD32VW553/GD32VW55X_Wifi_BLE_SDK/GD32VW55x_RELEASE_V1.0.2/MSDK/lwip/libcoap-4.3.4/src\coap_uri.c **** }
 2451              		.loc 1 714 34
 2452 012a 93F7FC0E 		andi	a5,s9,239
 2453 012e 63875703 		beq	a5,s5,.L249
 2454              	.LVL285:
 2455              	.LBE100:
 2456              	.LBE101:
 2457              	.LBE102:
 2458              	.LBE103:
 757:C:/Users/stapi/OneDrive/Desktop/GD32VW553/GD32VW55X_Wifi_BLE_SDK/GD32VW55x_RELEASE_V1.0.2/MSDK/lwip/libcoap-4.3.4/src\coap_uri.c ****             *s++ = hex[seg[i]>>4];
 2459              		.loc 1 757 13 is_stmt 1
 757:C:/Users/stapi/OneDrive/Desktop/GD32VW553/GD32VW55X_Wifi_BLE_SDK/GD32VW55x_RELEASE_V1.0.2/MSDK/lwip/libcoap-4.3.4/src\coap_uri.c ****             *s++ = hex[seg[i]>>4];
 2460              		.loc 1 757 18 is_stmt 0
 2461 0132 23006401 		sb	s6,0(s0)
 758:C:/Users/stapi/OneDrive/Desktop/GD32VW553/GD32VW55X_Wifi_BLE_SDK/GD32VW55x_RELEASE_V1.0.2/MSDK/lwip/libcoap-4.3.4/src\coap_uri.c ****             *s++ = hex[seg[i]&0x0F];
 2462              		.loc 1 758 13 is_stmt 1
 2463              	.LVL286:
 758:C:/Users/stapi/OneDrive/Desktop/GD32VW553/GD32VW55X_Wifi_BLE_SDK/GD32VW55x_RELEASE_V1.0.2/MSDK/lwip/libcoap-4.3.4/src\coap_uri.c ****             *s++ = hex[seg[i]&0x0F];
 2464              		.loc 1 758 30 is_stmt 0
 2465 0136 83470900 		lbu	a5,0(s2)
 759:C:/Users/stapi/OneDrive/Desktop/GD32VW553/GD32VW55X_Wifi_BLE_SDK/GD32VW55x_RELEASE_V1.0.2/MSDK/lwip/libcoap-4.3.4/src\coap_uri.c ****           }
 2466              		.loc 1 759 15
 2467 013a 0D04     		addi	s0,s0,3
 2468              	.LVL287:
 758:C:/Users/stapi/OneDrive/Desktop/GD32VW553/GD32VW55X_Wifi_BLE_SDK/GD32VW55x_RELEASE_V1.0.2/MSDK/lwip/libcoap-4.3.4/src\coap_uri.c ****             *s++ = hex[seg[i]&0x0F];
 2469              		.loc 1 758 30
 2470 013c 9183     		srli	a5,a5,4
 758:C:/Users/stapi/OneDrive/Desktop/GD32VW553/GD32VW55X_Wifi_BLE_SDK/GD32VW55x_RELEASE_V1.0.2/MSDK/lwip/libcoap-4.3.4/src\coap_uri.c ****             *s++ = hex[seg[i]&0x0F];
 2471              		.loc 1 758 23
 2472 013e CE97     		add	a5,s3,a5
 758:C:/Users/stapi/OneDrive/Desktop/GD32VW553/GD32VW55X_Wifi_BLE_SDK/GD32VW55x_RELEASE_V1.0.2/MSDK/lwip/libcoap-4.3.4/src\coap_uri.c ****             *s++ = hex[seg[i]&0x0F];
 2473              		.loc 1 758 18
 2474 0140 83C70700 		lbu	a5,0(a5)
 2475 0144 230FF4FE 		sb	a5,-2(s0)
 759:C:/Users/stapi/OneDrive/Desktop/GD32VW553/GD32VW55X_Wifi_BLE_SDK/GD32VW55x_RELEASE_V1.0.2/MSDK/lwip/libcoap-4.3.4/src\coap_uri.c ****           }
 2476              		.loc 1 759 13 is_stmt 1
 2477              	.LVL288:
 759:C:/Users/stapi/OneDrive/Desktop/GD32VW553/GD32VW55X_Wifi_BLE_SDK/GD32VW55x_RELEASE_V1.0.2/MSDK/lwip/libcoap-4.3.4/src\coap_uri.c ****           }
 2478              		.loc 1 759 30 is_stmt 0
 2479 0148 83470900 		lbu	a5,0(s2)
 2480 014c BD8B     		andi	a5,a5,15
 759:C:/Users/stapi/OneDrive/Desktop/GD32VW553/GD32VW55X_Wifi_BLE_SDK/GD32VW55x_RELEASE_V1.0.2/MSDK/lwip/libcoap-4.3.4/src\coap_uri.c ****           }
 2481              		.loc 1 759 23
 2482 014e CE97     		add	a5,s3,a5
 759:C:/Users/stapi/OneDrive/Desktop/GD32VW553/GD32VW55X_Wifi_BLE_SDK/GD32VW55x_RELEASE_V1.0.2/MSDK/lwip/libcoap-4.3.4/src\coap_uri.c ****           }
 2483              		.loc 1 759 18
 2484 0150 83C70700 		lbu	a5,0(a5)
 2485 0154 A30FF4FE 		sb	a5,-1(s0)
 2486              	.L250:
 2487              	.LVL289:
 753:C:/Users/stapi/OneDrive/Desktop/GD32VW553/GD32VW55X_Wifi_BLE_SDK/GD32VW55x_RELEASE_V1.0.2/MSDK/lwip/libcoap-4.3.4/src\coap_uri.c ****           if (is_unescaped_in_query(seg[i])) {
 2488              		.loc 1 753 34 is_stmt 1 discriminator 2
 2489 0158 0509     		addi	s2,s2,1
 2490              	.LVL290:
 2491 015a 55BF     		j	.L248
 2492              	.LVL291:
 2493              	.L249:
 755:C:/Users/stapi/OneDrive/Desktop/GD32VW553/GD32VW55X_Wifi_BLE_SDK/GD32VW55x_RELEASE_V1.0.2/MSDK/lwip/libcoap-4.3.4/src\coap_uri.c ****           } else {
 2494              		.loc 1 755 13
 755:C:/Users/stapi/OneDrive/Desktop/GD32VW553/GD32VW55X_Wifi_BLE_SDK/GD32VW55x_RELEASE_V1.0.2/MSDK/lwip/libcoap-4.3.4/src\coap_uri.c ****           } else {
 2495              		.loc 1 755 18 is_stmt 0
 2496 015c 23009401 		sb	s9,0(s0)
 755:C:/Users/stapi/OneDrive/Desktop/GD32VW553/GD32VW55X_Wifi_BLE_SDK/GD32VW55x_RELEASE_V1.0.2/MSDK/lwip/libcoap-4.3.4/src\coap_uri.c ****           } else {
 2497              		.loc 1 755 15
 2498 0160 0504     		addi	s0,s0,1
 2499              	.LVL292:
 2500 0162 DDBF     		j	.L250
 2501              	.LBE105:
 2502              	.LBE94:
 2503              		.cfi_endproc
 2504              	.LFE50:
 2506              		.section	.text.coap_get_uri_path,"ax",@progbits
 2507              		.align	1
 2508              		.globl	coap_get_uri_path
 2510              	coap_get_uri_path:
 2511              	.LFB51:
 767:C:/Users/stapi/OneDrive/Desktop/GD32VW553/GD32VW55X_Wifi_BLE_SDK/GD32VW55x_RELEASE_V1.0.2/MSDK/lwip/libcoap-4.3.4/src\coap_uri.c **** 
 768:C:/Users/stapi/OneDrive/Desktop/GD32VW553/GD32VW55X_Wifi_BLE_SDK/GD32VW55x_RELEASE_V1.0.2/MSDK/lwip/libcoap-4.3.4/src\coap_uri.c **** coap_string_t *
 769:C:/Users/stapi/OneDrive/Desktop/GD32VW553/GD32VW55X_Wifi_BLE_SDK/GD32VW55x_RELEASE_V1.0.2/MSDK/lwip/libcoap-4.3.4/src\coap_uri.c **** coap_get_uri_path(const coap_pdu_t *request) {
 2512              		.loc 1 769 46 is_stmt 1
 2513              		.cfi_startproc
 2514              	.LVL293:
 2515 0000 17030000 		call	t0,__riscv_save_10
 2515      E7020300 
 2516              		.cfi_offset 25, -44
 2517              		.cfi_offset 24, -40
 2518              		.cfi_offset 23, -36
 2519              		.cfi_offset 22, -32
 2520              		.cfi_offset 21, -28
 2521              		.cfi_offset 20, -24
 2522              		.cfi_offset 19, -20
 2523              		.cfi_offset 18, -16
 2524              		.cfi_offset 9, -12
 2525              		.cfi_offset 8, -8
 2526              		.cfi_offset 1, -4
 2527              		.cfi_def_cfa_offset 48
 770:C:/Users/stapi/OneDrive/Desktop/GD32VW553/GD32VW55X_Wifi_BLE_SDK/GD32VW55x_RELEASE_V1.0.2/MSDK/lwip/libcoap-4.3.4/src\coap_uri.c ****   coap_opt_iterator_t opt_iter;
 2528              		.loc 1 770 3
 771:C:/Users/stapi/OneDrive/Desktop/GD32VW553/GD32VW55X_Wifi_BLE_SDK/GD32VW55x_RELEASE_V1.0.2/MSDK/lwip/libcoap-4.3.4/src\coap_uri.c ****   coap_opt_filter_t f;
 2529              		.loc 1 771 3
 772:C:/Users/stapi/OneDrive/Desktop/GD32VW553/GD32VW55X_Wifi_BLE_SDK/GD32VW55x_RELEASE_V1.0.2/MSDK/lwip/libcoap-4.3.4/src\coap_uri.c ****   coap_opt_t *q;
 2530              		.loc 1 772 3
 773:C:/Users/stapi/OneDrive/Desktop/GD32VW553/GD32VW55X_Wifi_BLE_SDK/GD32VW55x_RELEASE_V1.0.2/MSDK/lwip/libcoap-4.3.4/src\coap_uri.c ****   coap_string_t *uri_path = NULL;
 2531              		.loc 1 773 3
 2532              	.LVL294:
 774:C:/Users/stapi/OneDrive/Desktop/GD32VW553/GD32VW55X_Wifi_BLE_SDK/GD32VW55x_RELEASE_V1.0.2/MSDK/lwip/libcoap-4.3.4/src\coap_uri.c ****   size_t length = 0;
 2533              		.loc 1 774 3
 775:C:/Users/stapi/OneDrive/Desktop/GD32VW553/GD32VW55X_Wifi_BLE_SDK/GD32VW55x_RELEASE_V1.0.2/MSDK/lwip/libcoap-4.3.4/src\coap_uri.c ****   static const uint8_t hex[] = "0123456789ABCDEF";
 2534              		.loc 1 775 3
 776:C:/Users/stapi/OneDrive/Desktop/GD32VW553/GD32VW55X_Wifi_BLE_SDK/GD32VW55x_RELEASE_V1.0.2/MSDK/lwip/libcoap-4.3.4/src\coap_uri.c **** 
 777:C:/Users/stapi/OneDrive/Desktop/GD32VW553/GD32VW55X_Wifi_BLE_SDK/GD32VW55x_RELEASE_V1.0.2/MSDK/lwip/libcoap-4.3.4/src\coap_uri.c ****   q = coap_check_option(request, COAP_OPTION_PROXY_URI, &opt_iter);
 2535              		.loc 1 777 3
 769:C:/Users/stapi/OneDrive/Desktop/GD32VW553/GD32VW55X_Wifi_BLE_SDK/GD32VW55x_RELEASE_V1.0.2/MSDK/lwip/libcoap-4.3.4/src\coap_uri.c ****   coap_opt_iterator_t opt_iter;
 2536              		.loc 1 769 46 is_stmt 0
 2537 0008 3971     		addi	sp,sp,-64
 2538              		.cfi_def_cfa_offset 112
 2539              		.loc 1 777 7
 2540 000a 3000     		addi	a2,sp,8
 2541 000c 93053002 		li	a1,35
 769:C:/Users/stapi/OneDrive/Desktop/GD32VW553/GD32VW55X_Wifi_BLE_SDK/GD32VW55x_RELEASE_V1.0.2/MSDK/lwip/libcoap-4.3.4/src\coap_uri.c ****   coap_opt_iterator_t opt_iter;
 2542              		.loc 1 769 46
 2543 0010 2A89     		mv	s2,a0
 2544              		.loc 1 777 7
 2545 0012 97000000 		call	coap_check_option
 2545      E7800000 
 2546              	.LVL295:
 778:C:/Users/stapi/OneDrive/Desktop/GD32VW553/GD32VW55X_Wifi_BLE_SDK/GD32VW55x_RELEASE_V1.0.2/MSDK/lwip/libcoap-4.3.4/src\coap_uri.c ****   if (q) {
 2547              		.loc 1 778 3 is_stmt 1
 2548              		.loc 1 778 6 is_stmt 0
 2549 001a 31C9     		beq	a0,zero,.L261
 2550 001c 2A84     		mv	s0,a0
 2551              	.LBB106:
 779:C:/Users/stapi/OneDrive/Desktop/GD32VW553/GD32VW55X_Wifi_BLE_SDK/GD32VW55x_RELEASE_V1.0.2/MSDK/lwip/libcoap-4.3.4/src\coap_uri.c ****     coap_uri_t uri;
 2552              		.loc 1 779 5 is_stmt 1
 780:C:/Users/stapi/OneDrive/Desktop/GD32VW553/GD32VW55X_Wifi_BLE_SDK/GD32VW55x_RELEASE_V1.0.2/MSDK/lwip/libcoap-4.3.4/src\coap_uri.c **** 
 781:C:/Users/stapi/OneDrive/Desktop/GD32VW553/GD32VW55X_Wifi_BLE_SDK/GD32VW55x_RELEASE_V1.0.2/MSDK/lwip/libcoap-4.3.4/src\coap_uri.c ****     if (coap_split_proxy_uri(coap_opt_value(q),
 2553              		.loc 1 781 5
 2554              		.loc 1 781 9 is_stmt 0
 2555 001e 97000000 		call	coap_opt_value
 2555      E7800000 
 2556              	.LVL296:
 2557 0026 AA84     		mv	s1,a0
 782:C:/Users/stapi/OneDrive/Desktop/GD32VW553/GD32VW55X_Wifi_BLE_SDK/GD32VW55x_RELEASE_V1.0.2/MSDK/lwip/libcoap-4.3.4/src\coap_uri.c ****                              coap_opt_length(q), &uri) < 0) {
 2558              		.loc 1 782 30
 2559 0028 2285     		mv	a0,s0
 2560 002a 97000000 		call	coap_opt_length
 2560      E7800000 
 2561              	.LVL297:
 2562 0032 AA85     		mv	a1,a0
 781:C:/Users/stapi/OneDrive/Desktop/GD32VW553/GD32VW55X_Wifi_BLE_SDK/GD32VW55x_RELEASE_V1.0.2/MSDK/lwip/libcoap-4.3.4/src\coap_uri.c ****                              coap_opt_length(q), &uri) < 0) {
 2563              		.loc 1 781 9
 2564 0034 1010     		addi	a2,sp,32
 2565 0036 2685     		mv	a0,s1
 2566 0038 97000000 		call	coap_split_proxy_uri
 2566      E7800000 
 2567              	.LVL298:
 783:C:/Users/stapi/OneDrive/Desktop/GD32VW553/GD32VW55X_Wifi_BLE_SDK/GD32VW55x_RELEASE_V1.0.2/MSDK/lwip/libcoap-4.3.4/src\coap_uri.c ****       return NULL;
 2568              		.loc 1 783 14
 2569 0040 0144     		li	s0,0
 2570              	.LVL299:
 781:C:/Users/stapi/OneDrive/Desktop/GD32VW553/GD32VW55X_Wifi_BLE_SDK/GD32VW55x_RELEASE_V1.0.2/MSDK/lwip/libcoap-4.3.4/src\coap_uri.c ****                              coap_opt_length(q), &uri) < 0) {
 2571              		.loc 1 781 8
 2572 0042 63400502 		blt	a0,zero,.L260
 784:C:/Users/stapi/OneDrive/Desktop/GD32VW553/GD32VW55X_Wifi_BLE_SDK/GD32VW55x_RELEASE_V1.0.2/MSDK/lwip/libcoap-4.3.4/src\coap_uri.c ****     }
 785:C:/Users/stapi/OneDrive/Desktop/GD32VW553/GD32VW55X_Wifi_BLE_SDK/GD32VW55x_RELEASE_V1.0.2/MSDK/lwip/libcoap-4.3.4/src\coap_uri.c ****     uri_path = coap_new_string(uri.path.length);
 2573              		.loc 1 785 5 is_stmt 1
 2574              		.loc 1 785 16 is_stmt 0
 2575 0046 3255     		lw	a0,44(sp)
 2576 0048 97000000 		call	coap_new_string
 2576      E7800000 
 2577              	.LVL300:
 2578 0050 2A84     		mv	s0,a0
 2579              	.LVL301:
 786:C:/Users/stapi/OneDrive/Desktop/GD32VW553/GD32VW55X_Wifi_BLE_SDK/GD32VW55x_RELEASE_V1.0.2/MSDK/lwip/libcoap-4.3.4/src\coap_uri.c ****     if (uri_path) {
 2580              		.loc 1 786 5 is_stmt 1
 2581              		.loc 1 786 8 is_stmt 0
 2582 0052 01C9     		beq	a0,zero,.L260
 787:C:/Users/stapi/OneDrive/Desktop/GD32VW553/GD32VW55X_Wifi_BLE_SDK/GD32VW55x_RELEASE_V1.0.2/MSDK/lwip/libcoap-4.3.4/src\coap_uri.c ****       memcpy(uri_path->s, uri.path.s, uri.path.length);
 2583              		.loc 1 787 7 is_stmt 1
 2584 0054 3256     		lw	a2,44(sp)
 2585 0056 C255     		lw	a1,48(sp)
 2586 0058 4841     		lw	a0,4(a0)
 2587 005a 97000000 		call	memcpy
 2587      E7800000 
 2588              	.LVL302:
 2589              	.L260:
 2590              	.LBE106:
 788:C:/Users/stapi/OneDrive/Desktop/GD32VW553/GD32VW55X_Wifi_BLE_SDK/GD32VW55x_RELEASE_V1.0.2/MSDK/lwip/libcoap-4.3.4/src\coap_uri.c ****     }
 789:C:/Users/stapi/OneDrive/Desktop/GD32VW553/GD32VW55X_Wifi_BLE_SDK/GD32VW55x_RELEASE_V1.0.2/MSDK/lwip/libcoap-4.3.4/src\coap_uri.c ****     return uri_path;
 790:C:/Users/stapi/OneDrive/Desktop/GD32VW553/GD32VW55X_Wifi_BLE_SDK/GD32VW55x_RELEASE_V1.0.2/MSDK/lwip/libcoap-4.3.4/src\coap_uri.c ****   }
 791:C:/Users/stapi/OneDrive/Desktop/GD32VW553/GD32VW55X_Wifi_BLE_SDK/GD32VW55x_RELEASE_V1.0.2/MSDK/lwip/libcoap-4.3.4/src\coap_uri.c **** 
 792:C:/Users/stapi/OneDrive/Desktop/GD32VW553/GD32VW55X_Wifi_BLE_SDK/GD32VW55x_RELEASE_V1.0.2/MSDK/lwip/libcoap-4.3.4/src\coap_uri.c ****   coap_option_filter_clear(&f);
 793:C:/Users/stapi/OneDrive/Desktop/GD32VW553/GD32VW55X_Wifi_BLE_SDK/GD32VW55x_RELEASE_V1.0.2/MSDK/lwip/libcoap-4.3.4/src\coap_uri.c ****   coap_option_filter_set(&f, COAP_OPTION_URI_PATH);
 794:C:/Users/stapi/OneDrive/Desktop/GD32VW553/GD32VW55X_Wifi_BLE_SDK/GD32VW55x_RELEASE_V1.0.2/MSDK/lwip/libcoap-4.3.4/src\coap_uri.c ****   coap_option_iterator_init(request, &opt_iter, &f);
 795:C:/Users/stapi/OneDrive/Desktop/GD32VW553/GD32VW55X_Wifi_BLE_SDK/GD32VW55x_RELEASE_V1.0.2/MSDK/lwip/libcoap-4.3.4/src\coap_uri.c ****   while ((q = coap_option_next(&opt_iter))) {
 796:C:/Users/stapi/OneDrive/Desktop/GD32VW553/GD32VW55X_Wifi_BLE_SDK/GD32VW55x_RELEASE_V1.0.2/MSDK/lwip/libcoap-4.3.4/src\coap_uri.c ****     uint16_t seg_len = coap_opt_length(q), i;
 797:C:/Users/stapi/OneDrive/Desktop/GD32VW553/GD32VW55X_Wifi_BLE_SDK/GD32VW55x_RELEASE_V1.0.2/MSDK/lwip/libcoap-4.3.4/src\coap_uri.c ****     const uint8_t *seg= coap_opt_value(q);
 798:C:/Users/stapi/OneDrive/Desktop/GD32VW553/GD32VW55X_Wifi_BLE_SDK/GD32VW55x_RELEASE_V1.0.2/MSDK/lwip/libcoap-4.3.4/src\coap_uri.c ****     for (i = 0; i < seg_len; i++) {
 799:C:/Users/stapi/OneDrive/Desktop/GD32VW553/GD32VW55X_Wifi_BLE_SDK/GD32VW55x_RELEASE_V1.0.2/MSDK/lwip/libcoap-4.3.4/src\coap_uri.c ****       if (is_unescaped_in_path(seg[i]))
 800:C:/Users/stapi/OneDrive/Desktop/GD32VW553/GD32VW55X_Wifi_BLE_SDK/GD32VW55x_RELEASE_V1.0.2/MSDK/lwip/libcoap-4.3.4/src\coap_uri.c ****         length += 1;
 801:C:/Users/stapi/OneDrive/Desktop/GD32VW553/GD32VW55X_Wifi_BLE_SDK/GD32VW55x_RELEASE_V1.0.2/MSDK/lwip/libcoap-4.3.4/src\coap_uri.c ****       else
 802:C:/Users/stapi/OneDrive/Desktop/GD32VW553/GD32VW55X_Wifi_BLE_SDK/GD32VW55x_RELEASE_V1.0.2/MSDK/lwip/libcoap-4.3.4/src\coap_uri.c ****         length += 3;
 803:C:/Users/stapi/OneDrive/Desktop/GD32VW553/GD32VW55X_Wifi_BLE_SDK/GD32VW55x_RELEASE_V1.0.2/MSDK/lwip/libcoap-4.3.4/src\coap_uri.c ****     }
 804:C:/Users/stapi/OneDrive/Desktop/GD32VW553/GD32VW55X_Wifi_BLE_SDK/GD32VW55x_RELEASE_V1.0.2/MSDK/lwip/libcoap-4.3.4/src\coap_uri.c ****     /* bump for the leading "/" */
 805:C:/Users/stapi/OneDrive/Desktop/GD32VW553/GD32VW55X_Wifi_BLE_SDK/GD32VW55x_RELEASE_V1.0.2/MSDK/lwip/libcoap-4.3.4/src\coap_uri.c ****     length += 1;
 806:C:/Users/stapi/OneDrive/Desktop/GD32VW553/GD32VW55X_Wifi_BLE_SDK/GD32VW55x_RELEASE_V1.0.2/MSDK/lwip/libcoap-4.3.4/src\coap_uri.c ****   }
 807:C:/Users/stapi/OneDrive/Desktop/GD32VW553/GD32VW55X_Wifi_BLE_SDK/GD32VW55x_RELEASE_V1.0.2/MSDK/lwip/libcoap-4.3.4/src\coap_uri.c ****   /* The first entry does not have a leading "/" */
 808:C:/Users/stapi/OneDrive/Desktop/GD32VW553/GD32VW55X_Wifi_BLE_SDK/GD32VW55x_RELEASE_V1.0.2/MSDK/lwip/libcoap-4.3.4/src\coap_uri.c ****   if (length > 0)
 809:C:/Users/stapi/OneDrive/Desktop/GD32VW553/GD32VW55X_Wifi_BLE_SDK/GD32VW55x_RELEASE_V1.0.2/MSDK/lwip/libcoap-4.3.4/src\coap_uri.c ****     length -= 1;
 810:C:/Users/stapi/OneDrive/Desktop/GD32VW553/GD32VW55X_Wifi_BLE_SDK/GD32VW55x_RELEASE_V1.0.2/MSDK/lwip/libcoap-4.3.4/src\coap_uri.c **** 
 811:C:/Users/stapi/OneDrive/Desktop/GD32VW553/GD32VW55X_Wifi_BLE_SDK/GD32VW55x_RELEASE_V1.0.2/MSDK/lwip/libcoap-4.3.4/src\coap_uri.c ****   /* if 0, either no URI_PATH Option, or the first one was empty */
 812:C:/Users/stapi/OneDrive/Desktop/GD32VW553/GD32VW55X_Wifi_BLE_SDK/GD32VW55x_RELEASE_V1.0.2/MSDK/lwip/libcoap-4.3.4/src\coap_uri.c ****   uri_path = coap_new_string(length);
 813:C:/Users/stapi/OneDrive/Desktop/GD32VW553/GD32VW55X_Wifi_BLE_SDK/GD32VW55x_RELEASE_V1.0.2/MSDK/lwip/libcoap-4.3.4/src\coap_uri.c ****   if (uri_path) {
 814:C:/Users/stapi/OneDrive/Desktop/GD32VW553/GD32VW55X_Wifi_BLE_SDK/GD32VW55x_RELEASE_V1.0.2/MSDK/lwip/libcoap-4.3.4/src\coap_uri.c ****     uri_path->length = length;
 815:C:/Users/stapi/OneDrive/Desktop/GD32VW553/GD32VW55X_Wifi_BLE_SDK/GD32VW55x_RELEASE_V1.0.2/MSDK/lwip/libcoap-4.3.4/src\coap_uri.c ****     unsigned char *s = uri_path->s;
 816:C:/Users/stapi/OneDrive/Desktop/GD32VW553/GD32VW55X_Wifi_BLE_SDK/GD32VW55x_RELEASE_V1.0.2/MSDK/lwip/libcoap-4.3.4/src\coap_uri.c ****     int n = 0;
 817:C:/Users/stapi/OneDrive/Desktop/GD32VW553/GD32VW55X_Wifi_BLE_SDK/GD32VW55x_RELEASE_V1.0.2/MSDK/lwip/libcoap-4.3.4/src\coap_uri.c ****     coap_option_iterator_init(request, &opt_iter, &f);
 818:C:/Users/stapi/OneDrive/Desktop/GD32VW553/GD32VW55X_Wifi_BLE_SDK/GD32VW55x_RELEASE_V1.0.2/MSDK/lwip/libcoap-4.3.4/src\coap_uri.c ****     while ((q = coap_option_next(&opt_iter))) {
 819:C:/Users/stapi/OneDrive/Desktop/GD32VW553/GD32VW55X_Wifi_BLE_SDK/GD32VW55x_RELEASE_V1.0.2/MSDK/lwip/libcoap-4.3.4/src\coap_uri.c ****       if (n++) {
 820:C:/Users/stapi/OneDrive/Desktop/GD32VW553/GD32VW55X_Wifi_BLE_SDK/GD32VW55x_RELEASE_V1.0.2/MSDK/lwip/libcoap-4.3.4/src\coap_uri.c ****         *s++ = '/';
 821:C:/Users/stapi/OneDrive/Desktop/GD32VW553/GD32VW55X_Wifi_BLE_SDK/GD32VW55x_RELEASE_V1.0.2/MSDK/lwip/libcoap-4.3.4/src\coap_uri.c ****       }
 822:C:/Users/stapi/OneDrive/Desktop/GD32VW553/GD32VW55X_Wifi_BLE_SDK/GD32VW55x_RELEASE_V1.0.2/MSDK/lwip/libcoap-4.3.4/src\coap_uri.c ****       uint16_t seg_len = coap_opt_length(q), i;
 823:C:/Users/stapi/OneDrive/Desktop/GD32VW553/GD32VW55X_Wifi_BLE_SDK/GD32VW55x_RELEASE_V1.0.2/MSDK/lwip/libcoap-4.3.4/src\coap_uri.c ****       const uint8_t *seg= coap_opt_value(q);
 824:C:/Users/stapi/OneDrive/Desktop/GD32VW553/GD32VW55X_Wifi_BLE_SDK/GD32VW55x_RELEASE_V1.0.2/MSDK/lwip/libcoap-4.3.4/src\coap_uri.c ****       for (i = 0; i < seg_len; i++) {
 825:C:/Users/stapi/OneDrive/Desktop/GD32VW553/GD32VW55X_Wifi_BLE_SDK/GD32VW55x_RELEASE_V1.0.2/MSDK/lwip/libcoap-4.3.4/src\coap_uri.c ****         if (is_unescaped_in_path(seg[i])) {
 826:C:/Users/stapi/OneDrive/Desktop/GD32VW553/GD32VW55X_Wifi_BLE_SDK/GD32VW55x_RELEASE_V1.0.2/MSDK/lwip/libcoap-4.3.4/src\coap_uri.c ****           *s++ = seg[i];
 827:C:/Users/stapi/OneDrive/Desktop/GD32VW553/GD32VW55X_Wifi_BLE_SDK/GD32VW55x_RELEASE_V1.0.2/MSDK/lwip/libcoap-4.3.4/src\coap_uri.c ****         } else {
 828:C:/Users/stapi/OneDrive/Desktop/GD32VW553/GD32VW55X_Wifi_BLE_SDK/GD32VW55x_RELEASE_V1.0.2/MSDK/lwip/libcoap-4.3.4/src\coap_uri.c ****           *s++ = '%';
 829:C:/Users/stapi/OneDrive/Desktop/GD32VW553/GD32VW55X_Wifi_BLE_SDK/GD32VW55x_RELEASE_V1.0.2/MSDK/lwip/libcoap-4.3.4/src\coap_uri.c ****           *s++ = hex[seg[i]>>4];
 830:C:/Users/stapi/OneDrive/Desktop/GD32VW553/GD32VW55X_Wifi_BLE_SDK/GD32VW55x_RELEASE_V1.0.2/MSDK/lwip/libcoap-4.3.4/src\coap_uri.c ****           *s++ = hex[seg[i]&0x0F];
 831:C:/Users/stapi/OneDrive/Desktop/GD32VW553/GD32VW55X_Wifi_BLE_SDK/GD32VW55x_RELEASE_V1.0.2/MSDK/lwip/libcoap-4.3.4/src\coap_uri.c ****         }
 832:C:/Users/stapi/OneDrive/Desktop/GD32VW553/GD32VW55X_Wifi_BLE_SDK/GD32VW55x_RELEASE_V1.0.2/MSDK/lwip/libcoap-4.3.4/src\coap_uri.c ****       }
 833:C:/Users/stapi/OneDrive/Desktop/GD32VW553/GD32VW55X_Wifi_BLE_SDK/GD32VW55x_RELEASE_V1.0.2/MSDK/lwip/libcoap-4.3.4/src\coap_uri.c ****     }
 834:C:/Users/stapi/OneDrive/Desktop/GD32VW553/GD32VW55X_Wifi_BLE_SDK/GD32VW55x_RELEASE_V1.0.2/MSDK/lwip/libcoap-4.3.4/src\coap_uri.c ****   }
 835:C:/Users/stapi/OneDrive/Desktop/GD32VW553/GD32VW55X_Wifi_BLE_SDK/GD32VW55x_RELEASE_V1.0.2/MSDK/lwip/libcoap-4.3.4/src\coap_uri.c ****   return uri_path;
 836:C:/Users/stapi/OneDrive/Desktop/GD32VW553/GD32VW55X_Wifi_BLE_SDK/GD32VW55x_RELEASE_V1.0.2/MSDK/lwip/libcoap-4.3.4/src\coap_uri.c **** }
 2591              		.loc 1 836 1 is_stmt 0
 2592 0062 2285     		mv	a0,s0
 2593 0064 2161     		addi	sp,sp,64
 2594              		.cfi_remember_state
 2595              		.cfi_def_cfa_offset 0
 2596 0066 17030000 		tail	__riscv_restore_10
 2596      67000300 
 2597              		.cfi_restore 25
 2598              		.cfi_restore 24
 2599              		.cfi_restore 23
 2600              		.cfi_restore 22
 2601              		.cfi_restore 21
 2602              		.cfi_restore 20
 2603              		.cfi_restore 19
 2604              		.cfi_restore 18
 2605              		.cfi_restore 9
 2606              		.cfi_restore 8
 2607              		.cfi_restore 1
 2608              		.cfi_def_cfa_offset -48
 2609              	.LVL303:
 2610              	.L261:
 2611              		.cfi_restore_state
 792:C:/Users/stapi/OneDrive/Desktop/GD32VW553/GD32VW55X_Wifi_BLE_SDK/GD32VW55x_RELEASE_V1.0.2/MSDK/lwip/libcoap-4.3.4/src\coap_uri.c ****   coap_option_filter_set(&f, COAP_OPTION_URI_PATH);
 2612              		.loc 1 792 3 is_stmt 1
 2613 006e 0810     		addi	a0,sp,32
 2614              	.LVL304:
 2615 0070 97000000 		call	coap_option_filter_clear
 2615      E7800000 
 2616              	.LVL305:
 793:C:/Users/stapi/OneDrive/Desktop/GD32VW553/GD32VW55X_Wifi_BLE_SDK/GD32VW55x_RELEASE_V1.0.2/MSDK/lwip/libcoap-4.3.4/src\coap_uri.c ****   coap_option_iterator_init(request, &opt_iter, &f);
 2617              		.loc 1 793 3
 2618 0078 AD45     		li	a1,11
 2619 007a 0810     		addi	a0,sp,32
 2620 007c 97000000 		call	coap_option_filter_set
 2620      E7800000 
 2621              	.LVL306:
 794:C:/Users/stapi/OneDrive/Desktop/GD32VW553/GD32VW55X_Wifi_BLE_SDK/GD32VW55x_RELEASE_V1.0.2/MSDK/lwip/libcoap-4.3.4/src\coap_uri.c ****   while ((q = coap_option_next(&opt_iter))) {
 2622              		.loc 1 794 3
 2623 0084 1010     		addi	a2,sp,32
 2624 0086 2C00     		addi	a1,sp,8
 2625 0088 4A85     		mv	a0,s2
 2626 008a 97000000 		call	coap_option_iterator_init
 2626      E7800000 
 2627              	.LVL307:
 795:C:/Users/stapi/OneDrive/Desktop/GD32VW553/GD32VW55X_Wifi_BLE_SDK/GD32VW55x_RELEASE_V1.0.2/MSDK/lwip/libcoap-4.3.4/src\coap_uri.c ****     uint16_t seg_len = coap_opt_length(q), i;
 2628              		.loc 1 795 3
 774:C:/Users/stapi/OneDrive/Desktop/GD32VW553/GD32VW55X_Wifi_BLE_SDK/GD32VW55x_RELEASE_V1.0.2/MSDK/lwip/libcoap-4.3.4/src\coap_uri.c ****   static const uint8_t hex[] = "0123456789ABCDEF";
 2629              		.loc 1 774 10 is_stmt 0
 2630 0092 8144     		li	s1,0
 2631              	.LVL308:
 2632              	.L264:
 795:C:/Users/stapi/OneDrive/Desktop/GD32VW553/GD32VW55X_Wifi_BLE_SDK/GD32VW55x_RELEASE_V1.0.2/MSDK/lwip/libcoap-4.3.4/src\coap_uri.c ****     uint16_t seg_len = coap_opt_length(q), i;
 2633              		.loc 1 795 9 is_stmt 1
 795:C:/Users/stapi/OneDrive/Desktop/GD32VW553/GD32VW55X_Wifi_BLE_SDK/GD32VW55x_RELEASE_V1.0.2/MSDK/lwip/libcoap-4.3.4/src\coap_uri.c ****     uint16_t seg_len = coap_opt_length(q), i;
 2634              		.loc 1 795 15 is_stmt 0
 2635 0094 2800     		addi	a0,sp,8
 2636 0096 97000000 		call	coap_option_next
 2636      E7800000 
 2637              	.LVL309:
 2638 009e 2A84     		mv	s0,a0
 2639              	.LVL310:
 795:C:/Users/stapi/OneDrive/Desktop/GD32VW553/GD32VW55X_Wifi_BLE_SDK/GD32VW55x_RELEASE_V1.0.2/MSDK/lwip/libcoap-4.3.4/src\coap_uri.c ****     uint16_t seg_len = coap_opt_length(q), i;
 2640              		.loc 1 795 9
 2641 00a0 35ED     		bne	a0,zero,.L269
 808:C:/Users/stapi/OneDrive/Desktop/GD32VW553/GD32VW55X_Wifi_BLE_SDK/GD32VW55x_RELEASE_V1.0.2/MSDK/lwip/libcoap-4.3.4/src\coap_uri.c ****     length -= 1;
 2642              		.loc 1 808 3 is_stmt 1
 808:C:/Users/stapi/OneDrive/Desktop/GD32VW553/GD32VW55X_Wifi_BLE_SDK/GD32VW55x_RELEASE_V1.0.2/MSDK/lwip/libcoap-4.3.4/src\coap_uri.c ****     length -= 1;
 2643              		.loc 1 808 6 is_stmt 0
 2644 00a2 91C0     		beq	s1,zero,.L270
 809:C:/Users/stapi/OneDrive/Desktop/GD32VW553/GD32VW55X_Wifi_BLE_SDK/GD32VW55x_RELEASE_V1.0.2/MSDK/lwip/libcoap-4.3.4/src\coap_uri.c **** 
 2645              		.loc 1 809 5 is_stmt 1
 809:C:/Users/stapi/OneDrive/Desktop/GD32VW553/GD32VW55X_Wifi_BLE_SDK/GD32VW55x_RELEASE_V1.0.2/MSDK/lwip/libcoap-4.3.4/src\coap_uri.c **** 
 2646              		.loc 1 809 12 is_stmt 0
 2647 00a4 FD14     		addi	s1,s1,-1
 2648              	.LVL311:
 2649              	.L270:
 812:C:/Users/stapi/OneDrive/Desktop/GD32VW553/GD32VW55X_Wifi_BLE_SDK/GD32VW55x_RELEASE_V1.0.2/MSDK/lwip/libcoap-4.3.4/src\coap_uri.c ****   if (uri_path) {
 2650              		.loc 1 812 3 is_stmt 1
 812:C:/Users/stapi/OneDrive/Desktop/GD32VW553/GD32VW55X_Wifi_BLE_SDK/GD32VW55x_RELEASE_V1.0.2/MSDK/lwip/libcoap-4.3.4/src\coap_uri.c ****   if (uri_path) {
 2651              		.loc 1 812 14 is_stmt 0
 2652 00a6 2685     		mv	a0,s1
 2653 00a8 97000000 		call	coap_new_string
 2653      E7800000 
 2654              	.LVL312:
 2655 00b0 2A84     		mv	s0,a0
 2656              	.LVL313:
 813:C:/Users/stapi/OneDrive/Desktop/GD32VW553/GD32VW55X_Wifi_BLE_SDK/GD32VW55x_RELEASE_V1.0.2/MSDK/lwip/libcoap-4.3.4/src\coap_uri.c ****     uri_path->length = length;
 2657              		.loc 1 813 3 is_stmt 1
 813:C:/Users/stapi/OneDrive/Desktop/GD32VW553/GD32VW55X_Wifi_BLE_SDK/GD32VW55x_RELEASE_V1.0.2/MSDK/lwip/libcoap-4.3.4/src\coap_uri.c ****     uri_path->length = length;
 2658              		.loc 1 813 6 is_stmt 0
 2659 00b2 45D9     		beq	a0,zero,.L260
 2660              	.LBB107:
 814:C:/Users/stapi/OneDrive/Desktop/GD32VW553/GD32VW55X_Wifi_BLE_SDK/GD32VW55x_RELEASE_V1.0.2/MSDK/lwip/libcoap-4.3.4/src\coap_uri.c ****     unsigned char *s = uri_path->s;
 2661              		.loc 1 814 5 is_stmt 1
 814:C:/Users/stapi/OneDrive/Desktop/GD32VW553/GD32VW55X_Wifi_BLE_SDK/GD32VW55x_RELEASE_V1.0.2/MSDK/lwip/libcoap-4.3.4/src\coap_uri.c ****     unsigned char *s = uri_path->s;
 2662              		.loc 1 814 22 is_stmt 0
 2663 00b4 04C1     		sw	s1,0(a0)
 815:C:/Users/stapi/OneDrive/Desktop/GD32VW553/GD32VW55X_Wifi_BLE_SDK/GD32VW55x_RELEASE_V1.0.2/MSDK/lwip/libcoap-4.3.4/src\coap_uri.c ****     int n = 0;
 2664              		.loc 1 815 5 is_stmt 1
 817:C:/Users/stapi/OneDrive/Desktop/GD32VW553/GD32VW55X_Wifi_BLE_SDK/GD32VW55x_RELEASE_V1.0.2/MSDK/lwip/libcoap-4.3.4/src\coap_uri.c ****     while ((q = coap_option_next(&opt_iter))) {
 2665              		.loc 1 817 5 is_stmt 0
 2666 00b6 1010     		addi	a2,sp,32
 815:C:/Users/stapi/OneDrive/Desktop/GD32VW553/GD32VW55X_Wifi_BLE_SDK/GD32VW55x_RELEASE_V1.0.2/MSDK/lwip/libcoap-4.3.4/src\coap_uri.c ****     int n = 0;
 2667              		.loc 1 815 20
 2668 00b8 4441     		lw	s1,4(a0)
 2669              	.LVL314:
 816:C:/Users/stapi/OneDrive/Desktop/GD32VW553/GD32VW55X_Wifi_BLE_SDK/GD32VW55x_RELEASE_V1.0.2/MSDK/lwip/libcoap-4.3.4/src\coap_uri.c ****     coap_option_iterator_init(request, &opt_iter, &f);
 2670              		.loc 1 816 5 is_stmt 1
 817:C:/Users/stapi/OneDrive/Desktop/GD32VW553/GD32VW55X_Wifi_BLE_SDK/GD32VW55x_RELEASE_V1.0.2/MSDK/lwip/libcoap-4.3.4/src\coap_uri.c ****     while ((q = coap_option_next(&opt_iter))) {
 2671              		.loc 1 817 5
 2672 00ba 2C00     		addi	a1,sp,8
 2673 00bc 4A85     		mv	a0,s2
 2674              	.LBB108:
 829:C:/Users/stapi/OneDrive/Desktop/GD32VW553/GD32VW55X_Wifi_BLE_SDK/GD32VW55x_RELEASE_V1.0.2/MSDK/lwip/libcoap-4.3.4/src\coap_uri.c ****           *s++ = hex[seg[i]&0x0F];
 2675              		.loc 1 829 21 is_stmt 0
 2676 00be B7090000 		lui	s3,%hi(hex.0)
 2677              	.LBE108:
 817:C:/Users/stapi/OneDrive/Desktop/GD32VW553/GD32VW55X_Wifi_BLE_SDK/GD32VW55x_RELEASE_V1.0.2/MSDK/lwip/libcoap-4.3.4/src\coap_uri.c ****     while ((q = coap_option_next(&opt_iter))) {
 2678              		.loc 1 817 5
 2679 00c2 97000000 		call	coap_option_iterator_init
 2679      E7800000 
 2680              	.LVL315:
 818:C:/Users/stapi/OneDrive/Desktop/GD32VW553/GD32VW55X_Wifi_BLE_SDK/GD32VW55x_RELEASE_V1.0.2/MSDK/lwip/libcoap-4.3.4/src\coap_uri.c ****       if (n++) {
 2681              		.loc 1 818 5 is_stmt 1
 818:C:/Users/stapi/OneDrive/Desktop/GD32VW553/GD32VW55X_Wifi_BLE_SDK/GD32VW55x_RELEASE_V1.0.2/MSDK/lwip/libcoap-4.3.4/src\coap_uri.c ****       if (n++) {
 2682              		.loc 1 818 11 is_stmt 0
 2683 00ca 014A     		li	s4,0
 2684              	.LBB109:
 820:C:/Users/stapi/OneDrive/Desktop/GD32VW553/GD32VW55X_Wifi_BLE_SDK/GD32VW55x_RELEASE_V1.0.2/MSDK/lwip/libcoap-4.3.4/src\coap_uri.c ****       }
 2685              		.loc 1 820 14
 2686 00cc 930AF002 		li	s5,47
 828:C:/Users/stapi/OneDrive/Desktop/GD32VW553/GD32VW55X_Wifi_BLE_SDK/GD32VW55x_RELEASE_V1.0.2/MSDK/lwip/libcoap-4.3.4/src\coap_uri.c ****           *s++ = hex[seg[i]>>4];
 2687              		.loc 1 828 16
 2688 00d0 130B5002 		li	s6,37
 829:C:/Users/stapi/OneDrive/Desktop/GD32VW553/GD32VW55X_Wifi_BLE_SDK/GD32VW55x_RELEASE_V1.0.2/MSDK/lwip/libcoap-4.3.4/src\coap_uri.c ****           *s++ = hex[seg[i]&0x0F];
 2689              		.loc 1 829 21
 2690 00d4 93890900 		addi	s3,s3,%lo(hex.0)
 2691              	.LVL316:
 2692              	.L271:
 2693              	.LBE109:
 818:C:/Users/stapi/OneDrive/Desktop/GD32VW553/GD32VW55X_Wifi_BLE_SDK/GD32VW55x_RELEASE_V1.0.2/MSDK/lwip/libcoap-4.3.4/src\coap_uri.c ****       if (n++) {
 2694              		.loc 1 818 11 is_stmt 1
 818:C:/Users/stapi/OneDrive/Desktop/GD32VW553/GD32VW55X_Wifi_BLE_SDK/GD32VW55x_RELEASE_V1.0.2/MSDK/lwip/libcoap-4.3.4/src\coap_uri.c ****       if (n++) {
 2695              		.loc 1 818 17 is_stmt 0
 2696 00d8 2800     		addi	a0,sp,8
 2697 00da 97000000 		call	coap_option_next
 2697      E7800000 
 2698              	.LVL317:
 2699 00e2 2A89     		mv	s2,a0
 2700              	.LVL318:
 818:C:/Users/stapi/OneDrive/Desktop/GD32VW553/GD32VW55X_Wifi_BLE_SDK/GD32VW55x_RELEASE_V1.0.2/MSDK/lwip/libcoap-4.3.4/src\coap_uri.c ****       if (n++) {
 2701              		.loc 1 818 11
 2702 00e4 3DDD     		beq	a0,zero,.L260
 2703              	.LBB110:
 819:C:/Users/stapi/OneDrive/Desktop/GD32VW553/GD32VW55X_Wifi_BLE_SDK/GD32VW55x_RELEASE_V1.0.2/MSDK/lwip/libcoap-4.3.4/src\coap_uri.c ****         *s++ = '/';
 2704              		.loc 1 819 7 is_stmt 1
 2705              	.LVL319:
 819:C:/Users/stapi/OneDrive/Desktop/GD32VW553/GD32VW55X_Wifi_BLE_SDK/GD32VW55x_RELEASE_V1.0.2/MSDK/lwip/libcoap-4.3.4/src\coap_uri.c ****         *s++ = '/';
 2706              		.loc 1 819 10 is_stmt 0
 2707 00e6 63050A00 		beq	s4,zero,.L272
 820:C:/Users/stapi/OneDrive/Desktop/GD32VW553/GD32VW55X_Wifi_BLE_SDK/GD32VW55x_RELEASE_V1.0.2/MSDK/lwip/libcoap-4.3.4/src\coap_uri.c ****       }
 2708              		.loc 1 820 9 is_stmt 1
 2709              	.LVL320:
 820:C:/Users/stapi/OneDrive/Desktop/GD32VW553/GD32VW55X_Wifi_BLE_SDK/GD32VW55x_RELEASE_V1.0.2/MSDK/lwip/libcoap-4.3.4/src\coap_uri.c ****       }
 2710              		.loc 1 820 14 is_stmt 0
 2711 00ea 23805401 		sb	s5,0(s1)
 820:C:/Users/stapi/OneDrive/Desktop/GD32VW553/GD32VW55X_Wifi_BLE_SDK/GD32VW55x_RELEASE_V1.0.2/MSDK/lwip/libcoap-4.3.4/src\coap_uri.c ****       }
 2712              		.loc 1 820 11
 2713 00ee 8504     		addi	s1,s1,1
 2714              	.LVL321:
 2715              	.L272:
 822:C:/Users/stapi/OneDrive/Desktop/GD32VW553/GD32VW55X_Wifi_BLE_SDK/GD32VW55x_RELEASE_V1.0.2/MSDK/lwip/libcoap-4.3.4/src\coap_uri.c ****       const uint8_t *seg= coap_opt_value(q);
 2716              		.loc 1 822 7 is_stmt 1
 822:C:/Users/stapi/OneDrive/Desktop/GD32VW553/GD32VW55X_Wifi_BLE_SDK/GD32VW55x_RELEASE_V1.0.2/MSDK/lwip/libcoap-4.3.4/src\coap_uri.c ****       const uint8_t *seg= coap_opt_value(q);
 2717              		.loc 1 822 26 is_stmt 0
 2718 00f0 4A85     		mv	a0,s2
 2719              	.LVL322:
 2720 00f2 97000000 		call	coap_opt_length
 2720      E7800000 
 2721              	.LVL323:
 822:C:/Users/stapi/OneDrive/Desktop/GD32VW553/GD32VW55X_Wifi_BLE_SDK/GD32VW55x_RELEASE_V1.0.2/MSDK/lwip/libcoap-4.3.4/src\coap_uri.c ****       const uint8_t *seg= coap_opt_value(q);
 2722              		.loc 1 822 16
 2723 00fa B34B0508 		zext.h	s7,a0
 2724              	.LVL324:
 823:C:/Users/stapi/OneDrive/Desktop/GD32VW553/GD32VW55X_Wifi_BLE_SDK/GD32VW55x_RELEASE_V1.0.2/MSDK/lwip/libcoap-4.3.4/src\coap_uri.c ****       for (i = 0; i < seg_len; i++) {
 2725              		.loc 1 823 7 is_stmt 1
 823:C:/Users/stapi/OneDrive/Desktop/GD32VW553/GD32VW55X_Wifi_BLE_SDK/GD32VW55x_RELEASE_V1.0.2/MSDK/lwip/libcoap-4.3.4/src\coap_uri.c ****       for (i = 0; i < seg_len; i++) {
 2726              		.loc 1 823 27 is_stmt 0
 2727 00fe 4A85     		mv	a0,s2
 2728 0100 97000000 		call	coap_opt_value
 2728      E7800000 
 2729              	.LVL325:
 2730 0108 2A8C     		mv	s8,a0
 2731              	.LVL326:
 824:C:/Users/stapi/OneDrive/Desktop/GD32VW553/GD32VW55X_Wifi_BLE_SDK/GD32VW55x_RELEASE_V1.0.2/MSDK/lwip/libcoap-4.3.4/src\coap_uri.c ****         if (is_unescaped_in_path(seg[i])) {
 2732              		.loc 1 824 7 is_stmt 1
 2733 010a 2A89     		mv	s2,a0
 2734              	.LVL327:
 2735              	.L273:
 824:C:/Users/stapi/OneDrive/Desktop/GD32VW553/GD32VW55X_Wifi_BLE_SDK/GD32VW55x_RELEASE_V1.0.2/MSDK/lwip/libcoap-4.3.4/src\coap_uri.c ****         if (is_unescaped_in_path(seg[i])) {
 2736              		.loc 1 824 19 discriminator 1
 824:C:/Users/stapi/OneDrive/Desktop/GD32VW553/GD32VW55X_Wifi_BLE_SDK/GD32VW55x_RELEASE_V1.0.2/MSDK/lwip/libcoap-4.3.4/src\coap_uri.c ****         if (is_unescaped_in_path(seg[i])) {
 2737              		.loc 1 824 7 is_stmt 0 discriminator 1
 2738 010c B3078941 		sub	a5,s2,s8
 2739 0110 B3C70708 		zext.h	a5,a5
 2740 0114 63E57705 		bgtu	s7,a5,.L276
 2741 0118 050A     		addi	s4,s4,1
 2742 011a 7DBF     		j	.L271
 2743              	.LVL328:
 2744              	.L269:
 2745              	.LBE110:
 2746              	.LBE107:
 2747              	.LBB112:
 796:C:/Users/stapi/OneDrive/Desktop/GD32VW553/GD32VW55X_Wifi_BLE_SDK/GD32VW55x_RELEASE_V1.0.2/MSDK/lwip/libcoap-4.3.4/src\coap_uri.c ****     const uint8_t *seg= coap_opt_value(q);
 2748              		.loc 1 796 5 is_stmt 1
 796:C:/Users/stapi/OneDrive/Desktop/GD32VW553/GD32VW55X_Wifi_BLE_SDK/GD32VW55x_RELEASE_V1.0.2/MSDK/lwip/libcoap-4.3.4/src\coap_uri.c ****     const uint8_t *seg= coap_opt_value(q);
 2749              		.loc 1 796 24 is_stmt 0
 2750 011c 97000000 		call	coap_opt_length
 2750      E7800000 
 2751              	.LVL329:
 796:C:/Users/stapi/OneDrive/Desktop/GD32VW553/GD32VW55X_Wifi_BLE_SDK/GD32VW55x_RELEASE_V1.0.2/MSDK/lwip/libcoap-4.3.4/src\coap_uri.c ****     const uint8_t *seg= coap_opt_value(q);
 2752              		.loc 1 796 14
 2753 0124 B3490508 		zext.h	s3,a0
 2754              	.LVL330:
 797:C:/Users/stapi/OneDrive/Desktop/GD32VW553/GD32VW55X_Wifi_BLE_SDK/GD32VW55x_RELEASE_V1.0.2/MSDK/lwip/libcoap-4.3.4/src\coap_uri.c ****     for (i = 0; i < seg_len; i++) {
 2755              		.loc 1 797 5 is_stmt 1
 797:C:/Users/stapi/OneDrive/Desktop/GD32VW553/GD32VW55X_Wifi_BLE_SDK/GD32VW55x_RELEASE_V1.0.2/MSDK/lwip/libcoap-4.3.4/src\coap_uri.c ****     for (i = 0; i < seg_len; i++) {
 2756              		.loc 1 797 25 is_stmt 0
 2757 0128 2285     		mv	a0,s0
 2758 012a 97000000 		call	coap_opt_value
 2758      E7800000 
 2759              	.LVL331:
 2760 0132 2A8A     		mv	s4,a0
 2761              	.LVL332:
 798:C:/Users/stapi/OneDrive/Desktop/GD32VW553/GD32VW55X_Wifi_BLE_SDK/GD32VW55x_RELEASE_V1.0.2/MSDK/lwip/libcoap-4.3.4/src\coap_uri.c ****       if (is_unescaped_in_path(seg[i]))
 2762              		.loc 1 798 5 is_stmt 1
 2763 0134 0144     		li	s0,0
 2764              	.LVL333:
 2765              	.L265:
 798:C:/Users/stapi/OneDrive/Desktop/GD32VW553/GD32VW55X_Wifi_BLE_SDK/GD32VW55x_RELEASE_V1.0.2/MSDK/lwip/libcoap-4.3.4/src\coap_uri.c ****       if (is_unescaped_in_path(seg[i]))
 2766              		.loc 1 798 17 discriminator 1
 798:C:/Users/stapi/OneDrive/Desktop/GD32VW553/GD32VW55X_Wifi_BLE_SDK/GD32VW55x_RELEASE_V1.0.2/MSDK/lwip/libcoap-4.3.4/src\coap_uri.c ****       if (is_unescaped_in_path(seg[i]))
 2767              		.loc 1 798 5 is_stmt 0 discriminator 1
 2768 0136 B3470408 		zext.h	a5,s0
 2769 013a 63E43701 		bgtu	s3,a5,.L268
 805:C:/Users/stapi/OneDrive/Desktop/GD32VW553/GD32VW55X_Wifi_BLE_SDK/GD32VW55x_RELEASE_V1.0.2/MSDK/lwip/libcoap-4.3.4/src\coap_uri.c ****   }
 2770              		.loc 1 805 5 is_stmt 1
 805:C:/Users/stapi/OneDrive/Desktop/GD32VW553/GD32VW55X_Wifi_BLE_SDK/GD32VW55x_RELEASE_V1.0.2/MSDK/lwip/libcoap-4.3.4/src\coap_uri.c ****   }
 2771              		.loc 1 805 12 is_stmt 0
 2772 013e 8504     		addi	s1,s1,1
 2773              	.LVL334:
 2774 0140 91BF     		j	.L264
 2775              	.L268:
 799:C:/Users/stapi/OneDrive/Desktop/GD32VW553/GD32VW55X_Wifi_BLE_SDK/GD32VW55x_RELEASE_V1.0.2/MSDK/lwip/libcoap-4.3.4/src\coap_uri.c ****         length += 1;
 2776              		.loc 1 799 7 is_stmt 1
 799:C:/Users/stapi/OneDrive/Desktop/GD32VW553/GD32VW55X_Wifi_BLE_SDK/GD32VW55x_RELEASE_V1.0.2/MSDK/lwip/libcoap-4.3.4/src\coap_uri.c ****         length += 1;
 2777              		.loc 1 799 11 is_stmt 0
 2778 0142 B3078A00 		add	a5,s4,s0
 2779 0146 03C50700 		lbu	a0,0(a5)
 2780 014a 97000000 		call	is_unescaped_in_path
 2780      E7800000 
 2781              	.LVL335:
 799:C:/Users/stapi/OneDrive/Desktop/GD32VW553/GD32VW55X_Wifi_BLE_SDK/GD32VW55x_RELEASE_V1.0.2/MSDK/lwip/libcoap-4.3.4/src\coap_uri.c ****         length += 1;
 2782              		.loc 1 799 10
 2783 0152 01C5     		beq	a0,zero,.L266
 800:C:/Users/stapi/OneDrive/Desktop/GD32VW553/GD32VW55X_Wifi_BLE_SDK/GD32VW55x_RELEASE_V1.0.2/MSDK/lwip/libcoap-4.3.4/src\coap_uri.c ****       else
 2784              		.loc 1 800 9 is_stmt 1
 800:C:/Users/stapi/OneDrive/Desktop/GD32VW553/GD32VW55X_Wifi_BLE_SDK/GD32VW55x_RELEASE_V1.0.2/MSDK/lwip/libcoap-4.3.4/src\coap_uri.c ****       else
 2785              		.loc 1 800 16 is_stmt 0
 2786 0154 8504     		addi	s1,s1,1
 2787              	.LVL336:
 2788              	.L267:
 798:C:/Users/stapi/OneDrive/Desktop/GD32VW553/GD32VW55X_Wifi_BLE_SDK/GD32VW55x_RELEASE_V1.0.2/MSDK/lwip/libcoap-4.3.4/src\coap_uri.c ****       if (is_unescaped_in_path(seg[i]))
 2789              		.loc 1 798 30 is_stmt 1 discriminator 2
 2790 0156 0504     		addi	s0,s0,1
 2791              	.LVL337:
 2792 0158 F9BF     		j	.L265
 2793              	.LVL338:
 2794              	.L266:
 802:C:/Users/stapi/OneDrive/Desktop/GD32VW553/GD32VW55X_Wifi_BLE_SDK/GD32VW55x_RELEASE_V1.0.2/MSDK/lwip/libcoap-4.3.4/src\coap_uri.c ****     }
 2795              		.loc 1 802 9
 802:C:/Users/stapi/OneDrive/Desktop/GD32VW553/GD32VW55X_Wifi_BLE_SDK/GD32VW55x_RELEASE_V1.0.2/MSDK/lwip/libcoap-4.3.4/src\coap_uri.c ****     }
 2796              		.loc 1 802 16 is_stmt 0
 2797 015a 8D04     		addi	s1,s1,3
 2798              	.LVL339:
 2799 015c EDBF     		j	.L267
 2800              	.LVL340:
 2801              	.L276:
 2802              	.LBE112:
 2803              	.LBB113:
 2804              	.LBB111:
 825:C:/Users/stapi/OneDrive/Desktop/GD32VW553/GD32VW55X_Wifi_BLE_SDK/GD32VW55x_RELEASE_V1.0.2/MSDK/lwip/libcoap-4.3.4/src\coap_uri.c ****           *s++ = seg[i];
 2805              		.loc 1 825 9 is_stmt 1
 825:C:/Users/stapi/OneDrive/Desktop/GD32VW553/GD32VW55X_Wifi_BLE_SDK/GD32VW55x_RELEASE_V1.0.2/MSDK/lwip/libcoap-4.3.4/src\coap_uri.c ****           *s++ = seg[i];
 2806              		.loc 1 825 13 is_stmt 0
 2807 015e 834C0900 		lbu	s9,0(s2)
 2808 0162 6685     		mv	a0,s9
 2809 0164 97000000 		call	is_unescaped_in_path
 2809      E7800000 
 2810              	.LVL341:
 825:C:/Users/stapi/OneDrive/Desktop/GD32VW553/GD32VW55X_Wifi_BLE_SDK/GD32VW55x_RELEASE_V1.0.2/MSDK/lwip/libcoap-4.3.4/src\coap_uri.c ****           *s++ = seg[i];
 2811              		.loc 1 825 12
 2812 016c 11C5     		beq	a0,zero,.L274
 826:C:/Users/stapi/OneDrive/Desktop/GD32VW553/GD32VW55X_Wifi_BLE_SDK/GD32VW55x_RELEASE_V1.0.2/MSDK/lwip/libcoap-4.3.4/src\coap_uri.c ****         } else {
 2813              		.loc 1 826 11 is_stmt 1
 2814              	.LVL342:
 826:C:/Users/stapi/OneDrive/Desktop/GD32VW553/GD32VW55X_Wifi_BLE_SDK/GD32VW55x_RELEASE_V1.0.2/MSDK/lwip/libcoap-4.3.4/src\coap_uri.c ****         } else {
 2815              		.loc 1 826 16 is_stmt 0
 2816 016e 23809401 		sb	s9,0(s1)
 826:C:/Users/stapi/OneDrive/Desktop/GD32VW553/GD32VW55X_Wifi_BLE_SDK/GD32VW55x_RELEASE_V1.0.2/MSDK/lwip/libcoap-4.3.4/src\coap_uri.c ****         } else {
 2817              		.loc 1 826 13
 2818 0172 8504     		addi	s1,s1,1
 2819              	.LVL343:
 2820              	.L275:
 824:C:/Users/stapi/OneDrive/Desktop/GD32VW553/GD32VW55X_Wifi_BLE_SDK/GD32VW55x_RELEASE_V1.0.2/MSDK/lwip/libcoap-4.3.4/src\coap_uri.c ****         if (is_unescaped_in_path(seg[i])) {
 2821              		.loc 1 824 32 is_stmt 1 discriminator 2
 2822 0174 0509     		addi	s2,s2,1
 2823              	.LVL344:
 2824 0176 59BF     		j	.L273
 2825              	.LVL345:
 2826              	.L274:
 828:C:/Users/stapi/OneDrive/Desktop/GD32VW553/GD32VW55X_Wifi_BLE_SDK/GD32VW55x_RELEASE_V1.0.2/MSDK/lwip/libcoap-4.3.4/src\coap_uri.c ****           *s++ = hex[seg[i]>>4];
 2827              		.loc 1 828 11
 828:C:/Users/stapi/OneDrive/Desktop/GD32VW553/GD32VW55X_Wifi_BLE_SDK/GD32VW55x_RELEASE_V1.0.2/MSDK/lwip/libcoap-4.3.4/src\coap_uri.c ****           *s++ = hex[seg[i]>>4];
 2828              		.loc 1 828 16 is_stmt 0
 2829 0178 23806401 		sb	s6,0(s1)
 829:C:/Users/stapi/OneDrive/Desktop/GD32VW553/GD32VW55X_Wifi_BLE_SDK/GD32VW55x_RELEASE_V1.0.2/MSDK/lwip/libcoap-4.3.4/src\coap_uri.c ****           *s++ = hex[seg[i]&0x0F];
 2830              		.loc 1 829 11 is_stmt 1
 2831              	.LVL346:
 829:C:/Users/stapi/OneDrive/Desktop/GD32VW553/GD32VW55X_Wifi_BLE_SDK/GD32VW55x_RELEASE_V1.0.2/MSDK/lwip/libcoap-4.3.4/src\coap_uri.c ****           *s++ = hex[seg[i]&0x0F];
 2832              		.loc 1 829 28 is_stmt 0
 2833 017c 83470900 		lbu	a5,0(s2)
 830:C:/Users/stapi/OneDrive/Desktop/GD32VW553/GD32VW55X_Wifi_BLE_SDK/GD32VW55x_RELEASE_V1.0.2/MSDK/lwip/libcoap-4.3.4/src\coap_uri.c ****         }
 2834              		.loc 1 830 13
 2835 0180 8D04     		addi	s1,s1,3
 2836              	.LVL347:
 829:C:/Users/stapi/OneDrive/Desktop/GD32VW553/GD32VW55X_Wifi_BLE_SDK/GD32VW55x_RELEASE_V1.0.2/MSDK/lwip/libcoap-4.3.4/src\coap_uri.c ****           *s++ = hex[seg[i]&0x0F];
 2837              		.loc 1 829 28
 2838 0182 9183     		srli	a5,a5,4
 829:C:/Users/stapi/OneDrive/Desktop/GD32VW553/GD32VW55X_Wifi_BLE_SDK/GD32VW55x_RELEASE_V1.0.2/MSDK/lwip/libcoap-4.3.4/src\coap_uri.c ****           *s++ = hex[seg[i]&0x0F];
 2839              		.loc 1 829 21
 2840 0184 CE97     		add	a5,s3,a5
 829:C:/Users/stapi/OneDrive/Desktop/GD32VW553/GD32VW55X_Wifi_BLE_SDK/GD32VW55x_RELEASE_V1.0.2/MSDK/lwip/libcoap-4.3.4/src\coap_uri.c ****           *s++ = hex[seg[i]&0x0F];
 2841              		.loc 1 829 16
 2842 0186 83C70700 		lbu	a5,0(a5)
 2843 018a 238FF4FE 		sb	a5,-2(s1)
 830:C:/Users/stapi/OneDrive/Desktop/GD32VW553/GD32VW55X_Wifi_BLE_SDK/GD32VW55x_RELEASE_V1.0.2/MSDK/lwip/libcoap-4.3.4/src\coap_uri.c ****         }
 2844              		.loc 1 830 11 is_stmt 1
 2845              	.LVL348:
 830:C:/Users/stapi/OneDrive/Desktop/GD32VW553/GD32VW55X_Wifi_BLE_SDK/GD32VW55x_RELEASE_V1.0.2/MSDK/lwip/libcoap-4.3.4/src\coap_uri.c ****         }
 2846              		.loc 1 830 28 is_stmt 0
 2847 018e 83470900 		lbu	a5,0(s2)
 2848 0192 BD8B     		andi	a5,a5,15
 830:C:/Users/stapi/OneDrive/Desktop/GD32VW553/GD32VW55X_Wifi_BLE_SDK/GD32VW55x_RELEASE_V1.0.2/MSDK/lwip/libcoap-4.3.4/src\coap_uri.c ****         }
 2849              		.loc 1 830 21
 2850 0194 CE97     		add	a5,s3,a5
 830:C:/Users/stapi/OneDrive/Desktop/GD32VW553/GD32VW55X_Wifi_BLE_SDK/GD32VW55x_RELEASE_V1.0.2/MSDK/lwip/libcoap-4.3.4/src\coap_uri.c ****         }
 2851              		.loc 1 830 16
 2852 0196 83C70700 		lbu	a5,0(a5)
 2853 019a A38FF4FE 		sb	a5,-1(s1)
 2854 019e D9BF     		j	.L275
 2855              	.LBE111:
 2856              	.LBE113:
 2857              		.cfi_endproc
 2858              	.LFE51:
 2860              		.set	hex.0,hex.1
 2861              		.globl	coap_uri_scheme
 2862              		.section	.rodata.str1.4,"aMS",@progbits,1
 2863              		.align	2
 2864              	.LC15:
 2865 0000 636F6170 		.string	"coap"
 2865      00
 2866 0005 000000   		.align	2
 2867              	.LC16:
 2868 0008 636F6170 		.string	"coaps"
 2868      7300
 2869 000e 0000     		.align	2
 2870              	.LC17:
 2871 0010 636F6170 		.string	"coap+tcp"
 2871      2B746370 
 2871      00
 2872 0019 000000   		.align	2
 2873              	.LC18:
 2874 001c 636F6170 		.string	"coaps+tcp"
 2874      732B7463 
 2874      7000
 2875 0026 0000     		.align	2
 2876              	.LC19:
 2877 0028 68747470 		.string	"http"
 2877      00
 2878 002d 000000   		.align	2
 2879              	.LC20:
 2880 0030 68747470 		.string	"https"
 2880      7300
 2881 0036 0000     		.align	2
 2882              	.LC21:
 2883 0038 636F6170 		.string	"coap+ws"
 2883      2B777300 
 2884              		.align	2
 2885              	.LC22:
 2886 0040 636F6170 		.string	"coaps+ws"
 2886      732B7773 
 2886      00
 2887              		.section	.data.coap_uri_scheme,"aw"
 2888              		.align	2
 2889              		.set	.LANCHOR0,. + 0
 2892              	coap_uri_scheme:
 2893 0000 00000000 		.word	.LC15
 2894 0004 3316     		.half	5683
 2895 0006 0000     		.half	0
 2896 0008 00000000 		.word	0
 2897 000c 00000000 		.word	.LC16
 2898 0010 3416     		.half	5684
 2899 0012 0000     		.half	0
 2900 0014 01000000 		.word	1
 2901 0018 00000000 		.word	.LC17
 2902 001c 3316     		.half	5683
 2903 001e 0000     		.half	0
 2904 0020 02000000 		.word	2
 2905 0024 00000000 		.word	.LC18
 2906 0028 3416     		.half	5684
 2907 002a 0000     		.half	0
 2908 002c 03000000 		.word	3
 2909 0030 00000000 		.word	.LC19
 2910 0034 5000     		.half	80
 2911 0036 0100     		.half	1
 2912 0038 04000000 		.word	4
 2913 003c 00000000 		.word	.LC20
 2914 0040 BB01     		.half	443
 2915 0042 0100     		.half	1
 2916 0044 05000000 		.word	5
 2917 0048 00000000 		.word	.LC21
 2918 004c 5000     		.half	80
 2919 004e 0000     		.half	0
 2920 0050 06000000 		.word	6
 2921 0054 00000000 		.word	.LC22
 2922 0058 BB01     		.half	443
 2923 005a 0000     		.half	0
 2924 005c 07000000 		.word	7
 2925              		.section	.rodata.__func__.2,"a"
 2926              		.align	2
 2927              		.set	.LANCHOR2,. + 0
 2930              	__func__.2:
 2931 0000 6D616B65 		.string	"make_decoded_option"
 2931      5F646563 
 2931      6F646564 
 2931      5F6F7074 
 2931      696F6E00 
 2932              		.section	.rodata.__func__.3,"a"
 2933              		.align	2
 2934              		.set	.LANCHOR1,. + 0
 2937              	__func__.3:
 2938 0000 77726974 		.string	"write_option"
 2938      655F6F70 
 2938      74696F6E 
 2938      00
 2939              		.section	.rodata.hex.1,"a"
 2940              		.align	2
 2941              		.set	.LANCHOR3,. + 0
 2944              	hex.1:
 2945 0000 30313233 		.string	"0123456789ABCDEF"
 2945      34353637 
 2945      38394142 
 2945      43444546 
 2945      00
 2946              		.text
 2947              	.Letext0:
 2948              		.file 3 "c:\\users\\stapi\\onedrive\\desktop\\gd32vw553\\embeddedbuilder_v1.4.7.26843\\tools\\nucl
 2949              		.file 4 "c:\\users\\stapi\\onedrive\\desktop\\gd32vw553\\embeddedbuilder_v1.4.7.26843\\tools\\nucl
 2950              		.file 5 "c:\\users\\stapi\\onedrive\\desktop\\gd32vw553\\embeddedbuilder_v1.4.7.26843\\tools\\nucl
 2951              		.file 6 "c:\\users\\stapi\\onedrive\\desktop\\gd32vw553\\embeddedbuilder_v1.4.7.26843\\tools\\nucl
 2952              		.file 7 "c:\\users\\stapi\\onedrive\\desktop\\gd32vw553\\embeddedbuilder_v1.4.7.26843\\tools\\nucl
 2953              		.file 8 "..\\..\\..\\..\\lwip\\lwip-2.1.2\\src\\include/lwip/arch.h"
 2954              		.file 9 "..\\..\\..\\..\\lwip\\libcoap-4.3.4\\include/coap3/coap_forward_decls.h"
 2955              		.file 10 "..\\..\\..\\..\\lwip\\libcoap-4.3.4\\include/coap3/coap_address.h"
 2956              		.file 11 "..\\..\\..\\..\\lwip\\libcoap-4.3.4\\include/coap3/coap_async_internal.h"
 2957              		.file 12 "..\\..\\..\\..\\lwip\\libcoap-4.3.4\\include/coap3/coap_block_internal.h"
 2958              		.file 13 "..\\..\\..\\..\\lwip\\libcoap-4.3.4\\include/coap3/coap_cache_internal.h"
 2959              		.file 14 "..\\..\\..\\..\\lwip\\libcoap-4.3.4\\include/coap3/coap_io_internal.h"
 2960              		.file 15 "..\\..\\..\\..\\lwip\\libcoap-4.3.4\\include/coap3/coap_net_internal.h"
 2961              		.file 16 "..\\..\\..\\..\\lwip\\libcoap-4.3.4\\include/coap3/coap_pdu_internal.h"
 2962              		.file 17 "..\\..\\..\\..\\lwip\\libcoap-4.3.4\\include/coap3/coap_resource_internal.h"
 2963              		.file 18 "..\\..\\..\\..\\lwip\\libcoap-4.3.4\\include/coap3/coap_session_internal.h"
 2964              		.file 19 "..\\..\\..\\..\\lwip\\libcoap-4.3.4\\include/coap3/coap_subscribe_internal.h"
 2965              		.file 20 "..\\..\\..\\..\\lwip\\libcoap-4.3.4\\include/coap3/coap_option.h"
 2966              		.file 21 "..\\..\\..\\..\\lwip\\libcoap-4.3.4\\include/coap3/coap_str.h"
 2967              		.file 22 "..\\..\\..\\..\\lwip\\lwip-2.1.2\\src\\include/lwip/pbuf.h"
 2968              		.file 23 "..\\..\\..\\..\\lwip\\libcoap-4.3.4\\include/coap3/coap_pdu.h"
 2969              		.file 24 "..\\..\\..\\..\\lwip\\lwip-2.1.2\\src\\include/lwip/ip4_addr.h"
 2970              		.file 25 "..\\..\\..\\..\\lwip\\lwip-2.1.2\\src\\include/lwip/ip_addr.h"
 2971              		.file 26 "..\\..\\..\\..\\lwip\\lwip-2.1.2\\src\\include/lwip/netif.h"
 2972              		.file 27 "..\\..\\..\\..\\lwip\\lwip-2.1.2\\src\\include/lwip/sockets.h"
 2973              		.file 28 "..\\..\\..\\..\\lwip\\libcoap-4.3.4\\include/coap3/coap_io.h"
 2974              		.file 29 "..\\..\\..\\..\\lwip\\lwip-2.1.2\\src\\include/lwip/memp.h"
 2975              		.file 30 "..\\..\\..\\..\\lwip\\libcoap-4.3.4\\include/coap3/coap_time.h"
 2976              		.file 31 "..\\..\\..\\..\\lwip\\libcoap-4.3.4\\include/coap3/coap_dtls.h"
 2977              		.file 32 "..\\..\\..\\..\\lwip\\libcoap-4.3.4\\include/coap3/coap_event.h"
 2978              		.file 33 "..\\..\\..\\..\\lwip\\libcoap-4.3.4\\include/coap3/coap_session.h"
 2979              		.file 34 "..\\..\\..\\..\\lwip\\libcoap-4.3.4\\include/coap3/coap_debug.h"
 2980              		.file 35 "..\\..\\..\\..\\lwip\\libcoap-4.3.4\\include/coap3/coap_net.h"
 2981              		.file 36 "..\\..\\..\\..\\lwip\\libcoap-4.3.4\\include/coap3/coap_block.h"
 2982              		.file 37 "..\\..\\..\\..\\lwip\\libcoap-4.3.4\\include/coap3/coap_cache.h"
 2983              		.file 38 "..\\..\\..\\..\\lwip\\libcoap-4.3.4\\include/coap3/coap_mem.h"
 2984              		.file 39 "..\\..\\..\\..\\lwip\\libcoap-4.3.4\\include/coap3/coap_resource.h"
 2985              		.file 40 "..\\..\\..\\..\\lwip\\libcoap-4.3.4\\include/coap3/coap_subscribe.h"
 2986              		.file 41 "..\\..\\..\\..\\lwip\\libcoap-4.3.4\\include/coap3/coap_uthash_internal.h"
 2987              		.file 42 "..\\..\\..\\..\\lwip\\libcoap-4.3.4\\include/coap3/coap_layers_internal.h"
 2988              		.file 43 "..\\..\\..\\..\\lwip\\libcoap-4.3.4\\include/coap3/coap_uri_internal.h"
 2989              		.file 44 "c:\\users\\stapi\\onedrive\\desktop\\gd32vw553\\embeddedbuilder_v1.4.7.26843\\tools\\nuc
 2990              		.file 45 "<built-in>"
 2991              		.file 46 "c:\\users\\stapi\\onedrive\\desktop\\gd32vw553\\embeddedbuilder_v1.4.7.26843\\tools\\nuc
 2992              		.file 47 "c:\\users\\stapi\\onedrive\\desktop\\gd32vw553\\embeddedbuilder_v1.4.7.26843\\tools\\nuc
 2993              		.file 48 "..\\..\\..\\..\\lwip\\libcoap-4.3.4\\include/coap3/coap_encode.h"
 2994              		.file 49 "..\\..\\..\\..\\lwip\\libcoap-4.3.4\\include/coap3/coap_ws.h"
DEFINED SYMBOLS
                            *ABS*:0000000000000000 coap_uri.c
C:\Users\stapi\AppData\Local\Temp\ccHGOiBE.s:37     .text.coap_split_uri_sub:0000000000000000 coap_split_uri_sub
C:\Users\stapi\AppData\Local\Temp\ccHGOiBE.s:41     .text.coap_split_uri_sub:0000000000000000 .L0 
C:\Users\stapi\AppData\Local\Temp\ccHGOiBE.s:43     .text.coap_split_uri_sub:0000000000000000 .L0 
C:\Users\stapi\AppData\Local\Temp\ccHGOiBE.s:44     .text.coap_split_uri_sub:0000000000000000 .L0 
C:\Users\stapi\AppData\Local\Temp\ccHGOiBE.s:45     .text.coap_split_uri_sub:0000000000000000 .L0 
C:\Users\stapi\AppData\Local\Temp\ccHGOiBE.s:46     .text.coap_split_uri_sub:0000000000000000 .L0 
C:\Users\stapi\AppData\Local\Temp\ccHGOiBE.s:47     .text.coap_split_uri_sub:0000000000000000 .L0 
C:\Users\stapi\AppData\Local\Temp\ccHGOiBE.s:48     .text.coap_split_uri_sub:0000000000000000 .L0 
C:\Users\stapi\AppData\Local\Temp\ccHGOiBE.s:49     .text.coap_split_uri_sub:0000000000000000 .L0 
C:\Users\stapi\AppData\Local\Temp\ccHGOiBE.s:51     .text.coap_split_uri_sub:0000000000000002 .L0 
C:\Users\stapi\AppData\Local\Temp\ccHGOiBE.s:54     .text.coap_split_uri_sub:0000000000000004 .L0 
C:\Users\stapi\AppData\Local\Temp\ccHGOiBE.s:58     .text.coap_split_uri_sub:0000000000000006 .L0 
C:\Users\stapi\AppData\Local\Temp\ccHGOiBE.s:59     .text.coap_split_uri_sub:000000000000000e .L0 
C:\Users\stapi\AppData\Local\Temp\ccHGOiBE.s:60     .text.coap_split_uri_sub:000000000000000e .L0 
C:\Users\stapi\AppData\Local\Temp\ccHGOiBE.s:61     .text.coap_split_uri_sub:000000000000000e .L0 
C:\Users\stapi\AppData\Local\Temp\ccHGOiBE.s:62     .text.coap_split_uri_sub:000000000000000e .L0 
C:\Users\stapi\AppData\Local\Temp\ccHGOiBE.s:63     .text.coap_split_uri_sub:000000000000000e .L0 
C:\Users\stapi\AppData\Local\Temp\ccHGOiBE.s:64     .text.coap_split_uri_sub:000000000000000e .L0 
C:\Users\stapi\AppData\Local\Temp\ccHGOiBE.s:65     .text.coap_split_uri_sub:000000000000000e .L0 
C:\Users\stapi\AppData\Local\Temp\ccHGOiBE.s:66     .text.coap_split_uri_sub:000000000000000e .L0 
C:\Users\stapi\AppData\Local\Temp\ccHGOiBE.s:67     .text.coap_split_uri_sub:000000000000000e .L0 
C:\Users\stapi\AppData\Local\Temp\ccHGOiBE.s:68     .text.coap_split_uri_sub:000000000000000e .L0 
C:\Users\stapi\AppData\Local\Temp\ccHGOiBE.s:69     .text.coap_split_uri_sub:000000000000000e .L0 
C:\Users\stapi\AppData\Local\Temp\ccHGOiBE.s:70     .text.coap_split_uri_sub:000000000000000e .L0 
C:\Users\stapi\AppData\Local\Temp\ccHGOiBE.s:71     .text.coap_split_uri_sub:000000000000000e .L0 
C:\Users\stapi\AppData\Local\Temp\ccHGOiBE.s:73     .text.coap_split_uri_sub:0000000000000010 .L0 
C:\Users\stapi\AppData\Local\Temp\ccHGOiBE.s:76     .text.coap_split_uri_sub:0000000000000012 .L0 
C:\Users\stapi\AppData\Local\Temp\ccHGOiBE.s:79     .text.coap_split_uri_sub:0000000000000016 .L0 
C:\Users\stapi\AppData\Local\Temp\ccHGOiBE.s:83     .text.coap_split_uri_sub:000000000000001a .L0 
C:\Users\stapi\AppData\Local\Temp\ccHGOiBE.s:90     .text.coap_split_uri_sub:0000000000000024 .L0 
C:\Users\stapi\AppData\Local\Temp\ccHGOiBE.s:93     .text.coap_split_uri_sub:000000000000002c .L0 
C:\Users\stapi\AppData\Local\Temp\ccHGOiBE.s:94     .text.coap_split_uri_sub:000000000000002c .L0 
C:\Users\stapi\AppData\Local\Temp\ccHGOiBE.s:99     .text.coap_split_uri_sub:0000000000000036 .L0 
C:\Users\stapi\AppData\Local\Temp\ccHGOiBE.s:100    .text.coap_split_uri_sub:0000000000000036 .L0 
C:\Users\stapi\AppData\Local\Temp\ccHGOiBE.s:101    .text.coap_split_uri_sub:0000000000000036 .L0 
C:\Users\stapi\AppData\Local\Temp\ccHGOiBE.s:106    .text.coap_split_uri_sub:0000000000000044 .L0 
C:\Users\stapi\AppData\Local\Temp\ccHGOiBE.s:108    .text.coap_split_uri_sub:0000000000000046 .L0 
C:\Users\stapi\AppData\Local\Temp\ccHGOiBE.s:112    .text.coap_split_uri_sub:000000000000004a .L0 
C:\Users\stapi\AppData\Local\Temp\ccHGOiBE.s:114    .text.coap_split_uri_sub:000000000000004e .L0 
C:\Users\stapi\AppData\Local\Temp\ccHGOiBE.s:117    .text.coap_split_uri_sub:0000000000000056 .L0 
C:\Users\stapi\AppData\Local\Temp\ccHGOiBE.s:120    .text.coap_split_uri_sub:000000000000005e .L0 
C:\Users\stapi\AppData\Local\Temp\ccHGOiBE.s:125    .text.coap_split_uri_sub:000000000000006e .L0 
C:\Users\stapi\AppData\Local\Temp\ccHGOiBE.s:128    .text.coap_split_uri_sub:0000000000000074 .L0 
C:\Users\stapi\AppData\Local\Temp\ccHGOiBE.s:130    .text.coap_split_uri_sub:0000000000000078 .L0 
C:\Users\stapi\AppData\Local\Temp\ccHGOiBE.s:134    .text.coap_split_uri_sub:000000000000007a .L0 
C:\Users\stapi\AppData\Local\Temp\ccHGOiBE.s:135    .text.coap_split_uri_sub:000000000000007a .L0 
C:\Users\stapi\AppData\Local\Temp\ccHGOiBE.s:141    .text.coap_split_uri_sub:000000000000008a .L0 
C:\Users\stapi\AppData\Local\Temp\ccHGOiBE.s:144    .text.coap_split_uri_sub:0000000000000090 .L0 
C:\Users\stapi\AppData\Local\Temp\ccHGOiBE.s:150    .text.coap_split_uri_sub:000000000000009e .L0 
C:\Users\stapi\AppData\Local\Temp\ccHGOiBE.s:152    .text.coap_split_uri_sub:00000000000000a0 .L0 
C:\Users\stapi\AppData\Local\Temp\ccHGOiBE.s:153    .text.coap_split_uri_sub:00000000000000a0 .L0 
C:\Users\stapi\AppData\Local\Temp\ccHGOiBE.s:156    .text.coap_split_uri_sub:00000000000000a6 .L0 
C:\Users\stapi\AppData\Local\Temp\ccHGOiBE.s:160    .text.coap_split_uri_sub:00000000000000ae .L0 
C:\Users\stapi\AppData\Local\Temp\ccHGOiBE.s:163    .text.coap_split_uri_sub:00000000000000b4 .L0 
C:\Users\stapi\AppData\Local\Temp\ccHGOiBE.s:164    .text.coap_split_uri_sub:00000000000000b4 .L0 
C:\Users\stapi\AppData\Local\Temp\ccHGOiBE.s:169    .text.coap_split_uri_sub:00000000000000c2 .L0 
C:\Users\stapi\AppData\Local\Temp\ccHGOiBE.s:179    .text.coap_split_uri_sub:00000000000000d8 .L0 
C:\Users\stapi\AppData\Local\Temp\ccHGOiBE.s:182    .text.coap_split_uri_sub:00000000000000da .L0 
C:\Users\stapi\AppData\Local\Temp\ccHGOiBE.s:183    .text.coap_split_uri_sub:00000000000000dc .L0 
C:\Users\stapi\AppData\Local\Temp\ccHGOiBE.s:184    .text.coap_split_uri_sub:00000000000000dc .L0 
C:\Users\stapi\AppData\Local\Temp\ccHGOiBE.s:186    .text.coap_split_uri_sub:00000000000000e4 .L0 
C:\Users\stapi\AppData\Local\Temp\ccHGOiBE.s:187    .text.coap_split_uri_sub:00000000000000e4 .L0 
C:\Users\stapi\AppData\Local\Temp\ccHGOiBE.s:188    .text.coap_split_uri_sub:00000000000000e4 .L0 
C:\Users\stapi\AppData\Local\Temp\ccHGOiBE.s:189    .text.coap_split_uri_sub:00000000000000e4 .L0 
C:\Users\stapi\AppData\Local\Temp\ccHGOiBE.s:190    .text.coap_split_uri_sub:00000000000000e4 .L0 
C:\Users\stapi\AppData\Local\Temp\ccHGOiBE.s:191    .text.coap_split_uri_sub:00000000000000e4 .L0 
C:\Users\stapi\AppData\Local\Temp\ccHGOiBE.s:192    .text.coap_split_uri_sub:00000000000000e4 .L0 
C:\Users\stapi\AppData\Local\Temp\ccHGOiBE.s:193    .text.coap_split_uri_sub:00000000000000e4 .L0 
C:\Users\stapi\AppData\Local\Temp\ccHGOiBE.s:194    .text.coap_split_uri_sub:00000000000000e4 .L0 
C:\Users\stapi\AppData\Local\Temp\ccHGOiBE.s:195    .text.coap_split_uri_sub:00000000000000e4 .L0 
C:\Users\stapi\AppData\Local\Temp\ccHGOiBE.s:196    .text.coap_split_uri_sub:00000000000000e4 .L0 
C:\Users\stapi\AppData\Local\Temp\ccHGOiBE.s:197    .text.coap_split_uri_sub:00000000000000e4 .L0 
C:\Users\stapi\AppData\Local\Temp\ccHGOiBE.s:198    .text.coap_split_uri_sub:00000000000000e4 .L0 
C:\Users\stapi\AppData\Local\Temp\ccHGOiBE.s:201    .text.coap_split_uri_sub:00000000000000e4 .L0 
C:\Users\stapi\AppData\Local\Temp\ccHGOiBE.s:203    .text.coap_split_uri_sub:00000000000000e4 .L0 
C:\Users\stapi\AppData\Local\Temp\ccHGOiBE.s:204    .text.coap_split_uri_sub:00000000000000e4 .L0 
C:\Users\stapi\AppData\Local\Temp\ccHGOiBE.s:210    .text.coap_split_uri_sub:00000000000000ec .L0 
C:\Users\stapi\AppData\Local\Temp\ccHGOiBE.s:211    .text.coap_split_uri_sub:00000000000000ec .L0 
C:\Users\stapi\AppData\Local\Temp\ccHGOiBE.s:215    .text.coap_split_uri_sub:00000000000000f8 .L0 
C:\Users\stapi\AppData\Local\Temp\ccHGOiBE.s:216    .text.coap_split_uri_sub:00000000000000f8 .L0 
C:\Users\stapi\AppData\Local\Temp\ccHGOiBE.s:219    .text.coap_split_uri_sub:00000000000000fa .L0 
C:\Users\stapi\AppData\Local\Temp\ccHGOiBE.s:222    .text.coap_split_uri_sub:00000000000000fc .L0 
C:\Users\stapi\AppData\Local\Temp\ccHGOiBE.s:223    .text.coap_split_uri_sub:00000000000000fc .L0 
C:\Users\stapi\AppData\Local\Temp\ccHGOiBE.s:225    .text.coap_split_uri_sub:00000000000000fe .L0 
C:\Users\stapi\AppData\Local\Temp\ccHGOiBE.s:229    .text.coap_split_uri_sub:0000000000000102 .L0 
C:\Users\stapi\AppData\Local\Temp\ccHGOiBE.s:231    .text.coap_split_uri_sub:0000000000000106 .L0 
C:\Users\stapi\AppData\Local\Temp\ccHGOiBE.s:234    .text.coap_split_uri_sub:000000000000010e .L0 
C:\Users\stapi\AppData\Local\Temp\ccHGOiBE.s:235    .text.coap_split_uri_sub:000000000000010e .L0 
C:\Users\stapi\AppData\Local\Temp\ccHGOiBE.s:242    .text.coap_split_uri_sub:0000000000000116 .L0 
C:\Users\stapi\AppData\Local\Temp\ccHGOiBE.s:245    .text.coap_split_uri_sub:0000000000000118 .L0 
C:\Users\stapi\AppData\Local\Temp\ccHGOiBE.s:251    .text.coap_split_uri_sub:000000000000011c .L0 
C:\Users\stapi\AppData\Local\Temp\ccHGOiBE.s:252    .text.coap_split_uri_sub:000000000000011c .L0 
C:\Users\stapi\AppData\Local\Temp\ccHGOiBE.s:256    .text.coap_split_uri_sub:0000000000000126 .L0 
C:\Users\stapi\AppData\Local\Temp\ccHGOiBE.s:258    .text.coap_split_uri_sub:000000000000012a .L0 
C:\Users\stapi\AppData\Local\Temp\ccHGOiBE.s:260    .text.coap_split_uri_sub:000000000000012e .L0 
C:\Users\stapi\AppData\Local\Temp\ccHGOiBE.s:261    .text.coap_split_uri_sub:000000000000012e .L0 
C:\Users\stapi\AppData\Local\Temp\ccHGOiBE.s:263    .text.coap_split_uri_sub:0000000000000132 .L0 
C:\Users\stapi\AppData\Local\Temp\ccHGOiBE.s:264    .text.coap_split_uri_sub:0000000000000132 .L0 
C:\Users\stapi\AppData\Local\Temp\ccHGOiBE.s:265    .text.coap_split_uri_sub:0000000000000132 .L0 
C:\Users\stapi\AppData\Local\Temp\ccHGOiBE.s:287    .text.coap_split_uri_sub:0000000000000148 .L0 
C:\Users\stapi\AppData\Local\Temp\ccHGOiBE.s:288    .text.coap_split_uri_sub:0000000000000148 .L0 
C:\Users\stapi\AppData\Local\Temp\ccHGOiBE.s:291    .text.coap_split_uri_sub:000000000000014a .L0 
C:\Users\stapi\AppData\Local\Temp\ccHGOiBE.s:292    .text.coap_split_uri_sub:000000000000014a .L0 
C:\Users\stapi\AppData\Local\Temp\ccHGOiBE.s:295    .text.coap_split_uri_sub:0000000000000150 .L0 
C:\Users\stapi\AppData\Local\Temp\ccHGOiBE.s:296    .text.coap_split_uri_sub:0000000000000150 .L0 
C:\Users\stapi\AppData\Local\Temp\ccHGOiBE.s:297    .text.coap_split_uri_sub:0000000000000150 .L0 
C:\Users\stapi\AppData\Local\Temp\ccHGOiBE.s:302    .text.coap_split_uri_sub:000000000000015e .L0 
C:\Users\stapi\AppData\Local\Temp\ccHGOiBE.s:309    .text.coap_split_uri_sub:000000000000016c .L0 
C:\Users\stapi\AppData\Local\Temp\ccHGOiBE.s:310    .text.coap_split_uri_sub:000000000000016c .L0 
C:\Users\stapi\AppData\Local\Temp\ccHGOiBE.s:313    .text.coap_split_uri_sub:0000000000000174 .L0 
C:\Users\stapi\AppData\Local\Temp\ccHGOiBE.s:315    .text.coap_split_uri_sub:0000000000000176 .L0 
C:\Users\stapi\AppData\Local\Temp\ccHGOiBE.s:316    .text.coap_split_uri_sub:0000000000000176 .L0 
C:\Users\stapi\AppData\Local\Temp\ccHGOiBE.s:321    .text.coap_split_uri_sub:0000000000000184 .L0 
C:\Users\stapi\AppData\Local\Temp\ccHGOiBE.s:325    .text.coap_split_uri_sub:000000000000018c .L0 
C:\Users\stapi\AppData\Local\Temp\ccHGOiBE.s:331    .text.coap_split_uri_sub:0000000000000198 .L0 
C:\Users\stapi\AppData\Local\Temp\ccHGOiBE.s:332    .text.coap_split_uri_sub:0000000000000198 .L0 
C:\Users\stapi\AppData\Local\Temp\ccHGOiBE.s:335    .text.coap_split_uri_sub:00000000000001a0 .L0 
C:\Users\stapi\AppData\Local\Temp\ccHGOiBE.s:337    .text.coap_split_uri_sub:00000000000001a2 .L0 
C:\Users\stapi\AppData\Local\Temp\ccHGOiBE.s:338    .text.coap_split_uri_sub:00000000000001a2 .L0 
C:\Users\stapi\AppData\Local\Temp\ccHGOiBE.s:343    .text.coap_split_uri_sub:00000000000001b0 .L0 
C:\Users\stapi\AppData\Local\Temp\ccHGOiBE.s:348    .text.coap_split_uri_sub:00000000000001ba .L0 
C:\Users\stapi\AppData\Local\Temp\ccHGOiBE.s:349    .text.coap_split_uri_sub:00000000000001ba .L0 
C:\Users\stapi\AppData\Local\Temp\ccHGOiBE.s:352    .text.coap_split_uri_sub:00000000000001c2 .L0 
C:\Users\stapi\AppData\Local\Temp\ccHGOiBE.s:354    .text.coap_split_uri_sub:00000000000001c4 .L0 
C:\Users\stapi\AppData\Local\Temp\ccHGOiBE.s:355    .text.coap_split_uri_sub:00000000000001c4 .L0 
C:\Users\stapi\AppData\Local\Temp\ccHGOiBE.s:360    .text.coap_split_uri_sub:00000000000001d2 .L0 
C:\Users\stapi\AppData\Local\Temp\ccHGOiBE.s:365    .text.coap_split_uri_sub:00000000000001dc .L0 
C:\Users\stapi\AppData\Local\Temp\ccHGOiBE.s:366    .text.coap_split_uri_sub:00000000000001dc .L0 
C:\Users\stapi\AppData\Local\Temp\ccHGOiBE.s:369    .text.coap_split_uri_sub:00000000000001e4 .L0 
C:\Users\stapi\AppData\Local\Temp\ccHGOiBE.s:371    .text.coap_split_uri_sub:00000000000001e6 .L0 
C:\Users\stapi\AppData\Local\Temp\ccHGOiBE.s:372    .text.coap_split_uri_sub:00000000000001e6 .L0 
C:\Users\stapi\AppData\Local\Temp\ccHGOiBE.s:377    .text.coap_split_uri_sub:00000000000001f4 .L0 
C:\Users\stapi\AppData\Local\Temp\ccHGOiBE.s:382    .text.coap_split_uri_sub:00000000000001fe .L0 
C:\Users\stapi\AppData\Local\Temp\ccHGOiBE.s:383    .text.coap_split_uri_sub:00000000000001fe .L0 
C:\Users\stapi\AppData\Local\Temp\ccHGOiBE.s:386    .text.coap_split_uri_sub:0000000000000206 .L0 
C:\Users\stapi\AppData\Local\Temp\ccHGOiBE.s:388    .text.coap_split_uri_sub:0000000000000208 .L0 
C:\Users\stapi\AppData\Local\Temp\ccHGOiBE.s:389    .text.coap_split_uri_sub:0000000000000208 .L0 
C:\Users\stapi\AppData\Local\Temp\ccHGOiBE.s:394    .text.coap_split_uri_sub:0000000000000216 .L0 
C:\Users\stapi\AppData\Local\Temp\ccHGOiBE.s:399    .text.coap_split_uri_sub:0000000000000220 .L0 
C:\Users\stapi\AppData\Local\Temp\ccHGOiBE.s:400    .text.coap_split_uri_sub:0000000000000220 .L0 
C:\Users\stapi\AppData\Local\Temp\ccHGOiBE.s:405    .text.coap_split_uri_sub:000000000000022e .L0 
C:\Users\stapi\AppData\Local\Temp\ccHGOiBE.s:414    .text.coap_split_uri_sub:0000000000000246 .L0 
C:\Users\stapi\AppData\Local\Temp\ccHGOiBE.s:415    .text.coap_split_uri_sub:0000000000000246 .L0 
C:\Users\stapi\AppData\Local\Temp\ccHGOiBE.s:418    .text.coap_split_uri_sub:0000000000000248 .L0 
C:\Users\stapi\AppData\Local\Temp\ccHGOiBE.s:421    .text.coap_split_uri_sub:000000000000024c .L0 
C:\Users\stapi\AppData\Local\Temp\ccHGOiBE.s:422    .text.coap_split_uri_sub:000000000000024c .L0 
C:\Users\stapi\AppData\Local\Temp\ccHGOiBE.s:423    .text.coap_split_uri_sub:000000000000024c .L0 
C:\Users\stapi\AppData\Local\Temp\ccHGOiBE.s:424    .text.coap_split_uri_sub:000000000000024c .L0 
C:\Users\stapi\AppData\Local\Temp\ccHGOiBE.s:426    .text.coap_split_uri_sub:000000000000024e .L0 
C:\Users\stapi\AppData\Local\Temp\ccHGOiBE.s:428    .text.coap_split_uri_sub:0000000000000252 .L0 
C:\Users\stapi\AppData\Local\Temp\ccHGOiBE.s:431    .text.coap_split_uri_sub:000000000000025a .L0 
C:\Users\stapi\AppData\Local\Temp\ccHGOiBE.s:434    .text.coap_split_uri_sub:000000000000025e .L0 
C:\Users\stapi\AppData\Local\Temp\ccHGOiBE.s:435    .text.coap_split_uri_sub:000000000000025e .L0 
C:\Users\stapi\AppData\Local\Temp\ccHGOiBE.s:436    .text.coap_split_uri_sub:000000000000025e .L0 
C:\Users\stapi\AppData\Local\Temp\ccHGOiBE.s:439    .text.coap_split_uri_sub:0000000000000262 .L0 
C:\Users\stapi\AppData\Local\Temp\ccHGOiBE.s:442    .text.coap_split_uri_sub:000000000000026a .L0 
C:\Users\stapi\AppData\Local\Temp\ccHGOiBE.s:443    .text.coap_split_uri_sub:000000000000026a .L0 
C:\Users\stapi\AppData\Local\Temp\ccHGOiBE.s:445    .text.coap_split_uri_sub:000000000000026e .L0 
C:\Users\stapi\AppData\Local\Temp\ccHGOiBE.s:449    .text.coap_split_uri_sub:000000000000027a .L0 
C:\Users\stapi\AppData\Local\Temp\ccHGOiBE.s:450    .text.coap_split_uri_sub:000000000000027a .L0 
C:\Users\stapi\AppData\Local\Temp\ccHGOiBE.s:453    .text.coap_split_uri_sub:000000000000027e .L0 
C:\Users\stapi\AppData\Local\Temp\ccHGOiBE.s:457    .text.coap_split_uri_sub:0000000000000280 .L0 
C:\Users\stapi\AppData\Local\Temp\ccHGOiBE.s:458    .text.coap_split_uri_sub:0000000000000280 .L0 
C:\Users\stapi\AppData\Local\Temp\ccHGOiBE.s:459    .text.coap_split_uri_sub:0000000000000280 .L0 
C:\Users\stapi\AppData\Local\Temp\ccHGOiBE.s:463    .text.coap_split_uri_sub:0000000000000282 .L0 
C:\Users\stapi\AppData\Local\Temp\ccHGOiBE.s:464    .text.coap_split_uri_sub:0000000000000282 .L0 
C:\Users\stapi\AppData\Local\Temp\ccHGOiBE.s:465    .text.coap_split_uri_sub:0000000000000282 .L0 
C:\Users\stapi\AppData\Local\Temp\ccHGOiBE.s:466    .text.coap_split_uri_sub:0000000000000282 .L0 
C:\Users\stapi\AppData\Local\Temp\ccHGOiBE.s:471    .text.coap_split_uri_sub:0000000000000286 .L0 
C:\Users\stapi\AppData\Local\Temp\ccHGOiBE.s:472    .text.coap_split_uri_sub:0000000000000286 .L0 
C:\Users\stapi\AppData\Local\Temp\ccHGOiBE.s:475    .text.coap_split_uri_sub:0000000000000288 .L0 
C:\Users\stapi\AppData\Local\Temp\ccHGOiBE.s:478    .text.coap_split_uri_sub:000000000000028a .L0 
C:\Users\stapi\AppData\Local\Temp\ccHGOiBE.s:479    .text.coap_split_uri_sub:000000000000028a .L0 
C:\Users\stapi\AppData\Local\Temp\ccHGOiBE.s:483    .text.coap_split_uri_sub:000000000000028c .L0 
C:\Users\stapi\AppData\Local\Temp\ccHGOiBE.s:488    .text.coap_split_uri_sub:0000000000000290 .L0 
C:\Users\stapi\AppData\Local\Temp\ccHGOiBE.s:489    .text.coap_split_uri_sub:0000000000000290 .L0 
C:\Users\stapi\AppData\Local\Temp\ccHGOiBE.s:492    .text.coap_split_uri_sub:0000000000000296 .L0 
C:\Users\stapi\AppData\Local\Temp\ccHGOiBE.s:495    .text.coap_split_uri_sub:000000000000029e .L0 
C:\Users\stapi\AppData\Local\Temp\ccHGOiBE.s:499    .text.coap_split_uri_sub:00000000000002aa .L0 
C:\Users\stapi\AppData\Local\Temp\ccHGOiBE.s:504    .text.coap_split_uri_sub:00000000000002ba .L0 
C:\Users\stapi\AppData\Local\Temp\ccHGOiBE.s:505    .text.coap_split_uri_sub:00000000000002ba .L0 
C:\Users\stapi\AppData\Local\Temp\ccHGOiBE.s:508    .text.coap_split_uri_sub:00000000000002be .L0 
C:\Users\stapi\AppData\Local\Temp\ccHGOiBE.s:509    .text.coap_split_uri_sub:00000000000002be .L0 
C:\Users\stapi\AppData\Local\Temp\ccHGOiBE.s:513    .text.coap_split_uri_sub:00000000000002c0 .L0 
C:\Users\stapi\AppData\Local\Temp\ccHGOiBE.s:515    .text.coap_split_uri_sub:00000000000002c2 .L0 
C:\Users\stapi\AppData\Local\Temp\ccHGOiBE.s:517    .text.coap_split_uri_sub:00000000000002c6 .L0 
C:\Users\stapi\AppData\Local\Temp\ccHGOiBE.s:522    .text.coap_split_uri_sub:00000000000002cc .L0 
C:\Users\stapi\AppData\Local\Temp\ccHGOiBE.s:527    .text.coap_split_uri_sub:00000000000002d0 .L0 
C:\Users\stapi\AppData\Local\Temp\ccHGOiBE.s:529    .text.coap_split_uri_sub:00000000000002d4 .L0 
C:\Users\stapi\AppData\Local\Temp\ccHGOiBE.s:531    .text.coap_split_uri_sub:00000000000002d8 .L0 
C:\Users\stapi\AppData\Local\Temp\ccHGOiBE.s:534    .text.coap_split_uri_sub:00000000000002e0 .L0 
C:\Users\stapi\AppData\Local\Temp\ccHGOiBE.s:537    .text.coap_split_uri_sub:00000000000002e2 .L0 
C:\Users\stapi\AppData\Local\Temp\ccHGOiBE.s:541    .text.coap_split_uri_sub:00000000000002e4 .L0 
C:\Users\stapi\AppData\Local\Temp\ccHGOiBE.s:545    .text.coap_split_uri_sub:00000000000002e6 .L0 
C:\Users\stapi\AppData\Local\Temp\ccHGOiBE.s:548    .text.coap_split_uri_sub:00000000000002e8 .L0 
C:\Users\stapi\AppData\Local\Temp\ccHGOiBE.s:549    .text.coap_split_uri_sub:00000000000002e8 .L0 
C:\Users\stapi\AppData\Local\Temp\ccHGOiBE.s:551    .text.coap_split_uri_sub:00000000000002ec .L0 
C:\Users\stapi\AppData\Local\Temp\ccHGOiBE.s:560    .text.coap_split_uri_sub:00000000000002fc .L0 
C:\Users\stapi\AppData\Local\Temp\ccHGOiBE.s:564    .text.coap_split_uri_sub:0000000000000308 .L0 
C:\Users\stapi\AppData\Local\Temp\ccHGOiBE.s:565    .text.coap_split_uri_sub:0000000000000308 .L0 
C:\Users\stapi\AppData\Local\Temp\ccHGOiBE.s:567    .text.coap_split_uri_sub:000000000000030a .L0 
C:\Users\stapi\AppData\Local\Temp\ccHGOiBE.s:570    .text.coap_split_uri_sub:000000000000030e .L0 
C:\Users\stapi\AppData\Local\Temp\ccHGOiBE.s:571    .text.coap_split_uri_sub:000000000000030e .L0 
C:\Users\stapi\AppData\Local\Temp\ccHGOiBE.s:574    .text.coap_split_uri_sub:0000000000000312 .L0 
C:\Users\stapi\AppData\Local\Temp\ccHGOiBE.s:575    .text.coap_split_uri_sub:0000000000000312 .L0 
C:\Users\stapi\AppData\Local\Temp\ccHGOiBE.s:577    .text.coap_split_uri_sub:0000000000000316 .L0 
C:\Users\stapi\AppData\Local\Temp\ccHGOiBE.s:580    .text.coap_split_uri_sub:0000000000000318 .L0 
C:\Users\stapi\AppData\Local\Temp\ccHGOiBE.s:581    .text.coap_split_uri_sub:0000000000000318 .L0 
C:\Users\stapi\AppData\Local\Temp\ccHGOiBE.s:583    .text.coap_split_uri_sub:000000000000031a .L0 
C:\Users\stapi\AppData\Local\Temp\ccHGOiBE.s:587    .text.coap_split_uri_sub:000000000000031e .L0 
C:\Users\stapi\AppData\Local\Temp\ccHGOiBE.s:589    .text.coap_split_uri_sub:0000000000000320 .L0 
C:\Users\stapi\AppData\Local\Temp\ccHGOiBE.s:592    .text.coap_split_uri_sub:0000000000000326 .L0 
C:\Users\stapi\AppData\Local\Temp\ccHGOiBE.s:596    .text.coap_split_uri_sub:000000000000032e .L0 
C:\Users\stapi\AppData\Local\Temp\ccHGOiBE.s:597    .text.coap_split_uri_sub:000000000000032e .L0 
C:\Users\stapi\AppData\Local\Temp\ccHGOiBE.s:601    .text.coap_split_uri_sub:0000000000000332 .L0 
C:\Users\stapi\AppData\Local\Temp\ccHGOiBE.s:603    .text.coap_split_uri_sub:0000000000000334 .L0 
C:\Users\stapi\AppData\Local\Temp\ccHGOiBE.s:607    .text.coap_split_uri_sub:0000000000000336 .L0 
C:\Users\stapi\AppData\Local\Temp\ccHGOiBE.s:608    .text.coap_split_uri_sub:0000000000000336 .L0 
C:\Users\stapi\AppData\Local\Temp\ccHGOiBE.s:610    .text.coap_split_uri_sub:000000000000033a .L0 
C:\Users\stapi\AppData\Local\Temp\ccHGOiBE.s:613    .text.coap_split_uri_sub:000000000000033c .L0 
C:\Users\stapi\AppData\Local\Temp\ccHGOiBE.s:615    .text.coap_split_uri_sub:0000000000000340 .L0 
C:\Users\stapi\AppData\Local\Temp\ccHGOiBE.s:619    .text.coap_split_uri_sub:0000000000000346 .L0 
C:\Users\stapi\AppData\Local\Temp\ccHGOiBE.s:621    .text.coap_split_uri_sub:000000000000034a .L0 
C:\Users\stapi\AppData\Local\Temp\ccHGOiBE.s:623    .text.coap_split_uri_sub:000000000000034e .L0 
C:\Users\stapi\AppData\Local\Temp\ccHGOiBE.s:629    .text.coap_split_uri_sub:0000000000000352 .L0 
C:\Users\stapi\AppData\Local\Temp\ccHGOiBE.s:632    .text.coap_split_uri_sub:0000000000000354 .L0 
C:\Users\stapi\AppData\Local\Temp\ccHGOiBE.s:639    .text.coap_split_uri_sub:0000000000000358 .L0 
C:\Users\stapi\AppData\Local\Temp\ccHGOiBE.s:640    .text.coap_split_uri_sub:0000000000000358 .L0 
C:\Users\stapi\AppData\Local\Temp\ccHGOiBE.s:643    .text.coap_split_uri_sub:000000000000035a .L0 
C:\Users\stapi\AppData\Local\Temp\ccHGOiBE.s:645    .text.coap_split_uri_sub:000000000000035c .L0 
C:\Users\stapi\AppData\Local\Temp\ccHGOiBE.s:647    .text.coap_split_uri_sub:0000000000000360 .L0 
C:\Users\stapi\AppData\Local\Temp\ccHGOiBE.s:648    .text.coap_split_uri_sub:0000000000000360 .L0 
C:\Users\stapi\AppData\Local\Temp\ccHGOiBE.s:652    .text.coap_split_uri_sub:0000000000000364 .L0 
C:\Users\stapi\AppData\Local\Temp\ccHGOiBE.s:653    .text.coap_split_uri_sub:0000000000000364 .L0 
C:\Users\stapi\AppData\Local\Temp\ccHGOiBE.s:658    .text.coap_split_uri_sub:000000000000036a .L0 
C:\Users\stapi\AppData\Local\Temp\ccHGOiBE.s:661    .text.coap_split_uri_sub:000000000000036c .L0 
C:\Users\stapi\AppData\Local\Temp\ccHGOiBE.s:667    .text.coap_split_uri_sub:0000000000000370 .L0 
C:\Users\stapi\AppData\Local\Temp\ccHGOiBE.s:672    .text.coap_split_uri_sub:0000000000000374 .L0 
C:\Users\stapi\AppData\Local\Temp\ccHGOiBE.s:673    .text.coap_split_uri_sub:0000000000000374 .L0 
C:\Users\stapi\AppData\Local\Temp\ccHGOiBE.s:676    .text.coap_split_uri_sub:0000000000000378 .L0 
C:\Users\stapi\AppData\Local\Temp\ccHGOiBE.s:680    .text.coap_split_uri_sub:0000000000000384 .L0 
C:\Users\stapi\AppData\Local\Temp\ccHGOiBE.s:682    .text.coap_split_uri_sub:0000000000000384 .L0 
C:\Users\stapi\AppData\Local\Temp\ccHGOiBE.s:683    .text.coap_split_uri_sub:0000000000000384 .L0 
C:\Users\stapi\AppData\Local\Temp\ccHGOiBE.s:684    .text.coap_split_uri_sub:0000000000000384 .L0 
C:\Users\stapi\AppData\Local\Temp\ccHGOiBE.s:688    .text.coap_split_uri_sub:0000000000000388 .L0 
C:\Users\stapi\AppData\Local\Temp\ccHGOiBE.s:693    .text.coap_split_uri_sub:0000000000000394 .L0 
C:\Users\stapi\AppData\Local\Temp\ccHGOiBE.s:694    .text.coap_split_uri_sub:0000000000000394 .L0 
C:\Users\stapi\AppData\Local\Temp\ccHGOiBE.s:695    .text.coap_split_uri_sub:0000000000000394 .L0 
C:\Users\stapi\AppData\Local\Temp\ccHGOiBE.s:696    .text.coap_split_uri_sub:0000000000000394 .L0 
C:\Users\stapi\AppData\Local\Temp\ccHGOiBE.s:699    .text.coap_split_uri_sub:0000000000000396 .L0 
C:\Users\stapi\AppData\Local\Temp\ccHGOiBE.s:702    .text.coap_split_uri_sub:0000000000000398 .L0 
C:\Users\stapi\AppData\Local\Temp\ccHGOiBE.s:708    .text.coap_split_uri_sub:00000000000003a2 .L0 
C:\Users\stapi\AppData\Local\Temp\ccHGOiBE.s:709    .text.coap_split_uri_sub:00000000000003a2 .L0 
C:\Users\stapi\AppData\Local\Temp\ccHGOiBE.s:711    .text.coap_split_uri_sub:00000000000003a8 .L0 
C:\Users\stapi\AppData\Local\Temp\ccHGOiBE.s:733    .text.write_option:0000000000000000 write_option
C:\Users\stapi\AppData\Local\Temp\ccHGOiBE.s:736    .text.write_option:0000000000000000 .L0 
C:\Users\stapi\AppData\Local\Temp\ccHGOiBE.s:738    .text.write_option:0000000000000000 .L0 
C:\Users\stapi\AppData\Local\Temp\ccHGOiBE.s:739    .text.write_option:0000000000000008 .L0 
C:\Users\stapi\AppData\Local\Temp\ccHGOiBE.s:740    .text.write_option:0000000000000008 .L0 
C:\Users\stapi\AppData\Local\Temp\ccHGOiBE.s:741    .text.write_option:0000000000000008 .L0 
C:\Users\stapi\AppData\Local\Temp\ccHGOiBE.s:742    .text.write_option:0000000000000008 .L0 
C:\Users\stapi\AppData\Local\Temp\ccHGOiBE.s:743    .text.write_option:0000000000000008 .L0 
C:\Users\stapi\AppData\Local\Temp\ccHGOiBE.s:744    .text.write_option:0000000000000008 .L0 
C:\Users\stapi\AppData\Local\Temp\ccHGOiBE.s:745    .text.write_option:0000000000000008 .L0 
C:\Users\stapi\AppData\Local\Temp\ccHGOiBE.s:746    .text.write_option:0000000000000008 .L0 
C:\Users\stapi\AppData\Local\Temp\ccHGOiBE.s:749    .text.write_option:0000000000000008 .L0 
C:\Users\stapi\AppData\Local\Temp\ccHGOiBE.s:750    .text.write_option:0000000000000008 .L0 
C:\Users\stapi\AppData\Local\Temp\ccHGOiBE.s:751    .text.write_option:0000000000000008 .L0 
C:\Users\stapi\AppData\Local\Temp\ccHGOiBE.s:752    .text.write_option:0000000000000008 .L0 
C:\Users\stapi\AppData\Local\Temp\ccHGOiBE.s:754    .text.write_option:000000000000000a .L0 
C:\Users\stapi\AppData\Local\Temp\ccHGOiBE.s:765    .text.write_option:000000000000001e .L0 
C:\Users\stapi\AppData\Local\Temp\ccHGOiBE.s:773    .text.write_option:000000000000002e .L0 
C:\Users\stapi\AppData\Local\Temp\ccHGOiBE.s:775    .text.write_option:0000000000000032 .L0 
C:\Users\stapi\AppData\Local\Temp\ccHGOiBE.s:781    .text.write_option:0000000000000038 .L0 
C:\Users\stapi\AppData\Local\Temp\ccHGOiBE.s:782    .text.write_option:0000000000000038 .L0 
C:\Users\stapi\AppData\Local\Temp\ccHGOiBE.s:783    .text.write_option:0000000000000038 .L0 
C:\Users\stapi\AppData\Local\Temp\ccHGOiBE.s:784    .text.write_option:0000000000000038 .L0 
C:\Users\stapi\AppData\Local\Temp\ccHGOiBE.s:785    .text.write_option:0000000000000038 .L0 
C:\Users\stapi\AppData\Local\Temp\ccHGOiBE.s:786    .text.write_option:0000000000000038 .L0 
C:\Users\stapi\AppData\Local\Temp\ccHGOiBE.s:789    .text.write_option:000000000000003c .L0 
C:\Users\stapi\AppData\Local\Temp\ccHGOiBE.s:790    .text.write_option:000000000000003c .L0 
C:\Users\stapi\AppData\Local\Temp\ccHGOiBE.s:795    .text.write_option:000000000000004a .L0 
C:\Users\stapi\AppData\Local\Temp\ccHGOiBE.s:800    .text.write_option:0000000000000052 .L0 
C:\Users\stapi\AppData\Local\Temp\ccHGOiBE.s:807    .text.write_option:000000000000005c .L0 
C:\Users\stapi\AppData\Local\Temp\ccHGOiBE.s:808    .text.write_option:000000000000005c .L0 
C:\Users\stapi\AppData\Local\Temp\ccHGOiBE.s:809    .text.write_option:0000000000000064 .L0 
C:\Users\stapi\AppData\Local\Temp\ccHGOiBE.s:810    .text.write_option:0000000000000064 .L0 
C:\Users\stapi\AppData\Local\Temp\ccHGOiBE.s:811    .text.write_option:0000000000000064 .L0 
C:\Users\stapi\AppData\Local\Temp\ccHGOiBE.s:812    .text.write_option:0000000000000064 .L0 
C:\Users\stapi\AppData\Local\Temp\ccHGOiBE.s:813    .text.write_option:0000000000000064 .L0 
C:\Users\stapi\AppData\Local\Temp\ccHGOiBE.s:814    .text.write_option:0000000000000064 .L0 
C:\Users\stapi\AppData\Local\Temp\ccHGOiBE.s:815    .text.write_option:0000000000000064 .L0 
C:\Users\stapi\AppData\Local\Temp\ccHGOiBE.s:816    .text.write_option:0000000000000064 .L0 
C:\Users\stapi\AppData\Local\Temp\ccHGOiBE.s:817    .text.write_option:0000000000000064 .L0 
C:\Users\stapi\AppData\Local\Temp\ccHGOiBE.s:820    .text.write_option:0000000000000064 .L0 
C:\Users\stapi\AppData\Local\Temp\ccHGOiBE.s:826    .text.write_option:0000000000000064 .L0 
C:\Users\stapi\AppData\Local\Temp\ccHGOiBE.s:827    .text.write_option:0000000000000064 .L0 
C:\Users\stapi\AppData\Local\Temp\ccHGOiBE.s:830    .text.write_option:000000000000006c .L0 
C:\Users\stapi\AppData\Local\Temp\ccHGOiBE.s:831    .text.write_option:000000000000006c .L0 
C:\Users\stapi\AppData\Local\Temp\ccHGOiBE.s:833    .text.write_option:0000000000000070 .L0 
C:\Users\stapi\AppData\Local\Temp\ccHGOiBE.s:836    .text.write_option:0000000000000076 .L0 
C:\Users\stapi\AppData\Local\Temp\ccHGOiBE.s:840    .text.write_option:0000000000000080 .L0 
C:\Users\stapi\AppData\Local\Temp\ccHGOiBE.s:843    .text.write_option:0000000000000086 .L0 
C:\Users\stapi\AppData\Local\Temp\ccHGOiBE.s:847    .text.write_option:0000000000000090 .L0 
C:\Users\stapi\AppData\Local\Temp\ccHGOiBE.s:848    .text.write_option:0000000000000090 .L0 
C:\Users\stapi\AppData\Local\Temp\ccHGOiBE.s:851    .text.write_option:0000000000000092 .L0 
C:\Users\stapi\AppData\Local\Temp\ccHGOiBE.s:852    .text.write_option:0000000000000092 .L0 
C:\Users\stapi\AppData\Local\Temp\ccHGOiBE.s:856    .text.write_option:0000000000000094 .L0 
C:\Users\stapi\AppData\Local\Temp\ccHGOiBE.s:859    .text.write_option:0000000000000096 .L0 
C:\Users\stapi\AppData\Local\Temp\ccHGOiBE.s:862    .text.write_option:0000000000000098 .L0 
C:\Users\stapi\AppData\Local\Temp\ccHGOiBE.s:866    .text.write_option:000000000000009a .L0 
C:\Users\stapi\AppData\Local\Temp\ccHGOiBE.s:869    .text.write_option:000000000000009c .L0 
C:\Users\stapi\AppData\Local\Temp\ccHGOiBE.s:872    .text.write_option:000000000000009c .L0 
C:\Users\stapi\AppData\Local\Temp\ccHGOiBE.s:873    .text.write_option:000000000000009c .L0 
C:\Users\stapi\AppData\Local\Temp\ccHGOiBE.s:874    .text.write_option:000000000000009c .L0 
C:\Users\stapi\AppData\Local\Temp\ccHGOiBE.s:875    .text.write_option:000000000000009c .L0 
C:\Users\stapi\AppData\Local\Temp\ccHGOiBE.s:882    .text.write_option:00000000000000ac .L0 
C:\Users\stapi\AppData\Local\Temp\ccHGOiBE.s:894    .text.write_option:00000000000000c6 .L0 
C:\Users\stapi\AppData\Local\Temp\ccHGOiBE.s:904    .text.write_option:00000000000000d2 .L0 
C:\Users\stapi\AppData\Local\Temp\ccHGOiBE.s:906    .text.write_option:00000000000000d4 .L0 
C:\Users\stapi\AppData\Local\Temp\ccHGOiBE.s:909    .text.write_option:00000000000000d8 .L0 
C:\Users\stapi\AppData\Local\Temp\ccHGOiBE.s:912    .text.write_option:00000000000000da .L0 
C:\Users\stapi\AppData\Local\Temp\ccHGOiBE.s:919    .text.write_option:00000000000000e0 .L0 
C:\Users\stapi\AppData\Local\Temp\ccHGOiBE.s:920    .text.write_option:00000000000000e0 .L0 
C:\Users\stapi\AppData\Local\Temp\ccHGOiBE.s:922    .text.write_option:00000000000000e2 .L0 
C:\Users\stapi\AppData\Local\Temp\ccHGOiBE.s:923    .text.write_option:00000000000000e2 .L0 
C:\Users\stapi\AppData\Local\Temp\ccHGOiBE.s:926    .text.write_option:00000000000000e6 .L0 
C:\Users\stapi\AppData\Local\Temp\ccHGOiBE.s:929    .text.write_option:00000000000000ea .L0 
C:\Users\stapi\AppData\Local\Temp\ccHGOiBE.s:932    .text.write_option:00000000000000ea .L0 
C:\Users\stapi\AppData\Local\Temp\ccHGOiBE.s:933    .text.write_option:00000000000000ea .L0 
C:\Users\stapi\AppData\Local\Temp\ccHGOiBE.s:937    .text.write_option:00000000000000ee .L0 
C:\Users\stapi\AppData\Local\Temp\ccHGOiBE.s:939    .text.write_option:00000000000000f2 .L0 
C:\Users\stapi\AppData\Local\Temp\ccHGOiBE.s:940    .text.write_option:00000000000000f2 .L0 
C:\Users\stapi\AppData\Local\Temp\ccHGOiBE.s:945    .text.write_option:0000000000000100 .L0 
C:\Users\stapi\AppData\Local\Temp\ccHGOiBE.s:953    .text.write_option:000000000000010a .L0 
C:\Users\stapi\AppData\Local\Temp\ccHGOiBE.s:954    .text.write_option:000000000000010a .L0 
C:\Users\stapi\AppData\Local\Temp\ccHGOiBE.s:956    .text.write_option:000000000000010e .L0 
C:\Users\stapi\AppData\Local\Temp\ccHGOiBE.s:958    .text.write_option:0000000000000112 .L0 
C:\Users\stapi\AppData\Local\Temp\ccHGOiBE.s:959    .text.write_option:0000000000000112 .L0 
C:\Users\stapi\AppData\Local\Temp\ccHGOiBE.s:961    .text.write_option:0000000000000116 .L0 
C:\Users\stapi\AppData\Local\Temp\ccHGOiBE.s:964    .text.write_option:000000000000011c .L0 
C:\Users\stapi\AppData\Local\Temp\ccHGOiBE.s:968    .text.write_option:0000000000000120 .L0 
C:\Users\stapi\AppData\Local\Temp\ccHGOiBE.s:970    .text.write_option:0000000000000124 .L0 
C:\Users\stapi\AppData\Local\Temp\ccHGOiBE.s:972    .text.write_option:0000000000000126 .L0 
C:\Users\stapi\AppData\Local\Temp\ccHGOiBE.s:974    .text.write_option:000000000000012a .L0 
C:\Users\stapi\AppData\Local\Temp\ccHGOiBE.s:976    .text.write_option:000000000000012e .L0 
C:\Users\stapi\AppData\Local\Temp\ccHGOiBE.s:982    .text.write_option:0000000000000138 .L0 
C:\Users\stapi\AppData\Local\Temp\ccHGOiBE.s:984    .text.write_option:000000000000013c .L0 
C:\Users\stapi\AppData\Local\Temp\ccHGOiBE.s:985    .text.write_option:000000000000013c .L0 
C:\Users\stapi\AppData\Local\Temp\ccHGOiBE.s:988    .text.write_option:000000000000013e .L0 
C:\Users\stapi\AppData\Local\Temp\ccHGOiBE.s:989    .text.write_option:000000000000013e .L0 
C:\Users\stapi\AppData\Local\Temp\ccHGOiBE.s:993    .text.write_option:0000000000000140 .L0 
C:\Users\stapi\AppData\Local\Temp\ccHGOiBE.s:996    .text.write_option:0000000000000142 .L0 
C:\Users\stapi\AppData\Local\Temp\ccHGOiBE.s:1000   .text.write_option:0000000000000144 .L0 
C:\Users\stapi\AppData\Local\Temp\ccHGOiBE.s:1007   .text.write_option:0000000000000148 .L0 
C:\Users\stapi\AppData\Local\Temp\ccHGOiBE.s:1008   .text.write_option:0000000000000148 .L0 
C:\Users\stapi\AppData\Local\Temp\ccHGOiBE.s:1012   .text.write_option:000000000000014a .L0 
C:\Users\stapi\AppData\Local\Temp\ccHGOiBE.s:1017   .text.write_option:000000000000014c .L0 
C:\Users\stapi\AppData\Local\Temp\ccHGOiBE.s:1018   .text.write_option:000000000000014c .L0 
C:\Users\stapi\AppData\Local\Temp\ccHGOiBE.s:1019   .text.write_option:000000000000014c .L0 
C:\Users\stapi\AppData\Local\Temp\ccHGOiBE.s:1020   .text.write_option:000000000000014c .L0 
C:\Users\stapi\AppData\Local\Temp\ccHGOiBE.s:1022   .text.write_option:000000000000014e .L0 
C:\Users\stapi\AppData\Local\Temp\ccHGOiBE.s:1025   .text.write_option:0000000000000152 .L0 
C:\Users\stapi\AppData\Local\Temp\ccHGOiBE.s:1026   .text.write_option:0000000000000152 .L0 
C:\Users\stapi\AppData\Local\Temp\ccHGOiBE.s:1028   .text.write_option:0000000000000154 .L0 
C:\Users\stapi\AppData\Local\Temp\ccHGOiBE.s:1032   .text.write_option:000000000000015a .L0 
C:\Users\stapi\AppData\Local\Temp\ccHGOiBE.s:1033   .text.write_option:000000000000015a .L0 
C:\Users\stapi\AppData\Local\Temp\ccHGOiBE.s:1037   .text.write_option:000000000000015e .L0 
C:\Users\stapi\AppData\Local\Temp\ccHGOiBE.s:1045   .text.write_option:0000000000000160 .L0 
C:\Users\stapi\AppData\Local\Temp\ccHGOiBE.s:1048   .text.write_option:0000000000000162 .L0 
C:\Users\stapi\AppData\Local\Temp\ccHGOiBE.s:1049   .text.write_option:0000000000000162 .L0 
C:\Users\stapi\AppData\Local\Temp\ccHGOiBE.s:1055   .text.write_option:0000000000000168 .L0 
C:\Users\stapi\AppData\Local\Temp\ccHGOiBE.s:1061   .text.is_unescaped_in_path:0000000000000000 is_unescaped_in_path
C:\Users\stapi\AppData\Local\Temp\ccHGOiBE.s:1064   .text.is_unescaped_in_path:0000000000000000 .L0 
C:\Users\stapi\AppData\Local\Temp\ccHGOiBE.s:1066   .text.is_unescaped_in_path:0000000000000000 .L0 
C:\Users\stapi\AppData\Local\Temp\ccHGOiBE.s:1067   .text.is_unescaped_in_path:0000000000000000 .L0 
C:\Users\stapi\AppData\Local\Temp\ccHGOiBE.s:1068   .text.is_unescaped_in_path:0000000000000000 .L0 
C:\Users\stapi\AppData\Local\Temp\ccHGOiBE.s:1072   .text.is_unescaped_in_path:000000000000000a .L0 
C:\Users\stapi\AppData\Local\Temp\ccHGOiBE.s:1074   .text.is_unescaped_in_path:000000000000000c .L0 
C:\Users\stapi\AppData\Local\Temp\ccHGOiBE.s:1076   .text.is_unescaped_in_path:0000000000000010 .L0 
C:\Users\stapi\AppData\Local\Temp\ccHGOiBE.s:1080   .text.is_unescaped_in_path:000000000000001a .L0 
C:\Users\stapi\AppData\Local\Temp\ccHGOiBE.s:1083   .text.is_unescaped_in_path:000000000000001c .L0 
C:\Users\stapi\AppData\Local\Temp\ccHGOiBE.s:1087   .text.is_unescaped_in_path:0000000000000022 .L0 
C:\Users\stapi\AppData\Local\Temp\ccHGOiBE.s:1095   .text.is_unescaped_in_path:000000000000003a .L0 
C:\Users\stapi\AppData\Local\Temp\ccHGOiBE.s:1097   .text.is_unescaped_in_path:000000000000003c .L0 
C:\Users\stapi\AppData\Local\Temp\ccHGOiBE.s:1104   .text.is_unescaped_in_path:0000000000000042 .L0 
C:\Users\stapi\AppData\Local\Temp\ccHGOiBE.s:1111   .text.is_unescaped_in_path:000000000000004a .L0 
C:\Users\stapi\AppData\Local\Temp\ccHGOiBE.s:1112   .text.is_unescaped_in_path:000000000000004c .L0 
C:\Users\stapi\AppData\Local\Temp\ccHGOiBE.s:1119   .text.coap_split_uri:0000000000000000 coap_split_uri
C:\Users\stapi\AppData\Local\Temp\ccHGOiBE.s:1122   .text.coap_split_uri:0000000000000000 .L0 
C:\Users\stapi\AppData\Local\Temp\ccHGOiBE.s:1124   .text.coap_split_uri:0000000000000000 .L0 
C:\Users\stapi\AppData\Local\Temp\ccHGOiBE.s:1125   .text.coap_split_uri:0000000000000000 .L0 
C:\Users\stapi\AppData\Local\Temp\ccHGOiBE.s:1126   .text.coap_split_uri:0000000000000000 .L0 
C:\Users\stapi\AppData\Local\Temp\ccHGOiBE.s:1129   .text.coap_split_uri:000000000000000a .L0 
C:\Users\stapi\AppData\Local\Temp\ccHGOiBE.s:1136   .text.coap_split_proxy_uri:0000000000000000 coap_split_proxy_uri
C:\Users\stapi\AppData\Local\Temp\ccHGOiBE.s:1139   .text.coap_split_proxy_uri:0000000000000000 .L0 
C:\Users\stapi\AppData\Local\Temp\ccHGOiBE.s:1141   .text.coap_split_proxy_uri:0000000000000000 .L0 
C:\Users\stapi\AppData\Local\Temp\ccHGOiBE.s:1142   .text.coap_split_proxy_uri:0000000000000000 .L0 
C:\Users\stapi\AppData\Local\Temp\ccHGOiBE.s:1143   .text.coap_split_proxy_uri:0000000000000000 .L0 
C:\Users\stapi\AppData\Local\Temp\ccHGOiBE.s:1146   .text.coap_split_proxy_uri:000000000000000a .L0 
C:\Users\stapi\AppData\Local\Temp\ccHGOiBE.s:1153   .text.coap_host_is_unix_domain:0000000000000000 coap_host_is_unix_domain
C:\Users\stapi\AppData\Local\Temp\ccHGOiBE.s:1156   .text.coap_host_is_unix_domain:0000000000000000 .L0 
C:\Users\stapi\AppData\Local\Temp\ccHGOiBE.s:1158   .text.coap_host_is_unix_domain:0000000000000000 .L0 
C:\Users\stapi\AppData\Local\Temp\ccHGOiBE.s:1159   .text.coap_host_is_unix_domain:0000000000000000 .L0 
C:\Users\stapi\AppData\Local\Temp\ccHGOiBE.s:1160   .text.coap_host_is_unix_domain:0000000000000000 .L0 
C:\Users\stapi\AppData\Local\Temp\ccHGOiBE.s:1162   .text.coap_host_is_unix_domain:0000000000000002 .L0 
C:\Users\stapi\AppData\Local\Temp\ccHGOiBE.s:1164   .text.coap_host_is_unix_domain:0000000000000004 .L0 
C:\Users\stapi\AppData\Local\Temp\ccHGOiBE.s:1166   .text.coap_host_is_unix_domain:0000000000000006 .L0 
C:\Users\stapi\AppData\Local\Temp\ccHGOiBE.s:1168   .text.coap_host_is_unix_domain:000000000000000a .L0 
C:\Users\stapi\AppData\Local\Temp\ccHGOiBE.s:1170   .text.coap_host_is_unix_domain:000000000000000c .L0 
C:\Users\stapi\AppData\Local\Temp\ccHGOiBE.s:1174   .text.coap_host_is_unix_domain:0000000000000018 .L0 
C:\Users\stapi\AppData\Local\Temp\ccHGOiBE.s:1178   .text.coap_host_is_unix_domain:0000000000000024 .L0 
C:\Users\stapi\AppData\Local\Temp\ccHGOiBE.s:1181   .text.coap_host_is_unix_domain:000000000000002c .L0 
C:\Users\stapi\AppData\Local\Temp\ccHGOiBE.s:1184   .text.coap_host_is_unix_domain:000000000000002e .L0 
C:\Users\stapi\AppData\Local\Temp\ccHGOiBE.s:1190   .text.coap_host_is_unix_domain:0000000000000038 .L0 
C:\Users\stapi\AppData\Local\Temp\ccHGOiBE.s:1191   .text.coap_host_is_unix_domain:0000000000000038 .L0 
C:\Users\stapi\AppData\Local\Temp\ccHGOiBE.s:1194   .text.coap_host_is_unix_domain:000000000000003a .L0 
C:\Users\stapi\AppData\Local\Temp\ccHGOiBE.s:1200   .text.coap_host_is_unix_domain:000000000000003c .L0 
C:\Users\stapi\AppData\Local\Temp\ccHGOiBE.s:1203   .text.coap_host_is_unix_domain:000000000000003e .L0 
C:\Users\stapi\AppData\Local\Temp\ccHGOiBE.s:1210   .text.coap_host_is_unix_domain:000000000000004a .L0 
C:\Users\stapi\AppData\Local\Temp\ccHGOiBE.s:1211   .text.coap_host_is_unix_domain:000000000000004c .L0 
C:\Users\stapi\AppData\Local\Temp\ccHGOiBE.s:1218   .text.coap_split_path:0000000000000000 coap_split_path
C:\Users\stapi\AppData\Local\Temp\ccHGOiBE.s:1221   .text.coap_split_path:0000000000000000 .L0 
C:\Users\stapi\AppData\Local\Temp\ccHGOiBE.s:1223   .text.coap_split_path:0000000000000000 .L0 
C:\Users\stapi\AppData\Local\Temp\ccHGOiBE.s:1224   .text.coap_split_path:0000000000000008 .L0 
C:\Users\stapi\AppData\Local\Temp\ccHGOiBE.s:1225   .text.coap_split_path:0000000000000008 .L0 
C:\Users\stapi\AppData\Local\Temp\ccHGOiBE.s:1226   .text.coap_split_path:0000000000000008 .L0 
C:\Users\stapi\AppData\Local\Temp\ccHGOiBE.s:1227   .text.coap_split_path:0000000000000008 .L0 
C:\Users\stapi\AppData\Local\Temp\ccHGOiBE.s:1228   .text.coap_split_path:0000000000000008 .L0 
C:\Users\stapi\AppData\Local\Temp\ccHGOiBE.s:1229   .text.coap_split_path:0000000000000008 .L0 
C:\Users\stapi\AppData\Local\Temp\ccHGOiBE.s:1230   .text.coap_split_path:0000000000000008 .L0 
C:\Users\stapi\AppData\Local\Temp\ccHGOiBE.s:1231   .text.coap_split_path:0000000000000008 .L0 
C:\Users\stapi\AppData\Local\Temp\ccHGOiBE.s:1232   .text.coap_split_path:0000000000000008 .L0 
C:\Users\stapi\AppData\Local\Temp\ccHGOiBE.s:1233   .text.coap_split_path:0000000000000008 .L0 
C:\Users\stapi\AppData\Local\Temp\ccHGOiBE.s:1234   .text.coap_split_path:0000000000000008 .L0 
C:\Users\stapi\AppData\Local\Temp\ccHGOiBE.s:1236   .text.coap_split_path:0000000000000008 .L0 
C:\Users\stapi\AppData\Local\Temp\ccHGOiBE.s:1237   .text.coap_split_path:0000000000000008 .L0 
C:\Users\stapi\AppData\Local\Temp\ccHGOiBE.s:1239   .text.coap_split_path:000000000000000a .L0 
C:\Users\stapi\AppData\Local\Temp\ccHGOiBE.s:1240   .text.coap_split_path:000000000000000c .L0 
C:\Users\stapi\AppData\Local\Temp\ccHGOiBE.s:1242   .text.coap_split_path:000000000000000c .L0 
C:\Users\stapi\AppData\Local\Temp\ccHGOiBE.s:1244   .text.coap_split_path:000000000000000e .L0 
C:\Users\stapi\AppData\Local\Temp\ccHGOiBE.s:1249   .text.coap_split_path:0000000000000014 .L0 
C:\Users\stapi\AppData\Local\Temp\ccHGOiBE.s:1253   .text.coap_split_path:0000000000000018 .L0 
C:\Users\stapi\AppData\Local\Temp\ccHGOiBE.s:1257   .text.coap_split_path:000000000000001a .L0 
C:\Users\stapi\AppData\Local\Temp\ccHGOiBE.s:1262   .text.coap_split_path:0000000000000022 .L0 
C:\Users\stapi\AppData\Local\Temp\ccHGOiBE.s:1266   .text.coap_split_path:0000000000000026 .L0 
C:\Users\stapi\AppData\Local\Temp\ccHGOiBE.s:1268   .text.coap_split_path:000000000000002a .L0 
C:\Users\stapi\AppData\Local\Temp\ccHGOiBE.s:1270   .text.coap_split_path:000000000000002c .L0 
C:\Users\stapi\AppData\Local\Temp\ccHGOiBE.s:1276   .text.coap_split_path:000000000000002e .L0 
C:\Users\stapi\AppData\Local\Temp\ccHGOiBE.s:1279   .text.coap_split_path:0000000000000032 .L0 
C:\Users\stapi\AppData\Local\Temp\ccHGOiBE.s:1280   .text.coap_split_path:0000000000000032 .L0 
C:\Users\stapi\AppData\Local\Temp\ccHGOiBE.s:1285   .text.coap_split_path:0000000000000036 .L0 
C:\Users\stapi\AppData\Local\Temp\ccHGOiBE.s:1286   .text.coap_split_path:0000000000000036 .L0 
C:\Users\stapi\AppData\Local\Temp\ccHGOiBE.s:1292   .text.coap_split_path:000000000000003a .L0 
C:\Users\stapi\AppData\Local\Temp\ccHGOiBE.s:1300   .text.coap_split_path:0000000000000046 .L0 
C:\Users\stapi\AppData\Local\Temp\ccHGOiBE.s:1305   .text.coap_split_path:000000000000004a .L0 
C:\Users\stapi\AppData\Local\Temp\ccHGOiBE.s:1306   .text.coap_split_path:000000000000004a .L0 
C:\Users\stapi\AppData\Local\Temp\ccHGOiBE.s:1309   .text.coap_split_path:000000000000004e .L0 
C:\Users\stapi\AppData\Local\Temp\ccHGOiBE.s:1310   .text.coap_split_path:000000000000004e .L0 
C:\Users\stapi\AppData\Local\Temp\ccHGOiBE.s:1311   .text.coap_split_path:000000000000004e .L0 
C:\Users\stapi\AppData\Local\Temp\ccHGOiBE.s:1314   .text.coap_split_path:0000000000000052 .L0 
C:\Users\stapi\AppData\Local\Temp\ccHGOiBE.s:1315   .text.coap_split_path:0000000000000052 .L0 
C:\Users\stapi\AppData\Local\Temp\ccHGOiBE.s:1318   .text.coap_split_path:0000000000000052 .L0 
C:\Users\stapi\AppData\Local\Temp\ccHGOiBE.s:1319   .text.coap_split_path:0000000000000052 .L0 
C:\Users\stapi\AppData\Local\Temp\ccHGOiBE.s:1321   .text.coap_split_path:0000000000000056 .L0 
C:\Users\stapi\AppData\Local\Temp\ccHGOiBE.s:1323   .text.coap_split_path:000000000000005a .L0 
C:\Users\stapi\AppData\Local\Temp\ccHGOiBE.s:1324   .text.coap_split_path:000000000000005a .L0 
C:\Users\stapi\AppData\Local\Temp\ccHGOiBE.s:1329   .text.coap_split_path:000000000000005e .L0 
C:\Users\stapi\AppData\Local\Temp\ccHGOiBE.s:1330   .text.coap_split_path:000000000000005e .L0 
C:\Users\stapi\AppData\Local\Temp\ccHGOiBE.s:1332   .text.coap_split_path:0000000000000062 .L0 
C:\Users\stapi\AppData\Local\Temp\ccHGOiBE.s:1336   .text.coap_split_path:000000000000006a .L0 
C:\Users\stapi\AppData\Local\Temp\ccHGOiBE.s:1338   .text.coap_split_path:000000000000006e .L0 
C:\Users\stapi\AppData\Local\Temp\ccHGOiBE.s:1340   .text.coap_split_path:0000000000000072 .L0 
C:\Users\stapi\AppData\Local\Temp\ccHGOiBE.s:1347   .text.coap_split_path:000000000000007a .L0 
C:\Users\stapi\AppData\Local\Temp\ccHGOiBE.s:1353   .text.coap_split_path:0000000000000084 .L0 
C:\Users\stapi\AppData\Local\Temp\ccHGOiBE.s:1357   .text.coap_split_path:0000000000000086 .L0 
C:\Users\stapi\AppData\Local\Temp\ccHGOiBE.s:1358   .text.coap_split_path:0000000000000086 .L0 
C:\Users\stapi\AppData\Local\Temp\ccHGOiBE.s:1361   .text.coap_split_path:0000000000000088 .L0 
C:\Users\stapi\AppData\Local\Temp\ccHGOiBE.s:1367   .text.coap_split_path:000000000000008a .L0 
C:\Users\stapi\AppData\Local\Temp\ccHGOiBE.s:1372   .text.coap_split_path:0000000000000096 .L0 
C:\Users\stapi\AppData\Local\Temp\ccHGOiBE.s:1375   .text.coap_split_path:000000000000009c .L0 
C:\Users\stapi\AppData\Local\Temp\ccHGOiBE.s:1378   .text.coap_split_path:00000000000000a2 .L0 
C:\Users\stapi\AppData\Local\Temp\ccHGOiBE.s:1387   .text.coap_split_path:00000000000000aa .L0 
C:\Users\stapi\AppData\Local\Temp\ccHGOiBE.s:1388   .text.coap_split_path:00000000000000aa .L0 
C:\Users\stapi\AppData\Local\Temp\ccHGOiBE.s:1389   .text.coap_split_path:00000000000000aa .L0 
C:\Users\stapi\AppData\Local\Temp\ccHGOiBE.s:1392   .text.coap_split_path:00000000000000ae .L0 
C:\Users\stapi\AppData\Local\Temp\ccHGOiBE.s:1394   .text.coap_split_path:00000000000000b0 .L0 
C:\Users\stapi\AppData\Local\Temp\ccHGOiBE.s:1396   .text.coap_split_path:00000000000000b2 .L0 
C:\Users\stapi\AppData\Local\Temp\ccHGOiBE.s:1398   .text.coap_split_path:00000000000000b4 .L0 
C:\Users\stapi\AppData\Local\Temp\ccHGOiBE.s:1399   .text.coap_split_path:00000000000000b4 .L0 
C:\Users\stapi\AppData\Local\Temp\ccHGOiBE.s:1400   .text.coap_split_path:00000000000000b6 .L0 
C:\Users\stapi\AppData\Local\Temp\ccHGOiBE.s:1402   .text.coap_split_path:00000000000000be .L0 
C:\Users\stapi\AppData\Local\Temp\ccHGOiBE.s:1403   .text.coap_split_path:00000000000000be .L0 
C:\Users\stapi\AppData\Local\Temp\ccHGOiBE.s:1404   .text.coap_split_path:00000000000000be .L0 
C:\Users\stapi\AppData\Local\Temp\ccHGOiBE.s:1405   .text.coap_split_path:00000000000000be .L0 
C:\Users\stapi\AppData\Local\Temp\ccHGOiBE.s:1406   .text.coap_split_path:00000000000000be .L0 
C:\Users\stapi\AppData\Local\Temp\ccHGOiBE.s:1407   .text.coap_split_path:00000000000000be .L0 
C:\Users\stapi\AppData\Local\Temp\ccHGOiBE.s:1408   .text.coap_split_path:00000000000000be .L0 
C:\Users\stapi\AppData\Local\Temp\ccHGOiBE.s:1409   .text.coap_split_path:00000000000000be .L0 
C:\Users\stapi\AppData\Local\Temp\ccHGOiBE.s:1410   .text.coap_split_path:00000000000000be .L0 
C:\Users\stapi\AppData\Local\Temp\ccHGOiBE.s:1411   .text.coap_split_path:00000000000000be .L0 
C:\Users\stapi\AppData\Local\Temp\ccHGOiBE.s:1412   .text.coap_split_path:00000000000000be .L0 
C:\Users\stapi\AppData\Local\Temp\ccHGOiBE.s:1413   .text.coap_split_path:00000000000000be .L0 
C:\Users\stapi\AppData\Local\Temp\ccHGOiBE.s:1420   .text.coap_split_query:0000000000000000 coap_split_query
C:\Users\stapi\AppData\Local\Temp\ccHGOiBE.s:1423   .text.coap_split_query:0000000000000000 .L0 
C:\Users\stapi\AppData\Local\Temp\ccHGOiBE.s:1425   .text.coap_split_query:0000000000000000 .L0 
C:\Users\stapi\AppData\Local\Temp\ccHGOiBE.s:1426   .text.coap_split_query:0000000000000008 .L0 
C:\Users\stapi\AppData\Local\Temp\ccHGOiBE.s:1427   .text.coap_split_query:0000000000000008 .L0 
C:\Users\stapi\AppData\Local\Temp\ccHGOiBE.s:1428   .text.coap_split_query:0000000000000008 .L0 
C:\Users\stapi\AppData\Local\Temp\ccHGOiBE.s:1429   .text.coap_split_query:0000000000000008 .L0 
C:\Users\stapi\AppData\Local\Temp\ccHGOiBE.s:1430   .text.coap_split_query:0000000000000008 .L0 
C:\Users\stapi\AppData\Local\Temp\ccHGOiBE.s:1431   .text.coap_split_query:0000000000000008 .L0 
C:\Users\stapi\AppData\Local\Temp\ccHGOiBE.s:1432   .text.coap_split_query:0000000000000008 .L0 
C:\Users\stapi\AppData\Local\Temp\ccHGOiBE.s:1434   .text.coap_split_query:0000000000000008 .L0 
C:\Users\stapi\AppData\Local\Temp\ccHGOiBE.s:1436   .text.coap_split_query:000000000000000a .L0 
C:\Users\stapi\AppData\Local\Temp\ccHGOiBE.s:1437   .text.coap_split_query:000000000000000c .L0 
C:\Users\stapi\AppData\Local\Temp\ccHGOiBE.s:1439   .text.coap_split_query:000000000000000c .L0 
C:\Users\stapi\AppData\Local\Temp\ccHGOiBE.s:1441   .text.coap_split_query:000000000000000e .L0 
C:\Users\stapi\AppData\Local\Temp\ccHGOiBE.s:1442   .text.coap_split_query:000000000000000e .L0 
C:\Users\stapi\AppData\Local\Temp\ccHGOiBE.s:1444   .text.coap_split_query:0000000000000010 .L0 
C:\Users\stapi\AppData\Local\Temp\ccHGOiBE.s:1448   .text.coap_split_query:0000000000000016 .L0 
C:\Users\stapi\AppData\Local\Temp\ccHGOiBE.s:1450   .text.coap_split_query:0000000000000016 .L0 
C:\Users\stapi\AppData\Local\Temp\ccHGOiBE.s:1451   .text.coap_split_query:0000000000000016 .L0 
C:\Users\stapi\AppData\Local\Temp\ccHGOiBE.s:1453   .text.coap_split_query:000000000000001a .L0 
C:\Users\stapi\AppData\Local\Temp\ccHGOiBE.s:1455   .text.coap_split_query:000000000000001e .L0 
C:\Users\stapi\AppData\Local\Temp\ccHGOiBE.s:1459   .text.coap_split_query:0000000000000022 .L0 
C:\Users\stapi\AppData\Local\Temp\ccHGOiBE.s:1461   .text.coap_split_query:0000000000000026 .L0 
C:\Users\stapi\AppData\Local\Temp\ccHGOiBE.s:1463   .text.coap_split_query:000000000000002a .L0 
C:\Users\stapi\AppData\Local\Temp\ccHGOiBE.s:1466   .text.coap_split_query:000000000000002e .L0 
C:\Users\stapi\AppData\Local\Temp\ccHGOiBE.s:1471   .text.coap_split_query:000000000000003c .L0 
C:\Users\stapi\AppData\Local\Temp\ccHGOiBE.s:1472   .text.coap_split_query:000000000000003c .L0 
C:\Users\stapi\AppData\Local\Temp\ccHGOiBE.s:1475   .text.coap_split_query:0000000000000040 .L0 
C:\Users\stapi\AppData\Local\Temp\ccHGOiBE.s:1477   .text.coap_split_query:0000000000000042 .L0 
C:\Users\stapi\AppData\Local\Temp\ccHGOiBE.s:1479   .text.coap_split_query:0000000000000044 .L0 
C:\Users\stapi\AppData\Local\Temp\ccHGOiBE.s:1481   .text.coap_split_query:0000000000000046 .L0 
C:\Users\stapi\AppData\Local\Temp\ccHGOiBE.s:1482   .text.coap_split_query:0000000000000046 .L0 
C:\Users\stapi\AppData\Local\Temp\ccHGOiBE.s:1483   .text.coap_split_query:0000000000000048 .L0 
C:\Users\stapi\AppData\Local\Temp\ccHGOiBE.s:1484   .text.coap_split_query:0000000000000048 .L0 
C:\Users\stapi\AppData\Local\Temp\ccHGOiBE.s:1486   .text.coap_split_query:0000000000000050 .L0 
C:\Users\stapi\AppData\Local\Temp\ccHGOiBE.s:1487   .text.coap_split_query:0000000000000050 .L0 
C:\Users\stapi\AppData\Local\Temp\ccHGOiBE.s:1488   .text.coap_split_query:0000000000000050 .L0 
C:\Users\stapi\AppData\Local\Temp\ccHGOiBE.s:1489   .text.coap_split_query:0000000000000050 .L0 
C:\Users\stapi\AppData\Local\Temp\ccHGOiBE.s:1490   .text.coap_split_query:0000000000000050 .L0 
C:\Users\stapi\AppData\Local\Temp\ccHGOiBE.s:1491   .text.coap_split_query:0000000000000050 .L0 
C:\Users\stapi\AppData\Local\Temp\ccHGOiBE.s:1492   .text.coap_split_query:0000000000000050 .L0 
C:\Users\stapi\AppData\Local\Temp\ccHGOiBE.s:1495   .text.coap_split_query:0000000000000050 .L0 
C:\Users\stapi\AppData\Local\Temp\ccHGOiBE.s:1497   .text.coap_split_query:0000000000000050 .L0 
C:\Users\stapi\AppData\Local\Temp\ccHGOiBE.s:1498   .text.coap_split_query:0000000000000050 .L0 
C:\Users\stapi\AppData\Local\Temp\ccHGOiBE.s:1500   .text.coap_split_query:0000000000000054 .L0 
C:\Users\stapi\AppData\Local\Temp\ccHGOiBE.s:1502   .text.coap_split_query:0000000000000058 .L0 
C:\Users\stapi\AppData\Local\Temp\ccHGOiBE.s:1507   .text.coap_split_query:0000000000000066 .L0 
C:\Users\stapi\AppData\Local\Temp\ccHGOiBE.s:1508   .text.coap_split_query:0000000000000066 .L0 
C:\Users\stapi\AppData\Local\Temp\ccHGOiBE.s:1512   .text.coap_split_query:0000000000000068 .L0 
C:\Users\stapi\AppData\Local\Temp\ccHGOiBE.s:1513   .text.coap_split_query:0000000000000068 .L0 
C:\Users\stapi\AppData\Local\Temp\ccHGOiBE.s:1514   .text.coap_split_query:0000000000000068 .L0 
C:\Users\stapi\AppData\Local\Temp\ccHGOiBE.s:1516   .text.coap_split_query:000000000000006c .L0 
C:\Users\stapi\AppData\Local\Temp\ccHGOiBE.s:1530   .text.coap_uri_into_options:0000000000000000 coap_uri_into_options
C:\Users\stapi\AppData\Local\Temp\ccHGOiBE.s:1533   .text.coap_uri_into_options:0000000000000000 .L0 
C:\Users\stapi\AppData\Local\Temp\ccHGOiBE.s:1535   .text.coap_uri_into_options:0000000000000000 .L0 
C:\Users\stapi\AppData\Local\Temp\ccHGOiBE.s:1536   .text.coap_uri_into_options:0000000000000008 .L0 
C:\Users\stapi\AppData\Local\Temp\ccHGOiBE.s:1537   .text.coap_uri_into_options:0000000000000008 .L0 
C:\Users\stapi\AppData\Local\Temp\ccHGOiBE.s:1538   .text.coap_uri_into_options:0000000000000008 .L0 
C:\Users\stapi\AppData\Local\Temp\ccHGOiBE.s:1539   .text.coap_uri_into_options:0000000000000008 .L0 
C:\Users\stapi\AppData\Local\Temp\ccHGOiBE.s:1540   .text.coap_uri_into_options:0000000000000008 .L0 
C:\Users\stapi\AppData\Local\Temp\ccHGOiBE.s:1541   .text.coap_uri_into_options:0000000000000008 .L0 
C:\Users\stapi\AppData\Local\Temp\ccHGOiBE.s:1542   .text.coap_uri_into_options:0000000000000008 .L0 
C:\Users\stapi\AppData\Local\Temp\ccHGOiBE.s:1543   .text.coap_uri_into_options:0000000000000008 .L0 
C:\Users\stapi\AppData\Local\Temp\ccHGOiBE.s:1544   .text.coap_uri_into_options:0000000000000008 .L0 
C:\Users\stapi\AppData\Local\Temp\ccHGOiBE.s:1546   .text.coap_uri_into_options:0000000000000008 .L0 
C:\Users\stapi\AppData\Local\Temp\ccHGOiBE.s:1547   .text.coap_uri_into_options:0000000000000008 .L0 
C:\Users\stapi\AppData\Local\Temp\ccHGOiBE.s:1548   .text.coap_uri_into_options:0000000000000008 .L0 
C:\Users\stapi\AppData\Local\Temp\ccHGOiBE.s:1549   .text.coap_uri_into_options:000000000000000a .L0 
C:\Users\stapi\AppData\Local\Temp\ccHGOiBE.s:1551   .text.coap_uri_into_options:000000000000000a .L0 
C:\Users\stapi\AppData\Local\Temp\ccHGOiBE.s:1553   .text.coap_uri_into_options:000000000000000c .L0 
C:\Users\stapi\AppData\Local\Temp\ccHGOiBE.s:1558   .text.coap_uri_into_options:0000000000000012 .L0 
C:\Users\stapi\AppData\Local\Temp\ccHGOiBE.s:1559   .text.coap_uri_into_options:0000000000000012 .L0 
C:\Users\stapi\AppData\Local\Temp\ccHGOiBE.s:1560   .text.coap_uri_into_options:0000000000000012 .L0 
C:\Users\stapi\AppData\Local\Temp\ccHGOiBE.s:1562   .text.coap_uri_into_options:0000000000000014 .L0 
C:\Users\stapi\AppData\Local\Temp\ccHGOiBE.s:1565   .text.coap_uri_into_options:0000000000000018 .L0 
C:\Users\stapi\AppData\Local\Temp\ccHGOiBE.s:1568   .text.coap_uri_into_options:0000000000000020 .L0 
C:\Users\stapi\AppData\Local\Temp\ccHGOiBE.s:1572   .text.coap_uri_into_options:0000000000000022 .L0 
C:\Users\stapi\AppData\Local\Temp\ccHGOiBE.s:1573   .text.coap_uri_into_options:0000000000000022 .L0 
C:\Users\stapi\AppData\Local\Temp\ccHGOiBE.s:1574   .text.coap_uri_into_options:0000000000000022 .L0 
C:\Users\stapi\AppData\Local\Temp\ccHGOiBE.s:1576   .text.coap_uri_into_options:0000000000000026 .L0 
C:\Users\stapi\AppData\Local\Temp\ccHGOiBE.s:1578   .text.coap_uri_into_options:0000000000000028 .L0 
C:\Users\stapi\AppData\Local\Temp\ccHGOiBE.s:1581   .text.coap_uri_into_options:000000000000002a .L0 
C:\Users\stapi\AppData\Local\Temp\ccHGOiBE.s:1583   .text.coap_uri_into_options:000000000000002a .L0 
C:\Users\stapi\AppData\Local\Temp\ccHGOiBE.s:1584   .text.coap_uri_into_options:000000000000002a .L0 
C:\Users\stapi\AppData\Local\Temp\ccHGOiBE.s:1585   .text.coap_uri_into_options:000000000000002a .L0 
C:\Users\stapi\AppData\Local\Temp\ccHGOiBE.s:1589   .text.coap_uri_into_options:000000000000002c .L0 
C:\Users\stapi\AppData\Local\Temp\ccHGOiBE.s:1590   .text.coap_uri_into_options:000000000000002c .L0 
C:\Users\stapi\AppData\Local\Temp\ccHGOiBE.s:1591   .text.coap_uri_into_options:000000000000002c .L0 
C:\Users\stapi\AppData\Local\Temp\ccHGOiBE.s:1592   .text.coap_uri_into_options:000000000000002c .L0 
C:\Users\stapi\AppData\Local\Temp\ccHGOiBE.s:1594   .text.coap_uri_into_options:000000000000002e .L0 
C:\Users\stapi\AppData\Local\Temp\ccHGOiBE.s:1598   .text.coap_uri_into_options:0000000000000032 .L0 
C:\Users\stapi\AppData\Local\Temp\ccHGOiBE.s:1599   .text.coap_uri_into_options:0000000000000032 .L0 
C:\Users\stapi\AppData\Local\Temp\ccHGOiBE.s:1601   .text.coap_uri_into_options:0000000000000036 .L0 
C:\Users\stapi\AppData\Local\Temp\ccHGOiBE.s:1604   .text.coap_uri_into_options:000000000000003e .L0 
C:\Users\stapi\AppData\Local\Temp\ccHGOiBE.s:1605   .text.coap_uri_into_options:000000000000003e .L0 
C:\Users\stapi\AppData\Local\Temp\ccHGOiBE.s:1608   .text.coap_uri_into_options:0000000000000040 .L0 
C:\Users\stapi\AppData\Local\Temp\ccHGOiBE.s:1609   .text.coap_uri_into_options:0000000000000040 .L0 
C:\Users\stapi\AppData\Local\Temp\ccHGOiBE.s:1614   .text.coap_uri_into_options:0000000000000044 .L0 
C:\Users\stapi\AppData\Local\Temp\ccHGOiBE.s:1615   .text.coap_uri_into_options:0000000000000044 .L0 
C:\Users\stapi\AppData\Local\Temp\ccHGOiBE.s:1621   .text.coap_uri_into_options:0000000000000054 .L0 
C:\Users\stapi\AppData\Local\Temp\ccHGOiBE.s:1623   .text.coap_uri_into_options:0000000000000056 .L0 
C:\Users\stapi\AppData\Local\Temp\ccHGOiBE.s:1627   .text.coap_uri_into_options:0000000000000060 .L0 
C:\Users\stapi\AppData\Local\Temp\ccHGOiBE.s:1630   .text.coap_uri_into_options:0000000000000064 .L0 
C:\Users\stapi\AppData\Local\Temp\ccHGOiBE.s:1632   .text.coap_uri_into_options:0000000000000068 .L0 
C:\Users\stapi\AppData\Local\Temp\ccHGOiBE.s:1638   .text.coap_uri_into_options:0000000000000076 .L0 
C:\Users\stapi\AppData\Local\Temp\ccHGOiBE.s:1641   .text.coap_uri_into_options:0000000000000078 .L0 
C:\Users\stapi\AppData\Local\Temp\ccHGOiBE.s:1653   .text.coap_uri_into_options:0000000000000092 .L0 
C:\Users\stapi\AppData\Local\Temp\ccHGOiBE.s:1654   .text.coap_uri_into_options:0000000000000092 .L0 
C:\Users\stapi\AppData\Local\Temp\ccHGOiBE.s:1656   .text.coap_uri_into_options:0000000000000094 .L0 
C:\Users\stapi\AppData\Local\Temp\ccHGOiBE.s:1658   .text.coap_uri_into_options:0000000000000096 .L0 
C:\Users\stapi\AppData\Local\Temp\ccHGOiBE.s:1660   .text.coap_uri_into_options:000000000000009a .L0 
C:\Users\stapi\AppData\Local\Temp\ccHGOiBE.s:1672   .text.coap_uri_into_options:00000000000000ae .L0 
C:\Users\stapi\AppData\Local\Temp\ccHGOiBE.s:1673   .text.coap_uri_into_options:00000000000000ae .L0 
C:\Users\stapi\AppData\Local\Temp\ccHGOiBE.s:1674   .text.coap_uri_into_options:00000000000000ae .L0 
C:\Users\stapi\AppData\Local\Temp\ccHGOiBE.s:1676   .text.coap_uri_into_options:00000000000000b0 .L0 
C:\Users\stapi\AppData\Local\Temp\ccHGOiBE.s:1678   .text.coap_uri_into_options:00000000000000b2 .L0 
C:\Users\stapi\AppData\Local\Temp\ccHGOiBE.s:1683   .text.coap_uri_into_options:00000000000000b8 .L0 
C:\Users\stapi\AppData\Local\Temp\ccHGOiBE.s:1687   .text.coap_uri_into_options:00000000000000bc .L0 
C:\Users\stapi\AppData\Local\Temp\ccHGOiBE.s:1704   .text.coap_uri_into_options:00000000000000e4 .L0 
C:\Users\stapi\AppData\Local\Temp\ccHGOiBE.s:1708   .text.coap_uri_into_options:00000000000000e8 .L0 
C:\Users\stapi\AppData\Local\Temp\ccHGOiBE.s:1709   .text.coap_uri_into_options:00000000000000e8 .L0 
C:\Users\stapi\AppData\Local\Temp\ccHGOiBE.s:1712   .text.coap_uri_into_options:00000000000000ec .L0 
C:\Users\stapi\AppData\Local\Temp\ccHGOiBE.s:1717   .text.coap_uri_into_options:00000000000000f0 .L0 
C:\Users\stapi\AppData\Local\Temp\ccHGOiBE.s:1718   .text.coap_uri_into_options:00000000000000f0 .L0 
C:\Users\stapi\AppData\Local\Temp\ccHGOiBE.s:1720   .text.coap_uri_into_options:00000000000000f2 .L0 
C:\Users\stapi\AppData\Local\Temp\ccHGOiBE.s:1724   .text.coap_uri_into_options:00000000000000f4 .L0 
C:\Users\stapi\AppData\Local\Temp\ccHGOiBE.s:1725   .text.coap_uri_into_options:00000000000000f4 .L0 
C:\Users\stapi\AppData\Local\Temp\ccHGOiBE.s:1727   .text.coap_uri_into_options:00000000000000f6 .L0 
C:\Users\stapi\AppData\Local\Temp\ccHGOiBE.s:1731   .text.coap_uri_into_options:00000000000000f8 .L0 
C:\Users\stapi\AppData\Local\Temp\ccHGOiBE.s:1737   .text.coap_uri_into_options:00000000000000fc .L0 
C:\Users\stapi\AppData\Local\Temp\ccHGOiBE.s:1738   .text.coap_uri_into_options:00000000000000fc .L0 
C:\Users\stapi\AppData\Local\Temp\ccHGOiBE.s:1744   .text.coap_uri_into_options:0000000000000102 .L0 
C:\Users\stapi\AppData\Local\Temp\ccHGOiBE.s:1745   .text.coap_uri_into_options:0000000000000102 .L0 
C:\Users\stapi\AppData\Local\Temp\ccHGOiBE.s:1748   .text.coap_uri_into_options:0000000000000108 .L0 
C:\Users\stapi\AppData\Local\Temp\ccHGOiBE.s:1749   .text.coap_uri_into_options:0000000000000108 .L0 
C:\Users\stapi\AppData\Local\Temp\ccHGOiBE.s:1754   .text.coap_uri_into_options:0000000000000116 .L0 
C:\Users\stapi\AppData\Local\Temp\ccHGOiBE.s:1762   .text.coap_uri_into_options:000000000000012a .L0 
C:\Users\stapi\AppData\Local\Temp\ccHGOiBE.s:1763   .text.coap_uri_into_options:000000000000012a .L0 
C:\Users\stapi\AppData\Local\Temp\ccHGOiBE.s:1764   .text.coap_uri_into_options:000000000000012a .L0 
C:\Users\stapi\AppData\Local\Temp\ccHGOiBE.s:1773   .text.coap_uri_into_options:000000000000013c .L0 
C:\Users\stapi\AppData\Local\Temp\ccHGOiBE.s:1774   .text.coap_uri_into_options:000000000000013c .L0 
C:\Users\stapi\AppData\Local\Temp\ccHGOiBE.s:1776   .text.coap_uri_into_options:000000000000013e .L0 
C:\Users\stapi\AppData\Local\Temp\ccHGOiBE.s:1778   .text.coap_uri_into_options:0000000000000140 .L0 
C:\Users\stapi\AppData\Local\Temp\ccHGOiBE.s:1782   .text.coap_uri_into_options:0000000000000144 .L0 
C:\Users\stapi\AppData\Local\Temp\ccHGOiBE.s:1786   .text.coap_uri_into_options:0000000000000146 .L0 
C:\Users\stapi\AppData\Local\Temp\ccHGOiBE.s:1787   .text.coap_uri_into_options:0000000000000148 .L0 
C:\Users\stapi\AppData\Local\Temp\ccHGOiBE.s:1788   .text.coap_uri_into_options:0000000000000148 .L0 
C:\Users\stapi\AppData\Local\Temp\ccHGOiBE.s:1790   .text.coap_uri_into_options:0000000000000150 .L0 
C:\Users\stapi\AppData\Local\Temp\ccHGOiBE.s:1791   .text.coap_uri_into_options:0000000000000150 .L0 
C:\Users\stapi\AppData\Local\Temp\ccHGOiBE.s:1792   .text.coap_uri_into_options:0000000000000150 .L0 
C:\Users\stapi\AppData\Local\Temp\ccHGOiBE.s:1793   .text.coap_uri_into_options:0000000000000150 .L0 
C:\Users\stapi\AppData\Local\Temp\ccHGOiBE.s:1794   .text.coap_uri_into_options:0000000000000150 .L0 
C:\Users\stapi\AppData\Local\Temp\ccHGOiBE.s:1795   .text.coap_uri_into_options:0000000000000150 .L0 
C:\Users\stapi\AppData\Local\Temp\ccHGOiBE.s:1796   .text.coap_uri_into_options:0000000000000150 .L0 
C:\Users\stapi\AppData\Local\Temp\ccHGOiBE.s:1797   .text.coap_uri_into_options:0000000000000150 .L0 
C:\Users\stapi\AppData\Local\Temp\ccHGOiBE.s:1798   .text.coap_uri_into_options:0000000000000150 .L0 
C:\Users\stapi\AppData\Local\Temp\ccHGOiBE.s:1801   .text.coap_uri_into_options:0000000000000150 .L0 
C:\Users\stapi\AppData\Local\Temp\ccHGOiBE.s:1803   .text.coap_uri_into_options:0000000000000150 .L0 
C:\Users\stapi\AppData\Local\Temp\ccHGOiBE.s:1804   .text.coap_uri_into_options:0000000000000150 .L0 
C:\Users\stapi\AppData\Local\Temp\ccHGOiBE.s:1809   .text.coap_uri_into_options:000000000000015c .L0 
C:\Users\stapi\AppData\Local\Temp\ccHGOiBE.s:1822   .text.coap_uri_into_options:0000000000000180 .L0 
C:\Users\stapi\AppData\Local\Temp\ccHGOiBE.s:1823   .text.coap_uri_into_options:0000000000000180 .L0 
C:\Users\stapi\AppData\Local\Temp\ccHGOiBE.s:1827   .text.coap_uri_into_options:000000000000018a .L0 
C:\Users\stapi\AppData\Local\Temp\ccHGOiBE.s:1831   .text.coap_uri_into_options:000000000000018c .L0 
C:\Users\stapi\AppData\Local\Temp\ccHGOiBE.s:1832   .text.coap_uri_into_options:000000000000018c .L0 
C:\Users\stapi\AppData\Local\Temp\ccHGOiBE.s:1835   .text.coap_uri_into_options:000000000000018e .L0 
C:\Users\stapi\AppData\Local\Temp\ccHGOiBE.s:1840   .text.coap_uri_into_options:0000000000000194 .L0 
C:\Users\stapi\AppData\Local\Temp\ccHGOiBE.s:1841   .text.coap_uri_into_options:0000000000000194 .L0 
C:\Users\stapi\AppData\Local\Temp\ccHGOiBE.s:1844   .text.coap_uri_into_options:0000000000000196 .L0 
C:\Users\stapi\AppData\Local\Temp\ccHGOiBE.s:1845   .text.coap_uri_into_options:0000000000000196 .L0 
C:\Users\stapi\AppData\Local\Temp\ccHGOiBE.s:1846   .text.coap_uri_into_options:0000000000000196 .L0 
C:\Users\stapi\AppData\Local\Temp\ccHGOiBE.s:1848   .text.coap_uri_into_options:000000000000019a .L0 
C:\Users\stapi\AppData\Local\Temp\ccHGOiBE.s:1849   .text.coap_uri_into_options:000000000000019a .L0 
C:\Users\stapi\AppData\Local\Temp\ccHGOiBE.s:1854   .text.coap_uri_into_options:00000000000001a8 .L0 
C:\Users\stapi\AppData\Local\Temp\ccHGOiBE.s:1862   .text.coap_uri_into_options:00000000000001bc .L0 
C:\Users\stapi\AppData\Local\Temp\ccHGOiBE.s:1863   .text.coap_uri_into_options:00000000000001bc .L0 
C:\Users\stapi\AppData\Local\Temp\ccHGOiBE.s:1864   .text.coap_uri_into_options:00000000000001bc .L0 
C:\Users\stapi\AppData\Local\Temp\ccHGOiBE.s:1873   .text.coap_uri_into_options:00000000000001ce .L0 
C:\Users\stapi\AppData\Local\Temp\ccHGOiBE.s:1874   .text.coap_uri_into_options:00000000000001ce .L0 
C:\Users\stapi\AppData\Local\Temp\ccHGOiBE.s:1876   .text.coap_uri_into_options:00000000000001d2 .L0 
C:\Users\stapi\AppData\Local\Temp\ccHGOiBE.s:1880   .text.coap_uri_into_options:00000000000001d4 .L0 
C:\Users\stapi\AppData\Local\Temp\ccHGOiBE.s:1881   .text.coap_uri_into_options:00000000000001d4 .L0 
C:\Users\stapi\AppData\Local\Temp\ccHGOiBE.s:1884   .text.coap_uri_into_options:00000000000001d6 .L0 
C:\Users\stapi\AppData\Local\Temp\ccHGOiBE.s:1886   .text.coap_uri_into_options:00000000000001da .L0 
C:\Users\stapi\AppData\Local\Temp\ccHGOiBE.s:1887   .text.coap_uri_into_options:00000000000001da .L0 
C:\Users\stapi\AppData\Local\Temp\ccHGOiBE.s:1892   .text.coap_uri_into_options:00000000000001e6 .L0 
C:\Users\stapi\AppData\Local\Temp\ccHGOiBE.s:1905   .text.coap_uri_into_options:000000000000020a .L0 
C:\Users\stapi\AppData\Local\Temp\ccHGOiBE.s:1906   .text.coap_uri_into_options:000000000000020a .L0 
C:\Users\stapi\AppData\Local\Temp\ccHGOiBE.s:1910   .text.coap_uri_into_options:0000000000000214 .L0 
C:\Users\stapi\AppData\Local\Temp\ccHGOiBE.s:1913   .text.coap_uri_into_options:0000000000000218 .L0 
C:\Users\stapi\AppData\Local\Temp\ccHGOiBE.s:1920   .text.coap_new_uri:0000000000000000 coap_new_uri
C:\Users\stapi\AppData\Local\Temp\ccHGOiBE.s:1923   .text.coap_new_uri:0000000000000000 .L0 
C:\Users\stapi\AppData\Local\Temp\ccHGOiBE.s:1925   .text.coap_new_uri:0000000000000000 .L0 
C:\Users\stapi\AppData\Local\Temp\ccHGOiBE.s:1926   .text.coap_new_uri:0000000000000008 .L0 
C:\Users\stapi\AppData\Local\Temp\ccHGOiBE.s:1927   .text.coap_new_uri:0000000000000008 .L0 
C:\Users\stapi\AppData\Local\Temp\ccHGOiBE.s:1928   .text.coap_new_uri:0000000000000008 .L0 
C:\Users\stapi\AppData\Local\Temp\ccHGOiBE.s:1929   .text.coap_new_uri:0000000000000008 .L0 
C:\Users\stapi\AppData\Local\Temp\ccHGOiBE.s:1930   .text.coap_new_uri:0000000000000008 .L0 
C:\Users\stapi\AppData\Local\Temp\ccHGOiBE.s:1932   .text.coap_new_uri:0000000000000008 .L0 
C:\Users\stapi\AppData\Local\Temp\ccHGOiBE.s:1933   .text.coap_new_uri:0000000000000008 .L0 
C:\Users\stapi\AppData\Local\Temp\ccHGOiBE.s:1934   .text.coap_new_uri:0000000000000008 .L0 
C:\Users\stapi\AppData\Local\Temp\ccHGOiBE.s:1937   .text.coap_new_uri:000000000000000c .L0 
C:\Users\stapi\AppData\Local\Temp\ccHGOiBE.s:1946   .text.coap_new_uri:000000000000001c .L0 
C:\Users\stapi\AppData\Local\Temp\ccHGOiBE.s:1947   .text.coap_new_uri:000000000000001c .L0 
C:\Users\stapi\AppData\Local\Temp\ccHGOiBE.s:1949   .text.coap_new_uri:000000000000001e .L0 
C:\Users\stapi\AppData\Local\Temp\ccHGOiBE.s:1950   .text.coap_new_uri:000000000000001e .L0 
C:\Users\stapi\AppData\Local\Temp\ccHGOiBE.s:1952   .text.coap_new_uri:0000000000000022 .L0 
C:\Users\stapi\AppData\Local\Temp\ccHGOiBE.s:1958   .text.coap_new_uri:0000000000000030 .L0 
C:\Users\stapi\AppData\Local\Temp\ccHGOiBE.s:1959   .text.coap_new_uri:0000000000000030 .L0 
C:\Users\stapi\AppData\Local\Temp\ccHGOiBE.s:1962   .text.coap_new_uri:0000000000000038 .L0 
C:\Users\stapi\AppData\Local\Temp\ccHGOiBE.s:1963   .text.coap_new_uri:0000000000000038 .L0 
C:\Users\stapi\AppData\Local\Temp\ccHGOiBE.s:1968   .text.coap_new_uri:0000000000000044 .L0 
C:\Users\stapi\AppData\Local\Temp\ccHGOiBE.s:1970   .text.coap_new_uri:0000000000000048 .L0 
C:\Users\stapi\AppData\Local\Temp\ccHGOiBE.s:1975   .text.coap_new_uri:0000000000000054 .L0 
C:\Users\stapi\AppData\Local\Temp\ccHGOiBE.s:1976   .text.coap_new_uri:0000000000000054 .L0 
C:\Users\stapi\AppData\Local\Temp\ccHGOiBE.s:1980   .text.coap_new_uri:0000000000000056 .L0 
C:\Users\stapi\AppData\Local\Temp\ccHGOiBE.s:1982   .text.coap_new_uri:0000000000000060 .L0 
C:\Users\stapi\AppData\Local\Temp\ccHGOiBE.s:1983   .text.coap_new_uri:0000000000000060 .L0 
C:\Users\stapi\AppData\Local\Temp\ccHGOiBE.s:1984   .text.coap_new_uri:0000000000000060 .L0 
C:\Users\stapi\AppData\Local\Temp\ccHGOiBE.s:1985   .text.coap_new_uri:0000000000000060 .L0 
C:\Users\stapi\AppData\Local\Temp\ccHGOiBE.s:1986   .text.coap_new_uri:0000000000000060 .L0 
C:\Users\stapi\AppData\Local\Temp\ccHGOiBE.s:1987   .text.coap_new_uri:0000000000000060 .L0 
C:\Users\stapi\AppData\Local\Temp\ccHGOiBE.s:1994   .text.coap_clone_uri:0000000000000000 coap_clone_uri
C:\Users\stapi\AppData\Local\Temp\ccHGOiBE.s:1997   .text.coap_clone_uri:0000000000000000 .L0 
C:\Users\stapi\AppData\Local\Temp\ccHGOiBE.s:1999   .text.coap_clone_uri:0000000000000000 .L0 
C:\Users\stapi\AppData\Local\Temp\ccHGOiBE.s:2000   .text.coap_clone_uri:0000000000000008 .L0 
C:\Users\stapi\AppData\Local\Temp\ccHGOiBE.s:2001   .text.coap_clone_uri:0000000000000008 .L0 
C:\Users\stapi\AppData\Local\Temp\ccHGOiBE.s:2002   .text.coap_clone_uri:0000000000000008 .L0 
C:\Users\stapi\AppData\Local\Temp\ccHGOiBE.s:2003   .text.coap_clone_uri:0000000000000008 .L0 
C:\Users\stapi\AppData\Local\Temp\ccHGOiBE.s:2005   .text.coap_clone_uri:0000000000000008 .L0 
C:\Users\stapi\AppData\Local\Temp\ccHGOiBE.s:2006   .text.coap_clone_uri:0000000000000008 .L0 
C:\Users\stapi\AppData\Local\Temp\ccHGOiBE.s:2007   .text.coap_clone_uri:0000000000000008 .L0 
C:\Users\stapi\AppData\Local\Temp\ccHGOiBE.s:2008   .text.coap_clone_uri:0000000000000008 .L0 
C:\Users\stapi\AppData\Local\Temp\ccHGOiBE.s:2012   .text.coap_clone_uri:000000000000000a .L0 
C:\Users\stapi\AppData\Local\Temp\ccHGOiBE.s:2015   .text.coap_clone_uri:000000000000000c .L0 
C:\Users\stapi\AppData\Local\Temp\ccHGOiBE.s:2017   .text.coap_clone_uri:0000000000000016 .L0 
C:\Users\stapi\AppData\Local\Temp\ccHGOiBE.s:2018   .text.coap_clone_uri:0000000000000016 .L0 
C:\Users\stapi\AppData\Local\Temp\ccHGOiBE.s:2019   .text.coap_clone_uri:0000000000000016 .L0 
C:\Users\stapi\AppData\Local\Temp\ccHGOiBE.s:2020   .text.coap_clone_uri:0000000000000016 .L0 
C:\Users\stapi\AppData\Local\Temp\ccHGOiBE.s:2021   .text.coap_clone_uri:0000000000000016 .L0 
C:\Users\stapi\AppData\Local\Temp\ccHGOiBE.s:2024   .text.coap_clone_uri:0000000000000016 .L0 
C:\Users\stapi\AppData\Local\Temp\ccHGOiBE.s:2026   .text.coap_clone_uri:0000000000000016 .L0 
C:\Users\stapi\AppData\Local\Temp\ccHGOiBE.s:2030   .text.coap_clone_uri:000000000000001c .L0 
C:\Users\stapi\AppData\Local\Temp\ccHGOiBE.s:2031   .text.coap_clone_uri:000000000000001c .L0 
C:\Users\stapi\AppData\Local\Temp\ccHGOiBE.s:2033   .text.coap_clone_uri:000000000000001e .L0 
C:\Users\stapi\AppData\Local\Temp\ccHGOiBE.s:2043   .text.coap_clone_uri:0000000000000032 .L0 
C:\Users\stapi\AppData\Local\Temp\ccHGOiBE.s:2044   .text.coap_clone_uri:0000000000000032 .L0 
C:\Users\stapi\AppData\Local\Temp\ccHGOiBE.s:2046   .text.coap_clone_uri:0000000000000034 .L0 
C:\Users\stapi\AppData\Local\Temp\ccHGOiBE.s:2051   .text.coap_clone_uri:0000000000000042 .L0 
C:\Users\stapi\AppData\Local\Temp\ccHGOiBE.s:2052   .text.coap_clone_uri:0000000000000042 .L0 
C:\Users\stapi\AppData\Local\Temp\ccHGOiBE.s:2054   .text.coap_clone_uri:0000000000000046 .L0 
C:\Users\stapi\AppData\Local\Temp\ccHGOiBE.s:2056   .text.coap_clone_uri:000000000000004a .L0 
C:\Users\stapi\AppData\Local\Temp\ccHGOiBE.s:2057   .text.coap_clone_uri:000000000000004a .L0 
C:\Users\stapi\AppData\Local\Temp\ccHGOiBE.s:2059   .text.coap_clone_uri:000000000000004c .L0 
C:\Users\stapi\AppData\Local\Temp\ccHGOiBE.s:2061   .text.coap_clone_uri:000000000000004e .L0 
C:\Users\stapi\AppData\Local\Temp\ccHGOiBE.s:2062   .text.coap_clone_uri:000000000000004e .L0 
C:\Users\stapi\AppData\Local\Temp\ccHGOiBE.s:2065   .text.coap_clone_uri:0000000000000052 .L0 
C:\Users\stapi\AppData\Local\Temp\ccHGOiBE.s:2067   .text.coap_clone_uri:0000000000000054 .L0 
C:\Users\stapi\AppData\Local\Temp\ccHGOiBE.s:2068   .text.coap_clone_uri:0000000000000054 .L0 
C:\Users\stapi\AppData\Local\Temp\ccHGOiBE.s:2070   .text.coap_clone_uri:0000000000000056 .L0 
C:\Users\stapi\AppData\Local\Temp\ccHGOiBE.s:2076   .text.coap_clone_uri:0000000000000062 .L0 
C:\Users\stapi\AppData\Local\Temp\ccHGOiBE.s:2077   .text.coap_clone_uri:0000000000000062 .L0 
C:\Users\stapi\AppData\Local\Temp\ccHGOiBE.s:2079   .text.coap_clone_uri:0000000000000064 .L0 
C:\Users\stapi\AppData\Local\Temp\ccHGOiBE.s:2081   .text.coap_clone_uri:0000000000000066 .L0 
C:\Users\stapi\AppData\Local\Temp\ccHGOiBE.s:2082   .text.coap_clone_uri:0000000000000066 .L0 
C:\Users\stapi\AppData\Local\Temp\ccHGOiBE.s:2084   .text.coap_clone_uri:0000000000000068 .L0 
C:\Users\stapi\AppData\Local\Temp\ccHGOiBE.s:2086   .text.coap_clone_uri:000000000000006a .L0 
C:\Users\stapi\AppData\Local\Temp\ccHGOiBE.s:2088   .text.coap_clone_uri:000000000000006c .L0 
C:\Users\stapi\AppData\Local\Temp\ccHGOiBE.s:2090   .text.coap_clone_uri:0000000000000070 .L0 
C:\Users\stapi\AppData\Local\Temp\ccHGOiBE.s:2093   .text.coap_clone_uri:0000000000000072 .L0 
C:\Users\stapi\AppData\Local\Temp\ccHGOiBE.s:2095   .text.coap_clone_uri:0000000000000074 .L0 
C:\Users\stapi\AppData\Local\Temp\ccHGOiBE.s:2096   .text.coap_clone_uri:0000000000000074 .L0 
C:\Users\stapi\AppData\Local\Temp\ccHGOiBE.s:2101   .text.coap_clone_uri:000000000000007e .L0 
C:\Users\stapi\AppData\Local\Temp\ccHGOiBE.s:2102   .text.coap_clone_uri:000000000000007e .L0 
C:\Users\stapi\AppData\Local\Temp\ccHGOiBE.s:2104   .text.coap_clone_uri:0000000000000080 .L0 
C:\Users\stapi\AppData\Local\Temp\ccHGOiBE.s:2106   .text.coap_clone_uri:0000000000000082 .L0 
C:\Users\stapi\AppData\Local\Temp\ccHGOiBE.s:2107   .text.coap_clone_uri:0000000000000082 .L0 
C:\Users\stapi\AppData\Local\Temp\ccHGOiBE.s:2110   .text.coap_clone_uri:0000000000000086 .L0 
C:\Users\stapi\AppData\Local\Temp\ccHGOiBE.s:2112   .text.coap_clone_uri:0000000000000088 .L0 
C:\Users\stapi\AppData\Local\Temp\ccHGOiBE.s:2114   .text.coap_clone_uri:000000000000008a .L0 
C:\Users\stapi\AppData\Local\Temp\ccHGOiBE.s:2117   .text.coap_clone_uri:0000000000000090 .L0 
C:\Users\stapi\AppData\Local\Temp\ccHGOiBE.s:2120   .text.coap_clone_uri:0000000000000092 .L0 
C:\Users\stapi\AppData\Local\Temp\ccHGOiBE.s:2122   .text.coap_clone_uri:0000000000000094 .L0 
C:\Users\stapi\AppData\Local\Temp\ccHGOiBE.s:2123   .text.coap_clone_uri:0000000000000094 .L0 
C:\Users\stapi\AppData\Local\Temp\ccHGOiBE.s:2127   .text.coap_clone_uri:00000000000000a0 .L0 
C:\Users\stapi\AppData\Local\Temp\ccHGOiBE.s:2134   .text.coap_delete_uri:0000000000000000 coap_delete_uri
C:\Users\stapi\AppData\Local\Temp\ccHGOiBE.s:2137   .text.coap_delete_uri:0000000000000000 .L0 
C:\Users\stapi\AppData\Local\Temp\ccHGOiBE.s:2139   .text.coap_delete_uri:0000000000000000 .L0 
C:\Users\stapi\AppData\Local\Temp\ccHGOiBE.s:2140   .text.coap_delete_uri:0000000000000000 .L0 
C:\Users\stapi\AppData\Local\Temp\ccHGOiBE.s:2141   .text.coap_delete_uri:0000000000000000 .L0 
C:\Users\stapi\AppData\Local\Temp\ccHGOiBE.s:2143   .text.coap_delete_uri:0000000000000002 .L0 
C:\Users\stapi\AppData\Local\Temp\ccHGOiBE.s:2147   .text.coap_delete_uri:000000000000000c .L0 
C:\Users\stapi\AppData\Local\Temp\ccHGOiBE.s:2154   .text.coap_get_query:0000000000000000 coap_get_query
C:\Users\stapi\AppData\Local\Temp\ccHGOiBE.s:2157   .text.coap_get_query:0000000000000000 .L0 
C:\Users\stapi\AppData\Local\Temp\ccHGOiBE.s:2159   .text.coap_get_query:0000000000000000 .L0 
C:\Users\stapi\AppData\Local\Temp\ccHGOiBE.s:2160   .text.coap_get_query:0000000000000008 .L0 
C:\Users\stapi\AppData\Local\Temp\ccHGOiBE.s:2161   .text.coap_get_query:0000000000000008 .L0 
C:\Users\stapi\AppData\Local\Temp\ccHGOiBE.s:2162   .text.coap_get_query:0000000000000008 .L0 
C:\Users\stapi\AppData\Local\Temp\ccHGOiBE.s:2163   .text.coap_get_query:0000000000000008 .L0 
C:\Users\stapi\AppData\Local\Temp\ccHGOiBE.s:2164   .text.coap_get_query:0000000000000008 .L0 
C:\Users\stapi\AppData\Local\Temp\ccHGOiBE.s:2165   .text.coap_get_query:0000000000000008 .L0 
C:\Users\stapi\AppData\Local\Temp\ccHGOiBE.s:2166   .text.coap_get_query:0000000000000008 .L0 
C:\Users\stapi\AppData\Local\Temp\ccHGOiBE.s:2167   .text.coap_get_query:0000000000000008 .L0 
C:\Users\stapi\AppData\Local\Temp\ccHGOiBE.s:2168   .text.coap_get_query:0000000000000008 .L0 
C:\Users\stapi\AppData\Local\Temp\ccHGOiBE.s:2169   .text.coap_get_query:0000000000000008 .L0 
C:\Users\stapi\AppData\Local\Temp\ccHGOiBE.s:2170   .text.coap_get_query:0000000000000008 .L0 
C:\Users\stapi\AppData\Local\Temp\ccHGOiBE.s:2171   .text.coap_get_query:0000000000000008 .L0 
C:\Users\stapi\AppData\Local\Temp\ccHGOiBE.s:2173   .text.coap_get_query:0000000000000008 .L0 
C:\Users\stapi\AppData\Local\Temp\ccHGOiBE.s:2174   .text.coap_get_query:0000000000000008 .L0 
C:\Users\stapi\AppData\Local\Temp\ccHGOiBE.s:2175   .text.coap_get_query:0000000000000008 .L0 
C:\Users\stapi\AppData\Local\Temp\ccHGOiBE.s:2177   .text.coap_get_query:0000000000000008 .L0 
C:\Users\stapi\AppData\Local\Temp\ccHGOiBE.s:2178   .text.coap_get_query:0000000000000008 .L0 
C:\Users\stapi\AppData\Local\Temp\ccHGOiBE.s:2179   .text.coap_get_query:0000000000000008 .L0 
C:\Users\stapi\AppData\Local\Temp\ccHGOiBE.s:2180   .text.coap_get_query:0000000000000008 .L0 
C:\Users\stapi\AppData\Local\Temp\ccHGOiBE.s:2181   .text.coap_get_query:0000000000000008 .L0 
C:\Users\stapi\AppData\Local\Temp\ccHGOiBE.s:2182   .text.coap_get_query:000000000000000a .L0 
C:\Users\stapi\AppData\Local\Temp\ccHGOiBE.s:2184   .text.coap_get_query:000000000000000a .L0 
C:\Users\stapi\AppData\Local\Temp\ccHGOiBE.s:2186   .text.coap_get_query:000000000000000c .L0 
C:\Users\stapi\AppData\Local\Temp\ccHGOiBE.s:2191   .text.coap_get_query:0000000000000016 .L0 
C:\Users\stapi\AppData\Local\Temp\ccHGOiBE.s:2196   .text.coap_get_query:0000000000000022 .L0 
C:\Users\stapi\AppData\Local\Temp\ccHGOiBE.s:2202   .text.coap_get_query:0000000000000030 .L0 
C:\Users\stapi\AppData\Local\Temp\ccHGOiBE.s:2203   .text.coap_get_query:0000000000000030 .L0 
C:\Users\stapi\AppData\Local\Temp\ccHGOiBE.s:2210   .text.coap_get_query:0000000000000032 .L0 
C:\Users\stapi\AppData\Local\Temp\ccHGOiBE.s:2219   .text.coap_get_query:0000000000000036 .L0 
C:\Users\stapi\AppData\Local\Temp\ccHGOiBE.s:2220   .text.coap_get_query:0000000000000036 .L0 
C:\Users\stapi\AppData\Local\Temp\ccHGOiBE.s:2226   .text.coap_get_query:0000000000000042 .L0 
C:\Users\stapi\AppData\Local\Temp\ccHGOiBE.s:2228   .text.coap_get_query:0000000000000044 .L0 
C:\Users\stapi\AppData\Local\Temp\ccHGOiBE.s:2229   .text.coap_get_query:0000000000000044 .L0 
C:\Users\stapi\AppData\Local\Temp\ccHGOiBE.s:2233   .text.coap_get_query:0000000000000046 .L0 
C:\Users\stapi\AppData\Local\Temp\ccHGOiBE.s:2237   .text.coap_get_query:0000000000000048 .L0 
C:\Users\stapi\AppData\Local\Temp\ccHGOiBE.s:2239   .text.coap_get_query:000000000000004c .L0 
C:\Users\stapi\AppData\Local\Temp\ccHGOiBE.s:2240   .text.coap_get_query:000000000000004c .L0 
C:\Users\stapi\AppData\Local\Temp\ccHGOiBE.s:2242   .text.coap_get_query:0000000000000054 .L0 
C:\Users\stapi\AppData\Local\Temp\ccHGOiBE.s:2243   .text.coap_get_query:0000000000000054 .L0 
C:\Users\stapi\AppData\Local\Temp\ccHGOiBE.s:2244   .text.coap_get_query:0000000000000054 .L0 
C:\Users\stapi\AppData\Local\Temp\ccHGOiBE.s:2245   .text.coap_get_query:0000000000000054 .L0 
C:\Users\stapi\AppData\Local\Temp\ccHGOiBE.s:2246   .text.coap_get_query:0000000000000054 .L0 
C:\Users\stapi\AppData\Local\Temp\ccHGOiBE.s:2247   .text.coap_get_query:0000000000000054 .L0 
C:\Users\stapi\AppData\Local\Temp\ccHGOiBE.s:2248   .text.coap_get_query:0000000000000054 .L0 
C:\Users\stapi\AppData\Local\Temp\ccHGOiBE.s:2249   .text.coap_get_query:0000000000000054 .L0 
C:\Users\stapi\AppData\Local\Temp\ccHGOiBE.s:2250   .text.coap_get_query:0000000000000054 .L0 
C:\Users\stapi\AppData\Local\Temp\ccHGOiBE.s:2251   .text.coap_get_query:0000000000000054 .L0 
C:\Users\stapi\AppData\Local\Temp\ccHGOiBE.s:2252   .text.coap_get_query:0000000000000054 .L0 
C:\Users\stapi\AppData\Local\Temp\ccHGOiBE.s:2253   .text.coap_get_query:0000000000000054 .L0 
C:\Users\stapi\AppData\Local\Temp\ccHGOiBE.s:2256   .text.coap_get_query:0000000000000054 .L0 
C:\Users\stapi\AppData\Local\Temp\ccHGOiBE.s:2259   .text.coap_get_query:0000000000000054 .L0 
C:\Users\stapi\AppData\Local\Temp\ccHGOiBE.s:2260   .text.coap_get_query:0000000000000054 .L0 
C:\Users\stapi\AppData\Local\Temp\ccHGOiBE.s:2263   .text.coap_get_query:000000000000005c .L0 
C:\Users\stapi\AppData\Local\Temp\ccHGOiBE.s:2266   .text.coap_get_query:0000000000000060 .L0 
C:\Users\stapi\AppData\Local\Temp\ccHGOiBE.s:2267   .text.coap_get_query:0000000000000060 .L0 
C:\Users\stapi\AppData\Local\Temp\ccHGOiBE.s:2273   .text.coap_get_query:000000000000006c .L0 
C:\Users\stapi\AppData\Local\Temp\ccHGOiBE.s:2277   .text.coap_get_query:000000000000006e .L0 
C:\Users\stapi\AppData\Local\Temp\ccHGOiBE.s:2278   .text.coap_get_query:000000000000006e .L0 
C:\Users\stapi\AppData\Local\Temp\ccHGOiBE.s:2281   .text.coap_get_query:0000000000000076 .L0 
C:\Users\stapi\AppData\Local\Temp\ccHGOiBE.s:2282   .text.coap_get_query:0000000000000076 .L0 
C:\Users\stapi\AppData\Local\Temp\ccHGOiBE.s:2287   .text.coap_get_query:000000000000007a .L0 
C:\Users\stapi\AppData\Local\Temp\ccHGOiBE.s:2288   .text.coap_get_query:000000000000007a .L0 
C:\Users\stapi\AppData\Local\Temp\ccHGOiBE.s:2294   .text.coap_get_query:0000000000000082 .L0 
C:\Users\stapi\AppData\Local\Temp\ccHGOiBE.s:2295   .text.coap_get_query:0000000000000082 .L0 
C:\Users\stapi\AppData\Local\Temp\ccHGOiBE.s:2299   .text.coap_get_query:000000000000008c .L0 
C:\Users\stapi\AppData\Local\Temp\ccHGOiBE.s:2304   .text.coap_get_query:000000000000008e .L0 
C:\Users\stapi\AppData\Local\Temp\ccHGOiBE.s:2312   .text.coap_get_query:0000000000000096 .L0 
C:\Users\stapi\AppData\Local\Temp\ccHGOiBE.s:2313   .text.coap_get_query:0000000000000096 .L0 
C:\Users\stapi\AppData\Local\Temp\ccHGOiBE.s:2317   .text.coap_get_query:0000000000000098 .L0 
C:\Users\stapi\AppData\Local\Temp\ccHGOiBE.s:2323   .text.coap_get_query:000000000000009c .L0 
C:\Users\stapi\AppData\Local\Temp\ccHGOiBE.s:2324   .text.coap_get_query:000000000000009c .L0 
C:\Users\stapi\AppData\Local\Temp\ccHGOiBE.s:2331   .text.coap_get_query:00000000000000a0 .L0 
C:\Users\stapi\AppData\Local\Temp\ccHGOiBE.s:2332   .text.coap_get_query:00000000000000a0 .L0 
C:\Users\stapi\AppData\Local\Temp\ccHGOiBE.s:2335   .text.coap_get_query:00000000000000a2 .L0 
C:\Users\stapi\AppData\Local\Temp\ccHGOiBE.s:2336   .text.coap_get_query:00000000000000a2 .L0 
C:\Users\stapi\AppData\Local\Temp\ccHGOiBE.s:2338   .text.coap_get_query:00000000000000a4 .L0 
C:\Users\stapi\AppData\Local\Temp\ccHGOiBE.s:2339   .text.coap_get_query:00000000000000a4 .L0 
C:\Users\stapi\AppData\Local\Temp\ccHGOiBE.s:2345   .text.coap_get_query:00000000000000b0 .L0 
C:\Users\stapi\AppData\Local\Temp\ccHGOiBE.s:2346   .text.coap_get_query:00000000000000b0 .L0 
C:\Users\stapi\AppData\Local\Temp\ccHGOiBE.s:2349   .text.coap_get_query:00000000000000b2 .L0 
C:\Users\stapi\AppData\Local\Temp\ccHGOiBE.s:2350   .text.coap_get_query:00000000000000b2 .L0 
C:\Users\stapi\AppData\Local\Temp\ccHGOiBE.s:2352   .text.coap_get_query:00000000000000b4 .L0 
C:\Users\stapi\AppData\Local\Temp\ccHGOiBE.s:2353   .text.coap_get_query:00000000000000b4 .L0 
C:\Users\stapi\AppData\Local\Temp\ccHGOiBE.s:2355   .text.coap_get_query:00000000000000b6 .L0 
C:\Users\stapi\AppData\Local\Temp\ccHGOiBE.s:2358   .text.coap_get_query:00000000000000b8 .L0 
C:\Users\stapi\AppData\Local\Temp\ccHGOiBE.s:2362   .text.coap_get_query:00000000000000bc .L0 
C:\Users\stapi\AppData\Local\Temp\ccHGOiBE.s:2365   .text.coap_get_query:00000000000000c0 .L0 
C:\Users\stapi\AppData\Local\Temp\ccHGOiBE.s:2369   .text.coap_get_query:00000000000000c8 .L0 
C:\Users\stapi\AppData\Local\Temp\ccHGOiBE.s:2370   .text.coap_get_query:00000000000000c8 .L0 
C:\Users\stapi\AppData\Local\Temp\ccHGOiBE.s:2376   .text.coap_get_query:00000000000000cc .L0 
C:\Users\stapi\AppData\Local\Temp\ccHGOiBE.s:2382   .text.coap_get_query:00000000000000d0 .L0 
C:\Users\stapi\AppData\Local\Temp\ccHGOiBE.s:2384   .text.coap_get_query:00000000000000d4 .L0 
C:\Users\stapi\AppData\Local\Temp\ccHGOiBE.s:2389   .text.coap_get_query:00000000000000d8 .L0 
C:\Users\stapi\AppData\Local\Temp\ccHGOiBE.s:2390   .text.coap_get_query:00000000000000d8 .L0 
C:\Users\stapi\AppData\Local\Temp\ccHGOiBE.s:2396   .text.coap_get_query:00000000000000e4 .L0 
C:\Users\stapi\AppData\Local\Temp\ccHGOiBE.s:2399   .text.coap_get_query:00000000000000e6 .L0 
C:\Users\stapi\AppData\Local\Temp\ccHGOiBE.s:2400   .text.coap_get_query:00000000000000e6 .L0 
C:\Users\stapi\AppData\Local\Temp\ccHGOiBE.s:2404   .text.coap_get_query:00000000000000ec .L0 
C:\Users\stapi\AppData\Local\Temp\ccHGOiBE.s:2405   .text.coap_get_query:00000000000000ec .L0 
C:\Users\stapi\AppData\Local\Temp\ccHGOiBE.s:2407   .text.coap_get_query:00000000000000f0 .L0 
C:\Users\stapi\AppData\Local\Temp\ccHGOiBE.s:2411   .text.coap_get_query:00000000000000f2 .L0 
C:\Users\stapi\AppData\Local\Temp\ccHGOiBE.s:2412   .text.coap_get_query:00000000000000f2 .L0 
C:\Users\stapi\AppData\Local\Temp\ccHGOiBE.s:2417   .text.coap_get_query:00000000000000fc .L0 
C:\Users\stapi\AppData\Local\Temp\ccHGOiBE.s:2420   .text.coap_get_query:0000000000000100 .L0 
C:\Users\stapi\AppData\Local\Temp\ccHGOiBE.s:2421   .text.coap_get_query:0000000000000100 .L0 
C:\Users\stapi\AppData\Local\Temp\ccHGOiBE.s:2427   .text.coap_get_query:000000000000010c .L0 
C:\Users\stapi\AppData\Local\Temp\ccHGOiBE.s:2431   .text.coap_get_query:000000000000010e .L0 
C:\Users\stapi\AppData\Local\Temp\ccHGOiBE.s:2432   .text.coap_get_query:000000000000010e .L0 
C:\Users\stapi\AppData\Local\Temp\ccHGOiBE.s:2436   .text.coap_get_query:000000000000011a .L0 
C:\Users\stapi\AppData\Local\Temp\ccHGOiBE.s:2437   .text.coap_get_query:000000000000011a .L0 
C:\Users\stapi\AppData\Local\Temp\ccHGOiBE.s:2442   .text.coap_get_query:000000000000011e .L0 
C:\Users\stapi\AppData\Local\Temp\ccHGOiBE.s:2443   .text.coap_get_query:000000000000011e .L0 
C:\Users\stapi\AppData\Local\Temp\ccHGOiBE.s:2447   .text.coap_get_query:0000000000000128 .L0 
C:\Users\stapi\AppData\Local\Temp\ccHGOiBE.s:2452   .text.coap_get_query:000000000000012a .L0 
C:\Users\stapi\AppData\Local\Temp\ccHGOiBE.s:2460   .text.coap_get_query:0000000000000132 .L0 
C:\Users\stapi\AppData\Local\Temp\ccHGOiBE.s:2461   .text.coap_get_query:0000000000000132 .L0 
C:\Users\stapi\AppData\Local\Temp\ccHGOiBE.s:2464   .text.coap_get_query:0000000000000136 .L0 
C:\Users\stapi\AppData\Local\Temp\ccHGOiBE.s:2465   .text.coap_get_query:0000000000000136 .L0 
C:\Users\stapi\AppData\Local\Temp\ccHGOiBE.s:2467   .text.coap_get_query:000000000000013a .L0 
C:\Users\stapi\AppData\Local\Temp\ccHGOiBE.s:2470   .text.coap_get_query:000000000000013c .L0 
C:\Users\stapi\AppData\Local\Temp\ccHGOiBE.s:2472   .text.coap_get_query:000000000000013e .L0 
C:\Users\stapi\AppData\Local\Temp\ccHGOiBE.s:2474   .text.coap_get_query:0000000000000140 .L0 
C:\Users\stapi\AppData\Local\Temp\ccHGOiBE.s:2478   .text.coap_get_query:0000000000000148 .L0 
C:\Users\stapi\AppData\Local\Temp\ccHGOiBE.s:2479   .text.coap_get_query:0000000000000148 .L0 
C:\Users\stapi\AppData\Local\Temp\ccHGOiBE.s:2482   .text.coap_get_query:000000000000014e .L0 
C:\Users\stapi\AppData\Local\Temp\ccHGOiBE.s:2484   .text.coap_get_query:0000000000000150 .L0 
C:\Users\stapi\AppData\Local\Temp\ccHGOiBE.s:2489   .text.coap_get_query:0000000000000158 .L0 
C:\Users\stapi\AppData\Local\Temp\ccHGOiBE.s:2495   .text.coap_get_query:000000000000015c .L0 
C:\Users\stapi\AppData\Local\Temp\ccHGOiBE.s:2496   .text.coap_get_query:000000000000015c .L0 
C:\Users\stapi\AppData\Local\Temp\ccHGOiBE.s:2498   .text.coap_get_query:0000000000000160 .L0 
C:\Users\stapi\AppData\Local\Temp\ccHGOiBE.s:2503   .text.coap_get_query:0000000000000164 .L0 
C:\Users\stapi\AppData\Local\Temp\ccHGOiBE.s:2510   .text.coap_get_uri_path:0000000000000000 coap_get_uri_path
C:\Users\stapi\AppData\Local\Temp\ccHGOiBE.s:2513   .text.coap_get_uri_path:0000000000000000 .L0 
C:\Users\stapi\AppData\Local\Temp\ccHGOiBE.s:2515   .text.coap_get_uri_path:0000000000000000 .L0 
C:\Users\stapi\AppData\Local\Temp\ccHGOiBE.s:2516   .text.coap_get_uri_path:0000000000000008 .L0 
C:\Users\stapi\AppData\Local\Temp\ccHGOiBE.s:2517   .text.coap_get_uri_path:0000000000000008 .L0 
C:\Users\stapi\AppData\Local\Temp\ccHGOiBE.s:2518   .text.coap_get_uri_path:0000000000000008 .L0 
C:\Users\stapi\AppData\Local\Temp\ccHGOiBE.s:2519   .text.coap_get_uri_path:0000000000000008 .L0 
C:\Users\stapi\AppData\Local\Temp\ccHGOiBE.s:2520   .text.coap_get_uri_path:0000000000000008 .L0 
C:\Users\stapi\AppData\Local\Temp\ccHGOiBE.s:2521   .text.coap_get_uri_path:0000000000000008 .L0 
C:\Users\stapi\AppData\Local\Temp\ccHGOiBE.s:2522   .text.coap_get_uri_path:0000000000000008 .L0 
C:\Users\stapi\AppData\Local\Temp\ccHGOiBE.s:2523   .text.coap_get_uri_path:0000000000000008 .L0 
C:\Users\stapi\AppData\Local\Temp\ccHGOiBE.s:2524   .text.coap_get_uri_path:0000000000000008 .L0 
C:\Users\stapi\AppData\Local\Temp\ccHGOiBE.s:2525   .text.coap_get_uri_path:0000000000000008 .L0 
C:\Users\stapi\AppData\Local\Temp\ccHGOiBE.s:2526   .text.coap_get_uri_path:0000000000000008 .L0 
C:\Users\stapi\AppData\Local\Temp\ccHGOiBE.s:2527   .text.coap_get_uri_path:0000000000000008 .L0 
C:\Users\stapi\AppData\Local\Temp\ccHGOiBE.s:2529   .text.coap_get_uri_path:0000000000000008 .L0 
C:\Users\stapi\AppData\Local\Temp\ccHGOiBE.s:2530   .text.coap_get_uri_path:0000000000000008 .L0 
C:\Users\stapi\AppData\Local\Temp\ccHGOiBE.s:2531   .text.coap_get_uri_path:0000000000000008 .L0 
C:\Users\stapi\AppData\Local\Temp\ccHGOiBE.s:2533   .text.coap_get_uri_path:0000000000000008 .L0 
C:\Users\stapi\AppData\Local\Temp\ccHGOiBE.s:2534   .text.coap_get_uri_path:0000000000000008 .L0 
C:\Users\stapi\AppData\Local\Temp\ccHGOiBE.s:2535   .text.coap_get_uri_path:0000000000000008 .L0 
C:\Users\stapi\AppData\Local\Temp\ccHGOiBE.s:2536   .text.coap_get_uri_path:0000000000000008 .L0 
C:\Users\stapi\AppData\Local\Temp\ccHGOiBE.s:2537   .text.coap_get_uri_path:0000000000000008 .L0 
C:\Users\stapi\AppData\Local\Temp\ccHGOiBE.s:2538   .text.coap_get_uri_path:000000000000000a .L0 
C:\Users\stapi\AppData\Local\Temp\ccHGOiBE.s:2540   .text.coap_get_uri_path:000000000000000a .L0 
C:\Users\stapi\AppData\Local\Temp\ccHGOiBE.s:2543   .text.coap_get_uri_path:0000000000000010 .L0 
C:\Users\stapi\AppData\Local\Temp\ccHGOiBE.s:2545   .text.coap_get_uri_path:0000000000000012 .L0 
C:\Users\stapi\AppData\Local\Temp\ccHGOiBE.s:2548   .text.coap_get_uri_path:000000000000001a .L0 
C:\Users\stapi\AppData\Local\Temp\ccHGOiBE.s:2549   .text.coap_get_uri_path:000000000000001a .L0 
C:\Users\stapi\AppData\Local\Temp\ccHGOiBE.s:2553   .text.coap_get_uri_path:000000000000001e .L0 
C:\Users\stapi\AppData\Local\Temp\ccHGOiBE.s:2554   .text.coap_get_uri_path:000000000000001e .L0 
C:\Users\stapi\AppData\Local\Temp\ccHGOiBE.s:2555   .text.coap_get_uri_path:000000000000001e .L0 
C:\Users\stapi\AppData\Local\Temp\ccHGOiBE.s:2559   .text.coap_get_uri_path:0000000000000028 .L0 
C:\Users\stapi\AppData\Local\Temp\ccHGOiBE.s:2564   .text.coap_get_uri_path:0000000000000034 .L0 
C:\Users\stapi\AppData\Local\Temp\ccHGOiBE.s:2569   .text.coap_get_uri_path:0000000000000040 .L0 
C:\Users\stapi\AppData\Local\Temp\ccHGOiBE.s:2572   .text.coap_get_uri_path:0000000000000042 .L0 
C:\Users\stapi\AppData\Local\Temp\ccHGOiBE.s:2574   .text.coap_get_uri_path:0000000000000046 .L0 
C:\Users\stapi\AppData\Local\Temp\ccHGOiBE.s:2575   .text.coap_get_uri_path:0000000000000046 .L0 
C:\Users\stapi\AppData\Local\Temp\ccHGOiBE.s:2581   .text.coap_get_uri_path:0000000000000052 .L0 
C:\Users\stapi\AppData\Local\Temp\ccHGOiBE.s:2582   .text.coap_get_uri_path:0000000000000052 .L0 
C:\Users\stapi\AppData\Local\Temp\ccHGOiBE.s:2584   .text.coap_get_uri_path:0000000000000054 .L0 
C:\Users\stapi\AppData\Local\Temp\ccHGOiBE.s:2592   .text.coap_get_uri_path:0000000000000062 .L0 
C:\Users\stapi\AppData\Local\Temp\ccHGOiBE.s:2594   .text.coap_get_uri_path:0000000000000066 .L0 
C:\Users\stapi\AppData\Local\Temp\ccHGOiBE.s:2595   .text.coap_get_uri_path:0000000000000066 .L0 
C:\Users\stapi\AppData\Local\Temp\ccHGOiBE.s:2597   .text.coap_get_uri_path:000000000000006e .L0 
C:\Users\stapi\AppData\Local\Temp\ccHGOiBE.s:2598   .text.coap_get_uri_path:000000000000006e .L0 
C:\Users\stapi\AppData\Local\Temp\ccHGOiBE.s:2599   .text.coap_get_uri_path:000000000000006e .L0 
C:\Users\stapi\AppData\Local\Temp\ccHGOiBE.s:2600   .text.coap_get_uri_path:000000000000006e .L0 
C:\Users\stapi\AppData\Local\Temp\ccHGOiBE.s:2601   .text.coap_get_uri_path:000000000000006e .L0 
C:\Users\stapi\AppData\Local\Temp\ccHGOiBE.s:2602   .text.coap_get_uri_path:000000000000006e .L0 
C:\Users\stapi\AppData\Local\Temp\ccHGOiBE.s:2603   .text.coap_get_uri_path:000000000000006e .L0 
C:\Users\stapi\AppData\Local\Temp\ccHGOiBE.s:2604   .text.coap_get_uri_path:000000000000006e .L0 
C:\Users\stapi\AppData\Local\Temp\ccHGOiBE.s:2605   .text.coap_get_uri_path:000000000000006e .L0 
C:\Users\stapi\AppData\Local\Temp\ccHGOiBE.s:2606   .text.coap_get_uri_path:000000000000006e .L0 
C:\Users\stapi\AppData\Local\Temp\ccHGOiBE.s:2607   .text.coap_get_uri_path:000000000000006e .L0 
C:\Users\stapi\AppData\Local\Temp\ccHGOiBE.s:2608   .text.coap_get_uri_path:000000000000006e .L0 
C:\Users\stapi\AppData\Local\Temp\ccHGOiBE.s:2611   .text.coap_get_uri_path:000000000000006e .L0 
C:\Users\stapi\AppData\Local\Temp\ccHGOiBE.s:2613   .text.coap_get_uri_path:000000000000006e .L0 
C:\Users\stapi\AppData\Local\Temp\ccHGOiBE.s:2618   .text.coap_get_uri_path:0000000000000078 .L0 
C:\Users\stapi\AppData\Local\Temp\ccHGOiBE.s:2623   .text.coap_get_uri_path:0000000000000084 .L0 
C:\Users\stapi\AppData\Local\Temp\ccHGOiBE.s:2629   .text.coap_get_uri_path:0000000000000092 .L0 
C:\Users\stapi\AppData\Local\Temp\ccHGOiBE.s:2630   .text.coap_get_uri_path:0000000000000092 .L0 
C:\Users\stapi\AppData\Local\Temp\ccHGOiBE.s:2634   .text.coap_get_uri_path:0000000000000094 .L0 
C:\Users\stapi\AppData\Local\Temp\ccHGOiBE.s:2635   .text.coap_get_uri_path:0000000000000094 .L0 
C:\Users\stapi\AppData\Local\Temp\ccHGOiBE.s:2641   .text.coap_get_uri_path:00000000000000a0 .L0 
C:\Users\stapi\AppData\Local\Temp\ccHGOiBE.s:2643   .text.coap_get_uri_path:00000000000000a2 .L0 
C:\Users\stapi\AppData\Local\Temp\ccHGOiBE.s:2644   .text.coap_get_uri_path:00000000000000a2 .L0 
C:\Users\stapi\AppData\Local\Temp\ccHGOiBE.s:2646   .text.coap_get_uri_path:00000000000000a4 .L0 
C:\Users\stapi\AppData\Local\Temp\ccHGOiBE.s:2647   .text.coap_get_uri_path:00000000000000a4 .L0 
C:\Users\stapi\AppData\Local\Temp\ccHGOiBE.s:2651   .text.coap_get_uri_path:00000000000000a6 .L0 
C:\Users\stapi\AppData\Local\Temp\ccHGOiBE.s:2652   .text.coap_get_uri_path:00000000000000a6 .L0 
C:\Users\stapi\AppData\Local\Temp\ccHGOiBE.s:2658   .text.coap_get_uri_path:00000000000000b2 .L0 
C:\Users\stapi\AppData\Local\Temp\ccHGOiBE.s:2659   .text.coap_get_uri_path:00000000000000b2 .L0 
C:\Users\stapi\AppData\Local\Temp\ccHGOiBE.s:2662   .text.coap_get_uri_path:00000000000000b4 .L0 
C:\Users\stapi\AppData\Local\Temp\ccHGOiBE.s:2663   .text.coap_get_uri_path:00000000000000b4 .L0 
C:\Users\stapi\AppData\Local\Temp\ccHGOiBE.s:2665   .text.coap_get_uri_path:00000000000000b6 .L0 
C:\Users\stapi\AppData\Local\Temp\ccHGOiBE.s:2666   .text.coap_get_uri_path:00000000000000b6 .L0 
C:\Users\stapi\AppData\Local\Temp\ccHGOiBE.s:2668   .text.coap_get_uri_path:00000000000000b8 .L0 
C:\Users\stapi\AppData\Local\Temp\ccHGOiBE.s:2671   .text.coap_get_uri_path:00000000000000ba .L0 
C:\Users\stapi\AppData\Local\Temp\ccHGOiBE.s:2672   .text.coap_get_uri_path:00000000000000ba .L0 
                    .rodata.hex.1:0000000000000000 hex.0
C:\Users\stapi\AppData\Local\Temp\ccHGOiBE.s:2676   .text.coap_get_uri_path:00000000000000be .L0 
C:\Users\stapi\AppData\Local\Temp\ccHGOiBE.s:2679   .text.coap_get_uri_path:00000000000000c2 .L0 
C:\Users\stapi\AppData\Local\Temp\ccHGOiBE.s:2682   .text.coap_get_uri_path:00000000000000ca .L0 
C:\Users\stapi\AppData\Local\Temp\ccHGOiBE.s:2683   .text.coap_get_uri_path:00000000000000ca .L0 
C:\Users\stapi\AppData\Local\Temp\ccHGOiBE.s:2686   .text.coap_get_uri_path:00000000000000cc .L0 
C:\Users\stapi\AppData\Local\Temp\ccHGOiBE.s:2688   .text.coap_get_uri_path:00000000000000d0 .L0 
C:\Users\stapi\AppData\Local\Temp\ccHGOiBE.s:2690   .text.coap_get_uri_path:00000000000000d4 .L0 
C:\Users\stapi\AppData\Local\Temp\ccHGOiBE.s:2695   .text.coap_get_uri_path:00000000000000d8 .L0 
C:\Users\stapi\AppData\Local\Temp\ccHGOiBE.s:2696   .text.coap_get_uri_path:00000000000000d8 .L0 
C:\Users\stapi\AppData\Local\Temp\ccHGOiBE.s:2702   .text.coap_get_uri_path:00000000000000e4 .L0 
C:\Users\stapi\AppData\Local\Temp\ccHGOiBE.s:2706   .text.coap_get_uri_path:00000000000000e6 .L0 
C:\Users\stapi\AppData\Local\Temp\ccHGOiBE.s:2707   .text.coap_get_uri_path:00000000000000e6 .L0 
C:\Users\stapi\AppData\Local\Temp\ccHGOiBE.s:2710   .text.coap_get_uri_path:00000000000000ea .L0 
C:\Users\stapi\AppData\Local\Temp\ccHGOiBE.s:2711   .text.coap_get_uri_path:00000000000000ea .L0 
C:\Users\stapi\AppData\Local\Temp\ccHGOiBE.s:2713   .text.coap_get_uri_path:00000000000000ee .L0 
C:\Users\stapi\AppData\Local\Temp\ccHGOiBE.s:2717   .text.coap_get_uri_path:00000000000000f0 .L0 
C:\Users\stapi\AppData\Local\Temp\ccHGOiBE.s:2718   .text.coap_get_uri_path:00000000000000f0 .L0 
C:\Users\stapi\AppData\Local\Temp\ccHGOiBE.s:2723   .text.coap_get_uri_path:00000000000000fa .L0 
C:\Users\stapi\AppData\Local\Temp\ccHGOiBE.s:2726   .text.coap_get_uri_path:00000000000000fe .L0 
C:\Users\stapi\AppData\Local\Temp\ccHGOiBE.s:2727   .text.coap_get_uri_path:00000000000000fe .L0 
C:\Users\stapi\AppData\Local\Temp\ccHGOiBE.s:2733   .text.coap_get_uri_path:000000000000010a .L0 
C:\Users\stapi\AppData\Local\Temp\ccHGOiBE.s:2737   .text.coap_get_uri_path:000000000000010c .L0 
C:\Users\stapi\AppData\Local\Temp\ccHGOiBE.s:2738   .text.coap_get_uri_path:000000000000010c .L0 
C:\Users\stapi\AppData\Local\Temp\ccHGOiBE.s:2749   .text.coap_get_uri_path:000000000000011c .L0 
C:\Users\stapi\AppData\Local\Temp\ccHGOiBE.s:2750   .text.coap_get_uri_path:000000000000011c .L0 
C:\Users\stapi\AppData\Local\Temp\ccHGOiBE.s:2753   .text.coap_get_uri_path:0000000000000124 .L0 
C:\Users\stapi\AppData\Local\Temp\ccHGOiBE.s:2756   .text.coap_get_uri_path:0000000000000128 .L0 
C:\Users\stapi\AppData\Local\Temp\ccHGOiBE.s:2757   .text.coap_get_uri_path:0000000000000128 .L0 
C:\Users\stapi\AppData\Local\Temp\ccHGOiBE.s:2763   .text.coap_get_uri_path:0000000000000134 .L0 
C:\Users\stapi\AppData\Local\Temp\ccHGOiBE.s:2767   .text.coap_get_uri_path:0000000000000136 .L0 
C:\Users\stapi\AppData\Local\Temp\ccHGOiBE.s:2768   .text.coap_get_uri_path:0000000000000136 .L0 
C:\Users\stapi\AppData\Local\Temp\ccHGOiBE.s:2771   .text.coap_get_uri_path:000000000000013e .L0 
C:\Users\stapi\AppData\Local\Temp\ccHGOiBE.s:2772   .text.coap_get_uri_path:000000000000013e .L0 
C:\Users\stapi\AppData\Local\Temp\ccHGOiBE.s:2777   .text.coap_get_uri_path:0000000000000142 .L0 
C:\Users\stapi\AppData\Local\Temp\ccHGOiBE.s:2778   .text.coap_get_uri_path:0000000000000142 .L0 
C:\Users\stapi\AppData\Local\Temp\ccHGOiBE.s:2783   .text.coap_get_uri_path:0000000000000152 .L0 
C:\Users\stapi\AppData\Local\Temp\ccHGOiBE.s:2785   .text.coap_get_uri_path:0000000000000154 .L0 
C:\Users\stapi\AppData\Local\Temp\ccHGOiBE.s:2786   .text.coap_get_uri_path:0000000000000154 .L0 
C:\Users\stapi\AppData\Local\Temp\ccHGOiBE.s:2790   .text.coap_get_uri_path:0000000000000156 .L0 
C:\Users\stapi\AppData\Local\Temp\ccHGOiBE.s:2796   .text.coap_get_uri_path:000000000000015a .L0 
C:\Users\stapi\AppData\Local\Temp\ccHGOiBE.s:2797   .text.coap_get_uri_path:000000000000015a .L0 
C:\Users\stapi\AppData\Local\Temp\ccHGOiBE.s:2806   .text.coap_get_uri_path:000000000000015e .L0 
C:\Users\stapi\AppData\Local\Temp\ccHGOiBE.s:2807   .text.coap_get_uri_path:000000000000015e .L0 
C:\Users\stapi\AppData\Local\Temp\ccHGOiBE.s:2812   .text.coap_get_uri_path:000000000000016c .L0 
C:\Users\stapi\AppData\Local\Temp\ccHGOiBE.s:2815   .text.coap_get_uri_path:000000000000016e .L0 
C:\Users\stapi\AppData\Local\Temp\ccHGOiBE.s:2816   .text.coap_get_uri_path:000000000000016e .L0 
C:\Users\stapi\AppData\Local\Temp\ccHGOiBE.s:2818   .text.coap_get_uri_path:0000000000000172 .L0 
C:\Users\stapi\AppData\Local\Temp\ccHGOiBE.s:2822   .text.coap_get_uri_path:0000000000000174 .L0 
C:\Users\stapi\AppData\Local\Temp\ccHGOiBE.s:2828   .text.coap_get_uri_path:0000000000000178 .L0 
C:\Users\stapi\AppData\Local\Temp\ccHGOiBE.s:2829   .text.coap_get_uri_path:0000000000000178 .L0 
C:\Users\stapi\AppData\Local\Temp\ccHGOiBE.s:2832   .text.coap_get_uri_path:000000000000017c .L0 
C:\Users\stapi\AppData\Local\Temp\ccHGOiBE.s:2833   .text.coap_get_uri_path:000000000000017c .L0 
C:\Users\stapi\AppData\Local\Temp\ccHGOiBE.s:2835   .text.coap_get_uri_path:0000000000000180 .L0 
C:\Users\stapi\AppData\Local\Temp\ccHGOiBE.s:2838   .text.coap_get_uri_path:0000000000000182 .L0 
C:\Users\stapi\AppData\Local\Temp\ccHGOiBE.s:2840   .text.coap_get_uri_path:0000000000000184 .L0 
C:\Users\stapi\AppData\Local\Temp\ccHGOiBE.s:2842   .text.coap_get_uri_path:0000000000000186 .L0 
C:\Users\stapi\AppData\Local\Temp\ccHGOiBE.s:2846   .text.coap_get_uri_path:000000000000018e .L0 
C:\Users\stapi\AppData\Local\Temp\ccHGOiBE.s:2847   .text.coap_get_uri_path:000000000000018e .L0 
C:\Users\stapi\AppData\Local\Temp\ccHGOiBE.s:2850   .text.coap_get_uri_path:0000000000000194 .L0 
C:\Users\stapi\AppData\Local\Temp\ccHGOiBE.s:2852   .text.coap_get_uri_path:0000000000000196 .L0 
C:\Users\stapi\AppData\Local\Temp\ccHGOiBE.s:2857   .text.coap_get_uri_path:00000000000001a0 .L0 
C:\Users\stapi\AppData\Local\Temp\ccHGOiBE.s:2944   .rodata.hex.1:0000000000000000 hex.1
C:\Users\stapi\AppData\Local\Temp\ccHGOiBE.s:2892   .data.coap_uri_scheme:0000000000000000 coap_uri_scheme
C:\Users\stapi\AppData\Local\Temp\ccHGOiBE.s:2889   .data.coap_uri_scheme:0000000000000000 .LANCHOR0
C:\Users\stapi\AppData\Local\Temp\ccHGOiBE.s:2927   .rodata.__func__.2:0000000000000000 .LANCHOR2
C:\Users\stapi\AppData\Local\Temp\ccHGOiBE.s:2930   .rodata.__func__.2:0000000000000000 __func__.2
C:\Users\stapi\AppData\Local\Temp\ccHGOiBE.s:2934   .rodata.__func__.3:0000000000000000 .LANCHOR1
C:\Users\stapi\AppData\Local\Temp\ccHGOiBE.s:2937   .rodata.__func__.3:0000000000000000 __func__.3
C:\Users\stapi\AppData\Local\Temp\ccHGOiBE.s:2941   .rodata.hex.1:0000000000000000 .LANCHOR3
C:\Users\stapi\AppData\Local\Temp\ccHGOiBE.s:714    .text.coap_split_uri_sub:00000000000003a8 .L0 
C:\Users\stapi\AppData\Local\Temp\ccHGOiBE.s:1058   .text.write_option:0000000000000168 .L0 
C:\Users\stapi\AppData\Local\Temp\ccHGOiBE.s:1115   .text.is_unescaped_in_path:000000000000004c .L0 
C:\Users\stapi\AppData\Local\Temp\ccHGOiBE.s:1132   .text.coap_split_uri:000000000000000a .L0 
C:\Users\stapi\AppData\Local\Temp\ccHGOiBE.s:1149   .text.coap_split_proxy_uri:000000000000000a .L0 
C:\Users\stapi\AppData\Local\Temp\ccHGOiBE.s:1214   .text.coap_host_is_unix_domain:000000000000004c .L0 
C:\Users\stapi\AppData\Local\Temp\ccHGOiBE.s:1416   .text.coap_split_path:00000000000000be .L0 
C:\Users\stapi\AppData\Local\Temp\ccHGOiBE.s:1519   .text.coap_split_query:000000000000006c .L0 
C:\Users\stapi\AppData\Local\Temp\ccHGOiBE.s:1916   .text.coap_uri_into_options:0000000000000218 .L0 
C:\Users\stapi\AppData\Local\Temp\ccHGOiBE.s:1990   .text.coap_new_uri:0000000000000060 .L0 
C:\Users\stapi\AppData\Local\Temp\ccHGOiBE.s:2130   .text.coap_clone_uri:00000000000000a0 .L0 
C:\Users\stapi\AppData\Local\Temp\ccHGOiBE.s:2150   .text.coap_delete_uri:000000000000000c .L0 
C:\Users\stapi\AppData\Local\Temp\ccHGOiBE.s:2506   .text.coap_get_query:0000000000000164 .L0 
C:\Users\stapi\AppData\Local\Temp\ccHGOiBE.s:2862   .text.coap_get_uri_path:00000000000001a0 .L0 
                     .debug_frame:0000000000000000 .L0 
C:\Users\stapi\AppData\Local\Temp\ccHGOiBE.s:11     .rodata.coap_split_uri_sub.str1.4:0000000000000000 .LC0
C:\Users\stapi\AppData\Local\Temp\ccHGOiBE.s:275    .rodata.coap_split_uri_sub:0000000000000000 .L12
C:\Users\stapi\AppData\Local\Temp\ccHGOiBE.s:14     .rodata.coap_split_uri_sub.str1.4:000000000000002c .LC1
C:\Users\stapi\AppData\Local\Temp\ccHGOiBE.s:17     .rodata.coap_split_uri_sub.str1.4:0000000000000048 .LC2
C:\Users\stapi\AppData\Local\Temp\ccHGOiBE.s:20     .rodata.coap_split_uri_sub.str1.4:0000000000000084 .LC3
C:\Users\stapi\AppData\Local\Temp\ccHGOiBE.s:23     .rodata.coap_split_uri_sub.str1.4:00000000000000c4 .LC4
C:\Users\stapi\AppData\Local\Temp\ccHGOiBE.s:26     .rodata.coap_split_uri_sub.str1.4:0000000000000104 .LC5
C:\Users\stapi\AppData\Local\Temp\ccHGOiBE.s:29     .rodata.coap_split_uri_sub.str1.4:0000000000000144 .LC6
C:\Users\stapi\AppData\Local\Temp\ccHGOiBE.s:32     .rodata.coap_split_uri_sub.str1.4:0000000000000184 .LC7
C:\Users\stapi\AppData\Local\Temp\ccHGOiBE.s:56     .text.coap_split_uri_sub:0000000000000006 .L2
C:\Users\stapi\AppData\Local\Temp\ccHGOiBE.s:177    .text.coap_split_uri_sub:00000000000000d8 .L84
C:\Users\stapi\AppData\Local\Temp\ccHGOiBE.s:200    .text.coap_split_uri_sub:00000000000000e4 .L75
C:\Users\stapi\AppData\Local\Temp\ccHGOiBE.s:665    .text.coap_split_uri_sub:0000000000000370 .L52
C:\Users\stapi\AppData\Local\Temp\ccHGOiBE.s:240    .text.coap_split_uri_sub:0000000000000116 .L7
C:\Users\stapi\AppData\Local\Temp\ccHGOiBE.s:285    .text.coap_split_uri_sub:0000000000000148 .L8
C:\Users\stapi\AppData\Local\Temp\ccHGOiBE.s:249    .text.coap_split_uri_sub:000000000000011c .L9
C:\Users\stapi\AppData\Local\Temp\ccHGOiBE.s:686    .text.coap_split_uri_sub:0000000000000388 .L42
C:\Users\stapi\AppData\Local\Temp\ccHGOiBE.s:670    .text.coap_split_uri_sub:0000000000000374 .L44
C:\Users\stapi\AppData\Local\Temp\ccHGOiBE.s:656    .text.coap_split_uri_sub:000000000000036a .L45
C:\Users\stapi\AppData\Local\Temp\ccHGOiBE.s:674    .text.coap_split_uri_sub:0000000000000378 .L49
C:\Users\stapi\AppData\Local\Temp\ccHGOiBE.s:110    .text.coap_split_uri_sub:000000000000004a .L5
C:\Users\stapi\AppData\Local\Temp\ccHGOiBE.s:397    .text.coap_split_uri_sub:0000000000000220 .L10
C:\Users\stapi\AppData\Local\Temp\ccHGOiBE.s:131    .text.coap_split_uri_sub:000000000000007a .L18
C:\Users\stapi\AppData\Local\Temp\ccHGOiBE.s:173    .text.coap_split_uri_sub:00000000000000ce .L85
C:\Users\stapi\AppData\Local\Temp\ccHGOiBE.s:412    .text.coap_split_uri_sub:0000000000000246 .L17
C:\Users\stapi\AppData\Local\Temp\ccHGOiBE.s:323    .text.coap_split_uri_sub:000000000000018c .L87
C:\Users\stapi\AppData\Local\Temp\ccHGOiBE.s:520    .text.coap_split_uri_sub:00000000000002cc .L53
C:\Users\stapi\AppData\Local\Temp\ccHGOiBE.s:486    .text.coap_split_uri_sub:0000000000000290 .L23
C:\Users\stapi\AppData\Local\Temp\ccHGOiBE.s:469    .text.coap_split_uri_sub:0000000000000286 .L25
C:\Users\stapi\AppData\Local\Temp\ccHGOiBE.s:481    .text.coap_split_uri_sub:000000000000028c .L33
C:\Users\stapi\AppData\Local\Temp\ccHGOiBE.s:558    .text.coap_split_uri_sub:00000000000002fc .L34
C:\Users\stapi\AppData\Local\Temp\ccHGOiBE.s:180    .text.coap_split_uri_sub:00000000000000da .L1
C:\Users\stapi\AppData\Local\Temp\ccHGOiBE.s:437    .text.coap_split_uri_sub:0000000000000262 .L24
C:\Users\stapi\AppData\Local\Temp\ccHGOiBE.s:511    .text.coap_split_uri_sub:00000000000002c0 .L28
C:\Users\stapi\AppData\Local\Temp\ccHGOiBE.s:539    .text.coap_split_uri_sub:00000000000002e4 .L29
C:\Users\stapi\AppData\Local\Temp\ccHGOiBE.s:543    .text.coap_split_uri_sub:00000000000002e6 .L22
C:\Users\stapi\AppData\Local\Temp\ccHGOiBE.s:546    .text.coap_split_uri_sub:00000000000002e8 .L31
C:\Users\stapi\AppData\Local\Temp\ccHGOiBE.s:525    .text.coap_split_uri_sub:00000000000002d0 .L30
C:\Users\stapi\AppData\Local\Temp\ccHGOiBE.s:455    .text.coap_split_uri_sub:0000000000000280 .L27
C:\Users\stapi\AppData\Local\Temp\ccHGOiBE.s:208    .text.coap_split_uri_sub:00000000000000ec .L6
C:\Users\stapi\AppData\Local\Temp\ccHGOiBE.s:706    .text.coap_split_uri_sub:00000000000003a2 .L36
C:\Users\stapi\AppData\Local\Temp\ccHGOiBE.s:626    .text.coap_split_uri_sub:0000000000000352 .L37
C:\Users\stapi\AppData\Local\Temp\ccHGOiBE.s:636    .text.coap_split_uri_sub:0000000000000358 .L39
C:\Users\stapi\AppData\Local\Temp\ccHGOiBE.s:605    .text.coap_split_uri_sub:0000000000000336 .L40
C:\Users\stapi\AppData\Local\Temp\ccHGOiBE.s:585    .text.coap_split_uri_sub:000000000000031e .L35
C:\Users\stapi\AppData\Local\Temp\ccHGOiBE.s:461    .text.coap_split_uri_sub:0000000000000282 .L86
C:\Users\stapi\AppData\Local\Temp\ccHGOiBE.s:227    .text.coap_split_uri_sub:0000000000000102 .L43
C:\Users\stapi\AppData\Local\Temp\ccHGOiBE.s:598    .text.coap_split_uri_sub:0000000000000332 .L50
C:\Users\stapi\AppData\Local\Temp\ccHGOiBE.s:307    .text.coap_split_uri_sub:000000000000016c .L16
C:\Users\stapi\AppData\Local\Temp\ccHGOiBE.s:329    .text.coap_split_uri_sub:0000000000000198 .L15
C:\Users\stapi\AppData\Local\Temp\ccHGOiBE.s:346    .text.coap_split_uri_sub:00000000000001ba .L14
C:\Users\stapi\AppData\Local\Temp\ccHGOiBE.s:363    .text.coap_split_uri_sub:00000000000001dc .L13
C:\Users\stapi\AppData\Local\Temp\ccHGOiBE.s:380    .text.coap_split_uri_sub:00000000000001fe .L11
C:\Users\stapi\AppData\Local\Temp\ccHGOiBE.s:716    .rodata.write_option.str1.4:0000000000000000 .LC8
C:\Users\stapi\AppData\Local\Temp\ccHGOiBE.s:719    .rodata.write_option.str1.4:0000000000000008 .LC9
C:\Users\stapi\AppData\Local\Temp\ccHGOiBE.s:722    .rodata.write_option.str1.4:000000000000008c .LC10
C:\Users\stapi\AppData\Local\Temp\ccHGOiBE.s:725    .rodata.write_option.str1.4:00000000000000b4 .LC11
C:\Users\stapi\AppData\Local\Temp\ccHGOiBE.s:728    .rodata.write_option.str1.4:00000000000000c8 .LC12
C:\Users\stapi\AppData\Local\Temp\ccHGOiBE.s:769    .text.write_option:000000000000002e .L89
C:\Users\stapi\AppData\Local\Temp\ccHGOiBE.s:890    .text.write_option:00000000000000c6 .L104
C:\Users\stapi\AppData\Local\Temp\ccHGOiBE.s:806    .text.write_option:000000000000005c .L88
C:\Users\stapi\AppData\Local\Temp\ccHGOiBE.s:854    .text.write_option:0000000000000094 .L93
C:\Users\stapi\AppData\Local\Temp\ccHGOiBE.s:819    .text.write_option:0000000000000064 .L95
C:\Users\stapi\AppData\Local\Temp\ccHGOiBE.s:915    .text.write_option:00000000000000e0 .L96
C:\Users\stapi\AppData\Local\Temp\ccHGOiBE.s:761    .text.write_option:000000000000001e .L120
C:\Users\stapi\AppData\Local\Temp\ccHGOiBE.s:864    .text.write_option:000000000000009a .L90
C:\Users\stapi\AppData\Local\Temp\ccHGOiBE.s:998    .text.write_option:0000000000000144 .L97
C:\Users\stapi\AppData\Local\Temp\ccHGOiBE.s:798    .text.write_option:0000000000000052 .L119
C:\Users\stapi\AppData\Local\Temp\ccHGOiBE.s:1039   .text.write_option:0000000000000160 .L98
C:\Users\stapi\AppData\Local\Temp\ccHGOiBE.s:966    .text.write_option:0000000000000120 .L99
C:\Users\stapi\AppData\Local\Temp\ccHGOiBE.s:979    .text.write_option:0000000000000136 .L101
C:\Users\stapi\AppData\Local\Temp\ccHGOiBE.s:949    .text.write_option:000000000000010a .L103
C:\Users\stapi\AppData\Local\Temp\ccHGOiBE.s:991    .text.write_option:0000000000000140 .L102
C:\Users\stapi\AppData\Local\Temp\ccHGOiBE.s:1085   .text.is_unescaped_in_path:0000000000000022 .L122
C:\Users\stapi\AppData\Local\Temp\ccHGOiBE.s:1107   .text.is_unescaped_in_path:000000000000004a .L121
C:\Users\stapi\AppData\Local\Temp\ccHGOiBE.s:1099   .text.is_unescaped_in_path:0000000000000042 .L124
C:\Users\stapi\AppData\Local\Temp\ccHGOiBE.s:1188   .text.coap_host_is_unix_domain:0000000000000038 .L133
C:\Users\stapi\AppData\Local\Temp\ccHGOiBE.s:1195   .text.coap_host_is_unix_domain:000000000000003c .L134
C:\Users\stapi\AppData\Local\Temp\ccHGOiBE.s:1206   .text.coap_host_is_unix_domain:000000000000004a .L132
C:\Users\stapi\AppData\Local\Temp\ccHGOiBE.s:1298   .text.coap_split_path:0000000000000046 .L144
C:\Users\stapi\AppData\Local\Temp\ccHGOiBE.s:1363   .text.coap_split_path:000000000000008a .L145
C:\Users\stapi\AppData\Local\Temp\ccHGOiBE.s:1381   .text.coap_split_path:00000000000000aa .L149
C:\Users\stapi\AppData\Local\Temp\ccHGOiBE.s:1277   .text.coap_split_path:0000000000000032 .L147
C:\Users\stapi\AppData\Local\Temp\ccHGOiBE.s:1355   .text.coap_split_path:0000000000000086 .L141
C:\Users\stapi\AppData\Local\Temp\ccHGOiBE.s:1342   .text.coap_split_path:000000000000007a .L142
C:\Users\stapi\AppData\Local\Temp\ccHGOiBE.s:1351   .text.coap_split_path:0000000000000084 .L143
C:\Users\stapi\AppData\Local\Temp\ccHGOiBE.s:1272   .text.coap_split_path:000000000000002e .L140
C:\Users\stapi\AppData\Local\Temp\ccHGOiBE.s:1288   .text.coap_split_path:000000000000003a .L146
C:\Users\stapi\AppData\Local\Temp\ccHGOiBE.s:1464   .text.coap_split_query:000000000000002e .L157
C:\Users\stapi\AppData\Local\Temp\ccHGOiBE.s:1494   .text.coap_split_query:0000000000000050 .L158
C:\Users\stapi\AppData\Local\Temp\ccHGOiBE.s:1510   .text.coap_split_query:0000000000000068 .L156
C:\Users\stapi\AppData\Local\Temp\ccHGOiBE.s:1457   .text.coap_split_query:0000000000000022 .L155
C:\Users\stapi\AppData\Local\Temp\ccHGOiBE.s:1521   .rodata.coap_uri_into_options.str1.4:0000000000000000 .LC13
C:\Users\stapi\AppData\Local\Temp\ccHGOiBE.s:1524   .rodata.coap_uri_into_options.str1.4:0000000000000030 .LC14
C:\Users\stapi\AppData\Local\Temp\ccHGOiBE.s:1714   .text.coap_uri_into_options:00000000000000f0 .L162
C:\Users\stapi\AppData\Local\Temp\ccHGOiBE.s:1650   .text.coap_uri_into_options:0000000000000092 .L164
C:\Users\stapi\AppData\Local\Temp\ccHGOiBE.s:1610   .text.coap_uri_into_options:0000000000000044 .L165
C:\Users\stapi\AppData\Local\Temp\ccHGOiBE.s:1596   .text.coap_uri_into_options:0000000000000032 .L166
C:\Users\stapi\AppData\Local\Temp\ccHGOiBE.s:1639   .text.coap_uri_into_options:0000000000000078 .L168
C:\Users\stapi\AppData\Local\Temp\ccHGOiBE.s:1706   .text.coap_uri_into_options:00000000000000e8 .L169
C:\Users\stapi\AppData\Local\Temp\ccHGOiBE.s:1702   .text.coap_uri_into_options:00000000000000e4 .L170
C:\Users\stapi\AppData\Local\Temp\ccHGOiBE.s:1734   .text.coap_uri_into_options:00000000000000fc .L171
C:\Users\stapi\AppData\Local\Temp\ccHGOiBE.s:1665   .text.coap_uri_into_options:00000000000000aa .L207
C:\Users\stapi\AppData\Local\Temp\ccHGOiBE.s:1684   .text.coap_uri_into_options:00000000000000bc .L173
C:\Users\stapi\AppData\Local\Temp\ccHGOiBE.s:1741   .text.coap_uri_into_options:0000000000000102 .L174
C:\Users\stapi\AppData\Local\Temp\ccHGOiBE.s:1838   .text.coap_uri_into_options:0000000000000194 .L175
C:\Users\stapi\AppData\Local\Temp\ccHGOiBE.s:1784   .text.coap_uri_into_options:0000000000000146 .L160
C:\Users\stapi\AppData\Local\Temp\ccHGOiBE.s:1710   .text.coap_uri_into_options:00000000000000ec .L208
C:\Users\stapi\AppData\Local\Temp\ccHGOiBE.s:1760   .text.coap_uri_into_options:000000000000012a .L178
C:\Users\stapi\AppData\Local\Temp\ccHGOiBE.s:1829   .text.coap_uri_into_options:000000000000018c .L180
C:\Users\stapi\AppData\Local\Temp\ccHGOiBE.s:1800   .text.coap_uri_into_options:0000000000000150 .L182
C:\Users\stapi\AppData\Local\Temp\ccHGOiBE.s:1722   .text.coap_uri_into_options:00000000000000f4 .L183
C:\Users\stapi\AppData\Local\Temp\ccHGOiBE.s:1860   .text.coap_uri_into_options:00000000000001bc .L185
C:\Users\stapi\AppData\Local\Temp\ccHGOiBE.s:1780   .text.coap_uri_into_options:0000000000000144 .L187
C:\Users\stapi\AppData\Local\Temp\ccHGOiBE.s:1729   .text.coap_uri_into_options:00000000000000f8 .L176
C:\Users\stapi\AppData\Local\Temp\ccHGOiBE.s:1878   .text.coap_uri_into_options:00000000000001d4 .L188
C:\Users\stapi\AppData\Local\Temp\ccHGOiBE.s:1978   .text.coap_new_uri:0000000000000056 .L209
C:\Users\stapi\AppData\Local\Temp\ccHGOiBE.s:2023   .text.coap_clone_uri:0000000000000016 .L216
C:\Users\stapi\AppData\Local\Temp\ccHGOiBE.s:2010   .text.coap_clone_uri:000000000000000a .L218
C:\Users\stapi\AppData\Local\Temp\ccHGOiBE.s:2074   .text.coap_clone_uri:0000000000000062 .L219
C:\Users\stapi\AppData\Local\Temp\ccHGOiBE.s:2099   .text.coap_clone_uri:000000000000007e .L220
C:\Users\stapi\AppData\Local\Temp\ccHGOiBE.s:2013   .text.coap_clone_uri:000000000000000c .L215
C:\Users\stapi\AppData\Local\Temp\ccHGOiBE.s:2255   .text.coap_get_query:0000000000000054 .L242
C:\Users\stapi\AppData\Local\Temp\ccHGOiBE.s:2328   .text.coap_get_query:00000000000000a0 .L243
C:\Users\stapi\AppData\Local\Temp\ccHGOiBE.s:2285   .text.coap_get_query:000000000000007a .L241
C:\Users\stapi\AppData\Local\Temp\ccHGOiBE.s:2212   .text.coap_get_query:0000000000000036 .L237
C:\Users\stapi\AppData\Local\Temp\ccHGOiBE.s:2321   .text.coap_get_query:000000000000009c .L239
C:\Users\stapi\AppData\Local\Temp\ccHGOiBE.s:2275   .text.coap_get_query:000000000000006e .L238
C:\Users\stapi\AppData\Local\Temp\ccHGOiBE.s:2315   .text.coap_get_query:0000000000000098 .L240
C:\Users\stapi\AppData\Local\Temp\ccHGOiBE.s:2231   .text.coap_get_query:0000000000000046 .L245
C:\Users\stapi\AppData\Local\Temp\ccHGOiBE.s:2235   .text.coap_get_query:0000000000000048 .L236
C:\Users\stapi\AppData\Local\Temp\ccHGOiBE.s:2409   .text.coap_get_query:00000000000000f2 .L247
C:\Users\stapi\AppData\Local\Temp\ccHGOiBE.s:2386   .text.coap_get_query:00000000000000d8 .L246
C:\Users\stapi\AppData\Local\Temp\ccHGOiBE.s:2493   .text.coap_get_query:000000000000015c .L249
C:\Users\stapi\AppData\Local\Temp\ccHGOiBE.s:2429   .text.coap_get_query:000000000000010e .L248
C:\Users\stapi\AppData\Local\Temp\ccHGOiBE.s:2486   .text.coap_get_query:0000000000000158 .L250
C:\Users\stapi\AppData\Local\Temp\ccHGOiBE.s:2610   .text.coap_get_uri_path:000000000000006e .L261
C:\Users\stapi\AppData\Local\Temp\ccHGOiBE.s:2589   .text.coap_get_uri_path:0000000000000062 .L260
C:\Users\stapi\AppData\Local\Temp\ccHGOiBE.s:2744   .text.coap_get_uri_path:000000000000011c .L269
C:\Users\stapi\AppData\Local\Temp\ccHGOiBE.s:2649   .text.coap_get_uri_path:00000000000000a6 .L270
C:\Users\stapi\AppData\Local\Temp\ccHGOiBE.s:2715   .text.coap_get_uri_path:00000000000000f0 .L272
C:\Users\stapi\AppData\Local\Temp\ccHGOiBE.s:2801   .text.coap_get_uri_path:000000000000015e .L276
C:\Users\stapi\AppData\Local\Temp\ccHGOiBE.s:2692   .text.coap_get_uri_path:00000000000000d8 .L271
C:\Users\stapi\AppData\Local\Temp\ccHGOiBE.s:2775   .text.coap_get_uri_path:0000000000000142 .L268
C:\Users\stapi\AppData\Local\Temp\ccHGOiBE.s:2632   .text.coap_get_uri_path:0000000000000094 .L264
C:\Users\stapi\AppData\Local\Temp\ccHGOiBE.s:2794   .text.coap_get_uri_path:000000000000015a .L266
C:\Users\stapi\AppData\Local\Temp\ccHGOiBE.s:2765   .text.coap_get_uri_path:0000000000000136 .L265
C:\Users\stapi\AppData\Local\Temp\ccHGOiBE.s:2788   .text.coap_get_uri_path:0000000000000156 .L267
C:\Users\stapi\AppData\Local\Temp\ccHGOiBE.s:2826   .text.coap_get_uri_path:0000000000000178 .L274
C:\Users\stapi\AppData\Local\Temp\ccHGOiBE.s:2735   .text.coap_get_uri_path:000000000000010c .L273
C:\Users\stapi\AppData\Local\Temp\ccHGOiBE.s:2820   .text.coap_get_uri_path:0000000000000174 .L275
C:\Users\stapi\AppData\Local\Temp\ccHGOiBE.s:2864   .rodata.str1.4:0000000000000000 .LC15
C:\Users\stapi\AppData\Local\Temp\ccHGOiBE.s:2867   .rodata.str1.4:0000000000000008 .LC16
C:\Users\stapi\AppData\Local\Temp\ccHGOiBE.s:2870   .rodata.str1.4:0000000000000010 .LC17
C:\Users\stapi\AppData\Local\Temp\ccHGOiBE.s:2873   .rodata.str1.4:000000000000001c .LC18
C:\Users\stapi\AppData\Local\Temp\ccHGOiBE.s:2876   .rodata.str1.4:0000000000000028 .LC19
C:\Users\stapi\AppData\Local\Temp\ccHGOiBE.s:2879   .rodata.str1.4:0000000000000030 .LC20
C:\Users\stapi\AppData\Local\Temp\ccHGOiBE.s:2882   .rodata.str1.4:0000000000000038 .LC21
C:\Users\stapi\AppData\Local\Temp\ccHGOiBE.s:2885   .rodata.str1.4:0000000000000040 .LC22
C:\Users\stapi\AppData\Local\Temp\ccHGOiBE.s:10523  .debug_abbrev:0000000000000000 .Ldebug_abbrev0
C:\Users\stapi\AppData\Local\Temp\ccHGOiBE.s:14701  .debug_str:0000000000000ff4 .LASF617
C:\Users\stapi\AppData\Local\Temp\ccHGOiBE.s:14325  .debug_str:000000000000042e .LASF618
C:\Users\stapi\AppData\Local\Temp\ccHGOiBE.s:14879  .debug_str:0000000000001662 .LASF619
C:\Users\stapi\AppData\Local\Temp\ccHGOiBE.s:14033  .debug_ranges:0000000000000000 .Ldebug_ranges0
C:\Users\stapi\AppData\Local\Temp\ccHGOiBE.s:14177  .debug_line:0000000000000000 .Ldebug_line0
C:\Users\stapi\AppData\Local\Temp\ccHGOiBE.s:14435  .debug_str:00000000000007fb .LASF0
C:\Users\stapi\AppData\Local\Temp\ccHGOiBE.s:14349  .debug_str:0000000000000552 .LASF3
C:\Users\stapi\AppData\Local\Temp\ccHGOiBE.s:14459  .debug_str:00000000000008a4 .LASF1
C:\Users\stapi\AppData\Local\Temp\ccHGOiBE.s:15159  .debug_str:0000000000001f90 .LASF2
C:\Users\stapi\AppData\Local\Temp\ccHGOiBE.s:14547  .debug_str:0000000000000b47 .LASF4
C:\Users\stapi\AppData\Local\Temp\ccHGOiBE.s:15345  .debug_str:0000000000002591 .LASF5
C:\Users\stapi\AppData\Local\Temp\ccHGOiBE.s:14375  .debug_str:000000000000062e .LASF6
C:\Users\stapi\AppData\Local\Temp\ccHGOiBE.s:14791  .debug_str:0000000000001395 .LASF7
C:\Users\stapi\AppData\Local\Temp\ccHGOiBE.s:14683  .debug_str:0000000000000f5c .LASF8
C:\Users\stapi\AppData\Local\Temp\ccHGOiBE.s:14795  .debug_str:00000000000013b1 .LASF9
C:\Users\stapi\AppData\Local\Temp\ccHGOiBE.s:14679  .debug_str:0000000000000f47 .LASF10
C:\Users\stapi\AppData\Local\Temp\ccHGOiBE.s:15019  .debug_str:0000000000001b41 .LASF11
C:\Users\stapi\AppData\Local\Temp\ccHGOiBE.s:14869  .debug_str:000000000000161b .LASF12
C:\Users\stapi\AppData\Local\Temp\ccHGOiBE.s:14437  .debug_str:0000000000000807 .LASF13
C:\Users\stapi\AppData\Local\Temp\ccHGOiBE.s:15029  .debug_str:0000000000001b8c .LASF14
C:\Users\stapi\AppData\Local\Temp\ccHGOiBE.s:15303  .debug_str:0000000000002444 .LASF15
C:\Users\stapi\AppData\Local\Temp\ccHGOiBE.s:15169  .debug_str:0000000000001ff3 .LASF16
C:\Users\stapi\AppData\Local\Temp\ccHGOiBE.s:14195  .debug_str:0000000000000073 .LASF17
C:\Users\stapi\AppData\Local\Temp\ccHGOiBE.s:14577  .debug_str:0000000000000c13 .LASF18
C:\Users\stapi\AppData\Local\Temp\ccHGOiBE.s:14193  .debug_str:000000000000006a .LASF19
C:\Users\stapi\AppData\Local\Temp\ccHGOiBE.s:14515  .debug_str:0000000000000a7a .LASF20
C:\Users\stapi\AppData\Local\Temp\ccHGOiBE.s:14339  .debug_str:00000000000004ee .LASF21
C:\Users\stapi\AppData\Local\Temp\ccHGOiBE.s:15363  .debug_str:000000000000262b .LASF22
C:\Users\stapi\AppData\Local\Temp\ccHGOiBE.s:14883  .debug_str:00000000000016ed .LASF23
C:\Users\stapi\AppData\Local\Temp\ccHGOiBE.s:15099  .debug_str:0000000000001d9e .LASF24
C:\Users\stapi\AppData\Local\Temp\ccHGOiBE.s:14821  .debug_str:000000000000147d .LASF543
C:\Users\stapi\AppData\Local\Temp\ccHGOiBE.s:15203  .debug_str:0000000000002100 .LASF25
C:\Users\stapi\AppData\Local\Temp\ccHGOiBE.s:15141  .debug_str:0000000000001ef6 .LASF26
C:\Users\stapi\AppData\Local\Temp\ccHGOiBE.s:14861  .debug_str:00000000000015e7 .LASF27
C:\Users\stapi\AppData\Local\Temp\ccHGOiBE.s:15123  .debug_str:0000000000001e81 .LASF28
C:\Users\stapi\AppData\Local\Temp\ccHGOiBE.s:15405  .debug_str:0000000000002794 .LASF29
C:\Users\stapi\AppData\Local\Temp\ccHGOiBE.s:14333  .debug_str:00000000000004c9 .LASF30
C:\Users\stapi\AppData\Local\Temp\ccHGOiBE.s:14721  .debug_str:000000000000117f .LASF31
C:\Users\stapi\AppData\Local\Temp\ccHGOiBE.s:14659  .debug_str:0000000000000ebc .LASF32
C:\Users\stapi\AppData\Local\Temp\ccHGOiBE.s:14421  .debug_str:0000000000000772 .LASF33
C:\Users\stapi\AppData\Local\Temp\ccHGOiBE.s:14637  .debug_str:0000000000000e08 .LASF34
C:\Users\stapi\AppData\Local\Temp\ccHGOiBE.s:14719  .debug_str:0000000000001178 .LASF35
C:\Users\stapi\AppData\Local\Temp\ccHGOiBE.s:14203  .debug_str:00000000000000a2 .LASF36
C:\Users\stapi\AppData\Local\Temp\ccHGOiBE.s:15407  .debug_str:0000000000002799 .LASF37
C:\Users\stapi\AppData\Local\Temp\ccHGOiBE.s:15027  .debug_str:0000000000001b85 .LASF38
C:\Users\stapi\AppData\Local\Temp\ccHGOiBE.s:14919  .debug_str:00000000000017f5 .LASF39
C:\Users\stapi\AppData\Local\Temp\ccHGOiBE.s:14845  .debug_str:0000000000001560 .LASF40
C:\Users\stapi\AppData\Local\Temp\ccHGOiBE.s:14943  .debug_str:00000000000018a8 .LASF41
C:\Users\stapi\AppData\Local\Temp\ccHGOiBE.s:14475  .debug_str:0000000000000932 .LASF42
C:\Users\stapi\AppData\Local\Temp\ccHGOiBE.s:14769  .debug_str:00000000000012fb .LASF43
C:\Users\stapi\AppData\Local\Temp\ccHGOiBE.s:14383  .debug_str:0000000000000663 .LASF44
C:\Users\stapi\AppData\Local\Temp\ccHGOiBE.s:15299  .debug_str:0000000000002429 .LASF45
C:\Users\stapi\AppData\Local\Temp\ccHGOiBE.s:14905  .debug_str:0000000000001784 .LASF46
C:\Users\stapi\AppData\Local\Temp\ccHGOiBE.s:14231  .debug_str:0000000000000159 .LASF47
C:\Users\stapi\AppData\Local\Temp\ccHGOiBE.s:14805  .debug_str:000000000000140c .LASF48
C:\Users\stapi\AppData\Local\Temp\ccHGOiBE.s:14755  .debug_str:0000000000001283 .LASF49
C:\Users\stapi\AppData\Local\Temp\ccHGOiBE.s:15239  .debug_str:000000000000225a .LASF50
C:\Users\stapi\AppData\Local\Temp\ccHGOiBE.s:14987  .debug_str:0000000000001a3f .LASF51
C:\Users\stapi\AppData\Local\Temp\ccHGOiBE.s:15021  .debug_str:0000000000001b58 .LASF52
C:\Users\stapi\AppData\Local\Temp\ccHGOiBE.s:14455  .debug_str:0000000000000889 .LASF53
C:\Users\stapi\AppData\Local\Temp\ccHGOiBE.s:14441  .debug_str:0000000000000827 .LASF54
C:\Users\stapi\AppData\Local\Temp\ccHGOiBE.s:15051  .debug_str:0000000000001c28 .LASF55
C:\Users\stapi\AppData\Local\Temp\ccHGOiBE.s:14921  .debug_str:00000000000017fc .LASF56
C:\Users\stapi\AppData\Local\Temp\ccHGOiBE.s:14745  .debug_str:0000000000001236 .LASF57
C:\Users\stapi\AppData\Local\Temp\ccHGOiBE.s:14223  .debug_str:0000000000000122 .LASF58
C:\Users\stapi\AppData\Local\Temp\ccHGOiBE.s:14329  .debug_str:00000000000004b9 .LASF59
C:\Users\stapi\AppData\Local\Temp\ccHGOiBE.s:14999  .debug_str:0000000000001a9e .LASF60
C:\Users\stapi\AppData\Local\Temp\ccHGOiBE.s:14629  .debug_str:0000000000000dd3 .LASF61
C:\Users\stapi\AppData\Local\Temp\ccHGOiBE.s:14247  .debug_str:00000000000001d3 .LASF62
C:\Users\stapi\AppData\Local\Temp\ccHGOiBE.s:14311  .debug_str:00000000000003e8 .LASF63
C:\Users\stapi\AppData\Local\Temp\ccHGOiBE.s:14539  .debug_str:0000000000000b0b .LASF64
C:\Users\stapi\AppData\Local\Temp\ccHGOiBE.s:14379  .debug_str:0000000000000644 .LASF65
C:\Users\stapi\AppData\Local\Temp\ccHGOiBE.s:14271  .debug_str:0000000000000297 .LASF66
C:\Users\stapi\AppData\Local\Temp\ccHGOiBE.s:15111  .debug_str:0000000000001dfd .LASF67
C:\Users\stapi\AppData\Local\Temp\ccHGOiBE.s:15017  .debug_str:0000000000001b35 .LASF68
C:\Users\stapi\AppData\Local\Temp\ccHGOiBE.s:14893  .debug_str:0000000000001733 .LASF69
C:\Users\stapi\AppData\Local\Temp\ccHGOiBE.s:14201  .debug_str:0000000000000094 .LASF70
C:\Users\stapi\AppData\Local\Temp\ccHGOiBE.s:14599  .debug_str:0000000000000ccf .LASF71
C:\Users\stapi\AppData\Local\Temp\ccHGOiBE.s:15221  .debug_str:00000000000021c0 .LASF72
C:\Users\stapi\AppData\Local\Temp\ccHGOiBE.s:14557  .debug_str:0000000000000b8a .LASF73
C:\Users\stapi\AppData\Local\Temp\ccHGOiBE.s:14553  .debug_str:0000000000000b6f .LASF74
C:\Users\stapi\AppData\Local\Temp\ccHGOiBE.s:15041  .debug_str:0000000000001be4 .LASF75
C:\Users\stapi\AppData\Local\Temp\ccHGOiBE.s:14527  .debug_str:0000000000000ac5 .LASF76
C:\Users\stapi\AppData\Local\Temp\ccHGOiBE.s:15243  .debug_str:0000000000002275 .LASF77
C:\Users\stapi\AppData\Local\Temp\ccHGOiBE.s:15213  .debug_str:0000000000002176 .LASF78
C:\Users\stapi\AppData\Local\Temp\ccHGOiBE.s:14335  .debug_str:00000000000004cf .LASF79
C:\Users\stapi\AppData\Local\Temp\ccHGOiBE.s:15207  .debug_str:0000000000002138 .LASF80
C:\Users\stapi\AppData\Local\Temp\ccHGOiBE.s:15045  .debug_str:0000000000001bfd .LASF81
C:\Users\stapi\AppData\Local\Temp\ccHGOiBE.s:14565  .debug_str:0000000000000bc0 .LASF82
C:\Users\stapi\AppData\Local\Temp\ccHGOiBE.s:15035  .debug_str:0000000000001bbe .LASF83
C:\Users\stapi\AppData\Local\Temp\ccHGOiBE.s:15061  .debug_str:0000000000001c87 .LASF84
C:\Users\stapi\AppData\Local\Temp\ccHGOiBE.s:14915  .debug_str:00000000000017e4 .LASF85
C:\Users\stapi\AppData\Local\Temp\ccHGOiBE.s:15043  .debug_str:0000000000001bee .LASF86
C:\Users\stapi\AppData\Local\Temp\ccHGOiBE.s:14639  .debug_str:0000000000000e11 .LASF87
C:\Users\stapi\AppData\Local\Temp\ccHGOiBE.s:14771  .debug_str:0000000000001304 .LASF88
C:\Users\stapi\AppData\Local\Temp\ccHGOiBE.s:14341  .debug_str:00000000000004f6 .LASF89
C:\Users\stapi\AppData\Local\Temp\ccHGOiBE.s:14255  .debug_str:000000000000021a .LASF90
C:\Users\stapi\AppData\Local\Temp\ccHGOiBE.s:15391  .debug_str:0000000000002710 .LASF91
C:\Users\stapi\AppData\Local\Temp\ccHGOiBE.s:15313  .debug_str:0000000000002479 .LASF92
C:\Users\stapi\AppData\Local\Temp\ccHGOiBE.s:15185  .debug_str:0000000000002071 .LASF93
C:\Users\stapi\AppData\Local\Temp\ccHGOiBE.s:14723  .debug_str:0000000000001187 .LASF94
C:\Users\stapi\AppData\Local\Temp\ccHGOiBE.s:14263  .debug_str:000000000000025a .LASF95
C:\Users\stapi\AppData\Local\Temp\ccHGOiBE.s:15209  .debug_str:0000000000002149 .LASF96
C:\Users\stapi\AppData\Local\Temp\ccHGOiBE.s:15415  .debug_str:00000000000027ce .LASF97
C:\Users\stapi\AppData\Local\Temp\ccHGOiBE.s:15421  .debug_str:00000000000027f3 .LASF98
C:\Users\stapi\AppData\Local\Temp\ccHGOiBE.s:15001  .debug_str:0000000000001aa8 .LASF99
C:\Users\stapi\AppData\Local\Temp\ccHGOiBE.s:14677  .debug_str:0000000000000f3a .LASF100
C:\Users\stapi\AppData\Local\Temp\ccHGOiBE.s:14881  .debug_str:00000000000016e0 .LASF101
C:\Users\stapi\AppData\Local\Temp\ccHGOiBE.s:14319  .debug_str:000000000000040a .LASF102
C:\Users\stapi\AppData\Local\Temp\ccHGOiBE.s:15097  .debug_str:0000000000001d90 .LASF103
C:\Users\stapi\AppData\Local\Temp\ccHGOiBE.s:15291  .debug_str:00000000000023dc .LASF104
C:\Users\stapi\AppData\Local\Temp\ccHGOiBE.s:14933  .debug_str:0000000000001862 .LASF105
C:\Users\stapi\AppData\Local\Temp\ccHGOiBE.s:14887  .debug_str:0000000000001703 .LASF106
C:\Users\stapi\AppData\Local\Temp\ccHGOiBE.s:14757  .debug_str:000000000000128f .LASF107
C:\Users\stapi\AppData\Local\Temp\ccHGOiBE.s:14801  .debug_str:00000000000013dc .LASF108
C:\Users\stapi\AppData\Local\Temp\ccHGOiBE.s:15411  .debug_str:00000000000027a9 .LASF109
C:\Users\stapi\AppData\Local\Temp\ccHGOiBE.s:15251  .debug_str:00000000000022ae .LASF110
C:\Users\stapi\AppData\Local\Temp\ccHGOiBE.s:14297  .debug_str:000000000000035a .LASF111
C:\Users\stapi\AppData\Local\Temp\ccHGOiBE.s:15153  .debug_str:0000000000001f45 .LASF112
C:\Users\stapi\AppData\Local\Temp\ccHGOiBE.s:14727  .debug_str:00000000000011a2 .LASF113
C:\Users\stapi\AppData\Local\Temp\ccHGOiBE.s:15333  .debug_str:000000000000252d .LASF114
C:\Users\stapi\AppData\Local\Temp\ccHGOiBE.s:14273  .debug_str:00000000000002a6 .LASF115
C:\Users\stapi\AppData\Local\Temp\ccHGOiBE.s:15219  .debug_str:00000000000021b3 .LASF116
C:\Users\stapi\AppData\Local\Temp\ccHGOiBE.s:15235  .debug_str:0000000000002244 .LASF117
C:\Users\stapi\AppData\Local\Temp\ccHGOiBE.s:14581  .debug_str:0000000000000c2f .LASF118
C:\Users\stapi\AppData\Local\Temp\ccHGOiBE.s:14971  .debug_str:000000000000198e .LASF119
C:\Users\stapi\AppData\Local\Temp\ccHGOiBE.s:14993  .debug_str:0000000000001a61 .LASF120
C:\Users\stapi\AppData\Local\Temp\ccHGOiBE.s:15133  .debug_str:0000000000001ec3 .LASF121
C:\Users\stapi\AppData\Local\Temp\ccHGOiBE.s:15425  .debug_str:000000000000281e .LASF122
C:\Users\stapi\AppData\Local\Temp\ccHGOiBE.s:14961  .debug_str:0000000000001950 .LASF123
C:\Users\stapi\AppData\Local\Temp\ccHGOiBE.s:14353  .debug_str:0000000000000572 .LASF124
C:\Users\stapi\AppData\Local\Temp\ccHGOiBE.s:14733  .debug_str:00000000000011d8 .LASF125
C:\Users\stapi\AppData\Local\Temp\ccHGOiBE.s:14631  .debug_str:0000000000000ddd .LASF126
C:\Users\stapi\AppData\Local\Temp\ccHGOiBE.s:14661  .debug_str:0000000000000ec4 .LASF127
C:\Users\stapi\AppData\Local\Temp\ccHGOiBE.s:14309  .debug_str:00000000000003d8 .LASF128
C:\Users\stapi\AppData\Local\Temp\ccHGOiBE.s:15119  .debug_str:0000000000001e49 .LASF129
C:\Users\stapi\AppData\Local\Temp\ccHGOiBE.s:14775  .debug_str:0000000000001321 .LASF130
C:\Users\stapi\AppData\Local\Temp\ccHGOiBE.s:14447  .debug_str:000000000000084b .LASF131
C:\Users\stapi\AppData\Local\Temp\ccHGOiBE.s:14417  .debug_str:000000000000075a .LASF132
C:\Users\stapi\AppData\Local\Temp\ccHGOiBE.s:14761  .debug_str:00000000000012b4 .LASF133
C:\Users\stapi\AppData\Local\Temp\ccHGOiBE.s:14359  .debug_str:00000000000005ac .LASF134
C:\Users\stapi\AppData\Local\Temp\ccHGOiBE.s:14855  .debug_str:00000000000015b9 .LASF135
C:\Users\stapi\AppData\Local\Temp\ccHGOiBE.s:14571  .debug_str:0000000000000beb .LASF136
C:\Users\stapi\AppData\Local\Temp\ccHGOiBE.s:14315  .debug_str:00000000000003fd .LASF137
C:\Users\stapi\AppData\Local\Temp\ccHGOiBE.s:15095  .debug_str:0000000000001d8b .LASF138
C:\Users\stapi\AppData\Local\Temp\ccHGOiBE.s:15145  .debug_str:0000000000001f05 .LASF139
C:\Users\stapi\AppData\Local\Temp\ccHGOiBE.s:14291  .debug_str:000000000000033a .LASF140
C:\Users\stapi\AppData\Local\Temp\ccHGOiBE.s:14925  .debug_str:000000000000182b .LASF141
C:\Users\stapi\AppData\Local\Temp\ccHGOiBE.s:14663  .debug_str:0000000000000ed0 .LASF142
C:\Users\stapi\AppData\Local\Temp\ccHGOiBE.s:15337  .debug_str:0000000000002550 .LASF143
C:\Users\stapi\AppData\Local\Temp\ccHGOiBE.s:15269  .debug_str:0000000000002322 .LASF144
C:\Users\stapi\AppData\Local\Temp\ccHGOiBE.s:14269  .debug_str:000000000000028c .LASF145
C:\Users\stapi\AppData\Local\Temp\ccHGOiBE.s:14209  .debug_str:00000000000000c4 .LASF146
C:\Users\stapi\AppData\Local\Temp\ccHGOiBE.s:14483  .debug_str:0000000000000978 .LASF147
C:\Users\stapi\AppData\Local\Temp\ccHGOiBE.s:15327  .debug_str:00000000000024fe .LASF148
C:\Users\stapi\AppData\Local\Temp\ccHGOiBE.s:14529  .debug_str:0000000000000ace .LASF149
C:\Users\stapi\AppData\Local\Temp\ccHGOiBE.s:14277  .debug_str:00000000000002cb .LASF150
C:\Users\stapi\AppData\Local\Temp\ccHGOiBE.s:15401  .debug_str:000000000000277f .LASF151
C:\Users\stapi\AppData\Local\Temp\ccHGOiBE.s:14877  .debug_str:0000000000001657 .LASF152
C:\Users\stapi\AppData\Local\Temp\ccHGOiBE.s:14867  .debug_str:0000000000001613 .LASF153
C:\Users\stapi\AppData\Local\Temp\ccHGOiBE.s:15177  .debug_str:0000000000002028 .LASF154
C:\Users\stapi\AppData\Local\Temp\ccHGOiBE.s:15137  .debug_str:0000000000001ee9 .LASF155
C:\Users\stapi\AppData\Local\Temp\ccHGOiBE.s:14509  .debug_str:0000000000000a41 .LASF156
C:\Users\stapi\AppData\Local\Temp\ccHGOiBE.s:14729  .debug_str:00000000000011b2 .LASF157
C:\Users\stapi\AppData\Local\Temp\ccHGOiBE.s:15385  .debug_str:00000000000026f0 .LASF158
C:\Users\stapi\AppData\Local\Temp\ccHGOiBE.s:14939  .debug_str:0000000000001892 .LASF159
C:\Users\stapi\AppData\Local\Temp\ccHGOiBE.s:14537  .debug_str:0000000000000b00 .LASF160
C:\Users\stapi\AppData\Local\Temp\ccHGOiBE.s:14355  .debug_str:000000000000057b .LASF161
C:\Users\stapi\AppData\Local\Temp\ccHGOiBE.s:14211  .debug_str:00000000000000ce .LASF162
C:\Users\stapi\AppData\Local\Temp\ccHGOiBE.s:15163  .debug_str:0000000000001fbf .LASF163
C:\Users\stapi\AppData\Local\Temp\ccHGOiBE.s:14503  .debug_str:0000000000000a18 .LASF164
C:\Users\stapi\AppData\Local\Temp\ccHGOiBE.s:14301  .debug_str:000000000000037b .LASF165
C:\Users\stapi\AppData\Local\Temp\ccHGOiBE.s:14281  .debug_str:00000000000002e0 .LASF166
C:\Users\stapi\AppData\Local\Temp\ccHGOiBE.s:14445  .debug_str:0000000000000843 .LASF167
C:\Users\stapi\AppData\Local\Temp\ccHGOiBE.s:15071  .debug_str:0000000000001ce2 .LASF168
C:\Users\stapi\AppData\Local\Temp\ccHGOiBE.s:14831  .debug_str:00000000000014df .LASF169
C:\Users\stapi\AppData\Local\Temp\ccHGOiBE.s:14207  .debug_str:00000000000000ba .LASF170
C:\Users\stapi\AppData\Local\Temp\ccHGOiBE.s:14603  .debug_str:0000000000000cf3 .LASF171
C:\Users\stapi\AppData\Local\Temp\ccHGOiBE.s:14373  .debug_str:0000000000000627 .LASF172
C:\Users\stapi\AppData\Local\Temp\ccHGOiBE.s:14895  .debug_str:0000000000001738 .LASF173
C:\Users\stapi\AppData\Local\Temp\ccHGOiBE.s:14227  .debug_str:000000000000013d .LASF174
C:\Users\stapi\AppData\Local\Temp\ccHGOiBE.s:15315  .debug_str:0000000000002485 .LASF175
C:\Users\stapi\AppData\Local\Temp\ccHGOiBE.s:14675  .debug_str:0000000000000f2e .LASF176
C:\Users\stapi\AppData\Local\Temp\ccHGOiBE.s:14371  .debug_str:0000000000000622 .LASF177
C:\Users\stapi\AppData\Local\Temp\ccHGOiBE.s:14389  .debug_str:0000000000000689 .LASF178
C:\Users\stapi\AppData\Local\Temp\ccHGOiBE.s:15429  .debug_str:000000000000283a .LASF179
C:\Users\stapi\AppData\Local\Temp\ccHGOiBE.s:14295  .debug_str:0000000000000354 .LASF180
C:\Users\stapi\AppData\Local\Temp\ccHGOiBE.s:15063  .debug_str:0000000000001c92 .LASF181
C:\Users\stapi\AppData\Local\Temp\ccHGOiBE.s:15265  .debug_str:0000000000002311 .LASF182
C:\Users\stapi\AppData\Local\Temp\ccHGOiBE.s:14505  .debug_str:0000000000000a20 .LASF183
C:\Users\stapi\AppData\Local\Temp\ccHGOiBE.s:15189  .debug_str:000000000000209e .LASF184
C:\Users\stapi\AppData\Local\Temp\ccHGOiBE.s:14487  .debug_str:000000000000099d .LASF185
C:\Users\stapi\AppData\Local\Temp\ccHGOiBE.s:14911  .debug_str:00000000000017c8 .LASF186
C:\Users\stapi\AppData\Local\Temp\ccHGOiBE.s:14651  .debug_str:0000000000000e7b .LASF187
C:\Users\stapi\AppData\Local\Temp\ccHGOiBE.s:14963  .debug_str:0000000000001958 .LASF188
C:\Users\stapi\AppData\Local\Temp\ccHGOiBE.s:15353  .debug_str:00000000000025e0 .LASF189
C:\Users\stapi\AppData\Local\Temp\ccHGOiBE.s:15191  .debug_str:00000000000020a8 .LASF190
C:\Users\stapi\AppData\Local\Temp\ccHGOiBE.s:15091  .debug_str:0000000000001d6f .LASF191
C:\Users\stapi\AppData\Local\Temp\ccHGOiBE.s:15201  .debug_str:00000000000020f8 .LASF192
C:\Users\stapi\AppData\Local\Temp\ccHGOiBE.s:14511  .debug_str:0000000000000a47 .LASF193
C:\Users\stapi\AppData\Local\Temp\ccHGOiBE.s:14239  .debug_str:00000000000001a6 .LASF194
C:\Users\stapi\AppData\Local\Temp\ccHGOiBE.s:15199  .debug_str:00000000000020eb .LASF195
C:\Users\stapi\AppData\Local\Temp\ccHGOiBE.s:14457  .debug_str:0000000000000898 .LASF196
C:\Users\stapi\AppData\Local\Temp\ccHGOiBE.s:15361  .debug_str:0000000000002620 .LASF197
C:\Users\stapi\AppData\Local\Temp\ccHGOiBE.s:14641  .debug_str:0000000000000e1f .LASF198
C:\Users\stapi\AppData\Local\Temp\ccHGOiBE.s:15307  .debug_str:0000000000002456 .LASF199
C:\Users\stapi\AppData\Local\Temp\ccHGOiBE.s:14343  .debug_str:0000000000000507 .LASF200
C:\Users\stapi\AppData\Local\Temp\ccHGOiBE.s:15309  .debug_str:0000000000002460 .LASF201
C:\Users\stapi\AppData\Local\Temp\ccHGOiBE.s:14827  .debug_str:00000000000014bd .LASF202
C:\Users\stapi\AppData\Local\Temp\ccHGOiBE.s:14619  .debug_str:0000000000000d6e .LASF203
C:\Users\stapi\AppData\Local\Temp\ccHGOiBE.s:14317  .debug_str:0000000000000402 .LASF204
C:\Users\stapi\AppData\Local\Temp\ccHGOiBE.s:14985  .debug_str:0000000000001a36 .LASF205
C:\Users\stapi\AppData\Local\Temp\ccHGOiBE.s:15131  .debug_str:0000000000001eb7 .LASF206
C:\Users\stapi\AppData\Local\Temp\ccHGOiBE.s:14667  .debug_str:0000000000000ee8 .LASF207
C:\Users\stapi\AppData\Local\Temp\ccHGOiBE.s:15129  .debug_str:0000000000001ea8 .LASF208
C:\Users\stapi\AppData\Local\Temp\ccHGOiBE.s:15031  .debug_str:0000000000001b95 .LASF209
C:\Users\stapi\AppData\Local\Temp\ccHGOiBE.s:14593  .debug_str:0000000000000c97 .LASF210
C:\Users\stapi\AppData\Local\Temp\ccHGOiBE.s:15341  .debug_str:0000000000002574 .LASF211
C:\Users\stapi\AppData\Local\Temp\ccHGOiBE.s:15351  .debug_str:00000000000025cd .LASF212
C:\Users\stapi\AppData\Local\Temp\ccHGOiBE.s:15101  .debug_str:0000000000001da4 .LASF213
C:\Users\stapi\AppData\Local\Temp\ccHGOiBE.s:14781  .debug_str:0000000000001358 .LASF214
C:\Users\stapi\AppData\Local\Temp\ccHGOiBE.s:14913  .debug_str:00000000000017cf .LASF215
C:\Users\stapi\AppData\Local\Temp\ccHGOiBE.s:15069  .debug_str:0000000000001ccd .LASF216
C:\Users\stapi\AppData\Local\Temp\ccHGOiBE.s:15075  .debug_str:0000000000001d14 .LASF217
C:\Users\stapi\AppData\Local\Temp\ccHGOiBE.s:14497  .debug_str:00000000000009ee .LASF218
C:\Users\stapi\AppData\Local\Temp\ccHGOiBE.s:14705  .debug_str:00000000000010fb .LASF219
C:\Users\stapi\AppData\Local\Temp\ccHGOiBE.s:15369  .debug_str:0000000000002656 .LASF220
C:\Users\stapi\AppData\Local\Temp\ccHGOiBE.s:14699  .debug_str:0000000000000fe2 .LASF221
C:\Users\stapi\AppData\Local\Temp\ccHGOiBE.s:14885  .debug_str:00000000000016f3 .LASF222
C:\Users\stapi\AppData\Local\Temp\ccHGOiBE.s:14313  .debug_str:00000000000003f4 .LASF223
C:\Users\stapi\AppData\Local\Temp\ccHGOiBE.s:14185  .debug_str:000000000000002e .LASF224
C:\Users\stapi\AppData\Local\Temp\ccHGOiBE.s:14797  .debug_str:00000000000013bf .LASF225
C:\Users\stapi\AppData\Local\Temp\ccHGOiBE.s:14409  .debug_str:0000000000000724 .LASF226
C:\Users\stapi\AppData\Local\Temp\ccHGOiBE.s:15125  .debug_str:0000000000001e8e .LASF227
C:\Users\stapi\AppData\Local\Temp\ccHGOiBE.s:14815  .debug_str:0000000000001451 .LASF228
C:\Users\stapi\AppData\Local\Temp\ccHGOiBE.s:15083  .debug_str:0000000000001d48 .LASF229
C:\Users\stapi\AppData\Local\Temp\ccHGOiBE.s:14693  .debug_str:0000000000000fce .LASF230
C:\Users\stapi\AppData\Local\Temp\ccHGOiBE.s:14711  .debug_str:0000000000001121 .LASF231
C:\Users\stapi\AppData\Local\Temp\ccHGOiBE.s:14589  .debug_str:0000000000000c79 .LASF232
C:\Users\stapi\AppData\Local\Temp\ccHGOiBE.s:14443  .debug_str:0000000000000831 .LASF233
C:\Users\stapi\AppData\Local\Temp\ccHGOiBE.s:14837  .debug_str:000000000000151e .LASF234
C:\Users\stapi\AppData\Local\Temp\ccHGOiBE.s:14955  .debug_str:0000000000001925 .LASF235
C:\Users\stapi\AppData\Local\Temp\ccHGOiBE.s:15379  .debug_str:00000000000026bc .LASF236
C:\Users\stapi\AppData\Local\Temp\ccHGOiBE.s:14525  .debug_str:0000000000000abe .LASF237
C:\Users\stapi\AppData\Local\Temp\ccHGOiBE.s:14809  .debug_str:0000000000001433 .LASF238
C:\Users\stapi\AppData\Local\Temp\ccHGOiBE.s:15289  .debug_str:00000000000023d0 .LASF239
C:\Users\stapi\AppData\Local\Temp\ccHGOiBE.s:15229  .debug_str:0000000000002213 .LASF240
C:\Users\stapi\AppData\Local\Temp\ccHGOiBE.s:14189  .debug_str:000000000000004e .LASF241
C:\Users\stapi\AppData\Local\Temp\ccHGOiBE.s:14897  .debug_str:000000000000173e .LASF242
C:\Users\stapi\AppData\Local\Temp\ccHGOiBE.s:14261  .debug_str:000000000000024c .LASF243
C:\Users\stapi\AppData\Local\Temp\ccHGOiBE.s:14945  .debug_str:00000000000018b2 .LASF244
C:\Users\stapi\AppData\Local\Temp\ccHGOiBE.s:15165  .debug_str:0000000000001fcc .LASF245
C:\Users\stapi\AppData\Local\Temp\ccHGOiBE.s:14743  .debug_str:0000000000001225 .LASF246
C:\Users\stapi\AppData\Local\Temp\ccHGOiBE.s:14891  .debug_str:0000000000001721 .LASF256
C:\Users\stapi\AppData\Local\Temp\ccHGOiBE.s:14559  .debug_str:0000000000000b93 .LASF247
C:\Users\stapi\AppData\Local\Temp\ccHGOiBE.s:15233  .debug_str:000000000000222e .LASF248
C:\Users\stapi\AppData\Local\Temp\ccHGOiBE.s:15223  .debug_str:00000000000021c9 .LASF249
C:\Users\stapi\AppData\Local\Temp\ccHGOiBE.s:15149  .debug_str:0000000000001f23 .LASF250
C:\Users\stapi\AppData\Local\Temp\ccHGOiBE.s:14747  .debug_str:0000000000001244 .LASF251
C:\Users\stapi\AppData\Local\Temp\ccHGOiBE.s:14731  .debug_str:00000000000011c2 .LASF252
C:\Users\stapi\AppData\Local\Temp\ccHGOiBE.s:14439  .debug_str:000000000000080f .LASF253
C:\Users\stapi\AppData\Local\Temp\ccHGOiBE.s:14997  .debug_str:0000000000001a85 .LASF254
C:\Users\stapi\AppData\Local\Temp\ccHGOiBE.s:14935  .debug_str:0000000000001874 .LASF255
C:\Users\stapi\AppData\Local\Temp\ccHGOiBE.s:14709  .debug_str:000000000000111c .LASF257
C:\Users\stapi\AppData\Local\Temp\ccHGOiBE.s:14243  .debug_str:00000000000001c5 .LASF258
C:\Users\stapi\AppData\Local\Temp\ccHGOiBE.s:14965  .debug_str:000000000000196c .LASF259
C:\Users\stapi\AppData\Local\Temp\ccHGOiBE.s:14563  .debug_str:0000000000000bb9 .LASF260
C:\Users\stapi\AppData\Local\Temp\ccHGOiBE.s:14419  .debug_str:0000000000000767 .LASF261
C:\Users\stapi\AppData\Local\Temp\ccHGOiBE.s:14753  .debug_str:000000000000127b .LASF262
C:\Users\stapi\AppData\Local\Temp\ccHGOiBE.s:14959  .debug_str:0000000000001948 .LASF263
C:\Users\stapi\AppData\Local\Temp\ccHGOiBE.s:14703  .debug_str:00000000000010ed .LASF264
C:\Users\stapi\AppData\Local\Temp\ccHGOiBE.s:15007  .debug_str:0000000000001aec .LASF265
C:\Users\stapi\AppData\Local\Temp\ccHGOiBE.s:15329  .debug_str:0000000000002504 .LASF266
C:\Users\stapi\AppData\Local\Temp\ccHGOiBE.s:15147  .debug_str:0000000000001f12 .LASF267
C:\Users\stapi\AppData\Local\Temp\ccHGOiBE.s:14221  .debug_str:0000000000000111 .LASF268
C:\Users\stapi\AppData\Local\Temp\ccHGOiBE.s:14927  .debug_str:0000000000001834 .LASF269
C:\Users\stapi\AppData\Local\Temp\ccHGOiBE.s:14871  .debug_str:0000000000001628 .LASF270
C:\Users\stapi\AppData\Local\Temp\ccHGOiBE.s:14899  .debug_str:000000000000174d .LASF271
C:\Users\stapi\AppData\Local\Temp\ccHGOiBE.s:14453  .debug_str:0000000000000878 .LASF272
C:\Users\stapi\AppData\Local\Temp\ccHGOiBE.s:15281  .debug_str:0000000000002385 .LASF273
C:\Users\stapi\AppData\Local\Temp\ccHGOiBE.s:14875  .debug_str:0000000000001646 .LASF274
C:\Users\stapi\AppData\Local\Temp\ccHGOiBE.s:14823  .debug_str:0000000000001485 .LASF275
C:\Users\stapi\AppData\Local\Temp\ccHGOiBE.s:15135  .debug_str:0000000000001ed6 .LASF276
C:\Users\stapi\AppData\Local\Temp\ccHGOiBE.s:14463  .debug_str:00000000000008c1 .LASF277
C:\Users\stapi\AppData\Local\Temp\ccHGOiBE.s:14735  .debug_str:00000000000011e2 .LASF278
C:\Users\stapi\AppData\Local\Temp\ccHGOiBE.s:15025  .debug_str:0000000000001b6a .LASF279
C:\Users\stapi\AppData\Local\Temp\ccHGOiBE.s:15301  .debug_str:0000000000002431 .LASF280
C:\Users\stapi\AppData\Local\Temp\ccHGOiBE.s:14865  .debug_str:00000000000015ff .LASF281
C:\Users\stapi\AppData\Local\Temp\ccHGOiBE.s:15093  .debug_str:0000000000001d77 .LASF282
C:\Users\stapi\AppData\Local\Temp\ccHGOiBE.s:14673  .debug_str:0000000000000f17 .LASF283
C:\Users\stapi\AppData\Local\Temp\ccHGOiBE.s:15195  .debug_str:00000000000020ca .LASF284
C:\Users\stapi\AppData\Local\Temp\ccHGOiBE.s:15249  .debug_str:00000000000022a3 .LASF285
C:\Users\stapi\AppData\Local\Temp\ccHGOiBE.s:15127  .debug_str:0000000000001e9b .LASF286
C:\Users\stapi\AppData\Local\Temp\ccHGOiBE.s:14989  .debug_str:0000000000001a4b .LASF287
C:\Users\stapi\AppData\Local\Temp\ccHGOiBE.s:14689  .debug_str:0000000000000f9c .LASF288
C:\Users\stapi\AppData\Local\Temp\ccHGOiBE.s:15053  .debug_str:0000000000001c30 .LASF289
C:\Users\stapi\AppData\Local\Temp\ccHGOiBE.s:14413  .debug_str:0000000000000737 .LASF290
C:\Users\stapi\AppData\Local\Temp\ccHGOiBE.s:14777  .debug_str:0000000000001334 .LASF291
C:\Users\stapi\AppData\Local\Temp\ccHGOiBE.s:15085  .debug_str:0000000000001d50 .LASF292
C:\Users\stapi\AppData\Local\Temp\ccHGOiBE.s:14575  .debug_str:0000000000000c04 .LASF293
C:\Users\stapi\AppData\Local\Temp\ccHGOiBE.s:14179  .debug_str:0000000000000000 .LASF294
C:\Users\stapi\AppData\Local\Temp\ccHGOiBE.s:14181  .debug_str:0000000000000010 .LASF295
C:\Users\stapi\AppData\Local\Temp\ccHGOiBE.s:15077  .debug_str:0000000000001d20 .LASF296
C:\Users\stapi\AppData\Local\Temp\ccHGOiBE.s:15373  .debug_str:0000000000002686 .LASF297
C:\Users\stapi\AppData\Local\Temp\ccHGOiBE.s:14367  .debug_str:00000000000005ed .LASF298
C:\Users\stapi\AppData\Local\Temp\ccHGOiBE.s:14545  .debug_str:0000000000000b31 .LASF299
C:\Users\stapi\AppData\Local\Temp\ccHGOiBE.s:15005  .debug_str:0000000000001ad3 .LASF300
C:\Users\stapi\AppData\Local\Temp\ccHGOiBE.s:15227  .debug_str:00000000000021fb .LASF301
C:\Users\stapi\AppData\Local\Temp\ccHGOiBE.s:15255  .debug_str:00000000000022d3 .LASF302
C:\Users\stapi\AppData\Local\Temp\ccHGOiBE.s:14957  .debug_str:000000000000192f .LASF303
C:\Users\stapi\AppData\Local\Temp\ccHGOiBE.s:15293  .debug_str:00000000000023ec .LASF304
C:\Users\stapi\AppData\Local\Temp\ccHGOiBE.s:14495  .debug_str:00000000000009d3 .LASF305
C:\Users\stapi\AppData\Local\Temp\ccHGOiBE.s:14853  .debug_str:00000000000015a0 .LASF306
C:\Users\stapi\AppData\Local\Temp\ccHGOiBE.s:14601  .debug_str:0000000000000cd8 .LASF307
C:\Users\stapi\AppData\Local\Temp\ccHGOiBE.s:14847  .debug_str:000000000000156d .LASF308
C:\Users\stapi\AppData\Local\Temp\ccHGOiBE.s:14975  .debug_str:00000000000019b1 .LASF309
C:\Users\stapi\AppData\Local\Temp\ccHGOiBE.s:15381  .debug_str:00000000000026c7 .LASF310
C:\Users\stapi\AppData\Local\Temp\ccHGOiBE.s:14857  .debug_str:00000000000015c1 .LASF311
C:\Users\stapi\AppData\Local\Temp\ccHGOiBE.s:15371  .debug_str:0000000000002668 .LASF312
C:\Users\stapi\AppData\Local\Temp\ccHGOiBE.s:15105  .debug_str:0000000000001dc0 .LASF313
C:\Users\stapi\AppData\Local\Temp\ccHGOiBE.s:14803  .debug_str:00000000000013ef .LASF314
C:\Users\stapi\AppData\Local\Temp\ccHGOiBE.s:14647  .debug_str:0000000000000e4c .LASF315
C:\Users\stapi\AppData\Local\Temp\ccHGOiBE.s:15057  .debug_str:0000000000001c51 .LASF316
C:\Users\stapi\AppData\Local\Temp\ccHGOiBE.s:14469  .debug_str:00000000000008eb .LASF317
C:\Users\stapi\AppData\Local\Temp\ccHGOiBE.s:15179  .debug_str:0000000000002034 .LASF318
C:\Users\stapi\AppData\Local\Temp\ccHGOiBE.s:15121  .debug_str:0000000000001e5a .LASF319
C:\Users\stapi\AppData\Local\Temp\ccHGOiBE.s:14947  .debug_str:00000000000018c3 .LASF320
C:\Users\stapi\AppData\Local\Temp\ccHGOiBE.s:14347  .debug_str:0000000000000524 .LASF321
C:\Users\stapi\AppData\Local\Temp\ccHGOiBE.s:14835  .debug_str:00000000000014fd .LASF322
C:\Users\stapi\AppData\Local\Temp\ccHGOiBE.s:14979  .debug_str:00000000000019dd .LASF323
C:\Users\stapi\AppData\Local\Temp\ccHGOiBE.s:14923  .debug_str:0000000000001809 .LASF324
C:\Users\stapi\AppData\Local\Temp\ccHGOiBE.s:14691  .debug_str:0000000000000fab .LASF325
C:\Users\stapi\AppData\Local\Temp\ccHGOiBE.s:15113  .debug_str:0000000000001e06 .LASF326
C:\Users\stapi\AppData\Local\Temp\ccHGOiBE.s:14357  .debug_str:0000000000000585 .LASF327
C:\Users\stapi\AppData\Local\Temp\ccHGOiBE.s:14237  .debug_str:0000000000000183 .LASF328
C:\Users\stapi\AppData\Local\Temp\ccHGOiBE.s:15399  .debug_str:0000000000002755 .LASF329
C:\Users\stapi\AppData\Local\Temp\ccHGOiBE.s:15161  .debug_str:0000000000001f9a .LASF330
C:\Users\stapi\AppData\Local\Temp\ccHGOiBE.s:15253  .debug_str:00000000000022bb .LASF331
C:\Users\stapi\AppData\Local\Temp\ccHGOiBE.s:15225  .debug_str:00000000000021e2 .LASF332
C:\Users\stapi\AppData\Local\Temp\ccHGOiBE.s:14283  .debug_str:00000000000002ec .LASF333
C:\Users\stapi\AppData\Local\Temp\ccHGOiBE.s:14429  .debug_str:00000000000007bb .LASF334
C:\Users\stapi\AppData\Local\Temp\ccHGOiBE.s:14267  .debug_str:0000000000000272 .LASF335
C:\Users\stapi\AppData\Local\Temp\ccHGOiBE.s:14397  .debug_str:00000000000006c9 .LASF336
C:\Users\stapi\AppData\Local\Temp\ccHGOiBE.s:14817  .debug_str:0000000000001465 .LASF337
C:\Users\stapi\AppData\Local\Temp\ccHGOiBE.s:14967  .debug_str:0000000000001972 .LASF338
C:\Users\stapi\AppData\Local\Temp\ccHGOiBE.s:14543  .debug_str:0000000000000b24 .LASF339
C:\Users\stapi\AppData\Local\Temp\ccHGOiBE.s:15023  .debug_str:0000000000001b5d .LASF340
C:\Users\stapi\AppData\Local\Temp\ccHGOiBE.s:14219  .debug_str:0000000000000104 .LASF341
C:\Users\stapi\AppData\Local\Temp\ccHGOiBE.s:15413  .debug_str:00000000000027ba .LASF342
C:\Users\stapi\AppData\Local\Temp\ccHGOiBE.s:15049  .debug_str:0000000000001c1b .LASF343
C:\Users\stapi\AppData\Local\Temp\ccHGOiBE.s:14265  .debug_str:0000000000000263 .LASF344
C:\Users\stapi\AppData\Local\Temp\ccHGOiBE.s:14995  .debug_str:0000000000001a76 .LASF345
C:\Users\stapi\AppData\Local\Temp\ccHGOiBE.s:15013  .debug_str:0000000000001b19 .LASF346
C:\Users\stapi\AppData\Local\Temp\ccHGOiBE.s:15349  .debug_str:00000000000025c1 .LASF347
C:\Users\stapi\AppData\Local\Temp\ccHGOiBE.s:14627  .debug_str:0000000000000dc6 .LASF348
C:\Users\stapi\AppData\Local\Temp\ccHGOiBE.s:14621  .debug_str:0000000000000d7b .LASF349
C:\Users\stapi\AppData\Local\Temp\ccHGOiBE.s:15039  .debug_str:0000000000001bcf .LASF350
C:\Users\stapi\AppData\Local\Temp\ccHGOiBE.s:15273  .debug_str:000000000000233e .LASF351
C:\Users\stapi\AppData\Local\Temp\ccHGOiBE.s:14259  .debug_str:000000000000023b .LASF352
C:\Users\stapi\AppData\Local\Temp\ccHGOiBE.s:15389  .debug_str:0000000000002705 .LASF353
C:\Users\stapi\AppData\Local\Temp\ccHGOiBE.s:15143  .debug_str:0000000000001efb .LASF354
C:\Users\stapi\AppData\Local\Temp\ccHGOiBE.s:14431  .debug_str:00000000000007d7 .LASF355
C:\Users\stapi\AppData\Local\Temp\ccHGOiBE.s:15089  .debug_str:0000000000001d66 .LASF356
C:\Users\stapi\AppData\Local\Temp\ccHGOiBE.s:14303  .debug_str:0000000000000385 .LASF357
C:\Users\stapi\AppData\Local\Temp\ccHGOiBE.s:15211  .debug_str:0000000000002154 .LASF358
C:\Users\stapi\AppData\Local\Temp\ccHGOiBE.s:15033  .debug_str:0000000000001b9c .LASF359
C:\Users\stapi\AppData\Local\Temp\ccHGOiBE.s:15065  .debug_str:0000000000001c9f .LASF360
C:\Users\stapi\AppData\Local\Temp\ccHGOiBE.s:14451  .debug_str:0000000000000871 .LASF361
C:\Users\stapi\AppData\Local\Temp\ccHGOiBE.s:14841  .debug_str:0000000000001542 .LASF362
C:\Users\stapi\AppData\Local\Temp\ccHGOiBE.s:15231  .debug_str:000000000000221a .LASF363
C:\Users\stapi\AppData\Local\Temp\ccHGOiBE.s:14969  .debug_str:000000000000197c .LASF364
C:\Users\stapi\AppData\Local\Temp\ccHGOiBE.s:14323  .debug_str:0000000000000428 .LASF365
C:\Users\stapi\AppData\Local\Temp\ccHGOiBE.s:14449  .debug_str:0000000000000856 .LASF366
C:\Users\stapi\AppData\Local\Temp\ccHGOiBE.s:14741  .debug_str:000000000000120b .LASF367
C:\Users\stapi\AppData\Local\Temp\ccHGOiBE.s:14611  .debug_str:0000000000000d2a .LASF368
C:\Users\stapi\AppData\Local\Temp\ccHGOiBE.s:14789  .debug_str:0000000000001380 .LASF369
C:\Users\stapi\AppData\Local\Temp\ccHGOiBE.s:14583  .debug_str:0000000000000c44 .LASF370
C:\Users\stapi\AppData\Local\Temp\ccHGOiBE.s:14213  .debug_str:00000000000000d9 .LASF371
C:\Users\stapi\AppData\Local\Temp\ccHGOiBE.s:15325  .debug_str:00000000000024e3 .LASF372
C:\Users\stapi\AppData\Local\Temp\ccHGOiBE.s:15423  .debug_str:0000000000002804 .LASF373
C:\Users\stapi\AppData\Local\Temp\ccHGOiBE.s:14299  .debug_str:0000000000000367 .LASF374
C:\Users\stapi\AppData\Local\Temp\ccHGOiBE.s:14407  .debug_str:0000000000000711 .LASF375
C:\Users\stapi\AppData\Local\Temp\ccHGOiBE.s:14399  .debug_str:00000000000006d2 .LASF376
C:\Users\stapi\AppData\Local\Temp\ccHGOiBE.s:14199  .debug_str:0000000000000088 .LASF377
C:\Users\stapi\AppData\Local\Temp\ccHGOiBE.s:15417  .debug_str:00000000000027d8 .LASF378
C:\Users\stapi\AppData\Local\Temp\ccHGOiBE.s:14669  .debug_str:0000000000000efa .LASF379
C:\Users\stapi\AppData\Local\Temp\ccHGOiBE.s:15287  .debug_str:00000000000023b8 .LASF380
C:\Users\stapi\AppData\Local\Temp\ccHGOiBE.s:14615  .debug_str:0000000000000d4f .LASF381
C:\Users\stapi\AppData\Local\Temp\ccHGOiBE.s:15079  .debug_str:0000000000001d30 .LASF382
C:\Users\stapi\AppData\Local\Temp\ccHGOiBE.s:15403  .debug_str:000000000000278b .LASF383
C:\Users\stapi\AppData\Local\Temp\ccHGOiBE.s:14365  .debug_str:00000000000005d7 .LASF384
C:\Users\stapi\AppData\Local\Temp\ccHGOiBE.s:14707  .debug_str:000000000000110b .LASF385
C:\Users\stapi\AppData\Local\Temp\ccHGOiBE.s:15409  .debug_str:000000000000279e .LASF386
C:\Users\stapi\AppData\Local\Temp\ccHGOiBE.s:15305  .debug_str:000000000000244d .LASF387
C:\Users\stapi\AppData\Local\Temp\ccHGOiBE.s:14983  .debug_str:0000000000001a20 .LASF388
C:\Users\stapi\AppData\Local\Temp\ccHGOiBE.s:14695  .debug_str:0000000000000fd7 .LASF389
C:\Users\stapi\AppData\Local\Temp\ccHGOiBE.s:15011  .debug_str:0000000000001b01 .LASF390
C:\Users\stapi\AppData\Local\Temp\ccHGOiBE.s:15347  .debug_str:00000000000025a4 .LASF391
C:\Users\stapi\AppData\Local\Temp\ccHGOiBE.s:15171  .debug_str:0000000000001ffc .LASF392
C:\Users\stapi\AppData\Local\Temp\ccHGOiBE.s:15275  .debug_str:000000000000234e .LASF393
C:\Users\stapi\AppData\Local\Temp\ccHGOiBE.s:14225  .debug_str:000000000000012c .LASF394
C:\Users\stapi\AppData\Local\Temp\ccHGOiBE.s:14523  .debug_str:0000000000000aa7 .LASF395
C:\Users\stapi\AppData\Local\Temp\ccHGOiBE.s:15311  .debug_str:0000000000002467 .LASF396
C:\Users\stapi\AppData\Local\Temp\ccHGOiBE.s:14253  .debug_str:0000000000000203 .LASF397
C:\Users\stapi\AppData\Local\Temp\ccHGOiBE.s:14625  .debug_str:0000000000000dac .LASF398
C:\Users\stapi\AppData\Local\Temp\ccHGOiBE.s:14485  .debug_str:0000000000000981 .LASF399
C:\Users\stapi\AppData\Local\Temp\ccHGOiBE.s:15323  .debug_str:00000000000024cd .LASF400
C:\Users\stapi\AppData\Local\Temp\ccHGOiBE.s:14427  .debug_str:00000000000007a2 .LASF401
C:\Users\stapi\AppData\Local\Temp\ccHGOiBE.s:14843  .debug_str:000000000000154a .LASF402
C:\Users\stapi\AppData\Local\Temp\ccHGOiBE.s:15395  .debug_str:0000000000002730 .LASF403
C:\Users\stapi\AppData\Local\Temp\ccHGOiBE.s:14477  .debug_str:0000000000000940 .LASF404
C:\Users\stapi\AppData\Local\Temp\ccHGOiBE.s:14715  .debug_str:000000000000114e .LASF405
C:\Users\stapi\AppData\Local\Temp\ccHGOiBE.s:15245  .debug_str:0000000000002282 .LASF406
C:\Users\stapi\AppData\Local\Temp\ccHGOiBE.s:14597  .debug_str:0000000000000cb6 .LASF407
C:\Users\stapi\AppData\Local\Temp\ccHGOiBE.s:14713  .debug_str:0000000000001133 .LASF408
C:\Users\stapi\AppData\Local\Temp\ccHGOiBE.s:14369  .debug_str:0000000000000604 .LASF409
C:\Users\stapi\AppData\Local\Temp\ccHGOiBE.s:15155  .debug_str:0000000000001f55 .LASF410
C:\Users\stapi\AppData\Local\Temp\ccHGOiBE.s:14229  .debug_str:0000000000000143 .LASF411
C:\Users\stapi\AppData\Local\Temp\ccHGOiBE.s:15215  .debug_str:0000000000002183 .LASF412
C:\Users\stapi\AppData\Local\Temp\ccHGOiBE.s:14513  .debug_str:0000000000000a55 .LASF413
C:\Users\stapi\AppData\Local\Temp\ccHGOiBE.s:14981  .debug_str:0000000000001a02 .LASF414
C:\Users\stapi\AppData\Local\Temp\ccHGOiBE.s:14907  .debug_str:0000000000001793 .LASF415
C:\Users\stapi\AppData\Local\Temp\ccHGOiBE.s:14569  .debug_str:0000000000000bcd .LASF416
C:\Users\stapi\AppData\Local\Temp\ccHGOiBE.s:15073  .debug_str:0000000000001cf3 .LASF417
C:\Users\stapi\AppData\Local\Temp\ccHGOiBE.s:14685  .debug_str:0000000000000f6e .LASF418
C:\Users\stapi\AppData\Local\Temp\ccHGOiBE.s:14235  .debug_str:0000000000000169 .LASF419
C:\Users\stapi\AppData\Local\Temp\ccHGOiBE.s:15321  .debug_str:00000000000024b5 .LASF420
C:\Users\stapi\AppData\Local\Temp\ccHGOiBE.s:14779  .debug_str:0000000000001343 .LASF421
C:\Users\stapi\AppData\Local\Temp\ccHGOiBE.s:14973  .debug_str:0000000000001994 .LASF422
C:\Users\stapi\AppData\Local\Temp\ccHGOiBE.s:15015  .debug_str:0000000000001b28 .LASF423
C:\Users\stapi\AppData\Local\Temp\ccHGOiBE.s:14381  .debug_str:000000000000064e .LASF424
C:\Users\stapi\AppData\Local\Temp\ccHGOiBE.s:14305  .debug_str:00000000000003ab .LASF425
C:\Users\stapi\AppData\Local\Temp\ccHGOiBE.s:14819  .debug_str:0000000000001470 .LASF426
C:\Users\stapi\AppData\Local\Temp\ccHGOiBE.s:14549  .debug_str:0000000000000b52 .LASF427
C:\Users\stapi\AppData\Local\Temp\ccHGOiBE.s:14671  .debug_str:0000000000000f03 .LASF428
C:\Users\stapi\AppData\Local\Temp\ccHGOiBE.s:15193  .debug_str:00000000000020b3 .LASF429
C:\Users\stapi\AppData\Local\Temp\ccHGOiBE.s:14901  .debug_str:000000000000175c .LASF430
C:\Users\stapi\AppData\Local\Temp\ccHGOiBE.s:15167  .debug_str:0000000000001fda .LASF431
C:\Users\stapi\AppData\Local\Temp\ccHGOiBE.s:14799  .debug_str:00000000000013c4 .LASF432
C:\Users\stapi\AppData\Local\Temp\ccHGOiBE.s:14521  .debug_str:0000000000000a92 .LASF433
C:\Users\stapi\AppData\Local\Temp\ccHGOiBE.s:14807  .debug_str:000000000000141b .LASF434
C:\Users\stapi\AppData\Local\Temp\ccHGOiBE.s:14623  .debug_str:0000000000000d8e .LASF435
C:\Users\stapi\AppData\Local\Temp\ccHGOiBE.s:15157  .debug_str:0000000000001f73 .LASF436
C:\Users\stapi\AppData\Local\Temp\ccHGOiBE.s:14507  .debug_str:0000000000000a2a .LASF437
C:\Users\stapi\AppData\Local\Temp\ccHGOiBE.s:14839  .debug_str:0000000000001523 .LASF438
C:\Users\stapi\AppData\Local\Temp\ccHGOiBE.s:14595  .debug_str:0000000000000ca7 .LASF439
C:\Users\stapi\AppData\Local\Temp\ccHGOiBE.s:14749  .debug_str:0000000000001259 .LASF440
C:\Users\stapi\AppData\Local\Temp\ccHGOiBE.s:14573  .debug_str:0000000000000bf6 .LASF441
C:\Users\stapi\AppData\Local\Temp\ccHGOiBE.s:15427  .debug_str:000000000000282d .LASF442
C:\Users\stapi\AppData\Local\Temp\ccHGOiBE.s:14541  .debug_str:0000000000000b16 .LASF443
C:\Users\stapi\AppData\Local\Temp\ccHGOiBE.s:14649  .debug_str:0000000000000e6b .LASF444
C:\Users\stapi\AppData\Local\Temp\ccHGOiBE.s:14909  .debug_str:00000000000017ba .LASF445
C:\Users\stapi\AppData\Local\Temp\ccHGOiBE.s:15365  .debug_str:0000000000002630 .LASF446
C:\Users\stapi\AppData\Local\Temp\ccHGOiBE.s:14931  .debug_str:0000000000001852 .LASF447
C:\Users\stapi\AppData\Local\Temp\ccHGOiBE.s:14591  .debug_str:0000000000000c84 .LASF448
C:\Users\stapi\AppData\Local\Temp\ccHGOiBE.s:14403  .debug_str:00000000000006ec .LASF449
C:\Users\stapi\AppData\Local\Temp\ccHGOiBE.s:14249  .debug_str:00000000000001e1 .LASF450
C:\Users\stapi\AppData\Local\Temp\ccHGOiBE.s:14725  .debug_str:0000000000001191 .LASF451
C:\Users\stapi\AppData\Local\Temp\ccHGOiBE.s:15109  .debug_str:0000000000001de5 .LASF452
C:\Users\stapi\AppData\Local\Temp\ccHGOiBE.s:15115  .debug_str:0000000000001e25 .LASF453
C:\Users\stapi\AppData\Local\Temp\ccHGOiBE.s:14415  .debug_str:0000000000000746 .LASF454
C:\Users\stapi\AppData\Local\Temp\ccHGOiBE.s:14605  .debug_str:0000000000000d04 .LASF455
C:\Users\stapi\AppData\Local\Temp\ccHGOiBE.s:14767  .debug_str:00000000000012dc .LASF456
C:\Users\stapi\AppData\Local\Temp\ccHGOiBE.s:14953  .debug_str:000000000000190b .LASF457
C:\Users\stapi\AppData\Local\Temp\ccHGOiBE.s:14825  .debug_str:0000000000001499 .LASF458
C:\Users\stapi\AppData\Local\Temp\ccHGOiBE.s:14517  .debug_str:0000000000000a7f .LASF459
C:\Users\stapi\AppData\Local\Temp\ccHGOiBE.s:14393  .debug_str:00000000000006aa .LASF460
C:\Users\stapi\AppData\Local\Temp\ccHGOiBE.s:14405  .debug_str:00000000000006fc .LASF461
C:\Users\stapi\AppData\Local\Temp\ccHGOiBE.s:15197  .debug_str:00000000000020df .LASF462
C:\Users\stapi\AppData\Local\Temp\ccHGOiBE.s:14681  .debug_str:0000000000000f52 .LASF463
C:\Users\stapi\AppData\Local\Temp\ccHGOiBE.s:14501  .debug_str:0000000000000a0b .LASF464
C:\Users\stapi\AppData\Local\Temp\ccHGOiBE.s:14257  .debug_str:000000000000022d .LASF465
C:\Users\stapi\AppData\Local\Temp\ccHGOiBE.s:15317  .debug_str:0000000000002495 .LASF466
C:\Users\stapi\AppData\Local\Temp\ccHGOiBE.s:14205  .debug_str:00000000000000ad .LASF467
C:\Users\stapi\AppData\Local\Temp\ccHGOiBE.s:15009  .debug_str:0000000000001af3 .LASF468
C:\Users\stapi\AppData\Local\Temp\ccHGOiBE.s:14287  .debug_str:0000000000000313 .LASF469
C:\Users\stapi\AppData\Local\Temp\ccHGOiBE.s:14533  .debug_str:0000000000000adf .LASF470
C:\Users\stapi\AppData\Local\Temp\ccHGOiBE.s:14493  .debug_str:00000000000009c6 .LASF471
C:\Users\stapi\AppData\Local\Temp\ccHGOiBE.s:14873  .debug_str:0000000000001639 .LASF472
C:\Users\stapi\AppData\Local\Temp\ccHGOiBE.s:14251  .debug_str:00000000000001f4 .LASF473
C:\Users\stapi\AppData\Local\Temp\ccHGOiBE.s:14321  .debug_str:0000000000000417 .LASF474
C:\Users\stapi\AppData\Local\Temp\ccHGOiBE.s:15067  .debug_str:0000000000001cc0 .LASF475
C:\Users\stapi\AppData\Local\Temp\ccHGOiBE.s:15359  .debug_str:0000000000002613 .LASF476
C:\Users\stapi\AppData\Local\Temp\ccHGOiBE.s:14377  .debug_str:0000000000000637 .LASF477
C:\Users\stapi\AppData\Local\Temp\ccHGOiBE.s:14851  .debug_str:0000000000001590 .LASF478
C:\Users\stapi\AppData\Local\Temp\ccHGOiBE.s:14387  .debug_str:0000000000000677 .LASF479
C:\Users\stapi\AppData\Local\Temp\ccHGOiBE.s:14643  .debug_str:0000000000000e2b .LASF480
C:\Users\stapi\AppData\Local\Temp\ccHGOiBE.s:15357  .debug_str:0000000000002603 .LASF481
C:\Users\stapi\AppData\Local\Temp\ccHGOiBE.s:15117  .debug_str:0000000000001e39 .LASF482
C:\Users\stapi\AppData\Local\Temp\ccHGOiBE.s:14949  .debug_str:00000000000018e8 .LASF483
C:\Users\stapi\AppData\Local\Temp\ccHGOiBE.s:15393  .debug_str:0000000000002721 .LASF484
C:\Users\stapi\AppData\Local\Temp\ccHGOiBE.s:15387  .debug_str:00000000000026f6 .LASF485
C:\Users\stapi\AppData\Local\Temp\ccHGOiBE.s:15343  .debug_str:0000000000002581 .LASF486
C:\Users\stapi\AppData\Local\Temp\ccHGOiBE.s:14609  .debug_str:0000000000000d20 .LASF487
C:\Users\stapi\AppData\Local\Temp\ccHGOiBE.s:14425  .debug_str:000000000000078c .LASF488
C:\Users\stapi\AppData\Local\Temp\ccHGOiBE.s:15205  .debug_str:000000000000210f .LASF489
C:\Users\stapi\AppData\Local\Temp\ccHGOiBE.s:15339  .debug_str:000000000000255f .LASF490
C:\Users\stapi\AppData\Local\Temp\ccHGOiBE.s:15367  .debug_str:000000000000263f .LASF491
C:\Users\stapi\AppData\Local\Temp\ccHGOiBE.s:14361  .debug_str:00000000000005b5 .LASF492
C:\Users\stapi\AppData\Local\Temp\ccHGOiBE.s:15187  .debug_str:0000000000002084 .LASF493
C:\Users\stapi\AppData\Local\Temp\ccHGOiBE.s:14657  .debug_str:0000000000000ea4 .LASF494
C:\Users\stapi\AppData\Local\Temp\ccHGOiBE.s:14635  .debug_str:0000000000000dfa .LASF495
C:\Users\stapi\AppData\Local\Temp\ccHGOiBE.s:14991  .debug_str:0000000000001a5b .LASF496
C:\Users\stapi\AppData\Local\Temp\ccHGOiBE.s:14401  .debug_str:00000000000006de .LASF497
C:\Users\stapi\AppData\Local\Temp\ccHGOiBE.s:14215  .debug_str:00000000000000f0 .LASF498
C:\Users\stapi\AppData\Local\Temp\ccHGOiBE.s:14697  .debug_str:0000000000000fdc .LASF499
C:\Users\stapi\AppData\Local\Temp\ccHGOiBE.s:15173  .debug_str:000000000000200d .LASF500
C:\Users\stapi\AppData\Local\Temp\ccHGOiBE.s:14587  .debug_str:0000000000000c6f .LASF501
C:\Users\stapi\AppData\Local\Temp\ccHGOiBE.s:14737  .debug_str:00000000000011f6 .LASF502
C:\Users\stapi\AppData\Local\Temp\ccHGOiBE.s:14327  .debug_str:00000000000004af .LASF503
C:\Users\stapi\AppData\Local\Temp\ccHGOiBE.s:14859  .debug_str:00000000000015e1 .LASF504
C:\Users\stapi\AppData\Local\Temp\ccHGOiBE.s:14977  .debug_str:00000000000019cd .LASF505
C:\Users\stapi\AppData\Local\Temp\ccHGOiBE.s:14461  .debug_str:00000000000008b2 .LASF506
C:\Users\stapi\AppData\Local\Temp\ccHGOiBE.s:14833  .debug_str:00000000000014ef .LASF507
C:\Users\stapi\AppData\Local\Temp\ccHGOiBE.s:15271  .debug_str:000000000000232f .LASF508
C:\Users\stapi\AppData\Local\Temp\ccHGOiBE.s:14191  .debug_str:0000000000000062 .LASF509
C:\Users\stapi\AppData\Local\Temp\ccHGOiBE.s:14531  .debug_str:0000000000000ad3 .LASF510
C:\Users\stapi\AppData\Local\Temp\ccHGOiBE.s:14687  .debug_str:0000000000000f8d .LASF511
C:\Users\stapi\AppData\Local\Temp\ccHGOiBE.s:15419  .debug_str:00000000000027ee .LASF512
C:\Users\stapi\AppData\Local\Temp\ccHGOiBE.s:15151  .debug_str:0000000000001f3d .LASF513
C:\Users\stapi\AppData\Local\Temp\ccHGOiBE.s:15139  .debug_str:0000000000001eee .LASF514
C:\Users\stapi\AppData\Local\Temp\ccHGOiBE.s:14385  .debug_str:0000000000000670 .LASF515
C:\Users\stapi\AppData\Local\Temp\ccHGOiBE.s:14331  .debug_str:00000000000004c3 .LASF516
C:\Users\stapi\AppData\Local\Temp\ccHGOiBE.s:14275  .debug_str:00000000000002bd .LASF517
C:\Users\stapi\AppData\Local\Temp\ccHGOiBE.s:14849  .debug_str:0000000000001588 .LASF518
C:\Users\stapi\AppData\Local\Temp\ccHGOiBE.s:14479  .debug_str:000000000000095d .LASF519
C:\Users\stapi\AppData\Local\Temp\ccHGOiBE.s:15103  .debug_str:0000000000001daf .LASF520
C:\Users\stapi\AppData\Local\Temp\ccHGOiBE.s:15237  .debug_str:0000000000002250 .LASF521
C:\Users\stapi\AppData\Local\Temp\ccHGOiBE.s:14739  .debug_str:0000000000001206 .LASF522
C:\Users\stapi\AppData\Local\Temp\ccHGOiBE.s:14951  .debug_str:00000000000018f8 .LASF523
C:\Users\stapi\AppData\Local\Temp\ccHGOiBE.s:14217  .debug_str:00000000000000f5 .LASF524
C:\Users\stapi\AppData\Local\Temp\ccHGOiBE.s:14285  .debug_str:0000000000000305 .LASF525
C:\Users\stapi\AppData\Local\Temp\ccHGOiBE.s:14279  .debug_str:00000000000002d7 .LASF526
C:\Users\stapi\AppData\Local\Temp\ccHGOiBE.s:15383  .debug_str:00000000000026e6 .LASF527
C:\Users\stapi\AppData\Local\Temp\ccHGOiBE.s:15181  .debug_str:0000000000002050 .LASF528
C:\Users\stapi\AppData\Local\Temp\ccHGOiBE.s:14183  .debug_str:0000000000000020 .LASF529
C:\Users\stapi\AppData\Local\Temp\ccHGOiBE.s:14785  .debug_str:0000000000001368 .LASF530
C:\Users\stapi\AppData\Local\Temp\ccHGOiBE.s:15081  .debug_str:0000000000001d38 .LASF531
C:\Users\stapi\AppData\Local\Temp\ccHGOiBE.s:14579  .debug_str:0000000000000c1d .LASF532
C:\Users\stapi\AppData\Local\Temp\ccHGOiBE.s:15377  .debug_str:00000000000026a9 .LASF533
C:\Users\stapi\AppData\Local\Temp\ccHGOiBE.s:15319  .debug_str:000000000000249e .LASF534
C:\Users\stapi\AppData\Local\Temp\ccHGOiBE.s:15217  .debug_str:00000000000021a0 .LASF535
C:\Users\stapi\AppData\Local\Temp\ccHGOiBE.s:14941  .debug_str:00000000000018a1 .LASF536
C:\Users\stapi\AppData\Local\Temp\ccHGOiBE.s:15107  .debug_str:0000000000001ddd .LASF537
C:\Users\stapi\AppData\Local\Temp\ccHGOiBE.s:15279  .debug_str:0000000000002379 .LASF538
C:\Users\stapi\AppData\Local\Temp\ccHGOiBE.s:15037  .debug_str:0000000000001bc7 .LASF539
C:\Users\stapi\AppData\Local\Temp\ccHGOiBE.s:14829  .debug_str:00000000000014cd .LASF540
C:\Users\stapi\AppData\Local\Temp\ccHGOiBE.s:14555  .debug_str:0000000000000b82 .LASF620
C:\Users\stapi\AppData\Local\Temp\ccHGOiBE.s:14395  .debug_str:00000000000006be .LASF541
C:\Users\stapi\AppData\Local\Temp\ccHGOiBE.s:14717  .debug_str:0000000000001168 .LASF542
C:\Users\stapi\AppData\Local\Temp\ccHGOiBE.s:15047  .debug_str:0000000000001c0b .LASF544
C:\Users\stapi\AppData\Local\Temp\ccHGOiBE.s:14793  .debug_str:00000000000013a0 .LASF545
C:\Users\stapi\AppData\Local\Temp\ccHGOiBE.s:14773  .debug_str:000000000000130e .LASF546
C:\Users\stapi\AppData\Local\Temp\ccHGOiBE.s:14187  .debug_str:0000000000000039 .LASF547
C:\Users\stapi\AppData\Local\Temp\ccHGOiBE.s:15285  .debug_str:00000000000023a6 .LASF548
C:\Users\stapi\AppData\Local\Temp\ccHGOiBE.s:15087  .debug_str:0000000000001d5e .LASF549
C:\Users\stapi\AppData\Local\Temp\ccHGOiBE.s:15257  .debug_str:00000000000022eb .LASF552
C:\Users\stapi\AppData\Local\Temp\ccHGOiBE.s:2511   .text.coap_get_uri_path:0000000000000000 .LFB51
C:\Users\stapi\AppData\Local\Temp\ccHGOiBE.s:2858   .text.coap_get_uri_path:00000000000001a0 .LFE51
C:\Users\stapi\AppData\Local\Temp\ccHGOiBE.s:14233  .debug_str:0000000000000161 .LASF554
C:\Users\stapi\AppData\Local\Temp\ccHGOiBE.s:11802  .debug_loc:0000000000000000 .LLST91
C:\Users\stapi\AppData\Local\Temp\ccHGOiBE.s:14787  .debug_str:0000000000001377 .LASF550
C:\Users\stapi\AppData\Local\Temp\ccHGOiBE.s:11842  .debug_loc:000000000000005e .LLST92
C:\Users\stapi\AppData\Local\Temp\ccHGOiBE.s:11873  .debug_loc:00000000000000b3 .LLST93
C:\Users\stapi\AppData\Local\Temp\ccHGOiBE.s:11903  .debug_loc:0000000000000100 .LLST94
C:\Users\stapi\AppData\Local\Temp\ccHGOiBE.s:2551   .text.coap_get_uri_path:000000000000001e .LBB106
C:\Users\stapi\AppData\Local\Temp\ccHGOiBE.s:2590   .text.coap_get_uri_path:0000000000000062 .LBE106
C:\Users\stapi\AppData\Local\Temp\ccHGOiBE.s:2556   .text.coap_get_uri_path:0000000000000026 .LVL296
C:\Users\stapi\AppData\Local\Temp\ccHGOiBE.s:2561   .text.coap_get_uri_path:0000000000000032 .LVL297
C:\Users\stapi\AppData\Local\Temp\ccHGOiBE.s:2567   .text.coap_get_uri_path:0000000000000040 .LVL298
C:\Users\stapi\AppData\Local\Temp\ccHGOiBE.s:2577   .text.coap_get_uri_path:0000000000000050 .LVL300
C:\Users\stapi\AppData\Local\Temp\ccHGOiBE.s:2588   .text.coap_get_uri_path:0000000000000062 .LVL302
C:\Users\stapi\AppData\Local\Temp\ccHGOiBE.s:2747   .text.coap_get_uri_path:000000000000011c .LBB112
C:\Users\stapi\AppData\Local\Temp\ccHGOiBE.s:2802   .text.coap_get_uri_path:000000000000015e .LBE112
C:\Users\stapi\AppData\Local\Temp\ccHGOiBE.s:14765  .debug_str:00000000000012d4 .LASF551
C:\Users\stapi\AppData\Local\Temp\ccHGOiBE.s:11929  .debug_loc:0000000000000142 .LLST100
C:\Users\stapi\AppData\Local\Temp\ccHGOiBE.s:11936  .debug_loc:0000000000000155 .LLST101
C:\Users\stapi\AppData\Local\Temp\ccHGOiBE.s:11958  .debug_loc:000000000000018c .LLST102
C:\Users\stapi\AppData\Local\Temp\ccHGOiBE.s:2751   .text.coap_get_uri_path:0000000000000124 .LVL329
C:\Users\stapi\AppData\Local\Temp\ccHGOiBE.s:2759   .text.coap_get_uri_path:0000000000000132 .LVL331
C:\Users\stapi\AppData\Local\Temp\ccHGOiBE.s:2781   .text.coap_get_uri_path:0000000000000152 .LVL335
C:\Users\stapi\AppData\Local\Temp\ccHGOiBE.s:11969  .debug_loc:00000000000001aa .LLST95
C:\Users\stapi\AppData\Local\Temp\ccHGOiBE.s:12018  .debug_loc:000000000000021f .LLST96
C:\Users\stapi\AppData\Local\Temp\ccHGOiBE.s:12036  .debug_loc:000000000000024b .LLST97
C:\Users\stapi\AppData\Local\Temp\ccHGOiBE.s:12047  .debug_loc:0000000000000269 .LLST98
C:\Users\stapi\AppData\Local\Temp\ccHGOiBE.s:12093  .debug_loc:00000000000002bf .LLST99
C:\Users\stapi\AppData\Local\Temp\ccHGOiBE.s:2721   .text.coap_get_uri_path:00000000000000fa .LVL323
C:\Users\stapi\AppData\Local\Temp\ccHGOiBE.s:2729   .text.coap_get_uri_path:0000000000000108 .LVL325
C:\Users\stapi\AppData\Local\Temp\ccHGOiBE.s:2810   .text.coap_get_uri_path:000000000000016c .LVL341
C:\Users\stapi\AppData\Local\Temp\ccHGOiBE.s:2680   .text.coap_get_uri_path:00000000000000ca .LVL315
C:\Users\stapi\AppData\Local\Temp\ccHGOiBE.s:2698   .text.coap_get_uri_path:00000000000000e2 .LVL317
C:\Users\stapi\AppData\Local\Temp\ccHGOiBE.s:2546   .text.coap_get_uri_path:000000000000001a .LVL295
C:\Users\stapi\AppData\Local\Temp\ccHGOiBE.s:2616   .text.coap_get_uri_path:0000000000000078 .LVL305
C:\Users\stapi\AppData\Local\Temp\ccHGOiBE.s:2621   .text.coap_get_uri_path:0000000000000084 .LVL306
C:\Users\stapi\AppData\Local\Temp\ccHGOiBE.s:2627   .text.coap_get_uri_path:0000000000000092 .LVL307
C:\Users\stapi\AppData\Local\Temp\ccHGOiBE.s:2637   .text.coap_get_uri_path:000000000000009e .LVL309
C:\Users\stapi\AppData\Local\Temp\ccHGOiBE.s:2654   .text.coap_get_uri_path:00000000000000b0 .LVL312
C:\Users\stapi\AppData\Local\Temp\ccHGOiBE.s:14481  .debug_str:0000000000000969 .LASF553
C:\Users\stapi\AppData\Local\Temp\ccHGOiBE.s:2155   .text.coap_get_query:0000000000000000 .LFB50
C:\Users\stapi\AppData\Local\Temp\ccHGOiBE.s:2504   .text.coap_get_query:0000000000000164 .LFE50
C:\Users\stapi\AppData\Local\Temp\ccHGOiBE.s:12108  .debug_loc:00000000000002e8 .LLST77
C:\Users\stapi\AppData\Local\Temp\ccHGOiBE.s:12137  .debug_loc:000000000000032d .LLST78
C:\Users\stapi\AppData\Local\Temp\ccHGOiBE.s:12160  .debug_loc:000000000000036c .LLST79
C:\Users\stapi\AppData\Local\Temp\ccHGOiBE.s:12177  .debug_loc:0000000000000397 .LLST80
C:\Users\stapi\AppData\Local\Temp\ccHGOiBE.s:12198  .debug_loc:00000000000003cd .LLST81
C:\Users\stapi\AppData\Local\Temp\ccHGOiBE.s:12205  .debug_loc:00000000000003e0 .LLST82
C:\Users\stapi\AppData\Local\Temp\ccHGOiBE.s:12227  .debug_loc:0000000000000417 .LLST83
C:\Users\stapi\AppData\Local\Temp\ccHGOiBE.s:2205   .text.coap_get_query:0000000000000032 .LBB85
C:\Users\stapi\AppData\Local\Temp\ccHGOiBE.s:12238  .debug_loc:0000000000000435 .LLST84
C:\Users\stapi\AppData\Local\Temp\ccHGOiBE.s:2207   .text.coap_get_query:0000000000000032 .LBB87
C:\Users\stapi\AppData\Local\Temp\ccHGOiBE.s:12245  .debug_loc:0000000000000448 .LLST85
C:\Users\stapi\AppData\Local\Temp\ccHGOiBE.s:2297   .text.coap_get_query:000000000000008c .LVL258
C:\Users\stapi\AppData\Local\Temp\ccHGOiBE.s:2261   .text.coap_get_query:000000000000005c .LVL251
C:\Users\stapi\AppData\Local\Temp\ccHGOiBE.s:2269   .text.coap_get_query:000000000000006a .LVL253
C:\Users\stapi\AppData\Local\Temp\ccHGOiBE.s:2347   .text.coap_get_query:00000000000000b2 .LBB94
C:\Users\stapi\AppData\Local\Temp\ccHGOiBE.s:2502   .text.coap_get_query:0000000000000164 .LBE94
C:\Users\stapi\AppData\Local\Temp\ccHGOiBE.s:12252  .debug_loc:000000000000045b .LLST86
C:\Users\stapi\AppData\Local\Temp\ccHGOiBE.s:12301  .debug_loc:00000000000004d0 .LLST87
C:\Users\stapi\AppData\Local\Temp\ccHGOiBE.s:12338  .debug_loc:0000000000000516 .LLST88
C:\Users\stapi\AppData\Local\Temp\ccHGOiBE.s:2371   .text.coap_get_query:00000000000000cc .LBB96
C:\Users\stapi\AppData\Local\Temp\ccHGOiBE.s:12349  .debug_loc:0000000000000534 .LLST89
C:\Users\stapi\AppData\Local\Temp\ccHGOiBE.s:2373   .text.coap_get_query:00000000000000cc .LBB98
C:\Users\stapi\AppData\Local\Temp\ccHGOiBE.s:12356  .debug_loc:0000000000000547 .LLST90
C:\Users\stapi\AppData\Local\Temp\ccHGOiBE.s:2445   .text.coap_get_query:0000000000000128 .LVL283
C:\Users\stapi\AppData\Local\Temp\ccHGOiBE.s:2415   .text.coap_get_query:00000000000000fc .LVL277
C:\Users\stapi\AppData\Local\Temp\ccHGOiBE.s:2423   .text.coap_get_query:000000000000010a .LVL279
C:\Users\stapi\AppData\Local\Temp\ccHGOiBE.s:2366   .text.coap_get_query:00000000000000c8 .LVL270
C:\Users\stapi\AppData\Local\Temp\ccHGOiBE.s:2392   .text.coap_get_query:00000000000000e2 .LVL272
C:\Users\stapi\AppData\Local\Temp\ccHGOiBE.s:2189   .text.coap_get_query:0000000000000016 .LVL242
C:\Users\stapi\AppData\Local\Temp\ccHGOiBE.s:2194   .text.coap_get_query:0000000000000022 .LVL243
C:\Users\stapi\AppData\Local\Temp\ccHGOiBE.s:2200   .text.coap_get_query:0000000000000030 .LVL244
C:\Users\stapi\AppData\Local\Temp\ccHGOiBE.s:2222   .text.coap_get_query:0000000000000040 .LVL246
C:\Users\stapi\AppData\Local\Temp\ccHGOiBE.s:2341   .text.coap_get_query:00000000000000ae .LVL267
C:\Users\stapi\AppData\Local\Temp\ccHGOiBE.s:14585  .debug_str:0000000000000c59 .LASF555
C:\Users\stapi\AppData\Local\Temp\ccHGOiBE.s:14433  .debug_str:00000000000007e6 .LASF556
C:\Users\stapi\AppData\Local\Temp\ccHGOiBE.s:14467  .debug_str:00000000000008db .LASF621
C:\Users\stapi\AppData\Local\Temp\ccHGOiBE.s:2135   .text.coap_delete_uri:0000000000000000 .LFB47
C:\Users\stapi\AppData\Local\Temp\ccHGOiBE.s:2148   .text.coap_delete_uri:000000000000000c .LFE47
C:\Users\stapi\AppData\Local\Temp\ccHGOiBE.s:12363  .debug_loc:000000000000055a .LLST76
C:\Users\stapi\AppData\Local\Temp\ccHGOiBE.s:2146   .text.coap_delete_uri:000000000000000c .LVL238
C:\Users\stapi\AppData\Local\Temp\ccHGOiBE.s:14645  .debug_str:0000000000000e3d .LASF557
C:\Users\stapi\AppData\Local\Temp\ccHGOiBE.s:1995   .text.coap_clone_uri:0000000000000000 .LFB46
C:\Users\stapi\AppData\Local\Temp\ccHGOiBE.s:2128   .text.coap_clone_uri:00000000000000a0 .LFE46
C:\Users\stapi\AppData\Local\Temp\ccHGOiBE.s:12381  .debug_loc:0000000000000586 .LLST74
C:\Users\stapi\AppData\Local\Temp\ccHGOiBE.s:14363  .debug_str:00000000000005d0 .LASF558
C:\Users\stapi\AppData\Local\Temp\ccHGOiBE.s:12403  .debug_loc:00000000000005bd .LLST75
C:\Users\stapi\AppData\Local\Temp\ccHGOiBE.s:2039   .text.coap_clone_uri:0000000000000030 .LVL227
C:\Users\stapi\AppData\Local\Temp\ccHGOiBE.s:2049   .text.coap_clone_uri:0000000000000042 .LVL229
C:\Users\stapi\AppData\Local\Temp\ccHGOiBE.s:2073   .text.coap_clone_uri:0000000000000062 .LVL231
C:\Users\stapi\AppData\Local\Temp\ccHGOiBE.s:2098   .text.coap_clone_uri:000000000000007e .LVL233
C:\Users\stapi\AppData\Local\Temp\ccHGOiBE.s:2125   .text.coap_clone_uri:000000000000009e .LVL235
C:\Users\stapi\AppData\Local\Temp\ccHGOiBE.s:14813  .debug_str:0000000000001444 .LASF559
C:\Users\stapi\AppData\Local\Temp\ccHGOiBE.s:1921   .text.coap_new_uri:0000000000000000 .LFB45
C:\Users\stapi\AppData\Local\Temp\ccHGOiBE.s:1988   .text.coap_new_uri:0000000000000060 .LFE45
C:\Users\stapi\AppData\Local\Temp\ccHGOiBE.s:12424  .debug_loc:00000000000005f3 .LLST71
C:\Users\stapi\AppData\Local\Temp\ccHGOiBE.s:12435  .debug_loc:0000000000000611 .LLST72
C:\Users\stapi\AppData\Local\Temp\ccHGOiBE.s:12446  .debug_loc:000000000000062f .LLST73
C:\Users\stapi\AppData\Local\Temp\ccHGOiBE.s:1942   .text.coap_new_uri:000000000000001a .LVL217
C:\Users\stapi\AppData\Local\Temp\ccHGOiBE.s:1956   .text.coap_new_uri:0000000000000030 .LVL219
C:\Users\stapi\AppData\Local\Temp\ccHGOiBE.s:1966   .text.coap_new_uri:0000000000000044 .LVL220
C:\Users\stapi\AppData\Local\Temp\ccHGOiBE.s:1973   .text.coap_new_uri:0000000000000054 .LVL221
C:\Users\stapi\AppData\Local\Temp\ccHGOiBE.s:14293  .debug_str:0000000000000343 .LASF560
C:\Users\stapi\AppData\Local\Temp\ccHGOiBE.s:1421   .text.coap_split_query:0000000000000000 .LFB44
C:\Users\stapi\AppData\Local\Temp\ccHGOiBE.s:1517   .text.coap_split_query:000000000000006c .LFE44
C:\Users\stapi\AppData\Local\Temp\ccHGOiBE.s:12453  .debug_loc:0000000000000642 .LLST54
C:\Users\stapi\AppData\Local\Temp\ccHGOiBE.s:12480  .debug_loc:0000000000000685 .LLST55
C:\Users\stapi\AppData\Local\Temp\ccHGOiBE.s:12494  .debug_loc:00000000000006a6 .LLST56
C:\Users\stapi\AppData\Local\Temp\ccHGOiBE.s:14465  .debug_str:00000000000008d4 .LASF561
C:\Users\stapi\AppData\Local\Temp\ccHGOiBE.s:12508  .debug_loc:00000000000006c7 .LLST57
C:\Users\stapi\AppData\Local\Temp\ccHGOiBE.s:12519  .debug_loc:00000000000006e5 .LLST58
C:\Users\stapi\AppData\Local\Temp\ccHGOiBE.s:1469   .text.coap_split_query:000000000000003c .LVL156
C:\Users\stapi\AppData\Local\Temp\ccHGOiBE.s:1505   .text.coap_split_query:0000000000000066 .LVL158
C:\Users\stapi\AppData\Local\Temp\ccHGOiBE.s:14653  .debug_str:0000000000000e86 .LASF562
C:\Users\stapi\AppData\Local\Temp\ccHGOiBE.s:1219   .text.coap_split_path:0000000000000000 .LFB43
C:\Users\stapi\AppData\Local\Temp\ccHGOiBE.s:1414   .text.coap_split_path:00000000000000be .LFE43
C:\Users\stapi\AppData\Local\Temp\ccHGOiBE.s:12538  .debug_loc:0000000000000719 .LLST38
C:\Users\stapi\AppData\Local\Temp\ccHGOiBE.s:12552  .debug_loc:000000000000073a .LLST39
C:\Users\stapi\AppData\Local\Temp\ccHGOiBE.s:12566  .debug_loc:000000000000075b .LLST40
C:\Users\stapi\AppData\Local\Temp\ccHGOiBE.s:12580  .debug_loc:000000000000077c .LLST41
C:\Users\stapi\AppData\Local\Temp\ccHGOiBE.s:1250   .text.coap_split_path:0000000000000018 .LBB48
C:\Users\stapi\AppData\Local\Temp\ccHGOiBE.s:1386   .text.coap_split_path:00000000000000aa .LBE48
C:\Users\stapi\AppData\Local\Temp\ccHGOiBE.s:12591  .debug_loc:000000000000079a .LLST42
C:\Users\stapi\AppData\Local\Temp\ccHGOiBE.s:12620  .debug_loc:00000000000007df .LLST43
C:\Users\stapi\AppData\Local\Temp\ccHGOiBE.s:12694  .debug_loc:0000000000000858 .LLST44
C:\Users\stapi\AppData\Local\Temp\ccHGOiBE.s:12708  .debug_loc:0000000000000879 .LLST45
C:\Users\stapi\AppData\Local\Temp\ccHGOiBE.s:12723  .debug_loc:00000000000008a2 .LLST46
C:\Users\stapi\AppData\Local\Temp\ccHGOiBE.s:1254   .text.coap_split_path:000000000000001a .LBB50
C:\Users\stapi\AppData\Local\Temp\ccHGOiBE.s:12748  .debug_loc:00000000000008e3 .LLST48
C:\Users\stapi\AppData\Local\Temp\ccHGOiBE.s:12761  .debug_loc:0000000000000903 .LLST49
C:\Users\stapi\AppData\Local\Temp\ccHGOiBE.s:1263   .text.coap_split_path:0000000000000026 .LBB53
C:\Users\stapi\AppData\Local\Temp\ccHGOiBE.s:12768  .debug_loc:0000000000000916 .LLST50
C:\Users\stapi\AppData\Local\Temp\ccHGOiBE.s:12775  .debug_loc:0000000000000929 .LLST51
C:\Users\stapi\AppData\Local\Temp\ccHGOiBE.s:1282   .text.coap_split_path:0000000000000036 .LBB56
C:\Users\stapi\AppData\Local\Temp\ccHGOiBE.s:12782  .debug_loc:000000000000093c .LLST52
C:\Users\stapi\AppData\Local\Temp\ccHGOiBE.s:12793  .debug_loc:000000000000095a .LLST53
C:\Users\stapi\AppData\Local\Temp\ccHGOiBE.s:1295   .text.coap_split_path:0000000000000044 .LVL138
C:\Users\stapi\AppData\Local\Temp\ccHGOiBE.s:1350   .text.coap_split_path:0000000000000084 .LVL147
C:\Users\stapi\AppData\Local\Temp\ccHGOiBE.s:14929  .debug_str:0000000000001845 .LASF622
C:\Users\stapi\AppData\Local\Temp\ccHGOiBE.s:734    .text.write_option:0000000000000000 .LFB42
C:\Users\stapi\AppData\Local\Temp\ccHGOiBE.s:1056   .text.write_option:0000000000000168 .LFE42
C:\Users\stapi\AppData\Local\Temp\ccHGOiBE.s:12804  .debug_loc:0000000000000978 .LLST9
C:\Users\stapi\AppData\Local\Temp\ccHGOiBE.s:12848  .debug_loc:00000000000009e1 .LLST10
C:\Users\stapi\AppData\Local\Temp\ccHGOiBE.s:12896  .debug_loc:0000000000000a55 .LLST11
C:\Users\stapi\AppData\Local\Temp\ccHGOiBE.s:12918  .debug_loc:0000000000000a8c .LLST12
C:\Users\stapi\AppData\Local\Temp\ccHGOiBE.s:12940  .debug_loc:0000000000000ac3 .LLST13
C:\Users\stapi\AppData\Local\Temp\ccHGOiBE.s:14489  .debug_str:00000000000009a5 .LASF563
C:\Users\stapi\AppData\Local\Temp\ccHGOiBE.s:12948  .debug_loc:0000000000000ad7 .LLST14
C:\Users\stapi\AppData\Local\Temp\ccHGOiBE.s:14245  .debug_str:00000000000001ca .LASF569
C:\Users\stapi\AppData\Local\Temp\ccHGOiBE.s:762    .text.write_option:000000000000001e .LBB10
C:\Users\stapi\AppData\Local\Temp\ccHGOiBE.s:12955  .debug_loc:0000000000000aea .LLST15
C:\Users\stapi\AppData\Local\Temp\ccHGOiBE.s:12976  .debug_loc:0000000000000b22 .LLST16
C:\Users\stapi\AppData\Local\Temp\ccHGOiBE.s:12987  .debug_loc:0000000000000b40 .LLST17
C:\Users\stapi\AppData\Local\Temp\ccHGOiBE.s:13020  .debug_loc:0000000000000b89 .LLST18
C:\Users\stapi\AppData\Local\Temp\ccHGOiBE.s:13064  .debug_loc:0000000000000bf2 .LLST19
C:\Users\stapi\AppData\Local\Temp\ccHGOiBE.s:13104  .debug_loc:0000000000000c50 .LLST20
C:\Users\stapi\AppData\Local\Temp\ccHGOiBE.s:13122  .debug_loc:0000000000000c7c .LLST21
C:\Users\stapi\AppData\Local\Temp\ccHGOiBE.s:13137  .debug_loc:0000000000000ca5 .LLST22
C:\Users\stapi\AppData\Local\Temp\ccHGOiBE.s:823    .text.write_option:0000000000000064 .LBB12
C:\Users\stapi\AppData\Local\Temp\ccHGOiBE.s:13156  .debug_loc:0000000000000cd9 .LLST23
C:\Users\stapi\AppData\Local\Temp\ccHGOiBE.s:13163  .debug_loc:0000000000000cec .LLST24
C:\Users\stapi\AppData\Local\Temp\ccHGOiBE.s:13170  .debug_loc:0000000000000cff .LLST25
C:\Users\stapi\AppData\Local\Temp\ccHGOiBE.s:930    .text.write_option:00000000000000ea .LBB18
C:\Users\stapi\AppData\Local\Temp\ccHGOiBE.s:13177  .debug_loc:0000000000000d12 .LLST26
C:\Users\stapi\AppData\Local\Temp\ccHGOiBE.s:13188  .debug_loc:0000000000000d30 .LLST27
C:\Users\stapi\AppData\Local\Temp\ccHGOiBE.s:13217  .debug_loc:0000000000000d75 .LLST28
C:\Users\stapi\AppData\Local\Temp\ccHGOiBE.s:768    .text.write_option:000000000000002e .LVL86
C:\Users\stapi\AppData\Local\Temp\ccHGOiBE.s:791    .text.write_option:0000000000000044 .LVL89
C:\Users\stapi\AppData\Local\Temp\ccHGOiBE.s:802    .text.write_option:000000000000005c .LVL91
C:\Users\stapi\AppData\Local\Temp\ccHGOiBE.s:880    .text.write_option:00000000000000ac .LVL99
C:\Users\stapi\AppData\Local\Temp\ccHGOiBE.s:941    .text.write_option:00000000000000fa .LVL106
C:\Users\stapi\AppData\Local\Temp\ccHGOiBE.s:15355  .debug_str:00000000000025ee .LASF564
C:\Users\stapi\AppData\Local\Temp\ccHGOiBE.s:15259  .debug_str:00000000000022fd .LASF565
C:\Users\stapi\AppData\Local\Temp\ccHGOiBE.s:15059  .debug_str:0000000000001c73 .LASF566
C:\Users\stapi\AppData\Local\Temp\ccHGOiBE.s:14917  .debug_str:00000000000017ea .LASF567
C:\Users\stapi\AppData\Local\Temp\ccHGOiBE.s:15263  .debug_str:0000000000002309 .LASF568
C:\Users\stapi\AppData\Local\Temp\ccHGOiBE.s:15183  .debug_str:0000000000002063 .LASF570
C:\Users\stapi\AppData\Local\Temp\ccHGOiBE.s:15375  .debug_str:000000000000269c .LASF571
C:\Users\stapi\AppData\Local\Temp\ccHGOiBE.s:14499  .debug_str:00000000000009fc .LASF623
C:\Users\stapi\AppData\Local\Temp\ccHGOiBE.s:14473  .debug_str:0000000000000919 .LASF624
C:\Users\stapi\AppData\Local\Temp\ccHGOiBE.s:14337  .debug_str:00000000000004d8 .LASF572
C:\Users\stapi\AppData\Local\Temp\ccHGOiBE.s:1531   .text.coap_uri_into_options:0000000000000000 .LFB35
C:\Users\stapi\AppData\Local\Temp\ccHGOiBE.s:1914   .text.coap_uri_into_options:0000000000000218 .LFE35
C:\Users\stapi\AppData\Local\Temp\ccHGOiBE.s:13228  .debug_loc:0000000000000d93 .LLST59
C:\Users\stapi\AppData\Local\Temp\ccHGOiBE.s:13268  .debug_loc:0000000000000df1 .LLST60
C:\Users\stapi\AppData\Local\Temp\ccHGOiBE.s:15297  .debug_str:000000000000241b .LASF573
C:\Users\stapi\AppData\Local\Temp\ccHGOiBE.s:13286  .debug_loc:0000000000000e1d .LLST61
C:\Users\stapi\AppData\Local\Temp\ccHGOiBE.s:14289  .debug_str:0000000000000325 .LASF574
C:\Users\stapi\AppData\Local\Temp\ccHGOiBE.s:13297  .debug_loc:0000000000000e3b .LLST62
C:\Users\stapi\AppData\Local\Temp\ccHGOiBE.s:15267  .debug_str:000000000000231d .LASF575
C:\Users\stapi\AppData\Local\Temp\ccHGOiBE.s:13311  .debug_loc:0000000000000e5c .LLST63
C:\Users\stapi\AppData\Local\Temp\ccHGOiBE.s:14607  .debug_str:0000000000000d18 .LASF576
C:\Users\stapi\AppData\Local\Temp\ccHGOiBE.s:13351  .debug_loc:0000000000000eba .LLST64
C:\Users\stapi\AppData\Local\Temp\ccHGOiBE.s:13362  .debug_loc:0000000000000ed8 .LLST65
C:\Users\stapi\AppData\Local\Temp\ccHGOiBE.s:13377  .debug_loc:0000000000000f01 .LLST66
C:\Users\stapi\AppData\Local\Temp\ccHGOiBE.s:14423  .debug_str:0000000000000781 .LASF577
C:\Users\stapi\AppData\Local\Temp\ccHGOiBE.s:13400  .debug_loc:0000000000000f40 .LLST67
C:\Users\stapi\AppData\Local\Temp\ccHGOiBE.s:1579   .text.coap_uri_into_options:000000000000002a .LBB68
C:\Users\stapi\AppData\Local\Temp\ccHGOiBE.s:1651   .text.coap_uri_into_options:0000000000000092 .LBE68
C:\Users\stapi\AppData\Local\Temp\ccHGOiBE.s:14551  .debug_str:0000000000000b62 .LASF578
C:\Users\stapi\AppData\Local\Temp\ccHGOiBE.s:13418  .debug_loc:0000000000000f6c .LLST68
C:\Users\stapi\AppData\Local\Temp\ccHGOiBE.s:13429  .debug_loc:0000000000000f8a .LLST69
C:\Users\stapi\AppData\Local\Temp\ccHGOiBE.s:1588   .text.coap_uri_into_options:000000000000002c .LBB69
C:\Users\stapi\AppData\Local\Temp\ccHGOiBE.s:1612   .text.coap_uri_into_options:0000000000000044 .LBE69
C:\Users\stapi\AppData\Local\Temp\ccHGOiBE.s:13436  .debug_loc:0000000000000f9d .LLST70
C:\Users\stapi\AppData\Local\Temp\ccHGOiBE.s:1619   .text.coap_uri_into_options:0000000000000054 .LVL169
C:\Users\stapi\AppData\Local\Temp\ccHGOiBE.s:1625   .text.coap_uri_into_options:0000000000000060 .LVL170
C:\Users\stapi\AppData\Local\Temp\ccHGOiBE.s:1636   .text.coap_uri_into_options:0000000000000076 .LVL172
C:\Users\stapi\AppData\Local\Temp\ccHGOiBE.s:1645   .text.coap_uri_into_options:0000000000000086 .LVL173
C:\Users\stapi\AppData\Local\Temp\ccHGOiBE.s:1649   .text.coap_uri_into_options:0000000000000092 .LVL174
C:\Users\stapi\AppData\Local\Temp\ccHGOiBE.s:1669   .text.coap_uri_into_options:00000000000000ae .LBB70
C:\Users\stapi\AppData\Local\Temp\ccHGOiBE.s:1681   .text.coap_uri_into_options:00000000000000b8 .LBE70
C:\Users\stapi\AppData\Local\Temp\ccHGOiBE.s:1690   .text.coap_uri_into_options:00000000000000c8 .LVL177
C:\Users\stapi\AppData\Local\Temp\ccHGOiBE.s:1695   .text.coap_uri_into_options:00000000000000d6 .LVL178
C:\Users\stapi\AppData\Local\Temp\ccHGOiBE.s:1699   .text.coap_uri_into_options:00000000000000e2 .LVL179
C:\Users\stapi\AppData\Local\Temp\ccHGOiBE.s:1566   .text.coap_uri_into_options:0000000000000020 .LVL162
C:\Users\stapi\AppData\Local\Temp\ccHGOiBE.s:1750   .text.coap_uri_into_options:0000000000000110 .LVL186
C:\Users\stapi\AppData\Local\Temp\ccHGOiBE.s:1759   .text.coap_uri_into_options:000000000000012a .LVL187
C:\Users\stapi\AppData\Local\Temp\ccHGOiBE.s:1769   .text.coap_uri_into_options:000000000000013a .LVL188
C:\Users\stapi\AppData\Local\Temp\ccHGOiBE.s:1806   .text.coap_uri_into_options:000000000000015a .LVL193
C:\Users\stapi\AppData\Local\Temp\ccHGOiBE.s:1811   .text.coap_uri_into_options:0000000000000166 .LVL194
C:\Users\stapi\AppData\Local\Temp\ccHGOiBE.s:1816   .text.coap_uri_into_options:0000000000000174 .LVL195
C:\Users\stapi\AppData\Local\Temp\ccHGOiBE.s:1820   .text.coap_uri_into_options:0000000000000180 .LVL196
C:\Users\stapi\AppData\Local\Temp\ccHGOiBE.s:1825   .text.coap_uri_into_options:000000000000018a .LVL197
C:\Users\stapi\AppData\Local\Temp\ccHGOiBE.s:1850   .text.coap_uri_into_options:00000000000001a2 .LVL202
C:\Users\stapi\AppData\Local\Temp\ccHGOiBE.s:1859   .text.coap_uri_into_options:00000000000001bc .LVL203
C:\Users\stapi\AppData\Local\Temp\ccHGOiBE.s:1869   .text.coap_uri_into_options:00000000000001cc .LVL204
C:\Users\stapi\AppData\Local\Temp\ccHGOiBE.s:1889   .text.coap_uri_into_options:00000000000001e4 .LVL208
C:\Users\stapi\AppData\Local\Temp\ccHGOiBE.s:1894   .text.coap_uri_into_options:00000000000001f0 .LVL209
C:\Users\stapi\AppData\Local\Temp\ccHGOiBE.s:1899   .text.coap_uri_into_options:00000000000001fe .LVL210
C:\Users\stapi\AppData\Local\Temp\ccHGOiBE.s:1903   .text.coap_uri_into_options:000000000000020a .LVL211
C:\Users\stapi\AppData\Local\Temp\ccHGOiBE.s:1908   .text.coap_uri_into_options:0000000000000214 .LVL212
C:\Users\stapi\AppData\Local\Temp\ccHGOiBE.s:15277  .debug_str:0000000000002364 .LASF579
C:\Users\stapi\AppData\Local\Temp\ccHGOiBE.s:1137   .text.coap_split_proxy_uri:0000000000000000 .LFB34
C:\Users\stapi\AppData\Local\Temp\ccHGOiBE.s:1147   .text.coap_split_proxy_uri:000000000000000a .LFE34
C:\Users\stapi\AppData\Local\Temp\ccHGOiBE.s:14811  .debug_str:000000000000143c .LASF580
C:\Users\stapi\AppData\Local\Temp\ccHGOiBE.s:13448  .debug_loc:0000000000000fbc .LLST34
C:\Users\stapi\AppData\Local\Temp\ccHGOiBE.s:13462  .debug_loc:0000000000000fdd .LLST35
C:\Users\stapi\AppData\Local\Temp\ccHGOiBE.s:13476  .debug_loc:0000000000000ffe .LLST36
C:\Users\stapi\AppData\Local\Temp\ccHGOiBE.s:1145   .text.coap_split_proxy_uri:000000000000000a .LVL125
C:\Users\stapi\AppData\Local\Temp\ccHGOiBE.s:14903  .debug_str:0000000000001775 .LASF581
C:\Users\stapi\AppData\Local\Temp\ccHGOiBE.s:1120   .text.coap_split_uri:0000000000000000 .LFB33
C:\Users\stapi\AppData\Local\Temp\ccHGOiBE.s:1130   .text.coap_split_uri:000000000000000a .LFE33
C:\Users\stapi\AppData\Local\Temp\ccHGOiBE.s:13490  .debug_loc:000000000000101f .LLST31
C:\Users\stapi\AppData\Local\Temp\ccHGOiBE.s:13504  .debug_loc:0000000000001040 .LLST32
C:\Users\stapi\AppData\Local\Temp\ccHGOiBE.s:13518  .debug_loc:0000000000001061 .LLST33
C:\Users\stapi\AppData\Local\Temp\ccHGOiBE.s:1128   .text.coap_split_uri:000000000000000a .LVL123
C:\Users\stapi\AppData\Local\Temp\ccHGOiBE.s:14863  .debug_str:00000000000015ec .LASF625
C:\Users\stapi\AppData\Local\Temp\ccHGOiBE.s:38     .text.coap_split_uri_sub:0000000000000000 .LFB32
C:\Users\stapi\AppData\Local\Temp\ccHGOiBE.s:712    .text.coap_split_uri_sub:00000000000003a8 .LFE32
C:\Users\stapi\AppData\Local\Temp\ccHGOiBE.s:13532  .debug_loc:0000000000001082 .LLST0
C:\Users\stapi\AppData\Local\Temp\ccHGOiBE.s:13605  .debug_loc:000000000000112b .LLST1
C:\Users\stapi\AppData\Local\Temp\ccHGOiBE.s:13667  .debug_loc:00000000000011c9 .LLST2
C:\Users\stapi\AppData\Local\Temp\ccHGOiBE.s:14889  .debug_str:0000000000001715 .LASF582
C:\Users\stapi\AppData\Local\Temp\ccHGOiBE.s:13678  .debug_loc:00000000000011e7 .LLST3
C:\Users\stapi\AppData\Local\Temp\ccHGOiBE.s:13700  .debug_loc:000000000000121e .LLST4
C:\Users\stapi\AppData\Local\Temp\ccHGOiBE.s:13789  .debug_loc:0000000000001308 .LLST5
C:\Users\stapi\AppData\Local\Temp\ccHGOiBE.s:13850  .debug_loc:00000000000013ac .LLST6
C:\Users\stapi\AppData\Local\Temp\ccHGOiBE.s:15283  .debug_str:0000000000002397 .LASF583
C:\Users\stapi\AppData\Local\Temp\ccHGOiBE.s:13869  .debug_loc:00000000000013e0 .LLST7
C:\Users\stapi\AppData\Local\Temp\ccHGOiBE.s:649    .text.coap_split_uri_sub:0000000000000364 .LDL1
C:\Users\stapi\AppData\Local\Temp\ccHGOiBE.s:14411  .debug_str:0000000000000731 .LASF584
C:\Users\stapi\AppData\Local\Temp\ccHGOiBE.s:14937  .debug_str:0000000000001889 .LASF585
C:\Users\stapi\AppData\Local\Temp\ccHGOiBE.s:13928  .debug_loc:0000000000001474 .LLST8
C:\Users\stapi\AppData\Local\Temp\ccHGOiBE.s:91     .text.coap_split_uri_sub:000000000000002c .LVL6
C:\Users\stapi\AppData\Local\Temp\ccHGOiBE.s:139    .text.coap_split_uri_sub:000000000000008a .LVL10
C:\Users\stapi\AppData\Local\Temp\ccHGOiBE.s:147    .text.coap_split_uri_sub:000000000000009c .LVL11
C:\Users\stapi\AppData\Local\Temp\ccHGOiBE.s:165    .text.coap_split_uri_sub:00000000000000bc .LVL12
C:\Users\stapi\AppData\Local\Temp\ccHGOiBE.s:176    .text.coap_split_uri_sub:00000000000000d8 .LVL13
C:\Users\stapi\AppData\Local\Temp\ccHGOiBE.s:298    .text.coap_split_uri_sub:0000000000000158 .LVL25
C:\Users\stapi\AppData\Local\Temp\ccHGOiBE.s:311    .text.coap_split_uri_sub:0000000000000174 .LVL26
C:\Users\stapi\AppData\Local\Temp\ccHGOiBE.s:317    .text.coap_split_uri_sub:000000000000017e .LVL27
C:\Users\stapi\AppData\Local\Temp\ccHGOiBE.s:327    .text.coap_split_uri_sub:0000000000000196 .LVL28
C:\Users\stapi\AppData\Local\Temp\ccHGOiBE.s:333    .text.coap_split_uri_sub:00000000000001a0 .LVL29
C:\Users\stapi\AppData\Local\Temp\ccHGOiBE.s:339    .text.coap_split_uri_sub:00000000000001aa .LVL30
C:\Users\stapi\AppData\Local\Temp\ccHGOiBE.s:350    .text.coap_split_uri_sub:00000000000001c2 .LVL31
C:\Users\stapi\AppData\Local\Temp\ccHGOiBE.s:356    .text.coap_split_uri_sub:00000000000001cc .LVL32
C:\Users\stapi\AppData\Local\Temp\ccHGOiBE.s:367    .text.coap_split_uri_sub:00000000000001e4 .LVL33
C:\Users\stapi\AppData\Local\Temp\ccHGOiBE.s:373    .text.coap_split_uri_sub:00000000000001ee .LVL34
C:\Users\stapi\AppData\Local\Temp\ccHGOiBE.s:384    .text.coap_split_uri_sub:0000000000000206 .LVL35
C:\Users\stapi\AppData\Local\Temp\ccHGOiBE.s:390    .text.coap_split_uri_sub:0000000000000210 .LVL36
C:\Users\stapi\AppData\Local\Temp\ccHGOiBE.s:401    .text.coap_split_uri_sub:0000000000000228 .LVL37
C:\Users\stapi\AppData\Local\Temp\ccHGOiBE.s:410    .text.coap_split_uri_sub:0000000000000244 .LVL38
C:\Users\stapi\AppData\Local\Temp\ccHGOiBE.s:14783  .debug_str:0000000000001360 .LASF586
C:\Users\stapi\AppData\Local\Temp\ccHGOiBE.s:14307  .debug_str:00000000000003be .LASF587
C:\Users\stapi\AppData\Local\Temp\ccHGOiBE.s:1062   .text.is_unescaped_in_path:0000000000000000 .LFB48
C:\Users\stapi\AppData\Local\Temp\ccHGOiBE.s:1113   .text.is_unescaped_in_path:000000000000004c .LFE48
C:\Users\stapi\AppData\Local\Temp\ccHGOiBE.s:13947  .debug_loc:00000000000014a8 .LLST29
C:\Users\stapi\AppData\Local\Temp\ccHGOiBE.s:1101   .text.is_unescaped_in_path:0000000000000042 .LBB34
C:\Users\stapi\AppData\Local\Temp\ccHGOiBE.s:1109   .text.is_unescaped_in_path:000000000000004a .LBE34
C:\Users\stapi\AppData\Local\Temp\ccHGOiBE.s:13961  .debug_loc:00000000000014c9 .LLST30
C:\Users\stapi\AppData\Local\Temp\ccHGOiBE.s:1154   .text.coap_host_is_unix_domain:0000000000000000 .LFB36
C:\Users\stapi\AppData\Local\Temp\ccHGOiBE.s:1212   .text.coap_host_is_unix_domain:000000000000004c .LFE36
C:\Users\stapi\AppData\Local\Temp\ccHGOiBE.s:13968  .debug_loc:00000000000014dc .LLST37
C:\Users\stapi\AppData\Local\Temp\ccHGOiBE.s:1197   .text.coap_host_is_unix_domain:000000000000003c .LBB38
C:\Users\stapi\AppData\Local\Temp\ccHGOiBE.s:1208   .text.coap_host_is_unix_domain:000000000000004a .LBE38
C:\Users\stapi\AppData\Local\Temp\ccHGOiBE.s:14535  .debug_str:0000000000000af1 .LASF588
C:\Users\stapi\AppData\Local\Temp\ccHGOiBE.s:14665  .debug_str:0000000000000ed8 .LASF589
C:\Users\stapi\AppData\Local\Temp\ccHGOiBE.s:14471  .debug_str:0000000000000909 .LASF590
C:\Users\stapi\AppData\Local\Temp\ccHGOiBE.s:15261  .debug_str:0000000000002302 .LASF598
C:\Users\stapi\AppData\Local\Temp\ccHGOiBE.s:14561  .debug_str:0000000000000ba8 .LASF600
C:\Users\stapi\AppData\Local\Temp\ccHGOiBE.s:15003  .debug_str:0000000000001ab9 .LASF591
C:\Users\stapi\AppData\Local\Temp\ccHGOiBE.s:14763  .debug_str:00000000000012c3 .LASF592
C:\Users\stapi\AppData\Local\Temp\ccHGOiBE.s:15241  .debug_str:0000000000002263 .LASF593
C:\Users\stapi\AppData\Local\Temp\ccHGOiBE.s:15331  .debug_str:0000000000002514 .LASF594
C:\Users\stapi\AppData\Local\Temp\ccHGOiBE.s:14613  .debug_str:0000000000000d38 .LASF595
C:\Users\stapi\AppData\Local\Temp\ccHGOiBE.s:15397  .debug_str:0000000000002746 .LASF596
C:\Users\stapi\AppData\Local\Temp\ccHGOiBE.s:15335  .debug_str:000000000000253f .LASF597
C:\Users\stapi\AppData\Local\Temp\ccHGOiBE.s:14519  .debug_str:0000000000000a8b .LASF599
C:\Users\stapi\AppData\Local\Temp\ccHGOiBE.s:14759  .debug_str:00000000000012a3 .LASF601
C:\Users\stapi\AppData\Local\Temp\ccHGOiBE.s:14655  .debug_str:0000000000000e96 .LASF602
C:\Users\stapi\AppData\Local\Temp\ccHGOiBE.s:14345  .debug_str:0000000000000511 .LASF603
C:\Users\stapi\AppData\Local\Temp\ccHGOiBE.s:14197  .debug_str:000000000000007a .LASF604
C:\Users\stapi\AppData\Local\Temp\ccHGOiBE.s:14241  .debug_str:00000000000001b2 .LASF605
C:\Users\stapi\AppData\Local\Temp\ccHGOiBE.s:14751  .debug_str:0000000000001268 .LASF606
C:\Users\stapi\AppData\Local\Temp\ccHGOiBE.s:15247  .debug_str:000000000000229c .LASF607
C:\Users\stapi\AppData\Local\Temp\ccHGOiBE.s:14567  .debug_str:0000000000000bc6 .LASF608
C:\Users\stapi\AppData\Local\Temp\ccHGOiBE.s:15055  .debug_str:0000000000001c40 .LASF609
C:\Users\stapi\AppData\Local\Temp\ccHGOiBE.s:15295  .debug_str:0000000000002407 .LASF610
C:\Users\stapi\AppData\Local\Temp\ccHGOiBE.s:14633  .debug_str:0000000000000de5 .LASF611
C:\Users\stapi\AppData\Local\Temp\ccHGOiBE.s:14617  .debug_str:0000000000000d60 .LASF612
C:\Users\stapi\AppData\Local\Temp\ccHGOiBE.s:14391  .debug_str:0000000000000693 .LASF613
C:\Users\stapi\AppData\Local\Temp\ccHGOiBE.s:14491  .debug_str:00000000000009b0 .LASF614
C:\Users\stapi\AppData\Local\Temp\ccHGOiBE.s:15175  .debug_str:0000000000002013 .LASF615
C:\Users\stapi\AppData\Local\Temp\ccHGOiBE.s:14351  .debug_str:000000000000055c .LASF616
C:\Users\stapi\AppData\Local\Temp\ccHGOiBE.s:2514   .text.coap_get_uri_path:0000000000000000 .LVL293
C:\Users\stapi\AppData\Local\Temp\ccHGOiBE.s:2609   .text.coap_get_uri_path:000000000000006e .LVL303
C:\Users\stapi\AppData\Local\Temp\ccHGOiBE.s:2691   .text.coap_get_uri_path:00000000000000d8 .LVL316
C:\Users\stapi\AppData\Local\Temp\ccHGOiBE.s:2743   .text.coap_get_uri_path:000000000000011c .LVL328
C:\Users\stapi\AppData\Local\Temp\ccHGOiBE.s:2800   .text.coap_get_uri_path:000000000000015e .LVL340
C:\Users\stapi\AppData\Local\Temp\ccHGOiBE.s:2570   .text.coap_get_uri_path:0000000000000042 .LVL299
C:\Users\stapi\AppData\Local\Temp\ccHGOiBE.s:2614   .text.coap_get_uri_path:0000000000000070 .LVL304
C:\Users\stapi\AppData\Local\Temp\ccHGOiBE.s:2639   .text.coap_get_uri_path:00000000000000a0 .LVL310
C:\Users\stapi\AppData\Local\Temp\ccHGOiBE.s:2656   .text.coap_get_uri_path:00000000000000b2 .LVL313
C:\Users\stapi\AppData\Local\Temp\ccHGOiBE.s:2700   .text.coap_get_uri_path:00000000000000e4 .LVL318
C:\Users\stapi\AppData\Local\Temp\ccHGOiBE.s:2719   .text.coap_get_uri_path:00000000000000f2 .LVL322
C:\Users\stapi\AppData\Local\Temp\ccHGOiBE.s:2734   .text.coap_get_uri_path:000000000000010c .LVL327
C:\Users\stapi\AppData\Local\Temp\ccHGOiBE.s:2764   .text.coap_get_uri_path:0000000000000136 .LVL333
C:\Users\stapi\AppData\Local\Temp\ccHGOiBE.s:2532   .text.coap_get_uri_path:0000000000000008 .LVL294
C:\Users\stapi\AppData\Local\Temp\ccHGOiBE.s:2579   .text.coap_get_uri_path:0000000000000052 .LVL301
C:\Users\stapi\AppData\Local\Temp\ccHGOiBE.s:2631   .text.coap_get_uri_path:0000000000000094 .LVL308
C:\Users\stapi\AppData\Local\Temp\ccHGOiBE.s:2669   .text.coap_get_uri_path:00000000000000ba .LVL314
C:\Users\stapi\AppData\Local\Temp\ccHGOiBE.s:2754   .text.coap_get_uri_path:0000000000000128 .LVL330
C:\Users\stapi\AppData\Local\Temp\ccHGOiBE.s:2761   .text.coap_get_uri_path:0000000000000134 .LVL332
C:\Users\stapi\AppData\Local\Temp\ccHGOiBE.s:2787   .text.coap_get_uri_path:0000000000000156 .LVL336
C:\Users\stapi\AppData\Local\Temp\ccHGOiBE.s:2791   .text.coap_get_uri_path:0000000000000158 .LVL337
C:\Users\stapi\AppData\Local\Temp\ccHGOiBE.s:2793   .text.coap_get_uri_path:000000000000015a .LVL338
C:\Users\stapi\AppData\Local\Temp\ccHGOiBE.s:2709   .text.coap_get_uri_path:00000000000000ea .LVL320
C:\Users\stapi\AppData\Local\Temp\ccHGOiBE.s:2714   .text.coap_get_uri_path:00000000000000f0 .LVL321
C:\Users\stapi\AppData\Local\Temp\ccHGOiBE.s:2814   .text.coap_get_uri_path:000000000000016e .LVL342
C:\Users\stapi\AppData\Local\Temp\ccHGOiBE.s:2819   .text.coap_get_uri_path:0000000000000174 .LVL343
C:\Users\stapi\AppData\Local\Temp\ccHGOiBE.s:2825   .text.coap_get_uri_path:0000000000000178 .LVL345
C:\Users\stapi\AppData\Local\Temp\ccHGOiBE.s:2831   .text.coap_get_uri_path:000000000000017c .LVL346
C:\Users\stapi\AppData\Local\Temp\ccHGOiBE.s:2836   .text.coap_get_uri_path:0000000000000182 .LVL347
C:\Users\stapi\AppData\Local\Temp\ccHGOiBE.s:2845   .text.coap_get_uri_path:000000000000018e .LVL348
C:\Users\stapi\AppData\Local\Temp\ccHGOiBE.s:2705   .text.coap_get_uri_path:00000000000000e6 .LVL319
C:\Users\stapi\AppData\Local\Temp\ccHGOiBE.s:2724   .text.coap_get_uri_path:00000000000000fe .LVL324
C:\Users\stapi\AppData\Local\Temp\ccHGOiBE.s:2731   .text.coap_get_uri_path:000000000000010a .LVL326
C:\Users\stapi\AppData\Local\Temp\ccHGOiBE.s:2823   .text.coap_get_uri_path:0000000000000176 .LVL344
C:\Users\stapi\AppData\Local\Temp\ccHGOiBE.s:2158   .text.coap_get_query:0000000000000000 .LVL239
C:\Users\stapi\AppData\Local\Temp\ccHGOiBE.s:2187   .text.coap_get_query:000000000000000e .LVL241
C:\Users\stapi\AppData\Local\Temp\ccHGOiBE.s:2234   .text.coap_get_query:0000000000000048 .LVL249
C:\Users\stapi\AppData\Local\Temp\ccHGOiBE.s:2254   .text.coap_get_query:0000000000000054 .LVL250
C:\Users\stapi\AppData\Local\Temp\ccHGOiBE.s:2385   .text.coap_get_query:00000000000000d8 .LVL271
C:\Users\stapi\AppData\Local\Temp\ccHGOiBE.s:2224   .text.coap_get_query:0000000000000042 .LVL247
C:\Users\stapi\AppData\Local\Temp\ccHGOiBE.s:2230   .text.coap_get_query:0000000000000046 .LVL248
C:\Users\stapi\AppData\Local\Temp\ccHGOiBE.s:2274   .text.coap_get_query:000000000000006e .LVL255
C:\Users\stapi\AppData\Local\Temp\ccHGOiBE.s:2327   .text.coap_get_query:00000000000000a0 .LVL265
C:\Users\stapi\AppData\Local\Temp\ccHGOiBE.s:2343   .text.coap_get_query:00000000000000b0 .LVL268
C:\Users\stapi\AppData\Local\Temp\ccHGOiBE.s:2394   .text.coap_get_query:00000000000000e4 .LVL273
C:\Users\stapi\AppData\Local\Temp\ccHGOiBE.s:2413   .text.coap_get_query:00000000000000f4 .LVL276
C:\Users\stapi\AppData\Local\Temp\ccHGOiBE.s:2428   .text.coap_get_query:000000000000010e .LVL281
C:\Users\stapi\AppData\Local\Temp\ccHGOiBE.s:2176   .text.coap_get_query:0000000000000008 .LVL240
C:\Users\stapi\AppData\Local\Temp\ccHGOiBE.s:2211   .text.coap_get_query:0000000000000036 .LVL245
C:\Users\stapi\AppData\Local\Temp\ccHGOiBE.s:2356   .text.coap_get_query:00000000000000b8 .LVL269
C:\Users\stapi\AppData\Local\Temp\ccHGOiBE.s:2264   .text.coap_get_query:0000000000000060 .LVL252
C:\Users\stapi\AppData\Local\Temp\ccHGOiBE.s:2271   .text.coap_get_query:000000000000006c .LVL254
C:\Users\stapi\AppData\Local\Temp\ccHGOiBE.s:2314   .text.coap_get_query:0000000000000098 .LVL261
C:\Users\stapi\AppData\Local\Temp\ccHGOiBE.s:2318   .text.coap_get_query:000000000000009a .LVL262
C:\Users\stapi\AppData\Local\Temp\ccHGOiBE.s:2320   .text.coap_get_query:000000000000009c .LVL263
C:\Users\stapi\AppData\Local\Temp\ccHGOiBE.s:2290   .text.coap_get_query:0000000000000082 .LVL257
C:\Users\stapi\AppData\Local\Temp\ccHGOiBE.s:2305   .text.coap_get_query:0000000000000092 .LVL260
C:\Users\stapi\AppData\Local\Temp\ccHGOiBE.s:2300   .text.coap_get_query:000000000000008e .LVL259
C:\Users\stapi\AppData\Local\Temp\ccHGOiBE.s:2403   .text.coap_get_query:00000000000000ec .LVL274
C:\Users\stapi\AppData\Local\Temp\ccHGOiBE.s:2408   .text.coap_get_query:00000000000000f2 .LVL275
C:\Users\stapi\AppData\Local\Temp\ccHGOiBE.s:2454   .text.coap_get_query:0000000000000132 .LVL285
C:\Users\stapi\AppData\Local\Temp\ccHGOiBE.s:2463   .text.coap_get_query:0000000000000136 .LVL286
C:\Users\stapi\AppData\Local\Temp\ccHGOiBE.s:2468   .text.coap_get_query:000000000000013c .LVL287
C:\Users\stapi\AppData\Local\Temp\ccHGOiBE.s:2477   .text.coap_get_query:0000000000000148 .LVL288
C:\Users\stapi\AppData\Local\Temp\ccHGOiBE.s:2487   .text.coap_get_query:0000000000000158 .LVL289
C:\Users\stapi\AppData\Local\Temp\ccHGOiBE.s:2492   .text.coap_get_query:000000000000015c .LVL291
C:\Users\stapi\AppData\Local\Temp\ccHGOiBE.s:2499   .text.coap_get_query:0000000000000162 .LVL292
C:\Users\stapi\AppData\Local\Temp\ccHGOiBE.s:2425   .text.coap_get_query:000000000000010c .LVL280
C:\Users\stapi\AppData\Local\Temp\ccHGOiBE.s:2490   .text.coap_get_query:000000000000015a .LVL290
C:\Users\stapi\AppData\Local\Temp\ccHGOiBE.s:2438   .text.coap_get_query:000000000000011e .LVL282
C:\Users\stapi\AppData\Local\Temp\ccHGOiBE.s:2448   .text.coap_get_query:000000000000012a .LVL284
C:\Users\stapi\AppData\Local\Temp\ccHGOiBE.s:2138   .text.coap_delete_uri:0000000000000000 .LVL236
C:\Users\stapi\AppData\Local\Temp\ccHGOiBE.s:2144   .text.coap_delete_uri:0000000000000004 .LVL237
C:\Users\stapi\AppData\Local\Temp\ccHGOiBE.s:1998   .text.coap_clone_uri:0000000000000000 .LVL223
C:\Users\stapi\AppData\Local\Temp\ccHGOiBE.s:2009   .text.coap_clone_uri:000000000000000a .LVL224
C:\Users\stapi\AppData\Local\Temp\ccHGOiBE.s:2022   .text.coap_clone_uri:0000000000000016 .LVL225
C:\Users\stapi\AppData\Local\Temp\ccHGOiBE.s:2036   .text.coap_clone_uri:0000000000000026 .LVL226
C:\Users\stapi\AppData\Local\Temp\ccHGOiBE.s:2063   .text.coap_clone_uri:0000000000000052 .LVL230
C:\Users\stapi\AppData\Local\Temp\ccHGOiBE.s:2091   .text.coap_clone_uri:0000000000000072 .LVL232
C:\Users\stapi\AppData\Local\Temp\ccHGOiBE.s:2118   .text.coap_clone_uri:0000000000000092 .LVL234
C:\Users\stapi\AppData\Local\Temp\ccHGOiBE.s:1924   .text.coap_new_uri:0000000000000000 .LVL214
C:\Users\stapi\AppData\Local\Temp\ccHGOiBE.s:1938   .text.coap_new_uri:000000000000000e .LVL215
C:\Users\stapi\AppData\Local\Temp\ccHGOiBE.s:1940   .text.coap_new_uri:0000000000000012 .LVL216
C:\Users\stapi\AppData\Local\Temp\ccHGOiBE.s:1944   .text.coap_new_uri:000000000000001c .LVL218
C:\Users\stapi\AppData\Local\Temp\ccHGOiBE.s:1977   .text.coap_new_uri:0000000000000056 .LVL222
C:\Users\stapi\AppData\Local\Temp\ccHGOiBE.s:1424   .text.coap_split_query:0000000000000000 .LVL153
C:\Users\stapi\AppData\Local\Temp\ccHGOiBE.s:1456   .text.coap_split_query:0000000000000022 .LVL155
C:\Users\stapi\AppData\Local\Temp\ccHGOiBE.s:1493   .text.coap_split_query:0000000000000050 .LVL157
C:\Users\stapi\AppData\Local\Temp\ccHGOiBE.s:1509   .text.coap_split_query:0000000000000068 .LVL159
C:\Users\stapi\AppData\Local\Temp\ccHGOiBE.s:1449   .text.coap_split_query:0000000000000016 .LVL154
C:\Users\stapi\AppData\Local\Temp\ccHGOiBE.s:1222   .text.coap_split_path:0000000000000000 .LVL132
C:\Users\stapi\AppData\Local\Temp\ccHGOiBE.s:1271   .text.coap_split_path:000000000000002e .LVL134
C:\Users\stapi\AppData\Local\Temp\ccHGOiBE.s:1248   .text.coap_split_path:0000000000000014 .LVL133
C:\Users\stapi\AppData\Local\Temp\ccHGOiBE.s:1293   .text.coap_split_path:000000000000003c .LVL137
C:\Users\stapi\AppData\Local\Temp\ccHGOiBE.s:1348   .text.coap_split_path:000000000000007c .LVL146
C:\Users\stapi\AppData\Local\Temp\ccHGOiBE.s:1380   .text.coap_split_path:00000000000000aa .LVL152
C:\Users\stapi\AppData\Local\Temp\ccHGOiBE.s:1287   .text.coap_split_path:000000000000003a .LVL136
C:\Users\stapi\AppData\Local\Temp\ccHGOiBE.s:1297   .text.coap_split_path:0000000000000046 .LVL139
C:\Users\stapi\AppData\Local\Temp\ccHGOiBE.s:1333   .text.coap_split_path:0000000000000066 .LVL144
C:\Users\stapi\AppData\Local\Temp\ccHGOiBE.s:1359   .text.coap_split_path:0000000000000088 .LVL149
C:\Users\stapi\AppData\Local\Temp\ccHGOiBE.s:1362   .text.coap_split_path:000000000000008a .LVL150
C:\Users\stapi\AppData\Local\Temp\ccHGOiBE.s:1368   .text.coap_split_path:000000000000008e .LVL151
C:\Users\stapi\AppData\Local\Temp\ccHGOiBE.s:1354   .text.coap_split_path:0000000000000086 .LVL148
C:\Users\stapi\AppData\Local\Temp\ccHGOiBE.s:1301   .text.coap_split_path:000000000000004a .LVL140
C:\Users\stapi\AppData\Local\Temp\ccHGOiBE.s:1308   .text.coap_split_path:000000000000004e .LVL141
C:\Users\stapi\AppData\Local\Temp\ccHGOiBE.s:1313   .text.coap_split_path:0000000000000052 .LVL142
C:\Users\stapi\AppData\Local\Temp\ccHGOiBE.s:1325   .text.coap_split_path:000000000000005e .LVL143
C:\Users\stapi\AppData\Local\Temp\ccHGOiBE.s:1343   .text.coap_split_path:000000000000007a .LVL145
C:\Users\stapi\AppData\Local\Temp\ccHGOiBE.s:1281   .text.coap_split_path:0000000000000036 .LVL135
C:\Users\stapi\AppData\Local\Temp\ccHGOiBE.s:737    .text.write_option:0000000000000000 .LVL82
C:\Users\stapi\AppData\Local\Temp\ccHGOiBE.s:760    .text.write_option:000000000000001e .LVL85
C:\Users\stapi\AppData\Local\Temp\ccHGOiBE.s:818    .text.write_option:0000000000000064 .LVL92
C:\Users\stapi\AppData\Local\Temp\ccHGOiBE.s:889    .text.write_option:00000000000000c6 .LVL100
C:\Users\stapi\AppData\Local\Temp\ccHGOiBE.s:910    .text.write_option:00000000000000da .LVL102
C:\Users\stapi\AppData\Local\Temp\ccHGOiBE.s:948    .text.write_option:000000000000010a .LVL107
C:\Users\stapi\AppData\Local\Temp\ccHGOiBE.s:907    .text.write_option:00000000000000d8 .LVL101
C:\Users\stapi\AppData\Local\Temp\ccHGOiBE.s:914    .text.write_option:00000000000000e0 .LVL103
C:\Users\stapi\AppData\Local\Temp\ccHGOiBE.s:756    .text.write_option:0000000000000012 .LVL84
C:\Users\stapi\AppData\Local\Temp\ccHGOiBE.s:787    .text.write_option:000000000000003c .LVL88
C:\Users\stapi\AppData\Local\Temp\ccHGOiBE.s:748    .text.write_option:0000000000000008 .LVL83
C:\Users\stapi\AppData\Local\Temp\ccHGOiBE.s:1013   .text.write_option:000000000000014c .LVL113
C:\Users\stapi\AppData\Local\Temp\ccHGOiBE.s:1035   .text.write_option:000000000000015e .LVL115
C:\Users\stapi\AppData\Local\Temp\ccHGOiBE.s:1029   .text.write_option:0000000000000158 .LVL114
C:\Users\stapi\AppData\Local\Temp\ccHGOiBE.s:778    .text.write_option:0000000000000038 .LVL87
C:\Users\stapi\AppData\Local\Temp\ccHGOiBE.s:2996   .debug_info:0000000000000000 .Ldebug_info0
C:\Users\stapi\AppData\Local\Temp\ccHGOiBE.s:1038   .text.write_option:0000000000000160 .LVL116
C:\Users\stapi\AppData\Local\Temp\ccHGOiBE.s:797    .text.write_option:0000000000000052 .LVL90
C:\Users\stapi\AppData\Local\Temp\ccHGOiBE.s:924    .text.write_option:00000000000000e6 .LVL104
C:\Users\stapi\AppData\Local\Temp\ccHGOiBE.s:927    .text.write_option:00000000000000ea .LVL105
C:\Users\stapi\AppData\Local\Temp\ccHGOiBE.s:868    .text.write_option:000000000000009c .LVL98
C:\Users\stapi\AppData\Local\Temp\ccHGOiBE.s:1001   .text.write_option:0000000000000148 .LVL112
C:\Users\stapi\AppData\Local\Temp\ccHGOiBE.s:990    .text.write_option:0000000000000140 .LVL109
C:\Users\stapi\AppData\Local\Temp\ccHGOiBE.s:997    .text.write_option:0000000000000144 .LVL111
C:\Users\stapi\AppData\Local\Temp\ccHGOiBE.s:1046   .text.write_option:0000000000000162 .LVL117
C:\Users\stapi\AppData\Local\Temp\ccHGOiBE.s:1534   .text.coap_uri_into_options:0000000000000000 .LVL160
C:\Users\stapi\AppData\Local\Temp\ccHGOiBE.s:1728   .text.coap_uri_into_options:00000000000000f8 .LVL183
C:\Users\stapi\AppData\Local\Temp\ccHGOiBE.s:1733   .text.coap_uri_into_options:00000000000000fc .LVL184
C:\Users\stapi\AppData\Local\Temp\ccHGOiBE.s:1779   .text.coap_uri_into_options:0000000000000144 .LVL190
C:\Users\stapi\AppData\Local\Temp\ccHGOiBE.s:1799   .text.coap_uri_into_options:0000000000000150 .LVL192
C:\Users\stapi\AppData\Local\Temp\ccHGOiBE.s:1871   .text.coap_uri_into_options:00000000000001ce .LVL205
C:\Users\stapi\AppData\Local\Temp\ccHGOiBE.s:1628   .text.coap_uri_into_options:0000000000000064 .LVL171
C:\Users\stapi\AppData\Local\Temp\ccHGOiBE.s:1783   .text.coap_uri_into_options:0000000000000146 .LVL191
C:\Users\stapi\AppData\Local\Temp\ccHGOiBE.s:1877   .text.coap_uri_into_options:00000000000001d4 .LVL206
C:\Users\stapi\AppData\Local\Temp\ccHGOiBE.s:1771   .text.coap_uri_into_options:000000000000013c .LVL189
C:\Users\stapi\AppData\Local\Temp\ccHGOiBE.s:1837   .text.coap_uri_into_options:0000000000000194 .LVL200
C:\Users\stapi\AppData\Local\Temp\ccHGOiBE.s:1556   .text.coap_uri_into_options:0000000000000012 .LVL161
C:\Users\stapi\AppData\Local\Temp\ccHGOiBE.s:1721   .text.coap_uri_into_options:00000000000000f4 .LVL182
C:\Users\stapi\AppData\Local\Temp\ccHGOiBE.s:1843   .text.coap_uri_into_options:0000000000000196 .LVL201
C:\Users\stapi\AppData\Local\Temp\ccHGOiBE.s:1571   .text.coap_uri_into_options:0000000000000022 .LVL163
C:\Users\stapi\AppData\Local\Temp\ccHGOiBE.s:1685   .text.coap_uri_into_options:00000000000000bc .LVL176
C:\Users\stapi\AppData\Local\Temp\ccHGOiBE.s:1701   .text.coap_uri_into_options:00000000000000e4 .LVL180
C:\Users\stapi\AppData\Local\Temp\ccHGOiBE.s:1713   .text.coap_uri_into_options:00000000000000f0 .LVL181
C:\Users\stapi\AppData\Local\Temp\ccHGOiBE.s:1740   .text.coap_uri_into_options:0000000000000102 .LVL185
C:\Users\stapi\AppData\Local\Temp\ccHGOiBE.s:1582   .text.coap_uri_into_options:000000000000002a .LVL164
C:\Users\stapi\AppData\Local\Temp\ccHGOiBE.s:1611   .text.coap_uri_into_options:0000000000000044 .LVL168
C:\Users\stapi\AppData\Local\Temp\ccHGOiBE.s:1586   .text.coap_uri_into_options:000000000000002c .LVL165
C:\Users\stapi\AppData\Local\Temp\ccHGOiBE.s:1595   .text.coap_uri_into_options:0000000000000032 .LVL166
C:\Users\stapi\AppData\Local\Temp\ccHGOiBE.s:1140   .text.coap_split_proxy_uri:0000000000000000 .LVL124
C:\Users\stapi\AppData\Local\Temp\ccHGOiBE.s:1123   .text.coap_split_uri:0000000000000000 .LVL122
C:\Users\stapi\AppData\Local\Temp\ccHGOiBE.s:42     .text.coap_split_uri_sub:0000000000000000 .LVL0
C:\Users\stapi\AppData\Local\Temp\ccHGOiBE.s:52     .text.coap_split_uri_sub:0000000000000004 .LVL1
C:\Users\stapi\AppData\Local\Temp\ccHGOiBE.s:55     .text.coap_split_uri_sub:0000000000000006 .LVL2
C:\Users\stapi\AppData\Local\Temp\ccHGOiBE.s:87     .text.coap_split_uri_sub:0000000000000022 .LVL5
C:\Users\stapi\AppData\Local\Temp\ccHGOiBE.s:199    .text.coap_split_uri_sub:00000000000000e4 .LVL14
C:\Users\stapi\AppData\Local\Temp\ccHGOiBE.s:207    .text.coap_split_uri_sub:00000000000000ec .LVL15
C:\Users\stapi\AppData\Local\Temp\ccHGOiBE.s:239    .text.coap_split_uri_sub:0000000000000116 .LVL20
C:\Users\stapi\AppData\Local\Temp\ccHGOiBE.s:432    .text.coap_split_uri_sub:000000000000025e .LVL41
C:\Users\stapi\AppData\Local\Temp\ccHGOiBE.s:485    .text.coap_split_uri_sub:0000000000000290 .LVL49
C:\Users\stapi\AppData\Local\Temp\ccHGOiBE.s:555    .text.coap_split_uri_sub:00000000000002fa .LVL57
C:\Users\stapi\AppData\Local\Temp\ccHGOiBE.s:664    .text.coap_split_uri_sub:0000000000000370 .LVL74
C:\Users\stapi\AppData\Local\Temp\ccHGOiBE.s:669    .text.coap_split_uri_sub:0000000000000374 .LVL75
C:\Users\stapi\AppData\Local\Temp\ccHGOiBE.s:80     .text.coap_split_uri_sub:0000000000000018 .LVL3
C:\Users\stapi\AppData\Local\Temp\ccHGOiBE.s:416    .text.coap_split_uri_sub:0000000000000248 .LVL39
C:\Users\stapi\AppData\Local\Temp\ccHGOiBE.s:419    .text.coap_split_uri_sub:000000000000024c .LVL40
C:\Users\stapi\AppData\Local\Temp\ccHGOiBE.s:460    .text.coap_split_uri_sub:0000000000000282 .LVL44
C:\Users\stapi\AppData\Local\Temp\ccHGOiBE.s:468    .text.coap_split_uri_sub:0000000000000286 .LVL45
C:\Users\stapi\AppData\Local\Temp\ccHGOiBE.s:473    .text.coap_split_uri_sub:0000000000000288 .LVL46
C:\Users\stapi\AppData\Local\Temp\ccHGOiBE.s:476    .text.coap_split_uri_sub:000000000000028a .LVL47
C:\Users\stapi\AppData\Local\Temp\ccHGOiBE.s:480    .text.coap_split_uri_sub:000000000000028c .LVL48
C:\Users\stapi\AppData\Local\Temp\ccHGOiBE.s:542    .text.coap_split_uri_sub:00000000000002e6 .LVL56
C:\Users\stapi\AppData\Local\Temp\ccHGOiBE.s:557    .text.coap_split_uri_sub:00000000000002fc .LVL58
C:\Users\stapi\AppData\Local\Temp\ccHGOiBE.s:692    .text.coap_split_uri_sub:0000000000000394 .LVL78
C:\Users\stapi\AppData\Local\Temp\ccHGOiBE.s:697    .text.coap_split_uri_sub:0000000000000396 .LVL79
C:\Users\stapi\AppData\Local\Temp\ccHGOiBE.s:84     .text.coap_split_uri_sub:000000000000001e .LVL4
C:\Users\stapi\AppData\Local\Temp\ccHGOiBE.s:98     .text.coap_split_uri_sub:0000000000000036 .LVL7
C:\Users\stapi\AppData\Local\Temp\ccHGOiBE.s:109    .text.coap_split_uri_sub:000000000000004a .LVL8
C:\Users\stapi\AppData\Local\Temp\ccHGOiBE.s:217    .text.coap_split_uri_sub:00000000000000fa .LVL16
C:\Users\stapi\AppData\Local\Temp\ccHGOiBE.s:569    .text.coap_split_uri_sub:000000000000030e .LVL59
C:\Users\stapi\AppData\Local\Temp\ccHGOiBE.s:572    .text.coap_split_uri_sub:0000000000000312 .LVL60
C:\Users\stapi\AppData\Local\Temp\ccHGOiBE.s:604    .text.coap_split_uri_sub:0000000000000336 .LVL63
C:\Users\stapi\AppData\Local\Temp\ccHGOiBE.s:611    .text.coap_split_uri_sub:000000000000033c .LVL64
C:\Users\stapi\AppData\Local\Temp\ccHGOiBE.s:655    .text.coap_split_uri_sub:000000000000036a .LVL71
C:\Users\stapi\AppData\Local\Temp\ccHGOiBE.s:681    .text.coap_split_uri_sub:0000000000000384 .LVL76
C:\Users\stapi\AppData\Local\Temp\ccHGOiBE.s:700    .text.coap_split_uri_sub:0000000000000398 .LVL80
C:\Users\stapi\AppData\Local\Temp\ccHGOiBE.s:226    .text.coap_split_uri_sub:0000000000000102 .LVL18
C:\Users\stapi\AppData\Local\Temp\ccHGOiBE.s:236    .text.coap_split_uri_sub:0000000000000112 .LVL19
C:\Users\stapi\AppData\Local\Temp\ccHGOiBE.s:451    .text.coap_split_uri_sub:000000000000027e .LVL42
C:\Users\stapi\AppData\Local\Temp\ccHGOiBE.s:524    .text.coap_split_uri_sub:00000000000002d0 .LVL53
C:\Users\stapi\AppData\Local\Temp\ccHGOiBE.s:584    .text.coap_split_uri_sub:000000000000031e .LVL62
C:\Users\stapi\AppData\Local\Temp\ccHGOiBE.s:659    .text.coap_split_uri_sub:000000000000036c .LVL72
C:\Users\stapi\AppData\Local\Temp\ccHGOiBE.s:685    .text.coap_split_uri_sub:0000000000000388 .LVL77
C:\Users\stapi\AppData\Local\Temp\ccHGOiBE.s:705    .text.coap_split_uri_sub:00000000000003a2 .LVL81
C:\Users\stapi\AppData\Local\Temp\ccHGOiBE.s:132    .text.coap_split_uri_sub:000000000000007a .LVL9
C:\Users\stapi\AppData\Local\Temp\ccHGOiBE.s:248    .text.coap_split_uri_sub:000000000000011c .LVL23
C:\Users\stapi\AppData\Local\Temp\ccHGOiBE.s:454    .text.coap_split_uri_sub:0000000000000280 .LVL43
C:\Users\stapi\AppData\Local\Temp\ccHGOiBE.s:507    .text.coap_split_uri_sub:00000000000002be .LVL50
C:\Users\stapi\AppData\Local\Temp\ccHGOiBE.s:510    .text.coap_split_uri_sub:00000000000002c0 .LVL51
C:\Users\stapi\AppData\Local\Temp\ccHGOiBE.s:519    .text.coap_split_uri_sub:00000000000002cc .LVL52
C:\Users\stapi\AppData\Local\Temp\ccHGOiBE.s:625    .text.coap_split_uri_sub:0000000000000352 .LVL66
C:\Users\stapi\AppData\Local\Temp\ccHGOiBE.s:635    .text.coap_split_uri_sub:0000000000000358 .LVL69
C:\Users\stapi\AppData\Local\Temp\ccHGOiBE.s:617    .text.coap_split_uri_sub:0000000000000346 .LVL65
C:\Users\stapi\AppData\Local\Temp\ccHGOiBE.s:641    .text.coap_split_uri_sub:000000000000035a .LVL70
C:\Users\stapi\AppData\Local\Temp\ccHGOiBE.s:1065   .text.is_unescaped_in_path:0000000000000000 .LVL118
C:\Users\stapi\AppData\Local\Temp\ccHGOiBE.s:1081   .text.is_unescaped_in_path:000000000000001c .LVL119
C:\Users\stapi\AppData\Local\Temp\ccHGOiBE.s:1100   .text.is_unescaped_in_path:0000000000000042 .LVL120
C:\Users\stapi\AppData\Local\Temp\ccHGOiBE.s:1105   .text.is_unescaped_in_path:0000000000000046 .LVL121
C:\Users\stapi\AppData\Local\Temp\ccHGOiBE.s:1157   .text.coap_host_is_unix_domain:0000000000000000 .LVL126
C:\Users\stapi\AppData\Local\Temp\ccHGOiBE.s:1182   .text.coap_host_is_unix_domain:000000000000002e .LVL127
C:\Users\stapi\AppData\Local\Temp\ccHGOiBE.s:1187   .text.coap_host_is_unix_domain:0000000000000038 .LVL128
C:\Users\stapi\AppData\Local\Temp\ccHGOiBE.s:1192   .text.coap_host_is_unix_domain:000000000000003a .LVL129
C:\Users\stapi\AppData\Local\Temp\ccHGOiBE.s:1201   .text.coap_host_is_unix_domain:000000000000003e .LVL131
C:\Users\stapi\AppData\Local\Temp\ccHGOiBE.s:599    .text.coap_split_uri_sub:0000000000000332 .LBB2
C:\Users\stapi\AppData\Local\Temp\ccHGOiBE.s:627    .text.coap_split_uri_sub:0000000000000352 .LBE2
C:\Users\stapi\AppData\Local\Temp\ccHGOiBE.s:637    .text.coap_split_uri_sub:0000000000000358 .LBB3
C:\Users\stapi\AppData\Local\Temp\ccHGOiBE.s:650    .text.coap_split_uri_sub:0000000000000364 .LBE3
C:\Users\stapi\AppData\Local\Temp\ccHGOiBE.s:771    .text.write_option:000000000000002e .LBE10
C:\Users\stapi\AppData\Local\Temp\ccHGOiBE.s:779    .text.write_option:0000000000000038 .LBB28
C:\Users\stapi\AppData\Local\Temp\ccHGOiBE.s:804    .text.write_option:000000000000005c .LBE28
C:\Users\stapi\AppData\Local\Temp\ccHGOiBE.s:821    .text.write_option:0000000000000064 .LBB29
C:\Users\stapi\AppData\Local\Temp\ccHGOiBE.s:1006   .text.write_option:0000000000000148 .LBE29
C:\Users\stapi\AppData\Local\Temp\ccHGOiBE.s:1009   .text.write_option:000000000000014a .LBB30
C:\Users\stapi\AppData\Local\Temp\ccHGOiBE.s:1016   .text.write_option:000000000000014c .LBE30
C:\Users\stapi\AppData\Local\Temp\ccHGOiBE.s:1040   .text.write_option:0000000000000160 .LBB31
C:\Users\stapi\AppData\Local\Temp\ccHGOiBE.s:1054   .text.write_option:0000000000000168 .LBE31
C:\Users\stapi\AppData\Local\Temp\ccHGOiBE.s:871    .text.write_option:000000000000009c .LBE12
C:\Users\stapi\AppData\Local\Temp\ccHGOiBE.s:891    .text.write_option:00000000000000c6 .LBB16
C:\Users\stapi\AppData\Local\Temp\ccHGOiBE.s:898    .text.write_option:00000000000000ce .LBE16
C:\Users\stapi\AppData\Local\Temp\ccHGOiBE.s:901    .text.write_option:00000000000000d2 .LBB17
C:\Users\stapi\AppData\Local\Temp\ccHGOiBE.s:917    .text.write_option:00000000000000e0 .LBE17
C:\Users\stapi\AppData\Local\Temp\ccHGOiBE.s:935    .text.write_option:00000000000000ee .LBE18
C:\Users\stapi\AppData\Local\Temp\ccHGOiBE.s:950    .text.write_option:000000000000010a .LBB22
C:\Users\stapi\AppData\Local\Temp\ccHGOiBE.s:1003   .text.write_option:0000000000000148 .LBE22
C:\Users\stapi\AppData\Local\Temp\ccHGOiBE.s:1042   .text.write_option:0000000000000160 .LBB23
C:\Users\stapi\AppData\Local\Temp\ccHGOiBE.s:1052   .text.write_option:0000000000000168 .LBE23
C:\Users\stapi\AppData\Local\Temp\ccHGOiBE.s:1260   .text.coap_split_path:0000000000000022 .LBE50
C:\Users\stapi\AppData\Local\Temp\ccHGOiBE.s:1302   .text.coap_split_path:000000000000004a .LBB59
C:\Users\stapi\AppData\Local\Temp\ccHGOiBE.s:1317   .text.coap_split_path:0000000000000052 .LBE59
C:\Users\stapi\AppData\Local\Temp\ccHGOiBE.s:1274   .text.coap_split_path:000000000000002e .LBE53
C:\Users\stapi\AppData\Local\Temp\ccHGOiBE.s:1326   .text.coap_split_path:000000000000005e .LBB60
C:\Users\stapi\AppData\Local\Temp\ccHGOiBE.s:1345   .text.coap_split_path:000000000000007a .LBE60
C:\Users\stapi\AppData\Local\Temp\ccHGOiBE.s:1290   .text.coap_split_path:000000000000003a .LBE56
C:\Users\stapi\AppData\Local\Temp\ccHGOiBE.s:1364   .text.coap_split_path:000000000000008a .LBB61
C:\Users\stapi\AppData\Local\Temp\ccHGOiBE.s:1383   .text.coap_split_path:00000000000000aa .LBE61
C:\Users\stapi\AppData\Local\Temp\ccHGOiBE.s:1569   .text.coap_uri_into_options:0000000000000022 .LBB67
C:\Users\stapi\AppData\Local\Temp\ccHGOiBE.s:1715   .text.coap_uri_into_options:00000000000000f0 .LBE67
C:\Users\stapi\AppData\Local\Temp\ccHGOiBE.s:1735   .text.coap_uri_into_options:00000000000000fc .LBB72
C:\Users\stapi\AppData\Local\Temp\ccHGOiBE.s:1742   .text.coap_uri_into_options:0000000000000102 .LBE72
C:\Users\stapi\AppData\Local\Temp\ccHGOiBE.s:2204   .text.coap_get_query:0000000000000032 .LBB84
C:\Users\stapi\AppData\Local\Temp\ccHGOiBE.s:2217   .text.coap_get_query:0000000000000036 .LBE84
C:\Users\stapi\AppData\Local\Temp\ccHGOiBE.s:2257   .text.coap_get_query:0000000000000054 .LBB93
C:\Users\stapi\AppData\Local\Temp\ccHGOiBE.s:2329   .text.coap_get_query:00000000000000a0 .LBE93
C:\Users\stapi\AppData\Local\Temp\ccHGOiBE.s:2216   .text.coap_get_query:0000000000000036 .LBE85
C:\Users\stapi\AppData\Local\Temp\ccHGOiBE.s:2291   .text.coap_get_query:0000000000000082 .LBB92
C:\Users\stapi\AppData\Local\Temp\ccHGOiBE.s:2310   .text.coap_get_query:0000000000000096 .LBE92
C:\Users\stapi\AppData\Local\Temp\ccHGOiBE.s:2214   .text.coap_get_query:0000000000000036 .LBE87
C:\Users\stapi\AppData\Local\Temp\ccHGOiBE.s:2301   .text.coap_get_query:000000000000008e .LBB90
C:\Users\stapi\AppData\Local\Temp\ccHGOiBE.s:2308   .text.coap_get_query:0000000000000096 .LBE90
C:\Users\stapi\AppData\Local\Temp\ccHGOiBE.s:2360   .text.coap_get_query:00000000000000bc .LBB95
C:\Users\stapi\AppData\Local\Temp\ccHGOiBE.s:2363   .text.coap_get_query:00000000000000c0 .LBE95
C:\Users\stapi\AppData\Local\Temp\ccHGOiBE.s:2368   .text.coap_get_query:00000000000000c8 .LBB104
C:\Users\stapi\AppData\Local\Temp\ccHGOiBE.s:2387   .text.coap_get_query:00000000000000d8 .LBE104
C:\Users\stapi\AppData\Local\Temp\ccHGOiBE.s:2397   .text.coap_get_query:00000000000000e6 .LBB105
C:\Users\stapi\AppData\Local\Temp\ccHGOiBE.s:2501   .text.coap_get_query:0000000000000164 .LBE105
C:\Users\stapi\AppData\Local\Temp\ccHGOiBE.s:2380   .text.coap_get_query:00000000000000d0 .LBE96
C:\Users\stapi\AppData\Local\Temp\ccHGOiBE.s:2439   .text.coap_get_query:000000000000011e .LBB103
C:\Users\stapi\AppData\Local\Temp\ccHGOiBE.s:2458   .text.coap_get_query:0000000000000132 .LBE103
C:\Users\stapi\AppData\Local\Temp\ccHGOiBE.s:2378   .text.coap_get_query:00000000000000d0 .LBE98
C:\Users\stapi\AppData\Local\Temp\ccHGOiBE.s:2449   .text.coap_get_query:000000000000012a .LBB101
C:\Users\stapi\AppData\Local\Temp\ccHGOiBE.s:2456   .text.coap_get_query:0000000000000132 .LBE101
C:\Users\stapi\AppData\Local\Temp\ccHGOiBE.s:2660   .text.coap_get_uri_path:00000000000000b4 .LBB107
C:\Users\stapi\AppData\Local\Temp\ccHGOiBE.s:2746   .text.coap_get_uri_path:000000000000011c .LBE107
C:\Users\stapi\AppData\Local\Temp\ccHGOiBE.s:2803   .text.coap_get_uri_path:000000000000015e .LBB113
C:\Users\stapi\AppData\Local\Temp\ccHGOiBE.s:2856   .text.coap_get_uri_path:00000000000001a0 .LBE113
C:\Users\stapi\AppData\Local\Temp\ccHGOiBE.s:2674   .text.coap_get_uri_path:00000000000000be .LBB108
C:\Users\stapi\AppData\Local\Temp\ccHGOiBE.s:2677   .text.coap_get_uri_path:00000000000000c2 .LBE108
C:\Users\stapi\AppData\Local\Temp\ccHGOiBE.s:2684   .text.coap_get_uri_path:00000000000000cc .LBB109
C:\Users\stapi\AppData\Local\Temp\ccHGOiBE.s:2693   .text.coap_get_uri_path:00000000000000d8 .LBE109
C:\Users\stapi\AppData\Local\Temp\ccHGOiBE.s:2703   .text.coap_get_uri_path:00000000000000e6 .LBB110
C:\Users\stapi\AppData\Local\Temp\ccHGOiBE.s:2745   .text.coap_get_uri_path:000000000000011c .LBE110
C:\Users\stapi\AppData\Local\Temp\ccHGOiBE.s:2804   .text.coap_get_uri_path:000000000000015e .LBB111
C:\Users\stapi\AppData\Local\Temp\ccHGOiBE.s:2855   .text.coap_get_uri_path:00000000000001a0 .LBE111

UNDEFINED SYMBOLS
__riscv_save_11
memset
strlen
memcmp
coap_get_log_level
coap_log_impl
__riscv_restore_11
coap_dtls_is_supported
coap_tcp_is_supported
coap_ws_is_supported
coap_wss_is_supported
_ctype_
__riscv_save_6
__assert_func
__riscv_restore_6
coap_opt_setheader
__riscv_save_9
__riscv_restore_9
__riscv_save_5
__riscv_restore_5
__riscv_save_7
coap_print_ip_addr
coap_new_optlist
coap_insert_optlist
coap_encode_var_safe
__riscv_restore_7
coap_opt_length
coap_opt_value
coap_opt_size
__riscv_save_3
coap_malloc_type
memcpy
coap_free_type
__riscv_restore_3
__riscv_save_2
__riscv_restore_2
__riscv_save_10
coap_option_filter_clear
coap_option_filter_set
coap_option_iterator_init
coap_option_next
__riscv_restore_10
coap_new_string
coap_check_option
