   1              		.file	"coap_cache.c"
   2              		.option nopic
   3              		.attribute arch, "rv32i2p0_m2p0_a2p0_f2p0_c2p0_b_p0p94"
   4              		.attribute unaligned_access, 0
   5              		.attribute stack_align, 16
   6              		.text
   7              	.Ltext0:
   8              		.cfi_sections	.debug_frame
   9              		.section	.rodata.coap_cache_ignore_options.str1.4,"aMS",@progbits,1
  10              		.align	2
  11              	.LC0:
  12 0000 6F707469 		.string	"options"
  12      6F6E7300 
  13              		.align	2
  14              	.LC1:
  15 0008 433A2F55 		.string	"C:/Users/stapi/OneDrive/Desktop/GD32VW553/V1_MQTT_OK/GD32VW55X_Wifi_BLE_SDK/GD32VW55x_REL
  15      73657273 
  15      2F737461 
  15      70692F4F 
  15      6E654472 
  16 0096 0000     		.align	2
  17              	.LC2:
  18 0098 556E6162 		.string	"Unable to create cache_ignore_options\n"
  18      6C652074 
  18      6F206372 
  18      65617465 
  18      20636163 
  19              		.section	.text.coap_cache_ignore_options,"ax",@progbits
  20              		.align	1
  21              		.globl	coap_cache_ignore_options
  23              	coap_cache_ignore_options:
  24              	.LFB32:
  25              		.file 1 "C:/Users/stapi/OneDrive/Desktop/GD32VW553/V1_MQTT_OK/GD32VW55X_Wifi_BLE_SDK/GD32VW55x_REL
   1:C:/Users/stapi/OneDrive/Desktop/GD32VW553/V1_MQTT_OK/GD32VW55X_Wifi_BLE_SDK/GD32VW55x_RELEASE_V1.0.2/MSDK/lwip/libcoap-4.3.4/src\coap_cache.c **** /* coap_cache.c -- Caching of CoAP requests
   2:C:/Users/stapi/OneDrive/Desktop/GD32VW553/V1_MQTT_OK/GD32VW55X_Wifi_BLE_SDK/GD32VW55x_RELEASE_V1.0.2/MSDK/lwip/libcoap-4.3.4/src\coap_cache.c **** *
   3:C:/Users/stapi/OneDrive/Desktop/GD32VW553/V1_MQTT_OK/GD32VW55X_Wifi_BLE_SDK/GD32VW55x_RELEASE_V1.0.2/MSDK/lwip/libcoap-4.3.4/src\coap_cache.c **** * Copyright (C) 2020-2023 Olaf Bergmann <bergmann@tzi.org>
   4:C:/Users/stapi/OneDrive/Desktop/GD32VW553/V1_MQTT_OK/GD32VW55X_Wifi_BLE_SDK/GD32VW55x_RELEASE_V1.0.2/MSDK/lwip/libcoap-4.3.4/src\coap_cache.c **** *
   5:C:/Users/stapi/OneDrive/Desktop/GD32VW553/V1_MQTT_OK/GD32VW55X_Wifi_BLE_SDK/GD32VW55x_RELEASE_V1.0.2/MSDK/lwip/libcoap-4.3.4/src\coap_cache.c ****  * SPDX-License-Identifier: BSD-2-Clause
   6:C:/Users/stapi/OneDrive/Desktop/GD32VW553/V1_MQTT_OK/GD32VW55X_Wifi_BLE_SDK/GD32VW55x_RELEASE_V1.0.2/MSDK/lwip/libcoap-4.3.4/src\coap_cache.c ****  *
   7:C:/Users/stapi/OneDrive/Desktop/GD32VW553/V1_MQTT_OK/GD32VW55X_Wifi_BLE_SDK/GD32VW55x_RELEASE_V1.0.2/MSDK/lwip/libcoap-4.3.4/src\coap_cache.c **** * This file is part of the CoAP library libcoap. Please see
   8:C:/Users/stapi/OneDrive/Desktop/GD32VW553/V1_MQTT_OK/GD32VW55X_Wifi_BLE_SDK/GD32VW55x_RELEASE_V1.0.2/MSDK/lwip/libcoap-4.3.4/src\coap_cache.c **** * README for terms of use.
   9:C:/Users/stapi/OneDrive/Desktop/GD32VW553/V1_MQTT_OK/GD32VW55X_Wifi_BLE_SDK/GD32VW55x_RELEASE_V1.0.2/MSDK/lwip/libcoap-4.3.4/src\coap_cache.c **** */
  10:C:/Users/stapi/OneDrive/Desktop/GD32VW553/V1_MQTT_OK/GD32VW55X_Wifi_BLE_SDK/GD32VW55x_RELEASE_V1.0.2/MSDK/lwip/libcoap-4.3.4/src\coap_cache.c **** 
  11:C:/Users/stapi/OneDrive/Desktop/GD32VW553/V1_MQTT_OK/GD32VW55X_Wifi_BLE_SDK/GD32VW55x_RELEASE_V1.0.2/MSDK/lwip/libcoap-4.3.4/src\coap_cache.c **** /**
  12:C:/Users/stapi/OneDrive/Desktop/GD32VW553/V1_MQTT_OK/GD32VW55X_Wifi_BLE_SDK/GD32VW55x_RELEASE_V1.0.2/MSDK/lwip/libcoap-4.3.4/src\coap_cache.c ****  * @file coap_cache.c
  13:C:/Users/stapi/OneDrive/Desktop/GD32VW553/V1_MQTT_OK/GD32VW55X_Wifi_BLE_SDK/GD32VW55x_RELEASE_V1.0.2/MSDK/lwip/libcoap-4.3.4/src\coap_cache.c ****  * @brief CoAP Cache handling
  14:C:/Users/stapi/OneDrive/Desktop/GD32VW553/V1_MQTT_OK/GD32VW55X_Wifi_BLE_SDK/GD32VW55x_RELEASE_V1.0.2/MSDK/lwip/libcoap-4.3.4/src\coap_cache.c ****  */
  15:C:/Users/stapi/OneDrive/Desktop/GD32VW553/V1_MQTT_OK/GD32VW55X_Wifi_BLE_SDK/GD32VW55x_RELEASE_V1.0.2/MSDK/lwip/libcoap-4.3.4/src\coap_cache.c **** 
  16:C:/Users/stapi/OneDrive/Desktop/GD32VW553/V1_MQTT_OK/GD32VW55X_Wifi_BLE_SDK/GD32VW55x_RELEASE_V1.0.2/MSDK/lwip/libcoap-4.3.4/src\coap_cache.c **** #include "coap3/coap_internal.h"
  17:C:/Users/stapi/OneDrive/Desktop/GD32VW553/V1_MQTT_OK/GD32VW55X_Wifi_BLE_SDK/GD32VW55x_RELEASE_V1.0.2/MSDK/lwip/libcoap-4.3.4/src\coap_cache.c **** 
  18:C:/Users/stapi/OneDrive/Desktop/GD32VW553/V1_MQTT_OK/GD32VW55X_Wifi_BLE_SDK/GD32VW55x_RELEASE_V1.0.2/MSDK/lwip/libcoap-4.3.4/src\coap_cache.c **** #if COAP_SERVER_SUPPORT
  19:C:/Users/stapi/OneDrive/Desktop/GD32VW553/V1_MQTT_OK/GD32VW55X_Wifi_BLE_SDK/GD32VW55x_RELEASE_V1.0.2/MSDK/lwip/libcoap-4.3.4/src\coap_cache.c **** /* Determines if the given option_type denotes an option type that can
  20:C:/Users/stapi/OneDrive/Desktop/GD32VW553/V1_MQTT_OK/GD32VW55X_Wifi_BLE_SDK/GD32VW55x_RELEASE_V1.0.2/MSDK/lwip/libcoap-4.3.4/src\coap_cache.c ****  * be used as CacheKey. Options that can be cache keys are not Unsafe
  21:C:/Users/stapi/OneDrive/Desktop/GD32VW553/V1_MQTT_OK/GD32VW55X_Wifi_BLE_SDK/GD32VW55x_RELEASE_V1.0.2/MSDK/lwip/libcoap-4.3.4/src\coap_cache.c ****  * and not marked explicitly as NoCacheKey. */
  22:C:/Users/stapi/OneDrive/Desktop/GD32VW553/V1_MQTT_OK/GD32VW55X_Wifi_BLE_SDK/GD32VW55x_RELEASE_V1.0.2/MSDK/lwip/libcoap-4.3.4/src\coap_cache.c **** static int
  23:C:/Users/stapi/OneDrive/Desktop/GD32VW553/V1_MQTT_OK/GD32VW55X_Wifi_BLE_SDK/GD32VW55x_RELEASE_V1.0.2/MSDK/lwip/libcoap-4.3.4/src\coap_cache.c **** is_cache_key(uint16_t option_type, size_t cache_ignore_count,
  24:C:/Users/stapi/OneDrive/Desktop/GD32VW553/V1_MQTT_OK/GD32VW55X_Wifi_BLE_SDK/GD32VW55x_RELEASE_V1.0.2/MSDK/lwip/libcoap-4.3.4/src\coap_cache.c ****              const uint16_t *cache_ignore_options) {
  25:C:/Users/stapi/OneDrive/Desktop/GD32VW553/V1_MQTT_OK/GD32VW55X_Wifi_BLE_SDK/GD32VW55x_RELEASE_V1.0.2/MSDK/lwip/libcoap-4.3.4/src\coap_cache.c ****   size_t i;
  26:C:/Users/stapi/OneDrive/Desktop/GD32VW553/V1_MQTT_OK/GD32VW55X_Wifi_BLE_SDK/GD32VW55x_RELEASE_V1.0.2/MSDK/lwip/libcoap-4.3.4/src\coap_cache.c **** 
  27:C:/Users/stapi/OneDrive/Desktop/GD32VW553/V1_MQTT_OK/GD32VW55X_Wifi_BLE_SDK/GD32VW55x_RELEASE_V1.0.2/MSDK/lwip/libcoap-4.3.4/src\coap_cache.c ****   /* https://rfc-editor.org/rfc/rfc7252#section-5.4.6 Nocachekey definition */
  28:C:/Users/stapi/OneDrive/Desktop/GD32VW553/V1_MQTT_OK/GD32VW55X_Wifi_BLE_SDK/GD32VW55x_RELEASE_V1.0.2/MSDK/lwip/libcoap-4.3.4/src\coap_cache.c ****   if ((option_type & 0x1e) == 0x1c)
  29:C:/Users/stapi/OneDrive/Desktop/GD32VW553/V1_MQTT_OK/GD32VW55X_Wifi_BLE_SDK/GD32VW55x_RELEASE_V1.0.2/MSDK/lwip/libcoap-4.3.4/src\coap_cache.c ****     return 0;
  30:C:/Users/stapi/OneDrive/Desktop/GD32VW553/V1_MQTT_OK/GD32VW55X_Wifi_BLE_SDK/GD32VW55x_RELEASE_V1.0.2/MSDK/lwip/libcoap-4.3.4/src\coap_cache.c ****   /*
  31:C:/Users/stapi/OneDrive/Desktop/GD32VW553/V1_MQTT_OK/GD32VW55X_Wifi_BLE_SDK/GD32VW55x_RELEASE_V1.0.2/MSDK/lwip/libcoap-4.3.4/src\coap_cache.c ****    * https://rfc-editor.org/rfc/rfc7641#section-2 Observe is not a
  32:C:/Users/stapi/OneDrive/Desktop/GD32VW553/V1_MQTT_OK/GD32VW55X_Wifi_BLE_SDK/GD32VW55x_RELEASE_V1.0.2/MSDK/lwip/libcoap-4.3.4/src\coap_cache.c ****    * part of the cache-key.
  33:C:/Users/stapi/OneDrive/Desktop/GD32VW553/V1_MQTT_OK/GD32VW55X_Wifi_BLE_SDK/GD32VW55x_RELEASE_V1.0.2/MSDK/lwip/libcoap-4.3.4/src\coap_cache.c ****    */
  34:C:/Users/stapi/OneDrive/Desktop/GD32VW553/V1_MQTT_OK/GD32VW55X_Wifi_BLE_SDK/GD32VW55x_RELEASE_V1.0.2/MSDK/lwip/libcoap-4.3.4/src\coap_cache.c ****   if (option_type == COAP_OPTION_OBSERVE)
  35:C:/Users/stapi/OneDrive/Desktop/GD32VW553/V1_MQTT_OK/GD32VW55X_Wifi_BLE_SDK/GD32VW55x_RELEASE_V1.0.2/MSDK/lwip/libcoap-4.3.4/src\coap_cache.c ****     return 0;
  36:C:/Users/stapi/OneDrive/Desktop/GD32VW553/V1_MQTT_OK/GD32VW55X_Wifi_BLE_SDK/GD32VW55x_RELEASE_V1.0.2/MSDK/lwip/libcoap-4.3.4/src\coap_cache.c **** 
  37:C:/Users/stapi/OneDrive/Desktop/GD32VW553/V1_MQTT_OK/GD32VW55X_Wifi_BLE_SDK/GD32VW55x_RELEASE_V1.0.2/MSDK/lwip/libcoap-4.3.4/src\coap_cache.c ****   /* Check for option user has defined as not part of cache-key */
  38:C:/Users/stapi/OneDrive/Desktop/GD32VW553/V1_MQTT_OK/GD32VW55X_Wifi_BLE_SDK/GD32VW55x_RELEASE_V1.0.2/MSDK/lwip/libcoap-4.3.4/src\coap_cache.c ****   for (i = 0; i < cache_ignore_count; i++) {
  39:C:/Users/stapi/OneDrive/Desktop/GD32VW553/V1_MQTT_OK/GD32VW55X_Wifi_BLE_SDK/GD32VW55x_RELEASE_V1.0.2/MSDK/lwip/libcoap-4.3.4/src\coap_cache.c ****     if (cache_ignore_options[i] == option_type) {
  40:C:/Users/stapi/OneDrive/Desktop/GD32VW553/V1_MQTT_OK/GD32VW55X_Wifi_BLE_SDK/GD32VW55x_RELEASE_V1.0.2/MSDK/lwip/libcoap-4.3.4/src\coap_cache.c ****       return 0;
  41:C:/Users/stapi/OneDrive/Desktop/GD32VW553/V1_MQTT_OK/GD32VW55X_Wifi_BLE_SDK/GD32VW55x_RELEASE_V1.0.2/MSDK/lwip/libcoap-4.3.4/src\coap_cache.c ****     }
  42:C:/Users/stapi/OneDrive/Desktop/GD32VW553/V1_MQTT_OK/GD32VW55X_Wifi_BLE_SDK/GD32VW55x_RELEASE_V1.0.2/MSDK/lwip/libcoap-4.3.4/src\coap_cache.c ****   }
  43:C:/Users/stapi/OneDrive/Desktop/GD32VW553/V1_MQTT_OK/GD32VW55X_Wifi_BLE_SDK/GD32VW55x_RELEASE_V1.0.2/MSDK/lwip/libcoap-4.3.4/src\coap_cache.c **** 
  44:C:/Users/stapi/OneDrive/Desktop/GD32VW553/V1_MQTT_OK/GD32VW55X_Wifi_BLE_SDK/GD32VW55x_RELEASE_V1.0.2/MSDK/lwip/libcoap-4.3.4/src\coap_cache.c ****   return 1;
  45:C:/Users/stapi/OneDrive/Desktop/GD32VW553/V1_MQTT_OK/GD32VW55X_Wifi_BLE_SDK/GD32VW55x_RELEASE_V1.0.2/MSDK/lwip/libcoap-4.3.4/src\coap_cache.c **** }
  46:C:/Users/stapi/OneDrive/Desktop/GD32VW553/V1_MQTT_OK/GD32VW55X_Wifi_BLE_SDK/GD32VW55x_RELEASE_V1.0.2/MSDK/lwip/libcoap-4.3.4/src\coap_cache.c **** 
  47:C:/Users/stapi/OneDrive/Desktop/GD32VW553/V1_MQTT_OK/GD32VW55X_Wifi_BLE_SDK/GD32VW55x_RELEASE_V1.0.2/MSDK/lwip/libcoap-4.3.4/src\coap_cache.c **** int
  48:C:/Users/stapi/OneDrive/Desktop/GD32VW553/V1_MQTT_OK/GD32VW55X_Wifi_BLE_SDK/GD32VW55x_RELEASE_V1.0.2/MSDK/lwip/libcoap-4.3.4/src\coap_cache.c **** coap_cache_ignore_options(coap_context_t *ctx,
  49:C:/Users/stapi/OneDrive/Desktop/GD32VW553/V1_MQTT_OK/GD32VW55X_Wifi_BLE_SDK/GD32VW55x_RELEASE_V1.0.2/MSDK/lwip/libcoap-4.3.4/src\coap_cache.c ****                           const uint16_t *options,
  50:C:/Users/stapi/OneDrive/Desktop/GD32VW553/V1_MQTT_OK/GD32VW55X_Wifi_BLE_SDK/GD32VW55x_RELEASE_V1.0.2/MSDK/lwip/libcoap-4.3.4/src\coap_cache.c ****                           size_t count) {
  26              		.loc 1 50 41
  27              		.cfi_startproc
  28              	.LVL0:
  29 0000 17030000 		call	t0,__riscv_save_3
  29      E7020300 
  30              		.cfi_offset 18, -16
  31              		.cfi_offset 9, -12
  32              		.cfi_offset 8, -8
  33              		.cfi_offset 1, -4
  34              		.cfi_def_cfa_offset 16
  51:C:/Users/stapi/OneDrive/Desktop/GD32VW553/V1_MQTT_OK/GD32VW55X_Wifi_BLE_SDK/GD32VW55x_RELEASE_V1.0.2/MSDK/lwip/libcoap-4.3.4/src\coap_cache.c ****   if (ctx->cache_ignore_options) {
  35              		.loc 1 51 3
  50:C:/Users/stapi/OneDrive/Desktop/GD32VW553/V1_MQTT_OK/GD32VW55X_Wifi_BLE_SDK/GD32VW55x_RELEASE_V1.0.2/MSDK/lwip/libcoap-4.3.4/src\coap_cache.c ****   if (ctx->cache_ignore_options) {
  36              		.loc 1 50 41 is_stmt 0
  37 0008 2E89     		mv	s2,a1
  38              		.loc 1 51 10
  39 000a 8325C50B 		lw	a1,188(a0)
  40              	.LVL1:
  50:C:/Users/stapi/OneDrive/Desktop/GD32VW553/V1_MQTT_OK/GD32VW55X_Wifi_BLE_SDK/GD32VW55x_RELEASE_V1.0.2/MSDK/lwip/libcoap-4.3.4/src\coap_cache.c ****   if (ctx->cache_ignore_options) {
  41              		.loc 1 50 41
  42 000e 4111     		addi	sp,sp,-16
  43              		.cfi_def_cfa_offset 32
  50:C:/Users/stapi/OneDrive/Desktop/GD32VW553/V1_MQTT_OK/GD32VW55X_Wifi_BLE_SDK/GD32VW55x_RELEASE_V1.0.2/MSDK/lwip/libcoap-4.3.4/src\coap_cache.c ****   if (ctx->cache_ignore_options) {
  44              		.loc 1 50 41
  45 0010 2A84     		mv	s0,a0
  46 0012 B284     		mv	s1,a2
  47              		.loc 1 51 6
  48 0014 91C5     		beq	a1,zero,.L2
  52:C:/Users/stapi/OneDrive/Desktop/GD32VW553/V1_MQTT_OK/GD32VW55X_Wifi_BLE_SDK/GD32VW55x_RELEASE_V1.0.2/MSDK/lwip/libcoap-4.3.4/src\coap_cache.c ****     coap_free_type(COAP_STRING, ctx->cache_ignore_options);
  49              		.loc 1 52 5 is_stmt 1
  50 0016 0145     		li	a0,0
  51              	.LVL2:
  52 0018 97000000 		call	coap_free_type
  52      E7800000 
  53              	.LVL3:
  54              	.L2:
  53:C:/Users/stapi/OneDrive/Desktop/GD32VW553/V1_MQTT_OK/GD32VW55X_Wifi_BLE_SDK/GD32VW55x_RELEASE_V1.0.2/MSDK/lwip/libcoap-4.3.4/src\coap_cache.c ****   }
  54:C:/Users/stapi/OneDrive/Desktop/GD32VW553/V1_MQTT_OK/GD32VW55X_Wifi_BLE_SDK/GD32VW55x_RELEASE_V1.0.2/MSDK/lwip/libcoap-4.3.4/src\coap_cache.c ****   if (count) {
  55              		.loc 1 54 3
  56              		.loc 1 54 6 is_stmt 0
  57 0020 D1C0     		beq	s1,zero,.L3
  55:C:/Users/stapi/OneDrive/Desktop/GD32VW553/V1_MQTT_OK/GD32VW55X_Wifi_BLE_SDK/GD32VW55x_RELEASE_V1.0.2/MSDK/lwip/libcoap-4.3.4/src\coap_cache.c ****     assert(options);
  58              		.loc 1 55 5 is_stmt 1
  59 0022 63140902 		bne	s2,zero,.L4
  60              		.loc 1 55 5 is_stmt 0 discriminator 1
  61 0026 B7060000 		lui	a3,%hi(.LC0)
  62 002a 37060000 		lui	a2,%hi(.LANCHOR0)
  63 002e 37050000 		lui	a0,%hi(.LC1)
  64 0032 93860600 		addi	a3,a3,%lo(.LC0)
  65 0036 13060600 		addi	a2,a2,%lo(.LANCHOR0)
  66 003a 93057003 		li	a1,55
  67 003e 13050500 		addi	a0,a0,%lo(.LC1)
  68 0042 97000000 		call	__assert_func
  68      E7800000 
  69              	.LVL4:
  70              	.L4:
  56:C:/Users/stapi/OneDrive/Desktop/GD32VW553/V1_MQTT_OK/GD32VW55X_Wifi_BLE_SDK/GD32VW55x_RELEASE_V1.0.2/MSDK/lwip/libcoap-4.3.4/src\coap_cache.c ****     ctx->cache_ignore_options = coap_malloc_type(COAP_STRING, count * sizeof(options[0]));
  71              		.loc 1 56 5 is_stmt 1
  72              		.loc 1 56 33 is_stmt 0
  73 004a 13961400 		slli	a2,s1,1
  74 004e B285     		mv	a1,a2
  75 0050 0145     		li	a0,0
  76 0052 32C6     		sw	a2,12(sp)
  77 0054 97000000 		call	coap_malloc_type
  77      E7800000 
  78              	.LVL5:
  79              		.loc 1 56 31
  80 005c 232EA40A 		sw	a0,188(s0)
  57:C:/Users/stapi/OneDrive/Desktop/GD32VW553/V1_MQTT_OK/GD32VW55X_Wifi_BLE_SDK/GD32VW55x_RELEASE_V1.0.2/MSDK/lwip/libcoap-4.3.4/src\coap_cache.c ****     if (ctx->cache_ignore_options) {
  81              		.loc 1 57 5 is_stmt 1
  82              		.loc 1 57 8 is_stmt 0
  83 0060 19C9     		beq	a0,zero,.L5
  58:C:/Users/stapi/OneDrive/Desktop/GD32VW553/V1_MQTT_OK/GD32VW55X_Wifi_BLE_SDK/GD32VW55x_RELEASE_V1.0.2/MSDK/lwip/libcoap-4.3.4/src\coap_cache.c ****       memcpy(ctx->cache_ignore_options, options, count * sizeof(options[0]));
  84              		.loc 1 58 7 is_stmt 1
  85 0062 3246     		lw	a2,12(sp)
  86 0064 CA85     		mv	a1,s2
  87 0066 97000000 		call	memcpy
  87      E7800000 
  88              	.LVL6:
  59:C:/Users/stapi/OneDrive/Desktop/GD32VW553/V1_MQTT_OK/GD32VW55X_Wifi_BLE_SDK/GD32VW55x_RELEASE_V1.0.2/MSDK/lwip/libcoap-4.3.4/src\coap_cache.c ****       ctx->cache_ignore_count = count;
  89              		.loc 1 59 7
  90              		.loc 1 59 31 is_stmt 0
  91 006e 2320940C 		sw	s1,192(s0)
  92              	.L12:
  60:C:/Users/stapi/OneDrive/Desktop/GD32VW553/V1_MQTT_OK/GD32VW55X_Wifi_BLE_SDK/GD32VW55x_RELEASE_V1.0.2/MSDK/lwip/libcoap-4.3.4/src\coap_cache.c ****     } else {
  61:C:/Users/stapi/OneDrive/Desktop/GD32VW553/V1_MQTT_OK/GD32VW55X_Wifi_BLE_SDK/GD32VW55x_RELEASE_V1.0.2/MSDK/lwip/libcoap-4.3.4/src\coap_cache.c ****       coap_log_warn("Unable to create cache_ignore_options\n");
  62:C:/Users/stapi/OneDrive/Desktop/GD32VW553/V1_MQTT_OK/GD32VW55X_Wifi_BLE_SDK/GD32VW55x_RELEASE_V1.0.2/MSDK/lwip/libcoap-4.3.4/src\coap_cache.c ****       return 0;
  63:C:/Users/stapi/OneDrive/Desktop/GD32VW553/V1_MQTT_OK/GD32VW55X_Wifi_BLE_SDK/GD32VW55x_RELEASE_V1.0.2/MSDK/lwip/libcoap-4.3.4/src\coap_cache.c ****     }
  64:C:/Users/stapi/OneDrive/Desktop/GD32VW553/V1_MQTT_OK/GD32VW55X_Wifi_BLE_SDK/GD32VW55x_RELEASE_V1.0.2/MSDK/lwip/libcoap-4.3.4/src\coap_cache.c ****   } else {
  65:C:/Users/stapi/OneDrive/Desktop/GD32VW553/V1_MQTT_OK/GD32VW55X_Wifi_BLE_SDK/GD32VW55x_RELEASE_V1.0.2/MSDK/lwip/libcoap-4.3.4/src\coap_cache.c ****     ctx->cache_ignore_options = NULL;
  66:C:/Users/stapi/OneDrive/Desktop/GD32VW553/V1_MQTT_OK/GD32VW55X_Wifi_BLE_SDK/GD32VW55x_RELEASE_V1.0.2/MSDK/lwip/libcoap-4.3.4/src\coap_cache.c ****     ctx->cache_ignore_count = count;
  67:C:/Users/stapi/OneDrive/Desktop/GD32VW553/V1_MQTT_OK/GD32VW55X_Wifi_BLE_SDK/GD32VW55x_RELEASE_V1.0.2/MSDK/lwip/libcoap-4.3.4/src\coap_cache.c ****   }
  68:C:/Users/stapi/OneDrive/Desktop/GD32VW553/V1_MQTT_OK/GD32VW55X_Wifi_BLE_SDK/GD32VW55x_RELEASE_V1.0.2/MSDK/lwip/libcoap-4.3.4/src\coap_cache.c ****   return 1;
  93              		.loc 1 68 10
  94 0072 0544     		li	s0,1
  95              	.LVL7:
  96 0074 15A0     		j	.L1
  97              	.LVL8:
  98              	.L5:
  61:C:/Users/stapi/OneDrive/Desktop/GD32VW553/V1_MQTT_OK/GD32VW55X_Wifi_BLE_SDK/GD32VW55x_RELEASE_V1.0.2/MSDK/lwip/libcoap-4.3.4/src\coap_cache.c ****       return 0;
  99              		.loc 1 61 7 is_stmt 1
  61:C:/Users/stapi/OneDrive/Desktop/GD32VW553/V1_MQTT_OK/GD32VW55X_Wifi_BLE_SDK/GD32VW55x_RELEASE_V1.0.2/MSDK/lwip/libcoap-4.3.4/src\coap_cache.c ****       return 0;
 100              		.loc 1 61 7
 101 0076 97000000 		call	coap_get_log_level
 101      E7800000 
 102              	.LVL9:
 103 007e 8D47     		li	a5,3
  62:C:/Users/stapi/OneDrive/Desktop/GD32VW553/V1_MQTT_OK/GD32VW55X_Wifi_BLE_SDK/GD32VW55x_RELEASE_V1.0.2/MSDK/lwip/libcoap-4.3.4/src\coap_cache.c ****     }
 104              		.loc 1 62 14 is_stmt 0
 105 0080 0144     		li	s0,0
 106              	.LVL10:
  61:C:/Users/stapi/OneDrive/Desktop/GD32VW553/V1_MQTT_OK/GD32VW55X_Wifi_BLE_SDK/GD32VW55x_RELEASE_V1.0.2/MSDK/lwip/libcoap-4.3.4/src\coap_cache.c ****       return 0;
 107              		.loc 1 61 7
 108 0082 63DBA700 		ble	a0,a5,.L1
  61:C:/Users/stapi/OneDrive/Desktop/GD32VW553/V1_MQTT_OK/GD32VW55X_Wifi_BLE_SDK/GD32VW55x_RELEASE_V1.0.2/MSDK/lwip/libcoap-4.3.4/src\coap_cache.c ****       return 0;
 109              		.loc 1 61 7 is_stmt 1 discriminator 1
 110 0086 B7050000 		lui	a1,%hi(.LC2)
 111 008a 93850500 		addi	a1,a1,%lo(.LC2)
 112 008e 1145     		li	a0,4
 113 0090 97000000 		call	coap_log_impl
 113      E7800000 
 114              	.LVL11:
 115              	.L1:
  69:C:/Users/stapi/OneDrive/Desktop/GD32VW553/V1_MQTT_OK/GD32VW55X_Wifi_BLE_SDK/GD32VW55x_RELEASE_V1.0.2/MSDK/lwip/libcoap-4.3.4/src\coap_cache.c **** }
 116              		.loc 1 69 1 is_stmt 0
 117 0098 2285     		mv	a0,s0
 118 009a 4101     		addi	sp,sp,16
 119              		.cfi_remember_state
 120              		.cfi_def_cfa_offset 0
 121 009c 17030000 		tail	__riscv_restore_3
 121      67000300 
 122              		.cfi_restore 18
 123              		.cfi_restore 9
 124              		.cfi_restore 8
 125              		.cfi_restore 1
 126              		.cfi_def_cfa_offset -16
 127              	.LVL12:
 128              	.L3:
 129              		.cfi_restore_state
  65:C:/Users/stapi/OneDrive/Desktop/GD32VW553/V1_MQTT_OK/GD32VW55X_Wifi_BLE_SDK/GD32VW55x_RELEASE_V1.0.2/MSDK/lwip/libcoap-4.3.4/src\coap_cache.c ****     ctx->cache_ignore_count = count;
 130              		.loc 1 65 5 is_stmt 1
  65:C:/Users/stapi/OneDrive/Desktop/GD32VW553/V1_MQTT_OK/GD32VW55X_Wifi_BLE_SDK/GD32VW55x_RELEASE_V1.0.2/MSDK/lwip/libcoap-4.3.4/src\coap_cache.c ****     ctx->cache_ignore_count = count;
 131              		.loc 1 65 31 is_stmt 0
 132 00a4 232E040A 		sw	zero,188(s0)
  66:C:/Users/stapi/OneDrive/Desktop/GD32VW553/V1_MQTT_OK/GD32VW55X_Wifi_BLE_SDK/GD32VW55x_RELEASE_V1.0.2/MSDK/lwip/libcoap-4.3.4/src\coap_cache.c ****   }
 133              		.loc 1 66 5 is_stmt 1
  66:C:/Users/stapi/OneDrive/Desktop/GD32VW553/V1_MQTT_OK/GD32VW55X_Wifi_BLE_SDK/GD32VW55x_RELEASE_V1.0.2/MSDK/lwip/libcoap-4.3.4/src\coap_cache.c ****   }
 134              		.loc 1 66 29 is_stmt 0
 135 00a8 2320040C 		sw	zero,192(s0)
 136 00ac D9B7     		j	.L12
 137              		.cfi_endproc
 138              	.LFE32:
 140              		.section	.text.coap_cache_derive_key_w_ignore,"ax",@progbits
 141              		.align	1
 142              		.globl	coap_cache_derive_key_w_ignore
 144              	coap_cache_derive_key_w_ignore:
 145              	.LFB33:
  70:C:/Users/stapi/OneDrive/Desktop/GD32VW553/V1_MQTT_OK/GD32VW55X_Wifi_BLE_SDK/GD32VW55x_RELEASE_V1.0.2/MSDK/lwip/libcoap-4.3.4/src\coap_cache.c **** 
  71:C:/Users/stapi/OneDrive/Desktop/GD32VW553/V1_MQTT_OK/GD32VW55X_Wifi_BLE_SDK/GD32VW55x_RELEASE_V1.0.2/MSDK/lwip/libcoap-4.3.4/src\coap_cache.c **** coap_cache_key_t *
  72:C:/Users/stapi/OneDrive/Desktop/GD32VW553/V1_MQTT_OK/GD32VW55X_Wifi_BLE_SDK/GD32VW55x_RELEASE_V1.0.2/MSDK/lwip/libcoap-4.3.4/src\coap_cache.c **** coap_cache_derive_key_w_ignore(const coap_session_t *session,
  73:C:/Users/stapi/OneDrive/Desktop/GD32VW553/V1_MQTT_OK/GD32VW55X_Wifi_BLE_SDK/GD32VW55x_RELEASE_V1.0.2/MSDK/lwip/libcoap-4.3.4/src\coap_cache.c ****                                const coap_pdu_t *pdu,
  74:C:/Users/stapi/OneDrive/Desktop/GD32VW553/V1_MQTT_OK/GD32VW55X_Wifi_BLE_SDK/GD32VW55x_RELEASE_V1.0.2/MSDK/lwip/libcoap-4.3.4/src\coap_cache.c ****                                coap_cache_session_based_t session_based,
  75:C:/Users/stapi/OneDrive/Desktop/GD32VW553/V1_MQTT_OK/GD32VW55X_Wifi_BLE_SDK/GD32VW55x_RELEASE_V1.0.2/MSDK/lwip/libcoap-4.3.4/src\coap_cache.c ****                                const uint16_t *cache_ignore_options,
  76:C:/Users/stapi/OneDrive/Desktop/GD32VW553/V1_MQTT_OK/GD32VW55X_Wifi_BLE_SDK/GD32VW55x_RELEASE_V1.0.2/MSDK/lwip/libcoap-4.3.4/src\coap_cache.c ****                                size_t cache_ignore_count) {
 146              		.loc 1 76 59 is_stmt 1
 147              		.cfi_startproc
 148              	.LVL13:
 149 0000 17030000 		call	t0,__riscv_save_7
 149      E7020300 
 150              		.cfi_offset 22, -32
 151              		.cfi_offset 21, -28
 152              		.cfi_offset 20, -24
 153              		.cfi_offset 19, -20
 154              		.cfi_offset 18, -16
 155              		.cfi_offset 9, -12
 156              		.cfi_offset 8, -8
 157              		.cfi_offset 1, -4
 158              		.cfi_def_cfa_offset 32
  77:C:/Users/stapi/OneDrive/Desktop/GD32VW553/V1_MQTT_OK/GD32VW55X_Wifi_BLE_SDK/GD32VW55x_RELEASE_V1.0.2/MSDK/lwip/libcoap-4.3.4/src\coap_cache.c ****   coap_opt_t *option;
 159              		.loc 1 77 3
  78:C:/Users/stapi/OneDrive/Desktop/GD32VW553/V1_MQTT_OK/GD32VW55X_Wifi_BLE_SDK/GD32VW55x_RELEASE_V1.0.2/MSDK/lwip/libcoap-4.3.4/src\coap_cache.c ****   coap_opt_iterator_t opt_iter;
 160              		.loc 1 78 3
  79:C:/Users/stapi/OneDrive/Desktop/GD32VW553/V1_MQTT_OK/GD32VW55X_Wifi_BLE_SDK/GD32VW55x_RELEASE_V1.0.2/MSDK/lwip/libcoap-4.3.4/src\coap_cache.c ****   coap_digest_ctx_t *dctx;
 161              		.loc 1 79 3
  80:C:/Users/stapi/OneDrive/Desktop/GD32VW553/V1_MQTT_OK/GD32VW55X_Wifi_BLE_SDK/GD32VW55x_RELEASE_V1.0.2/MSDK/lwip/libcoap-4.3.4/src\coap_cache.c ****   coap_digest_t digest;
 162              		.loc 1 80 3
  81:C:/Users/stapi/OneDrive/Desktop/GD32VW553/V1_MQTT_OK/GD32VW55X_Wifi_BLE_SDK/GD32VW55x_RELEASE_V1.0.2/MSDK/lwip/libcoap-4.3.4/src\coap_cache.c ****   coap_cache_key_t *cache_key;
 163              		.loc 1 81 3
  82:C:/Users/stapi/OneDrive/Desktop/GD32VW553/V1_MQTT_OK/GD32VW55X_Wifi_BLE_SDK/GD32VW55x_RELEASE_V1.0.2/MSDK/lwip/libcoap-4.3.4/src\coap_cache.c **** 
  83:C:/Users/stapi/OneDrive/Desktop/GD32VW553/V1_MQTT_OK/GD32VW55X_Wifi_BLE_SDK/GD32VW55x_RELEASE_V1.0.2/MSDK/lwip/libcoap-4.3.4/src\coap_cache.c ****   if (!coap_option_iterator_init(pdu, &opt_iter, COAP_OPT_ALL)) {
 164              		.loc 1 83 3
  76:C:/Users/stapi/OneDrive/Desktop/GD32VW553/V1_MQTT_OK/GD32VW55X_Wifi_BLE_SDK/GD32VW55x_RELEASE_V1.0.2/MSDK/lwip/libcoap-4.3.4/src\coap_cache.c ****   coap_opt_t *option;
 165              		.loc 1 76 59 is_stmt 0
 166 0008 5D71     		addi	sp,sp,-80
 167              		.cfi_def_cfa_offset 112
  76:C:/Users/stapi/OneDrive/Desktop/GD32VW553/V1_MQTT_OK/GD32VW55X_Wifi_BLE_SDK/GD32VW55x_RELEASE_V1.0.2/MSDK/lwip/libcoap-4.3.4/src\coap_cache.c ****   coap_opt_t *option;
 168              		.loc 1 76 59
 169 000a 2E89     		mv	s2,a1
 170 000c 2AC6     		sw	a0,12(sp)
 171 000e B284     		mv	s1,a2
 172              		.loc 1 83 8
 173 0010 2C08     		addi	a1,sp,24
 174              	.LVL14:
 175 0012 0146     		li	a2,0
 176              	.LVL15:
 177 0014 4A85     		mv	a0,s2
 178              	.LVL16:
  76:C:/Users/stapi/OneDrive/Desktop/GD32VW553/V1_MQTT_OK/GD32VW55X_Wifi_BLE_SDK/GD32VW55x_RELEASE_V1.0.2/MSDK/lwip/libcoap-4.3.4/src\coap_cache.c ****   coap_opt_t *option;
 179              		.loc 1 76 59
 180 0016 B689     		mv	s3,a3
 181 0018 3A8A     		mv	s4,a4
 182              		.loc 1 83 8
 183 001a 97000000 		call	coap_option_iterator_init
 183      E7800000 
 184              	.LVL17:
 185              		.loc 1 83 6
 186 0022 19E1     		bne	a0,zero,.L14
 187              	.LVL18:
 188              	.L55:
  84:C:/Users/stapi/OneDrive/Desktop/GD32VW553/V1_MQTT_OK/GD32VW55X_Wifi_BLE_SDK/GD32VW55x_RELEASE_V1.0.2/MSDK/lwip/libcoap-4.3.4/src\coap_cache.c ****     return NULL;
  85:C:/Users/stapi/OneDrive/Desktop/GD32VW553/V1_MQTT_OK/GD32VW55X_Wifi_BLE_SDK/GD32VW55x_RELEASE_V1.0.2/MSDK/lwip/libcoap-4.3.4/src\coap_cache.c ****   }
  86:C:/Users/stapi/OneDrive/Desktop/GD32VW553/V1_MQTT_OK/GD32VW55X_Wifi_BLE_SDK/GD32VW55x_RELEASE_V1.0.2/MSDK/lwip/libcoap-4.3.4/src\coap_cache.c **** 
  87:C:/Users/stapi/OneDrive/Desktop/GD32VW553/V1_MQTT_OK/GD32VW55X_Wifi_BLE_SDK/GD32VW55x_RELEASE_V1.0.2/MSDK/lwip/libcoap-4.3.4/src\coap_cache.c ****   dctx = coap_digest_setup();
  88:C:/Users/stapi/OneDrive/Desktop/GD32VW553/V1_MQTT_OK/GD32VW55X_Wifi_BLE_SDK/GD32VW55x_RELEASE_V1.0.2/MSDK/lwip/libcoap-4.3.4/src\coap_cache.c ****   if (!dctx)
  89:C:/Users/stapi/OneDrive/Desktop/GD32VW553/V1_MQTT_OK/GD32VW55X_Wifi_BLE_SDK/GD32VW55x_RELEASE_V1.0.2/MSDK/lwip/libcoap-4.3.4/src\coap_cache.c ****     return NULL;
  90:C:/Users/stapi/OneDrive/Desktop/GD32VW553/V1_MQTT_OK/GD32VW55X_Wifi_BLE_SDK/GD32VW55x_RELEASE_V1.0.2/MSDK/lwip/libcoap-4.3.4/src\coap_cache.c **** 
  91:C:/Users/stapi/OneDrive/Desktop/GD32VW553/V1_MQTT_OK/GD32VW55X_Wifi_BLE_SDK/GD32VW55x_RELEASE_V1.0.2/MSDK/lwip/libcoap-4.3.4/src\coap_cache.c ****   if (session_based == COAP_CACHE_IS_SESSION_BASED) {
  92:C:/Users/stapi/OneDrive/Desktop/GD32VW553/V1_MQTT_OK/GD32VW55X_Wifi_BLE_SDK/GD32VW55x_RELEASE_V1.0.2/MSDK/lwip/libcoap-4.3.4/src\coap_cache.c ****     /* Include the session ptr */
  93:C:/Users/stapi/OneDrive/Desktop/GD32VW553/V1_MQTT_OK/GD32VW55X_Wifi_BLE_SDK/GD32VW55x_RELEASE_V1.0.2/MSDK/lwip/libcoap-4.3.4/src\coap_cache.c ****     if (!coap_digest_update(dctx, (const uint8_t *)&session, sizeof(session))) {
  94:C:/Users/stapi/OneDrive/Desktop/GD32VW553/V1_MQTT_OK/GD32VW55X_Wifi_BLE_SDK/GD32VW55x_RELEASE_V1.0.2/MSDK/lwip/libcoap-4.3.4/src\coap_cache.c ****       goto update_fail;
  95:C:/Users/stapi/OneDrive/Desktop/GD32VW553/V1_MQTT_OK/GD32VW55X_Wifi_BLE_SDK/GD32VW55x_RELEASE_V1.0.2/MSDK/lwip/libcoap-4.3.4/src\coap_cache.c ****     }
  96:C:/Users/stapi/OneDrive/Desktop/GD32VW553/V1_MQTT_OK/GD32VW55X_Wifi_BLE_SDK/GD32VW55x_RELEASE_V1.0.2/MSDK/lwip/libcoap-4.3.4/src\coap_cache.c ****   }
  97:C:/Users/stapi/OneDrive/Desktop/GD32VW553/V1_MQTT_OK/GD32VW55X_Wifi_BLE_SDK/GD32VW55x_RELEASE_V1.0.2/MSDK/lwip/libcoap-4.3.4/src\coap_cache.c ****   while ((option = coap_option_next(&opt_iter))) {
  98:C:/Users/stapi/OneDrive/Desktop/GD32VW553/V1_MQTT_OK/GD32VW55X_Wifi_BLE_SDK/GD32VW55x_RELEASE_V1.0.2/MSDK/lwip/libcoap-4.3.4/src\coap_cache.c ****     if (is_cache_key(opt_iter.number, cache_ignore_count,
  99:C:/Users/stapi/OneDrive/Desktop/GD32VW553/V1_MQTT_OK/GD32VW55X_Wifi_BLE_SDK/GD32VW55x_RELEASE_V1.0.2/MSDK/lwip/libcoap-4.3.4/src\coap_cache.c ****                      cache_ignore_options)) {
 100:C:/Users/stapi/OneDrive/Desktop/GD32VW553/V1_MQTT_OK/GD32VW55X_Wifi_BLE_SDK/GD32VW55x_RELEASE_V1.0.2/MSDK/lwip/libcoap-4.3.4/src\coap_cache.c ****       if (!coap_digest_update(dctx, (const uint8_t *)&opt_iter.number,
 101:C:/Users/stapi/OneDrive/Desktop/GD32VW553/V1_MQTT_OK/GD32VW55X_Wifi_BLE_SDK/GD32VW55x_RELEASE_V1.0.2/MSDK/lwip/libcoap-4.3.4/src\coap_cache.c ****                               sizeof(opt_iter.number))) {
 102:C:/Users/stapi/OneDrive/Desktop/GD32VW553/V1_MQTT_OK/GD32VW55X_Wifi_BLE_SDK/GD32VW55x_RELEASE_V1.0.2/MSDK/lwip/libcoap-4.3.4/src\coap_cache.c ****         goto update_fail;
 103:C:/Users/stapi/OneDrive/Desktop/GD32VW553/V1_MQTT_OK/GD32VW55X_Wifi_BLE_SDK/GD32VW55x_RELEASE_V1.0.2/MSDK/lwip/libcoap-4.3.4/src\coap_cache.c ****       }
 104:C:/Users/stapi/OneDrive/Desktop/GD32VW553/V1_MQTT_OK/GD32VW55X_Wifi_BLE_SDK/GD32VW55x_RELEASE_V1.0.2/MSDK/lwip/libcoap-4.3.4/src\coap_cache.c ****       if (!coap_digest_update(dctx, coap_opt_value(option),
 105:C:/Users/stapi/OneDrive/Desktop/GD32VW553/V1_MQTT_OK/GD32VW55X_Wifi_BLE_SDK/GD32VW55x_RELEASE_V1.0.2/MSDK/lwip/libcoap-4.3.4/src\coap_cache.c ****                               coap_opt_length(option))) {
 106:C:/Users/stapi/OneDrive/Desktop/GD32VW553/V1_MQTT_OK/GD32VW55X_Wifi_BLE_SDK/GD32VW55x_RELEASE_V1.0.2/MSDK/lwip/libcoap-4.3.4/src\coap_cache.c ****         goto update_fail;
 107:C:/Users/stapi/OneDrive/Desktop/GD32VW553/V1_MQTT_OK/GD32VW55X_Wifi_BLE_SDK/GD32VW55x_RELEASE_V1.0.2/MSDK/lwip/libcoap-4.3.4/src\coap_cache.c ****       }
 108:C:/Users/stapi/OneDrive/Desktop/GD32VW553/V1_MQTT_OK/GD32VW55X_Wifi_BLE_SDK/GD32VW55x_RELEASE_V1.0.2/MSDK/lwip/libcoap-4.3.4/src\coap_cache.c ****     }
 109:C:/Users/stapi/OneDrive/Desktop/GD32VW553/V1_MQTT_OK/GD32VW55X_Wifi_BLE_SDK/GD32VW55x_RELEASE_V1.0.2/MSDK/lwip/libcoap-4.3.4/src\coap_cache.c ****   }
 110:C:/Users/stapi/OneDrive/Desktop/GD32VW553/V1_MQTT_OK/GD32VW55X_Wifi_BLE_SDK/GD32VW55x_RELEASE_V1.0.2/MSDK/lwip/libcoap-4.3.4/src\coap_cache.c **** 
 111:C:/Users/stapi/OneDrive/Desktop/GD32VW553/V1_MQTT_OK/GD32VW55X_Wifi_BLE_SDK/GD32VW55x_RELEASE_V1.0.2/MSDK/lwip/libcoap-4.3.4/src\coap_cache.c ****   /* The body of a FETCH payload is part of the cache key,
 112:C:/Users/stapi/OneDrive/Desktop/GD32VW553/V1_MQTT_OK/GD32VW55X_Wifi_BLE_SDK/GD32VW55x_RELEASE_V1.0.2/MSDK/lwip/libcoap-4.3.4/src\coap_cache.c ****    * see https://rfc-editor.org/rfc/rfc8132#section-2 */
 113:C:/Users/stapi/OneDrive/Desktop/GD32VW553/V1_MQTT_OK/GD32VW55X_Wifi_BLE_SDK/GD32VW55x_RELEASE_V1.0.2/MSDK/lwip/libcoap-4.3.4/src\coap_cache.c ****   if (pdu->code == COAP_REQUEST_CODE_FETCH) {
 114:C:/Users/stapi/OneDrive/Desktop/GD32VW553/V1_MQTT_OK/GD32VW55X_Wifi_BLE_SDK/GD32VW55x_RELEASE_V1.0.2/MSDK/lwip/libcoap-4.3.4/src\coap_cache.c ****     size_t len;
 115:C:/Users/stapi/OneDrive/Desktop/GD32VW553/V1_MQTT_OK/GD32VW55X_Wifi_BLE_SDK/GD32VW55x_RELEASE_V1.0.2/MSDK/lwip/libcoap-4.3.4/src\coap_cache.c ****     const uint8_t *data;
 116:C:/Users/stapi/OneDrive/Desktop/GD32VW553/V1_MQTT_OK/GD32VW55X_Wifi_BLE_SDK/GD32VW55x_RELEASE_V1.0.2/MSDK/lwip/libcoap-4.3.4/src\coap_cache.c ****     if (coap_get_data(pdu, &len, &data)) {
 117:C:/Users/stapi/OneDrive/Desktop/GD32VW553/V1_MQTT_OK/GD32VW55X_Wifi_BLE_SDK/GD32VW55x_RELEASE_V1.0.2/MSDK/lwip/libcoap-4.3.4/src\coap_cache.c ****       if (!coap_digest_update(dctx, data, len)) {
 118:C:/Users/stapi/OneDrive/Desktop/GD32VW553/V1_MQTT_OK/GD32VW55X_Wifi_BLE_SDK/GD32VW55x_RELEASE_V1.0.2/MSDK/lwip/libcoap-4.3.4/src\coap_cache.c ****         goto update_fail;
 119:C:/Users/stapi/OneDrive/Desktop/GD32VW553/V1_MQTT_OK/GD32VW55X_Wifi_BLE_SDK/GD32VW55x_RELEASE_V1.0.2/MSDK/lwip/libcoap-4.3.4/src\coap_cache.c ****       }
 120:C:/Users/stapi/OneDrive/Desktop/GD32VW553/V1_MQTT_OK/GD32VW55X_Wifi_BLE_SDK/GD32VW55x_RELEASE_V1.0.2/MSDK/lwip/libcoap-4.3.4/src\coap_cache.c ****     }
 121:C:/Users/stapi/OneDrive/Desktop/GD32VW553/V1_MQTT_OK/GD32VW55X_Wifi_BLE_SDK/GD32VW55x_RELEASE_V1.0.2/MSDK/lwip/libcoap-4.3.4/src\coap_cache.c ****   }
 122:C:/Users/stapi/OneDrive/Desktop/GD32VW553/V1_MQTT_OK/GD32VW55X_Wifi_BLE_SDK/GD32VW55x_RELEASE_V1.0.2/MSDK/lwip/libcoap-4.3.4/src\coap_cache.c **** 
 123:C:/Users/stapi/OneDrive/Desktop/GD32VW553/V1_MQTT_OK/GD32VW55X_Wifi_BLE_SDK/GD32VW55x_RELEASE_V1.0.2/MSDK/lwip/libcoap-4.3.4/src\coap_cache.c ****   if (!coap_digest_final(dctx, &digest)) {
 124:C:/Users/stapi/OneDrive/Desktop/GD32VW553/V1_MQTT_OK/GD32VW55X_Wifi_BLE_SDK/GD32VW55x_RELEASE_V1.0.2/MSDK/lwip/libcoap-4.3.4/src\coap_cache.c ****     /* coap_digest_final() is guaranteed to free off dctx no matter what */
 125:C:/Users/stapi/OneDrive/Desktop/GD32VW553/V1_MQTT_OK/GD32VW55X_Wifi_BLE_SDK/GD32VW55x_RELEASE_V1.0.2/MSDK/lwip/libcoap-4.3.4/src\coap_cache.c ****     return NULL;
 126:C:/Users/stapi/OneDrive/Desktop/GD32VW553/V1_MQTT_OK/GD32VW55X_Wifi_BLE_SDK/GD32VW55x_RELEASE_V1.0.2/MSDK/lwip/libcoap-4.3.4/src\coap_cache.c ****   }
 127:C:/Users/stapi/OneDrive/Desktop/GD32VW553/V1_MQTT_OK/GD32VW55X_Wifi_BLE_SDK/GD32VW55x_RELEASE_V1.0.2/MSDK/lwip/libcoap-4.3.4/src\coap_cache.c ****   cache_key = coap_malloc_type(COAP_CACHE_KEY, sizeof(coap_cache_key_t));
 128:C:/Users/stapi/OneDrive/Desktop/GD32VW553/V1_MQTT_OK/GD32VW55X_Wifi_BLE_SDK/GD32VW55x_RELEASE_V1.0.2/MSDK/lwip/libcoap-4.3.4/src\coap_cache.c ****   if (cache_key) {
 129:C:/Users/stapi/OneDrive/Desktop/GD32VW553/V1_MQTT_OK/GD32VW55X_Wifi_BLE_SDK/GD32VW55x_RELEASE_V1.0.2/MSDK/lwip/libcoap-4.3.4/src\coap_cache.c ****     memcpy(cache_key->key, digest.key, sizeof(cache_key->key));
 130:C:/Users/stapi/OneDrive/Desktop/GD32VW553/V1_MQTT_OK/GD32VW55X_Wifi_BLE_SDK/GD32VW55x_RELEASE_V1.0.2/MSDK/lwip/libcoap-4.3.4/src\coap_cache.c ****   }
 131:C:/Users/stapi/OneDrive/Desktop/GD32VW553/V1_MQTT_OK/GD32VW55X_Wifi_BLE_SDK/GD32VW55x_RELEASE_V1.0.2/MSDK/lwip/libcoap-4.3.4/src\coap_cache.c ****   return cache_key;
 132:C:/Users/stapi/OneDrive/Desktop/GD32VW553/V1_MQTT_OK/GD32VW55X_Wifi_BLE_SDK/GD32VW55x_RELEASE_V1.0.2/MSDK/lwip/libcoap-4.3.4/src\coap_cache.c **** update_fail:
 133:C:/Users/stapi/OneDrive/Desktop/GD32VW553/V1_MQTT_OK/GD32VW55X_Wifi_BLE_SDK/GD32VW55x_RELEASE_V1.0.2/MSDK/lwip/libcoap-4.3.4/src\coap_cache.c ****   coap_digest_free(dctx);
 134:C:/Users/stapi/OneDrive/Desktop/GD32VW553/V1_MQTT_OK/GD32VW55X_Wifi_BLE_SDK/GD32VW55x_RELEASE_V1.0.2/MSDK/lwip/libcoap-4.3.4/src\coap_cache.c ****   return NULL;
 189              		.loc 1 134 3 is_stmt 1
 190              		.loc 1 134 10 is_stmt 0
 191 0024 0144     		li	s0,0
 192 0026 BDA8     		j	.L13
 193              	.LVL19:
 194              	.L14:
  87:C:/Users/stapi/OneDrive/Desktop/GD32VW553/V1_MQTT_OK/GD32VW55X_Wifi_BLE_SDK/GD32VW55x_RELEASE_V1.0.2/MSDK/lwip/libcoap-4.3.4/src\coap_cache.c ****   if (!dctx)
 195              		.loc 1 87 3 is_stmt 1
  87:C:/Users/stapi/OneDrive/Desktop/GD32VW553/V1_MQTT_OK/GD32VW55X_Wifi_BLE_SDK/GD32VW55x_RELEASE_V1.0.2/MSDK/lwip/libcoap-4.3.4/src\coap_cache.c ****   if (!dctx)
 196              		.loc 1 87 10 is_stmt 0
 197 0028 97000000 		call	coap_digest_setup
 197      E7800000 
 198              	.LVL20:
 199 0030 2A84     		mv	s0,a0
 200              	.LVL21:
  88:C:/Users/stapi/OneDrive/Desktop/GD32VW553/V1_MQTT_OK/GD32VW55X_Wifi_BLE_SDK/GD32VW55x_RELEASE_V1.0.2/MSDK/lwip/libcoap-4.3.4/src\coap_cache.c ****     return NULL;
 201              		.loc 1 88 3 is_stmt 1
  88:C:/Users/stapi/OneDrive/Desktop/GD32VW553/V1_MQTT_OK/GD32VW55X_Wifi_BLE_SDK/GD32VW55x_RELEASE_V1.0.2/MSDK/lwip/libcoap-4.3.4/src\coap_cache.c ****     return NULL;
 202              		.loc 1 88 6 is_stmt 0
 203 0032 6DD9     		beq	a0,zero,.L55
  91:C:/Users/stapi/OneDrive/Desktop/GD32VW553/V1_MQTT_OK/GD32VW55X_Wifi_BLE_SDK/GD32VW55x_RELEASE_V1.0.2/MSDK/lwip/libcoap-4.3.4/src\coap_cache.c ****     /* Include the session ptr */
 204              		.loc 1 91 3 is_stmt 1
  91:C:/Users/stapi/OneDrive/Desktop/GD32VW553/V1_MQTT_OK/GD32VW55X_Wifi_BLE_SDK/GD32VW55x_RELEASE_V1.0.2/MSDK/lwip/libcoap-4.3.4/src\coap_cache.c ****     /* Include the session ptr */
 205              		.loc 1 91 6 is_stmt 0
 206 0034 8547     		li	a5,1
 207 0036 638DF406 		beq	s1,a5,.L17
 208              	.L20:
 209              	.LBB5:
 210              	.LBB6:
  28:C:/Users/stapi/OneDrive/Desktop/GD32VW553/V1_MQTT_OK/GD32VW55X_Wifi_BLE_SDK/GD32VW55x_RELEASE_V1.0.2/MSDK/lwip/libcoap-4.3.4/src\coap_cache.c ****     return 0;
 211              		.loc 1 28 6
 212 003a F14A     		li	s5,28
  34:C:/Users/stapi/OneDrive/Desktop/GD32VW553/V1_MQTT_OK/GD32VW55X_Wifi_BLE_SDK/GD32VW55x_RELEASE_V1.0.2/MSDK/lwip/libcoap-4.3.4/src\coap_cache.c ****     return 0;
 213              		.loc 1 34 6
 214 003c 194B     		li	s6,6
 215              	.LVL22:
 216              	.L44:
 217              	.LBE6:
 218              	.LBE5:
  97:C:/Users/stapi/OneDrive/Desktop/GD32VW553/V1_MQTT_OK/GD32VW55X_Wifi_BLE_SDK/GD32VW55x_RELEASE_V1.0.2/MSDK/lwip/libcoap-4.3.4/src\coap_cache.c ****     if (is_cache_key(opt_iter.number, cache_ignore_count,
 219              		.loc 1 97 9 is_stmt 1
  97:C:/Users/stapi/OneDrive/Desktop/GD32VW553/V1_MQTT_OK/GD32VW55X_Wifi_BLE_SDK/GD32VW55x_RELEASE_V1.0.2/MSDK/lwip/libcoap-4.3.4/src\coap_cache.c ****     if (is_cache_key(opt_iter.number, cache_ignore_count,
 220              		.loc 1 97 20 is_stmt 0
 221 003e 2808     		addi	a0,sp,24
 222 0040 97000000 		call	coap_option_next
 222      E7800000 
 223              	.LVL23:
 224 0048 AA84     		mv	s1,a0
 225              	.LVL24:
  97:C:/Users/stapi/OneDrive/Desktop/GD32VW553/V1_MQTT_OK/GD32VW55X_Wifi_BLE_SDK/GD32VW55x_RELEASE_V1.0.2/MSDK/lwip/libcoap-4.3.4/src\coap_cache.c ****     if (is_cache_key(opt_iter.number, cache_ignore_count,
 226              		.loc 1 97 9
 227 004a 41E1     		bne	a0,zero,.L25
 113:C:/Users/stapi/OneDrive/Desktop/GD32VW553/V1_MQTT_OK/GD32VW55X_Wifi_BLE_SDK/GD32VW55x_RELEASE_V1.0.2/MSDK/lwip/libcoap-4.3.4/src\coap_cache.c ****     size_t len;
 228              		.loc 1 113 3 is_stmt 1
 113:C:/Users/stapi/OneDrive/Desktop/GD32VW553/V1_MQTT_OK/GD32VW55X_Wifi_BLE_SDK/GD32VW55x_RELEASE_V1.0.2/MSDK/lwip/libcoap-4.3.4/src\coap_cache.c ****     size_t len;
 229              		.loc 1 113 6 is_stmt 0
 230 004c 03274900 		lw	a4,4(s2)
 231 0050 9547     		li	a5,5
 232 0052 6312F702 		bne	a4,a5,.L26
 233              	.LBB9:
 114:C:/Users/stapi/OneDrive/Desktop/GD32VW553/V1_MQTT_OK/GD32VW55X_Wifi_BLE_SDK/GD32VW55x_RELEASE_V1.0.2/MSDK/lwip/libcoap-4.3.4/src\coap_cache.c ****     const uint8_t *data;
 234              		.loc 1 114 5 is_stmt 1
 115:C:/Users/stapi/OneDrive/Desktop/GD32VW553/V1_MQTT_OK/GD32VW55X_Wifi_BLE_SDK/GD32VW55x_RELEASE_V1.0.2/MSDK/lwip/libcoap-4.3.4/src\coap_cache.c ****     if (coap_get_data(pdu, &len, &data)) {
 235              		.loc 1 115 5
 116:C:/Users/stapi/OneDrive/Desktop/GD32VW553/V1_MQTT_OK/GD32VW55X_Wifi_BLE_SDK/GD32VW55x_RELEASE_V1.0.2/MSDK/lwip/libcoap-4.3.4/src\coap_cache.c ****       if (!coap_digest_update(dctx, data, len)) {
 236              		.loc 1 116 5
 116:C:/Users/stapi/OneDrive/Desktop/GD32VW553/V1_MQTT_OK/GD32VW55X_Wifi_BLE_SDK/GD32VW55x_RELEASE_V1.0.2/MSDK/lwip/libcoap-4.3.4/src\coap_cache.c ****       if (!coap_digest_update(dctx, data, len)) {
 237              		.loc 1 116 9 is_stmt 0
 238 0056 1018     		addi	a2,sp,48
 239 0058 4C08     		addi	a1,sp,20
 240 005a 4A85     		mv	a0,s2
 241 005c 97000000 		call	coap_get_data
 241      E7800000 
 242              	.LVL25:
 116:C:/Users/stapi/OneDrive/Desktop/GD32VW553/V1_MQTT_OK/GD32VW55X_Wifi_BLE_SDK/GD32VW55x_RELEASE_V1.0.2/MSDK/lwip/libcoap-4.3.4/src\coap_cache.c ****       if (!coap_digest_update(dctx, data, len)) {
 243              		.loc 1 116 8
 244 0064 09C9     		beq	a0,zero,.L26
 117:C:/Users/stapi/OneDrive/Desktop/GD32VW553/V1_MQTT_OK/GD32VW55X_Wifi_BLE_SDK/GD32VW55x_RELEASE_V1.0.2/MSDK/lwip/libcoap-4.3.4/src\coap_cache.c ****         goto update_fail;
 245              		.loc 1 117 7 is_stmt 1
 117:C:/Users/stapi/OneDrive/Desktop/GD32VW553/V1_MQTT_OK/GD32VW55X_Wifi_BLE_SDK/GD32VW55x_RELEASE_V1.0.2/MSDK/lwip/libcoap-4.3.4/src\coap_cache.c ****         goto update_fail;
 246              		.loc 1 117 12 is_stmt 0
 247 0066 5246     		lw	a2,20(sp)
 248 0068 C255     		lw	a1,48(sp)
 249 006a 2285     		mv	a0,s0
 250 006c 97000000 		call	coap_digest_update
 250      E7800000 
 251              	.LVL26:
 117:C:/Users/stapi/OneDrive/Desktop/GD32VW553/V1_MQTT_OK/GD32VW55X_Wifi_BLE_SDK/GD32VW55x_RELEASE_V1.0.2/MSDK/lwip/libcoap-4.3.4/src\coap_cache.c ****         goto update_fail;
 252              		.loc 1 117 10
 253 0074 29C5     		beq	a0,zero,.L28
 254              	.L26:
 255              	.LBE9:
 123:C:/Users/stapi/OneDrive/Desktop/GD32VW553/V1_MQTT_OK/GD32VW55X_Wifi_BLE_SDK/GD32VW55x_RELEASE_V1.0.2/MSDK/lwip/libcoap-4.3.4/src\coap_cache.c ****     /* coap_digest_final() is guaranteed to free off dctx no matter what */
 256              		.loc 1 123 3 is_stmt 1
 123:C:/Users/stapi/OneDrive/Desktop/GD32VW553/V1_MQTT_OK/GD32VW55X_Wifi_BLE_SDK/GD32VW55x_RELEASE_V1.0.2/MSDK/lwip/libcoap-4.3.4/src\coap_cache.c ****     /* coap_digest_final() is guaranteed to free off dctx no matter what */
 257              		.loc 1 123 8 is_stmt 0
 258 0076 0C18     		addi	a1,sp,48
 259 0078 2285     		mv	a0,s0
 260 007a 97000000 		call	coap_digest_final
 260      E7800000 
 261              	.LVL27:
 123:C:/Users/stapi/OneDrive/Desktop/GD32VW553/V1_MQTT_OK/GD32VW55X_Wifi_BLE_SDK/GD32VW55x_RELEASE_V1.0.2/MSDK/lwip/libcoap-4.3.4/src\coap_cache.c ****     /* coap_digest_final() is guaranteed to free off dctx no matter what */
 262              		.loc 1 123 6
 263 0082 4DD1     		beq	a0,zero,.L55
 127:C:/Users/stapi/OneDrive/Desktop/GD32VW553/V1_MQTT_OK/GD32VW55X_Wifi_BLE_SDK/GD32VW55x_RELEASE_V1.0.2/MSDK/lwip/libcoap-4.3.4/src\coap_cache.c ****   if (cache_key) {
 264              		.loc 1 127 3 is_stmt 1
 127:C:/Users/stapi/OneDrive/Desktop/GD32VW553/V1_MQTT_OK/GD32VW55X_Wifi_BLE_SDK/GD32VW55x_RELEASE_V1.0.2/MSDK/lwip/libcoap-4.3.4/src\coap_cache.c ****   if (cache_key) {
 265              		.loc 1 127 15 is_stmt 0
 266 0084 93050002 		li	a1,32
 267 0088 3945     		li	a0,14
 268 008a 97000000 		call	coap_malloc_type
 268      E7800000 
 269              	.LVL28:
 270 0092 2A84     		mv	s0,a0
 271              	.LVL29:
 128:C:/Users/stapi/OneDrive/Desktop/GD32VW553/V1_MQTT_OK/GD32VW55X_Wifi_BLE_SDK/GD32VW55x_RELEASE_V1.0.2/MSDK/lwip/libcoap-4.3.4/src\coap_cache.c ****     memcpy(cache_key->key, digest.key, sizeof(cache_key->key));
 272              		.loc 1 128 3 is_stmt 1
 128:C:/Users/stapi/OneDrive/Desktop/GD32VW553/V1_MQTT_OK/GD32VW55X_Wifi_BLE_SDK/GD32VW55x_RELEASE_V1.0.2/MSDK/lwip/libcoap-4.3.4/src\coap_cache.c ****     memcpy(cache_key->key, digest.key, sizeof(cache_key->key));
 273              		.loc 1 128 6 is_stmt 0
 274 0094 01C9     		beq	a0,zero,.L13
 129:C:/Users/stapi/OneDrive/Desktop/GD32VW553/V1_MQTT_OK/GD32VW55X_Wifi_BLE_SDK/GD32VW55x_RELEASE_V1.0.2/MSDK/lwip/libcoap-4.3.4/src\coap_cache.c ****   }
 275              		.loc 1 129 5 is_stmt 1
 276 0096 13060002 		li	a2,32
 277 009a 0C18     		addi	a1,sp,48
 278 009c 97000000 		call	memcpy
 278      E7800000 
 279              	.LVL30:
 280              	.L13:
 135:C:/Users/stapi/OneDrive/Desktop/GD32VW553/V1_MQTT_OK/GD32VW55X_Wifi_BLE_SDK/GD32VW55x_RELEASE_V1.0.2/MSDK/lwip/libcoap-4.3.4/src\coap_cache.c **** }
 281              		.loc 1 135 1 is_stmt 0
 282 00a4 2285     		mv	a0,s0
 283 00a6 6161     		addi	sp,sp,80
 284              		.cfi_remember_state
 285              		.cfi_def_cfa_offset 0
 286 00a8 17030000 		tail	__riscv_restore_7
 286      67000300 
 287              		.cfi_restore 22
 288              		.cfi_restore 21
 289              		.cfi_restore 20
 290              		.cfi_restore 19
 291              		.cfi_restore 18
 292              		.cfi_restore 9
 293              		.cfi_restore 8
 294              		.cfi_restore 1
 295              		.cfi_def_cfa_offset -32
 296              	.LVL31:
 297              	.L17:
 298              		.cfi_restore_state
  93:C:/Users/stapi/OneDrive/Desktop/GD32VW553/V1_MQTT_OK/GD32VW55X_Wifi_BLE_SDK/GD32VW55x_RELEASE_V1.0.2/MSDK/lwip/libcoap-4.3.4/src\coap_cache.c ****       goto update_fail;
 299              		.loc 1 93 5 is_stmt 1
  93:C:/Users/stapi/OneDrive/Desktop/GD32VW553/V1_MQTT_OK/GD32VW55X_Wifi_BLE_SDK/GD32VW55x_RELEASE_V1.0.2/MSDK/lwip/libcoap-4.3.4/src\coap_cache.c ****       goto update_fail;
 300              		.loc 1 93 10 is_stmt 0
 301 00b0 1146     		li	a2,4
 302 00b2 6C00     		addi	a1,sp,12
 303 00b4 97000000 		call	coap_digest_update
 303      E7800000 
 304              	.LVL32:
  93:C:/Users/stapi/OneDrive/Desktop/GD32VW553/V1_MQTT_OK/GD32VW55X_Wifi_BLE_SDK/GD32VW55x_RELEASE_V1.0.2/MSDK/lwip/libcoap-4.3.4/src\coap_cache.c ****       goto update_fail;
 305              		.loc 1 93 8
 306 00bc 3DFD     		bne	a0,zero,.L20
 307              	.LVL33:
 308              	.L28:
 133:C:/Users/stapi/OneDrive/Desktop/GD32VW553/V1_MQTT_OK/GD32VW55X_Wifi_BLE_SDK/GD32VW55x_RELEASE_V1.0.2/MSDK/lwip/libcoap-4.3.4/src\coap_cache.c ****   return NULL;
 309              		.loc 1 133 3 is_stmt 1
 310 00be 2285     		mv	a0,s0
 311 00c0 97000000 		call	coap_digest_free
 311      E7800000 
 312              	.LVL34:
 313 00c8 B1BF     		j	.L55
 314              	.LVL35:
 315              	.L25:
  98:C:/Users/stapi/OneDrive/Desktop/GD32VW553/V1_MQTT_OK/GD32VW55X_Wifi_BLE_SDK/GD32VW55x_RELEASE_V1.0.2/MSDK/lwip/libcoap-4.3.4/src\coap_cache.c ****                      cache_ignore_options)) {
 316              		.loc 1 98 5
  98:C:/Users/stapi/OneDrive/Desktop/GD32VW553/V1_MQTT_OK/GD32VW55X_Wifi_BLE_SDK/GD32VW55x_RELEASE_V1.0.2/MSDK/lwip/libcoap-4.3.4/src\coap_cache.c ****                      cache_ignore_options)) {
 317              		.loc 1 98 9 is_stmt 0
 318 00ca 0357C101 		lhu	a4,28(sp)
 319              	.LVL36:
 320              	.LBB10:
 321              	.LBB7:
  25:C:/Users/stapi/OneDrive/Desktop/GD32VW553/V1_MQTT_OK/GD32VW55X_Wifi_BLE_SDK/GD32VW55x_RELEASE_V1.0.2/MSDK/lwip/libcoap-4.3.4/src\coap_cache.c **** 
 322              		.loc 1 25 3 is_stmt 1
  28:C:/Users/stapi/OneDrive/Desktop/GD32VW553/V1_MQTT_OK/GD32VW55X_Wifi_BLE_SDK/GD32VW55x_RELEASE_V1.0.2/MSDK/lwip/libcoap-4.3.4/src\coap_cache.c ****     return 0;
 323              		.loc 1 28 3
  28:C:/Users/stapi/OneDrive/Desktop/GD32VW553/V1_MQTT_OK/GD32VW55X_Wifi_BLE_SDK/GD32VW55x_RELEASE_V1.0.2/MSDK/lwip/libcoap-4.3.4/src\coap_cache.c ****     return 0;
 324              		.loc 1 28 6 is_stmt 0
 325 00ce 9377E701 		andi	a5,a4,30
 326 00d2 E38657F7 		beq	a5,s5,.L44
  34:C:/Users/stapi/OneDrive/Desktop/GD32VW553/V1_MQTT_OK/GD32VW55X_Wifi_BLE_SDK/GD32VW55x_RELEASE_V1.0.2/MSDK/lwip/libcoap-4.3.4/src\coap_cache.c ****     return 0;
 327              		.loc 1 34 3 is_stmt 1
  38:C:/Users/stapi/OneDrive/Desktop/GD32VW553/V1_MQTT_OK/GD32VW55X_Wifi_BLE_SDK/GD32VW55x_RELEASE_V1.0.2/MSDK/lwip/libcoap-4.3.4/src\coap_cache.c ****     if (cache_ignore_options[i] == option_type) {
 328              		.loc 1 38 10 is_stmt 0
 329 00d6 8147     		li	a5,0
  34:C:/Users/stapi/OneDrive/Desktop/GD32VW553/V1_MQTT_OK/GD32VW55X_Wifi_BLE_SDK/GD32VW55x_RELEASE_V1.0.2/MSDK/lwip/libcoap-4.3.4/src\coap_cache.c ****     return 0;
 330              		.loc 1 34 6
 331 00d8 E30367F7 		beq	a4,s6,.L44
 332              	.L22:
 333              	.LVL37:
  38:C:/Users/stapi/OneDrive/Desktop/GD32VW553/V1_MQTT_OK/GD32VW55X_Wifi_BLE_SDK/GD32VW55x_RELEASE_V1.0.2/MSDK/lwip/libcoap-4.3.4/src\coap_cache.c ****     if (cache_ignore_options[i] == option_type) {
 334              		.loc 1 38 15 is_stmt 1
  38:C:/Users/stapi/OneDrive/Desktop/GD32VW553/V1_MQTT_OK/GD32VW55X_Wifi_BLE_SDK/GD32VW55x_RELEASE_V1.0.2/MSDK/lwip/libcoap-4.3.4/src\coap_cache.c ****     if (cache_ignore_options[i] == option_type) {
 335              		.loc 1 38 3 is_stmt 0
 336 00dc 631EFA02 		bne	s4,a5,.L23
 337              	.LVL38:
 338              	.LBE7:
 339              	.LBE10:
 100:C:/Users/stapi/OneDrive/Desktop/GD32VW553/V1_MQTT_OK/GD32VW55X_Wifi_BLE_SDK/GD32VW55x_RELEASE_V1.0.2/MSDK/lwip/libcoap-4.3.4/src\coap_cache.c ****                               sizeof(opt_iter.number))) {
 340              		.loc 1 100 7 is_stmt 1
 100:C:/Users/stapi/OneDrive/Desktop/GD32VW553/V1_MQTT_OK/GD32VW55X_Wifi_BLE_SDK/GD32VW55x_RELEASE_V1.0.2/MSDK/lwip/libcoap-4.3.4/src\coap_cache.c ****                               sizeof(opt_iter.number))) {
 341              		.loc 1 100 12 is_stmt 0
 342 00e0 0946     		li	a2,2
 343 00e2 6C08     		addi	a1,sp,28
 344 00e4 2285     		mv	a0,s0
 345 00e6 97000000 		call	coap_digest_update
 345      E7800000 
 346              	.LVL39:
 100:C:/Users/stapi/OneDrive/Desktop/GD32VW553/V1_MQTT_OK/GD32VW55X_Wifi_BLE_SDK/GD32VW55x_RELEASE_V1.0.2/MSDK/lwip/libcoap-4.3.4/src\coap_cache.c ****                               sizeof(opt_iter.number))) {
 347              		.loc 1 100 10
 348 00ee 61D9     		beq	a0,zero,.L28
 104:C:/Users/stapi/OneDrive/Desktop/GD32VW553/V1_MQTT_OK/GD32VW55X_Wifi_BLE_SDK/GD32VW55x_RELEASE_V1.0.2/MSDK/lwip/libcoap-4.3.4/src\coap_cache.c ****                               coap_opt_length(option))) {
 349              		.loc 1 104 7 is_stmt 1
 104:C:/Users/stapi/OneDrive/Desktop/GD32VW553/V1_MQTT_OK/GD32VW55X_Wifi_BLE_SDK/GD32VW55x_RELEASE_V1.0.2/MSDK/lwip/libcoap-4.3.4/src\coap_cache.c ****                               coap_opt_length(option))) {
 350              		.loc 1 104 12 is_stmt 0
 351 00f0 2685     		mv	a0,s1
 352 00f2 97000000 		call	coap_opt_value
 352      E7800000 
 353              	.LVL40:
 354 00fa 2AC4     		sw	a0,8(sp)
 105:C:/Users/stapi/OneDrive/Desktop/GD32VW553/V1_MQTT_OK/GD32VW55X_Wifi_BLE_SDK/GD32VW55x_RELEASE_V1.0.2/MSDK/lwip/libcoap-4.3.4/src\coap_cache.c ****         goto update_fail;
 355              		.loc 1 105 31
 356 00fc 2685     		mv	a0,s1
 357 00fe 97000000 		call	coap_opt_length
 357      E7800000 
 358              	.LVL41:
 104:C:/Users/stapi/OneDrive/Desktop/GD32VW553/V1_MQTT_OK/GD32VW55X_Wifi_BLE_SDK/GD32VW55x_RELEASE_V1.0.2/MSDK/lwip/libcoap-4.3.4/src\coap_cache.c ****                               coap_opt_length(option))) {
 359              		.loc 1 104 12
 360 0106 A245     		lw	a1,8(sp)
 105:C:/Users/stapi/OneDrive/Desktop/GD32VW553/V1_MQTT_OK/GD32VW55X_Wifi_BLE_SDK/GD32VW55x_RELEASE_V1.0.2/MSDK/lwip/libcoap-4.3.4/src\coap_cache.c ****         goto update_fail;
 361              		.loc 1 105 31
 362 0108 2A86     		mv	a2,a0
 104:C:/Users/stapi/OneDrive/Desktop/GD32VW553/V1_MQTT_OK/GD32VW55X_Wifi_BLE_SDK/GD32VW55x_RELEASE_V1.0.2/MSDK/lwip/libcoap-4.3.4/src\coap_cache.c ****                               coap_opt_length(option))) {
 363              		.loc 1 104 12
 364 010a 2285     		mv	a0,s0
 365 010c 97000000 		call	coap_digest_update
 365      E7800000 
 366              	.LVL42:
 104:C:/Users/stapi/OneDrive/Desktop/GD32VW553/V1_MQTT_OK/GD32VW55X_Wifi_BLE_SDK/GD32VW55x_RELEASE_V1.0.2/MSDK/lwip/libcoap-4.3.4/src\coap_cache.c ****                               coap_opt_length(option))) {
 367              		.loc 1 104 10
 368 0114 0DF5     		bne	a0,zero,.L44
 369 0116 65B7     		j	.L28
 370              	.LVL43:
 371              	.L23:
 372              	.LBB11:
 373              	.LBB8:
  39:C:/Users/stapi/OneDrive/Desktop/GD32VW553/V1_MQTT_OK/GD32VW55X_Wifi_BLE_SDK/GD32VW55x_RELEASE_V1.0.2/MSDK/lwip/libcoap-4.3.4/src\coap_cache.c ****       return 0;
 374              		.loc 1 39 5 is_stmt 1
  39:C:/Users/stapi/OneDrive/Desktop/GD32VW553/V1_MQTT_OK/GD32VW55X_Wifi_BLE_SDK/GD32VW55x_RELEASE_V1.0.2/MSDK/lwip/libcoap-4.3.4/src\coap_cache.c ****       return 0;
 375              		.loc 1 39 29 is_stmt 0
 376 0118 B3A63721 		sh1add	a3,a5,s3
  39:C:/Users/stapi/OneDrive/Desktop/GD32VW553/V1_MQTT_OK/GD32VW55X_Wifi_BLE_SDK/GD32VW55x_RELEASE_V1.0.2/MSDK/lwip/libcoap-4.3.4/src\coap_cache.c ****       return 0;
 377              		.loc 1 39 8
 378 011c 83D60600 		lhu	a3,0(a3)
 379 0120 E38FE6F0 		beq	a3,a4,.L44
  38:C:/Users/stapi/OneDrive/Desktop/GD32VW553/V1_MQTT_OK/GD32VW55X_Wifi_BLE_SDK/GD32VW55x_RELEASE_V1.0.2/MSDK/lwip/libcoap-4.3.4/src\coap_cache.c ****     if (cache_ignore_options[i] == option_type) {
 380              		.loc 1 38 39 is_stmt 1
  38:C:/Users/stapi/OneDrive/Desktop/GD32VW553/V1_MQTT_OK/GD32VW55X_Wifi_BLE_SDK/GD32VW55x_RELEASE_V1.0.2/MSDK/lwip/libcoap-4.3.4/src\coap_cache.c ****     if (cache_ignore_options[i] == option_type) {
 381              		.loc 1 38 40 is_stmt 0
 382 0124 8507     		addi	a5,a5,1
 383              	.LVL44:
 384 0126 5DBF     		j	.L22
 385              	.LBE8:
 386              	.LBE11:
 387              		.cfi_endproc
 388              	.LFE33:
 390              		.section	.text.coap_cache_derive_key,"ax",@progbits
 391              		.align	1
 392              		.globl	coap_cache_derive_key
 394              	coap_cache_derive_key:
 395              	.LFB34:
 136:C:/Users/stapi/OneDrive/Desktop/GD32VW553/V1_MQTT_OK/GD32VW55X_Wifi_BLE_SDK/GD32VW55x_RELEASE_V1.0.2/MSDK/lwip/libcoap-4.3.4/src\coap_cache.c **** 
 137:C:/Users/stapi/OneDrive/Desktop/GD32VW553/V1_MQTT_OK/GD32VW55X_Wifi_BLE_SDK/GD32VW55x_RELEASE_V1.0.2/MSDK/lwip/libcoap-4.3.4/src\coap_cache.c **** coap_cache_key_t *
 138:C:/Users/stapi/OneDrive/Desktop/GD32VW553/V1_MQTT_OK/GD32VW55X_Wifi_BLE_SDK/GD32VW55x_RELEASE_V1.0.2/MSDK/lwip/libcoap-4.3.4/src\coap_cache.c **** coap_cache_derive_key(const coap_session_t *session,
 139:C:/Users/stapi/OneDrive/Desktop/GD32VW553/V1_MQTT_OK/GD32VW55X_Wifi_BLE_SDK/GD32VW55x_RELEASE_V1.0.2/MSDK/lwip/libcoap-4.3.4/src\coap_cache.c ****                       const coap_pdu_t *pdu,
 140:C:/Users/stapi/OneDrive/Desktop/GD32VW553/V1_MQTT_OK/GD32VW55X_Wifi_BLE_SDK/GD32VW55x_RELEASE_V1.0.2/MSDK/lwip/libcoap-4.3.4/src\coap_cache.c ****                       coap_cache_session_based_t session_based) {
 396              		.loc 1 140 65 is_stmt 1
 397              		.cfi_startproc
 398              	.LVL45:
 141:C:/Users/stapi/OneDrive/Desktop/GD32VW553/V1_MQTT_OK/GD32VW55X_Wifi_BLE_SDK/GD32VW55x_RELEASE_V1.0.2/MSDK/lwip/libcoap-4.3.4/src\coap_cache.c ****   return coap_cache_derive_key_w_ignore(session, pdu, session_based,
 399              		.loc 1 141 3
 142:C:/Users/stapi/OneDrive/Desktop/GD32VW553/V1_MQTT_OK/GD32VW55X_Wifi_BLE_SDK/GD32VW55x_RELEASE_V1.0.2/MSDK/lwip/libcoap-4.3.4/src\coap_cache.c ****                                         session->context->cache_ignore_options,
 400              		.loc 1 142 48 is_stmt 0
 401 0000 8327C50A 		lw	a5,172(a0)
 141:C:/Users/stapi/OneDrive/Desktop/GD32VW553/V1_MQTT_OK/GD32VW55X_Wifi_BLE_SDK/GD32VW55x_RELEASE_V1.0.2/MSDK/lwip/libcoap-4.3.4/src\coap_cache.c ****   return coap_cache_derive_key_w_ignore(session, pdu, session_based,
 402              		.loc 1 141 10
 403 0004 03A7070C 		lw	a4,192(a5)
 404 0008 83A6C70B 		lw	a3,188(a5)
 405 000c 17030000 		tail	coap_cache_derive_key_w_ignore
 405      67000300 
 406              	.LVL46:
 407              		.cfi_endproc
 408              	.LFE34:
 410              		.section	.text.coap_delete_cache_key,"ax",@progbits
 411              		.align	1
 412              		.globl	coap_delete_cache_key
 414              	coap_delete_cache_key:
 415              	.LFB35:
 143:C:/Users/stapi/OneDrive/Desktop/GD32VW553/V1_MQTT_OK/GD32VW55X_Wifi_BLE_SDK/GD32VW55x_RELEASE_V1.0.2/MSDK/lwip/libcoap-4.3.4/src\coap_cache.c ****                                         session->context->cache_ignore_count);
 144:C:/Users/stapi/OneDrive/Desktop/GD32VW553/V1_MQTT_OK/GD32VW55X_Wifi_BLE_SDK/GD32VW55x_RELEASE_V1.0.2/MSDK/lwip/libcoap-4.3.4/src\coap_cache.c **** }
 145:C:/Users/stapi/OneDrive/Desktop/GD32VW553/V1_MQTT_OK/GD32VW55X_Wifi_BLE_SDK/GD32VW55x_RELEASE_V1.0.2/MSDK/lwip/libcoap-4.3.4/src\coap_cache.c **** 
 146:C:/Users/stapi/OneDrive/Desktop/GD32VW553/V1_MQTT_OK/GD32VW55X_Wifi_BLE_SDK/GD32VW55x_RELEASE_V1.0.2/MSDK/lwip/libcoap-4.3.4/src\coap_cache.c **** void
 147:C:/Users/stapi/OneDrive/Desktop/GD32VW553/V1_MQTT_OK/GD32VW55X_Wifi_BLE_SDK/GD32VW55x_RELEASE_V1.0.2/MSDK/lwip/libcoap-4.3.4/src\coap_cache.c **** coap_delete_cache_key(coap_cache_key_t *cache_key) {
 416              		.loc 1 147 52 is_stmt 1
 417              		.cfi_startproc
 418              	.LVL47:
 148:C:/Users/stapi/OneDrive/Desktop/GD32VW553/V1_MQTT_OK/GD32VW55X_Wifi_BLE_SDK/GD32VW55x_RELEASE_V1.0.2/MSDK/lwip/libcoap-4.3.4/src\coap_cache.c ****   coap_free_type(COAP_CACHE_KEY, cache_key);
 419              		.loc 1 148 3
 147:C:/Users/stapi/OneDrive/Desktop/GD32VW553/V1_MQTT_OK/GD32VW55X_Wifi_BLE_SDK/GD32VW55x_RELEASE_V1.0.2/MSDK/lwip/libcoap-4.3.4/src\coap_cache.c ****   coap_free_type(COAP_CACHE_KEY, cache_key);
 420              		.loc 1 147 52 is_stmt 0
 421 0000 AA85     		mv	a1,a0
 422              		.loc 1 148 3
 423 0002 3945     		li	a0,14
 424              	.LVL48:
 425 0004 17030000 		tail	coap_free_type
 425      67000300 
 426              	.LVL49:
 427              		.cfi_endproc
 428              	.LFE35:
 430              		.section	.text.coap_new_cache_entry,"ax",@progbits
 431              		.align	1
 432              		.globl	coap_new_cache_entry
 434              	coap_new_cache_entry:
 435              	.LFB36:
 149:C:/Users/stapi/OneDrive/Desktop/GD32VW553/V1_MQTT_OK/GD32VW55X_Wifi_BLE_SDK/GD32VW55x_RELEASE_V1.0.2/MSDK/lwip/libcoap-4.3.4/src\coap_cache.c **** }
 150:C:/Users/stapi/OneDrive/Desktop/GD32VW553/V1_MQTT_OK/GD32VW55X_Wifi_BLE_SDK/GD32VW55x_RELEASE_V1.0.2/MSDK/lwip/libcoap-4.3.4/src\coap_cache.c **** 
 151:C:/Users/stapi/OneDrive/Desktop/GD32VW553/V1_MQTT_OK/GD32VW55X_Wifi_BLE_SDK/GD32VW55x_RELEASE_V1.0.2/MSDK/lwip/libcoap-4.3.4/src\coap_cache.c **** coap_cache_entry_t *
 152:C:/Users/stapi/OneDrive/Desktop/GD32VW553/V1_MQTT_OK/GD32VW55X_Wifi_BLE_SDK/GD32VW55x_RELEASE_V1.0.2/MSDK/lwip/libcoap-4.3.4/src\coap_cache.c **** coap_new_cache_entry(coap_session_t *session, const coap_pdu_t *pdu,
 153:C:/Users/stapi/OneDrive/Desktop/GD32VW553/V1_MQTT_OK/GD32VW55X_Wifi_BLE_SDK/GD32VW55x_RELEASE_V1.0.2/MSDK/lwip/libcoap-4.3.4/src\coap_cache.c ****                      coap_cache_record_pdu_t record_pdu,
 154:C:/Users/stapi/OneDrive/Desktop/GD32VW553/V1_MQTT_OK/GD32VW55X_Wifi_BLE_SDK/GD32VW55x_RELEASE_V1.0.2/MSDK/lwip/libcoap-4.3.4/src\coap_cache.c ****                      coap_cache_session_based_t session_based,
 155:C:/Users/stapi/OneDrive/Desktop/GD32VW553/V1_MQTT_OK/GD32VW55X_Wifi_BLE_SDK/GD32VW55x_RELEASE_V1.0.2/MSDK/lwip/libcoap-4.3.4/src\coap_cache.c ****                      unsigned int idle_timeout) {
 436              		.loc 1 155 49 is_stmt 1
 437              		.cfi_startproc
 438              	.LVL50:
 439 0000 17030000 		call	t0,__riscv_save_6
 439      E7020300 
 440              		.cfi_offset 21, -28
 441              		.cfi_offset 20, -24
 442              		.cfi_offset 19, -20
 443              		.cfi_offset 18, -16
 444              		.cfi_offset 9, -12
 445              		.cfi_offset 8, -8
 446              		.cfi_offset 1, -4
 447              		.cfi_def_cfa_offset 32
 156:C:/Users/stapi/OneDrive/Desktop/GD32VW553/V1_MQTT_OK/GD32VW55X_Wifi_BLE_SDK/GD32VW55x_RELEASE_V1.0.2/MSDK/lwip/libcoap-4.3.4/src\coap_cache.c ****   coap_cache_entry_t *entry = coap_malloc_type(COAP_CACHE_ENTRY,
 448              		.loc 1 156 3
 155:C:/Users/stapi/OneDrive/Desktop/GD32VW553/V1_MQTT_OK/GD32VW55X_Wifi_BLE_SDK/GD32VW55x_RELEASE_V1.0.2/MSDK/lwip/libcoap-4.3.4/src\coap_cache.c ****   coap_cache_entry_t *entry = coap_malloc_type(COAP_CACHE_ENTRY,
 449              		.loc 1 155 49 is_stmt 0
 450 0008 4111     		addi	sp,sp,-16
 451              		.cfi_def_cfa_offset 48
 155:C:/Users/stapi/OneDrive/Desktop/GD32VW553/V1_MQTT_OK/GD32VW55X_Wifi_BLE_SDK/GD32VW55x_RELEASE_V1.0.2/MSDK/lwip/libcoap-4.3.4/src\coap_cache.c ****   coap_cache_entry_t *entry = coap_malloc_type(COAP_CACHE_ENTRY,
 452              		.loc 1 155 49
 453 000a AA84     		mv	s1,a0
 454 000c 2E89     		mv	s2,a1
 455              		.loc 1 156 31
 456 000e 3D45     		li	a0,15
 457              	.LVL51:
 458 0010 9305C003 		li	a1,60
 459              	.LVL52:
 155:C:/Users/stapi/OneDrive/Desktop/GD32VW553/V1_MQTT_OK/GD32VW55X_Wifi_BLE_SDK/GD32VW55x_RELEASE_V1.0.2/MSDK/lwip/libcoap-4.3.4/src\coap_cache.c ****   coap_cache_entry_t *entry = coap_malloc_type(COAP_CACHE_ENTRY,
 460              		.loc 1 155 49
 461 0014 B28A     		mv	s5,a2
 462 0016 368A     		mv	s4,a3
 463 0018 BA89     		mv	s3,a4
 464              		.loc 1 156 31
 465 001a 97000000 		call	coap_malloc_type
 465      E7800000 
 466              	.LVL53:
 467 0022 2A84     		mv	s0,a0
 468              	.LVL54:
 157:C:/Users/stapi/OneDrive/Desktop/GD32VW553/V1_MQTT_OK/GD32VW55X_Wifi_BLE_SDK/GD32VW55x_RELEASE_V1.0.2/MSDK/lwip/libcoap-4.3.4/src\coap_cache.c ****                                                sizeof(coap_cache_entry_t));
 158:C:/Users/stapi/OneDrive/Desktop/GD32VW553/V1_MQTT_OK/GD32VW55X_Wifi_BLE_SDK/GD32VW55x_RELEASE_V1.0.2/MSDK/lwip/libcoap-4.3.4/src\coap_cache.c ****   if (!entry) {
 469              		.loc 1 158 3 is_stmt 1
 470              		.loc 1 158 6 is_stmt 0
 471 0024 31CD     		beq	a0,zero,.L60
 159:C:/Users/stapi/OneDrive/Desktop/GD32VW553/V1_MQTT_OK/GD32VW55X_Wifi_BLE_SDK/GD32VW55x_RELEASE_V1.0.2/MSDK/lwip/libcoap-4.3.4/src\coap_cache.c ****     return NULL;
 160:C:/Users/stapi/OneDrive/Desktop/GD32VW553/V1_MQTT_OK/GD32VW55X_Wifi_BLE_SDK/GD32VW55x_RELEASE_V1.0.2/MSDK/lwip/libcoap-4.3.4/src\coap_cache.c ****   }
 161:C:/Users/stapi/OneDrive/Desktop/GD32VW553/V1_MQTT_OK/GD32VW55X_Wifi_BLE_SDK/GD32VW55x_RELEASE_V1.0.2/MSDK/lwip/libcoap-4.3.4/src\coap_cache.c **** 
 162:C:/Users/stapi/OneDrive/Desktop/GD32VW553/V1_MQTT_OK/GD32VW55X_Wifi_BLE_SDK/GD32VW55x_RELEASE_V1.0.2/MSDK/lwip/libcoap-4.3.4/src\coap_cache.c ****   memset(entry, 0, sizeof(coap_cache_entry_t));
 472              		.loc 1 162 3 is_stmt 1
 473 0026 1306C003 		li	a2,60
 474 002a 8145     		li	a1,0
 475 002c 97000000 		call	memset
 475      E7800000 
 476              	.LVL55:
 163:C:/Users/stapi/OneDrive/Desktop/GD32VW553/V1_MQTT_OK/GD32VW55X_Wifi_BLE_SDK/GD32VW55x_RELEASE_V1.0.2/MSDK/lwip/libcoap-4.3.4/src\coap_cache.c ****   entry->session = session;
 477              		.loc 1 163 3
 164:C:/Users/stapi/OneDrive/Desktop/GD32VW553/V1_MQTT_OK/GD32VW55X_Wifi_BLE_SDK/GD32VW55x_RELEASE_V1.0.2/MSDK/lwip/libcoap-4.3.4/src\coap_cache.c ****   if (record_pdu == COAP_CACHE_RECORD_PDU) {
 478              		.loc 1 164 6 is_stmt 0
 479 0034 8547     		li	a5,1
 163:C:/Users/stapi/OneDrive/Desktop/GD32VW553/V1_MQTT_OK/GD32VW55X_Wifi_BLE_SDK/GD32VW55x_RELEASE_V1.0.2/MSDK/lwip/libcoap-4.3.4/src\coap_cache.c ****   entry->session = session;
 480              		.loc 1 163 18
 481 0036 44D0     		sw	s1,36(s0)
 482              		.loc 1 164 3 is_stmt 1
 483              		.loc 1 164 6 is_stmt 0
 484 0038 6395FA08 		bne	s5,a5,.L63
 165:C:/Users/stapi/OneDrive/Desktop/GD32VW553/V1_MQTT_OK/GD32VW55X_Wifi_BLE_SDK/GD32VW55x_RELEASE_V1.0.2/MSDK/lwip/libcoap-4.3.4/src\coap_cache.c ****     entry->pdu = coap_pdu_init(pdu->type, pdu->code, pdu->mid, pdu->alloc_size);
 485              		.loc 1 165 5 is_stmt 1
 486              		.loc 1 165 18 is_stmt 0
 487 003c 83260902 		lw	a3,32(s2)
 488 0040 03268900 		lw	a2,8(s2)
 489 0044 83254900 		lw	a1,4(s2)
 490 0048 03250900 		lw	a0,0(s2)
 491 004c 97000000 		call	coap_pdu_init
 491      E7800000 
 492              	.LVL56:
 493              		.loc 1 165 16
 494 0054 08D4     		sw	a0,40(s0)
 166:C:/Users/stapi/OneDrive/Desktop/GD32VW553/V1_MQTT_OK/GD32VW55X_Wifi_BLE_SDK/GD32VW55x_RELEASE_V1.0.2/MSDK/lwip/libcoap-4.3.4/src\coap_cache.c ****     if (entry->pdu) {
 495              		.loc 1 166 5 is_stmt 1
 496              		.loc 1 166 8 is_stmt 0
 497 0056 35C5     		beq	a0,zero,.L63
 167:C:/Users/stapi/OneDrive/Desktop/GD32VW553/V1_MQTT_OK/GD32VW55X_Wifi_BLE_SDK/GD32VW55x_RELEASE_V1.0.2/MSDK/lwip/libcoap-4.3.4/src\coap_cache.c ****       if (!coap_pdu_resize(entry->pdu, pdu->alloc_size)) {
 498              		.loc 1 167 7 is_stmt 1
 499              		.loc 1 167 12 is_stmt 0
 500 0058 83250902 		lw	a1,32(s2)
 501 005c 97000000 		call	coap_pdu_resize
 501      E7800000 
 502              	.LVL57:
 503 0064 AA87     		mv	a5,a0
 504 0066 0854     		lw	a0,40(s0)
 505              		.loc 1 167 10
 506 0068 95E3     		bne	a5,zero,.L65
 168:C:/Users/stapi/OneDrive/Desktop/GD32VW553/V1_MQTT_OK/GD32VW55X_Wifi_BLE_SDK/GD32VW55x_RELEASE_V1.0.2/MSDK/lwip/libcoap-4.3.4/src\coap_cache.c ****         coap_delete_pdu(entry->pdu);
 507              		.loc 1 168 9 is_stmt 1
 508 006a 97000000 		call	coap_delete_pdu
 508      E7800000 
 509              	.LVL58:
 169:C:/Users/stapi/OneDrive/Desktop/GD32VW553/V1_MQTT_OK/GD32VW55X_Wifi_BLE_SDK/GD32VW55x_RELEASE_V1.0.2/MSDK/lwip/libcoap-4.3.4/src\coap_cache.c ****         coap_free_type(COAP_CACHE_ENTRY, entry);
 510              		.loc 1 169 9
 511              	.L106:
 170:C:/Users/stapi/OneDrive/Desktop/GD32VW553/V1_MQTT_OK/GD32VW55X_Wifi_BLE_SDK/GD32VW55x_RELEASE_V1.0.2/MSDK/lwip/libcoap-4.3.4/src\coap_cache.c ****         return NULL;
 171:C:/Users/stapi/OneDrive/Desktop/GD32VW553/V1_MQTT_OK/GD32VW55X_Wifi_BLE_SDK/GD32VW55x_RELEASE_V1.0.2/MSDK/lwip/libcoap-4.3.4/src\coap_cache.c ****       }
 172:C:/Users/stapi/OneDrive/Desktop/GD32VW553/V1_MQTT_OK/GD32VW55X_Wifi_BLE_SDK/GD32VW55x_RELEASE_V1.0.2/MSDK/lwip/libcoap-4.3.4/src\coap_cache.c ****       /* Need to get the appropriate data across */
 173:C:/Users/stapi/OneDrive/Desktop/GD32VW553/V1_MQTT_OK/GD32VW55X_Wifi_BLE_SDK/GD32VW55x_RELEASE_V1.0.2/MSDK/lwip/libcoap-4.3.4/src\coap_cache.c ****       memcpy(entry->pdu, pdu, offsetof(coap_pdu_t, token));
 174:C:/Users/stapi/OneDrive/Desktop/GD32VW553/V1_MQTT_OK/GD32VW55X_Wifi_BLE_SDK/GD32VW55x_RELEASE_V1.0.2/MSDK/lwip/libcoap-4.3.4/src\coap_cache.c ****       memcpy(entry->pdu->token, pdu->token, pdu->used_size);
 175:C:/Users/stapi/OneDrive/Desktop/GD32VW553/V1_MQTT_OK/GD32VW55X_Wifi_BLE_SDK/GD32VW55x_RELEASE_V1.0.2/MSDK/lwip/libcoap-4.3.4/src\coap_cache.c ****       /* And adjust all the pointers etc. */
 176:C:/Users/stapi/OneDrive/Desktop/GD32VW553/V1_MQTT_OK/GD32VW55X_Wifi_BLE_SDK/GD32VW55x_RELEASE_V1.0.2/MSDK/lwip/libcoap-4.3.4/src\coap_cache.c ****       entry->pdu->data = entry->pdu->token + (pdu->data - pdu->token);
 177:C:/Users/stapi/OneDrive/Desktop/GD32VW553/V1_MQTT_OK/GD32VW55X_Wifi_BLE_SDK/GD32VW55x_RELEASE_V1.0.2/MSDK/lwip/libcoap-4.3.4/src\coap_cache.c ****     }
 178:C:/Users/stapi/OneDrive/Desktop/GD32VW553/V1_MQTT_OK/GD32VW55X_Wifi_BLE_SDK/GD32VW55x_RELEASE_V1.0.2/MSDK/lwip/libcoap-4.3.4/src\coap_cache.c ****   }
 179:C:/Users/stapi/OneDrive/Desktop/GD32VW553/V1_MQTT_OK/GD32VW55X_Wifi_BLE_SDK/GD32VW55x_RELEASE_V1.0.2/MSDK/lwip/libcoap-4.3.4/src\coap_cache.c ****   entry->cache_key = coap_cache_derive_key(session, pdu, session_based);
 180:C:/Users/stapi/OneDrive/Desktop/GD32VW553/V1_MQTT_OK/GD32VW55X_Wifi_BLE_SDK/GD32VW55x_RELEASE_V1.0.2/MSDK/lwip/libcoap-4.3.4/src\coap_cache.c ****   if (!entry->cache_key) {
 181:C:/Users/stapi/OneDrive/Desktop/GD32VW553/V1_MQTT_OK/GD32VW55X_Wifi_BLE_SDK/GD32VW55x_RELEASE_V1.0.2/MSDK/lwip/libcoap-4.3.4/src\coap_cache.c ****     coap_free_type(COAP_CACHE_ENTRY, entry);
 512              		.loc 1 181 5
 513 0072 A285     		mv	a1,s0
 514 0074 3D45     		li	a0,15
 515 0076 97000000 		call	coap_free_type
 515      E7800000 
 516              	.LVL59:
 182:C:/Users/stapi/OneDrive/Desktop/GD32VW553/V1_MQTT_OK/GD32VW55X_Wifi_BLE_SDK/GD32VW55x_RELEASE_V1.0.2/MSDK/lwip/libcoap-4.3.4/src\coap_cache.c ****     return NULL;
 517              		.loc 1 182 5
 518              		.loc 1 182 12 is_stmt 0
 519 007e 0144     		li	s0,0
 520              	.LVL60:
 521              	.L60:
 183:C:/Users/stapi/OneDrive/Desktop/GD32VW553/V1_MQTT_OK/GD32VW55X_Wifi_BLE_SDK/GD32VW55x_RELEASE_V1.0.2/MSDK/lwip/libcoap-4.3.4/src\coap_cache.c ****   }
 184:C:/Users/stapi/OneDrive/Desktop/GD32VW553/V1_MQTT_OK/GD32VW55X_Wifi_BLE_SDK/GD32VW55x_RELEASE_V1.0.2/MSDK/lwip/libcoap-4.3.4/src\coap_cache.c ****   entry->idle_timeout = idle_timeout;
 185:C:/Users/stapi/OneDrive/Desktop/GD32VW553/V1_MQTT_OK/GD32VW55X_Wifi_BLE_SDK/GD32VW55x_RELEASE_V1.0.2/MSDK/lwip/libcoap-4.3.4/src\coap_cache.c ****   if (idle_timeout > 0) {
 186:C:/Users/stapi/OneDrive/Desktop/GD32VW553/V1_MQTT_OK/GD32VW55X_Wifi_BLE_SDK/GD32VW55x_RELEASE_V1.0.2/MSDK/lwip/libcoap-4.3.4/src\coap_cache.c ****     coap_ticks(&entry->expire_ticks);
 187:C:/Users/stapi/OneDrive/Desktop/GD32VW553/V1_MQTT_OK/GD32VW55X_Wifi_BLE_SDK/GD32VW55x_RELEASE_V1.0.2/MSDK/lwip/libcoap-4.3.4/src\coap_cache.c ****     entry->expire_ticks += idle_timeout * COAP_TICKS_PER_SECOND;
 188:C:/Users/stapi/OneDrive/Desktop/GD32VW553/V1_MQTT_OK/GD32VW55X_Wifi_BLE_SDK/GD32VW55x_RELEASE_V1.0.2/MSDK/lwip/libcoap-4.3.4/src\coap_cache.c ****   }
 189:C:/Users/stapi/OneDrive/Desktop/GD32VW553/V1_MQTT_OK/GD32VW55X_Wifi_BLE_SDK/GD32VW55x_RELEASE_V1.0.2/MSDK/lwip/libcoap-4.3.4/src\coap_cache.c **** 
 190:C:/Users/stapi/OneDrive/Desktop/GD32VW553/V1_MQTT_OK/GD32VW55X_Wifi_BLE_SDK/GD32VW55x_RELEASE_V1.0.2/MSDK/lwip/libcoap-4.3.4/src\coap_cache.c ****   HASH_ADD(hh, session->context->cache, cache_key[0], sizeof(coap_cache_key_t), entry);
 191:C:/Users/stapi/OneDrive/Desktop/GD32VW553/V1_MQTT_OK/GD32VW55X_Wifi_BLE_SDK/GD32VW55x_RELEASE_V1.0.2/MSDK/lwip/libcoap-4.3.4/src\coap_cache.c ****   return entry;
 192:C:/Users/stapi/OneDrive/Desktop/GD32VW553/V1_MQTT_OK/GD32VW55X_Wifi_BLE_SDK/GD32VW55x_RELEASE_V1.0.2/MSDK/lwip/libcoap-4.3.4/src\coap_cache.c **** }
 522              		.loc 1 192 1
 523 0080 2285     		mv	a0,s0
 524 0082 4101     		addi	sp,sp,16
 525              		.cfi_remember_state
 526              		.cfi_def_cfa_offset 0
 527 0084 17030000 		tail	__riscv_restore_6
 527      67000300 
 528              		.cfi_restore 21
 529              		.cfi_restore 20
 530              		.cfi_restore 19
 531              		.cfi_restore 18
 532              		.cfi_restore 9
 533              		.cfi_restore 8
 534              		.cfi_restore 1
 535              		.cfi_def_cfa_offset -32
 536              	.LVL61:
 537              	.L65:
 538              		.cfi_restore_state
 173:C:/Users/stapi/OneDrive/Desktop/GD32VW553/V1_MQTT_OK/GD32VW55X_Wifi_BLE_SDK/GD32VW55x_RELEASE_V1.0.2/MSDK/lwip/libcoap-4.3.4/src\coap_cache.c ****       memcpy(entry->pdu->token, pdu->token, pdu->used_size);
 539              		.loc 1 173 7 is_stmt 1
 540 008c 1306C002 		li	a2,44
 541 0090 CA85     		mv	a1,s2
 542 0092 97000000 		call	memcpy
 542      E7800000 
 543              	.LVL62:
 174:C:/Users/stapi/OneDrive/Desktop/GD32VW553/V1_MQTT_OK/GD32VW55X_Wifi_BLE_SDK/GD32VW55x_RELEASE_V1.0.2/MSDK/lwip/libcoap-4.3.4/src\coap_cache.c ****       /* And adjust all the pointers etc. */
 544              		.loc 1 174 7
 174:C:/Users/stapi/OneDrive/Desktop/GD32VW553/V1_MQTT_OK/GD32VW55X_Wifi_BLE_SDK/GD32VW55x_RELEASE_V1.0.2/MSDK/lwip/libcoap-4.3.4/src\coap_cache.c ****       /* And adjust all the pointers etc. */
 545              		.loc 1 174 24 is_stmt 0
 546 009a 1C54     		lw	a5,40(s0)
 174:C:/Users/stapi/OneDrive/Desktop/GD32VW553/V1_MQTT_OK/GD32VW55X_Wifi_BLE_SDK/GD32VW55x_RELEASE_V1.0.2/MSDK/lwip/libcoap-4.3.4/src\coap_cache.c ****       /* And adjust all the pointers etc. */
 547              		.loc 1 174 7
 548 009c 03264902 		lw	a2,36(s2)
 549 00a0 8325C902 		lw	a1,44(s2)
 550 00a4 C857     		lw	a0,44(a5)
 551 00a6 97000000 		call	memcpy
 551      E7800000 
 552              	.LVL63:
 176:C:/Users/stapi/OneDrive/Desktop/GD32VW553/V1_MQTT_OK/GD32VW55X_Wifi_BLE_SDK/GD32VW55x_RELEASE_V1.0.2/MSDK/lwip/libcoap-4.3.4/src\coap_cache.c ****     }
 553              		.loc 1 176 7 is_stmt 1
 176:C:/Users/stapi/OneDrive/Desktop/GD32VW553/V1_MQTT_OK/GD32VW55X_Wifi_BLE_SDK/GD32VW55x_RELEASE_V1.0.2/MSDK/lwip/libcoap-4.3.4/src\coap_cache.c ****     }
 554              		.loc 1 176 57 is_stmt 0
 555 00ae 83270903 		lw	a5,48(s2)
 176:C:/Users/stapi/OneDrive/Desktop/GD32VW553/V1_MQTT_OK/GD32VW55X_Wifi_BLE_SDK/GD32VW55x_RELEASE_V1.0.2/MSDK/lwip/libcoap-4.3.4/src\coap_cache.c ****     }
 556              		.loc 1 176 31
 557 00b2 1454     		lw	a3,40(s0)
 176:C:/Users/stapi/OneDrive/Desktop/GD32VW553/V1_MQTT_OK/GD32VW55X_Wifi_BLE_SDK/GD32VW55x_RELEASE_V1.0.2/MSDK/lwip/libcoap-4.3.4/src\coap_cache.c ****     }
 558              		.loc 1 176 57
 559 00b4 0327C902 		lw	a4,44(s2)
 560 00b8 3387E740 		sub	a4,a5,a4
 176:C:/Users/stapi/OneDrive/Desktop/GD32VW553/V1_MQTT_OK/GD32VW55X_Wifi_BLE_SDK/GD32VW55x_RELEASE_V1.0.2/MSDK/lwip/libcoap-4.3.4/src\coap_cache.c ****     }
 561              		.loc 1 176 44
 562 00bc DC56     		lw	a5,44(a3)
 563 00be BA97     		add	a5,a5,a4
 176:C:/Users/stapi/OneDrive/Desktop/GD32VW553/V1_MQTT_OK/GD32VW55X_Wifi_BLE_SDK/GD32VW55x_RELEASE_V1.0.2/MSDK/lwip/libcoap-4.3.4/src\coap_cache.c ****     }
 564              		.loc 1 176 24
 565 00c0 9CDA     		sw	a5,48(a3)
 566              	.L63:
 179:C:/Users/stapi/OneDrive/Desktop/GD32VW553/V1_MQTT_OK/GD32VW55X_Wifi_BLE_SDK/GD32VW55x_RELEASE_V1.0.2/MSDK/lwip/libcoap-4.3.4/src\coap_cache.c ****   if (!entry->cache_key) {
 567              		.loc 1 179 3 is_stmt 1
 179:C:/Users/stapi/OneDrive/Desktop/GD32VW553/V1_MQTT_OK/GD32VW55X_Wifi_BLE_SDK/GD32VW55x_RELEASE_V1.0.2/MSDK/lwip/libcoap-4.3.4/src\coap_cache.c ****   if (!entry->cache_key) {
 568              		.loc 1 179 22 is_stmt 0
 569 00c2 5286     		mv	a2,s4
 570 00c4 CA85     		mv	a1,s2
 571 00c6 2685     		mv	a0,s1
 572 00c8 97000000 		call	coap_cache_derive_key
 572      E7800000 
 573              	.LVL64:
 179:C:/Users/stapi/OneDrive/Desktop/GD32VW553/V1_MQTT_OK/GD32VW55X_Wifi_BLE_SDK/GD32VW55x_RELEASE_V1.0.2/MSDK/lwip/libcoap-4.3.4/src\coap_cache.c ****   if (!entry->cache_key) {
 574              		.loc 1 179 20
 575 00d0 08D0     		sw	a0,32(s0)
 180:C:/Users/stapi/OneDrive/Desktop/GD32VW553/V1_MQTT_OK/GD32VW55X_Wifi_BLE_SDK/GD32VW55x_RELEASE_V1.0.2/MSDK/lwip/libcoap-4.3.4/src\coap_cache.c ****     coap_free_type(COAP_CACHE_ENTRY, entry);
 576              		.loc 1 180 3 is_stmt 1
 180:C:/Users/stapi/OneDrive/Desktop/GD32VW553/V1_MQTT_OK/GD32VW55X_Wifi_BLE_SDK/GD32VW55x_RELEASE_V1.0.2/MSDK/lwip/libcoap-4.3.4/src\coap_cache.c ****     coap_free_type(COAP_CACHE_ENTRY, entry);
 577              		.loc 1 180 6 is_stmt 0
 578 00d2 45D1     		beq	a0,zero,.L106
 184:C:/Users/stapi/OneDrive/Desktop/GD32VW553/V1_MQTT_OK/GD32VW55X_Wifi_BLE_SDK/GD32VW55x_RELEASE_V1.0.2/MSDK/lwip/libcoap-4.3.4/src\coap_cache.c ****   if (idle_timeout > 0) {
 579              		.loc 1 184 3 is_stmt 1
 184:C:/Users/stapi/OneDrive/Desktop/GD32VW553/V1_MQTT_OK/GD32VW55X_Wifi_BLE_SDK/GD32VW55x_RELEASE_V1.0.2/MSDK/lwip/libcoap-4.3.4/src\coap_cache.c ****   if (idle_timeout > 0) {
 580              		.loc 1 184 23 is_stmt 0
 581 00d4 232A3403 		sw	s3,52(s0)
 185:C:/Users/stapi/OneDrive/Desktop/GD32VW553/V1_MQTT_OK/GD32VW55X_Wifi_BLE_SDK/GD32VW55x_RELEASE_V1.0.2/MSDK/lwip/libcoap-4.3.4/src\coap_cache.c ****     coap_ticks(&entry->expire_ticks);
 582              		.loc 1 185 3 is_stmt 1
 185:C:/Users/stapi/OneDrive/Desktop/GD32VW553/V1_MQTT_OK/GD32VW55X_Wifi_BLE_SDK/GD32VW55x_RELEASE_V1.0.2/MSDK/lwip/libcoap-4.3.4/src\coap_cache.c ****     coap_ticks(&entry->expire_ticks);
 583              		.loc 1 185 6 is_stmt 0
 584 00d8 638B0900 		beq	s3,zero,.L67
 186:C:/Users/stapi/OneDrive/Desktop/GD32VW553/V1_MQTT_OK/GD32VW55X_Wifi_BLE_SDK/GD32VW55x_RELEASE_V1.0.2/MSDK/lwip/libcoap-4.3.4/src\coap_cache.c ****     entry->expire_ticks += idle_timeout * COAP_TICKS_PER_SECOND;
 585              		.loc 1 186 5 is_stmt 1
 586              	.LVL65:
 587              	.LBB19:
 588              	.LBB20:
 589              		.file 2 "..\\..\\..\\..\\lwip\\libcoap-4.3.4\\include/coap3/coap_time.h"
   1:..\..\..\..\lwip\libcoap-4.3.4\include/coap3/coap_time.h **** /*
   2:..\..\..\..\lwip\libcoap-4.3.4\include/coap3/coap_time.h ****  * coap_time.h -- Clock Handling
   3:..\..\..\..\lwip\libcoap-4.3.4\include/coap3/coap_time.h ****  *
   4:..\..\..\..\lwip\libcoap-4.3.4\include/coap3/coap_time.h ****  * Copyright (C) 2010-2023 Olaf Bergmann <bergmann@tzi.org>
   5:..\..\..\..\lwip\libcoap-4.3.4\include/coap3/coap_time.h ****  *
   6:..\..\..\..\lwip\libcoap-4.3.4\include/coap3/coap_time.h ****  * SPDX-License-Identifier: BSD-2-Clause
   7:..\..\..\..\lwip\libcoap-4.3.4\include/coap3/coap_time.h ****  *
   8:..\..\..\..\lwip\libcoap-4.3.4\include/coap3/coap_time.h ****  * This file is part of the CoAP library libcoap. Please see README for terms
   9:..\..\..\..\lwip\libcoap-4.3.4\include/coap3/coap_time.h ****  * of use.
  10:..\..\..\..\lwip\libcoap-4.3.4\include/coap3/coap_time.h ****  */
  11:..\..\..\..\lwip\libcoap-4.3.4\include/coap3/coap_time.h **** 
  12:..\..\..\..\lwip\libcoap-4.3.4\include/coap3/coap_time.h **** /**
  13:..\..\..\..\lwip\libcoap-4.3.4\include/coap3/coap_time.h ****  * @file coap_time.h
  14:..\..\..\..\lwip\libcoap-4.3.4\include/coap3/coap_time.h ****  * @brief Clock Handling
  15:..\..\..\..\lwip\libcoap-4.3.4\include/coap3/coap_time.h ****  */
  16:..\..\..\..\lwip\libcoap-4.3.4\include/coap3/coap_time.h **** 
  17:..\..\..\..\lwip\libcoap-4.3.4\include/coap3/coap_time.h **** #ifndef COAP_TIME_H_
  18:..\..\..\..\lwip\libcoap-4.3.4\include/coap3/coap_time.h **** #define COAP_TIME_H_
  19:..\..\..\..\lwip\libcoap-4.3.4\include/coap3/coap_time.h **** 
  20:..\..\..\..\lwip\libcoap-4.3.4\include/coap3/coap_time.h **** /**
  21:..\..\..\..\lwip\libcoap-4.3.4\include/coap3/coap_time.h ****  * @ingroup application_api
  22:..\..\..\..\lwip\libcoap-4.3.4\include/coap3/coap_time.h ****  * @defgroup clock Clock Handling
  23:..\..\..\..\lwip\libcoap-4.3.4\include/coap3/coap_time.h ****  * API for internal clock assess
  24:..\..\..\..\lwip\libcoap-4.3.4\include/coap3/coap_time.h ****  * @{
  25:..\..\..\..\lwip\libcoap-4.3.4\include/coap3/coap_time.h ****  */
  26:..\..\..\..\lwip\libcoap-4.3.4\include/coap3/coap_time.h **** 
  27:..\..\..\..\lwip\libcoap-4.3.4\include/coap3/coap_time.h **** #if defined(WITH_LWIP)
  28:..\..\..\..\lwip\libcoap-4.3.4\include/coap3/coap_time.h **** 
  29:..\..\..\..\lwip\libcoap-4.3.4\include/coap3/coap_time.h **** #include <stdint.h>
  30:..\..\..\..\lwip\libcoap-4.3.4\include/coap3/coap_time.h **** #include <lwip/sys.h>
  31:..\..\..\..\lwip\libcoap-4.3.4\include/coap3/coap_time.h **** 
  32:..\..\..\..\lwip\libcoap-4.3.4\include/coap3/coap_time.h **** /* lwIP provides ms in sys_now */
  33:..\..\..\..\lwip\libcoap-4.3.4\include/coap3/coap_time.h **** #define COAP_TICKS_PER_SECOND 1000
  34:..\..\..\..\lwip\libcoap-4.3.4\include/coap3/coap_time.h **** 
  35:..\..\..\..\lwip\libcoap-4.3.4\include/coap3/coap_time.h **** typedef uint32_t coap_tick_t;
  36:..\..\..\..\lwip\libcoap-4.3.4\include/coap3/coap_time.h **** typedef uint32_t coap_time_t;
  37:..\..\..\..\lwip\libcoap-4.3.4\include/coap3/coap_time.h **** typedef int32_t coap_tick_diff_t;
  38:..\..\..\..\lwip\libcoap-4.3.4\include/coap3/coap_time.h **** 
  39:..\..\..\..\lwip\libcoap-4.3.4\include/coap3/coap_time.h **** COAP_STATIC_INLINE void
  40:..\..\..\..\lwip\libcoap-4.3.4\include/coap3/coap_time.h **** coap_ticks_impl(coap_tick_t *t) {
  41:..\..\..\..\lwip\libcoap-4.3.4\include/coap3/coap_time.h ****   *t = sys_now();
 590              		.loc 2 41 3
 591              		.loc 2 41 8 is_stmt 0
 592 00dc 97000000 		call	sys_now
 592      E7800000 
 593              	.LVL66:
 594              	.LBE20:
 595              	.LBE19:
 187:C:/Users/stapi/OneDrive/Desktop/GD32VW553/V1_MQTT_OK/GD32VW55X_Wifi_BLE_SDK/GD32VW55x_RELEASE_V1.0.2/MSDK/lwip/libcoap-4.3.4/src\coap_cache.c ****   }
 596              		.loc 1 187 5 is_stmt 1
 187:C:/Users/stapi/OneDrive/Desktop/GD32VW553/V1_MQTT_OK/GD32VW55X_Wifi_BLE_SDK/GD32VW55x_RELEASE_V1.0.2/MSDK/lwip/libcoap-4.3.4/src\coap_cache.c ****   }
 597              		.loc 1 187 25 is_stmt 0
 598 00e4 9307803E 		li	a5,1000
 599 00e8 7F95F9C4 		maddr32	a0, s3, a5
 600 00ec 08D8     		sw	a0,48(s0)
 601              	.L67:
 190:C:/Users/stapi/OneDrive/Desktop/GD32VW553/V1_MQTT_OK/GD32VW55X_Wifi_BLE_SDK/GD32VW55x_RELEASE_V1.0.2/MSDK/lwip/libcoap-4.3.4/src\coap_cache.c ****   return entry;
 602              		.loc 1 190 3 is_stmt 1
 603              	.LBB21:
 190:C:/Users/stapi/OneDrive/Desktop/GD32VW553/V1_MQTT_OK/GD32VW55X_Wifi_BLE_SDK/GD32VW55x_RELEASE_V1.0.2/MSDK/lwip/libcoap-4.3.4/src\coap_cache.c ****   return entry;
 604              		.loc 1 190 3
 190:C:/Users/stapi/OneDrive/Desktop/GD32VW553/V1_MQTT_OK/GD32VW55X_Wifi_BLE_SDK/GD32VW55x_RELEASE_V1.0.2/MSDK/lwip/libcoap-4.3.4/src\coap_cache.c ****   return entry;
 605              		.loc 1 190 3
 190:C:/Users/stapi/OneDrive/Desktop/GD32VW553/V1_MQTT_OK/GD32VW55X_Wifi_BLE_SDK/GD32VW55x_RELEASE_V1.0.2/MSDK/lwip/libcoap-4.3.4/src\coap_cache.c ****   return entry;
 606              		.loc 1 190 3
 607              	.LBB22:
 190:C:/Users/stapi/OneDrive/Desktop/GD32VW553/V1_MQTT_OK/GD32VW55X_Wifi_BLE_SDK/GD32VW55x_RELEASE_V1.0.2/MSDK/lwip/libcoap-4.3.4/src\coap_cache.c ****   return entry;
 608              		.loc 1 190 3
 190:C:/Users/stapi/OneDrive/Desktop/GD32VW553/V1_MQTT_OK/GD32VW55X_Wifi_BLE_SDK/GD32VW55x_RELEASE_V1.0.2/MSDK/lwip/libcoap-4.3.4/src\coap_cache.c ****   return entry;
 609              		.loc 1 190 3
 610 00ee 1050     		lw	a2,32(s0)
 611              	.LVL67:
 190:C:/Users/stapi/OneDrive/Desktop/GD32VW553/V1_MQTT_OK/GD32VW55X_Wifi_BLE_SDK/GD32VW55x_RELEASE_V1.0.2/MSDK/lwip/libcoap-4.3.4/src\coap_cache.c ****   return entry;
 612              		.loc 1 190 3
 190:C:/Users/stapi/OneDrive/Desktop/GD32VW553/V1_MQTT_OK/GD32VW55X_Wifi_BLE_SDK/GD32VW55x_RELEASE_V1.0.2/MSDK/lwip/libcoap-4.3.4/src\coap_cache.c ****   return entry;
 613              		.loc 1 190 3
 190:C:/Users/stapi/OneDrive/Desktop/GD32VW553/V1_MQTT_OK/GD32VW55X_Wifi_BLE_SDK/GD32VW55x_RELEASE_V1.0.2/MSDK/lwip/libcoap-4.3.4/src\coap_cache.c ****   return entry;
 614              		.loc 1 190 3
 190:C:/Users/stapi/OneDrive/Desktop/GD32VW553/V1_MQTT_OK/GD32VW55X_Wifi_BLE_SDK/GD32VW55x_RELEASE_V1.0.2/MSDK/lwip/libcoap-4.3.4/src\coap_cache.c ****   return entry;
 615              		.loc 1 190 3
 190:C:/Users/stapi/OneDrive/Desktop/GD32VW553/V1_MQTT_OK/GD32VW55X_Wifi_BLE_SDK/GD32VW55x_RELEASE_V1.0.2/MSDK/lwip/libcoap-4.3.4/src\coap_cache.c ****   return entry;
 616              		.loc 1 190 3
 617 00f0 3787379E 		li	a4,-1640529920
 618 00f4 9306979B 		addi	a3,a4,-1607
 619 00f8 B7C7EDFE 		li	a5,-17973248
 620 00fc 13088601 		addi	a6,a2,24
 621 0100 B285     		mv	a1,a2
 622 0102 3685     		mv	a0,a3
 623 0104 9388F7EE 		addi	a7,a5,-273
 624              	.LVL68:
 625              	.L68:
 190:C:/Users/stapi/OneDrive/Desktop/GD32VW553/V1_MQTT_OK/GD32VW55X_Wifi_BLE_SDK/GD32VW55x_RELEASE_V1.0.2/MSDK/lwip/libcoap-4.3.4/src\coap_cache.c ****   return entry;
 626              		.loc 1 190 3 discriminator 3
 190:C:/Users/stapi/OneDrive/Desktop/GD32VW553/V1_MQTT_OK/GD32VW55X_Wifi_BLE_SDK/GD32VW55x_RELEASE_V1.0.2/MSDK/lwip/libcoap-4.3.4/src\coap_cache.c ****   return entry;
 627              		.loc 1 190 3 discriminator 3
 628 0108 03C75500 		lbu	a4,5(a1)
 629 010c 83C76500 		lbu	a5,6(a1)
 630 0110 B105     		addi	a1,a1,12
 631              	.LVL69:
 632 0112 2207     		slli	a4,a4,8
 633 0114 C207     		slli	a5,a5,16
 634 0116 3E97     		add	a4,a4,a5
 635 0118 83C785FF 		lbu	a5,-8(a1)
 636 011c 3E97     		add	a4,a4,a5
 637 011e 83C7B5FF 		lbu	a5,-5(a1)
 638 0122 E207     		slli	a5,a5,24
 639 0124 3E97     		add	a4,a4,a5
 640 0126 3697     		add	a4,a4,a3
 641              	.LVL70:
 190:C:/Users/stapi/OneDrive/Desktop/GD32VW553/V1_MQTT_OK/GD32VW55X_Wifi_BLE_SDK/GD32VW55x_RELEASE_V1.0.2/MSDK/lwip/libcoap-4.3.4/src\coap_cache.c ****   return entry;
 642              		.loc 1 190 3 discriminator 3
 643 0128 83C7D5FF 		lbu	a5,-3(a1)
 644 012c 83C6E5FF 		lbu	a3,-2(a1)
 645 0130 A207     		slli	a5,a5,8
 646 0132 C206     		slli	a3,a3,16
 647 0134 B697     		add	a5,a5,a3
 648 0136 83C6C5FF 		lbu	a3,-4(a1)
 649 013a B697     		add	a5,a5,a3
 650 013c 83C6F5FF 		lbu	a3,-1(a1)
 651 0140 E206     		slli	a3,a3,24
 652 0142 B697     		add	a5,a5,a3
 653 0144 C697     		add	a5,a5,a7
 654              	.LVL71:
 190:C:/Users/stapi/OneDrive/Desktop/GD32VW553/V1_MQTT_OK/GD32VW55X_Wifi_BLE_SDK/GD32VW55x_RELEASE_V1.0.2/MSDK/lwip/libcoap-4.3.4/src\coap_cache.c ****   return entry;
 655              		.loc 1 190 3 discriminator 3
 190:C:/Users/stapi/OneDrive/Desktop/GD32VW553/V1_MQTT_OK/GD32VW55X_Wifi_BLE_SDK/GD32VW55x_RELEASE_V1.0.2/MSDK/lwip/libcoap-4.3.4/src\coap_cache.c ****   return entry;
 656              		.loc 1 190 3 discriminator 3
 190:C:/Users/stapi/OneDrive/Desktop/GD32VW553/V1_MQTT_OK/GD32VW55X_Wifi_BLE_SDK/GD32VW55x_RELEASE_V1.0.2/MSDK/lwip/libcoap-4.3.4/src\coap_cache.c ****   return entry;
 657              		.loc 1 190 3 discriminator 3
 658 0146 83C655FF 		lbu	a3,-11(a1)
 659 014a 83C865FF 		lbu	a7,-10(a1)
 660 014e A206     		slli	a3,a3,8
 661 0150 C208     		slli	a7,a7,16
 662 0152 C696     		add	a3,a3,a7
 663 0154 83C845FF 		lbu	a7,-12(a1)
 664 0158 C696     		add	a3,a3,a7
 665 015a 83C875FF 		lbu	a7,-9(a1)
 666 015e E208     		slli	a7,a7,24
 667 0160 C696     		add	a3,a3,a7
 668 0162 998E     		sub	a3,a3,a4
 669 0164 9D8E     		sub	a3,a3,a5
 670 0166 AA96     		add	a3,a3,a0
 671              	.LVL72:
 190:C:/Users/stapi/OneDrive/Desktop/GD32VW553/V1_MQTT_OK/GD32VW55X_Wifi_BLE_SDK/GD32VW55x_RELEASE_V1.0.2/MSDK/lwip/libcoap-4.3.4/src\coap_cache.c ****   return entry;
 672              		.loc 1 190 3 discriminator 3
 673 0168 13D5D700 		srli	a0,a5,13
 674 016c A98E     		xor	a3,a0,a3
 675              	.LVL73:
 190:C:/Users/stapi/OneDrive/Desktop/GD32VW553/V1_MQTT_OK/GD32VW55X_Wifi_BLE_SDK/GD32VW55x_RELEASE_V1.0.2/MSDK/lwip/libcoap-4.3.4/src\coap_cache.c ****   return entry;
 676              		.loc 1 190 3 discriminator 3
 677 016e 1D8F     		sub	a4,a4,a5
 678              	.LVL74:
 190:C:/Users/stapi/OneDrive/Desktop/GD32VW553/V1_MQTT_OK/GD32VW55X_Wifi_BLE_SDK/GD32VW55x_RELEASE_V1.0.2/MSDK/lwip/libcoap-4.3.4/src\coap_cache.c ****   return entry;
 679              		.loc 1 190 3 discriminator 3
 680 0170 3305D740 		sub	a0,a4,a3
 681              	.LVL75:
 190:C:/Users/stapi/OneDrive/Desktop/GD32VW553/V1_MQTT_OK/GD32VW55X_Wifi_BLE_SDK/GD32VW55x_RELEASE_V1.0.2/MSDK/lwip/libcoap-4.3.4/src\coap_cache.c ****   return entry;
 682              		.loc 1 190 3 discriminator 3
 683 0174 13978600 		slli	a4,a3,8
 684 0178 298F     		xor	a4,a4,a0
 685              	.LVL76:
 190:C:/Users/stapi/OneDrive/Desktop/GD32VW553/V1_MQTT_OK/GD32VW55X_Wifi_BLE_SDK/GD32VW55x_RELEASE_V1.0.2/MSDK/lwip/libcoap-4.3.4/src\coap_cache.c ****   return entry;
 686              		.loc 1 190 3 discriminator 3
 687 017a 958F     		sub	a5,a5,a3
 688              	.LVL77:
 190:C:/Users/stapi/OneDrive/Desktop/GD32VW553/V1_MQTT_OK/GD32VW55X_Wifi_BLE_SDK/GD32VW55x_RELEASE_V1.0.2/MSDK/lwip/libcoap-4.3.4/src\coap_cache.c ****   return entry;
 689              		.loc 1 190 3 discriminator 3
 690 017c 1355D700 		srli	a0,a4,13
 691 0180 998F     		sub	a5,a5,a4
 692              	.LVL78:
 190:C:/Users/stapi/OneDrive/Desktop/GD32VW553/V1_MQTT_OK/GD32VW55X_Wifi_BLE_SDK/GD32VW55x_RELEASE_V1.0.2/MSDK/lwip/libcoap-4.3.4/src\coap_cache.c ****   return entry;
 693              		.loc 1 190 3 discriminator 3
 694 0182 A98F     		xor	a5,a0,a5
 695              	.LVL79:
 190:C:/Users/stapi/OneDrive/Desktop/GD32VW553/V1_MQTT_OK/GD32VW55X_Wifi_BLE_SDK/GD32VW55x_RELEASE_V1.0.2/MSDK/lwip/libcoap-4.3.4/src\coap_cache.c ****   return entry;
 696              		.loc 1 190 3 discriminator 3
 697 0184 998E     		sub	a3,a3,a4
 698              	.LVL80:
 190:C:/Users/stapi/OneDrive/Desktop/GD32VW553/V1_MQTT_OK/GD32VW55X_Wifi_BLE_SDK/GD32VW55x_RELEASE_V1.0.2/MSDK/lwip/libcoap-4.3.4/src\coap_cache.c ****   return entry;
 699              		.loc 1 190 3 discriminator 3
 700 0186 3385F640 		sub	a0,a3,a5
 701              	.LVL81:
 190:C:/Users/stapi/OneDrive/Desktop/GD32VW553/V1_MQTT_OK/GD32VW55X_Wifi_BLE_SDK/GD32VW55x_RELEASE_V1.0.2/MSDK/lwip/libcoap-4.3.4/src\coap_cache.c ****   return entry;
 702              		.loc 1 190 3 discriminator 3
 703 018a 93D6C700 		srli	a3,a5,12
 704 018e A98E     		xor	a3,a3,a0
 705              	.LVL82:
 190:C:/Users/stapi/OneDrive/Desktop/GD32VW553/V1_MQTT_OK/GD32VW55X_Wifi_BLE_SDK/GD32VW55x_RELEASE_V1.0.2/MSDK/lwip/libcoap-4.3.4/src\coap_cache.c ****   return entry;
 706              		.loc 1 190 3 discriminator 3
 707 0190 1D8F     		sub	a4,a4,a5
 708              	.LVL83:
 190:C:/Users/stapi/OneDrive/Desktop/GD32VW553/V1_MQTT_OK/GD32VW55X_Wifi_BLE_SDK/GD32VW55x_RELEASE_V1.0.2/MSDK/lwip/libcoap-4.3.4/src\coap_cache.c ****   return entry;
 709              		.loc 1 190 3 discriminator 3
 710 0192 3305D740 		sub	a0,a4,a3
 711              	.LVL84:
 190:C:/Users/stapi/OneDrive/Desktop/GD32VW553/V1_MQTT_OK/GD32VW55X_Wifi_BLE_SDK/GD32VW55x_RELEASE_V1.0.2/MSDK/lwip/libcoap-4.3.4/src\coap_cache.c ****   return entry;
 712              		.loc 1 190 3 discriminator 3
 713 0196 13970601 		slli	a4,a3,16
 714 019a 298F     		xor	a4,a4,a0
 715              	.LVL85:
 190:C:/Users/stapi/OneDrive/Desktop/GD32VW553/V1_MQTT_OK/GD32VW55X_Wifi_BLE_SDK/GD32VW55x_RELEASE_V1.0.2/MSDK/lwip/libcoap-4.3.4/src\coap_cache.c ****   return entry;
 716              		.loc 1 190 3 discriminator 3
 717 019c 958F     		sub	a5,a5,a3
 718              	.LVL86:
 190:C:/Users/stapi/OneDrive/Desktop/GD32VW553/V1_MQTT_OK/GD32VW55X_Wifi_BLE_SDK/GD32VW55x_RELEASE_V1.0.2/MSDK/lwip/libcoap-4.3.4/src\coap_cache.c ****   return entry;
 719              		.loc 1 190 3 discriminator 3
 720 019e 3385E740 		sub	a0,a5,a4
 721              	.LVL87:
 190:C:/Users/stapi/OneDrive/Desktop/GD32VW553/V1_MQTT_OK/GD32VW55X_Wifi_BLE_SDK/GD32VW55x_RELEASE_V1.0.2/MSDK/lwip/libcoap-4.3.4/src\coap_cache.c ****   return entry;
 722              		.loc 1 190 3 discriminator 3
 723 01a2 93575700 		srli	a5,a4,5
 724 01a6 A98F     		xor	a5,a5,a0
 725              	.LVL88:
 190:C:/Users/stapi/OneDrive/Desktop/GD32VW553/V1_MQTT_OK/GD32VW55X_Wifi_BLE_SDK/GD32VW55x_RELEASE_V1.0.2/MSDK/lwip/libcoap-4.3.4/src\coap_cache.c ****   return entry;
 726              		.loc 1 190 3 discriminator 3
 727 01a8 998E     		sub	a3,a3,a4
 728              	.LVL89:
 190:C:/Users/stapi/OneDrive/Desktop/GD32VW553/V1_MQTT_OK/GD32VW55X_Wifi_BLE_SDK/GD32VW55x_RELEASE_V1.0.2/MSDK/lwip/libcoap-4.3.4/src\coap_cache.c ****   return entry;
 729              		.loc 1 190 3 discriminator 3
 730 01aa 9D8E     		sub	a3,a3,a5
 731              	.LVL90:
 190:C:/Users/stapi/OneDrive/Desktop/GD32VW553/V1_MQTT_OK/GD32VW55X_Wifi_BLE_SDK/GD32VW55x_RELEASE_V1.0.2/MSDK/lwip/libcoap-4.3.4/src\coap_cache.c ****   return entry;
 732              		.loc 1 190 3 discriminator 3
 733 01ac 13D53700 		srli	a0,a5,3
 734 01b0 358D     		xor	a0,a0,a3
 735              	.LVL91:
 190:C:/Users/stapi/OneDrive/Desktop/GD32VW553/V1_MQTT_OK/GD32VW55X_Wifi_BLE_SDK/GD32VW55x_RELEASE_V1.0.2/MSDK/lwip/libcoap-4.3.4/src\coap_cache.c ****   return entry;
 736              		.loc 1 190 3 discriminator 3
 737 01b2 1D8F     		sub	a4,a4,a5
 738              	.LVL92:
 190:C:/Users/stapi/OneDrive/Desktop/GD32VW553/V1_MQTT_OK/GD32VW55X_Wifi_BLE_SDK/GD32VW55x_RELEASE_V1.0.2/MSDK/lwip/libcoap-4.3.4/src\coap_cache.c ****   return entry;
 739              		.loc 1 190 3 discriminator 3
 740 01b4 098F     		sub	a4,a4,a0
 741              	.LVL93:
 190:C:/Users/stapi/OneDrive/Desktop/GD32VW553/V1_MQTT_OK/GD32VW55X_Wifi_BLE_SDK/GD32VW55x_RELEASE_V1.0.2/MSDK/lwip/libcoap-4.3.4/src\coap_cache.c ****   return entry;
 742              		.loc 1 190 3 discriminator 3
 743 01b6 9316A500 		slli	a3,a0,10
 744 01ba B98E     		xor	a3,a3,a4
 745              	.LVL94:
 190:C:/Users/stapi/OneDrive/Desktop/GD32VW553/V1_MQTT_OK/GD32VW55X_Wifi_BLE_SDK/GD32VW55x_RELEASE_V1.0.2/MSDK/lwip/libcoap-4.3.4/src\coap_cache.c ****   return entry;
 746              		.loc 1 190 3 discriminator 3
 747 01bc 898F     		sub	a5,a5,a0
 748              	.LVL95:
 190:C:/Users/stapi/OneDrive/Desktop/GD32VW553/V1_MQTT_OK/GD32VW55X_Wifi_BLE_SDK/GD32VW55x_RELEASE_V1.0.2/MSDK/lwip/libcoap-4.3.4/src\coap_cache.c ****   return entry;
 749              		.loc 1 190 3 discriminator 3
 750 01be 958F     		sub	a5,a5,a3
 751              	.LVL96:
 190:C:/Users/stapi/OneDrive/Desktop/GD32VW553/V1_MQTT_OK/GD32VW55X_Wifi_BLE_SDK/GD32VW55x_RELEASE_V1.0.2/MSDK/lwip/libcoap-4.3.4/src\coap_cache.c ****   return entry;
 752              		.loc 1 190 3 discriminator 3
 753 01c0 93D8F600 		srli	a7,a3,15
 754 01c4 B3C8F800 		xor	a7,a7,a5
 755              	.LVL97:
 190:C:/Users/stapi/OneDrive/Desktop/GD32VW553/V1_MQTT_OK/GD32VW55X_Wifi_BLE_SDK/GD32VW55x_RELEASE_V1.0.2/MSDK/lwip/libcoap-4.3.4/src\coap_cache.c ****   return entry;
 756              		.loc 1 190 3 discriminator 3
 190:C:/Users/stapi/OneDrive/Desktop/GD32VW553/V1_MQTT_OK/GD32VW55X_Wifi_BLE_SDK/GD32VW55x_RELEASE_V1.0.2/MSDK/lwip/libcoap-4.3.4/src\coap_cache.c ****   return entry;
 757              		.loc 1 190 3 discriminator 3
 190:C:/Users/stapi/OneDrive/Desktop/GD32VW553/V1_MQTT_OK/GD32VW55X_Wifi_BLE_SDK/GD32VW55x_RELEASE_V1.0.2/MSDK/lwip/libcoap-4.3.4/src\coap_cache.c ****   return entry;
 758              		.loc 1 190 3 discriminator 3
 190:C:/Users/stapi/OneDrive/Desktop/GD32VW553/V1_MQTT_OK/GD32VW55X_Wifi_BLE_SDK/GD32VW55x_RELEASE_V1.0.2/MSDK/lwip/libcoap-4.3.4/src\coap_cache.c ****   return entry;
 759              		.loc 1 190 3 discriminator 3
 760 01c8 E310B8F4 		bne	a6,a1,.L68
 190:C:/Users/stapi/OneDrive/Desktop/GD32VW553/V1_MQTT_OK/GD32VW55X_Wifi_BLE_SDK/GD32VW55x_RELEASE_V1.0.2/MSDK/lwip/libcoap-4.3.4/src\coap_cache.c ****   return entry;
 761              		.loc 1 190 3 discriminator 4
 762 01cc 0347F601 		lbu	a4,31(a2)
 763 01d0 8345E601 		lbu	a1,30(a2)
 764              	.LVL98:
 765 01d4 93870802 		addi	a5,a7,32
 766              	.LVL99:
 190:C:/Users/stapi/OneDrive/Desktop/GD32VW553/V1_MQTT_OK/GD32VW55X_Wifi_BLE_SDK/GD32VW55x_RELEASE_V1.0.2/MSDK/lwip/libcoap-4.3.4/src\coap_cache.c ****   return entry;
 767              		.loc 1 190 3 discriminator 4
 190:C:/Users/stapi/OneDrive/Desktop/GD32VW553/V1_MQTT_OK/GD32VW55X_Wifi_BLE_SDK/GD32VW55x_RELEASE_V1.0.2/MSDK/lwip/libcoap-4.3.4/src\coap_cache.c ****   return entry;
 768              		.loc 1 190 3 discriminator 4
 190:C:/Users/stapi/OneDrive/Desktop/GD32VW553/V1_MQTT_OK/GD32VW55X_Wifi_BLE_SDK/GD32VW55x_RELEASE_V1.0.2/MSDK/lwip/libcoap-4.3.4/src\coap_cache.c ****   return entry;
 769              		.loc 1 190 3 discriminator 4
 190:C:/Users/stapi/OneDrive/Desktop/GD32VW553/V1_MQTT_OK/GD32VW55X_Wifi_BLE_SDK/GD32VW55x_RELEASE_V1.0.2/MSDK/lwip/libcoap-4.3.4/src\coap_cache.c ****   return entry;
 770              		.loc 1 190 3 discriminator 4
 190:C:/Users/stapi/OneDrive/Desktop/GD32VW553/V1_MQTT_OK/GD32VW55X_Wifi_BLE_SDK/GD32VW55x_RELEASE_V1.0.2/MSDK/lwip/libcoap-4.3.4/src\coap_cache.c ****   return entry;
 771              		.loc 1 190 3 discriminator 4
 772 01d8 6207     		slli	a4,a4,24
 773 01da C205     		slli	a1,a1,16
 774              	.LVL100:
 775 01dc 2E97     		add	a4,a4,a1
 776 01de 8345C601 		lbu	a1,28(a2)
 777              	.LVL101:
 778              	.LBE22:
 779 01e2 83A9C40A 		lw	s3,172(s1)
 780              	.LVL102:
 781 01e6 130A0002 		li	s4,32
 782              	.LVL103:
 783              	.LBB23:
 784 01ea 2E97     		add	a4,a4,a1
 785 01ec 8345D601 		lbu	a1,29(a2)
 786 01f0 A205     		slli	a1,a1,8
 787 01f2 2E97     		add	a4,a4,a1
 788 01f4 3697     		add	a4,a4,a3
 789              	.LVL104:
 190:C:/Users/stapi/OneDrive/Desktop/GD32VW553/V1_MQTT_OK/GD32VW55X_Wifi_BLE_SDK/GD32VW55x_RELEASE_V1.0.2/MSDK/lwip/libcoap-4.3.4/src\coap_cache.c ****   return entry;
 790              		.loc 1 190 3 discriminator 4
 190:C:/Users/stapi/OneDrive/Desktop/GD32VW553/V1_MQTT_OK/GD32VW55X_Wifi_BLE_SDK/GD32VW55x_RELEASE_V1.0.2/MSDK/lwip/libcoap-4.3.4/src\coap_cache.c ****   return entry;
 791              		.loc 1 190 3 discriminator 4
 190:C:/Users/stapi/OneDrive/Desktop/GD32VW553/V1_MQTT_OK/GD32VW55X_Wifi_BLE_SDK/GD32VW55x_RELEASE_V1.0.2/MSDK/lwip/libcoap-4.3.4/src\coap_cache.c ****   return entry;
 792              		.loc 1 190 3 discriminator 4
 190:C:/Users/stapi/OneDrive/Desktop/GD32VW553/V1_MQTT_OK/GD32VW55X_Wifi_BLE_SDK/GD32VW55x_RELEASE_V1.0.2/MSDK/lwip/libcoap-4.3.4/src\coap_cache.c ****   return entry;
 793              		.loc 1 190 3 discriminator 4
 190:C:/Users/stapi/OneDrive/Desktop/GD32VW553/V1_MQTT_OK/GD32VW55X_Wifi_BLE_SDK/GD32VW55x_RELEASE_V1.0.2/MSDK/lwip/libcoap-4.3.4/src\coap_cache.c ****   return entry;
 794              		.loc 1 190 3 discriminator 4
 190:C:/Users/stapi/OneDrive/Desktop/GD32VW553/V1_MQTT_OK/GD32VW55X_Wifi_BLE_SDK/GD32VW55x_RELEASE_V1.0.2/MSDK/lwip/libcoap-4.3.4/src\coap_cache.c ****   return entry;
 795              		.loc 1 190 3 discriminator 4
 190:C:/Users/stapi/OneDrive/Desktop/GD32VW553/V1_MQTT_OK/GD32VW55X_Wifi_BLE_SDK/GD32VW55x_RELEASE_V1.0.2/MSDK/lwip/libcoap-4.3.4/src\coap_cache.c ****   return entry;
 796              		.loc 1 190 3 discriminator 4
 190:C:/Users/stapi/OneDrive/Desktop/GD32VW553/V1_MQTT_OK/GD32VW55X_Wifi_BLE_SDK/GD32VW55x_RELEASE_V1.0.2/MSDK/lwip/libcoap-4.3.4/src\coap_cache.c ****   return entry;
 797              		.loc 1 190 3 discriminator 4
 798 01f6 8345A601 		lbu	a1,26(a2)
 799 01fa 8346B601 		lbu	a3,27(a2)
 800 01fe C205     		slli	a1,a1,16
 801              	.LVL105:
 802 0200 E206     		slli	a3,a3,24
 803 0202 AE96     		add	a3,a3,a1
 804 0204 83458601 		lbu	a1,24(a2)
 805              	.LVL106:
 806 0208 AE96     		add	a3,a3,a1
 807 020a 83459601 		lbu	a1,25(a2)
 808              	.LVL107:
 809              	.LBE23:
 810 020e 50C8     		sw	a2,20(s0)
 811              	.LVL108:
 812 0210 232C4401 		sw	s4,24(s0)
 813              	.LBB24:
 814 0214 A205     		slli	a1,a1,8
 815 0216 AE96     		add	a3,a3,a1
 816 0218 AA96     		add	a3,a3,a0
 817 021a 9D8E     		sub	a3,a3,a5
 818 021c 93D5D700 		srli	a1,a5,13
 819 0220 998E     		sub	a3,a3,a4
 820              	.LVL109:
 190:C:/Users/stapi/OneDrive/Desktop/GD32VW553/V1_MQTT_OK/GD32VW55X_Wifi_BLE_SDK/GD32VW55x_RELEASE_V1.0.2/MSDK/lwip/libcoap-4.3.4/src\coap_cache.c ****   return entry;
 821              		.loc 1 190 3 discriminator 4
 822 0222 AD8E     		xor	a3,a1,a3
 823              	.LVL110:
 190:C:/Users/stapi/OneDrive/Desktop/GD32VW553/V1_MQTT_OK/GD32VW55X_Wifi_BLE_SDK/GD32VW55x_RELEASE_V1.0.2/MSDK/lwip/libcoap-4.3.4/src\coap_cache.c ****   return entry;
 824              		.loc 1 190 3 discriminator 4
 825 0224 1D8F     		sub	a4,a4,a5
 826              	.LVL111:
 190:C:/Users/stapi/OneDrive/Desktop/GD32VW553/V1_MQTT_OK/GD32VW55X_Wifi_BLE_SDK/GD32VW55x_RELEASE_V1.0.2/MSDK/lwip/libcoap-4.3.4/src\coap_cache.c ****   return entry;
 827              		.loc 1 190 3 discriminator 4
 828 0226 93958600 		slli	a1,a3,8
 829 022a 158F     		sub	a4,a4,a3
 830              	.LVL112:
 190:C:/Users/stapi/OneDrive/Desktop/GD32VW553/V1_MQTT_OK/GD32VW55X_Wifi_BLE_SDK/GD32VW55x_RELEASE_V1.0.2/MSDK/lwip/libcoap-4.3.4/src\coap_cache.c ****   return entry;
 831              		.loc 1 190 3 discriminator 4
 832 022c 2D8F     		xor	a4,a1,a4
 833              	.LVL113:
 190:C:/Users/stapi/OneDrive/Desktop/GD32VW553/V1_MQTT_OK/GD32VW55X_Wifi_BLE_SDK/GD32VW55x_RELEASE_V1.0.2/MSDK/lwip/libcoap-4.3.4/src\coap_cache.c ****   return entry;
 834              		.loc 1 190 3 discriminator 4
 835 022e 958F     		sub	a5,a5,a3
 836              	.LVL114:
 190:C:/Users/stapi/OneDrive/Desktop/GD32VW553/V1_MQTT_OK/GD32VW55X_Wifi_BLE_SDK/GD32VW55x_RELEASE_V1.0.2/MSDK/lwip/libcoap-4.3.4/src\coap_cache.c ****   return entry;
 837              		.loc 1 190 3 discriminator 4
 838 0230 B385E740 		sub	a1,a5,a4
 839              	.LVL115:
 190:C:/Users/stapi/OneDrive/Desktop/GD32VW553/V1_MQTT_OK/GD32VW55X_Wifi_BLE_SDK/GD32VW55x_RELEASE_V1.0.2/MSDK/lwip/libcoap-4.3.4/src\coap_cache.c ****   return entry;
 840              		.loc 1 190 3 discriminator 4
 841 0234 9357D700 		srli	a5,a4,13
 842 0238 AD8F     		xor	a5,a5,a1
 843              	.LVL116:
 190:C:/Users/stapi/OneDrive/Desktop/GD32VW553/V1_MQTT_OK/GD32VW55X_Wifi_BLE_SDK/GD32VW55x_RELEASE_V1.0.2/MSDK/lwip/libcoap-4.3.4/src\coap_cache.c ****   return entry;
 844              		.loc 1 190 3 discriminator 4
 845 023a 998E     		sub	a3,a3,a4
 846              	.LVL117:
 190:C:/Users/stapi/OneDrive/Desktop/GD32VW553/V1_MQTT_OK/GD32VW55X_Wifi_BLE_SDK/GD32VW55x_RELEASE_V1.0.2/MSDK/lwip/libcoap-4.3.4/src\coap_cache.c ****   return entry;
 847              		.loc 1 190 3 discriminator 4
 848 023c B385F640 		sub	a1,a3,a5
 849              	.LVL118:
 190:C:/Users/stapi/OneDrive/Desktop/GD32VW553/V1_MQTT_OK/GD32VW55X_Wifi_BLE_SDK/GD32VW55x_RELEASE_V1.0.2/MSDK/lwip/libcoap-4.3.4/src\coap_cache.c ****   return entry;
 850              		.loc 1 190 3 discriminator 4
 851 0240 93D6C700 		srli	a3,a5,12
 852 0244 AD8E     		xor	a3,a3,a1
 853              	.LVL119:
 190:C:/Users/stapi/OneDrive/Desktop/GD32VW553/V1_MQTT_OK/GD32VW55X_Wifi_BLE_SDK/GD32VW55x_RELEASE_V1.0.2/MSDK/lwip/libcoap-4.3.4/src\coap_cache.c ****   return entry;
 854              		.loc 1 190 3 discriminator 4
 855 0246 1D8F     		sub	a4,a4,a5
 856              	.LVL120:
 190:C:/Users/stapi/OneDrive/Desktop/GD32VW553/V1_MQTT_OK/GD32VW55X_Wifi_BLE_SDK/GD32VW55x_RELEASE_V1.0.2/MSDK/lwip/libcoap-4.3.4/src\coap_cache.c ****   return entry;
 857              		.loc 1 190 3 discriminator 4
 858 0248 B305D740 		sub	a1,a4,a3
 859              	.LVL121:
 190:C:/Users/stapi/OneDrive/Desktop/GD32VW553/V1_MQTT_OK/GD32VW55X_Wifi_BLE_SDK/GD32VW55x_RELEASE_V1.0.2/MSDK/lwip/libcoap-4.3.4/src\coap_cache.c ****   return entry;
 860              		.loc 1 190 3 discriminator 4
 861 024c 13970601 		slli	a4,a3,16
 862 0250 2D8F     		xor	a4,a4,a1
 863              	.LVL122:
 190:C:/Users/stapi/OneDrive/Desktop/GD32VW553/V1_MQTT_OK/GD32VW55X_Wifi_BLE_SDK/GD32VW55x_RELEASE_V1.0.2/MSDK/lwip/libcoap-4.3.4/src\coap_cache.c ****   return entry;
 864              		.loc 1 190 3 discriminator 4
 865 0252 958F     		sub	a5,a5,a3
 866              	.LVL123:
 190:C:/Users/stapi/OneDrive/Desktop/GD32VW553/V1_MQTT_OK/GD32VW55X_Wifi_BLE_SDK/GD32VW55x_RELEASE_V1.0.2/MSDK/lwip/libcoap-4.3.4/src\coap_cache.c ****   return entry;
 867              		.loc 1 190 3 discriminator 4
 868 0254 B385E740 		sub	a1,a5,a4
 869              	.LVL124:
 190:C:/Users/stapi/OneDrive/Desktop/GD32VW553/V1_MQTT_OK/GD32VW55X_Wifi_BLE_SDK/GD32VW55x_RELEASE_V1.0.2/MSDK/lwip/libcoap-4.3.4/src\coap_cache.c ****   return entry;
 870              		.loc 1 190 3 discriminator 4
 871 0258 93575700 		srli	a5,a4,5
 872 025c AD8F     		xor	a5,a5,a1
 873              	.LVL125:
 190:C:/Users/stapi/OneDrive/Desktop/GD32VW553/V1_MQTT_OK/GD32VW55X_Wifi_BLE_SDK/GD32VW55x_RELEASE_V1.0.2/MSDK/lwip/libcoap-4.3.4/src\coap_cache.c ****   return entry;
 874              		.loc 1 190 3 discriminator 4
 875 025e 998E     		sub	a3,a3,a4
 876              	.LVL126:
 190:C:/Users/stapi/OneDrive/Desktop/GD32VW553/V1_MQTT_OK/GD32VW55X_Wifi_BLE_SDK/GD32VW55x_RELEASE_V1.0.2/MSDK/lwip/libcoap-4.3.4/src\coap_cache.c ****   return entry;
 877              		.loc 1 190 3 discriminator 4
 878 0260 93D53700 		srli	a1,a5,3
 879 0264 9D8E     		sub	a3,a3,a5
 880              	.LVL127:
 190:C:/Users/stapi/OneDrive/Desktop/GD32VW553/V1_MQTT_OK/GD32VW55X_Wifi_BLE_SDK/GD32VW55x_RELEASE_V1.0.2/MSDK/lwip/libcoap-4.3.4/src\coap_cache.c ****   return entry;
 881              		.loc 1 190 3 discriminator 4
 882 0266 AD8E     		xor	a3,a1,a3
 883              	.LVL128:
 190:C:/Users/stapi/OneDrive/Desktop/GD32VW553/V1_MQTT_OK/GD32VW55X_Wifi_BLE_SDK/GD32VW55x_RELEASE_V1.0.2/MSDK/lwip/libcoap-4.3.4/src\coap_cache.c ****   return entry;
 884              		.loc 1 190 3 discriminator 4
 885 0268 1D8F     		sub	a4,a4,a5
 886              	.LVL129:
 190:C:/Users/stapi/OneDrive/Desktop/GD32VW553/V1_MQTT_OK/GD32VW55X_Wifi_BLE_SDK/GD32VW55x_RELEASE_V1.0.2/MSDK/lwip/libcoap-4.3.4/src\coap_cache.c ****   return entry;
 887              		.loc 1 190 3 discriminator 4
 888 026a 158F     		sub	a4,a4,a3
 889              	.LVL130:
 190:C:/Users/stapi/OneDrive/Desktop/GD32VW553/V1_MQTT_OK/GD32VW55X_Wifi_BLE_SDK/GD32VW55x_RELEASE_V1.0.2/MSDK/lwip/libcoap-4.3.4/src\coap_cache.c ****   return entry;
 890              		.loc 1 190 3 discriminator 4
 891 026c 9395A600 		slli	a1,a3,10
 892 0270 2D8F     		xor	a4,a1,a4
 893              	.LVL131:
 190:C:/Users/stapi/OneDrive/Desktop/GD32VW553/V1_MQTT_OK/GD32VW55X_Wifi_BLE_SDK/GD32VW55x_RELEASE_V1.0.2/MSDK/lwip/libcoap-4.3.4/src\coap_cache.c ****   return entry;
 894              		.loc 1 190 3 discriminator 4
 895 0272 958F     		sub	a5,a5,a3
 896              	.LVL132:
 190:C:/Users/stapi/OneDrive/Desktop/GD32VW553/V1_MQTT_OK/GD32VW55X_Wifi_BLE_SDK/GD32VW55x_RELEASE_V1.0.2/MSDK/lwip/libcoap-4.3.4/src\coap_cache.c ****   return entry;
 897              		.loc 1 190 3 discriminator 4
 898 0274 998F     		sub	a5,a5,a4
 899              	.LVL133:
 190:C:/Users/stapi/OneDrive/Desktop/GD32VW553/V1_MQTT_OK/GD32VW55X_Wifi_BLE_SDK/GD32VW55x_RELEASE_V1.0.2/MSDK/lwip/libcoap-4.3.4/src\coap_cache.c ****   return entry;
 900              		.loc 1 190 3 discriminator 4
 901 0276 3D83     		srli	a4,a4,15
 902              	.LVL134:
 903 0278 3349F700 		xor	s2,a4,a5
 904              	.LVL135:
 190:C:/Users/stapi/OneDrive/Desktop/GD32VW553/V1_MQTT_OK/GD32VW55X_Wifi_BLE_SDK/GD32VW55x_RELEASE_V1.0.2/MSDK/lwip/libcoap-4.3.4/src\coap_cache.c ****   return entry;
 905              		.loc 1 190 3 discriminator 4
 906              	.LBE24:
 190:C:/Users/stapi/OneDrive/Desktop/GD32VW553/V1_MQTT_OK/GD32VW55X_Wifi_BLE_SDK/GD32VW55x_RELEASE_V1.0.2/MSDK/lwip/libcoap-4.3.4/src\coap_cache.c ****   return entry;
 907              		.loc 1 190 3 discriminator 4
 190:C:/Users/stapi/OneDrive/Desktop/GD32VW553/V1_MQTT_OK/GD32VW55X_Wifi_BLE_SDK/GD32VW55x_RELEASE_V1.0.2/MSDK/lwip/libcoap-4.3.4/src\coap_cache.c ****   return entry;
 908              		.loc 1 190 3 discriminator 4
 190:C:/Users/stapi/OneDrive/Desktop/GD32VW553/V1_MQTT_OK/GD32VW55X_Wifi_BLE_SDK/GD32VW55x_RELEASE_V1.0.2/MSDK/lwip/libcoap-4.3.4/src\coap_cache.c ****   return entry;
 909              		.loc 1 190 3 discriminator 4
 190:C:/Users/stapi/OneDrive/Desktop/GD32VW553/V1_MQTT_OK/GD32VW55X_Wifi_BLE_SDK/GD32VW55x_RELEASE_V1.0.2/MSDK/lwip/libcoap-4.3.4/src\coap_cache.c ****   return entry;
 910              		.loc 1 190 3 discriminator 4
 911 027c 83A7890B 		lw	a5,184(s3)
 912 0280 232E2401 		sw	s2,28(s0)
 190:C:/Users/stapi/OneDrive/Desktop/GD32VW553/V1_MQTT_OK/GD32VW55X_Wifi_BLE_SDK/GD32VW55x_RELEASE_V1.0.2/MSDK/lwip/libcoap-4.3.4/src\coap_cache.c ****   return entry;
 913              		.loc 1 190 3 discriminator 4
 190:C:/Users/stapi/OneDrive/Desktop/GD32VW553/V1_MQTT_OK/GD32VW55X_Wifi_BLE_SDK/GD32VW55x_RELEASE_V1.0.2/MSDK/lwip/libcoap-4.3.4/src\coap_cache.c ****   return entry;
 914              		.loc 1 190 3 discriminator 4
 190:C:/Users/stapi/OneDrive/Desktop/GD32VW553/V1_MQTT_OK/GD32VW55X_Wifi_BLE_SDK/GD32VW55x_RELEASE_V1.0.2/MSDK/lwip/libcoap-4.3.4/src\coap_cache.c ****   return entry;
 915              		.loc 1 190 3 discriminator 4
 916 0284 63980712 		bne	a5,zero,.L69
 190:C:/Users/stapi/OneDrive/Desktop/GD32VW553/V1_MQTT_OK/GD32VW55X_Wifi_BLE_SDK/GD32VW55x_RELEASE_V1.0.2/MSDK/lwip/libcoap-4.3.4/src\coap_cache.c ****   return entry;
 917              		.loc 1 190 3 discriminator 28
 918 0288 23240400 		sw	zero,8(s0)
 190:C:/Users/stapi/OneDrive/Desktop/GD32VW553/V1_MQTT_OK/GD32VW55X_Wifi_BLE_SDK/GD32VW55x_RELEASE_V1.0.2/MSDK/lwip/libcoap-4.3.4/src\coap_cache.c ****   return entry;
 919              		.loc 1 190 3 discriminator 28
 920 028c 23220400 		sw	zero,4(s0)
 190:C:/Users/stapi/OneDrive/Desktop/GD32VW553/V1_MQTT_OK/GD32VW55X_Wifi_BLE_SDK/GD32VW55x_RELEASE_V1.0.2/MSDK/lwip/libcoap-4.3.4/src\coap_cache.c ****   return entry;
 921              		.loc 1 190 3 discriminator 28
 190:C:/Users/stapi/OneDrive/Desktop/GD32VW553/V1_MQTT_OK/GD32VW55X_Wifi_BLE_SDK/GD32VW55x_RELEASE_V1.0.2/MSDK/lwip/libcoap-4.3.4/src\coap_cache.c ****   return entry;
 922              		.loc 1 190 3 discriminator 28
 923 0290 1305C002 		li	a0,44
 924 0294 97000000 		call	malloc
 924      E7800000 
 925              	.LVL136:
 926 029c 08C0     		sw	a0,0(s0)
 190:C:/Users/stapi/OneDrive/Desktop/GD32VW553/V1_MQTT_OK/GD32VW55X_Wifi_BLE_SDK/GD32VW55x_RELEASE_V1.0.2/MSDK/lwip/libcoap-4.3.4/src\coap_cache.c ****   return entry;
 927              		.loc 1 190 3 discriminator 28
 928 029e 11E5     		bne	a0,zero,.L70
 929              	.LVL137:
 930              	.L71:
 190:C:/Users/stapi/OneDrive/Desktop/GD32VW553/V1_MQTT_OK/GD32VW55X_Wifi_BLE_SDK/GD32VW55x_RELEASE_V1.0.2/MSDK/lwip/libcoap-4.3.4/src\coap_cache.c ****   return entry;
 931              		.loc 1 190 3 discriminator 30
 932 02a0 7D55     		li	a0,-1
 933 02a2 97000000 		call	exit
 933      E7800000 
 934              	.LVL138:
 935              	.L70:
 190:C:/Users/stapi/OneDrive/Desktop/GD32VW553/V1_MQTT_OK/GD32VW55X_Wifi_BLE_SDK/GD32VW55x_RELEASE_V1.0.2/MSDK/lwip/libcoap-4.3.4/src\coap_cache.c ****   return entry;
 936              		.loc 1 190 3 discriminator 31
 937 02aa 1306C002 		li	a2,44
 938 02ae 8145     		li	a1,0
 939 02b0 97000000 		call	memset
 939      E7800000 
 940              	.LVL139:
 190:C:/Users/stapi/OneDrive/Desktop/GD32VW553/V1_MQTT_OK/GD32VW55X_Wifi_BLE_SDK/GD32VW55x_RELEASE_V1.0.2/MSDK/lwip/libcoap-4.3.4/src\coap_cache.c ****   return entry;
 941              		.loc 1 190 3 discriminator 31
 942 02b8 0440     		lw	s1,0(s0)
 943              	.LVL140:
 944 02ba 9547     		li	a5,5
 945 02bc 13050018 		li	a0,384
 946 02c0 80C8     		sw	s0,16(s1)
 190:C:/Users/stapi/OneDrive/Desktop/GD32VW553/V1_MQTT_OK/GD32VW55X_Wifi_BLE_SDK/GD32VW55x_RELEASE_V1.0.2/MSDK/lwip/libcoap-4.3.4/src\coap_cache.c ****   return entry;
 947              		.loc 1 190 3 discriminator 31
 948 02c2 23A24401 		sw	s4,4(s1)
 190:C:/Users/stapi/OneDrive/Desktop/GD32VW553/V1_MQTT_OK/GD32VW55X_Wifi_BLE_SDK/GD32VW55x_RELEASE_V1.0.2/MSDK/lwip/libcoap-4.3.4/src\coap_cache.c ****   return entry;
 949              		.loc 1 190 3 discriminator 31
 950 02c6 9CC4     		sw	a5,8(s1)
 190:C:/Users/stapi/OneDrive/Desktop/GD32VW553/V1_MQTT_OK/GD32VW55X_Wifi_BLE_SDK/GD32VW55x_RELEASE_V1.0.2/MSDK/lwip/libcoap-4.3.4/src\coap_cache.c ****   return entry;
 951              		.loc 1 190 3 discriminator 31
 952 02c8 23AA0400 		sw	zero,20(s1)
 190:C:/Users/stapi/OneDrive/Desktop/GD32VW553/V1_MQTT_OK/GD32VW55X_Wifi_BLE_SDK/GD32VW55x_RELEASE_V1.0.2/MSDK/lwip/libcoap-4.3.4/src\coap_cache.c ****   return entry;
 953              		.loc 1 190 3 discriminator 31
 954 02cc 97000000 		call	malloc
 954      E7800000 
 955              	.LVL141:
 956 02d4 372711A0 		li	a4,-1609490432
 957 02d8 0517     		addi	a4,a4,-31
 958 02da 88C0     		sw	a0,0(s1)
 190:C:/Users/stapi/OneDrive/Desktop/GD32VW553/V1_MQTT_OK/GD32VW55X_Wifi_BLE_SDK/GD32VW55x_RELEASE_V1.0.2/MSDK/lwip/libcoap-4.3.4/src\coap_cache.c ****   return entry;
 959              		.loc 1 190 3 discriminator 31
 960 02dc 98D4     		sw	a4,40(s1)
 190:C:/Users/stapi/OneDrive/Desktop/GD32VW553/V1_MQTT_OK/GD32VW55X_Wifi_BLE_SDK/GD32VW55x_RELEASE_V1.0.2/MSDK/lwip/libcoap-4.3.4/src\coap_cache.c ****   return entry;
 961              		.loc 1 190 3 discriminator 31
 962 02de 69D1     		beq	a0,zero,.L71
 190:C:/Users/stapi/OneDrive/Desktop/GD32VW553/V1_MQTT_OK/GD32VW55X_Wifi_BLE_SDK/GD32VW55x_RELEASE_V1.0.2/MSDK/lwip/libcoap-4.3.4/src\coap_cache.c ****   return entry;
 963              		.loc 1 190 3 discriminator 33
 964 02e0 13060018 		li	a2,384
 965 02e4 8145     		li	a1,0
 966 02e6 97000000 		call	memset
 966      E7800000 
 967              	.LVL142:
 190:C:/Users/stapi/OneDrive/Desktop/GD32VW553/V1_MQTT_OK/GD32VW55X_Wifi_BLE_SDK/GD32VW55x_RELEASE_V1.0.2/MSDK/lwip/libcoap-4.3.4/src\coap_cache.c ****   return entry;
 968              		.loc 1 190 3 discriminator 33
 190:C:/Users/stapi/OneDrive/Desktop/GD32VW553/V1_MQTT_OK/GD32VW55X_Wifi_BLE_SDK/GD32VW55x_RELEASE_V1.0.2/MSDK/lwip/libcoap-4.3.4/src\coap_cache.c ****   return entry;
 969              		.loc 1 190 3 discriminator 33
 190:C:/Users/stapi/OneDrive/Desktop/GD32VW553/V1_MQTT_OK/GD32VW55X_Wifi_BLE_SDK/GD32VW55x_RELEASE_V1.0.2/MSDK/lwip/libcoap-4.3.4/src\coap_cache.c ****   return entry;
 970              		.loc 1 190 3 discriminator 33
 971 02ee 23AC890A 		sw	s0,184(s3)
 972              	.L72:
 190:C:/Users/stapi/OneDrive/Desktop/GD32VW553/V1_MQTT_OK/GD32VW55X_Wifi_BLE_SDK/GD32VW55x_RELEASE_V1.0.2/MSDK/lwip/libcoap-4.3.4/src\coap_cache.c ****   return entry;
 973              		.loc 1 190 3 discriminator 37
 190:C:/Users/stapi/OneDrive/Desktop/GD32VW553/V1_MQTT_OK/GD32VW55X_Wifi_BLE_SDK/GD32VW55x_RELEASE_V1.0.2/MSDK/lwip/libcoap-4.3.4/src\coap_cache.c ****   return entry;
 974              		.loc 1 190 3 discriminator 37
 975              	.LBB25:
 190:C:/Users/stapi/OneDrive/Desktop/GD32VW553/V1_MQTT_OK/GD32VW55X_Wifi_BLE_SDK/GD32VW55x_RELEASE_V1.0.2/MSDK/lwip/libcoap-4.3.4/src\coap_cache.c ****   return entry;
 976              		.loc 1 190 3 discriminator 37
 190:C:/Users/stapi/OneDrive/Desktop/GD32VW553/V1_MQTT_OK/GD32VW55X_Wifi_BLE_SDK/GD32VW55x_RELEASE_V1.0.2/MSDK/lwip/libcoap-4.3.4/src\coap_cache.c ****   return entry;
 977              		.loc 1 190 3 discriminator 37
 978 02f2 83A7890B 		lw	a5,184(s3)
 979              	.LBB26:
 980 02f6 B146     		li	a3,12
 981              	.LBE26:
 982 02f8 9843     		lw	a4,0(a5)
 983 02fa 5C47     		lw	a5,12(a4)
 984 02fc 8507     		addi	a5,a5,1
 985 02fe 5CC7     		sw	a5,12(a4)
 190:C:/Users/stapi/OneDrive/Desktop/GD32VW553/V1_MQTT_OK/GD32VW55X_Wifi_BLE_SDK/GD32VW55x_RELEASE_V1.0.2/MSDK/lwip/libcoap-4.3.4/src\coap_cache.c ****   return entry;
 986              		.loc 1 190 3 discriminator 37
 190:C:/Users/stapi/OneDrive/Desktop/GD32VW553/V1_MQTT_OK/GD32VW55X_Wifi_BLE_SDK/GD32VW55x_RELEASE_V1.0.2/MSDK/lwip/libcoap-4.3.4/src\coap_cache.c ****   return entry;
 987              		.loc 1 190 3 discriminator 37
 988              	.LVL143:
 190:C:/Users/stapi/OneDrive/Desktop/GD32VW553/V1_MQTT_OK/GD32VW55X_Wifi_BLE_SDK/GD32VW55x_RELEASE_V1.0.2/MSDK/lwip/libcoap-4.3.4/src\coap_cache.c ****   return entry;
 989              		.loc 1 190 3 discriminator 37
 190:C:/Users/stapi/OneDrive/Desktop/GD32VW553/V1_MQTT_OK/GD32VW55X_Wifi_BLE_SDK/GD32VW55x_RELEASE_V1.0.2/MSDK/lwip/libcoap-4.3.4/src\coap_cache.c ****   return entry;
 990              		.loc 1 190 3 discriminator 37
 991              	.LBB29:
 190:C:/Users/stapi/OneDrive/Desktop/GD32VW553/V1_MQTT_OK/GD32VW55X_Wifi_BLE_SDK/GD32VW55x_RELEASE_V1.0.2/MSDK/lwip/libcoap-4.3.4/src\coap_cache.c ****   return entry;
 992              		.loc 1 190 3 discriminator 37
 993              	.LBE29:
 994 0300 5C43     		lw	a5,4(a4)
 995              	.LBB30:
 996 0302 1843     		lw	a4,0(a4)
 997              	.LVL144:
 998              	.LBE30:
 999 0304 FD17     		addi	a5,a5,-1
 1000              	.LVL145:
 1001 0306 B3F72701 		and	a5,a5,s2
 1002              	.LVL146:
 1003              	.LBB31:
 1004 030a 7F97D7C4 		maddr32	a4, a5, a3
 1005              	.LVL147:
 190:C:/Users/stapi/OneDrive/Desktop/GD32VW553/V1_MQTT_OK/GD32VW55X_Wifi_BLE_SDK/GD32VW55x_RELEASE_V1.0.2/MSDK/lwip/libcoap-4.3.4/src\coap_cache.c ****   return entry;
 1006              		.loc 1 190 3 discriminator 37
 1007 030e 5443     		lw	a3,4(a4)
 1008 0310 1C43     		lw	a5,0(a4)
 1009              	.LVL148:
 1010 0312 8506     		addi	a3,a3,1
 1011 0314 54C3     		sw	a3,4(a4)
 190:C:/Users/stapi/OneDrive/Desktop/GD32VW553/V1_MQTT_OK/GD32VW55X_Wifi_BLE_SDK/GD32VW55x_RELEASE_V1.0.2/MSDK/lwip/libcoap-4.3.4/src\coap_cache.c ****   return entry;
 1012              		.loc 1 190 3 discriminator 37
 1013 0316 1CC8     		sw	a5,16(s0)
 190:C:/Users/stapi/OneDrive/Desktop/GD32VW553/V1_MQTT_OK/GD32VW55X_Wifi_BLE_SDK/GD32VW55x_RELEASE_V1.0.2/MSDK/lwip/libcoap-4.3.4/src\coap_cache.c ****   return entry;
 1014              		.loc 1 190 3 discriminator 37
 1015 0318 23260400 		sw	zero,12(s0)
 190:C:/Users/stapi/OneDrive/Desktop/GD32VW553/V1_MQTT_OK/GD32VW55X_Wifi_BLE_SDK/GD32VW55x_RELEASE_V1.0.2/MSDK/lwip/libcoap-4.3.4/src\coap_cache.c ****   return entry;
 1016              		.loc 1 190 3 discriminator 37
 1017 031c 91C3     		beq	a5,zero,.L73
 190:C:/Users/stapi/OneDrive/Desktop/GD32VW553/V1_MQTT_OK/GD32VW55X_Wifi_BLE_SDK/GD32VW55x_RELEASE_V1.0.2/MSDK/lwip/libcoap-4.3.4/src\coap_cache.c ****   return entry;
 1018              		.loc 1 190 3 discriminator 38
 1019 031e C0C7     		sw	s0,12(a5)
 1020              	.L73:
 190:C:/Users/stapi/OneDrive/Desktop/GD32VW553/V1_MQTT_OK/GD32VW55X_Wifi_BLE_SDK/GD32VW55x_RELEASE_V1.0.2/MSDK/lwip/libcoap-4.3.4/src\coap_cache.c ****   return entry;
 1021              		.loc 1 190 3 discriminator 40
 1022 0320 1C47     		lw	a5,8(a4)
 1023 0322 00C3     		sw	s0,0(a4)
 190:C:/Users/stapi/OneDrive/Desktop/GD32VW553/V1_MQTT_OK/GD32VW55X_Wifi_BLE_SDK/GD32VW55x_RELEASE_V1.0.2/MSDK/lwip/libcoap-4.3.4/src\coap_cache.c ****   return entry;
 1024              		.loc 1 190 3 discriminator 40
 1025 0324 2947     		li	a4,10
 1026              	.LVL149:
 1027 0326 8507     		addi	a5,a5,1
 1028 0328 B387E702 		mul	a5,a5,a4
 1029 032c E3EAF6D4 		bltu	a3,a5,.L60
 190:C:/Users/stapi/OneDrive/Desktop/GD32VW553/V1_MQTT_OK/GD32VW55X_Wifi_BLE_SDK/GD32VW55x_RELEASE_V1.0.2/MSDK/lwip/libcoap-4.3.4/src\coap_cache.c ****   return entry;
 1030              		.loc 1 190 3 is_stmt 0 discriminator 41
 1031 0330 1C40     		lw	a5,0(s0)
 1032 0332 03A94702 		lw	s2,36(a5)
 1033              	.LVL150:
 1034 0336 E31509D4 		bne	s2,zero,.L60
 190:C:/Users/stapi/OneDrive/Desktop/GD32VW553/V1_MQTT_OK/GD32VW55X_Wifi_BLE_SDK/GD32VW55x_RELEASE_V1.0.2/MSDK/lwip/libcoap-4.3.4/src\coap_cache.c ****   return entry;
 1035              		.loc 1 190 3 is_stmt 1 discriminator 43
 1036              	.LBB27:
 190:C:/Users/stapi/OneDrive/Desktop/GD32VW553/V1_MQTT_OK/GD32VW55X_Wifi_BLE_SDK/GD32VW55x_RELEASE_V1.0.2/MSDK/lwip/libcoap-4.3.4/src\coap_cache.c ****   return entry;
 1037              		.loc 1 190 3 discriminator 43
 190:C:/Users/stapi/OneDrive/Desktop/GD32VW553/V1_MQTT_OK/GD32VW55X_Wifi_BLE_SDK/GD32VW55x_RELEASE_V1.0.2/MSDK/lwip/libcoap-4.3.4/src\coap_cache.c ****   return entry;
 1038              		.loc 1 190 3 discriminator 43
 190:C:/Users/stapi/OneDrive/Desktop/GD32VW553/V1_MQTT_OK/GD32VW55X_Wifi_BLE_SDK/GD32VW55x_RELEASE_V1.0.2/MSDK/lwip/libcoap-4.3.4/src\coap_cache.c ****   return entry;
 1039              		.loc 1 190 3 discriminator 43
 190:C:/Users/stapi/OneDrive/Desktop/GD32VW553/V1_MQTT_OK/GD32VW55X_Wifi_BLE_SDK/GD32VW55x_RELEASE_V1.0.2/MSDK/lwip/libcoap-4.3.4/src\coap_cache.c ****   return entry;
 1040              		.loc 1 190 3 discriminator 43
 190:C:/Users/stapi/OneDrive/Desktop/GD32VW553/V1_MQTT_OK/GD32VW55X_Wifi_BLE_SDK/GD32VW55x_RELEASE_V1.0.2/MSDK/lwip/libcoap-4.3.4/src\coap_cache.c ****   return entry;
 1041              		.loc 1 190 3 discriminator 43
 1042 033a DC43     		lw	a5,4(a5)
 1043 033c 6146     		li	a2,24
 1044 033e 3306F602 		mul	a2,a2,a5
 1045 0342 3285     		mv	a0,a2
 1046 0344 32C6     		sw	a2,12(sp)
 1047 0346 97000000 		call	malloc
 1047      E7800000 
 1048              	.LVL151:
 1049 034e AA84     		mv	s1,a0
 1050              	.LVL152:
 190:C:/Users/stapi/OneDrive/Desktop/GD32VW553/V1_MQTT_OK/GD32VW55X_Wifi_BLE_SDK/GD32VW55x_RELEASE_V1.0.2/MSDK/lwip/libcoap-4.3.4/src\coap_cache.c ****   return entry;
 1051              		.loc 1 190 3 discriminator 43
 1052 0350 21D9     		beq	a0,zero,.L71
 190:C:/Users/stapi/OneDrive/Desktop/GD32VW553/V1_MQTT_OK/GD32VW55X_Wifi_BLE_SDK/GD32VW55x_RELEASE_V1.0.2/MSDK/lwip/libcoap-4.3.4/src\coap_cache.c ****   return entry;
 1053              		.loc 1 190 3 discriminator 46
 1054 0352 3246     		lw	a2,12(sp)
 1055 0354 8145     		li	a1,0
 1056 0356 97000000 		call	memset
 1056      E7800000 
 1057              	.LVL153:
 190:C:/Users/stapi/OneDrive/Desktop/GD32VW553/V1_MQTT_OK/GD32VW55X_Wifi_BLE_SDK/GD32VW55x_RELEASE_V1.0.2/MSDK/lwip/libcoap-4.3.4/src\coap_cache.c ****   return entry;
 1058              		.loc 1 190 3 discriminator 46
 1059 035e 1840     		lw	a4,0(s0)
 1060 0360 314E     		li	t3,12
 1061 0362 03234700 		lw	t1,4(a4)
 1062 0366 1C47     		lw	a5,8(a4)
 1063 0368 5447     		lw	a3,12(a4)
 1064 036a 13181300 		slli	a6,t1,1
 1065 036e 7D18     		addi	a6,a6,-1
 1066 0370 8507     		addi	a5,a5,1
 1067 0372 B3D7F600 		srl	a5,a3,a5
 1068 0376 B3F60601 		and	a3,a3,a6
 1069 037a B336D000 		snez	a3,a3
 1070 037e 0843     		lw	a0,0(a4)
 1071 0380 B697     		add	a5,a5,a3
 1072 0382 1CCF     		sw	a5,24(a4)
 190:C:/Users/stapi/OneDrive/Desktop/GD32VW553/V1_MQTT_OK/GD32VW55X_Wifi_BLE_SDK/GD32VW55x_RELEASE_V1.0.2/MSDK/lwip/libcoap-4.3.4/src\coap_cache.c ****   return entry;
 1073              		.loc 1 190 3 discriminator 46
 1074 0384 232E0700 		sw	zero,28(a4)
 190:C:/Users/stapi/OneDrive/Desktop/GD32VW553/V1_MQTT_OK/GD32VW55X_Wifi_BLE_SDK/GD32VW55x_RELEASE_V1.0.2/MSDK/lwip/libcoap-4.3.4/src\coap_cache.c ****   return entry;
 1075              		.loc 1 190 3 discriminator 46
 1076              	.LVL154:
 1077              	.L74:
 190:C:/Users/stapi/OneDrive/Desktop/GD32VW553/V1_MQTT_OK/GD32VW55X_Wifi_BLE_SDK/GD32VW55x_RELEASE_V1.0.2/MSDK/lwip/libcoap-4.3.4/src\coap_cache.c ****   return entry;
 1078              		.loc 1 190 3 discriminator 64
 1079 0388 63132305 		bne	t1,s2,.L81
 190:C:/Users/stapi/OneDrive/Desktop/GD32VW553/V1_MQTT_OK/GD32VW55X_Wifi_BLE_SDK/GD32VW55x_RELEASE_V1.0.2/MSDK/lwip/libcoap-4.3.4/src\coap_cache.c ****   return entry;
 1080              		.loc 1 190 3 discriminator 66
 1081 038c 97000000 		call	free
 1081      E7800000 
 1082              	.LVL155:
 190:C:/Users/stapi/OneDrive/Desktop/GD32VW553/V1_MQTT_OK/GD32VW55X_Wifi_BLE_SDK/GD32VW55x_RELEASE_V1.0.2/MSDK/lwip/libcoap-4.3.4/src\coap_cache.c ****   return entry;
 1083              		.loc 1 190 3 discriminator 66
 1084 0394 1C40     		lw	a5,0(s0)
 1085 0396 D843     		lw	a4,4(a5)
 1086 0398 D44F     		lw	a3,28(a5)
 1087 039a 84C3     		sw	s1,0(a5)
 1088 039c 0607     		slli	a4,a4,1
 1089 039e D8C3     		sw	a4,4(a5)
 190:C:/Users/stapi/OneDrive/Desktop/GD32VW553/V1_MQTT_OK/GD32VW55X_Wifi_BLE_SDK/GD32VW55x_RELEASE_V1.0.2/MSDK/lwip/libcoap-4.3.4/src\coap_cache.c ****   return entry;
 1090              		.loc 1 190 3 discriminator 66
 1091 03a0 9847     		lw	a4,8(a5)
 1092 03a2 0507     		addi	a4,a4,1
 1093 03a4 98C7     		sw	a4,8(a5)
 190:C:/Users/stapi/OneDrive/Desktop/GD32VW553/V1_MQTT_OK/GD32VW55X_Wifi_BLE_SDK/GD32VW55x_RELEASE_V1.0.2/MSDK/lwip/libcoap-4.3.4/src\coap_cache.c ****   return entry;
 1094              		.loc 1 190 3 discriminator 66
 190:C:/Users/stapi/OneDrive/Desktop/GD32VW553/V1_MQTT_OK/GD32VW55X_Wifi_BLE_SDK/GD32VW55x_RELEASE_V1.0.2/MSDK/lwip/libcoap-4.3.4/src\coap_cache.c ****   return entry;
 1095              		.loc 1 190 3 discriminator 66
 1096 03a6 D847     		lw	a4,12(a5)
 1097 03a8 0583     		srli	a4,a4,1
 1098 03aa 636DD706 		bgtu	a3,a4,.L82
 190:C:/Users/stapi/OneDrive/Desktop/GD32VW553/V1_MQTT_OK/GD32VW55X_Wifi_BLE_SDK/GD32VW55x_RELEASE_V1.0.2/MSDK/lwip/libcoap-4.3.4/src\coap_cache.c ****   return entry;
 1099              		.loc 1 190 3 is_stmt 0
 1100 03ae 23A00702 		sw	zero,32(a5)
 190:C:/Users/stapi/OneDrive/Desktop/GD32VW553/V1_MQTT_OK/GD32VW55X_Wifi_BLE_SDK/GD32VW55x_RELEASE_V1.0.2/MSDK/lwip/libcoap-4.3.4/src\coap_cache.c ****   return entry;
 1101              		.loc 1 190 3 is_stmt 1
 1102 03b2 F9B1     		j	.L60
 1103              	.LVL156:
 1104              	.L69:
 1105              	.LBE27:
 1106              	.LBE31:
 1107              	.LBE25:
 190:C:/Users/stapi/OneDrive/Desktop/GD32VW553/V1_MQTT_OK/GD32VW55X_Wifi_BLE_SDK/GD32VW55x_RELEASE_V1.0.2/MSDK/lwip/libcoap-4.3.4/src\coap_cache.c ****   return entry;
 1108              		.loc 1 190 3 discriminator 29
 1109 03b4 9843     		lw	a4,0(a5)
 1110 03b6 23240400 		sw	zero,8(s0)
 1111 03ba 18C0     		sw	a4,0(s0)
 190:C:/Users/stapi/OneDrive/Desktop/GD32VW553/V1_MQTT_OK/GD32VW55X_Wifi_BLE_SDK/GD32VW55x_RELEASE_V1.0.2/MSDK/lwip/libcoap-4.3.4/src\coap_cache.c ****   return entry;
 1112              		.loc 1 190 3 discriminator 29
 190:C:/Users/stapi/OneDrive/Desktop/GD32VW553/V1_MQTT_OK/GD32VW55X_Wifi_BLE_SDK/GD32VW55x_RELEASE_V1.0.2/MSDK/lwip/libcoap-4.3.4/src\coap_cache.c ****   return entry;
 1113              		.loc 1 190 3 discriminator 29
 190:C:/Users/stapi/OneDrive/Desktop/GD32VW553/V1_MQTT_OK/GD32VW55X_Wifi_BLE_SDK/GD32VW55x_RELEASE_V1.0.2/MSDK/lwip/libcoap-4.3.4/src\coap_cache.c ****   return entry;
 1114              		.loc 1 190 3 discriminator 29
 1115 03bc 9C43     		lw	a5,0(a5)
 1116 03be 944B     		lw	a3,16(a5)
 1117              	.LVL157:
 1118 03c0 D84B     		lw	a4,20(a5)
 1119 03c2 3387E640 		sub	a4,a3,a4
 1120 03c6 58C0     		sw	a4,4(s0)
 190:C:/Users/stapi/OneDrive/Desktop/GD32VW553/V1_MQTT_OK/GD32VW55X_Wifi_BLE_SDK/GD32VW55x_RELEASE_V1.0.2/MSDK/lwip/libcoap-4.3.4/src\coap_cache.c ****   return entry;
 1121              		.loc 1 190 3 discriminator 29
 1122 03c8 80C6     		sw	s0,8(a3)
 190:C:/Users/stapi/OneDrive/Desktop/GD32VW553/V1_MQTT_OK/GD32VW55X_Wifi_BLE_SDK/GD32VW55x_RELEASE_V1.0.2/MSDK/lwip/libcoap-4.3.4/src\coap_cache.c ****   return entry;
 1123              		.loc 1 190 3 discriminator 29
 1124 03ca 80CB     		sw	s0,16(a5)
 1125 03cc 1DB7     		j	.L72
 1126              	.LVL158:
 1127              	.L81:
 1128              	.LBB33:
 1129              	.LBB32:
 1130              	.LBB28:
 190:C:/Users/stapi/OneDrive/Desktop/GD32VW553/V1_MQTT_OK/GD32VW55X_Wifi_BLE_SDK/GD32VW55x_RELEASE_V1.0.2/MSDK/lwip/libcoap-4.3.4/src\coap_cache.c ****   return entry;
 1131              		.loc 1 190 3 discriminator 65
 1132 03ce AA86     		mv	a3,a0
 1133 03d0 FF16C9C5 		maddr32	a3, s2, t3
 1134 03d4 9442     		lw	a3,0(a3)
 1135              	.LVL159:
 190:C:/Users/stapi/OneDrive/Desktop/GD32VW553/V1_MQTT_OK/GD32VW55X_Wifi_BLE_SDK/GD32VW55x_RELEASE_V1.0.2/MSDK/lwip/libcoap-4.3.4/src\coap_cache.c ****   return entry;
 1136              		.loc 1 190 3 discriminator 65
 1137              	.L75:
 190:C:/Users/stapi/OneDrive/Desktop/GD32VW553/V1_MQTT_OK/GD32VW55X_Wifi_BLE_SDK/GD32VW55x_RELEASE_V1.0.2/MSDK/lwip/libcoap-4.3.4/src\coap_cache.c ****   return entry;
 1138              		.loc 1 190 3 discriminator 61
 1139 03d6 99E2     		bne	a3,zero,.L80
 190:C:/Users/stapi/OneDrive/Desktop/GD32VW553/V1_MQTT_OK/GD32VW55X_Wifi_BLE_SDK/GD32VW55x_RELEASE_V1.0.2/MSDK/lwip/libcoap-4.3.4/src\coap_cache.c ****   return entry;
 1140              		.loc 1 190 3 discriminator 63
 1141 03d8 0509     		addi	s2,s2,1
 1142              	.LVL160:
 1143 03da 7DB7     		j	.L74
 1144              	.L80:
 190:C:/Users/stapi/OneDrive/Desktop/GD32VW553/V1_MQTT_OK/GD32VW55X_Wifi_BLE_SDK/GD32VW55x_RELEASE_V1.0.2/MSDK/lwip/libcoap-4.3.4/src\coap_cache.c ****   return entry;
 1145              		.loc 1 190 3 discriminator 62
 1146 03dc CC4E     		lw	a1,28(a3)
 1147 03de 2686     		mv	a2,s1
 1148 03e0 83AE0601 		lw	t4,16(a3)
 1149              	.LVL161:
 190:C:/Users/stapi/OneDrive/Desktop/GD32VW553/V1_MQTT_OK/GD32VW55X_Wifi_BLE_SDK/GD32VW55x_RELEASE_V1.0.2/MSDK/lwip/libcoap-4.3.4/src\coap_cache.c ****   return entry;
 1150              		.loc 1 190 3 discriminator 62
 190:C:/Users/stapi/OneDrive/Desktop/GD32VW553/V1_MQTT_OK/GD32VW55X_Wifi_BLE_SDK/GD32VW55x_RELEASE_V1.0.2/MSDK/lwip/libcoap-4.3.4/src\coap_cache.c ****   return entry;
 1151              		.loc 1 190 3 discriminator 62
 190:C:/Users/stapi/OneDrive/Desktop/GD32VW553/V1_MQTT_OK/GD32VW55X_Wifi_BLE_SDK/GD32VW55x_RELEASE_V1.0.2/MSDK/lwip/libcoap-4.3.4/src\coap_cache.c ****   return entry;
 1152              		.loc 1 190 3 discriminator 62
 190:C:/Users/stapi/OneDrive/Desktop/GD32VW553/V1_MQTT_OK/GD32VW55X_Wifi_BLE_SDK/GD32VW55x_RELEASE_V1.0.2/MSDK/lwip/libcoap-4.3.4/src\coap_cache.c ****   return entry;
 1153              		.loc 1 190 3 discriminator 62
 1154 03e4 B375B800 		and	a1,a6,a1
 1155              	.LVL162:
 1156 03e8 7F96C5C5 		maddr32	a2, a1, t3
 1157              	.LVL163:
 190:C:/Users/stapi/OneDrive/Desktop/GD32VW553/V1_MQTT_OK/GD32VW55X_Wifi_BLE_SDK/GD32VW55x_RELEASE_V1.0.2/MSDK/lwip/libcoap-4.3.4/src\coap_cache.c ****   return entry;
 1158              		.loc 1 190 3 discriminator 62
 1159 03ec 4C42     		lw	a1,4(a2)
 1160              	.LVL164:
 1161 03ee 8505     		addi	a1,a1,1
 1162 03f0 4CC2     		sw	a1,4(a2)
 1163 03f2 63F0B702 		bgeu	a5,a1,.L77
 190:C:/Users/stapi/OneDrive/Desktop/GD32VW553/V1_MQTT_OK/GD32VW55X_Wifi_BLE_SDK/GD32VW55x_RELEASE_V1.0.2/MSDK/lwip/libcoap-4.3.4/src\coap_cache.c ****   return entry;
 1164              		.loc 1 190 3 discriminator 53
 1165 03f6 8328C701 		lw	a7,28(a4)
 1166 03fa 8508     		addi	a7,a7,1
 1167 03fc 232E1701 		sw	a7,28(a4)
 190:C:/Users/stapi/OneDrive/Desktop/GD32VW553/V1_MQTT_OK/GD32VW55X_Wifi_BLE_SDK/GD32VW55x_RELEASE_V1.0.2/MSDK/lwip/libcoap-4.3.4/src\coap_cache.c ****   return entry;
 1168              		.loc 1 190 3 discriminator 53
 1169 0400 83288600 		lw	a7,8(a2)
 1170 0404 338F1703 		mul	t5,a5,a7
 1171 0408 6375BF00 		bleu	a1,t5,.L77
 190:C:/Users/stapi/OneDrive/Desktop/GD32VW553/V1_MQTT_OK/GD32VW55X_Wifi_BLE_SDK/GD32VW55x_RELEASE_V1.0.2/MSDK/lwip/libcoap-4.3.4/src\coap_cache.c ****   return entry;
 1172              		.loc 1 190 3 discriminator 55
 1173 040c 8508     		addi	a7,a7,1
 1174 040e 23241601 		sw	a7,8(a2)
 1175              	.L77:
 190:C:/Users/stapi/OneDrive/Desktop/GD32VW553/V1_MQTT_OK/GD32VW55X_Wifi_BLE_SDK/GD32VW55x_RELEASE_V1.0.2/MSDK/lwip/libcoap-4.3.4/src\coap_cache.c ****   return entry;
 1176              		.loc 1 190 3 discriminator 57
 1177 0412 0C42     		lw	a1,0(a2)
 1178 0414 23A60600 		sw	zero,12(a3)
 190:C:/Users/stapi/OneDrive/Desktop/GD32VW553/V1_MQTT_OK/GD32VW55X_Wifi_BLE_SDK/GD32VW55x_RELEASE_V1.0.2/MSDK/lwip/libcoap-4.3.4/src\coap_cache.c ****   return entry;
 1179              		.loc 1 190 3 discriminator 57
 1180 0418 8CCA     		sw	a1,16(a3)
 190:C:/Users/stapi/OneDrive/Desktop/GD32VW553/V1_MQTT_OK/GD32VW55X_Wifi_BLE_SDK/GD32VW55x_RELEASE_V1.0.2/MSDK/lwip/libcoap-4.3.4/src\coap_cache.c ****   return entry;
 1181              		.loc 1 190 3 discriminator 57
 1182 041a 91C1     		beq	a1,zero,.L79
 190:C:/Users/stapi/OneDrive/Desktop/GD32VW553/V1_MQTT_OK/GD32VW55X_Wifi_BLE_SDK/GD32VW55x_RELEASE_V1.0.2/MSDK/lwip/libcoap-4.3.4/src\coap_cache.c ****   return entry;
 1183              		.loc 1 190 3 discriminator 58
 1184 041c D4C5     		sw	a3,12(a1)
 1185              	.L79:
 190:C:/Users/stapi/OneDrive/Desktop/GD32VW553/V1_MQTT_OK/GD32VW55X_Wifi_BLE_SDK/GD32VW55x_RELEASE_V1.0.2/MSDK/lwip/libcoap-4.3.4/src\coap_cache.c ****   return entry;
 1186              		.loc 1 190 3 discriminator 60
 1187 041e 14C2     		sw	a3,0(a2)
 190:C:/Users/stapi/OneDrive/Desktop/GD32VW553/V1_MQTT_OK/GD32VW55X_Wifi_BLE_SDK/GD32VW55x_RELEASE_V1.0.2/MSDK/lwip/libcoap-4.3.4/src\coap_cache.c ****   return entry;
 1188              		.loc 1 190 3 discriminator 60
 1189              	.LVL165:
 1190 0420 F686     		mv	a3,t4
 1191              	.LVL166:
 1192 0422 55BF     		j	.L75
 1193              	.LVL167:
 1194              	.L82:
 190:C:/Users/stapi/OneDrive/Desktop/GD32VW553/V1_MQTT_OK/GD32VW55X_Wifi_BLE_SDK/GD32VW55x_RELEASE_V1.0.2/MSDK/lwip/libcoap-4.3.4/src\coap_cache.c ****   return entry;
 1195              		.loc 1 190 3 is_stmt 0 discriminator 67
 1196 0424 9853     		lw	a4,32(a5)
 1197 0426 8546     		li	a3,1
 1198 0428 0507     		addi	a4,a4,1
 1199 042a 98D3     		sw	a4,32(a5)
 190:C:/Users/stapi/OneDrive/Desktop/GD32VW553/V1_MQTT_OK/GD32VW55X_Wifi_BLE_SDK/GD32VW55x_RELEASE_V1.0.2/MSDK/lwip/libcoap-4.3.4/src\coap_cache.c ****   return entry;
 1200              		.loc 1 190 3 is_stmt 1 discriminator 67
 1201 042c E3FAE6C4 		bleu	a4,a3,.L60
 190:C:/Users/stapi/OneDrive/Desktop/GD32VW553/V1_MQTT_OK/GD32VW55X_Wifi_BLE_SDK/GD32VW55x_RELEASE_V1.0.2/MSDK/lwip/libcoap-4.3.4/src\coap_cache.c ****   return entry;
 1202              		.loc 1 190 3 discriminator 71
 1203 0430 D4D3     		sw	a3,36(a5)
 1204 0432 B9B1     		j	.L60
 1205              	.LBE28:
 1206              	.LBE32:
 1207              	.LBE33:
 1208              	.LBE21:
 1209              		.cfi_endproc
 1210              	.LFE36:
 1212              		.section	.rodata.coap_cache_get_by_key.str1.4,"aMS",@progbits,1
 1213              		.align	2
 1214              	.LC3:
 1215 0000 63616368 		.string	"cache_key"
 1215      655F6B65 
 1215      7900
 1216              		.section	.text.coap_cache_get_by_key,"ax",@progbits
 1217              		.align	1
 1218              		.globl	coap_cache_get_by_key
 1220              	coap_cache_get_by_key:
 1221              	.LFB37:
 193:C:/Users/stapi/OneDrive/Desktop/GD32VW553/V1_MQTT_OK/GD32VW55X_Wifi_BLE_SDK/GD32VW55x_RELEASE_V1.0.2/MSDK/lwip/libcoap-4.3.4/src\coap_cache.c **** 
 194:C:/Users/stapi/OneDrive/Desktop/GD32VW553/V1_MQTT_OK/GD32VW55X_Wifi_BLE_SDK/GD32VW55x_RELEASE_V1.0.2/MSDK/lwip/libcoap-4.3.4/src\coap_cache.c **** coap_cache_entry_t *
 195:C:/Users/stapi/OneDrive/Desktop/GD32VW553/V1_MQTT_OK/GD32VW55X_Wifi_BLE_SDK/GD32VW55x_RELEASE_V1.0.2/MSDK/lwip/libcoap-4.3.4/src\coap_cache.c **** coap_cache_get_by_key(coap_context_t *ctx, const coap_cache_key_t *cache_key) {
 1222              		.loc 1 195 79
 1223              		.cfi_startproc
 1224              	.LVL168:
 1225 0000 17030000 		call	t0,__riscv_save_5
 1225      E7020300 
 1226              		.cfi_offset 20, -24
 1227              		.cfi_offset 19, -20
 1228              		.cfi_offset 18, -16
 1229              		.cfi_offset 9, -12
 1230              		.cfi_offset 8, -8
 1231              		.cfi_offset 1, -4
 1232              		.cfi_def_cfa_offset 32
 196:C:/Users/stapi/OneDrive/Desktop/GD32VW553/V1_MQTT_OK/GD32VW55X_Wifi_BLE_SDK/GD32VW55x_RELEASE_V1.0.2/MSDK/lwip/libcoap-4.3.4/src\coap_cache.c ****   coap_cache_entry_t *cache_entry = NULL;
 1233              		.loc 1 196 3
 1234              	.LVL169:
 197:C:/Users/stapi/OneDrive/Desktop/GD32VW553/V1_MQTT_OK/GD32VW55X_Wifi_BLE_SDK/GD32VW55x_RELEASE_V1.0.2/MSDK/lwip/libcoap-4.3.4/src\coap_cache.c **** 
 198:C:/Users/stapi/OneDrive/Desktop/GD32VW553/V1_MQTT_OK/GD32VW55X_Wifi_BLE_SDK/GD32VW55x_RELEASE_V1.0.2/MSDK/lwip/libcoap-4.3.4/src\coap_cache.c ****   assert(cache_key);
 1235              		.loc 1 198 3
 1236 0008 9DE1     		bne	a1,zero,.L108
 1237              		.loc 1 198 3 is_stmt 0 discriminator 1
 1238 000a B7060000 		lui	a3,%hi(.LC3)
 1239 000e 37060000 		lui	a2,%hi(.LANCHOR1)
 1240 0012 37050000 		lui	a0,%hi(.LC1)
 1241              	.LVL170:
 1242 0016 93860600 		addi	a3,a3,%lo(.LC3)
 1243 001a 13060600 		addi	a2,a2,%lo(.LANCHOR1)
 1244 001e 9305600C 		li	a1,198
 1245              	.LVL171:
 1246 0022 13050500 		addi	a0,a0,%lo(.LC1)
 1247 0026 97000000 		call	__assert_func
 1247      E7800000 
 1248              	.LVL172:
 1249              	.L108:
 199:C:/Users/stapi/OneDrive/Desktop/GD32VW553/V1_MQTT_OK/GD32VW55X_Wifi_BLE_SDK/GD32VW55x_RELEASE_V1.0.2/MSDK/lwip/libcoap-4.3.4/src\coap_cache.c ****   if (cache_key) {
 1250              		.loc 1 199 3 is_stmt 1
 200:C:/Users/stapi/OneDrive/Desktop/GD32VW553/V1_MQTT_OK/GD32VW55X_Wifi_BLE_SDK/GD32VW55x_RELEASE_V1.0.2/MSDK/lwip/libcoap-4.3.4/src\coap_cache.c ****     HASH_FIND(hh, ctx->cache, cache_key, sizeof(coap_cache_key_t), cache_entry);
 1251              		.loc 1 200 5
 1252              		.loc 1 200 5
 1253              		.loc 1 200 5
 1254 002e 0324850B 		lw	s0,184(a0)
 1255 0032 6303041E 		beq	s0,zero,.L107
 1256              	.LBB39:
 1257              	.LBB40:
 1258 0036 3787379E 		li	a4,-1640529920
 1259 003a 9306979B 		addi	a3,a4,-1607
 1260 003e B7C7EDFE 		li	a5,-17973248
 1261 0042 AE84     		mv	s1,a1
 1262 0044 13858501 		addi	a0,a1,24
 1263              	.LVL173:
 1264              	.LBE40:
 1265              	.LBE39:
 1266 0048 2E86     		mv	a2,a1
 1267              	.LBB43:
 1268              	.LBB41:
 1269 004a 1388F7EE 		addi	a6,a5,-273
 1270 004e B685     		mv	a1,a3
 1271              	.LVL174:
 1272              	.L110:
 1273              		.loc 1 200 5 discriminator 5
 1274              		.loc 1 200 5 discriminator 5
 1275 0050 03475600 		lbu	a4,5(a2)
 1276 0054 83476600 		lbu	a5,6(a2)
 1277 0058 3106     		addi	a2,a2,12
 1278              	.LVL175:
 1279 005a 2207     		slli	a4,a4,8
 1280 005c C207     		slli	a5,a5,16
 1281 005e 3E97     		add	a4,a4,a5
 1282 0060 834786FF 		lbu	a5,-8(a2)
 1283 0064 3E97     		add	a4,a4,a5
 1284 0066 8347B6FF 		lbu	a5,-5(a2)
 1285 006a E207     		slli	a5,a5,24
 1286 006c 3E97     		add	a4,a4,a5
 1287 006e 3697     		add	a4,a4,a3
 1288              	.LVL176:
 1289              		.loc 1 200 5 discriminator 5
 1290 0070 8347D6FF 		lbu	a5,-3(a2)
 1291 0074 8346E6FF 		lbu	a3,-2(a2)
 1292 0078 A207     		slli	a5,a5,8
 1293 007a C206     		slli	a3,a3,16
 1294 007c B697     		add	a5,a5,a3
 1295 007e 8346C6FF 		lbu	a3,-4(a2)
 1296 0082 B697     		add	a5,a5,a3
 1297 0084 8346F6FF 		lbu	a3,-1(a2)
 1298 0088 E206     		slli	a3,a3,24
 1299 008a B697     		add	a5,a5,a3
 1300 008c C297     		add	a5,a5,a6
 1301              	.LVL177:
 1302              		.loc 1 200 5 discriminator 5
 1303              		.loc 1 200 5 discriminator 5
 1304              		.loc 1 200 5 discriminator 5
 1305 008e 834656FF 		lbu	a3,-11(a2)
 1306 0092 034866FF 		lbu	a6,-10(a2)
 1307 0096 A206     		slli	a3,a3,8
 1308 0098 4208     		slli	a6,a6,16
 1309 009a C296     		add	a3,a3,a6
 1310 009c 034846FF 		lbu	a6,-12(a2)
 1311 00a0 C296     		add	a3,a3,a6
 1312 00a2 034876FF 		lbu	a6,-9(a2)
 1313 00a6 6208     		slli	a6,a6,24
 1314 00a8 C296     		add	a3,a3,a6
 1315 00aa 998E     		sub	a3,a3,a4
 1316 00ac 9D8E     		sub	a3,a3,a5
 1317 00ae AE96     		add	a3,a3,a1
 1318              	.LVL178:
 1319              		.loc 1 200 5 discriminator 5
 1320 00b0 93D5D700 		srli	a1,a5,13
 1321 00b4 AD8E     		xor	a3,a1,a3
 1322              	.LVL179:
 1323              		.loc 1 200 5 discriminator 5
 1324 00b6 1D8F     		sub	a4,a4,a5
 1325              	.LVL180:
 1326              		.loc 1 200 5 discriminator 5
 1327 00b8 B305D740 		sub	a1,a4,a3
 1328              	.LVL181:
 1329              		.loc 1 200 5 discriminator 5
 1330 00bc 13978600 		slli	a4,a3,8
 1331 00c0 2D8F     		xor	a4,a4,a1
 1332              	.LVL182:
 1333              		.loc 1 200 5 discriminator 5
 1334 00c2 958F     		sub	a5,a5,a3
 1335              	.LVL183:
 1336              		.loc 1 200 5 discriminator 5
 1337 00c4 9355D700 		srli	a1,a4,13
 1338 00c8 998F     		sub	a5,a5,a4
 1339              	.LVL184:
 1340              		.loc 1 200 5 discriminator 5
 1341 00ca AD8F     		xor	a5,a1,a5
 1342              	.LVL185:
 1343              		.loc 1 200 5 discriminator 5
 1344 00cc 998E     		sub	a3,a3,a4
 1345              	.LVL186:
 1346              		.loc 1 200 5 discriminator 5
 1347 00ce B385F640 		sub	a1,a3,a5
 1348              	.LVL187:
 1349              		.loc 1 200 5 discriminator 5
 1350 00d2 93D6C700 		srli	a3,a5,12
 1351 00d6 AD8E     		xor	a3,a3,a1
 1352              	.LVL188:
 1353              		.loc 1 200 5 discriminator 5
 1354 00d8 1D8F     		sub	a4,a4,a5
 1355              	.LVL189:
 1356              		.loc 1 200 5 discriminator 5
 1357 00da B305D740 		sub	a1,a4,a3
 1358              	.LVL190:
 1359              		.loc 1 200 5 discriminator 5
 1360 00de 13970601 		slli	a4,a3,16
 1361 00e2 2D8F     		xor	a4,a4,a1
 1362              	.LVL191:
 1363              		.loc 1 200 5 discriminator 5
 1364 00e4 958F     		sub	a5,a5,a3
 1365              	.LVL192:
 1366              		.loc 1 200 5 discriminator 5
 1367 00e6 B385E740 		sub	a1,a5,a4
 1368              	.LVL193:
 1369              		.loc 1 200 5 discriminator 5
 1370 00ea 93575700 		srli	a5,a4,5
 1371 00ee AD8F     		xor	a5,a5,a1
 1372              	.LVL194:
 1373              		.loc 1 200 5 discriminator 5
 1374 00f0 998E     		sub	a3,a3,a4
 1375              	.LVL195:
 1376              		.loc 1 200 5 discriminator 5
 1377 00f2 9D8E     		sub	a3,a3,a5
 1378              	.LVL196:
 1379              		.loc 1 200 5 discriminator 5
 1380 00f4 93D53700 		srli	a1,a5,3
 1381 00f8 B58D     		xor	a1,a1,a3
 1382              	.LVL197:
 1383              		.loc 1 200 5 discriminator 5
 1384 00fa 1D8F     		sub	a4,a4,a5
 1385              	.LVL198:
 1386              		.loc 1 200 5 discriminator 5
 1387 00fc 0D8F     		sub	a4,a4,a1
 1388              	.LVL199:
 1389              		.loc 1 200 5 discriminator 5
 1390 00fe 9396A500 		slli	a3,a1,10
 1391 0102 B98E     		xor	a3,a3,a4
 1392              	.LVL200:
 1393              		.loc 1 200 5 discriminator 5
 1394 0104 8D8F     		sub	a5,a5,a1
 1395              	.LVL201:
 1396              		.loc 1 200 5 discriminator 5
 1397 0106 958F     		sub	a5,a5,a3
 1398              	.LVL202:
 1399              		.loc 1 200 5 discriminator 5
 1400 0108 13D8F600 		srli	a6,a3,15
 1401 010c 3348F800 		xor	a6,a6,a5
 1402              	.LVL203:
 1403              		.loc 1 200 5 discriminator 5
 1404              		.loc 1 200 5 discriminator 5
 1405              		.loc 1 200 5 discriminator 5
 1406              		.loc 1 200 5 discriminator 5
 1407 0110 E310C5F4 		bne	a0,a2,.L110
 1408              		.loc 1 200 5 discriminator 6
 1409 0114 03C7F401 		lbu	a4,31(s1)
 1410 0118 03C6E401 		lbu	a2,30(s1)
 1411              	.LVL204:
 1412 011c 93070802 		addi	a5,a6,32
 1413              	.LVL205:
 1414              		.loc 1 200 5 discriminator 6
 1415              		.loc 1 200 5 discriminator 6
 1416              		.loc 1 200 5 discriminator 6
 1417              		.loc 1 200 5 discriminator 6
 1418              		.loc 1 200 5 discriminator 6
 1419 0120 6207     		slli	a4,a4,24
 1420 0122 4206     		slli	a2,a2,16
 1421              	.LVL206:
 1422 0124 3297     		add	a4,a4,a2
 1423 0126 03C6C401 		lbu	a2,28(s1)
 1424              	.LVL207:
 1425 012a 3297     		add	a4,a4,a2
 1426 012c 03C6D401 		lbu	a2,29(s1)
 1427 0130 2206     		slli	a2,a2,8
 1428 0132 3297     		add	a4,a4,a2
 1429 0134 3697     		add	a4,a4,a3
 1430              	.LVL208:
 1431              		.loc 1 200 5 discriminator 6
 1432              		.loc 1 200 5 discriminator 6
 1433              		.loc 1 200 5 discriminator 6
 1434              		.loc 1 200 5 discriminator 6
 1435              		.loc 1 200 5 discriminator 6
 1436              		.loc 1 200 5 discriminator 6
 1437              		.loc 1 200 5 discriminator 6
 1438              		.loc 1 200 5 discriminator 6
 1439 0136 03C6A401 		lbu	a2,26(s1)
 1440 013a 83C6B401 		lbu	a3,27(s1)
 1441 013e 4206     		slli	a2,a2,16
 1442              	.LVL209:
 1443 0140 E206     		slli	a3,a3,24
 1444 0142 B296     		add	a3,a3,a2
 1445 0144 03C68401 		lbu	a2,24(s1)
 1446              	.LVL210:
 1447 0148 B296     		add	a3,a3,a2
 1448 014a 03C69401 		lbu	a2,25(s1)
 1449              	.LVL211:
 1450 014e 2206     		slli	a2,a2,8
 1451 0150 B296     		add	a3,a3,a2
 1452 0152 AE96     		add	a3,a3,a1
 1453 0154 9D8E     		sub	a3,a3,a5
 1454 0156 13D6D700 		srli	a2,a5,13
 1455 015a 998E     		sub	a3,a3,a4
 1456              	.LVL212:
 1457              		.loc 1 200 5 discriminator 6
 1458 015c B18E     		xor	a3,a2,a3
 1459              	.LVL213:
 1460              		.loc 1 200 5 discriminator 6
 1461 015e 1D8F     		sub	a4,a4,a5
 1462              	.LVL214:
 1463              		.loc 1 200 5 discriminator 6
 1464 0160 13968600 		slli	a2,a3,8
 1465 0164 158F     		sub	a4,a4,a3
 1466              	.LVL215:
 1467              		.loc 1 200 5 discriminator 6
 1468 0166 318F     		xor	a4,a2,a4
 1469              	.LVL216:
 1470              		.loc 1 200 5 discriminator 6
 1471 0168 958F     		sub	a5,a5,a3
 1472              	.LVL217:
 1473              		.loc 1 200 5 discriminator 6
 1474 016a 3386E740 		sub	a2,a5,a4
 1475              	.LVL218:
 1476              		.loc 1 200 5 discriminator 6
 1477 016e 9357D700 		srli	a5,a4,13
 1478 0172 B18F     		xor	a5,a5,a2
 1479              	.LVL219:
 1480              		.loc 1 200 5 discriminator 6
 1481 0174 998E     		sub	a3,a3,a4
 1482              	.LVL220:
 1483              		.loc 1 200 5 discriminator 6
 1484 0176 3386F640 		sub	a2,a3,a5
 1485              	.LVL221:
 1486              		.loc 1 200 5 discriminator 6
 1487 017a 93D6C700 		srli	a3,a5,12
 1488 017e B18E     		xor	a3,a3,a2
 1489              	.LVL222:
 1490              		.loc 1 200 5 discriminator 6
 1491 0180 1D8F     		sub	a4,a4,a5
 1492              	.LVL223:
 1493              		.loc 1 200 5 discriminator 6
 1494 0182 3306D740 		sub	a2,a4,a3
 1495              	.LVL224:
 1496              		.loc 1 200 5 discriminator 6
 1497 0186 13970601 		slli	a4,a3,16
 1498 018a 318F     		xor	a4,a4,a2
 1499              	.LVL225:
 1500              		.loc 1 200 5 discriminator 6
 1501 018c 958F     		sub	a5,a5,a3
 1502              	.LVL226:
 1503              		.loc 1 200 5 discriminator 6
 1504 018e 3386E740 		sub	a2,a5,a4
 1505              	.LVL227:
 1506              		.loc 1 200 5 discriminator 6
 1507 0192 93575700 		srli	a5,a4,5
 1508 0196 B18F     		xor	a5,a5,a2
 1509              	.LVL228:
 1510              		.loc 1 200 5 discriminator 6
 1511 0198 998E     		sub	a3,a3,a4
 1512              	.LVL229:
 1513              		.loc 1 200 5 discriminator 6
 1514 019a 13D63700 		srli	a2,a5,3
 1515 019e 9D8E     		sub	a3,a3,a5
 1516              	.LVL230:
 1517              		.loc 1 200 5 discriminator 6
 1518 01a0 B18E     		xor	a3,a2,a3
 1519              	.LVL231:
 1520              		.loc 1 200 5 discriminator 6
 1521 01a2 1D8F     		sub	a4,a4,a5
 1522              	.LVL232:
 1523              		.loc 1 200 5 discriminator 6
 1524 01a4 1399A600 		slli	s2,a3,10
 1525 01a8 158F     		sub	a4,a4,a3
 1526              	.LVL233:
 1527              		.loc 1 200 5 discriminator 6
 1528 01aa 3347E900 		xor	a4,s2,a4
 1529              	.LVL234:
 1530              		.loc 1 200 5 discriminator 6
 1531 01ae 958F     		sub	a5,a5,a3
 1532              	.LVL235:
 1533              		.loc 1 200 5 discriminator 6
 1534 01b0 998F     		sub	a5,a5,a4
 1535              	.LVL236:
 1536              		.loc 1 200 5 discriminator 6
 1537 01b2 3D83     		srli	a4,a4,15
 1538              	.LVL237:
 1539 01b4 3349F700 		xor	s2,a4,a5
 1540              	.LVL238:
 1541              		.loc 1 200 5 discriminator 6
 1542              	.LBE41:
 1543              		.loc 1 200 5 discriminator 6
 1544              		.loc 1 200 5 discriminator 6
 1545              		.loc 1 200 5 discriminator 6
 1546              		.loc 1 200 5 discriminator 6
 1547              		.loc 1 200 5 discriminator 6
 1548              	.LBB42:
 1549              		.loc 1 200 5 discriminator 6
 1550              		.loc 1 200 5 discriminator 6
 1551              		.loc 1 200 5 discriminator 6
 1552 01b8 1840     		lw	a4,0(s0)
 1553              	.LVL239:
 1554              		.loc 1 200 5 discriminator 6
 1555              		.loc 1 200 5 discriminator 6
 1556              		.loc 1 200 5 discriminator 6
 1557              		.loc 1 200 5 discriminator 6
 1558 01ba 3146     		li	a2,12
 1559 01bc 5C43     		lw	a5,4(a4)
 1560 01be 1443     		lw	a3,0(a4)
 1561              	.LVL240:
 1562 01c0 FD17     		addi	a5,a5,-1
 1563 01c2 B3F72701 		and	a5,a5,s2
 1564              	.LVL241:
 1565 01c6 FF96C7C4 		maddr32	a3, a5, a2
 1566 01ca 8042     		lw	s0,0(a3)
 1567 01cc 31C4     		beq	s0,zero,.L107
 1568              		.loc 1 200 5 discriminator 34
 1569              		.loc 1 200 5 discriminator 34
 1570 01ce 5C4B     		lw	a5,20(a4)
 1571              	.LVL242:
 1572 01d0 130A0002 		li	s4,32
 1573 01d4 B309F040 		neg	s3,a5
 1574 01d8 1D8C     		sub	s0,s0,a5
 1575              	.LVL243:
 1576              		.loc 1 200 5 discriminator 34
 1577              		.loc 1 200 5 discriminator 34
 1578              	.L113:
 1579              		.loc 1 200 5 discriminator 48
 1580 01da 5C4C     		lw	a5,28(s0)
 1581 01dc 639E2701 		bne	a5,s2,.L111
 1582              		.loc 1 200 5 is_stmt 0 discriminator 38
 1583 01e0 1C4C     		lw	a5,24(s0)
 1584 01e2 639B4701 		bne	a5,s4,.L111
 1585              		.loc 1 200 5 is_stmt 1 discriminator 40
 1586 01e6 4848     		lw	a0,20(s0)
 1587 01e8 13060002 		li	a2,32
 1588 01ec A685     		mv	a1,s1
 1589 01ee 97000000 		call	memcmp
 1589      E7800000 
 1590              	.LVL244:
 1591 01f6 09C5     		beq	a0,zero,.L112
 1592              	.L111:
 1593              		.loc 1 200 5 discriminator 43
 1594 01f8 0048     		lw	s0,16(s0)
 1595              	.LVL245:
 1596 01fa 19CC     		beq	s0,zero,.L107
 1597              		.loc 1 200 5 discriminator 44
 1598              		.loc 1 200 5 discriminator 44
 1599 01fc 4E94     		add	s0,s0,s3
 1600              	.LVL246:
 1601              		.loc 1 200 5 discriminator 44
 1602              		.loc 1 200 5 discriminator 44
 1603 01fe F1BF     		j	.L113
 1604              	.L112:
 1605              		.loc 1 200 5
 1606              	.LBE42:
 1607              		.loc 1 200 5
 1608              	.LBE43:
 1609              		.loc 1 200 5
 201:C:/Users/stapi/OneDrive/Desktop/GD32VW553/V1_MQTT_OK/GD32VW55X_Wifi_BLE_SDK/GD32VW55x_RELEASE_V1.0.2/MSDK/lwip/libcoap-4.3.4/src\coap_cache.c ****   }
 202:C:/Users/stapi/OneDrive/Desktop/GD32VW553/V1_MQTT_OK/GD32VW55X_Wifi_BLE_SDK/GD32VW55x_RELEASE_V1.0.2/MSDK/lwip/libcoap-4.3.4/src\coap_cache.c ****   if (cache_entry && cache_entry->idle_timeout > 0) {
 1610              		.loc 1 202 3
 1611              		.loc 1 202 19 is_stmt 0
 1612 0200 5C58     		lw	a5,52(s0)
 1613 0202 99CB     		beq	a5,zero,.L107
 203:C:/Users/stapi/OneDrive/Desktop/GD32VW553/V1_MQTT_OK/GD32VW55X_Wifi_BLE_SDK/GD32VW55x_RELEASE_V1.0.2/MSDK/lwip/libcoap-4.3.4/src\coap_cache.c ****     coap_ticks(&cache_entry->expire_ticks);
 1614              		.loc 1 203 5 is_stmt 1
 1615              	.LVL247:
 1616              	.LBB44:
 1617              	.LBB45:
 1618              		.loc 2 41 3
 1619              		.loc 2 41 8 is_stmt 0
 1620 0204 97000000 		call	sys_now
 1620      E7800000 
 1621              	.LVL248:
 1622              	.LBE45:
 1623              	.LBE44:
 204:C:/Users/stapi/OneDrive/Desktop/GD32VW553/V1_MQTT_OK/GD32VW55X_Wifi_BLE_SDK/GD32VW55x_RELEASE_V1.0.2/MSDK/lwip/libcoap-4.3.4/src\coap_cache.c ****     cache_entry->expire_ticks += cache_entry->idle_timeout * COAP_TICKS_PER_SECOND;
 1624              		.loc 1 204 5 is_stmt 1
 1625              		.loc 1 204 60 is_stmt 0
 1626 020c 5C58     		lw	a5,52(s0)
 1627              		.loc 1 204 31
 1628 020e 1307803E 		li	a4,1000
 1629 0212 7F15F7C4 		maddr32	a0, a4, a5
 1630 0216 08D8     		sw	a0,48(s0)
 1631              	.LVL249:
 205:C:/Users/stapi/OneDrive/Desktop/GD32VW553/V1_MQTT_OK/GD32VW55X_Wifi_BLE_SDK/GD32VW55x_RELEASE_V1.0.2/MSDK/lwip/libcoap-4.3.4/src\coap_cache.c ****   }
 206:C:/Users/stapi/OneDrive/Desktop/GD32VW553/V1_MQTT_OK/GD32VW55X_Wifi_BLE_SDK/GD32VW55x_RELEASE_V1.0.2/MSDK/lwip/libcoap-4.3.4/src\coap_cache.c ****   return cache_entry;
 1632              		.loc 1 206 3 is_stmt 1
 1633              	.L107:
 207:C:/Users/stapi/OneDrive/Desktop/GD32VW553/V1_MQTT_OK/GD32VW55X_Wifi_BLE_SDK/GD32VW55x_RELEASE_V1.0.2/MSDK/lwip/libcoap-4.3.4/src\coap_cache.c **** }
 1634              		.loc 1 207 1 is_stmt 0
 1635 0218 2285     		mv	a0,s0
 1636 021a 17030000 		tail	__riscv_restore_5
 1636      67000300 
 1637              		.cfi_restore 20
 1638              		.cfi_restore 19
 1639              		.cfi_restore 18
 1640              		.cfi_restore 9
 1641              		.cfi_restore 8
 1642              		.cfi_restore 1
 1643              		.cfi_def_cfa_offset 0
 1644              		.cfi_endproc
 1645              	.LFE37:
 1647              		.section	.text.coap_cache_get_by_pdu,"ax",@progbits
 1648              		.align	1
 1649              		.globl	coap_cache_get_by_pdu
 1651              	coap_cache_get_by_pdu:
 1652              	.LFB38:
 208:C:/Users/stapi/OneDrive/Desktop/GD32VW553/V1_MQTT_OK/GD32VW55X_Wifi_BLE_SDK/GD32VW55x_RELEASE_V1.0.2/MSDK/lwip/libcoap-4.3.4/src\coap_cache.c **** 
 209:C:/Users/stapi/OneDrive/Desktop/GD32VW553/V1_MQTT_OK/GD32VW55X_Wifi_BLE_SDK/GD32VW55x_RELEASE_V1.0.2/MSDK/lwip/libcoap-4.3.4/src\coap_cache.c **** coap_cache_entry_t *
 210:C:/Users/stapi/OneDrive/Desktop/GD32VW553/V1_MQTT_OK/GD32VW55X_Wifi_BLE_SDK/GD32VW55x_RELEASE_V1.0.2/MSDK/lwip/libcoap-4.3.4/src\coap_cache.c **** coap_cache_get_by_pdu(coap_session_t *session,
 211:C:/Users/stapi/OneDrive/Desktop/GD32VW553/V1_MQTT_OK/GD32VW55X_Wifi_BLE_SDK/GD32VW55x_RELEASE_V1.0.2/MSDK/lwip/libcoap-4.3.4/src\coap_cache.c ****                       const coap_pdu_t *request,
 212:C:/Users/stapi/OneDrive/Desktop/GD32VW553/V1_MQTT_OK/GD32VW55X_Wifi_BLE_SDK/GD32VW55x_RELEASE_V1.0.2/MSDK/lwip/libcoap-4.3.4/src\coap_cache.c ****                       coap_cache_session_based_t session_based) {
 1653              		.loc 1 212 65 is_stmt 1
 1654              		.cfi_startproc
 1655              	.LVL250:
 1656 0000 17030000 		call	t0,__riscv_save_2
 1656      E7020300 
 1657              		.cfi_offset 9, -12
 1658              		.cfi_offset 8, -8
 1659              		.cfi_offset 1, -4
 1660              		.cfi_def_cfa_offset 16
 213:C:/Users/stapi/OneDrive/Desktop/GD32VW553/V1_MQTT_OK/GD32VW55X_Wifi_BLE_SDK/GD32VW55x_RELEASE_V1.0.2/MSDK/lwip/libcoap-4.3.4/src\coap_cache.c ****   coap_cache_key_t *cache_key = coap_cache_derive_key(session, request, session_based);
 1661              		.loc 1 213 3
 212:C:/Users/stapi/OneDrive/Desktop/GD32VW553/V1_MQTT_OK/GD32VW55X_Wifi_BLE_SDK/GD32VW55x_RELEASE_V1.0.2/MSDK/lwip/libcoap-4.3.4/src\coap_cache.c ****   coap_cache_key_t *cache_key = coap_cache_derive_key(session, request, session_based);
 1662              		.loc 1 212 65 is_stmt 0
 1663 0008 2A84     		mv	s0,a0
 1664              		.loc 1 213 33
 1665 000a 97000000 		call	coap_cache_derive_key
 1665      E7800000 
 1666              	.LVL251:
 214:C:/Users/stapi/OneDrive/Desktop/GD32VW553/V1_MQTT_OK/GD32VW55X_Wifi_BLE_SDK/GD32VW55x_RELEASE_V1.0.2/MSDK/lwip/libcoap-4.3.4/src\coap_cache.c ****   coap_cache_entry_t *cache_entry;
 1667              		.loc 1 214 3 is_stmt 1
 215:C:/Users/stapi/OneDrive/Desktop/GD32VW553/V1_MQTT_OK/GD32VW55X_Wifi_BLE_SDK/GD32VW55x_RELEASE_V1.0.2/MSDK/lwip/libcoap-4.3.4/src\coap_cache.c **** 
 216:C:/Users/stapi/OneDrive/Desktop/GD32VW553/V1_MQTT_OK/GD32VW55X_Wifi_BLE_SDK/GD32VW55x_RELEASE_V1.0.2/MSDK/lwip/libcoap-4.3.4/src\coap_cache.c ****   if (!cache_key)
 1668              		.loc 1 216 3
 1669              		.loc 1 216 6 is_stmt 0
 1670 0012 19E5     		bne	a0,zero,.L127
 1671              	.LVL252:
 1672              	.L129:
 217:C:/Users/stapi/OneDrive/Desktop/GD32VW553/V1_MQTT_OK/GD32VW55X_Wifi_BLE_SDK/GD32VW55x_RELEASE_V1.0.2/MSDK/lwip/libcoap-4.3.4/src\coap_cache.c ****     return NULL;
 1673              		.loc 1 217 12
 1674 0014 0144     		li	s0,0
 1675              	.L126:
 218:C:/Users/stapi/OneDrive/Desktop/GD32VW553/V1_MQTT_OK/GD32VW55X_Wifi_BLE_SDK/GD32VW55x_RELEASE_V1.0.2/MSDK/lwip/libcoap-4.3.4/src\coap_cache.c **** 
 219:C:/Users/stapi/OneDrive/Desktop/GD32VW553/V1_MQTT_OK/GD32VW55X_Wifi_BLE_SDK/GD32VW55x_RELEASE_V1.0.2/MSDK/lwip/libcoap-4.3.4/src\coap_cache.c ****   cache_entry = coap_cache_get_by_key(session->context, cache_key);
 220:C:/Users/stapi/OneDrive/Desktop/GD32VW553/V1_MQTT_OK/GD32VW55X_Wifi_BLE_SDK/GD32VW55x_RELEASE_V1.0.2/MSDK/lwip/libcoap-4.3.4/src\coap_cache.c ****   coap_delete_cache_key(cache_key);
 221:C:/Users/stapi/OneDrive/Desktop/GD32VW553/V1_MQTT_OK/GD32VW55X_Wifi_BLE_SDK/GD32VW55x_RELEASE_V1.0.2/MSDK/lwip/libcoap-4.3.4/src\coap_cache.c ****   if (cache_entry && cache_entry->idle_timeout > 0) {
 222:C:/Users/stapi/OneDrive/Desktop/GD32VW553/V1_MQTT_OK/GD32VW55X_Wifi_BLE_SDK/GD32VW55x_RELEASE_V1.0.2/MSDK/lwip/libcoap-4.3.4/src\coap_cache.c ****     coap_ticks(&cache_entry->expire_ticks);
 223:C:/Users/stapi/OneDrive/Desktop/GD32VW553/V1_MQTT_OK/GD32VW55X_Wifi_BLE_SDK/GD32VW55x_RELEASE_V1.0.2/MSDK/lwip/libcoap-4.3.4/src\coap_cache.c ****     cache_entry->expire_ticks += cache_entry->idle_timeout * COAP_TICKS_PER_SECOND;
 224:C:/Users/stapi/OneDrive/Desktop/GD32VW553/V1_MQTT_OK/GD32VW55X_Wifi_BLE_SDK/GD32VW55x_RELEASE_V1.0.2/MSDK/lwip/libcoap-4.3.4/src\coap_cache.c ****   }
 225:C:/Users/stapi/OneDrive/Desktop/GD32VW553/V1_MQTT_OK/GD32VW55X_Wifi_BLE_SDK/GD32VW55x_RELEASE_V1.0.2/MSDK/lwip/libcoap-4.3.4/src\coap_cache.c ****   return cache_entry;
 226:C:/Users/stapi/OneDrive/Desktop/GD32VW553/V1_MQTT_OK/GD32VW55X_Wifi_BLE_SDK/GD32VW55x_RELEASE_V1.0.2/MSDK/lwip/libcoap-4.3.4/src\coap_cache.c **** }
 1676              		.loc 1 226 1
 1677 0016 2285     		mv	a0,s0
 1678 0018 17030000 		tail	__riscv_restore_2
 1678      67000300 
 1679              		.cfi_remember_state
 1680              		.cfi_restore 9
 1681              		.cfi_restore 8
 1682              		.cfi_restore 1
 1683              		.cfi_def_cfa_offset 0
 1684              	.LVL253:
 1685              	.L127:
 1686              		.cfi_restore_state
 1687 0020 AA84     		mv	s1,a0
 219:C:/Users/stapi/OneDrive/Desktop/GD32VW553/V1_MQTT_OK/GD32VW55X_Wifi_BLE_SDK/GD32VW55x_RELEASE_V1.0.2/MSDK/lwip/libcoap-4.3.4/src\coap_cache.c ****   coap_delete_cache_key(cache_key);
 1688              		.loc 1 219 3 is_stmt 1
 219:C:/Users/stapi/OneDrive/Desktop/GD32VW553/V1_MQTT_OK/GD32VW55X_Wifi_BLE_SDK/GD32VW55x_RELEASE_V1.0.2/MSDK/lwip/libcoap-4.3.4/src\coap_cache.c ****   coap_delete_cache_key(cache_key);
 1689              		.loc 1 219 17 is_stmt 0
 1690 0022 AA85     		mv	a1,a0
 1691 0024 0325C40A 		lw	a0,172(s0)
 1692              	.LVL254:
 1693 0028 97000000 		call	coap_cache_get_by_key
 1693      E7800000 
 1694              	.LVL255:
 1695 0030 2A84     		mv	s0,a0
 1696              	.LVL256:
 220:C:/Users/stapi/OneDrive/Desktop/GD32VW553/V1_MQTT_OK/GD32VW55X_Wifi_BLE_SDK/GD32VW55x_RELEASE_V1.0.2/MSDK/lwip/libcoap-4.3.4/src\coap_cache.c ****   if (cache_entry && cache_entry->idle_timeout > 0) {
 1697              		.loc 1 220 3 is_stmt 1
 1698 0032 2685     		mv	a0,s1
 1699 0034 97000000 		call	coap_delete_cache_key
 1699      E7800000 
 1700              	.LVL257:
 221:C:/Users/stapi/OneDrive/Desktop/GD32VW553/V1_MQTT_OK/GD32VW55X_Wifi_BLE_SDK/GD32VW55x_RELEASE_V1.0.2/MSDK/lwip/libcoap-4.3.4/src\coap_cache.c ****     coap_ticks(&cache_entry->expire_ticks);
 1701              		.loc 1 221 3
 221:C:/Users/stapi/OneDrive/Desktop/GD32VW553/V1_MQTT_OK/GD32VW55X_Wifi_BLE_SDK/GD32VW55x_RELEASE_V1.0.2/MSDK/lwip/libcoap-4.3.4/src\coap_cache.c ****     coap_ticks(&cache_entry->expire_ticks);
 1702              		.loc 1 221 6 is_stmt 0
 1703 003c 61DC     		beq	s0,zero,.L129
 221:C:/Users/stapi/OneDrive/Desktop/GD32VW553/V1_MQTT_OK/GD32VW55X_Wifi_BLE_SDK/GD32VW55x_RELEASE_V1.0.2/MSDK/lwip/libcoap-4.3.4/src\coap_cache.c ****     coap_ticks(&cache_entry->expire_ticks);
 1704              		.loc 1 221 19 discriminator 1
 1705 003e 5C58     		lw	a5,52(s0)
 1706 0040 F9DB     		beq	a5,zero,.L126
 222:C:/Users/stapi/OneDrive/Desktop/GD32VW553/V1_MQTT_OK/GD32VW55X_Wifi_BLE_SDK/GD32VW55x_RELEASE_V1.0.2/MSDK/lwip/libcoap-4.3.4/src\coap_cache.c ****     cache_entry->expire_ticks += cache_entry->idle_timeout * COAP_TICKS_PER_SECOND;
 1707              		.loc 1 222 5 is_stmt 1
 1708              	.LVL258:
 1709              	.LBB48:
 1710              	.LBB49:
 1711              		.loc 2 41 3
 1712              		.loc 2 41 8 is_stmt 0
 1713 0042 97000000 		call	sys_now
 1713      E7800000 
 1714              	.LVL259:
 1715              	.LBE49:
 1716              	.LBE48:
 223:C:/Users/stapi/OneDrive/Desktop/GD32VW553/V1_MQTT_OK/GD32VW55X_Wifi_BLE_SDK/GD32VW55x_RELEASE_V1.0.2/MSDK/lwip/libcoap-4.3.4/src\coap_cache.c ****   }
 1717              		.loc 1 223 5 is_stmt 1
 223:C:/Users/stapi/OneDrive/Desktop/GD32VW553/V1_MQTT_OK/GD32VW55X_Wifi_BLE_SDK/GD32VW55x_RELEASE_V1.0.2/MSDK/lwip/libcoap-4.3.4/src\coap_cache.c ****   }
 1718              		.loc 1 223 60 is_stmt 0
 1719 004a 5C58     		lw	a5,52(s0)
 223:C:/Users/stapi/OneDrive/Desktop/GD32VW553/V1_MQTT_OK/GD32VW55X_Wifi_BLE_SDK/GD32VW55x_RELEASE_V1.0.2/MSDK/lwip/libcoap-4.3.4/src\coap_cache.c ****   }
 1720              		.loc 1 223 31
 1721 004c 1307803E 		li	a4,1000
 1722 0050 7F15F7C4 		maddr32	a0, a4, a5
 1723 0054 08D8     		sw	a0,48(s0)
 1724 0056 C1B7     		j	.L126
 1725              		.cfi_endproc
 1726              	.LFE38:
 1728              		.section	.rodata.coap_delete_cache_entry.str1.4,"aMS",@progbits,1
 1729              		.align	2
 1730              	.LC4:
 1731 0000 63616368 		.string	"cache_entry"
 1731      655F656E 
 1731      74727900 
 1732              		.section	.text.coap_delete_cache_entry,"ax",@progbits
 1733              		.align	1
 1734              		.globl	coap_delete_cache_entry
 1736              	coap_delete_cache_entry:
 1737              	.LFB39:
 227:C:/Users/stapi/OneDrive/Desktop/GD32VW553/V1_MQTT_OK/GD32VW55X_Wifi_BLE_SDK/GD32VW55x_RELEASE_V1.0.2/MSDK/lwip/libcoap-4.3.4/src\coap_cache.c **** 
 228:C:/Users/stapi/OneDrive/Desktop/GD32VW553/V1_MQTT_OK/GD32VW55X_Wifi_BLE_SDK/GD32VW55x_RELEASE_V1.0.2/MSDK/lwip/libcoap-4.3.4/src\coap_cache.c **** void
 229:C:/Users/stapi/OneDrive/Desktop/GD32VW553/V1_MQTT_OK/GD32VW55X_Wifi_BLE_SDK/GD32VW55x_RELEASE_V1.0.2/MSDK/lwip/libcoap-4.3.4/src\coap_cache.c **** coap_delete_cache_entry(coap_context_t *ctx, coap_cache_entry_t *cache_entry) {
 1738              		.loc 1 229 79 is_stmt 1
 1739              		.cfi_startproc
 1740              	.LVL260:
 1741 0000 17030000 		call	t0,__riscv_save_2
 1741      E7020300 
 1742              		.cfi_offset 9, -12
 1743              		.cfi_offset 8, -8
 1744              		.cfi_offset 1, -4
 1745              		.cfi_def_cfa_offset 16
 230:C:/Users/stapi/OneDrive/Desktop/GD32VW553/V1_MQTT_OK/GD32VW55X_Wifi_BLE_SDK/GD32VW55x_RELEASE_V1.0.2/MSDK/lwip/libcoap-4.3.4/src\coap_cache.c **** 
 231:C:/Users/stapi/OneDrive/Desktop/GD32VW553/V1_MQTT_OK/GD32VW55X_Wifi_BLE_SDK/GD32VW55x_RELEASE_V1.0.2/MSDK/lwip/libcoap-4.3.4/src\coap_cache.c ****   assert(cache_entry);
 1746              		.loc 1 231 3
 1747 0008 9DE1     		bne	a1,zero,.L138
 1748              		.loc 1 231 3 is_stmt 0 discriminator 1
 1749 000a B7060000 		lui	a3,%hi(.LC4)
 1750 000e 37060000 		lui	a2,%hi(.LANCHOR2)
 1751 0012 37050000 		lui	a0,%hi(.LC1)
 1752              	.LVL261:
 1753 0016 93860600 		addi	a3,a3,%lo(.LC4)
 1754 001a 13060600 		addi	a2,a2,%lo(.LANCHOR2)
 1755 001e 9305700E 		li	a1,231
 1756              	.LVL262:
 1757 0022 13050500 		addi	a0,a0,%lo(.LC1)
 1758 0026 97000000 		call	__assert_func
 1758      E7800000 
 1759              	.LVL263:
 1760              	.L138:
 1761              	.LBB50:
 232:C:/Users/stapi/OneDrive/Desktop/GD32VW553/V1_MQTT_OK/GD32VW55X_Wifi_BLE_SDK/GD32VW55x_RELEASE_V1.0.2/MSDK/lwip/libcoap-4.3.4/src\coap_cache.c **** 
 233:C:/Users/stapi/OneDrive/Desktop/GD32VW553/V1_MQTT_OK/GD32VW55X_Wifi_BLE_SDK/GD32VW55x_RELEASE_V1.0.2/MSDK/lwip/libcoap-4.3.4/src\coap_cache.c ****   if (cache_entry) {
 234:C:/Users/stapi/OneDrive/Desktop/GD32VW553/V1_MQTT_OK/GD32VW55X_Wifi_BLE_SDK/GD32VW55x_RELEASE_V1.0.2/MSDK/lwip/libcoap-4.3.4/src\coap_cache.c ****     HASH_DELETE(hh, ctx->cache, cache_entry);
 1762              		.loc 1 234 5
 1763 002e 0327850B 		lw	a4,184(a0)
 1764 0032 DC41     		lw	a5,4(a1)
 1765 0034 9445     		lw	a3,8(a1)
 1766 0036 1843     		lw	a4,0(a4)
 1767 0038 AA84     		mv	s1,a0
 1768 003a 2E84     		mv	s0,a1
 1769              	.LBE50:
 233:C:/Users/stapi/OneDrive/Desktop/GD32VW553/V1_MQTT_OK/GD32VW55X_Wifi_BLE_SDK/GD32VW55x_RELEASE_V1.0.2/MSDK/lwip/libcoap-4.3.4/src\coap_cache.c ****     HASH_DELETE(hh, ctx->cache, cache_entry);
 1770              		.loc 1 233 3 is_stmt 1
 1771              		.loc 1 234 5
 1772              	.LBB55:
 1773              		.loc 1 234 5
 1774              	.LVL264:
 1775              		.loc 1 234 5
 1776 003c B1EB     		bne	a5,zero,.L139
 1777              	.LVL265:
 1778              		.loc 1 234 5 is_stmt 0 discriminator 1
 1779 003e A9EA     		bne	a3,zero,.L139
 1780              		.loc 1 234 5 is_stmt 1 discriminator 3
 1781              		.loc 1 234 5 discriminator 3
 1782 0040 0843     		lw	a0,0(a4)
 1783 0042 97000000 		call	free
 1783      E7800000 
 1784              	.LVL266:
 1785              		.loc 1 234 5 discriminator 3
 1786 004a 83A7840B 		lw	a5,184(s1)
 1787 004e 8843     		lw	a0,0(a5)
 1788 0050 97000000 		call	free
 1788      E7800000 
 1789              	.LVL267:
 1790              		.loc 1 234 5 discriminator 3
 1791 0058 23AC040A 		sw	zero,184(s1)
 1792              	.L140:
 1793              		.loc 1 234 5 discriminator 25
 1794              	.LBE55:
 1795              		.loc 1 234 5 discriminator 25
 235:C:/Users/stapi/OneDrive/Desktop/GD32VW553/V1_MQTT_OK/GD32VW55X_Wifi_BLE_SDK/GD32VW55x_RELEASE_V1.0.2/MSDK/lwip/libcoap-4.3.4/src\coap_cache.c ****   }
 236:C:/Users/stapi/OneDrive/Desktop/GD32VW553/V1_MQTT_OK/GD32VW55X_Wifi_BLE_SDK/GD32VW55x_RELEASE_V1.0.2/MSDK/lwip/libcoap-4.3.4/src\coap_cache.c ****   if (cache_entry->pdu) {
 1796              		.loc 1 236 3 discriminator 25
 1797              		.loc 1 236 18 is_stmt 0 discriminator 25
 1798 005c 0854     		lw	a0,40(s0)
 1799              		.loc 1 236 6 discriminator 25
 1800 005e 09C5     		beq	a0,zero,.L148
 237:C:/Users/stapi/OneDrive/Desktop/GD32VW553/V1_MQTT_OK/GD32VW55X_Wifi_BLE_SDK/GD32VW55x_RELEASE_V1.0.2/MSDK/lwip/libcoap-4.3.4/src\coap_cache.c ****     coap_delete_pdu(cache_entry->pdu);
 1801              		.loc 1 237 5 is_stmt 1
 1802 0060 97000000 		call	coap_delete_pdu
 1802      E7800000 
 1803              	.LVL268:
 1804              	.L148:
 238:C:/Users/stapi/OneDrive/Desktop/GD32VW553/V1_MQTT_OK/GD32VW55X_Wifi_BLE_SDK/GD32VW55x_RELEASE_V1.0.2/MSDK/lwip/libcoap-4.3.4/src\coap_cache.c ****   }
 239:C:/Users/stapi/OneDrive/Desktop/GD32VW553/V1_MQTT_OK/GD32VW55X_Wifi_BLE_SDK/GD32VW55x_RELEASE_V1.0.2/MSDK/lwip/libcoap-4.3.4/src\coap_cache.c ****   coap_delete_cache_key(cache_entry->cache_key);
 1805              		.loc 1 239 3
 1806 0068 0850     		lw	a0,32(s0)
 1807 006a 97000000 		call	coap_delete_cache_key
 1807      E7800000 
 1808              	.LVL269:
 240:C:/Users/stapi/OneDrive/Desktop/GD32VW553/V1_MQTT_OK/GD32VW55X_Wifi_BLE_SDK/GD32VW55x_RELEASE_V1.0.2/MSDK/lwip/libcoap-4.3.4/src\coap_cache.c ****   if (cache_entry->callback && cache_entry->app_data) {
 1809              		.loc 1 240 3
 1810              		.loc 1 240 18 is_stmt 0
 1811 0072 1C5C     		lw	a5,56(s0)
 1812              		.loc 1 240 6
 1813 0074 81C7     		beq	a5,zero,.L149
 1814              		.loc 1 240 43 discriminator 1
 1815 0076 4854     		lw	a0,44(s0)
 1816              		.loc 1 240 29 discriminator 1
 1817 0078 11C1     		beq	a0,zero,.L149
 241:C:/Users/stapi/OneDrive/Desktop/GD32VW553/V1_MQTT_OK/GD32VW55X_Wifi_BLE_SDK/GD32VW55x_RELEASE_V1.0.2/MSDK/lwip/libcoap-4.3.4/src\coap_cache.c ****     cache_entry->callback(cache_entry->app_data);
 1818              		.loc 1 241 5 is_stmt 1
 1819 007a 8297     		jalr	a5
 1820              	.LVL270:
 1821              	.L149:
 242:C:/Users/stapi/OneDrive/Desktop/GD32VW553/V1_MQTT_OK/GD32VW55X_Wifi_BLE_SDK/GD32VW55x_RELEASE_V1.0.2/MSDK/lwip/libcoap-4.3.4/src\coap_cache.c ****   }
 243:C:/Users/stapi/OneDrive/Desktop/GD32VW553/V1_MQTT_OK/GD32VW55X_Wifi_BLE_SDK/GD32VW55x_RELEASE_V1.0.2/MSDK/lwip/libcoap-4.3.4/src\coap_cache.c ****   coap_free_type(COAP_CACHE_ENTRY, cache_entry);
 1822              		.loc 1 243 3
 1823 007c A285     		mv	a1,s0
 1824 007e 3D45     		li	a0,15
 1825 0080 97000000 		call	coap_free_type
 1825      E7800000 
 1826              	.LVL271:
 244:C:/Users/stapi/OneDrive/Desktop/GD32VW553/V1_MQTT_OK/GD32VW55X_Wifi_BLE_SDK/GD32VW55x_RELEASE_V1.0.2/MSDK/lwip/libcoap-4.3.4/src\coap_cache.c **** }
 1827              		.loc 1 244 1 is_stmt 0
 1828 0088 17030000 		tail	__riscv_restore_2
 1828      67000300 
 1829              		.cfi_remember_state
 1830              		.cfi_restore 9
 1831              		.cfi_restore 8
 1832              		.cfi_restore 1
 1833              		.cfi_def_cfa_offset 0
 1834              	.L139:
 1835              		.cfi_restore_state
 1836              	.LBB56:
 1837              	.LBB51:
 234:C:/Users/stapi/OneDrive/Desktop/GD32VW553/V1_MQTT_OK/GD32VW55X_Wifi_BLE_SDK/GD32VW55x_RELEASE_V1.0.2/MSDK/lwip/libcoap-4.3.4/src\coap_cache.c ****   }
 1838              		.loc 1 234 5 is_stmt 1 discriminator 4
 234:C:/Users/stapi/OneDrive/Desktop/GD32VW553/V1_MQTT_OK/GD32VW55X_Wifi_BLE_SDK/GD32VW55x_RELEASE_V1.0.2/MSDK/lwip/libcoap-4.3.4/src\coap_cache.c ****   }
 1839              		.loc 1 234 5 discriminator 4
 1840 0090 104B     		lw	a2,16(a4)
 1841 0092 63158600 		bne	a2,s0,.L141
 234:C:/Users/stapi/OneDrive/Desktop/GD32VW553/V1_MQTT_OK/GD32VW55X_Wifi_BLE_SDK/GD32VW55x_RELEASE_V1.0.2/MSDK/lwip/libcoap-4.3.4/src\coap_cache.c ****   }
 1842              		.loc 1 234 5 discriminator 6
 1843 0096 504B     		lw	a2,20(a4)
 1844 0098 3E96     		add	a2,a5,a2
 1845 009a 10CB     		sw	a2,16(a4)
 1846              	.L141:
 234:C:/Users/stapi/OneDrive/Desktop/GD32VW553/V1_MQTT_OK/GD32VW55X_Wifi_BLE_SDK/GD32VW55x_RELEASE_V1.0.2/MSDK/lwip/libcoap-4.3.4/src\coap_cache.c ****   }
 1847              		.loc 1 234 5 discriminator 8
 1848 009c B1C7     		beq	a5,zero,.L142
 234:C:/Users/stapi/OneDrive/Desktop/GD32VW553/V1_MQTT_OK/GD32VW55X_Wifi_BLE_SDK/GD32VW55x_RELEASE_V1.0.2/MSDK/lwip/libcoap-4.3.4/src\coap_cache.c ****   }
 1849              		.loc 1 234 5 discriminator 9
 1850 009e 584B     		lw	a4,20(a4)
 1851 00a0 3E97     		add	a4,a5,a4
 1852 00a2 14C7     		sw	a3,8(a4)
 1853              	.L143:
 234:C:/Users/stapi/OneDrive/Desktop/GD32VW553/V1_MQTT_OK/GD32VW55X_Wifi_BLE_SDK/GD32VW55x_RELEASE_V1.0.2/MSDK/lwip/libcoap-4.3.4/src\coap_cache.c ****   }
 1854              		.loc 1 234 5 discriminator 12
 234:C:/Users/stapi/OneDrive/Desktop/GD32VW553/V1_MQTT_OK/GD32VW55X_Wifi_BLE_SDK/GD32VW55x_RELEASE_V1.0.2/MSDK/lwip/libcoap-4.3.4/src\coap_cache.c ****   }
 1855              		.loc 1 234 5 discriminator 12
 1856 00a4 03A7840B 		lw	a4,184(s1)
 1857 00a8 1444     		lw	a3,8(s0)
 1858 00aa 1843     		lw	a4,0(a4)
 1859 00ac 81C6     		beq	a3,zero,.L144
 234:C:/Users/stapi/OneDrive/Desktop/GD32VW553/V1_MQTT_OK/GD32VW55X_Wifi_BLE_SDK/GD32VW55x_RELEASE_V1.0.2/MSDK/lwip/libcoap-4.3.4/src\coap_cache.c ****   }
 1860              		.loc 1 234 5 discriminator 13
 1861 00ae 504B     		lw	a2,20(a4)
 1862 00b0 B296     		add	a3,a3,a2
 1863 00b2 DCC2     		sw	a5,4(a3)
 1864              	.L144:
 234:C:/Users/stapi/OneDrive/Desktop/GD32VW553/V1_MQTT_OK/GD32VW55X_Wifi_BLE_SDK/GD32VW55x_RELEASE_V1.0.2/MSDK/lwip/libcoap-4.3.4/src\coap_cache.c ****   }
 1865              		.loc 1 234 5 discriminator 15
 234:C:/Users/stapi/OneDrive/Desktop/GD32VW553/V1_MQTT_OK/GD32VW55X_Wifi_BLE_SDK/GD32VW55x_RELEASE_V1.0.2/MSDK/lwip/libcoap-4.3.4/src\coap_cache.c ****   }
 1866              		.loc 1 234 5 discriminator 15
 1867              	.LVL272:
 234:C:/Users/stapi/OneDrive/Desktop/GD32VW553/V1_MQTT_OK/GD32VW55X_Wifi_BLE_SDK/GD32VW55x_RELEASE_V1.0.2/MSDK/lwip/libcoap-4.3.4/src\coap_cache.c ****   }
 1868              		.loc 1 234 5 discriminator 15
 234:C:/Users/stapi/OneDrive/Desktop/GD32VW553/V1_MQTT_OK/GD32VW55X_Wifi_BLE_SDK/GD32VW55x_RELEASE_V1.0.2/MSDK/lwip/libcoap-4.3.4/src\coap_cache.c ****   }
 1869              		.loc 1 234 5 discriminator 15
 1870              	.LBB52:
 234:C:/Users/stapi/OneDrive/Desktop/GD32VW553/V1_MQTT_OK/GD32VW55X_Wifi_BLE_SDK/GD32VW55x_RELEASE_V1.0.2/MSDK/lwip/libcoap-4.3.4/src\coap_cache.c ****   }
 1871              		.loc 1 234 5 discriminator 15
 1872              	.LBE52:
 1873 00b4 5443     		lw	a3,4(a4)
 1874 00b6 5C4C     		lw	a5,28(s0)
 1875              	.LBB53:
 1876 00b8 3146     		li	a2,12
 1877              	.LBE53:
 1878 00ba FD16     		addi	a3,a3,-1
 1879 00bc FD8E     		and	a3,a3,a5
 1880              	.LVL273:
 1881              	.LBB54:
 1882 00be 1C43     		lw	a5,0(a4)
 1883 00c0 FF97C6C4 		maddr32	a5, a3, a2
 1884              	.LVL274:
 234:C:/Users/stapi/OneDrive/Desktop/GD32VW553/V1_MQTT_OK/GD32VW55X_Wifi_BLE_SDK/GD32VW55x_RELEASE_V1.0.2/MSDK/lwip/libcoap-4.3.4/src\coap_cache.c ****   }
 1885              		.loc 1 234 5 discriminator 15
 1886 00c4 D443     		lw	a3,4(a5)
 1887              	.LVL275:
 1888 00c6 9043     		lw	a2,0(a5)
 1889 00c8 FD16     		addi	a3,a3,-1
 1890 00ca D4C3     		sw	a3,4(a5)
 234:C:/Users/stapi/OneDrive/Desktop/GD32VW553/V1_MQTT_OK/GD32VW55X_Wifi_BLE_SDK/GD32VW55x_RELEASE_V1.0.2/MSDK/lwip/libcoap-4.3.4/src\coap_cache.c ****   }
 1891              		.loc 1 234 5 discriminator 15
 1892 00cc 1448     		lw	a3,16(s0)
 1893 00ce 63138600 		bne	a2,s0,.L145
 234:C:/Users/stapi/OneDrive/Desktop/GD32VW553/V1_MQTT_OK/GD32VW55X_Wifi_BLE_SDK/GD32VW55x_RELEASE_V1.0.2/MSDK/lwip/libcoap-4.3.4/src\coap_cache.c ****   }
 1894              		.loc 1 234 5 discriminator 16
 1895 00d2 94C3     		sw	a3,0(a5)
 1896              	.L145:
 234:C:/Users/stapi/OneDrive/Desktop/GD32VW553/V1_MQTT_OK/GD32VW55X_Wifi_BLE_SDK/GD32VW55x_RELEASE_V1.0.2/MSDK/lwip/libcoap-4.3.4/src\coap_cache.c ****   }
 1897              		.loc 1 234 5 discriminator 18
 1898 00d4 5C44     		lw	a5,12(s0)
 1899              	.LVL276:
 1900 00d6 91C3     		beq	a5,zero,.L146
 234:C:/Users/stapi/OneDrive/Desktop/GD32VW553/V1_MQTT_OK/GD32VW55X_Wifi_BLE_SDK/GD32VW55x_RELEASE_V1.0.2/MSDK/lwip/libcoap-4.3.4/src\coap_cache.c ****   }
 1901              		.loc 1 234 5 discriminator 19
 1902 00d8 94CB     		sw	a3,16(a5)
 1903              	.L146:
 234:C:/Users/stapi/OneDrive/Desktop/GD32VW553/V1_MQTT_OK/GD32VW55X_Wifi_BLE_SDK/GD32VW55x_RELEASE_V1.0.2/MSDK/lwip/libcoap-4.3.4/src\coap_cache.c ****   }
 1904              		.loc 1 234 5 discriminator 21
 1905 00da 1448     		lw	a3,16(s0)
 1906 00dc 91C2     		beq	a3,zero,.L147
 234:C:/Users/stapi/OneDrive/Desktop/GD32VW553/V1_MQTT_OK/GD32VW55X_Wifi_BLE_SDK/GD32VW55x_RELEASE_V1.0.2/MSDK/lwip/libcoap-4.3.4/src\coap_cache.c ****   }
 1907              		.loc 1 234 5 discriminator 22
 1908 00de DCC6     		sw	a5,12(a3)
 1909              	.L147:
 1910              	.LBE54:
 234:C:/Users/stapi/OneDrive/Desktop/GD32VW553/V1_MQTT_OK/GD32VW55X_Wifi_BLE_SDK/GD32VW55x_RELEASE_V1.0.2/MSDK/lwip/libcoap-4.3.4/src\coap_cache.c ****   }
 1911              		.loc 1 234 5 discriminator 24
 234:C:/Users/stapi/OneDrive/Desktop/GD32VW553/V1_MQTT_OK/GD32VW55X_Wifi_BLE_SDK/GD32VW55x_RELEASE_V1.0.2/MSDK/lwip/libcoap-4.3.4/src\coap_cache.c ****   }
 1912              		.loc 1 234 5 discriminator 24
 1913 00e0 5C47     		lw	a5,12(a4)
 1914 00e2 FD17     		addi	a5,a5,-1
 1915 00e4 5CC7     		sw	a5,12(a4)
 1916 00e6 9DBF     		j	.L140
 1917              	.LVL277:
 1918              	.L142:
 234:C:/Users/stapi/OneDrive/Desktop/GD32VW553/V1_MQTT_OK/GD32VW55X_Wifi_BLE_SDK/GD32VW55x_RELEASE_V1.0.2/MSDK/lwip/libcoap-4.3.4/src\coap_cache.c ****   }
 1919              		.loc 1 234 5 discriminator 10
 234:C:/Users/stapi/OneDrive/Desktop/GD32VW553/V1_MQTT_OK/GD32VW55X_Wifi_BLE_SDK/GD32VW55x_RELEASE_V1.0.2/MSDK/lwip/libcoap-4.3.4/src\coap_cache.c ****   }
 1920              		.loc 1 234 5 discriminator 10
 1921 00e8 23ACD40A 		sw	a3,184(s1)
 1922 00ec 65BF     		j	.L143
 1923              	.LBE51:
 1924              	.LBE56:
 1925              		.cfi_endproc
 1926              	.LFE39:
 1928              		.section	.text.coap_cache_get_pdu,"ax",@progbits
 1929              		.align	1
 1930              		.globl	coap_cache_get_pdu
 1932              	coap_cache_get_pdu:
 1933              	.LFB40:
 245:C:/Users/stapi/OneDrive/Desktop/GD32VW553/V1_MQTT_OK/GD32VW55X_Wifi_BLE_SDK/GD32VW55x_RELEASE_V1.0.2/MSDK/lwip/libcoap-4.3.4/src\coap_cache.c **** 
 246:C:/Users/stapi/OneDrive/Desktop/GD32VW553/V1_MQTT_OK/GD32VW55X_Wifi_BLE_SDK/GD32VW55x_RELEASE_V1.0.2/MSDK/lwip/libcoap-4.3.4/src\coap_cache.c **** const coap_pdu_t *
 247:C:/Users/stapi/OneDrive/Desktop/GD32VW553/V1_MQTT_OK/GD32VW55X_Wifi_BLE_SDK/GD32VW55x_RELEASE_V1.0.2/MSDK/lwip/libcoap-4.3.4/src\coap_cache.c **** coap_cache_get_pdu(const coap_cache_entry_t *cache_entry) {
 1934              		.loc 1 247 59
 1935              		.cfi_startproc
 1936              	.LVL278:
 248:C:/Users/stapi/OneDrive/Desktop/GD32VW553/V1_MQTT_OK/GD32VW55X_Wifi_BLE_SDK/GD32VW55x_RELEASE_V1.0.2/MSDK/lwip/libcoap-4.3.4/src\coap_cache.c ****   return cache_entry->pdu;
 1937              		.loc 1 248 3
 249:C:/Users/stapi/OneDrive/Desktop/GD32VW553/V1_MQTT_OK/GD32VW55X_Wifi_BLE_SDK/GD32VW55x_RELEASE_V1.0.2/MSDK/lwip/libcoap-4.3.4/src\coap_cache.c **** }
 1938              		.loc 1 249 1 is_stmt 0
 1939 0000 0855     		lw	a0,40(a0)
 1940              	.LVL279:
 1941 0002 8280     		ret
 1942              		.cfi_endproc
 1943              	.LFE40:
 1945              		.section	.text.coap_cache_set_app_data,"ax",@progbits
 1946              		.align	1
 1947              		.globl	coap_cache_set_app_data
 1949              	coap_cache_set_app_data:
 1950              	.LFB41:
 250:C:/Users/stapi/OneDrive/Desktop/GD32VW553/V1_MQTT_OK/GD32VW55X_Wifi_BLE_SDK/GD32VW55x_RELEASE_V1.0.2/MSDK/lwip/libcoap-4.3.4/src\coap_cache.c **** 
 251:C:/Users/stapi/OneDrive/Desktop/GD32VW553/V1_MQTT_OK/GD32VW55X_Wifi_BLE_SDK/GD32VW55x_RELEASE_V1.0.2/MSDK/lwip/libcoap-4.3.4/src\coap_cache.c **** void
 252:C:/Users/stapi/OneDrive/Desktop/GD32VW553/V1_MQTT_OK/GD32VW55X_Wifi_BLE_SDK/GD32VW55x_RELEASE_V1.0.2/MSDK/lwip/libcoap-4.3.4/src\coap_cache.c **** coap_cache_set_app_data(coap_cache_entry_t *cache_entry,
 253:C:/Users/stapi/OneDrive/Desktop/GD32VW553/V1_MQTT_OK/GD32VW55X_Wifi_BLE_SDK/GD32VW55x_RELEASE_V1.0.2/MSDK/lwip/libcoap-4.3.4/src\coap_cache.c ****                         void *data,
 254:C:/Users/stapi/OneDrive/Desktop/GD32VW553/V1_MQTT_OK/GD32VW55X_Wifi_BLE_SDK/GD32VW55x_RELEASE_V1.0.2/MSDK/lwip/libcoap-4.3.4/src\coap_cache.c ****                         coap_cache_app_data_free_callback_t callback) {
 1951              		.loc 1 254 71 is_stmt 1
 1952              		.cfi_startproc
 1953              	.LVL280:
 255:C:/Users/stapi/OneDrive/Desktop/GD32VW553/V1_MQTT_OK/GD32VW55X_Wifi_BLE_SDK/GD32VW55x_RELEASE_V1.0.2/MSDK/lwip/libcoap-4.3.4/src\coap_cache.c ****   cache_entry->app_data = data;
 1954              		.loc 1 255 3
 1955              		.loc 1 255 25 is_stmt 0
 1956 0000 4CD5     		sw	a1,44(a0)
 256:C:/Users/stapi/OneDrive/Desktop/GD32VW553/V1_MQTT_OK/GD32VW55X_Wifi_BLE_SDK/GD32VW55x_RELEASE_V1.0.2/MSDK/lwip/libcoap-4.3.4/src\coap_cache.c ****   cache_entry->callback = callback;
 1957              		.loc 1 256 3 is_stmt 1
 1958              		.loc 1 256 25 is_stmt 0
 1959 0002 10DD     		sw	a2,56(a0)
 257:C:/Users/stapi/OneDrive/Desktop/GD32VW553/V1_MQTT_OK/GD32VW55X_Wifi_BLE_SDK/GD32VW55x_RELEASE_V1.0.2/MSDK/lwip/libcoap-4.3.4/src\coap_cache.c **** }
 1960              		.loc 1 257 1
 1961 0004 8280     		ret
 1962              		.cfi_endproc
 1963              	.LFE41:
 1965              		.section	.text.coap_cache_get_app_data,"ax",@progbits
 1966              		.align	1
 1967              		.globl	coap_cache_get_app_data
 1969              	coap_cache_get_app_data:
 1970              	.LFB42:
 258:C:/Users/stapi/OneDrive/Desktop/GD32VW553/V1_MQTT_OK/GD32VW55X_Wifi_BLE_SDK/GD32VW55x_RELEASE_V1.0.2/MSDK/lwip/libcoap-4.3.4/src\coap_cache.c **** 
 259:C:/Users/stapi/OneDrive/Desktop/GD32VW553/V1_MQTT_OK/GD32VW55X_Wifi_BLE_SDK/GD32VW55x_RELEASE_V1.0.2/MSDK/lwip/libcoap-4.3.4/src\coap_cache.c **** void *
 260:C:/Users/stapi/OneDrive/Desktop/GD32VW553/V1_MQTT_OK/GD32VW55X_Wifi_BLE_SDK/GD32VW55x_RELEASE_V1.0.2/MSDK/lwip/libcoap-4.3.4/src\coap_cache.c **** coap_cache_get_app_data(const coap_cache_entry_t *cache_entry) {
 1971              		.loc 1 260 64 is_stmt 1
 1972              		.cfi_startproc
 1973              	.LVL281:
 261:C:/Users/stapi/OneDrive/Desktop/GD32VW553/V1_MQTT_OK/GD32VW55X_Wifi_BLE_SDK/GD32VW55x_RELEASE_V1.0.2/MSDK/lwip/libcoap-4.3.4/src\coap_cache.c ****   return cache_entry->app_data;
 1974              		.loc 1 261 3
 262:C:/Users/stapi/OneDrive/Desktop/GD32VW553/V1_MQTT_OK/GD32VW55X_Wifi_BLE_SDK/GD32VW55x_RELEASE_V1.0.2/MSDK/lwip/libcoap-4.3.4/src\coap_cache.c **** }
 1975              		.loc 1 262 1 is_stmt 0
 1976 0000 4855     		lw	a0,44(a0)
 1977              	.LVL282:
 1978 0002 8280     		ret
 1979              		.cfi_endproc
 1980              	.LFE42:
 1982              		.section	.text.coap_expire_cache_entries,"ax",@progbits
 1983              		.align	1
 1984              		.globl	coap_expire_cache_entries
 1986              	coap_expire_cache_entries:
 1987              	.LFB43:
 263:C:/Users/stapi/OneDrive/Desktop/GD32VW553/V1_MQTT_OK/GD32VW55X_Wifi_BLE_SDK/GD32VW55x_RELEASE_V1.0.2/MSDK/lwip/libcoap-4.3.4/src\coap_cache.c **** 
 264:C:/Users/stapi/OneDrive/Desktop/GD32VW553/V1_MQTT_OK/GD32VW55X_Wifi_BLE_SDK/GD32VW55x_RELEASE_V1.0.2/MSDK/lwip/libcoap-4.3.4/src\coap_cache.c **** void
 265:C:/Users/stapi/OneDrive/Desktop/GD32VW553/V1_MQTT_OK/GD32VW55X_Wifi_BLE_SDK/GD32VW55x_RELEASE_V1.0.2/MSDK/lwip/libcoap-4.3.4/src\coap_cache.c **** coap_expire_cache_entries(coap_context_t *ctx) {
 1988              		.loc 1 265 48 is_stmt 1
 1989              		.cfi_startproc
 1990              	.LVL283:
 1991 0000 17030000 		call	t0,__riscv_save_3
 1991      E7020300 
 1992              		.cfi_offset 18, -16
 1993              		.cfi_offset 9, -12
 1994              		.cfi_offset 8, -8
 1995              		.cfi_offset 1, -4
 1996              		.cfi_def_cfa_offset 16
 266:C:/Users/stapi/OneDrive/Desktop/GD32VW553/V1_MQTT_OK/GD32VW55X_Wifi_BLE_SDK/GD32VW55x_RELEASE_V1.0.2/MSDK/lwip/libcoap-4.3.4/src\coap_cache.c ****   coap_tick_t now;
 1997              		.loc 1 266 3
 267:C:/Users/stapi/OneDrive/Desktop/GD32VW553/V1_MQTT_OK/GD32VW55X_Wifi_BLE_SDK/GD32VW55x_RELEASE_V1.0.2/MSDK/lwip/libcoap-4.3.4/src\coap_cache.c ****   coap_cache_entry_t *cp, *ctmp;
 1998              		.loc 1 267 3
 268:C:/Users/stapi/OneDrive/Desktop/GD32VW553/V1_MQTT_OK/GD32VW55X_Wifi_BLE_SDK/GD32VW55x_RELEASE_V1.0.2/MSDK/lwip/libcoap-4.3.4/src\coap_cache.c **** 
 269:C:/Users/stapi/OneDrive/Desktop/GD32VW553/V1_MQTT_OK/GD32VW55X_Wifi_BLE_SDK/GD32VW55x_RELEASE_V1.0.2/MSDK/lwip/libcoap-4.3.4/src\coap_cache.c ****   coap_ticks(&now);
 1999              		.loc 1 269 3
 2000              	.LVL284:
 2001              	.LBB59:
 2002              	.LBB60:
 2003              		.loc 2 41 3
 2004              	.LBE60:
 2005              	.LBE59:
 265:C:/Users/stapi/OneDrive/Desktop/GD32VW553/V1_MQTT_OK/GD32VW55X_Wifi_BLE_SDK/GD32VW55x_RELEASE_V1.0.2/MSDK/lwip/libcoap-4.3.4/src\coap_cache.c ****   coap_tick_t now;
 2006              		.loc 1 265 48 is_stmt 0
 2007 0008 AA84     		mv	s1,a0
 2008              	.LBB62:
 2009              	.LBB61:
 2010              		.loc 2 41 8
 2011 000a 97000000 		call	sys_now
 2011      E7800000 
 2012              	.LVL285:
 2013              	.LBE61:
 2014              	.LBE62:
 270:C:/Users/stapi/OneDrive/Desktop/GD32VW553/V1_MQTT_OK/GD32VW55X_Wifi_BLE_SDK/GD32VW55x_RELEASE_V1.0.2/MSDK/lwip/libcoap-4.3.4/src\coap_cache.c ****   HASH_ITER(hh, ctx->cache, cp, ctmp) {
 2015              		.loc 1 270 3 is_stmt 1
 2016 0012 83A5840B 		lw	a1,184(s1)
 2017              	.LVL286:
 2018 0016 8DC1     		beq	a1,zero,.L172
 2019              		.loc 1 270 3 is_stmt 0 discriminator 1
 2020 0018 8045     		lw	s0,8(a1)
 2021              	.LVL287:
 2022              		.loc 1 270 3 is_stmt 1 discriminator 1
 2023 001a 2A89     		mv	s2,a0
 2024              	.LVL288:
 2025              	.L176:
 271:C:/Users/stapi/OneDrive/Desktop/GD32VW553/V1_MQTT_OK/GD32VW55X_Wifi_BLE_SDK/GD32VW55x_RELEASE_V1.0.2/MSDK/lwip/libcoap-4.3.4/src\coap_cache.c ****     if (cp->idle_timeout > 0) {
 2026              		.loc 1 271 5
 2027              		.loc 1 271 8 is_stmt 0
 2028 001c DC59     		lw	a5,52(a1)
 2029 001e 89CB     		beq	a5,zero,.L174
 272:C:/Users/stapi/OneDrive/Desktop/GD32VW553/V1_MQTT_OK/GD32VW55X_Wifi_BLE_SDK/GD32VW55x_RELEASE_V1.0.2/MSDK/lwip/libcoap-4.3.4/src\coap_cache.c ****       if (cp->expire_ticks <= now) {
 2030              		.loc 1 272 7 is_stmt 1
 2031              		.loc 1 272 10 is_stmt 0
 2032 0020 9C59     		lw	a5,48(a1)
 2033 0022 6367F900 		bgtu	a5,s2,.L174
 273:C:/Users/stapi/OneDrive/Desktop/GD32VW553/V1_MQTT_OK/GD32VW55X_Wifi_BLE_SDK/GD32VW55x_RELEASE_V1.0.2/MSDK/lwip/libcoap-4.3.4/src\coap_cache.c ****         coap_delete_cache_entry(ctx, cp);
 2034              		.loc 1 273 9 is_stmt 1
 2035 0026 2685     		mv	a0,s1
 2036 0028 97000000 		call	coap_delete_cache_entry
 2036      E7800000 
 2037              	.LVL289:
 2038              	.L174:
 270:C:/Users/stapi/OneDrive/Desktop/GD32VW553/V1_MQTT_OK/GD32VW55X_Wifi_BLE_SDK/GD32VW55x_RELEASE_V1.0.2/MSDK/lwip/libcoap-4.3.4/src\coap_cache.c ****     if (cp->idle_timeout > 0) {
 2039              		.loc 1 270 3
 2040 0030 01C4     		beq	s0,zero,.L172
 2041              	.LVL290:
 270:C:/Users/stapi/OneDrive/Desktop/GD32VW553/V1_MQTT_OK/GD32VW55X_Wifi_BLE_SDK/GD32VW55x_RELEASE_V1.0.2/MSDK/lwip/libcoap-4.3.4/src\coap_cache.c ****     if (cp->idle_timeout > 0) {
 2042              		.loc 1 270 3 discriminator 6
 2043 0032 A285     		mv	a1,s0
 2044 0034 0044     		lw	s0,8(s0)
 2045              	.LVL291:
 2046 0036 DDB7     		j	.L176
 2047              	.LVL292:
 2048              	.L172:
 274:C:/Users/stapi/OneDrive/Desktop/GD32VW553/V1_MQTT_OK/GD32VW55X_Wifi_BLE_SDK/GD32VW55x_RELEASE_V1.0.2/MSDK/lwip/libcoap-4.3.4/src\coap_cache.c ****       }
 275:C:/Users/stapi/OneDrive/Desktop/GD32VW553/V1_MQTT_OK/GD32VW55X_Wifi_BLE_SDK/GD32VW55x_RELEASE_V1.0.2/MSDK/lwip/libcoap-4.3.4/src\coap_cache.c ****     }
 276:C:/Users/stapi/OneDrive/Desktop/GD32VW553/V1_MQTT_OK/GD32VW55X_Wifi_BLE_SDK/GD32VW55x_RELEASE_V1.0.2/MSDK/lwip/libcoap-4.3.4/src\coap_cache.c ****   }
 277:C:/Users/stapi/OneDrive/Desktop/GD32VW553/V1_MQTT_OK/GD32VW55X_Wifi_BLE_SDK/GD32VW55x_RELEASE_V1.0.2/MSDK/lwip/libcoap-4.3.4/src\coap_cache.c **** }
 2049              		.loc 1 277 1 is_stmt 0
 2050 0038 17030000 		tail	__riscv_restore_3
 2050      67000300 
 2051              		.cfi_restore 18
 2052              		.cfi_restore 9
 2053              		.cfi_restore 8
 2054              		.cfi_restore 1
 2055              		.cfi_def_cfa_offset 0
 2056              		.cfi_endproc
 2057              	.LFE43:
 2059              		.section	.rodata.__func__.0,"a"
 2060              		.align	2
 2061              		.set	.LANCHOR2,. + 0
 2064              	__func__.0:
 2065 0000 636F6170 		.string	"coap_delete_cache_entry"
 2065      5F64656C 
 2065      6574655F 
 2065      63616368 
 2065      655F656E 
 2066              		.section	.rodata.__func__.1,"a"
 2067              		.align	2
 2068              		.set	.LANCHOR1,. + 0
 2071              	__func__.1:
 2072 0000 636F6170 		.string	"coap_cache_get_by_key"
 2072      5F636163 
 2072      68655F67 
 2072      65745F62 
 2072      795F6B65 
 2073              		.section	.rodata.__func__.2,"a"
 2074              		.align	2
 2075              		.set	.LANCHOR0,. + 0
 2078              	__func__.2:
 2079 0000 636F6170 		.string	"coap_cache_ignore_options"
 2079      5F636163 
 2079      68655F69 
 2079      676E6F72 
 2079      655F6F70 
 2080              		.text
 2081              	.Letext0:
 2082              		.file 3 "c:\\users\\stapi\\onedrive\\desktop\\gd32vw553\\embeddedbuilder_v1.4.7.26843\\tools\\nucl
 2083              		.file 4 "c:\\users\\stapi\\onedrive\\desktop\\gd32vw553\\embeddedbuilder_v1.4.7.26843\\tools\\nucl
 2084              		.file 5 "c:\\users\\stapi\\onedrive\\desktop\\gd32vw553\\embeddedbuilder_v1.4.7.26843\\tools\\nucl
 2085              		.file 6 "c:\\users\\stapi\\onedrive\\desktop\\gd32vw553\\embeddedbuilder_v1.4.7.26843\\tools\\nucl
 2086              		.file 7 "c:\\users\\stapi\\onedrive\\desktop\\gd32vw553\\embeddedbuilder_v1.4.7.26843\\tools\\nucl
 2087              		.file 8 "..\\..\\..\\..\\lwip\\lwip-2.1.2\\src\\include/lwip/arch.h"
 2088              		.file 9 "..\\..\\..\\..\\lwip\\libcoap-4.3.4\\include/coap3/coap_forward_decls.h"
 2089              		.file 10 "..\\..\\..\\..\\lwip\\libcoap-4.3.4\\include/coap3/coap_address.h"
 2090              		.file 11 "..\\..\\..\\..\\lwip\\libcoap-4.3.4\\include/coap3/coap_async_internal.h"
 2091              		.file 12 "..\\..\\..\\..\\lwip\\libcoap-4.3.4\\include/coap3/coap_block_internal.h"
 2092              		.file 13 "..\\..\\..\\..\\lwip\\libcoap-4.3.4\\include/coap3/coap_cache_internal.h"
 2093              		.file 14 "..\\..\\..\\..\\lwip\\libcoap-4.3.4\\include/coap3/coap_io_internal.h"
 2094              		.file 15 "..\\..\\..\\..\\lwip\\libcoap-4.3.4\\include/coap3/coap_net_internal.h"
 2095              		.file 16 "..\\..\\..\\..\\lwip\\libcoap-4.3.4\\include/coap3/coap_pdu_internal.h"
 2096              		.file 17 "..\\..\\..\\..\\lwip\\libcoap-4.3.4\\include/coap3/coap_resource_internal.h"
 2097              		.file 18 "..\\..\\..\\..\\lwip\\libcoap-4.3.4\\include/coap3/coap_session_internal.h"
 2098              		.file 19 "..\\..\\..\\..\\lwip\\libcoap-4.3.4\\include/coap3/coap_subscribe_internal.h"
 2099              		.file 20 "..\\..\\..\\..\\lwip\\libcoap-4.3.4\\include/coap3/coap_option.h"
 2100              		.file 21 "..\\..\\..\\..\\lwip\\libcoap-4.3.4\\include/coap3/coap_str.h"
 2101              		.file 22 "..\\..\\..\\..\\lwip\\lwip-2.1.2\\src\\include/lwip/pbuf.h"
 2102              		.file 23 "..\\..\\..\\..\\lwip\\libcoap-4.3.4\\include/coap3/coap_pdu.h"
 2103              		.file 24 "..\\..\\..\\..\\lwip\\lwip-2.1.2\\src\\include/lwip/ip4_addr.h"
 2104              		.file 25 "..\\..\\..\\..\\lwip\\lwip-2.1.2\\src\\include/lwip/ip_addr.h"
 2105              		.file 26 "..\\..\\..\\..\\lwip\\lwip-2.1.2\\src\\include/lwip/sockets.h"
 2106              		.file 27 "..\\..\\..\\..\\lwip\\libcoap-4.3.4\\include/coap3/coap_io.h"
 2107              		.file 28 "..\\..\\..\\..\\lwip\\libcoap-4.3.4\\include/coap3/coap_dtls.h"
 2108              		.file 29 "..\\..\\..\\..\\lwip\\libcoap-4.3.4\\include/coap3/coap_event.h"
 2109              		.file 30 "..\\..\\..\\..\\lwip\\libcoap-4.3.4\\include/coap3/coap_session.h"
 2110              		.file 31 "..\\..\\..\\..\\lwip\\libcoap-4.3.4\\include/coap3/coap_debug.h"
 2111              		.file 32 "..\\..\\..\\..\\lwip\\libcoap-4.3.4\\include/coap3/coap_net.h"
 2112              		.file 33 "..\\..\\..\\..\\lwip\\libcoap-4.3.4\\include/coap3/coap_block.h"
 2113              		.file 34 "..\\..\\..\\..\\lwip\\libcoap-4.3.4\\include/coap3/coap_cache.h"
 2114              		.file 35 "..\\..\\..\\..\\lwip\\libcoap-4.3.4\\include/coap3/coap_mem.h"
 2115              		.file 36 "..\\..\\..\\..\\lwip\\libcoap-4.3.4\\include/coap3/coap_resource.h"
 2116              		.file 37 "..\\..\\..\\..\\lwip\\libcoap-4.3.4\\include/coap3/coap_subscribe.h"
 2117              		.file 38 "..\\..\\..\\..\\lwip\\libcoap-4.3.4\\include/coap3/coap_uthash_internal.h"
 2118              		.file 39 "..\\..\\..\\..\\lwip\\libcoap-4.3.4\\include/coap3/coap_layers_internal.h"
 2119              		.file 40 "..\\..\\..\\..\\lwip\\lwip-2.1.2\\src\\include/lwip/sys.h"
 2120              		.file 41 "c:\\users\\stapi\\onedrive\\desktop\\gd32vw553\\embeddedbuilder_v1.4.7.26843\\tools\\nuc
 2121              		.file 42 "c:\\users\\stapi\\onedrive\\desktop\\gd32vw553\\embeddedbuilder_v1.4.7.26843\\tools\\nuc
 2122              		.file 43 "c:\\users\\stapi\\onedrive\\desktop\\gd32vw553\\embeddedbuilder_v1.4.7.26843\\tools\\nuc
 2123              		.file 44 "<built-in>"