   1              		.file	"awss_packet.c"
   2              		.option nopic
   3              		.attribute arch, "rv32i2p0_m2p0_a2p0_f2p0_c2p0_b_p0p94"
   4              		.attribute unaligned_access, 0
   5              		.attribute stack_align, 16
   6              		.text
   7              	.Ltext0:
   8              		.cfi_sections	.debug_frame
   9              		.section	.text.os_zalloc,"ax",@progbits
  10              		.align	1
  12              	os_zalloc:
  13              	.LFB18:
  14              		.file 1 "..\\..\\..\\..\\cloud\\alicloud\\src\\services\\dev_bind\\os/os.h"
   1:..\..\..\..\cloud\alicloud\src\services\dev_bind\os/os.h **** /*
   2:..\..\..\..\cloud\alicloud\src\services\dev_bind\os/os.h ****  * Copyright (C) 2015-2018 Alibaba Group Holding Limited
   3:..\..\..\..\cloud\alicloud\src\services\dev_bind\os/os.h ****  */
   4:..\..\..\..\cloud\alicloud\src\services\dev_bind\os/os.h **** 
   5:..\..\..\..\cloud\alicloud\src\services\dev_bind\os/os.h **** #ifndef __AWSS_OS_H__
   6:..\..\..\..\cloud\alicloud\src\services\dev_bind\os/os.h **** #define __AWSS_OS_H__
   7:..\..\..\..\cloud\alicloud\src\services\dev_bind\os/os.h **** 
   8:..\..\..\..\cloud\alicloud\src\services\dev_bind\os/os.h **** #ifdef __cplusplus
   9:..\..\..\..\cloud\alicloud\src\services\dev_bind\os/os.h **** extern "C" {
  10:..\..\..\..\cloud\alicloud\src\services\dev_bind\os/os.h **** #endif
  11:..\..\..\..\cloud\alicloud\src\services\dev_bind\os/os.h **** #include <ctype.h>
  12:..\..\..\..\cloud\alicloud\src\services\dev_bind\os/os.h **** #include "iot_import.h"
  13:..\..\..\..\cloud\alicloud\src\services\dev_bind\os/os.h **** #include "iot_export.h"
  14:..\..\..\..\cloud\alicloud\src\services\dev_bind\os/os.h **** #include "product/product.h"
  15:..\..\..\..\cloud\alicloud\src\services\dev_bind\os/os.h **** #include "platform.h"
  16:..\..\..\..\cloud\alicloud\src\services\dev_bind\os/os.h **** 
  17:..\..\..\..\cloud\alicloud\src\services\dev_bind\os/os.h **** /** @defgroup group_os os
  18:..\..\..\..\cloud\alicloud\src\services\dev_bind\os/os.h ****  *  @{
  19:..\..\..\..\cloud\alicloud\src\services\dev_bind\os/os.h ****  */
  20:..\..\..\..\cloud\alicloud\src\services\dev_bind\os/os.h **** 
  21:..\..\..\..\cloud\alicloud\src\services\dev_bind\os/os.h **** #define OS_MAX_SSID_LEN         PLATFORM_MAX_SSID_LEN
  22:..\..\..\..\cloud\alicloud\src\services\dev_bind\os/os.h **** #define OS_MAX_PASSWD_LEN       PLATFORM_MAX_PASSWD_LEN
  23:..\..\..\..\cloud\alicloud\src\services\dev_bind\os/os.h **** 
  24:..\..\..\..\cloud\alicloud\src\services\dev_bind\os/os.h **** #define OS_MAC_LEN              PLATFORM_MAC_LEN
  25:..\..\..\..\cloud\alicloud\src\services\dev_bind\os/os.h **** #define OS_IP_LEN               PLATFORM_IP_LEN
  26:..\..\..\..\cloud\alicloud\src\services\dev_bind\os/os.h **** #define OS_ETH_ALEN             ETH_ALEN
  27:..\..\..\..\cloud\alicloud\src\services\dev_bind\os/os.h **** 
  28:..\..\..\..\cloud\alicloud\src\services\dev_bind\os/os.h **** #define OS_PRODUCT_KEY_LEN      PRODUCT_KEY_LEN
  29:..\..\..\..\cloud\alicloud\src\services\dev_bind\os/os.h **** #define OS_PRODUCT_SECRET_LEN   PRODUCT_SECRET_LEN
  30:..\..\..\..\cloud\alicloud\src\services\dev_bind\os/os.h **** #define OS_DEVICE_NAME_LEN      DEVICE_NAME_LEN
  31:..\..\..\..\cloud\alicloud\src\services\dev_bind\os/os.h **** #define OS_DEVICE_SECRET_LEN    DEVICE_SECRET_LEN
  32:..\..\..\..\cloud\alicloud\src\services\dev_bind\os/os.h **** 
  33:..\..\..\..\cloud\alicloud\src\services\dev_bind\os/os.h **** /***************************************** Misc Interface *****************************************
  34:..\..\..\..\cloud\alicloud\src\services\dev_bind\os/os.h **** 
  35:..\..\..\..\cloud\alicloud\src\services\dev_bind\os/os.h **** /** @defgroup group_misc misc
  36:..\..\..\..\cloud\alicloud\src\services\dev_bind\os/os.h ****  *  @{
  37:..\..\..\..\cloud\alicloud\src\services\dev_bind\os/os.h ****  */
  38:..\..\..\..\cloud\alicloud\src\services\dev_bind\os/os.h **** /**
  39:..\..\..\..\cloud\alicloud\src\services\dev_bind\os/os.h ****  * @brief .
  40:..\..\..\..\cloud\alicloud\src\services\dev_bind\os/os.h ****  *
  41:..\..\..\..\cloud\alicloud\src\services\dev_bind\os/os.h ****  * @param None.
  42:..\..\..\..\cloud\alicloud\src\services\dev_bind\os/os.h ****  * @return
  43:..\..\..\..\cloud\alicloud\src\services\dev_bind\os/os.h ****  * @verbatim
  44:..\..\..\..\cloud\alicloud\src\services\dev_bind\os/os.h ****  * = 0, This platform is little endian.
  45:..\..\..\..\cloud\alicloud\src\services\dev_bind\os/os.h ****  * = 1, This platform is big endian.
  46:..\..\..\..\cloud\alicloud\src\services\dev_bind\os/os.h ****  * @endverbatim
  47:..\..\..\..\cloud\alicloud\src\services\dev_bind\os/os.h ****  * @see None.
  48:..\..\..\..\cloud\alicloud\src\services\dev_bind\os/os.h ****  * @note None.
  49:..\..\..\..\cloud\alicloud\src\services\dev_bind\os/os.h ****  */
  50:..\..\..\..\cloud\alicloud\src\services\dev_bind\os/os.h **** static inline int os_is_big_endian(void)
  51:..\..\..\..\cloud\alicloud\src\services\dev_bind\os/os.h **** {
  52:..\..\..\..\cloud\alicloud\src\services\dev_bind\os/os.h ****     uint32_t data = 0xFF000000;
  53:..\..\..\..\cloud\alicloud\src\services\dev_bind\os/os.h **** 
  54:..\..\..\..\cloud\alicloud\src\services\dev_bind\os/os.h ****     if (0xFF == *(uint8_t *) & data) {
  55:..\..\..\..\cloud\alicloud\src\services\dev_bind\os/os.h ****         return 1;                                    //big endian
  56:..\..\..\..\cloud\alicloud\src\services\dev_bind\os/os.h ****     }
  57:..\..\..\..\cloud\alicloud\src\services\dev_bind\os/os.h **** 
  58:..\..\..\..\cloud\alicloud\src\services\dev_bind\os/os.h ****     return 0;                                        //little endian
  59:..\..\..\..\cloud\alicloud\src\services\dev_bind\os/os.h **** }
  60:..\..\..\..\cloud\alicloud\src\services\dev_bind\os/os.h **** 
  61:..\..\..\..\cloud\alicloud\src\services\dev_bind\os/os.h **** /**
  62:..\..\..\..\cloud\alicloud\src\services\dev_bind\os/os.h ****  * @brief Convert the data from byte order of current CPU(the "host") to big-endian.
  63:..\..\..\..\cloud\alicloud\src\services\dev_bind\os/os.h ****    The size of the data is 16 bits.
  64:..\..\..\..\cloud\alicloud\src\services\dev_bind\os/os.h ****  *
  65:..\..\..\..\cloud\alicloud\src\services\dev_bind\os/os.h ****  * @param[in] data @n Data to be converted.
  66:..\..\..\..\cloud\alicloud\src\services\dev_bind\os/os.h ****  * @return Conversion result.
  67:..\..\..\..\cloud\alicloud\src\services\dev_bind\os/os.h ****  * @see None.
  68:..\..\..\..\cloud\alicloud\src\services\dev_bind\os/os.h ****  * @note None.
  69:..\..\..\..\cloud\alicloud\src\services\dev_bind\os/os.h ****  */
  70:..\..\..\..\cloud\alicloud\src\services\dev_bind\os/os.h **** uint16_t os_htobe16(uint16_t data);
  71:..\..\..\..\cloud\alicloud\src\services\dev_bind\os/os.h **** 
  72:..\..\..\..\cloud\alicloud\src\services\dev_bind\os/os.h **** /**
  73:..\..\..\..\cloud\alicloud\src\services\dev_bind\os/os.h ****  * @brief Convert the data from host to little-endian.
  74:..\..\..\..\cloud\alicloud\src\services\dev_bind\os/os.h ****    The size of the data is 16 bits.
  75:..\..\..\..\cloud\alicloud\src\services\dev_bind\os/os.h ****  *
  76:..\..\..\..\cloud\alicloud\src\services\dev_bind\os/os.h ****  * @param[in] data @n Data to be converted.
  77:..\..\..\..\cloud\alicloud\src\services\dev_bind\os/os.h ****  * @return Conversion result.
  78:..\..\..\..\cloud\alicloud\src\services\dev_bind\os/os.h ****  * @see None.
  79:..\..\..\..\cloud\alicloud\src\services\dev_bind\os/os.h ****  * @note None.
  80:..\..\..\..\cloud\alicloud\src\services\dev_bind\os/os.h ****  */
  81:..\..\..\..\cloud\alicloud\src\services\dev_bind\os/os.h **** uint16_t os_htole16(uint16_t data);
  82:..\..\..\..\cloud\alicloud\src\services\dev_bind\os/os.h **** 
  83:..\..\..\..\cloud\alicloud\src\services\dev_bind\os/os.h **** /**
  84:..\..\..\..\cloud\alicloud\src\services\dev_bind\os/os.h ****  * @brief Convert the data from big-endian to host.
  85:..\..\..\..\cloud\alicloud\src\services\dev_bind\os/os.h ****    The size of the data is 16 bits.
  86:..\..\..\..\cloud\alicloud\src\services\dev_bind\os/os.h ****  *
  87:..\..\..\..\cloud\alicloud\src\services\dev_bind\os/os.h ****  * @param[in] data @n Data to be converted.
  88:..\..\..\..\cloud\alicloud\src\services\dev_bind\os/os.h ****  * @return Conversion result.
  89:..\..\..\..\cloud\alicloud\src\services\dev_bind\os/os.h ****  * @see None.
  90:..\..\..\..\cloud\alicloud\src\services\dev_bind\os/os.h ****  * @note None.
  91:..\..\..\..\cloud\alicloud\src\services\dev_bind\os/os.h ****  */
  92:..\..\..\..\cloud\alicloud\src\services\dev_bind\os/os.h **** uint16_t os_be16toh(uint16_t data);
  93:..\..\..\..\cloud\alicloud\src\services\dev_bind\os/os.h **** 
  94:..\..\..\..\cloud\alicloud\src\services\dev_bind\os/os.h **** /**
  95:..\..\..\..\cloud\alicloud\src\services\dev_bind\os/os.h ****  * @brief Convert the data from little-endian to host.
  96:..\..\..\..\cloud\alicloud\src\services\dev_bind\os/os.h ****    The size of the data is 16 bits.
  97:..\..\..\..\cloud\alicloud\src\services\dev_bind\os/os.h ****  *
  98:..\..\..\..\cloud\alicloud\src\services\dev_bind\os/os.h ****  * @param[in] data @n Data to be converted.
  99:..\..\..\..\cloud\alicloud\src\services\dev_bind\os/os.h ****  * @return Conversion result.
 100:..\..\..\..\cloud\alicloud\src\services\dev_bind\os/os.h ****  * @see None.
 101:..\..\..\..\cloud\alicloud\src\services\dev_bind\os/os.h ****  * @note None.
 102:..\..\..\..\cloud\alicloud\src\services\dev_bind\os/os.h ****  */
 103:..\..\..\..\cloud\alicloud\src\services\dev_bind\os/os.h **** uint16_t os_le16toh(uint16_t data);
 104:..\..\..\..\cloud\alicloud\src\services\dev_bind\os/os.h **** 
 105:..\..\..\..\cloud\alicloud\src\services\dev_bind\os/os.h **** /**
 106:..\..\..\..\cloud\alicloud\src\services\dev_bind\os/os.h ****  * @brief Convert the data from little-endian to host.
 107:..\..\..\..\cloud\alicloud\src\services\dev_bind\os/os.h ****    The size of the data is 32 bits.
 108:..\..\..\..\cloud\alicloud\src\services\dev_bind\os/os.h ****  *
 109:..\..\..\..\cloud\alicloud\src\services\dev_bind\os/os.h ****  * @param[in] data @n Data to be converted.
 110:..\..\..\..\cloud\alicloud\src\services\dev_bind\os/os.h ****  * @return Conversion result.
 111:..\..\..\..\cloud\alicloud\src\services\dev_bind\os/os.h ****  * @see None.
 112:..\..\..\..\cloud\alicloud\src\services\dev_bind\os/os.h ****  * @note None.
 113:..\..\..\..\cloud\alicloud\src\services\dev_bind\os/os.h ****  */
 114:..\..\..\..\cloud\alicloud\src\services\dev_bind\os/os.h **** uint32_t os_le32toh(uint32_t data);
 115:..\..\..\..\cloud\alicloud\src\services\dev_bind\os/os.h **** 
 116:..\..\..\..\cloud\alicloud\src\services\dev_bind\os/os.h **** /**
 117:..\..\..\..\cloud\alicloud\src\services\dev_bind\os/os.h ****  * @brief Convert the data from host to big-endian.
 118:..\..\..\..\cloud\alicloud\src\services\dev_bind\os/os.h ****    The size of the data is 64 bits.
 119:..\..\..\..\cloud\alicloud\src\services\dev_bind\os/os.h ****  *
 120:..\..\..\..\cloud\alicloud\src\services\dev_bind\os/os.h ****  * @param[in] data @n Data to be converted.
 121:..\..\..\..\cloud\alicloud\src\services\dev_bind\os/os.h ****  * @return Conversion result.
 122:..\..\..\..\cloud\alicloud\src\services\dev_bind\os/os.h ****  * @see None.
 123:..\..\..\..\cloud\alicloud\src\services\dev_bind\os/os.h ****  * @note None.
 124:..\..\..\..\cloud\alicloud\src\services\dev_bind\os/os.h ****  */
 125:..\..\..\..\cloud\alicloud\src\services\dev_bind\os/os.h **** //uint64_t os_htobe64(uint64_t data);
 126:..\..\..\..\cloud\alicloud\src\services\dev_bind\os/os.h **** 
 127:..\..\..\..\cloud\alicloud\src\services\dev_bind\os/os.h **** /**
 128:..\..\..\..\cloud\alicloud\src\services\dev_bind\os/os.h ****  * @brief Convert the data from host to little-endian.
 129:..\..\..\..\cloud\alicloud\src\services\dev_bind\os/os.h ****    The size of the data is 64 bits.
 130:..\..\..\..\cloud\alicloud\src\services\dev_bind\os/os.h ****  *
 131:..\..\..\..\cloud\alicloud\src\services\dev_bind\os/os.h ****  * @param[in] data @n Data to be converted.
 132:..\..\..\..\cloud\alicloud\src\services\dev_bind\os/os.h ****  * @return Conversion result.
 133:..\..\..\..\cloud\alicloud\src\services\dev_bind\os/os.h ****  * @see None.
 134:..\..\..\..\cloud\alicloud\src\services\dev_bind\os/os.h ****  * @note None.
 135:..\..\..\..\cloud\alicloud\src\services\dev_bind\os/os.h ****  */
 136:..\..\..\..\cloud\alicloud\src\services\dev_bind\os/os.h **** //uint64_t os_htole64(uint64_t data);
 137:..\..\..\..\cloud\alicloud\src\services\dev_bind\os/os.h **** 
 138:..\..\..\..\cloud\alicloud\src\services\dev_bind\os/os.h **** /**
 139:..\..\..\..\cloud\alicloud\src\services\dev_bind\os/os.h ****  * @brief Convert the data from big-endian to host.
 140:..\..\..\..\cloud\alicloud\src\services\dev_bind\os/os.h ****    The size of the data is 64 bits.
 141:..\..\..\..\cloud\alicloud\src\services\dev_bind\os/os.h ****  *
 142:..\..\..\..\cloud\alicloud\src\services\dev_bind\os/os.h ****  * @param[in] data @n Data to be converted.
 143:..\..\..\..\cloud\alicloud\src\services\dev_bind\os/os.h ****  * @return Conversion result.
 144:..\..\..\..\cloud\alicloud\src\services\dev_bind\os/os.h ****  * @see None.
 145:..\..\..\..\cloud\alicloud\src\services\dev_bind\os/os.h ****  * @note None.
 146:..\..\..\..\cloud\alicloud\src\services\dev_bind\os/os.h ****  */
 147:..\..\..\..\cloud\alicloud\src\services\dev_bind\os/os.h **** //uint64_t os_be64toh(uint64_t data);
 148:..\..\..\..\cloud\alicloud\src\services\dev_bind\os/os.h **** 
 149:..\..\..\..\cloud\alicloud\src\services\dev_bind\os/os.h **** /**
 150:..\..\..\..\cloud\alicloud\src\services\dev_bind\os/os.h ****  * @brief Convert the data from little-endian to host.
 151:..\..\..\..\cloud\alicloud\src\services\dev_bind\os/os.h ****    The size of the data is 64 bits.
 152:..\..\..\..\cloud\alicloud\src\services\dev_bind\os/os.h ****  *
 153:..\..\..\..\cloud\alicloud\src\services\dev_bind\os/os.h ****  * @param[in] data @n Data to be converted.
 154:..\..\..\..\cloud\alicloud\src\services\dev_bind\os/os.h ****  * @return Conversion result.
 155:..\..\..\..\cloud\alicloud\src\services\dev_bind\os/os.h ****  * @see None.
 156:..\..\..\..\cloud\alicloud\src\services\dev_bind\os/os.h ****  * @note None.
 157:..\..\..\..\cloud\alicloud\src\services\dev_bind\os/os.h ****  */
 158:..\..\..\..\cloud\alicloud\src\services\dev_bind\os/os.h **** //uint64_t os_le64toh(uint64_t data);
 159:..\..\..\..\cloud\alicloud\src\services\dev_bind\os/os.h **** 
 160:..\..\..\..\cloud\alicloud\src\services\dev_bind\os/os.h **** /**
 161:..\..\..\..\cloud\alicloud\src\services\dev_bind\os/os.h ****  * @brief Get unaligned 16 bits data which is big-endian and convert to host byte order.
 162:..\..\..\..\cloud\alicloud\src\services\dev_bind\os/os.h ****  *
 163:..\..\..\..\cloud\alicloud\src\services\dev_bind\os/os.h ****  * @param[in] ptr @n The start address of the unaligned data.
 164:..\..\..\..\cloud\alicloud\src\services\dev_bind\os/os.h ****  * @return Result in host byte order.
 165:..\..\..\..\cloud\alicloud\src\services\dev_bind\os/os.h ****  * @see None.
 166:..\..\..\..\cloud\alicloud\src\services\dev_bind\os/os.h ****  * @note None.
 167:..\..\..\..\cloud\alicloud\src\services\dev_bind\os/os.h ****  */
 168:..\..\..\..\cloud\alicloud\src\services\dev_bind\os/os.h **** uint16_t os_get_unaligned_be16(uint8_t *ptr);
 169:..\..\..\..\cloud\alicloud\src\services\dev_bind\os/os.h **** 
 170:..\..\..\..\cloud\alicloud\src\services\dev_bind\os/os.h **** /**
 171:..\..\..\..\cloud\alicloud\src\services\dev_bind\os/os.h ****  * @brief Get unaligned 16 bits data which is little-endian and convert to host byte order.
 172:..\..\..\..\cloud\alicloud\src\services\dev_bind\os/os.h ****  *
 173:..\..\..\..\cloud\alicloud\src\services\dev_bind\os/os.h ****  * @param[in] ptr @n The start address of the unaligned data.
 174:..\..\..\..\cloud\alicloud\src\services\dev_bind\os/os.h ****  * @return Result in host byte order.
 175:..\..\..\..\cloud\alicloud\src\services\dev_bind\os/os.h ****  * @see None.
 176:..\..\..\..\cloud\alicloud\src\services\dev_bind\os/os.h ****  * @note None.
 177:..\..\..\..\cloud\alicloud\src\services\dev_bind\os/os.h ****  */
 178:..\..\..\..\cloud\alicloud\src\services\dev_bind\os/os.h **** uint16_t os_get_unaligned_le16(uint8_t *ptr);
 179:..\..\..\..\cloud\alicloud\src\services\dev_bind\os/os.h **** 
 180:..\..\..\..\cloud\alicloud\src\services\dev_bind\os/os.h **** /**
 181:..\..\..\..\cloud\alicloud\src\services\dev_bind\os/os.h ****  * @brief Get unaligned 32 bits data which is big-endian and convert to host byte order.
 182:..\..\..\..\cloud\alicloud\src\services\dev_bind\os/os.h ****  *
 183:..\..\..\..\cloud\alicloud\src\services\dev_bind\os/os.h ****  * @param[in] ptr @n The start address of the unaligned data.
 184:..\..\..\..\cloud\alicloud\src\services\dev_bind\os/os.h ****  * @return Result in host byte order.
 185:..\..\..\..\cloud\alicloud\src\services\dev_bind\os/os.h ****  * @see None.
 186:..\..\..\..\cloud\alicloud\src\services\dev_bind\os/os.h ****  * @note None.
 187:..\..\..\..\cloud\alicloud\src\services\dev_bind\os/os.h ****  */
 188:..\..\..\..\cloud\alicloud\src\services\dev_bind\os/os.h **** uint32_t os_get_unaligned_be32(uint8_t *ptr);
 189:..\..\..\..\cloud\alicloud\src\services\dev_bind\os/os.h **** 
 190:..\..\..\..\cloud\alicloud\src\services\dev_bind\os/os.h **** /**
 191:..\..\..\..\cloud\alicloud\src\services\dev_bind\os/os.h ****  * @brief Get unaligned 32 bits data which is little-endian and convert to host byte order.
 192:..\..\..\..\cloud\alicloud\src\services\dev_bind\os/os.h ****  *
 193:..\..\..\..\cloud\alicloud\src\services\dev_bind\os/os.h ****  * @param[in] ptr @n The start address of the unaligned data.
 194:..\..\..\..\cloud\alicloud\src\services\dev_bind\os/os.h ****  * @return Result in host byte order.
 195:..\..\..\..\cloud\alicloud\src\services\dev_bind\os/os.h ****  * @see None.
 196:..\..\..\..\cloud\alicloud\src\services\dev_bind\os/os.h ****  * @note None.
 197:..\..\..\..\cloud\alicloud\src\services\dev_bind\os/os.h ****  */
 198:..\..\..\..\cloud\alicloud\src\services\dev_bind\os/os.h **** uint32_t os_get_unaligned_le32(uint8_t *ptr);
 199:..\..\..\..\cloud\alicloud\src\services\dev_bind\os/os.h **** 
 200:..\..\..\..\cloud\alicloud\src\services\dev_bind\os/os.h **** /**
 201:..\..\..\..\cloud\alicloud\src\services\dev_bind\os/os.h ****  * @brief sleep thread itself.
 202:..\..\..\..\cloud\alicloud\src\services\dev_bind\os/os.h ****  *
 203:..\..\..\..\cloud\alicloud\src\services\dev_bind\os/os.h ****  * @param[in] ms @n the time interval for which execution is to be suspended, in milliseconds.
 204:..\..\..\..\cloud\alicloud\src\services\dev_bind\os/os.h ****  * @return None.
 205:..\..\..\..\cloud\alicloud\src\services\dev_bind\os/os.h ****  * @see None.
 206:..\..\..\..\cloud\alicloud\src\services\dev_bind\os/os.h ****  * @note None.
 207:..\..\..\..\cloud\alicloud\src\services\dev_bind\os/os.h ****  */
 208:..\..\..\..\cloud\alicloud\src\services\dev_bind\os/os.h **** static inline void os_msleep(_IN_ uint32_t ms)
 209:..\..\..\..\cloud\alicloud\src\services\dev_bind\os/os.h **** {
 210:..\..\..\..\cloud\alicloud\src\services\dev_bind\os/os.h ****     platform_msleep(ms);
 211:..\..\..\..\cloud\alicloud\src\services\dev_bind\os/os.h **** }
 212:..\..\..\..\cloud\alicloud\src\services\dev_bind\os/os.h **** 
 213:..\..\..\..\cloud\alicloud\src\services\dev_bind\os/os.h **** /**
 214:..\..\..\..\cloud\alicloud\src\services\dev_bind\os/os.h ****  * @brief sleep thread itself.
 215:..\..\..\..\cloud\alicloud\src\services\dev_bind\os/os.h ****  *
 216:..\..\..\..\cloud\alicloud\src\services\dev_bind\os/os.h ****  * @param[in] sec @n the time interval for which execution is to be suspended, in seconds.
 217:..\..\..\..\cloud\alicloud\src\services\dev_bind\os/os.h ****  * @return None.
 218:..\..\..\..\cloud\alicloud\src\services\dev_bind\os/os.h ****  * @see None.
 219:..\..\..\..\cloud\alicloud\src\services\dev_bind\os/os.h ****  * @note None.
 220:..\..\..\..\cloud\alicloud\src\services\dev_bind\os/os.h ****  */
 221:..\..\..\..\cloud\alicloud\src\services\dev_bind\os/os.h **** static inline void os_sleep(_IN_ uint32_t sec)
 222:..\..\..\..\cloud\alicloud\src\services\dev_bind\os/os.h **** {
 223:..\..\..\..\cloud\alicloud\src\services\dev_bind\os/os.h ****     platform_msleep(sec * 1000);
 224:..\..\..\..\cloud\alicloud\src\services\dev_bind\os/os.h **** }
 225:..\..\..\..\cloud\alicloud\src\services\dev_bind\os/os.h **** 
 226:..\..\..\..\cloud\alicloud\src\services\dev_bind\os/os.h **** /**
 227:..\..\..\..\cloud\alicloud\src\services\dev_bind\os/os.h ****  * @brief system reboot immediately.
 228:..\..\..\..\cloud\alicloud\src\services\dev_bind\os/os.h ****  *
 229:..\..\..\..\cloud\alicloud\src\services\dev_bind\os/os.h ****  * @return None.
 230:..\..\..\..\cloud\alicloud\src\services\dev_bind\os/os.h ****  * @see None.
 231:..\..\..\..\cloud\alicloud\src\services\dev_bind\os/os.h ****  * @note None.
 232:..\..\..\..\cloud\alicloud\src\services\dev_bind\os/os.h ****  */
 233:..\..\..\..\cloud\alicloud\src\services\dev_bind\os/os.h **** static inline void os_reboot()
 234:..\..\..\..\cloud\alicloud\src\services\dev_bind\os/os.h **** {
 235:..\..\..\..\cloud\alicloud\src\services\dev_bind\os/os.h ****     platform_reboot();
 236:..\..\..\..\cloud\alicloud\src\services\dev_bind\os/os.h **** }
 237:..\..\..\..\cloud\alicloud\src\services\dev_bind\os/os.h **** 
 238:..\..\..\..\cloud\alicloud\src\services\dev_bind\os/os.h **** /** @} *///end of os_misc
 239:..\..\..\..\cloud\alicloud\src\services\dev_bind\os/os.h **** 
 240:..\..\..\..\cloud\alicloud\src\services\dev_bind\os/os.h **** /***************************************** mutex Interface ****************************************
 241:..\..\..\..\cloud\alicloud\src\services\dev_bind\os/os.h **** 
 242:..\..\..\..\cloud\alicloud\src\services\dev_bind\os/os.h **** /** @defgroup group_os_mutex mutex
 243:..\..\..\..\cloud\alicloud\src\services\dev_bind\os/os.h ****  *  @{
 244:..\..\..\..\cloud\alicloud\src\services\dev_bind\os/os.h ****  */
 245:..\..\..\..\cloud\alicloud\src\services\dev_bind\os/os.h **** 
 246:..\..\..\..\cloud\alicloud\src\services\dev_bind\os/os.h **** /**
 247:..\..\..\..\cloud\alicloud\src\services\dev_bind\os/os.h ****  * @brief Create a mutex.
 248:..\..\..\..\cloud\alicloud\src\services\dev_bind\os/os.h ****  *
 249:..\..\..\..\cloud\alicloud\src\services\dev_bind\os/os.h ****  * @return Mutex handle.
 250:..\..\..\..\cloud\alicloud\src\services\dev_bind\os/os.h ****  * @see None.
 251:..\..\..\..\cloud\alicloud\src\services\dev_bind\os/os.h ****  * @note None.
 252:..\..\..\..\cloud\alicloud\src\services\dev_bind\os/os.h ****  */
 253:..\..\..\..\cloud\alicloud\src\services\dev_bind\os/os.h **** static inline void *os_mutex_init(void)
 254:..\..\..\..\cloud\alicloud\src\services\dev_bind\os/os.h **** {
 255:..\..\..\..\cloud\alicloud\src\services\dev_bind\os/os.h ****     return platform_mutex_init();
 256:..\..\..\..\cloud\alicloud\src\services\dev_bind\os/os.h **** }
 257:..\..\..\..\cloud\alicloud\src\services\dev_bind\os/os.h **** 
 258:..\..\..\..\cloud\alicloud\src\services\dev_bind\os/os.h **** /**
 259:..\..\..\..\cloud\alicloud\src\services\dev_bind\os/os.h ****  * @brief Destroy the specified mutex object, it will free related resource.
 260:..\..\..\..\cloud\alicloud\src\services\dev_bind\os/os.h ****  *
 261:..\..\..\..\cloud\alicloud\src\services\dev_bind\os/os.h ****  * @param[in] mutex @n The specified mutex.
 262:..\..\..\..\cloud\alicloud\src\services\dev_bind\os/os.h ****  * @return None.
 263:..\..\..\..\cloud\alicloud\src\services\dev_bind\os/os.h ****  * @see None.
 264:..\..\..\..\cloud\alicloud\src\services\dev_bind\os/os.h ****  * @note None.
 265:..\..\..\..\cloud\alicloud\src\services\dev_bind\os/os.h ****  */
 266:..\..\..\..\cloud\alicloud\src\services\dev_bind\os/os.h **** static inline void os_mutex_destroy(_IN_ void *mutex)
 267:..\..\..\..\cloud\alicloud\src\services\dev_bind\os/os.h **** {
 268:..\..\..\..\cloud\alicloud\src\services\dev_bind\os/os.h ****     platform_mutex_destroy(mutex);
 269:..\..\..\..\cloud\alicloud\src\services\dev_bind\os/os.h **** }
 270:..\..\..\..\cloud\alicloud\src\services\dev_bind\os/os.h **** 
 271:..\..\..\..\cloud\alicloud\src\services\dev_bind\os/os.h **** /**
 272:..\..\..\..\cloud\alicloud\src\services\dev_bind\os/os.h ****  * @brief Waits until the specified mutex is in the signaled state.
 273:..\..\..\..\cloud\alicloud\src\services\dev_bind\os/os.h ****  *
 274:..\..\..\..\cloud\alicloud\src\services\dev_bind\os/os.h ****  * @param[in] mutex @n the specified mutex.
 275:..\..\..\..\cloud\alicloud\src\services\dev_bind\os/os.h ****  * @return None.
 276:..\..\..\..\cloud\alicloud\src\services\dev_bind\os/os.h ****  * @see None.
 277:..\..\..\..\cloud\alicloud\src\services\dev_bind\os/os.h ****  * @note None.
 278:..\..\..\..\cloud\alicloud\src\services\dev_bind\os/os.h ****  */
 279:..\..\..\..\cloud\alicloud\src\services\dev_bind\os/os.h **** static inline void os_mutex_lock(_IN_ void *mutex)
 280:..\..\..\..\cloud\alicloud\src\services\dev_bind\os/os.h **** {
 281:..\..\..\..\cloud\alicloud\src\services\dev_bind\os/os.h ****     platform_mutex_lock(mutex);
 282:..\..\..\..\cloud\alicloud\src\services\dev_bind\os/os.h **** }
 283:..\..\..\..\cloud\alicloud\src\services\dev_bind\os/os.h **** 
 284:..\..\..\..\cloud\alicloud\src\services\dev_bind\os/os.h **** /**
 285:..\..\..\..\cloud\alicloud\src\services\dev_bind\os/os.h ****  * @brief Releases ownership of the specified mutex object..
 286:..\..\..\..\cloud\alicloud\src\services\dev_bind\os/os.h ****  *
 287:..\..\..\..\cloud\alicloud\src\services\dev_bind\os/os.h ****  * @param[in] mutex @n the specified mutex.
 288:..\..\..\..\cloud\alicloud\src\services\dev_bind\os/os.h ****  * @return None.
 289:..\..\..\..\cloud\alicloud\src\services\dev_bind\os/os.h ****  * @see None.
 290:..\..\..\..\cloud\alicloud\src\services\dev_bind\os/os.h ****  * @note None.
 291:..\..\..\..\cloud\alicloud\src\services\dev_bind\os/os.h ****  */
 292:..\..\..\..\cloud\alicloud\src\services\dev_bind\os/os.h **** static inline void os_mutex_unlock(_IN_ void *mutex)
 293:..\..\..\..\cloud\alicloud\src\services\dev_bind\os/os.h **** {
 294:..\..\..\..\cloud\alicloud\src\services\dev_bind\os/os.h ****     platform_mutex_unlock(mutex);
 295:..\..\..\..\cloud\alicloud\src\services\dev_bind\os/os.h **** }
 296:..\..\..\..\cloud\alicloud\src\services\dev_bind\os/os.h **** 
 297:..\..\..\..\cloud\alicloud\src\services\dev_bind\os/os.h **** /** @} */// end of os_mutex
 298:..\..\..\..\cloud\alicloud\src\services\dev_bind\os/os.h **** 
 299:..\..\..\..\cloud\alicloud\src\services\dev_bind\os/os.h **** /*************************************** semaphore Interface **************************************
 300:..\..\..\..\cloud\alicloud\src\services\dev_bind\os/os.h **** 
 301:..\..\..\..\cloud\alicloud\src\services\dev_bind\os/os.h **** /** @defgroup group_os_semaphore semaphore
 302:..\..\..\..\cloud\alicloud\src\services\dev_bind\os/os.h ****  *  @{
 303:..\..\..\..\cloud\alicloud\src\services\dev_bind\os/os.h ****  */
 304:..\..\..\..\cloud\alicloud\src\services\dev_bind\os/os.h **** 
 305:..\..\..\..\cloud\alicloud\src\services\dev_bind\os/os.h **** /**
 306:..\..\..\..\cloud\alicloud\src\services\dev_bind\os/os.h ****  * @brief Create a semaphore.
 307:..\..\..\..\cloud\alicloud\src\services\dev_bind\os/os.h ****  *
 308:..\..\..\..\cloud\alicloud\src\services\dev_bind\os/os.h ****  * @return semaphore handle.
 309:..\..\..\..\cloud\alicloud\src\services\dev_bind\os/os.h ****  * @see None.
 310:..\..\..\..\cloud\alicloud\src\services\dev_bind\os/os.h ****  * @note The recommended value of maximum count of the semaphore is 255.
 311:..\..\..\..\cloud\alicloud\src\services\dev_bind\os/os.h ****  */
 312:..\..\..\..\cloud\alicloud\src\services\dev_bind\os/os.h **** static inline void *os_semaphore_init(void)
 313:..\..\..\..\cloud\alicloud\src\services\dev_bind\os/os.h **** {
 314:..\..\..\..\cloud\alicloud\src\services\dev_bind\os/os.h ****     return platform_semaphore_init();
 315:..\..\..\..\cloud\alicloud\src\services\dev_bind\os/os.h **** }
 316:..\..\..\..\cloud\alicloud\src\services\dev_bind\os/os.h **** 
 317:..\..\..\..\cloud\alicloud\src\services\dev_bind\os/os.h **** /**
 318:..\..\..\..\cloud\alicloud\src\services\dev_bind\os/os.h ****  * @brief Destroy the specified semaphore object, it will free related resource.
 319:..\..\..\..\cloud\alicloud\src\services\dev_bind\os/os.h ****  *
 320:..\..\..\..\cloud\alicloud\src\services\dev_bind\os/os.h ****  * @param[in] sem @n the specified sem.
 321:..\..\..\..\cloud\alicloud\src\services\dev_bind\os/os.h ****  * @return None.
 322:..\..\..\..\cloud\alicloud\src\services\dev_bind\os/os.h ****  * @see None.
 323:..\..\..\..\cloud\alicloud\src\services\dev_bind\os/os.h ****  * @note None.
 324:..\..\..\..\cloud\alicloud\src\services\dev_bind\os/os.h ****  */
 325:..\..\..\..\cloud\alicloud\src\services\dev_bind\os/os.h **** static inline void os_semaphore_destroy(_IN_ void *sem)
 326:..\..\..\..\cloud\alicloud\src\services\dev_bind\os/os.h **** {
 327:..\..\..\..\cloud\alicloud\src\services\dev_bind\os/os.h ****     platform_semaphore_destroy(sem);
 328:..\..\..\..\cloud\alicloud\src\services\dev_bind\os/os.h **** }
 329:..\..\..\..\cloud\alicloud\src\services\dev_bind\os/os.h **** 
 330:..\..\..\..\cloud\alicloud\src\services\dev_bind\os/os.h **** /**
 331:..\..\..\..\cloud\alicloud\src\services\dev_bind\os/os.h ****  * @brief Wait until the specified mutex is in the signaled state or the time-out interval elapses.
 332:..\..\..\..\cloud\alicloud\src\services\dev_bind\os/os.h ****  *
 333:..\..\..\..\cloud\alicloud\src\services\dev_bind\os/os.h ****  * @param[in] sem @n the specified semaphore.
 334:..\..\..\..\cloud\alicloud\src\services\dev_bind\os/os.h ****  * @param[in] timeout_ms @n timeout interval in millisecond.
 335:..\..\..\..\cloud\alicloud\src\services\dev_bind\os/os.h ****      If timeout_ms is OS_WAIT_INFINITE, the function will return only when the semaphore is signale
 336:..\..\..\..\cloud\alicloud\src\services\dev_bind\os/os.h ****  * @return
 337:..\..\..\..\cloud\alicloud\src\services\dev_bind\os/os.h ****    @verbatim
 338:..\..\..\..\cloud\alicloud\src\services\dev_bind\os/os.h ****    =  0: The state of the specified object is signaled.
 339:..\..\..\..\cloud\alicloud\src\services\dev_bind\os/os.h ****    =  -1: The time-out interval elapsed, and the object's state is nonsignaled.
 340:..\..\..\..\cloud\alicloud\src\services\dev_bind\os/os.h ****    @endverbatim
 341:..\..\..\..\cloud\alicloud\src\services\dev_bind\os/os.h ****  * @see None.
 342:..\..\..\..\cloud\alicloud\src\services\dev_bind\os/os.h ****  * @note None.
 343:..\..\..\..\cloud\alicloud\src\services\dev_bind\os/os.h ****  */
 344:..\..\..\..\cloud\alicloud\src\services\dev_bind\os/os.h **** static inline int os_semaphore_wait(_IN_ void *sem, _IN_ uint32_t timeout_ms)
 345:..\..\..\..\cloud\alicloud\src\services\dev_bind\os/os.h **** {
 346:..\..\..\..\cloud\alicloud\src\services\dev_bind\os/os.h ****     return platform_semaphore_wait(sem, timeout_ms);
 347:..\..\..\..\cloud\alicloud\src\services\dev_bind\os/os.h **** }
 348:..\..\..\..\cloud\alicloud\src\services\dev_bind\os/os.h **** 
 349:..\..\..\..\cloud\alicloud\src\services\dev_bind\os/os.h **** /**
 350:..\..\..\..\cloud\alicloud\src\services\dev_bind\os/os.h ****  * @brief Increases the count of the specified semaphore object by 1.
 351:..\..\..\..\cloud\alicloud\src\services\dev_bind\os/os.h ****  *
 352:..\..\..\..\cloud\alicloud\src\services\dev_bind\os/os.h ****  * @param[in] sem @n the specified semaphore.
 353:..\..\..\..\cloud\alicloud\src\services\dev_bind\os/os.h ****  * @return None.
 354:..\..\..\..\cloud\alicloud\src\services\dev_bind\os/os.h ****  * @see None.
 355:..\..\..\..\cloud\alicloud\src\services\dev_bind\os/os.h ****  * @note None.
 356:..\..\..\..\cloud\alicloud\src\services\dev_bind\os/os.h ****  */
 357:..\..\..\..\cloud\alicloud\src\services\dev_bind\os/os.h **** static inline void os_semaphore_post(_IN_ void *sem)
 358:..\..\..\..\cloud\alicloud\src\services\dev_bind\os/os.h **** {
 359:..\..\..\..\cloud\alicloud\src\services\dev_bind\os/os.h ****     platform_semaphore_post(sem);
 360:..\..\..\..\cloud\alicloud\src\services\dev_bind\os/os.h **** }
 361:..\..\..\..\cloud\alicloud\src\services\dev_bind\os/os.h **** 
 362:..\..\..\..\cloud\alicloud\src\services\dev_bind\os/os.h **** /** @} */// end of os_semaphore
 363:..\..\..\..\cloud\alicloud\src\services\dev_bind\os/os.h **** 
 364:..\..\..\..\cloud\alicloud\src\services\dev_bind\os/os.h **** /**************************************** memory Interface ****************************************
 365:..\..\..\..\cloud\alicloud\src\services\dev_bind\os/os.h **** 
 366:..\..\..\..\cloud\alicloud\src\services\dev_bind\os/os.h **** /** @defgroup group_os_memory_manage memory
 367:..\..\..\..\cloud\alicloud\src\services\dev_bind\os/os.h ****  *  @{
 368:..\..\..\..\cloud\alicloud\src\services\dev_bind\os/os.h ****  */
 369:..\..\..\..\cloud\alicloud\src\services\dev_bind\os/os.h **** 
 370:..\..\..\..\cloud\alicloud\src\services\dev_bind\os/os.h **** /**
 371:..\..\..\..\cloud\alicloud\src\services\dev_bind\os/os.h ****  * @brief Allocates a block of size bytes of memory, returning a pointer to the beginning of the bl
 372:..\..\..\..\cloud\alicloud\src\services\dev_bind\os/os.h ****  *
 373:..\..\..\..\cloud\alicloud\src\services\dev_bind\os/os.h ****  * @param[in] size @n specify block size in bytes.
 374:..\..\..\..\cloud\alicloud\src\services\dev_bind\os/os.h ****  * @return A pointer to the beginning of the block.
 375:..\..\..\..\cloud\alicloud\src\services\dev_bind\os/os.h ****  * @see None.
 376:..\..\..\..\cloud\alicloud\src\services\dev_bind\os/os.h ****  * @note Block value is indeterminate.
 377:..\..\..\..\cloud\alicloud\src\services\dev_bind\os/os.h ****  */
 378:..\..\..\..\cloud\alicloud\src\services\dev_bind\os/os.h **** static inline void *os_malloc(_IN_ uint32_t size)
 379:..\..\..\..\cloud\alicloud\src\services\dev_bind\os/os.h **** {
 380:..\..\..\..\cloud\alicloud\src\services\dev_bind\os/os.h ****     return platform_malloc(size);
 381:..\..\..\..\cloud\alicloud\src\services\dev_bind\os/os.h **** }
 382:..\..\..\..\cloud\alicloud\src\services\dev_bind\os/os.h **** 
 383:..\..\..\..\cloud\alicloud\src\services\dev_bind\os/os.h **** 
 384:..\..\..\..\cloud\alicloud\src\services\dev_bind\os/os.h **** /**
 385:..\..\..\..\cloud\alicloud\src\services\dev_bind\os/os.h ****  * @brief Deallocate memory block
 386:..\..\..\..\cloud\alicloud\src\services\dev_bind\os/os.h ****  *
 387:..\..\..\..\cloud\alicloud\src\services\dev_bind\os/os.h ****  * @param[in] ptr @n Pointer to a memory block previously allocated with platform_malloc.
 388:..\..\..\..\cloud\alicloud\src\services\dev_bind\os/os.h ****  * @return None.
 389:..\..\..\..\cloud\alicloud\src\services\dev_bind\os/os.h ****  * @see None.
 390:..\..\..\..\cloud\alicloud\src\services\dev_bind\os/os.h ****  * @note None.
 391:..\..\..\..\cloud\alicloud\src\services\dev_bind\os/os.h ****  */
 392:..\..\..\..\cloud\alicloud\src\services\dev_bind\os/os.h **** static inline void os_free(_IN_ void *ptr)
 393:..\..\..\..\cloud\alicloud\src\services\dev_bind\os/os.h **** {
 394:..\..\..\..\cloud\alicloud\src\services\dev_bind\os/os.h ****     platform_free(ptr);
 395:..\..\..\..\cloud\alicloud\src\services\dev_bind\os/os.h **** }
 396:..\..\..\..\cloud\alicloud\src\services\dev_bind\os/os.h **** 
 397:..\..\..\..\cloud\alicloud\src\services\dev_bind\os/os.h **** /**
 398:..\..\..\..\cloud\alicloud\src\services\dev_bind\os/os.h ****  * @brief Allocates a memory block with memory initialized to 0,
 399:..\..\..\..\cloud\alicloud\src\services\dev_bind\os/os.h ****      returning a pointer to the beginning of the block.
 400:..\..\..\..\cloud\alicloud\src\services\dev_bind\os/os.h ****  *
 401:..\..\..\..\cloud\alicloud\src\services\dev_bind\os/os.h ****  * @param[in] size @n specify block size in bytes.
 402:..\..\..\..\cloud\alicloud\src\services\dev_bind\os/os.h ****  * @return A pointer to the beginning of the block.
 403:..\..\..\..\cloud\alicloud\src\services\dev_bind\os/os.h ****  * @see None.
 404:..\..\..\..\cloud\alicloud\src\services\dev_bind\os/os.h ****  * @note Block value is indeterminate.
 405:..\..\..\..\cloud\alicloud\src\services\dev_bind\os/os.h ****  */
 406:..\..\..\..\cloud\alicloud\src\services\dev_bind\os/os.h **** static inline void *os_zalloc(uint32_t size)
 407:..\..\..\..\cloud\alicloud\src\services\dev_bind\os/os.h **** {
  15              		.loc 1 407 1
  16              		.cfi_startproc
  17              	.LVL0:
  18 0000 17030000 		call	t0,__riscv_save_1
  18      E7020300 
  19              		.cfi_offset 8, -8
  20              		.cfi_offset 1, -4
  21              		.cfi_def_cfa_offset 16
 408:..\..\..\..\cloud\alicloud\src\services\dev_bind\os/os.h ****     void *ptr = os_malloc(size);
  22              		.loc 1 408 5
 407:..\..\..\..\cloud\alicloud\src\services\dev_bind\os/os.h ****     void *ptr = os_malloc(size);
  23              		.loc 1 407 1 is_stmt 0
  24 0008 4111     		addi	sp,sp,-16
  25              		.cfi_def_cfa_offset 32
  26              	.LVL1:
  27              	.LBB23:
  28              	.LBB24:
 380:..\..\..\..\cloud\alicloud\src\services\dev_bind\os/os.h **** }
  29              		.loc 1 380 5 is_stmt 1
  30              	.LBE24:
  31              	.LBE23:
 407:..\..\..\..\cloud\alicloud\src\services\dev_bind\os/os.h ****     void *ptr = os_malloc(size);
  32              		.loc 1 407 1 is_stmt 0
  33 000a 2AC6     		sw	a0,12(sp)
  34              	.LVL2:
  35              	.LBB26:
  36              	.LBB25:
 380:..\..\..\..\cloud\alicloud\src\services\dev_bind\os/os.h **** }
  37              		.loc 1 380 12
  38 000c 97000000 		call	HAL_Malloc
  38      E7800000 
  39              	.LVL3:
  40 0014 2A84     		mv	s0,a0
  41              	.LVL4:
  42              	.LBE25:
  43              	.LBE26:
 409:..\..\..\..\cloud\alicloud\src\services\dev_bind\os/os.h ****     if (ptr != NULL) {
  44              		.loc 1 409 5 is_stmt 1
  45              		.loc 1 409 8 is_stmt 0
  46 0016 19C5     		beq	a0,zero,.L1
 410:..\..\..\..\cloud\alicloud\src\services\dev_bind\os/os.h ****         memset(ptr, 0, size);
  47              		.loc 1 410 9 is_stmt 1
  48 0018 3246     		lw	a2,12(sp)
  49 001a 8145     		li	a1,0
  50 001c 97000000 		call	memset
  50      E7800000 
  51              	.LVL5:
 411:..\..\..\..\cloud\alicloud\src\services\dev_bind\os/os.h ****     }
 412:..\..\..\..\cloud\alicloud\src\services\dev_bind\os/os.h ****     return ptr;
  52              		.loc 1 412 5
  53              	.L1:
 413:..\..\..\..\cloud\alicloud\src\services\dev_bind\os/os.h **** }
  54              		.loc 1 413 1 is_stmt 0
  55 0024 2285     		mv	a0,s0
  56 0026 4101     		addi	sp,sp,16
  57              		.cfi_def_cfa_offset 0
  58              	.LVL6:
  59 0028 17030000 		tail	__riscv_restore_1
  59      67000300 
  60              		.cfi_restore 8
  61              		.cfi_restore 1
  62              		.cfi_def_cfa_offset -16
  63              		.cfi_endproc
  64              	.LFE18:
  66              		.section	.text.build_service_version,"ax",@progbits
  67              		.align	1
  68              		.globl	build_service_version
  70              	build_service_version:
  71              	.LFB64:
  72              		.file 2 "C:/Users/stapi/OneDrive/Desktop/GD32VW553/V1_MQTT_OK/GD32VW55X_Wifi_BLE_SDK/GD32VW55x_REL
   1:C:/Users/stapi/OneDrive/Desktop/GD32VW553/V1_MQTT_OK/GD32VW55X_Wifi_BLE_SDK/GD32VW55x_RELEASE_V1.0.2/MSDK/cloud/alicloud/src/services/dev_bind\awss_packet.c **** /*
   2:C:/Users/stapi/OneDrive/Desktop/GD32VW553/V1_MQTT_OK/GD32VW55X_Wifi_BLE_SDK/GD32VW55x_RELEASE_V1.0.2/MSDK/cloud/alicloud/src/services/dev_bind\awss_packet.c ****  * Copyright (C) 2015-2018 Alibaba Group Holding Limited
   3:C:/Users/stapi/OneDrive/Desktop/GD32VW553/V1_MQTT_OK/GD32VW55X_Wifi_BLE_SDK/GD32VW55x_RELEASE_V1.0.2/MSDK/cloud/alicloud/src/services/dev_bind\awss_packet.c ****  */
   4:C:/Users/stapi/OneDrive/Desktop/GD32VW553/V1_MQTT_OK/GD32VW55X_Wifi_BLE_SDK/GD32VW55x_RELEASE_V1.0.2/MSDK/cloud/alicloud/src/services/dev_bind\awss_packet.c **** 
   5:C:/Users/stapi/OneDrive/Desktop/GD32VW553/V1_MQTT_OK/GD32VW55X_Wifi_BLE_SDK/GD32VW55x_RELEASE_V1.0.2/MSDK/cloud/alicloud/src/services/dev_bind\awss_packet.c **** 
   6:C:/Users/stapi/OneDrive/Desktop/GD32VW553/V1_MQTT_OK/GD32VW55X_Wifi_BLE_SDK/GD32VW55x_RELEASE_V1.0.2/MSDK/cloud/alicloud/src/services/dev_bind\awss_packet.c **** 
   7:C:/Users/stapi/OneDrive/Desktop/GD32VW553/V1_MQTT_OK/GD32VW55X_Wifi_BLE_SDK/GD32VW55x_RELEASE_V1.0.2/MSDK/cloud/alicloud/src/services/dev_bind\awss_packet.c **** #include <stdint.h>
   8:C:/Users/stapi/OneDrive/Desktop/GD32VW553/V1_MQTT_OK/GD32VW55X_Wifi_BLE_SDK/GD32VW55x_RELEASE_V1.0.2/MSDK/cloud/alicloud/src/services/dev_bind\awss_packet.c **** #include "os.h"
   9:C:/Users/stapi/OneDrive/Desktop/GD32VW553/V1_MQTT_OK/GD32VW55X_Wifi_BLE_SDK/GD32VW55x_RELEASE_V1.0.2/MSDK/cloud/alicloud/src/services/dev_bind\awss_packet.c **** #include "passwd.h"
  10:C:/Users/stapi/OneDrive/Desktop/GD32VW553/V1_MQTT_OK/GD32VW55X_Wifi_BLE_SDK/GD32VW55x_RELEASE_V1.0.2/MSDK/cloud/alicloud/src/services/dev_bind\awss_packet.c **** #include "awss_cmp.h"
  11:C:/Users/stapi/OneDrive/Desktop/GD32VW553/V1_MQTT_OK/GD32VW55X_Wifi_BLE_SDK/GD32VW55x_RELEASE_V1.0.2/MSDK/cloud/alicloud/src/services/dev_bind\awss_packet.c **** #include "awss_notify.h"
  12:C:/Users/stapi/OneDrive/Desktop/GD32VW553/V1_MQTT_OK/GD32VW55X_Wifi_BLE_SDK/GD32VW55x_RELEASE_V1.0.2/MSDK/cloud/alicloud/src/services/dev_bind\awss_packet.c **** #include "awss_packet.h"
  13:C:/Users/stapi/OneDrive/Desktop/GD32VW553/V1_MQTT_OK/GD32VW55X_Wifi_BLE_SDK/GD32VW55x_RELEASE_V1.0.2/MSDK/cloud/alicloud/src/services/dev_bind\awss_packet.c **** #include "awss_utils.h"
  14:C:/Users/stapi/OneDrive/Desktop/GD32VW553/V1_MQTT_OK/GD32VW55X_Wifi_BLE_SDK/GD32VW55x_RELEASE_V1.0.2/MSDK/cloud/alicloud/src/services/dev_bind\awss_packet.c **** #include "iot_import_product.h"
  15:C:/Users/stapi/OneDrive/Desktop/GD32VW553/V1_MQTT_OK/GD32VW55X_Wifi_BLE_SDK/GD32VW55x_RELEASE_V1.0.2/MSDK/cloud/alicloud/src/services/dev_bind\awss_packet.c **** #include "iot_export.h"
  16:C:/Users/stapi/OneDrive/Desktop/GD32VW553/V1_MQTT_OK/GD32VW55X_Wifi_BLE_SDK/GD32VW55x_RELEASE_V1.0.2/MSDK/cloud/alicloud/src/services/dev_bind\awss_packet.c **** #include "iotx_utils.h"
  17:C:/Users/stapi/OneDrive/Desktop/GD32VW553/V1_MQTT_OK/GD32VW55X_Wifi_BLE_SDK/GD32VW55x_RELEASE_V1.0.2/MSDK/cloud/alicloud/src/services/dev_bind\awss_packet.c **** 
  18:C:/Users/stapi/OneDrive/Desktop/GD32VW553/V1_MQTT_OK/GD32VW55X_Wifi_BLE_SDK/GD32VW55x_RELEASE_V1.0.2/MSDK/cloud/alicloud/src/services/dev_bind\awss_packet.c **** #define AWSS_DEV_RAND_SIGN_FMT  ",\"random\":\"%s\",\"signMethod\":%d,\"sign\":\"%s\""
  19:C:/Users/stapi/OneDrive/Desktop/GD32VW553/V1_MQTT_OK/GD32VW55X_Wifi_BLE_SDK/GD32VW55x_RELEASE_V1.0.2/MSDK/cloud/alicloud/src/services/dev_bind\awss_packet.c **** #define AWSS_DEV_BIND_TOKEN_FMT ",\"token\":\"%s\",\"tokenType\":%d,\"remainTime\":%d,\"type\":%d"
  20:C:/Users/stapi/OneDrive/Desktop/GD32VW553/V1_MQTT_OK/GD32VW55X_Wifi_BLE_SDK/GD32VW55x_RELEASE_V1.0.2/MSDK/cloud/alicloud/src/services/dev_bind\awss_packet.c **** #define AWSS_SUCCESS_FMT        ",\"type\":%d"
  21:C:/Users/stapi/OneDrive/Desktop/GD32VW553/V1_MQTT_OK/GD32VW55X_Wifi_BLE_SDK/GD32VW55x_RELEASE_V1.0.2/MSDK/cloud/alicloud/src/services/dev_bind\awss_packet.c **** #define AWSS_DEV_INFO_FMT       "\"awssVer\":%s,\"productKey\":\"%s\",\"deviceName\":\"%s\",\"mac\"
  22:C:/Users/stapi/OneDrive/Desktop/GD32VW553/V1_MQTT_OK/GD32VW55X_Wifi_BLE_SDK/GD32VW55x_RELEASE_V1.0.2/MSDK/cloud/alicloud/src/services/dev_bind\awss_packet.c **** 
  23:C:/Users/stapi/OneDrive/Desktop/GD32VW553/V1_MQTT_OK/GD32VW55X_Wifi_BLE_SDK/GD32VW55x_RELEASE_V1.0.2/MSDK/cloud/alicloud/src/services/dev_bind\awss_packet.c **** #if defined(__cplusplus)  /* If this is a C++ compiler, use C linkage */
  24:C:/Users/stapi/OneDrive/Desktop/GD32VW553/V1_MQTT_OK/GD32VW55X_Wifi_BLE_SDK/GD32VW55x_RELEASE_V1.0.2/MSDK/cloud/alicloud/src/services/dev_bind\awss_packet.c **** extern "C"
  25:C:/Users/stapi/OneDrive/Desktop/GD32VW553/V1_MQTT_OK/GD32VW55X_Wifi_BLE_SDK/GD32VW55x_RELEASE_V1.0.2/MSDK/cloud/alicloud/src/services/dev_bind\awss_packet.c **** {
  26:C:/Users/stapi/OneDrive/Desktop/GD32VW553/V1_MQTT_OK/GD32VW55X_Wifi_BLE_SDK/GD32VW55x_RELEASE_V1.0.2/MSDK/cloud/alicloud/src/services/dev_bind\awss_packet.c **** #endif
  27:C:/Users/stapi/OneDrive/Desktop/GD32VW553/V1_MQTT_OK/GD32VW55X_Wifi_BLE_SDK/GD32VW55x_RELEASE_V1.0.2/MSDK/cloud/alicloud/src/services/dev_bind\awss_packet.c **** 
  28:C:/Users/stapi/OneDrive/Desktop/GD32VW553/V1_MQTT_OK/GD32VW55X_Wifi_BLE_SDK/GD32VW55x_RELEASE_V1.0.2/MSDK/cloud/alicloud/src/services/dev_bind\awss_packet.c **** char *build_service_version(void)
  29:C:/Users/stapi/OneDrive/Desktop/GD32VW553/V1_MQTT_OK/GD32VW55X_Wifi_BLE_SDK/GD32VW55x_RELEASE_V1.0.2/MSDK/cloud/alicloud/src/services/dev_bind\awss_packet.c **** {
  73              		.loc 2 29 1 is_stmt 1
  74              		.cfi_startproc
  75 0000 17030000 		call	t0,__riscv_save_2
  75      E7020300 
  76              		.cfi_offset 9, -12
  77              		.cfi_offset 8, -8
  78              		.cfi_offset 1, -4
  79              		.cfi_def_cfa_offset 16
  30:C:/Users/stapi/OneDrive/Desktop/GD32VW553/V1_MQTT_OK/GD32VW55X_Wifi_BLE_SDK/GD32VW55x_RELEASE_V1.0.2/MSDK/cloud/alicloud/src/services/dev_bind\awss_packet.c ****     char *version_str = NULL;
  80              		.loc 2 30 5
  81              	.LVL7:
  31:C:/Users/stapi/OneDrive/Desktop/GD32VW553/V1_MQTT_OK/GD32VW55X_Wifi_BLE_SDK/GD32VW55x_RELEASE_V1.0.2/MSDK/cloud/alicloud/src/services/dev_bind\awss_packet.c ****     lite_cjson_item_t *lite_object = NULL;
  82              		.loc 2 31 5
  32:C:/Users/stapi/OneDrive/Desktop/GD32VW553/V1_MQTT_OK/GD32VW55X_Wifi_BLE_SDK/GD32VW55x_RELEASE_V1.0.2/MSDK/cloud/alicloud/src/services/dev_bind\awss_packet.c **** 
  33:C:/Users/stapi/OneDrive/Desktop/GD32VW553/V1_MQTT_OK/GD32VW55X_Wifi_BLE_SDK/GD32VW55x_RELEASE_V1.0.2/MSDK/cloud/alicloud/src/services/dev_bind\awss_packet.c ****     lite_object = lite_cjson_create_object();
  83              		.loc 2 33 5
  84              		.loc 2 33 19 is_stmt 0
  85 0008 97000000 		call	lite_cjson_create_object
  85      E7800000 
  86              	.LVL8:
  87 0010 2A84     		mv	s0,a0
  88              	.LVL9:
  34:C:/Users/stapi/OneDrive/Desktop/GD32VW553/V1_MQTT_OK/GD32VW55X_Wifi_BLE_SDK/GD32VW55x_RELEASE_V1.0.2/MSDK/cloud/alicloud/src/services/dev_bind\awss_packet.c ****     if (lite_object == NULL)
  89              		.loc 2 34 5 is_stmt 1
  90              		.loc 2 34 8 is_stmt 0
  91 0012 01CD     		beq	a0,zero,.L7
  35:C:/Users/stapi/OneDrive/Desktop/GD32VW553/V1_MQTT_OK/GD32VW55X_Wifi_BLE_SDK/GD32VW55x_RELEASE_V1.0.2/MSDK/cloud/alicloud/src/services/dev_bind\awss_packet.c ****     {
  36:C:/Users/stapi/OneDrive/Desktop/GD32VW553/V1_MQTT_OK/GD32VW55X_Wifi_BLE_SDK/GD32VW55x_RELEASE_V1.0.2/MSDK/cloud/alicloud/src/services/dev_bind\awss_packet.c ****         return NULL;
  37:C:/Users/stapi/OneDrive/Desktop/GD32VW553/V1_MQTT_OK/GD32VW55X_Wifi_BLE_SDK/GD32VW55x_RELEASE_V1.0.2/MSDK/cloud/alicloud/src/services/dev_bind\awss_packet.c ****     }
  38:C:/Users/stapi/OneDrive/Desktop/GD32VW553/V1_MQTT_OK/GD32VW55X_Wifi_BLE_SDK/GD32VW55x_RELEASE_V1.0.2/MSDK/cloud/alicloud/src/services/dev_bind\awss_packet.c **** 
  39:C:/Users/stapi/OneDrive/Desktop/GD32VW553/V1_MQTT_OK/GD32VW55X_Wifi_BLE_SDK/GD32VW55x_RELEASE_V1.0.2/MSDK/cloud/alicloud/src/services/dev_bind\awss_packet.c ****     if (DEV_DIAGNOSIS_SUPPORTED_SERVICE & DEV_SUPPORT_ERRCODE)
  92              		.loc 2 39 5 is_stmt 1
  40:C:/Users/stapi/OneDrive/Desktop/GD32VW553/V1_MQTT_OK/GD32VW55X_Wifi_BLE_SDK/GD32VW55x_RELEASE_V1.0.2/MSDK/cloud/alicloud/src/services/dev_bind\awss_packet.c ****     {
  41:C:/Users/stapi/OneDrive/Desktop/GD32VW553/V1_MQTT_OK/GD32VW55X_Wifi_BLE_SDK/GD32VW55x_RELEASE_V1.0.2/MSDK/cloud/alicloud/src/services/dev_bind\awss_packet.c ****         lite_cjson_add_string_to_object(lite_object, "ErrCode", "1.0");
  42:C:/Users/stapi/OneDrive/Desktop/GD32VW553/V1_MQTT_OK/GD32VW55X_Wifi_BLE_SDK/GD32VW55x_RELEASE_V1.0.2/MSDK/cloud/alicloud/src/services/dev_bind\awss_packet.c ****     }
  43:C:/Users/stapi/OneDrive/Desktop/GD32VW553/V1_MQTT_OK/GD32VW55X_Wifi_BLE_SDK/GD32VW55x_RELEASE_V1.0.2/MSDK/cloud/alicloud/src/services/dev_bind\awss_packet.c **** 
  44:C:/Users/stapi/OneDrive/Desktop/GD32VW553/V1_MQTT_OK/GD32VW55X_Wifi_BLE_SDK/GD32VW55x_RELEASE_V1.0.2/MSDK/cloud/alicloud/src/services/dev_bind\awss_packet.c ****     if (DEV_DIAGNOSIS_SUPPORTED_SERVICE & DEV_SUPPORT_OFFLINE_OTA)
  93              		.loc 2 44 5
  45:C:/Users/stapi/OneDrive/Desktop/GD32VW553/V1_MQTT_OK/GD32VW55X_Wifi_BLE_SDK/GD32VW55x_RELEASE_V1.0.2/MSDK/cloud/alicloud/src/services/dev_bind\awss_packet.c ****     {
  46:C:/Users/stapi/OneDrive/Desktop/GD32VW553/V1_MQTT_OK/GD32VW55X_Wifi_BLE_SDK/GD32VW55x_RELEASE_V1.0.2/MSDK/cloud/alicloud/src/services/dev_bind\awss_packet.c ****         lite_cjson_add_string_to_object(lite_object, "OfflineOTA", "1.0");
  47:C:/Users/stapi/OneDrive/Desktop/GD32VW553/V1_MQTT_OK/GD32VW55X_Wifi_BLE_SDK/GD32VW55x_RELEASE_V1.0.2/MSDK/cloud/alicloud/src/services/dev_bind\awss_packet.c ****     }
  48:C:/Users/stapi/OneDrive/Desktop/GD32VW553/V1_MQTT_OK/GD32VW55X_Wifi_BLE_SDK/GD32VW55x_RELEASE_V1.0.2/MSDK/cloud/alicloud/src/services/dev_bind\awss_packet.c **** 
  49:C:/Users/stapi/OneDrive/Desktop/GD32VW553/V1_MQTT_OK/GD32VW55X_Wifi_BLE_SDK/GD32VW55x_RELEASE_V1.0.2/MSDK/cloud/alicloud/src/services/dev_bind\awss_packet.c ****     if (DEV_DIAGNOSIS_SUPPORTED_SERVICE & DEV_SUPPORT_OFFLINE_LOG)
  94              		.loc 2 49 5
  50:C:/Users/stapi/OneDrive/Desktop/GD32VW553/V1_MQTT_OK/GD32VW55X_Wifi_BLE_SDK/GD32VW55x_RELEASE_V1.0.2/MSDK/cloud/alicloud/src/services/dev_bind\awss_packet.c ****     {
  51:C:/Users/stapi/OneDrive/Desktop/GD32VW553/V1_MQTT_OK/GD32VW55X_Wifi_BLE_SDK/GD32VW55x_RELEASE_V1.0.2/MSDK/cloud/alicloud/src/services/dev_bind\awss_packet.c ****         lite_cjson_add_string_to_object(lite_object, "OfflineLog", "1.0");
  52:C:/Users/stapi/OneDrive/Desktop/GD32VW553/V1_MQTT_OK/GD32VW55X_Wifi_BLE_SDK/GD32VW55x_RELEASE_V1.0.2/MSDK/cloud/alicloud/src/services/dev_bind\awss_packet.c ****     }
  53:C:/Users/stapi/OneDrive/Desktop/GD32VW553/V1_MQTT_OK/GD32VW55X_Wifi_BLE_SDK/GD32VW55x_RELEASE_V1.0.2/MSDK/cloud/alicloud/src/services/dev_bind\awss_packet.c **** 
  54:C:/Users/stapi/OneDrive/Desktop/GD32VW553/V1_MQTT_OK/GD32VW55X_Wifi_BLE_SDK/GD32VW55x_RELEASE_V1.0.2/MSDK/cloud/alicloud/src/services/dev_bind\awss_packet.c ****     if (DEV_DIAGNOSIS_SUPPORTED_SERVICE & DEV_SUPPORT_DEVAP_BATCH_PROV)
  95              		.loc 2 54 5
  55:C:/Users/stapi/OneDrive/Desktop/GD32VW553/V1_MQTT_OK/GD32VW55X_Wifi_BLE_SDK/GD32VW55x_RELEASE_V1.0.2/MSDK/cloud/alicloud/src/services/dev_bind\awss_packet.c ****     {
  56:C:/Users/stapi/OneDrive/Desktop/GD32VW553/V1_MQTT_OK/GD32VW55X_Wifi_BLE_SDK/GD32VW55x_RELEASE_V1.0.2/MSDK/cloud/alicloud/src/services/dev_bind\awss_packet.c ****         lite_cjson_add_string_to_object(lite_object, "BatchEnrollee", "1.0");
  57:C:/Users/stapi/OneDrive/Desktop/GD32VW553/V1_MQTT_OK/GD32VW55X_Wifi_BLE_SDK/GD32VW55x_RELEASE_V1.0.2/MSDK/cloud/alicloud/src/services/dev_bind\awss_packet.c ****     }
  58:C:/Users/stapi/OneDrive/Desktop/GD32VW553/V1_MQTT_OK/GD32VW55X_Wifi_BLE_SDK/GD32VW55x_RELEASE_V1.0.2/MSDK/cloud/alicloud/src/services/dev_bind\awss_packet.c **** 
  59:C:/Users/stapi/OneDrive/Desktop/GD32VW553/V1_MQTT_OK/GD32VW55X_Wifi_BLE_SDK/GD32VW55x_RELEASE_V1.0.2/MSDK/cloud/alicloud/src/services/dev_bind\awss_packet.c ****     version_str = lite_cjson_print_unformatted(lite_object);
  96              		.loc 2 59 5
  97              		.loc 2 59 19 is_stmt 0
  98 0014 97000000 		call	lite_cjson_print_unformatted
  98      E7800000 
  99              	.LVL10:
 100 001c AA84     		mv	s1,a0
 101              	.LVL11:
  60:C:/Users/stapi/OneDrive/Desktop/GD32VW553/V1_MQTT_OK/GD32VW55X_Wifi_BLE_SDK/GD32VW55x_RELEASE_V1.0.2/MSDK/cloud/alicloud/src/services/dev_bind\awss_packet.c ****     lite_cjson_delete(lite_object);
 102              		.loc 2 60 5 is_stmt 1
 103 001e 2285     		mv	a0,s0
 104 0020 97000000 		call	lite_cjson_delete
 104      E7800000 
 105              	.LVL12:
  61:C:/Users/stapi/OneDrive/Desktop/GD32VW553/V1_MQTT_OK/GD32VW55X_Wifi_BLE_SDK/GD32VW55x_RELEASE_V1.0.2/MSDK/cloud/alicloud/src/services/dev_bind\awss_packet.c **** 
  62:C:/Users/stapi/OneDrive/Desktop/GD32VW553/V1_MQTT_OK/GD32VW55X_Wifi_BLE_SDK/GD32VW55x_RELEASE_V1.0.2/MSDK/cloud/alicloud/src/services/dev_bind\awss_packet.c ****     return version_str;
 106              		.loc 2 62 5
 107              		.loc 2 62 12 is_stmt 0
 108 0028 2684     		mv	s0,s1
 109              	.LVL13:
 110              	.L7:
  63:C:/Users/stapi/OneDrive/Desktop/GD32VW553/V1_MQTT_OK/GD32VW55X_Wifi_BLE_SDK/GD32VW55x_RELEASE_V1.0.2/MSDK/cloud/alicloud/src/services/dev_bind\awss_packet.c **** }
 111              		.loc 2 63 1
 112 002a 2285     		mv	a0,s0
 113 002c 17030000 		tail	__riscv_restore_2
 113      67000300 
 114              		.cfi_restore 9
 115              		.cfi_restore 8
 116              		.cfi_restore 1
 117              		.cfi_def_cfa_offset 0
 118              		.cfi_endproc
 119              	.LFE64:
 121              		.section	.text.awss_build_sign_src,"ax",@progbits
 122              		.align	1
 123              		.globl	awss_build_sign_src
 125              	awss_build_sign_src:
 126              	.LFB67:
  64:C:/Users/stapi/OneDrive/Desktop/GD32VW553/V1_MQTT_OK/GD32VW55X_Wifi_BLE_SDK/GD32VW55x_RELEASE_V1.0.2/MSDK/cloud/alicloud/src/services/dev_bind\awss_packet.c **** 
  65:C:/Users/stapi/OneDrive/Desktop/GD32VW553/V1_MQTT_OK/GD32VW55X_Wifi_BLE_SDK/GD32VW55x_RELEASE_V1.0.2/MSDK/cloud/alicloud/src/services/dev_bind\awss_packet.c **** static void * awss_get_dev_info(void *dev_info, int len)
  66:C:/Users/stapi/OneDrive/Desktop/GD32VW553/V1_MQTT_OK/GD32VW55X_Wifi_BLE_SDK/GD32VW55x_RELEASE_V1.0.2/MSDK/cloud/alicloud/src/services/dev_bind\awss_packet.c **** {
  67:C:/Users/stapi/OneDrive/Desktop/GD32VW553/V1_MQTT_OK/GD32VW55X_Wifi_BLE_SDK/GD32VW55x_RELEASE_V1.0.2/MSDK/cloud/alicloud/src/services/dev_bind\awss_packet.c ****     char version[FIRMWARE_VERSION_MAXLEN] = {0};
  68:C:/Users/stapi/OneDrive/Desktop/GD32VW553/V1_MQTT_OK/GD32VW55X_Wifi_BLE_SDK/GD32VW55x_RELEASE_V1.0.2/MSDK/cloud/alicloud/src/services/dev_bind\awss_packet.c ****     int ret = 0;
  69:C:/Users/stapi/OneDrive/Desktop/GD32VW553/V1_MQTT_OK/GD32VW55X_Wifi_BLE_SDK/GD32VW55x_RELEASE_V1.0.2/MSDK/cloud/alicloud/src/services/dev_bind\awss_packet.c ****     char *service_ver = NULL;
  70:C:/Users/stapi/OneDrive/Desktop/GD32VW553/V1_MQTT_OK/GD32VW55X_Wifi_BLE_SDK/GD32VW55x_RELEASE_V1.0.2/MSDK/cloud/alicloud/src/services/dev_bind\awss_packet.c **** 
  71:C:/Users/stapi/OneDrive/Desktop/GD32VW553/V1_MQTT_OK/GD32VW55X_Wifi_BLE_SDK/GD32VW55x_RELEASE_V1.0.2/MSDK/cloud/alicloud/src/services/dev_bind\awss_packet.c ****     if (dev_info == NULL || len <= 0) {
  72:C:/Users/stapi/OneDrive/Desktop/GD32VW553/V1_MQTT_OK/GD32VW55X_Wifi_BLE_SDK/GD32VW55x_RELEASE_V1.0.2/MSDK/cloud/alicloud/src/services/dev_bind\awss_packet.c ****         dump_awss_status(STATE_USER_INPUT_NULL_POINTER, "get dev info input null");
  73:C:/Users/stapi/OneDrive/Desktop/GD32VW553/V1_MQTT_OK/GD32VW55X_Wifi_BLE_SDK/GD32VW55x_RELEASE_V1.0.2/MSDK/cloud/alicloud/src/services/dev_bind\awss_packet.c ****         return NULL;
  74:C:/Users/stapi/OneDrive/Desktop/GD32VW553/V1_MQTT_OK/GD32VW55X_Wifi_BLE_SDK/GD32VW55x_RELEASE_V1.0.2/MSDK/cloud/alicloud/src/services/dev_bind\awss_packet.c ****     }
  75:C:/Users/stapi/OneDrive/Desktop/GD32VW553/V1_MQTT_OK/GD32VW55X_Wifi_BLE_SDK/GD32VW55x_RELEASE_V1.0.2/MSDK/cloud/alicloud/src/services/dev_bind\awss_packet.c **** 
  76:C:/Users/stapi/OneDrive/Desktop/GD32VW553/V1_MQTT_OK/GD32VW55X_Wifi_BLE_SDK/GD32VW55x_RELEASE_V1.0.2/MSDK/cloud/alicloud/src/services/dev_bind\awss_packet.c ****     char dev_name[OS_DEVICE_NAME_LEN + 1] = {0};
  77:C:/Users/stapi/OneDrive/Desktop/GD32VW553/V1_MQTT_OK/GD32VW55X_Wifi_BLE_SDK/GD32VW55x_RELEASE_V1.0.2/MSDK/cloud/alicloud/src/services/dev_bind\awss_packet.c ****     char mac_str[OS_MAC_LEN + 1] = {0};
  78:C:/Users/stapi/OneDrive/Desktop/GD32VW553/V1_MQTT_OK/GD32VW55X_Wifi_BLE_SDK/GD32VW55x_RELEASE_V1.0.2/MSDK/cloud/alicloud/src/services/dev_bind\awss_packet.c ****     char pk[OS_PRODUCT_KEY_LEN + 1] = {0};
  79:C:/Users/stapi/OneDrive/Desktop/GD32VW553/V1_MQTT_OK/GD32VW55X_Wifi_BLE_SDK/GD32VW55x_RELEASE_V1.0.2/MSDK/cloud/alicloud/src/services/dev_bind\awss_packet.c ****     char ip_str[OS_IP_LEN + 1] = {0};
  80:C:/Users/stapi/OneDrive/Desktop/GD32VW553/V1_MQTT_OK/GD32VW55X_Wifi_BLE_SDK/GD32VW55x_RELEASE_V1.0.2/MSDK/cloud/alicloud/src/services/dev_bind\awss_packet.c **** 
  81:C:/Users/stapi/OneDrive/Desktop/GD32VW553/V1_MQTT_OK/GD32VW55X_Wifi_BLE_SDK/GD32VW55x_RELEASE_V1.0.2/MSDK/cloud/alicloud/src/services/dev_bind\awss_packet.c ****     os_product_get_key(pk);
  82:C:/Users/stapi/OneDrive/Desktop/GD32VW553/V1_MQTT_OK/GD32VW55X_Wifi_BLE_SDK/GD32VW55x_RELEASE_V1.0.2/MSDK/cloud/alicloud/src/services/dev_bind\awss_packet.c ****     os_device_get_name(dev_name);
  83:C:/Users/stapi/OneDrive/Desktop/GD32VW553/V1_MQTT_OK/GD32VW55X_Wifi_BLE_SDK/GD32VW55x_RELEASE_V1.0.2/MSDK/cloud/alicloud/src/services/dev_bind\awss_packet.c ****     os_wifi_get_mac_str(mac_str);
  84:C:/Users/stapi/OneDrive/Desktop/GD32VW553/V1_MQTT_OK/GD32VW55X_Wifi_BLE_SDK/GD32VW55x_RELEASE_V1.0.2/MSDK/cloud/alicloud/src/services/dev_bind\awss_packet.c ****     os_wifi_get_ip(ip_str, NULL);
  85:C:/Users/stapi/OneDrive/Desktop/GD32VW553/V1_MQTT_OK/GD32VW55X_Wifi_BLE_SDK/GD32VW55x_RELEASE_V1.0.2/MSDK/cloud/alicloud/src/services/dev_bind\awss_packet.c **** 
  86:C:/Users/stapi/OneDrive/Desktop/GD32VW553/V1_MQTT_OK/GD32VW55X_Wifi_BLE_SDK/GD32VW55x_RELEASE_V1.0.2/MSDK/cloud/alicloud/src/services/dev_bind\awss_packet.c ****     ret = HAL_GetFirmwareVersion(version);
  87:C:/Users/stapi/OneDrive/Desktop/GD32VW553/V1_MQTT_OK/GD32VW55X_Wifi_BLE_SDK/GD32VW55x_RELEASE_V1.0.2/MSDK/cloud/alicloud/src/services/dev_bind\awss_packet.c ****     if (ret <= 0) {
  88:C:/Users/stapi/OneDrive/Desktop/GD32VW553/V1_MQTT_OK/GD32VW55X_Wifi_BLE_SDK/GD32VW55x_RELEASE_V1.0.2/MSDK/cloud/alicloud/src/services/dev_bind\awss_packet.c ****         dump_awss_status(STATE_OTA_FIRMWARE_VER_READ_FAIL, "FW Version get failed");
  89:C:/Users/stapi/OneDrive/Desktop/GD32VW553/V1_MQTT_OK/GD32VW55X_Wifi_BLE_SDK/GD32VW55x_RELEASE_V1.0.2/MSDK/cloud/alicloud/src/services/dev_bind\awss_packet.c ****     }
  90:C:/Users/stapi/OneDrive/Desktop/GD32VW553/V1_MQTT_OK/GD32VW55X_Wifi_BLE_SDK/GD32VW55x_RELEASE_V1.0.2/MSDK/cloud/alicloud/src/services/dev_bind\awss_packet.c **** 
  91:C:/Users/stapi/OneDrive/Desktop/GD32VW553/V1_MQTT_OK/GD32VW55X_Wifi_BLE_SDK/GD32VW55x_RELEASE_V1.0.2/MSDK/cloud/alicloud/src/services/dev_bind\awss_packet.c ****     service_ver = build_service_version();
  92:C:/Users/stapi/OneDrive/Desktop/GD32VW553/V1_MQTT_OK/GD32VW55X_Wifi_BLE_SDK/GD32VW55x_RELEASE_V1.0.2/MSDK/cloud/alicloud/src/services/dev_bind\awss_packet.c ****     if (service_ver)
  93:C:/Users/stapi/OneDrive/Desktop/GD32VW553/V1_MQTT_OK/GD32VW55X_Wifi_BLE_SDK/GD32VW55x_RELEASE_V1.0.2/MSDK/cloud/alicloud/src/services/dev_bind\awss_packet.c ****     {
  94:C:/Users/stapi/OneDrive/Desktop/GD32VW553/V1_MQTT_OK/GD32VW55X_Wifi_BLE_SDK/GD32VW55x_RELEASE_V1.0.2/MSDK/cloud/alicloud/src/services/dev_bind\awss_packet.c ****         snprintf(dev_info, len - 1, AWSS_DEV_INFO_FMT, AWSS_VER, pk, dev_name, mac_str, ip_str, os_
  95:C:/Users/stapi/OneDrive/Desktop/GD32VW553/V1_MQTT_OK/GD32VW55X_Wifi_BLE_SDK/GD32VW55x_RELEASE_V1.0.2/MSDK/cloud/alicloud/src/services/dev_bind\awss_packet.c ****         HAL_Free(service_ver);
  96:C:/Users/stapi/OneDrive/Desktop/GD32VW553/V1_MQTT_OK/GD32VW55X_Wifi_BLE_SDK/GD32VW55x_RELEASE_V1.0.2/MSDK/cloud/alicloud/src/services/dev_bind\awss_packet.c ****     }
  97:C:/Users/stapi/OneDrive/Desktop/GD32VW553/V1_MQTT_OK/GD32VW55X_Wifi_BLE_SDK/GD32VW55x_RELEASE_V1.0.2/MSDK/cloud/alicloud/src/services/dev_bind\awss_packet.c **** 
  98:C:/Users/stapi/OneDrive/Desktop/GD32VW553/V1_MQTT_OK/GD32VW55X_Wifi_BLE_SDK/GD32VW55x_RELEASE_V1.0.2/MSDK/cloud/alicloud/src/services/dev_bind\awss_packet.c ****     return dev_info;
  99:C:/Users/stapi/OneDrive/Desktop/GD32VW553/V1_MQTT_OK/GD32VW55X_Wifi_BLE_SDK/GD32VW55x_RELEASE_V1.0.2/MSDK/cloud/alicloud/src/services/dev_bind\awss_packet.c **** }
 100:C:/Users/stapi/OneDrive/Desktop/GD32VW553/V1_MQTT_OK/GD32VW55X_Wifi_BLE_SDK/GD32VW55x_RELEASE_V1.0.2/MSDK/cloud/alicloud/src/services/dev_bind\awss_packet.c **** 
 101:C:/Users/stapi/OneDrive/Desktop/GD32VW553/V1_MQTT_OK/GD32VW55X_Wifi_BLE_SDK/GD32VW55x_RELEASE_V1.0.2/MSDK/cloud/alicloud/src/services/dev_bind\awss_packet.c **** void *awss_build_dev_info(int type, void *dev_info, int info_len)
 102:C:/Users/stapi/OneDrive/Desktop/GD32VW553/V1_MQTT_OK/GD32VW55X_Wifi_BLE_SDK/GD32VW55x_RELEASE_V1.0.2/MSDK/cloud/alicloud/src/services/dev_bind\awss_packet.c **** {
 103:C:/Users/stapi/OneDrive/Desktop/GD32VW553/V1_MQTT_OK/GD32VW55X_Wifi_BLE_SDK/GD32VW55x_RELEASE_V1.0.2/MSDK/cloud/alicloud/src/services/dev_bind\awss_packet.c ****     int len = 0;
 104:C:/Users/stapi/OneDrive/Desktop/GD32VW553/V1_MQTT_OK/GD32VW55X_Wifi_BLE_SDK/GD32VW55x_RELEASE_V1.0.2/MSDK/cloud/alicloud/src/services/dev_bind\awss_packet.c ****     char *buf = NULL;
 105:C:/Users/stapi/OneDrive/Desktop/GD32VW553/V1_MQTT_OK/GD32VW55X_Wifi_BLE_SDK/GD32VW55x_RELEASE_V1.0.2/MSDK/cloud/alicloud/src/services/dev_bind\awss_packet.c **** 
 106:C:/Users/stapi/OneDrive/Desktop/GD32VW553/V1_MQTT_OK/GD32VW55X_Wifi_BLE_SDK/GD32VW55x_RELEASE_V1.0.2/MSDK/cloud/alicloud/src/services/dev_bind\awss_packet.c ****     if (dev_info == NULL || info_len <= 0) {
 107:C:/Users/stapi/OneDrive/Desktop/GD32VW553/V1_MQTT_OK/GD32VW55X_Wifi_BLE_SDK/GD32VW55x_RELEASE_V1.0.2/MSDK/cloud/alicloud/src/services/dev_bind\awss_packet.c ****         dump_awss_status(STATE_USER_INPUT_NULL_POINTER, "build dev info input null!");
 108:C:/Users/stapi/OneDrive/Desktop/GD32VW553/V1_MQTT_OK/GD32VW55X_Wifi_BLE_SDK/GD32VW55x_RELEASE_V1.0.2/MSDK/cloud/alicloud/src/services/dev_bind\awss_packet.c ****         return NULL;
 109:C:/Users/stapi/OneDrive/Desktop/GD32VW553/V1_MQTT_OK/GD32VW55X_Wifi_BLE_SDK/GD32VW55x_RELEASE_V1.0.2/MSDK/cloud/alicloud/src/services/dev_bind\awss_packet.c ****     }
 110:C:/Users/stapi/OneDrive/Desktop/GD32VW553/V1_MQTT_OK/GD32VW55X_Wifi_BLE_SDK/GD32VW55x_RELEASE_V1.0.2/MSDK/cloud/alicloud/src/services/dev_bind\awss_packet.c **** 
 111:C:/Users/stapi/OneDrive/Desktop/GD32VW553/V1_MQTT_OK/GD32VW55X_Wifi_BLE_SDK/GD32VW55x_RELEASE_V1.0.2/MSDK/cloud/alicloud/src/services/dev_bind\awss_packet.c ****     buf = os_zalloc(DEV_INFO_LEN_MAX);
 112:C:/Users/stapi/OneDrive/Desktop/GD32VW553/V1_MQTT_OK/GD32VW55X_Wifi_BLE_SDK/GD32VW55x_RELEASE_V1.0.2/MSDK/cloud/alicloud/src/services/dev_bind\awss_packet.c ****     if (buf == NULL) {
 113:C:/Users/stapi/OneDrive/Desktop/GD32VW553/V1_MQTT_OK/GD32VW55X_Wifi_BLE_SDK/GD32VW55x_RELEASE_V1.0.2/MSDK/cloud/alicloud/src/services/dev_bind\awss_packet.c ****         dump_awss_status(STATE_SYS_DEPEND_MALLOC, "build dev info alloc fail");
 114:C:/Users/stapi/OneDrive/Desktop/GD32VW553/V1_MQTT_OK/GD32VW55X_Wifi_BLE_SDK/GD32VW55x_RELEASE_V1.0.2/MSDK/cloud/alicloud/src/services/dev_bind\awss_packet.c ****         return NULL;
 115:C:/Users/stapi/OneDrive/Desktop/GD32VW553/V1_MQTT_OK/GD32VW55X_Wifi_BLE_SDK/GD32VW55x_RELEASE_V1.0.2/MSDK/cloud/alicloud/src/services/dev_bind\awss_packet.c ****     }
 116:C:/Users/stapi/OneDrive/Desktop/GD32VW553/V1_MQTT_OK/GD32VW55X_Wifi_BLE_SDK/GD32VW55x_RELEASE_V1.0.2/MSDK/cloud/alicloud/src/services/dev_bind\awss_packet.c **** 
 117:C:/Users/stapi/OneDrive/Desktop/GD32VW553/V1_MQTT_OK/GD32VW55X_Wifi_BLE_SDK/GD32VW55x_RELEASE_V1.0.2/MSDK/cloud/alicloud/src/services/dev_bind\awss_packet.c ****     len += snprintf((char*)dev_info + len, info_len - len - 1, "%s", (char *)awss_get_dev_info(buf,
 118:C:/Users/stapi/OneDrive/Desktop/GD32VW553/V1_MQTT_OK/GD32VW55X_Wifi_BLE_SDK/GD32VW55x_RELEASE_V1.0.2/MSDK/cloud/alicloud/src/services/dev_bind\awss_packet.c ****     os_free(buf);
 119:C:/Users/stapi/OneDrive/Desktop/GD32VW553/V1_MQTT_OK/GD32VW55X_Wifi_BLE_SDK/GD32VW55x_RELEASE_V1.0.2/MSDK/cloud/alicloud/src/services/dev_bind\awss_packet.c ****     buf = NULL;
 120:C:/Users/stapi/OneDrive/Desktop/GD32VW553/V1_MQTT_OK/GD32VW55X_Wifi_BLE_SDK/GD32VW55x_RELEASE_V1.0.2/MSDK/cloud/alicloud/src/services/dev_bind\awss_packet.c **** 
 121:C:/Users/stapi/OneDrive/Desktop/GD32VW553/V1_MQTT_OK/GD32VW55X_Wifi_BLE_SDK/GD32VW55x_RELEASE_V1.0.2/MSDK/cloud/alicloud/src/services/dev_bind\awss_packet.c ****     switch (type) {
 122:C:/Users/stapi/OneDrive/Desktop/GD32VW553/V1_MQTT_OK/GD32VW55X_Wifi_BLE_SDK/GD32VW55x_RELEASE_V1.0.2/MSDK/cloud/alicloud/src/services/dev_bind\awss_packet.c ****         case AWSS_NOTIFY_DEV_BIND_TOKEN:
 123:C:/Users/stapi/OneDrive/Desktop/GD32VW553/V1_MQTT_OK/GD32VW55X_Wifi_BLE_SDK/GD32VW55x_RELEASE_V1.0.2/MSDK/cloud/alicloud/src/services/dev_bind\awss_packet.c ****         {
 124:C:/Users/stapi/OneDrive/Desktop/GD32VW553/V1_MQTT_OK/GD32VW55X_Wifi_BLE_SDK/GD32VW55x_RELEASE_V1.0.2/MSDK/cloud/alicloud/src/services/dev_bind\awss_packet.c ****             unsigned char token_str[RANDOM_STR_MAX_LEN] = {0};
 125:C:/Users/stapi/OneDrive/Desktop/GD32VW553/V1_MQTT_OK/GD32VW55X_Wifi_BLE_SDK/GD32VW55x_RELEASE_V1.0.2/MSDK/cloud/alicloud/src/services/dev_bind\awss_packet.c ****             bind_token_type_t token_type;
 126:C:/Users/stapi/OneDrive/Desktop/GD32VW553/V1_MQTT_OK/GD32VW55X_Wifi_BLE_SDK/GD32VW55x_RELEASE_V1.0.2/MSDK/cloud/alicloud/src/services/dev_bind\awss_packet.c ****             awss_get_token(token_str, RANDOM_STR_MAX_LEN, &token_type);
 127:C:/Users/stapi/OneDrive/Desktop/GD32VW553/V1_MQTT_OK/GD32VW55X_Wifi_BLE_SDK/GD32VW55x_RELEASE_V1.0.2/MSDK/cloud/alicloud/src/services/dev_bind\awss_packet.c ****             len += snprintf((char*)dev_info + len, info_len - len - 1, AWSS_DEV_BIND_TOKEN_FMT, 
 128:C:/Users/stapi/OneDrive/Desktop/GD32VW553/V1_MQTT_OK/GD32VW55X_Wifi_BLE_SDK/GD32VW55x_RELEASE_V1.0.2/MSDK/cloud/alicloud/src/services/dev_bind\awss_packet.c ****                                                 token_str, token_type, awss_token_remain_time(), 0)
 129:C:/Users/stapi/OneDrive/Desktop/GD32VW553/V1_MQTT_OK/GD32VW55X_Wifi_BLE_SDK/GD32VW55x_RELEASE_V1.0.2/MSDK/cloud/alicloud/src/services/dev_bind\awss_packet.c ****             break;
 130:C:/Users/stapi/OneDrive/Desktop/GD32VW553/V1_MQTT_OK/GD32VW55X_Wifi_BLE_SDK/GD32VW55x_RELEASE_V1.0.2/MSDK/cloud/alicloud/src/services/dev_bind\awss_packet.c ****         }
 131:C:/Users/stapi/OneDrive/Desktop/GD32VW553/V1_MQTT_OK/GD32VW55X_Wifi_BLE_SDK/GD32VW55x_RELEASE_V1.0.2/MSDK/cloud/alicloud/src/services/dev_bind\awss_packet.c **** #ifdef WIFI_PROVISION_ENABLED
 132:C:/Users/stapi/OneDrive/Desktop/GD32VW553/V1_MQTT_OK/GD32VW55X_Wifi_BLE_SDK/GD32VW55x_RELEASE_V1.0.2/MSDK/cloud/alicloud/src/services/dev_bind\awss_packet.c ****         case AWSS_NOTIFY_SUCCESS: {
 133:C:/Users/stapi/OneDrive/Desktop/GD32VW553/V1_MQTT_OK/GD32VW55X_Wifi_BLE_SDK/GD32VW55x_RELEASE_V1.0.2/MSDK/cloud/alicloud/src/services/dev_bind\awss_packet.c ****             len += snprintf((char *)dev_info + len, info_len - len - 1, AWSS_SUCCESS_FMT, 0);
 134:C:/Users/stapi/OneDrive/Desktop/GD32VW553/V1_MQTT_OK/GD32VW55X_Wifi_BLE_SDK/GD32VW55x_RELEASE_V1.0.2/MSDK/cloud/alicloud/src/services/dev_bind\awss_packet.c ****             break;
 135:C:/Users/stapi/OneDrive/Desktop/GD32VW553/V1_MQTT_OK/GD32VW55X_Wifi_BLE_SDK/GD32VW55x_RELEASE_V1.0.2/MSDK/cloud/alicloud/src/services/dev_bind\awss_packet.c ****         }
 136:C:/Users/stapi/OneDrive/Desktop/GD32VW553/V1_MQTT_OK/GD32VW55X_Wifi_BLE_SDK/GD32VW55x_RELEASE_V1.0.2/MSDK/cloud/alicloud/src/services/dev_bind\awss_packet.c ****         case AWSS_NOTIFY_DEV_RAND_SIGN: {
 137:C:/Users/stapi/OneDrive/Desktop/GD32VW553/V1_MQTT_OK/GD32VW55X_Wifi_BLE_SDK/GD32VW55x_RELEASE_V1.0.2/MSDK/cloud/alicloud/src/services/dev_bind\awss_packet.c **** 
 138:C:/Users/stapi/OneDrive/Desktop/GD32VW553/V1_MQTT_OK/GD32VW55X_Wifi_BLE_SDK/GD32VW55x_RELEASE_V1.0.2/MSDK/cloud/alicloud/src/services/dev_bind\awss_packet.c ****             char sign_str[DEV_SIGN_SIZE * 2 + 1] = {0};
 139:C:/Users/stapi/OneDrive/Desktop/GD32VW553/V1_MQTT_OK/GD32VW55X_Wifi_BLE_SDK/GD32VW55x_RELEASE_V1.0.2/MSDK/cloud/alicloud/src/services/dev_bind\awss_packet.c ****             {
 140:C:/Users/stapi/OneDrive/Desktop/GD32VW553/V1_MQTT_OK/GD32VW55X_Wifi_BLE_SDK/GD32VW55x_RELEASE_V1.0.2/MSDK/cloud/alicloud/src/services/dev_bind\awss_packet.c ****                 int txt_len = 80;
 141:C:/Users/stapi/OneDrive/Desktop/GD32VW553/V1_MQTT_OK/GD32VW55X_Wifi_BLE_SDK/GD32VW55x_RELEASE_V1.0.2/MSDK/cloud/alicloud/src/services/dev_bind\awss_packet.c ****                 char txt[80] = {0};
 142:C:/Users/stapi/OneDrive/Desktop/GD32VW553/V1_MQTT_OK/GD32VW55X_Wifi_BLE_SDK/GD32VW55x_RELEASE_V1.0.2/MSDK/cloud/alicloud/src/services/dev_bind\awss_packet.c ****                 char key[OS_DEVICE_SECRET_LEN + 1] = {0};
 143:C:/Users/stapi/OneDrive/Desktop/GD32VW553/V1_MQTT_OK/GD32VW55X_Wifi_BLE_SDK/GD32VW55x_RELEASE_V1.0.2/MSDK/cloud/alicloud/src/services/dev_bind\awss_packet.c ****                 uint8_t sign[DEV_SIGN_SIZE + 1] = {0};
 144:C:/Users/stapi/OneDrive/Desktop/GD32VW553/V1_MQTT_OK/GD32VW55X_Wifi_BLE_SDK/GD32VW55x_RELEASE_V1.0.2/MSDK/cloud/alicloud/src/services/dev_bind\awss_packet.c **** 
 145:C:/Users/stapi/OneDrive/Desktop/GD32VW553/V1_MQTT_OK/GD32VW55X_Wifi_BLE_SDK/GD32VW55x_RELEASE_V1.0.2/MSDK/cloud/alicloud/src/services/dev_bind\awss_packet.c ****                 if (os_get_conn_encrypt_type() == 3) { // aes-key per product
 146:C:/Users/stapi/OneDrive/Desktop/GD32VW553/V1_MQTT_OK/GD32VW55X_Wifi_BLE_SDK/GD32VW55x_RELEASE_V1.0.2/MSDK/cloud/alicloud/src/services/dev_bind\awss_packet.c ****                     os_product_get_secret(key);
 147:C:/Users/stapi/OneDrive/Desktop/GD32VW553/V1_MQTT_OK/GD32VW55X_Wifi_BLE_SDK/GD32VW55x_RELEASE_V1.0.2/MSDK/cloud/alicloud/src/services/dev_bind\awss_packet.c ****                 } else { // aes-key per device
 148:C:/Users/stapi/OneDrive/Desktop/GD32VW553/V1_MQTT_OK/GD32VW55X_Wifi_BLE_SDK/GD32VW55x_RELEASE_V1.0.2/MSDK/cloud/alicloud/src/services/dev_bind\awss_packet.c ****                     os_device_get_secret(key);
 149:C:/Users/stapi/OneDrive/Desktop/GD32VW553/V1_MQTT_OK/GD32VW55X_Wifi_BLE_SDK/GD32VW55x_RELEASE_V1.0.2/MSDK/cloud/alicloud/src/services/dev_bind\awss_packet.c ****                 }
 150:C:/Users/stapi/OneDrive/Desktop/GD32VW553/V1_MQTT_OK/GD32VW55X_Wifi_BLE_SDK/GD32VW55x_RELEASE_V1.0.2/MSDK/cloud/alicloud/src/services/dev_bind\awss_packet.c ****                 awss_build_sign_src(txt, &txt_len);
 151:C:/Users/stapi/OneDrive/Desktop/GD32VW553/V1_MQTT_OK/GD32VW55X_Wifi_BLE_SDK/GD32VW55x_RELEASE_V1.0.2/MSDK/cloud/alicloud/src/services/dev_bind\awss_packet.c ****                 produce_signature(sign, (uint8_t *)txt, txt_len, key);
 152:C:/Users/stapi/OneDrive/Desktop/GD32VW553/V1_MQTT_OK/GD32VW55X_Wifi_BLE_SDK/GD32VW55x_RELEASE_V1.0.2/MSDK/cloud/alicloud/src/services/dev_bind\awss_packet.c ****                 utils_hex_to_str(sign, DEV_SIGN_SIZE, sign_str, sizeof(sign_str));
 153:C:/Users/stapi/OneDrive/Desktop/GD32VW553/V1_MQTT_OK/GD32VW55X_Wifi_BLE_SDK/GD32VW55x_RELEASE_V1.0.2/MSDK/cloud/alicloud/src/services/dev_bind\awss_packet.c ****             }
 154:C:/Users/stapi/OneDrive/Desktop/GD32VW553/V1_MQTT_OK/GD32VW55X_Wifi_BLE_SDK/GD32VW55x_RELEASE_V1.0.2/MSDK/cloud/alicloud/src/services/dev_bind\awss_packet.c ****             char rand_str[(RANDOM_MAX_LEN << 1) + 1] = {0};
 155:C:/Users/stapi/OneDrive/Desktop/GD32VW553/V1_MQTT_OK/GD32VW55X_Wifi_BLE_SDK/GD32VW55x_RELEASE_V1.0.2/MSDK/cloud/alicloud/src/services/dev_bind\awss_packet.c ****             utils_hex_to_str(g_aes_random, RANDOM_MAX_LEN, rand_str, sizeof(rand_str));
 156:C:/Users/stapi/OneDrive/Desktop/GD32VW553/V1_MQTT_OK/GD32VW55X_Wifi_BLE_SDK/GD32VW55x_RELEASE_V1.0.2/MSDK/cloud/alicloud/src/services/dev_bind\awss_packet.c ****             len += snprintf((char *)dev_info + len, info_len - len - 1, AWSS_DEV_RAND_SIGN_FMT, ran
 157:C:/Users/stapi/OneDrive/Desktop/GD32VW553/V1_MQTT_OK/GD32VW55X_Wifi_BLE_SDK/GD32VW55x_RELEASE_V1.0.2/MSDK/cloud/alicloud/src/services/dev_bind\awss_packet.c ****             break;
 158:C:/Users/stapi/OneDrive/Desktop/GD32VW553/V1_MQTT_OK/GD32VW55X_Wifi_BLE_SDK/GD32VW55x_RELEASE_V1.0.2/MSDK/cloud/alicloud/src/services/dev_bind\awss_packet.c ****         }
 159:C:/Users/stapi/OneDrive/Desktop/GD32VW553/V1_MQTT_OK/GD32VW55X_Wifi_BLE_SDK/GD32VW55x_RELEASE_V1.0.2/MSDK/cloud/alicloud/src/services/dev_bind\awss_packet.c **** #endif
 160:C:/Users/stapi/OneDrive/Desktop/GD32VW553/V1_MQTT_OK/GD32VW55X_Wifi_BLE_SDK/GD32VW55x_RELEASE_V1.0.2/MSDK/cloud/alicloud/src/services/dev_bind\awss_packet.c ****         default:
 161:C:/Users/stapi/OneDrive/Desktop/GD32VW553/V1_MQTT_OK/GD32VW55X_Wifi_BLE_SDK/GD32VW55x_RELEASE_V1.0.2/MSDK/cloud/alicloud/src/services/dev_bind\awss_packet.c ****             break;
 162:C:/Users/stapi/OneDrive/Desktop/GD32VW553/V1_MQTT_OK/GD32VW55X_Wifi_BLE_SDK/GD32VW55x_RELEASE_V1.0.2/MSDK/cloud/alicloud/src/services/dev_bind\awss_packet.c ****     }
 163:C:/Users/stapi/OneDrive/Desktop/GD32VW553/V1_MQTT_OK/GD32VW55X_Wifi_BLE_SDK/GD32VW55x_RELEASE_V1.0.2/MSDK/cloud/alicloud/src/services/dev_bind\awss_packet.c **** 
 164:C:/Users/stapi/OneDrive/Desktop/GD32VW553/V1_MQTT_OK/GD32VW55X_Wifi_BLE_SDK/GD32VW55x_RELEASE_V1.0.2/MSDK/cloud/alicloud/src/services/dev_bind\awss_packet.c ****     return dev_info;
 165:C:/Users/stapi/OneDrive/Desktop/GD32VW553/V1_MQTT_OK/GD32VW55X_Wifi_BLE_SDK/GD32VW55x_RELEASE_V1.0.2/MSDK/cloud/alicloud/src/services/dev_bind\awss_packet.c **** }
 166:C:/Users/stapi/OneDrive/Desktop/GD32VW553/V1_MQTT_OK/GD32VW55X_Wifi_BLE_SDK/GD32VW55x_RELEASE_V1.0.2/MSDK/cloud/alicloud/src/services/dev_bind\awss_packet.c **** 
 167:C:/Users/stapi/OneDrive/Desktop/GD32VW553/V1_MQTT_OK/GD32VW55X_Wifi_BLE_SDK/GD32VW55x_RELEASE_V1.0.2/MSDK/cloud/alicloud/src/services/dev_bind\awss_packet.c **** #ifdef WIFI_PROVISION_ENABLED
 168:C:/Users/stapi/OneDrive/Desktop/GD32VW553/V1_MQTT_OK/GD32VW55X_Wifi_BLE_SDK/GD32VW55x_RELEASE_V1.0.2/MSDK/cloud/alicloud/src/services/dev_bind\awss_packet.c **** char *awss_build_sign_src(char *sign_src, int *sign_src_len)
 169:C:/Users/stapi/OneDrive/Desktop/GD32VW553/V1_MQTT_OK/GD32VW55X_Wifi_BLE_SDK/GD32VW55x_RELEASE_V1.0.2/MSDK/cloud/alicloud/src/services/dev_bind\awss_packet.c **** {
 127              		.loc 2 169 1 is_stmt 1
 128              		.cfi_startproc
 129              	.LVL14:
 130 0000 17030000 		call	t0,__riscv_save_7
 130      E7020300 
 131              		.cfi_offset 22, -32
 132              		.cfi_offset 21, -28
 133              		.cfi_offset 20, -24
 134              		.cfi_offset 19, -20
 135              		.cfi_offset 18, -16
 136              		.cfi_offset 9, -12
 137              		.cfi_offset 8, -8
 138              		.cfi_offset 1, -4
 139              		.cfi_def_cfa_offset 32
 170:C:/Users/stapi/OneDrive/Desktop/GD32VW553/V1_MQTT_OK/GD32VW55X_Wifi_BLE_SDK/GD32VW55x_RELEASE_V1.0.2/MSDK/cloud/alicloud/src/services/dev_bind\awss_packet.c ****     char *pk = NULL, *dev_name = NULL;
 140              		.loc 2 170 5
 141              	.LVL15:
 171:C:/Users/stapi/OneDrive/Desktop/GD32VW553/V1_MQTT_OK/GD32VW55X_Wifi_BLE_SDK/GD32VW55x_RELEASE_V1.0.2/MSDK/cloud/alicloud/src/services/dev_bind\awss_packet.c ****     int dev_name_len, pk_len, text_len;
 142              		.loc 2 171 5
 172:C:/Users/stapi/OneDrive/Desktop/GD32VW553/V1_MQTT_OK/GD32VW55X_Wifi_BLE_SDK/GD32VW55x_RELEASE_V1.0.2/MSDK/cloud/alicloud/src/services/dev_bind\awss_packet.c **** 
 173:C:/Users/stapi/OneDrive/Desktop/GD32VW553/V1_MQTT_OK/GD32VW55X_Wifi_BLE_SDK/GD32VW55x_RELEASE_V1.0.2/MSDK/cloud/alicloud/src/services/dev_bind\awss_packet.c ****     if (sign_src == NULL || sign_src_len == NULL) {
 143              		.loc 2 173 5
 144              		.loc 2 173 8 is_stmt 0
 145 0008 19E1     		bne	a0,zero,.L14
 146              	.LVL16:
 147              	.L33:
 174:C:/Users/stapi/OneDrive/Desktop/GD32VW553/V1_MQTT_OK/GD32VW55X_Wifi_BLE_SDK/GD32VW55x_RELEASE_V1.0.2/MSDK/cloud/alicloud/src/services/dev_bind\awss_packet.c ****         goto build_sign_src_err;
 175:C:/Users/stapi/OneDrive/Desktop/GD32VW553/V1_MQTT_OK/GD32VW55X_Wifi_BLE_SDK/GD32VW55x_RELEASE_V1.0.2/MSDK/cloud/alicloud/src/services/dev_bind\awss_packet.c ****     }
 176:C:/Users/stapi/OneDrive/Desktop/GD32VW553/V1_MQTT_OK/GD32VW55X_Wifi_BLE_SDK/GD32VW55x_RELEASE_V1.0.2/MSDK/cloud/alicloud/src/services/dev_bind\awss_packet.c **** 
 177:C:/Users/stapi/OneDrive/Desktop/GD32VW553/V1_MQTT_OK/GD32VW55X_Wifi_BLE_SDK/GD32VW55x_RELEASE_V1.0.2/MSDK/cloud/alicloud/src/services/dev_bind\awss_packet.c ****     pk = os_zalloc(OS_PRODUCT_KEY_LEN + 1);
 178:C:/Users/stapi/OneDrive/Desktop/GD32VW553/V1_MQTT_OK/GD32VW55X_Wifi_BLE_SDK/GD32VW55x_RELEASE_V1.0.2/MSDK/cloud/alicloud/src/services/dev_bind\awss_packet.c ****     dev_name = os_zalloc(OS_DEVICE_NAME_LEN + 1);
 179:C:/Users/stapi/OneDrive/Desktop/GD32VW553/V1_MQTT_OK/GD32VW55X_Wifi_BLE_SDK/GD32VW55x_RELEASE_V1.0.2/MSDK/cloud/alicloud/src/services/dev_bind\awss_packet.c ****     if (pk == NULL || dev_name == NULL) {
 180:C:/Users/stapi/OneDrive/Desktop/GD32VW553/V1_MQTT_OK/GD32VW55X_Wifi_BLE_SDK/GD32VW55x_RELEASE_V1.0.2/MSDK/cloud/alicloud/src/services/dev_bind\awss_packet.c ****         goto build_sign_src_err;
 181:C:/Users/stapi/OneDrive/Desktop/GD32VW553/V1_MQTT_OK/GD32VW55X_Wifi_BLE_SDK/GD32VW55x_RELEASE_V1.0.2/MSDK/cloud/alicloud/src/services/dev_bind\awss_packet.c ****     }
 182:C:/Users/stapi/OneDrive/Desktop/GD32VW553/V1_MQTT_OK/GD32VW55X_Wifi_BLE_SDK/GD32VW55x_RELEASE_V1.0.2/MSDK/cloud/alicloud/src/services/dev_bind\awss_packet.c **** 
 183:C:/Users/stapi/OneDrive/Desktop/GD32VW553/V1_MQTT_OK/GD32VW55X_Wifi_BLE_SDK/GD32VW55x_RELEASE_V1.0.2/MSDK/cloud/alicloud/src/services/dev_bind\awss_packet.c ****     os_product_get_key(pk);
 184:C:/Users/stapi/OneDrive/Desktop/GD32VW553/V1_MQTT_OK/GD32VW55X_Wifi_BLE_SDK/GD32VW55x_RELEASE_V1.0.2/MSDK/cloud/alicloud/src/services/dev_bind\awss_packet.c ****     os_device_get_name(dev_name);
 185:C:/Users/stapi/OneDrive/Desktop/GD32VW553/V1_MQTT_OK/GD32VW55X_Wifi_BLE_SDK/GD32VW55x_RELEASE_V1.0.2/MSDK/cloud/alicloud/src/services/dev_bind\awss_packet.c **** 
 186:C:/Users/stapi/OneDrive/Desktop/GD32VW553/V1_MQTT_OK/GD32VW55X_Wifi_BLE_SDK/GD32VW55x_RELEASE_V1.0.2/MSDK/cloud/alicloud/src/services/dev_bind\awss_packet.c ****     pk_len = strlen(pk);
 187:C:/Users/stapi/OneDrive/Desktop/GD32VW553/V1_MQTT_OK/GD32VW55X_Wifi_BLE_SDK/GD32VW55x_RELEASE_V1.0.2/MSDK/cloud/alicloud/src/services/dev_bind\awss_packet.c ****     dev_name_len = strlen(dev_name);
 188:C:/Users/stapi/OneDrive/Desktop/GD32VW553/V1_MQTT_OK/GD32VW55X_Wifi_BLE_SDK/GD32VW55x_RELEASE_V1.0.2/MSDK/cloud/alicloud/src/services/dev_bind\awss_packet.c **** 
 189:C:/Users/stapi/OneDrive/Desktop/GD32VW553/V1_MQTT_OK/GD32VW55X_Wifi_BLE_SDK/GD32VW55x_RELEASE_V1.0.2/MSDK/cloud/alicloud/src/services/dev_bind\awss_packet.c ****     text_len = RANDOM_MAX_LEN + dev_name_len + pk_len;
 190:C:/Users/stapi/OneDrive/Desktop/GD32VW553/V1_MQTT_OK/GD32VW55X_Wifi_BLE_SDK/GD32VW55x_RELEASE_V1.0.2/MSDK/cloud/alicloud/src/services/dev_bind\awss_packet.c ****     if (*sign_src_len < text_len) {
 191:C:/Users/stapi/OneDrive/Desktop/GD32VW553/V1_MQTT_OK/GD32VW55X_Wifi_BLE_SDK/GD32VW55x_RELEASE_V1.0.2/MSDK/cloud/alicloud/src/services/dev_bind\awss_packet.c ****         goto build_sign_src_err;
 192:C:/Users/stapi/OneDrive/Desktop/GD32VW553/V1_MQTT_OK/GD32VW55X_Wifi_BLE_SDK/GD32VW55x_RELEASE_V1.0.2/MSDK/cloud/alicloud/src/services/dev_bind\awss_packet.c ****     }
 193:C:/Users/stapi/OneDrive/Desktop/GD32VW553/V1_MQTT_OK/GD32VW55X_Wifi_BLE_SDK/GD32VW55x_RELEASE_V1.0.2/MSDK/cloud/alicloud/src/services/dev_bind\awss_packet.c **** 
 194:C:/Users/stapi/OneDrive/Desktop/GD32VW553/V1_MQTT_OK/GD32VW55X_Wifi_BLE_SDK/GD32VW55x_RELEASE_V1.0.2/MSDK/cloud/alicloud/src/services/dev_bind\awss_packet.c ****     *sign_src_len = text_len;
 195:C:/Users/stapi/OneDrive/Desktop/GD32VW553/V1_MQTT_OK/GD32VW55X_Wifi_BLE_SDK/GD32VW55x_RELEASE_V1.0.2/MSDK/cloud/alicloud/src/services/dev_bind\awss_packet.c **** 
 196:C:/Users/stapi/OneDrive/Desktop/GD32VW553/V1_MQTT_OK/GD32VW55X_Wifi_BLE_SDK/GD32VW55x_RELEASE_V1.0.2/MSDK/cloud/alicloud/src/services/dev_bind\awss_packet.c ****     memcpy(sign_src, g_aes_random, RANDOM_MAX_LEN);
 197:C:/Users/stapi/OneDrive/Desktop/GD32VW553/V1_MQTT_OK/GD32VW55X_Wifi_BLE_SDK/GD32VW55x_RELEASE_V1.0.2/MSDK/cloud/alicloud/src/services/dev_bind\awss_packet.c ****     memcpy(sign_src + RANDOM_MAX_LEN, dev_name, dev_name_len);
 198:C:/Users/stapi/OneDrive/Desktop/GD32VW553/V1_MQTT_OK/GD32VW55X_Wifi_BLE_SDK/GD32VW55x_RELEASE_V1.0.2/MSDK/cloud/alicloud/src/services/dev_bind\awss_packet.c ****     memcpy(sign_src + RANDOM_MAX_LEN + dev_name_len, pk, pk_len);
 199:C:/Users/stapi/OneDrive/Desktop/GD32VW553/V1_MQTT_OK/GD32VW55X_Wifi_BLE_SDK/GD32VW55x_RELEASE_V1.0.2/MSDK/cloud/alicloud/src/services/dev_bind\awss_packet.c **** 
 200:C:/Users/stapi/OneDrive/Desktop/GD32VW553/V1_MQTT_OK/GD32VW55X_Wifi_BLE_SDK/GD32VW55x_RELEASE_V1.0.2/MSDK/cloud/alicloud/src/services/dev_bind\awss_packet.c ****     os_free(pk);
 201:C:/Users/stapi/OneDrive/Desktop/GD32VW553/V1_MQTT_OK/GD32VW55X_Wifi_BLE_SDK/GD32VW55x_RELEASE_V1.0.2/MSDK/cloud/alicloud/src/services/dev_bind\awss_packet.c ****     os_free(dev_name);
 202:C:/Users/stapi/OneDrive/Desktop/GD32VW553/V1_MQTT_OK/GD32VW55X_Wifi_BLE_SDK/GD32VW55x_RELEASE_V1.0.2/MSDK/cloud/alicloud/src/services/dev_bind\awss_packet.c **** 
 203:C:/Users/stapi/OneDrive/Desktop/GD32VW553/V1_MQTT_OK/GD32VW55X_Wifi_BLE_SDK/GD32VW55x_RELEASE_V1.0.2/MSDK/cloud/alicloud/src/services/dev_bind\awss_packet.c ****     return sign_src;
 204:C:/Users/stapi/OneDrive/Desktop/GD32VW553/V1_MQTT_OK/GD32VW55X_Wifi_BLE_SDK/GD32VW55x_RELEASE_V1.0.2/MSDK/cloud/alicloud/src/services/dev_bind\awss_packet.c **** 
 205:C:/Users/stapi/OneDrive/Desktop/GD32VW553/V1_MQTT_OK/GD32VW55X_Wifi_BLE_SDK/GD32VW55x_RELEASE_V1.0.2/MSDK/cloud/alicloud/src/services/dev_bind\awss_packet.c **** build_sign_src_err:
 206:C:/Users/stapi/OneDrive/Desktop/GD32VW553/V1_MQTT_OK/GD32VW55X_Wifi_BLE_SDK/GD32VW55x_RELEASE_V1.0.2/MSDK/cloud/alicloud/src/services/dev_bind\awss_packet.c ****     if (pk) {
 207:C:/Users/stapi/OneDrive/Desktop/GD32VW553/V1_MQTT_OK/GD32VW55X_Wifi_BLE_SDK/GD32VW55x_RELEASE_V1.0.2/MSDK/cloud/alicloud/src/services/dev_bind\awss_packet.c ****         os_free(pk);
 208:C:/Users/stapi/OneDrive/Desktop/GD32VW553/V1_MQTT_OK/GD32VW55X_Wifi_BLE_SDK/GD32VW55x_RELEASE_V1.0.2/MSDK/cloud/alicloud/src/services/dev_bind\awss_packet.c ****     }
 209:C:/Users/stapi/OneDrive/Desktop/GD32VW553/V1_MQTT_OK/GD32VW55X_Wifi_BLE_SDK/GD32VW55x_RELEASE_V1.0.2/MSDK/cloud/alicloud/src/services/dev_bind\awss_packet.c ****     if (dev_name) {
 210:C:/Users/stapi/OneDrive/Desktop/GD32VW553/V1_MQTT_OK/GD32VW55X_Wifi_BLE_SDK/GD32VW55x_RELEASE_V1.0.2/MSDK/cloud/alicloud/src/services/dev_bind\awss_packet.c ****         os_free(dev_name);
 211:C:/Users/stapi/OneDrive/Desktop/GD32VW553/V1_MQTT_OK/GD32VW55X_Wifi_BLE_SDK/GD32VW55x_RELEASE_V1.0.2/MSDK/cloud/alicloud/src/services/dev_bind\awss_packet.c ****     }
 212:C:/Users/stapi/OneDrive/Desktop/GD32VW553/V1_MQTT_OK/GD32VW55X_Wifi_BLE_SDK/GD32VW55x_RELEASE_V1.0.2/MSDK/cloud/alicloud/src/services/dev_bind\awss_packet.c ****     return NULL;
 148              		.loc 2 212 12
 149 000a 0144     		li	s0,0
 150              	.LBB39:
 151              	.LBB40:
 395:..\..\..\..\cloud\alicloud\src\services\dev_bind\os/os.h **** 
 152              		.loc 1 395 1
 153 000c 45A8     		j	.L31
 154              	.LVL17:
 155              	.L14:
 156 000e AE89     		mv	s3,a1
 157              	.LBE40:
 158              	.LBE39:
 173:C:/Users/stapi/OneDrive/Desktop/GD32VW553/V1_MQTT_OK/GD32VW55X_Wifi_BLE_SDK/GD32VW55x_RELEASE_V1.0.2/MSDK/cloud/alicloud/src/services/dev_bind\awss_packet.c ****         goto build_sign_src_err;
 159              		.loc 2 173 26 discriminator 1
 160 0010 EDDD     		beq	a1,zero,.L33
 161 0012 2A84     		mv	s0,a0
 177:C:/Users/stapi/OneDrive/Desktop/GD32VW553/V1_MQTT_OK/GD32VW55X_Wifi_BLE_SDK/GD32VW55x_RELEASE_V1.0.2/MSDK/cloud/alicloud/src/services/dev_bind\awss_packet.c ****     dev_name = os_zalloc(OS_DEVICE_NAME_LEN + 1);
 162              		.loc 2 177 5 is_stmt 1
 177:C:/Users/stapi/OneDrive/Desktop/GD32VW553/V1_MQTT_OK/GD32VW55X_Wifi_BLE_SDK/GD32VW55x_RELEASE_V1.0.2/MSDK/cloud/alicloud/src/services/dev_bind\awss_packet.c ****     dev_name = os_zalloc(OS_DEVICE_NAME_LEN + 1);
 163              		.loc 2 177 10 is_stmt 0
 164 0014 5545     		li	a0,21
 165              	.LVL18:
 166 0016 97000000 		call	os_zalloc
 166      E7800000 
 167              	.LVL19:
 168 001e 2A89     		mv	s2,a0
 169              	.LVL20:
 178:C:/Users/stapi/OneDrive/Desktop/GD32VW553/V1_MQTT_OK/GD32VW55X_Wifi_BLE_SDK/GD32VW55x_RELEASE_V1.0.2/MSDK/cloud/alicloud/src/services/dev_bind\awss_packet.c ****     if (pk == NULL || dev_name == NULL) {
 170              		.loc 2 178 5 is_stmt 1
 178:C:/Users/stapi/OneDrive/Desktop/GD32VW553/V1_MQTT_OK/GD32VW55X_Wifi_BLE_SDK/GD32VW55x_RELEASE_V1.0.2/MSDK/cloud/alicloud/src/services/dev_bind\awss_packet.c ****     if (pk == NULL || dev_name == NULL) {
 171              		.loc 2 178 16 is_stmt 0
 172 0020 13051002 		li	a0,33
 173              	.LVL21:
 174 0024 97000000 		call	os_zalloc
 174      E7800000 
 175              	.LVL22:
 176 002c AA84     		mv	s1,a0
 177              	.LVL23:
 179:C:/Users/stapi/OneDrive/Desktop/GD32VW553/V1_MQTT_OK/GD32VW55X_Wifi_BLE_SDK/GD32VW55x_RELEASE_V1.0.2/MSDK/cloud/alicloud/src/services/dev_bind\awss_packet.c ****         goto build_sign_src_err;
 178              		.loc 2 179 5 is_stmt 1
 179:C:/Users/stapi/OneDrive/Desktop/GD32VW553/V1_MQTT_OK/GD32VW55X_Wifi_BLE_SDK/GD32VW55x_RELEASE_V1.0.2/MSDK/cloud/alicloud/src/services/dev_bind\awss_packet.c ****         goto build_sign_src_err;
 179              		.loc 2 179 8 is_stmt 0
 180 002e 6301090A 		beq	s2,zero,.L17
 179:C:/Users/stapi/OneDrive/Desktop/GD32VW553/V1_MQTT_OK/GD32VW55X_Wifi_BLE_SDK/GD32VW55x_RELEASE_V1.0.2/MSDK/cloud/alicloud/src/services/dev_bind\awss_packet.c ****         goto build_sign_src_err;
 181              		.loc 2 179 20 discriminator 1
 182 0032 51C9     		beq	a0,zero,.L18
 183:C:/Users/stapi/OneDrive/Desktop/GD32VW553/V1_MQTT_OK/GD32VW55X_Wifi_BLE_SDK/GD32VW55x_RELEASE_V1.0.2/MSDK/cloud/alicloud/src/services/dev_bind\awss_packet.c ****     os_device_get_name(dev_name);
 183              		.loc 2 183 5 is_stmt 1
 184              	.LVL24:
 185              	.LBB42:
 186              	.LBB43:
 414:..\..\..\..\cloud\alicloud\src\services\dev_bind\os/os.h **** 
 415:..\..\..\..\cloud\alicloud\src\services\dev_bind\os/os.h **** /** @} */// end of os_memory_manage
 416:..\..\..\..\cloud\alicloud\src\services\dev_bind\os/os.h **** 
 417:..\..\..\..\cloud\alicloud\src\services\dev_bind\os/os.h **** /**************************************** system Interface ****************************************
 418:..\..\..\..\cloud\alicloud\src\services\dev_bind\os/os.h **** 
 419:..\..\..\..\cloud\alicloud\src\services\dev_bind\os/os.h **** /** @defgroup group_os_system system
 420:..\..\..\..\cloud\alicloud\src\services\dev_bind\os/os.h ****  *  @{
 421:..\..\..\..\cloud\alicloud\src\services\dev_bind\os/os.h ****  */
 422:..\..\..\..\cloud\alicloud\src\services\dev_bind\os/os.h **** 
 423:..\..\..\..\cloud\alicloud\src\services\dev_bind\os/os.h **** /**
 424:..\..\..\..\cloud\alicloud\src\services\dev_bind\os/os.h ****  * @brief check system network is ready(get ip address) or not.
 425:..\..\..\..\cloud\alicloud\src\services\dev_bind\os/os.h ****  *
 426:..\..\..\..\cloud\alicloud\src\services\dev_bind\os/os.h ****  * @param None.
 427:..\..\..\..\cloud\alicloud\src\services\dev_bind\os/os.h ****  * @return 0, net is not ready; 1, net is ready.
 428:..\..\..\..\cloud\alicloud\src\services\dev_bind\os/os.h ****  * @see None.
 429:..\..\..\..\cloud\alicloud\src\services\dev_bind\os/os.h ****  * @note None.
 430:..\..\..\..\cloud\alicloud\src\services\dev_bind\os/os.h ****  */
 431:..\..\..\..\cloud\alicloud\src\services\dev_bind\os/os.h **** static inline int os_sys_net_is_ready(void)
 432:..\..\..\..\cloud\alicloud\src\services\dev_bind\os/os.h **** {
 433:..\..\..\..\cloud\alicloud\src\services\dev_bind\os/os.h ****     return platform_sys_net_is_ready();
 434:..\..\..\..\cloud\alicloud\src\services\dev_bind\os/os.h **** }
 435:..\..\..\..\cloud\alicloud\src\services\dev_bind\os/os.h **** 
 436:..\..\..\..\cloud\alicloud\src\services\dev_bind\os/os.h **** /**
 437:..\..\..\..\cloud\alicloud\src\services\dev_bind\os/os.h ****  * @brief Retrieves the number of milliseconds that have elapsed since the system was boot.
 438:..\..\..\..\cloud\alicloud\src\services\dev_bind\os/os.h ****  *
 439:..\..\..\..\cloud\alicloud\src\services\dev_bind\os/os.h ****  * @param None.
 440:..\..\..\..\cloud\alicloud\src\services\dev_bind\os/os.h ****  * @return the number of milliseconds.
 441:..\..\..\..\cloud\alicloud\src\services\dev_bind\os/os.h ****  * @see None.
 442:..\..\..\..\cloud\alicloud\src\services\dev_bind\os/os.h ****  * @note Add a big offset, for easier caught time overflow bug.
 443:..\..\..\..\cloud\alicloud\src\services\dev_bind\os/os.h ****  */
 444:..\..\..\..\cloud\alicloud\src\services\dev_bind\os/os.h **** static inline uint32_t os_get_time_ms(void)
 445:..\..\..\..\cloud\alicloud\src\services\dev_bind\os/os.h **** {
 446:..\..\..\..\cloud\alicloud\src\services\dev_bind\os/os.h ****     static uint32_t fixed_delta;
 447:..\..\..\..\cloud\alicloud\src\services\dev_bind\os/os.h **** 
 448:..\..\..\..\cloud\alicloud\src\services\dev_bind\os/os.h ****     if (!fixed_delta) {
 449:..\..\..\..\cloud\alicloud\src\services\dev_bind\os/os.h ****         fixed_delta = platform_get_time_ms() - 0xFFFF0000;
 450:..\..\..\..\cloud\alicloud\src\services\dev_bind\os/os.h ****     }
 451:..\..\..\..\cloud\alicloud\src\services\dev_bind\os/os.h **** 
 452:..\..\..\..\cloud\alicloud\src\services\dev_bind\os/os.h ****     /* add a big offset, for easier caught time overflow bug */
 453:..\..\..\..\cloud\alicloud\src\services\dev_bind\os/os.h ****     return platform_get_time_ms() - fixed_delta;
 454:..\..\..\..\cloud\alicloud\src\services\dev_bind\os/os.h **** }
 455:..\..\..\..\cloud\alicloud\src\services\dev_bind\os/os.h **** 
 456:..\..\..\..\cloud\alicloud\src\services\dev_bind\os/os.h **** /*
 457:..\..\..\..\cloud\alicloud\src\services\dev_bind\os/os.h ****  *  These inlines deal with timer wrapping correctly. You are
 458:..\..\..\..\cloud\alicloud\src\services\dev_bind\os/os.h ****  *  strongly encouraged to use them
 459:..\..\..\..\cloud\alicloud\src\services\dev_bind\os/os.h ****  *  1. Because people otherwise forget
 460:..\..\..\..\cloud\alicloud\src\services\dev_bind\os/os.h ****  *  2. Because if the timer wrap changes in future you won't have to
 461:..\..\..\..\cloud\alicloud\src\services\dev_bind\os/os.h ****  *     alter your code.
 462:..\..\..\..\cloud\alicloud\src\services\dev_bind\os/os.h ****  */
 463:..\..\..\..\cloud\alicloud\src\services\dev_bind\os/os.h **** static inline uint32_t time_elapsed_ms_since(uint32_t start_timestamp)
 464:..\..\..\..\cloud\alicloud\src\services\dev_bind\os/os.h **** {
 465:..\..\..\..\cloud\alicloud\src\services\dev_bind\os/os.h ****     uint32_t now = os_get_time_ms();
 466:..\..\..\..\cloud\alicloud\src\services\dev_bind\os/os.h **** 
 467:..\..\..\..\cloud\alicloud\src\services\dev_bind\os/os.h ****     return now - start_timestamp;
 468:..\..\..\..\cloud\alicloud\src\services\dev_bind\os/os.h **** }
 469:..\..\..\..\cloud\alicloud\src\services\dev_bind\os/os.h **** 
 470:..\..\..\..\cloud\alicloud\src\services\dev_bind\os/os.h **** /** @} */// end of os_system
 471:..\..\..\..\cloud\alicloud\src\services\dev_bind\os/os.h **** 
 472:..\..\..\..\cloud\alicloud\src\services\dev_bind\os/os.h **** /****************************************** io Interface ******************************************
 473:..\..\..\..\cloud\alicloud\src\services\dev_bind\os/os.h **** 
 474:..\..\..\..\cloud\alicloud\src\services\dev_bind\os/os.h **** /** @defgroup group_os_io io
 475:..\..\..\..\cloud\alicloud\src\services\dev_bind\os/os.h ****  *  @{
 476:..\..\..\..\cloud\alicloud\src\services\dev_bind\os/os.h ****  */
 477:..\..\..\..\cloud\alicloud\src\services\dev_bind\os/os.h **** 
 478:..\..\..\..\cloud\alicloud\src\services\dev_bind\os/os.h **** /**
 479:..\..\..\..\cloud\alicloud\src\services\dev_bind\os/os.h ****  * @brief Writes formatted data to stream.
 480:..\..\..\..\cloud\alicloud\src\services\dev_bind\os/os.h ****  *
 481:..\..\..\..\cloud\alicloud\src\services\dev_bind\os/os.h ****  * @param[in] fmt: @n String that contains the text to be written, it can optionally contain embedd
 482:..\..\..\..\cloud\alicloud\src\services\dev_bind\os/os.h ****      that specifies how subsequent arguments are converted for output.
 483:..\..\..\..\cloud\alicloud\src\services\dev_bind\os/os.h ****  * @param[in] ...: @n the variable argument list, for formatted and inserted in the resulting strin
 484:..\..\..\..\cloud\alicloud\src\services\dev_bind\os/os.h ****  * @return None.
 485:..\..\..\..\cloud\alicloud\src\services\dev_bind\os/os.h ****  * @see None.
 486:..\..\..\..\cloud\alicloud\src\services\dev_bind\os/os.h ****  * @note None.
 487:..\..\..\..\cloud\alicloud\src\services\dev_bind\os/os.h ****  */
 488:..\..\..\..\cloud\alicloud\src\services\dev_bind\os/os.h **** #define os_printf(fmt, ...) platform_printf(fmt, ## __VA_ARGS__)
 489:..\..\..\..\cloud\alicloud\src\services\dev_bind\os/os.h **** 
 490:..\..\..\..\cloud\alicloud\src\services\dev_bind\os/os.h **** /** @} */// end of os_io
 491:..\..\..\..\cloud\alicloud\src\services\dev_bind\os/os.h **** 
 492:..\..\..\..\cloud\alicloud\src\services\dev_bind\os/os.h **** /*************************************** wifi module Interface ************************************
 493:..\..\..\..\cloud\alicloud\src\services\dev_bind\os/os.h **** 
 494:..\..\..\..\cloud\alicloud\src\services\dev_bind\os/os.h **** /** @defgroup group_os_wifi_module wifi
 495:..\..\..\..\cloud\alicloud\src\services\dev_bind\os/os.h ****  *  @{
 496:..\..\..\..\cloud\alicloud\src\services\dev_bind\os/os.h ****  */
 497:..\..\..\..\cloud\alicloud\src\services\dev_bind\os/os.h **** 
 498:..\..\..\..\cloud\alicloud\src\services\dev_bind\os/os.h **** /**
 499:..\..\..\..\cloud\alicloud\src\services\dev_bind\os/os.h ****  * @brief Get encrypt type for smartconfig.
 500:..\..\..\..\cloud\alicloud\src\services\dev_bind\os/os.h ****  *
 501:..\..\..\..\cloud\alicloud\src\services\dev_bind\os/os.h ****  * @param None.
 502:..\..\..\..\cloud\alicloud\src\services\dev_bind\os/os.h ****  * @return.
 503:..\..\..\..\cloud\alicloud\src\services\dev_bind\os/os.h ****    @verbatim
 504:..\..\..\..\cloud\alicloud\src\services\dev_bind\os/os.h ****      = 0: open (no encrypt)
 505:..\..\..\..\cloud\alicloud\src\services\dev_bind\os/os.h ****      = 1: aes256cbc with default aes-key and aes-iv
 506:..\..\..\..\cloud\alicloud\src\services\dev_bind\os/os.h ****      = 2: aes128cbc with default aes-key and aes-iv
 507:..\..\..\..\cloud\alicloud\src\services\dev_bind\os/os.h ****      = 3: aes128cbc with aes-key per product and aes-iv = 0
 508:..\..\..\..\cloud\alicloud\src\services\dev_bind\os/os.h ****      = 4: aes128cbc with aes-key per device and aes-iv = 0
 509:..\..\..\..\cloud\alicloud\src\services\dev_bind\os/os.h ****      = 5: aes128cbc with aes-key per manufacture and aes-iv = 0
 510:..\..\..\..\cloud\alicloud\src\services\dev_bind\os/os.h ****      = others: invalid
 511:..\..\..\..\cloud\alicloud\src\services\dev_bind\os/os.h ****    @endverbatim
 512:..\..\..\..\cloud\alicloud\src\services\dev_bind\os/os.h ****  * @see None.
 513:..\..\..\..\cloud\alicloud\src\services\dev_bind\os/os.h ****  * @note None.
 514:..\..\..\..\cloud\alicloud\src\services\dev_bind\os/os.h ****  */
 515:..\..\..\..\cloud\alicloud\src\services\dev_bind\os/os.h **** static inline int os_get_encrypt_type(void)
 516:..\..\..\..\cloud\alicloud\src\services\dev_bind\os/os.h **** {
 517:..\..\..\..\cloud\alicloud\src\services\dev_bind\os/os.h ****     return platform_get_encrypt_type();
 518:..\..\..\..\cloud\alicloud\src\services\dev_bind\os/os.h **** }
 519:..\..\..\..\cloud\alicloud\src\services\dev_bind\os/os.h **** 
 520:..\..\..\..\cloud\alicloud\src\services\dev_bind\os/os.h **** /**
 521:..\..\..\..\cloud\alicloud\src\services\dev_bind\os/os.h ****  * @brief    Get Security level for wifi configuration with connection.
 522:..\..\..\..\cloud\alicloud\src\services\dev_bind\os/os.h ****  *           Used for AP solution of router and App.
 523:..\..\..\..\cloud\alicloud\src\services\dev_bind\os/os.h ****  *
 524:..\..\..\..\cloud\alicloud\src\services\dev_bind\os/os.h ****  * @param None.
 525:..\..\..\..\cloud\alicloud\src\services\dev_bind\os/os.h ****  * @return The security level:
 526:..\..\..\..\cloud\alicloud\src\services\dev_bind\os/os.h ****    @verbatim
 527:..\..\..\..\cloud\alicloud\src\services\dev_bind\os/os.h ****     3: aes128cfb with aes-key per product and aes-iv = random
 528:..\..\..\..\cloud\alicloud\src\services\dev_bind\os/os.h ****     4: aes128cfb with aes-key per device and aes-iv = random
 529:..\..\..\..\cloud\alicloud\src\services\dev_bind\os/os.h ****     5: aes128cfb with aes-key per manufacture and aes-iv = random
 530:..\..\..\..\cloud\alicloud\src\services\dev_bind\os/os.h ****     others: invalid
 531:..\..\..\..\cloud\alicloud\src\services\dev_bind\os/os.h ****    @endverbatim
 532:..\..\..\..\cloud\alicloud\src\services\dev_bind\os/os.h ****  * @see None.
 533:..\..\..\..\cloud\alicloud\src\services\dev_bind\os/os.h ****  */
 534:..\..\..\..\cloud\alicloud\src\services\dev_bind\os/os.h **** static inline int os_get_conn_encrypt_type(void)
 535:..\..\..\..\cloud\alicloud\src\services\dev_bind\os/os.h **** {
 536:..\..\..\..\cloud\alicloud\src\services\dev_bind\os/os.h ****     return platform_get_conn_encrypt_type();
 537:..\..\..\..\cloud\alicloud\src\services\dev_bind\os/os.h **** }
 538:..\..\..\..\cloud\alicloud\src\services\dev_bind\os/os.h **** 
 539:..\..\..\..\cloud\alicloud\src\services\dev_bind\os/os.h **** /**
 540:..\..\..\..\cloud\alicloud\src\services\dev_bind\os/os.h ****  * @brief   Get rssi and channel of current link
 541:..\..\..\..\cloud\alicloud\src\services\dev_bind\os/os.h ****  *
 542:..\..\..\..\cloud\alicloud\src\services\dev_bind\os/os.h ****  * @param[out] p_rssi: rssi value of current link
 543:..\..\..\..\cloud\alicloud\src\services\dev_bind\os/os.h ****  * @param[out] p_channel: channel of current link
 544:..\..\..\..\cloud\alicloud\src\services\dev_bind\os/os.h ****  * 
 545:..\..\..\..\cloud\alicloud\src\services\dev_bind\os/os.h ****  * @return
 546:..\..\..\..\cloud\alicloud\src\services\dev_bind\os/os.h ****    @verbatim
 547:..\..\..\..\cloud\alicloud\src\services\dev_bind\os/os.h ****      = 0: succeeded
 548:..\..\..\..\cloud\alicloud\src\services\dev_bind\os/os.h ****      = -1: failed
 549:..\..\..\..\cloud\alicloud\src\services\dev_bind\os/os.h ****    @endverbatim
 550:..\..\..\..\cloud\alicloud\src\services\dev_bind\os/os.h ****  * @see None.
 551:..\..\..\..\cloud\alicloud\src\services\dev_bind\os/os.h ****  * @note None.
 552:..\..\..\..\cloud\alicloud\src\services\dev_bind\os/os.h ****  * @note awss use this API to get rssi and channel of current link
 553:..\..\..\..\cloud\alicloud\src\services\dev_bind\os/os.h ****  */
 554:..\..\..\..\cloud\alicloud\src\services\dev_bind\os/os.h **** static inline int os_get_conn_link_stat(int *p_rssi, int *p_channel)
 555:..\..\..\..\cloud\alicloud\src\services\dev_bind\os/os.h **** {
 556:..\..\..\..\cloud\alicloud\src\services\dev_bind\os/os.h ****     return platform_get_conn_link_stat(p_rssi, p_channel);
 557:..\..\..\..\cloud\alicloud\src\services\dev_bind\os/os.h **** }
 558:..\..\..\..\cloud\alicloud\src\services\dev_bind\os/os.h **** 
 559:..\..\..\..\cloud\alicloud\src\services\dev_bind\os/os.h **** /**
 560:..\..\..\..\cloud\alicloud\src\services\dev_bind\os/os.h ****  * @brief Get WIFI MAC string with format like: XX:XX:XX:XX:XX:XX.
 561:..\..\..\..\cloud\alicloud\src\services\dev_bind\os/os.h ****  *
 562:..\..\..\..\cloud\alicloud\src\services\dev_bind\os/os.h ****  * @param[out] mac_str @n Buffer for using to store wifi MAC string.
 563:..\..\..\..\cloud\alicloud\src\services\dev_bind\os/os.h ****  * @return A pointer to the start address of mac_str.
 564:..\..\..\..\cloud\alicloud\src\services\dev_bind\os/os.h ****  * @see None.
 565:..\..\..\..\cloud\alicloud\src\services\dev_bind\os/os.h ****  * @note this func will format mac address string uppercase
 566:..\..\..\..\cloud\alicloud\src\services\dev_bind\os/os.h ****  */
 567:..\..\..\..\cloud\alicloud\src\services\dev_bind\os/os.h **** char *os_wifi_get_mac_str(char mac_str[OS_MAC_LEN]);
 568:..\..\..\..\cloud\alicloud\src\services\dev_bind\os/os.h **** 
 569:..\..\..\..\cloud\alicloud\src\services\dev_bind\os/os.h **** char *os_wifi_str2mac(char mac_str[OS_MAC_LEN], char mac[OS_ETH_ALEN]);
 570:..\..\..\..\cloud\alicloud\src\services\dev_bind\os/os.h **** 
 571:..\..\..\..\cloud\alicloud\src\services\dev_bind\os/os.h **** /**
 572:..\..\..\..\cloud\alicloud\src\services\dev_bind\os/os.h ****  * @brief Get WIFI MAC address(digital form)
 573:..\..\..\..\cloud\alicloud\src\services\dev_bind\os/os.h ****  *
 574:..\..\..\..\cloud\alicloud\src\services\dev_bind\os/os.h ****  * @param[out] mac @n digital buffer to hold mac address
 575:..\..\..\..\cloud\alicloud\src\services\dev_bind\os/os.h ****  * @return A pointer to the start address of mac.
 576:..\..\..\..\cloud\alicloud\src\services\dev_bind\os/os.h ****  * @see None.
 577:..\..\..\..\cloud\alicloud\src\services\dev_bind\os/os.h ****  * @note None.
 578:..\..\..\..\cloud\alicloud\src\services\dev_bind\os/os.h ****  */
 579:..\..\..\..\cloud\alicloud\src\services\dev_bind\os/os.h **** uint8_t *os_wifi_get_mac(uint8_t mac[OS_ETH_ALEN]);
 580:..\..\..\..\cloud\alicloud\src\services\dev_bind\os/os.h **** 
 581:..\..\..\..\cloud\alicloud\src\services\dev_bind\os/os.h **** /**
 582:..\..\..\..\cloud\alicloud\src\services\dev_bind\os/os.h ****  * @brief Get WIFI IP string with format like: xx:xx:xx:xx:xx:xx,
 583:..\..\..\..\cloud\alicloud\src\services\dev_bind\os/os.h ****    and return IP with binary form, in network byte order.
 584:..\..\..\..\cloud\alicloud\src\services\dev_bind\os/os.h ****  *
 585:..\..\..\..\cloud\alicloud\src\services\dev_bind\os/os.h ****  * @param[in] ifname @n Specify the interface name.The NULL value indicates the default network int
 586:..\..\..\..\cloud\alicloud\src\services\dev_bind\os/os.h ****  * @param[out] ip_str @n Buffer for using to store IP string, in numbers-and-dots notation form.
 587:..\..\..\..\cloud\alicloud\src\services\dev_bind\os/os.h ****  * @return IP address with binary form, in network byte order.
 588:..\..\..\..\cloud\alicloud\src\services\dev_bind\os/os.h ****  * @see None.
 589:..\..\..\..\cloud\alicloud\src\services\dev_bind\os/os.h ****  * @note None.
 590:..\..\..\..\cloud\alicloud\src\services\dev_bind\os/os.h ****  */
 591:..\..\..\..\cloud\alicloud\src\services\dev_bind\os/os.h **** static inline uint32_t os_wifi_get_ip(char ip_str[OS_IP_LEN], const char *ifname)
 592:..\..\..\..\cloud\alicloud\src\services\dev_bind\os/os.h **** {
 593:..\..\..\..\cloud\alicloud\src\services\dev_bind\os/os.h ****     return platform_wifi_get_ip(ip_str, ifname);
 594:..\..\..\..\cloud\alicloud\src\services\dev_bind\os/os.h **** }
 595:..\..\..\..\cloud\alicloud\src\services\dev_bind\os/os.h **** 
 596:..\..\..\..\cloud\alicloud\src\services\dev_bind\os/os.h **** /*************************************** awss interface ***************************************/
 597:..\..\..\..\cloud\alicloud\src\services\dev_bind\os/os.h **** 
 598:..\..\..\..\cloud\alicloud\src\services\dev_bind\os/os.h **** /** @defgroup group_os_awss alink wireless setup service(awss)
 599:..\..\..\..\cloud\alicloud\src\services\dev_bind\os/os.h ****  *  @{
 600:..\..\..\..\cloud\alicloud\src\services\dev_bind\os/os.h ****  */
 601:..\..\..\..\cloud\alicloud\src\services\dev_bind\os/os.h **** 
 602:..\..\..\..\cloud\alicloud\src\services\dev_bind\os/os.h **** /**
 603:..\..\..\..\cloud\alicloud\src\services\dev_bind\os/os.h ****  * @brief Get timeout interval, in millisecond, of per awss.
 604:..\..\..\..\cloud\alicloud\src\services\dev_bind\os/os.h ****  *
 605:..\..\..\..\cloud\alicloud\src\services\dev_bind\os/os.h ****  * @param None.
 606:..\..\..\..\cloud\alicloud\src\services\dev_bind\os/os.h ****  * @return The timeout interval.
 607:..\..\..\..\cloud\alicloud\src\services\dev_bind\os/os.h ****  * @see None.
 608:..\..\..\..\cloud\alicloud\src\services\dev_bind\os/os.h ****  * @note The recommended value is 60,000ms.
 609:..\..\..\..\cloud\alicloud\src\services\dev_bind\os/os.h ****  */
 610:..\..\..\..\cloud\alicloud\src\services\dev_bind\os/os.h **** static inline int os_awss_get_timeout_interval_ms(void)
 611:..\..\..\..\cloud\alicloud\src\services\dev_bind\os/os.h **** {
 612:..\..\..\..\cloud\alicloud\src\services\dev_bind\os/os.h ****     return platform_awss_get_timeout_interval_ms();
 613:..\..\..\..\cloud\alicloud\src\services\dev_bind\os/os.h **** }
 614:..\..\..\..\cloud\alicloud\src\services\dev_bind\os/os.h **** 
 615:..\..\..\..\cloud\alicloud\src\services\dev_bind\os/os.h **** /**
 616:..\..\..\..\cloud\alicloud\src\services\dev_bind\os/os.h ****  * @brief Get time length, in millisecond, of per channel scan.
 617:..\..\..\..\cloud\alicloud\src\services\dev_bind\os/os.h ****  *
 618:..\..\..\..\cloud\alicloud\src\services\dev_bind\os/os.h ****  * @param None.
 619:..\..\..\..\cloud\alicloud\src\services\dev_bind\os/os.h ****  * @return The timeout interval.
 620:..\..\..\..\cloud\alicloud\src\services\dev_bind\os/os.h ****  * @see None.
 621:..\..\..\..\cloud\alicloud\src\services\dev_bind\os/os.h ****  * @note None. The recommended value is between 200ms and 400ms.
 622:..\..\..\..\cloud\alicloud\src\services\dev_bind\os/os.h ****  */
 623:..\..\..\..\cloud\alicloud\src\services\dev_bind\os/os.h **** static inline int os_awss_get_channelscan_interval_ms(void)
 624:..\..\..\..\cloud\alicloud\src\services\dev_bind\os/os.h **** {
 625:..\..\..\..\cloud\alicloud\src\services\dev_bind\os/os.h ****     return platform_awss_get_channelscan_interval_ms();
 626:..\..\..\..\cloud\alicloud\src\services\dev_bind\os/os.h **** }
 627:..\..\..\..\cloud\alicloud\src\services\dev_bind\os/os.h **** 
 628:..\..\..\..\cloud\alicloud\src\services\dev_bind\os/os.h **** typedef platform_awss_recv_80211_frame_cb_t os_awss_recv_80211_frame_cb_t;
 629:..\..\..\..\cloud\alicloud\src\services\dev_bind\os/os.h **** /**
 630:..\..\..\..\cloud\alicloud\src\services\dev_bind\os/os.h ****  * @brief Set wifi running at monitor mode,
 631:..\..\..\..\cloud\alicloud\src\services\dev_bind\os/os.h ****    and register a callback function which will be called when wifi receive a frame.
 632:..\..\..\..\cloud\alicloud\src\services\dev_bind\os/os.h ****  *
 633:..\..\..\..\cloud\alicloud\src\services\dev_bind\os/os.h ****  * @param[in] cb @n A function pointer, called back when wifi receive a frame.
 634:..\..\..\..\cloud\alicloud\src\services\dev_bind\os/os.h ****  * @return None.
 635:..\..\..\..\cloud\alicloud\src\services\dev_bind\os/os.h ****  * @see None.
 636:..\..\..\..\cloud\alicloud\src\services\dev_bind\os/os.h ****  * @note None.
 637:..\..\..\..\cloud\alicloud\src\services\dev_bind\os/os.h ****  */
 638:..\..\..\..\cloud\alicloud\src\services\dev_bind\os/os.h **** static inline void os_awss_open_monitor(os_awss_recv_80211_frame_cb_t cb)
 639:..\..\..\..\cloud\alicloud\src\services\dev_bind\os/os.h **** {
 640:..\..\..\..\cloud\alicloud\src\services\dev_bind\os/os.h ****     platform_awss_open_monitor(cb);
 641:..\..\..\..\cloud\alicloud\src\services\dev_bind\os/os.h **** }
 642:..\..\..\..\cloud\alicloud\src\services\dev_bind\os/os.h **** 
 643:..\..\..\..\cloud\alicloud\src\services\dev_bind\os/os.h **** /**
 644:..\..\..\..\cloud\alicloud\src\services\dev_bind\os/os.h ****  * @brief Close wifi monitor mode, and set running at station mode.
 645:..\..\..\..\cloud\alicloud\src\services\dev_bind\os/os.h ****  *
 646:..\..\..\..\cloud\alicloud\src\services\dev_bind\os/os.h ****  * @param None.
 647:..\..\..\..\cloud\alicloud\src\services\dev_bind\os/os.h ****  * @return None.
 648:..\..\..\..\cloud\alicloud\src\services\dev_bind\os/os.h ****  * @see None.
 649:..\..\..\..\cloud\alicloud\src\services\dev_bind\os/os.h ****  * @note None.
 650:..\..\..\..\cloud\alicloud\src\services\dev_bind\os/os.h ****  */
 651:..\..\..\..\cloud\alicloud\src\services\dev_bind\os/os.h **** static inline void os_awss_close_monitor(void)
 652:..\..\..\..\cloud\alicloud\src\services\dev_bind\os/os.h **** {
 653:..\..\..\..\cloud\alicloud\src\services\dev_bind\os/os.h ****     platform_awss_close_monitor();
 654:..\..\..\..\cloud\alicloud\src\services\dev_bind\os/os.h **** }
 655:..\..\..\..\cloud\alicloud\src\services\dev_bind\os/os.h **** 
 656:..\..\..\..\cloud\alicloud\src\services\dev_bind\os/os.h **** /**
 657:..\..\..\..\cloud\alicloud\src\services\dev_bind\os/os.h ****   * @brief   SoftAP
 658:..\..\..\..\cloud\alicloud\src\services\dev_bind\os/os.h ****   *
 659:..\..\..\..\cloud\alicloud\src\services\dev_bind\os/os.h ****   * @param[in] ssid @n ssid
 660:..\..\..\..\cloud\alicloud\src\services\dev_bind\os/os.h ****   * @param[in] passwd @n passwd
 661:..\..\..\..\cloud\alicloud\src\services\dev_bind\os/os.h ****   * @param[in] beacon_interval @n Beacon
 662:..\..\..\..\cloud\alicloud\src\services\dev_bind\os/os.h ****   * @param[in] hide @n hide:0, , 
 663:..\..\..\..\cloud\alicloud\src\services\dev_bind\os/os.h ****   * @return
 664:..\..\..\..\cloud\alicloud\src\services\dev_bind\os/os.h ****      @verbatim
 665:..\..\..\..\cloud\alicloud\src\services\dev_bind\os/os.h ****         = 0: success
 666:..\..\..\..\cloud\alicloud\src\services\dev_bind\os/os.h ****         = -1: unsupported
 667:..\..\..\..\cloud\alicloud\src\services\dev_bind\os/os.h ****         = -2: failure with system error
 668:..\..\..\..\cloud\alicloud\src\services\dev_bind\os/os.h ****         = -3: failure with no memory
 669:..\..\..\..\cloud\alicloud\src\services\dev_bind\os/os.h ****         = -4: failure with invalid parameters
 670:..\..\..\..\cloud\alicloud\src\services\dev_bind\os/os.h ****      @endverbatim
 671:..\..\..\..\cloud\alicloud\src\services\dev_bind\os/os.h ****   * @Note:
 672:..\..\..\..\cloud\alicloud\src\services\dev_bind\os/os.h ****   *       1ssidpasswd'\0'passwd
 673:..\..\..\..\cloud\alicloud\src\services\dev_bind\os/os.h ****   *          0Open
 674:..\..\..\..\cloud\alicloud\src\services\dev_bind\os/os.h ****   *       2beacon_intervalBeacon
 675:..\..\..\..\cloud\alicloud\src\services\dev_bind\os/os.h ****   *          100ms
 676:..\..\..\..\cloud\alicloud\src\services\dev_bind\os/os.h ****   *       3hidehide=0
 677:..\..\..\..\cloud\alicloud\src\services\dev_bind\os/os.h ****   *         
 678:..\..\..\..\cloud\alicloud\src\services\dev_bind\os/os.h ****   */
 679:..\..\..\..\cloud\alicloud\src\services\dev_bind\os/os.h **** 
 680:..\..\..\..\cloud\alicloud\src\services\dev_bind\os/os.h **** static inline int os_awss_open_ap(const char *ssid, const char *passwd, int beacon_interval, int hi
 681:..\..\..\..\cloud\alicloud\src\services\dev_bind\os/os.h **** {
 682:..\..\..\..\cloud\alicloud\src\services\dev_bind\os/os.h ****     return platform_awss_open_ap(ssid, passwd, beacon_interval, hide);
 683:..\..\..\..\cloud\alicloud\src\services\dev_bind\os/os.h **** }
 684:..\..\..\..\cloud\alicloud\src\services\dev_bind\os/os.h **** 
 685:..\..\..\..\cloud\alicloud\src\services\dev_bind\os/os.h **** /**
 686:..\..\..\..\cloud\alicloud\src\services\dev_bind\os/os.h ****   * @brief   SoftAPStation
 687:..\..\..\..\cloud\alicloud\src\services\dev_bind\os/os.h ****   *
 688:..\..\..\..\cloud\alicloud\src\services\dev_bind\os/os.h ****   * @return
 689:..\..\..\..\cloud\alicloud\src\services\dev_bind\os/os.h ****      @verbatim
 690:..\..\..\..\cloud\alicloud\src\services\dev_bind\os/os.h ****         = 0: success
 691:..\..\..\..\cloud\alicloud\src\services\dev_bind\os/os.h ****         = -1: unsupported
 692:..\..\..\..\cloud\alicloud\src\services\dev_bind\os/os.h ****         = -2: failure
 693:..\..\..\..\cloud\alicloud\src\services\dev_bind\os/os.h ****      @endverbatim
 694:..\..\..\..\cloud\alicloud\src\services\dev_bind\os/os.h ****   * @Note:
 695:..\..\..\..\cloud\alicloud\src\services\dev_bind\os/os.h ****   *       1
 696:..\..\..\..\cloud\alicloud\src\services\dev_bind\os/os.h ****   *          
 697:..\..\..\..\cloud\alicloud\src\services\dev_bind\os/os.h ****   *       2StationStation+SoftAP
 698:..\..\..\..\cloud\alicloud\src\services\dev_bind\os/os.h ****   *          SoftAPStation
 699:..\..\..\..\cloud\alicloud\src\services\dev_bind\os/os.h ****   *       3Wi-Fi
 700:..\..\..\..\cloud\alicloud\src\services\dev_bind\os/os.h ****   *          
 701:..\..\..\..\cloud\alicloud\src\services\dev_bind\os/os.h ****   */
 702:..\..\..\..\cloud\alicloud\src\services\dev_bind\os/os.h **** 
 703:..\..\..\..\cloud\alicloud\src\services\dev_bind\os/os.h **** static inline int os_awss_close_ap()
 704:..\..\..\..\cloud\alicloud\src\services\dev_bind\os/os.h **** {
 705:..\..\..\..\cloud\alicloud\src\services\dev_bind\os/os.h ****     return platform_awss_close_ap();
 706:..\..\..\..\cloud\alicloud\src\services\dev_bind\os/os.h **** }
 707:..\..\..\..\cloud\alicloud\src\services\dev_bind\os/os.h **** 
 708:..\..\..\..\cloud\alicloud\src\services\dev_bind\os/os.h **** /**
 709:..\..\..\..\cloud\alicloud\src\services\dev_bind\os/os.h ****  * @brief Switch to specific wifi channel.
 710:..\..\..\..\cloud\alicloud\src\services\dev_bind\os/os.h ****  *
 711:..\..\..\..\cloud\alicloud\src\services\dev_bind\os/os.h ****  * @param[in] primary_channel @n Primary channel.
 712:..\..\..\..\cloud\alicloud\src\services\dev_bind\os/os.h ****  * @param[in] secondary_channel @n Auxiliary channel.
 713:..\..\..\..\cloud\alicloud\src\services\dev_bind\os/os.h ****  * @param[in] bssid @n A pointer to wifi BSSID.
 714:..\..\..\..\cloud\alicloud\src\services\dev_bind\os/os.h ****  * @return None.
 715:..\..\..\..\cloud\alicloud\src\services\dev_bind\os/os.h ****  * @see None.
 716:..\..\..\..\cloud\alicloud\src\services\dev_bind\os/os.h ****  * @note None.
 717:..\..\..\..\cloud\alicloud\src\services\dev_bind\os/os.h ****  */
 718:..\..\..\..\cloud\alicloud\src\services\dev_bind\os/os.h **** static inline void os_awss_switch_channel(char primary_channel, char secondary_channel, uint8_t bss
 719:..\..\..\..\cloud\alicloud\src\services\dev_bind\os/os.h **** {
 720:..\..\..\..\cloud\alicloud\src\services\dev_bind\os/os.h ****     platform_awss_switch_channel(primary_channel, secondary_channel, bssid);
 721:..\..\..\..\cloud\alicloud\src\services\dev_bind\os/os.h **** }
 722:..\..\..\..\cloud\alicloud\src\services\dev_bind\os/os.h **** 
 723:..\..\..\..\cloud\alicloud\src\services\dev_bind\os/os.h **** /**
 724:..\..\..\..\cloud\alicloud\src\services\dev_bind\os/os.h ****  * @brief Wifi AP connect function
 725:..\..\..\..\cloud\alicloud\src\services\dev_bind\os/os.h ****  *
 726:..\..\..\..\cloud\alicloud\src\services\dev_bind\os/os.h ****  * @param[in] connection_timeout_ms @n AP connection timeout in ms or PLATFORM_WAIT_INFINITE
 727:..\..\..\..\cloud\alicloud\src\services\dev_bind\os/os.h ****  * @param[in] ssid @n AP ssid
 728:..\..\..\..\cloud\alicloud\src\services\dev_bind\os/os.h ****  * @param[in] passwd @n AP passwd
 729:..\..\..\..\cloud\alicloud\src\services\dev_bind\os/os.h ****  * @param[in] auth @n optional(AWSS_AUTH_TYPE_INVALID), AP auth info
 730:..\..\..\..\cloud\alicloud\src\services\dev_bind\os/os.h ****  * @param[in] encry @n optional(AWSS_ENC_TYPE_INVALID), AP encry info
 731:..\..\..\..\cloud\alicloud\src\services\dev_bind\os/os.h ****  * @param[in] bssid @n optional(NULL or zero mac address), AP bssid info
 732:..\..\..\..\cloud\alicloud\src\services\dev_bind\os/os.h ****  * @param[in] channel @n optional, AP channel info
 733:..\..\..\..\cloud\alicloud\src\services\dev_bind\os/os.h ****  * @return
 734:..\..\..\..\cloud\alicloud\src\services\dev_bind\os/os.h ****    @verbatim
 735:..\..\..\..\cloud\alicloud\src\services\dev_bind\os/os.h ****      = 0: connect AP & DHCP success
 736:..\..\..\..\cloud\alicloud\src\services\dev_bind\os/os.h ****      = -1: connect AP or DHCP fail/timeout
 737:..\..\..\..\cloud\alicloud\src\services\dev_bind\os/os.h ****    @endverbatim
 738:..\..\..\..\cloud\alicloud\src\services\dev_bind\os/os.h ****  * @see None.
 739:..\..\..\..\cloud\alicloud\src\services\dev_bind\os/os.h ****  * @note None.
 740:..\..\..\..\cloud\alicloud\src\services\dev_bind\os/os.h ****  */
 741:..\..\..\..\cloud\alicloud\src\services\dev_bind\os/os.h **** static inline int os_awss_connect_ap(
 742:..\..\..\..\cloud\alicloud\src\services\dev_bind\os/os.h ****             _IN_ uint32_t connection_timeout_ms,
 743:..\..\..\..\cloud\alicloud\src\services\dev_bind\os/os.h ****             _IN_ char ssid[OS_MAX_SSID_LEN],
 744:..\..\..\..\cloud\alicloud\src\services\dev_bind\os/os.h ****             _IN_ char passwd[OS_MAX_PASSWD_LEN],
 745:..\..\..\..\cloud\alicloud\src\services\dev_bind\os/os.h ****             _IN_OPT_ enum AWSS_AUTH_TYPE auth,
 746:..\..\..\..\cloud\alicloud\src\services\dev_bind\os/os.h ****             _IN_OPT_ enum AWSS_ENC_TYPE encry,
 747:..\..\..\..\cloud\alicloud\src\services\dev_bind\os/os.h ****             _IN_OPT_ uint8_t bssid[ETH_ALEN],
 748:..\..\..\..\cloud\alicloud\src\services\dev_bind\os/os.h ****             _IN_OPT_ uint8_t channel)
 749:..\..\..\..\cloud\alicloud\src\services\dev_bind\os/os.h **** {
 750:..\..\..\..\cloud\alicloud\src\services\dev_bind\os/os.h ****     return platform_awss_connect_ap(connection_timeout_ms, ssid, passwd,
 751:..\..\..\..\cloud\alicloud\src\services\dev_bind\os/os.h ****                                     auth, encry, bssid, channel);
 752:..\..\..\..\cloud\alicloud\src\services\dev_bind\os/os.h **** }
 753:..\..\..\..\cloud\alicloud\src\services\dev_bind\os/os.h **** 
 754:..\..\..\..\cloud\alicloud\src\services\dev_bind\os/os.h **** #define os_wifi_scan_result_cb_t    platform_wifi_scan_result_cb_t
 755:..\..\..\..\cloud\alicloud\src\services\dev_bind\os/os.h **** 
 756:..\..\..\..\cloud\alicloud\src\services\dev_bind\os/os.h **** /**
 757:..\..\..\..\cloud\alicloud\src\services\dev_bind\os/os.h ****  * @brief send 80211 raw frame in current channel with basic rate(1Mbps)
 758:..\..\..\..\cloud\alicloud\src\services\dev_bind\os/os.h ****  *
 759:..\..\..\..\cloud\alicloud\src\services\dev_bind\os/os.h ****  * @param[in] type @n see enum platform_awss_frame_type, currently only FRAME_BEACON
 760:..\..\..\..\cloud\alicloud\src\services\dev_bind\os/os.h ****  *                      FRAME_PROBE_REQ is used
 761:..\..\..\..\cloud\alicloud\src\services\dev_bind\os/os.h ****  * @param[in] buffer @n 80211 raw frame, include complete mac header & FCS field
 762:..\..\..\..\cloud\alicloud\src\services\dev_bind\os/os.h ****  * @param[in] len @n 80211 raw frame length
 763:..\..\..\..\cloud\alicloud\src\services\dev_bind\os/os.h ****  * @return
 764:..\..\..\..\cloud\alicloud\src\services\dev_bind\os/os.h ****    @verbatim
 765:..\..\..\..\cloud\alicloud\src\services\dev_bind\os/os.h ****    =  0, send success.
 766:..\..\..\..\cloud\alicloud\src\services\dev_bind\os/os.h ****    = -1, send failure.
 767:..\..\..\..\cloud\alicloud\src\services\dev_bind\os/os.h ****    = -2, unsupported.
 768:..\..\..\..\cloud\alicloud\src\services\dev_bind\os/os.h ****    @endverbatim
 769:..\..\..\..\cloud\alicloud\src\services\dev_bind\os/os.h ****  * @see None.
 770:..\..\..\..\cloud\alicloud\src\services\dev_bind\os/os.h ****  * @note awss use this API send raw frame in wifi monitor mode & station mode
 771:..\..\..\..\cloud\alicloud\src\services\dev_bind\os/os.h ****  */
 772:..\..\..\..\cloud\alicloud\src\services\dev_bind\os/os.h **** static inline int os_wifi_send_80211_raw_frame(_IN_ enum platform_awss_frame_type type,
 773:..\..\..\..\cloud\alicloud\src\services\dev_bind\os/os.h ****         _IN_ uint8_t *buffer, _IN_ int len)
 774:..\..\..\..\cloud\alicloud\src\services\dev_bind\os/os.h **** {
 775:..\..\..\..\cloud\alicloud\src\services\dev_bind\os/os.h ****     return platform_wifi_send_80211_raw_frame(type, buffer, len);
 776:..\..\..\..\cloud\alicloud\src\services\dev_bind\os/os.h **** }
 777:..\..\..\..\cloud\alicloud\src\services\dev_bind\os/os.h **** 
 778:..\..\..\..\cloud\alicloud\src\services\dev_bind\os/os.h **** /**
 779:..\..\..\..\cloud\alicloud\src\services\dev_bind\os/os.h ****  * @brief management frame handler
 780:..\..\..\..\cloud\alicloud\src\services\dev_bind\os/os.h ****  *
 781:..\..\..\..\cloud\alicloud\src\services\dev_bind\os/os.h ****  * @param[in] buffer @n 80211 raw frame or ie(information element) buffer
 782:..\..\..\..\cloud\alicloud\src\services\dev_bind\os/os.h ****  * @param[in] len @n buffer length
 783:..\..\..\..\cloud\alicloud\src\services\dev_bind\os/os.h ****  * @param[in] buffer_type @n 0 when buffer is a 80211 frame,
 784:..\..\..\..\cloud\alicloud\src\services\dev_bind\os/os.h ****  *                          1 when buffer only contain IE info
 785:..\..\..\..\cloud\alicloud\src\services\dev_bind\os/os.h ****  * @return None.
 786:..\..\..\..\cloud\alicloud\src\services\dev_bind\os/os.h ****  * @see None.
 787:..\..\..\..\cloud\alicloud\src\services\dev_bind\os/os.h ****  * @note None.
 788:..\..\..\..\cloud\alicloud\src\services\dev_bind\os/os.h ****  */
 789:..\..\..\..\cloud\alicloud\src\services\dev_bind\os/os.h **** #define os_wifi_mgnt_frame_cb_t     platform_wifi_mgnt_frame_cb_t
 790:..\..\..\..\cloud\alicloud\src\services\dev_bind\os/os.h **** 
 791:..\..\..\..\cloud\alicloud\src\services\dev_bind\os/os.h **** /**
 792:..\..\..\..\cloud\alicloud\src\services\dev_bind\os/os.h ****  * @brief enable/disable filter specific management frame in wifi station mode
 793:..\..\..\..\cloud\alicloud\src\services\dev_bind\os/os.h ****  *
 794:..\..\..\..\cloud\alicloud\src\services\dev_bind\os/os.h ****  * @param[in] filter_mask @n see mask macro in enum platform_awss_frame_type,
 795:..\..\..\..\cloud\alicloud\src\services\dev_bind\os/os.h ****  *                      currently only FRAME_PROBE_REQ_MASK & FRAME_BEACON_MASK is used
 796:..\..\..\..\cloud\alicloud\src\services\dev_bind\os/os.h ****  * @param[in] vendor_oui @n oui can be used for precise frame match, optional
 797:..\..\..\..\cloud\alicloud\src\services\dev_bind\os/os.h ****  * @param[in] callback @n see platform_wifi_mgnt_frame_cb_t, passing 80211
 798:..\..\..\..\cloud\alicloud\src\services\dev_bind\os/os.h ****  *                      frame or ie to callback. when callback is NULL
 799:..\..\..\..\cloud\alicloud\src\services\dev_bind\os/os.h ****  *                      disable sniffer feature, otherwise enable it.
 800:..\..\..\..\cloud\alicloud\src\services\dev_bind\os/os.h ****  * @return
 801:..\..\..\..\cloud\alicloud\src\services\dev_bind\os/os.h ****    @verbatim
 802:..\..\..\..\cloud\alicloud\src\services\dev_bind\os/os.h ****    =  0, success
 803:..\..\..\..\cloud\alicloud\src\services\dev_bind\os/os.h ****    = -1, fail
 804:..\..\..\..\cloud\alicloud\src\services\dev_bind\os/os.h ****    = -2, unsupported.
 805:..\..\..\..\cloud\alicloud\src\services\dev_bind\os/os.h ****    @endverbatim
 806:..\..\..\..\cloud\alicloud\src\services\dev_bind\os/os.h ****  * @see None.
 807:..\..\..\..\cloud\alicloud\src\services\dev_bind\os/os.h ****  * @note awss use this API to filter specific mgnt frame in wifi station mode
 808:..\..\..\..\cloud\alicloud\src\services\dev_bind\os/os.h ****  */
 809:..\..\..\..\cloud\alicloud\src\services\dev_bind\os/os.h **** static inline int os_wifi_enable_mgnt_frame_filter(
 810:..\..\..\..\cloud\alicloud\src\services\dev_bind\os/os.h ****             _IN_ uint32_t filter_mask,
 811:..\..\..\..\cloud\alicloud\src\services\dev_bind\os/os.h ****             _IN_OPT_ uint8_t vendor_oui[3],
 812:..\..\..\..\cloud\alicloud\src\services\dev_bind\os/os.h ****             _IN_ platform_wifi_mgnt_frame_cb_t callback)
 813:..\..\..\..\cloud\alicloud\src\services\dev_bind\os/os.h **** {
 814:..\..\..\..\cloud\alicloud\src\services\dev_bind\os/os.h ****     return platform_wifi_enable_mgnt_frame_filter(filter_mask, vendor_oui, callback);
 815:..\..\..\..\cloud\alicloud\src\services\dev_bind\os/os.h **** }
 816:..\..\..\..\cloud\alicloud\src\services\dev_bind\os/os.h **** 
 817:..\..\..\..\cloud\alicloud\src\services\dev_bind\os/os.h **** /**
 818:..\..\..\..\cloud\alicloud\src\services\dev_bind\os/os.h ****  * @brief find all the wifi AP around adapted with device.
 819:..\..\..\..\cloud\alicloud\src\services\dev_bind\os/os.h ****  *
 820:..\..\..\..\cloud\alicloud\src\services\dev_bind\os/os.h ****  * @param[in] cb @n pass ssid info(scan result) to this callback one by one
 821:..\..\..\..\cloud\alicloud\src\services\dev_bind\os/os.h ****  * @return 0 for wifi scan is done, otherwise return -1
 822:..\..\..\..\cloud\alicloud\src\services\dev_bind\os/os.h ****  * @see None.
 823:..\..\..\..\cloud\alicloud\src\services\dev_bind\os/os.h ****  * @note
 824:..\..\..\..\cloud\alicloud\src\services\dev_bind\os/os.h ****  *      This API should NOT exit before the invoking for cb is finished.
 825:..\..\..\..\cloud\alicloud\src\services\dev_bind\os/os.h ****  *      This rule is something like the following :
 826:..\..\..\..\cloud\alicloud\src\services\dev_bind\os/os.h ****  *      platform_wifi_scan() is invoked...
 827:..\..\..\..\cloud\alicloud\src\services\dev_bind\os/os.h ****  *      ...
 828:..\..\..\..\cloud\alicloud\src\services\dev_bind\os/os.h ****  *      for (ap = first_ap; ap <= last_ap; ap = next_ap){
 829:..\..\..\..\cloud\alicloud\src\services\dev_bind\os/os.h ****  *          cb(ap)
 830:..\..\..\..\cloud\alicloud\src\services\dev_bind\os/os.h ****  *      }
 831:..\..\..\..\cloud\alicloud\src\services\dev_bind\os/os.h ****  *      ...
 832:..\..\..\..\cloud\alicloud\src\services\dev_bind\os/os.h ****  *      platform_wifi_scan() exit...
 833:..\..\..\..\cloud\alicloud\src\services\dev_bind\os/os.h ****  */
 834:..\..\..\..\cloud\alicloud\src\services\dev_bind\os/os.h **** static inline int os_wifi_scan(_IN_ platform_wifi_scan_result_cb_t cb)
 835:..\..\..\..\cloud\alicloud\src\services\dev_bind\os/os.h **** {
 836:..\..\..\..\cloud\alicloud\src\services\dev_bind\os/os.h ****     return platform_wifi_scan(cb);
 837:..\..\..\..\cloud\alicloud\src\services\dev_bind\os/os.h **** }
 838:..\..\..\..\cloud\alicloud\src\services\dev_bind\os/os.h **** 
 839:..\..\..\..\cloud\alicloud\src\services\dev_bind\os/os.h **** /**
 840:..\..\..\..\cloud\alicloud\src\services\dev_bind\os/os.h ****  * @brief initialize AES struct.
 841:..\..\..\..\cloud\alicloud\src\services\dev_bind\os/os.h ****  *
 842:..\..\..\..\cloud\alicloud\src\services\dev_bind\os/os.h ****  * @param[in] key:
 843:..\..\..\..\cloud\alicloud\src\services\dev_bind\os/os.h ****  * @param[in] iv:
 844:..\..\..\..\cloud\alicloud\src\services\dev_bind\os/os.h ****  * @param[in] dir: AES_ENCRYPTION or AES_DECRYPTION
 845:..\..\..\..\cloud\alicloud\src\services\dev_bind\os/os.h ****  * @return AES128_t
 846:..\..\..\..\cloud\alicloud\src\services\dev_bind\os/os.h ****    @verbatim None
 847:..\..\..\..\cloud\alicloud\src\services\dev_bind\os/os.h ****    @endverbatim
 848:..\..\..\..\cloud\alicloud\src\services\dev_bind\os/os.h ****  * @see None.
 849:..\..\..\..\cloud\alicloud\src\services\dev_bind\os/os.h ****  * @note None.
 850:..\..\..\..\cloud\alicloud\src\services\dev_bind\os/os.h ****  */
 851:..\..\..\..\cloud\alicloud\src\services\dev_bind\os/os.h **** static inline p_aes128_t os_aes128_init(
 852:..\..\..\..\cloud\alicloud\src\services\dev_bind\os/os.h ****             _IN_ const uint8_t *key,
 853:..\..\..\..\cloud\alicloud\src\services\dev_bind\os/os.h ****             _IN_ const uint8_t *iv,
 854:..\..\..\..\cloud\alicloud\src\services\dev_bind\os/os.h ****             _IN_ AES_DIR_t dir)
 855:..\..\..\..\cloud\alicloud\src\services\dev_bind\os/os.h **** {
 856:..\..\..\..\cloud\alicloud\src\services\dev_bind\os/os.h ****     return platform_aes128_init(key, iv, dir);
 857:..\..\..\..\cloud\alicloud\src\services\dev_bind\os/os.h **** }
 858:..\..\..\..\cloud\alicloud\src\services\dev_bind\os/os.h **** 
 859:..\..\..\..\cloud\alicloud\src\services\dev_bind\os/os.h **** /**
 860:..\..\..\..\cloud\alicloud\src\services\dev_bind\os/os.h ****  * @brief release AES struct.
 861:..\..\..\..\cloud\alicloud\src\services\dev_bind\os/os.h ****  *
 862:..\..\..\..\cloud\alicloud\src\services\dev_bind\os/os.h ****  * @param[in] aes:
 863:..\..\..\..\cloud\alicloud\src\services\dev_bind\os/os.h ****  * @return
 864:..\..\..\..\cloud\alicloud\src\services\dev_bind\os/os.h ****    @verbatim
 865:..\..\..\..\cloud\alicloud\src\services\dev_bind\os/os.h ****      = 0: succeeded
 866:..\..\..\..\cloud\alicloud\src\services\dev_bind\os/os.h ****      = -1: failed
 867:..\..\..\..\cloud\alicloud\src\services\dev_bind\os/os.h ****    @endverbatim
 868:..\..\..\..\cloud\alicloud\src\services\dev_bind\os/os.h ****  * @see None.
 869:..\..\..\..\cloud\alicloud\src\services\dev_bind\os/os.h ****  * @note None.
 870:..\..\..\..\cloud\alicloud\src\services\dev_bind\os/os.h ****  */
 871:..\..\..\..\cloud\alicloud\src\services\dev_bind\os/os.h **** static inline int os_aes128_destroy(
 872:..\..\..\..\cloud\alicloud\src\services\dev_bind\os/os.h ****             _IN_ p_aes128_t aes)
 873:..\..\..\..\cloud\alicloud\src\services\dev_bind\os/os.h **** {
 874:..\..\..\..\cloud\alicloud\src\services\dev_bind\os/os.h ****     return platform_aes128_destroy(aes);
 875:..\..\..\..\cloud\alicloud\src\services\dev_bind\os/os.h **** }
 876:..\..\..\..\cloud\alicloud\src\services\dev_bind\os/os.h **** 
 877:..\..\..\..\cloud\alicloud\src\services\dev_bind\os/os.h **** /**
 878:..\..\..\..\cloud\alicloud\src\services\dev_bind\os/os.h ****  * @brief encrypt data with aes (cbc/128bit key).
 879:..\..\..\..\cloud\alicloud\src\services\dev_bind\os/os.h ****  *
 880:..\..\..\..\cloud\alicloud\src\services\dev_bind\os/os.h ****  * @param[in] aes: AES handler
 881:..\..\..\..\cloud\alicloud\src\services\dev_bind\os/os.h ****  * @param[in] src: plain data
 882:..\..\..\..\cloud\alicloud\src\services\dev_bind\os/os.h ****  * @param[in] blockNum: plain data number of 16 bytes size
 883:..\..\..\..\cloud\alicloud\src\services\dev_bind\os/os.h ****  * @param[out] dst: cipher data
 884:..\..\..\..\cloud\alicloud\src\services\dev_bind\os/os.h ****  * @return
 885:..\..\..\..\cloud\alicloud\src\services\dev_bind\os/os.h ****    @verbatim
 886:..\..\..\..\cloud\alicloud\src\services\dev_bind\os/os.h ****      = 0: succeeded
 887:..\..\..\..\cloud\alicloud\src\services\dev_bind\os/os.h ****      = -1: failed
 888:..\..\..\..\cloud\alicloud\src\services\dev_bind\os/os.h ****    @endverbatim
 889:..\..\..\..\cloud\alicloud\src\services\dev_bind\os/os.h ****  * @see None.
 890:..\..\..\..\cloud\alicloud\src\services\dev_bind\os/os.h ****  * @note None.
 891:..\..\..\..\cloud\alicloud\src\services\dev_bind\os/os.h ****  */
 892:..\..\..\..\cloud\alicloud\src\services\dev_bind\os/os.h **** static inline int os_aes128_cbc_encrypt(
 893:..\..\..\..\cloud\alicloud\src\services\dev_bind\os/os.h ****             _IN_ p_aes128_t aes,
 894:..\..\..\..\cloud\alicloud\src\services\dev_bind\os/os.h ****             _IN_ const void *src,
 895:..\..\..\..\cloud\alicloud\src\services\dev_bind\os/os.h ****             _IN_ size_t blockNum,
 896:..\..\..\..\cloud\alicloud\src\services\dev_bind\os/os.h ****             _OUT_ void *dst)
 897:..\..\..\..\cloud\alicloud\src\services\dev_bind\os/os.h **** {
 898:..\..\..\..\cloud\alicloud\src\services\dev_bind\os/os.h ****     return platform_aes128_cbc_encrypt(aes, src, blockNum, dst);
 899:..\..\..\..\cloud\alicloud\src\services\dev_bind\os/os.h **** }
 900:..\..\..\..\cloud\alicloud\src\services\dev_bind\os/os.h **** 
 901:..\..\..\..\cloud\alicloud\src\services\dev_bind\os/os.h **** /**
 902:..\..\..\..\cloud\alicloud\src\services\dev_bind\os/os.h ****  * @brief encrypt data with aes (cfb/128bit key).
 903:..\..\..\..\cloud\alicloud\src\services\dev_bind\os/os.h ****  *
 904:..\..\..\..\cloud\alicloud\src\services\dev_bind\os/os.h ****  * @param[in] aes: AES handler
 905:..\..\..\..\cloud\alicloud\src\services\dev_bind\os/os.h ****  * @param[in] src: plain data
 906:..\..\..\..\cloud\alicloud\src\services\dev_bind\os/os.h ****  * @param[in] blockNum: plain data number of 16 bytes size
 907:..\..\..\..\cloud\alicloud\src\services\dev_bind\os/os.h ****  * @param[out] dst: cipher data
 908:..\..\..\..\cloud\alicloud\src\services\dev_bind\os/os.h ****  * @return
 909:..\..\..\..\cloud\alicloud\src\services\dev_bind\os/os.h ****    @verbatim
 910:..\..\..\..\cloud\alicloud\src\services\dev_bind\os/os.h ****      = 0: succeeded
 911:..\..\..\..\cloud\alicloud\src\services\dev_bind\os/os.h ****      = -1: failed
 912:..\..\..\..\cloud\alicloud\src\services\dev_bind\os/os.h ****    @endverbatim
 913:..\..\..\..\cloud\alicloud\src\services\dev_bind\os/os.h ****  * @see None.
 914:..\..\..\..\cloud\alicloud\src\services\dev_bind\os/os.h ****  * @note None.
 915:..\..\..\..\cloud\alicloud\src\services\dev_bind\os/os.h ****  */
 916:..\..\..\..\cloud\alicloud\src\services\dev_bind\os/os.h **** static inline int os_aes128_cfb_encrypt(
 917:..\..\..\..\cloud\alicloud\src\services\dev_bind\os/os.h ****             _IN_ p_aes128_t aes,
 918:..\..\..\..\cloud\alicloud\src\services\dev_bind\os/os.h ****             _IN_ const void *src,
 919:..\..\..\..\cloud\alicloud\src\services\dev_bind\os/os.h ****             _IN_ size_t blockNum,
 920:..\..\..\..\cloud\alicloud\src\services\dev_bind\os/os.h ****             _OUT_ void *dst)
 921:..\..\..\..\cloud\alicloud\src\services\dev_bind\os/os.h **** {
 922:..\..\..\..\cloud\alicloud\src\services\dev_bind\os/os.h ****     return platform_aes128_cfb_encrypt(aes, src, blockNum, dst);
 923:..\..\..\..\cloud\alicloud\src\services\dev_bind\os/os.h **** }
 924:..\..\..\..\cloud\alicloud\src\services\dev_bind\os/os.h **** 
 925:..\..\..\..\cloud\alicloud\src\services\dev_bind\os/os.h **** /**
 926:..\..\..\..\cloud\alicloud\src\services\dev_bind\os/os.h ****  * @brief decrypt data with aes (cbc/128bit key).
 927:..\..\..\..\cloud\alicloud\src\services\dev_bind\os/os.h ****  *
 928:..\..\..\..\cloud\alicloud\src\services\dev_bind\os/os.h ****  * @param[in] aes: AES handler
 929:..\..\..\..\cloud\alicloud\src\services\dev_bind\os/os.h ****  * @param[in] src: cipher data
 930:..\..\..\..\cloud\alicloud\src\services\dev_bind\os/os.h ****  * @param[in] blockNum: plain data number of 16 bytes size
 931:..\..\..\..\cloud\alicloud\src\services\dev_bind\os/os.h ****  * @param[out] dst: plain data
 932:..\..\..\..\cloud\alicloud\src\services\dev_bind\os/os.h ****  * @return
 933:..\..\..\..\cloud\alicloud\src\services\dev_bind\os/os.h ****    @verbatim
 934:..\..\..\..\cloud\alicloud\src\services\dev_bind\os/os.h ****      = 0: succeeded
 935:..\..\..\..\cloud\alicloud\src\services\dev_bind\os/os.h ****      = -1: failed
 936:..\..\..\..\cloud\alicloud\src\services\dev_bind\os/os.h ****    @endverbatim
 937:..\..\..\..\cloud\alicloud\src\services\dev_bind\os/os.h ****  * @see None.
 938:..\..\..\..\cloud\alicloud\src\services\dev_bind\os/os.h ****  * @note None.
 939:..\..\..\..\cloud\alicloud\src\services\dev_bind\os/os.h ****  */
 940:..\..\..\..\cloud\alicloud\src\services\dev_bind\os/os.h **** static inline int os_aes128_cbc_decrypt(
 941:..\..\..\..\cloud\alicloud\src\services\dev_bind\os/os.h ****             _IN_ p_aes128_t aes,
 942:..\..\..\..\cloud\alicloud\src\services\dev_bind\os/os.h ****             _IN_ const void *src,
 943:..\..\..\..\cloud\alicloud\src\services\dev_bind\os/os.h ****             _IN_ size_t blockNum,
 944:..\..\..\..\cloud\alicloud\src\services\dev_bind\os/os.h ****             _OUT_ void *dst)
 945:..\..\..\..\cloud\alicloud\src\services\dev_bind\os/os.h **** {
 946:..\..\..\..\cloud\alicloud\src\services\dev_bind\os/os.h ****     return platform_aes128_cbc_decrypt(aes, src, blockNum, dst);
 947:..\..\..\..\cloud\alicloud\src\services\dev_bind\os/os.h **** }
 948:..\..\..\..\cloud\alicloud\src\services\dev_bind\os/os.h **** 
 949:..\..\..\..\cloud\alicloud\src\services\dev_bind\os/os.h **** /**
 950:..\..\..\..\cloud\alicloud\src\services\dev_bind\os/os.h ****  * @brief decrypt data with aes (cfb/128bit key).
 951:..\..\..\..\cloud\alicloud\src\services\dev_bind\os/os.h ****  *
 952:..\..\..\..\cloud\alicloud\src\services\dev_bind\os/os.h ****  * @param[in] aes: AES handler
 953:..\..\..\..\cloud\alicloud\src\services\dev_bind\os/os.h ****  * @param[in] src: cipher data
 954:..\..\..\..\cloud\alicloud\src\services\dev_bind\os/os.h ****  * @param[in] blockNum: plain data number of 16 bytes size
 955:..\..\..\..\cloud\alicloud\src\services\dev_bind\os/os.h ****  * @param[out] dst: plain data
 956:..\..\..\..\cloud\alicloud\src\services\dev_bind\os/os.h ****  * @return
 957:..\..\..\..\cloud\alicloud\src\services\dev_bind\os/os.h ****    @verbatim
 958:..\..\..\..\cloud\alicloud\src\services\dev_bind\os/os.h ****      = 0: succeeded
 959:..\..\..\..\cloud\alicloud\src\services\dev_bind\os/os.h ****      = -1: failed
 960:..\..\..\..\cloud\alicloud\src\services\dev_bind\os/os.h ****    @endverbatim
 961:..\..\..\..\cloud\alicloud\src\services\dev_bind\os/os.h ****  * @see None.
 962:..\..\..\..\cloud\alicloud\src\services\dev_bind\os/os.h ****  * @note None.
 963:..\..\..\..\cloud\alicloud\src\services\dev_bind\os/os.h ****  */
 964:..\..\..\..\cloud\alicloud\src\services\dev_bind\os/os.h **** static inline int os_aes128_cfb_decrypt(
 965:..\..\..\..\cloud\alicloud\src\services\dev_bind\os/os.h ****             _IN_ p_aes128_t aes,
 966:..\..\..\..\cloud\alicloud\src\services\dev_bind\os/os.h ****             _IN_ const void *src,
 967:..\..\..\..\cloud\alicloud\src\services\dev_bind\os/os.h ****             _IN_ size_t blockNum,
 968:..\..\..\..\cloud\alicloud\src\services\dev_bind\os/os.h ****             _OUT_ void *dst)
 969:..\..\..\..\cloud\alicloud\src\services\dev_bind\os/os.h **** {
 970:..\..\..\..\cloud\alicloud\src\services\dev_bind\os/os.h ****     return platform_aes128_cfb_decrypt(aes, src, blockNum, dst);
 971:..\..\..\..\cloud\alicloud\src\services\dev_bind\os/os.h **** }
 972:..\..\..\..\cloud\alicloud\src\services\dev_bind\os/os.h **** 
 973:..\..\..\..\cloud\alicloud\src\services\dev_bind\os/os.h **** /**
 974:..\..\..\..\cloud\alicloud\src\services\dev_bind\os/os.h ****  * @brief get the information of the connected AP.
 975:..\..\..\..\cloud\alicloud\src\services\dev_bind\os/os.h ****  *
 976:..\..\..\..\cloud\alicloud\src\services\dev_bind\os/os.h ****  * @param[out] ssid: array to store ap ssid. It will be null if ssid is not required.
 977:..\..\..\..\cloud\alicloud\src\services\dev_bind\os/os.h ****  * @param[out] passwd: array to store ap password. It will be null if ap password is not required.
 978:..\..\..\..\cloud\alicloud\src\services\dev_bind\os/os.h ****  * @param[out] bssid: array to store ap bssid. It will be null if bssid is not required.
 979:..\..\..\..\cloud\alicloud\src\services\dev_bind\os/os.h **** * @return
 980:..\..\..\..\cloud\alicloud\src\services\dev_bind\os/os.h ****    @verbatim
 981:..\..\..\..\cloud\alicloud\src\services\dev_bind\os/os.h ****      = 0: succeeded
 982:..\..\..\..\cloud\alicloud\src\services\dev_bind\os/os.h ****      = -1: failed
 983:..\..\..\..\cloud\alicloud\src\services\dev_bind\os/os.h ****    @endverbatim
 984:..\..\..\..\cloud\alicloud\src\services\dev_bind\os/os.h ****  * @see None.
 985:..\..\..\..\cloud\alicloud\src\services\dev_bind\os/os.h ****  * @note None.
 986:..\..\..\..\cloud\alicloud\src\services\dev_bind\os/os.h ****  */
 987:..\..\..\..\cloud\alicloud\src\services\dev_bind\os/os.h **** static inline int os_wifi_get_ap_info(
 988:..\..\..\..\cloud\alicloud\src\services\dev_bind\os/os.h ****             _OUT_ char ssid[PLATFORM_MAX_SSID_LEN],
 989:..\..\..\..\cloud\alicloud\src\services\dev_bind\os/os.h ****             _OUT_ char passwd[PLATFORM_MAX_PASSWD_LEN],
 990:..\..\..\..\cloud\alicloud\src\services\dev_bind\os/os.h ****             _OUT_ uint8_t bssid[ETH_ALEN])
 991:..\..\..\..\cloud\alicloud\src\services\dev_bind\os/os.h **** {
 992:..\..\..\..\cloud\alicloud\src\services\dev_bind\os/os.h ****     return platform_wifi_get_ap_info(ssid, passwd, bssid);
 993:..\..\..\..\cloud\alicloud\src\services\dev_bind\os/os.h **** }
 994:..\..\..\..\cloud\alicloud\src\services\dev_bind\os/os.h **** 
 995:..\..\..\..\cloud\alicloud\src\services\dev_bind\os/os.h **** /** @} */// end of os_awss
 996:..\..\..\..\cloud\alicloud\src\services\dev_bind\os/os.h **** 
 997:..\..\..\..\cloud\alicloud\src\services\dev_bind\os/os.h **** /** @defgroup group_os_product product
 998:..\..\..\..\cloud\alicloud\src\services\dev_bind\os/os.h ****  *  @{
 999:..\..\..\..\cloud\alicloud\src\services\dev_bind\os/os.h ****  */
1000:..\..\..\..\cloud\alicloud\src\services\dev_bind\os/os.h **** 
1001:..\..\..\..\cloud\alicloud\src\services\dev_bind\os/os.h **** /**
1002:..\..\..\..\cloud\alicloud\src\services\dev_bind\os/os.h ****  * @brief Get product key string.
1003:..\..\..\..\cloud\alicloud\src\services\dev_bind\os/os.h ****  *
1004:..\..\..\..\cloud\alicloud\src\services\dev_bind\os/os.h ****  * @param[out] key_str @n Buffer for using to store key string.
1005:..\..\..\..\cloud\alicloud\src\services\dev_bind\os/os.h ****  * @return A pointer to the start address of key_str.
1006:..\..\..\..\cloud\alicloud\src\services\dev_bind\os/os.h ****  * @see None.
1007:..\..\..\..\cloud\alicloud\src\services\dev_bind\os/os.h ****  * @note None.
1008:..\..\..\..\cloud\alicloud\src\services\dev_bind\os/os.h ****  */
1009:..\..\..\..\cloud\alicloud\src\services\dev_bind\os/os.h **** static inline int os_product_get_key(char key_str[OS_PRODUCT_KEY_LEN])
1010:..\..\..\..\cloud\alicloud\src\services\dev_bind\os/os.h **** {
1011:..\..\..\..\cloud\alicloud\src\services\dev_bind\os/os.h ****     return product_get_key(key_str);
 187              		.loc 1 1011 5
 188              		.loc 1 1011 12 is_stmt 0
 189 0034 4A85     		mv	a0,s2
 190 0036 97000000 		call	HAL_GetProductKey
 190      E7800000 
 191              	.LVL25:
 192              	.LBE43:
 193              	.LBE42:
 184:C:/Users/stapi/OneDrive/Desktop/GD32VW553/V1_MQTT_OK/GD32VW55X_Wifi_BLE_SDK/GD32VW55x_RELEASE_V1.0.2/MSDK/cloud/alicloud/src/services/dev_bind\awss_packet.c **** 
 194              		.loc 2 184 5 is_stmt 1
 195              	.LBB44:
 196              	.LBB45:
1012:..\..\..\..\cloud\alicloud\src\services\dev_bind\os/os.h **** }
1013:..\..\..\..\cloud\alicloud\src\services\dev_bind\os/os.h **** 
1014:..\..\..\..\cloud\alicloud\src\services\dev_bind\os/os.h **** /**
1015:..\..\..\..\cloud\alicloud\src\services\dev_bind\os/os.h ****  * @brief Get product secret string.
1016:..\..\..\..\cloud\alicloud\src\services\dev_bind\os/os.h ****  *
1017:..\..\..\..\cloud\alicloud\src\services\dev_bind\os/os.h ****  * @param[out] secret_str @n Buffer for using to store secret string.
1018:..\..\..\..\cloud\alicloud\src\services\dev_bind\os/os.h ****  * @return A pointer to the start address of secret_str.
1019:..\..\..\..\cloud\alicloud\src\services\dev_bind\os/os.h ****  * @see None.
1020:..\..\..\..\cloud\alicloud\src\services\dev_bind\os/os.h ****  * @note None.
1021:..\..\..\..\cloud\alicloud\src\services\dev_bind\os/os.h ****  */
1022:..\..\..\..\cloud\alicloud\src\services\dev_bind\os/os.h **** static inline int os_product_get_secret(char secret_str[OS_PRODUCT_SECRET_LEN])
1023:..\..\..\..\cloud\alicloud\src\services\dev_bind\os/os.h **** {
1024:..\..\..\..\cloud\alicloud\src\services\dev_bind\os/os.h ****     return product_get_secret(secret_str);
1025:..\..\..\..\cloud\alicloud\src\services\dev_bind\os/os.h **** }
1026:..\..\..\..\cloud\alicloud\src\services\dev_bind\os/os.h **** 
1027:..\..\..\..\cloud\alicloud\src\services\dev_bind\os/os.h **** /**
1028:..\..\..\..\cloud\alicloud\src\services\dev_bind\os/os.h ****  * @brief Get device secret string.
1029:..\..\..\..\cloud\alicloud\src\services\dev_bind\os/os.h ****  *
1030:..\..\..\..\cloud\alicloud\src\services\dev_bind\os/os.h ****  * @param[out] secret_str @n Buffer for using to store secret string.
1031:..\..\..\..\cloud\alicloud\src\services\dev_bind\os/os.h ****  * @return A pointer to the start address of secret_str.
1032:..\..\..\..\cloud\alicloud\src\services\dev_bind\os/os.h ****  * @see None.
1033:..\..\..\..\cloud\alicloud\src\services\dev_bind\os/os.h ****  * @note None.
1034:..\..\..\..\cloud\alicloud\src\services\dev_bind\os/os.h ****  */
1035:..\..\..\..\cloud\alicloud\src\services\dev_bind\os/os.h **** static inline int os_device_get_secret(char secret_str[OS_DEVICE_SECRET_LEN])
1036:..\..\..\..\cloud\alicloud\src\services\dev_bind\os/os.h **** {
1037:..\..\..\..\cloud\alicloud\src\services\dev_bind\os/os.h ****     return device_get_secret(secret_str);
1038:..\..\..\..\cloud\alicloud\src\services\dev_bind\os/os.h **** }
1039:..\..\..\..\cloud\alicloud\src\services\dev_bind\os/os.h **** 
1040:..\..\..\..\cloud\alicloud\src\services\dev_bind\os/os.h **** /**
1041:..\..\..\..\cloud\alicloud\src\services\dev_bind\os/os.h ****  * @brief Get device key string.
1042:..\..\..\..\cloud\alicloud\src\services\dev_bind\os/os.h ****  *
1043:..\..\..\..\cloud\alicloud\src\services\dev_bind\os/os.h ****  * @param[out] key_str @n Buffer for using to store debug key string.
1044:..\..\..\..\cloud\alicloud\src\services\dev_bind\os/os.h ****  * @return A pointer to the start address of key_str.
1045:..\..\..\..\cloud\alicloud\src\services\dev_bind\os/os.h ****  * @see None.
1046:..\..\..\..\cloud\alicloud\src\services\dev_bind\os/os.h ****  * @note None.
1047:..\..\..\..\cloud\alicloud\src\services\dev_bind\os/os.h ****  */
1048:..\..\..\..\cloud\alicloud\src\services\dev_bind\os/os.h **** static inline int os_device_get_name(char key_str[OS_DEVICE_NAME_LEN])
1049:..\..\..\..\cloud\alicloud\src\services\dev_bind\os/os.h **** {
1050:..\..\..\..\cloud\alicloud\src\services\dev_bind\os/os.h ****     return device_get_name(key_str);
 197              		.loc 1 1050 5
 198              		.loc 1 1050 12 is_stmt 0
 199 003e 2685     		mv	a0,s1
 200 0040 97000000 		call	HAL_GetDeviceName
 200      E7800000 
 201              	.LVL26:
 202              	.LBE45:
 203              	.LBE44:
 186:C:/Users/stapi/OneDrive/Desktop/GD32VW553/V1_MQTT_OK/GD32VW55X_Wifi_BLE_SDK/GD32VW55x_RELEASE_V1.0.2/MSDK/cloud/alicloud/src/services/dev_bind\awss_packet.c ****     dev_name_len = strlen(dev_name);
 204              		.loc 2 186 5 is_stmt 1
 186:C:/Users/stapi/OneDrive/Desktop/GD32VW553/V1_MQTT_OK/GD32VW55X_Wifi_BLE_SDK/GD32VW55x_RELEASE_V1.0.2/MSDK/cloud/alicloud/src/services/dev_bind\awss_packet.c ****     dev_name_len = strlen(dev_name);
 205              		.loc 2 186 14 is_stmt 0
 206 0048 4A85     		mv	a0,s2
 207 004a 97000000 		call	strlen
 207      E7800000 
 208              	.LVL27:
 209 0052 2A8A     		mv	s4,a0
 210              	.LVL28:
 187:C:/Users/stapi/OneDrive/Desktop/GD32VW553/V1_MQTT_OK/GD32VW55X_Wifi_BLE_SDK/GD32VW55x_RELEASE_V1.0.2/MSDK/cloud/alicloud/src/services/dev_bind\awss_packet.c **** 
 211              		.loc 2 187 5 is_stmt 1
 187:C:/Users/stapi/OneDrive/Desktop/GD32VW553/V1_MQTT_OK/GD32VW55X_Wifi_BLE_SDK/GD32VW55x_RELEASE_V1.0.2/MSDK/cloud/alicloud/src/services/dev_bind\awss_packet.c **** 
 212              		.loc 2 187 20 is_stmt 0
 213 0054 2685     		mv	a0,s1
 214              	.LVL29:
 215 0056 97000000 		call	strlen
 215      E7800000 
 216              	.LVL30:
 190:C:/Users/stapi/OneDrive/Desktop/GD32VW553/V1_MQTT_OK/GD32VW55X_Wifi_BLE_SDK/GD32VW55x_RELEASE_V1.0.2/MSDK/cloud/alicloud/src/services/dev_bind\awss_packet.c ****         goto build_sign_src_err;
 217              		.loc 2 190 8
 218 005e 03A70900 		lw	a4,0(s3)
 189:C:/Users/stapi/OneDrive/Desktop/GD32VW553/V1_MQTT_OK/GD32VW55X_Wifi_BLE_SDK/GD32VW55x_RELEASE_V1.0.2/MSDK/cloud/alicloud/src/services/dev_bind\awss_packet.c ****     if (*sign_src_len < text_len) {
 219              		.loc 2 189 31
 220 0062 130B0501 		addi	s6,a0,16
 189:C:/Users/stapi/OneDrive/Desktop/GD32VW553/V1_MQTT_OK/GD32VW55X_Wifi_BLE_SDK/GD32VW55x_RELEASE_V1.0.2/MSDK/cloud/alicloud/src/services/dev_bind\awss_packet.c ****     if (*sign_src_len < text_len) {
 221              		.loc 2 189 14
 222 0066 B3074B01 		add	a5,s6,s4
 187:C:/Users/stapi/OneDrive/Desktop/GD32VW553/V1_MQTT_OK/GD32VW55X_Wifi_BLE_SDK/GD32VW55x_RELEASE_V1.0.2/MSDK/cloud/alicloud/src/services/dev_bind\awss_packet.c **** 
 223              		.loc 2 187 20
 224 006a AA8A     		mv	s5,a0
 225              	.LVL31:
 189:C:/Users/stapi/OneDrive/Desktop/GD32VW553/V1_MQTT_OK/GD32VW55X_Wifi_BLE_SDK/GD32VW55x_RELEASE_V1.0.2/MSDK/cloud/alicloud/src/services/dev_bind\awss_packet.c ****     if (*sign_src_len < text_len) {
 226              		.loc 2 189 5 is_stmt 1
 190:C:/Users/stapi/OneDrive/Desktop/GD32VW553/V1_MQTT_OK/GD32VW55X_Wifi_BLE_SDK/GD32VW55x_RELEASE_V1.0.2/MSDK/cloud/alicloud/src/services/dev_bind\awss_packet.c ****         goto build_sign_src_err;
 227              		.loc 2 190 5
 190:C:/Users/stapi/OneDrive/Desktop/GD32VW553/V1_MQTT_OK/GD32VW55X_Wifi_BLE_SDK/GD32VW55x_RELEASE_V1.0.2/MSDK/cloud/alicloud/src/services/dev_bind\awss_packet.c ****         goto build_sign_src_err;
 228              		.loc 2 190 8 is_stmt 0
 229 006c 634DF704 		blt	a4,a5,.L18
 194:C:/Users/stapi/OneDrive/Desktop/GD32VW553/V1_MQTT_OK/GD32VW55X_Wifi_BLE_SDK/GD32VW55x_RELEASE_V1.0.2/MSDK/cloud/alicloud/src/services/dev_bind\awss_packet.c **** 
 230              		.loc 2 194 5 is_stmt 1
 196:C:/Users/stapi/OneDrive/Desktop/GD32VW553/V1_MQTT_OK/GD32VW55X_Wifi_BLE_SDK/GD32VW55x_RELEASE_V1.0.2/MSDK/cloud/alicloud/src/services/dev_bind\awss_packet.c ****     memcpy(sign_src + RANDOM_MAX_LEN, dev_name, dev_name_len);
 231              		.loc 2 196 5 is_stmt 0
 232 0070 B7050000 		lui	a1,%hi(g_aes_random)
 194:C:/Users/stapi/OneDrive/Desktop/GD32VW553/V1_MQTT_OK/GD32VW55X_Wifi_BLE_SDK/GD32VW55x_RELEASE_V1.0.2/MSDK/cloud/alicloud/src/services/dev_bind\awss_packet.c **** 
 233              		.loc 2 194 19
 234 0074 23A0F900 		sw	a5,0(s3)
 196:C:/Users/stapi/OneDrive/Desktop/GD32VW553/V1_MQTT_OK/GD32VW55X_Wifi_BLE_SDK/GD32VW55x_RELEASE_V1.0.2/MSDK/cloud/alicloud/src/services/dev_bind\awss_packet.c ****     memcpy(sign_src + RANDOM_MAX_LEN, dev_name, dev_name_len);
 235              		.loc 2 196 5 is_stmt 1
 236 0078 4146     		li	a2,16
 237 007a 93850500 		addi	a1,a1,%lo(g_aes_random)
 238 007e 2285     		mv	a0,s0
 239              	.LVL32:
 240 0080 97000000 		call	memcpy
 240      E7800000 
 241              	.LVL33:
 197:C:/Users/stapi/OneDrive/Desktop/GD32VW553/V1_MQTT_OK/GD32VW55X_Wifi_BLE_SDK/GD32VW55x_RELEASE_V1.0.2/MSDK/cloud/alicloud/src/services/dev_bind\awss_packet.c ****     memcpy(sign_src + RANDOM_MAX_LEN + dev_name_len, pk, pk_len);
 242              		.loc 2 197 5
 243 0088 5686     		mv	a2,s5
 244 008a A685     		mv	a1,s1
 245 008c 13050401 		addi	a0,s0,16
 246 0090 97000000 		call	memcpy
 246      E7800000 
 247              	.LVL34:
 198:C:/Users/stapi/OneDrive/Desktop/GD32VW553/V1_MQTT_OK/GD32VW55X_Wifi_BLE_SDK/GD32VW55x_RELEASE_V1.0.2/MSDK/cloud/alicloud/src/services/dev_bind\awss_packet.c **** 
 248              		.loc 2 198 5
 249 0098 5286     		mv	a2,s4
 250 009a CA85     		mv	a1,s2
 251 009c 33056401 		add	a0,s0,s6
 252 00a0 97000000 		call	memcpy
 252      E7800000 
 253              	.LVL35:
 200:C:/Users/stapi/OneDrive/Desktop/GD32VW553/V1_MQTT_OK/GD32VW55X_Wifi_BLE_SDK/GD32VW55x_RELEASE_V1.0.2/MSDK/cloud/alicloud/src/services/dev_bind\awss_packet.c ****     os_free(dev_name);
 254              		.loc 2 200 5
 255              	.LBB46:
 256              	.LBB47:
 394:..\..\..\..\cloud\alicloud\src\services\dev_bind\os/os.h **** }
 257              		.loc 1 394 5
 258 00a8 4A85     		mv	a0,s2
 259 00aa 97000000 		call	HAL_Free
 259      E7800000 
 260              	.LVL36:
 261              	.LBE47:
 262              	.LBE46:
 201:C:/Users/stapi/OneDrive/Desktop/GD32VW553/V1_MQTT_OK/GD32VW55X_Wifi_BLE_SDK/GD32VW55x_RELEASE_V1.0.2/MSDK/cloud/alicloud/src/services/dev_bind\awss_packet.c **** 
 263              		.loc 2 201 5
 264              	.LBB48:
 265              	.LBB49:
 394:..\..\..\..\cloud\alicloud\src\services\dev_bind\os/os.h **** }
 266              		.loc 1 394 5
 267 00b2 2685     		mv	a0,s1
 268 00b4 97000000 		call	HAL_Free
 268      E7800000 
 269              	.LVL37:
 270              	.LBE49:
 271              	.LBE48:
 203:C:/Users/stapi/OneDrive/Desktop/GD32VW553/V1_MQTT_OK/GD32VW55X_Wifi_BLE_SDK/GD32VW55x_RELEASE_V1.0.2/MSDK/cloud/alicloud/src/services/dev_bind\awss_packet.c **** 
 272              		.loc 2 203 5
 273              	.L31:
 213:C:/Users/stapi/OneDrive/Desktop/GD32VW553/V1_MQTT_OK/GD32VW55X_Wifi_BLE_SDK/GD32VW55x_RELEASE_V1.0.2/MSDK/cloud/alicloud/src/services/dev_bind\awss_packet.c **** }
 274              		.loc 2 213 1 is_stmt 0
 275 00bc 2285     		mv	a0,s0
 276 00be 17030000 		tail	__riscv_restore_7
 276      67000300 
 277              		.cfi_remember_state
 278              		.cfi_restore 22
 279              		.cfi_restore 21
 280              		.cfi_restore 20
 281              		.cfi_restore 19
 282              		.cfi_restore 18
 283              		.cfi_restore 9
 284              		.cfi_restore 8
 285              		.cfi_restore 1
 286              		.cfi_def_cfa_offset 0
 287              	.LVL38:
 288              	.L18:
 289              		.cfi_restore_state
 206:C:/Users/stapi/OneDrive/Desktop/GD32VW553/V1_MQTT_OK/GD32VW55X_Wifi_BLE_SDK/GD32VW55x_RELEASE_V1.0.2/MSDK/cloud/alicloud/src/services/dev_bind\awss_packet.c ****         os_free(pk);
 290              		.loc 2 206 5 is_stmt 1
 207:C:/Users/stapi/OneDrive/Desktop/GD32VW553/V1_MQTT_OK/GD32VW55X_Wifi_BLE_SDK/GD32VW55x_RELEASE_V1.0.2/MSDK/cloud/alicloud/src/services/dev_bind\awss_packet.c ****     }
 291              		.loc 2 207 9
 292              	.LBB50:
 293              	.LBB51:
 394:..\..\..\..\cloud\alicloud\src\services\dev_bind\os/os.h **** }
 294              		.loc 1 394 5
 295 00c6 4A85     		mv	a0,s2
 296 00c8 97000000 		call	HAL_Free
 296      E7800000 
 297              	.LVL39:
 298              	.L17:
 299              	.LBE51:
 300              	.LBE50:
 209:C:/Users/stapi/OneDrive/Desktop/GD32VW553/V1_MQTT_OK/GD32VW55X_Wifi_BLE_SDK/GD32VW55x_RELEASE_V1.0.2/MSDK/cloud/alicloud/src/services/dev_bind\awss_packet.c ****         os_free(dev_name);
 301              		.loc 2 209 5
 209:C:/Users/stapi/OneDrive/Desktop/GD32VW553/V1_MQTT_OK/GD32VW55X_Wifi_BLE_SDK/GD32VW55x_RELEASE_V1.0.2/MSDK/cloud/alicloud/src/services/dev_bind\awss_packet.c ****         os_free(dev_name);
 302              		.loc 2 209 8 is_stmt 0
 303 00d0 8DDC     		beq	s1,zero,.L33
 210:C:/Users/stapi/OneDrive/Desktop/GD32VW553/V1_MQTT_OK/GD32VW55X_Wifi_BLE_SDK/GD32VW55x_RELEASE_V1.0.2/MSDK/cloud/alicloud/src/services/dev_bind\awss_packet.c ****     }
 304              		.loc 2 210 9 is_stmt 1
 305              	.LVL40:
 306              	.LBB52:
 307              	.LBB41:
 394:..\..\..\..\cloud\alicloud\src\services\dev_bind\os/os.h **** }
 308              		.loc 1 394 5
 309 00d2 2685     		mv	a0,s1
 310 00d4 97000000 		call	HAL_Free
 310      E7800000 
 311              	.LVL41:
 312 00dc 3DB7     		j	.L33
 313              	.LBE41:
 314              	.LBE52:
 315              		.cfi_endproc
 316              	.LFE67:
 318              		.section	.rodata.awss_build_dev_info.str1.4,"aMS",@progbits,1
 319              		.align	2
 320              	.LC0:
 321 0000 6275696C 		.string	"build dev info input null!"
 321      64206465 
 321      7620696E 
 321      666F2069 
 321      6E707574 
 322 001b 00       		.align	2
 323              	.LC1:
 324 001c 6275696C 		.string	"build dev info alloc fail"
 324      64206465 
 324      7620696E 
 324      666F2061 
 324      6C6C6F63 
 325 0036 0000     		.align	2
 326              	.LC2:
 327 0038 46572056 		.string	"FW Version get failed"
 327      65727369 
 327      6F6E2067 
 327      65742066 
 327      61696C65 
 328 004e 0000     		.align	2
 329              	.LC3:
 330 0050 7B22736D 		.string	"{\"smartconfig\":\"2.0\",\"zconfig\":\"2.0\",\"router\":\"2.0\",\"ap\":\"2.0\",\"softap\"
 330      61727463 
 330      6F6E6669 
 330      67223A22 
 330      322E3022 
 331 009f 00       		.align	2
 332              	.LC4:
 333 00a0 22617773 		.string	"\"awssVer\":%s,\"productKey\":\"%s\",\"deviceName\":\"%s\",\"mac\":\"%s\",\"ip\":\"%s\",\
 333      73566572 
 333      223A2573 
 333      2C227072 
 333      6F647563 
 334              		.align	2
 335              	.LC5:
 336 0124 257300   		.string	"%s"
 337 0127 00       		.align	2
 338              	.LC6:
 339 0128 2C22746F 		.string	",\"token\":\"%s\",\"tokenType\":%d,\"remainTime\":%d,\"type\":%d"
 339      6B656E22 
 339      3A222573 
 339      222C2274 
 339      6F6B656E 
 340 015f 00       		.align	2
 341              	.LC7:
 342 0160 2C227479 		.string	",\"type\":%d"
 342      7065223A 
 342      256400
 343 016b 00       		.align	2
 344              	.LC8:
 345 016c 2C227261 		.string	",\"random\":\"%s\",\"signMethod\":%d,\"sign\":\"%s\""
 345      6E646F6D 
 345      223A2225 
 345      73222C22 
 345      7369676E 
 346              		.section	.text.awss_build_dev_info,"ax",@progbits
 347              		.align	1
 348              		.globl	awss_build_dev_info
 350              	awss_build_dev_info:
 351              	.LFB66:
 102:C:/Users/stapi/OneDrive/Desktop/GD32VW553/V1_MQTT_OK/GD32VW55X_Wifi_BLE_SDK/GD32VW55x_RELEASE_V1.0.2/MSDK/cloud/alicloud/src/services/dev_bind\awss_packet.c ****     int len = 0;
 352              		.loc 2 102 1
 353              		.cfi_startproc
 354              	.LVL42:
 355 0000 17030000 		call	t0,__riscv_save_7
 355      E7020300 
 356              		.cfi_offset 22, -32
 357              		.cfi_offset 21, -28
 358              		.cfi_offset 20, -24
 359              		.cfi_offset 19, -20
 360              		.cfi_offset 18, -16
 361              		.cfi_offset 9, -12
 362              		.cfi_offset 8, -8
 363              		.cfi_offset 1, -4
 364              		.cfi_def_cfa_offset 32
 103:C:/Users/stapi/OneDrive/Desktop/GD32VW553/V1_MQTT_OK/GD32VW55X_Wifi_BLE_SDK/GD32VW55x_RELEASE_V1.0.2/MSDK/cloud/alicloud/src/services/dev_bind\awss_packet.c ****     char *buf = NULL;
 365              		.loc 2 103 5
 366              	.LVL43:
 104:C:/Users/stapi/OneDrive/Desktop/GD32VW553/V1_MQTT_OK/GD32VW55X_Wifi_BLE_SDK/GD32VW55x_RELEASE_V1.0.2/MSDK/cloud/alicloud/src/services/dev_bind\awss_packet.c **** 
 367              		.loc 2 104 5
 106:C:/Users/stapi/OneDrive/Desktop/GD32VW553/V1_MQTT_OK/GD32VW55X_Wifi_BLE_SDK/GD32VW55x_RELEASE_V1.0.2/MSDK/cloud/alicloud/src/services/dev_bind\awss_packet.c ****         dump_awss_status(STATE_USER_INPUT_NULL_POINTER, "build dev info input null!");
 368              		.loc 2 106 5
 102:C:/Users/stapi/OneDrive/Desktop/GD32VW553/V1_MQTT_OK/GD32VW55X_Wifi_BLE_SDK/GD32VW55x_RELEASE_V1.0.2/MSDK/cloud/alicloud/src/services/dev_bind\awss_packet.c ****     int len = 0;
 369              		.loc 2 102 1 is_stmt 0
 370 0008 6D71     		addi	sp,sp,-272
 371              		.cfi_def_cfa_offset 304
 106:C:/Users/stapi/OneDrive/Desktop/GD32VW553/V1_MQTT_OK/GD32VW55X_Wifi_BLE_SDK/GD32VW55x_RELEASE_V1.0.2/MSDK/cloud/alicloud/src/services/dev_bind\awss_packet.c ****         dump_awss_status(STATE_USER_INPUT_NULL_POINTER, "build dev info input null!");
 372              		.loc 2 106 8
 373 000a 81C5     		beq	a1,zero,.L35
 374 000c 3284     		mv	s0,a2
 106:C:/Users/stapi/OneDrive/Desktop/GD32VW553/V1_MQTT_OK/GD32VW55X_Wifi_BLE_SDK/GD32VW55x_RELEASE_V1.0.2/MSDK/cloud/alicloud/src/services/dev_bind\awss_packet.c ****         dump_awss_status(STATE_USER_INPUT_NULL_POINTER, "build dev info input null!");
 375              		.loc 2 106 26 discriminator 1
 376 000e 6344C002 		bgt	a2,zero,.L36
 377              	.L35:
 107:C:/Users/stapi/OneDrive/Desktop/GD32VW553/V1_MQTT_OK/GD32VW55X_Wifi_BLE_SDK/GD32VW55x_RELEASE_V1.0.2/MSDK/cloud/alicloud/src/services/dev_bind\awss_packet.c ****         return NULL;
 378              		.loc 2 107 9 is_stmt 1
 379 0012 37060000 		lui	a2,%hi(.LC0)
 380              	.LVL44:
 381 0016 13060600 		addi	a2,a2,%lo(.LC0)
 382 001a 9305F0EF 		li	a1,-257
 383              	.LVL45:
 384              	.L52:
 113:C:/Users/stapi/OneDrive/Desktop/GD32VW553/V1_MQTT_OK/GD32VW55X_Wifi_BLE_SDK/GD32VW55x_RELEASE_V1.0.2/MSDK/cloud/alicloud/src/services/dev_bind\awss_packet.c ****         return NULL;
 385              		.loc 2 113 9 is_stmt 0
 386 001e 6D45     		li	a0,27
 387 0020 97000000 		call	iotx_state_event
 387      E7800000 
 388              	.LVL46:
 114:C:/Users/stapi/OneDrive/Desktop/GD32VW553/V1_MQTT_OK/GD32VW55X_Wifi_BLE_SDK/GD32VW55x_RELEASE_V1.0.2/MSDK/cloud/alicloud/src/services/dev_bind\awss_packet.c ****     }
 389              		.loc 2 114 9 is_stmt 1
 114:C:/Users/stapi/OneDrive/Desktop/GD32VW553/V1_MQTT_OK/GD32VW55X_Wifi_BLE_SDK/GD32VW55x_RELEASE_V1.0.2/MSDK/cloud/alicloud/src/services/dev_bind\awss_packet.c ****     }
 390              		.loc 2 114 16 is_stmt 0
 391 0028 8144     		li	s1,0
 392              	.LVL47:
 393              	.L37:
 165:C:/Users/stapi/OneDrive/Desktop/GD32VW553/V1_MQTT_OK/GD32VW55X_Wifi_BLE_SDK/GD32VW55x_RELEASE_V1.0.2/MSDK/cloud/alicloud/src/services/dev_bind\awss_packet.c **** 
 394              		.loc 2 165 1
 395 002a 2685     		mv	a0,s1
 396 002c 5161     		addi	sp,sp,272
 397              		.cfi_remember_state
 398              		.cfi_def_cfa_offset 0
 399 002e 17030000 		tail	__riscv_restore_7
 399      67000300 
 400              		.cfi_restore 22
 401              		.cfi_restore 21
 402              		.cfi_restore 20
 403              		.cfi_restore 19
 404              		.cfi_restore 18
 405              		.cfi_restore 9
 406              		.cfi_restore 8
 407              		.cfi_restore 1
 408              		.cfi_def_cfa_offset -32
 409              	.LVL48:
 410              	.L36:
 411              		.cfi_restore_state
 412 0036 AA8A     		mv	s5,a0
 111:C:/Users/stapi/OneDrive/Desktop/GD32VW553/V1_MQTT_OK/GD32VW55X_Wifi_BLE_SDK/GD32VW55x_RELEASE_V1.0.2/MSDK/cloud/alicloud/src/services/dev_bind\awss_packet.c ****     if (buf == NULL) {
 413              		.loc 2 111 11
 414 0038 13050024 		li	a0,576
 415              	.LVL49:
 416 003c AE84     		mv	s1,a1
 111:C:/Users/stapi/OneDrive/Desktop/GD32VW553/V1_MQTT_OK/GD32VW55X_Wifi_BLE_SDK/GD32VW55x_RELEASE_V1.0.2/MSDK/cloud/alicloud/src/services/dev_bind\awss_packet.c ****     if (buf == NULL) {
 417              		.loc 2 111 5 is_stmt 1
 111:C:/Users/stapi/OneDrive/Desktop/GD32VW553/V1_MQTT_OK/GD32VW55X_Wifi_BLE_SDK/GD32VW55x_RELEASE_V1.0.2/MSDK/cloud/alicloud/src/services/dev_bind\awss_packet.c ****     if (buf == NULL) {
 418              		.loc 2 111 11 is_stmt 0
 419 003e 97000000 		call	os_zalloc
 419      E7800000 
 420              	.LVL50:
 421 0046 2A8A     		mv	s4,a0
 422              	.LVL51:
 112:C:/Users/stapi/OneDrive/Desktop/GD32VW553/V1_MQTT_OK/GD32VW55X_Wifi_BLE_SDK/GD32VW55x_RELEASE_V1.0.2/MSDK/cloud/alicloud/src/services/dev_bind\awss_packet.c ****         dump_awss_status(STATE_SYS_DEPEND_MALLOC, "build dev info alloc fail");
 423              		.loc 2 112 5 is_stmt 1
 112:C:/Users/stapi/OneDrive/Desktop/GD32VW553/V1_MQTT_OK/GD32VW55X_Wifi_BLE_SDK/GD32VW55x_RELEASE_V1.0.2/MSDK/cloud/alicloud/src/services/dev_bind\awss_packet.c ****         dump_awss_status(STATE_SYS_DEPEND_MALLOC, "build dev info alloc fail");
 424              		.loc 2 112 8 is_stmt 0
 425 0048 01E9     		bne	a0,zero,.L38
 113:C:/Users/stapi/OneDrive/Desktop/GD32VW553/V1_MQTT_OK/GD32VW55X_Wifi_BLE_SDK/GD32VW55x_RELEASE_V1.0.2/MSDK/cloud/alicloud/src/services/dev_bind\awss_packet.c ****         return NULL;
 426              		.loc 2 113 9 is_stmt 1
 427 004a 37060000 		lui	a2,%hi(.LC1)
 428 004e 13060600 		addi	a2,a2,%lo(.LC1)
 429 0052 9305F0DF 		li	a1,-513
 430 0056 E1B7     		j	.L52
 431              	.L38:
 117:C:/Users/stapi/OneDrive/Desktop/GD32VW553/V1_MQTT_OK/GD32VW55X_Wifi_BLE_SDK/GD32VW55x_RELEASE_V1.0.2/MSDK/cloud/alicloud/src/services/dev_bind\awss_packet.c ****     os_free(buf);
 432              		.loc 2 117 5
 433              	.LBB74:
 434              	.LBB75:
  67:C:/Users/stapi/OneDrive/Desktop/GD32VW553/V1_MQTT_OK/GD32VW55X_Wifi_BLE_SDK/GD32VW55x_RELEASE_V1.0.2/MSDK/cloud/alicloud/src/services/dev_bind\awss_packet.c ****     int ret = 0;
 435              		.loc 2 67 10 is_stmt 0
 436 0058 1306D003 		li	a2,61
 437 005c 8145     		li	a1,0
 438 005e C801     		addi	a0,sp,196
 439              	.LVL52:
 440 0060 82C1     		sw	zero,192(sp)
 441 0062 97000000 		call	memset
 441      E7800000 
 442              	.LVL53:
  76:C:/Users/stapi/OneDrive/Desktop/GD32VW553/V1_MQTT_OK/GD32VW55X_Wifi_BLE_SDK/GD32VW55x_RELEASE_V1.0.2/MSDK/cloud/alicloud/src/services/dev_bind\awss_packet.c ****     char mac_str[OS_MAC_LEN + 1] = {0};
 443              		.loc 2 76 10
 444 006a 7546     		li	a2,29
 445 006c 8145     		li	a1,0
 446 006e 0801     		addi	a0,sp,128
 447 0070 82DE     		sw	zero,124(sp)
 448 0072 97000000 		call	memset
 448      E7800000 
 449              	.LVL54:
 450              	.LBB76:
 451              	.LBB77:
1011:..\..\..\..\cloud\alicloud\src\services\dev_bind\os/os.h **** }
 452              		.loc 1 1011 12
 453 007a 8808     		addi	a0,sp,80
 454              	.LBE77:
 455              	.LBE76:
  77:C:/Users/stapi/OneDrive/Desktop/GD32VW553/V1_MQTT_OK/GD32VW55X_Wifi_BLE_SDK/GD32VW55x_RELEASE_V1.0.2/MSDK/cloud/alicloud/src/services/dev_bind\awss_packet.c ****     char pk[OS_PRODUCT_KEY_LEN + 1] = {0};
 456              		.loc 2 77 10
 457 007c 02DC     		sw	zero,56(sp)
 458 007e 02DE     		sw	zero,60(sp)
 459 0080 82C0     		sw	zero,64(sp)
 460 0082 82C2     		sw	zero,68(sp)
 461 0084 23140104 		sh	zero,72(sp)
 462 0088 23050104 		sb	zero,74(sp)
  78:C:/Users/stapi/OneDrive/Desktop/GD32VW553/V1_MQTT_OK/GD32VW55X_Wifi_BLE_SDK/GD32VW55x_RELEASE_V1.0.2/MSDK/cloud/alicloud/src/services/dev_bind\awss_packet.c ****     char ip_str[OS_IP_LEN + 1] = {0};
 463              		.loc 2 78 10
 464 008c 82C8     		sw	zero,80(sp)
 465 008e 82CA     		sw	zero,84(sp)
 466 0090 82CC     		sw	zero,88(sp)
 467 0092 82CE     		sw	zero,92(sp)
 468 0094 82D0     		sw	zero,96(sp)
 469 0096 23020106 		sb	zero,100(sp)
  79:C:/Users/stapi/OneDrive/Desktop/GD32VW553/V1_MQTT_OK/GD32VW55X_Wifi_BLE_SDK/GD32VW55x_RELEASE_V1.0.2/MSDK/cloud/alicloud/src/services/dev_bind\awss_packet.c **** 
 470              		.loc 2 79 10
 471 009a 02D2     		sw	zero,36(sp)
 472 009c 02D4     		sw	zero,40(sp)
 473 009e 02D6     		sw	zero,44(sp)
 474 00a0 02D8     		sw	zero,48(sp)
 475 00a2 230A0102 		sb	zero,52(sp)
 476              	.LBB80:
 477              	.LBB78:
1011:..\..\..\..\cloud\alicloud\src\services\dev_bind\os/os.h **** }
 478              		.loc 1 1011 12
 479 00a6 97000000 		call	HAL_GetProductKey
 479      E7800000 
 480              	.LVL55:
 481              	.LBE78:
 482              	.LBE80:
 483              	.LBB81:
 484              	.LBB82:
 485              		.loc 1 1050 12
 486 00ae E818     		addi	a0,sp,124
 487 00b0 97000000 		call	HAL_GetDeviceName
 487      E7800000 
 488              	.LVL56:
 489              	.LBE82:
 490              	.LBE81:
  83:C:/Users/stapi/OneDrive/Desktop/GD32VW553/V1_MQTT_OK/GD32VW55X_Wifi_BLE_SDK/GD32VW55x_RELEASE_V1.0.2/MSDK/cloud/alicloud/src/services/dev_bind\awss_packet.c ****     os_wifi_get_ip(ip_str, NULL);
 491              		.loc 2 83 5
 492 00b8 2818     		addi	a0,sp,56
 493 00ba 97000000 		call	os_wifi_get_mac_str
 493      E7800000 
 494              	.LVL57:
 495              	.LBB84:
 496              	.LBB85:
 593:..\..\..\..\cloud\alicloud\src\services\dev_bind\os/os.h **** }
 497              		.loc 1 593 12
 498 00c2 8145     		li	a1,0
 499 00c4 4810     		addi	a0,sp,36
 500 00c6 97000000 		call	HAL_Wifi_Get_IP
 500      E7800000 
 501              	.LVL58:
 502              	.LBE85:
 503              	.LBE84:
  86:C:/Users/stapi/OneDrive/Desktop/GD32VW553/V1_MQTT_OK/GD32VW55X_Wifi_BLE_SDK/GD32VW55x_RELEASE_V1.0.2/MSDK/cloud/alicloud/src/services/dev_bind\awss_packet.c ****     if (ret <= 0) {
 504              		.loc 2 86 11
 505 00ce 9309010C 		addi	s3,sp,192
 506 00d2 4E85     		mv	a0,s3
 507              	.LBE75:
 508              	.LBE74:
 117:C:/Users/stapi/OneDrive/Desktop/GD32VW553/V1_MQTT_OK/GD32VW55X_Wifi_BLE_SDK/GD32VW55x_RELEASE_V1.0.2/MSDK/cloud/alicloud/src/services/dev_bind\awss_packet.c ****     os_free(buf);
 509              		.loc 2 117 59
 510 00d4 130BF4FF 		addi	s6,s0,-1
 511              	.LVL59:
 512              	.LBB93:
 513              	.LBB92:
  67:C:/Users/stapi/OneDrive/Desktop/GD32VW553/V1_MQTT_OK/GD32VW55X_Wifi_BLE_SDK/GD32VW55x_RELEASE_V1.0.2/MSDK/cloud/alicloud/src/services/dev_bind\awss_packet.c ****     int ret = 0;
 514              		.loc 2 67 5 is_stmt 1
  68:C:/Users/stapi/OneDrive/Desktop/GD32VW553/V1_MQTT_OK/GD32VW55X_Wifi_BLE_SDK/GD32VW55x_RELEASE_V1.0.2/MSDK/cloud/alicloud/src/services/dev_bind\awss_packet.c ****     char *service_ver = NULL;
 515              		.loc 2 68 5
  69:C:/Users/stapi/OneDrive/Desktop/GD32VW553/V1_MQTT_OK/GD32VW55X_Wifi_BLE_SDK/GD32VW55x_RELEASE_V1.0.2/MSDK/cloud/alicloud/src/services/dev_bind\awss_packet.c **** 
 516              		.loc 2 69 5
  71:C:/Users/stapi/OneDrive/Desktop/GD32VW553/V1_MQTT_OK/GD32VW55X_Wifi_BLE_SDK/GD32VW55x_RELEASE_V1.0.2/MSDK/cloud/alicloud/src/services/dev_bind\awss_packet.c ****         dump_awss_status(STATE_USER_INPUT_NULL_POINTER, "get dev info input null");
 517              		.loc 2 71 5
  76:C:/Users/stapi/OneDrive/Desktop/GD32VW553/V1_MQTT_OK/GD32VW55X_Wifi_BLE_SDK/GD32VW55x_RELEASE_V1.0.2/MSDK/cloud/alicloud/src/services/dev_bind\awss_packet.c ****     char mac_str[OS_MAC_LEN + 1] = {0};
 518              		.loc 2 76 5
  77:C:/Users/stapi/OneDrive/Desktop/GD32VW553/V1_MQTT_OK/GD32VW55X_Wifi_BLE_SDK/GD32VW55x_RELEASE_V1.0.2/MSDK/cloud/alicloud/src/services/dev_bind\awss_packet.c ****     char pk[OS_PRODUCT_KEY_LEN + 1] = {0};
 519              		.loc 2 77 5
  78:C:/Users/stapi/OneDrive/Desktop/GD32VW553/V1_MQTT_OK/GD32VW55X_Wifi_BLE_SDK/GD32VW55x_RELEASE_V1.0.2/MSDK/cloud/alicloud/src/services/dev_bind\awss_packet.c ****     char ip_str[OS_IP_LEN + 1] = {0};
 520              		.loc 2 78 5
  79:C:/Users/stapi/OneDrive/Desktop/GD32VW553/V1_MQTT_OK/GD32VW55X_Wifi_BLE_SDK/GD32VW55x_RELEASE_V1.0.2/MSDK/cloud/alicloud/src/services/dev_bind\awss_packet.c **** 
 521              		.loc 2 79 5
  81:C:/Users/stapi/OneDrive/Desktop/GD32VW553/V1_MQTT_OK/GD32VW55X_Wifi_BLE_SDK/GD32VW55x_RELEASE_V1.0.2/MSDK/cloud/alicloud/src/services/dev_bind\awss_packet.c ****     os_device_get_name(dev_name);
 522              		.loc 2 81 5
 523              	.LBB87:
 524              	.LBB79:
1011:..\..\..\..\cloud\alicloud\src\services\dev_bind\os/os.h **** }
 525              		.loc 1 1011 5
 526              	.LBE79:
 527              	.LBE87:
  82:C:/Users/stapi/OneDrive/Desktop/GD32VW553/V1_MQTT_OK/GD32VW55X_Wifi_BLE_SDK/GD32VW55x_RELEASE_V1.0.2/MSDK/cloud/alicloud/src/services/dev_bind\awss_packet.c ****     os_wifi_get_mac_str(mac_str);
 528              		.loc 2 82 5
 529              	.LBB88:
 530              	.LBB83:
 531              		.loc 1 1050 5
 532              	.LBE83:
 533              	.LBE88:
  83:C:/Users/stapi/OneDrive/Desktop/GD32VW553/V1_MQTT_OK/GD32VW55X_Wifi_BLE_SDK/GD32VW55x_RELEASE_V1.0.2/MSDK/cloud/alicloud/src/services/dev_bind\awss_packet.c ****     os_wifi_get_ip(ip_str, NULL);
 534              		.loc 2 83 5
  84:C:/Users/stapi/OneDrive/Desktop/GD32VW553/V1_MQTT_OK/GD32VW55X_Wifi_BLE_SDK/GD32VW55x_RELEASE_V1.0.2/MSDK/cloud/alicloud/src/services/dev_bind\awss_packet.c **** 
 535              		.loc 2 84 5
 536              	.LBB89:
 537              	.LBB86:
 593:..\..\..\..\cloud\alicloud\src\services\dev_bind\os/os.h **** }
 538              		.loc 1 593 5
 539              	.LBE86:
 540              	.LBE89:
  86:C:/Users/stapi/OneDrive/Desktop/GD32VW553/V1_MQTT_OK/GD32VW55X_Wifi_BLE_SDK/GD32VW55x_RELEASE_V1.0.2/MSDK/cloud/alicloud/src/services/dev_bind\awss_packet.c ****     if (ret <= 0) {
 541              		.loc 2 86 5
  86:C:/Users/stapi/OneDrive/Desktop/GD32VW553/V1_MQTT_OK/GD32VW55X_Wifi_BLE_SDK/GD32VW55x_RELEASE_V1.0.2/MSDK/cloud/alicloud/src/services/dev_bind\awss_packet.c ****     if (ret <= 0) {
 542              		.loc 2 86 11 is_stmt 0
 543 00d8 97000000 		call	HAL_GetFirmwareVersion
 543      E7800000 
 544              	.LVL60:
  87:C:/Users/stapi/OneDrive/Desktop/GD32VW553/V1_MQTT_OK/GD32VW55X_Wifi_BLE_SDK/GD32VW55x_RELEASE_V1.0.2/MSDK/cloud/alicloud/src/services/dev_bind\awss_packet.c ****         dump_awss_status(STATE_OTA_FIRMWARE_VER_READ_FAIL, "FW Version get failed");
 545              		.loc 2 87 5 is_stmt 1
  87:C:/Users/stapi/OneDrive/Desktop/GD32VW553/V1_MQTT_OK/GD32VW55X_Wifi_BLE_SDK/GD32VW55x_RELEASE_V1.0.2/MSDK/cloud/alicloud/src/services/dev_bind\awss_packet.c ****         dump_awss_status(STATE_OTA_FIRMWARE_VER_READ_FAIL, "FW Version get failed");
 546              		.loc 2 87 8 is_stmt 0
 547 00e0 634DA000 		bgt	a0,zero,.L39
  88:C:/Users/stapi/OneDrive/Desktop/GD32VW553/V1_MQTT_OK/GD32VW55X_Wifi_BLE_SDK/GD32VW55x_RELEASE_V1.0.2/MSDK/cloud/alicloud/src/services/dev_bind\awss_packet.c ****     }
 548              		.loc 2 88 9 is_stmt 1
 549 00e4 37060000 		lui	a2,%hi(.LC2)
 550 00e8 13060600 		addi	a2,a2,%lo(.LC2)
 551 00ec 9305008C 		li	a1,-1856
 552 00f0 6D45     		li	a0,27
 553              	.LVL61:
 554 00f2 97000000 		call	iotx_state_event
 554      E7800000 
 555              	.LVL62:
 556              	.L39:
  91:C:/Users/stapi/OneDrive/Desktop/GD32VW553/V1_MQTT_OK/GD32VW55X_Wifi_BLE_SDK/GD32VW55x_RELEASE_V1.0.2/MSDK/cloud/alicloud/src/services/dev_bind\awss_packet.c ****     if (service_ver)
 557              		.loc 2 91 5
  91:C:/Users/stapi/OneDrive/Desktop/GD32VW553/V1_MQTT_OK/GD32VW55X_Wifi_BLE_SDK/GD32VW55x_RELEASE_V1.0.2/MSDK/cloud/alicloud/src/services/dev_bind\awss_packet.c ****     if (service_ver)
 558              		.loc 2 91 19 is_stmt 0
 559 00fa 97000000 		call	build_service_version
 559      E7800000 
 560              	.LVL63:
 561 0102 2A89     		mv	s2,a0
 562              	.LVL64:
  92:C:/Users/stapi/OneDrive/Desktop/GD32VW553/V1_MQTT_OK/GD32VW55X_Wifi_BLE_SDK/GD32VW55x_RELEASE_V1.0.2/MSDK/cloud/alicloud/src/services/dev_bind\awss_packet.c ****     {
 563              		.loc 2 92 5 is_stmt 1
  92:C:/Users/stapi/OneDrive/Desktop/GD32VW553/V1_MQTT_OK/GD32VW55X_Wifi_BLE_SDK/GD32VW55x_RELEASE_V1.0.2/MSDK/cloud/alicloud/src/services/dev_bind\awss_packet.c ****     {
 564              		.loc 2 92 8 is_stmt 0
 565 0104 39C1     		beq	a0,zero,.L40
  94:C:/Users/stapi/OneDrive/Desktop/GD32VW553/V1_MQTT_OK/GD32VW55X_Wifi_BLE_SDK/GD32VW55x_RELEASE_V1.0.2/MSDK/cloud/alicloud/src/services/dev_bind\awss_packet.c ****         HAL_Free(service_ver);
 566              		.loc 2 94 9 is_stmt 1
 567              	.LBB90:
 568              	.LBB91:
 536:..\..\..\..\cloud\alicloud\src\services\dev_bind\os/os.h **** }
 569              		.loc 1 536 5
 536:..\..\..\..\cloud\alicloud\src\services\dev_bind\os/os.h **** }
 570              		.loc 1 536 12 is_stmt 0
 571 0106 97000000 		call	HAL_Awss_Get_Conn_Encrypt_Type
 571      E7800000 
 572              	.LVL65:
 573              	.LBE91:
 574              	.LBE90:
  94:C:/Users/stapi/OneDrive/Desktop/GD32VW553/V1_MQTT_OK/GD32VW55X_Wifi_BLE_SDK/GD32VW55x_RELEASE_V1.0.2/MSDK/cloud/alicloud/src/services/dev_bind\awss_packet.c ****         HAL_Free(service_ver);
 575              		.loc 2 94 9
 576 010e B7060000 		lui	a3,%hi(.LC3)
 577 0112 37060000 		lui	a2,%hi(.LC4)
 578 0116 2AC0     		sw	a0,0(sp)
 579 0118 4AC6     		sw	s2,12(sp)
 580 011a 02C4     		sw	zero,8(sp)
 581 011c 4EC2     		sw	s3,4(sp)
 582 011e 93084102 		addi	a7,sp,36
 583 0122 13088103 		addi	a6,sp,56
 584 0126 FC18     		addi	a5,sp,124
 585 0128 9808     		addi	a4,sp,80
 586 012a 93860600 		addi	a3,a3,%lo(.LC3)
 587 012e 13060600 		addi	a2,a2,%lo(.LC4)
 588 0132 9305F023 		li	a1,575
 589 0136 5285     		mv	a0,s4
 590 0138 97000000 		call	snprintf
 590      E7800000 
 591              	.LVL66:
  95:C:/Users/stapi/OneDrive/Desktop/GD32VW553/V1_MQTT_OK/GD32VW55X_Wifi_BLE_SDK/GD32VW55x_RELEASE_V1.0.2/MSDK/cloud/alicloud/src/services/dev_bind\awss_packet.c ****     }
 592              		.loc 2 95 9 is_stmt 1
 593 0140 4A85     		mv	a0,s2
 594 0142 97000000 		call	HAL_Free
 594      E7800000 
 595              	.LVL67:
 596              	.L40:
 597              	.LBE92:
 598              	.LBE93:
 117:C:/Users/stapi/OneDrive/Desktop/GD32VW553/V1_MQTT_OK/GD32VW55X_Wifi_BLE_SDK/GD32VW55x_RELEASE_V1.0.2/MSDK/cloud/alicloud/src/services/dev_bind\awss_packet.c ****     os_free(buf);
 599              		.loc 2 117 12 is_stmt 0
 600 014a 37060000 		lui	a2,%hi(.LC5)
 601 014e D286     		mv	a3,s4
 602 0150 13060600 		addi	a2,a2,%lo(.LC5)
 603 0154 DA85     		mv	a1,s6
 604 0156 2685     		mv	a0,s1
 605 0158 97000000 		call	snprintf
 605      E7800000 
 606              	.LVL68:
 607 0160 2A89     		mv	s2,a0
 608              	.LVL69:
 118:C:/Users/stapi/OneDrive/Desktop/GD32VW553/V1_MQTT_OK/GD32VW55X_Wifi_BLE_SDK/GD32VW55x_RELEASE_V1.0.2/MSDK/cloud/alicloud/src/services/dev_bind\awss_packet.c ****     buf = NULL;
 609              		.loc 2 118 5 is_stmt 1
 610              	.LBB94:
 611              	.LBB95:
 394:..\..\..\..\cloud\alicloud\src\services\dev_bind\os/os.h **** }
 612              		.loc 1 394 5
 613 0162 5285     		mv	a0,s4
 614              	.LVL70:
 615 0164 97000000 		call	HAL_Free
 615      E7800000 
 616              	.LVL71:
 617              	.LBE95:
 618              	.LBE94:
 119:C:/Users/stapi/OneDrive/Desktop/GD32VW553/V1_MQTT_OK/GD32VW55X_Wifi_BLE_SDK/GD32VW55x_RELEASE_V1.0.2/MSDK/cloud/alicloud/src/services/dev_bind\awss_packet.c **** 
 619              		.loc 2 119 5
 121:C:/Users/stapi/OneDrive/Desktop/GD32VW553/V1_MQTT_OK/GD32VW55X_Wifi_BLE_SDK/GD32VW55x_RELEASE_V1.0.2/MSDK/cloud/alicloud/src/services/dev_bind\awss_packet.c ****         case AWSS_NOTIFY_DEV_BIND_TOKEN:
 620              		.loc 2 121 5
 621 016c 8947     		li	a5,2
 622 016e 6380FA08 		beq	s5,a5,.L41
 623 0172 8D47     		li	a5,3
 624 0174 638EFA04 		beq	s5,a5,.L42
 625 0178 8547     		li	a5,1
 626 017a E398FAEA 		bne	s5,a5,.L37
 627              	.LBB96:
 124:C:/Users/stapi/OneDrive/Desktop/GD32VW553/V1_MQTT_OK/GD32VW55X_Wifi_BLE_SDK/GD32VW55x_RELEASE_V1.0.2/MSDK/cloud/alicloud/src/services/dev_bind\awss_packet.c ****             bind_token_type_t token_type;
 628              		.loc 2 124 13
 124:C:/Users/stapi/OneDrive/Desktop/GD32VW553/V1_MQTT_OK/GD32VW55X_Wifi_BLE_SDK/GD32VW55x_RELEASE_V1.0.2/MSDK/cloud/alicloud/src/services/dev_bind\awss_packet.c ****             bind_token_type_t token_type;
 629              		.loc 2 124 27 is_stmt 0
 630 017e 7546     		li	a2,29
 631 0180 8145     		li	a1,0
 632 0182 C801     		addi	a0,sp,196
 633 0184 82C1     		sw	zero,192(sp)
 634 0186 97000000 		call	memset
 634      E7800000 
 635              	.LVL72:
 125:C:/Users/stapi/OneDrive/Desktop/GD32VW553/V1_MQTT_OK/GD32VW55X_Wifi_BLE_SDK/GD32VW55x_RELEASE_V1.0.2/MSDK/cloud/alicloud/src/services/dev_bind\awss_packet.c ****             awss_get_token(token_str, RANDOM_STR_MAX_LEN, &token_type);
 636              		.loc 2 125 13 is_stmt 1
 126:C:/Users/stapi/OneDrive/Desktop/GD32VW553/V1_MQTT_OK/GD32VW55X_Wifi_BLE_SDK/GD32VW55x_RELEASE_V1.0.2/MSDK/cloud/alicloud/src/services/dev_bind\awss_packet.c ****             len += snprintf((char*)dev_info + len, info_len - len - 1, AWSS_DEV_BIND_TOKEN_FMT, 
 637              		.loc 2 126 13
 638 018e F018     		addi	a2,sp,124
 639 0190 93051002 		li	a1,33
 640 0194 4E85     		mv	a0,s3
 641 0196 97000000 		call	awss_get_token
 641      E7800000 
 642              	.LVL73:
 127:C:/Users/stapi/OneDrive/Desktop/GD32VW553/V1_MQTT_OK/GD32VW55X_Wifi_BLE_SDK/GD32VW55x_RELEASE_V1.0.2/MSDK/cloud/alicloud/src/services/dev_bind\awss_packet.c ****                                                 token_str, token_type, awss_token_remain_time(), 0)
 643              		.loc 2 127 13
 127:C:/Users/stapi/OneDrive/Desktop/GD32VW553/V1_MQTT_OK/GD32VW55X_Wifi_BLE_SDK/GD32VW55x_RELEASE_V1.0.2/MSDK/cloud/alicloud/src/services/dev_bind\awss_packet.c ****                                                 token_str, token_type, awss_token_remain_time(), 0)
 644              		.loc 2 127 20 is_stmt 0
 645 019e 7657     		lw	a4,124(sp)
 646 01a0 338A2401 		add	s4,s1,s2
 647 01a4 3ACE     		sw	a4,28(sp)
 648 01a6 97000000 		call	awss_token_remain_time
 648      E7800000 
 649              	.LVL74:
 650 01ae 7247     		lw	a4,28(sp)
 127:C:/Users/stapi/OneDrive/Desktop/GD32VW553/V1_MQTT_OK/GD32VW55X_Wifi_BLE_SDK/GD32VW55x_RELEASE_V1.0.2/MSDK/cloud/alicloud/src/services/dev_bind\awss_packet.c ****                                                 token_str, token_type, awss_token_remain_time(), 0)
 651              		.loc 2 127 61
 652 01b0 B3052441 		sub	a1,s0,s2
 127:C:/Users/stapi/OneDrive/Desktop/GD32VW553/V1_MQTT_OK/GD32VW55X_Wifi_BLE_SDK/GD32VW55x_RELEASE_V1.0.2/MSDK/cloud/alicloud/src/services/dev_bind\awss_packet.c ****                                                 token_str, token_type, awss_token_remain_time(), 0)
 653              		.loc 2 127 20
 654 01b4 37060000 		lui	a2,%hi(.LC6)
 655 01b8 AA87     		mv	a5,a0
 656 01ba 0148     		li	a6,0
 657 01bc CE86     		mv	a3,s3
 658 01be 13060600 		addi	a2,a2,%lo(.LC6)
 659 01c2 FD15     		addi	a1,a1,-1
 660 01c4 5285     		mv	a0,s4
 661 01c6 97000000 		call	snprintf
 661      E7800000 
 662              	.LVL75:
 129:C:/Users/stapi/OneDrive/Desktop/GD32VW553/V1_MQTT_OK/GD32VW55X_Wifi_BLE_SDK/GD32VW55x_RELEASE_V1.0.2/MSDK/cloud/alicloud/src/services/dev_bind\awss_packet.c ****         }
 663              		.loc 2 129 13 is_stmt 1
 664 01ce B1BD     		j	.L37
 665              	.LVL76:
 666              	.L42:
 667              	.LBE96:
 133:C:/Users/stapi/OneDrive/Desktop/GD32VW553/V1_MQTT_OK/GD32VW55X_Wifi_BLE_SDK/GD32VW55x_RELEASE_V1.0.2/MSDK/cloud/alicloud/src/services/dev_bind\awss_packet.c ****             break;
 668              		.loc 2 133 13
 133:C:/Users/stapi/OneDrive/Desktop/GD32VW553/V1_MQTT_OK/GD32VW55X_Wifi_BLE_SDK/GD32VW55x_RELEASE_V1.0.2/MSDK/cloud/alicloud/src/services/dev_bind\awss_packet.c ****             break;
 669              		.loc 2 133 62 is_stmt 0
 670 01d0 B3052441 		sub	a1,s0,s2
 133:C:/Users/stapi/OneDrive/Desktop/GD32VW553/V1_MQTT_OK/GD32VW55X_Wifi_BLE_SDK/GD32VW55x_RELEASE_V1.0.2/MSDK/cloud/alicloud/src/services/dev_bind\awss_packet.c ****             break;
 671              		.loc 2 133 20
 672 01d4 37060000 		lui	a2,%hi(.LC7)
 673 01d8 8146     		li	a3,0
 674 01da 13060600 		addi	a2,a2,%lo(.LC7)
 675 01de FD15     		addi	a1,a1,-1
 676 01e0 33852401 		add	a0,s1,s2
 677 01e4 97000000 		call	snprintf
 677      E7800000 
 678              	.LVL77:
 134:C:/Users/stapi/OneDrive/Desktop/GD32VW553/V1_MQTT_OK/GD32VW55X_Wifi_BLE_SDK/GD32VW55x_RELEASE_V1.0.2/MSDK/cloud/alicloud/src/services/dev_bind\awss_packet.c ****         }
 679              		.loc 2 134 13 is_stmt 1
 680 01ec 3DBD     		j	.L37
 681              	.LVL78:
 682              	.L41:
 683              	.LBB97:
 138:C:/Users/stapi/OneDrive/Desktop/GD32VW553/V1_MQTT_OK/GD32VW55X_Wifi_BLE_SDK/GD32VW55x_RELEASE_V1.0.2/MSDK/cloud/alicloud/src/services/dev_bind\awss_packet.c ****             {
 684              		.loc 2 138 13
 138:C:/Users/stapi/OneDrive/Desktop/GD32VW553/V1_MQTT_OK/GD32VW55X_Wifi_BLE_SDK/GD32VW55x_RELEASE_V1.0.2/MSDK/cloud/alicloud/src/services/dev_bind\awss_packet.c ****             {
 685              		.loc 2 138 18 is_stmt 0
 686 01ee 13065002 		li	a2,37
 687 01f2 8145     		li	a1,0
 688 01f4 C808     		addi	a0,sp,84
 689 01f6 82C8     		sw	zero,80(sp)
 690 01f8 97000000 		call	memset
 690      E7800000 
 691              	.LVL79:
 692              	.LBB98:
 140:C:/Users/stapi/OneDrive/Desktop/GD32VW553/V1_MQTT_OK/GD32VW55X_Wifi_BLE_SDK/GD32VW55x_RELEASE_V1.0.2/MSDK/cloud/alicloud/src/services/dev_bind\awss_packet.c ****                 char txt[80] = {0};
 693              		.loc 2 140 17 is_stmt 1
 140:C:/Users/stapi/OneDrive/Desktop/GD32VW553/V1_MQTT_OK/GD32VW55X_Wifi_BLE_SDK/GD32VW55x_RELEASE_V1.0.2/MSDK/cloud/alicloud/src/services/dev_bind\awss_packet.c ****                 char txt[80] = {0};
 694              		.loc 2 140 21 is_stmt 0
 695 0200 93070005 		li	a5,80
 141:C:/Users/stapi/OneDrive/Desktop/GD32VW553/V1_MQTT_OK/GD32VW55X_Wifi_BLE_SDK/GD32VW55x_RELEASE_V1.0.2/MSDK/cloud/alicloud/src/services/dev_bind\awss_packet.c ****                 char key[OS_DEVICE_SECRET_LEN + 1] = {0};
 696              		.loc 2 141 22
 697 0204 1306C004 		li	a2,76
 698 0208 8145     		li	a1,0
 699 020a C801     		addi	a0,sp,196
 140:C:/Users/stapi/OneDrive/Desktop/GD32VW553/V1_MQTT_OK/GD32VW55X_Wifi_BLE_SDK/GD32VW55x_RELEASE_V1.0.2/MSDK/cloud/alicloud/src/services/dev_bind\awss_packet.c ****                 char txt[80] = {0};
 700              		.loc 2 140 21
 701 020c 3ED2     		sw	a5,36(sp)
 141:C:/Users/stapi/OneDrive/Desktop/GD32VW553/V1_MQTT_OK/GD32VW55X_Wifi_BLE_SDK/GD32VW55x_RELEASE_V1.0.2/MSDK/cloud/alicloud/src/services/dev_bind\awss_packet.c ****                 char key[OS_DEVICE_SECRET_LEN + 1] = {0};
 702              		.loc 2 141 17 is_stmt 1
 141:C:/Users/stapi/OneDrive/Desktop/GD32VW553/V1_MQTT_OK/GD32VW55X_Wifi_BLE_SDK/GD32VW55x_RELEASE_V1.0.2/MSDK/cloud/alicloud/src/services/dev_bind\awss_packet.c ****                 char key[OS_DEVICE_SECRET_LEN + 1] = {0};
 703              		.loc 2 141 22 is_stmt 0
 704 020e 82C1     		sw	zero,192(sp)
 705 0210 97000000 		call	memset
 705      E7800000 
 706              	.LVL80:
 142:C:/Users/stapi/OneDrive/Desktop/GD32VW553/V1_MQTT_OK/GD32VW55X_Wifi_BLE_SDK/GD32VW55x_RELEASE_V1.0.2/MSDK/cloud/alicloud/src/services/dev_bind\awss_packet.c ****                 uint8_t sign[DEV_SIGN_SIZE + 1] = {0};
 707              		.loc 2 142 17 is_stmt 1
 142:C:/Users/stapi/OneDrive/Desktop/GD32VW553/V1_MQTT_OK/GD32VW55X_Wifi_BLE_SDK/GD32VW55x_RELEASE_V1.0.2/MSDK/cloud/alicloud/src/services/dev_bind\awss_packet.c ****                 uint8_t sign[DEV_SIGN_SIZE + 1] = {0};
 708              		.loc 2 142 22 is_stmt 0
 709 0218 1306D003 		li	a2,61
 710 021c 8145     		li	a1,0
 711 021e 0801     		addi	a0,sp,128
 712 0220 82DE     		sw	zero,124(sp)
 713 0222 97000000 		call	memset
 713      E7800000 
 714              	.LVL81:
 143:C:/Users/stapi/OneDrive/Desktop/GD32VW553/V1_MQTT_OK/GD32VW55X_Wifi_BLE_SDK/GD32VW55x_RELEASE_V1.0.2/MSDK/cloud/alicloud/src/services/dev_bind\awss_packet.c **** 
 715              		.loc 2 143 17 is_stmt 1
 143:C:/Users/stapi/OneDrive/Desktop/GD32VW553/V1_MQTT_OK/GD32VW55X_Wifi_BLE_SDK/GD32VW55x_RELEASE_V1.0.2/MSDK/cloud/alicloud/src/services/dev_bind\awss_packet.c **** 
 716              		.loc 2 143 25 is_stmt 0
 717 022a 02DC     		sw	zero,56(sp)
 718 022c 02DE     		sw	zero,60(sp)
 719 022e 82C0     		sw	zero,64(sp)
 720 0230 82C2     		sw	zero,68(sp)
 721 0232 82C4     		sw	zero,72(sp)
 722 0234 23060104 		sb	zero,76(sp)
 145:C:/Users/stapi/OneDrive/Desktop/GD32VW553/V1_MQTT_OK/GD32VW55X_Wifi_BLE_SDK/GD32VW55x_RELEASE_V1.0.2/MSDK/cloud/alicloud/src/services/dev_bind\awss_packet.c ****                     os_product_get_secret(key);
 723              		.loc 2 145 17 is_stmt 1
 724              	.LBB99:
 725              	.LBB100:
 536:..\..\..\..\cloud\alicloud\src\services\dev_bind\os/os.h **** }
 726              		.loc 1 536 5
 536:..\..\..\..\cloud\alicloud\src\services\dev_bind\os/os.h **** }
 727              		.loc 1 536 12 is_stmt 0
 728 0238 97000000 		call	HAL_Awss_Get_Conn_Encrypt_Type
 728      E7800000 
 729              	.LVL82:
 730              	.LBE100:
 731              	.LBE99:
 145:C:/Users/stapi/OneDrive/Desktop/GD32VW553/V1_MQTT_OK/GD32VW55X_Wifi_BLE_SDK/GD32VW55x_RELEASE_V1.0.2/MSDK/cloud/alicloud/src/services/dev_bind\awss_packet.c ****                     os_product_get_secret(key);
 732              		.loc 2 145 20
 733 0240 8D47     		li	a5,3
 734 0242 6312F508 		bne	a0,a5,.L43
 146:C:/Users/stapi/OneDrive/Desktop/GD32VW553/V1_MQTT_OK/GD32VW55X_Wifi_BLE_SDK/GD32VW55x_RELEASE_V1.0.2/MSDK/cloud/alicloud/src/services/dev_bind\awss_packet.c ****                 } else { // aes-key per device
 735              		.loc 2 146 21 is_stmt 1
 736              	.LVL83:
 737              	.LBB101:
 738              	.LBB102:
1024:..\..\..\..\cloud\alicloud\src\services\dev_bind\os/os.h **** }
 739              		.loc 1 1024 5
1024:..\..\..\..\cloud\alicloud\src\services\dev_bind\os/os.h **** }
 740              		.loc 1 1024 12 is_stmt 0
 741 0246 E818     		addi	a0,sp,124
 742              	.LVL84:
 743 0248 97000000 		call	HAL_GetProductSecret
 743      E7800000 
 744              	.LVL85:
 745              	.L44:
 746              	.LBE102:
 747              	.LBE101:
 150:C:/Users/stapi/OneDrive/Desktop/GD32VW553/V1_MQTT_OK/GD32VW55X_Wifi_BLE_SDK/GD32VW55x_RELEASE_V1.0.2/MSDK/cloud/alicloud/src/services/dev_bind\awss_packet.c ****                 produce_signature(sign, (uint8_t *)txt, txt_len, key);
 748              		.loc 2 150 17 is_stmt 1
 749 0250 4C10     		addi	a1,sp,36
 750 0252 4E85     		mv	a0,s3
 751 0254 97000000 		call	awss_build_sign_src
 751      E7800000 
 752              	.LVL86:
 151:C:/Users/stapi/OneDrive/Desktop/GD32VW553/V1_MQTT_OK/GD32VW55X_Wifi_BLE_SDK/GD32VW55x_RELEASE_V1.0.2/MSDK/cloud/alicloud/src/services/dev_bind\awss_packet.c ****                 utils_hex_to_str(sign, DEV_SIGN_SIZE, sign_str, sizeof(sign_str));
 753              		.loc 2 151 17
 754 025c 1256     		lw	a2,36(sp)
 755 025e F418     		addi	a3,sp,124
 756 0260 CE85     		mv	a1,s3
 757 0262 2818     		addi	a0,sp,56
 758 0264 97000000 		call	produce_signature
 758      E7800000 
 759              	.LVL87:
 152:C:/Users/stapi/OneDrive/Desktop/GD32VW553/V1_MQTT_OK/GD32VW55X_Wifi_BLE_SDK/GD32VW55x_RELEASE_V1.0.2/MSDK/cloud/alicloud/src/services/dev_bind\awss_packet.c ****             }
 760              		.loc 2 152 17
 761 026c 8546     		li	a3,1
 762 026e 8C08     		addi	a1,sp,80
 763 0270 2818     		addi	a0,sp,56
 764 0272 5146     		li	a2,20
 765 0274 97000000 		call	LITE_hexbuf_convert
 765      E7800000 
 766              	.LVL88:
 767              	.LBE98:
 154:C:/Users/stapi/OneDrive/Desktop/GD32VW553/V1_MQTT_OK/GD32VW55X_Wifi_BLE_SDK/GD32VW55x_RELEASE_V1.0.2/MSDK/cloud/alicloud/src/services/dev_bind\awss_packet.c ****             utils_hex_to_str(g_aes_random, RANDOM_MAX_LEN, rand_str, sizeof(rand_str));
 768              		.loc 2 154 13
 154:C:/Users/stapi/OneDrive/Desktop/GD32VW553/V1_MQTT_OK/GD32VW55X_Wifi_BLE_SDK/GD32VW55x_RELEASE_V1.0.2/MSDK/cloud/alicloud/src/services/dev_bind\awss_packet.c ****             utils_hex_to_str(g_aes_random, RANDOM_MAX_LEN, rand_str, sizeof(rand_str));
 769              		.loc 2 154 18 is_stmt 0
 770 027c 7546     		li	a2,29
 771 027e 8145     		li	a1,0
 772 0280 C801     		addi	a0,sp,196
 773 0282 82C1     		sw	zero,192(sp)
 774 0284 97000000 		call	memset
 774      E7800000 
 775              	.LVL89:
 155:C:/Users/stapi/OneDrive/Desktop/GD32VW553/V1_MQTT_OK/GD32VW55X_Wifi_BLE_SDK/GD32VW55x_RELEASE_V1.0.2/MSDK/cloud/alicloud/src/services/dev_bind\awss_packet.c ****             len += snprintf((char *)dev_info + len, info_len - len - 1, AWSS_DEV_RAND_SIGN_FMT, ran
 776              		.loc 2 155 13 is_stmt 1
 777 028c 37050000 		lui	a0,%hi(g_aes_random)
 778 0290 CE85     		mv	a1,s3
 779 0292 8546     		li	a3,1
 780 0294 4146     		li	a2,16
 781 0296 13050500 		addi	a0,a0,%lo(g_aes_random)
 782 029a 97000000 		call	LITE_hexbuf_convert
 782      E7800000 
 783              	.LVL90:
 156:C:/Users/stapi/OneDrive/Desktop/GD32VW553/V1_MQTT_OK/GD32VW55X_Wifi_BLE_SDK/GD32VW55x_RELEASE_V1.0.2/MSDK/cloud/alicloud/src/services/dev_bind\awss_packet.c ****             break;
 784              		.loc 2 156 13
 156:C:/Users/stapi/OneDrive/Desktop/GD32VW553/V1_MQTT_OK/GD32VW55X_Wifi_BLE_SDK/GD32VW55x_RELEASE_V1.0.2/MSDK/cloud/alicloud/src/services/dev_bind\awss_packet.c ****             break;
 785              		.loc 2 156 62 is_stmt 0
 786 02a2 33042441 		sub	s0,s0,s2
 787              	.LVL91:
 156:C:/Users/stapi/OneDrive/Desktop/GD32VW553/V1_MQTT_OK/GD32VW55X_Wifi_BLE_SDK/GD32VW55x_RELEASE_V1.0.2/MSDK/cloud/alicloud/src/services/dev_bind\awss_packet.c ****             break;
 788              		.loc 2 156 20
 789 02a6 37060000 		lui	a2,%hi(.LC8)
 790 02aa 9C08     		addi	a5,sp,80
 791 02ac 0147     		li	a4,0
 792 02ae CE86     		mv	a3,s3
 793 02b0 13060600 		addi	a2,a2,%lo(.LC8)
 794 02b4 9305F4FF 		addi	a1,s0,-1
 795 02b8 33852401 		add	a0,s1,s2
 796 02bc 97000000 		call	snprintf
 796      E7800000 
 797              	.LVL92:
 157:C:/Users/stapi/OneDrive/Desktop/GD32VW553/V1_MQTT_OK/GD32VW55X_Wifi_BLE_SDK/GD32VW55x_RELEASE_V1.0.2/MSDK/cloud/alicloud/src/services/dev_bind\awss_packet.c ****         }
 798              		.loc 2 157 13 is_stmt 1
 799 02c4 9DB3     		j	.L37
 800              	.LVL93:
 801              	.L43:
 802              	.LBB105:
 148:C:/Users/stapi/OneDrive/Desktop/GD32VW553/V1_MQTT_OK/GD32VW55X_Wifi_BLE_SDK/GD32VW55x_RELEASE_V1.0.2/MSDK/cloud/alicloud/src/services/dev_bind\awss_packet.c ****                 }
 803              		.loc 2 148 21
 804              	.LBB103:
 805              	.LBB104:
1037:..\..\..\..\cloud\alicloud\src\services\dev_bind\os/os.h **** }
 806              		.loc 1 1037 5
1037:..\..\..\..\cloud\alicloud\src\services\dev_bind\os/os.h **** }
 807              		.loc 1 1037 12 is_stmt 0
 808 02c6 E818     		addi	a0,sp,124
 809              	.LVL94:
 810 02c8 97000000 		call	HAL_GetDeviceSecret
 810      E7800000 
 811              	.LVL95:
 812 02d0 41B7     		j	.L44
 813              	.LBE104:
 814              	.LBE103:
 815              	.LBE105:
 816              	.LBE97:
 817              		.cfi_endproc
 818              	.LFE66:
 820              		.section	.text.awss_build_topic,"ax",@progbits
 821              		.align	1
 822              		.globl	awss_build_topic
 824              	awss_build_topic:
 825              	.LFB68:
 214:C:/Users/stapi/OneDrive/Desktop/GD32VW553/V1_MQTT_OK/GD32VW55X_Wifi_BLE_SDK/GD32VW55x_RELEASE_V1.0.2/MSDK/cloud/alicloud/src/services/dev_bind\awss_packet.c **** #endif
 215:C:/Users/stapi/OneDrive/Desktop/GD32VW553/V1_MQTT_OK/GD32VW55X_Wifi_BLE_SDK/GD32VW55x_RELEASE_V1.0.2/MSDK/cloud/alicloud/src/services/dev_bind\awss_packet.c **** const char *awss_build_topic(const char *topic_fmt, char *topic, uint32_t tlen)
 216:C:/Users/stapi/OneDrive/Desktop/GD32VW553/V1_MQTT_OK/GD32VW55X_Wifi_BLE_SDK/GD32VW55x_RELEASE_V1.0.2/MSDK/cloud/alicloud/src/services/dev_bind\awss_packet.c **** {
 826              		.loc 2 216 1 is_stmt 1
 827              		.cfi_startproc
 828              	.LVL96:
 829 0000 17030000 		call	t0,__riscv_save_3
 829      E7020300 
 830              		.cfi_offset 18, -16
 831              		.cfi_offset 9, -12
 832              		.cfi_offset 8, -8
 833              		.cfi_offset 1, -4
 834              		.cfi_def_cfa_offset 16
 217:C:/Users/stapi/OneDrive/Desktop/GD32VW553/V1_MQTT_OK/GD32VW55X_Wifi_BLE_SDK/GD32VW55x_RELEASE_V1.0.2/MSDK/cloud/alicloud/src/services/dev_bind\awss_packet.c ****     if (topic == NULL || topic_fmt == NULL || tlen == 0) {
 835              		.loc 2 217 5
 216:C:/Users/stapi/OneDrive/Desktop/GD32VW553/V1_MQTT_OK/GD32VW55X_Wifi_BLE_SDK/GD32VW55x_RELEASE_V1.0.2/MSDK/cloud/alicloud/src/services/dev_bind\awss_packet.c ****     if (topic == NULL || topic_fmt == NULL || tlen == 0) {
 836              		.loc 2 216 1 is_stmt 0
 837 0008 3971     		addi	sp,sp,-64
 838              		.cfi_def_cfa_offset 80
 216:C:/Users/stapi/OneDrive/Desktop/GD32VW553/V1_MQTT_OK/GD32VW55X_Wifi_BLE_SDK/GD32VW55x_RELEASE_V1.0.2/MSDK/cloud/alicloud/src/services/dev_bind\awss_packet.c ****     if (topic == NULL || topic_fmt == NULL || tlen == 0) {
 839              		.loc 2 216 1
 840 000a 2E84     		mv	s0,a1
 841              		.loc 2 217 8
 842 000c A1C9     		beq	a1,zero,.L54
 843 000e 2A89     		mv	s2,a0
 844              		.loc 2 217 23 discriminator 1
 845 0010 21CD     		beq	a0,zero,.L56
 846 0012 B284     		mv	s1,a2
 847              		.loc 2 217 44 discriminator 2
 848 0014 31CA     		beq	a2,zero,.L56
 218:C:/Users/stapi/OneDrive/Desktop/GD32VW553/V1_MQTT_OK/GD32VW55X_Wifi_BLE_SDK/GD32VW55x_RELEASE_V1.0.2/MSDK/cloud/alicloud/src/services/dev_bind\awss_packet.c ****         return NULL;
 219:C:/Users/stapi/OneDrive/Desktop/GD32VW553/V1_MQTT_OK/GD32VW55X_Wifi_BLE_SDK/GD32VW55x_RELEASE_V1.0.2/MSDK/cloud/alicloud/src/services/dev_bind\awss_packet.c ****     }
 220:C:/Users/stapi/OneDrive/Desktop/GD32VW553/V1_MQTT_OK/GD32VW55X_Wifi_BLE_SDK/GD32VW55x_RELEASE_V1.0.2/MSDK/cloud/alicloud/src/services/dev_bind\awss_packet.c **** 
 221:C:/Users/stapi/OneDrive/Desktop/GD32VW553/V1_MQTT_OK/GD32VW55X_Wifi_BLE_SDK/GD32VW55x_RELEASE_V1.0.2/MSDK/cloud/alicloud/src/services/dev_bind\awss_packet.c ****     char pk[OS_PRODUCT_KEY_LEN + 1] = {0};
 849              		.loc 2 221 5 is_stmt 1
 222:C:/Users/stapi/OneDrive/Desktop/GD32VW553/V1_MQTT_OK/GD32VW55X_Wifi_BLE_SDK/GD32VW55x_RELEASE_V1.0.2/MSDK/cloud/alicloud/src/services/dev_bind\awss_packet.c ****     char dev_name[OS_DEVICE_NAME_LEN + 1] = {0};
 850              		.loc 2 222 10 is_stmt 0
 851 0016 7546     		li	a2,29
 852              	.LVL97:
 853 0018 8145     		li	a1,0
 854              	.LVL98:
 855 001a 0810     		addi	a0,sp,32
 856              	.LVL99:
 221:C:/Users/stapi/OneDrive/Desktop/GD32VW553/V1_MQTT_OK/GD32VW55X_Wifi_BLE_SDK/GD32VW55x_RELEASE_V1.0.2/MSDK/cloud/alicloud/src/services/dev_bind\awss_packet.c ****     char dev_name[OS_DEVICE_NAME_LEN + 1] = {0};
 857              		.loc 2 221 10
 858 001c 02C2     		sw	zero,4(sp)
 859 001e 02C4     		sw	zero,8(sp)
 860 0020 02C6     		sw	zero,12(sp)
 861 0022 02C8     		sw	zero,16(sp)
 862 0024 02CA     		sw	zero,20(sp)
 863 0026 230C0100 		sb	zero,24(sp)
 864              		.loc 2 222 5 is_stmt 1
 865              		.loc 2 222 10 is_stmt 0
 866 002a 02CE     		sw	zero,28(sp)
 867 002c 97000000 		call	memset
 867      E7800000 
 868              	.LVL100:
 223:C:/Users/stapi/OneDrive/Desktop/GD32VW553/V1_MQTT_OK/GD32VW55X_Wifi_BLE_SDK/GD32VW55x_RELEASE_V1.0.2/MSDK/cloud/alicloud/src/services/dev_bind\awss_packet.c **** 
 224:C:/Users/stapi/OneDrive/Desktop/GD32VW553/V1_MQTT_OK/GD32VW55X_Wifi_BLE_SDK/GD32VW55x_RELEASE_V1.0.2/MSDK/cloud/alicloud/src/services/dev_bind\awss_packet.c ****     os_product_get_key(pk);
 869              		.loc 2 224 5 is_stmt 1
 870              	.LBB110:
 871              	.LBB111:
1011:..\..\..\..\cloud\alicloud\src\services\dev_bind\os/os.h **** }
 872              		.loc 1 1011 5
1011:..\..\..\..\cloud\alicloud\src\services\dev_bind\os/os.h **** }
 873              		.loc 1 1011 12 is_stmt 0
 874 0034 4800     		addi	a0,sp,4
 875              	.LVL101:
 876 0036 97000000 		call	HAL_GetProductKey
 876      E7800000 
 877              	.LVL102:
 878              	.LBE111:
 879              	.LBE110:
 225:C:/Users/stapi/OneDrive/Desktop/GD32VW553/V1_MQTT_OK/GD32VW55X_Wifi_BLE_SDK/GD32VW55x_RELEASE_V1.0.2/MSDK/cloud/alicloud/src/services/dev_bind\awss_packet.c ****     os_device_get_name(dev_name);
 880              		.loc 2 225 5 is_stmt 1
 881              	.LBB112:
 882              	.LBB113:
 883              		.loc 1 1050 5
 884              		.loc 1 1050 12 is_stmt 0
 885 003e 6808     		addi	a0,sp,28
 886              	.LVL103:
 887 0040 97000000 		call	HAL_GetDeviceName
 887      E7800000 
 888              	.LVL104:
 889              	.LBE113:
 890              	.LBE112:
 226:C:/Users/stapi/OneDrive/Desktop/GD32VW553/V1_MQTT_OK/GD32VW55X_Wifi_BLE_SDK/GD32VW55x_RELEASE_V1.0.2/MSDK/cloud/alicloud/src/services/dev_bind\awss_packet.c **** 
 227:C:/Users/stapi/OneDrive/Desktop/GD32VW553/V1_MQTT_OK/GD32VW55X_Wifi_BLE_SDK/GD32VW55x_RELEASE_V1.0.2/MSDK/cloud/alicloud/src/services/dev_bind\awss_packet.c ****     snprintf(topic, tlen - 1, topic_fmt, pk, dev_name);
 891              		.loc 2 227 5 is_stmt 1
 892 0048 7808     		addi	a4,sp,28
 893 004a 5400     		addi	a3,sp,4
 894 004c 4A86     		mv	a2,s2
 895 004e 9385F4FF 		addi	a1,s1,-1
 896 0052 2285     		mv	a0,s0
 897 0054 97000000 		call	snprintf
 897      E7800000 
 898              	.LVL105:
 228:C:/Users/stapi/OneDrive/Desktop/GD32VW553/V1_MQTT_OK/GD32VW55X_Wifi_BLE_SDK/GD32VW55x_RELEASE_V1.0.2/MSDK/cloud/alicloud/src/services/dev_bind\awss_packet.c **** 
 229:C:/Users/stapi/OneDrive/Desktop/GD32VW553/V1_MQTT_OK/GD32VW55X_Wifi_BLE_SDK/GD32VW55x_RELEASE_V1.0.2/MSDK/cloud/alicloud/src/services/dev_bind\awss_packet.c ****     return topic;
 899              		.loc 2 229 5
 900              	.L54:
 230:C:/Users/stapi/OneDrive/Desktop/GD32VW553/V1_MQTT_OK/GD32VW55X_Wifi_BLE_SDK/GD32VW55x_RELEASE_V1.0.2/MSDK/cloud/alicloud/src/services/dev_bind\awss_packet.c **** }
 901              		.loc 2 230 1 is_stmt 0
 902 005c 2285     		mv	a0,s0
 903 005e 2161     		addi	sp,sp,64
 904              		.cfi_remember_state
 905              		.cfi_def_cfa_offset 0
 906 0060 17030000 		tail	__riscv_restore_3
 906      67000300 
 907              		.cfi_restore 18
 908              		.cfi_restore 9
 909              		.cfi_restore 8
 910              		.cfi_restore 1
 911              		.cfi_def_cfa_offset -16
 912              	.LVL106:
 913              	.L56:
 914              		.cfi_restore_state
 218:C:/Users/stapi/OneDrive/Desktop/GD32VW553/V1_MQTT_OK/GD32VW55X_Wifi_BLE_SDK/GD32VW55x_RELEASE_V1.0.2/MSDK/cloud/alicloud/src/services/dev_bind\awss_packet.c ****     }
 915              		.loc 2 218 16
 916 0068 0144     		li	s0,0
 917              	.LVL107:
 918 006a CDBF     		j	.L54
 919              		.cfi_endproc
 920              	.LFE68:
 922              		.section	.rodata.awss_build_packet.str1.4,"aMS",@progbits,1
 923              		.align	2
 924              	.LC9:
 925 0000 7B226964 		.string	"{\"id\":%s,\"version\":\"%s\",\"method\":\"%s\",\"params\":%s}"
 925      223A2573 
 925      2C227665 
 925      7273696F 
 925      6E223A22 
 926 0033 00       		.align	2
 927              	.LC10:
 928 0034 7B226964 		.string	"{\"id\":%s,\"code\":%d,\"data\":%s}"
 928      223A2573 
 928      2C22636F 
 928      6465223A 
 928      25642C22 
 929              		.section	.text.awss_build_packet,"ax",@progbits
 930              		.align	1
 931              		.globl	awss_build_packet
 933              	awss_build_packet:
 934              	.LFB69:
 231:C:/Users/stapi/OneDrive/Desktop/GD32VW553/V1_MQTT_OK/GD32VW55X_Wifi_BLE_SDK/GD32VW55x_RELEASE_V1.0.2/MSDK/cloud/alicloud/src/services/dev_bind\awss_packet.c **** 
 232:C:/Users/stapi/OneDrive/Desktop/GD32VW553/V1_MQTT_OK/GD32VW55X_Wifi_BLE_SDK/GD32VW55x_RELEASE_V1.0.2/MSDK/cloud/alicloud/src/services/dev_bind\awss_packet.c **** int awss_build_packet(int type, void *id, void *ver, void *method, void *data, int code, void *pack
 233:C:/Users/stapi/OneDrive/Desktop/GD32VW553/V1_MQTT_OK/GD32VW55X_Wifi_BLE_SDK/GD32VW55x_RELEASE_V1.0.2/MSDK/cloud/alicloud/src/services/dev_bind\awss_packet.c **** {
 935              		.loc 2 233 1 is_stmt 1
 936              		.cfi_startproc
 937              	.LVL108:
 234:C:/Users/stapi/OneDrive/Desktop/GD32VW553/V1_MQTT_OK/GD32VW55X_Wifi_BLE_SDK/GD32VW55x_RELEASE_V1.0.2/MSDK/cloud/alicloud/src/services/dev_bind\awss_packet.c **** 
 235:C:/Users/stapi/OneDrive/Desktop/GD32VW553/V1_MQTT_OK/GD32VW55X_Wifi_BLE_SDK/GD32VW55x_RELEASE_V1.0.2/MSDK/cloud/alicloud/src/services/dev_bind\awss_packet.c ****     if (packet_len == NULL || data == NULL || packet == NULL) {
 938              		.loc 2 235 5
 939              		.loc 2 235 8 is_stmt 0
 940 0000 638E0806 		beq	a7,zero,.L64
 233:C:/Users/stapi/OneDrive/Desktop/GD32VW553/V1_MQTT_OK/GD32VW55X_Wifi_BLE_SDK/GD32VW55x_RELEASE_V1.0.2/MSDK/cloud/alicloud/src/services/dev_bind\awss_packet.c **** 
 941              		.loc 2 233 1 discriminator 1
 942 0004 17030000 		call	t0,__riscv_save_0
 942      E7020300 
 943              		.cfi_offset 1, -4
 944              		.cfi_def_cfa_offset 16
 945 000c 3A8E     		mv	t3,a4
 236:C:/Users/stapi/OneDrive/Desktop/GD32VW553/V1_MQTT_OK/GD32VW55X_Wifi_BLE_SDK/GD32VW55x_RELEASE_V1.0.2/MSDK/cloud/alicloud/src/services/dev_bind\awss_packet.c ****         return STATE_USER_INPUT_NULL_POINTER;
 946              		.loc 2 236 16 discriminator 1
 947 000e 1303F0EF 		li	t1,-257
 235:C:/Users/stapi/OneDrive/Desktop/GD32VW553/V1_MQTT_OK/GD32VW55X_Wifi_BLE_SDK/GD32VW55x_RELEASE_V1.0.2/MSDK/cloud/alicloud/src/services/dev_bind\awss_packet.c ****         return STATE_USER_INPUT_NULL_POINTER;
 948              		.loc 2 235 28 discriminator 1
 949 0012 15CF     		beq	a4,zero,.L61
 950 0014 AA8E     		mv	t4,a0
 951 0016 4285     		mv	a0,a6
 952              	.LVL109:
 235:C:/Users/stapi/OneDrive/Desktop/GD32VW553/V1_MQTT_OK/GD32VW55X_Wifi_BLE_SDK/GD32VW55x_RELEASE_V1.0.2/MSDK/cloud/alicloud/src/services/dev_bind\awss_packet.c ****         return STATE_USER_INPUT_NULL_POINTER;
 953              		.loc 2 235 44 discriminator 2
 954 0018 630B0802 		beq	a6,zero,.L61
 237:C:/Users/stapi/OneDrive/Desktop/GD32VW553/V1_MQTT_OK/GD32VW55X_Wifi_BLE_SDK/GD32VW55x_RELEASE_V1.0.2/MSDK/cloud/alicloud/src/services/dev_bind\awss_packet.c ****     }
 238:C:/Users/stapi/OneDrive/Desktop/GD32VW553/V1_MQTT_OK/GD32VW55X_Wifi_BLE_SDK/GD32VW55x_RELEASE_V1.0.2/MSDK/cloud/alicloud/src/services/dev_bind\awss_packet.c **** 
 239:C:/Users/stapi/OneDrive/Desktop/GD32VW553/V1_MQTT_OK/GD32VW55X_Wifi_BLE_SDK/GD32VW55x_RELEASE_V1.0.2/MSDK/cloud/alicloud/src/services/dev_bind\awss_packet.c ****     int len = *packet_len;
 955              		.loc 2 239 5 is_stmt 1
 956              		.loc 2 239 9 is_stmt 0
 957 001c 83A80800 		lw	a7,0(a7)
 958              	.LVL110:
 240:C:/Users/stapi/OneDrive/Desktop/GD32VW553/V1_MQTT_OK/GD32VW55X_Wifi_BLE_SDK/GD32VW55x_RELEASE_V1.0.2/MSDK/cloud/alicloud/src/services/dev_bind\awss_packet.c ****     if (len <= 0) {
 959              		.loc 2 240 5 is_stmt 1
 960              		.loc 2 240 8 is_stmt 0
 961 0020 63571003 		ble	a7,zero,.L61
 962 0024 3E87     		mv	a4,a5
 963              	.LVL111:
 241:C:/Users/stapi/OneDrive/Desktop/GD32VW553/V1_MQTT_OK/GD32VW55X_Wifi_BLE_SDK/GD32VW55x_RELEASE_V1.0.2/MSDK/cloud/alicloud/src/services/dev_bind\awss_packet.c ****         return STATE_USER_INPUT_NULL_POINTER;
 242:C:/Users/stapi/OneDrive/Desktop/GD32VW553/V1_MQTT_OK/GD32VW55X_Wifi_BLE_SDK/GD32VW55x_RELEASE_V1.0.2/MSDK/cloud/alicloud/src/services/dev_bind\awss_packet.c ****     }
 243:C:/Users/stapi/OneDrive/Desktop/GD32VW553/V1_MQTT_OK/GD32VW55X_Wifi_BLE_SDK/GD32VW55x_RELEASE_V1.0.2/MSDK/cloud/alicloud/src/services/dev_bind\awss_packet.c **** 
 244:C:/Users/stapi/OneDrive/Desktop/GD32VW553/V1_MQTT_OK/GD32VW55X_Wifi_BLE_SDK/GD32VW55x_RELEASE_V1.0.2/MSDK/cloud/alicloud/src/services/dev_bind\awss_packet.c ****     if (type == AWSS_CMP_PKT_TYPE_REQ) {
 964              		.loc 2 244 5 is_stmt 1
 965              		.loc 2 244 8 is_stmt 0
 966 0026 8547     		li	a5,1
 967              	.LVL112:
 968 0028 6398FE02 		bne	t4,a5,.L63
 245:C:/Users/stapi/OneDrive/Desktop/GD32VW553/V1_MQTT_OK/GD32VW55X_Wifi_BLE_SDK/GD32VW55x_RELEASE_V1.0.2/MSDK/cloud/alicloud/src/services/dev_bind\awss_packet.c ****         if (ver == NULL || method == NULL) {
 969              		.loc 2 245 9 is_stmt 1
 970              		.loc 2 245 12 is_stmt 0
 971 002c 0DC2     		beq	a2,zero,.L61
 972              		.loc 2 245 25 discriminator 1
 973 002e 85C2     		beq	a3,zero,.L61
 246:C:/Users/stapi/OneDrive/Desktop/GD32VW553/V1_MQTT_OK/GD32VW55X_Wifi_BLE_SDK/GD32VW55x_RELEASE_V1.0.2/MSDK/cloud/alicloud/src/services/dev_bind\awss_packet.c ****             return STATE_USER_INPUT_NULL_POINTER;
 247:C:/Users/stapi/OneDrive/Desktop/GD32VW553/V1_MQTT_OK/GD32VW55X_Wifi_BLE_SDK/GD32VW55x_RELEASE_V1.0.2/MSDK/cloud/alicloud/src/services/dev_bind\awss_packet.c ****         }
 248:C:/Users/stapi/OneDrive/Desktop/GD32VW553/V1_MQTT_OK/GD32VW55X_Wifi_BLE_SDK/GD32VW55x_RELEASE_V1.0.2/MSDK/cloud/alicloud/src/services/dev_bind\awss_packet.c **** 
 249:C:/Users/stapi/OneDrive/Desktop/GD32VW553/V1_MQTT_OK/GD32VW55X_Wifi_BLE_SDK/GD32VW55x_RELEASE_V1.0.2/MSDK/cloud/alicloud/src/services/dev_bind\awss_packet.c ****         len = snprintf(packet, len - 1, AWSS_REQ_FMT, (char *)id, (char *)ver, (char *)method, (cha
 974              		.loc 2 249 9 is_stmt 1
 975              		.loc 2 249 15 is_stmt 0
 976 0030 3287     		mv	a4,a2
 977              	.LVL113:
 978 0032 37060000 		lui	a2,%hi(.LC9)
 979              	.LVL114:
 980 0036 B687     		mv	a5,a3
 981 0038 7288     		mv	a6,t3
 982              	.LVL115:
 983 003a AE86     		mv	a3,a1
 984              	.LVL116:
 985 003c 13060600 		addi	a2,a2,%lo(.LC9)
 986 0040 9385F8FF 		addi	a1,a7,-1
 987              	.LVL117:
 988 0044 97000000 		call	snprintf
 988      E7800000 
 989              	.LVL118:
 250:C:/Users/stapi/OneDrive/Desktop/GD32VW553/V1_MQTT_OK/GD32VW55X_Wifi_BLE_SDK/GD32VW55x_RELEASE_V1.0.2/MSDK/cloud/alicloud/src/services/dev_bind\awss_packet.c ****         return 0;
 990              		.loc 2 250 9 is_stmt 1
 991              	.L75:
 251:C:/Users/stapi/OneDrive/Desktop/GD32VW553/V1_MQTT_OK/GD32VW55X_Wifi_BLE_SDK/GD32VW55x_RELEASE_V1.0.2/MSDK/cloud/alicloud/src/services/dev_bind\awss_packet.c ****     } else if (type == AWSS_CMP_PKT_TYPE_RSP) {
 252:C:/Users/stapi/OneDrive/Desktop/GD32VW553/V1_MQTT_OK/GD32VW55X_Wifi_BLE_SDK/GD32VW55x_RELEASE_V1.0.2/MSDK/cloud/alicloud/src/services/dev_bind\awss_packet.c ****         len = snprintf(packet, len - 1, AWSS_ACK_FMT, (char *)id, code, (char *)data);
 253:C:/Users/stapi/OneDrive/Desktop/GD32VW553/V1_MQTT_OK/GD32VW55X_Wifi_BLE_SDK/GD32VW55x_RELEASE_V1.0.2/MSDK/cloud/alicloud/src/services/dev_bind\awss_packet.c ****         return 0;
 992              		.loc 2 253 9
 993              		.loc 2 253 16 is_stmt 0
 994 004c 0143     		li	t1,0
 995              	.L61:
 254:C:/Users/stapi/OneDrive/Desktop/GD32VW553/V1_MQTT_OK/GD32VW55X_Wifi_BLE_SDK/GD32VW55x_RELEASE_V1.0.2/MSDK/cloud/alicloud/src/services/dev_bind\awss_packet.c ****     }
 255:C:/Users/stapi/OneDrive/Desktop/GD32VW553/V1_MQTT_OK/GD32VW55X_Wifi_BLE_SDK/GD32VW55x_RELEASE_V1.0.2/MSDK/cloud/alicloud/src/services/dev_bind\awss_packet.c ****     return STATE_USER_INPUT_OUT_RANGE;
 256:C:/Users/stapi/OneDrive/Desktop/GD32VW553/V1_MQTT_OK/GD32VW55X_Wifi_BLE_SDK/GD32VW55x_RELEASE_V1.0.2/MSDK/cloud/alicloud/src/services/dev_bind\awss_packet.c **** }
 996              		.loc 2 256 1
 997 004e 1A85     		mv	a0,t1
 998 0050 17030000 		tail	__riscv_restore_0
 998      67000300 
 999              		.cfi_remember_state
 1000              		.cfi_restore 1
 1001              		.cfi_def_cfa_offset 0
 1002              	.LVL119:
 1003              	.L63:
 1004              		.cfi_restore_state
 251:C:/Users/stapi/OneDrive/Desktop/GD32VW553/V1_MQTT_OK/GD32VW55X_Wifi_BLE_SDK/GD32VW55x_RELEASE_V1.0.2/MSDK/cloud/alicloud/src/services/dev_bind\awss_packet.c ****     } else if (type == AWSS_CMP_PKT_TYPE_RSP) {
 1005              		.loc 2 251 12 is_stmt 1
 251:C:/Users/stapi/OneDrive/Desktop/GD32VW553/V1_MQTT_OK/GD32VW55X_Wifi_BLE_SDK/GD32VW55x_RELEASE_V1.0.2/MSDK/cloud/alicloud/src/services/dev_bind\awss_packet.c ****     } else if (type == AWSS_CMP_PKT_TYPE_RSP) {
 1006              		.loc 2 251 15 is_stmt 0
 1007 0058 8947     		li	a5,2
 255:C:/Users/stapi/OneDrive/Desktop/GD32VW553/V1_MQTT_OK/GD32VW55X_Wifi_BLE_SDK/GD32VW55x_RELEASE_V1.0.2/MSDK/cloud/alicloud/src/services/dev_bind\awss_packet.c **** }
 1008              		.loc 2 255 12
 1009 005a 1303E0EF 		li	t1,-258
 251:C:/Users/stapi/OneDrive/Desktop/GD32VW553/V1_MQTT_OK/GD32VW55X_Wifi_BLE_SDK/GD32VW55x_RELEASE_V1.0.2/MSDK/cloud/alicloud/src/services/dev_bind\awss_packet.c ****     } else if (type == AWSS_CMP_PKT_TYPE_RSP) {
 1010              		.loc 2 251 15
 1011 005e E398FEFE 		bne	t4,a5,.L61
 252:C:/Users/stapi/OneDrive/Desktop/GD32VW553/V1_MQTT_OK/GD32VW55X_Wifi_BLE_SDK/GD32VW55x_RELEASE_V1.0.2/MSDK/cloud/alicloud/src/services/dev_bind\awss_packet.c ****         return 0;
 1012              		.loc 2 252 9 is_stmt 1
 252:C:/Users/stapi/OneDrive/Desktop/GD32VW553/V1_MQTT_OK/GD32VW55X_Wifi_BLE_SDK/GD32VW55x_RELEASE_V1.0.2/MSDK/cloud/alicloud/src/services/dev_bind\awss_packet.c ****         return 0;
 1013              		.loc 2 252 15 is_stmt 0
 1014 0062 37060000 		lui	a2,%hi(.LC10)
 1015              	.LVL120:
 1016 0066 AE86     		mv	a3,a1
 1017              	.LVL121:
 1018 0068 F287     		mv	a5,t3
 1019 006a 13060600 		addi	a2,a2,%lo(.LC10)
 1020 006e 9385F8FF 		addi	a1,a7,-1
 1021              	.LVL122:
 1022 0072 97000000 		call	snprintf
 1022      E7800000 
 1023              	.LVL123:
 1024 007a C9BF     		j	.L75
 1025              	.LVL124:
 1026              	.L64:
 1027              		.cfi_def_cfa_offset 0
 1028              		.cfi_restore 1
 236:C:/Users/stapi/OneDrive/Desktop/GD32VW553/V1_MQTT_OK/GD32VW55X_Wifi_BLE_SDK/GD32VW55x_RELEASE_V1.0.2/MSDK/cloud/alicloud/src/services/dev_bind\awss_packet.c ****     }
 1029              		.loc 2 236 16
 1030 007c 1303F0EF 		li	t1,-257
 1031              		.loc 2 256 1
 1032 0080 1A85     		mv	a0,t1
 1033              	.LVL125:
 1034 0082 8280     		ret
 1035              		.cfi_endproc
 1036              	.LFE69:
 1038              		.section	.text.produce_random,"ax",@progbits
 1039              		.align	1
 1040              		.globl	produce_random
 1042              	produce_random:
 1043              	.LFB70:
 257:C:/Users/stapi/OneDrive/Desktop/GD32VW553/V1_MQTT_OK/GD32VW55X_Wifi_BLE_SDK/GD32VW55x_RELEASE_V1.0.2/MSDK/cloud/alicloud/src/services/dev_bind\awss_packet.c **** 
 258:C:/Users/stapi/OneDrive/Desktop/GD32VW553/V1_MQTT_OK/GD32VW55X_Wifi_BLE_SDK/GD32VW55x_RELEASE_V1.0.2/MSDK/cloud/alicloud/src/services/dev_bind\awss_packet.c **** void produce_random(uint8_t *random, uint32_t len)
 259:C:/Users/stapi/OneDrive/Desktop/GD32VW553/V1_MQTT_OK/GD32VW55X_Wifi_BLE_SDK/GD32VW55x_RELEASE_V1.0.2/MSDK/cloud/alicloud/src/services/dev_bind\awss_packet.c **** {
 1044              		.loc 2 259 1 is_stmt 1
 1045              		.cfi_startproc
 1046              	.LVL126:
 1047 0000 17030000 		call	t0,__riscv_save_2
 1047      E7020300 
 1048              		.cfi_offset 9, -12
 1049              		.cfi_offset 8, -8
 1050              		.cfi_offset 1, -4
 1051              		.cfi_def_cfa_offset 16
 260:C:/Users/stapi/OneDrive/Desktop/GD32VW553/V1_MQTT_OK/GD32VW55X_Wifi_BLE_SDK/GD32VW55x_RELEASE_V1.0.2/MSDK/cloud/alicloud/src/services/dev_bind\awss_packet.c ****     int i = 0;
 1052              		.loc 2 260 5
 1053              	.LVL127:
 261:C:/Users/stapi/OneDrive/Desktop/GD32VW553/V1_MQTT_OK/GD32VW55X_Wifi_BLE_SDK/GD32VW55x_RELEASE_V1.0.2/MSDK/cloud/alicloud/src/services/dev_bind\awss_packet.c ****     int time = HAL_UptimeMs();
 1054              		.loc 2 261 5
 259:C:/Users/stapi/OneDrive/Desktop/GD32VW553/V1_MQTT_OK/GD32VW55X_Wifi_BLE_SDK/GD32VW55x_RELEASE_V1.0.2/MSDK/cloud/alicloud/src/services/dev_bind\awss_packet.c ****     int i = 0;
 1055              		.loc 2 259 1 is_stmt 0
 1056 0008 2A84     		mv	s0,a0
 1057 000a AE84     		mv	s1,a1
 1058              		.loc 2 261 16
 1059 000c 97000000 		call	HAL_UptimeMs
 1059      E7800000 
 1060              	.LVL128:
 262:C:/Users/stapi/OneDrive/Desktop/GD32VW553/V1_MQTT_OK/GD32VW55X_Wifi_BLE_SDK/GD32VW55x_RELEASE_V1.0.2/MSDK/cloud/alicloud/src/services/dev_bind\awss_packet.c ****     HAL_Srandom(time);
 1061              		.loc 2 262 5 is_stmt 1
 1062 0014 97000000 		call	HAL_Srandom
 1062      E7800000 
 1063              	.LVL129:
 263:C:/Users/stapi/OneDrive/Desktop/GD32VW553/V1_MQTT_OK/GD32VW55X_Wifi_BLE_SDK/GD32VW55x_RELEASE_V1.0.2/MSDK/cloud/alicloud/src/services/dev_bind\awss_packet.c ****     for (i = 0; i < len; i ++) {
 1064              		.loc 2 263 5
 1065 001c A294     		add	s1,s0,s1
 1066              	.LVL130:
 1067              	.L77:
 1068              		.loc 2 263 17 discriminator 1
 1069              		.loc 2 263 5 is_stmt 0 discriminator 1
 1070 001e 631A9400 		bne	s0,s1,.L78
 264:C:/Users/stapi/OneDrive/Desktop/GD32VW553/V1_MQTT_OK/GD32VW55X_Wifi_BLE_SDK/GD32VW55x_RELEASE_V1.0.2/MSDK/cloud/alicloud/src/services/dev_bind\awss_packet.c ****         random[i] = HAL_Random(0xFF);
 265:C:/Users/stapi/OneDrive/Desktop/GD32VW553/V1_MQTT_OK/GD32VW55X_Wifi_BLE_SDK/GD32VW55x_RELEASE_V1.0.2/MSDK/cloud/alicloud/src/services/dev_bind\awss_packet.c ****     }
 266:C:/Users/stapi/OneDrive/Desktop/GD32VW553/V1_MQTT_OK/GD32VW55X_Wifi_BLE_SDK/GD32VW55x_RELEASE_V1.0.2/MSDK/cloud/alicloud/src/services/dev_bind\awss_packet.c ****     // random produced by device, set bind token type to device token
 267:C:/Users/stapi/OneDrive/Desktop/GD32VW553/V1_MQTT_OK/GD32VW55X_Wifi_BLE_SDK/GD32VW55x_RELEASE_V1.0.2/MSDK/cloud/alicloud/src/services/dev_bind\awss_packet.c ****     g_token_type = TOKEN_TYPE_NOT_CLOUD;
 1071              		.loc 2 267 5 is_stmt 1
 1072              		.loc 2 267 18 is_stmt 0
 1073 0022 B7070000 		lui	a5,%hi(g_token_type)
 1074 0026 23800700 		sb	zero,%lo(g_token_type)(a5)
 268:C:/Users/stapi/OneDrive/Desktop/GD32VW553/V1_MQTT_OK/GD32VW55X_Wifi_BLE_SDK/GD32VW55x_RELEASE_V1.0.2/MSDK/cloud/alicloud/src/services/dev_bind\awss_packet.c **** }
 1075              		.loc 2 268 1
 1076 002a 17030000 		tail	__riscv_restore_2
 1076      67000300 
 1077              		.cfi_remember_state
 1078              		.cfi_restore 9
 1079              		.cfi_restore 8
 1080              		.cfi_restore 1
 1081              		.cfi_def_cfa_offset 0
 1082              	.L78:
 1083              		.cfi_restore_state
 264:C:/Users/stapi/OneDrive/Desktop/GD32VW553/V1_MQTT_OK/GD32VW55X_Wifi_BLE_SDK/GD32VW55x_RELEASE_V1.0.2/MSDK/cloud/alicloud/src/services/dev_bind\awss_packet.c ****         random[i] = HAL_Random(0xFF);
 1084              		.loc 2 264 9 is_stmt 1 discriminator 3
 264:C:/Users/stapi/OneDrive/Desktop/GD32VW553/V1_MQTT_OK/GD32VW55X_Wifi_BLE_SDK/GD32VW55x_RELEASE_V1.0.2/MSDK/cloud/alicloud/src/services/dev_bind\awss_packet.c ****         random[i] = HAL_Random(0xFF);
 1085              		.loc 2 264 21 is_stmt 0 discriminator 3
 1086 0032 1305F00F 		li	a0,255
 1087 0036 97000000 		call	HAL_Random
 1087      E7800000 
 1088              	.LVL131:
 264:C:/Users/stapi/OneDrive/Desktop/GD32VW553/V1_MQTT_OK/GD32VW55X_Wifi_BLE_SDK/GD32VW55x_RELEASE_V1.0.2/MSDK/cloud/alicloud/src/services/dev_bind\awss_packet.c ****         random[i] = HAL_Random(0xFF);
 1089              		.loc 2 264 19 discriminator 3
 1090 003e 2300A400 		sb	a0,0(s0)
 263:C:/Users/stapi/OneDrive/Desktop/GD32VW553/V1_MQTT_OK/GD32VW55X_Wifi_BLE_SDK/GD32VW55x_RELEASE_V1.0.2/MSDK/cloud/alicloud/src/services/dev_bind\awss_packet.c ****     for (i = 0; i < len; i ++) {
 1091              		.loc 2 263 26 is_stmt 1 discriminator 3
 1092              	.LVL132:
 1093 0042 0504     		addi	s0,s0,1
 1094              	.LVL133:
 1095 0044 E9BF     		j	.L77
 1096              		.cfi_endproc
 1097              	.LFE70:
 1099              		.text
 1100              	.Letext0:
 1101              		.file 3 "c:\\users\\stapi\\onedrive\\desktop\\gd32vw553\\embeddedbuilder_v1.4.7.26843\\tools\\nucl
 1102              		.file 4 "c:\\users\\stapi\\onedrive\\desktop\\gd32vw553\\embeddedbuilder_v1.4.7.26843\\tools\\nucl
 1103              		.file 5 "..\\..\\..\\..\\cloud\\alicloud\\include/iot_export.h"
 1104              		.file 6 "C:/Users/stapi/OneDrive/Desktop/GD32VW553/V1_MQTT_OK/GD32VW55X_Wifi_BLE_SDK/GD32VW55x_REL
 1105              		.file 7 "C:/Users/stapi/OneDrive/Desktop/GD32VW553/V1_MQTT_OK/GD32VW55X_Wifi_BLE_SDK/GD32VW55x_REL
 1106              		.file 8 "C:/Users/stapi/OneDrive/Desktop/GD32VW553/V1_MQTT_OK/GD32VW55X_Wifi_BLE_SDK/GD32VW55x_REL
 1107              		.file 9 "..\\..\\..\\..\\cloud\\alicloud\\src\\infra\\utils\\misc/lite-cjson.h"
 1108              		.file 10 "..\\..\\..\\..\\cloud\\alicloud\\include/iot_import.h"
 1109              		.file 11 "c:\\users\\stapi\\onedrive\\desktop\\gd32vw553\\embeddedbuilder_v1.4.7.26843\\tools\\nuc
 1110              		.file 12 "..\\..\\..\\..\\cloud\\alicloud\\include/imports/iot_import_product.h"
 1111              		.file 13 "c:\\users\\stapi\\onedrive\\desktop\\gd32vw553\\embeddedbuilder_v1.4.7.26843\\tools\\nuc
 1112              		.file 14 "<built-in>"
 1113              		.file 15 "C:/Users/stapi/OneDrive/Desktop/GD32VW553/V1_MQTT_OK/GD32VW55X_Wifi_BLE_SDK/GD32VW55x_RE
 1114              		.file 16 "..\\..\\..\\..\\cloud\\alicloud\\include/imports/iot_import_awss.h"
 1115              		.file 17 "..\\..\\..\\..\\cloud\\alicloud\\src\\infra\\utils/iotx_utils.h"