   1              		.file	"awss_cmp_coap.c"
   2              		.option nopic
   3              		.attribute arch, "rv32i2p0_m2p0_a2p0_f2p0_c2p0_b_p0p94"
   4              		.attribute unaligned_access, 0
   5              		.attribute stack_align, 16
   6              		.text
   7              	.Ltext0:
   8              		.cfi_sections	.debug_frame
   9              		.section	.text.os_zalloc,"ax",@progbits
  10              		.align	1
  12              	os_zalloc:
  13              	.LFB18:
  14              		.file 1 "..\\..\\..\\..\\cloud\\alicloud\\src\\services\\dev_bind\\os/os.h"
   1:..\..\..\..\cloud\alicloud\src\services\dev_bind\os/os.h **** /*
   2:..\..\..\..\cloud\alicloud\src\services\dev_bind\os/os.h ****  * Copyright (C) 2015-2018 Alibaba Group Holding Limited
   3:..\..\..\..\cloud\alicloud\src\services\dev_bind\os/os.h ****  */
   4:..\..\..\..\cloud\alicloud\src\services\dev_bind\os/os.h **** 
   5:..\..\..\..\cloud\alicloud\src\services\dev_bind\os/os.h **** #ifndef __AWSS_OS_H__
   6:..\..\..\..\cloud\alicloud\src\services\dev_bind\os/os.h **** #define __AWSS_OS_H__
   7:..\..\..\..\cloud\alicloud\src\services\dev_bind\os/os.h **** 
   8:..\..\..\..\cloud\alicloud\src\services\dev_bind\os/os.h **** #ifdef __cplusplus
   9:..\..\..\..\cloud\alicloud\src\services\dev_bind\os/os.h **** extern "C" {
  10:..\..\..\..\cloud\alicloud\src\services\dev_bind\os/os.h **** #endif
  11:..\..\..\..\cloud\alicloud\src\services\dev_bind\os/os.h **** #include <ctype.h>
  12:..\..\..\..\cloud\alicloud\src\services\dev_bind\os/os.h **** #include "iot_import.h"
  13:..\..\..\..\cloud\alicloud\src\services\dev_bind\os/os.h **** #include "iot_export.h"
  14:..\..\..\..\cloud\alicloud\src\services\dev_bind\os/os.h **** #include "product/product.h"
  15:..\..\..\..\cloud\alicloud\src\services\dev_bind\os/os.h **** #include "platform.h"
  16:..\..\..\..\cloud\alicloud\src\services\dev_bind\os/os.h **** 
  17:..\..\..\..\cloud\alicloud\src\services\dev_bind\os/os.h **** /** @defgroup group_os os
  18:..\..\..\..\cloud\alicloud\src\services\dev_bind\os/os.h ****  *  @{
  19:..\..\..\..\cloud\alicloud\src\services\dev_bind\os/os.h ****  */
  20:..\..\..\..\cloud\alicloud\src\services\dev_bind\os/os.h **** 
  21:..\..\..\..\cloud\alicloud\src\services\dev_bind\os/os.h **** #define OS_MAX_SSID_LEN         PLATFORM_MAX_SSID_LEN
  22:..\..\..\..\cloud\alicloud\src\services\dev_bind\os/os.h **** #define OS_MAX_PASSWD_LEN       PLATFORM_MAX_PASSWD_LEN
  23:..\..\..\..\cloud\alicloud\src\services\dev_bind\os/os.h **** 
  24:..\..\..\..\cloud\alicloud\src\services\dev_bind\os/os.h **** #define OS_MAC_LEN              PLATFORM_MAC_LEN
  25:..\..\..\..\cloud\alicloud\src\services\dev_bind\os/os.h **** #define OS_IP_LEN               PLATFORM_IP_LEN
  26:..\..\..\..\cloud\alicloud\src\services\dev_bind\os/os.h **** #define OS_ETH_ALEN             ETH_ALEN
  27:..\..\..\..\cloud\alicloud\src\services\dev_bind\os/os.h **** 
  28:..\..\..\..\cloud\alicloud\src\services\dev_bind\os/os.h **** #define OS_PRODUCT_KEY_LEN      PRODUCT_KEY_LEN
  29:..\..\..\..\cloud\alicloud\src\services\dev_bind\os/os.h **** #define OS_PRODUCT_SECRET_LEN   PRODUCT_SECRET_LEN
  30:..\..\..\..\cloud\alicloud\src\services\dev_bind\os/os.h **** #define OS_DEVICE_NAME_LEN      DEVICE_NAME_LEN
  31:..\..\..\..\cloud\alicloud\src\services\dev_bind\os/os.h **** #define OS_DEVICE_SECRET_LEN    DEVICE_SECRET_LEN
  32:..\..\..\..\cloud\alicloud\src\services\dev_bind\os/os.h **** 
  33:..\..\..\..\cloud\alicloud\src\services\dev_bind\os/os.h **** /***************************************** Misc Interface *****************************************
  34:..\..\..\..\cloud\alicloud\src\services\dev_bind\os/os.h **** 
  35:..\..\..\..\cloud\alicloud\src\services\dev_bind\os/os.h **** /** @defgroup group_misc misc
  36:..\..\..\..\cloud\alicloud\src\services\dev_bind\os/os.h ****  *  @{
  37:..\..\..\..\cloud\alicloud\src\services\dev_bind\os/os.h ****  */
  38:..\..\..\..\cloud\alicloud\src\services\dev_bind\os/os.h **** /**
  39:..\..\..\..\cloud\alicloud\src\services\dev_bind\os/os.h ****  * @brief .
  40:..\..\..\..\cloud\alicloud\src\services\dev_bind\os/os.h ****  *
  41:..\..\..\..\cloud\alicloud\src\services\dev_bind\os/os.h ****  * @param None.
  42:..\..\..\..\cloud\alicloud\src\services\dev_bind\os/os.h ****  * @return
  43:..\..\..\..\cloud\alicloud\src\services\dev_bind\os/os.h ****  * @verbatim
  44:..\..\..\..\cloud\alicloud\src\services\dev_bind\os/os.h ****  * = 0, This platform is little endian.
  45:..\..\..\..\cloud\alicloud\src\services\dev_bind\os/os.h ****  * = 1, This platform is big endian.
  46:..\..\..\..\cloud\alicloud\src\services\dev_bind\os/os.h ****  * @endverbatim
  47:..\..\..\..\cloud\alicloud\src\services\dev_bind\os/os.h ****  * @see None.
  48:..\..\..\..\cloud\alicloud\src\services\dev_bind\os/os.h ****  * @note None.
  49:..\..\..\..\cloud\alicloud\src\services\dev_bind\os/os.h ****  */
  50:..\..\..\..\cloud\alicloud\src\services\dev_bind\os/os.h **** static inline int os_is_big_endian(void)
  51:..\..\..\..\cloud\alicloud\src\services\dev_bind\os/os.h **** {
  52:..\..\..\..\cloud\alicloud\src\services\dev_bind\os/os.h ****     uint32_t data = 0xFF000000;
  53:..\..\..\..\cloud\alicloud\src\services\dev_bind\os/os.h **** 
  54:..\..\..\..\cloud\alicloud\src\services\dev_bind\os/os.h ****     if (0xFF == *(uint8_t *) & data) {
  55:..\..\..\..\cloud\alicloud\src\services\dev_bind\os/os.h ****         return 1;                                    //big endian
  56:..\..\..\..\cloud\alicloud\src\services\dev_bind\os/os.h ****     }
  57:..\..\..\..\cloud\alicloud\src\services\dev_bind\os/os.h **** 
  58:..\..\..\..\cloud\alicloud\src\services\dev_bind\os/os.h ****     return 0;                                        //little endian
  59:..\..\..\..\cloud\alicloud\src\services\dev_bind\os/os.h **** }
  60:..\..\..\..\cloud\alicloud\src\services\dev_bind\os/os.h **** 
  61:..\..\..\..\cloud\alicloud\src\services\dev_bind\os/os.h **** /**
  62:..\..\..\..\cloud\alicloud\src\services\dev_bind\os/os.h ****  * @brief Convert the data from byte order of current CPU(the "host") to big-endian.
  63:..\..\..\..\cloud\alicloud\src\services\dev_bind\os/os.h ****    The size of the data is 16 bits.
  64:..\..\..\..\cloud\alicloud\src\services\dev_bind\os/os.h ****  *
  65:..\..\..\..\cloud\alicloud\src\services\dev_bind\os/os.h ****  * @param[in] data @n Data to be converted.
  66:..\..\..\..\cloud\alicloud\src\services\dev_bind\os/os.h ****  * @return Conversion result.
  67:..\..\..\..\cloud\alicloud\src\services\dev_bind\os/os.h ****  * @see None.
  68:..\..\..\..\cloud\alicloud\src\services\dev_bind\os/os.h ****  * @note None.
  69:..\..\..\..\cloud\alicloud\src\services\dev_bind\os/os.h ****  */
  70:..\..\..\..\cloud\alicloud\src\services\dev_bind\os/os.h **** uint16_t os_htobe16(uint16_t data);
  71:..\..\..\..\cloud\alicloud\src\services\dev_bind\os/os.h **** 
  72:..\..\..\..\cloud\alicloud\src\services\dev_bind\os/os.h **** /**
  73:..\..\..\..\cloud\alicloud\src\services\dev_bind\os/os.h ****  * @brief Convert the data from host to little-endian.
  74:..\..\..\..\cloud\alicloud\src\services\dev_bind\os/os.h ****    The size of the data is 16 bits.
  75:..\..\..\..\cloud\alicloud\src\services\dev_bind\os/os.h ****  *
  76:..\..\..\..\cloud\alicloud\src\services\dev_bind\os/os.h ****  * @param[in] data @n Data to be converted.
  77:..\..\..\..\cloud\alicloud\src\services\dev_bind\os/os.h ****  * @return Conversion result.
  78:..\..\..\..\cloud\alicloud\src\services\dev_bind\os/os.h ****  * @see None.
  79:..\..\..\..\cloud\alicloud\src\services\dev_bind\os/os.h ****  * @note None.
  80:..\..\..\..\cloud\alicloud\src\services\dev_bind\os/os.h ****  */
  81:..\..\..\..\cloud\alicloud\src\services\dev_bind\os/os.h **** uint16_t os_htole16(uint16_t data);
  82:..\..\..\..\cloud\alicloud\src\services\dev_bind\os/os.h **** 
  83:..\..\..\..\cloud\alicloud\src\services\dev_bind\os/os.h **** /**
  84:..\..\..\..\cloud\alicloud\src\services\dev_bind\os/os.h ****  * @brief Convert the data from big-endian to host.
  85:..\..\..\..\cloud\alicloud\src\services\dev_bind\os/os.h ****    The size of the data is 16 bits.
  86:..\..\..\..\cloud\alicloud\src\services\dev_bind\os/os.h ****  *
  87:..\..\..\..\cloud\alicloud\src\services\dev_bind\os/os.h ****  * @param[in] data @n Data to be converted.
  88:..\..\..\..\cloud\alicloud\src\services\dev_bind\os/os.h ****  * @return Conversion result.
  89:..\..\..\..\cloud\alicloud\src\services\dev_bind\os/os.h ****  * @see None.
  90:..\..\..\..\cloud\alicloud\src\services\dev_bind\os/os.h ****  * @note None.
  91:..\..\..\..\cloud\alicloud\src\services\dev_bind\os/os.h ****  */
  92:..\..\..\..\cloud\alicloud\src\services\dev_bind\os/os.h **** uint16_t os_be16toh(uint16_t data);
  93:..\..\..\..\cloud\alicloud\src\services\dev_bind\os/os.h **** 
  94:..\..\..\..\cloud\alicloud\src\services\dev_bind\os/os.h **** /**
  95:..\..\..\..\cloud\alicloud\src\services\dev_bind\os/os.h ****  * @brief Convert the data from little-endian to host.
  96:..\..\..\..\cloud\alicloud\src\services\dev_bind\os/os.h ****    The size of the data is 16 bits.
  97:..\..\..\..\cloud\alicloud\src\services\dev_bind\os/os.h ****  *
  98:..\..\..\..\cloud\alicloud\src\services\dev_bind\os/os.h ****  * @param[in] data @n Data to be converted.
  99:..\..\..\..\cloud\alicloud\src\services\dev_bind\os/os.h ****  * @return Conversion result.
 100:..\..\..\..\cloud\alicloud\src\services\dev_bind\os/os.h ****  * @see None.
 101:..\..\..\..\cloud\alicloud\src\services\dev_bind\os/os.h ****  * @note None.
 102:..\..\..\..\cloud\alicloud\src\services\dev_bind\os/os.h ****  */
 103:..\..\..\..\cloud\alicloud\src\services\dev_bind\os/os.h **** uint16_t os_le16toh(uint16_t data);
 104:..\..\..\..\cloud\alicloud\src\services\dev_bind\os/os.h **** 
 105:..\..\..\..\cloud\alicloud\src\services\dev_bind\os/os.h **** /**
 106:..\..\..\..\cloud\alicloud\src\services\dev_bind\os/os.h ****  * @brief Convert the data from little-endian to host.
 107:..\..\..\..\cloud\alicloud\src\services\dev_bind\os/os.h ****    The size of the data is 32 bits.
 108:..\..\..\..\cloud\alicloud\src\services\dev_bind\os/os.h ****  *
 109:..\..\..\..\cloud\alicloud\src\services\dev_bind\os/os.h ****  * @param[in] data @n Data to be converted.
 110:..\..\..\..\cloud\alicloud\src\services\dev_bind\os/os.h ****  * @return Conversion result.
 111:..\..\..\..\cloud\alicloud\src\services\dev_bind\os/os.h ****  * @see None.
 112:..\..\..\..\cloud\alicloud\src\services\dev_bind\os/os.h ****  * @note None.
 113:..\..\..\..\cloud\alicloud\src\services\dev_bind\os/os.h ****  */
 114:..\..\..\..\cloud\alicloud\src\services\dev_bind\os/os.h **** uint32_t os_le32toh(uint32_t data);
 115:..\..\..\..\cloud\alicloud\src\services\dev_bind\os/os.h **** 
 116:..\..\..\..\cloud\alicloud\src\services\dev_bind\os/os.h **** /**
 117:..\..\..\..\cloud\alicloud\src\services\dev_bind\os/os.h ****  * @brief Convert the data from host to big-endian.
 118:..\..\..\..\cloud\alicloud\src\services\dev_bind\os/os.h ****    The size of the data is 64 bits.
 119:..\..\..\..\cloud\alicloud\src\services\dev_bind\os/os.h ****  *
 120:..\..\..\..\cloud\alicloud\src\services\dev_bind\os/os.h ****  * @param[in] data @n Data to be converted.
 121:..\..\..\..\cloud\alicloud\src\services\dev_bind\os/os.h ****  * @return Conversion result.
 122:..\..\..\..\cloud\alicloud\src\services\dev_bind\os/os.h ****  * @see None.
 123:..\..\..\..\cloud\alicloud\src\services\dev_bind\os/os.h ****  * @note None.
 124:..\..\..\..\cloud\alicloud\src\services\dev_bind\os/os.h ****  */
 125:..\..\..\..\cloud\alicloud\src\services\dev_bind\os/os.h **** //uint64_t os_htobe64(uint64_t data);
 126:..\..\..\..\cloud\alicloud\src\services\dev_bind\os/os.h **** 
 127:..\..\..\..\cloud\alicloud\src\services\dev_bind\os/os.h **** /**
 128:..\..\..\..\cloud\alicloud\src\services\dev_bind\os/os.h ****  * @brief Convert the data from host to little-endian.
 129:..\..\..\..\cloud\alicloud\src\services\dev_bind\os/os.h ****    The size of the data is 64 bits.
 130:..\..\..\..\cloud\alicloud\src\services\dev_bind\os/os.h ****  *
 131:..\..\..\..\cloud\alicloud\src\services\dev_bind\os/os.h ****  * @param[in] data @n Data to be converted.
 132:..\..\..\..\cloud\alicloud\src\services\dev_bind\os/os.h ****  * @return Conversion result.
 133:..\..\..\..\cloud\alicloud\src\services\dev_bind\os/os.h ****  * @see None.
 134:..\..\..\..\cloud\alicloud\src\services\dev_bind\os/os.h ****  * @note None.
 135:..\..\..\..\cloud\alicloud\src\services\dev_bind\os/os.h ****  */
 136:..\..\..\..\cloud\alicloud\src\services\dev_bind\os/os.h **** //uint64_t os_htole64(uint64_t data);
 137:..\..\..\..\cloud\alicloud\src\services\dev_bind\os/os.h **** 
 138:..\..\..\..\cloud\alicloud\src\services\dev_bind\os/os.h **** /**
 139:..\..\..\..\cloud\alicloud\src\services\dev_bind\os/os.h ****  * @brief Convert the data from big-endian to host.
 140:..\..\..\..\cloud\alicloud\src\services\dev_bind\os/os.h ****    The size of the data is 64 bits.
 141:..\..\..\..\cloud\alicloud\src\services\dev_bind\os/os.h ****  *
 142:..\..\..\..\cloud\alicloud\src\services\dev_bind\os/os.h ****  * @param[in] data @n Data to be converted.
 143:..\..\..\..\cloud\alicloud\src\services\dev_bind\os/os.h ****  * @return Conversion result.
 144:..\..\..\..\cloud\alicloud\src\services\dev_bind\os/os.h ****  * @see None.
 145:..\..\..\..\cloud\alicloud\src\services\dev_bind\os/os.h ****  * @note None.
 146:..\..\..\..\cloud\alicloud\src\services\dev_bind\os/os.h ****  */
 147:..\..\..\..\cloud\alicloud\src\services\dev_bind\os/os.h **** //uint64_t os_be64toh(uint64_t data);
 148:..\..\..\..\cloud\alicloud\src\services\dev_bind\os/os.h **** 
 149:..\..\..\..\cloud\alicloud\src\services\dev_bind\os/os.h **** /**
 150:..\..\..\..\cloud\alicloud\src\services\dev_bind\os/os.h ****  * @brief Convert the data from little-endian to host.
 151:..\..\..\..\cloud\alicloud\src\services\dev_bind\os/os.h ****    The size of the data is 64 bits.
 152:..\..\..\..\cloud\alicloud\src\services\dev_bind\os/os.h ****  *
 153:..\..\..\..\cloud\alicloud\src\services\dev_bind\os/os.h ****  * @param[in] data @n Data to be converted.
 154:..\..\..\..\cloud\alicloud\src\services\dev_bind\os/os.h ****  * @return Conversion result.
 155:..\..\..\..\cloud\alicloud\src\services\dev_bind\os/os.h ****  * @see None.
 156:..\..\..\..\cloud\alicloud\src\services\dev_bind\os/os.h ****  * @note None.
 157:..\..\..\..\cloud\alicloud\src\services\dev_bind\os/os.h ****  */
 158:..\..\..\..\cloud\alicloud\src\services\dev_bind\os/os.h **** //uint64_t os_le64toh(uint64_t data);
 159:..\..\..\..\cloud\alicloud\src\services\dev_bind\os/os.h **** 
 160:..\..\..\..\cloud\alicloud\src\services\dev_bind\os/os.h **** /**
 161:..\..\..\..\cloud\alicloud\src\services\dev_bind\os/os.h ****  * @brief Get unaligned 16 bits data which is big-endian and convert to host byte order.
 162:..\..\..\..\cloud\alicloud\src\services\dev_bind\os/os.h ****  *
 163:..\..\..\..\cloud\alicloud\src\services\dev_bind\os/os.h ****  * @param[in] ptr @n The start address of the unaligned data.
 164:..\..\..\..\cloud\alicloud\src\services\dev_bind\os/os.h ****  * @return Result in host byte order.
 165:..\..\..\..\cloud\alicloud\src\services\dev_bind\os/os.h ****  * @see None.
 166:..\..\..\..\cloud\alicloud\src\services\dev_bind\os/os.h ****  * @note None.
 167:..\..\..\..\cloud\alicloud\src\services\dev_bind\os/os.h ****  */
 168:..\..\..\..\cloud\alicloud\src\services\dev_bind\os/os.h **** uint16_t os_get_unaligned_be16(uint8_t *ptr);
 169:..\..\..\..\cloud\alicloud\src\services\dev_bind\os/os.h **** 
 170:..\..\..\..\cloud\alicloud\src\services\dev_bind\os/os.h **** /**
 171:..\..\..\..\cloud\alicloud\src\services\dev_bind\os/os.h ****  * @brief Get unaligned 16 bits data which is little-endian and convert to host byte order.
 172:..\..\..\..\cloud\alicloud\src\services\dev_bind\os/os.h ****  *
 173:..\..\..\..\cloud\alicloud\src\services\dev_bind\os/os.h ****  * @param[in] ptr @n The start address of the unaligned data.
 174:..\..\..\..\cloud\alicloud\src\services\dev_bind\os/os.h ****  * @return Result in host byte order.
 175:..\..\..\..\cloud\alicloud\src\services\dev_bind\os/os.h ****  * @see None.
 176:..\..\..\..\cloud\alicloud\src\services\dev_bind\os/os.h ****  * @note None.
 177:..\..\..\..\cloud\alicloud\src\services\dev_bind\os/os.h ****  */
 178:..\..\..\..\cloud\alicloud\src\services\dev_bind\os/os.h **** uint16_t os_get_unaligned_le16(uint8_t *ptr);
 179:..\..\..\..\cloud\alicloud\src\services\dev_bind\os/os.h **** 
 180:..\..\..\..\cloud\alicloud\src\services\dev_bind\os/os.h **** /**
 181:..\..\..\..\cloud\alicloud\src\services\dev_bind\os/os.h ****  * @brief Get unaligned 32 bits data which is big-endian and convert to host byte order.
 182:..\..\..\..\cloud\alicloud\src\services\dev_bind\os/os.h ****  *
 183:..\..\..\..\cloud\alicloud\src\services\dev_bind\os/os.h ****  * @param[in] ptr @n The start address of the unaligned data.
 184:..\..\..\..\cloud\alicloud\src\services\dev_bind\os/os.h ****  * @return Result in host byte order.
 185:..\..\..\..\cloud\alicloud\src\services\dev_bind\os/os.h ****  * @see None.
 186:..\..\..\..\cloud\alicloud\src\services\dev_bind\os/os.h ****  * @note None.
 187:..\..\..\..\cloud\alicloud\src\services\dev_bind\os/os.h ****  */
 188:..\..\..\..\cloud\alicloud\src\services\dev_bind\os/os.h **** uint32_t os_get_unaligned_be32(uint8_t *ptr);
 189:..\..\..\..\cloud\alicloud\src\services\dev_bind\os/os.h **** 
 190:..\..\..\..\cloud\alicloud\src\services\dev_bind\os/os.h **** /**
 191:..\..\..\..\cloud\alicloud\src\services\dev_bind\os/os.h ****  * @brief Get unaligned 32 bits data which is little-endian and convert to host byte order.
 192:..\..\..\..\cloud\alicloud\src\services\dev_bind\os/os.h ****  *
 193:..\..\..\..\cloud\alicloud\src\services\dev_bind\os/os.h ****  * @param[in] ptr @n The start address of the unaligned data.
 194:..\..\..\..\cloud\alicloud\src\services\dev_bind\os/os.h ****  * @return Result in host byte order.
 195:..\..\..\..\cloud\alicloud\src\services\dev_bind\os/os.h ****  * @see None.
 196:..\..\..\..\cloud\alicloud\src\services\dev_bind\os/os.h ****  * @note None.
 197:..\..\..\..\cloud\alicloud\src\services\dev_bind\os/os.h ****  */
 198:..\..\..\..\cloud\alicloud\src\services\dev_bind\os/os.h **** uint32_t os_get_unaligned_le32(uint8_t *ptr);
 199:..\..\..\..\cloud\alicloud\src\services\dev_bind\os/os.h **** 
 200:..\..\..\..\cloud\alicloud\src\services\dev_bind\os/os.h **** /**
 201:..\..\..\..\cloud\alicloud\src\services\dev_bind\os/os.h ****  * @brief sleep thread itself.
 202:..\..\..\..\cloud\alicloud\src\services\dev_bind\os/os.h ****  *
 203:..\..\..\..\cloud\alicloud\src\services\dev_bind\os/os.h ****  * @param[in] ms @n the time interval for which execution is to be suspended, in milliseconds.
 204:..\..\..\..\cloud\alicloud\src\services\dev_bind\os/os.h ****  * @return None.
 205:..\..\..\..\cloud\alicloud\src\services\dev_bind\os/os.h ****  * @see None.
 206:..\..\..\..\cloud\alicloud\src\services\dev_bind\os/os.h ****  * @note None.
 207:..\..\..\..\cloud\alicloud\src\services\dev_bind\os/os.h ****  */
 208:..\..\..\..\cloud\alicloud\src\services\dev_bind\os/os.h **** static inline void os_msleep(_IN_ uint32_t ms)
 209:..\..\..\..\cloud\alicloud\src\services\dev_bind\os/os.h **** {
 210:..\..\..\..\cloud\alicloud\src\services\dev_bind\os/os.h ****     platform_msleep(ms);
 211:..\..\..\..\cloud\alicloud\src\services\dev_bind\os/os.h **** }
 212:..\..\..\..\cloud\alicloud\src\services\dev_bind\os/os.h **** 
 213:..\..\..\..\cloud\alicloud\src\services\dev_bind\os/os.h **** /**
 214:..\..\..\..\cloud\alicloud\src\services\dev_bind\os/os.h ****  * @brief sleep thread itself.
 215:..\..\..\..\cloud\alicloud\src\services\dev_bind\os/os.h ****  *
 216:..\..\..\..\cloud\alicloud\src\services\dev_bind\os/os.h ****  * @param[in] sec @n the time interval for which execution is to be suspended, in seconds.
 217:..\..\..\..\cloud\alicloud\src\services\dev_bind\os/os.h ****  * @return None.
 218:..\..\..\..\cloud\alicloud\src\services\dev_bind\os/os.h ****  * @see None.
 219:..\..\..\..\cloud\alicloud\src\services\dev_bind\os/os.h ****  * @note None.
 220:..\..\..\..\cloud\alicloud\src\services\dev_bind\os/os.h ****  */
 221:..\..\..\..\cloud\alicloud\src\services\dev_bind\os/os.h **** static inline void os_sleep(_IN_ uint32_t sec)
 222:..\..\..\..\cloud\alicloud\src\services\dev_bind\os/os.h **** {
 223:..\..\..\..\cloud\alicloud\src\services\dev_bind\os/os.h ****     platform_msleep(sec * 1000);
 224:..\..\..\..\cloud\alicloud\src\services\dev_bind\os/os.h **** }
 225:..\..\..\..\cloud\alicloud\src\services\dev_bind\os/os.h **** 
 226:..\..\..\..\cloud\alicloud\src\services\dev_bind\os/os.h **** /**
 227:..\..\..\..\cloud\alicloud\src\services\dev_bind\os/os.h ****  * @brief system reboot immediately.
 228:..\..\..\..\cloud\alicloud\src\services\dev_bind\os/os.h ****  *
 229:..\..\..\..\cloud\alicloud\src\services\dev_bind\os/os.h ****  * @return None.
 230:..\..\..\..\cloud\alicloud\src\services\dev_bind\os/os.h ****  * @see None.
 231:..\..\..\..\cloud\alicloud\src\services\dev_bind\os/os.h ****  * @note None.
 232:..\..\..\..\cloud\alicloud\src\services\dev_bind\os/os.h ****  */
 233:..\..\..\..\cloud\alicloud\src\services\dev_bind\os/os.h **** static inline void os_reboot()
 234:..\..\..\..\cloud\alicloud\src\services\dev_bind\os/os.h **** {
 235:..\..\..\..\cloud\alicloud\src\services\dev_bind\os/os.h ****     platform_reboot();
 236:..\..\..\..\cloud\alicloud\src\services\dev_bind\os/os.h **** }
 237:..\..\..\..\cloud\alicloud\src\services\dev_bind\os/os.h **** 
 238:..\..\..\..\cloud\alicloud\src\services\dev_bind\os/os.h **** /** @} *///end of os_misc
 239:..\..\..\..\cloud\alicloud\src\services\dev_bind\os/os.h **** 
 240:..\..\..\..\cloud\alicloud\src\services\dev_bind\os/os.h **** /***************************************** mutex Interface ****************************************
 241:..\..\..\..\cloud\alicloud\src\services\dev_bind\os/os.h **** 
 242:..\..\..\..\cloud\alicloud\src\services\dev_bind\os/os.h **** /** @defgroup group_os_mutex mutex
 243:..\..\..\..\cloud\alicloud\src\services\dev_bind\os/os.h ****  *  @{
 244:..\..\..\..\cloud\alicloud\src\services\dev_bind\os/os.h ****  */
 245:..\..\..\..\cloud\alicloud\src\services\dev_bind\os/os.h **** 
 246:..\..\..\..\cloud\alicloud\src\services\dev_bind\os/os.h **** /**
 247:..\..\..\..\cloud\alicloud\src\services\dev_bind\os/os.h ****  * @brief Create a mutex.
 248:..\..\..\..\cloud\alicloud\src\services\dev_bind\os/os.h ****  *
 249:..\..\..\..\cloud\alicloud\src\services\dev_bind\os/os.h ****  * @return Mutex handle.
 250:..\..\..\..\cloud\alicloud\src\services\dev_bind\os/os.h ****  * @see None.
 251:..\..\..\..\cloud\alicloud\src\services\dev_bind\os/os.h ****  * @note None.
 252:..\..\..\..\cloud\alicloud\src\services\dev_bind\os/os.h ****  */
 253:..\..\..\..\cloud\alicloud\src\services\dev_bind\os/os.h **** static inline void *os_mutex_init(void)
 254:..\..\..\..\cloud\alicloud\src\services\dev_bind\os/os.h **** {
 255:..\..\..\..\cloud\alicloud\src\services\dev_bind\os/os.h ****     return platform_mutex_init();
 256:..\..\..\..\cloud\alicloud\src\services\dev_bind\os/os.h **** }
 257:..\..\..\..\cloud\alicloud\src\services\dev_bind\os/os.h **** 
 258:..\..\..\..\cloud\alicloud\src\services\dev_bind\os/os.h **** /**
 259:..\..\..\..\cloud\alicloud\src\services\dev_bind\os/os.h ****  * @brief Destroy the specified mutex object, it will free related resource.
 260:..\..\..\..\cloud\alicloud\src\services\dev_bind\os/os.h ****  *
 261:..\..\..\..\cloud\alicloud\src\services\dev_bind\os/os.h ****  * @param[in] mutex @n The specified mutex.
 262:..\..\..\..\cloud\alicloud\src\services\dev_bind\os/os.h ****  * @return None.
 263:..\..\..\..\cloud\alicloud\src\services\dev_bind\os/os.h ****  * @see None.
 264:..\..\..\..\cloud\alicloud\src\services\dev_bind\os/os.h ****  * @note None.
 265:..\..\..\..\cloud\alicloud\src\services\dev_bind\os/os.h ****  */
 266:..\..\..\..\cloud\alicloud\src\services\dev_bind\os/os.h **** static inline void os_mutex_destroy(_IN_ void *mutex)
 267:..\..\..\..\cloud\alicloud\src\services\dev_bind\os/os.h **** {
 268:..\..\..\..\cloud\alicloud\src\services\dev_bind\os/os.h ****     platform_mutex_destroy(mutex);
 269:..\..\..\..\cloud\alicloud\src\services\dev_bind\os/os.h **** }
 270:..\..\..\..\cloud\alicloud\src\services\dev_bind\os/os.h **** 
 271:..\..\..\..\cloud\alicloud\src\services\dev_bind\os/os.h **** /**
 272:..\..\..\..\cloud\alicloud\src\services\dev_bind\os/os.h ****  * @brief Waits until the specified mutex is in the signaled state.
 273:..\..\..\..\cloud\alicloud\src\services\dev_bind\os/os.h ****  *
 274:..\..\..\..\cloud\alicloud\src\services\dev_bind\os/os.h ****  * @param[in] mutex @n the specified mutex.
 275:..\..\..\..\cloud\alicloud\src\services\dev_bind\os/os.h ****  * @return None.
 276:..\..\..\..\cloud\alicloud\src\services\dev_bind\os/os.h ****  * @see None.
 277:..\..\..\..\cloud\alicloud\src\services\dev_bind\os/os.h ****  * @note None.
 278:..\..\..\..\cloud\alicloud\src\services\dev_bind\os/os.h ****  */
 279:..\..\..\..\cloud\alicloud\src\services\dev_bind\os/os.h **** static inline void os_mutex_lock(_IN_ void *mutex)
 280:..\..\..\..\cloud\alicloud\src\services\dev_bind\os/os.h **** {
 281:..\..\..\..\cloud\alicloud\src\services\dev_bind\os/os.h ****     platform_mutex_lock(mutex);
 282:..\..\..\..\cloud\alicloud\src\services\dev_bind\os/os.h **** }
 283:..\..\..\..\cloud\alicloud\src\services\dev_bind\os/os.h **** 
 284:..\..\..\..\cloud\alicloud\src\services\dev_bind\os/os.h **** /**
 285:..\..\..\..\cloud\alicloud\src\services\dev_bind\os/os.h ****  * @brief Releases ownership of the specified mutex object..
 286:..\..\..\..\cloud\alicloud\src\services\dev_bind\os/os.h ****  *
 287:..\..\..\..\cloud\alicloud\src\services\dev_bind\os/os.h ****  * @param[in] mutex @n the specified mutex.
 288:..\..\..\..\cloud\alicloud\src\services\dev_bind\os/os.h ****  * @return None.
 289:..\..\..\..\cloud\alicloud\src\services\dev_bind\os/os.h ****  * @see None.
 290:..\..\..\..\cloud\alicloud\src\services\dev_bind\os/os.h ****  * @note None.
 291:..\..\..\..\cloud\alicloud\src\services\dev_bind\os/os.h ****  */
 292:..\..\..\..\cloud\alicloud\src\services\dev_bind\os/os.h **** static inline void os_mutex_unlock(_IN_ void *mutex)
 293:..\..\..\..\cloud\alicloud\src\services\dev_bind\os/os.h **** {
 294:..\..\..\..\cloud\alicloud\src\services\dev_bind\os/os.h ****     platform_mutex_unlock(mutex);
 295:..\..\..\..\cloud\alicloud\src\services\dev_bind\os/os.h **** }
 296:..\..\..\..\cloud\alicloud\src\services\dev_bind\os/os.h **** 
 297:..\..\..\..\cloud\alicloud\src\services\dev_bind\os/os.h **** /** @} */// end of os_mutex
 298:..\..\..\..\cloud\alicloud\src\services\dev_bind\os/os.h **** 
 299:..\..\..\..\cloud\alicloud\src\services\dev_bind\os/os.h **** /*************************************** semaphore Interface **************************************
 300:..\..\..\..\cloud\alicloud\src\services\dev_bind\os/os.h **** 
 301:..\..\..\..\cloud\alicloud\src\services\dev_bind\os/os.h **** /** @defgroup group_os_semaphore semaphore
 302:..\..\..\..\cloud\alicloud\src\services\dev_bind\os/os.h ****  *  @{
 303:..\..\..\..\cloud\alicloud\src\services\dev_bind\os/os.h ****  */
 304:..\..\..\..\cloud\alicloud\src\services\dev_bind\os/os.h **** 
 305:..\..\..\..\cloud\alicloud\src\services\dev_bind\os/os.h **** /**
 306:..\..\..\..\cloud\alicloud\src\services\dev_bind\os/os.h ****  * @brief Create a semaphore.
 307:..\..\..\..\cloud\alicloud\src\services\dev_bind\os/os.h ****  *
 308:..\..\..\..\cloud\alicloud\src\services\dev_bind\os/os.h ****  * @return semaphore handle.
 309:..\..\..\..\cloud\alicloud\src\services\dev_bind\os/os.h ****  * @see None.
 310:..\..\..\..\cloud\alicloud\src\services\dev_bind\os/os.h ****  * @note The recommended value of maximum count of the semaphore is 255.
 311:..\..\..\..\cloud\alicloud\src\services\dev_bind\os/os.h ****  */
 312:..\..\..\..\cloud\alicloud\src\services\dev_bind\os/os.h **** static inline void *os_semaphore_init(void)
 313:..\..\..\..\cloud\alicloud\src\services\dev_bind\os/os.h **** {
 314:..\..\..\..\cloud\alicloud\src\services\dev_bind\os/os.h ****     return platform_semaphore_init();
 315:..\..\..\..\cloud\alicloud\src\services\dev_bind\os/os.h **** }
 316:..\..\..\..\cloud\alicloud\src\services\dev_bind\os/os.h **** 
 317:..\..\..\..\cloud\alicloud\src\services\dev_bind\os/os.h **** /**
 318:..\..\..\..\cloud\alicloud\src\services\dev_bind\os/os.h ****  * @brief Destroy the specified semaphore object, it will free related resource.
 319:..\..\..\..\cloud\alicloud\src\services\dev_bind\os/os.h ****  *
 320:..\..\..\..\cloud\alicloud\src\services\dev_bind\os/os.h ****  * @param[in] sem @n the specified sem.
 321:..\..\..\..\cloud\alicloud\src\services\dev_bind\os/os.h ****  * @return None.
 322:..\..\..\..\cloud\alicloud\src\services\dev_bind\os/os.h ****  * @see None.
 323:..\..\..\..\cloud\alicloud\src\services\dev_bind\os/os.h ****  * @note None.
 324:..\..\..\..\cloud\alicloud\src\services\dev_bind\os/os.h ****  */
 325:..\..\..\..\cloud\alicloud\src\services\dev_bind\os/os.h **** static inline void os_semaphore_destroy(_IN_ void *sem)
 326:..\..\..\..\cloud\alicloud\src\services\dev_bind\os/os.h **** {
 327:..\..\..\..\cloud\alicloud\src\services\dev_bind\os/os.h ****     platform_semaphore_destroy(sem);
 328:..\..\..\..\cloud\alicloud\src\services\dev_bind\os/os.h **** }
 329:..\..\..\..\cloud\alicloud\src\services\dev_bind\os/os.h **** 
 330:..\..\..\..\cloud\alicloud\src\services\dev_bind\os/os.h **** /**
 331:..\..\..\..\cloud\alicloud\src\services\dev_bind\os/os.h ****  * @brief Wait until the specified mutex is in the signaled state or the time-out interval elapses.
 332:..\..\..\..\cloud\alicloud\src\services\dev_bind\os/os.h ****  *
 333:..\..\..\..\cloud\alicloud\src\services\dev_bind\os/os.h ****  * @param[in] sem @n the specified semaphore.
 334:..\..\..\..\cloud\alicloud\src\services\dev_bind\os/os.h ****  * @param[in] timeout_ms @n timeout interval in millisecond.
 335:..\..\..\..\cloud\alicloud\src\services\dev_bind\os/os.h ****      If timeout_ms is OS_WAIT_INFINITE, the function will return only when the semaphore is signale
 336:..\..\..\..\cloud\alicloud\src\services\dev_bind\os/os.h ****  * @return
 337:..\..\..\..\cloud\alicloud\src\services\dev_bind\os/os.h ****    @verbatim
 338:..\..\..\..\cloud\alicloud\src\services\dev_bind\os/os.h ****    =  0: The state of the specified object is signaled.
 339:..\..\..\..\cloud\alicloud\src\services\dev_bind\os/os.h ****    =  -1: The time-out interval elapsed, and the object's state is nonsignaled.
 340:..\..\..\..\cloud\alicloud\src\services\dev_bind\os/os.h ****    @endverbatim
 341:..\..\..\..\cloud\alicloud\src\services\dev_bind\os/os.h ****  * @see None.
 342:..\..\..\..\cloud\alicloud\src\services\dev_bind\os/os.h ****  * @note None.
 343:..\..\..\..\cloud\alicloud\src\services\dev_bind\os/os.h ****  */
 344:..\..\..\..\cloud\alicloud\src\services\dev_bind\os/os.h **** static inline int os_semaphore_wait(_IN_ void *sem, _IN_ uint32_t timeout_ms)
 345:..\..\..\..\cloud\alicloud\src\services\dev_bind\os/os.h **** {
 346:..\..\..\..\cloud\alicloud\src\services\dev_bind\os/os.h ****     return platform_semaphore_wait(sem, timeout_ms);
 347:..\..\..\..\cloud\alicloud\src\services\dev_bind\os/os.h **** }
 348:..\..\..\..\cloud\alicloud\src\services\dev_bind\os/os.h **** 
 349:..\..\..\..\cloud\alicloud\src\services\dev_bind\os/os.h **** /**
 350:..\..\..\..\cloud\alicloud\src\services\dev_bind\os/os.h ****  * @brief Increases the count of the specified semaphore object by 1.
 351:..\..\..\..\cloud\alicloud\src\services\dev_bind\os/os.h ****  *
 352:..\..\..\..\cloud\alicloud\src\services\dev_bind\os/os.h ****  * @param[in] sem @n the specified semaphore.
 353:..\..\..\..\cloud\alicloud\src\services\dev_bind\os/os.h ****  * @return None.
 354:..\..\..\..\cloud\alicloud\src\services\dev_bind\os/os.h ****  * @see None.
 355:..\..\..\..\cloud\alicloud\src\services\dev_bind\os/os.h ****  * @note None.
 356:..\..\..\..\cloud\alicloud\src\services\dev_bind\os/os.h ****  */
 357:..\..\..\..\cloud\alicloud\src\services\dev_bind\os/os.h **** static inline void os_semaphore_post(_IN_ void *sem)
 358:..\..\..\..\cloud\alicloud\src\services\dev_bind\os/os.h **** {
 359:..\..\..\..\cloud\alicloud\src\services\dev_bind\os/os.h ****     platform_semaphore_post(sem);
 360:..\..\..\..\cloud\alicloud\src\services\dev_bind\os/os.h **** }
 361:..\..\..\..\cloud\alicloud\src\services\dev_bind\os/os.h **** 
 362:..\..\..\..\cloud\alicloud\src\services\dev_bind\os/os.h **** /** @} */// end of os_semaphore
 363:..\..\..\..\cloud\alicloud\src\services\dev_bind\os/os.h **** 
 364:..\..\..\..\cloud\alicloud\src\services\dev_bind\os/os.h **** /**************************************** memory Interface ****************************************
 365:..\..\..\..\cloud\alicloud\src\services\dev_bind\os/os.h **** 
 366:..\..\..\..\cloud\alicloud\src\services\dev_bind\os/os.h **** /** @defgroup group_os_memory_manage memory
 367:..\..\..\..\cloud\alicloud\src\services\dev_bind\os/os.h ****  *  @{
 368:..\..\..\..\cloud\alicloud\src\services\dev_bind\os/os.h ****  */
 369:..\..\..\..\cloud\alicloud\src\services\dev_bind\os/os.h **** 
 370:..\..\..\..\cloud\alicloud\src\services\dev_bind\os/os.h **** /**
 371:..\..\..\..\cloud\alicloud\src\services\dev_bind\os/os.h ****  * @brief Allocates a block of size bytes of memory, returning a pointer to the beginning of the bl
 372:..\..\..\..\cloud\alicloud\src\services\dev_bind\os/os.h ****  *
 373:..\..\..\..\cloud\alicloud\src\services\dev_bind\os/os.h ****  * @param[in] size @n specify block size in bytes.
 374:..\..\..\..\cloud\alicloud\src\services\dev_bind\os/os.h ****  * @return A pointer to the beginning of the block.
 375:..\..\..\..\cloud\alicloud\src\services\dev_bind\os/os.h ****  * @see None.
 376:..\..\..\..\cloud\alicloud\src\services\dev_bind\os/os.h ****  * @note Block value is indeterminate.
 377:..\..\..\..\cloud\alicloud\src\services\dev_bind\os/os.h ****  */
 378:..\..\..\..\cloud\alicloud\src\services\dev_bind\os/os.h **** static inline void *os_malloc(_IN_ uint32_t size)
 379:..\..\..\..\cloud\alicloud\src\services\dev_bind\os/os.h **** {
 380:..\..\..\..\cloud\alicloud\src\services\dev_bind\os/os.h ****     return platform_malloc(size);
 381:..\..\..\..\cloud\alicloud\src\services\dev_bind\os/os.h **** }
 382:..\..\..\..\cloud\alicloud\src\services\dev_bind\os/os.h **** 
 383:..\..\..\..\cloud\alicloud\src\services\dev_bind\os/os.h **** 
 384:..\..\..\..\cloud\alicloud\src\services\dev_bind\os/os.h **** /**
 385:..\..\..\..\cloud\alicloud\src\services\dev_bind\os/os.h ****  * @brief Deallocate memory block
 386:..\..\..\..\cloud\alicloud\src\services\dev_bind\os/os.h ****  *
 387:..\..\..\..\cloud\alicloud\src\services\dev_bind\os/os.h ****  * @param[in] ptr @n Pointer to a memory block previously allocated with platform_malloc.
 388:..\..\..\..\cloud\alicloud\src\services\dev_bind\os/os.h ****  * @return None.
 389:..\..\..\..\cloud\alicloud\src\services\dev_bind\os/os.h ****  * @see None.
 390:..\..\..\..\cloud\alicloud\src\services\dev_bind\os/os.h ****  * @note None.
 391:..\..\..\..\cloud\alicloud\src\services\dev_bind\os/os.h ****  */
 392:..\..\..\..\cloud\alicloud\src\services\dev_bind\os/os.h **** static inline void os_free(_IN_ void *ptr)
 393:..\..\..\..\cloud\alicloud\src\services\dev_bind\os/os.h **** {
 394:..\..\..\..\cloud\alicloud\src\services\dev_bind\os/os.h ****     platform_free(ptr);
 395:..\..\..\..\cloud\alicloud\src\services\dev_bind\os/os.h **** }
 396:..\..\..\..\cloud\alicloud\src\services\dev_bind\os/os.h **** 
 397:..\..\..\..\cloud\alicloud\src\services\dev_bind\os/os.h **** /**
 398:..\..\..\..\cloud\alicloud\src\services\dev_bind\os/os.h ****  * @brief Allocates a memory block with memory initialized to 0,
 399:..\..\..\..\cloud\alicloud\src\services\dev_bind\os/os.h ****      returning a pointer to the beginning of the block.
 400:..\..\..\..\cloud\alicloud\src\services\dev_bind\os/os.h ****  *
 401:..\..\..\..\cloud\alicloud\src\services\dev_bind\os/os.h ****  * @param[in] size @n specify block size in bytes.
 402:..\..\..\..\cloud\alicloud\src\services\dev_bind\os/os.h ****  * @return A pointer to the beginning of the block.
 403:..\..\..\..\cloud\alicloud\src\services\dev_bind\os/os.h ****  * @see None.
 404:..\..\..\..\cloud\alicloud\src\services\dev_bind\os/os.h ****  * @note Block value is indeterminate.
 405:..\..\..\..\cloud\alicloud\src\services\dev_bind\os/os.h ****  */
 406:..\..\..\..\cloud\alicloud\src\services\dev_bind\os/os.h **** static inline void *os_zalloc(uint32_t size)
 407:..\..\..\..\cloud\alicloud\src\services\dev_bind\os/os.h **** {
  15              		.loc 1 407 1
  16              		.cfi_startproc
  17              	.LVL0:
  18 0000 17030000 		call	t0,__riscv_save_1
  18      E7020300 
  19              		.cfi_offset 8, -8
  20              		.cfi_offset 1, -4
  21              		.cfi_def_cfa_offset 16
 408:..\..\..\..\cloud\alicloud\src\services\dev_bind\os/os.h ****     void *ptr = os_malloc(size);
  22              		.loc 1 408 5
 407:..\..\..\..\cloud\alicloud\src\services\dev_bind\os/os.h ****     void *ptr = os_malloc(size);
  23              		.loc 1 407 1 is_stmt 0
  24 0008 4111     		addi	sp,sp,-16
  25              		.cfi_def_cfa_offset 32
  26              	.LVL1:
  27              	.LBB16:
  28              	.LBB17:
 380:..\..\..\..\cloud\alicloud\src\services\dev_bind\os/os.h **** }
  29              		.loc 1 380 5 is_stmt 1
  30              	.LBE17:
  31              	.LBE16:
 407:..\..\..\..\cloud\alicloud\src\services\dev_bind\os/os.h ****     void *ptr = os_malloc(size);
  32              		.loc 1 407 1 is_stmt 0
  33 000a 2AC6     		sw	a0,12(sp)
  34              	.LVL2:
  35              	.LBB19:
  36              	.LBB18:
 380:..\..\..\..\cloud\alicloud\src\services\dev_bind\os/os.h **** }
  37              		.loc 1 380 12
  38 000c 97000000 		call	HAL_Malloc
  38      E7800000 
  39              	.LVL3:
  40 0014 2A84     		mv	s0,a0
  41              	.LVL4:
  42              	.LBE18:
  43              	.LBE19:
 409:..\..\..\..\cloud\alicloud\src\services\dev_bind\os/os.h ****     if (ptr != NULL) {
  44              		.loc 1 409 5 is_stmt 1
  45              		.loc 1 409 8 is_stmt 0
  46 0016 19C5     		beq	a0,zero,.L1
 410:..\..\..\..\cloud\alicloud\src\services\dev_bind\os/os.h ****         memset(ptr, 0, size);
  47              		.loc 1 410 9 is_stmt 1
  48 0018 3246     		lw	a2,12(sp)
  49 001a 8145     		li	a1,0
  50 001c 97000000 		call	memset
  50      E7800000 
  51              	.LVL5:
 411:..\..\..\..\cloud\alicloud\src\services\dev_bind\os/os.h ****     }
 412:..\..\..\..\cloud\alicloud\src\services\dev_bind\os/os.h ****     return ptr;
  52              		.loc 1 412 5
  53              	.L1:
 413:..\..\..\..\cloud\alicloud\src\services\dev_bind\os/os.h **** }
  54              		.loc 1 413 1 is_stmt 0
  55 0024 2285     		mv	a0,s0
  56 0026 4101     		addi	sp,sp,16
  57              		.cfi_def_cfa_offset 0
  58              	.LVL6:
  59 0028 17030000 		tail	__riscv_restore_1
  59      67000300 
  60              		.cfi_restore 8
  61              		.cfi_restore 1
  62              		.cfi_def_cfa_offset -16
  63              		.cfi_endproc
  64              	.LFE18:
  66              		.section	.text.awss_release_coap_ctx,"ax",@progbits
  67              		.align	1
  68              		.globl	awss_release_coap_ctx
  70              	awss_release_coap_ctx:
  71              	.LFB48:
  72              		.file 2 "C:/Users/stapi/OneDrive/Desktop/GD32VW553/V1_MQTT_OK/GD32VW55X_Wifi_BLE_SDK/GD32VW55x_REL
   1:C:/Users/stapi/OneDrive/Desktop/GD32VW553/V1_MQTT_OK/GD32VW55X_Wifi_BLE_SDK/GD32VW55x_RELEASE_V1.0.2/MSDK/cloud/alicloud/src/services/dev_bind\awss_cmp_coap.c **** /*
   2:C:/Users/stapi/OneDrive/Desktop/GD32VW553/V1_MQTT_OK/GD32VW55X_Wifi_BLE_SDK/GD32VW55x_RELEASE_V1.0.2/MSDK/cloud/alicloud/src/services/dev_bind\awss_cmp_coap.c ****  * Copyright (C) 2015-2018 Alibaba Group Holding Limited
   3:C:/Users/stapi/OneDrive/Desktop/GD32VW553/V1_MQTT_OK/GD32VW55X_Wifi_BLE_SDK/GD32VW55x_RELEASE_V1.0.2/MSDK/cloud/alicloud/src/services/dev_bind\awss_cmp_coap.c ****  */
   4:C:/Users/stapi/OneDrive/Desktop/GD32VW553/V1_MQTT_OK/GD32VW55X_Wifi_BLE_SDK/GD32VW55x_RELEASE_V1.0.2/MSDK/cloud/alicloud/src/services/dev_bind\awss_cmp_coap.c **** 
   5:C:/Users/stapi/OneDrive/Desktop/GD32VW553/V1_MQTT_OK/GD32VW55X_Wifi_BLE_SDK/GD32VW55x_RELEASE_V1.0.2/MSDK/cloud/alicloud/src/services/dev_bind\awss_cmp_coap.c **** 
   6:C:/Users/stapi/OneDrive/Desktop/GD32VW553/V1_MQTT_OK/GD32VW55X_Wifi_BLE_SDK/GD32VW55x_RELEASE_V1.0.2/MSDK/cloud/alicloud/src/services/dev_bind\awss_cmp_coap.c **** 
   7:C:/Users/stapi/OneDrive/Desktop/GD32VW553/V1_MQTT_OK/GD32VW55X_Wifi_BLE_SDK/GD32VW55x_RELEASE_V1.0.2/MSDK/cloud/alicloud/src/services/dev_bind\awss_cmp_coap.c **** #include <stdio.h>
   8:C:/Users/stapi/OneDrive/Desktop/GD32VW553/V1_MQTT_OK/GD32VW55X_Wifi_BLE_SDK/GD32VW55x_RELEASE_V1.0.2/MSDK/cloud/alicloud/src/services/dev_bind\awss_cmp_coap.c **** #include "os.h"
   9:C:/Users/stapi/OneDrive/Desktop/GD32VW553/V1_MQTT_OK/GD32VW55X_Wifi_BLE_SDK/GD32VW55x_RELEASE_V1.0.2/MSDK/cloud/alicloud/src/services/dev_bind\awss_cmp_coap.c **** #include "iot_import.h"
  10:C:/Users/stapi/OneDrive/Desktop/GD32VW553/V1_MQTT_OK/GD32VW55X_Wifi_BLE_SDK/GD32VW55x_RELEASE_V1.0.2/MSDK/cloud/alicloud/src/services/dev_bind\awss_cmp_coap.c **** #include "iot_export.h"
  11:C:/Users/stapi/OneDrive/Desktop/GD32VW553/V1_MQTT_OK/GD32VW55X_Wifi_BLE_SDK/GD32VW55x_RELEASE_V1.0.2/MSDK/cloud/alicloud/src/services/dev_bind\awss_cmp_coap.c **** #if defined(WIFI_PROVISION_ENABLED) || defined(DEV_BIND_ENABLED)
  12:C:/Users/stapi/OneDrive/Desktop/GD32VW553/V1_MQTT_OK/GD32VW55X_Wifi_BLE_SDK/GD32VW55x_RELEASE_V1.0.2/MSDK/cloud/alicloud/src/services/dev_bind\awss_cmp_coap.c **** #include "CoAPExport.h"
  13:C:/Users/stapi/OneDrive/Desktop/GD32VW553/V1_MQTT_OK/GD32VW55X_Wifi_BLE_SDK/GD32VW55x_RELEASE_V1.0.2/MSDK/cloud/alicloud/src/services/dev_bind\awss_cmp_coap.c **** #include "CoAPServer.h"
  14:C:/Users/stapi/OneDrive/Desktop/GD32VW553/V1_MQTT_OK/GD32VW55X_Wifi_BLE_SDK/GD32VW55x_RELEASE_V1.0.2/MSDK/cloud/alicloud/src/services/dev_bind\awss_cmp_coap.c **** #endif
  15:C:/Users/stapi/OneDrive/Desktop/GD32VW553/V1_MQTT_OK/GD32VW55X_Wifi_BLE_SDK/GD32VW55x_RELEASE_V1.0.2/MSDK/cloud/alicloud/src/services/dev_bind\awss_cmp_coap.c **** #include "awss_cmp.h"
  16:C:/Users/stapi/OneDrive/Desktop/GD32VW553/V1_MQTT_OK/GD32VW55X_Wifi_BLE_SDK/GD32VW55x_RELEASE_V1.0.2/MSDK/cloud/alicloud/src/services/dev_bind\awss_cmp_coap.c **** #include "awss_notify.h"
  17:C:/Users/stapi/OneDrive/Desktop/GD32VW553/V1_MQTT_OK/GD32VW55X_Wifi_BLE_SDK/GD32VW55x_RELEASE_V1.0.2/MSDK/cloud/alicloud/src/services/dev_bind\awss_cmp_coap.c **** #include "awss_packet.h"
  18:C:/Users/stapi/OneDrive/Desktop/GD32VW553/V1_MQTT_OK/GD32VW55X_Wifi_BLE_SDK/GD32VW55x_RELEASE_V1.0.2/MSDK/cloud/alicloud/src/services/dev_bind\awss_cmp_coap.c **** #include "dev_offline_ota.h"
  19:C:/Users/stapi/OneDrive/Desktop/GD32VW553/V1_MQTT_OK/GD32VW55X_Wifi_BLE_SDK/GD32VW55x_RELEASE_V1.0.2/MSDK/cloud/alicloud/src/services/dev_bind\awss_cmp_coap.c **** #ifdef WIFI_PROVISION_ENABLED
  20:C:/Users/stapi/OneDrive/Desktop/GD32VW553/V1_MQTT_OK/GD32VW55X_Wifi_BLE_SDK/GD32VW55x_RELEASE_V1.0.2/MSDK/cloud/alicloud/src/services/dev_bind\awss_cmp_coap.c **** #include "awss_info.h"
  21:C:/Users/stapi/OneDrive/Desktop/GD32VW553/V1_MQTT_OK/GD32VW55X_Wifi_BLE_SDK/GD32VW55x_RELEASE_V1.0.2/MSDK/cloud/alicloud/src/services/dev_bind\awss_cmp_coap.c **** #include "awss_wifimgr.h"
  22:C:/Users/stapi/OneDrive/Desktop/GD32VW553/V1_MQTT_OK/GD32VW55X_Wifi_BLE_SDK/GD32VW55x_RELEASE_V1.0.2/MSDK/cloud/alicloud/src/services/dev_bind\awss_cmp_coap.c **** #ifdef AWSS_SUPPORT_DEV_AP
  23:C:/Users/stapi/OneDrive/Desktop/GD32VW553/V1_MQTT_OK/GD32VW55X_Wifi_BLE_SDK/GD32VW55x_RELEASE_V1.0.2/MSDK/cloud/alicloud/src/services/dev_bind\awss_cmp_coap.c **** #include "awss_dev_ap.h"
  24:C:/Users/stapi/OneDrive/Desktop/GD32VW553/V1_MQTT_OK/GD32VW55X_Wifi_BLE_SDK/GD32VW55x_RELEASE_V1.0.2/MSDK/cloud/alicloud/src/services/dev_bind\awss_cmp_coap.c **** #endif
  25:C:/Users/stapi/OneDrive/Desktop/GD32VW553/V1_MQTT_OK/GD32VW55X_Wifi_BLE_SDK/GD32VW55x_RELEASE_V1.0.2/MSDK/cloud/alicloud/src/services/dev_bind\awss_cmp_coap.c **** #endif
  26:C:/Users/stapi/OneDrive/Desktop/GD32VW553/V1_MQTT_OK/GD32VW55X_Wifi_BLE_SDK/GD32VW55x_RELEASE_V1.0.2/MSDK/cloud/alicloud/src/services/dev_bind\awss_cmp_coap.c **** 
  27:C:/Users/stapi/OneDrive/Desktop/GD32VW553/V1_MQTT_OK/GD32VW55X_Wifi_BLE_SDK/GD32VW55x_RELEASE_V1.0.2/MSDK/cloud/alicloud/src/services/dev_bind\awss_cmp_coap.c **** #if defined(__cplusplus)  /* If this is a C++ compiler, use C linkage */
  28:C:/Users/stapi/OneDrive/Desktop/GD32VW553/V1_MQTT_OK/GD32VW55X_Wifi_BLE_SDK/GD32VW55x_RELEASE_V1.0.2/MSDK/cloud/alicloud/src/services/dev_bind\awss_cmp_coap.c **** extern "C"
  29:C:/Users/stapi/OneDrive/Desktop/GD32VW553/V1_MQTT_OK/GD32VW55X_Wifi_BLE_SDK/GD32VW55x_RELEASE_V1.0.2/MSDK/cloud/alicloud/src/services/dev_bind\awss_cmp_coap.c **** {
  30:C:/Users/stapi/OneDrive/Desktop/GD32VW553/V1_MQTT_OK/GD32VW55X_Wifi_BLE_SDK/GD32VW55x_RELEASE_V1.0.2/MSDK/cloud/alicloud/src/services/dev_bind\awss_cmp_coap.c **** #endif
  31:C:/Users/stapi/OneDrive/Desktop/GD32VW553/V1_MQTT_OK/GD32VW55X_Wifi_BLE_SDK/GD32VW55x_RELEASE_V1.0.2/MSDK/cloud/alicloud/src/services/dev_bind\awss_cmp_coap.c **** 
  32:C:/Users/stapi/OneDrive/Desktop/GD32VW553/V1_MQTT_OK/GD32VW55X_Wifi_BLE_SDK/GD32VW55x_RELEASE_V1.0.2/MSDK/cloud/alicloud/src/services/dev_bind\awss_cmp_coap.c **** static void *g_coap_ctx = NULL;
  33:C:/Users/stapi/OneDrive/Desktop/GD32VW553/V1_MQTT_OK/GD32VW55X_Wifi_BLE_SDK/GD32VW55x_RELEASE_V1.0.2/MSDK/cloud/alicloud/src/services/dev_bind\awss_cmp_coap.c **** 
  34:C:/Users/stapi/OneDrive/Desktop/GD32VW553/V1_MQTT_OK/GD32VW55X_Wifi_BLE_SDK/GD32VW55x_RELEASE_V1.0.2/MSDK/cloud/alicloud/src/services/dev_bind\awss_cmp_coap.c **** int awss_release_coap_ctx(void *session)
  35:C:/Users/stapi/OneDrive/Desktop/GD32VW553/V1_MQTT_OK/GD32VW55X_Wifi_BLE_SDK/GD32VW55x_RELEASE_V1.0.2/MSDK/cloud/alicloud/src/services/dev_bind\awss_cmp_coap.c **** {
  73              		.loc 2 35 1 is_stmt 1
  74              		.cfi_startproc
  75              	.LVL7:
  36:C:/Users/stapi/OneDrive/Desktop/GD32VW553/V1_MQTT_OK/GD32VW55X_Wifi_BLE_SDK/GD32VW55x_RELEASE_V1.0.2/MSDK/cloud/alicloud/src/services/dev_bind\awss_cmp_coap.c ****     struct coap_session_ctx_t *ctx = (struct coap_session_ctx_t *)session;
  76              		.loc 2 36 5
  37:C:/Users/stapi/OneDrive/Desktop/GD32VW553/V1_MQTT_OK/GD32VW55X_Wifi_BLE_SDK/GD32VW55x_RELEASE_V1.0.2/MSDK/cloud/alicloud/src/services/dev_bind\awss_cmp_coap.c ****     if (ctx == NULL) {
  77              		.loc 2 37 5
  78              		.loc 2 37 8 is_stmt 0
  79 0000 39C1     		beq	a0,zero,.L25
  35:C:/Users/stapi/OneDrive/Desktop/GD32VW553/V1_MQTT_OK/GD32VW55X_Wifi_BLE_SDK/GD32VW55x_RELEASE_V1.0.2/MSDK/cloud/alicloud/src/services/dev_bind\awss_cmp_coap.c ****     struct coap_session_ctx_t *ctx = (struct coap_session_ctx_t *)session;
  80              		.loc 2 35 1
  81 0002 17030000 		call	t0,__riscv_save_1
  81      E7020300 
  82              		.cfi_offset 8, -8
  83              		.cfi_offset 1, -4
  84              		.cfi_def_cfa_offset 16
  38:C:/Users/stapi/OneDrive/Desktop/GD32VW553/V1_MQTT_OK/GD32VW55X_Wifi_BLE_SDK/GD32VW55x_RELEASE_V1.0.2/MSDK/cloud/alicloud/src/services/dev_bind\awss_cmp_coap.c ****         return 0;
  39:C:/Users/stapi/OneDrive/Desktop/GD32VW553/V1_MQTT_OK/GD32VW55X_Wifi_BLE_SDK/GD32VW55x_RELEASE_V1.0.2/MSDK/cloud/alicloud/src/services/dev_bind\awss_cmp_coap.c ****     }
  40:C:/Users/stapi/OneDrive/Desktop/GD32VW553/V1_MQTT_OK/GD32VW55X_Wifi_BLE_SDK/GD32VW55x_RELEASE_V1.0.2/MSDK/cloud/alicloud/src/services/dev_bind\awss_cmp_coap.c **** 
  41:C:/Users/stapi/OneDrive/Desktop/GD32VW553/V1_MQTT_OK/GD32VW55X_Wifi_BLE_SDK/GD32VW55x_RELEASE_V1.0.2/MSDK/cloud/alicloud/src/services/dev_bind\awss_cmp_coap.c ****     if (ctx->request) {
  85              		.loc 2 41 12
  86 000a 1C41     		lw	a5,0(a0)
  87 000c 2A84     		mv	s0,a0
  88              		.loc 2 41 5 is_stmt 1
  89              		.loc 2 41 8 is_stmt 0
  90 000e 81CF     		beq	a5,zero,.L9
  91              	.LBB20:
  42:C:/Users/stapi/OneDrive/Desktop/GD32VW553/V1_MQTT_OK/GD32VW55X_Wifi_BLE_SDK/GD32VW55x_RELEASE_V1.0.2/MSDK/cloud/alicloud/src/services/dev_bind\awss_cmp_coap.c ****         void *payload = ((struct CoAPMessage *)ctx->request)->payload;
  92              		.loc 2 42 9 is_stmt 1
  93              		.loc 2 42 15 is_stmt 0
  94 0010 A85B     		lw	a0,112(a5)
  95              	.LVL8:
  43:C:/Users/stapi/OneDrive/Desktop/GD32VW553/V1_MQTT_OK/GD32VW55X_Wifi_BLE_SDK/GD32VW55x_RELEASE_V1.0.2/MSDK/cloud/alicloud/src/services/dev_bind\awss_cmp_coap.c ****         if (payload) {
  96              		.loc 2 43 9 is_stmt 1
  97              		.loc 2 43 12 is_stmt 0
  98 0012 09C5     		beq	a0,zero,.L10
  44:C:/Users/stapi/OneDrive/Desktop/GD32VW553/V1_MQTT_OK/GD32VW55X_Wifi_BLE_SDK/GD32VW55x_RELEASE_V1.0.2/MSDK/cloud/alicloud/src/services/dev_bind\awss_cmp_coap.c ****             os_free(payload);
  99              		.loc 2 44 13 is_stmt 1
 100              	.LVL9:
 101              	.LBB21:
 102              	.LBB22:
 394:..\..\..\..\cloud\alicloud\src\services\dev_bind\os/os.h **** }
 103              		.loc 1 394 5
 104 0014 97000000 		call	HAL_Free
 104      E7800000 
 105              	.LVL10:
 106              	.L10:
 107              	.LBE22:
 108              	.LBE21:
  45:C:/Users/stapi/OneDrive/Desktop/GD32VW553/V1_MQTT_OK/GD32VW55X_Wifi_BLE_SDK/GD32VW55x_RELEASE_V1.0.2/MSDK/cloud/alicloud/src/services/dev_bind\awss_cmp_coap.c ****         }
  46:C:/Users/stapi/OneDrive/Desktop/GD32VW553/V1_MQTT_OK/GD32VW55X_Wifi_BLE_SDK/GD32VW55x_RELEASE_V1.0.2/MSDK/cloud/alicloud/src/services/dev_bind\awss_cmp_coap.c ****         os_free(ctx->request);
 109              		.loc 2 46 9
 110              	.LBB23:
 111              	.LBB24:
 394:..\..\..\..\cloud\alicloud\src\services\dev_bind\os/os.h **** }
 112              		.loc 1 394 5
 113 001c 0840     		lw	a0,0(s0)
 114 001e 97000000 		call	HAL_Free
 114      E7800000 
 115              	.LVL11:
 116              	.L9:
 117              	.LBE24:
 118              	.LBE23:
 119              	.LBE20:
  47:C:/Users/stapi/OneDrive/Desktop/GD32VW553/V1_MQTT_OK/GD32VW55X_Wifi_BLE_SDK/GD32VW55x_RELEASE_V1.0.2/MSDK/cloud/alicloud/src/services/dev_bind\awss_cmp_coap.c ****     }
  48:C:/Users/stapi/OneDrive/Desktop/GD32VW553/V1_MQTT_OK/GD32VW55X_Wifi_BLE_SDK/GD32VW55x_RELEASE_V1.0.2/MSDK/cloud/alicloud/src/services/dev_bind\awss_cmp_coap.c ****     if (ctx->remote) {
 120              		.loc 2 48 5
 121              		.loc 2 48 12 is_stmt 0
 122 0026 4840     		lw	a0,4(s0)
 123              		.loc 2 48 8
 124 0028 09C5     		beq	a0,zero,.L11
  49:C:/Users/stapi/OneDrive/Desktop/GD32VW553/V1_MQTT_OK/GD32VW55X_Wifi_BLE_SDK/GD32VW55x_RELEASE_V1.0.2/MSDK/cloud/alicloud/src/services/dev_bind\awss_cmp_coap.c ****         os_free(ctx->remote);
 125              		.loc 2 49 9 is_stmt 1
 126              	.LVL12:
 127              	.LBB25:
 128              	.LBB26:
 394:..\..\..\..\cloud\alicloud\src\services\dev_bind\os/os.h **** }
 129              		.loc 1 394 5
 130 002a 97000000 		call	HAL_Free
 130      E7800000 
 131              	.LVL13:
 132              	.L11:
 133              	.LBE26:
 134              	.LBE25:
  50:C:/Users/stapi/OneDrive/Desktop/GD32VW553/V1_MQTT_OK/GD32VW55X_Wifi_BLE_SDK/GD32VW55x_RELEASE_V1.0.2/MSDK/cloud/alicloud/src/services/dev_bind\awss_cmp_coap.c ****     }
  51:C:/Users/stapi/OneDrive/Desktop/GD32VW553/V1_MQTT_OK/GD32VW55X_Wifi_BLE_SDK/GD32VW55x_RELEASE_V1.0.2/MSDK/cloud/alicloud/src/services/dev_bind\awss_cmp_coap.c ****     os_free(ctx);
 135              		.loc 2 51 5
 136              	.LBB27:
 137              	.LBB28:
 394:..\..\..\..\cloud\alicloud\src\services\dev_bind\os/os.h **** }
 138              		.loc 1 394 5
 139 0032 2285     		mv	a0,s0
 140 0034 97000000 		call	HAL_Free
 140      E7800000 
 141              	.LVL14:
 142              	.LBE28:
 143              	.LBE27:
  52:C:/Users/stapi/OneDrive/Desktop/GD32VW553/V1_MQTT_OK/GD32VW55X_Wifi_BLE_SDK/GD32VW55x_RELEASE_V1.0.2/MSDK/cloud/alicloud/src/services/dev_bind\awss_cmp_coap.c ****     return 0;
 144              		.loc 2 52 5
  53:C:/Users/stapi/OneDrive/Desktop/GD32VW553/V1_MQTT_OK/GD32VW55X_Wifi_BLE_SDK/GD32VW55x_RELEASE_V1.0.2/MSDK/cloud/alicloud/src/services/dev_bind\awss_cmp_coap.c **** }
 145              		.loc 2 53 1 is_stmt 0
 146 003c 0145     		li	a0,0
 147 003e 17030000 		tail	__riscv_restore_1
 147      67000300 
 148              		.cfi_restore 8
 149              		.cfi_restore 1
 150              		.cfi_def_cfa_offset 0
 151              	.LVL15:
 152              	.L25:
 153 0046 0145     		li	a0,0
 154              	.LVL16:
 155 0048 8280     		ret
 156              		.cfi_endproc
 157              	.LFE48:
 159              		.section	.text.awss_cpy_coap_ctx,"ax",@progbits
 160              		.align	1
 161              		.globl	awss_cpy_coap_ctx
 163              	awss_cpy_coap_ctx:
 164              	.LFB49:
  54:C:/Users/stapi/OneDrive/Desktop/GD32VW553/V1_MQTT_OK/GD32VW55X_Wifi_BLE_SDK/GD32VW55x_RELEASE_V1.0.2/MSDK/cloud/alicloud/src/services/dev_bind\awss_cmp_coap.c **** 
  55:C:/Users/stapi/OneDrive/Desktop/GD32VW553/V1_MQTT_OK/GD32VW55X_Wifi_BLE_SDK/GD32VW55x_RELEASE_V1.0.2/MSDK/cloud/alicloud/src/services/dev_bind\awss_cmp_coap.c **** void *awss_cpy_coap_ctx(void *request, void *remote, char mcast)
  56:C:/Users/stapi/OneDrive/Desktop/GD32VW553/V1_MQTT_OK/GD32VW55X_Wifi_BLE_SDK/GD32VW55x_RELEASE_V1.0.2/MSDK/cloud/alicloud/src/services/dev_bind\awss_cmp_coap.c **** {
 165              		.loc 2 56 1 is_stmt 1
 166              		.cfi_startproc
 167              	.LVL17:
 168 0000 17030000 		call	t0,__riscv_save_5
 168      E7020300 
 169              		.cfi_offset 20, -24
 170              		.cfi_offset 19, -20
 171              		.cfi_offset 18, -16
 172              		.cfi_offset 9, -12
 173              		.cfi_offset 8, -8
 174              		.cfi_offset 1, -4
 175              		.cfi_def_cfa_offset 32
  57:C:/Users/stapi/OneDrive/Desktop/GD32VW553/V1_MQTT_OK/GD32VW55X_Wifi_BLE_SDK/GD32VW55x_RELEASE_V1.0.2/MSDK/cloud/alicloud/src/services/dev_bind\awss_cmp_coap.c ****     struct coap_session_ctx_t *ctx = os_zalloc(sizeof(struct coap_session_ctx_t));
 176              		.loc 2 57 5
  56:C:/Users/stapi/OneDrive/Desktop/GD32VW553/V1_MQTT_OK/GD32VW55X_Wifi_BLE_SDK/GD32VW55x_RELEASE_V1.0.2/MSDK/cloud/alicloud/src/services/dev_bind\awss_cmp_coap.c ****     struct coap_session_ctx_t *ctx = os_zalloc(sizeof(struct coap_session_ctx_t));
 177              		.loc 2 56 1 is_stmt 0
 178 0008 4111     		addi	sp,sp,-16
 179              		.cfi_def_cfa_offset 48
  56:C:/Users/stapi/OneDrive/Desktop/GD32VW553/V1_MQTT_OK/GD32VW55X_Wifi_BLE_SDK/GD32VW55x_RELEASE_V1.0.2/MSDK/cloud/alicloud/src/services/dev_bind\awss_cmp_coap.c ****     struct coap_session_ctx_t *ctx = os_zalloc(sizeof(struct coap_session_ctx_t));
 180              		.loc 2 56 1
 181 000a AA84     		mv	s1,a0
 182              		.loc 2 57 38
 183 000c 3145     		li	a0,12
 184              	.LVL18:
  56:C:/Users/stapi/OneDrive/Desktop/GD32VW553/V1_MQTT_OK/GD32VW55X_Wifi_BLE_SDK/GD32VW55x_RELEASE_V1.0.2/MSDK/cloud/alicloud/src/services/dev_bind\awss_cmp_coap.c ****     struct coap_session_ctx_t *ctx = os_zalloc(sizeof(struct coap_session_ctx_t));
 185              		.loc 2 56 1
 186 000e AE89     		mv	s3,a1
 187 0010 3289     		mv	s2,a2
 188              		.loc 2 57 38
 189 0012 97000000 		call	os_zalloc
 189      E7800000 
 190              	.LVL19:
 191 001a 2A84     		mv	s0,a0
 192              	.LVL20:
  58:C:/Users/stapi/OneDrive/Desktop/GD32VW553/V1_MQTT_OK/GD32VW55X_Wifi_BLE_SDK/GD32VW55x_RELEASE_V1.0.2/MSDK/cloud/alicloud/src/services/dev_bind\awss_cmp_coap.c ****     if (ctx == NULL) {
 193              		.loc 2 58 5 is_stmt 1
 194              		.loc 2 58 8 is_stmt 0
 195 001c 35CD     		beq	a0,zero,.L29
  59:C:/Users/stapi/OneDrive/Desktop/GD32VW553/V1_MQTT_OK/GD32VW55X_Wifi_BLE_SDK/GD32VW55x_RELEASE_V1.0.2/MSDK/cloud/alicloud/src/services/dev_bind\awss_cmp_coap.c ****         goto CPY_CTX_FAIL;
  60:C:/Users/stapi/OneDrive/Desktop/GD32VW553/V1_MQTT_OK/GD32VW55X_Wifi_BLE_SDK/GD32VW55x_RELEASE_V1.0.2/MSDK/cloud/alicloud/src/services/dev_bind\awss_cmp_coap.c ****     }
  61:C:/Users/stapi/OneDrive/Desktop/GD32VW553/V1_MQTT_OK/GD32VW55X_Wifi_BLE_SDK/GD32VW55x_RELEASE_V1.0.2/MSDK/cloud/alicloud/src/services/dev_bind\awss_cmp_coap.c **** 
  62:C:/Users/stapi/OneDrive/Desktop/GD32VW553/V1_MQTT_OK/GD32VW55X_Wifi_BLE_SDK/GD32VW55x_RELEASE_V1.0.2/MSDK/cloud/alicloud/src/services/dev_bind\awss_cmp_coap.c ****     ctx->request = os_zalloc(sizeof(struct CoAPMessage));
 196              		.loc 2 62 5 is_stmt 1
 197              		.loc 2 62 20 is_stmt 0
 198 001e 13058008 		li	a0,136
 199 0022 97000000 		call	os_zalloc
 199      E7800000 
 200              	.LVL21:
 201              		.loc 2 62 18
 202 002a 08C0     		sw	a0,0(s0)
  63:C:/Users/stapi/OneDrive/Desktop/GD32VW553/V1_MQTT_OK/GD32VW55X_Wifi_BLE_SDK/GD32VW55x_RELEASE_V1.0.2/MSDK/cloud/alicloud/src/services/dev_bind\awss_cmp_coap.c ****     if (ctx->request == NULL) {
 203              		.loc 2 63 5 is_stmt 1
 204              		.loc 2 63 8 is_stmt 0
 205 002c 35C5     		beq	a0,zero,.L29
  64:C:/Users/stapi/OneDrive/Desktop/GD32VW553/V1_MQTT_OK/GD32VW55X_Wifi_BLE_SDK/GD32VW55x_RELEASE_V1.0.2/MSDK/cloud/alicloud/src/services/dev_bind\awss_cmp_coap.c ****         goto CPY_CTX_FAIL;
  65:C:/Users/stapi/OneDrive/Desktop/GD32VW553/V1_MQTT_OK/GD32VW55X_Wifi_BLE_SDK/GD32VW55x_RELEASE_V1.0.2/MSDK/cloud/alicloud/src/services/dev_bind\awss_cmp_coap.c ****     }
  66:C:/Users/stapi/OneDrive/Desktop/GD32VW553/V1_MQTT_OK/GD32VW55X_Wifi_BLE_SDK/GD32VW55x_RELEASE_V1.0.2/MSDK/cloud/alicloud/src/services/dev_bind\awss_cmp_coap.c **** 
  67:C:/Users/stapi/OneDrive/Desktop/GD32VW553/V1_MQTT_OK/GD32VW55X_Wifi_BLE_SDK/GD32VW55x_RELEASE_V1.0.2/MSDK/cloud/alicloud/src/services/dev_bind\awss_cmp_coap.c ****     memcpy(ctx->request, request, sizeof(struct CoAPMessage));
 206              		.loc 2 67 5 is_stmt 1
 207 002e 13068008 		li	a2,136
 208 0032 A685     		mv	a1,s1
 209 0034 97000000 		call	memcpy
 209      E7800000 
 210              	.LVL22:
  68:C:/Users/stapi/OneDrive/Desktop/GD32VW553/V1_MQTT_OK/GD32VW55X_Wifi_BLE_SDK/GD32VW55x_RELEASE_V1.0.2/MSDK/cloud/alicloud/src/services/dev_bind\awss_cmp_coap.c ****     do {
 211              		.loc 2 68 5
 212              	.LBB29:
  69:C:/Users/stapi/OneDrive/Desktop/GD32VW553/V1_MQTT_OK/GD32VW55X_Wifi_BLE_SDK/GD32VW55x_RELEASE_V1.0.2/MSDK/cloud/alicloud/src/services/dev_bind\awss_cmp_coap.c ****         char *payload = NULL;
 213              		.loc 2 69 9
  70:C:/Users/stapi/OneDrive/Desktop/GD32VW553/V1_MQTT_OK/GD32VW55X_Wifi_BLE_SDK/GD32VW55x_RELEASE_V1.0.2/MSDK/cloud/alicloud/src/services/dev_bind\awss_cmp_coap.c ****         int len = 0;
 214              		.loc 2 70 9
  71:C:/Users/stapi/OneDrive/Desktop/GD32VW553/V1_MQTT_OK/GD32VW55X_Wifi_BLE_SDK/GD32VW55x_RELEASE_V1.0.2/MSDK/cloud/alicloud/src/services/dev_bind\awss_cmp_coap.c ****         struct CoAPMessage *req = (struct CoAPMessage *)ctx->request;
 215              		.loc 2 71 9
 216              	.LBB30:
 217              	.LBB31:
  72:C:/Users/stapi/OneDrive/Desktop/GD32VW553/V1_MQTT_OK/GD32VW55X_Wifi_BLE_SDK/GD32VW55x_RELEASE_V1.0.2/MSDK/cloud/alicloud/src/services/dev_bind\awss_cmp_coap.c **** 
  73:C:/Users/stapi/OneDrive/Desktop/GD32VW553/V1_MQTT_OK/GD32VW55X_Wifi_BLE_SDK/GD32VW55x_RELEASE_V1.0.2/MSDK/cloud/alicloud/src/services/dev_bind\awss_cmp_coap.c ****         payload = awss_cmp_get_coap_payload(request, &len);
  74:C:/Users/stapi/OneDrive/Desktop/GD32VW553/V1_MQTT_OK/GD32VW55X_Wifi_BLE_SDK/GD32VW55x_RELEASE_V1.0.2/MSDK/cloud/alicloud/src/services/dev_bind\awss_cmp_coap.c ****         req->payloadlen = len;
  75:C:/Users/stapi/OneDrive/Desktop/GD32VW553/V1_MQTT_OK/GD32VW55X_Wifi_BLE_SDK/GD32VW55x_RELEASE_V1.0.2/MSDK/cloud/alicloud/src/services/dev_bind\awss_cmp_coap.c ****         if (payload == NULL) {
  76:C:/Users/stapi/OneDrive/Desktop/GD32VW553/V1_MQTT_OK/GD32VW55X_Wifi_BLE_SDK/GD32VW55x_RELEASE_V1.0.2/MSDK/cloud/alicloud/src/services/dev_bind\awss_cmp_coap.c ****             break;
  77:C:/Users/stapi/OneDrive/Desktop/GD32VW553/V1_MQTT_OK/GD32VW55X_Wifi_BLE_SDK/GD32VW55x_RELEASE_V1.0.2/MSDK/cloud/alicloud/src/services/dev_bind\awss_cmp_coap.c ****         }
  78:C:/Users/stapi/OneDrive/Desktop/GD32VW553/V1_MQTT_OK/GD32VW55X_Wifi_BLE_SDK/GD32VW55x_RELEASE_V1.0.2/MSDK/cloud/alicloud/src/services/dev_bind\awss_cmp_coap.c **** 
  79:C:/Users/stapi/OneDrive/Desktop/GD32VW553/V1_MQTT_OK/GD32VW55X_Wifi_BLE_SDK/GD32VW55x_RELEASE_V1.0.2/MSDK/cloud/alicloud/src/services/dev_bind\awss_cmp_coap.c ****         req->payload = os_zalloc(len + 1);
  80:C:/Users/stapi/OneDrive/Desktop/GD32VW553/V1_MQTT_OK/GD32VW55X_Wifi_BLE_SDK/GD32VW55x_RELEASE_V1.0.2/MSDK/cloud/alicloud/src/services/dev_bind\awss_cmp_coap.c ****         if (req->payload == NULL) {
  81:C:/Users/stapi/OneDrive/Desktop/GD32VW553/V1_MQTT_OK/GD32VW55X_Wifi_BLE_SDK/GD32VW55x_RELEASE_V1.0.2/MSDK/cloud/alicloud/src/services/dev_bind\awss_cmp_coap.c ****             goto CPY_CTX_FAIL;
  82:C:/Users/stapi/OneDrive/Desktop/GD32VW553/V1_MQTT_OK/GD32VW55X_Wifi_BLE_SDK/GD32VW55x_RELEASE_V1.0.2/MSDK/cloud/alicloud/src/services/dev_bind\awss_cmp_coap.c ****         }
  83:C:/Users/stapi/OneDrive/Desktop/GD32VW553/V1_MQTT_OK/GD32VW55X_Wifi_BLE_SDK/GD32VW55x_RELEASE_V1.0.2/MSDK/cloud/alicloud/src/services/dev_bind\awss_cmp_coap.c **** 
  84:C:/Users/stapi/OneDrive/Desktop/GD32VW553/V1_MQTT_OK/GD32VW55X_Wifi_BLE_SDK/GD32VW55x_RELEASE_V1.0.2/MSDK/cloud/alicloud/src/services/dev_bind\awss_cmp_coap.c ****         memcpy(req->payload, payload, len);
  85:C:/Users/stapi/OneDrive/Desktop/GD32VW553/V1_MQTT_OK/GD32VW55X_Wifi_BLE_SDK/GD32VW55x_RELEASE_V1.0.2/MSDK/cloud/alicloud/src/services/dev_bind\awss_cmp_coap.c ****     } while (0);
  86:C:/Users/stapi/OneDrive/Desktop/GD32VW553/V1_MQTT_OK/GD32VW55X_Wifi_BLE_SDK/GD32VW55x_RELEASE_V1.0.2/MSDK/cloud/alicloud/src/services/dev_bind\awss_cmp_coap.c **** 
  87:C:/Users/stapi/OneDrive/Desktop/GD32VW553/V1_MQTT_OK/GD32VW55X_Wifi_BLE_SDK/GD32VW55x_RELEASE_V1.0.2/MSDK/cloud/alicloud/src/services/dev_bind\awss_cmp_coap.c ****     ctx->remote = os_zalloc(sizeof(platform_netaddr_t));
  88:C:/Users/stapi/OneDrive/Desktop/GD32VW553/V1_MQTT_OK/GD32VW55X_Wifi_BLE_SDK/GD32VW55x_RELEASE_V1.0.2/MSDK/cloud/alicloud/src/services/dev_bind\awss_cmp_coap.c ****     if (ctx->remote == NULL) {
  89:C:/Users/stapi/OneDrive/Desktop/GD32VW553/V1_MQTT_OK/GD32VW55X_Wifi_BLE_SDK/GD32VW55x_RELEASE_V1.0.2/MSDK/cloud/alicloud/src/services/dev_bind\awss_cmp_coap.c ****         goto CPY_CTX_FAIL;
  90:C:/Users/stapi/OneDrive/Desktop/GD32VW553/V1_MQTT_OK/GD32VW55X_Wifi_BLE_SDK/GD32VW55x_RELEASE_V1.0.2/MSDK/cloud/alicloud/src/services/dev_bind\awss_cmp_coap.c ****     }
  91:C:/Users/stapi/OneDrive/Desktop/GD32VW553/V1_MQTT_OK/GD32VW55X_Wifi_BLE_SDK/GD32VW55x_RELEASE_V1.0.2/MSDK/cloud/alicloud/src/services/dev_bind\awss_cmp_coap.c **** 
  92:C:/Users/stapi/OneDrive/Desktop/GD32VW553/V1_MQTT_OK/GD32VW55X_Wifi_BLE_SDK/GD32VW55x_RELEASE_V1.0.2/MSDK/cloud/alicloud/src/services/dev_bind\awss_cmp_coap.c ****     memcpy(ctx->remote, remote, sizeof(platform_netaddr_t));
  93:C:/Users/stapi/OneDrive/Desktop/GD32VW553/V1_MQTT_OK/GD32VW55X_Wifi_BLE_SDK/GD32VW55x_RELEASE_V1.0.2/MSDK/cloud/alicloud/src/services/dev_bind\awss_cmp_coap.c ****     ctx->is_mcast = mcast;
  94:C:/Users/stapi/OneDrive/Desktop/GD32VW553/V1_MQTT_OK/GD32VW55X_Wifi_BLE_SDK/GD32VW55x_RELEASE_V1.0.2/MSDK/cloud/alicloud/src/services/dev_bind\awss_cmp_coap.c **** 
  95:C:/Users/stapi/OneDrive/Desktop/GD32VW553/V1_MQTT_OK/GD32VW55X_Wifi_BLE_SDK/GD32VW55x_RELEASE_V1.0.2/MSDK/cloud/alicloud/src/services/dev_bind\awss_cmp_coap.c ****     return ctx;
  96:C:/Users/stapi/OneDrive/Desktop/GD32VW553/V1_MQTT_OK/GD32VW55X_Wifi_BLE_SDK/GD32VW55x_RELEASE_V1.0.2/MSDK/cloud/alicloud/src/services/dev_bind\awss_cmp_coap.c **** 
  97:C:/Users/stapi/OneDrive/Desktop/GD32VW553/V1_MQTT_OK/GD32VW55X_Wifi_BLE_SDK/GD32VW55x_RELEASE_V1.0.2/MSDK/cloud/alicloud/src/services/dev_bind\awss_cmp_coap.c **** CPY_CTX_FAIL:
  98:C:/Users/stapi/OneDrive/Desktop/GD32VW553/V1_MQTT_OK/GD32VW55X_Wifi_BLE_SDK/GD32VW55x_RELEASE_V1.0.2/MSDK/cloud/alicloud/src/services/dev_bind\awss_cmp_coap.c ****     awss_release_coap_ctx(ctx);
  99:C:/Users/stapi/OneDrive/Desktop/GD32VW553/V1_MQTT_OK/GD32VW55X_Wifi_BLE_SDK/GD32VW55x_RELEASE_V1.0.2/MSDK/cloud/alicloud/src/services/dev_bind\awss_cmp_coap.c ****     return NULL;
 100:C:/Users/stapi/OneDrive/Desktop/GD32VW553/V1_MQTT_OK/GD32VW55X_Wifi_BLE_SDK/GD32VW55x_RELEASE_V1.0.2/MSDK/cloud/alicloud/src/services/dev_bind\awss_cmp_coap.c **** }
 101:C:/Users/stapi/OneDrive/Desktop/GD32VW553/V1_MQTT_OK/GD32VW55X_Wifi_BLE_SDK/GD32VW55x_RELEASE_V1.0.2/MSDK/cloud/alicloud/src/services/dev_bind\awss_cmp_coap.c **** 
 102:C:/Users/stapi/OneDrive/Desktop/GD32VW553/V1_MQTT_OK/GD32VW55X_Wifi_BLE_SDK/GD32VW55x_RELEASE_V1.0.2/MSDK/cloud/alicloud/src/services/dev_bind\awss_cmp_coap.c **** uint8_t awss_cmp_get_coap_code(void *request)
 103:C:/Users/stapi/OneDrive/Desktop/GD32VW553/V1_MQTT_OK/GD32VW55X_Wifi_BLE_SDK/GD32VW55x_RELEASE_V1.0.2/MSDK/cloud/alicloud/src/services/dev_bind\awss_cmp_coap.c **** {
 104:C:/Users/stapi/OneDrive/Desktop/GD32VW553/V1_MQTT_OK/GD32VW55X_Wifi_BLE_SDK/GD32VW55x_RELEASE_V1.0.2/MSDK/cloud/alicloud/src/services/dev_bind\awss_cmp_coap.c ****     if (request == NULL) {
 105:C:/Users/stapi/OneDrive/Desktop/GD32VW553/V1_MQTT_OK/GD32VW55X_Wifi_BLE_SDK/GD32VW55x_RELEASE_V1.0.2/MSDK/cloud/alicloud/src/services/dev_bind\awss_cmp_coap.c ****         return 0x60;
 106:C:/Users/stapi/OneDrive/Desktop/GD32VW553/V1_MQTT_OK/GD32VW55X_Wifi_BLE_SDK/GD32VW55x_RELEASE_V1.0.2/MSDK/cloud/alicloud/src/services/dev_bind\awss_cmp_coap.c ****     }
 107:C:/Users/stapi/OneDrive/Desktop/GD32VW553/V1_MQTT_OK/GD32VW55X_Wifi_BLE_SDK/GD32VW55x_RELEASE_V1.0.2/MSDK/cloud/alicloud/src/services/dev_bind\awss_cmp_coap.c ****     struct CoAPMessage *msg = (struct CoAPMessage *)request;
 108:C:/Users/stapi/OneDrive/Desktop/GD32VW553/V1_MQTT_OK/GD32VW55X_Wifi_BLE_SDK/GD32VW55x_RELEASE_V1.0.2/MSDK/cloud/alicloud/src/services/dev_bind\awss_cmp_coap.c ****     return msg->header.code;
 109:C:/Users/stapi/OneDrive/Desktop/GD32VW553/V1_MQTT_OK/GD32VW55X_Wifi_BLE_SDK/GD32VW55x_RELEASE_V1.0.2/MSDK/cloud/alicloud/src/services/dev_bind\awss_cmp_coap.c **** }
 110:C:/Users/stapi/OneDrive/Desktop/GD32VW553/V1_MQTT_OK/GD32VW55X_Wifi_BLE_SDK/GD32VW55x_RELEASE_V1.0.2/MSDK/cloud/alicloud/src/services/dev_bind\awss_cmp_coap.c **** 
 111:C:/Users/stapi/OneDrive/Desktop/GD32VW553/V1_MQTT_OK/GD32VW55X_Wifi_BLE_SDK/GD32VW55x_RELEASE_V1.0.2/MSDK/cloud/alicloud/src/services/dev_bind\awss_cmp_coap.c **** char *awss_cmp_get_coap_payload(void *request, int *payload_len)
 112:C:/Users/stapi/OneDrive/Desktop/GD32VW553/V1_MQTT_OK/GD32VW55X_Wifi_BLE_SDK/GD32VW55x_RELEASE_V1.0.2/MSDK/cloud/alicloud/src/services/dev_bind\awss_cmp_coap.c **** {
 113:C:/Users/stapi/OneDrive/Desktop/GD32VW553/V1_MQTT_OK/GD32VW55X_Wifi_BLE_SDK/GD32VW55x_RELEASE_V1.0.2/MSDK/cloud/alicloud/src/services/dev_bind\awss_cmp_coap.c ****     if (request == NULL) {
 114:C:/Users/stapi/OneDrive/Desktop/GD32VW553/V1_MQTT_OK/GD32VW55X_Wifi_BLE_SDK/GD32VW55x_RELEASE_V1.0.2/MSDK/cloud/alicloud/src/services/dev_bind\awss_cmp_coap.c ****         return NULL;
 115:C:/Users/stapi/OneDrive/Desktop/GD32VW553/V1_MQTT_OK/GD32VW55X_Wifi_BLE_SDK/GD32VW55x_RELEASE_V1.0.2/MSDK/cloud/alicloud/src/services/dev_bind\awss_cmp_coap.c ****     }
 116:C:/Users/stapi/OneDrive/Desktop/GD32VW553/V1_MQTT_OK/GD32VW55X_Wifi_BLE_SDK/GD32VW55x_RELEASE_V1.0.2/MSDK/cloud/alicloud/src/services/dev_bind\awss_cmp_coap.c **** 
 117:C:/Users/stapi/OneDrive/Desktop/GD32VW553/V1_MQTT_OK/GD32VW55X_Wifi_BLE_SDK/GD32VW55x_RELEASE_V1.0.2/MSDK/cloud/alicloud/src/services/dev_bind\awss_cmp_coap.c ****     struct CoAPMessage *msg = (struct CoAPMessage *)request;
 118:C:/Users/stapi/OneDrive/Desktop/GD32VW553/V1_MQTT_OK/GD32VW55X_Wifi_BLE_SDK/GD32VW55x_RELEASE_V1.0.2/MSDK/cloud/alicloud/src/services/dev_bind\awss_cmp_coap.c ****     if (payload_len) {
 119:C:/Users/stapi/OneDrive/Desktop/GD32VW553/V1_MQTT_OK/GD32VW55X_Wifi_BLE_SDK/GD32VW55x_RELEASE_V1.0.2/MSDK/cloud/alicloud/src/services/dev_bind\awss_cmp_coap.c ****         *payload_len = msg->payloadlen;
 120:C:/Users/stapi/OneDrive/Desktop/GD32VW553/V1_MQTT_OK/GD32VW55X_Wifi_BLE_SDK/GD32VW55x_RELEASE_V1.0.2/MSDK/cloud/alicloud/src/services/dev_bind\awss_cmp_coap.c ****     }
 121:C:/Users/stapi/OneDrive/Desktop/GD32VW553/V1_MQTT_OK/GD32VW55X_Wifi_BLE_SDK/GD32VW55x_RELEASE_V1.0.2/MSDK/cloud/alicloud/src/services/dev_bind\awss_cmp_coap.c ****     return (char *)msg->payload;
 218              		.loc 2 121 12 is_stmt 0
 219 003c AC58     		lw	a1,112(s1)
 220              	.LBE31:
 221              	.LBE30:
  71:C:/Users/stapi/OneDrive/Desktop/GD32VW553/V1_MQTT_OK/GD32VW55X_Wifi_BLE_SDK/GD32VW55x_RELEASE_V1.0.2/MSDK/cloud/alicloud/src/services/dev_bind\awss_cmp_coap.c ****         struct CoAPMessage *req = (struct CoAPMessage *)ctx->request;
 222              		.loc 2 71 29
 223 003e 032A0400 		lw	s4,0(s0)
 224              	.LVL23:
  73:C:/Users/stapi/OneDrive/Desktop/GD32VW553/V1_MQTT_OK/GD32VW55X_Wifi_BLE_SDK/GD32VW55x_RELEASE_V1.0.2/MSDK/cloud/alicloud/src/services/dev_bind\awss_cmp_coap.c ****         req->payloadlen = len;
 225              		.loc 2 73 9 is_stmt 1
 226              	.LBB33:
 227              	.LBB32:
 113:C:/Users/stapi/OneDrive/Desktop/GD32VW553/V1_MQTT_OK/GD32VW55X_Wifi_BLE_SDK/GD32VW55x_RELEASE_V1.0.2/MSDK/cloud/alicloud/src/services/dev_bind\awss_cmp_coap.c ****         return NULL;
 228              		.loc 2 113 5
 117:C:/Users/stapi/OneDrive/Desktop/GD32VW553/V1_MQTT_OK/GD32VW55X_Wifi_BLE_SDK/GD32VW55x_RELEASE_V1.0.2/MSDK/cloud/alicloud/src/services/dev_bind\awss_cmp_coap.c ****     if (payload_len) {
 229              		.loc 2 117 5
 118:C:/Users/stapi/OneDrive/Desktop/GD32VW553/V1_MQTT_OK/GD32VW55X_Wifi_BLE_SDK/GD32VW55x_RELEASE_V1.0.2/MSDK/cloud/alicloud/src/services/dev_bind\awss_cmp_coap.c ****         *payload_len = msg->payloadlen;
 230              		.loc 2 118 5
 119:C:/Users/stapi/OneDrive/Desktop/GD32VW553/V1_MQTT_OK/GD32VW55X_Wifi_BLE_SDK/GD32VW55x_RELEASE_V1.0.2/MSDK/cloud/alicloud/src/services/dev_bind\awss_cmp_coap.c ****     }
 231              		.loc 2 119 9
 119:C:/Users/stapi/OneDrive/Desktop/GD32VW553/V1_MQTT_OK/GD32VW55X_Wifi_BLE_SDK/GD32VW55x_RELEASE_V1.0.2/MSDK/cloud/alicloud/src/services/dev_bind\awss_cmp_coap.c ****     }
 232              		.loc 2 119 27 is_stmt 0
 233 0042 03D6E406 		lhu	a2,110(s1)
 234              	.LVL24:
 235              		.loc 2 121 5 is_stmt 1
 236              	.LBE32:
 237              	.LBE33:
  74:C:/Users/stapi/OneDrive/Desktop/GD32VW553/V1_MQTT_OK/GD32VW55X_Wifi_BLE_SDK/GD32VW55x_RELEASE_V1.0.2/MSDK/cloud/alicloud/src/services/dev_bind\awss_cmp_coap.c ****         if (payload == NULL) {
 238              		.loc 2 74 9
  75:C:/Users/stapi/OneDrive/Desktop/GD32VW553/V1_MQTT_OK/GD32VW55X_Wifi_BLE_SDK/GD32VW55x_RELEASE_V1.0.2/MSDK/cloud/alicloud/src/services/dev_bind\awss_cmp_coap.c ****             break;
 239              		.loc 2 75 12 is_stmt 0
 240 0046 2EC6     		sw	a1,12(sp)
  74:C:/Users/stapi/OneDrive/Desktop/GD32VW553/V1_MQTT_OK/GD32VW55X_Wifi_BLE_SDK/GD32VW55x_RELEASE_V1.0.2/MSDK/cloud/alicloud/src/services/dev_bind\awss_cmp_coap.c ****         if (payload == NULL) {
 241              		.loc 2 74 25
 242 0048 2317CA06 		sh	a2,110(s4)
  75:C:/Users/stapi/OneDrive/Desktop/GD32VW553/V1_MQTT_OK/GD32VW55X_Wifi_BLE_SDK/GD32VW55x_RELEASE_V1.0.2/MSDK/cloud/alicloud/src/services/dev_bind\awss_cmp_coap.c ****             break;
 243              		.loc 2 75 9 is_stmt 1
  75:C:/Users/stapi/OneDrive/Desktop/GD32VW553/V1_MQTT_OK/GD32VW55X_Wifi_BLE_SDK/GD32VW55x_RELEASE_V1.0.2/MSDK/cloud/alicloud/src/services/dev_bind\awss_cmp_coap.c ****             break;
 244              		.loc 2 75 12 is_stmt 0
 245 004c 8DC1     		beq	a1,zero,.L30
  79:C:/Users/stapi/OneDrive/Desktop/GD32VW553/V1_MQTT_OK/GD32VW55X_Wifi_BLE_SDK/GD32VW55x_RELEASE_V1.0.2/MSDK/cloud/alicloud/src/services/dev_bind\awss_cmp_coap.c ****         if (req->payload == NULL) {
 246              		.loc 2 79 9 is_stmt 1
  79:C:/Users/stapi/OneDrive/Desktop/GD32VW553/V1_MQTT_OK/GD32VW55X_Wifi_BLE_SDK/GD32VW55x_RELEASE_V1.0.2/MSDK/cloud/alicloud/src/services/dev_bind\awss_cmp_coap.c ****         if (req->payload == NULL) {
 247              		.loc 2 79 24 is_stmt 0
 248 004e 13051600 		addi	a0,a2,1
 249 0052 32C4     		sw	a2,8(sp)
 250 0054 97000000 		call	os_zalloc
 250      E7800000 
 251              	.LVL25:
  79:C:/Users/stapi/OneDrive/Desktop/GD32VW553/V1_MQTT_OK/GD32VW55X_Wifi_BLE_SDK/GD32VW55x_RELEASE_V1.0.2/MSDK/cloud/alicloud/src/services/dev_bind\awss_cmp_coap.c ****         if (req->payload == NULL) {
 252              		.loc 2 79 22
 253 005c 2328AA06 		sw	a0,112(s4)
  80:C:/Users/stapi/OneDrive/Desktop/GD32VW553/V1_MQTT_OK/GD32VW55X_Wifi_BLE_SDK/GD32VW55x_RELEASE_V1.0.2/MSDK/cloud/alicloud/src/services/dev_bind\awss_cmp_coap.c ****             goto CPY_CTX_FAIL;
 254              		.loc 2 80 9 is_stmt 1
  80:C:/Users/stapi/OneDrive/Desktop/GD32VW553/V1_MQTT_OK/GD32VW55X_Wifi_BLE_SDK/GD32VW55x_RELEASE_V1.0.2/MSDK/cloud/alicloud/src/services/dev_bind\awss_cmp_coap.c ****             goto CPY_CTX_FAIL;
 255              		.loc 2 80 12 is_stmt 0
 256 0060 05CD     		beq	a0,zero,.L29
  84:C:/Users/stapi/OneDrive/Desktop/GD32VW553/V1_MQTT_OK/GD32VW55X_Wifi_BLE_SDK/GD32VW55x_RELEASE_V1.0.2/MSDK/cloud/alicloud/src/services/dev_bind\awss_cmp_coap.c ****     } while (0);
 257              		.loc 2 84 9 is_stmt 1
 258 0062 2246     		lw	a2,8(sp)
 259 0064 B245     		lw	a1,12(sp)
 260 0066 97000000 		call	memcpy
 260      E7800000 
 261              	.LVL26:
 262              	.L30:
 263              	.LBE29:
  85:C:/Users/stapi/OneDrive/Desktop/GD32VW553/V1_MQTT_OK/GD32VW55X_Wifi_BLE_SDK/GD32VW55x_RELEASE_V1.0.2/MSDK/cloud/alicloud/src/services/dev_bind\awss_cmp_coap.c **** 
 264              		.loc 2 85 13
  87:C:/Users/stapi/OneDrive/Desktop/GD32VW553/V1_MQTT_OK/GD32VW55X_Wifi_BLE_SDK/GD32VW55x_RELEASE_V1.0.2/MSDK/cloud/alicloud/src/services/dev_bind\awss_cmp_coap.c ****     if (ctx->remote == NULL) {
 265              		.loc 2 87 5
  87:C:/Users/stapi/OneDrive/Desktop/GD32VW553/V1_MQTT_OK/GD32VW55X_Wifi_BLE_SDK/GD32VW55x_RELEASE_V1.0.2/MSDK/cloud/alicloud/src/services/dev_bind\awss_cmp_coap.c ****     if (ctx->remote == NULL) {
 266              		.loc 2 87 19 is_stmt 0
 267 006e 4945     		li	a0,18
 268 0070 97000000 		call	os_zalloc
 268      E7800000 
 269              	.LVL27:
  87:C:/Users/stapi/OneDrive/Desktop/GD32VW553/V1_MQTT_OK/GD32VW55X_Wifi_BLE_SDK/GD32VW55x_RELEASE_V1.0.2/MSDK/cloud/alicloud/src/services/dev_bind\awss_cmp_coap.c ****     if (ctx->remote == NULL) {
 270              		.loc 2 87 17
 271 0078 48C0     		sw	a0,4(s0)
  88:C:/Users/stapi/OneDrive/Desktop/GD32VW553/V1_MQTT_OK/GD32VW55X_Wifi_BLE_SDK/GD32VW55x_RELEASE_V1.0.2/MSDK/cloud/alicloud/src/services/dev_bind\awss_cmp_coap.c ****         goto CPY_CTX_FAIL;
 272              		.loc 2 88 5 is_stmt 1
  88:C:/Users/stapi/OneDrive/Desktop/GD32VW553/V1_MQTT_OK/GD32VW55X_Wifi_BLE_SDK/GD32VW55x_RELEASE_V1.0.2/MSDK/cloud/alicloud/src/services/dev_bind\awss_cmp_coap.c ****         goto CPY_CTX_FAIL;
 273              		.loc 2 88 8 is_stmt 0
 274 007a 19CD     		beq	a0,zero,.L29
  92:C:/Users/stapi/OneDrive/Desktop/GD32VW553/V1_MQTT_OK/GD32VW55X_Wifi_BLE_SDK/GD32VW55x_RELEASE_V1.0.2/MSDK/cloud/alicloud/src/services/dev_bind\awss_cmp_coap.c ****     ctx->is_mcast = mcast;
 275              		.loc 2 92 5 is_stmt 1
 276 007c 4946     		li	a2,18
 277 007e CE85     		mv	a1,s3
 278 0080 97000000 		call	memcpy
 278      E7800000 
 279              	.LVL28:
  93:C:/Users/stapi/OneDrive/Desktop/GD32VW553/V1_MQTT_OK/GD32VW55X_Wifi_BLE_SDK/GD32VW55x_RELEASE_V1.0.2/MSDK/cloud/alicloud/src/services/dev_bind\awss_cmp_coap.c **** 
 280              		.loc 2 93 5
  93:C:/Users/stapi/OneDrive/Desktop/GD32VW553/V1_MQTT_OK/GD32VW55X_Wifi_BLE_SDK/GD32VW55x_RELEASE_V1.0.2/MSDK/cloud/alicloud/src/services/dev_bind\awss_cmp_coap.c **** 
 281              		.loc 2 93 19 is_stmt 0
 282 0088 23042401 		sb	s2,8(s0)
  95:C:/Users/stapi/OneDrive/Desktop/GD32VW553/V1_MQTT_OK/GD32VW55X_Wifi_BLE_SDK/GD32VW55x_RELEASE_V1.0.2/MSDK/cloud/alicloud/src/services/dev_bind\awss_cmp_coap.c **** 
 283              		.loc 2 95 5 is_stmt 1
 284              	.LVL29:
 285              	.L28:
 100:C:/Users/stapi/OneDrive/Desktop/GD32VW553/V1_MQTT_OK/GD32VW55X_Wifi_BLE_SDK/GD32VW55x_RELEASE_V1.0.2/MSDK/cloud/alicloud/src/services/dev_bind\awss_cmp_coap.c **** 
 286              		.loc 2 100 1 is_stmt 0
 287 008c 2285     		mv	a0,s0
 288 008e 4101     		addi	sp,sp,16
 289              		.cfi_remember_state
 290              		.cfi_def_cfa_offset 0
 291 0090 17030000 		tail	__riscv_restore_5
 291      67000300 
 292              		.cfi_restore 20
 293              		.cfi_restore 19
 294              		.cfi_restore 18
 295              		.cfi_restore 9
 296              		.cfi_restore 8
 297              		.cfi_restore 1
 298              		.cfi_def_cfa_offset -32
 299              	.LVL30:
 300              	.L29:
 301              		.cfi_restore_state
 302              	.LDL1:
  98:C:/Users/stapi/OneDrive/Desktop/GD32VW553/V1_MQTT_OK/GD32VW55X_Wifi_BLE_SDK/GD32VW55x_RELEASE_V1.0.2/MSDK/cloud/alicloud/src/services/dev_bind\awss_cmp_coap.c ****     return NULL;
 303              		.loc 2 98 5 is_stmt 1
 304 0098 2285     		mv	a0,s0
 305 009a 97000000 		call	awss_release_coap_ctx
 305      E7800000 
 306              	.LVL31:
  99:C:/Users/stapi/OneDrive/Desktop/GD32VW553/V1_MQTT_OK/GD32VW55X_Wifi_BLE_SDK/GD32VW55x_RELEASE_V1.0.2/MSDK/cloud/alicloud/src/services/dev_bind\awss_cmp_coap.c **** }
 307              		.loc 2 99 5
  99:C:/Users/stapi/OneDrive/Desktop/GD32VW553/V1_MQTT_OK/GD32VW55X_Wifi_BLE_SDK/GD32VW55x_RELEASE_V1.0.2/MSDK/cloud/alicloud/src/services/dev_bind\awss_cmp_coap.c **** }
 308              		.loc 2 99 12 is_stmt 0
 309 00a2 0144     		li	s0,0
 310              	.LVL32:
 311 00a4 E5B7     		j	.L28
 312              		.cfi_endproc
 313              	.LFE49:
 315              		.section	.text.awss_cmp_get_coap_code,"ax",@progbits
 316              		.align	1
 317              		.globl	awss_cmp_get_coap_code
 319              	awss_cmp_get_coap_code:
 320              	.LFB50:
 103:C:/Users/stapi/OneDrive/Desktop/GD32VW553/V1_MQTT_OK/GD32VW55X_Wifi_BLE_SDK/GD32VW55x_RELEASE_V1.0.2/MSDK/cloud/alicloud/src/services/dev_bind\awss_cmp_coap.c ****     if (request == NULL) {
 321              		.loc 2 103 1 is_stmt 1
 322              		.cfi_startproc
 323              	.LVL33:
 104:C:/Users/stapi/OneDrive/Desktop/GD32VW553/V1_MQTT_OK/GD32VW55X_Wifi_BLE_SDK/GD32VW55x_RELEASE_V1.0.2/MSDK/cloud/alicloud/src/services/dev_bind\awss_cmp_coap.c ****         return 0x60;
 324              		.loc 2 104 5
 104:C:/Users/stapi/OneDrive/Desktop/GD32VW553/V1_MQTT_OK/GD32VW55X_Wifi_BLE_SDK/GD32VW55x_RELEASE_V1.0.2/MSDK/cloud/alicloud/src/services/dev_bind\awss_cmp_coap.c ****         return 0x60;
 325              		.loc 2 104 8 is_stmt 0
 326 0000 01C5     		beq	a0,zero,.L50
 107:C:/Users/stapi/OneDrive/Desktop/GD32VW553/V1_MQTT_OK/GD32VW55X_Wifi_BLE_SDK/GD32VW55x_RELEASE_V1.0.2/MSDK/cloud/alicloud/src/services/dev_bind\awss_cmp_coap.c ****     return msg->header.code;
 327              		.loc 2 107 5 is_stmt 1
 328              	.LVL34:
 108:C:/Users/stapi/OneDrive/Desktop/GD32VW553/V1_MQTT_OK/GD32VW55X_Wifi_BLE_SDK/GD32VW55x_RELEASE_V1.0.2/MSDK/cloud/alicloud/src/services/dev_bind\awss_cmp_coap.c **** }
 329              		.loc 2 108 5
 108:C:/Users/stapi/OneDrive/Desktop/GD32VW553/V1_MQTT_OK/GD32VW55X_Wifi_BLE_SDK/GD32VW55x_RELEASE_V1.0.2/MSDK/cloud/alicloud/src/services/dev_bind\awss_cmp_coap.c **** }
 330              		.loc 2 108 23 is_stmt 0
 331 0002 03451500 		lbu	a0,1(a0)
 332              	.LVL35:
 333 0006 8280     		ret
 334              	.LVL36:
 335              	.L50:
 105:C:/Users/stapi/OneDrive/Desktop/GD32VW553/V1_MQTT_OK/GD32VW55X_Wifi_BLE_SDK/GD32VW55x_RELEASE_V1.0.2/MSDK/cloud/alicloud/src/services/dev_bind\awss_cmp_coap.c ****     }
 336              		.loc 2 105 16
 337 0008 13050006 		li	a0,96
 338              	.LVL37:
 109:C:/Users/stapi/OneDrive/Desktop/GD32VW553/V1_MQTT_OK/GD32VW55X_Wifi_BLE_SDK/GD32VW55x_RELEASE_V1.0.2/MSDK/cloud/alicloud/src/services/dev_bind\awss_cmp_coap.c **** 
 339              		.loc 2 109 1
 340 000c 8280     		ret
 341              		.cfi_endproc
 342              	.LFE50:
 344              		.section	.text.awss_cmp_get_coap_payload,"ax",@progbits
 345              		.align	1
 346              		.globl	awss_cmp_get_coap_payload
 348              	awss_cmp_get_coap_payload:
 349              	.LFB51:
 112:C:/Users/stapi/OneDrive/Desktop/GD32VW553/V1_MQTT_OK/GD32VW55X_Wifi_BLE_SDK/GD32VW55x_RELEASE_V1.0.2/MSDK/cloud/alicloud/src/services/dev_bind\awss_cmp_coap.c ****     if (request == NULL) {
 350              		.loc 2 112 1 is_stmt 1
 351              		.cfi_startproc
 352              	.LVL38:
 113:C:/Users/stapi/OneDrive/Desktop/GD32VW553/V1_MQTT_OK/GD32VW55X_Wifi_BLE_SDK/GD32VW55x_RELEASE_V1.0.2/MSDK/cloud/alicloud/src/services/dev_bind\awss_cmp_coap.c ****         return NULL;
 353              		.loc 2 113 5
 113:C:/Users/stapi/OneDrive/Desktop/GD32VW553/V1_MQTT_OK/GD32VW55X_Wifi_BLE_SDK/GD32VW55x_RELEASE_V1.0.2/MSDK/cloud/alicloud/src/services/dev_bind\awss_cmp_coap.c ****         return NULL;
 354              		.loc 2 113 8 is_stmt 0
 355 0000 11C5     		beq	a0,zero,.L52
 117:C:/Users/stapi/OneDrive/Desktop/GD32VW553/V1_MQTT_OK/GD32VW55X_Wifi_BLE_SDK/GD32VW55x_RELEASE_V1.0.2/MSDK/cloud/alicloud/src/services/dev_bind\awss_cmp_coap.c ****     if (payload_len) {
 356              		.loc 2 117 5 is_stmt 1
 357              	.LVL39:
 118:C:/Users/stapi/OneDrive/Desktop/GD32VW553/V1_MQTT_OK/GD32VW55X_Wifi_BLE_SDK/GD32VW55x_RELEASE_V1.0.2/MSDK/cloud/alicloud/src/services/dev_bind\awss_cmp_coap.c ****         *payload_len = msg->payloadlen;
 358              		.loc 2 118 5
 118:C:/Users/stapi/OneDrive/Desktop/GD32VW553/V1_MQTT_OK/GD32VW55X_Wifi_BLE_SDK/GD32VW55x_RELEASE_V1.0.2/MSDK/cloud/alicloud/src/services/dev_bind\awss_cmp_coap.c ****         *payload_len = msg->payloadlen;
 359              		.loc 2 118 8 is_stmt 0
 360 0002 81C5     		beq	a1,zero,.L53
 119:C:/Users/stapi/OneDrive/Desktop/GD32VW553/V1_MQTT_OK/GD32VW55X_Wifi_BLE_SDK/GD32VW55x_RELEASE_V1.0.2/MSDK/cloud/alicloud/src/services/dev_bind\awss_cmp_coap.c ****     }
 361              		.loc 2 119 9 is_stmt 1
 119:C:/Users/stapi/OneDrive/Desktop/GD32VW553/V1_MQTT_OK/GD32VW55X_Wifi_BLE_SDK/GD32VW55x_RELEASE_V1.0.2/MSDK/cloud/alicloud/src/services/dev_bind\awss_cmp_coap.c ****     }
 362              		.loc 2 119 27 is_stmt 0
 363 0004 8357E506 		lhu	a5,110(a0)
 364 0008 9CC1     		sw	a5,0(a1)
 365              	.L53:
 366              		.loc 2 121 5 is_stmt 1
 367              		.loc 2 121 12 is_stmt 0
 368 000a 2859     		lw	a0,112(a0)
 369              	.LVL40:
 370              	.L52:
 122:C:/Users/stapi/OneDrive/Desktop/GD32VW553/V1_MQTT_OK/GD32VW55X_Wifi_BLE_SDK/GD32VW55x_RELEASE_V1.0.2/MSDK/cloud/alicloud/src/services/dev_bind\awss_cmp_coap.c **** }
 371              		.loc 2 122 1
 372 000c 8280     		ret
 373              		.cfi_endproc
 374              	.LFE51:
 376              		.section	.text.awss_cmp_coap_register_cb,"ax",@progbits
 377              		.align	1
 378              		.globl	awss_cmp_coap_register_cb
 380              	awss_cmp_coap_register_cb:
 381              	.LFB52:
 123:C:/Users/stapi/OneDrive/Desktop/GD32VW553/V1_MQTT_OK/GD32VW55X_Wifi_BLE_SDK/GD32VW55x_RELEASE_V1.0.2/MSDK/cloud/alicloud/src/services/dev_bind\awss_cmp_coap.c **** 
 124:C:/Users/stapi/OneDrive/Desktop/GD32VW553/V1_MQTT_OK/GD32VW55X_Wifi_BLE_SDK/GD32VW55x_RELEASE_V1.0.2/MSDK/cloud/alicloud/src/services/dev_bind\awss_cmp_coap.c **** int awss_cmp_coap_register_cb(char *topic, void *cb)
 125:C:/Users/stapi/OneDrive/Desktop/GD32VW553/V1_MQTT_OK/GD32VW55X_Wifi_BLE_SDK/GD32VW55x_RELEASE_V1.0.2/MSDK/cloud/alicloud/src/services/dev_bind\awss_cmp_coap.c **** {
 382              		.loc 2 125 1 is_stmt 1
 383              		.cfi_startproc
 384              	.LVL41:
 385 0000 17030000 		call	t0,__riscv_save_2
 385      E7020300 
 386              		.cfi_offset 9, -12
 387              		.cfi_offset 8, -8
 388              		.cfi_offset 1, -4
 389              		.cfi_def_cfa_offset 16
 126:C:/Users/stapi/OneDrive/Desktop/GD32VW553/V1_MQTT_OK/GD32VW55X_Wifi_BLE_SDK/GD32VW55x_RELEASE_V1.0.2/MSDK/cloud/alicloud/src/services/dev_bind\awss_cmp_coap.c ****     int ret = STATE_SUCCESS;
 390              		.loc 2 126 5
 391              	.LVL42:
 127:C:/Users/stapi/OneDrive/Desktop/GD32VW553/V1_MQTT_OK/GD32VW55X_Wifi_BLE_SDK/GD32VW55x_RELEASE_V1.0.2/MSDK/cloud/alicloud/src/services/dev_bind\awss_cmp_coap.c ****     if (g_coap_ctx == NULL) {
 392              		.loc 2 127 5
 393              		.loc 2 127 20 is_stmt 0
 394 0008 37040000 		lui	s0,%hi(.LANCHOR0)
 395              		.loc 2 127 8
 396 000c 83270400 		lw	a5,%lo(.LANCHOR0)(s0)
 125:C:/Users/stapi/OneDrive/Desktop/GD32VW553/V1_MQTT_OK/GD32VW55X_Wifi_BLE_SDK/GD32VW55x_RELEASE_V1.0.2/MSDK/cloud/alicloud/src/services/dev_bind\awss_cmp_coap.c ****     int ret = STATE_SUCCESS;
 397              		.loc 2 125 1
 398 0010 4111     		addi	sp,sp,-16
 399              		.cfi_def_cfa_offset 32
 125:C:/Users/stapi/OneDrive/Desktop/GD32VW553/V1_MQTT_OK/GD32VW55X_Wifi_BLE_SDK/GD32VW55x_RELEASE_V1.0.2/MSDK/cloud/alicloud/src/services/dev_bind\awss_cmp_coap.c ****     int ret = STATE_SUCCESS;
 400              		.loc 2 125 1
 401 0012 AA84     		mv	s1,a0
 402 0014 2E86     		mv	a2,a1
 403 0016 13040400 		addi	s0,s0,%lo(.LANCHOR0)
 404              		.loc 2 127 8
 405 001a 81EB     		bne	a5,zero,.L61
 406 001c 2EC6     		sw	a1,12(sp)
 128:C:/Users/stapi/OneDrive/Desktop/GD32VW553/V1_MQTT_OK/GD32VW55X_Wifi_BLE_SDK/GD32VW55x_RELEASE_V1.0.2/MSDK/cloud/alicloud/src/services/dev_bind\awss_cmp_coap.c ****         g_coap_ctx = (void *)CoAPServer_init();
 407              		.loc 2 128 9 is_stmt 1
 408              		.loc 2 128 30 is_stmt 0
 409 001e 97000000 		call	CoAPServer_init
 409      E7800000 
 410              	.LVL43:
 411              		.loc 2 128 20
 412 0026 3246     		lw	a2,12(sp)
 413 0028 08C0     		sw	a0,0(s0)
 414              	.LVL44:
 415              	.L61:
 129:C:/Users/stapi/OneDrive/Desktop/GD32VW553/V1_MQTT_OK/GD32VW55X_Wifi_BLE_SDK/GD32VW55x_RELEASE_V1.0.2/MSDK/cloud/alicloud/src/services/dev_bind\awss_cmp_coap.c ****     }
 130:C:/Users/stapi/OneDrive/Desktop/GD32VW553/V1_MQTT_OK/GD32VW55X_Wifi_BLE_SDK/GD32VW55x_RELEASE_V1.0.2/MSDK/cloud/alicloud/src/services/dev_bind\awss_cmp_coap.c **** 
 131:C:/Users/stapi/OneDrive/Desktop/GD32VW553/V1_MQTT_OK/GD32VW55X_Wifi_BLE_SDK/GD32VW55x_RELEASE_V1.0.2/MSDK/cloud/alicloud/src/services/dev_bind\awss_cmp_coap.c ****     if (g_coap_ctx == NULL) {
 416              		.loc 2 131 5 is_stmt 1
 417              		.loc 2 131 20 is_stmt 0
 418 002a 1C40     		lw	a5,0(s0)
 419              		.loc 2 131 8
 420 002c 99CB     		beq	a5,zero,.L62
 132:C:/Users/stapi/OneDrive/Desktop/GD32VW553/V1_MQTT_OK/GD32VW55X_Wifi_BLE_SDK/GD32VW55x_RELEASE_V1.0.2/MSDK/cloud/alicloud/src/services/dev_bind\awss_cmp_coap.c ****         //dump_dev_bind_status(STATE_BIND_COAP_INIT_FAIL, "coap init fail");
 133:C:/Users/stapi/OneDrive/Desktop/GD32VW553/V1_MQTT_OK/GD32VW55X_Wifi_BLE_SDK/GD32VW55x_RELEASE_V1.0.2/MSDK/cloud/alicloud/src/services/dev_bind\awss_cmp_coap.c **** 		//iotx_state_event(ITE_STATE_DEV_BIND, STATE_BIND_COAP_INIT_FAIL, NULL);
 134:C:/Users/stapi/OneDrive/Desktop/GD32VW553/V1_MQTT_OK/GD32VW55X_Wifi_BLE_SDK/GD32VW55x_RELEASE_V1.0.2/MSDK/cloud/alicloud/src/services/dev_bind\awss_cmp_coap.c ****         return  STATE_WIFI_COAP_INIT_FAILED;
 135:C:/Users/stapi/OneDrive/Desktop/GD32VW553/V1_MQTT_OK/GD32VW55X_Wifi_BLE_SDK/GD32VW55x_RELEASE_V1.0.2/MSDK/cloud/alicloud/src/services/dev_bind\awss_cmp_coap.c ****     }
 136:C:/Users/stapi/OneDrive/Desktop/GD32VW553/V1_MQTT_OK/GD32VW55X_Wifi_BLE_SDK/GD32VW55x_RELEASE_V1.0.2/MSDK/cloud/alicloud/src/services/dev_bind\awss_cmp_coap.c ****     if (topic == NULL) {
 421              		.loc 2 136 5 is_stmt 1
 137:C:/Users/stapi/OneDrive/Desktop/GD32VW553/V1_MQTT_OK/GD32VW55X_Wifi_BLE_SDK/GD32VW55x_RELEASE_V1.0.2/MSDK/cloud/alicloud/src/services/dev_bind\awss_cmp_coap.c ****         return STATE_USER_INPUT_NULL_POINTER;
 422              		.loc 2 137 16 is_stmt 0
 423 002e 1305F0EF 		li	a0,-257
 136:C:/Users/stapi/OneDrive/Desktop/GD32VW553/V1_MQTT_OK/GD32VW55X_Wifi_BLE_SDK/GD32VW55x_RELEASE_V1.0.2/MSDK/cloud/alicloud/src/services/dev_bind\awss_cmp_coap.c ****         return STATE_USER_INPUT_NULL_POINTER;
 424              		.loc 2 136 8
 425 0032 91C8     		beq	s1,zero,.L60
 138:C:/Users/stapi/OneDrive/Desktop/GD32VW553/V1_MQTT_OK/GD32VW55X_Wifi_BLE_SDK/GD32VW55x_RELEASE_V1.0.2/MSDK/cloud/alicloud/src/services/dev_bind\awss_cmp_coap.c ****     }
 139:C:/Users/stapi/OneDrive/Desktop/GD32VW553/V1_MQTT_OK/GD32VW55X_Wifi_BLE_SDK/GD32VW55x_RELEASE_V1.0.2/MSDK/cloud/alicloud/src/services/dev_bind\awss_cmp_coap.c **** 
 140:C:/Users/stapi/OneDrive/Desktop/GD32VW553/V1_MQTT_OK/GD32VW55X_Wifi_BLE_SDK/GD32VW55x_RELEASE_V1.0.2/MSDK/cloud/alicloud/src/services/dev_bind\awss_cmp_coap.c ****     if (COAP_SUCCESS != CoAPServer_register(g_coap_ctx, (const char *)topic, (CoAPRecvMsgHandler)cb
 426              		.loc 2 140 5 is_stmt 1
 427              		.loc 2 140 25 is_stmt 0
 428 0034 A685     		mv	a1,s1
 429 0036 3E85     		mv	a0,a5
 430 0038 97000000 		call	CoAPServer_register
 430      E7800000 
 431              	.LVL45:
 432              		.loc 2 140 8
 433 0040 19C1     		beq	a0,zero,.L60
 434              	.L62:
 141:C:/Users/stapi/OneDrive/Desktop/GD32VW553/V1_MQTT_OK/GD32VW55X_Wifi_BLE_SDK/GD32VW55x_RELEASE_V1.0.2/MSDK/cloud/alicloud/src/services/dev_bind\awss_cmp_coap.c ****         ret = STATE_WIFI_COAP_INIT_FAILED;
 435              		.loc 2 141 9 is_stmt 1
 436              	.LVL46:
 437              		.loc 2 141 13 is_stmt 0
 438 0042 130570BE 		li	a0,-1049
 439              	.LVL47:
 440              	.L60:
 142:C:/Users/stapi/OneDrive/Desktop/GD32VW553/V1_MQTT_OK/GD32VW55X_Wifi_BLE_SDK/GD32VW55x_RELEASE_V1.0.2/MSDK/cloud/alicloud/src/services/dev_bind\awss_cmp_coap.c ****     }
 143:C:/Users/stapi/OneDrive/Desktop/GD32VW553/V1_MQTT_OK/GD32VW55X_Wifi_BLE_SDK/GD32VW55x_RELEASE_V1.0.2/MSDK/cloud/alicloud/src/services/dev_bind\awss_cmp_coap.c ****     return ret;
 144:C:/Users/stapi/OneDrive/Desktop/GD32VW553/V1_MQTT_OK/GD32VW55X_Wifi_BLE_SDK/GD32VW55x_RELEASE_V1.0.2/MSDK/cloud/alicloud/src/services/dev_bind\awss_cmp_coap.c **** }
 441              		.loc 2 144 1
 442 0046 4101     		addi	sp,sp,16
 443              		.cfi_def_cfa_offset 0
 444 0048 17030000 		tail	__riscv_restore_2
 444      67000300 
 445              		.cfi_restore 9
 446              		.cfi_restore 8
 447              		.cfi_restore 1
 448              		.cfi_def_cfa_offset -16
 449              		.cfi_endproc
 450              	.LFE52:
 452              		.section	.text.awss_cmp_coap_cancel_packet,"ax",@progbits
 453              		.align	1
 454              		.globl	awss_cmp_coap_cancel_packet
 456              	awss_cmp_coap_cancel_packet:
 457              	.LFB53:
 145:C:/Users/stapi/OneDrive/Desktop/GD32VW553/V1_MQTT_OK/GD32VW55X_Wifi_BLE_SDK/GD32VW55x_RELEASE_V1.0.2/MSDK/cloud/alicloud/src/services/dev_bind\awss_cmp_coap.c **** 
 146:C:/Users/stapi/OneDrive/Desktop/GD32VW553/V1_MQTT_OK/GD32VW55X_Wifi_BLE_SDK/GD32VW55x_RELEASE_V1.0.2/MSDK/cloud/alicloud/src/services/dev_bind\awss_cmp_coap.c **** int awss_cmp_coap_cancel_packet(uint16_t msgid)
 147:C:/Users/stapi/OneDrive/Desktop/GD32VW553/V1_MQTT_OK/GD32VW55X_Wifi_BLE_SDK/GD32VW55x_RELEASE_V1.0.2/MSDK/cloud/alicloud/src/services/dev_bind\awss_cmp_coap.c **** {
 458              		.loc 2 147 1 is_stmt 1
 459              		.cfi_startproc
 460              	.LVL48:
 148:C:/Users/stapi/OneDrive/Desktop/GD32VW553/V1_MQTT_OK/GD32VW55X_Wifi_BLE_SDK/GD32VW55x_RELEASE_V1.0.2/MSDK/cloud/alicloud/src/services/dev_bind\awss_cmp_coap.c ****     if (g_coap_ctx == NULL) {
 461              		.loc 2 148 5
 462              		.loc 2 148 20 is_stmt 0
 463 0000 B7070000 		lui	a5,%hi(.LANCHOR0)
 147:C:/Users/stapi/OneDrive/Desktop/GD32VW553/V1_MQTT_OK/GD32VW55X_Wifi_BLE_SDK/GD32VW55x_RELEASE_V1.0.2/MSDK/cloud/alicloud/src/services/dev_bind\awss_cmp_coap.c ****     if (g_coap_ctx == NULL) {
 464              		.loc 2 147 1
 465 0004 AA85     		mv	a1,a0
 466              		.loc 2 148 20
 467 0006 03A50700 		lw	a0,%lo(.LANCHOR0)(a5)
 468              	.LVL49:
 469              		.loc 2 148 8
 470 000a 09C5     		beq	a0,zero,.L74
 149:C:/Users/stapi/OneDrive/Desktop/GD32VW553/V1_MQTT_OK/GD32VW55X_Wifi_BLE_SDK/GD32VW55x_RELEASE_V1.0.2/MSDK/cloud/alicloud/src/services/dev_bind\awss_cmp_coap.c ****         return STATE_USER_INPUT_NULL_POINTER;
 150:C:/Users/stapi/OneDrive/Desktop/GD32VW553/V1_MQTT_OK/GD32VW55X_Wifi_BLE_SDK/GD32VW55x_RELEASE_V1.0.2/MSDK/cloud/alicloud/src/services/dev_bind\awss_cmp_coap.c ****     }
 151:C:/Users/stapi/OneDrive/Desktop/GD32VW553/V1_MQTT_OK/GD32VW55X_Wifi_BLE_SDK/GD32VW55x_RELEASE_V1.0.2/MSDK/cloud/alicloud/src/services/dev_bind\awss_cmp_coap.c ****     return CoAPMessageId_cancel(g_coap_ctx, msgid);
 471              		.loc 2 151 5 is_stmt 1
 472              		.loc 2 151 12 is_stmt 0
 473 000c 17030000 		tail	CoAPMessageId_cancel
 473      67000300 
 474              	.LVL50:
 475              	.L74:
 149:C:/Users/stapi/OneDrive/Desktop/GD32VW553/V1_MQTT_OK/GD32VW55X_Wifi_BLE_SDK/GD32VW55x_RELEASE_V1.0.2/MSDK/cloud/alicloud/src/services/dev_bind\awss_cmp_coap.c ****         return STATE_USER_INPUT_NULL_POINTER;
 476              		.loc 2 149 16
 477 0014 1305F0EF 		li	a0,-257
 152:C:/Users/stapi/OneDrive/Desktop/GD32VW553/V1_MQTT_OK/GD32VW55X_Wifi_BLE_SDK/GD32VW55x_RELEASE_V1.0.2/MSDK/cloud/alicloud/src/services/dev_bind\awss_cmp_coap.c **** }
 478              		.loc 2 152 1
 479 0018 8280     		ret
 480              		.cfi_endproc
 481              	.LFE53:
 483              		.section	.text.awss_cmp_coap_send,"ax",@progbits
 484              		.align	1
 485              		.globl	awss_cmp_coap_send
 487              	awss_cmp_coap_send:
 488              	.LFB54:
 153:C:/Users/stapi/OneDrive/Desktop/GD32VW553/V1_MQTT_OK/GD32VW55X_Wifi_BLE_SDK/GD32VW55x_RELEASE_V1.0.2/MSDK/cloud/alicloud/src/services/dev_bind\awss_cmp_coap.c **** 
 154:C:/Users/stapi/OneDrive/Desktop/GD32VW553/V1_MQTT_OK/GD32VW55X_Wifi_BLE_SDK/GD32VW55x_RELEASE_V1.0.2/MSDK/cloud/alicloud/src/services/dev_bind\awss_cmp_coap.c **** int awss_cmp_coap_send(void *buf, uint32_t len, void *sa, const char *uri, void *cb, uint16_t *msgi
 155:C:/Users/stapi/OneDrive/Desktop/GD32VW553/V1_MQTT_OK/GD32VW55X_Wifi_BLE_SDK/GD32VW55x_RELEASE_V1.0.2/MSDK/cloud/alicloud/src/services/dev_bind\awss_cmp_coap.c **** {
 489              		.loc 2 155 1 is_stmt 1
 490              		.cfi_startproc
 491              	.LVL51:
 492 0000 17030000 		call	t0,__riscv_save_7
 492      E7020300 
 493              		.cfi_offset 22, -32
 494              		.cfi_offset 21, -28
 495              		.cfi_offset 20, -24
 496              		.cfi_offset 19, -20
 497              		.cfi_offset 18, -16
 498              		.cfi_offset 9, -12
 499              		.cfi_offset 8, -8
 500              		.cfi_offset 1, -4
 501              		.cfi_def_cfa_offset 32
 156:C:/Users/stapi/OneDrive/Desktop/GD32VW553/V1_MQTT_OK/GD32VW55X_Wifi_BLE_SDK/GD32VW55x_RELEASE_V1.0.2/MSDK/cloud/alicloud/src/services/dev_bind\awss_cmp_coap.c ****     if (g_coap_ctx == NULL) {
 502              		.loc 2 156 5
 503              		.loc 2 156 20 is_stmt 0
 504 0008 37040000 		lui	s0,%hi(.LANCHOR0)
 155:C:/Users/stapi/OneDrive/Desktop/GD32VW553/V1_MQTT_OK/GD32VW55X_Wifi_BLE_SDK/GD32VW55x_RELEASE_V1.0.2/MSDK/cloud/alicloud/src/services/dev_bind\awss_cmp_coap.c ****     if (g_coap_ctx == NULL) {
 505              		.loc 2 155 1
 506 000c 2A8A     		mv	s4,a0
 507              		.loc 2 156 20
 508 000e 03250400 		lw	a0,%lo(.LANCHOR0)(s0)
 509              	.LVL52:
 155:C:/Users/stapi/OneDrive/Desktop/GD32VW553/V1_MQTT_OK/GD32VW55X_Wifi_BLE_SDK/GD32VW55x_RELEASE_V1.0.2/MSDK/cloud/alicloud/src/services/dev_bind\awss_cmp_coap.c ****     if (g_coap_ctx == NULL) {
 510              		.loc 2 155 1
 511 0012 AE8A     		mv	s5,a1
 512 0014 3289     		mv	s2,a2
 513 0016 B689     		mv	s3,a3
 514 0018 3A8B     		mv	s6,a4
 515 001a BE84     		mv	s1,a5
 516 001c 13040400 		addi	s0,s0,%lo(.LANCHOR0)
 517              		.loc 2 156 8
 518 0020 15E5     		bne	a0,zero,.L80
 157:C:/Users/stapi/OneDrive/Desktop/GD32VW553/V1_MQTT_OK/GD32VW55X_Wifi_BLE_SDK/GD32VW55x_RELEASE_V1.0.2/MSDK/cloud/alicloud/src/services/dev_bind\awss_cmp_coap.c ****         g_coap_ctx = (void *)CoAPServer_init();
 519              		.loc 2 157 9 is_stmt 1
 520              		.loc 2 157 30 is_stmt 0
 521 0022 97000000 		call	CoAPServer_init
 521      E7800000 
 522              	.LVL53:
 523              		.loc 2 157 20
 524 002a 08C0     		sw	a0,0(s0)
 525              	.L81:
 158:C:/Users/stapi/OneDrive/Desktop/GD32VW553/V1_MQTT_OK/GD32VW55X_Wifi_BLE_SDK/GD32VW55x_RELEASE_V1.0.2/MSDK/cloud/alicloud/src/services/dev_bind\awss_cmp_coap.c ****     } else {
 159:C:/Users/stapi/OneDrive/Desktop/GD32VW553/V1_MQTT_OK/GD32VW55X_Wifi_BLE_SDK/GD32VW55x_RELEASE_V1.0.2/MSDK/cloud/alicloud/src/services/dev_bind\awss_cmp_coap.c ****         CoAPMessageId_cancel(g_coap_ctx, *msgid);
 160:C:/Users/stapi/OneDrive/Desktop/GD32VW553/V1_MQTT_OK/GD32VW55X_Wifi_BLE_SDK/GD32VW55x_RELEASE_V1.0.2/MSDK/cloud/alicloud/src/services/dev_bind\awss_cmp_coap.c ****     }
 161:C:/Users/stapi/OneDrive/Desktop/GD32VW553/V1_MQTT_OK/GD32VW55X_Wifi_BLE_SDK/GD32VW55x_RELEASE_V1.0.2/MSDK/cloud/alicloud/src/services/dev_bind\awss_cmp_coap.c ****     return CoAPServerMultiCast_send(g_coap_ctx, (NetworkAddr *)sa, uri, (uint8_t *)buf,
 526              		.loc 2 161 5 is_stmt 1
 527              		.loc 2 161 12 is_stmt 0
 528 002c 0840     		lw	a0,0(s0)
 529 002e 2688     		mv	a6,s1
 530 0030 DA87     		mv	a5,s6
 531 0032 D286     		mv	a3,s4
 532 0034 4E86     		mv	a2,s3
 533 0036 CA85     		mv	a1,s2
 534 0038 33C70A08 		zext.h	a4,s5
 535 003c 97000000 		call	CoAPServerMultiCast_send
 535      E7800000 
 536              	.LVL54:
 162:C:/Users/stapi/OneDrive/Desktop/GD32VW553/V1_MQTT_OK/GD32VW55X_Wifi_BLE_SDK/GD32VW55x_RELEASE_V1.0.2/MSDK/cloud/alicloud/src/services/dev_bind\awss_cmp_coap.c ****                                     (uint16_t)len, (CoAPSendMsgHandler)cb, msgid);
 163:C:/Users/stapi/OneDrive/Desktop/GD32VW553/V1_MQTT_OK/GD32VW55X_Wifi_BLE_SDK/GD32VW55x_RELEASE_V1.0.2/MSDK/cloud/alicloud/src/services/dev_bind\awss_cmp_coap.c **** }
 537              		.loc 2 163 1
 538 0044 17030000 		tail	__riscv_restore_7
 538      67000300 
 539              		.cfi_remember_state
 540              		.cfi_restore 22
 541              		.cfi_restore 21
 542              		.cfi_restore 20
 543              		.cfi_restore 19
 544              		.cfi_restore 18
 545              		.cfi_restore 9
 546              		.cfi_restore 8
 547              		.cfi_restore 1
 548              		.cfi_def_cfa_offset 0
 549              	.LVL55:
 550              	.L80:
 551              		.cfi_restore_state
 159:C:/Users/stapi/OneDrive/Desktop/GD32VW553/V1_MQTT_OK/GD32VW55X_Wifi_BLE_SDK/GD32VW55x_RELEASE_V1.0.2/MSDK/cloud/alicloud/src/services/dev_bind\awss_cmp_coap.c ****     }
 552              		.loc 2 159 9 is_stmt 1
 553 004c 83D50700 		lhu	a1,0(a5)
 554              	.LVL56:
 555 0050 97000000 		call	CoAPMessageId_cancel
 555      E7800000 
 556              	.LVL57:
 557 0058 D1BF     		j	.L81
 558              		.cfi_endproc
 559              	.LFE54:
 561              		.section	.text.awss_cmp_coap_send_resp,"ax",@progbits
 562              		.align	1
 563              		.globl	awss_cmp_coap_send_resp
 565              	awss_cmp_coap_send_resp:
 566              	.LFB55:
 164:C:/Users/stapi/OneDrive/Desktop/GD32VW553/V1_MQTT_OK/GD32VW55X_Wifi_BLE_SDK/GD32VW55x_RELEASE_V1.0.2/MSDK/cloud/alicloud/src/services/dev_bind\awss_cmp_coap.c **** 
 165:C:/Users/stapi/OneDrive/Desktop/GD32VW553/V1_MQTT_OK/GD32VW55X_Wifi_BLE_SDK/GD32VW55x_RELEASE_V1.0.2/MSDK/cloud/alicloud/src/services/dev_bind\awss_cmp_coap.c **** int awss_cmp_coap_send_resp(void *buf, uint32_t len, void *sa, const char *uri, void *req, void *cb
 166:C:/Users/stapi/OneDrive/Desktop/GD32VW553/V1_MQTT_OK/GD32VW55X_Wifi_BLE_SDK/GD32VW55x_RELEASE_V1.0.2/MSDK/cloud/alicloud/src/services/dev_bind\awss_cmp_coap.c **** {
 567              		.loc 2 166 1
 568              		.cfi_startproc
 569              	.LVL58:
 570 0000 17030000 		call	t0,__riscv_save_8
 570      E7020300 
 571              		.cfi_offset 23, -36
 572              		.cfi_offset 22, -32
 573              		.cfi_offset 21, -28
 574              		.cfi_offset 20, -24
 575              		.cfi_offset 19, -20
 576              		.cfi_offset 18, -16
 577              		.cfi_offset 9, -12
 578              		.cfi_offset 8, -8
 579              		.cfi_offset 1, -4
 580              		.cfi_def_cfa_offset 48
 167:C:/Users/stapi/OneDrive/Desktop/GD32VW553/V1_MQTT_OK/GD32VW55X_Wifi_BLE_SDK/GD32VW55x_RELEASE_V1.0.2/MSDK/cloud/alicloud/src/services/dev_bind\awss_cmp_coap.c ****     if (g_coap_ctx == NULL) {
 581              		.loc 2 167 5
 582              		.loc 2 167 20 is_stmt 0
 583 0008 37040000 		lui	s0,%hi(.LANCHOR0)
 166:C:/Users/stapi/OneDrive/Desktop/GD32VW553/V1_MQTT_OK/GD32VW55X_Wifi_BLE_SDK/GD32VW55x_RELEASE_V1.0.2/MSDK/cloud/alicloud/src/services/dev_bind\awss_cmp_coap.c ****     if (g_coap_ctx == NULL) {
 584              		.loc 2 166 1
 585 000c BE8A     		mv	s5,a5
 586              		.loc 2 167 8
 587 000e 83270400 		lw	a5,%lo(.LANCHOR0)(s0)
 588              	.LVL59:
 166:C:/Users/stapi/OneDrive/Desktop/GD32VW553/V1_MQTT_OK/GD32VW55X_Wifi_BLE_SDK/GD32VW55x_RELEASE_V1.0.2/MSDK/cloud/alicloud/src/services/dev_bind\awss_cmp_coap.c ****     if (g_coap_ctx == NULL) {
 589              		.loc 2 166 1
 590 0012 0111     		addi	sp,sp,-32
 591              		.cfi_def_cfa_offset 80
 166:C:/Users/stapi/OneDrive/Desktop/GD32VW553/V1_MQTT_OK/GD32VW55X_Wifi_BLE_SDK/GD32VW55x_RELEASE_V1.0.2/MSDK/cloud/alicloud/src/services/dev_bind\awss_cmp_coap.c ****     if (g_coap_ctx == NULL) {
 592              		.loc 2 166 1
 593 0014 2A89     		mv	s2,a0
 594 0016 AE89     		mv	s3,a1
 595 0018 B284     		mv	s1,a2
 596 001a 368A     		mv	s4,a3
 597 001c 428B     		mv	s6,a6
 598 001e C68B     		mv	s7,a7
 599 0020 13040400 		addi	s0,s0,%lo(.LANCHOR0)
 600              		.loc 2 167 8
 601 0024 81EB     		bne	a5,zero,.L84
 602 0026 3ACE     		sw	a4,28(sp)
 168:C:/Users/stapi/OneDrive/Desktop/GD32VW553/V1_MQTT_OK/GD32VW55X_Wifi_BLE_SDK/GD32VW55x_RELEASE_V1.0.2/MSDK/cloud/alicloud/src/services/dev_bind\awss_cmp_coap.c ****         g_coap_ctx = (void *)CoAPServer_init();
 603              		.loc 2 168 9 is_stmt 1
 604              		.loc 2 168 30 is_stmt 0
 605 0028 97000000 		call	CoAPServer_init
 605      E7800000 
 606              	.LVL60:
 607              		.loc 2 168 20
 608 0030 7247     		lw	a4,28(sp)
 609 0032 08C0     		sw	a0,0(s0)
 610              	.LVL61:
 611              	.L84:
 169:C:/Users/stapi/OneDrive/Desktop/GD32VW553/V1_MQTT_OK/GD32VW55X_Wifi_BLE_SDK/GD32VW55x_RELEASE_V1.0.2/MSDK/cloud/alicloud/src/services/dev_bind\awss_cmp_coap.c ****     }
 170:C:/Users/stapi/OneDrive/Desktop/GD32VW553/V1_MQTT_OK/GD32VW55X_Wifi_BLE_SDK/GD32VW55x_RELEASE_V1.0.2/MSDK/cloud/alicloud/src/services/dev_bind\awss_cmp_coap.c **** 
 171:C:/Users/stapi/OneDrive/Desktop/GD32VW553/V1_MQTT_OK/GD32VW55X_Wifi_BLE_SDK/GD32VW55x_RELEASE_V1.0.2/MSDK/cloud/alicloud/src/services/dev_bind\awss_cmp_coap.c ****     return CoAPServerResp_send(g_coap_ctx, (NetworkAddr *)sa, (uint8_t *)buf, (uint16_t)len, req, u
 612              		.loc 2 171 5 is_stmt 1
 613              		.loc 2 171 12 is_stmt 0
 614 0034 0840     		lw	a0,0(s0)
 615 0036 5EC0     		sw	s7,0(sp)
 616 0038 DA88     		mv	a7,s6
 617 003a 5688     		mv	a6,s5
 618 003c D287     		mv	a5,s4
 619 003e 4A86     		mv	a2,s2
 620 0040 A685     		mv	a1,s1
 621 0042 B3C60908 		zext.h	a3,s3
 622 0046 97000000 		call	CoAPServerResp_send
 622      E7800000 
 623              	.LVL62:
 172:C:/Users/stapi/OneDrive/Desktop/GD32VW553/V1_MQTT_OK/GD32VW55X_Wifi_BLE_SDK/GD32VW55x_RELEASE_V1.0.2/MSDK/cloud/alicloud/src/services/dev_bind\awss_cmp_coap.c **** }
 624              		.loc 2 172 1
 625 004e 0561     		addi	sp,sp,32
 626              		.cfi_def_cfa_offset 0
 627 0050 17030000 		tail	__riscv_restore_8
 627      67000300 
 628              		.cfi_restore 23
 629              		.cfi_restore 22
 630              		.cfi_restore 21
 631              		.cfi_restore 20
 632              		.cfi_restore 19
 633              		.cfi_restore 18
 634              		.cfi_restore 9
 635              		.cfi_restore 8
 636              		.cfi_restore 1
 637              		.cfi_def_cfa_offset -48
 638              		.cfi_endproc
 639              	.LFE55:
 641              		.section	.text.awss_cmp_coap_ob_send,"ax",@progbits
 642              		.align	1
 643              		.globl	awss_cmp_coap_ob_send
 645              	awss_cmp_coap_ob_send:
 646              	.LFB56:
 173:C:/Users/stapi/OneDrive/Desktop/GD32VW553/V1_MQTT_OK/GD32VW55X_Wifi_BLE_SDK/GD32VW55x_RELEASE_V1.0.2/MSDK/cloud/alicloud/src/services/dev_bind\awss_cmp_coap.c **** 
 174:C:/Users/stapi/OneDrive/Desktop/GD32VW553/V1_MQTT_OK/GD32VW55X_Wifi_BLE_SDK/GD32VW55x_RELEASE_V1.0.2/MSDK/cloud/alicloud/src/services/dev_bind\awss_cmp_coap.c **** int awss_cmp_coap_ob_send(void *buf, uint32_t len, void *sa, const char *uri, void *cb)
 175:C:/Users/stapi/OneDrive/Desktop/GD32VW553/V1_MQTT_OK/GD32VW55X_Wifi_BLE_SDK/GD32VW55x_RELEASE_V1.0.2/MSDK/cloud/alicloud/src/services/dev_bind\awss_cmp_coap.c **** {
 647              		.loc 2 175 1 is_stmt 1
 648              		.cfi_startproc
 649              	.LVL63:
 650 0000 17030000 		call	t0,__riscv_save_3
 650      E7020300 
 651              		.cfi_offset 18, -16
 652              		.cfi_offset 9, -12
 653              		.cfi_offset 8, -8
 654              		.cfi_offset 1, -4
 655              		.cfi_def_cfa_offset 16
 176:C:/Users/stapi/OneDrive/Desktop/GD32VW553/V1_MQTT_OK/GD32VW55X_Wifi_BLE_SDK/GD32VW55x_RELEASE_V1.0.2/MSDK/cloud/alicloud/src/services/dev_bind\awss_cmp_coap.c ****     if (g_coap_ctx == NULL) {
 656              		.loc 2 176 5
 657              		.loc 2 176 20 is_stmt 0
 658 0008 37040000 		lui	s0,%hi(.LANCHOR0)
 659              		.loc 2 176 8
 660 000c 83270400 		lw	a5,%lo(.LANCHOR0)(s0)
 175:C:/Users/stapi/OneDrive/Desktop/GD32VW553/V1_MQTT_OK/GD32VW55X_Wifi_BLE_SDK/GD32VW55x_RELEASE_V1.0.2/MSDK/cloud/alicloud/src/services/dev_bind\awss_cmp_coap.c ****     if (g_coap_ctx == NULL) {
 661              		.loc 2 175 1
 662 0010 4111     		addi	sp,sp,-16
 663              		.cfi_def_cfa_offset 32
 175:C:/Users/stapi/OneDrive/Desktop/GD32VW553/V1_MQTT_OK/GD32VW55X_Wifi_BLE_SDK/GD32VW55x_RELEASE_V1.0.2/MSDK/cloud/alicloud/src/services/dev_bind\awss_cmp_coap.c ****     if (g_coap_ctx == NULL) {
 664              		.loc 2 175 1
 665 0012 2A86     		mv	a2,a0
 666              	.LVL64:
 667 0014 2E89     		mv	s2,a1
 668 0016 B684     		mv	s1,a3
 669 0018 13040400 		addi	s0,s0,%lo(.LANCHOR0)
 670              		.loc 2 176 8
 671 001c 91EB     		bne	a5,zero,.L87
 672 001e 3AC6     		sw	a4,12(sp)
 673 0020 2AC4     		sw	a0,8(sp)
 177:C:/Users/stapi/OneDrive/Desktop/GD32VW553/V1_MQTT_OK/GD32VW55X_Wifi_BLE_SDK/GD32VW55x_RELEASE_V1.0.2/MSDK/cloud/alicloud/src/services/dev_bind\awss_cmp_coap.c ****         g_coap_ctx = (void *)CoAPServer_init();
 674              		.loc 2 177 9 is_stmt 1
 675              		.loc 2 177 30 is_stmt 0
 676 0022 97000000 		call	CoAPServer_init
 676      E7800000 
 677              	.LVL65:
 678              		.loc 2 177 20
 679 002a 3247     		lw	a4,12(sp)
 680 002c 2246     		lw	a2,8(sp)
 681 002e 08C0     		sw	a0,0(s0)
 682              	.LVL66:
 683              	.L87:
 178:C:/Users/stapi/OneDrive/Desktop/GD32VW553/V1_MQTT_OK/GD32VW55X_Wifi_BLE_SDK/GD32VW55x_RELEASE_V1.0.2/MSDK/cloud/alicloud/src/services/dev_bind\awss_cmp_coap.c ****     }
 179:C:/Users/stapi/OneDrive/Desktop/GD32VW553/V1_MQTT_OK/GD32VW55X_Wifi_BLE_SDK/GD32VW55x_RELEASE_V1.0.2/MSDK/cloud/alicloud/src/services/dev_bind\awss_cmp_coap.c **** 
 180:C:/Users/stapi/OneDrive/Desktop/GD32VW553/V1_MQTT_OK/GD32VW55X_Wifi_BLE_SDK/GD32VW55x_RELEASE_V1.0.2/MSDK/cloud/alicloud/src/services/dev_bind\awss_cmp_coap.c ****     return CoAPObsServer_notify(g_coap_ctx, uri, (uint8_t *)buf, (uint16_t)len, cb);
 684              		.loc 2 180 5 is_stmt 1
 685              		.loc 2 180 12 is_stmt 0
 686 0030 0840     		lw	a0,0(s0)
 687 0032 A685     		mv	a1,s1
 688 0034 B3460908 		zext.h	a3,s2
 689 0038 97000000 		call	CoAPObsServer_notify
 689      E7800000 
 690              	.LVL67:
 181:C:/Users/stapi/OneDrive/Desktop/GD32VW553/V1_MQTT_OK/GD32VW55X_Wifi_BLE_SDK/GD32VW55x_RELEASE_V1.0.2/MSDK/cloud/alicloud/src/services/dev_bind\awss_cmp_coap.c **** }
 691              		.loc 2 181 1
 692 0040 4101     		addi	sp,sp,16
 693              		.cfi_def_cfa_offset 0
 694 0042 17030000 		tail	__riscv_restore_3
 694      67000300 
 695              		.cfi_restore 18
 696              		.cfi_restore 9
 697              		.cfi_restore 8
 698              		.cfi_restore 1
 699              		.cfi_def_cfa_offset -16
 700              		.cfi_endproc
 701              	.LFE56:
 703              		.section	.text.awss_cmp_coap_deinit,"ax",@progbits
 704              		.align	1
 705              		.globl	awss_cmp_coap_deinit
 707              	awss_cmp_coap_deinit:
 708              	.LFB57:
 182:C:/Users/stapi/OneDrive/Desktop/GD32VW553/V1_MQTT_OK/GD32VW55X_Wifi_BLE_SDK/GD32VW55x_RELEASE_V1.0.2/MSDK/cloud/alicloud/src/services/dev_bind\awss_cmp_coap.c **** 
 183:C:/Users/stapi/OneDrive/Desktop/GD32VW553/V1_MQTT_OK/GD32VW55X_Wifi_BLE_SDK/GD32VW55x_RELEASE_V1.0.2/MSDK/cloud/alicloud/src/services/dev_bind\awss_cmp_coap.c **** int awss_cmp_coap_deinit()
 184:C:/Users/stapi/OneDrive/Desktop/GD32VW553/V1_MQTT_OK/GD32VW55X_Wifi_BLE_SDK/GD32VW55x_RELEASE_V1.0.2/MSDK/cloud/alicloud/src/services/dev_bind\awss_cmp_coap.c **** {
 709              		.loc 2 184 1 is_stmt 1
 710              		.cfi_startproc
 711 0000 17030000 		call	t0,__riscv_save_1
 711      E7020300 
 712              		.cfi_offset 8, -8
 713              		.cfi_offset 1, -4
 714              		.cfi_def_cfa_offset 16
 185:C:/Users/stapi/OneDrive/Desktop/GD32VW553/V1_MQTT_OK/GD32VW55X_Wifi_BLE_SDK/GD32VW55x_RELEASE_V1.0.2/MSDK/cloud/alicloud/src/services/dev_bind\awss_cmp_coap.c ****     if (g_coap_ctx) {
 715              		.loc 2 185 5
 716              		.loc 2 185 9 is_stmt 0
 717 0008 B7070000 		lui	a5,%hi(.LANCHOR0)
 718 000c 03A50700 		lw	a0,%lo(.LANCHOR0)(a5)
 719 0010 13840700 		addi	s0,a5,%lo(.LANCHOR0)
 720              		.loc 2 185 8
 721 0014 09C5     		beq	a0,zero,.L90
 186:C:/Users/stapi/OneDrive/Desktop/GD32VW553/V1_MQTT_OK/GD32VW55X_Wifi_BLE_SDK/GD32VW55x_RELEASE_V1.0.2/MSDK/cloud/alicloud/src/services/dev_bind\awss_cmp_coap.c ****         CoAPServer_deinit(g_coap_ctx);
 722              		.loc 2 186 9 is_stmt 1
 723 0016 97000000 		call	CoAPServer_deinit
 723      E7800000 
 724              	.LVL68:
 725              	.L90:
 187:C:/Users/stapi/OneDrive/Desktop/GD32VW553/V1_MQTT_OK/GD32VW55X_Wifi_BLE_SDK/GD32VW55x_RELEASE_V1.0.2/MSDK/cloud/alicloud/src/services/dev_bind\awss_cmp_coap.c ****     }
 188:C:/Users/stapi/OneDrive/Desktop/GD32VW553/V1_MQTT_OK/GD32VW55X_Wifi_BLE_SDK/GD32VW55x_RELEASE_V1.0.2/MSDK/cloud/alicloud/src/services/dev_bind\awss_cmp_coap.c ****     g_coap_ctx = NULL;
 726              		.loc 2 188 5
 727              		.loc 2 188 16 is_stmt 0
 728 001e 23200400 		sw	zero,0(s0)
 189:C:/Users/stapi/OneDrive/Desktop/GD32VW553/V1_MQTT_OK/GD32VW55X_Wifi_BLE_SDK/GD32VW55x_RELEASE_V1.0.2/MSDK/cloud/alicloud/src/services/dev_bind\awss_cmp_coap.c ****     return 0;
 729              		.loc 2 189 5 is_stmt 1
 190:C:/Users/stapi/OneDrive/Desktop/GD32VW553/V1_MQTT_OK/GD32VW55X_Wifi_BLE_SDK/GD32VW55x_RELEASE_V1.0.2/MSDK/cloud/alicloud/src/services/dev_bind\awss_cmp_coap.c **** }
 730              		.loc 2 190 1 is_stmt 0
 731 0022 0145     		li	a0,0
 732 0024 17030000 		tail	__riscv_restore_1
 732      67000300 
 733              		.cfi_restore 8
 734              		.cfi_restore 1
 735              		.cfi_def_cfa_offset 0
 736              		.cfi_endproc
 737              	.LFE57:
 739              		.section	.rodata.awss_cmp_local_init.str1.4,"aMS",@progbits,1
 740              		.align	2
 741              	.LC0:
 742 0000 61777373 		.string	"awss cmp coap register fail"
 742      20636D70 
 742      20636F61 
 742      70207265 
 742      67697374 
 743              		.section	.text.awss_cmp_local_init,"ax",@progbits
 744              		.align	1
 745              		.globl	awss_cmp_local_init
 747              	awss_cmp_local_init:
 748              	.LFB58:
 191:C:/Users/stapi/OneDrive/Desktop/GD32VW553/V1_MQTT_OK/GD32VW55X_Wifi_BLE_SDK/GD32VW55x_RELEASE_V1.0.2/MSDK/cloud/alicloud/src/services/dev_bind\awss_cmp_coap.c **** 
 192:C:/Users/stapi/OneDrive/Desktop/GD32VW553/V1_MQTT_OK/GD32VW55X_Wifi_BLE_SDK/GD32VW55x_RELEASE_V1.0.2/MSDK/cloud/alicloud/src/services/dev_bind\awss_cmp_coap.c **** const struct awss_cmp_couple awss_local_couple[] = {
 193:C:/Users/stapi/OneDrive/Desktop/GD32VW553/V1_MQTT_OK/GD32VW55X_Wifi_BLE_SDK/GD32VW55x_RELEASE_V1.0.2/MSDK/cloud/alicloud/src/services/dev_bind\awss_cmp_coap.c **** #ifdef WIFI_PROVISION_ENABLED
 194:C:/Users/stapi/OneDrive/Desktop/GD32VW553/V1_MQTT_OK/GD32VW55X_Wifi_BLE_SDK/GD32VW55x_RELEASE_V1.0.2/MSDK/cloud/alicloud/src/services/dev_bind\awss_cmp_coap.c **** #if defined(AWSS_SUPPORT_ADHA) || defined(AWSS_SUPPORT_AHA)
 195:C:/Users/stapi/OneDrive/Desktop/GD32VW553/V1_MQTT_OK/GD32VW55X_Wifi_BLE_SDK/GD32VW55x_RELEASE_V1.0.2/MSDK/cloud/alicloud/src/services/dev_bind\awss_cmp_coap.c ****     {AWSS_LC_INIT_PAP,                       TOPIC_AWSS_SWITCHAP,                 wifimgr_process_s
 196:C:/Users/stapi/OneDrive/Desktop/GD32VW553/V1_MQTT_OK/GD32VW55X_Wifi_BLE_SDK/GD32VW55x_RELEASE_V1.0.2/MSDK/cloud/alicloud/src/services/dev_bind\awss_cmp_coap.c ****     {AWSS_LC_INIT_PAP,                       TOPIC_AWSS_WIFILIST,                 wifimgr_process_g
 197:C:/Users/stapi/OneDrive/Desktop/GD32VW553/V1_MQTT_OK/GD32VW55X_Wifi_BLE_SDK/GD32VW55x_RELEASE_V1.0.2/MSDK/cloud/alicloud/src/services/dev_bind\awss_cmp_coap.c ****     {AWSS_LC_INIT_ROUTER | AWSS_LC_INIT_PAP, TOPIC_AWSS_GETDEVICEINFO_MCAST,      wifimgr_process_m
 198:C:/Users/stapi/OneDrive/Desktop/GD32VW553/V1_MQTT_OK/GD32VW55X_Wifi_BLE_SDK/GD32VW55x_RELEASE_V1.0.2/MSDK/cloud/alicloud/src/services/dev_bind\awss_cmp_coap.c ****     {AWSS_LC_INIT_ROUTER | AWSS_LC_INIT_PAP, TOPIC_AWSS_GETDEVICEINFO_UCAST,      wifimgr_process_u
 199:C:/Users/stapi/OneDrive/Desktop/GD32VW553/V1_MQTT_OK/GD32VW55X_Wifi_BLE_SDK/GD32VW55x_RELEASE_V1.0.2/MSDK/cloud/alicloud/src/services/dev_bind\awss_cmp_coap.c **** #endif
 200:C:/Users/stapi/OneDrive/Desktop/GD32VW553/V1_MQTT_OK/GD32VW55X_Wifi_BLE_SDK/GD32VW55x_RELEASE_V1.0.2/MSDK/cloud/alicloud/src/services/dev_bind\awss_cmp_coap.c **** #ifdef AWSS_SUPPORT_DEV_AP
 201:C:/Users/stapi/OneDrive/Desktop/GD32VW553/V1_MQTT_OK/GD32VW55X_Wifi_BLE_SDK/GD32VW55x_RELEASE_V1.0.2/MSDK/cloud/alicloud/src/services/dev_bind\awss_cmp_coap.c ****     {AWSS_LC_INIT_DEV_AP,                    TOPIC_AWSS_DEV_AP_SWITCHAP,          wifimgr_process_d
 202:C:/Users/stapi/OneDrive/Desktop/GD32VW553/V1_MQTT_OK/GD32VW55X_Wifi_BLE_SDK/GD32VW55x_RELEASE_V1.0.2/MSDK/cloud/alicloud/src/services/dev_bind\awss_cmp_coap.c **** #ifdef DEV_ERRCODE_ENABLE
 203:C:/Users/stapi/OneDrive/Desktop/GD32VW553/V1_MQTT_OK/GD32VW55X_Wifi_BLE_SDK/GD32VW55x_RELEASE_V1.0.2/MSDK/cloud/alicloud/src/services/dev_bind\awss_cmp_coap.c ****     {AWSS_LC_INIT_DEV_AP,                    TOPIC_AWSS_DEV_ERRCODE_GET,          wifimgr_process_d
 204:C:/Users/stapi/OneDrive/Desktop/GD32VW553/V1_MQTT_OK/GD32VW55X_Wifi_BLE_SDK/GD32VW55x_RELEASE_V1.0.2/MSDK/cloud/alicloud/src/services/dev_bind\awss_cmp_coap.c ****     {AWSS_LC_INIT_DEV_AP,                    TOPIC_AWSS_GETDEVICEINFO_MCAST,      wifimgr_process_d
 205:C:/Users/stapi/OneDrive/Desktop/GD32VW553/V1_MQTT_OK/GD32VW55X_Wifi_BLE_SDK/GD32VW55x_RELEASE_V1.0.2/MSDK/cloud/alicloud/src/services/dev_bind\awss_cmp_coap.c **** #ifdef DEV_OFFLINE_OTA_ENABLE
 206:C:/Users/stapi/OneDrive/Desktop/GD32VW553/V1_MQTT_OK/GD32VW55X_Wifi_BLE_SDK/GD32VW55x_RELEASE_V1.0.2/MSDK/cloud/alicloud/src/services/dev_bind\awss_cmp_coap.c ****     {AWSS_LC_INIT_DEV_AP,                    TOPIC_DEV_OFFLINE_OTA,               wifimgr_process_d
 207:C:/Users/stapi/OneDrive/Desktop/GD32VW553/V1_MQTT_OK/GD32VW55X_Wifi_BLE_SDK/GD32VW55x_RELEASE_V1.0.2/MSDK/cloud/alicloud/src/services/dev_bind\awss_cmp_coap.c **** #endif
 208:C:/Users/stapi/OneDrive/Desktop/GD32VW553/V1_MQTT_OK/GD32VW55X_Wifi_BLE_SDK/GD32VW55x_RELEASE_V1.0.2/MSDK/cloud/alicloud/src/services/dev_bind\awss_cmp_coap.c **** #ifdef DEV_OFFLINE_LOG_ENABLE
 209:C:/Users/stapi/OneDrive/Desktop/GD32VW553/V1_MQTT_OK/GD32VW55X_Wifi_BLE_SDK/GD32VW55x_RELEASE_V1.0.2/MSDK/cloud/alicloud/src/services/dev_bind\awss_cmp_coap.c ****     {AWSS_LC_INIT_BIND | AWSS_LC_INIT_DEV_AP,                    TOPIC_DEV_OFFLINE_LOG_GET,        
 210:C:/Users/stapi/OneDrive/Desktop/GD32VW553/V1_MQTT_OK/GD32VW55X_Wifi_BLE_SDK/GD32VW55x_RELEASE_V1.0.2/MSDK/cloud/alicloud/src/services/dev_bind\awss_cmp_coap.c ****     {AWSS_LC_INIT_BIND | AWSS_LC_INIT_DEV_AP,                    TOPIC_DEV_OFFLINE_LOG_GET_FINISH, 
 211:C:/Users/stapi/OneDrive/Desktop/GD32VW553/V1_MQTT_OK/GD32VW55X_Wifi_BLE_SDK/GD32VW55x_RELEASE_V1.0.2/MSDK/cloud/alicloud/src/services/dev_bind\awss_cmp_coap.c **** #endif
 212:C:/Users/stapi/OneDrive/Desktop/GD32VW553/V1_MQTT_OK/GD32VW55X_Wifi_BLE_SDK/GD32VW55x_RELEASE_V1.0.2/MSDK/cloud/alicloud/src/services/dev_bind\awss_cmp_coap.c ****     {AWSS_LC_INIT_BIND | AWSS_LC_INIT_DEV_AP,                    TOPIC_DEV_DIAGNOSIS_FINISH,       
 213:C:/Users/stapi/OneDrive/Desktop/GD32VW553/V1_MQTT_OK/GD32VW55X_Wifi_BLE_SDK/GD32VW55x_RELEASE_V1.0.2/MSDK/cloud/alicloud/src/services/dev_bind\awss_cmp_coap.c **** #endif //DEV_ERRCODE_ENABLE
 214:C:/Users/stapi/OneDrive/Desktop/GD32VW553/V1_MQTT_OK/GD32VW55X_Wifi_BLE_SDK/GD32VW55x_RELEASE_V1.0.2/MSDK/cloud/alicloud/src/services/dev_bind\awss_cmp_coap.c **** #endif //AWSS_SUPPORT_DEV_AP
 215:C:/Users/stapi/OneDrive/Desktop/GD32VW553/V1_MQTT_OK/GD32VW55X_Wifi_BLE_SDK/GD32VW55x_RELEASE_V1.0.2/MSDK/cloud/alicloud/src/services/dev_bind\awss_cmp_coap.c ****     {AWSS_LC_INIT_SUC,                       TOPIC_AWSS_GET_CONNECTAP_INFO_MCAST, awss_process_mcas
 216:C:/Users/stapi/OneDrive/Desktop/GD32VW553/V1_MQTT_OK/GD32VW55X_Wifi_BLE_SDK/GD32VW55x_RELEASE_V1.0.2/MSDK/cloud/alicloud/src/services/dev_bind\awss_cmp_coap.c ****     {AWSS_LC_INIT_SUC,                       TOPIC_AWSS_GET_CONNECTAP_INFO_UCAST, awss_process_ucas
 217:C:/Users/stapi/OneDrive/Desktop/GD32VW553/V1_MQTT_OK/GD32VW55X_Wifi_BLE_SDK/GD32VW55x_RELEASE_V1.0.2/MSDK/cloud/alicloud/src/services/dev_bind\awss_cmp_coap.c **** #ifndef AWSS_DISABLE_REGISTRAR
 218:C:/Users/stapi/OneDrive/Desktop/GD32VW553/V1_MQTT_OK/GD32VW55X_Wifi_BLE_SDK/GD32VW55x_RELEASE_V1.0.2/MSDK/cloud/alicloud/src/services/dev_bind\awss_cmp_coap.c ****     {AWSS_LC_INIT_BIND,                      TOPIC_NOTIFY,                        awss_registrar_en
 219:C:/Users/stapi/OneDrive/Desktop/GD32VW553/V1_MQTT_OK/GD32VW55X_Wifi_BLE_SDK/GD32VW55x_RELEASE_V1.0.2/MSDK/cloud/alicloud/src/services/dev_bind\awss_cmp_coap.c ****     {AWSS_LC_INIT_BIND,                      TOPIC_AWSS_CONNECTAP_NOTIFY,         awss_registrar_en
 220:C:/Users/stapi/OneDrive/Desktop/GD32VW553/V1_MQTT_OK/GD32VW55X_Wifi_BLE_SDK/GD32VW55x_RELEASE_V1.0.2/MSDK/cloud/alicloud/src/services/dev_bind\awss_cmp_coap.c **** #endif
 221:C:/Users/stapi/OneDrive/Desktop/GD32VW553/V1_MQTT_OK/GD32VW55X_Wifi_BLE_SDK/GD32VW55x_RELEASE_V1.0.2/MSDK/cloud/alicloud/src/services/dev_bind\awss_cmp_coap.c **** #endif
 222:C:/Users/stapi/OneDrive/Desktop/GD32VW553/V1_MQTT_OK/GD32VW55X_Wifi_BLE_SDK/GD32VW55x_RELEASE_V1.0.2/MSDK/cloud/alicloud/src/services/dev_bind\awss_cmp_coap.c ****     {AWSS_LC_INIT_BIND,                      TOPIC_GETDEVICEINFO_MCAST,           online_mcast_get_
 223:C:/Users/stapi/OneDrive/Desktop/GD32VW553/V1_MQTT_OK/GD32VW55X_Wifi_BLE_SDK/GD32VW55x_RELEASE_V1.0.2/MSDK/cloud/alicloud/src/services/dev_bind\awss_cmp_coap.c ****     {AWSS_LC_INIT_BIND,                      TOPIC_GETDEVICEINFO_UCAST,           online_ucast_get_
 224:C:/Users/stapi/OneDrive/Desktop/GD32VW553/V1_MQTT_OK/GD32VW55X_Wifi_BLE_SDK/GD32VW55x_RELEASE_V1.0.2/MSDK/cloud/alicloud/src/services/dev_bind\awss_cmp_coap.c **** };
 225:C:/Users/stapi/OneDrive/Desktop/GD32VW553/V1_MQTT_OK/GD32VW55X_Wifi_BLE_SDK/GD32VW55x_RELEASE_V1.0.2/MSDK/cloud/alicloud/src/services/dev_bind\awss_cmp_coap.c **** 
 226:C:/Users/stapi/OneDrive/Desktop/GD32VW553/V1_MQTT_OK/GD32VW55X_Wifi_BLE_SDK/GD32VW55x_RELEASE_V1.0.2/MSDK/cloud/alicloud/src/services/dev_bind\awss_cmp_coap.c **** int awss_cmp_local_init(int init_stage)
 227:C:/Users/stapi/OneDrive/Desktop/GD32VW553/V1_MQTT_OK/GD32VW55X_Wifi_BLE_SDK/GD32VW55x_RELEASE_V1.0.2/MSDK/cloud/alicloud/src/services/dev_bind\awss_cmp_coap.c **** {
 749              		.loc 2 227 1 is_stmt 1
 750              		.cfi_startproc
 751              	.LVL69:
 752 0000 17030000 		call	t0,__riscv_save_5
 752      E7020300 
 753              		.cfi_offset 20, -24
 754              		.cfi_offset 19, -20
 755              		.cfi_offset 18, -16
 756              		.cfi_offset 9, -12
 757              		.cfi_offset 8, -8
 758              		.cfi_offset 1, -4
 759              		.cfi_def_cfa_offset 32
 228:C:/Users/stapi/OneDrive/Desktop/GD32VW553/V1_MQTT_OK/GD32VW55X_Wifi_BLE_SDK/GD32VW55x_RELEASE_V1.0.2/MSDK/cloud/alicloud/src/services/dev_bind\awss_cmp_coap.c ****     int ret = STATE_SUCCESS;
 760              		.loc 2 228 5
 761              	.LVL70:
 229:C:/Users/stapi/OneDrive/Desktop/GD32VW553/V1_MQTT_OK/GD32VW55X_Wifi_BLE_SDK/GD32VW55x_RELEASE_V1.0.2/MSDK/cloud/alicloud/src/services/dev_bind\awss_cmp_coap.c ****     int ret_coap_reg = STATE_SUCCESS;
 762              		.loc 2 229 5
 230:C:/Users/stapi/OneDrive/Desktop/GD32VW553/V1_MQTT_OK/GD32VW55X_Wifi_BLE_SDK/GD32VW55x_RELEASE_V1.0.2/MSDK/cloud/alicloud/src/services/dev_bind\awss_cmp_coap.c ****     char topic[TOPIC_LEN_MAX] = {0};
 763              		.loc 2 230 5
 231:C:/Users/stapi/OneDrive/Desktop/GD32VW553/V1_MQTT_OK/GD32VW55X_Wifi_BLE_SDK/GD32VW55x_RELEASE_V1.0.2/MSDK/cloud/alicloud/src/services/dev_bind\awss_cmp_coap.c ****     int i;
 764              		.loc 2 231 5
 232:C:/Users/stapi/OneDrive/Desktop/GD32VW553/V1_MQTT_OK/GD32VW55X_Wifi_BLE_SDK/GD32VW55x_RELEASE_V1.0.2/MSDK/cloud/alicloud/src/services/dev_bind\awss_cmp_coap.c **** 
 233:C:/Users/stapi/OneDrive/Desktop/GD32VW553/V1_MQTT_OK/GD32VW55X_Wifi_BLE_SDK/GD32VW55x_RELEASE_V1.0.2/MSDK/cloud/alicloud/src/services/dev_bind\awss_cmp_coap.c ****     for (i = 0; i < sizeof(awss_local_couple) / sizeof(awss_local_couple[0]); i ++) {
 765              		.loc 2 233 5
 766              		.loc 2 233 17
 767 0008 37040000 		lui	s0,%hi(.LANCHOR1)
 768 000c 13040400 		addi	s0,s0,%lo(.LANCHOR1)
 227:C:/Users/stapi/OneDrive/Desktop/GD32VW553/V1_MQTT_OK/GD32VW55X_Wifi_BLE_SDK/GD32VW55x_RELEASE_V1.0.2/MSDK/cloud/alicloud/src/services/dev_bind\awss_cmp_coap.c ****     int ret = STATE_SUCCESS;
 769              		.loc 2 227 1 is_stmt 0
 770 0010 1971     		addi	sp,sp,-128
 771              		.cfi_def_cfa_offset 160
 227:C:/Users/stapi/OneDrive/Desktop/GD32VW553/V1_MQTT_OK/GD32VW55X_Wifi_BLE_SDK/GD32VW55x_RELEASE_V1.0.2/MSDK/cloud/alicloud/src/services/dev_bind\awss_cmp_coap.c ****     int ret = STATE_SUCCESS;
 772              		.loc 2 227 1
 773 0012 AA84     		mv	s1,a0
 774 0014 93094405 		addi	s3,s0,84
 228:C:/Users/stapi/OneDrive/Desktop/GD32VW553/V1_MQTT_OK/GD32VW55X_Wifi_BLE_SDK/GD32VW55x_RELEASE_V1.0.2/MSDK/cloud/alicloud/src/services/dev_bind\awss_cmp_coap.c ****     int ret_coap_reg = STATE_SUCCESS;
 775              		.loc 2 228 9
 776 0018 0149     		li	s2,0
 234:C:/Users/stapi/OneDrive/Desktop/GD32VW553/V1_MQTT_OK/GD32VW55X_Wifi_BLE_SDK/GD32VW55x_RELEASE_V1.0.2/MSDK/cloud/alicloud/src/services/dev_bind\awss_cmp_coap.c ****         if ((awss_local_couple[i].init_stage & init_stage) == 0)
 235:C:/Users/stapi/OneDrive/Desktop/GD32VW553/V1_MQTT_OK/GD32VW55X_Wifi_BLE_SDK/GD32VW55x_RELEASE_V1.0.2/MSDK/cloud/alicloud/src/services/dev_bind\awss_cmp_coap.c ****             continue;
 236:C:/Users/stapi/OneDrive/Desktop/GD32VW553/V1_MQTT_OK/GD32VW55X_Wifi_BLE_SDK/GD32VW55x_RELEASE_V1.0.2/MSDK/cloud/alicloud/src/services/dev_bind\awss_cmp_coap.c ****         memset(topic, 0, sizeof(topic));
 237:C:/Users/stapi/OneDrive/Desktop/GD32VW553/V1_MQTT_OK/GD32VW55X_Wifi_BLE_SDK/GD32VW55x_RELEASE_V1.0.2/MSDK/cloud/alicloud/src/services/dev_bind\awss_cmp_coap.c ****         awss_build_topic(awss_local_couple[i].topic, topic, TOPIC_LEN_MAX);
 238:C:/Users/stapi/OneDrive/Desktop/GD32VW553/V1_MQTT_OK/GD32VW55X_Wifi_BLE_SDK/GD32VW55x_RELEASE_V1.0.2/MSDK/cloud/alicloud/src/services/dev_bind\awss_cmp_coap.c ****         ret_coap_reg = awss_cmp_coap_register_cb(topic, awss_local_couple[i].cb);
 239:C:/Users/stapi/OneDrive/Desktop/GD32VW553/V1_MQTT_OK/GD32VW55X_Wifi_BLE_SDK/GD32VW55x_RELEASE_V1.0.2/MSDK/cloud/alicloud/src/services/dev_bind\awss_cmp_coap.c ****         if (STATE_SUCCESS != ret_coap_reg) {
 240:C:/Users/stapi/OneDrive/Desktop/GD32VW553/V1_MQTT_OK/GD32VW55X_Wifi_BLE_SDK/GD32VW55x_RELEASE_V1.0.2/MSDK/cloud/alicloud/src/services/dev_bind\awss_cmp_coap.c ****             dump_awss_status(ret_coap_reg, "awss cmp coap register fail");
 777              		.loc 2 240 13
 778 001a 370A0000 		lui	s4,%hi(.LC0)
 779              	.LVL71:
 780              	.L97:
 234:C:/Users/stapi/OneDrive/Desktop/GD32VW553/V1_MQTT_OK/GD32VW55X_Wifi_BLE_SDK/GD32VW55x_RELEASE_V1.0.2/MSDK/cloud/alicloud/src/services/dev_bind\awss_cmp_coap.c ****         if ((awss_local_couple[i].init_stage & init_stage) == 0)
 781              		.loc 2 234 9 is_stmt 1
 234:C:/Users/stapi/OneDrive/Desktop/GD32VW553/V1_MQTT_OK/GD32VW55X_Wifi_BLE_SDK/GD32VW55x_RELEASE_V1.0.2/MSDK/cloud/alicloud/src/services/dev_bind\awss_cmp_coap.c ****         if ((awss_local_couple[i].init_stage & init_stage) == 0)
 782              		.loc 2 234 46 is_stmt 0
 783 001e 1C40     		lw	a5,0(s0)
 784 0020 E58F     		and	a5,s1,a5
 234:C:/Users/stapi/OneDrive/Desktop/GD32VW553/V1_MQTT_OK/GD32VW55X_Wifi_BLE_SDK/GD32VW55x_RELEASE_V1.0.2/MSDK/cloud/alicloud/src/services/dev_bind\awss_cmp_coap.c ****         if ((awss_local_couple[i].init_stage & init_stage) == 0)
 785              		.loc 2 234 12
 786 0022 B1C3     		beq	a5,zero,.L96
 236:C:/Users/stapi/OneDrive/Desktop/GD32VW553/V1_MQTT_OK/GD32VW55X_Wifi_BLE_SDK/GD32VW55x_RELEASE_V1.0.2/MSDK/cloud/alicloud/src/services/dev_bind\awss_cmp_coap.c ****         awss_build_topic(awss_local_couple[i].topic, topic, TOPIC_LEN_MAX);
 787              		.loc 2 236 9 is_stmt 1
 788 0024 13060008 		li	a2,128
 789 0028 8145     		li	a1,0
 790 002a 0A85     		mv	a0,sp
 791 002c 97000000 		call	memset
 791      E7800000 
 792              	.LVL72:
 237:C:/Users/stapi/OneDrive/Desktop/GD32VW553/V1_MQTT_OK/GD32VW55X_Wifi_BLE_SDK/GD32VW55x_RELEASE_V1.0.2/MSDK/cloud/alicloud/src/services/dev_bind\awss_cmp_coap.c ****         ret_coap_reg = awss_cmp_coap_register_cb(topic, awss_local_couple[i].cb);
 793              		.loc 2 237 9
 794 0034 4840     		lw	a0,4(s0)
 795 0036 13060008 		li	a2,128
 796 003a 8A85     		mv	a1,sp
 797 003c 97000000 		call	awss_build_topic
 797      E7800000 
 798              	.LVL73:
 238:C:/Users/stapi/OneDrive/Desktop/GD32VW553/V1_MQTT_OK/GD32VW55X_Wifi_BLE_SDK/GD32VW55x_RELEASE_V1.0.2/MSDK/cloud/alicloud/src/services/dev_bind\awss_cmp_coap.c ****         if (STATE_SUCCESS != ret_coap_reg) {
 799              		.loc 2 238 9
 238:C:/Users/stapi/OneDrive/Desktop/GD32VW553/V1_MQTT_OK/GD32VW55X_Wifi_BLE_SDK/GD32VW55x_RELEASE_V1.0.2/MSDK/cloud/alicloud/src/services/dev_bind\awss_cmp_coap.c ****         if (STATE_SUCCESS != ret_coap_reg) {
 800              		.loc 2 238 24 is_stmt 0
 801 0044 0C44     		lw	a1,8(s0)
 802 0046 0A85     		mv	a0,sp
 803 0048 97000000 		call	awss_cmp_coap_register_cb
 803      E7800000 
 804              	.LVL74:
 805 0050 AA85     		mv	a1,a0
 806              	.LVL75:
 239:C:/Users/stapi/OneDrive/Desktop/GD32VW553/V1_MQTT_OK/GD32VW55X_Wifi_BLE_SDK/GD32VW55x_RELEASE_V1.0.2/MSDK/cloud/alicloud/src/services/dev_bind\awss_cmp_coap.c ****             dump_awss_status(ret_coap_reg, "awss cmp coap register fail");
 807              		.loc 2 239 9 is_stmt 1
 239:C:/Users/stapi/OneDrive/Desktop/GD32VW553/V1_MQTT_OK/GD32VW55X_Wifi_BLE_SDK/GD32VW55x_RELEASE_V1.0.2/MSDK/cloud/alicloud/src/services/dev_bind\awss_cmp_coap.c ****             dump_awss_status(ret_coap_reg, "awss cmp coap register fail");
 808              		.loc 2 239 12 is_stmt 0
 809 0052 11C9     		beq	a0,zero,.L96
 810              		.loc 2 240 13 is_stmt 1
 811 0054 13060A00 		addi	a2,s4,%lo(.LC0)
 812 0058 6D45     		li	a0,27
 813              	.LVL76:
 814 005a 97000000 		call	iotx_state_event
 814      E7800000 
 815              	.LVL77:
 241:C:/Users/stapi/OneDrive/Desktop/GD32VW553/V1_MQTT_OK/GD32VW55X_Wifi_BLE_SDK/GD32VW55x_RELEASE_V1.0.2/MSDK/cloud/alicloud/src/services/dev_bind\awss_cmp_coap.c ****             ret = STATE_WIFI_COAP_INIT_FAILED;
 816              		.loc 2 241 13
 817              		.loc 2 241 17 is_stmt 0
 818 0062 130970BE 		li	s2,-1049
 819              	.LVL78:
 820              	.L96:
 233:C:/Users/stapi/OneDrive/Desktop/GD32VW553/V1_MQTT_OK/GD32VW55X_Wifi_BLE_SDK/GD32VW55x_RELEASE_V1.0.2/MSDK/cloud/alicloud/src/services/dev_bind\awss_cmp_coap.c ****         if ((awss_local_couple[i].init_stage & init_stage) == 0)
 821              		.loc 2 233 79 is_stmt 1 discriminator 2
 233:C:/Users/stapi/OneDrive/Desktop/GD32VW553/V1_MQTT_OK/GD32VW55X_Wifi_BLE_SDK/GD32VW55x_RELEASE_V1.0.2/MSDK/cloud/alicloud/src/services/dev_bind\awss_cmp_coap.c ****         if ((awss_local_couple[i].init_stage & init_stage) == 0)
 822              		.loc 2 233 17 discriminator 2
 233:C:/Users/stapi/OneDrive/Desktop/GD32VW553/V1_MQTT_OK/GD32VW55X_Wifi_BLE_SDK/GD32VW55x_RELEASE_V1.0.2/MSDK/cloud/alicloud/src/services/dev_bind\awss_cmp_coap.c ****         if ((awss_local_couple[i].init_stage & init_stage) == 0)
 823              		.loc 2 233 5 is_stmt 0 discriminator 2
 824 0066 3104     		addi	s0,s0,12
 825 0068 E31B34FB 		bne	s0,s3,.L97
 242:C:/Users/stapi/OneDrive/Desktop/GD32VW553/V1_MQTT_OK/GD32VW55X_Wifi_BLE_SDK/GD32VW55x_RELEASE_V1.0.2/MSDK/cloud/alicloud/src/services/dev_bind\awss_cmp_coap.c ****         }
 243:C:/Users/stapi/OneDrive/Desktop/GD32VW553/V1_MQTT_OK/GD32VW55X_Wifi_BLE_SDK/GD32VW55x_RELEASE_V1.0.2/MSDK/cloud/alicloud/src/services/dev_bind\awss_cmp_coap.c ****     }
 244:C:/Users/stapi/OneDrive/Desktop/GD32VW553/V1_MQTT_OK/GD32VW55X_Wifi_BLE_SDK/GD32VW55x_RELEASE_V1.0.2/MSDK/cloud/alicloud/src/services/dev_bind\awss_cmp_coap.c **** 
 245:C:/Users/stapi/OneDrive/Desktop/GD32VW553/V1_MQTT_OK/GD32VW55X_Wifi_BLE_SDK/GD32VW55x_RELEASE_V1.0.2/MSDK/cloud/alicloud/src/services/dev_bind\awss_cmp_coap.c ****     return ret;
 826              		.loc 2 245 5 is_stmt 1
 246:C:/Users/stapi/OneDrive/Desktop/GD32VW553/V1_MQTT_OK/GD32VW55X_Wifi_BLE_SDK/GD32VW55x_RELEASE_V1.0.2/MSDK/cloud/alicloud/src/services/dev_bind\awss_cmp_coap.c **** }
 827              		.loc 2 246 1 is_stmt 0
 828 006c 4A85     		mv	a0,s2
 829 006e 0961     		addi	sp,sp,128
 830              		.cfi_def_cfa_offset 0
 831 0070 17030000 		tail	__riscv_restore_5
 831      67000300 
 832              		.cfi_restore 20
 833              		.cfi_restore 19
 834              		.cfi_restore 18
 835              		.cfi_restore 9
 836              		.cfi_restore 8
 837              		.cfi_restore 1
 838              		.cfi_def_cfa_offset -32
 839              		.cfi_endproc
 840              	.LFE58:
 842              		.section	.text.awss_cmp_local_deinit,"ax",@progbits
 843              		.align	1
 844              		.globl	awss_cmp_local_deinit
 846              	awss_cmp_local_deinit:
 847              	.LFB59:
 247:C:/Users/stapi/OneDrive/Desktop/GD32VW553/V1_MQTT_OK/GD32VW55X_Wifi_BLE_SDK/GD32VW55x_RELEASE_V1.0.2/MSDK/cloud/alicloud/src/services/dev_bind\awss_cmp_coap.c **** 
 248:C:/Users/stapi/OneDrive/Desktop/GD32VW553/V1_MQTT_OK/GD32VW55X_Wifi_BLE_SDK/GD32VW55x_RELEASE_V1.0.2/MSDK/cloud/alicloud/src/services/dev_bind\awss_cmp_coap.c **** int awss_cmp_local_deinit(int force)
 249:C:/Users/stapi/OneDrive/Desktop/GD32VW553/V1_MQTT_OK/GD32VW55X_Wifi_BLE_SDK/GD32VW55x_RELEASE_V1.0.2/MSDK/cloud/alicloud/src/services/dev_bind\awss_cmp_coap.c **** {
 848              		.loc 2 249 1 is_stmt 1
 849              		.cfi_startproc
 850              	.LVL79:
 250:C:/Users/stapi/OneDrive/Desktop/GD32VW553/V1_MQTT_OK/GD32VW55X_Wifi_BLE_SDK/GD32VW55x_RELEASE_V1.0.2/MSDK/cloud/alicloud/src/services/dev_bind\awss_cmp_coap.c ****     if (g_coap_ctx == NULL) {
 851              		.loc 2 250 5
 852              		.loc 2 250 8 is_stmt 0
 853 0000 B7070000 		lui	a5,%hi(.LANCHOR0)
 854 0004 83A70700 		lw	a5,%lo(.LANCHOR0)(a5)
 855 0008 85C7     		beq	a5,zero,.L114
 249:C:/Users/stapi/OneDrive/Desktop/GD32VW553/V1_MQTT_OK/GD32VW55X_Wifi_BLE_SDK/GD32VW55x_RELEASE_V1.0.2/MSDK/cloud/alicloud/src/services/dev_bind\awss_cmp_coap.c ****     if (g_coap_ctx == NULL) {
 856              		.loc 2 249 1
 857 000a 17030000 		call	t0,__riscv_save_1
 857      E7020300 
 858              		.cfi_offset 8, -8
 859              		.cfi_offset 1, -4
 860              		.cfi_def_cfa_offset 16
 861 0012 2A84     		mv	s0,a0
 251:C:/Users/stapi/OneDrive/Desktop/GD32VW553/V1_MQTT_OK/GD32VW55X_Wifi_BLE_SDK/GD32VW55x_RELEASE_V1.0.2/MSDK/cloud/alicloud/src/services/dev_bind\awss_cmp_coap.c ****         return 0;
 252:C:/Users/stapi/OneDrive/Desktop/GD32VW553/V1_MQTT_OK/GD32VW55X_Wifi_BLE_SDK/GD32VW55x_RELEASE_V1.0.2/MSDK/cloud/alicloud/src/services/dev_bind\awss_cmp_coap.c ****     }
 253:C:/Users/stapi/OneDrive/Desktop/GD32VW553/V1_MQTT_OK/GD32VW55X_Wifi_BLE_SDK/GD32VW55x_RELEASE_V1.0.2/MSDK/cloud/alicloud/src/services/dev_bind\awss_cmp_coap.c **** #ifdef WIFI_PROVISION_ENABLED
 254:C:/Users/stapi/OneDrive/Desktop/GD32VW553/V1_MQTT_OK/GD32VW55X_Wifi_BLE_SDK/GD32VW55x_RELEASE_V1.0.2/MSDK/cloud/alicloud/src/services/dev_bind\awss_cmp_coap.c **** #if defined(AWSS_SUPPORT_ADHA) || defined(AWSS_SUPPORT_AHA)
 255:C:/Users/stapi/OneDrive/Desktop/GD32VW553/V1_MQTT_OK/GD32VW55X_Wifi_BLE_SDK/GD32VW55x_RELEASE_V1.0.2/MSDK/cloud/alicloud/src/services/dev_bind\awss_cmp_coap.c ****     awss_devinfo_notify_stop();
 256:C:/Users/stapi/OneDrive/Desktop/GD32VW553/V1_MQTT_OK/GD32VW55X_Wifi_BLE_SDK/GD32VW55x_RELEASE_V1.0.2/MSDK/cloud/alicloud/src/services/dev_bind\awss_cmp_coap.c **** #endif
 257:C:/Users/stapi/OneDrive/Desktop/GD32VW553/V1_MQTT_OK/GD32VW55X_Wifi_BLE_SDK/GD32VW55x_RELEASE_V1.0.2/MSDK/cloud/alicloud/src/services/dev_bind\awss_cmp_coap.c ****     awss_suc_notify_stop();
 862              		.loc 2 257 5 is_stmt 1
 863 0014 97000000 		call	awss_suc_notify_stop
 863      E7800000 
 864              	.LVL80:
 258:C:/Users/stapi/OneDrive/Desktop/GD32VW553/V1_MQTT_OK/GD32VW55X_Wifi_BLE_SDK/GD32VW55x_RELEASE_V1.0.2/MSDK/cloud/alicloud/src/services/dev_bind\awss_cmp_coap.c **** #endif
 259:C:/Users/stapi/OneDrive/Desktop/GD32VW553/V1_MQTT_OK/GD32VW55X_Wifi_BLE_SDK/GD32VW55x_RELEASE_V1.0.2/MSDK/cloud/alicloud/src/services/dev_bind\awss_cmp_coap.c ****     if (force)
 865              		.loc 2 259 5
 866              		.loc 2 259 8 is_stmt 0
 867 001c 09C4     		beq	s0,zero,.L108
 260:C:/Users/stapi/OneDrive/Desktop/GD32VW553/V1_MQTT_OK/GD32VW55X_Wifi_BLE_SDK/GD32VW55x_RELEASE_V1.0.2/MSDK/cloud/alicloud/src/services/dev_bind\awss_cmp_coap.c ****         awss_cmp_coap_deinit();
 868              		.loc 2 260 9 is_stmt 1
 869 001e 97000000 		call	awss_cmp_coap_deinit
 869      E7800000 
 870              	.LVL81:
 871              	.L108:
 261:C:/Users/stapi/OneDrive/Desktop/GD32VW553/V1_MQTT_OK/GD32VW55X_Wifi_BLE_SDK/GD32VW55x_RELEASE_V1.0.2/MSDK/cloud/alicloud/src/services/dev_bind\awss_cmp_coap.c **** 
 262:C:/Users/stapi/OneDrive/Desktop/GD32VW553/V1_MQTT_OK/GD32VW55X_Wifi_BLE_SDK/GD32VW55x_RELEASE_V1.0.2/MSDK/cloud/alicloud/src/services/dev_bind\awss_cmp_coap.c ****     return 0;
 263:C:/Users/stapi/OneDrive/Desktop/GD32VW553/V1_MQTT_OK/GD32VW55X_Wifi_BLE_SDK/GD32VW55x_RELEASE_V1.0.2/MSDK/cloud/alicloud/src/services/dev_bind\awss_cmp_coap.c **** }
 872              		.loc 2 263 1 is_stmt 0
 873 0026 0145     		li	a0,0
 874 0028 17030000 		tail	__riscv_restore_1
 874      67000300 
 875              		.cfi_restore 8
 876              		.cfi_restore 1
 877              		.cfi_def_cfa_offset 0
 878              	.LVL82:
 879              	.L114:
 880 0030 0145     		li	a0,0
 881              	.LVL83:
 882 0032 8280     		ret
 883              		.cfi_endproc
 884              	.LFE59:
 886              		.globl	awss_local_couple
 887              		.section	.rodata.str1.4,"aMS",@progbits,1
 888              		.align	2
 889              	.LC1:
 890 0000 2F737973 		.string	"/sys/awss/device/softap/switchap"
 890      2F617773 
 890      732F6465 
 890      76696365 
 890      2F736F66 
 891 0021 000000   		.align	2
 892              	.LC2:
 893 0024 2F737973 		.string	"/sys/awss/device/connectap/info/get"
 893      2F617773 
 893      732F6465 
 893      76696365 
 893      2F636F6E 
 894              		.align	2
 895              	.LC3:
 896 0048 2F737973 		.string	"/sys/%s/%s/awss/device/connectap/info/get"
 896      2F25732F 
 896      25732F61 
 896      7773732F 
 896      64657669 
 897 0072 0000     		.align	2
 898              	.LC4:
 899 0074 2F737973 		.string	"/sys/device/info/notify"
 899      2F646576 
 899      6963652F 
 899      696E666F 
 899      2F6E6F74 
 900              		.align	2
 901              	.LC5:
 902 008c 2F737973 		.string	"/sys/awss/event/connectap/notify"
 902      2F617773 
 902      732F6576 
 902      656E742F 
 902      636F6E6E 
 903 00ad 000000   		.align	2
 904              	.LC6:
 905 00b0 2F737973 		.string	"/sys/device/info/get"
 905      2F646576 
 905      6963652F 
 905      696E666F 
 905      2F676574 
 906 00c5 000000   		.align	2
 907              	.LC7:
 908 00c8 2F737973 		.string	"/sys/%s/%s/device/info/get"
 908      2F25732F 
 908      25732F64 
 908      65766963 
 908      652F696E 
 909              		.section	.rodata.awss_local_couple,"a"
 910              		.align	2
 911              		.set	.LANCHOR1,. + 0
 914              	awss_local_couple:
 915 0000 04000000 		.word	4
 916 0004 00000000 		.word	.LC1
 917 0008 00000000 		.word	wifimgr_process_dev_ap_switchap_request
 918 000c 08000000 		.word	8
 919 0010 00000000 		.word	.LC2
 920 0014 00000000 		.word	awss_process_mcast_get_connectap_info
 921 0018 08000000 		.word	8
 922 001c 00000000 		.word	.LC3
 923 0020 00000000 		.word	awss_process_ucast_get_connectap_info
 924 0024 00010000 		.word	256
 925 0028 00000000 		.word	.LC4
 926 002c 00000000 		.word	awss_registrar_enr_bind_monitor
 927 0030 00010000 		.word	256
 928 0034 00000000 		.word	.LC5
 929 0038 00000000 		.word	awss_registrar_enr_bind_monitor
 930 003c 00010000 		.word	256
 931 0040 00000000 		.word	.LC6
 932 0044 00000000 		.word	online_mcast_get_device_info
 933 0048 00010000 		.word	256
 934 004c 00000000 		.word	.LC7
 935 0050 00000000 		.word	online_ucast_get_device_info
 936              		.section	.sbss.g_coap_ctx,"aw",@nobits
 937              		.align	2
 938              		.set	.LANCHOR0,. + 0
 941              	g_coap_ctx:
 942 0000 00000000 		.zero	4
 943              		.text
 944              	.Letext0:
 945              		.file 3 "c:\\users\\stapi\\onedrive\\desktop\\gd32vw553\\embeddedbuilder_v1.4.7.26843\\tools\\nucl
 946              		.file 4 "c:\\users\\stapi\\onedrive\\desktop\\gd32vw553\\embeddedbuilder_v1.4.7.26843\\tools\\nucl
 947              		.file 5 "..\\..\\..\\..\\cloud\\alicloud\\include/iot_import.h"
 948              		.file 6 "..\\..\\..\\..\\cloud\\alicloud\\include/iot_export.h"
 949              		.file 7 "..\\..\\..\\..\\cloud\\alicloud\\src\\protocol\\coap\\local/CoAPExport.h"
 950              		.file 8 "C:/Users/stapi/OneDrive/Desktop/GD32VW553/V1_MQTT_OK/GD32VW55X_Wifi_BLE_SDK/GD32VW55x_REL
 951              		.file 9 "C:/Users/stapi/OneDrive/Desktop/GD32VW553/V1_MQTT_OK/GD32VW55X_Wifi_BLE_SDK/GD32VW55x_REL
 952              		.file 10 "C:/Users/stapi/OneDrive/Desktop/GD32VW553/V1_MQTT_OK/GD32VW55X_Wifi_BLE_SDK/GD32VW55x_RE
 953              		.file 11 "..\\..\\..\\..\\cloud\\alicloud\\src\\protocol\\coap\\local/CoAPServer.h"
 954              		.file 12 "<built-in>"
DEFINED SYMBOLS
                            *ABS*:0000000000000000 awss_cmp_coap.c
C:\Users\stapi\AppData\Local\Temp\ccG4Q18Z.s:12     .text.os_zalloc:0000000000000000 os_zalloc
C:\Users\stapi\AppData\Local\Temp\ccG4Q18Z.s:16     .text.os_zalloc:0000000000000000 .L0 
C:\Users\stapi\AppData\Local\Temp\ccG4Q18Z.s:18     .text.os_zalloc:0000000000000000 .L0 
C:\Users\stapi\AppData\Local\Temp\ccG4Q18Z.s:19     .text.os_zalloc:0000000000000008 .L0 
C:\Users\stapi\AppData\Local\Temp\ccG4Q18Z.s:20     .text.os_zalloc:0000000000000008 .L0 
C:\Users\stapi\AppData\Local\Temp\ccG4Q18Z.s:21     .text.os_zalloc:0000000000000008 .L0 
C:\Users\stapi\AppData\Local\Temp\ccG4Q18Z.s:23     .text.os_zalloc:0000000000000008 .L0 
C:\Users\stapi\AppData\Local\Temp\ccG4Q18Z.s:24     .text.os_zalloc:0000000000000008 .L0 
C:\Users\stapi\AppData\Local\Temp\ccG4Q18Z.s:25     .text.os_zalloc:000000000000000a .L0 
C:\Users\stapi\AppData\Local\Temp\ccG4Q18Z.s:32     .text.os_zalloc:000000000000000a .L0 
C:\Users\stapi\AppData\Local\Temp\ccG4Q18Z.s:33     .text.os_zalloc:000000000000000a .L0 
C:\Users\stapi\AppData\Local\Temp\ccG4Q18Z.s:38     .text.os_zalloc:000000000000000c .L0 
C:\Users\stapi\AppData\Local\Temp\ccG4Q18Z.s:45     .text.os_zalloc:0000000000000016 .L0 
C:\Users\stapi\AppData\Local\Temp\ccG4Q18Z.s:46     .text.os_zalloc:0000000000000016 .L0 
C:\Users\stapi\AppData\Local\Temp\ccG4Q18Z.s:48     .text.os_zalloc:0000000000000018 .L0 
C:\Users\stapi\AppData\Local\Temp\ccG4Q18Z.s:54     .text.os_zalloc:0000000000000024 .L0 
C:\Users\stapi\AppData\Local\Temp\ccG4Q18Z.s:55     .text.os_zalloc:0000000000000024 .L0 
C:\Users\stapi\AppData\Local\Temp\ccG4Q18Z.s:57     .text.os_zalloc:0000000000000028 .L0 
C:\Users\stapi\AppData\Local\Temp\ccG4Q18Z.s:60     .text.os_zalloc:0000000000000030 .L0 
C:\Users\stapi\AppData\Local\Temp\ccG4Q18Z.s:61     .text.os_zalloc:0000000000000030 .L0 
C:\Users\stapi\AppData\Local\Temp\ccG4Q18Z.s:62     .text.os_zalloc:0000000000000030 .L0 
C:\Users\stapi\AppData\Local\Temp\ccG4Q18Z.s:63     .text.os_zalloc:0000000000000030 .L0 
C:\Users\stapi\AppData\Local\Temp\ccG4Q18Z.s:70     .text.awss_release_coap_ctx:0000000000000000 awss_release_coap_ctx
C:\Users\stapi\AppData\Local\Temp\ccG4Q18Z.s:74     .text.awss_release_coap_ctx:0000000000000000 .L0 
C:\Users\stapi\AppData\Local\Temp\ccG4Q18Z.s:76     .text.awss_release_coap_ctx:0000000000000000 .L0 
C:\Users\stapi\AppData\Local\Temp\ccG4Q18Z.s:77     .text.awss_release_coap_ctx:0000000000000000 .L0 
C:\Users\stapi\AppData\Local\Temp\ccG4Q18Z.s:78     .text.awss_release_coap_ctx:0000000000000000 .L0 
C:\Users\stapi\AppData\Local\Temp\ccG4Q18Z.s:79     .text.awss_release_coap_ctx:0000000000000000 .L0 
C:\Users\stapi\AppData\Local\Temp\ccG4Q18Z.s:81     .text.awss_release_coap_ctx:0000000000000002 .L0 
C:\Users\stapi\AppData\Local\Temp\ccG4Q18Z.s:82     .text.awss_release_coap_ctx:000000000000000a .L0 
C:\Users\stapi\AppData\Local\Temp\ccG4Q18Z.s:83     .text.awss_release_coap_ctx:000000000000000a .L0 
C:\Users\stapi\AppData\Local\Temp\ccG4Q18Z.s:84     .text.awss_release_coap_ctx:000000000000000a .L0 
C:\Users\stapi\AppData\Local\Temp\ccG4Q18Z.s:86     .text.awss_release_coap_ctx:000000000000000a .L0 
C:\Users\stapi\AppData\Local\Temp\ccG4Q18Z.s:89     .text.awss_release_coap_ctx:000000000000000e .L0 
C:\Users\stapi\AppData\Local\Temp\ccG4Q18Z.s:90     .text.awss_release_coap_ctx:000000000000000e .L0 
C:\Users\stapi\AppData\Local\Temp\ccG4Q18Z.s:93     .text.awss_release_coap_ctx:0000000000000010 .L0 
C:\Users\stapi\AppData\Local\Temp\ccG4Q18Z.s:94     .text.awss_release_coap_ctx:0000000000000010 .L0 
C:\Users\stapi\AppData\Local\Temp\ccG4Q18Z.s:97     .text.awss_release_coap_ctx:0000000000000012 .L0 
C:\Users\stapi\AppData\Local\Temp\ccG4Q18Z.s:98     .text.awss_release_coap_ctx:0000000000000012 .L0 
C:\Users\stapi\AppData\Local\Temp\ccG4Q18Z.s:103    .text.awss_release_coap_ctx:0000000000000014 .L0 
C:\Users\stapi\AppData\Local\Temp\ccG4Q18Z.s:104    .text.awss_release_coap_ctx:0000000000000014 .L0 
C:\Users\stapi\AppData\Local\Temp\ccG4Q18Z.s:112    .text.awss_release_coap_ctx:000000000000001c .L0 
C:\Users\stapi\AppData\Local\Temp\ccG4Q18Z.s:113    .text.awss_release_coap_ctx:000000000000001c .L0 
C:\Users\stapi\AppData\Local\Temp\ccG4Q18Z.s:121    .text.awss_release_coap_ctx:0000000000000026 .L0 
C:\Users\stapi\AppData\Local\Temp\ccG4Q18Z.s:122    .text.awss_release_coap_ctx:0000000000000026 .L0 
C:\Users\stapi\AppData\Local\Temp\ccG4Q18Z.s:124    .text.awss_release_coap_ctx:0000000000000028 .L0 
C:\Users\stapi\AppData\Local\Temp\ccG4Q18Z.s:129    .text.awss_release_coap_ctx:000000000000002a .L0 
C:\Users\stapi\AppData\Local\Temp\ccG4Q18Z.s:130    .text.awss_release_coap_ctx:000000000000002a .L0 
C:\Users\stapi\AppData\Local\Temp\ccG4Q18Z.s:138    .text.awss_release_coap_ctx:0000000000000032 .L0 
C:\Users\stapi\AppData\Local\Temp\ccG4Q18Z.s:139    .text.awss_release_coap_ctx:0000000000000032 .L0 
C:\Users\stapi\AppData\Local\Temp\ccG4Q18Z.s:145    .text.awss_release_coap_ctx:000000000000003c .L0 
C:\Users\stapi\AppData\Local\Temp\ccG4Q18Z.s:146    .text.awss_release_coap_ctx:000000000000003c .L0 
C:\Users\stapi\AppData\Local\Temp\ccG4Q18Z.s:148    .text.awss_release_coap_ctx:0000000000000046 .L0 
C:\Users\stapi\AppData\Local\Temp\ccG4Q18Z.s:149    .text.awss_release_coap_ctx:0000000000000046 .L0 
C:\Users\stapi\AppData\Local\Temp\ccG4Q18Z.s:150    .text.awss_release_coap_ctx:0000000000000046 .L0 
C:\Users\stapi\AppData\Local\Temp\ccG4Q18Z.s:156    .text.awss_release_coap_ctx:000000000000004a .L0 
C:\Users\stapi\AppData\Local\Temp\ccG4Q18Z.s:163    .text.awss_cpy_coap_ctx:0000000000000000 awss_cpy_coap_ctx
C:\Users\stapi\AppData\Local\Temp\ccG4Q18Z.s:166    .text.awss_cpy_coap_ctx:0000000000000000 .L0 
C:\Users\stapi\AppData\Local\Temp\ccG4Q18Z.s:168    .text.awss_cpy_coap_ctx:0000000000000000 .L0 
C:\Users\stapi\AppData\Local\Temp\ccG4Q18Z.s:169    .text.awss_cpy_coap_ctx:0000000000000008 .L0 
C:\Users\stapi\AppData\Local\Temp\ccG4Q18Z.s:170    .text.awss_cpy_coap_ctx:0000000000000008 .L0 
C:\Users\stapi\AppData\Local\Temp\ccG4Q18Z.s:171    .text.awss_cpy_coap_ctx:0000000000000008 .L0 
C:\Users\stapi\AppData\Local\Temp\ccG4Q18Z.s:172    .text.awss_cpy_coap_ctx:0000000000000008 .L0 
C:\Users\stapi\AppData\Local\Temp\ccG4Q18Z.s:173    .text.awss_cpy_coap_ctx:0000000000000008 .L0 
C:\Users\stapi\AppData\Local\Temp\ccG4Q18Z.s:174    .text.awss_cpy_coap_ctx:0000000000000008 .L0 
C:\Users\stapi\AppData\Local\Temp\ccG4Q18Z.s:175    .text.awss_cpy_coap_ctx:0000000000000008 .L0 
C:\Users\stapi\AppData\Local\Temp\ccG4Q18Z.s:177    .text.awss_cpy_coap_ctx:0000000000000008 .L0 
C:\Users\stapi\AppData\Local\Temp\ccG4Q18Z.s:178    .text.awss_cpy_coap_ctx:0000000000000008 .L0 
C:\Users\stapi\AppData\Local\Temp\ccG4Q18Z.s:179    .text.awss_cpy_coap_ctx:000000000000000a .L0 
C:\Users\stapi\AppData\Local\Temp\ccG4Q18Z.s:181    .text.awss_cpy_coap_ctx:000000000000000a .L0 
C:\Users\stapi\AppData\Local\Temp\ccG4Q18Z.s:183    .text.awss_cpy_coap_ctx:000000000000000c .L0 
C:\Users\stapi\AppData\Local\Temp\ccG4Q18Z.s:186    .text.awss_cpy_coap_ctx:000000000000000e .L0 
C:\Users\stapi\AppData\Local\Temp\ccG4Q18Z.s:189    .text.awss_cpy_coap_ctx:0000000000000012 .L0 
C:\Users\stapi\AppData\Local\Temp\ccG4Q18Z.s:194    .text.awss_cpy_coap_ctx:000000000000001c .L0 
C:\Users\stapi\AppData\Local\Temp\ccG4Q18Z.s:195    .text.awss_cpy_coap_ctx:000000000000001c .L0 
C:\Users\stapi\AppData\Local\Temp\ccG4Q18Z.s:197    .text.awss_cpy_coap_ctx:000000000000001e .L0 
C:\Users\stapi\AppData\Local\Temp\ccG4Q18Z.s:198    .text.awss_cpy_coap_ctx:000000000000001e .L0 
C:\Users\stapi\AppData\Local\Temp\ccG4Q18Z.s:202    .text.awss_cpy_coap_ctx:000000000000002a .L0 
C:\Users\stapi\AppData\Local\Temp\ccG4Q18Z.s:204    .text.awss_cpy_coap_ctx:000000000000002c .L0 
C:\Users\stapi\AppData\Local\Temp\ccG4Q18Z.s:205    .text.awss_cpy_coap_ctx:000000000000002c .L0 
C:\Users\stapi\AppData\Local\Temp\ccG4Q18Z.s:207    .text.awss_cpy_coap_ctx:000000000000002e .L0 
C:\Users\stapi\AppData\Local\Temp\ccG4Q18Z.s:213    .text.awss_cpy_coap_ctx:000000000000003c .L0 
C:\Users\stapi\AppData\Local\Temp\ccG4Q18Z.s:214    .text.awss_cpy_coap_ctx:000000000000003c .L0 
C:\Users\stapi\AppData\Local\Temp\ccG4Q18Z.s:215    .text.awss_cpy_coap_ctx:000000000000003c .L0 
C:\Users\stapi\AppData\Local\Temp\ccG4Q18Z.s:218    .text.awss_cpy_coap_ctx:000000000000003c .L0 
C:\Users\stapi\AppData\Local\Temp\ccG4Q18Z.s:219    .text.awss_cpy_coap_ctx:000000000000003c .L0 
C:\Users\stapi\AppData\Local\Temp\ccG4Q18Z.s:223    .text.awss_cpy_coap_ctx:000000000000003e .L0 
C:\Users\stapi\AppData\Local\Temp\ccG4Q18Z.s:228    .text.awss_cpy_coap_ctx:0000000000000042 .L0 
C:\Users\stapi\AppData\Local\Temp\ccG4Q18Z.s:229    .text.awss_cpy_coap_ctx:0000000000000042 .L0 
C:\Users\stapi\AppData\Local\Temp\ccG4Q18Z.s:230    .text.awss_cpy_coap_ctx:0000000000000042 .L0 
C:\Users\stapi\AppData\Local\Temp\ccG4Q18Z.s:231    .text.awss_cpy_coap_ctx:0000000000000042 .L0 
C:\Users\stapi\AppData\Local\Temp\ccG4Q18Z.s:232    .text.awss_cpy_coap_ctx:0000000000000042 .L0 
C:\Users\stapi\AppData\Local\Temp\ccG4Q18Z.s:233    .text.awss_cpy_coap_ctx:0000000000000042 .L0 
C:\Users\stapi\AppData\Local\Temp\ccG4Q18Z.s:238    .text.awss_cpy_coap_ctx:0000000000000046 .L0 
C:\Users\stapi\AppData\Local\Temp\ccG4Q18Z.s:239    .text.awss_cpy_coap_ctx:0000000000000046 .L0 
C:\Users\stapi\AppData\Local\Temp\ccG4Q18Z.s:240    .text.awss_cpy_coap_ctx:0000000000000046 .L0 
C:\Users\stapi\AppData\Local\Temp\ccG4Q18Z.s:242    .text.awss_cpy_coap_ctx:0000000000000048 .L0 
C:\Users\stapi\AppData\Local\Temp\ccG4Q18Z.s:244    .text.awss_cpy_coap_ctx:000000000000004c .L0 
C:\Users\stapi\AppData\Local\Temp\ccG4Q18Z.s:245    .text.awss_cpy_coap_ctx:000000000000004c .L0 
C:\Users\stapi\AppData\Local\Temp\ccG4Q18Z.s:247    .text.awss_cpy_coap_ctx:000000000000004e .L0 
C:\Users\stapi\AppData\Local\Temp\ccG4Q18Z.s:248    .text.awss_cpy_coap_ctx:000000000000004e .L0 
C:\Users\stapi\AppData\Local\Temp\ccG4Q18Z.s:253    .text.awss_cpy_coap_ctx:000000000000005c .L0 
C:\Users\stapi\AppData\Local\Temp\ccG4Q18Z.s:255    .text.awss_cpy_coap_ctx:0000000000000060 .L0 
C:\Users\stapi\AppData\Local\Temp\ccG4Q18Z.s:256    .text.awss_cpy_coap_ctx:0000000000000060 .L0 
C:\Users\stapi\AppData\Local\Temp\ccG4Q18Z.s:258    .text.awss_cpy_coap_ctx:0000000000000062 .L0 
C:\Users\stapi\AppData\Local\Temp\ccG4Q18Z.s:265    .text.awss_cpy_coap_ctx:000000000000006e .L0 
C:\Users\stapi\AppData\Local\Temp\ccG4Q18Z.s:266    .text.awss_cpy_coap_ctx:000000000000006e .L0 
C:\Users\stapi\AppData\Local\Temp\ccG4Q18Z.s:267    .text.awss_cpy_coap_ctx:000000000000006e .L0 
C:\Users\stapi\AppData\Local\Temp\ccG4Q18Z.s:271    .text.awss_cpy_coap_ctx:0000000000000078 .L0 
C:\Users\stapi\AppData\Local\Temp\ccG4Q18Z.s:273    .text.awss_cpy_coap_ctx:000000000000007a .L0 
C:\Users\stapi\AppData\Local\Temp\ccG4Q18Z.s:274    .text.awss_cpy_coap_ctx:000000000000007a .L0 
C:\Users\stapi\AppData\Local\Temp\ccG4Q18Z.s:276    .text.awss_cpy_coap_ctx:000000000000007c .L0 
C:\Users\stapi\AppData\Local\Temp\ccG4Q18Z.s:281    .text.awss_cpy_coap_ctx:0000000000000088 .L0 
C:\Users\stapi\AppData\Local\Temp\ccG4Q18Z.s:282    .text.awss_cpy_coap_ctx:0000000000000088 .L0 
C:\Users\stapi\AppData\Local\Temp\ccG4Q18Z.s:286    .text.awss_cpy_coap_ctx:000000000000008c .L0 
C:\Users\stapi\AppData\Local\Temp\ccG4Q18Z.s:287    .text.awss_cpy_coap_ctx:000000000000008c .L0 
C:\Users\stapi\AppData\Local\Temp\ccG4Q18Z.s:289    .text.awss_cpy_coap_ctx:0000000000000090 .L0 
C:\Users\stapi\AppData\Local\Temp\ccG4Q18Z.s:290    .text.awss_cpy_coap_ctx:0000000000000090 .L0 
C:\Users\stapi\AppData\Local\Temp\ccG4Q18Z.s:292    .text.awss_cpy_coap_ctx:0000000000000098 .L0 
C:\Users\stapi\AppData\Local\Temp\ccG4Q18Z.s:293    .text.awss_cpy_coap_ctx:0000000000000098 .L0 
C:\Users\stapi\AppData\Local\Temp\ccG4Q18Z.s:294    .text.awss_cpy_coap_ctx:0000000000000098 .L0 
C:\Users\stapi\AppData\Local\Temp\ccG4Q18Z.s:295    .text.awss_cpy_coap_ctx:0000000000000098 .L0 
C:\Users\stapi\AppData\Local\Temp\ccG4Q18Z.s:296    .text.awss_cpy_coap_ctx:0000000000000098 .L0 
C:\Users\stapi\AppData\Local\Temp\ccG4Q18Z.s:297    .text.awss_cpy_coap_ctx:0000000000000098 .L0 
C:\Users\stapi\AppData\Local\Temp\ccG4Q18Z.s:298    .text.awss_cpy_coap_ctx:0000000000000098 .L0 
C:\Users\stapi\AppData\Local\Temp\ccG4Q18Z.s:301    .text.awss_cpy_coap_ctx:0000000000000098 .L0 
C:\Users\stapi\AppData\Local\Temp\ccG4Q18Z.s:304    .text.awss_cpy_coap_ctx:0000000000000098 .L0 
C:\Users\stapi\AppData\Local\Temp\ccG4Q18Z.s:308    .text.awss_cpy_coap_ctx:00000000000000a2 .L0 
C:\Users\stapi\AppData\Local\Temp\ccG4Q18Z.s:309    .text.awss_cpy_coap_ctx:00000000000000a2 .L0 
C:\Users\stapi\AppData\Local\Temp\ccG4Q18Z.s:312    .text.awss_cpy_coap_ctx:00000000000000a6 .L0 
C:\Users\stapi\AppData\Local\Temp\ccG4Q18Z.s:319    .text.awss_cmp_get_coap_code:0000000000000000 awss_cmp_get_coap_code
C:\Users\stapi\AppData\Local\Temp\ccG4Q18Z.s:322    .text.awss_cmp_get_coap_code:0000000000000000 .L0 
C:\Users\stapi\AppData\Local\Temp\ccG4Q18Z.s:324    .text.awss_cmp_get_coap_code:0000000000000000 .L0 
C:\Users\stapi\AppData\Local\Temp\ccG4Q18Z.s:325    .text.awss_cmp_get_coap_code:0000000000000000 .L0 
C:\Users\stapi\AppData\Local\Temp\ccG4Q18Z.s:326    .text.awss_cmp_get_coap_code:0000000000000000 .L0 
C:\Users\stapi\AppData\Local\Temp\ccG4Q18Z.s:329    .text.awss_cmp_get_coap_code:0000000000000002 .L0 
C:\Users\stapi\AppData\Local\Temp\ccG4Q18Z.s:330    .text.awss_cmp_get_coap_code:0000000000000002 .L0 
C:\Users\stapi\AppData\Local\Temp\ccG4Q18Z.s:331    .text.awss_cmp_get_coap_code:0000000000000002 .L0 
C:\Users\stapi\AppData\Local\Temp\ccG4Q18Z.s:337    .text.awss_cmp_get_coap_code:0000000000000008 .L0 
C:\Users\stapi\AppData\Local\Temp\ccG4Q18Z.s:340    .text.awss_cmp_get_coap_code:000000000000000c .L0 
C:\Users\stapi\AppData\Local\Temp\ccG4Q18Z.s:341    .text.awss_cmp_get_coap_code:000000000000000e .L0 
C:\Users\stapi\AppData\Local\Temp\ccG4Q18Z.s:348    .text.awss_cmp_get_coap_payload:0000000000000000 awss_cmp_get_coap_payload
C:\Users\stapi\AppData\Local\Temp\ccG4Q18Z.s:351    .text.awss_cmp_get_coap_payload:0000000000000000 .L0 
C:\Users\stapi\AppData\Local\Temp\ccG4Q18Z.s:353    .text.awss_cmp_get_coap_payload:0000000000000000 .L0 
C:\Users\stapi\AppData\Local\Temp\ccG4Q18Z.s:354    .text.awss_cmp_get_coap_payload:0000000000000000 .L0 
C:\Users\stapi\AppData\Local\Temp\ccG4Q18Z.s:355    .text.awss_cmp_get_coap_payload:0000000000000000 .L0 
C:\Users\stapi\AppData\Local\Temp\ccG4Q18Z.s:358    .text.awss_cmp_get_coap_payload:0000000000000002 .L0 
C:\Users\stapi\AppData\Local\Temp\ccG4Q18Z.s:359    .text.awss_cmp_get_coap_payload:0000000000000002 .L0 
C:\Users\stapi\AppData\Local\Temp\ccG4Q18Z.s:360    .text.awss_cmp_get_coap_payload:0000000000000002 .L0 
C:\Users\stapi\AppData\Local\Temp\ccG4Q18Z.s:362    .text.awss_cmp_get_coap_payload:0000000000000004 .L0 
C:\Users\stapi\AppData\Local\Temp\ccG4Q18Z.s:363    .text.awss_cmp_get_coap_payload:0000000000000004 .L0 
C:\Users\stapi\AppData\Local\Temp\ccG4Q18Z.s:367    .text.awss_cmp_get_coap_payload:000000000000000a .L0 
C:\Users\stapi\AppData\Local\Temp\ccG4Q18Z.s:368    .text.awss_cmp_get_coap_payload:000000000000000a .L0 
C:\Users\stapi\AppData\Local\Temp\ccG4Q18Z.s:372    .text.awss_cmp_get_coap_payload:000000000000000c .L0 
C:\Users\stapi\AppData\Local\Temp\ccG4Q18Z.s:373    .text.awss_cmp_get_coap_payload:000000000000000e .L0 
C:\Users\stapi\AppData\Local\Temp\ccG4Q18Z.s:380    .text.awss_cmp_coap_register_cb:0000000000000000 awss_cmp_coap_register_cb
C:\Users\stapi\AppData\Local\Temp\ccG4Q18Z.s:383    .text.awss_cmp_coap_register_cb:0000000000000000 .L0 
C:\Users\stapi\AppData\Local\Temp\ccG4Q18Z.s:385    .text.awss_cmp_coap_register_cb:0000000000000000 .L0 
C:\Users\stapi\AppData\Local\Temp\ccG4Q18Z.s:386    .text.awss_cmp_coap_register_cb:0000000000000008 .L0 
C:\Users\stapi\AppData\Local\Temp\ccG4Q18Z.s:387    .text.awss_cmp_coap_register_cb:0000000000000008 .L0 
C:\Users\stapi\AppData\Local\Temp\ccG4Q18Z.s:388    .text.awss_cmp_coap_register_cb:0000000000000008 .L0 
C:\Users\stapi\AppData\Local\Temp\ccG4Q18Z.s:389    .text.awss_cmp_coap_register_cb:0000000000000008 .L0 
C:\Users\stapi\AppData\Local\Temp\ccG4Q18Z.s:392    .text.awss_cmp_coap_register_cb:0000000000000008 .L0 
C:\Users\stapi\AppData\Local\Temp\ccG4Q18Z.s:393    .text.awss_cmp_coap_register_cb:0000000000000008 .L0 
C:\Users\stapi\AppData\Local\Temp\ccG4Q18Z.s:394    .text.awss_cmp_coap_register_cb:0000000000000008 .L0 
C:\Users\stapi\AppData\Local\Temp\ccG4Q18Z.s:396    .text.awss_cmp_coap_register_cb:000000000000000c .L0 
C:\Users\stapi\AppData\Local\Temp\ccG4Q18Z.s:398    .text.awss_cmp_coap_register_cb:0000000000000010 .L0 
C:\Users\stapi\AppData\Local\Temp\ccG4Q18Z.s:399    .text.awss_cmp_coap_register_cb:0000000000000012 .L0 
C:\Users\stapi\AppData\Local\Temp\ccG4Q18Z.s:401    .text.awss_cmp_coap_register_cb:0000000000000012 .L0 
C:\Users\stapi\AppData\Local\Temp\ccG4Q18Z.s:405    .text.awss_cmp_coap_register_cb:000000000000001a .L0 
C:\Users\stapi\AppData\Local\Temp\ccG4Q18Z.s:408    .text.awss_cmp_coap_register_cb:000000000000001e .L0 
C:\Users\stapi\AppData\Local\Temp\ccG4Q18Z.s:409    .text.awss_cmp_coap_register_cb:000000000000001e .L0 
C:\Users\stapi\AppData\Local\Temp\ccG4Q18Z.s:412    .text.awss_cmp_coap_register_cb:0000000000000026 .L0 
C:\Users\stapi\AppData\Local\Temp\ccG4Q18Z.s:417    .text.awss_cmp_coap_register_cb:000000000000002a .L0 
C:\Users\stapi\AppData\Local\Temp\ccG4Q18Z.s:418    .text.awss_cmp_coap_register_cb:000000000000002a .L0 
C:\Users\stapi\AppData\Local\Temp\ccG4Q18Z.s:420    .text.awss_cmp_coap_register_cb:000000000000002c .L0 
C:\Users\stapi\AppData\Local\Temp\ccG4Q18Z.s:422    .text.awss_cmp_coap_register_cb:000000000000002e .L0 
C:\Users\stapi\AppData\Local\Temp\ccG4Q18Z.s:423    .text.awss_cmp_coap_register_cb:000000000000002e .L0 
C:\Users\stapi\AppData\Local\Temp\ccG4Q18Z.s:425    .text.awss_cmp_coap_register_cb:0000000000000032 .L0 
C:\Users\stapi\AppData\Local\Temp\ccG4Q18Z.s:427    .text.awss_cmp_coap_register_cb:0000000000000034 .L0 
C:\Users\stapi\AppData\Local\Temp\ccG4Q18Z.s:428    .text.awss_cmp_coap_register_cb:0000000000000034 .L0 
C:\Users\stapi\AppData\Local\Temp\ccG4Q18Z.s:433    .text.awss_cmp_coap_register_cb:0000000000000040 .L0 
C:\Users\stapi\AppData\Local\Temp\ccG4Q18Z.s:437    .text.awss_cmp_coap_register_cb:0000000000000042 .L0 
C:\Users\stapi\AppData\Local\Temp\ccG4Q18Z.s:438    .text.awss_cmp_coap_register_cb:0000000000000042 .L0 
C:\Users\stapi\AppData\Local\Temp\ccG4Q18Z.s:442    .text.awss_cmp_coap_register_cb:0000000000000046 .L0 
C:\Users\stapi\AppData\Local\Temp\ccG4Q18Z.s:443    .text.awss_cmp_coap_register_cb:0000000000000048 .L0 
C:\Users\stapi\AppData\Local\Temp\ccG4Q18Z.s:445    .text.awss_cmp_coap_register_cb:0000000000000050 .L0 
C:\Users\stapi\AppData\Local\Temp\ccG4Q18Z.s:446    .text.awss_cmp_coap_register_cb:0000000000000050 .L0 
C:\Users\stapi\AppData\Local\Temp\ccG4Q18Z.s:447    .text.awss_cmp_coap_register_cb:0000000000000050 .L0 
C:\Users\stapi\AppData\Local\Temp\ccG4Q18Z.s:448    .text.awss_cmp_coap_register_cb:0000000000000050 .L0 
C:\Users\stapi\AppData\Local\Temp\ccG4Q18Z.s:449    .text.awss_cmp_coap_register_cb:0000000000000050 .L0 
C:\Users\stapi\AppData\Local\Temp\ccG4Q18Z.s:456    .text.awss_cmp_coap_cancel_packet:0000000000000000 awss_cmp_coap_cancel_packet
C:\Users\stapi\AppData\Local\Temp\ccG4Q18Z.s:459    .text.awss_cmp_coap_cancel_packet:0000000000000000 .L0 
C:\Users\stapi\AppData\Local\Temp\ccG4Q18Z.s:461    .text.awss_cmp_coap_cancel_packet:0000000000000000 .L0 
C:\Users\stapi\AppData\Local\Temp\ccG4Q18Z.s:462    .text.awss_cmp_coap_cancel_packet:0000000000000000 .L0 
C:\Users\stapi\AppData\Local\Temp\ccG4Q18Z.s:463    .text.awss_cmp_coap_cancel_packet:0000000000000000 .L0 
C:\Users\stapi\AppData\Local\Temp\ccG4Q18Z.s:465    .text.awss_cmp_coap_cancel_packet:0000000000000004 .L0 
C:\Users\stapi\AppData\Local\Temp\ccG4Q18Z.s:467    .text.awss_cmp_coap_cancel_packet:0000000000000006 .L0 
C:\Users\stapi\AppData\Local\Temp\ccG4Q18Z.s:470    .text.awss_cmp_coap_cancel_packet:000000000000000a .L0 
C:\Users\stapi\AppData\Local\Temp\ccG4Q18Z.s:472    .text.awss_cmp_coap_cancel_packet:000000000000000c .L0 
C:\Users\stapi\AppData\Local\Temp\ccG4Q18Z.s:473    .text.awss_cmp_coap_cancel_packet:000000000000000c .L0 
C:\Users\stapi\AppData\Local\Temp\ccG4Q18Z.s:477    .text.awss_cmp_coap_cancel_packet:0000000000000014 .L0 
C:\Users\stapi\AppData\Local\Temp\ccG4Q18Z.s:479    .text.awss_cmp_coap_cancel_packet:0000000000000018 .L0 
C:\Users\stapi\AppData\Local\Temp\ccG4Q18Z.s:480    .text.awss_cmp_coap_cancel_packet:000000000000001a .L0 
C:\Users\stapi\AppData\Local\Temp\ccG4Q18Z.s:487    .text.awss_cmp_coap_send:0000000000000000 awss_cmp_coap_send
C:\Users\stapi\AppData\Local\Temp\ccG4Q18Z.s:490    .text.awss_cmp_coap_send:0000000000000000 .L0 
C:\Users\stapi\AppData\Local\Temp\ccG4Q18Z.s:492    .text.awss_cmp_coap_send:0000000000000000 .L0 
C:\Users\stapi\AppData\Local\Temp\ccG4Q18Z.s:493    .text.awss_cmp_coap_send:0000000000000008 .L0 
C:\Users\stapi\AppData\Local\Temp\ccG4Q18Z.s:494    .text.awss_cmp_coap_send:0000000000000008 .L0 
C:\Users\stapi\AppData\Local\Temp\ccG4Q18Z.s:495    .text.awss_cmp_coap_send:0000000000000008 .L0 
C:\Users\stapi\AppData\Local\Temp\ccG4Q18Z.s:496    .text.awss_cmp_coap_send:0000000000000008 .L0 
C:\Users\stapi\AppData\Local\Temp\ccG4Q18Z.s:497    .text.awss_cmp_coap_send:0000000000000008 .L0 
C:\Users\stapi\AppData\Local\Temp\ccG4Q18Z.s:498    .text.awss_cmp_coap_send:0000000000000008 .L0 
C:\Users\stapi\AppData\Local\Temp\ccG4Q18Z.s:499    .text.awss_cmp_coap_send:0000000000000008 .L0 
C:\Users\stapi\AppData\Local\Temp\ccG4Q18Z.s:500    .text.awss_cmp_coap_send:0000000000000008 .L0 
C:\Users\stapi\AppData\Local\Temp\ccG4Q18Z.s:501    .text.awss_cmp_coap_send:0000000000000008 .L0 
C:\Users\stapi\AppData\Local\Temp\ccG4Q18Z.s:503    .text.awss_cmp_coap_send:0000000000000008 .L0 
C:\Users\stapi\AppData\Local\Temp\ccG4Q18Z.s:504    .text.awss_cmp_coap_send:0000000000000008 .L0 
C:\Users\stapi\AppData\Local\Temp\ccG4Q18Z.s:506    .text.awss_cmp_coap_send:000000000000000c .L0 
C:\Users\stapi\AppData\Local\Temp\ccG4Q18Z.s:508    .text.awss_cmp_coap_send:000000000000000e .L0 
C:\Users\stapi\AppData\Local\Temp\ccG4Q18Z.s:511    .text.awss_cmp_coap_send:0000000000000012 .L0 
C:\Users\stapi\AppData\Local\Temp\ccG4Q18Z.s:518    .text.awss_cmp_coap_send:0000000000000020 .L0 
C:\Users\stapi\AppData\Local\Temp\ccG4Q18Z.s:520    .text.awss_cmp_coap_send:0000000000000022 .L0 
C:\Users\stapi\AppData\Local\Temp\ccG4Q18Z.s:521    .text.awss_cmp_coap_send:0000000000000022 .L0 
C:\Users\stapi\AppData\Local\Temp\ccG4Q18Z.s:524    .text.awss_cmp_coap_send:000000000000002a .L0 
C:\Users\stapi\AppData\Local\Temp\ccG4Q18Z.s:527    .text.awss_cmp_coap_send:000000000000002c .L0 
C:\Users\stapi\AppData\Local\Temp\ccG4Q18Z.s:528    .text.awss_cmp_coap_send:000000000000002c .L0 
C:\Users\stapi\AppData\Local\Temp\ccG4Q18Z.s:538    .text.awss_cmp_coap_send:0000000000000044 .L0 
C:\Users\stapi\AppData\Local\Temp\ccG4Q18Z.s:539    .text.awss_cmp_coap_send:000000000000004c .L0 
C:\Users\stapi\AppData\Local\Temp\ccG4Q18Z.s:540    .text.awss_cmp_coap_send:000000000000004c .L0 
C:\Users\stapi\AppData\Local\Temp\ccG4Q18Z.s:541    .text.awss_cmp_coap_send:000000000000004c .L0 
C:\Users\stapi\AppData\Local\Temp\ccG4Q18Z.s:542    .text.awss_cmp_coap_send:000000000000004c .L0 
C:\Users\stapi\AppData\Local\Temp\ccG4Q18Z.s:543    .text.awss_cmp_coap_send:000000000000004c .L0 
C:\Users\stapi\AppData\Local\Temp\ccG4Q18Z.s:544    .text.awss_cmp_coap_send:000000000000004c .L0 
C:\Users\stapi\AppData\Local\Temp\ccG4Q18Z.s:545    .text.awss_cmp_coap_send:000000000000004c .L0 
C:\Users\stapi\AppData\Local\Temp\ccG4Q18Z.s:546    .text.awss_cmp_coap_send:000000000000004c .L0 
C:\Users\stapi\AppData\Local\Temp\ccG4Q18Z.s:547    .text.awss_cmp_coap_send:000000000000004c .L0 
C:\Users\stapi\AppData\Local\Temp\ccG4Q18Z.s:548    .text.awss_cmp_coap_send:000000000000004c .L0 
C:\Users\stapi\AppData\Local\Temp\ccG4Q18Z.s:551    .text.awss_cmp_coap_send:000000000000004c .L0 
C:\Users\stapi\AppData\Local\Temp\ccG4Q18Z.s:553    .text.awss_cmp_coap_send:000000000000004c .L0 
C:\Users\stapi\AppData\Local\Temp\ccG4Q18Z.s:558    .text.awss_cmp_coap_send:000000000000005a .L0 
C:\Users\stapi\AppData\Local\Temp\ccG4Q18Z.s:565    .text.awss_cmp_coap_send_resp:0000000000000000 awss_cmp_coap_send_resp
C:\Users\stapi\AppData\Local\Temp\ccG4Q18Z.s:568    .text.awss_cmp_coap_send_resp:0000000000000000 .L0 
C:\Users\stapi\AppData\Local\Temp\ccG4Q18Z.s:570    .text.awss_cmp_coap_send_resp:0000000000000000 .L0 
C:\Users\stapi\AppData\Local\Temp\ccG4Q18Z.s:571    .text.awss_cmp_coap_send_resp:0000000000000008 .L0 
C:\Users\stapi\AppData\Local\Temp\ccG4Q18Z.s:572    .text.awss_cmp_coap_send_resp:0000000000000008 .L0 
C:\Users\stapi\AppData\Local\Temp\ccG4Q18Z.s:573    .text.awss_cmp_coap_send_resp:0000000000000008 .L0 
C:\Users\stapi\AppData\Local\Temp\ccG4Q18Z.s:574    .text.awss_cmp_coap_send_resp:0000000000000008 .L0 
C:\Users\stapi\AppData\Local\Temp\ccG4Q18Z.s:575    .text.awss_cmp_coap_send_resp:0000000000000008 .L0 
C:\Users\stapi\AppData\Local\Temp\ccG4Q18Z.s:576    .text.awss_cmp_coap_send_resp:0000000000000008 .L0 
C:\Users\stapi\AppData\Local\Temp\ccG4Q18Z.s:577    .text.awss_cmp_coap_send_resp:0000000000000008 .L0 
C:\Users\stapi\AppData\Local\Temp\ccG4Q18Z.s:578    .text.awss_cmp_coap_send_resp:0000000000000008 .L0 
C:\Users\stapi\AppData\Local\Temp\ccG4Q18Z.s:579    .text.awss_cmp_coap_send_resp:0000000000000008 .L0 
C:\Users\stapi\AppData\Local\Temp\ccG4Q18Z.s:580    .text.awss_cmp_coap_send_resp:0000000000000008 .L0 
C:\Users\stapi\AppData\Local\Temp\ccG4Q18Z.s:582    .text.awss_cmp_coap_send_resp:0000000000000008 .L0 
C:\Users\stapi\AppData\Local\Temp\ccG4Q18Z.s:583    .text.awss_cmp_coap_send_resp:0000000000000008 .L0 
C:\Users\stapi\AppData\Local\Temp\ccG4Q18Z.s:585    .text.awss_cmp_coap_send_resp:000000000000000c .L0 
C:\Users\stapi\AppData\Local\Temp\ccG4Q18Z.s:587    .text.awss_cmp_coap_send_resp:000000000000000e .L0 
C:\Users\stapi\AppData\Local\Temp\ccG4Q18Z.s:590    .text.awss_cmp_coap_send_resp:0000000000000012 .L0 
C:\Users\stapi\AppData\Local\Temp\ccG4Q18Z.s:591    .text.awss_cmp_coap_send_resp:0000000000000014 .L0 
C:\Users\stapi\AppData\Local\Temp\ccG4Q18Z.s:593    .text.awss_cmp_coap_send_resp:0000000000000014 .L0 
C:\Users\stapi\AppData\Local\Temp\ccG4Q18Z.s:601    .text.awss_cmp_coap_send_resp:0000000000000024 .L0 
C:\Users\stapi\AppData\Local\Temp\ccG4Q18Z.s:604    .text.awss_cmp_coap_send_resp:0000000000000028 .L0 
C:\Users\stapi\AppData\Local\Temp\ccG4Q18Z.s:605    .text.awss_cmp_coap_send_resp:0000000000000028 .L0 
C:\Users\stapi\AppData\Local\Temp\ccG4Q18Z.s:608    .text.awss_cmp_coap_send_resp:0000000000000030 .L0 
C:\Users\stapi\AppData\Local\Temp\ccG4Q18Z.s:613    .text.awss_cmp_coap_send_resp:0000000000000034 .L0 
C:\Users\stapi\AppData\Local\Temp\ccG4Q18Z.s:614    .text.awss_cmp_coap_send_resp:0000000000000034 .L0 
C:\Users\stapi\AppData\Local\Temp\ccG4Q18Z.s:625    .text.awss_cmp_coap_send_resp:000000000000004e .L0 
C:\Users\stapi\AppData\Local\Temp\ccG4Q18Z.s:626    .text.awss_cmp_coap_send_resp:0000000000000050 .L0 
C:\Users\stapi\AppData\Local\Temp\ccG4Q18Z.s:628    .text.awss_cmp_coap_send_resp:0000000000000058 .L0 
C:\Users\stapi\AppData\Local\Temp\ccG4Q18Z.s:629    .text.awss_cmp_coap_send_resp:0000000000000058 .L0 
C:\Users\stapi\AppData\Local\Temp\ccG4Q18Z.s:630    .text.awss_cmp_coap_send_resp:0000000000000058 .L0 
C:\Users\stapi\AppData\Local\Temp\ccG4Q18Z.s:631    .text.awss_cmp_coap_send_resp:0000000000000058 .L0 
C:\Users\stapi\AppData\Local\Temp\ccG4Q18Z.s:632    .text.awss_cmp_coap_send_resp:0000000000000058 .L0 
C:\Users\stapi\AppData\Local\Temp\ccG4Q18Z.s:633    .text.awss_cmp_coap_send_resp:0000000000000058 .L0 
C:\Users\stapi\AppData\Local\Temp\ccG4Q18Z.s:634    .text.awss_cmp_coap_send_resp:0000000000000058 .L0 
C:\Users\stapi\AppData\Local\Temp\ccG4Q18Z.s:635    .text.awss_cmp_coap_send_resp:0000000000000058 .L0 
C:\Users\stapi\AppData\Local\Temp\ccG4Q18Z.s:636    .text.awss_cmp_coap_send_resp:0000000000000058 .L0 
C:\Users\stapi\AppData\Local\Temp\ccG4Q18Z.s:637    .text.awss_cmp_coap_send_resp:0000000000000058 .L0 
C:\Users\stapi\AppData\Local\Temp\ccG4Q18Z.s:638    .text.awss_cmp_coap_send_resp:0000000000000058 .L0 
C:\Users\stapi\AppData\Local\Temp\ccG4Q18Z.s:645    .text.awss_cmp_coap_ob_send:0000000000000000 awss_cmp_coap_ob_send
C:\Users\stapi\AppData\Local\Temp\ccG4Q18Z.s:648    .text.awss_cmp_coap_ob_send:0000000000000000 .L0 
C:\Users\stapi\AppData\Local\Temp\ccG4Q18Z.s:650    .text.awss_cmp_coap_ob_send:0000000000000000 .L0 
C:\Users\stapi\AppData\Local\Temp\ccG4Q18Z.s:651    .text.awss_cmp_coap_ob_send:0000000000000008 .L0 
C:\Users\stapi\AppData\Local\Temp\ccG4Q18Z.s:652    .text.awss_cmp_coap_ob_send:0000000000000008 .L0 
C:\Users\stapi\AppData\Local\Temp\ccG4Q18Z.s:653    .text.awss_cmp_coap_ob_send:0000000000000008 .L0 
C:\Users\stapi\AppData\Local\Temp\ccG4Q18Z.s:654    .text.awss_cmp_coap_ob_send:0000000000000008 .L0 
C:\Users\stapi\AppData\Local\Temp\ccG4Q18Z.s:655    .text.awss_cmp_coap_ob_send:0000000000000008 .L0 
C:\Users\stapi\AppData\Local\Temp\ccG4Q18Z.s:657    .text.awss_cmp_coap_ob_send:0000000000000008 .L0 
C:\Users\stapi\AppData\Local\Temp\ccG4Q18Z.s:658    .text.awss_cmp_coap_ob_send:0000000000000008 .L0 
C:\Users\stapi\AppData\Local\Temp\ccG4Q18Z.s:660    .text.awss_cmp_coap_ob_send:000000000000000c .L0 
C:\Users\stapi\AppData\Local\Temp\ccG4Q18Z.s:662    .text.awss_cmp_coap_ob_send:0000000000000010 .L0 
C:\Users\stapi\AppData\Local\Temp\ccG4Q18Z.s:663    .text.awss_cmp_coap_ob_send:0000000000000012 .L0 
C:\Users\stapi\AppData\Local\Temp\ccG4Q18Z.s:665    .text.awss_cmp_coap_ob_send:0000000000000012 .L0 
C:\Users\stapi\AppData\Local\Temp\ccG4Q18Z.s:671    .text.awss_cmp_coap_ob_send:000000000000001c .L0 
C:\Users\stapi\AppData\Local\Temp\ccG4Q18Z.s:675    .text.awss_cmp_coap_ob_send:0000000000000022 .L0 
C:\Users\stapi\AppData\Local\Temp\ccG4Q18Z.s:676    .text.awss_cmp_coap_ob_send:0000000000000022 .L0 
C:\Users\stapi\AppData\Local\Temp\ccG4Q18Z.s:679    .text.awss_cmp_coap_ob_send:000000000000002a .L0 
C:\Users\stapi\AppData\Local\Temp\ccG4Q18Z.s:685    .text.awss_cmp_coap_ob_send:0000000000000030 .L0 
C:\Users\stapi\AppData\Local\Temp\ccG4Q18Z.s:686    .text.awss_cmp_coap_ob_send:0000000000000030 .L0 
C:\Users\stapi\AppData\Local\Temp\ccG4Q18Z.s:692    .text.awss_cmp_coap_ob_send:0000000000000040 .L0 
C:\Users\stapi\AppData\Local\Temp\ccG4Q18Z.s:693    .text.awss_cmp_coap_ob_send:0000000000000042 .L0 
C:\Users\stapi\AppData\Local\Temp\ccG4Q18Z.s:695    .text.awss_cmp_coap_ob_send:000000000000004a .L0 
C:\Users\stapi\AppData\Local\Temp\ccG4Q18Z.s:696    .text.awss_cmp_coap_ob_send:000000000000004a .L0 
C:\Users\stapi\AppData\Local\Temp\ccG4Q18Z.s:697    .text.awss_cmp_coap_ob_send:000000000000004a .L0 
C:\Users\stapi\AppData\Local\Temp\ccG4Q18Z.s:698    .text.awss_cmp_coap_ob_send:000000000000004a .L0 
C:\Users\stapi\AppData\Local\Temp\ccG4Q18Z.s:699    .text.awss_cmp_coap_ob_send:000000000000004a .L0 
C:\Users\stapi\AppData\Local\Temp\ccG4Q18Z.s:700    .text.awss_cmp_coap_ob_send:000000000000004a .L0 
C:\Users\stapi\AppData\Local\Temp\ccG4Q18Z.s:707    .text.awss_cmp_coap_deinit:0000000000000000 awss_cmp_coap_deinit
C:\Users\stapi\AppData\Local\Temp\ccG4Q18Z.s:710    .text.awss_cmp_coap_deinit:0000000000000000 .L0 
C:\Users\stapi\AppData\Local\Temp\ccG4Q18Z.s:711    .text.awss_cmp_coap_deinit:0000000000000000 .L0 
C:\Users\stapi\AppData\Local\Temp\ccG4Q18Z.s:712    .text.awss_cmp_coap_deinit:0000000000000008 .L0 
C:\Users\stapi\AppData\Local\Temp\ccG4Q18Z.s:713    .text.awss_cmp_coap_deinit:0000000000000008 .L0 
C:\Users\stapi\AppData\Local\Temp\ccG4Q18Z.s:714    .text.awss_cmp_coap_deinit:0000000000000008 .L0 
C:\Users\stapi\AppData\Local\Temp\ccG4Q18Z.s:716    .text.awss_cmp_coap_deinit:0000000000000008 .L0 
C:\Users\stapi\AppData\Local\Temp\ccG4Q18Z.s:717    .text.awss_cmp_coap_deinit:0000000000000008 .L0 
C:\Users\stapi\AppData\Local\Temp\ccG4Q18Z.s:721    .text.awss_cmp_coap_deinit:0000000000000014 .L0 
C:\Users\stapi\AppData\Local\Temp\ccG4Q18Z.s:723    .text.awss_cmp_coap_deinit:0000000000000016 .L0 
C:\Users\stapi\AppData\Local\Temp\ccG4Q18Z.s:727    .text.awss_cmp_coap_deinit:000000000000001e .L0 
C:\Users\stapi\AppData\Local\Temp\ccG4Q18Z.s:728    .text.awss_cmp_coap_deinit:000000000000001e .L0 
C:\Users\stapi\AppData\Local\Temp\ccG4Q18Z.s:730    .text.awss_cmp_coap_deinit:0000000000000022 .L0 
C:\Users\stapi\AppData\Local\Temp\ccG4Q18Z.s:731    .text.awss_cmp_coap_deinit:0000000000000022 .L0 
C:\Users\stapi\AppData\Local\Temp\ccG4Q18Z.s:733    .text.awss_cmp_coap_deinit:000000000000002c .L0 
C:\Users\stapi\AppData\Local\Temp\ccG4Q18Z.s:734    .text.awss_cmp_coap_deinit:000000000000002c .L0 
C:\Users\stapi\AppData\Local\Temp\ccG4Q18Z.s:735    .text.awss_cmp_coap_deinit:000000000000002c .L0 
C:\Users\stapi\AppData\Local\Temp\ccG4Q18Z.s:736    .text.awss_cmp_coap_deinit:000000000000002c .L0 
C:\Users\stapi\AppData\Local\Temp\ccG4Q18Z.s:747    .text.awss_cmp_local_init:0000000000000000 awss_cmp_local_init
C:\Users\stapi\AppData\Local\Temp\ccG4Q18Z.s:750    .text.awss_cmp_local_init:0000000000000000 .L0 
C:\Users\stapi\AppData\Local\Temp\ccG4Q18Z.s:752    .text.awss_cmp_local_init:0000000000000000 .L0 
C:\Users\stapi\AppData\Local\Temp\ccG4Q18Z.s:753    .text.awss_cmp_local_init:0000000000000008 .L0 
C:\Users\stapi\AppData\Local\Temp\ccG4Q18Z.s:754    .text.awss_cmp_local_init:0000000000000008 .L0 
C:\Users\stapi\AppData\Local\Temp\ccG4Q18Z.s:755    .text.awss_cmp_local_init:0000000000000008 .L0 
C:\Users\stapi\AppData\Local\Temp\ccG4Q18Z.s:756    .text.awss_cmp_local_init:0000000000000008 .L0 
C:\Users\stapi\AppData\Local\Temp\ccG4Q18Z.s:757    .text.awss_cmp_local_init:0000000000000008 .L0 
C:\Users\stapi\AppData\Local\Temp\ccG4Q18Z.s:758    .text.awss_cmp_local_init:0000000000000008 .L0 
C:\Users\stapi\AppData\Local\Temp\ccG4Q18Z.s:759    .text.awss_cmp_local_init:0000000000000008 .L0 
C:\Users\stapi\AppData\Local\Temp\ccG4Q18Z.s:762    .text.awss_cmp_local_init:0000000000000008 .L0 
C:\Users\stapi\AppData\Local\Temp\ccG4Q18Z.s:763    .text.awss_cmp_local_init:0000000000000008 .L0 
C:\Users\stapi\AppData\Local\Temp\ccG4Q18Z.s:764    .text.awss_cmp_local_init:0000000000000008 .L0 
C:\Users\stapi\AppData\Local\Temp\ccG4Q18Z.s:765    .text.awss_cmp_local_init:0000000000000008 .L0 
C:\Users\stapi\AppData\Local\Temp\ccG4Q18Z.s:766    .text.awss_cmp_local_init:0000000000000008 .L0 
C:\Users\stapi\AppData\Local\Temp\ccG4Q18Z.s:767    .text.awss_cmp_local_init:0000000000000008 .L0 
C:\Users\stapi\AppData\Local\Temp\ccG4Q18Z.s:770    .text.awss_cmp_local_init:0000000000000010 .L0 
C:\Users\stapi\AppData\Local\Temp\ccG4Q18Z.s:771    .text.awss_cmp_local_init:0000000000000012 .L0 
C:\Users\stapi\AppData\Local\Temp\ccG4Q18Z.s:773    .text.awss_cmp_local_init:0000000000000012 .L0 
C:\Users\stapi\AppData\Local\Temp\ccG4Q18Z.s:776    .text.awss_cmp_local_init:0000000000000018 .L0 
C:\Users\stapi\AppData\Local\Temp\ccG4Q18Z.s:778    .text.awss_cmp_local_init:000000000000001a .L0 
C:\Users\stapi\AppData\Local\Temp\ccG4Q18Z.s:782    .text.awss_cmp_local_init:000000000000001e .L0 
C:\Users\stapi\AppData\Local\Temp\ccG4Q18Z.s:783    .text.awss_cmp_local_init:000000000000001e .L0 
C:\Users\stapi\AppData\Local\Temp\ccG4Q18Z.s:786    .text.awss_cmp_local_init:0000000000000022 .L0 
C:\Users\stapi\AppData\Local\Temp\ccG4Q18Z.s:788    .text.awss_cmp_local_init:0000000000000024 .L0 
C:\Users\stapi\AppData\Local\Temp\ccG4Q18Z.s:794    .text.awss_cmp_local_init:0000000000000034 .L0 
C:\Users\stapi\AppData\Local\Temp\ccG4Q18Z.s:800    .text.awss_cmp_local_init:0000000000000044 .L0 
C:\Users\stapi\AppData\Local\Temp\ccG4Q18Z.s:801    .text.awss_cmp_local_init:0000000000000044 .L0 
C:\Users\stapi\AppData\Local\Temp\ccG4Q18Z.s:808    .text.awss_cmp_local_init:0000000000000052 .L0 
C:\Users\stapi\AppData\Local\Temp\ccG4Q18Z.s:809    .text.awss_cmp_local_init:0000000000000052 .L0 
C:\Users\stapi\AppData\Local\Temp\ccG4Q18Z.s:811    .text.awss_cmp_local_init:0000000000000054 .L0 
C:\Users\stapi\AppData\Local\Temp\ccG4Q18Z.s:817    .text.awss_cmp_local_init:0000000000000062 .L0 
C:\Users\stapi\AppData\Local\Temp\ccG4Q18Z.s:818    .text.awss_cmp_local_init:0000000000000062 .L0 
C:\Users\stapi\AppData\Local\Temp\ccG4Q18Z.s:822    .text.awss_cmp_local_init:0000000000000066 .L0 
C:\Users\stapi\AppData\Local\Temp\ccG4Q18Z.s:823    .text.awss_cmp_local_init:0000000000000066 .L0 
C:\Users\stapi\AppData\Local\Temp\ccG4Q18Z.s:824    .text.awss_cmp_local_init:0000000000000066 .L0 
C:\Users\stapi\AppData\Local\Temp\ccG4Q18Z.s:827    .text.awss_cmp_local_init:000000000000006c .L0 
C:\Users\stapi\AppData\Local\Temp\ccG4Q18Z.s:828    .text.awss_cmp_local_init:000000000000006c .L0 
C:\Users\stapi\AppData\Local\Temp\ccG4Q18Z.s:830    .text.awss_cmp_local_init:0000000000000070 .L0 
C:\Users\stapi\AppData\Local\Temp\ccG4Q18Z.s:832    .text.awss_cmp_local_init:0000000000000078 .L0 
C:\Users\stapi\AppData\Local\Temp\ccG4Q18Z.s:833    .text.awss_cmp_local_init:0000000000000078 .L0 
C:\Users\stapi\AppData\Local\Temp\ccG4Q18Z.s:834    .text.awss_cmp_local_init:0000000000000078 .L0 
C:\Users\stapi\AppData\Local\Temp\ccG4Q18Z.s:835    .text.awss_cmp_local_init:0000000000000078 .L0 
C:\Users\stapi\AppData\Local\Temp\ccG4Q18Z.s:836    .text.awss_cmp_local_init:0000000000000078 .L0 
C:\Users\stapi\AppData\Local\Temp\ccG4Q18Z.s:837    .text.awss_cmp_local_init:0000000000000078 .L0 
C:\Users\stapi\AppData\Local\Temp\ccG4Q18Z.s:838    .text.awss_cmp_local_init:0000000000000078 .L0 
C:\Users\stapi\AppData\Local\Temp\ccG4Q18Z.s:839    .text.awss_cmp_local_init:0000000000000078 .L0 
C:\Users\stapi\AppData\Local\Temp\ccG4Q18Z.s:846    .text.awss_cmp_local_deinit:0000000000000000 awss_cmp_local_deinit
C:\Users\stapi\AppData\Local\Temp\ccG4Q18Z.s:849    .text.awss_cmp_local_deinit:0000000000000000 .L0 
C:\Users\stapi\AppData\Local\Temp\ccG4Q18Z.s:851    .text.awss_cmp_local_deinit:0000000000000000 .L0 
C:\Users\stapi\AppData\Local\Temp\ccG4Q18Z.s:852    .text.awss_cmp_local_deinit:0000000000000000 .L0 
C:\Users\stapi\AppData\Local\Temp\ccG4Q18Z.s:853    .text.awss_cmp_local_deinit:0000000000000000 .L0 
C:\Users\stapi\AppData\Local\Temp\ccG4Q18Z.s:857    .text.awss_cmp_local_deinit:000000000000000a .L0 
C:\Users\stapi\AppData\Local\Temp\ccG4Q18Z.s:858    .text.awss_cmp_local_deinit:0000000000000012 .L0 
C:\Users\stapi\AppData\Local\Temp\ccG4Q18Z.s:859    .text.awss_cmp_local_deinit:0000000000000012 .L0 
C:\Users\stapi\AppData\Local\Temp\ccG4Q18Z.s:860    .text.awss_cmp_local_deinit:0000000000000012 .L0 
C:\Users\stapi\AppData\Local\Temp\ccG4Q18Z.s:863    .text.awss_cmp_local_deinit:0000000000000014 .L0 
C:\Users\stapi\AppData\Local\Temp\ccG4Q18Z.s:866    .text.awss_cmp_local_deinit:000000000000001c .L0 
C:\Users\stapi\AppData\Local\Temp\ccG4Q18Z.s:867    .text.awss_cmp_local_deinit:000000000000001c .L0 
C:\Users\stapi\AppData\Local\Temp\ccG4Q18Z.s:869    .text.awss_cmp_local_deinit:000000000000001e .L0 
C:\Users\stapi\AppData\Local\Temp\ccG4Q18Z.s:873    .text.awss_cmp_local_deinit:0000000000000026 .L0 
C:\Users\stapi\AppData\Local\Temp\ccG4Q18Z.s:875    .text.awss_cmp_local_deinit:0000000000000030 .L0 
C:\Users\stapi\AppData\Local\Temp\ccG4Q18Z.s:876    .text.awss_cmp_local_deinit:0000000000000030 .L0 
C:\Users\stapi\AppData\Local\Temp\ccG4Q18Z.s:877    .text.awss_cmp_local_deinit:0000000000000030 .L0 
C:\Users\stapi\AppData\Local\Temp\ccG4Q18Z.s:883    .text.awss_cmp_local_deinit:0000000000000034 .L0 
C:\Users\stapi\AppData\Local\Temp\ccG4Q18Z.s:914    .rodata.awss_local_couple:0000000000000000 awss_local_couple
C:\Users\stapi\AppData\Local\Temp\ccG4Q18Z.s:911    .rodata.awss_local_couple:0000000000000000 .LANCHOR1
C:\Users\stapi\AppData\Local\Temp\ccG4Q18Z.s:938    .sbss.g_coap_ctx:0000000000000000 .LANCHOR0
C:\Users\stapi\AppData\Local\Temp\ccG4Q18Z.s:941    .sbss.g_coap_ctx:0000000000000000 g_coap_ctx
C:\Users\stapi\AppData\Local\Temp\ccG4Q18Z.s:66     .text.os_zalloc:0000000000000030 .L0 
C:\Users\stapi\AppData\Local\Temp\ccG4Q18Z.s:159    .text.awss_release_coap_ctx:000000000000004a .L0 
C:\Users\stapi\AppData\Local\Temp\ccG4Q18Z.s:315    .text.awss_cpy_coap_ctx:00000000000000a6 .L0 
C:\Users\stapi\AppData\Local\Temp\ccG4Q18Z.s:344    .text.awss_cmp_get_coap_code:000000000000000e .L0 
C:\Users\stapi\AppData\Local\Temp\ccG4Q18Z.s:376    .text.awss_cmp_get_coap_payload:000000000000000e .L0 
C:\Users\stapi\AppData\Local\Temp\ccG4Q18Z.s:452    .text.awss_cmp_coap_register_cb:0000000000000050 .L0 
C:\Users\stapi\AppData\Local\Temp\ccG4Q18Z.s:483    .text.awss_cmp_coap_cancel_packet:000000000000001a .L0 
C:\Users\stapi\AppData\Local\Temp\ccG4Q18Z.s:561    .text.awss_cmp_coap_send:000000000000005a .L0 
C:\Users\stapi\AppData\Local\Temp\ccG4Q18Z.s:641    .text.awss_cmp_coap_send_resp:0000000000000058 .L0 
C:\Users\stapi\AppData\Local\Temp\ccG4Q18Z.s:703    .text.awss_cmp_coap_ob_send:000000000000004a .L0 
C:\Users\stapi\AppData\Local\Temp\ccG4Q18Z.s:739    .text.awss_cmp_coap_deinit:000000000000002c .L0 
C:\Users\stapi\AppData\Local\Temp\ccG4Q18Z.s:842    .text.awss_cmp_local_init:0000000000000078 .L0 
C:\Users\stapi\AppData\Local\Temp\ccG4Q18Z.s:887    .text.awss_cmp_local_deinit:0000000000000034 .L0 
                     .debug_frame:0000000000000000 .L0 
C:\Users\stapi\AppData\Local\Temp\ccG4Q18Z.s:53     .text.os_zalloc:0000000000000024 .L1
C:\Users\stapi\AppData\Local\Temp\ccG4Q18Z.s:152    .text.awss_release_coap_ctx:0000000000000046 .L25
C:\Users\stapi\AppData\Local\Temp\ccG4Q18Z.s:116    .text.awss_release_coap_ctx:0000000000000026 .L9
C:\Users\stapi\AppData\Local\Temp\ccG4Q18Z.s:106    .text.awss_release_coap_ctx:000000000000001c .L10
C:\Users\stapi\AppData\Local\Temp\ccG4Q18Z.s:132    .text.awss_release_coap_ctx:0000000000000032 .L11
C:\Users\stapi\AppData\Local\Temp\ccG4Q18Z.s:300    .text.awss_cpy_coap_ctx:0000000000000098 .L29
C:\Users\stapi\AppData\Local\Temp\ccG4Q18Z.s:262    .text.awss_cpy_coap_ctx:000000000000006e .L30
C:\Users\stapi\AppData\Local\Temp\ccG4Q18Z.s:285    .text.awss_cpy_coap_ctx:000000000000008c .L28
C:\Users\stapi\AppData\Local\Temp\ccG4Q18Z.s:335    .text.awss_cmp_get_coap_code:0000000000000008 .L50
C:\Users\stapi\AppData\Local\Temp\ccG4Q18Z.s:370    .text.awss_cmp_get_coap_payload:000000000000000c .L52
C:\Users\stapi\AppData\Local\Temp\ccG4Q18Z.s:365    .text.awss_cmp_get_coap_payload:000000000000000a .L53
C:\Users\stapi\AppData\Local\Temp\ccG4Q18Z.s:415    .text.awss_cmp_coap_register_cb:000000000000002a .L61
C:\Users\stapi\AppData\Local\Temp\ccG4Q18Z.s:434    .text.awss_cmp_coap_register_cb:0000000000000042 .L62
C:\Users\stapi\AppData\Local\Temp\ccG4Q18Z.s:440    .text.awss_cmp_coap_register_cb:0000000000000046 .L60
C:\Users\stapi\AppData\Local\Temp\ccG4Q18Z.s:475    .text.awss_cmp_coap_cancel_packet:0000000000000014 .L74
C:\Users\stapi\AppData\Local\Temp\ccG4Q18Z.s:550    .text.awss_cmp_coap_send:000000000000004c .L80
C:\Users\stapi\AppData\Local\Temp\ccG4Q18Z.s:525    .text.awss_cmp_coap_send:000000000000002c .L81
C:\Users\stapi\AppData\Local\Temp\ccG4Q18Z.s:611    .text.awss_cmp_coap_send_resp:0000000000000034 .L84
C:\Users\stapi\AppData\Local\Temp\ccG4Q18Z.s:683    .text.awss_cmp_coap_ob_send:0000000000000030 .L87
C:\Users\stapi\AppData\Local\Temp\ccG4Q18Z.s:725    .text.awss_cmp_coap_deinit:000000000000001e .L90
C:\Users\stapi\AppData\Local\Temp\ccG4Q18Z.s:741    .rodata.awss_cmp_local_init.str1.4:0000000000000000 .LC0
C:\Users\stapi\AppData\Local\Temp\ccG4Q18Z.s:820    .text.awss_cmp_local_init:0000000000000066 .L96
C:\Users\stapi\AppData\Local\Temp\ccG4Q18Z.s:780    .text.awss_cmp_local_init:000000000000001e .L97
C:\Users\stapi\AppData\Local\Temp\ccG4Q18Z.s:879    .text.awss_cmp_local_deinit:0000000000000030 .L114
C:\Users\stapi\AppData\Local\Temp\ccG4Q18Z.s:871    .text.awss_cmp_local_deinit:0000000000000026 .L108
C:\Users\stapi\AppData\Local\Temp\ccG4Q18Z.s:889    .rodata.str1.4:0000000000000000 .LC1
C:\Users\stapi\AppData\Local\Temp\ccG4Q18Z.s:892    .rodata.str1.4:0000000000000024 .LC2
C:\Users\stapi\AppData\Local\Temp\ccG4Q18Z.s:895    .rodata.str1.4:0000000000000048 .LC3
C:\Users\stapi\AppData\Local\Temp\ccG4Q18Z.s:898    .rodata.str1.4:0000000000000074 .LC4
C:\Users\stapi\AppData\Local\Temp\ccG4Q18Z.s:901    .rodata.str1.4:000000000000008c .LC5
C:\Users\stapi\AppData\Local\Temp\ccG4Q18Z.s:904    .rodata.str1.4:00000000000000b0 .LC6
C:\Users\stapi\AppData\Local\Temp\ccG4Q18Z.s:907    .rodata.str1.4:00000000000000c8 .LC7
C:\Users\stapi\AppData\Local\Temp\ccG4Q18Z.s:2691   .debug_abbrev:0000000000000000 .Ldebug_abbrev0
C:\Users\stapi\AppData\Local\Temp\ccG4Q18Z.s:4623   .debug_str:000000000000085e .LASF126
C:\Users\stapi\AppData\Local\Temp\ccG4Q18Z.s:4379   .debug_str:0000000000000031 .LASF127
C:\Users\stapi\AppData\Local\Temp\ccG4Q18Z.s:4475   .debug_str:00000000000003a0 .LASF128
C:\Users\stapi\AppData\Local\Temp\ccG4Q18Z.s:4327   .debug_ranges:0000000000000000 .Ldebug_ranges0
C:\Users\stapi\AppData\Local\Temp\ccG4Q18Z.s:4369   .debug_line:0000000000000000 .Ldebug_line0
C:\Users\stapi\AppData\Local\Temp\ccG4Q18Z.s:4413   .debug_str:00000000000001c3 .LASF0
C:\Users\stapi\AppData\Local\Temp\ccG4Q18Z.s:4375   .debug_str:0000000000000014 .LASF3
C:\Users\stapi\AppData\Local\Temp\ccG4Q18Z.s:4549   .debug_str:0000000000000661 .LASF1
C:\Users\stapi\AppData\Local\Temp\ccG4Q18Z.s:4551   .debug_str:000000000000066f .LASF2
C:\Users\stapi\AppData\Local\Temp\ccG4Q18Z.s:4589   .debug_str:0000000000000775 .LASF4
C:\Users\stapi\AppData\Local\Temp\ccG4Q18Z.s:4467   .debug_str:0000000000000350 .LASF5
C:\Users\stapi\AppData\Local\Temp\ccG4Q18Z.s:4419   .debug_str:00000000000001f5 .LASF6
C:\Users\stapi\AppData\Local\Temp\ccG4Q18Z.s:4437   .debug_str:000000000000027a .LASF7
C:\Users\stapi\AppData\Local\Temp\ccG4Q18Z.s:4459   .debug_str:0000000000000310 .LASF8
C:\Users\stapi\AppData\Local\Temp\ccG4Q18Z.s:4411   .debug_str:00000000000001b5 .LASF9
C:\Users\stapi\AppData\Local\Temp\ccG4Q18Z.s:4537   .debug_str:00000000000005fe .LASF10
C:\Users\stapi\AppData\Local\Temp\ccG4Q18Z.s:4389   .debug_str:0000000000000111 .LASF11
C:\Users\stapi\AppData\Local\Temp\ccG4Q18Z.s:4425   .debug_str:0000000000000219 .LASF12
C:\Users\stapi\AppData\Local\Temp\ccG4Q18Z.s:4583   .debug_str:000000000000075e .LASF13
C:\Users\stapi\AppData\Local\Temp\ccG4Q18Z.s:4617   .debug_str:0000000000000831 .LASF14
C:\Users\stapi\AppData\Local\Temp\ccG4Q18Z.s:4453   .debug_str:00000000000002ec .LASF15
C:\Users\stapi\AppData\Local\Temp\ccG4Q18Z.s:4575   .debug_str:0000000000000727 .LASF16
C:\Users\stapi\AppData\Local\Temp\ccG4Q18Z.s:4373   .debug_str:000000000000000b .LASF17
C:\Users\stapi\AppData\Local\Temp\ccG4Q18Z.s:4547   .debug_str:0000000000000651 .LASF67
C:\Users\stapi\AppData\Local\Temp\ccG4Q18Z.s:4393   .debug_str:000000000000012e .LASF18
C:\Users\stapi\AppData\Local\Temp\ccG4Q18Z.s:4477   .debug_str:0000000000000431 .LASF19
C:\Users\stapi\AppData\Local\Temp\ccG4Q18Z.s:4483   .debug_str:000000000000045a .LASF20
C:\Users\stapi\AppData\Local\Temp\ccG4Q18Z.s:4535   .debug_str:00000000000005ee .LASF21
C:\Users\stapi\AppData\Local\Temp\ccG4Q18Z.s:4441   .debug_str:000000000000028d .LASF22
C:\Users\stapi\AppData\Local\Temp\ccG4Q18Z.s:4415   .debug_str:00000000000001cf .LASF23
C:\Users\stapi\AppData\Local\Temp\ccG4Q18Z.s:4519   .debug_str:0000000000000575 .LASF24
C:\Users\stapi\AppData\Local\Temp\ccG4Q18Z.s:4563   .debug_str:00000000000006bf .LASF25
C:\Users\stapi\AppData\Local\Temp\ccG4Q18Z.s:4581   .debug_str:000000000000074c .LASF26
C:\Users\stapi\AppData\Local\Temp\ccG4Q18Z.s:4565   .debug_str:00000000000006cc .LASF27
C:\Users\stapi\AppData\Local\Temp\ccG4Q18Z.s:4561   .debug_str:00000000000006ab .LASF28
C:\Users\stapi\AppData\Local\Temp\ccG4Q18Z.s:4639   .debug_str:00000000000009a8 .LASF29
C:\Users\stapi\AppData\Local\Temp\ccG4Q18Z.s:4521   .debug_str:0000000000000586 .LASF30
C:\Users\stapi\AppData\Local\Temp\ccG4Q18Z.s:4399   .debug_str:000000000000014e .LASF31
C:\Users\stapi\AppData\Local\Temp\ccG4Q18Z.s:4567   .debug_str:00000000000006e0 .LASF32
C:\Users\stapi\AppData\Local\Temp\ccG4Q18Z.s:4613   .debug_str:0000000000000817 .LASF33
C:\Users\stapi\AppData\Local\Temp\ccG4Q18Z.s:4597   .debug_str:00000000000007a5 .LASF34
C:\Users\stapi\AppData\Local\Temp\ccG4Q18Z.s:4603   .debug_str:00000000000007c9 .LASF35
C:\Users\stapi\AppData\Local\Temp\ccG4Q18Z.s:4497   .debug_str:00000000000004d7 .LASF36
C:\Users\stapi\AppData\Local\Temp\ccG4Q18Z.s:4501   .debug_str:00000000000004f7 .LASF37
C:\Users\stapi\AppData\Local\Temp\ccG4Q18Z.s:4401   .debug_str:000000000000015f .LASF38
C:\Users\stapi\AppData\Local\Temp\ccG4Q18Z.s:4397   .debug_str:0000000000000145 .LASF39
C:\Users\stapi\AppData\Local\Temp\ccG4Q18Z.s:4491   .debug_str:00000000000004a1 .LASF40
C:\Users\stapi\AppData\Local\Temp\ccG4Q18Z.s:4487   .debug_str:000000000000047a .LASF41
C:\Users\stapi\AppData\Local\Temp\ccG4Q18Z.s:4621   .debug_str:000000000000084d .LASF42
C:\Users\stapi\AppData\Local\Temp\ccG4Q18Z.s:4605   .debug_str:00000000000007d9 .LASF43
C:\Users\stapi\AppData\Local\Temp\ccG4Q18Z.s:4417   .debug_str:00000000000001e0 .LASF44
C:\Users\stapi\AppData\Local\Temp\ccG4Q18Z.s:4461   .debug_str:0000000000000322 .LASF45
C:\Users\stapi\AppData\Local\Temp\ccG4Q18Z.s:4443   .debug_str:000000000000029e .LASF46
C:\Users\stapi\AppData\Local\Temp\ccG4Q18Z.s:4517   .debug_str:0000000000000561 .LASF47
C:\Users\stapi\AppData\Local\Temp\ccG4Q18Z.s:4555   .debug_str:0000000000000680 .LASF48
C:\Users\stapi\AppData\Local\Temp\ccG4Q18Z.s:4625   .debug_str:0000000000000945 .LASF49
C:\Users\stapi\AppData\Local\Temp\ccG4Q18Z.s:4463   .debug_str:0000000000000337 .LASF50
C:\Users\stapi\AppData\Local\Temp\ccG4Q18Z.s:4409   .debug_str:00000000000001a7 .LASF51
C:\Users\stapi\AppData\Local\Temp\ccG4Q18Z.s:4527   .debug_str:00000000000005a9 .LASF52
C:\Users\stapi\AppData\Local\Temp\ccG4Q18Z.s:4539   .debug_str:0000000000000609 .LASF53
C:\Users\stapi\AppData\Local\Temp\ccG4Q18Z.s:4485   .debug_str:0000000000000466 .LASF54
C:\Users\stapi\AppData\Local\Temp\ccG4Q18Z.s:4423   .debug_str:0000000000000204 .LASF55
C:\Users\stapi\AppData\Local\Temp\ccG4Q18Z.s:4385   .debug_str:00000000000000e9 .LASF56
C:\Users\stapi\AppData\Local\Temp\ccG4Q18Z.s:4403   .debug_str:0000000000000178 .LASF57
C:\Users\stapi\AppData\Local\Temp\ccG4Q18Z.s:4429   .debug_str:000000000000022d .LASF58
C:\Users\stapi\AppData\Local\Temp\ccG4Q18Z.s:4509   .debug_str:000000000000052a .LASF59
C:\Users\stapi\AppData\Local\Temp\ccG4Q18Z.s:4381   .debug_str:00000000000000d0 .LASF60
C:\Users\stapi\AppData\Local\Temp\ccG4Q18Z.s:4599   .debug_str:00000000000007b8 .LASF61
C:\Users\stapi\AppData\Local\Temp\ccG4Q18Z.s:4607   .debug_str:00000000000007e9 .LASF62
C:\Users\stapi\AppData\Local\Temp\ccG4Q18Z.s:4559   .debug_str:00000000000006a5 .LASF63
C:\Users\stapi\AppData\Local\Temp\ccG4Q18Z.s:4479   .debug_str:0000000000000436 .LASF64
C:\Users\stapi\AppData\Local\Temp\ccG4Q18Z.s:4451   .debug_str:00000000000002de .LASF65
C:\Users\stapi\AppData\Local\Temp\ccG4Q18Z.s:4515   .debug_str:0000000000000555 .LASF129
C:\Users\stapi\AppData\Local\Temp\ccG4Q18Z.s:4513   .debug_str:0000000000000549 .LASF66
C:\Users\stapi\AppData\Local\Temp\ccG4Q18Z.s:4641   .debug_str:00000000000009b9 .LASF68
C:\Users\stapi\AppData\Local\Temp\ccG4Q18Z.s:4391   .debug_str:0000000000000128 .LASF69
C:\Users\stapi\AppData\Local\Temp\ccG4Q18Z.s:4439   .debug_str:0000000000000285 .LASF70
C:\Users\stapi\AppData\Local\Temp\ccG4Q18Z.s:4585   .debug_str:0000000000000763 .LASF71
C:\Users\stapi\AppData\Local\Temp\ccG4Q18Z.s:4573   .debug_str:000000000000071e .LASF72
C:\Users\stapi\AppData\Local\Temp\ccG4Q18Z.s:4505   .debug_str:0000000000000513 .LASF73
C:\Users\stapi\AppData\Local\Temp\ccG4Q18Z.s:4523   .debug_str:0000000000000597 .LASF74
C:\Users\stapi\AppData\Local\Temp\ccG4Q18Z.s:4503   .debug_str:000000000000050b .LASF75
C:\Users\stapi\AppData\Local\Temp\ccG4Q18Z.s:4545   .debug_str:000000000000064c .LASF76
C:\Users\stapi\AppData\Local\Temp\ccG4Q18Z.s:4627   .debug_str:000000000000095a .LASF77
C:\Users\stapi\AppData\Local\Temp\ccG4Q18Z.s:4405   .debug_str:000000000000018b .LASF78
C:\Users\stapi\AppData\Local\Temp\ccG4Q18Z.s:4493   .debug_str:00000000000004aa .LASF79
C:\Users\stapi\AppData\Local\Temp\ccG4Q18Z.s:4377   .debug_str:000000000000001e .LASF80
C:\Users\stapi\AppData\Local\Temp\ccG4Q18Z.s:4435   .debug_str:0000000000000266 .LASF81
C:\Users\stapi\AppData\Local\Temp\ccG4Q18Z.s:4557   .debug_str:0000000000000694 .LASF82
C:\Users\stapi\AppData\Local\Temp\ccG4Q18Z.s:4383   .debug_str:00000000000000d5 .LASF83
C:\Users\stapi\AppData\Local\Temp\ccG4Q18Z.s:4529   .debug_str:00000000000005bc .LASF84
C:\Users\stapi\AppData\Local\Temp\ccG4Q18Z.s:4541   .debug_str:000000000000061e .LASF85
C:\Users\stapi\AppData\Local\Temp\ccG4Q18Z.s:4635   .debug_str:0000000000000982 .LASF86
C:\Users\stapi\AppData\Local\Temp\ccG4Q18Z.s:4633   .debug_str:0000000000000977 .LASF87
C:\Users\stapi\AppData\Local\Temp\ccG4Q18Z.s:4421   .debug_str:00000000000001fe .LASF88
C:\Users\stapi\AppData\Local\Temp\ccG4Q18Z.s:4431   .debug_str:000000000000023b .LASF89
C:\Users\stapi\AppData\Local\Temp\ccG4Q18Z.s:4601   .debug_str:00000000000007c1 .LASF90
C:\Users\stapi\AppData\Local\Temp\ccG4Q18Z.s:4579   .debug_str:0000000000000745 .LASF91
C:\Users\stapi\AppData\Local\Temp\ccG4Q18Z.s:4449   .debug_str:00000000000002d5 .LASF92
C:\Users\stapi\AppData\Local\Temp\ccG4Q18Z.s:4371   .debug_str:0000000000000000 .LASF96
C:\Users\stapi\AppData\Local\Temp\ccG4Q18Z.s:4395   .debug_str:0000000000000133 .LASF130
C:\Users\stapi\AppData\Local\Temp\ccG4Q18Z.s:4481   .debug_str:0000000000000444 .LASF93
C:\Users\stapi\AppData\Local\Temp\ccG4Q18Z.s:847    .text.awss_cmp_local_deinit:0000000000000000 .LFB59
C:\Users\stapi\AppData\Local\Temp\ccG4Q18Z.s:884    .text.awss_cmp_local_deinit:0000000000000034 .LFE59
C:\Users\stapi\AppData\Local\Temp\ccG4Q18Z.s:4631   .debug_str:0000000000000971 .LASF95
C:\Users\stapi\AppData\Local\Temp\ccG4Q18Z.s:3595   .debug_loc:0000000000000000 .LLST50
C:\Users\stapi\AppData\Local\Temp\ccG4Q18Z.s:864    .text.awss_cmp_local_deinit:000000000000001c .LVL80
C:\Users\stapi\AppData\Local\Temp\ccG4Q18Z.s:870    .text.awss_cmp_local_deinit:0000000000000026 .LVL81
C:\Users\stapi\AppData\Local\Temp\ccG4Q18Z.s:4471   .debug_str:0000000000000377 .LASF94
C:\Users\stapi\AppData\Local\Temp\ccG4Q18Z.s:748    .text.awss_cmp_local_init:0000000000000000 .LFB58
C:\Users\stapi\AppData\Local\Temp\ccG4Q18Z.s:840    .text.awss_cmp_local_init:0000000000000078 .LFE58
C:\Users\stapi\AppData\Local\Temp\ccG4Q18Z.s:3617   .debug_loc:0000000000000037 .LLST46
C:\Users\stapi\AppData\Local\Temp\ccG4Q18Z.s:3628   .debug_loc:0000000000000055 .LLST47
C:\Users\stapi\AppData\Local\Temp\ccG4Q18Z.s:4595   .debug_str:0000000000000798 .LASF97
C:\Users\stapi\AppData\Local\Temp\ccG4Q18Z.s:3650   .debug_loc:000000000000008d .LLST48
C:\Users\stapi\AppData\Local\Temp\ccG4Q18Z.s:3666   .debug_loc:00000000000000b7 .LLST49
C:\Users\stapi\AppData\Local\Temp\ccG4Q18Z.s:792    .text.awss_cmp_local_init:0000000000000034 .LVL72
C:\Users\stapi\AppData\Local\Temp\ccG4Q18Z.s:798    .text.awss_cmp_local_init:0000000000000044 .LVL73
C:\Users\stapi\AppData\Local\Temp\ccG4Q18Z.s:804    .text.awss_cmp_local_init:0000000000000050 .LVL74
C:\Users\stapi\AppData\Local\Temp\ccG4Q18Z.s:815    .text.awss_cmp_local_init:0000000000000062 .LVL77
C:\Users\stapi\AppData\Local\Temp\ccG4Q18Z.s:4643   .debug_str:00000000000009c0 .LASF131
C:\Users\stapi\AppData\Local\Temp\ccG4Q18Z.s:708    .text.awss_cmp_coap_deinit:0000000000000000 .LFB57
C:\Users\stapi\AppData\Local\Temp\ccG4Q18Z.s:737    .text.awss_cmp_coap_deinit:000000000000002c .LFE57
C:\Users\stapi\AppData\Local\Temp\ccG4Q18Z.s:724    .text.awss_cmp_coap_deinit:000000000000001e .LVL68
C:\Users\stapi\AppData\Local\Temp\ccG4Q18Z.s:4637   .debug_str:0000000000000992 .LASF98
C:\Users\stapi\AppData\Local\Temp\ccG4Q18Z.s:646    .text.awss_cmp_coap_ob_send:0000000000000000 .LFB56
C:\Users\stapi\AppData\Local\Temp\ccG4Q18Z.s:701    .text.awss_cmp_coap_ob_send:000000000000004a .LFE56
C:\Users\stapi\AppData\Local\Temp\ccG4Q18Z.s:3674   .debug_loc:00000000000000cb .LLST41
C:\Users\stapi\AppData\Local\Temp\ccG4Q18Z.s:3693   .debug_loc:00000000000000f8 .LLST42
C:\Users\stapi\AppData\Local\Temp\ccG4Q18Z.s:3704   .debug_loc:0000000000000116 .LLST43
C:\Users\stapi\AppData\Local\Temp\ccG4Q18Z.s:3718   .debug_loc:0000000000000137 .LLST44
C:\Users\stapi\AppData\Local\Temp\ccG4Q18Z.s:3729   .debug_loc:0000000000000155 .LLST45
C:\Users\stapi\AppData\Local\Temp\ccG4Q18Z.s:677    .text.awss_cmp_coap_ob_send:000000000000002a .LVL65
C:\Users\stapi\AppData\Local\Temp\ccG4Q18Z.s:690    .text.awss_cmp_coap_ob_send:0000000000000040 .LVL67
C:\Users\stapi\AppData\Local\Temp\ccG4Q18Z.s:4433   .debug_str:000000000000024e .LASF99
C:\Users\stapi\AppData\Local\Temp\ccG4Q18Z.s:566    .text.awss_cmp_coap_send_resp:0000000000000000 .LFB55
C:\Users\stapi\AppData\Local\Temp\ccG4Q18Z.s:639    .text.awss_cmp_coap_send_resp:0000000000000058 .LFE55
C:\Users\stapi\AppData\Local\Temp\ccG4Q18Z.s:3748   .debug_loc:0000000000000182 .LLST33
C:\Users\stapi\AppData\Local\Temp\ccG4Q18Z.s:3759   .debug_loc:00000000000001a0 .LLST34
C:\Users\stapi\AppData\Local\Temp\ccG4Q18Z.s:3770   .debug_loc:00000000000001be .LLST35
C:\Users\stapi\AppData\Local\Temp\ccG4Q18Z.s:3781   .debug_loc:00000000000001dc .LLST36
C:\Users\stapi\AppData\Local\Temp\ccG4Q18Z.s:3792   .debug_loc:00000000000001fa .LLST37
C:\Users\stapi\AppData\Local\Temp\ccG4Q18Z.s:3811   .debug_loc:0000000000000227 .LLST38
C:\Users\stapi\AppData\Local\Temp\ccG4Q18Z.s:3822   .debug_loc:0000000000000245 .LLST39
C:\Users\stapi\AppData\Local\Temp\ccG4Q18Z.s:3833   .debug_loc:0000000000000263 .LLST40
C:\Users\stapi\AppData\Local\Temp\ccG4Q18Z.s:606    .text.awss_cmp_coap_send_resp:0000000000000030 .LVL60
C:\Users\stapi\AppData\Local\Temp\ccG4Q18Z.s:623    .text.awss_cmp_coap_send_resp:000000000000004e .LVL62
C:\Users\stapi\AppData\Local\Temp\ccG4Q18Z.s:4611   .debug_str:0000000000000804 .LASF100
C:\Users\stapi\AppData\Local\Temp\ccG4Q18Z.s:488    .text.awss_cmp_coap_send:0000000000000000 .LFB54
C:\Users\stapi\AppData\Local\Temp\ccG4Q18Z.s:559    .text.awss_cmp_coap_send:000000000000005a .LFE54
C:\Users\stapi\AppData\Local\Temp\ccG4Q18Z.s:3847   .debug_loc:0000000000000284 .LLST27
C:\Users\stapi\AppData\Local\Temp\ccG4Q18Z.s:3858   .debug_loc:00000000000002a2 .LLST28
C:\Users\stapi\AppData\Local\Temp\ccG4Q18Z.s:3877   .debug_loc:00000000000002d6 .LLST29
C:\Users\stapi\AppData\Local\Temp\ccG4Q18Z.s:3896   .debug_loc:000000000000030a .LLST30
C:\Users\stapi\AppData\Local\Temp\ccG4Q18Z.s:3915   .debug_loc:000000000000033e .LLST31
C:\Users\stapi\AppData\Local\Temp\ccG4Q18Z.s:3934   .debug_loc:0000000000000372 .LLST32
C:\Users\stapi\AppData\Local\Temp\ccG4Q18Z.s:522    .text.awss_cmp_coap_send:000000000000002a .LVL53
C:\Users\stapi\AppData\Local\Temp\ccG4Q18Z.s:536    .text.awss_cmp_coap_send:0000000000000044 .LVL54
C:\Users\stapi\AppData\Local\Temp\ccG4Q18Z.s:556    .text.awss_cmp_coap_send:0000000000000058 .LVL57
C:\Users\stapi\AppData\Local\Temp\ccG4Q18Z.s:4543   .debug_str:0000000000000630 .LASF101
C:\Users\stapi\AppData\Local\Temp\ccG4Q18Z.s:457    .text.awss_cmp_coap_cancel_packet:0000000000000000 .LFB53
C:\Users\stapi\AppData\Local\Temp\ccG4Q18Z.s:481    .text.awss_cmp_coap_cancel_packet:000000000000001a .LFE53
C:\Users\stapi\AppData\Local\Temp\ccG4Q18Z.s:3945   .debug_loc:0000000000000390 .LLST26
C:\Users\stapi\AppData\Local\Temp\ccG4Q18Z.s:474    .text.awss_cmp_coap_cancel_packet:0000000000000014 .LVL50
C:\Users\stapi\AppData\Local\Temp\ccG4Q18Z.s:4445   .debug_str:00000000000002b3 .LASF102
C:\Users\stapi\AppData\Local\Temp\ccG4Q18Z.s:381    .text.awss_cmp_coap_register_cb:0000000000000000 .LFB52
C:\Users\stapi\AppData\Local\Temp\ccG4Q18Z.s:450    .text.awss_cmp_coap_register_cb:0000000000000050 .LFE52
C:\Users\stapi\AppData\Local\Temp\ccG4Q18Z.s:3959   .debug_loc:00000000000003b1 .LLST23
C:\Users\stapi\AppData\Local\Temp\ccG4Q18Z.s:3970   .debug_loc:00000000000003cf .LLST24
C:\Users\stapi\AppData\Local\Temp\ccG4Q18Z.s:3989   .debug_loc:00000000000003fc .LLST25
C:\Users\stapi\AppData\Local\Temp\ccG4Q18Z.s:410    .text.awss_cmp_coap_register_cb:0000000000000026 .LVL43
C:\Users\stapi\AppData\Local\Temp\ccG4Q18Z.s:431    .text.awss_cmp_coap_register_cb:0000000000000040 .LVL45
C:\Users\stapi\AppData\Local\Temp\ccG4Q18Z.s:4495   .debug_str:00000000000004bd .LASF132
C:\Users\stapi\AppData\Local\Temp\ccG4Q18Z.s:4507   .debug_str:000000000000051e .LASF103
C:\Users\stapi\AppData\Local\Temp\ccG4Q18Z.s:4511   .debug_str:0000000000000532 .LASF104
C:\Users\stapi\AppData\Local\Temp\ccG4Q18Z.s:320    .text.awss_cmp_get_coap_code:0000000000000000 .LFB50
C:\Users\stapi\AppData\Local\Temp\ccG4Q18Z.s:342    .text.awss_cmp_get_coap_code:000000000000000e .LFE50
C:\Users\stapi\AppData\Local\Temp\ccG4Q18Z.s:4003   .debug_loc:000000000000041e .LLST19
C:\Users\stapi\AppData\Local\Temp\ccG4Q18Z.s:4028   .debug_loc:0000000000000458 .LLST20
C:\Users\stapi\AppData\Local\Temp\ccG4Q18Z.s:4629   .debug_str:000000000000095f .LASF105
C:\Users\stapi\AppData\Local\Temp\ccG4Q18Z.s:164    .text.awss_cpy_coap_ctx:0000000000000000 .LFB49
C:\Users\stapi\AppData\Local\Temp\ccG4Q18Z.s:313    .text.awss_cpy_coap_ctx:00000000000000a6 .LFE49
C:\Users\stapi\AppData\Local\Temp\ccG4Q18Z.s:4042   .debug_loc:0000000000000479 .LLST9
C:\Users\stapi\AppData\Local\Temp\ccG4Q18Z.s:4053   .debug_loc:0000000000000497 .LLST10
C:\Users\stapi\AppData\Local\Temp\ccG4Q18Z.s:4615   .debug_str:000000000000082b .LASF106
C:\Users\stapi\AppData\Local\Temp\ccG4Q18Z.s:4064   .debug_loc:00000000000004b5 .LLST11
C:\Users\stapi\AppData\Local\Temp\ccG4Q18Z.s:4078   .debug_loc:00000000000004d6 .LLST12
C:\Users\stapi\AppData\Local\Temp\ccG4Q18Z.s:4591   .debug_str:0000000000000780 .LASF133
C:\Users\stapi\AppData\Local\Temp\ccG4Q18Z.s:302    .text.awss_cpy_coap_ctx:0000000000000098 .LDL1
C:\Users\stapi\AppData\Local\Temp\ccG4Q18Z.s:212    .text.awss_cpy_coap_ctx:000000000000003c .LBB29
C:\Users\stapi\AppData\Local\Temp\ccG4Q18Z.s:263    .text.awss_cpy_coap_ctx:000000000000006e .LBE29
C:\Users\stapi\AppData\Local\Temp\ccG4Q18Z.s:4089   .debug_loc:00000000000004f4 .LLST13
C:\Users\stapi\AppData\Local\Temp\ccG4Q18Z.s:4106   .debug_loc:000000000000051f .LLST14
C:\Users\stapi\AppData\Local\Temp\ccG4Q18Z.s:4134   .debug_loc:0000000000000557 .LLST15
C:\Users\stapi\AppData\Local\Temp\ccG4Q18Z.s:216    .text.awss_cpy_coap_ctx:000000000000003c .LBB30
C:\Users\stapi\AppData\Local\Temp\ccG4Q18Z.s:4141   .debug_loc:000000000000056a .LLST16
C:\Users\stapi\AppData\Local\Temp\ccG4Q18Z.s:4150   .debug_loc:0000000000000582 .LLST17
C:\Users\stapi\AppData\Local\Temp\ccG4Q18Z.s:4157   .debug_loc:0000000000000595 .LLST18
C:\Users\stapi\AppData\Local\Temp\ccG4Q18Z.s:251    .text.awss_cpy_coap_ctx:000000000000005c .LVL25
C:\Users\stapi\AppData\Local\Temp\ccG4Q18Z.s:261    .text.awss_cpy_coap_ctx:000000000000006e .LVL26
C:\Users\stapi\AppData\Local\Temp\ccG4Q18Z.s:190    .text.awss_cpy_coap_ctx:000000000000001a .LVL19
C:\Users\stapi\AppData\Local\Temp\ccG4Q18Z.s:200    .text.awss_cpy_coap_ctx:000000000000002a .LVL21
C:\Users\stapi\AppData\Local\Temp\ccG4Q18Z.s:210    .text.awss_cpy_coap_ctx:000000000000003c .LVL22
C:\Users\stapi\AppData\Local\Temp\ccG4Q18Z.s:269    .text.awss_cpy_coap_ctx:0000000000000078 .LVL27
C:\Users\stapi\AppData\Local\Temp\ccG4Q18Z.s:279    .text.awss_cpy_coap_ctx:0000000000000088 .LVL28
C:\Users\stapi\AppData\Local\Temp\ccG4Q18Z.s:306    .text.awss_cpy_coap_ctx:00000000000000a2 .LVL31
C:\Users\stapi\AppData\Local\Temp\ccG4Q18Z.s:4609   .debug_str:00000000000007ee .LASF107
C:\Users\stapi\AppData\Local\Temp\ccG4Q18Z.s:71     .text.awss_release_coap_ctx:0000000000000000 .LFB48
C:\Users\stapi\AppData\Local\Temp\ccG4Q18Z.s:157    .text.awss_release_coap_ctx:000000000000004a .LFE48
C:\Users\stapi\AppData\Local\Temp\ccG4Q18Z.s:4531   .debug_str:00000000000005cd .LASF108
C:\Users\stapi\AppData\Local\Temp\ccG4Q18Z.s:4164   .debug_loc:00000000000005a8 .LLST2
C:\Users\stapi\AppData\Local\Temp\ccG4Q18Z.s:4186   .debug_loc:00000000000005df .LLST3
C:\Users\stapi\AppData\Local\Temp\ccG4Q18Z.s:91     .text.awss_release_coap_ctx:0000000000000010 .LBB20
C:\Users\stapi\AppData\Local\Temp\ccG4Q18Z.s:119    .text.awss_release_coap_ctx:0000000000000026 .LBE20
C:\Users\stapi\AppData\Local\Temp\ccG4Q18Z.s:4208   .debug_loc:0000000000000616 .LLST4
C:\Users\stapi\AppData\Local\Temp\ccG4Q18Z.s:101    .text.awss_release_coap_ctx:0000000000000014 .LBB21
C:\Users\stapi\AppData\Local\Temp\ccG4Q18Z.s:108    .text.awss_release_coap_ctx:000000000000001c .LBE21
C:\Users\stapi\AppData\Local\Temp\ccG4Q18Z.s:4215   .debug_loc:0000000000000629 .LLST5
C:\Users\stapi\AppData\Local\Temp\ccG4Q18Z.s:105    .text.awss_release_coap_ctx:000000000000001c .LVL10
C:\Users\stapi\AppData\Local\Temp\ccG4Q18Z.s:110    .text.awss_release_coap_ctx:000000000000001c .LBB23
C:\Users\stapi\AppData\Local\Temp\ccG4Q18Z.s:118    .text.awss_release_coap_ctx:0000000000000026 .LBE23
C:\Users\stapi\AppData\Local\Temp\ccG4Q18Z.s:4222   .debug_loc:000000000000063c .LLST6
C:\Users\stapi\AppData\Local\Temp\ccG4Q18Z.s:115    .text.awss_release_coap_ctx:0000000000000026 .LVL11
C:\Users\stapi\AppData\Local\Temp\ccG4Q18Z.s:127    .text.awss_release_coap_ctx:000000000000002a .LBB25
C:\Users\stapi\AppData\Local\Temp\ccG4Q18Z.s:134    .text.awss_release_coap_ctx:0000000000000032 .LBE25
C:\Users\stapi\AppData\Local\Temp\ccG4Q18Z.s:4230   .debug_loc:0000000000000650 .LLST7
C:\Users\stapi\AppData\Local\Temp\ccG4Q18Z.s:131    .text.awss_release_coap_ctx:0000000000000032 .LVL13
C:\Users\stapi\AppData\Local\Temp\ccG4Q18Z.s:136    .text.awss_release_coap_ctx:0000000000000032 .LBB27
C:\Users\stapi\AppData\Local\Temp\ccG4Q18Z.s:143    .text.awss_release_coap_ctx:000000000000003c .LBE27
C:\Users\stapi\AppData\Local\Temp\ccG4Q18Z.s:4237   .debug_loc:0000000000000663 .LLST8
C:\Users\stapi\AppData\Local\Temp\ccG4Q18Z.s:141    .text.awss_release_coap_ctx:000000000000003c .LVL14
C:\Users\stapi\AppData\Local\Temp\ccG4Q18Z.s:4455   .debug_str:00000000000002f5 .LASF134
C:\Users\stapi\AppData\Local\Temp\ccG4Q18Z.s:13     .text.os_zalloc:0000000000000000 .LFB18
C:\Users\stapi\AppData\Local\Temp\ccG4Q18Z.s:64     .text.os_zalloc:0000000000000030 .LFE18
C:\Users\stapi\AppData\Local\Temp\ccG4Q18Z.s:4465   .debug_str:000000000000034b .LASF109
C:\Users\stapi\AppData\Local\Temp\ccG4Q18Z.s:4244   .debug_loc:0000000000000676 .LLST0
C:\Users\stapi\AppData\Local\Temp\ccG4Q18Z.s:27     .text.os_zalloc:000000000000000a .LBB16
C:\Users\stapi\AppData\Local\Temp\ccG4Q18Z.s:4261   .debug_loc:00000000000006a1 .LLST1
C:\Users\stapi\AppData\Local\Temp\ccG4Q18Z.s:39     .text.os_zalloc:0000000000000014 .LVL3
C:\Users\stapi\AppData\Local\Temp\ccG4Q18Z.s:51     .text.os_zalloc:0000000000000024 .LVL5
C:\Users\stapi\AppData\Local\Temp\ccG4Q18Z.s:4447   .debug_str:00000000000002cd .LASF135
C:\Users\stapi\AppData\Local\Temp\ccG4Q18Z.s:4525   .debug_str:000000000000059f .LASF136
C:\Users\stapi\AppData\Local\Temp\ccG4Q18Z.s:349    .text.awss_cmp_get_coap_payload:0000000000000000 .LFB51
C:\Users\stapi\AppData\Local\Temp\ccG4Q18Z.s:374    .text.awss_cmp_get_coap_payload:000000000000000e .LFE51
C:\Users\stapi\AppData\Local\Temp\ccG4Q18Z.s:4269   .debug_loc:00000000000006b5 .LLST21
C:\Users\stapi\AppData\Local\Temp\ccG4Q18Z.s:4283   .debug_loc:00000000000006d6 .LLST22
C:\Users\stapi\AppData\Local\Temp\ccG4Q18Z.s:4473   .debug_str:000000000000038b .LASF110
C:\Users\stapi\AppData\Local\Temp\ccG4Q18Z.s:4553   .debug_str:0000000000000679 .LASF120
C:\Users\stapi\AppData\Local\Temp\ccG4Q18Z.s:4387   .debug_str:0000000000000100 .LASF122
C:\Users\stapi\AppData\Local\Temp\ccG4Q18Z.s:4569   .debug_str:00000000000006f8 .LASF111
C:\Users\stapi\AppData\Local\Temp\ccG4Q18Z.s:4457   .debug_str:00000000000002ff .LASF112
C:\Users\stapi\AppData\Local\Temp\ccG4Q18Z.s:4407   .debug_str:0000000000000195 .LASF113
C:\Users\stapi\AppData\Local\Temp\ccG4Q18Z.s:4499   .debug_str:00000000000004e7 .LASF114
C:\Users\stapi\AppData\Local\Temp\ccG4Q18Z.s:4571   .debug_str:0000000000000709 .LASF115
C:\Users\stapi\AppData\Local\Temp\ccG4Q18Z.s:4469   .debug_str:0000000000000363 .LASF116
C:\Users\stapi\AppData\Local\Temp\ccG4Q18Z.s:4533   .debug_str:00000000000005d5 .LASF117
C:\Users\stapi\AppData\Local\Temp\ccG4Q18Z.s:4577   .debug_str:0000000000000730 .LASF118
C:\Users\stapi\AppData\Local\Temp\ccG4Q18Z.s:4619   .debug_str:0000000000000839 .LASF119
C:\Users\stapi\AppData\Local\Temp\ccG4Q18Z.s:4427   .debug_str:0000000000000226 .LASF121
C:\Users\stapi\AppData\Local\Temp\ccG4Q18Z.s:4489   .debug_str:0000000000000490 .LASF123
C:\Users\stapi\AppData\Local\Temp\ccG4Q18Z.s:4587   .debug_str:000000000000076c .LASF124
C:\Users\stapi\AppData\Local\Temp\ccG4Q18Z.s:4593   .debug_str:000000000000078d .LASF125
C:\Users\stapi\AppData\Local\Temp\ccG4Q18Z.s:850    .text.awss_cmp_local_deinit:0000000000000000 .LVL79
C:\Users\stapi\AppData\Local\Temp\ccG4Q18Z.s:878    .text.awss_cmp_local_deinit:0000000000000030 .LVL82
C:\Users\stapi\AppData\Local\Temp\ccG4Q18Z.s:881    .text.awss_cmp_local_deinit:0000000000000032 .LVL83
C:\Users\stapi\AppData\Local\Temp\ccG4Q18Z.s:751    .text.awss_cmp_local_init:0000000000000000 .LVL69
C:\Users\stapi\AppData\Local\Temp\ccG4Q18Z.s:779    .text.awss_cmp_local_init:000000000000001e .LVL71
C:\Users\stapi\AppData\Local\Temp\ccG4Q18Z.s:761    .text.awss_cmp_local_init:0000000000000008 .LVL70
C:\Users\stapi\AppData\Local\Temp\ccG4Q18Z.s:819    .text.awss_cmp_local_init:0000000000000066 .LVL78
C:\Users\stapi\AppData\Local\Temp\ccG4Q18Z.s:806    .text.awss_cmp_local_init:0000000000000052 .LVL75
C:\Users\stapi\AppData\Local\Temp\ccG4Q18Z.s:813    .text.awss_cmp_local_init:000000000000005a .LVL76
C:\Users\stapi\AppData\Local\Temp\ccG4Q18Z.s:649    .text.awss_cmp_coap_ob_send:0000000000000000 .LVL63
C:\Users\stapi\AppData\Local\Temp\ccG4Q18Z.s:682    .text.awss_cmp_coap_ob_send:0000000000000030 .LVL66
C:\Users\stapi\AppData\Local\Temp\ccG4Q18Z.s:666    .text.awss_cmp_coap_ob_send:0000000000000014 .LVL64
C:\Users\stapi\AppData\Local\Temp\ccG4Q18Z.s:569    .text.awss_cmp_coap_send_resp:0000000000000000 .LVL58
C:\Users\stapi\AppData\Local\Temp\ccG4Q18Z.s:610    .text.awss_cmp_coap_send_resp:0000000000000034 .LVL61
C:\Users\stapi\AppData\Local\Temp\ccG4Q18Z.s:588    .text.awss_cmp_coap_send_resp:0000000000000012 .LVL59
C:\Users\stapi\AppData\Local\Temp\ccG4Q18Z.s:491    .text.awss_cmp_coap_send:0000000000000000 .LVL51
C:\Users\stapi\AppData\Local\Temp\ccG4Q18Z.s:509    .text.awss_cmp_coap_send:0000000000000012 .LVL52
C:\Users\stapi\AppData\Local\Temp\ccG4Q18Z.s:549    .text.awss_cmp_coap_send:000000000000004c .LVL55
C:\Users\stapi\AppData\Local\Temp\ccG4Q18Z.s:554    .text.awss_cmp_coap_send:0000000000000050 .LVL56
C:\Users\stapi\AppData\Local\Temp\ccG4Q18Z.s:460    .text.awss_cmp_coap_cancel_packet:0000000000000000 .LVL48
C:\Users\stapi\AppData\Local\Temp\ccG4Q18Z.s:468    .text.awss_cmp_coap_cancel_packet:000000000000000a .LVL49
C:\Users\stapi\AppData\Local\Temp\ccG4Q18Z.s:384    .text.awss_cmp_coap_register_cb:0000000000000000 .LVL41
C:\Users\stapi\AppData\Local\Temp\ccG4Q18Z.s:414    .text.awss_cmp_coap_register_cb:000000000000002a .LVL44
C:\Users\stapi\AppData\Local\Temp\ccG4Q18Z.s:391    .text.awss_cmp_coap_register_cb:0000000000000008 .LVL42
C:\Users\stapi\AppData\Local\Temp\ccG4Q18Z.s:436    .text.awss_cmp_coap_register_cb:0000000000000042 .LVL46
C:\Users\stapi\AppData\Local\Temp\ccG4Q18Z.s:439    .text.awss_cmp_coap_register_cb:0000000000000046 .LVL47
C:\Users\stapi\AppData\Local\Temp\ccG4Q18Z.s:323    .text.awss_cmp_get_coap_code:0000000000000000 .LVL33
C:\Users\stapi\AppData\Local\Temp\ccG4Q18Z.s:332    .text.awss_cmp_get_coap_code:0000000000000006 .LVL35
C:\Users\stapi\AppData\Local\Temp\ccG4Q18Z.s:334    .text.awss_cmp_get_coap_code:0000000000000008 .LVL36
C:\Users\stapi\AppData\Local\Temp\ccG4Q18Z.s:338    .text.awss_cmp_get_coap_code:000000000000000c .LVL37
C:\Users\stapi\AppData\Local\Temp\ccG4Q18Z.s:328    .text.awss_cmp_get_coap_code:0000000000000002 .LVL34
C:\Users\stapi\AppData\Local\Temp\ccG4Q18Z.s:167    .text.awss_cpy_coap_ctx:0000000000000000 .LVL17
C:\Users\stapi\AppData\Local\Temp\ccG4Q18Z.s:184    .text.awss_cpy_coap_ctx:000000000000000e .LVL18
C:\Users\stapi\AppData\Local\Temp\ccG4Q18Z.s:192    .text.awss_cpy_coap_ctx:000000000000001c .LVL20
C:\Users\stapi\AppData\Local\Temp\ccG4Q18Z.s:284    .text.awss_cpy_coap_ctx:000000000000008c .LVL29
C:\Users\stapi\AppData\Local\Temp\ccG4Q18Z.s:299    .text.awss_cpy_coap_ctx:0000000000000098 .LVL30
C:\Users\stapi\AppData\Local\Temp\ccG4Q18Z.s:310    .text.awss_cpy_coap_ctx:00000000000000a4 .LVL32
C:\Users\stapi\AppData\Local\Temp\ccG4Q18Z.s:234    .text.awss_cpy_coap_ctx:0000000000000046 .LVL24
C:\Users\stapi\AppData\Local\Temp\ccG4Q18Z.s:224    .text.awss_cpy_coap_ctx:0000000000000042 .LVL23
C:\Users\stapi\AppData\Local\Temp\ccG4Q18Z.s:956    .debug_info:0000000000000000 .Ldebug_info0
C:\Users\stapi\AppData\Local\Temp\ccG4Q18Z.s:75     .text.awss_release_coap_ctx:0000000000000000 .LVL7
C:\Users\stapi\AppData\Local\Temp\ccG4Q18Z.s:95     .text.awss_release_coap_ctx:0000000000000012 .LVL8
C:\Users\stapi\AppData\Local\Temp\ccG4Q18Z.s:151    .text.awss_release_coap_ctx:0000000000000046 .LVL15
C:\Users\stapi\AppData\Local\Temp\ccG4Q18Z.s:154    .text.awss_release_coap_ctx:0000000000000048 .LVL16
C:\Users\stapi\AppData\Local\Temp\ccG4Q18Z.s:100    .text.awss_release_coap_ctx:0000000000000014 .LVL9
C:\Users\stapi\AppData\Local\Temp\ccG4Q18Z.s:126    .text.awss_release_coap_ctx:000000000000002a .LVL12
C:\Users\stapi\AppData\Local\Temp\ccG4Q18Z.s:17     .text.os_zalloc:0000000000000000 .LVL0
C:\Users\stapi\AppData\Local\Temp\ccG4Q18Z.s:58     .text.os_zalloc:0000000000000028 .LVL6
C:\Users\stapi\AppData\Local\Temp\ccG4Q18Z.s:26     .text.os_zalloc:000000000000000a .LVL1
C:\Users\stapi\AppData\Local\Temp\ccG4Q18Z.s:34     .text.os_zalloc:000000000000000c .LVL2
C:\Users\stapi\AppData\Local\Temp\ccG4Q18Z.s:352    .text.awss_cmp_get_coap_payload:0000000000000000 .LVL38
C:\Users\stapi\AppData\Local\Temp\ccG4Q18Z.s:369    .text.awss_cmp_get_coap_payload:000000000000000c .LVL40
C:\Users\stapi\AppData\Local\Temp\ccG4Q18Z.s:357    .text.awss_cmp_get_coap_payload:0000000000000002 .LVL39
C:\Users\stapi\AppData\Local\Temp\ccG4Q18Z.s:31     .text.os_zalloc:000000000000000a .LBE16
C:\Users\stapi\AppData\Local\Temp\ccG4Q18Z.s:35     .text.os_zalloc:000000000000000c .LBB19
C:\Users\stapi\AppData\Local\Temp\ccG4Q18Z.s:43     .text.os_zalloc:0000000000000016 .LBE19
C:\Users\stapi\AppData\Local\Temp\ccG4Q18Z.s:221    .text.awss_cpy_coap_ctx:000000000000003e .LBE30
C:\Users\stapi\AppData\Local\Temp\ccG4Q18Z.s:226    .text.awss_cpy_coap_ctx:0000000000000042 .LBB33
C:\Users\stapi\AppData\Local\Temp\ccG4Q18Z.s:237    .text.awss_cpy_coap_ctx:0000000000000046 .LBE33

UNDEFINED SYMBOLS
__riscv_save_1
HAL_Malloc
memset
__riscv_restore_1
HAL_Free
__riscv_save_5
memcpy
__riscv_restore_5
__riscv_save_2
CoAPServer_init
CoAPServer_register
__riscv_restore_2
CoAPMessageId_cancel
__riscv_save_7
CoAPServerMultiCast_send
__riscv_restore_7
__riscv_save_8
CoAPServerResp_send
__riscv_restore_8
__riscv_save_3
CoAPObsServer_notify
__riscv_restore_3
CoAPServer_deinit
awss_build_topic
iotx_state_event
awss_suc_notify_stop
wifimgr_process_dev_ap_switchap_request
awss_process_mcast_get_connectap_info
awss_process_ucast_get_connectap_info
awss_registrar_enr_bind_monitor
online_mcast_get_device_info
online_ucast_get_device_info
