   1              		.file	"awss_bind_statis.c"
   2              		.option nopic
   3              		.attribute arch, "rv32i2p0_m2p0_a2p0_f2p0_c2p0_b_p0p94"
   4              		.attribute unaligned_access, 0
   5              		.attribute stack_align, 16
   6              		.text
   7              	.Ltext0:
   8              		.cfi_sections	.debug_frame
   9              		.section	.rodata.awss_bind_report_statis.str1.4,"aMS",@progbits,1
  10              		.align	2
  11              	.LC0:
  12 0000 64656661 		.string	"default"
  12      756C7400 
  13              		.align	2
  14              	.LC1:
  15 0008 73756363 		.string	"success"
  15      65737300 
  16              		.align	2
  17              	.LC2:
  18 0010 6661696C 		.string	"fail"
  18      00
  19 0015 000000   		.align	2
  20              	.LC3:
  21 0018 2F737973 		.string	"/sys/%s/%s/thing/log/post"
  21      2F25732F 
  21      25732F74 
  21      68696E67 
  21      2F6C6F67 
  22 0032 0000     		.align	2
  23              	.LC4:
  24 0034 5B657272 		.string	"[err] "
  24      5D2000
  25 003b 00       		.align	2
  26              	.LC5:
  27 003c 61777373 		.string	"awss build statis topic fail\n"
  27      20627569 
  27      6C642073 
  27      74617469 
  27      7320746F 
  28 005a 0000     		.align	2
  29              	.LC6:
  30 005c 0D0A00   		.string	"\r\n"
  31 005f 00       		.align	2
  32              	.LC7:
  33 0060 53796E63 		.string	"SyncToken"
  33      546F6B65 
  33      6E00
  34 006a 0000     		.align	2
  35              	.LC8:
  36 006c 5B257320 		.string	"[%s max:%u min:%u mean:%u cnt:%u suc:%u]"
  36      6D61783A 
  36      2575206D 
  36      696E3A25 
  36      75206D65 
  37 0095 000000   		.align	2
  38              	.LC9:
  39 0098 42494E44 		.string	"BIND_TRACE"
  39      5F545241 
  39      434500
  40 00a3 00       		.align	2
  41              	.LC10:
  42 00a4 7B227465 		.string	"{\"template\":\"timestamp logLevel module traceContext logContent\",\"contents\":[\"%u %s
  42      6D706C61 
  42      7465223A 
  42      2274696D 
  42      65737461 
  43 0103 00       		.align	2
  44              	.LC11:
  45 0104 257500   		.string	"%u"
  46 0107 00       		.align	2
  47              	.LC12:
  48 0108 7468696E 		.string	"things.log.post"
  48      67732E6C 
  48      6F672E70 
  48      6F737400 
  49              		.align	2
  50              	.LC13:
  51 0118 312E3000 		.string	"1.0"
  52              		.align	2
  53              	.LC14:
  54 011c 25730A00 		.string	"%s\n"
  55              		.align	2
  56              	.LC15:
  57 0120 61777373 		.string	"awss"
  57      00
  58 0125 000000   		.align	2
  59              	.LC16:
  60 0128 5B696E66 		.string	"[inf] "
  60      5D2000
  61 012f 00       		.align	2
  62              	.LC17:
  63 0130 62696E64 		.string	"bind report statis %s\n"
  63      20726570 
  63      6F727420 
  63      73746174 
  63      69732025 
  64              		.section	.text.awss_bind_report_statis,"ax",@progbits
  65              		.align	1
  66              		.globl	awss_bind_report_statis
  68              	awss_bind_report_statis:
  69              	.LFB48:
  70              		.file 1 "C:/Users/stapi/OneDrive/Desktop/GD32VW553/V1_MQTT_OK/GD32VW55X_Wifi_BLE_SDK/GD32VW55x_REL
   1:C:/Users/stapi/OneDrive/Desktop/GD32VW553/V1_MQTT_OK/GD32VW55X_Wifi_BLE_SDK/GD32VW55x_RELEASE_V1.0.2/MSDK/cloud/alicloud/src/services/dev_bind\awss_bind_statis.c **** /*
   2:C:/Users/stapi/OneDrive/Desktop/GD32VW553/V1_MQTT_OK/GD32VW55X_Wifi_BLE_SDK/GD32VW55x_RELEASE_V1.0.2/MSDK/cloud/alicloud/src/services/dev_bind\awss_bind_statis.c ****  * Copyright (C) 2015-2018 Alibaba Group Holding Limited
   3:C:/Users/stapi/OneDrive/Desktop/GD32VW553/V1_MQTT_OK/GD32VW55X_Wifi_BLE_SDK/GD32VW55x_RELEASE_V1.0.2/MSDK/cloud/alicloud/src/services/dev_bind\awss_bind_statis.c ****  */
   4:C:/Users/stapi/OneDrive/Desktop/GD32VW553/V1_MQTT_OK/GD32VW55X_Wifi_BLE_SDK/GD32VW55x_RELEASE_V1.0.2/MSDK/cloud/alicloud/src/services/dev_bind\awss_bind_statis.c **** 
   5:C:/Users/stapi/OneDrive/Desktop/GD32VW553/V1_MQTT_OK/GD32VW55X_Wifi_BLE_SDK/GD32VW55x_RELEASE_V1.0.2/MSDK/cloud/alicloud/src/services/dev_bind\awss_bind_statis.c **** #include "iot_import.h"
   6:C:/Users/stapi/OneDrive/Desktop/GD32VW553/V1_MQTT_OK/GD32VW55X_Wifi_BLE_SDK/GD32VW55x_RELEASE_V1.0.2/MSDK/cloud/alicloud/src/services/dev_bind\awss_bind_statis.c **** #include "os.h"
   7:C:/Users/stapi/OneDrive/Desktop/GD32VW553/V1_MQTT_OK/GD32VW55X_Wifi_BLE_SDK/GD32VW55x_RELEASE_V1.0.2/MSDK/cloud/alicloud/src/services/dev_bind\awss_bind_statis.c **** #include "awss_log.h"
   8:C:/Users/stapi/OneDrive/Desktop/GD32VW553/V1_MQTT_OK/GD32VW55X_Wifi_BLE_SDK/GD32VW55x_RELEASE_V1.0.2/MSDK/cloud/alicloud/src/services/dev_bind\awss_bind_statis.c **** #include "awss_cmp.h"
   9:C:/Users/stapi/OneDrive/Desktop/GD32VW553/V1_MQTT_OK/GD32VW55X_Wifi_BLE_SDK/GD32VW55x_RELEASE_V1.0.2/MSDK/cloud/alicloud/src/services/dev_bind\awss_bind_statis.c **** #include "awss_packet.h"
  10:C:/Users/stapi/OneDrive/Desktop/GD32VW553/V1_MQTT_OK/GD32VW55X_Wifi_BLE_SDK/GD32VW55x_RELEASE_V1.0.2/MSDK/cloud/alicloud/src/services/dev_bind\awss_bind_statis.c **** #include "awss_bind_statis.h"
  11:C:/Users/stapi/OneDrive/Desktop/GD32VW553/V1_MQTT_OK/GD32VW55X_Wifi_BLE_SDK/GD32VW55x_RELEASE_V1.0.2/MSDK/cloud/alicloud/src/services/dev_bind\awss_bind_statis.c **** 
  12:C:/Users/stapi/OneDrive/Desktop/GD32VW553/V1_MQTT_OK/GD32VW55X_Wifi_BLE_SDK/GD32VW55x_RELEASE_V1.0.2/MSDK/cloud/alicloud/src/services/dev_bind\awss_bind_statis.c **** #ifdef AWSS_SUPPORT_DEV_BIND_STATIS
  13:C:/Users/stapi/OneDrive/Desktop/GD32VW553/V1_MQTT_OK/GD32VW55X_Wifi_BLE_SDK/GD32VW55x_RELEASE_V1.0.2/MSDK/cloud/alicloud/src/services/dev_bind\awss_bind_statis.c **** static struct awss_statis_dev_bind_t g_db_statis = {0};
  14:C:/Users/stapi/OneDrive/Desktop/GD32VW553/V1_MQTT_OK/GD32VW55X_Wifi_BLE_SDK/GD32VW55x_RELEASE_V1.0.2/MSDK/cloud/alicloud/src/services/dev_bind\awss_bind_statis.c **** static uint32_t awss_statis_db_report_id = 0;
  15:C:/Users/stapi/OneDrive/Desktop/GD32VW553/V1_MQTT_OK/GD32VW55X_Wifi_BLE_SDK/GD32VW55x_RELEASE_V1.0.2/MSDK/cloud/alicloud/src/services/dev_bind\awss_bind_statis.c **** static uint32_t awss_statis_db_trace_id = 0;
  16:C:/Users/stapi/OneDrive/Desktop/GD32VW553/V1_MQTT_OK/GD32VW55X_Wifi_BLE_SDK/GD32VW55x_RELEASE_V1.0.2/MSDK/cloud/alicloud/src/services/dev_bind\awss_bind_statis.c **** static void *awss_statis_db_mutex = NULL;
  17:C:/Users/stapi/OneDrive/Desktop/GD32VW553/V1_MQTT_OK/GD32VW55X_Wifi_BLE_SDK/GD32VW55x_RELEASE_V1.0.2/MSDK/cloud/alicloud/src/services/dev_bind\awss_bind_statis.c **** 
  18:C:/Users/stapi/OneDrive/Desktop/GD32VW553/V1_MQTT_OK/GD32VW55X_Wifi_BLE_SDK/GD32VW55x_RELEASE_V1.0.2/MSDK/cloud/alicloud/src/services/dev_bind\awss_bind_statis.c **** #define DB_CNT    g_db_statis.dev_bind_cnt
  19:C:/Users/stapi/OneDrive/Desktop/GD32VW553/V1_MQTT_OK/GD32VW55X_Wifi_BLE_SDK/GD32VW55x_RELEASE_V1.0.2/MSDK/cloud/alicloud/src/services/dev_bind\awss_bind_statis.c **** #define DB_SUC    g_db_statis.dev_bind_suc
  20:C:/Users/stapi/OneDrive/Desktop/GD32VW553/V1_MQTT_OK/GD32VW55X_Wifi_BLE_SDK/GD32VW55x_RELEASE_V1.0.2/MSDK/cloud/alicloud/src/services/dev_bind\awss_bind_statis.c **** #define DB_TMEAN  g_db_statis.dev_bind_time_mean
  21:C:/Users/stapi/OneDrive/Desktop/GD32VW553/V1_MQTT_OK/GD32VW55X_Wifi_BLE_SDK/GD32VW55x_RELEASE_V1.0.2/MSDK/cloud/alicloud/src/services/dev_bind\awss_bind_statis.c **** #define DB_TMIN   g_db_statis.dev_bind_time_min
  22:C:/Users/stapi/OneDrive/Desktop/GD32VW553/V1_MQTT_OK/GD32VW55X_Wifi_BLE_SDK/GD32VW55x_RELEASE_V1.0.2/MSDK/cloud/alicloud/src/services/dev_bind\awss_bind_statis.c **** #define DB_TMAX   g_db_statis.dev_bind_time_max
  23:C:/Users/stapi/OneDrive/Desktop/GD32VW553/V1_MQTT_OK/GD32VW55X_Wifi_BLE_SDK/GD32VW55x_RELEASE_V1.0.2/MSDK/cloud/alicloud/src/services/dev_bind\awss_bind_statis.c **** #define DB_START  g_db_statis.dev_bind_start
  24:C:/Users/stapi/OneDrive/Desktop/GD32VW553/V1_MQTT_OK/GD32VW55X_Wifi_BLE_SDK/GD32VW55x_RELEASE_V1.0.2/MSDK/cloud/alicloud/src/services/dev_bind\awss_bind_statis.c **** #define DB_END    g_db_statis.dev_bind_end
  25:C:/Users/stapi/OneDrive/Desktop/GD32VW553/V1_MQTT_OK/GD32VW55X_Wifi_BLE_SDK/GD32VW55x_RELEASE_V1.0.2/MSDK/cloud/alicloud/src/services/dev_bind\awss_bind_statis.c **** 
  26:C:/Users/stapi/OneDrive/Desktop/GD32VW553/V1_MQTT_OK/GD32VW55X_Wifi_BLE_SDK/GD32VW55x_RELEASE_V1.0.2/MSDK/cloud/alicloud/src/services/dev_bind\awss_bind_statis.c **** #define AWSS_STATIS_DB_BUF_LEN (512)
  27:C:/Users/stapi/OneDrive/Desktop/GD32VW553/V1_MQTT_OK/GD32VW55X_Wifi_BLE_SDK/GD32VW55x_RELEASE_V1.0.2/MSDK/cloud/alicloud/src/services/dev_bind\awss_bind_statis.c **** 
  28:C:/Users/stapi/OneDrive/Desktop/GD32VW553/V1_MQTT_OK/GD32VW55X_Wifi_BLE_SDK/GD32VW55x_RELEASE_V1.0.2/MSDK/cloud/alicloud/src/services/dev_bind\awss_bind_statis.c **** int awss_bind_report_statis(const char *module)
  29:C:/Users/stapi/OneDrive/Desktop/GD32VW553/V1_MQTT_OK/GD32VW55X_Wifi_BLE_SDK/GD32VW55x_RELEASE_V1.0.2/MSDK/cloud/alicloud/src/services/dev_bind\awss_bind_statis.c **** {
  71              		.loc 1 29 1
  72              		.cfi_startproc
  73              	.LVL0:
  74 0000 17030000 		call	t0,__riscv_save_4
  74      E7020300 
  75              		.cfi_offset 19, -20
  76              		.cfi_offset 18, -16
  77              		.cfi_offset 9, -12
  78              		.cfi_offset 8, -8
  79              		.cfi_offset 1, -4
  80              		.cfi_def_cfa_offset 32
  30:C:/Users/stapi/OneDrive/Desktop/GD32VW553/V1_MQTT_OK/GD32VW55X_Wifi_BLE_SDK/GD32VW55x_RELEASE_V1.0.2/MSDK/cloud/alicloud/src/services/dev_bind\awss_bind_statis.c ****     const char *elem_fmt = "[%s max:%u min:%u mean:%u cnt:%u suc:%u]";
  81              		.loc 1 30 5
  82              	.LVL1:
  31:C:/Users/stapi/OneDrive/Desktop/GD32VW553/V1_MQTT_OK/GD32VW55X_Wifi_BLE_SDK/GD32VW55x_RELEASE_V1.0.2/MSDK/cloud/alicloud/src/services/dev_bind\awss_bind_statis.c ****     int log_buf_len = AWSS_STATIS_DB_BUF_LEN + strlen(AWSS_STATIS_FMT) + 21;
  83              		.loc 1 31 5
  29:C:/Users/stapi/OneDrive/Desktop/GD32VW553/V1_MQTT_OK/GD32VW55X_Wifi_BLE_SDK/GD32VW55x_RELEASE_V1.0.2/MSDK/cloud/alicloud/src/services/dev_bind\awss_bind_statis.c ****     const char *elem_fmt = "[%s max:%u min:%u mean:%u cnt:%u suc:%u]";
  84              		.loc 1 29 1 is_stmt 0
  85 0008 3171     		addi	sp,sp,-192
  86              		.cfi_def_cfa_offset 224
  87              		.loc 1 31 9
  88 000a 93073027 		li	a5,627
  29:C:/Users/stapi/OneDrive/Desktop/GD32VW553/V1_MQTT_OK/GD32VW55X_Wifi_BLE_SDK/GD32VW55x_RELEASE_V1.0.2/MSDK/cloud/alicloud/src/services/dev_bind\awss_bind_statis.c ****     const char *elem_fmt = "[%s max:%u min:%u mean:%u cnt:%u suc:%u]";
  89              		.loc 1 29 1
  90 000e 2A89     		mv	s2,a0
  32:C:/Users/stapi/OneDrive/Desktop/GD32VW553/V1_MQTT_OK/GD32VW55X_Wifi_BLE_SDK/GD32VW55x_RELEASE_V1.0.2/MSDK/cloud/alicloud/src/services/dev_bind\awss_bind_statis.c ****     char statis_topic[TOPIC_LEN_MAX] = {0};
  91              		.loc 1 32 10
  92 0010 1306C007 		li	a2,124
  93 0014 8145     		li	a1,0
  94 0016 C800     		addi	a0,sp,68
  95              	.LVL2:
  31:C:/Users/stapi/OneDrive/Desktop/GD32VW553/V1_MQTT_OK/GD32VW55X_Wifi_BLE_SDK/GD32VW55x_RELEASE_V1.0.2/MSDK/cloud/alicloud/src/services/dev_bind\awss_bind_statis.c ****     int log_buf_len = AWSS_STATIS_DB_BUF_LEN + strlen(AWSS_STATIS_FMT) + 21;
  96              		.loc 1 31 9
  97 0018 3ED2     		sw	a5,36(sp)
  98              		.loc 1 32 5 is_stmt 1
  99              		.loc 1 32 10 is_stmt 0
 100 001a 82C0     		sw	zero,64(sp)
 101 001c 97000000 		call	memset
 101      E7800000 
 102              	.LVL3:
  33:C:/Users/stapi/OneDrive/Desktop/GD32VW553/V1_MQTT_OK/GD32VW55X_Wifi_BLE_SDK/GD32VW55x_RELEASE_V1.0.2/MSDK/cloud/alicloud/src/services/dev_bind\awss_bind_statis.c ****     char *log_content = NULL;
 103              		.loc 1 33 5 is_stmt 1
  34:C:/Users/stapi/OneDrive/Desktop/GD32VW553/V1_MQTT_OK/GD32VW55X_Wifi_BLE_SDK/GD32VW55x_RELEASE_V1.0.2/MSDK/cloud/alicloud/src/services/dev_bind\awss_bind_statis.c ****     char id_str[21] = {0};
 104              		.loc 1 34 5
 105              	.LBB28:
 106              	.LBB29:
 107              	.LBB30:
 108              	.LBB31:
 109              		.file 2 "..\\..\\..\\..\\cloud\\alicloud\\src\\services\\dev_bind\\os/os.h"
   1:..\..\..\..\cloud\alicloud\src\services\dev_bind\os/os.h **** /*
   2:..\..\..\..\cloud\alicloud\src\services\dev_bind\os/os.h ****  * Copyright (C) 2015-2018 Alibaba Group Holding Limited
   3:..\..\..\..\cloud\alicloud\src\services\dev_bind\os/os.h ****  */
   4:..\..\..\..\cloud\alicloud\src\services\dev_bind\os/os.h **** 
   5:..\..\..\..\cloud\alicloud\src\services\dev_bind\os/os.h **** #ifndef __AWSS_OS_H__
   6:..\..\..\..\cloud\alicloud\src\services\dev_bind\os/os.h **** #define __AWSS_OS_H__
   7:..\..\..\..\cloud\alicloud\src\services\dev_bind\os/os.h **** 
   8:..\..\..\..\cloud\alicloud\src\services\dev_bind\os/os.h **** #ifdef __cplusplus
   9:..\..\..\..\cloud\alicloud\src\services\dev_bind\os/os.h **** extern "C" {
  10:..\..\..\..\cloud\alicloud\src\services\dev_bind\os/os.h **** #endif
  11:..\..\..\..\cloud\alicloud\src\services\dev_bind\os/os.h **** #include <ctype.h>
  12:..\..\..\..\cloud\alicloud\src\services\dev_bind\os/os.h **** #include "iot_import.h"
  13:..\..\..\..\cloud\alicloud\src\services\dev_bind\os/os.h **** #include "iot_export.h"
  14:..\..\..\..\cloud\alicloud\src\services\dev_bind\os/os.h **** #include "product/product.h"
  15:..\..\..\..\cloud\alicloud\src\services\dev_bind\os/os.h **** #include "platform.h"
  16:..\..\..\..\cloud\alicloud\src\services\dev_bind\os/os.h **** 
  17:..\..\..\..\cloud\alicloud\src\services\dev_bind\os/os.h **** /** @defgroup group_os os
  18:..\..\..\..\cloud\alicloud\src\services\dev_bind\os/os.h ****  *  @{
  19:..\..\..\..\cloud\alicloud\src\services\dev_bind\os/os.h ****  */
  20:..\..\..\..\cloud\alicloud\src\services\dev_bind\os/os.h **** 
  21:..\..\..\..\cloud\alicloud\src\services\dev_bind\os/os.h **** #define OS_MAX_SSID_LEN         PLATFORM_MAX_SSID_LEN
  22:..\..\..\..\cloud\alicloud\src\services\dev_bind\os/os.h **** #define OS_MAX_PASSWD_LEN       PLATFORM_MAX_PASSWD_LEN
  23:..\..\..\..\cloud\alicloud\src\services\dev_bind\os/os.h **** 
  24:..\..\..\..\cloud\alicloud\src\services\dev_bind\os/os.h **** #define OS_MAC_LEN              PLATFORM_MAC_LEN
  25:..\..\..\..\cloud\alicloud\src\services\dev_bind\os/os.h **** #define OS_IP_LEN               PLATFORM_IP_LEN
  26:..\..\..\..\cloud\alicloud\src\services\dev_bind\os/os.h **** #define OS_ETH_ALEN             ETH_ALEN
  27:..\..\..\..\cloud\alicloud\src\services\dev_bind\os/os.h **** 
  28:..\..\..\..\cloud\alicloud\src\services\dev_bind\os/os.h **** #define OS_PRODUCT_KEY_LEN      PRODUCT_KEY_LEN
  29:..\..\..\..\cloud\alicloud\src\services\dev_bind\os/os.h **** #define OS_PRODUCT_SECRET_LEN   PRODUCT_SECRET_LEN
  30:..\..\..\..\cloud\alicloud\src\services\dev_bind\os/os.h **** #define OS_DEVICE_NAME_LEN      DEVICE_NAME_LEN
  31:..\..\..\..\cloud\alicloud\src\services\dev_bind\os/os.h **** #define OS_DEVICE_SECRET_LEN    DEVICE_SECRET_LEN
  32:..\..\..\..\cloud\alicloud\src\services\dev_bind\os/os.h **** 
  33:..\..\..\..\cloud\alicloud\src\services\dev_bind\os/os.h **** /***************************************** Misc Interface *****************************************
  34:..\..\..\..\cloud\alicloud\src\services\dev_bind\os/os.h **** 
  35:..\..\..\..\cloud\alicloud\src\services\dev_bind\os/os.h **** /** @defgroup group_misc misc
  36:..\..\..\..\cloud\alicloud\src\services\dev_bind\os/os.h ****  *  @{
  37:..\..\..\..\cloud\alicloud\src\services\dev_bind\os/os.h ****  */
  38:..\..\..\..\cloud\alicloud\src\services\dev_bind\os/os.h **** /**
  39:..\..\..\..\cloud\alicloud\src\services\dev_bind\os/os.h ****  * @brief .
  40:..\..\..\..\cloud\alicloud\src\services\dev_bind\os/os.h ****  *
  41:..\..\..\..\cloud\alicloud\src\services\dev_bind\os/os.h ****  * @param None.
  42:..\..\..\..\cloud\alicloud\src\services\dev_bind\os/os.h ****  * @return
  43:..\..\..\..\cloud\alicloud\src\services\dev_bind\os/os.h ****  * @verbatim
  44:..\..\..\..\cloud\alicloud\src\services\dev_bind\os/os.h ****  * = 0, This platform is little endian.
  45:..\..\..\..\cloud\alicloud\src\services\dev_bind\os/os.h ****  * = 1, This platform is big endian.
  46:..\..\..\..\cloud\alicloud\src\services\dev_bind\os/os.h ****  * @endverbatim
  47:..\..\..\..\cloud\alicloud\src\services\dev_bind\os/os.h ****  * @see None.
  48:..\..\..\..\cloud\alicloud\src\services\dev_bind\os/os.h ****  * @note None.
  49:..\..\..\..\cloud\alicloud\src\services\dev_bind\os/os.h ****  */
  50:..\..\..\..\cloud\alicloud\src\services\dev_bind\os/os.h **** static inline int os_is_big_endian(void)
  51:..\..\..\..\cloud\alicloud\src\services\dev_bind\os/os.h **** {
  52:..\..\..\..\cloud\alicloud\src\services\dev_bind\os/os.h ****     uint32_t data = 0xFF000000;
  53:..\..\..\..\cloud\alicloud\src\services\dev_bind\os/os.h **** 
  54:..\..\..\..\cloud\alicloud\src\services\dev_bind\os/os.h ****     if (0xFF == *(uint8_t *) & data) {
  55:..\..\..\..\cloud\alicloud\src\services\dev_bind\os/os.h ****         return 1;                                    //big endian
  56:..\..\..\..\cloud\alicloud\src\services\dev_bind\os/os.h ****     }
  57:..\..\..\..\cloud\alicloud\src\services\dev_bind\os/os.h **** 
  58:..\..\..\..\cloud\alicloud\src\services\dev_bind\os/os.h ****     return 0;                                        //little endian
  59:..\..\..\..\cloud\alicloud\src\services\dev_bind\os/os.h **** }
  60:..\..\..\..\cloud\alicloud\src\services\dev_bind\os/os.h **** 
  61:..\..\..\..\cloud\alicloud\src\services\dev_bind\os/os.h **** /**
  62:..\..\..\..\cloud\alicloud\src\services\dev_bind\os/os.h ****  * @brief Convert the data from byte order of current CPU(the "host") to big-endian.
  63:..\..\..\..\cloud\alicloud\src\services\dev_bind\os/os.h ****    The size of the data is 16 bits.
  64:..\..\..\..\cloud\alicloud\src\services\dev_bind\os/os.h ****  *
  65:..\..\..\..\cloud\alicloud\src\services\dev_bind\os/os.h ****  * @param[in] data @n Data to be converted.
  66:..\..\..\..\cloud\alicloud\src\services\dev_bind\os/os.h ****  * @return Conversion result.
  67:..\..\..\..\cloud\alicloud\src\services\dev_bind\os/os.h ****  * @see None.
  68:..\..\..\..\cloud\alicloud\src\services\dev_bind\os/os.h ****  * @note None.
  69:..\..\..\..\cloud\alicloud\src\services\dev_bind\os/os.h ****  */
  70:..\..\..\..\cloud\alicloud\src\services\dev_bind\os/os.h **** uint16_t os_htobe16(uint16_t data);
  71:..\..\..\..\cloud\alicloud\src\services\dev_bind\os/os.h **** 
  72:..\..\..\..\cloud\alicloud\src\services\dev_bind\os/os.h **** /**
  73:..\..\..\..\cloud\alicloud\src\services\dev_bind\os/os.h ****  * @brief Convert the data from host to little-endian.
  74:..\..\..\..\cloud\alicloud\src\services\dev_bind\os/os.h ****    The size of the data is 16 bits.
  75:..\..\..\..\cloud\alicloud\src\services\dev_bind\os/os.h ****  *
  76:..\..\..\..\cloud\alicloud\src\services\dev_bind\os/os.h ****  * @param[in] data @n Data to be converted.
  77:..\..\..\..\cloud\alicloud\src\services\dev_bind\os/os.h ****  * @return Conversion result.
  78:..\..\..\..\cloud\alicloud\src\services\dev_bind\os/os.h ****  * @see None.
  79:..\..\..\..\cloud\alicloud\src\services\dev_bind\os/os.h ****  * @note None.
  80:..\..\..\..\cloud\alicloud\src\services\dev_bind\os/os.h ****  */
  81:..\..\..\..\cloud\alicloud\src\services\dev_bind\os/os.h **** uint16_t os_htole16(uint16_t data);
  82:..\..\..\..\cloud\alicloud\src\services\dev_bind\os/os.h **** 
  83:..\..\..\..\cloud\alicloud\src\services\dev_bind\os/os.h **** /**
  84:..\..\..\..\cloud\alicloud\src\services\dev_bind\os/os.h ****  * @brief Convert the data from big-endian to host.
  85:..\..\..\..\cloud\alicloud\src\services\dev_bind\os/os.h ****    The size of the data is 16 bits.
  86:..\..\..\..\cloud\alicloud\src\services\dev_bind\os/os.h ****  *
  87:..\..\..\..\cloud\alicloud\src\services\dev_bind\os/os.h ****  * @param[in] data @n Data to be converted.
  88:..\..\..\..\cloud\alicloud\src\services\dev_bind\os/os.h ****  * @return Conversion result.
  89:..\..\..\..\cloud\alicloud\src\services\dev_bind\os/os.h ****  * @see None.
  90:..\..\..\..\cloud\alicloud\src\services\dev_bind\os/os.h ****  * @note None.
  91:..\..\..\..\cloud\alicloud\src\services\dev_bind\os/os.h ****  */
  92:..\..\..\..\cloud\alicloud\src\services\dev_bind\os/os.h **** uint16_t os_be16toh(uint16_t data);
  93:..\..\..\..\cloud\alicloud\src\services\dev_bind\os/os.h **** 
  94:..\..\..\..\cloud\alicloud\src\services\dev_bind\os/os.h **** /**
  95:..\..\..\..\cloud\alicloud\src\services\dev_bind\os/os.h ****  * @brief Convert the data from little-endian to host.
  96:..\..\..\..\cloud\alicloud\src\services\dev_bind\os/os.h ****    The size of the data is 16 bits.
  97:..\..\..\..\cloud\alicloud\src\services\dev_bind\os/os.h ****  *
  98:..\..\..\..\cloud\alicloud\src\services\dev_bind\os/os.h ****  * @param[in] data @n Data to be converted.
  99:..\..\..\..\cloud\alicloud\src\services\dev_bind\os/os.h ****  * @return Conversion result.
 100:..\..\..\..\cloud\alicloud\src\services\dev_bind\os/os.h ****  * @see None.
 101:..\..\..\..\cloud\alicloud\src\services\dev_bind\os/os.h ****  * @note None.
 102:..\..\..\..\cloud\alicloud\src\services\dev_bind\os/os.h ****  */
 103:..\..\..\..\cloud\alicloud\src\services\dev_bind\os/os.h **** uint16_t os_le16toh(uint16_t data);
 104:..\..\..\..\cloud\alicloud\src\services\dev_bind\os/os.h **** 
 105:..\..\..\..\cloud\alicloud\src\services\dev_bind\os/os.h **** /**
 106:..\..\..\..\cloud\alicloud\src\services\dev_bind\os/os.h ****  * @brief Convert the data from little-endian to host.
 107:..\..\..\..\cloud\alicloud\src\services\dev_bind\os/os.h ****    The size of the data is 32 bits.
 108:..\..\..\..\cloud\alicloud\src\services\dev_bind\os/os.h ****  *
 109:..\..\..\..\cloud\alicloud\src\services\dev_bind\os/os.h ****  * @param[in] data @n Data to be converted.
 110:..\..\..\..\cloud\alicloud\src\services\dev_bind\os/os.h ****  * @return Conversion result.
 111:..\..\..\..\cloud\alicloud\src\services\dev_bind\os/os.h ****  * @see None.
 112:..\..\..\..\cloud\alicloud\src\services\dev_bind\os/os.h ****  * @note None.
 113:..\..\..\..\cloud\alicloud\src\services\dev_bind\os/os.h ****  */
 114:..\..\..\..\cloud\alicloud\src\services\dev_bind\os/os.h **** uint32_t os_le32toh(uint32_t data);
 115:..\..\..\..\cloud\alicloud\src\services\dev_bind\os/os.h **** 
 116:..\..\..\..\cloud\alicloud\src\services\dev_bind\os/os.h **** /**
 117:..\..\..\..\cloud\alicloud\src\services\dev_bind\os/os.h ****  * @brief Convert the data from host to big-endian.
 118:..\..\..\..\cloud\alicloud\src\services\dev_bind\os/os.h ****    The size of the data is 64 bits.
 119:..\..\..\..\cloud\alicloud\src\services\dev_bind\os/os.h ****  *
 120:..\..\..\..\cloud\alicloud\src\services\dev_bind\os/os.h ****  * @param[in] data @n Data to be converted.
 121:..\..\..\..\cloud\alicloud\src\services\dev_bind\os/os.h ****  * @return Conversion result.
 122:..\..\..\..\cloud\alicloud\src\services\dev_bind\os/os.h ****  * @see None.
 123:..\..\..\..\cloud\alicloud\src\services\dev_bind\os/os.h ****  * @note None.
 124:..\..\..\..\cloud\alicloud\src\services\dev_bind\os/os.h ****  */
 125:..\..\..\..\cloud\alicloud\src\services\dev_bind\os/os.h **** //uint64_t os_htobe64(uint64_t data);
 126:..\..\..\..\cloud\alicloud\src\services\dev_bind\os/os.h **** 
 127:..\..\..\..\cloud\alicloud\src\services\dev_bind\os/os.h **** /**
 128:..\..\..\..\cloud\alicloud\src\services\dev_bind\os/os.h ****  * @brief Convert the data from host to little-endian.
 129:..\..\..\..\cloud\alicloud\src\services\dev_bind\os/os.h ****    The size of the data is 64 bits.
 130:..\..\..\..\cloud\alicloud\src\services\dev_bind\os/os.h ****  *
 131:..\..\..\..\cloud\alicloud\src\services\dev_bind\os/os.h ****  * @param[in] data @n Data to be converted.
 132:..\..\..\..\cloud\alicloud\src\services\dev_bind\os/os.h ****  * @return Conversion result.
 133:..\..\..\..\cloud\alicloud\src\services\dev_bind\os/os.h ****  * @see None.
 134:..\..\..\..\cloud\alicloud\src\services\dev_bind\os/os.h ****  * @note None.
 135:..\..\..\..\cloud\alicloud\src\services\dev_bind\os/os.h ****  */
 136:..\..\..\..\cloud\alicloud\src\services\dev_bind\os/os.h **** //uint64_t os_htole64(uint64_t data);
 137:..\..\..\..\cloud\alicloud\src\services\dev_bind\os/os.h **** 
 138:..\..\..\..\cloud\alicloud\src\services\dev_bind\os/os.h **** /**
 139:..\..\..\..\cloud\alicloud\src\services\dev_bind\os/os.h ****  * @brief Convert the data from big-endian to host.
 140:..\..\..\..\cloud\alicloud\src\services\dev_bind\os/os.h ****    The size of the data is 64 bits.
 141:..\..\..\..\cloud\alicloud\src\services\dev_bind\os/os.h ****  *
 142:..\..\..\..\cloud\alicloud\src\services\dev_bind\os/os.h ****  * @param[in] data @n Data to be converted.
 143:..\..\..\..\cloud\alicloud\src\services\dev_bind\os/os.h ****  * @return Conversion result.
 144:..\..\..\..\cloud\alicloud\src\services\dev_bind\os/os.h ****  * @see None.
 145:..\..\..\..\cloud\alicloud\src\services\dev_bind\os/os.h ****  * @note None.
 146:..\..\..\..\cloud\alicloud\src\services\dev_bind\os/os.h ****  */
 147:..\..\..\..\cloud\alicloud\src\services\dev_bind\os/os.h **** //uint64_t os_be64toh(uint64_t data);
 148:..\..\..\..\cloud\alicloud\src\services\dev_bind\os/os.h **** 
 149:..\..\..\..\cloud\alicloud\src\services\dev_bind\os/os.h **** /**
 150:..\..\..\..\cloud\alicloud\src\services\dev_bind\os/os.h ****  * @brief Convert the data from little-endian to host.
 151:..\..\..\..\cloud\alicloud\src\services\dev_bind\os/os.h ****    The size of the data is 64 bits.
 152:..\..\..\..\cloud\alicloud\src\services\dev_bind\os/os.h ****  *
 153:..\..\..\..\cloud\alicloud\src\services\dev_bind\os/os.h ****  * @param[in] data @n Data to be converted.
 154:..\..\..\..\cloud\alicloud\src\services\dev_bind\os/os.h ****  * @return Conversion result.
 155:..\..\..\..\cloud\alicloud\src\services\dev_bind\os/os.h ****  * @see None.
 156:..\..\..\..\cloud\alicloud\src\services\dev_bind\os/os.h ****  * @note None.
 157:..\..\..\..\cloud\alicloud\src\services\dev_bind\os/os.h ****  */
 158:..\..\..\..\cloud\alicloud\src\services\dev_bind\os/os.h **** //uint64_t os_le64toh(uint64_t data);
 159:..\..\..\..\cloud\alicloud\src\services\dev_bind\os/os.h **** 
 160:..\..\..\..\cloud\alicloud\src\services\dev_bind\os/os.h **** /**
 161:..\..\..\..\cloud\alicloud\src\services\dev_bind\os/os.h ****  * @brief Get unaligned 16 bits data which is big-endian and convert to host byte order.
 162:..\..\..\..\cloud\alicloud\src\services\dev_bind\os/os.h ****  *
 163:..\..\..\..\cloud\alicloud\src\services\dev_bind\os/os.h ****  * @param[in] ptr @n The start address of the unaligned data.
 164:..\..\..\..\cloud\alicloud\src\services\dev_bind\os/os.h ****  * @return Result in host byte order.
 165:..\..\..\..\cloud\alicloud\src\services\dev_bind\os/os.h ****  * @see None.
 166:..\..\..\..\cloud\alicloud\src\services\dev_bind\os/os.h ****  * @note None.
 167:..\..\..\..\cloud\alicloud\src\services\dev_bind\os/os.h ****  */
 168:..\..\..\..\cloud\alicloud\src\services\dev_bind\os/os.h **** uint16_t os_get_unaligned_be16(uint8_t *ptr);
 169:..\..\..\..\cloud\alicloud\src\services\dev_bind\os/os.h **** 
 170:..\..\..\..\cloud\alicloud\src\services\dev_bind\os/os.h **** /**
 171:..\..\..\..\cloud\alicloud\src\services\dev_bind\os/os.h ****  * @brief Get unaligned 16 bits data which is little-endian and convert to host byte order.
 172:..\..\..\..\cloud\alicloud\src\services\dev_bind\os/os.h ****  *
 173:..\..\..\..\cloud\alicloud\src\services\dev_bind\os/os.h ****  * @param[in] ptr @n The start address of the unaligned data.
 174:..\..\..\..\cloud\alicloud\src\services\dev_bind\os/os.h ****  * @return Result in host byte order.
 175:..\..\..\..\cloud\alicloud\src\services\dev_bind\os/os.h ****  * @see None.
 176:..\..\..\..\cloud\alicloud\src\services\dev_bind\os/os.h ****  * @note None.
 177:..\..\..\..\cloud\alicloud\src\services\dev_bind\os/os.h ****  */
 178:..\..\..\..\cloud\alicloud\src\services\dev_bind\os/os.h **** uint16_t os_get_unaligned_le16(uint8_t *ptr);
 179:..\..\..\..\cloud\alicloud\src\services\dev_bind\os/os.h **** 
 180:..\..\..\..\cloud\alicloud\src\services\dev_bind\os/os.h **** /**
 181:..\..\..\..\cloud\alicloud\src\services\dev_bind\os/os.h ****  * @brief Get unaligned 32 bits data which is big-endian and convert to host byte order.
 182:..\..\..\..\cloud\alicloud\src\services\dev_bind\os/os.h ****  *
 183:..\..\..\..\cloud\alicloud\src\services\dev_bind\os/os.h ****  * @param[in] ptr @n The start address of the unaligned data.
 184:..\..\..\..\cloud\alicloud\src\services\dev_bind\os/os.h ****  * @return Result in host byte order.
 185:..\..\..\..\cloud\alicloud\src\services\dev_bind\os/os.h ****  * @see None.
 186:..\..\..\..\cloud\alicloud\src\services\dev_bind\os/os.h ****  * @note None.
 187:..\..\..\..\cloud\alicloud\src\services\dev_bind\os/os.h ****  */
 188:..\..\..\..\cloud\alicloud\src\services\dev_bind\os/os.h **** uint32_t os_get_unaligned_be32(uint8_t *ptr);
 189:..\..\..\..\cloud\alicloud\src\services\dev_bind\os/os.h **** 
 190:..\..\..\..\cloud\alicloud\src\services\dev_bind\os/os.h **** /**
 191:..\..\..\..\cloud\alicloud\src\services\dev_bind\os/os.h ****  * @brief Get unaligned 32 bits data which is little-endian and convert to host byte order.
 192:..\..\..\..\cloud\alicloud\src\services\dev_bind\os/os.h ****  *
 193:..\..\..\..\cloud\alicloud\src\services\dev_bind\os/os.h ****  * @param[in] ptr @n The start address of the unaligned data.
 194:..\..\..\..\cloud\alicloud\src\services\dev_bind\os/os.h ****  * @return Result in host byte order.
 195:..\..\..\..\cloud\alicloud\src\services\dev_bind\os/os.h ****  * @see None.
 196:..\..\..\..\cloud\alicloud\src\services\dev_bind\os/os.h ****  * @note None.
 197:..\..\..\..\cloud\alicloud\src\services\dev_bind\os/os.h ****  */
 198:..\..\..\..\cloud\alicloud\src\services\dev_bind\os/os.h **** uint32_t os_get_unaligned_le32(uint8_t *ptr);
 199:..\..\..\..\cloud\alicloud\src\services\dev_bind\os/os.h **** 
 200:..\..\..\..\cloud\alicloud\src\services\dev_bind\os/os.h **** /**
 201:..\..\..\..\cloud\alicloud\src\services\dev_bind\os/os.h ****  * @brief sleep thread itself.
 202:..\..\..\..\cloud\alicloud\src\services\dev_bind\os/os.h ****  *
 203:..\..\..\..\cloud\alicloud\src\services\dev_bind\os/os.h ****  * @param[in] ms @n the time interval for which execution is to be suspended, in milliseconds.
 204:..\..\..\..\cloud\alicloud\src\services\dev_bind\os/os.h ****  * @return None.
 205:..\..\..\..\cloud\alicloud\src\services\dev_bind\os/os.h ****  * @see None.
 206:..\..\..\..\cloud\alicloud\src\services\dev_bind\os/os.h ****  * @note None.
 207:..\..\..\..\cloud\alicloud\src\services\dev_bind\os/os.h ****  */
 208:..\..\..\..\cloud\alicloud\src\services\dev_bind\os/os.h **** static inline void os_msleep(_IN_ uint32_t ms)
 209:..\..\..\..\cloud\alicloud\src\services\dev_bind\os/os.h **** {
 210:..\..\..\..\cloud\alicloud\src\services\dev_bind\os/os.h ****     platform_msleep(ms);
 211:..\..\..\..\cloud\alicloud\src\services\dev_bind\os/os.h **** }
 212:..\..\..\..\cloud\alicloud\src\services\dev_bind\os/os.h **** 
 213:..\..\..\..\cloud\alicloud\src\services\dev_bind\os/os.h **** /**
 214:..\..\..\..\cloud\alicloud\src\services\dev_bind\os/os.h ****  * @brief sleep thread itself.
 215:..\..\..\..\cloud\alicloud\src\services\dev_bind\os/os.h ****  *
 216:..\..\..\..\cloud\alicloud\src\services\dev_bind\os/os.h ****  * @param[in] sec @n the time interval for which execution is to be suspended, in seconds.
 217:..\..\..\..\cloud\alicloud\src\services\dev_bind\os/os.h ****  * @return None.
 218:..\..\..\..\cloud\alicloud\src\services\dev_bind\os/os.h ****  * @see None.
 219:..\..\..\..\cloud\alicloud\src\services\dev_bind\os/os.h ****  * @note None.
 220:..\..\..\..\cloud\alicloud\src\services\dev_bind\os/os.h ****  */
 221:..\..\..\..\cloud\alicloud\src\services\dev_bind\os/os.h **** static inline void os_sleep(_IN_ uint32_t sec)
 222:..\..\..\..\cloud\alicloud\src\services\dev_bind\os/os.h **** {
 223:..\..\..\..\cloud\alicloud\src\services\dev_bind\os/os.h ****     platform_msleep(sec * 1000);
 224:..\..\..\..\cloud\alicloud\src\services\dev_bind\os/os.h **** }
 225:..\..\..\..\cloud\alicloud\src\services\dev_bind\os/os.h **** 
 226:..\..\..\..\cloud\alicloud\src\services\dev_bind\os/os.h **** /**
 227:..\..\..\..\cloud\alicloud\src\services\dev_bind\os/os.h ****  * @brief system reboot immediately.
 228:..\..\..\..\cloud\alicloud\src\services\dev_bind\os/os.h ****  *
 229:..\..\..\..\cloud\alicloud\src\services\dev_bind\os/os.h ****  * @return None.
 230:..\..\..\..\cloud\alicloud\src\services\dev_bind\os/os.h ****  * @see None.
 231:..\..\..\..\cloud\alicloud\src\services\dev_bind\os/os.h ****  * @note None.
 232:..\..\..\..\cloud\alicloud\src\services\dev_bind\os/os.h ****  */
 233:..\..\..\..\cloud\alicloud\src\services\dev_bind\os/os.h **** static inline void os_reboot()
 234:..\..\..\..\cloud\alicloud\src\services\dev_bind\os/os.h **** {
 235:..\..\..\..\cloud\alicloud\src\services\dev_bind\os/os.h ****     platform_reboot();
 236:..\..\..\..\cloud\alicloud\src\services\dev_bind\os/os.h **** }
 237:..\..\..\..\cloud\alicloud\src\services\dev_bind\os/os.h **** 
 238:..\..\..\..\cloud\alicloud\src\services\dev_bind\os/os.h **** /** @} *///end of os_misc
 239:..\..\..\..\cloud\alicloud\src\services\dev_bind\os/os.h **** 
 240:..\..\..\..\cloud\alicloud\src\services\dev_bind\os/os.h **** /***************************************** mutex Interface ****************************************
 241:..\..\..\..\cloud\alicloud\src\services\dev_bind\os/os.h **** 
 242:..\..\..\..\cloud\alicloud\src\services\dev_bind\os/os.h **** /** @defgroup group_os_mutex mutex
 243:..\..\..\..\cloud\alicloud\src\services\dev_bind\os/os.h ****  *  @{
 244:..\..\..\..\cloud\alicloud\src\services\dev_bind\os/os.h ****  */
 245:..\..\..\..\cloud\alicloud\src\services\dev_bind\os/os.h **** 
 246:..\..\..\..\cloud\alicloud\src\services\dev_bind\os/os.h **** /**
 247:..\..\..\..\cloud\alicloud\src\services\dev_bind\os/os.h ****  * @brief Create a mutex.
 248:..\..\..\..\cloud\alicloud\src\services\dev_bind\os/os.h ****  *
 249:..\..\..\..\cloud\alicloud\src\services\dev_bind\os/os.h ****  * @return Mutex handle.
 250:..\..\..\..\cloud\alicloud\src\services\dev_bind\os/os.h ****  * @see None.
 251:..\..\..\..\cloud\alicloud\src\services\dev_bind\os/os.h ****  * @note None.
 252:..\..\..\..\cloud\alicloud\src\services\dev_bind\os/os.h ****  */
 253:..\..\..\..\cloud\alicloud\src\services\dev_bind\os/os.h **** static inline void *os_mutex_init(void)
 254:..\..\..\..\cloud\alicloud\src\services\dev_bind\os/os.h **** {
 255:..\..\..\..\cloud\alicloud\src\services\dev_bind\os/os.h ****     return platform_mutex_init();
 256:..\..\..\..\cloud\alicloud\src\services\dev_bind\os/os.h **** }
 257:..\..\..\..\cloud\alicloud\src\services\dev_bind\os/os.h **** 
 258:..\..\..\..\cloud\alicloud\src\services\dev_bind\os/os.h **** /**
 259:..\..\..\..\cloud\alicloud\src\services\dev_bind\os/os.h ****  * @brief Destroy the specified mutex object, it will free related resource.
 260:..\..\..\..\cloud\alicloud\src\services\dev_bind\os/os.h ****  *
 261:..\..\..\..\cloud\alicloud\src\services\dev_bind\os/os.h ****  * @param[in] mutex @n The specified mutex.
 262:..\..\..\..\cloud\alicloud\src\services\dev_bind\os/os.h ****  * @return None.
 263:..\..\..\..\cloud\alicloud\src\services\dev_bind\os/os.h ****  * @see None.
 264:..\..\..\..\cloud\alicloud\src\services\dev_bind\os/os.h ****  * @note None.
 265:..\..\..\..\cloud\alicloud\src\services\dev_bind\os/os.h ****  */
 266:..\..\..\..\cloud\alicloud\src\services\dev_bind\os/os.h **** static inline void os_mutex_destroy(_IN_ void *mutex)
 267:..\..\..\..\cloud\alicloud\src\services\dev_bind\os/os.h **** {
 268:..\..\..\..\cloud\alicloud\src\services\dev_bind\os/os.h ****     platform_mutex_destroy(mutex);
 269:..\..\..\..\cloud\alicloud\src\services\dev_bind\os/os.h **** }
 270:..\..\..\..\cloud\alicloud\src\services\dev_bind\os/os.h **** 
 271:..\..\..\..\cloud\alicloud\src\services\dev_bind\os/os.h **** /**
 272:..\..\..\..\cloud\alicloud\src\services\dev_bind\os/os.h ****  * @brief Waits until the specified mutex is in the signaled state.
 273:..\..\..\..\cloud\alicloud\src\services\dev_bind\os/os.h ****  *
 274:..\..\..\..\cloud\alicloud\src\services\dev_bind\os/os.h ****  * @param[in] mutex @n the specified mutex.
 275:..\..\..\..\cloud\alicloud\src\services\dev_bind\os/os.h ****  * @return None.
 276:..\..\..\..\cloud\alicloud\src\services\dev_bind\os/os.h ****  * @see None.
 277:..\..\..\..\cloud\alicloud\src\services\dev_bind\os/os.h ****  * @note None.
 278:..\..\..\..\cloud\alicloud\src\services\dev_bind\os/os.h ****  */
 279:..\..\..\..\cloud\alicloud\src\services\dev_bind\os/os.h **** static inline void os_mutex_lock(_IN_ void *mutex)
 280:..\..\..\..\cloud\alicloud\src\services\dev_bind\os/os.h **** {
 281:..\..\..\..\cloud\alicloud\src\services\dev_bind\os/os.h ****     platform_mutex_lock(mutex);
 282:..\..\..\..\cloud\alicloud\src\services\dev_bind\os/os.h **** }
 283:..\..\..\..\cloud\alicloud\src\services\dev_bind\os/os.h **** 
 284:..\..\..\..\cloud\alicloud\src\services\dev_bind\os/os.h **** /**
 285:..\..\..\..\cloud\alicloud\src\services\dev_bind\os/os.h ****  * @brief Releases ownership of the specified mutex object..
 286:..\..\..\..\cloud\alicloud\src\services\dev_bind\os/os.h ****  *
 287:..\..\..\..\cloud\alicloud\src\services\dev_bind\os/os.h ****  * @param[in] mutex @n the specified mutex.
 288:..\..\..\..\cloud\alicloud\src\services\dev_bind\os/os.h ****  * @return None.
 289:..\..\..\..\cloud\alicloud\src\services\dev_bind\os/os.h ****  * @see None.
 290:..\..\..\..\cloud\alicloud\src\services\dev_bind\os/os.h ****  * @note None.
 291:..\..\..\..\cloud\alicloud\src\services\dev_bind\os/os.h ****  */
 292:..\..\..\..\cloud\alicloud\src\services\dev_bind\os/os.h **** static inline void os_mutex_unlock(_IN_ void *mutex)
 293:..\..\..\..\cloud\alicloud\src\services\dev_bind\os/os.h **** {
 294:..\..\..\..\cloud\alicloud\src\services\dev_bind\os/os.h ****     platform_mutex_unlock(mutex);
 295:..\..\..\..\cloud\alicloud\src\services\dev_bind\os/os.h **** }
 296:..\..\..\..\cloud\alicloud\src\services\dev_bind\os/os.h **** 
 297:..\..\..\..\cloud\alicloud\src\services\dev_bind\os/os.h **** /** @} */// end of os_mutex
 298:..\..\..\..\cloud\alicloud\src\services\dev_bind\os/os.h **** 
 299:..\..\..\..\cloud\alicloud\src\services\dev_bind\os/os.h **** /*************************************** semaphore Interface **************************************
 300:..\..\..\..\cloud\alicloud\src\services\dev_bind\os/os.h **** 
 301:..\..\..\..\cloud\alicloud\src\services\dev_bind\os/os.h **** /** @defgroup group_os_semaphore semaphore
 302:..\..\..\..\cloud\alicloud\src\services\dev_bind\os/os.h ****  *  @{
 303:..\..\..\..\cloud\alicloud\src\services\dev_bind\os/os.h ****  */
 304:..\..\..\..\cloud\alicloud\src\services\dev_bind\os/os.h **** 
 305:..\..\..\..\cloud\alicloud\src\services\dev_bind\os/os.h **** /**
 306:..\..\..\..\cloud\alicloud\src\services\dev_bind\os/os.h ****  * @brief Create a semaphore.
 307:..\..\..\..\cloud\alicloud\src\services\dev_bind\os/os.h ****  *
 308:..\..\..\..\cloud\alicloud\src\services\dev_bind\os/os.h ****  * @return semaphore handle.
 309:..\..\..\..\cloud\alicloud\src\services\dev_bind\os/os.h ****  * @see None.
 310:..\..\..\..\cloud\alicloud\src\services\dev_bind\os/os.h ****  * @note The recommended value of maximum count of the semaphore is 255.
 311:..\..\..\..\cloud\alicloud\src\services\dev_bind\os/os.h ****  */
 312:..\..\..\..\cloud\alicloud\src\services\dev_bind\os/os.h **** static inline void *os_semaphore_init(void)
 313:..\..\..\..\cloud\alicloud\src\services\dev_bind\os/os.h **** {
 314:..\..\..\..\cloud\alicloud\src\services\dev_bind\os/os.h ****     return platform_semaphore_init();
 315:..\..\..\..\cloud\alicloud\src\services\dev_bind\os/os.h **** }
 316:..\..\..\..\cloud\alicloud\src\services\dev_bind\os/os.h **** 
 317:..\..\..\..\cloud\alicloud\src\services\dev_bind\os/os.h **** /**
 318:..\..\..\..\cloud\alicloud\src\services\dev_bind\os/os.h ****  * @brief Destroy the specified semaphore object, it will free related resource.
 319:..\..\..\..\cloud\alicloud\src\services\dev_bind\os/os.h ****  *
 320:..\..\..\..\cloud\alicloud\src\services\dev_bind\os/os.h ****  * @param[in] sem @n the specified sem.
 321:..\..\..\..\cloud\alicloud\src\services\dev_bind\os/os.h ****  * @return None.
 322:..\..\..\..\cloud\alicloud\src\services\dev_bind\os/os.h ****  * @see None.
 323:..\..\..\..\cloud\alicloud\src\services\dev_bind\os/os.h ****  * @note None.
 324:..\..\..\..\cloud\alicloud\src\services\dev_bind\os/os.h ****  */
 325:..\..\..\..\cloud\alicloud\src\services\dev_bind\os/os.h **** static inline void os_semaphore_destroy(_IN_ void *sem)
 326:..\..\..\..\cloud\alicloud\src\services\dev_bind\os/os.h **** {
 327:..\..\..\..\cloud\alicloud\src\services\dev_bind\os/os.h ****     platform_semaphore_destroy(sem);
 328:..\..\..\..\cloud\alicloud\src\services\dev_bind\os/os.h **** }
 329:..\..\..\..\cloud\alicloud\src\services\dev_bind\os/os.h **** 
 330:..\..\..\..\cloud\alicloud\src\services\dev_bind\os/os.h **** /**
 331:..\..\..\..\cloud\alicloud\src\services\dev_bind\os/os.h ****  * @brief Wait until the specified mutex is in the signaled state or the time-out interval elapses.
 332:..\..\..\..\cloud\alicloud\src\services\dev_bind\os/os.h ****  *
 333:..\..\..\..\cloud\alicloud\src\services\dev_bind\os/os.h ****  * @param[in] sem @n the specified semaphore.
 334:..\..\..\..\cloud\alicloud\src\services\dev_bind\os/os.h ****  * @param[in] timeout_ms @n timeout interval in millisecond.
 335:..\..\..\..\cloud\alicloud\src\services\dev_bind\os/os.h ****      If timeout_ms is OS_WAIT_INFINITE, the function will return only when the semaphore is signale
 336:..\..\..\..\cloud\alicloud\src\services\dev_bind\os/os.h ****  * @return
 337:..\..\..\..\cloud\alicloud\src\services\dev_bind\os/os.h ****    @verbatim
 338:..\..\..\..\cloud\alicloud\src\services\dev_bind\os/os.h ****    =  0: The state of the specified object is signaled.
 339:..\..\..\..\cloud\alicloud\src\services\dev_bind\os/os.h ****    =  -1: The time-out interval elapsed, and the object's state is nonsignaled.
 340:..\..\..\..\cloud\alicloud\src\services\dev_bind\os/os.h ****    @endverbatim
 341:..\..\..\..\cloud\alicloud\src\services\dev_bind\os/os.h ****  * @see None.
 342:..\..\..\..\cloud\alicloud\src\services\dev_bind\os/os.h ****  * @note None.
 343:..\..\..\..\cloud\alicloud\src\services\dev_bind\os/os.h ****  */
 344:..\..\..\..\cloud\alicloud\src\services\dev_bind\os/os.h **** static inline int os_semaphore_wait(_IN_ void *sem, _IN_ uint32_t timeout_ms)
 345:..\..\..\..\cloud\alicloud\src\services\dev_bind\os/os.h **** {
 346:..\..\..\..\cloud\alicloud\src\services\dev_bind\os/os.h ****     return platform_semaphore_wait(sem, timeout_ms);
 347:..\..\..\..\cloud\alicloud\src\services\dev_bind\os/os.h **** }
 348:..\..\..\..\cloud\alicloud\src\services\dev_bind\os/os.h **** 
 349:..\..\..\..\cloud\alicloud\src\services\dev_bind\os/os.h **** /**
 350:..\..\..\..\cloud\alicloud\src\services\dev_bind\os/os.h ****  * @brief Increases the count of the specified semaphore object by 1.
 351:..\..\..\..\cloud\alicloud\src\services\dev_bind\os/os.h ****  *
 352:..\..\..\..\cloud\alicloud\src\services\dev_bind\os/os.h ****  * @param[in] sem @n the specified semaphore.
 353:..\..\..\..\cloud\alicloud\src\services\dev_bind\os/os.h ****  * @return None.
 354:..\..\..\..\cloud\alicloud\src\services\dev_bind\os/os.h ****  * @see None.
 355:..\..\..\..\cloud\alicloud\src\services\dev_bind\os/os.h ****  * @note None.
 356:..\..\..\..\cloud\alicloud\src\services\dev_bind\os/os.h ****  */
 357:..\..\..\..\cloud\alicloud\src\services\dev_bind\os/os.h **** static inline void os_semaphore_post(_IN_ void *sem)
 358:..\..\..\..\cloud\alicloud\src\services\dev_bind\os/os.h **** {
 359:..\..\..\..\cloud\alicloud\src\services\dev_bind\os/os.h ****     platform_semaphore_post(sem);
 360:..\..\..\..\cloud\alicloud\src\services\dev_bind\os/os.h **** }
 361:..\..\..\..\cloud\alicloud\src\services\dev_bind\os/os.h **** 
 362:..\..\..\..\cloud\alicloud\src\services\dev_bind\os/os.h **** /** @} */// end of os_semaphore
 363:..\..\..\..\cloud\alicloud\src\services\dev_bind\os/os.h **** 
 364:..\..\..\..\cloud\alicloud\src\services\dev_bind\os/os.h **** /**************************************** memory Interface ****************************************
 365:..\..\..\..\cloud\alicloud\src\services\dev_bind\os/os.h **** 
 366:..\..\..\..\cloud\alicloud\src\services\dev_bind\os/os.h **** /** @defgroup group_os_memory_manage memory
 367:..\..\..\..\cloud\alicloud\src\services\dev_bind\os/os.h ****  *  @{
 368:..\..\..\..\cloud\alicloud\src\services\dev_bind\os/os.h ****  */
 369:..\..\..\..\cloud\alicloud\src\services\dev_bind\os/os.h **** 
 370:..\..\..\..\cloud\alicloud\src\services\dev_bind\os/os.h **** /**
 371:..\..\..\..\cloud\alicloud\src\services\dev_bind\os/os.h ****  * @brief Allocates a block of size bytes of memory, returning a pointer to the beginning of the bl
 372:..\..\..\..\cloud\alicloud\src\services\dev_bind\os/os.h ****  *
 373:..\..\..\..\cloud\alicloud\src\services\dev_bind\os/os.h ****  * @param[in] size @n specify block size in bytes.
 374:..\..\..\..\cloud\alicloud\src\services\dev_bind\os/os.h ****  * @return A pointer to the beginning of the block.
 375:..\..\..\..\cloud\alicloud\src\services\dev_bind\os/os.h ****  * @see None.
 376:..\..\..\..\cloud\alicloud\src\services\dev_bind\os/os.h ****  * @note Block value is indeterminate.
 377:..\..\..\..\cloud\alicloud\src\services\dev_bind\os/os.h ****  */
 378:..\..\..\..\cloud\alicloud\src\services\dev_bind\os/os.h **** static inline void *os_malloc(_IN_ uint32_t size)
 379:..\..\..\..\cloud\alicloud\src\services\dev_bind\os/os.h **** {
 380:..\..\..\..\cloud\alicloud\src\services\dev_bind\os/os.h ****     return platform_malloc(size);
 110              		.loc 2 380 12 is_stmt 0
 111 0024 13051020 		li	a0,513
 112              	.LBE31:
 113              	.LBE30:
 114              	.LBE29:
 115              	.LBE28:
 116              		.loc 1 34 10
 117 0028 02D4     		sw	zero,40(sp)
 118 002a 02D6     		sw	zero,44(sp)
 119 002c 02D8     		sw	zero,48(sp)
 120 002e 02DA     		sw	zero,52(sp)
 121 0030 02DC     		sw	zero,56(sp)
 122 0032 230E0102 		sb	zero,60(sp)
  35:C:/Users/stapi/OneDrive/Desktop/GD32VW553/V1_MQTT_OK/GD32VW55X_Wifi_BLE_SDK/GD32VW55x_RELEASE_V1.0.2/MSDK/cloud/alicloud/src/services/dev_bind\awss_bind_statis.c ****     char *log_buf = NULL;
 123              		.loc 1 35 5 is_stmt 1
 124              	.LVL4:
  36:C:/Users/stapi/OneDrive/Desktop/GD32VW553/V1_MQTT_OK/GD32VW55X_Wifi_BLE_SDK/GD32VW55x_RELEASE_V1.0.2/MSDK/cloud/alicloud/src/services/dev_bind\awss_bind_statis.c ****     int len = 0;
 125              		.loc 1 36 5
  37:C:/Users/stapi/OneDrive/Desktop/GD32VW553/V1_MQTT_OK/GD32VW55X_Wifi_BLE_SDK/GD32VW55x_RELEASE_V1.0.2/MSDK/cloud/alicloud/src/services/dev_bind\awss_bind_statis.c ****     int ret;
 126              		.loc 1 37 5
  38:C:/Users/stapi/OneDrive/Desktop/GD32VW553/V1_MQTT_OK/GD32VW55X_Wifi_BLE_SDK/GD32VW55x_RELEASE_V1.0.2/MSDK/cloud/alicloud/src/services/dev_bind\awss_bind_statis.c **** 
  39:C:/Users/stapi/OneDrive/Desktop/GD32VW553/V1_MQTT_OK/GD32VW55X_Wifi_BLE_SDK/GD32VW55x_RELEASE_V1.0.2/MSDK/cloud/alicloud/src/services/dev_bind\awss_bind_statis.c ****     log_content = os_zalloc(AWSS_STATIS_DB_BUF_LEN + 1);
 127              		.loc 1 39 5
 128              	.LBB35:
 129              	.LBB34:
 381:..\..\..\..\cloud\alicloud\src\services\dev_bind\os/os.h **** }
 382:..\..\..\..\cloud\alicloud\src\services\dev_bind\os/os.h **** 
 383:..\..\..\..\cloud\alicloud\src\services\dev_bind\os/os.h **** 
 384:..\..\..\..\cloud\alicloud\src\services\dev_bind\os/os.h **** /**
 385:..\..\..\..\cloud\alicloud\src\services\dev_bind\os/os.h ****  * @brief Deallocate memory block
 386:..\..\..\..\cloud\alicloud\src\services\dev_bind\os/os.h ****  *
 387:..\..\..\..\cloud\alicloud\src\services\dev_bind\os/os.h ****  * @param[in] ptr @n Pointer to a memory block previously allocated with platform_malloc.
 388:..\..\..\..\cloud\alicloud\src\services\dev_bind\os/os.h ****  * @return None.
 389:..\..\..\..\cloud\alicloud\src\services\dev_bind\os/os.h ****  * @see None.
 390:..\..\..\..\cloud\alicloud\src\services\dev_bind\os/os.h ****  * @note None.
 391:..\..\..\..\cloud\alicloud\src\services\dev_bind\os/os.h ****  */
 392:..\..\..\..\cloud\alicloud\src\services\dev_bind\os/os.h **** static inline void os_free(_IN_ void *ptr)
 393:..\..\..\..\cloud\alicloud\src\services\dev_bind\os/os.h **** {
 394:..\..\..\..\cloud\alicloud\src\services\dev_bind\os/os.h ****     platform_free(ptr);
 395:..\..\..\..\cloud\alicloud\src\services\dev_bind\os/os.h **** }
 396:..\..\..\..\cloud\alicloud\src\services\dev_bind\os/os.h **** 
 397:..\..\..\..\cloud\alicloud\src\services\dev_bind\os/os.h **** /**
 398:..\..\..\..\cloud\alicloud\src\services\dev_bind\os/os.h ****  * @brief Allocates a memory block with memory initialized to 0,
 399:..\..\..\..\cloud\alicloud\src\services\dev_bind\os/os.h ****      returning a pointer to the beginning of the block.
 400:..\..\..\..\cloud\alicloud\src\services\dev_bind\os/os.h ****  *
 401:..\..\..\..\cloud\alicloud\src\services\dev_bind\os/os.h ****  * @param[in] size @n specify block size in bytes.
 402:..\..\..\..\cloud\alicloud\src\services\dev_bind\os/os.h ****  * @return A pointer to the beginning of the block.
 403:..\..\..\..\cloud\alicloud\src\services\dev_bind\os/os.h ****  * @see None.
 404:..\..\..\..\cloud\alicloud\src\services\dev_bind\os/os.h ****  * @note Block value is indeterminate.
 405:..\..\..\..\cloud\alicloud\src\services\dev_bind\os/os.h ****  */
 406:..\..\..\..\cloud\alicloud\src\services\dev_bind\os/os.h **** static inline void *os_zalloc(uint32_t size)
 407:..\..\..\..\cloud\alicloud\src\services\dev_bind\os/os.h **** {
 408:..\..\..\..\cloud\alicloud\src\services\dev_bind\os/os.h ****     void *ptr = os_malloc(size);
 130              		.loc 2 408 5
 131              	.LBB33:
 132              	.LBB32:
 380:..\..\..\..\cloud\alicloud\src\services\dev_bind\os/os.h **** }
 133              		.loc 2 380 5
 380:..\..\..\..\cloud\alicloud\src\services\dev_bind\os/os.h **** }
 134              		.loc 2 380 12 is_stmt 0
 135 0036 97000000 		call	HAL_Malloc
 135      E7800000 
 136              	.LVL5:
 137              	.LBE32:
 138              	.LBE33:
 409:..\..\..\..\cloud\alicloud\src\services\dev_bind\os/os.h ****     if (ptr != NULL) {
 139              		.loc 2 409 5 is_stmt 1
 140              		.loc 2 409 8 is_stmt 0
 141 003e 41C9     		beq	a0,zero,.L29
 410:..\..\..\..\cloud\alicloud\src\services\dev_bind\os/os.h ****         memset(ptr, 0, size);
 142              		.loc 2 410 9
 143 0040 13061020 		li	a2,513
 144 0044 8145     		li	a1,0
 145 0046 AA84     		mv	s1,a0
 146              		.loc 2 410 9 is_stmt 1
 147 0048 97000000 		call	memset
 147      E7800000 
 148              	.LVL6:
 411:..\..\..\..\cloud\alicloud\src\services\dev_bind\os/os.h ****     }
 412:..\..\..\..\cloud\alicloud\src\services\dev_bind\os/os.h ****     return ptr;
 149              		.loc 2 412 5
 150              	.LBE34:
 151              	.LBE35:
  40:C:/Users/stapi/OneDrive/Desktop/GD32VW553/V1_MQTT_OK/GD32VW55X_Wifi_BLE_SDK/GD32VW55x_RELEASE_V1.0.2/MSDK/cloud/alicloud/src/services/dev_bind\awss_bind_statis.c ****     if (log_content == NULL)
 152              		.loc 1 40 5
  41:C:/Users/stapi/OneDrive/Desktop/GD32VW553/V1_MQTT_OK/GD32VW55X_Wifi_BLE_SDK/GD32VW55x_RELEASE_V1.0.2/MSDK/cloud/alicloud/src/services/dev_bind\awss_bind_statis.c ****         goto BIND_STATIS_ERR;
  42:C:/Users/stapi/OneDrive/Desktop/GD32VW553/V1_MQTT_OK/GD32VW55X_Wifi_BLE_SDK/GD32VW55x_RELEASE_V1.0.2/MSDK/cloud/alicloud/src/services/dev_bind\awss_bind_statis.c ****     log_buf = os_zalloc(log_buf_len + 1);
 153              		.loc 1 42 5
 154              		.loc 1 42 37 is_stmt 0
 155 0050 1256     		lw	a2,36(sp)
 156 0052 0506     		addi	a2,a2,1
 157              	.LVL7:
 158              	.LBB36:
 159              	.LBB37:
 408:..\..\..\..\cloud\alicloud\src\services\dev_bind\os/os.h ****     if (ptr != NULL) {
 160              		.loc 2 408 5 is_stmt 1
 161              	.LBB38:
 162              	.LBB39:
 380:..\..\..\..\cloud\alicloud\src\services\dev_bind\os/os.h **** }
 163              		.loc 2 380 5
 380:..\..\..\..\cloud\alicloud\src\services\dev_bind\os/os.h **** }
 164              		.loc 2 380 12 is_stmt 0
 165 0054 3285     		mv	a0,a2
 166 0056 32CE     		sw	a2,28(sp)
 167 0058 97000000 		call	HAL_Malloc
 167      E7800000 
 168              	.LVL8:
 169 0060 2A84     		mv	s0,a0
 170              	.LVL9:
 171              	.LBE39:
 172              	.LBE38:
 409:..\..\..\..\cloud\alicloud\src\services\dev_bind\os/os.h ****         memset(ptr, 0, size);
 173              		.loc 2 409 5 is_stmt 1
 409:..\..\..\..\cloud\alicloud\src\services\dev_bind\os/os.h ****         memset(ptr, 0, size);
 174              		.loc 2 409 8 is_stmt 0
 175 0062 39C9     		beq	a0,zero,.L3
 410:..\..\..\..\cloud\alicloud\src\services\dev_bind\os/os.h ****     }
 176              		.loc 2 410 9 is_stmt 1
 177 0064 7246     		lw	a2,28(sp)
 178 0066 8145     		li	a1,0
 179 0068 97000000 		call	memset
 179      E7800000 
 180              	.LVL10:
 181              		.loc 2 412 5
 182              	.LBE37:
 183              	.LBE36:
  43:C:/Users/stapi/OneDrive/Desktop/GD32VW553/V1_MQTT_OK/GD32VW55X_Wifi_BLE_SDK/GD32VW55x_RELEASE_V1.0.2/MSDK/cloud/alicloud/src/services/dev_bind\awss_bind_statis.c ****     if (log_buf == NULL)
 184              		.loc 1 43 5
  44:C:/Users/stapi/OneDrive/Desktop/GD32VW553/V1_MQTT_OK/GD32VW55X_Wifi_BLE_SDK/GD32VW55x_RELEASE_V1.0.2/MSDK/cloud/alicloud/src/services/dev_bind\awss_bind_statis.c ****         goto BIND_STATIS_ERR;
  45:C:/Users/stapi/OneDrive/Desktop/GD32VW553/V1_MQTT_OK/GD32VW55X_Wifi_BLE_SDK/GD32VW55x_RELEASE_V1.0.2/MSDK/cloud/alicloud/src/services/dev_bind\awss_bind_statis.c **** 
  46:C:/Users/stapi/OneDrive/Desktop/GD32VW553/V1_MQTT_OK/GD32VW55X_Wifi_BLE_SDK/GD32VW55x_RELEASE_V1.0.2/MSDK/cloud/alicloud/src/services/dev_bind\awss_bind_statis.c ****     if (awss_build_topic(TOPIC_POST_STATIS, statis_topic, TOPIC_LEN_MAX) == NULL) {
 185              		.loc 1 46 5
 186              		.loc 1 46 9 is_stmt 0
 187 0070 37050000 		lui	a0,%hi(.LC3)
 188 0074 13060008 		li	a2,128
 189 0078 8C00     		addi	a1,sp,64
 190 007a 13050500 		addi	a0,a0,%lo(.LC3)
 191 007e 97000000 		call	awss_build_topic
 191      E7800000 
 192              	.LVL11:
 193              		.loc 1 46 8
 194 0086 31E5     		bne	a0,zero,.L4
  47:C:/Users/stapi/OneDrive/Desktop/GD32VW553/V1_MQTT_OK/GD32VW55X_Wifi_BLE_SDK/GD32VW55x_RELEASE_V1.0.2/MSDK/cloud/alicloud/src/services/dev_bind\awss_bind_statis.c ****         awss_err("awss build statis topic fail\n");
 195              		.loc 1 47 9 is_stmt 1
 196              		.loc 1 47 9
 197 0088 37050000 		lui	a0,%hi(.LC4)
 198 008c 13050500 		addi	a0,a0,%lo(.LC4)
 199 0090 97000000 		call	HAL_Printf
 199      E7800000 
 200              	.LVL12:
 201              		.loc 1 47 9
 202 0098 37050000 		lui	a0,%hi(.LC5)
 203 009c 13050500 		addi	a0,a0,%lo(.LC5)
 204 00a0 97000000 		call	HAL_Printf
 204      E7800000 
 205              	.LVL13:
 206              		.loc 1 47 9
 207 00a8 37050000 		lui	a0,%hi(.LC6)
 208 00ac 13050500 		addi	a0,a0,%lo(.LC6)
 209 00b0 97000000 		call	HAL_Printf
 209      E7800000 
 210              	.LVL14:
 211              		.loc 1 47 9
  48:C:/Users/stapi/OneDrive/Desktop/GD32VW553/V1_MQTT_OK/GD32VW55X_Wifi_BLE_SDK/GD32VW55x_RELEASE_V1.0.2/MSDK/cloud/alicloud/src/services/dev_bind\awss_bind_statis.c ****         goto BIND_STATIS_ERR;
 212              		.loc 1 48 9
 213              	.L3:
  49:C:/Users/stapi/OneDrive/Desktop/GD32VW553/V1_MQTT_OK/GD32VW55X_Wifi_BLE_SDK/GD32VW55x_RELEASE_V1.0.2/MSDK/cloud/alicloud/src/services/dev_bind\awss_bind_statis.c ****     }
  50:C:/Users/stapi/OneDrive/Desktop/GD32VW553/V1_MQTT_OK/GD32VW55X_Wifi_BLE_SDK/GD32VW55x_RELEASE_V1.0.2/MSDK/cloud/alicloud/src/services/dev_bind\awss_bind_statis.c **** 
  51:C:/Users/stapi/OneDrive/Desktop/GD32VW553/V1_MQTT_OK/GD32VW55X_Wifi_BLE_SDK/GD32VW55x_RELEASE_V1.0.2/MSDK/cloud/alicloud/src/services/dev_bind\awss_bind_statis.c ****     if (awss_statis_db_mutex)
  52:C:/Users/stapi/OneDrive/Desktop/GD32VW553/V1_MQTT_OK/GD32VW55X_Wifi_BLE_SDK/GD32VW55x_RELEASE_V1.0.2/MSDK/cloud/alicloud/src/services/dev_bind\awss_bind_statis.c ****         HAL_MutexLock(awss_statis_db_mutex);
  53:C:/Users/stapi/OneDrive/Desktop/GD32VW553/V1_MQTT_OK/GD32VW55X_Wifi_BLE_SDK/GD32VW55x_RELEASE_V1.0.2/MSDK/cloud/alicloud/src/services/dev_bind\awss_bind_statis.c ****     do {
  54:C:/Users/stapi/OneDrive/Desktop/GD32VW553/V1_MQTT_OK/GD32VW55X_Wifi_BLE_SDK/GD32VW55x_RELEASE_V1.0.2/MSDK/cloud/alicloud/src/services/dev_bind\awss_bind_statis.c ****         if (DB_CNT == 0)
  55:C:/Users/stapi/OneDrive/Desktop/GD32VW553/V1_MQTT_OK/GD32VW55X_Wifi_BLE_SDK/GD32VW55x_RELEASE_V1.0.2/MSDK/cloud/alicloud/src/services/dev_bind\awss_bind_statis.c ****             break;
  56:C:/Users/stapi/OneDrive/Desktop/GD32VW553/V1_MQTT_OK/GD32VW55X_Wifi_BLE_SDK/GD32VW55x_RELEASE_V1.0.2/MSDK/cloud/alicloud/src/services/dev_bind\awss_bind_statis.c **** 
  57:C:/Users/stapi/OneDrive/Desktop/GD32VW553/V1_MQTT_OK/GD32VW55X_Wifi_BLE_SDK/GD32VW55x_RELEASE_V1.0.2/MSDK/cloud/alicloud/src/services/dev_bind\awss_bind_statis.c ****         len += HAL_Snprintf(log_buf + len, log_buf_len - len, elem_fmt, "SyncToken",
  58:C:/Users/stapi/OneDrive/Desktop/GD32VW553/V1_MQTT_OK/GD32VW55X_Wifi_BLE_SDK/GD32VW55x_RELEASE_V1.0.2/MSDK/cloud/alicloud/src/services/dev_bind\awss_bind_statis.c ****                 DB_TMAX, DB_TMIN, DB_TMEAN, DB_CNT, DB_SUC);
  59:C:/Users/stapi/OneDrive/Desktop/GD32VW553/V1_MQTT_OK/GD32VW55X_Wifi_BLE_SDK/GD32VW55x_RELEASE_V1.0.2/MSDK/cloud/alicloud/src/services/dev_bind\awss_bind_statis.c **** 
  60:C:/Users/stapi/OneDrive/Desktop/GD32VW553/V1_MQTT_OK/GD32VW55X_Wifi_BLE_SDK/GD32VW55x_RELEASE_V1.0.2/MSDK/cloud/alicloud/src/services/dev_bind\awss_bind_statis.c ****         HAL_Snprintf(log_content, AWSS_STATIS_DB_BUF_LEN, AWSS_STATIS_FMT, (uint32_t)HAL_UptimeMs()
  61:C:/Users/stapi/OneDrive/Desktop/GD32VW553/V1_MQTT_OK/GD32VW55X_Wifi_BLE_SDK/GD32VW55x_RELEASE_V1.0.2/MSDK/cloud/alicloud/src/services/dev_bind\awss_bind_statis.c ****                 module == NULL ? "default" : module, awss_statis_db_trace_id, log_buf);
  62:C:/Users/stapi/OneDrive/Desktop/GD32VW553/V1_MQTT_OK/GD32VW55X_Wifi_BLE_SDK/GD32VW55x_RELEASE_V1.0.2/MSDK/cloud/alicloud/src/services/dev_bind\awss_bind_statis.c **** 
  63:C:/Users/stapi/OneDrive/Desktop/GD32VW553/V1_MQTT_OK/GD32VW55X_Wifi_BLE_SDK/GD32VW55x_RELEASE_V1.0.2/MSDK/cloud/alicloud/src/services/dev_bind\awss_bind_statis.c ****         HAL_Snprintf(id_str, sizeof(id_str), "%u", ++ awss_statis_db_report_id);
  64:C:/Users/stapi/OneDrive/Desktop/GD32VW553/V1_MQTT_OK/GD32VW55X_Wifi_BLE_SDK/GD32VW55x_RELEASE_V1.0.2/MSDK/cloud/alicloud/src/services/dev_bind\awss_bind_statis.c **** 
  65:C:/Users/stapi/OneDrive/Desktop/GD32VW553/V1_MQTT_OK/GD32VW55X_Wifi_BLE_SDK/GD32VW55x_RELEASE_V1.0.2/MSDK/cloud/alicloud/src/services/dev_bind\awss_bind_statis.c ****         awss_build_packet(AWSS_CMP_PKT_TYPE_REQ, id_str, ILOP_VER, METHOD_LOG_POST, log_content, 0,
  66:C:/Users/stapi/OneDrive/Desktop/GD32VW553/V1_MQTT_OK/GD32VW55X_Wifi_BLE_SDK/GD32VW55x_RELEASE_V1.0.2/MSDK/cloud/alicloud/src/services/dev_bind\awss_bind_statis.c ****                 log_buf, &log_buf_len);
  67:C:/Users/stapi/OneDrive/Desktop/GD32VW553/V1_MQTT_OK/GD32VW55X_Wifi_BLE_SDK/GD32VW55x_RELEASE_V1.0.2/MSDK/cloud/alicloud/src/services/dev_bind\awss_bind_statis.c **** 
  68:C:/Users/stapi/OneDrive/Desktop/GD32VW553/V1_MQTT_OK/GD32VW55X_Wifi_BLE_SDK/GD32VW55x_RELEASE_V1.0.2/MSDK/cloud/alicloud/src/services/dev_bind\awss_bind_statis.c ****         awss_debug("%s\n", log_buf);
  69:C:/Users/stapi/OneDrive/Desktop/GD32VW553/V1_MQTT_OK/GD32VW55X_Wifi_BLE_SDK/GD32VW55x_RELEASE_V1.0.2/MSDK/cloud/alicloud/src/services/dev_bind\awss_bind_statis.c **** 
  70:C:/Users/stapi/OneDrive/Desktop/GD32VW553/V1_MQTT_OK/GD32VW55X_Wifi_BLE_SDK/GD32VW55x_RELEASE_V1.0.2/MSDK/cloud/alicloud/src/services/dev_bind\awss_bind_statis.c ****         ret = awss_cmp_mqtt_send(statis_topic, log_buf, strlen(log_buf), 0);
  71:C:/Users/stapi/OneDrive/Desktop/GD32VW553/V1_MQTT_OK/GD32VW55X_Wifi_BLE_SDK/GD32VW55x_RELEASE_V1.0.2/MSDK/cloud/alicloud/src/services/dev_bind\awss_bind_statis.c **** 
  72:C:/Users/stapi/OneDrive/Desktop/GD32VW553/V1_MQTT_OK/GD32VW55X_Wifi_BLE_SDK/GD32VW55x_RELEASE_V1.0.2/MSDK/cloud/alicloud/src/services/dev_bind\awss_bind_statis.c ****         awss_info("bind report statis %s\n", ret == 0 ? "success" : "fail");
  73:C:/Users/stapi/OneDrive/Desktop/GD32VW553/V1_MQTT_OK/GD32VW55X_Wifi_BLE_SDK/GD32VW55x_RELEASE_V1.0.2/MSDK/cloud/alicloud/src/services/dev_bind\awss_bind_statis.c ****     } while (0);
  74:C:/Users/stapi/OneDrive/Desktop/GD32VW553/V1_MQTT_OK/GD32VW55X_Wifi_BLE_SDK/GD32VW55x_RELEASE_V1.0.2/MSDK/cloud/alicloud/src/services/dev_bind\awss_bind_statis.c **** 
  75:C:/Users/stapi/OneDrive/Desktop/GD32VW553/V1_MQTT_OK/GD32VW55X_Wifi_BLE_SDK/GD32VW55x_RELEASE_V1.0.2/MSDK/cloud/alicloud/src/services/dev_bind\awss_bind_statis.c ****     if (awss_statis_db_mutex)
  76:C:/Users/stapi/OneDrive/Desktop/GD32VW553/V1_MQTT_OK/GD32VW55X_Wifi_BLE_SDK/GD32VW55x_RELEASE_V1.0.2/MSDK/cloud/alicloud/src/services/dev_bind\awss_bind_statis.c ****         HAL_MutexUnlock(awss_statis_db_mutex);
  77:C:/Users/stapi/OneDrive/Desktop/GD32VW553/V1_MQTT_OK/GD32VW55X_Wifi_BLE_SDK/GD32VW55x_RELEASE_V1.0.2/MSDK/cloud/alicloud/src/services/dev_bind\awss_bind_statis.c **** 
  78:C:/Users/stapi/OneDrive/Desktop/GD32VW553/V1_MQTT_OK/GD32VW55X_Wifi_BLE_SDK/GD32VW55x_RELEASE_V1.0.2/MSDK/cloud/alicloud/src/services/dev_bind\awss_bind_statis.c ****     os_free(log_buf);
  79:C:/Users/stapi/OneDrive/Desktop/GD32VW553/V1_MQTT_OK/GD32VW55X_Wifi_BLE_SDK/GD32VW55x_RELEASE_V1.0.2/MSDK/cloud/alicloud/src/services/dev_bind\awss_bind_statis.c ****     os_free(log_content);
  80:C:/Users/stapi/OneDrive/Desktop/GD32VW553/V1_MQTT_OK/GD32VW55X_Wifi_BLE_SDK/GD32VW55x_RELEASE_V1.0.2/MSDK/cloud/alicloud/src/services/dev_bind\awss_bind_statis.c **** 
  81:C:/Users/stapi/OneDrive/Desktop/GD32VW553/V1_MQTT_OK/GD32VW55X_Wifi_BLE_SDK/GD32VW55x_RELEASE_V1.0.2/MSDK/cloud/alicloud/src/services/dev_bind\awss_bind_statis.c ****     return 0;
  82:C:/Users/stapi/OneDrive/Desktop/GD32VW553/V1_MQTT_OK/GD32VW55X_Wifi_BLE_SDK/GD32VW55x_RELEASE_V1.0.2/MSDK/cloud/alicloud/src/services/dev_bind\awss_bind_statis.c **** 
  83:C:/Users/stapi/OneDrive/Desktop/GD32VW553/V1_MQTT_OK/GD32VW55X_Wifi_BLE_SDK/GD32VW55x_RELEASE_V1.0.2/MSDK/cloud/alicloud/src/services/dev_bind\awss_bind_statis.c **** BIND_STATIS_ERR:
  84:C:/Users/stapi/OneDrive/Desktop/GD32VW553/V1_MQTT_OK/GD32VW55X_Wifi_BLE_SDK/GD32VW55x_RELEASE_V1.0.2/MSDK/cloud/alicloud/src/services/dev_bind\awss_bind_statis.c ****     if (log_content) os_free(log_content);
 214              		.loc 1 84 5
 215              		.loc 1 84 22
 216              	.LBB40:
 217              	.LBB41:
 394:..\..\..\..\cloud\alicloud\src\services\dev_bind\os/os.h **** }
 218              		.loc 2 394 5
 219 00b8 2685     		mv	a0,s1
 220 00ba 97000000 		call	HAL_Free
 220      E7800000 
 221              	.LVL15:
 222              	.LBE41:
 223              	.LBE40:
  85:C:/Users/stapi/OneDrive/Desktop/GD32VW553/V1_MQTT_OK/GD32VW55X_Wifi_BLE_SDK/GD32VW55x_RELEASE_V1.0.2/MSDK/cloud/alicloud/src/services/dev_bind\awss_bind_statis.c ****     if (log_buf) os_free(log_buf);
 224              		.loc 1 85 5
 225              		.loc 1 85 8 is_stmt 0
 226 00c2 11C4     		beq	s0,zero,.L29
 227              		.loc 1 85 18 is_stmt 1
 228              	.LVL16:
 229              	.LBB42:
 230              	.LBB43:
 394:..\..\..\..\cloud\alicloud\src\services\dev_bind\os/os.h **** }
 231              		.loc 2 394 5
 232 00c4 2285     		mv	a0,s0
 233 00c6 97000000 		call	HAL_Free
 233      E7800000 
 234              	.LVL17:
 235              	.L29:
 236              	.LBE43:
 237              	.LBE42:
  86:C:/Users/stapi/OneDrive/Desktop/GD32VW553/V1_MQTT_OK/GD32VW55X_Wifi_BLE_SDK/GD32VW55x_RELEASE_V1.0.2/MSDK/cloud/alicloud/src/services/dev_bind\awss_bind_statis.c ****     return -1;
 238              		.loc 1 86 12 is_stmt 0
 239 00ce 7D55     		li	a0,-1
 240              	.LBB45:
 241              	.LBB44:
 395:..\..\..\..\cloud\alicloud\src\services\dev_bind\os/os.h **** 
 242              		.loc 2 395 1
 243 00d0 B5AA     		j	.L1
 244              	.LVL18:
 245              	.L4:
 246              	.LBE44:
 247              	.LBE45:
  51:C:/Users/stapi/OneDrive/Desktop/GD32VW553/V1_MQTT_OK/GD32VW55X_Wifi_BLE_SDK/GD32VW55x_RELEASE_V1.0.2/MSDK/cloud/alicloud/src/services/dev_bind\awss_bind_statis.c ****         HAL_MutexLock(awss_statis_db_mutex);
 248              		.loc 1 51 5 is_stmt 1
  51:C:/Users/stapi/OneDrive/Desktop/GD32VW553/V1_MQTT_OK/GD32VW55X_Wifi_BLE_SDK/GD32VW55x_RELEASE_V1.0.2/MSDK/cloud/alicloud/src/services/dev_bind\awss_bind_statis.c ****         HAL_MutexLock(awss_statis_db_mutex);
 249              		.loc 1 51 9 is_stmt 0
 250 00d2 B7090000 		lui	s3,%hi(.LANCHOR0)
 251 00d6 03A50900 		lw	a0,%lo(.LANCHOR0)(s3)
 252 00da 93890900 		addi	s3,s3,%lo(.LANCHOR0)
  51:C:/Users/stapi/OneDrive/Desktop/GD32VW553/V1_MQTT_OK/GD32VW55X_Wifi_BLE_SDK/GD32VW55x_RELEASE_V1.0.2/MSDK/cloud/alicloud/src/services/dev_bind\awss_bind_statis.c ****         HAL_MutexLock(awss_statis_db_mutex);
 253              		.loc 1 51 8
 254 00de 09C5     		beq	a0,zero,.L5
  52:C:/Users/stapi/OneDrive/Desktop/GD32VW553/V1_MQTT_OK/GD32VW55X_Wifi_BLE_SDK/GD32VW55x_RELEASE_V1.0.2/MSDK/cloud/alicloud/src/services/dev_bind\awss_bind_statis.c ****     do {
 255              		.loc 1 52 9 is_stmt 1
 256 00e0 97000000 		call	HAL_MutexLock
 256      E7800000 
 257              	.LVL19:
 258              	.L5:
  53:C:/Users/stapi/OneDrive/Desktop/GD32VW553/V1_MQTT_OK/GD32VW55X_Wifi_BLE_SDK/GD32VW55x_RELEASE_V1.0.2/MSDK/cloud/alicloud/src/services/dev_bind\awss_bind_statis.c ****         if (DB_CNT == 0)
 259              		.loc 1 53 5
  54:C:/Users/stapi/OneDrive/Desktop/GD32VW553/V1_MQTT_OK/GD32VW55X_Wifi_BLE_SDK/GD32VW55x_RELEASE_V1.0.2/MSDK/cloud/alicloud/src/services/dev_bind\awss_bind_statis.c ****             break;
 260              		.loc 1 54 9
  54:C:/Users/stapi/OneDrive/Desktop/GD32VW553/V1_MQTT_OK/GD32VW55X_Wifi_BLE_SDK/GD32VW55x_RELEASE_V1.0.2/MSDK/cloud/alicloud/src/services/dev_bind\awss_bind_statis.c ****             break;
 261              		.loc 1 54 13 is_stmt 0
 262 00e8 37070000 		lui	a4,%hi(.LANCHOR1)
 263 00ec 13070700 		addi	a4,a4,%lo(.LANCHOR1)
 264 00f0 83280700 		lw	a7,0(a4)
  54:C:/Users/stapi/OneDrive/Desktop/GD32VW553/V1_MQTT_OK/GD32VW55X_Wifi_BLE_SDK/GD32VW55x_RELEASE_V1.0.2/MSDK/cloud/alicloud/src/services/dev_bind\awss_bind_statis.c ****             break;
 265              		.loc 1 54 12
 266 00f4 638A0812 		beq	a7,zero,.L6
  57:C:/Users/stapi/OneDrive/Desktop/GD32VW553/V1_MQTT_OK/GD32VW55X_Wifi_BLE_SDK/GD32VW55x_RELEASE_V1.0.2/MSDK/cloud/alicloud/src/services/dev_bind\awss_bind_statis.c ****                 DB_TMAX, DB_TMIN, DB_TMEAN, DB_CNT, DB_SUC);
 267              		.loc 1 57 9 is_stmt 1
  57:C:/Users/stapi/OneDrive/Desktop/GD32VW553/V1_MQTT_OK/GD32VW55X_Wifi_BLE_SDK/GD32VW55x_RELEASE_V1.0.2/MSDK/cloud/alicloud/src/services/dev_bind\awss_bind_statis.c ****                 DB_TMAX, DB_TMIN, DB_TMEAN, DB_CNT, DB_SUC);
 268              		.loc 1 57 16 is_stmt 0
 269 00f8 5C43     		lw	a5,4(a4)
 270 00fa 9255     		lw	a1,36(sp)
 271 00fc B7060000 		lui	a3,%hi(.LC7)
 272 0100 3EC0     		sw	a5,0(sp)
 273 0102 03288700 		lw	a6,8(a4)
 274 0106 1C4B     		lw	a5,16(a4)
 275 0108 5847     		lw	a4,12(a4)
 276 010a 37060000 		lui	a2,%hi(.LC8)
 277 010e 93860600 		addi	a3,a3,%lo(.LC7)
 278 0112 13060600 		addi	a2,a2,%lo(.LC8)
 279 0116 2285     		mv	a0,s0
 280 0118 97000000 		call	HAL_Snprintf
 280      E7800000 
 281              	.LVL20:
  60:C:/Users/stapi/OneDrive/Desktop/GD32VW553/V1_MQTT_OK/GD32VW55X_Wifi_BLE_SDK/GD32VW55x_RELEASE_V1.0.2/MSDK/cloud/alicloud/src/services/dev_bind\awss_bind_statis.c ****                 module == NULL ? "default" : module, awss_statis_db_trace_id, log_buf);
 282              		.loc 1 60 9 is_stmt 1
  60:C:/Users/stapi/OneDrive/Desktop/GD32VW553/V1_MQTT_OK/GD32VW55X_Wifi_BLE_SDK/GD32VW55x_RELEASE_V1.0.2/MSDK/cloud/alicloud/src/services/dev_bind\awss_bind_statis.c ****                 module == NULL ? "default" : module, awss_statis_db_trace_id, log_buf);
 283              		.loc 1 60 86 is_stmt 0
 284 0120 97000000 		call	HAL_UptimeMs
 284      E7800000 
 285              	.LVL21:
 286 0128 AA86     		mv	a3,a0
  60:C:/Users/stapi/OneDrive/Desktop/GD32VW553/V1_MQTT_OK/GD32VW55X_Wifi_BLE_SDK/GD32VW55x_RELEASE_V1.0.2/MSDK/cloud/alicloud/src/services/dev_bind\awss_bind_statis.c ****                 module == NULL ? "default" : module, awss_statis_db_trace_id, log_buf);
 287              		.loc 1 60 9
 288 012a 63160900 		bne	s2,zero,.L7
 289 012e 37090000 		lui	s2,%hi(.LC0)
 290              	.LVL22:
 291 0132 13090900 		addi	s2,s2,%lo(.LC0)
 292              	.L7:
  60:C:/Users/stapi/OneDrive/Desktop/GD32VW553/V1_MQTT_OK/GD32VW55X_Wifi_BLE_SDK/GD32VW55x_RELEASE_V1.0.2/MSDK/cloud/alicloud/src/services/dev_bind\awss_bind_statis.c ****                 module == NULL ? "default" : module, awss_statis_db_trace_id, log_buf);
 293              		.loc 1 60 9 discriminator 4
 294 0136 B7070000 		lui	a5,%hi(.LANCHOR2)
 295 013a 03A80700 		lw	a6,%lo(.LANCHOR2)(a5)
 296 013e 37070000 		lui	a4,%hi(.LC9)
 297 0142 37060000 		lui	a2,%hi(.LC10)
 298 0146 A288     		mv	a7,s0
 299 0148 CA87     		mv	a5,s2
 300 014a 13070700 		addi	a4,a4,%lo(.LC9)
 301 014e 13060600 		addi	a2,a2,%lo(.LC10)
 302 0152 93050020 		li	a1,512
 303 0156 2685     		mv	a0,s1
 304 0158 97000000 		call	HAL_Snprintf
 304      E7800000 
 305              	.LVL23:
  63:C:/Users/stapi/OneDrive/Desktop/GD32VW553/V1_MQTT_OK/GD32VW55X_Wifi_BLE_SDK/GD32VW55x_RELEASE_V1.0.2/MSDK/cloud/alicloud/src/services/dev_bind\awss_bind_statis.c **** 
 306              		.loc 1 63 9 is_stmt 1 discriminator 4
 307 0160 B7070000 		lui	a5,%hi(.LANCHOR3)
 308 0164 93870700 		addi	a5,a5,%lo(.LANCHOR3)
 309 0168 9443     		lw	a3,0(a5)
 310 016a 37060000 		lui	a2,%hi(.LC11)
 311 016e 13060600 		addi	a2,a2,%lo(.LC11)
 312 0172 8506     		addi	a3,a3,1
 313 0174 D545     		li	a1,21
 314 0176 2810     		addi	a0,sp,40
 315 0178 94C3     		sw	a3,0(a5)
 316 017a 97000000 		call	HAL_Snprintf
 316      E7800000 
 317              	.LVL24:
  65:C:/Users/stapi/OneDrive/Desktop/GD32VW553/V1_MQTT_OK/GD32VW55X_Wifi_BLE_SDK/GD32VW55x_RELEASE_V1.0.2/MSDK/cloud/alicloud/src/services/dev_bind\awss_bind_statis.c ****                 log_buf, &log_buf_len);
 318              		.loc 1 65 9 discriminator 4
 319 0182 B7060000 		lui	a3,%hi(.LC12)
 320 0186 37060000 		lui	a2,%hi(.LC13)
 321 018a 93084102 		addi	a7,sp,36
 322 018e 2288     		mv	a6,s0
 323 0190 8147     		li	a5,0
 324 0192 2687     		mv	a4,s1
 325 0194 93860600 		addi	a3,a3,%lo(.LC12)
 326 0198 13060600 		addi	a2,a2,%lo(.LC13)
 327 019c 2C10     		addi	a1,sp,40
 328 019e 0545     		li	a0,1
 329 01a0 97000000 		call	awss_build_packet
 329      E7800000 
 330              	.LVL25:
  68:C:/Users/stapi/OneDrive/Desktop/GD32VW553/V1_MQTT_OK/GD32VW55X_Wifi_BLE_SDK/GD32VW55x_RELEASE_V1.0.2/MSDK/cloud/alicloud/src/services/dev_bind\awss_bind_statis.c **** 
 331              		.loc 1 68 9 discriminator 4
 332 01a8 37070000 		lui	a4,%hi(.LC14)
 333 01ac B7050000 		lui	a1,%hi(.LANCHOR4)
 334 01b0 37050000 		lui	a0,%hi(.LC15)
 335 01b4 A287     		mv	a5,s0
 336 01b6 13070700 		addi	a4,a4,%lo(.LC14)
 337 01ba 9546     		li	a3,5
 338 01bc 13064004 		li	a2,68
 339 01c0 93850500 		addi	a1,a1,%lo(.LANCHOR4)
 340 01c4 13050500 		addi	a0,a0,%lo(.LC15)
 341 01c8 97000000 		call	LITE_syslog
 341      E7800000 
 342              	.LVL26:
  70:C:/Users/stapi/OneDrive/Desktop/GD32VW553/V1_MQTT_OK/GD32VW55X_Wifi_BLE_SDK/GD32VW55x_RELEASE_V1.0.2/MSDK/cloud/alicloud/src/services/dev_bind\awss_bind_statis.c **** 
 343              		.loc 1 70 9 discriminator 4
  70:C:/Users/stapi/OneDrive/Desktop/GD32VW553/V1_MQTT_OK/GD32VW55X_Wifi_BLE_SDK/GD32VW55x_RELEASE_V1.0.2/MSDK/cloud/alicloud/src/services/dev_bind\awss_bind_statis.c **** 
 344              		.loc 1 70 57 is_stmt 0 discriminator 4
 345 01d0 2285     		mv	a0,s0
 346 01d2 97000000 		call	strlen
 346      E7800000 
 347              	.LVL27:
 348 01da 2A86     		mv	a2,a0
  70:C:/Users/stapi/OneDrive/Desktop/GD32VW553/V1_MQTT_OK/GD32VW55X_Wifi_BLE_SDK/GD32VW55x_RELEASE_V1.0.2/MSDK/cloud/alicloud/src/services/dev_bind\awss_bind_statis.c **** 
 349              		.loc 1 70 15 discriminator 4
 350 01dc 8146     		li	a3,0
 351 01de A285     		mv	a1,s0
 352 01e0 8800     		addi	a0,sp,64
 353 01e2 97000000 		call	awss_cmp_mqtt_send
 353      E7800000 
 354              	.LVL28:
 355 01ea 2A89     		mv	s2,a0
 356              	.LVL29:
  72:C:/Users/stapi/OneDrive/Desktop/GD32VW553/V1_MQTT_OK/GD32VW55X_Wifi_BLE_SDK/GD32VW55x_RELEASE_V1.0.2/MSDK/cloud/alicloud/src/services/dev_bind\awss_bind_statis.c ****     } while (0);
 357              		.loc 1 72 9 is_stmt 1 discriminator 4
  72:C:/Users/stapi/OneDrive/Desktop/GD32VW553/V1_MQTT_OK/GD32VW55X_Wifi_BLE_SDK/GD32VW55x_RELEASE_V1.0.2/MSDK/cloud/alicloud/src/services/dev_bind\awss_bind_statis.c ****     } while (0);
 358              		.loc 1 72 9 discriminator 4
 359 01ec 37050000 		lui	a0,%hi(.LC16)
 360              	.LVL30:
 361 01f0 13050500 		addi	a0,a0,%lo(.LC16)
 362 01f4 97000000 		call	HAL_Printf
 362      E7800000 
 363              	.LVL31:
  72:C:/Users/stapi/OneDrive/Desktop/GD32VW553/V1_MQTT_OK/GD32VW55X_Wifi_BLE_SDK/GD32VW55x_RELEASE_V1.0.2/MSDK/cloud/alicloud/src/services/dev_bind\awss_bind_statis.c ****     } while (0);
 364              		.loc 1 72 9 discriminator 4
 365 01fc 630D0904 		beq	s2,zero,.L12
  72:C:/Users/stapi/OneDrive/Desktop/GD32VW553/V1_MQTT_OK/GD32VW55X_Wifi_BLE_SDK/GD32VW55x_RELEASE_V1.0.2/MSDK/cloud/alicloud/src/services/dev_bind\awss_bind_statis.c ****     } while (0);
 366              		.loc 1 72 9 is_stmt 0
 367 0200 B7050000 		lui	a1,%hi(.LC2)
 368 0204 93850500 		addi	a1,a1,%lo(.LC2)
 369              	.L8:
  72:C:/Users/stapi/OneDrive/Desktop/GD32VW553/V1_MQTT_OK/GD32VW55X_Wifi_BLE_SDK/GD32VW55x_RELEASE_V1.0.2/MSDK/cloud/alicloud/src/services/dev_bind\awss_bind_statis.c ****     } while (0);
 370              		.loc 1 72 9 discriminator 4
 371 0208 37050000 		lui	a0,%hi(.LC17)
 372 020c 13050500 		addi	a0,a0,%lo(.LC17)
 373 0210 97000000 		call	HAL_Printf
 373      E7800000 
 374              	.LVL32:
  72:C:/Users/stapi/OneDrive/Desktop/GD32VW553/V1_MQTT_OK/GD32VW55X_Wifi_BLE_SDK/GD32VW55x_RELEASE_V1.0.2/MSDK/cloud/alicloud/src/services/dev_bind\awss_bind_statis.c ****     } while (0);
 375              		.loc 1 72 9 is_stmt 1 discriminator 4
 376 0218 37050000 		lui	a0,%hi(.LC6)
 377 021c 13050500 		addi	a0,a0,%lo(.LC6)
 378 0220 97000000 		call	HAL_Printf
 378      E7800000 
 379              	.LVL33:
 380              	.L6:
  72:C:/Users/stapi/OneDrive/Desktop/GD32VW553/V1_MQTT_OK/GD32VW55X_Wifi_BLE_SDK/GD32VW55x_RELEASE_V1.0.2/MSDK/cloud/alicloud/src/services/dev_bind\awss_bind_statis.c ****     } while (0);
 381              		.loc 1 72 9 discriminator 5
  73:C:/Users/stapi/OneDrive/Desktop/GD32VW553/V1_MQTT_OK/GD32VW55X_Wifi_BLE_SDK/GD32VW55x_RELEASE_V1.0.2/MSDK/cloud/alicloud/src/services/dev_bind\awss_bind_statis.c **** 
 382              		.loc 1 73 13 discriminator 5
  75:C:/Users/stapi/OneDrive/Desktop/GD32VW553/V1_MQTT_OK/GD32VW55X_Wifi_BLE_SDK/GD32VW55x_RELEASE_V1.0.2/MSDK/cloud/alicloud/src/services/dev_bind\awss_bind_statis.c ****         HAL_MutexUnlock(awss_statis_db_mutex);
 383              		.loc 1 75 5 discriminator 5
  75:C:/Users/stapi/OneDrive/Desktop/GD32VW553/V1_MQTT_OK/GD32VW55X_Wifi_BLE_SDK/GD32VW55x_RELEASE_V1.0.2/MSDK/cloud/alicloud/src/services/dev_bind\awss_bind_statis.c ****         HAL_MutexUnlock(awss_statis_db_mutex);
 384              		.loc 1 75 9 is_stmt 0 discriminator 5
 385 0228 03A50900 		lw	a0,0(s3)
  75:C:/Users/stapi/OneDrive/Desktop/GD32VW553/V1_MQTT_OK/GD32VW55X_Wifi_BLE_SDK/GD32VW55x_RELEASE_V1.0.2/MSDK/cloud/alicloud/src/services/dev_bind\awss_bind_statis.c ****         HAL_MutexUnlock(awss_statis_db_mutex);
 386              		.loc 1 75 8 discriminator 5
 387 022c 09C5     		beq	a0,zero,.L9
  76:C:/Users/stapi/OneDrive/Desktop/GD32VW553/V1_MQTT_OK/GD32VW55X_Wifi_BLE_SDK/GD32VW55x_RELEASE_V1.0.2/MSDK/cloud/alicloud/src/services/dev_bind\awss_bind_statis.c **** 
 388              		.loc 1 76 9 is_stmt 1
 389 022e 97000000 		call	HAL_MutexUnlock
 389      E7800000 
 390              	.LVL34:
 391              	.L9:
  78:C:/Users/stapi/OneDrive/Desktop/GD32VW553/V1_MQTT_OK/GD32VW55X_Wifi_BLE_SDK/GD32VW55x_RELEASE_V1.0.2/MSDK/cloud/alicloud/src/services/dev_bind\awss_bind_statis.c ****     os_free(log_content);
 392              		.loc 1 78 5
 393              	.LBB46:
 394              	.LBB47:
 394:..\..\..\..\cloud\alicloud\src\services\dev_bind\os/os.h **** }
 395              		.loc 2 394 5
 396 0236 2285     		mv	a0,s0
 397 0238 97000000 		call	HAL_Free
 397      E7800000 
 398              	.LVL35:
 399              	.LBE47:
 400              	.LBE46:
  79:C:/Users/stapi/OneDrive/Desktop/GD32VW553/V1_MQTT_OK/GD32VW55X_Wifi_BLE_SDK/GD32VW55x_RELEASE_V1.0.2/MSDK/cloud/alicloud/src/services/dev_bind\awss_bind_statis.c **** 
 401              		.loc 1 79 5
 402              	.LBB48:
 403              	.LBB49:
 394:..\..\..\..\cloud\alicloud\src\services\dev_bind\os/os.h **** }
 404              		.loc 2 394 5
 405 0240 2685     		mv	a0,s1
 406 0242 97000000 		call	HAL_Free
 406      E7800000 
 407              	.LVL36:
 408              	.LBE49:
 409              	.LBE48:
  81:C:/Users/stapi/OneDrive/Desktop/GD32VW553/V1_MQTT_OK/GD32VW55X_Wifi_BLE_SDK/GD32VW55x_RELEASE_V1.0.2/MSDK/cloud/alicloud/src/services/dev_bind\awss_bind_statis.c **** 
 410              		.loc 1 81 5
  81:C:/Users/stapi/OneDrive/Desktop/GD32VW553/V1_MQTT_OK/GD32VW55X_Wifi_BLE_SDK/GD32VW55x_RELEASE_V1.0.2/MSDK/cloud/alicloud/src/services/dev_bind\awss_bind_statis.c **** 
 411              		.loc 1 81 12 is_stmt 0
 412 024a 0145     		li	a0,0
 413              	.LVL37:
 414              	.L1:
  87:C:/Users/stapi/OneDrive/Desktop/GD32VW553/V1_MQTT_OK/GD32VW55X_Wifi_BLE_SDK/GD32VW55x_RELEASE_V1.0.2/MSDK/cloud/alicloud/src/services/dev_bind\awss_bind_statis.c **** }
 415              		.loc 1 87 1
 416 024c 2961     		addi	sp,sp,192
 417              		.cfi_remember_state
 418              		.cfi_def_cfa_offset 0
 419 024e 17030000 		tail	__riscv_restore_4
 419      67000300 
 420              		.cfi_restore 19
 421              		.cfi_restore 18
 422              		.cfi_restore 9
 423              		.cfi_restore 8
 424              		.cfi_restore 1
 425              		.cfi_def_cfa_offset -32
 426              	.LVL38:
 427              	.L12:
 428              		.cfi_restore_state
  72:C:/Users/stapi/OneDrive/Desktop/GD32VW553/V1_MQTT_OK/GD32VW55X_Wifi_BLE_SDK/GD32VW55x_RELEASE_V1.0.2/MSDK/cloud/alicloud/src/services/dev_bind\awss_bind_statis.c ****     } while (0);
 429              		.loc 1 72 9
 430 0256 B7050000 		lui	a1,%hi(.LC1)
 431 025a 93850500 		addi	a1,a1,%lo(.LC1)
 432 025e 6DB7     		j	.L8
 433              		.cfi_endproc
 434              	.LFE48:
 436              		.section	.text.awss_bind_clear_statis,"ax",@progbits
 437              		.align	1
 438              		.globl	awss_bind_clear_statis
 440              	awss_bind_clear_statis:
 441              	.LFB49:
  88:C:/Users/stapi/OneDrive/Desktop/GD32VW553/V1_MQTT_OK/GD32VW55X_Wifi_BLE_SDK/GD32VW55x_RELEASE_V1.0.2/MSDK/cloud/alicloud/src/services/dev_bind\awss_bind_statis.c **** 
  89:C:/Users/stapi/OneDrive/Desktop/GD32VW553/V1_MQTT_OK/GD32VW55X_Wifi_BLE_SDK/GD32VW55x_RELEASE_V1.0.2/MSDK/cloud/alicloud/src/services/dev_bind\awss_bind_statis.c **** void awss_bind_clear_statis()
  90:C:/Users/stapi/OneDrive/Desktop/GD32VW553/V1_MQTT_OK/GD32VW55X_Wifi_BLE_SDK/GD32VW55x_RELEASE_V1.0.2/MSDK/cloud/alicloud/src/services/dev_bind\awss_bind_statis.c **** {
 442              		.loc 1 90 1 is_stmt 1
 443              		.cfi_startproc
 444 0000 17030000 		call	t0,__riscv_save_1
 444      E7020300 
 445              		.cfi_offset 8, -8
 446              		.cfi_offset 1, -4
 447              		.cfi_def_cfa_offset 16
  91:C:/Users/stapi/OneDrive/Desktop/GD32VW553/V1_MQTT_OK/GD32VW55X_Wifi_BLE_SDK/GD32VW55x_RELEASE_V1.0.2/MSDK/cloud/alicloud/src/services/dev_bind\awss_bind_statis.c ****     if (awss_statis_db_mutex)
 448              		.loc 1 91 5
 449              		.loc 1 91 9 is_stmt 0
 450 0008 37040000 		lui	s0,%hi(.LANCHOR0)
 451 000c 03250400 		lw	a0,%lo(.LANCHOR0)(s0)
 452 0010 13040400 		addi	s0,s0,%lo(.LANCHOR0)
 453              		.loc 1 91 8
 454 0014 09C5     		beq	a0,zero,.L31
  92:C:/Users/stapi/OneDrive/Desktop/GD32VW553/V1_MQTT_OK/GD32VW55X_Wifi_BLE_SDK/GD32VW55x_RELEASE_V1.0.2/MSDK/cloud/alicloud/src/services/dev_bind\awss_bind_statis.c ****         HAL_MutexLock(awss_statis_db_mutex);
 455              		.loc 1 92 9 is_stmt 1
 456 0016 97000000 		call	HAL_MutexLock
 456      E7800000 
 457              	.LVL39:
 458              	.L31:
  93:C:/Users/stapi/OneDrive/Desktop/GD32VW553/V1_MQTT_OK/GD32VW55X_Wifi_BLE_SDK/GD32VW55x_RELEASE_V1.0.2/MSDK/cloud/alicloud/src/services/dev_bind\awss_bind_statis.c **** 
  94:C:/Users/stapi/OneDrive/Desktop/GD32VW553/V1_MQTT_OK/GD32VW55X_Wifi_BLE_SDK/GD32VW55x_RELEASE_V1.0.2/MSDK/cloud/alicloud/src/services/dev_bind\awss_bind_statis.c ****     memset(&g_db_statis, 0, sizeof(g_db_statis));
 459              		.loc 1 94 5
 460 001e 37050000 		lui	a0,%hi(.LANCHOR1)
 461 0022 7146     		li	a2,28
 462 0024 8145     		li	a1,0
 463 0026 13050500 		addi	a0,a0,%lo(.LANCHOR1)
 464 002a 97000000 		call	memset
 464      E7800000 
 465              	.LVL40:
  95:C:/Users/stapi/OneDrive/Desktop/GD32VW553/V1_MQTT_OK/GD32VW55X_Wifi_BLE_SDK/GD32VW55x_RELEASE_V1.0.2/MSDK/cloud/alicloud/src/services/dev_bind\awss_bind_statis.c **** 
  96:C:/Users/stapi/OneDrive/Desktop/GD32VW553/V1_MQTT_OK/GD32VW55X_Wifi_BLE_SDK/GD32VW55x_RELEASE_V1.0.2/MSDK/cloud/alicloud/src/services/dev_bind\awss_bind_statis.c ****     awss_statis_db_trace_id = 0;
 466              		.loc 1 96 5
 467              		.loc 1 96 29 is_stmt 0
 468 0032 B7070000 		lui	a5,%hi(.LANCHOR2)
  97:C:/Users/stapi/OneDrive/Desktop/GD32VW553/V1_MQTT_OK/GD32VW55X_Wifi_BLE_SDK/GD32VW55x_RELEASE_V1.0.2/MSDK/cloud/alicloud/src/services/dev_bind\awss_bind_statis.c ****     awss_statis_db_report_id = 0;
  98:C:/Users/stapi/OneDrive/Desktop/GD32VW553/V1_MQTT_OK/GD32VW55X_Wifi_BLE_SDK/GD32VW55x_RELEASE_V1.0.2/MSDK/cloud/alicloud/src/services/dev_bind\awss_bind_statis.c **** 
  99:C:/Users/stapi/OneDrive/Desktop/GD32VW553/V1_MQTT_OK/GD32VW55X_Wifi_BLE_SDK/GD32VW55x_RELEASE_V1.0.2/MSDK/cloud/alicloud/src/services/dev_bind\awss_bind_statis.c ****     if (awss_statis_db_mutex) {
 469              		.loc 1 99 9
 470 0036 0840     		lw	a0,0(s0)
  96:C:/Users/stapi/OneDrive/Desktop/GD32VW553/V1_MQTT_OK/GD32VW55X_Wifi_BLE_SDK/GD32VW55x_RELEASE_V1.0.2/MSDK/cloud/alicloud/src/services/dev_bind\awss_bind_statis.c ****     awss_statis_db_report_id = 0;
 471              		.loc 1 96 29
 472 0038 23A00700 		sw	zero,%lo(.LANCHOR2)(a5)
  97:C:/Users/stapi/OneDrive/Desktop/GD32VW553/V1_MQTT_OK/GD32VW55X_Wifi_BLE_SDK/GD32VW55x_RELEASE_V1.0.2/MSDK/cloud/alicloud/src/services/dev_bind\awss_bind_statis.c ****     awss_statis_db_report_id = 0;
 473              		.loc 1 97 5 is_stmt 1
  97:C:/Users/stapi/OneDrive/Desktop/GD32VW553/V1_MQTT_OK/GD32VW55X_Wifi_BLE_SDK/GD32VW55x_RELEASE_V1.0.2/MSDK/cloud/alicloud/src/services/dev_bind\awss_bind_statis.c ****     awss_statis_db_report_id = 0;
 474              		.loc 1 97 30 is_stmt 0
 475 003c B7070000 		lui	a5,%hi(.LANCHOR3)
 476 0040 23A00700 		sw	zero,%lo(.LANCHOR3)(a5)
 477              		.loc 1 99 5 is_stmt 1
 478              		.loc 1 99 8 is_stmt 0
 479 0044 11C9     		beq	a0,zero,.L32
 100:C:/Users/stapi/OneDrive/Desktop/GD32VW553/V1_MQTT_OK/GD32VW55X_Wifi_BLE_SDK/GD32VW55x_RELEASE_V1.0.2/MSDK/cloud/alicloud/src/services/dev_bind\awss_bind_statis.c ****         HAL_MutexUnlock(awss_statis_db_mutex);
 480              		.loc 1 100 9 is_stmt 1
 481 0046 97000000 		call	HAL_MutexUnlock
 481      E7800000 
 482              	.LVL41:
 101:C:/Users/stapi/OneDrive/Desktop/GD32VW553/V1_MQTT_OK/GD32VW55X_Wifi_BLE_SDK/GD32VW55x_RELEASE_V1.0.2/MSDK/cloud/alicloud/src/services/dev_bind\awss_bind_statis.c ****         HAL_MutexDestroy(awss_statis_db_mutex);
 483              		.loc 1 101 9
 484 004e 0840     		lw	a0,0(s0)
 485 0050 97000000 		call	HAL_MutexDestroy
 485      E7800000 
 486              	.LVL42:
 487              	.L32:
 102:C:/Users/stapi/OneDrive/Desktop/GD32VW553/V1_MQTT_OK/GD32VW55X_Wifi_BLE_SDK/GD32VW55x_RELEASE_V1.0.2/MSDK/cloud/alicloud/src/services/dev_bind\awss_bind_statis.c ****     }
 103:C:/Users/stapi/OneDrive/Desktop/GD32VW553/V1_MQTT_OK/GD32VW55X_Wifi_BLE_SDK/GD32VW55x_RELEASE_V1.0.2/MSDK/cloud/alicloud/src/services/dev_bind\awss_bind_statis.c ****     awss_statis_db_mutex = NULL;
 488              		.loc 1 103 5
 489              		.loc 1 103 26 is_stmt 0
 490 0058 23200400 		sw	zero,0(s0)
 104:C:/Users/stapi/OneDrive/Desktop/GD32VW553/V1_MQTT_OK/GD32VW55X_Wifi_BLE_SDK/GD32VW55x_RELEASE_V1.0.2/MSDK/cloud/alicloud/src/services/dev_bind\awss_bind_statis.c **** }
 491              		.loc 1 104 1
 492 005c 17030000 		tail	__riscv_restore_1
 492      67000300 
 493              		.cfi_restore 8
 494              		.cfi_restore 1
 495              		.cfi_def_cfa_offset 0
 496              		.cfi_endproc
 497              	.LFE49:
 499              		.section	.rodata.awss_bind_update_statis.str1.4,"aMS",@progbits,1
 500              		.align	2
 501              	.LC18:
 502 0000 612D7374 		.string	"a-statis am fail\n"
 502      61746973 
 502      20616D20 
 502      6661696C 
 502      0A00
 503              		.section	.text.awss_bind_update_statis,"ax",@progbits
 504              		.align	1
 505              		.globl	awss_bind_update_statis
 507              	awss_bind_update_statis:
 508              	.LFB50:
 105:C:/Users/stapi/OneDrive/Desktop/GD32VW553/V1_MQTT_OK/GD32VW55X_Wifi_BLE_SDK/GD32VW55x_RELEASE_V1.0.2/MSDK/cloud/alicloud/src/services/dev_bind\awss_bind_statis.c **** 
 106:C:/Users/stapi/OneDrive/Desktop/GD32VW553/V1_MQTT_OK/GD32VW55X_Wifi_BLE_SDK/GD32VW55x_RELEASE_V1.0.2/MSDK/cloud/alicloud/src/services/dev_bind\awss_bind_statis.c **** void awss_bind_update_statis(int type)
 107:C:/Users/stapi/OneDrive/Desktop/GD32VW553/V1_MQTT_OK/GD32VW55X_Wifi_BLE_SDK/GD32VW55x_RELEASE_V1.0.2/MSDK/cloud/alicloud/src/services/dev_bind\awss_bind_statis.c **** {
 509              		.loc 1 107 1 is_stmt 1
 510              		.cfi_startproc
 511              	.LVL43:
 512 0000 17030000 		call	t0,__riscv_save_4
 512      E7020300 
 513              		.cfi_offset 19, -20
 514              		.cfi_offset 18, -16
 515              		.cfi_offset 9, -12
 516              		.cfi_offset 8, -8
 517              		.cfi_offset 1, -4
 518              		.cfi_def_cfa_offset 32
 108:C:/Users/stapi/OneDrive/Desktop/GD32VW553/V1_MQTT_OK/GD32VW55X_Wifi_BLE_SDK/GD32VW55x_RELEASE_V1.0.2/MSDK/cloud/alicloud/src/services/dev_bind\awss_bind_statis.c ****     uint32_t time = HAL_UptimeMs();
 519              		.loc 1 108 5
 109:C:/Users/stapi/OneDrive/Desktop/GD32VW553/V1_MQTT_OK/GD32VW55X_Wifi_BLE_SDK/GD32VW55x_RELEASE_V1.0.2/MSDK/cloud/alicloud/src/services/dev_bind\awss_bind_statis.c **** 
 110:C:/Users/stapi/OneDrive/Desktop/GD32VW553/V1_MQTT_OK/GD32VW55X_Wifi_BLE_SDK/GD32VW55x_RELEASE_V1.0.2/MSDK/cloud/alicloud/src/services/dev_bind\awss_bind_statis.c ****     if (awss_statis_db_mutex == NULL) {
 520              		.loc 1 110 30 is_stmt 0
 521 0008 B7040000 		lui	s1,%hi(.LANCHOR0)
 522 000c 93890400 		addi	s3,s1,%lo(.LANCHOR0)
 107:C:/Users/stapi/OneDrive/Desktop/GD32VW553/V1_MQTT_OK/GD32VW55X_Wifi_BLE_SDK/GD32VW55x_RELEASE_V1.0.2/MSDK/cloud/alicloud/src/services/dev_bind\awss_bind_statis.c ****     uint32_t time = HAL_UptimeMs();
 523              		.loc 1 107 1
 524 0010 2A89     		mv	s2,a0
 108:C:/Users/stapi/OneDrive/Desktop/GD32VW553/V1_MQTT_OK/GD32VW55X_Wifi_BLE_SDK/GD32VW55x_RELEASE_V1.0.2/MSDK/cloud/alicloud/src/services/dev_bind\awss_bind_statis.c ****     uint32_t time = HAL_UptimeMs();
 525              		.loc 1 108 21
 526 0012 97000000 		call	HAL_UptimeMs
 526      E7800000 
 527              	.LVL44:
 528              		.loc 1 110 8
 529 001a 83A70900 		lw	a5,0(s3)
 108:C:/Users/stapi/OneDrive/Desktop/GD32VW553/V1_MQTT_OK/GD32VW55X_Wifi_BLE_SDK/GD32VW55x_RELEASE_V1.0.2/MSDK/cloud/alicloud/src/services/dev_bind\awss_bind_statis.c ****     uint32_t time = HAL_UptimeMs();
 530              		.loc 1 108 21
 531 001e 2A84     		mv	s0,a0
 532              	.LVL45:
 533              		.loc 1 110 5 is_stmt 1
 534 0020 93840400 		addi	s1,s1,%lo(.LANCHOR0)
 535              		.loc 1 110 8 is_stmt 0
 536 0024 9DEF     		bne	a5,zero,.L41
 111:C:/Users/stapi/OneDrive/Desktop/GD32VW553/V1_MQTT_OK/GD32VW55X_Wifi_BLE_SDK/GD32VW55x_RELEASE_V1.0.2/MSDK/cloud/alicloud/src/services/dev_bind\awss_bind_statis.c ****         awss_statis_db_mutex = HAL_MutexCreate();
 537              		.loc 1 111 9 is_stmt 1
 538              		.loc 1 111 32 is_stmt 0
 539 0026 97000000 		call	HAL_MutexCreate
 539      E7800000 
 540              	.LVL46:
 541              		.loc 1 111 30
 542 002e 23A0A900 		sw	a0,0(s3)
 112:C:/Users/stapi/OneDrive/Desktop/GD32VW553/V1_MQTT_OK/GD32VW55X_Wifi_BLE_SDK/GD32VW55x_RELEASE_V1.0.2/MSDK/cloud/alicloud/src/services/dev_bind\awss_bind_statis.c ****         if (awss_statis_db_mutex == NULL) {
 543              		.loc 1 112 9 is_stmt 1
 544              		.loc 1 112 12 is_stmt 0
 545 0032 05E9     		bne	a0,zero,.L41
 113:C:/Users/stapi/OneDrive/Desktop/GD32VW553/V1_MQTT_OK/GD32VW55X_Wifi_BLE_SDK/GD32VW55x_RELEASE_V1.0.2/MSDK/cloud/alicloud/src/services/dev_bind\awss_bind_statis.c ****             awss_debug("a-statis am fail\n");
 546              		.loc 1 113 13 is_stmt 1
 547 0034 37070000 		lui	a4,%hi(.LC18)
 548 0038 B7050000 		lui	a1,%hi(.LANCHOR5)
 549 003c 37050000 		lui	a0,%hi(.LC15)
 550 0040 13070700 		addi	a4,a4,%lo(.LC18)
 551 0044 9546     		li	a3,5
 552 0046 13061007 		li	a2,113
 553 004a 93850500 		addi	a1,a1,%lo(.LANCHOR5)
 554 004e 13050500 		addi	a0,a0,%lo(.LC15)
 555 0052 97000000 		call	LITE_syslog
 555      E7800000 
 556              	.LVL47:
 114:C:/Users/stapi/OneDrive/Desktop/GD32VW553/V1_MQTT_OK/GD32VW55X_Wifi_BLE_SDK/GD32VW55x_RELEASE_V1.0.2/MSDK/cloud/alicloud/src/services/dev_bind\awss_bind_statis.c ****             return;
 557              		.loc 1 114 13
 558              	.L40:
 115:C:/Users/stapi/OneDrive/Desktop/GD32VW553/V1_MQTT_OK/GD32VW55X_Wifi_BLE_SDK/GD32VW55x_RELEASE_V1.0.2/MSDK/cloud/alicloud/src/services/dev_bind\awss_bind_statis.c ****         }
 116:C:/Users/stapi/OneDrive/Desktop/GD32VW553/V1_MQTT_OK/GD32VW55X_Wifi_BLE_SDK/GD32VW55x_RELEASE_V1.0.2/MSDK/cloud/alicloud/src/services/dev_bind\awss_bind_statis.c ****     }
 117:C:/Users/stapi/OneDrive/Desktop/GD32VW553/V1_MQTT_OK/GD32VW55X_Wifi_BLE_SDK/GD32VW55x_RELEASE_V1.0.2/MSDK/cloud/alicloud/src/services/dev_bind\awss_bind_statis.c **** 
 118:C:/Users/stapi/OneDrive/Desktop/GD32VW553/V1_MQTT_OK/GD32VW55X_Wifi_BLE_SDK/GD32VW55x_RELEASE_V1.0.2/MSDK/cloud/alicloud/src/services/dev_bind\awss_bind_statis.c ****     HAL_MutexLock(awss_statis_db_mutex);
 119:C:/Users/stapi/OneDrive/Desktop/GD32VW553/V1_MQTT_OK/GD32VW55X_Wifi_BLE_SDK/GD32VW55x_RELEASE_V1.0.2/MSDK/cloud/alicloud/src/services/dev_bind\awss_bind_statis.c **** 
 120:C:/Users/stapi/OneDrive/Desktop/GD32VW553/V1_MQTT_OK/GD32VW55X_Wifi_BLE_SDK/GD32VW55x_RELEASE_V1.0.2/MSDK/cloud/alicloud/src/services/dev_bind\awss_bind_statis.c ****     if (type == AWSS_DB_STATIS_START)
 121:C:/Users/stapi/OneDrive/Desktop/GD32VW553/V1_MQTT_OK/GD32VW55X_Wifi_BLE_SDK/GD32VW55x_RELEASE_V1.0.2/MSDK/cloud/alicloud/src/services/dev_bind\awss_bind_statis.c ****         awss_statis_db_trace_id ++;
 122:C:/Users/stapi/OneDrive/Desktop/GD32VW553/V1_MQTT_OK/GD32VW55X_Wifi_BLE_SDK/GD32VW55x_RELEASE_V1.0.2/MSDK/cloud/alicloud/src/services/dev_bind\awss_bind_statis.c **** 
 123:C:/Users/stapi/OneDrive/Desktop/GD32VW553/V1_MQTT_OK/GD32VW55X_Wifi_BLE_SDK/GD32VW55x_RELEASE_V1.0.2/MSDK/cloud/alicloud/src/services/dev_bind\awss_bind_statis.c ****     switch (type) {
 124:C:/Users/stapi/OneDrive/Desktop/GD32VW553/V1_MQTT_OK/GD32VW55X_Wifi_BLE_SDK/GD32VW55x_RELEASE_V1.0.2/MSDK/cloud/alicloud/src/services/dev_bind\awss_bind_statis.c ****         case AWSS_DB_STATIS_START:
 125:C:/Users/stapi/OneDrive/Desktop/GD32VW553/V1_MQTT_OK/GD32VW55X_Wifi_BLE_SDK/GD32VW55x_RELEASE_V1.0.2/MSDK/cloud/alicloud/src/services/dev_bind\awss_bind_statis.c ****             DB_CNT ++;
 126:C:/Users/stapi/OneDrive/Desktop/GD32VW553/V1_MQTT_OK/GD32VW55X_Wifi_BLE_SDK/GD32VW55x_RELEASE_V1.0.2/MSDK/cloud/alicloud/src/services/dev_bind\awss_bind_statis.c ****             DB_START = time;
 127:C:/Users/stapi/OneDrive/Desktop/GD32VW553/V1_MQTT_OK/GD32VW55X_Wifi_BLE_SDK/GD32VW55x_RELEASE_V1.0.2/MSDK/cloud/alicloud/src/services/dev_bind\awss_bind_statis.c ****             break;
 128:C:/Users/stapi/OneDrive/Desktop/GD32VW553/V1_MQTT_OK/GD32VW55X_Wifi_BLE_SDK/GD32VW55x_RELEASE_V1.0.2/MSDK/cloud/alicloud/src/services/dev_bind\awss_bind_statis.c ****         case AWSS_DB_STATIS_SUC:
 129:C:/Users/stapi/OneDrive/Desktop/GD32VW553/V1_MQTT_OK/GD32VW55X_Wifi_BLE_SDK/GD32VW55x_RELEASE_V1.0.2/MSDK/cloud/alicloud/src/services/dev_bind\awss_bind_statis.c ****             DB_END = time;
 130:C:/Users/stapi/OneDrive/Desktop/GD32VW553/V1_MQTT_OK/GD32VW55X_Wifi_BLE_SDK/GD32VW55x_RELEASE_V1.0.2/MSDK/cloud/alicloud/src/services/dev_bind\awss_bind_statis.c ****             DB_SUC ++;
 131:C:/Users/stapi/OneDrive/Desktop/GD32VW553/V1_MQTT_OK/GD32VW55X_Wifi_BLE_SDK/GD32VW55x_RELEASE_V1.0.2/MSDK/cloud/alicloud/src/services/dev_bind\awss_bind_statis.c ****             time = (uint32_t)(DB_END - DB_START);
 132:C:/Users/stapi/OneDrive/Desktop/GD32VW553/V1_MQTT_OK/GD32VW55X_Wifi_BLE_SDK/GD32VW55x_RELEASE_V1.0.2/MSDK/cloud/alicloud/src/services/dev_bind\awss_bind_statis.c ****             if (DB_SUC > 0) {
 133:C:/Users/stapi/OneDrive/Desktop/GD32VW553/V1_MQTT_OK/GD32VW55X_Wifi_BLE_SDK/GD32VW55x_RELEASE_V1.0.2/MSDK/cloud/alicloud/src/services/dev_bind\awss_bind_statis.c ****                 DB_TMEAN = (DB_TMEAN + time) / DB_SUC;
 134:C:/Users/stapi/OneDrive/Desktop/GD32VW553/V1_MQTT_OK/GD32VW55X_Wifi_BLE_SDK/GD32VW55x_RELEASE_V1.0.2/MSDK/cloud/alicloud/src/services/dev_bind\awss_bind_statis.c ****             } else {
 135:C:/Users/stapi/OneDrive/Desktop/GD32VW553/V1_MQTT_OK/GD32VW55X_Wifi_BLE_SDK/GD32VW55x_RELEASE_V1.0.2/MSDK/cloud/alicloud/src/services/dev_bind\awss_bind_statis.c ****                 DB_SUC = 1;
 136:C:/Users/stapi/OneDrive/Desktop/GD32VW553/V1_MQTT_OK/GD32VW55X_Wifi_BLE_SDK/GD32VW55x_RELEASE_V1.0.2/MSDK/cloud/alicloud/src/services/dev_bind\awss_bind_statis.c ****                 DB_TMEAN = time;
 137:C:/Users/stapi/OneDrive/Desktop/GD32VW553/V1_MQTT_OK/GD32VW55X_Wifi_BLE_SDK/GD32VW55x_RELEASE_V1.0.2/MSDK/cloud/alicloud/src/services/dev_bind\awss_bind_statis.c ****             }
 138:C:/Users/stapi/OneDrive/Desktop/GD32VW553/V1_MQTT_OK/GD32VW55X_Wifi_BLE_SDK/GD32VW55x_RELEASE_V1.0.2/MSDK/cloud/alicloud/src/services/dev_bind\awss_bind_statis.c ****             if (DB_TMIN == 0 || DB_TMIN > time)
 139:C:/Users/stapi/OneDrive/Desktop/GD32VW553/V1_MQTT_OK/GD32VW55X_Wifi_BLE_SDK/GD32VW55x_RELEASE_V1.0.2/MSDK/cloud/alicloud/src/services/dev_bind\awss_bind_statis.c ****                 DB_TMIN = time;
 140:C:/Users/stapi/OneDrive/Desktop/GD32VW553/V1_MQTT_OK/GD32VW55X_Wifi_BLE_SDK/GD32VW55x_RELEASE_V1.0.2/MSDK/cloud/alicloud/src/services/dev_bind\awss_bind_statis.c ****             if (DB_TMAX == 0 || DB_TMAX < time)
 141:C:/Users/stapi/OneDrive/Desktop/GD32VW553/V1_MQTT_OK/GD32VW55X_Wifi_BLE_SDK/GD32VW55x_RELEASE_V1.0.2/MSDK/cloud/alicloud/src/services/dev_bind\awss_bind_statis.c ****                 DB_TMAX = time;
 142:C:/Users/stapi/OneDrive/Desktop/GD32VW553/V1_MQTT_OK/GD32VW55X_Wifi_BLE_SDK/GD32VW55x_RELEASE_V1.0.2/MSDK/cloud/alicloud/src/services/dev_bind\awss_bind_statis.c ****             break;
 143:C:/Users/stapi/OneDrive/Desktop/GD32VW553/V1_MQTT_OK/GD32VW55X_Wifi_BLE_SDK/GD32VW55x_RELEASE_V1.0.2/MSDK/cloud/alicloud/src/services/dev_bind\awss_bind_statis.c ****         default:
 144:C:/Users/stapi/OneDrive/Desktop/GD32VW553/V1_MQTT_OK/GD32VW55X_Wifi_BLE_SDK/GD32VW55x_RELEASE_V1.0.2/MSDK/cloud/alicloud/src/services/dev_bind\awss_bind_statis.c ****             break;
 145:C:/Users/stapi/OneDrive/Desktop/GD32VW553/V1_MQTT_OK/GD32VW55X_Wifi_BLE_SDK/GD32VW55x_RELEASE_V1.0.2/MSDK/cloud/alicloud/src/services/dev_bind\awss_bind_statis.c ****     }
 146:C:/Users/stapi/OneDrive/Desktop/GD32VW553/V1_MQTT_OK/GD32VW55X_Wifi_BLE_SDK/GD32VW55x_RELEASE_V1.0.2/MSDK/cloud/alicloud/src/services/dev_bind\awss_bind_statis.c ****     HAL_MutexUnlock(awss_statis_db_mutex);
 147:C:/Users/stapi/OneDrive/Desktop/GD32VW553/V1_MQTT_OK/GD32VW55X_Wifi_BLE_SDK/GD32VW55x_RELEASE_V1.0.2/MSDK/cloud/alicloud/src/services/dev_bind\awss_bind_statis.c **** }
 559              		.loc 1 147 1 is_stmt 0
 560 005a 17030000 		tail	__riscv_restore_4
 560      67000300 
 561              		.cfi_remember_state
 562              		.cfi_restore 19
 563              		.cfi_restore 18
 564              		.cfi_restore 9
 565              		.cfi_restore 8
 566              		.cfi_restore 1
 567              		.cfi_def_cfa_offset 0
 568              	.LVL48:
 569              	.L41:
 570              		.cfi_restore_state
 118:C:/Users/stapi/OneDrive/Desktop/GD32VW553/V1_MQTT_OK/GD32VW55X_Wifi_BLE_SDK/GD32VW55x_RELEASE_V1.0.2/MSDK/cloud/alicloud/src/services/dev_bind\awss_bind_statis.c **** 
 571              		.loc 1 118 5 is_stmt 1
 572 0062 8840     		lw	a0,0(s1)
 573 0064 97000000 		call	HAL_MutexLock
 573      E7800000 
 574              	.LVL49:
 120:C:/Users/stapi/OneDrive/Desktop/GD32VW553/V1_MQTT_OK/GD32VW55X_Wifi_BLE_SDK/GD32VW55x_RELEASE_V1.0.2/MSDK/cloud/alicloud/src/services/dev_bind\awss_bind_statis.c ****         awss_statis_db_trace_id ++;
 575              		.loc 1 120 5
 120:C:/Users/stapi/OneDrive/Desktop/GD32VW553/V1_MQTT_OK/GD32VW55X_Wifi_BLE_SDK/GD32VW55x_RELEASE_V1.0.2/MSDK/cloud/alicloud/src/services/dev_bind\awss_bind_statis.c ****         awss_statis_db_trace_id ++;
 576              		.loc 1 120 8 is_stmt 0
 577 006c 63170902 		bne	s2,zero,.L43
 121:C:/Users/stapi/OneDrive/Desktop/GD32VW553/V1_MQTT_OK/GD32VW55X_Wifi_BLE_SDK/GD32VW55x_RELEASE_V1.0.2/MSDK/cloud/alicloud/src/services/dev_bind\awss_bind_statis.c **** 
 578              		.loc 1 121 9 is_stmt 1
 121:C:/Users/stapi/OneDrive/Desktop/GD32VW553/V1_MQTT_OK/GD32VW55X_Wifi_BLE_SDK/GD32VW55x_RELEASE_V1.0.2/MSDK/cloud/alicloud/src/services/dev_bind\awss_bind_statis.c **** 
 579              		.loc 1 121 33 is_stmt 0
 580 0070 B7070000 		lui	a5,%hi(.LANCHOR2)
 581 0074 93870700 		addi	a5,a5,%lo(.LANCHOR2)
 582 0078 9843     		lw	a4,0(a5)
 583 007a 0507     		addi	a4,a4,1
 584 007c 98C3     		sw	a4,0(a5)
 123:C:/Users/stapi/OneDrive/Desktop/GD32VW553/V1_MQTT_OK/GD32VW55X_Wifi_BLE_SDK/GD32VW55x_RELEASE_V1.0.2/MSDK/cloud/alicloud/src/services/dev_bind\awss_bind_statis.c ****         case AWSS_DB_STATIS_START:
 585              		.loc 1 123 5 is_stmt 1
 125:C:/Users/stapi/OneDrive/Desktop/GD32VW553/V1_MQTT_OK/GD32VW55X_Wifi_BLE_SDK/GD32VW55x_RELEASE_V1.0.2/MSDK/cloud/alicloud/src/services/dev_bind\awss_bind_statis.c ****             DB_START = time;
 586              		.loc 1 125 13
 125:C:/Users/stapi/OneDrive/Desktop/GD32VW553/V1_MQTT_OK/GD32VW55X_Wifi_BLE_SDK/GD32VW55x_RELEASE_V1.0.2/MSDK/cloud/alicloud/src/services/dev_bind\awss_bind_statis.c ****             DB_START = time;
 587              		.loc 1 125 20 is_stmt 0
 588 007e B7070000 		lui	a5,%hi(.LANCHOR1)
 589 0082 93870700 		addi	a5,a5,%lo(.LANCHOR1)
 590 0086 9843     		lw	a4,0(a5)
 126:C:/Users/stapi/OneDrive/Desktop/GD32VW553/V1_MQTT_OK/GD32VW55X_Wifi_BLE_SDK/GD32VW55x_RELEASE_V1.0.2/MSDK/cloud/alicloud/src/services/dev_bind\awss_bind_statis.c ****             break;
 591              		.loc 1 126 22
 592 0088 C0CB     		sw	s0,20(a5)
 125:C:/Users/stapi/OneDrive/Desktop/GD32VW553/V1_MQTT_OK/GD32VW55X_Wifi_BLE_SDK/GD32VW55x_RELEASE_V1.0.2/MSDK/cloud/alicloud/src/services/dev_bind\awss_bind_statis.c ****             DB_START = time;
 593              		.loc 1 125 20
 594 008a 0507     		addi	a4,a4,1
 595 008c 98C3     		sw	a4,0(a5)
 126:C:/Users/stapi/OneDrive/Desktop/GD32VW553/V1_MQTT_OK/GD32VW55X_Wifi_BLE_SDK/GD32VW55x_RELEASE_V1.0.2/MSDK/cloud/alicloud/src/services/dev_bind\awss_bind_statis.c ****             break;
 596              		.loc 1 126 13 is_stmt 1
 127:C:/Users/stapi/OneDrive/Desktop/GD32VW553/V1_MQTT_OK/GD32VW55X_Wifi_BLE_SDK/GD32VW55x_RELEASE_V1.0.2/MSDK/cloud/alicloud/src/services/dev_bind\awss_bind_statis.c ****         case AWSS_DB_STATIS_SUC:
 597              		.loc 1 127 13
 598              	.LVL50:
 599              	.L44:
 146:C:/Users/stapi/OneDrive/Desktop/GD32VW553/V1_MQTT_OK/GD32VW55X_Wifi_BLE_SDK/GD32VW55x_RELEASE_V1.0.2/MSDK/cloud/alicloud/src/services/dev_bind\awss_bind_statis.c **** }
 600              		.loc 1 146 5
 601 008e 8840     		lw	a0,0(s1)
 602 0090 97000000 		call	HAL_MutexUnlock
 602      E7800000 
 603              	.LVL51:
 604 0098 C9B7     		j	.L40
 605              	.LVL52:
 606              	.L43:
 123:C:/Users/stapi/OneDrive/Desktop/GD32VW553/V1_MQTT_OK/GD32VW55X_Wifi_BLE_SDK/GD32VW55x_RELEASE_V1.0.2/MSDK/cloud/alicloud/src/services/dev_bind\awss_bind_statis.c ****         case AWSS_DB_STATIS_START:
 607              		.loc 1 123 5
 608 009a 8547     		li	a5,1
 609 009c E319F9FE 		bne	s2,a5,.L44
 129:C:/Users/stapi/OneDrive/Desktop/GD32VW553/V1_MQTT_OK/GD32VW55X_Wifi_BLE_SDK/GD32VW55x_RELEASE_V1.0.2/MSDK/cloud/alicloud/src/services/dev_bind\awss_bind_statis.c ****             DB_SUC ++;
 610              		.loc 1 129 13
 129:C:/Users/stapi/OneDrive/Desktop/GD32VW553/V1_MQTT_OK/GD32VW55X_Wifi_BLE_SDK/GD32VW55x_RELEASE_V1.0.2/MSDK/cloud/alicloud/src/services/dev_bind\awss_bind_statis.c ****             DB_SUC ++;
 611              		.loc 1 129 20 is_stmt 0
 612 00a0 37070000 		lui	a4,%hi(.LANCHOR1)
 613 00a4 93070700 		addi	a5,a4,%lo(.LANCHOR1)
 130:C:/Users/stapi/OneDrive/Desktop/GD32VW553/V1_MQTT_OK/GD32VW55X_Wifi_BLE_SDK/GD32VW55x_RELEASE_V1.0.2/MSDK/cloud/alicloud/src/services/dev_bind\awss_bind_statis.c ****             time = (uint32_t)(DB_END - DB_START);
 614              		.loc 1 130 20
 615 00a8 D443     		lw	a3,4(a5)
 129:C:/Users/stapi/OneDrive/Desktop/GD32VW553/V1_MQTT_OK/GD32VW55X_Wifi_BLE_SDK/GD32VW55x_RELEASE_V1.0.2/MSDK/cloud/alicloud/src/services/dev_bind\awss_bind_statis.c ****             DB_SUC ++;
 616              		.loc 1 129 20
 617 00aa 80CF     		sw	s0,24(a5)
 130:C:/Users/stapi/OneDrive/Desktop/GD32VW553/V1_MQTT_OK/GD32VW55X_Wifi_BLE_SDK/GD32VW55x_RELEASE_V1.0.2/MSDK/cloud/alicloud/src/services/dev_bind\awss_bind_statis.c ****             time = (uint32_t)(DB_END - DB_START);
 618              		.loc 1 130 13 is_stmt 1
 619 00ac 13070700 		addi	a4,a4,%lo(.LANCHOR1)
 130:C:/Users/stapi/OneDrive/Desktop/GD32VW553/V1_MQTT_OK/GD32VW55X_Wifi_BLE_SDK/GD32VW55x_RELEASE_V1.0.2/MSDK/cloud/alicloud/src/services/dev_bind\awss_bind_statis.c ****             time = (uint32_t)(DB_END - DB_START);
 620              		.loc 1 130 20 is_stmt 0
 621 00b0 13861600 		addi	a2,a3,1
 622 00b4 D0C3     		sw	a2,4(a5)
 131:C:/Users/stapi/OneDrive/Desktop/GD32VW553/V1_MQTT_OK/GD32VW55X_Wifi_BLE_SDK/GD32VW55x_RELEASE_V1.0.2/MSDK/cloud/alicloud/src/services/dev_bind\awss_bind_statis.c ****             if (DB_SUC > 0) {
 623              		.loc 1 131 13 is_stmt 1
 131:C:/Users/stapi/OneDrive/Desktop/GD32VW553/V1_MQTT_OK/GD32VW55X_Wifi_BLE_SDK/GD32VW55x_RELEASE_V1.0.2/MSDK/cloud/alicloud/src/services/dev_bind\awss_bind_statis.c ****             if (DB_SUC > 0) {
 624              		.loc 1 131 18 is_stmt 0
 625 00b6 DC4B     		lw	a5,20(a5)
 626 00b8 B307F440 		sub	a5,s0,a5
 627              	.LVL53:
 132:C:/Users/stapi/OneDrive/Desktop/GD32VW553/V1_MQTT_OK/GD32VW55X_Wifi_BLE_SDK/GD32VW55x_RELEASE_V1.0.2/MSDK/cloud/alicloud/src/services/dev_bind\awss_bind_statis.c ****                 DB_TMEAN = (DB_TMEAN + time) / DB_SUC;
 628              		.loc 1 132 13 is_stmt 1
 132:C:/Users/stapi/OneDrive/Desktop/GD32VW553/V1_MQTT_OK/GD32VW55X_Wifi_BLE_SDK/GD32VW55x_RELEASE_V1.0.2/MSDK/cloud/alicloud/src/services/dev_bind\awss_bind_statis.c ****                 DB_TMEAN = (DB_TMEAN + time) / DB_SUC;
 629              		.loc 1 132 16 is_stmt 0
 630 00bc 0DC2     		beq	a2,zero,.L45
 133:C:/Users/stapi/OneDrive/Desktop/GD32VW553/V1_MQTT_OK/GD32VW55X_Wifi_BLE_SDK/GD32VW55x_RELEASE_V1.0.2/MSDK/cloud/alicloud/src/services/dev_bind\awss_bind_statis.c ****             } else {
 631              		.loc 1 133 17 is_stmt 1
 133:C:/Users/stapi/OneDrive/Desktop/GD32VW553/V1_MQTT_OK/GD32VW55X_Wifi_BLE_SDK/GD32VW55x_RELEASE_V1.0.2/MSDK/cloud/alicloud/src/services/dev_bind\awss_bind_statis.c ****             } else {
 632              		.loc 1 133 38 is_stmt 0
 633 00be 1447     		lw	a3,8(a4)
 634 00c0 BE96     		add	a3,a5,a3
 133:C:/Users/stapi/OneDrive/Desktop/GD32VW553/V1_MQTT_OK/GD32VW55X_Wifi_BLE_SDK/GD32VW55x_RELEASE_V1.0.2/MSDK/cloud/alicloud/src/services/dev_bind\awss_bind_statis.c ****             } else {
 635              		.loc 1 133 46
 636 00c2 B3D6C602 		divu	a3,a3,a2
 133:C:/Users/stapi/OneDrive/Desktop/GD32VW553/V1_MQTT_OK/GD32VW55X_Wifi_BLE_SDK/GD32VW55x_RELEASE_V1.0.2/MSDK/cloud/alicloud/src/services/dev_bind\awss_bind_statis.c ****             } else {
 637              		.loc 1 133 26
 638 00c6 14C7     		sw	a3,8(a4)
 639              	.L46:
 138:C:/Users/stapi/OneDrive/Desktop/GD32VW553/V1_MQTT_OK/GD32VW55X_Wifi_BLE_SDK/GD32VW55x_RELEASE_V1.0.2/MSDK/cloud/alicloud/src/services/dev_bind\awss_bind_statis.c ****                 DB_TMIN = time;
 640              		.loc 1 138 13 is_stmt 1
 138:C:/Users/stapi/OneDrive/Desktop/GD32VW553/V1_MQTT_OK/GD32VW55X_Wifi_BLE_SDK/GD32VW55x_RELEASE_V1.0.2/MSDK/cloud/alicloud/src/services/dev_bind\awss_bind_statis.c ****                 DB_TMIN = time;
 641              		.loc 1 138 17 is_stmt 0
 642 00c8 144B     		lw	a3,16(a4)
 138:C:/Users/stapi/OneDrive/Desktop/GD32VW553/V1_MQTT_OK/GD32VW55X_Wifi_BLE_SDK/GD32VW55x_RELEASE_V1.0.2/MSDK/cloud/alicloud/src/services/dev_bind\awss_bind_statis.c ****                 DB_TMIN = time;
 643              		.loc 1 138 16
 644 00ca 99C2     		beq	a3,zero,.L47
 138:C:/Users/stapi/OneDrive/Desktop/GD32VW553/V1_MQTT_OK/GD32VW55X_Wifi_BLE_SDK/GD32VW55x_RELEASE_V1.0.2/MSDK/cloud/alicloud/src/services/dev_bind\awss_bind_statis.c ****                 DB_TMIN = time;
 645              		.loc 1 138 30 discriminator 1
 646 00cc 63F3D700 		bleu	a3,a5,.L48
 647              	.L47:
 139:C:/Users/stapi/OneDrive/Desktop/GD32VW553/V1_MQTT_OK/GD32VW55X_Wifi_BLE_SDK/GD32VW55x_RELEASE_V1.0.2/MSDK/cloud/alicloud/src/services/dev_bind\awss_bind_statis.c ****             if (DB_TMAX == 0 || DB_TMAX < time)
 648              		.loc 1 139 17 is_stmt 1
 139:C:/Users/stapi/OneDrive/Desktop/GD32VW553/V1_MQTT_OK/GD32VW55X_Wifi_BLE_SDK/GD32VW55x_RELEASE_V1.0.2/MSDK/cloud/alicloud/src/services/dev_bind\awss_bind_statis.c ****             if (DB_TMAX == 0 || DB_TMAX < time)
 649              		.loc 1 139 25 is_stmt 0
 650 00d0 1CCB     		sw	a5,16(a4)
 651              	.L48:
 140:C:/Users/stapi/OneDrive/Desktop/GD32VW553/V1_MQTT_OK/GD32VW55X_Wifi_BLE_SDK/GD32VW55x_RELEASE_V1.0.2/MSDK/cloud/alicloud/src/services/dev_bind\awss_bind_statis.c ****                 DB_TMAX = time;
 652              		.loc 1 140 13 is_stmt 1
 140:C:/Users/stapi/OneDrive/Desktop/GD32VW553/V1_MQTT_OK/GD32VW55X_Wifi_BLE_SDK/GD32VW55x_RELEASE_V1.0.2/MSDK/cloud/alicloud/src/services/dev_bind\awss_bind_statis.c ****                 DB_TMAX = time;
 653              		.loc 1 140 17 is_stmt 0
 654 00d2 5447     		lw	a3,12(a4)
 140:C:/Users/stapi/OneDrive/Desktop/GD32VW553/V1_MQTT_OK/GD32VW55X_Wifi_BLE_SDK/GD32VW55x_RELEASE_V1.0.2/MSDK/cloud/alicloud/src/services/dev_bind\awss_bind_statis.c ****                 DB_TMAX = time;
 655              		.loc 1 140 16
 656 00d4 99C2     		beq	a3,zero,.L49
 140:C:/Users/stapi/OneDrive/Desktop/GD32VW553/V1_MQTT_OK/GD32VW55X_Wifi_BLE_SDK/GD32VW55x_RELEASE_V1.0.2/MSDK/cloud/alicloud/src/services/dev_bind\awss_bind_statis.c ****                 DB_TMAX = time;
 657              		.loc 1 140 30 discriminator 1
 658 00d6 E3FCF6FA 		bgeu	a3,a5,.L44
 659              	.L49:
 141:C:/Users/stapi/OneDrive/Desktop/GD32VW553/V1_MQTT_OK/GD32VW55X_Wifi_BLE_SDK/GD32VW55x_RELEASE_V1.0.2/MSDK/cloud/alicloud/src/services/dev_bind\awss_bind_statis.c ****             break;
 660              		.loc 1 141 17 is_stmt 1
 141:C:/Users/stapi/OneDrive/Desktop/GD32VW553/V1_MQTT_OK/GD32VW55X_Wifi_BLE_SDK/GD32VW55x_RELEASE_V1.0.2/MSDK/cloud/alicloud/src/services/dev_bind\awss_bind_statis.c ****             break;
 661              		.loc 1 141 25 is_stmt 0
 662 00da 5CC7     		sw	a5,12(a4)
 663 00dc 4DBF     		j	.L44
 664              	.L45:
 135:C:/Users/stapi/OneDrive/Desktop/GD32VW553/V1_MQTT_OK/GD32VW55X_Wifi_BLE_SDK/GD32VW55x_RELEASE_V1.0.2/MSDK/cloud/alicloud/src/services/dev_bind\awss_bind_statis.c ****                 DB_TMEAN = time;
 665              		.loc 1 135 17 is_stmt 1
 135:C:/Users/stapi/OneDrive/Desktop/GD32VW553/V1_MQTT_OK/GD32VW55X_Wifi_BLE_SDK/GD32VW55x_RELEASE_V1.0.2/MSDK/cloud/alicloud/src/services/dev_bind\awss_bind_statis.c ****                 DB_TMEAN = time;
 666              		.loc 1 135 24 is_stmt 0
 667 00de 23222701 		sw	s2,4(a4)
 136:C:/Users/stapi/OneDrive/Desktop/GD32VW553/V1_MQTT_OK/GD32VW55X_Wifi_BLE_SDK/GD32VW55x_RELEASE_V1.0.2/MSDK/cloud/alicloud/src/services/dev_bind\awss_bind_statis.c ****             }
 668              		.loc 1 136 17 is_stmt 1
 136:C:/Users/stapi/OneDrive/Desktop/GD32VW553/V1_MQTT_OK/GD32VW55X_Wifi_BLE_SDK/GD32VW55x_RELEASE_V1.0.2/MSDK/cloud/alicloud/src/services/dev_bind\awss_bind_statis.c ****             }
 669              		.loc 1 136 26 is_stmt 0
 670 00e2 1CC7     		sw	a5,8(a4)
 671 00e4 D5B7     		j	.L46
 672              		.cfi_endproc
 673              	.LFE50:
 675              		.section	.rodata.awss_bind_disp_statis.str1.4,"aMS",@progbits,1
 676              		.align	2
 677              	.LC19:
 678 0000 2D2D2D2D 		.string	"--------------------------DEV BIND STATIS-----------------------------"
 678      2D2D2D2D 
 678      2D2D2D2D 
 678      2D2D2D2D 
 678      2D2D2D2D 
 679 0047 00       		.align	2
 680              	.LC20:
 681 0048 6E616D65 		.string	"name\t\tmax\tmin\tmean\tcnt\tsuc"
 681      09096D61 
 681      78096D69 
 681      6E096D65 
 681      616E0963 
 682 0063 00       		.align	2
 683              	.LC21:
 684 0064 53796E63 		.string	"SyncToken      \t%u\t%u\t%u\t%u\t%u\t"
 684      546F6B65 
 684      6E202020 
 684      20202009 
 684      25750925 
 685              		.align	2
 686              	.LC22:
 687 0084 2D2D2D2D 		.string	"----------------------------------------------------------------------"
 687      2D2D2D2D 
 687      2D2D2D2D 
 687      2D2D2D2D 
 687      2D2D2D2D 
 688              		.section	.text.awss_bind_disp_statis,"ax",@progbits
 689              		.align	1
 690              		.globl	awss_bind_disp_statis
 692              	awss_bind_disp_statis:
 693              	.LFB51:
 148:C:/Users/stapi/OneDrive/Desktop/GD32VW553/V1_MQTT_OK/GD32VW55X_Wifi_BLE_SDK/GD32VW55x_RELEASE_V1.0.2/MSDK/cloud/alicloud/src/services/dev_bind\awss_bind_statis.c **** 
 149:C:/Users/stapi/OneDrive/Desktop/GD32VW553/V1_MQTT_OK/GD32VW55X_Wifi_BLE_SDK/GD32VW55x_RELEASE_V1.0.2/MSDK/cloud/alicloud/src/services/dev_bind\awss_bind_statis.c **** void awss_bind_disp_statis()
 150:C:/Users/stapi/OneDrive/Desktop/GD32VW553/V1_MQTT_OK/GD32VW55X_Wifi_BLE_SDK/GD32VW55x_RELEASE_V1.0.2/MSDK/cloud/alicloud/src/services/dev_bind\awss_bind_statis.c **** {
 694              		.loc 1 150 1 is_stmt 1
 695              		.cfi_startproc
 696 0000 17030000 		call	t0,__riscv_save_3
 696      E7020300 
 697              		.cfi_offset 18, -16
 698              		.cfi_offset 9, -12
 699              		.cfi_offset 8, -8
 700              		.cfi_offset 1, -4
 701              		.cfi_def_cfa_offset 16
 151:C:/Users/stapi/OneDrive/Desktop/GD32VW553/V1_MQTT_OK/GD32VW55X_Wifi_BLE_SDK/GD32VW55x_RELEASE_V1.0.2/MSDK/cloud/alicloud/src/services/dev_bind\awss_bind_statis.c ****     if (awss_statis_db_mutex)
 702              		.loc 1 151 5
 703              		.loc 1 151 9 is_stmt 0
 704 0008 B7070000 		lui	a5,%hi(.LANCHOR0)
 705 000c 03A50700 		lw	a0,%lo(.LANCHOR0)(a5)
 150:C:/Users/stapi/OneDrive/Desktop/GD32VW553/V1_MQTT_OK/GD32VW55X_Wifi_BLE_SDK/GD32VW55x_RELEASE_V1.0.2/MSDK/cloud/alicloud/src/services/dev_bind\awss_bind_statis.c ****     if (awss_statis_db_mutex)
 706              		.loc 1 150 1
 707 0010 4111     		addi	sp,sp,-16
 708              		.cfi_def_cfa_offset 32
 709 0012 13840700 		addi	s0,a5,%lo(.LANCHOR0)
 710              		.loc 1 151 8
 711 0016 09C5     		beq	a0,zero,.L58
 152:C:/Users/stapi/OneDrive/Desktop/GD32VW553/V1_MQTT_OK/GD32VW55X_Wifi_BLE_SDK/GD32VW55x_RELEASE_V1.0.2/MSDK/cloud/alicloud/src/services/dev_bind\awss_bind_statis.c ****         HAL_MutexLock(awss_statis_db_mutex);
 712              		.loc 1 152 9 is_stmt 1
 713 0018 97000000 		call	HAL_MutexLock
 713      E7800000 
 714              	.LVL54:
 715              	.L58:
 153:C:/Users/stapi/OneDrive/Desktop/GD32VW553/V1_MQTT_OK/GD32VW55X_Wifi_BLE_SDK/GD32VW55x_RELEASE_V1.0.2/MSDK/cloud/alicloud/src/services/dev_bind\awss_bind_statis.c **** 
 154:C:/Users/stapi/OneDrive/Desktop/GD32VW553/V1_MQTT_OK/GD32VW55X_Wifi_BLE_SDK/GD32VW55x_RELEASE_V1.0.2/MSDK/cloud/alicloud/src/services/dev_bind\awss_bind_statis.c ****     awss_debug("--------------------------DEV BIND STATIS-----------------------------");
 716              		.loc 1 154 5
 717 0020 37090000 		lui	s2,%hi(.LANCHOR6)
 718 0024 B7040000 		lui	s1,%hi(.LC15)
 719 0028 37070000 		lui	a4,%hi(.LC19)
 720 002c 13070700 		addi	a4,a4,%lo(.LC19)
 721 0030 9546     		li	a3,5
 722 0032 1306A009 		li	a2,154
 723 0036 93050900 		addi	a1,s2,%lo(.LANCHOR6)
 724 003a 13850400 		addi	a0,s1,%lo(.LC15)
 725 003e 97000000 		call	LITE_syslog
 725      E7800000 
 726              	.LVL55:
 155:C:/Users/stapi/OneDrive/Desktop/GD32VW553/V1_MQTT_OK/GD32VW55X_Wifi_BLE_SDK/GD32VW55x_RELEASE_V1.0.2/MSDK/cloud/alicloud/src/services/dev_bind\awss_bind_statis.c ****     awss_debug("name\t\tmax\tmin\tmean\tcnt\tsuc");
 727              		.loc 1 155 5
 728 0046 37070000 		lui	a4,%hi(.LC20)
 729 004a 13070700 		addi	a4,a4,%lo(.LC20)
 730 004e 9546     		li	a3,5
 731 0050 1306B009 		li	a2,155
 732 0054 93050900 		addi	a1,s2,%lo(.LANCHOR6)
 733 0058 13850400 		addi	a0,s1,%lo(.LC15)
 734 005c 97000000 		call	LITE_syslog
 734      E7800000 
 735              	.LVL56:
 156:C:/Users/stapi/OneDrive/Desktop/GD32VW553/V1_MQTT_OK/GD32VW55X_Wifi_BLE_SDK/GD32VW55x_RELEASE_V1.0.2/MSDK/cloud/alicloud/src/services/dev_bind\awss_bind_statis.c ****     awss_debug("SyncToken      \t%u\t%u\t%u\t%u\t%u\t",
 736              		.loc 1 156 5
 737 0064 B7070000 		lui	a5,%hi(.LANCHOR1)
 738 0068 93870700 		addi	a5,a5,%lo(.LANCHOR1)
 739 006c D843     		lw	a4,4(a5)
 740 006e 9546     		li	a3,5
 741 0070 1306C009 		li	a2,156
 742 0074 3AC2     		sw	a4,4(sp)
 743 0076 9843     		lw	a4,0(a5)
 744 0078 93050900 		addi	a1,s2,%lo(.LANCHOR6)
 745 007c 13850400 		addi	a0,s1,%lo(.LC15)
 746 0080 3AC0     		sw	a4,0(sp)
 747 0082 83A88700 		lw	a7,8(a5)
 748 0086 03A80701 		lw	a6,16(a5)
 749 008a DC47     		lw	a5,12(a5)
 750 008c 37070000 		lui	a4,%hi(.LC21)
 751 0090 13070700 		addi	a4,a4,%lo(.LC21)
 752 0094 97000000 		call	LITE_syslog
 752      E7800000 
 753              	.LVL57:
 157:C:/Users/stapi/OneDrive/Desktop/GD32VW553/V1_MQTT_OK/GD32VW55X_Wifi_BLE_SDK/GD32VW55x_RELEASE_V1.0.2/MSDK/cloud/alicloud/src/services/dev_bind\awss_bind_statis.c ****             DB_TMAX, DB_TMIN, DB_TMEAN, DB_CNT, DB_SUC);
 158:C:/Users/stapi/OneDrive/Desktop/GD32VW553/V1_MQTT_OK/GD32VW55X_Wifi_BLE_SDK/GD32VW55x_RELEASE_V1.0.2/MSDK/cloud/alicloud/src/services/dev_bind\awss_bind_statis.c ****     awss_debug("----------------------------------------------------------------------");
 754              		.loc 1 158 5
 755 009c 37070000 		lui	a4,%hi(.LC22)
 756 00a0 13850400 		addi	a0,s1,%lo(.LC15)
 757 00a4 13070700 		addi	a4,a4,%lo(.LC22)
 758 00a8 9546     		li	a3,5
 759 00aa 1306E009 		li	a2,158
 760 00ae 93050900 		addi	a1,s2,%lo(.LANCHOR6)
 761 00b2 97000000 		call	LITE_syslog
 761      E7800000 
 762              	.LVL58:
 159:C:/Users/stapi/OneDrive/Desktop/GD32VW553/V1_MQTT_OK/GD32VW55X_Wifi_BLE_SDK/GD32VW55x_RELEASE_V1.0.2/MSDK/cloud/alicloud/src/services/dev_bind\awss_bind_statis.c **** 
 160:C:/Users/stapi/OneDrive/Desktop/GD32VW553/V1_MQTT_OK/GD32VW55X_Wifi_BLE_SDK/GD32VW55x_RELEASE_V1.0.2/MSDK/cloud/alicloud/src/services/dev_bind\awss_bind_statis.c ****     if (awss_statis_db_mutex)
 763              		.loc 1 160 5
 764              		.loc 1 160 9 is_stmt 0
 765 00ba 0840     		lw	a0,0(s0)
 766              		.loc 1 160 8
 767 00bc 09C5     		beq	a0,zero,.L57
 161:C:/Users/stapi/OneDrive/Desktop/GD32VW553/V1_MQTT_OK/GD32VW55X_Wifi_BLE_SDK/GD32VW55x_RELEASE_V1.0.2/MSDK/cloud/alicloud/src/services/dev_bind\awss_bind_statis.c ****         HAL_MutexUnlock(awss_statis_db_mutex);
 768              		.loc 1 161 9 is_stmt 1
 769 00be 97000000 		call	HAL_MutexUnlock
 769      E7800000 
 770              	.LVL59:
 771              	.L57:
 162:C:/Users/stapi/OneDrive/Desktop/GD32VW553/V1_MQTT_OK/GD32VW55X_Wifi_BLE_SDK/GD32VW55x_RELEASE_V1.0.2/MSDK/cloud/alicloud/src/services/dev_bind\awss_bind_statis.c **** }
 772              		.loc 1 162 1 is_stmt 0
 773 00c6 4101     		addi	sp,sp,16
 774              		.cfi_def_cfa_offset 0
 775 00c8 17030000 		tail	__riscv_restore_3
 775      67000300 
 776              		.cfi_restore 18
 777              		.cfi_restore 9
 778              		.cfi_restore 8
 779              		.cfi_restore 1
 780              		.cfi_def_cfa_offset -16
 781              		.cfi_endproc
 782              	.LFE51:
 784              		.section	.bss.g_db_statis,"aw",@nobits
 785              		.align	2
 786              		.set	.LANCHOR1,. + 0
 789              	g_db_statis:
 790 0000 00000000 		.zero	28
 790      00000000 
 790      00000000 
 790      00000000 
 790      00000000 
 791              		.section	.rodata.__FUNCTION__.0,"a"
 792              		.align	2
 793              		.set	.LANCHOR6,. + 0
 796              	__FUNCTION__.0:
 797 0000 61777373 		.string	"awss_bind_disp_statis"
 797      5F62696E 
 797      645F6469 
 797      73705F73 
 797      74617469 
 798              		.section	.rodata.__FUNCTION__.1,"a"
 799              		.align	2
 800              		.set	.LANCHOR5,. + 0
 803              	__FUNCTION__.1:
 804 0000 61777373 		.string	"awss_bind_update_statis"
 804      5F62696E 
 804      645F7570 
 804      64617465 
 804      5F737461 
 805              		.section	.rodata.__FUNCTION__.2,"a"
 806              		.align	2
 807              		.set	.LANCHOR4,. + 0
 810              	__FUNCTION__.2:
 811 0000 61777373 		.string	"awss_bind_report_statis"
 811      5F62696E 
 811      645F7265 
 811      706F7274 
 811      5F737461 
 812              		.section	.sbss.awss_statis_db_mutex,"aw",@nobits
 813              		.align	2
 814              		.set	.LANCHOR0,. + 0
 817              	awss_statis_db_mutex:
 818 0000 00000000 		.zero	4
 819              		.section	.sbss.awss_statis_db_report_id,"aw",@nobits
 820              		.align	2
 821              		.set	.LANCHOR3,. + 0
 824              	awss_statis_db_report_id:
 825 0000 00000000 		.zero	4
 826              		.section	.sbss.awss_statis_db_trace_id,"aw",@nobits
 827              		.align	2
 828              		.set	.LANCHOR2,. + 0
 831              	awss_statis_db_trace_id:
 832 0000 00000000 		.zero	4
 833              		.text
 834              	.Letext0:
 835              		.file 3 "c:\\users\\stapi\\onedrive\\desktop\\gd32vw553\\embeddedbuilder_v1.4.7.26843\\tools\\nucl
 836              		.file 4 "c:\\users\\stapi\\onedrive\\desktop\\gd32vw553\\embeddedbuilder_v1.4.7.26843\\tools\\nucl
 837              		.file 5 "C:/Users/stapi/OneDrive/Desktop/GD32VW553/V1_MQTT_OK/GD32VW55X_Wifi_BLE_SDK/GD32VW55x_REL
 838              		.file 6 "C:/Users/stapi/OneDrive/Desktop/GD32VW553/V1_MQTT_OK/GD32VW55X_Wifi_BLE_SDK/GD32VW55x_REL
 839              		.file 7 "..\\..\\..\\..\\cloud\\alicloud\\include/iot_import.h"
 840              		.file 8 "..\\..\\..\\..\\cloud\\alicloud\\src\\infra\\log/iotx_log.h"
 841              		.file 9 "c:\\users\\stapi\\onedrive\\desktop\\gd32vw553\\embeddedbuilder_v1.4.7.26843\\tools\\nucl
 842              		.file 10 "C:/Users/stapi/OneDrive/Desktop/GD32VW553/V1_MQTT_OK/GD32VW55X_Wifi_BLE_SDK/GD32VW55x_RE
 843              		.file 11 "<built-in>"